


Disassembly of section .text:

00000000000030a0 <_start>:
    30a0:	f3 0f 1e fa          	endbr64 
    30a4:	31 ed                	xor    %ebp,%ebp
    30a6:	49 89 d1             	mov    %rdx,%r9
    30a9:	5e                   	pop    %rsi
    30aa:	48 89 e2             	mov    %rsp,%rdx
    30ad:	48 83 e4 f0          	and    $0xfffffffffffffff0,%rsp
    30b1:	50                   	push   %rax
    30b2:	54                   	push   %rsp
    30b3:	4c 8d 05 56 79 00 00 	lea    0x7956(%rip),%r8        # aa10 <__libc_csu_fini>
    30ba:	48 8d 0d df 78 00 00 	lea    0x78df(%rip),%rcx        # a9a0 <__libc_csu_init>
    30c1:	48 8d 3d 6b 53 00 00 	lea    0x536b(%rip),%rdi        # 8433 <main>
    30c8:	ff 15 12 bf 00 00    	callq  *0xbf12(%rip)        # efe0 <__libc_start_main@GLIBC_2.2.5>
    30ce:	f4                   	hlt    
    30cf:	90                   	nop

00000000000030d0 <deregister_tm_clones>:
    30d0:	48 8d 3d d1 ee 00 00 	lea    0xeed1(%rip),%rdi        # 11fa8 <__TMC_END__>
    30d7:	48 8d 05 ca ee 00 00 	lea    0xeeca(%rip),%rax        # 11fa8 <__TMC_END__>
    30de:	48 39 f8             	cmp    %rdi,%rax
    30e1:	74 15                	je     30f8 <deregister_tm_clones+0x28>
    30e3:	48 8b 05 ee be 00 00 	mov    0xbeee(%rip),%rax        # efd8 <_ITM_deregisterTMCloneTable>
    30ea:	48 85 c0             	test   %rax,%rax
    30ed:	74 09                	je     30f8 <deregister_tm_clones+0x28>
    30ef:	ff e0                	jmpq   *%rax
    30f1:	0f 1f 80 00 00 00 00 	nopl   0x0(%rax)
    30f8:	c3                   	retq   
    30f9:	0f 1f 80 00 00 00 00 	nopl   0x0(%rax)

0000000000003100 <register_tm_clones>:
    3100:	48 8d 3d a1 ee 00 00 	lea    0xeea1(%rip),%rdi        # 11fa8 <__TMC_END__>
    3107:	48 8d 35 9a ee 00 00 	lea    0xee9a(%rip),%rsi        # 11fa8 <__TMC_END__>
    310e:	48 29 fe             	sub    %rdi,%rsi
    3111:	48 89 f0             	mov    %rsi,%rax
    3114:	48 c1 ee 3f          	shr    $0x3f,%rsi
    3118:	48 c1 f8 03          	sar    $0x3,%rax
    311c:	48 01 c6             	add    %rax,%rsi
    311f:	48 d1 fe             	sar    %rsi
    3122:	74 14                	je     3138 <register_tm_clones+0x38>
    3124:	48 8b 05 c5 be 00 00 	mov    0xbec5(%rip),%rax        # eff0 <_ITM_registerTMCloneTable>
    312b:	48 85 c0             	test   %rax,%rax
    312e:	74 08                	je     3138 <register_tm_clones+0x38>
    3130:	ff e0                	jmpq   *%rax
    3132:	66 0f 1f 44 00 00    	nopw   0x0(%rax,%rax,1)
    3138:	c3                   	retq   
    3139:	0f 1f 80 00 00 00 00 	nopl   0x0(%rax)

0000000000003140 <__do_global_dtors_aux>:
    3140:	f3 0f 1e fa          	endbr64 
    3144:	80 3d 75 ee 00 00 00 	cmpb   $0x0,0xee75(%rip)        # 11fc0 <completed.8061>
    314b:	75 2b                	jne    3178 <__do_global_dtors_aux+0x38>
    314d:	55                   	push   %rbp
    314e:	48 83 3d a2 be 00 00 	cmpq   $0x0,0xbea2(%rip)        # eff8 <__cxa_finalize@GLIBC_2.2.5>
    3155:	00 
    3156:	48 89 e5             	mov    %rsp,%rbp
    3159:	74 0c                	je     3167 <__do_global_dtors_aux+0x27>
    315b:	48 8b 3d a6 be 00 00 	mov    0xbea6(%rip),%rdi        # f008 <__dso_handle>
    3162:	e8 f9 fe ff ff       	callq  3060 <__cxa_finalize@plt>
    3167:	e8 64 ff ff ff       	callq  30d0 <deregister_tm_clones>
    316c:	c6 05 4d ee 00 00 01 	movb   $0x1,0xee4d(%rip)        # 11fc0 <completed.8061>
    3173:	5d                   	pop    %rbp
    3174:	c3                   	retq   
    3175:	0f 1f 00             	nopl   (%rax)
    3178:	c3                   	retq   
    3179:	0f 1f 80 00 00 00 00 	nopl   0x0(%rax)

0000000000003180 <frame_dummy>:
    3180:	f3 0f 1e fa          	endbr64 
    3184:	e9 77 ff ff ff       	jmpq   3100 <register_tm_clones>

0000000000003189 <platform_main_begin>:
    3189:	f3 0f 1e fa          	endbr64 
    318d:	55                   	push   %rbp
    318e:	48 89 e5             	mov    %rsp,%rbp
    3191:	90                   	nop
    3192:	5d                   	pop    %rbp
    3193:	c3                   	retq   

0000000000003194 <platform_main_end>:
    3194:	f3 0f 1e fa          	endbr64 
    3198:	55                   	push   %rbp
    3199:	48 89 e5             	mov    %rsp,%rbp
    319c:	48 83 ec 10          	sub    $0x10,%rsp
    31a0:	89 7d fc             	mov    %edi,-0x4(%rbp)
    31a3:	89 75 f8             	mov    %esi,-0x8(%rbp)
    31a6:	8b 45 fc             	mov    -0x4(%rbp),%eax
    31a9:	89 c6                	mov    %eax,%esi
    31ab:	48 8d 3d 6e 7e 00 00 	lea    0x7e6e(%rip),%rdi        # b020 <_IO_stdin_used+0x20>
    31b2:	b8 00 00 00 00       	mov    $0x0,%eax
    31b7:	e8 c4 fe ff ff       	callq  3080 <printf@plt>
    31bc:	90                   	nop
    31bd:	c9                   	leaveq 
    31be:	c3                   	retq   

00000000000031bf <safe_unary_minus_func_int8_t_s>:
    31bf:	f3 0f 1e fa          	endbr64 
    31c3:	55                   	push   %rbp
    31c4:	48 89 e5             	mov    %rsp,%rbp
    31c7:	89 f8                	mov    %edi,%eax
    31c9:	88 45 fc             	mov    %al,-0x4(%rbp)
    31cc:	0f b6 45 fc          	movzbl -0x4(%rbp),%eax
    31d0:	f7 d8                	neg    %eax
    31d2:	5d                   	pop    %rbp
    31d3:	c3                   	retq   

00000000000031d4 <safe_add_func_int8_t_s_s>:
    31d4:	f3 0f 1e fa          	endbr64 
    31d8:	55                   	push   %rbp
    31d9:	48 89 e5             	mov    %rsp,%rbp
    31dc:	89 fa                	mov    %edi,%edx
    31de:	89 f0                	mov    %esi,%eax
    31e0:	88 55 fc             	mov    %dl,-0x4(%rbp)
    31e3:	88 45 f8             	mov    %al,-0x8(%rbp)
    31e6:	0f b6 55 fc          	movzbl -0x4(%rbp),%edx
    31ea:	0f b6 45 f8          	movzbl -0x8(%rbp),%eax
    31ee:	01 d0                	add    %edx,%eax
    31f0:	5d                   	pop    %rbp
    31f1:	c3                   	retq   

00000000000031f2 <safe_sub_func_int8_t_s_s>:
    31f2:	f3 0f 1e fa          	endbr64 
    31f6:	55                   	push   %rbp
    31f7:	48 89 e5             	mov    %rsp,%rbp
    31fa:	89 fa                	mov    %edi,%edx
    31fc:	89 f0                	mov    %esi,%eax
    31fe:	88 55 fc             	mov    %dl,-0x4(%rbp)
    3201:	88 45 f8             	mov    %al,-0x8(%rbp)
    3204:	0f b6 55 fc          	movzbl -0x4(%rbp),%edx
    3208:	0f b6 45 f8          	movzbl -0x8(%rbp),%eax
    320c:	29 c2                	sub    %eax,%edx
    320e:	89 d0                	mov    %edx,%eax
    3210:	5d                   	pop    %rbp
    3211:	c3                   	retq   

0000000000003212 <safe_mul_func_int8_t_s_s>:
    3212:	f3 0f 1e fa          	endbr64 
    3216:	55                   	push   %rbp
    3217:	48 89 e5             	mov    %rsp,%rbp
    321a:	89 fa                	mov    %edi,%edx
    321c:	89 f0                	mov    %esi,%eax
    321e:	88 55 fc             	mov    %dl,-0x4(%rbp)
    3221:	88 45 f8             	mov    %al,-0x8(%rbp)
    3224:	0f b6 45 fc          	movzbl -0x4(%rbp),%eax
    3228:	0f b6 55 f8          	movzbl -0x8(%rbp),%edx
    322c:	0f af c2             	imul   %edx,%eax
    322f:	5d                   	pop    %rbp
    3230:	c3                   	retq   

0000000000003231 <safe_mod_func_int8_t_s_s>:
    3231:	f3 0f 1e fa          	endbr64 
    3235:	55                   	push   %rbp
    3236:	48 89 e5             	mov    %rsp,%rbp
    3239:	89 fa                	mov    %edi,%edx
    323b:	89 f0                	mov    %esi,%eax
    323d:	88 55 fc             	mov    %dl,-0x4(%rbp)
    3240:	88 45 f8             	mov    %al,-0x8(%rbp)
    3243:	80 7d f8 00          	cmpb   $0x0,-0x8(%rbp)
    3247:	74 1b                	je     3264 <safe_mod_func_int8_t_s_s+0x33>
    3249:	80 7d fc 80          	cmpb   $0x80,-0x4(%rbp)
    324d:	75 06                	jne    3255 <safe_mod_func_int8_t_s_s+0x24>
    324f:	80 7d f8 ff          	cmpb   $0xff,-0x8(%rbp)
    3253:	74 0f                	je     3264 <safe_mod_func_int8_t_s_s+0x33>
    3255:	0f be 45 fc          	movsbl -0x4(%rbp),%eax
    3259:	0f be 4d f8          	movsbl -0x8(%rbp),%ecx
    325d:	99                   	cltd   
    325e:	f7 f9                	idiv   %ecx
    3260:	89 d0                	mov    %edx,%eax
    3262:	eb 04                	jmp    3268 <safe_mod_func_int8_t_s_s+0x37>
    3264:	0f b6 45 fc          	movzbl -0x4(%rbp),%eax
    3268:	5d                   	pop    %rbp
    3269:	c3                   	retq   

000000000000326a <safe_div_func_int8_t_s_s>:
    326a:	f3 0f 1e fa          	endbr64 
    326e:	55                   	push   %rbp
    326f:	48 89 e5             	mov    %rsp,%rbp
    3272:	89 fa                	mov    %edi,%edx
    3274:	89 f0                	mov    %esi,%eax
    3276:	88 55 fc             	mov    %dl,-0x4(%rbp)
    3279:	88 45 f8             	mov    %al,-0x8(%rbp)
    327c:	80 7d f8 00          	cmpb   $0x0,-0x8(%rbp)
    3280:	74 19                	je     329b <safe_div_func_int8_t_s_s+0x31>
    3282:	80 7d fc 80          	cmpb   $0x80,-0x4(%rbp)
    3286:	75 06                	jne    328e <safe_div_func_int8_t_s_s+0x24>
    3288:	80 7d f8 ff          	cmpb   $0xff,-0x8(%rbp)
    328c:	74 0d                	je     329b <safe_div_func_int8_t_s_s+0x31>
    328e:	0f be 45 fc          	movsbl -0x4(%rbp),%eax
    3292:	0f be 4d f8          	movsbl -0x8(%rbp),%ecx
    3296:	99                   	cltd   
    3297:	f7 f9                	idiv   %ecx
    3299:	eb 04                	jmp    329f <safe_div_func_int8_t_s_s+0x35>
    329b:	0f b6 45 fc          	movzbl -0x4(%rbp),%eax
    329f:	5d                   	pop    %rbp
    32a0:	c3                   	retq   

00000000000032a1 <safe_lshift_func_int8_t_s_s>:
    32a1:	f3 0f 1e fa          	endbr64 
    32a5:	55                   	push   %rbp
    32a6:	48 89 e5             	mov    %rsp,%rbp
    32a9:	89 f8                	mov    %edi,%eax
    32ab:	89 75 f8             	mov    %esi,-0x8(%rbp)
    32ae:	88 45 fc             	mov    %al,-0x4(%rbp)
    32b1:	80 7d fc 00          	cmpb   $0x0,-0x4(%rbp)
    32b5:	78 31                	js     32e8 <safe_lshift_func_int8_t_s_s+0x47>
    32b7:	83 7d f8 00          	cmpl   $0x0,-0x8(%rbp)
    32bb:	78 2b                	js     32e8 <safe_lshift_func_int8_t_s_s+0x47>
    32bd:	83 7d f8 1f          	cmpl   $0x1f,-0x8(%rbp)
    32c1:	7f 25                	jg     32e8 <safe_lshift_func_int8_t_s_s+0x47>
    32c3:	0f be 55 fc          	movsbl -0x4(%rbp),%edx
    32c7:	8b 45 f8             	mov    -0x8(%rbp),%eax
    32ca:	be 7f 00 00 00       	mov    $0x7f,%esi
    32cf:	89 c1                	mov    %eax,%ecx
    32d1:	d3 fe                	sar    %cl,%esi
    32d3:	89 f0                	mov    %esi,%eax
    32d5:	39 c2                	cmp    %eax,%edx
    32d7:	7f 0f                	jg     32e8 <safe_lshift_func_int8_t_s_s+0x47>
    32d9:	0f be 55 fc          	movsbl -0x4(%rbp),%edx
    32dd:	8b 45 f8             	mov    -0x8(%rbp),%eax
    32e0:	89 c1                	mov    %eax,%ecx
    32e2:	d3 e2                	shl    %cl,%edx
    32e4:	89 d0                	mov    %edx,%eax
    32e6:	eb 04                	jmp    32ec <safe_lshift_func_int8_t_s_s+0x4b>
    32e8:	0f b6 45 fc          	movzbl -0x4(%rbp),%eax
    32ec:	5d                   	pop    %rbp
    32ed:	c3                   	retq   

00000000000032ee <safe_lshift_func_int8_t_s_u>:
    32ee:	f3 0f 1e fa          	endbr64 
    32f2:	55                   	push   %rbp
    32f3:	48 89 e5             	mov    %rsp,%rbp
    32f6:	89 f8                	mov    %edi,%eax
    32f8:	89 75 f8             	mov    %esi,-0x8(%rbp)
    32fb:	88 45 fc             	mov    %al,-0x4(%rbp)
    32fe:	80 7d fc 00          	cmpb   $0x0,-0x4(%rbp)
    3302:	78 2b                	js     332f <safe_lshift_func_int8_t_s_u+0x41>
    3304:	83 7d f8 1f          	cmpl   $0x1f,-0x8(%rbp)
    3308:	77 25                	ja     332f <safe_lshift_func_int8_t_s_u+0x41>
    330a:	0f be 55 fc          	movsbl -0x4(%rbp),%edx
    330e:	8b 45 f8             	mov    -0x8(%rbp),%eax
    3311:	be 7f 00 00 00       	mov    $0x7f,%esi
    3316:	89 c1                	mov    %eax,%ecx
    3318:	d3 fe                	sar    %cl,%esi
    331a:	89 f0                	mov    %esi,%eax
    331c:	39 c2                	cmp    %eax,%edx
    331e:	7f 0f                	jg     332f <safe_lshift_func_int8_t_s_u+0x41>
    3320:	0f be 55 fc          	movsbl -0x4(%rbp),%edx
    3324:	8b 45 f8             	mov    -0x8(%rbp),%eax
    3327:	89 c1                	mov    %eax,%ecx
    3329:	d3 e2                	shl    %cl,%edx
    332b:	89 d0                	mov    %edx,%eax
    332d:	eb 04                	jmp    3333 <safe_lshift_func_int8_t_s_u+0x45>
    332f:	0f b6 45 fc          	movzbl -0x4(%rbp),%eax
    3333:	5d                   	pop    %rbp
    3334:	c3                   	retq   

0000000000003335 <safe_rshift_func_int8_t_s_s>:
    3335:	f3 0f 1e fa          	endbr64 
    3339:	55                   	push   %rbp
    333a:	48 89 e5             	mov    %rsp,%rbp
    333d:	89 f8                	mov    %edi,%eax
    333f:	89 75 f8             	mov    %esi,-0x8(%rbp)
    3342:	88 45 fc             	mov    %al,-0x4(%rbp)
    3345:	80 7d fc 00          	cmpb   $0x0,-0x4(%rbp)
    3349:	78 1b                	js     3366 <safe_rshift_func_int8_t_s_s+0x31>
    334b:	83 7d f8 00          	cmpl   $0x0,-0x8(%rbp)
    334f:	78 15                	js     3366 <safe_rshift_func_int8_t_s_s+0x31>
    3351:	83 7d f8 1f          	cmpl   $0x1f,-0x8(%rbp)
    3355:	7f 0f                	jg     3366 <safe_rshift_func_int8_t_s_s+0x31>
    3357:	0f be 55 fc          	movsbl -0x4(%rbp),%edx
    335b:	8b 45 f8             	mov    -0x8(%rbp),%eax
    335e:	89 c1                	mov    %eax,%ecx
    3360:	d3 fa                	sar    %cl,%edx
    3362:	89 d0                	mov    %edx,%eax
    3364:	eb 04                	jmp    336a <safe_rshift_func_int8_t_s_s+0x35>
    3366:	0f b6 45 fc          	movzbl -0x4(%rbp),%eax
    336a:	5d                   	pop    %rbp
    336b:	c3                   	retq   

000000000000336c <safe_rshift_func_int8_t_s_u>:
    336c:	f3 0f 1e fa          	endbr64 
    3370:	55                   	push   %rbp
    3371:	48 89 e5             	mov    %rsp,%rbp
    3374:	89 f8                	mov    %edi,%eax
    3376:	89 75 f8             	mov    %esi,-0x8(%rbp)
    3379:	88 45 fc             	mov    %al,-0x4(%rbp)
    337c:	80 7d fc 00          	cmpb   $0x0,-0x4(%rbp)
    3380:	78 15                	js     3397 <safe_rshift_func_int8_t_s_u+0x2b>
    3382:	83 7d f8 1f          	cmpl   $0x1f,-0x8(%rbp)
    3386:	77 0f                	ja     3397 <safe_rshift_func_int8_t_s_u+0x2b>
    3388:	0f be 55 fc          	movsbl -0x4(%rbp),%edx
    338c:	8b 45 f8             	mov    -0x8(%rbp),%eax
    338f:	89 c1                	mov    %eax,%ecx
    3391:	d3 fa                	sar    %cl,%edx
    3393:	89 d0                	mov    %edx,%eax
    3395:	eb 04                	jmp    339b <safe_rshift_func_int8_t_s_u+0x2f>
    3397:	0f b6 45 fc          	movzbl -0x4(%rbp),%eax
    339b:	5d                   	pop    %rbp
    339c:	c3                   	retq   

000000000000339d <safe_unary_minus_func_int16_t_s>:
    339d:	f3 0f 1e fa          	endbr64 
    33a1:	55                   	push   %rbp
    33a2:	48 89 e5             	mov    %rsp,%rbp
    33a5:	89 f8                	mov    %edi,%eax
    33a7:	66 89 45 fc          	mov    %ax,-0x4(%rbp)
    33ab:	0f b7 45 fc          	movzwl -0x4(%rbp),%eax
    33af:	f7 d8                	neg    %eax
    33b1:	5d                   	pop    %rbp
    33b2:	c3                   	retq   

00000000000033b3 <safe_add_func_int16_t_s_s>:
    33b3:	f3 0f 1e fa          	endbr64 
    33b7:	55                   	push   %rbp
    33b8:	48 89 e5             	mov    %rsp,%rbp
    33bb:	89 fa                	mov    %edi,%edx
    33bd:	89 f0                	mov    %esi,%eax
    33bf:	66 89 55 fc          	mov    %dx,-0x4(%rbp)
    33c3:	66 89 45 f8          	mov    %ax,-0x8(%rbp)
    33c7:	0f b7 55 fc          	movzwl -0x4(%rbp),%edx
    33cb:	0f b7 45 f8          	movzwl -0x8(%rbp),%eax
    33cf:	01 d0                	add    %edx,%eax
    33d1:	5d                   	pop    %rbp
    33d2:	c3                   	retq   

00000000000033d3 <safe_sub_func_int16_t_s_s>:
    33d3:	f3 0f 1e fa          	endbr64 
    33d7:	55                   	push   %rbp
    33d8:	48 89 e5             	mov    %rsp,%rbp
    33db:	89 fa                	mov    %edi,%edx
    33dd:	89 f0                	mov    %esi,%eax
    33df:	66 89 55 fc          	mov    %dx,-0x4(%rbp)
    33e3:	66 89 45 f8          	mov    %ax,-0x8(%rbp)
    33e7:	0f b7 55 fc          	movzwl -0x4(%rbp),%edx
    33eb:	0f b7 45 f8          	movzwl -0x8(%rbp),%eax
    33ef:	29 c2                	sub    %eax,%edx
    33f1:	89 d0                	mov    %edx,%eax
    33f3:	5d                   	pop    %rbp
    33f4:	c3                   	retq   

00000000000033f5 <safe_mul_func_int16_t_s_s>:
    33f5:	f3 0f 1e fa          	endbr64 
    33f9:	55                   	push   %rbp
    33fa:	48 89 e5             	mov    %rsp,%rbp
    33fd:	89 fa                	mov    %edi,%edx
    33ff:	89 f0                	mov    %esi,%eax
    3401:	66 89 55 fc          	mov    %dx,-0x4(%rbp)
    3405:	66 89 45 f8          	mov    %ax,-0x8(%rbp)
    3409:	0f b7 55 fc          	movzwl -0x4(%rbp),%edx
    340d:	0f b7 45 f8          	movzwl -0x8(%rbp),%eax
    3411:	0f af c2             	imul   %edx,%eax
    3414:	5d                   	pop    %rbp
    3415:	c3                   	retq   

0000000000003416 <safe_mod_func_int16_t_s_s>:
    3416:	f3 0f 1e fa          	endbr64 
    341a:	55                   	push   %rbp
    341b:	48 89 e5             	mov    %rsp,%rbp
    341e:	89 fa                	mov    %edi,%edx
    3420:	89 f0                	mov    %esi,%eax
    3422:	66 89 55 fc          	mov    %dx,-0x4(%rbp)
    3426:	66 89 45 f8          	mov    %ax,-0x8(%rbp)
    342a:	66 83 7d f8 00       	cmpw   $0x0,-0x8(%rbp)
    342f:	74 1e                	je     344f <safe_mod_func_int16_t_s_s+0x39>
    3431:	66 81 7d fc 00 80    	cmpw   $0x8000,-0x4(%rbp)
    3437:	75 07                	jne    3440 <safe_mod_func_int16_t_s_s+0x2a>
    3439:	66 83 7d f8 ff       	cmpw   $0xffff,-0x8(%rbp)
    343e:	74 0f                	je     344f <safe_mod_func_int16_t_s_s+0x39>
    3440:	0f bf 45 fc          	movswl -0x4(%rbp),%eax
    3444:	0f bf 4d f8          	movswl -0x8(%rbp),%ecx
    3448:	99                   	cltd   
    3449:	f7 f9                	idiv   %ecx
    344b:	89 d0                	mov    %edx,%eax
    344d:	eb 04                	jmp    3453 <safe_mod_func_int16_t_s_s+0x3d>
    344f:	0f b7 45 fc          	movzwl -0x4(%rbp),%eax
    3453:	5d                   	pop    %rbp
    3454:	c3                   	retq   

0000000000003455 <safe_div_func_int16_t_s_s>:
    3455:	f3 0f 1e fa          	endbr64 
    3459:	55                   	push   %rbp
    345a:	48 89 e5             	mov    %rsp,%rbp
    345d:	89 fa                	mov    %edi,%edx
    345f:	89 f0                	mov    %esi,%eax
    3461:	66 89 55 fc          	mov    %dx,-0x4(%rbp)
    3465:	66 89 45 f8          	mov    %ax,-0x8(%rbp)
    3469:	66 83 7d f8 00       	cmpw   $0x0,-0x8(%rbp)
    346e:	74 1c                	je     348c <safe_div_func_int16_t_s_s+0x37>
    3470:	66 81 7d fc 00 80    	cmpw   $0x8000,-0x4(%rbp)
    3476:	75 07                	jne    347f <safe_div_func_int16_t_s_s+0x2a>
    3478:	66 83 7d f8 ff       	cmpw   $0xffff,-0x8(%rbp)
    347d:	74 0d                	je     348c <safe_div_func_int16_t_s_s+0x37>
    347f:	0f bf 45 fc          	movswl -0x4(%rbp),%eax
    3483:	0f bf 4d f8          	movswl -0x8(%rbp),%ecx
    3487:	99                   	cltd   
    3488:	f7 f9                	idiv   %ecx
    348a:	eb 04                	jmp    3490 <safe_div_func_int16_t_s_s+0x3b>
    348c:	0f b7 45 fc          	movzwl -0x4(%rbp),%eax
    3490:	5d                   	pop    %rbp
    3491:	c3                   	retq   

0000000000003492 <safe_lshift_func_int16_t_s_s>:
    3492:	f3 0f 1e fa          	endbr64 
    3496:	55                   	push   %rbp
    3497:	48 89 e5             	mov    %rsp,%rbp
    349a:	89 f8                	mov    %edi,%eax
    349c:	89 75 f8             	mov    %esi,-0x8(%rbp)
    349f:	66 89 45 fc          	mov    %ax,-0x4(%rbp)
    34a3:	66 83 7d fc 00       	cmpw   $0x0,-0x4(%rbp)
    34a8:	78 31                	js     34db <safe_lshift_func_int16_t_s_s+0x49>
    34aa:	83 7d f8 00          	cmpl   $0x0,-0x8(%rbp)
    34ae:	78 2b                	js     34db <safe_lshift_func_int16_t_s_s+0x49>
    34b0:	83 7d f8 1f          	cmpl   $0x1f,-0x8(%rbp)
    34b4:	7f 25                	jg     34db <safe_lshift_func_int16_t_s_s+0x49>
    34b6:	0f bf 55 fc          	movswl -0x4(%rbp),%edx
    34ba:	8b 45 f8             	mov    -0x8(%rbp),%eax
    34bd:	be ff 7f 00 00       	mov    $0x7fff,%esi
    34c2:	89 c1                	mov    %eax,%ecx
    34c4:	d3 fe                	sar    %cl,%esi
    34c6:	89 f0                	mov    %esi,%eax
    34c8:	39 c2                	cmp    %eax,%edx
    34ca:	7f 0f                	jg     34db <safe_lshift_func_int16_t_s_s+0x49>
    34cc:	0f bf 55 fc          	movswl -0x4(%rbp),%edx
    34d0:	8b 45 f8             	mov    -0x8(%rbp),%eax
    34d3:	89 c1                	mov    %eax,%ecx
    34d5:	d3 e2                	shl    %cl,%edx
    34d7:	89 d0                	mov    %edx,%eax
    34d9:	eb 04                	jmp    34df <safe_lshift_func_int16_t_s_s+0x4d>
    34db:	0f b7 45 fc          	movzwl -0x4(%rbp),%eax
    34df:	5d                   	pop    %rbp
    34e0:	c3                   	retq   

00000000000034e1 <safe_lshift_func_int16_t_s_u>:
    34e1:	f3 0f 1e fa          	endbr64 
    34e5:	55                   	push   %rbp
    34e6:	48 89 e5             	mov    %rsp,%rbp
    34e9:	89 f8                	mov    %edi,%eax
    34eb:	89 75 f8             	mov    %esi,-0x8(%rbp)
    34ee:	66 89 45 fc          	mov    %ax,-0x4(%rbp)
    34f2:	66 83 7d fc 00       	cmpw   $0x0,-0x4(%rbp)
    34f7:	78 2b                	js     3524 <safe_lshift_func_int16_t_s_u+0x43>
    34f9:	83 7d f8 1f          	cmpl   $0x1f,-0x8(%rbp)
    34fd:	77 25                	ja     3524 <safe_lshift_func_int16_t_s_u+0x43>
    34ff:	0f bf 55 fc          	movswl -0x4(%rbp),%edx
    3503:	8b 45 f8             	mov    -0x8(%rbp),%eax
    3506:	be ff 7f 00 00       	mov    $0x7fff,%esi
    350b:	89 c1                	mov    %eax,%ecx
    350d:	d3 fe                	sar    %cl,%esi
    350f:	89 f0                	mov    %esi,%eax
    3511:	39 c2                	cmp    %eax,%edx
    3513:	7f 0f                	jg     3524 <safe_lshift_func_int16_t_s_u+0x43>
    3515:	0f bf 55 fc          	movswl -0x4(%rbp),%edx
    3519:	8b 45 f8             	mov    -0x8(%rbp),%eax
    351c:	89 c1                	mov    %eax,%ecx
    351e:	d3 e2                	shl    %cl,%edx
    3520:	89 d0                	mov    %edx,%eax
    3522:	eb 04                	jmp    3528 <safe_lshift_func_int16_t_s_u+0x47>
    3524:	0f b7 45 fc          	movzwl -0x4(%rbp),%eax
    3528:	5d                   	pop    %rbp
    3529:	c3                   	retq   

000000000000352a <safe_rshift_func_int16_t_s_s>:
    352a:	f3 0f 1e fa          	endbr64 
    352e:	55                   	push   %rbp
    352f:	48 89 e5             	mov    %rsp,%rbp
    3532:	89 f8                	mov    %edi,%eax
    3534:	89 75 f8             	mov    %esi,-0x8(%rbp)
    3537:	66 89 45 fc          	mov    %ax,-0x4(%rbp)
    353b:	66 83 7d fc 00       	cmpw   $0x0,-0x4(%rbp)
    3540:	78 1b                	js     355d <safe_rshift_func_int16_t_s_s+0x33>
    3542:	83 7d f8 00          	cmpl   $0x0,-0x8(%rbp)
    3546:	78 15                	js     355d <safe_rshift_func_int16_t_s_s+0x33>
    3548:	83 7d f8 1f          	cmpl   $0x1f,-0x8(%rbp)
    354c:	7f 0f                	jg     355d <safe_rshift_func_int16_t_s_s+0x33>
    354e:	0f bf 55 fc          	movswl -0x4(%rbp),%edx
    3552:	8b 45 f8             	mov    -0x8(%rbp),%eax
    3555:	89 c1                	mov    %eax,%ecx
    3557:	d3 fa                	sar    %cl,%edx
    3559:	89 d0                	mov    %edx,%eax
    355b:	eb 04                	jmp    3561 <safe_rshift_func_int16_t_s_s+0x37>
    355d:	0f b7 45 fc          	movzwl -0x4(%rbp),%eax
    3561:	5d                   	pop    %rbp
    3562:	c3                   	retq   

0000000000003563 <safe_rshift_func_int16_t_s_u>:
    3563:	f3 0f 1e fa          	endbr64 
    3567:	55                   	push   %rbp
    3568:	48 89 e5             	mov    %rsp,%rbp
    356b:	89 f8                	mov    %edi,%eax
    356d:	89 75 f8             	mov    %esi,-0x8(%rbp)
    3570:	66 89 45 fc          	mov    %ax,-0x4(%rbp)
    3574:	66 83 7d fc 00       	cmpw   $0x0,-0x4(%rbp)
    3579:	78 15                	js     3590 <safe_rshift_func_int16_t_s_u+0x2d>
    357b:	83 7d f8 1f          	cmpl   $0x1f,-0x8(%rbp)
    357f:	77 0f                	ja     3590 <safe_rshift_func_int16_t_s_u+0x2d>
    3581:	0f bf 55 fc          	movswl -0x4(%rbp),%edx
    3585:	8b 45 f8             	mov    -0x8(%rbp),%eax
    3588:	89 c1                	mov    %eax,%ecx
    358a:	d3 fa                	sar    %cl,%edx
    358c:	89 d0                	mov    %edx,%eax
    358e:	eb 04                	jmp    3594 <safe_rshift_func_int16_t_s_u+0x31>
    3590:	0f b7 45 fc          	movzwl -0x4(%rbp),%eax
    3594:	5d                   	pop    %rbp
    3595:	c3                   	retq   

0000000000003596 <safe_unary_minus_func_int32_t_s>:
    3596:	f3 0f 1e fa          	endbr64 
    359a:	55                   	push   %rbp
    359b:	48 89 e5             	mov    %rsp,%rbp
    359e:	89 7d fc             	mov    %edi,-0x4(%rbp)
    35a1:	81 7d fc 00 00 00 80 	cmpl   $0x80000000,-0x4(%rbp)
    35a8:	74 07                	je     35b1 <safe_unary_minus_func_int32_t_s+0x1b>
    35aa:	8b 45 fc             	mov    -0x4(%rbp),%eax
    35ad:	f7 d8                	neg    %eax
    35af:	eb 03                	jmp    35b4 <safe_unary_minus_func_int32_t_s+0x1e>
    35b1:	8b 45 fc             	mov    -0x4(%rbp),%eax
    35b4:	5d                   	pop    %rbp
    35b5:	c3                   	retq   

00000000000035b6 <safe_add_func_int32_t_s_s>:
    35b6:	f3 0f 1e fa          	endbr64 
    35ba:	55                   	push   %rbp
    35bb:	48 89 e5             	mov    %rsp,%rbp
    35be:	89 7d fc             	mov    %edi,-0x4(%rbp)
    35c1:	89 75 f8             	mov    %esi,-0x8(%rbp)
    35c4:	83 7d fc 00          	cmpl   $0x0,-0x4(%rbp)
    35c8:	7e 13                	jle    35dd <safe_add_func_int32_t_s_s+0x27>
    35ca:	83 7d f8 00          	cmpl   $0x0,-0x8(%rbp)
    35ce:	7e 0d                	jle    35dd <safe_add_func_int32_t_s_s+0x27>
    35d0:	b8 ff ff ff 7f       	mov    $0x7fffffff,%eax
    35d5:	2b 45 f8             	sub    -0x8(%rbp),%eax
    35d8:	39 45 fc             	cmp    %eax,-0x4(%rbp)
    35db:	7f 23                	jg     3600 <safe_add_func_int32_t_s_s+0x4a>
    35dd:	83 7d fc 00          	cmpl   $0x0,-0x4(%rbp)
    35e1:	79 13                	jns    35f6 <safe_add_func_int32_t_s_s+0x40>
    35e3:	83 7d f8 00          	cmpl   $0x0,-0x8(%rbp)
    35e7:	79 0d                	jns    35f6 <safe_add_func_int32_t_s_s+0x40>
    35e9:	b8 00 00 00 80       	mov    $0x80000000,%eax
    35ee:	2b 45 f8             	sub    -0x8(%rbp),%eax
    35f1:	39 45 fc             	cmp    %eax,-0x4(%rbp)
    35f4:	7c 0a                	jl     3600 <safe_add_func_int32_t_s_s+0x4a>
    35f6:	8b 55 fc             	mov    -0x4(%rbp),%edx
    35f9:	8b 45 f8             	mov    -0x8(%rbp),%eax
    35fc:	01 d0                	add    %edx,%eax
    35fe:	eb 03                	jmp    3603 <safe_add_func_int32_t_s_s+0x4d>
    3600:	8b 45 fc             	mov    -0x4(%rbp),%eax
    3603:	5d                   	pop    %rbp
    3604:	c3                   	retq   

0000000000003605 <safe_sub_func_int32_t_s_s>:
    3605:	f3 0f 1e fa          	endbr64 
    3609:	55                   	push   %rbp
    360a:	48 89 e5             	mov    %rsp,%rbp
    360d:	89 7d fc             	mov    %edi,-0x4(%rbp)
    3610:	89 75 f8             	mov    %esi,-0x8(%rbp)
    3613:	8b 45 fc             	mov    -0x4(%rbp),%eax
    3616:	33 45 f8             	xor    -0x8(%rbp),%eax
    3619:	89 c2                	mov    %eax,%edx
    361b:	8b 45 fc             	mov    -0x4(%rbp),%eax
    361e:	33 45 f8             	xor    -0x8(%rbp),%eax
    3621:	25 00 00 00 80       	and    $0x80000000,%eax
    3626:	33 45 fc             	xor    -0x4(%rbp),%eax
    3629:	2b 45 f8             	sub    -0x8(%rbp),%eax
    362c:	33 45 f8             	xor    -0x8(%rbp),%eax
    362f:	21 d0                	and    %edx,%eax
    3631:	85 c0                	test   %eax,%eax
    3633:	78 08                	js     363d <safe_sub_func_int32_t_s_s+0x38>
    3635:	8b 45 fc             	mov    -0x4(%rbp),%eax
    3638:	2b 45 f8             	sub    -0x8(%rbp),%eax
    363b:	eb 03                	jmp    3640 <safe_sub_func_int32_t_s_s+0x3b>
    363d:	8b 45 fc             	mov    -0x4(%rbp),%eax
    3640:	5d                   	pop    %rbp
    3641:	c3                   	retq   

0000000000003642 <safe_mul_func_int32_t_s_s>:
    3642:	f3 0f 1e fa          	endbr64 
    3646:	55                   	push   %rbp
    3647:	48 89 e5             	mov    %rsp,%rbp
    364a:	89 7d fc             	mov    %edi,-0x4(%rbp)
    364d:	89 75 f8             	mov    %esi,-0x8(%rbp)
    3650:	83 7d fc 00          	cmpl   $0x0,-0x4(%rbp)
    3654:	7e 14                	jle    366a <safe_mul_func_int32_t_s_s+0x28>
    3656:	83 7d f8 00          	cmpl   $0x0,-0x8(%rbp)
    365a:	7e 0e                	jle    366a <safe_mul_func_int32_t_s_s+0x28>
    365c:	b8 ff ff ff 7f       	mov    $0x7fffffff,%eax
    3661:	99                   	cltd   
    3662:	f7 7d f8             	idivl  -0x8(%rbp)
    3665:	39 45 fc             	cmp    %eax,-0x4(%rbp)
    3668:	7f 5d                	jg     36c7 <safe_mul_func_int32_t_s_s+0x85>
    366a:	83 7d fc 00          	cmpl   $0x0,-0x4(%rbp)
    366e:	7e 14                	jle    3684 <safe_mul_func_int32_t_s_s+0x42>
    3670:	83 7d f8 00          	cmpl   $0x0,-0x8(%rbp)
    3674:	7f 0e                	jg     3684 <safe_mul_func_int32_t_s_s+0x42>
    3676:	b8 00 00 00 80       	mov    $0x80000000,%eax
    367b:	99                   	cltd   
    367c:	f7 7d fc             	idivl  -0x4(%rbp)
    367f:	39 45 f8             	cmp    %eax,-0x8(%rbp)
    3682:	7c 43                	jl     36c7 <safe_mul_func_int32_t_s_s+0x85>
    3684:	83 7d fc 00          	cmpl   $0x0,-0x4(%rbp)
    3688:	7f 14                	jg     369e <safe_mul_func_int32_t_s_s+0x5c>
    368a:	83 7d f8 00          	cmpl   $0x0,-0x8(%rbp)
    368e:	7e 0e                	jle    369e <safe_mul_func_int32_t_s_s+0x5c>
    3690:	b8 00 00 00 80       	mov    $0x80000000,%eax
    3695:	99                   	cltd   
    3696:	f7 7d f8             	idivl  -0x8(%rbp)
    3699:	39 45 fc             	cmp    %eax,-0x4(%rbp)
    369c:	7c 29                	jl     36c7 <safe_mul_func_int32_t_s_s+0x85>
    369e:	83 7d fc 00          	cmpl   $0x0,-0x4(%rbp)
    36a2:	7f 1a                	jg     36be <safe_mul_func_int32_t_s_s+0x7c>
    36a4:	83 7d f8 00          	cmpl   $0x0,-0x8(%rbp)
    36a8:	7f 14                	jg     36be <safe_mul_func_int32_t_s_s+0x7c>
    36aa:	83 7d fc 00          	cmpl   $0x0,-0x4(%rbp)
    36ae:	74 0e                	je     36be <safe_mul_func_int32_t_s_s+0x7c>
    36b0:	b8 ff ff ff 7f       	mov    $0x7fffffff,%eax
    36b5:	99                   	cltd   
    36b6:	f7 7d fc             	idivl  -0x4(%rbp)
    36b9:	39 45 f8             	cmp    %eax,-0x8(%rbp)
    36bc:	7c 09                	jl     36c7 <safe_mul_func_int32_t_s_s+0x85>
    36be:	8b 45 fc             	mov    -0x4(%rbp),%eax
    36c1:	0f af 45 f8          	imul   -0x8(%rbp),%eax
    36c5:	eb 03                	jmp    36ca <safe_mul_func_int32_t_s_s+0x88>
    36c7:	8b 45 fc             	mov    -0x4(%rbp),%eax
    36ca:	5d                   	pop    %rbp
    36cb:	c3                   	retq   

00000000000036cc <safe_mod_func_int32_t_s_s>:
    36cc:	f3 0f 1e fa          	endbr64 
    36d0:	55                   	push   %rbp
    36d1:	48 89 e5             	mov    %rsp,%rbp
    36d4:	89 7d fc             	mov    %edi,-0x4(%rbp)
    36d7:	89 75 f8             	mov    %esi,-0x8(%rbp)
    36da:	83 7d f8 00          	cmpl   $0x0,-0x8(%rbp)
    36de:	74 1a                	je     36fa <safe_mod_func_int32_t_s_s+0x2e>
    36e0:	81 7d fc 00 00 00 80 	cmpl   $0x80000000,-0x4(%rbp)
    36e7:	75 06                	jne    36ef <safe_mod_func_int32_t_s_s+0x23>
    36e9:	83 7d f8 ff          	cmpl   $0xffffffff,-0x8(%rbp)
    36ed:	74 0b                	je     36fa <safe_mod_func_int32_t_s_s+0x2e>
    36ef:	8b 45 fc             	mov    -0x4(%rbp),%eax
    36f2:	99                   	cltd   
    36f3:	f7 7d f8             	idivl  -0x8(%rbp)
    36f6:	89 d0                	mov    %edx,%eax
    36f8:	eb 03                	jmp    36fd <safe_mod_func_int32_t_s_s+0x31>
    36fa:	8b 45 fc             	mov    -0x4(%rbp),%eax
    36fd:	5d                   	pop    %rbp
    36fe:	c3                   	retq   

00000000000036ff <safe_div_func_int32_t_s_s>:
    36ff:	f3 0f 1e fa          	endbr64 
    3703:	55                   	push   %rbp
    3704:	48 89 e5             	mov    %rsp,%rbp
    3707:	89 7d fc             	mov    %edi,-0x4(%rbp)
    370a:	89 75 f8             	mov    %esi,-0x8(%rbp)
    370d:	83 7d f8 00          	cmpl   $0x0,-0x8(%rbp)
    3711:	74 18                	je     372b <safe_div_func_int32_t_s_s+0x2c>
    3713:	81 7d fc 00 00 00 80 	cmpl   $0x80000000,-0x4(%rbp)
    371a:	75 06                	jne    3722 <safe_div_func_int32_t_s_s+0x23>
    371c:	83 7d f8 ff          	cmpl   $0xffffffff,-0x8(%rbp)
    3720:	74 09                	je     372b <safe_div_func_int32_t_s_s+0x2c>
    3722:	8b 45 fc             	mov    -0x4(%rbp),%eax
    3725:	99                   	cltd   
    3726:	f7 7d f8             	idivl  -0x8(%rbp)
    3729:	eb 03                	jmp    372e <safe_div_func_int32_t_s_s+0x2f>
    372b:	8b 45 fc             	mov    -0x4(%rbp),%eax
    372e:	5d                   	pop    %rbp
    372f:	c3                   	retq   

0000000000003730 <safe_lshift_func_int32_t_s_s>:
    3730:	f3 0f 1e fa          	endbr64 
    3734:	55                   	push   %rbp
    3735:	48 89 e5             	mov    %rsp,%rbp
    3738:	89 7d fc             	mov    %edi,-0x4(%rbp)
    373b:	89 75 f8             	mov    %esi,-0x8(%rbp)
    373e:	83 7d fc 00          	cmpl   $0x0,-0x4(%rbp)
    3742:	78 2d                	js     3771 <safe_lshift_func_int32_t_s_s+0x41>
    3744:	83 7d f8 00          	cmpl   $0x0,-0x8(%rbp)
    3748:	78 27                	js     3771 <safe_lshift_func_int32_t_s_s+0x41>
    374a:	83 7d f8 1f          	cmpl   $0x1f,-0x8(%rbp)
    374e:	7f 21                	jg     3771 <safe_lshift_func_int32_t_s_s+0x41>
    3750:	8b 45 f8             	mov    -0x8(%rbp),%eax
    3753:	ba ff ff ff 7f       	mov    $0x7fffffff,%edx
    3758:	89 c1                	mov    %eax,%ecx
    375a:	d3 fa                	sar    %cl,%edx
    375c:	89 d0                	mov    %edx,%eax
    375e:	39 45 fc             	cmp    %eax,-0x4(%rbp)
    3761:	7f 0e                	jg     3771 <safe_lshift_func_int32_t_s_s+0x41>
    3763:	8b 45 f8             	mov    -0x8(%rbp),%eax
    3766:	8b 55 fc             	mov    -0x4(%rbp),%edx
    3769:	89 c1                	mov    %eax,%ecx
    376b:	d3 e2                	shl    %cl,%edx
    376d:	89 d0                	mov    %edx,%eax
    376f:	eb 03                	jmp    3774 <safe_lshift_func_int32_t_s_s+0x44>
    3771:	8b 45 fc             	mov    -0x4(%rbp),%eax
    3774:	5d                   	pop    %rbp
    3775:	c3                   	retq   

0000000000003776 <safe_lshift_func_int32_t_s_u>:
    3776:	f3 0f 1e fa          	endbr64 
    377a:	55                   	push   %rbp
    377b:	48 89 e5             	mov    %rsp,%rbp
    377e:	89 7d fc             	mov    %edi,-0x4(%rbp)
    3781:	89 75 f8             	mov    %esi,-0x8(%rbp)
    3784:	83 7d fc 00          	cmpl   $0x0,-0x4(%rbp)
    3788:	78 27                	js     37b1 <safe_lshift_func_int32_t_s_u+0x3b>
    378a:	83 7d f8 1f          	cmpl   $0x1f,-0x8(%rbp)
    378e:	77 21                	ja     37b1 <safe_lshift_func_int32_t_s_u+0x3b>
    3790:	8b 45 f8             	mov    -0x8(%rbp),%eax
    3793:	ba ff ff ff 7f       	mov    $0x7fffffff,%edx
    3798:	89 c1                	mov    %eax,%ecx
    379a:	d3 fa                	sar    %cl,%edx
    379c:	89 d0                	mov    %edx,%eax
    379e:	39 45 fc             	cmp    %eax,-0x4(%rbp)
    37a1:	7f 0e                	jg     37b1 <safe_lshift_func_int32_t_s_u+0x3b>
    37a3:	8b 45 f8             	mov    -0x8(%rbp),%eax
    37a6:	8b 55 fc             	mov    -0x4(%rbp),%edx
    37a9:	89 c1                	mov    %eax,%ecx
    37ab:	d3 e2                	shl    %cl,%edx
    37ad:	89 d0                	mov    %edx,%eax
    37af:	eb 03                	jmp    37b4 <safe_lshift_func_int32_t_s_u+0x3e>
    37b1:	8b 45 fc             	mov    -0x4(%rbp),%eax
    37b4:	5d                   	pop    %rbp
    37b5:	c3                   	retq   

00000000000037b6 <safe_rshift_func_int32_t_s_s>:
    37b6:	f3 0f 1e fa          	endbr64 
    37ba:	55                   	push   %rbp
    37bb:	48 89 e5             	mov    %rsp,%rbp
    37be:	89 7d fc             	mov    %edi,-0x4(%rbp)
    37c1:	89 75 f8             	mov    %esi,-0x8(%rbp)
    37c4:	83 7d fc 00          	cmpl   $0x0,-0x4(%rbp)
    37c8:	78 1a                	js     37e4 <safe_rshift_func_int32_t_s_s+0x2e>
    37ca:	83 7d f8 00          	cmpl   $0x0,-0x8(%rbp)
    37ce:	78 14                	js     37e4 <safe_rshift_func_int32_t_s_s+0x2e>
    37d0:	83 7d f8 1f          	cmpl   $0x1f,-0x8(%rbp)
    37d4:	7f 0e                	jg     37e4 <safe_rshift_func_int32_t_s_s+0x2e>
    37d6:	8b 45 f8             	mov    -0x8(%rbp),%eax
    37d9:	8b 55 fc             	mov    -0x4(%rbp),%edx
    37dc:	89 c1                	mov    %eax,%ecx
    37de:	d3 fa                	sar    %cl,%edx
    37e0:	89 d0                	mov    %edx,%eax
    37e2:	eb 03                	jmp    37e7 <safe_rshift_func_int32_t_s_s+0x31>
    37e4:	8b 45 fc             	mov    -0x4(%rbp),%eax
    37e7:	5d                   	pop    %rbp
    37e8:	c3                   	retq   

00000000000037e9 <safe_rshift_func_int32_t_s_u>:
    37e9:	f3 0f 1e fa          	endbr64 
    37ed:	55                   	push   %rbp
    37ee:	48 89 e5             	mov    %rsp,%rbp
    37f1:	89 7d fc             	mov    %edi,-0x4(%rbp)
    37f4:	89 75 f8             	mov    %esi,-0x8(%rbp)
    37f7:	83 7d fc 00          	cmpl   $0x0,-0x4(%rbp)
    37fb:	78 14                	js     3811 <safe_rshift_func_int32_t_s_u+0x28>
    37fd:	83 7d f8 1f          	cmpl   $0x1f,-0x8(%rbp)
    3801:	77 0e                	ja     3811 <safe_rshift_func_int32_t_s_u+0x28>
    3803:	8b 45 f8             	mov    -0x8(%rbp),%eax
    3806:	8b 55 fc             	mov    -0x4(%rbp),%edx
    3809:	89 c1                	mov    %eax,%ecx
    380b:	d3 fa                	sar    %cl,%edx
    380d:	89 d0                	mov    %edx,%eax
    380f:	eb 03                	jmp    3814 <safe_rshift_func_int32_t_s_u+0x2b>
    3811:	8b 45 fc             	mov    -0x4(%rbp),%eax
    3814:	5d                   	pop    %rbp
    3815:	c3                   	retq   

0000000000003816 <safe_unary_minus_func_int64_t_s>:
    3816:	f3 0f 1e fa          	endbr64 
    381a:	55                   	push   %rbp
    381b:	48 89 e5             	mov    %rsp,%rbp
    381e:	48 89 7d f8          	mov    %rdi,-0x8(%rbp)
    3822:	48 b8 00 00 00 00 00 	movabs $0x8000000000000000,%rax
    3829:	00 00 80 
    382c:	48 39 45 f8          	cmp    %rax,-0x8(%rbp)
    3830:	74 09                	je     383b <safe_unary_minus_func_int64_t_s+0x25>
    3832:	48 8b 45 f8          	mov    -0x8(%rbp),%rax
    3836:	48 f7 d8             	neg    %rax
    3839:	eb 04                	jmp    383f <safe_unary_minus_func_int64_t_s+0x29>
    383b:	48 8b 45 f8          	mov    -0x8(%rbp),%rax
    383f:	5d                   	pop    %rbp
    3840:	c3                   	retq   

0000000000003841 <safe_add_func_int64_t_s_s>:
    3841:	f3 0f 1e fa          	endbr64 
    3845:	55                   	push   %rbp
    3846:	48 89 e5             	mov    %rsp,%rbp
    3849:	48 89 7d f8          	mov    %rdi,-0x8(%rbp)
    384d:	48 89 75 f0          	mov    %rsi,-0x10(%rbp)
    3851:	48 83 7d f8 00       	cmpq   $0x0,-0x8(%rbp)
    3856:	7e 1b                	jle    3873 <safe_add_func_int64_t_s_s+0x32>
    3858:	48 83 7d f0 00       	cmpq   $0x0,-0x10(%rbp)
    385d:	7e 14                	jle    3873 <safe_add_func_int64_t_s_s+0x32>
    385f:	48 b8 ff ff ff ff ff 	movabs $0x7fffffffffffffff,%rax
    3866:	ff ff 7f 
    3869:	48 2b 45 f0          	sub    -0x10(%rbp),%rax
    386d:	48 39 45 f8          	cmp    %rax,-0x8(%rbp)
    3871:	7f 2f                	jg     38a2 <safe_add_func_int64_t_s_s+0x61>
    3873:	48 83 7d f8 00       	cmpq   $0x0,-0x8(%rbp)
    3878:	79 1b                	jns    3895 <safe_add_func_int64_t_s_s+0x54>
    387a:	48 83 7d f0 00       	cmpq   $0x0,-0x10(%rbp)
    387f:	79 14                	jns    3895 <safe_add_func_int64_t_s_s+0x54>
    3881:	48 b8 00 00 00 00 00 	movabs $0x8000000000000000,%rax
    3888:	00 00 80 
    388b:	48 2b 45 f0          	sub    -0x10(%rbp),%rax
    388f:	48 39 45 f8          	cmp    %rax,-0x8(%rbp)
    3893:	7c 0d                	jl     38a2 <safe_add_func_int64_t_s_s+0x61>
    3895:	48 8b 55 f8          	mov    -0x8(%rbp),%rdx
    3899:	48 8b 45 f0          	mov    -0x10(%rbp),%rax
    389d:	48 01 d0             	add    %rdx,%rax
    38a0:	eb 04                	jmp    38a6 <safe_add_func_int64_t_s_s+0x65>
    38a2:	48 8b 45 f8          	mov    -0x8(%rbp),%rax
    38a6:	5d                   	pop    %rbp
    38a7:	c3                   	retq   

00000000000038a8 <safe_sub_func_int64_t_s_s>:
    38a8:	f3 0f 1e fa          	endbr64 
    38ac:	55                   	push   %rbp
    38ad:	48 89 e5             	mov    %rsp,%rbp
    38b0:	48 89 7d f8          	mov    %rdi,-0x8(%rbp)
    38b4:	48 89 75 f0          	mov    %rsi,-0x10(%rbp)
    38b8:	48 8b 45 f8          	mov    -0x8(%rbp),%rax
    38bc:	48 33 45 f0          	xor    -0x10(%rbp),%rax
    38c0:	48 89 c2             	mov    %rax,%rdx
    38c3:	48 8b 45 f8          	mov    -0x8(%rbp),%rax
    38c7:	48 33 45 f0          	xor    -0x10(%rbp),%rax
    38cb:	48 b9 00 00 00 00 00 	movabs $0x8000000000000000,%rcx
    38d2:	00 00 80 
    38d5:	48 21 c8             	and    %rcx,%rax
    38d8:	48 33 45 f8          	xor    -0x8(%rbp),%rax
    38dc:	48 2b 45 f0          	sub    -0x10(%rbp),%rax
    38e0:	48 33 45 f0          	xor    -0x10(%rbp),%rax
    38e4:	48 21 d0             	and    %rdx,%rax
    38e7:	48 85 c0             	test   %rax,%rax
    38ea:	78 0a                	js     38f6 <safe_sub_func_int64_t_s_s+0x4e>
    38ec:	48 8b 45 f8          	mov    -0x8(%rbp),%rax
    38f0:	48 2b 45 f0          	sub    -0x10(%rbp),%rax
    38f4:	eb 04                	jmp    38fa <safe_sub_func_int64_t_s_s+0x52>
    38f6:	48 8b 45 f8          	mov    -0x8(%rbp),%rax
    38fa:	5d                   	pop    %rbp
    38fb:	c3                   	retq   

00000000000038fc <safe_mul_func_int64_t_s_s>:
    38fc:	f3 0f 1e fa          	endbr64 
    3900:	55                   	push   %rbp
    3901:	48 89 e5             	mov    %rsp,%rbp
    3904:	48 89 7d f8          	mov    %rdi,-0x8(%rbp)
    3908:	48 89 75 f0          	mov    %rsi,-0x10(%rbp)
    390c:	48 83 7d f8 00       	cmpq   $0x0,-0x8(%rbp)
    3911:	7e 1d                	jle    3930 <safe_mul_func_int64_t_s_s+0x34>
    3913:	48 83 7d f0 00       	cmpq   $0x0,-0x10(%rbp)
    3918:	7e 16                	jle    3930 <safe_mul_func_int64_t_s_s+0x34>
    391a:	48 b8 ff ff ff ff ff 	movabs $0x7fffffffffffffff,%rax
    3921:	ff ff 7f 
    3924:	48 99                	cqto   
    3926:	48 f7 7d f0          	idivq  -0x10(%rbp)
    392a:	48 39 45 f8          	cmp    %rax,-0x8(%rbp)
    392e:	7f 7e                	jg     39ae <safe_mul_func_int64_t_s_s+0xb2>
    3930:	48 83 7d f8 00       	cmpq   $0x0,-0x8(%rbp)
    3935:	7e 1d                	jle    3954 <safe_mul_func_int64_t_s_s+0x58>
    3937:	48 83 7d f0 00       	cmpq   $0x0,-0x10(%rbp)
    393c:	7f 16                	jg     3954 <safe_mul_func_int64_t_s_s+0x58>
    393e:	48 b8 00 00 00 00 00 	movabs $0x8000000000000000,%rax
    3945:	00 00 80 
    3948:	48 99                	cqto   
    394a:	48 f7 7d f8          	idivq  -0x8(%rbp)
    394e:	48 39 45 f0          	cmp    %rax,-0x10(%rbp)
    3952:	7c 5a                	jl     39ae <safe_mul_func_int64_t_s_s+0xb2>
    3954:	48 83 7d f8 00       	cmpq   $0x0,-0x8(%rbp)
    3959:	7f 1d                	jg     3978 <safe_mul_func_int64_t_s_s+0x7c>
    395b:	48 83 7d f0 00       	cmpq   $0x0,-0x10(%rbp)
    3960:	7e 16                	jle    3978 <safe_mul_func_int64_t_s_s+0x7c>
    3962:	48 b8 00 00 00 00 00 	movabs $0x8000000000000000,%rax
    3969:	00 00 80 
    396c:	48 99                	cqto   
    396e:	48 f7 7d f0          	idivq  -0x10(%rbp)
    3972:	48 39 45 f8          	cmp    %rax,-0x8(%rbp)
    3976:	7c 36                	jl     39ae <safe_mul_func_int64_t_s_s+0xb2>
    3978:	48 83 7d f8 00       	cmpq   $0x0,-0x8(%rbp)
    397d:	7f 24                	jg     39a3 <safe_mul_func_int64_t_s_s+0xa7>
    397f:	48 83 7d f0 00       	cmpq   $0x0,-0x10(%rbp)
    3984:	7f 1d                	jg     39a3 <safe_mul_func_int64_t_s_s+0xa7>
    3986:	48 83 7d f8 00       	cmpq   $0x0,-0x8(%rbp)
    398b:	74 16                	je     39a3 <safe_mul_func_int64_t_s_s+0xa7>
    398d:	48 b8 ff ff ff ff ff 	movabs $0x7fffffffffffffff,%rax
    3994:	ff ff 7f 
    3997:	48 99                	cqto   
    3999:	48 f7 7d f8          	idivq  -0x8(%rbp)
    399d:	48 39 45 f0          	cmp    %rax,-0x10(%rbp)
    39a1:	7c 0b                	jl     39ae <safe_mul_func_int64_t_s_s+0xb2>
    39a3:	48 8b 45 f8          	mov    -0x8(%rbp),%rax
    39a7:	48 0f af 45 f0       	imul   -0x10(%rbp),%rax
    39ac:	eb 04                	jmp    39b2 <safe_mul_func_int64_t_s_s+0xb6>
    39ae:	48 8b 45 f8          	mov    -0x8(%rbp),%rax
    39b2:	5d                   	pop    %rbp
    39b3:	c3                   	retq   

00000000000039b4 <safe_mod_func_int64_t_s_s>:
    39b4:	f3 0f 1e fa          	endbr64 
    39b8:	55                   	push   %rbp
    39b9:	48 89 e5             	mov    %rsp,%rbp
    39bc:	48 89 7d f8          	mov    %rdi,-0x8(%rbp)
    39c0:	48 89 75 f0          	mov    %rsi,-0x10(%rbp)
    39c4:	48 83 7d f0 00       	cmpq   $0x0,-0x10(%rbp)
    39c9:	74 26                	je     39f1 <safe_mod_func_int64_t_s_s+0x3d>
    39cb:	48 b8 00 00 00 00 00 	movabs $0x8000000000000000,%rax
    39d2:	00 00 80 
    39d5:	48 39 45 f8          	cmp    %rax,-0x8(%rbp)
    39d9:	75 07                	jne    39e2 <safe_mod_func_int64_t_s_s+0x2e>
    39db:	48 83 7d f0 ff       	cmpq   $0xffffffffffffffff,-0x10(%rbp)
    39e0:	74 0f                	je     39f1 <safe_mod_func_int64_t_s_s+0x3d>
    39e2:	48 8b 45 f8          	mov    -0x8(%rbp),%rax
    39e6:	48 99                	cqto   
    39e8:	48 f7 7d f0          	idivq  -0x10(%rbp)
    39ec:	48 89 d0             	mov    %rdx,%rax
    39ef:	eb 04                	jmp    39f5 <safe_mod_func_int64_t_s_s+0x41>
    39f1:	48 8b 45 f8          	mov    -0x8(%rbp),%rax
    39f5:	5d                   	pop    %rbp
    39f6:	c3                   	retq   

00000000000039f7 <safe_div_func_int64_t_s_s>:
    39f7:	f3 0f 1e fa          	endbr64 
    39fb:	55                   	push   %rbp
    39fc:	48 89 e5             	mov    %rsp,%rbp
    39ff:	48 89 7d f8          	mov    %rdi,-0x8(%rbp)
    3a03:	48 89 75 f0          	mov    %rsi,-0x10(%rbp)
    3a07:	48 83 7d f0 00       	cmpq   $0x0,-0x10(%rbp)
    3a0c:	74 23                	je     3a31 <safe_div_func_int64_t_s_s+0x3a>
    3a0e:	48 b8 00 00 00 00 00 	movabs $0x8000000000000000,%rax
    3a15:	00 00 80 
    3a18:	48 39 45 f8          	cmp    %rax,-0x8(%rbp)
    3a1c:	75 07                	jne    3a25 <safe_div_func_int64_t_s_s+0x2e>
    3a1e:	48 83 7d f0 ff       	cmpq   $0xffffffffffffffff,-0x10(%rbp)
    3a23:	74 0c                	je     3a31 <safe_div_func_int64_t_s_s+0x3a>
    3a25:	48 8b 45 f8          	mov    -0x8(%rbp),%rax
    3a29:	48 99                	cqto   
    3a2b:	48 f7 7d f0          	idivq  -0x10(%rbp)
    3a2f:	eb 04                	jmp    3a35 <safe_div_func_int64_t_s_s+0x3e>
    3a31:	48 8b 45 f8          	mov    -0x8(%rbp),%rax
    3a35:	5d                   	pop    %rbp
    3a36:	c3                   	retq   

0000000000003a37 <safe_lshift_func_int64_t_s_s>:
    3a37:	f3 0f 1e fa          	endbr64 
    3a3b:	55                   	push   %rbp
    3a3c:	48 89 e5             	mov    %rsp,%rbp
    3a3f:	48 89 7d f8          	mov    %rdi,-0x8(%rbp)
    3a43:	89 75 f4             	mov    %esi,-0xc(%rbp)
    3a46:	48 83 7d f8 00       	cmpq   $0x0,-0x8(%rbp)
    3a4b:	78 38                	js     3a85 <safe_lshift_func_int64_t_s_s+0x4e>
    3a4d:	83 7d f4 00          	cmpl   $0x0,-0xc(%rbp)
    3a51:	78 32                	js     3a85 <safe_lshift_func_int64_t_s_s+0x4e>
    3a53:	83 7d f4 1f          	cmpl   $0x1f,-0xc(%rbp)
    3a57:	7f 2c                	jg     3a85 <safe_lshift_func_int64_t_s_s+0x4e>
    3a59:	8b 45 f4             	mov    -0xc(%rbp),%eax
    3a5c:	48 ba ff ff ff ff ff 	movabs $0x7fffffffffffffff,%rdx
    3a63:	ff ff 7f 
    3a66:	89 c1                	mov    %eax,%ecx
    3a68:	48 d3 fa             	sar    %cl,%rdx
    3a6b:	48 89 d0             	mov    %rdx,%rax
    3a6e:	48 39 45 f8          	cmp    %rax,-0x8(%rbp)
    3a72:	7f 11                	jg     3a85 <safe_lshift_func_int64_t_s_s+0x4e>
    3a74:	8b 45 f4             	mov    -0xc(%rbp),%eax
    3a77:	48 8b 55 f8          	mov    -0x8(%rbp),%rdx
    3a7b:	89 c1                	mov    %eax,%ecx
    3a7d:	48 d3 e2             	shl    %cl,%rdx
    3a80:	48 89 d0             	mov    %rdx,%rax
    3a83:	eb 04                	jmp    3a89 <safe_lshift_func_int64_t_s_s+0x52>
    3a85:	48 8b 45 f8          	mov    -0x8(%rbp),%rax
    3a89:	5d                   	pop    %rbp
    3a8a:	c3                   	retq   

0000000000003a8b <safe_lshift_func_int64_t_s_u>:
    3a8b:	f3 0f 1e fa          	endbr64 
    3a8f:	55                   	push   %rbp
    3a90:	48 89 e5             	mov    %rsp,%rbp
    3a93:	48 89 7d f8          	mov    %rdi,-0x8(%rbp)
    3a97:	89 75 f4             	mov    %esi,-0xc(%rbp)
    3a9a:	48 83 7d f8 00       	cmpq   $0x0,-0x8(%rbp)
    3a9f:	78 32                	js     3ad3 <safe_lshift_func_int64_t_s_u+0x48>
    3aa1:	83 7d f4 1f          	cmpl   $0x1f,-0xc(%rbp)
    3aa5:	77 2c                	ja     3ad3 <safe_lshift_func_int64_t_s_u+0x48>
    3aa7:	8b 45 f4             	mov    -0xc(%rbp),%eax
    3aaa:	48 ba ff ff ff ff ff 	movabs $0x7fffffffffffffff,%rdx
    3ab1:	ff ff 7f 
    3ab4:	89 c1                	mov    %eax,%ecx
    3ab6:	48 d3 fa             	sar    %cl,%rdx
    3ab9:	48 89 d0             	mov    %rdx,%rax
    3abc:	48 39 45 f8          	cmp    %rax,-0x8(%rbp)
    3ac0:	7f 11                	jg     3ad3 <safe_lshift_func_int64_t_s_u+0x48>
    3ac2:	8b 45 f4             	mov    -0xc(%rbp),%eax
    3ac5:	48 8b 55 f8          	mov    -0x8(%rbp),%rdx
    3ac9:	89 c1                	mov    %eax,%ecx
    3acb:	48 d3 e2             	shl    %cl,%rdx
    3ace:	48 89 d0             	mov    %rdx,%rax
    3ad1:	eb 04                	jmp    3ad7 <safe_lshift_func_int64_t_s_u+0x4c>
    3ad3:	48 8b 45 f8          	mov    -0x8(%rbp),%rax
    3ad7:	5d                   	pop    %rbp
    3ad8:	c3                   	retq   

0000000000003ad9 <safe_rshift_func_int64_t_s_s>:
    3ad9:	f3 0f 1e fa          	endbr64 
    3add:	55                   	push   %rbp
    3ade:	48 89 e5             	mov    %rsp,%rbp
    3ae1:	48 89 7d f8          	mov    %rdi,-0x8(%rbp)
    3ae5:	89 75 f4             	mov    %esi,-0xc(%rbp)
    3ae8:	48 83 7d f8 00       	cmpq   $0x0,-0x8(%rbp)
    3aed:	78 1d                	js     3b0c <safe_rshift_func_int64_t_s_s+0x33>
    3aef:	83 7d f4 00          	cmpl   $0x0,-0xc(%rbp)
    3af3:	78 17                	js     3b0c <safe_rshift_func_int64_t_s_s+0x33>
    3af5:	83 7d f4 1f          	cmpl   $0x1f,-0xc(%rbp)
    3af9:	7f 11                	jg     3b0c <safe_rshift_func_int64_t_s_s+0x33>
    3afb:	8b 45 f4             	mov    -0xc(%rbp),%eax
    3afe:	48 8b 55 f8          	mov    -0x8(%rbp),%rdx
    3b02:	89 c1                	mov    %eax,%ecx
    3b04:	48 d3 fa             	sar    %cl,%rdx
    3b07:	48 89 d0             	mov    %rdx,%rax
    3b0a:	eb 04                	jmp    3b10 <safe_rshift_func_int64_t_s_s+0x37>
    3b0c:	48 8b 45 f8          	mov    -0x8(%rbp),%rax
    3b10:	5d                   	pop    %rbp
    3b11:	c3                   	retq   

0000000000003b12 <safe_rshift_func_int64_t_s_u>:
    3b12:	f3 0f 1e fa          	endbr64 
    3b16:	55                   	push   %rbp
    3b17:	48 89 e5             	mov    %rsp,%rbp
    3b1a:	48 89 7d f8          	mov    %rdi,-0x8(%rbp)
    3b1e:	89 75 f4             	mov    %esi,-0xc(%rbp)
    3b21:	48 83 7d f8 00       	cmpq   $0x0,-0x8(%rbp)
    3b26:	78 17                	js     3b3f <safe_rshift_func_int64_t_s_u+0x2d>
    3b28:	83 7d f4 1f          	cmpl   $0x1f,-0xc(%rbp)
    3b2c:	77 11                	ja     3b3f <safe_rshift_func_int64_t_s_u+0x2d>
    3b2e:	8b 45 f4             	mov    -0xc(%rbp),%eax
    3b31:	48 8b 55 f8          	mov    -0x8(%rbp),%rdx
    3b35:	89 c1                	mov    %eax,%ecx
    3b37:	48 d3 fa             	sar    %cl,%rdx
    3b3a:	48 89 d0             	mov    %rdx,%rax
    3b3d:	eb 04                	jmp    3b43 <safe_rshift_func_int64_t_s_u+0x31>
    3b3f:	48 8b 45 f8          	mov    -0x8(%rbp),%rax
    3b43:	5d                   	pop    %rbp
    3b44:	c3                   	retq   

0000000000003b45 <safe_unary_minus_func_uint8_t_u>:
    3b45:	f3 0f 1e fa          	endbr64 
    3b49:	55                   	push   %rbp
    3b4a:	48 89 e5             	mov    %rsp,%rbp
    3b4d:	89 f8                	mov    %edi,%eax
    3b4f:	88 45 fc             	mov    %al,-0x4(%rbp)
    3b52:	0f b6 45 fc          	movzbl -0x4(%rbp),%eax
    3b56:	f7 d8                	neg    %eax
    3b58:	5d                   	pop    %rbp
    3b59:	c3                   	retq   

0000000000003b5a <safe_add_func_uint8_t_u_u>:
    3b5a:	f3 0f 1e fa          	endbr64 
    3b5e:	55                   	push   %rbp
    3b5f:	48 89 e5             	mov    %rsp,%rbp
    3b62:	89 fa                	mov    %edi,%edx
    3b64:	89 f0                	mov    %esi,%eax
    3b66:	88 55 fc             	mov    %dl,-0x4(%rbp)
    3b69:	88 45 f8             	mov    %al,-0x8(%rbp)
    3b6c:	0f b6 55 fc          	movzbl -0x4(%rbp),%edx
    3b70:	0f b6 45 f8          	movzbl -0x8(%rbp),%eax
    3b74:	01 d0                	add    %edx,%eax
    3b76:	5d                   	pop    %rbp
    3b77:	c3                   	retq   

0000000000003b78 <safe_sub_func_uint8_t_u_u>:
    3b78:	f3 0f 1e fa          	endbr64 
    3b7c:	55                   	push   %rbp
    3b7d:	48 89 e5             	mov    %rsp,%rbp
    3b80:	89 fa                	mov    %edi,%edx
    3b82:	89 f0                	mov    %esi,%eax
    3b84:	88 55 fc             	mov    %dl,-0x4(%rbp)
    3b87:	88 45 f8             	mov    %al,-0x8(%rbp)
    3b8a:	0f b6 45 fc          	movzbl -0x4(%rbp),%eax
    3b8e:	2a 45 f8             	sub    -0x8(%rbp),%al
    3b91:	5d                   	pop    %rbp
    3b92:	c3                   	retq   

0000000000003b93 <safe_mul_func_uint8_t_u_u>:
    3b93:	f3 0f 1e fa          	endbr64 
    3b97:	55                   	push   %rbp
    3b98:	48 89 e5             	mov    %rsp,%rbp
    3b9b:	89 fa                	mov    %edi,%edx
    3b9d:	89 f0                	mov    %esi,%eax
    3b9f:	88 55 fc             	mov    %dl,-0x4(%rbp)
    3ba2:	88 45 f8             	mov    %al,-0x8(%rbp)
    3ba5:	0f b6 45 fc          	movzbl -0x4(%rbp),%eax
    3ba9:	f6 65 f8             	mulb   -0x8(%rbp)
    3bac:	5d                   	pop    %rbp
    3bad:	c3                   	retq   

0000000000003bae <safe_mod_func_uint8_t_u_u>:
    3bae:	f3 0f 1e fa          	endbr64 
    3bb2:	55                   	push   %rbp
    3bb3:	48 89 e5             	mov    %rsp,%rbp
    3bb6:	89 fa                	mov    %edi,%edx
    3bb8:	89 f0                	mov    %esi,%eax
    3bba:	88 55 fc             	mov    %dl,-0x4(%rbp)
    3bbd:	88 45 f8             	mov    %al,-0x8(%rbp)
    3bc0:	80 7d f8 00          	cmpb   $0x0,-0x8(%rbp)
    3bc4:	74 0f                	je     3bd5 <safe_mod_func_uint8_t_u_u+0x27>
    3bc6:	0f b6 45 fc          	movzbl -0x4(%rbp),%eax
    3bca:	0f b6 c0             	movzbl %al,%eax
    3bcd:	f6 75 f8             	divb   -0x8(%rbp)
    3bd0:	0f b6 c4             	movzbl %ah,%eax
    3bd3:	eb 04                	jmp    3bd9 <safe_mod_func_uint8_t_u_u+0x2b>
    3bd5:	0f b6 45 fc          	movzbl -0x4(%rbp),%eax
    3bd9:	5d                   	pop    %rbp
    3bda:	c3                   	retq   

0000000000003bdb <safe_div_func_uint8_t_u_u>:
    3bdb:	f3 0f 1e fa          	endbr64 
    3bdf:	55                   	push   %rbp
    3be0:	48 89 e5             	mov    %rsp,%rbp
    3be3:	89 fa                	mov    %edi,%edx
    3be5:	89 f0                	mov    %esi,%eax
    3be7:	88 55 fc             	mov    %dl,-0x4(%rbp)
    3bea:	88 45 f8             	mov    %al,-0x8(%rbp)
    3bed:	80 7d f8 00          	cmpb   $0x0,-0x8(%rbp)
    3bf1:	74 0c                	je     3bff <safe_div_func_uint8_t_u_u+0x24>
    3bf3:	0f b6 45 fc          	movzbl -0x4(%rbp),%eax
    3bf7:	0f b6 c0             	movzbl %al,%eax
    3bfa:	f6 75 f8             	divb   -0x8(%rbp)
    3bfd:	eb 04                	jmp    3c03 <safe_div_func_uint8_t_u_u+0x28>
    3bff:	0f b6 45 fc          	movzbl -0x4(%rbp),%eax
    3c03:	5d                   	pop    %rbp
    3c04:	c3                   	retq   

0000000000003c05 <safe_lshift_func_uint8_t_u_s>:
    3c05:	f3 0f 1e fa          	endbr64 
    3c09:	55                   	push   %rbp
    3c0a:	48 89 e5             	mov    %rsp,%rbp
    3c0d:	89 f8                	mov    %edi,%eax
    3c0f:	89 75 f8             	mov    %esi,-0x8(%rbp)
    3c12:	88 45 fc             	mov    %al,-0x4(%rbp)
    3c15:	83 7d f8 00          	cmpl   $0x0,-0x8(%rbp)
    3c19:	78 2b                	js     3c46 <safe_lshift_func_uint8_t_u_s+0x41>
    3c1b:	83 7d f8 1f          	cmpl   $0x1f,-0x8(%rbp)
    3c1f:	7f 25                	jg     3c46 <safe_lshift_func_uint8_t_u_s+0x41>
    3c21:	0f b6 55 fc          	movzbl -0x4(%rbp),%edx
    3c25:	8b 45 f8             	mov    -0x8(%rbp),%eax
    3c28:	be ff 00 00 00       	mov    $0xff,%esi
    3c2d:	89 c1                	mov    %eax,%ecx
    3c2f:	d3 fe                	sar    %cl,%esi
    3c31:	89 f0                	mov    %esi,%eax
    3c33:	39 c2                	cmp    %eax,%edx
    3c35:	7f 0f                	jg     3c46 <safe_lshift_func_uint8_t_u_s+0x41>
    3c37:	0f b6 55 fc          	movzbl -0x4(%rbp),%edx
    3c3b:	8b 45 f8             	mov    -0x8(%rbp),%eax
    3c3e:	89 c1                	mov    %eax,%ecx
    3c40:	d3 e2                	shl    %cl,%edx
    3c42:	89 d0                	mov    %edx,%eax
    3c44:	eb 04                	jmp    3c4a <safe_lshift_func_uint8_t_u_s+0x45>
    3c46:	0f b6 45 fc          	movzbl -0x4(%rbp),%eax
    3c4a:	5d                   	pop    %rbp
    3c4b:	c3                   	retq   

0000000000003c4c <safe_lshift_func_uint8_t_u_u>:
    3c4c:	f3 0f 1e fa          	endbr64 
    3c50:	55                   	push   %rbp
    3c51:	48 89 e5             	mov    %rsp,%rbp
    3c54:	89 f8                	mov    %edi,%eax
    3c56:	89 75 f8             	mov    %esi,-0x8(%rbp)
    3c59:	88 45 fc             	mov    %al,-0x4(%rbp)
    3c5c:	83 7d f8 1f          	cmpl   $0x1f,-0x8(%rbp)
    3c60:	77 25                	ja     3c87 <safe_lshift_func_uint8_t_u_u+0x3b>
    3c62:	0f b6 55 fc          	movzbl -0x4(%rbp),%edx
    3c66:	8b 45 f8             	mov    -0x8(%rbp),%eax
    3c69:	be ff 00 00 00       	mov    $0xff,%esi
    3c6e:	89 c1                	mov    %eax,%ecx
    3c70:	d3 fe                	sar    %cl,%esi
    3c72:	89 f0                	mov    %esi,%eax
    3c74:	39 c2                	cmp    %eax,%edx
    3c76:	7f 0f                	jg     3c87 <safe_lshift_func_uint8_t_u_u+0x3b>
    3c78:	0f b6 55 fc          	movzbl -0x4(%rbp),%edx
    3c7c:	8b 45 f8             	mov    -0x8(%rbp),%eax
    3c7f:	89 c1                	mov    %eax,%ecx
    3c81:	d3 e2                	shl    %cl,%edx
    3c83:	89 d0                	mov    %edx,%eax
    3c85:	eb 04                	jmp    3c8b <safe_lshift_func_uint8_t_u_u+0x3f>
    3c87:	0f b6 45 fc          	movzbl -0x4(%rbp),%eax
    3c8b:	5d                   	pop    %rbp
    3c8c:	c3                   	retq   

0000000000003c8d <safe_rshift_func_uint8_t_u_s>:
    3c8d:	f3 0f 1e fa          	endbr64 
    3c91:	55                   	push   %rbp
    3c92:	48 89 e5             	mov    %rsp,%rbp
    3c95:	89 f8                	mov    %edi,%eax
    3c97:	89 75 f8             	mov    %esi,-0x8(%rbp)
    3c9a:	88 45 fc             	mov    %al,-0x4(%rbp)
    3c9d:	83 7d f8 00          	cmpl   $0x0,-0x8(%rbp)
    3ca1:	78 15                	js     3cb8 <safe_rshift_func_uint8_t_u_s+0x2b>
    3ca3:	83 7d f8 1f          	cmpl   $0x1f,-0x8(%rbp)
    3ca7:	7f 0f                	jg     3cb8 <safe_rshift_func_uint8_t_u_s+0x2b>
    3ca9:	0f b6 55 fc          	movzbl -0x4(%rbp),%edx
    3cad:	8b 45 f8             	mov    -0x8(%rbp),%eax
    3cb0:	89 c1                	mov    %eax,%ecx
    3cb2:	d3 fa                	sar    %cl,%edx
    3cb4:	89 d0                	mov    %edx,%eax
    3cb6:	eb 04                	jmp    3cbc <safe_rshift_func_uint8_t_u_s+0x2f>
    3cb8:	0f b6 45 fc          	movzbl -0x4(%rbp),%eax
    3cbc:	5d                   	pop    %rbp
    3cbd:	c3                   	retq   

0000000000003cbe <safe_rshift_func_uint8_t_u_u>:
    3cbe:	f3 0f 1e fa          	endbr64 
    3cc2:	55                   	push   %rbp
    3cc3:	48 89 e5             	mov    %rsp,%rbp
    3cc6:	89 f8                	mov    %edi,%eax
    3cc8:	89 75 f8             	mov    %esi,-0x8(%rbp)
    3ccb:	88 45 fc             	mov    %al,-0x4(%rbp)
    3cce:	83 7d f8 1f          	cmpl   $0x1f,-0x8(%rbp)
    3cd2:	77 0f                	ja     3ce3 <safe_rshift_func_uint8_t_u_u+0x25>
    3cd4:	0f b6 55 fc          	movzbl -0x4(%rbp),%edx
    3cd8:	8b 45 f8             	mov    -0x8(%rbp),%eax
    3cdb:	89 c1                	mov    %eax,%ecx
    3cdd:	d3 fa                	sar    %cl,%edx
    3cdf:	89 d0                	mov    %edx,%eax
    3ce1:	eb 04                	jmp    3ce7 <safe_rshift_func_uint8_t_u_u+0x29>
    3ce3:	0f b6 45 fc          	movzbl -0x4(%rbp),%eax
    3ce7:	5d                   	pop    %rbp
    3ce8:	c3                   	retq   

0000000000003ce9 <safe_unary_minus_func_uint16_t_u>:
    3ce9:	f3 0f 1e fa          	endbr64 
    3ced:	55                   	push   %rbp
    3cee:	48 89 e5             	mov    %rsp,%rbp
    3cf1:	89 f8                	mov    %edi,%eax
    3cf3:	66 89 45 fc          	mov    %ax,-0x4(%rbp)
    3cf7:	0f b7 45 fc          	movzwl -0x4(%rbp),%eax
    3cfb:	f7 d8                	neg    %eax
    3cfd:	5d                   	pop    %rbp
    3cfe:	c3                   	retq   

0000000000003cff <safe_add_func_uint16_t_u_u>:
    3cff:	f3 0f 1e fa          	endbr64 
    3d03:	55                   	push   %rbp
    3d04:	48 89 e5             	mov    %rsp,%rbp
    3d07:	89 fa                	mov    %edi,%edx
    3d09:	89 f0                	mov    %esi,%eax
    3d0b:	66 89 55 fc          	mov    %dx,-0x4(%rbp)
    3d0f:	66 89 45 f8          	mov    %ax,-0x8(%rbp)
    3d13:	0f b7 55 fc          	movzwl -0x4(%rbp),%edx
    3d17:	0f b7 45 f8          	movzwl -0x8(%rbp),%eax
    3d1b:	01 d0                	add    %edx,%eax
    3d1d:	5d                   	pop    %rbp
    3d1e:	c3                   	retq   

0000000000003d1f <safe_sub_func_uint16_t_u_u>:
    3d1f:	f3 0f 1e fa          	endbr64 
    3d23:	55                   	push   %rbp
    3d24:	48 89 e5             	mov    %rsp,%rbp
    3d27:	89 fa                	mov    %edi,%edx
    3d29:	89 f0                	mov    %esi,%eax
    3d2b:	66 89 55 fc          	mov    %dx,-0x4(%rbp)
    3d2f:	66 89 45 f8          	mov    %ax,-0x8(%rbp)
    3d33:	0f b7 45 fc          	movzwl -0x4(%rbp),%eax
    3d37:	66 2b 45 f8          	sub    -0x8(%rbp),%ax
    3d3b:	5d                   	pop    %rbp
    3d3c:	c3                   	retq   

0000000000003d3d <safe_mul_func_uint16_t_u_u>:
    3d3d:	f3 0f 1e fa          	endbr64 
    3d41:	55                   	push   %rbp
    3d42:	48 89 e5             	mov    %rsp,%rbp
    3d45:	89 fa                	mov    %edi,%edx
    3d47:	89 f0                	mov    %esi,%eax
    3d49:	66 89 55 fc          	mov    %dx,-0x4(%rbp)
    3d4d:	66 89 45 f8          	mov    %ax,-0x8(%rbp)
    3d51:	0f b7 45 fc          	movzwl -0x4(%rbp),%eax
    3d55:	66 0f af 45 f8       	imul   -0x8(%rbp),%ax
    3d5a:	5d                   	pop    %rbp
    3d5b:	c3                   	retq   

0000000000003d5c <safe_mod_func_uint16_t_u_u>:
    3d5c:	f3 0f 1e fa          	endbr64 
    3d60:	55                   	push   %rbp
    3d61:	48 89 e5             	mov    %rsp,%rbp
    3d64:	89 fa                	mov    %edi,%edx
    3d66:	89 f0                	mov    %esi,%eax
    3d68:	66 89 55 fc          	mov    %dx,-0x4(%rbp)
    3d6c:	66 89 45 f8          	mov    %ax,-0x8(%rbp)
    3d70:	66 83 7d f8 00       	cmpw   $0x0,-0x8(%rbp)
    3d75:	74 11                	je     3d88 <safe_mod_func_uint16_t_u_u+0x2c>
    3d77:	0f b7 45 fc          	movzwl -0x4(%rbp),%eax
    3d7b:	ba 00 00 00 00       	mov    $0x0,%edx
    3d80:	66 f7 75 f8          	divw   -0x8(%rbp)
    3d84:	89 d0                	mov    %edx,%eax
    3d86:	eb 04                	jmp    3d8c <safe_mod_func_uint16_t_u_u+0x30>
    3d88:	0f b7 45 fc          	movzwl -0x4(%rbp),%eax
    3d8c:	5d                   	pop    %rbp
    3d8d:	c3                   	retq   

0000000000003d8e <safe_div_func_uint16_t_u_u>:
    3d8e:	f3 0f 1e fa          	endbr64 
    3d92:	55                   	push   %rbp
    3d93:	48 89 e5             	mov    %rsp,%rbp
    3d96:	89 fa                	mov    %edi,%edx
    3d98:	89 f0                	mov    %esi,%eax
    3d9a:	66 89 55 fc          	mov    %dx,-0x4(%rbp)
    3d9e:	66 89 45 f8          	mov    %ax,-0x8(%rbp)
    3da2:	66 83 7d f8 00       	cmpw   $0x0,-0x8(%rbp)
    3da7:	74 0f                	je     3db8 <safe_div_func_uint16_t_u_u+0x2a>
    3da9:	0f b7 45 fc          	movzwl -0x4(%rbp),%eax
    3dad:	ba 00 00 00 00       	mov    $0x0,%edx
    3db2:	66 f7 75 f8          	divw   -0x8(%rbp)
    3db6:	eb 04                	jmp    3dbc <safe_div_func_uint16_t_u_u+0x2e>
    3db8:	0f b7 45 fc          	movzwl -0x4(%rbp),%eax
    3dbc:	5d                   	pop    %rbp
    3dbd:	c3                   	retq   

0000000000003dbe <safe_lshift_func_uint16_t_u_s>:
    3dbe:	f3 0f 1e fa          	endbr64 
    3dc2:	55                   	push   %rbp
    3dc3:	48 89 e5             	mov    %rsp,%rbp
    3dc6:	89 f8                	mov    %edi,%eax
    3dc8:	89 75 f8             	mov    %esi,-0x8(%rbp)
    3dcb:	66 89 45 fc          	mov    %ax,-0x4(%rbp)
    3dcf:	83 7d f8 00          	cmpl   $0x0,-0x8(%rbp)
    3dd3:	78 2b                	js     3e00 <safe_lshift_func_uint16_t_u_s+0x42>
    3dd5:	83 7d f8 1f          	cmpl   $0x1f,-0x8(%rbp)
    3dd9:	7f 25                	jg     3e00 <safe_lshift_func_uint16_t_u_s+0x42>
    3ddb:	0f b7 55 fc          	movzwl -0x4(%rbp),%edx
    3ddf:	8b 45 f8             	mov    -0x8(%rbp),%eax
    3de2:	be ff ff 00 00       	mov    $0xffff,%esi
    3de7:	89 c1                	mov    %eax,%ecx
    3de9:	d3 fe                	sar    %cl,%esi
    3deb:	89 f0                	mov    %esi,%eax
    3ded:	39 c2                	cmp    %eax,%edx
    3def:	7f 0f                	jg     3e00 <safe_lshift_func_uint16_t_u_s+0x42>
    3df1:	0f b7 55 fc          	movzwl -0x4(%rbp),%edx
    3df5:	8b 45 f8             	mov    -0x8(%rbp),%eax
    3df8:	89 c1                	mov    %eax,%ecx
    3dfa:	d3 e2                	shl    %cl,%edx
    3dfc:	89 d0                	mov    %edx,%eax
    3dfe:	eb 04                	jmp    3e04 <safe_lshift_func_uint16_t_u_s+0x46>
    3e00:	0f b7 45 fc          	movzwl -0x4(%rbp),%eax
    3e04:	5d                   	pop    %rbp
    3e05:	c3                   	retq   

0000000000003e06 <safe_lshift_func_uint16_t_u_u>:
    3e06:	f3 0f 1e fa          	endbr64 
    3e0a:	55                   	push   %rbp
    3e0b:	48 89 e5             	mov    %rsp,%rbp
    3e0e:	89 f8                	mov    %edi,%eax
    3e10:	89 75 f8             	mov    %esi,-0x8(%rbp)
    3e13:	66 89 45 fc          	mov    %ax,-0x4(%rbp)
    3e17:	83 7d f8 1f          	cmpl   $0x1f,-0x8(%rbp)
    3e1b:	77 25                	ja     3e42 <safe_lshift_func_uint16_t_u_u+0x3c>
    3e1d:	0f b7 55 fc          	movzwl -0x4(%rbp),%edx
    3e21:	8b 45 f8             	mov    -0x8(%rbp),%eax
    3e24:	be ff ff 00 00       	mov    $0xffff,%esi
    3e29:	89 c1                	mov    %eax,%ecx
    3e2b:	d3 fe                	sar    %cl,%esi
    3e2d:	89 f0                	mov    %esi,%eax
    3e2f:	39 c2                	cmp    %eax,%edx
    3e31:	7f 0f                	jg     3e42 <safe_lshift_func_uint16_t_u_u+0x3c>
    3e33:	0f b7 55 fc          	movzwl -0x4(%rbp),%edx
    3e37:	8b 45 f8             	mov    -0x8(%rbp),%eax
    3e3a:	89 c1                	mov    %eax,%ecx
    3e3c:	d3 e2                	shl    %cl,%edx
    3e3e:	89 d0                	mov    %edx,%eax
    3e40:	eb 04                	jmp    3e46 <safe_lshift_func_uint16_t_u_u+0x40>
    3e42:	0f b7 45 fc          	movzwl -0x4(%rbp),%eax
    3e46:	5d                   	pop    %rbp
    3e47:	c3                   	retq   

0000000000003e48 <safe_rshift_func_uint16_t_u_s>:
    3e48:	f3 0f 1e fa          	endbr64 
    3e4c:	55                   	push   %rbp
    3e4d:	48 89 e5             	mov    %rsp,%rbp
    3e50:	89 f8                	mov    %edi,%eax
    3e52:	89 75 f8             	mov    %esi,-0x8(%rbp)
    3e55:	66 89 45 fc          	mov    %ax,-0x4(%rbp)
    3e59:	83 7d f8 00          	cmpl   $0x0,-0x8(%rbp)
    3e5d:	78 15                	js     3e74 <safe_rshift_func_uint16_t_u_s+0x2c>
    3e5f:	83 7d f8 1f          	cmpl   $0x1f,-0x8(%rbp)
    3e63:	7f 0f                	jg     3e74 <safe_rshift_func_uint16_t_u_s+0x2c>
    3e65:	0f b7 55 fc          	movzwl -0x4(%rbp),%edx
    3e69:	8b 45 f8             	mov    -0x8(%rbp),%eax
    3e6c:	89 c1                	mov    %eax,%ecx
    3e6e:	d3 fa                	sar    %cl,%edx
    3e70:	89 d0                	mov    %edx,%eax
    3e72:	eb 04                	jmp    3e78 <safe_rshift_func_uint16_t_u_s+0x30>
    3e74:	0f b7 45 fc          	movzwl -0x4(%rbp),%eax
    3e78:	5d                   	pop    %rbp
    3e79:	c3                   	retq   

0000000000003e7a <safe_rshift_func_uint16_t_u_u>:
    3e7a:	f3 0f 1e fa          	endbr64 
    3e7e:	55                   	push   %rbp
    3e7f:	48 89 e5             	mov    %rsp,%rbp
    3e82:	89 f8                	mov    %edi,%eax
    3e84:	89 75 f8             	mov    %esi,-0x8(%rbp)
    3e87:	66 89 45 fc          	mov    %ax,-0x4(%rbp)
    3e8b:	83 7d f8 1f          	cmpl   $0x1f,-0x8(%rbp)
    3e8f:	77 0f                	ja     3ea0 <safe_rshift_func_uint16_t_u_u+0x26>
    3e91:	0f b7 55 fc          	movzwl -0x4(%rbp),%edx
    3e95:	8b 45 f8             	mov    -0x8(%rbp),%eax
    3e98:	89 c1                	mov    %eax,%ecx
    3e9a:	d3 fa                	sar    %cl,%edx
    3e9c:	89 d0                	mov    %edx,%eax
    3e9e:	eb 04                	jmp    3ea4 <safe_rshift_func_uint16_t_u_u+0x2a>
    3ea0:	0f b7 45 fc          	movzwl -0x4(%rbp),%eax
    3ea4:	5d                   	pop    %rbp
    3ea5:	c3                   	retq   

0000000000003ea6 <safe_unary_minus_func_uint32_t_u>:
    3ea6:	f3 0f 1e fa          	endbr64 
    3eaa:	55                   	push   %rbp
    3eab:	48 89 e5             	mov    %rsp,%rbp
    3eae:	89 7d fc             	mov    %edi,-0x4(%rbp)
    3eb1:	8b 45 fc             	mov    -0x4(%rbp),%eax
    3eb4:	f7 d8                	neg    %eax
    3eb6:	5d                   	pop    %rbp
    3eb7:	c3                   	retq   

0000000000003eb8 <safe_add_func_uint32_t_u_u>:
    3eb8:	f3 0f 1e fa          	endbr64 
    3ebc:	55                   	push   %rbp
    3ebd:	48 89 e5             	mov    %rsp,%rbp
    3ec0:	89 7d fc             	mov    %edi,-0x4(%rbp)
    3ec3:	89 75 f8             	mov    %esi,-0x8(%rbp)
    3ec6:	8b 55 fc             	mov    -0x4(%rbp),%edx
    3ec9:	8b 45 f8             	mov    -0x8(%rbp),%eax
    3ecc:	01 d0                	add    %edx,%eax
    3ece:	5d                   	pop    %rbp
    3ecf:	c3                   	retq   

0000000000003ed0 <safe_sub_func_uint32_t_u_u>:
    3ed0:	f3 0f 1e fa          	endbr64 
    3ed4:	55                   	push   %rbp
    3ed5:	48 89 e5             	mov    %rsp,%rbp
    3ed8:	89 7d fc             	mov    %edi,-0x4(%rbp)
    3edb:	89 75 f8             	mov    %esi,-0x8(%rbp)
    3ede:	8b 45 fc             	mov    -0x4(%rbp),%eax
    3ee1:	2b 45 f8             	sub    -0x8(%rbp),%eax
    3ee4:	5d                   	pop    %rbp
    3ee5:	c3                   	retq   

0000000000003ee6 <safe_mul_func_uint32_t_u_u>:
    3ee6:	f3 0f 1e fa          	endbr64 
    3eea:	55                   	push   %rbp
    3eeb:	48 89 e5             	mov    %rsp,%rbp
    3eee:	89 7d fc             	mov    %edi,-0x4(%rbp)
    3ef1:	89 75 f8             	mov    %esi,-0x8(%rbp)
    3ef4:	8b 45 fc             	mov    -0x4(%rbp),%eax
    3ef7:	0f af 45 f8          	imul   -0x8(%rbp),%eax
    3efb:	5d                   	pop    %rbp
    3efc:	c3                   	retq   

0000000000003efd <safe_mod_func_uint32_t_u_u>:
    3efd:	f3 0f 1e fa          	endbr64 
    3f01:	55                   	push   %rbp
    3f02:	48 89 e5             	mov    %rsp,%rbp
    3f05:	89 7d fc             	mov    %edi,-0x4(%rbp)
    3f08:	89 75 f8             	mov    %esi,-0x8(%rbp)
    3f0b:	83 7d f8 00          	cmpl   $0x0,-0x8(%rbp)
    3f0f:	74 0f                	je     3f20 <safe_mod_func_uint32_t_u_u+0x23>
    3f11:	8b 45 fc             	mov    -0x4(%rbp),%eax
    3f14:	ba 00 00 00 00       	mov    $0x0,%edx
    3f19:	f7 75 f8             	divl   -0x8(%rbp)
    3f1c:	89 d0                	mov    %edx,%eax
    3f1e:	eb 03                	jmp    3f23 <safe_mod_func_uint32_t_u_u+0x26>
    3f20:	8b 45 fc             	mov    -0x4(%rbp),%eax
    3f23:	5d                   	pop    %rbp
    3f24:	c3                   	retq   

0000000000003f25 <safe_div_func_uint32_t_u_u>:
    3f25:	f3 0f 1e fa          	endbr64 
    3f29:	55                   	push   %rbp
    3f2a:	48 89 e5             	mov    %rsp,%rbp
    3f2d:	89 7d fc             	mov    %edi,-0x4(%rbp)
    3f30:	89 75 f8             	mov    %esi,-0x8(%rbp)
    3f33:	83 7d f8 00          	cmpl   $0x0,-0x8(%rbp)
    3f37:	74 0d                	je     3f46 <safe_div_func_uint32_t_u_u+0x21>
    3f39:	8b 45 fc             	mov    -0x4(%rbp),%eax
    3f3c:	ba 00 00 00 00       	mov    $0x0,%edx
    3f41:	f7 75 f8             	divl   -0x8(%rbp)
    3f44:	eb 03                	jmp    3f49 <safe_div_func_uint32_t_u_u+0x24>
    3f46:	8b 45 fc             	mov    -0x4(%rbp),%eax
    3f49:	5d                   	pop    %rbp
    3f4a:	c3                   	retq   

0000000000003f4b <safe_lshift_func_uint32_t_u_s>:
    3f4b:	f3 0f 1e fa          	endbr64 
    3f4f:	55                   	push   %rbp
    3f50:	48 89 e5             	mov    %rsp,%rbp
    3f53:	89 7d fc             	mov    %edi,-0x4(%rbp)
    3f56:	89 75 f8             	mov    %esi,-0x8(%rbp)
    3f59:	83 7d f8 00          	cmpl   $0x0,-0x8(%rbp)
    3f5d:	78 27                	js     3f86 <safe_lshift_func_uint32_t_u_s+0x3b>
    3f5f:	83 7d f8 1f          	cmpl   $0x1f,-0x8(%rbp)
    3f63:	7f 21                	jg     3f86 <safe_lshift_func_uint32_t_u_s+0x3b>
    3f65:	8b 45 f8             	mov    -0x8(%rbp),%eax
    3f68:	ba ff ff ff ff       	mov    $0xffffffff,%edx
    3f6d:	89 c1                	mov    %eax,%ecx
    3f6f:	d3 ea                	shr    %cl,%edx
    3f71:	89 d0                	mov    %edx,%eax
    3f73:	39 45 fc             	cmp    %eax,-0x4(%rbp)
    3f76:	77 0e                	ja     3f86 <safe_lshift_func_uint32_t_u_s+0x3b>
    3f78:	8b 45 f8             	mov    -0x8(%rbp),%eax
    3f7b:	8b 55 fc             	mov    -0x4(%rbp),%edx
    3f7e:	89 c1                	mov    %eax,%ecx
    3f80:	d3 e2                	shl    %cl,%edx
    3f82:	89 d0                	mov    %edx,%eax
    3f84:	eb 03                	jmp    3f89 <safe_lshift_func_uint32_t_u_s+0x3e>
    3f86:	8b 45 fc             	mov    -0x4(%rbp),%eax
    3f89:	5d                   	pop    %rbp
    3f8a:	c3                   	retq   

0000000000003f8b <safe_lshift_func_uint32_t_u_u>:
    3f8b:	f3 0f 1e fa          	endbr64 
    3f8f:	55                   	push   %rbp
    3f90:	48 89 e5             	mov    %rsp,%rbp
    3f93:	89 7d fc             	mov    %edi,-0x4(%rbp)
    3f96:	89 75 f8             	mov    %esi,-0x8(%rbp)
    3f99:	83 7d f8 1f          	cmpl   $0x1f,-0x8(%rbp)
    3f9d:	77 21                	ja     3fc0 <safe_lshift_func_uint32_t_u_u+0x35>
    3f9f:	8b 45 f8             	mov    -0x8(%rbp),%eax
    3fa2:	ba ff ff ff ff       	mov    $0xffffffff,%edx
    3fa7:	89 c1                	mov    %eax,%ecx
    3fa9:	d3 ea                	shr    %cl,%edx
    3fab:	89 d0                	mov    %edx,%eax
    3fad:	39 45 fc             	cmp    %eax,-0x4(%rbp)
    3fb0:	77 0e                	ja     3fc0 <safe_lshift_func_uint32_t_u_u+0x35>
    3fb2:	8b 45 f8             	mov    -0x8(%rbp),%eax
    3fb5:	8b 55 fc             	mov    -0x4(%rbp),%edx
    3fb8:	89 c1                	mov    %eax,%ecx
    3fba:	d3 e2                	shl    %cl,%edx
    3fbc:	89 d0                	mov    %edx,%eax
    3fbe:	eb 03                	jmp    3fc3 <safe_lshift_func_uint32_t_u_u+0x38>
    3fc0:	8b 45 fc             	mov    -0x4(%rbp),%eax
    3fc3:	5d                   	pop    %rbp
    3fc4:	c3                   	retq   

0000000000003fc5 <safe_rshift_func_uint32_t_u_s>:
    3fc5:	f3 0f 1e fa          	endbr64 
    3fc9:	55                   	push   %rbp
    3fca:	48 89 e5             	mov    %rsp,%rbp
    3fcd:	89 7d fc             	mov    %edi,-0x4(%rbp)
    3fd0:	89 75 f8             	mov    %esi,-0x8(%rbp)
    3fd3:	83 7d f8 00          	cmpl   $0x0,-0x8(%rbp)
    3fd7:	78 14                	js     3fed <safe_rshift_func_uint32_t_u_s+0x28>
    3fd9:	83 7d f8 1f          	cmpl   $0x1f,-0x8(%rbp)
    3fdd:	7f 0e                	jg     3fed <safe_rshift_func_uint32_t_u_s+0x28>
    3fdf:	8b 45 f8             	mov    -0x8(%rbp),%eax
    3fe2:	8b 55 fc             	mov    -0x4(%rbp),%edx
    3fe5:	89 c1                	mov    %eax,%ecx
    3fe7:	d3 ea                	shr    %cl,%edx
    3fe9:	89 d0                	mov    %edx,%eax
    3feb:	eb 03                	jmp    3ff0 <safe_rshift_func_uint32_t_u_s+0x2b>
    3fed:	8b 45 fc             	mov    -0x4(%rbp),%eax
    3ff0:	5d                   	pop    %rbp
    3ff1:	c3                   	retq   

0000000000003ff2 <safe_rshift_func_uint32_t_u_u>:
    3ff2:	f3 0f 1e fa          	endbr64 
    3ff6:	55                   	push   %rbp
    3ff7:	48 89 e5             	mov    %rsp,%rbp
    3ffa:	89 7d fc             	mov    %edi,-0x4(%rbp)
    3ffd:	89 75 f8             	mov    %esi,-0x8(%rbp)
    4000:	83 7d f8 1f          	cmpl   $0x1f,-0x8(%rbp)
    4004:	77 0e                	ja     4014 <safe_rshift_func_uint32_t_u_u+0x22>
    4006:	8b 45 f8             	mov    -0x8(%rbp),%eax
    4009:	8b 55 fc             	mov    -0x4(%rbp),%edx
    400c:	89 c1                	mov    %eax,%ecx
    400e:	d3 ea                	shr    %cl,%edx
    4010:	89 d0                	mov    %edx,%eax
    4012:	eb 03                	jmp    4017 <safe_rshift_func_uint32_t_u_u+0x25>
    4014:	8b 45 fc             	mov    -0x4(%rbp),%eax
    4017:	5d                   	pop    %rbp
    4018:	c3                   	retq   

0000000000004019 <safe_unary_minus_func_uint64_t_u>:
    4019:	f3 0f 1e fa          	endbr64 
    401d:	55                   	push   %rbp
    401e:	48 89 e5             	mov    %rsp,%rbp
    4021:	48 89 7d f8          	mov    %rdi,-0x8(%rbp)
    4025:	48 8b 45 f8          	mov    -0x8(%rbp),%rax
    4029:	48 f7 d8             	neg    %rax
    402c:	5d                   	pop    %rbp
    402d:	c3                   	retq   

000000000000402e <safe_add_func_uint64_t_u_u>:
    402e:	f3 0f 1e fa          	endbr64 
    4032:	55                   	push   %rbp
    4033:	48 89 e5             	mov    %rsp,%rbp
    4036:	48 89 7d f8          	mov    %rdi,-0x8(%rbp)
    403a:	48 89 75 f0          	mov    %rsi,-0x10(%rbp)
    403e:	48 8b 55 f8          	mov    -0x8(%rbp),%rdx
    4042:	48 8b 45 f0          	mov    -0x10(%rbp),%rax
    4046:	48 01 d0             	add    %rdx,%rax
    4049:	5d                   	pop    %rbp
    404a:	c3                   	retq   

000000000000404b <safe_sub_func_uint64_t_u_u>:
    404b:	f3 0f 1e fa          	endbr64 
    404f:	55                   	push   %rbp
    4050:	48 89 e5             	mov    %rsp,%rbp
    4053:	48 89 7d f8          	mov    %rdi,-0x8(%rbp)
    4057:	48 89 75 f0          	mov    %rsi,-0x10(%rbp)
    405b:	48 8b 45 f8          	mov    -0x8(%rbp),%rax
    405f:	48 2b 45 f0          	sub    -0x10(%rbp),%rax
    4063:	5d                   	pop    %rbp
    4064:	c3                   	retq   

0000000000004065 <safe_mul_func_uint64_t_u_u>:
    4065:	f3 0f 1e fa          	endbr64 
    4069:	55                   	push   %rbp
    406a:	48 89 e5             	mov    %rsp,%rbp
    406d:	48 89 7d f8          	mov    %rdi,-0x8(%rbp)
    4071:	48 89 75 f0          	mov    %rsi,-0x10(%rbp)
    4075:	48 8b 45 f8          	mov    -0x8(%rbp),%rax
    4079:	48 0f af 45 f0       	imul   -0x10(%rbp),%rax
    407e:	5d                   	pop    %rbp
    407f:	c3                   	retq   

0000000000004080 <safe_mod_func_uint64_t_u_u>:
    4080:	f3 0f 1e fa          	endbr64 
    4084:	55                   	push   %rbp
    4085:	48 89 e5             	mov    %rsp,%rbp
    4088:	48 89 7d f8          	mov    %rdi,-0x8(%rbp)
    408c:	48 89 75 f0          	mov    %rsi,-0x10(%rbp)
    4090:	48 83 7d f0 00       	cmpq   $0x0,-0x10(%rbp)
    4095:	74 12                	je     40a9 <safe_mod_func_uint64_t_u_u+0x29>
    4097:	48 8b 45 f8          	mov    -0x8(%rbp),%rax
    409b:	ba 00 00 00 00       	mov    $0x0,%edx
    40a0:	48 f7 75 f0          	divq   -0x10(%rbp)
    40a4:	48 89 d0             	mov    %rdx,%rax
    40a7:	eb 04                	jmp    40ad <safe_mod_func_uint64_t_u_u+0x2d>
    40a9:	48 8b 45 f8          	mov    -0x8(%rbp),%rax
    40ad:	5d                   	pop    %rbp
    40ae:	c3                   	retq   

00000000000040af <safe_div_func_uint64_t_u_u>:
    40af:	f3 0f 1e fa          	endbr64 
    40b3:	55                   	push   %rbp
    40b4:	48 89 e5             	mov    %rsp,%rbp
    40b7:	48 89 7d f8          	mov    %rdi,-0x8(%rbp)
    40bb:	48 89 75 f0          	mov    %rsi,-0x10(%rbp)
    40bf:	48 83 7d f0 00       	cmpq   $0x0,-0x10(%rbp)
    40c4:	74 0f                	je     40d5 <safe_div_func_uint64_t_u_u+0x26>
    40c6:	48 8b 45 f8          	mov    -0x8(%rbp),%rax
    40ca:	ba 00 00 00 00       	mov    $0x0,%edx
    40cf:	48 f7 75 f0          	divq   -0x10(%rbp)
    40d3:	eb 04                	jmp    40d9 <safe_div_func_uint64_t_u_u+0x2a>
    40d5:	48 8b 45 f8          	mov    -0x8(%rbp),%rax
    40d9:	5d                   	pop    %rbp
    40da:	c3                   	retq   

00000000000040db <safe_lshift_func_uint64_t_u_s>:
    40db:	f3 0f 1e fa          	endbr64 
    40df:	55                   	push   %rbp
    40e0:	48 89 e5             	mov    %rsp,%rbp
    40e3:	48 89 7d f8          	mov    %rdi,-0x8(%rbp)
    40e7:	89 75 f4             	mov    %esi,-0xc(%rbp)
    40ea:	83 7d f4 00          	cmpl   $0x0,-0xc(%rbp)
    40ee:	78 2f                	js     411f <safe_lshift_func_uint64_t_u_s+0x44>
    40f0:	83 7d f4 1f          	cmpl   $0x1f,-0xc(%rbp)
    40f4:	7f 29                	jg     411f <safe_lshift_func_uint64_t_u_s+0x44>
    40f6:	8b 45 f4             	mov    -0xc(%rbp),%eax
    40f9:	48 c7 c2 ff ff ff ff 	mov    $0xffffffffffffffff,%rdx
    4100:	89 c1                	mov    %eax,%ecx
    4102:	48 d3 ea             	shr    %cl,%rdx
    4105:	48 89 d0             	mov    %rdx,%rax
    4108:	48 39 45 f8          	cmp    %rax,-0x8(%rbp)
    410c:	77 11                	ja     411f <safe_lshift_func_uint64_t_u_s+0x44>
    410e:	8b 45 f4             	mov    -0xc(%rbp),%eax
    4111:	48 8b 55 f8          	mov    -0x8(%rbp),%rdx
    4115:	89 c1                	mov    %eax,%ecx
    4117:	48 d3 e2             	shl    %cl,%rdx
    411a:	48 89 d0             	mov    %rdx,%rax
    411d:	eb 04                	jmp    4123 <safe_lshift_func_uint64_t_u_s+0x48>
    411f:	48 8b 45 f8          	mov    -0x8(%rbp),%rax
    4123:	5d                   	pop    %rbp
    4124:	c3                   	retq   

0000000000004125 <safe_lshift_func_uint64_t_u_u>:
    4125:	f3 0f 1e fa          	endbr64 
    4129:	55                   	push   %rbp
    412a:	48 89 e5             	mov    %rsp,%rbp
    412d:	48 89 7d f8          	mov    %rdi,-0x8(%rbp)
    4131:	89 75 f4             	mov    %esi,-0xc(%rbp)
    4134:	83 7d f4 1f          	cmpl   $0x1f,-0xc(%rbp)
    4138:	77 29                	ja     4163 <safe_lshift_func_uint64_t_u_u+0x3e>
    413a:	8b 45 f4             	mov    -0xc(%rbp),%eax
    413d:	48 c7 c2 ff ff ff ff 	mov    $0xffffffffffffffff,%rdx
    4144:	89 c1                	mov    %eax,%ecx
    4146:	48 d3 ea             	shr    %cl,%rdx
    4149:	48 89 d0             	mov    %rdx,%rax
    414c:	48 39 45 f8          	cmp    %rax,-0x8(%rbp)
    4150:	77 11                	ja     4163 <safe_lshift_func_uint64_t_u_u+0x3e>
    4152:	8b 45 f4             	mov    -0xc(%rbp),%eax
    4155:	48 8b 55 f8          	mov    -0x8(%rbp),%rdx
    4159:	89 c1                	mov    %eax,%ecx
    415b:	48 d3 e2             	shl    %cl,%rdx
    415e:	48 89 d0             	mov    %rdx,%rax
    4161:	eb 04                	jmp    4167 <safe_lshift_func_uint64_t_u_u+0x42>
    4163:	48 8b 45 f8          	mov    -0x8(%rbp),%rax
    4167:	5d                   	pop    %rbp
    4168:	c3                   	retq   

0000000000004169 <safe_rshift_func_uint64_t_u_s>:
    4169:	f3 0f 1e fa          	endbr64 
    416d:	55                   	push   %rbp
    416e:	48 89 e5             	mov    %rsp,%rbp
    4171:	48 89 7d f8          	mov    %rdi,-0x8(%rbp)
    4175:	89 75 f4             	mov    %esi,-0xc(%rbp)
    4178:	83 7d f4 00          	cmpl   $0x0,-0xc(%rbp)
    417c:	78 17                	js     4195 <safe_rshift_func_uint64_t_u_s+0x2c>
    417e:	83 7d f4 1f          	cmpl   $0x1f,-0xc(%rbp)
    4182:	7f 11                	jg     4195 <safe_rshift_func_uint64_t_u_s+0x2c>
    4184:	8b 45 f4             	mov    -0xc(%rbp),%eax
    4187:	48 8b 55 f8          	mov    -0x8(%rbp),%rdx
    418b:	89 c1                	mov    %eax,%ecx
    418d:	48 d3 ea             	shr    %cl,%rdx
    4190:	48 89 d0             	mov    %rdx,%rax
    4193:	eb 04                	jmp    4199 <safe_rshift_func_uint64_t_u_s+0x30>
    4195:	48 8b 45 f8          	mov    -0x8(%rbp),%rax
    4199:	5d                   	pop    %rbp
    419a:	c3                   	retq   

000000000000419b <safe_rshift_func_uint64_t_u_u>:
    419b:	f3 0f 1e fa          	endbr64 
    419f:	55                   	push   %rbp
    41a0:	48 89 e5             	mov    %rsp,%rbp
    41a3:	48 89 7d f8          	mov    %rdi,-0x8(%rbp)
    41a7:	89 75 f4             	mov    %esi,-0xc(%rbp)
    41aa:	83 7d f4 1f          	cmpl   $0x1f,-0xc(%rbp)
    41ae:	77 11                	ja     41c1 <safe_rshift_func_uint64_t_u_u+0x26>
    41b0:	8b 45 f4             	mov    -0xc(%rbp),%eax
    41b3:	48 8b 55 f8          	mov    -0x8(%rbp),%rdx
    41b7:	89 c1                	mov    %eax,%ecx
    41b9:	48 d3 ea             	shr    %cl,%rdx
    41bc:	48 89 d0             	mov    %rdx,%rax
    41bf:	eb 04                	jmp    41c5 <safe_rshift_func_uint64_t_u_u+0x2a>
    41c1:	48 8b 45 f8          	mov    -0x8(%rbp),%rax
    41c5:	5d                   	pop    %rbp
    41c6:	c3                   	retq   

00000000000041c7 <safe_add_func_float_f_f>:
    41c7:	f3 0f 1e fa          	endbr64 
    41cb:	55                   	push   %rbp
    41cc:	48 89 e5             	mov    %rsp,%rbp
    41cf:	f3 0f 11 45 fc       	movss  %xmm0,-0x4(%rbp)
    41d4:	f3 0f 11 4d f8       	movss  %xmm1,-0x8(%rbp)
    41d9:	f3 0f 10 4d fc       	movss  -0x4(%rbp),%xmm1
    41de:	f3 0f 10 05 aa 80 00 	movss  0x80aa(%rip),%xmm0        # c290 <g_260+0x1230>
    41e5:	00 
    41e6:	f3 0f 59 c8          	mulss  %xmm0,%xmm1
    41ea:	f3 0f 10 55 f8       	movss  -0x8(%rbp),%xmm2
    41ef:	f3 0f 10 05 99 80 00 	movss  0x8099(%rip),%xmm0        # c290 <g_260+0x1230>
    41f6:	00 
    41f7:	f3 0f 59 c2          	mulss  %xmm2,%xmm0
    41fb:	f3 0f 58 c1          	addss  %xmm1,%xmm0
    41ff:	f3 0f 10 0d 99 80 00 	movss  0x8099(%rip),%xmm1        # c2a0 <g_260+0x1240>
    4206:	00 
    4207:	0f 54 c1             	andps  %xmm1,%xmm0
    420a:	0f 2f 05 9f 80 00 00 	comiss 0x809f(%rip),%xmm0        # c2b0 <g_260+0x1250>
    4211:	76 07                	jbe    421a <safe_add_func_float_f_f+0x53>
    4213:	f3 0f 10 45 fc       	movss  -0x4(%rbp),%xmm0
    4218:	eb 0a                	jmp    4224 <safe_add_func_float_f_f+0x5d>
    421a:	f3 0f 10 45 fc       	movss  -0x4(%rbp),%xmm0
    421f:	f3 0f 58 45 f8       	addss  -0x8(%rbp),%xmm0
    4224:	5d                   	pop    %rbp
    4225:	c3                   	retq   

0000000000004226 <safe_sub_func_float_f_f>:
    4226:	f3 0f 1e fa          	endbr64 
    422a:	55                   	push   %rbp
    422b:	48 89 e5             	mov    %rsp,%rbp
    422e:	f3 0f 11 45 fc       	movss  %xmm0,-0x4(%rbp)
    4233:	f3 0f 11 4d f8       	movss  %xmm1,-0x8(%rbp)
    4238:	f3 0f 10 4d fc       	movss  -0x4(%rbp),%xmm1
    423d:	f3 0f 10 05 4b 80 00 	movss  0x804b(%rip),%xmm0        # c290 <g_260+0x1230>
    4244:	00 
    4245:	f3 0f 59 c1          	mulss  %xmm1,%xmm0
    4249:	f3 0f 10 55 f8       	movss  -0x8(%rbp),%xmm2
    424e:	f3 0f 10 0d 3a 80 00 	movss  0x803a(%rip),%xmm1        # c290 <g_260+0x1230>
    4255:	00 
    4256:	f3 0f 59 ca          	mulss  %xmm2,%xmm1
    425a:	f3 0f 5c c1          	subss  %xmm1,%xmm0
    425e:	f3 0f 10 0d 3a 80 00 	movss  0x803a(%rip),%xmm1        # c2a0 <g_260+0x1240>
    4265:	00 
    4266:	0f 54 c1             	andps  %xmm1,%xmm0
    4269:	0f 2f 05 40 80 00 00 	comiss 0x8040(%rip),%xmm0        # c2b0 <g_260+0x1250>
    4270:	76 07                	jbe    4279 <safe_sub_func_float_f_f+0x53>
    4272:	f3 0f 10 45 fc       	movss  -0x4(%rbp),%xmm0
    4277:	eb 0a                	jmp    4283 <safe_sub_func_float_f_f+0x5d>
    4279:	f3 0f 10 45 fc       	movss  -0x4(%rbp),%xmm0
    427e:	f3 0f 5c 45 f8       	subss  -0x8(%rbp),%xmm0
    4283:	5d                   	pop    %rbp
    4284:	c3                   	retq   

0000000000004285 <safe_mul_func_float_f_f>:
    4285:	f3 0f 1e fa          	endbr64 
    4289:	55                   	push   %rbp
    428a:	48 89 e5             	mov    %rsp,%rbp
    428d:	f3 0f 11 45 fc       	movss  %xmm0,-0x4(%rbp)
    4292:	f3 0f 11 4d f8       	movss  %xmm1,-0x8(%rbp)
    4297:	f3 0f 10 4d fc       	movss  -0x4(%rbp),%xmm1
    429c:	f3 0f 10 05 10 80 00 	movss  0x8010(%rip),%xmm0        # c2b4 <g_260+0x1254>
    42a3:	00 
    42a4:	f3 0f 59 c8          	mulss  %xmm0,%xmm1
    42a8:	f3 0f 10 55 f8       	movss  -0x8(%rbp),%xmm2
    42ad:	f3 0f 10 05 03 80 00 	movss  0x8003(%rip),%xmm0        # c2b8 <g_260+0x1258>
    42b4:	00 
    42b5:	f3 0f 59 c2          	mulss  %xmm2,%xmm0
    42b9:	f3 0f 59 c1          	mulss  %xmm1,%xmm0
    42bd:	f3 0f 10 0d db 7f 00 	movss  0x7fdb(%rip),%xmm1        # c2a0 <g_260+0x1240>
    42c4:	00 
    42c5:	0f 54 c1             	andps  %xmm1,%xmm0
    42c8:	0f 2f 05 ed 7f 00 00 	comiss 0x7fed(%rip),%xmm0        # c2bc <g_260+0x125c>
    42cf:	76 07                	jbe    42d8 <safe_mul_func_float_f_f+0x53>
    42d1:	f3 0f 10 45 fc       	movss  -0x4(%rbp),%xmm0
    42d6:	eb 0a                	jmp    42e2 <safe_mul_func_float_f_f+0x5d>
    42d8:	f3 0f 10 45 fc       	movss  -0x4(%rbp),%xmm0
    42dd:	f3 0f 59 45 f8       	mulss  -0x8(%rbp),%xmm0
    42e2:	5d                   	pop    %rbp
    42e3:	c3                   	retq   

00000000000042e4 <safe_div_func_float_f_f>:
    42e4:	f3 0f 1e fa          	endbr64 
    42e8:	55                   	push   %rbp
    42e9:	48 89 e5             	mov    %rsp,%rbp
    42ec:	f3 0f 11 45 fc       	movss  %xmm0,-0x4(%rbp)
    42f1:	f3 0f 11 4d f8       	movss  %xmm1,-0x8(%rbp)
    42f6:	f3 0f 10 45 f8       	movss  -0x8(%rbp),%xmm0
    42fb:	f3 0f 10 0d 9d 7f 00 	movss  0x7f9d(%rip),%xmm1        # c2a0 <g_260+0x1240>
    4302:	00 
    4303:	0f 54 c8             	andps  %xmm0,%xmm1
    4306:	f3 0f 10 05 b2 7f 00 	movss  0x7fb2(%rip),%xmm0        # c2c0 <g_260+0x1260>
    430d:	00 
    430e:	0f 2f c1             	comiss %xmm1,%xmm0
    4311:	0f 97 c0             	seta   %al
    4314:	83 f0 01             	xor    $0x1,%eax
    4317:	84 c0                	test   %al,%al
    4319:	75 56                	jne    4371 <safe_div_func_float_f_f+0x8d>
    431b:	66 0f ef c0          	pxor   %xmm0,%xmm0
    431f:	0f 2e 45 f8          	ucomiss -0x8(%rbp),%xmm0
    4323:	7a 0a                	jp     432f <safe_div_func_float_f_f+0x4b>
    4325:	66 0f ef c0          	pxor   %xmm0,%xmm0
    4329:	0f 2e 45 f8          	ucomiss -0x8(%rbp),%xmm0
    432d:	74 4e                	je     437d <safe_div_func_float_f_f+0x99>
    432f:	f3 0f 10 4d fc       	movss  -0x4(%rbp),%xmm1
    4334:	f3 0f 10 05 88 7f 00 	movss  0x7f88(%rip),%xmm0        # c2c4 <g_260+0x1264>
    433b:	00 
    433c:	f3 0f 59 c1          	mulss  %xmm1,%xmm0
    4340:	f3 0f 10 55 f8       	movss  -0x8(%rbp),%xmm2
    4345:	f3 0f 10 0d 7b 7f 00 	movss  0x7f7b(%rip),%xmm1        # c2c8 <g_260+0x1268>
    434c:	00 
    434d:	f3 0f 59 ca          	mulss  %xmm2,%xmm1
    4351:	f3 0f 5e c1          	divss  %xmm1,%xmm0
    4355:	f3 0f 10 0d 43 7f 00 	movss  0x7f43(%rip),%xmm1        # c2a0 <g_260+0x1240>
    435c:	00 
    435d:	0f 54 c1             	andps  %xmm1,%xmm0
    4360:	0f 2f 05 65 7f 00 00 	comiss 0x7f65(%rip),%xmm0        # c2cc <g_260+0x126c>
    4367:	0f 97 c0             	seta   %al
    436a:	83 f0 01             	xor    $0x1,%eax
    436d:	84 c0                	test   %al,%al
    436f:	74 0c                	je     437d <safe_div_func_float_f_f+0x99>
    4371:	f3 0f 10 45 fc       	movss  -0x4(%rbp),%xmm0
    4376:	f3 0f 5e 45 f8       	divss  -0x8(%rbp),%xmm0
    437b:	eb 05                	jmp    4382 <safe_div_func_float_f_f+0x9e>
    437d:	f3 0f 10 45 fc       	movss  -0x4(%rbp),%xmm0
    4382:	5d                   	pop    %rbp
    4383:	c3                   	retq   

0000000000004384 <safe_add_func_double_f_f>:
    4384:	f3 0f 1e fa          	endbr64 
    4388:	55                   	push   %rbp
    4389:	48 89 e5             	mov    %rsp,%rbp
    438c:	f2 0f 11 45 f8       	movsd  %xmm0,-0x8(%rbp)
    4391:	f2 0f 11 4d f0       	movsd  %xmm1,-0x10(%rbp)
    4396:	f2 0f 10 4d f8       	movsd  -0x8(%rbp),%xmm1
    439b:	f2 0f 10 05 2d 7f 00 	movsd  0x7f2d(%rip),%xmm0        # c2d0 <g_260+0x1270>
    43a2:	00 
    43a3:	f2 0f 59 c8          	mulsd  %xmm0,%xmm1
    43a7:	f2 0f 10 55 f0       	movsd  -0x10(%rbp),%xmm2
    43ac:	f2 0f 10 05 1c 7f 00 	movsd  0x7f1c(%rip),%xmm0        # c2d0 <g_260+0x1270>
    43b3:	00 
    43b4:	f2 0f 59 c2          	mulsd  %xmm2,%xmm0
    43b8:	f2 0f 58 c1          	addsd  %xmm1,%xmm0
    43bc:	f3 0f 7e 0d 1c 7f 00 	movq   0x7f1c(%rip),%xmm1        # c2e0 <g_260+0x1280>
    43c3:	00 
    43c4:	66 0f 54 c1          	andpd  %xmm1,%xmm0
    43c8:	66 0f 2f 05 20 7f 00 	comisd 0x7f20(%rip),%xmm0        # c2f0 <g_260+0x1290>
    43cf:	00 
    43d0:	76 07                	jbe    43d9 <safe_add_func_double_f_f+0x55>
    43d2:	f2 0f 10 45 f8       	movsd  -0x8(%rbp),%xmm0
    43d7:	eb 0a                	jmp    43e3 <safe_add_func_double_f_f+0x5f>
    43d9:	f2 0f 10 45 f8       	movsd  -0x8(%rbp),%xmm0
    43de:	f2 0f 58 45 f0       	addsd  -0x10(%rbp),%xmm0
    43e3:	5d                   	pop    %rbp
    43e4:	c3                   	retq   

00000000000043e5 <safe_sub_func_double_f_f>:
    43e5:	f3 0f 1e fa          	endbr64 
    43e9:	55                   	push   %rbp
    43ea:	48 89 e5             	mov    %rsp,%rbp
    43ed:	f2 0f 11 45 f8       	movsd  %xmm0,-0x8(%rbp)
    43f2:	f2 0f 11 4d f0       	movsd  %xmm1,-0x10(%rbp)
    43f7:	f2 0f 10 4d f8       	movsd  -0x8(%rbp),%xmm1
    43fc:	f2 0f 10 05 cc 7e 00 	movsd  0x7ecc(%rip),%xmm0        # c2d0 <g_260+0x1270>
    4403:	00 
    4404:	f2 0f 59 c1          	mulsd  %xmm1,%xmm0
    4408:	f2 0f 10 55 f0       	movsd  -0x10(%rbp),%xmm2
    440d:	f2 0f 10 0d bb 7e 00 	movsd  0x7ebb(%rip),%xmm1        # c2d0 <g_260+0x1270>
    4414:	00 
    4415:	f2 0f 59 ca          	mulsd  %xmm2,%xmm1
    4419:	f2 0f 5c c1          	subsd  %xmm1,%xmm0
    441d:	f3 0f 7e 0d bb 7e 00 	movq   0x7ebb(%rip),%xmm1        # c2e0 <g_260+0x1280>
    4424:	00 
    4425:	66 0f 54 c1          	andpd  %xmm1,%xmm0
    4429:	66 0f 2f 05 bf 7e 00 	comisd 0x7ebf(%rip),%xmm0        # c2f0 <g_260+0x1290>
    4430:	00 
    4431:	76 07                	jbe    443a <safe_sub_func_double_f_f+0x55>
    4433:	f2 0f 10 45 f8       	movsd  -0x8(%rbp),%xmm0
    4438:	eb 0a                	jmp    4444 <safe_sub_func_double_f_f+0x5f>
    443a:	f2 0f 10 45 f8       	movsd  -0x8(%rbp),%xmm0
    443f:	f2 0f 5c 45 f0       	subsd  -0x10(%rbp),%xmm0
    4444:	5d                   	pop    %rbp
    4445:	c3                   	retq   

0000000000004446 <safe_mul_func_double_f_f>:
    4446:	f3 0f 1e fa          	endbr64 
    444a:	55                   	push   %rbp
    444b:	48 89 e5             	mov    %rsp,%rbp
    444e:	f2 0f 11 45 f8       	movsd  %xmm0,-0x8(%rbp)
    4453:	f2 0f 11 4d f0       	movsd  %xmm1,-0x10(%rbp)
    4458:	f2 0f 10 4d f8       	movsd  -0x8(%rbp),%xmm1
    445d:	f2 0f 10 05 93 7e 00 	movsd  0x7e93(%rip),%xmm0        # c2f8 <g_260+0x1298>
    4464:	00 
    4465:	f2 0f 59 c8          	mulsd  %xmm0,%xmm1
    4469:	f2 0f 10 55 f0       	movsd  -0x10(%rbp),%xmm2
    446e:	f2 0f 10 05 8a 7e 00 	movsd  0x7e8a(%rip),%xmm0        # c300 <g_260+0x12a0>
    4475:	00 
    4476:	f2 0f 59 c2          	mulsd  %xmm2,%xmm0
    447a:	f2 0f 59 c1          	mulsd  %xmm1,%xmm0
    447e:	f3 0f 7e 0d 5a 7e 00 	movq   0x7e5a(%rip),%xmm1        # c2e0 <g_260+0x1280>
    4485:	00 
    4486:	66 0f 54 c1          	andpd  %xmm1,%xmm0
    448a:	66 0f 2f 05 76 7e 00 	comisd 0x7e76(%rip),%xmm0        # c308 <g_260+0x12a8>
    4491:	00 
    4492:	76 07                	jbe    449b <safe_mul_func_double_f_f+0x55>
    4494:	f2 0f 10 45 f8       	movsd  -0x8(%rbp),%xmm0
    4499:	eb 0a                	jmp    44a5 <safe_mul_func_double_f_f+0x5f>
    449b:	f2 0f 10 45 f8       	movsd  -0x8(%rbp),%xmm0
    44a0:	f2 0f 59 45 f0       	mulsd  -0x10(%rbp),%xmm0
    44a5:	5d                   	pop    %rbp
    44a6:	c3                   	retq   

00000000000044a7 <safe_div_func_double_f_f>:
    44a7:	f3 0f 1e fa          	endbr64 
    44ab:	55                   	push   %rbp
    44ac:	48 89 e5             	mov    %rsp,%rbp
    44af:	f2 0f 11 45 f8       	movsd  %xmm0,-0x8(%rbp)
    44b4:	f2 0f 11 4d f0       	movsd  %xmm1,-0x10(%rbp)
    44b9:	f2 0f 10 45 f0       	movsd  -0x10(%rbp),%xmm0
    44be:	f3 0f 7e 0d 1a 7e 00 	movq   0x7e1a(%rip),%xmm1        # c2e0 <g_260+0x1280>
    44c5:	00 
    44c6:	66 0f 54 c8          	andpd  %xmm0,%xmm1
    44ca:	f2 0f 10 05 3e 7e 00 	movsd  0x7e3e(%rip),%xmm0        # c310 <g_260+0x12b0>
    44d1:	00 
    44d2:	66 0f 2f c1          	comisd %xmm1,%xmm0
    44d6:	0f 97 c0             	seta   %al
    44d9:	83 f0 01             	xor    $0x1,%eax
    44dc:	84 c0                	test   %al,%al
    44de:	75 5a                	jne    453a <safe_div_func_double_f_f+0x93>
    44e0:	66 0f ef c0          	pxor   %xmm0,%xmm0
    44e4:	66 0f 2e 45 f0       	ucomisd -0x10(%rbp),%xmm0
    44e9:	7a 0b                	jp     44f6 <safe_div_func_double_f_f+0x4f>
    44eb:	66 0f ef c0          	pxor   %xmm0,%xmm0
    44ef:	66 0f 2e 45 f0       	ucomisd -0x10(%rbp),%xmm0
    44f4:	74 50                	je     4546 <safe_div_func_double_f_f+0x9f>
    44f6:	f2 0f 10 4d f8       	movsd  -0x8(%rbp),%xmm1
    44fb:	f2 0f 10 05 15 7e 00 	movsd  0x7e15(%rip),%xmm0        # c318 <g_260+0x12b8>
    4502:	00 
    4503:	f2 0f 59 c1          	mulsd  %xmm1,%xmm0
    4507:	f2 0f 10 55 f0       	movsd  -0x10(%rbp),%xmm2
    450c:	f2 0f 10 0d 0c 7e 00 	movsd  0x7e0c(%rip),%xmm1        # c320 <g_260+0x12c0>
    4513:	00 
    4514:	f2 0f 59 ca          	mulsd  %xmm2,%xmm1
    4518:	f2 0f 5e c1          	divsd  %xmm1,%xmm0
    451c:	f3 0f 7e 0d bc 7d 00 	movq   0x7dbc(%rip),%xmm1        # c2e0 <g_260+0x1280>
    4523:	00 
    4524:	66 0f 54 c1          	andpd  %xmm1,%xmm0
    4528:	66 0f 2f 05 f8 7d 00 	comisd 0x7df8(%rip),%xmm0        # c328 <g_260+0x12c8>
    452f:	00 
    4530:	0f 97 c0             	seta   %al
    4533:	83 f0 01             	xor    $0x1,%eax
    4536:	84 c0                	test   %al,%al
    4538:	74 0c                	je     4546 <safe_div_func_double_f_f+0x9f>
    453a:	f2 0f 10 45 f8       	movsd  -0x8(%rbp),%xmm0
    453f:	f2 0f 5e 45 f0       	divsd  -0x10(%rbp),%xmm0
    4544:	eb 05                	jmp    454b <safe_div_func_double_f_f+0xa4>
    4546:	f2 0f 10 45 f8       	movsd  -0x8(%rbp),%xmm0
    454b:	5d                   	pop    %rbp
    454c:	c3                   	retq   

000000000000454d <safe_convert_func_float_to_int32_t>:
    454d:	f3 0f 1e fa          	endbr64 
    4551:	55                   	push   %rbp
    4552:	48 89 e5             	mov    %rsp,%rbp
    4555:	f3 0f 11 45 fc       	movss  %xmm0,-0x4(%rbp)
    455a:	f3 0f 10 05 ce 7d 00 	movss  0x7dce(%rip),%xmm0        # c330 <g_260+0x12d0>
    4561:	00 
    4562:	0f 2f 45 fc          	comiss -0x4(%rbp),%xmm0
    4566:	0f 93 c0             	setae  %al
    4569:	83 f0 01             	xor    $0x1,%eax
    456c:	84 c0                	test   %al,%al
    456e:	74 21                	je     4591 <safe_convert_func_float_to_int32_t+0x44>
    4570:	f3 0f 10 45 fc       	movss  -0x4(%rbp),%xmm0
    4575:	0f 2f 05 b8 7d 00 00 	comiss 0x7db8(%rip),%xmm0        # c334 <g_260+0x12d4>
    457c:	0f 93 c0             	setae  %al
    457f:	83 f0 01             	xor    $0x1,%eax
    4582:	84 c0                	test   %al,%al
    4584:	74 0b                	je     4591 <safe_convert_func_float_to_int32_t+0x44>
    4586:	f3 0f 10 45 fc       	movss  -0x4(%rbp),%xmm0
    458b:	f3 0f 2c c0          	cvttss2si %xmm0,%eax
    458f:	eb 05                	jmp    4596 <safe_convert_func_float_to_int32_t+0x49>
    4591:	b8 ff ff ff 7f       	mov    $0x7fffffff,%eax
    4596:	5d                   	pop    %rbp
    4597:	c3                   	retq   

0000000000004598 <crc32_gentab>:
    4598:	f3 0f 1e fa          	endbr64 
    459c:	55                   	push   %rbp
    459d:	48 89 e5             	mov    %rsp,%rbp
    45a0:	c7 45 fc 20 83 b8 ed 	movl   $0xedb88320,-0x4(%rbp)
    45a7:	c7 45 f4 00 00 00 00 	movl   $0x0,-0xc(%rbp)
    45ae:	eb 51                	jmp    4601 <crc32_gentab+0x69>
    45b0:	8b 45 f4             	mov    -0xc(%rbp),%eax
    45b3:	89 45 f0             	mov    %eax,-0x10(%rbp)
    45b6:	c7 45 f8 08 00 00 00 	movl   $0x8,-0x8(%rbp)
    45bd:	eb 1e                	jmp    45dd <crc32_gentab+0x45>
    45bf:	8b 45 f0             	mov    -0x10(%rbp),%eax
    45c2:	83 e0 01             	and    $0x1,%eax
    45c5:	85 c0                	test   %eax,%eax
    45c7:	74 0d                	je     45d6 <crc32_gentab+0x3e>
    45c9:	8b 45 f0             	mov    -0x10(%rbp),%eax
    45cc:	d1 e8                	shr    %eax
    45ce:	33 45 fc             	xor    -0x4(%rbp),%eax
    45d1:	89 45 f0             	mov    %eax,-0x10(%rbp)
    45d4:	eb 03                	jmp    45d9 <crc32_gentab+0x41>
    45d6:	d1 6d f0             	shrl   -0x10(%rbp)
    45d9:	83 6d f8 01          	subl   $0x1,-0x8(%rbp)
    45dd:	83 7d f8 00          	cmpl   $0x0,-0x8(%rbp)
    45e1:	7f dc                	jg     45bf <crc32_gentab+0x27>
    45e3:	8b 45 f4             	mov    -0xc(%rbp),%eax
    45e6:	48 98                	cltq   
    45e8:	48 8d 0c 85 00 00 00 	lea    0x0(,%rax,4),%rcx
    45ef:	00 
    45f0:	48 8d 15 e9 d9 00 00 	lea    0xd9e9(%rip),%rdx        # 11fe0 <crc32_tab>
    45f7:	8b 45 f0             	mov    -0x10(%rbp),%eax
    45fa:	89 04 11             	mov    %eax,(%rcx,%rdx,1)
    45fd:	83 45 f4 01          	addl   $0x1,-0xc(%rbp)
    4601:	81 7d f4 ff 00 00 00 	cmpl   $0xff,-0xc(%rbp)
    4608:	7e a6                	jle    45b0 <crc32_gentab+0x18>
    460a:	90                   	nop
    460b:	90                   	nop
    460c:	5d                   	pop    %rbp
    460d:	c3                   	retq   

000000000000460e <crc32_byte>:
    460e:	f3 0f 1e fa          	endbr64 
    4612:	55                   	push   %rbp
    4613:	48 89 e5             	mov    %rsp,%rbp
    4616:	89 f8                	mov    %edi,%eax
    4618:	88 45 fc             	mov    %al,-0x4(%rbp)
    461b:	8b 05 ff a9 00 00    	mov    0xa9ff(%rip),%eax        # f020 <crc32_context>
    4621:	c1 e8 08             	shr    $0x8,%eax
    4624:	89 c1                	mov    %eax,%ecx
    4626:	0f b6 55 fc          	movzbl -0x4(%rbp),%edx
    462a:	8b 05 f0 a9 00 00    	mov    0xa9f0(%rip),%eax        # f020 <crc32_context>
    4630:	31 d0                	xor    %edx,%eax
    4632:	0f b6 c0             	movzbl %al,%eax
    4635:	89 c0                	mov    %eax,%eax
    4637:	48 8d 14 85 00 00 00 	lea    0x0(,%rax,4),%rdx
    463e:	00 
    463f:	48 8d 05 9a d9 00 00 	lea    0xd99a(%rip),%rax        # 11fe0 <crc32_tab>
    4646:	8b 04 02             	mov    (%rdx,%rax,1),%eax
    4649:	31 c8                	xor    %ecx,%eax
    464b:	89 05 cf a9 00 00    	mov    %eax,0xa9cf(%rip)        # f020 <crc32_context>
    4651:	90                   	nop
    4652:	5d                   	pop    %rbp
    4653:	c3                   	retq   

0000000000004654 <crc32_8bytes>:
    4654:	f3 0f 1e fa          	endbr64 
    4658:	55                   	push   %rbp
    4659:	48 89 e5             	mov    %rsp,%rbp
    465c:	48 83 ec 08          	sub    $0x8,%rsp
    4660:	48 89 7d f8          	mov    %rdi,-0x8(%rbp)
    4664:	48 8b 45 f8          	mov    -0x8(%rbp),%rax
    4668:	0f b6 c0             	movzbl %al,%eax
    466b:	89 c7                	mov    %eax,%edi
    466d:	e8 9c ff ff ff       	callq  460e <crc32_byte>
    4672:	48 8b 45 f8          	mov    -0x8(%rbp),%rax
    4676:	48 c1 e8 08          	shr    $0x8,%rax
    467a:	0f b6 c0             	movzbl %al,%eax
    467d:	89 c7                	mov    %eax,%edi
    467f:	e8 8a ff ff ff       	callq  460e <crc32_byte>
    4684:	48 8b 45 f8          	mov    -0x8(%rbp),%rax
    4688:	48 c1 e8 10          	shr    $0x10,%rax
    468c:	0f b6 c0             	movzbl %al,%eax
    468f:	89 c7                	mov    %eax,%edi
    4691:	e8 78 ff ff ff       	callq  460e <crc32_byte>
    4696:	48 8b 45 f8          	mov    -0x8(%rbp),%rax
    469a:	48 c1 e8 18          	shr    $0x18,%rax
    469e:	0f b6 c0             	movzbl %al,%eax
    46a1:	89 c7                	mov    %eax,%edi
    46a3:	e8 66 ff ff ff       	callq  460e <crc32_byte>
    46a8:	48 8b 45 f8          	mov    -0x8(%rbp),%rax
    46ac:	48 c1 e8 20          	shr    $0x20,%rax
    46b0:	0f b6 c0             	movzbl %al,%eax
    46b3:	89 c7                	mov    %eax,%edi
    46b5:	e8 54 ff ff ff       	callq  460e <crc32_byte>
    46ba:	48 8b 45 f8          	mov    -0x8(%rbp),%rax
    46be:	48 c1 e8 28          	shr    $0x28,%rax
    46c2:	0f b6 c0             	movzbl %al,%eax
    46c5:	89 c7                	mov    %eax,%edi
    46c7:	e8 42 ff ff ff       	callq  460e <crc32_byte>
    46cc:	48 8b 45 f8          	mov    -0x8(%rbp),%rax
    46d0:	48 c1 e8 30          	shr    $0x30,%rax
    46d4:	0f b6 c0             	movzbl %al,%eax
    46d7:	89 c7                	mov    %eax,%edi
    46d9:	e8 30 ff ff ff       	callq  460e <crc32_byte>
    46de:	48 8b 45 f8          	mov    -0x8(%rbp),%rax
    46e2:	48 c1 e8 38          	shr    $0x38,%rax
    46e6:	0f b6 c0             	movzbl %al,%eax
    46e9:	89 c7                	mov    %eax,%edi
    46eb:	e8 1e ff ff ff       	callq  460e <crc32_byte>
    46f0:	90                   	nop
    46f1:	c9                   	leaveq 
    46f2:	c3                   	retq   

00000000000046f3 <transparent_crc>:
    46f3:	f3 0f 1e fa          	endbr64 
    46f7:	55                   	push   %rbp
    46f8:	48 89 e5             	mov    %rsp,%rbp
    46fb:	48 83 ec 20          	sub    $0x20,%rsp
    46ff:	48 89 7d f8          	mov    %rdi,-0x8(%rbp)
    4703:	48 89 75 f0          	mov    %rsi,-0x10(%rbp)
    4707:	89 55 ec             	mov    %edx,-0x14(%rbp)
    470a:	48 8b 45 f8          	mov    -0x8(%rbp),%rax
    470e:	48 89 c7             	mov    %rax,%rdi
    4711:	e8 3e ff ff ff       	callq  4654 <crc32_8bytes>
    4716:	83 7d ec 00          	cmpl   $0x0,-0x14(%rbp)
    471a:	74 22                	je     473e <transparent_crc+0x4b>
    471c:	8b 05 fe a8 00 00    	mov    0xa8fe(%rip),%eax        # f020 <crc32_context>
    4722:	f7 d0                	not    %eax
    4724:	89 c2                	mov    %eax,%edx
    4726:	48 8b 45 f0          	mov    -0x10(%rbp),%rax
    472a:	48 89 c6             	mov    %rax,%rsi
    472d:	48 8d 3d fc 68 00 00 	lea    0x68fc(%rip),%rdi        # b030 <_IO_stdin_used+0x30>
    4734:	b8 00 00 00 00       	mov    $0x0,%eax
    4739:	e8 42 e9 ff ff       	callq  3080 <printf@plt>
    473e:	90                   	nop
    473f:	c9                   	leaveq 
    4740:	c3                   	retq   

0000000000004741 <transparent_crc_bytes>:
    4741:	f3 0f 1e fa          	endbr64 
    4745:	55                   	push   %rbp
    4746:	48 89 e5             	mov    %rsp,%rbp
    4749:	48 83 ec 30          	sub    $0x30,%rsp
    474d:	48 89 7d e8          	mov    %rdi,-0x18(%rbp)
    4751:	89 75 e4             	mov    %esi,-0x1c(%rbp)
    4754:	48 89 55 d8          	mov    %rdx,-0x28(%rbp)
    4758:	89 4d e0             	mov    %ecx,-0x20(%rbp)
    475b:	c7 45 fc 00 00 00 00 	movl   $0x0,-0x4(%rbp)
    4762:	eb 1e                	jmp    4782 <transparent_crc_bytes+0x41>
    4764:	8b 45 fc             	mov    -0x4(%rbp),%eax
    4767:	48 63 d0             	movslq %eax,%rdx
    476a:	48 8b 45 e8          	mov    -0x18(%rbp),%rax
    476e:	48 01 d0             	add    %rdx,%rax
    4771:	0f b6 00             	movzbl (%rax),%eax
    4774:	0f b6 c0             	movzbl %al,%eax
    4777:	89 c7                	mov    %eax,%edi
    4779:	e8 90 fe ff ff       	callq  460e <crc32_byte>
    477e:	83 45 fc 01          	addl   $0x1,-0x4(%rbp)
    4782:	8b 45 fc             	mov    -0x4(%rbp),%eax
    4785:	3b 45 e4             	cmp    -0x1c(%rbp),%eax
    4788:	7c da                	jl     4764 <transparent_crc_bytes+0x23>
    478a:	83 7d e0 00          	cmpl   $0x0,-0x20(%rbp)
    478e:	74 22                	je     47b2 <transparent_crc_bytes+0x71>
    4790:	8b 05 8a a8 00 00    	mov    0xa88a(%rip),%eax        # f020 <crc32_context>
    4796:	f7 d0                	not    %eax
    4798:	89 c2                	mov    %eax,%edx
    479a:	48 8b 45 d8          	mov    -0x28(%rbp),%rax
    479e:	48 89 c6             	mov    %rax,%rsi
    47a1:	48 8d 3d 88 68 00 00 	lea    0x6888(%rip),%rdi        # b030 <_IO_stdin_used+0x30>
    47a8:	b8 00 00 00 00       	mov    $0x0,%eax
    47ad:	e8 ce e8 ff ff       	callq  3080 <printf@plt>
    47b2:	90                   	nop
    47b3:	c9                   	leaveq 
    47b4:	c3                   	retq   

00000000000047b5 <func_1>:
    47b5:	f3 0f 1e fa          	endbr64 
    47b9:	55                   	push   %rbp
    47ba:	48 89 e5             	mov    %rsp,%rbp
    47bd:	41 56                	push   %r14
    47bf:	41 55                	push   %r13
    47c1:	41 54                	push   %r12
    47c3:	53                   	push   %rbx
    47c4:	48 81 ec a0 02 00 00 	sub    $0x2a0,%rsp
    47cb:	64 48 8b 04 25 28 00 	mov    %fs:0x28,%rax
    47d2:	00 00 
    47d4:	48 89 45 d8          	mov    %rax,-0x28(%rbp)
    47d8:	31 c0                	xor    %eax,%eax
    47da:	48 8d 05 f7 a8 00 00 	lea    0xa8f7(%rip),%rax        # f0d8 <g_7+0x98>
    47e1:	48 89 85 48 fd ff ff 	mov    %rax,-0x2b8(%rbp)
    47e8:	c7 85 44 fd ff ff 01 	movl   $0x1,-0x2bc(%rbp)
    47ef:	00 00 00 
    47f2:	c7 85 10 fe ff ff ff 	movl   $0xffffffff,-0x1f0(%rbp)
    47f9:	ff ff ff 
    47fc:	c7 85 14 fe ff ff 01 	movl   $0x1,-0x1ec(%rbp)
    4803:	00 00 00 
    4806:	c7 85 18 fe ff ff 00 	movl   $0x0,-0x1e8(%rbp)
    480d:	00 00 00 
    4810:	c7 85 1c fe ff ff 01 	movl   $0x1,-0x1e4(%rbp)
    4817:	00 00 00 
    481a:	c7 85 20 fe ff ff 00 	movl   $0x0,-0x1e0(%rbp)
    4821:	00 00 00 
    4824:	c7 85 24 fe ff ff 01 	movl   $0x1,-0x1dc(%rbp)
    482b:	00 00 00 
    482e:	c7 85 28 fe ff ff ff 	movl   $0xffffffff,-0x1d8(%rbp)
    4835:	ff ff ff 
    4838:	c7 85 2c fe ff ff 01 	movl   $0x1,-0x1d4(%rbp)
    483f:	00 00 00 
    4842:	c7 85 30 fe ff ff 4a 	movl   $0x79facd4a,-0x1d0(%rbp)
    4849:	cd fa 79 
    484c:	c7 85 34 fe ff ff 4a 	movl   $0x79facd4a,-0x1cc(%rbp)
    4853:	cd fa 79 
    4856:	c7 85 38 fe ff ff 01 	movl   $0x1,-0x1c8(%rbp)
    485d:	00 00 00 
    4860:	c7 85 3c fe ff ff ff 	movl   $0xffffffff,-0x1c4(%rbp)
    4867:	ff ff ff 
    486a:	c7 85 40 fe ff ff 01 	movl   $0x1,-0x1c0(%rbp)
    4871:	00 00 00 
    4874:	c7 85 44 fe ff ff 00 	movl   $0x0,-0x1bc(%rbp)
    487b:	00 00 00 
    487e:	c7 85 48 fe ff ff 01 	movl   $0x1,-0x1b8(%rbp)
    4885:	00 00 00 
    4888:	c7 85 4c fe ff ff 00 	movl   $0x0,-0x1b4(%rbp)
    488f:	00 00 00 
    4892:	c7 85 50 fe ff ff 01 	movl   $0x1,-0x1b0(%rbp)
    4899:	00 00 00 
    489c:	c7 85 54 fe ff ff ff 	movl   $0xffffffff,-0x1ac(%rbp)
    48a3:	ff ff ff 
    48a6:	c7 85 58 fe ff ff 01 	movl   $0x1,-0x1a8(%rbp)
    48ad:	00 00 00 
    48b0:	c7 85 5c fe ff ff 4a 	movl   $0x79facd4a,-0x1a4(%rbp)
    48b7:	cd fa 79 
    48ba:	c7 85 60 fe ff ff 4a 	movl   $0x79facd4a,-0x1a0(%rbp)
    48c1:	cd fa 79 
    48c4:	c7 85 64 fe ff ff 01 	movl   $0x1,-0x19c(%rbp)
    48cb:	00 00 00 
    48ce:	c7 85 68 fe ff ff ff 	movl   $0xffffffff,-0x198(%rbp)
    48d5:	ff ff ff 
    48d8:	c7 85 6c fe ff ff 01 	movl   $0x1,-0x194(%rbp)
    48df:	00 00 00 
    48e2:	c7 85 70 fe ff ff 00 	movl   $0x0,-0x190(%rbp)
    48e9:	00 00 00 
    48ec:	c7 85 74 fe ff ff 01 	movl   $0x1,-0x18c(%rbp)
    48f3:	00 00 00 
    48f6:	c7 85 78 fe ff ff 00 	movl   $0x0,-0x188(%rbp)
    48fd:	00 00 00 
    4900:	c7 85 7c fe ff ff 01 	movl   $0x1,-0x184(%rbp)
    4907:	00 00 00 
    490a:	c7 85 80 fe ff ff ff 	movl   $0xffffffff,-0x180(%rbp)
    4911:	ff ff ff 
    4914:	c7 85 84 fe ff ff 01 	movl   $0x1,-0x17c(%rbp)
    491b:	00 00 00 
    491e:	c7 85 88 fe ff ff 4a 	movl   $0x79facd4a,-0x178(%rbp)
    4925:	cd fa 79 
    4928:	c7 85 8c fe ff ff 4a 	movl   $0x79facd4a,-0x174(%rbp)
    492f:	cd fa 79 
    4932:	c7 85 90 fe ff ff 01 	movl   $0x1,-0x170(%rbp)
    4939:	00 00 00 
    493c:	c7 85 94 fe ff ff ff 	movl   $0xffffffff,-0x16c(%rbp)
    4943:	ff ff ff 
    4946:	c7 85 98 fe ff ff 01 	movl   $0x1,-0x168(%rbp)
    494d:	00 00 00 
    4950:	c7 85 9c fe ff ff 00 	movl   $0x0,-0x164(%rbp)
    4957:	00 00 00 
    495a:	c7 85 a0 fe ff ff 01 	movl   $0x1,-0x160(%rbp)
    4961:	00 00 00 
    4964:	c7 85 a4 fe ff ff 00 	movl   $0x0,-0x15c(%rbp)
    496b:	00 00 00 
    496e:	c7 85 a8 fe ff ff 01 	movl   $0x1,-0x158(%rbp)
    4975:	00 00 00 
    4978:	c7 85 ac fe ff ff ff 	movl   $0xffffffff,-0x154(%rbp)
    497f:	ff ff ff 
    4982:	48 8d 05 4f a7 00 00 	lea    0xa74f(%rip),%rax        # f0d8 <g_7+0x98>
    4989:	48 89 85 50 fd ff ff 	mov    %rax,-0x2b0(%rbp)
    4990:	48 8d 85 b0 fe ff ff 	lea    -0x150(%rbp),%rax
    4997:	48 8d 15 22 c8 00 00 	lea    0xc822(%rip),%rdx        # 111c0 <g_793+0xe0>
    499e:	b9 24 00 00 00       	mov    $0x24,%ecx
    49a3:	48 89 c7             	mov    %rax,%rdi
    49a6:	48 89 d6             	mov    %rdx,%rsi
    49a9:	f3 48 a5             	rep movsq %ds:(%rsi),%es:(%rdi)
    49ac:	48 c7 85 58 fd ff ff 	movq   $0x0,-0x2a8(%rbp)
    49b3:	00 00 00 00 
    49b7:	48 8d 85 b0 fe ff ff 	lea    -0x150(%rbp),%rax
    49be:	48 05 90 00 00 00    	add    $0x90,%rax
    49c4:	48 89 85 60 fd ff ff 	mov    %rax,-0x2a0(%rbp)
    49cb:	48 8d 05 c6 a9 00 00 	lea    0xa9c6(%rip),%rax        # f398 <g_166>
    49d2:	48 89 85 68 fd ff ff 	mov    %rax,-0x298(%rbp)
    49d9:	48 8d 05 71 ae 00 00 	lea    0xae71(%rip),%rax        # f851 <g_464+0x1>
    49e0:	48 89 85 70 fd ff ff 	mov    %rax,-0x290(%rbp)
    49e7:	66 c7 85 42 fd ff ff 	movw   $0x66c6,-0x2be(%rbp)
    49ee:	c6 66 
    49f0:	48 8d 05 48 b2 00 00 	lea    0xb248(%rip),%rax        # fc3f <g_472+0x9f>
    49f7:	48 89 85 78 fd ff ff 	mov    %rax,-0x288(%rbp)
    49fe:	c7 85 80 fd ff ff ff 	movl   $0xffffffff,-0x280(%rbp)
    4a05:	ff ff ff 
    4a08:	c7 85 84 fd ff ff b5 	movl   $0xacc4fb5,-0x27c(%rbp)
    4a0f:	4f cc 0a 
    4a12:	c7 85 88 fd ff ff d9 	movl   $0xc5be56d9,-0x278(%rbp)
    4a19:	56 be c5 
    4a1c:	c7 85 8c fd ff ff 00 	movl   $0x0,-0x274(%rbp)
    4a23:	00 00 00 
    4a26:	c7 85 90 fd ff ff f7 	movl   $0x7fb849f7,-0x270(%rbp)
    4a2d:	49 b8 7f 
    4a30:	c7 85 94 fd ff ff 01 	movl   $0x1,-0x26c(%rbp)
    4a37:	00 00 00 
    4a3a:	c7 85 98 fd ff ff b9 	movl   $0x669532b9,-0x268(%rbp)
    4a41:	32 95 66 
    4a44:	c7 85 9c fd ff ff 0c 	movl   $0x74d81a0c,-0x264(%rbp)
    4a4b:	1a d8 74 
    4a4e:	c7 85 a0 fd ff ff f7 	movl   $0x7fb849f7,-0x260(%rbp)
    4a55:	49 b8 7f 
    4a58:	c7 85 a4 fd ff ff b5 	movl   $0xacc4fb5,-0x25c(%rbp)
    4a5f:	4f cc 0a 
    4a62:	c7 85 a8 fd ff ff 01 	movl   $0x1,-0x258(%rbp)
    4a69:	00 00 00 
    4a6c:	c7 85 ac fd ff ff 01 	movl   $0x1,-0x254(%rbp)
    4a73:	00 00 00 
    4a76:	c7 85 b0 fd ff ff e9 	movl   $0x981b61e9,-0x250(%rbp)
    4a7d:	61 1b 98 
    4a80:	c7 85 b4 fd ff ff d9 	movl   $0xc5be56d9,-0x24c(%rbp)
    4a87:	56 be c5 
    4a8a:	c7 85 b8 fd ff ff d9 	movl   $0xc5be56d9,-0x248(%rbp)
    4a91:	56 be c5 
    4a94:	c7 85 bc fd ff ff e9 	movl   $0x981b61e9,-0x244(%rbp)
    4a9b:	61 1b 98 
    4a9e:	c7 85 c0 fd ff ff 2a 	movl   $0x8803582a,-0x240(%rbp)
    4aa5:	58 03 88 
    4aa8:	c7 85 c4 fd ff ff b5 	movl   $0xacc4fb5,-0x23c(%rbp)
    4aaf:	4f cc 0a 
    4ab2:	c7 85 c8 fd ff ff 01 	movl   $0x1,-0x238(%rbp)
    4ab9:	00 00 00 
    4abc:	c7 85 cc fd ff ff 01 	movl   $0x1,-0x234(%rbp)
    4ac3:	00 00 00 
    4ac6:	c7 85 d0 fd ff ff 04 	movl   $0x4,-0x230(%rbp)
    4acd:	00 00 00 
    4ad0:	c7 85 d4 fd ff ff d2 	movl   $0xb5a6c0d2,-0x22c(%rbp)
    4ad7:	c0 a6 b5 
    4ada:	c7 85 d8 fd ff ff a2 	movl   $0x6b4dba2,-0x228(%rbp)
    4ae1:	db b4 06 
    4ae4:	c7 85 dc fd ff ff f7 	movl   $0x7fb849f7,-0x224(%rbp)
    4aeb:	49 b8 7f 
    4aee:	c7 85 e0 fd ff ff 04 	movl   $0x4,-0x220(%rbp)
    4af5:	00 00 00 
    4af8:	c7 85 e4 fd ff ff b9 	movl   $0x669532b9,-0x21c(%rbp)
    4aff:	32 95 66 
    4b02:	c7 85 e8 fd ff ff f4 	movl   $0x93d6d2f4,-0x218(%rbp)
    4b09:	d2 d6 93 
    4b0c:	c7 85 ec fd ff ff 0c 	movl   $0x74d81a0c,-0x214(%rbp)
    4b13:	1a d8 74 
    4b16:	c7 85 f0 fd ff ff a2 	movl   $0x6b4dba2,-0x210(%rbp)
    4b1d:	db b4 06 
    4b20:	c7 85 f4 fd ff ff 0c 	movl   $0x74d81a0c,-0x20c(%rbp)
    4b27:	1a d8 74 
    4b2a:	c7 85 f8 fd ff ff 50 	movl   $0xba06be50,-0x208(%rbp)
    4b31:	be 06 ba 
    4b34:	c7 85 fc fd ff ff 01 	movl   $0x1,-0x204(%rbp)
    4b3b:	00 00 00 
    4b3e:	c7 85 00 fe ff ff 50 	movl   $0xba06be50,-0x200(%rbp)
    4b45:	be 06 ba 
    4b48:	c7 85 04 fe ff ff 15 	movl   $0x1766cc15,-0x1fc(%rbp)
    4b4f:	cc 66 17 
    4b52:	c7 85 08 fe ff ff 01 	movl   $0x1,-0x1f8(%rbp)
    4b59:	00 00 00 
    4b5c:	c7 85 0c fe ff ff a2 	movl   $0x6b4dba2,-0x1f4(%rbp)
    4b63:	db b4 06 
    4b66:	4c 8b a5 40 ff ff ff 	mov    -0xc0(%rbp),%r12
    4b6d:	4c 8b ad 40 ff ff ff 	mov    -0xc0(%rbp),%r13
    4b74:	4c 8d 35 65 ac 00 00 	lea    0xac65(%rip),%r14        # f7e0 <g_455>
    4b7b:	8b 05 5e a5 00 00    	mov    0xa55e(%rip),%eax        # f0df <g_7+0x9f>
    4b81:	89 c2                	mov    %eax,%edx
    4b83:	8b 85 54 fe ff ff    	mov    -0x1ac(%rbp),%eax
    4b89:	89 c6                	mov    %eax,%esi
    4b8b:	89 d7                	mov    %edx,%edi
    4b8d:	e8 20 29 00 00       	callq  74b2 <func_15>
    4b92:	48 89 85 50 fd ff ff 	mov    %rax,-0x2b0(%rbp)
    4b99:	48 8b 1d f0 d3 00 00 	mov    0xd3f0(%rip),%rbx        # 11f90 <g_460>
    4ba0:	48 8b 85 50 fd ff ff 	mov    -0x2b0(%rbp),%rax
    4ba7:	4c 89 f6             	mov    %r14,%rsi
    4baa:	48 89 c7             	mov    %rax,%rdi
    4bad:	e8 83 28 00 00       	callq  7435 <func_11>
    4bb2:	89 03                	mov    %eax,(%rbx)
    4bb4:	8b 03                	mov    (%rbx),%eax
    4bb6:	4c 89 ee             	mov    %r13,%rsi
    4bb9:	89 c7                	mov    %eax,%edi
    4bbb:	e8 3d 07 00 00       	callq  52fd <func_8>
    4bc0:	8b 8d 54 fe ff ff    	mov    -0x1ac(%rbp),%ecx
    4bc6:	48 8b 85 48 fd ff ff 	mov    -0x2b8(%rbp),%rax
    4bcd:	4c 89 e2             	mov    %r12,%rdx
    4bd0:	89 ce                	mov    %ecx,%esi
    4bd2:	48 89 c7             	mov    %rax,%rdi
    4bd5:	e8 75 01 00 00       	callq  4d4f <func_2>
    4bda:	48 8b 95 60 fd ff ff 	mov    -0x2a0(%rbp),%rdx
    4be1:	48 89 02             	mov    %rax,(%rdx)
    4be4:	8b 85 54 fe ff ff    	mov    -0x1ac(%rbp),%eax
    4bea:	3d f8 00 00 00       	cmp    $0xf8,%eax
    4bef:	8b 85 44 fd ff ff    	mov    -0x2bc(%rbp),%eax
    4bf5:	48 63 d8             	movslq %eax,%rbx
    4bf8:	48 8b 05 49 d2 00 00 	mov    0xd249(%rip),%rax        # 11e48 <g_141>
    4bff:	48 8b 00             	mov    (%rax),%rax
    4c02:	4c 8b 20             	mov    (%rax),%r12
    4c05:	8b 85 54 fe ff ff    	mov    -0x1ac(%rbp),%eax
    4c0b:	44 0f b7 e8          	movzwl %ax,%r13d
    4c0f:	8b 95 44 fd ff ff    	mov    -0x2bc(%rbp),%edx
    4c15:	48 8b 85 68 fd ff ff 	mov    -0x298(%rbp),%rax
    4c1c:	89 10                	mov    %edx,(%rax)
    4c1e:	8b 85 44 fd ff ff    	mov    -0x2bc(%rbp),%eax
    4c24:	0f b6 c0             	movzbl %al,%eax
    4c27:	be 05 00 00 00       	mov    $0x5,%esi
    4c2c:	89 c7                	mov    %eax,%edi
    4c2e:	e8 5a f0 ff ff       	callq  3c8d <safe_rshift_func_uint8_t_u_s>
    4c33:	0f b6 c0             	movzbl %al,%eax
    4c36:	be 02 00 00 00       	mov    $0x2,%esi
    4c3b:	89 c7                	mov    %eax,%edi
    4c3d:	e8 7c f0 ff ff       	callq  3cbe <safe_rshift_func_uint8_t_u_u>
    4c42:	0f b6 d0             	movzbl %al,%edx
    4c45:	0f bf 85 42 fd ff ff 	movswl -0x2be(%rbp),%eax
    4c4c:	39 c2                	cmp    %eax,%edx
    4c4e:	0f 9d c0             	setge  %al
    4c51:	0f b6 c0             	movzbl %al,%eax
    4c54:	89 c6                	mov    %eax,%esi
    4c56:	bf 00 00 00 00       	mov    $0x0,%edi
    4c5b:	e8 92 e5 ff ff       	callq  31f2 <safe_sub_func_int8_t_s_s>
    4c60:	0f b7 85 42 fd ff ff 	movzwl -0x2be(%rbp),%eax
    4c67:	0f b6 c0             	movzbl %al,%eax
    4c6a:	be 04 00 00 00       	mov    $0x4,%esi
    4c6f:	89 c7                	mov    %eax,%edi
    4c71:	e8 17 f0 ff ff       	callq  3c8d <safe_rshift_func_uint8_t_u_s>
    4c76:	0f b6 c0             	movzbl %al,%eax
    4c79:	44 89 ee             	mov    %r13d,%esi
    4c7c:	89 c7                	mov    %eax,%edi
    4c7e:	e8 d9 f0 ff ff       	callq  3d5c <safe_mod_func_uint16_t_u_u>
    4c83:	4c 89 e6             	mov    %r12,%rsi
    4c86:	bf 00 00 00 00       	mov    $0x0,%edi
    4c8b:	e8 9e f3 ff ff       	callq  402e <safe_add_func_uint64_t_u_u>
    4c90:	be 01 00 00 00       	mov    $0x1,%esi
    4c95:	48 89 c7             	mov    %rax,%rdi
    4c98:	e8 a4 eb ff ff       	callq  3841 <safe_add_func_int64_t_s_s>
    4c9d:	48 89 de             	mov    %rbx,%rsi
    4ca0:	48 89 c7             	mov    %rax,%rdi
    4ca3:	e8 99 eb ff ff       	callq  3841 <safe_add_func_int64_t_s_s>
    4ca8:	48 3d 52 51 78 34    	cmp    $0x34785152,%rax
    4cae:	8b 85 44 fd ff ff    	mov    -0x2bc(%rbp),%eax
    4cb4:	be f3 33 3b c8       	mov    $0xc83b33f3,%esi
    4cb9:	89 c7                	mov    %eax,%edi
    4cbb:	e8 10 f2 ff ff       	callq  3ed0 <safe_sub_func_uint32_t_u_u>
    4cc0:	89 c2                	mov    %eax,%edx
    4cc2:	48 8b 05 c7 a6 00 00 	mov    0xa6c7(%rip),%rax        # f390 <g_121+0x8>
    4cc9:	c1 e0 0e             	shl    $0xe,%eax
    4ccc:	c1 f8 0e             	sar    $0xe,%eax
    4ccf:	89 d6                	mov    %edx,%esi
    4cd1:	89 c7                	mov    %eax,%edi
    4cd3:	e8 de e8 ff ff       	callq  35b6 <safe_add_func_int32_t_s_s>
    4cd8:	0f be d0             	movsbl %al,%edx
    4cdb:	48 8b 05 99 ae 00 00 	mov    0xae99(%rip),%rax        # fb7b <g_471+0xb>
    4ce2:	0f be c0             	movsbl %al,%eax
    4ce5:	89 d6                	mov    %edx,%esi
    4ce7:	89 c7                	mov    %eax,%edi
    4ce9:	e8 7c e5 ff ff       	callq  326a <safe_div_func_int8_t_s_s>
    4cee:	0f be d0             	movsbl %al,%edx
    4cf1:	8b 85 54 fe ff ff    	mov    -0x1ac(%rbp),%eax
    4cf7:	39 c2                	cmp    %eax,%edx
    4cf9:	0f 93 c0             	setae  %al
    4cfc:	0f b6 d0             	movzbl %al,%edx
    4cff:	48 8b 85 78 fd ff ff 	mov    -0x288(%rbp),%rax
    4d06:	8b 00                	mov    (%rax),%eax
    4d08:	21 c2                	and    %eax,%edx
    4d0a:	48 8b 85 78 fd ff ff 	mov    -0x288(%rbp),%rax
    4d11:	89 10                	mov    %edx,(%rax)
    4d13:	48 8b 85 78 fd ff ff 	mov    -0x288(%rbp),%rax
    4d1a:	8b 00                	mov    (%rax),%eax
    4d1c:	89 85 b8 fd ff ff    	mov    %eax,-0x248(%rbp)
    4d22:	48 8b 85 78 fd ff ff 	mov    -0x288(%rbp),%rax
    4d29:	8b 00                	mov    (%rax),%eax
    4d2b:	48 8b 4d d8          	mov    -0x28(%rbp),%rcx
    4d2f:	64 48 33 0c 25 28 00 	xor    %fs:0x28,%rcx
    4d36:	00 00 
    4d38:	74 05                	je     4d3f <func_1+0x58a>
    4d3a:	e8 31 e3 ff ff       	callq  3070 <__stack_chk_fail@plt>
    4d3f:	48 81 c4 a0 02 00 00 	add    $0x2a0,%rsp
    4d46:	5b                   	pop    %rbx
    4d47:	41 5c                	pop    %r12
    4d49:	41 5d                	pop    %r13
    4d4b:	41 5e                	pop    %r14
    4d4d:	5d                   	pop    %rbp
    4d4e:	c3                   	retq   

0000000000004d4f <func_2>:
    4d4f:	f3 0f 1e fa          	endbr64 
    4d53:	55                   	push   %rbp
    4d54:	48 89 e5             	mov    %rsp,%rbp
    4d57:	41 57                	push   %r15
    4d59:	41 56                	push   %r14
    4d5b:	41 55                	push   %r13
    4d5d:	41 54                	push   %r12
    4d5f:	53                   	push   %rbx
    4d60:	48 81 ec d8 00 00 00 	sub    $0xd8,%rsp
    4d67:	48 89 bd 18 ff ff ff 	mov    %rdi,-0xe8(%rbp)
    4d6e:	89 b5 14 ff ff ff    	mov    %esi,-0xec(%rbp)
    4d74:	48 89 95 08 ff ff ff 	mov    %rdx,-0xf8(%rbp)
    4d7b:	64 48 8b 04 25 28 00 	mov    %fs:0x28,%rax
    4d82:	00 00 
    4d84:	48 89 45 c8          	mov    %rax,-0x38(%rbp)
    4d88:	31 c0                	xor    %eax,%eax
    4d8a:	48 8d 05 56 aa 00 00 	lea    0xaa56(%rip),%rax        # f7e7 <g_455+0x7>
    4d91:	48 89 85 48 ff ff ff 	mov    %rax,-0xb8(%rbp)
    4d98:	c7 85 34 ff ff ff 3f 	movl   $0xe79cc23f,-0xcc(%rbp)
    4d9f:	c2 9c e7 
    4da2:	c7 85 28 ff ff ff d9 	movl   $0x39d6c2d9,-0xd8(%rbp)
    4da9:	c2 d6 39 
    4dac:	48 c7 85 50 ff ff ff 	movq   $0x0,-0xb0(%rbp)
    4db3:	00 00 00 00 
    4db7:	48 8d 05 d6 a5 00 00 	lea    0xa5d6(%rip),%rax        # f394 <g_123>
    4dbe:	48 89 85 58 ff ff ff 	mov    %rax,-0xa8(%rbp)
    4dc5:	48 8d 05 6d ae 00 00 	lea    0xae6d(%rip),%rax        # fc39 <g_472+0x99>
    4dcc:	48 89 85 60 ff ff ff 	mov    %rax,-0xa0(%rbp)
    4dd3:	48 8d 05 46 a9 00 00 	lea    0xa946(%rip),%rax        # f720 <g_384>
    4dda:	48 89 85 68 ff ff ff 	mov    %rax,-0x98(%rbp)
    4de1:	c7 85 2c ff ff ff 08 	movl   $0x8,-0xd4(%rbp)
    4de8:	00 00 00 
    4deb:	48 8d 05 49 aa 00 00 	lea    0xaa49(%rip),%rax        # f83b <g_463+0xb>
    4df2:	48 89 85 70 ff ff ff 	mov    %rax,-0x90(%rbp)
    4df9:	48 8d 05 3b a9 00 00 	lea    0xa93b(%rip),%rax        # f73b <g_397+0xb>
    4e00:	48 89 85 78 ff ff ff 	mov    %rax,-0x88(%rbp)
    4e07:	c7 45 a0 02 00 00 00 	movl   $0x2,-0x60(%rbp)
    4e0e:	c7 45 a4 02 00 00 00 	movl   $0x2,-0x5c(%rbp)
    4e15:	c7 45 a8 02 00 00 00 	movl   $0x2,-0x58(%rbp)
    4e1c:	c7 45 ac 02 00 00 00 	movl   $0x2,-0x54(%rbp)
    4e23:	c7 45 b0 02 00 00 00 	movl   $0x2,-0x50(%rbp)
    4e2a:	c7 45 b4 02 00 00 00 	movl   $0x2,-0x4c(%rbp)
    4e31:	c7 45 b8 02 00 00 00 	movl   $0x2,-0x48(%rbp)
    4e38:	c7 85 30 ff ff ff 00 	movl   $0x0,-0xd0(%rbp)
    4e3f:	00 00 00 
    4e42:	eb 1b                	jmp    4e5f <func_2+0x110>
    4e44:	8b 85 30 ff ff ff    	mov    -0xd0(%rbp),%eax
    4e4a:	48 98                	cltq   
    4e4c:	48 8d 15 58 ab 00 00 	lea    0xab58(%rip),%rdx        # f9ab <g_467+0xeb>
    4e53:	48 89 54 c5 98       	mov    %rdx,-0x68(%rbp,%rax,8)
    4e58:	83 85 30 ff ff ff 01 	addl   $0x1,-0xd0(%rbp)
    4e5f:	83 bd 30 ff ff ff 00 	cmpl   $0x0,-0xd0(%rbp)
    4e66:	7e dc                	jle    4e44 <func_2+0xf5>
    4e68:	8b 85 28 ff ff ff    	mov    -0xd8(%rbp),%eax
    4e6e:	83 c0 01             	add    $0x1,%eax
    4e71:	89 85 28 ff ff ff    	mov    %eax,-0xd8(%rbp)
    4e77:	48 8b 85 48 ff ff ff 	mov    -0xb8(%rbp),%rax
    4e7e:	8b 00                	mov    (%rax),%eax
    4e80:	48 63 d8             	movslq %eax,%rbx
    4e83:	8b 85 14 ff ff ff    	mov    -0xec(%rbp),%eax
    4e89:	44 0f b6 e0          	movzbl %al,%r12d
    4e8d:	48 8b 05 cc cf 00 00 	mov    0xcfcc(%rip),%rax        # 11e60 <g_158>
    4e94:	48 8d 95 28 ff ff ff 	lea    -0xd8(%rbp),%rdx
    4e9b:	48 89 10             	mov    %rdx,(%rax)
    4e9e:	48 8b 05 c3 c2 00 00 	mov    0xc2c3(%rip),%rax        # 11168 <g_793+0x88>
    4ea5:	0f b7 05 a5 a9 00 00 	movzwl 0xa9a5(%rip),%eax        # f851 <g_464+0x1>
    4eac:	44 0f b7 e8          	movzwl %ax,%r13d
    4eb0:	48 8b 05 91 cf 00 00 	mov    0xcf91(%rip),%rax        # 11e48 <g_141>
    4eb7:	48 8b 00             	mov    (%rax),%rax
    4eba:	48 8b 00             	mov    (%rax),%rax
    4ebd:	49 89 c6             	mov    %rax,%r14
    4ec0:	8b 85 14 ff ff ff    	mov    -0xec(%rbp),%eax
    4ec6:	41 89 c7             	mov    %eax,%r15d
    4ec9:	48 8b 85 48 ff ff ff 	mov    -0xb8(%rbp),%rax
    4ed0:	8b 00                	mov    (%rax),%eax
    4ed2:	48 63 d0             	movslq %eax,%rdx
    4ed5:	48 8b 85 58 ff ff ff 	mov    -0xa8(%rbp),%rax
    4edc:	0f b6 00             	movzbl (%rax),%eax
    4edf:	89 c1                	mov    %eax,%ecx
    4ee1:	8b 85 14 ff ff ff    	mov    -0xec(%rbp),%eax
    4ee7:	85 c0                	test   %eax,%eax
    4ee9:	0f 95 c0             	setne  %al
    4eec:	09 c8                	or     %ecx,%eax
    4eee:	89 c1                	mov    %eax,%ecx
    4ef0:	48 8b 85 58 ff ff ff 	mov    -0xa8(%rbp),%rax
    4ef7:	88 08                	mov    %cl,(%rax)
    4ef9:	8b 85 14 ff ff ff    	mov    -0xec(%rbp),%eax
    4eff:	85 c0                	test   %eax,%eax
    4f01:	75 10                	jne    4f13 <func_2+0x1c4>
    4f03:	48 8b 05 56 cf 00 00 	mov    0xcf56(%rip),%rax        # 11e60 <g_158>
    4f0a:	48 8b 00             	mov    (%rax),%rax
    4f0d:	8b 00                	mov    (%rax),%eax
    4f0f:	85 c0                	test   %eax,%eax
    4f11:	74 07                	je     4f1a <func_2+0x1cb>
    4f13:	b8 01 00 00 00       	mov    $0x1,%eax
    4f18:	eb 05                	jmp    4f1f <func_2+0x1d0>
    4f1a:	b8 00 00 00 00       	mov    $0x0,%eax
    4f1f:	48 98                	cltq   
    4f21:	48 89 d6             	mov    %rdx,%rsi
    4f24:	48 89 c7             	mov    %rax,%rdi
    4f27:	e8 cb ea ff ff       	callq  39f7 <safe_div_func_int64_t_s_s>
    4f2c:	48 8b 15 dd a1 00 00 	mov    0xa1dd(%rip),%rdx        # f110 <g_67>
    4f33:	81 e2 ff ff ff 3f    	and    $0x3fffffff,%edx
    4f39:	89 d2                	mov    %edx,%edx
    4f3b:	48 39 d0             	cmp    %rdx,%rax
    4f3e:	0f 9f c0             	setg   %al
    4f41:	0f b6 c0             	movzbl %al,%eax
    4f44:	be df b2 00 00       	mov    $0xb2df,%esi
    4f49:	89 c7                	mov    %eax,%edi
    4f4b:	e8 cf ed ff ff       	callq  3d1f <safe_sub_func_uint16_t_u_u>
    4f50:	0f b7 c0             	movzwl %ax,%eax
    4f53:	48 ba 94 5a 51 63 fc 	movabs $0xa6d4a3fc63515a94,%rdx
    4f5a:	a3 d4 a6 
    4f5d:	48 21 d0             	and    %rdx,%rax
    4f60:	4c 89 fe             	mov    %r15,%rsi
    4f63:	48 89 c7             	mov    %rax,%rdi
    4f66:	e8 8c ea ff ff       	callq  39f7 <safe_div_func_int64_t_s_s>
    4f6b:	0f b7 c0             	movzwl %ax,%eax
    4f6e:	be f7 ff 00 00       	mov    $0xfff7,%esi
    4f73:	89 c7                	mov    %eax,%edi
    4f75:	e8 c3 ed ff ff       	callq  3d3d <safe_mul_func_uint16_t_u_u>
    4f7a:	66 85 c0             	test   %ax,%ax
    4f7d:	74 13                	je     4f92 <func_2+0x243>
    4f7f:	0f b7 05 2b ad 00 00 	movzwl 0xad2b(%rip),%eax        # fcb1 <g_473+0x1>
    4f86:	66 85 c0             	test   %ax,%ax
    4f89:	74 07                	je     4f92 <func_2+0x243>
    4f8b:	b8 01 00 00 00       	mov    $0x1,%eax
    4f90:	eb 05                	jmp    4f97 <func_2+0x248>
    4f92:	b8 00 00 00 00       	mov    $0x0,%eax
    4f97:	48 98                	cltq   
    4f99:	4c 89 f6             	mov    %r14,%rsi
    4f9c:	48 89 c7             	mov    %rax,%rdi
    4f9f:	e8 04 e9 ff ff       	callq  38a8 <safe_sub_func_int64_t_s_s>
    4fa4:	48 8b 15 ad ce 00 00 	mov    0xcead(%rip),%rdx        # 11e58 <g_159>
    4fab:	8b 12                	mov    (%rdx),%edx
    4fad:	89 d2                	mov    %edx,%edx
    4faf:	48 09 c2             	or     %rax,%rdx
    4fb2:	48 8b 05 8f ce 00 00 	mov    0xce8f(%rip),%rax        # 11e48 <g_141>
    4fb9:	48 8b 00             	mov    (%rax),%rax
    4fbc:	48 8b 00             	mov    (%rax),%rax
    4fbf:	48 39 c2             	cmp    %rax,%rdx
    4fc2:	74 08                	je     4fcc <func_2+0x27d>
    4fc4:	8b 85 14 ff ff ff    	mov    -0xec(%rbp),%eax
    4fca:	85 c0                	test   %eax,%eax
    4fcc:	4c 89 ee             	mov    %r13,%rsi
    4fcf:	48 bf f7 6c 85 83 ce 	movabs $0xfd7355ce83856cf7,%rdi
    4fd6:	55 73 fd 
    4fd9:	e8 50 f0 ff ff       	callq  402e <safe_add_func_uint64_t_u_u>
    4fde:	48 8b 15 63 ce 00 00 	mov    0xce63(%rip),%rdx        # 11e48 <g_141>
    4fe5:	48 8b 12             	mov    (%rdx),%rdx
    4fe8:	48 8b 12             	mov    (%rdx),%rdx
    4feb:	48 39 d0             	cmp    %rdx,%rax
    4fee:	0f 93 c0             	setae  %al
    4ff1:	0f b6 d0             	movzbl %al,%edx
    4ff4:	8b 05 ed a7 00 00    	mov    0xa7ed(%rip),%eax        # f7e7 <g_455+0x7>
    4ffa:	39 c2                	cmp    %eax,%edx
    4ffc:	0f 9c c0             	setl   %al
    4fff:	0f b6 d0             	movzbl %al,%edx
    5002:	48 8b 85 60 ff ff ff 	mov    -0xa0(%rbp),%rax
    5009:	66 89 10             	mov    %dx,(%rax)
    500c:	48 8b 85 60 ff ff ff 	mov    -0xa0(%rbp),%rax
    5013:	0f b7 00             	movzwl (%rax),%eax
    5016:	0f b7 d0             	movzwl %ax,%edx
    5019:	8b 85 14 ff ff ff    	mov    -0xec(%rbp),%eax
    501f:	39 c2                	cmp    %eax,%edx
    5021:	0f 97 c0             	seta   %al
    5024:	0f b6 c0             	movzbl %al,%eax
    5027:	44 89 e6             	mov    %r12d,%esi
    502a:	89 c7                	mov    %eax,%edi
    502c:	e8 62 eb ff ff       	callq  3b93 <safe_mul_func_uint8_t_u_u>
    5031:	89 c2                	mov    %eax,%edx
    5033:	48 8b 85 68 ff ff ff 	mov    -0x98(%rbp),%rax
    503a:	88 10                	mov    %dl,(%rax)
    503c:	48 8b 85 68 ff ff ff 	mov    -0x98(%rbp),%rax
    5043:	0f b6 00             	movzbl (%rax),%eax
    5046:	0f be c0             	movsbl %al,%eax
    5049:	33 85 2c ff ff ff    	xor    -0xd4(%rbp),%eax
    504f:	89 c2                	mov    %eax,%edx
    5051:	8b 85 14 ff ff ff    	mov    -0xec(%rbp),%eax
    5057:	39 c2                	cmp    %eax,%edx
    5059:	0f 96 c0             	setbe  %al
    505c:	0f b6 c0             	movzbl %al,%eax
    505f:	be 05 00 00 00       	mov    $0x5,%esi
    5064:	89 c7                	mov    %eax,%edi
    5066:	e8 76 e4 ff ff       	callq  34e1 <safe_lshift_func_int16_t_s_u>
    506b:	98                   	cwtl   
    506c:	89 c7                	mov    %eax,%edi
    506e:	e8 23 e5 ff ff       	callq  3596 <safe_unary_minus_func_int32_t_s>
    5073:	48 98                	cltq   
    5075:	48 89 de             	mov    %rbx,%rsi
    5078:	48 89 c7             	mov    %rax,%rdi
    507b:	e8 ae ef ff ff       	callq  402e <safe_add_func_uint64_t_u_u>
    5080:	48 89 c2             	mov    %rax,%rdx
    5083:	48 8b 05 76 cd 00 00 	mov    0xcd76(%rip),%rax        # 11e00 <g_19>
    508a:	89 10                	mov    %edx,(%rax)
    508c:	c7 85 2c ff ff ff 00 	movl   $0x0,-0xd4(%rbp)
    5093:	00 00 00 
    5096:	e9 28 02 00 00       	jmpq   52c3 <func_2+0x574>
    509b:	c6 85 27 ff ff ff ff 	movb   $0xff,-0xd9(%rbp)
    50a2:	c7 05 ab a7 00 00 00 	movl   $0x0,0xa7ab(%rip)        # f857 <g_464+0x7>
    50a9:	00 00 00 
    50ac:	e9 e5 01 00 00       	jmpq   5296 <func_2+0x547>
    50b1:	c7 85 38 ff ff ff ff 	movl   $0xffffffff,-0xc8(%rbp)
    50b8:	ff ff ff 
    50bb:	48 c7 05 95 a6 00 00 	movq   $0xfffffffffffffffe,0xa695(%rip)        # f75b <g_430+0xb>
    50c2:	fe ff ff ff 
    50c6:	e9 ab 01 00 00       	jmpq   5276 <func_2+0x527>
    50cb:	48 b8 a6 ee 72 42 9f 	movabs $0x7cc4669f4272eea6,%rax
    50d2:	66 c4 7c 
    50d5:	48 89 45 80          	mov    %rax,-0x80(%rbp)
    50d9:	c7 85 3c ff ff ff 00 	movl   $0x0,-0xc4(%rbp)
    50e0:	00 00 00 
    50e3:	8b 85 14 ff ff ff    	mov    -0xec(%rbp),%eax
    50e9:	89 c2                	mov    %eax,%edx
    50eb:	48 8b 85 48 ff ff ff 	mov    -0xb8(%rbp),%rax
    50f2:	89 10                	mov    %edx,(%rax)
    50f4:	48 c7 05 7c a7 00 00 	movq   $0x0,0xa77c(%rip)        # f87b <g_465+0xb>
    50fb:	00 00 00 00 
    50ff:	e9 ba 00 00 00       	jmpq   51be <func_2+0x46f>
    5104:	c7 85 40 ff ff ff 00 	movl   $0x0,-0xc0(%rbp)
    510b:	00 00 00 
    510e:	48 8d 05 d2 a6 00 00 	lea    0xa6d2(%rip),%rax        # f7e7 <g_455+0x7>
    5115:	48 89 45 88          	mov    %rax,-0x78(%rbp)
    5119:	48 8b 15 ab a6 00 00 	mov    0xa6ab(%rip),%rdx        # f7cb <g_452+0xb>
    5120:	48 8b 85 70 ff ff ff 	mov    -0x90(%rbp),%rax
    5127:	48 89 10             	mov    %rdx,(%rax)
    512a:	ba 01 00 00 00       	mov    $0x1,%edx
    512f:	48 8b 85 68 ff ff ff 	mov    -0x98(%rbp),%rax
    5136:	0f b6 00             	movzbl (%rax),%eax
    5139:	21 c2                	and    %eax,%edx
    513b:	48 8b 85 68 ff ff ff 	mov    -0x98(%rbp),%rax
    5142:	88 10                	mov    %dl,(%rax)
    5144:	48 8b 85 68 ff ff ff 	mov    -0x98(%rbp),%rax
    514b:	0f b6 00             	movzbl (%rax),%eax
    514e:	0f be c0             	movsbl %al,%eax
    5151:	be 07 00 00 00       	mov    $0x7,%esi
    5156:	89 c7                	mov    %eax,%edi
    5158:	e8 91 e1 ff ff       	callq  32ee <safe_lshift_func_int8_t_s_u>
    515d:	0f be d0             	movsbl %al,%edx
    5160:	48 8b 05 f1 cc 00 00 	mov    0xccf1(%rip),%rax        # 11e58 <g_159>
    5167:	8b 08                	mov    (%rax),%ecx
    5169:	83 c1 01             	add    $0x1,%ecx
    516c:	89 08                	mov    %ecx,(%rax)
    516e:	8b 00                	mov    (%rax),%eax
    5170:	39 c2                	cmp    %eax,%edx
    5172:	77 19                	ja     518d <func_2+0x43e>
    5174:	48 8b 05 85 cc 00 00 	mov    0xcc85(%rip),%rax        # 11e00 <g_19>
    517b:	8b 00                	mov    (%rax),%eax
    517d:	85 c0                	test   %eax,%eax
    517f:	75 50                	jne    51d1 <func_2+0x482>
    5181:	48 8d 05 f1 9e 00 00 	lea    0x9ef1(%rip),%rax        # f079 <g_7+0x39>
    5188:	e9 4a 01 00 00       	jmpq   52d7 <func_2+0x588>
    518d:	83 ad 40 ff ff ff 01 	subl   $0x1,-0xc0(%rbp)
    5194:	48 83 7d 80 00       	cmpq   $0x0,-0x80(%rbp)
    5199:	75 10                	jne    51ab <func_2+0x45c>
    519b:	48 8b 05 6e cc 00 00 	mov    0xcc6e(%rip),%rax        # 11e10 <g_50>
    51a2:	48 8b 55 88          	mov    -0x78(%rbp),%rdx
    51a6:	48 89 10             	mov    %rdx,(%rax)
    51a9:	eb 01                	jmp    51ac <func_2+0x45d>
    51ab:	90                   	nop
    51ac:	48 8b 05 c8 a6 00 00 	mov    0xa6c8(%rip),%rax        # f87b <g_465+0xb>
    51b3:	48 83 c0 01          	add    $0x1,%rax
    51b7:	48 89 05 bd a6 00 00 	mov    %rax,0xa6bd(%rip)        # f87b <g_465+0xb>
    51be:	48 8b 05 b6 a6 00 00 	mov    0xa6b6(%rip),%rax        # f87b <g_465+0xb>
    51c5:	48 83 f8 06          	cmp    $0x6,%rax
    51c9:	0f 8e 35 ff ff ff    	jle    5104 <func_2+0x3b5>
    51cf:	eb 01                	jmp    51d2 <func_2+0x483>
    51d1:	90                   	nop
    51d2:	83 bd 38 ff ff ff 00 	cmpl   $0x0,-0xc8(%rbp)
    51d9:	0f 85 84 00 00 00    	jne    5263 <func_2+0x514>
    51df:	c6 05 3b a5 00 00 02 	movb   $0x2,0xa53b(%rip)        # f721 <g_386>
    51e6:	eb 6e                	jmp    5256 <func_2+0x507>
    51e8:	48 c7 45 90 f9 ff ff 	movq   $0xfffffffffffffff9,-0x70(%rbp)
    51ef:	ff 
    51f0:	c7 85 44 ff ff ff b2 	movl   $0x86decfb2,-0xbc(%rbp)
    51f7:	cf de 86 
    51fa:	8b 45 ac             	mov    -0x54(%rbp),%eax
    51fd:	83 c0 01             	add    $0x1,%eax
    5200:	89 45 ac             	mov    %eax,-0x54(%rbp)
    5203:	66 c7 05 a5 aa 00 00 	movw   $0x1,0xaaa5(%rip)        # fcb1 <g_473+0x1>
    520a:	01 00 
    520c:	eb 24                	jmp    5232 <func_2+0x4e3>
    520e:	0f b6 05 cb a5 00 00 	movzbl 0xa5cb(%rip),%eax        # f7e0 <g_455>
    5215:	83 e0 03             	and    $0x3,%eax
    5218:	84 c0                	test   %al,%al
    521a:	74 05                	je     5221 <func_2+0x4d2>
    521c:	e9 56 fc ff ff       	jmpq   4e77 <func_2+0x128>
    5221:	0f b7 05 89 aa 00 00 	movzwl 0xaa89(%rip),%eax        # fcb1 <g_473+0x1>
    5228:	83 c0 01             	add    $0x1,%eax
    522b:	66 89 05 7f aa 00 00 	mov    %ax,0xaa7f(%rip)        # fcb1 <g_473+0x1>
    5232:	0f b7 05 78 aa 00 00 	movzwl 0xaa78(%rip),%eax        # fcb1 <g_473+0x1>
    5239:	66 83 f8 06          	cmp    $0x6,%ax
    523d:	76 cf                	jbe    520e <func_2+0x4bf>
    523f:	80 ad 27 ff ff ff 01 	subb   $0x1,-0xd9(%rbp)
    5246:	0f b6 05 d4 a4 00 00 	movzbl 0xa4d4(%rip),%eax        # f721 <g_386>
    524d:	83 c0 01             	add    $0x1,%eax
    5250:	88 05 cb a4 00 00    	mov    %al,0xa4cb(%rip)        # f721 <g_386>
    5256:	0f b6 05 c4 a4 00 00 	movzbl 0xa4c4(%rip),%eax        # f721 <g_386>
    525d:	3c 06                	cmp    $0x6,%al
    525f:	76 87                	jbe    51e8 <func_2+0x499>
    5261:	eb 01                	jmp    5264 <func_2+0x515>
    5263:	90                   	nop
    5264:	48 8b 05 f0 a4 00 00 	mov    0xa4f0(%rip),%rax        # f75b <g_430+0xb>
    526b:	48 83 c0 01          	add    $0x1,%rax
    526f:	48 89 05 e5 a4 00 00 	mov    %rax,0xa4e5(%rip)        # f75b <g_430+0xb>
    5276:	48 8b 05 de a4 00 00 	mov    0xa4de(%rip),%rax        # f75b <g_430+0xb>
    527d:	48 83 f8 0e          	cmp    $0xe,%rax
    5281:	0f 85 44 fe ff ff    	jne    50cb <func_2+0x37c>
    5287:	8b 05 ca a5 00 00    	mov    0xa5ca(%rip),%eax        # f857 <g_464+0x7>
    528d:	83 c0 01             	add    $0x1,%eax
    5290:	89 05 c1 a5 00 00    	mov    %eax,0xa5c1(%rip)        # f857 <g_464+0x7>
    5296:	8b 05 bb a5 00 00    	mov    0xa5bb(%rip),%eax        # f857 <g_464+0x7>
    529c:	83 f8 10             	cmp    $0x10,%eax
    529f:	0f 8f 0c fe ff ff    	jg     50b1 <func_2+0x362>
    52a5:	8b 85 2c ff ff ff    	mov    -0xd4(%rbp),%eax
    52ab:	0f b6 c0             	movzbl %al,%eax
    52ae:	be 01 00 00 00       	mov    $0x1,%esi
    52b3:	89 c7                	mov    %eax,%edi
    52b5:	e8 a0 e8 ff ff       	callq  3b5a <safe_add_func_uint8_t_u_u>
    52ba:	0f b6 c0             	movzbl %al,%eax
    52bd:	89 85 2c ff ff ff    	mov    %eax,-0xd4(%rbp)
    52c3:	83 bd 2c ff ff ff 0d 	cmpl   $0xd,-0xd4(%rbp)
    52ca:	0f 85 cb fd ff ff    	jne    509b <func_2+0x34c>
    52d0:	48 8d 05 5a a8 00 00 	lea    0xa85a(%rip),%rax        # fb31 <g_469+0xd1>
    52d7:	48 8b 5d c8          	mov    -0x38(%rbp),%rbx
    52db:	64 48 33 1c 25 28 00 	xor    %fs:0x28,%rbx
    52e2:	00 00 
    52e4:	74 05                	je     52eb <func_2+0x59c>
    52e6:	e8 85 dd ff ff       	callq  3070 <__stack_chk_fail@plt>
    52eb:	48 81 c4 d8 00 00 00 	add    $0xd8,%rsp
    52f2:	5b                   	pop    %rbx
    52f3:	41 5c                	pop    %r12
    52f5:	41 5d                	pop    %r13
    52f7:	41 5e                	pop    %r14
    52f9:	41 5f                	pop    %r15
    52fb:	5d                   	pop    %rbp
    52fc:	c3                   	retq   

00000000000052fd <func_8>:
    52fd:	f3 0f 1e fa          	endbr64 
    5301:	55                   	push   %rbp
    5302:	48 89 e5             	mov    %rsp,%rbp
    5305:	41 55                	push   %r13
    5307:	41 54                	push   %r12
    5309:	53                   	push   %rbx
    530a:	48 81 ec 48 0b 00 00 	sub    $0xb48,%rsp
    5311:	89 bd cc f4 ff ff    	mov    %edi,-0xb34(%rbp)
    5317:	48 89 b5 c0 f4 ff ff 	mov    %rsi,-0xb40(%rbp)
    531e:	64 48 8b 04 25 28 00 	mov    %fs:0x28,%rax
    5325:	00 00 
    5327:	48 89 45 d8          	mov    %rax,-0x28(%rbp)
    532b:	31 c0                	xor    %eax,%eax
    532d:	48 b8 53 ac 7c 3c c1 	movabs $0xc29d85c13c7cac53,%rax
    5334:	85 9d c2 
    5337:	48 89 85 a0 f5 ff ff 	mov    %rax,-0xa60(%rbp)
    533e:	c7 85 0c f5 ff ff ca 	movl   $0x2b307cca,-0xaf4(%rbp)
    5345:	7c 30 2b 
    5348:	c7 85 10 f5 ff ff 00 	movl   $0x0,-0xaf0(%rbp)
    534f:	00 00 00 
    5352:	c7 85 e0 f6 ff ff fb 	movl   $0xfffffffb,-0x920(%rbp)
    5359:	ff ff ff 
    535c:	c7 85 e4 f6 ff ff 00 	movl   $0x0,-0x91c(%rbp)
    5363:	00 00 00 
    5366:	c7 85 e8 f6 ff ff fb 	movl   $0xfffffffb,-0x918(%rbp)
    536d:	ff ff ff 
    5370:	c7 85 ec f6 ff ff 00 	movl   $0x0,-0x914(%rbp)
    5377:	00 00 00 
    537a:	c7 85 f0 f6 ff ff fb 	movl   $0xfffffffb,-0x910(%rbp)
    5381:	ff ff ff 
    5384:	c7 85 f4 f6 ff ff 00 	movl   $0x0,-0x90c(%rbp)
    538b:	00 00 00 
    538e:	c7 85 f8 f6 ff ff fb 	movl   $0xfffffffb,-0x908(%rbp)
    5395:	ff ff ff 
    5398:	c7 85 fc f6 ff ff 00 	movl   $0x0,-0x904(%rbp)
    539f:	00 00 00 
    53a2:	c7 85 00 f7 ff ff fb 	movl   $0xfffffffb,-0x900(%rbp)
    53a9:	ff ff ff 
    53ac:	c7 85 14 f5 ff ff fb 	movl   $0xfffffffb,-0xaec(%rbp)
    53b3:	ff ff ff 
    53b6:	48 c7 85 a8 f5 ff ff 	movq   $0x0,-0xa58(%rbp)
    53bd:	00 00 00 00 
    53c1:	48 8d 05 d0 9f 00 00 	lea    0x9fd0(%rip),%rax        # f398 <g_166>
    53c8:	48 89 85 78 f5 ff ff 	mov    %rax,-0xa88(%rbp)
    53cf:	48 c7 85 80 f5 ff ff 	movq   $0x0,-0xa80(%rbp)
    53d6:	00 00 00 00 
    53da:	48 8d 85 80 f5 ff ff 	lea    -0xa80(%rbp),%rax
    53e1:	48 89 85 40 f9 ff ff 	mov    %rax,-0x6c0(%rbp)
    53e8:	48 8d 85 80 f5 ff ff 	lea    -0xa80(%rbp),%rax
    53ef:	48 89 85 48 f9 ff ff 	mov    %rax,-0x6b8(%rbp)
    53f6:	48 8d 85 80 f5 ff ff 	lea    -0xa80(%rbp),%rax
    53fd:	48 89 85 50 f9 ff ff 	mov    %rax,-0x6b0(%rbp)
    5404:	48 8d 85 80 f5 ff ff 	lea    -0xa80(%rbp),%rax
    540b:	48 89 85 58 f9 ff ff 	mov    %rax,-0x6a8(%rbp)
    5412:	48 8d 85 80 f5 ff ff 	lea    -0xa80(%rbp),%rax
    5419:	48 89 85 60 f9 ff ff 	mov    %rax,-0x6a0(%rbp)
    5420:	48 8d 85 80 f5 ff ff 	lea    -0xa80(%rbp),%rax
    5427:	48 89 85 68 f9 ff ff 	mov    %rax,-0x698(%rbp)
    542e:	48 8d 85 80 f5 ff ff 	lea    -0xa80(%rbp),%rax
    5435:	48 89 85 70 f9 ff ff 	mov    %rax,-0x690(%rbp)
    543c:	48 8d 85 80 f5 ff ff 	lea    -0xa80(%rbp),%rax
    5443:	48 89 85 78 f9 ff ff 	mov    %rax,-0x688(%rbp)
    544a:	48 8d 85 80 f5 ff ff 	lea    -0xa80(%rbp),%rax
    5451:	48 89 85 80 f9 ff ff 	mov    %rax,-0x680(%rbp)
    5458:	48 8d 85 80 f5 ff ff 	lea    -0xa80(%rbp),%rax
    545f:	48 89 85 88 f9 ff ff 	mov    %rax,-0x678(%rbp)
    5466:	48 8d 85 80 f5 ff ff 	lea    -0xa80(%rbp),%rax
    546d:	48 89 85 90 f9 ff ff 	mov    %rax,-0x670(%rbp)
    5474:	48 8d 85 80 f5 ff ff 	lea    -0xa80(%rbp),%rax
    547b:	48 89 85 98 f9 ff ff 	mov    %rax,-0x668(%rbp)
    5482:	48 8d 85 80 f5 ff ff 	lea    -0xa80(%rbp),%rax
    5489:	48 89 85 a0 f9 ff ff 	mov    %rax,-0x660(%rbp)
    5490:	48 8d 85 80 f5 ff ff 	lea    -0xa80(%rbp),%rax
    5497:	48 89 85 a8 f9 ff ff 	mov    %rax,-0x658(%rbp)
    549e:	48 8d 85 80 f5 ff ff 	lea    -0xa80(%rbp),%rax
    54a5:	48 89 85 b0 f9 ff ff 	mov    %rax,-0x650(%rbp)
    54ac:	48 8d 85 80 f5 ff ff 	lea    -0xa80(%rbp),%rax
    54b3:	48 89 85 b8 f9 ff ff 	mov    %rax,-0x648(%rbp)
    54ba:	48 8d 85 80 f5 ff ff 	lea    -0xa80(%rbp),%rax
    54c1:	48 89 85 c0 f9 ff ff 	mov    %rax,-0x640(%rbp)
    54c8:	48 8d 85 80 f5 ff ff 	lea    -0xa80(%rbp),%rax
    54cf:	48 89 85 c8 f9 ff ff 	mov    %rax,-0x638(%rbp)
    54d6:	48 8d 85 80 f5 ff ff 	lea    -0xa80(%rbp),%rax
    54dd:	48 89 85 d0 f9 ff ff 	mov    %rax,-0x630(%rbp)
    54e4:	48 8d 85 80 f5 ff ff 	lea    -0xa80(%rbp),%rax
    54eb:	48 89 85 d8 f9 ff ff 	mov    %rax,-0x628(%rbp)
    54f2:	48 8d 85 80 f5 ff ff 	lea    -0xa80(%rbp),%rax
    54f9:	48 89 85 e0 f9 ff ff 	mov    %rax,-0x620(%rbp)
    5500:	48 8d 85 80 f5 ff ff 	lea    -0xa80(%rbp),%rax
    5507:	48 89 85 e8 f9 ff ff 	mov    %rax,-0x618(%rbp)
    550e:	48 8d 85 80 f5 ff ff 	lea    -0xa80(%rbp),%rax
    5515:	48 89 85 f0 f9 ff ff 	mov    %rax,-0x610(%rbp)
    551c:	48 8d 85 80 f5 ff ff 	lea    -0xa80(%rbp),%rax
    5523:	48 89 85 f8 f9 ff ff 	mov    %rax,-0x608(%rbp)
    552a:	48 8d 85 80 f5 ff ff 	lea    -0xa80(%rbp),%rax
    5531:	48 89 85 00 fa ff ff 	mov    %rax,-0x600(%rbp)
    5538:	48 8d 85 80 f5 ff ff 	lea    -0xa80(%rbp),%rax
    553f:	48 89 85 08 fa ff ff 	mov    %rax,-0x5f8(%rbp)
    5546:	48 8d 85 80 f5 ff ff 	lea    -0xa80(%rbp),%rax
    554d:	48 89 85 10 fa ff ff 	mov    %rax,-0x5f0(%rbp)
    5554:	8b 85 cc f4 ff ff    	mov    -0xb34(%rbp),%eax
    555a:	85 c0                	test   %eax,%eax
    555c:	0f 84 e5 01 00 00    	je     5747 <func_8+0x44a>
    5562:	c7 85 58 f5 ff ff 02 	movl   $0x2,-0xaa8(%rbp)
    5569:	00 00 00 
    556c:	48 c7 85 a0 f6 ff ff 	movq   $0x0,-0x960(%rbp)
    5573:	00 00 00 00 
    5577:	c7 85 5c f5 ff ff 56 	movl   $0xfa618256,-0xaa4(%rbp)
    557e:	82 61 fa 
    5581:	c7 85 60 f5 ff ff 08 	movl   $0x8,-0xaa0(%rbp)
    5588:	00 00 00 
    558b:	c7 85 64 f5 ff ff 01 	movl   $0x1,-0xa9c(%rbp)
    5592:	00 00 00 
    5595:	c7 85 68 f5 ff ff ff 	movl   $0xffffffff,-0xa98(%rbp)
    559c:	ff ff ff 
    559f:	c7 85 f0 f4 ff ff 00 	movl   $0x0,-0xb10(%rbp)
    55a6:	00 00 00 
    55a9:	eb 1e                	jmp    55c9 <func_8+0x2cc>
    55ab:	8b 85 f0 f4 ff ff    	mov    -0xb10(%rbp),%eax
    55b1:	48 98                	cltq   
    55b3:	48 8d 15 06 c9 00 00 	lea    0xc906(%rip),%rdx        # 11ec0 <g_276>
    55ba:	48 89 94 c5 20 fa ff 	mov    %rdx,-0x5e0(%rbp,%rax,8)
    55c1:	ff 
    55c2:	83 85 f0 f4 ff ff 01 	addl   $0x1,-0xb10(%rbp)
    55c9:	83 bd f0 f4 ff ff 05 	cmpl   $0x5,-0xb10(%rbp)
    55d0:	7e d9                	jle    55ab <func_8+0x2ae>
    55d2:	c7 85 f0 f4 ff ff 00 	movl   $0x0,-0xb10(%rbp)
    55d9:	00 00 00 
    55dc:	eb 4d                	jmp    562b <func_8+0x32e>
    55de:	c7 85 f4 f4 ff ff 00 	movl   $0x0,-0xb0c(%rbp)
    55e5:	00 00 00 
    55e8:	eb 31                	jmp    561b <func_8+0x31e>
    55ea:	8b 85 f4 f4 ff ff    	mov    -0xb0c(%rbp),%eax
    55f0:	48 63 c8             	movslq %eax,%rcx
    55f3:	8b 85 f0 f4 ff ff    	mov    -0xb10(%rbp),%eax
    55f9:	48 63 d0             	movslq %eax,%rdx
    55fc:	48 89 d0             	mov    %rdx,%rax
    55ff:	48 c1 e0 03          	shl    $0x3,%rax
    5603:	48 01 d0             	add    %rdx,%rax
    5606:	48 01 c8             	add    %rcx,%rax
    5609:	c7 84 85 70 fb ff ff 	movl   $0xfffffffa,-0x490(%rbp,%rax,4)
    5610:	fa ff ff ff 
    5614:	83 85 f4 f4 ff ff 01 	addl   $0x1,-0xb0c(%rbp)
    561b:	83 bd f4 f4 ff ff 08 	cmpl   $0x8,-0xb0c(%rbp)
    5622:	7e c6                	jle    55ea <func_8+0x2ed>
    5624:	83 85 f0 f4 ff ff 01 	addl   $0x1,-0xb10(%rbp)
    562b:	83 bd f0 f4 ff ff 05 	cmpl   $0x5,-0xb10(%rbp)
    5632:	7e aa                	jle    55de <func_8+0x2e1>
    5634:	c7 85 cc f4 ff ff ee 	movl   $0xffffffee,-0xb34(%rbp)
    563b:	ff ff ff 
    563e:	e9 c3 00 00 00       	jmpq   5706 <func_8+0x409>
    5643:	66 c7 85 da f4 ff ff 	movw   $0xb615,-0xb26(%rbp)
    564a:	15 b6 
    564c:	48 b8 22 dc 3b 18 3e 	movabs $0xb7b5c23e183bdc22,%rax
    5653:	c2 b5 b7 
    5656:	48 89 85 a8 f6 ff ff 	mov    %rax,-0x958(%rbp)
    565d:	48 c7 85 b0 f6 ff ff 	movq   $0x0,-0x950(%rbp)
    5664:	00 00 00 00 
    5668:	c7 85 6c f5 ff ff eb 	movl   $0xe0d4b2eb,-0xa94(%rbp)
    566f:	b2 d4 e0 
    5672:	c7 85 70 f5 ff ff ff 	movl   $0xffffffff,-0xa90(%rbp)
    5679:	ff ff ff 
    567c:	c7 85 74 f5 ff ff 80 	movl   $0x232dd780,-0xa8c(%rbp)
    5683:	d7 2d 23 
    5686:	c7 85 f8 f4 ff ff 00 	movl   $0x0,-0xb08(%rbp)
    568d:	00 00 00 
    5690:	eb 1e                	jmp    56b0 <func_8+0x3b3>
    5692:	8b 85 f8 f4 ff ff    	mov    -0xb08(%rbp),%eax
    5698:	48 98                	cltq   
    569a:	48 8d 15 80 a0 00 00 	lea    0xa080(%rip),%rdx        # f721 <g_386>
    56a1:	48 89 94 c5 20 f8 ff 	mov    %rdx,-0x7e0(%rbp,%rax,8)
    56a8:	ff 
    56a9:	83 85 f8 f4 ff ff 01 	addl   $0x1,-0xb08(%rbp)
    56b0:	83 bd f8 f4 ff ff 00 	cmpl   $0x0,-0xb08(%rbp)
    56b7:	7e d9                	jle    5692 <func_8+0x395>
    56b9:	c7 85 f8 f4 ff ff 00 	movl   $0x0,-0xb08(%rbp)
    56c0:	00 00 00 
    56c3:	eb 1a                	jmp    56df <func_8+0x3e2>
    56c5:	8b 85 f8 f4 ff ff    	mov    -0xb08(%rbp),%eax
    56cb:	48 98                	cltq   
    56cd:	c7 84 85 70 f8 ff ff 	movl   $0x3e81e945,-0x790(%rbp,%rax,4)
    56d4:	45 e9 81 3e 
    56d8:	83 85 f8 f4 ff ff 01 	addl   $0x1,-0xb08(%rbp)
    56df:	83 bd f8 f4 ff ff 02 	cmpl   $0x2,-0xb08(%rbp)
    56e6:	7e dd                	jle    56c5 <func_8+0x3c8>
    56e8:	8b 85 cc f4 ff ff    	mov    -0xb34(%rbp),%eax
    56ee:	0f be c0             	movsbl %al,%eax
    56f1:	be 01 00 00 00       	mov    $0x1,%esi
    56f6:	89 c7                	mov    %eax,%edi
    56f8:	e8 d7 da ff ff       	callq  31d4 <safe_add_func_int8_t_s_s>
    56fd:	0f be c0             	movsbl %al,%eax
    5700:	89 85 cc f4 ff ff    	mov    %eax,-0xb34(%rbp)
    5706:	8b 85 cc f4 ff ff    	mov    -0xb34(%rbp),%eax
    570c:	83 f8 1b             	cmp    $0x1b,%eax
    570f:	0f 85 2e ff ff ff    	jne    5643 <func_8+0x346>
    5715:	48 8b 05 f4 c6 00 00 	mov    0xc6f4(%rip),%rax        # 11e10 <g_50>
    571c:	48 8b 00             	mov    (%rax),%rax
    571f:	8b 08                	mov    (%rax),%ecx
    5721:	48 83 bd a8 f5 ff ff 	cmpq   $0x0,-0xa58(%rbp)
    5728:	00 
    5729:	0f 95 c2             	setne  %dl
    572c:	0f b6 d2             	movzbl %dl,%edx
    572f:	09 ca                	or     %ecx,%edx
    5731:	89 10                	mov    %edx,(%rax)
    5733:	48 8b 05 ce c6 00 00 	mov    0xc6ce(%rip),%rax        # 11e08 <g_51>
    573a:	8b 95 cc f4 ff ff    	mov    -0xb34(%rbp),%edx
    5740:	89 10                	mov    %edx,(%rax)
    5742:	e9 c6 1c 00 00       	jmpq   740d <func_8+0x2110>
    5747:	48 8d 05 d2 9f 00 00 	lea    0x9fd2(%rip),%rax        # f720 <g_384>
    574e:	48 89 85 80 f7 ff ff 	mov    %rax,-0x880(%rbp)
    5755:	48 8d 05 c4 9f 00 00 	lea    0x9fc4(%rip),%rax        # f720 <g_384>
    575c:	48 89 85 88 f7 ff ff 	mov    %rax,-0x878(%rbp)
    5763:	48 8d 05 b6 9f 00 00 	lea    0x9fb6(%rip),%rax        # f720 <g_384>
    576a:	48 89 85 90 f7 ff ff 	mov    %rax,-0x870(%rbp)
    5771:	48 8d 05 a8 9f 00 00 	lea    0x9fa8(%rip),%rax        # f720 <g_384>
    5778:	48 89 85 98 f7 ff ff 	mov    %rax,-0x868(%rbp)
    577f:	48 8d 05 9a 9f 00 00 	lea    0x9f9a(%rip),%rax        # f720 <g_384>
    5786:	48 89 85 a0 f7 ff ff 	mov    %rax,-0x860(%rbp)
    578d:	48 8d 05 8c 9f 00 00 	lea    0x9f8c(%rip),%rax        # f720 <g_384>
    5794:	48 89 85 a8 f7 ff ff 	mov    %rax,-0x858(%rbp)
    579b:	48 8d 05 7e 9f 00 00 	lea    0x9f7e(%rip),%rax        # f720 <g_384>
    57a2:	48 89 85 b0 f7 ff ff 	mov    %rax,-0x850(%rbp)
    57a9:	48 8d 05 70 9f 00 00 	lea    0x9f70(%rip),%rax        # f720 <g_384>
    57b0:	48 89 85 b8 f7 ff ff 	mov    %rax,-0x848(%rbp)
    57b7:	48 8d 05 62 9f 00 00 	lea    0x9f62(%rip),%rax        # f720 <g_384>
    57be:	48 89 85 c0 f7 ff ff 	mov    %rax,-0x840(%rbp)
    57c5:	48 8d 05 54 9f 00 00 	lea    0x9f54(%rip),%rax        # f720 <g_384>
    57cc:	48 89 85 c8 f7 ff ff 	mov    %rax,-0x838(%rbp)
    57d3:	c7 85 18 f5 ff ff ff 	movl   $0xffffffff,-0xae8(%rbp)
    57da:	ff ff ff 
    57dd:	48 8d 05 b4 9b 00 00 	lea    0x9bb4(%rip),%rax        # f398 <g_166>
    57e4:	48 89 85 10 f7 ff ff 	mov    %rax,-0x8f0(%rbp)
    57eb:	48 8d 05 a6 9b 00 00 	lea    0x9ba6(%rip),%rax        # f398 <g_166>
    57f2:	48 89 85 18 f7 ff ff 	mov    %rax,-0x8e8(%rbp)
    57f9:	48 8d 05 98 9b 00 00 	lea    0x9b98(%rip),%rax        # f398 <g_166>
    5800:	48 89 85 20 f7 ff ff 	mov    %rax,-0x8e0(%rbp)
    5807:	48 8d 05 8a 9b 00 00 	lea    0x9b8a(%rip),%rax        # f398 <g_166>
    580e:	48 89 85 28 f7 ff ff 	mov    %rax,-0x8d8(%rbp)
    5815:	48 8d 05 7c 9b 00 00 	lea    0x9b7c(%rip),%rax        # f398 <g_166>
    581c:	48 89 85 30 f7 ff ff 	mov    %rax,-0x8d0(%rbp)
    5823:	48 8d 05 6e 9b 00 00 	lea    0x9b6e(%rip),%rax        # f398 <g_166>
    582a:	48 89 85 38 f7 ff ff 	mov    %rax,-0x8c8(%rbp)
    5831:	48 8d 05 d0 c5 00 00 	lea    0xc5d0(%rip),%rax        # 11e08 <g_51>
    5838:	48 89 85 88 f5 ff ff 	mov    %rax,-0xa78(%rbp)
    583f:	48 c7 85 b0 f5 ff ff 	movq   $0x0,-0xa50(%rbp)
    5846:	00 00 00 00 
    584a:	48 8d 05 6f c6 00 00 	lea    0xc66f(%rip),%rax        # 11ec0 <g_276>
    5851:	48 89 85 b8 f5 ff ff 	mov    %rax,-0xa48(%rbp)
    5858:	48 8d 05 d9 c5 00 00 	lea    0xc5d9(%rip),%rax        # 11e38 <g_142+0x18>
    585f:	48 89 85 90 f5 ff ff 	mov    %rax,-0xa70(%rbp)
    5866:	48 8d 85 90 f5 ff ff 	lea    -0xa70(%rbp),%rax
    586d:	48 89 85 c0 f5 ff ff 	mov    %rax,-0xa40(%rbp)
    5874:	c6 85 d3 f4 ff ff 08 	movb   $0x8,-0xb2d(%rbp)
    587b:	c7 85 1c f5 ff ff ff 	movl   $0xffffffff,-0xae4(%rbp)
    5882:	ff ff ff 
    5885:	c7 85 20 f5 ff ff ff 	movl   $0xffffffff,-0xae0(%rbp)
    588c:	ff ff ff 
    588f:	c7 85 e4 f4 ff ff 00 	movl   $0x0,-0xb1c(%rbp)
    5896:	00 00 00 
    5899:	eb 1e                	jmp    58b9 <func_8+0x5bc>
    589b:	8b 85 e4 f4 ff ff    	mov    -0xb1c(%rbp),%eax
    58a1:	48 98                	cltq   
    58a3:	48 8d 95 88 f5 ff ff 	lea    -0xa78(%rbp),%rdx
    58aa:	48 89 94 c5 d0 f7 ff 	mov    %rdx,-0x830(%rbp,%rax,8)
    58b1:	ff 
    58b2:	83 85 e4 f4 ff ff 01 	addl   $0x1,-0xb1c(%rbp)
    58b9:	83 bd e4 f4 ff ff 09 	cmpl   $0x9,-0xb1c(%rbp)
    58c0:	7e d9                	jle    589b <func_8+0x59e>
    58c2:	48 8b 05 d2 9f 00 00 	mov    0x9fd2(%rip),%rax        # f89b <g_466+0xb>
    58c9:	89 85 18 f5 ff ff    	mov    %eax,-0xae8(%rbp)
    58cf:	48 8b 05 aa 9a 00 00 	mov    0x9aaa(%rip),%rax        # f380 <g_95>
    58d6:	48 c1 e8 20          	shr    $0x20,%rax
    58da:	25 ff ff 0f 00       	and    $0xfffff,%eax
    58df:	98                   	cwtl   
    58e0:	be fa ff ff ff       	mov    $0xfffffffa,%esi
    58e5:	89 c7                	mov    %eax,%edi
    58e7:	e8 c7 da ff ff       	callq  33b3 <safe_add_func_int16_t_s_s>
    58ec:	0f be c0             	movsbl %al,%eax
    58ef:	8b 95 18 f5 ff ff    	mov    -0xae8(%rbp),%edx
    58f5:	89 d6                	mov    %edx,%esi
    58f7:	89 c7                	mov    %eax,%edi
    58f9:	e8 37 da ff ff       	callq  3335 <safe_rshift_func_int8_t_s_s>
    58fe:	84 c0                	test   %al,%al
    5900:	74 17                	je     5919 <func_8+0x61c>
    5902:	90                   	nop
    5903:	48 8b 05 06 c5 00 00 	mov    0xc506(%rip),%rax        # 11e10 <g_50>
    590a:	48 8d 95 cc f4 ff ff 	lea    -0xb34(%rbp),%rdx
    5911:	48 89 10             	mov    %rdx,(%rax)
    5914:	e9 f9 09 00 00       	jmpq   6312 <func_8+0x1015>
    5919:	66 c7 85 20 fa ff ff 	movw   $0xa009,-0x5e0(%rbp)
    5920:	09 a0 
    5922:	66 c7 85 22 fa ff ff 	movw   $0xa009,-0x5de(%rbp)
    5929:	09 a0 
    592b:	66 c7 85 24 fa ff ff 	movw   $0x6b00,-0x5dc(%rbp)
    5932:	00 6b 
    5934:	66 c7 85 26 fa ff ff 	movw   $0x3,-0x5da(%rbp)
    593b:	03 00 
    593d:	66 c7 85 28 fa ff ff 	movw   $0x6b00,-0x5d8(%rbp)
    5944:	00 6b 
    5946:	66 c7 85 2a fa ff ff 	movw   $0xa009,-0x5d6(%rbp)
    594d:	09 a0 
    594f:	66 c7 85 2c fa ff ff 	movw   $0xa009,-0x5d4(%rbp)
    5956:	09 a0 
    5958:	66 c7 85 2e fa ff ff 	movw   $0x6b00,-0x5d2(%rbp)
    595f:	00 6b 
    5961:	66 c7 85 30 fa ff ff 	movw   $0x3,-0x5d0(%rbp)
    5968:	03 00 
    596a:	66 c7 85 32 fa ff ff 	movw   $0x6b00,-0x5ce(%rbp)
    5971:	00 6b 
    5973:	48 8d 05 de c4 00 00 	lea    0xc4de(%rip),%rax        # 11e58 <g_159>
    597a:	48 89 85 c8 f5 ff ff 	mov    %rax,-0xa38(%rbp)
    5981:	48 8d 05 0c 9a 00 00 	lea    0x9a0c(%rip),%rax        # f394 <g_123>
    5988:	48 89 85 d0 f5 ff ff 	mov    %rax,-0xa30(%rbp)
    598f:	48 8d 05 02 9a 00 00 	lea    0x9a02(%rip),%rax        # f398 <g_166>
    5996:	48 89 85 98 f5 ff ff 	mov    %rax,-0xa68(%rbp)
    599d:	48 8d 05 24 c5 00 00 	lea    0xc524(%rip),%rax        # 11ec8 <g_276+0x8>
    59a4:	48 89 85 d8 f5 ff ff 	mov    %rax,-0xa28(%rbp)
    59ab:	48 c7 85 e0 f5 ff ff 	movq   $0x0,-0xa20(%rbp)
    59b2:	00 00 00 00 
    59b6:	48 8d 05 cb c5 00 00 	lea    0xc5cb(%rip),%rax        # 11f88 <g_378>
    59bd:	48 89 85 e8 f5 ff ff 	mov    %rax,-0xa18(%rbp)
    59c4:	48 8d 05 fd c4 00 00 	lea    0xc4fd(%rip),%rax        # 11ec8 <g_276+0x8>
    59cb:	48 89 85 f0 f5 ff ff 	mov    %rax,-0xa10(%rbp)
    59d2:	48 c7 85 f8 f5 ff ff 	movq   $0x0,-0xa08(%rbp)
    59d9:	00 00 00 00 
    59dd:	48 c7 85 70 fb ff ff 	movq   $0x0,-0x490(%rbp)
    59e4:	00 00 00 00 
    59e8:	48 8d 05 d9 c4 00 00 	lea    0xc4d9(%rip),%rax        # 11ec8 <g_276+0x8>
    59ef:	48 89 85 78 fb ff ff 	mov    %rax,-0x488(%rbp)
    59f6:	48 8d 85 98 f5 ff ff 	lea    -0xa68(%rbp),%rax
    59fd:	48 89 85 80 fb ff ff 	mov    %rax,-0x480(%rbp)
    5a04:	48 8d 85 98 f5 ff ff 	lea    -0xa68(%rbp),%rax
    5a0b:	48 89 85 88 fb ff ff 	mov    %rax,-0x478(%rbp)
    5a12:	48 8d 05 bf c4 00 00 	lea    0xc4bf(%rip),%rax        # 11ed8 <g_276+0x18>
    5a19:	48 89 85 90 fb ff ff 	mov    %rax,-0x470(%rbp)
    5a20:	48 8d 05 99 c4 00 00 	lea    0xc499(%rip),%rax        # 11ec0 <g_276>
    5a27:	48 89 85 98 fb ff ff 	mov    %rax,-0x468(%rbp)
    5a2e:	48 8d 05 93 c4 00 00 	lea    0xc493(%rip),%rax        # 11ec8 <g_276+0x8>
    5a35:	48 89 85 a0 fb ff ff 	mov    %rax,-0x460(%rbp)
    5a3c:	48 8d 85 78 f5 ff ff 	lea    -0xa88(%rbp),%rax
    5a43:	48 89 85 a8 fb ff ff 	mov    %rax,-0x458(%rbp)
    5a4a:	48 8d 05 87 c4 00 00 	lea    0xc487(%rip),%rax        # 11ed8 <g_276+0x18>
    5a51:	48 89 85 b0 fb ff ff 	mov    %rax,-0x450(%rbp)
    5a58:	48 8d 05 69 c4 00 00 	lea    0xc469(%rip),%rax        # 11ec8 <g_276+0x8>
    5a5f:	48 89 85 b8 fb ff ff 	mov    %rax,-0x448(%rbp)
    5a66:	48 8d 85 98 f5 ff ff 	lea    -0xa68(%rbp),%rax
    5a6d:	48 89 85 c0 fb ff ff 	mov    %rax,-0x440(%rbp)
    5a74:	48 c7 85 c8 fb ff ff 	movq   $0x0,-0x438(%rbp)
    5a7b:	00 00 00 00 
    5a7f:	48 c7 85 d0 fb ff ff 	movq   $0x0,-0x430(%rbp)
    5a86:	00 00 00 00 
    5a8a:	48 8d 85 78 f5 ff ff 	lea    -0xa88(%rbp),%rax
    5a91:	48 89 85 d8 fb ff ff 	mov    %rax,-0x428(%rbp)
    5a98:	48 8d 05 39 c4 00 00 	lea    0xc439(%rip),%rax        # 11ed8 <g_276+0x18>
    5a9f:	48 89 85 e0 fb ff ff 	mov    %rax,-0x420(%rbp)
    5aa6:	48 8d 05 2b c4 00 00 	lea    0xc42b(%rip),%rax        # 11ed8 <g_276+0x18>
    5aad:	48 89 85 e8 fb ff ff 	mov    %rax,-0x418(%rbp)
    5ab4:	48 8d 05 0d c4 00 00 	lea    0xc40d(%rip),%rax        # 11ec8 <g_276+0x8>
    5abb:	48 89 85 f0 fb ff ff 	mov    %rax,-0x410(%rbp)
    5ac2:	48 8d 05 0f c4 00 00 	lea    0xc40f(%rip),%rax        # 11ed8 <g_276+0x18>
    5ac9:	48 89 85 f8 fb ff ff 	mov    %rax,-0x408(%rbp)
    5ad0:	48 8d 05 f1 c3 00 00 	lea    0xc3f1(%rip),%rax        # 11ec8 <g_276+0x8>
    5ad7:	48 89 85 00 fc ff ff 	mov    %rax,-0x400(%rbp)
    5ade:	48 8d 85 98 f5 ff ff 	lea    -0xa68(%rbp),%rax
    5ae5:	48 89 85 08 fc ff ff 	mov    %rax,-0x3f8(%rbp)
    5aec:	48 8d 85 98 f5 ff ff 	lea    -0xa68(%rbp),%rax
    5af3:	48 89 85 10 fc ff ff 	mov    %rax,-0x3f0(%rbp)
    5afa:	48 8d 85 98 f5 ff ff 	lea    -0xa68(%rbp),%rax
    5b01:	48 89 85 18 fc ff ff 	mov    %rax,-0x3e8(%rbp)
    5b08:	48 8d 85 78 f5 ff ff 	lea    -0xa88(%rbp),%rax
    5b0f:	48 89 85 20 fc ff ff 	mov    %rax,-0x3e0(%rbp)
    5b16:	48 8d 05 ab c3 00 00 	lea    0xc3ab(%rip),%rax        # 11ec8 <g_276+0x8>
    5b1d:	48 89 85 28 fc ff ff 	mov    %rax,-0x3d8(%rbp)
    5b24:	48 8d 05 9d c3 00 00 	lea    0xc39d(%rip),%rax        # 11ec8 <g_276+0x8>
    5b2b:	48 89 85 30 fc ff ff 	mov    %rax,-0x3d0(%rbp)
    5b32:	48 8d 85 78 f5 ff ff 	lea    -0xa88(%rbp),%rax
    5b39:	48 89 85 38 fc ff ff 	mov    %rax,-0x3c8(%rbp)
    5b40:	48 8d 05 91 c3 00 00 	lea    0xc391(%rip),%rax        # 11ed8 <g_276+0x18>
    5b47:	48 89 85 40 fc ff ff 	mov    %rax,-0x3c0(%rbp)
    5b4e:	48 8d 85 78 f5 ff ff 	lea    -0xa88(%rbp),%rax
    5b55:	48 89 85 48 fc ff ff 	mov    %rax,-0x3b8(%rbp)
    5b5c:	48 8d 05 65 c3 00 00 	lea    0xc365(%rip),%rax        # 11ec8 <g_276+0x8>
    5b63:	48 89 85 50 fc ff ff 	mov    %rax,-0x3b0(%rbp)
    5b6a:	48 8d 85 98 f5 ff ff 	lea    -0xa68(%rbp),%rax
    5b71:	48 89 85 58 fc ff ff 	mov    %rax,-0x3a8(%rbp)
    5b78:	48 8d 05 51 c3 00 00 	lea    0xc351(%rip),%rax        # 11ed0 <g_276+0x10>
    5b7f:	48 89 85 60 fc ff ff 	mov    %rax,-0x3a0(%rbp)
    5b86:	48 8d 85 98 f5 ff ff 	lea    -0xa68(%rbp),%rax
    5b8d:	48 89 85 68 fc ff ff 	mov    %rax,-0x398(%rbp)
    5b94:	48 8d 05 3d c3 00 00 	lea    0xc33d(%rip),%rax        # 11ed8 <g_276+0x18>
    5b9b:	48 89 85 70 fc ff ff 	mov    %rax,-0x390(%rbp)
    5ba2:	48 c7 85 78 fc ff ff 	movq   $0x0,-0x388(%rbp)
    5ba9:	00 00 00 00 
    5bad:	48 8d 85 98 f5 ff ff 	lea    -0xa68(%rbp),%rax
    5bb4:	48 89 85 80 fc ff ff 	mov    %rax,-0x380(%rbp)
    5bbb:	48 8d 85 98 f5 ff ff 	lea    -0xa68(%rbp),%rax
    5bc2:	48 89 85 88 fc ff ff 	mov    %rax,-0x378(%rbp)
    5bc9:	48 8d 05 08 c3 00 00 	lea    0xc308(%rip),%rax        # 11ed8 <g_276+0x18>
    5bd0:	48 89 85 90 fc ff ff 	mov    %rax,-0x370(%rbp)
    5bd7:	48 c7 85 98 fc ff ff 	movq   $0x0,-0x368(%rbp)
    5bde:	00 00 00 00 
    5be2:	48 8d 05 ef c2 00 00 	lea    0xc2ef(%rip),%rax        # 11ed8 <g_276+0x18>
    5be9:	48 89 85 a0 fc ff ff 	mov    %rax,-0x360(%rbp)
    5bf0:	48 c7 85 a8 fc ff ff 	movq   $0x0,-0x358(%rbp)
    5bf7:	00 00 00 00 
    5bfb:	48 8d 05 c6 c2 00 00 	lea    0xc2c6(%rip),%rax        # 11ec8 <g_276+0x8>
    5c02:	48 89 85 b0 fc ff ff 	mov    %rax,-0x350(%rbp)
    5c09:	48 8d 05 b8 c2 00 00 	lea    0xc2b8(%rip),%rax        # 11ec8 <g_276+0x8>
    5c10:	48 89 85 b8 fc ff ff 	mov    %rax,-0x348(%rbp)
    5c17:	48 8d 85 78 f5 ff ff 	lea    -0xa88(%rbp),%rax
    5c1e:	48 89 85 c0 fc ff ff 	mov    %rax,-0x340(%rbp)
    5c25:	48 8d 05 9c c2 00 00 	lea    0xc29c(%rip),%rax        # 11ec8 <g_276+0x8>
    5c2c:	48 89 85 c8 fc ff ff 	mov    %rax,-0x338(%rbp)
    5c33:	48 8d 05 8e c2 00 00 	lea    0xc28e(%rip),%rax        # 11ec8 <g_276+0x8>
    5c3a:	48 89 85 d0 fc ff ff 	mov    %rax,-0x330(%rbp)
    5c41:	48 c7 85 d8 fc ff ff 	movq   $0x0,-0x328(%rbp)
    5c48:	00 00 00 00 
    5c4c:	48 c7 85 e0 fc ff ff 	movq   $0x0,-0x320(%rbp)
    5c53:	00 00 00 00 
    5c57:	48 8d 85 98 f5 ff ff 	lea    -0xa68(%rbp),%rax
    5c5e:	48 89 85 e8 fc ff ff 	mov    %rax,-0x318(%rbp)
    5c65:	48 8d 05 5c c2 00 00 	lea    0xc25c(%rip),%rax        # 11ec8 <g_276+0x8>
    5c6c:	48 89 85 f0 fc ff ff 	mov    %rax,-0x310(%rbp)
    5c73:	48 c7 85 f8 fc ff ff 	movq   $0x0,-0x308(%rbp)
    5c7a:	00 00 00 00 
    5c7e:	48 8d 05 43 c2 00 00 	lea    0xc243(%rip),%rax        # 11ec8 <g_276+0x8>
    5c85:	48 89 85 00 fd ff ff 	mov    %rax,-0x300(%rbp)
    5c8c:	48 8d 85 98 f5 ff ff 	lea    -0xa68(%rbp),%rax
    5c93:	48 89 85 08 fd ff ff 	mov    %rax,-0x2f8(%rbp)
    5c9a:	48 8d 05 27 c2 00 00 	lea    0xc227(%rip),%rax        # 11ec8 <g_276+0x8>
    5ca1:	48 89 85 10 fd ff ff 	mov    %rax,-0x2f0(%rbp)
    5ca8:	48 8d 85 98 f5 ff ff 	lea    -0xa68(%rbp),%rax
    5caf:	48 89 85 18 fd ff ff 	mov    %rax,-0x2e8(%rbp)
    5cb6:	48 8d 85 78 f5 ff ff 	lea    -0xa88(%rbp),%rax
    5cbd:	48 89 85 20 fd ff ff 	mov    %rax,-0x2e0(%rbp)
    5cc4:	48 8d 05 0d c2 00 00 	lea    0xc20d(%rip),%rax        # 11ed8 <g_276+0x18>
    5ccb:	48 89 85 28 fd ff ff 	mov    %rax,-0x2d8(%rbp)
    5cd2:	48 c7 85 30 fd ff ff 	movq   $0x0,-0x2d0(%rbp)
    5cd9:	00 00 00 00 
    5cdd:	48 8d 05 e4 c1 00 00 	lea    0xc1e4(%rip),%rax        # 11ec8 <g_276+0x8>
    5ce4:	48 89 85 38 fd ff ff 	mov    %rax,-0x2c8(%rbp)
    5ceb:	48 8d 05 d6 c1 00 00 	lea    0xc1d6(%rip),%rax        # 11ec8 <g_276+0x8>
    5cf2:	48 89 85 40 fd ff ff 	mov    %rax,-0x2c0(%rbp)
    5cf9:	48 8d 05 c8 c1 00 00 	lea    0xc1c8(%rip),%rax        # 11ec8 <g_276+0x8>
    5d00:	48 89 85 48 fd ff ff 	mov    %rax,-0x2b8(%rbp)
    5d07:	48 c7 85 50 fd ff ff 	movq   $0x0,-0x2b0(%rbp)
    5d0e:	00 00 00 00 
    5d12:	48 8d 05 af c1 00 00 	lea    0xc1af(%rip),%rax        # 11ec8 <g_276+0x8>
    5d19:	48 89 85 58 fd ff ff 	mov    %rax,-0x2a8(%rbp)
    5d20:	48 8d 85 98 f5 ff ff 	lea    -0xa68(%rbp),%rax
    5d27:	48 89 85 60 fd ff ff 	mov    %rax,-0x2a0(%rbp)
    5d2e:	48 8d 05 93 c1 00 00 	lea    0xc193(%rip),%rax        # 11ec8 <g_276+0x8>
    5d35:	48 89 85 68 fd ff ff 	mov    %rax,-0x298(%rbp)
    5d3c:	48 8d 85 78 f5 ff ff 	lea    -0xa88(%rbp),%rax
    5d43:	48 89 85 70 fd ff ff 	mov    %rax,-0x290(%rbp)
    5d4a:	48 8d 85 78 f5 ff ff 	lea    -0xa88(%rbp),%rax
    5d51:	48 89 85 78 fd ff ff 	mov    %rax,-0x288(%rbp)
    5d58:	48 8d 05 79 c1 00 00 	lea    0xc179(%rip),%rax        # 11ed8 <g_276+0x18>
    5d5f:	48 89 85 80 fd ff ff 	mov    %rax,-0x280(%rbp)
    5d66:	48 c7 85 88 fd ff ff 	movq   $0x0,-0x278(%rbp)
    5d6d:	00 00 00 00 
    5d71:	48 8d 85 78 f5 ff ff 	lea    -0xa88(%rbp),%rax
    5d78:	48 89 85 90 fd ff ff 	mov    %rax,-0x270(%rbp)
    5d7f:	48 8d 05 3a c1 00 00 	lea    0xc13a(%rip),%rax        # 11ec0 <g_276>
    5d86:	48 89 85 98 fd ff ff 	mov    %rax,-0x268(%rbp)
    5d8d:	48 8d 05 3c c1 00 00 	lea    0xc13c(%rip),%rax        # 11ed0 <g_276+0x10>
    5d94:	48 89 85 a0 fd ff ff 	mov    %rax,-0x260(%rbp)
    5d9b:	48 8d 85 98 f5 ff ff 	lea    -0xa68(%rbp),%rax
    5da2:	48 89 85 a8 fd ff ff 	mov    %rax,-0x258(%rbp)
    5da9:	48 8d 05 18 c1 00 00 	lea    0xc118(%rip),%rax        # 11ec8 <g_276+0x8>
    5db0:	48 89 85 b0 fd ff ff 	mov    %rax,-0x250(%rbp)
    5db7:	48 8d 05 0a c1 00 00 	lea    0xc10a(%rip),%rax        # 11ec8 <g_276+0x8>
    5dbe:	48 89 85 b8 fd ff ff 	mov    %rax,-0x248(%rbp)
    5dc5:	48 8d 85 98 f5 ff ff 	lea    -0xa68(%rbp),%rax
    5dcc:	48 89 85 c0 fd ff ff 	mov    %rax,-0x240(%rbp)
    5dd3:	48 c7 85 c8 fd ff ff 	movq   $0x0,-0x238(%rbp)
    5dda:	00 00 00 00 
    5dde:	48 8d 05 f3 c0 00 00 	lea    0xc0f3(%rip),%rax        # 11ed8 <g_276+0x18>
    5de5:	48 89 85 d0 fd ff ff 	mov    %rax,-0x230(%rbp)
    5dec:	48 c7 85 d8 fd ff ff 	movq   $0x0,-0x228(%rbp)
    5df3:	00 00 00 00 
    5df7:	48 8d 05 ca c0 00 00 	lea    0xc0ca(%rip),%rax        # 11ec8 <g_276+0x8>
    5dfe:	48 89 85 e0 fd ff ff 	mov    %rax,-0x220(%rbp)
    5e05:	48 8d 05 bc c0 00 00 	lea    0xc0bc(%rip),%rax        # 11ec8 <g_276+0x8>
    5e0c:	48 89 85 e8 fd ff ff 	mov    %rax,-0x218(%rbp)
    5e13:	48 c7 85 f0 fd ff ff 	movq   $0x0,-0x210(%rbp)
    5e1a:	00 00 00 00 
    5e1e:	48 8d 85 98 f5 ff ff 	lea    -0xa68(%rbp),%rax
    5e25:	48 89 85 f8 fd ff ff 	mov    %rax,-0x208(%rbp)
    5e2c:	48 8d 85 98 f5 ff ff 	lea    -0xa68(%rbp),%rax
    5e33:	48 89 85 00 fe ff ff 	mov    %rax,-0x200(%rbp)
    5e3a:	48 8d 85 98 f5 ff ff 	lea    -0xa68(%rbp),%rax
    5e41:	48 89 85 08 fe ff ff 	mov    %rax,-0x1f8(%rbp)
    5e48:	48 8d 85 78 f5 ff ff 	lea    -0xa88(%rbp),%rax
    5e4f:	48 89 85 10 fe ff ff 	mov    %rax,-0x1f0(%rbp)
    5e56:	48 8d 05 73 c0 00 00 	lea    0xc073(%rip),%rax        # 11ed0 <g_276+0x10>
    5e5d:	48 89 85 18 fe ff ff 	mov    %rax,-0x1e8(%rbp)
    5e64:	48 8d 05 5d c0 00 00 	lea    0xc05d(%rip),%rax        # 11ec8 <g_276+0x8>
    5e6b:	48 89 85 20 fe ff ff 	mov    %rax,-0x1e0(%rbp)
    5e72:	48 8d 05 4f c0 00 00 	lea    0xc04f(%rip),%rax        # 11ec8 <g_276+0x8>
    5e79:	48 89 85 28 fe ff ff 	mov    %rax,-0x1d8(%rbp)
    5e80:	48 8d 85 98 f5 ff ff 	lea    -0xa68(%rbp),%rax
    5e87:	48 89 85 30 fe ff ff 	mov    %rax,-0x1d0(%rbp)
    5e8e:	48 8d 05 33 c0 00 00 	lea    0xc033(%rip),%rax        # 11ec8 <g_276+0x8>
    5e95:	48 89 85 38 fe ff ff 	mov    %rax,-0x1c8(%rbp)
    5e9c:	48 8d 85 78 f5 ff ff 	lea    -0xa88(%rbp),%rax
    5ea3:	48 89 85 40 fe ff ff 	mov    %rax,-0x1c0(%rbp)
    5eaa:	48 c7 85 48 fe ff ff 	movq   $0x0,-0x1b8(%rbp)
    5eb1:	00 00 00 00 
    5eb5:	48 8d 85 78 f5 ff ff 	lea    -0xa88(%rbp),%rax
    5ebc:	48 89 85 50 fe ff ff 	mov    %rax,-0x1b0(%rbp)
    5ec3:	48 c7 85 58 fe ff ff 	movq   $0x0,-0x1a8(%rbp)
    5eca:	00 00 00 00 
    5ece:	48 8d 85 78 f5 ff ff 	lea    -0xa88(%rbp),%rax
    5ed5:	48 89 85 60 fe ff ff 	mov    %rax,-0x1a0(%rbp)
    5edc:	48 c7 85 68 fe ff ff 	movq   $0x0,-0x198(%rbp)
    5ee3:	00 00 00 00 
    5ee7:	48 8d 05 da bf 00 00 	lea    0xbfda(%rip),%rax        # 11ec8 <g_276+0x8>
    5eee:	48 89 85 70 fe ff ff 	mov    %rax,-0x190(%rbp)
    5ef5:	48 8d 85 78 f5 ff ff 	lea    -0xa88(%rbp),%rax
    5efc:	48 89 85 78 fe ff ff 	mov    %rax,-0x188(%rbp)
    5f03:	48 8d 85 78 f5 ff ff 	lea    -0xa88(%rbp),%rax
    5f0a:	48 89 85 80 fe ff ff 	mov    %rax,-0x180(%rbp)
    5f11:	48 8d 05 b0 bf 00 00 	lea    0xbfb0(%rip),%rax        # 11ec8 <g_276+0x8>
    5f18:	48 89 85 88 fe ff ff 	mov    %rax,-0x178(%rbp)
    5f1f:	48 8d 05 b2 bf 00 00 	lea    0xbfb2(%rip),%rax        # 11ed8 <g_276+0x18>
    5f26:	48 89 85 90 fe ff ff 	mov    %rax,-0x170(%rbp)
    5f2d:	48 8d 05 94 bf 00 00 	lea    0xbf94(%rip),%rax        # 11ec8 <g_276+0x8>
    5f34:	48 89 85 98 fe ff ff 	mov    %rax,-0x168(%rbp)
    5f3b:	48 c7 85 a0 fe ff ff 	movq   $0x0,-0x160(%rbp)
    5f42:	00 00 00 00 
    5f46:	48 8d 05 83 bf 00 00 	lea    0xbf83(%rip),%rax        # 11ed0 <g_276+0x10>
    5f4d:	48 89 85 a8 fe ff ff 	mov    %rax,-0x158(%rbp)
    5f54:	48 8d 05 75 bf 00 00 	lea    0xbf75(%rip),%rax        # 11ed0 <g_276+0x10>
    5f5b:	48 89 85 b0 fe ff ff 	mov    %rax,-0x150(%rbp)
    5f62:	48 8d 05 5f bf 00 00 	lea    0xbf5f(%rip),%rax        # 11ec8 <g_276+0x8>
    5f69:	48 89 85 b8 fe ff ff 	mov    %rax,-0x148(%rbp)
    5f70:	48 8d 05 51 bf 00 00 	lea    0xbf51(%rip),%rax        # 11ec8 <g_276+0x8>
    5f77:	48 89 85 c0 fe ff ff 	mov    %rax,-0x140(%rbp)
    5f7e:	48 8d 85 78 f5 ff ff 	lea    -0xa88(%rbp),%rax
    5f85:	48 89 85 c8 fe ff ff 	mov    %rax,-0x138(%rbp)
    5f8c:	48 8d 05 35 bf 00 00 	lea    0xbf35(%rip),%rax        # 11ec8 <g_276+0x8>
    5f93:	48 89 85 d0 fe ff ff 	mov    %rax,-0x130(%rbp)
    5f9a:	48 8d 05 27 bf 00 00 	lea    0xbf27(%rip),%rax        # 11ec8 <g_276+0x8>
    5fa1:	48 89 85 d8 fe ff ff 	mov    %rax,-0x128(%rbp)
    5fa8:	48 c7 85 e0 fe ff ff 	movq   $0x0,-0x120(%rbp)
    5faf:	00 00 00 00 
    5fb3:	48 8d 05 16 bf 00 00 	lea    0xbf16(%rip),%rax        # 11ed0 <g_276+0x10>
    5fba:	48 89 85 e8 fe ff ff 	mov    %rax,-0x118(%rbp)
    5fc1:	48 8d 85 98 f5 ff ff 	lea    -0xa68(%rbp),%rax
    5fc8:	48 89 85 f0 fe ff ff 	mov    %rax,-0x110(%rbp)
    5fcf:	48 8d 85 98 f5 ff ff 	lea    -0xa68(%rbp),%rax
    5fd6:	48 89 85 f8 fe ff ff 	mov    %rax,-0x108(%rbp)
    5fdd:	48 8d 85 78 f5 ff ff 	lea    -0xa88(%rbp),%rax
    5fe4:	48 89 85 00 ff ff ff 	mov    %rax,-0x100(%rbp)
    5feb:	48 8d 05 d6 be 00 00 	lea    0xbed6(%rip),%rax        # 11ec8 <g_276+0x8>
    5ff2:	48 89 85 08 ff ff ff 	mov    %rax,-0xf8(%rbp)
    5ff9:	48 8d 85 98 f5 ff ff 	lea    -0xa68(%rbp),%rax
    6000:	48 89 85 10 ff ff ff 	mov    %rax,-0xf0(%rbp)
    6007:	48 8d 05 ba be 00 00 	lea    0xbeba(%rip),%rax        # 11ec8 <g_276+0x8>
    600e:	48 89 85 18 ff ff ff 	mov    %rax,-0xe8(%rbp)
    6015:	48 8d 85 78 f5 ff ff 	lea    -0xa88(%rbp),%rax
    601c:	48 89 85 20 ff ff ff 	mov    %rax,-0xe0(%rbp)
    6023:	48 8d 05 9e be 00 00 	lea    0xbe9e(%rip),%rax        # 11ec8 <g_276+0x8>
    602a:	48 89 85 28 ff ff ff 	mov    %rax,-0xd8(%rbp)
    6031:	48 8d 85 98 f5 ff ff 	lea    -0xa68(%rbp),%rax
    6038:	48 89 85 30 ff ff ff 	mov    %rax,-0xd0(%rbp)
    603f:	48 8d 05 82 be 00 00 	lea    0xbe82(%rip),%rax        # 11ec8 <g_276+0x8>
    6046:	48 89 85 38 ff ff ff 	mov    %rax,-0xc8(%rbp)
    604d:	48 8d 05 74 be 00 00 	lea    0xbe74(%rip),%rax        # 11ec8 <g_276+0x8>
    6054:	48 89 85 40 ff ff ff 	mov    %rax,-0xc0(%rbp)
    605b:	48 8d 05 6e be 00 00 	lea    0xbe6e(%rip),%rax        # 11ed0 <g_276+0x10>
    6062:	48 89 85 48 ff ff ff 	mov    %rax,-0xb8(%rbp)
    6069:	48 8d 05 58 be 00 00 	lea    0xbe58(%rip),%rax        # 11ec8 <g_276+0x8>
    6070:	48 89 85 50 ff ff ff 	mov    %rax,-0xb0(%rbp)
    6077:	48 c7 85 58 ff ff ff 	movq   $0x0,-0xa8(%rbp)
    607e:	00 00 00 00 
    6082:	48 8d 05 3f be 00 00 	lea    0xbe3f(%rip),%rax        # 11ec8 <g_276+0x8>
    6089:	48 89 85 60 ff ff ff 	mov    %rax,-0xa0(%rbp)
    6090:	48 8d 05 31 be 00 00 	lea    0xbe31(%rip),%rax        # 11ec8 <g_276+0x8>
    6097:	48 89 85 68 ff ff ff 	mov    %rax,-0x98(%rbp)
    609e:	48 8d 85 98 f5 ff ff 	lea    -0xa68(%rbp),%rax
    60a5:	48 89 85 70 ff ff ff 	mov    %rax,-0x90(%rbp)
    60ac:	48 8d 05 1d be 00 00 	lea    0xbe1d(%rip),%rax        # 11ed0 <g_276+0x10>
    60b3:	48 89 85 78 ff ff ff 	mov    %rax,-0x88(%rbp)
    60ba:	48 8d 85 98 f5 ff ff 	lea    -0xa68(%rbp),%rax
    60c1:	48 89 45 80          	mov    %rax,-0x80(%rbp)
    60c5:	48 8d 85 78 f5 ff ff 	lea    -0xa88(%rbp),%rax
    60cc:	48 89 45 88          	mov    %rax,-0x78(%rbp)
    60d0:	48 8d 85 98 f5 ff ff 	lea    -0xa68(%rbp),%rax
    60d7:	48 89 45 90          	mov    %rax,-0x70(%rbp)
    60db:	48 8d 85 98 f5 ff ff 	lea    -0xa68(%rbp),%rax
    60e2:	48 89 45 98          	mov    %rax,-0x68(%rbp)
    60e6:	48 8d 85 78 f5 ff ff 	lea    -0xa88(%rbp),%rax
    60ed:	48 89 45 a0          	mov    %rax,-0x60(%rbp)
    60f1:	48 8d 85 98 f5 ff ff 	lea    -0xa68(%rbp),%rax
    60f8:	48 89 45 a8          	mov    %rax,-0x58(%rbp)
    60fc:	48 8d 05 bd bd 00 00 	lea    0xbdbd(%rip),%rax        # 11ec0 <g_276>
    6103:	48 89 45 b0          	mov    %rax,-0x50(%rbp)
    6107:	48 c7 45 b8 00 00 00 	movq   $0x0,-0x48(%rbp)
    610e:	00 
    610f:	48 8d 05 ba bd 00 00 	lea    0xbdba(%rip),%rax        # 11ed0 <g_276+0x10>
    6116:	48 89 45 c0          	mov    %rax,-0x40(%rbp)
    611a:	48 8d 85 98 f5 ff ff 	lea    -0xa68(%rbp),%rax
    6121:	48 89 45 c8          	mov    %rax,-0x38(%rbp)
    6125:	48 8d 05 6b 97 00 00 	lea    0x976b(%rip),%rax        # f897 <g_466+0x7>
    612c:	48 89 85 00 f6 ff ff 	mov    %rax,-0xa00(%rbp)
    6133:	48 8d 05 fe bc 00 00 	lea    0xbcfe(%rip),%rax        # 11e38 <g_142+0x18>
    613a:	48 89 85 08 f6 ff ff 	mov    %rax,-0x9f8(%rbp)
    6141:	c7 85 24 f5 ff ff 46 	movl   $0xb7b43f46,-0xadc(%rbp)
    6148:	3f b4 b7 
    614b:	c7 85 28 f5 ff ff 6b 	movl   $0x24d0c36b,-0xad8(%rbp)
    6152:	c3 d0 24 
    6155:	c7 85 2c f5 ff ff 00 	movl   $0x0,-0xad4(%rbp)
    615c:	00 00 00 
    615f:	c6 85 d4 f4 ff ff 1f 	movb   $0x1f,-0xb2c(%rbp)
    6166:	8b 85 18 f5 ff ff    	mov    -0xae8(%rbp),%eax
    616c:	0f b7 c0             	movzwl %ax,%eax
    616f:	be 01 00 00 00       	mov    $0x1,%esi
    6174:	89 c7                	mov    %eax,%edi
    6176:	e8 cd dc ff ff       	callq  3e48 <safe_rshift_func_uint16_t_u_s>
    617b:	48 83 bd a8 f5 ff ff 	cmpq   $0x0,-0xa58(%rbp)
    6182:	00 
    6183:	48 8b 05 ae 92 00 00 	mov    0x92ae(%rip),%rax        # f438 <g_312>
    618a:	8b 8d 18 f5 ff ff    	mov    -0xae8(%rbp),%ecx
    6190:	48 8d 05 c1 bc 00 00 	lea    0xbcc1(%rip),%rax        # 11e58 <g_159>
    6197:	48 39 85 c8 f5 ff ff 	cmp    %rax,-0xa38(%rbp)
    619e:	0f 95 c0             	setne  %al
    61a1:	0f b6 d0             	movzbl %al,%edx
    61a4:	0f b7 85 28 fa ff ff 	movzwl -0x5d8(%rbp),%eax
    61ab:	0f bf f0             	movswl %ax,%esi
    61ae:	48 8d 1d 2b 96 00 00 	lea    0x962b(%rip),%rbx        # f7e0 <g_455>
    61b5:	48 8d 85 a0 f4 ff ff 	lea    -0xb60(%rbp),%rax
    61bc:	48 89 c7             	mov    %rax,%rdi
    61bf:	e8 79 19 00 00       	callq  7b3d <func_20>
    61c4:	48 8b 85 a0 f4 ff ff 	mov    -0xb60(%rbp),%rax
    61cb:	48 8b 95 a8 f4 ff ff 	mov    -0xb58(%rbp),%rdx
    61d2:	48 89 03             	mov    %rax,(%rbx)
    61d5:	48 89 53 08          	mov    %rdx,0x8(%rbx)
    61d9:	0f b7 85 b0 f4 ff ff 	movzwl -0xb50(%rbp),%eax
    61e0:	66 89 43 10          	mov    %ax,0x10(%rbx)
    61e4:	0f b6 85 b2 f4 ff ff 	movzbl -0xb4e(%rbp),%eax
    61eb:	88 43 12             	mov    %al,0x12(%rbx)
    61ee:	83 bd 18 f5 ff ff 00 	cmpl   $0x0,-0xae8(%rbp)
    61f5:	0f 84 ee 00 00 00    	je     62e9 <func_8+0xfec>
    61fb:	8b 85 cc f4 ff ff    	mov    -0xb34(%rbp),%eax
    6201:	89 c3                	mov    %eax,%ebx
    6203:	48 8d 85 cc f4 ff ff 	lea    -0xb34(%rbp),%rax
    620a:	48 39 85 00 f6 ff ff 	cmp    %rax,-0xa00(%rbp)
    6211:	74 07                	je     621a <func_8+0xf1d>
    6213:	b8 fb ff ff ff       	mov    $0xfffffffb,%eax
    6218:	eb 05                	jmp    621f <func_8+0xf22>
    621a:	b8 fa ff ff ff       	mov    $0xfffffffa,%eax
    621f:	89 c6                	mov    %eax,%esi
    6221:	bf 84 c0 11 1a       	mov    $0x1a11c084,%edi
    6226:	e8 8b d3 ff ff       	callq  35b6 <safe_add_func_int32_t_s_s>
    622b:	83 f8 0c             	cmp    $0xc,%eax
    622e:	0f 9e c0             	setle  %al
    6231:	0f b6 c0             	movzbl %al,%eax
    6234:	89 de                	mov    %ebx,%esi
    6236:	89 c7                	mov    %eax,%edi
    6238:	e8 3d dc ff ff       	callq  3e7a <safe_rshift_func_uint16_t_u_u>
    623d:	48 8b 05 0c bc 00 00 	mov    0xbc0c(%rip),%rax        # 11e50 <g_140>
    6244:	48 8b 00             	mov    (%rax),%rax
    6247:	48 8b 00             	mov    (%rax),%rax
    624a:	48 8b 10             	mov    (%rax),%rdx
    624d:	48 83 ea 01          	sub    $0x1,%rdx
    6251:	48 89 10             	mov    %rdx,(%rax)
    6254:	48 8b 95 98 f5 ff ff 	mov    -0xa68(%rbp),%rdx
    625b:	48 8b 85 e8 f5 ff ff 	mov    -0xa18(%rbp),%rax
    6262:	48 89 10             	mov    %rdx,(%rax)
    6265:	48 8b 85 e8 f5 ff ff 	mov    -0xa18(%rbp),%rax
    626c:	48 8b 10             	mov    (%rax),%rdx
    626f:	48 8b 85 78 f5 ff ff 	mov    -0xa88(%rbp),%rax
    6276:	48 89 85 28 f7 ff ff 	mov    %rax,-0x8d8(%rbp)
    627d:	48 8b 85 28 f7 ff ff 	mov    -0x8d8(%rbp),%rax
    6284:	48 39 c2             	cmp    %rax,%rdx
    6287:	48 8b 85 d0 f5 ff ff 	mov    -0xa30(%rbp),%rax
    628e:	0f b6 00             	movzbl (%rax),%eax
    6291:	8d 50 01             	lea    0x1(%rax),%edx
    6294:	48 8b 85 d0 f5 ff ff 	mov    -0xa30(%rbp),%rax
    629b:	88 10                	mov    %dl,(%rax)
    629d:	48 8b 85 d0 f5 ff ff 	mov    -0xa30(%rbp),%rax
    62a4:	0f b6 00             	movzbl (%rax),%eax
    62a7:	0f b6 d0             	movzbl %al,%edx
    62aa:	8b 05 bc 93 00 00    	mov    0x93bc(%rip),%eax        # f66c <g_315+0x10c>
    62b0:	c1 e0 05             	shl    $0x5,%eax
    62b3:	c1 f8 05             	sar    $0x5,%eax
    62b6:	89 c1                	mov    %eax,%ecx
    62b8:	48 8b 05 7c 95 00 00 	mov    0x957c(%rip),%rax        # f83b <g_463+0xb>
    62bf:	48 83 f8 ff          	cmp    $0xffffffffffffffff,%rax
    62c3:	0f 95 c0             	setne  %al
    62c6:	0f b6 c0             	movzbl %al,%eax
    62c9:	39 c1                	cmp    %eax,%ecx
    62cb:	0f 9d c0             	setge  %al
    62ce:	0f b6 c0             	movzbl %al,%eax
    62d1:	39 c2                	cmp    %eax,%edx
    62d3:	7c 14                	jl     62e9 <func_8+0xfec>
    62d5:	48 8b 85 00 f6 ff ff 	mov    -0xa00(%rbp),%rax
    62dc:	8b 00                	mov    (%rax),%eax
    62de:	85 c0                	test   %eax,%eax
    62e0:	74 07                	je     62e9 <func_8+0xfec>
    62e2:	ba 01 00 00 00       	mov    $0x1,%edx
    62e7:	eb 05                	jmp    62ee <func_8+0xff1>
    62e9:	ba 00 00 00 00       	mov    $0x0,%edx
    62ee:	8b 85 cc f4 ff ff    	mov    -0xb34(%rbp),%eax
    62f4:	39 c2                	cmp    %eax,%edx
    62f6:	0f 95 c0             	setne  %al
    62f9:	0f b6 c0             	movzbl %al,%eax
    62fc:	89 85 cc f4 ff ff    	mov    %eax,-0xb34(%rbp)
    6302:	0f b6 85 d4 f4 ff ff 	movzbl -0xb2c(%rbp),%eax
    6309:	83 e8 01             	sub    $0x1,%eax
    630c:	88 85 d4 f4 ff ff    	mov    %al,-0xb2c(%rbp)
    6312:	0f b6 05 87 94 00 00 	movzbl 0x9487(%rip),%eax        # f7a0 <g_439>
    6319:	83 e0 03             	and    $0x3,%eax
    631c:	0f b6 d8             	movzbl %al,%ebx
    631f:	48 8b 05 ea ba 00 00 	mov    0xbaea(%rip),%rax        # 11e10 <g_50>
    6326:	48 8b 00             	mov    (%rax),%rax
    6329:	0f b7 05 01 95 00 00 	movzwl 0x9501(%rip),%eax        # f831 <g_463+0x1>
    6330:	0f b7 c0             	movzwl %ax,%eax
    6333:	48 89 c6             	mov    %rax,%rsi
    6336:	bf 01 00 00 00       	mov    $0x1,%edi
    633b:	e8 6f dd ff ff       	callq  40af <safe_div_func_uint64_t_u_u>
    6340:	48 8d 05 41 bc 00 00 	lea    0xbc41(%rip),%rax        # 11f88 <g_378>
    6347:	48 89 85 b8 f5 ff ff 	mov    %rax,-0xa48(%rbp)
    634e:	89 de                	mov    %ebx,%esi
    6350:	bf 01 00 00 00       	mov    $0x1,%edi
    6355:	e8 9b d0 ff ff       	callq  33f5 <safe_mul_func_int16_t_s_s>
    635a:	0f bf d0             	movswl %ax,%edx
    635d:	0f b7 05 dd 96 00 00 	movzwl 0x96dd(%rip),%eax        # fa41 <g_468+0x1>
    6364:	0f b7 c0             	movzwl %ax,%eax
    6367:	39 c2                	cmp    %eax,%edx
    6369:	0f 9e c0             	setle  %al
    636c:	0f b6 d8             	movzbl %al,%ebx
    636f:	0f b7 05 9b 94 00 00 	movzwl 0x949b(%rip),%eax        # f811 <g_461+0x1>
    6376:	0f b6 c0             	movzbl %al,%eax
    6379:	be 00 00 00 00       	mov    $0x0,%esi
    637e:	89 c7                	mov    %eax,%edi
    6380:	e8 08 d9 ff ff       	callq  3c8d <safe_rshift_func_uint8_t_u_s>
    6385:	89 c2                	mov    %eax,%edx
    6387:	8b 85 cc f4 ff ff    	mov    -0xb34(%rbp),%eax
    638d:	21 d0                	and    %edx,%eax
    638f:	0f be c0             	movsbl %al,%eax
    6392:	89 de                	mov    %ebx,%esi
    6394:	89 c7                	mov    %eax,%edi
    6396:	e8 06 cf ff ff       	callq  32a1 <safe_lshift_func_int8_t_s_s>
    639b:	8b 85 cc f4 ff ff    	mov    -0xb34(%rbp),%eax
    63a1:	89 c6                	mov    %eax,%esi
    63a3:	bf 05 00 00 00       	mov    $0x5,%edi
    63a8:	e8 78 db ff ff       	callq  3f25 <safe_div_func_uint32_t_u_u>
    63ad:	85 c0                	test   %eax,%eax
    63af:	0f 84 17 06 00 00    	je     69cc <func_8+0x16cf>
    63b5:	c7 85 3c f5 ff ff ad 	movl   $0xfb3ee1ad,-0xac4(%rbp)
    63bc:	e1 3e fb 
    63bf:	c7 85 e8 f4 ff ff 7c 	movl   $0x8663547c,-0xb18(%rbp)
    63c6:	54 63 86 
    63c9:	c7 85 40 f5 ff ff 69 	movl   $0x8d75c69,-0xac0(%rbp)
    63d0:	5c d7 08 
    63d3:	48 8b 15 36 ba 00 00 	mov    0xba36(%rip),%rdx        # 11e10 <g_50>
    63da:	48 8b 05 2f ba 00 00 	mov    0xba2f(%rip),%rax        # 11e10 <g_50>
    63e1:	48 8b 12             	mov    (%rdx),%rdx
    63e4:	48 89 10             	mov    %rdx,(%rax)
    63e7:	c7 05 46 94 00 00 00 	movl   $0x0,0x9446(%rip)        # f837 <g_463+0x7>
    63ee:	00 00 00 
    63f1:	e9 c2 05 00 00       	jmpq   69b8 <func_8+0x16bb>
    63f6:	c6 85 d5 f4 ff ff f8 	movb   $0xf8,-0xb2b(%rbp)
    63fd:	c7 85 44 f5 ff ff cc 	movl   $0x7e2084cc,-0xabc(%rbp)
    6404:	84 20 7e 
    6407:	c7 85 48 f5 ff ff 02 	movl   $0x2,-0xab8(%rbp)
    640e:	00 00 00 
    6411:	c7 85 4c f5 ff ff 24 	movl   $0xc88cd924,-0xab4(%rbp)
    6418:	d9 8c c8 
    641b:	c7 85 50 f5 ff ff fd 	movl   $0xfffffffd,-0xab0(%rbp)
    6422:	ff ff ff 
    6425:	c7 85 70 f8 ff ff d7 	movl   $0x8ad795d7,-0x790(%rbp)
    642c:	95 d7 8a 
    642f:	c7 85 74 f8 ff ff ff 	movl   $0xffffffff,-0x78c(%rbp)
    6436:	ff ff ff 
    6439:	c7 85 78 f8 ff ff d7 	movl   $0x8ad795d7,-0x788(%rbp)
    6440:	95 d7 8a 
    6443:	c7 85 7c f8 ff ff ff 	movl   $0xffffffff,-0x784(%rbp)
    644a:	ff ff ff 
    644d:	c7 85 80 f8 ff ff d7 	movl   $0x8ad795d7,-0x780(%rbp)
    6454:	95 d7 8a 
    6457:	c7 85 84 f8 ff ff ff 	movl   $0xffffffff,-0x77c(%rbp)
    645e:	ff ff ff 
    6461:	c7 85 88 f8 ff ff d7 	movl   $0x8ad795d7,-0x778(%rbp)
    6468:	95 d7 8a 
    646b:	c7 85 8c f8 ff ff ff 	movl   $0xffffffff,-0x774(%rbp)
    6472:	ff ff ff 
    6475:	c7 85 90 f8 ff ff f7 	movl   $0xfffffff7,-0x770(%rbp)
    647c:	ff ff ff 
    647f:	c7 85 94 f8 ff ff f7 	movl   $0xfffffff7,-0x76c(%rbp)
    6486:	ff ff ff 
    6489:	c7 85 98 f8 ff ff ff 	movl   $0xffffffff,-0x768(%rbp)
    6490:	ff ff ff 
    6493:	c7 85 9c f8 ff ff ff 	movl   $0xffffffff,-0x764(%rbp)
    649a:	ff ff ff 
    649d:	c7 85 a0 f8 ff ff f7 	movl   $0xfffffff7,-0x760(%rbp)
    64a4:	ff ff ff 
    64a7:	c7 85 a4 f8 ff ff f7 	movl   $0xfffffff7,-0x75c(%rbp)
    64ae:	ff ff ff 
    64b1:	c7 85 a8 f8 ff ff fb 	movl   $0x66d91cfb,-0x758(%rbp)
    64b8:	1c d9 66 
    64bb:	c7 85 ac f8 ff ff ff 	movl   $0xffffffff,-0x754(%rbp)
    64c2:	ff ff ff 
    64c5:	c7 85 b0 f8 ff ff fb 	movl   $0x66d91cfb,-0x750(%rbp)
    64cc:	1c d9 66 
    64cf:	c7 85 b4 f8 ff ff ff 	movl   $0xffffffff,-0x74c(%rbp)
    64d6:	ff ff ff 
    64d9:	c7 85 b8 f8 ff ff fb 	movl   $0x66d91cfb,-0x748(%rbp)
    64e0:	1c d9 66 
    64e3:	c7 85 bc f8 ff ff ff 	movl   $0xffffffff,-0x744(%rbp)
    64ea:	ff ff ff 
    64ed:	c7 85 c0 f8 ff ff fb 	movl   $0x66d91cfb,-0x740(%rbp)
    64f4:	1c d9 66 
    64f7:	c7 85 c4 f8 ff ff ff 	movl   $0xffffffff,-0x73c(%rbp)
    64fe:	ff ff ff 
    6501:	c7 85 c8 f8 ff ff ff 	movl   $0xffffffff,-0x738(%rbp)
    6508:	ff ff ff 
    650b:	c7 85 cc f8 ff ff f7 	movl   $0xfffffff7,-0x734(%rbp)
    6512:	ff ff ff 
    6515:	c7 85 d0 f8 ff ff f7 	movl   $0xfffffff7,-0x730(%rbp)
    651c:	ff ff ff 
    651f:	c7 85 d4 f8 ff ff ff 	movl   $0xffffffff,-0x72c(%rbp)
    6526:	ff ff ff 
    6529:	c7 85 d8 f8 ff ff ff 	movl   $0xffffffff,-0x728(%rbp)
    6530:	ff ff ff 
    6533:	c7 85 dc f8 ff ff f7 	movl   $0xfffffff7,-0x724(%rbp)
    653a:	ff ff ff 
    653d:	c7 85 e0 f8 ff ff d7 	movl   $0x8ad795d7,-0x720(%rbp)
    6544:	95 d7 8a 
    6547:	c7 85 e4 f8 ff ff ff 	movl   $0xffffffff,-0x71c(%rbp)
    654e:	ff ff ff 
    6551:	c7 85 e8 f8 ff ff d7 	movl   $0x8ad795d7,-0x718(%rbp)
    6558:	95 d7 8a 
    655b:	c7 85 ec f8 ff ff ff 	movl   $0xffffffff,-0x714(%rbp)
    6562:	ff ff ff 
    6565:	c7 85 f0 f8 ff ff d7 	movl   $0x8ad795d7,-0x710(%rbp)
    656c:	95 d7 8a 
    656f:	c7 85 f4 f8 ff ff ff 	movl   $0xffffffff,-0x70c(%rbp)
    6576:	ff ff ff 
    6579:	c7 85 f8 f8 ff ff d7 	movl   $0x8ad795d7,-0x708(%rbp)
    6580:	95 d7 8a 
    6583:	c7 85 fc f8 ff ff ff 	movl   $0xffffffff,-0x704(%rbp)
    658a:	ff ff ff 
    658d:	c7 85 00 f9 ff ff f7 	movl   $0xfffffff7,-0x700(%rbp)
    6594:	ff ff ff 
    6597:	c7 85 04 f9 ff ff f7 	movl   $0xfffffff7,-0x6fc(%rbp)
    659e:	ff ff ff 
    65a1:	c7 85 08 f9 ff ff ff 	movl   $0xffffffff,-0x6f8(%rbp)
    65a8:	ff ff ff 
    65ab:	c7 85 0c f9 ff ff ff 	movl   $0xffffffff,-0x6f4(%rbp)
    65b2:	ff ff ff 
    65b5:	c7 85 10 f9 ff ff f7 	movl   $0xfffffff7,-0x6f0(%rbp)
    65bc:	ff ff ff 
    65bf:	c7 85 14 f9 ff ff f7 	movl   $0xfffffff7,-0x6ec(%rbp)
    65c6:	ff ff ff 
    65c9:	c7 85 18 f9 ff ff fb 	movl   $0x66d91cfb,-0x6e8(%rbp)
    65d0:	1c d9 66 
    65d3:	c7 85 1c f9 ff ff ff 	movl   $0xffffffff,-0x6e4(%rbp)
    65da:	ff ff ff 
    65dd:	c7 85 20 f9 ff ff fb 	movl   $0x66d91cfb,-0x6e0(%rbp)
    65e4:	1c d9 66 
    65e7:	c7 85 24 f9 ff ff ff 	movl   $0xffffffff,-0x6dc(%rbp)
    65ee:	ff ff ff 
    65f1:	c7 85 28 f9 ff ff fb 	movl   $0x66d91cfb,-0x6d8(%rbp)
    65f8:	1c d9 66 
    65fb:	c7 85 2c f9 ff ff ff 	movl   $0xffffffff,-0x6d4(%rbp)
    6602:	ff ff ff 
    6605:	c7 85 30 f9 ff ff fb 	movl   $0x66d91cfb,-0x6d0(%rbp)
    660c:	1c d9 66 
    660f:	66 c7 85 d6 f4 ff ff 	movw   $0x5290,-0xb2a(%rbp)
    6616:	90 52 
    6618:	8b 85 cc f4 ff ff    	mov    -0xb34(%rbp),%eax
    661e:	85 c0                	test   %eax,%eax
    6620:	0f 85 e3 0d 00 00    	jne    7409 <func_8+0x210c>
    6626:	66 c7 05 82 96 00 00 	movw   $0x0,0x9682(%rip)        # fcb1 <g_473+0x1>
    662d:	00 00 
    662f:	90                   	nop
    6630:	0f b7 05 7a 96 00 00 	movzwl 0x967a(%rip),%eax        # fcb1 <g_473+0x1>
    6637:	66 83 f8 04          	cmp    $0x4,%ax
    663b:	0f 87 68 03 00 00    	ja     69a9 <func_8+0x16ac>
    6641:	66 c7 85 d8 f4 ff ff 	movw   $0x1,-0xb28(%rbp)
    6648:	01 00 
    664a:	48 8d 85 20 fa ff ff 	lea    -0x5e0(%rbp),%rax
    6651:	48 8d 15 28 4a 00 00 	lea    0x4a28(%rip),%rdx        # b080 <g_260+0x20>
    6658:	b9 28 00 00 00       	mov    $0x28,%ecx
    665d:	48 89 c7             	mov    %rax,%rdi
    6660:	48 89 d6             	mov    %rdx,%rsi
    6663:	f3 48 a5             	rep movsq %ds:(%rsi),%es:(%rdi)
    6666:	48 89 f2             	mov    %rsi,%rdx
    6669:	48 89 f8             	mov    %rdi,%rax
    666c:	8b 0a                	mov    (%rdx),%ecx
    666e:	89 08                	mov    %ecx,(%rax)
    6670:	48 8d 40 04          	lea    0x4(%rax),%rax
    6674:	48 8d 52 04          	lea    0x4(%rdx),%rdx
    6678:	48 b8 cd ec a0 51 0b 	movabs $0x58d51e0b51a0eccd,%rax
    667f:	1e d5 58 
    6682:	48 89 85 60 f6 ff ff 	mov    %rax,-0x9a0(%rbp)
    6689:	48 c7 05 a7 90 00 00 	movq   $0x0,0x90a7(%rip)        # f73b <g_397+0xb>
    6690:	00 00 00 00 
    6694:	e9 7e 02 00 00       	jmpq   6917 <func_8+0x161a>
    6699:	c7 85 54 f5 ff ff dc 	movl   $0xc34c39dc,-0xaac(%rbp)
    66a0:	39 4c c3 
    66a3:	48 c7 85 68 f6 ff ff 	movq   $0x0,-0x998(%rbp)
    66aa:	00 00 00 00 
    66ae:	48 8d 05 5b 90 00 00 	lea    0x905b(%rip),%rax        # f710 <g_337>
    66b5:	48 89 85 70 f6 ff ff 	mov    %rax,-0x990(%rbp)
    66bc:	48 8d 05 9d b7 00 00 	lea    0xb79d(%rip),%rax        # 11e60 <g_158>
    66c3:	48 89 85 78 f6 ff ff 	mov    %rax,-0x988(%rbp)
    66ca:	48 8d 85 20 f8 ff ff 	lea    -0x7e0(%rbp),%rax
    66d1:	48 89 85 80 f6 ff ff 	mov    %rax,-0x980(%rbp)
    66d8:	48 8d 05 b9 8c 00 00 	lea    0x8cb9(%rip),%rax        # f398 <g_166>
    66df:	48 89 85 88 f6 ff ff 	mov    %rax,-0x978(%rbp)
    66e6:	48 8d 85 70 fb ff ff 	lea    -0x490(%rbp),%rax
    66ed:	48 8d 15 ec 4a 00 00 	lea    0x4aec(%rip),%rdx        # b1e0 <g_260+0x180>
    66f4:	b9 7e 00 00 00       	mov    $0x7e,%ecx
    66f9:	48 89 c7             	mov    %rax,%rdi
    66fc:	48 89 d6             	mov    %rdx,%rsi
    66ff:	f3 48 a5             	rep movsq %ds:(%rsi),%es:(%rdi)
    6702:	48 8d 05 a2 90 00 00 	lea    0x90a2(%rip),%rax        # f7ab <g_439+0xb>
    6709:	48 89 85 90 f6 ff ff 	mov    %rax,-0x970(%rbp)
    6710:	48 b8 39 eb 91 aa 3d 	movabs $0x44a2b3daa91eb39,%rax
    6717:	2b 4a 04 
    671a:	48 89 85 98 f6 ff ff 	mov    %rax,-0x968(%rbp)
    6721:	c7 85 ec f4 ff ff 00 	movl   $0x0,-0xb14(%rbp)
    6728:	00 00 00 
    672b:	eb 1e                	jmp    674b <func_8+0x144e>
    672d:	8b 85 ec f4 ff ff    	mov    -0xb14(%rbp),%eax
    6733:	48 98                	cltq   
    6735:	48 8d 15 1c b7 00 00 	lea    0xb71c(%rip),%rdx        # 11e58 <g_159>
    673c:	48 89 94 c5 20 f8 ff 	mov    %rdx,-0x7e0(%rbp,%rax,8)
    6743:	ff 
    6744:	83 85 ec f4 ff ff 01 	addl   $0x1,-0xb14(%rbp)
    674b:	83 bd ec f4 ff ff 02 	cmpl   $0x2,-0xb14(%rbp)
    6752:	7e d9                	jle    672d <func_8+0x1430>
    6754:	48 8b 05 fd b6 00 00 	mov    0xb6fd(%rip),%rax        # 11e58 <g_159>
    675b:	44 8b 20             	mov    (%rax),%r12d
    675e:	8b 85 cc f4 ff ff    	mov    -0xb34(%rbp),%eax
    6764:	0f b7 d8             	movzwl %ax,%ebx
    6767:	48 8b 85 70 f6 ff ff 	mov    -0x990(%rbp),%rax
    676e:	8b 00                	mov    (%rax),%eax
    6770:	8d 50 01             	lea    0x1(%rax),%edx
    6773:	48 8b 85 70 f6 ff ff 	mov    -0x990(%rbp),%rax
    677a:	89 10                	mov    %edx,(%rax)
    677c:	48 8b 85 78 f6 ff ff 	mov    -0x988(%rbp),%rax
    6783:	48 8d 15 ce b6 00 00 	lea    0xb6ce(%rip),%rdx        # 11e58 <g_159>
    678a:	48 89 10             	mov    %rdx,(%rax)
    678d:	48 8b 85 78 f6 ff ff 	mov    -0x988(%rbp),%rax
    6794:	48 8b 10             	mov    (%rax),%rdx
    6797:	48 8b 85 80 f6 ff ff 	mov    -0x980(%rbp),%rax
    679e:	48 89 10             	mov    %rdx,(%rax)
    67a1:	c6 05 ec 8b 00 00 01 	movb   $0x1,0x8bec(%rip)        # f394 <g_123>
    67a8:	66 83 bd d8 f4 ff ff 	cmpw   $0x0,-0xb28(%rbp)
    67af:	00 
    67b0:	74 07                	je     67b9 <func_8+0x14bc>
    67b2:	b8 01 00 00 00       	mov    $0x1,%eax
    67b7:	eb 05                	jmp    67be <func_8+0x14c1>
    67b9:	b8 00 00 00 00       	mov    $0x0,%eax
    67be:	83 f8 ff             	cmp    $0xffffffff,%eax
    67c1:	0f 9c c0             	setl   %al
    67c4:	0f b6 d0             	movzbl %al,%edx
    67c7:	8b 05 1a 90 00 00    	mov    0x901a(%rip),%eax        # f7e7 <g_455+0x7>
    67cd:	31 c2                	xor    %eax,%edx
    67cf:	8b 85 cc f4 ff ff    	mov    -0xb34(%rbp),%eax
    67d5:	39 c2                	cmp    %eax,%edx
    67d7:	0f 9c c0             	setl   %al
    67da:	0f b6 d0             	movzbl %al,%edx
    67dd:	48 8b 85 88 f6 ff ff 	mov    -0x978(%rbp),%rax
    67e4:	0f b7 00             	movzwl (%rax),%eax
    67e7:	31 c2                	xor    %eax,%edx
    67e9:	48 8b 85 88 f6 ff ff 	mov    -0x978(%rbp),%rax
    67f0:	66 89 10             	mov    %dx,(%rax)
    67f3:	8b 85 54 f5 ff ff    	mov    -0xaac(%rbp),%eax
    67f9:	34 fe                	xor    $0xfe,%al
    67fb:	89 85 b0 fb ff ff    	mov    %eax,-0x450(%rbp)
    6801:	8b 85 b0 fb ff ff    	mov    -0x450(%rbp),%eax
    6807:	89 c7                	mov    %eax,%edi
    6809:	e8 98 d6 ff ff       	callq  3ea6 <safe_unary_minus_func_uint32_t_u>
    680e:	48 8d 05 33 b6 00 00 	lea    0xb633(%rip),%rax        # 11e48 <g_141>
    6815:	48 39 85 c0 f5 ff ff 	cmp    %rax,-0xa40(%rbp)
    681c:	0f 95 c0             	setne  %al
    681f:	0f b6 c0             	movzbl %al,%eax
    6822:	8b 95 3c f5 ff ff    	mov    -0xac4(%rbp),%edx
    6828:	89 d6                	mov    %edx,%esi
    682a:	89 c7                	mov    %eax,%edi
    682c:	e8 61 cc ff ff       	callq  3492 <safe_lshift_func_int16_t_s_s>
    6831:	48 8b 15 d8 b5 00 00 	mov    0xb5d8(%rip),%rdx        # 11e10 <g_50>
    6838:	48 8b 12             	mov    (%rdx),%rdx
    683b:	8b 12                	mov    (%rdx),%edx
    683d:	21 c2                	and    %eax,%edx
    683f:	48 8b 85 88 f5 ff ff 	mov    -0xa78(%rbp),%rax
    6846:	48 8b 00             	mov    (%rax),%rax
    6849:	8b 00                	mov    (%rax),%eax
    684b:	09 d0                	or     %edx,%eax
    684d:	66 0d de de          	or     $0xdede,%ax
    6851:	0f b7 c0             	movzwl %ax,%eax
    6854:	be ff ff 00 00       	mov    $0xffff,%esi
    6859:	89 c7                	mov    %eax,%edi
    685b:	e8 fc d4 ff ff       	callq  3d5c <safe_mod_func_uint16_t_u_u>
    6860:	0f b7 c0             	movzwl %ax,%eax
    6863:	83 e0 09             	and    $0x9,%eax
    6866:	48 3d be de 9f 2f    	cmp    $0x2f9fdebe,%rax
    686c:	0f 96 c0             	setbe  %al
    686f:	0f b6 d0             	movzbl %al,%edx
    6872:	48 8b 85 90 f6 ff ff 	mov    -0x970(%rbp),%rax
    6879:	48 89 10             	mov    %rdx,(%rax)
    687c:	89 de                	mov    %ebx,%esi
    687e:	bf 5b 38 00 00       	mov    $0x385b,%edi
    6883:	e8 06 d5 ff ff       	callq  3d8e <safe_div_func_uint16_t_u_u>
    6888:	0f b7 c0             	movzwl %ax,%eax
    688b:	be 01 00 00 00       	mov    $0x1,%esi
    6890:	48 89 c7             	mov    %rax,%rdi
    6893:	e8 a9 cf ff ff       	callq  3841 <safe_add_func_int64_t_s_s>
    6898:	25 95 50 00 00       	and    $0x5095,%eax
    689d:	48 83 f8 ff          	cmp    $0xffffffffffffffff,%rax
    68a1:	74 10                	je     68b3 <func_8+0x15b6>
    68a3:	83 bd 3c f5 ff ff 00 	cmpl   $0x0,-0xac4(%rbp)
    68aa:	74 07                	je     68b3 <func_8+0x15b6>
    68ac:	b8 01 00 00 00       	mov    $0x1,%eax
    68b1:	eb 05                	jmp    68b8 <func_8+0x15bb>
    68b3:	b8 00 00 00 00       	mov    $0x0,%eax
    68b8:	44 89 e2             	mov    %r12d,%edx
    68bb:	09 c2                	or     %eax,%edx
    68bd:	8b 85 e8 f4 ff ff    	mov    -0xb18(%rbp),%eax
    68c3:	21 d0                	and    %edx,%eax
    68c5:	89 85 e8 f4 ff ff    	mov    %eax,-0xb18(%rbp)
    68cb:	48 8b 05 3e b5 00 00 	mov    0xb53e(%rip),%rax        # 11e10 <g_50>
    68d2:	48 8b 00             	mov    (%rax),%rax
    68d5:	8b 08                	mov    (%rax),%ecx
    68d7:	66 83 bd d8 f4 ff ff 	cmpw   $0x0,-0xb28(%rbp)
    68de:	00 
    68df:	0f 94 c2             	sete   %dl
    68e2:	0f b6 d2             	movzbl %dl,%edx
    68e5:	31 ca                	xor    %ecx,%edx
    68e7:	89 10                	mov    %edx,(%rax)
    68e9:	48 8b 15 20 b5 00 00 	mov    0xb520(%rip),%rdx        # 11e10 <g_50>
    68f0:	48 8b 05 19 b5 00 00 	mov    0xb519(%rip),%rax        # 11e10 <g_50>
    68f7:	48 8b 12             	mov    (%rdx),%rdx
    68fa:	48 89 10             	mov    %rdx,(%rax)
    68fd:	48 83 85 98 f6 ff ff 	addq   $0x1,-0x968(%rbp)
    6904:	01 
    6905:	48 8b 05 2f 8e 00 00 	mov    0x8e2f(%rip),%rax        # f73b <g_397+0xb>
    690c:	48 83 c0 01          	add    $0x1,%rax
    6910:	48 89 05 24 8e 00 00 	mov    %rax,0x8e24(%rip)        # f73b <g_397+0xb>
    6917:	48 8b 05 1d 8e 00 00 	mov    0x8e1d(%rip),%rax        # f73b <g_397+0xb>
    691e:	48 83 f8 01          	cmp    $0x1,%rax
    6922:	0f 8e 71 fd ff ff    	jle    6699 <func_8+0x139c>
    6928:	80 bd d3 f4 ff ff 00 	cmpb   $0x0,-0xb2d(%rbp)
    692f:	75 77                	jne    69a8 <func_8+0x16ab>
    6931:	48 8b 05 58 b6 00 00 	mov    0xb658(%rip),%rax        # 11f90 <g_460>
    6938:	8b 10                	mov    (%rax),%edx
    693a:	8b 05 60 91 00 00    	mov    0x9160(%rip),%eax        # faa0 <g_469+0x40>
    6940:	83 e0 01             	and    $0x1,%eax
    6943:	89 05 57 91 00 00    	mov    %eax,0x9157(%rip)        # faa0 <g_469+0x40>
    6949:	8b 05 51 91 00 00    	mov    0x9151(%rip),%eax        # faa0 <g_469+0x40>
    694f:	39 c2                	cmp    %eax,%edx
    6951:	7c 1c                	jl     696f <func_8+0x1672>
    6953:	0f b7 05 57 93 00 00 	movzwl 0x9357(%rip),%eax        # fcb1 <g_473+0x1>
    695a:	66 85 c0             	test   %ax,%ax
    695d:	0f 85 a0 ef ff ff    	jne    5903 <func_8+0x606>
    6963:	66 83 bd d6 f4 ff ff 	cmpw   $0x0,-0xb2a(%rbp)
    696a:	00 
    696b:	74 30                	je     699d <func_8+0x16a0>
    696d:	eb 3a                	jmp    69a9 <func_8+0x16ac>
    696f:	8b 85 48 f5 ff ff    	mov    -0xab8(%rbp),%eax
    6975:	0f bf d0             	movswl %ax,%edx
    6978:	0f b6 05 b9 92 00 00 	movzbl 0x92b9(%rip),%eax        # fc38 <g_472+0x98>
    697f:	83 e0 03             	and    $0x3,%eax
    6982:	0f b6 c0             	movzbl %al,%eax
    6985:	89 d6                	mov    %edx,%esi
    6987:	89 c7                	mov    %eax,%edi
    6989:	e8 c7 ca ff ff       	callq  3455 <safe_div_func_int16_t_s_s>
    698e:	48 8b 05 73 b4 00 00 	mov    0xb473(%rip),%rax        # 11e08 <g_51>
    6995:	8b 95 c4 fa ff ff    	mov    -0x53c(%rbp),%edx
    699b:	89 10                	mov    %edx,(%rax)
    699d:	8b 85 cc f4 ff ff    	mov    -0xb34(%rbp),%eax
    69a3:	e9 6b 0a 00 00       	jmpq   7413 <func_8+0x2116>
    69a8:	90                   	nop
    69a9:	8b 05 88 8e 00 00    	mov    0x8e88(%rip),%eax        # f837 <g_463+0x7>
    69af:	83 c0 01             	add    $0x1,%eax
    69b2:	89 05 7f 8e 00 00    	mov    %eax,0x8e7f(%rip)        # f837 <g_463+0x7>
    69b8:	8b 05 79 8e 00 00    	mov    0x8e79(%rip),%eax        # f837 <g_463+0x7>
    69be:	83 f8 01             	cmp    $0x1,%eax
    69c1:	0f 8e 2f fa ff ff    	jle    63f6 <func_8+0x10f9>
    69c7:	e9 41 0a 00 00       	jmpq   740d <func_8+0x2110>
    69cc:	48 8d 05 c5 89 00 00 	lea    0x89c5(%rip),%rax        # f398 <g_166>
    69d3:	48 89 85 10 f6 ff ff 	mov    %rax,-0x9f0(%rbp)
    69da:	c7 85 30 f5 ff ff 05 	movl   $0x5,-0xad0(%rbp)
    69e1:	00 00 00 
    69e4:	c7 85 34 f5 ff ff 05 	movl   $0x5,-0xacc(%rbp)
    69eb:	00 00 00 
    69ee:	48 8d 85 70 fb ff ff 	lea    -0x490(%rbp),%rax
    69f5:	48 8d 15 e4 a8 00 00 	lea    0xa8e4(%rip),%rdx        # 112e0 <g_793+0x200>
    69fc:	b9 64 00 00 00       	mov    $0x64,%ecx
    6a01:	48 89 c7             	mov    %rax,%rdi
    6a04:	48 89 d6             	mov    %rdx,%rsi
    6a07:	f3 48 a5             	rep movsq %ds:(%rsi),%es:(%rdi)
    6a0a:	c7 85 dc f4 ff ff 00 	movl   $0x0,-0xb24(%rbp)
    6a11:	00 00 00 
    6a14:	eb 6f                	jmp    6a85 <func_8+0x1788>
    6a16:	c7 85 e0 f4 ff ff 00 	movl   $0x0,-0xb20(%rbp)
    6a1d:	00 00 00 
    6a20:	eb 53                	jmp    6a75 <func_8+0x1778>
    6a22:	c7 85 fc f4 ff ff 00 	movl   $0x0,-0xb04(%rbp)
    6a29:	00 00 00 
    6a2c:	eb 37                	jmp    6a65 <func_8+0x1768>
    6a2e:	8b 85 fc f4 ff ff    	mov    -0xb04(%rbp),%eax
    6a34:	48 98                	cltq   
    6a36:	8b 95 dc f4 ff ff    	mov    -0xb24(%rbp),%edx
    6a3c:	48 63 ca             	movslq %edx,%rcx
    6a3f:	8b 95 e0 f4 ff ff    	mov    -0xb20(%rbp),%edx
    6a45:	48 63 d2             	movslq %edx,%rdx
    6a48:	48 01 ca             	add    %rcx,%rdx
    6a4b:	48 c1 e2 03          	shl    $0x3,%rdx
    6a4f:	48 01 d0             	add    %rdx,%rax
    6a52:	48 c7 84 c5 20 fa ff 	movq   $0x0,-0x5e0(%rbp,%rax,8)
    6a59:	ff 00 00 00 00 
    6a5e:	83 85 fc f4 ff ff 01 	addl   $0x1,-0xb04(%rbp)
    6a65:	83 bd fc f4 ff ff 07 	cmpl   $0x7,-0xb04(%rbp)
    6a6c:	7e c0                	jle    6a2e <func_8+0x1731>
    6a6e:	83 85 e0 f4 ff ff 01 	addl   $0x1,-0xb20(%rbp)
    6a75:	83 bd e0 f4 ff ff 00 	cmpl   $0x0,-0xb20(%rbp)
    6a7c:	7e a4                	jle    6a22 <func_8+0x1725>
    6a7e:	83 85 dc f4 ff ff 01 	addl   $0x1,-0xb24(%rbp)
    6a85:	83 bd dc f4 ff ff 02 	cmpl   $0x2,-0xb24(%rbp)
    6a8c:	7e 88                	jle    6a16 <func_8+0x1719>
    6a8e:	48 c7 05 b2 8f 00 00 	movq   $0xffffffffffffffed,0x8fb2(%rip)        # fa4b <g_468+0xb>
    6a95:	ed ff ff ff 
    6a99:	90                   	nop
    6a9a:	48 8b 05 aa 8f 00 00 	mov    0x8faa(%rip),%rax        # fa4b <g_468+0xb>
    6aa1:	48 83 f8 14          	cmp    $0x14,%rax
    6aa5:	0f 8f fc 00 00 00    	jg     6ba7 <func_8+0x18aa>
    6aab:	48 8d 85 88 f5 ff ff 	lea    -0xa78(%rbp),%rax
    6ab2:	48 89 85 98 f5 ff ff 	mov    %rax,-0xa68(%rbp)
    6ab9:	48 8d 85 98 f5 ff ff 	lea    -0xa68(%rbp),%rax
    6ac0:	48 89 85 50 f6 ff ff 	mov    %rax,-0x9b0(%rbp)
    6ac7:	48 8d 85 40 f9 ff ff 	lea    -0x6c0(%rbp),%rax
    6ace:	48 83 c0 40          	add    $0x40,%rax
    6ad2:	48 89 85 58 f6 ff ff 	mov    %rax,-0x9a8(%rbp)
    6ad9:	48 8b 95 80 f9 ff ff 	mov    -0x680(%rbp),%rdx
    6ae0:	48 8b 85 58 f6 ff ff 	mov    -0x9a8(%rbp),%rax
    6ae7:	48 89 10             	mov    %rdx,(%rax)
    6aea:	48 8b 85 58 f6 ff ff 	mov    -0x9a8(%rbp),%rax
    6af1:	48 8b 00             	mov    (%rax),%rax
    6af4:	48 39 85 50 f6 ff ff 	cmp    %rax,-0x9b0(%rbp)
    6afb:	74 0e                	je     6b0b <func_8+0x180e>
    6afd:	48 8b 85 88 f5 ff ff 	mov    -0xa78(%rbp),%rax
    6b04:	48 8b 00             	mov    (%rax),%rax
    6b07:	8b 00                	mov    (%rax),%eax
    6b09:	85 c0                	test   %eax,%eax
    6b0b:	48 8b 85 b0 fa ff ff 	mov    -0x550(%rbp),%rax
    6b12:	48 8d 15 57 45 00 00 	lea    0x4557(%rip),%rdx        # b070 <g_260+0x10>
    6b19:	48 39 d0             	cmp    %rdx,%rax
    6b1c:	75 1b                	jne    6b39 <func_8+0x183c>
    6b1e:	0f b6 05 7b 8c 00 00 	movzbl 0x8c7b(%rip),%eax        # f7a0 <g_439>
    6b25:	83 e0 03             	and    $0x3,%eax
    6b28:	0f b6 c0             	movzbl %al,%eax
    6b2b:	89 c6                	mov    %eax,%esi
    6b2d:	bf 00 00 00 00       	mov    $0x0,%edi
    6b32:	e8 db c6 ff ff       	callq  3212 <safe_mul_func_int8_t_s_s>
    6b37:	84 c0                	test   %al,%al
    6b39:	48 8b 85 78 f5 ff ff 	mov    -0xa88(%rbp),%rax
    6b40:	48 39 85 10 f6 ff ff 	cmp    %rax,-0x9f0(%rbp)
    6b47:	0f 95 c0             	setne  %al
    6b4a:	0f b6 d0             	movzbl %al,%edx
    6b4d:	48 8b 05 ac b2 00 00 	mov    0xb2ac(%rip),%rax        # 11e00 <g_19>
    6b54:	8b 30                	mov    (%rax),%esi
    6b56:	48 8d 1d 83 8c 00 00 	lea    0x8c83(%rip),%rbx        # f7e0 <g_455>
    6b5d:	48 8d 85 a0 f4 ff ff 	lea    -0xb60(%rbp),%rax
    6b64:	8b 8d 30 f5 ff ff    	mov    -0xad0(%rbp),%ecx
    6b6a:	48 89 c7             	mov    %rax,%rdi
    6b6d:	e8 cb 0f 00 00       	callq  7b3d <func_20>
    6b72:	48 8b 85 a0 f4 ff ff 	mov    -0xb60(%rbp),%rax
    6b79:	48 8b 95 a8 f4 ff ff 	mov    -0xb58(%rbp),%rdx
    6b80:	48 89 03             	mov    %rax,(%rbx)
    6b83:	48 89 53 08          	mov    %rdx,0x8(%rbx)
    6b87:	0f b7 85 b0 f4 ff ff 	movzwl -0xb50(%rbp),%eax
    6b8e:	66 89 43 10          	mov    %ax,0x10(%rbx)
    6b92:	0f b6 85 b2 f4 ff ff 	movzbl -0xb4e(%rbp),%eax
    6b99:	88 43 12             	mov    %al,0x12(%rbx)
    6b9c:	8b 85 cc f4 ff ff    	mov    -0xb34(%rbp),%eax
    6ba2:	e9 6c 08 00 00       	jmpq   7413 <func_8+0x2116>
    6ba7:	8b 85 cc f4 ff ff    	mov    -0xb34(%rbp),%eax
    6bad:	0f bf d8             	movswl %ax,%ebx
    6bb0:	0f b7 05 e3 8e 00 00 	movzwl 0x8ee3(%rip),%eax        # fa9a <g_469+0x3a>
    6bb7:	44 0f b7 e0          	movzwl %ax,%r12d
    6bbb:	8b 95 cc f4 ff ff    	mov    -0xb34(%rbp),%edx
    6bc1:	8b 85 cc f4 ff ff    	mov    -0xb34(%rbp),%eax
    6bc7:	89 d6                	mov    %edx,%esi
    6bc9:	89 c7                	mov    %eax,%edi
    6bcb:	e8 35 ca ff ff       	callq  3605 <safe_sub_func_int32_t_s_s>
    6bd0:	48 8b 85 88 f5 ff ff 	mov    -0xa78(%rbp),%rax
    6bd7:	48 8b 00             	mov    (%rax),%rax
    6bda:	8b 00                	mov    (%rax),%eax
    6bdc:	0f be c0             	movsbl %al,%eax
    6bdf:	44 89 e6             	mov    %r12d,%esi
    6be2:	89 c7                	mov    %eax,%edi
    6be4:	e8 05 c7 ff ff       	callq  32ee <safe_lshift_func_int8_t_s_u>
    6be9:	48 8b 05 2b 8c 00 00 	mov    0x8c2b(%rip),%rax        # f81b <g_461+0xb>
    6bf0:	48 85 c0             	test   %rax,%rax
    6bf3:	0f 9e c0             	setle  %al
    6bf6:	88 05 20 85 00 00    	mov    %al,0x8520(%rip)        # f11c <g_90>
    6bfc:	0f b6 05 19 85 00 00 	movzbl 0x8519(%rip),%eax        # f11c <g_90>
    6c03:	0f be c0             	movsbl %al,%eax
    6c06:	89 c7                	mov    %eax,%edi
    6c08:	e8 b2 c5 ff ff       	callq  31bf <safe_unary_minus_func_int8_t_s>
    6c0d:	48 0f be c0          	movsbq %al,%rax
    6c11:	48 ba da 3e b8 7c 1a 	movabs $0xda3b731a7cb83eda,%rdx
    6c18:	73 3b da 
    6c1b:	48 09 d0             	or     %rdx,%rax
    6c1e:	48 89 c2             	mov    %rax,%rdx
    6c21:	8b 85 cc f4 ff ff    	mov    -0xb34(%rbp),%eax
    6c27:	48 98                	cltq   
    6c29:	48 89 d6             	mov    %rdx,%rsi
    6c2c:	48 89 c7             	mov    %rax,%rdi
    6c2f:	e8 80 cd ff ff       	callq  39b4 <safe_mod_func_int64_t_s_s>
    6c34:	89 de                	mov    %ebx,%esi
    6c36:	bf 9c b9 ff ff       	mov    $0xffffb99c,%edi
    6c3b:	e8 b5 c7 ff ff       	callq  33f5 <safe_mul_func_int16_t_s_s>
    6c40:	b8 00 00 00 00       	mov    $0x0,%eax
    6c45:	21 85 1c f5 ff ff    	and    %eax,-0xae4(%rbp)
    6c4b:	c7 05 f2 8d 00 00 00 	movl   $0x0,0x8df2(%rip)        # fa47 <g_468+0x7>
    6c52:	00 00 00 
    6c55:	90                   	nop
    6c56:	8b 05 eb 8d 00 00    	mov    0x8deb(%rip),%eax        # fa47 <g_468+0x7>
    6c5c:	83 f8 1c             	cmp    $0x1c,%eax
    6c5f:	0f 8e a8 07 00 00    	jle    740d <func_8+0x2110>
    6c65:	48 b8 e1 03 b7 17 62 	movabs $0x462aec6217b703e1,%rax
    6c6c:	ec 2a 46 
    6c6f:	48 89 85 20 f8 ff ff 	mov    %rax,-0x7e0(%rbp)
    6c76:	48 c7 85 28 f8 ff ff 	movq   $0x0,-0x7d8(%rbp)
    6c7d:	00 00 00 00 
    6c81:	48 89 85 30 f8 ff ff 	mov    %rax,-0x7d0(%rbp)
    6c88:	48 89 85 38 f8 ff ff 	mov    %rax,-0x7c8(%rbp)
    6c8f:	48 c7 85 40 f8 ff ff 	movq   $0x0,-0x7c0(%rbp)
    6c96:	00 00 00 00 
    6c9a:	48 89 85 48 f8 ff ff 	mov    %rax,-0x7b8(%rbp)
    6ca1:	48 89 85 50 f8 ff ff 	mov    %rax,-0x7b0(%rbp)
    6ca8:	48 c7 85 58 f8 ff ff 	movq   $0x0,-0x7a8(%rbp)
    6caf:	00 00 00 00 
    6cb3:	48 89 85 60 f8 ff ff 	mov    %rax,-0x7a0(%rbp)
    6cba:	48 89 85 68 f8 ff ff 	mov    %rax,-0x798(%rbp)
    6cc1:	c7 85 00 f5 ff ff 01 	movl   $0x1,-0xb00(%rbp)
    6cc8:	00 00 00 
    6ccb:	48 8d 05 ae 90 00 00 	lea    0x90ae(%rip),%rax        # fd80 <g_605>
    6cd2:	48 89 85 40 f7 ff ff 	mov    %rax,-0x8c0(%rbp)
    6cd9:	48 c7 85 48 f7 ff ff 	movq   $0x0,-0x8b8(%rbp)
    6ce0:	00 00 00 00 
    6ce4:	48 8d 05 95 90 00 00 	lea    0x9095(%rip),%rax        # fd80 <g_605>
    6ceb:	48 89 85 50 f7 ff ff 	mov    %rax,-0x8b0(%rbp)
    6cf2:	48 c7 85 58 f7 ff ff 	movq   $0x0,-0x8a8(%rbp)
    6cf9:	00 00 00 00 
    6cfd:	48 8d 05 7c 90 00 00 	lea    0x907c(%rip),%rax        # fd80 <g_605>
    6d04:	48 89 85 60 f7 ff ff 	mov    %rax,-0x8a0(%rbp)
    6d0b:	48 c7 85 68 f7 ff ff 	movq   $0x0,-0x898(%rbp)
    6d12:	00 00 00 00 
    6d16:	48 8d 05 63 90 00 00 	lea    0x9063(%rip),%rax        # fd80 <g_605>
    6d1d:	48 89 85 70 f7 ff ff 	mov    %rax,-0x890(%rbp)
    6d24:	48 c7 85 78 f7 ff ff 	movq   $0x0,-0x888(%rbp)
    6d2b:	00 00 00 00 
    6d2f:	48 8d 05 fb 89 00 00 	lea    0x89fb(%rip),%rax        # f731 <g_397+0x1>
    6d36:	48 89 85 18 f6 ff ff 	mov    %rax,-0x9e8(%rbp)
    6d3d:	48 8d 05 0d 8a 00 00 	lea    0x8a0d(%rip),%rax        # f751 <g_430+0x1>
    6d44:	48 89 85 20 f6 ff ff 	mov    %rax,-0x9e0(%rbp)
    6d4b:	8b 85 cc f4 ff ff    	mov    -0xb34(%rbp),%eax
    6d51:	98                   	cwtl   
    6d52:	be 86 96 ff ff       	mov    $0xffff9686,%esi
    6d57:	89 c7                	mov    %eax,%edi
    6d59:	e8 97 c6 ff ff       	callq  33f5 <safe_mul_func_int16_t_s_s>
    6d5e:	66 85 c0             	test   %ax,%ax
    6d61:	0f 84 72 04 00 00    	je     71d9 <func_8+0x1edc>
    6d67:	c7 85 38 f5 ff ff 30 	movl   $0x1c25ed30,-0xac8(%rbp)
    6d6e:	ed 25 1c 
    6d71:	48 c7 85 28 f6 ff ff 	movq   $0x0,-0x9d8(%rbp)
    6d78:	00 00 00 00 
    6d7c:	48 c7 85 30 f6 ff ff 	movq   $0x0,-0x9d0(%rbp)
    6d83:	00 00 00 00 
    6d87:	48 8d 05 f2 8f 00 00 	lea    0x8ff2(%rip),%rax        # fd80 <g_605>
    6d8e:	48 89 85 98 f5 ff ff 	mov    %rax,-0xa68(%rbp)
    6d95:	c7 85 04 f5 ff ff 00 	movl   $0x0,-0xafc(%rbp)
    6d9c:	00 00 00 
    6d9f:	eb 1e                	jmp    6dbf <func_8+0x1ac2>
    6da1:	8b 85 04 f5 ff ff    	mov    -0xafc(%rbp),%eax
    6da7:	48 98                	cltq   
    6da9:	48 8d 95 98 f5 ff ff 	lea    -0xa68(%rbp),%rdx
    6db0:	48 89 94 c5 b8 f6 ff 	mov    %rdx,-0x948(%rbp,%rax,8)
    6db7:	ff 
    6db8:	83 85 04 f5 ff ff 01 	addl   $0x1,-0xafc(%rbp)
    6dbf:	83 bd 04 f5 ff ff 00 	cmpl   $0x0,-0xafc(%rbp)
    6dc6:	7e d9                	jle    6da1 <func_8+0x1aa4>
    6dc8:	8b 85 cc f4 ff ff    	mov    -0xb34(%rbp),%eax
    6dce:	85 c0                	test   %eax,%eax
    6dd0:	74 43                	je     6e15 <func_8+0x1b18>
    6dd2:	48 b8 f3 92 6b 50 d7 	movabs $0xd8c8d3d7506b92f3,%rax
    6dd9:	d3 c8 d8 
    6ddc:	48 89 85 48 f6 ff ff 	mov    %rax,-0x9b8(%rbp)
    6de3:	48 8b 05 1e b0 00 00 	mov    0xb01e(%rip),%rax        # 11e08 <g_51>
    6dea:	48 8b 95 48 f6 ff ff 	mov    -0x9b8(%rbp),%rdx
    6df1:	89 10                	mov    %edx,(%rax)
    6df3:	8b 85 cc f4 ff ff    	mov    -0xb34(%rbp),%eax
    6df9:	85 c0                	test   %eax,%eax
    6dfb:	0f 85 0b 06 00 00    	jne    740c <func_8+0x210f>
    6e01:	48 8b 05 00 b0 00 00 	mov    0xb000(%rip),%rax        # 11e08 <g_51>
    6e08:	8b 00                	mov    (%rax),%eax
    6e0a:	31 85 10 f5 ff ff    	xor    %eax,-0xaf0(%rbp)
    6e10:	e9 96 03 00 00       	jmpq   71ab <func_8+0x1eae>
    6e15:	c7 85 c0 f6 ff ff 1e 	movl   $0xfd6031e,-0x940(%rbp)
    6e1c:	03 d6 0f 
    6e1f:	c7 85 c4 f6 ff ff 01 	movl   $0x1,-0x93c(%rbp)
    6e26:	00 00 00 
    6e29:	c7 85 c8 f6 ff ff 1e 	movl   $0xfd6031e,-0x938(%rbp)
    6e30:	03 d6 0f 
    6e33:	c7 85 cc f6 ff ff 1e 	movl   $0xfd6031e,-0x934(%rbp)
    6e3a:	03 d6 0f 
    6e3d:	c7 85 d0 f6 ff ff 01 	movl   $0x1,-0x930(%rbp)
    6e44:	00 00 00 
    6e47:	c7 85 d4 f6 ff ff 1e 	movl   $0xfd6031e,-0x92c(%rbp)
    6e4e:	03 d6 0f 
    6e51:	c7 85 d8 f6 ff ff 1e 	movl   $0xfd6031e,-0x928(%rbp)
    6e58:	03 d6 0f 
    6e5b:	48 8d 05 42 8c 00 00 	lea    0x8c42(%rip),%rax        # faa4 <g_469+0x44>
    6e62:	48 89 85 38 f6 ff ff 	mov    %rax,-0x9c8(%rbp)
    6e69:	48 8d 05 1b 89 00 00 	lea    0x891b(%rip),%rax        # f78b <g_438+0xb>
    6e70:	48 89 85 40 f6 ff ff 	mov    %rax,-0x9c0(%rbp)
    6e77:	c7 85 70 f8 ff ff ff 	movl   $0xffffffff,-0x790(%rbp)
    6e7e:	ff ff ff 
    6e81:	c7 85 74 f8 ff ff 01 	movl   $0x1,-0x78c(%rbp)
    6e88:	00 00 00 
    6e8b:	c7 85 78 f8 ff ff fa 	movl   $0xfffffffa,-0x788(%rbp)
    6e92:	ff ff ff 
    6e95:	c7 85 7c f8 ff ff 3b 	movl   $0xd1c0da3b,-0x784(%rbp)
    6e9c:	da c0 d1 
    6e9f:	c7 85 80 f8 ff ff 3b 	movl   $0xd1c0da3b,-0x780(%rbp)
    6ea6:	da c0 d1 
    6ea9:	c7 85 84 f8 ff ff 5e 	movl   $0x6139685e,-0x77c(%rbp)
    6eb0:	68 39 61 
    6eb3:	c7 85 88 f8 ff ff fb 	movl   $0xfffffffb,-0x778(%rbp)
    6eba:	ff ff ff 
    6ebd:	c7 85 8c f8 ff ff 5e 	movl   $0x6139685e,-0x774(%rbp)
    6ec4:	68 39 61 
    6ec7:	c7 85 90 f8 ff ff 6e 	movl   $0x31fda36e,-0x770(%rbp)
    6ece:	a3 fd 31 
    6ed1:	c7 85 94 f8 ff ff fb 	movl   $0xfffffffb,-0x76c(%rbp)
    6ed8:	ff ff ff 
    6edb:	c7 85 98 f8 ff ff 3b 	movl   $0xd1c0da3b,-0x768(%rbp)
    6ee2:	da c0 d1 
    6ee5:	c7 85 9c f8 ff ff 01 	movl   $0x1,-0x764(%rbp)
    6eec:	00 00 00 
    6eef:	c7 85 a0 f8 ff ff f9 	movl   $0xfffffff9,-0x760(%rbp)
    6ef6:	ff ff ff 
    6ef9:	c7 85 a4 f8 ff ff 3b 	movl   $0xd1c0da3b,-0x75c(%rbp)
    6f00:	da c0 d1 
    6f03:	c7 85 a8 f8 ff ff f9 	movl   $0xfffffff9,-0x758(%rbp)
    6f0a:	ff ff ff 
    6f0d:	c7 85 ac f8 ff ff eb 	movl   $0x4f2fabeb,-0x754(%rbp)
    6f14:	ab 2f 4f 
    6f17:	c7 85 b0 f8 ff ff eb 	movl   $0x4f2fabeb,-0x750(%rbp)
    6f1e:	ab 2f 4f 
    6f21:	c7 85 b4 f8 ff ff 01 	movl   $0x1,-0x74c(%rbp)
    6f28:	00 00 00 
    6f2b:	c7 85 b8 f8 ff ff fb 	movl   $0xfffffffb,-0x748(%rbp)
    6f32:	ff ff ff 
    6f35:	c7 85 bc f8 ff ff fa 	movl   $0xfffffffa,-0x744(%rbp)
    6f3c:	ff ff ff 
    6f3f:	c7 85 c0 f8 ff ff 01 	movl   $0x1,-0x740(%rbp)
    6f46:	00 00 00 
    6f49:	c7 85 c4 f8 ff ff ff 	movl   $0xffffffff,-0x73c(%rbp)
    6f50:	ff ff ff 
    6f53:	c7 85 c8 f8 ff ff f9 	movl   $0xfffffff9,-0x738(%rbp)
    6f5a:	ff ff ff 
    6f5d:	c7 85 cc f8 ff ff f9 	movl   $0xfffffff9,-0x734(%rbp)
    6f64:	ff ff ff 
    6f67:	c7 85 d0 f8 ff ff ff 	movl   $0xffffffff,-0x730(%rbp)
    6f6e:	ff ff ff 
    6f71:	c7 85 d4 f8 ff ff fa 	movl   $0xfffffffa,-0x72c(%rbp)
    6f78:	ff ff ff 
    6f7b:	c7 85 d8 f8 ff ff 01 	movl   $0x1,-0x728(%rbp)
    6f82:	00 00 00 
    6f85:	c7 85 dc f8 ff ff 5e 	movl   $0x6139685e,-0x724(%rbp)
    6f8c:	68 39 61 
    6f8f:	c7 85 e0 f8 ff ff fa 	movl   $0xfffffffa,-0x720(%rbp)
    6f96:	ff ff ff 
    6f99:	c7 85 e4 f8 ff ff 6e 	movl   $0x31fda36e,-0x71c(%rbp)
    6fa0:	a3 fd 31 
    6fa3:	c7 85 e8 f8 ff ff 01 	movl   $0x1,-0x718(%rbp)
    6faa:	00 00 00 
    6fad:	c7 85 ec f8 ff ff ff 	movl   $0xffffffff,-0x714(%rbp)
    6fb4:	ff ff ff 
    6fb7:	c7 85 f0 f8 ff ff fa 	movl   $0xfffffffa,-0x710(%rbp)
    6fbe:	ff ff ff 
    6fc1:	c7 85 f4 f8 ff ff ff 	movl   $0xffffffff,-0x70c(%rbp)
    6fc8:	ff ff ff 
    6fcb:	c7 85 f8 f8 ff ff 01 	movl   $0x1,-0x708(%rbp)
    6fd2:	00 00 00 
    6fd5:	c7 85 fc f8 ff ff 5e 	movl   $0x6139685e,-0x704(%rbp)
    6fdc:	68 39 61 
    6fdf:	c7 85 00 f9 ff ff eb 	movl   $0x4f2fabeb,-0x700(%rbp)
    6fe6:	ab 2f 4f 
    6fe9:	c7 85 04 f9 ff ff 01 	movl   $0x1,-0x6fc(%rbp)
    6ff0:	00 00 00 
    6ff3:	c7 85 08 f9 ff ff 6e 	movl   $0x31fda36e,-0x6f8(%rbp)
    6ffa:	a3 fd 31 
    6ffd:	c7 85 0c f9 ff ff eb 	movl   $0x4f2fabeb,-0x6f4(%rbp)
    7004:	ab 2f 4f 
    7007:	c7 85 10 f9 ff ff 01 	movl   $0x1,-0x6f0(%rbp)
    700e:	00 00 00 
    7011:	c7 85 14 f9 ff ff 01 	movl   $0x1,-0x6ec(%rbp)
    7018:	00 00 00 
    701b:	c7 85 18 f9 ff ff 01 	movl   $0x1,-0x6e8(%rbp)
    7022:	00 00 00 
    7025:	c7 85 1c f9 ff ff 01 	movl   $0x1,-0x6e4(%rbp)
    702c:	00 00 00 
    702f:	c7 85 20 f9 ff ff f9 	movl   $0xfffffff9,-0x6e0(%rbp)
    7036:	ff ff ff 
    7039:	48 8b 85 68 f8 ff ff 	mov    -0x798(%rbp),%rax
    7040:	48 83 c0 01          	add    $0x1,%rax
    7044:	48 89 85 68 f8 ff ff 	mov    %rax,-0x798(%rbp)
    704b:	8b 85 38 f5 ff ff    	mov    -0xac8(%rbp),%eax
    7051:	48 63 d8             	movslq %eax,%rbx
    7054:	0f b7 05 2b 8d 00 00 	movzwl 0x8d2b(%rip),%eax        # fd86 <g_605+0x6>
    705b:	c1 e0 05             	shl    $0x5,%eax
    705e:	66 c1 f8 09          	sar    $0x9,%ax
    7062:	44 0f b6 e0          	movzbl %al,%r12d
    7066:	8b 85 cc f4 ff ff    	mov    -0xb34(%rbp),%eax
    706c:	09 85 34 f5 ff ff    	or     %eax,-0xacc(%rbp)
    7072:	48 8b 05 87 ad 00 00 	mov    0xad87(%rip),%rax        # 11e00 <g_19>
    7079:	8b 00                	mov    (%rax),%eax
    707b:	85 c0                	test   %eax,%eax
    707d:	0f 95 c0             	setne  %al
    7080:	0f b6 c0             	movzbl %al,%eax
    7083:	48 8b 95 88 f5 ff ff 	mov    -0xa78(%rbp),%rdx
    708a:	48 8b 12             	mov    (%rdx),%rdx
    708d:	8b 12                	mov    (%rdx),%edx
    708f:	83 f2 2e             	xor    $0x2e,%edx
    7092:	89 c6                	mov    %eax,%esi
    7094:	89 d7                	mov    %edx,%edi
    7096:	e8 1d ce ff ff       	callq  3eb8 <safe_add_func_uint32_t_u_u>
    709b:	85 c0                	test   %eax,%eax
    709d:	74 7e                	je     711d <func_8+0x1e20>
    709f:	8b 85 cc f4 ff ff    	mov    -0xb34(%rbp),%eax
    70a5:	44 0f be e8          	movsbl %al,%r13d
    70a9:	8b 85 d4 f6 ff ff    	mov    -0x92c(%rbp),%eax
    70af:	89 c1                	mov    %eax,%ecx
    70b1:	48 8d 05 00 83 00 00 	lea    0x8300(%rip),%rax        # f3b8 <g_191>
    70b8:	48 89 05 79 ad 00 00 	mov    %rax,0xad79(%rip)        # 11e38 <g_142+0x18>
    70bf:	48 8b 05 72 ad 00 00 	mov    0xad72(%rip),%rax        # 11e38 <g_142+0x18>
    70c6:	48 89 85 00 fe ff ff 	mov    %rax,-0x200(%rbp)
    70cd:	48 8b 95 00 fe ff ff 	mov    -0x200(%rbp),%rdx
    70d4:	48 8b 05 bd ae 00 00 	mov    0xaebd(%rip),%rax        # 11f98 <g_745>
    70db:	48 39 c2             	cmp    %rax,%rdx
    70de:	0f 95 c0             	setne  %al
    70e1:	0f b6 c0             	movzbl %al,%eax
    70e4:	09 85 10 f5 ff ff    	or     %eax,-0xaf0(%rbp)
    70ea:	8b 85 10 f5 ff ff    	mov    -0xaf0(%rbp),%eax
    70f0:	98                   	cwtl   
    70f1:	89 ce                	mov    %ecx,%esi
    70f3:	89 c7                	mov    %eax,%edi
    70f5:	e8 69 c4 ff ff       	callq  3563 <safe_rshift_func_int16_t_s_u>
    70fa:	89 c2                	mov    %eax,%edx
    70fc:	48 8b 05 58 86 00 00 	mov    0x8658(%rip),%rax        # f75b <g_430+0xb>
    7103:	09 d0                	or     %edx,%eax
    7105:	0f be c0             	movsbl %al,%eax
    7108:	44 89 ee             	mov    %r13d,%esi
    710b:	89 c7                	mov    %eax,%edi
    710d:	e8 00 c1 ff ff       	callq  3212 <safe_mul_func_int8_t_s_s>
    7112:	84 c0                	test   %al,%al
    7114:	74 07                	je     711d <func_8+0x1e20>
    7116:	ba 01 00 00 00       	mov    $0x1,%edx
    711b:	eb 05                	jmp    7122 <func_8+0x1e25>
    711d:	ba 00 00 00 00       	mov    $0x0,%edx
    7122:	8b 85 cc f4 ff ff    	mov    -0xb34(%rbp),%eax
    7128:	39 c2                	cmp    %eax,%edx
    712a:	0f 9f c0             	setg   %al
    712d:	0f b6 c0             	movzbl %al,%eax
    7130:	44 89 e6             	mov    %r12d,%esi
    7133:	89 c7                	mov    %eax,%edi
    7135:	e8 20 ca ff ff       	callq  3b5a <safe_add_func_uint8_t_u_u>
    713a:	0f b6 d0             	movzbl %al,%edx
    713d:	48 8b 85 38 f6 ff ff 	mov    -0x9c8(%rbp),%rax
    7144:	48 89 10             	mov    %rdx,(%rax)
    7147:	48 8b 85 38 f6 ff ff 	mov    -0x9c8(%rbp),%rax
    714e:	48 8b 10             	mov    (%rax),%rdx
    7151:	48 8b 85 40 f6 ff ff 	mov    -0x9c0(%rbp),%rax
    7158:	48 89 10             	mov    %rdx,(%rax)
    715b:	48 8b 85 40 f6 ff ff 	mov    -0x9c0(%rbp),%rax
    7162:	48 8b 10             	mov    (%rax),%rdx
    7165:	8b 85 cc f4 ff ff    	mov    -0xb34(%rbp),%eax
    716b:	48 98                	cltq   
    716d:	48 31 d0             	xor    %rdx,%rax
    7170:	48 89 de             	mov    %rbx,%rsi
    7173:	48 89 c7             	mov    %rax,%rdi
    7176:	e8 c6 c6 ff ff       	callq  3841 <safe_add_func_int64_t_s_s>
    717b:	89 c2                	mov    %eax,%edx
    717d:	8b 85 20 f5 ff ff    	mov    -0xae0(%rbp),%eax
    7183:	21 d0                	and    %edx,%eax
    7185:	0f be d0             	movsbl %al,%edx
    7188:	8b 85 38 f5 ff ff    	mov    -0xac8(%rbp),%eax
    718e:	0f be c0             	movsbl %al,%eax
    7191:	89 d6                	mov    %edx,%esi
    7193:	89 c7                	mov    %eax,%edi
    7195:	e8 3a c0 ff ff       	callq  31d4 <safe_add_func_int8_t_s_s>
    719a:	8b 95 10 f9 ff ff    	mov    -0x6f0(%rbp),%edx
    71a0:	0f be c0             	movsbl %al,%eax
    71a3:	09 d0                	or     %edx,%eax
    71a5:	89 85 10 f9 ff ff    	mov    %eax,-0x6f0(%rbp)
    71ab:	c7 85 00 f5 ff ff 05 	movl   $0x5,-0xb00(%rbp)
    71b2:	00 00 00 
    71b5:	48 8b 95 88 f5 ff ff 	mov    -0xa78(%rbp),%rdx
    71bc:	48 8b 05 4d ac 00 00 	mov    0xac4d(%rip),%rax        # 11e10 <g_50>
    71c3:	48 8b 12             	mov    (%rdx),%rdx
    71c6:	48 89 10             	mov    %rdx,(%rax)
    71c9:	48 c7 85 48 f7 ff ff 	movq   $0x0,-0x8b8(%rbp)
    71d0:	00 00 00 00 
    71d4:	e9 dc 00 00 00       	jmpq   72b5 <func_8+0x1fb8>
    71d9:	c7 85 08 f5 ff ff 00 	movl   $0x0,-0xaf8(%rbp)
    71e0:	00 00 00 
    71e3:	eb 1a                	jmp    71ff <func_8+0x1f02>
    71e5:	8b 85 08 f5 ff ff    	mov    -0xaf8(%rbp),%eax
    71eb:	48 98                	cltq   
    71ed:	c7 84 85 70 f8 ff ff 	movl   $0x90eb7b45,-0x790(%rbp,%rax,4)
    71f4:	45 7b eb 90 
    71f8:	83 85 08 f5 ff ff 01 	addl   $0x1,-0xaf8(%rbp)
    71ff:	83 bd 08 f5 ff ff 08 	cmpl   $0x8,-0xaf8(%rbp)
    7206:	7e dd                	jle    71e5 <func_8+0x1ee8>
    7208:	66 c7 05 90 81 00 00 	movw   $0x0,0x8190(%rip)        # f3a1 <g_189+0x1>
    720f:	00 00 
    7211:	eb 2c                	jmp    723f <func_8+0x1f42>
    7213:	48 8b 05 86 ad 00 00 	mov    0xad86(%rip),%rax        # 11fa0 <g_761>
    721a:	48 8b 15 ef b1 00 00 	mov    0xb1ef(%rip),%rdx        # 12410 <g_760>
    7221:	48 89 10             	mov    %rdx,(%rax)
    7224:	0f b7 05 76 81 00 00 	movzwl 0x8176(%rip),%eax        # f3a1 <g_189+0x1>
    722b:	98                   	cwtl   
    722c:	be 07 00 00 00       	mov    $0x7,%esi
    7231:	89 c7                	mov    %eax,%edi
    7233:	e8 7b c1 ff ff       	callq  33b3 <safe_add_func_int16_t_s_s>
    7238:	66 89 05 62 81 00 00 	mov    %ax,0x8162(%rip)        # f3a1 <g_189+0x1>
    723f:	0f b7 05 5b 81 00 00 	movzwl 0x815b(%rip),%eax        # f3a1 <g_189+0x1>
    7246:	66 83 f8 31          	cmp    $0x31,%ax
    724a:	76 c7                	jbe    7213 <func_8+0x1f16>
    724c:	48 c7 05 c1 84 00 00 	movq   $0xfffffffffffffff1,0x84c1(%rip)        # f718 <g_379>
    7253:	f1 ff ff ff 
    7257:	eb 3d                	jmp    7296 <func_8+0x1f99>
    7259:	48 8b 05 30 ad 00 00 	mov    0xad30(%rip),%rax        # 11f90 <g_460>
    7260:	8b 00                	mov    (%rax),%eax
    7262:	85 c0                	test   %eax,%eax
    7264:	75 3f                	jne    72a5 <func_8+0x1fa8>
    7266:	48 8b 05 a3 ab 00 00 	mov    0xaba3(%rip),%rax        # 11e10 <g_50>
    726d:	48 8b 00             	mov    (%rax),%rax
    7270:	8b 10                	mov    (%rax),%edx
    7272:	81 f2 da a8 db 5a    	xor    $0x5adba8da,%edx
    7278:	89 10                	mov    %edx,(%rax)
    727a:	48 8b 05 97 84 00 00 	mov    0x8497(%rip),%rax        # f718 <g_379>
    7281:	be 04 00 00 00       	mov    $0x4,%esi
    7286:	89 c7                	mov    %eax,%edi
    7288:	e8 78 c3 ff ff       	callq  3605 <safe_sub_func_int32_t_s_s>
    728d:	48 98                	cltq   
    728f:	48 89 05 82 84 00 00 	mov    %rax,0x8482(%rip)        # f718 <g_379>
    7296:	48 8b 05 7b 84 00 00 	mov    0x847b(%rip),%rax        # f718 <g_379>
    729d:	48 83 f8 ed          	cmp    $0xffffffffffffffed,%rax
    72a1:	7c b6                	jl     7259 <func_8+0x1f5c>
    72a3:	eb 01                	jmp    72a6 <func_8+0x1fa9>
    72a5:	90                   	nop
    72a6:	8b 85 8c f8 ff ff    	mov    -0x774(%rbp),%eax
    72ac:	83 c0 01             	add    $0x1,%eax
    72af:	89 85 8c f8 ff ff    	mov    %eax,-0x774(%rbp)
    72b5:	48 8b 05 fc ab 00 00 	mov    0xabfc(%rip),%rax        # 11eb8 <g_262>
    72bc:	44 8b 20             	mov    (%rax),%r12d
    72bf:	8b 85 00 f5 ff ff    	mov    -0xb00(%rbp),%eax
    72c5:	0f b7 d8             	movzwl %ax,%ebx
    72c8:	48 8b 85 18 f6 ff ff 	mov    -0x9e8(%rbp),%rax
    72cf:	0f b7 00             	movzwl (%rax),%eax
    72d2:	8d 50 ff             	lea    -0x1(%rax),%edx
    72d5:	48 8b 85 18 f6 ff ff 	mov    -0x9e8(%rbp),%rax
    72dc:	66 89 10             	mov    %dx,(%rax)
    72df:	48 8b 85 18 f6 ff ff 	mov    -0x9e8(%rbp),%rax
    72e6:	0f b7 00             	movzwl (%rax),%eax
    72e9:	98                   	cwtl   
    72ea:	89 c6                	mov    %eax,%esi
    72ec:	bf 05 00 00 00       	mov    $0x5,%edi
    72f1:	e8 bd c0 ff ff       	callq  33b3 <safe_add_func_int16_t_s_s>
    72f6:	48 0f bf c0          	movswq %ax,%rax
    72fa:	48 ba 60 db 7e 9f f4 	movabs $0xf58c88f49f7edb60,%rdx
    7301:	88 8c f5 
    7304:	48 21 c2             	and    %rax,%rdx
    7307:	48 8b 05 4a ab 00 00 	mov    0xab4a(%rip),%rax        # 11e58 <g_159>
    730e:	8b 00                	mov    (%rax),%eax
    7310:	89 c0                	mov    %eax,%eax
    7312:	48 39 c2             	cmp    %rax,%rdx
    7315:	0f 95 c0             	setne  %al
    7318:	0f b6 c0             	movzbl %al,%eax
    731b:	89 de                	mov    %ebx,%esi
    731d:	89 c7                	mov    %eax,%edi
    731f:	e8 6a ca ff ff       	callq  3d8e <safe_div_func_uint16_t_u_u>
    7324:	66 85 c0             	test   %ax,%ax
    7327:	0f 94 c0             	sete   %al
    732a:	0f b6 d0             	movzbl %al,%edx
    732d:	48 8b 05 47 85 00 00 	mov    0x8547(%rip),%rax        # f87b <g_465+0xb>
    7334:	48 21 c2             	and    %rax,%rdx
    7337:	8b 85 cc f4 ff ff    	mov    -0xb34(%rbp),%eax
    733d:	48 98                	cltq   
    733f:	48 39 c2             	cmp    %rax,%rdx
    7342:	0f 95 c0             	setne  %al
    7345:	0f b6 c0             	movzbl %al,%eax
    7348:	41 39 c4             	cmp    %eax,%r12d
    734b:	0f 9d c0             	setge  %al
    734e:	0f b6 d0             	movzbl %al,%edx
    7351:	48 8b 05 e0 80 00 00 	mov    0x80e0(%rip),%rax        # f438 <g_312>
    7358:	c1 e0 0c             	shl    $0xc,%eax
    735b:	c1 f8 0c             	sar    $0xc,%eax
    735e:	89 c1                	mov    %eax,%ecx
    7360:	48 8b 05 99 7d 00 00 	mov    0x7d99(%rip),%rax        # f100 <g_53>
    7367:	48 85 c0             	test   %rax,%rax
    736a:	0f 94 c0             	sete   %al
    736d:	0f b6 c0             	movzbl %al,%eax
    7370:	39 c1                	cmp    %eax,%ecx
    7372:	0f 9f c0             	setg   %al
    7375:	0f b6 c0             	movzbl %al,%eax
    7378:	89 d6                	mov    %edx,%esi
    737a:	89 c7                	mov    %eax,%edi
    737c:	e8 74 c0 ff ff       	callq  33f5 <safe_mul_func_int16_t_s_s>
    7381:	66 85 c0             	test   %ax,%ax
    7384:	74 07                	je     738d <func_8+0x2090>
    7386:	b8 01 00 00 00       	mov    $0x1,%eax
    738b:	eb 05                	jmp    7392 <func_8+0x2095>
    738d:	b8 00 00 00 00       	mov    $0x0,%eax
    7392:	89 c2                	mov    %eax,%edx
    7394:	48 8b 85 20 f6 ff ff 	mov    -0x9e0(%rbp),%rax
    739b:	66 89 10             	mov    %dx,(%rax)
    739e:	48 8b 05 bb aa 00 00 	mov    0xaabb(%rip),%rax        # 11e60 <g_158>
    73a5:	48 8b 00             	mov    (%rax),%rax
    73a8:	8b 10                	mov    (%rax),%edx
    73aa:	48 8b 85 88 f5 ff ff 	mov    -0xa78(%rbp),%rax
    73b1:	48 8b 00             	mov    (%rax),%rax
    73b4:	8b 30                	mov    (%rax),%esi
    73b6:	48 8d 85 a0 f4 ff ff 	lea    -0xb60(%rbp),%rax
    73bd:	b9 00 00 00 00       	mov    $0x0,%ecx
    73c2:	48 89 c7             	mov    %rax,%rdi
    73c5:	e8 73 07 00 00       	callq  7b3d <func_20>
    73ca:	48 8b 85 a0 f4 ff ff 	mov    -0xb60(%rbp),%rax
    73d1:	48 8b 95 a8 f4 ff ff 	mov    -0xb58(%rbp),%rdx
    73d8:	48 89 05 43 8e 00 00 	mov    %rax,0x8e43(%rip)        # 10222 <g_779+0x402>
    73df:	48 89 15 44 8e 00 00 	mov    %rdx,0x8e44(%rip)        # 1022a <g_779+0x40a>
    73e6:	0f b7 85 b0 f4 ff ff 	movzwl -0xb50(%rbp),%eax
    73ed:	66 89 05 3e 8e 00 00 	mov    %ax,0x8e3e(%rip)        # 10232 <g_779+0x412>
    73f4:	0f b6 85 b2 f4 ff ff 	movzbl -0xb4e(%rbp),%eax
    73fb:	88 05 33 8e 00 00    	mov    %al,0x8e33(%rip)        # 10234 <g_779+0x414>
    7401:	8b 85 00 f5 ff ff    	mov    -0xb00(%rbp),%eax
    7407:	eb 0a                	jmp    7413 <func_8+0x2116>
    7409:	90                   	nop
    740a:	eb 01                	jmp    740d <func_8+0x2110>
    740c:	90                   	nop
    740d:	8b 05 89 86 00 00    	mov    0x8689(%rip),%eax        # fa9c <g_469+0x3c>
    7413:	48 8b 5d d8          	mov    -0x28(%rbp),%rbx
    7417:	64 48 33 1c 25 28 00 	xor    %fs:0x28,%rbx
    741e:	00 00 
    7420:	74 05                	je     7427 <func_8+0x212a>
    7422:	e8 49 bc ff ff       	callq  3070 <__stack_chk_fail@plt>
    7427:	48 81 c4 48 0b 00 00 	add    $0xb48,%rsp
    742e:	5b                   	pop    %rbx
    742f:	41 5c                	pop    %r12
    7431:	41 5d                	pop    %r13
    7433:	5d                   	pop    %rbp
    7434:	c3                   	retq   

0000000000007435 <func_11>:
    7435:	f3 0f 1e fa          	endbr64 
    7439:	55                   	push   %rbp
    743a:	48 89 e5             	mov    %rsp,%rbp
    743d:	53                   	push   %rbx
    743e:	48 83 ec 20          	sub    $0x20,%rsp
    7442:	48 89 7d e0          	mov    %rdi,-0x20(%rbp)
    7446:	48 89 75 d8          	mov    %rsi,-0x28(%rbp)
    744a:	c7 45 f4 a6 ac b5 9b 	movl   $0x9bb5aca6,-0xc(%rbp)
    7451:	48 8b 05 b8 a9 00 00 	mov    0xa9b8(%rip),%rax        # 11e10 <g_50>
    7458:	48 8b 00             	mov    (%rax),%rax
    745b:	8b 55 f4             	mov    -0xc(%rbp),%edx
    745e:	89 10                	mov    %edx,(%rax)
    7460:	8b 00                	mov    (%rax),%eax
    7462:	48 8b 1d 27 ab 00 00 	mov    0xab27(%rip),%rbx        # 11f90 <g_460>
    7469:	89 c6                	mov    %eax,%esi
    746b:	bf 39 70 27 5a       	mov    $0x5a277039,%edi
    7470:	e8 41 c1 ff ff       	callq  35b6 <safe_add_func_int32_t_s_s>
    7475:	89 03                	mov    %eax,(%rbx)
    7477:	48 8d 05 62 83 00 00 	lea    0x8362(%rip),%rax        # f7e0 <g_455>
    747e:	48 8b 0d 8b 83 00 00 	mov    0x838b(%rip),%rcx        # f810 <g_461>
    7485:	48 8b 1d 8c 83 00 00 	mov    0x838c(%rip),%rbx        # f818 <g_461+0x8>
    748c:	48 89 08             	mov    %rcx,(%rax)
    748f:	48 89 58 08          	mov    %rbx,0x8(%rax)
    7493:	0f b7 15 86 83 00 00 	movzwl 0x8386(%rip),%edx        # f820 <g_461+0x10>
    749a:	66 89 50 10          	mov    %dx,0x10(%rax)
    749e:	0f b6 15 7d 83 00 00 	movzbl 0x837d(%rip),%edx        # f822 <g_461+0x12>
    74a5:	88 50 12             	mov    %dl,0x12(%rax)
    74a8:	8b 45 f4             	mov    -0xc(%rbp),%eax
    74ab:	48 83 c4 20          	add    $0x20,%rsp
    74af:	5b                   	pop    %rbx
    74b0:	5d                   	pop    %rbp
    74b1:	c3                   	retq   

00000000000074b2 <func_15>:
    74b2:	f3 0f 1e fa          	endbr64 
    74b6:	55                   	push   %rbp
    74b7:	48 89 e5             	mov    %rsp,%rbp
    74ba:	41 55                	push   %r13
    74bc:	41 54                	push   %r12
    74be:	53                   	push   %rbx
    74bf:	48 81 ec b8 0b 00 00 	sub    $0xbb8,%rsp
    74c6:	89 bd 5c f4 ff ff    	mov    %edi,-0xba4(%rbp)
    74cc:	89 b5 58 f4 ff ff    	mov    %esi,-0xba8(%rbp)
    74d2:	64 48 8b 04 25 28 00 	mov    %fs:0x28,%rax
    74d9:	00 00 
    74db:	48 89 45 d8          	mov    %rax,-0x28(%rbp)
    74df:	31 c0                	xor    %eax,%eax
    74e1:	48 b8 45 80 a1 a9 3f 	movabs $0x870af03fa9a18045,%rax
    74e8:	f0 0a 87 
    74eb:	48 89 85 68 f4 ff ff 	mov    %rax,-0xb98(%rbp)
    74f2:	48 8d 05 e6 7b 00 00 	lea    0x7be6(%rip),%rax        # f0df <g_7+0x9f>
    74f9:	48 89 85 70 f4 ff ff 	mov    %rax,-0xb90(%rbp)
    7500:	48 8d 05 d1 7b 00 00 	lea    0x7bd1(%rip),%rax        # f0d8 <g_7+0x98>
    7507:	48 89 85 90 f4 ff ff 	mov    %rax,-0xb70(%rbp)
    750e:	48 8d 05 c3 7b 00 00 	lea    0x7bc3(%rip),%rax        # f0d8 <g_7+0x98>
    7515:	48 89 85 98 f4 ff ff 	mov    %rax,-0xb68(%rbp)
    751c:	48 8d 05 1d 7b 00 00 	lea    0x7b1d(%rip),%rax        # f040 <g_7>
    7523:	48 89 85 a0 f4 ff ff 	mov    %rax,-0xb60(%rbp)
    752a:	48 c7 85 a8 f4 ff ff 	movq   $0x0,-0xb58(%rbp)
    7531:	00 00 00 00 
    7535:	48 8d 05 af 7b 00 00 	lea    0x7baf(%rip),%rax        # f0eb <g_7+0xab>
    753c:	48 89 85 b0 f4 ff ff 	mov    %rax,-0xb50(%rbp)
    7543:	48 c7 85 b8 f4 ff ff 	movq   $0x0,-0xb48(%rbp)
    754a:	00 00 00 00 
    754e:	48 8d 05 eb 7a 00 00 	lea    0x7aeb(%rip),%rax        # f040 <g_7>
    7555:	48 89 85 c0 f4 ff ff 	mov    %rax,-0xb40(%rbp)
    755c:	48 8d 05 75 7b 00 00 	lea    0x7b75(%rip),%rax        # f0d8 <g_7+0x98>
    7563:	48 89 85 c8 f4 ff ff 	mov    %rax,-0xb38(%rbp)
    756a:	48 8d 05 67 7b 00 00 	lea    0x7b67(%rip),%rax        # f0d8 <g_7+0x98>
    7571:	48 89 85 d0 f4 ff ff 	mov    %rax,-0xb30(%rbp)
    7578:	48 8d 05 6c 7b 00 00 	lea    0x7b6c(%rip),%rax        # f0eb <g_7+0xab>
    757f:	48 89 85 d8 f4 ff ff 	mov    %rax,-0xb28(%rbp)
    7586:	48 8d 05 d9 7a 00 00 	lea    0x7ad9(%rip),%rax        # f066 <g_7+0x26>
    758d:	48 89 85 e0 f4 ff ff 	mov    %rax,-0xb20(%rbp)
    7594:	48 8d 05 3d 7b 00 00 	lea    0x7b3d(%rip),%rax        # f0d8 <g_7+0x98>
    759b:	48 89 85 e8 f4 ff ff 	mov    %rax,-0xb18(%rbp)
    75a2:	48 c7 85 f0 f4 ff ff 	movq   $0x0,-0xb10(%rbp)
    75a9:	00 00 00 00 
    75ad:	48 8d 05 24 7b 00 00 	lea    0x7b24(%rip),%rax        # f0d8 <g_7+0x98>
    75b4:	48 89 85 f8 f4 ff ff 	mov    %rax,-0xb08(%rbp)
    75bb:	48 8d 05 a4 7a 00 00 	lea    0x7aa4(%rip),%rax        # f066 <g_7+0x26>
    75c2:	48 89 85 00 f5 ff ff 	mov    %rax,-0xb00(%rbp)
    75c9:	48 8d 05 1b 7b 00 00 	lea    0x7b1b(%rip),%rax        # f0eb <g_7+0xab>
    75d0:	48 89 85 08 f5 ff ff 	mov    %rax,-0xaf8(%rbp)
    75d7:	48 8d 05 0d 7b 00 00 	lea    0x7b0d(%rip),%rax        # f0eb <g_7+0xab>
    75de:	48 89 85 10 f5 ff ff 	mov    %rax,-0xaf0(%rbp)
    75e5:	48 8d 05 7a 7a 00 00 	lea    0x7a7a(%rip),%rax        # f066 <g_7+0x26>
    75ec:	48 89 85 18 f5 ff ff 	mov    %rax,-0xae8(%rbp)
    75f3:	48 c7 85 20 f5 ff ff 	movq   $0x0,-0xae0(%rbp)
    75fa:	00 00 00 00 
    75fe:	48 8d 05 61 7a 00 00 	lea    0x7a61(%rip),%rax        # f066 <g_7+0x26>
    7605:	48 89 85 28 f5 ff ff 	mov    %rax,-0xad8(%rbp)
    760c:	48 8d 05 2d 7a 00 00 	lea    0x7a2d(%rip),%rax        # f040 <g_7>
    7613:	48 89 85 30 f5 ff ff 	mov    %rax,-0xad0(%rbp)
    761a:	48 8d 05 45 7a 00 00 	lea    0x7a45(%rip),%rax        # f066 <g_7+0x26>
    7621:	48 89 85 38 f5 ff ff 	mov    %rax,-0xac8(%rbp)
    7628:	48 c7 85 40 f5 ff ff 	movq   $0x0,-0xac0(%rbp)
    762f:	00 00 00 00 
    7633:	48 8d 05 9e 7a 00 00 	lea    0x7a9e(%rip),%rax        # f0d8 <g_7+0x98>
    763a:	48 89 85 48 f5 ff ff 	mov    %rax,-0xab8(%rbp)
    7641:	48 8d 05 90 7a 00 00 	lea    0x7a90(%rip),%rax        # f0d8 <g_7+0x98>
    7648:	48 89 85 50 f5 ff ff 	mov    %rax,-0xab0(%rbp)
    764f:	48 c7 85 58 f5 ff ff 	movq   $0x0,-0xaa8(%rbp)
    7656:	00 00 00 00 
    765a:	48 8d 05 05 7a 00 00 	lea    0x7a05(%rip),%rax        # f066 <g_7+0x26>
    7661:	48 89 85 60 f5 ff ff 	mov    %rax,-0xaa0(%rbp)
    7668:	c7 85 70 f5 ff ff 5a 	movl   $0x3b00005a,-0xa90(%rbp)
    766f:	00 00 3b 
    7672:	c7 85 74 f5 ff ff 00 	movl   $0x95bd500,-0xa8c(%rbp)
    7679:	d5 5b 09 
    767c:	c7 85 78 f5 ff ff 92 	movl   $0x92050592,-0xa88(%rbp)
    7683:	05 05 92 
    7686:	c7 85 7c f5 ff ff 00 	movl   $0xa7ff0100,-0xa84(%rbp)
    768d:	01 ff a7 
    7690:	c7 85 80 f5 ff ff fa 	movl   $0xf709b6fa,-0xa80(%rbp)
    7697:	b6 09 f7 
    769a:	c7 85 84 f5 ff ff ff 	movl   $0xf70001ff,-0xa7c(%rbp)
    76a1:	01 00 f7 
    76a4:	c7 85 88 f5 ff ff 00 	movl   $0xa7ffb600,-0xa78(%rbp)
    76ab:	b6 ff a7 
    76ae:	c7 85 8c f5 ff ff 00 	movl   $0x92840100,-0xa74(%rbp)
    76b5:	01 84 92 
    76b8:	c7 85 90 f5 ff ff ff 	movl   $0x9ff05ff,-0xa70(%rbp)
    76bf:	05 ff 09 
    76c2:	c7 85 94 f5 ff ff f2 	movl   $0x3bffd5f2,-0xa6c(%rbp)
    76c9:	d5 ff 3b 
    76cc:	c7 85 98 f5 ff ff 8b 	movl   $0xffb8008b,-0xa68(%rbp)
    76d3:	00 b8 ff 
    76d6:	c7 85 9c f5 ff ff a7 	movl   $0xbd0002a7,-0xa64(%rbp)
    76dd:	02 00 bd 
    76e0:	c7 85 a0 f5 ff ff ff 	movl   $0xffb692ff,-0xa60(%rbp)
    76e7:	92 b6 ff 
    76ea:	c7 85 a4 f5 ff ff 20 	movl   $0x5f70020,-0xa5c(%rbp)
    76f1:	00 f7 05 
    76f4:	c7 85 a8 f5 ff ff 05 	movl   $0xe50005,-0xa58(%rbp)
    76fb:	00 e5 00 
    76fe:	c7 85 ac f5 ff ff b6 	movl   $0x830083b6,-0xa54(%rbp)
    7705:	83 00 83 
    7708:	c7 85 b0 f5 ff ff 03 	movl   $0xd5ef0003,-0xa50(%rbp)
    770f:	00 ef d5 
    7712:	c7 85 b4 f5 ff ff ff 	movl   $0xfa20e5ff,-0xa4c(%rbp)
    7719:	e5 20 fa 
    771c:	c7 85 b8 f5 ff ff 5b 	movl   $0x5a003b5b,-0xa48(%rbp)
    7723:	3b 00 5a 
    7726:	c7 85 bc f5 ff ff 5b 	movl   $0xff20f75b,-0xa44(%rbp)
    772d:	f7 20 ff 
    7730:	c7 85 c0 f5 ff ff ff 	movl   $0xef5aff,-0xa40(%rbp)
    7737:	5a ef 00 
    773a:	c7 85 c4 f5 ff ff 03 	movl   $0xff00ff03,-0xa3c(%rbp)
    7741:	ff 00 ff 
    7744:	c7 85 c8 f5 ff ff b6 	movl   $0xffe500b6,-0xa38(%rbp)
    774b:	00 e5 ff 
    774e:	c7 85 cc f5 ff ff 05 	movl   $0xf77305,-0xa34(%rbp)
    7755:	73 f7 00 
    7758:	c7 85 d0 f5 ff ff 20 	movl   $0x48b6f720,-0xa30(%rbp)
    775f:	f7 b6 48 
    7762:	c7 85 d4 f5 ff ff ff 	movl   $0xb8ff,-0xa2c(%rbp)
    7769:	b8 00 00 
    776c:	c7 85 d8 f5 ff ff a7 	movl   $0xb800a7,-0xa28(%rbp)
    7773:	00 b8 00 
    7776:	c7 85 dc f5 ff ff 8b 	movl   $0x20ff018b,-0xa24(%rbp)
    777d:	01 ff 20 
    7780:	c7 85 e0 f5 ff ff f2 	movl   $0xffff48f2,-0xa20(%rbp)
    7787:	48 ff ff 
    778a:	c7 85 e4 f5 ff ff ff 	movl   $0x184ffff,-0xa1c(%rbp)
    7791:	ff 84 01 
    7794:	c7 85 e8 f5 ff ff 00 	movl   $0x1ff5b00,-0xa18(%rbp)
    779b:	5b ff 01 
    779e:	c7 85 ec f5 ff ff 00 	movl   $0xff00fa00,-0xa14(%rbp)
    77a5:	fa 00 ff 
    77a8:	c7 85 f0 f5 ff ff ff 	movl   $0x109faff,-0xa10(%rbp)
    77af:	fa 09 01 
    77b2:	c7 85 f4 f5 ff ff fa 	movl   $0x1ff5bfa,-0xa0c(%rbp)
    77b9:	5b ff 01 
    77bc:	c7 85 f8 f5 ff ff 00 	movl   $0xff05ff00,-0xa08(%rbp)
    77c3:	ff 05 ff 
    77c6:	c7 85 fc f5 ff ff 92 	movl   $0x205b4892,-0xa04(%rbp)
    77cd:	48 5b 20 
    77d0:	c7 85 00 f6 ff ff 00 	movl   $0x100,-0xa00(%rbp)
    77d7:	01 00 00 
    77da:	c7 85 04 f6 ff ff 5a 	movl   $0x8b005a,-0x9fc(%rbp)
    77e1:	00 8b 00 
    77e4:	c7 85 08 f6 ff ff f4 	movl   $0x4883b8f4,-0x9f8(%rbp)
    77eb:	b8 83 48 
    77ee:	c7 85 0c f6 ff ff e5 	movl   $0xf7e5,-0x9f4(%rbp)
    77f5:	f7 00 00 
    77f8:	c7 85 10 f6 ff ff 00 	movl   $0xff007300,-0x9f0(%rbp)
    77ff:	73 00 ff 
    7802:	c7 85 14 f6 ff ff ef 	movl   $0xb68900ef,-0x9ec(%rbp)
    7809:	00 89 b6 
    780c:	c7 85 18 f6 ff ff 00 	movl   $0xef000300,-0x9e8(%rbp)
    7813:	03 00 ef 
    7816:	c7 85 1c f6 ff ff 3b 	movl   $0xa700003b,-0x9e4(%rbp)
    781d:	00 00 a7 
    7820:	c7 85 20 f6 ff ff 01 	movl   $0x5ff01,-0x9e0(%rbp)
    7827:	ff 05 00 
    782a:	c7 85 24 f6 ff ff 73 	movl   $0xff050073,-0x9dc(%rbp)
    7831:	00 05 ff 
    7834:	c7 85 28 f6 ff ff 01 	movl   $0xff005b01,-0x9d8(%rbp)
    783b:	5b 00 ff 
    783e:	c7 85 2c f6 ff ff 3b 	movl   $0xf400203b,-0x9d4(%rbp)
    7845:	20 00 f4 
    7848:	c7 85 30 f6 ff ff 00 	movl   $0xff89f400,-0x9d0(%rbp)
    784f:	f4 89 ff 
    7852:	c7 85 34 f6 ff ff ef 	movl   $0x5ab8bdef,-0x9cc(%rbp)
    7859:	bd b8 5a 
    785c:	c7 85 38 f6 ff ff ff 	movl   $0xff0000ff,-0x9c8(%rbp)
    7863:	00 00 ff 
    7866:	c7 85 3c f6 ff ff 5b 	movl   $0x2f4015b,-0x9c4(%rbp)
    786d:	01 f4 02 
    7870:	c7 85 40 f6 ff ff 09 	movl   $0xfffa09,-0x9c0(%rbp)
    7877:	fa ff 00 
    787a:	c7 85 44 f6 ff ff 00 	movl   $0xb800,-0x9bc(%rbp)
    7881:	b8 00 00 
    7884:	48 8d 85 50 f6 ff ff 	lea    -0x9b0(%rbp),%rax
    788b:	48 8d 15 4e 3d 00 00 	lea    0x3d4e(%rip),%rdx        # b5e0 <g_260+0x580>
    7892:	b9 30 00 00 00       	mov    $0x30,%ecx
    7897:	48 89 c7             	mov    %rax,%rdi
    789a:	48 89 d6             	mov    %rdx,%rsi
    789d:	f3 48 a5             	rep movsq %ds:(%rsi),%es:(%rdi)
    78a0:	48 8b 05 59 a5 00 00 	mov    0xa559(%rip),%rax        # 11e00 <g_19>
    78a7:	8b 15 32 78 00 00    	mov    0x7832(%rip),%edx        # f0df <g_7+0x9f>
    78ad:	89 10                	mov    %edx,(%rax)
    78af:	0f b6 85 9b f5 ff ff 	movzbl -0xa65(%rbp),%eax
    78b6:	44 0f b6 e0          	movzbl %al,%r12d
    78ba:	0f b7 85 58 f4 ff ff 	movzwl -0xba8(%rbp),%eax
    78c1:	0f bf d8             	movswl %ax,%ebx
    78c4:	8b 05 11 78 00 00    	mov    0x7811(%rip),%eax        # f0db <g_7+0x9b>
    78ca:	48 8b 05 12 78 00 00 	mov    0x7812(%rip),%rax        # f0e3 <g_7+0xa3>
    78d1:	48 39 85 68 f4 ff ff 	cmp    %rax,-0xb98(%rbp)
    78d8:	0f 97 c0             	seta   %al
    78db:	44 0f b6 e8          	movzbl %al,%r13d
    78df:	48 8b 85 68 f4 ff ff 	mov    -0xb98(%rbp),%rax
    78e6:	89 c6                	mov    %eax,%esi
    78e8:	bf 6c 00 00 00       	mov    $0x6c,%edi
    78ed:	e8 5a c3 ff ff       	callq  3c4c <safe_lshift_func_uint8_t_u_u>
    78f2:	0f b6 c0             	movzbl %al,%eax
    78f5:	41 39 c5             	cmp    %eax,%r13d
    78f8:	48 8b 05 e4 77 00 00 	mov    0x77e4(%rip),%rax        # f0e3 <g_7+0xa3>
    78ff:	41 89 c5             	mov    %eax,%r13d
    7902:	48 8b 95 28 f5 ff ff 	mov    -0xad8(%rbp),%rdx
    7909:	48 8b 85 68 f4 ff ff 	mov    -0xb98(%rbp),%rax
    7910:	0f be c0             	movsbl %al,%eax
    7913:	48 8b 8d 70 f4 ff ff 	mov    -0xb90(%rbp),%rcx
    791a:	48 89 ce             	mov    %rcx,%rsi
    791d:	89 c7                	mov    %eax,%edi
    791f:	e8 24 05 00 00       	callq  7e48 <func_29>
    7924:	0f b6 c0             	movzbl %al,%eax
    7927:	44 21 e8             	and    %r13d,%eax
    792a:	0f bf d0             	movswl %ax,%edx
    792d:	8b 85 5c f4 ff ff    	mov    -0xba4(%rbp),%eax
    7933:	98                   	cwtl   
    7934:	89 d6                	mov    %edx,%esi
    7936:	89 c7                	mov    %eax,%edi
    7938:	e8 d9 ba ff ff       	callq  3416 <safe_mod_func_int16_t_s_s>
    793d:	48 0f bf c0          	movswq %ax,%rax
    7941:	48 89 05 9b 77 00 00 	mov    %rax,0x779b(%rip)        # f0e3 <g_7+0xa3>
    7948:	48 8b 15 94 77 00 00 	mov    0x7794(%rip),%rdx        # f0e3 <g_7+0xa3>
    794f:	48 8b 05 55 7a 00 00 	mov    0x7a55(%rip),%rax        # f3ab <g_189+0xb>
    7956:	48 39 c2             	cmp    %rax,%rdx
    7959:	0f 95 c0             	setne  %al
    795c:	0f b6 f0             	movzbl %al,%esi
    795f:	48 8d 85 30 f4 ff ff 	lea    -0xbd0(%rbp),%rax
    7966:	44 89 e1             	mov    %r12d,%ecx
    7969:	89 da                	mov    %ebx,%edx
    796b:	48 89 c7             	mov    %rax,%rdi
    796e:	e8 ca 01 00 00       	callq  7b3d <func_20>
    7973:	48 8b 85 30 f4 ff ff 	mov    -0xbd0(%rbp),%rax
    797a:	48 8b 95 38 f4 ff ff 	mov    -0xbc8(%rbp),%rdx
    7981:	48 89 05 18 7e 00 00 	mov    %rax,0x7e18(%rip)        # f7a0 <g_439>
    7988:	48 89 15 19 7e 00 00 	mov    %rdx,0x7e19(%rip)        # f7a8 <g_439+0x8>
    798f:	0f b7 85 40 f4 ff ff 	movzwl -0xbc0(%rbp),%eax
    7996:	66 89 05 13 7e 00 00 	mov    %ax,0x7e13(%rip)        # f7b0 <g_439+0x10>
    799d:	0f b6 85 42 f4 ff ff 	movzbl -0xbbe(%rbp),%eax
    79a4:	88 05 08 7e 00 00    	mov    %al,0x7e08(%rip)        # f7b2 <g_439+0x12>
    79aa:	48 c7 05 f6 7d 00 00 	movq   $0x0,0x7df6(%rip)        # f7ab <g_439+0xb>
    79b1:	00 00 00 00 
    79b5:	90                   	nop
    79b6:	48 8b 05 ee 7d 00 00 	mov    0x7dee(%rip),%rax        # f7ab <g_439+0xb>
    79bd:	48 83 f8 ec          	cmp    $0xffffffffffffffec,%rax
    79c1:	0f 8c 4d 01 00 00    	jl     7b14 <func_15+0x662>
    79c7:	c7 85 64 f4 ff ff 2a 	movl   $0xc42e792a,-0xb9c(%rbp)
    79ce:	79 2e c4 
    79d1:	c6 05 48 7d 00 00 f7 	movb   $0xf7,0x7d48(%rip)        # f720 <g_384>
    79d8:	e9 94 00 00 00       	jmpq   7a71 <func_15+0x5bf>
    79dd:	48 8d 05 c3 7d 00 00 	lea    0x7dc3(%rip),%rax        # f7a7 <g_439+0x7>
    79e4:	48 89 85 78 f4 ff ff 	mov    %rax,-0xb88(%rbp)
    79eb:	48 8d 05 45 7d 00 00 	lea    0x7d45(%rip),%rax        # f737 <g_397+0x7>
    79f2:	48 89 85 80 f4 ff ff 	mov    %rax,-0xb80(%rbp)
    79f9:	48 8d 05 87 7d 00 00 	lea    0x7d87(%rip),%rax        # f787 <g_438+0x7>
    7a00:	48 89 85 88 f4 ff ff 	mov    %rax,-0xb78(%rbp)
    7a07:	48 8d 85 d0 f7 ff ff 	lea    -0x830(%rbp),%rax
    7a0e:	48 8d 15 eb 9b 00 00 	lea    0x9beb(%rip),%rdx        # 11600 <g_793+0x520>
    7a15:	b9 00 01 00 00       	mov    $0x100,%ecx
    7a1a:	48 89 c7             	mov    %rax,%rdi
    7a1d:	48 89 d6             	mov    %rdx,%rsi
    7a20:	f3 48 a5             	rep movsq %ds:(%rsi),%es:(%rdi)
    7a23:	83 ad 64 f4 ff ff 01 	subl   $0x1,-0xb9c(%rbp)
    7a2a:	48 8b 05 8f 7d 00 00 	mov    0x7d8f(%rip),%rax        # f7c0 <g_452>
    7a31:	48 8b 15 90 7d 00 00 	mov    0x7d90(%rip),%rdx        # f7c8 <g_452+0x8>
    7a38:	48 89 05 81 7d 00 00 	mov    %rax,0x7d81(%rip)        # f7c0 <g_452>
    7a3f:	48 89 15 82 7d 00 00 	mov    %rdx,0x7d82(%rip)        # f7c8 <g_452+0x8>
    7a46:	0f b7 05 83 7d 00 00 	movzwl 0x7d83(%rip),%eax        # f7d0 <g_452+0x10>
    7a4d:	66 89 05 7c 7d 00 00 	mov    %ax,0x7d7c(%rip)        # f7d0 <g_452+0x10>
    7a54:	0f b6 05 77 7d 00 00 	movzbl 0x7d77(%rip),%eax        # f7d2 <g_452+0x12>
    7a5b:	88 05 71 7d 00 00    	mov    %al,0x7d71(%rip)        # f7d2 <g_452+0x12>
    7a61:	0f b6 05 b8 7c 00 00 	movzbl 0x7cb8(%rip),%eax        # f720 <g_384>
    7a68:	83 c0 01             	add    $0x1,%eax
    7a6b:	88 05 af 7c 00 00    	mov    %al,0x7caf(%rip)        # f720 <g_384>
    7a71:	0f b6 05 a8 7c 00 00 	movzbl 0x7ca8(%rip),%eax        # f720 <g_384>
    7a78:	3c 09                	cmp    $0x9,%al
    7a7a:	0f 8f 5d ff ff ff    	jg     79dd <func_15+0x52b>
    7a80:	48 c7 85 68 f4 ff ff 	movq   $0x0,-0xb98(%rbp)
    7a87:	00 00 00 00 
    7a8b:	eb 63                	jmp    7af0 <func_15+0x63e>
    7a8d:	48 c7 05 f3 7c 00 00 	movq   $0x0,0x7cf3(%rip)        # f78b <g_438+0xb>
    7a94:	00 00 00 00 
    7a98:	eb 41                	jmp    7adb <func_15+0x629>
    7a9a:	48 8b 05 ea 7c 00 00 	mov    0x7cea(%rip),%rax        # f78b <g_438+0xb>
    7aa1:	48 8b 95 68 f4 ff ff 	mov    -0xb98(%rbp),%rdx
    7aa8:	48 c1 e2 02          	shl    $0x2,%rdx
    7aac:	48 01 d0             	add    %rdx,%rax
    7aaf:	48 8d 14 c5 00 00 00 	lea    0x0(,%rax,8),%rdx
    7ab6:	00 
    7ab7:	48 8d 05 42 a4 00 00 	lea    0xa442(%rip),%rax        # 11f00 <g_310>
    7abe:	48 8d 0d a3 7b 00 00 	lea    0x7ba3(%rip),%rcx        # f668 <g_315+0x108>
    7ac5:	48 89 0c 02          	mov    %rcx,(%rdx,%rax,1)
    7ac9:	48 8b 05 bb 7c 00 00 	mov    0x7cbb(%rip),%rax        # f78b <g_438+0xb>
    7ad0:	48 83 c0 01          	add    $0x1,%rax
    7ad4:	48 89 05 b0 7c 00 00 	mov    %rax,0x7cb0(%rip)        # f78b <g_438+0xb>
    7adb:	48 8b 05 a9 7c 00 00 	mov    0x7ca9(%rip),%rax        # f78b <g_438+0xb>
    7ae2:	48 83 f8 03          	cmp    $0x3,%rax
    7ae6:	7e b2                	jle    7a9a <func_15+0x5e8>
    7ae8:	48 83 85 68 f4 ff ff 	addq   $0x1,-0xb98(%rbp)
    7aef:	01 
    7af0:	48 83 bd 68 f4 ff ff 	cmpq   $0x3,-0xb98(%rbp)
    7af7:	03 
    7af8:	76 93                	jbe    7a8d <func_15+0x5db>
    7afa:	48 8b 05 df a3 00 00 	mov    0xa3df(%rip),%rax        # 11ee0 <g_275>
    7b01:	48 8d 95 58 f4 ff ff 	lea    -0xba8(%rbp),%rdx
    7b08:	48 89 10             	mov    %rdx,(%rax)
    7b0b:	48 8d 05 8e 78 00 00 	lea    0x788e(%rip),%rax        # f3a0 <g_189>
    7b12:	eb 07                	jmp    7b1b <func_15+0x669>
    7b14:	48 8b 85 28 f5 ff ff 	mov    -0xad8(%rbp),%rax
    7b1b:	48 8b 5d d8          	mov    -0x28(%rbp),%rbx
    7b1f:	64 48 33 1c 25 28 00 	xor    %fs:0x28,%rbx
    7b26:	00 00 
    7b28:	74 05                	je     7b2f <func_15+0x67d>
    7b2a:	e8 41 b5 ff ff       	callq  3070 <__stack_chk_fail@plt>
    7b2f:	48 81 c4 b8 0b 00 00 	add    $0xbb8,%rsp
    7b36:	5b                   	pop    %rbx
    7b37:	41 5c                	pop    %r12
    7b39:	41 5d                	pop    %r13
    7b3b:	5d                   	pop    %rbp
    7b3c:	c3                   	retq   

0000000000007b3d <func_20>:
    7b3d:	f3 0f 1e fa          	endbr64 
    7b41:	55                   	push   %rbp
    7b42:	48 89 e5             	mov    %rsp,%rbp
    7b45:	53                   	push   %rbx
    7b46:	48 81 ec 38 01 00 00 	sub    $0x138,%rsp
    7b4d:	48 89 bd d8 fe ff ff 	mov    %rdi,-0x128(%rbp)
    7b54:	89 b5 d4 fe ff ff    	mov    %esi,-0x12c(%rbp)
    7b5a:	89 95 d0 fe ff ff    	mov    %edx,-0x130(%rbp)
    7b60:	89 8d cc fe ff ff    	mov    %ecx,-0x134(%rbp)
    7b66:	64 48 8b 04 25 28 00 	mov    %fs:0x28,%rax
    7b6d:	00 00 
    7b6f:	48 89 45 e8          	mov    %rax,-0x18(%rbp)
    7b73:	31 c0                	xor    %eax,%eax
    7b75:	48 8d 05 8c a2 00 00 	lea    0xa28c(%rip),%rax        # 11e08 <g_51>
    7b7c:	48 89 85 10 ff ff ff 	mov    %rax,-0xf0(%rbp)
    7b83:	48 8d 85 10 ff ff ff 	lea    -0xf0(%rbp),%rax
    7b8a:	48 89 85 18 ff ff ff 	mov    %rax,-0xe8(%rbp)
    7b91:	48 8d 85 18 ff ff ff 	lea    -0xe8(%rbp),%rax
    7b98:	48 89 85 40 ff ff ff 	mov    %rax,-0xc0(%rbp)
    7b9f:	48 c7 85 20 ff ff ff 	movq   $0x0,-0xe0(%rbp)
    7ba6:	00 00 00 00 
    7baa:	48 8d 85 20 ff ff ff 	lea    -0xe0(%rbp),%rax
    7bb1:	48 89 85 48 ff ff ff 	mov    %rax,-0xb8(%rbp)
    7bb8:	c7 85 f4 fe ff ff fb 	movl   $0xfe8e1bfb,-0x10c(%rbp)
    7bbf:	1b 8e fe 
    7bc2:	c7 85 ec fe ff ff e8 	movl   $0xca900fe8,-0x114(%rbp)
    7bc9:	0f 90 ca 
    7bcc:	c7 85 f8 fe ff ff 06 	movl   $0x6,-0x108(%rbp)
    7bd3:	00 00 00 
    7bd6:	48 8d 05 43 a2 00 00 	lea    0xa243(%rip),%rax        # 11e20 <g_142>
    7bdd:	48 89 85 50 ff ff ff 	mov    %rax,-0xb0(%rbp)
    7be4:	48 c7 85 58 ff ff ff 	movq   $0x0,-0xa8(%rbp)
    7beb:	00 00 00 00 
    7bef:	48 8b 85 40 ff ff ff 	mov    -0xc0(%rbp),%rax
    7bf6:	48 c7 00 00 00 00 00 	movq   $0x0,(%rax)
    7bfd:	48 8b 85 40 ff ff ff 	mov    -0xc0(%rbp),%rax
    7c04:	48 8b 10             	mov    (%rax),%rdx
    7c07:	48 8b 85 48 ff ff ff 	mov    -0xb8(%rbp),%rax
    7c0e:	48 89 10             	mov    %rdx,(%rax)
    7c11:	48 c7 05 e4 74 00 00 	movq   $0x0,0x74e4(%rip)        # f100 <g_53>
    7c18:	00 00 00 00 
    7c1c:	e9 c0 01 00 00       	jmpq   7de1 <func_20+0x2a4>
    7c21:	66 c7 85 ea fe ff ff 	movw   $0xe43b,-0x116(%rbp)
    7c28:	3b e4 
    7c2a:	c7 85 fc fe ff ff b2 	movl   $0xcdbee1b2,-0x104(%rbp)
    7c31:	e1 be cd 
    7c34:	48 8d 05 5d 77 00 00 	lea    0x775d(%rip),%rax        # f398 <g_166>
    7c3b:	48 89 85 60 ff ff ff 	mov    %rax,-0xa0(%rbp)
    7c42:	c7 45 90 e0 42 bd 02 	movl   $0x2bd42e0,-0x70(%rbp)
    7c49:	c7 45 94 d8 d7 58 a1 	movl   $0xa158d7d8,-0x6c(%rbp)
    7c50:	c7 45 98 d8 d7 58 a1 	movl   $0xa158d7d8,-0x68(%rbp)
    7c57:	c7 45 9c e0 42 bd 02 	movl   $0x2bd42e0,-0x64(%rbp)
    7c5e:	c7 45 a0 d8 d7 58 a1 	movl   $0xa158d7d8,-0x60(%rbp)
    7c65:	c7 45 a4 d8 d7 58 a1 	movl   $0xa158d7d8,-0x5c(%rbp)
    7c6c:	48 c7 85 28 ff ff ff 	movq   $0x0,-0xd8(%rbp)
    7c73:	00 00 00 00 
    7c77:	48 8d 85 28 ff ff ff 	lea    -0xd8(%rbp),%rax
    7c7e:	48 89 45 b0          	mov    %rax,-0x50(%rbp)
    7c82:	48 8d 85 28 ff ff ff 	lea    -0xd8(%rbp),%rax
    7c89:	48 89 45 b8          	mov    %rax,-0x48(%rbp)
    7c8d:	48 8d 85 28 ff ff ff 	lea    -0xd8(%rbp),%rax
    7c94:	48 89 45 c0          	mov    %rax,-0x40(%rbp)
    7c98:	48 8d 85 28 ff ff ff 	lea    -0xd8(%rbp),%rax
    7c9f:	48 89 45 c8          	mov    %rax,-0x38(%rbp)
    7ca3:	48 8d 85 28 ff ff ff 	lea    -0xd8(%rbp),%rax
    7caa:	48 89 45 d0          	mov    %rax,-0x30(%rbp)
    7cae:	48 8d 85 28 ff ff ff 	lea    -0xd8(%rbp),%rax
    7cb5:	48 89 45 d8          	mov    %rax,-0x28(%rbp)
    7cb9:	48 8d 85 28 ff ff ff 	lea    -0xd8(%rbp),%rax
    7cc0:	48 89 45 e0          	mov    %rax,-0x20(%rbp)
    7cc4:	48 8d 45 b0          	lea    -0x50(%rbp),%rax
    7cc8:	48 83 c0 28          	add    $0x28,%rax
    7ccc:	48 89 85 30 ff ff ff 	mov    %rax,-0xd0(%rbp)
    7cd3:	48 8d 85 30 ff ff ff 	lea    -0xd0(%rbp),%rax
    7cda:	48 89 85 68 ff ff ff 	mov    %rax,-0x98(%rbp)
    7ce1:	48 8d 85 ec fe ff ff 	lea    -0x114(%rbp),%rax
    7ce8:	48 89 85 38 ff ff ff 	mov    %rax,-0xc8(%rbp)
    7cef:	c7 85 d0 fe ff ff 00 	movl   $0x0,-0x130(%rbp)
    7cf6:	00 00 00 
    7cf9:	eb 78                	jmp    7d73 <func_20+0x236>
    7cfb:	48 8d 05 d7 73 00 00 	lea    0x73d7(%rip),%rax        # f0d9 <g_7+0x99>
    7d02:	48 89 85 70 ff ff ff 	mov    %rax,-0x90(%rbp)
    7d09:	c7 85 00 ff ff ff 01 	movl   $0x1,-0x100(%rbp)
    7d10:	00 00 00 
    7d13:	c7 85 04 ff ff ff ff 	movl   $0xffffffff,-0xfc(%rbp)
    7d1a:	ff ff ff 
    7d1d:	c7 85 08 ff ff ff 03 	movl   $0x115a7b03,-0xf8(%rbp)
    7d24:	7b 5a 11 
    7d27:	c7 85 0c ff ff ff 6b 	movl   $0xba6a2a6b,-0xf4(%rbp)
    7d2e:	2a 6a ba 
    7d31:	48 c7 85 78 ff ff ff 	movq   $0x0,-0x88(%rbp)
    7d38:	00 00 00 00 
    7d3c:	c7 85 f0 fe ff ff 00 	movl   $0x0,-0x110(%rbp)
    7d43:	00 00 00 
    7d46:	eb 1b                	jmp    7d63 <func_20+0x226>
    7d48:	8b 85 f0 fe ff ff    	mov    -0x110(%rbp),%eax
    7d4e:	48 98                	cltq   
    7d50:	48 8d 15 01 a1 00 00 	lea    0xa101(%rip),%rdx        # 11e58 <g_159>
    7d57:	48 89 54 c5 80       	mov    %rdx,-0x80(%rbp,%rax,8)
    7d5c:	83 85 f0 fe ff ff 01 	addl   $0x1,-0x110(%rbp)
    7d63:	83 bd f0 fe ff ff 01 	cmpl   $0x1,-0x110(%rbp)
    7d6a:	7e dc                	jle    7d48 <func_20+0x20b>
    7d6c:	83 85 d0 fe ff ff 01 	addl   $0x1,-0x130(%rbp)
    7d73:	83 bd d0 fe ff ff 04 	cmpl   $0x4,-0x130(%rbp)
    7d7a:	0f 86 7b ff ff ff    	jbe    7cfb <func_20+0x1be>
    7d80:	48 8b 05 31 a1 00 00 	mov    0xa131(%rip),%rax        # 11eb8 <g_262>
    7d87:	8b 00                	mov    (%rax),%eax
    7d89:	85 c0                	test   %eax,%eax
    7d8b:	75 41                	jne    7dce <func_20+0x291>
    7d8d:	48 8b 85 58 ff ff ff 	mov    -0xa8(%rbp),%rax
    7d94:	48 3b 85 68 ff ff ff 	cmp    -0x98(%rbp),%rax
    7d9b:	0f 95 c0             	setne  %al
    7d9e:	0f b6 c8             	movzbl %al,%ecx
    7da1:	48 8b 85 10 ff ff ff 	mov    -0xf0(%rbp),%rax
    7da8:	48 8b 00             	mov    (%rax),%rax
    7dab:	8b 10                	mov    (%rax),%edx
    7dad:	48 8b 85 10 ff ff ff 	mov    -0xf0(%rbp),%rax
    7db4:	48 8b 00             	mov    (%rax),%rax
    7db7:	31 ca                	xor    %ecx,%edx
    7db9:	89 10                	mov    %edx,(%rax)
    7dbb:	48 8b 05 4e a0 00 00 	mov    0xa04e(%rip),%rax        # 11e10 <g_50>
    7dc2:	48 8b 00             	mov    (%rax),%rax
    7dc5:	48 89 85 38 ff ff ff 	mov    %rax,-0xc8(%rbp)
    7dcc:	eb 01                	jmp    7dcf <func_20+0x292>
    7dce:	90                   	nop
    7dcf:	48 8b 05 2a 73 00 00 	mov    0x732a(%rip),%rax        # f100 <g_53>
    7dd6:	48 83 c0 01          	add    $0x1,%rax
    7dda:	48 89 05 1f 73 00 00 	mov    %rax,0x731f(%rip)        # f100 <g_53>
    7de1:	48 8b 05 18 73 00 00 	mov    0x7318(%rip),%rax        # f100 <g_53>
    7de8:	48 83 f8 04          	cmp    $0x4,%rax
    7dec:	0f 86 2f fe ff ff    	jbe    7c21 <func_20+0xe4>
    7df2:	48 8b 85 d8 fe ff ff 	mov    -0x128(%rbp),%rax
    7df9:	48 8b 0d 80 79 00 00 	mov    0x7980(%rip),%rcx        # f780 <g_438>
    7e00:	48 8b 1d 81 79 00 00 	mov    0x7981(%rip),%rbx        # f788 <g_438+0x8>
    7e07:	48 89 08             	mov    %rcx,(%rax)
    7e0a:	48 89 58 08          	mov    %rbx,0x8(%rax)
    7e0e:	0f b7 15 7b 79 00 00 	movzwl 0x797b(%rip),%edx        # f790 <g_438+0x10>
    7e15:	66 89 50 10          	mov    %dx,0x10(%rax)
    7e19:	0f b6 15 72 79 00 00 	movzbl 0x7972(%rip),%edx        # f792 <g_438+0x12>
    7e20:	88 50 12             	mov    %dl,0x12(%rax)
    7e23:	48 8b 45 e8          	mov    -0x18(%rbp),%rax
    7e27:	64 48 33 04 25 28 00 	xor    %fs:0x28,%rax
    7e2e:	00 00 
    7e30:	74 05                	je     7e37 <func_20+0x2fa>
    7e32:	e8 39 b2 ff ff       	callq  3070 <__stack_chk_fail@plt>
    7e37:	48 8b 85 d8 fe ff ff 	mov    -0x128(%rbp),%rax
    7e3e:	48 81 c4 38 01 00 00 	add    $0x138,%rsp
    7e45:	5b                   	pop    %rbx
    7e46:	5d                   	pop    %rbp
    7e47:	c3                   	retq   

0000000000007e48 <func_29>:
    7e48:	f3 0f 1e fa          	endbr64 
    7e4c:	55                   	push   %rbp
    7e4d:	48 89 e5             	mov    %rsp,%rbp
    7e50:	48 83 ec 50          	sub    $0x50,%rsp
    7e54:	89 f8                	mov    %edi,%eax
    7e56:	48 89 75 c0          	mov    %rsi,-0x40(%rbp)
    7e5a:	48 89 55 b8          	mov    %rdx,-0x48(%rbp)
    7e5e:	88 45 cc             	mov    %al,-0x34(%rbp)
    7e61:	64 48 8b 04 25 28 00 	mov    %fs:0x28,%rax
    7e68:	00 00 
    7e6a:	48 89 45 f8          	mov    %rax,-0x8(%rbp)
    7e6e:	31 c0                	xor    %eax,%eax
    7e70:	48 8d 05 89 9f 00 00 	lea    0x9f89(%rip),%rax        # 11e00 <g_19>
    7e77:	48 89 45 e0          	mov    %rax,-0x20(%rbp)
    7e7b:	48 8d 05 86 9f 00 00 	lea    0x9f86(%rip),%rax        # 11e08 <g_51>
    7e82:	48 89 45 d0          	mov    %rax,-0x30(%rbp)
    7e86:	48 8d 45 d0          	lea    -0x30(%rbp),%rax
    7e8a:	48 89 45 e8          	mov    %rax,-0x18(%rbp)
    7e8e:	48 8b 15 6b 9f 00 00 	mov    0x9f6b(%rip),%rdx        # 11e00 <g_19>
    7e95:	48 8b 45 e0          	mov    -0x20(%rbp),%rax
    7e99:	48 89 10             	mov    %rdx,(%rax)
    7e9c:	0f be 45 cc          	movsbl -0x34(%rbp),%eax
    7ea0:	89 c7                	mov    %eax,%edi
    7ea2:	e8 65 00 00 00       	callq  7f0c <func_36>
    7ea7:	48 8b 55 e8          	mov    -0x18(%rbp),%rdx
    7eab:	48 89 02             	mov    %rax,(%rdx)
    7eae:	c7 05 60 72 00 00 00 	movl   $0x0,0x7260(%rip)        # f118 <g_86>
    7eb5:	00 00 00 
    7eb8:	eb 2d                	jmp    7ee7 <func_29+0x9f>
    7eba:	48 8d 05 57 75 00 00 	lea    0x7557(%rip),%rax        # f418 <g_296>
    7ec1:	48 89 45 d8          	mov    %rax,-0x28(%rbp)
    7ec5:	48 8d 45 d8          	lea    -0x28(%rbp),%rax
    7ec9:	48 89 45 f0          	mov    %rax,-0x10(%rbp)
    7ecd:	48 8b 55 d8          	mov    -0x28(%rbp),%rdx
    7ed1:	48 8b 45 f0          	mov    -0x10(%rbp),%rax
    7ed5:	48 89 10             	mov    %rdx,(%rax)
    7ed8:	8b 05 3a 72 00 00    	mov    0x723a(%rip),%eax        # f118 <g_86>
    7ede:	83 c0 01             	add    $0x1,%eax
    7ee1:	89 05 31 72 00 00    	mov    %eax,0x7231(%rip)        # f118 <g_86>
    7ee7:	8b 05 2b 72 00 00    	mov    0x722b(%rip),%eax        # f118 <g_86>
    7eed:	83 f8 15             	cmp    $0x15,%eax
    7ef0:	75 c8                	jne    7eba <func_29+0x72>
    7ef2:	0f b6 45 cc          	movzbl -0x34(%rbp),%eax
    7ef6:	48 8b 4d f8          	mov    -0x8(%rbp),%rcx
    7efa:	64 48 33 0c 25 28 00 	xor    %fs:0x28,%rcx
    7f01:	00 00 
    7f03:	74 05                	je     7f0a <func_29+0xc2>
    7f05:	e8 66 b1 ff ff       	callq  3070 <__stack_chk_fail@plt>
    7f0a:	c9                   	leaveq 
    7f0b:	c3                   	retq   

0000000000007f0c <func_36>:
    7f0c:	f3 0f 1e fa          	endbr64 
    7f10:	55                   	push   %rbp
    7f11:	48 89 e5             	mov    %rsp,%rbp
    7f14:	53                   	push   %rbx
    7f15:	48 83 ec 38          	sub    $0x38,%rsp
    7f19:	89 7d cc             	mov    %edi,-0x34(%rbp)
    7f1c:	c7 45 dc 09 00 00 00 	movl   $0x9,-0x24(%rbp)
    7f23:	48 8d 05 b5 71 00 00 	lea    0x71b5(%rip),%rax        # f0df <g_7+0x9f>
    7f2a:	48 89 45 e0          	mov    %rax,-0x20(%rbp)
    7f2e:	48 8d 05 cb 71 00 00 	lea    0x71cb(%rip),%rax        # f100 <g_53>
    7f35:	48 89 45 e8          	mov    %rax,-0x18(%rbp)
    7f39:	48 8b 05 c0 9e 00 00 	mov    0x9ec0(%rip),%rax        # 11e00 <g_19>
    7f40:	8b 55 cc             	mov    -0x34(%rbp),%edx
    7f43:	89 10                	mov    %edx,(%rax)
    7f45:	48 8b 45 e0          	mov    -0x20(%rbp),%rax
    7f49:	8b 18                	mov    (%rax),%ebx
    7f4b:	8b 05 8e 71 00 00    	mov    0x718e(%rip),%eax        # f0df <g_7+0x9f>
    7f51:	0f be d0             	movsbl %al,%edx
    7f54:	48 8b 05 a5 9e 00 00 	mov    0x9ea5(%rip),%rax        # 11e00 <g_19>
    7f5b:	8b 00                	mov    (%rax),%eax
    7f5d:	89 c6                	mov    %eax,%esi
    7f5f:	48 8b 05 aa 9e 00 00 	mov    0x9eaa(%rip),%rax        # 11e10 <g_50>
    7f66:	48 8d 0d 9b 9e 00 00 	lea    0x9e9b(%rip),%rcx        # 11e08 <g_51>
    7f6d:	48 39 c8             	cmp    %rcx,%rax
    7f70:	0f 95 c0             	setne  %al
    7f73:	09 f0                	or     %esi,%eax
    7f75:	0f be c0             	movsbl %al,%eax
    7f78:	89 d6                	mov    %edx,%esi
    7f7a:	89 c7                	mov    %eax,%edi
    7f7c:	e8 53 b2 ff ff       	callq  31d4 <safe_add_func_int8_t_s_s>
    7f81:	0f be c0             	movsbl %al,%eax
    7f84:	89 de                	mov    %ebx,%esi
    7f86:	89 c7                	mov    %eax,%edi
    7f88:	e8 3f b7 ff ff       	callq  36cc <safe_mod_func_int32_t_s_s>
    7f8d:	39 45 cc             	cmp    %eax,-0x34(%rbp)
    7f90:	0f 92 c0             	setb   %al
    7f93:	0f b6 d0             	movzbl %al,%edx
    7f96:	48 8b 45 e8          	mov    -0x18(%rbp),%rax
    7f9a:	48 89 10             	mov    %rdx,(%rax)
    7f9d:	48 8b 45 e8          	mov    -0x18(%rbp),%rax
    7fa1:	48 8b 00             	mov    (%rax),%rax
    7fa4:	48 89 c7             	mov    %rax,%rdi
    7fa7:	e8 6f 00 00 00       	callq  801b <func_43>
    7fac:	0f be c0             	movsbl %al,%eax
    7faf:	0c fe                	or     $0xfe,%al
    7fb1:	89 c2                	mov    %eax,%edx
    7fb3:	0f b7 45 dc          	movzwl -0x24(%rbp),%eax
    7fb7:	0f b6 c8             	movzbl %al,%ecx
    7fba:	8b 45 dc             	mov    -0x24(%rbp),%eax
    7fbd:	89 ce                	mov    %ecx,%esi
    7fbf:	89 c7                	mov    %eax,%edi
    7fc1:	e8 26 00 00 00       	callq  7fec <func_38>
    7fc6:	48 8b 45 e0          	mov    -0x20(%rbp),%rax
    7fca:	c7 00 01 00 00 00    	movl   $0x1,(%rax)
    7fd0:	48 8b 05 39 9e 00 00 	mov    0x9e39(%rip),%rax        # 11e10 <g_50>
    7fd7:	48 8b 55 e0          	mov    -0x20(%rbp),%rdx
    7fdb:	48 89 10             	mov    %rdx,(%rax)
    7fde:	48 8d 05 23 9e 00 00 	lea    0x9e23(%rip),%rax        # 11e08 <g_51>
    7fe5:	48 83 c4 38          	add    $0x38,%rsp
    7fe9:	5b                   	pop    %rbx
    7fea:	5d                   	pop    %rbp
    7feb:	c3                   	retq   

0000000000007fec <func_38>:
    7fec:	f3 0f 1e fa          	endbr64 
    7ff0:	55                   	push   %rbp
    7ff1:	48 89 e5             	mov    %rsp,%rbp
    7ff4:	89 7d ec             	mov    %edi,-0x14(%rbp)
    7ff7:	89 f0                	mov    %esi,%eax
    7ff9:	89 55 e4             	mov    %edx,-0x1c(%rbp)
    7ffc:	88 45 e8             	mov    %al,-0x18(%rbp)
    7fff:	66 c7 45 fe 00 00    	movw   $0x0,-0x2(%rbp)
    8005:	48 8b 05 04 9e 00 00 	mov    0x9e04(%rip),%rax        # 11e10 <g_50>
    800c:	48 8b 00             	mov    (%rax),%rax
    800f:	c7 00 93 af a5 90    	movl   $0x90a5af93,(%rax)
    8015:	0f b7 45 fe          	movzwl -0x2(%rbp),%eax
    8019:	5d                   	pop    %rbp
    801a:	c3                   	retq   

000000000000801b <func_43>:
    801b:	f3 0f 1e fa          	endbr64 
    801f:	55                   	push   %rbp
    8020:	48 89 e5             	mov    %rsp,%rbp
    8023:	48 81 ec 40 05 00 00 	sub    $0x540,%rsp
    802a:	48 89 bd c8 fa ff ff 	mov    %rdi,-0x538(%rbp)
    8031:	64 48 8b 04 25 28 00 	mov    %fs:0x28,%rax
    8038:	00 00 
    803a:	48 89 45 f8          	mov    %rax,-0x8(%rbp)
    803e:	31 c0                	xor    %eax,%eax
    8040:	c7 85 f0 fa ff ff 20 	movl   $0x8b43f620,-0x510(%rbp)
    8047:	f6 43 8b 
    804a:	c7 85 70 fb ff ff 01 	movl   $0x1,-0x490(%rbp)
    8051:	00 00 00 
    8054:	c7 85 74 fb ff ff ff 	movl   $0xffffffff,-0x48c(%rbp)
    805b:	ff ff ff 
    805e:	c7 85 78 fb ff ff 01 	movl   $0x1,-0x488(%rbp)
    8065:	00 00 00 
    8068:	c7 85 7c fb ff ff 01 	movl   $0x1,-0x484(%rbp)
    806f:	00 00 00 
    8072:	c7 85 80 fb ff ff ff 	movl   $0xffffffff,-0x480(%rbp)
    8079:	ff ff ff 
    807c:	c7 85 84 fb ff ff 01 	movl   $0x1,-0x47c(%rbp)
    8083:	00 00 00 
    8086:	c7 85 88 fb ff ff 01 	movl   $0x1,-0x478(%rbp)
    808d:	00 00 00 
    8090:	c7 85 8c fb ff ff ff 	movl   $0xffffffff,-0x474(%rbp)
    8097:	ff ff ff 
    809a:	c7 85 90 fb ff ff 01 	movl   $0x1,-0x470(%rbp)
    80a1:	00 00 00 
    80a4:	48 8d 85 a0 fc ff ff 	lea    -0x360(%rbp),%rax
    80ab:	48 8d 15 ae 36 00 00 	lea    0x36ae(%rip),%rdx        # b760 <g_260+0x700>
    80b2:	b9 2d 00 00 00       	mov    $0x2d,%ecx
    80b7:	48 89 c7             	mov    %rax,%rdi
    80ba:	48 89 d6             	mov    %rdx,%rsi
    80bd:	f3 48 a5             	rep movsq %ds:(%rsi),%es:(%rdi)
    80c0:	48 8d 05 41 9d 00 00 	lea    0x9d41(%rip),%rax        # 11e08 <g_51>
    80c7:	48 89 85 00 fb ff ff 	mov    %rax,-0x500(%rbp)
    80ce:	48 8d 05 c3 72 00 00 	lea    0x72c3(%rip),%rax        # f398 <g_166>
    80d5:	48 89 85 08 fb ff ff 	mov    %rax,-0x4f8(%rbp)
    80dc:	48 b8 47 48 e0 03 0b 	movabs $0xb92cd80b03e04847,%rax
    80e3:	d8 2c b9 
    80e6:	48 89 85 10 fb ff ff 	mov    %rax,-0x4f0(%rbp)
    80ed:	48 8d 05 c4 72 00 00 	lea    0x72c4(%rip),%rax        # f3b8 <g_191>
    80f4:	48 89 85 18 fb ff ff 	mov    %rax,-0x4e8(%rbp)
    80fb:	48 8d 05 8a 6f 00 00 	lea    0x6f8a(%rip),%rax        # f08c <g_7+0x4c>
    8102:	48 89 85 20 fb ff ff 	mov    %rax,-0x4e0(%rbp)
    8109:	c7 85 e4 fa ff ff 00 	movl   $0x0,-0x51c(%rbp)
    8110:	00 00 00 
    8113:	eb 4b                	jmp    8160 <func_43+0x145>
    8115:	c7 85 e8 fa ff ff 00 	movl   $0x0,-0x518(%rbp)
    811c:	00 00 00 
    811f:	eb 2f                	jmp    8150 <func_43+0x135>
    8121:	8b 85 e8 fa ff ff    	mov    -0x518(%rbp),%eax
    8127:	48 63 c8             	movslq %eax,%rcx
    812a:	8b 85 e4 fa ff ff    	mov    -0x51c(%rbp),%eax
    8130:	48 63 d0             	movslq %eax,%rdx
    8133:	48 89 d0             	mov    %rdx,%rax
    8136:	48 01 c0             	add    %rax,%rax
    8139:	48 01 d0             	add    %rdx,%rax
    813c:	48 01 c8             	add    %rcx,%rax
    813f:	66 c7 84 45 4a fb ff 	movw   $0x6c61,-0x4b6(%rbp,%rax,2)
    8146:	ff 61 6c 
    8149:	83 85 e8 fa ff ff 01 	addl   $0x1,-0x518(%rbp)
    8150:	83 bd e8 fa ff ff 02 	cmpl   $0x2,-0x518(%rbp)
    8157:	7e c8                	jle    8121 <func_43+0x106>
    8159:	83 85 e4 fa ff ff 01 	addl   $0x1,-0x51c(%rbp)
    8160:	83 bd e4 fa ff ff 00 	cmpl   $0x0,-0x51c(%rbp)
    8167:	7e ac                	jle    8115 <func_43+0xfa>
    8169:	48 c7 85 c8 fa ff ff 	movq   $0x0,-0x538(%rbp)
    8170:	00 00 00 00 
    8174:	e9 8a 02 00 00       	jmpq   8403 <func_43+0x3e8>
    8179:	48 8d 05 5f 6f 00 00 	lea    0x6f5f(%rip),%rax        # f0df <g_7+0x9f>
    8180:	48 89 85 28 fb ff ff 	mov    %rax,-0x4d8(%rbp)
    8187:	48 c7 85 30 fb ff ff 	movq   $0x0,-0x4d0(%rbp)
    818e:	00 00 00 00 
    8192:	48 8d 05 46 6f 00 00 	lea    0x6f46(%rip),%rax        # f0df <g_7+0x9f>
    8199:	48 89 85 f8 fa ff ff 	mov    %rax,-0x508(%rbp)
    81a0:	c7 85 dc fa ff ff fb 	movl   $0xfffffffb,-0x524(%rbp)
    81a7:	ff ff ff 
    81aa:	48 8d 85 dc fa ff ff 	lea    -0x524(%rbp),%rax
    81b1:	48 89 85 a0 fb ff ff 	mov    %rax,-0x460(%rbp)
    81b8:	48 8d 85 dc fa ff ff 	lea    -0x524(%rbp),%rax
    81bf:	48 89 85 a8 fb ff ff 	mov    %rax,-0x458(%rbp)
    81c6:	48 8d 85 dc fa ff ff 	lea    -0x524(%rbp),%rax
    81cd:	48 89 85 b0 fb ff ff 	mov    %rax,-0x450(%rbp)
    81d4:	48 8d 05 04 6f 00 00 	lea    0x6f04(%rip),%rax        # f0df <g_7+0x9f>
    81db:	48 89 85 b8 fb ff ff 	mov    %rax,-0x448(%rbp)
    81e2:	48 8d 85 dc fa ff ff 	lea    -0x524(%rbp),%rax
    81e9:	48 89 85 c0 fb ff ff 	mov    %rax,-0x440(%rbp)
    81f0:	48 8d 05 e8 6e 00 00 	lea    0x6ee8(%rip),%rax        # f0df <g_7+0x9f>
    81f7:	48 89 85 c8 fb ff ff 	mov    %rax,-0x438(%rbp)
    81fe:	48 8d 05 da 6e 00 00 	lea    0x6eda(%rip),%rax        # f0df <g_7+0x9f>
    8205:	48 89 85 d0 fb ff ff 	mov    %rax,-0x430(%rbp)
    820c:	48 8d 85 dc fa ff ff 	lea    -0x524(%rbp),%rax
    8213:	48 89 85 d8 fb ff ff 	mov    %rax,-0x428(%rbp)
    821a:	48 8d 05 be 6e 00 00 	lea    0x6ebe(%rip),%rax        # f0df <g_7+0x9f>
    8221:	48 89 85 e0 fb ff ff 	mov    %rax,-0x420(%rbp)
    8228:	48 8d 05 b0 6e 00 00 	lea    0x6eb0(%rip),%rax        # f0df <g_7+0x9f>
    822f:	48 89 85 e8 fb ff ff 	mov    %rax,-0x418(%rbp)
    8236:	48 c7 85 f0 fb ff ff 	movq   $0x0,-0x410(%rbp)
    823d:	00 00 00 00 
    8241:	48 8d 05 97 6e 00 00 	lea    0x6e97(%rip),%rax        # f0df <g_7+0x9f>
    8248:	48 89 85 f8 fb ff ff 	mov    %rax,-0x408(%rbp)
    824f:	48 8d 05 89 6e 00 00 	lea    0x6e89(%rip),%rax        # f0df <g_7+0x9f>
    8256:	48 89 85 00 fc ff ff 	mov    %rax,-0x400(%rbp)
    825d:	48 8d 85 dc fa ff ff 	lea    -0x524(%rbp),%rax
    8264:	48 89 85 08 fc ff ff 	mov    %rax,-0x3f8(%rbp)
    826b:	48 c7 85 10 fc ff ff 	movq   $0x0,-0x3f0(%rbp)
    8272:	00 00 00 00 
    8276:	48 c7 85 18 fc ff ff 	movq   $0x0,-0x3e8(%rbp)
    827d:	00 00 00 00 
    8281:	48 8d 05 57 6e 00 00 	lea    0x6e57(%rip),%rax        # f0df <g_7+0x9f>
    8288:	48 89 85 20 fc ff ff 	mov    %rax,-0x3e0(%rbp)
    828f:	48 8d 05 49 6e 00 00 	lea    0x6e49(%rip),%rax        # f0df <g_7+0x9f>
    8296:	48 89 85 28 fc ff ff 	mov    %rax,-0x3d8(%rbp)
    829d:	48 8d 05 3b 6e 00 00 	lea    0x6e3b(%rip),%rax        # f0df <g_7+0x9f>
    82a4:	48 89 85 30 fc ff ff 	mov    %rax,-0x3d0(%rbp)
    82ab:	48 c7 85 38 fc ff ff 	movq   $0x0,-0x3c8(%rbp)
    82b2:	00 00 00 00 
    82b6:	48 8d 85 dc fa ff ff 	lea    -0x524(%rbp),%rax
    82bd:	48 89 85 40 fc ff ff 	mov    %rax,-0x3c0(%rbp)
    82c4:	48 8d 85 dc fa ff ff 	lea    -0x524(%rbp),%rax
    82cb:	48 89 85 48 fc ff ff 	mov    %rax,-0x3b8(%rbp)
    82d2:	48 8d 85 dc fa ff ff 	lea    -0x524(%rbp),%rax
    82d9:	48 89 85 50 fc ff ff 	mov    %rax,-0x3b0(%rbp)
    82e0:	48 8d 05 f8 6d 00 00 	lea    0x6df8(%rip),%rax        # f0df <g_7+0x9f>
    82e7:	48 89 85 58 fc ff ff 	mov    %rax,-0x3a8(%rbp)
    82ee:	48 8d 85 dc fa ff ff 	lea    -0x524(%rbp),%rax
    82f5:	48 89 85 60 fc ff ff 	mov    %rax,-0x3a0(%rbp)
    82fc:	48 8d 05 dc 6d 00 00 	lea    0x6ddc(%rip),%rax        # f0df <g_7+0x9f>
    8303:	48 89 85 68 fc ff ff 	mov    %rax,-0x398(%rbp)
    830a:	48 8d 05 ce 6d 00 00 	lea    0x6dce(%rip),%rax        # f0df <g_7+0x9f>
    8311:	48 89 85 70 fc ff ff 	mov    %rax,-0x390(%rbp)
    8318:	48 8d 85 dc fa ff ff 	lea    -0x524(%rbp),%rax
    831f:	48 89 85 78 fc ff ff 	mov    %rax,-0x388(%rbp)
    8326:	48 8d 05 b2 6d 00 00 	lea    0x6db2(%rip),%rax        # f0df <g_7+0x9f>
    832d:	48 89 85 80 fc ff ff 	mov    %rax,-0x380(%rbp)
    8334:	48 8d 05 a4 6d 00 00 	lea    0x6da4(%rip),%rax        # f0df <g_7+0x9f>
    833b:	48 89 85 88 fc ff ff 	mov    %rax,-0x378(%rbp)
    8342:	48 c7 85 90 fc ff ff 	movq   $0x0,-0x370(%rbp)
    8349:	00 00 00 00 
    834d:	48 8d 05 8b 6d 00 00 	lea    0x6d8b(%rip),%rax        # f0df <g_7+0x9f>
    8354:	48 89 85 98 fc ff ff 	mov    %rax,-0x368(%rbp)
    835b:	c7 85 f4 fa ff ff f6 	movl   $0xea18caf6,-0x50c(%rbp)
    8362:	ca 18 ea 
    8365:	c7 85 e0 fa ff ff fb 	movl   $0xfffffffb,-0x520(%rbp)
    836c:	ff ff ff 
    836f:	48 8d 85 f8 fa ff ff 	lea    -0x508(%rbp),%rax
    8376:	48 89 85 38 fb ff ff 	mov    %rax,-0x4c8(%rbp)
    837d:	48 8d 85 10 fe ff ff 	lea    -0x1f0(%rbp),%rax
    8384:	48 8d 15 55 35 00 00 	lea    0x3555(%rip),%rdx        # b8e0 <g_260+0x880>
    838b:	b9 3c 00 00 00       	mov    $0x3c,%ecx
    8390:	48 89 c7             	mov    %rax,%rdi
    8393:	48 89 d6             	mov    %rdx,%rsi
    8396:	f3 48 a5             	rep movsq %ds:(%rsi),%es:(%rdi)
    8399:	48 c7 85 40 fb ff ff 	movq   $0x0,-0x4c0(%rbp)
    83a0:	00 00 00 00 
    83a4:	c7 85 ec fa ff ff 00 	movl   $0x0,-0x514(%rbp)
    83ab:	00 00 00 
    83ae:	eb 1e                	jmp    83ce <func_43+0x3b3>
    83b0:	8b 85 ec fa ff ff    	mov    -0x514(%rbp),%eax
    83b6:	48 98                	cltq   
    83b8:	48 8d 15 e2 6f 00 00 	lea    0x6fe2(%rip),%rdx        # f3a1 <g_189+0x1>
    83bf:	48 89 94 c5 50 fb ff 	mov    %rdx,-0x4b0(%rbp,%rax,8)
    83c6:	ff 
    83c7:	83 85 ec fa ff ff 01 	addl   $0x1,-0x514(%rbp)
    83ce:	83 bd ec fa ff ff 02 	cmpl   $0x2,-0x514(%rbp)
    83d5:	7e d9                	jle    83b0 <func_43+0x395>
    83d7:	0f b6 05 2a 6d 00 00 	movzbl 0x6d2a(%rip),%eax        # f108 <g_64>
    83de:	83 e8 01             	sub    $0x1,%eax
    83e1:	88 05 21 6d 00 00    	mov    %al,0x6d21(%rip)        # f108 <g_64>
    83e7:	48 8b 85 c8 fa ff ff 	mov    -0x538(%rbp),%rax
    83ee:	be 08 00 00 00       	mov    $0x8,%esi
    83f3:	89 c7                	mov    %eax,%edi
    83f5:	e8 be ba ff ff       	callq  3eb8 <safe_add_func_uint32_t_u_u>
    83fa:	89 c0                	mov    %eax,%eax
    83fc:	48 89 85 c8 fa ff ff 	mov    %rax,-0x538(%rbp)
    8403:	48 83 bd c8 fa ff ff 	cmpq   $0xa,-0x538(%rbp)
    840a:	0a 
    840b:	0f 86 68 fd ff ff    	jbe    8179 <func_43+0x15e>
    8411:	48 8b 85 00 fb ff ff 	mov    -0x500(%rbp),%rax
    8418:	48 8b 00             	mov    (%rax),%rax
    841b:	8b 00                	mov    (%rax),%eax
    841d:	48 8b 75 f8          	mov    -0x8(%rbp),%rsi
    8421:	64 48 33 34 25 28 00 	xor    %fs:0x28,%rsi
    8428:	00 00 
    842a:	74 05                	je     8431 <func_43+0x416>
    842c:	e8 3f ac ff ff       	callq  3070 <__stack_chk_fail@plt>
    8431:	c9                   	leaveq 
    8432:	c3                   	retq   

0000000000008433 <main>:
    8433:	f3 0f 1e fa          	endbr64 
    8437:	55                   	push   %rbp
    8438:	48 89 e5             	mov    %rsp,%rbp
    843b:	48 83 ec 20          	sub    $0x20,%rsp
    843f:	89 7d ec             	mov    %edi,-0x14(%rbp)
    8442:	48 89 75 e0          	mov    %rsi,-0x20(%rbp)
    8446:	c7 45 fc 00 00 00 00 	movl   $0x0,-0x4(%rbp)
    844d:	83 7d ec 02          	cmpl   $0x2,-0x14(%rbp)
    8451:	74 25                	je     8478 <main+0x45>
    8453:	48 8b 45 e0          	mov    -0x20(%rbp),%rax
    8457:	48 83 c0 08          	add    $0x8,%rax
    845b:	48 8b 00             	mov    (%rax),%rax
    845e:	48 8d 35 5b 36 00 00 	lea    0x365b(%rip),%rsi        # bac0 <g_260+0xa60>
    8465:	48 89 c7             	mov    %rax,%rdi
    8468:	e8 23 ac ff ff       	callq  3090 <strcmp@plt>
    846d:	85 c0                	test   %eax,%eax
    846f:	74 07                	je     8478 <main+0x45>
    8471:	c7 45 fc 01 00 00 00 	movl   $0x1,-0x4(%rbp)
    8478:	e8 0c ad ff ff       	callq  3189 <platform_main_begin>
    847d:	e8 16 c1 ff ff       	callq  4598 <crc32_gentab>
    8482:	e8 2e c3 ff ff       	callq  47b5 <func_1>
    8487:	c7 45 f0 00 00 00 00 	movl   $0x0,-0x10(%rbp)
    848e:	e9 33 01 00 00       	jmpq   85c6 <main+0x193>
    8493:	8b 45 f0             	mov    -0x10(%rbp),%eax
    8496:	48 63 d0             	movslq %eax,%rdx
    8499:	48 89 d0             	mov    %rdx,%rax
    849c:	48 c1 e0 03          	shl    $0x3,%rax
    84a0:	48 01 d0             	add    %rdx,%rax
    84a3:	48 01 c0             	add    %rax,%rax
    84a6:	48 01 c2             	add    %rax,%rdx
    84a9:	48 8d 05 90 6b 00 00 	lea    0x6b90(%rip),%rax        # f040 <g_7>
    84b0:	0f b6 04 02          	movzbl (%rdx,%rax,1),%eax
    84b4:	83 e0 03             	and    $0x3,%eax
    84b7:	0f b6 c0             	movzbl %al,%eax
    84ba:	8b 55 fc             	mov    -0x4(%rbp),%edx
    84bd:	48 8d 35 fe 35 00 00 	lea    0x35fe(%rip),%rsi        # bac2 <g_260+0xa62>
    84c4:	48 89 c7             	mov    %rax,%rdi
    84c7:	e8 27 c2 ff ff       	callq  46f3 <transparent_crc>
    84cc:	8b 45 f0             	mov    -0x10(%rbp),%eax
    84cf:	48 63 d0             	movslq %eax,%rdx
    84d2:	48 89 d0             	mov    %rdx,%rax
    84d5:	48 c1 e0 03          	shl    $0x3,%rax
    84d9:	48 01 d0             	add    %rdx,%rax
    84dc:	48 01 c0             	add    %rax,%rax
    84df:	48 01 c2             	add    %rax,%rdx
    84e2:	48 8d 05 57 6b 00 00 	lea    0x6b57(%rip),%rax        # f040 <g_7>
    84e9:	0f b7 44 02 01       	movzwl 0x1(%rdx,%rax,1),%eax
    84ee:	0f b7 c0             	movzwl %ax,%eax
    84f1:	8b 55 fc             	mov    -0x4(%rbp),%edx
    84f4:	48 8d 35 d1 35 00 00 	lea    0x35d1(%rip),%rsi        # bacc <g_260+0xa6c>
    84fb:	48 89 c7             	mov    %rax,%rdi
    84fe:	e8 f0 c1 ff ff       	callq  46f3 <transparent_crc>
    8503:	8b 45 f0             	mov    -0x10(%rbp),%eax
    8506:	48 63 d0             	movslq %eax,%rdx
    8509:	48 89 d0             	mov    %rdx,%rax
    850c:	48 c1 e0 03          	shl    $0x3,%rax
    8510:	48 01 d0             	add    %rdx,%rax
    8513:	48 01 c0             	add    %rax,%rax
    8516:	48 01 c2             	add    %rax,%rdx
    8519:	48 8d 05 20 6b 00 00 	lea    0x6b20(%rip),%rax        # f040 <g_7>
    8520:	8b 44 02 03          	mov    0x3(%rdx,%rax,1),%eax
    8524:	48 98                	cltq   
    8526:	8b 55 fc             	mov    -0x4(%rbp),%edx
    8529:	48 8d 35 a6 35 00 00 	lea    0x35a6(%rip),%rsi        # bad6 <g_260+0xa76>
    8530:	48 89 c7             	mov    %rax,%rdi
    8533:	e8 bb c1 ff ff       	callq  46f3 <transparent_crc>
    8538:	8b 45 f0             	mov    -0x10(%rbp),%eax
    853b:	48 63 d0             	movslq %eax,%rdx
    853e:	48 89 d0             	mov    %rdx,%rax
    8541:	48 c1 e0 03          	shl    $0x3,%rax
    8545:	48 01 d0             	add    %rdx,%rax
    8548:	48 01 c0             	add    %rax,%rax
    854b:	48 01 c2             	add    %rax,%rdx
    854e:	48 8d 05 eb 6a 00 00 	lea    0x6aeb(%rip),%rax        # f040 <g_7>
    8555:	8b 44 02 07          	mov    0x7(%rdx,%rax,1),%eax
    8559:	48 98                	cltq   
    855b:	8b 55 fc             	mov    -0x4(%rbp),%edx
    855e:	48 8d 35 7b 35 00 00 	lea    0x357b(%rip),%rsi        # bae0 <g_260+0xa80>
    8565:	48 89 c7             	mov    %rax,%rdi
    8568:	e8 86 c1 ff ff       	callq  46f3 <transparent_crc>
    856d:	8b 45 f0             	mov    -0x10(%rbp),%eax
    8570:	48 63 d0             	movslq %eax,%rdx
    8573:	48 89 d0             	mov    %rdx,%rax
    8576:	48 c1 e0 03          	shl    $0x3,%rax
    857a:	48 01 d0             	add    %rdx,%rax
    857d:	48 01 c0             	add    %rax,%rax
    8580:	48 01 c2             	add    %rax,%rdx
    8583:	48 8d 05 b6 6a 00 00 	lea    0x6ab6(%rip),%rax        # f040 <g_7>
    858a:	48 8b 44 02 0b       	mov    0xb(%rdx,%rax,1),%rax
    858f:	48 89 c1             	mov    %rax,%rcx
    8592:	8b 45 fc             	mov    -0x4(%rbp),%eax
    8595:	89 c2                	mov    %eax,%edx
    8597:	48 8d 35 4c 35 00 00 	lea    0x354c(%rip),%rsi        # baea <g_260+0xa8a>
    859e:	48 89 cf             	mov    %rcx,%rdi
    85a1:	e8 4d c1 ff ff       	callq  46f3 <transparent_crc>
    85a6:	83 7d fc 00          	cmpl   $0x0,-0x4(%rbp)
    85aa:	74 16                	je     85c2 <main+0x18f>
    85ac:	8b 45 f0             	mov    -0x10(%rbp),%eax
    85af:	89 c6                	mov    %eax,%esi
    85b1:	48 8d 3d 3c 35 00 00 	lea    0x353c(%rip),%rdi        # baf4 <g_260+0xa94>
    85b8:	b8 00 00 00 00       	mov    $0x0,%eax
    85bd:	e8 be aa ff ff       	callq  3080 <printf@plt>
    85c2:	83 45 f0 01          	addl   $0x1,-0x10(%rbp)
    85c6:	83 7d f0 09          	cmpl   $0x9,-0x10(%rbp)
    85ca:	0f 8e c3 fe ff ff    	jle    8493 <main+0x60>
    85d0:	48 8b 05 29 6b 00 00 	mov    0x6b29(%rip),%rax        # f100 <g_53>
    85d7:	8b 55 fc             	mov    -0x4(%rbp),%edx
    85da:	48 8d 35 21 35 00 00 	lea    0x3521(%rip),%rsi        # bb02 <g_260+0xaa2>
    85e1:	48 89 c7             	mov    %rax,%rdi
    85e4:	e8 0a c1 ff ff       	callq  46f3 <transparent_crc>
    85e9:	0f b6 05 18 6b 00 00 	movzbl 0x6b18(%rip),%eax        # f108 <g_64>
    85f0:	0f b6 c0             	movzbl %al,%eax
    85f3:	8b 55 fc             	mov    -0x4(%rbp),%edx
    85f6:	48 8d 35 0a 35 00 00 	lea    0x350a(%rip),%rsi        # bb07 <g_260+0xaa7>
    85fd:	48 89 c7             	mov    %rax,%rdi
    8600:	e8 ee c0 ff ff       	callq  46f3 <transparent_crc>
    8605:	48 8b 05 04 6b 00 00 	mov    0x6b04(%rip),%rax        # f110 <g_67>
    860c:	25 ff ff ff 3f       	and    $0x3fffffff,%eax
    8611:	89 c1                	mov    %eax,%ecx
    8613:	8b 45 fc             	mov    -0x4(%rbp),%eax
    8616:	89 c2                	mov    %eax,%edx
    8618:	48 8d 35 ed 34 00 00 	lea    0x34ed(%rip),%rsi        # bb0c <g_260+0xaac>
    861f:	48 89 cf             	mov    %rcx,%rdi
    8622:	e8 cc c0 ff ff       	callq  46f3 <transparent_crc>
    8627:	48 8b 05 e2 6a 00 00 	mov    0x6ae2(%rip),%rax        # f110 <g_67>
    862e:	48 c1 e8 20          	shr    $0x20,%rax
    8632:	25 ff ff 0f 00       	and    $0xfffff,%eax
    8637:	89 c1                	mov    %eax,%ecx
    8639:	8b 45 fc             	mov    -0x4(%rbp),%eax
    863c:	89 c2                	mov    %eax,%edx
    863e:	48 8d 35 cf 34 00 00 	lea    0x34cf(%rip),%rsi        # bb14 <g_260+0xab4>
    8645:	48 89 cf             	mov    %rcx,%rdi
    8648:	e8 a6 c0 ff ff       	callq  46f3 <transparent_crc>
    864d:	48 8b 05 bc 6a 00 00 	mov    0x6abc(%rip),%rax        # f110 <g_67>
    8654:	48 c1 e0 05          	shl    $0x5,%rax
    8658:	48 c1 f8 39          	sar    $0x39,%rax
    865c:	48 0f be c0          	movsbq %al,%rax
    8660:	8b 55 fc             	mov    -0x4(%rbp),%edx
    8663:	48 8d 35 b2 34 00 00 	lea    0x34b2(%rip),%rsi        # bb1c <g_260+0xabc>
    866a:	48 89 c7             	mov    %rax,%rdi
    866d:	e8 81 c0 ff ff       	callq  46f3 <transparent_crc>
    8672:	48 8b 05 97 6a 00 00 	mov    0x6a97(%rip),%rax        # f110 <g_67>
    8679:	48 c1 f8 3b          	sar    $0x3b,%rax
    867d:	48 0f be c0          	movsbq %al,%rax
    8681:	8b 55 fc             	mov    -0x4(%rbp),%edx
    8684:	48 8d 35 99 34 00 00 	lea    0x3499(%rip),%rsi        # bb24 <g_260+0xac4>
    868b:	48 89 c7             	mov    %rax,%rdi
    868e:	e8 60 c0 ff ff       	callq  46f3 <transparent_crc>
    8693:	8b 05 7f 6a 00 00    	mov    0x6a7f(%rip),%eax        # f118 <g_86>
    8699:	89 c1                	mov    %eax,%ecx
    869b:	8b 45 fc             	mov    -0x4(%rbp),%eax
    869e:	89 c2                	mov    %eax,%edx
    86a0:	48 8d 35 85 34 00 00 	lea    0x3485(%rip),%rsi        # bb2c <g_260+0xacc>
    86a7:	48 89 cf             	mov    %rcx,%rdi
    86aa:	e8 44 c0 ff ff       	callq  46f3 <transparent_crc>
    86af:	0f b6 05 66 6a 00 00 	movzbl 0x6a66(%rip),%eax        # f11c <g_90>
    86b6:	48 0f be c0          	movsbq %al,%rax
    86ba:	8b 55 fc             	mov    -0x4(%rbp),%edx
    86bd:	48 8d 35 6d 34 00 00 	lea    0x346d(%rip),%rsi        # bb31 <g_260+0xad1>
    86c4:	48 89 c7             	mov    %rax,%rdi
    86c7:	e8 27 c0 ff ff       	callq  46f3 <transparent_crc>
    86cc:	c7 45 f0 00 00 00 00 	movl   $0x0,-0x10(%rbp)
    86d3:	e9 e6 01 00 00       	jmpq   88be <main+0x48b>
    86d8:	c7 45 f4 00 00 00 00 	movl   $0x0,-0xc(%rbp)
    86df:	e9 cc 01 00 00       	jmpq   88b0 <main+0x47d>
    86e4:	8b 45 f4             	mov    -0xc(%rbp),%eax
    86e7:	48 98                	cltq   
    86e9:	8b 55 f0             	mov    -0x10(%rbp),%edx
    86ec:	48 63 ca             	movslq %edx,%rcx
    86ef:	48 89 c2             	mov    %rax,%rdx
    86f2:	48 c1 e2 03          	shl    $0x3,%rdx
    86f6:	48 01 c2             	add    %rax,%rdx
    86f9:	48 01 d2             	add    %rdx,%rdx
    86fc:	48 01 c2             	add    %rax,%rdx
    86ff:	48 89 c8             	mov    %rcx,%rax
    8702:	48 c1 e0 03          	shl    $0x3,%rax
    8706:	48 01 c8             	add    %rcx,%rax
    8709:	48 01 c0             	add    %rax,%rax
    870c:	48 01 c8             	add    %rcx,%rax
    870f:	48 c1 e0 03          	shl    $0x3,%rax
    8713:	48 01 c2             	add    %rax,%rdx
    8716:	48 8d 05 03 6a 00 00 	lea    0x6a03(%rip),%rax        # f120 <g_93>
    871d:	48 01 d0             	add    %rdx,%rax
    8720:	0f b6 00             	movzbl (%rax),%eax
    8723:	83 e0 03             	and    $0x3,%eax
    8726:	0f b6 c0             	movzbl %al,%eax
    8729:	8b 55 fc             	mov    -0x4(%rbp),%edx
    872c:	48 8d 35 03 34 00 00 	lea    0x3403(%rip),%rsi        # bb36 <g_260+0xad6>
    8733:	48 89 c7             	mov    %rax,%rdi
    8736:	e8 b8 bf ff ff       	callq  46f3 <transparent_crc>
    873b:	8b 45 f4             	mov    -0xc(%rbp),%eax
    873e:	48 98                	cltq   
    8740:	8b 55 f0             	mov    -0x10(%rbp),%edx
    8743:	48 63 ca             	movslq %edx,%rcx
    8746:	48 89 c2             	mov    %rax,%rdx
    8749:	48 c1 e2 03          	shl    $0x3,%rdx
    874d:	48 01 c2             	add    %rax,%rdx
    8750:	48 01 d2             	add    %rdx,%rdx
    8753:	48 01 c2             	add    %rax,%rdx
    8756:	48 89 c8             	mov    %rcx,%rax
    8759:	48 c1 e0 03          	shl    $0x3,%rax
    875d:	48 01 c8             	add    %rcx,%rax
    8760:	48 01 c0             	add    %rax,%rax
    8763:	48 01 c8             	add    %rcx,%rax
    8766:	48 c1 e0 03          	shl    $0x3,%rax
    876a:	48 01 c2             	add    %rax,%rdx
    876d:	48 8d 05 ac 69 00 00 	lea    0x69ac(%rip),%rax        # f120 <g_93>
    8774:	48 01 d0             	add    %rdx,%rax
    8777:	0f b7 40 01          	movzwl 0x1(%rax),%eax
    877b:	0f b7 c0             	movzwl %ax,%eax
    877e:	8b 55 fc             	mov    -0x4(%rbp),%edx
    8781:	48 8d 35 bc 33 00 00 	lea    0x33bc(%rip),%rsi        # bb44 <g_260+0xae4>
    8788:	48 89 c7             	mov    %rax,%rdi
    878b:	e8 63 bf ff ff       	callq  46f3 <transparent_crc>
    8790:	8b 45 f4             	mov    -0xc(%rbp),%eax
    8793:	48 98                	cltq   
    8795:	8b 55 f0             	mov    -0x10(%rbp),%edx
    8798:	48 63 ca             	movslq %edx,%rcx
    879b:	48 89 c2             	mov    %rax,%rdx
    879e:	48 c1 e2 03          	shl    $0x3,%rdx
    87a2:	48 01 c2             	add    %rax,%rdx
    87a5:	48 01 d2             	add    %rdx,%rdx
    87a8:	48 01 c2             	add    %rax,%rdx
    87ab:	48 89 c8             	mov    %rcx,%rax
    87ae:	48 c1 e0 03          	shl    $0x3,%rax
    87b2:	48 01 c8             	add    %rcx,%rax
    87b5:	48 01 c0             	add    %rax,%rax
    87b8:	48 01 c8             	add    %rcx,%rax
    87bb:	48 c1 e0 03          	shl    $0x3,%rax
    87bf:	48 01 c2             	add    %rax,%rdx
    87c2:	48 8d 05 57 69 00 00 	lea    0x6957(%rip),%rax        # f120 <g_93>
    87c9:	48 01 d0             	add    %rdx,%rax
    87cc:	8b 40 03             	mov    0x3(%rax),%eax
    87cf:	48 98                	cltq   
    87d1:	8b 55 fc             	mov    -0x4(%rbp),%edx
    87d4:	48 8d 35 77 33 00 00 	lea    0x3377(%rip),%rsi        # bb52 <g_260+0xaf2>
    87db:	48 89 c7             	mov    %rax,%rdi
    87de:	e8 10 bf ff ff       	callq  46f3 <transparent_crc>
    87e3:	8b 45 f4             	mov    -0xc(%rbp),%eax
    87e6:	48 98                	cltq   
    87e8:	8b 55 f0             	mov    -0x10(%rbp),%edx
    87eb:	48 63 ca             	movslq %edx,%rcx
    87ee:	48 89 c2             	mov    %rax,%rdx
    87f1:	48 c1 e2 03          	shl    $0x3,%rdx
    87f5:	48 01 c2             	add    %rax,%rdx
    87f8:	48 01 d2             	add    %rdx,%rdx
    87fb:	48 01 c2             	add    %rax,%rdx
    87fe:	48 89 c8             	mov    %rcx,%rax
    8801:	48 c1 e0 03          	shl    $0x3,%rax
    8805:	48 01 c8             	add    %rcx,%rax
    8808:	48 01 c0             	add    %rax,%rax
    880b:	48 01 c8             	add    %rcx,%rax
    880e:	48 c1 e0 03          	shl    $0x3,%rax
    8812:	48 01 c2             	add    %rax,%rdx
    8815:	48 8d 05 04 69 00 00 	lea    0x6904(%rip),%rax        # f120 <g_93>
    881c:	48 01 d0             	add    %rdx,%rax
    881f:	8b 40 07             	mov    0x7(%rax),%eax
    8822:	48 98                	cltq   
    8824:	8b 55 fc             	mov    -0x4(%rbp),%edx
    8827:	48 8d 35 32 33 00 00 	lea    0x3332(%rip),%rsi        # bb60 <g_260+0xb00>
    882e:	48 89 c7             	mov    %rax,%rdi
    8831:	e8 bd be ff ff       	callq  46f3 <transparent_crc>
    8836:	8b 45 f4             	mov    -0xc(%rbp),%eax
    8839:	48 98                	cltq   
    883b:	8b 55 f0             	mov    -0x10(%rbp),%edx
    883e:	48 63 ca             	movslq %edx,%rcx
    8841:	48 89 c2             	mov    %rax,%rdx
    8844:	48 c1 e2 03          	shl    $0x3,%rdx
    8848:	48 01 c2             	add    %rax,%rdx
    884b:	48 01 d2             	add    %rdx,%rdx
    884e:	48 01 c2             	add    %rax,%rdx
    8851:	48 89 c8             	mov    %rcx,%rax
    8854:	48 c1 e0 03          	shl    $0x3,%rax
    8858:	48 01 c8             	add    %rcx,%rax
    885b:	48 01 c0             	add    %rax,%rax
    885e:	48 01 c8             	add    %rcx,%rax
    8861:	48 c1 e0 03          	shl    $0x3,%rax
    8865:	48 01 c2             	add    %rax,%rdx
    8868:	48 8d 05 b1 68 00 00 	lea    0x68b1(%rip),%rax        # f120 <g_93>
    886f:	48 01 d0             	add    %rdx,%rax
    8872:	48 8b 40 0b          	mov    0xb(%rax),%rax
    8876:	48 89 c1             	mov    %rax,%rcx
    8879:	8b 45 fc             	mov    -0x4(%rbp),%eax
    887c:	89 c2                	mov    %eax,%edx
    887e:	48 8d 35 e9 32 00 00 	lea    0x32e9(%rip),%rsi        # bb6e <g_260+0xb0e>
    8885:	48 89 cf             	mov    %rcx,%rdi
    8888:	e8 66 be ff ff       	callq  46f3 <transparent_crc>
    888d:	83 7d fc 00          	cmpl   $0x0,-0x4(%rbp)
    8891:	74 19                	je     88ac <main+0x479>
    8893:	8b 55 f4             	mov    -0xc(%rbp),%edx
    8896:	8b 45 f0             	mov    -0x10(%rbp),%eax
    8899:	89 c6                	mov    %eax,%esi
    889b:	48 8d 3d da 32 00 00 	lea    0x32da(%rip),%rdi        # bb7c <g_260+0xb1c>
    88a2:	b8 00 00 00 00       	mov    $0x0,%eax
    88a7:	e8 d4 a7 ff ff       	callq  3080 <printf@plt>
    88ac:	83 45 f4 01          	addl   $0x1,-0xc(%rbp)
    88b0:	83 7d f4 07          	cmpl   $0x7,-0xc(%rbp)
    88b4:	0f 8e 2a fe ff ff    	jle    86e4 <main+0x2b1>
    88ba:	83 45 f0 01          	addl   $0x1,-0x10(%rbp)
    88be:	83 7d f0 03          	cmpl   $0x3,-0x10(%rbp)
    88c2:	0f 8e 10 fe ff ff    	jle    86d8 <main+0x2a5>
    88c8:	48 8b 05 b1 6a 00 00 	mov    0x6ab1(%rip),%rax        # f380 <g_95>
    88cf:	25 ff ff ff 3f       	and    $0x3fffffff,%eax
    88d4:	89 c1                	mov    %eax,%ecx
    88d6:	8b 45 fc             	mov    -0x4(%rbp),%eax
    88d9:	89 c2                	mov    %eax,%edx
    88db:	48 8d 35 ac 32 00 00 	lea    0x32ac(%rip),%rsi        # bb8e <g_260+0xb2e>
    88e2:	48 89 cf             	mov    %rcx,%rdi
    88e5:	e8 09 be ff ff       	callq  46f3 <transparent_crc>
    88ea:	48 8b 05 8f 6a 00 00 	mov    0x6a8f(%rip),%rax        # f380 <g_95>
    88f1:	48 c1 e8 20          	shr    $0x20,%rax
    88f5:	25 ff ff 0f 00       	and    $0xfffff,%eax
    88fa:	89 c1                	mov    %eax,%ecx
    88fc:	8b 45 fc             	mov    -0x4(%rbp),%eax
    88ff:	89 c2                	mov    %eax,%edx
    8901:	48 8d 35 8e 32 00 00 	lea    0x328e(%rip),%rsi        # bb96 <g_260+0xb36>
    8908:	48 89 cf             	mov    %rcx,%rdi
    890b:	e8 e3 bd ff ff       	callq  46f3 <transparent_crc>
    8910:	48 8b 05 69 6a 00 00 	mov    0x6a69(%rip),%rax        # f380 <g_95>
    8917:	48 c1 e0 05          	shl    $0x5,%rax
    891b:	48 c1 f8 39          	sar    $0x39,%rax
    891f:	48 0f be c0          	movsbq %al,%rax
    8923:	8b 55 fc             	mov    -0x4(%rbp),%edx
    8926:	48 8d 35 71 32 00 00 	lea    0x3271(%rip),%rsi        # bb9e <g_260+0xb3e>
    892d:	48 89 c7             	mov    %rax,%rdi
    8930:	e8 be bd ff ff       	callq  46f3 <transparent_crc>
    8935:	48 8b 05 44 6a 00 00 	mov    0x6a44(%rip),%rax        # f380 <g_95>
    893c:	48 c1 f8 3b          	sar    $0x3b,%rax
    8940:	48 0f be c0          	movsbq %al,%rax
    8944:	8b 55 fc             	mov    -0x4(%rbp),%edx
    8947:	48 8d 35 58 32 00 00 	lea    0x3258(%rip),%rsi        # bba6 <g_260+0xb46>
    894e:	48 89 c7             	mov    %rax,%rdi
    8951:	e8 9d bd ff ff       	callq  46f3 <transparent_crc>
    8956:	48 8b 05 2b 6a 00 00 	mov    0x6a2b(%rip),%rax        # f388 <g_121>
    895d:	c1 e0 0c             	shl    $0xc,%eax
    8960:	c1 f8 0c             	sar    $0xc,%eax
    8963:	48 98                	cltq   
    8965:	8b 55 fc             	mov    -0x4(%rbp),%edx
    8968:	48 8d 35 3f 32 00 00 	lea    0x323f(%rip),%rsi        # bbae <g_260+0xb4e>
    896f:	48 89 c7             	mov    %rax,%rdi
    8972:	e8 7c bd ff ff       	callq  46f3 <transparent_crc>
    8977:	48 8b 05 0a 6a 00 00 	mov    0x6a0a(%rip),%rax        # f388 <g_121>
    897e:	48 c1 e0 05          	shl    $0x5,%rax
    8982:	48 c1 f8 25          	sar    $0x25,%rax
    8986:	48 98                	cltq   
    8988:	8b 55 fc             	mov    -0x4(%rbp),%edx
    898b:	48 8d 35 25 32 00 00 	lea    0x3225(%rip),%rsi        # bbb7 <g_260+0xb57>
    8992:	48 89 c7             	mov    %rax,%rdi
    8995:	e8 59 bd ff ff       	callq  46f3 <transparent_crc>
    899a:	48 8b 05 ef 69 00 00 	mov    0x69ef(%rip),%rax        # f390 <g_121+0x8>
    89a1:	c1 e0 0e             	shl    $0xe,%eax
    89a4:	c1 f8 0e             	sar    $0xe,%eax
    89a7:	48 98                	cltq   
    89a9:	8b 55 fc             	mov    -0x4(%rbp),%edx
    89ac:	48 8d 35 0d 32 00 00 	lea    0x320d(%rip),%rsi        # bbc0 <g_260+0xb60>
    89b3:	48 89 c7             	mov    %rax,%rdi
    89b6:	e8 38 bd ff ff       	callq  46f3 <transparent_crc>
    89bb:	0f b6 05 d2 69 00 00 	movzbl 0x69d2(%rip),%eax        # f394 <g_123>
    89c2:	0f b6 c0             	movzbl %al,%eax
    89c5:	8b 55 fc             	mov    -0x4(%rbp),%edx
    89c8:	48 8d 35 fa 31 00 00 	lea    0x31fa(%rip),%rsi        # bbc9 <g_260+0xb69>
    89cf:	48 89 c7             	mov    %rax,%rdi
    89d2:	e8 1c bd ff ff       	callq  46f3 <transparent_crc>
    89d7:	8b 05 bb 69 00 00    	mov    0x69bb(%rip),%eax        # f398 <g_166>
    89dd:	89 c1                	mov    %eax,%ecx
    89df:	8b 45 fc             	mov    -0x4(%rbp),%eax
    89e2:	89 c2                	mov    %eax,%edx
    89e4:	48 8d 35 e4 31 00 00 	lea    0x31e4(%rip),%rsi        # bbcf <g_260+0xb6f>
    89eb:	48 89 cf             	mov    %rcx,%rdi
    89ee:	e8 00 bd ff ff       	callq  46f3 <transparent_crc>
    89f3:	0f b7 05 9e 69 00 00 	movzwl 0x699e(%rip),%eax        # f398 <g_166>
    89fa:	48 0f bf c0          	movswq %ax,%rax
    89fe:	8b 55 fc             	mov    -0x4(%rbp),%edx
    8a01:	48 8d 35 d0 31 00 00 	lea    0x31d0(%rip),%rsi        # bbd8 <g_260+0xb78>
    8a08:	48 89 c7             	mov    %rax,%rdi
    8a0b:	e8 e3 bc ff ff       	callq  46f3 <transparent_crc>
    8a10:	0f b6 05 89 69 00 00 	movzbl 0x6989(%rip),%eax        # f3a0 <g_189>
    8a17:	83 e0 03             	and    $0x3,%eax
    8a1a:	0f b6 c0             	movzbl %al,%eax
    8a1d:	8b 55 fc             	mov    -0x4(%rbp),%edx
    8a20:	48 8d 35 ba 31 00 00 	lea    0x31ba(%rip),%rsi        # bbe1 <g_260+0xb81>
    8a27:	48 89 c7             	mov    %rax,%rdi
    8a2a:	e8 c4 bc ff ff       	callq  46f3 <transparent_crc>
    8a2f:	0f b7 05 6b 69 00 00 	movzwl 0x696b(%rip),%eax        # f3a1 <g_189+0x1>
    8a36:	0f b7 c0             	movzwl %ax,%eax
    8a39:	8b 55 fc             	mov    -0x4(%rbp),%edx
    8a3c:	48 8d 35 a7 31 00 00 	lea    0x31a7(%rip),%rsi        # bbea <g_260+0xb8a>
    8a43:	48 89 c7             	mov    %rax,%rdi
    8a46:	e8 a8 bc ff ff       	callq  46f3 <transparent_crc>
    8a4b:	8b 05 52 69 00 00    	mov    0x6952(%rip),%eax        # f3a3 <g_189+0x3>
    8a51:	48 98                	cltq   
    8a53:	8b 55 fc             	mov    -0x4(%rbp),%edx
    8a56:	48 8d 35 96 31 00 00 	lea    0x3196(%rip),%rsi        # bbf3 <g_260+0xb93>
    8a5d:	48 89 c7             	mov    %rax,%rdi
    8a60:	e8 8e bc ff ff       	callq  46f3 <transparent_crc>
    8a65:	8b 05 3c 69 00 00    	mov    0x693c(%rip),%eax        # f3a7 <g_189+0x7>
    8a6b:	48 98                	cltq   
    8a6d:	8b 55 fc             	mov    -0x4(%rbp),%edx
    8a70:	48 8d 35 85 31 00 00 	lea    0x3185(%rip),%rsi        # bbfc <g_260+0xb9c>
    8a77:	48 89 c7             	mov    %rax,%rdi
    8a7a:	e8 74 bc ff ff       	callq  46f3 <transparent_crc>
    8a7f:	48 8b 05 25 69 00 00 	mov    0x6925(%rip),%rax        # f3ab <g_189+0xb>
    8a86:	48 89 c1             	mov    %rax,%rcx
    8a89:	8b 45 fc             	mov    -0x4(%rbp),%eax
    8a8c:	89 c2                	mov    %eax,%edx
    8a8e:	48 8d 35 70 31 00 00 	lea    0x3170(%rip),%rsi        # bc05 <g_260+0xba5>
    8a95:	48 89 cf             	mov    %rcx,%rdi
    8a98:	e8 56 bc ff ff       	callq  46f3 <transparent_crc>
    8a9d:	48 8b 05 14 69 00 00 	mov    0x6914(%rip),%rax        # f3b8 <g_191>
    8aa4:	8b 55 fc             	mov    -0x4(%rbp),%edx
    8aa7:	48 8d 35 60 31 00 00 	lea    0x3160(%rip),%rsi        # bc0e <g_260+0xbae>
    8aae:	48 89 c7             	mov    %rax,%rdi
    8ab1:	e8 3d bc ff ff       	callq  46f3 <transparent_crc>
    8ab6:	0f b7 05 03 69 00 00 	movzwl 0x6903(%rip),%eax        # f3c0 <g_192>
    8abd:	0f b7 c0             	movzwl %ax,%eax
    8ac0:	8b 55 fc             	mov    -0x4(%rbp),%edx
    8ac3:	48 8d 35 4a 31 00 00 	lea    0x314a(%rip),%rsi        # bc14 <g_260+0xbb4>
    8aca:	48 89 c7             	mov    %rax,%rdi
    8acd:	e8 21 bc ff ff       	callq  46f3 <transparent_crc>
    8ad2:	c7 45 f0 00 00 00 00 	movl   $0x0,-0x10(%rbp)
    8ad9:	eb 76                	jmp    8b51 <main+0x71e>
    8adb:	c7 45 f4 00 00 00 00 	movl   $0x0,-0xc(%rbp)
    8ae2:	eb 63                	jmp    8b47 <main+0x714>
    8ae4:	8b 45 f4             	mov    -0xc(%rbp),%eax
    8ae7:	48 63 c8             	movslq %eax,%rcx
    8aea:	8b 45 f0             	mov    -0x10(%rbp),%eax
    8aed:	48 63 d0             	movslq %eax,%rdx
    8af0:	48 89 d0             	mov    %rdx,%rax
    8af3:	48 01 c0             	add    %rax,%rax
    8af6:	48 01 d0             	add    %rdx,%rax
    8af9:	48 01 c0             	add    %rax,%rax
    8afc:	48 01 c8             	add    %rcx,%rax
    8aff:	48 8d 14 00          	lea    (%rax,%rax,1),%rdx
    8b03:	48 8d 05 d6 68 00 00 	lea    0x68d6(%rip),%rax        # f3e0 <g_201>
    8b0a:	0f b7 04 02          	movzwl (%rdx,%rax,1),%eax
    8b0e:	48 0f bf c0          	movswq %ax,%rax
    8b12:	8b 55 fc             	mov    -0x4(%rbp),%edx
    8b15:	48 8d 35 fe 30 00 00 	lea    0x30fe(%rip),%rsi        # bc1a <g_260+0xbba>
    8b1c:	48 89 c7             	mov    %rax,%rdi
    8b1f:	e8 cf bb ff ff       	callq  46f3 <transparent_crc>
    8b24:	83 7d fc 00          	cmpl   $0x0,-0x4(%rbp)
    8b28:	74 19                	je     8b43 <main+0x710>
    8b2a:	8b 55 f4             	mov    -0xc(%rbp),%edx
    8b2d:	8b 45 f0             	mov    -0x10(%rbp),%eax
    8b30:	89 c6                	mov    %eax,%esi
    8b32:	48 8d 3d 43 30 00 00 	lea    0x3043(%rip),%rdi        # bb7c <g_260+0xb1c>
    8b39:	b8 00 00 00 00       	mov    $0x0,%eax
    8b3e:	e8 3d a5 ff ff       	callq  3080 <printf@plt>
    8b43:	83 45 f4 01          	addl   $0x1,-0xc(%rbp)
    8b47:	83 7d f4 05          	cmpl   $0x5,-0xc(%rbp)
    8b4b:	7e 97                	jle    8ae4 <main+0x6b1>
    8b4d:	83 45 f0 01          	addl   $0x1,-0x10(%rbp)
    8b51:	83 7d f0 03          	cmpl   $0x3,-0x10(%rbp)
    8b55:	7e 84                	jle    8adb <main+0x6a8>
    8b57:	48 8b 05 b2 68 00 00 	mov    0x68b2(%rip),%rax        # f410 <g_202>
    8b5e:	8b 55 fc             	mov    -0x4(%rbp),%edx
    8b61:	48 8d 35 be 30 00 00 	lea    0x30be(%rip),%rsi        # bc26 <g_260+0xbc6>
    8b68:	48 89 c7             	mov    %rax,%rdi
    8b6b:	e8 83 bb ff ff       	callq  46f3 <transparent_crc>
    8b70:	c7 45 f0 00 00 00 00 	movl   $0x0,-0x10(%rbp)
    8b77:	eb 4b                	jmp    8bc4 <main+0x791>
    8b79:	8b 45 f0             	mov    -0x10(%rbp),%eax
    8b7c:	48 98                	cltq   
    8b7e:	48 8d 14 85 00 00 00 	lea    0x0(,%rax,4),%rdx
    8b85:	00 
    8b86:	48 8d 05 d3 24 00 00 	lea    0x24d3(%rip),%rax        # b060 <g_260>
    8b8d:	8b 04 02             	mov    (%rdx,%rax,1),%eax
    8b90:	48 98                	cltq   
    8b92:	8b 55 fc             	mov    -0x4(%rbp),%edx
    8b95:	48 8d 35 90 30 00 00 	lea    0x3090(%rip),%rsi        # bc2c <g_260+0xbcc>
    8b9c:	48 89 c7             	mov    %rax,%rdi
    8b9f:	e8 4f bb ff ff       	callq  46f3 <transparent_crc>
    8ba4:	83 7d fc 00          	cmpl   $0x0,-0x4(%rbp)
    8ba8:	74 16                	je     8bc0 <main+0x78d>
    8baa:	8b 45 f0             	mov    -0x10(%rbp),%eax
    8bad:	89 c6                	mov    %eax,%esi
    8baf:	48 8d 3d 3e 2f 00 00 	lea    0x2f3e(%rip),%rdi        # baf4 <g_260+0xa94>
    8bb6:	b8 00 00 00 00       	mov    $0x0,%eax
    8bbb:	e8 c0 a4 ff ff       	callq  3080 <printf@plt>
    8bc0:	83 45 f0 01          	addl   $0x1,-0x10(%rbp)
    8bc4:	83 7d f0 06          	cmpl   $0x6,-0x10(%rbp)
    8bc8:	7e af                	jle    8b79 <main+0x746>
    8bca:	48 8b 05 47 68 00 00 	mov    0x6847(%rip),%rax        # f418 <g_296>
    8bd1:	c1 e0 0c             	shl    $0xc,%eax
    8bd4:	c1 f8 0c             	sar    $0xc,%eax
    8bd7:	48 98                	cltq   
    8bd9:	8b 55 fc             	mov    -0x4(%rbp),%edx
    8bdc:	48 8d 35 52 30 00 00 	lea    0x3052(%rip),%rsi        # bc35 <g_260+0xbd5>
    8be3:	48 89 c7             	mov    %rax,%rdi
    8be6:	e8 08 bb ff ff       	callq  46f3 <transparent_crc>
    8beb:	8b 05 2b 68 00 00    	mov    0x682b(%rip),%eax        # f41c <g_296+0x4>
    8bf1:	c1 e0 05             	shl    $0x5,%eax
    8bf4:	c1 f8 05             	sar    $0x5,%eax
    8bf7:	48 98                	cltq   
    8bf9:	8b 55 fc             	mov    -0x4(%rbp),%edx
    8bfc:	48 8d 35 3b 30 00 00 	lea    0x303b(%rip),%rsi        # bc3e <g_260+0xbde>
    8c03:	48 89 c7             	mov    %rax,%rdi
    8c06:	e8 e8 ba ff ff       	callq  46f3 <transparent_crc>
    8c0b:	48 8b 05 0e 68 00 00 	mov    0x680e(%rip),%rax        # f420 <g_296+0x8>
    8c12:	c1 e0 0e             	shl    $0xe,%eax
    8c15:	c1 f8 0e             	sar    $0xe,%eax
    8c18:	48 98                	cltq   
    8c1a:	8b 55 fc             	mov    -0x4(%rbp),%edx
    8c1d:	48 8d 35 23 30 00 00 	lea    0x3023(%rip),%rsi        # bc47 <g_260+0xbe7>
    8c24:	48 89 c7             	mov    %rax,%rdi
    8c27:	e8 c7 ba ff ff       	callq  46f3 <transparent_crc>
    8c2c:	48 8b 05 f5 67 00 00 	mov    0x67f5(%rip),%rax        # f428 <g_311>
    8c33:	c1 e0 0c             	shl    $0xc,%eax
    8c36:	c1 f8 0c             	sar    $0xc,%eax
    8c39:	48 98                	cltq   
    8c3b:	8b 55 fc             	mov    -0x4(%rbp),%edx
    8c3e:	48 8d 35 0b 30 00 00 	lea    0x300b(%rip),%rsi        # bc50 <g_260+0xbf0>
    8c45:	48 89 c7             	mov    %rax,%rdi
    8c48:	e8 a6 ba ff ff       	callq  46f3 <transparent_crc>
    8c4d:	8b 05 d9 67 00 00    	mov    0x67d9(%rip),%eax        # f42c <g_311+0x4>
    8c53:	c1 e0 05             	shl    $0x5,%eax
    8c56:	c1 f8 05             	sar    $0x5,%eax
    8c59:	48 98                	cltq   
    8c5b:	8b 55 fc             	mov    -0x4(%rbp),%edx
    8c5e:	48 8d 35 f4 2f 00 00 	lea    0x2ff4(%rip),%rsi        # bc59 <g_260+0xbf9>
    8c65:	48 89 c7             	mov    %rax,%rdi
    8c68:	e8 86 ba ff ff       	callq  46f3 <transparent_crc>
    8c6d:	48 8b 05 bc 67 00 00 	mov    0x67bc(%rip),%rax        # f430 <g_311+0x8>
    8c74:	c1 e0 0e             	shl    $0xe,%eax
    8c77:	c1 f8 0e             	sar    $0xe,%eax
    8c7a:	48 98                	cltq   
    8c7c:	8b 55 fc             	mov    -0x4(%rbp),%edx
    8c7f:	48 8d 35 dc 2f 00 00 	lea    0x2fdc(%rip),%rsi        # bc62 <g_260+0xc02>
    8c86:	48 89 c7             	mov    %rax,%rdi
    8c89:	e8 65 ba ff ff       	callq  46f3 <transparent_crc>
    8c8e:	48 8b 05 a3 67 00 00 	mov    0x67a3(%rip),%rax        # f438 <g_312>
    8c95:	c1 e0 0c             	shl    $0xc,%eax
    8c98:	c1 f8 0c             	sar    $0xc,%eax
    8c9b:	48 98                	cltq   
    8c9d:	8b 55 fc             	mov    -0x4(%rbp),%edx
    8ca0:	48 8d 35 c4 2f 00 00 	lea    0x2fc4(%rip),%rsi        # bc6b <g_260+0xc0b>
    8ca7:	48 89 c7             	mov    %rax,%rdi
    8caa:	e8 44 ba ff ff       	callq  46f3 <transparent_crc>
    8caf:	8b 05 87 67 00 00    	mov    0x6787(%rip),%eax        # f43c <g_312+0x4>
    8cb5:	c1 e0 05             	shl    $0x5,%eax
    8cb8:	c1 f8 05             	sar    $0x5,%eax
    8cbb:	48 98                	cltq   
    8cbd:	8b 55 fc             	mov    -0x4(%rbp),%edx
    8cc0:	48 8d 35 ad 2f 00 00 	lea    0x2fad(%rip),%rsi        # bc74 <g_260+0xc14>
    8cc7:	48 89 c7             	mov    %rax,%rdi
    8cca:	e8 24 ba ff ff       	callq  46f3 <transparent_crc>
    8ccf:	48 8b 05 6a 67 00 00 	mov    0x676a(%rip),%rax        # f440 <g_312+0x8>
    8cd6:	c1 e0 0e             	shl    $0xe,%eax
    8cd9:	c1 f8 0e             	sar    $0xe,%eax
    8cdc:	48 98                	cltq   
    8cde:	8b 55 fc             	mov    -0x4(%rbp),%edx
    8ce1:	48 8d 35 95 2f 00 00 	lea    0x2f95(%rip),%rsi        # bc7d <g_260+0xc1d>
    8ce8:	48 89 c7             	mov    %rax,%rdi
    8ceb:	e8 03 ba ff ff       	callq  46f3 <transparent_crc>
    8cf0:	48 8b 05 51 67 00 00 	mov    0x6751(%rip),%rax        # f448 <g_313>
    8cf7:	c1 e0 0c             	shl    $0xc,%eax
    8cfa:	c1 f8 0c             	sar    $0xc,%eax
    8cfd:	48 98                	cltq   
    8cff:	8b 55 fc             	mov    -0x4(%rbp),%edx
    8d02:	48 8d 35 7d 2f 00 00 	lea    0x2f7d(%rip),%rsi        # bc86 <g_260+0xc26>
    8d09:	48 89 c7             	mov    %rax,%rdi
    8d0c:	e8 e2 b9 ff ff       	callq  46f3 <transparent_crc>
    8d11:	8b 05 35 67 00 00    	mov    0x6735(%rip),%eax        # f44c <g_313+0x4>
    8d17:	c1 e0 05             	shl    $0x5,%eax
    8d1a:	c1 f8 05             	sar    $0x5,%eax
    8d1d:	48 98                	cltq   
    8d1f:	8b 55 fc             	mov    -0x4(%rbp),%edx
    8d22:	48 8d 35 66 2f 00 00 	lea    0x2f66(%rip),%rsi        # bc8f <g_260+0xc2f>
    8d29:	48 89 c7             	mov    %rax,%rdi
    8d2c:	e8 c2 b9 ff ff       	callq  46f3 <transparent_crc>
    8d31:	48 8b 05 18 67 00 00 	mov    0x6718(%rip),%rax        # f450 <g_313+0x8>
    8d38:	c1 e0 0e             	shl    $0xe,%eax
    8d3b:	c1 f8 0e             	sar    $0xe,%eax
    8d3e:	48 98                	cltq   
    8d40:	8b 55 fc             	mov    -0x4(%rbp),%edx
    8d43:	48 8d 35 4e 2f 00 00 	lea    0x2f4e(%rip),%rsi        # bc98 <g_260+0xc38>
    8d4a:	48 89 c7             	mov    %rax,%rdi
    8d4d:	e8 a1 b9 ff ff       	callq  46f3 <transparent_crc>
    8d52:	c7 45 f0 00 00 00 00 	movl   $0x0,-0x10(%rbp)
    8d59:	e9 2f 01 00 00       	jmpq   8e8d <main+0xa5a>
    8d5e:	c7 45 f4 00 00 00 00 	movl   $0x0,-0xc(%rbp)
    8d65:	e9 15 01 00 00       	jmpq   8e7f <main+0xa4c>
    8d6a:	8b 45 f4             	mov    -0xc(%rbp),%eax
    8d6d:	48 63 d0             	movslq %eax,%rdx
    8d70:	8b 45 f0             	mov    -0x10(%rbp),%eax
    8d73:	48 63 c8             	movslq %eax,%rcx
    8d76:	48 89 d0             	mov    %rdx,%rax
    8d79:	48 01 c0             	add    %rax,%rax
    8d7c:	48 01 d0             	add    %rdx,%rax
    8d7f:	48 c1 e0 02          	shl    $0x2,%rax
    8d83:	48 89 ca             	mov    %rcx,%rdx
    8d86:	48 c1 e2 04          	shl    $0x4,%rdx
    8d8a:	48 29 ca             	sub    %rcx,%rdx
    8d8d:	48 c1 e2 03          	shl    $0x3,%rdx
    8d91:	48 01 c2             	add    %rax,%rdx
    8d94:	48 8d 05 c5 66 00 00 	lea    0x66c5(%rip),%rax        # f460 <g_314>
    8d9b:	48 01 d0             	add    %rdx,%rax
    8d9e:	8b 00                	mov    (%rax),%eax
    8da0:	c1 e0 0c             	shl    $0xc,%eax
    8da3:	c1 f8 0c             	sar    $0xc,%eax
    8da6:	48 98                	cltq   
    8da8:	8b 55 fc             	mov    -0x4(%rbp),%edx
    8dab:	48 8d 35 ef 2e 00 00 	lea    0x2eef(%rip),%rsi        # bca1 <g_260+0xc41>
    8db2:	48 89 c7             	mov    %rax,%rdi
    8db5:	e8 39 b9 ff ff       	callq  46f3 <transparent_crc>
    8dba:	8b 45 f4             	mov    -0xc(%rbp),%eax
    8dbd:	48 63 d0             	movslq %eax,%rdx
    8dc0:	8b 45 f0             	mov    -0x10(%rbp),%eax
    8dc3:	48 63 c8             	movslq %eax,%rcx
    8dc6:	48 89 d0             	mov    %rdx,%rax
    8dc9:	48 01 c0             	add    %rax,%rax
    8dcc:	48 01 d0             	add    %rdx,%rax
    8dcf:	48 c1 e0 02          	shl    $0x2,%rax
    8dd3:	48 89 ca             	mov    %rcx,%rdx
    8dd6:	48 c1 e2 04          	shl    $0x4,%rdx
    8dda:	48 29 ca             	sub    %rcx,%rdx
    8ddd:	48 c1 e2 03          	shl    $0x3,%rdx
    8de1:	48 01 c2             	add    %rax,%rdx
    8de4:	48 8d 05 75 66 00 00 	lea    0x6675(%rip),%rax        # f460 <g_314>
    8deb:	48 01 d0             	add    %rdx,%rax
    8dee:	8b 40 04             	mov    0x4(%rax),%eax
    8df1:	c1 e0 05             	shl    $0x5,%eax
    8df4:	c1 f8 05             	sar    $0x5,%eax
    8df7:	48 98                	cltq   
    8df9:	8b 55 fc             	mov    -0x4(%rbp),%edx
    8dfc:	48 8d 35 ad 2e 00 00 	lea    0x2ead(%rip),%rsi        # bcb0 <g_260+0xc50>
    8e03:	48 89 c7             	mov    %rax,%rdi
    8e06:	e8 e8 b8 ff ff       	callq  46f3 <transparent_crc>
    8e0b:	8b 45 f4             	mov    -0xc(%rbp),%eax
    8e0e:	48 63 d0             	movslq %eax,%rdx
    8e11:	8b 45 f0             	mov    -0x10(%rbp),%eax
    8e14:	48 63 c8             	movslq %eax,%rcx
    8e17:	48 89 d0             	mov    %rdx,%rax
    8e1a:	48 01 c0             	add    %rax,%rax
    8e1d:	48 01 d0             	add    %rdx,%rax
    8e20:	48 c1 e0 02          	shl    $0x2,%rax
    8e24:	48 89 ca             	mov    %rcx,%rdx
    8e27:	48 c1 e2 04          	shl    $0x4,%rdx
    8e2b:	48 29 ca             	sub    %rcx,%rdx
    8e2e:	48 c1 e2 03          	shl    $0x3,%rdx
    8e32:	48 01 c2             	add    %rax,%rdx
    8e35:	48 8d 05 24 66 00 00 	lea    0x6624(%rip),%rax        # f460 <g_314>
    8e3c:	48 01 d0             	add    %rdx,%rax
    8e3f:	8b 40 08             	mov    0x8(%rax),%eax
    8e42:	c1 e0 0e             	shl    $0xe,%eax
    8e45:	c1 f8 0e             	sar    $0xe,%eax
    8e48:	48 98                	cltq   
    8e4a:	8b 55 fc             	mov    -0x4(%rbp),%edx
    8e4d:	48 8d 35 6b 2e 00 00 	lea    0x2e6b(%rip),%rsi        # bcbf <g_260+0xc5f>
    8e54:	48 89 c7             	mov    %rax,%rdi
    8e57:	e8 97 b8 ff ff       	callq  46f3 <transparent_crc>
    8e5c:	83 7d fc 00          	cmpl   $0x0,-0x4(%rbp)
    8e60:	74 19                	je     8e7b <main+0xa48>
    8e62:	8b 55 f4             	mov    -0xc(%rbp),%edx
    8e65:	8b 45 f0             	mov    -0x10(%rbp),%eax
    8e68:	89 c6                	mov    %eax,%esi
    8e6a:	48 8d 3d 0b 2d 00 00 	lea    0x2d0b(%rip),%rdi        # bb7c <g_260+0xb1c>
    8e71:	b8 00 00 00 00       	mov    $0x0,%eax
    8e76:	e8 05 a2 ff ff       	callq  3080 <printf@plt>
    8e7b:	83 45 f4 01          	addl   $0x1,-0xc(%rbp)
    8e7f:	83 7d f4 09          	cmpl   $0x9,-0xc(%rbp)
    8e83:	0f 8e e1 fe ff ff    	jle    8d6a <main+0x937>
    8e89:	83 45 f0 01          	addl   $0x1,-0x10(%rbp)
    8e8d:	83 7d f0 01          	cmpl   $0x1,-0x10(%rbp)
    8e91:	0f 8e c7 fe ff ff    	jle    8d5e <main+0x92b>
    8e97:	c7 45 f0 00 00 00 00 	movl   $0x0,-0x10(%rbp)
    8e9e:	e9 e5 01 00 00       	jmpq   9088 <main+0xc55>
    8ea3:	c7 45 f4 00 00 00 00 	movl   $0x0,-0xc(%rbp)
    8eaa:	e9 cb 01 00 00       	jmpq   907a <main+0xc47>
    8eaf:	c7 45 f8 00 00 00 00 	movl   $0x0,-0x8(%rbp)
    8eb6:	e9 b1 01 00 00       	jmpq   906c <main+0xc39>
    8ebb:	8b 45 f8             	mov    -0x8(%rbp),%eax
    8ebe:	48 98                	cltq   
    8ec0:	8b 55 f4             	mov    -0xc(%rbp),%edx
    8ec3:	48 63 f2             	movslq %edx,%rsi
    8ec6:	8b 55 f0             	mov    -0x10(%rbp),%edx
    8ec9:	48 63 ca             	movslq %edx,%rcx
    8ecc:	48 89 c2             	mov    %rax,%rdx
    8ecf:	48 01 d2             	add    %rdx,%rdx
    8ed2:	48 01 c2             	add    %rax,%rdx
    8ed5:	48 8d 04 95 00 00 00 	lea    0x0(,%rdx,4),%rax
    8edc:	00 
    8edd:	48 89 c2             	mov    %rax,%rdx
    8ee0:	48 89 f0             	mov    %rsi,%rax
    8ee3:	48 01 c0             	add    %rax,%rax
    8ee6:	48 01 f0             	add    %rsi,%rax
    8ee9:	48 8d 34 c5 00 00 00 	lea    0x0(,%rax,8),%rsi
    8ef0:	00 
    8ef1:	48 01 f0             	add    %rsi,%rax
    8ef4:	48 c1 e0 02          	shl    $0x2,%rax
    8ef8:	48 8d 34 02          	lea    (%rdx,%rax,1),%rsi
    8efc:	48 89 c8             	mov    %rcx,%rax
    8eff:	48 01 c0             	add    %rax,%rax
    8f02:	48 01 c8             	add    %rcx,%rax
    8f05:	48 8d 14 c5 00 00 00 	lea    0x0(,%rax,8),%rdx
    8f0c:	00 
    8f0d:	48 01 d0             	add    %rdx,%rax
    8f10:	48 c1 e0 02          	shl    $0x2,%rax
    8f14:	48 8d 14 06          	lea    (%rsi,%rax,1),%rdx
    8f18:	48 8d 05 41 66 00 00 	lea    0x6641(%rip),%rax        # f560 <g_315>
    8f1f:	48 01 d0             	add    %rdx,%rax
    8f22:	8b 00                	mov    (%rax),%eax
    8f24:	c1 e0 0c             	shl    $0xc,%eax
    8f27:	c1 f8 0c             	sar    $0xc,%eax
    8f2a:	48 98                	cltq   
    8f2c:	8b 55 fc             	mov    -0x4(%rbp),%edx
    8f2f:	48 8d 35 98 2d 00 00 	lea    0x2d98(%rip),%rsi        # bcce <g_260+0xc6e>
    8f36:	48 89 c7             	mov    %rax,%rdi
    8f39:	e8 b5 b7 ff ff       	callq  46f3 <transparent_crc>
    8f3e:	8b 45 f8             	mov    -0x8(%rbp),%eax
    8f41:	48 98                	cltq   
    8f43:	8b 55 f4             	mov    -0xc(%rbp),%edx
    8f46:	48 63 f2             	movslq %edx,%rsi
    8f49:	8b 55 f0             	mov    -0x10(%rbp),%edx
    8f4c:	48 63 ca             	movslq %edx,%rcx
    8f4f:	48 89 c2             	mov    %rax,%rdx
    8f52:	48 01 d2             	add    %rdx,%rdx
    8f55:	48 01 c2             	add    %rax,%rdx
    8f58:	48 8d 04 95 00 00 00 	lea    0x0(,%rdx,4),%rax
    8f5f:	00 
    8f60:	48 89 c2             	mov    %rax,%rdx
    8f63:	48 89 f0             	mov    %rsi,%rax
    8f66:	48 01 c0             	add    %rax,%rax
    8f69:	48 01 f0             	add    %rsi,%rax
    8f6c:	48 8d 34 c5 00 00 00 	lea    0x0(,%rax,8),%rsi
    8f73:	00 
    8f74:	48 01 f0             	add    %rsi,%rax
    8f77:	48 c1 e0 02          	shl    $0x2,%rax
    8f7b:	48 8d 34 02          	lea    (%rdx,%rax,1),%rsi
    8f7f:	48 89 c8             	mov    %rcx,%rax
    8f82:	48 01 c0             	add    %rax,%rax
    8f85:	48 01 c8             	add    %rcx,%rax
    8f88:	48 8d 14 c5 00 00 00 	lea    0x0(,%rax,8),%rdx
    8f8f:	00 
    8f90:	48 01 d0             	add    %rdx,%rax
    8f93:	48 c1 e0 02          	shl    $0x2,%rax
    8f97:	48 8d 14 06          	lea    (%rsi,%rax,1),%rdx
    8f9b:	48 8d 05 be 65 00 00 	lea    0x65be(%rip),%rax        # f560 <g_315>
    8fa2:	48 01 d0             	add    %rdx,%rax
    8fa5:	8b 40 04             	mov    0x4(%rax),%eax
    8fa8:	c1 e0 05             	shl    $0x5,%eax
    8fab:	c1 f8 05             	sar    $0x5,%eax
    8fae:	48 98                	cltq   
    8fb0:	8b 55 fc             	mov    -0x4(%rbp),%edx
    8fb3:	48 8d 35 26 2d 00 00 	lea    0x2d26(%rip),%rsi        # bce0 <g_260+0xc80>
    8fba:	48 89 c7             	mov    %rax,%rdi
    8fbd:	e8 31 b7 ff ff       	callq  46f3 <transparent_crc>
    8fc2:	8b 45 f8             	mov    -0x8(%rbp),%eax
    8fc5:	48 98                	cltq   
    8fc7:	8b 55 f4             	mov    -0xc(%rbp),%edx
    8fca:	48 63 f2             	movslq %edx,%rsi
    8fcd:	8b 55 f0             	mov    -0x10(%rbp),%edx
    8fd0:	48 63 ca             	movslq %edx,%rcx
    8fd3:	48 89 c2             	mov    %rax,%rdx
    8fd6:	48 01 d2             	add    %rdx,%rdx
    8fd9:	48 01 c2             	add    %rax,%rdx
    8fdc:	48 8d 04 95 00 00 00 	lea    0x0(,%rdx,4),%rax
    8fe3:	00 
    8fe4:	48 89 c2             	mov    %rax,%rdx
    8fe7:	48 89 f0             	mov    %rsi,%rax
    8fea:	48 01 c0             	add    %rax,%rax
    8fed:	48 01 f0             	add    %rsi,%rax
    8ff0:	48 8d 34 c5 00 00 00 	lea    0x0(,%rax,8),%rsi
    8ff7:	00 
    8ff8:	48 01 f0             	add    %rsi,%rax
    8ffb:	48 c1 e0 02          	shl    $0x2,%rax
    8fff:	48 8d 34 02          	lea    (%rdx,%rax,1),%rsi
    9003:	48 89 c8             	mov    %rcx,%rax
    9006:	48 01 c0             	add    %rax,%rax
    9009:	48 01 c8             	add    %rcx,%rax
    900c:	48 8d 14 c5 00 00 00 	lea    0x0(,%rax,8),%rdx
    9013:	00 
    9014:	48 01 d0             	add    %rdx,%rax
    9017:	48 c1 e0 02          	shl    $0x2,%rax
    901b:	48 8d 14 06          	lea    (%rsi,%rax,1),%rdx
    901f:	48 8d 05 3a 65 00 00 	lea    0x653a(%rip),%rax        # f560 <g_315>
    9026:	48 01 d0             	add    %rdx,%rax
    9029:	8b 40 08             	mov    0x8(%rax),%eax
    902c:	c1 e0 0e             	shl    $0xe,%eax
    902f:	c1 f8 0e             	sar    $0xe,%eax
    9032:	48 98                	cltq   
    9034:	8b 55 fc             	mov    -0x4(%rbp),%edx
    9037:	48 8d 35 b4 2c 00 00 	lea    0x2cb4(%rip),%rsi        # bcf2 <g_260+0xc92>
    903e:	48 89 c7             	mov    %rax,%rdi
    9041:	e8 ad b6 ff ff       	callq  46f3 <transparent_crc>
    9046:	83 7d fc 00          	cmpl   $0x0,-0x4(%rbp)
    904a:	74 1c                	je     9068 <main+0xc35>
    904c:	8b 4d f8             	mov    -0x8(%rbp),%ecx
    904f:	8b 55 f4             	mov    -0xc(%rbp),%edx
    9052:	8b 45 f0             	mov    -0x10(%rbp),%eax
    9055:	89 c6                	mov    %eax,%esi
    9057:	48 8d 3d a6 2c 00 00 	lea    0x2ca6(%rip),%rdi        # bd04 <g_260+0xca4>
    905e:	b8 00 00 00 00       	mov    $0x0,%eax
    9063:	e8 18 a0 ff ff       	callq  3080 <printf@plt>
    9068:	83 45 f8 01          	addl   $0x1,-0x8(%rbp)
    906c:	83 7d f8 08          	cmpl   $0x8,-0x8(%rbp)
    9070:	0f 8e 45 fe ff ff    	jle    8ebb <main+0xa88>
    9076:	83 45 f4 01          	addl   $0x1,-0xc(%rbp)
    907a:	83 7d f4 00          	cmpl   $0x0,-0xc(%rbp)
    907e:	0f 8e 2b fe ff ff    	jle    8eaf <main+0xa7c>
    9084:	83 45 f0 01          	addl   $0x1,-0x10(%rbp)
    9088:	83 7d f0 03          	cmpl   $0x3,-0x10(%rbp)
    908c:	0f 8e 11 fe ff ff    	jle    8ea3 <main+0xa70>
    9092:	8b 05 78 66 00 00    	mov    0x6678(%rip),%eax        # f710 <g_337>
    9098:	89 c1                	mov    %eax,%ecx
    909a:	8b 45 fc             	mov    -0x4(%rbp),%eax
    909d:	89 c2                	mov    %eax,%edx
    909f:	48 8d 35 74 2c 00 00 	lea    0x2c74(%rip),%rsi        # bd1a <g_260+0xcba>
    90a6:	48 89 cf             	mov    %rcx,%rdi
    90a9:	e8 45 b6 ff ff       	callq  46f3 <transparent_crc>
    90ae:	48 8b 05 63 66 00 00 	mov    0x6663(%rip),%rax        # f718 <g_379>
    90b5:	48 89 c1             	mov    %rax,%rcx
    90b8:	8b 45 fc             	mov    -0x4(%rbp),%eax
    90bb:	89 c2                	mov    %eax,%edx
    90bd:	48 8d 35 5c 2c 00 00 	lea    0x2c5c(%rip),%rsi        # bd20 <g_260+0xcc0>
    90c4:	48 89 cf             	mov    %rcx,%rdi
    90c7:	e8 27 b6 ff ff       	callq  46f3 <transparent_crc>
    90cc:	0f b6 05 4d 66 00 00 	movzbl 0x664d(%rip),%eax        # f720 <g_384>
    90d3:	48 0f be c0          	movsbq %al,%rax
    90d7:	8b 55 fc             	mov    -0x4(%rbp),%edx
    90da:	48 8d 35 45 2c 00 00 	lea    0x2c45(%rip),%rsi        # bd26 <g_260+0xcc6>
    90e1:	48 89 c7             	mov    %rax,%rdi
    90e4:	e8 0a b6 ff ff       	callq  46f3 <transparent_crc>
    90e9:	0f b6 05 31 66 00 00 	movzbl 0x6631(%rip),%eax        # f721 <g_386>
    90f0:	0f b6 c0             	movzbl %al,%eax
    90f3:	8b 55 fc             	mov    -0x4(%rbp),%edx
    90f6:	48 8d 35 2f 2c 00 00 	lea    0x2c2f(%rip),%rsi        # bd2c <g_260+0xccc>
    90fd:	48 89 c7             	mov    %rax,%rdi
    9100:	e8 ee b5 ff ff       	callq  46f3 <transparent_crc>
    9105:	0f b6 05 24 66 00 00 	movzbl 0x6624(%rip),%eax        # f730 <g_397>
    910c:	83 e0 03             	and    $0x3,%eax
    910f:	0f b6 c0             	movzbl %al,%eax
    9112:	8b 55 fc             	mov    -0x4(%rbp),%edx
    9115:	48 8d 35 16 2c 00 00 	lea    0x2c16(%rip),%rsi        # bd32 <g_260+0xcd2>
    911c:	48 89 c7             	mov    %rax,%rdi
    911f:	e8 cf b5 ff ff       	callq  46f3 <transparent_crc>
    9124:	0f b7 05 06 66 00 00 	movzwl 0x6606(%rip),%eax        # f731 <g_397+0x1>
    912b:	0f b7 c0             	movzwl %ax,%eax
    912e:	8b 55 fc             	mov    -0x4(%rbp),%edx
    9131:	48 8d 35 03 2c 00 00 	lea    0x2c03(%rip),%rsi        # bd3b <g_260+0xcdb>
    9138:	48 89 c7             	mov    %rax,%rdi
    913b:	e8 b3 b5 ff ff       	callq  46f3 <transparent_crc>
    9140:	8b 05 ed 65 00 00    	mov    0x65ed(%rip),%eax        # f733 <g_397+0x3>
    9146:	48 98                	cltq   
    9148:	8b 55 fc             	mov    -0x4(%rbp),%edx
    914b:	48 8d 35 f2 2b 00 00 	lea    0x2bf2(%rip),%rsi        # bd44 <g_260+0xce4>
    9152:	48 89 c7             	mov    %rax,%rdi
    9155:	e8 99 b5 ff ff       	callq  46f3 <transparent_crc>
    915a:	8b 05 d7 65 00 00    	mov    0x65d7(%rip),%eax        # f737 <g_397+0x7>
    9160:	48 98                	cltq   
    9162:	8b 55 fc             	mov    -0x4(%rbp),%edx
    9165:	48 8d 35 e1 2b 00 00 	lea    0x2be1(%rip),%rsi        # bd4d <g_260+0xced>
    916c:	48 89 c7             	mov    %rax,%rdi
    916f:	e8 7f b5 ff ff       	callq  46f3 <transparent_crc>
    9174:	48 8b 05 c0 65 00 00 	mov    0x65c0(%rip),%rax        # f73b <g_397+0xb>
    917b:	48 89 c1             	mov    %rax,%rcx
    917e:	8b 45 fc             	mov    -0x4(%rbp),%eax
    9181:	89 c2                	mov    %eax,%edx
    9183:	48 8d 35 cc 2b 00 00 	lea    0x2bcc(%rip),%rsi        # bd56 <g_260+0xcf6>
    918a:	48 89 cf             	mov    %rcx,%rdi
    918d:	e8 61 b5 ff ff       	callq  46f3 <transparent_crc>
    9192:	0f b6 05 b7 65 00 00 	movzbl 0x65b7(%rip),%eax        # f750 <g_430>
    9199:	83 e0 03             	and    $0x3,%eax
    919c:	0f b6 c0             	movzbl %al,%eax
    919f:	8b 55 fc             	mov    -0x4(%rbp),%edx
    91a2:	48 8d 35 b6 2b 00 00 	lea    0x2bb6(%rip),%rsi        # bd5f <g_260+0xcff>
    91a9:	48 89 c7             	mov    %rax,%rdi
    91ac:	e8 42 b5 ff ff       	callq  46f3 <transparent_crc>
    91b1:	0f b7 05 99 65 00 00 	movzwl 0x6599(%rip),%eax        # f751 <g_430+0x1>
    91b8:	0f b7 c0             	movzwl %ax,%eax
    91bb:	8b 55 fc             	mov    -0x4(%rbp),%edx
    91be:	48 8d 35 a3 2b 00 00 	lea    0x2ba3(%rip),%rsi        # bd68 <g_260+0xd08>
    91c5:	48 89 c7             	mov    %rax,%rdi
    91c8:	e8 26 b5 ff ff       	callq  46f3 <transparent_crc>
    91cd:	8b 05 80 65 00 00    	mov    0x6580(%rip),%eax        # f753 <g_430+0x3>
    91d3:	48 98                	cltq   
    91d5:	8b 55 fc             	mov    -0x4(%rbp),%edx
    91d8:	48 8d 35 92 2b 00 00 	lea    0x2b92(%rip),%rsi        # bd71 <g_260+0xd11>
    91df:	48 89 c7             	mov    %rax,%rdi
    91e2:	e8 0c b5 ff ff       	callq  46f3 <transparent_crc>
    91e7:	8b 05 6a 65 00 00    	mov    0x656a(%rip),%eax        # f757 <g_430+0x7>
    91ed:	48 98                	cltq   
    91ef:	8b 55 fc             	mov    -0x4(%rbp),%edx
    91f2:	48 8d 35 81 2b 00 00 	lea    0x2b81(%rip),%rsi        # bd7a <g_260+0xd1a>
    91f9:	48 89 c7             	mov    %rax,%rdi
    91fc:	e8 f2 b4 ff ff       	callq  46f3 <transparent_crc>
    9201:	48 8b 05 53 65 00 00 	mov    0x6553(%rip),%rax        # f75b <g_430+0xb>
    9208:	48 89 c1             	mov    %rax,%rcx
    920b:	8b 45 fc             	mov    -0x4(%rbp),%eax
    920e:	89 c2                	mov    %eax,%edx
    9210:	48 8d 35 6c 2b 00 00 	lea    0x2b6c(%rip),%rsi        # bd83 <g_260+0xd23>
    9217:	48 89 cf             	mov    %rcx,%rdi
    921a:	e8 d4 b4 ff ff       	callq  46f3 <transparent_crc>
    921f:	48 8b 05 42 65 00 00 	mov    0x6542(%rip),%rax        # f768 <g_431>
    9226:	c1 e0 0c             	shl    $0xc,%eax
    9229:	c1 f8 0c             	sar    $0xc,%eax
    922c:	48 98                	cltq   
    922e:	8b 55 fc             	mov    -0x4(%rbp),%edx
    9231:	48 8d 35 54 2b 00 00 	lea    0x2b54(%rip),%rsi        # bd8c <g_260+0xd2c>
    9238:	48 89 c7             	mov    %rax,%rdi
    923b:	e8 b3 b4 ff ff       	callq  46f3 <transparent_crc>
    9240:	48 8b 05 21 65 00 00 	mov    0x6521(%rip),%rax        # f768 <g_431>
    9247:	48 c1 e0 05          	shl    $0x5,%rax
    924b:	48 c1 f8 25          	sar    $0x25,%rax
    924f:	48 98                	cltq   
    9251:	8b 55 fc             	mov    -0x4(%rbp),%edx
    9254:	48 8d 35 3a 2b 00 00 	lea    0x2b3a(%rip),%rsi        # bd95 <g_260+0xd35>
    925b:	48 89 c7             	mov    %rax,%rdi
    925e:	e8 90 b4 ff ff       	callq  46f3 <transparent_crc>
    9263:	48 8b 05 06 65 00 00 	mov    0x6506(%rip),%rax        # f770 <g_431+0x8>
    926a:	c1 e0 0e             	shl    $0xe,%eax
    926d:	c1 f8 0e             	sar    $0xe,%eax
    9270:	48 98                	cltq   
    9272:	8b 55 fc             	mov    -0x4(%rbp),%edx
    9275:	48 8d 35 22 2b 00 00 	lea    0x2b22(%rip),%rsi        # bd9e <g_260+0xd3e>
    927c:	48 89 c7             	mov    %rax,%rdi
    927f:	e8 6f b4 ff ff       	callq  46f3 <transparent_crc>
    9284:	0f b6 05 f5 64 00 00 	movzbl 0x64f5(%rip),%eax        # f780 <g_438>
    928b:	83 e0 03             	and    $0x3,%eax
    928e:	0f b6 c0             	movzbl %al,%eax
    9291:	8b 55 fc             	mov    -0x4(%rbp),%edx
    9294:	48 8d 35 0c 2b 00 00 	lea    0x2b0c(%rip),%rsi        # bda7 <g_260+0xd47>
    929b:	48 89 c7             	mov    %rax,%rdi
    929e:	e8 50 b4 ff ff       	callq  46f3 <transparent_crc>
    92a3:	0f b7 05 d7 64 00 00 	movzwl 0x64d7(%rip),%eax        # f781 <g_438+0x1>
    92aa:	0f b7 c0             	movzwl %ax,%eax
    92ad:	8b 55 fc             	mov    -0x4(%rbp),%edx
    92b0:	48 8d 35 f9 2a 00 00 	lea    0x2af9(%rip),%rsi        # bdb0 <g_260+0xd50>
    92b7:	48 89 c7             	mov    %rax,%rdi
    92ba:	e8 34 b4 ff ff       	callq  46f3 <transparent_crc>
    92bf:	8b 05 be 64 00 00    	mov    0x64be(%rip),%eax        # f783 <g_438+0x3>
    92c5:	48 98                	cltq   
    92c7:	8b 55 fc             	mov    -0x4(%rbp),%edx
    92ca:	48 8d 35 e8 2a 00 00 	lea    0x2ae8(%rip),%rsi        # bdb9 <g_260+0xd59>
    92d1:	48 89 c7             	mov    %rax,%rdi
    92d4:	e8 1a b4 ff ff       	callq  46f3 <transparent_crc>
    92d9:	8b 05 a8 64 00 00    	mov    0x64a8(%rip),%eax        # f787 <g_438+0x7>
    92df:	48 98                	cltq   
    92e1:	8b 55 fc             	mov    -0x4(%rbp),%edx
    92e4:	48 8d 35 d7 2a 00 00 	lea    0x2ad7(%rip),%rsi        # bdc2 <g_260+0xd62>
    92eb:	48 89 c7             	mov    %rax,%rdi
    92ee:	e8 00 b4 ff ff       	callq  46f3 <transparent_crc>
    92f3:	48 8b 05 91 64 00 00 	mov    0x6491(%rip),%rax        # f78b <g_438+0xb>
    92fa:	48 89 c1             	mov    %rax,%rcx
    92fd:	8b 45 fc             	mov    -0x4(%rbp),%eax
    9300:	89 c2                	mov    %eax,%edx
    9302:	48 8d 35 c2 2a 00 00 	lea    0x2ac2(%rip),%rsi        # bdcb <g_260+0xd6b>
    9309:	48 89 cf             	mov    %rcx,%rdi
    930c:	e8 e2 b3 ff ff       	callq  46f3 <transparent_crc>
    9311:	0f b6 05 88 64 00 00 	movzbl 0x6488(%rip),%eax        # f7a0 <g_439>
    9318:	83 e0 03             	and    $0x3,%eax
    931b:	0f b6 c0             	movzbl %al,%eax
    931e:	8b 55 fc             	mov    -0x4(%rbp),%edx
    9321:	48 8d 35 ac 2a 00 00 	lea    0x2aac(%rip),%rsi        # bdd4 <g_260+0xd74>
    9328:	48 89 c7             	mov    %rax,%rdi
    932b:	e8 c3 b3 ff ff       	callq  46f3 <transparent_crc>
    9330:	0f b7 05 6a 64 00 00 	movzwl 0x646a(%rip),%eax        # f7a1 <g_439+0x1>
    9337:	0f b7 c0             	movzwl %ax,%eax
    933a:	8b 55 fc             	mov    -0x4(%rbp),%edx
    933d:	48 8d 35 99 2a 00 00 	lea    0x2a99(%rip),%rsi        # bddd <g_260+0xd7d>
    9344:	48 89 c7             	mov    %rax,%rdi
    9347:	e8 a7 b3 ff ff       	callq  46f3 <transparent_crc>
    934c:	8b 05 51 64 00 00    	mov    0x6451(%rip),%eax        # f7a3 <g_439+0x3>
    9352:	48 98                	cltq   
    9354:	8b 55 fc             	mov    -0x4(%rbp),%edx
    9357:	48 8d 35 88 2a 00 00 	lea    0x2a88(%rip),%rsi        # bde6 <g_260+0xd86>
    935e:	48 89 c7             	mov    %rax,%rdi
    9361:	e8 8d b3 ff ff       	callq  46f3 <transparent_crc>
    9366:	8b 05 3b 64 00 00    	mov    0x643b(%rip),%eax        # f7a7 <g_439+0x7>
    936c:	48 98                	cltq   
    936e:	8b 55 fc             	mov    -0x4(%rbp),%edx
    9371:	48 8d 35 77 2a 00 00 	lea    0x2a77(%rip),%rsi        # bdef <g_260+0xd8f>
    9378:	48 89 c7             	mov    %rax,%rdi
    937b:	e8 73 b3 ff ff       	callq  46f3 <transparent_crc>
    9380:	48 8b 05 24 64 00 00 	mov    0x6424(%rip),%rax        # f7ab <g_439+0xb>
    9387:	48 89 c1             	mov    %rax,%rcx
    938a:	8b 45 fc             	mov    -0x4(%rbp),%eax
    938d:	89 c2                	mov    %eax,%edx
    938f:	48 8d 35 62 2a 00 00 	lea    0x2a62(%rip),%rsi        # bdf8 <g_260+0xd98>
    9396:	48 89 cf             	mov    %rcx,%rdi
    9399:	e8 55 b3 ff ff       	callq  46f3 <transparent_crc>
    939e:	48 8b 05 1b 64 00 00 	mov    0x641b(%rip),%rax        # f7c0 <g_452>
    93a5:	83 e0 03             	and    $0x3,%eax
    93a8:	0f b6 c0             	movzbl %al,%eax
    93ab:	8b 55 fc             	mov    -0x4(%rbp),%edx
    93ae:	48 8d 35 4c 2a 00 00 	lea    0x2a4c(%rip),%rsi        # be01 <g_260+0xda1>
    93b5:	48 89 c7             	mov    %rax,%rdi
    93b8:	e8 36 b3 ff ff       	callq  46f3 <transparent_crc>
    93bd:	0f b7 05 fd 63 00 00 	movzwl 0x63fd(%rip),%eax        # f7c1 <g_452+0x1>
    93c4:	0f b7 c0             	movzwl %ax,%eax
    93c7:	8b 55 fc             	mov    -0x4(%rbp),%edx
    93ca:	48 8d 35 39 2a 00 00 	lea    0x2a39(%rip),%rsi        # be0a <g_260+0xdaa>
    93d1:	48 89 c7             	mov    %rax,%rdi
    93d4:	e8 1a b3 ff ff       	callq  46f3 <transparent_crc>
    93d9:	8b 05 e4 63 00 00    	mov    0x63e4(%rip),%eax        # f7c3 <g_452+0x3>
    93df:	48 98                	cltq   
    93e1:	8b 55 fc             	mov    -0x4(%rbp),%edx
    93e4:	48 8d 35 28 2a 00 00 	lea    0x2a28(%rip),%rsi        # be13 <g_260+0xdb3>
    93eb:	48 89 c7             	mov    %rax,%rdi
    93ee:	e8 00 b3 ff ff       	callq  46f3 <transparent_crc>
    93f3:	8b 05 ce 63 00 00    	mov    0x63ce(%rip),%eax        # f7c7 <g_452+0x7>
    93f9:	48 98                	cltq   
    93fb:	8b 55 fc             	mov    -0x4(%rbp),%edx
    93fe:	48 8d 35 17 2a 00 00 	lea    0x2a17(%rip),%rsi        # be1c <g_260+0xdbc>
    9405:	48 89 c7             	mov    %rax,%rdi
    9408:	e8 e6 b2 ff ff       	callq  46f3 <transparent_crc>
    940d:	48 8b 05 b7 63 00 00 	mov    0x63b7(%rip),%rax        # f7cb <g_452+0xb>
    9414:	48 89 c1             	mov    %rax,%rcx
    9417:	8b 45 fc             	mov    -0x4(%rbp),%eax
    941a:	89 c2                	mov    %eax,%edx
    941c:	48 8d 35 02 2a 00 00 	lea    0x2a02(%rip),%rsi        # be25 <g_260+0xdc5>
    9423:	48 89 cf             	mov    %rcx,%rdi
    9426:	e8 c8 b2 ff ff       	callq  46f3 <transparent_crc>
    942b:	0f b6 05 ae 63 00 00 	movzbl 0x63ae(%rip),%eax        # f7e0 <g_455>
    9432:	83 e0 03             	and    $0x3,%eax
    9435:	0f b6 c0             	movzbl %al,%eax
    9438:	8b 55 fc             	mov    -0x4(%rbp),%edx
    943b:	48 8d 35 ec 29 00 00 	lea    0x29ec(%rip),%rsi        # be2e <g_260+0xdce>
    9442:	48 89 c7             	mov    %rax,%rdi
    9445:	e8 a9 b2 ff ff       	callq  46f3 <transparent_crc>
    944a:	0f b7 05 90 63 00 00 	movzwl 0x6390(%rip),%eax        # f7e1 <g_455+0x1>
    9451:	0f b7 c0             	movzwl %ax,%eax
    9454:	8b 55 fc             	mov    -0x4(%rbp),%edx
    9457:	48 8d 35 d9 29 00 00 	lea    0x29d9(%rip),%rsi        # be37 <g_260+0xdd7>
    945e:	48 89 c7             	mov    %rax,%rdi
    9461:	e8 8d b2 ff ff       	callq  46f3 <transparent_crc>
    9466:	8b 05 77 63 00 00    	mov    0x6377(%rip),%eax        # f7e3 <g_455+0x3>
    946c:	48 98                	cltq   
    946e:	8b 55 fc             	mov    -0x4(%rbp),%edx
    9471:	48 8d 35 c8 29 00 00 	lea    0x29c8(%rip),%rsi        # be40 <g_260+0xde0>
    9478:	48 89 c7             	mov    %rax,%rdi
    947b:	e8 73 b2 ff ff       	callq  46f3 <transparent_crc>
    9480:	8b 05 61 63 00 00    	mov    0x6361(%rip),%eax        # f7e7 <g_455+0x7>
    9486:	48 98                	cltq   
    9488:	8b 55 fc             	mov    -0x4(%rbp),%edx
    948b:	48 8d 35 b7 29 00 00 	lea    0x29b7(%rip),%rsi        # be49 <g_260+0xde9>
    9492:	48 89 c7             	mov    %rax,%rdi
    9495:	e8 59 b2 ff ff       	callq  46f3 <transparent_crc>
    949a:	48 8b 05 4a 63 00 00 	mov    0x634a(%rip),%rax        # f7eb <g_455+0xb>
    94a1:	48 89 c1             	mov    %rax,%rcx
    94a4:	8b 45 fc             	mov    -0x4(%rbp),%eax
    94a7:	89 c2                	mov    %eax,%edx
    94a9:	48 8d 35 a2 29 00 00 	lea    0x29a2(%rip),%rsi        # be52 <g_260+0xdf2>
    94b0:	48 89 cf             	mov    %rcx,%rdi
    94b3:	e8 3b b2 ff ff       	callq  46f3 <transparent_crc>
    94b8:	48 8b 05 39 63 00 00 	mov    0x6339(%rip),%rax        # f7f8 <g_458>
    94bf:	c1 e0 0c             	shl    $0xc,%eax
    94c2:	c1 f8 0c             	sar    $0xc,%eax
    94c5:	48 98                	cltq   
    94c7:	8b 55 fc             	mov    -0x4(%rbp),%edx
    94ca:	48 8d 35 8a 29 00 00 	lea    0x298a(%rip),%rsi        # be5b <g_260+0xdfb>
    94d1:	48 89 c7             	mov    %rax,%rdi
    94d4:	e8 1a b2 ff ff       	callq  46f3 <transparent_crc>
    94d9:	8b 05 1d 63 00 00    	mov    0x631d(%rip),%eax        # f7fc <g_458+0x4>
    94df:	c1 e0 05             	shl    $0x5,%eax
    94e2:	c1 f8 05             	sar    $0x5,%eax
    94e5:	48 98                	cltq   
    94e7:	8b 55 fc             	mov    -0x4(%rbp),%edx
    94ea:	48 8d 35 73 29 00 00 	lea    0x2973(%rip),%rsi        # be64 <g_260+0xe04>
    94f1:	48 89 c7             	mov    %rax,%rdi
    94f4:	e8 fa b1 ff ff       	callq  46f3 <transparent_crc>
    94f9:	48 8b 05 00 63 00 00 	mov    0x6300(%rip),%rax        # f800 <g_458+0x8>
    9500:	c1 e0 0e             	shl    $0xe,%eax
    9503:	c1 f8 0e             	sar    $0xe,%eax
    9506:	48 98                	cltq   
    9508:	8b 55 fc             	mov    -0x4(%rbp),%edx
    950b:	48 8d 35 5b 29 00 00 	lea    0x295b(%rip),%rsi        # be6d <g_260+0xe0d>
    9512:	48 89 c7             	mov    %rax,%rdi
    9515:	e8 d9 b1 ff ff       	callq  46f3 <transparent_crc>
    951a:	48 8b 05 ef 62 00 00 	mov    0x62ef(%rip),%rax        # f810 <g_461>
    9521:	83 e0 03             	and    $0x3,%eax
    9524:	0f b6 c0             	movzbl %al,%eax
    9527:	8b 55 fc             	mov    -0x4(%rbp),%edx
    952a:	48 8d 35 45 29 00 00 	lea    0x2945(%rip),%rsi        # be76 <g_260+0xe16>
    9531:	48 89 c7             	mov    %rax,%rdi
    9534:	e8 ba b1 ff ff       	callq  46f3 <transparent_crc>
    9539:	0f b7 05 d1 62 00 00 	movzwl 0x62d1(%rip),%eax        # f811 <g_461+0x1>
    9540:	0f b7 c0             	movzwl %ax,%eax
    9543:	8b 55 fc             	mov    -0x4(%rbp),%edx
    9546:	48 8d 35 32 29 00 00 	lea    0x2932(%rip),%rsi        # be7f <g_260+0xe1f>
    954d:	48 89 c7             	mov    %rax,%rdi
    9550:	e8 9e b1 ff ff       	callq  46f3 <transparent_crc>
    9555:	8b 05 b8 62 00 00    	mov    0x62b8(%rip),%eax        # f813 <g_461+0x3>
    955b:	48 98                	cltq   
    955d:	8b 55 fc             	mov    -0x4(%rbp),%edx
    9560:	48 8d 35 21 29 00 00 	lea    0x2921(%rip),%rsi        # be88 <g_260+0xe28>
    9567:	48 89 c7             	mov    %rax,%rdi
    956a:	e8 84 b1 ff ff       	callq  46f3 <transparent_crc>
    956f:	8b 05 a2 62 00 00    	mov    0x62a2(%rip),%eax        # f817 <g_461+0x7>
    9575:	48 98                	cltq   
    9577:	8b 55 fc             	mov    -0x4(%rbp),%edx
    957a:	48 8d 35 10 29 00 00 	lea    0x2910(%rip),%rsi        # be91 <g_260+0xe31>
    9581:	48 89 c7             	mov    %rax,%rdi
    9584:	e8 6a b1 ff ff       	callq  46f3 <transparent_crc>
    9589:	48 8b 05 8b 62 00 00 	mov    0x628b(%rip),%rax        # f81b <g_461+0xb>
    9590:	48 89 c1             	mov    %rax,%rcx
    9593:	8b 45 fc             	mov    -0x4(%rbp),%eax
    9596:	89 c2                	mov    %eax,%edx
    9598:	48 8d 35 fb 28 00 00 	lea    0x28fb(%rip),%rsi        # be9a <g_260+0xe3a>
    959f:	48 89 cf             	mov    %rcx,%rdi
    95a2:	e8 4c b1 ff ff       	callq  46f3 <transparent_crc>
    95a7:	0f b6 05 82 62 00 00 	movzbl 0x6282(%rip),%eax        # f830 <g_463>
    95ae:	83 e0 03             	and    $0x3,%eax
    95b1:	0f b6 c0             	movzbl %al,%eax
    95b4:	8b 55 fc             	mov    -0x4(%rbp),%edx
    95b7:	48 8d 35 e5 28 00 00 	lea    0x28e5(%rip),%rsi        # bea3 <g_260+0xe43>
    95be:	48 89 c7             	mov    %rax,%rdi
    95c1:	e8 2d b1 ff ff       	callq  46f3 <transparent_crc>
    95c6:	0f b7 05 64 62 00 00 	movzwl 0x6264(%rip),%eax        # f831 <g_463+0x1>
    95cd:	0f b7 c0             	movzwl %ax,%eax
    95d0:	8b 55 fc             	mov    -0x4(%rbp),%edx
    95d3:	48 8d 35 d2 28 00 00 	lea    0x28d2(%rip),%rsi        # beac <g_260+0xe4c>
    95da:	48 89 c7             	mov    %rax,%rdi
    95dd:	e8 11 b1 ff ff       	callq  46f3 <transparent_crc>
    95e2:	8b 05 4b 62 00 00    	mov    0x624b(%rip),%eax        # f833 <g_463+0x3>
    95e8:	48 98                	cltq   
    95ea:	8b 55 fc             	mov    -0x4(%rbp),%edx
    95ed:	48 8d 35 c1 28 00 00 	lea    0x28c1(%rip),%rsi        # beb5 <g_260+0xe55>
    95f4:	48 89 c7             	mov    %rax,%rdi
    95f7:	e8 f7 b0 ff ff       	callq  46f3 <transparent_crc>
    95fc:	8b 05 35 62 00 00    	mov    0x6235(%rip),%eax        # f837 <g_463+0x7>
    9602:	48 98                	cltq   
    9604:	8b 55 fc             	mov    -0x4(%rbp),%edx
    9607:	48 8d 35 b0 28 00 00 	lea    0x28b0(%rip),%rsi        # bebe <g_260+0xe5e>
    960e:	48 89 c7             	mov    %rax,%rdi
    9611:	e8 dd b0 ff ff       	callq  46f3 <transparent_crc>
    9616:	48 8b 05 1e 62 00 00 	mov    0x621e(%rip),%rax        # f83b <g_463+0xb>
    961d:	48 89 c1             	mov    %rax,%rcx
    9620:	8b 45 fc             	mov    -0x4(%rbp),%eax
    9623:	89 c2                	mov    %eax,%edx
    9625:	48 8d 35 9b 28 00 00 	lea    0x289b(%rip),%rsi        # bec7 <g_260+0xe67>
    962c:	48 89 cf             	mov    %rcx,%rdi
    962f:	e8 bf b0 ff ff       	callq  46f3 <transparent_crc>
    9634:	0f b6 05 15 62 00 00 	movzbl 0x6215(%rip),%eax        # f850 <g_464>
    963b:	83 e0 03             	and    $0x3,%eax
    963e:	0f b6 c0             	movzbl %al,%eax
    9641:	8b 55 fc             	mov    -0x4(%rbp),%edx
    9644:	48 8d 35 85 28 00 00 	lea    0x2885(%rip),%rsi        # bed0 <g_260+0xe70>
    964b:	48 89 c7             	mov    %rax,%rdi
    964e:	e8 a0 b0 ff ff       	callq  46f3 <transparent_crc>
    9653:	0f b7 05 f7 61 00 00 	movzwl 0x61f7(%rip),%eax        # f851 <g_464+0x1>
    965a:	0f b7 c0             	movzwl %ax,%eax
    965d:	8b 55 fc             	mov    -0x4(%rbp),%edx
    9660:	48 8d 35 72 28 00 00 	lea    0x2872(%rip),%rsi        # bed9 <g_260+0xe79>
    9667:	48 89 c7             	mov    %rax,%rdi
    966a:	e8 84 b0 ff ff       	callq  46f3 <transparent_crc>
    966f:	8b 05 de 61 00 00    	mov    0x61de(%rip),%eax        # f853 <g_464+0x3>
    9675:	48 98                	cltq   
    9677:	8b 55 fc             	mov    -0x4(%rbp),%edx
    967a:	48 8d 35 61 28 00 00 	lea    0x2861(%rip),%rsi        # bee2 <g_260+0xe82>
    9681:	48 89 c7             	mov    %rax,%rdi
    9684:	e8 6a b0 ff ff       	callq  46f3 <transparent_crc>
    9689:	8b 05 c8 61 00 00    	mov    0x61c8(%rip),%eax        # f857 <g_464+0x7>
    968f:	48 98                	cltq   
    9691:	8b 55 fc             	mov    -0x4(%rbp),%edx
    9694:	48 8d 35 50 28 00 00 	lea    0x2850(%rip),%rsi        # beeb <g_260+0xe8b>
    969b:	48 89 c7             	mov    %rax,%rdi
    969e:	e8 50 b0 ff ff       	callq  46f3 <transparent_crc>
    96a3:	48 8b 05 b1 61 00 00 	mov    0x61b1(%rip),%rax        # f85b <g_464+0xb>
    96aa:	48 89 c1             	mov    %rax,%rcx
    96ad:	8b 45 fc             	mov    -0x4(%rbp),%eax
    96b0:	89 c2                	mov    %eax,%edx
    96b2:	48 8d 35 3b 28 00 00 	lea    0x283b(%rip),%rsi        # bef4 <g_260+0xe94>
    96b9:	48 89 cf             	mov    %rcx,%rdi
    96bc:	e8 32 b0 ff ff       	callq  46f3 <transparent_crc>
    96c1:	0f b6 05 a8 61 00 00 	movzbl 0x61a8(%rip),%eax        # f870 <g_465>
    96c8:	83 e0 03             	and    $0x3,%eax
    96cb:	0f b6 c0             	movzbl %al,%eax
    96ce:	8b 55 fc             	mov    -0x4(%rbp),%edx
    96d1:	48 8d 35 25 28 00 00 	lea    0x2825(%rip),%rsi        # befd <g_260+0xe9d>
    96d8:	48 89 c7             	mov    %rax,%rdi
    96db:	e8 13 b0 ff ff       	callq  46f3 <transparent_crc>
    96e0:	0f b7 05 8a 61 00 00 	movzwl 0x618a(%rip),%eax        # f871 <g_465+0x1>
    96e7:	0f b7 c0             	movzwl %ax,%eax
    96ea:	8b 55 fc             	mov    -0x4(%rbp),%edx
    96ed:	48 8d 35 12 28 00 00 	lea    0x2812(%rip),%rsi        # bf06 <g_260+0xea6>
    96f4:	48 89 c7             	mov    %rax,%rdi
    96f7:	e8 f7 af ff ff       	callq  46f3 <transparent_crc>
    96fc:	8b 05 71 61 00 00    	mov    0x6171(%rip),%eax        # f873 <g_465+0x3>
    9702:	48 98                	cltq   
    9704:	8b 55 fc             	mov    -0x4(%rbp),%edx
    9707:	48 8d 35 01 28 00 00 	lea    0x2801(%rip),%rsi        # bf0f <g_260+0xeaf>
    970e:	48 89 c7             	mov    %rax,%rdi
    9711:	e8 dd af ff ff       	callq  46f3 <transparent_crc>
    9716:	8b 05 5b 61 00 00    	mov    0x615b(%rip),%eax        # f877 <g_465+0x7>
    971c:	48 98                	cltq   
    971e:	8b 55 fc             	mov    -0x4(%rbp),%edx
    9721:	48 8d 35 f0 27 00 00 	lea    0x27f0(%rip),%rsi        # bf18 <g_260+0xeb8>
    9728:	48 89 c7             	mov    %rax,%rdi
    972b:	e8 c3 af ff ff       	callq  46f3 <transparent_crc>
    9730:	48 8b 05 44 61 00 00 	mov    0x6144(%rip),%rax        # f87b <g_465+0xb>
    9737:	48 89 c1             	mov    %rax,%rcx
    973a:	8b 45 fc             	mov    -0x4(%rbp),%eax
    973d:	89 c2                	mov    %eax,%edx
    973f:	48 8d 35 db 27 00 00 	lea    0x27db(%rip),%rsi        # bf21 <g_260+0xec1>
    9746:	48 89 cf             	mov    %rcx,%rdi
    9749:	e8 a5 af ff ff       	callq  46f3 <transparent_crc>
    974e:	0f b6 05 3b 61 00 00 	movzbl 0x613b(%rip),%eax        # f890 <g_466>
    9755:	83 e0 03             	and    $0x3,%eax
    9758:	0f b6 c0             	movzbl %al,%eax
    975b:	8b 55 fc             	mov    -0x4(%rbp),%edx
    975e:	48 8d 35 c5 27 00 00 	lea    0x27c5(%rip),%rsi        # bf2a <g_260+0xeca>
    9765:	48 89 c7             	mov    %rax,%rdi
    9768:	e8 86 af ff ff       	callq  46f3 <transparent_crc>
    976d:	0f b7 05 1d 61 00 00 	movzwl 0x611d(%rip),%eax        # f891 <g_466+0x1>
    9774:	0f b7 c0             	movzwl %ax,%eax
    9777:	8b 55 fc             	mov    -0x4(%rbp),%edx
    977a:	48 8d 35 b2 27 00 00 	lea    0x27b2(%rip),%rsi        # bf33 <g_260+0xed3>
    9781:	48 89 c7             	mov    %rax,%rdi
    9784:	e8 6a af ff ff       	callq  46f3 <transparent_crc>
    9789:	8b 05 04 61 00 00    	mov    0x6104(%rip),%eax        # f893 <g_466+0x3>
    978f:	48 98                	cltq   
    9791:	8b 55 fc             	mov    -0x4(%rbp),%edx
    9794:	48 8d 35 a1 27 00 00 	lea    0x27a1(%rip),%rsi        # bf3c <g_260+0xedc>
    979b:	48 89 c7             	mov    %rax,%rdi
    979e:	e8 50 af ff ff       	callq  46f3 <transparent_crc>
    97a3:	8b 05 ee 60 00 00    	mov    0x60ee(%rip),%eax        # f897 <g_466+0x7>
    97a9:	48 98                	cltq   
    97ab:	8b 55 fc             	mov    -0x4(%rbp),%edx
    97ae:	48 8d 35 90 27 00 00 	lea    0x2790(%rip),%rsi        # bf45 <g_260+0xee5>
    97b5:	48 89 c7             	mov    %rax,%rdi
    97b8:	e8 36 af ff ff       	callq  46f3 <transparent_crc>
    97bd:	48 8b 05 d7 60 00 00 	mov    0x60d7(%rip),%rax        # f89b <g_466+0xb>
    97c4:	48 89 c1             	mov    %rax,%rcx
    97c7:	8b 45 fc             	mov    -0x4(%rbp),%eax
    97ca:	89 c2                	mov    %eax,%edx
    97cc:	48 8d 35 7b 27 00 00 	lea    0x277b(%rip),%rsi        # bf4e <g_260+0xeee>
    97d3:	48 89 cf             	mov    %rcx,%rdi
    97d6:	e8 18 af ff ff       	callq  46f3 <transparent_crc>
    97db:	c7 45 f0 00 00 00 00 	movl   $0x0,-0x10(%rbp)
    97e2:	e9 d7 01 00 00       	jmpq   99be <main+0x158b>
    97e7:	c7 45 f4 00 00 00 00 	movl   $0x0,-0xc(%rbp)
    97ee:	e9 bd 01 00 00       	jmpq   99b0 <main+0x157d>
    97f3:	8b 45 f4             	mov    -0xc(%rbp),%eax
    97f6:	48 63 d0             	movslq %eax,%rdx
    97f9:	8b 45 f0             	mov    -0x10(%rbp),%eax
    97fc:	48 63 c8             	movslq %eax,%rcx
    97ff:	48 89 d0             	mov    %rdx,%rax
    9802:	48 c1 e0 03          	shl    $0x3,%rax
    9806:	48 01 d0             	add    %rdx,%rax
    9809:	48 01 c0             	add    %rax,%rax
    980c:	48 01 d0             	add    %rdx,%rax
    980f:	48 89 ca             	mov    %rcx,%rdx
    9812:	48 01 d2             	add    %rdx,%rdx
    9815:	48 01 ca             	add    %rcx,%rdx
    9818:	48 c1 e2 05          	shl    $0x5,%rdx
    981c:	48 29 ca             	sub    %rcx,%rdx
    981f:	48 01 c2             	add    %rax,%rdx
    9822:	48 8d 05 97 60 00 00 	lea    0x6097(%rip),%rax        # f8c0 <g_467>
    9829:	48 01 d0             	add    %rdx,%rax
    982c:	0f b6 00             	movzbl (%rax),%eax
    982f:	83 e0 03             	and    $0x3,%eax
    9832:	0f b6 c0             	movzbl %al,%eax
    9835:	8b 55 fc             	mov    -0x4(%rbp),%edx
    9838:	48 8d 35 18 27 00 00 	lea    0x2718(%rip),%rsi        # bf57 <g_260+0xef7>
    983f:	48 89 c7             	mov    %rax,%rdi
    9842:	e8 ac ae ff ff       	callq  46f3 <transparent_crc>
    9847:	8b 45 f4             	mov    -0xc(%rbp),%eax
    984a:	48 63 d0             	movslq %eax,%rdx
    984d:	8b 45 f0             	mov    -0x10(%rbp),%eax
    9850:	48 63 c8             	movslq %eax,%rcx
    9853:	48 89 d0             	mov    %rdx,%rax
    9856:	48 c1 e0 03          	shl    $0x3,%rax
    985a:	48 01 d0             	add    %rdx,%rax
    985d:	48 01 c0             	add    %rax,%rax
    9860:	48 01 d0             	add    %rdx,%rax
    9863:	48 89 ca             	mov    %rcx,%rdx
    9866:	48 01 d2             	add    %rdx,%rdx
    9869:	48 01 ca             	add    %rcx,%rdx
    986c:	48 c1 e2 05          	shl    $0x5,%rdx
    9870:	48 29 ca             	sub    %rcx,%rdx
    9873:	48 01 c2             	add    %rax,%rdx
    9876:	48 8d 05 43 60 00 00 	lea    0x6043(%rip),%rax        # f8c0 <g_467>
    987d:	48 01 d0             	add    %rdx,%rax
    9880:	0f b7 40 01          	movzwl 0x1(%rax),%eax
    9884:	0f b7 c0             	movzwl %ax,%eax
    9887:	8b 55 fc             	mov    -0x4(%rbp),%edx
    988a:	48 8d 35 d5 26 00 00 	lea    0x26d5(%rip),%rsi        # bf66 <g_260+0xf06>
    9891:	48 89 c7             	mov    %rax,%rdi
    9894:	e8 5a ae ff ff       	callq  46f3 <transparent_crc>
    9899:	8b 45 f4             	mov    -0xc(%rbp),%eax
    989c:	48 63 d0             	movslq %eax,%rdx
    989f:	8b 45 f0             	mov    -0x10(%rbp),%eax
    98a2:	48 63 c8             	movslq %eax,%rcx
    98a5:	48 89 d0             	mov    %rdx,%rax
    98a8:	48 c1 e0 03          	shl    $0x3,%rax
    98ac:	48 01 d0             	add    %rdx,%rax
    98af:	48 01 c0             	add    %rax,%rax
    98b2:	48 01 d0             	add    %rdx,%rax
    98b5:	48 89 ca             	mov    %rcx,%rdx
    98b8:	48 01 d2             	add    %rdx,%rdx
    98bb:	48 01 ca             	add    %rcx,%rdx
    98be:	48 c1 e2 05          	shl    $0x5,%rdx
    98c2:	48 29 ca             	sub    %rcx,%rdx
    98c5:	48 01 c2             	add    %rax,%rdx
    98c8:	48 8d 05 f1 5f 00 00 	lea    0x5ff1(%rip),%rax        # f8c0 <g_467>
    98cf:	48 01 d0             	add    %rdx,%rax
    98d2:	8b 40 03             	mov    0x3(%rax),%eax
    98d5:	48 98                	cltq   
    98d7:	8b 55 fc             	mov    -0x4(%rbp),%edx
    98da:	48 8d 35 94 26 00 00 	lea    0x2694(%rip),%rsi        # bf75 <g_260+0xf15>
    98e1:	48 89 c7             	mov    %rax,%rdi
    98e4:	e8 0a ae ff ff       	callq  46f3 <transparent_crc>
    98e9:	8b 45 f4             	mov    -0xc(%rbp),%eax
    98ec:	48 63 d0             	movslq %eax,%rdx
    98ef:	8b 45 f0             	mov    -0x10(%rbp),%eax
    98f2:	48 63 c8             	movslq %eax,%rcx
    98f5:	48 89 d0             	mov    %rdx,%rax
    98f8:	48 c1 e0 03          	shl    $0x3,%rax
    98fc:	48 01 d0             	add    %rdx,%rax
    98ff:	48 01 c0             	add    %rax,%rax
    9902:	48 01 d0             	add    %rdx,%rax
    9905:	48 89 ca             	mov    %rcx,%rdx
    9908:	48 01 d2             	add    %rdx,%rdx
    990b:	48 01 ca             	add    %rcx,%rdx
    990e:	48 c1 e2 05          	shl    $0x5,%rdx
    9912:	48 29 ca             	sub    %rcx,%rdx
    9915:	48 01 c2             	add    %rax,%rdx
    9918:	48 8d 05 a1 5f 00 00 	lea    0x5fa1(%rip),%rax        # f8c0 <g_467>
    991f:	48 01 d0             	add    %rdx,%rax
    9922:	8b 40 07             	mov    0x7(%rax),%eax
    9925:	48 98                	cltq   
    9927:	8b 55 fc             	mov    -0x4(%rbp),%edx
    992a:	48 8d 35 53 26 00 00 	lea    0x2653(%rip),%rsi        # bf84 <g_260+0xf24>
    9931:	48 89 c7             	mov    %rax,%rdi
    9934:	e8 ba ad ff ff       	callq  46f3 <transparent_crc>
    9939:	8b 45 f4             	mov    -0xc(%rbp),%eax
    993c:	48 63 d0             	movslq %eax,%rdx
    993f:	8b 45 f0             	mov    -0x10(%rbp),%eax
    9942:	48 63 c8             	movslq %eax,%rcx
    9945:	48 89 d0             	mov    %rdx,%rax
    9948:	48 c1 e0 03          	shl    $0x3,%rax
    994c:	48 01 d0             	add    %rdx,%rax
    994f:	48 01 c0             	add    %rax,%rax
    9952:	48 01 d0             	add    %rdx,%rax
    9955:	48 89 ca             	mov    %rcx,%rdx
    9958:	48 01 d2             	add    %rdx,%rdx
    995b:	48 01 ca             	add    %rcx,%rdx
    995e:	48 c1 e2 05          	shl    $0x5,%rdx
    9962:	48 29 ca             	sub    %rcx,%rdx
    9965:	48 01 c2             	add    %rax,%rdx
    9968:	48 8d 05 51 5f 00 00 	lea    0x5f51(%rip),%rax        # f8c0 <g_467>
    996f:	48 01 d0             	add    %rdx,%rax
    9972:	48 8b 40 0b          	mov    0xb(%rax),%rax
    9976:	48 89 c1             	mov    %rax,%rcx
    9979:	8b 45 fc             	mov    -0x4(%rbp),%eax
    997c:	89 c2                	mov    %eax,%edx
    997e:	48 8d 35 0e 26 00 00 	lea    0x260e(%rip),%rsi        # bf93 <g_260+0xf33>
    9985:	48 89 cf             	mov    %rcx,%rdi
    9988:	e8 66 ad ff ff       	callq  46f3 <transparent_crc>
    998d:	83 7d fc 00          	cmpl   $0x0,-0x4(%rbp)
    9991:	74 19                	je     99ac <main+0x1579>
    9993:	8b 55 f4             	mov    -0xc(%rbp),%edx
    9996:	8b 45 f0             	mov    -0x10(%rbp),%eax
    9999:	89 c6                	mov    %eax,%esi
    999b:	48 8d 3d da 21 00 00 	lea    0x21da(%rip),%rdi        # bb7c <g_260+0xb1c>
    99a2:	b8 00 00 00 00       	mov    $0x0,%eax
    99a7:	e8 d4 96 ff ff       	callq  3080 <printf@plt>
    99ac:	83 45 f4 01          	addl   $0x1,-0xc(%rbp)
    99b0:	83 7d f4 04          	cmpl   $0x4,-0xc(%rbp)
    99b4:	0f 8e 39 fe ff ff    	jle    97f3 <main+0x13c0>
    99ba:	83 45 f0 01          	addl   $0x1,-0x10(%rbp)
    99be:	83 7d f0 03          	cmpl   $0x3,-0x10(%rbp)
    99c2:	0f 8e 1f fe ff ff    	jle    97e7 <main+0x13b4>
    99c8:	0f b6 05 71 60 00 00 	movzbl 0x6071(%rip),%eax        # fa40 <g_468>
    99cf:	83 e0 03             	and    $0x3,%eax
    99d2:	0f b6 c0             	movzbl %al,%eax
    99d5:	8b 55 fc             	mov    -0x4(%rbp),%edx
    99d8:	48 8d 35 c3 25 00 00 	lea    0x25c3(%rip),%rsi        # bfa2 <g_260+0xf42>
    99df:	48 89 c7             	mov    %rax,%rdi
    99e2:	e8 0c ad ff ff       	callq  46f3 <transparent_crc>
    99e7:	0f b7 05 53 60 00 00 	movzwl 0x6053(%rip),%eax        # fa41 <g_468+0x1>
    99ee:	0f b7 c0             	movzwl %ax,%eax
    99f1:	8b 55 fc             	mov    -0x4(%rbp),%edx
    99f4:	48 8d 35 b0 25 00 00 	lea    0x25b0(%rip),%rsi        # bfab <g_260+0xf4b>
    99fb:	48 89 c7             	mov    %rax,%rdi
    99fe:	e8 f0 ac ff ff       	callq  46f3 <transparent_crc>
    9a03:	8b 05 3a 60 00 00    	mov    0x603a(%rip),%eax        # fa43 <g_468+0x3>
    9a09:	48 98                	cltq   
    9a0b:	8b 55 fc             	mov    -0x4(%rbp),%edx
    9a0e:	48 8d 35 9f 25 00 00 	lea    0x259f(%rip),%rsi        # bfb4 <g_260+0xf54>
    9a15:	48 89 c7             	mov    %rax,%rdi
    9a18:	e8 d6 ac ff ff       	callq  46f3 <transparent_crc>
    9a1d:	8b 05 24 60 00 00    	mov    0x6024(%rip),%eax        # fa47 <g_468+0x7>
    9a23:	48 98                	cltq   
    9a25:	8b 55 fc             	mov    -0x4(%rbp),%edx
    9a28:	48 8d 35 8e 25 00 00 	lea    0x258e(%rip),%rsi        # bfbd <g_260+0xf5d>
    9a2f:	48 89 c7             	mov    %rax,%rdi
    9a32:	e8 bc ac ff ff       	callq  46f3 <transparent_crc>
    9a37:	48 8b 05 0d 60 00 00 	mov    0x600d(%rip),%rax        # fa4b <g_468+0xb>
    9a3e:	48 89 c1             	mov    %rax,%rcx
    9a41:	8b 45 fc             	mov    -0x4(%rbp),%eax
    9a44:	89 c2                	mov    %eax,%edx
    9a46:	48 8d 35 79 25 00 00 	lea    0x2579(%rip),%rsi        # bfc6 <g_260+0xf66>
    9a4d:	48 89 cf             	mov    %rcx,%rdi
    9a50:	e8 9e ac ff ff       	callq  46f3 <transparent_crc>
    9a55:	c7 45 f0 00 00 00 00 	movl   $0x0,-0x10(%rbp)
    9a5c:	e9 2b 02 00 00       	jmpq   9c8c <main+0x1859>
    9a61:	c7 45 f4 00 00 00 00 	movl   $0x0,-0xc(%rbp)
    9a68:	e9 11 02 00 00       	jmpq   9c7e <main+0x184b>
    9a6d:	c7 45 f8 00 00 00 00 	movl   $0x0,-0x8(%rbp)
    9a74:	e9 f7 01 00 00       	jmpq   9c70 <main+0x183d>
    9a79:	8b 45 f8             	mov    -0x8(%rbp),%eax
    9a7c:	48 63 d0             	movslq %eax,%rdx
    9a7f:	8b 45 f4             	mov    -0xc(%rbp),%eax
    9a82:	48 98                	cltq   
    9a84:	48 01 d0             	add    %rdx,%rax
    9a87:	8b 55 f0             	mov    -0x10(%rbp),%edx
    9a8a:	48 63 ca             	movslq %edx,%rcx
    9a8d:	48 89 c2             	mov    %rax,%rdx
    9a90:	48 c1 e2 03          	shl    $0x3,%rdx
    9a94:	48 01 c2             	add    %rax,%rdx
    9a97:	48 01 d2             	add    %rdx,%rdx
    9a9a:	48 01 c2             	add    %rax,%rdx
    9a9d:	48 89 c8             	mov    %rcx,%rax
    9aa0:	48 c1 e0 03          	shl    $0x3,%rax
    9aa4:	48 01 c8             	add    %rcx,%rax
    9aa7:	48 01 c0             	add    %rax,%rax
    9aaa:	48 01 c8             	add    %rcx,%rax
    9aad:	48 01 c0             	add    %rax,%rax
    9ab0:	48 01 c2             	add    %rax,%rdx
    9ab3:	48 8d 05 a6 5f 00 00 	lea    0x5fa6(%rip),%rax        # fa60 <g_469>
    9aba:	48 01 d0             	add    %rdx,%rax
    9abd:	0f b6 00             	movzbl (%rax),%eax
    9ac0:	83 e0 03             	and    $0x3,%eax
    9ac3:	0f b6 c0             	movzbl %al,%eax
    9ac6:	8b 55 fc             	mov    -0x4(%rbp),%edx
    9ac9:	48 8d 35 ff 24 00 00 	lea    0x24ff(%rip),%rsi        # bfcf <g_260+0xf6f>
    9ad0:	48 89 c7             	mov    %rax,%rdi
    9ad3:	e8 1b ac ff ff       	callq  46f3 <transparent_crc>
    9ad8:	8b 45 f8             	mov    -0x8(%rbp),%eax
    9adb:	48 63 d0             	movslq %eax,%rdx
    9ade:	8b 45 f4             	mov    -0xc(%rbp),%eax
    9ae1:	48 98                	cltq   
    9ae3:	48 01 d0             	add    %rdx,%rax
    9ae6:	8b 55 f0             	mov    -0x10(%rbp),%edx
    9ae9:	48 63 ca             	movslq %edx,%rcx
    9aec:	48 89 c2             	mov    %rax,%rdx
    9aef:	48 c1 e2 03          	shl    $0x3,%rdx
    9af3:	48 01 c2             	add    %rax,%rdx
    9af6:	48 01 d2             	add    %rdx,%rdx
    9af9:	48 01 c2             	add    %rax,%rdx
    9afc:	48 89 c8             	mov    %rcx,%rax
    9aff:	48 c1 e0 03          	shl    $0x3,%rax
    9b03:	48 01 c8             	add    %rcx,%rax
    9b06:	48 01 c0             	add    %rax,%rax
    9b09:	48 01 c8             	add    %rcx,%rax
    9b0c:	48 01 c0             	add    %rax,%rax
    9b0f:	48 01 c2             	add    %rax,%rdx
    9b12:	48 8d 05 47 5f 00 00 	lea    0x5f47(%rip),%rax        # fa60 <g_469>
    9b19:	48 01 d0             	add    %rdx,%rax
    9b1c:	0f b7 40 01          	movzwl 0x1(%rax),%eax
    9b20:	0f b7 c0             	movzwl %ax,%eax
    9b23:	8b 55 fc             	mov    -0x4(%rbp),%edx
    9b26:	48 8d 35 b4 24 00 00 	lea    0x24b4(%rip),%rsi        # bfe1 <g_260+0xf81>
    9b2d:	48 89 c7             	mov    %rax,%rdi
    9b30:	e8 be ab ff ff       	callq  46f3 <transparent_crc>
    9b35:	8b 45 f8             	mov    -0x8(%rbp),%eax
    9b38:	48 63 d0             	movslq %eax,%rdx
    9b3b:	8b 45 f4             	mov    -0xc(%rbp),%eax
    9b3e:	48 98                	cltq   
    9b40:	48 01 d0             	add    %rdx,%rax
    9b43:	8b 55 f0             	mov    -0x10(%rbp),%edx
    9b46:	48 63 ca             	movslq %edx,%rcx
    9b49:	48 89 c2             	mov    %rax,%rdx
    9b4c:	48 c1 e2 03          	shl    $0x3,%rdx
    9b50:	48 01 c2             	add    %rax,%rdx
    9b53:	48 01 d2             	add    %rdx,%rdx
    9b56:	48 01 c2             	add    %rax,%rdx
    9b59:	48 89 c8             	mov    %rcx,%rax
    9b5c:	48 c1 e0 03          	shl    $0x3,%rax
    9b60:	48 01 c8             	add    %rcx,%rax
    9b63:	48 01 c0             	add    %rax,%rax
    9b66:	48 01 c8             	add    %rcx,%rax
    9b69:	48 01 c0             	add    %rax,%rax
    9b6c:	48 01 c2             	add    %rax,%rdx
    9b6f:	48 8d 05 ea 5e 00 00 	lea    0x5eea(%rip),%rax        # fa60 <g_469>
    9b76:	48 01 d0             	add    %rdx,%rax
    9b79:	8b 40 03             	mov    0x3(%rax),%eax
    9b7c:	48 98                	cltq   
    9b7e:	8b 55 fc             	mov    -0x4(%rbp),%edx
    9b81:	48 8d 35 6b 24 00 00 	lea    0x246b(%rip),%rsi        # bff3 <g_260+0xf93>
    9b88:	48 89 c7             	mov    %rax,%rdi
    9b8b:	e8 63 ab ff ff       	callq  46f3 <transparent_crc>
    9b90:	8b 45 f8             	mov    -0x8(%rbp),%eax
    9b93:	48 63 d0             	movslq %eax,%rdx
    9b96:	8b 45 f4             	mov    -0xc(%rbp),%eax
    9b99:	48 98                	cltq   
    9b9b:	48 01 d0             	add    %rdx,%rax
    9b9e:	8b 55 f0             	mov    -0x10(%rbp),%edx
    9ba1:	48 63 ca             	movslq %edx,%rcx
    9ba4:	48 89 c2             	mov    %rax,%rdx
    9ba7:	48 c1 e2 03          	shl    $0x3,%rdx
    9bab:	48 01 c2             	add    %rax,%rdx
    9bae:	48 01 d2             	add    %rdx,%rdx
    9bb1:	48 01 c2             	add    %rax,%rdx
    9bb4:	48 89 c8             	mov    %rcx,%rax
    9bb7:	48 c1 e0 03          	shl    $0x3,%rax
    9bbb:	48 01 c8             	add    %rcx,%rax
    9bbe:	48 01 c0             	add    %rax,%rax
    9bc1:	48 01 c8             	add    %rcx,%rax
    9bc4:	48 01 c0             	add    %rax,%rax
    9bc7:	48 01 c2             	add    %rax,%rdx
    9bca:	48 8d 05 8f 5e 00 00 	lea    0x5e8f(%rip),%rax        # fa60 <g_469>
    9bd1:	48 01 d0             	add    %rdx,%rax
    9bd4:	8b 40 07             	mov    0x7(%rax),%eax
    9bd7:	48 98                	cltq   
    9bd9:	8b 55 fc             	mov    -0x4(%rbp),%edx
    9bdc:	48 8d 35 22 24 00 00 	lea    0x2422(%rip),%rsi        # c005 <g_260+0xfa5>
    9be3:	48 89 c7             	mov    %rax,%rdi
    9be6:	e8 08 ab ff ff       	callq  46f3 <transparent_crc>
    9beb:	8b 45 f8             	mov    -0x8(%rbp),%eax
    9bee:	48 63 d0             	movslq %eax,%rdx
    9bf1:	8b 45 f4             	mov    -0xc(%rbp),%eax
    9bf4:	48 98                	cltq   
    9bf6:	48 01 d0             	add    %rdx,%rax
    9bf9:	8b 55 f0             	mov    -0x10(%rbp),%edx
    9bfc:	48 63 ca             	movslq %edx,%rcx
    9bff:	48 89 c2             	mov    %rax,%rdx
    9c02:	48 c1 e2 03          	shl    $0x3,%rdx
    9c06:	48 01 c2             	add    %rax,%rdx
    9c09:	48 01 d2             	add    %rdx,%rdx
    9c0c:	48 01 c2             	add    %rax,%rdx
    9c0f:	48 89 c8             	mov    %rcx,%rax
    9c12:	48 c1 e0 03          	shl    $0x3,%rax
    9c16:	48 01 c8             	add    %rcx,%rax
    9c19:	48 01 c0             	add    %rax,%rax
    9c1c:	48 01 c8             	add    %rcx,%rax
    9c1f:	48 01 c0             	add    %rax,%rax
    9c22:	48 01 c2             	add    %rax,%rdx
    9c25:	48 8d 05 34 5e 00 00 	lea    0x5e34(%rip),%rax        # fa60 <g_469>
    9c2c:	48 01 d0             	add    %rdx,%rax
    9c2f:	48 8b 40 0b          	mov    0xb(%rax),%rax
    9c33:	48 89 c1             	mov    %rax,%rcx
    9c36:	8b 45 fc             	mov    -0x4(%rbp),%eax
    9c39:	89 c2                	mov    %eax,%edx
    9c3b:	48 8d 35 d5 23 00 00 	lea    0x23d5(%rip),%rsi        # c017 <g_260+0xfb7>
    9c42:	48 89 cf             	mov    %rcx,%rdi
    9c45:	e8 a9 aa ff ff       	callq  46f3 <transparent_crc>
    9c4a:	83 7d fc 00          	cmpl   $0x0,-0x4(%rbp)
    9c4e:	74 1c                	je     9c6c <main+0x1839>
    9c50:	8b 4d f8             	mov    -0x8(%rbp),%ecx
    9c53:	8b 55 f4             	mov    -0xc(%rbp),%edx
    9c56:	8b 45 f0             	mov    -0x10(%rbp),%eax
    9c59:	89 c6                	mov    %eax,%esi
    9c5b:	48 8d 3d a2 20 00 00 	lea    0x20a2(%rip),%rdi        # bd04 <g_260+0xca4>
    9c62:	b8 00 00 00 00       	mov    $0x0,%eax
    9c67:	e8 14 94 ff ff       	callq  3080 <printf@plt>
    9c6c:	83 45 f8 01          	addl   $0x1,-0x8(%rbp)
    9c70:	83 7d f8 00          	cmpl   $0x0,-0x8(%rbp)
    9c74:	0f 8e ff fd ff ff    	jle    9a79 <main+0x1646>
    9c7a:	83 45 f4 01          	addl   $0x1,-0xc(%rbp)
    9c7e:	83 7d f4 01          	cmpl   $0x1,-0xc(%rbp)
    9c82:	0f 8e e5 fd ff ff    	jle    9a6d <main+0x163a>
    9c88:	83 45 f0 01          	addl   $0x1,-0x10(%rbp)
    9c8c:	83 7d f0 05          	cmpl   $0x5,-0x10(%rbp)
    9c90:	0f 8e cb fd ff ff    	jle    9a61 <main+0x162e>
    9c96:	0f b6 05 b3 5e 00 00 	movzbl 0x5eb3(%rip),%eax        # fb50 <g_470>
    9c9d:	83 e0 03             	and    $0x3,%eax
    9ca0:	0f b6 c0             	movzbl %al,%eax
    9ca3:	8b 55 fc             	mov    -0x4(%rbp),%edx
    9ca6:	48 8d 35 7c 23 00 00 	lea    0x237c(%rip),%rsi        # c029 <g_260+0xfc9>
    9cad:	48 89 c7             	mov    %rax,%rdi
    9cb0:	e8 3e aa ff ff       	callq  46f3 <transparent_crc>
    9cb5:	0f b7 05 95 5e 00 00 	movzwl 0x5e95(%rip),%eax        # fb51 <g_470+0x1>
    9cbc:	0f b7 c0             	movzwl %ax,%eax
    9cbf:	8b 55 fc             	mov    -0x4(%rbp),%edx
    9cc2:	48 8d 35 69 23 00 00 	lea    0x2369(%rip),%rsi        # c032 <g_260+0xfd2>
    9cc9:	48 89 c7             	mov    %rax,%rdi
    9ccc:	e8 22 aa ff ff       	callq  46f3 <transparent_crc>
    9cd1:	8b 05 7c 5e 00 00    	mov    0x5e7c(%rip),%eax        # fb53 <g_470+0x3>
    9cd7:	48 98                	cltq   
    9cd9:	8b 55 fc             	mov    -0x4(%rbp),%edx
    9cdc:	48 8d 35 58 23 00 00 	lea    0x2358(%rip),%rsi        # c03b <g_260+0xfdb>
    9ce3:	48 89 c7             	mov    %rax,%rdi
    9ce6:	e8 08 aa ff ff       	callq  46f3 <transparent_crc>
    9ceb:	8b 05 66 5e 00 00    	mov    0x5e66(%rip),%eax        # fb57 <g_470+0x7>
    9cf1:	48 98                	cltq   
    9cf3:	8b 55 fc             	mov    -0x4(%rbp),%edx
    9cf6:	48 8d 35 47 23 00 00 	lea    0x2347(%rip),%rsi        # c044 <g_260+0xfe4>
    9cfd:	48 89 c7             	mov    %rax,%rdi
    9d00:	e8 ee a9 ff ff       	callq  46f3 <transparent_crc>
    9d05:	48 8b 05 4f 5e 00 00 	mov    0x5e4f(%rip),%rax        # fb5b <g_470+0xb>
    9d0c:	48 89 c1             	mov    %rax,%rcx
    9d0f:	8b 45 fc             	mov    -0x4(%rbp),%eax
    9d12:	89 c2                	mov    %eax,%edx
    9d14:	48 8d 35 32 23 00 00 	lea    0x2332(%rip),%rsi        # c04d <g_260+0xfed>
    9d1b:	48 89 cf             	mov    %rcx,%rdi
    9d1e:	e8 d0 a9 ff ff       	callq  46f3 <transparent_crc>
    9d23:	0f b6 05 46 5e 00 00 	movzbl 0x5e46(%rip),%eax        # fb70 <g_471>
    9d2a:	83 e0 03             	and    $0x3,%eax
    9d2d:	0f b6 c0             	movzbl %al,%eax
    9d30:	8b 55 fc             	mov    -0x4(%rbp),%edx
    9d33:	48 8d 35 1c 23 00 00 	lea    0x231c(%rip),%rsi        # c056 <g_260+0xff6>
    9d3a:	48 89 c7             	mov    %rax,%rdi
    9d3d:	e8 b1 a9 ff ff       	callq  46f3 <transparent_crc>
    9d42:	0f b7 05 28 5e 00 00 	movzwl 0x5e28(%rip),%eax        # fb71 <g_471+0x1>
    9d49:	0f b7 c0             	movzwl %ax,%eax
    9d4c:	8b 55 fc             	mov    -0x4(%rbp),%edx
    9d4f:	48 8d 35 09 23 00 00 	lea    0x2309(%rip),%rsi        # c05f <g_260+0xfff>
    9d56:	48 89 c7             	mov    %rax,%rdi
    9d59:	e8 95 a9 ff ff       	callq  46f3 <transparent_crc>
    9d5e:	8b 05 0f 5e 00 00    	mov    0x5e0f(%rip),%eax        # fb73 <g_471+0x3>
    9d64:	48 98                	cltq   
    9d66:	8b 55 fc             	mov    -0x4(%rbp),%edx
    9d69:	48 8d 35 f8 22 00 00 	lea    0x22f8(%rip),%rsi        # c068 <g_260+0x1008>
    9d70:	48 89 c7             	mov    %rax,%rdi
    9d73:	e8 7b a9 ff ff       	callq  46f3 <transparent_crc>
    9d78:	8b 05 f9 5d 00 00    	mov    0x5df9(%rip),%eax        # fb77 <g_471+0x7>
    9d7e:	48 98                	cltq   
    9d80:	8b 55 fc             	mov    -0x4(%rbp),%edx
    9d83:	48 8d 35 e7 22 00 00 	lea    0x22e7(%rip),%rsi        # c071 <g_260+0x1011>
    9d8a:	48 89 c7             	mov    %rax,%rdi
    9d8d:	e8 61 a9 ff ff       	callq  46f3 <transparent_crc>
    9d92:	48 8b 05 e2 5d 00 00 	mov    0x5de2(%rip),%rax        # fb7b <g_471+0xb>
    9d99:	48 89 c1             	mov    %rax,%rcx
    9d9c:	8b 45 fc             	mov    -0x4(%rbp),%eax
    9d9f:	89 c2                	mov    %eax,%edx
    9da1:	48 8d 35 d2 22 00 00 	lea    0x22d2(%rip),%rsi        # c07a <g_260+0x101a>
    9da8:	48 89 cf             	mov    %rcx,%rdi
    9dab:	e8 43 a9 ff ff       	callq  46f3 <transparent_crc>
    9db0:	c7 45 f0 00 00 00 00 	movl   $0x0,-0x10(%rbp)
    9db7:	e9 e1 01 00 00       	jmpq   9f9d <main+0x1b6a>
    9dbc:	c7 45 f4 00 00 00 00 	movl   $0x0,-0xc(%rbp)
    9dc3:	e9 c7 01 00 00       	jmpq   9f8f <main+0x1b5c>
    9dc8:	8b 45 f4             	mov    -0xc(%rbp),%eax
    9dcb:	48 98                	cltq   
    9dcd:	8b 55 f0             	mov    -0x10(%rbp),%edx
    9dd0:	48 63 ca             	movslq %edx,%rcx
    9dd3:	48 89 c2             	mov    %rax,%rdx
    9dd6:	48 c1 e2 03          	shl    $0x3,%rdx
    9dda:	48 01 c2             	add    %rax,%rdx
    9ddd:	48 01 d2             	add    %rdx,%rdx
    9de0:	48 01 c2             	add    %rax,%rdx
    9de3:	48 89 c8             	mov    %rcx,%rax
    9de6:	48 c1 e0 03          	shl    $0x3,%rax
    9dea:	48 01 c8             	add    %rcx,%rax
    9ded:	48 01 c0             	add    %rax,%rax
    9df0:	48 01 c8             	add    %rcx,%rax
    9df3:	48 01 c0             	add    %rax,%rax
    9df6:	48 01 c2             	add    %rax,%rdx
    9df9:	48 8d 05 a0 5d 00 00 	lea    0x5da0(%rip),%rax        # fba0 <g_472>
    9e00:	48 01 d0             	add    %rdx,%rax
    9e03:	0f b6 00             	movzbl (%rax),%eax
    9e06:	83 e0 03             	and    $0x3,%eax
    9e09:	0f b6 c0             	movzbl %al,%eax
    9e0c:	8b 55 fc             	mov    -0x4(%rbp),%edx
    9e0f:	48 8d 35 6d 22 00 00 	lea    0x226d(%rip),%rsi        # c083 <g_260+0x1023>
    9e16:	48 89 c7             	mov    %rax,%rdi
    9e19:	e8 d5 a8 ff ff       	callq  46f3 <transparent_crc>
    9e1e:	8b 45 f4             	mov    -0xc(%rbp),%eax
    9e21:	48 98                	cltq   
    9e23:	8b 55 f0             	mov    -0x10(%rbp),%edx
    9e26:	48 63 ca             	movslq %edx,%rcx
    9e29:	48 89 c2             	mov    %rax,%rdx
    9e2c:	48 c1 e2 03          	shl    $0x3,%rdx
    9e30:	48 01 c2             	add    %rax,%rdx
    9e33:	48 01 d2             	add    %rdx,%rdx
    9e36:	48 01 c2             	add    %rax,%rdx
    9e39:	48 89 c8             	mov    %rcx,%rax
    9e3c:	48 c1 e0 03          	shl    $0x3,%rax
    9e40:	48 01 c8             	add    %rcx,%rax
    9e43:	48 01 c0             	add    %rax,%rax
    9e46:	48 01 c8             	add    %rcx,%rax
    9e49:	48 01 c0             	add    %rax,%rax
    9e4c:	48 01 c2             	add    %rax,%rdx
    9e4f:	48 8d 05 4a 5d 00 00 	lea    0x5d4a(%rip),%rax        # fba0 <g_472>
    9e56:	48 01 d0             	add    %rdx,%rax
    9e59:	0f b7 40 01          	movzwl 0x1(%rax),%eax
    9e5d:	0f b7 c0             	movzwl %ax,%eax
    9e60:	8b 55 fc             	mov    -0x4(%rbp),%edx
    9e63:	48 8d 35 28 22 00 00 	lea    0x2228(%rip),%rsi        # c092 <g_260+0x1032>
    9e6a:	48 89 c7             	mov    %rax,%rdi
    9e6d:	e8 81 a8 ff ff       	callq  46f3 <transparent_crc>
    9e72:	8b 45 f4             	mov    -0xc(%rbp),%eax
    9e75:	48 98                	cltq   
    9e77:	8b 55 f0             	mov    -0x10(%rbp),%edx
    9e7a:	48 63 ca             	movslq %edx,%rcx
    9e7d:	48 89 c2             	mov    %rax,%rdx
    9e80:	48 c1 e2 03          	shl    $0x3,%rdx
    9e84:	48 01 c2             	add    %rax,%rdx
    9e87:	48 01 d2             	add    %rdx,%rdx
    9e8a:	48 01 c2             	add    %rax,%rdx
    9e8d:	48 89 c8             	mov    %rcx,%rax
    9e90:	48 c1 e0 03          	shl    $0x3,%rax
    9e94:	48 01 c8             	add    %rcx,%rax
    9e97:	48 01 c0             	add    %rax,%rax
    9e9a:	48 01 c8             	add    %rcx,%rax
    9e9d:	48 01 c0             	add    %rax,%rax
    9ea0:	48 01 c2             	add    %rax,%rdx
    9ea3:	48 8d 05 f6 5c 00 00 	lea    0x5cf6(%rip),%rax        # fba0 <g_472>
    9eaa:	48 01 d0             	add    %rdx,%rax
    9ead:	8b 40 03             	mov    0x3(%rax),%eax
    9eb0:	48 98                	cltq   
    9eb2:	8b 55 fc             	mov    -0x4(%rbp),%edx
    9eb5:	48 8d 35 e5 21 00 00 	lea    0x21e5(%rip),%rsi        # c0a1 <g_260+0x1041>
    9ebc:	48 89 c7             	mov    %rax,%rdi
    9ebf:	e8 2f a8 ff ff       	callq  46f3 <transparent_crc>
    9ec4:	8b 45 f4             	mov    -0xc(%rbp),%eax
    9ec7:	48 98                	cltq   
    9ec9:	8b 55 f0             	mov    -0x10(%rbp),%edx
    9ecc:	48 63 ca             	movslq %edx,%rcx
    9ecf:	48 89 c2             	mov    %rax,%rdx
    9ed2:	48 c1 e2 03          	shl    $0x3,%rdx
    9ed6:	48 01 c2             	add    %rax,%rdx
    9ed9:	48 01 d2             	add    %rdx,%rdx
    9edc:	48 01 c2             	add    %rax,%rdx
    9edf:	48 89 c8             	mov    %rcx,%rax
    9ee2:	48 c1 e0 03          	shl    $0x3,%rax
    9ee6:	48 01 c8             	add    %rcx,%rax
    9ee9:	48 01 c0             	add    %rax,%rax
    9eec:	48 01 c8             	add    %rcx,%rax
    9eef:	48 01 c0             	add    %rax,%rax
    9ef2:	48 01 c2             	add    %rax,%rdx
    9ef5:	48 8d 05 a4 5c 00 00 	lea    0x5ca4(%rip),%rax        # fba0 <g_472>
    9efc:	48 01 d0             	add    %rdx,%rax
    9eff:	8b 40 07             	mov    0x7(%rax),%eax
    9f02:	48 98                	cltq   
    9f04:	8b 55 fc             	mov    -0x4(%rbp),%edx
    9f07:	48 8d 35 a2 21 00 00 	lea    0x21a2(%rip),%rsi        # c0b0 <g_260+0x1050>
    9f0e:	48 89 c7             	mov    %rax,%rdi
    9f11:	e8 dd a7 ff ff       	callq  46f3 <transparent_crc>
    9f16:	8b 45 f4             	mov    -0xc(%rbp),%eax
    9f19:	48 98                	cltq   
    9f1b:	8b 55 f0             	mov    -0x10(%rbp),%edx
    9f1e:	48 63 ca             	movslq %edx,%rcx
    9f21:	48 89 c2             	mov    %rax,%rdx
    9f24:	48 c1 e2 03          	shl    $0x3,%rdx
    9f28:	48 01 c2             	add    %rax,%rdx
    9f2b:	48 01 d2             	add    %rdx,%rdx
    9f2e:	48 01 c2             	add    %rax,%rdx
    9f31:	48 89 c8             	mov    %rcx,%rax
    9f34:	48 c1 e0 03          	shl    $0x3,%rax
    9f38:	48 01 c8             	add    %rcx,%rax
    9f3b:	48 01 c0             	add    %rax,%rax
    9f3e:	48 01 c8             	add    %rcx,%rax
    9f41:	48 01 c0             	add    %rax,%rax
    9f44:	48 01 c2             	add    %rax,%rdx
    9f47:	48 8d 05 52 5c 00 00 	lea    0x5c52(%rip),%rax        # fba0 <g_472>
    9f4e:	48 01 d0             	add    %rdx,%rax
    9f51:	48 8b 40 0b          	mov    0xb(%rax),%rax
    9f55:	48 89 c1             	mov    %rax,%rcx
    9f58:	8b 45 fc             	mov    -0x4(%rbp),%eax
    9f5b:	89 c2                	mov    %eax,%edx
    9f5d:	48 8d 35 5b 21 00 00 	lea    0x215b(%rip),%rsi        # c0bf <g_260+0x105f>
    9f64:	48 89 cf             	mov    %rcx,%rdi
    9f67:	e8 87 a7 ff ff       	callq  46f3 <transparent_crc>
    9f6c:	83 7d fc 00          	cmpl   $0x0,-0x4(%rbp)
    9f70:	74 19                	je     9f8b <main+0x1b58>
    9f72:	8b 55 f4             	mov    -0xc(%rbp),%edx
    9f75:	8b 45 f0             	mov    -0x10(%rbp),%eax
    9f78:	89 c6                	mov    %eax,%esi
    9f7a:	48 8d 3d fb 1b 00 00 	lea    0x1bfb(%rip),%rdi        # bb7c <g_260+0xb1c>
    9f81:	b8 00 00 00 00       	mov    $0x0,%eax
    9f86:	e8 f5 90 ff ff       	callq  3080 <printf@plt>
    9f8b:	83 45 f4 01          	addl   $0x1,-0xc(%rbp)
    9f8f:	83 7d f4 01          	cmpl   $0x1,-0xc(%rbp)
    9f93:	0f 8e 2f fe ff ff    	jle    9dc8 <main+0x1995>
    9f99:	83 45 f0 01          	addl   $0x1,-0x10(%rbp)
    9f9d:	83 7d f0 06          	cmpl   $0x6,-0x10(%rbp)
    9fa1:	0f 8e 15 fe ff ff    	jle    9dbc <main+0x1989>
    9fa7:	0f b6 05 02 5d 00 00 	movzbl 0x5d02(%rip),%eax        # fcb0 <g_473>
    9fae:	83 e0 03             	and    $0x3,%eax
    9fb1:	0f b6 c0             	movzbl %al,%eax
    9fb4:	8b 55 fc             	mov    -0x4(%rbp),%edx
    9fb7:	48 8d 35 10 21 00 00 	lea    0x2110(%rip),%rsi        # c0ce <g_260+0x106e>
    9fbe:	48 89 c7             	mov    %rax,%rdi
    9fc1:	e8 2d a7 ff ff       	callq  46f3 <transparent_crc>
    9fc6:	0f b7 05 e4 5c 00 00 	movzwl 0x5ce4(%rip),%eax        # fcb1 <g_473+0x1>
    9fcd:	0f b7 c0             	movzwl %ax,%eax
    9fd0:	8b 55 fc             	mov    -0x4(%rbp),%edx
    9fd3:	48 8d 35 fd 20 00 00 	lea    0x20fd(%rip),%rsi        # c0d7 <g_260+0x1077>
    9fda:	48 89 c7             	mov    %rax,%rdi
    9fdd:	e8 11 a7 ff ff       	callq  46f3 <transparent_crc>
    9fe2:	8b 05 cb 5c 00 00    	mov    0x5ccb(%rip),%eax        # fcb3 <g_473+0x3>
    9fe8:	48 98                	cltq   
    9fea:	8b 55 fc             	mov    -0x4(%rbp),%edx
    9fed:	48 8d 35 ec 20 00 00 	lea    0x20ec(%rip),%rsi        # c0e0 <g_260+0x1080>
    9ff4:	48 89 c7             	mov    %rax,%rdi
    9ff7:	e8 f7 a6 ff ff       	callq  46f3 <transparent_crc>
    9ffc:	8b 05 b5 5c 00 00    	mov    0x5cb5(%rip),%eax        # fcb7 <g_473+0x7>
    a002:	48 98                	cltq   
    a004:	8b 55 fc             	mov    -0x4(%rbp),%edx
    a007:	48 8d 35 db 20 00 00 	lea    0x20db(%rip),%rsi        # c0e9 <g_260+0x1089>
    a00e:	48 89 c7             	mov    %rax,%rdi
    a011:	e8 dd a6 ff ff       	callq  46f3 <transparent_crc>
    a016:	48 8b 05 9e 5c 00 00 	mov    0x5c9e(%rip),%rax        # fcbb <g_473+0xb>
    a01d:	48 89 c1             	mov    %rax,%rcx
    a020:	8b 45 fc             	mov    -0x4(%rbp),%eax
    a023:	89 c2                	mov    %eax,%edx
    a025:	48 8d 35 c6 20 00 00 	lea    0x20c6(%rip),%rsi        # c0f2 <g_260+0x1092>
    a02c:	48 89 cf             	mov    %rcx,%rdi
    a02f:	e8 bf a6 ff ff       	callq  46f3 <transparent_crc>
    a034:	48 8b 05 8d 5c 00 00 	mov    0x5c8d(%rip),%rax        # fcc8 <g_490>
    a03b:	c1 e0 0c             	shl    $0xc,%eax
    a03e:	c1 f8 0c             	sar    $0xc,%eax
    a041:	48 98                	cltq   
    a043:	8b 55 fc             	mov    -0x4(%rbp),%edx
    a046:	48 8d 35 ae 20 00 00 	lea    0x20ae(%rip),%rsi        # c0fb <g_260+0x109b>
    a04d:	48 89 c7             	mov    %rax,%rdi
    a050:	e8 9e a6 ff ff       	callq  46f3 <transparent_crc>
    a055:	48 8b 05 6c 5c 00 00 	mov    0x5c6c(%rip),%rax        # fcc8 <g_490>
    a05c:	48 c1 e0 05          	shl    $0x5,%rax
    a060:	48 c1 f8 25          	sar    $0x25,%rax
    a064:	48 98                	cltq   
    a066:	8b 55 fc             	mov    -0x4(%rbp),%edx
    a069:	48 8d 35 94 20 00 00 	lea    0x2094(%rip),%rsi        # c104 <g_260+0x10a4>
    a070:	48 89 c7             	mov    %rax,%rdi
    a073:	e8 7b a6 ff ff       	callq  46f3 <transparent_crc>
    a078:	48 8b 05 51 5c 00 00 	mov    0x5c51(%rip),%rax        # fcd0 <g_490+0x8>
    a07f:	c1 e0 0e             	shl    $0xe,%eax
    a082:	c1 f8 0e             	sar    $0xe,%eax
    a085:	48 98                	cltq   
    a087:	8b 55 fc             	mov    -0x4(%rbp),%edx
    a08a:	48 8d 35 7c 20 00 00 	lea    0x207c(%rip),%rsi        # c10d <g_260+0x10ad>
    a091:	48 89 c7             	mov    %rax,%rdi
    a094:	e8 5a a6 ff ff       	callq  46f3 <transparent_crc>
    a099:	c7 45 f0 00 00 00 00 	movl   $0x0,-0x10(%rbp)
    a0a0:	e9 d0 00 00 00       	jmpq   a175 <main+0x1d42>
    a0a5:	8b 45 f0             	mov    -0x10(%rbp),%eax
    a0a8:	48 63 d0             	movslq %eax,%rdx
    a0ab:	48 89 d0             	mov    %rdx,%rax
    a0ae:	48 01 c0             	add    %rax,%rax
    a0b1:	48 01 d0             	add    %rdx,%rax
    a0b4:	48 c1 e0 02          	shl    $0x2,%rax
    a0b8:	48 89 c2             	mov    %rax,%rdx
    a0bb:	48 8d 05 1e 5c 00 00 	lea    0x5c1e(%rip),%rax        # fce0 <g_503>
    a0c2:	8b 04 02             	mov    (%rdx,%rax,1),%eax
    a0c5:	c1 e0 0c             	shl    $0xc,%eax
    a0c8:	c1 f8 0c             	sar    $0xc,%eax
    a0cb:	48 98                	cltq   
    a0cd:	8b 55 fc             	mov    -0x4(%rbp),%edx
    a0d0:	48 8d 35 3f 20 00 00 	lea    0x203f(%rip),%rsi        # c116 <g_260+0x10b6>
    a0d7:	48 89 c7             	mov    %rax,%rdi
    a0da:	e8 14 a6 ff ff       	callq  46f3 <transparent_crc>
    a0df:	8b 45 f0             	mov    -0x10(%rbp),%eax
    a0e2:	48 63 d0             	movslq %eax,%rdx
    a0e5:	48 89 d0             	mov    %rdx,%rax
    a0e8:	48 01 c0             	add    %rax,%rax
    a0eb:	48 01 d0             	add    %rdx,%rax
    a0ee:	48 c1 e0 02          	shl    $0x2,%rax
    a0f2:	48 89 c2             	mov    %rax,%rdx
    a0f5:	48 8d 05 e4 5b 00 00 	lea    0x5be4(%rip),%rax        # fce0 <g_503>
    a0fc:	8b 44 02 04          	mov    0x4(%rdx,%rax,1),%eax
    a100:	c1 e0 05             	shl    $0x5,%eax
    a103:	c1 f8 05             	sar    $0x5,%eax
    a106:	48 98                	cltq   
    a108:	8b 55 fc             	mov    -0x4(%rbp),%edx
    a10b:	48 8d 35 10 20 00 00 	lea    0x2010(%rip),%rsi        # c122 <g_260+0x10c2>
    a112:	48 89 c7             	mov    %rax,%rdi
    a115:	e8 d9 a5 ff ff       	callq  46f3 <transparent_crc>
    a11a:	8b 45 f0             	mov    -0x10(%rbp),%eax
    a11d:	48 63 d0             	movslq %eax,%rdx
    a120:	48 89 d0             	mov    %rdx,%rax
    a123:	48 01 c0             	add    %rax,%rax
    a126:	48 01 d0             	add    %rdx,%rax
    a129:	48 c1 e0 02          	shl    $0x2,%rax
    a12d:	48 89 c2             	mov    %rax,%rdx
    a130:	48 8d 05 a9 5b 00 00 	lea    0x5ba9(%rip),%rax        # fce0 <g_503>
    a137:	8b 44 02 08          	mov    0x8(%rdx,%rax,1),%eax
    a13b:	c1 e0 0e             	shl    $0xe,%eax
    a13e:	c1 f8 0e             	sar    $0xe,%eax
    a141:	48 98                	cltq   
    a143:	8b 55 fc             	mov    -0x4(%rbp),%edx
    a146:	48 8d 35 e1 1f 00 00 	lea    0x1fe1(%rip),%rsi        # c12e <g_260+0x10ce>
    a14d:	48 89 c7             	mov    %rax,%rdi
    a150:	e8 9e a5 ff ff       	callq  46f3 <transparent_crc>
    a155:	83 7d fc 00          	cmpl   $0x0,-0x4(%rbp)
    a159:	74 16                	je     a171 <main+0x1d3e>
    a15b:	8b 45 f0             	mov    -0x10(%rbp),%eax
    a15e:	89 c6                	mov    %eax,%esi
    a160:	48 8d 3d 8d 19 00 00 	lea    0x198d(%rip),%rdi        # baf4 <g_260+0xa94>
    a167:	b8 00 00 00 00       	mov    $0x0,%eax
    a16c:	e8 0f 8f ff ff       	callq  3080 <printf@plt>
    a171:	83 45 f0 01          	addl   $0x1,-0x10(%rbp)
    a175:	83 7d f0 09          	cmpl   $0x9,-0x10(%rbp)
    a179:	0f 8e 26 ff ff ff    	jle    a0a5 <main+0x1c72>
    a17f:	8b 05 d3 5b 00 00    	mov    0x5bd3(%rip),%eax        # fd58 <g_530>
    a185:	48 98                	cltq   
    a187:	8b 55 fc             	mov    -0x4(%rbp),%edx
    a18a:	48 8d 35 a9 1f 00 00 	lea    0x1fa9(%rip),%rsi        # c13a <g_260+0x10da>
    a191:	48 89 c7             	mov    %rax,%rdi
    a194:	e8 5a a5 ff ff       	callq  46f3 <transparent_crc>
    a199:	48 8b 05 c0 5b 00 00 	mov    0x5bc0(%rip),%rax        # fd60 <g_539>
    a1a0:	83 e0 03             	and    $0x3,%eax
    a1a3:	0f b6 c0             	movzbl %al,%eax
    a1a6:	8b 55 fc             	mov    -0x4(%rbp),%edx
    a1a9:	48 8d 35 90 1f 00 00 	lea    0x1f90(%rip),%rsi        # c140 <g_260+0x10e0>
    a1b0:	48 89 c7             	mov    %rax,%rdi
    a1b3:	e8 3b a5 ff ff       	callq  46f3 <transparent_crc>
    a1b8:	0f b7 05 a2 5b 00 00 	movzwl 0x5ba2(%rip),%eax        # fd61 <g_539+0x1>
    a1bf:	0f b7 c0             	movzwl %ax,%eax
    a1c2:	8b 55 fc             	mov    -0x4(%rbp),%edx
    a1c5:	48 8d 35 7d 1f 00 00 	lea    0x1f7d(%rip),%rsi        # c149 <g_260+0x10e9>
    a1cc:	48 89 c7             	mov    %rax,%rdi
    a1cf:	e8 1f a5 ff ff       	callq  46f3 <transparent_crc>
    a1d4:	8b 05 89 5b 00 00    	mov    0x5b89(%rip),%eax        # fd63 <g_539+0x3>
    a1da:	48 98                	cltq   
    a1dc:	8b 55 fc             	mov    -0x4(%rbp),%edx
    a1df:	48 8d 35 6c 1f 00 00 	lea    0x1f6c(%rip),%rsi        # c152 <g_260+0x10f2>
    a1e6:	48 89 c7             	mov    %rax,%rdi
    a1e9:	e8 05 a5 ff ff       	callq  46f3 <transparent_crc>
    a1ee:	8b 05 73 5b 00 00    	mov    0x5b73(%rip),%eax        # fd67 <g_539+0x7>
    a1f4:	48 98                	cltq   
    a1f6:	8b 55 fc             	mov    -0x4(%rbp),%edx
    a1f9:	48 8d 35 5b 1f 00 00 	lea    0x1f5b(%rip),%rsi        # c15b <g_260+0x10fb>
    a200:	48 89 c7             	mov    %rax,%rdi
    a203:	e8 eb a4 ff ff       	callq  46f3 <transparent_crc>
    a208:	48 8b 05 5c 5b 00 00 	mov    0x5b5c(%rip),%rax        # fd6b <g_539+0xb>
    a20f:	48 89 c1             	mov    %rax,%rcx
    a212:	8b 45 fc             	mov    -0x4(%rbp),%eax
    a215:	89 c2                	mov    %eax,%edx
    a217:	48 8d 35 46 1f 00 00 	lea    0x1f46(%rip),%rsi        # c164 <g_260+0x1104>
    a21e:	48 89 cf             	mov    %rcx,%rdi
    a221:	e8 cd a4 ff ff       	callq  46f3 <transparent_crc>
    a226:	c7 45 f0 00 00 00 00 	movl   $0x0,-0x10(%rbp)
    a22d:	e9 ed 00 00 00       	jmpq   a31f <main+0x1eec>
    a232:	8b 45 f0             	mov    -0x10(%rbp),%eax
    a235:	48 98                	cltq   
    a237:	48 8d 14 c5 00 00 00 	lea    0x0(,%rax,8),%rdx
    a23e:	00 
    a23f:	48 8d 05 3a 5b 00 00 	lea    0x5b3a(%rip),%rax        # fd80 <g_605>
    a246:	8b 04 02             	mov    (%rdx,%rax,1),%eax
    a249:	25 ff ff ff 3f       	and    $0x3fffffff,%eax
    a24e:	89 c1                	mov    %eax,%ecx
    a250:	8b 45 fc             	mov    -0x4(%rbp),%eax
    a253:	89 c2                	mov    %eax,%edx
    a255:	48 8d 35 11 1f 00 00 	lea    0x1f11(%rip),%rsi        # c16d <g_260+0x110d>
    a25c:	48 89 cf             	mov    %rcx,%rdi
    a25f:	e8 8f a4 ff ff       	callq  46f3 <transparent_crc>
    a264:	8b 45 f0             	mov    -0x10(%rbp),%eax
    a267:	48 98                	cltq   
    a269:	48 8d 14 c5 00 00 00 	lea    0x0(,%rax,8),%rdx
    a270:	00 
    a271:	48 8d 05 08 5b 00 00 	lea    0x5b08(%rip),%rax        # fd80 <g_605>
    a278:	8b 44 02 04          	mov    0x4(%rdx,%rax,1),%eax
    a27c:	25 ff ff 0f 00       	and    $0xfffff,%eax
    a281:	89 c1                	mov    %eax,%ecx
    a283:	8b 45 fc             	mov    -0x4(%rbp),%eax
    a286:	89 c2                	mov    %eax,%edx
    a288:	48 8d 35 ea 1e 00 00 	lea    0x1eea(%rip),%rsi        # c179 <g_260+0x1119>
    a28f:	48 89 cf             	mov    %rcx,%rdi
    a292:	e8 5c a4 ff ff       	callq  46f3 <transparent_crc>
    a297:	8b 45 f0             	mov    -0x10(%rbp),%eax
    a29a:	48 98                	cltq   
    a29c:	48 8d 14 c5 00 00 00 	lea    0x0(,%rax,8),%rdx
    a2a3:	00 
    a2a4:	48 8d 05 d5 5a 00 00 	lea    0x5ad5(%rip),%rax        # fd80 <g_605>
    a2ab:	0f b7 44 02 06       	movzwl 0x6(%rdx,%rax,1),%eax
    a2b0:	c1 e0 05             	shl    $0x5,%eax
    a2b3:	66 c1 f8 09          	sar    $0x9,%ax
    a2b7:	48 0f be c0          	movsbq %al,%rax
    a2bb:	8b 55 fc             	mov    -0x4(%rbp),%edx
    a2be:	48 8d 35 c0 1e 00 00 	lea    0x1ec0(%rip),%rsi        # c185 <g_260+0x1125>
    a2c5:	48 89 c7             	mov    %rax,%rdi
    a2c8:	e8 26 a4 ff ff       	callq  46f3 <transparent_crc>
    a2cd:	8b 45 f0             	mov    -0x10(%rbp),%eax
    a2d0:	48 98                	cltq   
    a2d2:	48 8d 14 c5 00 00 00 	lea    0x0(,%rax,8),%rdx
    a2d9:	00 
    a2da:	48 8d 05 9f 5a 00 00 	lea    0x5a9f(%rip),%rax        # fd80 <g_605>
    a2e1:	48 8b 04 02          	mov    (%rdx,%rax,1),%rax
    a2e5:	48 c1 f8 3b          	sar    $0x3b,%rax
    a2e9:	48 0f be c0          	movsbq %al,%rax
    a2ed:	8b 55 fc             	mov    -0x4(%rbp),%edx
    a2f0:	48 8d 35 9a 1e 00 00 	lea    0x1e9a(%rip),%rsi        # c191 <g_260+0x1131>
    a2f7:	48 89 c7             	mov    %rax,%rdi
    a2fa:	e8 f4 a3 ff ff       	callq  46f3 <transparent_crc>
    a2ff:	83 7d fc 00          	cmpl   $0x0,-0x4(%rbp)
    a303:	74 16                	je     a31b <main+0x1ee8>
    a305:	8b 45 f0             	mov    -0x10(%rbp),%eax
    a308:	89 c6                	mov    %eax,%esi
    a30a:	48 8d 3d e3 17 00 00 	lea    0x17e3(%rip),%rdi        # baf4 <g_260+0xa94>
    a311:	b8 00 00 00 00       	mov    $0x0,%eax
    a316:	e8 65 8d ff ff       	callq  3080 <printf@plt>
    a31b:	83 45 f0 01          	addl   $0x1,-0x10(%rbp)
    a31f:	83 7d f0 02          	cmpl   $0x2,-0x10(%rbp)
    a323:	0f 8e 09 ff ff ff    	jle    a232 <main+0x1dff>
    a329:	c7 45 f0 00 00 00 00 	movl   $0x0,-0x10(%rbp)
    a330:	e9 76 01 00 00       	jmpq   a4ab <main+0x2078>
    a335:	c7 45 f4 00 00 00 00 	movl   $0x0,-0xc(%rbp)
    a33c:	e9 5c 01 00 00       	jmpq   a49d <main+0x206a>
    a341:	c7 45 f8 00 00 00 00 	movl   $0x0,-0x8(%rbp)
    a348:	e9 42 01 00 00       	jmpq   a48f <main+0x205c>
    a34d:	8b 45 f8             	mov    -0x8(%rbp),%eax
    a350:	48 63 d0             	movslq %eax,%rdx
    a353:	8b 45 f4             	mov    -0xc(%rbp),%eax
    a356:	48 98                	cltq   
    a358:	48 01 d0             	add    %rdx,%rax
    a35b:	8b 55 f0             	mov    -0x10(%rbp),%edx
    a35e:	48 63 ca             	movslq %edx,%rcx
    a361:	48 89 c2             	mov    %rax,%rdx
    a364:	48 01 d2             	add    %rdx,%rdx
    a367:	48 01 c2             	add    %rax,%rdx
    a36a:	48 8d 04 95 00 00 00 	lea    0x0(,%rdx,4),%rax
    a371:	00 
    a372:	48 89 c2             	mov    %rax,%rdx
    a375:	48 89 c8             	mov    %rcx,%rax
    a378:	48 01 c0             	add    %rax,%rax
    a37b:	48 01 c8             	add    %rcx,%rax
    a37e:	48 c1 e0 05          	shl    $0x5,%rax
    a382:	48 01 c2             	add    %rax,%rdx
    a385:	48 8d 05 14 5a 00 00 	lea    0x5a14(%rip),%rax        # fda0 <g_607>
    a38c:	48 01 d0             	add    %rdx,%rax
    a38f:	8b 00                	mov    (%rax),%eax
    a391:	c1 e0 0c             	shl    $0xc,%eax
    a394:	c1 f8 0c             	sar    $0xc,%eax
    a397:	48 98                	cltq   
    a399:	8b 55 fc             	mov    -0x4(%rbp),%edx
    a39c:	48 8d 35 fa 1d 00 00 	lea    0x1dfa(%rip),%rsi        # c19d <g_260+0x113d>
    a3a3:	48 89 c7             	mov    %rax,%rdi
    a3a6:	e8 48 a3 ff ff       	callq  46f3 <transparent_crc>
    a3ab:	8b 45 f8             	mov    -0x8(%rbp),%eax
    a3ae:	48 63 d0             	movslq %eax,%rdx
    a3b1:	8b 45 f4             	mov    -0xc(%rbp),%eax
    a3b4:	48 98                	cltq   
    a3b6:	48 01 d0             	add    %rdx,%rax
    a3b9:	8b 55 f0             	mov    -0x10(%rbp),%edx
    a3bc:	48 63 ca             	movslq %edx,%rcx
    a3bf:	48 89 c2             	mov    %rax,%rdx
    a3c2:	48 01 d2             	add    %rdx,%rdx
    a3c5:	48 01 c2             	add    %rax,%rdx
    a3c8:	48 8d 04 95 00 00 00 	lea    0x0(,%rdx,4),%rax
    a3cf:	00 
    a3d0:	48 89 c2             	mov    %rax,%rdx
    a3d3:	48 89 c8             	mov    %rcx,%rax
    a3d6:	48 01 c0             	add    %rax,%rax
    a3d9:	48 01 c8             	add    %rcx,%rax
    a3dc:	48 c1 e0 05          	shl    $0x5,%rax
    a3e0:	48 01 c2             	add    %rax,%rdx
    a3e3:	48 8d 05 b6 59 00 00 	lea    0x59b6(%rip),%rax        # fda0 <g_607>
    a3ea:	48 01 d0             	add    %rdx,%rax
    a3ed:	8b 40 04             	mov    0x4(%rax),%eax
    a3f0:	c1 e0 05             	shl    $0x5,%eax
    a3f3:	c1 f8 05             	sar    $0x5,%eax
    a3f6:	48 98                	cltq   
    a3f8:	8b 55 fc             	mov    -0x4(%rbp),%edx
    a3fb:	48 8d 35 ad 1d 00 00 	lea    0x1dad(%rip),%rsi        # c1af <g_260+0x114f>
    a402:	48 89 c7             	mov    %rax,%rdi
    a405:	e8 e9 a2 ff ff       	callq  46f3 <transparent_crc>
    a40a:	8b 45 f8             	mov    -0x8(%rbp),%eax
    a40d:	48 63 d0             	movslq %eax,%rdx
    a410:	8b 45 f4             	mov    -0xc(%rbp),%eax
    a413:	48 98                	cltq   
    a415:	48 01 d0             	add    %rdx,%rax
    a418:	8b 55 f0             	mov    -0x10(%rbp),%edx
    a41b:	48 63 ca             	movslq %edx,%rcx
    a41e:	48 89 c2             	mov    %rax,%rdx
    a421:	48 01 d2             	add    %rdx,%rdx
    a424:	48 01 c2             	add    %rax,%rdx
    a427:	48 8d 04 95 00 00 00 	lea    0x0(,%rdx,4),%rax
    a42e:	00 
    a42f:	48 89 c2             	mov    %rax,%rdx
    a432:	48 89 c8             	mov    %rcx,%rax
    a435:	48 01 c0             	add    %rax,%rax
    a438:	48 01 c8             	add    %rcx,%rax
    a43b:	48 c1 e0 05          	shl    $0x5,%rax
    a43f:	48 01 c2             	add    %rax,%rdx
    a442:	48 8d 05 57 59 00 00 	lea    0x5957(%rip),%rax        # fda0 <g_607>
    a449:	48 01 d0             	add    %rdx,%rax
    a44c:	8b 40 08             	mov    0x8(%rax),%eax
    a44f:	c1 e0 0e             	shl    $0xe,%eax
    a452:	c1 f8 0e             	sar    $0xe,%eax
    a455:	48 98                	cltq   
    a457:	8b 55 fc             	mov    -0x4(%rbp),%edx
    a45a:	48 8d 35 60 1d 00 00 	lea    0x1d60(%rip),%rsi        # c1c1 <g_260+0x1161>
    a461:	48 89 c7             	mov    %rax,%rdi
    a464:	e8 8a a2 ff ff       	callq  46f3 <transparent_crc>
    a469:	83 7d fc 00          	cmpl   $0x0,-0x4(%rbp)
    a46d:	74 1c                	je     a48b <main+0x2058>
    a46f:	8b 4d f8             	mov    -0x8(%rbp),%ecx
    a472:	8b 55 f4             	mov    -0xc(%rbp),%edx
    a475:	8b 45 f0             	mov    -0x10(%rbp),%eax
    a478:	89 c6                	mov    %eax,%esi
    a47a:	48 8d 3d 83 18 00 00 	lea    0x1883(%rip),%rdi        # bd04 <g_260+0xca4>
    a481:	b8 00 00 00 00       	mov    $0x0,%eax
    a486:	e8 f5 8b ff ff       	callq  3080 <printf@plt>
    a48b:	83 45 f8 01          	addl   $0x1,-0x8(%rbp)
    a48f:	83 7d f8 00          	cmpl   $0x0,-0x8(%rbp)
    a493:	0f 8e b4 fe ff ff    	jle    a34d <main+0x1f1a>
    a499:	83 45 f4 01          	addl   $0x1,-0xc(%rbp)
    a49d:	83 7d f4 07          	cmpl   $0x7,-0xc(%rbp)
    a4a1:	0f 8e 9a fe ff ff    	jle    a341 <main+0x1f0e>
    a4a7:	83 45 f0 01          	addl   $0x1,-0x10(%rbp)
    a4ab:	83 7d f0 00          	cmpl   $0x0,-0x10(%rbp)
    a4af:	0f 8e 80 fe ff ff    	jle    a335 <main+0x1f02>
    a4b5:	c7 45 f0 00 00 00 00 	movl   $0x0,-0x10(%rbp)
    a4bc:	e9 d0 00 00 00       	jmpq   a591 <main+0x215e>
    a4c1:	8b 45 f0             	mov    -0x10(%rbp),%eax
    a4c4:	48 63 d0             	movslq %eax,%rdx
    a4c7:	48 89 d0             	mov    %rdx,%rax
    a4ca:	48 01 c0             	add    %rax,%rax
    a4cd:	48 01 d0             	add    %rdx,%rax
    a4d0:	48 c1 e0 02          	shl    $0x2,%rax
    a4d4:	48 89 c2             	mov    %rax,%rdx
    a4d7:	48 8d 05 22 59 00 00 	lea    0x5922(%rip),%rax        # fe00 <g_609>
    a4de:	8b 04 02             	mov    (%rdx,%rax,1),%eax
    a4e1:	c1 e0 0c             	shl    $0xc,%eax
    a4e4:	c1 f8 0c             	sar    $0xc,%eax
    a4e7:	48 98                	cltq   
    a4e9:	8b 55 fc             	mov    -0x4(%rbp),%edx
    a4ec:	48 8d 35 e0 1c 00 00 	lea    0x1ce0(%rip),%rsi        # c1d3 <g_260+0x1173>
    a4f3:	48 89 c7             	mov    %rax,%rdi
    a4f6:	e8 f8 a1 ff ff       	callq  46f3 <transparent_crc>
    a4fb:	8b 45 f0             	mov    -0x10(%rbp),%eax
    a4fe:	48 63 d0             	movslq %eax,%rdx
    a501:	48 89 d0             	mov    %rdx,%rax
    a504:	48 01 c0             	add    %rax,%rax
    a507:	48 01 d0             	add    %rdx,%rax
    a50a:	48 c1 e0 02          	shl    $0x2,%rax
    a50e:	48 89 c2             	mov    %rax,%rdx
    a511:	48 8d 05 e8 58 00 00 	lea    0x58e8(%rip),%rax        # fe00 <g_609>
    a518:	8b 44 02 04          	mov    0x4(%rdx,%rax,1),%eax
    a51c:	c1 e0 05             	shl    $0x5,%eax
    a51f:	c1 f8 05             	sar    $0x5,%eax
    a522:	48 98                	cltq   
    a524:	8b 55 fc             	mov    -0x4(%rbp),%edx
    a527:	48 8d 35 b1 1c 00 00 	lea    0x1cb1(%rip),%rsi        # c1df <g_260+0x117f>
    a52e:	48 89 c7             	mov    %rax,%rdi
    a531:	e8 bd a1 ff ff       	callq  46f3 <transparent_crc>
    a536:	8b 45 f0             	mov    -0x10(%rbp),%eax
    a539:	48 63 d0             	movslq %eax,%rdx
    a53c:	48 89 d0             	mov    %rdx,%rax
    a53f:	48 01 c0             	add    %rax,%rax
    a542:	48 01 d0             	add    %rdx,%rax
    a545:	48 c1 e0 02          	shl    $0x2,%rax
    a549:	48 89 c2             	mov    %rax,%rdx
    a54c:	48 8d 05 ad 58 00 00 	lea    0x58ad(%rip),%rax        # fe00 <g_609>
    a553:	8b 44 02 08          	mov    0x8(%rdx,%rax,1),%eax
    a557:	c1 e0 0e             	shl    $0xe,%eax
    a55a:	c1 f8 0e             	sar    $0xe,%eax
    a55d:	48 98                	cltq   
    a55f:	8b 55 fc             	mov    -0x4(%rbp),%edx
    a562:	48 8d 35 82 1c 00 00 	lea    0x1c82(%rip),%rsi        # c1eb <g_260+0x118b>
    a569:	48 89 c7             	mov    %rax,%rdi
    a56c:	e8 82 a1 ff ff       	callq  46f3 <transparent_crc>
    a571:	83 7d fc 00          	cmpl   $0x0,-0x4(%rbp)
    a575:	74 16                	je     a58d <main+0x215a>
    a577:	8b 45 f0             	mov    -0x10(%rbp),%eax
    a57a:	89 c6                	mov    %eax,%esi
    a57c:	48 8d 3d 71 15 00 00 	lea    0x1571(%rip),%rdi        # baf4 <g_260+0xa94>
    a583:	b8 00 00 00 00       	mov    $0x0,%eax
    a588:	e8 f3 8a ff ff       	callq  3080 <printf@plt>
    a58d:	83 45 f0 01          	addl   $0x1,-0x10(%rbp)
    a591:	83 7d f0 00          	cmpl   $0x0,-0x10(%rbp)
    a595:	0f 8e 26 ff ff ff    	jle    a4c1 <main+0x208e>
    a59b:	c7 45 f0 00 00 00 00 	movl   $0x0,-0x10(%rbp)
    a5a2:	e9 53 02 00 00       	jmpq   a7fa <main+0x23c7>
    a5a7:	c7 45 f4 00 00 00 00 	movl   $0x0,-0xc(%rbp)
    a5ae:	e9 39 02 00 00       	jmpq   a7ec <main+0x23b9>
    a5b3:	c7 45 f8 00 00 00 00 	movl   $0x0,-0x8(%rbp)
    a5ba:	e9 1f 02 00 00       	jmpq   a7de <main+0x23ab>
    a5bf:	8b 45 f8             	mov    -0x8(%rbp),%eax
    a5c2:	48 98                	cltq   
    a5c4:	8b 55 f4             	mov    -0xc(%rbp),%edx
    a5c7:	48 63 ca             	movslq %edx,%rcx
    a5ca:	8b 55 f0             	mov    -0x10(%rbp),%edx
    a5cd:	48 63 f2             	movslq %edx,%rsi
    a5d0:	48 89 c2             	mov    %rax,%rdx
    a5d3:	48 c1 e2 03          	shl    $0x3,%rdx
    a5d7:	48 01 c2             	add    %rax,%rdx
    a5da:	48 01 d2             	add    %rdx,%rdx
    a5dd:	48 01 c2             	add    %rax,%rdx
    a5e0:	48 89 c8             	mov    %rcx,%rax
    a5e3:	48 c1 e0 03          	shl    $0x3,%rax
    a5e7:	48 01 c8             	add    %rcx,%rax
    a5ea:	48 01 c0             	add    %rax,%rax
    a5ed:	48 01 c8             	add    %rcx,%rax
    a5f0:	48 c1 e0 02          	shl    $0x2,%rax
    a5f4:	48 01 c2             	add    %rax,%rdx
    a5f7:	48 69 c6 ac 02 00 00 	imul   $0x2ac,%rsi,%rax
    a5fe:	48 01 c2             	add    %rax,%rdx
    a601:	48 8d 05 18 58 00 00 	lea    0x5818(%rip),%rax        # fe20 <g_779>
    a608:	48 01 d0             	add    %rdx,%rax
    a60b:	0f b6 00             	movzbl (%rax),%eax
    a60e:	83 e0 03             	and    $0x3,%eax
    a611:	0f b6 c0             	movzbl %al,%eax
    a614:	8b 55 fc             	mov    -0x4(%rbp),%edx
    a617:	48 8d 35 d9 1b 00 00 	lea    0x1bd9(%rip),%rsi        # c1f7 <g_260+0x1197>
    a61e:	48 89 c7             	mov    %rax,%rdi
    a621:	e8 cd a0 ff ff       	callq  46f3 <transparent_crc>
    a626:	8b 45 f8             	mov    -0x8(%rbp),%eax
    a629:	48 98                	cltq   
    a62b:	8b 55 f4             	mov    -0xc(%rbp),%edx
    a62e:	48 63 ca             	movslq %edx,%rcx
    a631:	8b 55 f0             	mov    -0x10(%rbp),%edx
    a634:	48 63 f2             	movslq %edx,%rsi
    a637:	48 89 c2             	mov    %rax,%rdx
    a63a:	48 c1 e2 03          	shl    $0x3,%rdx
    a63e:	48 01 c2             	add    %rax,%rdx
    a641:	48 01 d2             	add    %rdx,%rdx
    a644:	48 01 c2             	add    %rax,%rdx
    a647:	48 89 c8             	mov    %rcx,%rax
    a64a:	48 c1 e0 03          	shl    $0x3,%rax
    a64e:	48 01 c8             	add    %rcx,%rax
    a651:	48 01 c0             	add    %rax,%rax
    a654:	48 01 c8             	add    %rcx,%rax
    a657:	48 c1 e0 02          	shl    $0x2,%rax
    a65b:	48 01 c2             	add    %rax,%rdx
    a65e:	48 69 c6 ac 02 00 00 	imul   $0x2ac,%rsi,%rax
    a665:	48 01 c2             	add    %rax,%rdx
    a668:	48 8d 05 b1 57 00 00 	lea    0x57b1(%rip),%rax        # fe20 <g_779>
    a66f:	48 01 d0             	add    %rdx,%rax
    a672:	0f b7 40 01          	movzwl 0x1(%rax),%eax
    a676:	0f b7 c0             	movzwl %ax,%eax
    a679:	8b 55 fc             	mov    -0x4(%rbp),%edx
    a67c:	48 8d 35 86 1b 00 00 	lea    0x1b86(%rip),%rsi        # c209 <g_260+0x11a9>
    a683:	48 89 c7             	mov    %rax,%rdi
    a686:	e8 68 a0 ff ff       	callq  46f3 <transparent_crc>
    a68b:	8b 45 f8             	mov    -0x8(%rbp),%eax
    a68e:	48 98                	cltq   
    a690:	8b 55 f4             	mov    -0xc(%rbp),%edx
    a693:	48 63 ca             	movslq %edx,%rcx
    a696:	8b 55 f0             	mov    -0x10(%rbp),%edx
    a699:	48 63 f2             	movslq %edx,%rsi
    a69c:	48 89 c2             	mov    %rax,%rdx
    a69f:	48 c1 e2 03          	shl    $0x3,%rdx
    a6a3:	48 01 c2             	add    %rax,%rdx
    a6a6:	48 01 d2             	add    %rdx,%rdx
    a6a9:	48 01 c2             	add    %rax,%rdx
    a6ac:	48 89 c8             	mov    %rcx,%rax
    a6af:	48 c1 e0 03          	shl    $0x3,%rax
    a6b3:	48 01 c8             	add    %rcx,%rax
    a6b6:	48 01 c0             	add    %rax,%rax
    a6b9:	48 01 c8             	add    %rcx,%rax
    a6bc:	48 c1 e0 02          	shl    $0x2,%rax
    a6c0:	48 01 c2             	add    %rax,%rdx
    a6c3:	48 69 c6 ac 02 00 00 	imul   $0x2ac,%rsi,%rax
    a6ca:	48 01 c2             	add    %rax,%rdx
    a6cd:	48 8d 05 4c 57 00 00 	lea    0x574c(%rip),%rax        # fe20 <g_779>
    a6d4:	48 01 d0             	add    %rdx,%rax
    a6d7:	8b 40 03             	mov    0x3(%rax),%eax
    a6da:	48 98                	cltq   
    a6dc:	8b 55 fc             	mov    -0x4(%rbp),%edx
    a6df:	48 8d 35 35 1b 00 00 	lea    0x1b35(%rip),%rsi        # c21b <g_260+0x11bb>
    a6e6:	48 89 c7             	mov    %rax,%rdi
    a6e9:	e8 05 a0 ff ff       	callq  46f3 <transparent_crc>
    a6ee:	8b 45 f8             	mov    -0x8(%rbp),%eax
    a6f1:	48 98                	cltq   
    a6f3:	8b 55 f4             	mov    -0xc(%rbp),%edx
    a6f6:	48 63 ca             	movslq %edx,%rcx
    a6f9:	8b 55 f0             	mov    -0x10(%rbp),%edx
    a6fc:	48 63 f2             	movslq %edx,%rsi
    a6ff:	48 89 c2             	mov    %rax,%rdx
    a702:	48 c1 e2 03          	shl    $0x3,%rdx
    a706:	48 01 c2             	add    %rax,%rdx
    a709:	48 01 d2             	add    %rdx,%rdx
    a70c:	48 01 c2             	add    %rax,%rdx
    a70f:	48 89 c8             	mov    %rcx,%rax
    a712:	48 c1 e0 03          	shl    $0x3,%rax
    a716:	48 01 c8             	add    %rcx,%rax
    a719:	48 01 c0             	add    %rax,%rax
    a71c:	48 01 c8             	add    %rcx,%rax
    a71f:	48 c1 e0 02          	shl    $0x2,%rax
    a723:	48 01 c2             	add    %rax,%rdx
    a726:	48 69 c6 ac 02 00 00 	imul   $0x2ac,%rsi,%rax
    a72d:	48 01 c2             	add    %rax,%rdx
    a730:	48 8d 05 e9 56 00 00 	lea    0x56e9(%rip),%rax        # fe20 <g_779>
    a737:	48 01 d0             	add    %rdx,%rax
    a73a:	8b 40 07             	mov    0x7(%rax),%eax
    a73d:	48 98                	cltq   
    a73f:	8b 55 fc             	mov    -0x4(%rbp),%edx
    a742:	48 8d 35 e4 1a 00 00 	lea    0x1ae4(%rip),%rsi        # c22d <g_260+0x11cd>
    a749:	48 89 c7             	mov    %rax,%rdi
    a74c:	e8 a2 9f ff ff       	callq  46f3 <transparent_crc>
    a751:	8b 45 f8             	mov    -0x8(%rbp),%eax
    a754:	48 98                	cltq   
    a756:	8b 55 f4             	mov    -0xc(%rbp),%edx
    a759:	48 63 ca             	movslq %edx,%rcx
    a75c:	8b 55 f0             	mov    -0x10(%rbp),%edx
    a75f:	48 63 f2             	movslq %edx,%rsi
    a762:	48 89 c2             	mov    %rax,%rdx
    a765:	48 c1 e2 03          	shl    $0x3,%rdx
    a769:	48 01 c2             	add    %rax,%rdx
    a76c:	48 01 d2             	add    %rdx,%rdx
    a76f:	48 01 c2             	add    %rax,%rdx
    a772:	48 89 c8             	mov    %rcx,%rax
    a775:	48 c1 e0 03          	shl    $0x3,%rax
    a779:	48 01 c8             	add    %rcx,%rax
    a77c:	48 01 c0             	add    %rax,%rax
    a77f:	48 01 c8             	add    %rcx,%rax
    a782:	48 c1 e0 02          	shl    $0x2,%rax
    a786:	48 01 c2             	add    %rax,%rdx
    a789:	48 69 c6 ac 02 00 00 	imul   $0x2ac,%rsi,%rax
    a790:	48 01 c2             	add    %rax,%rdx
    a793:	48 8d 05 86 56 00 00 	lea    0x5686(%rip),%rax        # fe20 <g_779>
    a79a:	48 01 d0             	add    %rdx,%rax
    a79d:	48 8b 40 0b          	mov    0xb(%rax),%rax
    a7a1:	48 89 c1             	mov    %rax,%rcx
    a7a4:	8b 45 fc             	mov    -0x4(%rbp),%eax
    a7a7:	89 c2                	mov    %eax,%edx
    a7a9:	48 8d 35 8f 1a 00 00 	lea    0x1a8f(%rip),%rsi        # c23f <g_260+0x11df>
    a7b0:	48 89 cf             	mov    %rcx,%rdi
    a7b3:	e8 3b 9f ff ff       	callq  46f3 <transparent_crc>
    a7b8:	83 7d fc 00          	cmpl   $0x0,-0x4(%rbp)
    a7bc:	74 1c                	je     a7da <main+0x23a7>
    a7be:	8b 4d f8             	mov    -0x8(%rbp),%ecx
    a7c1:	8b 55 f4             	mov    -0xc(%rbp),%edx
    a7c4:	8b 45 f0             	mov    -0x10(%rbp),%eax
    a7c7:	89 c6                	mov    %eax,%esi
    a7c9:	48 8d 3d 34 15 00 00 	lea    0x1534(%rip),%rdi        # bd04 <g_260+0xca4>
    a7d0:	b8 00 00 00 00       	mov    $0x0,%eax
    a7d5:	e8 a6 88 ff ff       	callq  3080 <printf@plt>
    a7da:	83 45 f8 01          	addl   $0x1,-0x8(%rbp)
    a7de:	83 7d f8 03          	cmpl   $0x3,-0x8(%rbp)
    a7e2:	0f 8e d7 fd ff ff    	jle    a5bf <main+0x218c>
    a7e8:	83 45 f4 01          	addl   $0x1,-0xc(%rbp)
    a7ec:	83 7d f4 08          	cmpl   $0x8,-0xc(%rbp)
    a7f0:	0f 8e bd fd ff ff    	jle    a5b3 <main+0x2180>
    a7f6:	83 45 f0 01          	addl   $0x1,-0x10(%rbp)
    a7fa:	83 7d f0 06          	cmpl   $0x6,-0x10(%rbp)
    a7fe:	0f 8e a3 fd ff ff    	jle    a5a7 <main+0x2174>
    a804:	c7 45 f0 00 00 00 00 	movl   $0x0,-0x10(%rbp)
    a80b:	e9 5f 01 00 00       	jmpq   a96f <main+0x253c>
    a810:	c7 45 f4 00 00 00 00 	movl   $0x0,-0xc(%rbp)
    a817:	e9 45 01 00 00       	jmpq   a961 <main+0x252e>
    a81c:	8b 45 f4             	mov    -0xc(%rbp),%eax
    a81f:	48 63 c8             	movslq %eax,%rcx
    a822:	8b 45 f0             	mov    -0x10(%rbp),%eax
    a825:	48 63 d0             	movslq %eax,%rdx
    a828:	48 89 d0             	mov    %rdx,%rax
    a82b:	48 c1 e0 03          	shl    $0x3,%rax
    a82f:	48 01 d0             	add    %rdx,%rax
    a832:	48 01 c8             	add    %rcx,%rax
    a835:	48 8d 14 c5 00 00 00 	lea    0x0(,%rax,8),%rdx
    a83c:	00 
    a83d:	48 8d 05 9c 68 00 00 	lea    0x689c(%rip),%rax        # 110e0 <g_793>
    a844:	48 8b 04 02          	mov    (%rdx,%rax,1),%rax
    a848:	25 ff ff ff 3f       	and    $0x3fffffff,%eax
    a84d:	89 c1                	mov    %eax,%ecx
    a84f:	8b 45 fc             	mov    -0x4(%rbp),%eax
    a852:	89 c2                	mov    %eax,%edx
    a854:	48 8d 35 f6 19 00 00 	lea    0x19f6(%rip),%rsi        # c251 <g_260+0x11f1>
    a85b:	48 89 cf             	mov    %rcx,%rdi
    a85e:	e8 90 9e ff ff       	callq  46f3 <transparent_crc>
    a863:	8b 45 f4             	mov    -0xc(%rbp),%eax
    a866:	48 63 c8             	movslq %eax,%rcx
    a869:	8b 45 f0             	mov    -0x10(%rbp),%eax
    a86c:	48 63 d0             	movslq %eax,%rdx
    a86f:	48 89 d0             	mov    %rdx,%rax
    a872:	48 c1 e0 03          	shl    $0x3,%rax
    a876:	48 01 d0             	add    %rdx,%rax
    a879:	48 01 c8             	add    %rcx,%rax
    a87c:	48 8d 14 c5 00 00 00 	lea    0x0(,%rax,8),%rdx
    a883:	00 
    a884:	48 8d 05 55 68 00 00 	lea    0x6855(%rip),%rax        # 110e0 <g_793>
    a88b:	48 8b 04 02          	mov    (%rdx,%rax,1),%rax
    a88f:	48 c1 e8 20          	shr    $0x20,%rax
    a893:	25 ff ff 0f 00       	and    $0xfffff,%eax
    a898:	89 c1                	mov    %eax,%ecx
    a89a:	8b 45 fc             	mov    -0x4(%rbp),%eax
    a89d:	89 c2                	mov    %eax,%edx
    a89f:	48 8d 35 ba 19 00 00 	lea    0x19ba(%rip),%rsi        # c260 <g_260+0x1200>
    a8a6:	48 89 cf             	mov    %rcx,%rdi
    a8a9:	e8 45 9e ff ff       	callq  46f3 <transparent_crc>
    a8ae:	8b 45 f4             	mov    -0xc(%rbp),%eax
    a8b1:	48 63 c8             	movslq %eax,%rcx
    a8b4:	8b 45 f0             	mov    -0x10(%rbp),%eax
    a8b7:	48 63 d0             	movslq %eax,%rdx
    a8ba:	48 89 d0             	mov    %rdx,%rax
    a8bd:	48 c1 e0 03          	shl    $0x3,%rax
    a8c1:	48 01 d0             	add    %rdx,%rax
    a8c4:	48 01 c8             	add    %rcx,%rax
    a8c7:	48 8d 14 c5 00 00 00 	lea    0x0(,%rax,8),%rdx
    a8ce:	00 
    a8cf:	48 8d 05 0a 68 00 00 	lea    0x680a(%rip),%rax        # 110e0 <g_793>
    a8d6:	48 8b 04 02          	mov    (%rdx,%rax,1),%rax
    a8da:	48 c1 e0 05          	shl    $0x5,%rax
    a8de:	48 c1 f8 39          	sar    $0x39,%rax
    a8e2:	48 0f be c0          	movsbq %al,%rax
    a8e6:	8b 55 fc             	mov    -0x4(%rbp),%edx
    a8e9:	48 8d 35 7f 19 00 00 	lea    0x197f(%rip),%rsi        # c26f <g_260+0x120f>
    a8f0:	48 89 c7             	mov    %rax,%rdi
    a8f3:	e8 fb 9d ff ff       	callq  46f3 <transparent_crc>
    a8f8:	8b 45 f4             	mov    -0xc(%rbp),%eax
    a8fb:	48 63 c8             	movslq %eax,%rcx
    a8fe:	8b 45 f0             	mov    -0x10(%rbp),%eax
    a901:	48 63 d0             	movslq %eax,%rdx
    a904:	48 89 d0             	mov    %rdx,%rax
    a907:	48 c1 e0 03          	shl    $0x3,%rax
    a90b:	48 01 d0             	add    %rdx,%rax
    a90e:	48 01 c8             	add    %rcx,%rax
    a911:	48 8d 14 c5 00 00 00 	lea    0x0(,%rax,8),%rdx
    a918:	00 
    a919:	48 8d 05 c0 67 00 00 	lea    0x67c0(%rip),%rax        # 110e0 <g_793>
    a920:	48 8b 04 02          	mov    (%rdx,%rax,1),%rax
    a924:	48 c1 f8 3b          	sar    $0x3b,%rax
    a928:	48 0f be c0          	movsbq %al,%rax
    a92c:	8b 55 fc             	mov    -0x4(%rbp),%edx
    a92f:	48 8d 35 48 19 00 00 	lea    0x1948(%rip),%rsi        # c27e <g_260+0x121e>
    a936:	48 89 c7             	mov    %rax,%rdi
    a939:	e8 b5 9d ff ff       	callq  46f3 <transparent_crc>
    a93e:	83 7d fc 00          	cmpl   $0x0,-0x4(%rbp)
    a942:	74 19                	je     a95d <main+0x252a>
    a944:	8b 55 f4             	mov    -0xc(%rbp),%edx
    a947:	8b 45 f0             	mov    -0x10(%rbp),%eax
    a94a:	89 c6                	mov    %eax,%esi
    a94c:	48 8d 3d 29 12 00 00 	lea    0x1229(%rip),%rdi        # bb7c <g_260+0xb1c>
    a953:	b8 00 00 00 00       	mov    $0x0,%eax
    a958:	e8 23 87 ff ff       	callq  3080 <printf@plt>
    a95d:	83 45 f4 01          	addl   $0x1,-0xc(%rbp)
    a961:	83 7d f4 08          	cmpl   $0x8,-0xc(%rbp)
    a965:	0f 8e b1 fe ff ff    	jle    a81c <main+0x23e9>
    a96b:	83 45 f0 01          	addl   $0x1,-0x10(%rbp)
    a96f:	83 7d f0 02          	cmpl   $0x2,-0x10(%rbp)
    a973:	0f 8e 97 fe ff ff    	jle    a810 <main+0x23dd>
    a979:	8b 05 a1 46 00 00    	mov    0x46a1(%rip),%eax        # f020 <crc32_context>
    a97f:	f7 d0                	not    %eax
    a981:	89 c2                	mov    %eax,%edx
    a983:	8b 45 fc             	mov    -0x4(%rbp),%eax
    a986:	89 c6                	mov    %eax,%esi
    a988:	89 d7                	mov    %edx,%edi
    a98a:	e8 05 88 ff ff       	callq  3194 <platform_main_end>
    a98f:	b8 00 00 00 00       	mov    $0x0,%eax
    a994:	c9                   	leaveq 
    a995:	c3                   	retq   
    a996:	66 2e 0f 1f 84 00 00 	nopw   %cs:0x0(%rax,%rax,1)
    a99d:	00 00 00 

000000000000a9a0 <__libc_csu_init>:
    a9a0:	f3 0f 1e fa          	endbr64 
    a9a4:	41 57                	push   %r15
    a9a6:	4c 8d 3d f3 43 00 00 	lea    0x43f3(%rip),%r15        # eda0 <__frame_dummy_init_array_entry>
    a9ad:	41 56                	push   %r14
    a9af:	49 89 d6             	mov    %rdx,%r14
    a9b2:	41 55                	push   %r13
    a9b4:	49 89 f5             	mov    %rsi,%r13
    a9b7:	41 54                	push   %r12
    a9b9:	41 89 fc             	mov    %edi,%r12d
    a9bc:	55                   	push   %rbp
    a9bd:	48 8d 2d e4 43 00 00 	lea    0x43e4(%rip),%rbp        # eda8 <__do_global_dtors_aux_fini_array_entry>
    a9c4:	53                   	push   %rbx
    a9c5:	4c 29 fd             	sub    %r15,%rbp
    a9c8:	48 83 ec 08          	sub    $0x8,%rsp
    a9cc:	e8 2f 86 ff ff       	callq  3000 <_init>
    a9d1:	48 c1 fd 03          	sar    $0x3,%rbp
    a9d5:	74 1f                	je     a9f6 <__libc_csu_init+0x56>
    a9d7:	31 db                	xor    %ebx,%ebx
    a9d9:	0f 1f 80 00 00 00 00 	nopl   0x0(%rax)
    a9e0:	4c 89 f2             	mov    %r14,%rdx
    a9e3:	4c 89 ee             	mov    %r13,%rsi
    a9e6:	44 89 e7             	mov    %r12d,%edi
    a9e9:	41 ff 14 df          	callq  *(%r15,%rbx,8)
    a9ed:	48 83 c3 01          	add    $0x1,%rbx
    a9f1:	48 39 dd             	cmp    %rbx,%rbp
    a9f4:	75 ea                	jne    a9e0 <__libc_csu_init+0x40>
    a9f6:	48 83 c4 08          	add    $0x8,%rsp
    a9fa:	5b                   	pop    %rbx
    a9fb:	5d                   	pop    %rbp
    a9fc:	41 5c                	pop    %r12
    a9fe:	41 5d                	pop    %r13
    aa00:	41 5e                	pop    %r14
    aa02:	41 5f                	pop    %r15
    aa04:	c3                   	retq   
    aa05:	66 66 2e 0f 1f 84 00 	data16 nopw %cs:0x0(%rax,%rax,1)
    aa0c:	00 00 00 00 

000000000000aa10 <__libc_csu_fini>:
    aa10:	f3 0f 1e fa          	endbr64 
    aa14:	c3                   	retq   
