


Disassembly of section .text:

00000000000040a0 <_start>:
    40a0:	f3 0f 1e fa          	endbr64 
    40a4:	31 ed                	xor    %ebp,%ebp
    40a6:	49 89 d1             	mov    %rdx,%r9
    40a9:	5e                   	pop    %rsi
    40aa:	48 89 e2             	mov    %rsp,%rdx
    40ad:	48 83 e4 f0          	and    $0xfffffffffffffff0,%rsp
    40b1:	50                   	push   %rax
    40b2:	54                   	push   %rsp
    40b3:	4c 8d 05 d6 a9 00 00 	lea    0xa9d6(%rip),%r8        # ea90 <__libc_csu_fini>
    40ba:	48 8d 0d 5f a9 00 00 	lea    0xa95f(%rip),%rcx        # ea20 <__libc_csu_init>
    40c1:	48 8d 3d 5a 6c 00 00 	lea    0x6c5a(%rip),%rdi        # ad22 <main>
    40c8:	ff 15 0a ff 00 00    	callq  *0xff0a(%rip)        # 13fd8 <__libc_start_main@GLIBC_2.2.5>
    40ce:	f4                   	hlt    
    40cf:	90                   	nop

00000000000040d0 <deregister_tm_clones>:
    40d0:	48 8d 3d 91 3d 01 00 	lea    0x13d91(%rip),%rdi        # 17e68 <__TMC_END__>
    40d7:	48 8d 05 8a 3d 01 00 	lea    0x13d8a(%rip),%rax        # 17e68 <__TMC_END__>
    40de:	48 39 f8             	cmp    %rdi,%rax
    40e1:	74 15                	je     40f8 <deregister_tm_clones+0x28>
    40e3:	48 8b 05 e6 fe 00 00 	mov    0xfee6(%rip),%rax        # 13fd0 <_ITM_deregisterTMCloneTable>
    40ea:	48 85 c0             	test   %rax,%rax
    40ed:	74 09                	je     40f8 <deregister_tm_clones+0x28>
    40ef:	ff e0                	jmpq   *%rax
    40f1:	0f 1f 80 00 00 00 00 	nopl   0x0(%rax)
    40f8:	c3                   	retq   
    40f9:	0f 1f 80 00 00 00 00 	nopl   0x0(%rax)

0000000000004100 <register_tm_clones>:
    4100:	48 8d 3d 61 3d 01 00 	lea    0x13d61(%rip),%rdi        # 17e68 <__TMC_END__>
    4107:	48 8d 35 5a 3d 01 00 	lea    0x13d5a(%rip),%rsi        # 17e68 <__TMC_END__>
    410e:	48 29 fe             	sub    %rdi,%rsi
    4111:	48 89 f0             	mov    %rsi,%rax
    4114:	48 c1 ee 3f          	shr    $0x3f,%rsi
    4118:	48 c1 f8 03          	sar    $0x3,%rax
    411c:	48 01 c6             	add    %rax,%rsi
    411f:	48 d1 fe             	sar    %rsi
    4122:	74 14                	je     4138 <register_tm_clones+0x38>
    4124:	48 8b 05 bd fe 00 00 	mov    0xfebd(%rip),%rax        # 13fe8 <_ITM_registerTMCloneTable>
    412b:	48 85 c0             	test   %rax,%rax
    412e:	74 08                	je     4138 <register_tm_clones+0x38>
    4130:	ff e0                	jmpq   *%rax
    4132:	66 0f 1f 44 00 00    	nopw   0x0(%rax,%rax,1)
    4138:	c3                   	retq   
    4139:	0f 1f 80 00 00 00 00 	nopl   0x0(%rax)

0000000000004140 <__do_global_dtors_aux>:
    4140:	f3 0f 1e fa          	endbr64 
    4144:	80 3d 35 3d 01 00 00 	cmpb   $0x0,0x13d35(%rip)        # 17e80 <completed.8061>
    414b:	75 2b                	jne    4178 <__do_global_dtors_aux+0x38>
    414d:	55                   	push   %rbp
    414e:	48 83 3d 9a fe 00 00 	cmpq   $0x0,0xfe9a(%rip)        # 13ff0 <__cxa_finalize@GLIBC_2.2.5>
    4155:	00 
    4156:	48 89 e5             	mov    %rsp,%rbp
    4159:	74 0c                	je     4167 <__do_global_dtors_aux+0x27>
    415b:	48 8b 3d a6 fe 00 00 	mov    0xfea6(%rip),%rdi        # 14008 <__dso_handle>
    4162:	e8 f9 fe ff ff       	callq  4060 <__cxa_finalize@plt>
    4167:	e8 64 ff ff ff       	callq  40d0 <deregister_tm_clones>
    416c:	c6 05 0d 3d 01 00 01 	movb   $0x1,0x13d0d(%rip)        # 17e80 <completed.8061>
    4173:	5d                   	pop    %rbp
    4174:	c3                   	retq   
    4175:	0f 1f 00             	nopl   (%rax)
    4178:	c3                   	retq   
    4179:	0f 1f 80 00 00 00 00 	nopl   0x0(%rax)

0000000000004180 <frame_dummy>:
    4180:	f3 0f 1e fa          	endbr64 
    4184:	e9 77 ff ff ff       	jmpq   4100 <register_tm_clones>

0000000000004189 <platform_main_begin>:
    4189:	f3 0f 1e fa          	endbr64 
    418d:	55                   	push   %rbp
    418e:	48 89 e5             	mov    %rsp,%rbp
    4191:	90                   	nop
    4192:	5d                   	pop    %rbp
    4193:	c3                   	retq   

0000000000004194 <platform_main_end>:
    4194:	f3 0f 1e fa          	endbr64 
    4198:	55                   	push   %rbp
    4199:	48 89 e5             	mov    %rsp,%rbp
    419c:	48 83 ec 10          	sub    $0x10,%rsp
    41a0:	89 7d fc             	mov    %edi,-0x4(%rbp)
    41a3:	89 75 f8             	mov    %esi,-0x8(%rbp)
    41a6:	8b 45 fc             	mov    -0x4(%rbp),%eax
    41a9:	89 c6                	mov    %eax,%esi
    41ab:	48 8d 3d 6e ae 00 00 	lea    0xae6e(%rip),%rdi        # f020 <_IO_stdin_used+0x20>
    41b2:	b8 00 00 00 00       	mov    $0x0,%eax
    41b7:	e8 c4 fe ff ff       	callq  4080 <printf@plt>
    41bc:	90                   	nop
    41bd:	c9                   	leaveq 
    41be:	c3                   	retq   

00000000000041bf <safe_unary_minus_func_int8_t_s>:
    41bf:	f3 0f 1e fa          	endbr64 
    41c3:	55                   	push   %rbp
    41c4:	48 89 e5             	mov    %rsp,%rbp
    41c7:	89 f8                	mov    %edi,%eax
    41c9:	88 45 fc             	mov    %al,-0x4(%rbp)
    41cc:	0f b6 45 fc          	movzbl -0x4(%rbp),%eax
    41d0:	f7 d8                	neg    %eax
    41d2:	5d                   	pop    %rbp
    41d3:	c3                   	retq   

00000000000041d4 <safe_add_func_int8_t_s_s>:
    41d4:	f3 0f 1e fa          	endbr64 
    41d8:	55                   	push   %rbp
    41d9:	48 89 e5             	mov    %rsp,%rbp
    41dc:	89 fa                	mov    %edi,%edx
    41de:	89 f0                	mov    %esi,%eax
    41e0:	88 55 fc             	mov    %dl,-0x4(%rbp)
    41e3:	88 45 f8             	mov    %al,-0x8(%rbp)
    41e6:	0f b6 55 fc          	movzbl -0x4(%rbp),%edx
    41ea:	0f b6 45 f8          	movzbl -0x8(%rbp),%eax
    41ee:	01 d0                	add    %edx,%eax
    41f0:	5d                   	pop    %rbp
    41f1:	c3                   	retq   

00000000000041f2 <safe_sub_func_int8_t_s_s>:
    41f2:	f3 0f 1e fa          	endbr64 
    41f6:	55                   	push   %rbp
    41f7:	48 89 e5             	mov    %rsp,%rbp
    41fa:	89 fa                	mov    %edi,%edx
    41fc:	89 f0                	mov    %esi,%eax
    41fe:	88 55 fc             	mov    %dl,-0x4(%rbp)
    4201:	88 45 f8             	mov    %al,-0x8(%rbp)
    4204:	0f b6 55 fc          	movzbl -0x4(%rbp),%edx
    4208:	0f b6 45 f8          	movzbl -0x8(%rbp),%eax
    420c:	29 c2                	sub    %eax,%edx
    420e:	89 d0                	mov    %edx,%eax
    4210:	5d                   	pop    %rbp
    4211:	c3                   	retq   

0000000000004212 <safe_mul_func_int8_t_s_s>:
    4212:	f3 0f 1e fa          	endbr64 
    4216:	55                   	push   %rbp
    4217:	48 89 e5             	mov    %rsp,%rbp
    421a:	89 fa                	mov    %edi,%edx
    421c:	89 f0                	mov    %esi,%eax
    421e:	88 55 fc             	mov    %dl,-0x4(%rbp)
    4221:	88 45 f8             	mov    %al,-0x8(%rbp)
    4224:	0f b6 45 fc          	movzbl -0x4(%rbp),%eax
    4228:	0f b6 55 f8          	movzbl -0x8(%rbp),%edx
    422c:	0f af c2             	imul   %edx,%eax
    422f:	5d                   	pop    %rbp
    4230:	c3                   	retq   

0000000000004231 <safe_mod_func_int8_t_s_s>:
    4231:	f3 0f 1e fa          	endbr64 
    4235:	55                   	push   %rbp
    4236:	48 89 e5             	mov    %rsp,%rbp
    4239:	89 fa                	mov    %edi,%edx
    423b:	89 f0                	mov    %esi,%eax
    423d:	88 55 fc             	mov    %dl,-0x4(%rbp)
    4240:	88 45 f8             	mov    %al,-0x8(%rbp)
    4243:	80 7d f8 00          	cmpb   $0x0,-0x8(%rbp)
    4247:	74 1b                	je     4264 <safe_mod_func_int8_t_s_s+0x33>
    4249:	80 7d fc 80          	cmpb   $0x80,-0x4(%rbp)
    424d:	75 06                	jne    4255 <safe_mod_func_int8_t_s_s+0x24>
    424f:	80 7d f8 ff          	cmpb   $0xff,-0x8(%rbp)
    4253:	74 0f                	je     4264 <safe_mod_func_int8_t_s_s+0x33>
    4255:	0f be 45 fc          	movsbl -0x4(%rbp),%eax
    4259:	0f be 4d f8          	movsbl -0x8(%rbp),%ecx
    425d:	99                   	cltd   
    425e:	f7 f9                	idiv   %ecx
    4260:	89 d0                	mov    %edx,%eax
    4262:	eb 04                	jmp    4268 <safe_mod_func_int8_t_s_s+0x37>
    4264:	0f b6 45 fc          	movzbl -0x4(%rbp),%eax
    4268:	5d                   	pop    %rbp
    4269:	c3                   	retq   

000000000000426a <safe_div_func_int8_t_s_s>:
    426a:	f3 0f 1e fa          	endbr64 
    426e:	55                   	push   %rbp
    426f:	48 89 e5             	mov    %rsp,%rbp
    4272:	89 fa                	mov    %edi,%edx
    4274:	89 f0                	mov    %esi,%eax
    4276:	88 55 fc             	mov    %dl,-0x4(%rbp)
    4279:	88 45 f8             	mov    %al,-0x8(%rbp)
    427c:	80 7d f8 00          	cmpb   $0x0,-0x8(%rbp)
    4280:	74 19                	je     429b <safe_div_func_int8_t_s_s+0x31>
    4282:	80 7d fc 80          	cmpb   $0x80,-0x4(%rbp)
    4286:	75 06                	jne    428e <safe_div_func_int8_t_s_s+0x24>
    4288:	80 7d f8 ff          	cmpb   $0xff,-0x8(%rbp)
    428c:	74 0d                	je     429b <safe_div_func_int8_t_s_s+0x31>
    428e:	0f be 45 fc          	movsbl -0x4(%rbp),%eax
    4292:	0f be 4d f8          	movsbl -0x8(%rbp),%ecx
    4296:	99                   	cltd   
    4297:	f7 f9                	idiv   %ecx
    4299:	eb 04                	jmp    429f <safe_div_func_int8_t_s_s+0x35>
    429b:	0f b6 45 fc          	movzbl -0x4(%rbp),%eax
    429f:	5d                   	pop    %rbp
    42a0:	c3                   	retq   

00000000000042a1 <safe_lshift_func_int8_t_s_s>:
    42a1:	f3 0f 1e fa          	endbr64 
    42a5:	55                   	push   %rbp
    42a6:	48 89 e5             	mov    %rsp,%rbp
    42a9:	89 f8                	mov    %edi,%eax
    42ab:	89 75 f8             	mov    %esi,-0x8(%rbp)
    42ae:	88 45 fc             	mov    %al,-0x4(%rbp)
    42b1:	80 7d fc 00          	cmpb   $0x0,-0x4(%rbp)
    42b5:	78 31                	js     42e8 <safe_lshift_func_int8_t_s_s+0x47>
    42b7:	83 7d f8 00          	cmpl   $0x0,-0x8(%rbp)
    42bb:	78 2b                	js     42e8 <safe_lshift_func_int8_t_s_s+0x47>
    42bd:	83 7d f8 1f          	cmpl   $0x1f,-0x8(%rbp)
    42c1:	7f 25                	jg     42e8 <safe_lshift_func_int8_t_s_s+0x47>
    42c3:	0f be 55 fc          	movsbl -0x4(%rbp),%edx
    42c7:	8b 45 f8             	mov    -0x8(%rbp),%eax
    42ca:	be 7f 00 00 00       	mov    $0x7f,%esi
    42cf:	89 c1                	mov    %eax,%ecx
    42d1:	d3 fe                	sar    %cl,%esi
    42d3:	89 f0                	mov    %esi,%eax
    42d5:	39 c2                	cmp    %eax,%edx
    42d7:	7f 0f                	jg     42e8 <safe_lshift_func_int8_t_s_s+0x47>
    42d9:	0f be 55 fc          	movsbl -0x4(%rbp),%edx
    42dd:	8b 45 f8             	mov    -0x8(%rbp),%eax
    42e0:	89 c1                	mov    %eax,%ecx
    42e2:	d3 e2                	shl    %cl,%edx
    42e4:	89 d0                	mov    %edx,%eax
    42e6:	eb 04                	jmp    42ec <safe_lshift_func_int8_t_s_s+0x4b>
    42e8:	0f b6 45 fc          	movzbl -0x4(%rbp),%eax
    42ec:	5d                   	pop    %rbp
    42ed:	c3                   	retq   

00000000000042ee <safe_lshift_func_int8_t_s_u>:
    42ee:	f3 0f 1e fa          	endbr64 
    42f2:	55                   	push   %rbp
    42f3:	48 89 e5             	mov    %rsp,%rbp
    42f6:	89 f8                	mov    %edi,%eax
    42f8:	89 75 f8             	mov    %esi,-0x8(%rbp)
    42fb:	88 45 fc             	mov    %al,-0x4(%rbp)
    42fe:	80 7d fc 00          	cmpb   $0x0,-0x4(%rbp)
    4302:	78 2b                	js     432f <safe_lshift_func_int8_t_s_u+0x41>
    4304:	83 7d f8 1f          	cmpl   $0x1f,-0x8(%rbp)
    4308:	77 25                	ja     432f <safe_lshift_func_int8_t_s_u+0x41>
    430a:	0f be 55 fc          	movsbl -0x4(%rbp),%edx
    430e:	8b 45 f8             	mov    -0x8(%rbp),%eax
    4311:	be 7f 00 00 00       	mov    $0x7f,%esi
    4316:	89 c1                	mov    %eax,%ecx
    4318:	d3 fe                	sar    %cl,%esi
    431a:	89 f0                	mov    %esi,%eax
    431c:	39 c2                	cmp    %eax,%edx
    431e:	7f 0f                	jg     432f <safe_lshift_func_int8_t_s_u+0x41>
    4320:	0f be 55 fc          	movsbl -0x4(%rbp),%edx
    4324:	8b 45 f8             	mov    -0x8(%rbp),%eax
    4327:	89 c1                	mov    %eax,%ecx
    4329:	d3 e2                	shl    %cl,%edx
    432b:	89 d0                	mov    %edx,%eax
    432d:	eb 04                	jmp    4333 <safe_lshift_func_int8_t_s_u+0x45>
    432f:	0f b6 45 fc          	movzbl -0x4(%rbp),%eax
    4333:	5d                   	pop    %rbp
    4334:	c3                   	retq   

0000000000004335 <safe_rshift_func_int8_t_s_s>:
    4335:	f3 0f 1e fa          	endbr64 
    4339:	55                   	push   %rbp
    433a:	48 89 e5             	mov    %rsp,%rbp
    433d:	89 f8                	mov    %edi,%eax
    433f:	89 75 f8             	mov    %esi,-0x8(%rbp)
    4342:	88 45 fc             	mov    %al,-0x4(%rbp)
    4345:	80 7d fc 00          	cmpb   $0x0,-0x4(%rbp)
    4349:	78 1b                	js     4366 <safe_rshift_func_int8_t_s_s+0x31>
    434b:	83 7d f8 00          	cmpl   $0x0,-0x8(%rbp)
    434f:	78 15                	js     4366 <safe_rshift_func_int8_t_s_s+0x31>
    4351:	83 7d f8 1f          	cmpl   $0x1f,-0x8(%rbp)
    4355:	7f 0f                	jg     4366 <safe_rshift_func_int8_t_s_s+0x31>
    4357:	0f be 55 fc          	movsbl -0x4(%rbp),%edx
    435b:	8b 45 f8             	mov    -0x8(%rbp),%eax
    435e:	89 c1                	mov    %eax,%ecx
    4360:	d3 fa                	sar    %cl,%edx
    4362:	89 d0                	mov    %edx,%eax
    4364:	eb 04                	jmp    436a <safe_rshift_func_int8_t_s_s+0x35>
    4366:	0f b6 45 fc          	movzbl -0x4(%rbp),%eax
    436a:	5d                   	pop    %rbp
    436b:	c3                   	retq   

000000000000436c <safe_rshift_func_int8_t_s_u>:
    436c:	f3 0f 1e fa          	endbr64 
    4370:	55                   	push   %rbp
    4371:	48 89 e5             	mov    %rsp,%rbp
    4374:	89 f8                	mov    %edi,%eax
    4376:	89 75 f8             	mov    %esi,-0x8(%rbp)
    4379:	88 45 fc             	mov    %al,-0x4(%rbp)
    437c:	80 7d fc 00          	cmpb   $0x0,-0x4(%rbp)
    4380:	78 15                	js     4397 <safe_rshift_func_int8_t_s_u+0x2b>
    4382:	83 7d f8 1f          	cmpl   $0x1f,-0x8(%rbp)
    4386:	77 0f                	ja     4397 <safe_rshift_func_int8_t_s_u+0x2b>
    4388:	0f be 55 fc          	movsbl -0x4(%rbp),%edx
    438c:	8b 45 f8             	mov    -0x8(%rbp),%eax
    438f:	89 c1                	mov    %eax,%ecx
    4391:	d3 fa                	sar    %cl,%edx
    4393:	89 d0                	mov    %edx,%eax
    4395:	eb 04                	jmp    439b <safe_rshift_func_int8_t_s_u+0x2f>
    4397:	0f b6 45 fc          	movzbl -0x4(%rbp),%eax
    439b:	5d                   	pop    %rbp
    439c:	c3                   	retq   

000000000000439d <safe_unary_minus_func_int16_t_s>:
    439d:	f3 0f 1e fa          	endbr64 
    43a1:	55                   	push   %rbp
    43a2:	48 89 e5             	mov    %rsp,%rbp
    43a5:	89 f8                	mov    %edi,%eax
    43a7:	66 89 45 fc          	mov    %ax,-0x4(%rbp)
    43ab:	0f b7 45 fc          	movzwl -0x4(%rbp),%eax
    43af:	f7 d8                	neg    %eax
    43b1:	5d                   	pop    %rbp
    43b2:	c3                   	retq   

00000000000043b3 <safe_add_func_int16_t_s_s>:
    43b3:	f3 0f 1e fa          	endbr64 
    43b7:	55                   	push   %rbp
    43b8:	48 89 e5             	mov    %rsp,%rbp
    43bb:	89 fa                	mov    %edi,%edx
    43bd:	89 f0                	mov    %esi,%eax
    43bf:	66 89 55 fc          	mov    %dx,-0x4(%rbp)
    43c3:	66 89 45 f8          	mov    %ax,-0x8(%rbp)
    43c7:	0f b7 55 fc          	movzwl -0x4(%rbp),%edx
    43cb:	0f b7 45 f8          	movzwl -0x8(%rbp),%eax
    43cf:	01 d0                	add    %edx,%eax
    43d1:	5d                   	pop    %rbp
    43d2:	c3                   	retq   

00000000000043d3 <safe_sub_func_int16_t_s_s>:
    43d3:	f3 0f 1e fa          	endbr64 
    43d7:	55                   	push   %rbp
    43d8:	48 89 e5             	mov    %rsp,%rbp
    43db:	89 fa                	mov    %edi,%edx
    43dd:	89 f0                	mov    %esi,%eax
    43df:	66 89 55 fc          	mov    %dx,-0x4(%rbp)
    43e3:	66 89 45 f8          	mov    %ax,-0x8(%rbp)
    43e7:	0f b7 55 fc          	movzwl -0x4(%rbp),%edx
    43eb:	0f b7 45 f8          	movzwl -0x8(%rbp),%eax
    43ef:	29 c2                	sub    %eax,%edx
    43f1:	89 d0                	mov    %edx,%eax
    43f3:	5d                   	pop    %rbp
    43f4:	c3                   	retq   

00000000000043f5 <safe_mul_func_int16_t_s_s>:
    43f5:	f3 0f 1e fa          	endbr64 
    43f9:	55                   	push   %rbp
    43fa:	48 89 e5             	mov    %rsp,%rbp
    43fd:	89 fa                	mov    %edi,%edx
    43ff:	89 f0                	mov    %esi,%eax
    4401:	66 89 55 fc          	mov    %dx,-0x4(%rbp)
    4405:	66 89 45 f8          	mov    %ax,-0x8(%rbp)
    4409:	0f b7 55 fc          	movzwl -0x4(%rbp),%edx
    440d:	0f b7 45 f8          	movzwl -0x8(%rbp),%eax
    4411:	0f af c2             	imul   %edx,%eax
    4414:	5d                   	pop    %rbp
    4415:	c3                   	retq   

0000000000004416 <safe_mod_func_int16_t_s_s>:
    4416:	f3 0f 1e fa          	endbr64 
    441a:	55                   	push   %rbp
    441b:	48 89 e5             	mov    %rsp,%rbp
    441e:	89 fa                	mov    %edi,%edx
    4420:	89 f0                	mov    %esi,%eax
    4422:	66 89 55 fc          	mov    %dx,-0x4(%rbp)
    4426:	66 89 45 f8          	mov    %ax,-0x8(%rbp)
    442a:	66 83 7d f8 00       	cmpw   $0x0,-0x8(%rbp)
    442f:	74 1e                	je     444f <safe_mod_func_int16_t_s_s+0x39>
    4431:	66 81 7d fc 00 80    	cmpw   $0x8000,-0x4(%rbp)
    4437:	75 07                	jne    4440 <safe_mod_func_int16_t_s_s+0x2a>
    4439:	66 83 7d f8 ff       	cmpw   $0xffff,-0x8(%rbp)
    443e:	74 0f                	je     444f <safe_mod_func_int16_t_s_s+0x39>
    4440:	0f bf 45 fc          	movswl -0x4(%rbp),%eax
    4444:	0f bf 4d f8          	movswl -0x8(%rbp),%ecx
    4448:	99                   	cltd   
    4449:	f7 f9                	idiv   %ecx
    444b:	89 d0                	mov    %edx,%eax
    444d:	eb 04                	jmp    4453 <safe_mod_func_int16_t_s_s+0x3d>
    444f:	0f b7 45 fc          	movzwl -0x4(%rbp),%eax
    4453:	5d                   	pop    %rbp
    4454:	c3                   	retq   

0000000000004455 <safe_div_func_int16_t_s_s>:
    4455:	f3 0f 1e fa          	endbr64 
    4459:	55                   	push   %rbp
    445a:	48 89 e5             	mov    %rsp,%rbp
    445d:	89 fa                	mov    %edi,%edx
    445f:	89 f0                	mov    %esi,%eax
    4461:	66 89 55 fc          	mov    %dx,-0x4(%rbp)
    4465:	66 89 45 f8          	mov    %ax,-0x8(%rbp)
    4469:	66 83 7d f8 00       	cmpw   $0x0,-0x8(%rbp)
    446e:	74 1c                	je     448c <safe_div_func_int16_t_s_s+0x37>
    4470:	66 81 7d fc 00 80    	cmpw   $0x8000,-0x4(%rbp)
    4476:	75 07                	jne    447f <safe_div_func_int16_t_s_s+0x2a>
    4478:	66 83 7d f8 ff       	cmpw   $0xffff,-0x8(%rbp)
    447d:	74 0d                	je     448c <safe_div_func_int16_t_s_s+0x37>
    447f:	0f bf 45 fc          	movswl -0x4(%rbp),%eax
    4483:	0f bf 4d f8          	movswl -0x8(%rbp),%ecx
    4487:	99                   	cltd   
    4488:	f7 f9                	idiv   %ecx
    448a:	eb 04                	jmp    4490 <safe_div_func_int16_t_s_s+0x3b>
    448c:	0f b7 45 fc          	movzwl -0x4(%rbp),%eax
    4490:	5d                   	pop    %rbp
    4491:	c3                   	retq   

0000000000004492 <safe_lshift_func_int16_t_s_s>:
    4492:	f3 0f 1e fa          	endbr64 
    4496:	55                   	push   %rbp
    4497:	48 89 e5             	mov    %rsp,%rbp
    449a:	89 f8                	mov    %edi,%eax
    449c:	89 75 f8             	mov    %esi,-0x8(%rbp)
    449f:	66 89 45 fc          	mov    %ax,-0x4(%rbp)
    44a3:	66 83 7d fc 00       	cmpw   $0x0,-0x4(%rbp)
    44a8:	78 31                	js     44db <safe_lshift_func_int16_t_s_s+0x49>
    44aa:	83 7d f8 00          	cmpl   $0x0,-0x8(%rbp)
    44ae:	78 2b                	js     44db <safe_lshift_func_int16_t_s_s+0x49>
    44b0:	83 7d f8 1f          	cmpl   $0x1f,-0x8(%rbp)
    44b4:	7f 25                	jg     44db <safe_lshift_func_int16_t_s_s+0x49>
    44b6:	0f bf 55 fc          	movswl -0x4(%rbp),%edx
    44ba:	8b 45 f8             	mov    -0x8(%rbp),%eax
    44bd:	be ff 7f 00 00       	mov    $0x7fff,%esi
    44c2:	89 c1                	mov    %eax,%ecx
    44c4:	d3 fe                	sar    %cl,%esi
    44c6:	89 f0                	mov    %esi,%eax
    44c8:	39 c2                	cmp    %eax,%edx
    44ca:	7f 0f                	jg     44db <safe_lshift_func_int16_t_s_s+0x49>
    44cc:	0f bf 55 fc          	movswl -0x4(%rbp),%edx
    44d0:	8b 45 f8             	mov    -0x8(%rbp),%eax
    44d3:	89 c1                	mov    %eax,%ecx
    44d5:	d3 e2                	shl    %cl,%edx
    44d7:	89 d0                	mov    %edx,%eax
    44d9:	eb 04                	jmp    44df <safe_lshift_func_int16_t_s_s+0x4d>
    44db:	0f b7 45 fc          	movzwl -0x4(%rbp),%eax
    44df:	5d                   	pop    %rbp
    44e0:	c3                   	retq   

00000000000044e1 <safe_lshift_func_int16_t_s_u>:
    44e1:	f3 0f 1e fa          	endbr64 
    44e5:	55                   	push   %rbp
    44e6:	48 89 e5             	mov    %rsp,%rbp
    44e9:	89 f8                	mov    %edi,%eax
    44eb:	89 75 f8             	mov    %esi,-0x8(%rbp)
    44ee:	66 89 45 fc          	mov    %ax,-0x4(%rbp)
    44f2:	66 83 7d fc 00       	cmpw   $0x0,-0x4(%rbp)
    44f7:	78 2b                	js     4524 <safe_lshift_func_int16_t_s_u+0x43>
    44f9:	83 7d f8 1f          	cmpl   $0x1f,-0x8(%rbp)
    44fd:	77 25                	ja     4524 <safe_lshift_func_int16_t_s_u+0x43>
    44ff:	0f bf 55 fc          	movswl -0x4(%rbp),%edx
    4503:	8b 45 f8             	mov    -0x8(%rbp),%eax
    4506:	be ff 7f 00 00       	mov    $0x7fff,%esi
    450b:	89 c1                	mov    %eax,%ecx
    450d:	d3 fe                	sar    %cl,%esi
    450f:	89 f0                	mov    %esi,%eax
    4511:	39 c2                	cmp    %eax,%edx
    4513:	7f 0f                	jg     4524 <safe_lshift_func_int16_t_s_u+0x43>
    4515:	0f bf 55 fc          	movswl -0x4(%rbp),%edx
    4519:	8b 45 f8             	mov    -0x8(%rbp),%eax
    451c:	89 c1                	mov    %eax,%ecx
    451e:	d3 e2                	shl    %cl,%edx
    4520:	89 d0                	mov    %edx,%eax
    4522:	eb 04                	jmp    4528 <safe_lshift_func_int16_t_s_u+0x47>
    4524:	0f b7 45 fc          	movzwl -0x4(%rbp),%eax
    4528:	5d                   	pop    %rbp
    4529:	c3                   	retq   

000000000000452a <safe_rshift_func_int16_t_s_s>:
    452a:	f3 0f 1e fa          	endbr64 
    452e:	55                   	push   %rbp
    452f:	48 89 e5             	mov    %rsp,%rbp
    4532:	89 f8                	mov    %edi,%eax
    4534:	89 75 f8             	mov    %esi,-0x8(%rbp)
    4537:	66 89 45 fc          	mov    %ax,-0x4(%rbp)
    453b:	66 83 7d fc 00       	cmpw   $0x0,-0x4(%rbp)
    4540:	78 1b                	js     455d <safe_rshift_func_int16_t_s_s+0x33>
    4542:	83 7d f8 00          	cmpl   $0x0,-0x8(%rbp)
    4546:	78 15                	js     455d <safe_rshift_func_int16_t_s_s+0x33>
    4548:	83 7d f8 1f          	cmpl   $0x1f,-0x8(%rbp)
    454c:	7f 0f                	jg     455d <safe_rshift_func_int16_t_s_s+0x33>
    454e:	0f bf 55 fc          	movswl -0x4(%rbp),%edx
    4552:	8b 45 f8             	mov    -0x8(%rbp),%eax
    4555:	89 c1                	mov    %eax,%ecx
    4557:	d3 fa                	sar    %cl,%edx
    4559:	89 d0                	mov    %edx,%eax
    455b:	eb 04                	jmp    4561 <safe_rshift_func_int16_t_s_s+0x37>
    455d:	0f b7 45 fc          	movzwl -0x4(%rbp),%eax
    4561:	5d                   	pop    %rbp
    4562:	c3                   	retq   

0000000000004563 <safe_rshift_func_int16_t_s_u>:
    4563:	f3 0f 1e fa          	endbr64 
    4567:	55                   	push   %rbp
    4568:	48 89 e5             	mov    %rsp,%rbp
    456b:	89 f8                	mov    %edi,%eax
    456d:	89 75 f8             	mov    %esi,-0x8(%rbp)
    4570:	66 89 45 fc          	mov    %ax,-0x4(%rbp)
    4574:	66 83 7d fc 00       	cmpw   $0x0,-0x4(%rbp)
    4579:	78 15                	js     4590 <safe_rshift_func_int16_t_s_u+0x2d>
    457b:	83 7d f8 1f          	cmpl   $0x1f,-0x8(%rbp)
    457f:	77 0f                	ja     4590 <safe_rshift_func_int16_t_s_u+0x2d>
    4581:	0f bf 55 fc          	movswl -0x4(%rbp),%edx
    4585:	8b 45 f8             	mov    -0x8(%rbp),%eax
    4588:	89 c1                	mov    %eax,%ecx
    458a:	d3 fa                	sar    %cl,%edx
    458c:	89 d0                	mov    %edx,%eax
    458e:	eb 04                	jmp    4594 <safe_rshift_func_int16_t_s_u+0x31>
    4590:	0f b7 45 fc          	movzwl -0x4(%rbp),%eax
    4594:	5d                   	pop    %rbp
    4595:	c3                   	retq   

0000000000004596 <safe_unary_minus_func_int32_t_s>:
    4596:	f3 0f 1e fa          	endbr64 
    459a:	55                   	push   %rbp
    459b:	48 89 e5             	mov    %rsp,%rbp
    459e:	89 7d fc             	mov    %edi,-0x4(%rbp)
    45a1:	81 7d fc 00 00 00 80 	cmpl   $0x80000000,-0x4(%rbp)
    45a8:	74 07                	je     45b1 <safe_unary_minus_func_int32_t_s+0x1b>
    45aa:	8b 45 fc             	mov    -0x4(%rbp),%eax
    45ad:	f7 d8                	neg    %eax
    45af:	eb 03                	jmp    45b4 <safe_unary_minus_func_int32_t_s+0x1e>
    45b1:	8b 45 fc             	mov    -0x4(%rbp),%eax
    45b4:	5d                   	pop    %rbp
    45b5:	c3                   	retq   

00000000000045b6 <safe_add_func_int32_t_s_s>:
    45b6:	f3 0f 1e fa          	endbr64 
    45ba:	55                   	push   %rbp
    45bb:	48 89 e5             	mov    %rsp,%rbp
    45be:	89 7d fc             	mov    %edi,-0x4(%rbp)
    45c1:	89 75 f8             	mov    %esi,-0x8(%rbp)
    45c4:	83 7d fc 00          	cmpl   $0x0,-0x4(%rbp)
    45c8:	7e 13                	jle    45dd <safe_add_func_int32_t_s_s+0x27>
    45ca:	83 7d f8 00          	cmpl   $0x0,-0x8(%rbp)
    45ce:	7e 0d                	jle    45dd <safe_add_func_int32_t_s_s+0x27>
    45d0:	b8 ff ff ff 7f       	mov    $0x7fffffff,%eax
    45d5:	2b 45 f8             	sub    -0x8(%rbp),%eax
    45d8:	39 45 fc             	cmp    %eax,-0x4(%rbp)
    45db:	7f 23                	jg     4600 <safe_add_func_int32_t_s_s+0x4a>
    45dd:	83 7d fc 00          	cmpl   $0x0,-0x4(%rbp)
    45e1:	79 13                	jns    45f6 <safe_add_func_int32_t_s_s+0x40>
    45e3:	83 7d f8 00          	cmpl   $0x0,-0x8(%rbp)
    45e7:	79 0d                	jns    45f6 <safe_add_func_int32_t_s_s+0x40>
    45e9:	b8 00 00 00 80       	mov    $0x80000000,%eax
    45ee:	2b 45 f8             	sub    -0x8(%rbp),%eax
    45f1:	39 45 fc             	cmp    %eax,-0x4(%rbp)
    45f4:	7c 0a                	jl     4600 <safe_add_func_int32_t_s_s+0x4a>
    45f6:	8b 55 fc             	mov    -0x4(%rbp),%edx
    45f9:	8b 45 f8             	mov    -0x8(%rbp),%eax
    45fc:	01 d0                	add    %edx,%eax
    45fe:	eb 03                	jmp    4603 <safe_add_func_int32_t_s_s+0x4d>
    4600:	8b 45 fc             	mov    -0x4(%rbp),%eax
    4603:	5d                   	pop    %rbp
    4604:	c3                   	retq   

0000000000004605 <safe_sub_func_int32_t_s_s>:
    4605:	f3 0f 1e fa          	endbr64 
    4609:	55                   	push   %rbp
    460a:	48 89 e5             	mov    %rsp,%rbp
    460d:	89 7d fc             	mov    %edi,-0x4(%rbp)
    4610:	89 75 f8             	mov    %esi,-0x8(%rbp)
    4613:	8b 45 fc             	mov    -0x4(%rbp),%eax
    4616:	33 45 f8             	xor    -0x8(%rbp),%eax
    4619:	89 c2                	mov    %eax,%edx
    461b:	8b 45 fc             	mov    -0x4(%rbp),%eax
    461e:	33 45 f8             	xor    -0x8(%rbp),%eax
    4621:	25 00 00 00 80       	and    $0x80000000,%eax
    4626:	33 45 fc             	xor    -0x4(%rbp),%eax
    4629:	2b 45 f8             	sub    -0x8(%rbp),%eax
    462c:	33 45 f8             	xor    -0x8(%rbp),%eax
    462f:	21 d0                	and    %edx,%eax
    4631:	85 c0                	test   %eax,%eax
    4633:	78 08                	js     463d <safe_sub_func_int32_t_s_s+0x38>
    4635:	8b 45 fc             	mov    -0x4(%rbp),%eax
    4638:	2b 45 f8             	sub    -0x8(%rbp),%eax
    463b:	eb 03                	jmp    4640 <safe_sub_func_int32_t_s_s+0x3b>
    463d:	8b 45 fc             	mov    -0x4(%rbp),%eax
    4640:	5d                   	pop    %rbp
    4641:	c3                   	retq   

0000000000004642 <safe_mul_func_int32_t_s_s>:
    4642:	f3 0f 1e fa          	endbr64 
    4646:	55                   	push   %rbp
    4647:	48 89 e5             	mov    %rsp,%rbp
    464a:	89 7d fc             	mov    %edi,-0x4(%rbp)
    464d:	89 75 f8             	mov    %esi,-0x8(%rbp)
    4650:	83 7d fc 00          	cmpl   $0x0,-0x4(%rbp)
    4654:	7e 14                	jle    466a <safe_mul_func_int32_t_s_s+0x28>
    4656:	83 7d f8 00          	cmpl   $0x0,-0x8(%rbp)
    465a:	7e 0e                	jle    466a <safe_mul_func_int32_t_s_s+0x28>
    465c:	b8 ff ff ff 7f       	mov    $0x7fffffff,%eax
    4661:	99                   	cltd   
    4662:	f7 7d f8             	idivl  -0x8(%rbp)
    4665:	39 45 fc             	cmp    %eax,-0x4(%rbp)
    4668:	7f 5d                	jg     46c7 <safe_mul_func_int32_t_s_s+0x85>
    466a:	83 7d fc 00          	cmpl   $0x0,-0x4(%rbp)
    466e:	7e 14                	jle    4684 <safe_mul_func_int32_t_s_s+0x42>
    4670:	83 7d f8 00          	cmpl   $0x0,-0x8(%rbp)
    4674:	7f 0e                	jg     4684 <safe_mul_func_int32_t_s_s+0x42>
    4676:	b8 00 00 00 80       	mov    $0x80000000,%eax
    467b:	99                   	cltd   
    467c:	f7 7d fc             	idivl  -0x4(%rbp)
    467f:	39 45 f8             	cmp    %eax,-0x8(%rbp)
    4682:	7c 43                	jl     46c7 <safe_mul_func_int32_t_s_s+0x85>
    4684:	83 7d fc 00          	cmpl   $0x0,-0x4(%rbp)
    4688:	7f 14                	jg     469e <safe_mul_func_int32_t_s_s+0x5c>
    468a:	83 7d f8 00          	cmpl   $0x0,-0x8(%rbp)
    468e:	7e 0e                	jle    469e <safe_mul_func_int32_t_s_s+0x5c>
    4690:	b8 00 00 00 80       	mov    $0x80000000,%eax
    4695:	99                   	cltd   
    4696:	f7 7d f8             	idivl  -0x8(%rbp)
    4699:	39 45 fc             	cmp    %eax,-0x4(%rbp)
    469c:	7c 29                	jl     46c7 <safe_mul_func_int32_t_s_s+0x85>
    469e:	83 7d fc 00          	cmpl   $0x0,-0x4(%rbp)
    46a2:	7f 1a                	jg     46be <safe_mul_func_int32_t_s_s+0x7c>
    46a4:	83 7d f8 00          	cmpl   $0x0,-0x8(%rbp)
    46a8:	7f 14                	jg     46be <safe_mul_func_int32_t_s_s+0x7c>
    46aa:	83 7d fc 00          	cmpl   $0x0,-0x4(%rbp)
    46ae:	74 0e                	je     46be <safe_mul_func_int32_t_s_s+0x7c>
    46b0:	b8 ff ff ff 7f       	mov    $0x7fffffff,%eax
    46b5:	99                   	cltd   
    46b6:	f7 7d fc             	idivl  -0x4(%rbp)
    46b9:	39 45 f8             	cmp    %eax,-0x8(%rbp)
    46bc:	7c 09                	jl     46c7 <safe_mul_func_int32_t_s_s+0x85>
    46be:	8b 45 fc             	mov    -0x4(%rbp),%eax
    46c1:	0f af 45 f8          	imul   -0x8(%rbp),%eax
    46c5:	eb 03                	jmp    46ca <safe_mul_func_int32_t_s_s+0x88>
    46c7:	8b 45 fc             	mov    -0x4(%rbp),%eax
    46ca:	5d                   	pop    %rbp
    46cb:	c3                   	retq   

00000000000046cc <safe_mod_func_int32_t_s_s>:
    46cc:	f3 0f 1e fa          	endbr64 
    46d0:	55                   	push   %rbp
    46d1:	48 89 e5             	mov    %rsp,%rbp
    46d4:	89 7d fc             	mov    %edi,-0x4(%rbp)
    46d7:	89 75 f8             	mov    %esi,-0x8(%rbp)
    46da:	83 7d f8 00          	cmpl   $0x0,-0x8(%rbp)
    46de:	74 1a                	je     46fa <safe_mod_func_int32_t_s_s+0x2e>
    46e0:	81 7d fc 00 00 00 80 	cmpl   $0x80000000,-0x4(%rbp)
    46e7:	75 06                	jne    46ef <safe_mod_func_int32_t_s_s+0x23>
    46e9:	83 7d f8 ff          	cmpl   $0xffffffff,-0x8(%rbp)
    46ed:	74 0b                	je     46fa <safe_mod_func_int32_t_s_s+0x2e>
    46ef:	8b 45 fc             	mov    -0x4(%rbp),%eax
    46f2:	99                   	cltd   
    46f3:	f7 7d f8             	idivl  -0x8(%rbp)
    46f6:	89 d0                	mov    %edx,%eax
    46f8:	eb 03                	jmp    46fd <safe_mod_func_int32_t_s_s+0x31>
    46fa:	8b 45 fc             	mov    -0x4(%rbp),%eax
    46fd:	5d                   	pop    %rbp
    46fe:	c3                   	retq   

00000000000046ff <safe_div_func_int32_t_s_s>:
    46ff:	f3 0f 1e fa          	endbr64 
    4703:	55                   	push   %rbp
    4704:	48 89 e5             	mov    %rsp,%rbp
    4707:	89 7d fc             	mov    %edi,-0x4(%rbp)
    470a:	89 75 f8             	mov    %esi,-0x8(%rbp)
    470d:	83 7d f8 00          	cmpl   $0x0,-0x8(%rbp)
    4711:	74 18                	je     472b <safe_div_func_int32_t_s_s+0x2c>
    4713:	81 7d fc 00 00 00 80 	cmpl   $0x80000000,-0x4(%rbp)
    471a:	75 06                	jne    4722 <safe_div_func_int32_t_s_s+0x23>
    471c:	83 7d f8 ff          	cmpl   $0xffffffff,-0x8(%rbp)
    4720:	74 09                	je     472b <safe_div_func_int32_t_s_s+0x2c>
    4722:	8b 45 fc             	mov    -0x4(%rbp),%eax
    4725:	99                   	cltd   
    4726:	f7 7d f8             	idivl  -0x8(%rbp)
    4729:	eb 03                	jmp    472e <safe_div_func_int32_t_s_s+0x2f>
    472b:	8b 45 fc             	mov    -0x4(%rbp),%eax
    472e:	5d                   	pop    %rbp
    472f:	c3                   	retq   

0000000000004730 <safe_lshift_func_int32_t_s_s>:
    4730:	f3 0f 1e fa          	endbr64 
    4734:	55                   	push   %rbp
    4735:	48 89 e5             	mov    %rsp,%rbp
    4738:	89 7d fc             	mov    %edi,-0x4(%rbp)
    473b:	89 75 f8             	mov    %esi,-0x8(%rbp)
    473e:	83 7d fc 00          	cmpl   $0x0,-0x4(%rbp)
    4742:	78 2d                	js     4771 <safe_lshift_func_int32_t_s_s+0x41>
    4744:	83 7d f8 00          	cmpl   $0x0,-0x8(%rbp)
    4748:	78 27                	js     4771 <safe_lshift_func_int32_t_s_s+0x41>
    474a:	83 7d f8 1f          	cmpl   $0x1f,-0x8(%rbp)
    474e:	7f 21                	jg     4771 <safe_lshift_func_int32_t_s_s+0x41>
    4750:	8b 45 f8             	mov    -0x8(%rbp),%eax
    4753:	ba ff ff ff 7f       	mov    $0x7fffffff,%edx
    4758:	89 c1                	mov    %eax,%ecx
    475a:	d3 fa                	sar    %cl,%edx
    475c:	89 d0                	mov    %edx,%eax
    475e:	39 45 fc             	cmp    %eax,-0x4(%rbp)
    4761:	7f 0e                	jg     4771 <safe_lshift_func_int32_t_s_s+0x41>
    4763:	8b 45 f8             	mov    -0x8(%rbp),%eax
    4766:	8b 55 fc             	mov    -0x4(%rbp),%edx
    4769:	89 c1                	mov    %eax,%ecx
    476b:	d3 e2                	shl    %cl,%edx
    476d:	89 d0                	mov    %edx,%eax
    476f:	eb 03                	jmp    4774 <safe_lshift_func_int32_t_s_s+0x44>
    4771:	8b 45 fc             	mov    -0x4(%rbp),%eax
    4774:	5d                   	pop    %rbp
    4775:	c3                   	retq   

0000000000004776 <safe_lshift_func_int32_t_s_u>:
    4776:	f3 0f 1e fa          	endbr64 
    477a:	55                   	push   %rbp
    477b:	48 89 e5             	mov    %rsp,%rbp
    477e:	89 7d fc             	mov    %edi,-0x4(%rbp)
    4781:	89 75 f8             	mov    %esi,-0x8(%rbp)
    4784:	83 7d fc 00          	cmpl   $0x0,-0x4(%rbp)
    4788:	78 27                	js     47b1 <safe_lshift_func_int32_t_s_u+0x3b>
    478a:	83 7d f8 1f          	cmpl   $0x1f,-0x8(%rbp)
    478e:	77 21                	ja     47b1 <safe_lshift_func_int32_t_s_u+0x3b>
    4790:	8b 45 f8             	mov    -0x8(%rbp),%eax
    4793:	ba ff ff ff 7f       	mov    $0x7fffffff,%edx
    4798:	89 c1                	mov    %eax,%ecx
    479a:	d3 fa                	sar    %cl,%edx
    479c:	89 d0                	mov    %edx,%eax
    479e:	39 45 fc             	cmp    %eax,-0x4(%rbp)
    47a1:	7f 0e                	jg     47b1 <safe_lshift_func_int32_t_s_u+0x3b>
    47a3:	8b 45 f8             	mov    -0x8(%rbp),%eax
    47a6:	8b 55 fc             	mov    -0x4(%rbp),%edx
    47a9:	89 c1                	mov    %eax,%ecx
    47ab:	d3 e2                	shl    %cl,%edx
    47ad:	89 d0                	mov    %edx,%eax
    47af:	eb 03                	jmp    47b4 <safe_lshift_func_int32_t_s_u+0x3e>
    47b1:	8b 45 fc             	mov    -0x4(%rbp),%eax
    47b4:	5d                   	pop    %rbp
    47b5:	c3                   	retq   

00000000000047b6 <safe_rshift_func_int32_t_s_s>:
    47b6:	f3 0f 1e fa          	endbr64 
    47ba:	55                   	push   %rbp
    47bb:	48 89 e5             	mov    %rsp,%rbp
    47be:	89 7d fc             	mov    %edi,-0x4(%rbp)
    47c1:	89 75 f8             	mov    %esi,-0x8(%rbp)
    47c4:	83 7d fc 00          	cmpl   $0x0,-0x4(%rbp)
    47c8:	78 1a                	js     47e4 <safe_rshift_func_int32_t_s_s+0x2e>
    47ca:	83 7d f8 00          	cmpl   $0x0,-0x8(%rbp)
    47ce:	78 14                	js     47e4 <safe_rshift_func_int32_t_s_s+0x2e>
    47d0:	83 7d f8 1f          	cmpl   $0x1f,-0x8(%rbp)
    47d4:	7f 0e                	jg     47e4 <safe_rshift_func_int32_t_s_s+0x2e>
    47d6:	8b 45 f8             	mov    -0x8(%rbp),%eax
    47d9:	8b 55 fc             	mov    -0x4(%rbp),%edx
    47dc:	89 c1                	mov    %eax,%ecx
    47de:	d3 fa                	sar    %cl,%edx
    47e0:	89 d0                	mov    %edx,%eax
    47e2:	eb 03                	jmp    47e7 <safe_rshift_func_int32_t_s_s+0x31>
    47e4:	8b 45 fc             	mov    -0x4(%rbp),%eax
    47e7:	5d                   	pop    %rbp
    47e8:	c3                   	retq   

00000000000047e9 <safe_rshift_func_int32_t_s_u>:
    47e9:	f3 0f 1e fa          	endbr64 
    47ed:	55                   	push   %rbp
    47ee:	48 89 e5             	mov    %rsp,%rbp
    47f1:	89 7d fc             	mov    %edi,-0x4(%rbp)
    47f4:	89 75 f8             	mov    %esi,-0x8(%rbp)
    47f7:	83 7d fc 00          	cmpl   $0x0,-0x4(%rbp)
    47fb:	78 14                	js     4811 <safe_rshift_func_int32_t_s_u+0x28>
    47fd:	83 7d f8 1f          	cmpl   $0x1f,-0x8(%rbp)
    4801:	77 0e                	ja     4811 <safe_rshift_func_int32_t_s_u+0x28>
    4803:	8b 45 f8             	mov    -0x8(%rbp),%eax
    4806:	8b 55 fc             	mov    -0x4(%rbp),%edx
    4809:	89 c1                	mov    %eax,%ecx
    480b:	d3 fa                	sar    %cl,%edx
    480d:	89 d0                	mov    %edx,%eax
    480f:	eb 03                	jmp    4814 <safe_rshift_func_int32_t_s_u+0x2b>
    4811:	8b 45 fc             	mov    -0x4(%rbp),%eax
    4814:	5d                   	pop    %rbp
    4815:	c3                   	retq   

0000000000004816 <safe_unary_minus_func_int64_t_s>:
    4816:	f3 0f 1e fa          	endbr64 
    481a:	55                   	push   %rbp
    481b:	48 89 e5             	mov    %rsp,%rbp
    481e:	48 89 7d f8          	mov    %rdi,-0x8(%rbp)
    4822:	48 b8 00 00 00 00 00 	movabs $0x8000000000000000,%rax
    4829:	00 00 80 
    482c:	48 39 45 f8          	cmp    %rax,-0x8(%rbp)
    4830:	74 09                	je     483b <safe_unary_minus_func_int64_t_s+0x25>
    4832:	48 8b 45 f8          	mov    -0x8(%rbp),%rax
    4836:	48 f7 d8             	neg    %rax
    4839:	eb 04                	jmp    483f <safe_unary_minus_func_int64_t_s+0x29>
    483b:	48 8b 45 f8          	mov    -0x8(%rbp),%rax
    483f:	5d                   	pop    %rbp
    4840:	c3                   	retq   

0000000000004841 <safe_add_func_int64_t_s_s>:
    4841:	f3 0f 1e fa          	endbr64 
    4845:	55                   	push   %rbp
    4846:	48 89 e5             	mov    %rsp,%rbp
    4849:	48 89 7d f8          	mov    %rdi,-0x8(%rbp)
    484d:	48 89 75 f0          	mov    %rsi,-0x10(%rbp)
    4851:	48 83 7d f8 00       	cmpq   $0x0,-0x8(%rbp)
    4856:	7e 1b                	jle    4873 <safe_add_func_int64_t_s_s+0x32>
    4858:	48 83 7d f0 00       	cmpq   $0x0,-0x10(%rbp)
    485d:	7e 14                	jle    4873 <safe_add_func_int64_t_s_s+0x32>
    485f:	48 b8 ff ff ff ff ff 	movabs $0x7fffffffffffffff,%rax
    4866:	ff ff 7f 
    4869:	48 2b 45 f0          	sub    -0x10(%rbp),%rax
    486d:	48 39 45 f8          	cmp    %rax,-0x8(%rbp)
    4871:	7f 2f                	jg     48a2 <safe_add_func_int64_t_s_s+0x61>
    4873:	48 83 7d f8 00       	cmpq   $0x0,-0x8(%rbp)
    4878:	79 1b                	jns    4895 <safe_add_func_int64_t_s_s+0x54>
    487a:	48 83 7d f0 00       	cmpq   $0x0,-0x10(%rbp)
    487f:	79 14                	jns    4895 <safe_add_func_int64_t_s_s+0x54>
    4881:	48 b8 00 00 00 00 00 	movabs $0x8000000000000000,%rax
    4888:	00 00 80 
    488b:	48 2b 45 f0          	sub    -0x10(%rbp),%rax
    488f:	48 39 45 f8          	cmp    %rax,-0x8(%rbp)
    4893:	7c 0d                	jl     48a2 <safe_add_func_int64_t_s_s+0x61>
    4895:	48 8b 55 f8          	mov    -0x8(%rbp),%rdx
    4899:	48 8b 45 f0          	mov    -0x10(%rbp),%rax
    489d:	48 01 d0             	add    %rdx,%rax
    48a0:	eb 04                	jmp    48a6 <safe_add_func_int64_t_s_s+0x65>
    48a2:	48 8b 45 f8          	mov    -0x8(%rbp),%rax
    48a6:	5d                   	pop    %rbp
    48a7:	c3                   	retq   

00000000000048a8 <safe_sub_func_int64_t_s_s>:
    48a8:	f3 0f 1e fa          	endbr64 
    48ac:	55                   	push   %rbp
    48ad:	48 89 e5             	mov    %rsp,%rbp
    48b0:	48 89 7d f8          	mov    %rdi,-0x8(%rbp)
    48b4:	48 89 75 f0          	mov    %rsi,-0x10(%rbp)
    48b8:	48 8b 45 f8          	mov    -0x8(%rbp),%rax
    48bc:	48 33 45 f0          	xor    -0x10(%rbp),%rax
    48c0:	48 89 c2             	mov    %rax,%rdx
    48c3:	48 8b 45 f8          	mov    -0x8(%rbp),%rax
    48c7:	48 33 45 f0          	xor    -0x10(%rbp),%rax
    48cb:	48 b9 00 00 00 00 00 	movabs $0x8000000000000000,%rcx
    48d2:	00 00 80 
    48d5:	48 21 c8             	and    %rcx,%rax
    48d8:	48 33 45 f8          	xor    -0x8(%rbp),%rax
    48dc:	48 2b 45 f0          	sub    -0x10(%rbp),%rax
    48e0:	48 33 45 f0          	xor    -0x10(%rbp),%rax
    48e4:	48 21 d0             	and    %rdx,%rax
    48e7:	48 85 c0             	test   %rax,%rax
    48ea:	78 0a                	js     48f6 <safe_sub_func_int64_t_s_s+0x4e>
    48ec:	48 8b 45 f8          	mov    -0x8(%rbp),%rax
    48f0:	48 2b 45 f0          	sub    -0x10(%rbp),%rax
    48f4:	eb 04                	jmp    48fa <safe_sub_func_int64_t_s_s+0x52>
    48f6:	48 8b 45 f8          	mov    -0x8(%rbp),%rax
    48fa:	5d                   	pop    %rbp
    48fb:	c3                   	retq   

00000000000048fc <safe_mul_func_int64_t_s_s>:
    48fc:	f3 0f 1e fa          	endbr64 
    4900:	55                   	push   %rbp
    4901:	48 89 e5             	mov    %rsp,%rbp
    4904:	48 89 7d f8          	mov    %rdi,-0x8(%rbp)
    4908:	48 89 75 f0          	mov    %rsi,-0x10(%rbp)
    490c:	48 83 7d f8 00       	cmpq   $0x0,-0x8(%rbp)
    4911:	7e 1d                	jle    4930 <safe_mul_func_int64_t_s_s+0x34>
    4913:	48 83 7d f0 00       	cmpq   $0x0,-0x10(%rbp)
    4918:	7e 16                	jle    4930 <safe_mul_func_int64_t_s_s+0x34>
    491a:	48 b8 ff ff ff ff ff 	movabs $0x7fffffffffffffff,%rax
    4921:	ff ff 7f 
    4924:	48 99                	cqto   
    4926:	48 f7 7d f0          	idivq  -0x10(%rbp)
    492a:	48 39 45 f8          	cmp    %rax,-0x8(%rbp)
    492e:	7f 7e                	jg     49ae <safe_mul_func_int64_t_s_s+0xb2>
    4930:	48 83 7d f8 00       	cmpq   $0x0,-0x8(%rbp)
    4935:	7e 1d                	jle    4954 <safe_mul_func_int64_t_s_s+0x58>
    4937:	48 83 7d f0 00       	cmpq   $0x0,-0x10(%rbp)
    493c:	7f 16                	jg     4954 <safe_mul_func_int64_t_s_s+0x58>
    493e:	48 b8 00 00 00 00 00 	movabs $0x8000000000000000,%rax
    4945:	00 00 80 
    4948:	48 99                	cqto   
    494a:	48 f7 7d f8          	idivq  -0x8(%rbp)
    494e:	48 39 45 f0          	cmp    %rax,-0x10(%rbp)
    4952:	7c 5a                	jl     49ae <safe_mul_func_int64_t_s_s+0xb2>
    4954:	48 83 7d f8 00       	cmpq   $0x0,-0x8(%rbp)
    4959:	7f 1d                	jg     4978 <safe_mul_func_int64_t_s_s+0x7c>
    495b:	48 83 7d f0 00       	cmpq   $0x0,-0x10(%rbp)
    4960:	7e 16                	jle    4978 <safe_mul_func_int64_t_s_s+0x7c>
    4962:	48 b8 00 00 00 00 00 	movabs $0x8000000000000000,%rax
    4969:	00 00 80 
    496c:	48 99                	cqto   
    496e:	48 f7 7d f0          	idivq  -0x10(%rbp)
    4972:	48 39 45 f8          	cmp    %rax,-0x8(%rbp)
    4976:	7c 36                	jl     49ae <safe_mul_func_int64_t_s_s+0xb2>
    4978:	48 83 7d f8 00       	cmpq   $0x0,-0x8(%rbp)
    497d:	7f 24                	jg     49a3 <safe_mul_func_int64_t_s_s+0xa7>
    497f:	48 83 7d f0 00       	cmpq   $0x0,-0x10(%rbp)
    4984:	7f 1d                	jg     49a3 <safe_mul_func_int64_t_s_s+0xa7>
    4986:	48 83 7d f8 00       	cmpq   $0x0,-0x8(%rbp)
    498b:	74 16                	je     49a3 <safe_mul_func_int64_t_s_s+0xa7>
    498d:	48 b8 ff ff ff ff ff 	movabs $0x7fffffffffffffff,%rax
    4994:	ff ff 7f 
    4997:	48 99                	cqto   
    4999:	48 f7 7d f8          	idivq  -0x8(%rbp)
    499d:	48 39 45 f0          	cmp    %rax,-0x10(%rbp)
    49a1:	7c 0b                	jl     49ae <safe_mul_func_int64_t_s_s+0xb2>
    49a3:	48 8b 45 f8          	mov    -0x8(%rbp),%rax
    49a7:	48 0f af 45 f0       	imul   -0x10(%rbp),%rax
    49ac:	eb 04                	jmp    49b2 <safe_mul_func_int64_t_s_s+0xb6>
    49ae:	48 8b 45 f8          	mov    -0x8(%rbp),%rax
    49b2:	5d                   	pop    %rbp
    49b3:	c3                   	retq   

00000000000049b4 <safe_mod_func_int64_t_s_s>:
    49b4:	f3 0f 1e fa          	endbr64 
    49b8:	55                   	push   %rbp
    49b9:	48 89 e5             	mov    %rsp,%rbp
    49bc:	48 89 7d f8          	mov    %rdi,-0x8(%rbp)
    49c0:	48 89 75 f0          	mov    %rsi,-0x10(%rbp)
    49c4:	48 83 7d f0 00       	cmpq   $0x0,-0x10(%rbp)
    49c9:	74 26                	je     49f1 <safe_mod_func_int64_t_s_s+0x3d>
    49cb:	48 b8 00 00 00 00 00 	movabs $0x8000000000000000,%rax
    49d2:	00 00 80 
    49d5:	48 39 45 f8          	cmp    %rax,-0x8(%rbp)
    49d9:	75 07                	jne    49e2 <safe_mod_func_int64_t_s_s+0x2e>
    49db:	48 83 7d f0 ff       	cmpq   $0xffffffffffffffff,-0x10(%rbp)
    49e0:	74 0f                	je     49f1 <safe_mod_func_int64_t_s_s+0x3d>
    49e2:	48 8b 45 f8          	mov    -0x8(%rbp),%rax
    49e6:	48 99                	cqto   
    49e8:	48 f7 7d f0          	idivq  -0x10(%rbp)
    49ec:	48 89 d0             	mov    %rdx,%rax
    49ef:	eb 04                	jmp    49f5 <safe_mod_func_int64_t_s_s+0x41>
    49f1:	48 8b 45 f8          	mov    -0x8(%rbp),%rax
    49f5:	5d                   	pop    %rbp
    49f6:	c3                   	retq   

00000000000049f7 <safe_div_func_int64_t_s_s>:
    49f7:	f3 0f 1e fa          	endbr64 
    49fb:	55                   	push   %rbp
    49fc:	48 89 e5             	mov    %rsp,%rbp
    49ff:	48 89 7d f8          	mov    %rdi,-0x8(%rbp)
    4a03:	48 89 75 f0          	mov    %rsi,-0x10(%rbp)
    4a07:	48 83 7d f0 00       	cmpq   $0x0,-0x10(%rbp)
    4a0c:	74 23                	je     4a31 <safe_div_func_int64_t_s_s+0x3a>
    4a0e:	48 b8 00 00 00 00 00 	movabs $0x8000000000000000,%rax
    4a15:	00 00 80 
    4a18:	48 39 45 f8          	cmp    %rax,-0x8(%rbp)
    4a1c:	75 07                	jne    4a25 <safe_div_func_int64_t_s_s+0x2e>
    4a1e:	48 83 7d f0 ff       	cmpq   $0xffffffffffffffff,-0x10(%rbp)
    4a23:	74 0c                	je     4a31 <safe_div_func_int64_t_s_s+0x3a>
    4a25:	48 8b 45 f8          	mov    -0x8(%rbp),%rax
    4a29:	48 99                	cqto   
    4a2b:	48 f7 7d f0          	idivq  -0x10(%rbp)
    4a2f:	eb 04                	jmp    4a35 <safe_div_func_int64_t_s_s+0x3e>
    4a31:	48 8b 45 f8          	mov    -0x8(%rbp),%rax
    4a35:	5d                   	pop    %rbp
    4a36:	c3                   	retq   

0000000000004a37 <safe_lshift_func_int64_t_s_s>:
    4a37:	f3 0f 1e fa          	endbr64 
    4a3b:	55                   	push   %rbp
    4a3c:	48 89 e5             	mov    %rsp,%rbp
    4a3f:	48 89 7d f8          	mov    %rdi,-0x8(%rbp)
    4a43:	89 75 f4             	mov    %esi,-0xc(%rbp)
    4a46:	48 83 7d f8 00       	cmpq   $0x0,-0x8(%rbp)
    4a4b:	78 38                	js     4a85 <safe_lshift_func_int64_t_s_s+0x4e>
    4a4d:	83 7d f4 00          	cmpl   $0x0,-0xc(%rbp)
    4a51:	78 32                	js     4a85 <safe_lshift_func_int64_t_s_s+0x4e>
    4a53:	83 7d f4 1f          	cmpl   $0x1f,-0xc(%rbp)
    4a57:	7f 2c                	jg     4a85 <safe_lshift_func_int64_t_s_s+0x4e>
    4a59:	8b 45 f4             	mov    -0xc(%rbp),%eax
    4a5c:	48 ba ff ff ff ff ff 	movabs $0x7fffffffffffffff,%rdx
    4a63:	ff ff 7f 
    4a66:	89 c1                	mov    %eax,%ecx
    4a68:	48 d3 fa             	sar    %cl,%rdx
    4a6b:	48 89 d0             	mov    %rdx,%rax
    4a6e:	48 39 45 f8          	cmp    %rax,-0x8(%rbp)
    4a72:	7f 11                	jg     4a85 <safe_lshift_func_int64_t_s_s+0x4e>
    4a74:	8b 45 f4             	mov    -0xc(%rbp),%eax
    4a77:	48 8b 55 f8          	mov    -0x8(%rbp),%rdx
    4a7b:	89 c1                	mov    %eax,%ecx
    4a7d:	48 d3 e2             	shl    %cl,%rdx
    4a80:	48 89 d0             	mov    %rdx,%rax
    4a83:	eb 04                	jmp    4a89 <safe_lshift_func_int64_t_s_s+0x52>
    4a85:	48 8b 45 f8          	mov    -0x8(%rbp),%rax
    4a89:	5d                   	pop    %rbp
    4a8a:	c3                   	retq   

0000000000004a8b <safe_lshift_func_int64_t_s_u>:
    4a8b:	f3 0f 1e fa          	endbr64 
    4a8f:	55                   	push   %rbp
    4a90:	48 89 e5             	mov    %rsp,%rbp
    4a93:	48 89 7d f8          	mov    %rdi,-0x8(%rbp)
    4a97:	89 75 f4             	mov    %esi,-0xc(%rbp)
    4a9a:	48 83 7d f8 00       	cmpq   $0x0,-0x8(%rbp)
    4a9f:	78 32                	js     4ad3 <safe_lshift_func_int64_t_s_u+0x48>
    4aa1:	83 7d f4 1f          	cmpl   $0x1f,-0xc(%rbp)
    4aa5:	77 2c                	ja     4ad3 <safe_lshift_func_int64_t_s_u+0x48>
    4aa7:	8b 45 f4             	mov    -0xc(%rbp),%eax
    4aaa:	48 ba ff ff ff ff ff 	movabs $0x7fffffffffffffff,%rdx
    4ab1:	ff ff 7f 
    4ab4:	89 c1                	mov    %eax,%ecx
    4ab6:	48 d3 fa             	sar    %cl,%rdx
    4ab9:	48 89 d0             	mov    %rdx,%rax
    4abc:	48 39 45 f8          	cmp    %rax,-0x8(%rbp)
    4ac0:	7f 11                	jg     4ad3 <safe_lshift_func_int64_t_s_u+0x48>
    4ac2:	8b 45 f4             	mov    -0xc(%rbp),%eax
    4ac5:	48 8b 55 f8          	mov    -0x8(%rbp),%rdx
    4ac9:	89 c1                	mov    %eax,%ecx
    4acb:	48 d3 e2             	shl    %cl,%rdx
    4ace:	48 89 d0             	mov    %rdx,%rax
    4ad1:	eb 04                	jmp    4ad7 <safe_lshift_func_int64_t_s_u+0x4c>
    4ad3:	48 8b 45 f8          	mov    -0x8(%rbp),%rax
    4ad7:	5d                   	pop    %rbp
    4ad8:	c3                   	retq   

0000000000004ad9 <safe_rshift_func_int64_t_s_s>:
    4ad9:	f3 0f 1e fa          	endbr64 
    4add:	55                   	push   %rbp
    4ade:	48 89 e5             	mov    %rsp,%rbp
    4ae1:	48 89 7d f8          	mov    %rdi,-0x8(%rbp)
    4ae5:	89 75 f4             	mov    %esi,-0xc(%rbp)
    4ae8:	48 83 7d f8 00       	cmpq   $0x0,-0x8(%rbp)
    4aed:	78 1d                	js     4b0c <safe_rshift_func_int64_t_s_s+0x33>
    4aef:	83 7d f4 00          	cmpl   $0x0,-0xc(%rbp)
    4af3:	78 17                	js     4b0c <safe_rshift_func_int64_t_s_s+0x33>
    4af5:	83 7d f4 1f          	cmpl   $0x1f,-0xc(%rbp)
    4af9:	7f 11                	jg     4b0c <safe_rshift_func_int64_t_s_s+0x33>
    4afb:	8b 45 f4             	mov    -0xc(%rbp),%eax
    4afe:	48 8b 55 f8          	mov    -0x8(%rbp),%rdx
    4b02:	89 c1                	mov    %eax,%ecx
    4b04:	48 d3 fa             	sar    %cl,%rdx
    4b07:	48 89 d0             	mov    %rdx,%rax
    4b0a:	eb 04                	jmp    4b10 <safe_rshift_func_int64_t_s_s+0x37>
    4b0c:	48 8b 45 f8          	mov    -0x8(%rbp),%rax
    4b10:	5d                   	pop    %rbp
    4b11:	c3                   	retq   

0000000000004b12 <safe_rshift_func_int64_t_s_u>:
    4b12:	f3 0f 1e fa          	endbr64 
    4b16:	55                   	push   %rbp
    4b17:	48 89 e5             	mov    %rsp,%rbp
    4b1a:	48 89 7d f8          	mov    %rdi,-0x8(%rbp)
    4b1e:	89 75 f4             	mov    %esi,-0xc(%rbp)
    4b21:	48 83 7d f8 00       	cmpq   $0x0,-0x8(%rbp)
    4b26:	78 17                	js     4b3f <safe_rshift_func_int64_t_s_u+0x2d>
    4b28:	83 7d f4 1f          	cmpl   $0x1f,-0xc(%rbp)
    4b2c:	77 11                	ja     4b3f <safe_rshift_func_int64_t_s_u+0x2d>
    4b2e:	8b 45 f4             	mov    -0xc(%rbp),%eax
    4b31:	48 8b 55 f8          	mov    -0x8(%rbp),%rdx
    4b35:	89 c1                	mov    %eax,%ecx
    4b37:	48 d3 fa             	sar    %cl,%rdx
    4b3a:	48 89 d0             	mov    %rdx,%rax
    4b3d:	eb 04                	jmp    4b43 <safe_rshift_func_int64_t_s_u+0x31>
    4b3f:	48 8b 45 f8          	mov    -0x8(%rbp),%rax
    4b43:	5d                   	pop    %rbp
    4b44:	c3                   	retq   

0000000000004b45 <safe_unary_minus_func_uint8_t_u>:
    4b45:	f3 0f 1e fa          	endbr64 
    4b49:	55                   	push   %rbp
    4b4a:	48 89 e5             	mov    %rsp,%rbp
    4b4d:	89 f8                	mov    %edi,%eax
    4b4f:	88 45 fc             	mov    %al,-0x4(%rbp)
    4b52:	0f b6 45 fc          	movzbl -0x4(%rbp),%eax
    4b56:	f7 d8                	neg    %eax
    4b58:	5d                   	pop    %rbp
    4b59:	c3                   	retq   

0000000000004b5a <safe_add_func_uint8_t_u_u>:
    4b5a:	f3 0f 1e fa          	endbr64 
    4b5e:	55                   	push   %rbp
    4b5f:	48 89 e5             	mov    %rsp,%rbp
    4b62:	89 fa                	mov    %edi,%edx
    4b64:	89 f0                	mov    %esi,%eax
    4b66:	88 55 fc             	mov    %dl,-0x4(%rbp)
    4b69:	88 45 f8             	mov    %al,-0x8(%rbp)
    4b6c:	0f b6 55 fc          	movzbl -0x4(%rbp),%edx
    4b70:	0f b6 45 f8          	movzbl -0x8(%rbp),%eax
    4b74:	01 d0                	add    %edx,%eax
    4b76:	5d                   	pop    %rbp
    4b77:	c3                   	retq   

0000000000004b78 <safe_sub_func_uint8_t_u_u>:
    4b78:	f3 0f 1e fa          	endbr64 
    4b7c:	55                   	push   %rbp
    4b7d:	48 89 e5             	mov    %rsp,%rbp
    4b80:	89 fa                	mov    %edi,%edx
    4b82:	89 f0                	mov    %esi,%eax
    4b84:	88 55 fc             	mov    %dl,-0x4(%rbp)
    4b87:	88 45 f8             	mov    %al,-0x8(%rbp)
    4b8a:	0f b6 45 fc          	movzbl -0x4(%rbp),%eax
    4b8e:	2a 45 f8             	sub    -0x8(%rbp),%al
    4b91:	5d                   	pop    %rbp
    4b92:	c3                   	retq   

0000000000004b93 <safe_mul_func_uint8_t_u_u>:
    4b93:	f3 0f 1e fa          	endbr64 
    4b97:	55                   	push   %rbp
    4b98:	48 89 e5             	mov    %rsp,%rbp
    4b9b:	89 fa                	mov    %edi,%edx
    4b9d:	89 f0                	mov    %esi,%eax
    4b9f:	88 55 fc             	mov    %dl,-0x4(%rbp)
    4ba2:	88 45 f8             	mov    %al,-0x8(%rbp)
    4ba5:	0f b6 45 fc          	movzbl -0x4(%rbp),%eax
    4ba9:	f6 65 f8             	mulb   -0x8(%rbp)
    4bac:	5d                   	pop    %rbp
    4bad:	c3                   	retq   

0000000000004bae <safe_mod_func_uint8_t_u_u>:
    4bae:	f3 0f 1e fa          	endbr64 
    4bb2:	55                   	push   %rbp
    4bb3:	48 89 e5             	mov    %rsp,%rbp
    4bb6:	89 fa                	mov    %edi,%edx
    4bb8:	89 f0                	mov    %esi,%eax
    4bba:	88 55 fc             	mov    %dl,-0x4(%rbp)
    4bbd:	88 45 f8             	mov    %al,-0x8(%rbp)
    4bc0:	80 7d f8 00          	cmpb   $0x0,-0x8(%rbp)
    4bc4:	74 0f                	je     4bd5 <safe_mod_func_uint8_t_u_u+0x27>
    4bc6:	0f b6 45 fc          	movzbl -0x4(%rbp),%eax
    4bca:	0f b6 c0             	movzbl %al,%eax
    4bcd:	f6 75 f8             	divb   -0x8(%rbp)
    4bd0:	0f b6 c4             	movzbl %ah,%eax
    4bd3:	eb 04                	jmp    4bd9 <safe_mod_func_uint8_t_u_u+0x2b>
    4bd5:	0f b6 45 fc          	movzbl -0x4(%rbp),%eax
    4bd9:	5d                   	pop    %rbp
    4bda:	c3                   	retq   

0000000000004bdb <safe_div_func_uint8_t_u_u>:
    4bdb:	f3 0f 1e fa          	endbr64 
    4bdf:	55                   	push   %rbp
    4be0:	48 89 e5             	mov    %rsp,%rbp
    4be3:	89 fa                	mov    %edi,%edx
    4be5:	89 f0                	mov    %esi,%eax
    4be7:	88 55 fc             	mov    %dl,-0x4(%rbp)
    4bea:	88 45 f8             	mov    %al,-0x8(%rbp)
    4bed:	80 7d f8 00          	cmpb   $0x0,-0x8(%rbp)
    4bf1:	74 0c                	je     4bff <safe_div_func_uint8_t_u_u+0x24>
    4bf3:	0f b6 45 fc          	movzbl -0x4(%rbp),%eax
    4bf7:	0f b6 c0             	movzbl %al,%eax
    4bfa:	f6 75 f8             	divb   -0x8(%rbp)
    4bfd:	eb 04                	jmp    4c03 <safe_div_func_uint8_t_u_u+0x28>
    4bff:	0f b6 45 fc          	movzbl -0x4(%rbp),%eax
    4c03:	5d                   	pop    %rbp
    4c04:	c3                   	retq   

0000000000004c05 <safe_lshift_func_uint8_t_u_s>:
    4c05:	f3 0f 1e fa          	endbr64 
    4c09:	55                   	push   %rbp
    4c0a:	48 89 e5             	mov    %rsp,%rbp
    4c0d:	89 f8                	mov    %edi,%eax
    4c0f:	89 75 f8             	mov    %esi,-0x8(%rbp)
    4c12:	88 45 fc             	mov    %al,-0x4(%rbp)
    4c15:	83 7d f8 00          	cmpl   $0x0,-0x8(%rbp)
    4c19:	78 2b                	js     4c46 <safe_lshift_func_uint8_t_u_s+0x41>
    4c1b:	83 7d f8 1f          	cmpl   $0x1f,-0x8(%rbp)
    4c1f:	7f 25                	jg     4c46 <safe_lshift_func_uint8_t_u_s+0x41>
    4c21:	0f b6 55 fc          	movzbl -0x4(%rbp),%edx
    4c25:	8b 45 f8             	mov    -0x8(%rbp),%eax
    4c28:	be ff 00 00 00       	mov    $0xff,%esi
    4c2d:	89 c1                	mov    %eax,%ecx
    4c2f:	d3 fe                	sar    %cl,%esi
    4c31:	89 f0                	mov    %esi,%eax
    4c33:	39 c2                	cmp    %eax,%edx
    4c35:	7f 0f                	jg     4c46 <safe_lshift_func_uint8_t_u_s+0x41>
    4c37:	0f b6 55 fc          	movzbl -0x4(%rbp),%edx
    4c3b:	8b 45 f8             	mov    -0x8(%rbp),%eax
    4c3e:	89 c1                	mov    %eax,%ecx
    4c40:	d3 e2                	shl    %cl,%edx
    4c42:	89 d0                	mov    %edx,%eax
    4c44:	eb 04                	jmp    4c4a <safe_lshift_func_uint8_t_u_s+0x45>
    4c46:	0f b6 45 fc          	movzbl -0x4(%rbp),%eax
    4c4a:	5d                   	pop    %rbp
    4c4b:	c3                   	retq   

0000000000004c4c <safe_lshift_func_uint8_t_u_u>:
    4c4c:	f3 0f 1e fa          	endbr64 
    4c50:	55                   	push   %rbp
    4c51:	48 89 e5             	mov    %rsp,%rbp
    4c54:	89 f8                	mov    %edi,%eax
    4c56:	89 75 f8             	mov    %esi,-0x8(%rbp)
    4c59:	88 45 fc             	mov    %al,-0x4(%rbp)
    4c5c:	83 7d f8 1f          	cmpl   $0x1f,-0x8(%rbp)
    4c60:	77 25                	ja     4c87 <safe_lshift_func_uint8_t_u_u+0x3b>
    4c62:	0f b6 55 fc          	movzbl -0x4(%rbp),%edx
    4c66:	8b 45 f8             	mov    -0x8(%rbp),%eax
    4c69:	be ff 00 00 00       	mov    $0xff,%esi
    4c6e:	89 c1                	mov    %eax,%ecx
    4c70:	d3 fe                	sar    %cl,%esi
    4c72:	89 f0                	mov    %esi,%eax
    4c74:	39 c2                	cmp    %eax,%edx
    4c76:	7f 0f                	jg     4c87 <safe_lshift_func_uint8_t_u_u+0x3b>
    4c78:	0f b6 55 fc          	movzbl -0x4(%rbp),%edx
    4c7c:	8b 45 f8             	mov    -0x8(%rbp),%eax
    4c7f:	89 c1                	mov    %eax,%ecx
    4c81:	d3 e2                	shl    %cl,%edx
    4c83:	89 d0                	mov    %edx,%eax
    4c85:	eb 04                	jmp    4c8b <safe_lshift_func_uint8_t_u_u+0x3f>
    4c87:	0f b6 45 fc          	movzbl -0x4(%rbp),%eax
    4c8b:	5d                   	pop    %rbp
    4c8c:	c3                   	retq   

0000000000004c8d <safe_rshift_func_uint8_t_u_s>:
    4c8d:	f3 0f 1e fa          	endbr64 
    4c91:	55                   	push   %rbp
    4c92:	48 89 e5             	mov    %rsp,%rbp
    4c95:	89 f8                	mov    %edi,%eax
    4c97:	89 75 f8             	mov    %esi,-0x8(%rbp)
    4c9a:	88 45 fc             	mov    %al,-0x4(%rbp)
    4c9d:	83 7d f8 00          	cmpl   $0x0,-0x8(%rbp)
    4ca1:	78 15                	js     4cb8 <safe_rshift_func_uint8_t_u_s+0x2b>
    4ca3:	83 7d f8 1f          	cmpl   $0x1f,-0x8(%rbp)
    4ca7:	7f 0f                	jg     4cb8 <safe_rshift_func_uint8_t_u_s+0x2b>
    4ca9:	0f b6 55 fc          	movzbl -0x4(%rbp),%edx
    4cad:	8b 45 f8             	mov    -0x8(%rbp),%eax
    4cb0:	89 c1                	mov    %eax,%ecx
    4cb2:	d3 fa                	sar    %cl,%edx
    4cb4:	89 d0                	mov    %edx,%eax
    4cb6:	eb 04                	jmp    4cbc <safe_rshift_func_uint8_t_u_s+0x2f>
    4cb8:	0f b6 45 fc          	movzbl -0x4(%rbp),%eax
    4cbc:	5d                   	pop    %rbp
    4cbd:	c3                   	retq   

0000000000004cbe <safe_rshift_func_uint8_t_u_u>:
    4cbe:	f3 0f 1e fa          	endbr64 
    4cc2:	55                   	push   %rbp
    4cc3:	48 89 e5             	mov    %rsp,%rbp
    4cc6:	89 f8                	mov    %edi,%eax
    4cc8:	89 75 f8             	mov    %esi,-0x8(%rbp)
    4ccb:	88 45 fc             	mov    %al,-0x4(%rbp)
    4cce:	83 7d f8 1f          	cmpl   $0x1f,-0x8(%rbp)
    4cd2:	77 0f                	ja     4ce3 <safe_rshift_func_uint8_t_u_u+0x25>
    4cd4:	0f b6 55 fc          	movzbl -0x4(%rbp),%edx
    4cd8:	8b 45 f8             	mov    -0x8(%rbp),%eax
    4cdb:	89 c1                	mov    %eax,%ecx
    4cdd:	d3 fa                	sar    %cl,%edx
    4cdf:	89 d0                	mov    %edx,%eax
    4ce1:	eb 04                	jmp    4ce7 <safe_rshift_func_uint8_t_u_u+0x29>
    4ce3:	0f b6 45 fc          	movzbl -0x4(%rbp),%eax
    4ce7:	5d                   	pop    %rbp
    4ce8:	c3                   	retq   

0000000000004ce9 <safe_unary_minus_func_uint16_t_u>:
    4ce9:	f3 0f 1e fa          	endbr64 
    4ced:	55                   	push   %rbp
    4cee:	48 89 e5             	mov    %rsp,%rbp
    4cf1:	89 f8                	mov    %edi,%eax
    4cf3:	66 89 45 fc          	mov    %ax,-0x4(%rbp)
    4cf7:	0f b7 45 fc          	movzwl -0x4(%rbp),%eax
    4cfb:	f7 d8                	neg    %eax
    4cfd:	5d                   	pop    %rbp
    4cfe:	c3                   	retq   

0000000000004cff <safe_add_func_uint16_t_u_u>:
    4cff:	f3 0f 1e fa          	endbr64 
    4d03:	55                   	push   %rbp
    4d04:	48 89 e5             	mov    %rsp,%rbp
    4d07:	89 fa                	mov    %edi,%edx
    4d09:	89 f0                	mov    %esi,%eax
    4d0b:	66 89 55 fc          	mov    %dx,-0x4(%rbp)
    4d0f:	66 89 45 f8          	mov    %ax,-0x8(%rbp)
    4d13:	0f b7 55 fc          	movzwl -0x4(%rbp),%edx
    4d17:	0f b7 45 f8          	movzwl -0x8(%rbp),%eax
    4d1b:	01 d0                	add    %edx,%eax
    4d1d:	5d                   	pop    %rbp
    4d1e:	c3                   	retq   

0000000000004d1f <safe_sub_func_uint16_t_u_u>:
    4d1f:	f3 0f 1e fa          	endbr64 
    4d23:	55                   	push   %rbp
    4d24:	48 89 e5             	mov    %rsp,%rbp
    4d27:	89 fa                	mov    %edi,%edx
    4d29:	89 f0                	mov    %esi,%eax
    4d2b:	66 89 55 fc          	mov    %dx,-0x4(%rbp)
    4d2f:	66 89 45 f8          	mov    %ax,-0x8(%rbp)
    4d33:	0f b7 45 fc          	movzwl -0x4(%rbp),%eax
    4d37:	66 2b 45 f8          	sub    -0x8(%rbp),%ax
    4d3b:	5d                   	pop    %rbp
    4d3c:	c3                   	retq   

0000000000004d3d <safe_mul_func_uint16_t_u_u>:
    4d3d:	f3 0f 1e fa          	endbr64 
    4d41:	55                   	push   %rbp
    4d42:	48 89 e5             	mov    %rsp,%rbp
    4d45:	89 fa                	mov    %edi,%edx
    4d47:	89 f0                	mov    %esi,%eax
    4d49:	66 89 55 fc          	mov    %dx,-0x4(%rbp)
    4d4d:	66 89 45 f8          	mov    %ax,-0x8(%rbp)
    4d51:	0f b7 45 fc          	movzwl -0x4(%rbp),%eax
    4d55:	66 0f af 45 f8       	imul   -0x8(%rbp),%ax
    4d5a:	5d                   	pop    %rbp
    4d5b:	c3                   	retq   

0000000000004d5c <safe_mod_func_uint16_t_u_u>:
    4d5c:	f3 0f 1e fa          	endbr64 
    4d60:	55                   	push   %rbp
    4d61:	48 89 e5             	mov    %rsp,%rbp
    4d64:	89 fa                	mov    %edi,%edx
    4d66:	89 f0                	mov    %esi,%eax
    4d68:	66 89 55 fc          	mov    %dx,-0x4(%rbp)
    4d6c:	66 89 45 f8          	mov    %ax,-0x8(%rbp)
    4d70:	66 83 7d f8 00       	cmpw   $0x0,-0x8(%rbp)
    4d75:	74 11                	je     4d88 <safe_mod_func_uint16_t_u_u+0x2c>
    4d77:	0f b7 45 fc          	movzwl -0x4(%rbp),%eax
    4d7b:	ba 00 00 00 00       	mov    $0x0,%edx
    4d80:	66 f7 75 f8          	divw   -0x8(%rbp)
    4d84:	89 d0                	mov    %edx,%eax
    4d86:	eb 04                	jmp    4d8c <safe_mod_func_uint16_t_u_u+0x30>
    4d88:	0f b7 45 fc          	movzwl -0x4(%rbp),%eax
    4d8c:	5d                   	pop    %rbp
    4d8d:	c3                   	retq   

0000000000004d8e <safe_div_func_uint16_t_u_u>:
    4d8e:	f3 0f 1e fa          	endbr64 
    4d92:	55                   	push   %rbp
    4d93:	48 89 e5             	mov    %rsp,%rbp
    4d96:	89 fa                	mov    %edi,%edx
    4d98:	89 f0                	mov    %esi,%eax
    4d9a:	66 89 55 fc          	mov    %dx,-0x4(%rbp)
    4d9e:	66 89 45 f8          	mov    %ax,-0x8(%rbp)
    4da2:	66 83 7d f8 00       	cmpw   $0x0,-0x8(%rbp)
    4da7:	74 0f                	je     4db8 <safe_div_func_uint16_t_u_u+0x2a>
    4da9:	0f b7 45 fc          	movzwl -0x4(%rbp),%eax
    4dad:	ba 00 00 00 00       	mov    $0x0,%edx
    4db2:	66 f7 75 f8          	divw   -0x8(%rbp)
    4db6:	eb 04                	jmp    4dbc <safe_div_func_uint16_t_u_u+0x2e>
    4db8:	0f b7 45 fc          	movzwl -0x4(%rbp),%eax
    4dbc:	5d                   	pop    %rbp
    4dbd:	c3                   	retq   

0000000000004dbe <safe_lshift_func_uint16_t_u_s>:
    4dbe:	f3 0f 1e fa          	endbr64 
    4dc2:	55                   	push   %rbp
    4dc3:	48 89 e5             	mov    %rsp,%rbp
    4dc6:	89 f8                	mov    %edi,%eax
    4dc8:	89 75 f8             	mov    %esi,-0x8(%rbp)
    4dcb:	66 89 45 fc          	mov    %ax,-0x4(%rbp)
    4dcf:	83 7d f8 00          	cmpl   $0x0,-0x8(%rbp)
    4dd3:	78 2b                	js     4e00 <safe_lshift_func_uint16_t_u_s+0x42>
    4dd5:	83 7d f8 1f          	cmpl   $0x1f,-0x8(%rbp)
    4dd9:	7f 25                	jg     4e00 <safe_lshift_func_uint16_t_u_s+0x42>
    4ddb:	0f b7 55 fc          	movzwl -0x4(%rbp),%edx
    4ddf:	8b 45 f8             	mov    -0x8(%rbp),%eax
    4de2:	be ff ff 00 00       	mov    $0xffff,%esi
    4de7:	89 c1                	mov    %eax,%ecx
    4de9:	d3 fe                	sar    %cl,%esi
    4deb:	89 f0                	mov    %esi,%eax
    4ded:	39 c2                	cmp    %eax,%edx
    4def:	7f 0f                	jg     4e00 <safe_lshift_func_uint16_t_u_s+0x42>
    4df1:	0f b7 55 fc          	movzwl -0x4(%rbp),%edx
    4df5:	8b 45 f8             	mov    -0x8(%rbp),%eax
    4df8:	89 c1                	mov    %eax,%ecx
    4dfa:	d3 e2                	shl    %cl,%edx
    4dfc:	89 d0                	mov    %edx,%eax
    4dfe:	eb 04                	jmp    4e04 <safe_lshift_func_uint16_t_u_s+0x46>
    4e00:	0f b7 45 fc          	movzwl -0x4(%rbp),%eax
    4e04:	5d                   	pop    %rbp
    4e05:	c3                   	retq   

0000000000004e06 <safe_lshift_func_uint16_t_u_u>:
    4e06:	f3 0f 1e fa          	endbr64 
    4e0a:	55                   	push   %rbp
    4e0b:	48 89 e5             	mov    %rsp,%rbp
    4e0e:	89 f8                	mov    %edi,%eax
    4e10:	89 75 f8             	mov    %esi,-0x8(%rbp)
    4e13:	66 89 45 fc          	mov    %ax,-0x4(%rbp)
    4e17:	83 7d f8 1f          	cmpl   $0x1f,-0x8(%rbp)
    4e1b:	77 25                	ja     4e42 <safe_lshift_func_uint16_t_u_u+0x3c>
    4e1d:	0f b7 55 fc          	movzwl -0x4(%rbp),%edx
    4e21:	8b 45 f8             	mov    -0x8(%rbp),%eax
    4e24:	be ff ff 00 00       	mov    $0xffff,%esi
    4e29:	89 c1                	mov    %eax,%ecx
    4e2b:	d3 fe                	sar    %cl,%esi
    4e2d:	89 f0                	mov    %esi,%eax
    4e2f:	39 c2                	cmp    %eax,%edx
    4e31:	7f 0f                	jg     4e42 <safe_lshift_func_uint16_t_u_u+0x3c>
    4e33:	0f b7 55 fc          	movzwl -0x4(%rbp),%edx
    4e37:	8b 45 f8             	mov    -0x8(%rbp),%eax
    4e3a:	89 c1                	mov    %eax,%ecx
    4e3c:	d3 e2                	shl    %cl,%edx
    4e3e:	89 d0                	mov    %edx,%eax
    4e40:	eb 04                	jmp    4e46 <safe_lshift_func_uint16_t_u_u+0x40>
    4e42:	0f b7 45 fc          	movzwl -0x4(%rbp),%eax
    4e46:	5d                   	pop    %rbp
    4e47:	c3                   	retq   

0000000000004e48 <safe_rshift_func_uint16_t_u_s>:
    4e48:	f3 0f 1e fa          	endbr64 
    4e4c:	55                   	push   %rbp
    4e4d:	48 89 e5             	mov    %rsp,%rbp
    4e50:	89 f8                	mov    %edi,%eax
    4e52:	89 75 f8             	mov    %esi,-0x8(%rbp)
    4e55:	66 89 45 fc          	mov    %ax,-0x4(%rbp)
    4e59:	83 7d f8 00          	cmpl   $0x0,-0x8(%rbp)
    4e5d:	78 15                	js     4e74 <safe_rshift_func_uint16_t_u_s+0x2c>
    4e5f:	83 7d f8 1f          	cmpl   $0x1f,-0x8(%rbp)
    4e63:	7f 0f                	jg     4e74 <safe_rshift_func_uint16_t_u_s+0x2c>
    4e65:	0f b7 55 fc          	movzwl -0x4(%rbp),%edx
    4e69:	8b 45 f8             	mov    -0x8(%rbp),%eax
    4e6c:	89 c1                	mov    %eax,%ecx
    4e6e:	d3 fa                	sar    %cl,%edx
    4e70:	89 d0                	mov    %edx,%eax
    4e72:	eb 04                	jmp    4e78 <safe_rshift_func_uint16_t_u_s+0x30>
    4e74:	0f b7 45 fc          	movzwl -0x4(%rbp),%eax
    4e78:	5d                   	pop    %rbp
    4e79:	c3                   	retq   

0000000000004e7a <safe_rshift_func_uint16_t_u_u>:
    4e7a:	f3 0f 1e fa          	endbr64 
    4e7e:	55                   	push   %rbp
    4e7f:	48 89 e5             	mov    %rsp,%rbp
    4e82:	89 f8                	mov    %edi,%eax
    4e84:	89 75 f8             	mov    %esi,-0x8(%rbp)
    4e87:	66 89 45 fc          	mov    %ax,-0x4(%rbp)
    4e8b:	83 7d f8 1f          	cmpl   $0x1f,-0x8(%rbp)
    4e8f:	77 0f                	ja     4ea0 <safe_rshift_func_uint16_t_u_u+0x26>
    4e91:	0f b7 55 fc          	movzwl -0x4(%rbp),%edx
    4e95:	8b 45 f8             	mov    -0x8(%rbp),%eax
    4e98:	89 c1                	mov    %eax,%ecx
    4e9a:	d3 fa                	sar    %cl,%edx
    4e9c:	89 d0                	mov    %edx,%eax
    4e9e:	eb 04                	jmp    4ea4 <safe_rshift_func_uint16_t_u_u+0x2a>
    4ea0:	0f b7 45 fc          	movzwl -0x4(%rbp),%eax
    4ea4:	5d                   	pop    %rbp
    4ea5:	c3                   	retq   

0000000000004ea6 <safe_unary_minus_func_uint32_t_u>:
    4ea6:	f3 0f 1e fa          	endbr64 
    4eaa:	55                   	push   %rbp
    4eab:	48 89 e5             	mov    %rsp,%rbp
    4eae:	89 7d fc             	mov    %edi,-0x4(%rbp)
    4eb1:	8b 45 fc             	mov    -0x4(%rbp),%eax
    4eb4:	f7 d8                	neg    %eax
    4eb6:	5d                   	pop    %rbp
    4eb7:	c3                   	retq   

0000000000004eb8 <safe_add_func_uint32_t_u_u>:
    4eb8:	f3 0f 1e fa          	endbr64 
    4ebc:	55                   	push   %rbp
    4ebd:	48 89 e5             	mov    %rsp,%rbp
    4ec0:	89 7d fc             	mov    %edi,-0x4(%rbp)
    4ec3:	89 75 f8             	mov    %esi,-0x8(%rbp)
    4ec6:	8b 55 fc             	mov    -0x4(%rbp),%edx
    4ec9:	8b 45 f8             	mov    -0x8(%rbp),%eax
    4ecc:	01 d0                	add    %edx,%eax
    4ece:	5d                   	pop    %rbp
    4ecf:	c3                   	retq   

0000000000004ed0 <safe_sub_func_uint32_t_u_u>:
    4ed0:	f3 0f 1e fa          	endbr64 
    4ed4:	55                   	push   %rbp
    4ed5:	48 89 e5             	mov    %rsp,%rbp
    4ed8:	89 7d fc             	mov    %edi,-0x4(%rbp)
    4edb:	89 75 f8             	mov    %esi,-0x8(%rbp)
    4ede:	8b 45 fc             	mov    -0x4(%rbp),%eax
    4ee1:	2b 45 f8             	sub    -0x8(%rbp),%eax
    4ee4:	5d                   	pop    %rbp
    4ee5:	c3                   	retq   

0000000000004ee6 <safe_mul_func_uint32_t_u_u>:
    4ee6:	f3 0f 1e fa          	endbr64 
    4eea:	55                   	push   %rbp
    4eeb:	48 89 e5             	mov    %rsp,%rbp
    4eee:	89 7d fc             	mov    %edi,-0x4(%rbp)
    4ef1:	89 75 f8             	mov    %esi,-0x8(%rbp)
    4ef4:	8b 45 fc             	mov    -0x4(%rbp),%eax
    4ef7:	0f af 45 f8          	imul   -0x8(%rbp),%eax
    4efb:	5d                   	pop    %rbp
    4efc:	c3                   	retq   

0000000000004efd <safe_mod_func_uint32_t_u_u>:
    4efd:	f3 0f 1e fa          	endbr64 
    4f01:	55                   	push   %rbp
    4f02:	48 89 e5             	mov    %rsp,%rbp
    4f05:	89 7d fc             	mov    %edi,-0x4(%rbp)
    4f08:	89 75 f8             	mov    %esi,-0x8(%rbp)
    4f0b:	83 7d f8 00          	cmpl   $0x0,-0x8(%rbp)
    4f0f:	74 0f                	je     4f20 <safe_mod_func_uint32_t_u_u+0x23>
    4f11:	8b 45 fc             	mov    -0x4(%rbp),%eax
    4f14:	ba 00 00 00 00       	mov    $0x0,%edx
    4f19:	f7 75 f8             	divl   -0x8(%rbp)
    4f1c:	89 d0                	mov    %edx,%eax
    4f1e:	eb 03                	jmp    4f23 <safe_mod_func_uint32_t_u_u+0x26>
    4f20:	8b 45 fc             	mov    -0x4(%rbp),%eax
    4f23:	5d                   	pop    %rbp
    4f24:	c3                   	retq   

0000000000004f25 <safe_div_func_uint32_t_u_u>:
    4f25:	f3 0f 1e fa          	endbr64 
    4f29:	55                   	push   %rbp
    4f2a:	48 89 e5             	mov    %rsp,%rbp
    4f2d:	89 7d fc             	mov    %edi,-0x4(%rbp)
    4f30:	89 75 f8             	mov    %esi,-0x8(%rbp)
    4f33:	83 7d f8 00          	cmpl   $0x0,-0x8(%rbp)
    4f37:	74 0d                	je     4f46 <safe_div_func_uint32_t_u_u+0x21>
    4f39:	8b 45 fc             	mov    -0x4(%rbp),%eax
    4f3c:	ba 00 00 00 00       	mov    $0x0,%edx
    4f41:	f7 75 f8             	divl   -0x8(%rbp)
    4f44:	eb 03                	jmp    4f49 <safe_div_func_uint32_t_u_u+0x24>
    4f46:	8b 45 fc             	mov    -0x4(%rbp),%eax
    4f49:	5d                   	pop    %rbp
    4f4a:	c3                   	retq   

0000000000004f4b <safe_lshift_func_uint32_t_u_s>:
    4f4b:	f3 0f 1e fa          	endbr64 
    4f4f:	55                   	push   %rbp
    4f50:	48 89 e5             	mov    %rsp,%rbp
    4f53:	89 7d fc             	mov    %edi,-0x4(%rbp)
    4f56:	89 75 f8             	mov    %esi,-0x8(%rbp)
    4f59:	83 7d f8 00          	cmpl   $0x0,-0x8(%rbp)
    4f5d:	78 27                	js     4f86 <safe_lshift_func_uint32_t_u_s+0x3b>
    4f5f:	83 7d f8 1f          	cmpl   $0x1f,-0x8(%rbp)
    4f63:	7f 21                	jg     4f86 <safe_lshift_func_uint32_t_u_s+0x3b>
    4f65:	8b 45 f8             	mov    -0x8(%rbp),%eax
    4f68:	ba ff ff ff ff       	mov    $0xffffffff,%edx
    4f6d:	89 c1                	mov    %eax,%ecx
    4f6f:	d3 ea                	shr    %cl,%edx
    4f71:	89 d0                	mov    %edx,%eax
    4f73:	39 45 fc             	cmp    %eax,-0x4(%rbp)
    4f76:	77 0e                	ja     4f86 <safe_lshift_func_uint32_t_u_s+0x3b>
    4f78:	8b 45 f8             	mov    -0x8(%rbp),%eax
    4f7b:	8b 55 fc             	mov    -0x4(%rbp),%edx
    4f7e:	89 c1                	mov    %eax,%ecx
    4f80:	d3 e2                	shl    %cl,%edx
    4f82:	89 d0                	mov    %edx,%eax
    4f84:	eb 03                	jmp    4f89 <safe_lshift_func_uint32_t_u_s+0x3e>
    4f86:	8b 45 fc             	mov    -0x4(%rbp),%eax
    4f89:	5d                   	pop    %rbp
    4f8a:	c3                   	retq   

0000000000004f8b <safe_lshift_func_uint32_t_u_u>:
    4f8b:	f3 0f 1e fa          	endbr64 
    4f8f:	55                   	push   %rbp
    4f90:	48 89 e5             	mov    %rsp,%rbp
    4f93:	89 7d fc             	mov    %edi,-0x4(%rbp)
    4f96:	89 75 f8             	mov    %esi,-0x8(%rbp)
    4f99:	83 7d f8 1f          	cmpl   $0x1f,-0x8(%rbp)
    4f9d:	77 21                	ja     4fc0 <safe_lshift_func_uint32_t_u_u+0x35>
    4f9f:	8b 45 f8             	mov    -0x8(%rbp),%eax
    4fa2:	ba ff ff ff ff       	mov    $0xffffffff,%edx
    4fa7:	89 c1                	mov    %eax,%ecx
    4fa9:	d3 ea                	shr    %cl,%edx
    4fab:	89 d0                	mov    %edx,%eax
    4fad:	39 45 fc             	cmp    %eax,-0x4(%rbp)
    4fb0:	77 0e                	ja     4fc0 <safe_lshift_func_uint32_t_u_u+0x35>
    4fb2:	8b 45 f8             	mov    -0x8(%rbp),%eax
    4fb5:	8b 55 fc             	mov    -0x4(%rbp),%edx
    4fb8:	89 c1                	mov    %eax,%ecx
    4fba:	d3 e2                	shl    %cl,%edx
    4fbc:	89 d0                	mov    %edx,%eax
    4fbe:	eb 03                	jmp    4fc3 <safe_lshift_func_uint32_t_u_u+0x38>
    4fc0:	8b 45 fc             	mov    -0x4(%rbp),%eax
    4fc3:	5d                   	pop    %rbp
    4fc4:	c3                   	retq   

0000000000004fc5 <safe_rshift_func_uint32_t_u_s>:
    4fc5:	f3 0f 1e fa          	endbr64 
    4fc9:	55                   	push   %rbp
    4fca:	48 89 e5             	mov    %rsp,%rbp
    4fcd:	89 7d fc             	mov    %edi,-0x4(%rbp)
    4fd0:	89 75 f8             	mov    %esi,-0x8(%rbp)
    4fd3:	83 7d f8 00          	cmpl   $0x0,-0x8(%rbp)
    4fd7:	78 14                	js     4fed <safe_rshift_func_uint32_t_u_s+0x28>
    4fd9:	83 7d f8 1f          	cmpl   $0x1f,-0x8(%rbp)
    4fdd:	7f 0e                	jg     4fed <safe_rshift_func_uint32_t_u_s+0x28>
    4fdf:	8b 45 f8             	mov    -0x8(%rbp),%eax
    4fe2:	8b 55 fc             	mov    -0x4(%rbp),%edx
    4fe5:	89 c1                	mov    %eax,%ecx
    4fe7:	d3 ea                	shr    %cl,%edx
    4fe9:	89 d0                	mov    %edx,%eax
    4feb:	eb 03                	jmp    4ff0 <safe_rshift_func_uint32_t_u_s+0x2b>
    4fed:	8b 45 fc             	mov    -0x4(%rbp),%eax
    4ff0:	5d                   	pop    %rbp
    4ff1:	c3                   	retq   

0000000000004ff2 <safe_rshift_func_uint32_t_u_u>:
    4ff2:	f3 0f 1e fa          	endbr64 
    4ff6:	55                   	push   %rbp
    4ff7:	48 89 e5             	mov    %rsp,%rbp
    4ffa:	89 7d fc             	mov    %edi,-0x4(%rbp)
    4ffd:	89 75 f8             	mov    %esi,-0x8(%rbp)
    5000:	83 7d f8 1f          	cmpl   $0x1f,-0x8(%rbp)
    5004:	77 0e                	ja     5014 <safe_rshift_func_uint32_t_u_u+0x22>
    5006:	8b 45 f8             	mov    -0x8(%rbp),%eax
    5009:	8b 55 fc             	mov    -0x4(%rbp),%edx
    500c:	89 c1                	mov    %eax,%ecx
    500e:	d3 ea                	shr    %cl,%edx
    5010:	89 d0                	mov    %edx,%eax
    5012:	eb 03                	jmp    5017 <safe_rshift_func_uint32_t_u_u+0x25>
    5014:	8b 45 fc             	mov    -0x4(%rbp),%eax
    5017:	5d                   	pop    %rbp
    5018:	c3                   	retq   

0000000000005019 <safe_unary_minus_func_uint64_t_u>:
    5019:	f3 0f 1e fa          	endbr64 
    501d:	55                   	push   %rbp
    501e:	48 89 e5             	mov    %rsp,%rbp
    5021:	48 89 7d f8          	mov    %rdi,-0x8(%rbp)
    5025:	48 8b 45 f8          	mov    -0x8(%rbp),%rax
    5029:	48 f7 d8             	neg    %rax
    502c:	5d                   	pop    %rbp
    502d:	c3                   	retq   

000000000000502e <safe_add_func_uint64_t_u_u>:
    502e:	f3 0f 1e fa          	endbr64 
    5032:	55                   	push   %rbp
    5033:	48 89 e5             	mov    %rsp,%rbp
    5036:	48 89 7d f8          	mov    %rdi,-0x8(%rbp)
    503a:	48 89 75 f0          	mov    %rsi,-0x10(%rbp)
    503e:	48 8b 55 f8          	mov    -0x8(%rbp),%rdx
    5042:	48 8b 45 f0          	mov    -0x10(%rbp),%rax
    5046:	48 01 d0             	add    %rdx,%rax
    5049:	5d                   	pop    %rbp
    504a:	c3                   	retq   

000000000000504b <safe_sub_func_uint64_t_u_u>:
    504b:	f3 0f 1e fa          	endbr64 
    504f:	55                   	push   %rbp
    5050:	48 89 e5             	mov    %rsp,%rbp
    5053:	48 89 7d f8          	mov    %rdi,-0x8(%rbp)
    5057:	48 89 75 f0          	mov    %rsi,-0x10(%rbp)
    505b:	48 8b 45 f8          	mov    -0x8(%rbp),%rax
    505f:	48 2b 45 f0          	sub    -0x10(%rbp),%rax
    5063:	5d                   	pop    %rbp
    5064:	c3                   	retq   

0000000000005065 <safe_mul_func_uint64_t_u_u>:
    5065:	f3 0f 1e fa          	endbr64 
    5069:	55                   	push   %rbp
    506a:	48 89 e5             	mov    %rsp,%rbp
    506d:	48 89 7d f8          	mov    %rdi,-0x8(%rbp)
    5071:	48 89 75 f0          	mov    %rsi,-0x10(%rbp)
    5075:	48 8b 45 f8          	mov    -0x8(%rbp),%rax
    5079:	48 0f af 45 f0       	imul   -0x10(%rbp),%rax
    507e:	5d                   	pop    %rbp
    507f:	c3                   	retq   

0000000000005080 <safe_mod_func_uint64_t_u_u>:
    5080:	f3 0f 1e fa          	endbr64 
    5084:	55                   	push   %rbp
    5085:	48 89 e5             	mov    %rsp,%rbp
    5088:	48 89 7d f8          	mov    %rdi,-0x8(%rbp)
    508c:	48 89 75 f0          	mov    %rsi,-0x10(%rbp)
    5090:	48 83 7d f0 00       	cmpq   $0x0,-0x10(%rbp)
    5095:	74 12                	je     50a9 <safe_mod_func_uint64_t_u_u+0x29>
    5097:	48 8b 45 f8          	mov    -0x8(%rbp),%rax
    509b:	ba 00 00 00 00       	mov    $0x0,%edx
    50a0:	48 f7 75 f0          	divq   -0x10(%rbp)
    50a4:	48 89 d0             	mov    %rdx,%rax
    50a7:	eb 04                	jmp    50ad <safe_mod_func_uint64_t_u_u+0x2d>
    50a9:	48 8b 45 f8          	mov    -0x8(%rbp),%rax
    50ad:	5d                   	pop    %rbp
    50ae:	c3                   	retq   

00000000000050af <safe_div_func_uint64_t_u_u>:
    50af:	f3 0f 1e fa          	endbr64 
    50b3:	55                   	push   %rbp
    50b4:	48 89 e5             	mov    %rsp,%rbp
    50b7:	48 89 7d f8          	mov    %rdi,-0x8(%rbp)
    50bb:	48 89 75 f0          	mov    %rsi,-0x10(%rbp)
    50bf:	48 83 7d f0 00       	cmpq   $0x0,-0x10(%rbp)
    50c4:	74 0f                	je     50d5 <safe_div_func_uint64_t_u_u+0x26>
    50c6:	48 8b 45 f8          	mov    -0x8(%rbp),%rax
    50ca:	ba 00 00 00 00       	mov    $0x0,%edx
    50cf:	48 f7 75 f0          	divq   -0x10(%rbp)
    50d3:	eb 04                	jmp    50d9 <safe_div_func_uint64_t_u_u+0x2a>
    50d5:	48 8b 45 f8          	mov    -0x8(%rbp),%rax
    50d9:	5d                   	pop    %rbp
    50da:	c3                   	retq   

00000000000050db <safe_lshift_func_uint64_t_u_s>:
    50db:	f3 0f 1e fa          	endbr64 
    50df:	55                   	push   %rbp
    50e0:	48 89 e5             	mov    %rsp,%rbp
    50e3:	48 89 7d f8          	mov    %rdi,-0x8(%rbp)
    50e7:	89 75 f4             	mov    %esi,-0xc(%rbp)
    50ea:	83 7d f4 00          	cmpl   $0x0,-0xc(%rbp)
    50ee:	78 2f                	js     511f <safe_lshift_func_uint64_t_u_s+0x44>
    50f0:	83 7d f4 1f          	cmpl   $0x1f,-0xc(%rbp)
    50f4:	7f 29                	jg     511f <safe_lshift_func_uint64_t_u_s+0x44>
    50f6:	8b 45 f4             	mov    -0xc(%rbp),%eax
    50f9:	48 c7 c2 ff ff ff ff 	mov    $0xffffffffffffffff,%rdx
    5100:	89 c1                	mov    %eax,%ecx
    5102:	48 d3 ea             	shr    %cl,%rdx
    5105:	48 89 d0             	mov    %rdx,%rax
    5108:	48 39 45 f8          	cmp    %rax,-0x8(%rbp)
    510c:	77 11                	ja     511f <safe_lshift_func_uint64_t_u_s+0x44>
    510e:	8b 45 f4             	mov    -0xc(%rbp),%eax
    5111:	48 8b 55 f8          	mov    -0x8(%rbp),%rdx
    5115:	89 c1                	mov    %eax,%ecx
    5117:	48 d3 e2             	shl    %cl,%rdx
    511a:	48 89 d0             	mov    %rdx,%rax
    511d:	eb 04                	jmp    5123 <safe_lshift_func_uint64_t_u_s+0x48>
    511f:	48 8b 45 f8          	mov    -0x8(%rbp),%rax
    5123:	5d                   	pop    %rbp
    5124:	c3                   	retq   

0000000000005125 <safe_lshift_func_uint64_t_u_u>:
    5125:	f3 0f 1e fa          	endbr64 
    5129:	55                   	push   %rbp
    512a:	48 89 e5             	mov    %rsp,%rbp
    512d:	48 89 7d f8          	mov    %rdi,-0x8(%rbp)
    5131:	89 75 f4             	mov    %esi,-0xc(%rbp)
    5134:	83 7d f4 1f          	cmpl   $0x1f,-0xc(%rbp)
    5138:	77 29                	ja     5163 <safe_lshift_func_uint64_t_u_u+0x3e>
    513a:	8b 45 f4             	mov    -0xc(%rbp),%eax
    513d:	48 c7 c2 ff ff ff ff 	mov    $0xffffffffffffffff,%rdx
    5144:	89 c1                	mov    %eax,%ecx
    5146:	48 d3 ea             	shr    %cl,%rdx
    5149:	48 89 d0             	mov    %rdx,%rax
    514c:	48 39 45 f8          	cmp    %rax,-0x8(%rbp)
    5150:	77 11                	ja     5163 <safe_lshift_func_uint64_t_u_u+0x3e>
    5152:	8b 45 f4             	mov    -0xc(%rbp),%eax
    5155:	48 8b 55 f8          	mov    -0x8(%rbp),%rdx
    5159:	89 c1                	mov    %eax,%ecx
    515b:	48 d3 e2             	shl    %cl,%rdx
    515e:	48 89 d0             	mov    %rdx,%rax
    5161:	eb 04                	jmp    5167 <safe_lshift_func_uint64_t_u_u+0x42>
    5163:	48 8b 45 f8          	mov    -0x8(%rbp),%rax
    5167:	5d                   	pop    %rbp
    5168:	c3                   	retq   

0000000000005169 <safe_rshift_func_uint64_t_u_s>:
    5169:	f3 0f 1e fa          	endbr64 
    516d:	55                   	push   %rbp
    516e:	48 89 e5             	mov    %rsp,%rbp
    5171:	48 89 7d f8          	mov    %rdi,-0x8(%rbp)
    5175:	89 75 f4             	mov    %esi,-0xc(%rbp)
    5178:	83 7d f4 00          	cmpl   $0x0,-0xc(%rbp)
    517c:	78 17                	js     5195 <safe_rshift_func_uint64_t_u_s+0x2c>
    517e:	83 7d f4 1f          	cmpl   $0x1f,-0xc(%rbp)
    5182:	7f 11                	jg     5195 <safe_rshift_func_uint64_t_u_s+0x2c>
    5184:	8b 45 f4             	mov    -0xc(%rbp),%eax
    5187:	48 8b 55 f8          	mov    -0x8(%rbp),%rdx
    518b:	89 c1                	mov    %eax,%ecx
    518d:	48 d3 ea             	shr    %cl,%rdx
    5190:	48 89 d0             	mov    %rdx,%rax
    5193:	eb 04                	jmp    5199 <safe_rshift_func_uint64_t_u_s+0x30>
    5195:	48 8b 45 f8          	mov    -0x8(%rbp),%rax
    5199:	5d                   	pop    %rbp
    519a:	c3                   	retq   

000000000000519b <safe_rshift_func_uint64_t_u_u>:
    519b:	f3 0f 1e fa          	endbr64 
    519f:	55                   	push   %rbp
    51a0:	48 89 e5             	mov    %rsp,%rbp
    51a3:	48 89 7d f8          	mov    %rdi,-0x8(%rbp)
    51a7:	89 75 f4             	mov    %esi,-0xc(%rbp)
    51aa:	83 7d f4 1f          	cmpl   $0x1f,-0xc(%rbp)
    51ae:	77 11                	ja     51c1 <safe_rshift_func_uint64_t_u_u+0x26>
    51b0:	8b 45 f4             	mov    -0xc(%rbp),%eax
    51b3:	48 8b 55 f8          	mov    -0x8(%rbp),%rdx
    51b7:	89 c1                	mov    %eax,%ecx
    51b9:	48 d3 ea             	shr    %cl,%rdx
    51bc:	48 89 d0             	mov    %rdx,%rax
    51bf:	eb 04                	jmp    51c5 <safe_rshift_func_uint64_t_u_u+0x2a>
    51c1:	48 8b 45 f8          	mov    -0x8(%rbp),%rax
    51c5:	5d                   	pop    %rbp
    51c6:	c3                   	retq   

00000000000051c7 <safe_add_func_float_f_f>:
    51c7:	f3 0f 1e fa          	endbr64 
    51cb:	55                   	push   %rbp
    51cc:	48 89 e5             	mov    %rsp,%rbp
    51cf:	f3 0f 11 45 fc       	movss  %xmm0,-0x4(%rbp)
    51d4:	f3 0f 11 4d f8       	movss  %xmm1,-0x8(%rbp)
    51d9:	f3 0f 10 4d fc       	movss  -0x4(%rbp),%xmm1
    51de:	f3 0f 10 05 be be 00 	movss  0xbebe(%rip),%xmm0        # 110a4 <g_1955+0x1fcc>
    51e5:	00 
    51e6:	f3 0f 59 c8          	mulss  %xmm0,%xmm1
    51ea:	f3 0f 10 55 f8       	movss  -0x8(%rbp),%xmm2
    51ef:	f3 0f 10 05 ad be 00 	movss  0xbead(%rip),%xmm0        # 110a4 <g_1955+0x1fcc>
    51f6:	00 
    51f7:	f3 0f 59 c2          	mulss  %xmm2,%xmm0
    51fb:	f3 0f 58 c1          	addss  %xmm1,%xmm0
    51ff:	f3 0f 10 0d a9 be 00 	movss  0xbea9(%rip),%xmm1        # 110b0 <g_1955+0x1fd8>
    5206:	00 
    5207:	0f 54 c1             	andps  %xmm1,%xmm0
    520a:	0f 2f 05 af be 00 00 	comiss 0xbeaf(%rip),%xmm0        # 110c0 <g_1955+0x1fe8>
    5211:	76 07                	jbe    521a <safe_add_func_float_f_f+0x53>
    5213:	f3 0f 10 45 fc       	movss  -0x4(%rbp),%xmm0
    5218:	eb 0a                	jmp    5224 <safe_add_func_float_f_f+0x5d>
    521a:	f3 0f 10 45 fc       	movss  -0x4(%rbp),%xmm0
    521f:	f3 0f 58 45 f8       	addss  -0x8(%rbp),%xmm0
    5224:	5d                   	pop    %rbp
    5225:	c3                   	retq   

0000000000005226 <safe_sub_func_float_f_f>:
    5226:	f3 0f 1e fa          	endbr64 
    522a:	55                   	push   %rbp
    522b:	48 89 e5             	mov    %rsp,%rbp
    522e:	f3 0f 11 45 fc       	movss  %xmm0,-0x4(%rbp)
    5233:	f3 0f 11 4d f8       	movss  %xmm1,-0x8(%rbp)
    5238:	f3 0f 10 4d fc       	movss  -0x4(%rbp),%xmm1
    523d:	f3 0f 10 05 5f be 00 	movss  0xbe5f(%rip),%xmm0        # 110a4 <g_1955+0x1fcc>
    5244:	00 
    5245:	f3 0f 59 c1          	mulss  %xmm1,%xmm0
    5249:	f3 0f 10 55 f8       	movss  -0x8(%rbp),%xmm2
    524e:	f3 0f 10 0d 4e be 00 	movss  0xbe4e(%rip),%xmm1        # 110a4 <g_1955+0x1fcc>
    5255:	00 
    5256:	f3 0f 59 ca          	mulss  %xmm2,%xmm1
    525a:	f3 0f 5c c1          	subss  %xmm1,%xmm0
    525e:	f3 0f 10 0d 4a be 00 	movss  0xbe4a(%rip),%xmm1        # 110b0 <g_1955+0x1fd8>
    5265:	00 
    5266:	0f 54 c1             	andps  %xmm1,%xmm0
    5269:	0f 2f 05 50 be 00 00 	comiss 0xbe50(%rip),%xmm0        # 110c0 <g_1955+0x1fe8>
    5270:	76 07                	jbe    5279 <safe_sub_func_float_f_f+0x53>
    5272:	f3 0f 10 45 fc       	movss  -0x4(%rbp),%xmm0
    5277:	eb 0a                	jmp    5283 <safe_sub_func_float_f_f+0x5d>
    5279:	f3 0f 10 45 fc       	movss  -0x4(%rbp),%xmm0
    527e:	f3 0f 5c 45 f8       	subss  -0x8(%rbp),%xmm0
    5283:	5d                   	pop    %rbp
    5284:	c3                   	retq   

0000000000005285 <safe_mul_func_float_f_f>:
    5285:	f3 0f 1e fa          	endbr64 
    5289:	55                   	push   %rbp
    528a:	48 89 e5             	mov    %rsp,%rbp
    528d:	f3 0f 11 45 fc       	movss  %xmm0,-0x4(%rbp)
    5292:	f3 0f 11 4d f8       	movss  %xmm1,-0x8(%rbp)
    5297:	f3 0f 10 4d fc       	movss  -0x4(%rbp),%xmm1
    529c:	f3 0f 10 05 20 be 00 	movss  0xbe20(%rip),%xmm0        # 110c4 <g_1955+0x1fec>
    52a3:	00 
    52a4:	f3 0f 59 c8          	mulss  %xmm0,%xmm1
    52a8:	f3 0f 10 55 f8       	movss  -0x8(%rbp),%xmm2
    52ad:	f3 0f 10 05 13 be 00 	movss  0xbe13(%rip),%xmm0        # 110c8 <g_1955+0x1ff0>
    52b4:	00 
    52b5:	f3 0f 59 c2          	mulss  %xmm2,%xmm0
    52b9:	f3 0f 59 c1          	mulss  %xmm1,%xmm0
    52bd:	f3 0f 10 0d eb bd 00 	movss  0xbdeb(%rip),%xmm1        # 110b0 <g_1955+0x1fd8>
    52c4:	00 
    52c5:	0f 54 c1             	andps  %xmm1,%xmm0
    52c8:	0f 2f 05 fd bd 00 00 	comiss 0xbdfd(%rip),%xmm0        # 110cc <g_1955+0x1ff4>
    52cf:	76 07                	jbe    52d8 <safe_mul_func_float_f_f+0x53>
    52d1:	f3 0f 10 45 fc       	movss  -0x4(%rbp),%xmm0
    52d6:	eb 0a                	jmp    52e2 <safe_mul_func_float_f_f+0x5d>
    52d8:	f3 0f 10 45 fc       	movss  -0x4(%rbp),%xmm0
    52dd:	f3 0f 59 45 f8       	mulss  -0x8(%rbp),%xmm0
    52e2:	5d                   	pop    %rbp
    52e3:	c3                   	retq   

00000000000052e4 <safe_div_func_float_f_f>:
    52e4:	f3 0f 1e fa          	endbr64 
    52e8:	55                   	push   %rbp
    52e9:	48 89 e5             	mov    %rsp,%rbp
    52ec:	f3 0f 11 45 fc       	movss  %xmm0,-0x4(%rbp)
    52f1:	f3 0f 11 4d f8       	movss  %xmm1,-0x8(%rbp)
    52f6:	f3 0f 10 45 f8       	movss  -0x8(%rbp),%xmm0
    52fb:	f3 0f 10 0d ad bd 00 	movss  0xbdad(%rip),%xmm1        # 110b0 <g_1955+0x1fd8>
    5302:	00 
    5303:	0f 54 c8             	andps  %xmm0,%xmm1
    5306:	f3 0f 10 05 c2 bd 00 	movss  0xbdc2(%rip),%xmm0        # 110d0 <g_1955+0x1ff8>
    530d:	00 
    530e:	0f 2f c1             	comiss %xmm1,%xmm0
    5311:	0f 97 c0             	seta   %al
    5314:	83 f0 01             	xor    $0x1,%eax
    5317:	84 c0                	test   %al,%al
    5319:	75 56                	jne    5371 <safe_div_func_float_f_f+0x8d>
    531b:	66 0f ef c0          	pxor   %xmm0,%xmm0
    531f:	0f 2e 45 f8          	ucomiss -0x8(%rbp),%xmm0
    5323:	7a 0a                	jp     532f <safe_div_func_float_f_f+0x4b>
    5325:	66 0f ef c0          	pxor   %xmm0,%xmm0
    5329:	0f 2e 45 f8          	ucomiss -0x8(%rbp),%xmm0
    532d:	74 4e                	je     537d <safe_div_func_float_f_f+0x99>
    532f:	f3 0f 10 4d fc       	movss  -0x4(%rbp),%xmm1
    5334:	f3 0f 10 05 98 bd 00 	movss  0xbd98(%rip),%xmm0        # 110d4 <g_1955+0x1ffc>
    533b:	00 
    533c:	f3 0f 59 c1          	mulss  %xmm1,%xmm0
    5340:	f3 0f 10 55 f8       	movss  -0x8(%rbp),%xmm2
    5345:	f3 0f 10 0d 8b bd 00 	movss  0xbd8b(%rip),%xmm1        # 110d8 <g_1955+0x2000>
    534c:	00 
    534d:	f3 0f 59 ca          	mulss  %xmm2,%xmm1
    5351:	f3 0f 5e c1          	divss  %xmm1,%xmm0
    5355:	f3 0f 10 0d 53 bd 00 	movss  0xbd53(%rip),%xmm1        # 110b0 <g_1955+0x1fd8>
    535c:	00 
    535d:	0f 54 c1             	andps  %xmm1,%xmm0
    5360:	0f 2f 05 75 bd 00 00 	comiss 0xbd75(%rip),%xmm0        # 110dc <g_1955+0x2004>
    5367:	0f 97 c0             	seta   %al
    536a:	83 f0 01             	xor    $0x1,%eax
    536d:	84 c0                	test   %al,%al
    536f:	74 0c                	je     537d <safe_div_func_float_f_f+0x99>
    5371:	f3 0f 10 45 fc       	movss  -0x4(%rbp),%xmm0
    5376:	f3 0f 5e 45 f8       	divss  -0x8(%rbp),%xmm0
    537b:	eb 05                	jmp    5382 <safe_div_func_float_f_f+0x9e>
    537d:	f3 0f 10 45 fc       	movss  -0x4(%rbp),%xmm0
    5382:	5d                   	pop    %rbp
    5383:	c3                   	retq   

0000000000005384 <safe_add_func_double_f_f>:
    5384:	f3 0f 1e fa          	endbr64 
    5388:	55                   	push   %rbp
    5389:	48 89 e5             	mov    %rsp,%rbp
    538c:	f2 0f 11 45 f8       	movsd  %xmm0,-0x8(%rbp)
    5391:	f2 0f 11 4d f0       	movsd  %xmm1,-0x10(%rbp)
    5396:	f2 0f 10 4d f8       	movsd  -0x8(%rbp),%xmm1
    539b:	f2 0f 10 05 3d bd 00 	movsd  0xbd3d(%rip),%xmm0        # 110e0 <g_1955+0x2008>
    53a2:	00 
    53a3:	f2 0f 59 c8          	mulsd  %xmm0,%xmm1
    53a7:	f2 0f 10 55 f0       	movsd  -0x10(%rbp),%xmm2
    53ac:	f2 0f 10 05 2c bd 00 	movsd  0xbd2c(%rip),%xmm0        # 110e0 <g_1955+0x2008>
    53b3:	00 
    53b4:	f2 0f 59 c2          	mulsd  %xmm2,%xmm0
    53b8:	f2 0f 58 c1          	addsd  %xmm1,%xmm0
    53bc:	f3 0f 7e 0d 2c bd 00 	movq   0xbd2c(%rip),%xmm1        # 110f0 <g_1955+0x2018>
    53c3:	00 
    53c4:	66 0f 54 c1          	andpd  %xmm1,%xmm0
    53c8:	66 0f 2f 05 30 bd 00 	comisd 0xbd30(%rip),%xmm0        # 11100 <g_1955+0x2028>
    53cf:	00 
    53d0:	76 07                	jbe    53d9 <safe_add_func_double_f_f+0x55>
    53d2:	f2 0f 10 45 f8       	movsd  -0x8(%rbp),%xmm0
    53d7:	eb 0a                	jmp    53e3 <safe_add_func_double_f_f+0x5f>
    53d9:	f2 0f 10 45 f8       	movsd  -0x8(%rbp),%xmm0
    53de:	f2 0f 58 45 f0       	addsd  -0x10(%rbp),%xmm0
    53e3:	5d                   	pop    %rbp
    53e4:	c3                   	retq   

00000000000053e5 <safe_sub_func_double_f_f>:
    53e5:	f3 0f 1e fa          	endbr64 
    53e9:	55                   	push   %rbp
    53ea:	48 89 e5             	mov    %rsp,%rbp
    53ed:	f2 0f 11 45 f8       	movsd  %xmm0,-0x8(%rbp)
    53f2:	f2 0f 11 4d f0       	movsd  %xmm1,-0x10(%rbp)
    53f7:	f2 0f 10 4d f8       	movsd  -0x8(%rbp),%xmm1
    53fc:	f2 0f 10 05 dc bc 00 	movsd  0xbcdc(%rip),%xmm0        # 110e0 <g_1955+0x2008>
    5403:	00 
    5404:	f2 0f 59 c1          	mulsd  %xmm1,%xmm0
    5408:	f2 0f 10 55 f0       	movsd  -0x10(%rbp),%xmm2
    540d:	f2 0f 10 0d cb bc 00 	movsd  0xbccb(%rip),%xmm1        # 110e0 <g_1955+0x2008>
    5414:	00 
    5415:	f2 0f 59 ca          	mulsd  %xmm2,%xmm1
    5419:	f2 0f 5c c1          	subsd  %xmm1,%xmm0
    541d:	f3 0f 7e 0d cb bc 00 	movq   0xbccb(%rip),%xmm1        # 110f0 <g_1955+0x2018>
    5424:	00 
    5425:	66 0f 54 c1          	andpd  %xmm1,%xmm0
    5429:	66 0f 2f 05 cf bc 00 	comisd 0xbccf(%rip),%xmm0        # 11100 <g_1955+0x2028>
    5430:	00 
    5431:	76 07                	jbe    543a <safe_sub_func_double_f_f+0x55>
    5433:	f2 0f 10 45 f8       	movsd  -0x8(%rbp),%xmm0
    5438:	eb 0a                	jmp    5444 <safe_sub_func_double_f_f+0x5f>
    543a:	f2 0f 10 45 f8       	movsd  -0x8(%rbp),%xmm0
    543f:	f2 0f 5c 45 f0       	subsd  -0x10(%rbp),%xmm0
    5444:	5d                   	pop    %rbp
    5445:	c3                   	retq   

0000000000005446 <safe_mul_func_double_f_f>:
    5446:	f3 0f 1e fa          	endbr64 
    544a:	55                   	push   %rbp
    544b:	48 89 e5             	mov    %rsp,%rbp
    544e:	f2 0f 11 45 f8       	movsd  %xmm0,-0x8(%rbp)
    5453:	f2 0f 11 4d f0       	movsd  %xmm1,-0x10(%rbp)
    5458:	f2 0f 10 4d f8       	movsd  -0x8(%rbp),%xmm1
    545d:	f2 0f 10 05 a3 bc 00 	movsd  0xbca3(%rip),%xmm0        # 11108 <g_1955+0x2030>
    5464:	00 
    5465:	f2 0f 59 c8          	mulsd  %xmm0,%xmm1
    5469:	f2 0f 10 55 f0       	movsd  -0x10(%rbp),%xmm2
    546e:	f2 0f 10 05 9a bc 00 	movsd  0xbc9a(%rip),%xmm0        # 11110 <g_1955+0x2038>
    5475:	00 
    5476:	f2 0f 59 c2          	mulsd  %xmm2,%xmm0
    547a:	f2 0f 59 c1          	mulsd  %xmm1,%xmm0
    547e:	f3 0f 7e 0d 6a bc 00 	movq   0xbc6a(%rip),%xmm1        # 110f0 <g_1955+0x2018>
    5485:	00 
    5486:	66 0f 54 c1          	andpd  %xmm1,%xmm0
    548a:	66 0f 2f 05 86 bc 00 	comisd 0xbc86(%rip),%xmm0        # 11118 <g_1955+0x2040>
    5491:	00 
    5492:	76 07                	jbe    549b <safe_mul_func_double_f_f+0x55>
    5494:	f2 0f 10 45 f8       	movsd  -0x8(%rbp),%xmm0
    5499:	eb 0a                	jmp    54a5 <safe_mul_func_double_f_f+0x5f>
    549b:	f2 0f 10 45 f8       	movsd  -0x8(%rbp),%xmm0
    54a0:	f2 0f 59 45 f0       	mulsd  -0x10(%rbp),%xmm0
    54a5:	5d                   	pop    %rbp
    54a6:	c3                   	retq   

00000000000054a7 <safe_div_func_double_f_f>:
    54a7:	f3 0f 1e fa          	endbr64 
    54ab:	55                   	push   %rbp
    54ac:	48 89 e5             	mov    %rsp,%rbp
    54af:	f2 0f 11 45 f8       	movsd  %xmm0,-0x8(%rbp)
    54b4:	f2 0f 11 4d f0       	movsd  %xmm1,-0x10(%rbp)
    54b9:	f2 0f 10 45 f0       	movsd  -0x10(%rbp),%xmm0
    54be:	f3 0f 7e 0d 2a bc 00 	movq   0xbc2a(%rip),%xmm1        # 110f0 <g_1955+0x2018>
    54c5:	00 
    54c6:	66 0f 54 c8          	andpd  %xmm0,%xmm1
    54ca:	f2 0f 10 05 4e bc 00 	movsd  0xbc4e(%rip),%xmm0        # 11120 <g_1955+0x2048>
    54d1:	00 
    54d2:	66 0f 2f c1          	comisd %xmm1,%xmm0
    54d6:	0f 97 c0             	seta   %al
    54d9:	83 f0 01             	xor    $0x1,%eax
    54dc:	84 c0                	test   %al,%al
    54de:	75 5a                	jne    553a <safe_div_func_double_f_f+0x93>
    54e0:	66 0f ef c0          	pxor   %xmm0,%xmm0
    54e4:	66 0f 2e 45 f0       	ucomisd -0x10(%rbp),%xmm0
    54e9:	7a 0b                	jp     54f6 <safe_div_func_double_f_f+0x4f>
    54eb:	66 0f ef c0          	pxor   %xmm0,%xmm0
    54ef:	66 0f 2e 45 f0       	ucomisd -0x10(%rbp),%xmm0
    54f4:	74 50                	je     5546 <safe_div_func_double_f_f+0x9f>
    54f6:	f2 0f 10 4d f8       	movsd  -0x8(%rbp),%xmm1
    54fb:	f2 0f 10 05 25 bc 00 	movsd  0xbc25(%rip),%xmm0        # 11128 <g_1955+0x2050>
    5502:	00 
    5503:	f2 0f 59 c1          	mulsd  %xmm1,%xmm0
    5507:	f2 0f 10 55 f0       	movsd  -0x10(%rbp),%xmm2
    550c:	f2 0f 10 0d 1c bc 00 	movsd  0xbc1c(%rip),%xmm1        # 11130 <g_1955+0x2058>
    5513:	00 
    5514:	f2 0f 59 ca          	mulsd  %xmm2,%xmm1
    5518:	f2 0f 5e c1          	divsd  %xmm1,%xmm0
    551c:	f3 0f 7e 0d cc bb 00 	movq   0xbbcc(%rip),%xmm1        # 110f0 <g_1955+0x2018>
    5523:	00 
    5524:	66 0f 54 c1          	andpd  %xmm1,%xmm0
    5528:	66 0f 2f 05 08 bc 00 	comisd 0xbc08(%rip),%xmm0        # 11138 <g_1955+0x2060>
    552f:	00 
    5530:	0f 97 c0             	seta   %al
    5533:	83 f0 01             	xor    $0x1,%eax
    5536:	84 c0                	test   %al,%al
    5538:	74 0c                	je     5546 <safe_div_func_double_f_f+0x9f>
    553a:	f2 0f 10 45 f8       	movsd  -0x8(%rbp),%xmm0
    553f:	f2 0f 5e 45 f0       	divsd  -0x10(%rbp),%xmm0
    5544:	eb 05                	jmp    554b <safe_div_func_double_f_f+0xa4>
    5546:	f2 0f 10 45 f8       	movsd  -0x8(%rbp),%xmm0
    554b:	5d                   	pop    %rbp
    554c:	c3                   	retq   

000000000000554d <safe_convert_func_float_to_int32_t>:
    554d:	f3 0f 1e fa          	endbr64 
    5551:	55                   	push   %rbp
    5552:	48 89 e5             	mov    %rsp,%rbp
    5555:	f3 0f 11 45 fc       	movss  %xmm0,-0x4(%rbp)
    555a:	f3 0f 10 05 de bb 00 	movss  0xbbde(%rip),%xmm0        # 11140 <g_1955+0x2068>
    5561:	00 
    5562:	0f 2f 45 fc          	comiss -0x4(%rbp),%xmm0
    5566:	0f 93 c0             	setae  %al
    5569:	83 f0 01             	xor    $0x1,%eax
    556c:	84 c0                	test   %al,%al
    556e:	74 21                	je     5591 <safe_convert_func_float_to_int32_t+0x44>
    5570:	f3 0f 10 45 fc       	movss  -0x4(%rbp),%xmm0
    5575:	0f 2f 05 c8 bb 00 00 	comiss 0xbbc8(%rip),%xmm0        # 11144 <g_1955+0x206c>
    557c:	0f 93 c0             	setae  %al
    557f:	83 f0 01             	xor    $0x1,%eax
    5582:	84 c0                	test   %al,%al
    5584:	74 0b                	je     5591 <safe_convert_func_float_to_int32_t+0x44>
    5586:	f3 0f 10 45 fc       	movss  -0x4(%rbp),%xmm0
    558b:	f3 0f 2c c0          	cvttss2si %xmm0,%eax
    558f:	eb 05                	jmp    5596 <safe_convert_func_float_to_int32_t+0x49>
    5591:	b8 ff ff ff 7f       	mov    $0x7fffffff,%eax
    5596:	5d                   	pop    %rbp
    5597:	c3                   	retq   

0000000000005598 <crc32_gentab>:
    5598:	f3 0f 1e fa          	endbr64 
    559c:	55                   	push   %rbp
    559d:	48 89 e5             	mov    %rsp,%rbp
    55a0:	c7 45 fc 20 83 b8 ed 	movl   $0xedb88320,-0x4(%rbp)
    55a7:	c7 45 f4 00 00 00 00 	movl   $0x0,-0xc(%rbp)
    55ae:	eb 51                	jmp    5601 <crc32_gentab+0x69>
    55b0:	8b 45 f4             	mov    -0xc(%rbp),%eax
    55b3:	89 45 f0             	mov    %eax,-0x10(%rbp)
    55b6:	c7 45 f8 08 00 00 00 	movl   $0x8,-0x8(%rbp)
    55bd:	eb 1e                	jmp    55dd <crc32_gentab+0x45>
    55bf:	8b 45 f0             	mov    -0x10(%rbp),%eax
    55c2:	83 e0 01             	and    $0x1,%eax
    55c5:	85 c0                	test   %eax,%eax
    55c7:	74 0d                	je     55d6 <crc32_gentab+0x3e>
    55c9:	8b 45 f0             	mov    -0x10(%rbp),%eax
    55cc:	d1 e8                	shr    %eax
    55ce:	33 45 fc             	xor    -0x4(%rbp),%eax
    55d1:	89 45 f0             	mov    %eax,-0x10(%rbp)
    55d4:	eb 03                	jmp    55d9 <crc32_gentab+0x41>
    55d6:	d1 6d f0             	shrl   -0x10(%rbp)
    55d9:	83 6d f8 01          	subl   $0x1,-0x8(%rbp)
    55dd:	83 7d f8 00          	cmpl   $0x0,-0x8(%rbp)
    55e1:	7f dc                	jg     55bf <crc32_gentab+0x27>
    55e3:	8b 45 f4             	mov    -0xc(%rbp),%eax
    55e6:	48 98                	cltq   
    55e8:	48 8d 0c 85 00 00 00 	lea    0x0(,%rax,4),%rcx
    55ef:	00 
    55f0:	48 8d 15 a9 28 01 00 	lea    0x128a9(%rip),%rdx        # 17ea0 <crc32_tab>
    55f7:	8b 45 f0             	mov    -0x10(%rbp),%eax
    55fa:	89 04 11             	mov    %eax,(%rcx,%rdx,1)
    55fd:	83 45 f4 01          	addl   $0x1,-0xc(%rbp)
    5601:	81 7d f4 ff 00 00 00 	cmpl   $0xff,-0xc(%rbp)
    5608:	7e a6                	jle    55b0 <crc32_gentab+0x18>
    560a:	90                   	nop
    560b:	90                   	nop
    560c:	5d                   	pop    %rbp
    560d:	c3                   	retq   

000000000000560e <crc32_byte>:
    560e:	f3 0f 1e fa          	endbr64 
    5612:	55                   	push   %rbp
    5613:	48 89 e5             	mov    %rsp,%rbp
    5616:	89 f8                	mov    %edi,%eax
    5618:	88 45 fc             	mov    %al,-0x4(%rbp)
    561b:	8b 05 ff e9 00 00    	mov    0xe9ff(%rip),%eax        # 14020 <crc32_context>
    5621:	c1 e8 08             	shr    $0x8,%eax
    5624:	89 c1                	mov    %eax,%ecx
    5626:	0f b6 55 fc          	movzbl -0x4(%rbp),%edx
    562a:	8b 05 f0 e9 00 00    	mov    0xe9f0(%rip),%eax        # 14020 <crc32_context>
    5630:	31 d0                	xor    %edx,%eax
    5632:	0f b6 c0             	movzbl %al,%eax
    5635:	89 c0                	mov    %eax,%eax
    5637:	48 8d 14 85 00 00 00 	lea    0x0(,%rax,4),%rdx
    563e:	00 
    563f:	48 8d 05 5a 28 01 00 	lea    0x1285a(%rip),%rax        # 17ea0 <crc32_tab>
    5646:	8b 04 02             	mov    (%rdx,%rax,1),%eax
    5649:	31 c8                	xor    %ecx,%eax
    564b:	89 05 cf e9 00 00    	mov    %eax,0xe9cf(%rip)        # 14020 <crc32_context>
    5651:	90                   	nop
    5652:	5d                   	pop    %rbp
    5653:	c3                   	retq   

0000000000005654 <crc32_8bytes>:
    5654:	f3 0f 1e fa          	endbr64 
    5658:	55                   	push   %rbp
    5659:	48 89 e5             	mov    %rsp,%rbp
    565c:	48 83 ec 08          	sub    $0x8,%rsp
    5660:	48 89 7d f8          	mov    %rdi,-0x8(%rbp)
    5664:	48 8b 45 f8          	mov    -0x8(%rbp),%rax
    5668:	0f b6 c0             	movzbl %al,%eax
    566b:	89 c7                	mov    %eax,%edi
    566d:	e8 9c ff ff ff       	callq  560e <crc32_byte>
    5672:	48 8b 45 f8          	mov    -0x8(%rbp),%rax
    5676:	48 c1 e8 08          	shr    $0x8,%rax
    567a:	0f b6 c0             	movzbl %al,%eax
    567d:	89 c7                	mov    %eax,%edi
    567f:	e8 8a ff ff ff       	callq  560e <crc32_byte>
    5684:	48 8b 45 f8          	mov    -0x8(%rbp),%rax
    5688:	48 c1 e8 10          	shr    $0x10,%rax
    568c:	0f b6 c0             	movzbl %al,%eax
    568f:	89 c7                	mov    %eax,%edi
    5691:	e8 78 ff ff ff       	callq  560e <crc32_byte>
    5696:	48 8b 45 f8          	mov    -0x8(%rbp),%rax
    569a:	48 c1 e8 18          	shr    $0x18,%rax
    569e:	0f b6 c0             	movzbl %al,%eax
    56a1:	89 c7                	mov    %eax,%edi
    56a3:	e8 66 ff ff ff       	callq  560e <crc32_byte>
    56a8:	48 8b 45 f8          	mov    -0x8(%rbp),%rax
    56ac:	48 c1 e8 20          	shr    $0x20,%rax
    56b0:	0f b6 c0             	movzbl %al,%eax
    56b3:	89 c7                	mov    %eax,%edi
    56b5:	e8 54 ff ff ff       	callq  560e <crc32_byte>
    56ba:	48 8b 45 f8          	mov    -0x8(%rbp),%rax
    56be:	48 c1 e8 28          	shr    $0x28,%rax
    56c2:	0f b6 c0             	movzbl %al,%eax
    56c5:	89 c7                	mov    %eax,%edi
    56c7:	e8 42 ff ff ff       	callq  560e <crc32_byte>
    56cc:	48 8b 45 f8          	mov    -0x8(%rbp),%rax
    56d0:	48 c1 e8 30          	shr    $0x30,%rax
    56d4:	0f b6 c0             	movzbl %al,%eax
    56d7:	89 c7                	mov    %eax,%edi
    56d9:	e8 30 ff ff ff       	callq  560e <crc32_byte>
    56de:	48 8b 45 f8          	mov    -0x8(%rbp),%rax
    56e2:	48 c1 e8 38          	shr    $0x38,%rax
    56e6:	0f b6 c0             	movzbl %al,%eax
    56e9:	89 c7                	mov    %eax,%edi
    56eb:	e8 1e ff ff ff       	callq  560e <crc32_byte>
    56f0:	90                   	nop
    56f1:	c9                   	leaveq 
    56f2:	c3                   	retq   

00000000000056f3 <transparent_crc>:
    56f3:	f3 0f 1e fa          	endbr64 
    56f7:	55                   	push   %rbp
    56f8:	48 89 e5             	mov    %rsp,%rbp
    56fb:	48 83 ec 20          	sub    $0x20,%rsp
    56ff:	48 89 7d f8          	mov    %rdi,-0x8(%rbp)
    5703:	48 89 75 f0          	mov    %rsi,-0x10(%rbp)
    5707:	89 55 ec             	mov    %edx,-0x14(%rbp)
    570a:	48 8b 45 f8          	mov    -0x8(%rbp),%rax
    570e:	48 89 c7             	mov    %rax,%rdi
    5711:	e8 3e ff ff ff       	callq  5654 <crc32_8bytes>
    5716:	83 7d ec 00          	cmpl   $0x0,-0x14(%rbp)
    571a:	74 22                	je     573e <transparent_crc+0x4b>
    571c:	8b 05 fe e8 00 00    	mov    0xe8fe(%rip),%eax        # 14020 <crc32_context>
    5722:	f7 d0                	not    %eax
    5724:	89 c2                	mov    %eax,%edx
    5726:	48 8b 45 f0          	mov    -0x10(%rbp),%rax
    572a:	48 89 c6             	mov    %rax,%rsi
    572d:	48 8d 3d fc 98 00 00 	lea    0x98fc(%rip),%rdi        # f030 <_IO_stdin_used+0x30>
    5734:	b8 00 00 00 00       	mov    $0x0,%eax
    5739:	e8 42 e9 ff ff       	callq  4080 <printf@plt>
    573e:	90                   	nop
    573f:	c9                   	leaveq 
    5740:	c3                   	retq   

0000000000005741 <transparent_crc_bytes>:
    5741:	f3 0f 1e fa          	endbr64 
    5745:	55                   	push   %rbp
    5746:	48 89 e5             	mov    %rsp,%rbp
    5749:	48 83 ec 30          	sub    $0x30,%rsp
    574d:	48 89 7d e8          	mov    %rdi,-0x18(%rbp)
    5751:	89 75 e4             	mov    %esi,-0x1c(%rbp)
    5754:	48 89 55 d8          	mov    %rdx,-0x28(%rbp)
    5758:	89 4d e0             	mov    %ecx,-0x20(%rbp)
    575b:	c7 45 fc 00 00 00 00 	movl   $0x0,-0x4(%rbp)
    5762:	eb 1e                	jmp    5782 <transparent_crc_bytes+0x41>
    5764:	8b 45 fc             	mov    -0x4(%rbp),%eax
    5767:	48 63 d0             	movslq %eax,%rdx
    576a:	48 8b 45 e8          	mov    -0x18(%rbp),%rax
    576e:	48 01 d0             	add    %rdx,%rax
    5771:	0f b6 00             	movzbl (%rax),%eax
    5774:	0f b6 c0             	movzbl %al,%eax
    5777:	89 c7                	mov    %eax,%edi
    5779:	e8 90 fe ff ff       	callq  560e <crc32_byte>
    577e:	83 45 fc 01          	addl   $0x1,-0x4(%rbp)
    5782:	8b 45 fc             	mov    -0x4(%rbp),%eax
    5785:	3b 45 e4             	cmp    -0x1c(%rbp),%eax
    5788:	7c da                	jl     5764 <transparent_crc_bytes+0x23>
    578a:	83 7d e0 00          	cmpl   $0x0,-0x20(%rbp)
    578e:	74 22                	je     57b2 <transparent_crc_bytes+0x71>
    5790:	8b 05 8a e8 00 00    	mov    0xe88a(%rip),%eax        # 14020 <crc32_context>
    5796:	f7 d0                	not    %eax
    5798:	89 c2                	mov    %eax,%edx
    579a:	48 8b 45 d8          	mov    -0x28(%rbp),%rax
    579e:	48 89 c6             	mov    %rax,%rsi
    57a1:	48 8d 3d 88 98 00 00 	lea    0x9888(%rip),%rdi        # f030 <_IO_stdin_used+0x30>
    57a8:	b8 00 00 00 00       	mov    $0x0,%eax
    57ad:	e8 ce e8 ff ff       	callq  4080 <printf@plt>
    57b2:	90                   	nop
    57b3:	c9                   	leaveq 
    57b4:	c3                   	retq   

00000000000057b5 <func_1>:
    57b5:	f3 0f 1e fa          	endbr64 
    57b9:	55                   	push   %rbp
    57ba:	48 89 e5             	mov    %rsp,%rbp
    57bd:	41 57                	push   %r15
    57bf:	41 56                	push   %r14
    57c1:	41 55                	push   %r13
    57c3:	41 54                	push   %r12
    57c5:	53                   	push   %rbx
    57c6:	48 81 ec 08 07 00 00 	sub    $0x708,%rsp
    57cd:	64 48 8b 04 25 28 00 	mov    %fs:0x28,%rax
    57d4:	00 00 
    57d6:	48 89 45 c8          	mov    %rax,-0x38(%rbp)
    57da:	31 c0                	xor    %eax,%eax
    57dc:	48 8d 05 41 e8 00 00 	lea    0xe841(%rip),%rax        # 14024 <g_3>
    57e3:	48 89 85 40 f9 ff ff 	mov    %rax,-0x6c0(%rbp)
    57ea:	48 8d 05 33 e8 00 00 	lea    0xe833(%rip),%rax        # 14024 <g_3>
    57f1:	48 89 85 e0 f9 ff ff 	mov    %rax,-0x620(%rbp)
    57f8:	48 8d 05 25 e8 00 00 	lea    0xe825(%rip),%rax        # 14024 <g_3>
    57ff:	48 89 85 e8 f9 ff ff 	mov    %rax,-0x618(%rbp)
    5806:	48 8d 05 17 e8 00 00 	lea    0xe817(%rip),%rax        # 14024 <g_3>
    580d:	48 89 85 f0 f9 ff ff 	mov    %rax,-0x610(%rbp)
    5814:	48 8d 05 09 e8 00 00 	lea    0xe809(%rip),%rax        # 14024 <g_3>
    581b:	48 89 85 f8 f9 ff ff 	mov    %rax,-0x608(%rbp)
    5822:	48 8d 05 fb e7 00 00 	lea    0xe7fb(%rip),%rax        # 14024 <g_3>
    5829:	48 89 85 00 fa ff ff 	mov    %rax,-0x600(%rbp)
    5830:	48 c7 85 48 f9 ff ff 	movq   $0x0,-0x6b8(%rbp)
    5837:	00 00 00 00 
    583b:	48 8d 05 ef e7 00 00 	lea    0xe7ef(%rip),%rax        # 14031 <g_37>
    5842:	48 89 85 20 f9 ff ff 	mov    %rax,-0x6e0(%rbp)
    5849:	66 c7 85 ee f8 ff ff 	movw   $0x226,-0x712(%rbp)
    5850:	26 02 
    5852:	66 c7 85 f0 f8 ff ff 	movw   $0x0,-0x710(%rbp)
    5859:	00 00 
    585b:	48 8d 05 3e 98 00 00 	lea    0x983e(%rip),%rax        # f0a0 <g_1034+0x40>
    5862:	48 89 85 50 f9 ff ff 	mov    %rax,-0x6b0(%rbp)
    5869:	48 8d 05 d0 ec 00 00 	lea    0xecd0(%rip),%rax        # 14540 <g_282>
    5870:	48 89 85 58 f9 ff ff 	mov    %rax,-0x6a8(%rbp)
    5877:	48 8d 05 fa 2a 01 00 	lea    0x12afa(%rip),%rax        # 18378 <g_1384>
    587e:	48 89 85 60 f9 ff ff 	mov    %rax,-0x6a0(%rbp)
    5885:	66 c7 85 f2 f8 ff ff 	movw   $0xffff,-0x70e(%rbp)
    588c:	ff ff 
    588e:	48 c7 85 68 f9 ff ff 	movq   $0x0,-0x698(%rbp)
    5895:	00 00 00 00 
    5899:	66 c7 85 f4 f8 ff ff 	movw   $0x5,-0x70c(%rbp)
    58a0:	05 00 
    58a2:	48 8d 05 cf 24 01 00 	lea    0x124cf(%rip),%rax        # 17d78 <g_2020>
    58a9:	48 89 85 70 f9 ff ff 	mov    %rax,-0x690(%rbp)
    58b0:	48 8d 05 f9 21 01 00 	lea    0x121f9(%rip),%rax        # 17ab0 <g_1381>
    58b7:	48 89 85 78 f9 ff ff 	mov    %rax,-0x688(%rbp)
    58be:	48 8d 05 6c e7 00 00 	lea    0xe76c(%rip),%rax        # 14031 <g_37>
    58c5:	48 89 85 28 f9 ff ff 	mov    %rax,-0x6d8(%rbp)
    58cc:	c7 85 50 fa ff ff 03 	movl   $0x3,-0x5b0(%rbp)
    58d3:	00 00 00 
    58d6:	c7 85 54 fa ff ff 00 	movl   $0x0,-0x5ac(%rbp)
    58dd:	00 00 00 
    58e0:	c7 85 58 fa ff ff 03 	movl   $0x3,-0x5a8(%rbp)
    58e7:	00 00 00 
    58ea:	c7 85 5c fa ff ff 17 	movl   $0x8ead1417,-0x5a4(%rbp)
    58f1:	14 ad 8e 
    58f4:	c7 85 60 fa ff ff 71 	movl   $0x81b1bc71,-0x5a0(%rbp)
    58fb:	bc b1 81 
    58fe:	c7 85 64 fa ff ff 17 	movl   $0x8ead1417,-0x59c(%rbp)
    5905:	14 ad 8e 
    5908:	c7 85 68 fa ff ff 01 	movl   $0x1,-0x598(%rbp)
    590f:	00 00 00 
    5912:	c7 85 6c fa ff ff 00 	movl   $0x0,-0x594(%rbp)
    5919:	00 00 00 
    591c:	c7 85 70 fa ff ff 01 	movl   $0x1,-0x590(%rbp)
    5923:	00 00 00 
    5926:	c7 85 74 fa ff ff 17 	movl   $0x8ead1417,-0x58c(%rbp)
    592d:	14 ad 8e 
    5930:	c7 85 78 fa ff ff 06 	movl   $0x6,-0x588(%rbp)
    5937:	00 00 00 
    593a:	c7 85 7c fa ff ff 17 	movl   $0x8ead1417,-0x584(%rbp)
    5941:	14 ad 8e 
    5944:	c7 85 80 fa ff ff 03 	movl   $0x3,-0x580(%rbp)
    594b:	00 00 00 
    594e:	c7 85 84 fa ff ff 00 	movl   $0x0,-0x57c(%rbp)
    5955:	00 00 00 
    5958:	c7 85 88 fa ff ff 03 	movl   $0x3,-0x578(%rbp)
    595f:	00 00 00 
    5962:	c7 85 8c fa ff ff 17 	movl   $0x8ead1417,-0x574(%rbp)
    5969:	14 ad 8e 
    596c:	c7 85 90 fa ff ff 71 	movl   $0x81b1bc71,-0x570(%rbp)
    5973:	bc b1 81 
    5976:	c7 85 94 fa ff ff 17 	movl   $0x8ead1417,-0x56c(%rbp)
    597d:	14 ad 8e 
    5980:	c7 85 98 fa ff ff 01 	movl   $0x1,-0x568(%rbp)
    5987:	00 00 00 
    598a:	c7 85 9c fa ff ff 00 	movl   $0x0,-0x564(%rbp)
    5991:	00 00 00 
    5994:	c7 85 a0 fa ff ff 01 	movl   $0x1,-0x560(%rbp)
    599b:	00 00 00 
    599e:	c7 85 a4 fa ff ff f7 	movl   $0x8d7c33f7,-0x55c(%rbp)
    59a5:	33 7c 8d 
    59a8:	c7 85 a8 fa ff ff 01 	movl   $0x1,-0x558(%rbp)
    59af:	00 00 00 
    59b2:	c7 85 ac fa ff ff f7 	movl   $0x8d7c33f7,-0x554(%rbp)
    59b9:	33 7c 8d 
    59bc:	c7 85 b0 fa ff ff 41 	movl   $0xb47ac941,-0x550(%rbp)
    59c3:	c9 7a b4 
    59c6:	c7 85 b4 fa ff ff 17 	movl   $0x8ead1417,-0x54c(%rbp)
    59cd:	14 ad 8e 
    59d0:	c7 85 b8 fa ff ff 41 	movl   $0xb47ac941,-0x548(%rbp)
    59d7:	c9 7a b4 
    59da:	c7 85 bc fa ff ff f7 	movl   $0x8d7c33f7,-0x544(%rbp)
    59e1:	33 7c 8d 
    59e4:	c7 85 c0 fa ff ff 03 	movl   $0x3,-0x540(%rbp)
    59eb:	00 00 00 
    59ee:	c7 85 c4 fa ff ff f7 	movl   $0x8d7c33f7,-0x53c(%rbp)
    59f5:	33 7c 8d 
    59f8:	c7 85 c8 fa ff ff ae 	movl   $0xf52c73ae,-0x538(%rbp)
    59ff:	73 2c f5 
    5a02:	c7 85 cc fa ff ff 17 	movl   $0x8ead1417,-0x534(%rbp)
    5a09:	14 ad 8e 
    5a0c:	c7 85 d0 fa ff ff ae 	movl   $0xf52c73ae,-0x530(%rbp)
    5a13:	73 2c f5 
    5a16:	c7 85 d4 fa ff ff f7 	movl   $0x8d7c33f7,-0x52c(%rbp)
    5a1d:	33 7c 8d 
    5a20:	c7 85 d8 fa ff ff 01 	movl   $0x1,-0x528(%rbp)
    5a27:	00 00 00 
    5a2a:	c7 85 dc fa ff ff f7 	movl   $0x8d7c33f7,-0x524(%rbp)
    5a31:	33 7c 8d 
    5a34:	c7 85 e0 fa ff ff 41 	movl   $0xb47ac941,-0x520(%rbp)
    5a3b:	c9 7a b4 
    5a3e:	c7 85 e4 fa ff ff 17 	movl   $0x8ead1417,-0x51c(%rbp)
    5a45:	14 ad 8e 
    5a48:	c7 85 e8 fa ff ff 41 	movl   $0xb47ac941,-0x518(%rbp)
    5a4f:	c9 7a b4 
    5a52:	c7 85 ec fa ff ff f7 	movl   $0x8d7c33f7,-0x514(%rbp)
    5a59:	33 7c 8d 
    5a5c:	c7 85 f0 fa ff ff 03 	movl   $0x3,-0x510(%rbp)
    5a63:	00 00 00 
    5a66:	c7 85 f4 fa ff ff f7 	movl   $0x8d7c33f7,-0x50c(%rbp)
    5a6d:	33 7c 8d 
    5a70:	c7 85 f8 fa ff ff ae 	movl   $0xf52c73ae,-0x508(%rbp)
    5a77:	73 2c f5 
    5a7a:	c7 85 fc fa ff ff 17 	movl   $0x8ead1417,-0x504(%rbp)
    5a81:	14 ad 8e 
    5a84:	c7 85 00 fb ff ff ae 	movl   $0xf52c73ae,-0x500(%rbp)
    5a8b:	73 2c f5 
    5a8e:	c7 85 04 fb ff ff f7 	movl   $0x8d7c33f7,-0x4fc(%rbp)
    5a95:	33 7c 8d 
    5a98:	c7 85 08 fb ff ff 01 	movl   $0x1,-0x4f8(%rbp)
    5a9f:	00 00 00 
    5aa2:	c7 85 0c fb ff ff f7 	movl   $0x8d7c33f7,-0x4f4(%rbp)
    5aa9:	33 7c 8d 
    5aac:	c7 85 fc f8 ff ff 00 	movl   $0x0,-0x704(%rbp)
    5ab3:	00 00 00 
    5ab6:	eb 46                	jmp    5afe <func_1+0x349>
    5ab8:	c7 85 00 f9 ff ff 00 	movl   $0x0,-0x700(%rbp)
    5abf:	00 00 00 
    5ac2:	eb 2a                	jmp    5aee <func_1+0x339>
    5ac4:	8b 85 00 f9 ff ff    	mov    -0x700(%rbp),%eax
    5aca:	48 63 d0             	movslq %eax,%rdx
    5acd:	8b 85 fc f8 ff ff    	mov    -0x704(%rbp),%eax
    5ad3:	48 98                	cltq   
    5ad5:	48 01 d0             	add    %rdx,%rax
    5ad8:	48 8d 15 c9 1f 01 00 	lea    0x11fc9(%rip),%rdx        # 17aa8 <g_1382>
    5adf:	48 89 94 c5 10 fa ff 	mov    %rdx,-0x5f0(%rbp,%rax,8)
    5ae6:	ff 
    5ae7:	83 85 00 f9 ff ff 01 	addl   $0x1,-0x700(%rbp)
    5aee:	83 bd 00 f9 ff ff 00 	cmpl   $0x0,-0x700(%rbp)
    5af5:	7e cd                	jle    5ac4 <func_1+0x30f>
    5af7:	83 85 fc f8 ff ff 01 	addl   $0x1,-0x704(%rbp)
    5afe:	83 bd fc f8 ff ff 06 	cmpl   $0x6,-0x704(%rbp)
    5b05:	7e b1                	jle    5ab8 <func_1+0x303>
    5b07:	48 8b 05 1a e5 00 00 	mov    0xe51a(%rip),%rax        # 14028 <g_5>
    5b0e:	48 83 e8 01          	sub    $0x1,%rax
    5b12:	48 89 05 0f e5 00 00 	mov    %rax,0xe50f(%rip)        # 14028 <g_5>
    5b19:	0f b7 85 ee f8 ff ff 	movzwl -0x712(%rbp),%eax
    5b20:	44 0f b6 e8          	movzbl %al,%r13d
    5b24:	b8 0c 00 00 00       	mov    $0xc,%eax
    5b29:	44 0f be e0          	movsbl %al,%r12d
    5b2d:	b8 96 ff ff ff       	mov    $0xffffff96,%eax
    5b32:	0f be d8             	movsbl %al,%ebx
    5b35:	48 8b 85 40 f9 ff ff 	mov    -0x6c0(%rbp),%rax
    5b3c:	8b 00                	mov    (%rax),%eax
    5b3e:	89 85 dc f8 ff ff    	mov    %eax,-0x724(%rbp)
    5b44:	48 8b 05 dd e4 00 00 	mov    0xe4dd(%rip),%rax        # 14028 <g_5>
    5b4b:	44 0f b7 f0          	movzwl %ax,%r14d
    5b4f:	0f b6 05 da e4 00 00 	movzbl 0xe4da(%rip),%eax        # 14030 <g_21>
    5b56:	8d 50 ff             	lea    -0x1(%rax),%edx
    5b59:	88 15 d1 e4 00 00    	mov    %dl,0xe4d1(%rip)        # 14030 <g_21>
    5b5f:	0f b6 c8             	movzbl %al,%ecx
    5b62:	89 8d d8 f8 ff ff    	mov    %ecx,-0x728(%rbp)
    5b68:	8b 05 b6 e4 00 00    	mov    0xe4b6(%rip),%eax        # 14024 <g_3>
    5b6e:	0f b6 d0             	movzbl %al,%edx
    5b71:	48 8b 85 20 f9 ff ff 	mov    -0x6e0(%rbp),%rax
    5b78:	0f b6 08             	movzbl (%rax),%ecx
    5b7b:	83 e9 01             	sub    $0x1,%ecx
    5b7e:	88 08                	mov    %cl,(%rax)
    5b80:	0f b6 00             	movzbl (%rax),%eax
    5b83:	0f b6 c0             	movzbl %al,%eax
    5b86:	89 d6                	mov    %edx,%esi
    5b88:	89 c7                	mov    %eax,%edi
    5b8a:	e8 e9 ef ff ff       	callq  4b78 <safe_sub_func_uint8_t_u_u>
    5b8f:	8b 05 8f e4 00 00    	mov    0xe48f(%rip),%eax        # 14024 <g_3>
    5b95:	83 f8 01             	cmp    $0x1,%eax
    5b98:	0f 94 c0             	sete   %al
    5b9b:	0f b6 d0             	movzbl %al,%edx
    5b9e:	48 8b 05 83 e4 00 00 	mov    0xe483(%rip),%rax        # 14028 <g_5>
    5ba5:	48 39 c2             	cmp    %rax,%rdx
    5ba8:	0f 92 c0             	setb   %al
    5bab:	44 0f b6 f8          	movzbl %al,%r15d
    5baf:	8b 05 6f e4 00 00    	mov    0xe46f(%rip),%eax        # 14024 <g_3>
    5bb5:	98                   	cwtl   
    5bb6:	be 0d 00 00 00       	mov    $0xd,%esi
    5bbb:	89 c7                	mov    %eax,%edi
    5bbd:	e8 d0 e8 ff ff       	callq  4492 <safe_lshift_func_int16_t_s_s>
    5bc2:	0f b6 c0             	movzbl %al,%eax
    5bc5:	44 89 fe             	mov    %r15d,%esi
    5bc8:	89 c7                	mov    %eax,%edi
    5bca:	e8 8b ef ff ff       	callq  4b5a <safe_add_func_uint8_t_u_u>
    5bcf:	44 0f b6 f8          	movzbl %al,%r15d
    5bd3:	48 8b 05 4e e4 00 00 	mov    0xe44e(%rip),%rax        # 14028 <g_5>
    5bda:	89 85 d4 f8 ff ff    	mov    %eax,-0x72c(%rbp)
    5be0:	be 05 00 00 00       	mov    $0x5,%esi
    5be5:	bf d3 b2 ff ff       	mov    $0xffffb2d3,%edi
    5bea:	e8 74 e9 ff ff       	callq  4563 <safe_rshift_func_int16_t_s_u>
    5bef:	66 83 f8 01          	cmp    $0x1,%ax
    5bf3:	0f 9f c0             	setg   %al
    5bf6:	0f b6 c0             	movzbl %al,%eax
    5bf9:	8b b5 d4 f8 ff ff    	mov    -0x72c(%rbp),%esi
    5bff:	89 c7                	mov    %eax,%edi
    5c01:	e8 f7 f2 ff ff       	callq  4efd <safe_mod_func_uint32_t_u_u>
    5c06:	98                   	cwtl   
    5c07:	44 89 fe             	mov    %r15d,%esi
    5c0a:	89 c7                	mov    %eax,%edi
    5c0c:	e8 a2 e7 ff ff       	callq  43b3 <safe_add_func_int16_t_s_s>
    5c11:	98                   	cwtl   
    5c12:	39 85 d8 f8 ff ff    	cmp    %eax,-0x728(%rbp)
    5c18:	0f 9d c0             	setge  %al
    5c1b:	0f b6 c0             	movzbl %al,%eax
    5c1e:	44 89 f6             	mov    %r14d,%esi
    5c21:	89 c7                	mov    %eax,%edi
    5c23:	e8 34 f1 ff ff       	callq  4d5c <safe_mod_func_uint16_t_u_u>
    5c28:	0f b7 c0             	movzwl %ax,%eax
    5c2b:	8b b5 dc f8 ff ff    	mov    -0x724(%rbp),%esi
    5c31:	48 89 c7             	mov    %rax,%rdi
    5c34:	e8 72 15 00 00       	callq  71ab <func_15>
    5c39:	84 c0                	test   %al,%al
    5c3b:	48 8b 05 1e 19 01 00 	mov    0x1191e(%rip),%rax        # 17560 <g_911>
    5c42:	8b 00                	mov    (%rax),%eax
    5c44:	89 c7                	mov    %eax,%edi
    5c46:	e8 44 15 00 00       	callq  718f <func_13>
    5c4b:	44 89 e9             	mov    %r13d,%ecx
    5c4e:	44 89 e2             	mov    %r12d,%edx
    5c51:	89 de                	mov    %ebx,%esi
    5c53:	48 89 c7             	mov    %rax,%rdi
    5c56:	e8 93 08 00 00       	callq  64ee <func_8>
    5c5b:	85 c0                	test   %eax,%eax
    5c5d:	0f 84 88 03 00 00    	je     5feb <func_1+0x836>
    5c63:	c6 85 ea f8 ff ff fa 	movb   $0xfa,-0x716(%rbp)
    5c6a:	c7 85 14 f9 ff ff 8f 	movl   $0x1597ad8f,-0x6ec(%rbp)
    5c71:	ad 97 15 
    5c74:	48 8d 85 10 fb ff ff 	lea    -0x4f0(%rbp),%rax
    5c7b:	48 8d 15 9e 12 01 00 	lea    0x1129e(%rip),%rdx        # 16f20 <g_2153+0x10>
    5c82:	b9 2a 00 00 00       	mov    $0x2a,%ecx
    5c87:	48 89 c7             	mov    %rax,%rdi
    5c8a:	48 89 d6             	mov    %rdx,%rsi
    5c8d:	f3 48 a5             	rep movsq %ds:(%rsi),%es:(%rdi)
    5c90:	c6 85 eb f8 ff ff 04 	movb   $0x4,-0x715(%rbp)
    5c97:	c6 85 ec f8 ff ff a4 	movb   $0xa4,-0x714(%rbp)
    5c9e:	c7 85 18 f9 ff ff ff 	movl   $0x3cdb7cff,-0x6e8(%rbp)
    5ca5:	7c db 3c 
    5ca8:	48 c7 85 90 f9 ff ff 	movq   $0x0,-0x670(%rbp)
    5caf:	00 00 00 00 
    5cb3:	48 c7 85 98 f9 ff ff 	movq   $0xfffffffffffffffe,-0x668(%rbp)
    5cba:	fe ff ff ff 
    5cbe:	48 8d 05 b3 26 01 00 	lea    0x126b3(%rip),%rax        # 18378 <g_1384>
    5cc5:	48 89 85 a0 f9 ff ff 	mov    %rax,-0x660(%rbp)
    5ccc:	66 c7 05 2d eb 00 00 	movw   $0x0,0xeb2d(%rip)        # 14802 <g_415>
    5cd3:	00 00 
    5cd5:	eb 1a                	jmp    5cf1 <func_1+0x53c>
    5cd7:	80 bd ea f8 ff ff 00 	cmpb   $0x0,-0x716(%rbp)
    5cde:	75 20                	jne    5d00 <func_1+0x54b>
    5ce0:	0f b7 05 1b eb 00 00 	movzwl 0xeb1b(%rip),%eax        # 14802 <g_415>
    5ce7:	83 e8 01             	sub    $0x1,%eax
    5cea:	66 89 05 11 eb 00 00 	mov    %ax,0xeb11(%rip)        # 14802 <g_415>
    5cf1:	0f b7 05 0a eb 00 00 	movzwl 0xeb0a(%rip),%eax        # 14802 <g_415>
    5cf8:	66 83 f8 f6          	cmp    $0xfff6,%ax
    5cfc:	7c d9                	jl     5cd7 <func_1+0x522>
    5cfe:	eb 01                	jmp    5d01 <func_1+0x54c>
    5d00:	90                   	nop
    5d01:	c7 05 99 e7 00 00 00 	movl   $0x0,0xe799(%rip)        # 144a4 <g_151>
    5d08:	00 00 00 
    5d0b:	e9 24 02 00 00       	jmpq   5f34 <func_1+0x77f>
    5d10:	c7 85 1c f9 ff ff 01 	movl   $0x1,-0x6e4(%rbp)
    5d17:	00 00 00 
    5d1a:	c7 85 f8 f8 ff ff 01 	movl   $0x1,-0x708(%rbp)
    5d21:	00 00 00 
    5d24:	48 c7 85 30 f9 ff ff 	movq   $0x0,-0x6d0(%rbp)
    5d2b:	00 00 00 00 
    5d2f:	48 8d 85 30 f9 ff ff 	lea    -0x6d0(%rbp),%rax
    5d36:	48 89 85 a8 f9 ff ff 	mov    %rax,-0x658(%rbp)
    5d3d:	48 8d 05 40 e8 00 00 	lea    0xe840(%rip),%rax        # 14584 <g_296+0x4>
    5d44:	48 89 85 b0 f9 ff ff 	mov    %rax,-0x650(%rbp)
    5d4b:	48 8d 85 60 fc ff ff 	lea    -0x3a0(%rbp),%rax
    5d52:	48 8d 15 a7 93 00 00 	lea    0x93a7(%rip),%rdx        # f100 <g_1955+0x28>
    5d59:	b9 6c 00 00 00       	mov    $0x6c,%ecx
    5d5e:	48 89 c7             	mov    %rax,%rdi
    5d61:	48 89 d6             	mov    %rdx,%rsi
    5d64:	f3 48 a5             	rep movsq %ds:(%rsi),%es:(%rdi)
    5d67:	66 c7 85 f6 f8 ff ff 	movw   $0x1,-0x70a(%rbp)
    5d6e:	01 00 
    5d70:	48 c7 85 38 f9 ff ff 	movq   $0x0,-0x6c8(%rbp)
    5d77:	00 00 00 00 
    5d7b:	48 8d 85 38 f9 ff ff 	lea    -0x6c8(%rbp),%rax
    5d82:	48 89 85 b8 f9 ff ff 	mov    %rax,-0x648(%rbp)
    5d89:	c6 85 ed f8 ff ff ff 	movb   $0xff,-0x713(%rbp)
    5d90:	c7 85 04 f9 ff ff 00 	movl   $0x0,-0x6fc(%rbp)
    5d97:	00 00 00 
    5d9a:	eb 1e                	jmp    5dba <func_1+0x605>
    5d9c:	8b 85 04 f9 ff ff    	mov    -0x6fc(%rbp),%eax
    5da2:	48 98                	cltq   
    5da4:	48 8d 15 85 25 01 00 	lea    0x12585(%rip),%rdx        # 18330 <g_768>
    5dab:	48 89 94 c5 d8 f9 ff 	mov    %rdx,-0x628(%rbp,%rax,8)
    5db2:	ff 
    5db3:	83 85 04 f9 ff ff 01 	addl   $0x1,-0x6fc(%rbp)
    5dba:	83 bd 04 f9 ff ff 00 	cmpl   $0x0,-0x6fc(%rbp)
    5dc1:	7e d9                	jle    5d9c <func_1+0x5e7>
    5dc3:	8b 85 1c f9 ff ff    	mov    -0x6e4(%rbp),%eax
    5dc9:	0f b6 d8             	movzbl %al,%ebx
    5dcc:	48 8b 05 f5 1c 01 00 	mov    0x11cf5(%rip),%rax        # 17ac8 <g_1655>
    5dd3:	0f be 95 ea f8 ff ff 	movsbl -0x716(%rbp),%edx
    5dda:	8b 85 1c f9 ff ff    	mov    -0x6e4(%rbp),%eax
    5de0:	0f b6 c0             	movzbl %al,%eax
    5de3:	89 d6                	mov    %edx,%esi
    5de5:	89 c7                	mov    %eax,%edi
    5de7:	e8 a1 ee ff ff       	callq  4c8d <safe_rshift_func_uint8_t_u_s>
    5dec:	84 c0                	test   %al,%al
    5dee:	0f 84 86 00 00 00    	je     5e7a <func_1+0x6c5>
    5df4:	48 8b 05 6d 17 01 00 	mov    0x1176d(%rip),%rax        # 17568 <g_910>
    5dfb:	48 8b 00             	mov    (%rax),%rax
    5dfe:	8b 10                	mov    (%rax),%edx
    5e00:	8b 05 2a 25 01 00    	mov    0x1252a(%rip),%eax        # 18330 <g_768>
    5e06:	31 d0                	xor    %edx,%eax
    5e08:	89 05 22 25 01 00    	mov    %eax,0x12522(%rip)        # 18330 <g_768>
    5e0e:	48 8b 05 93 1c 01 00 	mov    0x11c93(%rip),%rax        # 17aa8 <g_1382>
    5e15:	8b 10                	mov    (%rax),%edx
    5e17:	48 8b 85 38 fa ff ff 	mov    -0x5c8(%rbp),%rax
    5e1e:	48 85 c0             	test   %rax,%rax
    5e21:	0f 95 c0             	setne  %al
    5e24:	0f b6 c8             	movzbl %al,%ecx
    5e27:	0f b7 85 f0 f8 ff ff 	movzwl -0x710(%rbp),%eax
    5e2e:	21 c8                	and    %ecx,%eax
    5e30:	39 c2                	cmp    %eax,%edx
    5e32:	0f 92 c0             	setb   %al
    5e35:	0f b6 c0             	movzbl %al,%eax
    5e38:	be 03 00 00 00       	mov    $0x3,%esi
    5e3d:	89 c7                	mov    %eax,%edi
    5e3f:	e8 f1 e4 ff ff       	callq  4335 <safe_rshift_func_int8_t_s_s>
    5e44:	80 bd ea f8 ff ff 00 	cmpb   $0x0,-0x716(%rbp)
    5e4b:	0f 95 c0             	setne  %al
    5e4e:	0f b6 d0             	movzbl %al,%edx
    5e51:	8b 85 f8 f8 ff ff    	mov    -0x708(%rbp),%eax
    5e57:	31 d0                	xor    %edx,%eax
    5e59:	89 85 f8 f8 ff ff    	mov    %eax,-0x708(%rbp)
    5e5f:	8b 95 f8 f8 ff ff    	mov    -0x708(%rbp),%edx
    5e65:	0f b6 05 18 0f 01 00 	movzbl 0x10f18(%rip),%eax        # 16d84 <g_1846+0x4>
    5e6c:	0f b6 c0             	movzbl %al,%eax
    5e6f:	39 c2                	cmp    %eax,%edx
    5e71:	75 07                	jne    5e7a <func_1+0x6c5>
    5e73:	ba 01 00 00 00       	mov    $0x1,%edx
    5e78:	eb 05                	jmp    5e7f <func_1+0x6ca>
    5e7a:	ba 00 00 00 00       	mov    $0x0,%edx
    5e7f:	0f be 85 ea f8 ff ff 	movsbl -0x716(%rbp),%eax
    5e86:	39 c2                	cmp    %eax,%edx
    5e88:	0f 9c c0             	setl   %al
    5e8b:	0f b6 c0             	movzbl %al,%eax
    5e8e:	89 de                	mov    %ebx,%esi
    5e90:	89 c7                	mov    %eax,%edi
    5e92:	e8 fc ec ff ff       	callq  4b93 <safe_mul_func_uint8_t_u_u>
    5e97:	0f b6 c0             	movzbl %al,%eax
    5e9a:	be 66 00 00 00       	mov    $0x66,%esi
    5e9f:	89 c7                	mov    %eax,%edi
    5ea1:	e8 35 ed ff ff       	callq  4bdb <safe_div_func_uint8_t_u_u>
    5ea6:	0f b6 c0             	movzbl %al,%eax
    5ea9:	be a9 5e 00 00       	mov    $0x5ea9,%esi
    5eae:	89 c7                	mov    %eax,%edi
    5eb0:	e8 a0 e5 ff ff       	callq  4455 <safe_div_func_int16_t_s_s>
    5eb5:	66 3d bd 01          	cmp    $0x1bd,%ax
    5eb9:	0f 9f c0             	setg   %al
    5ebc:	0f b6 d0             	movzbl %al,%edx
    5ebf:	48 8b 85 40 f9 ff ff 	mov    -0x6c0(%rbp),%rax
    5ec6:	8b 00                	mov    (%rax),%eax
    5ec8:	09 c2                	or     %eax,%edx
    5eca:	48 8b 85 40 f9 ff ff 	mov    -0x6c0(%rbp),%rax
    5ed1:	89 10                	mov    %edx,(%rax)
    5ed3:	48 8b 0d 7e d7 00 00 	mov    0xd77e(%rip),%rcx        # 13658 <l_1998.4225+0x58>
    5eda:	48 8b 05 c7 1b 01 00 	mov    0x11bc7(%rip),%rax        # 17aa8 <g_1382>
    5ee1:	8b 10                	mov    (%rax),%edx
    5ee3:	83 ea 01             	sub    $0x1,%edx
    5ee6:	89 10                	mov    %edx,(%rax)
    5ee8:	8b 00                	mov    (%rax),%eax
    5eea:	3d 76 54 a5 c2       	cmp    $0xc2a55476,%eax
    5eef:	0f 94 c0             	sete   %al
    5ef2:	0f b6 d0             	movzbl %al,%edx
    5ef5:	48 8b 85 40 f9 ff ff 	mov    -0x6c0(%rbp),%rax
    5efc:	8b 00                	mov    (%rax),%eax
    5efe:	48 8b 1d 7b 16 01 00 	mov    0x1167b(%rip),%rbx        # 17580 <g_922>
    5f05:	48 8d b5 f8 f8 ff ff 	lea    -0x708(%rbp),%rsi
    5f0c:	89 c7                	mov    %eax,%edi
    5f0e:	e8 01 32 00 00       	callq  9114 <func_49>
    5f13:	48 89 03             	mov    %rax,(%rbx)
    5f16:	8b 05 88 e5 00 00    	mov    0xe588(%rip),%eax        # 144a4 <g_151>
    5f1c:	0f be c0             	movsbl %al,%eax
    5f1f:	be 02 00 00 00       	mov    $0x2,%esi
    5f24:	89 c7                	mov    %eax,%edi
    5f26:	e8 a9 e2 ff ff       	callq  41d4 <safe_add_func_int8_t_s_s>
    5f2b:	0f be c0             	movsbl %al,%eax
    5f2e:	89 05 70 e5 00 00    	mov    %eax,0xe570(%rip)        # 144a4 <g_151>
    5f34:	8b 05 6a e5 00 00    	mov    0xe56a(%rip),%eax        # 144a4 <g_151>
    5f3a:	83 f8 0e             	cmp    $0xe,%eax
    5f3d:	0f 8f cd fd ff ff    	jg     5d10 <func_1+0x55b>
    5f43:	48 83 bd 58 f9 ff ff 	cmpq   $0x0,-0x6a8(%rbp)
    5f4a:	00 
    5f4b:	0f 94 c0             	sete   %al
    5f4e:	0f b6 d8             	movzbl %al,%ebx
    5f51:	48 8b 05 68 13 01 00 	mov    0x11368(%rip),%rax        # 172c0 <g_468>
    5f58:	48 8b 00             	mov    (%rax),%rax
    5f5b:	48 8b 00             	mov    (%rax),%rax
    5f5e:	48 8b 50 08          	mov    0x8(%rax),%rdx
    5f62:	48 8b 00             	mov    (%rax),%rax
    5f65:	48 8b 05 74 12 01 00 	mov    0x11274(%rip),%rax        # 171e0 <g_353>
    5f6c:	48 8b 00             	mov    (%rax),%rax
    5f6f:	0f b6 00             	movzbl (%rax),%eax
    5f72:	0f be d0             	movsbl %al,%edx
    5f75:	48 8b 85 98 f9 ff ff 	mov    -0x668(%rbp),%rax
    5f7c:	0f be c0             	movsbl %al,%eax
    5f7f:	89 d6                	mov    %edx,%esi
    5f81:	89 c7                	mov    %eax,%edi
    5f83:	e8 6a e2 ff ff       	callq  41f2 <safe_sub_func_int8_t_s_s>
    5f88:	0f be c0             	movsbl %al,%eax
    5f8b:	21 d8                	and    %ebx,%eax
    5f8d:	89 c3                	mov    %eax,%ebx
    5f8f:	48 bf 06 f3 3c d4 d9 	movabs $0x32fe6cd9d43cf306,%rdi
    5f96:	6c fe 32 
    5f99:	e8 78 e8 ff ff       	callq  4816 <safe_unary_minus_func_int64_t_s>
    5f9e:	48 8b 85 60 f9 ff ff 	mov    -0x6a0(%rbp),%rax
    5fa5:	48 3b 85 a0 f9 ff ff 	cmp    -0x660(%rbp),%rax
    5fac:	0f 94 c0             	sete   %al
    5faf:	0f b6 c0             	movzbl %al,%eax
    5fb2:	be 02 00 00 00       	mov    $0x2,%esi
    5fb7:	89 c7                	mov    %eax,%edi
    5fb9:	e8 d4 e4 ff ff       	callq  4492 <safe_lshift_func_int16_t_s_s>
    5fbe:	66 85 c0             	test   %ax,%ax
    5fc1:	0f 94 c0             	sete   %al
    5fc4:	0f b6 c0             	movzbl %al,%eax
    5fc7:	48 be f6 cc 7a c8 f8 	movabs $0xf6e7ef8c87accf6,%rsi
    5fce:	7e 6e 0f 
    5fd1:	48 89 c7             	mov    %rax,%rdi
    5fd4:	e8 55 f0 ff ff       	callq  502e <safe_add_func_uint64_t_u_u>
    5fd9:	31 d8                	xor    %ebx,%eax
    5fdb:	89 c2                	mov    %eax,%edx
    5fdd:	48 8b 85 40 f9 ff ff 	mov    -0x6c0(%rbp),%rax
    5fe4:	89 10                	mov    %edx,(%rax)
    5fe6:	e9 95 01 00 00       	jmpq   6180 <func_1+0x9cb>
    5feb:	c6 85 e9 f8 ff ff 00 	movb   $0x0,-0x717(%rbp)
    5ff2:	48 8d 85 20 f9 ff ff 	lea    -0x6e0(%rbp),%rax
    5ff9:	48 89 85 80 f9 ff ff 	mov    %rax,-0x680(%rbp)
    6000:	c7 85 0c f9 ff ff 03 	movl   $0x3,-0x6f4(%rbp)
    6007:	00 00 00 
    600a:	48 8d 05 d7 0c 01 00 	lea    0x10cd7(%rip),%rax        # 16ce8 <g_1692>
    6011:	48 89 85 88 f9 ff ff 	mov    %rax,-0x678(%rbp)
    6018:	c7 85 10 f9 ff ff ff 	movl   $0xffffffff,-0x6f0(%rbp)
    601f:	ff ff ff 
    6022:	c7 85 08 f9 ff ff 00 	movl   $0x0,-0x6f8(%rbp)
    6029:	00 00 00 
    602c:	eb 1a                	jmp    6048 <func_1+0x893>
    602e:	8b 85 08 f9 ff ff    	mov    -0x6f8(%rbp),%eax
    6034:	48 98                	cltq   
    6036:	c7 84 85 60 fc ff ff 	movl   $0xfffffffc,-0x3a0(%rbp,%rax,4)
    603d:	fc ff ff ff 
    6041:	83 85 08 f9 ff ff 01 	addl   $0x1,-0x6f8(%rbp)
    6048:	83 bd 08 f9 ff ff 04 	cmpl   $0x4,-0x6f8(%rbp)
    604f:	7e dd                	jle    602e <func_1+0x879>
    6051:	4c 0f be a5 e9 f8 ff 	movsbq -0x717(%rbp),%r12
    6058:	ff 
    6059:	44 0f be ad e9 f8 ff 	movsbl -0x717(%rbp),%r13d
    6060:	ff 
    6061:	0f b7 05 9a e7 00 00 	movzwl 0xe79a(%rip),%eax        # 14802 <g_415>
    6068:	0f b6 d8             	movzbl %al,%ebx
    606b:	48 8b 05 3e 1a 01 00 	mov    0x11a3e(%rip),%rax        # 17ab0 <g_1381>
    6072:	48 8b 00             	mov    (%rax),%rax
    6075:	8b 10                	mov    (%rax),%edx
    6077:	83 c2 01             	add    $0x1,%edx
    607a:	89 10                	mov    %edx,(%rax)
    607c:	8b 00                	mov    (%rax),%eax
    607e:	66 25 ff 7f          	and    $0x7fff,%ax
    6082:	0f b7 c0             	movzwl %ax,%eax
    6085:	25 ff 7f 00 00       	and    $0x7fff,%eax
    608a:	c1 e0 04             	shl    $0x4,%eax
    608d:	89 c2                	mov    %eax,%edx
    608f:	8b 05 db eb 00 00    	mov    0xebdb(%rip),%eax        # 14c70 <g_934>
    6095:	25 0f 00 f8 ff       	and    $0xfff8000f,%eax
    609a:	09 d0                	or     %edx,%eax
    609c:	89 05 ce eb 00 00    	mov    %eax,0xebce(%rip)        # 14c70 <g_934>
    60a2:	48 8b 05 f7 10 01 00 	mov    0x110f7(%rip),%rax        # 171a0 <g_107>
    60a9:	48 8b 00             	mov    (%rax),%rax
    60ac:	48 89 c2             	mov    %rax,%rdx
    60af:	48 8d 05 ea 19 01 00 	lea    0x119ea(%rip),%rax        # 17aa0 <g_1352>
    60b6:	48 89 05 a3 1d 01 00 	mov    %rax,0x11da3(%rip)        # 17e60 <g_2199>
    60bd:	c7 85 60 fc ff ff 01 	movl   $0x1,-0x3a0(%rbp)
    60c4:	00 00 00 
    60c7:	8b 85 0c f9 ff ff    	mov    -0x6f4(%rbp),%eax
    60cd:	83 e0 01             	and    $0x1,%eax
    60d0:	48 89 d6             	mov    %rdx,%rsi
    60d3:	48 89 c7             	mov    %rax,%rdi
    60d6:	e8 66 e7 ff ff       	callq  4841 <safe_add_func_int64_t_s_s>
    60db:	8b 95 0c f9 ff ff    	mov    -0x6f4(%rbp),%edx
    60e1:	48 39 d0             	cmp    %rdx,%rax
    60e4:	0f 9e c0             	setle  %al
    60e7:	0f b6 d0             	movzbl %al,%edx
    60ea:	0f be 85 e9 f8 ff ff 	movsbl -0x717(%rbp),%eax
    60f1:	39 c2                	cmp    %eax,%edx
    60f3:	8b 85 0c f9 ff ff    	mov    -0x6f4(%rbp),%eax
    60f9:	66 89 85 f2 f8 ff ff 	mov    %ax,-0x70e(%rbp)
    6100:	48 83 bd 68 f9 ff ff 	cmpq   $0x0,-0x698(%rbp)
    6107:	00 
    6108:	75 13                	jne    611d <func_1+0x968>
    610a:	48 8b 05 0b ef 00 00 	mov    0xef0b(%rip),%rax        # 1501c <g_1044+0x37c>
    6111:	48 85 c0             	test   %rax,%rax
    6114:	74 07                	je     611d <func_1+0x968>
    6116:	b8 01 00 00 00       	mov    $0x1,%eax
    611b:	eb 05                	jmp    6122 <func_1+0x96d>
    611d:	b8 00 00 00 00       	mov    $0x0,%eax
    6122:	0f be c0             	movsbl %al,%eax
    6125:	be 01 00 00 00       	mov    $0x1,%esi
    612a:	89 c7                	mov    %eax,%edi
    612c:	e8 a3 e0 ff ff       	callq  41d4 <safe_add_func_int8_t_s_s>
    6131:	0f b7 95 f4 f8 ff ff 	movzwl -0x70c(%rbp),%edx
    6138:	09 d0                	or     %edx,%eax
    613a:	83 f0 e9             	xor    $0xffffffe9,%eax
    613d:	0f b6 c0             	movzbl %al,%eax
    6140:	89 de                	mov    %ebx,%esi
    6142:	89 c7                	mov    %eax,%edi
    6144:	e8 11 ea ff ff       	callq  4b5a <safe_add_func_uint8_t_u_u>
    6149:	0f b6 c0             	movzbl %al,%eax
    614c:	44 09 e8             	or     %r13d,%eax
    614f:	3d 70 80 00 00       	cmp    $0x8070,%eax
    6154:	0f 95 c0             	setne  %al
    6157:	0f b6 d0             	movzbl %al,%edx
    615a:	48 8b 85 88 f9 ff ff 	mov    -0x678(%rbp),%rax
    6161:	48 89 10             	mov    %rdx,(%rax)
    6164:	48 8b 85 88 f9 ff ff 	mov    -0x678(%rbp),%rax
    616b:	48 8b 10             	mov    (%rax),%rdx
    616e:	8b 85 0c f9 ff ff    	mov    -0x6f4(%rbp),%eax
    6174:	48 31 d0             	xor    %rdx,%rax
    6177:	4c 31 e0             	xor    %r12,%rax
    617a:	09 85 10 f9 ff ff    	or     %eax,-0x6f0(%rbp)
    6180:	48 83 bd 70 f9 ff ff 	cmpq   $0x0,-0x690(%rbp)
    6187:	00 
    6188:	48 8b 05 11 10 01 00 	mov    0x11011(%rip),%rax        # 171a0 <g_107>
    618f:	48 8b 18             	mov    (%rax),%rbx
    6192:	48 8b 05 07 10 01 00 	mov    0x11007(%rip),%rax        # 171a0 <g_107>
    6199:	48 8b 00             	mov    (%rax),%rax
    619c:	48 85 c0             	test   %rax,%rax
    619f:	74 14                	je     61b5 <func_1+0xa00>
    61a1:	48 8b 85 40 f9 ff ff 	mov    -0x6c0(%rbp),%rax
    61a8:	8b 00                	mov    (%rax),%eax
    61aa:	85 c0                	test   %eax,%eax
    61ac:	74 07                	je     61b5 <func_1+0xa00>
    61ae:	b8 01 00 00 00       	mov    $0x1,%eax
    61b3:	eb 05                	jmp    61ba <func_1+0xa05>
    61b5:	b8 00 00 00 00       	mov    $0x0,%eax
    61ba:	0f b6 c0             	movzbl %al,%eax
    61bd:	be 07 00 00 00       	mov    $0x7,%esi
    61c2:	89 c7                	mov    %eax,%edi
    61c4:	e8 ca e9 ff ff       	callq  4b93 <safe_mul_func_uint8_t_u_u>
    61c9:	0f b6 d0             	movzbl %al,%edx
    61cc:	48 8b 05 cd 0f 01 00 	mov    0x10fcd(%rip),%rax        # 171a0 <g_107>
    61d3:	48 8b 00             	mov    (%rax),%rax
    61d6:	48 89 d6             	mov    %rdx,%rsi
    61d9:	48 89 c7             	mov    %rax,%rdi
    61dc:	e8 9f ee ff ff       	callq  5080 <safe_mod_func_uint64_t_u_u>
    61e1:	49 89 c4             	mov    %rax,%r12
    61e4:	48 8b 85 40 f9 ff ff 	mov    -0x6c0(%rbp),%rax
    61eb:	8b 00                	mov    (%rax),%eax
    61ed:	48 63 d0             	movslq %eax,%rdx
    61f0:	48 8b 05 a9 0f 01 00 	mov    0x10fa9(%rip),%rax        # 171a0 <g_107>
    61f7:	48 8b 00             	mov    (%rax),%rax
    61fa:	48 89 d6             	mov    %rdx,%rsi
    61fd:	48 89 c7             	mov    %rax,%rdi
    6200:	e8 aa ee ff ff       	callq  50af <safe_div_func_uint64_t_u_u>
    6205:	4c 89 e6             	mov    %r12,%rsi
    6208:	48 89 c7             	mov    %rax,%rdi
    620b:	e8 31 e6 ff ff       	callq  4841 <safe_add_func_int64_t_s_s>
    6210:	48 c1 e8 3f          	shr    $0x3f,%rax
    6214:	0f b6 c0             	movzbl %al,%eax
    6217:	48 89 de             	mov    %rbx,%rsi
    621a:	48 89 c7             	mov    %rax,%rdi
    621d:	e8 8d ee ff ff       	callq  50af <safe_div_func_uint64_t_u_u>
    6222:	8b 15 58 e6 00 00    	mov    0xe658(%rip),%edx        # 14880 <g_476+0x40>
    6228:	c1 ea 04             	shr    $0x4,%edx
    622b:	66 81 e2 ff 7f       	and    $0x7fff,%dx
    6230:	0f b7 d2             	movzwl %dx,%edx
    6233:	48 39 d0             	cmp    %rdx,%rax
    6236:	75 12                	jne    624a <func_1+0xa95>
    6238:	48 8b 05 b9 e3 00 00 	mov    0xe3b9(%rip),%rax        # 145f8 <g_322+0x18>
    623f:	48 c1 e8 37          	shr    $0x37,%rax
    6243:	83 e0 03             	and    $0x3,%eax
    6246:	84 c0                	test   %al,%al
    6248:	74 07                	je     6251 <func_1+0xa9c>
    624a:	ba 01 00 00 00       	mov    $0x1,%edx
    624f:	eb 05                	jmp    6256 <func_1+0xaa1>
    6251:	ba 00 00 00 00       	mov    $0x0,%edx
    6256:	48 8b 85 40 f9 ff ff 	mov    -0x6c0(%rbp),%rax
    625d:	8b 00                	mov    (%rax),%eax
    625f:	21 d0                	and    %edx,%eax
    6261:	83 f8 1a             	cmp    $0x1a,%eax
    6264:	48 8d 05 3d 18 01 00 	lea    0x1183d(%rip),%rax        # 17aa8 <g_1382>
    626b:	48 89 85 60 fc ff ff 	mov    %rax,-0x3a0(%rbp)
    6272:	48 c7 85 68 fc ff ff 	movq   $0x0,-0x398(%rbp)
    6279:	00 00 00 00 
    627d:	48 8d 05 24 18 01 00 	lea    0x11824(%rip),%rax        # 17aa8 <g_1382>
    6284:	48 89 85 70 fc ff ff 	mov    %rax,-0x390(%rbp)
    628b:	48 c7 85 78 fc ff ff 	movq   $0x0,-0x388(%rbp)
    6292:	00 00 00 00 
    6296:	48 8d 05 0b 18 01 00 	lea    0x1180b(%rip),%rax        # 17aa8 <g_1382>
    629d:	48 89 85 80 fc ff ff 	mov    %rax,-0x380(%rbp)
    62a4:	48 c7 85 88 fc ff ff 	movq   $0x0,-0x378(%rbp)
    62ab:	00 00 00 00 
    62af:	48 8d 05 f2 17 01 00 	lea    0x117f2(%rip),%rax        # 17aa8 <g_1382>
    62b6:	48 89 85 90 fc ff ff 	mov    %rax,-0x370(%rbp)
    62bd:	48 c7 85 98 fc ff ff 	movq   $0x0,-0x368(%rbp)
    62c4:	00 00 00 00 
    62c8:	48 8d 05 d9 17 01 00 	lea    0x117d9(%rip),%rax        # 17aa8 <g_1382>
    62cf:	48 89 85 a0 fc ff ff 	mov    %rax,-0x360(%rbp)
    62d6:	48 8d 05 cb 17 01 00 	lea    0x117cb(%rip),%rax        # 17aa8 <g_1382>
    62dd:	48 89 85 a8 fc ff ff 	mov    %rax,-0x358(%rbp)
    62e4:	48 8d 05 bd 17 01 00 	lea    0x117bd(%rip),%rax        # 17aa8 <g_1382>
    62eb:	48 89 85 b0 fc ff ff 	mov    %rax,-0x350(%rbp)
    62f2:	48 8d 05 af 17 01 00 	lea    0x117af(%rip),%rax        # 17aa8 <g_1382>
    62f9:	48 89 85 b8 fc ff ff 	mov    %rax,-0x348(%rbp)
    6300:	48 8d 05 a1 17 01 00 	lea    0x117a1(%rip),%rax        # 17aa8 <g_1382>
    6307:	48 89 85 c0 fc ff ff 	mov    %rax,-0x340(%rbp)
    630e:	48 8d 05 93 17 01 00 	lea    0x11793(%rip),%rax        # 17aa8 <g_1382>
    6315:	48 89 85 c8 fc ff ff 	mov    %rax,-0x338(%rbp)
    631c:	48 8d 05 85 17 01 00 	lea    0x11785(%rip),%rax        # 17aa8 <g_1382>
    6323:	48 89 85 d0 fc ff ff 	mov    %rax,-0x330(%rbp)
    632a:	48 8d 05 77 17 01 00 	lea    0x11777(%rip),%rax        # 17aa8 <g_1382>
    6331:	48 89 85 d8 fc ff ff 	mov    %rax,-0x328(%rbp)
    6338:	48 8d 05 69 17 01 00 	lea    0x11769(%rip),%rax        # 17aa8 <g_1382>
    633f:	48 89 85 e0 fc ff ff 	mov    %rax,-0x320(%rbp)
    6346:	48 8d 05 5b 17 01 00 	lea    0x1175b(%rip),%rax        # 17aa8 <g_1382>
    634d:	48 89 85 e8 fc ff ff 	mov    %rax,-0x318(%rbp)
    6354:	48 8d 05 4d 17 01 00 	lea    0x1174d(%rip),%rax        # 17aa8 <g_1382>
    635b:	48 89 85 f0 fc ff ff 	mov    %rax,-0x310(%rbp)
    6362:	48 c7 85 f8 fc ff ff 	movq   $0x0,-0x308(%rbp)
    6369:	00 00 00 00 
    636d:	48 8d 05 34 17 01 00 	lea    0x11734(%rip),%rax        # 17aa8 <g_1382>
    6374:	48 89 85 00 fd ff ff 	mov    %rax,-0x300(%rbp)
    637b:	48 c7 85 08 fd ff ff 	movq   $0x0,-0x2f8(%rbp)
    6382:	00 00 00 00 
    6386:	48 8d 05 1b 17 01 00 	lea    0x1171b(%rip),%rax        # 17aa8 <g_1382>
    638d:	48 89 85 10 fd ff ff 	mov    %rax,-0x2f0(%rbp)
    6394:	48 c7 85 18 fd ff ff 	movq   $0x0,-0x2e8(%rbp)
    639b:	00 00 00 00 
    639f:	48 8d 05 02 17 01 00 	lea    0x11702(%rip),%rax        # 17aa8 <g_1382>
    63a6:	48 89 85 20 fd ff ff 	mov    %rax,-0x2e0(%rbp)
    63ad:	48 c7 85 28 fd ff ff 	movq   $0x0,-0x2d8(%rbp)
    63b4:	00 00 00 00 
    63b8:	48 8d 05 e9 16 01 00 	lea    0x116e9(%rip),%rax        # 17aa8 <g_1382>
    63bf:	48 89 85 30 fd ff ff 	mov    %rax,-0x2d0(%rbp)
    63c6:	48 8d 85 60 fc ff ff 	lea    -0x3a0(%rbp),%rax
    63cd:	48 83 e8 80          	sub    $0xffffffffffffff80,%rax
    63d1:	48 89 85 c0 f9 ff ff 	mov    %rax,-0x640(%rbp)
    63d8:	48 8d 85 20 f9 ff ff 	lea    -0x6e0(%rbp),%rax
    63df:	48 89 85 c8 f9 ff ff 	mov    %rax,-0x638(%rbp)
    63e6:	48 8d 85 28 f9 ff ff 	lea    -0x6d8(%rbp),%rax
    63ed:	48 89 85 d0 f9 ff ff 	mov    %rax,-0x630(%rbp)
    63f4:	48 8b 05 75 11 01 00 	mov    0x11175(%rip),%rax        # 17570 <g_909>
    63fb:	48 8b 00             	mov    (%rax),%rax
    63fe:	48 8b 00             	mov    (%rax),%rax
    6401:	8b 00                	mov    (%rax),%eax
    6403:	48 8b 95 20 f9 ff ff 	mov    -0x6e0(%rbp),%rdx
    640a:	48 8b 85 c8 f9 ff ff 	mov    -0x638(%rbp),%rax
    6411:	48 89 10             	mov    %rdx,(%rax)
    6414:	48 8b 95 28 f9 ff ff 	mov    -0x6d8(%rbp),%rdx
    641b:	48 8b 85 d0 f9 ff ff 	mov    -0x630(%rbp),%rax
    6422:	48 89 10             	mov    %rdx,(%rax)
    6425:	48 8b 05 72 e1 00 00 	mov    0xe172(%rip),%rax        # 1459e <g_296+0x1e>
    642c:	0f b6 d0             	movzbl %al,%edx
    642f:	48 8b 05 a2 0d 01 00 	mov    0x10da2(%rip),%rax        # 171d8 <g_354>
    6436:	0f b6 00             	movzbl (%rax),%eax
    6439:	0f b6 c0             	movzbl %al,%eax
    643c:	89 d6                	mov    %edx,%esi
    643e:	89 c7                	mov    %eax,%edi
    6440:	e8 15 e7 ff ff       	callq  4b5a <safe_add_func_uint8_t_u_u>
    6445:	0f b6 c0             	movzbl %al,%eax
    6448:	be 0f 00 00 00       	mov    $0xf,%esi
    644d:	89 c7                	mov    %eax,%edi
    644f:	e8 f4 e9 ff ff       	callq  4e48 <safe_rshift_func_uint16_t_u_s>
    6454:	0f b6 d0             	movzbl %al,%edx
    6457:	48 8d 85 10 fa ff ff 	lea    -0x5f0(%rbp),%rax
    645e:	48 83 c0 28          	add    $0x28,%rax
    6462:	48 89 85 78 f9 ff ff 	mov    %rax,-0x688(%rbp)
    6469:	48 8b 85 78 f9 ff ff 	mov    -0x688(%rbp),%rax
    6470:	48 3b 85 c0 f9 ff ff 	cmp    -0x640(%rbp),%rax
    6477:	0f 94 c0             	sete   %al
    647a:	0f b6 c0             	movzbl %al,%eax
    647d:	89 d6                	mov    %edx,%esi
    647f:	89 c7                	mov    %eax,%edi
    6481:	e8 0d e7 ff ff       	callq  4b93 <safe_mul_func_uint8_t_u_u>
    6486:	48 8b 85 40 f9 ff ff 	mov    -0x6c0(%rbp),%rax
    648d:	8b 00                	mov    (%rax),%eax
    648f:	83 f8 f7             	cmp    $0xfffffff7,%eax
    6492:	0f 9c c0             	setl   %al
    6495:	0f b6 d0             	movzbl %al,%edx
    6498:	48 8b 05 01 0d 01 00 	mov    0x10d01(%rip),%rax        # 171a0 <g_107>
    649f:	48 8b 00             	mov    (%rax),%rax
    64a2:	48 39 c2             	cmp    %rax,%rdx
    64a5:	0f 97 c0             	seta   %al
    64a8:	0f b6 c8             	movzbl %al,%ecx
    64ab:	48 8b 05 c6 10 01 00 	mov    0x110c6(%rip),%rax        # 17578 <g_916>
    64b2:	8b 10                	mov    (%rax),%edx
    64b4:	48 8b 05 bd 10 01 00 	mov    0x110bd(%rip),%rax        # 17578 <g_916>
    64bb:	21 ca                	and    %ecx,%edx
    64bd:	89 10                	mov    %edx,(%rax)
    64bf:	48 8b 85 40 f9 ff ff 	mov    -0x6c0(%rbp),%rax
    64c6:	8b 00                	mov    (%rax),%eax
    64c8:	48 8b 5d c8          	mov    -0x38(%rbp),%rbx
    64cc:	64 48 33 1c 25 28 00 	xor    %fs:0x28,%rbx
    64d3:	00 00 
    64d5:	74 05                	je     64dc <func_1+0xd27>
    64d7:	e8 94 db ff ff       	callq  4070 <__stack_chk_fail@plt>
    64dc:	48 81 c4 08 07 00 00 	add    $0x708,%rsp
    64e3:	5b                   	pop    %rbx
    64e4:	41 5c                	pop    %r12
    64e6:	41 5d                	pop    %r13
    64e8:	41 5e                	pop    %r14
    64ea:	41 5f                	pop    %r15
    64ec:	5d                   	pop    %rbp
    64ed:	c3                   	retq   

00000000000064ee <func_8>:
    64ee:	f3 0f 1e fa          	endbr64 
    64f2:	55                   	push   %rbp
    64f3:	48 89 e5             	mov    %rsp,%rbp
    64f6:	41 56                	push   %r14
    64f8:	41 55                	push   %r13
    64fa:	41 54                	push   %r12
    64fc:	53                   	push   %rbx
    64fd:	48 81 ec 10 0a 00 00 	sub    $0xa10,%rsp
    6504:	48 89 bd e8 f5 ff ff 	mov    %rdi,-0xa18(%rbp)
    650b:	89 b5 e4 f5 ff ff    	mov    %esi,-0xa1c(%rbp)
    6511:	89 c8                	mov    %ecx,%eax
    6513:	88 95 e0 f5 ff ff    	mov    %dl,-0xa20(%rbp)
    6519:	88 85 dc f5 ff ff    	mov    %al,-0xa24(%rbp)
    651f:	64 48 8b 04 25 28 00 	mov    %fs:0x28,%rax
    6526:	00 00 
    6528:	48 89 45 d8          	mov    %rax,-0x28(%rbp)
    652c:	31 c0                	xor    %eax,%eax
    652e:	48 8d 85 80 fa ff ff 	lea    -0x580(%rbp),%rax
    6535:	48 8d 15 24 8f 00 00 	lea    0x8f24(%rip),%rdx        # f460 <g_1955+0x388>
    653c:	b9 31 00 00 00       	mov    $0x31,%ecx
    6541:	48 89 c7             	mov    %rax,%rdi
    6544:	48 89 d6             	mov    %rdx,%rsi
    6547:	f3 48 a5             	rep movsq %ds:(%rsi),%es:(%rdi)
    654a:	48 8d 05 ef df 00 00 	lea    0xdfef(%rip),%rax        # 14540 <g_282>
    6551:	48 89 85 60 f6 ff ff 	mov    %rax,-0x9a0(%rbp)
    6558:	48 8d 05 09 1e 01 00 	lea    0x11e09(%rip),%rax        # 18368 <g_1354>
    655f:	48 89 85 28 f6 ff ff 	mov    %rax,-0x9d8(%rbp)
    6566:	48 8d 85 28 f6 ff ff 	lea    -0x9d8(%rbp),%rax
    656d:	48 89 85 30 f6 ff ff 	mov    %rax,-0x9d0(%rbp)
    6574:	48 8d 85 30 f6 ff ff 	lea    -0x9d0(%rbp),%rax
    657b:	48 89 85 68 f6 ff ff 	mov    %rax,-0x998(%rbp)
    6582:	48 c7 85 70 f6 ff ff 	movq   $0x0,-0x990(%rbp)
    6589:	00 00 00 00 
    658d:	c7 85 08 f6 ff ff 0a 	movl   $0x8e108c0a,-0x9f8(%rbp)
    6594:	8c 10 8e 
    6597:	48 8d 85 00 f9 ff ff 	lea    -0x700(%rbp),%rax
    659e:	48 8d 15 5b 90 00 00 	lea    0x905b(%rip),%rdx        # f600 <g_1955+0x528>
    65a5:	b9 30 00 00 00       	mov    $0x30,%ecx
    65aa:	48 89 c7             	mov    %rax,%rdi
    65ad:	48 89 d6             	mov    %rdx,%rsi
    65b0:	f3 48 a5             	rep movsq %ds:(%rsi),%es:(%rdi)
    65b3:	c6 85 fb f5 ff ff ac 	movb   $0xac,-0xa05(%rbp)
    65ba:	c6 85 fc f5 ff ff ff 	movb   $0xff,-0xa04(%rbp)
    65c1:	48 8d 85 00 f9 ff ff 	lea    -0x700(%rbp),%rax
    65c8:	48 05 58 01 00 00    	add    $0x158,%rax
    65ce:	48 89 85 78 f6 ff ff 	mov    %rax,-0x988(%rbp)
    65d5:	c7 85 0c f6 ff ff 00 	movl   $0x0,-0x9f4(%rbp)
    65dc:	00 00 00 
    65df:	eb 1b                	jmp    65fc <func_8+0x10e>
    65e1:	8b 85 0c f6 ff ff    	mov    -0x9f4(%rbp),%eax
    65e7:	48 98                	cltq   
    65e9:	48 c7 84 c5 90 f7 ff 	movq   $0x0,-0x870(%rbp,%rax,8)
    65f0:	ff 00 00 00 00 
    65f5:	83 85 0c f6 ff ff 01 	addl   $0x1,-0x9f4(%rbp)
    65fc:	83 bd 0c f6 ff ff 00 	cmpl   $0x0,-0x9f4(%rbp)
    6603:	7e dc                	jle    65e1 <func_8+0xf3>
    6605:	c7 85 0c f6 ff ff 00 	movl   $0x0,-0x9f4(%rbp)
    660c:	00 00 00 
    660f:	eb 1b                	jmp    662c <func_8+0x13e>
    6611:	8b 85 0c f6 ff ff    	mov    -0x9f4(%rbp),%eax
    6617:	48 98                	cltq   
    6619:	48 c7 84 c5 a0 f7 ff 	movq   $0x5,-0x860(%rbp,%rax,8)
    6620:	ff 05 00 00 00 
    6625:	83 85 0c f6 ff ff 01 	addl   $0x1,-0x9f4(%rbp)
    662c:	83 bd 0c f6 ff ff 02 	cmpl   $0x2,-0x9f4(%rbp)
    6633:	7e dc                	jle    6611 <func_8+0x123>
    6635:	c6 85 e0 f5 ff ff 00 	movb   $0x0,-0xa20(%rbp)
    663c:	e9 02 0b 00 00       	jmpq   7143 <func_8+0xc55>
    6641:	66 c7 85 02 f6 ff ff 	movw   $0xffff,-0x9fe(%rbp)
    6648:	ff ff 
    664a:	48 c7 85 80 f6 ff ff 	movq   $0x0,-0x980(%rbp)
    6651:	00 00 00 00 
    6655:	48 8d 85 10 fc ff ff 	lea    -0x3f0(%rbp),%rax
    665c:	48 8d 15 1d 91 00 00 	lea    0x911d(%rip),%rdx        # f780 <g_1955+0x6a8>
    6663:	b9 78 00 00 00       	mov    $0x78,%ecx
    6668:	48 89 c7             	mov    %rax,%rdi
    666b:	48 89 d6             	mov    %rdx,%rsi
    666e:	f3 48 a5             	rep movsq %ds:(%rsi),%es:(%rdi)
    6671:	48 8d 05 08 07 01 00 	lea    0x10708(%rip),%rax        # 16d80 <g_1846>
    6678:	48 89 85 88 f6 ff ff 	mov    %rax,-0x978(%rbp)
    667f:	c7 85 18 f6 ff ff 96 	movl   $0x159fd196,-0x9e8(%rbp)
    6686:	d1 9f 15 
    6689:	48 c7 85 90 f6 ff ff 	movq   $0x0,-0x970(%rbp)
    6690:	00 00 00 00 
    6694:	48 c7 85 38 f6 ff ff 	movq   $0x0,-0x9c8(%rbp)
    669b:	00 00 00 00 
    669f:	48 8d 85 38 f6 ff ff 	lea    -0x9c8(%rbp),%rax
    66a6:	48 89 85 98 f6 ff ff 	mov    %rax,-0x968(%rbp)
    66ad:	48 8d 05 6c 16 01 00 	lea    0x1166c(%rip),%rax        # 17d20 <g_1917+0x20>
    66b4:	48 89 85 40 f6 ff ff 	mov    %rax,-0x9c0(%rbp)
    66bb:	48 8d 85 40 f6 ff ff 	lea    -0x9c0(%rbp),%rax
    66c2:	48 89 85 48 f6 ff ff 	mov    %rax,-0x9b8(%rbp)
    66c9:	48 8d 85 48 f6 ff ff 	lea    -0x9b8(%rbp),%rax
    66d0:	48 89 85 a0 f6 ff ff 	mov    %rax,-0x960(%rbp)
    66d7:	66 c7 05 60 eb 00 00 	movw   $0x1,0xeb60(%rip)        # 15240 <g_1239>
    66de:	01 00 
    66e0:	e9 f6 07 00 00       	jmpq   6edb <func_8+0x9ed>
    66e5:	66 c7 85 00 f6 ff ff 	movw   $0xffff,-0xa00(%rbp)
    66ec:	ff ff 
    66ee:	c6 85 ff f5 ff ff cd 	movb   $0xcd,-0xa01(%rbp)
    66f5:	c7 85 e0 f7 ff ff 00 	movl   $0x0,-0x820(%rbp)
    66fc:	00 00 00 
    66ff:	c7 85 e4 f7 ff ff 00 	movl   $0x0,-0x81c(%rbp)
    6706:	00 00 00 
    6709:	c7 85 e8 f7 ff ff 00 	movl   $0x0,-0x818(%rbp)
    6710:	00 00 00 
    6713:	c7 85 ec f7 ff ff 00 	movl   $0x0,-0x814(%rbp)
    671a:	00 00 00 
    671d:	c7 85 f0 f7 ff ff 00 	movl   $0x0,-0x810(%rbp)
    6724:	00 00 00 
    6727:	c7 85 f4 f7 ff ff f6 	movl   $0xfffffff6,-0x80c(%rbp)
    672e:	ff ff ff 
    6731:	c7 85 f8 f7 ff ff 8c 	movl   $0x7eb1d88c,-0x808(%rbp)
    6738:	d8 b1 7e 
    673b:	c7 85 fc f7 ff ff f6 	movl   $0xfffffff6,-0x804(%rbp)
    6742:	ff ff ff 
    6745:	c7 85 00 f8 ff ff 8c 	movl   $0x7eb1d88c,-0x800(%rbp)
    674c:	d8 b1 7e 
    674f:	c7 85 04 f8 ff ff f6 	movl   $0xfffffff6,-0x7fc(%rbp)
    6756:	ff ff ff 
    6759:	48 c7 85 20 f7 ff ff 	movq   $0x0,-0x8e0(%rbp)
    6760:	00 00 00 00 
    6764:	c7 85 10 f6 ff ff 00 	movl   $0x0,-0x9f0(%rbp)
    676b:	00 00 00 
    676e:	eb 1a                	jmp    678a <func_8+0x29c>
    6770:	8b 85 10 f6 ff ff    	mov    -0x9f0(%rbp),%eax
    6776:	48 98                	cltq   
    6778:	c7 84 85 98 f7 ff ff 	movl   $0x0,-0x868(%rbp,%rax,4)
    677f:	00 00 00 00 
    6783:	83 85 10 f6 ff ff 01 	addl   $0x1,-0x9f0(%rbp)
    678a:	83 bd 10 f6 ff ff 01 	cmpl   $0x1,-0x9f0(%rbp)
    6791:	7e dd                	jle    6770 <func_8+0x282>
    6793:	c7 05 ad dd 00 00 01 	movl   $0x1,0xddad(%rip)        # 1454a <g_282+0xa>
    679a:	00 00 00 
    679d:	eb 26                	jmp    67c5 <func_8+0x2d7>
    679f:	48 8b 85 e8 f5 ff ff 	mov    -0xa18(%rbp),%rax
    67a6:	8b 00                	mov    (%rax),%eax
    67a8:	83 c8 01             	or     $0x1,%eax
    67ab:	89 c2                	mov    %eax,%edx
    67ad:	48 8b 85 e8 f5 ff ff 	mov    -0xa18(%rbp),%rax
    67b4:	89 10                	mov    %edx,(%rax)
    67b6:	8b 05 8e dd 00 00    	mov    0xdd8e(%rip),%eax        # 1454a <g_282+0xa>
    67bc:	83 c0 01             	add    $0x1,%eax
    67bf:	89 05 85 dd 00 00    	mov    %eax,0xdd85(%rip)        # 1454a <g_282+0xa>
    67c5:	8b 05 7f dd 00 00    	mov    0xdd7f(%rip),%eax        # 1454a <g_282+0xa>
    67cb:	83 f8 05             	cmp    $0x5,%eax
    67ce:	76 cf                	jbe    679f <func_8+0x2b1>
    67d0:	c7 05 82 ea 00 00 00 	movl   $0x0,0xea82(%rip)        # 1525c <g_1242+0xc>
    67d7:	00 00 00 
    67da:	e9 dc 06 00 00       	jmpq   6ebb <func_8+0x9cd>
    67df:	48 8d 05 ba 12 01 00 	lea    0x112ba(%rip),%rax        # 17aa0 <g_1352>
    67e6:	48 89 85 10 f8 ff ff 	mov    %rax,-0x7f0(%rbp)
    67ed:	48 8d 05 ac 12 01 00 	lea    0x112ac(%rip),%rax        # 17aa0 <g_1352>
    67f4:	48 89 85 18 f8 ff ff 	mov    %rax,-0x7e8(%rbp)
    67fb:	48 8d 05 9e 12 01 00 	lea    0x1129e(%rip),%rax        # 17aa0 <g_1352>
    6802:	48 89 85 20 f8 ff ff 	mov    %rax,-0x7e0(%rbp)
    6809:	48 8d 05 90 12 01 00 	lea    0x11290(%rip),%rax        # 17aa0 <g_1352>
    6810:	48 89 85 28 f8 ff ff 	mov    %rax,-0x7d8(%rbp)
    6817:	48 8d 05 82 12 01 00 	lea    0x11282(%rip),%rax        # 17aa0 <g_1352>
    681e:	48 89 85 30 f8 ff ff 	mov    %rax,-0x7d0(%rbp)
    6825:	48 8d 05 74 12 01 00 	lea    0x11274(%rip),%rax        # 17aa0 <g_1352>
    682c:	48 89 85 38 f8 ff ff 	mov    %rax,-0x7c8(%rbp)
    6833:	c7 85 14 f6 ff ff 00 	movl   $0x0,-0x9ec(%rbp)
    683a:	00 00 00 
    683d:	eb 1e                	jmp    685d <func_8+0x36f>
    683f:	8b 85 14 f6 ff ff    	mov    -0x9ec(%rbp),%eax
    6845:	48 98                	cltq   
    6847:	48 8d 15 56 dc 00 00 	lea    0xdc56(%rip),%rdx        # 144a4 <g_151>
    684e:	48 89 94 c5 c0 f7 ff 	mov    %rdx,-0x840(%rbp,%rax,8)
    6855:	ff 
    6856:	83 85 14 f6 ff ff 01 	addl   $0x1,-0x9ec(%rbp)
    685d:	83 bd 14 f6 ff ff 02 	cmpl   $0x2,-0x9ec(%rbp)
    6864:	7e d9                	jle    683f <func_8+0x351>
    6866:	0f b7 85 00 f6 ff ff 	movzwl -0xa00(%rbp),%eax
    686d:	83 e8 01             	sub    $0x1,%eax
    6870:	66 89 85 00 f6 ff ff 	mov    %ax,-0xa00(%rbp)
    6877:	48 8b 85 e8 f5 ff ff 	mov    -0xa18(%rbp),%rax
    687e:	c7 00 01 00 00 00    	movl   $0x1,(%rax)
    6884:	c7 05 cc dc 00 00 05 	movl   $0x5,0xdccc(%rip)        # 1455a <g_282+0x1a>
    688b:	00 00 00 
    688e:	90                   	nop
    688f:	8b 05 c5 dc 00 00    	mov    0xdcc5(%rip),%eax        # 1455a <g_282+0x1a>
    6895:	85 c0                	test   %eax,%eax
    6897:	0f 8e 05 03 00 00    	jle    6ba2 <func_8+0x6b4>
    689d:	48 8d 05 8c d7 00 00 	lea    0xd78c(%rip),%rax        # 14030 <g_21>
    68a4:	48 89 85 78 f7 ff ff 	mov    %rax,-0x888(%rbp)
    68ab:	48 8d 05 f6 11 01 00 	lea    0x111f6(%rip),%rax        # 17aa8 <g_1382>
    68b2:	48 89 85 80 f7 ff ff 	mov    %rax,-0x880(%rbp)
    68b9:	c7 85 24 f6 ff ff fa 	movl   $0xfffffffa,-0x9dc(%rbp)
    68c0:	ff ff ff 
    68c3:	8b 85 e4 f5 ff ff    	mov    -0xa1c(%rbp),%eax
    68c9:	0f b7 d8             	movzwl %ax,%ebx
    68cc:	44 0f b7 a5 02 f6 ff 	movzwl -0x9fe(%rbp),%r12d
    68d3:	ff 
    68d4:	0f b6 85 e0 f5 ff ff 	movzbl -0xa20(%rbp),%eax
    68db:	08 85 ff f5 ff ff    	or     %al,-0xa01(%rbp)
    68e1:	4c 0f be b5 ff f5 ff 	movsbq -0xa01(%rbp),%r14
    68e8:	ff 
    68e9:	4c 0f be ad e0 f5 ff 	movsbq -0xa20(%rbp),%r13
    68f0:	ff 
    68f1:	8b 85 04 f8 ff ff    	mov    -0x7fc(%rbp),%eax
    68f7:	83 bd 24 f6 ff ff 00 	cmpl   $0x0,-0x9dc(%rbp)
    68fe:	74 07                	je     6907 <func_8+0x419>
    6900:	ba 01 00 00 00       	mov    $0x1,%edx
    6905:	eb 05                	jmp    690c <func_8+0x41e>
    6907:	ba 00 00 00 00       	mov    $0x0,%edx
    690c:	21 d0                	and    %edx,%eax
    690e:	89 85 04 f8 ff ff    	mov    %eax,-0x7fc(%rbp)
    6914:	8b 85 04 f8 ff ff    	mov    -0x7fc(%rbp),%eax
    691a:	39 85 e4 f5 ff ff    	cmp    %eax,-0xa1c(%rbp)
    6920:	0f 9d c0             	setge  %al
    6923:	0f b6 c0             	movzbl %al,%eax
    6926:	48 c7 c6 f8 ff ff ff 	mov    $0xfffffffffffffff8,%rsi
    692d:	48 89 c7             	mov    %rax,%rdi
    6930:	e8 f9 e6 ff ff       	callq  502e <safe_add_func_uint64_t_u_u>
    6935:	66 83 bd 00 f6 ff ff 	cmpw   $0x1,-0xa00(%rbp)
    693c:	01 
    693d:	0f 94 c0             	sete   %al
    6940:	0f b6 c0             	movzbl %al,%eax
    6943:	be f8 ff ff ff       	mov    $0xfffffff8,%esi
    6948:	89 c7                	mov    %eax,%edi
    694a:	e8 67 dc ff ff       	callq  45b6 <safe_add_func_int32_t_s_s>
    694f:	23 85 24 f6 ff ff    	and    -0x9dc(%rbp),%eax
    6955:	89 c2                	mov    %eax,%edx
    6957:	48 8b 05 4a 11 01 00 	mov    0x1114a(%rip),%rax        # 17aa8 <g_1382>
    695e:	89 10                	mov    %edx,(%rax)
    6960:	8b 10                	mov    (%rax),%edx
    6962:	8b 85 e4 f5 ff ff    	mov    -0xa1c(%rbp),%eax
    6968:	21 d0                	and    %edx,%eax
    696a:	89 c0                	mov    %eax,%eax
    696c:	4c 89 ee             	mov    %r13,%rsi
    696f:	48 89 c7             	mov    %rax,%rdi
    6972:	e8 31 df ff ff       	callq  48a8 <safe_sub_func_int64_t_s_s>
    6977:	49 39 c6             	cmp    %rax,%r14
    697a:	0f 94 c0             	sete   %al
    697d:	0f b6 c0             	movzbl %al,%eax
    6980:	4c 89 e6             	mov    %r12,%rsi
    6983:	48 89 c7             	mov    %rax,%rdi
    6986:	e8 1d df ff ff       	callq  48a8 <safe_sub_func_int64_t_s_s>
    698b:	89 c2                	mov    %eax,%edx
    698d:	48 83 bd 80 f7 ff ff 	cmpq   $0x0,-0x880(%rbp)
    6994:	00 
    6995:	0f 95 c0             	setne  %al
    6998:	0f b6 c0             	movzbl %al,%eax
    699b:	89 d6                	mov    %edx,%esi
    699d:	89 c7                	mov    %eax,%edi
    699f:	e8 12 dc ff ff       	callq  45b6 <safe_add_func_int32_t_s_s>
    69a4:	0f b7 c0             	movzwl %ax,%eax
    69a7:	89 de                	mov    %ebx,%esi
    69a9:	89 c7                	mov    %eax,%edi
    69ab:	e8 8d e3 ff ff       	callq  4d3d <safe_mul_func_uint16_t_u_u>
    69b0:	89 c2                	mov    %eax,%edx
    69b2:	48 8b 05 e7 07 01 00 	mov    0x107e7(%rip),%rax        # 171a0 <g_107>
    69b9:	0f b7 d2             	movzwl %dx,%edx
    69bc:	48 89 10             	mov    %rdx,(%rax)
    69bf:	0f b7 95 02 f6 ff ff 	movzwl -0x9fe(%rbp),%edx
    69c6:	48 8b 85 78 f7 ff ff 	mov    -0x888(%rbp),%rax
    69cd:	0f b6 00             	movzbl (%rax),%eax
    69d0:	8d 48 01             	lea    0x1(%rax),%ecx
    69d3:	48 8b 85 78 f7 ff ff 	mov    -0x888(%rbp),%rax
    69da:	88 08                	mov    %cl,(%rax)
    69dc:	48 8b 85 78 f7 ff ff 	mov    -0x888(%rbp),%rax
    69e3:	0f b6 00             	movzbl (%rax),%eax
    69e6:	0f b6 c0             	movzbl %al,%eax
    69e9:	89 d6                	mov    %edx,%esi
    69eb:	89 c7                	mov    %eax,%edi
    69ed:	e8 5a e2 ff ff       	callq  4c4c <safe_lshift_func_uint8_t_u_u>
    69f2:	0f b6 c0             	movzbl %al,%eax
    69f5:	be 02 00 00 00       	mov    $0x2,%esi
    69fa:	89 c7                	mov    %eax,%edi
    69fc:	e8 05 e4 ff ff       	callq  4e06 <safe_lshift_func_uint16_t_u_u>
    6a01:	0f b7 c0             	movzwl %ax,%eax
    6a04:	48 be 15 4d b9 40 58 	movabs $0xf987c25840b94d15,%rsi
    6a0b:	c2 87 f9 
    6a0e:	48 89 c7             	mov    %rax,%rdi
    6a11:	e8 99 e6 ff ff       	callq  50af <safe_div_func_uint64_t_u_u>
    6a16:	48 85 c0             	test   %rax,%rax
    6a19:	74 16                	je     6a31 <func_8+0x543>
    6a1b:	48 8b 05 7e 08 01 00 	mov    0x1087e(%rip),%rax        # 172a0 <g_411>
    6a22:	48 8b 95 60 f6 ff ff 	mov    -0x9a0(%rbp),%rdx
    6a29:	48 89 10             	mov    %rdx,(%rax)
    6a2c:	e9 65 01 00 00       	jmpq   6b96 <func_8+0x6a8>
    6a31:	66 c7 85 06 f6 ff ff 	movw   $0xffff,-0x9fa(%rbp)
    6a38:	ff ff 
    6a3a:	48 8d 05 61 da 00 00 	lea    0xda61(%rip),%rax        # 144a2 <g_146>
    6a41:	48 89 85 88 f7 ff ff 	mov    %rax,-0x878(%rbp)
    6a48:	8b 9d e4 f5 ff ff    	mov    -0xa1c(%rbp),%ebx
    6a4e:	48 8b 05 4b 07 01 00 	mov    0x1074b(%rip),%rax        # 171a0 <g_107>
    6a55:	48 c7 00 00 00 00 00 	movq   $0x0,(%rax)
    6a5c:	0f b6 05 b1 e7 00 00 	movzbl 0xe7b1(%rip),%eax        # 15214 <g_1187+0x74>
    6a63:	0f b6 c0             	movzbl %al,%eax
    6a66:	be 04 00 00 00       	mov    $0x4,%esi
    6a6b:	89 c7                	mov    %eax,%edi
    6a6d:	e8 4c e3 ff ff       	callq  4dbe <safe_lshift_func_uint16_t_u_s>
    6a72:	48 8b 05 37 10 01 00 	mov    0x11037(%rip),%rax        # 17ab0 <g_1381>
    6a79:	48 8b 00             	mov    (%rax),%rax
    6a7c:	0f b7 95 06 f6 ff ff 	movzwl -0x9fa(%rbp),%edx
    6a83:	89 10                	mov    %edx,(%rax)
    6a85:	48 8b 85 60 f6 ff ff 	mov    -0x9a0(%rbp),%rax
    6a8c:	44 8b 20             	mov    (%rax),%r12d
    6a8f:	48 8b 85 88 f7 ff ff 	mov    -0x878(%rbp),%rax
    6a96:	0f b7 00             	movzwl (%rax),%eax
    6a99:	8d 50 01             	lea    0x1(%rax),%edx
    6a9c:	48 8b 85 88 f7 ff ff 	mov    -0x878(%rbp),%rax
    6aa3:	66 89 10             	mov    %dx,(%rax)
    6aa6:	b8 01 00 00 00       	mov    $0x1,%eax
    6aab:	0f b7 c0             	movzwl %ax,%eax
    6aae:	be e9 d6 00 00       	mov    $0xd6e9,%esi
    6ab3:	89 c7                	mov    %eax,%edi
    6ab5:	e8 a2 e2 ff ff       	callq  4d5c <safe_mod_func_uint16_t_u_u>
    6aba:	0f b7 d0             	movzwl %ax,%edx
    6abd:	0f be 85 e0 f5 ff ff 	movsbl -0xa20(%rbp),%eax
    6ac4:	39 c2                	cmp    %eax,%edx
    6ac6:	0f 9e c0             	setle  %al
    6ac9:	0f b6 c0             	movzbl %al,%eax
    6acc:	44 89 e6             	mov    %r12d,%esi
    6acf:	89 c7                	mov    %eax,%edi
    6ad1:	e8 cb d7 ff ff       	callq  42a1 <safe_lshift_func_int8_t_s_s>
    6ad6:	48 8b 85 60 f6 ff ff 	mov    -0x9a0(%rbp),%rax
    6add:	8b 00                	mov    (%rax),%eax
    6adf:	3d b6 b9 00 00       	cmp    $0xb9b6,%eax
    6ae4:	0f 95 c0             	setne  %al
    6ae7:	0f b6 c0             	movzbl %al,%eax
    6aea:	89 de                	mov    %ebx,%esi
    6aec:	89 c7                	mov    %eax,%edi
    6aee:	e8 c5 e3 ff ff       	callq  4eb8 <safe_add_func_uint32_t_u_u>
    6af3:	89 c2                	mov    %eax,%edx
    6af5:	8b 05 bd 01 01 00    	mov    0x101bd(%rip),%eax        # 16cb8 <g_1646+0x8>
    6afb:	01 c0                	add    %eax,%eax
    6afd:	d1 f8                	sar    %eax
    6aff:	09 d0                	or     %edx,%eax
    6b01:	01 c0                	add    %eax,%eax
    6b03:	d1 f8                	sar    %eax
    6b05:	25 ff ff ff 7f       	and    $0x7fffffff,%eax
    6b0a:	89 c2                	mov    %eax,%edx
    6b0c:	8b 05 a6 01 01 00    	mov    0x101a6(%rip),%eax        # 16cb8 <g_1646+0x8>
    6b12:	25 00 00 00 80       	and    $0x80000000,%eax
    6b17:	09 d0                	or     %edx,%eax
    6b19:	89 05 99 01 01 00    	mov    %eax,0x10199(%rip)        # 16cb8 <g_1646+0x8>
    6b1f:	48 8b 05 c2 0c 01 00 	mov    0x10cc2(%rip),%rax        # 177e8 <g_1156>
    6b26:	48 8b 00             	mov    (%rax),%rax
    6b29:	48 8b 00             	mov    (%rax),%rax
    6b2c:	48 8b 30             	mov    (%rax),%rsi
    6b2f:	0f b7 05 0a e7 00 00 	movzwl 0xe70a(%rip),%eax        # 15240 <g_1239>
    6b36:	0f b7 c0             	movzwl %ax,%eax
    6b39:	0f be 95 e0 f5 ff ff 	movsbl -0xa20(%rbp),%edx
    6b40:	8d 4a 01             	lea    0x1(%rdx),%ecx
    6b43:	8b 15 11 da 00 00    	mov    0xda11(%rip),%edx        # 1455a <g_282+0x1a>
    6b49:	48 63 fa             	movslq %edx,%rdi
    6b4c:	48 63 d0             	movslq %eax,%rdx
    6b4f:	48 63 c9             	movslq %ecx,%rcx
    6b52:	48 89 d0             	mov    %rdx,%rax
    6b55:	48 c1 e0 02          	shl    $0x2,%rax
    6b59:	48 01 d0             	add    %rdx,%rax
    6b5c:	48 c1 e0 02          	shl    $0x2,%rax
    6b60:	48 01 d0             	add    %rdx,%rax
    6b63:	48 01 c0             	add    %rax,%rax
    6b66:	48 89 ca             	mov    %rcx,%rdx
    6b69:	48 01 d2             	add    %rdx,%rdx
    6b6c:	48 01 ca             	add    %rcx,%rdx
    6b6f:	48 01 d2             	add    %rdx,%rdx
    6b72:	48 01 d0             	add    %rdx,%rax
    6b75:	48 01 f8             	add    %rdi,%rax
    6b78:	48 c1 e0 04          	shl    $0x4,%rax
    6b7c:	48 89 c7             	mov    %rax,%rdi
    6b7f:	48 8d 0d da e6 00 00 	lea    0xe6da(%rip),%rcx        # 15260 <g_1249>
    6b86:	48 8b 06             	mov    (%rsi),%rax
    6b89:	48 8b 56 08          	mov    0x8(%rsi),%rdx
    6b8d:	48 89 04 0f          	mov    %rax,(%rdi,%rcx,1)
    6b91:	48 89 54 0f 08       	mov    %rdx,0x8(%rdi,%rcx,1)
    6b96:	0f b7 85 02 f6 ff ff 	movzwl -0x9fe(%rbp),%eax
    6b9d:	e9 c9 05 00 00       	jmpq   716b <func_8+0xc7d>
    6ba2:	48 c7 05 0b d9 00 00 	movq   $0x0,0xd90b(%rip)        # 144b8 <g_201>
    6ba9:	00 00 00 00 
    6bad:	e9 e9 02 00 00       	jmpq   6e9b <func_8+0x9ad>
    6bb2:	48 c7 85 28 f7 ff ff 	movq   $0x0,-0x8d8(%rbp)
    6bb9:	00 00 00 00 
    6bbd:	48 8d 05 d6 d9 00 00 	lea    0xd9d6(%rip),%rax        # 1459a <g_296+0x1a>
    6bc4:	48 89 85 30 f7 ff ff 	mov    %rax,-0x8d0(%rbp)
    6bcb:	48 8d 05 ce 0e 01 00 	lea    0x10ece(%rip),%rax        # 17aa0 <g_1352>
    6bd2:	48 89 85 38 f7 ff ff 	mov    %rax,-0x8c8(%rbp)
    6bd9:	48 c7 85 40 f7 ff ff 	movq   $0x0,-0x8c0(%rbp)
    6be0:	00 00 00 00 
    6be4:	48 c7 85 48 f7 ff ff 	movq   $0x0,-0x8b8(%rbp)
    6beb:	00 00 00 00 
    6bef:	48 8d 05 f0 d7 00 00 	lea    0xd7f0(%rip),%rax        # 143e6 <g_129+0x106>
    6bf6:	48 89 85 40 f8 ff ff 	mov    %rax,-0x7c0(%rbp)
    6bfd:	48 8d 05 e2 d7 00 00 	lea    0xd7e2(%rip),%rax        # 143e6 <g_129+0x106>
    6c04:	48 89 85 48 f8 ff ff 	mov    %rax,-0x7b8(%rbp)
    6c0b:	48 8d 05 d4 d7 00 00 	lea    0xd7d4(%rip),%rax        # 143e6 <g_129+0x106>
    6c12:	48 89 85 50 f8 ff ff 	mov    %rax,-0x7b0(%rbp)
    6c19:	48 8d 05 c6 d7 00 00 	lea    0xd7c6(%rip),%rax        # 143e6 <g_129+0x106>
    6c20:	48 89 85 58 f8 ff ff 	mov    %rax,-0x7a8(%rbp)
    6c27:	48 8d 05 b8 d7 00 00 	lea    0xd7b8(%rip),%rax        # 143e6 <g_129+0x106>
    6c2e:	48 89 85 60 f8 ff ff 	mov    %rax,-0x7a0(%rbp)
    6c35:	48 8d 05 aa d7 00 00 	lea    0xd7aa(%rip),%rax        # 143e6 <g_129+0x106>
    6c3c:	48 89 85 68 f8 ff ff 	mov    %rax,-0x798(%rbp)
    6c43:	48 8d 05 9c d7 00 00 	lea    0xd79c(%rip),%rax        # 143e6 <g_129+0x106>
    6c4a:	48 89 85 70 f8 ff ff 	mov    %rax,-0x790(%rbp)
    6c51:	48 8d 05 28 17 01 00 	lea    0x11728(%rip),%rax        # 18380 <g_1542>
    6c58:	48 89 85 50 f6 ff ff 	mov    %rax,-0x9b0(%rbp)
    6c5f:	48 8d 85 50 f6 ff ff 	lea    -0x9b0(%rbp),%rax
    6c66:	48 89 85 50 f7 ff ff 	mov    %rax,-0x8b0(%rbp)
    6c6d:	48 8d 05 0c e0 00 00 	lea    0xe00c(%rip),%rax        # 14c80 <g_1042>
    6c74:	48 89 85 58 f7 ff ff 	mov    %rax,-0x8a8(%rbp)
    6c7b:	48 c7 85 60 f7 ff ff 	movq   $0x0,-0x8a0(%rbp)
    6c82:	00 00 00 00 
    6c86:	48 8d 05 33 0e 01 00 	lea    0x10e33(%rip),%rax        # 17ac0 <g_1656>
    6c8d:	48 89 85 58 f6 ff ff 	mov    %rax,-0x9a8(%rbp)
    6c94:	48 8d 85 58 f6 ff ff 	lea    -0x9a8(%rbp),%rax
    6c9b:	48 89 85 68 f7 ff ff 	mov    %rax,-0x898(%rbp)
    6ca2:	48 c7 05 fb 15 01 00 	movq   $0x1,0x115fb(%rip)        # 182a8 <g_91>
    6ca9:	01 00 00 00 
    6cad:	eb 2e                	jmp    6cdd <func_8+0x7ef>
    6caf:	48 8d 05 32 0b 01 00 	lea    0x10b32(%rip),%rax        # 177e8 <g_1156>
    6cb6:	48 89 85 70 f7 ff ff 	mov    %rax,-0x890(%rbp)
    6cbd:	48 8b 85 28 f7 ff ff 	mov    -0x8d8(%rbp),%rax
    6cc4:	48 89 85 70 f7 ff ff 	mov    %rax,-0x890(%rbp)
    6ccb:	48 8b 05 d6 15 01 00 	mov    0x115d6(%rip),%rax        # 182a8 <g_91>
    6cd2:	48 83 c0 01          	add    $0x1,%rax
    6cd6:	48 89 05 cb 15 01 00 	mov    %rax,0x115cb(%rip)        # 182a8 <g_91>
    6cdd:	48 8b 05 c4 15 01 00 	mov    0x115c4(%rip),%rax        # 182a8 <g_91>
    6ce4:	48 83 f8 06          	cmp    $0x6,%rax
    6ce8:	7e c5                	jle    6caf <func_8+0x7c1>
    6cea:	48 8b 05 8f 08 01 00 	mov    0x1088f(%rip),%rax        # 17580 <g_922>
    6cf1:	48 8b 95 30 f7 ff ff 	mov    -0x8d0(%rbp),%rdx
    6cf8:	48 89 10             	mov    %rdx,(%rax)
    6cfb:	48 8b 05 d6 0d 01 00 	mov    0x10dd6(%rip),%rax        # 17ad8 <g_1777>
    6d02:	48 8b 95 20 f7 ff ff 	mov    -0x8e0(%rbp),%rdx
    6d09:	48 89 10             	mov    %rdx,(%rax)
    6d0c:	48 8b 05 65 08 01 00 	mov    0x10865(%rip),%rax        # 17578 <g_916>
    6d13:	44 8b 28             	mov    (%rax),%r13d
    6d16:	48 8b 85 60 f6 ff ff 	mov    -0x9a0(%rbp),%rax
    6d1d:	8b 00                	mov    (%rax),%eax
    6d1f:	0f b6 d8             	movzbl %al,%ebx
    6d22:	8b 05 40 f5 00 00    	mov    0xf540(%rip),%eax        # 16268 <g_1467+0x8>
    6d28:	01 c0                	add    %eax,%eax
    6d2a:	d1 f8                	sar    %eax
    6d2c:	4c 63 e0             	movslq %eax,%r12
    6d2f:	48 8b 85 38 f7 ff ff 	mov    -0x8c8(%rbp),%rax
    6d36:	48 89 85 20 f8 ff ff 	mov    %rax,-0x7e0(%rbp)
    6d3d:	48 8b 95 20 f8 ff ff 	mov    -0x7e0(%rbp),%rdx
    6d44:	48 8b 85 68 f6 ff ff 	mov    -0x998(%rbp),%rax
    6d4b:	48 89 05 8e 0f 01 00 	mov    %rax,0x10f8e(%rip)        # 17ce0 <g_1793>
    6d52:	48 8b 05 87 0f 01 00 	mov    0x10f87(%rip),%rax        # 17ce0 <g_1793>
    6d59:	48 39 c2             	cmp    %rax,%rdx
    6d5c:	0f 85 b2 00 00 00    	jne    6e14 <func_8+0x926>
    6d62:	48 0f be 85 e0 f5 ff 	movsbq -0xa20(%rbp),%rax
    6d69:	ff 
    6d6a:	48 8b 95 50 f7 ff ff 	mov    -0x8b0(%rbp),%rdx
    6d71:	48 8d 0d 08 16 01 00 	lea    0x11608(%rip),%rcx        # 18380 <g_1542>
    6d78:	48 89 0a             	mov    %rcx,(%rdx)
    6d7b:	48 89 c6             	mov    %rax,%rsi
    6d7e:	bf 01 00 00 00       	mov    $0x1,%edi
    6d83:	e8 b9 da ff ff       	callq  4841 <safe_add_func_int64_t_s_s>
    6d88:	89 c2                	mov    %eax,%edx
    6d8a:	8b 85 08 f6 ff ff    	mov    -0x9f8(%rbp),%eax
    6d90:	31 d0                	xor    %edx,%eax
    6d92:	89 85 08 f6 ff ff    	mov    %eax,-0x9f8(%rbp)
    6d98:	48 8b 05 c9 d8 00 00 	mov    0xd8c9(%rip),%rax        # 14668 <g_324+0x8>
    6d9f:	48 c1 e8 37          	shr    $0x37,%rax
    6da3:	83 e0 03             	and    $0x3,%eax
    6da6:	0f b6 c0             	movzbl %al,%eax
    6da9:	be 0b 00 00 00       	mov    $0xb,%esi
    6dae:	89 c7                	mov    %eax,%edi
    6db0:	e8 51 e0 ff ff       	callq  4e06 <safe_lshift_func_uint16_t_u_u>
    6db5:	0f b7 d0             	movzwl %ax,%edx
    6db8:	48 8b 85 60 f6 ff ff 	mov    -0x9a0(%rbp),%rax
    6dbf:	8b 00                	mov    (%rax),%eax
    6dc1:	66 89 05 9e ff 00 00 	mov    %ax,0xff9e(%rip)        # 16d66 <g_1803>
    6dc8:	0f b7 05 97 ff 00 00 	movzwl 0xff97(%rip),%eax        # 16d66 <g_1803>
    6dcf:	0f bf c8             	movswl %ax,%ecx
    6dd2:	48 83 bd 68 f7 ff ff 	cmpq   $0x0,-0x898(%rbp)
    6dd9:	00 
    6dda:	0f 94 c0             	sete   %al
    6ddd:	0f b6 f0             	movzbl %al,%esi
    6de0:	0f be 85 e0 f5 ff ff 	movsbl -0xa20(%rbp),%eax
    6de7:	39 c6                	cmp    %eax,%esi
    6de9:	0f 9c c0             	setl   %al
    6dec:	0f b6 f0             	movzbl %al,%esi
    6def:	8b 85 9c f7 ff ff    	mov    -0x864(%rbp),%eax
    6df5:	39 c6                	cmp    %eax,%esi
    6df7:	0f 97 c0             	seta   %al
    6dfa:	0f b6 c0             	movzbl %al,%eax
    6dfd:	39 c1                	cmp    %eax,%ecx
    6dff:	0f 9d c0             	setge  %al
    6e02:	0f b6 c0             	movzbl %al,%eax
    6e05:	09 c2                	or     %eax,%edx
    6e07:	48 8b 85 30 f7 ff ff 	mov    -0x8d0(%rbp),%rax
    6e0e:	8b 00                	mov    (%rax),%eax
    6e10:	39 c2                	cmp    %eax,%edx
    6e12:	7d 07                	jge    6e1b <func_8+0x92d>
    6e14:	b8 01 00 00 00       	mov    $0x1,%eax
    6e19:	eb 05                	jmp    6e20 <func_8+0x932>
    6e1b:	b8 00 00 00 00       	mov    $0x0,%eax
    6e20:	85 c0                	test   %eax,%eax
    6e22:	0f 94 c0             	sete   %al
    6e25:	0f b6 c0             	movzbl %al,%eax
    6e28:	39 85 e4 f5 ff ff    	cmp    %eax,-0xa1c(%rbp)
    6e2e:	0f 9c c0             	setl   %al
    6e31:	0f b6 c0             	movzbl %al,%eax
    6e34:	4c 89 e6             	mov    %r12,%rsi
    6e37:	48 89 c7             	mov    %rax,%rdi
    6e3a:	e8 ef e1 ff ff       	callq  502e <safe_add_func_uint64_t_u_u>
    6e3f:	0f b6 c0             	movzbl %al,%eax
    6e42:	89 de                	mov    %ebx,%esi
    6e44:	89 c7                	mov    %eax,%edi
    6e46:	e8 2d dd ff ff       	callq  4b78 <safe_sub_func_uint8_t_u_u>
    6e4b:	ba 00 00 00 00       	mov    $0x0,%edx
    6e50:	48 8b 85 30 f7 ff ff 	mov    -0x8d0(%rbp),%rax
    6e57:	89 10                	mov    %edx,(%rax)
    6e59:	48 8b 85 30 f7 ff ff 	mov    -0x8d0(%rbp),%rax
    6e60:	8b 00                	mov    (%rax),%eax
    6e62:	41 39 c5             	cmp    %eax,%r13d
    6e65:	7c 14                	jl     6e7b <func_8+0x98d>
    6e67:	48 8b 85 e8 f5 ff ff 	mov    -0xa18(%rbp),%rax
    6e6e:	8b 00                	mov    (%rax),%eax
    6e70:	85 c0                	test   %eax,%eax
    6e72:	74 07                	je     6e7b <func_8+0x98d>
    6e74:	ba 01 00 00 00       	mov    $0x1,%edx
    6e79:	eb 05                	jmp    6e80 <func_8+0x992>
    6e7b:	ba 00 00 00 00       	mov    $0x0,%edx
    6e80:	48 8b 05 f1 06 01 00 	mov    0x106f1(%rip),%rax        # 17578 <g_916>
    6e87:	89 10                	mov    %edx,(%rax)
    6e89:	48 8b 05 28 d6 00 00 	mov    0xd628(%rip),%rax        # 144b8 <g_201>
    6e90:	48 83 c0 01          	add    $0x1,%rax
    6e94:	48 89 05 1d d6 00 00 	mov    %rax,0xd61d(%rip)        # 144b8 <g_201>
    6e9b:	48 8b 05 16 d6 00 00 	mov    0xd616(%rip),%rax        # 144b8 <g_201>
    6ea2:	48 83 f8 06          	cmp    $0x6,%rax
    6ea6:	0f 8e 06 fd ff ff    	jle    6bb2 <func_8+0x6c4>
    6eac:	8b 05 aa e3 00 00    	mov    0xe3aa(%rip),%eax        # 1525c <g_1242+0xc>
    6eb2:	83 c0 01             	add    $0x1,%eax
    6eb5:	89 05 a1 e3 00 00    	mov    %eax,0xe3a1(%rip)        # 1525c <g_1242+0xc>
    6ebb:	8b 05 9b e3 00 00    	mov    0xe39b(%rip),%eax        # 1525c <g_1242+0xc>
    6ec1:	83 f8 06             	cmp    $0x6,%eax
    6ec4:	0f 86 15 f9 ff ff    	jbe    67df <func_8+0x2f1>
    6eca:	0f b7 05 6f e3 00 00 	movzwl 0xe36f(%rip),%eax        # 15240 <g_1239>
    6ed1:	83 c0 01             	add    $0x1,%eax
    6ed4:	66 89 05 65 e3 00 00 	mov    %ax,0xe365(%rip)        # 15240 <g_1239>
    6edb:	0f b7 05 5e e3 00 00 	movzwl 0xe35e(%rip),%eax        # 15240 <g_1239>
    6ee2:	66 83 f8 05          	cmp    $0x5,%ax
    6ee6:	0f 86 f9 f7 ff ff    	jbe    66e5 <func_8+0x1f7>
    6eec:	c7 85 e4 f5 ff ff 00 	movl   $0x0,-0xa1c(%rbp)
    6ef3:	00 00 00 
    6ef6:	e9 2b 02 00 00       	jmpq   7126 <func_8+0xc38>
    6efb:	48 8d 05 a2 d5 00 00 	lea    0xd5a2(%rip),%rax        # 144a4 <g_151>
    6f02:	48 89 85 a8 f6 ff ff 	mov    %rax,-0x958(%rbp)
    6f09:	48 8d 85 08 f6 ff ff 	lea    -0x9f8(%rbp),%rax
    6f10:	48 89 85 b0 f6 ff ff 	mov    %rax,-0x950(%rbp)
    6f17:	48 8d 05 ec e0 00 00 	lea    0xe0ec(%rip),%rax        # 1500a <g_1044+0x36a>
    6f1e:	48 89 85 b8 f6 ff ff 	mov    %rax,-0x948(%rbp)
    6f25:	48 c7 85 c0 f6 ff ff 	movq   $0x0,-0x940(%rbp)
    6f2c:	00 00 00 00 
    6f30:	48 8d 05 6d d5 00 00 	lea    0xd56d(%rip),%rax        # 144a4 <g_151>
    6f37:	48 89 85 c8 f6 ff ff 	mov    %rax,-0x938(%rbp)
    6f3e:	48 8d 05 fb d5 00 00 	lea    0xd5fb(%rip),%rax        # 14540 <g_282>
    6f45:	48 89 85 d0 f6 ff ff 	mov    %rax,-0x930(%rbp)
    6f4c:	48 8d 05 9d fd 00 00 	lea    0xfd9d(%rip),%rax        # 16cf0 <g_1720>
    6f53:	48 89 85 d8 f6 ff ff 	mov    %rax,-0x928(%rbp)
    6f5a:	48 8d 05 c3 e0 00 00 	lea    0xe0c3(%rip),%rax        # 15024 <g_1044+0x384>
    6f61:	48 89 85 e0 f6 ff ff 	mov    %rax,-0x920(%rbp)
    6f68:	c7 85 1c f6 ff ff fd 	movl   $0xfffffffd,-0x9e4(%rbp)
    6f6f:	ff ff ff 
    6f72:	48 8d 05 77 fd 00 00 	lea    0xfd77(%rip),%rax        # 16cf0 <g_1720>
    6f79:	48 89 85 e8 f6 ff ff 	mov    %rax,-0x918(%rbp)
    6f80:	48 8d 05 9d d0 00 00 	lea    0xd09d(%rip),%rax        # 14024 <g_3>
    6f87:	48 89 85 40 f8 ff ff 	mov    %rax,-0x7c0(%rbp)
    6f8e:	48 c7 85 48 f8 ff ff 	movq   $0x0,-0x7b8(%rbp)
    6f95:	00 00 00 00 
    6f99:	48 8d 05 50 fd 00 00 	lea    0xfd50(%rip),%rax        # 16cf0 <g_1720>
    6fa0:	48 89 85 50 f8 ff ff 	mov    %rax,-0x7b0(%rbp)
    6fa7:	48 c7 85 58 f8 ff ff 	movq   $0x0,-0x7a8(%rbp)
    6fae:	00 00 00 00 
    6fb2:	48 8d 05 6b d0 00 00 	lea    0xd06b(%rip),%rax        # 14024 <g_3>
    6fb9:	48 89 85 60 f8 ff ff 	mov    %rax,-0x7a0(%rbp)
    6fc0:	48 8d 05 5d d0 00 00 	lea    0xd05d(%rip),%rax        # 14024 <g_3>
    6fc7:	48 89 85 68 f8 ff ff 	mov    %rax,-0x798(%rbp)
    6fce:	48 c7 85 70 f8 ff ff 	movq   $0x0,-0x790(%rbp)
    6fd5:	00 00 00 00 
    6fd9:	48 c7 85 78 f8 ff ff 	movq   $0x0,-0x788(%rbp)
    6fe0:	00 00 00 00 
    6fe4:	48 c7 85 80 f8 ff ff 	movq   $0x0,-0x780(%rbp)
    6feb:	00 00 00 00 
    6fef:	48 c7 85 88 f8 ff ff 	movq   $0x0,-0x778(%rbp)
    6ff6:	00 00 00 00 
    6ffa:	48 8d 05 09 e0 00 00 	lea    0xe009(%rip),%rax        # 1500a <g_1044+0x36a>
    7001:	48 89 85 90 f8 ff ff 	mov    %rax,-0x770(%rbp)
    7008:	48 c7 85 98 f8 ff ff 	movq   $0x0,-0x768(%rbp)
    700f:	00 00 00 00 
    7013:	48 c7 85 a0 f8 ff ff 	movq   $0x0,-0x760(%rbp)
    701a:	00 00 00 00 
    701e:	48 8d 05 e5 df 00 00 	lea    0xdfe5(%rip),%rax        # 1500a <g_1044+0x36a>
    7025:	48 89 85 a8 f8 ff ff 	mov    %rax,-0x758(%rbp)
    702c:	48 c7 85 b0 f8 ff ff 	movq   $0x0,-0x750(%rbp)
    7033:	00 00 00 00 
    7037:	48 c7 85 b8 f8 ff ff 	movq   $0x0,-0x748(%rbp)
    703e:	00 00 00 00 
    7042:	48 c7 85 c0 f8 ff ff 	movq   $0x0,-0x740(%rbp)
    7049:	00 00 00 00 
    704d:	48 c7 85 c8 f8 ff ff 	movq   $0x0,-0x738(%rbp)
    7054:	00 00 00 00 
    7058:	48 8d 05 c5 cf 00 00 	lea    0xcfc5(%rip),%rax        # 14024 <g_3>
    705f:	48 89 85 d0 f8 ff ff 	mov    %rax,-0x730(%rbp)
    7066:	48 8d 05 b7 cf 00 00 	lea    0xcfb7(%rip),%rax        # 14024 <g_3>
    706d:	48 89 85 d8 f8 ff ff 	mov    %rax,-0x728(%rbp)
    7074:	48 c7 85 e0 f8 ff ff 	movq   $0x0,-0x720(%rbp)
    707b:	00 00 00 00 
    707f:	48 8d 05 6a fc 00 00 	lea    0xfc6a(%rip),%rax        # 16cf0 <g_1720>
    7086:	48 89 85 e8 f8 ff ff 	mov    %rax,-0x718(%rbp)
    708d:	48 c7 85 f0 f8 ff ff 	movq   $0x0,-0x710(%rbp)
    7094:	00 00 00 00 
    7098:	48 8d 05 85 cf 00 00 	lea    0xcf85(%rip),%rax        # 14024 <g_3>
    709f:	48 89 85 f8 f8 ff ff 	mov    %rax,-0x708(%rbp)
    70a6:	c7 85 20 f6 ff ff c3 	movl   $0x1eb5aec3,-0x9e0(%rbp)
    70ad:	ae b5 1e 
    70b0:	c6 85 fd f5 ff ff ff 	movb   $0xff,-0xa03(%rbp)
    70b7:	48 8d 05 8a d4 00 00 	lea    0xd48a(%rip),%rax        # 14548 <g_282+0x8>
    70be:	48 89 85 f0 f6 ff ff 	mov    %rax,-0x910(%rbp)
    70c5:	48 8d 05 64 cf 00 00 	lea    0xcf64(%rip),%rax        # 14030 <g_21>
    70cc:	48 89 85 f8 f6 ff ff 	mov    %rax,-0x908(%rbp)
    70d3:	48 8d 05 ac d4 00 00 	lea    0xd4ac(%rip),%rax        # 14586 <g_296+0x6>
    70da:	48 89 85 00 f7 ff ff 	mov    %rax,-0x900(%rbp)
    70e1:	48 8d 05 c0 11 01 00 	lea    0x111c0(%rip),%rax        # 182a8 <g_91>
    70e8:	48 89 85 08 f7 ff ff 	mov    %rax,-0x8f8(%rbp)
    70ef:	48 c7 85 10 f7 ff ff 	movq   $0x1,-0x8f0(%rbp)
    70f6:	01 00 00 00 
    70fa:	66 c7 85 04 f6 ff ff 	movw   $0x2e1a,-0x9fc(%rbp)
    7101:	1a 2e 
    7103:	48 8d 05 72 df 00 00 	lea    0xdf72(%rip),%rax        # 1507c <g_1044+0x3dc>
    710a:	48 89 85 18 f7 ff ff 	mov    %rax,-0x8e8(%rbp)
    7111:	c6 85 fe f5 ff ff ed 	movb   $0xed,-0xa02(%rbp)
    7118:	83 ad 20 f6 ff ff 01 	subl   $0x1,-0x9e0(%rbp)
    711f:	83 85 e4 f5 ff ff 01 	addl   $0x1,-0xa1c(%rbp)
    7126:	83 bd e4 f5 ff ff 05 	cmpl   $0x5,-0xa1c(%rbp)
    712d:	0f 8e c8 fd ff ff    	jle    6efb <func_8+0xa0d>
    7133:	0f b6 85 e0 f5 ff ff 	movzbl -0xa20(%rbp),%eax
    713a:	83 c0 01             	add    $0x1,%eax
    713d:	88 85 e0 f5 ff ff    	mov    %al,-0xa20(%rbp)
    7143:	80 bd e0 f5 ff ff 05 	cmpb   $0x5,-0xa20(%rbp)
    714a:	0f 8e f1 f4 ff ff    	jle    6641 <func_8+0x153>
    7150:	48 8b 85 a8 f7 ff ff 	mov    -0x858(%rbp),%rax
    7157:	48 83 e8 01          	sub    $0x1,%rax
    715b:	48 89 85 a8 f7 ff ff 	mov    %rax,-0x858(%rbp)
    7162:	48 8b 85 e8 f5 ff ff 	mov    -0xa18(%rbp),%rax
    7169:	8b 00                	mov    (%rax),%eax
    716b:	48 8b 5d d8          	mov    -0x28(%rbp),%rbx
    716f:	64 48 33 1c 25 28 00 	xor    %fs:0x28,%rbx
    7176:	00 00 
    7178:	74 05                	je     717f <func_8+0xc91>
    717a:	e8 f1 ce ff ff       	callq  4070 <__stack_chk_fail@plt>
    717f:	48 81 c4 10 0a 00 00 	add    $0xa10,%rsp
    7186:	5b                   	pop    %rbx
    7187:	41 5c                	pop    %r12
    7189:	41 5d                	pop    %r13
    718b:	41 5e                	pop    %r14
    718d:	5d                   	pop    %rbp
    718e:	c3                   	retq   

000000000000718f <func_13>:
    718f:	f3 0f 1e fa          	endbr64 
    7193:	55                   	push   %rbp
    7194:	48 89 e5             	mov    %rsp,%rbp
    7197:	89 7d ec             	mov    %edi,-0x14(%rbp)
    719a:	48 8d 05 9f d3 00 00 	lea    0xd39f(%rip),%rax        # 14540 <g_282>
    71a1:	48 89 45 f8          	mov    %rax,-0x8(%rbp)
    71a5:	48 8b 45 f8          	mov    -0x8(%rbp),%rax
    71a9:	5d                   	pop    %rbp
    71aa:	c3                   	retq   

00000000000071ab <func_15>:
    71ab:	f3 0f 1e fa          	endbr64 
    71af:	55                   	push   %rbp
    71b0:	48 89 e5             	mov    %rsp,%rbp
    71b3:	41 57                	push   %r15
    71b5:	41 56                	push   %r14
    71b7:	41 55                	push   %r13
    71b9:	41 54                	push   %r12
    71bb:	53                   	push   %rbx
    71bc:	48 81 ec 18 03 00 00 	sub    $0x318,%rsp
    71c3:	48 89 bd d8 fc ff ff 	mov    %rdi,-0x328(%rbp)
    71ca:	89 b5 d4 fc ff ff    	mov    %esi,-0x32c(%rbp)
    71d0:	64 48 8b 04 25 28 00 	mov    %fs:0x28,%rax
    71d7:	00 00 
    71d9:	48 89 45 c8          	mov    %rax,-0x38(%rbp)
    71dd:	31 c0                	xor    %eax,%eax
    71df:	c7 85 18 fd ff ff 05 	movl   $0x5,-0x2e8(%rbp)
    71e6:	00 00 00 
    71e9:	48 8d 05 34 ce 00 00 	lea    0xce34(%rip),%rax        # 14024 <g_3>
    71f0:	48 89 85 70 fd ff ff 	mov    %rax,-0x290(%rbp)
    71f7:	48 8d 05 33 ce 00 00 	lea    0xce33(%rip),%rax        # 14031 <g_37>
    71fe:	48 89 85 20 ff ff ff 	mov    %rax,-0xe0(%rbp)
    7205:	48 8d 05 25 ce 00 00 	lea    0xce25(%rip),%rax        # 14031 <g_37>
    720c:	48 89 85 28 ff ff ff 	mov    %rax,-0xd8(%rbp)
    7213:	48 8d 05 17 ce 00 00 	lea    0xce17(%rip),%rax        # 14031 <g_37>
    721a:	48 89 85 30 ff ff ff 	mov    %rax,-0xd0(%rbp)
    7221:	48 8d 05 09 ce 00 00 	lea    0xce09(%rip),%rax        # 14031 <g_37>
    7228:	48 89 85 38 ff ff ff 	mov    %rax,-0xc8(%rbp)
    722f:	48 8d 05 fb cd 00 00 	lea    0xcdfb(%rip),%rax        # 14031 <g_37>
    7236:	48 89 85 40 ff ff ff 	mov    %rax,-0xc0(%rbp)
    723d:	48 8d 05 6c d0 00 00 	lea    0xd06c(%rip),%rax        # 142b0 <g_93+0x10>
    7244:	48 89 85 78 fd ff ff 	mov    %rax,-0x288(%rbp)
    724b:	48 b8 e9 52 27 69 5a 	movabs $0x94b36c5a692752e9,%rax
    7252:	6c b3 94 
    7255:	48 89 85 80 fd ff ff 	mov    %rax,-0x280(%rbp)
    725c:	c7 85 14 fd ff ff 00 	movl   $0x0,-0x2ec(%rbp)
    7263:	00 00 00 
    7266:	eb 1e                	jmp    7286 <func_15+0xdb>
    7268:	8b 85 14 fd ff ff    	mov    -0x2ec(%rbp),%eax
    726e:	48 98                	cltq   
    7270:	48 8d 15 b1 cd 00 00 	lea    0xcdb1(%rip),%rdx        # 14028 <g_5>
    7277:	48 89 94 c5 80 fe ff 	mov    %rdx,-0x180(%rbp,%rax,8)
    727e:	ff 
    727f:	83 85 14 fd ff ff 01 	addl   $0x1,-0x2ec(%rbp)
    7286:	83 bd 14 fd ff ff 02 	cmpl   $0x2,-0x2ec(%rbp)
    728d:	7e d9                	jle    7268 <func_15+0xbd>
    728f:	c7 85 14 fd ff ff 00 	movl   $0x0,-0x2ec(%rbp)
    7296:	00 00 00 
    7299:	eb 1a                	jmp    72b5 <func_15+0x10a>
    729b:	8b 85 14 fd ff ff    	mov    -0x2ec(%rbp),%eax
    72a1:	48 98                	cltq   
    72a3:	c7 84 85 74 fe ff ff 	movl   $0x5467eb24,-0x18c(%rbp,%rax,4)
    72aa:	24 eb 67 54 
    72ae:	83 85 14 fd ff ff 01 	addl   $0x1,-0x2ec(%rbp)
    72b5:	83 bd 14 fd ff ff 00 	cmpl   $0x0,-0x2ec(%rbp)
    72bc:	7e dd                	jle    729b <func_15+0xf0>
    72be:	c7 85 14 fd ff ff 00 	movl   $0x0,-0x2ec(%rbp)
    72c5:	00 00 00 
    72c8:	eb 1e                	jmp    72e8 <func_15+0x13d>
    72ca:	8b 85 14 fd ff ff    	mov    -0x2ec(%rbp),%eax
    72d0:	48 98                	cltq   
    72d2:	48 8d 15 0f 05 01 00 	lea    0x1050f(%rip),%rdx        # 177e8 <g_1156>
    72d9:	48 89 94 c5 a0 fe ff 	mov    %rdx,-0x160(%rbp,%rax,8)
    72e0:	ff 
    72e1:	83 85 14 fd ff ff 01 	addl   $0x1,-0x2ec(%rbp)
    72e8:	83 bd 14 fd ff ff 02 	cmpl   $0x2,-0x2ec(%rbp)
    72ef:	7e d9                	jle    72ca <func_15+0x11f>
    72f1:	48 8b 85 70 fd ff ff 	mov    -0x290(%rbp),%rax
    72f8:	8b 95 18 fd ff ff    	mov    -0x2e8(%rbp),%edx
    72fe:	89 10                	mov    %edx,(%rax)
    7300:	48 8b 85 70 fd ff ff 	mov    -0x290(%rbp),%rax
    7307:	8b 00                	mov    (%rax),%eax
    7309:	85 c0                	test   %eax,%eax
    730b:	0f 84 a4 01 00 00    	je     74b5 <func_15+0x30a>
    7311:	c7 85 64 fd ff ff fc 	movl   $0xfffffffc,-0x29c(%rbp)
    7318:	ff ff ff 
    731b:	48 8b 9d 38 ff ff ff 	mov    -0xc8(%rbp),%rbx
    7322:	48 8b 05 7f fe 00 00 	mov    0xfe7f(%rip),%rax        # 171a8 <g_106>
    7329:	4c 8b 28             	mov    (%rax),%r13
    732c:	4c 8b a5 38 ff ff ff 	mov    -0xc8(%rbp),%r12
    7333:	48 8b 05 66 fe 00 00 	mov    0xfe66(%rip),%rax        # 171a0 <g_107>
    733a:	48 8b 00             	mov    (%rax),%rax
    733d:	48 89 85 c8 fc ff ff 	mov    %rax,-0x338(%rbp)
    7344:	4c 8b bd 90 fe ff ff 	mov    -0x170(%rbp),%r15
    734b:	44 8b b5 d4 fc ff ff 	mov    -0x32c(%rbp),%r14d
    7352:	8b 05 90 cd 00 00    	mov    0xcd90(%rip),%eax        # 140e8 <g_40+0xa8>
    7358:	01 c0                	add    %eax,%eax
    735a:	d1 f8                	sar    %eax
    735c:	89 85 d0 fc ff ff    	mov    %eax,-0x330(%rbp)
    7362:	0f b6 05 c8 cc 00 00 	movzbl 0xccc8(%rip),%eax        # 14031 <g_37>
    7369:	0f b6 d0             	movzbl %al,%edx
    736c:	48 8b 05 6d cd 00 00 	mov    0xcd6d(%rip),%rax        # 140e0 <g_40+0xa0>
    7373:	c1 e0 04             	shl    $0x4,%eax
    7376:	c0 f8 04             	sar    $0x4,%al
    7379:	66 98                	cbtw   
    737b:	0f b7 c0             	movzwl %ax,%eax
    737e:	89 d6                	mov    %edx,%esi
    7380:	89 c7                	mov    %eax,%edi
    7382:	e8 98 d9 ff ff       	callq  4d1f <safe_sub_func_uint16_t_u_u>
    7387:	0f b7 c0             	movzwl %ax,%eax
    738a:	39 85 d0 fc ff ff    	cmp    %eax,-0x330(%rbp)
    7390:	0f 94 c0             	sete   %al
    7393:	0f b6 c0             	movzbl %al,%eax
    7396:	be 04 00 00 00       	mov    $0x4,%esi
    739b:	89 c7                	mov    %eax,%edi
    739d:	e8 93 cf ff ff       	callq  4335 <safe_rshift_func_int8_t_s_s>
    73a2:	84 c0                	test   %al,%al
    73a4:	75 5d                	jne    7403 <func_15+0x258>
    73a6:	48 8b 85 d8 fc ff ff 	mov    -0x328(%rbp),%rax
    73ad:	0f b6 c0             	movzbl %al,%eax
    73b0:	89 85 d0 fc ff ff    	mov    %eax,-0x330(%rbp)
    73b6:	48 8b 85 d8 fc ff ff 	mov    -0x328(%rbp),%rax
    73bd:	0f b7 d0             	movzwl %ax,%edx
    73c0:	48 8b 05 21 cd 00 00 	mov    0xcd21(%rip),%rax        # 140e8 <g_40+0xa8>
    73c7:	48 c1 e8 37          	shr    $0x37,%rax
    73cb:	83 e0 03             	and    $0x3,%eax
    73ce:	0f b6 c0             	movzbl %al,%eax
    73d1:	39 85 d4 fc ff ff    	cmp    %eax,-0x32c(%rbp)
    73d7:	0f 93 c0             	setae  %al
    73da:	0f b6 c0             	movzbl %al,%eax
    73dd:	89 d6                	mov    %edx,%esi
    73df:	89 c7                	mov    %eax,%edi
    73e1:	e8 a8 d9 ff ff       	callq  4d8e <safe_div_func_uint16_t_u_u>
    73e6:	48 8b 85 70 fd ff ff 	mov    -0x290(%rbp),%rax
    73ed:	8b 00                	mov    (%rax),%eax
    73ef:	0f b6 c0             	movzbl %al,%eax
    73f2:	8b b5 d0 fc ff ff    	mov    -0x330(%rbp),%esi
    73f8:	89 c7                	mov    %eax,%edi
    73fa:	e8 dc d7 ff ff       	callq  4bdb <safe_div_func_uint8_t_u_u>
    73ff:	84 c0                	test   %al,%al
    7401:	74 07                	je     740a <func_15+0x25f>
    7403:	ba 01 00 00 00       	mov    $0x1,%edx
    7408:	eb 05                	jmp    740f <func_15+0x264>
    740a:	ba 00 00 00 00       	mov    $0x0,%edx
    740f:	8b 85 d4 fc ff ff    	mov    -0x32c(%rbp),%eax
    7415:	39 c2                	cmp    %eax,%edx
    7417:	0f 94 c0             	sete   %al
    741a:	0f b6 d0             	movzbl %al,%edx
    741d:	48 8b 8d 90 fe ff ff 	mov    -0x170(%rbp),%rcx
    7424:	8b 85 d4 fc ff ff    	mov    -0x32c(%rbp),%eax
    742a:	48 89 ce             	mov    %rcx,%rsi
    742d:	48 89 c7             	mov    %rax,%rdi
    7430:	e8 ea 26 00 00       	callq  9b1f <func_65>
    7435:	4c 8d 05 f4 cb 00 00 	lea    0xcbf4(%rip),%r8        # 14030 <g_21>
    743c:	48 8b 8d c8 fc ff ff 	mov    -0x338(%rbp),%rcx
    7443:	4c 89 fa             	mov    %r15,%rdx
    7446:	4c 89 f6             	mov    %r14,%rsi
    7449:	48 89 c7             	mov    %rax,%rdi
    744c:	e8 63 23 00 00       	callq  97b4 <func_59>
    7451:	89 85 64 fd ff ff    	mov    %eax,-0x29c(%rbp)
    7457:	8b 85 64 fd ff ff    	mov    -0x29c(%rbp),%eax
    745d:	48 98                	cltq   
    745f:	48 8b 95 70 fd ff ff 	mov    -0x290(%rbp),%rdx
    7466:	4c 89 e9             	mov    %r13,%rcx
    7469:	4c 89 e6             	mov    %r12,%rsi
    746c:	48 89 c7             	mov    %rax,%rdi
    746f:	e8 2e 1d 00 00       	callq  91a2 <func_54>
    7474:	48 89 c6             	mov    %rax,%rsi
    7477:	8b 05 a7 cb 00 00    	mov    0xcba7(%rip),%eax        # 14024 <g_3>
    747d:	48 8b 95 d8 fc ff ff 	mov    -0x328(%rbp),%rdx
    7484:	48 89 d9             	mov    %rbx,%rcx
    7487:	89 c7                	mov    %eax,%edi
    7489:	e8 86 1c 00 00       	callq  9114 <func_49>
    748e:	48 89 c7             	mov    %rax,%rdi
    7491:	e8 ea 1b 00 00       	callq  9080 <func_47>
    7496:	48 89 c2             	mov    %rax,%rdx
    7499:	8b 85 d4 fc ff ff    	mov    -0x32c(%rbp),%eax
    749f:	48 89 d6             	mov    %rdx,%rsi
    74a2:	89 c7                	mov    %eax,%edi
    74a4:	e8 a3 0b 00 00       	callq  804c <func_44>
    74a9:	48 89 85 70 fd ff ff 	mov    %rax,-0x290(%rbp)
    74b0:	e9 6b 0b 00 00       	jmpq   8020 <func_15+0xe75>
    74b5:	48 8d 05 4e db 00 00 	lea    0xdb4e(%rip),%rax        # 1500a <g_1044+0x36a>
    74bc:	48 89 85 88 fd ff ff 	mov    %rax,-0x278(%rbp)
    74c3:	48 8d 05 26 03 01 00 	lea    0x10326(%rip),%rax        # 177f0 <g_1297>
    74ca:	48 89 85 90 fd ff ff 	mov    %rax,-0x270(%rbp)
    74d1:	48 8d 05 50 0e 01 00 	lea    0x10e50(%rip),%rax        # 18328 <g_584>
    74d8:	48 89 85 68 fd ff ff 	mov    %rax,-0x298(%rbp)
    74df:	48 8d 85 68 fd ff ff 	lea    -0x298(%rbp),%rax
    74e6:	48 89 85 98 fd ff ff 	mov    %rax,-0x268(%rbp)
    74ed:	48 8d 05 c4 cf 00 00 	lea    0xcfc4(%rip),%rax        # 144b8 <g_201>
    74f4:	48 89 85 a0 fd ff ff 	mov    %rax,-0x260(%rbp)
    74fb:	48 8d 05 1e 0e 01 00 	lea    0x10e1e(%rip),%rax        # 18320 <g_502>
    7502:	48 89 85 a8 fd ff ff 	mov    %rax,-0x258(%rbp)
    7509:	48 8d 05 50 ed 00 00 	lea    0xed50(%rip),%rax        # 16260 <g_1467>
    7510:	48 89 85 b0 fd ff ff 	mov    %rax,-0x250(%rbp)
    7517:	48 8d 05 ec da 00 00 	lea    0xdaec(%rip),%rax        # 1500a <g_1044+0x36a>
    751e:	48 89 85 b8 fd ff ff 	mov    %rax,-0x248(%rbp)
    7525:	c7 85 f4 fc ff ff 01 	movl   $0x1,-0x30c(%rbp)
    752c:	00 00 00 
    752f:	c7 85 1c fd ff ff f1 	movl   $0x4db6b5f1,-0x2e4(%rbp)
    7536:	b5 b6 4d 
    7539:	c7 85 20 fd ff ff ff 	movl   $0xffffffff,-0x2e0(%rbp)
    7540:	ff ff ff 
    7543:	c7 85 24 fd ff ff dc 	movl   $0xedc636dc,-0x2dc(%rbp)
    754a:	36 c6 ed 
    754d:	c7 85 28 fd ff ff 01 	movl   $0x1,-0x2d8(%rbp)
    7554:	00 00 00 
    7557:	c7 85 f8 fc ff ff 92 	movl   $0x9ba24892,-0x308(%rbp)
    755e:	48 a2 9b 
    7561:	48 8d 05 e8 dc 00 00 	lea    0xdce8(%rip),%rax        # 15250 <g_1242>
    7568:	48 89 85 c0 fd ff ff 	mov    %rax,-0x240(%rbp)
    756f:	c7 85 2c fd ff ff 00 	movl   $0x0,-0x2d4(%rbp)
    7576:	00 00 00 
    7579:	c7 85 30 fd ff ff 09 	movl   $0x9,-0x2d0(%rbp)
    7580:	00 00 00 
    7583:	c7 85 34 fd ff ff 73 	movl   $0x8bc35b73,-0x2cc(%rbp)
    758a:	5b c3 8b 
    758d:	c7 85 38 fd ff ff 00 	movl   $0x0,-0x2c8(%rbp)
    7594:	00 00 00 
    7597:	c7 85 3c fd ff ff fa 	movl   $0xfffffffa,-0x2c4(%rbp)
    759e:	ff ff ff 
    75a1:	c7 85 40 fd ff ff fa 	movl   $0xfffffffa,-0x2c0(%rbp)
    75a8:	ff ff ff 
    75ab:	c7 85 44 fd ff ff 9f 	movl   $0x21efec9f,-0x2bc(%rbp)
    75b2:	ec ef 21 
    75b5:	48 8d 05 e4 04 01 00 	lea    0x104e4(%rip),%rax        # 17aa0 <g_1352>
    75bc:	48 89 85 c8 fd ff ff 	mov    %rax,-0x238(%rbp)
    75c3:	c7 85 48 fd ff ff fb 	movl   $0xfffffffb,-0x2b8(%rbp)
    75ca:	ff ff ff 
    75cd:	48 8b 05 14 02 01 00 	mov    0x10214(%rip),%rax        # 177e8 <g_1156>
    75d4:	48 8b 00             	mov    (%rax),%rax
    75d7:	48 8b 00             	mov    (%rax),%rax
    75da:	48 8b 00             	mov    (%rax),%rax
    75dd:	48 8b 15 04 02 01 00 	mov    0x10204(%rip),%rdx        # 177e8 <g_1156>
    75e4:	48 8b 12             	mov    (%rdx),%rdx
    75e7:	48 8b 12             	mov    (%rdx),%rdx
    75ea:	48 8b 0a             	mov    (%rdx),%rcx
    75ed:	48 8b 50 08          	mov    0x8(%rax),%rdx
    75f1:	48 8b 00             	mov    (%rax),%rax
    75f4:	48 89 01             	mov    %rax,(%rcx)
    75f7:	48 89 51 08          	mov    %rdx,0x8(%rcx)
    75fb:	48 8b 05 7e ff 00 00 	mov    0xff7e(%rip),%rax        # 17580 <g_922>
    7602:	48 8b 95 88 fd ff ff 	mov    -0x278(%rbp),%rdx
    7609:	48 89 10             	mov    %rdx,(%rax)
    760c:	48 8b 85 90 fd ff ff 	mov    -0x270(%rbp),%rax
    7613:	48 8d 15 0e 0d 01 00 	lea    0x10d0e(%rip),%rdx        # 18328 <g_584>
    761a:	48 89 10             	mov    %rdx,(%rax)
    761d:	48 8b 85 90 fd ff ff 	mov    -0x270(%rbp),%rax
    7624:	48 8b 08             	mov    (%rax),%rcx
    7627:	48 8b 95 68 fd ff ff 	mov    -0x298(%rbp),%rdx
    762e:	48 8b 85 98 fd ff ff 	mov    -0x268(%rbp),%rax
    7635:	48 89 10             	mov    %rdx,(%rax)
    7638:	48 8b 85 98 fd ff ff 	mov    -0x268(%rbp),%rax
    763f:	48 8b 00             	mov    (%rax),%rax
    7642:	48 39 c1             	cmp    %rax,%rcx
    7645:	0f 84 c5 08 00 00    	je     7f10 <func_15+0xd65>
    764b:	8b 85 d4 fc ff ff    	mov    -0x32c(%rbp),%eax
    7651:	0f be d8             	movsbl %al,%ebx
    7654:	48 8b 05 d5 f2 00 00 	mov    0xf2d5(%rip),%rax        # 16930 <g_1512+0x6b0>
    765b:	48 8b 15 d6 f2 00 00 	mov    0xf2d6(%rip),%rdx        # 16938 <g_1512+0x6b8>
    7662:	48 8b 85 a0 fd ff ff 	mov    -0x260(%rbp),%rax
    7669:	48 8b 10             	mov    (%rax),%rdx
    766c:	48 8b 85 70 fd ff ff 	mov    -0x290(%rbp),%rax
    7673:	8b 00                	mov    (%rax),%eax
    7675:	48 98                	cltq   
    7677:	48 21 c2             	and    %rax,%rdx
    767a:	48 8b 85 a0 fd ff ff 	mov    -0x260(%rbp),%rax
    7681:	48 89 10             	mov    %rdx,(%rax)
    7684:	48 8b 85 a0 fd ff ff 	mov    -0x260(%rbp),%rax
    768b:	4c 8b 20             	mov    (%rax),%r12
    768e:	48 8b 85 d8 fc ff ff 	mov    -0x328(%rbp),%rax
    7695:	0f b7 c0             	movzwl %ax,%eax
    7698:	be 03 00 00 00       	mov    $0x3,%esi
    769d:	89 c7                	mov    %eax,%edi
    769f:	e8 62 d7 ff ff       	callq  4e06 <safe_lshift_func_uint16_t_u_u>
    76a4:	0f b7 c0             	movzwl %ax,%eax
    76a7:	49 39 c4             	cmp    %rax,%r12
    76aa:	0f 9e c0             	setle  %al
    76ad:	0f b6 c0             	movzbl %al,%eax
    76b0:	be 01 00 00 00       	mov    $0x1,%esi
    76b5:	89 c7                	mov    %eax,%edi
    76b7:	e8 d1 d5 ff ff       	callq  4c8d <safe_rshift_func_uint8_t_u_s>
    76bc:	8b 85 d4 fc ff ff    	mov    -0x32c(%rbp),%eax
    76c2:	0f be c0             	movsbl %al,%eax
    76c5:	89 de                	mov    %ebx,%esi
    76c7:	89 c7                	mov    %eax,%edi
    76c9:	e8 44 cb ff ff       	callq  4212 <safe_mul_func_int8_t_s_s>
    76ce:	84 c0                	test   %al,%al
    76d0:	0f 84 3a 08 00 00    	je     7f10 <func_15+0xd65>
    76d6:	c7 85 4c fd ff ff 9e 	movl   $0x7c3aa99e,-0x2b4(%rbp)
    76dd:	a9 3a 7c 
    76e0:	c7 85 c0 fe ff ff 01 	movl   $0x1,-0x140(%rbp)
    76e7:	00 00 00 
    76ea:	c7 85 c4 fe ff ff 01 	movl   $0x1,-0x13c(%rbp)
    76f1:	00 00 00 
    76f4:	c7 85 c8 fe ff ff 01 	movl   $0x1,-0x138(%rbp)
    76fb:	00 00 00 
    76fe:	c7 85 cc fe ff ff 01 	movl   $0x1,-0x134(%rbp)
    7705:	00 00 00 
    7708:	c7 85 d0 fe ff ff 01 	movl   $0x1,-0x130(%rbp)
    770f:	00 00 00 
    7712:	c7 85 d4 fe ff ff 01 	movl   $0x1,-0x12c(%rbp)
    7719:	00 00 00 
    771c:	c7 85 d8 fe ff ff 01 	movl   $0x1,-0x128(%rbp)
    7723:	00 00 00 
    7726:	66 c7 85 ee fc ff ff 	movw   $0xf678,-0x312(%rbp)
    772d:	78 f6 
    772f:	48 8d 05 b2 00 01 00 	lea    0x100b2(%rip),%rax        # 177e8 <g_1156>
    7736:	48 89 85 d0 fd ff ff 	mov    %rax,-0x230(%rbp)
    773d:	c7 05 13 ce 00 00 14 	movl   $0x14,0xce13(%rip)        # 1455a <g_282+0x1a>
    7744:	00 00 00 
    7747:	90                   	nop
    7748:	8b 05 0c ce 00 00    	mov    0xce0c(%rip),%eax        # 1455a <g_282+0x1a>
    774e:	83 f8 ee             	cmp    $0xffffffee,%eax
    7751:	0f 8c cc 01 00 00    	jl     7923 <func_15+0x778>
    7757:	c7 85 50 fd ff ff 2f 	movl   $0x932a1a2f,-0x2b0(%rbp)
    775e:	1a 2a 93 
    7761:	48 8d 05 c8 c8 00 00 	lea    0xc8c8(%rip),%rax        # 14030 <g_21>
    7768:	48 89 85 40 fe ff ff 	mov    %rax,-0x1c0(%rbp)
    776f:	48 c7 85 48 fe ff ff 	movq   $0x1,-0x1b8(%rbp)
    7776:	01 00 00 00 
    777a:	66 c7 85 f0 fc ff ff 	movw   $0x7dd4,-0x310(%rbp)
    7781:	d4 7d 
    7783:	c7 85 54 fd ff ff fc 	movl   $0xfffffffc,-0x2ac(%rbp)
    778a:	ff ff ff 
    778d:	c7 85 58 fd ff ff 21 	movl   $0xaa9baa21,-0x2a8(%rbp)
    7794:	aa 9b aa 
    7797:	c7 85 fc fc ff ff 27 	movl   $0xb118d327,-0x304(%rbp)
    779e:	d3 18 b1 
    77a1:	c7 85 10 fd ff ff 00 	movl   $0x0,-0x2f0(%rbp)
    77a8:	00 00 00 
    77ab:	eb 1a                	jmp    77c7 <func_15+0x61c>
    77ad:	8b 85 10 fd ff ff    	mov    -0x2f0(%rbp),%eax
    77b3:	48 98                	cltq   
    77b5:	c7 84 85 50 ff ff ff 	movl   $0xfffffff6,-0xb0(%rbp,%rax,4)
    77bc:	f6 ff ff ff 
    77c0:	83 85 10 fd ff ff 01 	addl   $0x1,-0x2f0(%rbp)
    77c7:	83 bd 10 fd ff ff 01 	cmpl   $0x1,-0x2f0(%rbp)
    77ce:	7e dd                	jle    77ad <func_15+0x602>
    77d0:	48 8b 85 70 fd ff ff 	mov    -0x290(%rbp),%rax
    77d7:	8b 10                	mov    (%rax),%edx
    77d9:	48 8b 05 98 fd 00 00 	mov    0xfd98(%rip),%rax        # 17578 <g_916>
    77e0:	8b 00                	mov    (%rax),%eax
    77e2:	21 c2                	and    %eax,%edx
    77e4:	48 8b 85 70 fd ff ff 	mov    -0x290(%rbp),%rax
    77eb:	89 10                	mov    %edx,(%rax)
    77ed:	c6 05 3d c8 00 00 00 	movb   $0x0,0xc83d(%rip)        # 14031 <g_37>
    77f4:	eb 59                	jmp    784f <func_15+0x6a4>
    77f6:	48 8d 05 49 cd 00 00 	lea    0xcd49(%rip),%rax        # 14546 <g_282+0x6>
    77fd:	48 89 85 50 fe ff ff 	mov    %rax,-0x1b0(%rbp)
    7804:	c7 85 5c fd ff ff 00 	movl   $0x0,-0x2a4(%rbp)
    780b:	00 00 00 
    780e:	48 8d 05 8d ca 00 00 	lea    0xca8d(%rip),%rax        # 142a2 <g_93+0x2>
    7815:	48 89 85 58 fe ff ff 	mov    %rax,-0x1a8(%rbp)
    781c:	48 c7 85 60 fe ff ff 	movq   $0x0,-0x1a0(%rbp)
    7823:	00 00 00 00 
    7827:	48 8d 05 52 cd 00 00 	lea    0xcd52(%rip),%rax        # 14580 <g_296>
    782e:	48 89 85 68 fe ff ff 	mov    %rax,-0x198(%rbp)
    7835:	c7 85 60 fd ff ff 1b 	movl   $0xb923481b,-0x2a0(%rbp)
    783c:	48 23 b9 
    783f:	0f b6 05 eb c7 00 00 	movzbl 0xc7eb(%rip),%eax        # 14031 <g_37>
    7846:	83 c0 01             	add    $0x1,%eax
    7849:	88 05 e2 c7 00 00    	mov    %al,0xc7e2(%rip)        # 14031 <g_37>
    784f:	0f b6 05 db c7 00 00 	movzbl 0xc7db(%rip),%eax        # 14031 <g_37>
    7856:	3c 03                	cmp    $0x3,%al
    7858:	76 9c                	jbe    77f6 <func_15+0x64b>
    785a:	48 8b 85 b8 fd ff ff 	mov    -0x248(%rbp),%rax
    7861:	8b 00                	mov    (%rax),%eax
    7863:	25 c6 3d ab 53       	and    $0x53ab3dc6,%eax
    7868:	89 c2                	mov    %eax,%edx
    786a:	48 8b 85 b8 fd ff ff 	mov    -0x248(%rbp),%rax
    7871:	89 10                	mov    %edx,(%rax)
    7873:	48 8b 05 36 02 01 00 	mov    0x10236(%rip),%rax        # 17ab0 <g_1381>
    787a:	48 8b 00             	mov    (%rax),%rax
    787d:	8b 10                	mov    (%rax),%edx
    787f:	48 8b 05 1a fa 00 00 	mov    0xfa1a(%rip),%rax        # 172a0 <g_411>
    7886:	48 8b 08             	mov    (%rax),%rcx
    7889:	48 8d 85 fc fc ff ff 	lea    -0x304(%rbp),%rax
    7890:	48 39 c1             	cmp    %rax,%rcx
    7893:	0f 95 c0             	setne  %al
    7896:	0f b6 c0             	movzbl %al,%eax
    7899:	31 d0                	xor    %edx,%eax
    789b:	89 c0                	mov    %eax,%eax
    789d:	48 89 c7             	mov    %rax,%rdi
    78a0:	e8 71 cf ff ff       	callq  4816 <safe_unary_minus_func_int64_t_s>
    78a5:	89 c2                	mov    %eax,%edx
    78a7:	81 bd d4 fc ff ff c3 	cmpl   $0xc3,-0x32c(%rbp)
    78ae:	00 00 00 
    78b1:	0f 97 c0             	seta   %al
    78b4:	0f b6 c0             	movzbl %al,%eax
    78b7:	31 d0                	xor    %edx,%eax
    78b9:	89 c2                	mov    %eax,%edx
    78bb:	48 83 bd 78 fd ff ff 	cmpq   $0x0,-0x288(%rbp)
    78c2:	00 
    78c3:	0f 94 c0             	sete   %al
    78c6:	0f b6 c0             	movzbl %al,%eax
    78c9:	89 d6                	mov    %edx,%esi
    78cb:	89 c7                	mov    %eax,%edi
    78cd:	e8 0f cc ff ff       	callq  44e1 <safe_lshift_func_int16_t_s_u>
    78d2:	0f bf d0             	movswl %ax,%edx
    78d5:	8b 05 cd f3 00 00    	mov    0xf3cd(%rip),%eax        # 16ca8 <g_1600>
    78db:	39 c2                	cmp    %eax,%edx
    78dd:	0f 94 c0             	sete   %al
    78e0:	0f b6 d0             	movzbl %al,%edx
    78e3:	8b 85 c0 fe ff ff    	mov    -0x140(%rbp),%eax
    78e9:	39 c2                	cmp    %eax,%edx
    78eb:	0f 9f c0             	setg   %al
    78ee:	0f b6 c0             	movzbl %al,%eax
    78f1:	39 85 50 fd ff ff    	cmp    %eax,-0x2b0(%rbp)
    78f7:	0f 94 c0             	sete   %al
    78fa:	0f b6 d0             	movzbl %al,%edx
    78fd:	48 8b 85 70 fd ff ff 	mov    -0x290(%rbp),%rax
    7904:	8b 00                	mov    (%rax),%eax
    7906:	21 c2                	and    %eax,%edx
    7908:	48 8b 85 70 fd ff ff 	mov    -0x290(%rbp),%rax
    790f:	89 10                	mov    %edx,(%rax)
    7911:	48 8b 05 c8 f8 00 00 	mov    0xf8c8(%rip),%rax        # 171e0 <g_353>
    7918:	48 8b 00             	mov    (%rax),%rax
    791b:	0f b6 00             	movzbl (%rax),%eax
    791e:	e9 03 07 00 00       	jmpq   8026 <func_15+0xe7b>
    7923:	48 8b 05 ae fe 00 00 	mov    0xfeae(%rip),%rax        # 177d8 <g_1158>
    792a:	48 8b 00             	mov    (%rax),%rax
    792d:	48 8b 50 08          	mov    0x8(%rax),%rdx
    7931:	48 8b 00             	mov    (%rax),%rax
    7934:	48 89 05 75 f3 00 00 	mov    %rax,0xf375(%rip)        # 16cb0 <g_1646>
    793b:	48 89 15 76 f3 00 00 	mov    %rdx,0xf376(%rip)        # 16cb8 <g_1646+0x8>
    7942:	c7 05 0e cc 00 00 f5 	movl   $0xfffffff5,0xcc0e(%rip)        # 1455a <g_282+0x1a>
    7949:	ff ff ff 
    794c:	e9 59 01 00 00       	jmpq   7aaa <func_15+0x8ff>
    7951:	48 8d 05 50 01 01 00 	lea    0x10150(%rip),%rax        # 17aa8 <g_1382>
    7958:	48 89 85 38 fe ff ff 	mov    %rax,-0x1c8(%rbp)
    795f:	c7 85 00 fd ff ff 00 	movl   $0x0,-0x300(%rbp)
    7966:	00 00 00 
    7969:	eb 1e                	jmp    7989 <func_15+0x7de>
    796b:	8b 85 00 fd ff ff    	mov    -0x300(%rbp),%eax
    7971:	48 98                	cltq   
    7973:	48 8d 15 ce cb 00 00 	lea    0xcbce(%rip),%rdx        # 14548 <g_282+0x8>
    797a:	48 89 94 c5 50 ff ff 	mov    %rdx,-0xb0(%rbp,%rax,8)
    7981:	ff 
    7982:	83 85 00 fd ff ff 01 	addl   $0x1,-0x300(%rbp)
    7989:	83 bd 00 fd ff ff 01 	cmpl   $0x1,-0x300(%rbp)
    7990:	7e d9                	jle    796b <func_15+0x7c0>
    7992:	c7 85 00 fd ff ff 00 	movl   $0x0,-0x300(%rbp)
    7999:	00 00 00 
    799c:	eb 4c                	jmp    79ea <func_15+0x83f>
    799e:	c7 85 04 fd ff ff 00 	movl   $0x0,-0x2fc(%rbp)
    79a5:	00 00 00 
    79a8:	eb 30                	jmp    79da <func_15+0x82f>
    79aa:	8b 85 04 fd ff ff    	mov    -0x2fc(%rbp),%eax
    79b0:	48 63 c8             	movslq %eax,%rcx
    79b3:	8b 85 00 fd ff ff    	mov    -0x300(%rbp),%eax
    79b9:	48 63 d0             	movslq %eax,%rdx
    79bc:	48 89 d0             	mov    %rdx,%rax
    79bf:	48 01 c0             	add    %rax,%rax
    79c2:	48 01 d0             	add    %rdx,%rax
    79c5:	48 01 c8             	add    %rcx,%rax
    79c8:	c7 84 85 00 ff ff ff 	movl   $0x1,-0x100(%rbp,%rax,4)
    79cf:	01 00 00 00 
    79d3:	83 85 04 fd ff ff 01 	addl   $0x1,-0x2fc(%rbp)
    79da:	83 bd 04 fd ff ff 02 	cmpl   $0x2,-0x2fc(%rbp)
    79e1:	7e c7                	jle    79aa <func_15+0x7ff>
    79e3:	83 85 00 fd ff ff 01 	addl   $0x1,-0x300(%rbp)
    79ea:	83 bd 00 fd ff ff 00 	cmpl   $0x0,-0x300(%rbp)
    79f1:	7e ab                	jle    799e <func_15+0x7f3>
    79f3:	48 8b 05 ae 00 01 00 	mov    0x100ae(%rip),%rax        # 17aa8 <g_1382>
    79fa:	c7 00 ff ff ff ff    	movl   $0xffffffff,(%rax)
    7a00:	8b 10                	mov    (%rax),%edx
    7a02:	48 8b 85 70 fd ff ff 	mov    -0x290(%rbp),%rax
    7a09:	8b 00                	mov    (%rax),%eax
    7a0b:	39 c2                	cmp    %eax,%edx
    7a0d:	73 44                	jae    7a53 <func_15+0x8a8>
    7a0f:	48 83 bd 38 fe ff ff 	cmpq   $0x0,-0x1c8(%rbp)
    7a16:	00 
    7a17:	0f 94 c0             	sete   %al
    7a1a:	0f b6 d8             	movzbl %al,%ebx
    7a1d:	48 8b 85 70 fd ff ff 	mov    -0x290(%rbp),%rax
    7a24:	8b 00                	mov    (%rax),%eax
    7a26:	0f be c0             	movsbl %al,%eax
    7a29:	be a7 ff ff ff       	mov    $0xffffffa7,%esi
    7a2e:	89 c7                	mov    %eax,%edi
    7a30:	e8 bd c7 ff ff       	callq  41f2 <safe_sub_func_int8_t_s_s>
    7a35:	66 98                	cbtw   
    7a37:	66 89 05 22 d2 00 00 	mov    %ax,0xd222(%rip)        # 14c60 <g_881>
    7a3e:	0f b7 05 1b d2 00 00 	movzwl 0xd21b(%rip),%eax        # 14c60 <g_881>
    7a45:	0f b7 c0             	movzwl %ax,%eax
    7a48:	39 c3                	cmp    %eax,%ebx
    7a4a:	74 07                	je     7a53 <func_15+0x8a8>
    7a4c:	ba 01 00 00 00       	mov    $0x1,%edx
    7a51:	eb 05                	jmp    7a58 <func_15+0x8ad>
    7a53:	ba 00 00 00 00       	mov    $0x0,%edx
    7a58:	48 8b 85 70 fd ff ff 	mov    -0x290(%rbp),%rax
    7a5f:	89 10                	mov    %edx,(%rax)
    7a61:	48 8b 05 10 fb 00 00 	mov    0xfb10(%rip),%rax        # 17578 <g_916>
    7a68:	8b 00                	mov    (%rax),%eax
    7a6a:	85 c0                	test   %eax,%eax
    7a6c:	74 20                	je     7a8e <func_15+0x8e3>
    7a6e:	8b 05 e6 ca 00 00    	mov    0xcae6(%rip),%eax        # 1455a <g_282+0x1a>
    7a74:	0f be c0             	movsbl %al,%eax
    7a77:	be 04 00 00 00       	mov    $0x4,%esi
    7a7c:	89 c7                	mov    %eax,%edi
    7a7e:	e8 51 c7 ff ff       	callq  41d4 <safe_add_func_int8_t_s_s>
    7a83:	0f be c0             	movsbl %al,%eax
    7a86:	89 05 ce ca 00 00    	mov    %eax,0xcace(%rip)        # 1455a <g_282+0x1a>
    7a8c:	eb 1c                	jmp    7aaa <func_15+0x8ff>
    7a8e:	48 8b 05 33 00 01 00 	mov    0x10033(%rip),%rax        # 17ac8 <g_1655>
    7a95:	48 8b 95 c0 fd ff ff 	mov    -0x240(%rbp),%rdx
    7a9c:	48 89 10             	mov    %rdx,(%rax)
    7a9f:	8b 85 08 ff ff ff    	mov    -0xf8(%rbp),%eax
    7aa5:	e9 7c 05 00 00       	jmpq   8026 <func_15+0xe7b>
    7aaa:	8b 05 aa ca 00 00    	mov    0xcaaa(%rip),%eax        # 1455a <g_282+0x1a>
    7ab0:	83 f8 04             	cmp    $0x4,%eax
    7ab3:	0f 8e 98 fe ff ff    	jle    7951 <func_15+0x7a6>
    7ab9:	c7 05 cd cf 00 00 00 	movl   $0x0,0xcfcd(%rip)        # 14a90 <g_749>
    7ac0:	00 00 00 
    7ac3:	e9 34 04 00 00       	jmpq   7efc <func_15+0xd51>
    7ac8:	c7 85 e0 fe ff ff 79 	movl   $0x657a5179,-0x120(%rbp)
    7acf:	51 7a 65 
    7ad2:	c7 85 e4 fe ff ff ff 	movl   $0xffffffff,-0x11c(%rbp)
    7ad9:	ff ff ff 
    7adc:	c7 85 e8 fe ff ff 79 	movl   $0x657a5179,-0x118(%rbp)
    7ae3:	51 7a 65 
    7ae6:	c7 85 ec fe ff ff ff 	movl   $0xffffffff,-0x114(%rbp)
    7aed:	ff ff ff 
    7af0:	c7 85 f0 fe ff ff 79 	movl   $0x657a5179,-0x110(%rbp)
    7af7:	51 7a 65 
    7afa:	c7 85 f4 fe ff ff ff 	movl   $0xffffffff,-0x10c(%rbp)
    7b01:	ff ff ff 
    7b04:	c7 85 f8 fe ff ff 79 	movl   $0x657a5179,-0x108(%rbp)
    7b0b:	51 7a 65 
    7b0e:	c7 85 fc fe ff ff ff 	movl   $0xffffffff,-0x104(%rbp)
    7b15:	ff ff ff 
    7b18:	c7 85 50 ff ff ff cc 	movl   $0x9f92cccc,-0xb0(%rbp)
    7b1f:	cc 92 9f 
    7b22:	c7 85 54 ff ff ff cc 	movl   $0x9f92cccc,-0xac(%rbp)
    7b29:	cc 92 9f 
    7b2c:	c7 85 58 ff ff ff cc 	movl   $0x9f92cccc,-0xa8(%rbp)
    7b33:	cc 92 9f 
    7b36:	c7 85 5c ff ff ff cc 	movl   $0x9f92cccc,-0xa4(%rbp)
    7b3d:	cc 92 9f 
    7b40:	c7 85 60 ff ff ff cc 	movl   $0x9f92cccc,-0xa0(%rbp)
    7b47:	cc 92 9f 
    7b4a:	c7 85 64 ff ff ff cc 	movl   $0x9f92cccc,-0x9c(%rbp)
    7b51:	cc 92 9f 
    7b54:	c7 85 68 ff ff ff cc 	movl   $0x9f92cccc,-0x98(%rbp)
    7b5b:	cc 92 9f 
    7b5e:	c7 85 6c ff ff ff cc 	movl   $0x9f92cccc,-0x94(%rbp)
    7b65:	cc 92 9f 
    7b68:	c7 85 70 ff ff ff cc 	movl   $0x9f92cccc,-0x90(%rbp)
    7b6f:	cc 92 9f 
    7b72:	c7 85 74 ff ff ff cc 	movl   $0x9f92cccc,-0x8c(%rbp)
    7b79:	cc 92 9f 
    7b7c:	c7 85 78 ff ff ff cc 	movl   $0x9f92cccc,-0x88(%rbp)
    7b83:	cc 92 9f 
    7b86:	c7 85 7c ff ff ff cc 	movl   $0x9f92cccc,-0x84(%rbp)
    7b8d:	cc 92 9f 
    7b90:	c7 45 80 cc cc 92 9f 	movl   $0x9f92cccc,-0x80(%rbp)
    7b97:	c7 45 84 cc cc 92 9f 	movl   $0x9f92cccc,-0x7c(%rbp)
    7b9e:	c7 45 88 cc cc 92 9f 	movl   $0x9f92cccc,-0x78(%rbp)
    7ba5:	c7 45 8c cc cc 92 9f 	movl   $0x9f92cccc,-0x74(%rbp)
    7bac:	c7 45 90 cc cc 92 9f 	movl   $0x9f92cccc,-0x70(%rbp)
    7bb3:	c7 45 94 cc cc 92 9f 	movl   $0x9f92cccc,-0x6c(%rbp)
    7bba:	c7 45 98 cc cc 92 9f 	movl   $0x9f92cccc,-0x68(%rbp)
    7bc1:	c7 45 9c cc cc 92 9f 	movl   $0x9f92cccc,-0x64(%rbp)
    7bc8:	c7 45 a0 cc cc 92 9f 	movl   $0x9f92cccc,-0x60(%rbp)
    7bcf:	c7 45 a4 cc cc 92 9f 	movl   $0x9f92cccc,-0x5c(%rbp)
    7bd6:	c7 45 a8 cc cc 92 9f 	movl   $0x9f92cccc,-0x58(%rbp)
    7bdd:	c7 45 ac cc cc 92 9f 	movl   $0x9f92cccc,-0x54(%rbp)
    7be4:	c7 45 b0 cc cc 92 9f 	movl   $0x9f92cccc,-0x50(%rbp)
    7beb:	c7 45 b4 cc cc 92 9f 	movl   $0x9f92cccc,-0x4c(%rbp)
    7bf2:	c7 45 b8 cc cc 92 9f 	movl   $0x9f92cccc,-0x48(%rbp)
    7bf9:	c7 45 bc cc cc 92 9f 	movl   $0x9f92cccc,-0x44(%rbp)
    7c00:	c7 85 08 fd ff ff 00 	movl   $0x0,-0x2f8(%rbp)
    7c07:	00 00 00 
    7c0a:	eb 43                	jmp    7c4f <func_15+0xaa4>
    7c0c:	c7 85 0c fd ff ff 00 	movl   $0x0,-0x2f4(%rbp)
    7c13:	00 00 00 
    7c16:	eb 27                	jmp    7c3f <func_15+0xa94>
    7c18:	8b 85 0c fd ff ff    	mov    -0x2f4(%rbp),%eax
    7c1e:	48 63 d0             	movslq %eax,%rdx
    7c21:	8b 85 08 fd ff ff    	mov    -0x2f8(%rbp),%eax
    7c27:	48 98                	cltq   
    7c29:	48 01 d0             	add    %rdx,%rax
    7c2c:	48 c7 84 c5 78 fe ff 	movq   $0xfffffffffffffffd,-0x188(%rbp,%rax,8)
    7c33:	ff fd ff ff ff 
    7c38:	83 85 0c fd ff ff 01 	addl   $0x1,-0x2f4(%rbp)
    7c3f:	83 bd 0c fd ff ff 00 	cmpl   $0x0,-0x2f4(%rbp)
    7c46:	7e d0                	jle    7c18 <func_15+0xa6d>
    7c48:	83 85 08 fd ff ff 01 	addl   $0x1,-0x2f8(%rbp)
    7c4f:	83 bd 08 fd ff ff 00 	cmpl   $0x0,-0x2f8(%rbp)
    7c56:	7e b4                	jle    7c0c <func_15+0xa61>
    7c58:	8b 9d d4 fc ff ff    	mov    -0x32c(%rbp),%ebx
    7c5e:	48 8b 85 88 fd ff ff 	mov    -0x278(%rbp),%rax
    7c65:	8b 00                	mov    (%rax),%eax
    7c67:	44 0f bf e0          	movswl %ax,%r12d
    7c6b:	48 8b 85 70 fd ff ff 	mov    -0x290(%rbp),%rax
    7c72:	8b 00                	mov    (%rax),%eax
    7c74:	4c 63 e8             	movslq %eax,%r13
    7c77:	8b 05 c3 c8 00 00    	mov    0xc8c3(%rip),%eax        # 14540 <g_282>
    7c7d:	83 e0 01             	and    $0x1,%eax
    7c80:	89 c2                	mov    %eax,%edx
    7c82:	48 8b 05 ef f8 00 00 	mov    0xf8ef(%rip),%rax        # 17578 <g_916>
    7c89:	48 8b 8d d8 fc ff ff 	mov    -0x328(%rbp),%rcx
    7c90:	89 08                	mov    %ecx,(%rax)
    7c92:	8b 00                	mov    (%rax),%eax
    7c94:	39 85 d4 fc ff ff    	cmp    %eax,-0x32c(%rbp)
    7c9a:	0f 97 c0             	seta   %al
    7c9d:	0f b6 c0             	movzbl %al,%eax
    7ca0:	89 d6                	mov    %edx,%esi
    7ca2:	89 c7                	mov    %eax,%edi
    7ca4:	e8 81 c8 ff ff       	callq  452a <safe_rshift_func_int16_t_s_s>
    7ca9:	0f bf d0             	movswl %ax,%edx
    7cac:	48 8b 05 f5 fd 00 00 	mov    0xfdf5(%rip),%rax        # 17aa8 <g_1382>
    7cb3:	8b 00                	mov    (%rax),%eax
    7cb5:	39 c2                	cmp    %eax,%edx
    7cb7:	0f 97 c0             	seta   %al
    7cba:	0f b6 c0             	movzbl %al,%eax
    7cbd:	48 be 45 1e a7 70 1a 	movabs $0x44cd2b1a70a71e45,%rsi
    7cc4:	2b cd 44 
    7cc7:	48 89 c7             	mov    %rax,%rdi
    7cca:	e8 e5 cc ff ff       	callq  49b4 <safe_mod_func_int64_t_s_s>
    7ccf:	49 39 c5             	cmp    %rax,%r13
    7cd2:	0f 95 c0             	setne  %al
    7cd5:	0f b6 c0             	movzbl %al,%eax
    7cd8:	be b8 dd 00 00       	mov    $0xddb8,%esi
    7cdd:	89 c7                	mov    %eax,%edi
    7cdf:	e8 1b d0 ff ff       	callq  4cff <safe_add_func_uint16_t_u_u>
    7ce4:	44 89 e6             	mov    %r12d,%esi
    7ce7:	bf 00 00 00 00       	mov    $0x0,%edi
    7cec:	e8 e2 c6 ff ff       	callq  43d3 <safe_sub_func_int16_t_s_s>
    7cf1:	48 8b 05 a8 f4 00 00 	mov    0xf4a8(%rip),%rax        # 171a0 <g_107>
    7cf8:	48 8b 00             	mov    (%rax),%rax
    7cfb:	48 85 c0             	test   %rax,%rax
    7cfe:	74 14                	je     7d14 <func_15+0xb69>
    7d00:	48 8b 85 88 fd ff ff 	mov    -0x278(%rbp),%rax
    7d07:	8b 00                	mov    (%rax),%eax
    7d09:	85 c0                	test   %eax,%eax
    7d0b:	74 07                	je     7d14 <func_15+0xb69>
    7d0d:	b8 01 00 00 00       	mov    $0x1,%eax
    7d12:	eb 05                	jmp    7d19 <func_15+0xb6e>
    7d14:	b8 00 00 00 00       	mov    $0x0,%eax
    7d19:	3d f8 ff 00 00       	cmp    $0xfff8,%eax
    7d1e:	74 09                	je     7d29 <func_15+0xb7e>
    7d20:	b8 93 ff ff ff       	mov    $0xffffff93,%eax
    7d25:	84 c0                	test   %al,%al
    7d27:	74 07                	je     7d30 <func_15+0xb85>
    7d29:	b8 01 00 00 00       	mov    $0x1,%eax
    7d2e:	eb 05                	jmp    7d35 <func_15+0xb8a>
    7d30:	b8 00 00 00 00       	mov    $0x0,%eax
    7d35:	0f b6 c0             	movzbl %al,%eax
    7d38:	be 06 00 00 00       	mov    $0x6,%esi
    7d3d:	89 c7                	mov    %eax,%edi
    7d3f:	e8 08 cf ff ff       	callq  4c4c <safe_lshift_func_uint8_t_u_u>
    7d44:	0f b6 d0             	movzbl %al,%edx
    7d47:	48 8b 85 a0 fe ff ff 	mov    -0x160(%rbp),%rax
    7d4e:	48 39 85 d0 fd ff ff 	cmp    %rax,-0x230(%rbp)
    7d55:	0f 94 c0             	sete   %al
    7d58:	0f b6 c0             	movzbl %al,%eax
    7d5b:	39 85 d4 fc ff ff    	cmp    %eax,-0x32c(%rbp)
    7d61:	0f 93 c0             	setae  %al
    7d64:	0f b6 c0             	movzbl %al,%eax
    7d67:	89 d6                	mov    %edx,%esi
    7d69:	89 c7                	mov    %eax,%edi
    7d6b:	e8 ea cd ff ff       	callq  4b5a <safe_add_func_uint8_t_u_u>
    7d70:	0f b6 c0             	movzbl %al,%eax
    7d73:	89 de                	mov    %ebx,%esi
    7d75:	89 c7                	mov    %eax,%edi
    7d77:	e8 83 c9 ff ff       	callq  46ff <safe_div_func_int32_t_s_s>
    7d7c:	48 8b 85 b8 fd ff ff 	mov    -0x248(%rbp),%rax
    7d83:	c7 00 01 00 00 00    	movl   $0x1,(%rax)
    7d89:	48 8b 85 b8 fd ff ff 	mov    -0x248(%rbp),%rax
    7d90:	8b 10                	mov    (%rax),%edx
    7d92:	48 8b 85 70 fd ff ff 	mov    -0x290(%rbp),%rax
    7d99:	8b 00                	mov    (%rax),%eax
    7d9b:	21 c2                	and    %eax,%edx
    7d9d:	48 8b 85 70 fd ff ff 	mov    -0x290(%rbp),%rax
    7da4:	89 10                	mov    %edx,(%rax)
    7da6:	48 c7 05 07 c7 00 00 	movq   $0x3,0xc707(%rip)        # 144b8 <g_201>
    7dad:	03 00 00 00 
    7db1:	e9 27 01 00 00       	jmpq   7edd <func_15+0xd32>
    7db6:	48 c7 85 d8 fd ff ff 	movq   $0x0,-0x228(%rbp)
    7dbd:	00 00 00 00 
    7dc1:	48 8d 85 74 fe ff ff 	lea    -0x18c(%rbp),%rax
    7dc8:	48 89 85 e0 fd ff ff 	mov    %rax,-0x220(%rbp)
    7dcf:	48 8d 05 6a c7 00 00 	lea    0xc76a(%rip),%rax        # 14540 <g_282>
    7dd6:	48 89 85 e8 fd ff ff 	mov    %rax,-0x218(%rbp)
    7ddd:	48 8d 05 26 d2 00 00 	lea    0xd226(%rip),%rax        # 1500a <g_1044+0x36a>
    7de4:	48 89 85 f0 fd ff ff 	mov    %rax,-0x210(%rbp)
    7deb:	48 8d 85 c0 fe ff ff 	lea    -0x140(%rbp),%rax
    7df2:	48 83 c0 18          	add    $0x18,%rax
    7df6:	48 89 85 f8 fd ff ff 	mov    %rax,-0x208(%rbp)
    7dfd:	48 8d 85 f8 fc ff ff 	lea    -0x308(%rbp),%rax
    7e04:	48 89 85 00 fe ff ff 	mov    %rax,-0x200(%rbp)
    7e0b:	48 8d 05 12 c2 00 00 	lea    0xc212(%rip),%rax        # 14024 <g_3>
    7e12:	48 89 85 08 fe ff ff 	mov    %rax,-0x1f8(%rbp)
    7e19:	48 8d 05 84 c6 00 00 	lea    0xc684(%rip),%rax        # 144a4 <g_151>
    7e20:	48 89 85 10 fe ff ff 	mov    %rax,-0x1f0(%rbp)
    7e27:	48 8d 05 76 c6 00 00 	lea    0xc676(%rip),%rax        # 144a4 <g_151>
    7e2e:	48 89 85 18 fe ff ff 	mov    %rax,-0x1e8(%rbp)
    7e35:	48 c7 85 20 fe ff ff 	movq   $0x0,-0x1e0(%rbp)
    7e3c:	00 00 00 00 
    7e40:	48 8d 05 53 c7 00 00 	lea    0xc753(%rip),%rax        # 1459a <g_296+0x1a>
    7e47:	48 89 85 28 fe ff ff 	mov    %rax,-0x1d8(%rbp)
    7e4e:	48 8d 85 f4 fc ff ff 	lea    -0x30c(%rbp),%rax
    7e55:	48 89 85 30 fe ff ff 	mov    %rax,-0x1d0(%rbp)
    7e5c:	48 8d 05 c1 c1 00 00 	lea    0xc1c1(%rip),%rax        # 14024 <g_3>
    7e63:	48 89 85 00 ff ff ff 	mov    %rax,-0x100(%rbp)
    7e6a:	48 8d 05 b3 c1 00 00 	lea    0xc1b3(%rip),%rax        # 14024 <g_3>
    7e71:	48 89 85 08 ff ff ff 	mov    %rax,-0xf8(%rbp)
    7e78:	48 8d 05 a5 c1 00 00 	lea    0xc1a5(%rip),%rax        # 14024 <g_3>
    7e7f:	48 89 85 10 ff ff ff 	mov    %rax,-0xf0(%rbp)
    7e86:	48 8d 05 97 c1 00 00 	lea    0xc197(%rip),%rax        # 14024 <g_3>
    7e8d:	48 89 85 18 ff ff ff 	mov    %rax,-0xe8(%rbp)
    7e94:	48 8b 85 78 fe ff ff 	mov    -0x188(%rbp),%rax
    7e9b:	48 83 c0 01          	add    $0x1,%rax
    7e9f:	48 89 85 78 fe ff ff 	mov    %rax,-0x188(%rbp)
    7ea6:	66 c7 05 97 c6 00 00 	movw   $0x0,0xc697(%rip)        # 14546 <g_282+0x6>
    7ead:	00 00 
    7eaf:	90                   	nop
    7eb0:	0f b7 05 8f c6 00 00 	movzwl 0xc68f(%rip),%eax        # 14546 <g_282+0x6>
    7eb7:	66 83 f8 03          	cmp    $0x3,%ax
    7ebb:	77 0e                	ja     7ecb <func_15+0xd20>
    7ebd:	48 8b 85 e8 fd ff ff 	mov    -0x218(%rbp),%rax
    7ec4:	8b 00                	mov    (%rax),%eax
    7ec6:	e9 5b 01 00 00       	jmpq   8026 <func_15+0xe7b>
    7ecb:	48 8b 05 e6 c5 00 00 	mov    0xc5e6(%rip),%rax        # 144b8 <g_201>
    7ed2:	48 83 e8 01          	sub    $0x1,%rax
    7ed6:	48 89 05 db c5 00 00 	mov    %rax,0xc5db(%rip)        # 144b8 <g_201>
    7edd:	48 8b 05 d4 c5 00 00 	mov    0xc5d4(%rip),%rax        # 144b8 <g_201>
    7ee4:	48 85 c0             	test   %rax,%rax
    7ee7:	0f 89 c9 fe ff ff    	jns    7db6 <func_15+0xc0b>
    7eed:	8b 05 9d cb 00 00    	mov    0xcb9d(%rip),%eax        # 14a90 <g_749>
    7ef3:	83 c0 01             	add    $0x1,%eax
    7ef6:	89 05 94 cb 00 00    	mov    %eax,0xcb94(%rip)        # 14a90 <g_749>
    7efc:	8b 05 8e cb 00 00    	mov    0xcb8e(%rip),%eax        # 14a90 <g_749>
    7f02:	83 f8 03             	cmp    $0x3,%eax
    7f05:	0f 86 bd fb ff ff    	jbe    7ac8 <func_15+0x91d>
    7f0b:	e9 e1 00 00 00       	jmpq   7ff1 <func_15+0xe46>
    7f10:	66 c7 85 f2 fc ff ff 	movw   $0x1,-0x30e(%rbp)
    7f17:	01 00 
    7f19:	48 8b 85 88 fd ff ff 	mov    -0x278(%rbp),%rax
    7f20:	8b 00                	mov    (%rax),%eax
    7f22:	0f b7 d8             	movzwl %ax,%ebx
    7f25:	48 8b 85 d8 fc ff ff 	mov    -0x328(%rbp),%rax
    7f2c:	44 0f b6 e0          	movzbl %al,%r12d
    7f30:	66 83 bd f2 fc ff ff 	cmpw   $0x0,-0x30e(%rbp)
    7f37:	00 
    7f38:	74 50                	je     7f8a <func_15+0xddf>
    7f3a:	48 8b 05 77 fb 00 00 	mov    0xfb77(%rip),%rax        # 17ab8 <g_1380>
    7f41:	48 8b 00             	mov    (%rax),%rax
    7f44:	48 8b 00             	mov    (%rax),%rax
    7f47:	44 8b 28             	mov    (%rax),%r13d
    7f4a:	48 8b 85 70 fd ff ff 	mov    -0x290(%rbp),%rax
    7f51:	8b 00                	mov    (%rax),%eax
    7f53:	0f be d0             	movsbl %al,%edx
    7f56:	48 8b 85 70 fd ff ff 	mov    -0x290(%rbp),%rax
    7f5d:	8b 00                	mov    (%rax),%eax
    7f5f:	0f be c0             	movsbl %al,%eax
    7f62:	89 d6                	mov    %edx,%esi
    7f64:	89 c7                	mov    %eax,%edi
    7f66:	e8 a7 c2 ff ff       	callq  4212 <safe_mul_func_int8_t_s_s>
    7f6b:	0f be c0             	movsbl %al,%eax
    7f6e:	f7 d0                	not    %eax
    7f70:	44 31 e8             	xor    %r13d,%eax
    7f73:	be 56 db f5 9e       	mov    $0x9ef5db56,%esi
    7f78:	89 c7                	mov    %eax,%edi
    7f7a:	e8 51 cf ff ff       	callq  4ed0 <safe_sub_func_uint32_t_u_u>
    7f7f:	85 c0                	test   %eax,%eax
    7f81:	74 07                	je     7f8a <func_15+0xddf>
    7f83:	ba 01 00 00 00       	mov    $0x1,%edx
    7f88:	eb 05                	jmp    7f8f <func_15+0xde4>
    7f8a:	ba 00 00 00 00       	mov    $0x0,%edx
    7f8f:	b8 0c 00 00 00       	mov    $0xc,%eax
    7f94:	0f b6 c0             	movzbl %al,%eax
    7f97:	39 c2                	cmp    %eax,%edx
    7f99:	75 07                	jne    7fa2 <func_15+0xdf7>
    7f9b:	b8 a9 00 00 00       	mov    $0xa9,%eax
    7fa0:	eb 05                	jmp    7fa7 <func_15+0xdfc>
    7fa2:	b8 a8 00 00 00       	mov    $0xa8,%eax
    7fa7:	44 89 e6             	mov    %r12d,%esi
    7faa:	89 c7                	mov    %eax,%edi
    7fac:	e8 2a cc ff ff       	callq  4bdb <safe_div_func_uint8_t_u_u>
    7fb1:	0f b6 c0             	movzbl %al,%eax
    7fb4:	66 35 f8 ae          	xor    $0xaef8,%ax
    7fb8:	89 c2                	mov    %eax,%edx
    7fba:	8b 85 48 fd ff ff    	mov    -0x2b8(%rbp),%eax
    7fc0:	21 d0                	and    %edx,%eax
    7fc2:	0f b7 c0             	movzwl %ax,%eax
    7fc5:	89 de                	mov    %ebx,%esi
    7fc7:	89 c7                	mov    %eax,%edi
    7fc9:	e8 51 cd ff ff       	callq  4d1f <safe_sub_func_uint16_t_u_u>
    7fce:	8b 05 f8 c5 00 00    	mov    0xc5f8(%rip),%eax        # 145cc <g_315>
    7fd4:	0f b7 c0             	movzwl %ax,%eax
    7fd7:	be 06 00 00 00       	mov    $0x6,%esi
    7fdc:	89 c7                	mov    %eax,%edi
    7fde:	e8 23 ce ff ff       	callq  4e06 <safe_lshift_func_uint16_t_u_u>
    7fe3:	89 c2                	mov    %eax,%edx
    7fe5:	48 8b 05 cc f1 00 00 	mov    0xf1cc(%rip),%rax        # 171b8 <g_260>
    7fec:	0f b7 d2             	movzwl %dx,%edx
    7fef:	89 10                	mov    %edx,(%rax)
    7ff1:	48 8b 85 70 fd ff ff 	mov    -0x290(%rbp),%rax
    7ff8:	8b 10                	mov    (%rax),%edx
    7ffa:	48 8b 85 b8 fd ff ff 	mov    -0x248(%rbp),%rax
    8001:	8b 00                	mov    (%rax),%eax
    8003:	31 c2                	xor    %eax,%edx
    8005:	48 8b 85 70 fd ff ff 	mov    -0x290(%rbp),%rax
    800c:	89 10                	mov    %edx,(%rax)
    800e:	48 8b 85 70 fd ff ff 	mov    -0x290(%rbp),%rax
    8015:	8b 10                	mov    (%rax),%edx
    8017:	48 8b 85 b8 fd ff ff 	mov    -0x248(%rbp),%rax
    801e:	89 10                	mov    %edx,(%rax)
    8020:	8b 85 d4 fc ff ff    	mov    -0x32c(%rbp),%eax
    8026:	48 8b 5d c8          	mov    -0x38(%rbp),%rbx
    802a:	64 48 33 1c 25 28 00 	xor    %fs:0x28,%rbx
    8031:	00 00 
    8033:	74 05                	je     803a <func_15+0xe8f>
    8035:	e8 36 c0 ff ff       	callq  4070 <__stack_chk_fail@plt>
    803a:	48 81 c4 18 03 00 00 	add    $0x318,%rsp
    8041:	5b                   	pop    %rbx
    8042:	41 5c                	pop    %r12
    8044:	41 5d                	pop    %r13
    8046:	41 5e                	pop    %r14
    8048:	41 5f                	pop    %r15
    804a:	5d                   	pop    %rbp
    804b:	c3                   	retq   

000000000000804c <func_44>:
    804c:	f3 0f 1e fa          	endbr64 
    8050:	55                   	push   %rbp
    8051:	48 89 e5             	mov    %rsp,%rbp
    8054:	53                   	push   %rbx
    8055:	48 81 ec c8 05 00 00 	sub    $0x5c8,%rsp
    805c:	89 bd 3c fa ff ff    	mov    %edi,-0x5c4(%rbp)
    8062:	48 89 b5 30 fa ff ff 	mov    %rsi,-0x5d0(%rbp)
    8069:	64 48 8b 04 25 28 00 	mov    %fs:0x28,%rax
    8070:	00 00 
    8072:	48 89 45 e8          	mov    %rax,-0x18(%rbp)
    8076:	31 c0                	xor    %eax,%eax
    8078:	c7 85 5c fa ff ff 00 	movl   $0x0,-0x5a4(%rbp)
    807f:	00 00 00 
    8082:	48 8d 05 a7 bf 00 00 	lea    0xbfa7(%rip),%rax        # 14030 <g_21>
    8089:	48 89 85 98 fa ff ff 	mov    %rax,-0x568(%rbp)
    8090:	48 8d 05 03 c5 00 00 	lea    0xc503(%rip),%rax        # 1459a <g_296+0x1a>
    8097:	48 89 85 a0 fa ff ff 	mov    %rax,-0x560(%rbp)
    809e:	48 8d 05 03 02 01 00 	lea    0x10203(%rip),%rax        # 182a8 <g_91>
    80a5:	48 89 85 a8 fa ff ff 	mov    %rax,-0x558(%rbp)
    80ac:	48 8d 05 3d c9 00 00 	lea    0xc93d(%rip),%rax        # 149f0 <g_565>
    80b3:	48 89 85 78 fa ff ff 	mov    %rax,-0x588(%rbp)
    80ba:	48 8d 85 78 fa ff ff 	lea    -0x588(%rbp),%rax
    80c1:	48 89 85 b0 fa ff ff 	mov    %rax,-0x550(%rbp)
    80c8:	48 c7 85 b8 fa ff ff 	movq   $0x0,-0x548(%rbp)
    80cf:	00 00 00 00 
    80d3:	66 c7 85 4e fa ff ff 	movw   $0xba24,-0x5b2(%rbp)
    80da:	24 ba 
    80dc:	c6 85 4b fa ff ff 14 	movb   $0x14,-0x5b5(%rbp)
    80e3:	c7 85 6c fa ff ff 08 	movl   $0x8,-0x594(%rbp)
    80ea:	00 00 00 
    80ed:	48 8d 05 b8 c3 00 00 	lea    0xc3b8(%rip),%rax        # 144ac <g_174>
    80f4:	48 89 85 c0 fa ff ff 	mov    %rax,-0x540(%rbp)
    80fb:	c6 85 49 fa ff ff 01 	movb   $0x1,-0x5b7(%rbp)
    8102:	48 c7 85 c8 fa ff ff 	movq   $0xfffffffffffffffb,-0x538(%rbp)
    8109:	fb ff ff ff 
    810d:	c7 85 54 fa ff ff 01 	movl   $0x1,-0x5ac(%rbp)
    8114:	00 00 00 
    8117:	48 8d 05 72 d0 00 00 	lea    0xd072(%rip),%rax        # 15190 <g_1115>
    811e:	48 89 85 10 fc ff ff 	mov    %rax,-0x3f0(%rbp)
    8125:	48 8d 05 64 d0 00 00 	lea    0xd064(%rip),%rax        # 15190 <g_1115>
    812c:	48 89 85 18 fc ff ff 	mov    %rax,-0x3e8(%rbp)
    8133:	48 8d 05 56 d0 00 00 	lea    0xd056(%rip),%rax        # 15190 <g_1115>
    813a:	48 89 85 20 fc ff ff 	mov    %rax,-0x3e0(%rbp)
    8141:	48 8d 05 48 d0 00 00 	lea    0xd048(%rip),%rax        # 15190 <g_1115>
    8148:	48 89 85 28 fc ff ff 	mov    %rax,-0x3d8(%rbp)
    814f:	48 8d 85 10 fc ff ff 	lea    -0x3f0(%rbp),%rax
    8156:	48 83 c0 18          	add    $0x18,%rax
    815a:	48 89 85 80 fa ff ff 	mov    %rax,-0x580(%rbp)
    8161:	c6 85 4c fa ff ff 03 	movb   $0x3,-0x5b4(%rbp)
    8168:	48 c7 85 d0 fa ff ff 	movq   $0x0,-0x530(%rbp)
    816f:	00 00 00 00 
    8173:	48 8d 85 54 fa ff ff 	lea    -0x5ac(%rbp),%rax
    817a:	48 89 85 88 fa ff ff 	mov    %rax,-0x578(%rbp)
    8181:	48 8d 85 88 fa ff ff 	lea    -0x578(%rbp),%rax
    8188:	48 89 85 d8 fa ff ff 	mov    %rax,-0x528(%rbp)
    818f:	48 8d 05 ba 01 01 00 	lea    0x101ba(%rip),%rax        # 18350 <g_1144>
    8196:	48 89 85 e0 fa ff ff 	mov    %rax,-0x520(%rbp)
    819d:	48 8d 05 f6 c3 00 00 	lea    0xc3f6(%rip),%rax        # 1459a <g_296+0x1a>
    81a4:	48 89 85 60 fc ff ff 	mov    %rax,-0x3a0(%rbp)
    81ab:	48 8d 05 72 be 00 00 	lea    0xbe72(%rip),%rax        # 14024 <g_3>
    81b2:	48 89 85 68 fc ff ff 	mov    %rax,-0x398(%rbp)
    81b9:	48 8d 05 da c3 00 00 	lea    0xc3da(%rip),%rax        # 1459a <g_296+0x1a>
    81c0:	48 89 85 70 fc ff ff 	mov    %rax,-0x390(%rbp)
    81c7:	48 8d 05 cc c3 00 00 	lea    0xc3cc(%rip),%rax        # 1459a <g_296+0x1a>
    81ce:	48 89 85 78 fc ff ff 	mov    %rax,-0x388(%rbp)
    81d5:	48 8d 05 48 be 00 00 	lea    0xbe48(%rip),%rax        # 14024 <g_3>
    81dc:	48 89 85 80 fc ff ff 	mov    %rax,-0x380(%rbp)
    81e3:	48 8d 05 b0 c3 00 00 	lea    0xc3b0(%rip),%rax        # 1459a <g_296+0x1a>
    81ea:	48 89 85 88 fc ff ff 	mov    %rax,-0x378(%rbp)
    81f1:	48 8d 05 2c be 00 00 	lea    0xbe2c(%rip),%rax        # 14024 <g_3>
    81f8:	48 89 85 e8 fa ff ff 	mov    %rax,-0x518(%rbp)
    81ff:	c7 85 60 fa ff ff 00 	movl   $0x0,-0x5a0(%rbp)
    8206:	00 00 00 
    8209:	eb 1a                	jmp    8225 <func_44+0x1d9>
    820b:	8b 85 60 fa ff ff    	mov    -0x5a0(%rbp),%eax
    8211:	48 98                	cltq   
    8213:	c7 84 85 a0 fb ff ff 	movl   $0x48230732,-0x460(%rbp,%rax,4)
    821a:	32 07 23 48 
    821e:	83 85 60 fa ff ff 01 	addl   $0x1,-0x5a0(%rbp)
    8225:	83 bd 60 fa ff ff 00 	cmpl   $0x0,-0x5a0(%rbp)
    822c:	7e dd                	jle    820b <func_44+0x1bf>
    822e:	c7 85 60 fa ff ff 00 	movl   $0x0,-0x5a0(%rbp)
    8235:	00 00 00 
    8238:	eb 1e                	jmp    8258 <func_44+0x20c>
    823a:	8b 85 60 fa ff ff    	mov    -0x5a0(%rbp),%eax
    8240:	48 98                	cltq   
    8242:	48 8d 95 80 fa ff ff 	lea    -0x580(%rbp),%rdx
    8249:	48 89 94 c5 b0 fb ff 	mov    %rdx,-0x450(%rbp,%rax,8)
    8250:	ff 
    8251:	83 85 60 fa ff ff 01 	addl   $0x1,-0x5a0(%rbp)
    8258:	83 bd 60 fa ff ff 01 	cmpl   $0x1,-0x5a0(%rbp)
    825f:	7e d9                	jle    823a <func_44+0x1ee>
    8261:	c6 05 c9 bd 00 00 00 	movb   $0x0,0xbdc9(%rip)        # 14031 <g_37>
    8268:	eb 46                	jmp    82b0 <func_44+0x264>
    826a:	8b 95 5c fa ff ff    	mov    -0x5a4(%rbp),%edx
    8270:	48 8b 85 30 fa ff ff 	mov    -0x5d0(%rbp),%rax
    8277:	48 c7 00 07 00 00 00 	movq   $0x7,(%rax)
    827e:	48 8b 00             	mov    (%rax),%rax
    8281:	48 89 d6             	mov    %rdx,%rsi
    8284:	48 89 c7             	mov    %rax,%rdi
    8287:	e8 f4 cd ff ff       	callq  5080 <safe_mod_func_uint64_t_u_u>
    828c:	48 8b 15 e5 f2 00 00 	mov    0xf2e5(%rip),%rdx        # 17578 <g_916>
    8293:	8b 12                	mov    (%rdx),%edx
    8295:	31 c2                	xor    %eax,%edx
    8297:	48 8b 05 da f2 00 00 	mov    0xf2da(%rip),%rax        # 17578 <g_916>
    829e:	89 10                	mov    %edx,(%rax)
    82a0:	0f b6 05 8a bd 00 00 	movzbl 0xbd8a(%rip),%eax        # 14031 <g_37>
    82a7:	83 c0 01             	add    $0x1,%eax
    82aa:	88 05 81 bd 00 00    	mov    %al,0xbd81(%rip)        # 14031 <g_37>
    82b0:	0f b6 05 7a bd 00 00 	movzbl 0xbd7a(%rip),%eax        # 14031 <g_37>
    82b7:	3c 2b                	cmp    $0x2b,%al
    82b9:	75 af                	jne    826a <func_44+0x21e>
    82bb:	c7 85 3c fa ff ff f7 	movl   $0xfffffff7,-0x5c4(%rbp)
    82c2:	ff ff ff 
    82c5:	e9 84 0d 00 00       	jmpq   904e <func_44+0x1002>
    82ca:	48 b8 e7 84 d8 d2 72 	movabs $0xe8c5b772d2d884e7,%rax
    82d1:	b7 c5 e8 
    82d4:	48 89 85 f0 fa ff ff 	mov    %rax,-0x510(%rbp)
    82db:	48 8d 05 fa c8 00 00 	lea    0xc8fa(%rip),%rax        # 14bdc <g_818+0xfc>
    82e2:	48 89 85 f8 fa ff ff 	mov    %rax,-0x508(%rbp)
    82e9:	c6 85 4a fa ff ff ff 	movb   $0xff,-0x5b6(%rbp)
    82f0:	48 8d 05 3a bd 00 00 	lea    0xbd3a(%rip),%rax        # 14031 <g_37>
    82f7:	48 89 85 00 fb ff ff 	mov    %rax,-0x500(%rbp)
    82fe:	48 8d 85 d0 fb ff ff 	lea    -0x430(%rbp),%rax
    8305:	48 83 c0 10          	add    $0x10,%rax
    8309:	48 89 85 08 fb ff ff 	mov    %rax,-0x4f8(%rbp)
    8310:	48 8d 05 a1 c1 00 00 	lea    0xc1a1(%rip),%rax        # 144b8 <g_201>
    8317:	48 89 85 10 fb ff ff 	mov    %rax,-0x4f0(%rbp)
    831e:	66 c7 85 50 fa ff ff 	movw   $0xcc95,-0x5b0(%rbp)
    8325:	95 cc 
    8327:	48 8d 05 52 c2 00 00 	lea    0xc252(%rip),%rax        # 14580 <g_296>
    832e:	48 89 85 18 fb ff ff 	mov    %rax,-0x4e8(%rbp)
    8335:	c7 85 58 fa ff ff ff 	movl   $0xffffffff,-0x5a8(%rbp)
    833c:	ff ff ff 
    833f:	48 8d 05 6a ef 00 00 	lea    0xef6a(%rip),%rax        # 172b0 <g_421>
    8346:	48 89 85 20 fb ff ff 	mov    %rax,-0x4e0(%rbp)
    834d:	48 8d 05 f6 c1 00 00 	lea    0xc1f6(%rip),%rax        # 1454a <g_282+0xa>
    8354:	48 89 85 28 fb ff ff 	mov    %rax,-0x4d8(%rbp)
    835b:	48 8d 05 de c1 00 00 	lea    0xc1de(%rip),%rax        # 14540 <g_282>
    8362:	48 89 85 30 fb ff ff 	mov    %rax,-0x4d0(%rbp)
    8369:	48 8d 85 58 fa ff ff 	lea    -0x5a8(%rbp),%rax
    8370:	48 89 85 38 fb ff ff 	mov    %rax,-0x4c8(%rbp)
    8377:	c7 85 70 fa ff ff 00 	movl   $0x0,-0x590(%rbp)
    837e:	00 00 00 
    8381:	c7 85 f0 fb ff ff cc 	movl   $0x94ee32cc,-0x410(%rbp)
    8388:	32 ee 94 
    838b:	c7 85 f4 fb ff ff cc 	movl   $0x94ee32cc,-0x40c(%rbp)
    8392:	32 ee 94 
    8395:	c7 85 f8 fb ff ff cc 	movl   $0x94ee32cc,-0x408(%rbp)
    839c:	32 ee 94 
    839f:	c7 85 fc fb ff ff cc 	movl   $0x94ee32cc,-0x404(%rbp)
    83a6:	32 ee 94 
    83a9:	c7 85 00 fc ff ff cc 	movl   $0x94ee32cc,-0x400(%rbp)
    83b0:	32 ee 94 
    83b3:	c7 85 04 fc ff ff cc 	movl   $0x94ee32cc,-0x3fc(%rbp)
    83ba:	32 ee 94 
    83bd:	c7 85 08 fc ff ff cc 	movl   $0x94ee32cc,-0x3f8(%rbp)
    83c4:	32 ee 94 
    83c7:	c6 85 4d fa ff ff 05 	movb   $0x5,-0x5b3(%rbp)
    83ce:	66 c7 85 52 fa ff ff 	movw   $0xc8f4,-0x5ae(%rbp)
    83d5:	f4 c8 
    83d7:	48 c7 85 30 fc ff ff 	movq   $0x0,-0x3d0(%rbp)
    83de:	00 00 00 00 
    83e2:	48 c7 85 38 fc ff ff 	movq   $0x0,-0x3c8(%rbp)
    83e9:	00 00 00 00 
    83ed:	48 c7 85 40 fc ff ff 	movq   $0x0,-0x3c0(%rbp)
    83f4:	00 00 00 00 
    83f8:	48 c7 85 48 fc ff ff 	movq   $0x0,-0x3b8(%rbp)
    83ff:	00 00 00 00 
    8403:	48 c7 85 50 fc ff ff 	movq   $0x0,-0x3b0(%rbp)
    840a:	00 00 00 00 
    840e:	48 c7 85 40 fb ff ff 	movq   $0x0,-0x4c0(%rbp)
    8415:	00 00 00 00 
    8419:	48 8d 85 49 fa ff ff 	lea    -0x5b7(%rbp),%rax
    8420:	48 89 85 48 fb ff ff 	mov    %rax,-0x4b8(%rbp)
    8427:	c7 85 64 fa ff ff 00 	movl   $0x0,-0x59c(%rbp)
    842e:	00 00 00 
    8431:	eb 1b                	jmp    844e <func_44+0x402>
    8433:	8b 85 64 fa ff ff    	mov    -0x59c(%rbp),%eax
    8439:	48 98                	cltq   
    843b:	48 c7 84 c5 c0 fb ff 	movq   $0x0,-0x440(%rbp,%rax,8)
    8442:	ff 00 00 00 00 
    8447:	83 85 64 fa ff ff 01 	addl   $0x1,-0x59c(%rbp)
    844e:	83 bd 64 fa ff ff 01 	cmpl   $0x1,-0x59c(%rbp)
    8455:	7e dc                	jle    8433 <func_44+0x3e7>
    8457:	c7 85 64 fa ff ff 00 	movl   $0x0,-0x59c(%rbp)
    845e:	00 00 00 
    8461:	eb 1b                	jmp    847e <func_44+0x432>
    8463:	8b 85 64 fa ff ff    	mov    -0x59c(%rbp),%eax
    8469:	48 98                	cltq   
    846b:	48 c7 84 c5 d0 fb ff 	movq   $0x0,-0x430(%rbp,%rax,8)
    8472:	ff 00 00 00 00 
    8477:	83 85 64 fa ff ff 01 	addl   $0x1,-0x59c(%rbp)
    847e:	83 bd 64 fa ff ff 02 	cmpl   $0x2,-0x59c(%rbp)
    8485:	7e dc                	jle    8463 <func_44+0x417>
    8487:	0f b6 85 4a fa ff ff 	movzbl -0x5b6(%rbp),%eax
    848e:	48 0f be d8          	movsbq %al,%rbx
    8492:	48 8b 85 f0 fa ff ff 	mov    -0x510(%rbp),%rax
    8499:	48 83 f0 01          	xor    $0x1,%rax
    849d:	48 89 c2             	mov    %rax,%rdx
    84a0:	8b 85 3c fa ff ff    	mov    -0x5c4(%rbp),%eax
    84a6:	48 98                	cltq   
    84a8:	48 39 c2             	cmp    %rax,%rdx
    84ab:	0f 96 c0             	setbe  %al
    84ae:	0f b6 c0             	movzbl %al,%eax
    84b1:	8b 95 3c fa ff ff    	mov    -0x5c4(%rbp),%edx
    84b7:	89 d6                	mov    %edx,%esi
    84b9:	89 c7                	mov    %eax,%edi
    84bb:	e8 6a c0 ff ff       	callq  452a <safe_rshift_func_int16_t_s_s>
    84c0:	48 0f bf d0          	movswq %ax,%rdx
    84c4:	48 8b 05 d5 ec 00 00 	mov    0xecd5(%rip),%rax        # 171a0 <g_107>
    84cb:	48 8b 00             	mov    (%rax),%rax
    84ce:	48 39 c2             	cmp    %rax,%rdx
    84d1:	0f 92 c0             	setb   %al
    84d4:	0f b6 c0             	movzbl %al,%eax
    84d7:	48 89 de             	mov    %rbx,%rsi
    84da:	48 89 c7             	mov    %rax,%rdi
    84dd:	e8 5f c3 ff ff       	callq  4841 <safe_add_func_int64_t_s_s>
    84e2:	48 89 c2             	mov    %rax,%rdx
    84e5:	48 8b 85 00 fb ff ff 	mov    -0x500(%rbp),%rax
    84ec:	0f b6 00             	movzbl (%rax),%eax
    84ef:	89 c1                	mov    %eax,%ecx
    84f1:	89 d0                	mov    %edx,%eax
    84f3:	21 c8                	and    %ecx,%eax
    84f5:	89 c2                	mov    %eax,%edx
    84f7:	48 8b 85 00 fb ff ff 	mov    -0x500(%rbp),%rax
    84fe:	88 10                	mov    %dl,(%rax)
    8500:	48 8b 85 00 fb ff ff 	mov    -0x500(%rbp),%rax
    8507:	0f b6 00             	movzbl (%rax),%eax
    850a:	0f b6 c0             	movzbl %al,%eax
    850d:	8b 95 5c fa ff ff    	mov    -0x5a4(%rbp),%edx
    8513:	89 d6                	mov    %edx,%esi
    8515:	89 c7                	mov    %eax,%edi
    8517:	e8 a2 c7 ff ff       	callq  4cbe <safe_rshift_func_uint8_t_u_u>
    851c:	83 bd 5c fa ff ff 00 	cmpl   $0x0,-0x5a4(%rbp)
    8523:	74 07                	je     852c <func_44+0x4e0>
    8525:	b9 01 00 00 00       	mov    $0x1,%ecx
    852a:	eb 05                	jmp    8531 <func_44+0x4e5>
    852c:	b9 00 00 00 00       	mov    $0x0,%ecx
    8531:	48 8b 05 40 f0 00 00 	mov    0xf040(%rip),%rax        # 17578 <g_916>
    8538:	8b 10                	mov    (%rax),%edx
    853a:	48 8b 05 37 f0 00 00 	mov    0xf037(%rip),%rax        # 17578 <g_916>
    8541:	31 ca                	xor    %ecx,%edx
    8543:	89 10                	mov    %edx,(%rax)
    8545:	48 8b 05 c4 c2 00 00 	mov    0xc2c4(%rip),%rax        # 14810 <g_424>
    854c:	48 8b 15 c5 c2 00 00 	mov    0xc2c5(%rip),%rdx        # 14818 <g_424+0x8>
    8553:	0f b7 05 2e c0 00 00 	movzwl 0xc02e(%rip),%eax        # 14588 <g_296+0x8>
    855a:	8d 50 ff             	lea    -0x1(%rax),%edx
    855d:	66 89 15 24 c0 00 00 	mov    %dx,0xc024(%rip)        # 14588 <g_296+0x8>
    8564:	0f bf d0             	movswl %ax,%edx
    8567:	48 8b 05 5a ed 00 00 	mov    0xed5a(%rip),%rax        # 172c8 <g_484>
    856e:	48 8b 00             	mov    (%rax),%rax
    8571:	48 85 c0             	test   %rax,%rax
    8574:	0f 94 c0             	sete   %al
    8577:	0f b6 c0             	movzbl %al,%eax
    857a:	89 d6                	mov    %edx,%esi
    857c:	89 c7                	mov    %eax,%edi
    857e:	e8 72 be ff ff       	callq  43f5 <safe_mul_func_int16_t_s_s>
    8583:	98                   	cwtl   
    8584:	be 0f 00 00 00       	mov    $0xf,%esi
    8589:	89 c7                	mov    %eax,%edi
    858b:	e8 02 bf ff ff       	callq  4492 <safe_lshift_func_int16_t_s_s>
    8590:	0f bf d8             	movswl %ax,%ebx
    8593:	0f b6 85 4a fa ff ff 	movzbl -0x5b6(%rbp),%eax
    859a:	0f be c0             	movsbl %al,%eax
    859d:	89 c7                	mov    %eax,%edi
    859f:	e8 f2 bf ff ff       	callq  4596 <safe_unary_minus_func_int32_t_s>
    85a4:	89 de                	mov    %ebx,%esi
    85a6:	89 c7                	mov    %eax,%edi
    85a8:	e8 0b c9 ff ff       	callq  4eb8 <safe_add_func_uint32_t_u_u>
    85ad:	8b 95 3c fa ff ff    	mov    -0x5c4(%rbp),%edx
    85b3:	21 d0                	and    %edx,%eax
    85b5:	89 c3                	mov    %eax,%ebx
    85b7:	8b 85 3c fa ff ff    	mov    -0x5c4(%rbp),%eax
    85bd:	89 c6                	mov    %eax,%esi
    85bf:	bf e7 ff ff ff       	mov    $0xffffffe7,%edi
    85c4:	e8 a3 bd ff ff       	callq  436c <safe_rshift_func_int8_t_s_u>
    85c9:	0f be c0             	movsbl %al,%eax
    85cc:	39 c3                	cmp    %eax,%ebx
    85ce:	0f 82 92 00 00 00    	jb     8666 <func_44+0x61a>
    85d4:	48 b8 5d a2 ff 55 28 	movabs $0xdf38562855ffa25d,%rax
    85db:	56 38 df 
    85de:	48 89 85 90 fb ff ff 	mov    %rax,-0x470(%rbp)
    85e5:	48 8d 05 54 bf 00 00 	lea    0xbf54(%rip),%rax        # 14540 <g_282>
    85ec:	48 89 85 98 fb ff ff 	mov    %rax,-0x468(%rbp)
    85f3:	48 c7 05 ba be 00 00 	movq   $0x2,0xbeba(%rip)        # 144b8 <g_201>
    85fa:	02 00 00 00 
    85fe:	eb 54                	jmp    8654 <func_44+0x608>
    8600:	48 8b 85 90 fb ff ff 	mov    -0x470(%rbp),%rax
    8607:	0f b7 c0             	movzwl %ax,%eax
    860a:	be 01 00 00 00       	mov    $0x1,%esi
    860f:	89 c7                	mov    %eax,%edi
    8611:	e8 e9 c6 ff ff       	callq  4cff <safe_add_func_uint16_t_u_u>
    8616:	89 c2                	mov    %eax,%edx
    8618:	48 8b 05 59 ef 00 00 	mov    0xef59(%rip),%rax        # 17578 <g_916>
    861f:	0f b7 d2             	movzwl %dx,%edx
    8622:	89 10                	mov    %edx,(%rax)
    8624:	48 8b 05 4d ef 00 00 	mov    0xef4d(%rip),%rax        # 17578 <g_916>
    862b:	c7 00 01 00 00 00    	movl   $0x1,(%rax)
    8631:	48 8b 05 48 ef 00 00 	mov    0xef48(%rip),%rax        # 17580 <g_922>
    8638:	48 8b 95 98 fb ff ff 	mov    -0x468(%rbp),%rdx
    863f:	48 89 10             	mov    %rdx,(%rax)
    8642:	48 8b 05 6f be 00 00 	mov    0xbe6f(%rip),%rax        # 144b8 <g_201>
    8649:	48 83 e8 01          	sub    $0x1,%rax
    864d:	48 89 05 64 be 00 00 	mov    %rax,0xbe64(%rip)        # 144b8 <g_201>
    8654:	48 8b 05 5d be 00 00 	mov    0xbe5d(%rip),%rax        # 144b8 <g_201>
    865b:	48 83 f8 e3          	cmp    $0xffffffffffffffe3,%rax
    865f:	7c 9f                	jl     8600 <func_44+0x5b4>
    8661:	e9 e1 09 00 00       	jmpq   9047 <func_44+0xffb>
    8666:	48 8d 85 d0 fb ff ff 	lea    -0x430(%rbp),%rax
    866d:	48 83 c0 10          	add    $0x10,%rax
    8671:	48 89 85 90 fc ff ff 	mov    %rax,-0x370(%rbp)
    8678:	48 8d 85 d0 fb ff ff 	lea    -0x430(%rbp),%rax
    867f:	48 83 c0 10          	add    $0x10,%rax
    8683:	48 89 85 98 fc ff ff 	mov    %rax,-0x368(%rbp)
    868a:	48 8d 85 d0 fb ff ff 	lea    -0x430(%rbp),%rax
    8691:	48 83 c0 10          	add    $0x10,%rax
    8695:	48 89 85 a0 fc ff ff 	mov    %rax,-0x360(%rbp)
    869c:	48 8d 85 d0 fb ff ff 	lea    -0x430(%rbp),%rax
    86a3:	48 83 c0 10          	add    $0x10,%rax
    86a7:	48 89 85 a8 fc ff ff 	mov    %rax,-0x358(%rbp)
    86ae:	48 8d 85 d0 fb ff ff 	lea    -0x430(%rbp),%rax
    86b5:	48 83 c0 10          	add    $0x10,%rax
    86b9:	48 89 85 b0 fc ff ff 	mov    %rax,-0x350(%rbp)
    86c0:	48 8d 85 d0 fb ff ff 	lea    -0x430(%rbp),%rax
    86c7:	48 83 c0 10          	add    $0x10,%rax
    86cb:	48 89 85 b8 fc ff ff 	mov    %rax,-0x348(%rbp)
    86d2:	48 8d 05 c1 be 00 00 	lea    0xbec1(%rip),%rax        # 1459a <g_296+0x1a>
    86d9:	48 89 85 50 fb ff ff 	mov    %rax,-0x4b0(%rbp)
    86e0:	48 8d 05 c9 bd 00 00 	lea    0xbdc9(%rip),%rax        # 144b0 <g_174+0x4>
    86e7:	48 89 85 58 fb ff ff 	mov    %rax,-0x4a8(%rbp)
    86ee:	48 8b 05 eb ea 00 00 	mov    0xeaeb(%rip),%rax        # 171e0 <g_353>
    86f5:	48 8b 00             	mov    (%rax),%rax
    86f8:	0f b6 00             	movzbl (%rax),%eax
    86fb:	0f be d0             	movsbl %al,%edx
    86fe:	8b 85 3c fa ff ff    	mov    -0x5c4(%rbp),%eax
    8704:	0f be c0             	movsbl %al,%eax
    8707:	89 d6                	mov    %edx,%esi
    8709:	89 c7                	mov    %eax,%edi
    870b:	e8 02 bb ff ff       	callq  4212 <safe_mul_func_int8_t_s_s>
    8710:	0f be c0             	movsbl %al,%eax
    8713:	23 85 3c fa ff ff    	and    -0x5c4(%rbp),%eax
    8719:	85 c0                	test   %eax,%eax
    871b:	0f 84 7e 01 00 00    	je     889f <func_44+0x853>
    8721:	c7 85 c0 fc ff ff e6 	movl   $0xd28152e6,-0x340(%rbp)
    8728:	52 81 d2 
    872b:	c7 85 c4 fc ff ff fd 	movl   $0xfffffffd,-0x33c(%rbp)
    8732:	ff ff ff 
    8735:	c7 85 c8 fc ff ff e6 	movl   $0xd28152e6,-0x338(%rbp)
    873c:	52 81 d2 
    873f:	c7 85 cc fc ff ff fd 	movl   $0xfffffffd,-0x334(%rbp)
    8746:	ff ff ff 
    8749:	c7 85 d0 fc ff ff e6 	movl   $0xd28152e6,-0x330(%rbp)
    8750:	52 81 d2 
    8753:	c7 85 d4 fc ff ff fd 	movl   $0xfffffffd,-0x32c(%rbp)
    875a:	ff ff ff 
    875d:	c7 85 d8 fc ff ff e6 	movl   $0xd28152e6,-0x328(%rbp)
    8764:	52 81 d2 
    8767:	c7 85 dc fc ff ff fd 	movl   $0xfffffffd,-0x324(%rbp)
    876e:	ff ff ff 
    8771:	c7 85 e0 fc ff ff e6 	movl   $0xd28152e6,-0x320(%rbp)
    8778:	52 81 d2 
    877b:	c7 05 c5 bd 00 00 00 	movl   $0x0,0xbdc5(%rip)        # 1454a <g_282+0xa>
    8782:	00 00 00 
    8785:	eb 73                	jmp    87fa <func_44+0x7ae>
    8787:	c7 85 68 fa ff ff 00 	movl   $0x0,-0x598(%rbp)
    878e:	00 00 00 
    8791:	eb 1a                	jmp    87ad <func_44+0x761>
    8793:	8b 85 68 fa ff ff    	mov    -0x598(%rbp),%eax
    8799:	48 98                	cltq   
    879b:	c7 84 85 a4 fb ff ff 	movl   $0xffffffff,-0x45c(%rbp,%rax,4)
    87a2:	ff ff ff ff 
    87a6:	83 85 68 fa ff ff 01 	addl   $0x1,-0x598(%rbp)
    87ad:	83 bd 68 fa ff ff 02 	cmpl   $0x2,-0x598(%rbp)
    87b4:	7e dd                	jle    8793 <func_44+0x747>
    87b6:	0f b6 85 4a fa ff ff 	movzbl -0x5b6(%rbp),%eax
    87bd:	0f be c0             	movsbl %al,%eax
    87c0:	89 85 ac fb ff ff    	mov    %eax,-0x454(%rbp)
    87c6:	48 8b 05 03 ea 00 00 	mov    0xea03(%rip),%rax        # 171d0 <g_351>
    87cd:	48 8b 0d fc e9 00 00 	mov    0xe9fc(%rip),%rcx        # 171d0 <g_351>
    87d4:	48 8b 50 08          	mov    0x8(%rax),%rdx
    87d8:	48 8b 00             	mov    (%rax),%rax
    87db:	48 89 01             	mov    %rax,(%rcx)
    87de:	48 89 51 08          	mov    %rdx,0x8(%rcx)
    87e2:	83 bd 3c fa ff ff 00 	cmpl   $0x0,-0x5c4(%rbp)
    87e9:	75 1c                	jne    8807 <func_44+0x7bb>
    87eb:	8b 05 59 bd 00 00    	mov    0xbd59(%rip),%eax        # 1454a <g_282+0xa>
    87f1:	83 c0 01             	add    $0x1,%eax
    87f4:	89 05 50 bd 00 00    	mov    %eax,0xbd50(%rip)        # 1454a <g_282+0xa>
    87fa:	8b 05 4a bd 00 00    	mov    0xbd4a(%rip),%eax        # 1454a <g_282+0xa>
    8800:	83 f8 34             	cmp    $0x34,%eax
    8803:	74 82                	je     8787 <func_44+0x73b>
    8805:	eb 01                	jmp    8808 <func_44+0x7bc>
    8807:	90                   	nop
    8808:	48 8b 85 08 fb ff ff 	mov    -0x4f8(%rbp),%rax
    880f:	48 89 85 a0 fc ff ff 	mov    %rax,-0x360(%rbp)
    8816:	8b 85 dc fc ff ff    	mov    -0x324(%rbp),%eax
    881c:	48 63 d0             	movslq %eax,%rdx
    881f:	48 8b 05 4a ed 00 00 	mov    0xed4a(%rip),%rax        # 17570 <g_909>
    8826:	48 8b 00             	mov    (%rax),%rax
    8829:	48 8b 00             	mov    (%rax),%rax
    882c:	8b 00                	mov    (%rax),%eax
    882e:	48 8b 1d 4b ed 00 00 	mov    0xed4b(%rip),%rbx        # 17580 <g_922>
    8835:	48 8b 8d 98 fa ff ff 	mov    -0x568(%rbp),%rcx
    883c:	48 8d 35 61 bc 00 00 	lea    0xbc61(%rip),%rsi        # 144a4 <g_151>
    8843:	89 c7                	mov    %eax,%edi
    8845:	e8 ca 08 00 00       	callq  9114 <func_49>
    884a:	48 89 03             	mov    %rax,(%rbx)
    884d:	48 8b 05 4c ea 00 00 	mov    0xea4c(%rip),%rax        # 172a0 <g_411>
    8854:	48 8b 95 a0 fa ff ff 	mov    -0x560(%rbp),%rdx
    885b:	48 89 10             	mov    %rdx,(%rax)
    885e:	48 8b 05 5b ea 00 00 	mov    0xea5b(%rip),%rax        # 172c0 <g_468>
    8865:	48 8b 00             	mov    (%rax),%rax
    8868:	48 8b 00             	mov    (%rax),%rax
    886b:	48 8b 50 08          	mov    0x8(%rax),%rdx
    886f:	48 8b 00             	mov    (%rax),%rax
    8872:	48 89 05 f7 c8 00 00 	mov    %rax,0xc8f7(%rip)        # 15170 <g_1057>
    8879:	48 89 15 f8 c8 00 00 	mov    %rdx,0xc8f8(%rip)        # 15178 <g_1057+0x8>
    8880:	48 8b 05 01 ed 00 00 	mov    0xed01(%rip),%rax        # 17588 <g_1059>
    8887:	48 8b 95 18 fb ff ff 	mov    -0x4e8(%rbp),%rdx
    888e:	48 89 10             	mov    %rdx,(%rax)
    8891:	66 c7 05 08 bc 00 00 	movw   $0x0,0xbc08(%rip)        # 144a2 <g_146>
    8898:	00 00 
    889a:	e9 98 07 00 00       	jmpq   9037 <func_44+0xfeb>
    889f:	48 8d 05 02 e9 00 00 	lea    0xe902(%rip),%rax        # 171a8 <g_106>
    88a6:	48 89 85 60 fb ff ff 	mov    %rax,-0x4a0(%rbp)
    88ad:	48 c7 85 68 fb ff ff 	movq   $0x0,-0x498(%rbp)
    88b4:	00 00 00 00 
    88b8:	48 8d 05 c1 c3 00 00 	lea    0xc3c1(%rip),%rax        # 14c80 <g_1042>
    88bf:	48 89 85 90 fa ff ff 	mov    %rax,-0x570(%rbp)
    88c6:	48 8d 85 90 fa ff ff 	lea    -0x570(%rbp),%rax
    88cd:	48 89 85 c0 fc ff ff 	mov    %rax,-0x340(%rbp)
    88d4:	48 8d 85 90 fa ff ff 	lea    -0x570(%rbp),%rax
    88db:	48 89 85 c8 fc ff ff 	mov    %rax,-0x338(%rbp)
    88e2:	48 8d 85 90 fa ff ff 	lea    -0x570(%rbp),%rax
    88e9:	48 89 85 d0 fc ff ff 	mov    %rax,-0x330(%rbp)
    88f0:	48 8d 85 90 fa ff ff 	lea    -0x570(%rbp),%rax
    88f7:	48 89 85 d8 fc ff ff 	mov    %rax,-0x328(%rbp)
    88fe:	48 8d 85 90 fa ff ff 	lea    -0x570(%rbp),%rax
    8905:	48 89 85 e0 fc ff ff 	mov    %rax,-0x320(%rbp)
    890c:	48 8d 85 90 fa ff ff 	lea    -0x570(%rbp),%rax
    8913:	48 89 85 e8 fc ff ff 	mov    %rax,-0x318(%rbp)
    891a:	48 8d 85 90 fa ff ff 	lea    -0x570(%rbp),%rax
    8921:	48 89 85 f0 fc ff ff 	mov    %rax,-0x310(%rbp)
    8928:	48 8d 85 90 fa ff ff 	lea    -0x570(%rbp),%rax
    892f:	48 89 85 f8 fc ff ff 	mov    %rax,-0x308(%rbp)
    8936:	48 8d 85 90 fa ff ff 	lea    -0x570(%rbp),%rax
    893d:	48 89 85 00 fd ff ff 	mov    %rax,-0x300(%rbp)
    8944:	48 8d 85 90 fa ff ff 	lea    -0x570(%rbp),%rax
    894b:	48 89 85 08 fd ff ff 	mov    %rax,-0x2f8(%rbp)
    8952:	48 8d 85 90 fa ff ff 	lea    -0x570(%rbp),%rax
    8959:	48 89 85 10 fd ff ff 	mov    %rax,-0x2f0(%rbp)
    8960:	48 8d 85 90 fa ff ff 	lea    -0x570(%rbp),%rax
    8967:	48 89 85 18 fd ff ff 	mov    %rax,-0x2e8(%rbp)
    896e:	48 8d 85 90 fa ff ff 	lea    -0x570(%rbp),%rax
    8975:	48 89 85 20 fd ff ff 	mov    %rax,-0x2e0(%rbp)
    897c:	48 8d 85 90 fa ff ff 	lea    -0x570(%rbp),%rax
    8983:	48 89 85 28 fd ff ff 	mov    %rax,-0x2d8(%rbp)
    898a:	48 8d 85 90 fa ff ff 	lea    -0x570(%rbp),%rax
    8991:	48 89 85 30 fd ff ff 	mov    %rax,-0x2d0(%rbp)
    8998:	48 8d 85 90 fa ff ff 	lea    -0x570(%rbp),%rax
    899f:	48 89 85 38 fd ff ff 	mov    %rax,-0x2c8(%rbp)
    89a6:	48 8d 85 90 fa ff ff 	lea    -0x570(%rbp),%rax
    89ad:	48 89 85 40 fd ff ff 	mov    %rax,-0x2c0(%rbp)
    89b4:	48 8d 85 90 fa ff ff 	lea    -0x570(%rbp),%rax
    89bb:	48 89 85 48 fd ff ff 	mov    %rax,-0x2b8(%rbp)
    89c2:	48 8d 85 90 fa ff ff 	lea    -0x570(%rbp),%rax
    89c9:	48 89 85 50 fd ff ff 	mov    %rax,-0x2b0(%rbp)
    89d0:	48 8d 85 90 fa ff ff 	lea    -0x570(%rbp),%rax
    89d7:	48 89 85 58 fd ff ff 	mov    %rax,-0x2a8(%rbp)
    89de:	48 8d 85 90 fa ff ff 	lea    -0x570(%rbp),%rax
    89e5:	48 89 85 60 fd ff ff 	mov    %rax,-0x2a0(%rbp)
    89ec:	48 8d 85 90 fa ff ff 	lea    -0x570(%rbp),%rax
    89f3:	48 89 85 68 fd ff ff 	mov    %rax,-0x298(%rbp)
    89fa:	48 8d 85 90 fa ff ff 	lea    -0x570(%rbp),%rax
    8a01:	48 89 85 70 fd ff ff 	mov    %rax,-0x290(%rbp)
    8a08:	48 8d 85 90 fa ff ff 	lea    -0x570(%rbp),%rax
    8a0f:	48 89 85 78 fd ff ff 	mov    %rax,-0x288(%rbp)
    8a16:	48 8d 85 90 fa ff ff 	lea    -0x570(%rbp),%rax
    8a1d:	48 89 85 80 fd ff ff 	mov    %rax,-0x280(%rbp)
    8a24:	48 8d 85 90 fa ff ff 	lea    -0x570(%rbp),%rax
    8a2b:	48 89 85 88 fd ff ff 	mov    %rax,-0x278(%rbp)
    8a32:	48 8d 85 90 fa ff ff 	lea    -0x570(%rbp),%rax
    8a39:	48 89 85 90 fd ff ff 	mov    %rax,-0x270(%rbp)
    8a40:	48 8d 85 90 fa ff ff 	lea    -0x570(%rbp),%rax
    8a47:	48 89 85 98 fd ff ff 	mov    %rax,-0x268(%rbp)
    8a4e:	48 8d 85 90 fa ff ff 	lea    -0x570(%rbp),%rax
    8a55:	48 89 85 a0 fd ff ff 	mov    %rax,-0x260(%rbp)
    8a5c:	48 8d 85 90 fa ff ff 	lea    -0x570(%rbp),%rax
    8a63:	48 89 85 a8 fd ff ff 	mov    %rax,-0x258(%rbp)
    8a6a:	48 8d 85 90 fa ff ff 	lea    -0x570(%rbp),%rax
    8a71:	48 89 85 b0 fd ff ff 	mov    %rax,-0x250(%rbp)
    8a78:	48 8d 85 90 fa ff ff 	lea    -0x570(%rbp),%rax
    8a7f:	48 89 85 b8 fd ff ff 	mov    %rax,-0x248(%rbp)
    8a86:	48 8d 85 90 fa ff ff 	lea    -0x570(%rbp),%rax
    8a8d:	48 89 85 c0 fd ff ff 	mov    %rax,-0x240(%rbp)
    8a94:	48 8d 85 90 fa ff ff 	lea    -0x570(%rbp),%rax
    8a9b:	48 89 85 c8 fd ff ff 	mov    %rax,-0x238(%rbp)
    8aa2:	48 8d 85 90 fa ff ff 	lea    -0x570(%rbp),%rax
    8aa9:	48 89 85 d0 fd ff ff 	mov    %rax,-0x230(%rbp)
    8ab0:	48 8d 85 90 fa ff ff 	lea    -0x570(%rbp),%rax
    8ab7:	48 89 85 d8 fd ff ff 	mov    %rax,-0x228(%rbp)
    8abe:	48 8d 85 90 fa ff ff 	lea    -0x570(%rbp),%rax
    8ac5:	48 89 85 e0 fd ff ff 	mov    %rax,-0x220(%rbp)
    8acc:	48 8d 85 90 fa ff ff 	lea    -0x570(%rbp),%rax
    8ad3:	48 89 85 e8 fd ff ff 	mov    %rax,-0x218(%rbp)
    8ada:	48 8d 85 90 fa ff ff 	lea    -0x570(%rbp),%rax
    8ae1:	48 89 85 f0 fd ff ff 	mov    %rax,-0x210(%rbp)
    8ae8:	48 8d 85 90 fa ff ff 	lea    -0x570(%rbp),%rax
    8aef:	48 89 85 f8 fd ff ff 	mov    %rax,-0x208(%rbp)
    8af6:	48 8d 85 90 fa ff ff 	lea    -0x570(%rbp),%rax
    8afd:	48 89 85 00 fe ff ff 	mov    %rax,-0x200(%rbp)
    8b04:	48 8d 85 90 fa ff ff 	lea    -0x570(%rbp),%rax
    8b0b:	48 89 85 08 fe ff ff 	mov    %rax,-0x1f8(%rbp)
    8b12:	48 8d 85 90 fa ff ff 	lea    -0x570(%rbp),%rax
    8b19:	48 89 85 10 fe ff ff 	mov    %rax,-0x1f0(%rbp)
    8b20:	48 8d 85 90 fa ff ff 	lea    -0x570(%rbp),%rax
    8b27:	48 89 85 18 fe ff ff 	mov    %rax,-0x1e8(%rbp)
    8b2e:	48 8d 85 90 fa ff ff 	lea    -0x570(%rbp),%rax
    8b35:	48 89 85 20 fe ff ff 	mov    %rax,-0x1e0(%rbp)
    8b3c:	48 8d 85 90 fa ff ff 	lea    -0x570(%rbp),%rax
    8b43:	48 89 85 28 fe ff ff 	mov    %rax,-0x1d8(%rbp)
    8b4a:	48 8d 85 90 fa ff ff 	lea    -0x570(%rbp),%rax
    8b51:	48 89 85 30 fe ff ff 	mov    %rax,-0x1d0(%rbp)
    8b58:	48 8d 85 90 fa ff ff 	lea    -0x570(%rbp),%rax
    8b5f:	48 89 85 38 fe ff ff 	mov    %rax,-0x1c8(%rbp)
    8b66:	48 8d 85 90 fa ff ff 	lea    -0x570(%rbp),%rax
    8b6d:	48 89 85 40 fe ff ff 	mov    %rax,-0x1c0(%rbp)
    8b74:	48 8d 85 90 fa ff ff 	lea    -0x570(%rbp),%rax
    8b7b:	48 89 85 48 fe ff ff 	mov    %rax,-0x1b8(%rbp)
    8b82:	48 8d 85 90 fa ff ff 	lea    -0x570(%rbp),%rax
    8b89:	48 89 85 50 fe ff ff 	mov    %rax,-0x1b0(%rbp)
    8b90:	48 8d 85 90 fa ff ff 	lea    -0x570(%rbp),%rax
    8b97:	48 89 85 58 fe ff ff 	mov    %rax,-0x1a8(%rbp)
    8b9e:	48 8d 85 90 fa ff ff 	lea    -0x570(%rbp),%rax
    8ba5:	48 89 85 60 fe ff ff 	mov    %rax,-0x1a0(%rbp)
    8bac:	48 8d 85 90 fa ff ff 	lea    -0x570(%rbp),%rax
    8bb3:	48 89 85 68 fe ff ff 	mov    %rax,-0x198(%rbp)
    8bba:	48 8d 85 90 fa ff ff 	lea    -0x570(%rbp),%rax
    8bc1:	48 89 85 70 fe ff ff 	mov    %rax,-0x190(%rbp)
    8bc8:	48 8d 85 90 fa ff ff 	lea    -0x570(%rbp),%rax
    8bcf:	48 89 85 78 fe ff ff 	mov    %rax,-0x188(%rbp)
    8bd6:	48 8d 85 90 fa ff ff 	lea    -0x570(%rbp),%rax
    8bdd:	48 89 85 80 fe ff ff 	mov    %rax,-0x180(%rbp)
    8be4:	48 8d 85 90 fa ff ff 	lea    -0x570(%rbp),%rax
    8beb:	48 89 85 88 fe ff ff 	mov    %rax,-0x178(%rbp)
    8bf2:	48 8d 85 90 fa ff ff 	lea    -0x570(%rbp),%rax
    8bf9:	48 89 85 90 fe ff ff 	mov    %rax,-0x170(%rbp)
    8c00:	48 8d 85 90 fa ff ff 	lea    -0x570(%rbp),%rax
    8c07:	48 89 85 98 fe ff ff 	mov    %rax,-0x168(%rbp)
    8c0e:	48 8d 85 90 fa ff ff 	lea    -0x570(%rbp),%rax
    8c15:	48 89 85 a0 fe ff ff 	mov    %rax,-0x160(%rbp)
    8c1c:	48 8d 85 90 fa ff ff 	lea    -0x570(%rbp),%rax
    8c23:	48 89 85 a8 fe ff ff 	mov    %rax,-0x158(%rbp)
    8c2a:	48 8d 85 90 fa ff ff 	lea    -0x570(%rbp),%rax
    8c31:	48 89 85 b0 fe ff ff 	mov    %rax,-0x150(%rbp)
    8c38:	48 8d 85 90 fa ff ff 	lea    -0x570(%rbp),%rax
    8c3f:	48 89 85 b8 fe ff ff 	mov    %rax,-0x148(%rbp)
    8c46:	48 8d 85 90 fa ff ff 	lea    -0x570(%rbp),%rax
    8c4d:	48 89 85 c0 fe ff ff 	mov    %rax,-0x140(%rbp)
    8c54:	48 8d 85 90 fa ff ff 	lea    -0x570(%rbp),%rax
    8c5b:	48 89 85 c8 fe ff ff 	mov    %rax,-0x138(%rbp)
    8c62:	48 8d 85 90 fa ff ff 	lea    -0x570(%rbp),%rax
    8c69:	48 89 85 d0 fe ff ff 	mov    %rax,-0x130(%rbp)
    8c70:	48 8d 85 90 fa ff ff 	lea    -0x570(%rbp),%rax
    8c77:	48 89 85 d8 fe ff ff 	mov    %rax,-0x128(%rbp)
    8c7e:	48 8d 85 90 fa ff ff 	lea    -0x570(%rbp),%rax
    8c85:	48 89 85 e0 fe ff ff 	mov    %rax,-0x120(%rbp)
    8c8c:	48 8d 85 90 fa ff ff 	lea    -0x570(%rbp),%rax
    8c93:	48 89 85 e8 fe ff ff 	mov    %rax,-0x118(%rbp)
    8c9a:	48 8d 85 90 fa ff ff 	lea    -0x570(%rbp),%rax
    8ca1:	48 89 85 f0 fe ff ff 	mov    %rax,-0x110(%rbp)
    8ca8:	48 8d 85 90 fa ff ff 	lea    -0x570(%rbp),%rax
    8caf:	48 89 85 f8 fe ff ff 	mov    %rax,-0x108(%rbp)
    8cb6:	48 8d 85 90 fa ff ff 	lea    -0x570(%rbp),%rax
    8cbd:	48 89 85 00 ff ff ff 	mov    %rax,-0x100(%rbp)
    8cc4:	48 8d 85 90 fa ff ff 	lea    -0x570(%rbp),%rax
    8ccb:	48 89 85 08 ff ff ff 	mov    %rax,-0xf8(%rbp)
    8cd2:	48 8d 85 90 fa ff ff 	lea    -0x570(%rbp),%rax
    8cd9:	48 89 85 10 ff ff ff 	mov    %rax,-0xf0(%rbp)
    8ce0:	48 8d 85 90 fa ff ff 	lea    -0x570(%rbp),%rax
    8ce7:	48 89 85 18 ff ff ff 	mov    %rax,-0xe8(%rbp)
    8cee:	48 8d 85 90 fa ff ff 	lea    -0x570(%rbp),%rax
    8cf5:	48 89 85 20 ff ff ff 	mov    %rax,-0xe0(%rbp)
    8cfc:	48 8d 85 90 fa ff ff 	lea    -0x570(%rbp),%rax
    8d03:	48 89 85 28 ff ff ff 	mov    %rax,-0xd8(%rbp)
    8d0a:	48 8d 85 90 fa ff ff 	lea    -0x570(%rbp),%rax
    8d11:	48 89 85 30 ff ff ff 	mov    %rax,-0xd0(%rbp)
    8d18:	48 8d 85 90 fa ff ff 	lea    -0x570(%rbp),%rax
    8d1f:	48 89 85 38 ff ff ff 	mov    %rax,-0xc8(%rbp)
    8d26:	48 8d 85 90 fa ff ff 	lea    -0x570(%rbp),%rax
    8d2d:	48 89 85 40 ff ff ff 	mov    %rax,-0xc0(%rbp)
    8d34:	48 8d 85 90 fa ff ff 	lea    -0x570(%rbp),%rax
    8d3b:	48 89 85 48 ff ff ff 	mov    %rax,-0xb8(%rbp)
    8d42:	48 8d 85 90 fa ff ff 	lea    -0x570(%rbp),%rax
    8d49:	48 89 85 50 ff ff ff 	mov    %rax,-0xb0(%rbp)
    8d50:	48 8d 85 90 fa ff ff 	lea    -0x570(%rbp),%rax
    8d57:	48 89 85 58 ff ff ff 	mov    %rax,-0xa8(%rbp)
    8d5e:	48 c7 85 60 ff ff ff 	movq   $0x0,-0xa0(%rbp)
    8d65:	00 00 00 00 
    8d69:	48 8d 85 90 fa ff ff 	lea    -0x570(%rbp),%rax
    8d70:	48 89 85 68 ff ff ff 	mov    %rax,-0x98(%rbp)
    8d77:	48 8d 85 90 fa ff ff 	lea    -0x570(%rbp),%rax
    8d7e:	48 89 85 70 ff ff ff 	mov    %rax,-0x90(%rbp)
    8d85:	48 8d 85 90 fa ff ff 	lea    -0x570(%rbp),%rax
    8d8c:	48 89 85 78 ff ff ff 	mov    %rax,-0x88(%rbp)
    8d93:	48 8d 85 90 fa ff ff 	lea    -0x570(%rbp),%rax
    8d9a:	48 89 45 80          	mov    %rax,-0x80(%rbp)
    8d9e:	48 8d 85 90 fa ff ff 	lea    -0x570(%rbp),%rax
    8da5:	48 89 45 88          	mov    %rax,-0x78(%rbp)
    8da9:	48 c7 45 90 00 00 00 	movq   $0x0,-0x70(%rbp)
    8db0:	00 
    8db1:	48 8d 85 90 fa ff ff 	lea    -0x570(%rbp),%rax
    8db8:	48 89 45 98          	mov    %rax,-0x68(%rbp)
    8dbc:	48 8d 85 90 fa ff ff 	lea    -0x570(%rbp),%rax
    8dc3:	48 89 45 a0          	mov    %rax,-0x60(%rbp)
    8dc7:	48 8d 85 90 fa ff ff 	lea    -0x570(%rbp),%rax
    8dce:	48 89 45 a8          	mov    %rax,-0x58(%rbp)
    8dd2:	48 8d 85 90 fa ff ff 	lea    -0x570(%rbp),%rax
    8dd9:	48 89 45 b0          	mov    %rax,-0x50(%rbp)
    8ddd:	48 8d 85 90 fa ff ff 	lea    -0x570(%rbp),%rax
    8de4:	48 89 45 b8          	mov    %rax,-0x48(%rbp)
    8de8:	48 8d 85 90 fa ff ff 	lea    -0x570(%rbp),%rax
    8def:	48 89 45 c0          	mov    %rax,-0x40(%rbp)
    8df3:	48 8d 85 90 fa ff ff 	lea    -0x570(%rbp),%rax
    8dfa:	48 89 45 c8          	mov    %rax,-0x38(%rbp)
    8dfe:	48 8d 85 90 fa ff ff 	lea    -0x570(%rbp),%rax
    8e05:	48 89 45 d0          	mov    %rax,-0x30(%rbp)
    8e09:	48 8d 85 90 fa ff ff 	lea    -0x570(%rbp),%rax
    8e10:	48 89 45 d8          	mov    %rax,-0x28(%rbp)
    8e14:	48 8d 85 c0 fc ff ff 	lea    -0x340(%rbp),%rax
    8e1b:	48 05 d8 00 00 00    	add    $0xd8,%rax
    8e21:	48 89 85 70 fb ff ff 	mov    %rax,-0x490(%rbp)
    8e28:	48 8d 05 9b b4 00 00 	lea    0xb49b(%rip),%rax        # 142ca <g_93+0x2a>
    8e2f:	48 89 85 78 fb ff ff 	mov    %rax,-0x488(%rbp)
    8e36:	c7 85 74 fa ff ff 01 	movl   $0x1,-0x58c(%rbp)
    8e3d:	00 00 00 
    8e40:	48 8b 85 60 fb ff ff 	mov    -0x4a0(%rbp),%rax
    8e47:	48 8d 95 30 fa ff ff 	lea    -0x5d0(%rbp),%rdx
    8e4e:	48 89 10             	mov    %rdx,(%rax)
    8e51:	48 8b 85 60 fb ff ff 	mov    -0x4a0(%rbp),%rax
    8e58:	48 8b 10             	mov    (%rax),%rdx
    8e5b:	48 8b 85 70 fb ff ff 	mov    -0x490(%rbp),%rax
    8e62:	48 8d 0d 37 e3 00 00 	lea    0xe337(%rip),%rcx        # 171a0 <g_107>
    8e69:	48 89 08             	mov    %rcx,(%rax)
    8e6c:	48 8b 85 70 fb ff ff 	mov    -0x490(%rbp),%rax
    8e73:	48 8b 00             	mov    (%rax),%rax
    8e76:	48 39 c2             	cmp    %rax,%rdx
    8e79:	0f 94 c0             	sete   %al
    8e7c:	0f b6 d0             	movzbl %al,%edx
    8e7f:	48 8b 85 78 fb ff ff 	mov    -0x488(%rbp),%rax
    8e86:	66 89 10             	mov    %dx,(%rax)
    8e89:	0f b7 95 50 fa ff ff 	movzwl -0x5b0(%rbp),%edx
    8e90:	83 bd 74 fa ff ff 00 	cmpl   $0x0,-0x58c(%rbp)
    8e97:	0f 95 c0             	setne  %al
    8e9a:	0f b6 c0             	movzbl %al,%eax
    8e9d:	39 85 74 fa ff ff    	cmp    %eax,-0x58c(%rbp)
    8ea3:	0f 9d c0             	setge  %al
    8ea6:	0f b6 c0             	movzbl %al,%eax
    8ea9:	89 d6                	mov    %edx,%esi
    8eab:	89 c7                	mov    %eax,%edi
    8ead:	e8 1e c0 ff ff       	callq  4ed0 <safe_sub_func_uint32_t_u_u>
    8eb2:	89 c2                	mov    %eax,%edx
    8eb4:	8b 85 3c fa ff ff    	mov    -0x5c4(%rbp),%eax
    8eba:	89 c6                	mov    %eax,%esi
    8ebc:	89 d7                	mov    %edx,%edi
    8ebe:	e8 3c b8 ff ff       	callq  46ff <safe_div_func_int32_t_s_s>
    8ec3:	0f be d0             	movsbl %al,%edx
    8ec6:	8b 05 00 bc 00 00    	mov    0xbc00(%rip),%eax        # 14acc <g_758+0xc>
    8ecc:	0f be c0             	movsbl %al,%eax
    8ecf:	89 d6                	mov    %edx,%esi
    8ed1:	89 c7                	mov    %eax,%edi
    8ed3:	e8 fc b2 ff ff       	callq  41d4 <safe_add_func_int8_t_s_s>
    8ed8:	48 8b 85 a0 fa ff ff 	mov    -0x560(%rbp),%rax
    8edf:	8b 00                	mov    (%rax),%eax
    8ee1:	3d a7 d1 00 00       	cmp    $0xd1a7,%eax
    8ee6:	74 09                	je     8ef1 <func_44+0xea5>
    8ee8:	83 bd 3c fa ff ff 00 	cmpl   $0x0,-0x5c4(%rbp)
    8eef:	74 07                	je     8ef8 <func_44+0xeac>
    8ef1:	ba 01 00 00 00       	mov    $0x1,%edx
    8ef6:	eb 05                	jmp    8efd <func_44+0xeb1>
    8ef8:	ba 00 00 00 00       	mov    $0x0,%edx
    8efd:	48 8b 85 a0 fa ff ff 	mov    -0x560(%rbp),%rax
    8f04:	8b 00                	mov    (%rax),%eax
    8f06:	39 c2                	cmp    %eax,%edx
    8f08:	48 8b 85 a8 fa ff ff 	mov    -0x558(%rbp),%rax
    8f0f:	48 3b 85 10 fb ff ff 	cmp    -0x4f0(%rbp),%rax
    8f16:	0f 95 c0             	setne  %al
    8f19:	0f b6 d0             	movzbl %al,%edx
    8f1c:	8b 85 3c fa ff ff    	mov    -0x5c4(%rbp),%eax
    8f22:	98                   	cwtl   
    8f23:	89 d6                	mov    %edx,%esi
    8f25:	89 c7                	mov    %eax,%edi
    8f27:	e8 c9 b4 ff ff       	callq  43f5 <safe_mul_func_int16_t_s_s>
    8f2c:	0f bf d0             	movswl %ax,%edx
    8f2f:	0f b7 05 52 b6 00 00 	movzwl 0xb652(%rip),%eax        # 14588 <g_296+0x8>
    8f36:	0f b7 c0             	movzwl %ax,%eax
    8f39:	39 c2                	cmp    %eax,%edx
    8f3b:	0f 94 c2             	sete   %dl
    8f3e:	48 8b 05 33 e6 00 00 	mov    0xe633(%rip),%rax        # 17578 <g_916>
    8f45:	0f b6 d2             	movzbl %dl,%edx
    8f48:	89 10                	mov    %edx,(%rax)
    8f4a:	8b 00                	mov    (%rax),%eax
    8f4c:	89 85 74 fa ff ff    	mov    %eax,-0x58c(%rbp)
    8f52:	48 8b 85 a0 fa ff ff 	mov    -0x560(%rbp),%rax
    8f59:	8b 95 74 fa ff ff    	mov    -0x58c(%rbp),%edx
    8f5f:	89 10                	mov    %edx,(%rax)
    8f61:	48 8b 0d 68 e2 00 00 	mov    0xe268(%rip),%rcx        # 171d0 <g_351>
    8f68:	48 8b 05 f1 c1 00 00 	mov    0xc1f1(%rip),%rax        # 15160 <g_1055>
    8f6f:	48 8b 15 f2 c1 00 00 	mov    0xc1f2(%rip),%rdx        # 15168 <g_1055+0x8>
    8f76:	48 89 01             	mov    %rax,(%rcx)
    8f79:	48 89 51 08          	mov    %rdx,0x8(%rcx)
    8f7d:	48 8b 05 fc e5 00 00 	mov    0xe5fc(%rip),%rax        # 17580 <g_922>
    8f84:	48 8b 95 a0 fa ff ff 	mov    -0x560(%rbp),%rdx
    8f8b:	48 89 10             	mov    %rdx,(%rax)
    8f8e:	48 8b 85 50 fb ff ff 	mov    -0x4b0(%rbp),%rax
    8f95:	e9 c8 00 00 00       	jmpq   9062 <func_44+0x1016>
    8f9a:	48 8d 05 82 f3 00 00 	lea    0xf382(%rip),%rax        # 18323 <g_502+0x3>
    8fa1:	48 89 85 80 fb ff ff 	mov    %rax,-0x480(%rbp)
    8fa8:	c7 85 5c fa ff ff 03 	movl   $0x3,-0x5a4(%rbp)
    8faf:	00 00 00 
    8fb2:	83 bd 5c fa ff ff 08 	cmpl   $0x8,-0x5a4(%rbp)
    8fb9:	77 1a                	ja     8fd5 <func_44+0xf89>
    8fbb:	48 8d 05 d8 b5 00 00 	lea    0xb5d8(%rip),%rax        # 1459a <g_296+0x1a>
    8fc2:	48 89 85 88 fb ff ff 	mov    %rax,-0x478(%rbp)
    8fc9:	48 8b 85 88 fb ff ff 	mov    -0x478(%rbp),%rax
    8fd0:	e9 8d 00 00 00       	jmpq   9062 <func_44+0x1016>
    8fd5:	48 8b 85 50 fb ff ff 	mov    -0x4b0(%rbp),%rax
    8fdc:	8b 00                	mov    (%rax),%eax
    8fde:	85 c0                	test   %eax,%eax
    8fe0:	75 43                	jne    9025 <func_44+0xfd9>
    8fe2:	48 8b 85 58 fb ff ff 	mov    -0x4a8(%rbp),%rax
    8fe9:	48 89 85 80 fb ff ff 	mov    %rax,-0x480(%rbp)
    8ff0:	48 8d 85 4a fa ff ff 	lea    -0x5b6(%rbp),%rax
    8ff7:	48 39 85 80 fb ff ff 	cmp    %rax,-0x480(%rbp)
    8ffe:	0f 94 c0             	sete   %al
    9001:	0f b6 d0             	movzbl %al,%edx
    9004:	48 8b 85 30 fa ff ff 	mov    -0x5d0(%rbp),%rax
    900b:	48 8b 00             	mov    (%rax),%rax
    900e:	09 d0                	or     %edx,%eax
    9010:	89 85 58 fa ff ff    	mov    %eax,-0x5a8(%rbp)
    9016:	48 8b 85 50 fb ff ff 	mov    -0x4b0(%rbp),%rax
    901d:	c7 00 ff ff ff ff    	movl   $0xffffffff,(%rax)
    9023:	eb 01                	jmp    9026 <func_44+0xfda>
    9025:	90                   	nop
    9026:	0f b7 05 75 b4 00 00 	movzwl 0xb475(%rip),%eax        # 144a2 <g_146>
    902d:	83 c0 01             	add    $0x1,%eax
    9030:	66 89 05 6b b4 00 00 	mov    %ax,0xb46b(%rip)        # 144a2 <g_146>
    9037:	0f b7 05 64 b4 00 00 	movzwl 0xb464(%rip),%eax        # 144a2 <g_146>
    903e:	66 85 c0             	test   %ax,%ax
    9041:	0f 84 53 ff ff ff    	je     8f9a <func_44+0xf4e>
    9047:	83 85 3c fa ff ff 01 	addl   $0x1,-0x5c4(%rbp)
    904e:	83 bd 3c fa ff ff 15 	cmpl   $0x15,-0x5c4(%rbp)
    9055:	0f 85 6f f2 ff ff    	jne    82ca <func_44+0x27e>
    905b:	48 8b 85 e8 fa ff ff 	mov    -0x518(%rbp),%rax
    9062:	48 8b 5d e8          	mov    -0x18(%rbp),%rbx
    9066:	64 48 33 1c 25 28 00 	xor    %fs:0x28,%rbx
    906d:	00 00 
    906f:	74 05                	je     9076 <func_44+0x102a>
    9071:	e8 fa af ff ff       	callq  4070 <__stack_chk_fail@plt>
    9076:	48 81 c4 c8 05 00 00 	add    $0x5c8,%rsp
    907d:	5b                   	pop    %rbx
    907e:	5d                   	pop    %rbp
    907f:	c3                   	retq   

0000000000009080 <func_47>:
    9080:	f3 0f 1e fa          	endbr64 
    9084:	55                   	push   %rbp
    9085:	48 89 e5             	mov    %rsp,%rbp
    9088:	48 83 ec 60          	sub    $0x60,%rsp
    908c:	48 89 7d a8          	mov    %rdi,-0x58(%rbp)
    9090:	64 48 8b 04 25 28 00 	mov    %fs:0x28,%rax
    9097:	00 00 
    9099:	48 89 45 f8          	mov    %rax,-0x8(%rbp)
    909d:	31 c0                	xor    %eax,%eax
    909f:	48 8d 05 f4 b4 00 00 	lea    0xb4f4(%rip),%rax        # 1459a <g_296+0x1a>
    90a6:	48 89 45 b8          	mov    %rax,-0x48(%rbp)
    90aa:	48 8d 05 8f b4 00 00 	lea    0xb48f(%rip),%rax        # 14540 <g_282>
    90b1:	48 89 45 c0          	mov    %rax,-0x40(%rbp)
    90b5:	48 8d 05 9e b4 00 00 	lea    0xb49e(%rip),%rax        # 1455a <g_282+0x1a>
    90bc:	48 89 45 d0          	mov    %rax,-0x30(%rbp)
    90c0:	48 8d 05 93 b4 00 00 	lea    0xb493(%rip),%rax        # 1455a <g_282+0x1a>
    90c7:	48 89 45 d8          	mov    %rax,-0x28(%rbp)
    90cb:	48 8d 05 88 b4 00 00 	lea    0xb488(%rip),%rax        # 1455a <g_282+0x1a>
    90d2:	48 89 45 e0          	mov    %rax,-0x20(%rbp)
    90d6:	48 8d 05 7d b4 00 00 	lea    0xb47d(%rip),%rax        # 1455a <g_282+0x1a>
    90dd:	48 89 45 e8          	mov    %rax,-0x18(%rbp)
    90e1:	c6 45 b7 ff          	movb   $0xff,-0x49(%rbp)
    90e5:	48 8d 05 34 b9 00 00 	lea    0xb934(%rip),%rax        # 14a20 <g_574+0x20>
    90ec:	48 89 45 c8          	mov    %rax,-0x38(%rbp)
    90f0:	0f b6 45 b7          	movzbl -0x49(%rbp),%eax
    90f4:	83 c0 01             	add    $0x1,%eax
    90f7:	88 45 b7             	mov    %al,-0x49(%rbp)
    90fa:	48 8b 45 c8          	mov    -0x38(%rbp),%rax
    90fe:	48 8b 55 f8          	mov    -0x8(%rbp),%rdx
    9102:	64 48 33 14 25 28 00 	xor    %fs:0x28,%rdx
    9109:	00 00 
    910b:	74 05                	je     9112 <func_47+0x92>
    910d:	e8 5e af ff ff       	callq  4070 <__stack_chk_fail@plt>
    9112:	c9                   	leaveq 
    9113:	c3                   	retq   

0000000000009114 <func_49>:
    9114:	f3 0f 1e fa          	endbr64 
    9118:	55                   	push   %rbp
    9119:	48 89 e5             	mov    %rsp,%rbp
    911c:	48 83 ec 70          	sub    $0x70,%rsp
    9120:	89 7d ac             	mov    %edi,-0x54(%rbp)
    9123:	48 89 75 a0          	mov    %rsi,-0x60(%rbp)
    9127:	48 89 55 98          	mov    %rdx,-0x68(%rbp)
    912b:	48 89 4d 90          	mov    %rcx,-0x70(%rbp)
    912f:	64 48 8b 04 25 28 00 	mov    %fs:0x28,%rax
    9136:	00 00 
    9138:	48 89 45 f8          	mov    %rax,-0x8(%rbp)
    913c:	31 c0                	xor    %eax,%eax
    913e:	48 8d 05 2b bb 00 00 	lea    0xbb2b(%rip),%rax        # 14c70 <g_934>
    9145:	48 89 45 b8          	mov    %rax,-0x48(%rbp)
    9149:	48 8d 05 e0 b7 00 00 	lea    0xb7e0(%rip),%rax        # 14930 <g_476+0xf0>
    9150:	48 89 45 c0          	mov    %rax,-0x40(%rbp)
    9154:	48 8d 05 49 b3 00 00 	lea    0xb349(%rip),%rax        # 144a4 <g_151>
    915b:	48 89 45 c8          	mov    %rax,-0x38(%rbp)
    915f:	c7 45 b4 00 00 00 00 	movl   $0x0,-0x4c(%rbp)
    9166:	eb 12                	jmp    917a <func_49+0x66>
    9168:	8b 45 b4             	mov    -0x4c(%rbp),%eax
    916b:	48 98                	cltq   
    916d:	48 8d 55 b8          	lea    -0x48(%rbp),%rdx
    9171:	48 89 54 c5 d0       	mov    %rdx,-0x30(%rbp,%rax,8)
    9176:	83 45 b4 01          	addl   $0x1,-0x4c(%rbp)
    917a:	83 7d b4 04          	cmpl   $0x4,-0x4c(%rbp)
    917e:	7e e8                	jle    9168 <func_49+0x54>
    9180:	48 c7 45 c0 00 00 00 	movq   $0x0,-0x40(%rbp)
    9187:	00 
    9188:	48 8b 45 c8          	mov    -0x38(%rbp),%rax
    918c:	48 8b 4d f8          	mov    -0x8(%rbp),%rcx
    9190:	64 48 33 0c 25 28 00 	xor    %fs:0x28,%rcx
    9197:	00 00 
    9199:	74 05                	je     91a0 <func_49+0x8c>
    919b:	e8 d0 ae ff ff       	callq  4070 <__stack_chk_fail@plt>
    91a0:	c9                   	leaveq 
    91a1:	c3                   	retq   

00000000000091a2 <func_54>:
    91a2:	f3 0f 1e fa          	endbr64 
    91a6:	55                   	push   %rbp
    91a7:	48 89 e5             	mov    %rsp,%rbp
    91aa:	41 55                	push   %r13
    91ac:	41 54                	push   %r12
    91ae:	53                   	push   %rbx
    91af:	48 81 ec 58 01 00 00 	sub    $0x158,%rsp
    91b6:	48 89 bd a8 fe ff ff 	mov    %rdi,-0x158(%rbp)
    91bd:	48 89 b5 a0 fe ff ff 	mov    %rsi,-0x160(%rbp)
    91c4:	48 89 95 98 fe ff ff 	mov    %rdx,-0x168(%rbp)
    91cb:	48 89 8d 90 fe ff ff 	mov    %rcx,-0x170(%rbp)
    91d2:	64 48 8b 04 25 28 00 	mov    %fs:0x28,%rax
    91d9:	00 00 
    91db:	48 89 45 d8          	mov    %rax,-0x28(%rbp)
    91df:	31 c0                	xor    %eax,%eax
    91e1:	48 8d 05 d8 df 00 00 	lea    0xdfd8(%rip),%rax        # 171c0 <g_336>
    91e8:	48 89 85 c8 fe ff ff 	mov    %rax,-0x138(%rbp)
    91ef:	48 8d 85 c8 fe ff ff 	lea    -0x138(%rbp),%rax
    91f6:	48 89 85 d0 fe ff ff 	mov    %rax,-0x130(%rbp)
    91fd:	48 8d 85 10 ff ff ff 	lea    -0xf0(%rbp),%rax
    9204:	48 83 c0 08          	add    $0x8,%rax
    9208:	48 89 85 d8 fe ff ff 	mov    %rax,-0x128(%rbp)
    920f:	48 8d 05 a2 df 00 00 	lea    0xdfa2(%rip),%rax        # 171b8 <g_260>
    9216:	48 89 85 e0 fe ff ff 	mov    %rax,-0x120(%rbp)
    921d:	c7 85 c0 fe ff ff 00 	movl   $0x0,-0x140(%rbp)
    9224:	00 00 00 
    9227:	eb 1e                	jmp    9247 <func_54+0xa5>
    9229:	8b 85 c0 fe ff ff    	mov    -0x140(%rbp),%eax
    922f:	48 98                	cltq   
    9231:	48 8d 95 d0 fe ff ff 	lea    -0x130(%rbp),%rdx
    9238:	48 89 94 c5 10 ff ff 	mov    %rdx,-0xf0(%rbp,%rax,8)
    923f:	ff 
    9240:	83 85 c0 fe ff ff 01 	addl   $0x1,-0x140(%rbp)
    9247:	83 bd c0 fe ff ff 01 	cmpl   $0x1,-0x140(%rbp)
    924e:	7e d9                	jle    9229 <func_54+0x87>
    9250:	c7 85 c0 fe ff ff 00 	movl   $0x0,-0x140(%rbp)
    9257:	00 00 00 
    925a:	eb 1a                	jmp    9276 <func_54+0xd4>
    925c:	8b 85 c0 fe ff ff    	mov    -0x140(%rbp),%eax
    9262:	48 98                	cltq   
    9264:	c7 84 85 00 ff ff ff 	movl   $0x7fc95e43,-0x100(%rbp,%rax,4)
    926b:	43 5e c9 7f 
    926f:	83 85 c0 fe ff ff 01 	addl   $0x1,-0x140(%rbp)
    9276:	83 bd c0 fe ff ff 01 	cmpl   $0x1,-0x140(%rbp)
    927d:	7e dd                	jle    925c <func_54+0xba>
    927f:	c7 85 c0 fe ff ff 00 	movl   $0x0,-0x140(%rbp)
    9286:	00 00 00 
    9289:	eb 1a                	jmp    92a5 <func_54+0x103>
    928b:	8b 85 c0 fe ff ff    	mov    -0x140(%rbp),%eax
    9291:	48 98                	cltq   
    9293:	c7 84 85 08 ff ff ff 	movl   $0x0,-0xf8(%rbp,%rax,4)
    929a:	00 00 00 00 
    929e:	83 85 c0 fe ff ff 01 	addl   $0x1,-0x140(%rbp)
    92a5:	83 bd c0 fe ff ff 01 	cmpl   $0x1,-0x140(%rbp)
    92ac:	7e dd                	jle    928b <func_54+0xe9>
    92ae:	8b 85 00 ff ff ff    	mov    -0x100(%rbp),%eax
    92b4:	0f be d8             	movsbl %al,%ebx
    92b7:	48 8b 85 a8 fe ff ff 	mov    -0x158(%rbp),%rax
    92be:	0f b7 c0             	movzwl %ax,%eax
    92c1:	be ff ff 00 00       	mov    $0xffff,%esi
    92c6:	89 c7                	mov    %eax,%edi
    92c8:	e8 32 ba ff ff       	callq  4cff <safe_add_func_uint16_t_u_u>
    92cd:	66 85 c0             	test   %ax,%ax
    92d0:	b8 00 00 00 00       	mov    $0x0,%eax
    92d5:	0f be c0             	movsbl %al,%eax
    92d8:	89 de                	mov    %ebx,%esi
    92da:	89 c7                	mov    %eax,%edi
    92dc:	e8 f3 ae ff ff       	callq  41d4 <safe_add_func_int8_t_s_s>
    92e1:	0f be c0             	movsbl %al,%eax
    92e4:	89 c6                	mov    %eax,%esi
    92e6:	bf ff ff ff ff       	mov    $0xffffffff,%edi
    92eb:	e8 e4 ae ff ff       	callq  41d4 <safe_add_func_int8_t_s_s>
    92f0:	48 8b 05 c1 b7 00 00 	mov    0xb7c1(%rip),%rax        # 14ab8 <g_753+0x8>
    92f7:	48 c1 e0 09          	shl    $0x9,%rax
    92fb:	48 c1 f8 29          	sar    $0x29,%rax
    92ff:	85 c0                	test   %eax,%eax
    9301:	74 2e                	je     9331 <func_54+0x18f>
    9303:	48 8b 95 18 ff ff ff 	mov    -0xe8(%rbp),%rdx
    930a:	48 8b 85 d8 fe ff ff 	mov    -0x128(%rbp),%rax
    9311:	48 89 10             	mov    %rdx,(%rax)
    9314:	48 8b 85 d8 fe ff ff 	mov    -0x128(%rbp),%rax
    931b:	48 8b 10             	mov    (%rax),%rdx
    931e:	48 8d 85 d0 fe ff ff 	lea    -0x130(%rbp),%rax
    9325:	48 39 c2             	cmp    %rax,%rdx
    9328:	75 07                	jne    9331 <func_54+0x18f>
    932a:	ba 01 00 00 00       	mov    $0x1,%edx
    932f:	eb 05                	jmp    9336 <func_54+0x194>
    9331:	ba 00 00 00 00       	mov    $0x0,%edx
    9336:	8b 85 04 ff ff ff    	mov    -0xfc(%rbp),%eax
    933c:	21 d0                	and    %edx,%eax
    933e:	83 f8 ff             	cmp    $0xffffffff,%eax
    9341:	74 0c                	je     934f <func_54+0x1ad>
    9343:	48 8b 85 98 fe ff ff 	mov    -0x168(%rbp),%rax
    934a:	e9 43 04 00 00       	jmpq   9792 <func_54+0x5f0>
    934f:	c6 85 bd fe ff ff 01 	movb   $0x1,-0x143(%rbp)
    9356:	48 c7 85 e8 fe ff ff 	movq   $0x0,-0x118(%rbp)
    935d:	00 00 00 00 
    9361:	48 8d 05 3a af 00 00 	lea    0xaf3a(%rip),%rax        # 142a2 <g_93+0x2>
    9368:	48 89 85 f0 fe ff ff 	mov    %rax,-0x110(%rbp)
    936f:	66 c7 85 20 ff ff ff 	movw   $0xf6,-0xe0(%rbp)
    9376:	f6 00 
    9378:	66 c7 85 22 ff ff ff 	movw   $0xb,-0xde(%rbp)
    937f:	0b 00 
    9381:	66 c7 85 24 ff ff ff 	movw   $0xbf6,-0xdc(%rbp)
    9388:	f6 0b 
    938a:	66 c7 85 26 ff ff ff 	movw   $0x5b5b,-0xda(%rbp)
    9391:	5b 5b 
    9393:	66 c7 85 28 ff ff ff 	movw   $0xb5b,-0xd8(%rbp)
    939a:	5b 0b 
    939c:	66 c7 85 2a ff ff ff 	movw   $0xf6,-0xd6(%rbp)
    93a3:	f6 00 
    93a5:	66 c7 85 2c ff ff ff 	movw   $0xb,-0xd4(%rbp)
    93ac:	0b 00 
    93ae:	66 c7 85 2e ff ff ff 	movw   $0xbf6,-0xd2(%rbp)
    93b5:	f6 0b 
    93b7:	66 c7 85 30 ff ff ff 	movw   $0x5b5b,-0xd0(%rbp)
    93be:	5b 5b 
    93c0:	66 c7 85 32 ff ff ff 	movw   $0xb5b,-0xce(%rbp)
    93c7:	5b 0b 
    93c9:	66 c7 85 34 ff ff ff 	movw   $0xf6,-0xcc(%rbp)
    93d0:	f6 00 
    93d2:	66 c7 85 36 ff ff ff 	movw   $0xb,-0xca(%rbp)
    93d9:	0b 00 
    93db:	66 c7 85 38 ff ff ff 	movw   $0xbf6,-0xc8(%rbp)
    93e2:	f6 0b 
    93e4:	66 c7 85 3a ff ff ff 	movw   $0x5b5b,-0xc6(%rbp)
    93eb:	5b 5b 
    93ed:	66 c7 85 3c ff ff ff 	movw   $0xb5b,-0xc4(%rbp)
    93f4:	5b 0b 
    93f6:	66 c7 85 3e ff ff ff 	movw   $0xf6,-0xc2(%rbp)
    93fd:	f6 00 
    93ff:	66 c7 85 40 ff ff ff 	movw   $0xb,-0xc0(%rbp)
    9406:	0b 00 
    9408:	66 c7 85 42 ff ff ff 	movw   $0xbf6,-0xbe(%rbp)
    940f:	f6 0b 
    9411:	66 c7 85 44 ff ff ff 	movw   $0x5b5b,-0xbc(%rbp)
    9418:	5b 5b 
    941a:	66 c7 85 46 ff ff ff 	movw   $0xb5b,-0xba(%rbp)
    9421:	5b 0b 
    9423:	66 c7 85 48 ff ff ff 	movw   $0xf6,-0xb8(%rbp)
    942a:	f6 00 
    942c:	66 c7 85 4a ff ff ff 	movw   $0xb,-0xb6(%rbp)
    9433:	0b 00 
    9435:	66 c7 85 4c ff ff ff 	movw   $0xbf6,-0xb4(%rbp)
    943c:	f6 0b 
    943e:	66 c7 85 4e ff ff ff 	movw   $0x5b5b,-0xb2(%rbp)
    9445:	5b 5b 
    9447:	66 c7 85 50 ff ff ff 	movw   $0xb5b,-0xb0(%rbp)
    944e:	5b 0b 
    9450:	66 c7 85 52 ff ff ff 	movw   $0xf6,-0xae(%rbp)
    9457:	f6 00 
    9459:	66 c7 85 54 ff ff ff 	movw   $0xb,-0xac(%rbp)
    9460:	0b 00 
    9462:	66 c7 85 56 ff ff ff 	movw   $0xbf6,-0xaa(%rbp)
    9469:	f6 0b 
    946b:	66 c7 85 58 ff ff ff 	movw   $0x5b5b,-0xa8(%rbp)
    9472:	5b 5b 
    9474:	66 c7 85 5a ff ff ff 	movw   $0xb5b,-0xa6(%rbp)
    947b:	5b 0b 
    947d:	66 c7 85 5c ff ff ff 	movw   $0xf6,-0xa4(%rbp)
    9484:	f6 00 
    9486:	66 c7 85 5e ff ff ff 	movw   $0xb,-0xa2(%rbp)
    948d:	0b 00 
    948f:	66 c7 85 60 ff ff ff 	movw   $0xbf6,-0xa0(%rbp)
    9496:	f6 0b 
    9498:	66 c7 85 62 ff ff ff 	movw   $0x5b5b,-0x9e(%rbp)
    949f:	5b 5b 
    94a1:	66 c7 85 64 ff ff ff 	movw   $0xb5b,-0x9c(%rbp)
    94a8:	5b 0b 
    94aa:	66 c7 85 66 ff ff ff 	movw   $0xf6,-0x9a(%rbp)
    94b1:	f6 00 
    94b3:	66 c7 85 68 ff ff ff 	movw   $0xb,-0x98(%rbp)
    94ba:	0b 00 
    94bc:	66 c7 85 6a ff ff ff 	movw   $0xbf6,-0x96(%rbp)
    94c3:	f6 0b 
    94c5:	66 c7 85 6c ff ff ff 	movw   $0x5b5b,-0x94(%rbp)
    94cc:	5b 5b 
    94ce:	66 c7 85 6e ff ff ff 	movw   $0xb5b,-0x92(%rbp)
    94d5:	5b 0b 
    94d7:	66 c7 85 70 ff ff ff 	movw   $0xf6,-0x90(%rbp)
    94de:	f6 00 
    94e0:	66 c7 85 72 ff ff ff 	movw   $0xb,-0x8e(%rbp)
    94e7:	0b 00 
    94e9:	66 c7 85 74 ff ff ff 	movw   $0xbf6,-0x8c(%rbp)
    94f0:	f6 0b 
    94f2:	66 c7 85 76 ff ff ff 	movw   $0x5b5b,-0x8a(%rbp)
    94f9:	5b 5b 
    94fb:	66 c7 85 78 ff ff ff 	movw   $0xb5b,-0x88(%rbp)
    9502:	5b 0b 
    9504:	66 c7 85 7a ff ff ff 	movw   $0xf6,-0x86(%rbp)
    950b:	f6 00 
    950d:	66 c7 85 7c ff ff ff 	movw   $0xb,-0x84(%rbp)
    9514:	0b 00 
    9516:	66 c7 85 7e ff ff ff 	movw   $0xbf6,-0x82(%rbp)
    951d:	f6 0b 
    951f:	66 c7 45 80 5b 5b    	movw   $0x5b5b,-0x80(%rbp)
    9525:	66 c7 45 82 5b 0b    	movw   $0xb5b,-0x7e(%rbp)
    952b:	66 c7 45 84 f6 00    	movw   $0xf6,-0x7c(%rbp)
    9531:	66 c7 45 86 0b 00    	movw   $0xb,-0x7a(%rbp)
    9537:	66 c7 45 88 f6 0b    	movw   $0xbf6,-0x78(%rbp)
    953d:	66 c7 45 8a 5b 5b    	movw   $0x5b5b,-0x76(%rbp)
    9543:	66 c7 45 8c 5b 0b    	movw   $0xb5b,-0x74(%rbp)
    9549:	66 c7 45 8e f6 00    	movw   $0xf6,-0x72(%rbp)
    954f:	66 c7 45 90 0b 00    	movw   $0xb,-0x70(%rbp)
    9555:	66 c7 45 92 f6 0b    	movw   $0xbf6,-0x6e(%rbp)
    955b:	66 c7 45 94 5b 5b    	movw   $0x5b5b,-0x6c(%rbp)
    9561:	66 c7 45 96 5b 0b    	movw   $0xb5b,-0x6a(%rbp)
    9567:	66 c7 45 98 f6 00    	movw   $0xf6,-0x68(%rbp)
    956d:	66 c7 45 9a 0b 00    	movw   $0xb,-0x66(%rbp)
    9573:	66 c7 45 9c f6 0b    	movw   $0xbf6,-0x64(%rbp)
    9579:	66 c7 45 9e 5b 5b    	movw   $0x5b5b,-0x62(%rbp)
    957f:	66 c7 45 a0 5b 0b    	movw   $0xb5b,-0x60(%rbp)
    9585:	66 c7 45 a2 f6 00    	movw   $0xf6,-0x5e(%rbp)
    958b:	66 c7 45 a4 0b 00    	movw   $0xb,-0x5c(%rbp)
    9591:	66 c7 45 a6 f6 0b    	movw   $0xbf6,-0x5a(%rbp)
    9597:	66 c7 45 a8 5b 5b    	movw   $0x5b5b,-0x58(%rbp)
    959d:	66 c7 45 aa 5b 0b    	movw   $0xb5b,-0x56(%rbp)
    95a3:	66 c7 45 ac f6 00    	movw   $0xf6,-0x54(%rbp)
    95a9:	66 c7 45 ae 0b 00    	movw   $0xb,-0x52(%rbp)
    95af:	66 c7 45 b0 f6 0b    	movw   $0xbf6,-0x50(%rbp)
    95b5:	66 c7 45 b2 5b 5b    	movw   $0x5b5b,-0x4e(%rbp)
    95bb:	66 c7 45 b4 5b 0b    	movw   $0xb5b,-0x4c(%rbp)
    95c1:	66 c7 45 b6 f6 00    	movw   $0xf6,-0x4a(%rbp)
    95c7:	66 c7 45 b8 0b 00    	movw   $0xb,-0x48(%rbp)
    95cd:	66 c7 45 ba f6 0b    	movw   $0xbf6,-0x46(%rbp)
    95d3:	66 c7 45 bc 5b 5b    	movw   $0x5b5b,-0x44(%rbp)
    95d9:	66 c7 45 be 0b f6    	movw   $0xf60b,-0x42(%rbp)
    95df:	66 c7 45 c0 00 5b    	movw   $0x5b00,-0x40(%rbp)
    95e5:	66 c7 45 c2 f6 5b    	movw   $0x5bf6,-0x3e(%rbp)
    95eb:	66 c7 45 c4 00 f6    	movw   $0xf600,-0x3c(%rbp)
    95f1:	66 c7 45 c6 0b 0b    	movw   $0xb0b,-0x3a(%rbp)
    95f7:	66 c7 45 c8 0b f6    	movw   $0xf60b,-0x38(%rbp)
    95fd:	66 c7 45 ca 00 5b    	movw   $0x5b00,-0x36(%rbp)
    9603:	66 c7 45 cc f6 5b    	movw   $0x5bf6,-0x34(%rbp)
    9609:	66 c7 45 ce 00 f6    	movw   $0xf600,-0x32(%rbp)
    960f:	66 c7 45 d0 0b 0b    	movw   $0xb0b,-0x30(%rbp)
    9615:	66 c7 45 d2 0b f6    	movw   $0xf60b,-0x2e(%rbp)
    961b:	48 8d 05 06 b4 00 00 	lea    0xb406(%rip),%rax        # 14a28 <g_574+0x28>
    9622:	48 89 85 f8 fe ff ff 	mov    %rax,-0x108(%rbp)
    9629:	c7 85 c4 fe ff ff 95 	movl   $0xcf037b95,-0x13c(%rbp)
    9630:	7b 03 cf 
    9633:	66 c7 85 be fe ff ff 	movw   $0xd616,-0x142(%rbp)
    963a:	16 d6 
    963c:	48 8b 05 75 dc 00 00 	mov    0xdc75(%rip),%rax        # 172b8 <g_469>
    9643:	48 8b 08             	mov    (%rax),%rcx
    9646:	48 8b 05 23 b6 00 00 	mov    0xb623(%rip),%rax        # 14c70 <g_934>
    964d:	48 8b 15 24 b6 00 00 	mov    0xb624(%rip),%rdx        # 14c78 <g_934+0x8>
    9654:	48 89 01             	mov    %rax,(%rcx)
    9657:	48 89 51 08          	mov    %rdx,0x8(%rcx)
    965b:	8b 05 ad ae 00 00    	mov    0xaead(%rip),%eax        # 1450e <g_241+0xe>
    9661:	0f b7 d8             	movzwl %ax,%ebx
    9664:	44 0f b6 ad bd fe ff 	movzbl -0x143(%rbp),%r13d
    966b:	ff 
    966c:	be 03 00 00 00       	mov    $0x3,%esi
    9671:	bf 01 00 00 00       	mov    $0x1,%edi
    9676:	e8 43 b7 ff ff       	callq  4dbe <safe_lshift_func_uint16_t_u_s>
    967b:	0f b7 c0             	movzwl %ax,%eax
    967e:	48 39 85 a8 fe ff ff 	cmp    %rax,-0x158(%rbp)
    9685:	0f 9f c0             	setg   %al
    9688:	0f b6 c0             	movzbl %al,%eax
    968b:	89 85 0c ff ff ff    	mov    %eax,-0xf4(%rbp)
    9691:	8b 85 0c ff ff ff    	mov    -0xf4(%rbp),%eax
    9697:	83 f8 fe             	cmp    $0xfffffffe,%eax
    969a:	0f 9d c0             	setge  %al
    969d:	0f b6 d0             	movzbl %al,%edx
    96a0:	48 8b 85 f0 fe ff ff 	mov    -0x110(%rbp),%rax
    96a7:	0f b7 00             	movzwl (%rax),%eax
    96aa:	21 c2                	and    %eax,%edx
    96ac:	48 8b 85 f0 fe ff ff 	mov    -0x110(%rbp),%rax
    96b3:	66 89 10             	mov    %dx,(%rax)
    96b6:	0f b6 45 8e          	movzbl -0x72(%rbp),%eax
    96ba:	44 0f be e0          	movsbl %al,%r12d
    96be:	0f b6 85 bd fe ff ff 	movzbl -0x143(%rbp),%eax
    96c5:	89 c7                	mov    %eax,%edi
    96c7:	e8 da b7 ff ff       	callq  4ea6 <safe_unary_minus_func_uint32_t_u>
    96cc:	89 c0                	mov    %eax,%eax
    96ce:	48 89 c7             	mov    %rax,%rdi
    96d1:	e8 40 b1 ff ff       	callq  4816 <safe_unary_minus_func_int64_t_s>
    96d6:	0f be c0             	movsbl %al,%eax
    96d9:	44 89 e6             	mov    %r12d,%esi
    96dc:	89 c7                	mov    %eax,%edi
    96de:	e8 f1 aa ff ff       	callq  41d4 <safe_add_func_int8_t_s_s>
    96e3:	48 8b 05 b6 da 00 00 	mov    0xdab6(%rip),%rax        # 171a0 <g_107>
    96ea:	48 8b 00             	mov    (%rax),%rax
    96ed:	48 83 f8 f8          	cmp    $0xfffffffffffffff8,%rax
    96f1:	0f 96 c0             	setbe  %al
    96f4:	0f b6 d0             	movzbl %al,%edx
    96f7:	48 8b 85 f8 fe ff ff 	mov    -0x108(%rbp),%rax
    96fe:	48 89 10             	mov    %rdx,(%rax)
    9701:	b8 01 00 00 00       	mov    $0x1,%eax
    9706:	44 09 e8             	or     %r13d,%eax
    9709:	0f b7 c0             	movzwl %ax,%eax
    970c:	89 de                	mov    %ebx,%esi
    970e:	89 c7                	mov    %eax,%edi
    9710:	e8 28 b6 ff ff       	callq  4d3d <safe_mul_func_uint16_t_u_u>
    9715:	48 8b 15 9c da 00 00 	mov    0xda9c(%rip),%rdx        # 171b8 <g_260>
    971c:	8b 0a                	mov    (%rdx),%ecx
    971e:	0f b7 d0             	movzwl %ax,%edx
    9721:	48 8b 05 90 da 00 00 	mov    0xda90(%rip),%rax        # 171b8 <g_260>
    9728:	21 ca                	and    %ecx,%edx
    972a:	89 10                	mov    %edx,(%rax)
    972c:	66 c7 05 cd b0 00 00 	movw   $0xffe8,0xb0cd(%rip)        # 14802 <g_415>
    9733:	e8 ff 
    9735:	eb 1b                	jmp    9752 <func_54+0x5b0>
    9737:	66 83 bd be fe ff ff 	cmpw   $0x0,-0x142(%rbp)
    973e:	00 
    973f:	75 20                	jne    9761 <func_54+0x5bf>
    9741:	0f b7 05 ba b0 00 00 	movzwl 0xb0ba(%rip),%eax        # 14802 <g_415>
    9748:	83 c0 01             	add    $0x1,%eax
    974b:	66 89 05 b0 b0 00 00 	mov    %ax,0xb0b0(%rip)        # 14802 <g_415>
    9752:	0f b7 05 a9 b0 00 00 	movzwl 0xb0a9(%rip),%eax        # 14802 <g_415>
    9759:	66 83 f8 f0          	cmp    $0xfff0,%ax
    975d:	7d d8                	jge    9737 <func_54+0x595>
    975f:	eb 01                	jmp    9762 <func_54+0x5c0>
    9761:	90                   	nop
    9762:	48 8b 85 e0 fe ff ff 	mov    -0x120(%rbp),%rax
    9769:	48 8d 95 08 ff ff ff 	lea    -0xf8(%rbp),%rdx
    9770:	48 83 c2 04          	add    $0x4,%rdx
    9774:	48 89 10             	mov    %rdx,(%rax)
    9777:	48 8b 05 02 de 00 00 	mov    0xde02(%rip),%rax        # 17580 <g_922>
    977e:	48 8b 95 e0 fe ff ff 	mov    -0x120(%rbp),%rdx
    9785:	48 8b 12             	mov    (%rdx),%rdx
    9788:	48 89 10             	mov    %rdx,(%rax)
    978b:	48 8b 85 98 fe ff ff 	mov    -0x168(%rbp),%rax
    9792:	48 8b 5d d8          	mov    -0x28(%rbp),%rbx
    9796:	64 48 33 1c 25 28 00 	xor    %fs:0x28,%rbx
    979d:	00 00 
    979f:	74 05                	je     97a6 <func_54+0x604>
    97a1:	e8 ca a8 ff ff       	callq  4070 <__stack_chk_fail@plt>
    97a6:	48 81 c4 58 01 00 00 	add    $0x158,%rsp
    97ad:	5b                   	pop    %rbx
    97ae:	41 5c                	pop    %r12
    97b0:	41 5d                	pop    %r13
    97b2:	5d                   	pop    %rbp
    97b3:	c3                   	retq   

00000000000097b4 <func_59>:
    97b4:	f3 0f 1e fa          	endbr64 
    97b8:	55                   	push   %rbp
    97b9:	48 89 e5             	mov    %rsp,%rbp
    97bc:	48 81 ec c0 01 00 00 	sub    $0x1c0,%rsp
    97c3:	48 89 bd 68 fe ff ff 	mov    %rdi,-0x198(%rbp)
    97ca:	48 89 b5 60 fe ff ff 	mov    %rsi,-0x1a0(%rbp)
    97d1:	48 89 95 58 fe ff ff 	mov    %rdx,-0x1a8(%rbp)
    97d8:	48 89 8d 50 fe ff ff 	mov    %rcx,-0x1b0(%rbp)
    97df:	4c 89 85 48 fe ff ff 	mov    %r8,-0x1b8(%rbp)
    97e6:	64 48 8b 04 25 28 00 	mov    %fs:0x28,%rax
    97ed:	00 00 
    97ef:	48 89 45 f8          	mov    %rax,-0x8(%rbp)
    97f3:	31 c0                	xor    %eax,%eax
    97f5:	66 c7 85 78 fe ff ff 	movw   $0x1,-0x188(%rbp)
    97fc:	01 00 
    97fe:	48 c7 85 d8 fe ff ff 	movq   $0x0,-0x128(%rbp)
    9805:	00 00 00 00 
    9809:	48 8d 05 70 b0 00 00 	lea    0xb070(%rip),%rax        # 14880 <g_476+0x40>
    9810:	48 89 85 a8 fe ff ff 	mov    %rax,-0x158(%rbp)
    9817:	48 8d 85 a8 fe ff ff 	lea    -0x158(%rbp),%rax
    981e:	48 89 85 e0 fe ff ff 	mov    %rax,-0x120(%rbp)
    9825:	48 8d 05 94 d9 00 00 	lea    0xd994(%rip),%rax        # 171c0 <g_336>
    982c:	48 89 85 b0 fe ff ff 	mov    %rax,-0x150(%rbp)
    9833:	48 8d 85 b0 fe ff ff 	lea    -0x150(%rbp),%rax
    983a:	48 89 85 b8 fe ff ff 	mov    %rax,-0x148(%rbp)
    9841:	48 8d 85 b8 fe ff ff 	lea    -0x148(%rbp),%rax
    9848:	48 89 85 e8 fe ff ff 	mov    %rax,-0x118(%rbp)
    984f:	c7 85 8c fe ff ff 77 	movl   $0xfe826677,-0x174(%rbp)
    9856:	66 82 fe 
    9859:	48 8d 05 60 d9 00 00 	lea    0xd960(%rip),%rax        # 171c0 <g_336>
    9860:	48 89 85 c0 fe ff ff 	mov    %rax,-0x140(%rbp)
    9867:	48 8d 85 c0 fe ff ff 	lea    -0x140(%rbp),%rax
    986e:	48 89 85 f0 fe ff ff 	mov    %rax,-0x110(%rbp)
    9875:	c7 85 90 fe ff ff e5 	movl   $0x54e905e5,-0x170(%rbp)
    987c:	05 e9 54 
    987f:	c7 85 80 fe ff ff f9 	movl   $0xfffffff9,-0x180(%rbp)
    9886:	ff ff ff 
    9889:	48 8d 05 b0 ac 00 00 	lea    0xacb0(%rip),%rax        # 14540 <g_282>
    9890:	48 89 85 f8 fe ff ff 	mov    %rax,-0x108(%rbp)
    9897:	66 c7 85 7a fe ff ff 	movw   $0xdfec,-0x186(%rbp)
    989e:	ec df 
    98a0:	48 c7 85 c8 fe ff ff 	movq   $0x0,-0x138(%rbp)
    98a7:	00 00 00 00 
    98ab:	48 8d 85 c8 fe ff ff 	lea    -0x138(%rbp),%rax
    98b2:	48 89 85 00 ff ff ff 	mov    %rax,-0x100(%rbp)
    98b9:	48 8d 05 70 ea 00 00 	lea    0xea70(%rip),%rax        # 18330 <g_768>
    98c0:	48 89 85 d0 fe ff ff 	mov    %rax,-0x130(%rbp)
    98c7:	48 8d 85 d0 fe ff ff 	lea    -0x130(%rbp),%rax
    98ce:	48 89 85 08 ff ff ff 	mov    %rax,-0xf8(%rbp)
    98d5:	48 8d 85 80 fe ff ff 	lea    -0x180(%rbp),%rax
    98dc:	48 89 85 10 ff ff ff 	mov    %rax,-0xf0(%rbp)
    98e3:	c7 85 94 fe ff ff bd 	movl   $0xb2b91abd,-0x16c(%rbp)
    98ea:	1a b9 b2 
    98ed:	c7 85 98 fe ff ff 50 	movl   $0x31106750,-0x168(%rbp)
    98f4:	67 10 31 
    98f7:	c7 85 9c fe ff ff 8e 	movl   $0x556c8e,-0x164(%rbp)
    98fe:	6c 55 00 
    9901:	c7 85 a0 fe ff ff ff 	movl   $0xffffffff,-0x160(%rbp)
    9908:	ff ff ff 
    990b:	48 b8 66 b8 76 b2 4b 	movabs $0x42a52a4bb276b866,%rax
    9912:	2a a5 42 
    9915:	48 89 85 18 ff ff ff 	mov    %rax,-0xe8(%rbp)
    991c:	c7 85 a4 fe ff ff 2f 	movl   $0x3dd74a2f,-0x15c(%rbp)
    9923:	4a d7 3d 
    9926:	c7 85 50 ff ff ff a1 	movl   $0x37c6d7a1,-0xb0(%rbp)
    992d:	d7 c6 37 
    9930:	c7 85 54 ff ff ff 61 	movl   $0xc05fcc61,-0xac(%rbp)
    9937:	cc 5f c0 
    993a:	c7 85 58 ff ff ff 61 	movl   $0xc05fcc61,-0xa8(%rbp)
    9941:	cc 5f c0 
    9944:	c7 85 5c ff ff ff a1 	movl   $0x37c6d7a1,-0xa4(%rbp)
    994b:	d7 c6 37 
    994e:	c7 85 60 ff ff ff 61 	movl   $0xc05fcc61,-0xa0(%rbp)
    9955:	cc 5f c0 
    9958:	c7 85 64 ff ff ff a1 	movl   $0x37c6d7a1,-0x9c(%rbp)
    995f:	d7 c6 37 
    9962:	c7 85 68 ff ff ff 61 	movl   $0xc05fcc61,-0x98(%rbp)
    9969:	cc 5f c0 
    996c:	c7 85 6c ff ff ff 61 	movl   $0xc05fcc61,-0x94(%rbp)
    9973:	cc 5f c0 
    9976:	c7 85 70 ff ff ff a1 	movl   $0x37c6d7a1,-0x90(%rbp)
    997d:	d7 c6 37 
    9980:	c7 85 74 ff ff ff a1 	movl   $0x37c6d7a1,-0x8c(%rbp)
    9987:	d7 c6 37 
    998a:	c7 85 78 ff ff ff eb 	movl   $0xc8c4a0eb,-0x88(%rbp)
    9991:	a0 c4 c8 
    9994:	c7 85 7c ff ff ff a1 	movl   $0x37c6d7a1,-0x84(%rbp)
    999b:	d7 c6 37 
    999e:	c7 45 80 a1 d7 c6 37 	movl   $0x37c6d7a1,-0x80(%rbp)
    99a5:	c7 45 84 61 cc 5f c0 	movl   $0xc05fcc61,-0x7c(%rbp)
    99ac:	c7 45 88 61 cc 5f c0 	movl   $0xc05fcc61,-0x78(%rbp)
    99b3:	c7 45 8c a1 d7 c6 37 	movl   $0x37c6d7a1,-0x74(%rbp)
    99ba:	c7 45 90 61 cc 5f c0 	movl   $0xc05fcc61,-0x70(%rbp)
    99c1:	c7 45 94 a1 d7 c6 37 	movl   $0x37c6d7a1,-0x6c(%rbp)
    99c8:	c7 45 98 61 cc 5f c0 	movl   $0xc05fcc61,-0x68(%rbp)
    99cf:	c7 45 9c 61 cc 5f c0 	movl   $0xc05fcc61,-0x64(%rbp)
    99d6:	c7 45 a0 a1 d7 c6 37 	movl   $0x37c6d7a1,-0x60(%rbp)
    99dd:	c7 45 a4 a1 d7 c6 37 	movl   $0x37c6d7a1,-0x5c(%rbp)
    99e4:	c7 45 a8 eb a0 c4 c8 	movl   $0xc8c4a0eb,-0x58(%rbp)
    99eb:	c7 45 ac a1 d7 c6 37 	movl   $0x37c6d7a1,-0x54(%rbp)
    99f2:	c7 45 b0 a1 d7 c6 37 	movl   $0x37c6d7a1,-0x50(%rbp)
    99f9:	c7 45 b4 61 cc 5f c0 	movl   $0xc05fcc61,-0x4c(%rbp)
    9a00:	c7 45 b8 61 cc 5f c0 	movl   $0xc05fcc61,-0x48(%rbp)
    9a07:	c7 45 bc a1 d7 c6 37 	movl   $0x37c6d7a1,-0x44(%rbp)
    9a0e:	c7 45 c0 61 cc 5f c0 	movl   $0xc05fcc61,-0x40(%rbp)
    9a15:	c7 45 c4 a1 d7 c6 37 	movl   $0x37c6d7a1,-0x3c(%rbp)
    9a1c:	c7 45 c8 61 cc 5f c0 	movl   $0xc05fcc61,-0x38(%rbp)
    9a23:	c7 45 cc 61 cc 5f c0 	movl   $0xc05fcc61,-0x34(%rbp)
    9a2a:	c7 45 d0 a1 d7 c6 37 	movl   $0x37c6d7a1,-0x30(%rbp)
    9a31:	c7 45 d4 a1 d7 c6 37 	movl   $0x37c6d7a1,-0x2c(%rbp)
    9a38:	c7 45 d8 eb a0 c4 c8 	movl   $0xc8c4a0eb,-0x28(%rbp)
    9a3f:	c7 45 dc a1 d7 c6 37 	movl   $0x37c6d7a1,-0x24(%rbp)
    9a46:	c7 45 e0 a1 d7 c6 37 	movl   $0x37c6d7a1,-0x20(%rbp)
    9a4d:	c7 45 e4 61 cc 5f c0 	movl   $0xc05fcc61,-0x1c(%rbp)
    9a54:	c7 45 e8 61 cc 5f c0 	movl   $0xc05fcc61,-0x18(%rbp)
    9a5b:	c7 45 ec a1 d7 c6 37 	movl   $0x37c6d7a1,-0x14(%rbp)
    9a62:	66 c7 85 7c fe ff ff 	movw   $0x6ef8,-0x184(%rbp)
    9a69:	f8 6e 
    9a6b:	66 c7 85 7e fe ff ff 	movw   $0x90c7,-0x182(%rbp)
    9a72:	c7 90 
    9a74:	c7 85 84 fe ff ff 00 	movl   $0x0,-0x17c(%rbp)
    9a7b:	00 00 00 
    9a7e:	eb 1b                	jmp    9a9b <func_59+0x2e7>
    9a80:	8b 85 84 fe ff ff    	mov    -0x17c(%rbp),%eax
    9a86:	48 98                	cltq   
    9a88:	48 c7 84 c5 20 ff ff 	movq   $0x0,-0xe0(%rbp,%rax,8)
    9a8f:	ff 00 00 00 00 
    9a94:	83 85 84 fe ff ff 01 	addl   $0x1,-0x17c(%rbp)
    9a9b:	83 bd 84 fe ff ff 01 	cmpl   $0x1,-0x17c(%rbp)
    9aa2:	7e dc                	jle    9a80 <func_59+0x2cc>
    9aa4:	c7 85 84 fe ff ff 00 	movl   $0x0,-0x17c(%rbp)
    9aab:	00 00 00 
    9aae:	eb 45                	jmp    9af5 <func_59+0x341>
    9ab0:	c7 85 88 fe ff ff 00 	movl   $0x0,-0x178(%rbp)
    9ab7:	00 00 00 
    9aba:	eb 29                	jmp    9ae5 <func_59+0x331>
    9abc:	8b 85 88 fe ff ff    	mov    -0x178(%rbp),%eax
    9ac2:	48 98                	cltq   
    9ac4:	8b 95 84 fe ff ff    	mov    -0x17c(%rbp),%edx
    9aca:	48 63 d2             	movslq %edx,%rdx
    9acd:	48 01 d2             	add    %rdx,%rdx
    9ad0:	48 01 d0             	add    %rdx,%rax
    9ad3:	c7 84 85 30 ff ff ff 	movl   $0xa05eadbd,-0xd0(%rbp,%rax,4)
    9ada:	bd ad 5e a0 
    9ade:	83 85 88 fe ff ff 01 	addl   $0x1,-0x178(%rbp)
    9ae5:	83 bd 88 fe ff ff 01 	cmpl   $0x1,-0x178(%rbp)
    9aec:	7e ce                	jle    9abc <func_59+0x308>
    9aee:	83 85 84 fe ff ff 01 	addl   $0x1,-0x17c(%rbp)
    9af5:	83 bd 84 fe ff ff 02 	cmpl   $0x2,-0x17c(%rbp)
    9afc:	7e b2                	jle    9ab0 <func_59+0x2fc>
    9afe:	48 8b 85 f8 fe ff ff 	mov    -0x108(%rbp),%rax
    9b05:	8b 00                	mov    (%rax),%eax
    9b07:	48 98                	cltq   
    9b09:	48 8b 4d f8          	mov    -0x8(%rbp),%rcx
    9b0d:	64 48 33 0c 25 28 00 	xor    %fs:0x28,%rcx
    9b14:	00 00 
    9b16:	74 05                	je     9b1d <func_59+0x369>
    9b18:	e8 53 a5 ff ff       	callq  4070 <__stack_chk_fail@plt>
    9b1d:	c9                   	leaveq 
    9b1e:	c3                   	retq   

0000000000009b1f <func_65>:
    9b1f:	f3 0f 1e fa          	endbr64 
    9b23:	55                   	push   %rbp
    9b24:	48 89 e5             	mov    %rsp,%rbp
    9b27:	48 81 ec 00 10 00 00 	sub    $0x1000,%rsp
    9b2e:	48 83 0c 24 00       	orq    $0x0,(%rsp)
    9b33:	48 81 ec 20 01 00 00 	sub    $0x120,%rsp
    9b3a:	48 89 bd f8 ee ff ff 	mov    %rdi,-0x1108(%rbp)
    9b41:	48 89 b5 f0 ee ff ff 	mov    %rsi,-0x1110(%rbp)
    9b48:	48 89 95 e8 ee ff ff 	mov    %rdx,-0x1118(%rbp)
    9b4f:	64 48 8b 04 25 28 00 	mov    %fs:0x28,%rax
    9b56:	00 00 
    9b58:	48 89 45 f8          	mov    %rax,-0x8(%rbp)
    9b5c:	31 c0                	xor    %eax,%eax
    9b5e:	48 8d 05 bf a4 00 00 	lea    0xa4bf(%rip),%rax        # 14024 <g_3>
    9b65:	48 89 85 58 ef ff ff 	mov    %rax,-0x10a8(%rbp)
    9b6c:	48 8d 85 58 ef ff ff 	lea    -0x10a8(%rbp),%rax
    9b73:	48 89 85 80 ef ff ff 	mov    %rax,-0x1080(%rbp)
    9b7a:	48 c7 85 60 ef ff ff 	movq   $0x0,-0x10a0(%rbp)
    9b81:	00 00 00 00 
    9b85:	c7 85 18 ef ff ff 93 	movl   $0xfd7dc893,-0x10e8(%rbp)
    9b8c:	c8 7d fd 
    9b8f:	48 8d 05 0c a7 00 00 	lea    0xa70c(%rip),%rax        # 142a2 <g_93+0x2>
    9b96:	48 89 85 88 ef ff ff 	mov    %rax,-0x1078(%rbp)
    9b9d:	48 8d 85 60 ef ff ff 	lea    -0x10a0(%rbp),%rax
    9ba4:	48 89 85 68 ef ff ff 	mov    %rax,-0x1098(%rbp)
    9bab:	48 c7 85 90 ef ff ff 	movq   $0x0,-0x1070(%rbp)
    9bb2:	00 00 00 00 
    9bb6:	c7 85 1c ef ff ff 89 	movl   $0x26e48389,-0x10e4(%rbp)
    9bbd:	83 e4 26 
    9bc0:	c7 85 20 ef ff ff 03 	movl   $0x3,-0x10e0(%rbp)
    9bc7:	00 00 00 
    9bca:	c7 85 00 f0 ff ff 00 	movl   $0x0,-0x1000(%rbp)
    9bd1:	00 00 00 
    9bd4:	c7 85 04 f0 ff ff e2 	movl   $0xcbf38de2,-0xffc(%rbp)
    9bdb:	8d f3 cb 
    9bde:	c7 85 08 f0 ff ff 00 	movl   $0x0,-0xff8(%rbp)
    9be5:	00 00 00 
    9be8:	c7 85 0c f0 ff ff 00 	movl   $0x0,-0xff4(%rbp)
    9bef:	00 00 00 
    9bf2:	c7 85 10 f0 ff ff e2 	movl   $0xcbf38de2,-0xff0(%rbp)
    9bf9:	8d f3 cb 
    9bfc:	c7 85 14 f0 ff ff 00 	movl   $0x0,-0xfec(%rbp)
    9c03:	00 00 00 
    9c06:	c7 85 18 f0 ff ff 00 	movl   $0x0,-0xfe8(%rbp)
    9c0d:	00 00 00 
    9c10:	c7 85 1c f0 ff ff e2 	movl   $0xcbf38de2,-0xfe4(%rbp)
    9c17:	8d f3 cb 
    9c1a:	48 8d 05 07 a4 00 00 	lea    0xa407(%rip),%rax        # 14028 <g_5>
    9c21:	48 89 85 98 ef ff ff 	mov    %rax,-0x1068(%rbp)
    9c28:	48 b8 48 ae 48 34 6a 	movabs $0x80f0426a3448ae48,%rax
    9c2f:	42 f0 80 
    9c32:	48 89 85 a0 ef ff ff 	mov    %rax,-0x1060(%rbp)
    9c39:	c7 85 24 ef ff ff fd 	movl   $0xfffffffd,-0x10dc(%rbp)
    9c40:	ff ff ff 
    9c43:	c7 85 0c ef ff ff 6e 	movl   $0xff04916e,-0x10f4(%rbp)
    9c4a:	91 04 ff 
    9c4d:	c7 85 28 ef ff ff fc 	movl   $0xfffffffc,-0x10d8(%rbp)
    9c54:	ff ff ff 
    9c57:	c7 85 2c ef ff ff 00 	movl   $0x0,-0x10d4(%rbp)
    9c5e:	00 00 00 
    9c61:	48 8d 05 48 a8 00 00 	lea    0xa848(%rip),%rax        # 144b0 <g_174+0x4>
    9c68:	48 89 85 a8 ef ff ff 	mov    %rax,-0x1058(%rbp)
    9c6f:	48 8d 85 30 f2 ff ff 	lea    -0xdd0(%rbp),%rax
    9c76:	48 8d 15 c3 5e 00 00 	lea    0x5ec3(%rip),%rdx        # fb40 <g_1955+0xa68>
    9c7d:	b9 d8 00 00 00       	mov    $0xd8,%ecx
    9c82:	48 89 c7             	mov    %rax,%rdi
    9c85:	48 89 d6             	mov    %rdx,%rsi
    9c88:	f3 48 a5             	rep movsq %ds:(%rsi),%es:(%rdi)
    9c8b:	48 c7 85 b0 ef ff ff 	movq   $0x0,-0x1050(%rbp)
    9c92:	00 00 00 00 
    9c96:	c7 85 30 ef ff ff ff 	movl   $0xffffffff,-0x10d0(%rbp)
    9c9d:	ff ff ff 
    9ca0:	c7 85 34 ef ff ff 06 	movl   $0x6,-0x10cc(%rbp)
    9ca7:	00 00 00 
    9caa:	c7 85 38 ef ff ff 08 	movl   $0x8,-0x10c8(%rbp)
    9cb1:	00 00 00 
    9cb4:	c7 85 3c ef ff ff 04 	movl   $0x4,-0x10c4(%rbp)
    9cbb:	00 00 00 
    9cbe:	c7 85 40 ef ff ff 73 	movl   $0xd9cb6373,-0x10c0(%rbp)
    9cc5:	63 cb d9 
    9cc8:	48 c7 85 b8 ef ff ff 	movq   $0x0,-0x1048(%rbp)
    9ccf:	00 00 00 00 
    9cd3:	c7 85 10 ef ff ff 00 	movl   $0x0,-0x10f0(%rbp)
    9cda:	00 00 00 
    9cdd:	eb 1a                	jmp    9cf9 <func_65+0x1da>
    9cdf:	8b 85 10 ef ff ff    	mov    -0x10f0(%rbp),%eax
    9ce5:	48 98                	cltq   
    9ce7:	c7 84 85 e8 ef ff ff 	movl   $0x42ba6008,-0x1018(%rbp,%rax,4)
    9cee:	08 60 ba 42 
    9cf2:	83 85 10 ef ff ff 01 	addl   $0x1,-0x10f0(%rbp)
    9cf9:	83 bd 10 ef ff ff 01 	cmpl   $0x1,-0x10f0(%rbp)
    9d00:	7e dd                	jle    9cdf <func_65+0x1c0>
    9d02:	48 8b 05 77 a5 00 00 	mov    0xa577(%rip),%rax        # 14280 <g_87>
    9d09:	48 8b 15 78 a5 00 00 	mov    0xa578(%rip),%rdx        # 14288 <g_87+0x8>
    9d10:	48 8b 05 c9 a3 00 00 	mov    0xa3c9(%rip),%rax        # 140e0 <g_40+0xa0>
    9d17:	c1 e0 04             	shl    $0x4,%eax
    9d1a:	c0 f8 04             	sar    $0x4,%al
    9d1d:	84 c0                	test   %al,%al
    9d1f:	75 55                	jne    9d76 <func_65+0x257>
    9d21:	8b 05 59 a5 00 00    	mov    0xa559(%rip),%eax        # 14280 <g_87>
    9d27:	0f bf d0             	movswl %ax,%edx
    9d2a:	0f b6 05 00 a3 00 00 	movzbl 0xa300(%rip),%eax        # 14031 <g_37>
    9d31:	0f b6 c8             	movzbl %al,%ecx
    9d34:	48 c7 05 69 e5 00 00 	movq   $0x8396,0xe569(%rip)        # 182a8 <g_91>
    9d3b:	96 83 00 00 
    9d3f:	48 8b 05 62 e5 00 00 	mov    0xe562(%rip),%rax        # 182a8 <g_91>
    9d46:	48 39 85 f8 ee ff ff 	cmp    %rax,-0x1108(%rbp)
    9d4d:	0f 97 c0             	seta   %al
    9d50:	0f b6 c0             	movzbl %al,%eax
    9d53:	21 c1                	and    %eax,%ecx
    9d55:	48 8b 85 88 ef ff ff 	mov    -0x1078(%rbp),%rax
    9d5c:	66 89 08             	mov    %cx,(%rax)
    9d5f:	48 8b 85 88 ef ff ff 	mov    -0x1078(%rbp),%rax
    9d66:	0f b7 00             	movzwl (%rax),%eax
    9d69:	98                   	cwtl   
    9d6a:	89 d6                	mov    %edx,%esi
    9d6c:	89 c7                	mov    %eax,%edi
    9d6e:	e8 60 a6 ff ff       	callq  43d3 <safe_sub_func_int16_t_s_s>
    9d73:	66 85 c0             	test   %ax,%ax
    9d76:	48 8b 85 80 ef ff ff 	mov    -0x1080(%rbp),%rax
    9d7d:	48 8d 15 a0 a2 00 00 	lea    0xa2a0(%rip),%rdx        # 14024 <g_3>
    9d84:	48 89 10             	mov    %rdx,(%rax)
    9d87:	48 8b 85 80 ef ff ff 	mov    -0x1080(%rbp),%rax
    9d8e:	48 8b 00             	mov    (%rax),%rax
    9d91:	48 8d 15 8c a2 00 00 	lea    0xa28c(%rip),%rdx        # 14024 <g_3>
    9d98:	48 39 d0             	cmp    %rdx,%rax
    9d9b:	0f 94 c0             	sete   %al
    9d9e:	0f b6 c0             	movzbl %al,%eax
    9da1:	be 0e 00 00 00       	mov    $0xe,%esi
    9da6:	89 c7                	mov    %eax,%edi
    9da8:	e8 59 b0 ff ff       	callq  4e06 <safe_lshift_func_uint16_t_u_u>
    9dad:	48 8b 85 e8 ee ff ff 	mov    -0x1118(%rbp),%rax
    9db4:	0f bf d0             	movswl %ax,%edx
    9db7:	48 8b 85 f8 ee ff ff 	mov    -0x1108(%rbp),%rax
    9dbe:	98                   	cwtl   
    9dbf:	89 d6                	mov    %edx,%esi
    9dc1:	89 c7                	mov    %eax,%edi
    9dc3:	e8 eb a5 ff ff       	callq  43b3 <safe_add_func_int16_t_s_s>
    9dc8:	48 0f bf c0          	movswq %ax,%rax
    9dcc:	48 0b 85 e8 ee ff ff 	or     -0x1118(%rbp),%rax
    9dd3:	48 89 c2             	mov    %rax,%rdx
    9dd6:	8b 05 10 a3 00 00    	mov    0xa310(%rip),%eax        # 140ec <g_40+0xac>
    9ddc:	c1 e0 09             	shl    $0x9,%eax
    9ddf:	c1 f8 09             	sar    $0x9,%eax
    9de2:	89 c1                	mov    %eax,%ecx
    9de4:	89 d0                	mov    %edx,%eax
    9de6:	09 c8                	or     %ecx,%eax
    9de8:	c1 e0 09             	shl    $0x9,%eax
    9deb:	c1 f8 09             	sar    $0x9,%eax
    9dee:	25 ff ff 7f 00       	and    $0x7fffff,%eax
    9df3:	89 c2                	mov    %eax,%edx
    9df5:	8b 05 f1 a2 00 00    	mov    0xa2f1(%rip),%eax        # 140ec <g_40+0xac>
    9dfb:	25 00 00 80 ff       	and    $0xff800000,%eax
    9e00:	09 d0                	or     %edx,%eax
    9e02:	89 05 e4 a2 00 00    	mov    %eax,0xa2e4(%rip)        # 140ec <g_40+0xac>
    9e08:	48 c7 05 95 e4 00 00 	movq   $0x3,0xe495(%rip)        # 182a8 <g_91>
    9e0f:	03 00 00 00 
    9e13:	e9 c9 0e 00 00       	jmpq   ace1 <func_65+0x11c2>
    9e18:	66 c7 85 08 ef ff ff 	movw   $0x1daa,-0x10f8(%rbp)
    9e1f:	aa 1d 
    9e21:	48 8d 85 68 ef ff ff 	lea    -0x1098(%rbp),%rax
    9e28:	48 89 85 f0 f8 ff ff 	mov    %rax,-0x710(%rbp)
    9e2f:	48 8d 85 68 ef ff ff 	lea    -0x1098(%rbp),%rax
    9e36:	48 89 85 f8 f8 ff ff 	mov    %rax,-0x708(%rbp)
    9e3d:	48 8d 85 68 ef ff ff 	lea    -0x1098(%rbp),%rax
    9e44:	48 89 85 00 f9 ff ff 	mov    %rax,-0x700(%rbp)
    9e4b:	48 8d 85 68 ef ff ff 	lea    -0x1098(%rbp),%rax
    9e52:	48 89 85 08 f9 ff ff 	mov    %rax,-0x6f8(%rbp)
    9e59:	48 8d 85 68 ef ff ff 	lea    -0x1098(%rbp),%rax
    9e60:	48 89 85 10 f9 ff ff 	mov    %rax,-0x6f0(%rbp)
    9e67:	48 8d 85 68 ef ff ff 	lea    -0x1098(%rbp),%rax
    9e6e:	48 89 85 18 f9 ff ff 	mov    %rax,-0x6e8(%rbp)
    9e75:	48 8d 85 68 ef ff ff 	lea    -0x1098(%rbp),%rax
    9e7c:	48 89 85 20 f9 ff ff 	mov    %rax,-0x6e0(%rbp)
    9e83:	48 8d 85 68 ef ff ff 	lea    -0x1098(%rbp),%rax
    9e8a:	48 89 85 28 f9 ff ff 	mov    %rax,-0x6d8(%rbp)
    9e91:	48 8d 85 68 ef ff ff 	lea    -0x1098(%rbp),%rax
    9e98:	48 89 85 30 f9 ff ff 	mov    %rax,-0x6d0(%rbp)
    9e9f:	48 8d 85 68 ef ff ff 	lea    -0x1098(%rbp),%rax
    9ea6:	48 89 85 38 f9 ff ff 	mov    %rax,-0x6c8(%rbp)
    9ead:	48 8d 85 68 ef ff ff 	lea    -0x1098(%rbp),%rax
    9eb4:	48 89 85 40 f9 ff ff 	mov    %rax,-0x6c0(%rbp)
    9ebb:	48 8d 85 68 ef ff ff 	lea    -0x1098(%rbp),%rax
    9ec2:	48 89 85 48 f9 ff ff 	mov    %rax,-0x6b8(%rbp)
    9ec9:	48 8d 85 68 ef ff ff 	lea    -0x1098(%rbp),%rax
    9ed0:	48 89 85 50 f9 ff ff 	mov    %rax,-0x6b0(%rbp)
    9ed7:	48 8d 85 68 ef ff ff 	lea    -0x1098(%rbp),%rax
    9ede:	48 89 85 58 f9 ff ff 	mov    %rax,-0x6a8(%rbp)
    9ee5:	48 8d 85 68 ef ff ff 	lea    -0x1098(%rbp),%rax
    9eec:	48 89 85 60 f9 ff ff 	mov    %rax,-0x6a0(%rbp)
    9ef3:	48 8d 85 68 ef ff ff 	lea    -0x1098(%rbp),%rax
    9efa:	48 89 85 68 f9 ff ff 	mov    %rax,-0x698(%rbp)
    9f01:	48 8d 85 68 ef ff ff 	lea    -0x1098(%rbp),%rax
    9f08:	48 89 85 70 f9 ff ff 	mov    %rax,-0x690(%rbp)
    9f0f:	48 8d 85 68 ef ff ff 	lea    -0x1098(%rbp),%rax
    9f16:	48 89 85 78 f9 ff ff 	mov    %rax,-0x688(%rbp)
    9f1d:	48 8d 85 68 ef ff ff 	lea    -0x1098(%rbp),%rax
    9f24:	48 89 85 80 f9 ff ff 	mov    %rax,-0x680(%rbp)
    9f2b:	48 8d 85 68 ef ff ff 	lea    -0x1098(%rbp),%rax
    9f32:	48 89 85 88 f9 ff ff 	mov    %rax,-0x678(%rbp)
    9f39:	48 c7 85 90 f9 ff ff 	movq   $0x0,-0x670(%rbp)
    9f40:	00 00 00 00 
    9f44:	48 8d 85 68 ef ff ff 	lea    -0x1098(%rbp),%rax
    9f4b:	48 89 85 98 f9 ff ff 	mov    %rax,-0x668(%rbp)
    9f52:	48 c7 85 a0 f9 ff ff 	movq   $0x0,-0x660(%rbp)
    9f59:	00 00 00 00 
    9f5d:	48 8d 85 68 ef ff ff 	lea    -0x1098(%rbp),%rax
    9f64:	48 89 85 a8 f9 ff ff 	mov    %rax,-0x658(%rbp)
    9f6b:	48 8d 85 68 ef ff ff 	lea    -0x1098(%rbp),%rax
    9f72:	48 89 85 b0 f9 ff ff 	mov    %rax,-0x650(%rbp)
    9f79:	48 8d 85 68 ef ff ff 	lea    -0x1098(%rbp),%rax
    9f80:	48 89 85 b8 f9 ff ff 	mov    %rax,-0x648(%rbp)
    9f87:	48 c7 85 c0 f9 ff ff 	movq   $0x0,-0x640(%rbp)
    9f8e:	00 00 00 00 
    9f92:	48 8d 85 68 ef ff ff 	lea    -0x1098(%rbp),%rax
    9f99:	48 89 85 c8 f9 ff ff 	mov    %rax,-0x638(%rbp)
    9fa0:	48 8d 85 68 ef ff ff 	lea    -0x1098(%rbp),%rax
    9fa7:	48 89 85 d0 f9 ff ff 	mov    %rax,-0x630(%rbp)
    9fae:	48 8d 85 68 ef ff ff 	lea    -0x1098(%rbp),%rax
    9fb5:	48 89 85 d8 f9 ff ff 	mov    %rax,-0x628(%rbp)
    9fbc:	48 8d 85 68 ef ff ff 	lea    -0x1098(%rbp),%rax
    9fc3:	48 89 85 e0 f9 ff ff 	mov    %rax,-0x620(%rbp)
    9fca:	48 8d 85 68 ef ff ff 	lea    -0x1098(%rbp),%rax
    9fd1:	48 89 85 e8 f9 ff ff 	mov    %rax,-0x618(%rbp)
    9fd8:	48 8d 85 68 ef ff ff 	lea    -0x1098(%rbp),%rax
    9fdf:	48 89 85 f0 f9 ff ff 	mov    %rax,-0x610(%rbp)
    9fe6:	48 8d 85 68 ef ff ff 	lea    -0x1098(%rbp),%rax
    9fed:	48 89 85 f8 f9 ff ff 	mov    %rax,-0x608(%rbp)
    9ff4:	48 c7 85 00 fa ff ff 	movq   $0x0,-0x600(%rbp)
    9ffb:	00 00 00 00 
    9fff:	48 8d 85 68 ef ff ff 	lea    -0x1098(%rbp),%rax
    a006:	48 89 85 08 fa ff ff 	mov    %rax,-0x5f8(%rbp)
    a00d:	48 8d 85 68 ef ff ff 	lea    -0x1098(%rbp),%rax
    a014:	48 89 85 10 fa ff ff 	mov    %rax,-0x5f0(%rbp)
    a01b:	48 8d 85 68 ef ff ff 	lea    -0x1098(%rbp),%rax
    a022:	48 89 85 18 fa ff ff 	mov    %rax,-0x5e8(%rbp)
    a029:	48 8d 85 68 ef ff ff 	lea    -0x1098(%rbp),%rax
    a030:	48 89 85 20 fa ff ff 	mov    %rax,-0x5e0(%rbp)
    a037:	48 8d 85 68 ef ff ff 	lea    -0x1098(%rbp),%rax
    a03e:	48 89 85 28 fa ff ff 	mov    %rax,-0x5d8(%rbp)
    a045:	48 8d 85 68 ef ff ff 	lea    -0x1098(%rbp),%rax
    a04c:	48 89 85 30 fa ff ff 	mov    %rax,-0x5d0(%rbp)
    a053:	48 8d 85 68 ef ff ff 	lea    -0x1098(%rbp),%rax
    a05a:	48 89 85 38 fa ff ff 	mov    %rax,-0x5c8(%rbp)
    a061:	48 8d 85 68 ef ff ff 	lea    -0x1098(%rbp),%rax
    a068:	48 89 85 40 fa ff ff 	mov    %rax,-0x5c0(%rbp)
    a06f:	48 8d 85 68 ef ff ff 	lea    -0x1098(%rbp),%rax
    a076:	48 89 85 48 fa ff ff 	mov    %rax,-0x5b8(%rbp)
    a07d:	48 8d 85 68 ef ff ff 	lea    -0x1098(%rbp),%rax
    a084:	48 89 85 50 fa ff ff 	mov    %rax,-0x5b0(%rbp)
    a08b:	48 c7 85 58 fa ff ff 	movq   $0x0,-0x5a8(%rbp)
    a092:	00 00 00 00 
    a096:	48 8d 85 68 ef ff ff 	lea    -0x1098(%rbp),%rax
    a09d:	48 89 85 60 fa ff ff 	mov    %rax,-0x5a0(%rbp)
    a0a4:	48 8d 85 68 ef ff ff 	lea    -0x1098(%rbp),%rax
    a0ab:	48 89 85 68 fa ff ff 	mov    %rax,-0x598(%rbp)
    a0b2:	48 8d 85 68 ef ff ff 	lea    -0x1098(%rbp),%rax
    a0b9:	48 89 85 70 fa ff ff 	mov    %rax,-0x590(%rbp)
    a0c0:	48 8d 85 68 ef ff ff 	lea    -0x1098(%rbp),%rax
    a0c7:	48 89 85 78 fa ff ff 	mov    %rax,-0x588(%rbp)
    a0ce:	48 c7 85 80 fa ff ff 	movq   $0x0,-0x580(%rbp)
    a0d5:	00 00 00 00 
    a0d9:	48 c7 85 88 fa ff ff 	movq   $0x0,-0x578(%rbp)
    a0e0:	00 00 00 00 
    a0e4:	48 8d 85 68 ef ff ff 	lea    -0x1098(%rbp),%rax
    a0eb:	48 89 85 90 fa ff ff 	mov    %rax,-0x570(%rbp)
    a0f2:	48 8d 85 68 ef ff ff 	lea    -0x1098(%rbp),%rax
    a0f9:	48 89 85 98 fa ff ff 	mov    %rax,-0x568(%rbp)
    a100:	48 8d 85 68 ef ff ff 	lea    -0x1098(%rbp),%rax
    a107:	48 89 85 a0 fa ff ff 	mov    %rax,-0x560(%rbp)
    a10e:	48 8d 85 68 ef ff ff 	lea    -0x1098(%rbp),%rax
    a115:	48 89 85 a8 fa ff ff 	mov    %rax,-0x558(%rbp)
    a11c:	48 8d 85 68 ef ff ff 	lea    -0x1098(%rbp),%rax
    a123:	48 89 85 b0 fa ff ff 	mov    %rax,-0x550(%rbp)
    a12a:	48 8d 85 68 ef ff ff 	lea    -0x1098(%rbp),%rax
    a131:	48 89 85 b8 fa ff ff 	mov    %rax,-0x548(%rbp)
    a138:	48 8d 85 68 ef ff ff 	lea    -0x1098(%rbp),%rax
    a13f:	48 89 85 c0 fa ff ff 	mov    %rax,-0x540(%rbp)
    a146:	48 8d 85 68 ef ff ff 	lea    -0x1098(%rbp),%rax
    a14d:	48 89 85 c8 fa ff ff 	mov    %rax,-0x538(%rbp)
    a154:	48 8d 85 68 ef ff ff 	lea    -0x1098(%rbp),%rax
    a15b:	48 89 85 d0 fa ff ff 	mov    %rax,-0x530(%rbp)
    a162:	48 c7 85 d8 fa ff ff 	movq   $0x0,-0x528(%rbp)
    a169:	00 00 00 00 
    a16d:	48 c7 85 e0 fa ff ff 	movq   $0x0,-0x520(%rbp)
    a174:	00 00 00 00 
    a178:	48 8d 85 68 ef ff ff 	lea    -0x1098(%rbp),%rax
    a17f:	48 89 85 e8 fa ff ff 	mov    %rax,-0x518(%rbp)
    a186:	48 8d 85 68 ef ff ff 	lea    -0x1098(%rbp),%rax
    a18d:	48 89 85 f0 fa ff ff 	mov    %rax,-0x510(%rbp)
    a194:	48 8d 85 68 ef ff ff 	lea    -0x1098(%rbp),%rax
    a19b:	48 89 85 f8 fa ff ff 	mov    %rax,-0x508(%rbp)
    a1a2:	48 8d 85 68 ef ff ff 	lea    -0x1098(%rbp),%rax
    a1a9:	48 89 85 00 fb ff ff 	mov    %rax,-0x500(%rbp)
    a1b0:	48 8d 85 68 ef ff ff 	lea    -0x1098(%rbp),%rax
    a1b7:	48 89 85 08 fb ff ff 	mov    %rax,-0x4f8(%rbp)
    a1be:	48 8d 85 68 ef ff ff 	lea    -0x1098(%rbp),%rax
    a1c5:	48 89 85 10 fb ff ff 	mov    %rax,-0x4f0(%rbp)
    a1cc:	48 8d 85 68 ef ff ff 	lea    -0x1098(%rbp),%rax
    a1d3:	48 89 85 18 fb ff ff 	mov    %rax,-0x4e8(%rbp)
    a1da:	48 8d 85 68 ef ff ff 	lea    -0x1098(%rbp),%rax
    a1e1:	48 89 85 20 fb ff ff 	mov    %rax,-0x4e0(%rbp)
    a1e8:	48 8d 85 68 ef ff ff 	lea    -0x1098(%rbp),%rax
    a1ef:	48 89 85 28 fb ff ff 	mov    %rax,-0x4d8(%rbp)
    a1f6:	48 8d 85 68 ef ff ff 	lea    -0x1098(%rbp),%rax
    a1fd:	48 89 85 30 fb ff ff 	mov    %rax,-0x4d0(%rbp)
    a204:	48 8d 85 68 ef ff ff 	lea    -0x1098(%rbp),%rax
    a20b:	48 89 85 38 fb ff ff 	mov    %rax,-0x4c8(%rbp)
    a212:	48 c7 85 40 fb ff ff 	movq   $0x0,-0x4c0(%rbp)
    a219:	00 00 00 00 
    a21d:	48 8d 85 68 ef ff ff 	lea    -0x1098(%rbp),%rax
    a224:	48 89 85 48 fb ff ff 	mov    %rax,-0x4b8(%rbp)
    a22b:	48 8d 85 68 ef ff ff 	lea    -0x1098(%rbp),%rax
    a232:	48 89 85 50 fb ff ff 	mov    %rax,-0x4b0(%rbp)
    a239:	48 8d 85 68 ef ff ff 	lea    -0x1098(%rbp),%rax
    a240:	48 89 85 58 fb ff ff 	mov    %rax,-0x4a8(%rbp)
    a247:	48 8d 85 68 ef ff ff 	lea    -0x1098(%rbp),%rax
    a24e:	48 89 85 60 fb ff ff 	mov    %rax,-0x4a0(%rbp)
    a255:	48 8d 85 68 ef ff ff 	lea    -0x1098(%rbp),%rax
    a25c:	48 89 85 68 fb ff ff 	mov    %rax,-0x498(%rbp)
    a263:	48 c7 85 70 fb ff ff 	movq   $0x0,-0x490(%rbp)
    a26a:	00 00 00 00 
    a26e:	48 8d 85 68 ef ff ff 	lea    -0x1098(%rbp),%rax
    a275:	48 89 85 78 fb ff ff 	mov    %rax,-0x488(%rbp)
    a27c:	48 8d 85 68 ef ff ff 	lea    -0x1098(%rbp),%rax
    a283:	48 89 85 80 fb ff ff 	mov    %rax,-0x480(%rbp)
    a28a:	48 8d 85 68 ef ff ff 	lea    -0x1098(%rbp),%rax
    a291:	48 89 85 88 fb ff ff 	mov    %rax,-0x478(%rbp)
    a298:	48 8d 85 68 ef ff ff 	lea    -0x1098(%rbp),%rax
    a29f:	48 89 85 90 fb ff ff 	mov    %rax,-0x470(%rbp)
    a2a6:	48 c7 85 98 fb ff ff 	movq   $0x0,-0x468(%rbp)
    a2ad:	00 00 00 00 
    a2b1:	48 8d 85 68 ef ff ff 	lea    -0x1098(%rbp),%rax
    a2b8:	48 89 85 a0 fb ff ff 	mov    %rax,-0x460(%rbp)
    a2bf:	48 8d 85 68 ef ff ff 	lea    -0x1098(%rbp),%rax
    a2c6:	48 89 85 a8 fb ff ff 	mov    %rax,-0x458(%rbp)
    a2cd:	48 8d 85 68 ef ff ff 	lea    -0x1098(%rbp),%rax
    a2d4:	48 89 85 b0 fb ff ff 	mov    %rax,-0x450(%rbp)
    a2db:	48 8d 85 68 ef ff ff 	lea    -0x1098(%rbp),%rax
    a2e2:	48 89 85 b8 fb ff ff 	mov    %rax,-0x448(%rbp)
    a2e9:	48 8d 85 68 ef ff ff 	lea    -0x1098(%rbp),%rax
    a2f0:	48 89 85 c0 fb ff ff 	mov    %rax,-0x440(%rbp)
    a2f7:	48 8d 85 68 ef ff ff 	lea    -0x1098(%rbp),%rax
    a2fe:	48 89 85 c8 fb ff ff 	mov    %rax,-0x438(%rbp)
    a305:	48 c7 85 d0 fb ff ff 	movq   $0x0,-0x430(%rbp)
    a30c:	00 00 00 00 
    a310:	48 8d 85 68 ef ff ff 	lea    -0x1098(%rbp),%rax
    a317:	48 89 85 d8 fb ff ff 	mov    %rax,-0x428(%rbp)
    a31e:	48 c7 85 e0 fb ff ff 	movq   $0x0,-0x420(%rbp)
    a325:	00 00 00 00 
    a329:	48 8d 85 68 ef ff ff 	lea    -0x1098(%rbp),%rax
    a330:	48 89 85 e8 fb ff ff 	mov    %rax,-0x418(%rbp)
    a337:	48 8d 85 68 ef ff ff 	lea    -0x1098(%rbp),%rax
    a33e:	48 89 85 f0 fb ff ff 	mov    %rax,-0x410(%rbp)
    a345:	48 8d 85 68 ef ff ff 	lea    -0x1098(%rbp),%rax
    a34c:	48 89 85 f8 fb ff ff 	mov    %rax,-0x408(%rbp)
    a353:	48 8d 85 68 ef ff ff 	lea    -0x1098(%rbp),%rax
    a35a:	48 89 85 00 fc ff ff 	mov    %rax,-0x400(%rbp)
    a361:	48 8d 85 68 ef ff ff 	lea    -0x1098(%rbp),%rax
    a368:	48 89 85 08 fc ff ff 	mov    %rax,-0x3f8(%rbp)
    a36f:	48 8d 85 68 ef ff ff 	lea    -0x1098(%rbp),%rax
    a376:	48 89 85 10 fc ff ff 	mov    %rax,-0x3f0(%rbp)
    a37d:	48 8d 85 68 ef ff ff 	lea    -0x1098(%rbp),%rax
    a384:	48 89 85 18 fc ff ff 	mov    %rax,-0x3e8(%rbp)
    a38b:	48 8d 85 68 ef ff ff 	lea    -0x1098(%rbp),%rax
    a392:	48 89 85 20 fc ff ff 	mov    %rax,-0x3e0(%rbp)
    a399:	48 8d 85 68 ef ff ff 	lea    -0x1098(%rbp),%rax
    a3a0:	48 89 85 28 fc ff ff 	mov    %rax,-0x3d8(%rbp)
    a3a7:	48 c7 85 30 fc ff ff 	movq   $0x0,-0x3d0(%rbp)
    a3ae:	00 00 00 00 
    a3b2:	48 8d 85 68 ef ff ff 	lea    -0x1098(%rbp),%rax
    a3b9:	48 89 85 38 fc ff ff 	mov    %rax,-0x3c8(%rbp)
    a3c0:	48 8d 85 68 ef ff ff 	lea    -0x1098(%rbp),%rax
    a3c7:	48 89 85 40 fc ff ff 	mov    %rax,-0x3c0(%rbp)
    a3ce:	48 c7 85 48 fc ff ff 	movq   $0x0,-0x3b8(%rbp)
    a3d5:	00 00 00 00 
    a3d9:	48 c7 85 50 fc ff ff 	movq   $0x0,-0x3b0(%rbp)
    a3e0:	00 00 00 00 
    a3e4:	48 8d 85 68 ef ff ff 	lea    -0x1098(%rbp),%rax
    a3eb:	48 89 85 58 fc ff ff 	mov    %rax,-0x3a8(%rbp)
    a3f2:	48 8d 85 68 ef ff ff 	lea    -0x1098(%rbp),%rax
    a3f9:	48 89 85 60 fc ff ff 	mov    %rax,-0x3a0(%rbp)
    a400:	48 8d 85 68 ef ff ff 	lea    -0x1098(%rbp),%rax
    a407:	48 89 85 68 fc ff ff 	mov    %rax,-0x398(%rbp)
    a40e:	48 8d 85 68 ef ff ff 	lea    -0x1098(%rbp),%rax
    a415:	48 89 85 70 fc ff ff 	mov    %rax,-0x390(%rbp)
    a41c:	48 8d 85 68 ef ff ff 	lea    -0x1098(%rbp),%rax
    a423:	48 89 85 78 fc ff ff 	mov    %rax,-0x388(%rbp)
    a42a:	48 c7 85 80 fc ff ff 	movq   $0x0,-0x380(%rbp)
    a431:	00 00 00 00 
    a435:	48 8d 85 68 ef ff ff 	lea    -0x1098(%rbp),%rax
    a43c:	48 89 85 88 fc ff ff 	mov    %rax,-0x378(%rbp)
    a443:	48 c7 85 90 fc ff ff 	movq   $0x0,-0x370(%rbp)
    a44a:	00 00 00 00 
    a44e:	48 8d 85 68 ef ff ff 	lea    -0x1098(%rbp),%rax
    a455:	48 89 85 98 fc ff ff 	mov    %rax,-0x368(%rbp)
    a45c:	48 8d 85 68 ef ff ff 	lea    -0x1098(%rbp),%rax
    a463:	48 89 85 a0 fc ff ff 	mov    %rax,-0x360(%rbp)
    a46a:	48 8d 85 68 ef ff ff 	lea    -0x1098(%rbp),%rax
    a471:	48 89 85 a8 fc ff ff 	mov    %rax,-0x358(%rbp)
    a478:	48 8d 85 68 ef ff ff 	lea    -0x1098(%rbp),%rax
    a47f:	48 89 85 b0 fc ff ff 	mov    %rax,-0x350(%rbp)
    a486:	48 c7 85 b8 fc ff ff 	movq   $0x0,-0x348(%rbp)
    a48d:	00 00 00 00 
    a491:	48 c7 85 c0 fc ff ff 	movq   $0x0,-0x340(%rbp)
    a498:	00 00 00 00 
    a49c:	48 c7 85 c8 fc ff ff 	movq   $0x0,-0x338(%rbp)
    a4a3:	00 00 00 00 
    a4a7:	48 c7 85 d0 fc ff ff 	movq   $0x0,-0x330(%rbp)
    a4ae:	00 00 00 00 
    a4b2:	48 c7 85 d8 fc ff ff 	movq   $0x0,-0x328(%rbp)
    a4b9:	00 00 00 00 
    a4bd:	48 8d 85 68 ef ff ff 	lea    -0x1098(%rbp),%rax
    a4c4:	48 89 85 e0 fc ff ff 	mov    %rax,-0x320(%rbp)
    a4cb:	48 8d 85 68 ef ff ff 	lea    -0x1098(%rbp),%rax
    a4d2:	48 89 85 e8 fc ff ff 	mov    %rax,-0x318(%rbp)
    a4d9:	48 c7 85 f0 fc ff ff 	movq   $0x0,-0x310(%rbp)
    a4e0:	00 00 00 00 
    a4e4:	48 8d 85 68 ef ff ff 	lea    -0x1098(%rbp),%rax
    a4eb:	48 89 85 f8 fc ff ff 	mov    %rax,-0x308(%rbp)
    a4f2:	48 8d 85 68 ef ff ff 	lea    -0x1098(%rbp),%rax
    a4f9:	48 89 85 00 fd ff ff 	mov    %rax,-0x300(%rbp)
    a500:	48 8d 85 68 ef ff ff 	lea    -0x1098(%rbp),%rax
    a507:	48 89 85 08 fd ff ff 	mov    %rax,-0x2f8(%rbp)
    a50e:	48 8d 85 68 ef ff ff 	lea    -0x1098(%rbp),%rax
    a515:	48 89 85 10 fd ff ff 	mov    %rax,-0x2f0(%rbp)
    a51c:	48 8d 85 68 ef ff ff 	lea    -0x1098(%rbp),%rax
    a523:	48 89 85 18 fd ff ff 	mov    %rax,-0x2e8(%rbp)
    a52a:	48 8d 85 68 ef ff ff 	lea    -0x1098(%rbp),%rax
    a531:	48 89 85 20 fd ff ff 	mov    %rax,-0x2e0(%rbp)
    a538:	48 8d 85 68 ef ff ff 	lea    -0x1098(%rbp),%rax
    a53f:	48 89 85 28 fd ff ff 	mov    %rax,-0x2d8(%rbp)
    a546:	48 8d 85 68 ef ff ff 	lea    -0x1098(%rbp),%rax
    a54d:	48 89 85 30 fd ff ff 	mov    %rax,-0x2d0(%rbp)
    a554:	48 8d 85 68 ef ff ff 	lea    -0x1098(%rbp),%rax
    a55b:	48 89 85 38 fd ff ff 	mov    %rax,-0x2c8(%rbp)
    a562:	48 8d 85 68 ef ff ff 	lea    -0x1098(%rbp),%rax
    a569:	48 89 85 40 fd ff ff 	mov    %rax,-0x2c0(%rbp)
    a570:	48 c7 85 48 fd ff ff 	movq   $0x0,-0x2b8(%rbp)
    a577:	00 00 00 00 
    a57b:	48 8d 85 68 ef ff ff 	lea    -0x1098(%rbp),%rax
    a582:	48 89 85 50 fd ff ff 	mov    %rax,-0x2b0(%rbp)
    a589:	48 8d 85 68 ef ff ff 	lea    -0x1098(%rbp),%rax
    a590:	48 89 85 58 fd ff ff 	mov    %rax,-0x2a8(%rbp)
    a597:	48 c7 85 60 fd ff ff 	movq   $0x0,-0x2a0(%rbp)
    a59e:	00 00 00 00 
    a5a2:	48 c7 85 68 fd ff ff 	movq   $0x0,-0x298(%rbp)
    a5a9:	00 00 00 00 
    a5ad:	48 c7 85 70 fd ff ff 	movq   $0x0,-0x290(%rbp)
    a5b4:	00 00 00 00 
    a5b8:	48 8d 85 68 ef ff ff 	lea    -0x1098(%rbp),%rax
    a5bf:	48 89 85 78 fd ff ff 	mov    %rax,-0x288(%rbp)
    a5c6:	48 8d 85 68 ef ff ff 	lea    -0x1098(%rbp),%rax
    a5cd:	48 89 85 80 fd ff ff 	mov    %rax,-0x280(%rbp)
    a5d4:	48 8d 85 68 ef ff ff 	lea    -0x1098(%rbp),%rax
    a5db:	48 89 85 88 fd ff ff 	mov    %rax,-0x278(%rbp)
    a5e2:	48 c7 85 90 fd ff ff 	movq   $0x0,-0x270(%rbp)
    a5e9:	00 00 00 00 
    a5ed:	48 8d 85 68 ef ff ff 	lea    -0x1098(%rbp),%rax
    a5f4:	48 89 85 98 fd ff ff 	mov    %rax,-0x268(%rbp)
    a5fb:	48 8d 85 68 ef ff ff 	lea    -0x1098(%rbp),%rax
    a602:	48 89 85 a0 fd ff ff 	mov    %rax,-0x260(%rbp)
    a609:	48 8d 85 68 ef ff ff 	lea    -0x1098(%rbp),%rax
    a610:	48 89 85 a8 fd ff ff 	mov    %rax,-0x258(%rbp)
    a617:	48 c7 85 b0 fd ff ff 	movq   $0x0,-0x250(%rbp)
    a61e:	00 00 00 00 
    a622:	48 8d 85 68 ef ff ff 	lea    -0x1098(%rbp),%rax
    a629:	48 89 85 b8 fd ff ff 	mov    %rax,-0x248(%rbp)
    a630:	48 c7 85 c0 fd ff ff 	movq   $0x0,-0x240(%rbp)
    a637:	00 00 00 00 
    a63b:	48 8d 85 68 ef ff ff 	lea    -0x1098(%rbp),%rax
    a642:	48 89 85 c8 fd ff ff 	mov    %rax,-0x238(%rbp)
    a649:	48 8d 85 68 ef ff ff 	lea    -0x1098(%rbp),%rax
    a650:	48 89 85 d0 fd ff ff 	mov    %rax,-0x230(%rbp)
    a657:	48 8d 85 68 ef ff ff 	lea    -0x1098(%rbp),%rax
    a65e:	48 89 85 d8 fd ff ff 	mov    %rax,-0x228(%rbp)
    a665:	48 8d 85 68 ef ff ff 	lea    -0x1098(%rbp),%rax
    a66c:	48 89 85 e0 fd ff ff 	mov    %rax,-0x220(%rbp)
    a673:	48 8d 85 68 ef ff ff 	lea    -0x1098(%rbp),%rax
    a67a:	48 89 85 e8 fd ff ff 	mov    %rax,-0x218(%rbp)
    a681:	48 8d 85 68 ef ff ff 	lea    -0x1098(%rbp),%rax
    a688:	48 89 85 f0 fd ff ff 	mov    %rax,-0x210(%rbp)
    a68f:	48 8d 85 68 ef ff ff 	lea    -0x1098(%rbp),%rax
    a696:	48 89 85 f8 fd ff ff 	mov    %rax,-0x208(%rbp)
    a69d:	48 8d 85 68 ef ff ff 	lea    -0x1098(%rbp),%rax
    a6a4:	48 89 85 00 fe ff ff 	mov    %rax,-0x200(%rbp)
    a6ab:	48 8d 85 68 ef ff ff 	lea    -0x1098(%rbp),%rax
    a6b2:	48 89 85 08 fe ff ff 	mov    %rax,-0x1f8(%rbp)
    a6b9:	48 8d 85 68 ef ff ff 	lea    -0x1098(%rbp),%rax
    a6c0:	48 89 85 10 fe ff ff 	mov    %rax,-0x1f0(%rbp)
    a6c7:	48 8d 85 68 ef ff ff 	lea    -0x1098(%rbp),%rax
    a6ce:	48 89 85 18 fe ff ff 	mov    %rax,-0x1e8(%rbp)
    a6d5:	48 8d 85 68 ef ff ff 	lea    -0x1098(%rbp),%rax
    a6dc:	48 89 85 20 fe ff ff 	mov    %rax,-0x1e0(%rbp)
    a6e3:	48 8d 85 68 ef ff ff 	lea    -0x1098(%rbp),%rax
    a6ea:	48 89 85 28 fe ff ff 	mov    %rax,-0x1d8(%rbp)
    a6f1:	48 c7 85 30 fe ff ff 	movq   $0x0,-0x1d0(%rbp)
    a6f8:	00 00 00 00 
    a6fc:	48 8d 85 68 ef ff ff 	lea    -0x1098(%rbp),%rax
    a703:	48 89 85 38 fe ff ff 	mov    %rax,-0x1c8(%rbp)
    a70a:	48 8d 85 68 ef ff ff 	lea    -0x1098(%rbp),%rax
    a711:	48 89 85 40 fe ff ff 	mov    %rax,-0x1c0(%rbp)
    a718:	48 8d 85 68 ef ff ff 	lea    -0x1098(%rbp),%rax
    a71f:	48 89 85 48 fe ff ff 	mov    %rax,-0x1b8(%rbp)
    a726:	48 c7 85 50 fe ff ff 	movq   $0x0,-0x1b0(%rbp)
    a72d:	00 00 00 00 
    a731:	48 8d 85 68 ef ff ff 	lea    -0x1098(%rbp),%rax
    a738:	48 89 85 58 fe ff ff 	mov    %rax,-0x1a8(%rbp)
    a73f:	48 c7 85 60 fe ff ff 	movq   $0x0,-0x1a0(%rbp)
    a746:	00 00 00 00 
    a74a:	48 8d 85 68 ef ff ff 	lea    -0x1098(%rbp),%rax
    a751:	48 89 85 68 fe ff ff 	mov    %rax,-0x198(%rbp)
    a758:	48 8d 85 68 ef ff ff 	lea    -0x1098(%rbp),%rax
    a75f:	48 89 85 70 fe ff ff 	mov    %rax,-0x190(%rbp)
    a766:	48 8d 85 68 ef ff ff 	lea    -0x1098(%rbp),%rax
    a76d:	48 89 85 78 fe ff ff 	mov    %rax,-0x188(%rbp)
    a774:	48 8d 85 68 ef ff ff 	lea    -0x1098(%rbp),%rax
    a77b:	48 89 85 80 fe ff ff 	mov    %rax,-0x180(%rbp)
    a782:	48 8d 85 68 ef ff ff 	lea    -0x1098(%rbp),%rax
    a789:	48 89 85 88 fe ff ff 	mov    %rax,-0x178(%rbp)
    a790:	48 c7 85 90 fe ff ff 	movq   $0x0,-0x170(%rbp)
    a797:	00 00 00 00 
    a79b:	48 8d 85 68 ef ff ff 	lea    -0x1098(%rbp),%rax
    a7a2:	48 89 85 98 fe ff ff 	mov    %rax,-0x168(%rbp)
    a7a9:	48 c7 85 a0 fe ff ff 	movq   $0x0,-0x160(%rbp)
    a7b0:	00 00 00 00 
    a7b4:	48 c7 85 a8 fe ff ff 	movq   $0x0,-0x158(%rbp)
    a7bb:	00 00 00 00 
    a7bf:	48 8d 85 68 ef ff ff 	lea    -0x1098(%rbp),%rax
    a7c6:	48 89 85 b0 fe ff ff 	mov    %rax,-0x150(%rbp)
    a7cd:	48 8d 85 68 ef ff ff 	lea    -0x1098(%rbp),%rax
    a7d4:	48 89 85 b8 fe ff ff 	mov    %rax,-0x148(%rbp)
    a7db:	48 8d 85 68 ef ff ff 	lea    -0x1098(%rbp),%rax
    a7e2:	48 89 85 c0 fe ff ff 	mov    %rax,-0x140(%rbp)
    a7e9:	48 8d 85 68 ef ff ff 	lea    -0x1098(%rbp),%rax
    a7f0:	48 89 85 c8 fe ff ff 	mov    %rax,-0x138(%rbp)
    a7f7:	48 c7 85 d0 fe ff ff 	movq   $0x0,-0x130(%rbp)
    a7fe:	00 00 00 00 
    a802:	48 8d 85 68 ef ff ff 	lea    -0x1098(%rbp),%rax
    a809:	48 89 85 d8 fe ff ff 	mov    %rax,-0x128(%rbp)
    a810:	48 8d 85 68 ef ff ff 	lea    -0x1098(%rbp),%rax
    a817:	48 89 85 e0 fe ff ff 	mov    %rax,-0x120(%rbp)
    a81e:	48 8d 85 68 ef ff ff 	lea    -0x1098(%rbp),%rax
    a825:	48 89 85 e8 fe ff ff 	mov    %rax,-0x118(%rbp)
    a82c:	48 c7 85 f0 fe ff ff 	movq   $0x0,-0x110(%rbp)
    a833:	00 00 00 00 
    a837:	48 8d 85 68 ef ff ff 	lea    -0x1098(%rbp),%rax
    a83e:	48 89 85 f8 fe ff ff 	mov    %rax,-0x108(%rbp)
    a845:	48 8d 85 68 ef ff ff 	lea    -0x1098(%rbp),%rax
    a84c:	48 89 85 00 ff ff ff 	mov    %rax,-0x100(%rbp)
    a853:	48 8d 85 68 ef ff ff 	lea    -0x1098(%rbp),%rax
    a85a:	48 89 85 08 ff ff ff 	mov    %rax,-0xf8(%rbp)
    a861:	48 8d 85 68 ef ff ff 	lea    -0x1098(%rbp),%rax
    a868:	48 89 85 10 ff ff ff 	mov    %rax,-0xf0(%rbp)
    a86f:	48 8d 85 68 ef ff ff 	lea    -0x1098(%rbp),%rax
    a876:	48 89 85 18 ff ff ff 	mov    %rax,-0xe8(%rbp)
    a87d:	48 8d 85 68 ef ff ff 	lea    -0x1098(%rbp),%rax
    a884:	48 89 85 20 ff ff ff 	mov    %rax,-0xe0(%rbp)
    a88b:	48 c7 85 28 ff ff ff 	movq   $0x0,-0xd8(%rbp)
    a892:	00 00 00 00 
    a896:	48 8d 85 68 ef ff ff 	lea    -0x1098(%rbp),%rax
    a89d:	48 89 85 30 ff ff ff 	mov    %rax,-0xd0(%rbp)
    a8a4:	48 8d 85 68 ef ff ff 	lea    -0x1098(%rbp),%rax
    a8ab:	48 89 85 38 ff ff ff 	mov    %rax,-0xc8(%rbp)
    a8b2:	48 8d 85 68 ef ff ff 	lea    -0x1098(%rbp),%rax
    a8b9:	48 89 85 40 ff ff ff 	mov    %rax,-0xc0(%rbp)
    a8c0:	48 c7 85 48 ff ff ff 	movq   $0x0,-0xb8(%rbp)
    a8c7:	00 00 00 00 
    a8cb:	48 c7 85 50 ff ff ff 	movq   $0x0,-0xb0(%rbp)
    a8d2:	00 00 00 00 
    a8d6:	48 c7 85 58 ff ff ff 	movq   $0x0,-0xa8(%rbp)
    a8dd:	00 00 00 00 
    a8e1:	48 8d 85 68 ef ff ff 	lea    -0x1098(%rbp),%rax
    a8e8:	48 89 85 60 ff ff ff 	mov    %rax,-0xa0(%rbp)
    a8ef:	48 c7 85 68 ff ff ff 	movq   $0x0,-0x98(%rbp)
    a8f6:	00 00 00 00 
    a8fa:	48 c7 85 70 ff ff ff 	movq   $0x0,-0x90(%rbp)
    a901:	00 00 00 00 
    a905:	48 8d 85 68 ef ff ff 	lea    -0x1098(%rbp),%rax
    a90c:	48 89 85 78 ff ff ff 	mov    %rax,-0x88(%rbp)
    a913:	48 8d 85 68 ef ff ff 	lea    -0x1098(%rbp),%rax
    a91a:	48 89 45 80          	mov    %rax,-0x80(%rbp)
    a91e:	48 8d 85 68 ef ff ff 	lea    -0x1098(%rbp),%rax
    a925:	48 89 45 88          	mov    %rax,-0x78(%rbp)
    a929:	48 8d 85 68 ef ff ff 	lea    -0x1098(%rbp),%rax
    a930:	48 89 45 90          	mov    %rax,-0x70(%rbp)
    a934:	48 8d 85 68 ef ff ff 	lea    -0x1098(%rbp),%rax
    a93b:	48 89 45 98          	mov    %rax,-0x68(%rbp)
    a93f:	48 8d 85 68 ef ff ff 	lea    -0x1098(%rbp),%rax
    a946:	48 89 45 a0          	mov    %rax,-0x60(%rbp)
    a94a:	48 8d 85 68 ef ff ff 	lea    -0x1098(%rbp),%rax
    a951:	48 89 45 a8          	mov    %rax,-0x58(%rbp)
    a955:	48 c7 45 b0 00 00 00 	movq   $0x0,-0x50(%rbp)
    a95c:	00 
    a95d:	48 8d 85 68 ef ff ff 	lea    -0x1098(%rbp),%rax
    a964:	48 89 45 b8          	mov    %rax,-0x48(%rbp)
    a968:	48 8d 85 68 ef ff ff 	lea    -0x1098(%rbp),%rax
    a96f:	48 89 45 c0          	mov    %rax,-0x40(%rbp)
    a973:	48 8d 85 68 ef ff ff 	lea    -0x1098(%rbp),%rax
    a97a:	48 89 45 c8          	mov    %rax,-0x38(%rbp)
    a97e:	48 8d 85 68 ef ff ff 	lea    -0x1098(%rbp),%rax
    a985:	48 89 45 d0          	mov    %rax,-0x30(%rbp)
    a989:	48 c7 45 d8 00 00 00 	movq   $0x0,-0x28(%rbp)
    a990:	00 
    a991:	48 c7 45 e0 00 00 00 	movq   $0x0,-0x20(%rbp)
    a998:	00 
    a999:	48 8d 85 68 ef ff ff 	lea    -0x1098(%rbp),%rax
    a9a0:	48 89 45 e8          	mov    %rax,-0x18(%rbp)
    a9a4:	48 b8 f7 f1 6e 7e 03 	movabs $0xaaeb7c037e6ef1f7,%rax
    a9ab:	7c eb aa 
    a9ae:	48 89 85 c0 ef ff ff 	mov    %rax,-0x1040(%rbp)
    a9b5:	48 c7 85 70 ef ff ff 	movq   $0x0,-0x1090(%rbp)
    a9bc:	00 00 00 00 
    a9c0:	48 8d 85 70 ef ff ff 	lea    -0x1090(%rbp),%rax
    a9c7:	48 89 85 c8 ef ff ff 	mov    %rax,-0x1038(%rbp)
    a9ce:	c7 85 44 ef ff ff 9d 	movl   $0x4b9ea69d,-0x10bc(%rbp)
    a9d5:	a6 9e 4b 
    a9d8:	c7 85 48 ef ff ff f7 	movl   $0xfffffff7,-0x10b8(%rbp)
    a9df:	ff ff ff 
    a9e2:	c6 85 07 ef ff ff ee 	movb   $0xee,-0x10f9(%rbp)
    a9e9:	48 8d 05 50 9b 00 00 	lea    0x9b50(%rip),%rax        # 14540 <g_282>
    a9f0:	48 89 85 d0 ef ff ff 	mov    %rax,-0x1030(%rbp)
    a9f7:	c7 85 4c ef ff ff 72 	movl   $0x27425572,-0x10b4(%rbp)
    a9fe:	55 42 27 
    aa01:	48 8d 85 0c ef ff ff 	lea    -0x10f4(%rbp),%rax
    aa08:	48 89 85 d8 ef ff ff 	mov    %rax,-0x1028(%rbp)
    aa0f:	66 c7 85 0a ef ff ff 	movw   $0xffff,-0x10f6(%rbp)
    aa16:	ff ff 
    aa18:	c7 85 50 ef ff ff fb 	movl   $0xfffffffb,-0x10b0(%rbp)
    aa1f:	ff ff ff 
    aa22:	c7 85 54 ef ff ff 04 	movl   $0x336c0304,-0x10ac(%rbp)
    aa29:	03 6c 33 
    aa2c:	c7 85 14 ef ff ff 00 	movl   $0x0,-0x10ec(%rbp)
    aa33:	00 00 00 
    aa36:	eb 1a                	jmp    aa52 <func_65+0xf33>
    aa38:	8b 85 14 ef ff ff    	mov    -0x10ec(%rbp),%eax
    aa3e:	48 98                	cltq   
    aa40:	c7 84 85 f0 ef ff ff 	movl   $0xecf404f4,-0x1010(%rbp,%rax,4)
    aa47:	f4 04 f4 ec 
    aa4b:	83 85 14 ef ff ff 01 	addl   $0x1,-0x10ec(%rbp)
    aa52:	83 bd 14 ef ff ff 01 	cmpl   $0x1,-0x10ec(%rbp)
    aa59:	7e dd                	jle    aa38 <func_65+0xf19>
    aa5b:	c7 85 14 ef ff ff 00 	movl   $0x0,-0x10ec(%rbp)
    aa62:	00 00 00 
    aa65:	eb 1a                	jmp    aa81 <func_65+0xf62>
    aa67:	8b 85 14 ef ff ff    	mov    -0x10ec(%rbp),%eax
    aa6d:	48 98                	cltq   
    aa6f:	c7 84 85 f8 ef ff ff 	movl   $0xffffffff,-0x1008(%rbp,%rax,4)
    aa76:	ff ff ff ff 
    aa7a:	83 85 14 ef ff ff 01 	addl   $0x1,-0x10ec(%rbp)
    aa81:	83 bd 14 ef ff ff 01 	cmpl   $0x1,-0x10ec(%rbp)
    aa88:	7e dd                	jle    aa67 <func_65+0xf48>
    aa8a:	c7 85 18 ef ff ff 00 	movl   $0x0,-0x10e8(%rbp)
    aa91:	00 00 00 
    aa94:	83 bd 18 ef ff ff 03 	cmpl   $0x3,-0x10e8(%rbp)
    aa9b:	0f 8f 25 02 00 00    	jg     acc6 <func_65+0x11a7>
    aaa1:	48 8d 85 10 f1 ff ff 	lea    -0xef0(%rbp),%rax
    aaa8:	48 8d 15 d1 c5 00 00 	lea    0xc5d1(%rip),%rdx        # 17080 <g_2153+0x170>
    aaaf:	b9 23 00 00 00       	mov    $0x23,%ecx
    aab4:	48 89 c7             	mov    %rax,%rdi
    aab7:	48 89 d6             	mov    %rdx,%rsi
    aaba:	f3 48 a5             	rep movsq %ds:(%rsi),%es:(%rdi)
    aabd:	8b 85 18 ef ff ff    	mov    -0x10e8(%rbp),%eax
    aac3:	48 63 d0             	movslq %eax,%rdx
    aac6:	48 89 d0             	mov    %rdx,%rax
    aac9:	48 c1 e0 03          	shl    $0x3,%rax
    aacd:	48 29 d0             	sub    %rdx,%rax
    aad0:	48 01 c0             	add    %rax,%rax
    aad3:	48 89 c2             	mov    %rax,%rdx
    aad6:	48 8d 05 c3 97 00 00 	lea    0x97c3(%rip),%rax        # 142a0 <g_93>
    aadd:	0f b7 04 02          	movzwl (%rdx,%rax,1),%eax
    aae1:	66 85 c0             	test   %ax,%ax
    aae4:	74 0c                	je     aaf2 <func_65+0xfd3>
    aae6:	48 8d 05 3b 95 00 00 	lea    0x953b(%rip),%rax        # 14028 <g_5>
    aaed:	e9 1a 02 00 00       	jmpq   ad0c <func_65+0x11ed>
    aaf2:	48 c7 85 e0 ef ff ff 	movq   $0x0,-0x1020(%rbp)
    aaf9:	00 00 00 00 
    aafd:	48 8d 85 60 ef ff ff 	lea    -0x10a0(%rbp),%rax
    ab04:	48 89 85 78 ef ff ff 	mov    %rax,-0x1088(%rbp)
    ab0b:	48 8d 85 78 ef ff ff 	lea    -0x1088(%rbp),%rax
    ab12:	48 89 85 20 f0 ff ff 	mov    %rax,-0xfe0(%rbp)
    ab19:	48 8d 85 78 ef ff ff 	lea    -0x1088(%rbp),%rax
    ab20:	48 89 85 28 f0 ff ff 	mov    %rax,-0xfd8(%rbp)
    ab27:	48 8d 85 78 ef ff ff 	lea    -0x1088(%rbp),%rax
    ab2e:	48 89 85 30 f0 ff ff 	mov    %rax,-0xfd0(%rbp)
    ab35:	48 8d 85 78 ef ff ff 	lea    -0x1088(%rbp),%rax
    ab3c:	48 89 85 38 f0 ff ff 	mov    %rax,-0xfc8(%rbp)
    ab43:	48 8d 85 78 ef ff ff 	lea    -0x1088(%rbp),%rax
    ab4a:	48 89 85 40 f0 ff ff 	mov    %rax,-0xfc0(%rbp)
    ab51:	48 8d 85 78 ef ff ff 	lea    -0x1088(%rbp),%rax
    ab58:	48 89 85 48 f0 ff ff 	mov    %rax,-0xfb8(%rbp)
    ab5f:	48 8d 85 78 ef ff ff 	lea    -0x1088(%rbp),%rax
    ab66:	48 89 85 50 f0 ff ff 	mov    %rax,-0xfb0(%rbp)
    ab6d:	48 8d 85 78 ef ff ff 	lea    -0x1088(%rbp),%rax
    ab74:	48 89 85 58 f0 ff ff 	mov    %rax,-0xfa8(%rbp)
    ab7b:	48 8d 85 78 ef ff ff 	lea    -0x1088(%rbp),%rax
    ab82:	48 89 85 60 f0 ff ff 	mov    %rax,-0xfa0(%rbp)
    ab89:	48 8d 85 78 ef ff ff 	lea    -0x1088(%rbp),%rax
    ab90:	48 89 85 68 f0 ff ff 	mov    %rax,-0xf98(%rbp)
    ab97:	48 8d 85 78 ef ff ff 	lea    -0x1088(%rbp),%rax
    ab9e:	48 89 85 70 f0 ff ff 	mov    %rax,-0xf90(%rbp)
    aba5:	48 8d 85 78 ef ff ff 	lea    -0x1088(%rbp),%rax
    abac:	48 89 85 78 f0 ff ff 	mov    %rax,-0xf88(%rbp)
    abb3:	48 8d 85 78 ef ff ff 	lea    -0x1088(%rbp),%rax
    abba:	48 89 85 80 f0 ff ff 	mov    %rax,-0xf80(%rbp)
    abc1:	48 8d 85 78 ef ff ff 	lea    -0x1088(%rbp),%rax
    abc8:	48 89 85 88 f0 ff ff 	mov    %rax,-0xf78(%rbp)
    abcf:	48 8d 85 78 ef ff ff 	lea    -0x1088(%rbp),%rax
    abd6:	48 89 85 90 f0 ff ff 	mov    %rax,-0xf70(%rbp)
    abdd:	48 8d 85 78 ef ff ff 	lea    -0x1088(%rbp),%rax
    abe4:	48 89 85 98 f0 ff ff 	mov    %rax,-0xf68(%rbp)
    abeb:	48 8d 85 78 ef ff ff 	lea    -0x1088(%rbp),%rax
    abf2:	48 89 85 a0 f0 ff ff 	mov    %rax,-0xf60(%rbp)
    abf9:	48 8d 85 78 ef ff ff 	lea    -0x1088(%rbp),%rax
    ac00:	48 89 85 a8 f0 ff ff 	mov    %rax,-0xf58(%rbp)
    ac07:	48 8d 85 78 ef ff ff 	lea    -0x1088(%rbp),%rax
    ac0e:	48 89 85 b0 f0 ff ff 	mov    %rax,-0xf50(%rbp)
    ac15:	48 8d 85 78 ef ff ff 	lea    -0x1088(%rbp),%rax
    ac1c:	48 89 85 b8 f0 ff ff 	mov    %rax,-0xf48(%rbp)
    ac23:	48 8d 85 78 ef ff ff 	lea    -0x1088(%rbp),%rax
    ac2a:	48 89 85 c0 f0 ff ff 	mov    %rax,-0xf40(%rbp)
    ac31:	48 8d 85 78 ef ff ff 	lea    -0x1088(%rbp),%rax
    ac38:	48 89 85 c8 f0 ff ff 	mov    %rax,-0xf38(%rbp)
    ac3f:	48 8d 85 78 ef ff ff 	lea    -0x1088(%rbp),%rax
    ac46:	48 89 85 d0 f0 ff ff 	mov    %rax,-0xf30(%rbp)
    ac4d:	48 8d 85 78 ef ff ff 	lea    -0x1088(%rbp),%rax
    ac54:	48 89 85 d8 f0 ff ff 	mov    %rax,-0xf28(%rbp)
    ac5b:	48 8d 85 78 ef ff ff 	lea    -0x1088(%rbp),%rax
    ac62:	48 89 85 e0 f0 ff ff 	mov    %rax,-0xf20(%rbp)
    ac69:	48 8d 85 78 ef ff ff 	lea    -0x1088(%rbp),%rax
    ac70:	48 89 85 e8 f0 ff ff 	mov    %rax,-0xf18(%rbp)
    ac77:	48 8d 85 78 ef ff ff 	lea    -0x1088(%rbp),%rax
    ac7e:	48 89 85 f0 f0 ff ff 	mov    %rax,-0xf10(%rbp)
    ac85:	48 8d 85 78 ef ff ff 	lea    -0x1088(%rbp),%rax
    ac8c:	48 89 85 f8 f0 ff ff 	mov    %rax,-0xf08(%rbp)
    ac93:	48 8d 85 78 ef ff ff 	lea    -0x1088(%rbp),%rax
    ac9a:	48 89 85 00 f1 ff ff 	mov    %rax,-0xf00(%rbp)
    aca1:	48 8d 85 78 ef ff ff 	lea    -0x1088(%rbp),%rax
    aca8:	48 89 85 08 f1 ff ff 	mov    %rax,-0xef8(%rbp)
    acaf:	48 8d 85 60 ef ff ff 	lea    -0x10a0(%rbp),%rax
    acb6:	48 89 85 68 ef ff ff 	mov    %rax,-0x1098(%rbp)
    acbd:	48 8b 85 68 f1 ff ff 	mov    -0xe98(%rbp),%rax
    acc4:	eb 46                	jmp    ad0c <func_65+0x11ed>
    acc6:	66 81 8d 08 ef ff ff 	orw    $0xac6b,-0x10f8(%rbp)
    accd:	6b ac 
    accf:	48 8b 05 d2 d5 00 00 	mov    0xd5d2(%rip),%rax        # 182a8 <g_91>
    acd6:	48 83 e8 01          	sub    $0x1,%rax
    acda:	48 89 05 c7 d5 00 00 	mov    %rax,0xd5c7(%rip)        # 182a8 <g_91>
    ace1:	48 8b 05 c0 d5 00 00 	mov    0xd5c0(%rip),%rax        # 182a8 <g_91>
    ace8:	48 85 c0             	test   %rax,%rax
    aceb:	0f 89 27 f1 ff ff    	jns    9e18 <func_65+0x2f9>
    acf1:	48 8b 85 80 ef ff ff 	mov    -0x1080(%rbp),%rax
    acf8:	48 8b 95 b8 ef ff ff 	mov    -0x1048(%rbp),%rdx
    acff:	48 89 10             	mov    %rdx,(%rax)
    ad02:	48 8b 05 9f c4 00 00 	mov    0xc49f(%rip),%rax        # 171a8 <g_106>
    ad09:	48 8b 00             	mov    (%rax),%rax
    ad0c:	48 8b 75 f8          	mov    -0x8(%rbp),%rsi
    ad10:	64 48 33 34 25 28 00 	xor    %fs:0x28,%rsi
    ad17:	00 00 
    ad19:	74 05                	je     ad20 <func_65+0x1201>
    ad1b:	e8 50 93 ff ff       	callq  4070 <__stack_chk_fail@plt>
    ad20:	c9                   	leaveq 
    ad21:	c3                   	retq   

000000000000ad22 <main>:
    ad22:	f3 0f 1e fa          	endbr64 
    ad26:	55                   	push   %rbp
    ad27:	48 89 e5             	mov    %rsp,%rbp
    ad2a:	48 83 ec 20          	sub    $0x20,%rsp
    ad2e:	89 7d ec             	mov    %edi,-0x14(%rbp)
    ad31:	48 89 75 e0          	mov    %rsi,-0x20(%rbp)
    ad35:	c7 45 fc 00 00 00 00 	movl   $0x0,-0x4(%rbp)
    ad3c:	83 7d ec 02          	cmpl   $0x2,-0x14(%rbp)
    ad40:	75 25                	jne    ad67 <main+0x45>
    ad42:	48 8b 45 e0          	mov    -0x20(%rbp),%rax
    ad46:	48 83 c0 08          	add    $0x8,%rax
    ad4a:	48 8b 00             	mov    (%rax),%rax
    ad4d:	48 8d 35 ac 54 00 00 	lea    0x54ac(%rip),%rsi        # 10200 <g_1955+0x1128>
    ad54:	48 89 c7             	mov    %rax,%rdi
    ad57:	e8 34 93 ff ff       	callq  4090 <strcmp@plt>
    ad5c:	85 c0                	test   %eax,%eax
    ad5e:	75 07                	jne    ad67 <main+0x45>
    ad60:	c7 45 fc 01 00 00 00 	movl   $0x1,-0x4(%rbp)
    ad67:	e8 1d 94 ff ff       	callq  4189 <platform_main_begin>
    ad6c:	e8 27 a8 ff ff       	callq  5598 <crc32_gentab>
    ad71:	e8 3f aa ff ff       	callq  57b5 <func_1>
    ad76:	8b 05 a8 92 00 00    	mov    0x92a8(%rip),%eax        # 14024 <g_3>
    ad7c:	48 98                	cltq   
    ad7e:	8b 55 fc             	mov    -0x4(%rbp),%edx
    ad81:	48 8d 35 7a 54 00 00 	lea    0x547a(%rip),%rsi        # 10202 <g_1955+0x112a>
    ad88:	48 89 c7             	mov    %rax,%rdi
    ad8b:	e8 63 a9 ff ff       	callq  56f3 <transparent_crc>
    ad90:	48 8b 05 91 92 00 00 	mov    0x9291(%rip),%rax        # 14028 <g_5>
    ad97:	8b 55 fc             	mov    -0x4(%rbp),%edx
    ad9a:	48 8d 35 65 54 00 00 	lea    0x5465(%rip),%rsi        # 10206 <g_1955+0x112e>
    ada1:	48 89 c7             	mov    %rax,%rdi
    ada4:	e8 4a a9 ff ff       	callq  56f3 <transparent_crc>
    ada9:	0f b6 05 80 92 00 00 	movzbl 0x9280(%rip),%eax        # 14030 <g_21>
    adb0:	0f b6 c0             	movzbl %al,%eax
    adb3:	8b 55 fc             	mov    -0x4(%rbp),%edx
    adb6:	48 8d 35 4d 54 00 00 	lea    0x544d(%rip),%rsi        # 1020a <g_1955+0x1132>
    adbd:	48 89 c7             	mov    %rax,%rdi
    adc0:	e8 2e a9 ff ff       	callq  56f3 <transparent_crc>
    adc5:	0f b6 05 65 92 00 00 	movzbl 0x9265(%rip),%eax        # 14031 <g_37>
    adcc:	0f b6 c0             	movzbl %al,%eax
    adcf:	8b 55 fc             	mov    -0x4(%rbp),%edx
    add2:	48 8d 35 36 54 00 00 	lea    0x5436(%rip),%rsi        # 1020f <g_1955+0x1137>
    add9:	48 89 c7             	mov    %rax,%rdi
    addc:	e8 12 a9 ff ff       	callq  56f3 <transparent_crc>
    ade1:	c7 45 f0 00 00 00 00 	movl   $0x0,-0x10(%rbp)
    ade8:	e9 df 01 00 00       	jmpq   afcc <main+0x2aa>
    aded:	c7 45 f4 00 00 00 00 	movl   $0x0,-0xc(%rbp)
    adf4:	e9 c5 01 00 00       	jmpq   afbe <main+0x29c>
    adf9:	8b 45 f4             	mov    -0xc(%rbp),%eax
    adfc:	48 63 c8             	movslq %eax,%rcx
    adff:	8b 45 f0             	mov    -0x10(%rbp),%eax
    ae02:	48 63 d0             	movslq %eax,%rdx
    ae05:	48 89 d0             	mov    %rdx,%rax
    ae08:	48 c1 e0 02          	shl    $0x2,%rax
    ae0c:	48 01 d0             	add    %rdx,%rax
    ae0f:	48 01 c8             	add    %rcx,%rax
    ae12:	48 c1 e0 04          	shl    $0x4,%rax
    ae16:	48 89 c2             	mov    %rax,%rdx
    ae19:	48 8d 05 20 92 00 00 	lea    0x9220(%rip),%rax        # 14040 <g_40>
    ae20:	48 8b 04 02          	mov    (%rdx,%rax,1),%rax
    ae24:	c1 e0 04             	shl    $0x4,%eax
    ae27:	c0 f8 04             	sar    $0x4,%al
    ae2a:	48 0f be c0          	movsbq %al,%rax
    ae2e:	8b 55 fc             	mov    -0x4(%rbp),%edx
    ae31:	48 8d 35 dc 53 00 00 	lea    0x53dc(%rip),%rsi        # 10214 <g_1955+0x113c>
    ae38:	48 89 c7             	mov    %rax,%rdi
    ae3b:	e8 b3 a8 ff ff       	callq  56f3 <transparent_crc>
    ae40:	8b 45 f4             	mov    -0xc(%rbp),%eax
    ae43:	48 63 c8             	movslq %eax,%rcx
    ae46:	8b 45 f0             	mov    -0x10(%rbp),%eax
    ae49:	48 63 d0             	movslq %eax,%rdx
    ae4c:	48 89 d0             	mov    %rdx,%rax
    ae4f:	48 c1 e0 02          	shl    $0x2,%rax
    ae53:	48 01 d0             	add    %rdx,%rax
    ae56:	48 01 c8             	add    %rcx,%rax
    ae59:	48 c1 e0 04          	shl    $0x4,%rax
    ae5d:	48 89 c2             	mov    %rax,%rdx
    ae60:	48 8d 05 d9 91 00 00 	lea    0x91d9(%rip),%rax        # 14040 <g_40>
    ae67:	8b 04 02             	mov    (%rdx,%rax,1),%eax
    ae6a:	c1 e8 04             	shr    $0x4,%eax
    ae6d:	66 25 ff 7f          	and    $0x7fff,%ax
    ae71:	0f b7 c0             	movzwl %ax,%eax
    ae74:	8b 55 fc             	mov    -0x4(%rbp),%edx
    ae77:	48 8d 35 a4 53 00 00 	lea    0x53a4(%rip),%rsi        # 10222 <g_1955+0x114a>
    ae7e:	48 89 c7             	mov    %rax,%rdi
    ae81:	e8 6d a8 ff ff       	callq  56f3 <transparent_crc>
    ae86:	8b 45 f4             	mov    -0xc(%rbp),%eax
    ae89:	48 63 c8             	movslq %eax,%rcx
    ae8c:	8b 45 f0             	mov    -0x10(%rbp),%eax
    ae8f:	48 63 d0             	movslq %eax,%rdx
    ae92:	48 89 d0             	mov    %rdx,%rax
    ae95:	48 c1 e0 02          	shl    $0x2,%rax
    ae99:	48 01 d0             	add    %rdx,%rax
    ae9c:	48 01 c8             	add    %rcx,%rax
    ae9f:	48 c1 e0 04          	shl    $0x4,%rax
    aea3:	48 89 c2             	mov    %rax,%rdx
    aea6:	48 8d 05 93 91 00 00 	lea    0x9193(%rip),%rax        # 14040 <g_40>
    aead:	8b 44 02 04          	mov    0x4(%rdx,%rax,1),%eax
    aeb1:	c1 e0 0e             	shl    $0xe,%eax
    aeb4:	c1 f8 0e             	sar    $0xe,%eax
    aeb7:	48 98                	cltq   
    aeb9:	8b 55 fc             	mov    -0x4(%rbp),%edx
    aebc:	48 8d 35 6d 53 00 00 	lea    0x536d(%rip),%rsi        # 10230 <g_1955+0x1158>
    aec3:	48 89 c7             	mov    %rax,%rdi
    aec6:	e8 28 a8 ff ff       	callq  56f3 <transparent_crc>
    aecb:	8b 45 f4             	mov    -0xc(%rbp),%eax
    aece:	48 63 c8             	movslq %eax,%rcx
    aed1:	8b 45 f0             	mov    -0x10(%rbp),%eax
    aed4:	48 63 d0             	movslq %eax,%rdx
    aed7:	48 89 d0             	mov    %rdx,%rax
    aeda:	48 c1 e0 02          	shl    $0x2,%rax
    aede:	48 01 d0             	add    %rdx,%rax
    aee1:	48 01 c8             	add    %rcx,%rax
    aee4:	48 c1 e0 04          	shl    $0x4,%rax
    aee8:	48 89 c2             	mov    %rax,%rdx
    aeeb:	48 8d 05 4e 91 00 00 	lea    0x914e(%rip),%rax        # 14040 <g_40>
    aef2:	8b 44 02 08          	mov    0x8(%rdx,%rax,1),%eax
    aef6:	01 c0                	add    %eax,%eax
    aef8:	d1 f8                	sar    %eax
    aefa:	48 98                	cltq   
    aefc:	8b 55 fc             	mov    -0x4(%rbp),%edx
    aeff:	48 8d 35 38 53 00 00 	lea    0x5338(%rip),%rsi        # 1023e <g_1955+0x1166>
    af06:	48 89 c7             	mov    %rax,%rdi
    af09:	e8 e5 a7 ff ff       	callq  56f3 <transparent_crc>
    af0e:	8b 45 f4             	mov    -0xc(%rbp),%eax
    af11:	48 63 c8             	movslq %eax,%rcx
    af14:	8b 45 f0             	mov    -0x10(%rbp),%eax
    af17:	48 63 d0             	movslq %eax,%rdx
    af1a:	48 89 d0             	mov    %rdx,%rax
    af1d:	48 c1 e0 02          	shl    $0x2,%rax
    af21:	48 01 d0             	add    %rdx,%rax
    af24:	48 01 c8             	add    %rcx,%rax
    af27:	48 c1 e0 04          	shl    $0x4,%rax
    af2b:	48 89 c2             	mov    %rax,%rdx
    af2e:	48 8d 05 0b 91 00 00 	lea    0x910b(%rip),%rax        # 14040 <g_40>
    af35:	8b 44 02 0c          	mov    0xc(%rdx,%rax,1),%eax
    af39:	c1 e0 09             	shl    $0x9,%eax
    af3c:	c1 f8 09             	sar    $0x9,%eax
    af3f:	48 98                	cltq   
    af41:	8b 55 fc             	mov    -0x4(%rbp),%edx
    af44:	48 8d 35 01 53 00 00 	lea    0x5301(%rip),%rsi        # 1024c <g_1955+0x1174>
    af4b:	48 89 c7             	mov    %rax,%rdi
    af4e:	e8 a0 a7 ff ff       	callq  56f3 <transparent_crc>
    af53:	8b 45 f4             	mov    -0xc(%rbp),%eax
    af56:	48 63 c8             	movslq %eax,%rcx
    af59:	8b 45 f0             	mov    -0x10(%rbp),%eax
    af5c:	48 63 d0             	movslq %eax,%rdx
    af5f:	48 89 d0             	mov    %rdx,%rax
    af62:	48 c1 e0 02          	shl    $0x2,%rax
    af66:	48 01 d0             	add    %rdx,%rax
    af69:	48 01 c8             	add    %rcx,%rax
    af6c:	48 c1 e0 04          	shl    $0x4,%rax
    af70:	48 89 c2             	mov    %rax,%rdx
    af73:	48 8d 05 c6 90 00 00 	lea    0x90c6(%rip),%rax        # 14040 <g_40>
    af7a:	48 8b 44 02 08       	mov    0x8(%rdx,%rax,1),%rax
    af7f:	48 c1 e8 37          	shr    $0x37,%rax
    af83:	83 e0 03             	and    $0x3,%eax
    af86:	0f b6 c0             	movzbl %al,%eax
    af89:	8b 55 fc             	mov    -0x4(%rbp),%edx
    af8c:	48 8d 35 c7 52 00 00 	lea    0x52c7(%rip),%rsi        # 1025a <g_1955+0x1182>
    af93:	48 89 c7             	mov    %rax,%rdi
    af96:	e8 58 a7 ff ff       	callq  56f3 <transparent_crc>
    af9b:	83 7d fc 00          	cmpl   $0x0,-0x4(%rbp)
    af9f:	74 19                	je     afba <main+0x298>
    afa1:	8b 55 f4             	mov    -0xc(%rbp),%edx
    afa4:	8b 45 f0             	mov    -0x10(%rbp),%eax
    afa7:	89 c6                	mov    %eax,%esi
    afa9:	48 8d 3d b8 52 00 00 	lea    0x52b8(%rip),%rdi        # 10268 <g_1955+0x1190>
    afb0:	b8 00 00 00 00       	mov    $0x0,%eax
    afb5:	e8 c6 90 ff ff       	callq  4080 <printf@plt>
    afba:	83 45 f4 01          	addl   $0x1,-0xc(%rbp)
    afbe:	83 7d f4 04          	cmpl   $0x4,-0xc(%rbp)
    afc2:	0f 8e 31 fe ff ff    	jle    adf9 <main+0xd7>
    afc8:	83 45 f0 01          	addl   $0x1,-0x10(%rbp)
    afcc:	83 7d f0 06          	cmpl   $0x6,-0x10(%rbp)
    afd0:	0f 8e 17 fe ff ff    	jle    aded <main+0xcb>
    afd6:	8b 05 a4 92 00 00    	mov    0x92a4(%rip),%eax        # 14280 <g_87>
    afdc:	89 c1                	mov    %eax,%ecx
    afde:	8b 45 fc             	mov    -0x4(%rbp),%eax
    afe1:	89 c2                	mov    %eax,%edx
    afe3:	48 8d 35 90 52 00 00 	lea    0x5290(%rip),%rsi        # 1027a <g_1955+0x11a2>
    afea:	48 89 cf             	mov    %rcx,%rdi
    afed:	e8 01 a7 ff ff       	callq  56f3 <transparent_crc>
    aff2:	0f b6 05 8b 92 00 00 	movzbl 0x928b(%rip),%eax        # 14284 <g_87+0x4>
    aff9:	0f b6 c0             	movzbl %al,%eax
    affc:	8b 55 fc             	mov    -0x4(%rbp),%edx
    afff:	48 8d 35 7c 52 00 00 	lea    0x527c(%rip),%rsi        # 10282 <g_1955+0x11aa>
    b006:	48 89 c7             	mov    %rax,%rdi
    b009:	e8 e5 a6 ff ff       	callq  56f3 <transparent_crc>
    b00e:	8b 05 74 92 00 00    	mov    0x9274(%rip),%eax        # 14288 <g_87+0x8>
    b014:	89 c1                	mov    %eax,%ecx
    b016:	8b 45 fc             	mov    -0x4(%rbp),%eax
    b019:	89 c2                	mov    %eax,%edx
    b01b:	48 8d 35 68 52 00 00 	lea    0x5268(%rip),%rsi        # 1028a <g_1955+0x11b2>
    b022:	48 89 cf             	mov    %rcx,%rdi
    b025:	e8 c9 a6 ff ff       	callq  56f3 <transparent_crc>
    b02a:	8b 05 5c 92 00 00    	mov    0x925c(%rip),%eax        # 1428c <g_87+0xc>
    b030:	89 c1                	mov    %eax,%ecx
    b032:	8b 45 fc             	mov    -0x4(%rbp),%eax
    b035:	89 c2                	mov    %eax,%edx
    b037:	48 8d 35 54 52 00 00 	lea    0x5254(%rip),%rsi        # 10292 <g_1955+0x11ba>
    b03e:	48 89 cf             	mov    %rcx,%rdi
    b041:	e8 ad a6 ff ff       	callq  56f3 <transparent_crc>
    b046:	48 8b 05 5b d2 00 00 	mov    0xd25b(%rip),%rax        # 182a8 <g_91>
    b04d:	48 89 c1             	mov    %rax,%rcx
    b050:	8b 45 fc             	mov    -0x4(%rbp),%eax
    b053:	89 c2                	mov    %eax,%edx
    b055:	48 8d 35 3e 52 00 00 	lea    0x523e(%rip),%rsi        # 1029a <g_1955+0x11c2>
    b05c:	48 89 cf             	mov    %rcx,%rdi
    b05f:	e8 8f a6 ff ff       	callq  56f3 <transparent_crc>
    b064:	c7 45 f0 00 00 00 00 	movl   $0x0,-0x10(%rbp)
    b06b:	eb 76                	jmp    b0e3 <main+0x3c1>
    b06d:	c7 45 f4 00 00 00 00 	movl   $0x0,-0xc(%rbp)
    b074:	eb 63                	jmp    b0d9 <main+0x3b7>
    b076:	8b 45 f4             	mov    -0xc(%rbp),%eax
    b079:	48 63 c8             	movslq %eax,%rcx
    b07c:	8b 45 f0             	mov    -0x10(%rbp),%eax
    b07f:	48 63 d0             	movslq %eax,%rdx
    b082:	48 89 d0             	mov    %rdx,%rax
    b085:	48 01 c0             	add    %rax,%rax
    b088:	48 01 d0             	add    %rdx,%rax
    b08b:	48 01 c0             	add    %rax,%rax
    b08e:	48 01 c8             	add    %rcx,%rax
    b091:	48 8d 14 00          	lea    (%rax,%rax,1),%rdx
    b095:	48 8d 05 04 92 00 00 	lea    0x9204(%rip),%rax        # 142a0 <g_93>
    b09c:	0f b7 04 02          	movzwl (%rdx,%rax,1),%eax
    b0a0:	48 0f bf c0          	movswq %ax,%rax
    b0a4:	8b 55 fc             	mov    -0x4(%rbp),%edx
    b0a7:	48 8d 35 f1 51 00 00 	lea    0x51f1(%rip),%rsi        # 1029f <g_1955+0x11c7>
    b0ae:	48 89 c7             	mov    %rax,%rdi
    b0b1:	e8 3d a6 ff ff       	callq  56f3 <transparent_crc>
    b0b6:	83 7d fc 00          	cmpl   $0x0,-0x4(%rbp)
    b0ba:	74 19                	je     b0d5 <main+0x3b3>
    b0bc:	8b 55 f4             	mov    -0xc(%rbp),%edx
    b0bf:	8b 45 f0             	mov    -0x10(%rbp),%eax
    b0c2:	89 c6                	mov    %eax,%esi
    b0c4:	48 8d 3d 9d 51 00 00 	lea    0x519d(%rip),%rdi        # 10268 <g_1955+0x1190>
    b0cb:	b8 00 00 00 00       	mov    $0x0,%eax
    b0d0:	e8 ab 8f ff ff       	callq  4080 <printf@plt>
    b0d5:	83 45 f4 01          	addl   $0x1,-0xc(%rbp)
    b0d9:	83 7d f4 05          	cmpl   $0x5,-0xc(%rbp)
    b0dd:	7e 97                	jle    b076 <main+0x354>
    b0df:	83 45 f0 01          	addl   $0x1,-0x10(%rbp)
    b0e3:	83 7d f0 03          	cmpl   $0x3,-0x10(%rbp)
    b0e7:	7e 84                	jle    b06d <main+0x34b>
    b0e9:	c7 45 f0 00 00 00 00 	movl   $0x0,-0x10(%rbp)
    b0f0:	e9 b0 00 00 00       	jmpq   b1a5 <main+0x483>
    b0f5:	c7 45 f4 00 00 00 00 	movl   $0x0,-0xc(%rbp)
    b0fc:	e9 96 00 00 00       	jmpq   b197 <main+0x475>
    b101:	c7 45 f8 00 00 00 00 	movl   $0x0,-0x8(%rbp)
    b108:	eb 7f                	jmp    b189 <main+0x467>
    b10a:	8b 45 f8             	mov    -0x8(%rbp),%eax
    b10d:	48 63 f0             	movslq %eax,%rsi
    b110:	8b 45 f0             	mov    -0x10(%rbp),%eax
    b113:	48 63 d0             	movslq %eax,%rdx
    b116:	8b 45 f4             	mov    -0xc(%rbp),%eax
    b119:	48 63 c8             	movslq %eax,%rcx
    b11c:	48 89 d0             	mov    %rdx,%rax
    b11f:	48 01 c0             	add    %rax,%rax
    b122:	48 01 d0             	add    %rdx,%rax
    b125:	48 89 c2             	mov    %rax,%rdx
    b128:	48 c1 e2 04          	shl    $0x4,%rdx
    b12c:	48 29 c2             	sub    %rax,%rdx
    b12f:	48 89 c8             	mov    %rcx,%rax
    b132:	48 c1 e0 02          	shl    $0x2,%rax
    b136:	48 01 c8             	add    %rcx,%rax
    b139:	48 01 d0             	add    %rdx,%rax
    b13c:	48 01 f0             	add    %rsi,%rax
    b13f:	48 8d 14 00          	lea    (%rax,%rax,1),%rdx
    b143:	48 8d 05 96 91 00 00 	lea    0x9196(%rip),%rax        # 142e0 <g_129>
    b14a:	0f b7 04 02          	movzwl (%rdx,%rax,1),%eax
    b14e:	0f b7 c0             	movzwl %ax,%eax
    b151:	8b 55 fc             	mov    -0x4(%rbp),%edx
    b154:	48 8d 35 4f 51 00 00 	lea    0x514f(%rip),%rsi        # 102aa <g_1955+0x11d2>
    b15b:	48 89 c7             	mov    %rax,%rdi
    b15e:	e8 90 a5 ff ff       	callq  56f3 <transparent_crc>
    b163:	83 7d fc 00          	cmpl   $0x0,-0x4(%rbp)
    b167:	74 1c                	je     b185 <main+0x463>
    b169:	8b 4d f8             	mov    -0x8(%rbp),%ecx
    b16c:	8b 55 f4             	mov    -0xc(%rbp),%edx
    b16f:	8b 45 f0             	mov    -0x10(%rbp),%eax
    b172:	89 c6                	mov    %eax,%esi
    b174:	48 8d 3d 3e 51 00 00 	lea    0x513e(%rip),%rdi        # 102b9 <g_1955+0x11e1>
    b17b:	b8 00 00 00 00       	mov    $0x0,%eax
    b180:	e8 fb 8e ff ff       	callq  4080 <printf@plt>
    b185:	83 45 f8 01          	addl   $0x1,-0x8(%rbp)
    b189:	83 7d f8 04          	cmpl   $0x4,-0x8(%rbp)
    b18d:	0f 8e 77 ff ff ff    	jle    b10a <main+0x3e8>
    b193:	83 45 f4 01          	addl   $0x1,-0xc(%rbp)
    b197:	83 7d f4 08          	cmpl   $0x8,-0xc(%rbp)
    b19b:	0f 8e 60 ff ff ff    	jle    b101 <main+0x3df>
    b1a1:	83 45 f0 01          	addl   $0x1,-0x10(%rbp)
    b1a5:	83 7d f0 04          	cmpl   $0x4,-0x10(%rbp)
    b1a9:	0f 8e 46 ff ff ff    	jle    b0f5 <main+0x3d3>
    b1af:	0f b7 05 ec 92 00 00 	movzwl 0x92ec(%rip),%eax        # 144a2 <g_146>
    b1b6:	0f b7 c0             	movzwl %ax,%eax
    b1b9:	8b 55 fc             	mov    -0x4(%rbp),%edx
    b1bc:	48 8d 35 0c 51 00 00 	lea    0x510c(%rip),%rsi        # 102cf <g_1955+0x11f7>
    b1c3:	48 89 c7             	mov    %rax,%rdi
    b1c6:	e8 28 a5 ff ff       	callq  56f3 <transparent_crc>
    b1cb:	8b 05 d3 92 00 00    	mov    0x92d3(%rip),%eax        # 144a4 <g_151>
    b1d1:	48 98                	cltq   
    b1d3:	8b 55 fc             	mov    -0x4(%rbp),%edx
    b1d6:	48 8d 35 f8 50 00 00 	lea    0x50f8(%rip),%rsi        # 102d5 <g_1955+0x11fd>
    b1dd:	48 89 c7             	mov    %rax,%rdi
    b1e0:	e8 0e a5 ff ff       	callq  56f3 <transparent_crc>
    b1e5:	8b 05 bd 92 00 00    	mov    0x92bd(%rip),%eax        # 144a8 <g_158>
    b1eb:	89 c1                	mov    %eax,%ecx
    b1ed:	8b 45 fc             	mov    -0x4(%rbp),%eax
    b1f0:	89 c2                	mov    %eax,%edx
    b1f2:	48 8d 35 e2 50 00 00 	lea    0x50e2(%rip),%rsi        # 102db <g_1955+0x1203>
    b1f9:	48 89 cf             	mov    %rcx,%rdi
    b1fc:	e8 f2 a4 ff ff       	callq  56f3 <transparent_crc>
    b201:	c7 45 f0 00 00 00 00 	movl   $0x0,-0x10(%rbp)
    b208:	eb 46                	jmp    b250 <main+0x52e>
    b20a:	8b 45 f0             	mov    -0x10(%rbp),%eax
    b20d:	48 98                	cltq   
    b20f:	48 8d 15 96 92 00 00 	lea    0x9296(%rip),%rdx        # 144ac <g_174>
    b216:	0f b6 04 10          	movzbl (%rax,%rdx,1),%eax
    b21a:	48 0f be c0          	movsbq %al,%rax
    b21e:	8b 55 fc             	mov    -0x4(%rbp),%edx
    b221:	48 8d 35 b9 50 00 00 	lea    0x50b9(%rip),%rsi        # 102e1 <g_1955+0x1209>
    b228:	48 89 c7             	mov    %rax,%rdi
    b22b:	e8 c3 a4 ff ff       	callq  56f3 <transparent_crc>
    b230:	83 7d fc 00          	cmpl   $0x0,-0x4(%rbp)
    b234:	74 16                	je     b24c <main+0x52a>
    b236:	8b 45 f0             	mov    -0x10(%rbp),%eax
    b239:	89 c6                	mov    %eax,%esi
    b23b:	48 8d 3d a8 50 00 00 	lea    0x50a8(%rip),%rdi        # 102ea <g_1955+0x1212>
    b242:	b8 00 00 00 00       	mov    $0x0,%eax
    b247:	e8 34 8e ff ff       	callq  4080 <printf@plt>
    b24c:	83 45 f0 01          	addl   $0x1,-0x10(%rbp)
    b250:	83 7d f0 04          	cmpl   $0x4,-0x10(%rbp)
    b254:	7e b4                	jle    b20a <main+0x4e8>
    b256:	48 8b 05 5b 92 00 00 	mov    0x925b(%rip),%rax        # 144b8 <g_201>
    b25d:	48 89 c1             	mov    %rax,%rcx
    b260:	8b 45 fc             	mov    -0x4(%rbp),%eax
    b263:	89 c2                	mov    %eax,%edx
    b265:	48 8d 35 8c 50 00 00 	lea    0x508c(%rip),%rsi        # 102f8 <g_1955+0x1220>
    b26c:	48 89 cf             	mov    %rcx,%rdi
    b26f:	e8 7f a4 ff ff       	callq  56f3 <transparent_crc>
    b274:	c7 45 f0 00 00 00 00 	movl   $0x0,-0x10(%rbp)
    b27b:	eb 6f                	jmp    b2ec <main+0x5ca>
    b27d:	c7 45 f4 00 00 00 00 	movl   $0x0,-0xc(%rbp)
    b284:	eb 5c                	jmp    b2e2 <main+0x5c0>
    b286:	8b 45 f4             	mov    -0xc(%rbp),%eax
    b289:	48 98                	cltq   
    b28b:	8b 55 f0             	mov    -0x10(%rbp),%edx
    b28e:	48 63 d2             	movslq %edx,%rdx
    b291:	48 01 d2             	add    %rdx,%rdx
    b294:	48 01 d0             	add    %rdx,%rax
    b297:	48 8d 14 85 00 00 00 	lea    0x0(,%rax,4),%rdx
    b29e:	00 
    b29f:	48 8d 05 1a 92 00 00 	lea    0x921a(%rip),%rax        # 144c0 <g_227>
    b2a6:	8b 04 02             	mov    (%rdx,%rax,1),%eax
    b2a9:	89 c1                	mov    %eax,%ecx
    b2ab:	8b 45 fc             	mov    -0x4(%rbp),%eax
    b2ae:	89 c2                	mov    %eax,%edx
    b2b0:	48 8d 35 47 50 00 00 	lea    0x5047(%rip),%rsi        # 102fe <g_1955+0x1226>
    b2b7:	48 89 cf             	mov    %rcx,%rdi
    b2ba:	e8 34 a4 ff ff       	callq  56f3 <transparent_crc>
    b2bf:	83 7d fc 00          	cmpl   $0x0,-0x4(%rbp)
    b2c3:	74 19                	je     b2de <main+0x5bc>
    b2c5:	8b 55 f4             	mov    -0xc(%rbp),%edx
    b2c8:	8b 45 f0             	mov    -0x10(%rbp),%eax
    b2cb:	89 c6                	mov    %eax,%esi
    b2cd:	48 8d 3d 94 4f 00 00 	lea    0x4f94(%rip),%rdi        # 10268 <g_1955+0x1190>
    b2d4:	b8 00 00 00 00       	mov    $0x0,%eax
    b2d9:	e8 a2 8d ff ff       	callq  4080 <printf@plt>
    b2de:	83 45 f4 01          	addl   $0x1,-0xc(%rbp)
    b2e2:	83 7d f4 01          	cmpl   $0x1,-0xc(%rbp)
    b2e6:	7e 9e                	jle    b286 <main+0x564>
    b2e8:	83 45 f0 01          	addl   $0x1,-0x10(%rbp)
    b2ec:	83 7d f0 04          	cmpl   $0x4,-0x10(%rbp)
    b2f0:	7e 8b                	jle    b27d <main+0x55b>
    b2f2:	8b 05 08 92 00 00    	mov    0x9208(%rip),%eax        # 14500 <g_241>
    b2f8:	48 98                	cltq   
    b2fa:	8b 55 fc             	mov    -0x4(%rbp),%edx
    b2fd:	48 8d 35 06 50 00 00 	lea    0x5006(%rip),%rsi        # 1030a <g_1955+0x1232>
    b304:	48 89 c7             	mov    %rax,%rdi
    b307:	e8 e7 a3 ff ff       	callq  56f3 <transparent_crc>
    b30c:	0f b7 05 f1 91 00 00 	movzwl 0x91f1(%rip),%eax        # 14504 <g_241+0x4>
    b313:	0f b7 c0             	movzwl %ax,%eax
    b316:	8b 55 fc             	mov    -0x4(%rbp),%edx
    b319:	48 8d 35 f3 4f 00 00 	lea    0x4ff3(%rip),%rsi        # 10313 <g_1955+0x123b>
    b320:	48 89 c7             	mov    %rax,%rdi
    b323:	e8 cb a3 ff ff       	callq  56f3 <transparent_crc>
    b328:	0f b7 05 d7 91 00 00 	movzwl 0x91d7(%rip),%eax        # 14506 <g_241+0x6>
    b32f:	0f b7 c0             	movzwl %ax,%eax
    b332:	8b 55 fc             	mov    -0x4(%rbp),%edx
    b335:	48 8d 35 e0 4f 00 00 	lea    0x4fe0(%rip),%rsi        # 1031c <g_1955+0x1244>
    b33c:	48 89 c7             	mov    %rax,%rdi
    b33f:	e8 af a3 ff ff       	callq  56f3 <transparent_crc>
    b344:	0f b7 05 bd 91 00 00 	movzwl 0x91bd(%rip),%eax        # 14508 <g_241+0x8>
    b34b:	0f b7 c0             	movzwl %ax,%eax
    b34e:	8b 55 fc             	mov    -0x4(%rbp),%edx
    b351:	48 8d 35 cd 4f 00 00 	lea    0x4fcd(%rip),%rsi        # 10325 <g_1955+0x124d>
    b358:	48 89 c7             	mov    %rax,%rdi
    b35b:	e8 93 a3 ff ff       	callq  56f3 <transparent_crc>
    b360:	8b 05 a4 91 00 00    	mov    0x91a4(%rip),%eax        # 1450a <g_241+0xa>
    b366:	89 c1                	mov    %eax,%ecx
    b368:	8b 45 fc             	mov    -0x4(%rbp),%eax
    b36b:	89 c2                	mov    %eax,%edx
    b36d:	48 8d 35 ba 4f 00 00 	lea    0x4fba(%rip),%rsi        # 1032e <g_1955+0x1256>
    b374:	48 89 cf             	mov    %rcx,%rdi
    b377:	e8 77 a3 ff ff       	callq  56f3 <transparent_crc>
    b37c:	8b 05 8c 91 00 00    	mov    0x918c(%rip),%eax        # 1450e <g_241+0xe>
    b382:	89 c1                	mov    %eax,%ecx
    b384:	8b 45 fc             	mov    -0x4(%rbp),%eax
    b387:	89 c2                	mov    %eax,%edx
    b389:	48 8d 35 a7 4f 00 00 	lea    0x4fa7(%rip),%rsi        # 10337 <g_1955+0x125f>
    b390:	48 89 cf             	mov    %rcx,%rdi
    b393:	e8 5b a3 ff ff       	callq  56f3 <transparent_crc>
    b398:	48 8b 05 73 91 00 00 	mov    0x9173(%rip),%rax        # 14512 <g_241+0x12>
    b39f:	48 89 c1             	mov    %rax,%rcx
    b3a2:	8b 45 fc             	mov    -0x4(%rbp),%eax
    b3a5:	89 c2                	mov    %eax,%edx
    b3a7:	48 8d 35 92 4f 00 00 	lea    0x4f92(%rip),%rsi        # 10340 <g_1955+0x1268>
    b3ae:	48 89 cf             	mov    %rcx,%rdi
    b3b1:	e8 3d a3 ff ff       	callq  56f3 <transparent_crc>
    b3b6:	8b 05 5e 91 00 00    	mov    0x915e(%rip),%eax        # 1451a <g_241+0x1a>
    b3bc:	48 98                	cltq   
    b3be:	8b 55 fc             	mov    -0x4(%rbp),%edx
    b3c1:	48 8d 35 81 4f 00 00 	lea    0x4f81(%rip),%rsi        # 10349 <g_1955+0x1271>
    b3c8:	48 89 c7             	mov    %rax,%rdi
    b3cb:	e8 23 a3 ff ff       	callq  56f3 <transparent_crc>
    b3d0:	48 8b 05 47 91 00 00 	mov    0x9147(%rip),%rax        # 1451e <g_241+0x1e>
    b3d7:	8b 55 fc             	mov    -0x4(%rbp),%edx
    b3da:	48 8d 35 71 4f 00 00 	lea    0x4f71(%rip),%rsi        # 10352 <g_1955+0x127a>
    b3e1:	48 89 c7             	mov    %rax,%rdi
    b3e4:	e8 0a a3 ff ff       	callq  56f3 <transparent_crc>
    b3e9:	8b 05 51 91 00 00    	mov    0x9151(%rip),%eax        # 14540 <g_282>
    b3ef:	48 98                	cltq   
    b3f1:	8b 55 fc             	mov    -0x4(%rbp),%edx
    b3f4:	48 8d 35 60 4f 00 00 	lea    0x4f60(%rip),%rsi        # 1035b <g_1955+0x1283>
    b3fb:	48 89 c7             	mov    %rax,%rdi
    b3fe:	e8 f0 a2 ff ff       	callq  56f3 <transparent_crc>
    b403:	0f b7 05 3a 91 00 00 	movzwl 0x913a(%rip),%eax        # 14544 <g_282+0x4>
    b40a:	0f b7 c0             	movzwl %ax,%eax
    b40d:	8b 55 fc             	mov    -0x4(%rbp),%edx
    b410:	48 8d 35 4d 4f 00 00 	lea    0x4f4d(%rip),%rsi        # 10364 <g_1955+0x128c>
    b417:	48 89 c7             	mov    %rax,%rdi
    b41a:	e8 d4 a2 ff ff       	callq  56f3 <transparent_crc>
    b41f:	0f b7 05 20 91 00 00 	movzwl 0x9120(%rip),%eax        # 14546 <g_282+0x6>
    b426:	0f b7 c0             	movzwl %ax,%eax
    b429:	8b 55 fc             	mov    -0x4(%rbp),%edx
    b42c:	48 8d 35 3a 4f 00 00 	lea    0x4f3a(%rip),%rsi        # 1036d <g_1955+0x1295>
    b433:	48 89 c7             	mov    %rax,%rdi
    b436:	e8 b8 a2 ff ff       	callq  56f3 <transparent_crc>
    b43b:	0f b7 05 06 91 00 00 	movzwl 0x9106(%rip),%eax        # 14548 <g_282+0x8>
    b442:	0f b7 c0             	movzwl %ax,%eax
    b445:	8b 55 fc             	mov    -0x4(%rbp),%edx
    b448:	48 8d 35 27 4f 00 00 	lea    0x4f27(%rip),%rsi        # 10376 <g_1955+0x129e>
    b44f:	48 89 c7             	mov    %rax,%rdi
    b452:	e8 9c a2 ff ff       	callq  56f3 <transparent_crc>
    b457:	8b 05 ed 90 00 00    	mov    0x90ed(%rip),%eax        # 1454a <g_282+0xa>
    b45d:	89 c1                	mov    %eax,%ecx
    b45f:	8b 45 fc             	mov    -0x4(%rbp),%eax
    b462:	89 c2                	mov    %eax,%edx
    b464:	48 8d 35 14 4f 00 00 	lea    0x4f14(%rip),%rsi        # 1037f <g_1955+0x12a7>
    b46b:	48 89 cf             	mov    %rcx,%rdi
    b46e:	e8 80 a2 ff ff       	callq  56f3 <transparent_crc>
    b473:	8b 05 d5 90 00 00    	mov    0x90d5(%rip),%eax        # 1454e <g_282+0xe>
    b479:	89 c1                	mov    %eax,%ecx
    b47b:	8b 45 fc             	mov    -0x4(%rbp),%eax
    b47e:	89 c2                	mov    %eax,%edx
    b480:	48 8d 35 01 4f 00 00 	lea    0x4f01(%rip),%rsi        # 10388 <g_1955+0x12b0>
    b487:	48 89 cf             	mov    %rcx,%rdi
    b48a:	e8 64 a2 ff ff       	callq  56f3 <transparent_crc>
    b48f:	48 8b 05 bc 90 00 00 	mov    0x90bc(%rip),%rax        # 14552 <g_282+0x12>
    b496:	48 89 c1             	mov    %rax,%rcx
    b499:	8b 45 fc             	mov    -0x4(%rbp),%eax
    b49c:	89 c2                	mov    %eax,%edx
    b49e:	48 8d 35 ec 4e 00 00 	lea    0x4eec(%rip),%rsi        # 10391 <g_1955+0x12b9>
    b4a5:	48 89 cf             	mov    %rcx,%rdi
    b4a8:	e8 46 a2 ff ff       	callq  56f3 <transparent_crc>
    b4ad:	8b 05 a7 90 00 00    	mov    0x90a7(%rip),%eax        # 1455a <g_282+0x1a>
    b4b3:	48 98                	cltq   
    b4b5:	8b 55 fc             	mov    -0x4(%rbp),%edx
    b4b8:	48 8d 35 db 4e 00 00 	lea    0x4edb(%rip),%rsi        # 1039a <g_1955+0x12c2>
    b4bf:	48 89 c7             	mov    %rax,%rdi
    b4c2:	e8 2c a2 ff ff       	callq  56f3 <transparent_crc>
    b4c7:	48 8b 05 90 90 00 00 	mov    0x9090(%rip),%rax        # 1455e <g_282+0x1e>
    b4ce:	8b 55 fc             	mov    -0x4(%rbp),%edx
    b4d1:	48 8d 35 cb 4e 00 00 	lea    0x4ecb(%rip),%rsi        # 103a3 <g_1955+0x12cb>
    b4d8:	48 89 c7             	mov    %rax,%rdi
    b4db:	e8 13 a2 ff ff       	callq  56f3 <transparent_crc>
    b4e0:	c7 45 f0 00 00 00 00 	movl   $0x0,-0x10(%rbp)
    b4e7:	e9 3c 02 00 00       	jmpq   b728 <main+0xa06>
    b4ec:	8b 45 f0             	mov    -0x10(%rbp),%eax
    b4ef:	48 63 d0             	movslq %eax,%rdx
    b4f2:	48 89 d0             	mov    %rdx,%rax
    b4f5:	48 c1 e0 03          	shl    $0x3,%rax
    b4f9:	48 01 d0             	add    %rdx,%rax
    b4fc:	48 01 c0             	add    %rax,%rax
    b4ff:	48 01 d0             	add    %rdx,%rax
    b502:	48 01 c0             	add    %rax,%rax
    b505:	48 89 c2             	mov    %rax,%rdx
    b508:	48 8d 05 71 90 00 00 	lea    0x9071(%rip),%rax        # 14580 <g_296>
    b50f:	8b 04 02             	mov    (%rdx,%rax,1),%eax
    b512:	48 98                	cltq   
    b514:	8b 55 fc             	mov    -0x4(%rbp),%edx
    b517:	48 8d 35 8e 4e 00 00 	lea    0x4e8e(%rip),%rsi        # 103ac <g_1955+0x12d4>
    b51e:	48 89 c7             	mov    %rax,%rdi
    b521:	e8 cd a1 ff ff       	callq  56f3 <transparent_crc>
    b526:	8b 45 f0             	mov    -0x10(%rbp),%eax
    b529:	48 63 d0             	movslq %eax,%rdx
    b52c:	48 89 d0             	mov    %rdx,%rax
    b52f:	48 c1 e0 03          	shl    $0x3,%rax
    b533:	48 01 d0             	add    %rdx,%rax
    b536:	48 01 c0             	add    %rax,%rax
    b539:	48 01 d0             	add    %rdx,%rax
    b53c:	48 01 c0             	add    %rax,%rax
    b53f:	48 89 c2             	mov    %rax,%rdx
    b542:	48 8d 05 3b 90 00 00 	lea    0x903b(%rip),%rax        # 14584 <g_296+0x4>
    b549:	0f b7 04 02          	movzwl (%rdx,%rax,1),%eax
    b54d:	0f b7 c0             	movzwl %ax,%eax
    b550:	8b 55 fc             	mov    -0x4(%rbp),%edx
    b553:	48 8d 35 5e 4e 00 00 	lea    0x4e5e(%rip),%rsi        # 103b8 <g_1955+0x12e0>
    b55a:	48 89 c7             	mov    %rax,%rdi
    b55d:	e8 91 a1 ff ff       	callq  56f3 <transparent_crc>
    b562:	8b 45 f0             	mov    -0x10(%rbp),%eax
    b565:	48 63 d0             	movslq %eax,%rdx
    b568:	48 89 d0             	mov    %rdx,%rax
    b56b:	48 c1 e0 03          	shl    $0x3,%rax
    b56f:	48 01 d0             	add    %rdx,%rax
    b572:	48 01 c0             	add    %rax,%rax
    b575:	48 01 d0             	add    %rdx,%rax
    b578:	48 01 c0             	add    %rax,%rax
    b57b:	48 89 c2             	mov    %rax,%rdx
    b57e:	48 8d 05 01 90 00 00 	lea    0x9001(%rip),%rax        # 14586 <g_296+0x6>
    b585:	0f b7 04 02          	movzwl (%rdx,%rax,1),%eax
    b589:	0f b7 c0             	movzwl %ax,%eax
    b58c:	8b 55 fc             	mov    -0x4(%rbp),%edx
    b58f:	48 8d 35 2e 4e 00 00 	lea    0x4e2e(%rip),%rsi        # 103c4 <g_1955+0x12ec>
    b596:	48 89 c7             	mov    %rax,%rdi
    b599:	e8 55 a1 ff ff       	callq  56f3 <transparent_crc>
    b59e:	8b 45 f0             	mov    -0x10(%rbp),%eax
    b5a1:	48 63 d0             	movslq %eax,%rdx
    b5a4:	48 89 d0             	mov    %rdx,%rax
    b5a7:	48 c1 e0 03          	shl    $0x3,%rax
    b5ab:	48 01 d0             	add    %rdx,%rax
    b5ae:	48 01 c0             	add    %rax,%rax
    b5b1:	48 01 d0             	add    %rdx,%rax
    b5b4:	48 01 c0             	add    %rax,%rax
    b5b7:	48 89 c2             	mov    %rax,%rdx
    b5ba:	48 8d 05 c7 8f 00 00 	lea    0x8fc7(%rip),%rax        # 14588 <g_296+0x8>
    b5c1:	0f b7 04 02          	movzwl (%rdx,%rax,1),%eax
    b5c5:	0f b7 c0             	movzwl %ax,%eax
    b5c8:	8b 55 fc             	mov    -0x4(%rbp),%edx
    b5cb:	48 8d 35 fe 4d 00 00 	lea    0x4dfe(%rip),%rsi        # 103d0 <g_1955+0x12f8>
    b5d2:	48 89 c7             	mov    %rax,%rdi
    b5d5:	e8 19 a1 ff ff       	callq  56f3 <transparent_crc>
    b5da:	8b 45 f0             	mov    -0x10(%rbp),%eax
    b5dd:	48 63 d0             	movslq %eax,%rdx
    b5e0:	48 89 d0             	mov    %rdx,%rax
    b5e3:	48 c1 e0 03          	shl    $0x3,%rax
    b5e7:	48 01 d0             	add    %rdx,%rax
    b5ea:	48 01 c0             	add    %rax,%rax
    b5ed:	48 01 d0             	add    %rdx,%rax
    b5f0:	48 01 c0             	add    %rax,%rax
    b5f3:	48 89 c2             	mov    %rax,%rdx
    b5f6:	48 8d 05 83 8f 00 00 	lea    0x8f83(%rip),%rax        # 14580 <g_296>
    b5fd:	8b 44 02 0a          	mov    0xa(%rdx,%rax,1),%eax
    b601:	89 c1                	mov    %eax,%ecx
    b603:	8b 45 fc             	mov    -0x4(%rbp),%eax
    b606:	89 c2                	mov    %eax,%edx
    b608:	48 8d 35 cd 4d 00 00 	lea    0x4dcd(%rip),%rsi        # 103dc <g_1955+0x1304>
    b60f:	48 89 cf             	mov    %rcx,%rdi
    b612:	e8 dc a0 ff ff       	callq  56f3 <transparent_crc>
    b617:	8b 45 f0             	mov    -0x10(%rbp),%eax
    b61a:	48 63 d0             	movslq %eax,%rdx
    b61d:	48 89 d0             	mov    %rdx,%rax
    b620:	48 c1 e0 03          	shl    $0x3,%rax
    b624:	48 01 d0             	add    %rdx,%rax
    b627:	48 01 c0             	add    %rax,%rax
    b62a:	48 01 d0             	add    %rdx,%rax
    b62d:	48 01 c0             	add    %rax,%rax
    b630:	48 89 c2             	mov    %rax,%rdx
    b633:	48 8d 05 46 8f 00 00 	lea    0x8f46(%rip),%rax        # 14580 <g_296>
    b63a:	8b 44 02 0e          	mov    0xe(%rdx,%rax,1),%eax
    b63e:	89 c1                	mov    %eax,%ecx
    b640:	8b 45 fc             	mov    -0x4(%rbp),%eax
    b643:	89 c2                	mov    %eax,%edx
    b645:	48 8d 35 9c 4d 00 00 	lea    0x4d9c(%rip),%rsi        # 103e8 <g_1955+0x1310>
    b64c:	48 89 cf             	mov    %rcx,%rdi
    b64f:	e8 9f a0 ff ff       	callq  56f3 <transparent_crc>
    b654:	8b 45 f0             	mov    -0x10(%rbp),%eax
    b657:	48 63 d0             	movslq %eax,%rdx
    b65a:	48 89 d0             	mov    %rdx,%rax
    b65d:	48 c1 e0 03          	shl    $0x3,%rax
    b661:	48 01 d0             	add    %rdx,%rax
    b664:	48 01 c0             	add    %rax,%rax
    b667:	48 01 d0             	add    %rdx,%rax
    b66a:	48 01 c0             	add    %rax,%rax
    b66d:	48 89 c2             	mov    %rax,%rdx
    b670:	48 8d 05 19 8f 00 00 	lea    0x8f19(%rip),%rax        # 14590 <g_296+0x10>
    b677:	48 8b 44 02 02       	mov    0x2(%rdx,%rax,1),%rax
    b67c:	48 89 c1             	mov    %rax,%rcx
    b67f:	8b 45 fc             	mov    -0x4(%rbp),%eax
    b682:	89 c2                	mov    %eax,%edx
    b684:	48 8d 35 69 4d 00 00 	lea    0x4d69(%rip),%rsi        # 103f4 <g_1955+0x131c>
    b68b:	48 89 cf             	mov    %rcx,%rdi
    b68e:	e8 60 a0 ff ff       	callq  56f3 <transparent_crc>
    b693:	8b 45 f0             	mov    -0x10(%rbp),%eax
    b696:	48 63 d0             	movslq %eax,%rdx
    b699:	48 89 d0             	mov    %rdx,%rax
    b69c:	48 c1 e0 03          	shl    $0x3,%rax
    b6a0:	48 01 d0             	add    %rdx,%rax
    b6a3:	48 01 c0             	add    %rax,%rax
    b6a6:	48 01 d0             	add    %rdx,%rax
    b6a9:	48 01 c0             	add    %rax,%rax
    b6ac:	48 89 c2             	mov    %rax,%rdx
    b6af:	48 8d 05 da 8e 00 00 	lea    0x8eda(%rip),%rax        # 14590 <g_296+0x10>
    b6b6:	8b 44 02 0a          	mov    0xa(%rdx,%rax,1),%eax
    b6ba:	48 98                	cltq   
    b6bc:	8b 55 fc             	mov    -0x4(%rbp),%edx
    b6bf:	48 8d 35 3a 4d 00 00 	lea    0x4d3a(%rip),%rsi        # 10400 <g_1955+0x1328>
    b6c6:	48 89 c7             	mov    %rax,%rdi
    b6c9:	e8 25 a0 ff ff       	callq  56f3 <transparent_crc>
    b6ce:	8b 45 f0             	mov    -0x10(%rbp),%eax
    b6d1:	48 63 d0             	movslq %eax,%rdx
    b6d4:	48 89 d0             	mov    %rdx,%rax
    b6d7:	48 c1 e0 03          	shl    $0x3,%rax
    b6db:	48 01 d0             	add    %rdx,%rax
    b6de:	48 01 c0             	add    %rax,%rax
    b6e1:	48 01 d0             	add    %rdx,%rax
    b6e4:	48 01 c0             	add    %rax,%rax
    b6e7:	48 89 c2             	mov    %rax,%rdx
    b6ea:	48 8d 05 9f 8e 00 00 	lea    0x8e9f(%rip),%rax        # 14590 <g_296+0x10>
    b6f1:	48 8b 44 02 0e       	mov    0xe(%rdx,%rax,1),%rax
    b6f6:	8b 55 fc             	mov    -0x4(%rbp),%edx
    b6f9:	48 8d 35 0c 4d 00 00 	lea    0x4d0c(%rip),%rsi        # 1040c <g_1955+0x1334>
    b700:	48 89 c7             	mov    %rax,%rdi
    b703:	e8 eb 9f ff ff       	callq  56f3 <transparent_crc>
    b708:	83 7d fc 00          	cmpl   $0x0,-0x4(%rbp)
    b70c:	74 16                	je     b724 <main+0xa02>
    b70e:	8b 45 f0             	mov    -0x10(%rbp),%eax
    b711:	89 c6                	mov    %eax,%esi
    b713:	48 8d 3d d0 4b 00 00 	lea    0x4bd0(%rip),%rdi        # 102ea <g_1955+0x1212>
    b71a:	b8 00 00 00 00       	mov    $0x0,%eax
    b71f:	e8 5c 89 ff ff       	callq  4080 <printf@plt>
    b724:	83 45 f0 01          	addl   $0x1,-0x10(%rbp)
    b728:	83 7d f0 01          	cmpl   $0x1,-0x10(%rbp)
    b72c:	0f 8e ba fd ff ff    	jle    b4ec <main+0x7ca>
    b732:	8b 05 94 8e 00 00    	mov    0x8e94(%rip),%eax        # 145cc <g_315>
    b738:	89 c1                	mov    %eax,%ecx
    b73a:	8b 45 fc             	mov    -0x4(%rbp),%eax
    b73d:	89 c2                	mov    %eax,%edx
    b73f:	48 8d 35 d2 4c 00 00 	lea    0x4cd2(%rip),%rsi        # 10418 <g_1955+0x1340>
    b746:	48 89 cf             	mov    %rcx,%rdi
    b749:	e8 a5 9f ff ff       	callq  56f3 <transparent_crc>
    b74e:	c7 45 f0 00 00 00 00 	movl   $0x0,-0x10(%rbp)
    b755:	e9 a5 01 00 00       	jmpq   b8ff <main+0xbdd>
    b75a:	c7 45 f4 00 00 00 00 	movl   $0x0,-0xc(%rbp)
    b761:	e9 8b 01 00 00       	jmpq   b8f1 <main+0xbcf>
    b766:	8b 45 f4             	mov    -0xc(%rbp),%eax
    b769:	48 63 d0             	movslq %eax,%rdx
    b76c:	8b 45 f0             	mov    -0x10(%rbp),%eax
    b76f:	48 98                	cltq   
    b771:	48 01 d0             	add    %rdx,%rax
    b774:	48 c1 e0 04          	shl    $0x4,%rax
    b778:	48 89 c2             	mov    %rax,%rdx
    b77b:	48 8d 05 5e 8e 00 00 	lea    0x8e5e(%rip),%rax        # 145e0 <g_322>
    b782:	48 8b 04 02          	mov    (%rdx,%rax,1),%rax
    b786:	c1 e0 04             	shl    $0x4,%eax
    b789:	c0 f8 04             	sar    $0x4,%al
    b78c:	48 0f be c0          	movsbq %al,%rax
    b790:	8b 55 fc             	mov    -0x4(%rbp),%edx
    b793:	48 8d 35 84 4c 00 00 	lea    0x4c84(%rip),%rsi        # 1041e <g_1955+0x1346>
    b79a:	48 89 c7             	mov    %rax,%rdi
    b79d:	e8 51 9f ff ff       	callq  56f3 <transparent_crc>
    b7a2:	8b 45 f4             	mov    -0xc(%rbp),%eax
    b7a5:	48 63 d0             	movslq %eax,%rdx
    b7a8:	8b 45 f0             	mov    -0x10(%rbp),%eax
    b7ab:	48 98                	cltq   
    b7ad:	48 01 d0             	add    %rdx,%rax
    b7b0:	48 c1 e0 04          	shl    $0x4,%rax
    b7b4:	48 89 c2             	mov    %rax,%rdx
    b7b7:	48 8d 05 22 8e 00 00 	lea    0x8e22(%rip),%rax        # 145e0 <g_322>
    b7be:	48 8b 04 02          	mov    (%rdx,%rax,1),%rax
    b7c2:	48 c1 e8 04          	shr    $0x4,%rax
    b7c6:	66 25 ff 7f          	and    $0x7fff,%ax
    b7ca:	0f b7 c0             	movzwl %ax,%eax
    b7cd:	8b 55 fc             	mov    -0x4(%rbp),%edx
    b7d0:	48 8d 35 56 4c 00 00 	lea    0x4c56(%rip),%rsi        # 1042d <g_1955+0x1355>
    b7d7:	48 89 c7             	mov    %rax,%rdi
    b7da:	e8 14 9f ff ff       	callq  56f3 <transparent_crc>
    b7df:	8b 45 f4             	mov    -0xc(%rbp),%eax
    b7e2:	48 63 d0             	movslq %eax,%rdx
    b7e5:	8b 45 f0             	mov    -0x10(%rbp),%eax
    b7e8:	48 98                	cltq   
    b7ea:	48 01 d0             	add    %rdx,%rax
    b7ed:	48 c1 e0 04          	shl    $0x4,%rax
    b7f1:	48 89 c2             	mov    %rax,%rdx
    b7f4:	48 8d 05 e5 8d 00 00 	lea    0x8de5(%rip),%rax        # 145e0 <g_322>
    b7fb:	48 8b 04 02          	mov    (%rdx,%rax,1),%rax
    b7ff:	48 c1 e0 0e          	shl    $0xe,%rax
    b803:	48 c1 f8 2e          	sar    $0x2e,%rax
    b807:	48 98                	cltq   
    b809:	8b 55 fc             	mov    -0x4(%rbp),%edx
    b80c:	48 8d 35 29 4c 00 00 	lea    0x4c29(%rip),%rsi        # 1043c <g_1955+0x1364>
    b813:	48 89 c7             	mov    %rax,%rdi
    b816:	e8 d8 9e ff ff       	callq  56f3 <transparent_crc>
    b81b:	8b 45 f4             	mov    -0xc(%rbp),%eax
    b81e:	48 63 d0             	movslq %eax,%rdx
    b821:	8b 45 f0             	mov    -0x10(%rbp),%eax
    b824:	48 98                	cltq   
    b826:	48 01 d0             	add    %rdx,%rax
    b829:	48 c1 e0 04          	shl    $0x4,%rax
    b82d:	48 89 c2             	mov    %rax,%rdx
    b830:	48 8d 05 a9 8d 00 00 	lea    0x8da9(%rip),%rax        # 145e0 <g_322>
    b837:	48 8b 44 02 08       	mov    0x8(%rdx,%rax,1),%rax
    b83c:	01 c0                	add    %eax,%eax
    b83e:	d1 f8                	sar    %eax
    b840:	48 98                	cltq   
    b842:	8b 55 fc             	mov    -0x4(%rbp),%edx
    b845:	48 8d 35 ff 4b 00 00 	lea    0x4bff(%rip),%rsi        # 1044b <g_1955+0x1373>
    b84c:	48 89 c7             	mov    %rax,%rdi
    b84f:	e8 9f 9e ff ff       	callq  56f3 <transparent_crc>
    b854:	8b 45 f4             	mov    -0xc(%rbp),%eax
    b857:	48 63 d0             	movslq %eax,%rdx
    b85a:	8b 45 f0             	mov    -0x10(%rbp),%eax
    b85d:	48 98                	cltq   
    b85f:	48 01 d0             	add    %rdx,%rax
    b862:	48 c1 e0 04          	shl    $0x4,%rax
    b866:	48 89 c2             	mov    %rax,%rdx
    b869:	48 8d 05 70 8d 00 00 	lea    0x8d70(%rip),%rax        # 145e0 <g_322>
    b870:	48 8b 44 02 08       	mov    0x8(%rdx,%rax,1),%rax
    b875:	48 c1 e0 09          	shl    $0x9,%rax
    b879:	48 c1 f8 29          	sar    $0x29,%rax
    b87d:	48 98                	cltq   
    b87f:	8b 55 fc             	mov    -0x4(%rbp),%edx
    b882:	48 8d 35 d1 4b 00 00 	lea    0x4bd1(%rip),%rsi        # 1045a <g_1955+0x1382>
    b889:	48 89 c7             	mov    %rax,%rdi
    b88c:	e8 62 9e ff ff       	callq  56f3 <transparent_crc>
    b891:	8b 45 f4             	mov    -0xc(%rbp),%eax
    b894:	48 63 d0             	movslq %eax,%rdx
    b897:	8b 45 f0             	mov    -0x10(%rbp),%eax
    b89a:	48 98                	cltq   
    b89c:	48 01 d0             	add    %rdx,%rax
    b89f:	48 c1 e0 04          	shl    $0x4,%rax
    b8a3:	48 89 c2             	mov    %rax,%rdx
    b8a6:	48 8d 05 33 8d 00 00 	lea    0x8d33(%rip),%rax        # 145e0 <g_322>
    b8ad:	48 8b 44 02 08       	mov    0x8(%rdx,%rax,1),%rax
    b8b2:	48 c1 e8 37          	shr    $0x37,%rax
    b8b6:	83 e0 03             	and    $0x3,%eax
    b8b9:	0f b6 c0             	movzbl %al,%eax
    b8bc:	8b 55 fc             	mov    -0x4(%rbp),%edx
    b8bf:	48 8d 35 a3 4b 00 00 	lea    0x4ba3(%rip),%rsi        # 10469 <g_1955+0x1391>
    b8c6:	48 89 c7             	mov    %rax,%rdi
    b8c9:	e8 25 9e ff ff       	callq  56f3 <transparent_crc>
    b8ce:	83 7d fc 00          	cmpl   $0x0,-0x4(%rbp)
    b8d2:	74 19                	je     b8ed <main+0xbcb>
    b8d4:	8b 55 f4             	mov    -0xc(%rbp),%edx
    b8d7:	8b 45 f0             	mov    -0x10(%rbp),%eax
    b8da:	89 c6                	mov    %eax,%esi
    b8dc:	48 8d 3d 85 49 00 00 	lea    0x4985(%rip),%rdi        # 10268 <g_1955+0x1190>
    b8e3:	b8 00 00 00 00       	mov    $0x0,%eax
    b8e8:	e8 93 87 ff ff       	callq  4080 <printf@plt>
    b8ed:	83 45 f4 01          	addl   $0x1,-0xc(%rbp)
    b8f1:	83 7d f4 00          	cmpl   $0x0,-0xc(%rbp)
    b8f5:	0f 8e 6b fe ff ff    	jle    b766 <main+0xa44>
    b8fb:	83 45 f0 01          	addl   $0x1,-0x10(%rbp)
    b8ff:	83 7d f0 07          	cmpl   $0x7,-0x10(%rbp)
    b903:	0f 8e 51 fe ff ff    	jle    b75a <main+0xa38>
    b909:	48 8b 05 50 8d 00 00 	mov    0x8d50(%rip),%rax        # 14660 <g_324>
    b910:	c1 e0 04             	shl    $0x4,%eax
    b913:	c0 f8 04             	sar    $0x4,%al
    b916:	48 0f be c0          	movsbq %al,%rax
    b91a:	8b 55 fc             	mov    -0x4(%rbp),%edx
    b91d:	48 8d 35 54 4b 00 00 	lea    0x4b54(%rip),%rsi        # 10478 <g_1955+0x13a0>
    b924:	48 89 c7             	mov    %rax,%rdi
    b927:	e8 c7 9d ff ff       	callq  56f3 <transparent_crc>
    b92c:	48 8b 05 2d 8d 00 00 	mov    0x8d2d(%rip),%rax        # 14660 <g_324>
    b933:	48 c1 e8 04          	shr    $0x4,%rax
    b937:	66 25 ff 7f          	and    $0x7fff,%ax
    b93b:	0f b7 c0             	movzwl %ax,%eax
    b93e:	8b 55 fc             	mov    -0x4(%rbp),%edx
    b941:	48 8d 35 39 4b 00 00 	lea    0x4b39(%rip),%rsi        # 10481 <g_1955+0x13a9>
    b948:	48 89 c7             	mov    %rax,%rdi
    b94b:	e8 a3 9d ff ff       	callq  56f3 <transparent_crc>
    b950:	48 8b 05 09 8d 00 00 	mov    0x8d09(%rip),%rax        # 14660 <g_324>
    b957:	48 c1 e0 0e          	shl    $0xe,%rax
    b95b:	48 c1 f8 2e          	sar    $0x2e,%rax
    b95f:	48 98                	cltq   
    b961:	8b 55 fc             	mov    -0x4(%rbp),%edx
    b964:	48 8d 35 1f 4b 00 00 	lea    0x4b1f(%rip),%rsi        # 1048a <g_1955+0x13b2>
    b96b:	48 89 c7             	mov    %rax,%rdi
    b96e:	e8 80 9d ff ff       	callq  56f3 <transparent_crc>
    b973:	48 8b 05 ee 8c 00 00 	mov    0x8cee(%rip),%rax        # 14668 <g_324+0x8>
    b97a:	01 c0                	add    %eax,%eax
    b97c:	d1 f8                	sar    %eax
    b97e:	48 98                	cltq   
    b980:	8b 55 fc             	mov    -0x4(%rbp),%edx
    b983:	48 8d 35 09 4b 00 00 	lea    0x4b09(%rip),%rsi        # 10493 <g_1955+0x13bb>
    b98a:	48 89 c7             	mov    %rax,%rdi
    b98d:	e8 61 9d ff ff       	callq  56f3 <transparent_crc>
    b992:	48 8b 05 cf 8c 00 00 	mov    0x8ccf(%rip),%rax        # 14668 <g_324+0x8>
    b999:	48 c1 e0 09          	shl    $0x9,%rax
    b99d:	48 c1 f8 29          	sar    $0x29,%rax
    b9a1:	48 98                	cltq   
    b9a3:	8b 55 fc             	mov    -0x4(%rbp),%edx
    b9a6:	48 8d 35 ef 4a 00 00 	lea    0x4aef(%rip),%rsi        # 1049c <g_1955+0x13c4>
    b9ad:	48 89 c7             	mov    %rax,%rdi
    b9b0:	e8 3e 9d ff ff       	callq  56f3 <transparent_crc>
    b9b5:	48 8b 05 ac 8c 00 00 	mov    0x8cac(%rip),%rax        # 14668 <g_324+0x8>
    b9bc:	48 c1 e8 37          	shr    $0x37,%rax
    b9c0:	83 e0 03             	and    $0x3,%eax
    b9c3:	0f b6 c0             	movzbl %al,%eax
    b9c6:	8b 55 fc             	mov    -0x4(%rbp),%edx
    b9c9:	48 8d 35 d5 4a 00 00 	lea    0x4ad5(%rip),%rsi        # 104a5 <g_1955+0x13cd>
    b9d0:	48 89 c7             	mov    %rax,%rdi
    b9d3:	e8 1b 9d ff ff       	callq  56f3 <transparent_crc>
    b9d8:	c7 45 f0 00 00 00 00 	movl   $0x0,-0x10(%rbp)
    b9df:	eb 7a                	jmp    ba5b <main+0xd39>
    b9e1:	c7 45 f4 00 00 00 00 	movl   $0x0,-0xc(%rbp)
    b9e8:	eb 67                	jmp    ba51 <main+0xd2f>
    b9ea:	8b 45 f4             	mov    -0xc(%rbp),%eax
    b9ed:	48 63 c8             	movslq %eax,%rcx
    b9f0:	8b 45 f0             	mov    -0x10(%rbp),%eax
    b9f3:	48 63 d0             	movslq %eax,%rdx
    b9f6:	48 89 d0             	mov    %rdx,%rax
    b9f9:	48 c1 e0 02          	shl    $0x2,%rax
    b9fd:	48 01 d0             	add    %rdx,%rax
    ba00:	48 01 c0             	add    %rax,%rax
    ba03:	48 01 c8             	add    %rcx,%rax
    ba06:	48 8d 14 85 00 00 00 	lea    0x0(,%rax,4),%rdx
    ba0d:	00 
    ba0e:	48 8d 05 6b 8c 00 00 	lea    0x8c6b(%rip),%rax        # 14680 <g_331>
    ba15:	8b 04 02             	mov    (%rdx,%rax,1),%eax
    ba18:	89 c1                	mov    %eax,%ecx
    ba1a:	8b 45 fc             	mov    -0x4(%rbp),%eax
    ba1d:	89 c2                	mov    %eax,%edx
    ba1f:	48 8d 35 88 4a 00 00 	lea    0x4a88(%rip),%rsi        # 104ae <g_1955+0x13d6>
    ba26:	48 89 cf             	mov    %rcx,%rdi
    ba29:	e8 c5 9c ff ff       	callq  56f3 <transparent_crc>
    ba2e:	83 7d fc 00          	cmpl   $0x0,-0x4(%rbp)
    ba32:	74 19                	je     ba4d <main+0xd2b>
    ba34:	8b 55 f4             	mov    -0xc(%rbp),%edx
    ba37:	8b 45 f0             	mov    -0x10(%rbp),%eax
    ba3a:	89 c6                	mov    %eax,%esi
    ba3c:	48 8d 3d 25 48 00 00 	lea    0x4825(%rip),%rdi        # 10268 <g_1955+0x1190>
    ba43:	b8 00 00 00 00       	mov    $0x0,%eax
    ba48:	e8 33 86 ff ff       	callq  4080 <printf@plt>
    ba4d:	83 45 f4 01          	addl   $0x1,-0xc(%rbp)
    ba51:	83 7d f4 09          	cmpl   $0x9,-0xc(%rbp)
    ba55:	7e 93                	jle    b9ea <main+0xcc8>
    ba57:	83 45 f0 01          	addl   $0x1,-0x10(%rbp)
    ba5b:	83 7d f0 08          	cmpl   $0x8,-0x10(%rbp)
    ba5f:	7e 80                	jle    b9e1 <main+0xcbf>
    ba61:	48 8b 05 88 8d 00 00 	mov    0x8d88(%rip),%rax        # 147f0 <g_352>
    ba68:	c1 e0 04             	shl    $0x4,%eax
    ba6b:	c0 f8 04             	sar    $0x4,%al
    ba6e:	48 0f be c0          	movsbq %al,%rax
    ba72:	8b 55 fc             	mov    -0x4(%rbp),%edx
    ba75:	48 8d 35 3e 4a 00 00 	lea    0x4a3e(%rip),%rsi        # 104ba <g_1955+0x13e2>
    ba7c:	48 89 c7             	mov    %rax,%rdi
    ba7f:	e8 6f 9c ff ff       	callq  56f3 <transparent_crc>
    ba84:	48 8b 05 65 8d 00 00 	mov    0x8d65(%rip),%rax        # 147f0 <g_352>
    ba8b:	48 c1 e8 04          	shr    $0x4,%rax
    ba8f:	66 25 ff 7f          	and    $0x7fff,%ax
    ba93:	0f b7 c0             	movzwl %ax,%eax
    ba96:	8b 55 fc             	mov    -0x4(%rbp),%edx
    ba99:	48 8d 35 23 4a 00 00 	lea    0x4a23(%rip),%rsi        # 104c3 <g_1955+0x13eb>
    baa0:	48 89 c7             	mov    %rax,%rdi
    baa3:	e8 4b 9c ff ff       	callq  56f3 <transparent_crc>
    baa8:	48 8b 05 41 8d 00 00 	mov    0x8d41(%rip),%rax        # 147f0 <g_352>
    baaf:	48 c1 e0 0e          	shl    $0xe,%rax
    bab3:	48 c1 f8 2e          	sar    $0x2e,%rax
    bab7:	48 98                	cltq   
    bab9:	8b 55 fc             	mov    -0x4(%rbp),%edx
    babc:	48 8d 35 09 4a 00 00 	lea    0x4a09(%rip),%rsi        # 104cc <g_1955+0x13f4>
    bac3:	48 89 c7             	mov    %rax,%rdi
    bac6:	e8 28 9c ff ff       	callq  56f3 <transparent_crc>
    bacb:	48 8b 05 26 8d 00 00 	mov    0x8d26(%rip),%rax        # 147f8 <g_352+0x8>
    bad2:	01 c0                	add    %eax,%eax
    bad4:	d1 f8                	sar    %eax
    bad6:	48 98                	cltq   
    bad8:	8b 55 fc             	mov    -0x4(%rbp),%edx
    badb:	48 8d 35 f3 49 00 00 	lea    0x49f3(%rip),%rsi        # 104d5 <g_1955+0x13fd>
    bae2:	48 89 c7             	mov    %rax,%rdi
    bae5:	e8 09 9c ff ff       	callq  56f3 <transparent_crc>
    baea:	48 8b 05 07 8d 00 00 	mov    0x8d07(%rip),%rax        # 147f8 <g_352+0x8>
    baf1:	48 c1 e0 09          	shl    $0x9,%rax
    baf5:	48 c1 f8 29          	sar    $0x29,%rax
    baf9:	48 98                	cltq   
    bafb:	8b 55 fc             	mov    -0x4(%rbp),%edx
    bafe:	48 8d 35 d9 49 00 00 	lea    0x49d9(%rip),%rsi        # 104de <g_1955+0x1406>
    bb05:	48 89 c7             	mov    %rax,%rdi
    bb08:	e8 e6 9b ff ff       	callq  56f3 <transparent_crc>
    bb0d:	48 8b 05 e4 8c 00 00 	mov    0x8ce4(%rip),%rax        # 147f8 <g_352+0x8>
    bb14:	48 c1 e8 37          	shr    $0x37,%rax
    bb18:	83 e0 03             	and    $0x3,%eax
    bb1b:	0f b6 c0             	movzbl %al,%eax
    bb1e:	8b 55 fc             	mov    -0x4(%rbp),%edx
    bb21:	48 8d 35 bf 49 00 00 	lea    0x49bf(%rip),%rsi        # 104e7 <g_1955+0x140f>
    bb28:	48 89 c7             	mov    %rax,%rdi
    bb2b:	e8 c3 9b ff ff       	callq  56f3 <transparent_crc>
    bb30:	0f b6 05 c9 8c 00 00 	movzbl 0x8cc9(%rip),%eax        # 14800 <g_355>
    bb37:	0f b6 c0             	movzbl %al,%eax
    bb3a:	8b 55 fc             	mov    -0x4(%rbp),%edx
    bb3d:	48 8d 35 ac 49 00 00 	lea    0x49ac(%rip),%rsi        # 104f0 <g_1955+0x1418>
    bb44:	48 89 c7             	mov    %rax,%rdi
    bb47:	e8 a7 9b ff ff       	callq  56f3 <transparent_crc>
    bb4c:	b8 96 ff ff ff       	mov    $0xffffff96,%eax
    bb51:	48 0f be c0          	movsbq %al,%rax
    bb55:	8b 55 fc             	mov    -0x4(%rbp),%edx
    bb58:	48 8d 35 97 49 00 00 	lea    0x4997(%rip),%rsi        # 104f6 <g_1955+0x141e>
    bb5f:	48 89 c7             	mov    %rax,%rdi
    bb62:	e8 8c 9b ff ff       	callq  56f3 <transparent_crc>
    bb67:	0f b7 05 94 8c 00 00 	movzwl 0x8c94(%rip),%eax        # 14802 <g_415>
    bb6e:	48 0f bf c0          	movswq %ax,%rax
    bb72:	8b 55 fc             	mov    -0x4(%rbp),%edx
    bb75:	48 8d 35 80 49 00 00 	lea    0x4980(%rip),%rsi        # 104fc <g_1955+0x1424>
    bb7c:	48 89 c7             	mov    %rax,%rdi
    bb7f:	e8 6f 9b ff ff       	callq  56f3 <transparent_crc>
    bb84:	8b 05 86 8c 00 00    	mov    0x8c86(%rip),%eax        # 14810 <g_424>
    bb8a:	89 c1                	mov    %eax,%ecx
    bb8c:	8b 45 fc             	mov    -0x4(%rbp),%eax
    bb8f:	89 c2                	mov    %eax,%edx
    bb91:	48 8d 35 6a 49 00 00 	lea    0x496a(%rip),%rsi        # 10502 <g_1955+0x142a>
    bb98:	48 89 cf             	mov    %rcx,%rdi
    bb9b:	e8 53 9b ff ff       	callq  56f3 <transparent_crc>
    bba0:	0f b6 05 6d 8c 00 00 	movzbl 0x8c6d(%rip),%eax        # 14814 <g_424+0x4>
    bba7:	0f b6 c0             	movzbl %al,%eax
    bbaa:	8b 55 fc             	mov    -0x4(%rbp),%edx
    bbad:	48 8d 35 57 49 00 00 	lea    0x4957(%rip),%rsi        # 1050b <g_1955+0x1433>
    bbb4:	48 89 c7             	mov    %rax,%rdi
    bbb7:	e8 37 9b ff ff       	callq  56f3 <transparent_crc>
    bbbc:	8b 05 56 8c 00 00    	mov    0x8c56(%rip),%eax        # 14818 <g_424+0x8>
    bbc2:	89 c1                	mov    %eax,%ecx
    bbc4:	8b 45 fc             	mov    -0x4(%rbp),%eax
    bbc7:	89 c2                	mov    %eax,%edx
    bbc9:	48 8d 35 44 49 00 00 	lea    0x4944(%rip),%rsi        # 10514 <g_1955+0x143c>
    bbd0:	48 89 cf             	mov    %rcx,%rdi
    bbd3:	e8 1b 9b ff ff       	callq  56f3 <transparent_crc>
    bbd8:	8b 05 3e 8c 00 00    	mov    0x8c3e(%rip),%eax        # 1481c <g_424+0xc>
    bbde:	89 c1                	mov    %eax,%ecx
    bbe0:	8b 45 fc             	mov    -0x4(%rbp),%eax
    bbe3:	89 c2                	mov    %eax,%edx
    bbe5:	48 8d 35 31 49 00 00 	lea    0x4931(%rip),%rsi        # 1051d <g_1955+0x1445>
    bbec:	48 89 cf             	mov    %rcx,%rdi
    bbef:	e8 ff 9a ff ff       	callq  56f3 <transparent_crc>
    bbf4:	8b 05 26 8c 00 00    	mov    0x8c26(%rip),%eax        # 14820 <g_454>
    bbfa:	89 c1                	mov    %eax,%ecx
    bbfc:	8b 45 fc             	mov    -0x4(%rbp),%eax
    bbff:	89 c2                	mov    %eax,%edx
    bc01:	48 8d 35 1e 49 00 00 	lea    0x491e(%rip),%rsi        # 10526 <g_1955+0x144e>
    bc08:	48 89 cf             	mov    %rcx,%rdi
    bc0b:	e8 e3 9a ff ff       	callq  56f3 <transparent_crc>
    bc10:	c7 45 f0 00 00 00 00 	movl   $0x0,-0x10(%rbp)
    bc17:	e9 b5 01 00 00       	jmpq   bdd1 <main+0x10af>
    bc1c:	c7 45 f4 00 00 00 00 	movl   $0x0,-0xc(%rbp)
    bc23:	e9 9b 01 00 00       	jmpq   bdc3 <main+0x10a1>
    bc28:	8b 45 f4             	mov    -0xc(%rbp),%eax
    bc2b:	48 98                	cltq   
    bc2d:	8b 55 f0             	mov    -0x10(%rbp),%edx
    bc30:	48 63 d2             	movslq %edx,%rdx
    bc33:	48 c1 e2 02          	shl    $0x2,%rdx
    bc37:	48 01 d0             	add    %rdx,%rax
    bc3a:	48 c1 e0 04          	shl    $0x4,%rax
    bc3e:	48 89 c2             	mov    %rax,%rdx
    bc41:	48 8d 05 f8 8b 00 00 	lea    0x8bf8(%rip),%rax        # 14840 <g_476>
    bc48:	48 8b 04 02          	mov    (%rdx,%rax,1),%rax
    bc4c:	c1 e0 04             	shl    $0x4,%eax
    bc4f:	c0 f8 04             	sar    $0x4,%al
    bc52:	48 0f be c0          	movsbq %al,%rax
    bc56:	8b 55 fc             	mov    -0x4(%rbp),%edx
    bc59:	48 8d 35 cc 48 00 00 	lea    0x48cc(%rip),%rsi        # 1052c <g_1955+0x1454>
    bc60:	48 89 c7             	mov    %rax,%rdi
    bc63:	e8 8b 9a ff ff       	callq  56f3 <transparent_crc>
    bc68:	8b 45 f4             	mov    -0xc(%rbp),%eax
    bc6b:	48 98                	cltq   
    bc6d:	8b 55 f0             	mov    -0x10(%rbp),%edx
    bc70:	48 63 d2             	movslq %edx,%rdx
    bc73:	48 c1 e2 02          	shl    $0x2,%rdx
    bc77:	48 01 d0             	add    %rdx,%rax
    bc7a:	48 c1 e0 04          	shl    $0x4,%rax
    bc7e:	48 89 c2             	mov    %rax,%rdx
    bc81:	48 8d 05 b8 8b 00 00 	lea    0x8bb8(%rip),%rax        # 14840 <g_476>
    bc88:	8b 04 02             	mov    (%rdx,%rax,1),%eax
    bc8b:	c1 e8 04             	shr    $0x4,%eax
    bc8e:	66 25 ff 7f          	and    $0x7fff,%ax
    bc92:	0f b7 c0             	movzwl %ax,%eax
    bc95:	8b 55 fc             	mov    -0x4(%rbp),%edx
    bc98:	48 8d 35 9c 48 00 00 	lea    0x489c(%rip),%rsi        # 1053b <g_1955+0x1463>
    bc9f:	48 89 c7             	mov    %rax,%rdi
    bca2:	e8 4c 9a ff ff       	callq  56f3 <transparent_crc>
    bca7:	8b 45 f4             	mov    -0xc(%rbp),%eax
    bcaa:	48 98                	cltq   
    bcac:	8b 55 f0             	mov    -0x10(%rbp),%edx
    bcaf:	48 63 d2             	movslq %edx,%rdx
    bcb2:	48 c1 e2 02          	shl    $0x2,%rdx
    bcb6:	48 01 d0             	add    %rdx,%rax
    bcb9:	48 c1 e0 04          	shl    $0x4,%rax
    bcbd:	48 89 c2             	mov    %rax,%rdx
    bcc0:	48 8d 05 79 8b 00 00 	lea    0x8b79(%rip),%rax        # 14840 <g_476>
    bcc7:	8b 44 02 04          	mov    0x4(%rdx,%rax,1),%eax
    bccb:	c1 e0 0e             	shl    $0xe,%eax
    bcce:	c1 f8 0e             	sar    $0xe,%eax
    bcd1:	48 98                	cltq   
    bcd3:	8b 55 fc             	mov    -0x4(%rbp),%edx
    bcd6:	48 8d 35 6d 48 00 00 	lea    0x486d(%rip),%rsi        # 1054a <g_1955+0x1472>
    bcdd:	48 89 c7             	mov    %rax,%rdi
    bce0:	e8 0e 9a ff ff       	callq  56f3 <transparent_crc>
    bce5:	8b 45 f4             	mov    -0xc(%rbp),%eax
    bce8:	48 98                	cltq   
    bcea:	8b 55 f0             	mov    -0x10(%rbp),%edx
    bced:	48 63 d2             	movslq %edx,%rdx
    bcf0:	48 c1 e2 02          	shl    $0x2,%rdx
    bcf4:	48 01 d0             	add    %rdx,%rax
    bcf7:	48 c1 e0 04          	shl    $0x4,%rax
    bcfb:	48 89 c2             	mov    %rax,%rdx
    bcfe:	48 8d 05 3b 8b 00 00 	lea    0x8b3b(%rip),%rax        # 14840 <g_476>
    bd05:	8b 44 02 08          	mov    0x8(%rdx,%rax,1),%eax
    bd09:	01 c0                	add    %eax,%eax
    bd0b:	d1 f8                	sar    %eax
    bd0d:	48 98                	cltq   
    bd0f:	8b 55 fc             	mov    -0x4(%rbp),%edx
    bd12:	48 8d 35 40 48 00 00 	lea    0x4840(%rip),%rsi        # 10559 <g_1955+0x1481>
    bd19:	48 89 c7             	mov    %rax,%rdi
    bd1c:	e8 d2 99 ff ff       	callq  56f3 <transparent_crc>
    bd21:	8b 45 f4             	mov    -0xc(%rbp),%eax
    bd24:	48 98                	cltq   
    bd26:	8b 55 f0             	mov    -0x10(%rbp),%edx
    bd29:	48 63 d2             	movslq %edx,%rdx
    bd2c:	48 c1 e2 02          	shl    $0x2,%rdx
    bd30:	48 01 d0             	add    %rdx,%rax
    bd33:	48 c1 e0 04          	shl    $0x4,%rax
    bd37:	48 89 c2             	mov    %rax,%rdx
    bd3a:	48 8d 05 ff 8a 00 00 	lea    0x8aff(%rip),%rax        # 14840 <g_476>
    bd41:	8b 44 02 0c          	mov    0xc(%rdx,%rax,1),%eax
    bd45:	c1 e0 09             	shl    $0x9,%eax
    bd48:	c1 f8 09             	sar    $0x9,%eax
    bd4b:	48 98                	cltq   
    bd4d:	8b 55 fc             	mov    -0x4(%rbp),%edx
    bd50:	48 8d 35 11 48 00 00 	lea    0x4811(%rip),%rsi        # 10568 <g_1955+0x1490>
    bd57:	48 89 c7             	mov    %rax,%rdi
    bd5a:	e8 94 99 ff ff       	callq  56f3 <transparent_crc>
    bd5f:	8b 45 f4             	mov    -0xc(%rbp),%eax
    bd62:	48 98                	cltq   
    bd64:	8b 55 f0             	mov    -0x10(%rbp),%edx
    bd67:	48 63 d2             	movslq %edx,%rdx
    bd6a:	48 c1 e2 02          	shl    $0x2,%rdx
    bd6e:	48 01 d0             	add    %rdx,%rax
    bd71:	48 c1 e0 04          	shl    $0x4,%rax
    bd75:	48 89 c2             	mov    %rax,%rdx
    bd78:	48 8d 05 c1 8a 00 00 	lea    0x8ac1(%rip),%rax        # 14840 <g_476>
    bd7f:	48 8b 44 02 08       	mov    0x8(%rdx,%rax,1),%rax
    bd84:	48 c1 e8 37          	shr    $0x37,%rax
    bd88:	83 e0 03             	and    $0x3,%eax
    bd8b:	0f b6 c0             	movzbl %al,%eax
    bd8e:	8b 55 fc             	mov    -0x4(%rbp),%edx
    bd91:	48 8d 35 df 47 00 00 	lea    0x47df(%rip),%rsi        # 10577 <g_1955+0x149f>
    bd98:	48 89 c7             	mov    %rax,%rdi
    bd9b:	e8 53 99 ff ff       	callq  56f3 <transparent_crc>
    bda0:	83 7d fc 00          	cmpl   $0x0,-0x4(%rbp)
    bda4:	74 19                	je     bdbf <main+0x109d>
    bda6:	8b 55 f4             	mov    -0xc(%rbp),%edx
    bda9:	8b 45 f0             	mov    -0x10(%rbp),%eax
    bdac:	89 c6                	mov    %eax,%esi
    bdae:	48 8d 3d b3 44 00 00 	lea    0x44b3(%rip),%rdi        # 10268 <g_1955+0x1190>
    bdb5:	b8 00 00 00 00       	mov    $0x0,%eax
    bdba:	e8 c1 82 ff ff       	callq  4080 <printf@plt>
    bdbf:	83 45 f4 01          	addl   $0x1,-0xc(%rbp)
    bdc3:	83 7d f4 03          	cmpl   $0x3,-0xc(%rbp)
    bdc7:	0f 8e 5b fe ff ff    	jle    bc28 <main+0xf06>
    bdcd:	83 45 f0 01          	addl   $0x1,-0x10(%rbp)
    bdd1:	83 7d f0 05          	cmpl   $0x5,-0x10(%rbp)
    bdd5:	0f 8e 41 fe ff ff    	jle    bc1c <main+0xefa>
    bddb:	c7 45 f0 00 00 00 00 	movl   $0x0,-0x10(%rbp)
    bde2:	eb 46                	jmp    be2a <main+0x1108>
    bde4:	8b 45 f0             	mov    -0x10(%rbp),%eax
    bde7:	48 98                	cltq   
    bde9:	48 8d 15 30 c5 00 00 	lea    0xc530(%rip),%rdx        # 18320 <g_502>
    bdf0:	0f b6 04 10          	movzbl (%rax,%rdx,1),%eax
    bdf4:	48 0f be c0          	movsbq %al,%rax
    bdf8:	8b 55 fc             	mov    -0x4(%rbp),%edx
    bdfb:	48 8d 35 84 47 00 00 	lea    0x4784(%rip),%rsi        # 10586 <g_1955+0x14ae>
    be02:	48 89 c7             	mov    %rax,%rdi
    be05:	e8 e9 98 ff ff       	callq  56f3 <transparent_crc>
    be0a:	83 7d fc 00          	cmpl   $0x0,-0x4(%rbp)
    be0e:	74 16                	je     be26 <main+0x1104>
    be10:	8b 45 f0             	mov    -0x10(%rbp),%eax
    be13:	89 c6                	mov    %eax,%esi
    be15:	48 8d 3d ce 44 00 00 	lea    0x44ce(%rip),%rdi        # 102ea <g_1955+0x1212>
    be1c:	b8 00 00 00 00       	mov    $0x0,%eax
    be21:	e8 5a 82 ff ff       	callq  4080 <printf@plt>
    be26:	83 45 f0 01          	addl   $0x1,-0x10(%rbp)
    be2a:	83 7d f0 05          	cmpl   $0x5,-0x10(%rbp)
    be2e:	7e b4                	jle    bde4 <main+0x10c2>
    be30:	48 8b 05 89 8b 00 00 	mov    0x8b89(%rip),%rax        # 149c0 <g_537>
    be37:	c1 e0 04             	shl    $0x4,%eax
    be3a:	c0 f8 04             	sar    $0x4,%al
    be3d:	48 0f be c0          	movsbq %al,%rax
    be41:	8b 55 fc             	mov    -0x4(%rbp),%edx
    be44:	48 8d 35 44 47 00 00 	lea    0x4744(%rip),%rsi        # 1058f <g_1955+0x14b7>
    be4b:	48 89 c7             	mov    %rax,%rdi
    be4e:	e8 a0 98 ff ff       	callq  56f3 <transparent_crc>
    be53:	48 8b 05 66 8b 00 00 	mov    0x8b66(%rip),%rax        # 149c0 <g_537>
    be5a:	48 c1 e8 04          	shr    $0x4,%rax
    be5e:	66 25 ff 7f          	and    $0x7fff,%ax
    be62:	0f b7 c0             	movzwl %ax,%eax
    be65:	8b 55 fc             	mov    -0x4(%rbp),%edx
    be68:	48 8d 35 29 47 00 00 	lea    0x4729(%rip),%rsi        # 10598 <g_1955+0x14c0>
    be6f:	48 89 c7             	mov    %rax,%rdi
    be72:	e8 7c 98 ff ff       	callq  56f3 <transparent_crc>
    be77:	48 8b 05 42 8b 00 00 	mov    0x8b42(%rip),%rax        # 149c0 <g_537>
    be7e:	48 c1 e0 0e          	shl    $0xe,%rax
    be82:	48 c1 f8 2e          	sar    $0x2e,%rax
    be86:	48 98                	cltq   
    be88:	8b 55 fc             	mov    -0x4(%rbp),%edx
    be8b:	48 8d 35 0f 47 00 00 	lea    0x470f(%rip),%rsi        # 105a1 <g_1955+0x14c9>
    be92:	48 89 c7             	mov    %rax,%rdi
    be95:	e8 59 98 ff ff       	callq  56f3 <transparent_crc>
    be9a:	48 8b 05 27 8b 00 00 	mov    0x8b27(%rip),%rax        # 149c8 <g_537+0x8>
    bea1:	01 c0                	add    %eax,%eax
    bea3:	d1 f8                	sar    %eax
    bea5:	48 98                	cltq   
    bea7:	8b 55 fc             	mov    -0x4(%rbp),%edx
    beaa:	48 8d 35 f9 46 00 00 	lea    0x46f9(%rip),%rsi        # 105aa <g_1955+0x14d2>
    beb1:	48 89 c7             	mov    %rax,%rdi
    beb4:	e8 3a 98 ff ff       	callq  56f3 <transparent_crc>
    beb9:	48 8b 05 08 8b 00 00 	mov    0x8b08(%rip),%rax        # 149c8 <g_537+0x8>
    bec0:	48 c1 e0 09          	shl    $0x9,%rax
    bec4:	48 c1 f8 29          	sar    $0x29,%rax
    bec8:	48 98                	cltq   
    beca:	8b 55 fc             	mov    -0x4(%rbp),%edx
    becd:	48 8d 35 df 46 00 00 	lea    0x46df(%rip),%rsi        # 105b3 <g_1955+0x14db>
    bed4:	48 89 c7             	mov    %rax,%rdi
    bed7:	e8 17 98 ff ff       	callq  56f3 <transparent_crc>
    bedc:	48 8b 05 e5 8a 00 00 	mov    0x8ae5(%rip),%rax        # 149c8 <g_537+0x8>
    bee3:	48 c1 e8 37          	shr    $0x37,%rax
    bee7:	83 e0 03             	and    $0x3,%eax
    beea:	0f b6 c0             	movzbl %al,%eax
    beed:	8b 55 fc             	mov    -0x4(%rbp),%edx
    bef0:	48 8d 35 c5 46 00 00 	lea    0x46c5(%rip),%rsi        # 105bc <g_1955+0x14e4>
    bef7:	48 89 c7             	mov    %rax,%rdi
    befa:	e8 f4 97 ff ff       	callq  56f3 <transparent_crc>
    beff:	48 8b 05 ca 8a 00 00 	mov    0x8aca(%rip),%rax        # 149d0 <g_538>
    bf06:	c1 e0 04             	shl    $0x4,%eax
    bf09:	c0 f8 04             	sar    $0x4,%al
    bf0c:	48 0f be c0          	movsbq %al,%rax
    bf10:	8b 55 fc             	mov    -0x4(%rbp),%edx
    bf13:	48 8d 35 ab 46 00 00 	lea    0x46ab(%rip),%rsi        # 105c5 <g_1955+0x14ed>
    bf1a:	48 89 c7             	mov    %rax,%rdi
    bf1d:	e8 d1 97 ff ff       	callq  56f3 <transparent_crc>
    bf22:	48 8b 05 a7 8a 00 00 	mov    0x8aa7(%rip),%rax        # 149d0 <g_538>
    bf29:	48 c1 e8 04          	shr    $0x4,%rax
    bf2d:	66 25 ff 7f          	and    $0x7fff,%ax
    bf31:	0f b7 c0             	movzwl %ax,%eax
    bf34:	8b 55 fc             	mov    -0x4(%rbp),%edx
    bf37:	48 8d 35 90 46 00 00 	lea    0x4690(%rip),%rsi        # 105ce <g_1955+0x14f6>
    bf3e:	48 89 c7             	mov    %rax,%rdi
    bf41:	e8 ad 97 ff ff       	callq  56f3 <transparent_crc>
    bf46:	48 8b 05 83 8a 00 00 	mov    0x8a83(%rip),%rax        # 149d0 <g_538>
    bf4d:	48 c1 e0 0e          	shl    $0xe,%rax
    bf51:	48 c1 f8 2e          	sar    $0x2e,%rax
    bf55:	48 98                	cltq   
    bf57:	8b 55 fc             	mov    -0x4(%rbp),%edx
    bf5a:	48 8d 35 76 46 00 00 	lea    0x4676(%rip),%rsi        # 105d7 <g_1955+0x14ff>
    bf61:	48 89 c7             	mov    %rax,%rdi
    bf64:	e8 8a 97 ff ff       	callq  56f3 <transparent_crc>
    bf69:	48 8b 05 68 8a 00 00 	mov    0x8a68(%rip),%rax        # 149d8 <g_538+0x8>
    bf70:	01 c0                	add    %eax,%eax
    bf72:	d1 f8                	sar    %eax
    bf74:	48 98                	cltq   
    bf76:	8b 55 fc             	mov    -0x4(%rbp),%edx
    bf79:	48 8d 35 60 46 00 00 	lea    0x4660(%rip),%rsi        # 105e0 <g_1955+0x1508>
    bf80:	48 89 c7             	mov    %rax,%rdi
    bf83:	e8 6b 97 ff ff       	callq  56f3 <transparent_crc>
    bf88:	48 8b 05 49 8a 00 00 	mov    0x8a49(%rip),%rax        # 149d8 <g_538+0x8>
    bf8f:	48 c1 e0 09          	shl    $0x9,%rax
    bf93:	48 c1 f8 29          	sar    $0x29,%rax
    bf97:	48 98                	cltq   
    bf99:	8b 55 fc             	mov    -0x4(%rbp),%edx
    bf9c:	48 8d 35 46 46 00 00 	lea    0x4646(%rip),%rsi        # 105e9 <g_1955+0x1511>
    bfa3:	48 89 c7             	mov    %rax,%rdi
    bfa6:	e8 48 97 ff ff       	callq  56f3 <transparent_crc>
    bfab:	48 8b 05 26 8a 00 00 	mov    0x8a26(%rip),%rax        # 149d8 <g_538+0x8>
    bfb2:	48 c1 e8 37          	shr    $0x37,%rax
    bfb6:	83 e0 03             	and    $0x3,%eax
    bfb9:	0f b6 c0             	movzbl %al,%eax
    bfbc:	8b 55 fc             	mov    -0x4(%rbp),%edx
    bfbf:	48 8d 35 2c 46 00 00 	lea    0x462c(%rip),%rsi        # 105f2 <g_1955+0x151a>
    bfc6:	48 89 c7             	mov    %rax,%rdi
    bfc9:	e8 25 97 ff ff       	callq  56f3 <transparent_crc>
    bfce:	8b 05 0c 8a 00 00    	mov    0x8a0c(%rip),%eax        # 149e0 <g_542>
    bfd4:	89 c1                	mov    %eax,%ecx
    bfd6:	8b 45 fc             	mov    -0x4(%rbp),%eax
    bfd9:	89 c2                	mov    %eax,%edx
    bfdb:	48 8d 35 19 46 00 00 	lea    0x4619(%rip),%rsi        # 105fb <g_1955+0x1523>
    bfe2:	48 89 cf             	mov    %rcx,%rdi
    bfe5:	e8 09 97 ff ff       	callq  56f3 <transparent_crc>
    bfea:	0f b6 05 f3 89 00 00 	movzbl 0x89f3(%rip),%eax        # 149e4 <g_542+0x4>
    bff1:	0f b6 c0             	movzbl %al,%eax
    bff4:	8b 55 fc             	mov    -0x4(%rbp),%edx
    bff7:	48 8d 35 06 46 00 00 	lea    0x4606(%rip),%rsi        # 10604 <g_1955+0x152c>
    bffe:	48 89 c7             	mov    %rax,%rdi
    c001:	e8 ed 96 ff ff       	callq  56f3 <transparent_crc>
    c006:	8b 05 dc 89 00 00    	mov    0x89dc(%rip),%eax        # 149e8 <g_542+0x8>
    c00c:	89 c1                	mov    %eax,%ecx
    c00e:	8b 45 fc             	mov    -0x4(%rbp),%eax
    c011:	89 c2                	mov    %eax,%edx
    c013:	48 8d 35 f3 45 00 00 	lea    0x45f3(%rip),%rsi        # 1060d <g_1955+0x1535>
    c01a:	48 89 cf             	mov    %rcx,%rdi
    c01d:	e8 d1 96 ff ff       	callq  56f3 <transparent_crc>
    c022:	8b 05 c4 89 00 00    	mov    0x89c4(%rip),%eax        # 149ec <g_542+0xc>
    c028:	89 c1                	mov    %eax,%ecx
    c02a:	8b 45 fc             	mov    -0x4(%rbp),%eax
    c02d:	89 c2                	mov    %eax,%edx
    c02f:	48 8d 35 e0 45 00 00 	lea    0x45e0(%rip),%rsi        # 10616 <g_1955+0x153e>
    c036:	48 89 cf             	mov    %rcx,%rdi
    c039:	e8 b5 96 ff ff       	callq  56f3 <transparent_crc>
    c03e:	0f b7 05 ab 89 00 00 	movzwl 0x89ab(%rip),%eax        # 149f0 <g_565>
    c045:	48 0f bf c0          	movswq %ax,%rax
    c049:	8b 55 fc             	mov    -0x4(%rbp),%edx
    c04c:	48 8d 35 cc 45 00 00 	lea    0x45cc(%rip),%rsi        # 1061f <g_1955+0x1547>
    c053:	48 89 c7             	mov    %rax,%rdi
    c056:	e8 98 96 ff ff       	callq  56f3 <transparent_crc>
    c05b:	c7 45 f0 00 00 00 00 	movl   $0x0,-0x10(%rbp)
    c062:	eb 4a                	jmp    c0ae <main+0x138c>
    c064:	8b 45 f0             	mov    -0x10(%rbp),%eax
    c067:	48 98                	cltq   
    c069:	48 8d 14 c5 00 00 00 	lea    0x0(,%rax,8),%rdx
    c070:	00 
    c071:	48 8d 05 88 89 00 00 	lea    0x8988(%rip),%rax        # 14a00 <g_574>
    c078:	48 8b 04 02          	mov    (%rdx,%rax,1),%rax
    c07c:	8b 55 fc             	mov    -0x4(%rbp),%edx
    c07f:	48 8d 35 9f 45 00 00 	lea    0x459f(%rip),%rsi        # 10625 <g_1955+0x154d>
    c086:	48 89 c7             	mov    %rax,%rdi
    c089:	e8 65 96 ff ff       	callq  56f3 <transparent_crc>
    c08e:	83 7d fc 00          	cmpl   $0x0,-0x4(%rbp)
    c092:	74 16                	je     c0aa <main+0x1388>
    c094:	8b 45 f0             	mov    -0x10(%rbp),%eax
    c097:	89 c6                	mov    %eax,%esi
    c099:	48 8d 3d 4a 42 00 00 	lea    0x424a(%rip),%rdi        # 102ea <g_1955+0x1212>
    c0a0:	b8 00 00 00 00       	mov    $0x0,%eax
    c0a5:	e8 d6 7f ff ff       	callq  4080 <printf@plt>
    c0aa:	83 45 f0 01          	addl   $0x1,-0x10(%rbp)
    c0ae:	83 7d f0 09          	cmpl   $0x9,-0x10(%rbp)
    c0b2:	7e b0                	jle    c064 <main+0x1342>
    c0b4:	8b 05 96 89 00 00    	mov    0x8996(%rip),%eax        # 14a50 <g_594>
    c0ba:	89 c1                	mov    %eax,%ecx
    c0bc:	8b 45 fc             	mov    -0x4(%rbp),%eax
    c0bf:	89 c2                	mov    %eax,%edx
    c0c1:	48 8d 35 66 45 00 00 	lea    0x4566(%rip),%rsi        # 1062e <g_1955+0x1556>
    c0c8:	48 89 cf             	mov    %rcx,%rdi
    c0cb:	e8 23 96 ff ff       	callq  56f3 <transparent_crc>
    c0d0:	0f b6 05 7d 89 00 00 	movzbl 0x897d(%rip),%eax        # 14a54 <g_594+0x4>
    c0d7:	0f b6 c0             	movzbl %al,%eax
    c0da:	8b 55 fc             	mov    -0x4(%rbp),%edx
    c0dd:	48 8d 35 53 45 00 00 	lea    0x4553(%rip),%rsi        # 10637 <g_1955+0x155f>
    c0e4:	48 89 c7             	mov    %rax,%rdi
    c0e7:	e8 07 96 ff ff       	callq  56f3 <transparent_crc>
    c0ec:	8b 05 66 89 00 00    	mov    0x8966(%rip),%eax        # 14a58 <g_594+0x8>
    c0f2:	89 c1                	mov    %eax,%ecx
    c0f4:	8b 45 fc             	mov    -0x4(%rbp),%eax
    c0f7:	89 c2                	mov    %eax,%edx
    c0f9:	48 8d 35 40 45 00 00 	lea    0x4540(%rip),%rsi        # 10640 <g_1955+0x1568>
    c100:	48 89 cf             	mov    %rcx,%rdi
    c103:	e8 eb 95 ff ff       	callq  56f3 <transparent_crc>
    c108:	8b 05 4e 89 00 00    	mov    0x894e(%rip),%eax        # 14a5c <g_594+0xc>
    c10e:	89 c1                	mov    %eax,%ecx
    c110:	8b 45 fc             	mov    -0x4(%rbp),%eax
    c113:	89 c2                	mov    %eax,%edx
    c115:	48 8d 35 2d 45 00 00 	lea    0x452d(%rip),%rsi        # 10649 <g_1955+0x1571>
    c11c:	48 89 cf             	mov    %rcx,%rdi
    c11f:	e8 cf 95 ff ff       	callq  56f3 <transparent_crc>
    c124:	8b 05 36 89 00 00    	mov    0x8936(%rip),%eax        # 14a60 <g_632>
    c12a:	89 c1                	mov    %eax,%ecx
    c12c:	8b 45 fc             	mov    -0x4(%rbp),%eax
    c12f:	89 c2                	mov    %eax,%edx
    c131:	48 8d 35 1a 45 00 00 	lea    0x451a(%rip),%rsi        # 10652 <g_1955+0x157a>
    c138:	48 89 cf             	mov    %rcx,%rdi
    c13b:	e8 b3 95 ff ff       	callq  56f3 <transparent_crc>
    c140:	b8 93 ff ff ff       	mov    $0xffffff93,%eax
    c145:	0f b6 c0             	movzbl %al,%eax
    c148:	8b 55 fc             	mov    -0x4(%rbp),%edx
    c14b:	48 8d 35 06 45 00 00 	lea    0x4506(%rip),%rsi        # 10658 <g_1955+0x1580>
    c152:	48 89 c7             	mov    %rax,%rdi
    c155:	e8 99 95 ff ff       	callq  56f3 <transparent_crc>
    c15a:	8b 05 10 89 00 00    	mov    0x8910(%rip),%eax        # 14a70 <g_681>
    c160:	89 c1                	mov    %eax,%ecx
    c162:	8b 45 fc             	mov    -0x4(%rbp),%eax
    c165:	89 c2                	mov    %eax,%edx
    c167:	48 8d 35 f0 44 00 00 	lea    0x44f0(%rip),%rsi        # 1065e <g_1955+0x1586>
    c16e:	48 89 cf             	mov    %rcx,%rdi
    c171:	e8 7d 95 ff ff       	callq  56f3 <transparent_crc>
    c176:	0f b6 05 f7 88 00 00 	movzbl 0x88f7(%rip),%eax        # 14a74 <g_681+0x4>
    c17d:	0f b6 c0             	movzbl %al,%eax
    c180:	8b 55 fc             	mov    -0x4(%rbp),%edx
    c183:	48 8d 35 dd 44 00 00 	lea    0x44dd(%rip),%rsi        # 10667 <g_1955+0x158f>
    c18a:	48 89 c7             	mov    %rax,%rdi
    c18d:	e8 61 95 ff ff       	callq  56f3 <transparent_crc>
    c192:	8b 05 e0 88 00 00    	mov    0x88e0(%rip),%eax        # 14a78 <g_681+0x8>
    c198:	89 c1                	mov    %eax,%ecx
    c19a:	8b 45 fc             	mov    -0x4(%rbp),%eax
    c19d:	89 c2                	mov    %eax,%edx
    c19f:	48 8d 35 ca 44 00 00 	lea    0x44ca(%rip),%rsi        # 10670 <g_1955+0x1598>
    c1a6:	48 89 cf             	mov    %rcx,%rdi
    c1a9:	e8 45 95 ff ff       	callq  56f3 <transparent_crc>
    c1ae:	8b 05 c8 88 00 00    	mov    0x88c8(%rip),%eax        # 14a7c <g_681+0xc>
    c1b4:	89 c1                	mov    %eax,%ecx
    c1b6:	8b 45 fc             	mov    -0x4(%rbp),%eax
    c1b9:	89 c2                	mov    %eax,%edx
    c1bb:	48 8d 35 b7 44 00 00 	lea    0x44b7(%rip),%rsi        # 10679 <g_1955+0x15a1>
    c1c2:	48 89 cf             	mov    %rcx,%rdi
    c1c5:	e8 29 95 ff ff       	callq  56f3 <transparent_crc>
    c1ca:	48 8b 05 af 88 00 00 	mov    0x88af(%rip),%rax        # 14a80 <g_683>
    c1d1:	c1 e0 04             	shl    $0x4,%eax
    c1d4:	c0 f8 04             	sar    $0x4,%al
    c1d7:	48 0f be c0          	movsbq %al,%rax
    c1db:	8b 55 fc             	mov    -0x4(%rbp),%edx
    c1de:	48 8d 35 9d 44 00 00 	lea    0x449d(%rip),%rsi        # 10682 <g_1955+0x15aa>
    c1e5:	48 89 c7             	mov    %rax,%rdi
    c1e8:	e8 06 95 ff ff       	callq  56f3 <transparent_crc>
    c1ed:	48 8b 05 8c 88 00 00 	mov    0x888c(%rip),%rax        # 14a80 <g_683>
    c1f4:	48 c1 e8 04          	shr    $0x4,%rax
    c1f8:	66 25 ff 7f          	and    $0x7fff,%ax
    c1fc:	0f b7 c0             	movzwl %ax,%eax
    c1ff:	8b 55 fc             	mov    -0x4(%rbp),%edx
    c202:	48 8d 35 82 44 00 00 	lea    0x4482(%rip),%rsi        # 1068b <g_1955+0x15b3>
    c209:	48 89 c7             	mov    %rax,%rdi
    c20c:	e8 e2 94 ff ff       	callq  56f3 <transparent_crc>
    c211:	48 8b 05 68 88 00 00 	mov    0x8868(%rip),%rax        # 14a80 <g_683>
    c218:	48 c1 e0 0e          	shl    $0xe,%rax
    c21c:	48 c1 f8 2e          	sar    $0x2e,%rax
    c220:	48 98                	cltq   
    c222:	8b 55 fc             	mov    -0x4(%rbp),%edx
    c225:	48 8d 35 68 44 00 00 	lea    0x4468(%rip),%rsi        # 10694 <g_1955+0x15bc>
    c22c:	48 89 c7             	mov    %rax,%rdi
    c22f:	e8 bf 94 ff ff       	callq  56f3 <transparent_crc>
    c234:	48 8b 05 4d 88 00 00 	mov    0x884d(%rip),%rax        # 14a88 <g_683+0x8>
    c23b:	01 c0                	add    %eax,%eax
    c23d:	d1 f8                	sar    %eax
    c23f:	48 98                	cltq   
    c241:	8b 55 fc             	mov    -0x4(%rbp),%edx
    c244:	48 8d 35 52 44 00 00 	lea    0x4452(%rip),%rsi        # 1069d <g_1955+0x15c5>
    c24b:	48 89 c7             	mov    %rax,%rdi
    c24e:	e8 a0 94 ff ff       	callq  56f3 <transparent_crc>
    c253:	48 8b 05 2e 88 00 00 	mov    0x882e(%rip),%rax        # 14a88 <g_683+0x8>
    c25a:	48 c1 e0 09          	shl    $0x9,%rax
    c25e:	48 c1 f8 29          	sar    $0x29,%rax
    c262:	48 98                	cltq   
    c264:	8b 55 fc             	mov    -0x4(%rbp),%edx
    c267:	48 8d 35 38 44 00 00 	lea    0x4438(%rip),%rsi        # 106a6 <g_1955+0x15ce>
    c26e:	48 89 c7             	mov    %rax,%rdi
    c271:	e8 7d 94 ff ff       	callq  56f3 <transparent_crc>
    c276:	48 8b 05 0b 88 00 00 	mov    0x880b(%rip),%rax        # 14a88 <g_683+0x8>
    c27d:	48 c1 e8 37          	shr    $0x37,%rax
    c281:	83 e0 03             	and    $0x3,%eax
    c284:	0f b6 c0             	movzbl %al,%eax
    c287:	8b 55 fc             	mov    -0x4(%rbp),%edx
    c28a:	48 8d 35 1e 44 00 00 	lea    0x441e(%rip),%rsi        # 106af <g_1955+0x15d7>
    c291:	48 89 c7             	mov    %rax,%rdi
    c294:	e8 5a 94 ff ff       	callq  56f3 <transparent_crc>
    c299:	8b 05 f1 87 00 00    	mov    0x87f1(%rip),%eax        # 14a90 <g_749>
    c29f:	89 c1                	mov    %eax,%ecx
    c2a1:	8b 45 fc             	mov    -0x4(%rbp),%eax
    c2a4:	89 c2                	mov    %eax,%edx
    c2a6:	48 8d 35 0b 44 00 00 	lea    0x440b(%rip),%rsi        # 106b8 <g_1955+0x15e0>
    c2ad:	48 89 cf             	mov    %rcx,%rdi
    c2b0:	e8 3e 94 ff ff       	callq  56f3 <transparent_crc>
    c2b5:	48 8b 05 e4 87 00 00 	mov    0x87e4(%rip),%rax        # 14aa0 <g_752>
    c2bc:	c1 e0 04             	shl    $0x4,%eax
    c2bf:	c0 f8 04             	sar    $0x4,%al
    c2c2:	48 0f be c0          	movsbq %al,%rax
    c2c6:	8b 55 fc             	mov    -0x4(%rbp),%edx
    c2c9:	48 8d 35 ee 43 00 00 	lea    0x43ee(%rip),%rsi        # 106be <g_1955+0x15e6>
    c2d0:	48 89 c7             	mov    %rax,%rdi
    c2d3:	e8 1b 94 ff ff       	callq  56f3 <transparent_crc>
    c2d8:	48 8b 05 c1 87 00 00 	mov    0x87c1(%rip),%rax        # 14aa0 <g_752>
    c2df:	48 c1 e8 04          	shr    $0x4,%rax
    c2e3:	66 25 ff 7f          	and    $0x7fff,%ax
    c2e7:	0f b7 c0             	movzwl %ax,%eax
    c2ea:	8b 55 fc             	mov    -0x4(%rbp),%edx
    c2ed:	48 8d 35 d3 43 00 00 	lea    0x43d3(%rip),%rsi        # 106c7 <g_1955+0x15ef>
    c2f4:	48 89 c7             	mov    %rax,%rdi
    c2f7:	e8 f7 93 ff ff       	callq  56f3 <transparent_crc>
    c2fc:	48 8b 05 9d 87 00 00 	mov    0x879d(%rip),%rax        # 14aa0 <g_752>
    c303:	48 c1 e0 0e          	shl    $0xe,%rax
    c307:	48 c1 f8 2e          	sar    $0x2e,%rax
    c30b:	48 98                	cltq   
    c30d:	8b 55 fc             	mov    -0x4(%rbp),%edx
    c310:	48 8d 35 b9 43 00 00 	lea    0x43b9(%rip),%rsi        # 106d0 <g_1955+0x15f8>
    c317:	48 89 c7             	mov    %rax,%rdi
    c31a:	e8 d4 93 ff ff       	callq  56f3 <transparent_crc>
    c31f:	48 8b 05 82 87 00 00 	mov    0x8782(%rip),%rax        # 14aa8 <g_752+0x8>
    c326:	01 c0                	add    %eax,%eax
    c328:	d1 f8                	sar    %eax
    c32a:	48 98                	cltq   
    c32c:	8b 55 fc             	mov    -0x4(%rbp),%edx
    c32f:	48 8d 35 a3 43 00 00 	lea    0x43a3(%rip),%rsi        # 106d9 <g_1955+0x1601>
    c336:	48 89 c7             	mov    %rax,%rdi
    c339:	e8 b5 93 ff ff       	callq  56f3 <transparent_crc>
    c33e:	48 8b 05 63 87 00 00 	mov    0x8763(%rip),%rax        # 14aa8 <g_752+0x8>
    c345:	48 c1 e0 09          	shl    $0x9,%rax
    c349:	48 c1 f8 29          	sar    $0x29,%rax
    c34d:	48 98                	cltq   
    c34f:	8b 55 fc             	mov    -0x4(%rbp),%edx
    c352:	48 8d 35 89 43 00 00 	lea    0x4389(%rip),%rsi        # 106e2 <g_1955+0x160a>
    c359:	48 89 c7             	mov    %rax,%rdi
    c35c:	e8 92 93 ff ff       	callq  56f3 <transparent_crc>
    c361:	48 8b 05 40 87 00 00 	mov    0x8740(%rip),%rax        # 14aa8 <g_752+0x8>
    c368:	48 c1 e8 37          	shr    $0x37,%rax
    c36c:	83 e0 03             	and    $0x3,%eax
    c36f:	0f b6 c0             	movzbl %al,%eax
    c372:	8b 55 fc             	mov    -0x4(%rbp),%edx
    c375:	48 8d 35 6f 43 00 00 	lea    0x436f(%rip),%rsi        # 106eb <g_1955+0x1613>
    c37c:	48 89 c7             	mov    %rax,%rdi
    c37f:	e8 6f 93 ff ff       	callq  56f3 <transparent_crc>
    c384:	48 8b 05 25 87 00 00 	mov    0x8725(%rip),%rax        # 14ab0 <g_753>
    c38b:	c1 e0 04             	shl    $0x4,%eax
    c38e:	c0 f8 04             	sar    $0x4,%al
    c391:	48 0f be c0          	movsbq %al,%rax
    c395:	8b 55 fc             	mov    -0x4(%rbp),%edx
    c398:	48 8d 35 55 43 00 00 	lea    0x4355(%rip),%rsi        # 106f4 <g_1955+0x161c>
    c39f:	48 89 c7             	mov    %rax,%rdi
    c3a2:	e8 4c 93 ff ff       	callq  56f3 <transparent_crc>
    c3a7:	48 8b 05 02 87 00 00 	mov    0x8702(%rip),%rax        # 14ab0 <g_753>
    c3ae:	48 c1 e8 04          	shr    $0x4,%rax
    c3b2:	66 25 ff 7f          	and    $0x7fff,%ax
    c3b6:	0f b7 c0             	movzwl %ax,%eax
    c3b9:	8b 55 fc             	mov    -0x4(%rbp),%edx
    c3bc:	48 8d 35 3a 43 00 00 	lea    0x433a(%rip),%rsi        # 106fd <g_1955+0x1625>
    c3c3:	48 89 c7             	mov    %rax,%rdi
    c3c6:	e8 28 93 ff ff       	callq  56f3 <transparent_crc>
    c3cb:	48 8b 05 de 86 00 00 	mov    0x86de(%rip),%rax        # 14ab0 <g_753>
    c3d2:	48 c1 e0 0e          	shl    $0xe,%rax
    c3d6:	48 c1 f8 2e          	sar    $0x2e,%rax
    c3da:	48 98                	cltq   
    c3dc:	8b 55 fc             	mov    -0x4(%rbp),%edx
    c3df:	48 8d 35 20 43 00 00 	lea    0x4320(%rip),%rsi        # 10706 <g_1955+0x162e>
    c3e6:	48 89 c7             	mov    %rax,%rdi
    c3e9:	e8 05 93 ff ff       	callq  56f3 <transparent_crc>
    c3ee:	48 8b 05 c3 86 00 00 	mov    0x86c3(%rip),%rax        # 14ab8 <g_753+0x8>
    c3f5:	01 c0                	add    %eax,%eax
    c3f7:	d1 f8                	sar    %eax
    c3f9:	48 98                	cltq   
    c3fb:	8b 55 fc             	mov    -0x4(%rbp),%edx
    c3fe:	48 8d 35 0a 43 00 00 	lea    0x430a(%rip),%rsi        # 1070f <g_1955+0x1637>
    c405:	48 89 c7             	mov    %rax,%rdi
    c408:	e8 e6 92 ff ff       	callq  56f3 <transparent_crc>
    c40d:	48 8b 05 a4 86 00 00 	mov    0x86a4(%rip),%rax        # 14ab8 <g_753+0x8>
    c414:	48 c1 e0 09          	shl    $0x9,%rax
    c418:	48 c1 f8 29          	sar    $0x29,%rax
    c41c:	48 98                	cltq   
    c41e:	8b 55 fc             	mov    -0x4(%rbp),%edx
    c421:	48 8d 35 f0 42 00 00 	lea    0x42f0(%rip),%rsi        # 10718 <g_1955+0x1640>
    c428:	48 89 c7             	mov    %rax,%rdi
    c42b:	e8 c3 92 ff ff       	callq  56f3 <transparent_crc>
    c430:	48 8b 05 81 86 00 00 	mov    0x8681(%rip),%rax        # 14ab8 <g_753+0x8>
    c437:	48 c1 e8 37          	shr    $0x37,%rax
    c43b:	83 e0 03             	and    $0x3,%eax
    c43e:	0f b6 c0             	movzbl %al,%eax
    c441:	8b 55 fc             	mov    -0x4(%rbp),%edx
    c444:	48 8d 35 d6 42 00 00 	lea    0x42d6(%rip),%rsi        # 10721 <g_1955+0x1649>
    c44b:	48 89 c7             	mov    %rax,%rdi
    c44e:	e8 a0 92 ff ff       	callq  56f3 <transparent_crc>
    c453:	8b 05 67 86 00 00    	mov    0x8667(%rip),%eax        # 14ac0 <g_758>
    c459:	89 c1                	mov    %eax,%ecx
    c45b:	8b 45 fc             	mov    -0x4(%rbp),%eax
    c45e:	89 c2                	mov    %eax,%edx
    c460:	48 8d 35 c3 42 00 00 	lea    0x42c3(%rip),%rsi        # 1072a <g_1955+0x1652>
    c467:	48 89 cf             	mov    %rcx,%rdi
    c46a:	e8 84 92 ff ff       	callq  56f3 <transparent_crc>
    c46f:	0f b6 05 4e 86 00 00 	movzbl 0x864e(%rip),%eax        # 14ac4 <g_758+0x4>
    c476:	0f b6 c0             	movzbl %al,%eax
    c479:	8b 55 fc             	mov    -0x4(%rbp),%edx
    c47c:	48 8d 35 b0 42 00 00 	lea    0x42b0(%rip),%rsi        # 10733 <g_1955+0x165b>
    c483:	48 89 c7             	mov    %rax,%rdi
    c486:	e8 68 92 ff ff       	callq  56f3 <transparent_crc>
    c48b:	8b 05 37 86 00 00    	mov    0x8637(%rip),%eax        # 14ac8 <g_758+0x8>
    c491:	89 c1                	mov    %eax,%ecx
    c493:	8b 45 fc             	mov    -0x4(%rbp),%eax
    c496:	89 c2                	mov    %eax,%edx
    c498:	48 8d 35 9d 42 00 00 	lea    0x429d(%rip),%rsi        # 1073c <g_1955+0x1664>
    c49f:	48 89 cf             	mov    %rcx,%rdi
    c4a2:	e8 4c 92 ff ff       	callq  56f3 <transparent_crc>
    c4a7:	8b 05 1f 86 00 00    	mov    0x861f(%rip),%eax        # 14acc <g_758+0xc>
    c4ad:	89 c1                	mov    %eax,%ecx
    c4af:	8b 45 fc             	mov    -0x4(%rbp),%eax
    c4b2:	89 c2                	mov    %eax,%edx
    c4b4:	48 8d 35 8a 42 00 00 	lea    0x428a(%rip),%rsi        # 10745 <g_1955+0x166d>
    c4bb:	48 89 cf             	mov    %rcx,%rdi
    c4be:	e8 30 92 ff ff       	callq  56f3 <transparent_crc>
    c4c3:	8b 05 67 be 00 00    	mov    0xbe67(%rip),%eax        # 18330 <g_768>
    c4c9:	48 98                	cltq   
    c4cb:	8b 55 fc             	mov    -0x4(%rbp),%edx
    c4ce:	48 8d 35 79 42 00 00 	lea    0x4279(%rip),%rsi        # 1074e <g_1955+0x1676>
    c4d5:	48 89 c7             	mov    %rax,%rdi
    c4d8:	e8 16 92 ff ff       	callq  56f3 <transparent_crc>
    c4dd:	48 8b 05 ec 85 00 00 	mov    0x85ec(%rip),%rax        # 14ad0 <g_782>
    c4e4:	c1 e0 04             	shl    $0x4,%eax
    c4e7:	c0 f8 04             	sar    $0x4,%al
    c4ea:	48 0f be c0          	movsbq %al,%rax
    c4ee:	8b 55 fc             	mov    -0x4(%rbp),%edx
    c4f1:	48 8d 35 5c 42 00 00 	lea    0x425c(%rip),%rsi        # 10754 <g_1955+0x167c>
    c4f8:	48 89 c7             	mov    %rax,%rdi
    c4fb:	e8 f3 91 ff ff       	callq  56f3 <transparent_crc>
    c500:	48 8b 05 c9 85 00 00 	mov    0x85c9(%rip),%rax        # 14ad0 <g_782>
    c507:	48 c1 e8 04          	shr    $0x4,%rax
    c50b:	66 25 ff 7f          	and    $0x7fff,%ax
    c50f:	0f b7 c0             	movzwl %ax,%eax
    c512:	8b 55 fc             	mov    -0x4(%rbp),%edx
    c515:	48 8d 35 41 42 00 00 	lea    0x4241(%rip),%rsi        # 1075d <g_1955+0x1685>
    c51c:	48 89 c7             	mov    %rax,%rdi
    c51f:	e8 cf 91 ff ff       	callq  56f3 <transparent_crc>
    c524:	48 8b 05 a5 85 00 00 	mov    0x85a5(%rip),%rax        # 14ad0 <g_782>
    c52b:	48 c1 e0 0e          	shl    $0xe,%rax
    c52f:	48 c1 f8 2e          	sar    $0x2e,%rax
    c533:	48 98                	cltq   
    c535:	8b 55 fc             	mov    -0x4(%rbp),%edx
    c538:	48 8d 35 27 42 00 00 	lea    0x4227(%rip),%rsi        # 10766 <g_1955+0x168e>
    c53f:	48 89 c7             	mov    %rax,%rdi
    c542:	e8 ac 91 ff ff       	callq  56f3 <transparent_crc>
    c547:	48 8b 05 8a 85 00 00 	mov    0x858a(%rip),%rax        # 14ad8 <g_782+0x8>
    c54e:	01 c0                	add    %eax,%eax
    c550:	d1 f8                	sar    %eax
    c552:	48 98                	cltq   
    c554:	8b 55 fc             	mov    -0x4(%rbp),%edx
    c557:	48 8d 35 11 42 00 00 	lea    0x4211(%rip),%rsi        # 1076f <g_1955+0x1697>
    c55e:	48 89 c7             	mov    %rax,%rdi
    c561:	e8 8d 91 ff ff       	callq  56f3 <transparent_crc>
    c566:	48 8b 05 6b 85 00 00 	mov    0x856b(%rip),%rax        # 14ad8 <g_782+0x8>
    c56d:	48 c1 e0 09          	shl    $0x9,%rax
    c571:	48 c1 f8 29          	sar    $0x29,%rax
    c575:	48 98                	cltq   
    c577:	8b 55 fc             	mov    -0x4(%rbp),%edx
    c57a:	48 8d 35 f7 41 00 00 	lea    0x41f7(%rip),%rsi        # 10778 <g_1955+0x16a0>
    c581:	48 89 c7             	mov    %rax,%rdi
    c584:	e8 6a 91 ff ff       	callq  56f3 <transparent_crc>
    c589:	48 8b 05 48 85 00 00 	mov    0x8548(%rip),%rax        # 14ad8 <g_782+0x8>
    c590:	48 c1 e8 37          	shr    $0x37,%rax
    c594:	83 e0 03             	and    $0x3,%eax
    c597:	0f b6 c0             	movzbl %al,%eax
    c59a:	8b 55 fc             	mov    -0x4(%rbp),%edx
    c59d:	48 8d 35 dd 41 00 00 	lea    0x41dd(%rip),%rsi        # 10781 <g_1955+0x16a9>
    c5a4:	48 89 c7             	mov    %rax,%rdi
    c5a7:	e8 47 91 ff ff       	callq  56f3 <transparent_crc>
    c5ac:	c7 45 f0 00 00 00 00 	movl   $0x0,-0x10(%rbp)
    c5b3:	e9 82 01 00 00       	jmpq   c73a <main+0x1a18>
    c5b8:	c7 45 f4 00 00 00 00 	movl   $0x0,-0xc(%rbp)
    c5bf:	e9 68 01 00 00       	jmpq   c72c <main+0x1a0a>
    c5c4:	c7 45 f8 00 00 00 00 	movl   $0x0,-0x8(%rbp)
    c5cb:	e9 4e 01 00 00       	jmpq   c71e <main+0x19fc>
    c5d0:	8b 45 f8             	mov    -0x8(%rbp),%eax
    c5d3:	48 63 c8             	movslq %eax,%rcx
    c5d6:	8b 45 f0             	mov    -0x10(%rbp),%eax
    c5d9:	48 63 d0             	movslq %eax,%rdx
    c5dc:	8b 45 f4             	mov    -0xc(%rbp),%eax
    c5df:	48 98                	cltq   
    c5e1:	48 01 c2             	add    %rax,%rdx
    c5e4:	48 89 d0             	mov    %rdx,%rax
    c5e7:	48 01 c0             	add    %rax,%rax
    c5ea:	48 01 d0             	add    %rdx,%rax
    c5ed:	48 01 c0             	add    %rax,%rax
    c5f0:	48 01 c8             	add    %rcx,%rax
    c5f3:	48 c1 e0 04          	shl    $0x4,%rax
    c5f7:	48 89 c2             	mov    %rax,%rdx
    c5fa:	48 8d 05 df 84 00 00 	lea    0x84df(%rip),%rax        # 14ae0 <g_818>
    c601:	8b 04 02             	mov    (%rdx,%rax,1),%eax
    c604:	89 c1                	mov    %eax,%ecx
    c606:	8b 45 fc             	mov    -0x4(%rbp),%eax
    c609:	89 c2                	mov    %eax,%edx
    c60b:	48 8d 35 78 41 00 00 	lea    0x4178(%rip),%rsi        # 1078a <g_1955+0x16b2>
    c612:	48 89 cf             	mov    %rcx,%rdi
    c615:	e8 d9 90 ff ff       	callq  56f3 <transparent_crc>
    c61a:	8b 45 f8             	mov    -0x8(%rbp),%eax
    c61d:	48 63 c8             	movslq %eax,%rcx
    c620:	8b 45 f0             	mov    -0x10(%rbp),%eax
    c623:	48 63 d0             	movslq %eax,%rdx
    c626:	8b 45 f4             	mov    -0xc(%rbp),%eax
    c629:	48 98                	cltq   
    c62b:	48 01 c2             	add    %rax,%rdx
    c62e:	48 89 d0             	mov    %rdx,%rax
    c631:	48 01 c0             	add    %rax,%rax
    c634:	48 01 d0             	add    %rdx,%rax
    c637:	48 01 c0             	add    %rax,%rax
    c63a:	48 01 c8             	add    %rcx,%rax
    c63d:	48 c1 e0 04          	shl    $0x4,%rax
    c641:	48 89 c2             	mov    %rax,%rdx
    c644:	48 8d 05 99 84 00 00 	lea    0x8499(%rip),%rax        # 14ae4 <g_818+0x4>
    c64b:	0f b6 04 02          	movzbl (%rdx,%rax,1),%eax
    c64f:	0f b6 c0             	movzbl %al,%eax
    c652:	8b 55 fc             	mov    -0x4(%rbp),%edx
    c655:	48 8d 35 40 41 00 00 	lea    0x4140(%rip),%rsi        # 1079c <g_1955+0x16c4>
    c65c:	48 89 c7             	mov    %rax,%rdi
    c65f:	e8 8f 90 ff ff       	callq  56f3 <transparent_crc>
    c664:	8b 45 f8             	mov    -0x8(%rbp),%eax
    c667:	48 63 c8             	movslq %eax,%rcx
    c66a:	8b 45 f0             	mov    -0x10(%rbp),%eax
    c66d:	48 63 d0             	movslq %eax,%rdx
    c670:	8b 45 f4             	mov    -0xc(%rbp),%eax
    c673:	48 98                	cltq   
    c675:	48 01 c2             	add    %rax,%rdx
    c678:	48 89 d0             	mov    %rdx,%rax
    c67b:	48 01 c0             	add    %rax,%rax
    c67e:	48 01 d0             	add    %rdx,%rax
    c681:	48 01 c0             	add    %rax,%rax
    c684:	48 01 c8             	add    %rcx,%rax
    c687:	48 c1 e0 04          	shl    $0x4,%rax
    c68b:	48 89 c2             	mov    %rax,%rdx
    c68e:	48 8d 05 53 84 00 00 	lea    0x8453(%rip),%rax        # 14ae8 <g_818+0x8>
    c695:	8b 04 02             	mov    (%rdx,%rax,1),%eax
    c698:	89 c1                	mov    %eax,%ecx
    c69a:	8b 45 fc             	mov    -0x4(%rbp),%eax
    c69d:	89 c2                	mov    %eax,%edx
    c69f:	48 8d 35 08 41 00 00 	lea    0x4108(%rip),%rsi        # 107ae <g_1955+0x16d6>
    c6a6:	48 89 cf             	mov    %rcx,%rdi
    c6a9:	e8 45 90 ff ff       	callq  56f3 <transparent_crc>
    c6ae:	8b 45 f8             	mov    -0x8(%rbp),%eax
    c6b1:	48 63 c8             	movslq %eax,%rcx
    c6b4:	8b 45 f0             	mov    -0x10(%rbp),%eax
    c6b7:	48 63 d0             	movslq %eax,%rdx
    c6ba:	8b 45 f4             	mov    -0xc(%rbp),%eax
    c6bd:	48 98                	cltq   
    c6bf:	48 01 c2             	add    %rax,%rdx
    c6c2:	48 89 d0             	mov    %rdx,%rax
    c6c5:	48 01 c0             	add    %rax,%rax
    c6c8:	48 01 d0             	add    %rdx,%rax
    c6cb:	48 01 c0             	add    %rax,%rax
    c6ce:	48 01 c8             	add    %rcx,%rax
    c6d1:	48 c1 e0 04          	shl    $0x4,%rax
    c6d5:	48 89 c2             	mov    %rax,%rdx
    c6d8:	48 8d 05 0d 84 00 00 	lea    0x840d(%rip),%rax        # 14aec <g_818+0xc>
    c6df:	8b 04 02             	mov    (%rdx,%rax,1),%eax
    c6e2:	89 c1                	mov    %eax,%ecx
    c6e4:	8b 45 fc             	mov    -0x4(%rbp),%eax
    c6e7:	89 c2                	mov    %eax,%edx
    c6e9:	48 8d 35 d0 40 00 00 	lea    0x40d0(%rip),%rsi        # 107c0 <g_1955+0x16e8>
    c6f0:	48 89 cf             	mov    %rcx,%rdi
    c6f3:	e8 fb 8f ff ff       	callq  56f3 <transparent_crc>
    c6f8:	83 7d fc 00          	cmpl   $0x0,-0x4(%rbp)
    c6fc:	74 1c                	je     c71a <main+0x19f8>
    c6fe:	8b 4d f8             	mov    -0x8(%rbp),%ecx
    c701:	8b 55 f4             	mov    -0xc(%rbp),%edx
    c704:	8b 45 f0             	mov    -0x10(%rbp),%eax
    c707:	89 c6                	mov    %eax,%esi
    c709:	48 8d 3d a9 3b 00 00 	lea    0x3ba9(%rip),%rdi        # 102b9 <g_1955+0x11e1>
    c710:	b8 00 00 00 00       	mov    $0x0,%eax
    c715:	e8 66 79 ff ff       	callq  4080 <printf@plt>
    c71a:	83 45 f8 01          	addl   $0x1,-0x8(%rbp)
    c71e:	83 7d f8 05          	cmpl   $0x5,-0x8(%rbp)
    c722:	0f 8e a8 fe ff ff    	jle    c5d0 <main+0x18ae>
    c728:	83 45 f4 01          	addl   $0x1,-0xc(%rbp)
    c72c:	83 7d f4 00          	cmpl   $0x0,-0xc(%rbp)
    c730:	0f 8e 8e fe ff ff    	jle    c5c4 <main+0x18a2>
    c736:	83 45 f0 01          	addl   $0x1,-0x10(%rbp)
    c73a:	83 7d f0 03          	cmpl   $0x3,-0x10(%rbp)
    c73e:	0f 8e 74 fe ff ff    	jle    c5b8 <main+0x1896>
    c744:	b8 10 9c 87 80       	mov    $0x80879c10,%eax
    c749:	89 c1                	mov    %eax,%ecx
    c74b:	8b 45 fc             	mov    -0x4(%rbp),%eax
    c74e:	89 c2                	mov    %eax,%edx
    c750:	48 8d 35 7b 40 00 00 	lea    0x407b(%rip),%rsi        # 107d2 <g_1955+0x16fa>
    c757:	48 89 cf             	mov    %rcx,%rdi
    c75a:	e8 94 8f ff ff       	callq  56f3 <transparent_crc>
    c75f:	0f b7 05 fa 84 00 00 	movzwl 0x84fa(%rip),%eax        # 14c60 <g_881>
    c766:	0f b7 c0             	movzwl %ax,%eax
    c769:	8b 55 fc             	mov    -0x4(%rbp),%edx
    c76c:	48 8d 35 65 40 00 00 	lea    0x4065(%rip),%rsi        # 107d8 <g_1955+0x1700>
    c773:	48 89 c7             	mov    %rax,%rdi
    c776:	e8 78 8f ff ff       	callq  56f3 <transparent_crc>
    c77b:	8b 05 e3 84 00 00    	mov    0x84e3(%rip),%eax        # 14c64 <g_912>
    c781:	48 98                	cltq   
    c783:	8b 55 fc             	mov    -0x4(%rbp),%edx
    c786:	48 8d 35 51 40 00 00 	lea    0x4051(%rip),%rsi        # 107de <g_1955+0x1706>
    c78d:	48 89 c7             	mov    %rax,%rdi
    c790:	e8 5e 8f ff ff       	callq  56f3 <transparent_crc>
    c795:	48 8b 05 d4 84 00 00 	mov    0x84d4(%rip),%rax        # 14c70 <g_934>
    c79c:	c1 e0 04             	shl    $0x4,%eax
    c79f:	c0 f8 04             	sar    $0x4,%al
    c7a2:	48 0f be c0          	movsbq %al,%rax
    c7a6:	8b 55 fc             	mov    -0x4(%rbp),%edx
    c7a9:	48 8d 35 34 40 00 00 	lea    0x4034(%rip),%rsi        # 107e4 <g_1955+0x170c>
    c7b0:	48 89 c7             	mov    %rax,%rdi
    c7b3:	e8 3b 8f ff ff       	callq  56f3 <transparent_crc>
    c7b8:	8b 05 b2 84 00 00    	mov    0x84b2(%rip),%eax        # 14c70 <g_934>
    c7be:	c1 e8 04             	shr    $0x4,%eax
    c7c1:	66 25 ff 7f          	and    $0x7fff,%ax
    c7c5:	0f b7 c0             	movzwl %ax,%eax
    c7c8:	8b 55 fc             	mov    -0x4(%rbp),%edx
    c7cb:	48 8d 35 1b 40 00 00 	lea    0x401b(%rip),%rsi        # 107ed <g_1955+0x1715>
    c7d2:	48 89 c7             	mov    %rax,%rdi
    c7d5:	e8 19 8f ff ff       	callq  56f3 <transparent_crc>
    c7da:	8b 05 94 84 00 00    	mov    0x8494(%rip),%eax        # 14c74 <g_934+0x4>
    c7e0:	c1 e0 0e             	shl    $0xe,%eax
    c7e3:	c1 f8 0e             	sar    $0xe,%eax
    c7e6:	48 98                	cltq   
    c7e8:	8b 55 fc             	mov    -0x4(%rbp),%edx
    c7eb:	48 8d 35 04 40 00 00 	lea    0x4004(%rip),%rsi        # 107f6 <g_1955+0x171e>
    c7f2:	48 89 c7             	mov    %rax,%rdi
    c7f5:	e8 f9 8e ff ff       	callq  56f3 <transparent_crc>
    c7fa:	8b 05 78 84 00 00    	mov    0x8478(%rip),%eax        # 14c78 <g_934+0x8>
    c800:	01 c0                	add    %eax,%eax
    c802:	d1 f8                	sar    %eax
    c804:	48 98                	cltq   
    c806:	8b 55 fc             	mov    -0x4(%rbp),%edx
    c809:	48 8d 35 ef 3f 00 00 	lea    0x3fef(%rip),%rsi        # 107ff <g_1955+0x1727>
    c810:	48 89 c7             	mov    %rax,%rdi
    c813:	e8 db 8e ff ff       	callq  56f3 <transparent_crc>
    c818:	8b 05 5e 84 00 00    	mov    0x845e(%rip),%eax        # 14c7c <g_934+0xc>
    c81e:	c1 e0 09             	shl    $0x9,%eax
    c821:	c1 f8 09             	sar    $0x9,%eax
    c824:	48 98                	cltq   
    c826:	8b 55 fc             	mov    -0x4(%rbp),%edx
    c829:	48 8d 35 d8 3f 00 00 	lea    0x3fd8(%rip),%rsi        # 10808 <g_1955+0x1730>
    c830:	48 89 c7             	mov    %rax,%rdi
    c833:	e8 bb 8e ff ff       	callq  56f3 <transparent_crc>
    c838:	48 8b 05 39 84 00 00 	mov    0x8439(%rip),%rax        # 14c78 <g_934+0x8>
    c83f:	48 c1 e8 37          	shr    $0x37,%rax
    c843:	83 e0 03             	and    $0x3,%eax
    c846:	0f b6 c0             	movzbl %al,%eax
    c849:	8b 55 fc             	mov    -0x4(%rbp),%edx
    c84c:	48 8d 35 be 3f 00 00 	lea    0x3fbe(%rip),%rsi        # 10811 <g_1955+0x1739>
    c853:	48 89 c7             	mov    %rax,%rdi
    c856:	e8 98 8e ff ff       	callq  56f3 <transparent_crc>
    c85b:	0f b6 05 de ba 00 00 	movzbl 0xbade(%rip),%eax        # 18340 <g_998>
    c862:	0f b6 c0             	movzbl %al,%eax
    c865:	8b 55 fc             	mov    -0x4(%rbp),%edx
    c868:	48 8d 35 ab 3f 00 00 	lea    0x3fab(%rip),%rsi        # 1081a <g_1955+0x1742>
    c86f:	48 89 c7             	mov    %rax,%rdi
    c872:	e8 7c 8e ff ff       	callq  56f3 <transparent_crc>
    c877:	c7 45 f0 00 00 00 00 	movl   $0x0,-0x10(%rbp)
    c87e:	e9 d0 00 00 00       	jmpq   c953 <main+0x1c31>
    c883:	8b 45 f0             	mov    -0x10(%rbp),%eax
    c886:	48 98                	cltq   
    c888:	48 c1 e0 04          	shl    $0x4,%rax
    c88c:	48 89 c2             	mov    %rax,%rdx
    c88f:	48 8d 05 ca 27 00 00 	lea    0x27ca(%rip),%rax        # f060 <g_1034>
    c896:	8b 04 02             	mov    (%rdx,%rax,1),%eax
    c899:	89 c1                	mov    %eax,%ecx
    c89b:	8b 45 fc             	mov    -0x4(%rbp),%eax
    c89e:	89 c2                	mov    %eax,%edx
    c8a0:	48 8d 35 79 3f 00 00 	lea    0x3f79(%rip),%rsi        # 10820 <g_1955+0x1748>
    c8a7:	48 89 cf             	mov    %rcx,%rdi
    c8aa:	e8 44 8e ff ff       	callq  56f3 <transparent_crc>
    c8af:	8b 45 f0             	mov    -0x10(%rbp),%eax
    c8b2:	48 98                	cltq   
    c8b4:	48 c1 e0 04          	shl    $0x4,%rax
    c8b8:	48 89 c2             	mov    %rax,%rdx
    c8bb:	48 8d 05 a2 27 00 00 	lea    0x27a2(%rip),%rax        # f064 <g_1034+0x4>
    c8c2:	0f b6 04 02          	movzbl (%rdx,%rax,1),%eax
    c8c6:	0f b6 c0             	movzbl %al,%eax
    c8c9:	8b 55 fc             	mov    -0x4(%rbp),%edx
    c8cc:	48 8d 35 5a 3f 00 00 	lea    0x3f5a(%rip),%rsi        # 1082d <g_1955+0x1755>
    c8d3:	48 89 c7             	mov    %rax,%rdi
    c8d6:	e8 18 8e ff ff       	callq  56f3 <transparent_crc>
    c8db:	8b 45 f0             	mov    -0x10(%rbp),%eax
    c8de:	48 98                	cltq   
    c8e0:	48 c1 e0 04          	shl    $0x4,%rax
    c8e4:	48 89 c2             	mov    %rax,%rdx
    c8e7:	48 8d 05 7a 27 00 00 	lea    0x277a(%rip),%rax        # f068 <g_1034+0x8>
    c8ee:	8b 04 02             	mov    (%rdx,%rax,1),%eax
    c8f1:	89 c1                	mov    %eax,%ecx
    c8f3:	8b 45 fc             	mov    -0x4(%rbp),%eax
    c8f6:	89 c2                	mov    %eax,%edx
    c8f8:	48 8d 35 3b 3f 00 00 	lea    0x3f3b(%rip),%rsi        # 1083a <g_1955+0x1762>
    c8ff:	48 89 cf             	mov    %rcx,%rdi
    c902:	e8 ec 8d ff ff       	callq  56f3 <transparent_crc>
    c907:	8b 45 f0             	mov    -0x10(%rbp),%eax
    c90a:	48 98                	cltq   
    c90c:	48 c1 e0 04          	shl    $0x4,%rax
    c910:	48 89 c2             	mov    %rax,%rdx
    c913:	48 8d 05 52 27 00 00 	lea    0x2752(%rip),%rax        # f06c <g_1034+0xc>
    c91a:	8b 04 02             	mov    (%rdx,%rax,1),%eax
    c91d:	89 c1                	mov    %eax,%ecx
    c91f:	8b 45 fc             	mov    -0x4(%rbp),%eax
    c922:	89 c2                	mov    %eax,%edx
    c924:	48 8d 35 1c 3f 00 00 	lea    0x3f1c(%rip),%rsi        # 10847 <g_1955+0x176f>
    c92b:	48 89 cf             	mov    %rcx,%rdi
    c92e:	e8 c0 8d ff ff       	callq  56f3 <transparent_crc>
    c933:	83 7d fc 00          	cmpl   $0x0,-0x4(%rbp)
    c937:	74 16                	je     c94f <main+0x1c2d>
    c939:	8b 45 f0             	mov    -0x10(%rbp),%eax
    c93c:	89 c6                	mov    %eax,%esi
    c93e:	48 8d 3d a5 39 00 00 	lea    0x39a5(%rip),%rdi        # 102ea <g_1955+0x1212>
    c945:	b8 00 00 00 00       	mov    $0x0,%eax
    c94a:	e8 31 77 ff ff       	callq  4080 <printf@plt>
    c94f:	83 45 f0 01          	addl   $0x1,-0x10(%rbp)
    c953:	83 7d f0 05          	cmpl   $0x5,-0x10(%rbp)
    c957:	0f 8e 26 ff ff ff    	jle    c883 <main+0x1b61>
    c95d:	48 8b 05 1c 83 00 00 	mov    0x831c(%rip),%rax        # 14c80 <g_1042>
    c964:	8b 55 fc             	mov    -0x4(%rbp),%edx
    c967:	48 8d 35 e6 3e 00 00 	lea    0x3ee6(%rip),%rsi        # 10854 <g_1955+0x177c>
    c96e:	48 89 c7             	mov    %rax,%rdi
    c971:	e8 7d 8d ff ff       	callq  56f3 <transparent_crc>
    c976:	c7 45 f0 00 00 00 00 	movl   $0x0,-0x10(%rbp)
    c97d:	e9 92 04 00 00       	jmpq   ce14 <main+0x20f2>
    c982:	c7 45 f4 00 00 00 00 	movl   $0x0,-0xc(%rbp)
    c989:	e9 78 04 00 00       	jmpq   ce06 <main+0x20e4>
    c98e:	c7 45 f8 00 00 00 00 	movl   $0x0,-0x8(%rbp)
    c995:	e9 5e 04 00 00       	jmpq   cdf8 <main+0x20d6>
    c99a:	8b 45 f8             	mov    -0x8(%rbp),%eax
    c99d:	48 98                	cltq   
    c99f:	8b 55 f4             	mov    -0xc(%rbp),%edx
    c9a2:	48 63 f2             	movslq %edx,%rsi
    c9a5:	8b 55 f0             	mov    -0x10(%rbp),%edx
    c9a8:	48 63 ca             	movslq %edx,%rcx
    c9ab:	48 89 c2             	mov    %rax,%rdx
    c9ae:	48 c1 e2 03          	shl    $0x3,%rdx
    c9b2:	48 01 c2             	add    %rax,%rdx
    c9b5:	48 01 d2             	add    %rdx,%rdx
    c9b8:	48 01 c2             	add    %rax,%rdx
    c9bb:	48 8d 04 12          	lea    (%rdx,%rdx,1),%rax
    c9bf:	48 89 c2             	mov    %rax,%rdx
    c9c2:	48 89 f0             	mov    %rsi,%rax
    c9c5:	48 c1 e0 03          	shl    $0x3,%rax
    c9c9:	48 01 f0             	add    %rsi,%rax
    c9cc:	48 01 c0             	add    %rax,%rax
    c9cf:	48 01 f0             	add    %rsi,%rax
    c9d2:	48 c1 e0 02          	shl    $0x2,%rax
    c9d6:	48 01 c2             	add    %rax,%rdx
    c9d9:	48 89 c8             	mov    %rcx,%rax
    c9dc:	48 c1 e0 03          	shl    $0x3,%rax
    c9e0:	48 01 c8             	add    %rcx,%rax
    c9e3:	48 01 c0             	add    %rax,%rax
    c9e6:	48 01 c8             	add    %rcx,%rax
    c9e9:	48 c1 e0 03          	shl    $0x3,%rax
    c9ed:	48 01 c2             	add    %rax,%rdx
    c9f0:	48 8d 05 a9 82 00 00 	lea    0x82a9(%rip),%rax        # 14ca0 <g_1044>
    c9f7:	48 01 d0             	add    %rdx,%rax
    c9fa:	8b 00                	mov    (%rax),%eax
    c9fc:	48 98                	cltq   
    c9fe:	8b 55 fc             	mov    -0x4(%rbp),%edx
    ca01:	48 8d 35 53 3e 00 00 	lea    0x3e53(%rip),%rsi        # 1085b <g_1955+0x1783>
    ca08:	48 89 c7             	mov    %rax,%rdi
    ca0b:	e8 e3 8c ff ff       	callq  56f3 <transparent_crc>
    ca10:	8b 45 f8             	mov    -0x8(%rbp),%eax
    ca13:	48 98                	cltq   
    ca15:	8b 55 f4             	mov    -0xc(%rbp),%edx
    ca18:	48 63 f2             	movslq %edx,%rsi
    ca1b:	8b 55 f0             	mov    -0x10(%rbp),%edx
    ca1e:	48 63 ca             	movslq %edx,%rcx
    ca21:	48 89 c2             	mov    %rax,%rdx
    ca24:	48 c1 e2 03          	shl    $0x3,%rdx
    ca28:	48 01 c2             	add    %rax,%rdx
    ca2b:	48 01 d2             	add    %rdx,%rdx
    ca2e:	48 01 c2             	add    %rax,%rdx
    ca31:	48 8d 04 12          	lea    (%rdx,%rdx,1),%rax
    ca35:	48 89 c2             	mov    %rax,%rdx
    ca38:	48 89 f0             	mov    %rsi,%rax
    ca3b:	48 c1 e0 03          	shl    $0x3,%rax
    ca3f:	48 01 f0             	add    %rsi,%rax
    ca42:	48 01 c0             	add    %rax,%rax
    ca45:	48 01 f0             	add    %rsi,%rax
    ca48:	48 c1 e0 02          	shl    $0x2,%rax
    ca4c:	48 01 c2             	add    %rax,%rdx
    ca4f:	48 89 c8             	mov    %rcx,%rax
    ca52:	48 c1 e0 03          	shl    $0x3,%rax
    ca56:	48 01 c8             	add    %rcx,%rax
    ca59:	48 01 c0             	add    %rax,%rax
    ca5c:	48 01 c8             	add    %rcx,%rax
    ca5f:	48 c1 e0 03          	shl    $0x3,%rax
    ca63:	48 01 c2             	add    %rax,%rdx
    ca66:	48 8d 05 37 82 00 00 	lea    0x8237(%rip),%rax        # 14ca4 <g_1044+0x4>
    ca6d:	48 01 d0             	add    %rdx,%rax
    ca70:	0f b7 00             	movzwl (%rax),%eax
    ca73:	0f b7 c0             	movzwl %ax,%eax
    ca76:	8b 55 fc             	mov    -0x4(%rbp),%edx
    ca79:	48 8d 35 ee 3d 00 00 	lea    0x3dee(%rip),%rsi        # 1086e <g_1955+0x1796>
    ca80:	48 89 c7             	mov    %rax,%rdi
    ca83:	e8 6b 8c ff ff       	callq  56f3 <transparent_crc>
    ca88:	8b 45 f8             	mov    -0x8(%rbp),%eax
    ca8b:	48 98                	cltq   
    ca8d:	8b 55 f4             	mov    -0xc(%rbp),%edx
    ca90:	48 63 f2             	movslq %edx,%rsi
    ca93:	8b 55 f0             	mov    -0x10(%rbp),%edx
    ca96:	48 63 ca             	movslq %edx,%rcx
    ca99:	48 89 c2             	mov    %rax,%rdx
    ca9c:	48 c1 e2 03          	shl    $0x3,%rdx
    caa0:	48 01 c2             	add    %rax,%rdx
    caa3:	48 01 d2             	add    %rdx,%rdx
    caa6:	48 01 c2             	add    %rax,%rdx
    caa9:	48 8d 04 12          	lea    (%rdx,%rdx,1),%rax
    caad:	48 89 c2             	mov    %rax,%rdx
    cab0:	48 89 f0             	mov    %rsi,%rax
    cab3:	48 c1 e0 03          	shl    $0x3,%rax
    cab7:	48 01 f0             	add    %rsi,%rax
    caba:	48 01 c0             	add    %rax,%rax
    cabd:	48 01 f0             	add    %rsi,%rax
    cac0:	48 c1 e0 02          	shl    $0x2,%rax
    cac4:	48 01 c2             	add    %rax,%rdx
    cac7:	48 89 c8             	mov    %rcx,%rax
    caca:	48 c1 e0 03          	shl    $0x3,%rax
    cace:	48 01 c8             	add    %rcx,%rax
    cad1:	48 01 c0             	add    %rax,%rax
    cad4:	48 01 c8             	add    %rcx,%rax
    cad7:	48 c1 e0 03          	shl    $0x3,%rax
    cadb:	48 01 c2             	add    %rax,%rdx
    cade:	48 8d 05 c1 81 00 00 	lea    0x81c1(%rip),%rax        # 14ca6 <g_1044+0x6>
    cae5:	48 01 d0             	add    %rdx,%rax
    cae8:	0f b7 00             	movzwl (%rax),%eax
    caeb:	0f b7 c0             	movzwl %ax,%eax
    caee:	8b 55 fc             	mov    -0x4(%rbp),%edx
    caf1:	48 8d 35 89 3d 00 00 	lea    0x3d89(%rip),%rsi        # 10881 <g_1955+0x17a9>
    caf8:	48 89 c7             	mov    %rax,%rdi
    cafb:	e8 f3 8b ff ff       	callq  56f3 <transparent_crc>
    cb00:	8b 45 f8             	mov    -0x8(%rbp),%eax
    cb03:	48 98                	cltq   
    cb05:	8b 55 f4             	mov    -0xc(%rbp),%edx
    cb08:	48 63 f2             	movslq %edx,%rsi
    cb0b:	8b 55 f0             	mov    -0x10(%rbp),%edx
    cb0e:	48 63 ca             	movslq %edx,%rcx
    cb11:	48 89 c2             	mov    %rax,%rdx
    cb14:	48 c1 e2 03          	shl    $0x3,%rdx
    cb18:	48 01 c2             	add    %rax,%rdx
    cb1b:	48 01 d2             	add    %rdx,%rdx
    cb1e:	48 01 c2             	add    %rax,%rdx
    cb21:	48 8d 04 12          	lea    (%rdx,%rdx,1),%rax
    cb25:	48 89 c2             	mov    %rax,%rdx
    cb28:	48 89 f0             	mov    %rsi,%rax
    cb2b:	48 c1 e0 03          	shl    $0x3,%rax
    cb2f:	48 01 f0             	add    %rsi,%rax
    cb32:	48 01 c0             	add    %rax,%rax
    cb35:	48 01 f0             	add    %rsi,%rax
    cb38:	48 c1 e0 02          	shl    $0x2,%rax
    cb3c:	48 01 c2             	add    %rax,%rdx
    cb3f:	48 89 c8             	mov    %rcx,%rax
    cb42:	48 c1 e0 03          	shl    $0x3,%rax
    cb46:	48 01 c8             	add    %rcx,%rax
    cb49:	48 01 c0             	add    %rax,%rax
    cb4c:	48 01 c8             	add    %rcx,%rax
    cb4f:	48 c1 e0 03          	shl    $0x3,%rax
    cb53:	48 01 c2             	add    %rax,%rdx
    cb56:	48 8d 05 4b 81 00 00 	lea    0x814b(%rip),%rax        # 14ca8 <g_1044+0x8>
    cb5d:	48 01 d0             	add    %rdx,%rax
    cb60:	0f b7 00             	movzwl (%rax),%eax
    cb63:	0f b7 c0             	movzwl %ax,%eax
    cb66:	8b 55 fc             	mov    -0x4(%rbp),%edx
    cb69:	48 8d 35 24 3d 00 00 	lea    0x3d24(%rip),%rsi        # 10894 <g_1955+0x17bc>
    cb70:	48 89 c7             	mov    %rax,%rdi
    cb73:	e8 7b 8b ff ff       	callq  56f3 <transparent_crc>
    cb78:	8b 45 f8             	mov    -0x8(%rbp),%eax
    cb7b:	48 98                	cltq   
    cb7d:	8b 55 f4             	mov    -0xc(%rbp),%edx
    cb80:	48 63 f2             	movslq %edx,%rsi
    cb83:	8b 55 f0             	mov    -0x10(%rbp),%edx
    cb86:	48 63 ca             	movslq %edx,%rcx
    cb89:	48 89 c2             	mov    %rax,%rdx
    cb8c:	48 c1 e2 03          	shl    $0x3,%rdx
    cb90:	48 01 c2             	add    %rax,%rdx
    cb93:	48 01 d2             	add    %rdx,%rdx
    cb96:	48 01 c2             	add    %rax,%rdx
    cb99:	48 8d 04 12          	lea    (%rdx,%rdx,1),%rax
    cb9d:	48 89 c2             	mov    %rax,%rdx
    cba0:	48 89 f0             	mov    %rsi,%rax
    cba3:	48 c1 e0 03          	shl    $0x3,%rax
    cba7:	48 01 f0             	add    %rsi,%rax
    cbaa:	48 01 c0             	add    %rax,%rax
    cbad:	48 01 f0             	add    %rsi,%rax
    cbb0:	48 c1 e0 02          	shl    $0x2,%rax
    cbb4:	48 01 c2             	add    %rax,%rdx
    cbb7:	48 89 c8             	mov    %rcx,%rax
    cbba:	48 c1 e0 03          	shl    $0x3,%rax
    cbbe:	48 01 c8             	add    %rcx,%rax
    cbc1:	48 01 c0             	add    %rax,%rax
    cbc4:	48 01 c8             	add    %rcx,%rax
    cbc7:	48 c1 e0 03          	shl    $0x3,%rax
    cbcb:	48 01 c2             	add    %rax,%rdx
    cbce:	48 8d 05 cb 80 00 00 	lea    0x80cb(%rip),%rax        # 14ca0 <g_1044>
    cbd5:	48 01 d0             	add    %rdx,%rax
    cbd8:	8b 40 0a             	mov    0xa(%rax),%eax
    cbdb:	89 c1                	mov    %eax,%ecx
    cbdd:	8b 45 fc             	mov    -0x4(%rbp),%eax
    cbe0:	89 c2                	mov    %eax,%edx
    cbe2:	48 8d 35 be 3c 00 00 	lea    0x3cbe(%rip),%rsi        # 108a7 <g_1955+0x17cf>
    cbe9:	48 89 cf             	mov    %rcx,%rdi
    cbec:	e8 02 8b ff ff       	callq  56f3 <transparent_crc>
    cbf1:	8b 45 f8             	mov    -0x8(%rbp),%eax
    cbf4:	48 98                	cltq   
    cbf6:	8b 55 f4             	mov    -0xc(%rbp),%edx
    cbf9:	48 63 f2             	movslq %edx,%rsi
    cbfc:	8b 55 f0             	mov    -0x10(%rbp),%edx
    cbff:	48 63 ca             	movslq %edx,%rcx
    cc02:	48 89 c2             	mov    %rax,%rdx
    cc05:	48 c1 e2 03          	shl    $0x3,%rdx
    cc09:	48 01 c2             	add    %rax,%rdx
    cc0c:	48 01 d2             	add    %rdx,%rdx
    cc0f:	48 01 c2             	add    %rax,%rdx
    cc12:	48 8d 04 12          	lea    (%rdx,%rdx,1),%rax
    cc16:	48 89 c2             	mov    %rax,%rdx
    cc19:	48 89 f0             	mov    %rsi,%rax
    cc1c:	48 c1 e0 03          	shl    $0x3,%rax
    cc20:	48 01 f0             	add    %rsi,%rax
    cc23:	48 01 c0             	add    %rax,%rax
    cc26:	48 01 f0             	add    %rsi,%rax
    cc29:	48 c1 e0 02          	shl    $0x2,%rax
    cc2d:	48 01 c2             	add    %rax,%rdx
    cc30:	48 89 c8             	mov    %rcx,%rax
    cc33:	48 c1 e0 03          	shl    $0x3,%rax
    cc37:	48 01 c8             	add    %rcx,%rax
    cc3a:	48 01 c0             	add    %rax,%rax
    cc3d:	48 01 c8             	add    %rcx,%rax
    cc40:	48 c1 e0 03          	shl    $0x3,%rax
    cc44:	48 01 c2             	add    %rax,%rdx
    cc47:	48 8d 05 52 80 00 00 	lea    0x8052(%rip),%rax        # 14ca0 <g_1044>
    cc4e:	48 01 d0             	add    %rdx,%rax
    cc51:	8b 40 0e             	mov    0xe(%rax),%eax
    cc54:	89 c1                	mov    %eax,%ecx
    cc56:	8b 45 fc             	mov    -0x4(%rbp),%eax
    cc59:	89 c2                	mov    %eax,%edx
    cc5b:	48 8d 35 58 3c 00 00 	lea    0x3c58(%rip),%rsi        # 108ba <g_1955+0x17e2>
    cc62:	48 89 cf             	mov    %rcx,%rdi
    cc65:	e8 89 8a ff ff       	callq  56f3 <transparent_crc>
    cc6a:	8b 45 f8             	mov    -0x8(%rbp),%eax
    cc6d:	48 98                	cltq   
    cc6f:	8b 55 f4             	mov    -0xc(%rbp),%edx
    cc72:	48 63 ca             	movslq %edx,%rcx
    cc75:	8b 55 f0             	mov    -0x10(%rbp),%edx
    cc78:	48 63 f2             	movslq %edx,%rsi
    cc7b:	48 89 c2             	mov    %rax,%rdx
    cc7e:	48 c1 e2 03          	shl    $0x3,%rdx
    cc82:	48 01 c2             	add    %rax,%rdx
    cc85:	48 01 d2             	add    %rdx,%rdx
    cc88:	48 01 c2             	add    %rax,%rdx
    cc8b:	48 8d 04 12          	lea    (%rdx,%rdx,1),%rax
    cc8f:	48 89 c2             	mov    %rax,%rdx
    cc92:	48 89 f0             	mov    %rsi,%rax
    cc95:	48 c1 e0 03          	shl    $0x3,%rax
    cc99:	48 01 f0             	add    %rsi,%rax
    cc9c:	48 01 c0             	add    %rax,%rax
    cc9f:	48 01 f0             	add    %rsi,%rax
    cca2:	48 c1 e0 03          	shl    $0x3,%rax
    cca6:	48 01 c2             	add    %rax,%rdx
    cca9:	48 89 c8             	mov    %rcx,%rax
    ccac:	48 c1 e0 03          	shl    $0x3,%rax
    ccb0:	48 01 c8             	add    %rcx,%rax
    ccb3:	48 01 c0             	add    %rax,%rax
    ccb6:	48 01 c8             	add    %rcx,%rax
    ccb9:	48 c1 e0 02          	shl    $0x2,%rax
    ccbd:	48 01 c2             	add    %rax,%rdx
    ccc0:	48 8d 05 e9 7f 00 00 	lea    0x7fe9(%rip),%rax        # 14cb0 <g_1044+0x10>
    ccc7:	48 01 d0             	add    %rdx,%rax
    ccca:	48 8b 40 02          	mov    0x2(%rax),%rax
    ccce:	48 89 c1             	mov    %rax,%rcx
    ccd1:	8b 45 fc             	mov    -0x4(%rbp),%eax
    ccd4:	89 c2                	mov    %eax,%edx
    ccd6:	48 8d 35 f0 3b 00 00 	lea    0x3bf0(%rip),%rsi        # 108cd <g_1955+0x17f5>
    ccdd:	48 89 cf             	mov    %rcx,%rdi
    cce0:	e8 0e 8a ff ff       	callq  56f3 <transparent_crc>
    cce5:	8b 45 f8             	mov    -0x8(%rbp),%eax
    cce8:	48 98                	cltq   
    ccea:	8b 55 f4             	mov    -0xc(%rbp),%edx
    cced:	48 63 ca             	movslq %edx,%rcx
    ccf0:	8b 55 f0             	mov    -0x10(%rbp),%edx
    ccf3:	48 63 f2             	movslq %edx,%rsi
    ccf6:	48 89 c2             	mov    %rax,%rdx
    ccf9:	48 c1 e2 03          	shl    $0x3,%rdx
    ccfd:	48 01 c2             	add    %rax,%rdx
    cd00:	48 01 d2             	add    %rdx,%rdx
    cd03:	48 01 c2             	add    %rax,%rdx
    cd06:	48 8d 04 12          	lea    (%rdx,%rdx,1),%rax
    cd0a:	48 89 c2             	mov    %rax,%rdx
    cd0d:	48 89 f0             	mov    %rsi,%rax
    cd10:	48 c1 e0 03          	shl    $0x3,%rax
    cd14:	48 01 f0             	add    %rsi,%rax
    cd17:	48 01 c0             	add    %rax,%rax
    cd1a:	48 01 f0             	add    %rsi,%rax
    cd1d:	48 c1 e0 03          	shl    $0x3,%rax
    cd21:	48 01 c2             	add    %rax,%rdx
    cd24:	48 89 c8             	mov    %rcx,%rax
    cd27:	48 c1 e0 03          	shl    $0x3,%rax
    cd2b:	48 01 c8             	add    %rcx,%rax
    cd2e:	48 01 c0             	add    %rax,%rax
    cd31:	48 01 c8             	add    %rcx,%rax
    cd34:	48 c1 e0 02          	shl    $0x2,%rax
    cd38:	48 01 c2             	add    %rax,%rdx
    cd3b:	48 8d 05 6e 7f 00 00 	lea    0x7f6e(%rip),%rax        # 14cb0 <g_1044+0x10>
    cd42:	48 01 d0             	add    %rdx,%rax
    cd45:	8b 40 0a             	mov    0xa(%rax),%eax
    cd48:	48 98                	cltq   
    cd4a:	8b 55 fc             	mov    -0x4(%rbp),%edx
    cd4d:	48 8d 35 8c 3b 00 00 	lea    0x3b8c(%rip),%rsi        # 108e0 <g_1955+0x1808>
    cd54:	48 89 c7             	mov    %rax,%rdi
    cd57:	e8 97 89 ff ff       	callq  56f3 <transparent_crc>
    cd5c:	8b 45 f8             	mov    -0x8(%rbp),%eax
    cd5f:	48 98                	cltq   
    cd61:	8b 55 f4             	mov    -0xc(%rbp),%edx
    cd64:	48 63 ca             	movslq %edx,%rcx
    cd67:	8b 55 f0             	mov    -0x10(%rbp),%edx
    cd6a:	48 63 f2             	movslq %edx,%rsi
    cd6d:	48 89 c2             	mov    %rax,%rdx
    cd70:	48 c1 e2 03          	shl    $0x3,%rdx
    cd74:	48 01 c2             	add    %rax,%rdx
    cd77:	48 01 d2             	add    %rdx,%rdx
    cd7a:	48 01 c2             	add    %rax,%rdx
    cd7d:	48 8d 04 12          	lea    (%rdx,%rdx,1),%rax
    cd81:	48 89 c2             	mov    %rax,%rdx
    cd84:	48 89 f0             	mov    %rsi,%rax
    cd87:	48 c1 e0 03          	shl    $0x3,%rax
    cd8b:	48 01 f0             	add    %rsi,%rax
    cd8e:	48 01 c0             	add    %rax,%rax
    cd91:	48 01 f0             	add    %rsi,%rax
    cd94:	48 c1 e0 03          	shl    $0x3,%rax
    cd98:	48 01 c2             	add    %rax,%rdx
    cd9b:	48 89 c8             	mov    %rcx,%rax
    cd9e:	48 c1 e0 03          	shl    $0x3,%rax
    cda2:	48 01 c8             	add    %rcx,%rax
    cda5:	48 01 c0             	add    %rax,%rax
    cda8:	48 01 c8             	add    %rcx,%rax
    cdab:	48 c1 e0 02          	shl    $0x2,%rax
    cdaf:	48 01 c2             	add    %rax,%rdx
    cdb2:	48 8d 05 f7 7e 00 00 	lea    0x7ef7(%rip),%rax        # 14cb0 <g_1044+0x10>
    cdb9:	48 01 d0             	add    %rdx,%rax
    cdbc:	48 8b 40 0e          	mov    0xe(%rax),%rax
    cdc0:	8b 55 fc             	mov    -0x4(%rbp),%edx
    cdc3:	48 8d 35 29 3b 00 00 	lea    0x3b29(%rip),%rsi        # 108f3 <g_1955+0x181b>
    cdca:	48 89 c7             	mov    %rax,%rdi
    cdcd:	e8 21 89 ff ff       	callq  56f3 <transparent_crc>
    cdd2:	83 7d fc 00          	cmpl   $0x0,-0x4(%rbp)
    cdd6:	74 1c                	je     cdf4 <main+0x20d2>
    cdd8:	8b 4d f8             	mov    -0x8(%rbp),%ecx
    cddb:	8b 55 f4             	mov    -0xc(%rbp),%edx
    cdde:	8b 45 f0             	mov    -0x10(%rbp),%eax
    cde1:	89 c6                	mov    %eax,%esi
    cde3:	48 8d 3d cf 34 00 00 	lea    0x34cf(%rip),%rdi        # 102b9 <g_1955+0x11e1>
    cdea:	b8 00 00 00 00       	mov    $0x0,%eax
    cdef:	e8 8c 72 ff ff       	callq  4080 <printf@plt>
    cdf4:	83 45 f8 01          	addl   $0x1,-0x8(%rbp)
    cdf8:	83 7d f8 01          	cmpl   $0x1,-0x8(%rbp)
    cdfc:	0f 8e 98 fb ff ff    	jle    c99a <main+0x1c78>
    ce02:	83 45 f4 01          	addl   $0x1,-0xc(%rbp)
    ce06:	83 7d f4 01          	cmpl   $0x1,-0xc(%rbp)
    ce0a:	0f 8e 7e fb ff ff    	jle    c98e <main+0x1c6c>
    ce10:	83 45 f0 01          	addl   $0x1,-0x10(%rbp)
    ce14:	83 7d f0 07          	cmpl   $0x7,-0x10(%rbp)
    ce18:	0f 8e 64 fb ff ff    	jle    c982 <main+0x1c60>
    ce1e:	48 8b 05 3b 83 00 00 	mov    0x833b(%rip),%rax        # 15160 <g_1055>
    ce25:	c1 e0 04             	shl    $0x4,%eax
    ce28:	c0 f8 04             	sar    $0x4,%al
    ce2b:	48 0f be c0          	movsbq %al,%rax
    ce2f:	8b 55 fc             	mov    -0x4(%rbp),%edx
    ce32:	48 8d 35 cd 3a 00 00 	lea    0x3acd(%rip),%rsi        # 10906 <g_1955+0x182e>
    ce39:	48 89 c7             	mov    %rax,%rdi
    ce3c:	e8 b2 88 ff ff       	callq  56f3 <transparent_crc>
    ce41:	48 8b 05 18 83 00 00 	mov    0x8318(%rip),%rax        # 15160 <g_1055>
    ce48:	48 c1 e8 04          	shr    $0x4,%rax
    ce4c:	66 25 ff 7f          	and    $0x7fff,%ax
    ce50:	0f b7 c0             	movzwl %ax,%eax
    ce53:	8b 55 fc             	mov    -0x4(%rbp),%edx
    ce56:	48 8d 35 b3 3a 00 00 	lea    0x3ab3(%rip),%rsi        # 10910 <g_1955+0x1838>
    ce5d:	48 89 c7             	mov    %rax,%rdi
    ce60:	e8 8e 88 ff ff       	callq  56f3 <transparent_crc>
    ce65:	48 8b 05 f4 82 00 00 	mov    0x82f4(%rip),%rax        # 15160 <g_1055>
    ce6c:	48 c1 e0 0e          	shl    $0xe,%rax
    ce70:	48 c1 f8 2e          	sar    $0x2e,%rax
    ce74:	48 98                	cltq   
    ce76:	8b 55 fc             	mov    -0x4(%rbp),%edx
    ce79:	48 8d 35 9a 3a 00 00 	lea    0x3a9a(%rip),%rsi        # 1091a <g_1955+0x1842>
    ce80:	48 89 c7             	mov    %rax,%rdi
    ce83:	e8 6b 88 ff ff       	callq  56f3 <transparent_crc>
    ce88:	48 8b 05 d9 82 00 00 	mov    0x82d9(%rip),%rax        # 15168 <g_1055+0x8>
    ce8f:	01 c0                	add    %eax,%eax
    ce91:	d1 f8                	sar    %eax
    ce93:	48 98                	cltq   
    ce95:	8b 55 fc             	mov    -0x4(%rbp),%edx
    ce98:	48 8d 35 85 3a 00 00 	lea    0x3a85(%rip),%rsi        # 10924 <g_1955+0x184c>
    ce9f:	48 89 c7             	mov    %rax,%rdi
    cea2:	e8 4c 88 ff ff       	callq  56f3 <transparent_crc>
    cea7:	48 8b 05 ba 82 00 00 	mov    0x82ba(%rip),%rax        # 15168 <g_1055+0x8>
    ceae:	48 c1 e0 09          	shl    $0x9,%rax
    ceb2:	48 c1 f8 29          	sar    $0x29,%rax
    ceb6:	48 98                	cltq   
    ceb8:	8b 55 fc             	mov    -0x4(%rbp),%edx
    cebb:	48 8d 35 6c 3a 00 00 	lea    0x3a6c(%rip),%rsi        # 1092e <g_1955+0x1856>
    cec2:	48 89 c7             	mov    %rax,%rdi
    cec5:	e8 29 88 ff ff       	callq  56f3 <transparent_crc>
    ceca:	48 8b 05 97 82 00 00 	mov    0x8297(%rip),%rax        # 15168 <g_1055+0x8>
    ced1:	48 c1 e8 37          	shr    $0x37,%rax
    ced5:	83 e0 03             	and    $0x3,%eax
    ced8:	0f b6 c0             	movzbl %al,%eax
    cedb:	8b 55 fc             	mov    -0x4(%rbp),%edx
    cede:	48 8d 35 53 3a 00 00 	lea    0x3a53(%rip),%rsi        # 10938 <g_1955+0x1860>
    cee5:	48 89 c7             	mov    %rax,%rdi
    cee8:	e8 06 88 ff ff       	callq  56f3 <transparent_crc>
    ceed:	48 8b 05 7c 82 00 00 	mov    0x827c(%rip),%rax        # 15170 <g_1057>
    cef4:	c1 e0 04             	shl    $0x4,%eax
    cef7:	c0 f8 04             	sar    $0x4,%al
    cefa:	48 0f be c0          	movsbq %al,%rax
    cefe:	8b 55 fc             	mov    -0x4(%rbp),%edx
    cf01:	48 8d 35 3a 3a 00 00 	lea    0x3a3a(%rip),%rsi        # 10942 <g_1955+0x186a>
    cf08:	48 89 c7             	mov    %rax,%rdi
    cf0b:	e8 e3 87 ff ff       	callq  56f3 <transparent_crc>
    cf10:	48 8b 05 59 82 00 00 	mov    0x8259(%rip),%rax        # 15170 <g_1057>
    cf17:	48 c1 e8 04          	shr    $0x4,%rax
    cf1b:	66 25 ff 7f          	and    $0x7fff,%ax
    cf1f:	0f b7 c0             	movzwl %ax,%eax
    cf22:	8b 55 fc             	mov    -0x4(%rbp),%edx
    cf25:	48 8d 35 20 3a 00 00 	lea    0x3a20(%rip),%rsi        # 1094c <g_1955+0x1874>
    cf2c:	48 89 c7             	mov    %rax,%rdi
    cf2f:	e8 bf 87 ff ff       	callq  56f3 <transparent_crc>
    cf34:	48 8b 05 35 82 00 00 	mov    0x8235(%rip),%rax        # 15170 <g_1057>
    cf3b:	48 c1 e0 0e          	shl    $0xe,%rax
    cf3f:	48 c1 f8 2e          	sar    $0x2e,%rax
    cf43:	48 98                	cltq   
    cf45:	8b 55 fc             	mov    -0x4(%rbp),%edx
    cf48:	48 8d 35 07 3a 00 00 	lea    0x3a07(%rip),%rsi        # 10956 <g_1955+0x187e>
    cf4f:	48 89 c7             	mov    %rax,%rdi
    cf52:	e8 9c 87 ff ff       	callq  56f3 <transparent_crc>
    cf57:	48 8b 05 1a 82 00 00 	mov    0x821a(%rip),%rax        # 15178 <g_1057+0x8>
    cf5e:	01 c0                	add    %eax,%eax
    cf60:	d1 f8                	sar    %eax
    cf62:	48 98                	cltq   
    cf64:	8b 55 fc             	mov    -0x4(%rbp),%edx
    cf67:	48 8d 35 f2 39 00 00 	lea    0x39f2(%rip),%rsi        # 10960 <g_1955+0x1888>
    cf6e:	48 89 c7             	mov    %rax,%rdi
    cf71:	e8 7d 87 ff ff       	callq  56f3 <transparent_crc>
    cf76:	48 8b 05 fb 81 00 00 	mov    0x81fb(%rip),%rax        # 15178 <g_1057+0x8>
    cf7d:	48 c1 e0 09          	shl    $0x9,%rax
    cf81:	48 c1 f8 29          	sar    $0x29,%rax
    cf85:	48 98                	cltq   
    cf87:	8b 55 fc             	mov    -0x4(%rbp),%edx
    cf8a:	48 8d 35 d9 39 00 00 	lea    0x39d9(%rip),%rsi        # 1096a <g_1955+0x1892>
    cf91:	48 89 c7             	mov    %rax,%rdi
    cf94:	e8 5a 87 ff ff       	callq  56f3 <transparent_crc>
    cf99:	48 8b 05 d8 81 00 00 	mov    0x81d8(%rip),%rax        # 15178 <g_1057+0x8>
    cfa0:	48 c1 e8 37          	shr    $0x37,%rax
    cfa4:	83 e0 03             	and    $0x3,%eax
    cfa7:	0f b6 c0             	movzbl %al,%eax
    cfaa:	8b 55 fc             	mov    -0x4(%rbp),%edx
    cfad:	48 8d 35 c0 39 00 00 	lea    0x39c0(%rip),%rsi        # 10974 <g_1955+0x189c>
    cfb4:	48 89 c7             	mov    %rax,%rdi
    cfb7:	e8 37 87 ff ff       	callq  56f3 <transparent_crc>
    cfbc:	8b 05 be 81 00 00    	mov    0x81be(%rip),%eax        # 15180 <g_1106>
    cfc2:	89 c1                	mov    %eax,%ecx
    cfc4:	8b 45 fc             	mov    -0x4(%rbp),%eax
    cfc7:	89 c2                	mov    %eax,%edx
    cfc9:	48 8d 35 ae 39 00 00 	lea    0x39ae(%rip),%rsi        # 1097e <g_1955+0x18a6>
    cfd0:	48 89 cf             	mov    %rcx,%rdi
    cfd3:	e8 1b 87 ff ff       	callq  56f3 <transparent_crc>
    cfd8:	0f b6 05 a5 81 00 00 	movzbl 0x81a5(%rip),%eax        # 15184 <g_1106+0x4>
    cfdf:	0f b6 c0             	movzbl %al,%eax
    cfe2:	8b 55 fc             	mov    -0x4(%rbp),%edx
    cfe5:	48 8d 35 9c 39 00 00 	lea    0x399c(%rip),%rsi        # 10988 <g_1955+0x18b0>
    cfec:	48 89 c7             	mov    %rax,%rdi
    cfef:	e8 ff 86 ff ff       	callq  56f3 <transparent_crc>
    cff4:	8b 05 8e 81 00 00    	mov    0x818e(%rip),%eax        # 15188 <g_1106+0x8>
    cffa:	89 c1                	mov    %eax,%ecx
    cffc:	8b 45 fc             	mov    -0x4(%rbp),%eax
    cfff:	89 c2                	mov    %eax,%edx
    d001:	48 8d 35 8a 39 00 00 	lea    0x398a(%rip),%rsi        # 10992 <g_1955+0x18ba>
    d008:	48 89 cf             	mov    %rcx,%rdi
    d00b:	e8 e3 86 ff ff       	callq  56f3 <transparent_crc>
    d010:	8b 05 76 81 00 00    	mov    0x8176(%rip),%eax        # 1518c <g_1106+0xc>
    d016:	89 c1                	mov    %eax,%ecx
    d018:	8b 45 fc             	mov    -0x4(%rbp),%eax
    d01b:	89 c2                	mov    %eax,%edx
    d01d:	48 8d 35 78 39 00 00 	lea    0x3978(%rip),%rsi        # 1099c <g_1955+0x18c4>
    d024:	48 89 cf             	mov    %rcx,%rdi
    d027:	e8 c7 86 ff ff       	callq  56f3 <transparent_crc>
    d02c:	8b 05 5e 81 00 00    	mov    0x815e(%rip),%eax        # 15190 <g_1115>
    d032:	89 c1                	mov    %eax,%ecx
    d034:	8b 45 fc             	mov    -0x4(%rbp),%eax
    d037:	89 c2                	mov    %eax,%edx
    d039:	48 8d 35 66 39 00 00 	lea    0x3966(%rip),%rsi        # 109a6 <g_1955+0x18ce>
    d040:	48 89 cf             	mov    %rcx,%rdi
    d043:	e8 ab 86 ff ff       	callq  56f3 <transparent_crc>
    d048:	0f b6 05 45 81 00 00 	movzbl 0x8145(%rip),%eax        # 15194 <g_1115+0x4>
    d04f:	0f b6 c0             	movzbl %al,%eax
    d052:	8b 55 fc             	mov    -0x4(%rbp),%edx
    d055:	48 8d 35 54 39 00 00 	lea    0x3954(%rip),%rsi        # 109b0 <g_1955+0x18d8>
    d05c:	48 89 c7             	mov    %rax,%rdi
    d05f:	e8 8f 86 ff ff       	callq  56f3 <transparent_crc>
    d064:	8b 05 2e 81 00 00    	mov    0x812e(%rip),%eax        # 15198 <g_1115+0x8>
    d06a:	89 c1                	mov    %eax,%ecx
    d06c:	8b 45 fc             	mov    -0x4(%rbp),%eax
    d06f:	89 c2                	mov    %eax,%edx
    d071:	48 8d 35 42 39 00 00 	lea    0x3942(%rip),%rsi        # 109ba <g_1955+0x18e2>
    d078:	48 89 cf             	mov    %rcx,%rdi
    d07b:	e8 73 86 ff ff       	callq  56f3 <transparent_crc>
    d080:	8b 05 16 81 00 00    	mov    0x8116(%rip),%eax        # 1519c <g_1115+0xc>
    d086:	89 c1                	mov    %eax,%ecx
    d088:	8b 45 fc             	mov    -0x4(%rbp),%eax
    d08b:	89 c2                	mov    %eax,%edx
    d08d:	48 8d 35 30 39 00 00 	lea    0x3930(%rip),%rsi        # 109c4 <g_1955+0x18ec>
    d094:	48 89 cf             	mov    %rcx,%rdi
    d097:	e8 57 86 ff ff       	callq  56f3 <transparent_crc>
    d09c:	0f b7 05 9f b2 00 00 	movzwl 0xb29f(%rip),%eax        # 18342 <g_1129>
    d0a3:	48 0f bf c0          	movswq %ax,%rax
    d0a7:	8b 55 fc             	mov    -0x4(%rbp),%edx
    d0aa:	48 8d 35 1d 39 00 00 	lea    0x391d(%rip),%rsi        # 109ce <g_1955+0x18f6>
    d0b1:	48 89 c7             	mov    %rax,%rdi
    d0b4:	e8 3a 86 ff ff       	callq  56f3 <transparent_crc>
    d0b9:	c7 45 f0 00 00 00 00 	movl   $0x0,-0x10(%rbp)
    d0c0:	e9 d0 00 00 00       	jmpq   d195 <main+0x2473>
    d0c5:	8b 45 f0             	mov    -0x10(%rbp),%eax
    d0c8:	48 98                	cltq   
    d0ca:	48 c1 e0 04          	shl    $0x4,%rax
    d0ce:	48 89 c2             	mov    %rax,%rdx
    d0d1:	48 8d 05 c8 80 00 00 	lea    0x80c8(%rip),%rax        # 151a0 <g_1187>
    d0d8:	8b 04 02             	mov    (%rdx,%rax,1),%eax
    d0db:	89 c1                	mov    %eax,%ecx
    d0dd:	8b 45 fc             	mov    -0x4(%rbp),%eax
    d0e0:	89 c2                	mov    %eax,%edx
    d0e2:	48 8d 35 ec 38 00 00 	lea    0x38ec(%rip),%rsi        # 109d5 <g_1955+0x18fd>
    d0e9:	48 89 cf             	mov    %rcx,%rdi
    d0ec:	e8 02 86 ff ff       	callq  56f3 <transparent_crc>
    d0f1:	8b 45 f0             	mov    -0x10(%rbp),%eax
    d0f4:	48 98                	cltq   
    d0f6:	48 c1 e0 04          	shl    $0x4,%rax
    d0fa:	48 89 c2             	mov    %rax,%rdx
    d0fd:	48 8d 05 a0 80 00 00 	lea    0x80a0(%rip),%rax        # 151a4 <g_1187+0x4>
    d104:	0f b6 04 02          	movzbl (%rdx,%rax,1),%eax
    d108:	0f b6 c0             	movzbl %al,%eax
    d10b:	8b 55 fc             	mov    -0x4(%rbp),%edx
    d10e:	48 8d 35 cd 38 00 00 	lea    0x38cd(%rip),%rsi        # 109e2 <g_1955+0x190a>
    d115:	48 89 c7             	mov    %rax,%rdi
    d118:	e8 d6 85 ff ff       	callq  56f3 <transparent_crc>
    d11d:	8b 45 f0             	mov    -0x10(%rbp),%eax
    d120:	48 98                	cltq   
    d122:	48 c1 e0 04          	shl    $0x4,%rax
    d126:	48 89 c2             	mov    %rax,%rdx
    d129:	48 8d 05 78 80 00 00 	lea    0x8078(%rip),%rax        # 151a8 <g_1187+0x8>
    d130:	8b 04 02             	mov    (%rdx,%rax,1),%eax
    d133:	89 c1                	mov    %eax,%ecx
    d135:	8b 45 fc             	mov    -0x4(%rbp),%eax
    d138:	89 c2                	mov    %eax,%edx
    d13a:	48 8d 35 ae 38 00 00 	lea    0x38ae(%rip),%rsi        # 109ef <g_1955+0x1917>
    d141:	48 89 cf             	mov    %rcx,%rdi
    d144:	e8 aa 85 ff ff       	callq  56f3 <transparent_crc>
    d149:	8b 45 f0             	mov    -0x10(%rbp),%eax
    d14c:	48 98                	cltq   
    d14e:	48 c1 e0 04          	shl    $0x4,%rax
    d152:	48 89 c2             	mov    %rax,%rdx
    d155:	48 8d 05 50 80 00 00 	lea    0x8050(%rip),%rax        # 151ac <g_1187+0xc>
    d15c:	8b 04 02             	mov    (%rdx,%rax,1),%eax
    d15f:	89 c1                	mov    %eax,%ecx
    d161:	8b 45 fc             	mov    -0x4(%rbp),%eax
    d164:	89 c2                	mov    %eax,%edx
    d166:	48 8d 35 8f 38 00 00 	lea    0x388f(%rip),%rsi        # 109fc <g_1955+0x1924>
    d16d:	48 89 cf             	mov    %rcx,%rdi
    d170:	e8 7e 85 ff ff       	callq  56f3 <transparent_crc>
    d175:	83 7d fc 00          	cmpl   $0x0,-0x4(%rbp)
    d179:	74 16                	je     d191 <main+0x246f>
    d17b:	8b 45 f0             	mov    -0x10(%rbp),%eax
    d17e:	89 c6                	mov    %eax,%esi
    d180:	48 8d 3d 63 31 00 00 	lea    0x3163(%rip),%rdi        # 102ea <g_1955+0x1212>
    d187:	b8 00 00 00 00       	mov    $0x0,%eax
    d18c:	e8 ef 6e ff ff       	callq  4080 <printf@plt>
    d191:	83 45 f0 01          	addl   $0x1,-0x10(%rbp)
    d195:	83 7d f0 09          	cmpl   $0x9,-0x10(%rbp)
    d199:	0f 8e 26 ff ff ff    	jle    d0c5 <main+0x23a3>
    d19f:	0f b7 05 9a 80 00 00 	movzwl 0x809a(%rip),%eax        # 15240 <g_1239>
    d1a6:	0f b7 c0             	movzwl %ax,%eax
    d1a9:	8b 55 fc             	mov    -0x4(%rbp),%edx
    d1ac:	48 8d 35 56 38 00 00 	lea    0x3856(%rip),%rsi        # 10a09 <g_1955+0x1931>
    d1b3:	48 89 c7             	mov    %rax,%rdi
    d1b6:	e8 38 85 ff ff       	callq  56f3 <transparent_crc>
    d1bb:	8b 05 8f 80 00 00    	mov    0x808f(%rip),%eax        # 15250 <g_1242>
    d1c1:	89 c1                	mov    %eax,%ecx
    d1c3:	8b 45 fc             	mov    -0x4(%rbp),%eax
    d1c6:	89 c2                	mov    %eax,%edx
    d1c8:	48 8d 35 41 38 00 00 	lea    0x3841(%rip),%rsi        # 10a10 <g_1955+0x1938>
    d1cf:	48 89 cf             	mov    %rcx,%rdi
    d1d2:	e8 1c 85 ff ff       	callq  56f3 <transparent_crc>
    d1d7:	0f b6 05 76 80 00 00 	movzbl 0x8076(%rip),%eax        # 15254 <g_1242+0x4>
    d1de:	0f b6 c0             	movzbl %al,%eax
    d1e1:	8b 55 fc             	mov    -0x4(%rbp),%edx
    d1e4:	48 8d 35 2f 38 00 00 	lea    0x382f(%rip),%rsi        # 10a1a <g_1955+0x1942>
    d1eb:	48 89 c7             	mov    %rax,%rdi
    d1ee:	e8 00 85 ff ff       	callq  56f3 <transparent_crc>
    d1f3:	8b 05 5f 80 00 00    	mov    0x805f(%rip),%eax        # 15258 <g_1242+0x8>
    d1f9:	89 c1                	mov    %eax,%ecx
    d1fb:	8b 45 fc             	mov    -0x4(%rbp),%eax
    d1fe:	89 c2                	mov    %eax,%edx
    d200:	48 8d 35 1d 38 00 00 	lea    0x381d(%rip),%rsi        # 10a24 <g_1955+0x194c>
    d207:	48 89 cf             	mov    %rcx,%rdi
    d20a:	e8 e4 84 ff ff       	callq  56f3 <transparent_crc>
    d20f:	8b 05 47 80 00 00    	mov    0x8047(%rip),%eax        # 1525c <g_1242+0xc>
    d215:	89 c1                	mov    %eax,%ecx
    d217:	8b 45 fc             	mov    -0x4(%rbp),%eax
    d21a:	89 c2                	mov    %eax,%edx
    d21c:	48 8d 35 0b 38 00 00 	lea    0x380b(%rip),%rsi        # 10a2e <g_1955+0x1956>
    d223:	48 89 cf             	mov    %rcx,%rdi
    d226:	e8 c8 84 ff ff       	callq  56f3 <transparent_crc>
    d22b:	c7 45 f0 00 00 00 00 	movl   $0x0,-0x10(%rbp)
    d232:	e9 b6 02 00 00       	jmpq   d4ed <main+0x27cb>
    d237:	c7 45 f4 00 00 00 00 	movl   $0x0,-0xc(%rbp)
    d23e:	e9 9c 02 00 00       	jmpq   d4df <main+0x27bd>
    d243:	c7 45 f8 00 00 00 00 	movl   $0x0,-0x8(%rbp)
    d24a:	e9 82 02 00 00       	jmpq   d4d1 <main+0x27af>
    d24f:	8b 45 f8             	mov    -0x8(%rbp),%eax
    d252:	48 63 f0             	movslq %eax,%rsi
    d255:	8b 45 f0             	mov    -0x10(%rbp),%eax
    d258:	48 63 d0             	movslq %eax,%rdx
    d25b:	8b 45 f4             	mov    -0xc(%rbp),%eax
    d25e:	48 63 c8             	movslq %eax,%rcx
    d261:	48 89 d0             	mov    %rdx,%rax
    d264:	48 c1 e0 02          	shl    $0x2,%rax
    d268:	48 01 d0             	add    %rdx,%rax
    d26b:	48 c1 e0 02          	shl    $0x2,%rax
    d26f:	48 01 d0             	add    %rdx,%rax
    d272:	48 01 c0             	add    %rax,%rax
    d275:	48 89 ca             	mov    %rcx,%rdx
    d278:	48 01 d2             	add    %rdx,%rdx
    d27b:	48 01 ca             	add    %rcx,%rdx
    d27e:	48 01 d2             	add    %rdx,%rdx
    d281:	48 01 d0             	add    %rdx,%rax
    d284:	48 01 f0             	add    %rsi,%rax
    d287:	48 c1 e0 04          	shl    $0x4,%rax
    d28b:	48 89 c2             	mov    %rax,%rdx
    d28e:	48 8d 05 cb 7f 00 00 	lea    0x7fcb(%rip),%rax        # 15260 <g_1249>
    d295:	48 8b 04 02          	mov    (%rdx,%rax,1),%rax
    d299:	c1 e0 04             	shl    $0x4,%eax
    d29c:	c0 f8 04             	sar    $0x4,%al
    d29f:	48 0f be c0          	movsbq %al,%rax
    d2a3:	8b 55 fc             	mov    -0x4(%rbp),%edx
    d2a6:	48 8d 35 8b 37 00 00 	lea    0x378b(%rip),%rsi        # 10a38 <g_1955+0x1960>
    d2ad:	48 89 c7             	mov    %rax,%rdi
    d2b0:	e8 3e 84 ff ff       	callq  56f3 <transparent_crc>
    d2b5:	8b 45 f8             	mov    -0x8(%rbp),%eax
    d2b8:	48 63 f0             	movslq %eax,%rsi
    d2bb:	8b 45 f0             	mov    -0x10(%rbp),%eax
    d2be:	48 63 d0             	movslq %eax,%rdx
    d2c1:	8b 45 f4             	mov    -0xc(%rbp),%eax
    d2c4:	48 63 c8             	movslq %eax,%rcx
    d2c7:	48 89 d0             	mov    %rdx,%rax
    d2ca:	48 c1 e0 02          	shl    $0x2,%rax
    d2ce:	48 01 d0             	add    %rdx,%rax
    d2d1:	48 c1 e0 02          	shl    $0x2,%rax
    d2d5:	48 01 d0             	add    %rdx,%rax
    d2d8:	48 01 c0             	add    %rax,%rax
    d2db:	48 89 ca             	mov    %rcx,%rdx
    d2de:	48 01 d2             	add    %rdx,%rdx
    d2e1:	48 01 ca             	add    %rcx,%rdx
    d2e4:	48 01 d2             	add    %rdx,%rdx
    d2e7:	48 01 d0             	add    %rdx,%rax
    d2ea:	48 01 f0             	add    %rsi,%rax
    d2ed:	48 c1 e0 04          	shl    $0x4,%rax
    d2f1:	48 89 c2             	mov    %rax,%rdx
    d2f4:	48 8d 05 65 7f 00 00 	lea    0x7f65(%rip),%rax        # 15260 <g_1249>
    d2fb:	8b 04 02             	mov    (%rdx,%rax,1),%eax
    d2fe:	c1 e8 04             	shr    $0x4,%eax
    d301:	66 25 ff 7f          	and    $0x7fff,%ax
    d305:	0f b7 c0             	movzwl %ax,%eax
    d308:	8b 55 fc             	mov    -0x4(%rbp),%edx
    d30b:	48 8d 35 39 37 00 00 	lea    0x3739(%rip),%rsi        # 10a4b <g_1955+0x1973>
    d312:	48 89 c7             	mov    %rax,%rdi
    d315:	e8 d9 83 ff ff       	callq  56f3 <transparent_crc>
    d31a:	8b 45 f8             	mov    -0x8(%rbp),%eax
    d31d:	48 63 f0             	movslq %eax,%rsi
    d320:	8b 45 f0             	mov    -0x10(%rbp),%eax
    d323:	48 63 d0             	movslq %eax,%rdx
    d326:	8b 45 f4             	mov    -0xc(%rbp),%eax
    d329:	48 63 c8             	movslq %eax,%rcx
    d32c:	48 89 d0             	mov    %rdx,%rax
    d32f:	48 c1 e0 02          	shl    $0x2,%rax
    d333:	48 01 d0             	add    %rdx,%rax
    d336:	48 c1 e0 02          	shl    $0x2,%rax
    d33a:	48 01 d0             	add    %rdx,%rax
    d33d:	48 01 c0             	add    %rax,%rax
    d340:	48 89 ca             	mov    %rcx,%rdx
    d343:	48 01 d2             	add    %rdx,%rdx
    d346:	48 01 ca             	add    %rcx,%rdx
    d349:	48 01 d2             	add    %rdx,%rdx
    d34c:	48 01 d0             	add    %rdx,%rax
    d34f:	48 01 f0             	add    %rsi,%rax
    d352:	48 c1 e0 04          	shl    $0x4,%rax
    d356:	48 89 c2             	mov    %rax,%rdx
    d359:	48 8d 05 00 7f 00 00 	lea    0x7f00(%rip),%rax        # 15260 <g_1249>
    d360:	8b 44 02 04          	mov    0x4(%rdx,%rax,1),%eax
    d364:	c1 e0 0e             	shl    $0xe,%eax
    d367:	c1 f8 0e             	sar    $0xe,%eax
    d36a:	48 98                	cltq   
    d36c:	8b 55 fc             	mov    -0x4(%rbp),%edx
    d36f:	48 8d 35 e8 36 00 00 	lea    0x36e8(%rip),%rsi        # 10a5e <g_1955+0x1986>
    d376:	48 89 c7             	mov    %rax,%rdi
    d379:	e8 75 83 ff ff       	callq  56f3 <transparent_crc>
    d37e:	8b 45 f8             	mov    -0x8(%rbp),%eax
    d381:	48 63 f0             	movslq %eax,%rsi
    d384:	8b 45 f0             	mov    -0x10(%rbp),%eax
    d387:	48 63 d0             	movslq %eax,%rdx
    d38a:	8b 45 f4             	mov    -0xc(%rbp),%eax
    d38d:	48 63 c8             	movslq %eax,%rcx
    d390:	48 89 d0             	mov    %rdx,%rax
    d393:	48 c1 e0 02          	shl    $0x2,%rax
    d397:	48 01 d0             	add    %rdx,%rax
    d39a:	48 c1 e0 02          	shl    $0x2,%rax
    d39e:	48 01 d0             	add    %rdx,%rax
    d3a1:	48 01 c0             	add    %rax,%rax
    d3a4:	48 89 ca             	mov    %rcx,%rdx
    d3a7:	48 01 d2             	add    %rdx,%rdx
    d3aa:	48 01 ca             	add    %rcx,%rdx
    d3ad:	48 01 d2             	add    %rdx,%rdx
    d3b0:	48 01 d0             	add    %rdx,%rax
    d3b3:	48 01 f0             	add    %rsi,%rax
    d3b6:	48 c1 e0 04          	shl    $0x4,%rax
    d3ba:	48 89 c2             	mov    %rax,%rdx
    d3bd:	48 8d 05 9c 7e 00 00 	lea    0x7e9c(%rip),%rax        # 15260 <g_1249>
    d3c4:	8b 44 02 08          	mov    0x8(%rdx,%rax,1),%eax
    d3c8:	01 c0                	add    %eax,%eax
    d3ca:	d1 f8                	sar    %eax
    d3cc:	48 98                	cltq   
    d3ce:	8b 55 fc             	mov    -0x4(%rbp),%edx
    d3d1:	48 8d 35 99 36 00 00 	lea    0x3699(%rip),%rsi        # 10a71 <g_1955+0x1999>
    d3d8:	48 89 c7             	mov    %rax,%rdi
    d3db:	e8 13 83 ff ff       	callq  56f3 <transparent_crc>
    d3e0:	8b 45 f8             	mov    -0x8(%rbp),%eax
    d3e3:	48 63 f0             	movslq %eax,%rsi
    d3e6:	8b 45 f0             	mov    -0x10(%rbp),%eax
    d3e9:	48 63 d0             	movslq %eax,%rdx
    d3ec:	8b 45 f4             	mov    -0xc(%rbp),%eax
    d3ef:	48 63 c8             	movslq %eax,%rcx
    d3f2:	48 89 d0             	mov    %rdx,%rax
    d3f5:	48 c1 e0 02          	shl    $0x2,%rax
    d3f9:	48 01 d0             	add    %rdx,%rax
    d3fc:	48 c1 e0 02          	shl    $0x2,%rax
    d400:	48 01 d0             	add    %rdx,%rax
    d403:	48 01 c0             	add    %rax,%rax
    d406:	48 89 ca             	mov    %rcx,%rdx
    d409:	48 01 d2             	add    %rdx,%rdx
    d40c:	48 01 ca             	add    %rcx,%rdx
    d40f:	48 01 d2             	add    %rdx,%rdx
    d412:	48 01 d0             	add    %rdx,%rax
    d415:	48 01 f0             	add    %rsi,%rax
    d418:	48 c1 e0 04          	shl    $0x4,%rax
    d41c:	48 89 c2             	mov    %rax,%rdx
    d41f:	48 8d 05 3a 7e 00 00 	lea    0x7e3a(%rip),%rax        # 15260 <g_1249>
    d426:	8b 44 02 0c          	mov    0xc(%rdx,%rax,1),%eax
    d42a:	c1 e0 09             	shl    $0x9,%eax
    d42d:	c1 f8 09             	sar    $0x9,%eax
    d430:	48 98                	cltq   
    d432:	8b 55 fc             	mov    -0x4(%rbp),%edx
    d435:	48 8d 35 48 36 00 00 	lea    0x3648(%rip),%rsi        # 10a84 <g_1955+0x19ac>
    d43c:	48 89 c7             	mov    %rax,%rdi
    d43f:	e8 af 82 ff ff       	callq  56f3 <transparent_crc>
    d444:	8b 45 f8             	mov    -0x8(%rbp),%eax
    d447:	48 63 f0             	movslq %eax,%rsi
    d44a:	8b 45 f0             	mov    -0x10(%rbp),%eax
    d44d:	48 63 d0             	movslq %eax,%rdx
    d450:	8b 45 f4             	mov    -0xc(%rbp),%eax
    d453:	48 63 c8             	movslq %eax,%rcx
    d456:	48 89 d0             	mov    %rdx,%rax
    d459:	48 c1 e0 02          	shl    $0x2,%rax
    d45d:	48 01 d0             	add    %rdx,%rax
    d460:	48 c1 e0 02          	shl    $0x2,%rax
    d464:	48 01 d0             	add    %rdx,%rax
    d467:	48 01 c0             	add    %rax,%rax
    d46a:	48 89 ca             	mov    %rcx,%rdx
    d46d:	48 01 d2             	add    %rdx,%rdx
    d470:	48 01 ca             	add    %rcx,%rdx
    d473:	48 01 d2             	add    %rdx,%rdx
    d476:	48 01 d0             	add    %rdx,%rax
    d479:	48 01 f0             	add    %rsi,%rax
    d47c:	48 c1 e0 04          	shl    $0x4,%rax
    d480:	48 89 c2             	mov    %rax,%rdx
    d483:	48 8d 05 d6 7d 00 00 	lea    0x7dd6(%rip),%rax        # 15260 <g_1249>
    d48a:	48 8b 44 02 08       	mov    0x8(%rdx,%rax,1),%rax
    d48f:	48 c1 e8 37          	shr    $0x37,%rax
    d493:	83 e0 03             	and    $0x3,%eax
    d496:	0f b6 c0             	movzbl %al,%eax
    d499:	8b 55 fc             	mov    -0x4(%rbp),%edx
    d49c:	48 8d 35 f4 35 00 00 	lea    0x35f4(%rip),%rsi        # 10a97 <g_1955+0x19bf>
    d4a3:	48 89 c7             	mov    %rax,%rdi
    d4a6:	e8 48 82 ff ff       	callq  56f3 <transparent_crc>
    d4ab:	83 7d fc 00          	cmpl   $0x0,-0x4(%rbp)
    d4af:	74 1c                	je     d4cd <main+0x27ab>
    d4b1:	8b 4d f8             	mov    -0x8(%rbp),%ecx
    d4b4:	8b 55 f4             	mov    -0xc(%rbp),%edx
    d4b7:	8b 45 f0             	mov    -0x10(%rbp),%eax
    d4ba:	89 c6                	mov    %eax,%esi
    d4bc:	48 8d 3d f6 2d 00 00 	lea    0x2df6(%rip),%rdi        # 102b9 <g_1955+0x11e1>
    d4c3:	b8 00 00 00 00       	mov    $0x0,%eax
    d4c8:	e8 b3 6b ff ff       	callq  4080 <printf@plt>
    d4cd:	83 45 f8 01          	addl   $0x1,-0x8(%rbp)
    d4d1:	83 7d f8 05          	cmpl   $0x5,-0x8(%rbp)
    d4d5:	0f 8e 74 fd ff ff    	jle    d24f <main+0x252d>
    d4db:	83 45 f4 01          	addl   $0x1,-0xc(%rbp)
    d4df:	83 7d f4 06          	cmpl   $0x6,-0xc(%rbp)
    d4e3:	0f 8e 5a fd ff ff    	jle    d243 <main+0x2521>
    d4e9:	83 45 f0 01          	addl   $0x1,-0x10(%rbp)
    d4ed:	83 7d f0 05          	cmpl   $0x5,-0x10(%rbp)
    d4f1:	0f 8e 40 fd ff ff    	jle    d237 <main+0x2515>
    d4f7:	8b 05 23 8d 00 00    	mov    0x8d23(%rip),%eax        # 16220 <g_1314>
    d4fd:	48 98                	cltq   
    d4ff:	8b 55 fc             	mov    -0x4(%rbp),%edx
    d502:	48 8d 35 a1 35 00 00 	lea    0x35a1(%rip),%rsi        # 10aaa <g_1955+0x19d2>
    d509:	48 89 c7             	mov    %rax,%rdi
    d50c:	e8 e2 81 ff ff       	callq  56f3 <transparent_crc>
    d511:	48 8b 05 18 8d 00 00 	mov    0x8d18(%rip),%rax        # 16230 <g_1318>
    d518:	c1 e0 04             	shl    $0x4,%eax
    d51b:	c0 f8 04             	sar    $0x4,%al
    d51e:	48 0f be c0          	movsbq %al,%rax
    d522:	8b 55 fc             	mov    -0x4(%rbp),%edx
    d525:	48 8d 35 85 35 00 00 	lea    0x3585(%rip),%rsi        # 10ab1 <g_1955+0x19d9>
    d52c:	48 89 c7             	mov    %rax,%rdi
    d52f:	e8 bf 81 ff ff       	callq  56f3 <transparent_crc>
    d534:	48 8b 05 f5 8c 00 00 	mov    0x8cf5(%rip),%rax        # 16230 <g_1318>
    d53b:	48 c1 e8 04          	shr    $0x4,%rax
    d53f:	66 25 ff 7f          	and    $0x7fff,%ax
    d543:	0f b7 c0             	movzwl %ax,%eax
    d546:	8b 55 fc             	mov    -0x4(%rbp),%edx
    d549:	48 8d 35 6b 35 00 00 	lea    0x356b(%rip),%rsi        # 10abb <g_1955+0x19e3>
    d550:	48 89 c7             	mov    %rax,%rdi
    d553:	e8 9b 81 ff ff       	callq  56f3 <transparent_crc>
    d558:	48 8b 05 d1 8c 00 00 	mov    0x8cd1(%rip),%rax        # 16230 <g_1318>
    d55f:	48 c1 e0 0e          	shl    $0xe,%rax
    d563:	48 c1 f8 2e          	sar    $0x2e,%rax
    d567:	48 98                	cltq   
    d569:	8b 55 fc             	mov    -0x4(%rbp),%edx
    d56c:	48 8d 35 52 35 00 00 	lea    0x3552(%rip),%rsi        # 10ac5 <g_1955+0x19ed>
    d573:	48 89 c7             	mov    %rax,%rdi
    d576:	e8 78 81 ff ff       	callq  56f3 <transparent_crc>
    d57b:	48 8b 05 b6 8c 00 00 	mov    0x8cb6(%rip),%rax        # 16238 <g_1318+0x8>
    d582:	01 c0                	add    %eax,%eax
    d584:	d1 f8                	sar    %eax
    d586:	48 98                	cltq   
    d588:	8b 55 fc             	mov    -0x4(%rbp),%edx
    d58b:	48 8d 35 3d 35 00 00 	lea    0x353d(%rip),%rsi        # 10acf <g_1955+0x19f7>
    d592:	48 89 c7             	mov    %rax,%rdi
    d595:	e8 59 81 ff ff       	callq  56f3 <transparent_crc>
    d59a:	48 8b 05 97 8c 00 00 	mov    0x8c97(%rip),%rax        # 16238 <g_1318+0x8>
    d5a1:	48 c1 e0 09          	shl    $0x9,%rax
    d5a5:	48 c1 f8 29          	sar    $0x29,%rax
    d5a9:	48 98                	cltq   
    d5ab:	8b 55 fc             	mov    -0x4(%rbp),%edx
    d5ae:	48 8d 35 24 35 00 00 	lea    0x3524(%rip),%rsi        # 10ad9 <g_1955+0x1a01>
    d5b5:	48 89 c7             	mov    %rax,%rdi
    d5b8:	e8 36 81 ff ff       	callq  56f3 <transparent_crc>
    d5bd:	48 8b 05 74 8c 00 00 	mov    0x8c74(%rip),%rax        # 16238 <g_1318+0x8>
    d5c4:	48 c1 e8 37          	shr    $0x37,%rax
    d5c8:	83 e0 03             	and    $0x3,%eax
    d5cb:	0f b6 c0             	movzbl %al,%eax
    d5ce:	8b 55 fc             	mov    -0x4(%rbp),%edx
    d5d1:	48 8d 35 0b 35 00 00 	lea    0x350b(%rip),%rsi        # 10ae3 <g_1955+0x1a0b>
    d5d8:	48 89 c7             	mov    %rax,%rdi
    d5db:	e8 13 81 ff ff       	callq  56f3 <transparent_crc>
    d5e0:	48 8b 05 59 8c 00 00 	mov    0x8c59(%rip),%rax        # 16240 <g_1374>
    d5e7:	48 89 c1             	mov    %rax,%rcx
    d5ea:	8b 45 fc             	mov    -0x4(%rbp),%eax
    d5ed:	89 c2                	mov    %eax,%edx
    d5ef:	48 8d 35 f7 34 00 00 	lea    0x34f7(%rip),%rsi        # 10aed <g_1955+0x1a15>
    d5f6:	48 89 cf             	mov    %rcx,%rdi
    d5f9:	e8 f5 80 ff ff       	callq  56f3 <transparent_crc>
    d5fe:	48 8b 05 4b 8c 00 00 	mov    0x8c4b(%rip),%rax        # 16250 <g_1400>
    d605:	c1 e0 04             	shl    $0x4,%eax
    d608:	c0 f8 04             	sar    $0x4,%al
    d60b:	48 0f be c0          	movsbq %al,%rax
    d60f:	8b 55 fc             	mov    -0x4(%rbp),%edx
    d612:	48 8d 35 db 34 00 00 	lea    0x34db(%rip),%rsi        # 10af4 <g_1955+0x1a1c>
    d619:	48 89 c7             	mov    %rax,%rdi
    d61c:	e8 d2 80 ff ff       	callq  56f3 <transparent_crc>
    d621:	48 8b 05 28 8c 00 00 	mov    0x8c28(%rip),%rax        # 16250 <g_1400>
    d628:	48 c1 e8 04          	shr    $0x4,%rax
    d62c:	66 25 ff 7f          	and    $0x7fff,%ax
    d630:	0f b7 c0             	movzwl %ax,%eax
    d633:	8b 55 fc             	mov    -0x4(%rbp),%edx
    d636:	48 8d 35 c1 34 00 00 	lea    0x34c1(%rip),%rsi        # 10afe <g_1955+0x1a26>
    d63d:	48 89 c7             	mov    %rax,%rdi
    d640:	e8 ae 80 ff ff       	callq  56f3 <transparent_crc>
    d645:	48 8b 05 04 8c 00 00 	mov    0x8c04(%rip),%rax        # 16250 <g_1400>
    d64c:	48 c1 e0 0e          	shl    $0xe,%rax
    d650:	48 c1 f8 2e          	sar    $0x2e,%rax
    d654:	48 98                	cltq   
    d656:	8b 55 fc             	mov    -0x4(%rbp),%edx
    d659:	48 8d 35 a8 34 00 00 	lea    0x34a8(%rip),%rsi        # 10b08 <g_1955+0x1a30>
    d660:	48 89 c7             	mov    %rax,%rdi
    d663:	e8 8b 80 ff ff       	callq  56f3 <transparent_crc>
    d668:	48 8b 05 e9 8b 00 00 	mov    0x8be9(%rip),%rax        # 16258 <g_1400+0x8>
    d66f:	01 c0                	add    %eax,%eax
    d671:	d1 f8                	sar    %eax
    d673:	48 98                	cltq   
    d675:	8b 55 fc             	mov    -0x4(%rbp),%edx
    d678:	48 8d 35 93 34 00 00 	lea    0x3493(%rip),%rsi        # 10b12 <g_1955+0x1a3a>
    d67f:	48 89 c7             	mov    %rax,%rdi
    d682:	e8 6c 80 ff ff       	callq  56f3 <transparent_crc>
    d687:	48 8b 05 ca 8b 00 00 	mov    0x8bca(%rip),%rax        # 16258 <g_1400+0x8>
    d68e:	48 c1 e0 09          	shl    $0x9,%rax
    d692:	48 c1 f8 29          	sar    $0x29,%rax
    d696:	48 98                	cltq   
    d698:	8b 55 fc             	mov    -0x4(%rbp),%edx
    d69b:	48 8d 35 7a 34 00 00 	lea    0x347a(%rip),%rsi        # 10b1c <g_1955+0x1a44>
    d6a2:	48 89 c7             	mov    %rax,%rdi
    d6a5:	e8 49 80 ff ff       	callq  56f3 <transparent_crc>
    d6aa:	48 8b 05 a7 8b 00 00 	mov    0x8ba7(%rip),%rax        # 16258 <g_1400+0x8>
    d6b1:	48 c1 e8 37          	shr    $0x37,%rax
    d6b5:	83 e0 03             	and    $0x3,%eax
    d6b8:	0f b6 c0             	movzbl %al,%eax
    d6bb:	8b 55 fc             	mov    -0x4(%rbp),%edx
    d6be:	48 8d 35 61 34 00 00 	lea    0x3461(%rip),%rsi        # 10b26 <g_1955+0x1a4e>
    d6c5:	48 89 c7             	mov    %rax,%rdi
    d6c8:	e8 26 80 ff ff       	callq  56f3 <transparent_crc>
    d6cd:	48 8b 05 8c 8b 00 00 	mov    0x8b8c(%rip),%rax        # 16260 <g_1467>
    d6d4:	c1 e0 04             	shl    $0x4,%eax
    d6d7:	c0 f8 04             	sar    $0x4,%al
    d6da:	48 0f be c0          	movsbq %al,%rax
    d6de:	8b 55 fc             	mov    -0x4(%rbp),%edx
    d6e1:	48 8d 35 48 34 00 00 	lea    0x3448(%rip),%rsi        # 10b30 <g_1955+0x1a58>
    d6e8:	48 89 c7             	mov    %rax,%rdi
    d6eb:	e8 03 80 ff ff       	callq  56f3 <transparent_crc>
    d6f0:	8b 05 6a 8b 00 00    	mov    0x8b6a(%rip),%eax        # 16260 <g_1467>
    d6f6:	c1 e8 04             	shr    $0x4,%eax
    d6f9:	66 25 ff 7f          	and    $0x7fff,%ax
    d6fd:	0f b7 c0             	movzwl %ax,%eax
    d700:	8b 55 fc             	mov    -0x4(%rbp),%edx
    d703:	48 8d 35 30 34 00 00 	lea    0x3430(%rip),%rsi        # 10b3a <g_1955+0x1a62>
    d70a:	48 89 c7             	mov    %rax,%rdi
    d70d:	e8 e1 7f ff ff       	callq  56f3 <transparent_crc>
    d712:	8b 05 4c 8b 00 00    	mov    0x8b4c(%rip),%eax        # 16264 <g_1467+0x4>
    d718:	c1 e0 0e             	shl    $0xe,%eax
    d71b:	c1 f8 0e             	sar    $0xe,%eax
    d71e:	48 98                	cltq   
    d720:	8b 55 fc             	mov    -0x4(%rbp),%edx
    d723:	48 8d 35 1a 34 00 00 	lea    0x341a(%rip),%rsi        # 10b44 <g_1955+0x1a6c>
    d72a:	48 89 c7             	mov    %rax,%rdi
    d72d:	e8 c1 7f ff ff       	callq  56f3 <transparent_crc>
    d732:	8b 05 30 8b 00 00    	mov    0x8b30(%rip),%eax        # 16268 <g_1467+0x8>
    d738:	01 c0                	add    %eax,%eax
    d73a:	d1 f8                	sar    %eax
    d73c:	48 98                	cltq   
    d73e:	8b 55 fc             	mov    -0x4(%rbp),%edx
    d741:	48 8d 35 06 34 00 00 	lea    0x3406(%rip),%rsi        # 10b4e <g_1955+0x1a76>
    d748:	48 89 c7             	mov    %rax,%rdi
    d74b:	e8 a3 7f ff ff       	callq  56f3 <transparent_crc>
    d750:	8b 05 16 8b 00 00    	mov    0x8b16(%rip),%eax        # 1626c <g_1467+0xc>
    d756:	c1 e0 09             	shl    $0x9,%eax
    d759:	c1 f8 09             	sar    $0x9,%eax
    d75c:	48 98                	cltq   
    d75e:	8b 55 fc             	mov    -0x4(%rbp),%edx
    d761:	48 8d 35 f0 33 00 00 	lea    0x33f0(%rip),%rsi        # 10b58 <g_1955+0x1a80>
    d768:	48 89 c7             	mov    %rax,%rdi
    d76b:	e8 83 7f ff ff       	callq  56f3 <transparent_crc>
    d770:	48 8b 05 f1 8a 00 00 	mov    0x8af1(%rip),%rax        # 16268 <g_1467+0x8>
    d777:	48 c1 e8 37          	shr    $0x37,%rax
    d77b:	83 e0 03             	and    $0x3,%eax
    d77e:	0f b6 c0             	movzbl %al,%eax
    d781:	8b 55 fc             	mov    -0x4(%rbp),%edx
    d784:	48 8d 35 d7 33 00 00 	lea    0x33d7(%rip),%rsi        # 10b62 <g_1955+0x1a8a>
    d78b:	48 89 c7             	mov    %rax,%rdi
    d78e:	e8 60 7f ff ff       	callq  56f3 <transparent_crc>
    d793:	48 8b 05 d6 8a 00 00 	mov    0x8ad6(%rip),%rax        # 16270 <g_1468>
    d79a:	c1 e0 04             	shl    $0x4,%eax
    d79d:	c0 f8 04             	sar    $0x4,%al
    d7a0:	48 0f be c0          	movsbq %al,%rax
    d7a4:	8b 55 fc             	mov    -0x4(%rbp),%edx
    d7a7:	48 8d 35 be 33 00 00 	lea    0x33be(%rip),%rsi        # 10b6c <g_1955+0x1a94>
    d7ae:	48 89 c7             	mov    %rax,%rdi
    d7b1:	e8 3d 7f ff ff       	callq  56f3 <transparent_crc>
    d7b6:	48 8b 05 b3 8a 00 00 	mov    0x8ab3(%rip),%rax        # 16270 <g_1468>
    d7bd:	48 c1 e8 04          	shr    $0x4,%rax
    d7c1:	66 25 ff 7f          	and    $0x7fff,%ax
    d7c5:	0f b7 c0             	movzwl %ax,%eax
    d7c8:	8b 55 fc             	mov    -0x4(%rbp),%edx
    d7cb:	48 8d 35 a4 33 00 00 	lea    0x33a4(%rip),%rsi        # 10b76 <g_1955+0x1a9e>
    d7d2:	48 89 c7             	mov    %rax,%rdi
    d7d5:	e8 19 7f ff ff       	callq  56f3 <transparent_crc>
    d7da:	48 8b 05 8f 8a 00 00 	mov    0x8a8f(%rip),%rax        # 16270 <g_1468>
    d7e1:	48 c1 e0 0e          	shl    $0xe,%rax
    d7e5:	48 c1 f8 2e          	sar    $0x2e,%rax
    d7e9:	48 98                	cltq   
    d7eb:	8b 55 fc             	mov    -0x4(%rbp),%edx
    d7ee:	48 8d 35 8b 33 00 00 	lea    0x338b(%rip),%rsi        # 10b80 <g_1955+0x1aa8>
    d7f5:	48 89 c7             	mov    %rax,%rdi
    d7f8:	e8 f6 7e ff ff       	callq  56f3 <transparent_crc>
    d7fd:	48 8b 05 74 8a 00 00 	mov    0x8a74(%rip),%rax        # 16278 <g_1468+0x8>
    d804:	01 c0                	add    %eax,%eax
    d806:	d1 f8                	sar    %eax
    d808:	48 98                	cltq   
    d80a:	8b 55 fc             	mov    -0x4(%rbp),%edx
    d80d:	48 8d 35 76 33 00 00 	lea    0x3376(%rip),%rsi        # 10b8a <g_1955+0x1ab2>
    d814:	48 89 c7             	mov    %rax,%rdi
    d817:	e8 d7 7e ff ff       	callq  56f3 <transparent_crc>
    d81c:	48 8b 05 55 8a 00 00 	mov    0x8a55(%rip),%rax        # 16278 <g_1468+0x8>
    d823:	48 c1 e0 09          	shl    $0x9,%rax
    d827:	48 c1 f8 29          	sar    $0x29,%rax
    d82b:	48 98                	cltq   
    d82d:	8b 55 fc             	mov    -0x4(%rbp),%edx
    d830:	48 8d 35 5d 33 00 00 	lea    0x335d(%rip),%rsi        # 10b94 <g_1955+0x1abc>
    d837:	48 89 c7             	mov    %rax,%rdi
    d83a:	e8 b4 7e ff ff       	callq  56f3 <transparent_crc>
    d83f:	48 8b 05 32 8a 00 00 	mov    0x8a32(%rip),%rax        # 16278 <g_1468+0x8>
    d846:	48 c1 e8 37          	shr    $0x37,%rax
    d84a:	83 e0 03             	and    $0x3,%eax
    d84d:	0f b6 c0             	movzbl %al,%eax
    d850:	8b 55 fc             	mov    -0x4(%rbp),%edx
    d853:	48 8d 35 44 33 00 00 	lea    0x3344(%rip),%rsi        # 10b9e <g_1955+0x1ac6>
    d85a:	48 89 c7             	mov    %rax,%rdi
    d85d:	e8 91 7e ff ff       	callq  56f3 <transparent_crc>
    d862:	c7 45 f0 00 00 00 00 	movl   $0x0,-0x10(%rbp)
    d869:	e9 c4 02 00 00       	jmpq   db32 <main+0x2e10>
    d86e:	c7 45 f4 00 00 00 00 	movl   $0x0,-0xc(%rbp)
    d875:	e9 aa 02 00 00       	jmpq   db24 <main+0x2e02>
    d87a:	c7 45 f8 00 00 00 00 	movl   $0x0,-0x8(%rbp)
    d881:	e9 90 02 00 00       	jmpq   db16 <main+0x2df4>
    d886:	8b 45 f8             	mov    -0x8(%rbp),%eax
    d889:	48 63 f0             	movslq %eax,%rsi
    d88c:	8b 45 f0             	mov    -0x10(%rbp),%eax
    d88f:	48 98                	cltq   
    d891:	8b 55 f4             	mov    -0xc(%rbp),%edx
    d894:	48 63 ca             	movslq %edx,%rcx
    d897:	48 89 c2             	mov    %rax,%rdx
    d89a:	48 c1 e2 02          	shl    $0x2,%rdx
    d89e:	48 01 c2             	add    %rax,%rdx
    d8a1:	48 8d 04 d5 00 00 00 	lea    0x0(,%rdx,8),%rax
    d8a8:	00 
    d8a9:	48 89 c2             	mov    %rax,%rdx
    d8ac:	48 89 c8             	mov    %rcx,%rax
    d8af:	48 c1 e0 02          	shl    $0x2,%rax
    d8b3:	48 01 c8             	add    %rcx,%rax
    d8b6:	48 01 c0             	add    %rax,%rax
    d8b9:	48 01 d0             	add    %rdx,%rax
    d8bc:	48 01 f0             	add    %rsi,%rax
    d8bf:	48 c1 e0 04          	shl    $0x4,%rax
    d8c3:	48 89 c2             	mov    %rax,%rdx
    d8c6:	48 8d 05 b3 89 00 00 	lea    0x89b3(%rip),%rax        # 16280 <g_1512>
    d8cd:	48 8b 04 02          	mov    (%rdx,%rax,1),%rax
    d8d1:	c1 e0 04             	shl    $0x4,%eax
    d8d4:	c0 f8 04             	sar    $0x4,%al
    d8d7:	48 0f be c0          	movsbq %al,%rax
    d8db:	8b 55 fc             	mov    -0x4(%rbp),%edx
    d8de:	48 8d 35 c3 32 00 00 	lea    0x32c3(%rip),%rsi        # 10ba8 <g_1955+0x1ad0>
    d8e5:	48 89 c7             	mov    %rax,%rdi
    d8e8:	e8 06 7e ff ff       	callq  56f3 <transparent_crc>
    d8ed:	8b 45 f8             	mov    -0x8(%rbp),%eax
    d8f0:	48 63 f0             	movslq %eax,%rsi
    d8f3:	8b 45 f0             	mov    -0x10(%rbp),%eax
    d8f6:	48 98                	cltq   
    d8f8:	8b 55 f4             	mov    -0xc(%rbp),%edx
    d8fb:	48 63 ca             	movslq %edx,%rcx
    d8fe:	48 89 c2             	mov    %rax,%rdx
    d901:	48 c1 e2 02          	shl    $0x2,%rdx
    d905:	48 01 c2             	add    %rax,%rdx
    d908:	48 8d 04 d5 00 00 00 	lea    0x0(,%rdx,8),%rax
    d90f:	00 
    d910:	48 89 c2             	mov    %rax,%rdx
    d913:	48 89 c8             	mov    %rcx,%rax
    d916:	48 c1 e0 02          	shl    $0x2,%rax
    d91a:	48 01 c8             	add    %rcx,%rax
    d91d:	48 01 c0             	add    %rax,%rax
    d920:	48 01 d0             	add    %rdx,%rax
    d923:	48 01 f0             	add    %rsi,%rax
    d926:	48 c1 e0 04          	shl    $0x4,%rax
    d92a:	48 89 c2             	mov    %rax,%rdx
    d92d:	48 8d 05 4c 89 00 00 	lea    0x894c(%rip),%rax        # 16280 <g_1512>
    d934:	48 8b 04 02          	mov    (%rdx,%rax,1),%rax
    d938:	48 c1 e8 04          	shr    $0x4,%rax
    d93c:	66 25 ff 7f          	and    $0x7fff,%ax
    d940:	0f b7 c0             	movzwl %ax,%eax
    d943:	8b 55 fc             	mov    -0x4(%rbp),%edx
    d946:	48 8d 35 6e 32 00 00 	lea    0x326e(%rip),%rsi        # 10bbb <g_1955+0x1ae3>
    d94d:	48 89 c7             	mov    %rax,%rdi
    d950:	e8 9e 7d ff ff       	callq  56f3 <transparent_crc>
    d955:	8b 45 f8             	mov    -0x8(%rbp),%eax
    d958:	48 63 f0             	movslq %eax,%rsi
    d95b:	8b 45 f0             	mov    -0x10(%rbp),%eax
    d95e:	48 98                	cltq   
    d960:	8b 55 f4             	mov    -0xc(%rbp),%edx
    d963:	48 63 ca             	movslq %edx,%rcx
    d966:	48 89 c2             	mov    %rax,%rdx
    d969:	48 c1 e2 02          	shl    $0x2,%rdx
    d96d:	48 01 c2             	add    %rax,%rdx
    d970:	48 8d 04 d5 00 00 00 	lea    0x0(,%rdx,8),%rax
    d977:	00 
    d978:	48 89 c2             	mov    %rax,%rdx
    d97b:	48 89 c8             	mov    %rcx,%rax
    d97e:	48 c1 e0 02          	shl    $0x2,%rax
    d982:	48 01 c8             	add    %rcx,%rax
    d985:	48 01 c0             	add    %rax,%rax
    d988:	48 01 d0             	add    %rdx,%rax
    d98b:	48 01 f0             	add    %rsi,%rax
    d98e:	48 c1 e0 04          	shl    $0x4,%rax
    d992:	48 89 c2             	mov    %rax,%rdx
    d995:	48 8d 05 e4 88 00 00 	lea    0x88e4(%rip),%rax        # 16280 <g_1512>
    d99c:	48 8b 04 02          	mov    (%rdx,%rax,1),%rax
    d9a0:	48 c1 e0 0e          	shl    $0xe,%rax
    d9a4:	48 c1 f8 2e          	sar    $0x2e,%rax
    d9a8:	48 98                	cltq   
    d9aa:	8b 55 fc             	mov    -0x4(%rbp),%edx
    d9ad:	48 8d 35 1a 32 00 00 	lea    0x321a(%rip),%rsi        # 10bce <g_1955+0x1af6>
    d9b4:	48 89 c7             	mov    %rax,%rdi
    d9b7:	e8 37 7d ff ff       	callq  56f3 <transparent_crc>
    d9bc:	8b 45 f8             	mov    -0x8(%rbp),%eax
    d9bf:	48 63 f0             	movslq %eax,%rsi
    d9c2:	8b 45 f0             	mov    -0x10(%rbp),%eax
    d9c5:	48 98                	cltq   
    d9c7:	8b 55 f4             	mov    -0xc(%rbp),%edx
    d9ca:	48 63 ca             	movslq %edx,%rcx
    d9cd:	48 89 c2             	mov    %rax,%rdx
    d9d0:	48 c1 e2 02          	shl    $0x2,%rdx
    d9d4:	48 01 c2             	add    %rax,%rdx
    d9d7:	48 8d 04 d5 00 00 00 	lea    0x0(,%rdx,8),%rax
    d9de:	00 
    d9df:	48 89 c2             	mov    %rax,%rdx
    d9e2:	48 89 c8             	mov    %rcx,%rax
    d9e5:	48 c1 e0 02          	shl    $0x2,%rax
    d9e9:	48 01 c8             	add    %rcx,%rax
    d9ec:	48 01 c0             	add    %rax,%rax
    d9ef:	48 01 d0             	add    %rdx,%rax
    d9f2:	48 01 f0             	add    %rsi,%rax
    d9f5:	48 c1 e0 04          	shl    $0x4,%rax
    d9f9:	48 89 c2             	mov    %rax,%rdx
    d9fc:	48 8d 05 7d 88 00 00 	lea    0x887d(%rip),%rax        # 16280 <g_1512>
    da03:	48 8b 44 02 08       	mov    0x8(%rdx,%rax,1),%rax
    da08:	01 c0                	add    %eax,%eax
    da0a:	d1 f8                	sar    %eax
    da0c:	48 98                	cltq   
    da0e:	8b 55 fc             	mov    -0x4(%rbp),%edx
    da11:	48 8d 35 c9 31 00 00 	lea    0x31c9(%rip),%rsi        # 10be1 <g_1955+0x1b09>
    da18:	48 89 c7             	mov    %rax,%rdi
    da1b:	e8 d3 7c ff ff       	callq  56f3 <transparent_crc>
    da20:	8b 45 f8             	mov    -0x8(%rbp),%eax
    da23:	48 63 f0             	movslq %eax,%rsi
    da26:	8b 45 f0             	mov    -0x10(%rbp),%eax
    da29:	48 98                	cltq   
    da2b:	8b 55 f4             	mov    -0xc(%rbp),%edx
    da2e:	48 63 ca             	movslq %edx,%rcx
    da31:	48 89 c2             	mov    %rax,%rdx
    da34:	48 c1 e2 02          	shl    $0x2,%rdx
    da38:	48 01 c2             	add    %rax,%rdx
    da3b:	48 8d 04 d5 00 00 00 	lea    0x0(,%rdx,8),%rax
    da42:	00 
    da43:	48 89 c2             	mov    %rax,%rdx
    da46:	48 89 c8             	mov    %rcx,%rax
    da49:	48 c1 e0 02          	shl    $0x2,%rax
    da4d:	48 01 c8             	add    %rcx,%rax
    da50:	48 01 c0             	add    %rax,%rax
    da53:	48 01 d0             	add    %rdx,%rax
    da56:	48 01 f0             	add    %rsi,%rax
    da59:	48 c1 e0 04          	shl    $0x4,%rax
    da5d:	48 89 c2             	mov    %rax,%rdx
    da60:	48 8d 05 19 88 00 00 	lea    0x8819(%rip),%rax        # 16280 <g_1512>
    da67:	48 8b 44 02 08       	mov    0x8(%rdx,%rax,1),%rax
    da6c:	48 c1 e0 09          	shl    $0x9,%rax
    da70:	48 c1 f8 29          	sar    $0x29,%rax
    da74:	48 98                	cltq   
    da76:	8b 55 fc             	mov    -0x4(%rbp),%edx
    da79:	48 8d 35 74 31 00 00 	lea    0x3174(%rip),%rsi        # 10bf4 <g_1955+0x1b1c>
    da80:	48 89 c7             	mov    %rax,%rdi
    da83:	e8 6b 7c ff ff       	callq  56f3 <transparent_crc>
    da88:	8b 45 f8             	mov    -0x8(%rbp),%eax
    da8b:	48 63 f0             	movslq %eax,%rsi
    da8e:	8b 45 f0             	mov    -0x10(%rbp),%eax
    da91:	48 98                	cltq   
    da93:	8b 55 f4             	mov    -0xc(%rbp),%edx
    da96:	48 63 ca             	movslq %edx,%rcx
    da99:	48 89 c2             	mov    %rax,%rdx
    da9c:	48 c1 e2 02          	shl    $0x2,%rdx
    daa0:	48 01 c2             	add    %rax,%rdx
    daa3:	48 8d 04 d5 00 00 00 	lea    0x0(,%rdx,8),%rax
    daaa:	00 
    daab:	48 89 c2             	mov    %rax,%rdx
    daae:	48 89 c8             	mov    %rcx,%rax
    dab1:	48 c1 e0 02          	shl    $0x2,%rax
    dab5:	48 01 c8             	add    %rcx,%rax
    dab8:	48 01 c0             	add    %rax,%rax
    dabb:	48 01 d0             	add    %rdx,%rax
    dabe:	48 01 f0             	add    %rsi,%rax
    dac1:	48 c1 e0 04          	shl    $0x4,%rax
    dac5:	48 89 c2             	mov    %rax,%rdx
    dac8:	48 8d 05 b1 87 00 00 	lea    0x87b1(%rip),%rax        # 16280 <g_1512>
    dacf:	48 8b 44 02 08       	mov    0x8(%rdx,%rax,1),%rax
    dad4:	48 c1 e8 37          	shr    $0x37,%rax
    dad8:	83 e0 03             	and    $0x3,%eax
    dadb:	0f b6 c0             	movzbl %al,%eax
    dade:	8b 55 fc             	mov    -0x4(%rbp),%edx
    dae1:	48 8d 35 1f 31 00 00 	lea    0x311f(%rip),%rsi        # 10c07 <g_1955+0x1b2f>
    dae8:	48 89 c7             	mov    %rax,%rdi
    daeb:	e8 03 7c ff ff       	callq  56f3 <transparent_crc>
    daf0:	83 7d fc 00          	cmpl   $0x0,-0x4(%rbp)
    daf4:	74 1c                	je     db12 <main+0x2df0>
    daf6:	8b 4d f8             	mov    -0x8(%rbp),%ecx
    daf9:	8b 55 f4             	mov    -0xc(%rbp),%edx
    dafc:	8b 45 f0             	mov    -0x10(%rbp),%eax
    daff:	89 c6                	mov    %eax,%esi
    db01:	48 8d 3d b1 27 00 00 	lea    0x27b1(%rip),%rdi        # 102b9 <g_1955+0x11e1>
    db08:	b8 00 00 00 00       	mov    $0x0,%eax
    db0d:	e8 6e 65 ff ff       	callq  4080 <printf@plt>
    db12:	83 45 f8 01          	addl   $0x1,-0x8(%rbp)
    db16:	83 7d f8 09          	cmpl   $0x9,-0x8(%rbp)
    db1a:	0f 8e 66 fd ff ff    	jle    d886 <main+0x2b64>
    db20:	83 45 f4 01          	addl   $0x1,-0xc(%rbp)
    db24:	83 7d f4 03          	cmpl   $0x3,-0xc(%rbp)
    db28:	0f 8e 4c fd ff ff    	jle    d87a <main+0x2b58>
    db2e:	83 45 f0 01          	addl   $0x1,-0x10(%rbp)
    db32:	83 7d f0 03          	cmpl   $0x3,-0x10(%rbp)
    db36:	0f 8e 32 fd ff ff    	jle    d86e <main+0x2b4c>
    db3c:	8b 05 3e 91 00 00    	mov    0x913e(%rip),%eax        # 16c80 <g_1518>
    db42:	48 98                	cltq   
    db44:	8b 55 fc             	mov    -0x4(%rbp),%edx
    db47:	48 8d 35 cc 30 00 00 	lea    0x30cc(%rip),%rsi        # 10c1a <g_1955+0x1b42>
    db4e:	48 89 c7             	mov    %rax,%rdi
    db51:	e8 9d 7b ff ff       	callq  56f3 <transparent_crc>
    db56:	0f b7 05 27 91 00 00 	movzwl 0x9127(%rip),%eax        # 16c84 <g_1518+0x4>
    db5d:	0f b7 c0             	movzwl %ax,%eax
    db60:	8b 55 fc             	mov    -0x4(%rbp),%edx
    db63:	48 8d 35 ba 30 00 00 	lea    0x30ba(%rip),%rsi        # 10c24 <g_1955+0x1b4c>
    db6a:	48 89 c7             	mov    %rax,%rdi
    db6d:	e8 81 7b ff ff       	callq  56f3 <transparent_crc>
    db72:	0f b7 05 0d 91 00 00 	movzwl 0x910d(%rip),%eax        # 16c86 <g_1518+0x6>
    db79:	0f b7 c0             	movzwl %ax,%eax
    db7c:	8b 55 fc             	mov    -0x4(%rbp),%edx
    db7f:	48 8d 35 a8 30 00 00 	lea    0x30a8(%rip),%rsi        # 10c2e <g_1955+0x1b56>
    db86:	48 89 c7             	mov    %rax,%rdi
    db89:	e8 65 7b ff ff       	callq  56f3 <transparent_crc>
    db8e:	0f b7 05 f3 90 00 00 	movzwl 0x90f3(%rip),%eax        # 16c88 <g_1518+0x8>
    db95:	0f b7 c0             	movzwl %ax,%eax
    db98:	8b 55 fc             	mov    -0x4(%rbp),%edx
    db9b:	48 8d 35 96 30 00 00 	lea    0x3096(%rip),%rsi        # 10c38 <g_1955+0x1b60>
    dba2:	48 89 c7             	mov    %rax,%rdi
    dba5:	e8 49 7b ff ff       	callq  56f3 <transparent_crc>
    dbaa:	8b 05 da 90 00 00    	mov    0x90da(%rip),%eax        # 16c8a <g_1518+0xa>
    dbb0:	89 c1                	mov    %eax,%ecx
    dbb2:	8b 45 fc             	mov    -0x4(%rbp),%eax
    dbb5:	89 c2                	mov    %eax,%edx
    dbb7:	48 8d 35 84 30 00 00 	lea    0x3084(%rip),%rsi        # 10c42 <g_1955+0x1b6a>
    dbbe:	48 89 cf             	mov    %rcx,%rdi
    dbc1:	e8 2d 7b ff ff       	callq  56f3 <transparent_crc>
    dbc6:	8b 05 c2 90 00 00    	mov    0x90c2(%rip),%eax        # 16c8e <g_1518+0xe>
    dbcc:	89 c1                	mov    %eax,%ecx
    dbce:	8b 45 fc             	mov    -0x4(%rbp),%eax
    dbd1:	89 c2                	mov    %eax,%edx
    dbd3:	48 8d 35 72 30 00 00 	lea    0x3072(%rip),%rsi        # 10c4c <g_1955+0x1b74>
    dbda:	48 89 cf             	mov    %rcx,%rdi
    dbdd:	e8 11 7b ff ff       	callq  56f3 <transparent_crc>
    dbe2:	48 8b 05 a9 90 00 00 	mov    0x90a9(%rip),%rax        # 16c92 <g_1518+0x12>
    dbe9:	48 89 c1             	mov    %rax,%rcx
    dbec:	8b 45 fc             	mov    -0x4(%rbp),%eax
    dbef:	89 c2                	mov    %eax,%edx
    dbf1:	48 8d 35 5e 30 00 00 	lea    0x305e(%rip),%rsi        # 10c56 <g_1955+0x1b7e>
    dbf8:	48 89 cf             	mov    %rcx,%rdi
    dbfb:	e8 f3 7a ff ff       	callq  56f3 <transparent_crc>
    dc00:	8b 05 94 90 00 00    	mov    0x9094(%rip),%eax        # 16c9a <g_1518+0x1a>
    dc06:	48 98                	cltq   
    dc08:	8b 55 fc             	mov    -0x4(%rbp),%edx
    dc0b:	48 8d 35 4e 30 00 00 	lea    0x304e(%rip),%rsi        # 10c60 <g_1955+0x1b88>
    dc12:	48 89 c7             	mov    %rax,%rdi
    dc15:	e8 d9 7a ff ff       	callq  56f3 <transparent_crc>
    dc1a:	48 8b 05 7d 90 00 00 	mov    0x907d(%rip),%rax        # 16c9e <g_1518+0x1e>
    dc21:	8b 55 fc             	mov    -0x4(%rbp),%edx
    dc24:	48 8d 35 3f 30 00 00 	lea    0x303f(%rip),%rsi        # 10c6a <g_1955+0x1b92>
    dc2b:	48 89 c7             	mov    %rax,%rdi
    dc2e:	e8 c0 7a ff ff       	callq  56f3 <transparent_crc>
    dc33:	0f b7 05 6c 90 00 00 	movzwl 0x906c(%rip),%eax        # 16ca6 <g_1566>
    dc3a:	0f b7 c0             	movzwl %ax,%eax
    dc3d:	8b 55 fc             	mov    -0x4(%rbp),%edx
    dc40:	48 8d 35 2d 30 00 00 	lea    0x302d(%rip),%rsi        # 10c74 <g_1955+0x1b9c>
    dc47:	48 89 c7             	mov    %rax,%rdi
    dc4a:	e8 a4 7a ff ff       	callq  56f3 <transparent_crc>
    dc4f:	48 8b 05 6a 14 00 00 	mov    0x146a(%rip),%rax        # f0c0 <g_1586>
    dc56:	c1 e0 04             	shl    $0x4,%eax
    dc59:	c0 f8 04             	sar    $0x4,%al
    dc5c:	48 0f be c0          	movsbq %al,%rax
    dc60:	8b 55 fc             	mov    -0x4(%rbp),%edx
    dc63:	48 8d 35 11 30 00 00 	lea    0x3011(%rip),%rsi        # 10c7b <g_1955+0x1ba3>
    dc6a:	48 89 c7             	mov    %rax,%rdi
    dc6d:	e8 81 7a ff ff       	callq  56f3 <transparent_crc>
    dc72:	b8 1a 00 00 00       	mov    $0x1a,%eax
    dc77:	0f b7 c0             	movzwl %ax,%eax
    dc7a:	8b 55 fc             	mov    -0x4(%rbp),%edx
    dc7d:	48 8d 35 01 30 00 00 	lea    0x3001(%rip),%rsi        # 10c85 <g_1955+0x1bad>
    dc84:	48 89 c7             	mov    %rax,%rdi
    dc87:	e8 67 7a ff ff       	callq  56f3 <transparent_crc>
    dc8c:	b8 14 00 00 00       	mov    $0x14,%eax
    dc91:	48 98                	cltq   
    dc93:	8b 55 fc             	mov    -0x4(%rbp),%edx
    dc96:	48 8d 35 f2 2f 00 00 	lea    0x2ff2(%rip),%rsi        # 10c8f <g_1955+0x1bb7>
    dc9d:	48 89 c7             	mov    %rax,%rdi
    dca0:	e8 4e 7a ff ff       	callq  56f3 <transparent_crc>
    dca5:	b8 6a 04 00 00       	mov    $0x46a,%eax
    dcaa:	48 98                	cltq   
    dcac:	8b 55 fc             	mov    -0x4(%rbp),%edx
    dcaf:	48 8d 35 e3 2f 00 00 	lea    0x2fe3(%rip),%rsi        # 10c99 <g_1955+0x1bc1>
    dcb6:	48 89 c7             	mov    %rax,%rdi
    dcb9:	e8 35 7a ff ff       	callq  56f3 <transparent_crc>
    dcbe:	b8 d5 fb ff ff       	mov    $0xfffffbd5,%eax
    dcc3:	48 98                	cltq   
    dcc5:	8b 55 fc             	mov    -0x4(%rbp),%edx
    dcc8:	48 8d 35 d4 2f 00 00 	lea    0x2fd4(%rip),%rsi        # 10ca3 <g_1955+0x1bcb>
    dccf:	48 89 c7             	mov    %rax,%rdi
    dcd2:	e8 1c 7a ff ff       	callq  56f3 <transparent_crc>
    dcd7:	48 8b 05 ea 13 00 00 	mov    0x13ea(%rip),%rax        # f0c8 <g_1586+0x8>
    dcde:	48 c1 e8 37          	shr    $0x37,%rax
    dce2:	83 e0 03             	and    $0x3,%eax
    dce5:	0f b6 c0             	movzbl %al,%eax
    dce8:	8b 55 fc             	mov    -0x4(%rbp),%edx
    dceb:	48 8d 35 bb 2f 00 00 	lea    0x2fbb(%rip),%rsi        # 10cad <g_1955+0x1bd5>
    dcf2:	48 89 c7             	mov    %rax,%rdi
    dcf5:	e8 f9 79 ff ff       	callq  56f3 <transparent_crc>
    dcfa:	8b 05 a8 8f 00 00    	mov    0x8fa8(%rip),%eax        # 16ca8 <g_1600>
    dd00:	89 c1                	mov    %eax,%ecx
    dd02:	8b 45 fc             	mov    -0x4(%rbp),%eax
    dd05:	89 c2                	mov    %eax,%edx
    dd07:	48 8d 35 a9 2f 00 00 	lea    0x2fa9(%rip),%rsi        # 10cb7 <g_1955+0x1bdf>
    dd0e:	48 89 cf             	mov    %rcx,%rdi
    dd11:	e8 dd 79 ff ff       	callq  56f3 <transparent_crc>
    dd16:	48 8b 05 93 8f 00 00 	mov    0x8f93(%rip),%rax        # 16cb0 <g_1646>
    dd1d:	c1 e0 04             	shl    $0x4,%eax
    dd20:	c0 f8 04             	sar    $0x4,%al
    dd23:	48 0f be c0          	movsbq %al,%rax
    dd27:	8b 55 fc             	mov    -0x4(%rbp),%edx
    dd2a:	48 8d 35 8d 2f 00 00 	lea    0x2f8d(%rip),%rsi        # 10cbe <g_1955+0x1be6>
    dd31:	48 89 c7             	mov    %rax,%rdi
    dd34:	e8 ba 79 ff ff       	callq  56f3 <transparent_crc>
    dd39:	8b 05 71 8f 00 00    	mov    0x8f71(%rip),%eax        # 16cb0 <g_1646>
    dd3f:	c1 e8 04             	shr    $0x4,%eax
    dd42:	66 25 ff 7f          	and    $0x7fff,%ax
    dd46:	0f b7 c0             	movzwl %ax,%eax
    dd49:	8b 55 fc             	mov    -0x4(%rbp),%edx
    dd4c:	48 8d 35 75 2f 00 00 	lea    0x2f75(%rip),%rsi        # 10cc8 <g_1955+0x1bf0>
    dd53:	48 89 c7             	mov    %rax,%rdi
    dd56:	e8 98 79 ff ff       	callq  56f3 <transparent_crc>
    dd5b:	8b 05 53 8f 00 00    	mov    0x8f53(%rip),%eax        # 16cb4 <g_1646+0x4>
    dd61:	c1 e0 0e             	shl    $0xe,%eax
    dd64:	c1 f8 0e             	sar    $0xe,%eax
    dd67:	48 98                	cltq   
    dd69:	8b 55 fc             	mov    -0x4(%rbp),%edx
    dd6c:	48 8d 35 5f 2f 00 00 	lea    0x2f5f(%rip),%rsi        # 10cd2 <g_1955+0x1bfa>
    dd73:	48 89 c7             	mov    %rax,%rdi
    dd76:	e8 78 79 ff ff       	callq  56f3 <transparent_crc>
    dd7b:	8b 05 37 8f 00 00    	mov    0x8f37(%rip),%eax        # 16cb8 <g_1646+0x8>
    dd81:	01 c0                	add    %eax,%eax
    dd83:	d1 f8                	sar    %eax
    dd85:	48 98                	cltq   
    dd87:	8b 55 fc             	mov    -0x4(%rbp),%edx
    dd8a:	48 8d 35 4b 2f 00 00 	lea    0x2f4b(%rip),%rsi        # 10cdc <g_1955+0x1c04>
    dd91:	48 89 c7             	mov    %rax,%rdi
    dd94:	e8 5a 79 ff ff       	callq  56f3 <transparent_crc>
    dd99:	8b 05 1d 8f 00 00    	mov    0x8f1d(%rip),%eax        # 16cbc <g_1646+0xc>
    dd9f:	c1 e0 09             	shl    $0x9,%eax
    dda2:	c1 f8 09             	sar    $0x9,%eax
    dda5:	48 98                	cltq   
    dda7:	8b 55 fc             	mov    -0x4(%rbp),%edx
    ddaa:	48 8d 35 35 2f 00 00 	lea    0x2f35(%rip),%rsi        # 10ce6 <g_1955+0x1c0e>
    ddb1:	48 89 c7             	mov    %rax,%rdi
    ddb4:	e8 3a 79 ff ff       	callq  56f3 <transparent_crc>
    ddb9:	48 8b 05 f8 8e 00 00 	mov    0x8ef8(%rip),%rax        # 16cb8 <g_1646+0x8>
    ddc0:	48 c1 e8 37          	shr    $0x37,%rax
    ddc4:	83 e0 03             	and    $0x3,%eax
    ddc7:	0f b6 c0             	movzbl %al,%eax
    ddca:	8b 55 fc             	mov    -0x4(%rbp),%edx
    ddcd:	48 8d 35 1c 2f 00 00 	lea    0x2f1c(%rip),%rsi        # 10cf0 <g_1955+0x1c18>
    ddd4:	48 89 c7             	mov    %rax,%rdi
    ddd7:	e8 17 79 ff ff       	callq  56f3 <transparent_crc>
    dddc:	8b 05 de 8e 00 00    	mov    0x8ede(%rip),%eax        # 16cc0 <g_1662>
    dde2:	48 98                	cltq   
    dde4:	8b 55 fc             	mov    -0x4(%rbp),%edx
    dde7:	48 8d 35 0c 2f 00 00 	lea    0x2f0c(%rip),%rsi        # 10cfa <g_1955+0x1c22>
    ddee:	48 89 c7             	mov    %rax,%rdi
    ddf1:	e8 fd 78 ff ff       	callq  56f3 <transparent_crc>
    ddf6:	0f b7 05 c7 8e 00 00 	movzwl 0x8ec7(%rip),%eax        # 16cc4 <g_1662+0x4>
    ddfd:	0f b7 c0             	movzwl %ax,%eax
    de00:	8b 55 fc             	mov    -0x4(%rbp),%edx
    de03:	48 8d 35 fa 2e 00 00 	lea    0x2efa(%rip),%rsi        # 10d04 <g_1955+0x1c2c>
    de0a:	48 89 c7             	mov    %rax,%rdi
    de0d:	e8 e1 78 ff ff       	callq  56f3 <transparent_crc>
    de12:	0f b7 05 ad 8e 00 00 	movzwl 0x8ead(%rip),%eax        # 16cc6 <g_1662+0x6>
    de19:	0f b7 c0             	movzwl %ax,%eax
    de1c:	8b 55 fc             	mov    -0x4(%rbp),%edx
    de1f:	48 8d 35 e8 2e 00 00 	lea    0x2ee8(%rip),%rsi        # 10d0e <g_1955+0x1c36>
    de26:	48 89 c7             	mov    %rax,%rdi
    de29:	e8 c5 78 ff ff       	callq  56f3 <transparent_crc>
    de2e:	0f b7 05 93 8e 00 00 	movzwl 0x8e93(%rip),%eax        # 16cc8 <g_1662+0x8>
    de35:	0f b7 c0             	movzwl %ax,%eax
    de38:	8b 55 fc             	mov    -0x4(%rbp),%edx
    de3b:	48 8d 35 d6 2e 00 00 	lea    0x2ed6(%rip),%rsi        # 10d18 <g_1955+0x1c40>
    de42:	48 89 c7             	mov    %rax,%rdi
    de45:	e8 a9 78 ff ff       	callq  56f3 <transparent_crc>
    de4a:	8b 05 7a 8e 00 00    	mov    0x8e7a(%rip),%eax        # 16cca <g_1662+0xa>
    de50:	89 c1                	mov    %eax,%ecx
    de52:	8b 45 fc             	mov    -0x4(%rbp),%eax
    de55:	89 c2                	mov    %eax,%edx
    de57:	48 8d 35 c4 2e 00 00 	lea    0x2ec4(%rip),%rsi        # 10d22 <g_1955+0x1c4a>
    de5e:	48 89 cf             	mov    %rcx,%rdi
    de61:	e8 8d 78 ff ff       	callq  56f3 <transparent_crc>
    de66:	8b 05 62 8e 00 00    	mov    0x8e62(%rip),%eax        # 16cce <g_1662+0xe>
    de6c:	89 c1                	mov    %eax,%ecx
    de6e:	8b 45 fc             	mov    -0x4(%rbp),%eax
    de71:	89 c2                	mov    %eax,%edx
    de73:	48 8d 35 b2 2e 00 00 	lea    0x2eb2(%rip),%rsi        # 10d2c <g_1955+0x1c54>
    de7a:	48 89 cf             	mov    %rcx,%rdi
    de7d:	e8 71 78 ff ff       	callq  56f3 <transparent_crc>
    de82:	48 8b 05 49 8e 00 00 	mov    0x8e49(%rip),%rax        # 16cd2 <g_1662+0x12>
    de89:	48 89 c1             	mov    %rax,%rcx
    de8c:	8b 45 fc             	mov    -0x4(%rbp),%eax
    de8f:	89 c2                	mov    %eax,%edx
    de91:	48 8d 35 9e 2e 00 00 	lea    0x2e9e(%rip),%rsi        # 10d36 <g_1955+0x1c5e>
    de98:	48 89 cf             	mov    %rcx,%rdi
    de9b:	e8 53 78 ff ff       	callq  56f3 <transparent_crc>
    dea0:	8b 05 34 8e 00 00    	mov    0x8e34(%rip),%eax        # 16cda <g_1662+0x1a>
    dea6:	48 98                	cltq   
    dea8:	8b 55 fc             	mov    -0x4(%rbp),%edx
    deab:	48 8d 35 8e 2e 00 00 	lea    0x2e8e(%rip),%rsi        # 10d40 <g_1955+0x1c68>
    deb2:	48 89 c7             	mov    %rax,%rdi
    deb5:	e8 39 78 ff ff       	callq  56f3 <transparent_crc>
    deba:	48 8b 05 1d 8e 00 00 	mov    0x8e1d(%rip),%rax        # 16cde <g_1662+0x1e>
    dec1:	8b 55 fc             	mov    -0x4(%rbp),%edx
    dec4:	48 8d 35 7f 2e 00 00 	lea    0x2e7f(%rip),%rsi        # 10d4a <g_1955+0x1c72>
    decb:	48 89 c7             	mov    %rax,%rdi
    dece:	e8 20 78 ff ff       	callq  56f3 <transparent_crc>
    ded3:	48 8b 05 0e 8e 00 00 	mov    0x8e0e(%rip),%rax        # 16ce8 <g_1692>
    deda:	48 89 c1             	mov    %rax,%rcx
    dedd:	8b 45 fc             	mov    -0x4(%rbp),%eax
    dee0:	89 c2                	mov    %eax,%edx
    dee2:	48 8d 35 6b 2e 00 00 	lea    0x2e6b(%rip),%rsi        # 10d54 <g_1955+0x1c7c>
    dee9:	48 89 cf             	mov    %rcx,%rdi
    deec:	e8 02 78 ff ff       	callq  56f3 <transparent_crc>
    def1:	8b 05 f9 8d 00 00    	mov    0x8df9(%rip),%eax        # 16cf0 <g_1720>
    def7:	48 98                	cltq   
    def9:	8b 55 fc             	mov    -0x4(%rbp),%edx
    defc:	48 8d 35 58 2e 00 00 	lea    0x2e58(%rip),%rsi        # 10d5b <g_1955+0x1c83>
    df03:	48 89 c7             	mov    %rax,%rdi
    df06:	e8 e8 77 ff ff       	callq  56f3 <transparent_crc>
    df0b:	c7 45 f0 00 00 00 00 	movl   $0x0,-0x10(%rbp)
    df12:	e9 d0 00 00 00       	jmpq   dfe7 <main+0x32c5>
    df17:	8b 45 f0             	mov    -0x10(%rbp),%eax
    df1a:	48 98                	cltq   
    df1c:	48 c1 e0 04          	shl    $0x4,%rax
    df20:	48 89 c2             	mov    %rax,%rdx
    df23:	48 8d 05 d6 8d 00 00 	lea    0x8dd6(%rip),%rax        # 16d00 <g_1737>
    df2a:	8b 04 02             	mov    (%rdx,%rax,1),%eax
    df2d:	89 c1                	mov    %eax,%ecx
    df2f:	8b 45 fc             	mov    -0x4(%rbp),%eax
    df32:	89 c2                	mov    %eax,%edx
    df34:	48 8d 35 27 2e 00 00 	lea    0x2e27(%rip),%rsi        # 10d62 <g_1955+0x1c8a>
    df3b:	48 89 cf             	mov    %rcx,%rdi
    df3e:	e8 b0 77 ff ff       	callq  56f3 <transparent_crc>
    df43:	8b 45 f0             	mov    -0x10(%rbp),%eax
    df46:	48 98                	cltq   
    df48:	48 c1 e0 04          	shl    $0x4,%rax
    df4c:	48 89 c2             	mov    %rax,%rdx
    df4f:	48 8d 05 ae 8d 00 00 	lea    0x8dae(%rip),%rax        # 16d04 <g_1737+0x4>
    df56:	0f b6 04 02          	movzbl (%rdx,%rax,1),%eax
    df5a:	0f b6 c0             	movzbl %al,%eax
    df5d:	8b 55 fc             	mov    -0x4(%rbp),%edx
    df60:	48 8d 35 08 2e 00 00 	lea    0x2e08(%rip),%rsi        # 10d6f <g_1955+0x1c97>
    df67:	48 89 c7             	mov    %rax,%rdi
    df6a:	e8 84 77 ff ff       	callq  56f3 <transparent_crc>
    df6f:	8b 45 f0             	mov    -0x10(%rbp),%eax
    df72:	48 98                	cltq   
    df74:	48 c1 e0 04          	shl    $0x4,%rax
    df78:	48 89 c2             	mov    %rax,%rdx
    df7b:	48 8d 05 86 8d 00 00 	lea    0x8d86(%rip),%rax        # 16d08 <g_1737+0x8>
    df82:	8b 04 02             	mov    (%rdx,%rax,1),%eax
    df85:	89 c1                	mov    %eax,%ecx
    df87:	8b 45 fc             	mov    -0x4(%rbp),%eax
    df8a:	89 c2                	mov    %eax,%edx
    df8c:	48 8d 35 e9 2d 00 00 	lea    0x2de9(%rip),%rsi        # 10d7c <g_1955+0x1ca4>
    df93:	48 89 cf             	mov    %rcx,%rdi
    df96:	e8 58 77 ff ff       	callq  56f3 <transparent_crc>
    df9b:	8b 45 f0             	mov    -0x10(%rbp),%eax
    df9e:	48 98                	cltq   
    dfa0:	48 c1 e0 04          	shl    $0x4,%rax
    dfa4:	48 89 c2             	mov    %rax,%rdx
    dfa7:	48 8d 05 5e 8d 00 00 	lea    0x8d5e(%rip),%rax        # 16d0c <g_1737+0xc>
    dfae:	8b 04 02             	mov    (%rdx,%rax,1),%eax
    dfb1:	89 c1                	mov    %eax,%ecx
    dfb3:	8b 45 fc             	mov    -0x4(%rbp),%eax
    dfb6:	89 c2                	mov    %eax,%edx
    dfb8:	48 8d 35 ca 2d 00 00 	lea    0x2dca(%rip),%rsi        # 10d89 <g_1955+0x1cb1>
    dfbf:	48 89 cf             	mov    %rcx,%rdi
    dfc2:	e8 2c 77 ff ff       	callq  56f3 <transparent_crc>
    dfc7:	83 7d fc 00          	cmpl   $0x0,-0x4(%rbp)
    dfcb:	74 16                	je     dfe3 <main+0x32c1>
    dfcd:	8b 45 f0             	mov    -0x10(%rbp),%eax
    dfd0:	89 c6                	mov    %eax,%esi
    dfd2:	48 8d 3d 11 23 00 00 	lea    0x2311(%rip),%rdi        # 102ea <g_1955+0x1212>
    dfd9:	b8 00 00 00 00       	mov    $0x0,%eax
    dfde:	e8 9d 60 ff ff       	callq  4080 <printf@plt>
    dfe3:	83 45 f0 01          	addl   $0x1,-0x10(%rbp)
    dfe7:	83 7d f0 03          	cmpl   $0x3,-0x10(%rbp)
    dfeb:	0f 8e 26 ff ff ff    	jle    df17 <main+0x31f5>
    dff1:	8b 05 49 8d 00 00    	mov    0x8d49(%rip),%eax        # 16d40 <g_1759>
    dff7:	48 98                	cltq   
    dff9:	8b 55 fc             	mov    -0x4(%rbp),%edx
    dffc:	48 8d 35 93 2d 00 00 	lea    0x2d93(%rip),%rsi        # 10d96 <g_1955+0x1cbe>
    e003:	48 89 c7             	mov    %rax,%rdi
    e006:	e8 e8 76 ff ff       	callq  56f3 <transparent_crc>
    e00b:	0f b7 05 32 8d 00 00 	movzwl 0x8d32(%rip),%eax        # 16d44 <g_1759+0x4>
    e012:	0f b7 c0             	movzwl %ax,%eax
    e015:	8b 55 fc             	mov    -0x4(%rbp),%edx
    e018:	48 8d 35 81 2d 00 00 	lea    0x2d81(%rip),%rsi        # 10da0 <g_1955+0x1cc8>
    e01f:	48 89 c7             	mov    %rax,%rdi
    e022:	e8 cc 76 ff ff       	callq  56f3 <transparent_crc>
    e027:	0f b7 05 18 8d 00 00 	movzwl 0x8d18(%rip),%eax        # 16d46 <g_1759+0x6>
    e02e:	0f b7 c0             	movzwl %ax,%eax
    e031:	8b 55 fc             	mov    -0x4(%rbp),%edx
    e034:	48 8d 35 6f 2d 00 00 	lea    0x2d6f(%rip),%rsi        # 10daa <g_1955+0x1cd2>
    e03b:	48 89 c7             	mov    %rax,%rdi
    e03e:	e8 b0 76 ff ff       	callq  56f3 <transparent_crc>
    e043:	0f b7 05 fe 8c 00 00 	movzwl 0x8cfe(%rip),%eax        # 16d48 <g_1759+0x8>
    e04a:	0f b7 c0             	movzwl %ax,%eax
    e04d:	8b 55 fc             	mov    -0x4(%rbp),%edx
    e050:	48 8d 35 5d 2d 00 00 	lea    0x2d5d(%rip),%rsi        # 10db4 <g_1955+0x1cdc>
    e057:	48 89 c7             	mov    %rax,%rdi
    e05a:	e8 94 76 ff ff       	callq  56f3 <transparent_crc>
    e05f:	8b 05 e5 8c 00 00    	mov    0x8ce5(%rip),%eax        # 16d4a <g_1759+0xa>
    e065:	89 c1                	mov    %eax,%ecx
    e067:	8b 45 fc             	mov    -0x4(%rbp),%eax
    e06a:	89 c2                	mov    %eax,%edx
    e06c:	48 8d 35 4b 2d 00 00 	lea    0x2d4b(%rip),%rsi        # 10dbe <g_1955+0x1ce6>
    e073:	48 89 cf             	mov    %rcx,%rdi
    e076:	e8 78 76 ff ff       	callq  56f3 <transparent_crc>
    e07b:	8b 05 cd 8c 00 00    	mov    0x8ccd(%rip),%eax        # 16d4e <g_1759+0xe>
    e081:	89 c1                	mov    %eax,%ecx
    e083:	8b 45 fc             	mov    -0x4(%rbp),%eax
    e086:	89 c2                	mov    %eax,%edx
    e088:	48 8d 35 39 2d 00 00 	lea    0x2d39(%rip),%rsi        # 10dc8 <g_1955+0x1cf0>
    e08f:	48 89 cf             	mov    %rcx,%rdi
    e092:	e8 5c 76 ff ff       	callq  56f3 <transparent_crc>
    e097:	48 8b 05 b4 8c 00 00 	mov    0x8cb4(%rip),%rax        # 16d52 <g_1759+0x12>
    e09e:	48 89 c1             	mov    %rax,%rcx
    e0a1:	8b 45 fc             	mov    -0x4(%rbp),%eax
    e0a4:	89 c2                	mov    %eax,%edx
    e0a6:	48 8d 35 25 2d 00 00 	lea    0x2d25(%rip),%rsi        # 10dd2 <g_1955+0x1cfa>
    e0ad:	48 89 cf             	mov    %rcx,%rdi
    e0b0:	e8 3e 76 ff ff       	callq  56f3 <transparent_crc>
    e0b5:	8b 05 9f 8c 00 00    	mov    0x8c9f(%rip),%eax        # 16d5a <g_1759+0x1a>
    e0bb:	48 98                	cltq   
    e0bd:	8b 55 fc             	mov    -0x4(%rbp),%edx
    e0c0:	48 8d 35 15 2d 00 00 	lea    0x2d15(%rip),%rsi        # 10ddc <g_1955+0x1d04>
    e0c7:	48 89 c7             	mov    %rax,%rdi
    e0ca:	e8 24 76 ff ff       	callq  56f3 <transparent_crc>
    e0cf:	48 8b 05 88 8c 00 00 	mov    0x8c88(%rip),%rax        # 16d5e <g_1759+0x1e>
    e0d6:	8b 55 fc             	mov    -0x4(%rbp),%edx
    e0d9:	48 8d 35 06 2d 00 00 	lea    0x2d06(%rip),%rsi        # 10de6 <g_1955+0x1d0e>
    e0e0:	48 89 c7             	mov    %rax,%rdi
    e0e3:	e8 0b 76 ff ff       	callq  56f3 <transparent_crc>
    e0e8:	0f b7 05 77 8c 00 00 	movzwl 0x8c77(%rip),%eax        # 16d66 <g_1803>
    e0ef:	48 0f bf c0          	movswq %ax,%rax
    e0f3:	8b 55 fc             	mov    -0x4(%rbp),%edx
    e0f6:	48 8d 35 f3 2c 00 00 	lea    0x2cf3(%rip),%rsi        # 10df0 <g_1955+0x1d18>
    e0fd:	48 89 c7             	mov    %rax,%rdi
    e100:	e8 ee 75 ff ff       	callq  56f3 <transparent_crc>
    e105:	c7 45 f0 00 00 00 00 	movl   $0x0,-0x10(%rbp)
    e10c:	e9 d0 00 00 00       	jmpq   e1e1 <main+0x34bf>
    e111:	8b 45 f0             	mov    -0x10(%rbp),%eax
    e114:	48 98                	cltq   
    e116:	48 c1 e0 04          	shl    $0x4,%rax
    e11a:	48 89 c2             	mov    %rax,%rdx
    e11d:	48 8d 05 5c 8c 00 00 	lea    0x8c5c(%rip),%rax        # 16d80 <g_1846>
    e124:	8b 04 02             	mov    (%rdx,%rax,1),%eax
    e127:	89 c1                	mov    %eax,%ecx
    e129:	8b 45 fc             	mov    -0x4(%rbp),%eax
    e12c:	89 c2                	mov    %eax,%edx
    e12e:	48 8d 35 c2 2c 00 00 	lea    0x2cc2(%rip),%rsi        # 10df7 <g_1955+0x1d1f>
    e135:	48 89 cf             	mov    %rcx,%rdi
    e138:	e8 b6 75 ff ff       	callq  56f3 <transparent_crc>
    e13d:	8b 45 f0             	mov    -0x10(%rbp),%eax
    e140:	48 98                	cltq   
    e142:	48 c1 e0 04          	shl    $0x4,%rax
    e146:	48 89 c2             	mov    %rax,%rdx
    e149:	48 8d 05 34 8c 00 00 	lea    0x8c34(%rip),%rax        # 16d84 <g_1846+0x4>
    e150:	0f b6 04 02          	movzbl (%rdx,%rax,1),%eax
    e154:	0f b6 c0             	movzbl %al,%eax
    e157:	8b 55 fc             	mov    -0x4(%rbp),%edx
    e15a:	48 8d 35 a3 2c 00 00 	lea    0x2ca3(%rip),%rsi        # 10e04 <g_1955+0x1d2c>
    e161:	48 89 c7             	mov    %rax,%rdi
    e164:	e8 8a 75 ff ff       	callq  56f3 <transparent_crc>
    e169:	8b 45 f0             	mov    -0x10(%rbp),%eax
    e16c:	48 98                	cltq   
    e16e:	48 c1 e0 04          	shl    $0x4,%rax
    e172:	48 89 c2             	mov    %rax,%rdx
    e175:	48 8d 05 0c 8c 00 00 	lea    0x8c0c(%rip),%rax        # 16d88 <g_1846+0x8>
    e17c:	8b 04 02             	mov    (%rdx,%rax,1),%eax
    e17f:	89 c1                	mov    %eax,%ecx
    e181:	8b 45 fc             	mov    -0x4(%rbp),%eax
    e184:	89 c2                	mov    %eax,%edx
    e186:	48 8d 35 84 2c 00 00 	lea    0x2c84(%rip),%rsi        # 10e11 <g_1955+0x1d39>
    e18d:	48 89 cf             	mov    %rcx,%rdi
    e190:	e8 5e 75 ff ff       	callq  56f3 <transparent_crc>
    e195:	8b 45 f0             	mov    -0x10(%rbp),%eax
    e198:	48 98                	cltq   
    e19a:	48 c1 e0 04          	shl    $0x4,%rax
    e19e:	48 89 c2             	mov    %rax,%rdx
    e1a1:	48 8d 05 e4 8b 00 00 	lea    0x8be4(%rip),%rax        # 16d8c <g_1846+0xc>
    e1a8:	8b 04 02             	mov    (%rdx,%rax,1),%eax
    e1ab:	89 c1                	mov    %eax,%ecx
    e1ad:	8b 45 fc             	mov    -0x4(%rbp),%eax
    e1b0:	89 c2                	mov    %eax,%edx
    e1b2:	48 8d 35 65 2c 00 00 	lea    0x2c65(%rip),%rsi        # 10e1e <g_1955+0x1d46>
    e1b9:	48 89 cf             	mov    %rcx,%rdi
    e1bc:	e8 32 75 ff ff       	callq  56f3 <transparent_crc>
    e1c1:	83 7d fc 00          	cmpl   $0x0,-0x4(%rbp)
    e1c5:	74 16                	je     e1dd <main+0x34bb>
    e1c7:	8b 45 f0             	mov    -0x10(%rbp),%eax
    e1ca:	89 c6                	mov    %eax,%esi
    e1cc:	48 8d 3d 17 21 00 00 	lea    0x2117(%rip),%rdi        # 102ea <g_1955+0x1212>
    e1d3:	b8 00 00 00 00       	mov    $0x0,%eax
    e1d8:	e8 a3 5e ff ff       	callq  4080 <printf@plt>
    e1dd:	83 45 f0 01          	addl   $0x1,-0x10(%rbp)
    e1e1:	83 7d f0 02          	cmpl   $0x2,-0x10(%rbp)
    e1e5:	0f 8e 26 ff ff ff    	jle    e111 <main+0x33ef>
    e1eb:	c7 45 f0 00 00 00 00 	movl   $0x0,-0x10(%rbp)
    e1f2:	e9 d0 00 00 00       	jmpq   e2c7 <main+0x35a5>
    e1f7:	8b 45 f0             	mov    -0x10(%rbp),%eax
    e1fa:	48 98                	cltq   
    e1fc:	48 c1 e0 04          	shl    $0x4,%rax
    e200:	48 89 c2             	mov    %rax,%rdx
    e203:	48 8d 05 b6 8b 00 00 	lea    0x8bb6(%rip),%rax        # 16dc0 <g_1871>
    e20a:	8b 04 02             	mov    (%rdx,%rax,1),%eax
    e20d:	89 c1                	mov    %eax,%ecx
    e20f:	8b 45 fc             	mov    -0x4(%rbp),%eax
    e212:	89 c2                	mov    %eax,%edx
    e214:	48 8d 35 10 2c 00 00 	lea    0x2c10(%rip),%rsi        # 10e2b <g_1955+0x1d53>
    e21b:	48 89 cf             	mov    %rcx,%rdi
    e21e:	e8 d0 74 ff ff       	callq  56f3 <transparent_crc>
    e223:	8b 45 f0             	mov    -0x10(%rbp),%eax
    e226:	48 98                	cltq   
    e228:	48 c1 e0 04          	shl    $0x4,%rax
    e22c:	48 89 c2             	mov    %rax,%rdx
    e22f:	48 8d 05 8e 8b 00 00 	lea    0x8b8e(%rip),%rax        # 16dc4 <g_1871+0x4>
    e236:	0f b6 04 02          	movzbl (%rdx,%rax,1),%eax
    e23a:	0f b6 c0             	movzbl %al,%eax
    e23d:	8b 55 fc             	mov    -0x4(%rbp),%edx
    e240:	48 8d 35 f1 2b 00 00 	lea    0x2bf1(%rip),%rsi        # 10e38 <g_1955+0x1d60>
    e247:	48 89 c7             	mov    %rax,%rdi
    e24a:	e8 a4 74 ff ff       	callq  56f3 <transparent_crc>
    e24f:	8b 45 f0             	mov    -0x10(%rbp),%eax
    e252:	48 98                	cltq   
    e254:	48 c1 e0 04          	shl    $0x4,%rax
    e258:	48 89 c2             	mov    %rax,%rdx
    e25b:	48 8d 05 66 8b 00 00 	lea    0x8b66(%rip),%rax        # 16dc8 <g_1871+0x8>
    e262:	8b 04 02             	mov    (%rdx,%rax,1),%eax
    e265:	89 c1                	mov    %eax,%ecx
    e267:	8b 45 fc             	mov    -0x4(%rbp),%eax
    e26a:	89 c2                	mov    %eax,%edx
    e26c:	48 8d 35 d2 2b 00 00 	lea    0x2bd2(%rip),%rsi        # 10e45 <g_1955+0x1d6d>
    e273:	48 89 cf             	mov    %rcx,%rdi
    e276:	e8 78 74 ff ff       	callq  56f3 <transparent_crc>
    e27b:	8b 45 f0             	mov    -0x10(%rbp),%eax
    e27e:	48 98                	cltq   
    e280:	48 c1 e0 04          	shl    $0x4,%rax
    e284:	48 89 c2             	mov    %rax,%rdx
    e287:	48 8d 05 3e 8b 00 00 	lea    0x8b3e(%rip),%rax        # 16dcc <g_1871+0xc>
    e28e:	8b 04 02             	mov    (%rdx,%rax,1),%eax
    e291:	89 c1                	mov    %eax,%ecx
    e293:	8b 45 fc             	mov    -0x4(%rbp),%eax
    e296:	89 c2                	mov    %eax,%edx
    e298:	48 8d 35 b3 2b 00 00 	lea    0x2bb3(%rip),%rsi        # 10e52 <g_1955+0x1d7a>
    e29f:	48 89 cf             	mov    %rcx,%rdi
    e2a2:	e8 4c 74 ff ff       	callq  56f3 <transparent_crc>
    e2a7:	83 7d fc 00          	cmpl   $0x0,-0x4(%rbp)
    e2ab:	74 16                	je     e2c3 <main+0x35a1>
    e2ad:	8b 45 f0             	mov    -0x10(%rbp),%eax
    e2b0:	89 c6                	mov    %eax,%esi
    e2b2:	48 8d 3d 31 20 00 00 	lea    0x2031(%rip),%rdi        # 102ea <g_1955+0x1212>
    e2b9:	b8 00 00 00 00       	mov    $0x0,%eax
    e2be:	e8 bd 5d ff ff       	callq  4080 <printf@plt>
    e2c3:	83 45 f0 01          	addl   $0x1,-0x10(%rbp)
    e2c7:	83 7d f0 05          	cmpl   $0x5,-0x10(%rbp)
    e2cb:	0f 8e 26 ff ff ff    	jle    e1f7 <main+0x34d5>
    e2d1:	48 8b 05 48 8b 00 00 	mov    0x8b48(%rip),%rax        # 16e20 <g_1879>
    e2d8:	c1 e0 04             	shl    $0x4,%eax
    e2db:	c0 f8 04             	sar    $0x4,%al
    e2de:	48 0f be c0          	movsbq %al,%rax
    e2e2:	8b 55 fc             	mov    -0x4(%rbp),%edx
    e2e5:	48 8d 35 73 2b 00 00 	lea    0x2b73(%rip),%rsi        # 10e5f <g_1955+0x1d87>
    e2ec:	48 89 c7             	mov    %rax,%rdi
    e2ef:	e8 ff 73 ff ff       	callq  56f3 <transparent_crc>
    e2f4:	48 8b 05 25 8b 00 00 	mov    0x8b25(%rip),%rax        # 16e20 <g_1879>
    e2fb:	48 c1 e8 04          	shr    $0x4,%rax
    e2ff:	66 25 ff 7f          	and    $0x7fff,%ax
    e303:	0f b7 c0             	movzwl %ax,%eax
    e306:	8b 55 fc             	mov    -0x4(%rbp),%edx
    e309:	48 8d 35 59 2b 00 00 	lea    0x2b59(%rip),%rsi        # 10e69 <g_1955+0x1d91>
    e310:	48 89 c7             	mov    %rax,%rdi
    e313:	e8 db 73 ff ff       	callq  56f3 <transparent_crc>
    e318:	48 8b 05 01 8b 00 00 	mov    0x8b01(%rip),%rax        # 16e20 <g_1879>
    e31f:	48 c1 e0 0e          	shl    $0xe,%rax
    e323:	48 c1 f8 2e          	sar    $0x2e,%rax
    e327:	48 98                	cltq   
    e329:	8b 55 fc             	mov    -0x4(%rbp),%edx
    e32c:	48 8d 35 40 2b 00 00 	lea    0x2b40(%rip),%rsi        # 10e73 <g_1955+0x1d9b>
    e333:	48 89 c7             	mov    %rax,%rdi
    e336:	e8 b8 73 ff ff       	callq  56f3 <transparent_crc>
    e33b:	48 8b 05 e6 8a 00 00 	mov    0x8ae6(%rip),%rax        # 16e28 <g_1879+0x8>
    e342:	01 c0                	add    %eax,%eax
    e344:	d1 f8                	sar    %eax
    e346:	48 98                	cltq   
    e348:	8b 55 fc             	mov    -0x4(%rbp),%edx
    e34b:	48 8d 35 2b 2b 00 00 	lea    0x2b2b(%rip),%rsi        # 10e7d <g_1955+0x1da5>
    e352:	48 89 c7             	mov    %rax,%rdi
    e355:	e8 99 73 ff ff       	callq  56f3 <transparent_crc>
    e35a:	48 8b 05 c7 8a 00 00 	mov    0x8ac7(%rip),%rax        # 16e28 <g_1879+0x8>
    e361:	48 c1 e0 09          	shl    $0x9,%rax
    e365:	48 c1 f8 29          	sar    $0x29,%rax
    e369:	48 98                	cltq   
    e36b:	8b 55 fc             	mov    -0x4(%rbp),%edx
    e36e:	48 8d 35 12 2b 00 00 	lea    0x2b12(%rip),%rsi        # 10e87 <g_1955+0x1daf>
    e375:	48 89 c7             	mov    %rax,%rdi
    e378:	e8 76 73 ff ff       	callq  56f3 <transparent_crc>
    e37d:	48 8b 05 a4 8a 00 00 	mov    0x8aa4(%rip),%rax        # 16e28 <g_1879+0x8>
    e384:	48 c1 e8 37          	shr    $0x37,%rax
    e388:	83 e0 03             	and    $0x3,%eax
    e38b:	0f b6 c0             	movzbl %al,%eax
    e38e:	8b 55 fc             	mov    -0x4(%rbp),%edx
    e391:	48 8d 35 f9 2a 00 00 	lea    0x2af9(%rip),%rsi        # 10e91 <g_1955+0x1db9>
    e398:	48 89 c7             	mov    %rax,%rdi
    e39b:	e8 53 73 ff ff       	callq  56f3 <transparent_crc>
    e3a0:	8b 05 9a 8a 00 00    	mov    0x8a9a(%rip),%eax        # 16e40 <g_1897>
    e3a6:	48 98                	cltq   
    e3a8:	8b 55 fc             	mov    -0x4(%rbp),%edx
    e3ab:	48 8d 35 e9 2a 00 00 	lea    0x2ae9(%rip),%rsi        # 10e9b <g_1955+0x1dc3>
    e3b2:	48 89 c7             	mov    %rax,%rdi
    e3b5:	e8 39 73 ff ff       	callq  56f3 <transparent_crc>
    e3ba:	0f b7 05 83 8a 00 00 	movzwl 0x8a83(%rip),%eax        # 16e44 <g_1897+0x4>
    e3c1:	0f b7 c0             	movzwl %ax,%eax
    e3c4:	8b 55 fc             	mov    -0x4(%rbp),%edx
    e3c7:	48 8d 35 d7 2a 00 00 	lea    0x2ad7(%rip),%rsi        # 10ea5 <g_1955+0x1dcd>
    e3ce:	48 89 c7             	mov    %rax,%rdi
    e3d1:	e8 1d 73 ff ff       	callq  56f3 <transparent_crc>
    e3d6:	0f b7 05 69 8a 00 00 	movzwl 0x8a69(%rip),%eax        # 16e46 <g_1897+0x6>
    e3dd:	0f b7 c0             	movzwl %ax,%eax
    e3e0:	8b 55 fc             	mov    -0x4(%rbp),%edx
    e3e3:	48 8d 35 c5 2a 00 00 	lea    0x2ac5(%rip),%rsi        # 10eaf <g_1955+0x1dd7>
    e3ea:	48 89 c7             	mov    %rax,%rdi
    e3ed:	e8 01 73 ff ff       	callq  56f3 <transparent_crc>
    e3f2:	0f b7 05 4f 8a 00 00 	movzwl 0x8a4f(%rip),%eax        # 16e48 <g_1897+0x8>
    e3f9:	0f b7 c0             	movzwl %ax,%eax
    e3fc:	8b 55 fc             	mov    -0x4(%rbp),%edx
    e3ff:	48 8d 35 b3 2a 00 00 	lea    0x2ab3(%rip),%rsi        # 10eb9 <g_1955+0x1de1>
    e406:	48 89 c7             	mov    %rax,%rdi
    e409:	e8 e5 72 ff ff       	callq  56f3 <transparent_crc>
    e40e:	8b 05 36 8a 00 00    	mov    0x8a36(%rip),%eax        # 16e4a <g_1897+0xa>
    e414:	89 c1                	mov    %eax,%ecx
    e416:	8b 45 fc             	mov    -0x4(%rbp),%eax
    e419:	89 c2                	mov    %eax,%edx
    e41b:	48 8d 35 a1 2a 00 00 	lea    0x2aa1(%rip),%rsi        # 10ec3 <g_1955+0x1deb>
    e422:	48 89 cf             	mov    %rcx,%rdi
    e425:	e8 c9 72 ff ff       	callq  56f3 <transparent_crc>
    e42a:	8b 05 1e 8a 00 00    	mov    0x8a1e(%rip),%eax        # 16e4e <g_1897+0xe>
    e430:	89 c1                	mov    %eax,%ecx
    e432:	8b 45 fc             	mov    -0x4(%rbp),%eax
    e435:	89 c2                	mov    %eax,%edx
    e437:	48 8d 35 8f 2a 00 00 	lea    0x2a8f(%rip),%rsi        # 10ecd <g_1955+0x1df5>
    e43e:	48 89 cf             	mov    %rcx,%rdi
    e441:	e8 ad 72 ff ff       	callq  56f3 <transparent_crc>
    e446:	48 8b 05 05 8a 00 00 	mov    0x8a05(%rip),%rax        # 16e52 <g_1897+0x12>
    e44d:	48 89 c1             	mov    %rax,%rcx
    e450:	8b 45 fc             	mov    -0x4(%rbp),%eax
    e453:	89 c2                	mov    %eax,%edx
    e455:	48 8d 35 7b 2a 00 00 	lea    0x2a7b(%rip),%rsi        # 10ed7 <g_1955+0x1dff>
    e45c:	48 89 cf             	mov    %rcx,%rdi
    e45f:	e8 8f 72 ff ff       	callq  56f3 <transparent_crc>
    e464:	8b 05 f0 89 00 00    	mov    0x89f0(%rip),%eax        # 16e5a <g_1897+0x1a>
    e46a:	48 98                	cltq   
    e46c:	8b 55 fc             	mov    -0x4(%rbp),%edx
    e46f:	48 8d 35 6b 2a 00 00 	lea    0x2a6b(%rip),%rsi        # 10ee1 <g_1955+0x1e09>
    e476:	48 89 c7             	mov    %rax,%rdi
    e479:	e8 75 72 ff ff       	callq  56f3 <transparent_crc>
    e47e:	48 8b 05 d9 89 00 00 	mov    0x89d9(%rip),%rax        # 16e5e <g_1897+0x1e>
    e485:	8b 55 fc             	mov    -0x4(%rbp),%edx
    e488:	48 8d 35 5c 2a 00 00 	lea    0x2a5c(%rip),%rsi        # 10eeb <g_1955+0x1e13>
    e48f:	48 89 c7             	mov    %rax,%rdi
    e492:	e8 5c 72 ff ff       	callq  56f3 <transparent_crc>
    e497:	b8 68 be 59 9e       	mov    $0x9e59be68,%eax
    e49c:	89 c1                	mov    %eax,%ecx
    e49e:	8b 45 fc             	mov    -0x4(%rbp),%eax
    e4a1:	89 c2                	mov    %eax,%edx
    e4a3:	48 8d 35 4b 2a 00 00 	lea    0x2a4b(%rip),%rsi        # 10ef5 <g_1955+0x1e1d>
    e4aa:	48 89 cf             	mov    %rcx,%rdi
    e4ad:	e8 41 72 ff ff       	callq  56f3 <transparent_crc>
    e4b2:	c7 45 f0 00 00 00 00 	movl   $0x0,-0x10(%rbp)
    e4b9:	eb 4a                	jmp    e505 <main+0x37e3>
    e4bb:	8b 45 f0             	mov    -0x10(%rbp),%eax
    e4be:	48 98                	cltq   
    e4c0:	48 8d 14 00          	lea    (%rax,%rax,1),%rdx
    e4c4:	48 8d 05 0d 0c 00 00 	lea    0xc0d(%rip),%rax        # f0d8 <g_1955>
    e4cb:	0f b7 04 02          	movzwl (%rdx,%rax,1),%eax
    e4cf:	48 0f bf c0          	movswq %ax,%rax
    e4d3:	8b 55 fc             	mov    -0x4(%rbp),%edx
    e4d6:	48 8d 35 1f 2a 00 00 	lea    0x2a1f(%rip),%rsi        # 10efc <g_1955+0x1e24>
    e4dd:	48 89 c7             	mov    %rax,%rdi
    e4e0:	e8 0e 72 ff ff       	callq  56f3 <transparent_crc>
    e4e5:	83 7d fc 00          	cmpl   $0x0,-0x4(%rbp)
    e4e9:	74 16                	je     e501 <main+0x37df>
    e4eb:	8b 45 f0             	mov    -0x10(%rbp),%eax
    e4ee:	89 c6                	mov    %eax,%esi
    e4f0:	48 8d 3d f3 1d 00 00 	lea    0x1df3(%rip),%rdi        # 102ea <g_1955+0x1212>
    e4f7:	b8 00 00 00 00       	mov    $0x0,%eax
    e4fc:	e8 7f 5b ff ff       	callq  4080 <printf@plt>
    e501:	83 45 f0 01          	addl   $0x1,-0x10(%rbp)
    e505:	83 7d f0 06          	cmpl   $0x6,-0x10(%rbp)
    e509:	7e b0                	jle    e4bb <main+0x3799>
    e50b:	48 8b 05 5e 89 00 00 	mov    0x895e(%rip),%rax        # 16e70 <g_2050>
    e512:	c1 e0 04             	shl    $0x4,%eax
    e515:	c0 f8 04             	sar    $0x4,%al
    e518:	48 0f be c0          	movsbq %al,%rax
    e51c:	8b 55 fc             	mov    -0x4(%rbp),%edx
    e51f:	48 8d 35 e0 29 00 00 	lea    0x29e0(%rip),%rsi        # 10f06 <g_1955+0x1e2e>
    e526:	48 89 c7             	mov    %rax,%rdi
    e529:	e8 c5 71 ff ff       	callq  56f3 <transparent_crc>
    e52e:	8b 05 3c 89 00 00    	mov    0x893c(%rip),%eax        # 16e70 <g_2050>
    e534:	c1 e8 04             	shr    $0x4,%eax
    e537:	66 25 ff 7f          	and    $0x7fff,%ax
    e53b:	0f b7 c0             	movzwl %ax,%eax
    e53e:	8b 55 fc             	mov    -0x4(%rbp),%edx
    e541:	48 8d 35 c8 29 00 00 	lea    0x29c8(%rip),%rsi        # 10f10 <g_1955+0x1e38>
    e548:	48 89 c7             	mov    %rax,%rdi
    e54b:	e8 a3 71 ff ff       	callq  56f3 <transparent_crc>
    e550:	8b 05 1e 89 00 00    	mov    0x891e(%rip),%eax        # 16e74 <g_2050+0x4>
    e556:	c1 e0 0e             	shl    $0xe,%eax
    e559:	c1 f8 0e             	sar    $0xe,%eax
    e55c:	48 98                	cltq   
    e55e:	8b 55 fc             	mov    -0x4(%rbp),%edx
    e561:	48 8d 35 b2 29 00 00 	lea    0x29b2(%rip),%rsi        # 10f1a <g_1955+0x1e42>
    e568:	48 89 c7             	mov    %rax,%rdi
    e56b:	e8 83 71 ff ff       	callq  56f3 <transparent_crc>
    e570:	8b 05 02 89 00 00    	mov    0x8902(%rip),%eax        # 16e78 <g_2050+0x8>
    e576:	01 c0                	add    %eax,%eax
    e578:	d1 f8                	sar    %eax
    e57a:	48 98                	cltq   
    e57c:	8b 55 fc             	mov    -0x4(%rbp),%edx
    e57f:	48 8d 35 9e 29 00 00 	lea    0x299e(%rip),%rsi        # 10f24 <g_1955+0x1e4c>
    e586:	48 89 c7             	mov    %rax,%rdi
    e589:	e8 65 71 ff ff       	callq  56f3 <transparent_crc>
    e58e:	8b 05 e8 88 00 00    	mov    0x88e8(%rip),%eax        # 16e7c <g_2050+0xc>
    e594:	c1 e0 09             	shl    $0x9,%eax
    e597:	c1 f8 09             	sar    $0x9,%eax
    e59a:	48 98                	cltq   
    e59c:	8b 55 fc             	mov    -0x4(%rbp),%edx
    e59f:	48 8d 35 88 29 00 00 	lea    0x2988(%rip),%rsi        # 10f2e <g_1955+0x1e56>
    e5a6:	48 89 c7             	mov    %rax,%rdi
    e5a9:	e8 45 71 ff ff       	callq  56f3 <transparent_crc>
    e5ae:	48 8b 05 c3 88 00 00 	mov    0x88c3(%rip),%rax        # 16e78 <g_2050+0x8>
    e5b5:	48 c1 e8 37          	shr    $0x37,%rax
    e5b9:	83 e0 03             	and    $0x3,%eax
    e5bc:	0f b6 c0             	movzbl %al,%eax
    e5bf:	8b 55 fc             	mov    -0x4(%rbp),%edx
    e5c2:	48 8d 35 6f 29 00 00 	lea    0x296f(%rip),%rsi        # 10f38 <g_1955+0x1e60>
    e5c9:	48 89 c7             	mov    %rax,%rdi
    e5cc:	e8 22 71 ff ff       	callq  56f3 <transparent_crc>
    e5d1:	8b 05 a9 88 00 00    	mov    0x88a9(%rip),%eax        # 16e80 <g_2063>
    e5d7:	48 98                	cltq   
    e5d9:	8b 55 fc             	mov    -0x4(%rbp),%edx
    e5dc:	48 8d 35 5f 29 00 00 	lea    0x295f(%rip),%rsi        # 10f42 <g_1955+0x1e6a>
    e5e3:	48 89 c7             	mov    %rax,%rdi
    e5e6:	e8 08 71 ff ff       	callq  56f3 <transparent_crc>
    e5eb:	0f b7 05 92 88 00 00 	movzwl 0x8892(%rip),%eax        # 16e84 <g_2063+0x4>
    e5f2:	0f b7 c0             	movzwl %ax,%eax
    e5f5:	8b 55 fc             	mov    -0x4(%rbp),%edx
    e5f8:	48 8d 35 4d 29 00 00 	lea    0x294d(%rip),%rsi        # 10f4c <g_1955+0x1e74>
    e5ff:	48 89 c7             	mov    %rax,%rdi
    e602:	e8 ec 70 ff ff       	callq  56f3 <transparent_crc>
    e607:	0f b7 05 78 88 00 00 	movzwl 0x8878(%rip),%eax        # 16e86 <g_2063+0x6>
    e60e:	0f b7 c0             	movzwl %ax,%eax
    e611:	8b 55 fc             	mov    -0x4(%rbp),%edx
    e614:	48 8d 35 3b 29 00 00 	lea    0x293b(%rip),%rsi        # 10f56 <g_1955+0x1e7e>
    e61b:	48 89 c7             	mov    %rax,%rdi
    e61e:	e8 d0 70 ff ff       	callq  56f3 <transparent_crc>
    e623:	0f b7 05 5e 88 00 00 	movzwl 0x885e(%rip),%eax        # 16e88 <g_2063+0x8>
    e62a:	0f b7 c0             	movzwl %ax,%eax
    e62d:	8b 55 fc             	mov    -0x4(%rbp),%edx
    e630:	48 8d 35 29 29 00 00 	lea    0x2929(%rip),%rsi        # 10f60 <g_1955+0x1e88>
    e637:	48 89 c7             	mov    %rax,%rdi
    e63a:	e8 b4 70 ff ff       	callq  56f3 <transparent_crc>
    e63f:	8b 05 45 88 00 00    	mov    0x8845(%rip),%eax        # 16e8a <g_2063+0xa>
    e645:	89 c1                	mov    %eax,%ecx
    e647:	8b 45 fc             	mov    -0x4(%rbp),%eax
    e64a:	89 c2                	mov    %eax,%edx
    e64c:	48 8d 35 17 29 00 00 	lea    0x2917(%rip),%rsi        # 10f6a <g_1955+0x1e92>
    e653:	48 89 cf             	mov    %rcx,%rdi
    e656:	e8 98 70 ff ff       	callq  56f3 <transparent_crc>
    e65b:	8b 05 2d 88 00 00    	mov    0x882d(%rip),%eax        # 16e8e <g_2063+0xe>
    e661:	89 c1                	mov    %eax,%ecx
    e663:	8b 45 fc             	mov    -0x4(%rbp),%eax
    e666:	89 c2                	mov    %eax,%edx
    e668:	48 8d 35 05 29 00 00 	lea    0x2905(%rip),%rsi        # 10f74 <g_1955+0x1e9c>
    e66f:	48 89 cf             	mov    %rcx,%rdi
    e672:	e8 7c 70 ff ff       	callq  56f3 <transparent_crc>
    e677:	48 8b 05 14 88 00 00 	mov    0x8814(%rip),%rax        # 16e92 <g_2063+0x12>
    e67e:	48 89 c1             	mov    %rax,%rcx
    e681:	8b 45 fc             	mov    -0x4(%rbp),%eax
    e684:	89 c2                	mov    %eax,%edx
    e686:	48 8d 35 f1 28 00 00 	lea    0x28f1(%rip),%rsi        # 10f7e <g_1955+0x1ea6>
    e68d:	48 89 cf             	mov    %rcx,%rdi
    e690:	e8 5e 70 ff ff       	callq  56f3 <transparent_crc>
    e695:	8b 05 ff 87 00 00    	mov    0x87ff(%rip),%eax        # 16e9a <g_2063+0x1a>
    e69b:	48 98                	cltq   
    e69d:	8b 55 fc             	mov    -0x4(%rbp),%edx
    e6a0:	48 8d 35 e1 28 00 00 	lea    0x28e1(%rip),%rsi        # 10f88 <g_1955+0x1eb0>
    e6a7:	48 89 c7             	mov    %rax,%rdi
    e6aa:	e8 44 70 ff ff       	callq  56f3 <transparent_crc>
    e6af:	48 8b 05 e8 87 00 00 	mov    0x87e8(%rip),%rax        # 16e9e <g_2063+0x1e>
    e6b6:	8b 55 fc             	mov    -0x4(%rbp),%edx
    e6b9:	48 8d 35 d2 28 00 00 	lea    0x28d2(%rip),%rsi        # 10f92 <g_1955+0x1eba>
    e6c0:	48 89 c7             	mov    %rax,%rdi
    e6c3:	e8 2b 70 ff ff       	callq  56f3 <transparent_crc>
    e6c8:	48 8b 05 e1 87 00 00 	mov    0x87e1(%rip),%rax        # 16eb0 <g_2066>
    e6cf:	c1 e0 04             	shl    $0x4,%eax
    e6d2:	c0 f8 04             	sar    $0x4,%al
    e6d5:	48 0f be c0          	movsbq %al,%rax
    e6d9:	8b 55 fc             	mov    -0x4(%rbp),%edx
    e6dc:	48 8d 35 b9 28 00 00 	lea    0x28b9(%rip),%rsi        # 10f9c <g_1955+0x1ec4>
    e6e3:	48 89 c7             	mov    %rax,%rdi
    e6e6:	e8 08 70 ff ff       	callq  56f3 <transparent_crc>
    e6eb:	8b 05 bf 87 00 00    	mov    0x87bf(%rip),%eax        # 16eb0 <g_2066>
    e6f1:	c1 e8 04             	shr    $0x4,%eax
    e6f4:	66 25 ff 7f          	and    $0x7fff,%ax
    e6f8:	0f b7 c0             	movzwl %ax,%eax
    e6fb:	8b 55 fc             	mov    -0x4(%rbp),%edx
    e6fe:	48 8d 35 a1 28 00 00 	lea    0x28a1(%rip),%rsi        # 10fa6 <g_1955+0x1ece>
    e705:	48 89 c7             	mov    %rax,%rdi
    e708:	e8 e6 6f ff ff       	callq  56f3 <transparent_crc>
    e70d:	8b 05 a1 87 00 00    	mov    0x87a1(%rip),%eax        # 16eb4 <g_2066+0x4>
    e713:	c1 e0 0e             	shl    $0xe,%eax
    e716:	c1 f8 0e             	sar    $0xe,%eax
    e719:	48 98                	cltq   
    e71b:	8b 55 fc             	mov    -0x4(%rbp),%edx
    e71e:	48 8d 35 8b 28 00 00 	lea    0x288b(%rip),%rsi        # 10fb0 <g_1955+0x1ed8>
    e725:	48 89 c7             	mov    %rax,%rdi
    e728:	e8 c6 6f ff ff       	callq  56f3 <transparent_crc>
    e72d:	8b 05 85 87 00 00    	mov    0x8785(%rip),%eax        # 16eb8 <g_2066+0x8>
    e733:	01 c0                	add    %eax,%eax
    e735:	d1 f8                	sar    %eax
    e737:	48 98                	cltq   
    e739:	8b 55 fc             	mov    -0x4(%rbp),%edx
    e73c:	48 8d 35 77 28 00 00 	lea    0x2877(%rip),%rsi        # 10fba <g_1955+0x1ee2>
    e743:	48 89 c7             	mov    %rax,%rdi
    e746:	e8 a8 6f ff ff       	callq  56f3 <transparent_crc>
    e74b:	8b 05 6b 87 00 00    	mov    0x876b(%rip),%eax        # 16ebc <g_2066+0xc>
    e751:	c1 e0 09             	shl    $0x9,%eax
    e754:	c1 f8 09             	sar    $0x9,%eax
    e757:	48 98                	cltq   
    e759:	8b 55 fc             	mov    -0x4(%rbp),%edx
    e75c:	48 8d 35 61 28 00 00 	lea    0x2861(%rip),%rsi        # 10fc4 <g_1955+0x1eec>
    e763:	48 89 c7             	mov    %rax,%rdi
    e766:	e8 88 6f ff ff       	callq  56f3 <transparent_crc>
    e76b:	48 8b 05 46 87 00 00 	mov    0x8746(%rip),%rax        # 16eb8 <g_2066+0x8>
    e772:	48 c1 e8 37          	shr    $0x37,%rax
    e776:	83 e0 03             	and    $0x3,%eax
    e779:	0f b6 c0             	movzbl %al,%eax
    e77c:	8b 55 fc             	mov    -0x4(%rbp),%edx
    e77f:	48 8d 35 48 28 00 00 	lea    0x2848(%rip),%rsi        # 10fce <g_1955+0x1ef6>
    e786:	48 89 c7             	mov    %rax,%rdi
    e789:	e8 65 6f ff ff       	callq  56f3 <transparent_crc>
    e78e:	48 8b 05 2b 87 00 00 	mov    0x872b(%rip),%rax        # 16ec0 <g_2070>
    e795:	c1 e0 04             	shl    $0x4,%eax
    e798:	c0 f8 04             	sar    $0x4,%al
    e79b:	48 0f be c0          	movsbq %al,%rax
    e79f:	8b 55 fc             	mov    -0x4(%rbp),%edx
    e7a2:	48 8d 35 2f 28 00 00 	lea    0x282f(%rip),%rsi        # 10fd8 <g_1955+0x1f00>
    e7a9:	48 89 c7             	mov    %rax,%rdi
    e7ac:	e8 42 6f ff ff       	callq  56f3 <transparent_crc>
    e7b1:	48 8b 05 08 87 00 00 	mov    0x8708(%rip),%rax        # 16ec0 <g_2070>
    e7b8:	48 c1 e8 04          	shr    $0x4,%rax
    e7bc:	66 25 ff 7f          	and    $0x7fff,%ax
    e7c0:	0f b7 c0             	movzwl %ax,%eax
    e7c3:	8b 55 fc             	mov    -0x4(%rbp),%edx
    e7c6:	48 8d 35 15 28 00 00 	lea    0x2815(%rip),%rsi        # 10fe2 <g_1955+0x1f0a>
    e7cd:	48 89 c7             	mov    %rax,%rdi
    e7d0:	e8 1e 6f ff ff       	callq  56f3 <transparent_crc>
    e7d5:	48 8b 05 e4 86 00 00 	mov    0x86e4(%rip),%rax        # 16ec0 <g_2070>
    e7dc:	48 c1 e0 0e          	shl    $0xe,%rax
    e7e0:	48 c1 f8 2e          	sar    $0x2e,%rax
    e7e4:	48 98                	cltq   
    e7e6:	8b 55 fc             	mov    -0x4(%rbp),%edx
    e7e9:	48 8d 35 fc 27 00 00 	lea    0x27fc(%rip),%rsi        # 10fec <g_1955+0x1f14>
    e7f0:	48 89 c7             	mov    %rax,%rdi
    e7f3:	e8 fb 6e ff ff       	callq  56f3 <transparent_crc>
    e7f8:	48 8b 05 c9 86 00 00 	mov    0x86c9(%rip),%rax        # 16ec8 <g_2070+0x8>
    e7ff:	01 c0                	add    %eax,%eax
    e801:	d1 f8                	sar    %eax
    e803:	48 98                	cltq   
    e805:	8b 55 fc             	mov    -0x4(%rbp),%edx
    e808:	48 8d 35 e7 27 00 00 	lea    0x27e7(%rip),%rsi        # 10ff6 <g_1955+0x1f1e>
    e80f:	48 89 c7             	mov    %rax,%rdi
    e812:	e8 dc 6e ff ff       	callq  56f3 <transparent_crc>
    e817:	48 8b 05 aa 86 00 00 	mov    0x86aa(%rip),%rax        # 16ec8 <g_2070+0x8>
    e81e:	48 c1 e0 09          	shl    $0x9,%rax
    e822:	48 c1 f8 29          	sar    $0x29,%rax
    e826:	48 98                	cltq   
    e828:	8b 55 fc             	mov    -0x4(%rbp),%edx
    e82b:	48 8d 35 ce 27 00 00 	lea    0x27ce(%rip),%rsi        # 11000 <g_1955+0x1f28>
    e832:	48 89 c7             	mov    %rax,%rdi
    e835:	e8 b9 6e ff ff       	callq  56f3 <transparent_crc>
    e83a:	48 8b 05 87 86 00 00 	mov    0x8687(%rip),%rax        # 16ec8 <g_2070+0x8>
    e841:	48 c1 e8 37          	shr    $0x37,%rax
    e845:	83 e0 03             	and    $0x3,%eax
    e848:	0f b6 c0             	movzbl %al,%eax
    e84b:	8b 55 fc             	mov    -0x4(%rbp),%edx
    e84e:	48 8d 35 b5 27 00 00 	lea    0x27b5(%rip),%rsi        # 1100a <g_1955+0x1f32>
    e855:	48 89 c7             	mov    %rax,%rdi
    e858:	e8 96 6e ff ff       	callq  56f3 <transparent_crc>
    e85d:	8b 05 7d 86 00 00    	mov    0x867d(%rip),%eax        # 16ee0 <g_2123>
    e863:	48 98                	cltq   
    e865:	8b 55 fc             	mov    -0x4(%rbp),%edx
    e868:	48 8d 35 a5 27 00 00 	lea    0x27a5(%rip),%rsi        # 11014 <g_1955+0x1f3c>
    e86f:	48 89 c7             	mov    %rax,%rdi
    e872:	e8 7c 6e ff ff       	callq  56f3 <transparent_crc>
    e877:	0f b7 05 66 86 00 00 	movzwl 0x8666(%rip),%eax        # 16ee4 <g_2123+0x4>
    e87e:	0f b7 c0             	movzwl %ax,%eax
    e881:	8b 55 fc             	mov    -0x4(%rbp),%edx
    e884:	48 8d 35 93 27 00 00 	lea    0x2793(%rip),%rsi        # 1101e <g_1955+0x1f46>
    e88b:	48 89 c7             	mov    %rax,%rdi
    e88e:	e8 60 6e ff ff       	callq  56f3 <transparent_crc>
    e893:	0f b7 05 4c 86 00 00 	movzwl 0x864c(%rip),%eax        # 16ee6 <g_2123+0x6>
    e89a:	0f b7 c0             	movzwl %ax,%eax
    e89d:	8b 55 fc             	mov    -0x4(%rbp),%edx
    e8a0:	48 8d 35 81 27 00 00 	lea    0x2781(%rip),%rsi        # 11028 <g_1955+0x1f50>
    e8a7:	48 89 c7             	mov    %rax,%rdi
    e8aa:	e8 44 6e ff ff       	callq  56f3 <transparent_crc>
    e8af:	0f b7 05 32 86 00 00 	movzwl 0x8632(%rip),%eax        # 16ee8 <g_2123+0x8>
    e8b6:	0f b7 c0             	movzwl %ax,%eax
    e8b9:	8b 55 fc             	mov    -0x4(%rbp),%edx
    e8bc:	48 8d 35 6f 27 00 00 	lea    0x276f(%rip),%rsi        # 11032 <g_1955+0x1f5a>
    e8c3:	48 89 c7             	mov    %rax,%rdi
    e8c6:	e8 28 6e ff ff       	callq  56f3 <transparent_crc>
    e8cb:	8b 05 19 86 00 00    	mov    0x8619(%rip),%eax        # 16eea <g_2123+0xa>
    e8d1:	89 c1                	mov    %eax,%ecx
    e8d3:	8b 45 fc             	mov    -0x4(%rbp),%eax
    e8d6:	89 c2                	mov    %eax,%edx
    e8d8:	48 8d 35 5d 27 00 00 	lea    0x275d(%rip),%rsi        # 1103c <g_1955+0x1f64>
    e8df:	48 89 cf             	mov    %rcx,%rdi
    e8e2:	e8 0c 6e ff ff       	callq  56f3 <transparent_crc>
    e8e7:	8b 05 01 86 00 00    	mov    0x8601(%rip),%eax        # 16eee <g_2123+0xe>
    e8ed:	89 c1                	mov    %eax,%ecx
    e8ef:	8b 45 fc             	mov    -0x4(%rbp),%eax
    e8f2:	89 c2                	mov    %eax,%edx
    e8f4:	48 8d 35 4b 27 00 00 	lea    0x274b(%rip),%rsi        # 11046 <g_1955+0x1f6e>
    e8fb:	48 89 cf             	mov    %rcx,%rdi
    e8fe:	e8 f0 6d ff ff       	callq  56f3 <transparent_crc>
    e903:	48 8b 05 e8 85 00 00 	mov    0x85e8(%rip),%rax        # 16ef2 <g_2123+0x12>
    e90a:	48 89 c1             	mov    %rax,%rcx
    e90d:	8b 45 fc             	mov    -0x4(%rbp),%eax
    e910:	89 c2                	mov    %eax,%edx
    e912:	48 8d 35 37 27 00 00 	lea    0x2737(%rip),%rsi        # 11050 <g_1955+0x1f78>
    e919:	48 89 cf             	mov    %rcx,%rdi
    e91c:	e8 d2 6d ff ff       	callq  56f3 <transparent_crc>
    e921:	8b 05 d3 85 00 00    	mov    0x85d3(%rip),%eax        # 16efa <g_2123+0x1a>
    e927:	48 98                	cltq   
    e929:	8b 55 fc             	mov    -0x4(%rbp),%edx
    e92c:	48 8d 35 27 27 00 00 	lea    0x2727(%rip),%rsi        # 1105a <g_1955+0x1f82>
    e933:	48 89 c7             	mov    %rax,%rdi
    e936:	e8 b8 6d ff ff       	callq  56f3 <transparent_crc>
    e93b:	48 8b 05 bc 85 00 00 	mov    0x85bc(%rip),%rax        # 16efe <g_2123+0x1e>
    e942:	8b 55 fc             	mov    -0x4(%rbp),%edx
    e945:	48 8d 35 18 27 00 00 	lea    0x2718(%rip),%rsi        # 11064 <g_1955+0x1f8c>
    e94c:	48 89 c7             	mov    %rax,%rdi
    e94f:	e8 9f 6d ff ff       	callq  56f3 <transparent_crc>
    e954:	8b 05 ae 85 00 00    	mov    0x85ae(%rip),%eax        # 16f08 <g_2125>
    e95a:	89 c1                	mov    %eax,%ecx
    e95c:	8b 45 fc             	mov    -0x4(%rbp),%eax
    e95f:	89 c2                	mov    %eax,%edx
    e961:	48 8d 35 06 27 00 00 	lea    0x2706(%rip),%rsi        # 1106e <g_1955+0x1f96>
    e968:	48 89 cf             	mov    %rcx,%rdi
    e96b:	e8 83 6d ff ff       	callq  56f3 <transparent_crc>
    e970:	0f b7 05 95 85 00 00 	movzwl 0x8595(%rip),%eax        # 16f0c <g_2139>
    e977:	48 0f bf c0          	movswq %ax,%rax
    e97b:	8b 55 fc             	mov    -0x4(%rbp),%edx
    e97e:	48 8d 35 f0 26 00 00 	lea    0x26f0(%rip),%rsi        # 11075 <g_1955+0x1f9d>
    e985:	48 89 c7             	mov    %rax,%rdi
    e988:	e8 66 6d ff ff       	callq  56f3 <transparent_crc>
    e98d:	8b 05 7d 85 00 00    	mov    0x857d(%rip),%eax        # 16f10 <g_2153>
    e993:	89 c1                	mov    %eax,%ecx
    e995:	8b 45 fc             	mov    -0x4(%rbp),%eax
    e998:	89 c2                	mov    %eax,%edx
    e99a:	48 8d 35 db 26 00 00 	lea    0x26db(%rip),%rsi        # 1107c <g_1955+0x1fa4>
    e9a1:	48 89 cf             	mov    %rcx,%rdi
    e9a4:	e8 4a 6d ff ff       	callq  56f3 <transparent_crc>
    e9a9:	0f b6 05 64 85 00 00 	movzbl 0x8564(%rip),%eax        # 16f14 <g_2153+0x4>
    e9b0:	0f b6 c0             	movzbl %al,%eax
    e9b3:	8b 55 fc             	mov    -0x4(%rbp),%edx
    e9b6:	48 8d 35 c9 26 00 00 	lea    0x26c9(%rip),%rsi        # 11086 <g_1955+0x1fae>
    e9bd:	48 89 c7             	mov    %rax,%rdi
    e9c0:	e8 2e 6d ff ff       	callq  56f3 <transparent_crc>
    e9c5:	8b 05 4d 85 00 00    	mov    0x854d(%rip),%eax        # 16f18 <g_2153+0x8>
    e9cb:	89 c1                	mov    %eax,%ecx
    e9cd:	8b 45 fc             	mov    -0x4(%rbp),%eax
    e9d0:	89 c2                	mov    %eax,%edx
    e9d2:	48 8d 35 b7 26 00 00 	lea    0x26b7(%rip),%rsi        # 11090 <g_1955+0x1fb8>
    e9d9:	48 89 cf             	mov    %rcx,%rdi
    e9dc:	e8 12 6d ff ff       	callq  56f3 <transparent_crc>
    e9e1:	8b 05 35 85 00 00    	mov    0x8535(%rip),%eax        # 16f1c <g_2153+0xc>
    e9e7:	89 c1                	mov    %eax,%ecx
    e9e9:	8b 45 fc             	mov    -0x4(%rbp),%eax
    e9ec:	89 c2                	mov    %eax,%edx
    e9ee:	48 8d 35 a5 26 00 00 	lea    0x26a5(%rip),%rsi        # 1109a <g_1955+0x1fc2>
    e9f5:	48 89 cf             	mov    %rcx,%rdi
    e9f8:	e8 f6 6c ff ff       	callq  56f3 <transparent_crc>
    e9fd:	8b 05 1d 56 00 00    	mov    0x561d(%rip),%eax        # 14020 <crc32_context>
    ea03:	f7 d0                	not    %eax
    ea05:	89 c2                	mov    %eax,%edx
    ea07:	8b 45 fc             	mov    -0x4(%rbp),%eax
    ea0a:	89 c6                	mov    %eax,%esi
    ea0c:	89 d7                	mov    %edx,%edi
    ea0e:	e8 81 57 ff ff       	callq  4194 <platform_main_end>
    ea13:	b8 00 00 00 00       	mov    $0x0,%eax
    ea18:	c9                   	leaveq 
    ea19:	c3                   	retq   
    ea1a:	66 0f 1f 44 00 00    	nopw   0x0(%rax,%rax,1)

000000000000ea20 <__libc_csu_init>:
    ea20:	f3 0f 1e fa          	endbr64 
    ea24:	41 57                	push   %r15
    ea26:	4c 8d 3d a3 4b 00 00 	lea    0x4ba3(%rip),%r15        # 135d0 <__frame_dummy_init_array_entry>
    ea2d:	41 56                	push   %r14
    ea2f:	49 89 d6             	mov    %rdx,%r14
    ea32:	41 55                	push   %r13
    ea34:	49 89 f5             	mov    %rsi,%r13
    ea37:	41 54                	push   %r12
    ea39:	41 89 fc             	mov    %edi,%r12d
    ea3c:	55                   	push   %rbp
    ea3d:	48 8d 2d 94 4b 00 00 	lea    0x4b94(%rip),%rbp        # 135d8 <__do_global_dtors_aux_fini_array_entry>
    ea44:	53                   	push   %rbx
    ea45:	4c 29 fd             	sub    %r15,%rbp
    ea48:	48 83 ec 08          	sub    $0x8,%rsp
    ea4c:	e8 af 55 ff ff       	callq  4000 <_init>
    ea51:	48 c1 fd 03          	sar    $0x3,%rbp
    ea55:	74 1f                	je     ea76 <__libc_csu_init+0x56>
    ea57:	31 db                	xor    %ebx,%ebx
    ea59:	0f 1f 80 00 00 00 00 	nopl   0x0(%rax)
    ea60:	4c 89 f2             	mov    %r14,%rdx
    ea63:	4c 89 ee             	mov    %r13,%rsi
    ea66:	44 89 e7             	mov    %r12d,%edi
    ea69:	41 ff 14 df          	callq  *(%r15,%rbx,8)
    ea6d:	48 83 c3 01          	add    $0x1,%rbx
    ea71:	48 39 dd             	cmp    %rbx,%rbp
    ea74:	75 ea                	jne    ea60 <__libc_csu_init+0x40>
    ea76:	48 83 c4 08          	add    $0x8,%rsp
    ea7a:	5b                   	pop    %rbx
    ea7b:	5d                   	pop    %rbp
    ea7c:	41 5c                	pop    %r12
    ea7e:	41 5d                	pop    %r13
    ea80:	41 5e                	pop    %r14
    ea82:	41 5f                	pop    %r15
    ea84:	c3                   	retq   
    ea85:	66 66 2e 0f 1f 84 00 	data16 nopw %cs:0x0(%rax,%rax,1)
    ea8c:	00 00 00 00 

000000000000ea90 <__libc_csu_fini>:
    ea90:	f3 0f 1e fa          	endbr64 
    ea94:	c3                   	retq   
