


Disassembly of section .text:

00000000000050a0 <_start>:
    50a0:	f3 0f 1e fa          	endbr64 
    50a4:	31 ed                	xor    %ebp,%ebp
    50a6:	49 89 d1             	mov    %rdx,%r9
    50a9:	5e                   	pop    %rsi
    50aa:	48 89 e2             	mov    %rsp,%rdx
    50ad:	48 83 e4 f0          	and    $0xfffffffffffffff0,%rsp
    50b1:	50                   	push   %rax
    50b2:	54                   	push   %rsp
    50b3:	4c 8d 05 e6 73 00 00 	lea    0x73e6(%rip),%r8        # c4a0 <__libc_csu_fini>
    50ba:	48 8d 0d 6f 73 00 00 	lea    0x736f(%rip),%rcx        # c430 <__libc_csu_init>
    50c1:	48 8d 3d c5 64 00 00 	lea    0x64c5(%rip),%rdi        # b58d <main>
    50c8:	ff 15 12 bf 00 00    	callq  *0xbf12(%rip)        # 10fe0 <__libc_start_main@GLIBC_2.2.5>
    50ce:	f4                   	hlt    
    50cf:	90                   	nop

00000000000050d0 <deregister_tm_clones>:
    50d0:	48 8d 3d 51 ed 00 00 	lea    0xed51(%rip),%rdi        # 13e28 <__TMC_END__>
    50d7:	48 8d 05 4a ed 00 00 	lea    0xed4a(%rip),%rax        # 13e28 <__TMC_END__>
    50de:	48 39 f8             	cmp    %rdi,%rax
    50e1:	74 15                	je     50f8 <deregister_tm_clones+0x28>
    50e3:	48 8b 05 ee be 00 00 	mov    0xbeee(%rip),%rax        # 10fd8 <_ITM_deregisterTMCloneTable>
    50ea:	48 85 c0             	test   %rax,%rax
    50ed:	74 09                	je     50f8 <deregister_tm_clones+0x28>
    50ef:	ff e0                	jmpq   *%rax
    50f1:	0f 1f 80 00 00 00 00 	nopl   0x0(%rax)
    50f8:	c3                   	retq   
    50f9:	0f 1f 80 00 00 00 00 	nopl   0x0(%rax)

0000000000005100 <register_tm_clones>:
    5100:	48 8d 3d 21 ed 00 00 	lea    0xed21(%rip),%rdi        # 13e28 <__TMC_END__>
    5107:	48 8d 35 1a ed 00 00 	lea    0xed1a(%rip),%rsi        # 13e28 <__TMC_END__>
    510e:	48 29 fe             	sub    %rdi,%rsi
    5111:	48 89 f0             	mov    %rsi,%rax
    5114:	48 c1 ee 3f          	shr    $0x3f,%rsi
    5118:	48 c1 f8 03          	sar    $0x3,%rax
    511c:	48 01 c6             	add    %rax,%rsi
    511f:	48 d1 fe             	sar    %rsi
    5122:	74 14                	je     5138 <register_tm_clones+0x38>
    5124:	48 8b 05 c5 be 00 00 	mov    0xbec5(%rip),%rax        # 10ff0 <_ITM_registerTMCloneTable>
    512b:	48 85 c0             	test   %rax,%rax
    512e:	74 08                	je     5138 <register_tm_clones+0x38>
    5130:	ff e0                	jmpq   *%rax
    5132:	66 0f 1f 44 00 00    	nopw   0x0(%rax,%rax,1)
    5138:	c3                   	retq   
    5139:	0f 1f 80 00 00 00 00 	nopl   0x0(%rax)

0000000000005140 <__do_global_dtors_aux>:
    5140:	f3 0f 1e fa          	endbr64 
    5144:	80 3d f5 ec 00 00 00 	cmpb   $0x0,0xecf5(%rip)        # 13e40 <completed.8061>
    514b:	75 2b                	jne    5178 <__do_global_dtors_aux+0x38>
    514d:	55                   	push   %rbp
    514e:	48 83 3d a2 be 00 00 	cmpq   $0x0,0xbea2(%rip)        # 10ff8 <__cxa_finalize@GLIBC_2.2.5>
    5155:	00 
    5156:	48 89 e5             	mov    %rsp,%rbp
    5159:	74 0c                	je     5167 <__do_global_dtors_aux+0x27>
    515b:	48 8b 3d a6 be 00 00 	mov    0xbea6(%rip),%rdi        # 11008 <__dso_handle>
    5162:	e8 f9 fe ff ff       	callq  5060 <__cxa_finalize@plt>
    5167:	e8 64 ff ff ff       	callq  50d0 <deregister_tm_clones>
    516c:	c6 05 cd ec 00 00 01 	movb   $0x1,0xeccd(%rip)        # 13e40 <completed.8061>
    5173:	5d                   	pop    %rbp
    5174:	c3                   	retq   
    5175:	0f 1f 00             	nopl   (%rax)
    5178:	c3                   	retq   
    5179:	0f 1f 80 00 00 00 00 	nopl   0x0(%rax)

0000000000005180 <frame_dummy>:
    5180:	f3 0f 1e fa          	endbr64 
    5184:	e9 77 ff ff ff       	jmpq   5100 <register_tm_clones>

0000000000005189 <platform_main_begin>:
    5189:	f3 0f 1e fa          	endbr64 
    518d:	55                   	push   %rbp
    518e:	48 89 e5             	mov    %rsp,%rbp
    5191:	90                   	nop
    5192:	5d                   	pop    %rbp
    5193:	c3                   	retq   

0000000000005194 <platform_main_end>:
    5194:	f3 0f 1e fa          	endbr64 
    5198:	55                   	push   %rbp
    5199:	48 89 e5             	mov    %rsp,%rbp
    519c:	48 83 ec 10          	sub    $0x10,%rsp
    51a0:	89 7d fc             	mov    %edi,-0x4(%rbp)
    51a3:	89 75 f8             	mov    %esi,-0x8(%rbp)
    51a6:	8b 45 fc             	mov    -0x4(%rbp),%eax
    51a9:	89 c6                	mov    %eax,%esi
    51ab:	48 8d 3d 6e 7e 00 00 	lea    0x7e6e(%rip),%rdi        # d020 <_IO_stdin_used+0x20>
    51b2:	b8 00 00 00 00       	mov    $0x0,%eax
    51b7:	e8 c4 fe ff ff       	callq  5080 <printf@plt>
    51bc:	90                   	nop
    51bd:	c9                   	leaveq 
    51be:	c3                   	retq   

00000000000051bf <safe_unary_minus_func_int8_t_s>:
    51bf:	f3 0f 1e fa          	endbr64 
    51c3:	55                   	push   %rbp
    51c4:	48 89 e5             	mov    %rsp,%rbp
    51c7:	89 f8                	mov    %edi,%eax
    51c9:	88 45 fc             	mov    %al,-0x4(%rbp)
    51cc:	0f b6 45 fc          	movzbl -0x4(%rbp),%eax
    51d0:	f7 d8                	neg    %eax
    51d2:	5d                   	pop    %rbp
    51d3:	c3                   	retq   

00000000000051d4 <safe_add_func_int8_t_s_s>:
    51d4:	f3 0f 1e fa          	endbr64 
    51d8:	55                   	push   %rbp
    51d9:	48 89 e5             	mov    %rsp,%rbp
    51dc:	89 fa                	mov    %edi,%edx
    51de:	89 f0                	mov    %esi,%eax
    51e0:	88 55 fc             	mov    %dl,-0x4(%rbp)
    51e3:	88 45 f8             	mov    %al,-0x8(%rbp)
    51e6:	0f b6 55 fc          	movzbl -0x4(%rbp),%edx
    51ea:	0f b6 45 f8          	movzbl -0x8(%rbp),%eax
    51ee:	01 d0                	add    %edx,%eax
    51f0:	5d                   	pop    %rbp
    51f1:	c3                   	retq   

00000000000051f2 <safe_sub_func_int8_t_s_s>:
    51f2:	f3 0f 1e fa          	endbr64 
    51f6:	55                   	push   %rbp
    51f7:	48 89 e5             	mov    %rsp,%rbp
    51fa:	89 fa                	mov    %edi,%edx
    51fc:	89 f0                	mov    %esi,%eax
    51fe:	88 55 fc             	mov    %dl,-0x4(%rbp)
    5201:	88 45 f8             	mov    %al,-0x8(%rbp)
    5204:	0f b6 55 fc          	movzbl -0x4(%rbp),%edx
    5208:	0f b6 45 f8          	movzbl -0x8(%rbp),%eax
    520c:	29 c2                	sub    %eax,%edx
    520e:	89 d0                	mov    %edx,%eax
    5210:	5d                   	pop    %rbp
    5211:	c3                   	retq   

0000000000005212 <safe_mul_func_int8_t_s_s>:
    5212:	f3 0f 1e fa          	endbr64 
    5216:	55                   	push   %rbp
    5217:	48 89 e5             	mov    %rsp,%rbp
    521a:	89 fa                	mov    %edi,%edx
    521c:	89 f0                	mov    %esi,%eax
    521e:	88 55 fc             	mov    %dl,-0x4(%rbp)
    5221:	88 45 f8             	mov    %al,-0x8(%rbp)
    5224:	0f b6 45 fc          	movzbl -0x4(%rbp),%eax
    5228:	0f b6 55 f8          	movzbl -0x8(%rbp),%edx
    522c:	0f af c2             	imul   %edx,%eax
    522f:	5d                   	pop    %rbp
    5230:	c3                   	retq   

0000000000005231 <safe_mod_func_int8_t_s_s>:
    5231:	f3 0f 1e fa          	endbr64 
    5235:	55                   	push   %rbp
    5236:	48 89 e5             	mov    %rsp,%rbp
    5239:	89 fa                	mov    %edi,%edx
    523b:	89 f0                	mov    %esi,%eax
    523d:	88 55 fc             	mov    %dl,-0x4(%rbp)
    5240:	88 45 f8             	mov    %al,-0x8(%rbp)
    5243:	80 7d f8 00          	cmpb   $0x0,-0x8(%rbp)
    5247:	74 1b                	je     5264 <safe_mod_func_int8_t_s_s+0x33>
    5249:	80 7d fc 80          	cmpb   $0x80,-0x4(%rbp)
    524d:	75 06                	jne    5255 <safe_mod_func_int8_t_s_s+0x24>
    524f:	80 7d f8 ff          	cmpb   $0xff,-0x8(%rbp)
    5253:	74 0f                	je     5264 <safe_mod_func_int8_t_s_s+0x33>
    5255:	0f be 45 fc          	movsbl -0x4(%rbp),%eax
    5259:	0f be 4d f8          	movsbl -0x8(%rbp),%ecx
    525d:	99                   	cltd   
    525e:	f7 f9                	idiv   %ecx
    5260:	89 d0                	mov    %edx,%eax
    5262:	eb 04                	jmp    5268 <safe_mod_func_int8_t_s_s+0x37>
    5264:	0f b6 45 fc          	movzbl -0x4(%rbp),%eax
    5268:	5d                   	pop    %rbp
    5269:	c3                   	retq   

000000000000526a <safe_div_func_int8_t_s_s>:
    526a:	f3 0f 1e fa          	endbr64 
    526e:	55                   	push   %rbp
    526f:	48 89 e5             	mov    %rsp,%rbp
    5272:	89 fa                	mov    %edi,%edx
    5274:	89 f0                	mov    %esi,%eax
    5276:	88 55 fc             	mov    %dl,-0x4(%rbp)
    5279:	88 45 f8             	mov    %al,-0x8(%rbp)
    527c:	80 7d f8 00          	cmpb   $0x0,-0x8(%rbp)
    5280:	74 19                	je     529b <safe_div_func_int8_t_s_s+0x31>
    5282:	80 7d fc 80          	cmpb   $0x80,-0x4(%rbp)
    5286:	75 06                	jne    528e <safe_div_func_int8_t_s_s+0x24>
    5288:	80 7d f8 ff          	cmpb   $0xff,-0x8(%rbp)
    528c:	74 0d                	je     529b <safe_div_func_int8_t_s_s+0x31>
    528e:	0f be 45 fc          	movsbl -0x4(%rbp),%eax
    5292:	0f be 4d f8          	movsbl -0x8(%rbp),%ecx
    5296:	99                   	cltd   
    5297:	f7 f9                	idiv   %ecx
    5299:	eb 04                	jmp    529f <safe_div_func_int8_t_s_s+0x35>
    529b:	0f b6 45 fc          	movzbl -0x4(%rbp),%eax
    529f:	5d                   	pop    %rbp
    52a0:	c3                   	retq   

00000000000052a1 <safe_lshift_func_int8_t_s_s>:
    52a1:	f3 0f 1e fa          	endbr64 
    52a5:	55                   	push   %rbp
    52a6:	48 89 e5             	mov    %rsp,%rbp
    52a9:	89 f8                	mov    %edi,%eax
    52ab:	89 75 f8             	mov    %esi,-0x8(%rbp)
    52ae:	88 45 fc             	mov    %al,-0x4(%rbp)
    52b1:	80 7d fc 00          	cmpb   $0x0,-0x4(%rbp)
    52b5:	78 31                	js     52e8 <safe_lshift_func_int8_t_s_s+0x47>
    52b7:	83 7d f8 00          	cmpl   $0x0,-0x8(%rbp)
    52bb:	78 2b                	js     52e8 <safe_lshift_func_int8_t_s_s+0x47>
    52bd:	83 7d f8 1f          	cmpl   $0x1f,-0x8(%rbp)
    52c1:	7f 25                	jg     52e8 <safe_lshift_func_int8_t_s_s+0x47>
    52c3:	0f be 55 fc          	movsbl -0x4(%rbp),%edx
    52c7:	8b 45 f8             	mov    -0x8(%rbp),%eax
    52ca:	be 7f 00 00 00       	mov    $0x7f,%esi
    52cf:	89 c1                	mov    %eax,%ecx
    52d1:	d3 fe                	sar    %cl,%esi
    52d3:	89 f0                	mov    %esi,%eax
    52d5:	39 c2                	cmp    %eax,%edx
    52d7:	7f 0f                	jg     52e8 <safe_lshift_func_int8_t_s_s+0x47>
    52d9:	0f be 55 fc          	movsbl -0x4(%rbp),%edx
    52dd:	8b 45 f8             	mov    -0x8(%rbp),%eax
    52e0:	89 c1                	mov    %eax,%ecx
    52e2:	d3 e2                	shl    %cl,%edx
    52e4:	89 d0                	mov    %edx,%eax
    52e6:	eb 04                	jmp    52ec <safe_lshift_func_int8_t_s_s+0x4b>
    52e8:	0f b6 45 fc          	movzbl -0x4(%rbp),%eax
    52ec:	5d                   	pop    %rbp
    52ed:	c3                   	retq   

00000000000052ee <safe_lshift_func_int8_t_s_u>:
    52ee:	f3 0f 1e fa          	endbr64 
    52f2:	55                   	push   %rbp
    52f3:	48 89 e5             	mov    %rsp,%rbp
    52f6:	89 f8                	mov    %edi,%eax
    52f8:	89 75 f8             	mov    %esi,-0x8(%rbp)
    52fb:	88 45 fc             	mov    %al,-0x4(%rbp)
    52fe:	80 7d fc 00          	cmpb   $0x0,-0x4(%rbp)
    5302:	78 2b                	js     532f <safe_lshift_func_int8_t_s_u+0x41>
    5304:	83 7d f8 1f          	cmpl   $0x1f,-0x8(%rbp)
    5308:	77 25                	ja     532f <safe_lshift_func_int8_t_s_u+0x41>
    530a:	0f be 55 fc          	movsbl -0x4(%rbp),%edx
    530e:	8b 45 f8             	mov    -0x8(%rbp),%eax
    5311:	be 7f 00 00 00       	mov    $0x7f,%esi
    5316:	89 c1                	mov    %eax,%ecx
    5318:	d3 fe                	sar    %cl,%esi
    531a:	89 f0                	mov    %esi,%eax
    531c:	39 c2                	cmp    %eax,%edx
    531e:	7f 0f                	jg     532f <safe_lshift_func_int8_t_s_u+0x41>
    5320:	0f be 55 fc          	movsbl -0x4(%rbp),%edx
    5324:	8b 45 f8             	mov    -0x8(%rbp),%eax
    5327:	89 c1                	mov    %eax,%ecx
    5329:	d3 e2                	shl    %cl,%edx
    532b:	89 d0                	mov    %edx,%eax
    532d:	eb 04                	jmp    5333 <safe_lshift_func_int8_t_s_u+0x45>
    532f:	0f b6 45 fc          	movzbl -0x4(%rbp),%eax
    5333:	5d                   	pop    %rbp
    5334:	c3                   	retq   

0000000000005335 <safe_rshift_func_int8_t_s_s>:
    5335:	f3 0f 1e fa          	endbr64 
    5339:	55                   	push   %rbp
    533a:	48 89 e5             	mov    %rsp,%rbp
    533d:	89 f8                	mov    %edi,%eax
    533f:	89 75 f8             	mov    %esi,-0x8(%rbp)
    5342:	88 45 fc             	mov    %al,-0x4(%rbp)
    5345:	80 7d fc 00          	cmpb   $0x0,-0x4(%rbp)
    5349:	78 1b                	js     5366 <safe_rshift_func_int8_t_s_s+0x31>
    534b:	83 7d f8 00          	cmpl   $0x0,-0x8(%rbp)
    534f:	78 15                	js     5366 <safe_rshift_func_int8_t_s_s+0x31>
    5351:	83 7d f8 1f          	cmpl   $0x1f,-0x8(%rbp)
    5355:	7f 0f                	jg     5366 <safe_rshift_func_int8_t_s_s+0x31>
    5357:	0f be 55 fc          	movsbl -0x4(%rbp),%edx
    535b:	8b 45 f8             	mov    -0x8(%rbp),%eax
    535e:	89 c1                	mov    %eax,%ecx
    5360:	d3 fa                	sar    %cl,%edx
    5362:	89 d0                	mov    %edx,%eax
    5364:	eb 04                	jmp    536a <safe_rshift_func_int8_t_s_s+0x35>
    5366:	0f b6 45 fc          	movzbl -0x4(%rbp),%eax
    536a:	5d                   	pop    %rbp
    536b:	c3                   	retq   

000000000000536c <safe_rshift_func_int8_t_s_u>:
    536c:	f3 0f 1e fa          	endbr64 
    5370:	55                   	push   %rbp
    5371:	48 89 e5             	mov    %rsp,%rbp
    5374:	89 f8                	mov    %edi,%eax
    5376:	89 75 f8             	mov    %esi,-0x8(%rbp)
    5379:	88 45 fc             	mov    %al,-0x4(%rbp)
    537c:	80 7d fc 00          	cmpb   $0x0,-0x4(%rbp)
    5380:	78 15                	js     5397 <safe_rshift_func_int8_t_s_u+0x2b>
    5382:	83 7d f8 1f          	cmpl   $0x1f,-0x8(%rbp)
    5386:	77 0f                	ja     5397 <safe_rshift_func_int8_t_s_u+0x2b>
    5388:	0f be 55 fc          	movsbl -0x4(%rbp),%edx
    538c:	8b 45 f8             	mov    -0x8(%rbp),%eax
    538f:	89 c1                	mov    %eax,%ecx
    5391:	d3 fa                	sar    %cl,%edx
    5393:	89 d0                	mov    %edx,%eax
    5395:	eb 04                	jmp    539b <safe_rshift_func_int8_t_s_u+0x2f>
    5397:	0f b6 45 fc          	movzbl -0x4(%rbp),%eax
    539b:	5d                   	pop    %rbp
    539c:	c3                   	retq   

000000000000539d <safe_unary_minus_func_int16_t_s>:
    539d:	f3 0f 1e fa          	endbr64 
    53a1:	55                   	push   %rbp
    53a2:	48 89 e5             	mov    %rsp,%rbp
    53a5:	89 f8                	mov    %edi,%eax
    53a7:	66 89 45 fc          	mov    %ax,-0x4(%rbp)
    53ab:	0f b7 45 fc          	movzwl -0x4(%rbp),%eax
    53af:	f7 d8                	neg    %eax
    53b1:	5d                   	pop    %rbp
    53b2:	c3                   	retq   

00000000000053b3 <safe_add_func_int16_t_s_s>:
    53b3:	f3 0f 1e fa          	endbr64 
    53b7:	55                   	push   %rbp
    53b8:	48 89 e5             	mov    %rsp,%rbp
    53bb:	89 fa                	mov    %edi,%edx
    53bd:	89 f0                	mov    %esi,%eax
    53bf:	66 89 55 fc          	mov    %dx,-0x4(%rbp)
    53c3:	66 89 45 f8          	mov    %ax,-0x8(%rbp)
    53c7:	0f b7 55 fc          	movzwl -0x4(%rbp),%edx
    53cb:	0f b7 45 f8          	movzwl -0x8(%rbp),%eax
    53cf:	01 d0                	add    %edx,%eax
    53d1:	5d                   	pop    %rbp
    53d2:	c3                   	retq   

00000000000053d3 <safe_sub_func_int16_t_s_s>:
    53d3:	f3 0f 1e fa          	endbr64 
    53d7:	55                   	push   %rbp
    53d8:	48 89 e5             	mov    %rsp,%rbp
    53db:	89 fa                	mov    %edi,%edx
    53dd:	89 f0                	mov    %esi,%eax
    53df:	66 89 55 fc          	mov    %dx,-0x4(%rbp)
    53e3:	66 89 45 f8          	mov    %ax,-0x8(%rbp)
    53e7:	0f b7 55 fc          	movzwl -0x4(%rbp),%edx
    53eb:	0f b7 45 f8          	movzwl -0x8(%rbp),%eax
    53ef:	29 c2                	sub    %eax,%edx
    53f1:	89 d0                	mov    %edx,%eax
    53f3:	5d                   	pop    %rbp
    53f4:	c3                   	retq   

00000000000053f5 <safe_mul_func_int16_t_s_s>:
    53f5:	f3 0f 1e fa          	endbr64 
    53f9:	55                   	push   %rbp
    53fa:	48 89 e5             	mov    %rsp,%rbp
    53fd:	89 fa                	mov    %edi,%edx
    53ff:	89 f0                	mov    %esi,%eax
    5401:	66 89 55 fc          	mov    %dx,-0x4(%rbp)
    5405:	66 89 45 f8          	mov    %ax,-0x8(%rbp)
    5409:	0f b7 55 fc          	movzwl -0x4(%rbp),%edx
    540d:	0f b7 45 f8          	movzwl -0x8(%rbp),%eax
    5411:	0f af c2             	imul   %edx,%eax
    5414:	5d                   	pop    %rbp
    5415:	c3                   	retq   

0000000000005416 <safe_mod_func_int16_t_s_s>:
    5416:	f3 0f 1e fa          	endbr64 
    541a:	55                   	push   %rbp
    541b:	48 89 e5             	mov    %rsp,%rbp
    541e:	89 fa                	mov    %edi,%edx
    5420:	89 f0                	mov    %esi,%eax
    5422:	66 89 55 fc          	mov    %dx,-0x4(%rbp)
    5426:	66 89 45 f8          	mov    %ax,-0x8(%rbp)
    542a:	66 83 7d f8 00       	cmpw   $0x0,-0x8(%rbp)
    542f:	74 1e                	je     544f <safe_mod_func_int16_t_s_s+0x39>
    5431:	66 81 7d fc 00 80    	cmpw   $0x8000,-0x4(%rbp)
    5437:	75 07                	jne    5440 <safe_mod_func_int16_t_s_s+0x2a>
    5439:	66 83 7d f8 ff       	cmpw   $0xffff,-0x8(%rbp)
    543e:	74 0f                	je     544f <safe_mod_func_int16_t_s_s+0x39>
    5440:	0f bf 45 fc          	movswl -0x4(%rbp),%eax
    5444:	0f bf 4d f8          	movswl -0x8(%rbp),%ecx
    5448:	99                   	cltd   
    5449:	f7 f9                	idiv   %ecx
    544b:	89 d0                	mov    %edx,%eax
    544d:	eb 04                	jmp    5453 <safe_mod_func_int16_t_s_s+0x3d>
    544f:	0f b7 45 fc          	movzwl -0x4(%rbp),%eax
    5453:	5d                   	pop    %rbp
    5454:	c3                   	retq   

0000000000005455 <safe_div_func_int16_t_s_s>:
    5455:	f3 0f 1e fa          	endbr64 
    5459:	55                   	push   %rbp
    545a:	48 89 e5             	mov    %rsp,%rbp
    545d:	89 fa                	mov    %edi,%edx
    545f:	89 f0                	mov    %esi,%eax
    5461:	66 89 55 fc          	mov    %dx,-0x4(%rbp)
    5465:	66 89 45 f8          	mov    %ax,-0x8(%rbp)
    5469:	66 83 7d f8 00       	cmpw   $0x0,-0x8(%rbp)
    546e:	74 1c                	je     548c <safe_div_func_int16_t_s_s+0x37>
    5470:	66 81 7d fc 00 80    	cmpw   $0x8000,-0x4(%rbp)
    5476:	75 07                	jne    547f <safe_div_func_int16_t_s_s+0x2a>
    5478:	66 83 7d f8 ff       	cmpw   $0xffff,-0x8(%rbp)
    547d:	74 0d                	je     548c <safe_div_func_int16_t_s_s+0x37>
    547f:	0f bf 45 fc          	movswl -0x4(%rbp),%eax
    5483:	0f bf 4d f8          	movswl -0x8(%rbp),%ecx
    5487:	99                   	cltd   
    5488:	f7 f9                	idiv   %ecx
    548a:	eb 04                	jmp    5490 <safe_div_func_int16_t_s_s+0x3b>
    548c:	0f b7 45 fc          	movzwl -0x4(%rbp),%eax
    5490:	5d                   	pop    %rbp
    5491:	c3                   	retq   

0000000000005492 <safe_lshift_func_int16_t_s_s>:
    5492:	f3 0f 1e fa          	endbr64 
    5496:	55                   	push   %rbp
    5497:	48 89 e5             	mov    %rsp,%rbp
    549a:	89 f8                	mov    %edi,%eax
    549c:	89 75 f8             	mov    %esi,-0x8(%rbp)
    549f:	66 89 45 fc          	mov    %ax,-0x4(%rbp)
    54a3:	66 83 7d fc 00       	cmpw   $0x0,-0x4(%rbp)
    54a8:	78 31                	js     54db <safe_lshift_func_int16_t_s_s+0x49>
    54aa:	83 7d f8 00          	cmpl   $0x0,-0x8(%rbp)
    54ae:	78 2b                	js     54db <safe_lshift_func_int16_t_s_s+0x49>
    54b0:	83 7d f8 1f          	cmpl   $0x1f,-0x8(%rbp)
    54b4:	7f 25                	jg     54db <safe_lshift_func_int16_t_s_s+0x49>
    54b6:	0f bf 55 fc          	movswl -0x4(%rbp),%edx
    54ba:	8b 45 f8             	mov    -0x8(%rbp),%eax
    54bd:	be ff 7f 00 00       	mov    $0x7fff,%esi
    54c2:	89 c1                	mov    %eax,%ecx
    54c4:	d3 fe                	sar    %cl,%esi
    54c6:	89 f0                	mov    %esi,%eax
    54c8:	39 c2                	cmp    %eax,%edx
    54ca:	7f 0f                	jg     54db <safe_lshift_func_int16_t_s_s+0x49>
    54cc:	0f bf 55 fc          	movswl -0x4(%rbp),%edx
    54d0:	8b 45 f8             	mov    -0x8(%rbp),%eax
    54d3:	89 c1                	mov    %eax,%ecx
    54d5:	d3 e2                	shl    %cl,%edx
    54d7:	89 d0                	mov    %edx,%eax
    54d9:	eb 04                	jmp    54df <safe_lshift_func_int16_t_s_s+0x4d>
    54db:	0f b7 45 fc          	movzwl -0x4(%rbp),%eax
    54df:	5d                   	pop    %rbp
    54e0:	c3                   	retq   

00000000000054e1 <safe_lshift_func_int16_t_s_u>:
    54e1:	f3 0f 1e fa          	endbr64 
    54e5:	55                   	push   %rbp
    54e6:	48 89 e5             	mov    %rsp,%rbp
    54e9:	89 f8                	mov    %edi,%eax
    54eb:	89 75 f8             	mov    %esi,-0x8(%rbp)
    54ee:	66 89 45 fc          	mov    %ax,-0x4(%rbp)
    54f2:	66 83 7d fc 00       	cmpw   $0x0,-0x4(%rbp)
    54f7:	78 2b                	js     5524 <safe_lshift_func_int16_t_s_u+0x43>
    54f9:	83 7d f8 1f          	cmpl   $0x1f,-0x8(%rbp)
    54fd:	77 25                	ja     5524 <safe_lshift_func_int16_t_s_u+0x43>
    54ff:	0f bf 55 fc          	movswl -0x4(%rbp),%edx
    5503:	8b 45 f8             	mov    -0x8(%rbp),%eax
    5506:	be ff 7f 00 00       	mov    $0x7fff,%esi
    550b:	89 c1                	mov    %eax,%ecx
    550d:	d3 fe                	sar    %cl,%esi
    550f:	89 f0                	mov    %esi,%eax
    5511:	39 c2                	cmp    %eax,%edx
    5513:	7f 0f                	jg     5524 <safe_lshift_func_int16_t_s_u+0x43>
    5515:	0f bf 55 fc          	movswl -0x4(%rbp),%edx
    5519:	8b 45 f8             	mov    -0x8(%rbp),%eax
    551c:	89 c1                	mov    %eax,%ecx
    551e:	d3 e2                	shl    %cl,%edx
    5520:	89 d0                	mov    %edx,%eax
    5522:	eb 04                	jmp    5528 <safe_lshift_func_int16_t_s_u+0x47>
    5524:	0f b7 45 fc          	movzwl -0x4(%rbp),%eax
    5528:	5d                   	pop    %rbp
    5529:	c3                   	retq   

000000000000552a <safe_rshift_func_int16_t_s_s>:
    552a:	f3 0f 1e fa          	endbr64 
    552e:	55                   	push   %rbp
    552f:	48 89 e5             	mov    %rsp,%rbp
    5532:	89 f8                	mov    %edi,%eax
    5534:	89 75 f8             	mov    %esi,-0x8(%rbp)
    5537:	66 89 45 fc          	mov    %ax,-0x4(%rbp)
    553b:	66 83 7d fc 00       	cmpw   $0x0,-0x4(%rbp)
    5540:	78 1b                	js     555d <safe_rshift_func_int16_t_s_s+0x33>
    5542:	83 7d f8 00          	cmpl   $0x0,-0x8(%rbp)
    5546:	78 15                	js     555d <safe_rshift_func_int16_t_s_s+0x33>
    5548:	83 7d f8 1f          	cmpl   $0x1f,-0x8(%rbp)
    554c:	7f 0f                	jg     555d <safe_rshift_func_int16_t_s_s+0x33>
    554e:	0f bf 55 fc          	movswl -0x4(%rbp),%edx
    5552:	8b 45 f8             	mov    -0x8(%rbp),%eax
    5555:	89 c1                	mov    %eax,%ecx
    5557:	d3 fa                	sar    %cl,%edx
    5559:	89 d0                	mov    %edx,%eax
    555b:	eb 04                	jmp    5561 <safe_rshift_func_int16_t_s_s+0x37>
    555d:	0f b7 45 fc          	movzwl -0x4(%rbp),%eax
    5561:	5d                   	pop    %rbp
    5562:	c3                   	retq   

0000000000005563 <safe_rshift_func_int16_t_s_u>:
    5563:	f3 0f 1e fa          	endbr64 
    5567:	55                   	push   %rbp
    5568:	48 89 e5             	mov    %rsp,%rbp
    556b:	89 f8                	mov    %edi,%eax
    556d:	89 75 f8             	mov    %esi,-0x8(%rbp)
    5570:	66 89 45 fc          	mov    %ax,-0x4(%rbp)
    5574:	66 83 7d fc 00       	cmpw   $0x0,-0x4(%rbp)
    5579:	78 15                	js     5590 <safe_rshift_func_int16_t_s_u+0x2d>
    557b:	83 7d f8 1f          	cmpl   $0x1f,-0x8(%rbp)
    557f:	77 0f                	ja     5590 <safe_rshift_func_int16_t_s_u+0x2d>
    5581:	0f bf 55 fc          	movswl -0x4(%rbp),%edx
    5585:	8b 45 f8             	mov    -0x8(%rbp),%eax
    5588:	89 c1                	mov    %eax,%ecx
    558a:	d3 fa                	sar    %cl,%edx
    558c:	89 d0                	mov    %edx,%eax
    558e:	eb 04                	jmp    5594 <safe_rshift_func_int16_t_s_u+0x31>
    5590:	0f b7 45 fc          	movzwl -0x4(%rbp),%eax
    5594:	5d                   	pop    %rbp
    5595:	c3                   	retq   

0000000000005596 <safe_unary_minus_func_int32_t_s>:
    5596:	f3 0f 1e fa          	endbr64 
    559a:	55                   	push   %rbp
    559b:	48 89 e5             	mov    %rsp,%rbp
    559e:	89 7d fc             	mov    %edi,-0x4(%rbp)
    55a1:	81 7d fc 00 00 00 80 	cmpl   $0x80000000,-0x4(%rbp)
    55a8:	74 07                	je     55b1 <safe_unary_minus_func_int32_t_s+0x1b>
    55aa:	8b 45 fc             	mov    -0x4(%rbp),%eax
    55ad:	f7 d8                	neg    %eax
    55af:	eb 03                	jmp    55b4 <safe_unary_minus_func_int32_t_s+0x1e>
    55b1:	8b 45 fc             	mov    -0x4(%rbp),%eax
    55b4:	5d                   	pop    %rbp
    55b5:	c3                   	retq   

00000000000055b6 <safe_add_func_int32_t_s_s>:
    55b6:	f3 0f 1e fa          	endbr64 
    55ba:	55                   	push   %rbp
    55bb:	48 89 e5             	mov    %rsp,%rbp
    55be:	89 7d fc             	mov    %edi,-0x4(%rbp)
    55c1:	89 75 f8             	mov    %esi,-0x8(%rbp)
    55c4:	83 7d fc 00          	cmpl   $0x0,-0x4(%rbp)
    55c8:	7e 13                	jle    55dd <safe_add_func_int32_t_s_s+0x27>
    55ca:	83 7d f8 00          	cmpl   $0x0,-0x8(%rbp)
    55ce:	7e 0d                	jle    55dd <safe_add_func_int32_t_s_s+0x27>
    55d0:	b8 ff ff ff 7f       	mov    $0x7fffffff,%eax
    55d5:	2b 45 f8             	sub    -0x8(%rbp),%eax
    55d8:	39 45 fc             	cmp    %eax,-0x4(%rbp)
    55db:	7f 23                	jg     5600 <safe_add_func_int32_t_s_s+0x4a>
    55dd:	83 7d fc 00          	cmpl   $0x0,-0x4(%rbp)
    55e1:	79 13                	jns    55f6 <safe_add_func_int32_t_s_s+0x40>
    55e3:	83 7d f8 00          	cmpl   $0x0,-0x8(%rbp)
    55e7:	79 0d                	jns    55f6 <safe_add_func_int32_t_s_s+0x40>
    55e9:	b8 00 00 00 80       	mov    $0x80000000,%eax
    55ee:	2b 45 f8             	sub    -0x8(%rbp),%eax
    55f1:	39 45 fc             	cmp    %eax,-0x4(%rbp)
    55f4:	7c 0a                	jl     5600 <safe_add_func_int32_t_s_s+0x4a>
    55f6:	8b 55 fc             	mov    -0x4(%rbp),%edx
    55f9:	8b 45 f8             	mov    -0x8(%rbp),%eax
    55fc:	01 d0                	add    %edx,%eax
    55fe:	eb 03                	jmp    5603 <safe_add_func_int32_t_s_s+0x4d>
    5600:	8b 45 fc             	mov    -0x4(%rbp),%eax
    5603:	5d                   	pop    %rbp
    5604:	c3                   	retq   

0000000000005605 <safe_sub_func_int32_t_s_s>:
    5605:	f3 0f 1e fa          	endbr64 
    5609:	55                   	push   %rbp
    560a:	48 89 e5             	mov    %rsp,%rbp
    560d:	89 7d fc             	mov    %edi,-0x4(%rbp)
    5610:	89 75 f8             	mov    %esi,-0x8(%rbp)
    5613:	8b 45 fc             	mov    -0x4(%rbp),%eax
    5616:	33 45 f8             	xor    -0x8(%rbp),%eax
    5619:	89 c2                	mov    %eax,%edx
    561b:	8b 45 fc             	mov    -0x4(%rbp),%eax
    561e:	33 45 f8             	xor    -0x8(%rbp),%eax
    5621:	25 00 00 00 80       	and    $0x80000000,%eax
    5626:	33 45 fc             	xor    -0x4(%rbp),%eax
    5629:	2b 45 f8             	sub    -0x8(%rbp),%eax
    562c:	33 45 f8             	xor    -0x8(%rbp),%eax
    562f:	21 d0                	and    %edx,%eax
    5631:	85 c0                	test   %eax,%eax
    5633:	78 08                	js     563d <safe_sub_func_int32_t_s_s+0x38>
    5635:	8b 45 fc             	mov    -0x4(%rbp),%eax
    5638:	2b 45 f8             	sub    -0x8(%rbp),%eax
    563b:	eb 03                	jmp    5640 <safe_sub_func_int32_t_s_s+0x3b>
    563d:	8b 45 fc             	mov    -0x4(%rbp),%eax
    5640:	5d                   	pop    %rbp
    5641:	c3                   	retq   

0000000000005642 <safe_mul_func_int32_t_s_s>:
    5642:	f3 0f 1e fa          	endbr64 
    5646:	55                   	push   %rbp
    5647:	48 89 e5             	mov    %rsp,%rbp
    564a:	89 7d fc             	mov    %edi,-0x4(%rbp)
    564d:	89 75 f8             	mov    %esi,-0x8(%rbp)
    5650:	83 7d fc 00          	cmpl   $0x0,-0x4(%rbp)
    5654:	7e 14                	jle    566a <safe_mul_func_int32_t_s_s+0x28>
    5656:	83 7d f8 00          	cmpl   $0x0,-0x8(%rbp)
    565a:	7e 0e                	jle    566a <safe_mul_func_int32_t_s_s+0x28>
    565c:	b8 ff ff ff 7f       	mov    $0x7fffffff,%eax
    5661:	99                   	cltd   
    5662:	f7 7d f8             	idivl  -0x8(%rbp)
    5665:	39 45 fc             	cmp    %eax,-0x4(%rbp)
    5668:	7f 5d                	jg     56c7 <safe_mul_func_int32_t_s_s+0x85>
    566a:	83 7d fc 00          	cmpl   $0x0,-0x4(%rbp)
    566e:	7e 14                	jle    5684 <safe_mul_func_int32_t_s_s+0x42>
    5670:	83 7d f8 00          	cmpl   $0x0,-0x8(%rbp)
    5674:	7f 0e                	jg     5684 <safe_mul_func_int32_t_s_s+0x42>
    5676:	b8 00 00 00 80       	mov    $0x80000000,%eax
    567b:	99                   	cltd   
    567c:	f7 7d fc             	idivl  -0x4(%rbp)
    567f:	39 45 f8             	cmp    %eax,-0x8(%rbp)
    5682:	7c 43                	jl     56c7 <safe_mul_func_int32_t_s_s+0x85>
    5684:	83 7d fc 00          	cmpl   $0x0,-0x4(%rbp)
    5688:	7f 14                	jg     569e <safe_mul_func_int32_t_s_s+0x5c>
    568a:	83 7d f8 00          	cmpl   $0x0,-0x8(%rbp)
    568e:	7e 0e                	jle    569e <safe_mul_func_int32_t_s_s+0x5c>
    5690:	b8 00 00 00 80       	mov    $0x80000000,%eax
    5695:	99                   	cltd   
    5696:	f7 7d f8             	idivl  -0x8(%rbp)
    5699:	39 45 fc             	cmp    %eax,-0x4(%rbp)
    569c:	7c 29                	jl     56c7 <safe_mul_func_int32_t_s_s+0x85>
    569e:	83 7d fc 00          	cmpl   $0x0,-0x4(%rbp)
    56a2:	7f 1a                	jg     56be <safe_mul_func_int32_t_s_s+0x7c>
    56a4:	83 7d f8 00          	cmpl   $0x0,-0x8(%rbp)
    56a8:	7f 14                	jg     56be <safe_mul_func_int32_t_s_s+0x7c>
    56aa:	83 7d fc 00          	cmpl   $0x0,-0x4(%rbp)
    56ae:	74 0e                	je     56be <safe_mul_func_int32_t_s_s+0x7c>
    56b0:	b8 ff ff ff 7f       	mov    $0x7fffffff,%eax
    56b5:	99                   	cltd   
    56b6:	f7 7d fc             	idivl  -0x4(%rbp)
    56b9:	39 45 f8             	cmp    %eax,-0x8(%rbp)
    56bc:	7c 09                	jl     56c7 <safe_mul_func_int32_t_s_s+0x85>
    56be:	8b 45 fc             	mov    -0x4(%rbp),%eax
    56c1:	0f af 45 f8          	imul   -0x8(%rbp),%eax
    56c5:	eb 03                	jmp    56ca <safe_mul_func_int32_t_s_s+0x88>
    56c7:	8b 45 fc             	mov    -0x4(%rbp),%eax
    56ca:	5d                   	pop    %rbp
    56cb:	c3                   	retq   

00000000000056cc <safe_mod_func_int32_t_s_s>:
    56cc:	f3 0f 1e fa          	endbr64 
    56d0:	55                   	push   %rbp
    56d1:	48 89 e5             	mov    %rsp,%rbp
    56d4:	89 7d fc             	mov    %edi,-0x4(%rbp)
    56d7:	89 75 f8             	mov    %esi,-0x8(%rbp)
    56da:	83 7d f8 00          	cmpl   $0x0,-0x8(%rbp)
    56de:	74 1a                	je     56fa <safe_mod_func_int32_t_s_s+0x2e>
    56e0:	81 7d fc 00 00 00 80 	cmpl   $0x80000000,-0x4(%rbp)
    56e7:	75 06                	jne    56ef <safe_mod_func_int32_t_s_s+0x23>
    56e9:	83 7d f8 ff          	cmpl   $0xffffffff,-0x8(%rbp)
    56ed:	74 0b                	je     56fa <safe_mod_func_int32_t_s_s+0x2e>
    56ef:	8b 45 fc             	mov    -0x4(%rbp),%eax
    56f2:	99                   	cltd   
    56f3:	f7 7d f8             	idivl  -0x8(%rbp)
    56f6:	89 d0                	mov    %edx,%eax
    56f8:	eb 03                	jmp    56fd <safe_mod_func_int32_t_s_s+0x31>
    56fa:	8b 45 fc             	mov    -0x4(%rbp),%eax
    56fd:	5d                   	pop    %rbp
    56fe:	c3                   	retq   

00000000000056ff <safe_div_func_int32_t_s_s>:
    56ff:	f3 0f 1e fa          	endbr64 
    5703:	55                   	push   %rbp
    5704:	48 89 e5             	mov    %rsp,%rbp
    5707:	89 7d fc             	mov    %edi,-0x4(%rbp)
    570a:	89 75 f8             	mov    %esi,-0x8(%rbp)
    570d:	83 7d f8 00          	cmpl   $0x0,-0x8(%rbp)
    5711:	74 18                	je     572b <safe_div_func_int32_t_s_s+0x2c>
    5713:	81 7d fc 00 00 00 80 	cmpl   $0x80000000,-0x4(%rbp)
    571a:	75 06                	jne    5722 <safe_div_func_int32_t_s_s+0x23>
    571c:	83 7d f8 ff          	cmpl   $0xffffffff,-0x8(%rbp)
    5720:	74 09                	je     572b <safe_div_func_int32_t_s_s+0x2c>
    5722:	8b 45 fc             	mov    -0x4(%rbp),%eax
    5725:	99                   	cltd   
    5726:	f7 7d f8             	idivl  -0x8(%rbp)
    5729:	eb 03                	jmp    572e <safe_div_func_int32_t_s_s+0x2f>
    572b:	8b 45 fc             	mov    -0x4(%rbp),%eax
    572e:	5d                   	pop    %rbp
    572f:	c3                   	retq   

0000000000005730 <safe_lshift_func_int32_t_s_s>:
    5730:	f3 0f 1e fa          	endbr64 
    5734:	55                   	push   %rbp
    5735:	48 89 e5             	mov    %rsp,%rbp
    5738:	89 7d fc             	mov    %edi,-0x4(%rbp)
    573b:	89 75 f8             	mov    %esi,-0x8(%rbp)
    573e:	83 7d fc 00          	cmpl   $0x0,-0x4(%rbp)
    5742:	78 2d                	js     5771 <safe_lshift_func_int32_t_s_s+0x41>
    5744:	83 7d f8 00          	cmpl   $0x0,-0x8(%rbp)
    5748:	78 27                	js     5771 <safe_lshift_func_int32_t_s_s+0x41>
    574a:	83 7d f8 1f          	cmpl   $0x1f,-0x8(%rbp)
    574e:	7f 21                	jg     5771 <safe_lshift_func_int32_t_s_s+0x41>
    5750:	8b 45 f8             	mov    -0x8(%rbp),%eax
    5753:	ba ff ff ff 7f       	mov    $0x7fffffff,%edx
    5758:	89 c1                	mov    %eax,%ecx
    575a:	d3 fa                	sar    %cl,%edx
    575c:	89 d0                	mov    %edx,%eax
    575e:	39 45 fc             	cmp    %eax,-0x4(%rbp)
    5761:	7f 0e                	jg     5771 <safe_lshift_func_int32_t_s_s+0x41>
    5763:	8b 45 f8             	mov    -0x8(%rbp),%eax
    5766:	8b 55 fc             	mov    -0x4(%rbp),%edx
    5769:	89 c1                	mov    %eax,%ecx
    576b:	d3 e2                	shl    %cl,%edx
    576d:	89 d0                	mov    %edx,%eax
    576f:	eb 03                	jmp    5774 <safe_lshift_func_int32_t_s_s+0x44>
    5771:	8b 45 fc             	mov    -0x4(%rbp),%eax
    5774:	5d                   	pop    %rbp
    5775:	c3                   	retq   

0000000000005776 <safe_lshift_func_int32_t_s_u>:
    5776:	f3 0f 1e fa          	endbr64 
    577a:	55                   	push   %rbp
    577b:	48 89 e5             	mov    %rsp,%rbp
    577e:	89 7d fc             	mov    %edi,-0x4(%rbp)
    5781:	89 75 f8             	mov    %esi,-0x8(%rbp)
    5784:	83 7d fc 00          	cmpl   $0x0,-0x4(%rbp)
    5788:	78 27                	js     57b1 <safe_lshift_func_int32_t_s_u+0x3b>
    578a:	83 7d f8 1f          	cmpl   $0x1f,-0x8(%rbp)
    578e:	77 21                	ja     57b1 <safe_lshift_func_int32_t_s_u+0x3b>
    5790:	8b 45 f8             	mov    -0x8(%rbp),%eax
    5793:	ba ff ff ff 7f       	mov    $0x7fffffff,%edx
    5798:	89 c1                	mov    %eax,%ecx
    579a:	d3 fa                	sar    %cl,%edx
    579c:	89 d0                	mov    %edx,%eax
    579e:	39 45 fc             	cmp    %eax,-0x4(%rbp)
    57a1:	7f 0e                	jg     57b1 <safe_lshift_func_int32_t_s_u+0x3b>
    57a3:	8b 45 f8             	mov    -0x8(%rbp),%eax
    57a6:	8b 55 fc             	mov    -0x4(%rbp),%edx
    57a9:	89 c1                	mov    %eax,%ecx
    57ab:	d3 e2                	shl    %cl,%edx
    57ad:	89 d0                	mov    %edx,%eax
    57af:	eb 03                	jmp    57b4 <safe_lshift_func_int32_t_s_u+0x3e>
    57b1:	8b 45 fc             	mov    -0x4(%rbp),%eax
    57b4:	5d                   	pop    %rbp
    57b5:	c3                   	retq   

00000000000057b6 <safe_rshift_func_int32_t_s_s>:
    57b6:	f3 0f 1e fa          	endbr64 
    57ba:	55                   	push   %rbp
    57bb:	48 89 e5             	mov    %rsp,%rbp
    57be:	89 7d fc             	mov    %edi,-0x4(%rbp)
    57c1:	89 75 f8             	mov    %esi,-0x8(%rbp)
    57c4:	83 7d fc 00          	cmpl   $0x0,-0x4(%rbp)
    57c8:	78 1a                	js     57e4 <safe_rshift_func_int32_t_s_s+0x2e>
    57ca:	83 7d f8 00          	cmpl   $0x0,-0x8(%rbp)
    57ce:	78 14                	js     57e4 <safe_rshift_func_int32_t_s_s+0x2e>
    57d0:	83 7d f8 1f          	cmpl   $0x1f,-0x8(%rbp)
    57d4:	7f 0e                	jg     57e4 <safe_rshift_func_int32_t_s_s+0x2e>
    57d6:	8b 45 f8             	mov    -0x8(%rbp),%eax
    57d9:	8b 55 fc             	mov    -0x4(%rbp),%edx
    57dc:	89 c1                	mov    %eax,%ecx
    57de:	d3 fa                	sar    %cl,%edx
    57e0:	89 d0                	mov    %edx,%eax
    57e2:	eb 03                	jmp    57e7 <safe_rshift_func_int32_t_s_s+0x31>
    57e4:	8b 45 fc             	mov    -0x4(%rbp),%eax
    57e7:	5d                   	pop    %rbp
    57e8:	c3                   	retq   

00000000000057e9 <safe_rshift_func_int32_t_s_u>:
    57e9:	f3 0f 1e fa          	endbr64 
    57ed:	55                   	push   %rbp
    57ee:	48 89 e5             	mov    %rsp,%rbp
    57f1:	89 7d fc             	mov    %edi,-0x4(%rbp)
    57f4:	89 75 f8             	mov    %esi,-0x8(%rbp)
    57f7:	83 7d fc 00          	cmpl   $0x0,-0x4(%rbp)
    57fb:	78 14                	js     5811 <safe_rshift_func_int32_t_s_u+0x28>
    57fd:	83 7d f8 1f          	cmpl   $0x1f,-0x8(%rbp)
    5801:	77 0e                	ja     5811 <safe_rshift_func_int32_t_s_u+0x28>
    5803:	8b 45 f8             	mov    -0x8(%rbp),%eax
    5806:	8b 55 fc             	mov    -0x4(%rbp),%edx
    5809:	89 c1                	mov    %eax,%ecx
    580b:	d3 fa                	sar    %cl,%edx
    580d:	89 d0                	mov    %edx,%eax
    580f:	eb 03                	jmp    5814 <safe_rshift_func_int32_t_s_u+0x2b>
    5811:	8b 45 fc             	mov    -0x4(%rbp),%eax
    5814:	5d                   	pop    %rbp
    5815:	c3                   	retq   

0000000000005816 <safe_unary_minus_func_int64_t_s>:
    5816:	f3 0f 1e fa          	endbr64 
    581a:	55                   	push   %rbp
    581b:	48 89 e5             	mov    %rsp,%rbp
    581e:	48 89 7d f8          	mov    %rdi,-0x8(%rbp)
    5822:	48 b8 00 00 00 00 00 	movabs $0x8000000000000000,%rax
    5829:	00 00 80 
    582c:	48 39 45 f8          	cmp    %rax,-0x8(%rbp)
    5830:	74 09                	je     583b <safe_unary_minus_func_int64_t_s+0x25>
    5832:	48 8b 45 f8          	mov    -0x8(%rbp),%rax
    5836:	48 f7 d8             	neg    %rax
    5839:	eb 04                	jmp    583f <safe_unary_minus_func_int64_t_s+0x29>
    583b:	48 8b 45 f8          	mov    -0x8(%rbp),%rax
    583f:	5d                   	pop    %rbp
    5840:	c3                   	retq   

0000000000005841 <safe_add_func_int64_t_s_s>:
    5841:	f3 0f 1e fa          	endbr64 
    5845:	55                   	push   %rbp
    5846:	48 89 e5             	mov    %rsp,%rbp
    5849:	48 89 7d f8          	mov    %rdi,-0x8(%rbp)
    584d:	48 89 75 f0          	mov    %rsi,-0x10(%rbp)
    5851:	48 83 7d f8 00       	cmpq   $0x0,-0x8(%rbp)
    5856:	7e 1b                	jle    5873 <safe_add_func_int64_t_s_s+0x32>
    5858:	48 83 7d f0 00       	cmpq   $0x0,-0x10(%rbp)
    585d:	7e 14                	jle    5873 <safe_add_func_int64_t_s_s+0x32>
    585f:	48 b8 ff ff ff ff ff 	movabs $0x7fffffffffffffff,%rax
    5866:	ff ff 7f 
    5869:	48 2b 45 f0          	sub    -0x10(%rbp),%rax
    586d:	48 39 45 f8          	cmp    %rax,-0x8(%rbp)
    5871:	7f 2f                	jg     58a2 <safe_add_func_int64_t_s_s+0x61>
    5873:	48 83 7d f8 00       	cmpq   $0x0,-0x8(%rbp)
    5878:	79 1b                	jns    5895 <safe_add_func_int64_t_s_s+0x54>
    587a:	48 83 7d f0 00       	cmpq   $0x0,-0x10(%rbp)
    587f:	79 14                	jns    5895 <safe_add_func_int64_t_s_s+0x54>
    5881:	48 b8 00 00 00 00 00 	movabs $0x8000000000000000,%rax
    5888:	00 00 80 
    588b:	48 2b 45 f0          	sub    -0x10(%rbp),%rax
    588f:	48 39 45 f8          	cmp    %rax,-0x8(%rbp)
    5893:	7c 0d                	jl     58a2 <safe_add_func_int64_t_s_s+0x61>
    5895:	48 8b 55 f8          	mov    -0x8(%rbp),%rdx
    5899:	48 8b 45 f0          	mov    -0x10(%rbp),%rax
    589d:	48 01 d0             	add    %rdx,%rax
    58a0:	eb 04                	jmp    58a6 <safe_add_func_int64_t_s_s+0x65>
    58a2:	48 8b 45 f8          	mov    -0x8(%rbp),%rax
    58a6:	5d                   	pop    %rbp
    58a7:	c3                   	retq   

00000000000058a8 <safe_sub_func_int64_t_s_s>:
    58a8:	f3 0f 1e fa          	endbr64 
    58ac:	55                   	push   %rbp
    58ad:	48 89 e5             	mov    %rsp,%rbp
    58b0:	48 89 7d f8          	mov    %rdi,-0x8(%rbp)
    58b4:	48 89 75 f0          	mov    %rsi,-0x10(%rbp)
    58b8:	48 8b 45 f8          	mov    -0x8(%rbp),%rax
    58bc:	48 33 45 f0          	xor    -0x10(%rbp),%rax
    58c0:	48 89 c2             	mov    %rax,%rdx
    58c3:	48 8b 45 f8          	mov    -0x8(%rbp),%rax
    58c7:	48 33 45 f0          	xor    -0x10(%rbp),%rax
    58cb:	48 b9 00 00 00 00 00 	movabs $0x8000000000000000,%rcx
    58d2:	00 00 80 
    58d5:	48 21 c8             	and    %rcx,%rax
    58d8:	48 33 45 f8          	xor    -0x8(%rbp),%rax
    58dc:	48 2b 45 f0          	sub    -0x10(%rbp),%rax
    58e0:	48 33 45 f0          	xor    -0x10(%rbp),%rax
    58e4:	48 21 d0             	and    %rdx,%rax
    58e7:	48 85 c0             	test   %rax,%rax
    58ea:	78 0a                	js     58f6 <safe_sub_func_int64_t_s_s+0x4e>
    58ec:	48 8b 45 f8          	mov    -0x8(%rbp),%rax
    58f0:	48 2b 45 f0          	sub    -0x10(%rbp),%rax
    58f4:	eb 04                	jmp    58fa <safe_sub_func_int64_t_s_s+0x52>
    58f6:	48 8b 45 f8          	mov    -0x8(%rbp),%rax
    58fa:	5d                   	pop    %rbp
    58fb:	c3                   	retq   

00000000000058fc <safe_mul_func_int64_t_s_s>:
    58fc:	f3 0f 1e fa          	endbr64 
    5900:	55                   	push   %rbp
    5901:	48 89 e5             	mov    %rsp,%rbp
    5904:	48 89 7d f8          	mov    %rdi,-0x8(%rbp)
    5908:	48 89 75 f0          	mov    %rsi,-0x10(%rbp)
    590c:	48 83 7d f8 00       	cmpq   $0x0,-0x8(%rbp)
    5911:	7e 1d                	jle    5930 <safe_mul_func_int64_t_s_s+0x34>
    5913:	48 83 7d f0 00       	cmpq   $0x0,-0x10(%rbp)
    5918:	7e 16                	jle    5930 <safe_mul_func_int64_t_s_s+0x34>
    591a:	48 b8 ff ff ff ff ff 	movabs $0x7fffffffffffffff,%rax
    5921:	ff ff 7f 
    5924:	48 99                	cqto   
    5926:	48 f7 7d f0          	idivq  -0x10(%rbp)
    592a:	48 39 45 f8          	cmp    %rax,-0x8(%rbp)
    592e:	7f 7e                	jg     59ae <safe_mul_func_int64_t_s_s+0xb2>
    5930:	48 83 7d f8 00       	cmpq   $0x0,-0x8(%rbp)
    5935:	7e 1d                	jle    5954 <safe_mul_func_int64_t_s_s+0x58>
    5937:	48 83 7d f0 00       	cmpq   $0x0,-0x10(%rbp)
    593c:	7f 16                	jg     5954 <safe_mul_func_int64_t_s_s+0x58>
    593e:	48 b8 00 00 00 00 00 	movabs $0x8000000000000000,%rax
    5945:	00 00 80 
    5948:	48 99                	cqto   
    594a:	48 f7 7d f8          	idivq  -0x8(%rbp)
    594e:	48 39 45 f0          	cmp    %rax,-0x10(%rbp)
    5952:	7c 5a                	jl     59ae <safe_mul_func_int64_t_s_s+0xb2>
    5954:	48 83 7d f8 00       	cmpq   $0x0,-0x8(%rbp)
    5959:	7f 1d                	jg     5978 <safe_mul_func_int64_t_s_s+0x7c>
    595b:	48 83 7d f0 00       	cmpq   $0x0,-0x10(%rbp)
    5960:	7e 16                	jle    5978 <safe_mul_func_int64_t_s_s+0x7c>
    5962:	48 b8 00 00 00 00 00 	movabs $0x8000000000000000,%rax
    5969:	00 00 80 
    596c:	48 99                	cqto   
    596e:	48 f7 7d f0          	idivq  -0x10(%rbp)
    5972:	48 39 45 f8          	cmp    %rax,-0x8(%rbp)
    5976:	7c 36                	jl     59ae <safe_mul_func_int64_t_s_s+0xb2>
    5978:	48 83 7d f8 00       	cmpq   $0x0,-0x8(%rbp)
    597d:	7f 24                	jg     59a3 <safe_mul_func_int64_t_s_s+0xa7>
    597f:	48 83 7d f0 00       	cmpq   $0x0,-0x10(%rbp)
    5984:	7f 1d                	jg     59a3 <safe_mul_func_int64_t_s_s+0xa7>
    5986:	48 83 7d f8 00       	cmpq   $0x0,-0x8(%rbp)
    598b:	74 16                	je     59a3 <safe_mul_func_int64_t_s_s+0xa7>
    598d:	48 b8 ff ff ff ff ff 	movabs $0x7fffffffffffffff,%rax
    5994:	ff ff 7f 
    5997:	48 99                	cqto   
    5999:	48 f7 7d f8          	idivq  -0x8(%rbp)
    599d:	48 39 45 f0          	cmp    %rax,-0x10(%rbp)
    59a1:	7c 0b                	jl     59ae <safe_mul_func_int64_t_s_s+0xb2>
    59a3:	48 8b 45 f8          	mov    -0x8(%rbp),%rax
    59a7:	48 0f af 45 f0       	imul   -0x10(%rbp),%rax
    59ac:	eb 04                	jmp    59b2 <safe_mul_func_int64_t_s_s+0xb6>
    59ae:	48 8b 45 f8          	mov    -0x8(%rbp),%rax
    59b2:	5d                   	pop    %rbp
    59b3:	c3                   	retq   

00000000000059b4 <safe_mod_func_int64_t_s_s>:
    59b4:	f3 0f 1e fa          	endbr64 
    59b8:	55                   	push   %rbp
    59b9:	48 89 e5             	mov    %rsp,%rbp
    59bc:	48 89 7d f8          	mov    %rdi,-0x8(%rbp)
    59c0:	48 89 75 f0          	mov    %rsi,-0x10(%rbp)
    59c4:	48 83 7d f0 00       	cmpq   $0x0,-0x10(%rbp)
    59c9:	74 26                	je     59f1 <safe_mod_func_int64_t_s_s+0x3d>
    59cb:	48 b8 00 00 00 00 00 	movabs $0x8000000000000000,%rax
    59d2:	00 00 80 
    59d5:	48 39 45 f8          	cmp    %rax,-0x8(%rbp)
    59d9:	75 07                	jne    59e2 <safe_mod_func_int64_t_s_s+0x2e>
    59db:	48 83 7d f0 ff       	cmpq   $0xffffffffffffffff,-0x10(%rbp)
    59e0:	74 0f                	je     59f1 <safe_mod_func_int64_t_s_s+0x3d>
    59e2:	48 8b 45 f8          	mov    -0x8(%rbp),%rax
    59e6:	48 99                	cqto   
    59e8:	48 f7 7d f0          	idivq  -0x10(%rbp)
    59ec:	48 89 d0             	mov    %rdx,%rax
    59ef:	eb 04                	jmp    59f5 <safe_mod_func_int64_t_s_s+0x41>
    59f1:	48 8b 45 f8          	mov    -0x8(%rbp),%rax
    59f5:	5d                   	pop    %rbp
    59f6:	c3                   	retq   

00000000000059f7 <safe_div_func_int64_t_s_s>:
    59f7:	f3 0f 1e fa          	endbr64 
    59fb:	55                   	push   %rbp
    59fc:	48 89 e5             	mov    %rsp,%rbp
    59ff:	48 89 7d f8          	mov    %rdi,-0x8(%rbp)
    5a03:	48 89 75 f0          	mov    %rsi,-0x10(%rbp)
    5a07:	48 83 7d f0 00       	cmpq   $0x0,-0x10(%rbp)
    5a0c:	74 23                	je     5a31 <safe_div_func_int64_t_s_s+0x3a>
    5a0e:	48 b8 00 00 00 00 00 	movabs $0x8000000000000000,%rax
    5a15:	00 00 80 
    5a18:	48 39 45 f8          	cmp    %rax,-0x8(%rbp)
    5a1c:	75 07                	jne    5a25 <safe_div_func_int64_t_s_s+0x2e>
    5a1e:	48 83 7d f0 ff       	cmpq   $0xffffffffffffffff,-0x10(%rbp)
    5a23:	74 0c                	je     5a31 <safe_div_func_int64_t_s_s+0x3a>
    5a25:	48 8b 45 f8          	mov    -0x8(%rbp),%rax
    5a29:	48 99                	cqto   
    5a2b:	48 f7 7d f0          	idivq  -0x10(%rbp)
    5a2f:	eb 04                	jmp    5a35 <safe_div_func_int64_t_s_s+0x3e>
    5a31:	48 8b 45 f8          	mov    -0x8(%rbp),%rax
    5a35:	5d                   	pop    %rbp
    5a36:	c3                   	retq   

0000000000005a37 <safe_lshift_func_int64_t_s_s>:
    5a37:	f3 0f 1e fa          	endbr64 
    5a3b:	55                   	push   %rbp
    5a3c:	48 89 e5             	mov    %rsp,%rbp
    5a3f:	48 89 7d f8          	mov    %rdi,-0x8(%rbp)
    5a43:	89 75 f4             	mov    %esi,-0xc(%rbp)
    5a46:	48 83 7d f8 00       	cmpq   $0x0,-0x8(%rbp)
    5a4b:	78 38                	js     5a85 <safe_lshift_func_int64_t_s_s+0x4e>
    5a4d:	83 7d f4 00          	cmpl   $0x0,-0xc(%rbp)
    5a51:	78 32                	js     5a85 <safe_lshift_func_int64_t_s_s+0x4e>
    5a53:	83 7d f4 1f          	cmpl   $0x1f,-0xc(%rbp)
    5a57:	7f 2c                	jg     5a85 <safe_lshift_func_int64_t_s_s+0x4e>
    5a59:	8b 45 f4             	mov    -0xc(%rbp),%eax
    5a5c:	48 ba ff ff ff ff ff 	movabs $0x7fffffffffffffff,%rdx
    5a63:	ff ff 7f 
    5a66:	89 c1                	mov    %eax,%ecx
    5a68:	48 d3 fa             	sar    %cl,%rdx
    5a6b:	48 89 d0             	mov    %rdx,%rax
    5a6e:	48 39 45 f8          	cmp    %rax,-0x8(%rbp)
    5a72:	7f 11                	jg     5a85 <safe_lshift_func_int64_t_s_s+0x4e>
    5a74:	8b 45 f4             	mov    -0xc(%rbp),%eax
    5a77:	48 8b 55 f8          	mov    -0x8(%rbp),%rdx
    5a7b:	89 c1                	mov    %eax,%ecx
    5a7d:	48 d3 e2             	shl    %cl,%rdx
    5a80:	48 89 d0             	mov    %rdx,%rax
    5a83:	eb 04                	jmp    5a89 <safe_lshift_func_int64_t_s_s+0x52>
    5a85:	48 8b 45 f8          	mov    -0x8(%rbp),%rax
    5a89:	5d                   	pop    %rbp
    5a8a:	c3                   	retq   

0000000000005a8b <safe_lshift_func_int64_t_s_u>:
    5a8b:	f3 0f 1e fa          	endbr64 
    5a8f:	55                   	push   %rbp
    5a90:	48 89 e5             	mov    %rsp,%rbp
    5a93:	48 89 7d f8          	mov    %rdi,-0x8(%rbp)
    5a97:	89 75 f4             	mov    %esi,-0xc(%rbp)
    5a9a:	48 83 7d f8 00       	cmpq   $0x0,-0x8(%rbp)
    5a9f:	78 32                	js     5ad3 <safe_lshift_func_int64_t_s_u+0x48>
    5aa1:	83 7d f4 1f          	cmpl   $0x1f,-0xc(%rbp)
    5aa5:	77 2c                	ja     5ad3 <safe_lshift_func_int64_t_s_u+0x48>
    5aa7:	8b 45 f4             	mov    -0xc(%rbp),%eax
    5aaa:	48 ba ff ff ff ff ff 	movabs $0x7fffffffffffffff,%rdx
    5ab1:	ff ff 7f 
    5ab4:	89 c1                	mov    %eax,%ecx
    5ab6:	48 d3 fa             	sar    %cl,%rdx
    5ab9:	48 89 d0             	mov    %rdx,%rax
    5abc:	48 39 45 f8          	cmp    %rax,-0x8(%rbp)
    5ac0:	7f 11                	jg     5ad3 <safe_lshift_func_int64_t_s_u+0x48>
    5ac2:	8b 45 f4             	mov    -0xc(%rbp),%eax
    5ac5:	48 8b 55 f8          	mov    -0x8(%rbp),%rdx
    5ac9:	89 c1                	mov    %eax,%ecx
    5acb:	48 d3 e2             	shl    %cl,%rdx
    5ace:	48 89 d0             	mov    %rdx,%rax
    5ad1:	eb 04                	jmp    5ad7 <safe_lshift_func_int64_t_s_u+0x4c>
    5ad3:	48 8b 45 f8          	mov    -0x8(%rbp),%rax
    5ad7:	5d                   	pop    %rbp
    5ad8:	c3                   	retq   

0000000000005ad9 <safe_rshift_func_int64_t_s_s>:
    5ad9:	f3 0f 1e fa          	endbr64 
    5add:	55                   	push   %rbp
    5ade:	48 89 e5             	mov    %rsp,%rbp
    5ae1:	48 89 7d f8          	mov    %rdi,-0x8(%rbp)
    5ae5:	89 75 f4             	mov    %esi,-0xc(%rbp)
    5ae8:	48 83 7d f8 00       	cmpq   $0x0,-0x8(%rbp)
    5aed:	78 1d                	js     5b0c <safe_rshift_func_int64_t_s_s+0x33>
    5aef:	83 7d f4 00          	cmpl   $0x0,-0xc(%rbp)
    5af3:	78 17                	js     5b0c <safe_rshift_func_int64_t_s_s+0x33>
    5af5:	83 7d f4 1f          	cmpl   $0x1f,-0xc(%rbp)
    5af9:	7f 11                	jg     5b0c <safe_rshift_func_int64_t_s_s+0x33>
    5afb:	8b 45 f4             	mov    -0xc(%rbp),%eax
    5afe:	48 8b 55 f8          	mov    -0x8(%rbp),%rdx
    5b02:	89 c1                	mov    %eax,%ecx
    5b04:	48 d3 fa             	sar    %cl,%rdx
    5b07:	48 89 d0             	mov    %rdx,%rax
    5b0a:	eb 04                	jmp    5b10 <safe_rshift_func_int64_t_s_s+0x37>
    5b0c:	48 8b 45 f8          	mov    -0x8(%rbp),%rax
    5b10:	5d                   	pop    %rbp
    5b11:	c3                   	retq   

0000000000005b12 <safe_rshift_func_int64_t_s_u>:
    5b12:	f3 0f 1e fa          	endbr64 
    5b16:	55                   	push   %rbp
    5b17:	48 89 e5             	mov    %rsp,%rbp
    5b1a:	48 89 7d f8          	mov    %rdi,-0x8(%rbp)
    5b1e:	89 75 f4             	mov    %esi,-0xc(%rbp)
    5b21:	48 83 7d f8 00       	cmpq   $0x0,-0x8(%rbp)
    5b26:	78 17                	js     5b3f <safe_rshift_func_int64_t_s_u+0x2d>
    5b28:	83 7d f4 1f          	cmpl   $0x1f,-0xc(%rbp)
    5b2c:	77 11                	ja     5b3f <safe_rshift_func_int64_t_s_u+0x2d>
    5b2e:	8b 45 f4             	mov    -0xc(%rbp),%eax
    5b31:	48 8b 55 f8          	mov    -0x8(%rbp),%rdx
    5b35:	89 c1                	mov    %eax,%ecx
    5b37:	48 d3 fa             	sar    %cl,%rdx
    5b3a:	48 89 d0             	mov    %rdx,%rax
    5b3d:	eb 04                	jmp    5b43 <safe_rshift_func_int64_t_s_u+0x31>
    5b3f:	48 8b 45 f8          	mov    -0x8(%rbp),%rax
    5b43:	5d                   	pop    %rbp
    5b44:	c3                   	retq   

0000000000005b45 <safe_unary_minus_func_uint8_t_u>:
    5b45:	f3 0f 1e fa          	endbr64 
    5b49:	55                   	push   %rbp
    5b4a:	48 89 e5             	mov    %rsp,%rbp
    5b4d:	89 f8                	mov    %edi,%eax
    5b4f:	88 45 fc             	mov    %al,-0x4(%rbp)
    5b52:	0f b6 45 fc          	movzbl -0x4(%rbp),%eax
    5b56:	f7 d8                	neg    %eax
    5b58:	5d                   	pop    %rbp
    5b59:	c3                   	retq   

0000000000005b5a <safe_add_func_uint8_t_u_u>:
    5b5a:	f3 0f 1e fa          	endbr64 
    5b5e:	55                   	push   %rbp
    5b5f:	48 89 e5             	mov    %rsp,%rbp
    5b62:	89 fa                	mov    %edi,%edx
    5b64:	89 f0                	mov    %esi,%eax
    5b66:	88 55 fc             	mov    %dl,-0x4(%rbp)
    5b69:	88 45 f8             	mov    %al,-0x8(%rbp)
    5b6c:	0f b6 55 fc          	movzbl -0x4(%rbp),%edx
    5b70:	0f b6 45 f8          	movzbl -0x8(%rbp),%eax
    5b74:	01 d0                	add    %edx,%eax
    5b76:	5d                   	pop    %rbp
    5b77:	c3                   	retq   

0000000000005b78 <safe_sub_func_uint8_t_u_u>:
    5b78:	f3 0f 1e fa          	endbr64 
    5b7c:	55                   	push   %rbp
    5b7d:	48 89 e5             	mov    %rsp,%rbp
    5b80:	89 fa                	mov    %edi,%edx
    5b82:	89 f0                	mov    %esi,%eax
    5b84:	88 55 fc             	mov    %dl,-0x4(%rbp)
    5b87:	88 45 f8             	mov    %al,-0x8(%rbp)
    5b8a:	0f b6 45 fc          	movzbl -0x4(%rbp),%eax
    5b8e:	2a 45 f8             	sub    -0x8(%rbp),%al
    5b91:	5d                   	pop    %rbp
    5b92:	c3                   	retq   

0000000000005b93 <safe_mul_func_uint8_t_u_u>:
    5b93:	f3 0f 1e fa          	endbr64 
    5b97:	55                   	push   %rbp
    5b98:	48 89 e5             	mov    %rsp,%rbp
    5b9b:	89 fa                	mov    %edi,%edx
    5b9d:	89 f0                	mov    %esi,%eax
    5b9f:	88 55 fc             	mov    %dl,-0x4(%rbp)
    5ba2:	88 45 f8             	mov    %al,-0x8(%rbp)
    5ba5:	0f b6 45 fc          	movzbl -0x4(%rbp),%eax
    5ba9:	f6 65 f8             	mulb   -0x8(%rbp)
    5bac:	5d                   	pop    %rbp
    5bad:	c3                   	retq   

0000000000005bae <safe_mod_func_uint8_t_u_u>:
    5bae:	f3 0f 1e fa          	endbr64 
    5bb2:	55                   	push   %rbp
    5bb3:	48 89 e5             	mov    %rsp,%rbp
    5bb6:	89 fa                	mov    %edi,%edx
    5bb8:	89 f0                	mov    %esi,%eax
    5bba:	88 55 fc             	mov    %dl,-0x4(%rbp)
    5bbd:	88 45 f8             	mov    %al,-0x8(%rbp)
    5bc0:	80 7d f8 00          	cmpb   $0x0,-0x8(%rbp)
    5bc4:	74 0f                	je     5bd5 <safe_mod_func_uint8_t_u_u+0x27>
    5bc6:	0f b6 45 fc          	movzbl -0x4(%rbp),%eax
    5bca:	0f b6 c0             	movzbl %al,%eax
    5bcd:	f6 75 f8             	divb   -0x8(%rbp)
    5bd0:	0f b6 c4             	movzbl %ah,%eax
    5bd3:	eb 04                	jmp    5bd9 <safe_mod_func_uint8_t_u_u+0x2b>
    5bd5:	0f b6 45 fc          	movzbl -0x4(%rbp),%eax
    5bd9:	5d                   	pop    %rbp
    5bda:	c3                   	retq   

0000000000005bdb <safe_div_func_uint8_t_u_u>:
    5bdb:	f3 0f 1e fa          	endbr64 
    5bdf:	55                   	push   %rbp
    5be0:	48 89 e5             	mov    %rsp,%rbp
    5be3:	89 fa                	mov    %edi,%edx
    5be5:	89 f0                	mov    %esi,%eax
    5be7:	88 55 fc             	mov    %dl,-0x4(%rbp)
    5bea:	88 45 f8             	mov    %al,-0x8(%rbp)
    5bed:	80 7d f8 00          	cmpb   $0x0,-0x8(%rbp)
    5bf1:	74 0c                	je     5bff <safe_div_func_uint8_t_u_u+0x24>
    5bf3:	0f b6 45 fc          	movzbl -0x4(%rbp),%eax
    5bf7:	0f b6 c0             	movzbl %al,%eax
    5bfa:	f6 75 f8             	divb   -0x8(%rbp)
    5bfd:	eb 04                	jmp    5c03 <safe_div_func_uint8_t_u_u+0x28>
    5bff:	0f b6 45 fc          	movzbl -0x4(%rbp),%eax
    5c03:	5d                   	pop    %rbp
    5c04:	c3                   	retq   

0000000000005c05 <safe_lshift_func_uint8_t_u_s>:
    5c05:	f3 0f 1e fa          	endbr64 
    5c09:	55                   	push   %rbp
    5c0a:	48 89 e5             	mov    %rsp,%rbp
    5c0d:	89 f8                	mov    %edi,%eax
    5c0f:	89 75 f8             	mov    %esi,-0x8(%rbp)
    5c12:	88 45 fc             	mov    %al,-0x4(%rbp)
    5c15:	83 7d f8 00          	cmpl   $0x0,-0x8(%rbp)
    5c19:	78 2b                	js     5c46 <safe_lshift_func_uint8_t_u_s+0x41>
    5c1b:	83 7d f8 1f          	cmpl   $0x1f,-0x8(%rbp)
    5c1f:	7f 25                	jg     5c46 <safe_lshift_func_uint8_t_u_s+0x41>
    5c21:	0f b6 55 fc          	movzbl -0x4(%rbp),%edx
    5c25:	8b 45 f8             	mov    -0x8(%rbp),%eax
    5c28:	be ff 00 00 00       	mov    $0xff,%esi
    5c2d:	89 c1                	mov    %eax,%ecx
    5c2f:	d3 fe                	sar    %cl,%esi
    5c31:	89 f0                	mov    %esi,%eax
    5c33:	39 c2                	cmp    %eax,%edx
    5c35:	7f 0f                	jg     5c46 <safe_lshift_func_uint8_t_u_s+0x41>
    5c37:	0f b6 55 fc          	movzbl -0x4(%rbp),%edx
    5c3b:	8b 45 f8             	mov    -0x8(%rbp),%eax
    5c3e:	89 c1                	mov    %eax,%ecx
    5c40:	d3 e2                	shl    %cl,%edx
    5c42:	89 d0                	mov    %edx,%eax
    5c44:	eb 04                	jmp    5c4a <safe_lshift_func_uint8_t_u_s+0x45>
    5c46:	0f b6 45 fc          	movzbl -0x4(%rbp),%eax
    5c4a:	5d                   	pop    %rbp
    5c4b:	c3                   	retq   

0000000000005c4c <safe_lshift_func_uint8_t_u_u>:
    5c4c:	f3 0f 1e fa          	endbr64 
    5c50:	55                   	push   %rbp
    5c51:	48 89 e5             	mov    %rsp,%rbp
    5c54:	89 f8                	mov    %edi,%eax
    5c56:	89 75 f8             	mov    %esi,-0x8(%rbp)
    5c59:	88 45 fc             	mov    %al,-0x4(%rbp)
    5c5c:	83 7d f8 1f          	cmpl   $0x1f,-0x8(%rbp)
    5c60:	77 25                	ja     5c87 <safe_lshift_func_uint8_t_u_u+0x3b>
    5c62:	0f b6 55 fc          	movzbl -0x4(%rbp),%edx
    5c66:	8b 45 f8             	mov    -0x8(%rbp),%eax
    5c69:	be ff 00 00 00       	mov    $0xff,%esi
    5c6e:	89 c1                	mov    %eax,%ecx
    5c70:	d3 fe                	sar    %cl,%esi
    5c72:	89 f0                	mov    %esi,%eax
    5c74:	39 c2                	cmp    %eax,%edx
    5c76:	7f 0f                	jg     5c87 <safe_lshift_func_uint8_t_u_u+0x3b>
    5c78:	0f b6 55 fc          	movzbl -0x4(%rbp),%edx
    5c7c:	8b 45 f8             	mov    -0x8(%rbp),%eax
    5c7f:	89 c1                	mov    %eax,%ecx
    5c81:	d3 e2                	shl    %cl,%edx
    5c83:	89 d0                	mov    %edx,%eax
    5c85:	eb 04                	jmp    5c8b <safe_lshift_func_uint8_t_u_u+0x3f>
    5c87:	0f b6 45 fc          	movzbl -0x4(%rbp),%eax
    5c8b:	5d                   	pop    %rbp
    5c8c:	c3                   	retq   

0000000000005c8d <safe_rshift_func_uint8_t_u_s>:
    5c8d:	f3 0f 1e fa          	endbr64 
    5c91:	55                   	push   %rbp
    5c92:	48 89 e5             	mov    %rsp,%rbp
    5c95:	89 f8                	mov    %edi,%eax
    5c97:	89 75 f8             	mov    %esi,-0x8(%rbp)
    5c9a:	88 45 fc             	mov    %al,-0x4(%rbp)
    5c9d:	83 7d f8 00          	cmpl   $0x0,-0x8(%rbp)
    5ca1:	78 15                	js     5cb8 <safe_rshift_func_uint8_t_u_s+0x2b>
    5ca3:	83 7d f8 1f          	cmpl   $0x1f,-0x8(%rbp)
    5ca7:	7f 0f                	jg     5cb8 <safe_rshift_func_uint8_t_u_s+0x2b>
    5ca9:	0f b6 55 fc          	movzbl -0x4(%rbp),%edx
    5cad:	8b 45 f8             	mov    -0x8(%rbp),%eax
    5cb0:	89 c1                	mov    %eax,%ecx
    5cb2:	d3 fa                	sar    %cl,%edx
    5cb4:	89 d0                	mov    %edx,%eax
    5cb6:	eb 04                	jmp    5cbc <safe_rshift_func_uint8_t_u_s+0x2f>
    5cb8:	0f b6 45 fc          	movzbl -0x4(%rbp),%eax
    5cbc:	5d                   	pop    %rbp
    5cbd:	c3                   	retq   

0000000000005cbe <safe_rshift_func_uint8_t_u_u>:
    5cbe:	f3 0f 1e fa          	endbr64 
    5cc2:	55                   	push   %rbp
    5cc3:	48 89 e5             	mov    %rsp,%rbp
    5cc6:	89 f8                	mov    %edi,%eax
    5cc8:	89 75 f8             	mov    %esi,-0x8(%rbp)
    5ccb:	88 45 fc             	mov    %al,-0x4(%rbp)
    5cce:	83 7d f8 1f          	cmpl   $0x1f,-0x8(%rbp)
    5cd2:	77 0f                	ja     5ce3 <safe_rshift_func_uint8_t_u_u+0x25>
    5cd4:	0f b6 55 fc          	movzbl -0x4(%rbp),%edx
    5cd8:	8b 45 f8             	mov    -0x8(%rbp),%eax
    5cdb:	89 c1                	mov    %eax,%ecx
    5cdd:	d3 fa                	sar    %cl,%edx
    5cdf:	89 d0                	mov    %edx,%eax
    5ce1:	eb 04                	jmp    5ce7 <safe_rshift_func_uint8_t_u_u+0x29>
    5ce3:	0f b6 45 fc          	movzbl -0x4(%rbp),%eax
    5ce7:	5d                   	pop    %rbp
    5ce8:	c3                   	retq   

0000000000005ce9 <safe_unary_minus_func_uint16_t_u>:
    5ce9:	f3 0f 1e fa          	endbr64 
    5ced:	55                   	push   %rbp
    5cee:	48 89 e5             	mov    %rsp,%rbp
    5cf1:	89 f8                	mov    %edi,%eax
    5cf3:	66 89 45 fc          	mov    %ax,-0x4(%rbp)
    5cf7:	0f b7 45 fc          	movzwl -0x4(%rbp),%eax
    5cfb:	f7 d8                	neg    %eax
    5cfd:	5d                   	pop    %rbp
    5cfe:	c3                   	retq   

0000000000005cff <safe_add_func_uint16_t_u_u>:
    5cff:	f3 0f 1e fa          	endbr64 
    5d03:	55                   	push   %rbp
    5d04:	48 89 e5             	mov    %rsp,%rbp
    5d07:	89 fa                	mov    %edi,%edx
    5d09:	89 f0                	mov    %esi,%eax
    5d0b:	66 89 55 fc          	mov    %dx,-0x4(%rbp)
    5d0f:	66 89 45 f8          	mov    %ax,-0x8(%rbp)
    5d13:	0f b7 55 fc          	movzwl -0x4(%rbp),%edx
    5d17:	0f b7 45 f8          	movzwl -0x8(%rbp),%eax
    5d1b:	01 d0                	add    %edx,%eax
    5d1d:	5d                   	pop    %rbp
    5d1e:	c3                   	retq   

0000000000005d1f <safe_sub_func_uint16_t_u_u>:
    5d1f:	f3 0f 1e fa          	endbr64 
    5d23:	55                   	push   %rbp
    5d24:	48 89 e5             	mov    %rsp,%rbp
    5d27:	89 fa                	mov    %edi,%edx
    5d29:	89 f0                	mov    %esi,%eax
    5d2b:	66 89 55 fc          	mov    %dx,-0x4(%rbp)
    5d2f:	66 89 45 f8          	mov    %ax,-0x8(%rbp)
    5d33:	0f b7 45 fc          	movzwl -0x4(%rbp),%eax
    5d37:	66 2b 45 f8          	sub    -0x8(%rbp),%ax
    5d3b:	5d                   	pop    %rbp
    5d3c:	c3                   	retq   

0000000000005d3d <safe_mul_func_uint16_t_u_u>:
    5d3d:	f3 0f 1e fa          	endbr64 
    5d41:	55                   	push   %rbp
    5d42:	48 89 e5             	mov    %rsp,%rbp
    5d45:	89 fa                	mov    %edi,%edx
    5d47:	89 f0                	mov    %esi,%eax
    5d49:	66 89 55 fc          	mov    %dx,-0x4(%rbp)
    5d4d:	66 89 45 f8          	mov    %ax,-0x8(%rbp)
    5d51:	0f b7 45 fc          	movzwl -0x4(%rbp),%eax
    5d55:	66 0f af 45 f8       	imul   -0x8(%rbp),%ax
    5d5a:	5d                   	pop    %rbp
    5d5b:	c3                   	retq   

0000000000005d5c <safe_mod_func_uint16_t_u_u>:
    5d5c:	f3 0f 1e fa          	endbr64 
    5d60:	55                   	push   %rbp
    5d61:	48 89 e5             	mov    %rsp,%rbp
    5d64:	89 fa                	mov    %edi,%edx
    5d66:	89 f0                	mov    %esi,%eax
    5d68:	66 89 55 fc          	mov    %dx,-0x4(%rbp)
    5d6c:	66 89 45 f8          	mov    %ax,-0x8(%rbp)
    5d70:	66 83 7d f8 00       	cmpw   $0x0,-0x8(%rbp)
    5d75:	74 11                	je     5d88 <safe_mod_func_uint16_t_u_u+0x2c>
    5d77:	0f b7 45 fc          	movzwl -0x4(%rbp),%eax
    5d7b:	ba 00 00 00 00       	mov    $0x0,%edx
    5d80:	66 f7 75 f8          	divw   -0x8(%rbp)
    5d84:	89 d0                	mov    %edx,%eax
    5d86:	eb 04                	jmp    5d8c <safe_mod_func_uint16_t_u_u+0x30>
    5d88:	0f b7 45 fc          	movzwl -0x4(%rbp),%eax
    5d8c:	5d                   	pop    %rbp
    5d8d:	c3                   	retq   

0000000000005d8e <safe_div_func_uint16_t_u_u>:
    5d8e:	f3 0f 1e fa          	endbr64 
    5d92:	55                   	push   %rbp
    5d93:	48 89 e5             	mov    %rsp,%rbp
    5d96:	89 fa                	mov    %edi,%edx
    5d98:	89 f0                	mov    %esi,%eax
    5d9a:	66 89 55 fc          	mov    %dx,-0x4(%rbp)
    5d9e:	66 89 45 f8          	mov    %ax,-0x8(%rbp)
    5da2:	66 83 7d f8 00       	cmpw   $0x0,-0x8(%rbp)
    5da7:	74 0f                	je     5db8 <safe_div_func_uint16_t_u_u+0x2a>
    5da9:	0f b7 45 fc          	movzwl -0x4(%rbp),%eax
    5dad:	ba 00 00 00 00       	mov    $0x0,%edx
    5db2:	66 f7 75 f8          	divw   -0x8(%rbp)
    5db6:	eb 04                	jmp    5dbc <safe_div_func_uint16_t_u_u+0x2e>
    5db8:	0f b7 45 fc          	movzwl -0x4(%rbp),%eax
    5dbc:	5d                   	pop    %rbp
    5dbd:	c3                   	retq   

0000000000005dbe <safe_lshift_func_uint16_t_u_s>:
    5dbe:	f3 0f 1e fa          	endbr64 
    5dc2:	55                   	push   %rbp
    5dc3:	48 89 e5             	mov    %rsp,%rbp
    5dc6:	89 f8                	mov    %edi,%eax
    5dc8:	89 75 f8             	mov    %esi,-0x8(%rbp)
    5dcb:	66 89 45 fc          	mov    %ax,-0x4(%rbp)
    5dcf:	83 7d f8 00          	cmpl   $0x0,-0x8(%rbp)
    5dd3:	78 2b                	js     5e00 <safe_lshift_func_uint16_t_u_s+0x42>
    5dd5:	83 7d f8 1f          	cmpl   $0x1f,-0x8(%rbp)
    5dd9:	7f 25                	jg     5e00 <safe_lshift_func_uint16_t_u_s+0x42>
    5ddb:	0f b7 55 fc          	movzwl -0x4(%rbp),%edx
    5ddf:	8b 45 f8             	mov    -0x8(%rbp),%eax
    5de2:	be ff ff 00 00       	mov    $0xffff,%esi
    5de7:	89 c1                	mov    %eax,%ecx
    5de9:	d3 fe                	sar    %cl,%esi
    5deb:	89 f0                	mov    %esi,%eax
    5ded:	39 c2                	cmp    %eax,%edx
    5def:	7f 0f                	jg     5e00 <safe_lshift_func_uint16_t_u_s+0x42>
    5df1:	0f b7 55 fc          	movzwl -0x4(%rbp),%edx
    5df5:	8b 45 f8             	mov    -0x8(%rbp),%eax
    5df8:	89 c1                	mov    %eax,%ecx
    5dfa:	d3 e2                	shl    %cl,%edx
    5dfc:	89 d0                	mov    %edx,%eax
    5dfe:	eb 04                	jmp    5e04 <safe_lshift_func_uint16_t_u_s+0x46>
    5e00:	0f b7 45 fc          	movzwl -0x4(%rbp),%eax
    5e04:	5d                   	pop    %rbp
    5e05:	c3                   	retq   

0000000000005e06 <safe_lshift_func_uint16_t_u_u>:
    5e06:	f3 0f 1e fa          	endbr64 
    5e0a:	55                   	push   %rbp
    5e0b:	48 89 e5             	mov    %rsp,%rbp
    5e0e:	89 f8                	mov    %edi,%eax
    5e10:	89 75 f8             	mov    %esi,-0x8(%rbp)
    5e13:	66 89 45 fc          	mov    %ax,-0x4(%rbp)
    5e17:	83 7d f8 1f          	cmpl   $0x1f,-0x8(%rbp)
    5e1b:	77 25                	ja     5e42 <safe_lshift_func_uint16_t_u_u+0x3c>
    5e1d:	0f b7 55 fc          	movzwl -0x4(%rbp),%edx
    5e21:	8b 45 f8             	mov    -0x8(%rbp),%eax
    5e24:	be ff ff 00 00       	mov    $0xffff,%esi
    5e29:	89 c1                	mov    %eax,%ecx
    5e2b:	d3 fe                	sar    %cl,%esi
    5e2d:	89 f0                	mov    %esi,%eax
    5e2f:	39 c2                	cmp    %eax,%edx
    5e31:	7f 0f                	jg     5e42 <safe_lshift_func_uint16_t_u_u+0x3c>
    5e33:	0f b7 55 fc          	movzwl -0x4(%rbp),%edx
    5e37:	8b 45 f8             	mov    -0x8(%rbp),%eax
    5e3a:	89 c1                	mov    %eax,%ecx
    5e3c:	d3 e2                	shl    %cl,%edx
    5e3e:	89 d0                	mov    %edx,%eax
    5e40:	eb 04                	jmp    5e46 <safe_lshift_func_uint16_t_u_u+0x40>
    5e42:	0f b7 45 fc          	movzwl -0x4(%rbp),%eax
    5e46:	5d                   	pop    %rbp
    5e47:	c3                   	retq   

0000000000005e48 <safe_rshift_func_uint16_t_u_s>:
    5e48:	f3 0f 1e fa          	endbr64 
    5e4c:	55                   	push   %rbp
    5e4d:	48 89 e5             	mov    %rsp,%rbp
    5e50:	89 f8                	mov    %edi,%eax
    5e52:	89 75 f8             	mov    %esi,-0x8(%rbp)
    5e55:	66 89 45 fc          	mov    %ax,-0x4(%rbp)
    5e59:	83 7d f8 00          	cmpl   $0x0,-0x8(%rbp)
    5e5d:	78 15                	js     5e74 <safe_rshift_func_uint16_t_u_s+0x2c>
    5e5f:	83 7d f8 1f          	cmpl   $0x1f,-0x8(%rbp)
    5e63:	7f 0f                	jg     5e74 <safe_rshift_func_uint16_t_u_s+0x2c>
    5e65:	0f b7 55 fc          	movzwl -0x4(%rbp),%edx
    5e69:	8b 45 f8             	mov    -0x8(%rbp),%eax
    5e6c:	89 c1                	mov    %eax,%ecx
    5e6e:	d3 fa                	sar    %cl,%edx
    5e70:	89 d0                	mov    %edx,%eax
    5e72:	eb 04                	jmp    5e78 <safe_rshift_func_uint16_t_u_s+0x30>
    5e74:	0f b7 45 fc          	movzwl -0x4(%rbp),%eax
    5e78:	5d                   	pop    %rbp
    5e79:	c3                   	retq   

0000000000005e7a <safe_rshift_func_uint16_t_u_u>:
    5e7a:	f3 0f 1e fa          	endbr64 
    5e7e:	55                   	push   %rbp
    5e7f:	48 89 e5             	mov    %rsp,%rbp
    5e82:	89 f8                	mov    %edi,%eax
    5e84:	89 75 f8             	mov    %esi,-0x8(%rbp)
    5e87:	66 89 45 fc          	mov    %ax,-0x4(%rbp)
    5e8b:	83 7d f8 1f          	cmpl   $0x1f,-0x8(%rbp)
    5e8f:	77 0f                	ja     5ea0 <safe_rshift_func_uint16_t_u_u+0x26>
    5e91:	0f b7 55 fc          	movzwl -0x4(%rbp),%edx
    5e95:	8b 45 f8             	mov    -0x8(%rbp),%eax
    5e98:	89 c1                	mov    %eax,%ecx
    5e9a:	d3 fa                	sar    %cl,%edx
    5e9c:	89 d0                	mov    %edx,%eax
    5e9e:	eb 04                	jmp    5ea4 <safe_rshift_func_uint16_t_u_u+0x2a>
    5ea0:	0f b7 45 fc          	movzwl -0x4(%rbp),%eax
    5ea4:	5d                   	pop    %rbp
    5ea5:	c3                   	retq   

0000000000005ea6 <safe_unary_minus_func_uint32_t_u>:
    5ea6:	f3 0f 1e fa          	endbr64 
    5eaa:	55                   	push   %rbp
    5eab:	48 89 e5             	mov    %rsp,%rbp
    5eae:	89 7d fc             	mov    %edi,-0x4(%rbp)
    5eb1:	8b 45 fc             	mov    -0x4(%rbp),%eax
    5eb4:	f7 d8                	neg    %eax
    5eb6:	5d                   	pop    %rbp
    5eb7:	c3                   	retq   

0000000000005eb8 <safe_add_func_uint32_t_u_u>:
    5eb8:	f3 0f 1e fa          	endbr64 
    5ebc:	55                   	push   %rbp
    5ebd:	48 89 e5             	mov    %rsp,%rbp
    5ec0:	89 7d fc             	mov    %edi,-0x4(%rbp)
    5ec3:	89 75 f8             	mov    %esi,-0x8(%rbp)
    5ec6:	8b 55 fc             	mov    -0x4(%rbp),%edx
    5ec9:	8b 45 f8             	mov    -0x8(%rbp),%eax
    5ecc:	01 d0                	add    %edx,%eax
    5ece:	5d                   	pop    %rbp
    5ecf:	c3                   	retq   

0000000000005ed0 <safe_sub_func_uint32_t_u_u>:
    5ed0:	f3 0f 1e fa          	endbr64 
    5ed4:	55                   	push   %rbp
    5ed5:	48 89 e5             	mov    %rsp,%rbp
    5ed8:	89 7d fc             	mov    %edi,-0x4(%rbp)
    5edb:	89 75 f8             	mov    %esi,-0x8(%rbp)
    5ede:	8b 45 fc             	mov    -0x4(%rbp),%eax
    5ee1:	2b 45 f8             	sub    -0x8(%rbp),%eax
    5ee4:	5d                   	pop    %rbp
    5ee5:	c3                   	retq   

0000000000005ee6 <safe_mul_func_uint32_t_u_u>:
    5ee6:	f3 0f 1e fa          	endbr64 
    5eea:	55                   	push   %rbp
    5eeb:	48 89 e5             	mov    %rsp,%rbp
    5eee:	89 7d fc             	mov    %edi,-0x4(%rbp)
    5ef1:	89 75 f8             	mov    %esi,-0x8(%rbp)
    5ef4:	8b 45 fc             	mov    -0x4(%rbp),%eax
    5ef7:	0f af 45 f8          	imul   -0x8(%rbp),%eax
    5efb:	5d                   	pop    %rbp
    5efc:	c3                   	retq   

0000000000005efd <safe_mod_func_uint32_t_u_u>:
    5efd:	f3 0f 1e fa          	endbr64 
    5f01:	55                   	push   %rbp
    5f02:	48 89 e5             	mov    %rsp,%rbp
    5f05:	89 7d fc             	mov    %edi,-0x4(%rbp)
    5f08:	89 75 f8             	mov    %esi,-0x8(%rbp)
    5f0b:	83 7d f8 00          	cmpl   $0x0,-0x8(%rbp)
    5f0f:	74 0f                	je     5f20 <safe_mod_func_uint32_t_u_u+0x23>
    5f11:	8b 45 fc             	mov    -0x4(%rbp),%eax
    5f14:	ba 00 00 00 00       	mov    $0x0,%edx
    5f19:	f7 75 f8             	divl   -0x8(%rbp)
    5f1c:	89 d0                	mov    %edx,%eax
    5f1e:	eb 03                	jmp    5f23 <safe_mod_func_uint32_t_u_u+0x26>
    5f20:	8b 45 fc             	mov    -0x4(%rbp),%eax
    5f23:	5d                   	pop    %rbp
    5f24:	c3                   	retq   

0000000000005f25 <safe_div_func_uint32_t_u_u>:
    5f25:	f3 0f 1e fa          	endbr64 
    5f29:	55                   	push   %rbp
    5f2a:	48 89 e5             	mov    %rsp,%rbp
    5f2d:	89 7d fc             	mov    %edi,-0x4(%rbp)
    5f30:	89 75 f8             	mov    %esi,-0x8(%rbp)
    5f33:	83 7d f8 00          	cmpl   $0x0,-0x8(%rbp)
    5f37:	74 0d                	je     5f46 <safe_div_func_uint32_t_u_u+0x21>
    5f39:	8b 45 fc             	mov    -0x4(%rbp),%eax
    5f3c:	ba 00 00 00 00       	mov    $0x0,%edx
    5f41:	f7 75 f8             	divl   -0x8(%rbp)
    5f44:	eb 03                	jmp    5f49 <safe_div_func_uint32_t_u_u+0x24>
    5f46:	8b 45 fc             	mov    -0x4(%rbp),%eax
    5f49:	5d                   	pop    %rbp
    5f4a:	c3                   	retq   

0000000000005f4b <safe_lshift_func_uint32_t_u_s>:
    5f4b:	f3 0f 1e fa          	endbr64 
    5f4f:	55                   	push   %rbp
    5f50:	48 89 e5             	mov    %rsp,%rbp
    5f53:	89 7d fc             	mov    %edi,-0x4(%rbp)
    5f56:	89 75 f8             	mov    %esi,-0x8(%rbp)
    5f59:	83 7d f8 00          	cmpl   $0x0,-0x8(%rbp)
    5f5d:	78 27                	js     5f86 <safe_lshift_func_uint32_t_u_s+0x3b>
    5f5f:	83 7d f8 1f          	cmpl   $0x1f,-0x8(%rbp)
    5f63:	7f 21                	jg     5f86 <safe_lshift_func_uint32_t_u_s+0x3b>
    5f65:	8b 45 f8             	mov    -0x8(%rbp),%eax
    5f68:	ba ff ff ff ff       	mov    $0xffffffff,%edx
    5f6d:	89 c1                	mov    %eax,%ecx
    5f6f:	d3 ea                	shr    %cl,%edx
    5f71:	89 d0                	mov    %edx,%eax
    5f73:	39 45 fc             	cmp    %eax,-0x4(%rbp)
    5f76:	77 0e                	ja     5f86 <safe_lshift_func_uint32_t_u_s+0x3b>
    5f78:	8b 45 f8             	mov    -0x8(%rbp),%eax
    5f7b:	8b 55 fc             	mov    -0x4(%rbp),%edx
    5f7e:	89 c1                	mov    %eax,%ecx
    5f80:	d3 e2                	shl    %cl,%edx
    5f82:	89 d0                	mov    %edx,%eax
    5f84:	eb 03                	jmp    5f89 <safe_lshift_func_uint32_t_u_s+0x3e>
    5f86:	8b 45 fc             	mov    -0x4(%rbp),%eax
    5f89:	5d                   	pop    %rbp
    5f8a:	c3                   	retq   

0000000000005f8b <safe_lshift_func_uint32_t_u_u>:
    5f8b:	f3 0f 1e fa          	endbr64 
    5f8f:	55                   	push   %rbp
    5f90:	48 89 e5             	mov    %rsp,%rbp
    5f93:	89 7d fc             	mov    %edi,-0x4(%rbp)
    5f96:	89 75 f8             	mov    %esi,-0x8(%rbp)
    5f99:	83 7d f8 1f          	cmpl   $0x1f,-0x8(%rbp)
    5f9d:	77 21                	ja     5fc0 <safe_lshift_func_uint32_t_u_u+0x35>
    5f9f:	8b 45 f8             	mov    -0x8(%rbp),%eax
    5fa2:	ba ff ff ff ff       	mov    $0xffffffff,%edx
    5fa7:	89 c1                	mov    %eax,%ecx
    5fa9:	d3 ea                	shr    %cl,%edx
    5fab:	89 d0                	mov    %edx,%eax
    5fad:	39 45 fc             	cmp    %eax,-0x4(%rbp)
    5fb0:	77 0e                	ja     5fc0 <safe_lshift_func_uint32_t_u_u+0x35>
    5fb2:	8b 45 f8             	mov    -0x8(%rbp),%eax
    5fb5:	8b 55 fc             	mov    -0x4(%rbp),%edx
    5fb8:	89 c1                	mov    %eax,%ecx
    5fba:	d3 e2                	shl    %cl,%edx
    5fbc:	89 d0                	mov    %edx,%eax
    5fbe:	eb 03                	jmp    5fc3 <safe_lshift_func_uint32_t_u_u+0x38>
    5fc0:	8b 45 fc             	mov    -0x4(%rbp),%eax
    5fc3:	5d                   	pop    %rbp
    5fc4:	c3                   	retq   

0000000000005fc5 <safe_rshift_func_uint32_t_u_s>:
    5fc5:	f3 0f 1e fa          	endbr64 
    5fc9:	55                   	push   %rbp
    5fca:	48 89 e5             	mov    %rsp,%rbp
    5fcd:	89 7d fc             	mov    %edi,-0x4(%rbp)
    5fd0:	89 75 f8             	mov    %esi,-0x8(%rbp)
    5fd3:	83 7d f8 00          	cmpl   $0x0,-0x8(%rbp)
    5fd7:	78 14                	js     5fed <safe_rshift_func_uint32_t_u_s+0x28>
    5fd9:	83 7d f8 1f          	cmpl   $0x1f,-0x8(%rbp)
    5fdd:	7f 0e                	jg     5fed <safe_rshift_func_uint32_t_u_s+0x28>
    5fdf:	8b 45 f8             	mov    -0x8(%rbp),%eax
    5fe2:	8b 55 fc             	mov    -0x4(%rbp),%edx
    5fe5:	89 c1                	mov    %eax,%ecx
    5fe7:	d3 ea                	shr    %cl,%edx
    5fe9:	89 d0                	mov    %edx,%eax
    5feb:	eb 03                	jmp    5ff0 <safe_rshift_func_uint32_t_u_s+0x2b>
    5fed:	8b 45 fc             	mov    -0x4(%rbp),%eax
    5ff0:	5d                   	pop    %rbp
    5ff1:	c3                   	retq   

0000000000005ff2 <safe_rshift_func_uint32_t_u_u>:
    5ff2:	f3 0f 1e fa          	endbr64 
    5ff6:	55                   	push   %rbp
    5ff7:	48 89 e5             	mov    %rsp,%rbp
    5ffa:	89 7d fc             	mov    %edi,-0x4(%rbp)
    5ffd:	89 75 f8             	mov    %esi,-0x8(%rbp)
    6000:	83 7d f8 1f          	cmpl   $0x1f,-0x8(%rbp)
    6004:	77 0e                	ja     6014 <safe_rshift_func_uint32_t_u_u+0x22>
    6006:	8b 45 f8             	mov    -0x8(%rbp),%eax
    6009:	8b 55 fc             	mov    -0x4(%rbp),%edx
    600c:	89 c1                	mov    %eax,%ecx
    600e:	d3 ea                	shr    %cl,%edx
    6010:	89 d0                	mov    %edx,%eax
    6012:	eb 03                	jmp    6017 <safe_rshift_func_uint32_t_u_u+0x25>
    6014:	8b 45 fc             	mov    -0x4(%rbp),%eax
    6017:	5d                   	pop    %rbp
    6018:	c3                   	retq   

0000000000006019 <safe_unary_minus_func_uint64_t_u>:
    6019:	f3 0f 1e fa          	endbr64 
    601d:	55                   	push   %rbp
    601e:	48 89 e5             	mov    %rsp,%rbp
    6021:	48 89 7d f8          	mov    %rdi,-0x8(%rbp)
    6025:	48 8b 45 f8          	mov    -0x8(%rbp),%rax
    6029:	48 f7 d8             	neg    %rax
    602c:	5d                   	pop    %rbp
    602d:	c3                   	retq   

000000000000602e <safe_add_func_uint64_t_u_u>:
    602e:	f3 0f 1e fa          	endbr64 
    6032:	55                   	push   %rbp
    6033:	48 89 e5             	mov    %rsp,%rbp
    6036:	48 89 7d f8          	mov    %rdi,-0x8(%rbp)
    603a:	48 89 75 f0          	mov    %rsi,-0x10(%rbp)
    603e:	48 8b 55 f8          	mov    -0x8(%rbp),%rdx
    6042:	48 8b 45 f0          	mov    -0x10(%rbp),%rax
    6046:	48 01 d0             	add    %rdx,%rax
    6049:	5d                   	pop    %rbp
    604a:	c3                   	retq   

000000000000604b <safe_sub_func_uint64_t_u_u>:
    604b:	f3 0f 1e fa          	endbr64 
    604f:	55                   	push   %rbp
    6050:	48 89 e5             	mov    %rsp,%rbp
    6053:	48 89 7d f8          	mov    %rdi,-0x8(%rbp)
    6057:	48 89 75 f0          	mov    %rsi,-0x10(%rbp)
    605b:	48 8b 45 f8          	mov    -0x8(%rbp),%rax
    605f:	48 2b 45 f0          	sub    -0x10(%rbp),%rax
    6063:	5d                   	pop    %rbp
    6064:	c3                   	retq   

0000000000006065 <safe_mul_func_uint64_t_u_u>:
    6065:	f3 0f 1e fa          	endbr64 
    6069:	55                   	push   %rbp
    606a:	48 89 e5             	mov    %rsp,%rbp
    606d:	48 89 7d f8          	mov    %rdi,-0x8(%rbp)
    6071:	48 89 75 f0          	mov    %rsi,-0x10(%rbp)
    6075:	48 8b 45 f8          	mov    -0x8(%rbp),%rax
    6079:	48 0f af 45 f0       	imul   -0x10(%rbp),%rax
    607e:	5d                   	pop    %rbp
    607f:	c3                   	retq   

0000000000006080 <safe_mod_func_uint64_t_u_u>:
    6080:	f3 0f 1e fa          	endbr64 
    6084:	55                   	push   %rbp
    6085:	48 89 e5             	mov    %rsp,%rbp
    6088:	48 89 7d f8          	mov    %rdi,-0x8(%rbp)
    608c:	48 89 75 f0          	mov    %rsi,-0x10(%rbp)
    6090:	48 83 7d f0 00       	cmpq   $0x0,-0x10(%rbp)
    6095:	74 12                	je     60a9 <safe_mod_func_uint64_t_u_u+0x29>
    6097:	48 8b 45 f8          	mov    -0x8(%rbp),%rax
    609b:	ba 00 00 00 00       	mov    $0x0,%edx
    60a0:	48 f7 75 f0          	divq   -0x10(%rbp)
    60a4:	48 89 d0             	mov    %rdx,%rax
    60a7:	eb 04                	jmp    60ad <safe_mod_func_uint64_t_u_u+0x2d>
    60a9:	48 8b 45 f8          	mov    -0x8(%rbp),%rax
    60ad:	5d                   	pop    %rbp
    60ae:	c3                   	retq   

00000000000060af <safe_div_func_uint64_t_u_u>:
    60af:	f3 0f 1e fa          	endbr64 
    60b3:	55                   	push   %rbp
    60b4:	48 89 e5             	mov    %rsp,%rbp
    60b7:	48 89 7d f8          	mov    %rdi,-0x8(%rbp)
    60bb:	48 89 75 f0          	mov    %rsi,-0x10(%rbp)
    60bf:	48 83 7d f0 00       	cmpq   $0x0,-0x10(%rbp)
    60c4:	74 0f                	je     60d5 <safe_div_func_uint64_t_u_u+0x26>
    60c6:	48 8b 45 f8          	mov    -0x8(%rbp),%rax
    60ca:	ba 00 00 00 00       	mov    $0x0,%edx
    60cf:	48 f7 75 f0          	divq   -0x10(%rbp)
    60d3:	eb 04                	jmp    60d9 <safe_div_func_uint64_t_u_u+0x2a>
    60d5:	48 8b 45 f8          	mov    -0x8(%rbp),%rax
    60d9:	5d                   	pop    %rbp
    60da:	c3                   	retq   

00000000000060db <safe_lshift_func_uint64_t_u_s>:
    60db:	f3 0f 1e fa          	endbr64 
    60df:	55                   	push   %rbp
    60e0:	48 89 e5             	mov    %rsp,%rbp
    60e3:	48 89 7d f8          	mov    %rdi,-0x8(%rbp)
    60e7:	89 75 f4             	mov    %esi,-0xc(%rbp)
    60ea:	83 7d f4 00          	cmpl   $0x0,-0xc(%rbp)
    60ee:	78 2f                	js     611f <safe_lshift_func_uint64_t_u_s+0x44>
    60f0:	83 7d f4 1f          	cmpl   $0x1f,-0xc(%rbp)
    60f4:	7f 29                	jg     611f <safe_lshift_func_uint64_t_u_s+0x44>
    60f6:	8b 45 f4             	mov    -0xc(%rbp),%eax
    60f9:	48 c7 c2 ff ff ff ff 	mov    $0xffffffffffffffff,%rdx
    6100:	89 c1                	mov    %eax,%ecx
    6102:	48 d3 ea             	shr    %cl,%rdx
    6105:	48 89 d0             	mov    %rdx,%rax
    6108:	48 39 45 f8          	cmp    %rax,-0x8(%rbp)
    610c:	77 11                	ja     611f <safe_lshift_func_uint64_t_u_s+0x44>
    610e:	8b 45 f4             	mov    -0xc(%rbp),%eax
    6111:	48 8b 55 f8          	mov    -0x8(%rbp),%rdx
    6115:	89 c1                	mov    %eax,%ecx
    6117:	48 d3 e2             	shl    %cl,%rdx
    611a:	48 89 d0             	mov    %rdx,%rax
    611d:	eb 04                	jmp    6123 <safe_lshift_func_uint64_t_u_s+0x48>
    611f:	48 8b 45 f8          	mov    -0x8(%rbp),%rax
    6123:	5d                   	pop    %rbp
    6124:	c3                   	retq   

0000000000006125 <safe_lshift_func_uint64_t_u_u>:
    6125:	f3 0f 1e fa          	endbr64 
    6129:	55                   	push   %rbp
    612a:	48 89 e5             	mov    %rsp,%rbp
    612d:	48 89 7d f8          	mov    %rdi,-0x8(%rbp)
    6131:	89 75 f4             	mov    %esi,-0xc(%rbp)
    6134:	83 7d f4 1f          	cmpl   $0x1f,-0xc(%rbp)
    6138:	77 29                	ja     6163 <safe_lshift_func_uint64_t_u_u+0x3e>
    613a:	8b 45 f4             	mov    -0xc(%rbp),%eax
    613d:	48 c7 c2 ff ff ff ff 	mov    $0xffffffffffffffff,%rdx
    6144:	89 c1                	mov    %eax,%ecx
    6146:	48 d3 ea             	shr    %cl,%rdx
    6149:	48 89 d0             	mov    %rdx,%rax
    614c:	48 39 45 f8          	cmp    %rax,-0x8(%rbp)
    6150:	77 11                	ja     6163 <safe_lshift_func_uint64_t_u_u+0x3e>
    6152:	8b 45 f4             	mov    -0xc(%rbp),%eax
    6155:	48 8b 55 f8          	mov    -0x8(%rbp),%rdx
    6159:	89 c1                	mov    %eax,%ecx
    615b:	48 d3 e2             	shl    %cl,%rdx
    615e:	48 89 d0             	mov    %rdx,%rax
    6161:	eb 04                	jmp    6167 <safe_lshift_func_uint64_t_u_u+0x42>
    6163:	48 8b 45 f8          	mov    -0x8(%rbp),%rax
    6167:	5d                   	pop    %rbp
    6168:	c3                   	retq   

0000000000006169 <safe_rshift_func_uint64_t_u_s>:
    6169:	f3 0f 1e fa          	endbr64 
    616d:	55                   	push   %rbp
    616e:	48 89 e5             	mov    %rsp,%rbp
    6171:	48 89 7d f8          	mov    %rdi,-0x8(%rbp)
    6175:	89 75 f4             	mov    %esi,-0xc(%rbp)
    6178:	83 7d f4 00          	cmpl   $0x0,-0xc(%rbp)
    617c:	78 17                	js     6195 <safe_rshift_func_uint64_t_u_s+0x2c>
    617e:	83 7d f4 1f          	cmpl   $0x1f,-0xc(%rbp)
    6182:	7f 11                	jg     6195 <safe_rshift_func_uint64_t_u_s+0x2c>
    6184:	8b 45 f4             	mov    -0xc(%rbp),%eax
    6187:	48 8b 55 f8          	mov    -0x8(%rbp),%rdx
    618b:	89 c1                	mov    %eax,%ecx
    618d:	48 d3 ea             	shr    %cl,%rdx
    6190:	48 89 d0             	mov    %rdx,%rax
    6193:	eb 04                	jmp    6199 <safe_rshift_func_uint64_t_u_s+0x30>
    6195:	48 8b 45 f8          	mov    -0x8(%rbp),%rax
    6199:	5d                   	pop    %rbp
    619a:	c3                   	retq   

000000000000619b <safe_rshift_func_uint64_t_u_u>:
    619b:	f3 0f 1e fa          	endbr64 
    619f:	55                   	push   %rbp
    61a0:	48 89 e5             	mov    %rsp,%rbp
    61a3:	48 89 7d f8          	mov    %rdi,-0x8(%rbp)
    61a7:	89 75 f4             	mov    %esi,-0xc(%rbp)
    61aa:	83 7d f4 1f          	cmpl   $0x1f,-0xc(%rbp)
    61ae:	77 11                	ja     61c1 <safe_rshift_func_uint64_t_u_u+0x26>
    61b0:	8b 45 f4             	mov    -0xc(%rbp),%eax
    61b3:	48 8b 55 f8          	mov    -0x8(%rbp),%rdx
    61b7:	89 c1                	mov    %eax,%ecx
    61b9:	48 d3 ea             	shr    %cl,%rdx
    61bc:	48 89 d0             	mov    %rdx,%rax
    61bf:	eb 04                	jmp    61c5 <safe_rshift_func_uint64_t_u_u+0x2a>
    61c1:	48 8b 45 f8          	mov    -0x8(%rbp),%rax
    61c5:	5d                   	pop    %rbp
    61c6:	c3                   	retq   

00000000000061c7 <safe_add_func_float_f_f>:
    61c7:	f3 0f 1e fa          	endbr64 
    61cb:	55                   	push   %rbp
    61cc:	48 89 e5             	mov    %rsp,%rbp
    61cf:	f3 0f 11 45 fc       	movss  %xmm0,-0x4(%rbp)
    61d4:	f3 0f 11 4d f8       	movss  %xmm1,-0x8(%rbp)
    61d9:	f3 0f 10 4d fc       	movss  -0x4(%rbp),%xmm1
    61de:	f3 0f 10 05 fe 80 00 	movss  0x80fe(%rip),%xmm0        # e2e4 <l_1001.4184+0x24>
    61e5:	00 
    61e6:	f3 0f 59 c8          	mulss  %xmm0,%xmm1
    61ea:	f3 0f 10 55 f8       	movss  -0x8(%rbp),%xmm2
    61ef:	f3 0f 10 05 ed 80 00 	movss  0x80ed(%rip),%xmm0        # e2e4 <l_1001.4184+0x24>
    61f6:	00 
    61f7:	f3 0f 59 c2          	mulss  %xmm2,%xmm0
    61fb:	f3 0f 58 c1          	addss  %xmm1,%xmm0
    61ff:	f3 0f 10 0d e9 80 00 	movss  0x80e9(%rip),%xmm1        # e2f0 <l_1001.4184+0x30>
    6206:	00 
    6207:	0f 54 c1             	andps  %xmm1,%xmm0
    620a:	0f 2f 05 ef 80 00 00 	comiss 0x80ef(%rip),%xmm0        # e300 <l_1001.4184+0x40>
    6211:	76 07                	jbe    621a <safe_add_func_float_f_f+0x53>
    6213:	f3 0f 10 45 fc       	movss  -0x4(%rbp),%xmm0
    6218:	eb 0a                	jmp    6224 <safe_add_func_float_f_f+0x5d>
    621a:	f3 0f 10 45 fc       	movss  -0x4(%rbp),%xmm0
    621f:	f3 0f 58 45 f8       	addss  -0x8(%rbp),%xmm0
    6224:	5d                   	pop    %rbp
    6225:	c3                   	retq   

0000000000006226 <safe_sub_func_float_f_f>:
    6226:	f3 0f 1e fa          	endbr64 
    622a:	55                   	push   %rbp
    622b:	48 89 e5             	mov    %rsp,%rbp
    622e:	f3 0f 11 45 fc       	movss  %xmm0,-0x4(%rbp)
    6233:	f3 0f 11 4d f8       	movss  %xmm1,-0x8(%rbp)
    6238:	f3 0f 10 4d fc       	movss  -0x4(%rbp),%xmm1
    623d:	f3 0f 10 05 9f 80 00 	movss  0x809f(%rip),%xmm0        # e2e4 <l_1001.4184+0x24>
    6244:	00 
    6245:	f3 0f 59 c1          	mulss  %xmm1,%xmm0
    6249:	f3 0f 10 55 f8       	movss  -0x8(%rbp),%xmm2
    624e:	f3 0f 10 0d 8e 80 00 	movss  0x808e(%rip),%xmm1        # e2e4 <l_1001.4184+0x24>
    6255:	00 
    6256:	f3 0f 59 ca          	mulss  %xmm2,%xmm1
    625a:	f3 0f 5c c1          	subss  %xmm1,%xmm0
    625e:	f3 0f 10 0d 8a 80 00 	movss  0x808a(%rip),%xmm1        # e2f0 <l_1001.4184+0x30>
    6265:	00 
    6266:	0f 54 c1             	andps  %xmm1,%xmm0
    6269:	0f 2f 05 90 80 00 00 	comiss 0x8090(%rip),%xmm0        # e300 <l_1001.4184+0x40>
    6270:	76 07                	jbe    6279 <safe_sub_func_float_f_f+0x53>
    6272:	f3 0f 10 45 fc       	movss  -0x4(%rbp),%xmm0
    6277:	eb 0a                	jmp    6283 <safe_sub_func_float_f_f+0x5d>
    6279:	f3 0f 10 45 fc       	movss  -0x4(%rbp),%xmm0
    627e:	f3 0f 5c 45 f8       	subss  -0x8(%rbp),%xmm0
    6283:	5d                   	pop    %rbp
    6284:	c3                   	retq   

0000000000006285 <safe_mul_func_float_f_f>:
    6285:	f3 0f 1e fa          	endbr64 
    6289:	55                   	push   %rbp
    628a:	48 89 e5             	mov    %rsp,%rbp
    628d:	f3 0f 11 45 fc       	movss  %xmm0,-0x4(%rbp)
    6292:	f3 0f 11 4d f8       	movss  %xmm1,-0x8(%rbp)
    6297:	f3 0f 10 4d fc       	movss  -0x4(%rbp),%xmm1
    629c:	f3 0f 10 05 60 80 00 	movss  0x8060(%rip),%xmm0        # e304 <l_1001.4184+0x44>
    62a3:	00 
    62a4:	f3 0f 59 c8          	mulss  %xmm0,%xmm1
    62a8:	f3 0f 10 55 f8       	movss  -0x8(%rbp),%xmm2
    62ad:	f3 0f 10 05 53 80 00 	movss  0x8053(%rip),%xmm0        # e308 <l_1001.4184+0x48>
    62b4:	00 
    62b5:	f3 0f 59 c2          	mulss  %xmm2,%xmm0
    62b9:	f3 0f 59 c1          	mulss  %xmm1,%xmm0
    62bd:	f3 0f 10 0d 2b 80 00 	movss  0x802b(%rip),%xmm1        # e2f0 <l_1001.4184+0x30>
    62c4:	00 
    62c5:	0f 54 c1             	andps  %xmm1,%xmm0
    62c8:	0f 2f 05 3d 80 00 00 	comiss 0x803d(%rip),%xmm0        # e30c <l_1001.4184+0x4c>
    62cf:	76 07                	jbe    62d8 <safe_mul_func_float_f_f+0x53>
    62d1:	f3 0f 10 45 fc       	movss  -0x4(%rbp),%xmm0
    62d6:	eb 0a                	jmp    62e2 <safe_mul_func_float_f_f+0x5d>
    62d8:	f3 0f 10 45 fc       	movss  -0x4(%rbp),%xmm0
    62dd:	f3 0f 59 45 f8       	mulss  -0x8(%rbp),%xmm0
    62e2:	5d                   	pop    %rbp
    62e3:	c3                   	retq   

00000000000062e4 <safe_div_func_float_f_f>:
    62e4:	f3 0f 1e fa          	endbr64 
    62e8:	55                   	push   %rbp
    62e9:	48 89 e5             	mov    %rsp,%rbp
    62ec:	f3 0f 11 45 fc       	movss  %xmm0,-0x4(%rbp)
    62f1:	f3 0f 11 4d f8       	movss  %xmm1,-0x8(%rbp)
    62f6:	f3 0f 10 45 f8       	movss  -0x8(%rbp),%xmm0
    62fb:	f3 0f 10 0d ed 7f 00 	movss  0x7fed(%rip),%xmm1        # e2f0 <l_1001.4184+0x30>
    6302:	00 
    6303:	0f 54 c8             	andps  %xmm0,%xmm1
    6306:	f3 0f 10 05 02 80 00 	movss  0x8002(%rip),%xmm0        # e310 <l_1001.4184+0x50>
    630d:	00 
    630e:	0f 2f c1             	comiss %xmm1,%xmm0
    6311:	0f 97 c0             	seta   %al
    6314:	83 f0 01             	xor    $0x1,%eax
    6317:	84 c0                	test   %al,%al
    6319:	75 56                	jne    6371 <safe_div_func_float_f_f+0x8d>
    631b:	66 0f ef c0          	pxor   %xmm0,%xmm0
    631f:	0f 2e 45 f8          	ucomiss -0x8(%rbp),%xmm0
    6323:	7a 0a                	jp     632f <safe_div_func_float_f_f+0x4b>
    6325:	66 0f ef c0          	pxor   %xmm0,%xmm0
    6329:	0f 2e 45 f8          	ucomiss -0x8(%rbp),%xmm0
    632d:	74 4e                	je     637d <safe_div_func_float_f_f+0x99>
    632f:	f3 0f 10 4d fc       	movss  -0x4(%rbp),%xmm1
    6334:	f3 0f 10 05 d8 7f 00 	movss  0x7fd8(%rip),%xmm0        # e314 <l_1001.4184+0x54>
    633b:	00 
    633c:	f3 0f 59 c1          	mulss  %xmm1,%xmm0
    6340:	f3 0f 10 55 f8       	movss  -0x8(%rbp),%xmm2
    6345:	f3 0f 10 0d cb 7f 00 	movss  0x7fcb(%rip),%xmm1        # e318 <l_1001.4184+0x58>
    634c:	00 
    634d:	f3 0f 59 ca          	mulss  %xmm2,%xmm1
    6351:	f3 0f 5e c1          	divss  %xmm1,%xmm0
    6355:	f3 0f 10 0d 93 7f 00 	movss  0x7f93(%rip),%xmm1        # e2f0 <l_1001.4184+0x30>
    635c:	00 
    635d:	0f 54 c1             	andps  %xmm1,%xmm0
    6360:	0f 2f 05 b5 7f 00 00 	comiss 0x7fb5(%rip),%xmm0        # e31c <l_1001.4184+0x5c>
    6367:	0f 97 c0             	seta   %al
    636a:	83 f0 01             	xor    $0x1,%eax
    636d:	84 c0                	test   %al,%al
    636f:	74 0c                	je     637d <safe_div_func_float_f_f+0x99>
    6371:	f3 0f 10 45 fc       	movss  -0x4(%rbp),%xmm0
    6376:	f3 0f 5e 45 f8       	divss  -0x8(%rbp),%xmm0
    637b:	eb 05                	jmp    6382 <safe_div_func_float_f_f+0x9e>
    637d:	f3 0f 10 45 fc       	movss  -0x4(%rbp),%xmm0
    6382:	5d                   	pop    %rbp
    6383:	c3                   	retq   

0000000000006384 <safe_add_func_double_f_f>:
    6384:	f3 0f 1e fa          	endbr64 
    6388:	55                   	push   %rbp
    6389:	48 89 e5             	mov    %rsp,%rbp
    638c:	f2 0f 11 45 f8       	movsd  %xmm0,-0x8(%rbp)
    6391:	f2 0f 11 4d f0       	movsd  %xmm1,-0x10(%rbp)
    6396:	f2 0f 10 4d f8       	movsd  -0x8(%rbp),%xmm1
    639b:	f2 0f 10 05 7d 7f 00 	movsd  0x7f7d(%rip),%xmm0        # e320 <l_1001.4184+0x60>
    63a2:	00 
    63a3:	f2 0f 59 c8          	mulsd  %xmm0,%xmm1
    63a7:	f2 0f 10 55 f0       	movsd  -0x10(%rbp),%xmm2
    63ac:	f2 0f 10 05 6c 7f 00 	movsd  0x7f6c(%rip),%xmm0        # e320 <l_1001.4184+0x60>
    63b3:	00 
    63b4:	f2 0f 59 c2          	mulsd  %xmm2,%xmm0
    63b8:	f2 0f 58 c1          	addsd  %xmm1,%xmm0
    63bc:	f3 0f 7e 0d 6c 7f 00 	movq   0x7f6c(%rip),%xmm1        # e330 <l_1001.4184+0x70>
    63c3:	00 
    63c4:	66 0f 54 c1          	andpd  %xmm1,%xmm0
    63c8:	66 0f 2f 05 70 7f 00 	comisd 0x7f70(%rip),%xmm0        # e340 <l_1001.4184+0x80>
    63cf:	00 
    63d0:	76 07                	jbe    63d9 <safe_add_func_double_f_f+0x55>
    63d2:	f2 0f 10 45 f8       	movsd  -0x8(%rbp),%xmm0
    63d7:	eb 0a                	jmp    63e3 <safe_add_func_double_f_f+0x5f>
    63d9:	f2 0f 10 45 f8       	movsd  -0x8(%rbp),%xmm0
    63de:	f2 0f 58 45 f0       	addsd  -0x10(%rbp),%xmm0
    63e3:	5d                   	pop    %rbp
    63e4:	c3                   	retq   

00000000000063e5 <safe_sub_func_double_f_f>:
    63e5:	f3 0f 1e fa          	endbr64 
    63e9:	55                   	push   %rbp
    63ea:	48 89 e5             	mov    %rsp,%rbp
    63ed:	f2 0f 11 45 f8       	movsd  %xmm0,-0x8(%rbp)
    63f2:	f2 0f 11 4d f0       	movsd  %xmm1,-0x10(%rbp)
    63f7:	f2 0f 10 4d f8       	movsd  -0x8(%rbp),%xmm1
    63fc:	f2 0f 10 05 1c 7f 00 	movsd  0x7f1c(%rip),%xmm0        # e320 <l_1001.4184+0x60>
    6403:	00 
    6404:	f2 0f 59 c1          	mulsd  %xmm1,%xmm0
    6408:	f2 0f 10 55 f0       	movsd  -0x10(%rbp),%xmm2
    640d:	f2 0f 10 0d 0b 7f 00 	movsd  0x7f0b(%rip),%xmm1        # e320 <l_1001.4184+0x60>
    6414:	00 
    6415:	f2 0f 59 ca          	mulsd  %xmm2,%xmm1
    6419:	f2 0f 5c c1          	subsd  %xmm1,%xmm0
    641d:	f3 0f 7e 0d 0b 7f 00 	movq   0x7f0b(%rip),%xmm1        # e330 <l_1001.4184+0x70>
    6424:	00 
    6425:	66 0f 54 c1          	andpd  %xmm1,%xmm0
    6429:	66 0f 2f 05 0f 7f 00 	comisd 0x7f0f(%rip),%xmm0        # e340 <l_1001.4184+0x80>
    6430:	00 
    6431:	76 07                	jbe    643a <safe_sub_func_double_f_f+0x55>
    6433:	f2 0f 10 45 f8       	movsd  -0x8(%rbp),%xmm0
    6438:	eb 0a                	jmp    6444 <safe_sub_func_double_f_f+0x5f>
    643a:	f2 0f 10 45 f8       	movsd  -0x8(%rbp),%xmm0
    643f:	f2 0f 5c 45 f0       	subsd  -0x10(%rbp),%xmm0
    6444:	5d                   	pop    %rbp
    6445:	c3                   	retq   

0000000000006446 <safe_mul_func_double_f_f>:
    6446:	f3 0f 1e fa          	endbr64 
    644a:	55                   	push   %rbp
    644b:	48 89 e5             	mov    %rsp,%rbp
    644e:	f2 0f 11 45 f8       	movsd  %xmm0,-0x8(%rbp)
    6453:	f2 0f 11 4d f0       	movsd  %xmm1,-0x10(%rbp)
    6458:	f2 0f 10 4d f8       	movsd  -0x8(%rbp),%xmm1
    645d:	f2 0f 10 05 e3 7e 00 	movsd  0x7ee3(%rip),%xmm0        # e348 <l_1001.4184+0x88>
    6464:	00 
    6465:	f2 0f 59 c8          	mulsd  %xmm0,%xmm1
    6469:	f2 0f 10 55 f0       	movsd  -0x10(%rbp),%xmm2
    646e:	f2 0f 10 05 da 7e 00 	movsd  0x7eda(%rip),%xmm0        # e350 <l_1001.4184+0x90>
    6475:	00 
    6476:	f2 0f 59 c2          	mulsd  %xmm2,%xmm0
    647a:	f2 0f 59 c1          	mulsd  %xmm1,%xmm0
    647e:	f3 0f 7e 0d aa 7e 00 	movq   0x7eaa(%rip),%xmm1        # e330 <l_1001.4184+0x70>
    6485:	00 
    6486:	66 0f 54 c1          	andpd  %xmm1,%xmm0
    648a:	66 0f 2f 05 c6 7e 00 	comisd 0x7ec6(%rip),%xmm0        # e358 <l_1001.4184+0x98>
    6491:	00 
    6492:	76 07                	jbe    649b <safe_mul_func_double_f_f+0x55>
    6494:	f2 0f 10 45 f8       	movsd  -0x8(%rbp),%xmm0
    6499:	eb 0a                	jmp    64a5 <safe_mul_func_double_f_f+0x5f>
    649b:	f2 0f 10 45 f8       	movsd  -0x8(%rbp),%xmm0
    64a0:	f2 0f 59 45 f0       	mulsd  -0x10(%rbp),%xmm0
    64a5:	5d                   	pop    %rbp
    64a6:	c3                   	retq   

00000000000064a7 <safe_div_func_double_f_f>:
    64a7:	f3 0f 1e fa          	endbr64 
    64ab:	55                   	push   %rbp
    64ac:	48 89 e5             	mov    %rsp,%rbp
    64af:	f2 0f 11 45 f8       	movsd  %xmm0,-0x8(%rbp)
    64b4:	f2 0f 11 4d f0       	movsd  %xmm1,-0x10(%rbp)
    64b9:	f2 0f 10 45 f0       	movsd  -0x10(%rbp),%xmm0
    64be:	f3 0f 7e 0d 6a 7e 00 	movq   0x7e6a(%rip),%xmm1        # e330 <l_1001.4184+0x70>
    64c5:	00 
    64c6:	66 0f 54 c8          	andpd  %xmm0,%xmm1
    64ca:	f2 0f 10 05 8e 7e 00 	movsd  0x7e8e(%rip),%xmm0        # e360 <l_1001.4184+0xa0>
    64d1:	00 
    64d2:	66 0f 2f c1          	comisd %xmm1,%xmm0
    64d6:	0f 97 c0             	seta   %al
    64d9:	83 f0 01             	xor    $0x1,%eax
    64dc:	84 c0                	test   %al,%al
    64de:	75 5a                	jne    653a <safe_div_func_double_f_f+0x93>
    64e0:	66 0f ef c0          	pxor   %xmm0,%xmm0
    64e4:	66 0f 2e 45 f0       	ucomisd -0x10(%rbp),%xmm0
    64e9:	7a 0b                	jp     64f6 <safe_div_func_double_f_f+0x4f>
    64eb:	66 0f ef c0          	pxor   %xmm0,%xmm0
    64ef:	66 0f 2e 45 f0       	ucomisd -0x10(%rbp),%xmm0
    64f4:	74 50                	je     6546 <safe_div_func_double_f_f+0x9f>
    64f6:	f2 0f 10 4d f8       	movsd  -0x8(%rbp),%xmm1
    64fb:	f2 0f 10 05 65 7e 00 	movsd  0x7e65(%rip),%xmm0        # e368 <l_1001.4184+0xa8>
    6502:	00 
    6503:	f2 0f 59 c1          	mulsd  %xmm1,%xmm0
    6507:	f2 0f 10 55 f0       	movsd  -0x10(%rbp),%xmm2
    650c:	f2 0f 10 0d 5c 7e 00 	movsd  0x7e5c(%rip),%xmm1        # e370 <l_1001.4184+0xb0>
    6513:	00 
    6514:	f2 0f 59 ca          	mulsd  %xmm2,%xmm1
    6518:	f2 0f 5e c1          	divsd  %xmm1,%xmm0
    651c:	f3 0f 7e 0d 0c 7e 00 	movq   0x7e0c(%rip),%xmm1        # e330 <l_1001.4184+0x70>
    6523:	00 
    6524:	66 0f 54 c1          	andpd  %xmm1,%xmm0
    6528:	66 0f 2f 05 48 7e 00 	comisd 0x7e48(%rip),%xmm0        # e378 <l_1001.4184+0xb8>
    652f:	00 
    6530:	0f 97 c0             	seta   %al
    6533:	83 f0 01             	xor    $0x1,%eax
    6536:	84 c0                	test   %al,%al
    6538:	74 0c                	je     6546 <safe_div_func_double_f_f+0x9f>
    653a:	f2 0f 10 45 f8       	movsd  -0x8(%rbp),%xmm0
    653f:	f2 0f 5e 45 f0       	divsd  -0x10(%rbp),%xmm0
    6544:	eb 05                	jmp    654b <safe_div_func_double_f_f+0xa4>
    6546:	f2 0f 10 45 f8       	movsd  -0x8(%rbp),%xmm0
    654b:	5d                   	pop    %rbp
    654c:	c3                   	retq   

000000000000654d <safe_convert_func_float_to_int32_t>:
    654d:	f3 0f 1e fa          	endbr64 
    6551:	55                   	push   %rbp
    6552:	48 89 e5             	mov    %rsp,%rbp
    6555:	f3 0f 11 45 fc       	movss  %xmm0,-0x4(%rbp)
    655a:	f3 0f 10 05 1e 7e 00 	movss  0x7e1e(%rip),%xmm0        # e380 <l_1001.4184+0xc0>
    6561:	00 
    6562:	0f 2f 45 fc          	comiss -0x4(%rbp),%xmm0
    6566:	0f 93 c0             	setae  %al
    6569:	83 f0 01             	xor    $0x1,%eax
    656c:	84 c0                	test   %al,%al
    656e:	74 21                	je     6591 <safe_convert_func_float_to_int32_t+0x44>
    6570:	f3 0f 10 45 fc       	movss  -0x4(%rbp),%xmm0
    6575:	0f 2f 05 08 7e 00 00 	comiss 0x7e08(%rip),%xmm0        # e384 <l_1001.4184+0xc4>
    657c:	0f 93 c0             	setae  %al
    657f:	83 f0 01             	xor    $0x1,%eax
    6582:	84 c0                	test   %al,%al
    6584:	74 0b                	je     6591 <safe_convert_func_float_to_int32_t+0x44>
    6586:	f3 0f 10 45 fc       	movss  -0x4(%rbp),%xmm0
    658b:	f3 0f 2c c0          	cvttss2si %xmm0,%eax
    658f:	eb 05                	jmp    6596 <safe_convert_func_float_to_int32_t+0x49>
    6591:	b8 ff ff ff 7f       	mov    $0x7fffffff,%eax
    6596:	5d                   	pop    %rbp
    6597:	c3                   	retq   

0000000000006598 <crc32_gentab>:
    6598:	f3 0f 1e fa          	endbr64 
    659c:	55                   	push   %rbp
    659d:	48 89 e5             	mov    %rsp,%rbp
    65a0:	c7 45 fc 20 83 b8 ed 	movl   $0xedb88320,-0x4(%rbp)
    65a7:	c7 45 f4 00 00 00 00 	movl   $0x0,-0xc(%rbp)
    65ae:	eb 51                	jmp    6601 <crc32_gentab+0x69>
    65b0:	8b 45 f4             	mov    -0xc(%rbp),%eax
    65b3:	89 45 f0             	mov    %eax,-0x10(%rbp)
    65b6:	c7 45 f8 08 00 00 00 	movl   $0x8,-0x8(%rbp)
    65bd:	eb 1e                	jmp    65dd <crc32_gentab+0x45>
    65bf:	8b 45 f0             	mov    -0x10(%rbp),%eax
    65c2:	83 e0 01             	and    $0x1,%eax
    65c5:	85 c0                	test   %eax,%eax
    65c7:	74 0d                	je     65d6 <crc32_gentab+0x3e>
    65c9:	8b 45 f0             	mov    -0x10(%rbp),%eax
    65cc:	d1 e8                	shr    %eax
    65ce:	33 45 fc             	xor    -0x4(%rbp),%eax
    65d1:	89 45 f0             	mov    %eax,-0x10(%rbp)
    65d4:	eb 03                	jmp    65d9 <crc32_gentab+0x41>
    65d6:	d1 6d f0             	shrl   -0x10(%rbp)
    65d9:	83 6d f8 01          	subl   $0x1,-0x8(%rbp)
    65dd:	83 7d f8 00          	cmpl   $0x0,-0x8(%rbp)
    65e1:	7f dc                	jg     65bf <crc32_gentab+0x27>
    65e3:	8b 45 f4             	mov    -0xc(%rbp),%eax
    65e6:	48 98                	cltq   
    65e8:	48 8d 0c 85 00 00 00 	lea    0x0(,%rax,4),%rcx
    65ef:	00 
    65f0:	48 8d 15 69 d8 00 00 	lea    0xd869(%rip),%rdx        # 13e60 <crc32_tab>
    65f7:	8b 45 f0             	mov    -0x10(%rbp),%eax
    65fa:	89 04 11             	mov    %eax,(%rcx,%rdx,1)
    65fd:	83 45 f4 01          	addl   $0x1,-0xc(%rbp)
    6601:	81 7d f4 ff 00 00 00 	cmpl   $0xff,-0xc(%rbp)
    6608:	7e a6                	jle    65b0 <crc32_gentab+0x18>
    660a:	90                   	nop
    660b:	90                   	nop
    660c:	5d                   	pop    %rbp
    660d:	c3                   	retq   

000000000000660e <crc32_byte>:
    660e:	f3 0f 1e fa          	endbr64 
    6612:	55                   	push   %rbp
    6613:	48 89 e5             	mov    %rsp,%rbp
    6616:	89 f8                	mov    %edi,%eax
    6618:	88 45 fc             	mov    %al,-0x4(%rbp)
    661b:	8b 05 ff a9 00 00    	mov    0xa9ff(%rip),%eax        # 11020 <crc32_context>
    6621:	c1 e8 08             	shr    $0x8,%eax
    6624:	89 c1                	mov    %eax,%ecx
    6626:	0f b6 55 fc          	movzbl -0x4(%rbp),%edx
    662a:	8b 05 f0 a9 00 00    	mov    0xa9f0(%rip),%eax        # 11020 <crc32_context>
    6630:	31 d0                	xor    %edx,%eax
    6632:	0f b6 c0             	movzbl %al,%eax
    6635:	89 c0                	mov    %eax,%eax
    6637:	48 8d 14 85 00 00 00 	lea    0x0(,%rax,4),%rdx
    663e:	00 
    663f:	48 8d 05 1a d8 00 00 	lea    0xd81a(%rip),%rax        # 13e60 <crc32_tab>
    6646:	8b 04 02             	mov    (%rdx,%rax,1),%eax
    6649:	31 c8                	xor    %ecx,%eax
    664b:	89 05 cf a9 00 00    	mov    %eax,0xa9cf(%rip)        # 11020 <crc32_context>
    6651:	90                   	nop
    6652:	5d                   	pop    %rbp
    6653:	c3                   	retq   

0000000000006654 <crc32_8bytes>:
    6654:	f3 0f 1e fa          	endbr64 
    6658:	55                   	push   %rbp
    6659:	48 89 e5             	mov    %rsp,%rbp
    665c:	48 83 ec 08          	sub    $0x8,%rsp
    6660:	48 89 7d f8          	mov    %rdi,-0x8(%rbp)
    6664:	48 8b 45 f8          	mov    -0x8(%rbp),%rax
    6668:	0f b6 c0             	movzbl %al,%eax
    666b:	89 c7                	mov    %eax,%edi
    666d:	e8 9c ff ff ff       	callq  660e <crc32_byte>
    6672:	48 8b 45 f8          	mov    -0x8(%rbp),%rax
    6676:	48 c1 e8 08          	shr    $0x8,%rax
    667a:	0f b6 c0             	movzbl %al,%eax
    667d:	89 c7                	mov    %eax,%edi
    667f:	e8 8a ff ff ff       	callq  660e <crc32_byte>
    6684:	48 8b 45 f8          	mov    -0x8(%rbp),%rax
    6688:	48 c1 e8 10          	shr    $0x10,%rax
    668c:	0f b6 c0             	movzbl %al,%eax
    668f:	89 c7                	mov    %eax,%edi
    6691:	e8 78 ff ff ff       	callq  660e <crc32_byte>
    6696:	48 8b 45 f8          	mov    -0x8(%rbp),%rax
    669a:	48 c1 e8 18          	shr    $0x18,%rax
    669e:	0f b6 c0             	movzbl %al,%eax
    66a1:	89 c7                	mov    %eax,%edi
    66a3:	e8 66 ff ff ff       	callq  660e <crc32_byte>
    66a8:	48 8b 45 f8          	mov    -0x8(%rbp),%rax
    66ac:	48 c1 e8 20          	shr    $0x20,%rax
    66b0:	0f b6 c0             	movzbl %al,%eax
    66b3:	89 c7                	mov    %eax,%edi
    66b5:	e8 54 ff ff ff       	callq  660e <crc32_byte>
    66ba:	48 8b 45 f8          	mov    -0x8(%rbp),%rax
    66be:	48 c1 e8 28          	shr    $0x28,%rax
    66c2:	0f b6 c0             	movzbl %al,%eax
    66c5:	89 c7                	mov    %eax,%edi
    66c7:	e8 42 ff ff ff       	callq  660e <crc32_byte>
    66cc:	48 8b 45 f8          	mov    -0x8(%rbp),%rax
    66d0:	48 c1 e8 30          	shr    $0x30,%rax
    66d4:	0f b6 c0             	movzbl %al,%eax
    66d7:	89 c7                	mov    %eax,%edi
    66d9:	e8 30 ff ff ff       	callq  660e <crc32_byte>
    66de:	48 8b 45 f8          	mov    -0x8(%rbp),%rax
    66e2:	48 c1 e8 38          	shr    $0x38,%rax
    66e6:	0f b6 c0             	movzbl %al,%eax
    66e9:	89 c7                	mov    %eax,%edi
    66eb:	e8 1e ff ff ff       	callq  660e <crc32_byte>
    66f0:	90                   	nop
    66f1:	c9                   	leaveq 
    66f2:	c3                   	retq   

00000000000066f3 <transparent_crc>:
    66f3:	f3 0f 1e fa          	endbr64 
    66f7:	55                   	push   %rbp
    66f8:	48 89 e5             	mov    %rsp,%rbp
    66fb:	48 83 ec 20          	sub    $0x20,%rsp
    66ff:	48 89 7d f8          	mov    %rdi,-0x8(%rbp)
    6703:	48 89 75 f0          	mov    %rsi,-0x10(%rbp)
    6707:	89 55 ec             	mov    %edx,-0x14(%rbp)
    670a:	48 8b 45 f8          	mov    -0x8(%rbp),%rax
    670e:	48 89 c7             	mov    %rax,%rdi
    6711:	e8 3e ff ff ff       	callq  6654 <crc32_8bytes>
    6716:	83 7d ec 00          	cmpl   $0x0,-0x14(%rbp)
    671a:	74 22                	je     673e <transparent_crc+0x4b>
    671c:	8b 05 fe a8 00 00    	mov    0xa8fe(%rip),%eax        # 11020 <crc32_context>
    6722:	f7 d0                	not    %eax
    6724:	89 c2                	mov    %eax,%edx
    6726:	48 8b 45 f0          	mov    -0x10(%rbp),%rax
    672a:	48 89 c6             	mov    %rax,%rsi
    672d:	48 8d 3d fc 68 00 00 	lea    0x68fc(%rip),%rdi        # d030 <_IO_stdin_used+0x30>
    6734:	b8 00 00 00 00       	mov    $0x0,%eax
    6739:	e8 42 e9 ff ff       	callq  5080 <printf@plt>
    673e:	90                   	nop
    673f:	c9                   	leaveq 
    6740:	c3                   	retq   

0000000000006741 <transparent_crc_bytes>:
    6741:	f3 0f 1e fa          	endbr64 
    6745:	55                   	push   %rbp
    6746:	48 89 e5             	mov    %rsp,%rbp
    6749:	48 83 ec 30          	sub    $0x30,%rsp
    674d:	48 89 7d e8          	mov    %rdi,-0x18(%rbp)
    6751:	89 75 e4             	mov    %esi,-0x1c(%rbp)
    6754:	48 89 55 d8          	mov    %rdx,-0x28(%rbp)
    6758:	89 4d e0             	mov    %ecx,-0x20(%rbp)
    675b:	c7 45 fc 00 00 00 00 	movl   $0x0,-0x4(%rbp)
    6762:	eb 1e                	jmp    6782 <transparent_crc_bytes+0x41>
    6764:	8b 45 fc             	mov    -0x4(%rbp),%eax
    6767:	48 63 d0             	movslq %eax,%rdx
    676a:	48 8b 45 e8          	mov    -0x18(%rbp),%rax
    676e:	48 01 d0             	add    %rdx,%rax
    6771:	0f b6 00             	movzbl (%rax),%eax
    6774:	0f b6 c0             	movzbl %al,%eax
    6777:	89 c7                	mov    %eax,%edi
    6779:	e8 90 fe ff ff       	callq  660e <crc32_byte>
    677e:	83 45 fc 01          	addl   $0x1,-0x4(%rbp)
    6782:	8b 45 fc             	mov    -0x4(%rbp),%eax
    6785:	3b 45 e4             	cmp    -0x1c(%rbp),%eax
    6788:	7c da                	jl     6764 <transparent_crc_bytes+0x23>
    678a:	83 7d e0 00          	cmpl   $0x0,-0x20(%rbp)
    678e:	74 22                	je     67b2 <transparent_crc_bytes+0x71>
    6790:	8b 05 8a a8 00 00    	mov    0xa88a(%rip),%eax        # 11020 <crc32_context>
    6796:	f7 d0                	not    %eax
    6798:	89 c2                	mov    %eax,%edx
    679a:	48 8b 45 d8          	mov    -0x28(%rbp),%rax
    679e:	48 89 c6             	mov    %rax,%rsi
    67a1:	48 8d 3d 88 68 00 00 	lea    0x6888(%rip),%rdi        # d030 <_IO_stdin_used+0x30>
    67a8:	b8 00 00 00 00       	mov    $0x0,%eax
    67ad:	e8 ce e8 ff ff       	callq  5080 <printf@plt>
    67b2:	90                   	nop
    67b3:	c9                   	leaveq 
    67b4:	c3                   	retq   

00000000000067b5 <func_1>:
    67b5:	f3 0f 1e fa          	endbr64 
    67b9:	55                   	push   %rbp
    67ba:	48 89 e5             	mov    %rsp,%rbp
    67bd:	41 57                	push   %r15
    67bf:	41 56                	push   %r14
    67c1:	41 55                	push   %r13
    67c3:	41 54                	push   %r12
    67c5:	53                   	push   %rbx
    67c6:	48 81 ec 68 0c 00 00 	sub    $0xc68,%rsp
    67cd:	64 48 8b 04 25 28 00 	mov    %fs:0x28,%rax
    67d4:	00 00 
    67d6:	48 89 45 c8          	mov    %rax,-0x38(%rbp)
    67da:	31 c0                	xor    %eax,%eax
    67dc:	48 8d 05 4c a8 00 00 	lea    0xa84c(%rip),%rax        # 1102f <g_17+0x7>
    67e3:	48 89 85 b0 f3 ff ff 	mov    %rax,-0xc50(%rbp)
    67ea:	c7 85 a0 f5 ff ff ff 	movl   $0xffffffff,-0xa60(%rbp)
    67f1:	ff ff ff 
    67f4:	c7 85 a4 f5 ff ff ff 	movl   $0xffffffff,-0xa5c(%rbp)
    67fb:	ff ff ff 
    67fe:	c7 85 a8 f5 ff ff 15 	movl   $0x3e64bb15,-0xa58(%rbp)
    6805:	bb 64 3e 
    6808:	c7 85 ac f5 ff ff ff 	movl   $0xffffffff,-0xa54(%rbp)
    680f:	ff ff ff 
    6812:	c7 85 b0 f5 ff ff ff 	movl   $0xffffffff,-0xa50(%rbp)
    6819:	ff ff ff 
    681c:	c7 85 b4 f5 ff ff 15 	movl   $0x3e64bb15,-0xa4c(%rbp)
    6823:	bb 64 3e 
    6826:	c7 85 b8 f5 ff ff ff 	movl   $0xffffffff,-0xa48(%rbp)
    682d:	ff ff ff 
    6830:	c7 85 bc f5 ff ff ff 	movl   $0xffffffff,-0xa44(%rbp)
    6837:	ff ff ff 
    683a:	c7 85 c0 f5 ff ff 01 	movl   $0x1,-0xa40(%rbp)
    6841:	00 00 00 
    6844:	c7 85 c4 f5 ff ff ff 	movl   $0xffffffff,-0xa3c(%rbp)
    684b:	ff ff ff 
    684e:	c7 85 c8 f5 ff ff 01 	movl   $0x1,-0xa38(%rbp)
    6855:	00 00 00 
    6858:	c7 85 cc f5 ff ff 01 	movl   $0x1,-0xa34(%rbp)
    685f:	00 00 00 
    6862:	c7 85 d0 f5 ff ff ff 	movl   $0xffffffff,-0xa30(%rbp)
    6869:	ff ff ff 
    686c:	c7 85 d4 f5 ff ff 01 	movl   $0x1,-0xa2c(%rbp)
    6873:	00 00 00 
    6876:	c7 85 d8 f5 ff ff 01 	movl   $0x1,-0xa28(%rbp)
    687d:	00 00 00 
    6880:	c7 85 dc f5 ff ff ff 	movl   $0xffffffff,-0xa24(%rbp)
    6887:	ff ff ff 
    688a:	c7 85 e0 f5 ff ff ff 	movl   $0xffffffff,-0xa20(%rbp)
    6891:	ff ff ff 
    6894:	c7 85 e4 f5 ff ff 01 	movl   $0x1,-0xa1c(%rbp)
    689b:	00 00 00 
    689e:	c7 85 e8 f5 ff ff 01 	movl   $0x1,-0xa18(%rbp)
    68a5:	00 00 00 
    68a8:	c7 85 ec f5 ff ff ff 	movl   $0xffffffff,-0xa14(%rbp)
    68af:	ff ff ff 
    68b2:	c7 85 f0 f5 ff ff 01 	movl   $0x1,-0xa10(%rbp)
    68b9:	00 00 00 
    68bc:	c7 85 f4 f5 ff ff 01 	movl   $0x1,-0xa0c(%rbp)
    68c3:	00 00 00 
    68c6:	c7 85 f8 f5 ff ff ff 	movl   $0xffffffff,-0xa08(%rbp)
    68cd:	ff ff ff 
    68d0:	c7 85 fc f5 ff ff 01 	movl   $0x1,-0xa04(%rbp)
    68d7:	00 00 00 
    68da:	c7 85 00 f6 ff ff ff 	movl   $0xffffffff,-0xa00(%rbp)
    68e1:	ff ff ff 
    68e4:	c7 85 04 f6 ff ff ff 	movl   $0xffffffff,-0x9fc(%rbp)
    68eb:	ff ff ff 
    68ee:	c7 85 08 f6 ff ff 15 	movl   $0x3e64bb15,-0x9f8(%rbp)
    68f5:	bb 64 3e 
    68f8:	c7 85 0c f6 ff ff ff 	movl   $0xffffffff,-0x9f4(%rbp)
    68ff:	ff ff ff 
    6902:	c7 85 10 f6 ff ff ff 	movl   $0xffffffff,-0x9f0(%rbp)
    6909:	ff ff ff 
    690c:	c7 85 14 f6 ff ff 15 	movl   $0x3e64bb15,-0x9ec(%rbp)
    6913:	bb 64 3e 
    6916:	c7 85 18 f6 ff ff ff 	movl   $0xffffffff,-0x9e8(%rbp)
    691d:	ff ff ff 
    6920:	c7 85 1c f6 ff ff ff 	movl   $0xffffffff,-0x9e4(%rbp)
    6927:	ff ff ff 
    692a:	c7 85 20 f6 ff ff 01 	movl   $0x1,-0x9e0(%rbp)
    6931:	00 00 00 
    6934:	c7 85 24 f6 ff ff ff 	movl   $0xffffffff,-0x9dc(%rbp)
    693b:	ff ff ff 
    693e:	c7 85 28 f6 ff ff 01 	movl   $0x1,-0x9d8(%rbp)
    6945:	00 00 00 
    6948:	c7 85 2c f6 ff ff 01 	movl   $0x1,-0x9d4(%rbp)
    694f:	00 00 00 
    6952:	c7 85 30 f6 ff ff ff 	movl   $0xffffffff,-0x9d0(%rbp)
    6959:	ff ff ff 
    695c:	c7 85 34 f6 ff ff 01 	movl   $0x1,-0x9cc(%rbp)
    6963:	00 00 00 
    6966:	c7 85 38 f6 ff ff 01 	movl   $0x1,-0x9c8(%rbp)
    696d:	00 00 00 
    6970:	c7 85 3c f6 ff ff ff 	movl   $0xffffffff,-0x9c4(%rbp)
    6977:	ff ff ff 
    697a:	c7 85 40 f6 ff ff ff 	movl   $0xffffffff,-0x9c0(%rbp)
    6981:	ff ff ff 
    6984:	c7 85 44 f6 ff ff 01 	movl   $0x1,-0x9bc(%rbp)
    698b:	00 00 00 
    698e:	c7 85 48 f6 ff ff 01 	movl   $0x1,-0x9b8(%rbp)
    6995:	00 00 00 
    6998:	c7 85 4c f6 ff ff ff 	movl   $0xffffffff,-0x9b4(%rbp)
    699f:	ff ff ff 
    69a2:	c7 85 50 f6 ff ff 01 	movl   $0x1,-0x9b0(%rbp)
    69a9:	00 00 00 
    69ac:	c7 85 54 f6 ff ff 01 	movl   $0x1,-0x9ac(%rbp)
    69b3:	00 00 00 
    69b6:	c7 85 58 f6 ff ff ff 	movl   $0xffffffff,-0x9a8(%rbp)
    69bd:	ff ff ff 
    69c0:	c7 85 5c f6 ff ff 01 	movl   $0x1,-0x9a4(%rbp)
    69c7:	00 00 00 
    69ca:	48 8d 85 c0 f9 ff ff 	lea    -0x640(%rbp),%rax
    69d1:	48 8d 15 e8 b8 00 00 	lea    0xb8e8(%rip),%rdx        # 122c0 <g_1030+0x20>
    69d8:	b9 c0 00 00 00       	mov    $0xc0,%ecx
    69dd:	48 89 c7             	mov    %rax,%rdi
    69e0:	48 89 d6             	mov    %rdx,%rsi
    69e3:	f3 48 a5             	rep movsq %ds:(%rsi),%es:(%rdi)
    69e6:	48 c7 85 c8 f3 ff ff 	movq   $0x0,-0xc38(%rbp)
    69ed:	00 00 00 00 
    69f1:	48 8d 05 78 a9 00 00 	lea    0xa978(%rip),%rax        # 11370 <g_195>
    69f8:	48 89 85 a0 f4 ff ff 	mov    %rax,-0xb60(%rbp)
    69ff:	48 8d 05 6a a9 00 00 	lea    0xa96a(%rip),%rax        # 11370 <g_195>
    6a06:	48 89 85 a8 f4 ff ff 	mov    %rax,-0xb58(%rbp)
    6a0d:	48 8d 05 5c a9 00 00 	lea    0xa95c(%rip),%rax        # 11370 <g_195>
    6a14:	48 89 85 b0 f4 ff ff 	mov    %rax,-0xb50(%rbp)
    6a1b:	48 8d 05 4e a9 00 00 	lea    0xa94e(%rip),%rax        # 11370 <g_195>
    6a22:	48 89 85 b8 f4 ff ff 	mov    %rax,-0xb48(%rbp)
    6a29:	48 8d 05 40 a9 00 00 	lea    0xa940(%rip),%rax        # 11370 <g_195>
    6a30:	48 89 85 c0 f4 ff ff 	mov    %rax,-0xb40(%rbp)
    6a37:	c7 85 90 f3 ff ff 0d 	movl   $0xa4013d0d,-0xc70(%rbp)
    6a3e:	3d 01 a4 
    6a41:	48 8d 05 08 b8 00 00 	lea    0xb808(%rip),%rax        # 12250 <g_949>
    6a48:	48 89 85 d0 f3 ff ff 	mov    %rax,-0xc30(%rbp)
    6a4f:	c7 85 94 f3 ff ff fe 	movl   $0x44377efe,-0xc6c(%rbp)
    6a56:	7e 37 44 
    6a59:	c6 85 85 f3 ff ff 66 	movb   $0x66,-0xc7b(%rbp)
    6a60:	c7 85 a4 f3 ff ff 55 	movl   $0xd861a055,-0xc5c(%rbp)
    6a67:	a0 61 d8 
    6a6a:	48 b8 e8 62 28 12 63 	movabs $0xadbbf563122862e8,%rax
    6a71:	f5 bb ad 
    6a74:	48 89 85 d8 f3 ff ff 	mov    %rax,-0xc28(%rbp)
    6a7b:	48 8d 85 d0 f4 ff ff 	lea    -0xb30(%rbp),%rax
    6a82:	48 83 c0 10          	add    $0x10,%rax
    6a86:	48 89 85 e0 f3 ff ff 	mov    %rax,-0xc20(%rbp)
    6a8d:	c7 85 98 f3 ff ff 00 	movl   $0x0,-0xc68(%rbp)
    6a94:	00 00 00 
    6a97:	eb 1b                	jmp    6ab4 <func_1+0x2ff>
    6a99:	8b 85 98 f3 ff ff    	mov    -0xc68(%rbp),%eax
    6a9f:	48 98                	cltq   
    6aa1:	48 c7 84 c5 d0 f4 ff 	movq   $0x0,-0xb30(%rbp,%rax,8)
    6aa8:	ff 00 00 00 00 
    6aad:	83 85 98 f3 ff ff 01 	addl   $0x1,-0xc68(%rbp)
    6ab4:	83 bd 98 f3 ff ff 04 	cmpl   $0x4,-0xc68(%rbp)
    6abb:	7e dc                	jle    6a99 <func_1+0x2e4>
    6abd:	8b 85 0c f6 ff ff    	mov    -0x9f4(%rbp),%eax
    6ac3:	0f b6 d8             	movzbl %al,%ebx
    6ac6:	0f b7 05 b3 ae 00 00 	movzwl 0xaeb3(%rip),%eax        # 11980 <g_324>
    6acd:	44 0f b7 e8          	movzwl %ax,%r13d
    6ad1:	4c 8b a5 b8 f4 ff ff 	mov    -0xb48(%rbp),%r12
    6ad8:	4c 8b b5 b0 f3 ff ff 	mov    -0xc50(%rbp),%r14
    6adf:	48 8b 95 b0 f3 ff ff 	mov    -0xc50(%rbp),%rdx
    6ae6:	48 8b 8d b0 f3 ff ff 	mov    -0xc50(%rbp),%rcx
    6aed:	48 8b 85 b0 f3 ff ff 	mov    -0xc50(%rbp),%rax
    6af4:	48 89 ce             	mov    %rcx,%rsi
    6af7:	48 89 c7             	mov    %rax,%rdi
    6afa:	e8 e0 0b 00 00       	callq  76df <func_12>
    6aff:	66 85 c0             	test   %ax,%ax
    6b02:	0f 84 f4 00 00 00    	je     6bfc <func_1+0x447>
    6b08:	4c 8b 3d 51 a8 00 00 	mov    0xa851(%rip),%r15        # 11360 <g_178>
    6b0f:	48 8d 05 7a b2 00 00 	lea    0xb27a(%rip),%rax        # 11d90 <g_400>
    6b16:	48 89 85 48 fa ff ff 	mov    %rax,-0x5b8(%rbp)
    6b1d:	48 8b 85 48 fa ff ff 	mov    -0x5b8(%rbp),%rax
    6b24:	48 8d 15 65 b2 00 00 	lea    0xb265(%rip),%rdx        # 11d90 <g_400>
    6b2b:	48 39 d0             	cmp    %rdx,%rax
    6b2e:	0f 94 85 7f f3 ff ff 	sete   -0xc81(%rbp)
    6b35:	8b 85 0c f6 ff ff    	mov    -0x9f4(%rbp),%eax
    6b3b:	0f b7 f0             	movzwl %ax,%esi
    6b3e:	89 b5 78 f3 ff ff    	mov    %esi,-0xc88(%rbp)
    6b44:	8b bd e8 f5 ff ff    	mov    -0xa18(%rbp),%edi
    6b4a:	89 bd 74 f3 ff ff    	mov    %edi,-0xc8c(%rbp)
    6b50:	8b 85 38 f6 ff ff    	mov    -0x9c8(%rbp),%eax
    6b56:	0f b7 d0             	movzwl %ax,%edx
    6b59:	8b 85 30 f6 ff ff    	mov    -0x9d0(%rbp),%eax
    6b5f:	0f b7 c0             	movzwl %ax,%eax
    6b62:	89 d6                	mov    %edx,%esi
    6b64:	89 c7                	mov    %eax,%edi
    6b66:	e8 f1 f1 ff ff       	callq  5d5c <safe_mod_func_uint16_t_u_u>
    6b6b:	0f b7 c0             	movzwl %ax,%eax
    6b6e:	8b b5 74 f3 ff ff    	mov    -0xc8c(%rbp),%esi
    6b74:	89 c7                	mov    %eax,%edi
    6b76:	e8 3b ea ff ff       	callq  55b6 <safe_add_func_int32_t_s_s>
    6b7b:	be 01 00 00 00       	mov    $0x1,%esi
    6b80:	bf 0a 5e 00 00       	mov    $0x5e0a,%edi
    6b85:	e8 95 f1 ff ff       	callq  5d1f <safe_sub_func_uint16_t_u_u>
    6b8a:	8b b5 78 f3 ff ff    	mov    -0xc88(%rbp),%esi
    6b90:	bf 00 00 00 00       	mov    $0x0,%edi
    6b95:	e8 c2 f1 ff ff       	callq  5d5c <safe_mod_func_uint16_t_u_u>
    6b9a:	0f b7 15 d9 b3 00 00 	movzwl 0xb3d9(%rip),%edx        # 11f7a <g_596>
    6ba1:	66 39 d0             	cmp    %dx,%ax
    6ba4:	c7 85 90 f3 ff ff 62 	movl   $0x62,-0xc70(%rbp)
    6bab:	00 00 00 
    6bae:	8b 85 0c f6 ff ff    	mov    -0x9f4(%rbp),%eax
    6bb4:	39 85 90 f3 ff ff    	cmp    %eax,-0xc70(%rbp)
    6bba:	0f 95 c0             	setne  %al
    6bbd:	22 85 7f f3 ff ff    	and    -0xc81(%rbp),%al
    6bc3:	0f b6 d0             	movzbl %al,%edx
    6bc6:	8b 85 0c f6 ff ff    	mov    -0x9f4(%rbp),%eax
    6bcc:	98                   	cwtl   
    6bcd:	89 d6                	mov    %edx,%esi
    6bcf:	89 c7                	mov    %eax,%edi
    6bd1:	e8 bc e8 ff ff       	callq  5492 <safe_lshift_func_int16_t_s_s>
    6bd6:	48 0f bf c0          	movswq %ax,%rax
    6bda:	4c 89 fe             	mov    %r15,%rsi
    6bdd:	48 89 c7             	mov    %rax,%rdi
    6be0:	e8 c3 ec ff ff       	callq  58a8 <safe_sub_func_int64_t_s_s>
    6be5:	be 6e e1 e5 f0       	mov    $0xf0e5e16e,%esi
    6bea:	89 c7                	mov    %eax,%edi
    6bec:	e8 0c f3 ff ff       	callq  5efd <safe_mod_func_uint32_t_u_u>
    6bf1:	85 c0                	test   %eax,%eax
    6bf3:	74 07                	je     6bfc <func_1+0x447>
    6bf5:	b8 01 00 00 00       	mov    $0x1,%eax
    6bfa:	eb 05                	jmp    6c01 <func_1+0x44c>
    6bfc:	b8 00 00 00 00       	mov    $0x0,%eax
    6c01:	0f b7 c0             	movzwl %ax,%eax
    6c04:	48 8b 8d c8 f3 ff ff 	mov    -0xc38(%rbp),%rcx
    6c0b:	4c 89 f2             	mov    %r14,%rdx
    6c0e:	48 89 ce             	mov    %rcx,%rsi
    6c11:	89 c7                	mov    %eax,%edi
    6c13:	e8 a5 0a 00 00       	callq  76bd <func_8>
    6c18:	44 89 ea             	mov    %r13d,%edx
    6c1b:	4c 89 e6             	mov    %r12,%rsi
    6c1e:	48 89 c7             	mov    %rax,%rdi
    6c21:	e8 b9 08 00 00       	callq  74df <func_4>
    6c26:	48 ba b6 46 e3 42 e7 	movabs $0xc220a7e742e346b6,%rdx
    6c2d:	a7 20 c2 
    6c30:	48 39 d0             	cmp    %rdx,%rax
    6c33:	0f 96 c0             	setbe  %al
    6c36:	0f b6 c0             	movzbl %al,%eax
    6c39:	89 de                	mov    %ebx,%esi
    6c3b:	89 c7                	mov    %eax,%edi
    6c3d:	e8 51 ef ff ff       	callq  5b93 <safe_mul_func_uint8_t_u_u>
    6c42:	48 8b 95 d0 f3 ff ff 	mov    -0xc30(%rbp),%rdx
    6c49:	8b 12                	mov    (%rdx),%edx
    6c4b:	0f b6 c0             	movzbl %al,%eax
    6c4e:	31 c2                	xor    %eax,%edx
    6c50:	48 8b 85 d0 f3 ff ff 	mov    -0xc30(%rbp),%rax
    6c57:	89 10                	mov    %edx,(%rax)
    6c59:	48 8b 05 b0 d1 00 00 	mov    0xd1b0(%rip),%rax        # 13e10 <g_950>
    6c60:	c7 00 00 00 00 00    	movl   $0x0,(%rax)
    6c66:	48 c7 05 ef a6 00 00 	movq   $0x0,0xa6ef(%rip)        # 11360 <g_178>
    6c6d:	00 00 00 00 
    6c71:	e9 2c 08 00 00       	jmpq   74a2 <func_1+0xced>
    6c76:	48 b8 7c f9 64 54 3c 	movabs $0x25307d3c5464f97c,%rax
    6c7d:	7d 30 25 
    6c80:	48 89 85 e8 f3 ff ff 	mov    %rax,-0xc18(%rbp)
    6c87:	48 8d 05 ba b5 00 00 	lea    0xb5ba(%rip),%rax        # 12248 <g_870>
    6c8e:	48 89 85 f0 f3 ff ff 	mov    %rax,-0xc10(%rbp)
    6c95:	48 c7 85 f8 f3 ff ff 	movq   $0x0,-0xc08(%rbp)
    6c9c:	00 00 00 00 
    6ca0:	48 8d 05 d9 ac 00 00 	lea    0xacd9(%rip),%rax        # 11980 <g_324>
    6ca7:	48 89 85 00 f4 ff ff 	mov    %rax,-0xc00(%rbp)
    6cae:	48 8d 05 df b0 00 00 	lea    0xb0df(%rip),%rax        # 11d94 <g_401>
    6cb5:	48 89 85 00 f5 ff ff 	mov    %rax,-0xb00(%rbp)
    6cbc:	48 c7 85 08 f5 ff ff 	movq   $0x0,-0xaf8(%rbp)
    6cc3:	00 00 00 00 
    6cc7:	48 8d 05 c6 b0 00 00 	lea    0xb0c6(%rip),%rax        # 11d94 <g_401>
    6cce:	48 89 85 10 f5 ff ff 	mov    %rax,-0xaf0(%rbp)
    6cd5:	48 8d 05 b8 b0 00 00 	lea    0xb0b8(%rip),%rax        # 11d94 <g_401>
    6cdc:	48 89 85 18 f5 ff ff 	mov    %rax,-0xae8(%rbp)
    6ce3:	48 c7 85 20 f5 ff ff 	movq   $0x0,-0xae0(%rbp)
    6cea:	00 00 00 00 
    6cee:	48 8d 05 9f b0 00 00 	lea    0xb09f(%rip),%rax        # 11d94 <g_401>
    6cf5:	48 89 85 28 f5 ff ff 	mov    %rax,-0xad8(%rbp)
    6cfc:	48 8d 05 91 b0 00 00 	lea    0xb091(%rip),%rax        # 11d94 <g_401>
    6d03:	48 89 85 30 f5 ff ff 	mov    %rax,-0xad0(%rbp)
    6d0a:	48 c7 85 38 f5 ff ff 	movq   $0x0,-0xac8(%rbp)
    6d11:	00 00 00 00 
    6d15:	48 8d 05 78 b0 00 00 	lea    0xb078(%rip),%rax        # 11d94 <g_401>
    6d1c:	48 89 85 40 f5 ff ff 	mov    %rax,-0xac0(%rbp)
    6d23:	48 8d 85 60 f6 ff ff 	lea    -0x9a0(%rbp),%rax
    6d2a:	48 8d 15 2f 63 00 00 	lea    0x632f(%rip),%rdx        # d060 <g_59+0xb>
    6d31:	b9 6c 00 00 00       	mov    $0x6c,%ecx
    6d36:	48 89 c7             	mov    %rax,%rdi
    6d39:	48 89 d6             	mov    %rdx,%rsi
    6d3c:	f3 48 a5             	rep movsq %ds:(%rsi),%es:(%rdi)
    6d3f:	48 8d 05 22 b2 00 00 	lea    0xb222(%rip),%rax        # 11f68 <g_580+0x8>
    6d46:	48 89 85 08 f4 ff ff 	mov    %rax,-0xbf8(%rbp)
    6d4d:	48 8d 05 4c b4 00 00 	lea    0xb44c(%rip),%rax        # 121a0 <g_792>
    6d54:	48 89 85 50 f5 ff ff 	mov    %rax,-0xab0(%rbp)
    6d5b:	48 8d 05 3e b4 00 00 	lea    0xb43e(%rip),%rax        # 121a0 <g_792>
    6d62:	48 89 85 58 f5 ff ff 	mov    %rax,-0xaa8(%rbp)
    6d69:	48 8d 05 30 b4 00 00 	lea    0xb430(%rip),%rax        # 121a0 <g_792>
    6d70:	48 89 85 60 f5 ff ff 	mov    %rax,-0xaa0(%rbp)
    6d77:	48 8d 05 22 b4 00 00 	lea    0xb422(%rip),%rax        # 121a0 <g_792>
    6d7e:	48 89 85 68 f5 ff ff 	mov    %rax,-0xa98(%rbp)
    6d85:	48 8d 05 14 b4 00 00 	lea    0xb414(%rip),%rax        # 121a0 <g_792>
    6d8c:	48 89 85 70 f5 ff ff 	mov    %rax,-0xa90(%rbp)
    6d93:	48 8d 05 06 b4 00 00 	lea    0xb406(%rip),%rax        # 121a0 <g_792>
    6d9a:	48 89 85 78 f5 ff ff 	mov    %rax,-0xa88(%rbp)
    6da1:	48 8d 05 f8 b3 00 00 	lea    0xb3f8(%rip),%rax        # 121a0 <g_792>
    6da8:	48 89 85 80 f5 ff ff 	mov    %rax,-0xa80(%rbp)
    6daf:	48 8d 05 ea b3 00 00 	lea    0xb3ea(%rip),%rax        # 121a0 <g_792>
    6db6:	48 89 85 88 f5 ff ff 	mov    %rax,-0xa78(%rbp)
    6dbd:	48 8d 05 dc b3 00 00 	lea    0xb3dc(%rip),%rax        # 121a0 <g_792>
    6dc4:	48 89 85 90 f5 ff ff 	mov    %rax,-0xa70(%rbp)
    6dcb:	8b 1d f7 ac 00 00    	mov    0xacf7(%rip),%ebx        # 11ac8 <g_352+0x128>
    6dd1:	8b 05 c1 b4 00 00    	mov    0xb4c1(%rip),%eax        # 12298 <g_973>
    6dd7:	44 0f bf e0          	movswl %ax,%r12d
    6ddb:	8b 05 b7 af 00 00    	mov    0xafb7(%rip),%eax        # 11d98 <g_404>
    6de1:	41 89 c5             	mov    %eax,%r13d
    6de4:	48 8b 05 55 cc 00 00 	mov    0xcc55(%rip),%rax        # 13a40 <g_670>
    6deb:	81 bd 90 f3 ff ff 4d 	cmpl   $0xd44d,-0xc70(%rbp)
    6df2:	d4 00 00 
    6df5:	48 8b 85 e8 f3 ff ff 	mov    -0xc18(%rbp),%rax
    6dfc:	89 c2                	mov    %eax,%edx
    6dfe:	48 8b 85 00 f4 ff ff 	mov    -0xc00(%rbp),%rax
    6e05:	66 89 10             	mov    %dx,(%rax)
    6e08:	48 8b 85 00 f4 ff ff 	mov    -0xc00(%rbp),%rax
    6e0f:	0f b7 00             	movzwl (%rax),%eax
    6e12:	0f b7 c0             	movzwl %ax,%eax
    6e15:	89 c7                	mov    %eax,%edi
    6e17:	e8 cd ee ff ff       	callq  5ce9 <safe_unary_minus_func_uint16_t_u>
    6e1c:	0f b7 c0             	movzwl %ax,%eax
    6e1f:	48 39 85 e8 f3 ff ff 	cmp    %rax,-0xc18(%rbp)
    6e26:	0f 9e c0             	setle  %al
    6e29:	0f b6 c0             	movzbl %al,%eax
    6e2c:	48 8b 95 e8 f3 ff ff 	mov    -0xc18(%rbp),%rdx
    6e33:	09 d0                	or     %edx,%eax
    6e35:	be fa 39 8e dc       	mov    $0xdc8e39fa,%esi
    6e3a:	89 c7                	mov    %eax,%edi
    6e3c:	e8 77 f0 ff ff       	callq  5eb8 <safe_add_func_uint32_t_u_u>
    6e41:	89 85 54 f8 ff ff    	mov    %eax,-0x7ac(%rbp)
    6e47:	8b 95 54 f8 ff ff    	mov    -0x7ac(%rbp),%edx
    6e4d:	8b 85 0c f6 ff ff    	mov    -0x9f4(%rbp),%eax
    6e53:	31 d0                	xor    %edx,%eax
    6e55:	89 85 0c f6 ff ff    	mov    %eax,-0x9f4(%rbp)
    6e5b:	8b 85 0c f6 ff ff    	mov    -0x9f4(%rbp),%eax
    6e61:	39 85 90 f3 ff ff    	cmp    %eax,-0xc70(%rbp)
    6e67:	0f 95 c2             	setne  %dl
    6e6a:	48 8b 05 f7 c9 00 00 	mov    0xc9f7(%rip),%rax        # 13868 <g_121>
    6e71:	88 10                	mov    %dl,(%rax)
    6e73:	0f b6 00             	movzbl (%rax),%eax
    6e76:	0f be c0             	movsbl %al,%eax
    6e79:	39 85 90 f3 ff ff    	cmp    %eax,-0xc70(%rbp)
    6e7f:	0f 94 c0             	sete   %al
    6e82:	0f b6 c0             	movzbl %al,%eax
    6e85:	44 89 ee             	mov    %r13d,%esi
    6e88:	89 c7                	mov    %eax,%edi
    6e8a:	e8 d4 e6 ff ff       	callq  5563 <safe_rshift_func_int16_t_s_u>
    6e8f:	48 0f bf c0          	movswq %ax,%rax
    6e93:	48 39 85 e8 f3 ff ff 	cmp    %rax,-0xc18(%rbp)
    6e9a:	0f 9e c0             	setle  %al
    6e9d:	0f b6 c0             	movzbl %al,%eax
    6ea0:	48 89 c7             	mov    %rax,%rdi
    6ea3:	e8 6e e9 ff ff       	callq  5816 <safe_unary_minus_func_int64_t_s>
    6ea8:	8b 95 90 f3 ff ff    	mov    -0xc70(%rbp),%edx
    6eae:	48 63 d2             	movslq %edx,%rdx
    6eb1:	48 39 d0             	cmp    %rdx,%rax
    6eb4:	0f 94 c0             	sete   %al
    6eb7:	0f b6 c0             	movzbl %al,%eax
    6eba:	39 85 90 f3 ff ff    	cmp    %eax,-0xc70(%rbp)
    6ec0:	0f 9e c0             	setle  %al
    6ec3:	0f b6 c0             	movzbl %al,%eax
    6ec6:	44 89 e6             	mov    %r12d,%esi
    6ec9:	89 c7                	mov    %eax,%edi
    6ecb:	e8 e3 e4 ff ff       	callq  53b3 <safe_add_func_int16_t_s_s>
    6ed0:	8b 85 e8 f7 ff ff    	mov    -0x818(%rbp),%eax
    6ed6:	0f b7 d0             	movzwl %ax,%edx
    6ed9:	48 8b 85 e8 f3 ff ff 	mov    -0xc18(%rbp),%rax
    6ee0:	89 c1                	mov    %eax,%ecx
    6ee2:	48 8b 85 f0 f3 ff ff 	mov    -0xc10(%rbp),%rax
    6ee9:	66 89 08             	mov    %cx,(%rax)
    6eec:	48 8b 85 f0 f3 ff ff 	mov    -0xc10(%rbp),%rax
    6ef3:	0f b7 00             	movzwl (%rax),%eax
    6ef6:	0f b7 c0             	movzwl %ax,%eax
    6ef9:	89 d6                	mov    %edx,%esi
    6efb:	89 c7                	mov    %eax,%edi
    6efd:	e8 1d ee ff ff       	callq  5d1f <safe_sub_func_uint16_t_u_u>
    6f02:	0f b7 c0             	movzwl %ax,%eax
    6f05:	23 85 90 f3 ff ff    	and    -0xc70(%rbp),%eax
    6f0b:	39 85 90 f3 ff ff    	cmp    %eax,-0xc70(%rbp)
    6f11:	0f 9f c0             	setg   %al
    6f14:	0f b6 c0             	movzbl %al,%eax
    6f17:	48 8b 95 e8 f3 ff ff 	mov    -0xc18(%rbp),%rdx
    6f1e:	48 89 d6             	mov    %rdx,%rsi
    6f21:	48 89 c7             	mov    %rax,%rdi
    6f24:	e8 8b ea ff ff       	callq  59b4 <safe_mod_func_int64_t_s_s>
    6f29:	0f b7 c0             	movzwl %ax,%eax
    6f2c:	89 de                	mov    %ebx,%esi
    6f2e:	89 c7                	mov    %eax,%edi
    6f30:	e8 45 ef ff ff       	callq  5e7a <safe_rshift_func_uint16_t_u_u>
    6f35:	0f b7 c0             	movzwl %ax,%eax
    6f38:	48 39 85 e8 f3 ff ff 	cmp    %rax,-0xc18(%rbp)
    6f3f:	0f 9f c0             	setg   %al
    6f42:	0f b6 c0             	movzbl %al,%eax
    6f45:	09 85 94 f3 ff ff    	or     %eax,-0xc6c(%rbp)
    6f4b:	c7 85 90 f3 ff ff 00 	movl   $0x0,-0xc70(%rbp)
    6f52:	00 00 00 
    6f55:	e9 75 03 00 00       	jmpq   72cf <func_1+0xb1a>
    6f5a:	48 c7 85 10 f4 ff ff 	movq   $0x0,-0xbf0(%rbp)
    6f61:	00 00 00 00 
    6f65:	66 c7 85 86 f3 ff ff 	movw   $0xbcab,-0xc7a(%rbp)
    6f6c:	ab bc 
    6f6e:	c7 85 9c f3 ff ff 00 	movl   $0x0,-0xc64(%rbp)
    6f75:	00 00 00 
    6f78:	eb 1b                	jmp    6f95 <func_1+0x7e0>
    6f7a:	8b 85 9c f3 ff ff    	mov    -0xc64(%rbp),%eax
    6f80:	48 98                	cltq   
    6f82:	48 c7 84 c5 50 f4 ff 	movq   $0x0,-0xbb0(%rbp,%rax,8)
    6f89:	ff 00 00 00 00 
    6f8e:	83 85 9c f3 ff ff 01 	addl   $0x1,-0xc64(%rbp)
    6f95:	83 bd 9c f3 ff ff 02 	cmpl   $0x2,-0xc64(%rbp)
    6f9c:	7e dc                	jle    6f7a <func_1+0x7c5>
    6f9e:	c7 85 9c f3 ff ff 00 	movl   $0x0,-0xc64(%rbp)
    6fa5:	00 00 00 
    6fa8:	eb 42                	jmp    6fec <func_1+0x837>
    6faa:	c7 85 a0 f3 ff ff 00 	movl   $0x0,-0xc60(%rbp)
    6fb1:	00 00 00 
    6fb4:	eb 26                	jmp    6fdc <func_1+0x827>
    6fb6:	8b 85 a0 f3 ff ff    	mov    -0xc60(%rbp),%eax
    6fbc:	48 63 d0             	movslq %eax,%rdx
    6fbf:	8b 85 9c f3 ff ff    	mov    -0xc64(%rbp),%eax
    6fc5:	48 98                	cltq   
    6fc7:	48 01 d0             	add    %rdx,%rax
    6fca:	c7 84 85 70 f4 ff ff 	movl   $0x972ff6ba,-0xb90(%rbp,%rax,4)
    6fd1:	ba f6 2f 97 
    6fd5:	83 85 a0 f3 ff ff 01 	addl   $0x1,-0xc60(%rbp)
    6fdc:	83 bd a0 f3 ff ff 00 	cmpl   $0x0,-0xc60(%rbp)
    6fe3:	7e d1                	jle    6fb6 <func_1+0x801>
    6fe5:	83 85 9c f3 ff ff 01 	addl   $0x1,-0xc64(%rbp)
    6fec:	83 bd 9c f3 ff ff 08 	cmpl   $0x8,-0xc64(%rbp)
    6ff3:	7e b5                	jle    6faa <func_1+0x7f5>
    6ff5:	48 83 bd 10 f4 ff ff 	cmpq   $0x0,-0xbf0(%rbp)
    6ffc:	00 
    6ffd:	74 2b                	je     702a <func_1+0x875>
    6fff:	8b 85 90 f3 ff ff    	mov    -0xc70(%rbp),%eax
    7005:	83 c0 05             	add    $0x5,%eax
    7008:	48 98                	cltq   
    700a:	48 8d 14 00          	lea    (%rax,%rax,1),%rdx
    700e:	48 8d 05 9b ad 00 00 	lea    0xad9b(%rip),%rax        # 11db0 <g_463>
    7015:	0f b7 04 02          	movzwl (%rdx,%rax,1),%eax
    7019:	0f b7 d0             	movzwl %ax,%edx
    701c:	48 8b 85 08 f4 ff ff 	mov    -0xbf8(%rbp),%rax
    7023:	89 10                	mov    %edx,(%rax)
    7025:	e9 91 02 00 00       	jmpq   72bb <func_1+0xb06>
    702a:	c7 85 a8 f3 ff ff 7d 	movl   $0x60786c7d,-0xc58(%rbp)
    7031:	6c 78 60 
    7034:	48 8d 85 b0 f3 ff ff 	lea    -0xc50(%rbp),%rax
    703b:	48 89 85 18 f4 ff ff 	mov    %rax,-0xbe8(%rbp)
    7042:	48 c7 85 b8 f3 ff ff 	movq   $0x0,-0xc48(%rbp)
    7049:	00 00 00 00 
    704d:	66 83 bd 86 f3 ff ff 	cmpw   $0x0,-0xc7a(%rbp)
    7054:	00 
    7055:	0f 85 81 02 00 00    	jne    72dc <func_1+0xb27>
    705b:	c7 05 2b ad 00 00 03 	movl   $0x3,0xad2b(%rip)        # 11d90 <g_400>
    7062:	00 00 00 
    7065:	e9 3d 02 00 00       	jmpq   72a7 <func_1+0xaf2>
    706a:	c7 85 ac f3 ff ff c6 	movl   $0x6650a5c6,-0xc54(%rbp)
    7071:	a5 50 66 
    7074:	48 8d 05 ed a2 00 00 	lea    0xa2ed(%rip),%rax        # 11368 <g_180>
    707b:	48 89 85 20 f4 ff ff 	mov    %rax,-0xbe0(%rbp)
    7082:	48 8d 85 b0 f3 ff ff 	lea    -0xc50(%rbp),%rax
    7089:	48 89 85 28 f4 ff ff 	mov    %rax,-0xbd8(%rbp)
    7090:	c7 85 8c f3 ff ff ff 	movl   $0xffffffff,-0xc74(%rbp)
    7097:	ff ff ff 
    709a:	48 8b 05 8f c9 00 00 	mov    0xc98f(%rip),%rax        # 13a30 <g_594>
    70a1:	48 8b 00             	mov    (%rax),%rax
    70a4:	0f b7 00             	movzwl (%rax),%eax
    70a7:	66 85 c0             	test   %ax,%ax
    70aa:	0f 85 94 01 00 00    	jne    7244 <func_1+0xa8f>
    70b0:	66 44 0f be b5 85 f3 	movsbw -0xc7b(%rbp),%r14w
    70b7:	ff ff 
    70b9:	8b 85 8c f3 ff ff    	mov    -0xc74(%rbp),%eax
    70bf:	0f bf d8             	movswl %ax,%ebx
    70c2:	48 8b 05 bf c8 00 00 	mov    0xc8bf(%rip),%rax        # 13988 <g_372>
    70c9:	48 8b 00             	mov    (%rax),%rax
    70cc:	0f b6 00             	movzbl (%rax),%eax
    70cf:	44 0f b6 e0          	movzbl %al,%r12d
    70d3:	8b 85 a8 f3 ff ff    	mov    -0xc58(%rbp),%eax
    70d9:	be 01 00 00 00       	mov    $0x1,%esi
    70de:	89 c7                	mov    %eax,%edi
    70e0:	e8 e7 e5 ff ff       	callq  56cc <safe_mod_func_int32_t_s_s>
    70e5:	89 85 ac f3 ff ff    	mov    %eax,-0xc54(%rbp)
    70eb:	83 bd ac f3 ff ff 00 	cmpl   $0x0,-0xc54(%rbp)
    70f2:	0f 84 f4 00 00 00    	je     71ec <func_1+0xa37>
    70f8:	8b 05 92 ac 00 00    	mov    0xac92(%rip),%eax        # 11d90 <g_400>
    70fe:	8d 48 03             	lea    0x3(%rax),%ecx
    7101:	48 8b 05 58 a2 00 00 	mov    0xa258(%rip),%rax        # 11360 <g_178>
    7108:	48 8b 15 51 a2 00 00 	mov    0xa251(%rip),%rdx        # 11360 <g_178>
    710f:	48 8d 72 01          	lea    0x1(%rdx),%rsi
    7113:	48 63 c9             	movslq %ecx,%rcx
    7116:	48 89 c2             	mov    %rax,%rdx
    7119:	48 01 d2             	add    %rdx,%rdx
    711c:	48 01 c2             	add    %rax,%rdx
    711f:	48 8d 04 12          	lea    (%rdx,%rdx,1),%rax
    7123:	48 89 c2             	mov    %rax,%rdx
    7126:	48 89 c8             	mov    %rcx,%rax
    7129:	48 01 c0             	add    %rax,%rax
    712c:	48 01 c8             	add    %rcx,%rax
    712f:	48 c1 e0 03          	shl    $0x3,%rax
    7133:	48 01 d0             	add    %rdx,%rax
    7136:	48 01 f0             	add    %rsi,%rax
    7139:	48 8b 84 c5 c0 f9 ff 	mov    -0x640(%rbp,%rax,8),%rax
    7140:	ff 
    7141:	48 89 85 50 f4 ff ff 	mov    %rax,-0xbb0(%rbp)
    7148:	8b 85 ac f3 ff ff    	mov    -0xc54(%rbp),%eax
    714e:	44 0f bf e8          	movswl %ax,%r13d
    7152:	48 8b 85 20 f4 ff ff 	mov    -0xbe0(%rbp),%rax
    7159:	48 8b 10             	mov    (%rax),%rdx
    715c:	8b 85 ac f3 ff ff    	mov    -0xc54(%rbp),%eax
    7162:	48 09 c2             	or     %rax,%rdx
    7165:	48 8b 85 20 f4 ff ff 	mov    -0xbe0(%rbp),%rax
    716c:	48 89 10             	mov    %rdx,(%rax)
    716f:	48 8b 85 28 f4 ff ff 	mov    -0xbd8(%rbp),%rax
    7176:	48 3b 85 18 f4 ff ff 	cmp    -0xbe8(%rbp),%rax
    717d:	0f 95 c0             	setne  %al
    7180:	0f b6 c0             	movzbl %al,%eax
    7183:	48 c7 c6 f8 ff ff ff 	mov    $0xfffffffffffffff8,%rsi
    718a:	48 89 c7             	mov    %rax,%rdi
    718d:	e8 b9 ee ff ff       	callq  604b <safe_sub_func_uint64_t_u_u>
    7192:	83 bd ac f3 ff ff 00 	cmpl   $0x0,-0xc54(%rbp)
    7199:	75 0a                	jne    71a5 <func_1+0x9f0>
    719b:	66 83 bd 86 f3 ff ff 	cmpw   $0x0,-0xc7a(%rbp)
    71a2:	00 
    71a3:	74 07                	je     71ac <func_1+0x9f7>
    71a5:	b8 01 00 00 00       	mov    $0x1,%eax
    71aa:	eb 05                	jmp    71b1 <func_1+0x9fc>
    71ac:	b8 00 00 00 00       	mov    $0x0,%eax
    71b1:	98                   	cwtl   
    71b2:	44 89 ee             	mov    %r13d,%esi
    71b5:	89 c7                	mov    %eax,%edi
    71b7:	e8 39 e2 ff ff       	callq  53f5 <safe_mul_func_int16_t_s_s>
    71bc:	66 85 c0             	test   %ax,%ax
    71bf:	74 10                	je     71d1 <func_1+0xa1c>
    71c1:	83 bd a4 f3 ff ff 00 	cmpl   $0x0,-0xc5c(%rbp)
    71c8:	74 07                	je     71d1 <func_1+0xa1c>
    71ca:	b8 01 00 00 00       	mov    $0x1,%eax
    71cf:	eb 05                	jmp    71d6 <func_1+0xa21>
    71d1:	b8 00 00 00 00       	mov    $0x0,%eax
    71d6:	48 98                	cltq   
    71d8:	48 89 c7             	mov    %rax,%rdi
    71db:	e8 36 e6 ff ff       	callq  5816 <safe_unary_minus_func_int64_t_s>
    71e0:	48 85 c0             	test   %rax,%rax
    71e3:	74 07                	je     71ec <func_1+0xa37>
    71e5:	b8 01 00 00 00       	mov    $0x1,%eax
    71ea:	eb 05                	jmp    71f1 <func_1+0xa3c>
    71ec:	b8 00 00 00 00       	mov    $0x0,%eax
    71f1:	98                   	cwtl   
    71f2:	be 7b 7c 00 00       	mov    $0x7c7b,%esi
    71f7:	89 c7                	mov    %eax,%edi
    71f9:	e8 d5 e1 ff ff       	callq  53d3 <safe_sub_func_int16_t_s_s>
    71fe:	66 85 c0             	test   %ax,%ax
    7201:	75 0a                	jne    720d <func_1+0xa58>
    7203:	66 83 bd 86 f3 ff ff 	cmpw   $0x0,-0xc7a(%rbp)
    720a:	00 
    720b:	74 07                	je     7214 <func_1+0xa5f>
    720d:	b8 01 00 00 00       	mov    $0x1,%eax
    7212:	eb 05                	jmp    7219 <func_1+0xa64>
    7214:	b8 00 00 00 00       	mov    $0x0,%eax
    7219:	0f b6 c0             	movzbl %al,%eax
    721c:	25 fe 00 00 00       	and    $0xfe,%eax
    7221:	44 89 e6             	mov    %r12d,%esi
    7224:	89 c7                	mov    %eax,%edi
    7226:	e8 83 e9 ff ff       	callq  5bae <safe_mod_func_uint8_t_u_u>
    722b:	0f b6 c0             	movzbl %al,%eax
    722e:	8b 95 8c f3 ff ff    	mov    -0xc74(%rbp),%edx
    7234:	21 d0                	and    %edx,%eax
    7236:	98                   	cwtl   
    7237:	89 de                	mov    %ebx,%esi
    7239:	89 c7                	mov    %eax,%edi
    723b:	e8 93 e1 ff ff       	callq  53d3 <safe_sub_func_int16_t_s_s>
    7240:	66 41 39 c6          	cmp    %ax,%r14w
    7244:	48 8d 85 8c f3 ff ff 	lea    -0xc74(%rbp),%rax
    724b:	48 89 85 c0 f3 ff ff 	mov    %rax,-0xc40(%rbp)
    7252:	48 8d 85 c0 f3 ff ff 	lea    -0xc40(%rbp),%rax
    7259:	48 89 85 30 f4 ff ff 	mov    %rax,-0xbd0(%rbp)
    7260:	0f b7 05 6f 70 00 00 	movzwl 0x706f(%rip),%eax        # e2d6 <l_1001.4184+0x16>
    7267:	0f b7 d0             	movzwl %ax,%edx
    726a:	48 8b 85 08 f4 ff ff 	mov    -0xbf8(%rbp),%rax
    7271:	89 10                	mov    %edx,(%rax)
    7273:	8b 85 0c f6 ff ff    	mov    -0x9f4(%rbp),%eax
    7279:	85 c0                	test   %eax,%eax
    727b:	75 3a                	jne    72b7 <func_1+0xb02>
    727d:	48 83 bd d8 f3 ff ff 	cmpq   $0x0,-0xc28(%rbp)
    7284:	00 
    7285:	75 33                	jne    72ba <func_1+0xb05>
    7287:	48 8b 95 58 f4 ff ff 	mov    -0xba8(%rbp),%rdx
    728e:	48 8b 85 30 f4 ff ff 	mov    -0xbd0(%rbp),%rax
    7295:	48 89 10             	mov    %rdx,(%rax)
    7298:	8b 05 f2 aa 00 00    	mov    0xaaf2(%rip),%eax        # 11d90 <g_400>
    729e:	83 e8 01             	sub    $0x1,%eax
    72a1:	89 05 e9 aa 00 00    	mov    %eax,0xaae9(%rip)        # 11d90 <g_400>
    72a7:	8b 05 e3 aa 00 00    	mov    0xaae3(%rip),%eax        # 11d90 <g_400>
    72ad:	85 c0                	test   %eax,%eax
    72af:	0f 89 b5 fd ff ff    	jns    706a <func_1+0x8b5>
    72b5:	eb 04                	jmp    72bb <func_1+0xb06>
    72b7:	90                   	nop
    72b8:	eb 01                	jmp    72bb <func_1+0xb06>
    72ba:	90                   	nop
    72bb:	48 8b 85 08 f4 ff ff 	mov    -0xbf8(%rbp),%rax
    72c2:	c7 00 01 00 00 00    	movl   $0x1,(%rax)
    72c8:	83 85 90 f3 ff ff 01 	addl   $0x1,-0xc70(%rbp)
    72cf:	83 bd 90 f3 ff ff 03 	cmpl   $0x3,-0xc70(%rbp)
    72d6:	0f 8e 7e fc ff ff    	jle    6f5a <func_1+0x7a5>
    72dc:	c7 05 62 9d 00 00 00 	movl   $0x0,0x9d62(%rip)        # 11048 <g_61+0x8>
    72e3:	00 00 00 
    72e6:	e9 96 01 00 00       	jmpq   7481 <func_1+0xccc>
    72eb:	48 8d 85 60 f6 ff ff 	lea    -0x9a0(%rbp),%rax
    72f2:	48 05 f4 01 00 00    	add    $0x1f4,%rax
    72f8:	48 89 85 38 f4 ff ff 	mov    %rax,-0xbc8(%rbp)
    72ff:	48 8d 05 12 cb 00 00 	lea    0xcb12(%rip),%rax        # 13e18 <g_1011>
    7306:	48 89 85 40 f4 ff ff 	mov    %rax,-0xbc0(%rbp)
    730d:	66 c7 85 88 f3 ff ff 	movw   $0x1,-0xc78(%rbp)
    7314:	01 00 
    7316:	48 8b 85 40 f4 ff ff 	mov    -0xbc0(%rbp),%rax
    731d:	48 8b 95 38 f4 ff ff 	mov    -0xbc8(%rbp),%rdx
    7324:	48 89 10             	mov    %rdx,(%rax)
    7327:	66 c7 05 64 aa 00 00 	movw   $0x0,0xaa64(%rip)        # 11d94 <g_401>
    732e:	00 00 
    7330:	e9 2c 01 00 00       	jmpq   7461 <func_1+0xcac>
    7335:	66 c7 85 8a f3 ff ff 	movw   $0x25e9,-0xc76(%rbp)
    733c:	e9 25 
    733e:	48 8d 05 33 ac 00 00 	lea    0xac33(%rip),%rax        # 11f78 <g_582>
    7345:	48 89 85 48 f4 ff ff 	mov    %rax,-0xbb8(%rbp)
    734c:	0f b7 05 63 aa 00 00 	movzwl 0xaa63(%rip),%eax        # 11db6 <g_463+0x6>
    7353:	66 39 85 8a f3 ff ff 	cmp    %ax,-0xc76(%rbp)
    735a:	73 07                	jae    7363 <func_1+0xbae>
    735c:	bb 01 00 00 00       	mov    $0x1,%ebx
    7361:	eb 05                	jmp    7368 <func_1+0xbb3>
    7363:	bb 00 00 00 00       	mov    $0x0,%ebx
    7368:	48 8b 85 40 f4 ff ff 	mov    -0xbc0(%rbp),%rax
    736f:	48 8b 00             	mov    (%rax),%rax
    7372:	8b 00                	mov    (%rax),%eax
    7374:	0f be d0             	movsbl %al,%edx
    7377:	0f b7 85 88 f3 ff ff 	movzwl -0xc78(%rbp),%eax
    737e:	0f be c0             	movsbl %al,%eax
    7381:	89 d6                	mov    %edx,%esi
    7383:	89 c7                	mov    %eax,%edi
    7385:	e8 88 de ff ff       	callq  5212 <safe_mul_func_int8_t_s_s>
    738a:	0f be c0             	movsbl %al,%eax
    738d:	39 c3                	cmp    %eax,%ebx
    738f:	0f 95 c0             	setne  %al
    7392:	88 05 d8 9f 00 00    	mov    %al,0x9fd8(%rip)        # 11370 <g_195>
    7398:	0f b6 05 d1 9f 00 00 	movzbl 0x9fd1(%rip),%eax        # 11370 <g_195>
    739f:	0f b6 c0             	movzbl %al,%eax
    73a2:	89 05 f4 ae 00 00    	mov    %eax,0xaef4(%rip)        # 1229c <g_1025>
    73a8:	48 8b 05 81 c6 00 00 	mov    0xc681(%rip),%rax        # 13a30 <g_594>
    73af:	48 8b 00             	mov    (%rax),%rax
    73b2:	0f b7 00             	movzwl (%rax),%eax
    73b5:	0f b7 d0             	movzwl %ax,%edx
    73b8:	8b 05 e2 ae 00 00    	mov    0xaee2(%rip),%eax        # 122a0 <g_1030>
    73be:	98                   	cwtl   
    73bf:	89 d6                	mov    %edx,%esi
    73c1:	89 c7                	mov    %eax,%edi
    73c3:	e8 9b e1 ff ff       	callq  5563 <safe_rshift_func_int16_t_s_u>
    73c8:	89 c2                	mov    %eax,%edx
    73ca:	48 8b 85 48 f4 ff ff 	mov    -0xbb8(%rbp),%rax
    73d1:	88 10                	mov    %dl,(%rax)
    73d3:	48 8b 85 48 f4 ff ff 	mov    -0xbb8(%rbp),%rax
    73da:	0f b6 00             	movzbl (%rax),%eax
    73dd:	0f be c0             	movsbl %al,%eax
    73e0:	be 01 00 00 00       	mov    $0x1,%esi
    73e5:	89 c7                	mov    %eax,%edi
    73e7:	e8 02 df ff ff       	callq  52ee <safe_lshift_func_int8_t_s_u>
    73ec:	48 0f be d8          	movsbq %al,%rbx
    73f0:	48 8b 85 b0 f3 ff ff 	mov    -0xc50(%rbp),%rax
    73f7:	0f b6 00             	movzbl (%rax),%eax
    73fa:	89 c2                	mov    %eax,%edx
    73fc:	8b 85 a4 f3 ff ff    	mov    -0xc5c(%rbp),%eax
    7402:	31 c2                	xor    %eax,%edx
    7404:	48 8b 85 b0 f3 ff ff 	mov    -0xc50(%rbp),%rax
    740b:	88 10                	mov    %dl,(%rax)
    740d:	0f b6 00             	movzbl (%rax),%eax
    7410:	0f b6 d0             	movzbl %al,%edx
    7413:	8b 05 0b 9e 00 00    	mov    0x9e0b(%rip),%eax        # 11224 <g_113>
    7419:	0f b6 c0             	movzbl %al,%eax
    741c:	89 d6                	mov    %edx,%esi
    741e:	89 c7                	mov    %eax,%edi
    7420:	e8 35 e7 ff ff       	callq  5b5a <safe_add_func_uint8_t_u_u>
    7425:	0f b6 c0             	movzbl %al,%eax
    7428:	48 89 de             	mov    %rbx,%rsi
    742b:	48 89 c7             	mov    %rax,%rdi
    742e:	e8 75 e4 ff ff       	callq  58a8 <safe_sub_func_int64_t_s_s>
    7433:	48 3d e2 0e 00 00    	cmp    $0xee2,%rax
    7439:	0f 9f c0             	setg   %al
    743c:	0f b6 d0             	movzbl %al,%edx
    743f:	48 8b 05 d2 c9 00 00 	mov    0xc9d2(%rip),%rax        # 13e18 <g_1011>
    7446:	8b 00                	mov    (%rax),%eax
    7448:	21 d0                	and    %edx,%eax
    744a:	31 85 90 f3 ff ff    	xor    %eax,-0xc70(%rbp)
    7450:	0f b7 05 3d a9 00 00 	movzwl 0xa93d(%rip),%eax        # 11d94 <g_401>
    7457:	83 c0 01             	add    $0x1,%eax
    745a:	66 89 05 33 a9 00 00 	mov    %ax,0xa933(%rip)        # 11d94 <g_401>
    7461:	0f b7 05 2c a9 00 00 	movzwl 0xa92c(%rip),%eax        # 11d94 <g_401>
    7468:	66 83 f8 03          	cmp    $0x3,%ax
    746c:	0f 8e c3 fe ff ff    	jle    7335 <func_1+0xb80>
    7472:	8b 05 d0 9b 00 00    	mov    0x9bd0(%rip),%eax        # 11048 <g_61+0x8>
    7478:	83 c0 01             	add    $0x1,%eax
    747b:	89 05 c7 9b 00 00    	mov    %eax,0x9bc7(%rip)        # 11048 <g_61+0x8>
    7481:	8b 05 c1 9b 00 00    	mov    0x9bc1(%rip),%eax        # 11048 <g_61+0x8>
    7487:	83 f8 03             	cmp    $0x3,%eax
    748a:	0f 8e 5b fe ff ff    	jle    72eb <func_1+0xb36>
    7490:	48 8b 05 c9 9e 00 00 	mov    0x9ec9(%rip),%rax        # 11360 <g_178>
    7497:	48 83 c0 01          	add    $0x1,%rax
    749b:	48 89 05 be 9e 00 00 	mov    %rax,0x9ebe(%rip)        # 11360 <g_178>
    74a2:	48 8b 05 b7 9e 00 00 	mov    0x9eb7(%rip),%rax        # 11360 <g_178>
    74a9:	48 83 f8 03          	cmp    $0x3,%rax
    74ad:	0f 8e c3 f7 ff ff    	jle    6c76 <func_1+0x4c1>
    74b3:	8b 85 0c f6 ff ff    	mov    -0x9f4(%rbp),%eax
    74b9:	48 8b 5d c8          	mov    -0x38(%rbp),%rbx
    74bd:	64 48 33 1c 25 28 00 	xor    %fs:0x28,%rbx
    74c4:	00 00 
    74c6:	74 05                	je     74cd <func_1+0xd18>
    74c8:	e8 a3 db ff ff       	callq  5070 <__stack_chk_fail@plt>
    74cd:	48 81 c4 68 0c 00 00 	add    $0xc68,%rsp
    74d4:	5b                   	pop    %rbx
    74d5:	41 5c                	pop    %r12
    74d7:	41 5d                	pop    %r13
    74d9:	41 5e                	pop    %r14
    74db:	41 5f                	pop    %r15
    74dd:	5d                   	pop    %rbp
    74de:	c3                   	retq   

00000000000074df <func_4>:
    74df:	f3 0f 1e fa          	endbr64 
    74e3:	55                   	push   %rbp
    74e4:	48 89 e5             	mov    %rsp,%rbp
    74e7:	48 81 ec 70 08 00 00 	sub    $0x870,%rsp
    74ee:	48 89 bd a8 f7 ff ff 	mov    %rdi,-0x858(%rbp)
    74f5:	48 89 b5 a0 f7 ff ff 	mov    %rsi,-0x860(%rbp)
    74fc:	89 95 9c f7 ff ff    	mov    %edx,-0x864(%rbp)
    7502:	64 48 8b 04 25 28 00 	mov    %fs:0x28,%rax
    7509:	00 00 
    750b:	48 89 45 f8          	mov    %rax,-0x8(%rbp)
    750f:	31 c0                	xor    %eax,%eax
    7511:	48 8d 05 bc a6 00 00 	lea    0xa6bc(%rip),%rax        # 11bd4 <g_352+0x234>
    7518:	48 89 85 c8 f7 ff ff 	mov    %rax,-0x838(%rbp)
    751f:	48 8d 85 c8 f7 ff ff 	lea    -0x838(%rbp),%rax
    7526:	48 89 85 d8 f7 ff ff 	mov    %rax,-0x828(%rbp)
    752d:	c6 85 b6 f7 ff ff f8 	movb   $0xf8,-0x84a(%rbp)
    7534:	c7 85 bc f7 ff ff f8 	movl   $0xfffffff8,-0x844(%rbp)
    753b:	ff ff ff 
    753e:	48 8d 05 43 cd 00 00 	lea    0xcd43(%rip),%rax        # 14288 <g_658>
    7545:	48 89 85 e0 f7 ff ff 	mov    %rax,-0x820(%rbp)
    754c:	c6 85 b7 f7 ff ff ff 	movb   $0xff,-0x849(%rbp)
    7553:	c7 85 c0 f7 ff ff 0c 	movl   $0xf704350c,-0x840(%rbp)
    755a:	35 04 f7 
    755d:	48 c7 85 e8 f7 ff ff 	movq   $0xfffffffffffffffb,-0x818(%rbp)
    7564:	fb ff ff ff 
    7568:	48 c7 85 f0 f7 ff ff 	movq   $0x0,-0x810(%rbp)
    756f:	00 00 00 00 
    7573:	48 b8 93 9c f7 e8 7e 	movabs $0xc57cb7ee8f79c93,%rax
    757a:	cb 57 0c 
    757d:	48 89 85 f8 f7 ff ff 	mov    %rax,-0x808(%rbp)
    7584:	48 8d 05 a5 9a 00 00 	lea    0x9aa5(%rip),%rax        # 11030 <g_30>
    758b:	48 89 85 00 f8 ff ff 	mov    %rax,-0x800(%rbp)
    7592:	48 8d 05 c1 9d 00 00 	lea    0x9dc1(%rip),%rax        # 1135a <g_175+0x2>
    7599:	48 89 85 d0 f7 ff ff 	mov    %rax,-0x830(%rbp)
    75a0:	48 8d 85 d0 f7 ff ff 	lea    -0x830(%rbp),%rax
    75a7:	48 89 85 08 f8 ff ff 	mov    %rax,-0x7f8(%rbp)
    75ae:	c7 85 21 f8 ff ff f6 	movl   $0xf6f600f6,-0x7df(%rbp)
    75b5:	00 f6 f6 
    75b8:	c6 85 25 f8 ff ff 00 	movb   $0x0,-0x7db(%rbp)
    75bf:	c7 85 26 f8 ff ff 00 	movl   $0xf6f600,-0x7da(%rbp)
    75c6:	f6 f6 00 
    75c9:	c6 85 2a f8 ff ff f6 	movb   $0xf6,-0x7d6(%rbp)
    75d0:	c7 85 2b f8 ff ff 00 	movl   $0x10000,-0x7d5(%rbp)
    75d7:	00 01 00 
    75da:	c6 85 2f f8 ff ff 00 	movb   $0x0,-0x7d1(%rbp)
    75e1:	48 8d 85 30 f8 ff ff 	lea    -0x7d0(%rbp),%rax
    75e8:	48 8d 15 d1 b2 00 00 	lea    0xb2d1(%rip),%rdx        # 128c0 <g_1030+0x620>
    75ef:	b9 3c 00 00 00       	mov    $0x3c,%ecx
    75f4:	48 89 c7             	mov    %rax,%rdi
    75f7:	48 89 d6             	mov    %rdx,%rsi
    75fa:	f3 48 a5             	rep movsq %ds:(%rsi),%es:(%rdi)
    75fd:	48 8d 85 10 fa ff ff 	lea    -0x5f0(%rbp),%rax
    7604:	48 8d 15 b5 5d 00 00 	lea    0x5db5(%rip),%rdx        # d3c0 <g_59+0x36b>
    760b:	b9 bd 00 00 00       	mov    $0xbd,%ecx
    7610:	48 89 c7             	mov    %rax,%rdi
    7613:	48 89 d6             	mov    %rdx,%rsi
    7616:	f3 48 a5             	rep movsq %ds:(%rsi),%es:(%rdi)
    7619:	c7 85 c4 f7 ff ff a1 	movl   $0xff2389a1,-0x83c(%rbp)
    7620:	89 23 ff 
    7623:	c7 85 b8 f7 ff ff 00 	movl   $0x0,-0x848(%rbp)
    762a:	00 00 00 
    762d:	eb 1a                	jmp    7649 <func_4+0x16a>
    762f:	8b 85 b8 f7 ff ff    	mov    -0x848(%rbp),%eax
    7635:	48 98                	cltq   
    7637:	c7 84 85 14 f8 ff ff 	movl   $0xb732e06e,-0x7ec(%rbp,%rax,4)
    763e:	6e e0 32 b7 
    7642:	83 85 b8 f7 ff ff 01 	addl   $0x1,-0x848(%rbp)
    7649:	83 bd b8 f7 ff ff 02 	cmpl   $0x2,-0x848(%rbp)
    7650:	7e dd                	jle    762f <func_4+0x150>
    7652:	c7 05 e4 99 00 00 00 	movl   $0x0,0x99e4(%rip)        # 11040 <g_61>
    7659:	00 00 00 
    765c:	eb 22                	jmp    7680 <func_4+0x1a1>
    765e:	8b 05 dc 99 00 00    	mov    0x99dc(%rip),%eax        # 11040 <g_61>
    7664:	48 98                	cltq   
    7666:	48 8d 15 33 a7 00 00 	lea    0xa733(%rip),%rdx        # 11da0 <g_405>
    766d:	c6 04 10 ff          	movb   $0xff,(%rax,%rdx,1)
    7671:	8b 05 c9 99 00 00    	mov    0x99c9(%rip),%eax        # 11040 <g_61>
    7677:	83 c0 01             	add    $0x1,%eax
    767a:	89 05 c0 99 00 00    	mov    %eax,0x99c0(%rip)        # 11040 <g_61>
    7680:	8b 05 ba 99 00 00    	mov    0x99ba(%rip),%eax        # 11040 <g_61>
    7686:	83 f8 07             	cmp    $0x7,%eax
    7689:	7e d3                	jle    765e <func_4+0x17f>
    768b:	48 83 bd d8 f7 ff ff 	cmpq   $0x0,-0x828(%rbp)
    7692:	00 
    7693:	0f 95 c0             	setne  %al
    7696:	08 85 b6 f7 ff ff    	or     %al,-0x84a(%rbp)
    769c:	48 8b 85 00 f8 ff ff 	mov    -0x800(%rbp),%rax
    76a3:	8b 00                	mov    (%rax),%eax
    76a5:	48 98                	cltq   
    76a7:	48 8b 4d f8          	mov    -0x8(%rbp),%rcx
    76ab:	64 48 33 0c 25 28 00 	xor    %fs:0x28,%rcx
    76b2:	00 00 
    76b4:	74 05                	je     76bb <func_4+0x1dc>
    76b6:	e8 b5 d9 ff ff       	callq  5070 <__stack_chk_fail@plt>
    76bb:	c9                   	leaveq 
    76bc:	c3                   	retq   

00000000000076bd <func_8>:
    76bd:	f3 0f 1e fa          	endbr64 
    76c1:	55                   	push   %rbp
    76c2:	48 89 e5             	mov    %rsp,%rbp
    76c5:	89 f8                	mov    %edi,%eax
    76c7:	48 89 75 f0          	mov    %rsi,-0x10(%rbp)
    76cb:	48 89 55 e8          	mov    %rdx,-0x18(%rbp)
    76cf:	66 89 45 fc          	mov    %ax,-0x4(%rbp)
    76d3:	48 8b 05 ae c2 00 00 	mov    0xc2ae(%rip),%rax        # 13988 <g_372>
    76da:	48 8b 00             	mov    (%rax),%rax
    76dd:	5d                   	pop    %rbp
    76de:	c3                   	retq   

00000000000076df <func_12>:
    76df:	f3 0f 1e fa          	endbr64 
    76e3:	55                   	push   %rbp
    76e4:	48 89 e5             	mov    %rsp,%rbp
    76e7:	41 55                	push   %r13
    76e9:	41 54                	push   %r12
    76eb:	53                   	push   %rbx
    76ec:	48 81 ec b8 09 00 00 	sub    $0x9b8,%rsp
    76f3:	48 89 bd 68 f6 ff ff 	mov    %rdi,-0x998(%rbp)
    76fa:	48 89 b5 60 f6 ff ff 	mov    %rsi,-0x9a0(%rbp)
    7701:	48 89 95 58 f6 ff ff 	mov    %rdx,-0x9a8(%rbp)
    7708:	64 48 8b 04 25 28 00 	mov    %fs:0x28,%rax
    770f:	00 00 
    7711:	48 89 45 d8          	mov    %rax,-0x28(%rbp)
    7715:	31 c0                	xor    %eax,%eax
    7717:	c6 85 7f f6 ff ff 8d 	movb   $0x8d,-0x981(%rbp)
    771e:	c7 85 80 f6 ff ff ff 	movl   $0xffffffff,-0x980(%rbp)
    7725:	ff ff ff 
    7728:	48 8d 05 49 a8 00 00 	lea    0xa849(%rip),%rax        # 11f78 <g_582>
    772f:	48 89 85 90 f6 ff ff 	mov    %rax,-0x970(%rbp)
    7736:	c7 85 84 f6 ff ff 64 	movl   $0x338a6764,-0x97c(%rbp)
    773d:	67 8a 33 
    7740:	48 c7 85 d0 f6 ff ff 	movq   $0x0,-0x930(%rbp)
    7747:	00 00 00 00 
    774b:	48 c7 85 d8 f6 ff ff 	movq   $0x0,-0x928(%rbp)
    7752:	00 00 00 00 
    7756:	48 c7 85 e0 f6 ff ff 	movq   $0x0,-0x920(%rbp)
    775d:	00 00 00 00 
    7761:	48 c7 85 e8 f6 ff ff 	movq   $0x0,-0x918(%rbp)
    7768:	00 00 00 00 
    776c:	48 c7 85 f0 f6 ff ff 	movq   $0x0,-0x910(%rbp)
    7773:	00 00 00 00 
    7777:	48 c7 85 f8 f6 ff ff 	movq   $0x0,-0x908(%rbp)
    777e:	00 00 00 00 
    7782:	48 c7 85 00 f7 ff ff 	movq   $0x0,-0x900(%rbp)
    7789:	00 00 00 00 
    778d:	48 c7 85 08 f7 ff ff 	movq   $0x0,-0x8f8(%rbp)
    7794:	00 00 00 00 
    7798:	48 8d 05 bb 9b 00 00 	lea    0x9bbb(%rip),%rax        # 1135a <g_175+0x2>
    779f:	48 89 85 88 f6 ff ff 	mov    %rax,-0x978(%rbp)
    77a6:	48 8d 85 88 f6 ff ff 	lea    -0x978(%rbp),%rax
    77ad:	48 89 85 98 f6 ff ff 	mov    %rax,-0x968(%rbp)
    77b4:	48 c7 85 a0 f6 ff ff 	movq   $0x0,-0x960(%rbp)
    77bb:	00 00 00 00 
    77bf:	48 8d 85 d0 f6 ff ff 	lea    -0x930(%rbp),%rax
    77c6:	48 83 c0 20          	add    $0x20,%rax
    77ca:	48 89 85 a8 f6 ff ff 	mov    %rax,-0x958(%rbp)
    77d1:	48 be fc 87 4a 6c d6 	movabs $0xa4ccfd66c4a87fc,%rsi
    77d8:	cf 4c 0a 
    77db:	bf 00 00 00 00       	mov    $0x0,%edi
    77e0:	e8 ca e8 ff ff       	callq  60af <safe_div_func_uint64_t_u_u>
    77e5:	0f b6 95 7f f6 ff ff 	movzbl -0x981(%rbp),%edx
    77ec:	48 8d 85 30 f6 ff ff 	lea    -0x9d0(%rbp),%rax
    77f3:	89 d6                	mov    %edx,%esi
    77f5:	48 89 c7             	mov    %rax,%rdi
    77f8:	e8 da 04 00 00       	callq  7cd7 <func_36>
    77fd:	0f b6 9d 7f f6 ff ff 	movzbl -0x981(%rbp),%ebx
    7804:	c7 85 80 f6 ff ff 00 	movl   $0x0,-0x980(%rbp)
    780b:	00 00 00 
    780e:	bf 00 00 00 00       	mov    $0x0,%edi
    7813:	e8 41 04 00 00       	callq  7c59 <func_26>
    7818:	48 89 c6             	mov    %rax,%rsi
    781b:	0f b6 85 7f f6 ff ff 	movzbl -0x981(%rbp),%eax
    7822:	48 8b 95 90 f6 ff ff 	mov    -0x970(%rbp),%rdx
    7829:	48 89 d1             	mov    %rdx,%rcx
    782c:	48 89 da             	mov    %rbx,%rdx
    782f:	48 89 c7             	mov    %rax,%rdi
    7832:	e8 04 04 00 00       	callq  7c3b <func_20>
    7837:	21 85 84 f6 ff ff    	and    %eax,-0x97c(%rbp)
    783d:	8b 85 80 f6 ff ff    	mov    -0x980(%rbp),%eax
    7843:	89 05 5f 9b 00 00    	mov    %eax,0x9b5f(%rip)        # 113a8 <g_217+0x8>
    7849:	48 c7 05 fc 97 00 00 	movq   $0xffffffffffffffe5,0x97fc(%rip)        # 11050 <g_61+0x10>
    7850:	e5 ff ff ff 
    7854:	e9 9b 03 00 00       	jmpq   7bf4 <func_12+0x515>
    7859:	c7 85 10 f7 ff ff af 	movl   $0x9923b0af,-0x8f0(%rbp)
    7860:	b0 23 99 
    7863:	c7 85 14 f7 ff ff a6 	movl   $0xb6b4f1a6,-0x8ec(%rbp)
    786a:	f1 b4 b6 
    786d:	c7 85 18 f7 ff ff a6 	movl   $0xb6b4f1a6,-0x8e8(%rbp)
    7874:	f1 b4 b6 
    7877:	c7 85 1c f7 ff ff af 	movl   $0x9923b0af,-0x8e4(%rbp)
    787e:	b0 23 99 
    7881:	c7 85 20 f7 ff ff a6 	movl   $0xb6b4f1a6,-0x8e0(%rbp)
    7888:	f1 b4 b6 
    788b:	c7 85 24 f7 ff ff a6 	movl   $0xb6b4f1a6,-0x8dc(%rbp)
    7892:	f1 b4 b6 
    7895:	c7 85 28 f7 ff ff af 	movl   $0x9923b0af,-0x8d8(%rbp)
    789c:	b0 23 99 
    789f:	c7 85 2c f7 ff ff a6 	movl   $0xb6b4f1a6,-0x8d4(%rbp)
    78a6:	f1 b4 b6 
    78a9:	c7 85 30 f7 ff ff af 	movl   $0x9923b0af,-0x8d0(%rbp)
    78b0:	b0 23 99 
    78b3:	c7 85 34 f7 ff ff af 	movl   $0x9923b0af,-0x8cc(%rbp)
    78ba:	b0 23 99 
    78bd:	c7 85 38 f7 ff ff 03 	movl   $0x3,-0x8c8(%rbp)
    78c4:	00 00 00 
    78c7:	c7 85 3c f7 ff ff af 	movl   $0x9923b0af,-0x8c4(%rbp)
    78ce:	b0 23 99 
    78d1:	c7 85 40 f7 ff ff af 	movl   $0x9923b0af,-0x8c0(%rbp)
    78d8:	b0 23 99 
    78db:	c7 85 44 f7 ff ff 03 	movl   $0x3,-0x8bc(%rbp)
    78e2:	00 00 00 
    78e5:	c7 85 48 f7 ff ff af 	movl   $0x9923b0af,-0x8b8(%rbp)
    78ec:	b0 23 99 
    78ef:	c7 85 4c f7 ff ff af 	movl   $0x9923b0af,-0x8b4(%rbp)
    78f6:	b0 23 99 
    78f9:	c7 85 50 f7 ff ff a6 	movl   $0xb6b4f1a6,-0x8b0(%rbp)
    7900:	f1 b4 b6 
    7903:	c7 85 54 f7 ff ff af 	movl   $0x9923b0af,-0x8ac(%rbp)
    790a:	b0 23 99 
    790d:	c7 85 58 f7 ff ff a6 	movl   $0xb6b4f1a6,-0x8a8(%rbp)
    7914:	f1 b4 b6 
    7917:	c7 85 5c f7 ff ff a6 	movl   $0xb6b4f1a6,-0x8a4(%rbp)
    791e:	f1 b4 b6 
    7921:	c7 85 60 f7 ff ff af 	movl   $0x9923b0af,-0x8a0(%rbp)
    7928:	b0 23 99 
    792b:	c7 85 64 f7 ff ff a6 	movl   $0xb6b4f1a6,-0x89c(%rbp)
    7932:	f1 b4 b6 
    7935:	c7 85 68 f7 ff ff a6 	movl   $0xb6b4f1a6,-0x898(%rbp)
    793c:	f1 b4 b6 
    793f:	c7 85 6c f7 ff ff af 	movl   $0x9923b0af,-0x894(%rbp)
    7946:	b0 23 99 
    7949:	c7 85 70 f7 ff ff af 	movl   $0x9923b0af,-0x890(%rbp)
    7950:	b0 23 99 
    7953:	c7 85 74 f7 ff ff a6 	movl   $0xb6b4f1a6,-0x88c(%rbp)
    795a:	f1 b4 b6 
    795d:	c7 85 78 f7 ff ff a6 	movl   $0xb6b4f1a6,-0x888(%rbp)
    7964:	f1 b4 b6 
    7967:	c7 85 7c f7 ff ff af 	movl   $0x9923b0af,-0x884(%rbp)
    796e:	b0 23 99 
    7971:	c7 85 80 f7 ff ff a6 	movl   $0xb6b4f1a6,-0x880(%rbp)
    7978:	f1 b4 b6 
    797b:	c7 85 84 f7 ff ff a6 	movl   $0xb6b4f1a6,-0x87c(%rbp)
    7982:	f1 b4 b6 
    7985:	c7 85 88 f7 ff ff af 	movl   $0x9923b0af,-0x878(%rbp)
    798c:	b0 23 99 
    798f:	c7 85 8c f7 ff ff a6 	movl   $0xb6b4f1a6,-0x874(%rbp)
    7996:	f1 b4 b6 
    7999:	c7 85 90 f7 ff ff af 	movl   $0x9923b0af,-0x870(%rbp)
    79a0:	b0 23 99 
    79a3:	c7 85 94 f7 ff ff af 	movl   $0x9923b0af,-0x86c(%rbp)
    79aa:	b0 23 99 
    79ad:	c7 85 98 f7 ff ff 03 	movl   $0x3,-0x868(%rbp)
    79b4:	00 00 00 
    79b7:	c7 85 9c f7 ff ff af 	movl   $0x9923b0af,-0x864(%rbp)
    79be:	b0 23 99 
    79c1:	c7 85 a0 f7 ff ff af 	movl   $0x9923b0af,-0x860(%rbp)
    79c8:	b0 23 99 
    79cb:	c7 85 a4 f7 ff ff 03 	movl   $0x3,-0x85c(%rbp)
    79d2:	00 00 00 
    79d5:	c7 85 a8 f7 ff ff af 	movl   $0x9923b0af,-0x858(%rbp)
    79dc:	b0 23 99 
    79df:	c7 85 ac f7 ff ff af 	movl   $0x9923b0af,-0x854(%rbp)
    79e6:	b0 23 99 
    79e9:	c7 85 b0 f7 ff ff a6 	movl   $0xb6b4f1a6,-0x850(%rbp)
    79f0:	f1 b4 b6 
    79f3:	c7 85 b4 f7 ff ff af 	movl   $0x9923b0af,-0x84c(%rbp)
    79fa:	b0 23 99 
    79fd:	c7 85 b8 f7 ff ff a6 	movl   $0xb6b4f1a6,-0x848(%rbp)
    7a04:	f1 b4 b6 
    7a07:	c7 85 bc f7 ff ff a6 	movl   $0xb6b4f1a6,-0x844(%rbp)
    7a0e:	f1 b4 b6 
    7a11:	c7 85 c0 f7 ff ff af 	movl   $0x9923b0af,-0x840(%rbp)
    7a18:	b0 23 99 
    7a1b:	c7 85 c4 f7 ff ff a6 	movl   $0xb6b4f1a6,-0x83c(%rbp)
    7a22:	f1 b4 b6 
    7a25:	c7 85 c8 f7 ff ff a6 	movl   $0xb6b4f1a6,-0x838(%rbp)
    7a2c:	f1 b4 b6 
    7a2f:	c7 85 cc f7 ff ff af 	movl   $0x9923b0af,-0x834(%rbp)
    7a36:	b0 23 99 
    7a39:	c7 85 d0 f7 ff ff af 	movl   $0x9923b0af,-0x830(%rbp)
    7a40:	b0 23 99 
    7a43:	c7 85 d4 f7 ff ff a6 	movl   $0xb6b4f1a6,-0x82c(%rbp)
    7a4a:	f1 b4 b6 
    7a4d:	c7 85 d8 f7 ff ff a6 	movl   $0xb6b4f1a6,-0x828(%rbp)
    7a54:	f1 b4 b6 
    7a57:	c7 85 dc f7 ff ff af 	movl   $0x9923b0af,-0x824(%rbp)
    7a5e:	b0 23 99 
    7a61:	c7 85 e0 f7 ff ff a6 	movl   $0xb6b4f1a6,-0x820(%rbp)
    7a68:	f1 b4 b6 
    7a6b:	c7 85 e4 f7 ff ff a6 	movl   $0xb6b4f1a6,-0x81c(%rbp)
    7a72:	f1 b4 b6 
    7a75:	c7 85 e8 f7 ff ff af 	movl   $0x9923b0af,-0x818(%rbp)
    7a7c:	b0 23 99 
    7a7f:	c7 85 ec f7 ff ff a6 	movl   $0xb6b4f1a6,-0x814(%rbp)
    7a86:	f1 b4 b6 
    7a89:	48 c7 85 b0 f6 ff ff 	movq   $0x0,-0x950(%rbp)
    7a90:	00 00 00 00 
    7a94:	48 8d 85 f0 f7 ff ff 	lea    -0x810(%rbp),%rax
    7a9b:	48 8d 15 fe af 00 00 	lea    0xaffe(%rip),%rdx        # 12aa0 <g_1030+0x800>
    7aa2:	b9 fc 00 00 00       	mov    $0xfc,%ecx
    7aa7:	48 89 c7             	mov    %rax,%rdi
    7aaa:	48 89 d6             	mov    %rdx,%rsi
    7aad:	f3 48 a5             	rep movsq %ds:(%rsi),%es:(%rdi)
    7ab0:	48 8d 85 f0 f7 ff ff 	lea    -0x810(%rbp),%rax
    7ab7:	48 05 a8 02 00 00    	add    $0x2a8,%rax
    7abd:	48 89 85 b8 f6 ff ff 	mov    %rax,-0x948(%rbp)
    7ac4:	48 c7 85 c0 f6 ff ff 	movq   $0x0,-0x940(%rbp)
    7acb:	00 00 00 00 
    7acf:	48 8d 05 be a2 00 00 	lea    0xa2be(%rip),%rax        # 11d94 <g_401>
    7ad6:	48 89 85 c8 f6 ff ff 	mov    %rax,-0x938(%rbp)
    7add:	48 8b 05 6c 98 00 00 	mov    0x986c(%rip),%rax        # 11350 <g_165>
    7ae4:	0f bf d8             	movswl %ax,%ebx
    7ae7:	4c 8b 2d ba a3 00 00 	mov    0xa3ba(%rip),%r13        # 11ea8 <g_511+0xc8>
    7aee:	0f b7 05 2d 97 00 00 	movzwl 0x972d(%rip),%eax        # 11222 <g_111>
    7af5:	44 0f bf e0          	movswl %ax,%r12d
    7af9:	8b 95 70 f7 ff ff    	mov    -0x890(%rbp),%edx
    7aff:	8b 85 c8 f7 ff ff    	mov    -0x838(%rbp),%eax
    7b05:	85 c0                	test   %eax,%eax
    7b07:	0f 95 c0             	setne  %al
    7b0a:	0f b6 c0             	movzbl %al,%eax
    7b0d:	89 d6                	mov    %edx,%esi
    7b0f:	89 c7                	mov    %eax,%edi
    7b11:	e8 f0 e2 ff ff       	callq  5e06 <safe_lshift_func_uint16_t_u_u>
    7b16:	0f b7 d0             	movzwl %ax,%edx
    7b19:	0f b6 05 0c 95 00 00 	movzbl 0x950c(%rip),%eax        # 1102c <g_17+0x4>
    7b20:	0f be c0             	movsbl %al,%eax
    7b23:	89 d6                	mov    %edx,%esi
    7b25:	89 c7                	mov    %eax,%edi
    7b27:	e8 b5 d9 ff ff       	callq  54e1 <safe_lshift_func_int16_t_s_u>
    7b2c:	48 0f bf c0          	movswq %ax,%rax
    7b30:	48 89 c7             	mov    %rax,%rdi
    7b33:	e8 de dc ff ff       	callq  5816 <safe_unary_minus_func_int64_t_s>
    7b38:	48 8b 85 b8 f6 ff ff 	mov    -0x948(%rbp),%rax
    7b3f:	48 8d 15 3a be 00 00 	lea    0xbe3a(%rip),%rdx        # 13980 <g_147>
    7b46:	48 89 10             	mov    %rdx,(%rax)
    7b49:	48 8b 85 b8 f6 ff ff 	mov    -0x948(%rbp),%rax
    7b50:	48 8b 00             	mov    (%rax),%rax
    7b53:	48 8d 15 26 be 00 00 	lea    0xbe26(%rip),%rdx        # 13980 <g_147>
    7b5a:	48 39 d0             	cmp    %rdx,%rax
    7b5d:	0f 94 c0             	sete   %al
    7b60:	0f b6 c0             	movzbl %al,%eax
    7b63:	44 89 e6             	mov    %r12d,%esi
    7b66:	89 c7                	mov    %eax,%edi
    7b68:	e8 e8 d8 ff ff       	callq  5455 <safe_div_func_int16_t_s_s>
    7b6d:	48 0f bf c0          	movswq %ax,%rax
    7b71:	48 89 c7             	mov    %rax,%rdi
    7b74:	e8 9d dc ff ff       	callq  5816 <safe_unary_minus_func_int64_t_s>
    7b79:	89 c2                	mov    %eax,%edx
    7b7b:	8b 85 c8 f7 ff ff    	mov    -0x838(%rbp),%eax
    7b81:	89 d6                	mov    %edx,%esi
    7b83:	89 c7                	mov    %eax,%edi
    7b85:	e8 2c da ff ff       	callq  55b6 <safe_add_func_int32_t_s_s>
    7b8a:	83 f0 3d             	xor    $0x3d,%eax
    7b8d:	89 c2                	mov    %eax,%edx
    7b8f:	48 8b 85 c8 f6 ff ff 	mov    -0x938(%rbp),%rax
    7b96:	66 89 10             	mov    %dx,(%rax)
    7b99:	be 76 d7 ff ff       	mov    $0xffffd776,%esi
    7b9e:	bf 01 00 00 00       	mov    $0x1,%edi
    7ba3:	e8 ad d8 ff ff       	callq  5455 <safe_div_func_int16_t_s_s>
    7ba8:	98                   	cwtl   
    7ba9:	f7 d0                	not    %eax
    7bab:	48 98                	cltq   
    7bad:	49 39 c5             	cmp    %rax,%r13
    7bb0:	0f 95 c0             	setne  %al
    7bb3:	0f b6 c0             	movzbl %al,%eax
    7bb6:	89 de                	mov    %ebx,%esi
    7bb8:	89 c7                	mov    %eax,%edi
    7bba:	e8 f4 d7 ff ff       	callq  53b3 <safe_add_func_int16_t_s_s>
    7bbf:	48 0f bf d0          	movswq %ax,%rdx
    7bc3:	48 8b 05 be 9d 00 00 	mov    0x9dbe(%rip),%rax        # 11988 <g_325>
    7bca:	48 39 c2             	cmp    %rax,%rdx
    7bcd:	0f 94 c0             	sete   %al
    7bd0:	0f b6 c0             	movzbl %al,%eax
    7bd3:	89 05 6f a3 00 00    	mov    %eax,0xa36f(%rip)        # 11f48 <g_547+0x8>
    7bd9:	48 8b 05 70 94 00 00 	mov    0x9470(%rip),%rax        # 11050 <g_61+0x10>
    7be0:	be 01 00 00 00       	mov    $0x1,%esi
    7be5:	48 89 c7             	mov    %rax,%rdi
    7be8:	e8 54 dc ff ff       	callq  5841 <safe_add_func_int64_t_s_s>
    7bed:	48 89 05 5c 94 00 00 	mov    %rax,0x945c(%rip)        # 11050 <g_61+0x10>
    7bf4:	48 8b 05 55 94 00 00 	mov    0x9455(%rip),%rax        # 11050 <g_61+0x10>
    7bfb:	48 83 f8 08          	cmp    $0x8,%rax
    7bff:	0f 84 54 fc ff ff    	je     7859 <func_12+0x17a>
    7c05:	48 8b 85 a8 f6 ff ff 	mov    -0x958(%rbp),%rax
    7c0c:	48 c7 00 00 00 00 00 	movq   $0x0,(%rax)
    7c13:	8b 05 a7 97 00 00    	mov    0x97a7(%rip),%eax        # 113c0 <g_291>
    7c19:	48 8b 4d d8          	mov    -0x28(%rbp),%rcx
    7c1d:	64 48 33 0c 25 28 00 	xor    %fs:0x28,%rcx
    7c24:	00 00 
    7c26:	74 05                	je     7c2d <func_12+0x54e>
    7c28:	e8 43 d4 ff ff       	callq  5070 <__stack_chk_fail@plt>
    7c2d:	48 81 c4 b8 09 00 00 	add    $0x9b8,%rsp
    7c34:	5b                   	pop    %rbx
    7c35:	41 5c                	pop    %r12
    7c37:	41 5d                	pop    %r13
    7c39:	5d                   	pop    %rbp
    7c3a:	c3                   	retq   

0000000000007c3b <func_20>:
    7c3b:	f3 0f 1e fa          	endbr64 
    7c3f:	55                   	push   %rbp
    7c40:	48 89 e5             	mov    %rsp,%rbp
    7c43:	48 89 7d f8          	mov    %rdi,-0x8(%rbp)
    7c47:	48 89 75 f0          	mov    %rsi,-0x10(%rbp)
    7c4b:	48 89 55 e8          	mov    %rdx,-0x18(%rbp)
    7c4f:	48 89 4d e0          	mov    %rcx,-0x20(%rbp)
    7c53:	48 8b 45 f8          	mov    -0x8(%rbp),%rax
    7c57:	5d                   	pop    %rbp
    7c58:	c3                   	retq   

0000000000007c59 <func_26>:
    7c59:	f3 0f 1e fa          	endbr64 
    7c5d:	55                   	push   %rbp
    7c5e:	48 89 e5             	mov    %rsp,%rbp
    7c61:	48 83 ec 50          	sub    $0x50,%rsp
    7c65:	48 89 7d b8          	mov    %rdi,-0x48(%rbp)
    7c69:	64 48 8b 04 25 28 00 	mov    %fs:0x28,%rax
    7c70:	00 00 
    7c72:	48 89 45 f8          	mov    %rax,-0x8(%rbp)
    7c76:	31 c0                	xor    %eax,%eax
    7c78:	48 8d 05 b1 93 00 00 	lea    0x93b1(%rip),%rax        # 11030 <g_30>
    7c7f:	48 89 45 d0          	mov    %rax,-0x30(%rbp)
    7c83:	48 c7 45 d8 00 00 00 	movq   $0x0,-0x28(%rbp)
    7c8a:	00 
    7c8b:	c7 45 cc f5 5f 93 d9 	movl   $0xd9935ff5,-0x34(%rbp)
    7c92:	c7 45 c8 00 00 00 00 	movl   $0x0,-0x38(%rbp)
    7c99:	eb 15                	jmp    7cb0 <func_26+0x57>
    7c9b:	8b 45 c8             	mov    -0x38(%rbp),%eax
    7c9e:	48 98                	cltq   
    7ca0:	48 8d 15 89 93 00 00 	lea    0x9389(%rip),%rdx        # 11030 <g_30>
    7ca7:	48 89 54 c5 e0       	mov    %rdx,-0x20(%rbp,%rax,8)
    7cac:	83 45 c8 01          	addl   $0x1,-0x38(%rbp)
    7cb0:	83 7d c8 01          	cmpl   $0x1,-0x38(%rbp)
    7cb4:	7e e5                	jle    7c9b <func_26+0x42>
    7cb6:	83 6d cc 01          	subl   $0x1,-0x34(%rbp)
    7cba:	48 8d 05 6d 93 00 00 	lea    0x936d(%rip),%rax        # 1102e <g_17+0x6>
    7cc1:	48 8b 4d f8          	mov    -0x8(%rbp),%rcx
    7cc5:	64 48 33 0c 25 28 00 	xor    %fs:0x28,%rcx
    7ccc:	00 00 
    7cce:	74 05                	je     7cd5 <func_26+0x7c>
    7cd0:	e8 9b d3 ff ff       	callq  5070 <__stack_chk_fail@plt>
    7cd5:	c9                   	leaveq 
    7cd6:	c3                   	retq   

0000000000007cd7 <func_36>:
    7cd7:	f3 0f 1e fa          	endbr64 
    7cdb:	55                   	push   %rbp
    7cdc:	48 89 e5             	mov    %rsp,%rbp
    7cdf:	41 57                	push   %r15
    7ce1:	41 56                	push   %r14
    7ce3:	41 55                	push   %r13
    7ce5:	41 54                	push   %r12
    7ce7:	53                   	push   %rbx
    7ce8:	48 81 ec 00 10 00 00 	sub    $0x1000,%rsp
    7cef:	48 83 0c 24 00       	orq    $0x0,(%rsp)
    7cf4:	48 81 ec 88 02 00 00 	sub    $0x288,%rsp
    7cfb:	48 89 bd 68 ed ff ff 	mov    %rdi,-0x1298(%rbp)
    7d02:	89 b5 64 ed ff ff    	mov    %esi,-0x129c(%rbp)
    7d08:	64 48 8b 04 25 28 00 	mov    %fs:0x28,%rax
    7d0f:	00 00 
    7d11:	48 89 45 c8          	mov    %rax,-0x38(%rbp)
    7d15:	31 c0                	xor    %eax,%eax
    7d17:	c7 85 9c ed ff ff f8 	movl   $0xfffffff8,-0x1264(%rbp)
    7d1e:	ff ff ff 
    7d21:	48 8d 85 b0 f5 ff ff 	lea    -0xa50(%rbp),%rax
    7d28:	48 8d 15 51 b5 00 00 	lea    0xb551(%rip),%rdx        # 13280 <g_1030+0xfe0>
    7d2f:	b9 4b 00 00 00       	mov    $0x4b,%ecx
    7d34:	48 89 c7             	mov    %rax,%rdi
    7d37:	48 89 d6             	mov    %rdx,%rsi
    7d3a:	f3 48 a5             	rep movsq %ds:(%rsi),%es:(%rdi)
    7d3d:	48 8d 85 c0 ee ff ff 	lea    -0x1140(%rbp),%rax
    7d44:	48 83 c0 0c          	add    $0xc,%rax
    7d48:	48 89 85 00 ee ff ff 	mov    %rax,-0x1200(%rbp)
    7d4f:	48 8d 85 00 ee ff ff 	lea    -0x1200(%rbp),%rax
    7d56:	48 89 85 d0 ee ff ff 	mov    %rax,-0x1130(%rbp)
    7d5d:	48 8d 85 00 ee ff ff 	lea    -0x1200(%rbp),%rax
    7d64:	48 89 85 d8 ee ff ff 	mov    %rax,-0x1128(%rbp)
    7d6b:	48 8d 85 00 ee ff ff 	lea    -0x1200(%rbp),%rax
    7d72:	48 89 85 e0 ee ff ff 	mov    %rax,-0x1120(%rbp)
    7d79:	48 8d 85 00 ee ff ff 	lea    -0x1200(%rbp),%rax
    7d80:	48 89 85 e8 ee ff ff 	mov    %rax,-0x1118(%rbp)
    7d87:	48 8d 85 00 ee ff ff 	lea    -0x1200(%rbp),%rax
    7d8e:	48 89 85 f0 ee ff ff 	mov    %rax,-0x1110(%rbp)
    7d95:	c7 85 84 ed ff ff fb 	movl   $0xfffffffb,-0x127c(%rbp)
    7d9c:	ff ff ff 
    7d9f:	66 c7 85 78 ed ff ff 	movw   $0x4,-0x1288(%rbp)
    7da6:	04 00 
    7da8:	48 c7 85 08 ee ff ff 	movq   $0x0,-0x11f8(%rbp)
    7daf:	00 00 00 00 
    7db3:	48 8d 85 08 ee ff ff 	lea    -0x11f8(%rbp),%rax
    7dba:	48 89 85 40 ee ff ff 	mov    %rax,-0x11c0(%rbp)
    7dc1:	c7 85 88 ed ff ff 00 	movl   $0x0,-0x1278(%rbp)
    7dc8:	00 00 00 
    7dcb:	eb 50                	jmp    7e1d <func_36+0x146>
    7dcd:	c7 85 8c ed ff ff 00 	movl   $0x0,-0x1274(%rbp)
    7dd4:	00 00 00 
    7dd7:	eb 34                	jmp    7e0d <func_36+0x136>
    7dd9:	8b 85 8c ed ff ff    	mov    -0x1274(%rbp),%eax
    7ddf:	48 63 c8             	movslq %eax,%rcx
    7de2:	8b 85 88 ed ff ff    	mov    -0x1278(%rbp),%eax
    7de8:	48 63 d0             	movslq %eax,%rdx
    7deb:	48 89 d0             	mov    %rdx,%rax
    7dee:	48 01 c0             	add    %rax,%rax
    7df1:	48 01 d0             	add    %rdx,%rax
    7df4:	48 01 c8             	add    %rcx,%rax
    7df7:	48 8d 15 31 92 00 00 	lea    0x9231(%rip),%rdx        # 1102f <g_17+0x7>
    7dfe:	48 89 94 c5 00 ef ff 	mov    %rdx,-0x1100(%rbp,%rax,8)
    7e05:	ff 
    7e06:	83 85 8c ed ff ff 01 	addl   $0x1,-0x1274(%rbp)
    7e0d:	83 bd 8c ed ff ff 02 	cmpl   $0x2,-0x1274(%rbp)
    7e14:	7e c3                	jle    7dd9 <func_36+0x102>
    7e16:	83 85 88 ed ff ff 01 	addl   $0x1,-0x1278(%rbp)
    7e1d:	83 bd 88 ed ff ff 01 	cmpl   $0x1,-0x1278(%rbp)
    7e24:	7e a7                	jle    7dcd <func_36+0xf6>
    7e26:	c7 85 88 ed ff ff 00 	movl   $0x0,-0x1278(%rbp)
    7e2d:	00 00 00 
    7e30:	eb 1a                	jmp    7e4c <func_36+0x175>
    7e32:	8b 85 88 ed ff ff    	mov    -0x1278(%rbp),%eax
    7e38:	48 98                	cltq   
    7e3a:	c7 84 85 c0 ee ff ff 	movl   $0xb34174aa,-0x1140(%rbp,%rax,4)
    7e41:	aa 74 41 b3 
    7e45:	83 85 88 ed ff ff 01 	addl   $0x1,-0x1278(%rbp)
    7e4c:	83 bd 88 ed ff ff 03 	cmpl   $0x3,-0x1278(%rbp)
    7e53:	7e dd                	jle    7e32 <func_36+0x15b>
    7e55:	c7 85 64 ed ff ff 00 	movl   $0x0,-0x129c(%rbp)
    7e5c:	00 00 00 
    7e5f:	e9 a9 1a 00 00       	jmpq   990d <func_36+0x1c36>
    7e64:	48 8d 05 e9 51 00 00 	lea    0x51e9(%rip),%rax        # d054 <g_57>
    7e6b:	48 89 85 10 ee ff ff 	mov    %rax,-0x11f0(%rbp)
    7e72:	48 c7 85 10 f8 ff ff 	movq   $0x0,-0x7f0(%rbp)
    7e79:	00 00 00 00 
    7e7d:	48 c7 85 18 f8 ff ff 	movq   $0x0,-0x7e8(%rbp)
    7e84:	00 00 00 00 
    7e88:	48 8d 85 10 ee ff ff 	lea    -0x11f0(%rbp),%rax
    7e8f:	48 89 85 20 f8 ff ff 	mov    %rax,-0x7e0(%rbp)
    7e96:	48 8d 85 10 ee ff ff 	lea    -0x11f0(%rbp),%rax
    7e9d:	48 89 85 28 f8 ff ff 	mov    %rax,-0x7d8(%rbp)
    7ea4:	48 c7 85 30 f8 ff ff 	movq   $0x0,-0x7d0(%rbp)
    7eab:	00 00 00 00 
    7eaf:	48 8d 85 10 ee ff ff 	lea    -0x11f0(%rbp),%rax
    7eb6:	48 89 85 38 f8 ff ff 	mov    %rax,-0x7c8(%rbp)
    7ebd:	48 8d 85 10 ee ff ff 	lea    -0x11f0(%rbp),%rax
    7ec4:	48 89 85 40 f8 ff ff 	mov    %rax,-0x7c0(%rbp)
    7ecb:	48 c7 85 48 f8 ff ff 	movq   $0x0,-0x7b8(%rbp)
    7ed2:	00 00 00 00 
    7ed6:	48 c7 85 50 f8 ff ff 	movq   $0x0,-0x7b0(%rbp)
    7edd:	00 00 00 00 
    7ee1:	48 8d 85 10 ee ff ff 	lea    -0x11f0(%rbp),%rax
    7ee8:	48 89 85 58 f8 ff ff 	mov    %rax,-0x7a8(%rbp)
    7eef:	48 c7 85 60 f8 ff ff 	movq   $0x0,-0x7a0(%rbp)
    7ef6:	00 00 00 00 
    7efa:	48 c7 85 68 f8 ff ff 	movq   $0x0,-0x798(%rbp)
    7f01:	00 00 00 00 
    7f05:	48 8d 85 10 ee ff ff 	lea    -0x11f0(%rbp),%rax
    7f0c:	48 89 85 70 f8 ff ff 	mov    %rax,-0x790(%rbp)
    7f13:	48 8d 85 10 ee ff ff 	lea    -0x11f0(%rbp),%rax
    7f1a:	48 89 85 78 f8 ff ff 	mov    %rax,-0x788(%rbp)
    7f21:	48 c7 85 80 f8 ff ff 	movq   $0x0,-0x780(%rbp)
    7f28:	00 00 00 00 
    7f2c:	48 8d 85 10 ee ff ff 	lea    -0x11f0(%rbp),%rax
    7f33:	48 89 85 88 f8 ff ff 	mov    %rax,-0x778(%rbp)
    7f3a:	48 8d 85 10 ee ff ff 	lea    -0x11f0(%rbp),%rax
    7f41:	48 89 85 90 f8 ff ff 	mov    %rax,-0x770(%rbp)
    7f48:	48 c7 85 98 f8 ff ff 	movq   $0x0,-0x768(%rbp)
    7f4f:	00 00 00 00 
    7f53:	48 c7 85 a0 f8 ff ff 	movq   $0x0,-0x760(%rbp)
    7f5a:	00 00 00 00 
    7f5e:	48 8d 85 10 ee ff ff 	lea    -0x11f0(%rbp),%rax
    7f65:	48 89 85 a8 f8 ff ff 	mov    %rax,-0x758(%rbp)
    7f6c:	48 c7 85 b0 f8 ff ff 	movq   $0x0,-0x750(%rbp)
    7f73:	00 00 00 00 
    7f77:	48 c7 85 b8 f8 ff ff 	movq   $0x0,-0x748(%rbp)
    7f7e:	00 00 00 00 
    7f82:	48 8d 85 10 ee ff ff 	lea    -0x11f0(%rbp),%rax
    7f89:	48 89 85 c0 f8 ff ff 	mov    %rax,-0x740(%rbp)
    7f90:	48 8d 85 10 ee ff ff 	lea    -0x11f0(%rbp),%rax
    7f97:	48 89 85 c8 f8 ff ff 	mov    %rax,-0x738(%rbp)
    7f9e:	48 c7 85 d0 f8 ff ff 	movq   $0x0,-0x730(%rbp)
    7fa5:	00 00 00 00 
    7fa9:	48 8d 85 10 ee ff ff 	lea    -0x11f0(%rbp),%rax
    7fb0:	48 89 85 d8 f8 ff ff 	mov    %rax,-0x728(%rbp)
    7fb7:	48 8d 85 10 ee ff ff 	lea    -0x11f0(%rbp),%rax
    7fbe:	48 89 85 e0 f8 ff ff 	mov    %rax,-0x720(%rbp)
    7fc5:	48 c7 85 e8 f8 ff ff 	movq   $0x0,-0x718(%rbp)
    7fcc:	00 00 00 00 
    7fd0:	48 c7 85 f0 f8 ff ff 	movq   $0x0,-0x710(%rbp)
    7fd7:	00 00 00 00 
    7fdb:	48 8d 85 10 ee ff ff 	lea    -0x11f0(%rbp),%rax
    7fe2:	48 89 85 f8 f8 ff ff 	mov    %rax,-0x708(%rbp)
    7fe9:	48 c7 85 00 f9 ff ff 	movq   $0x0,-0x700(%rbp)
    7ff0:	00 00 00 00 
    7ff4:	48 c7 85 08 f9 ff ff 	movq   $0x0,-0x6f8(%rbp)
    7ffb:	00 00 00 00 
    7fff:	48 8d 85 10 ee ff ff 	lea    -0x11f0(%rbp),%rax
    8006:	48 89 85 10 f9 ff ff 	mov    %rax,-0x6f0(%rbp)
    800d:	48 8d 85 10 ee ff ff 	lea    -0x11f0(%rbp),%rax
    8014:	48 89 85 18 f9 ff ff 	mov    %rax,-0x6e8(%rbp)
    801b:	48 c7 85 20 f9 ff ff 	movq   $0x0,-0x6e0(%rbp)
    8022:	00 00 00 00 
    8026:	48 8d 85 10 ee ff ff 	lea    -0x11f0(%rbp),%rax
    802d:	48 89 85 28 f9 ff ff 	mov    %rax,-0x6d8(%rbp)
    8034:	48 8d 85 10 ee ff ff 	lea    -0x11f0(%rbp),%rax
    803b:	48 89 85 30 f9 ff ff 	mov    %rax,-0x6d0(%rbp)
    8042:	48 c7 85 38 f9 ff ff 	movq   $0x0,-0x6c8(%rbp)
    8049:	00 00 00 00 
    804d:	48 c7 85 40 f9 ff ff 	movq   $0x0,-0x6c0(%rbp)
    8054:	00 00 00 00 
    8058:	48 8d 85 10 ee ff ff 	lea    -0x11f0(%rbp),%rax
    805f:	48 89 85 48 f9 ff ff 	mov    %rax,-0x6b8(%rbp)
    8066:	48 c7 85 50 f9 ff ff 	movq   $0x0,-0x6b0(%rbp)
    806d:	00 00 00 00 
    8071:	48 c7 85 58 f9 ff ff 	movq   $0x0,-0x6a8(%rbp)
    8078:	00 00 00 00 
    807c:	48 8d 85 10 ee ff ff 	lea    -0x11f0(%rbp),%rax
    8083:	48 89 85 60 f9 ff ff 	mov    %rax,-0x6a0(%rbp)
    808a:	48 8d 85 10 ee ff ff 	lea    -0x11f0(%rbp),%rax
    8091:	48 89 85 68 f9 ff ff 	mov    %rax,-0x698(%rbp)
    8098:	48 c7 85 70 f9 ff ff 	movq   $0x0,-0x690(%rbp)
    809f:	00 00 00 00 
    80a3:	48 8d 85 10 ee ff ff 	lea    -0x11f0(%rbp),%rax
    80aa:	48 89 85 78 f9 ff ff 	mov    %rax,-0x688(%rbp)
    80b1:	48 8d 85 10 ee ff ff 	lea    -0x11f0(%rbp),%rax
    80b8:	48 89 85 80 f9 ff ff 	mov    %rax,-0x680(%rbp)
    80bf:	48 c7 85 88 f9 ff ff 	movq   $0x0,-0x678(%rbp)
    80c6:	00 00 00 00 
    80ca:	48 c7 85 90 f9 ff ff 	movq   $0x0,-0x670(%rbp)
    80d1:	00 00 00 00 
    80d5:	48 8d 85 10 ee ff ff 	lea    -0x11f0(%rbp),%rax
    80dc:	48 89 85 98 f9 ff ff 	mov    %rax,-0x668(%rbp)
    80e3:	48 c7 85 a0 f9 ff ff 	movq   $0x0,-0x660(%rbp)
    80ea:	00 00 00 00 
    80ee:	48 c7 85 a8 f9 ff ff 	movq   $0x0,-0x658(%rbp)
    80f5:	00 00 00 00 
    80f9:	48 8d 85 10 ee ff ff 	lea    -0x11f0(%rbp),%rax
    8100:	48 89 85 b0 f9 ff ff 	mov    %rax,-0x650(%rbp)
    8107:	48 8d 85 10 ee ff ff 	lea    -0x11f0(%rbp),%rax
    810e:	48 89 85 b8 f9 ff ff 	mov    %rax,-0x648(%rbp)
    8115:	48 c7 85 c0 f9 ff ff 	movq   $0x0,-0x640(%rbp)
    811c:	00 00 00 00 
    8120:	48 8d 85 10 ee ff ff 	lea    -0x11f0(%rbp),%rax
    8127:	48 89 85 c8 f9 ff ff 	mov    %rax,-0x638(%rbp)
    812e:	48 8d 85 10 ee ff ff 	lea    -0x11f0(%rbp),%rax
    8135:	48 89 85 d0 f9 ff ff 	mov    %rax,-0x630(%rbp)
    813c:	48 c7 85 d8 f9 ff ff 	movq   $0x0,-0x628(%rbp)
    8143:	00 00 00 00 
    8147:	48 c7 85 e0 f9 ff ff 	movq   $0x0,-0x620(%rbp)
    814e:	00 00 00 00 
    8152:	48 8d 85 10 ee ff ff 	lea    -0x11f0(%rbp),%rax
    8159:	48 89 85 e8 f9 ff ff 	mov    %rax,-0x618(%rbp)
    8160:	48 c7 85 f0 f9 ff ff 	movq   $0x0,-0x610(%rbp)
    8167:	00 00 00 00 
    816b:	48 c7 85 f8 f9 ff ff 	movq   $0x0,-0x608(%rbp)
    8172:	00 00 00 00 
    8176:	48 8d 85 10 ee ff ff 	lea    -0x11f0(%rbp),%rax
    817d:	48 89 85 00 fa ff ff 	mov    %rax,-0x600(%rbp)
    8184:	48 8d 85 10 ee ff ff 	lea    -0x11f0(%rbp),%rax
    818b:	48 89 85 08 fa ff ff 	mov    %rax,-0x5f8(%rbp)
    8192:	48 c7 85 10 fa ff ff 	movq   $0x0,-0x5f0(%rbp)
    8199:	00 00 00 00 
    819d:	48 8d 85 10 ee ff ff 	lea    -0x11f0(%rbp),%rax
    81a4:	48 89 85 18 fa ff ff 	mov    %rax,-0x5e8(%rbp)
    81ab:	48 8d 85 10 ee ff ff 	lea    -0x11f0(%rbp),%rax
    81b2:	48 89 85 20 fa ff ff 	mov    %rax,-0x5e0(%rbp)
    81b9:	48 c7 85 28 fa ff ff 	movq   $0x0,-0x5d8(%rbp)
    81c0:	00 00 00 00 
    81c4:	48 c7 85 30 fa ff ff 	movq   $0x0,-0x5d0(%rbp)
    81cb:	00 00 00 00 
    81cf:	48 8d 85 10 ee ff ff 	lea    -0x11f0(%rbp),%rax
    81d6:	48 89 85 38 fa ff ff 	mov    %rax,-0x5c8(%rbp)
    81dd:	48 c7 85 40 fa ff ff 	movq   $0x0,-0x5c0(%rbp)
    81e4:	00 00 00 00 
    81e8:	48 c7 85 48 fa ff ff 	movq   $0x0,-0x5b8(%rbp)
    81ef:	00 00 00 00 
    81f3:	48 8d 85 10 ee ff ff 	lea    -0x11f0(%rbp),%rax
    81fa:	48 89 85 50 fa ff ff 	mov    %rax,-0x5b0(%rbp)
    8201:	48 8d 85 10 ee ff ff 	lea    -0x11f0(%rbp),%rax
    8208:	48 89 85 58 fa ff ff 	mov    %rax,-0x5a8(%rbp)
    820f:	48 c7 85 60 fa ff ff 	movq   $0x0,-0x5a0(%rbp)
    8216:	00 00 00 00 
    821a:	48 8d 85 10 ee ff ff 	lea    -0x11f0(%rbp),%rax
    8221:	48 89 85 68 fa ff ff 	mov    %rax,-0x598(%rbp)
    8228:	48 8d 85 10 ee ff ff 	lea    -0x11f0(%rbp),%rax
    822f:	48 89 85 70 fa ff ff 	mov    %rax,-0x590(%rbp)
    8236:	48 c7 85 78 fa ff ff 	movq   $0x0,-0x588(%rbp)
    823d:	00 00 00 00 
    8241:	48 c7 85 80 fa ff ff 	movq   $0x0,-0x580(%rbp)
    8248:	00 00 00 00 
    824c:	48 8d 85 10 ee ff ff 	lea    -0x11f0(%rbp),%rax
    8253:	48 89 85 88 fa ff ff 	mov    %rax,-0x578(%rbp)
    825a:	48 c7 85 90 fa ff ff 	movq   $0x0,-0x570(%rbp)
    8261:	00 00 00 00 
    8265:	48 c7 85 98 fa ff ff 	movq   $0x0,-0x568(%rbp)
    826c:	00 00 00 00 
    8270:	48 8d 85 10 ee ff ff 	lea    -0x11f0(%rbp),%rax
    8277:	48 89 85 a0 fa ff ff 	mov    %rax,-0x560(%rbp)
    827e:	48 8d 85 10 ee ff ff 	lea    -0x11f0(%rbp),%rax
    8285:	48 89 85 a8 fa ff ff 	mov    %rax,-0x558(%rbp)
    828c:	48 c7 85 b0 fa ff ff 	movq   $0x0,-0x550(%rbp)
    8293:	00 00 00 00 
    8297:	48 8d 85 10 ee ff ff 	lea    -0x11f0(%rbp),%rax
    829e:	48 89 85 b8 fa ff ff 	mov    %rax,-0x548(%rbp)
    82a5:	48 8d 85 10 ee ff ff 	lea    -0x11f0(%rbp),%rax
    82ac:	48 89 85 c0 fa ff ff 	mov    %rax,-0x540(%rbp)
    82b3:	48 c7 85 c8 fa ff ff 	movq   $0x0,-0x538(%rbp)
    82ba:	00 00 00 00 
    82be:	48 c7 85 d0 fa ff ff 	movq   $0x0,-0x530(%rbp)
    82c5:	00 00 00 00 
    82c9:	48 8d 85 10 ee ff ff 	lea    -0x11f0(%rbp),%rax
    82d0:	48 89 85 d8 fa ff ff 	mov    %rax,-0x528(%rbp)
    82d7:	48 c7 85 e0 fa ff ff 	movq   $0x0,-0x520(%rbp)
    82de:	00 00 00 00 
    82e2:	48 c7 85 e8 fa ff ff 	movq   $0x0,-0x518(%rbp)
    82e9:	00 00 00 00 
    82ed:	48 8d 85 10 ee ff ff 	lea    -0x11f0(%rbp),%rax
    82f4:	48 89 85 f0 fa ff ff 	mov    %rax,-0x510(%rbp)
    82fb:	48 8d 85 10 ee ff ff 	lea    -0x11f0(%rbp),%rax
    8302:	48 89 85 f8 fa ff ff 	mov    %rax,-0x508(%rbp)
    8309:	48 c7 85 00 fb ff ff 	movq   $0x0,-0x500(%rbp)
    8310:	00 00 00 00 
    8314:	48 8d 85 10 ee ff ff 	lea    -0x11f0(%rbp),%rax
    831b:	48 89 85 08 fb ff ff 	mov    %rax,-0x4f8(%rbp)
    8322:	48 8d 85 10 ee ff ff 	lea    -0x11f0(%rbp),%rax
    8329:	48 89 85 10 fb ff ff 	mov    %rax,-0x4f0(%rbp)
    8330:	48 c7 85 18 fb ff ff 	movq   $0x0,-0x4e8(%rbp)
    8337:	00 00 00 00 
    833b:	48 c7 85 20 fb ff ff 	movq   $0x0,-0x4e0(%rbp)
    8342:	00 00 00 00 
    8346:	48 8d 85 10 ee ff ff 	lea    -0x11f0(%rbp),%rax
    834d:	48 89 85 28 fb ff ff 	mov    %rax,-0x4d8(%rbp)
    8354:	48 c7 85 30 fb ff ff 	movq   $0x0,-0x4d0(%rbp)
    835b:	00 00 00 00 
    835f:	48 c7 85 38 fb ff ff 	movq   $0x0,-0x4c8(%rbp)
    8366:	00 00 00 00 
    836a:	48 8d 85 10 ee ff ff 	lea    -0x11f0(%rbp),%rax
    8371:	48 89 85 40 fb ff ff 	mov    %rax,-0x4c0(%rbp)
    8378:	48 8d 85 10 ee ff ff 	lea    -0x11f0(%rbp),%rax
    837f:	48 89 85 48 fb ff ff 	mov    %rax,-0x4b8(%rbp)
    8386:	48 c7 85 50 fb ff ff 	movq   $0x0,-0x4b0(%rbp)
    838d:	00 00 00 00 
    8391:	48 8d 85 10 ee ff ff 	lea    -0x11f0(%rbp),%rax
    8398:	48 89 85 58 fb ff ff 	mov    %rax,-0x4a8(%rbp)
    839f:	48 8d 85 10 ee ff ff 	lea    -0x11f0(%rbp),%rax
    83a6:	48 89 85 60 fb ff ff 	mov    %rax,-0x4a0(%rbp)
    83ad:	48 c7 85 68 fb ff ff 	movq   $0x0,-0x498(%rbp)
    83b4:	00 00 00 00 
    83b8:	48 c7 85 70 fb ff ff 	movq   $0x0,-0x490(%rbp)
    83bf:	00 00 00 00 
    83c3:	48 8d 85 10 ee ff ff 	lea    -0x11f0(%rbp),%rax
    83ca:	48 89 85 78 fb ff ff 	mov    %rax,-0x488(%rbp)
    83d1:	48 c7 85 80 fb ff ff 	movq   $0x0,-0x480(%rbp)
    83d8:	00 00 00 00 
    83dc:	48 c7 85 88 fb ff ff 	movq   $0x0,-0x478(%rbp)
    83e3:	00 00 00 00 
    83e7:	48 8d 85 10 ee ff ff 	lea    -0x11f0(%rbp),%rax
    83ee:	48 89 85 90 fb ff ff 	mov    %rax,-0x470(%rbp)
    83f5:	48 8d 85 10 ee ff ff 	lea    -0x11f0(%rbp),%rax
    83fc:	48 89 85 98 fb ff ff 	mov    %rax,-0x468(%rbp)
    8403:	48 c7 85 a0 fb ff ff 	movq   $0x0,-0x460(%rbp)
    840a:	00 00 00 00 
    840e:	48 8d 85 10 ee ff ff 	lea    -0x11f0(%rbp),%rax
    8415:	48 89 85 a8 fb ff ff 	mov    %rax,-0x458(%rbp)
    841c:	48 8d 85 10 ee ff ff 	lea    -0x11f0(%rbp),%rax
    8423:	48 89 85 b0 fb ff ff 	mov    %rax,-0x450(%rbp)
    842a:	48 c7 85 b8 fb ff ff 	movq   $0x0,-0x448(%rbp)
    8431:	00 00 00 00 
    8435:	48 c7 85 c0 fb ff ff 	movq   $0x0,-0x440(%rbp)
    843c:	00 00 00 00 
    8440:	48 8d 85 10 ee ff ff 	lea    -0x11f0(%rbp),%rax
    8447:	48 89 85 c8 fb ff ff 	mov    %rax,-0x438(%rbp)
    844e:	48 8d 85 40 f2 ff ff 	lea    -0xdc0(%rbp),%rax
    8455:	48 8d 15 84 b0 00 00 	lea    0xb084(%rip),%rdx        # 134e0 <g_1030+0x1240>
    845c:	b9 36 00 00 00       	mov    $0x36,%ecx
    8461:	48 89 c7             	mov    %rax,%rdi
    8464:	48 89 d6             	mov    %rdx,%rsi
    8467:	f3 48 a5             	rep movsq %ds:(%rsi),%es:(%rdi)
    846a:	c7 85 a0 ed ff ff 01 	movl   $0x1,-0x1260(%rbp)
    8471:	00 00 00 
    8474:	48 c7 85 18 ee ff ff 	movq   $0x1,-0x11e8(%rbp)
    847b:	01 00 00 00 
    847f:	48 8d 85 18 ee ff ff 	lea    -0x11e8(%rbp),%rax
    8486:	48 89 85 80 f0 ff ff 	mov    %rax,-0xf80(%rbp)
    848d:	48 8d 85 18 ee ff ff 	lea    -0x11e8(%rbp),%rax
    8494:	48 89 85 88 f0 ff ff 	mov    %rax,-0xf78(%rbp)
    849b:	48 8d 85 18 ee ff ff 	lea    -0x11e8(%rbp),%rax
    84a2:	48 89 85 90 f0 ff ff 	mov    %rax,-0xf70(%rbp)
    84a9:	48 8d 85 18 ee ff ff 	lea    -0x11e8(%rbp),%rax
    84b0:	48 89 85 98 f0 ff ff 	mov    %rax,-0xf68(%rbp)
    84b7:	48 8d 85 18 ee ff ff 	lea    -0x11e8(%rbp),%rax
    84be:	48 89 85 a0 f0 ff ff 	mov    %rax,-0xf60(%rbp)
    84c5:	48 8d 85 18 ee ff ff 	lea    -0x11e8(%rbp),%rax
    84cc:	48 89 85 a8 f0 ff ff 	mov    %rax,-0xf58(%rbp)
    84d3:	48 8d 85 18 ee ff ff 	lea    -0x11e8(%rbp),%rax
    84da:	48 89 85 b0 f0 ff ff 	mov    %rax,-0xf50(%rbp)
    84e1:	48 8d 85 18 ee ff ff 	lea    -0x11e8(%rbp),%rax
    84e8:	48 89 85 b8 f0 ff ff 	mov    %rax,-0xf48(%rbp)
    84ef:	48 8d 85 18 ee ff ff 	lea    -0x11e8(%rbp),%rax
    84f6:	48 89 85 c0 f0 ff ff 	mov    %rax,-0xf40(%rbp)
    84fd:	48 8d 85 18 ee ff ff 	lea    -0x11e8(%rbp),%rax
    8504:	48 89 85 c8 f0 ff ff 	mov    %rax,-0xf38(%rbp)
    850b:	48 8d 85 18 ee ff ff 	lea    -0x11e8(%rbp),%rax
    8512:	48 89 85 d0 f0 ff ff 	mov    %rax,-0xf30(%rbp)
    8519:	48 8d 85 18 ee ff ff 	lea    -0x11e8(%rbp),%rax
    8520:	48 89 85 d8 f0 ff ff 	mov    %rax,-0xf28(%rbp)
    8527:	48 8d 85 18 ee ff ff 	lea    -0x11e8(%rbp),%rax
    852e:	48 89 85 e0 f0 ff ff 	mov    %rax,-0xf20(%rbp)
    8535:	48 8d 85 18 ee ff ff 	lea    -0x11e8(%rbp),%rax
    853c:	48 89 85 e8 f0 ff ff 	mov    %rax,-0xf18(%rbp)
    8543:	48 8d 85 18 ee ff ff 	lea    -0x11e8(%rbp),%rax
    854a:	48 89 85 f0 f0 ff ff 	mov    %rax,-0xf10(%rbp)
    8551:	48 8d 85 18 ee ff ff 	lea    -0x11e8(%rbp),%rax
    8558:	48 89 85 f8 f0 ff ff 	mov    %rax,-0xf08(%rbp)
    855f:	48 8d 85 18 ee ff ff 	lea    -0x11e8(%rbp),%rax
    8566:	48 89 85 00 f1 ff ff 	mov    %rax,-0xf00(%rbp)
    856d:	48 8d 85 18 ee ff ff 	lea    -0x11e8(%rbp),%rax
    8574:	48 89 85 08 f1 ff ff 	mov    %rax,-0xef8(%rbp)
    857b:	48 8d 85 18 ee ff ff 	lea    -0x11e8(%rbp),%rax
    8582:	48 89 85 10 f1 ff ff 	mov    %rax,-0xef0(%rbp)
    8589:	48 8d 85 18 ee ff ff 	lea    -0x11e8(%rbp),%rax
    8590:	48 89 85 18 f1 ff ff 	mov    %rax,-0xee8(%rbp)
    8597:	c7 85 7c ed ff ff 85 	movl   $0xcd3c6e85,-0x1284(%rbp)
    859e:	6e 3c cd 
    85a1:	c7 85 a4 ed ff ff 31 	movl   $0x15692831,-0x125c(%rbp)
    85a8:	28 69 15 
    85ab:	c7 85 30 ef ff ff b6 	movl   $0x40dd39b6,-0x10d0(%rbp)
    85b2:	39 dd 40 
    85b5:	c7 85 34 ef ff ff fe 	movl   $0xfffffffe,-0x10cc(%rbp)
    85bc:	ff ff ff 
    85bf:	c7 85 38 ef ff ff fe 	movl   $0xfffffffe,-0x10c8(%rbp)
    85c6:	ff ff ff 
    85c9:	c7 85 3c ef ff ff b6 	movl   $0x40dd39b6,-0x10c4(%rbp)
    85d0:	39 dd 40 
    85d3:	c7 85 40 ef ff ff fe 	movl   $0xfffffffe,-0x10c0(%rbp)
    85da:	ff ff ff 
    85dd:	c7 85 44 ef ff ff b6 	movl   $0x40dd39b6,-0x10bc(%rbp)
    85e4:	39 dd 40 
    85e7:	c7 85 48 ef ff ff fe 	movl   $0xfffffffe,-0x10b8(%rbp)
    85ee:	ff ff ff 
    85f1:	c7 85 4c ef ff ff fe 	movl   $0xfffffffe,-0x10b4(%rbp)
    85f8:	ff ff ff 
    85fb:	c7 85 50 ef ff ff b6 	movl   $0x40dd39b6,-0x10b0(%rbp)
    8602:	39 dd 40 
    8605:	c7 85 54 ef ff ff b6 	movl   $0x40dd39b6,-0x10ac(%rbp)
    860c:	39 dd 40 
    860f:	c7 85 58 ef ff ff e5 	movl   $0x962c5fe5,-0x10a8(%rbp)
    8616:	5f 2c 96 
    8619:	c7 85 5c ef ff ff b6 	movl   $0x40dd39b6,-0x10a4(%rbp)
    8620:	39 dd 40 
    8623:	c7 85 a8 ed ff ff 08 	movl   $0x8,-0x1258(%rbp)
    862a:	00 00 00 
    862d:	48 b8 ff 8a 40 7c 64 	movabs $0xa32293647c408aff,%rax
    8634:	93 22 a3 
    8637:	48 89 85 f0 ef ff ff 	mov    %rax,-0x1010(%rbp)
    863e:	48 c7 85 f8 ef ff ff 	movq   $0x8,-0x1008(%rbp)
    8645:	08 00 00 00 
    8649:	48 89 85 00 f0 ff ff 	mov    %rax,-0x1000(%rbp)
    8650:	48 c7 85 08 f0 ff ff 	movq   $0x8,-0xff8(%rbp)
    8657:	08 00 00 00 
    865b:	48 89 85 10 f0 ff ff 	mov    %rax,-0xff0(%rbp)
    8662:	48 c7 85 18 f0 ff ff 	movq   $0x8,-0xfe8(%rbp)
    8669:	08 00 00 00 
    866d:	48 89 85 20 f0 ff ff 	mov    %rax,-0xfe0(%rbp)
    8674:	48 c7 85 28 f0 ff ff 	movq   $0x8,-0xfd8(%rbp)
    867b:	08 00 00 00 
    867f:	48 89 85 30 f0 ff ff 	mov    %rax,-0xfd0(%rbp)
    8686:	48 c7 85 38 f0 ff ff 	movq   $0xffffffffffffffff,-0xfc8(%rbp)
    868d:	ff ff ff ff 
    8691:	48 c7 85 40 f0 ff ff 	movq   $0xffffffffffffffff,-0xfc0(%rbp)
    8698:	ff ff ff ff 
    869c:	48 c7 85 48 f0 ff ff 	movq   $0xffffffffffffffff,-0xfb8(%rbp)
    86a3:	ff ff ff ff 
    86a7:	48 c7 85 50 f0 ff ff 	movq   $0xffffffffffffffff,-0xfb0(%rbp)
    86ae:	ff ff ff ff 
    86b2:	48 c7 85 58 f0 ff ff 	movq   $0xffffffffffffffff,-0xfa8(%rbp)
    86b9:	ff ff ff ff 
    86bd:	48 c7 85 60 f0 ff ff 	movq   $0xffffffffffffffff,-0xfa0(%rbp)
    86c4:	ff ff ff ff 
    86c8:	48 c7 85 68 f0 ff ff 	movq   $0xffffffffffffffff,-0xf98(%rbp)
    86cf:	ff ff ff ff 
    86d3:	48 c7 85 70 f0 ff ff 	movq   $0xffffffffffffffff,-0xf90(%rbp)
    86da:	ff ff ff ff 
    86de:	48 c7 85 78 f0 ff ff 	movq   $0xffffffffffffffff,-0xf88(%rbp)
    86e5:	ff ff ff ff 
    86e9:	48 8d 05 88 bb 00 00 	lea    0xbb88(%rip),%rax        # 14278 <g_552>
    86f0:	48 89 85 20 ee ff ff 	mov    %rax,-0x11e0(%rbp)
    86f7:	48 c7 85 20 f1 ff ff 	movq   $0x0,-0xee0(%rbp)
    86fe:	00 00 00 00 
    8702:	48 c7 85 28 f1 ff ff 	movq   $0x0,-0xed8(%rbp)
    8709:	00 00 00 00 
    870d:	48 8d 85 20 ee ff ff 	lea    -0x11e0(%rbp),%rax
    8714:	48 89 85 30 f1 ff ff 	mov    %rax,-0xed0(%rbp)
    871b:	48 8d 85 20 ee ff ff 	lea    -0x11e0(%rbp),%rax
    8722:	48 89 85 38 f1 ff ff 	mov    %rax,-0xec8(%rbp)
    8729:	48 8d 85 20 ee ff ff 	lea    -0x11e0(%rbp),%rax
    8730:	48 89 85 40 f1 ff ff 	mov    %rax,-0xec0(%rbp)
    8737:	48 c7 85 48 f1 ff ff 	movq   $0x0,-0xeb8(%rbp)
    873e:	00 00 00 00 
    8742:	48 8d 85 20 ee ff ff 	lea    -0x11e0(%rbp),%rax
    8749:	48 89 85 50 f1 ff ff 	mov    %rax,-0xeb0(%rbp)
    8750:	48 c7 85 58 f1 ff ff 	movq   $0x0,-0xea8(%rbp)
    8757:	00 00 00 00 
    875b:	48 8d 85 20 ee ff ff 	lea    -0x11e0(%rbp),%rax
    8762:	48 89 85 60 f1 ff ff 	mov    %rax,-0xea0(%rbp)
    8769:	48 8d 85 20 ee ff ff 	lea    -0x11e0(%rbp),%rax
    8770:	48 89 85 68 f1 ff ff 	mov    %rax,-0xe98(%rbp)
    8777:	48 8d 85 20 ee ff ff 	lea    -0x11e0(%rbp),%rax
    877e:	48 89 85 70 f1 ff ff 	mov    %rax,-0xe90(%rbp)
    8785:	48 8d 85 20 ee ff ff 	lea    -0x11e0(%rbp),%rax
    878c:	48 89 85 78 f1 ff ff 	mov    %rax,-0xe88(%rbp)
    8793:	48 c7 85 80 f1 ff ff 	movq   $0x0,-0xe80(%rbp)
    879a:	00 00 00 00 
    879e:	48 c7 85 88 f1 ff ff 	movq   $0x0,-0xe78(%rbp)
    87a5:	00 00 00 00 
    87a9:	48 8d 85 20 ee ff ff 	lea    -0x11e0(%rbp),%rax
    87b0:	48 89 85 90 f1 ff ff 	mov    %rax,-0xe70(%rbp)
    87b7:	48 8d 85 20 ee ff ff 	lea    -0x11e0(%rbp),%rax
    87be:	48 89 85 98 f1 ff ff 	mov    %rax,-0xe68(%rbp)
    87c5:	48 8d 85 20 ee ff ff 	lea    -0x11e0(%rbp),%rax
    87cc:	48 89 85 a0 f1 ff ff 	mov    %rax,-0xe60(%rbp)
    87d3:	48 8d 85 20 ee ff ff 	lea    -0x11e0(%rbp),%rax
    87da:	48 89 85 a8 f1 ff ff 	mov    %rax,-0xe58(%rbp)
    87e1:	48 8d 85 20 ee ff ff 	lea    -0x11e0(%rbp),%rax
    87e8:	48 89 85 b0 f1 ff ff 	mov    %rax,-0xe50(%rbp)
    87ef:	48 8d 85 20 ee ff ff 	lea    -0x11e0(%rbp),%rax
    87f6:	48 89 85 b8 f1 ff ff 	mov    %rax,-0xe48(%rbp)
    87fd:	48 8d 85 20 ee ff ff 	lea    -0x11e0(%rbp),%rax
    8804:	48 89 85 c0 f1 ff ff 	mov    %rax,-0xe40(%rbp)
    880b:	48 8d 85 20 ee ff ff 	lea    -0x11e0(%rbp),%rax
    8812:	48 89 85 c8 f1 ff ff 	mov    %rax,-0xe38(%rbp)
    8819:	48 8d 85 20 ee ff ff 	lea    -0x11e0(%rbp),%rax
    8820:	48 89 85 d0 f1 ff ff 	mov    %rax,-0xe30(%rbp)
    8827:	48 8d 85 20 ee ff ff 	lea    -0x11e0(%rbp),%rax
    882e:	48 89 85 d8 f1 ff ff 	mov    %rax,-0xe28(%rbp)
    8835:	48 8d 85 20 ee ff ff 	lea    -0x11e0(%rbp),%rax
    883c:	48 89 85 e0 f1 ff ff 	mov    %rax,-0xe20(%rbp)
    8843:	48 8d 85 20 ee ff ff 	lea    -0x11e0(%rbp),%rax
    884a:	48 89 85 e8 f1 ff ff 	mov    %rax,-0xe18(%rbp)
    8851:	48 c7 85 f0 f1 ff ff 	movq   $0x0,-0xe10(%rbp)
    8858:	00 00 00 00 
    885c:	48 8d 85 20 ee ff ff 	lea    -0x11e0(%rbp),%rax
    8863:	48 89 85 f8 f1 ff ff 	mov    %rax,-0xe08(%rbp)
    886a:	48 8d 85 20 ee ff ff 	lea    -0x11e0(%rbp),%rax
    8871:	48 89 85 00 f2 ff ff 	mov    %rax,-0xe00(%rbp)
    8878:	48 8d 85 20 ee ff ff 	lea    -0x11e0(%rbp),%rax
    887f:	48 89 85 08 f2 ff ff 	mov    %rax,-0xdf8(%rbp)
    8886:	48 8d 85 20 ee ff ff 	lea    -0x11e0(%rbp),%rax
    888d:	48 89 85 10 f2 ff ff 	mov    %rax,-0xdf0(%rbp)
    8894:	48 8d 85 20 ee ff ff 	lea    -0x11e0(%rbp),%rax
    889b:	48 89 85 18 f2 ff ff 	mov    %rax,-0xde8(%rbp)
    88a2:	48 8d 85 20 ee ff ff 	lea    -0x11e0(%rbp),%rax
    88a9:	48 89 85 20 f2 ff ff 	mov    %rax,-0xde0(%rbp)
    88b0:	48 c7 85 28 f2 ff ff 	movq   $0x0,-0xdd8(%rbp)
    88b7:	00 00 00 00 
    88bb:	48 c7 85 30 f2 ff ff 	movq   $0x0,-0xdd0(%rbp)
    88c2:	00 00 00 00 
    88c6:	48 8d 85 20 ee ff ff 	lea    -0x11e0(%rbp),%rax
    88cd:	48 89 85 38 f2 ff ff 	mov    %rax,-0xdc8(%rbp)
    88d4:	c7 85 90 ed ff ff 00 	movl   $0x0,-0x1270(%rbp)
    88db:	00 00 00 
    88de:	eb 19                	jmp    88f9 <func_36+0xc22>
    88e0:	8b 85 90 ed ff ff    	mov    -0x1270(%rbp),%eax
    88e6:	48 98                	cltq   
    88e8:	66 c7 84 45 bc ee ff 	movw   $0x456b,-0x1144(%rbp,%rax,2)
    88ef:	ff 6b 45 
    88f2:	83 85 90 ed ff ff 01 	addl   $0x1,-0x1270(%rbp)
    88f9:	83 bd 90 ed ff ff 01 	cmpl   $0x1,-0x1270(%rbp)
    8900:	7e de                	jle    88e0 <func_36+0xc09>
    8902:	4c 8b ad 00 ef ff ff 	mov    -0x1100(%rbp),%r13
    8909:	44 8b a5 64 ed ff ff 	mov    -0x129c(%rbp),%r12d
    8910:	8b 85 9c ed ff ff    	mov    -0x1264(%rbp),%eax
    8916:	0f b7 d8             	movzwl %ax,%ebx
    8919:	8b 85 64 ed ff ff    	mov    -0x129c(%rbp),%eax
    891f:	44 0f bf f0          	movswl %ax,%r14d
    8923:	0f b6 05 fe 86 00 00 	movzbl 0x86fe(%rip),%eax        # 11028 <g_17>
    892a:	44 0f be f8          	movsbl %al,%r15d
    892e:	8b 05 24 87 00 00    	mov    0x8724(%rip),%eax        # 11058 <g_66>
    8934:	89 c0                	mov    %eax,%eax
    8936:	48 89 85 58 ed ff ff 	mov    %rax,-0x12a8(%rbp)
    893d:	48 c7 05 18 af 00 00 	movq   $0x0,0xaf18(%rip)        # 13860 <g_58>
    8944:	00 00 00 00 
    8948:	48 8b 85 00 ef ff ff 	mov    -0x1100(%rbp),%rax
    894f:	48 85 c0             	test   %rax,%rax
    8952:	0f 85 83 00 00 00    	jne    89db <func_36+0xd04>
    8958:	8b 85 cc ee ff ff    	mov    -0x1134(%rbp),%eax
    895e:	89 85 a0 ed ff ff    	mov    %eax,-0x1260(%rbp)
    8964:	8b 85 a0 ed ff ff    	mov    -0x1260(%rbp),%eax
    896a:	be 01 00 00 00       	mov    $0x1,%esi
    896f:	89 c7                	mov    %eax,%edi
    8971:	e8 5a d5 ff ff       	callq  5ed0 <safe_sub_func_uint32_t_u_u>
    8976:	89 85 60 ed ff ff    	mov    %eax,-0x12a0(%rbp)
    897c:	8b 85 64 ed ff ff    	mov    -0x129c(%rbp),%eax
    8982:	89 c1                	mov    %eax,%ecx
    8984:	b8 cd ff ff ff       	mov    $0xffffffcd,%eax
    8989:	48 0f be d0          	movsbq %al,%rdx
    898d:	48 8b 85 18 ee ff ff 	mov    -0x11e8(%rbp),%rax
    8994:	48 39 c2             	cmp    %rax,%rdx
    8997:	0f 9e c0             	setle  %al
    899a:	0f b6 c0             	movzbl %al,%eax
    899d:	89 ce                	mov    %ecx,%esi
    899f:	89 c7                	mov    %eax,%edi
    89a1:	e8 84 cb ff ff       	callq  552a <safe_rshift_func_int16_t_s_s>
    89a6:	98                   	cwtl   
    89a7:	39 85 60 ed ff ff    	cmp    %eax,-0x12a0(%rbp)
    89ad:	0f 94 c0             	sete   %al
    89b0:	0f b6 c0             	movzbl %al,%eax
    89b3:	89 85 7c ed ff ff    	mov    %eax,-0x1284(%rbp)
    89b9:	8b 85 7c ed ff ff    	mov    -0x1284(%rbp),%eax
    89bf:	48 98                	cltq   
    89c1:	48 89 05 88 86 00 00 	mov    %rax,0x8688(%rip)        # 11050 <g_61+0x10>
    89c8:	48 8b 05 81 86 00 00 	mov    0x8681(%rip),%rax        # 11050 <g_61+0x10>
    89cf:	48 85 c0             	test   %rax,%rax
    89d2:	74 07                	je     89db <func_36+0xd04>
    89d4:	b8 01 00 00 00       	mov    $0x1,%eax
    89d9:	eb 05                	jmp    89e0 <func_36+0xd09>
    89db:	b8 00 00 00 00       	mov    $0x0,%eax
    89e0:	83 f8 05             	cmp    $0x5,%eax
    89e3:	0f 97 c0             	seta   %al
    89e6:	0f b6 c0             	movzbl %al,%eax
    89e9:	48 98                	cltq   
    89eb:	48 8b b5 58 ed ff ff 	mov    -0x12a8(%rbp),%rsi
    89f2:	48 89 c7             	mov    %rax,%rdi
    89f5:	e8 fd cf ff ff       	callq  59f7 <safe_div_func_int64_t_s_s>
    89fa:	48 85 c0             	test   %rax,%rax
    89fd:	74 07                	je     8a06 <func_36+0xd2f>
    89ff:	b8 01 00 00 00       	mov    $0x1,%eax
    8a04:	eb 05                	jmp    8a0b <func_36+0xd34>
    8a06:	b8 00 00 00 00       	mov    $0x0,%eax
    8a0b:	44 89 fe             	mov    %r15d,%esi
    8a0e:	89 c7                	mov    %eax,%edi
    8a10:	e8 5d 27 00 00       	callq  b172 <func_50>
    8a15:	98                   	cwtl   
    8a16:	44 89 f6             	mov    %r14d,%esi
    8a19:	89 c7                	mov    %eax,%edi
    8a1b:	e8 93 c9 ff ff       	callq  53b3 <safe_add_func_int16_t_s_s>
    8a20:	89 c2                	mov    %eax,%edx
    8a22:	0f b6 05 06 86 00 00 	movzbl 0x8606(%rip),%eax        # 1102f <g_17+0x7>
    8a29:	21 d0                	and    %edx,%eax
    8a2b:	0f be d0             	movsbl %al,%edx
    8a2e:	0f b6 05 fa 85 00 00 	movzbl 0x85fa(%rip),%eax        # 1102f <g_17+0x7>
    8a35:	0f be c0             	movsbl %al,%eax
    8a38:	89 d6                	mov    %edx,%esi
    8a3a:	89 c7                	mov    %eax,%edi
    8a3c:	e8 e1 18 00 00       	callq  a322 <func_45>
    8a41:	89 85 cc ee ff ff    	mov    %eax,-0x1134(%rbp)
    8a47:	8b 85 cc ee ff ff    	mov    -0x1134(%rbp),%eax
    8a4d:	48 98                	cltq   
    8a4f:	48 89 c7             	mov    %rax,%rdi
    8a52:	e8 02 f2 ff ff       	callq  7c59 <func_26>
    8a57:	4c 89 e9             	mov    %r13,%rcx
    8a5a:	44 89 e2             	mov    %r12d,%edx
    8a5d:	89 de                	mov    %ebx,%esi
    8a5f:	48 89 c7             	mov    %rax,%rdi
    8a62:	e8 e7 0f 00 00       	callq  9a4e <func_40>
    8a67:	0f b6 d0             	movzbl %al,%edx
    8a6a:	8b 85 64 ed ff ff    	mov    -0x129c(%rbp),%eax
    8a70:	09 d0                	or     %edx,%eax
    8a72:	85 c0                	test   %eax,%eax
    8a74:	0f 84 15 05 00 00    	je     8f8f <func_36+0x12b8>
    8a7a:	66 c7 85 7a ed ff ff 	movw   $0x6451,-0x1286(%rbp)
    8a81:	51 64 
    8a83:	c7 85 f4 ed ff ff 00 	movl   $0x0,-0x120c(%rbp)
    8a8a:	00 00 00 
    8a8d:	48 8d 85 d0 fb ff ff 	lea    -0x430(%rbp),%rax
    8a94:	48 8d 15 25 4f 00 00 	lea    0x4f25(%rip),%rdx        # d9c0 <g_59+0x96b>
    8a9b:	b9 50 00 00 00       	mov    $0x50,%ecx
    8aa0:	48 89 c7             	mov    %rax,%rdi
    8aa3:	48 89 d6             	mov    %rdx,%rsi
    8aa6:	f3 48 a5             	rep movsq %ds:(%rsi),%es:(%rdi)
    8aa9:	48 c7 85 88 ee ff ff 	movq   $0x0,-0x1178(%rbp)
    8ab0:	00 00 00 00 
    8ab4:	48 c7 85 90 ee ff ff 	movq   $0x0,-0x1170(%rbp)
    8abb:	00 00 00 00 
    8abf:	48 8d 05 b2 ae 00 00 	lea    0xaeb2(%rip),%rax        # 13978 <g_146>
    8ac6:	48 89 85 98 ee ff ff 	mov    %rax,-0x1168(%rbp)
    8acd:	c6 85 77 ed ff ff ca 	movb   $0xca,-0x1289(%rbp)
    8ad4:	48 8d 05 95 88 00 00 	lea    0x8895(%rip),%rax        # 11370 <g_195>
    8adb:	48 89 85 a0 ef ff ff 	mov    %rax,-0x1060(%rbp)
    8ae2:	48 c7 85 a8 ef ff ff 	movq   $0x0,-0x1058(%rbp)
    8ae9:	00 00 00 00 
    8aed:	48 8d 05 7c 88 00 00 	lea    0x887c(%rip),%rax        # 11370 <g_195>
    8af4:	48 89 85 b0 ef ff ff 	mov    %rax,-0x1050(%rbp)
    8afb:	48 c7 85 b8 ef ff ff 	movq   $0x0,-0x1048(%rbp)
    8b02:	00 00 00 00 
    8b06:	48 8d 05 63 88 00 00 	lea    0x8863(%rip),%rax        # 11370 <g_195>
    8b0d:	48 89 85 c0 ef ff ff 	mov    %rax,-0x1040(%rbp)
    8b14:	48 c7 85 c8 ef ff ff 	movq   $0x0,-0x1038(%rbp)
    8b1b:	00 00 00 00 
    8b1f:	48 8d 05 4a 88 00 00 	lea    0x884a(%rip),%rax        # 11370 <g_195>
    8b26:	48 89 85 d0 ef ff ff 	mov    %rax,-0x1030(%rbp)
    8b2d:	48 c7 85 d8 ef ff ff 	movq   $0x0,-0x1028(%rbp)
    8b34:	00 00 00 00 
    8b38:	48 8d 05 31 88 00 00 	lea    0x8831(%rip),%rax        # 11370 <g_195>
    8b3f:	48 89 85 e0 ef ff ff 	mov    %rax,-0x1020(%rbp)
    8b46:	48 c7 85 e8 ef ff ff 	movq   $0x0,-0x1018(%rbp)
    8b4d:	00 00 00 00 
    8b51:	c7 05 65 88 00 00 00 	movl   $0x0,0x8865(%rip)        # 113c0 <g_291>
    8b58:	00 00 00 
    8b5b:	e9 d3 02 00 00       	jmpq   8e33 <func_36+0x115c>
    8b60:	c7 85 38 ee ff ff 00 	movl   $0x0,-0x11c8(%rbp)
    8b67:	00 00 00 
    8b6a:	48 8d 85 b0 f5 ff ff 	lea    -0xa50(%rbp),%rax
    8b71:	48 05 f8 01 00 00    	add    $0x1f8,%rax
    8b77:	48 89 85 a0 ee ff ff 	mov    %rax,-0x1160(%rbp)
    8b7e:	48 8d 85 38 ee ff ff 	lea    -0x11c8(%rbp),%rax
    8b85:	48 89 85 f0 f3 ff ff 	mov    %rax,-0xc10(%rbp)
    8b8c:	48 8d 85 38 ee ff ff 	lea    -0x11c8(%rbp),%rax
    8b93:	48 89 85 f8 f3 ff ff 	mov    %rax,-0xc08(%rbp)
    8b9a:	48 8d 85 7c ed ff ff 	lea    -0x1284(%rbp),%rax
    8ba1:	48 89 85 00 f4 ff ff 	mov    %rax,-0xc00(%rbp)
    8ba8:	48 8d 85 38 ee ff ff 	lea    -0x11c8(%rbp),%rax
    8baf:	48 89 85 08 f4 ff ff 	mov    %rax,-0xbf8(%rbp)
    8bb6:	48 8d 85 38 ee ff ff 	lea    -0x11c8(%rbp),%rax
    8bbd:	48 89 85 10 f4 ff ff 	mov    %rax,-0xbf0(%rbp)
    8bc4:	48 8d 85 7c ed ff ff 	lea    -0x1284(%rbp),%rax
    8bcb:	48 89 85 18 f4 ff ff 	mov    %rax,-0xbe8(%rbp)
    8bd2:	48 8d 85 38 ee ff ff 	lea    -0x11c8(%rbp),%rax
    8bd9:	48 89 85 20 f4 ff ff 	mov    %rax,-0xbe0(%rbp)
    8be0:	48 8d 85 38 ee ff ff 	lea    -0x11c8(%rbp),%rax
    8be7:	48 89 85 28 f4 ff ff 	mov    %rax,-0xbd8(%rbp)
    8bee:	48 8d 85 7c ed ff ff 	lea    -0x1284(%rbp),%rax
    8bf5:	48 89 85 30 f4 ff ff 	mov    %rax,-0xbd0(%rbp)
    8bfc:	48 8d 85 38 ee ff ff 	lea    -0x11c8(%rbp),%rax
    8c03:	48 89 85 38 f4 ff ff 	mov    %rax,-0xbc8(%rbp)
    8c0a:	48 8d 85 38 ee ff ff 	lea    -0x11c8(%rbp),%rax
    8c11:	48 89 85 40 f4 ff ff 	mov    %rax,-0xbc0(%rbp)
    8c18:	48 8d 85 38 ee ff ff 	lea    -0x11c8(%rbp),%rax
    8c1f:	48 89 85 48 f4 ff ff 	mov    %rax,-0xbb8(%rbp)
    8c26:	48 8d 85 38 ee ff ff 	lea    -0x11c8(%rbp),%rax
    8c2d:	48 89 85 50 f4 ff ff 	mov    %rax,-0xbb0(%rbp)
    8c34:	48 8d 85 38 ee ff ff 	lea    -0x11c8(%rbp),%rax
    8c3b:	48 89 85 58 f4 ff ff 	mov    %rax,-0xba8(%rbp)
    8c42:	48 8d 85 38 ee ff ff 	lea    -0x11c8(%rbp),%rax
    8c49:	48 89 85 60 f4 ff ff 	mov    %rax,-0xba0(%rbp)
    8c50:	48 8d 85 38 ee ff ff 	lea    -0x11c8(%rbp),%rax
    8c57:	48 89 85 68 f4 ff ff 	mov    %rax,-0xb98(%rbp)
    8c5e:	48 8d 85 38 ee ff ff 	lea    -0x11c8(%rbp),%rax
    8c65:	48 89 85 70 f4 ff ff 	mov    %rax,-0xb90(%rbp)
    8c6c:	48 8d 85 38 ee ff ff 	lea    -0x11c8(%rbp),%rax
    8c73:	48 89 85 78 f4 ff ff 	mov    %rax,-0xb88(%rbp)
    8c7a:	48 8d 85 38 ee ff ff 	lea    -0x11c8(%rbp),%rax
    8c81:	48 89 85 80 f4 ff ff 	mov    %rax,-0xb80(%rbp)
    8c88:	48 8d 85 38 ee ff ff 	lea    -0x11c8(%rbp),%rax
    8c8f:	48 89 85 88 f4 ff ff 	mov    %rax,-0xb78(%rbp)
    8c96:	48 8d 85 38 ee ff ff 	lea    -0x11c8(%rbp),%rax
    8c9d:	48 89 85 90 f4 ff ff 	mov    %rax,-0xb70(%rbp)
    8ca4:	48 8d 85 38 ee ff ff 	lea    -0x11c8(%rbp),%rax
    8cab:	48 89 85 98 f4 ff ff 	mov    %rax,-0xb68(%rbp)
    8cb2:	48 8d 85 38 ee ff ff 	lea    -0x11c8(%rbp),%rax
    8cb9:	48 89 85 a0 f4 ff ff 	mov    %rax,-0xb60(%rbp)
    8cc0:	48 8d 85 38 ee ff ff 	lea    -0x11c8(%rbp),%rax
    8cc7:	48 89 85 a8 f4 ff ff 	mov    %rax,-0xb58(%rbp)
    8cce:	48 8d 85 38 ee ff ff 	lea    -0x11c8(%rbp),%rax
    8cd5:	48 89 85 b0 f4 ff ff 	mov    %rax,-0xb50(%rbp)
    8cdc:	48 8d 85 38 ee ff ff 	lea    -0x11c8(%rbp),%rax
    8ce3:	48 89 85 b8 f4 ff ff 	mov    %rax,-0xb48(%rbp)
    8cea:	48 8d 85 38 ee ff ff 	lea    -0x11c8(%rbp),%rax
    8cf1:	48 89 85 c0 f4 ff ff 	mov    %rax,-0xb40(%rbp)
    8cf8:	48 8d 85 38 ee ff ff 	lea    -0x11c8(%rbp),%rax
    8cff:	48 89 85 c8 f4 ff ff 	mov    %rax,-0xb38(%rbp)
    8d06:	48 8d 85 38 ee ff ff 	lea    -0x11c8(%rbp),%rax
    8d0d:	48 89 85 d0 f4 ff ff 	mov    %rax,-0xb30(%rbp)
    8d14:	48 8d 85 38 ee ff ff 	lea    -0x11c8(%rbp),%rax
    8d1b:	48 89 85 d8 f4 ff ff 	mov    %rax,-0xb28(%rbp)
    8d22:	8b 9d f4 ed ff ff    	mov    -0x120c(%rbp),%ebx
    8d28:	8b 05 ae 85 00 00    	mov    0x85ae(%rip),%eax        # 112dc <g_160+0x1c>
    8d2e:	41 89 c5             	mov    %eax,%r13d
    8d31:	8b 85 64 ed ff ff    	mov    -0x129c(%rbp),%eax
    8d37:	44 0f b7 e0          	movzwl %ax,%r12d
    8d3b:	0f b7 85 7a ed ff ff 	movzwl -0x1286(%rbp),%eax
    8d42:	0f b7 c0             	movzwl %ax,%eax
    8d45:	be 0e 00 00 00       	mov    $0xe,%esi
    8d4a:	89 c7                	mov    %eax,%edi
    8d4c:	e8 b5 d0 ff ff       	callq  5e06 <safe_lshift_func_uint16_t_u_u>
    8d51:	0f b7 c0             	movzwl %ax,%eax
    8d54:	44 89 e6             	mov    %r12d,%esi
    8d57:	89 c7                	mov    %eax,%edi
    8d59:	e8 df cf ff ff       	callq  5d3d <safe_mul_func_uint16_t_u_u>
    8d5e:	44 21 e8             	and    %r13d,%eax
    8d61:	0f be c0             	movsbl %al,%eax
    8d64:	be 07 00 00 00       	mov    $0x7,%esi
    8d69:	89 c7                	mov    %eax,%edi
    8d6b:	e8 31 c5 ff ff       	callq  52a1 <safe_lshift_func_int8_t_s_s>
    8d70:	44 0f be e0          	movsbl %al,%r12d
    8d74:	48 8b 95 00 f7 ff ff 	mov    -0x900(%rbp),%rdx
    8d7b:	48 8b 85 a0 ee ff ff 	mov    -0x1160(%rbp),%rax
    8d82:	48 89 10             	mov    %rdx,(%rax)
    8d85:	48 8b 85 a0 ee ff ff 	mov    -0x1160(%rbp),%rax
    8d8c:	48 8b 00             	mov    (%rax),%rax
    8d8f:	48 85 c0             	test   %rax,%rax
    8d92:	0f 94 c0             	sete   %al
    8d95:	0f b6 c0             	movzbl %al,%eax
    8d98:	be 01 00 00 00       	mov    $0x1,%esi
    8d9d:	89 c7                	mov    %eax,%edi
    8d9f:	e8 28 c9 ff ff       	callq  56cc <safe_mod_func_int32_t_s_s>
    8da4:	41 39 c4             	cmp    %eax,%r12d
    8da7:	0f 9f c0             	setg   %al
    8daa:	0f b6 d0             	movzbl %al,%edx
    8dad:	8b 85 7c ed ff ff    	mov    -0x1284(%rbp),%eax
    8db3:	39 c2                	cmp    %eax,%edx
    8db5:	0f 95 c0             	setne  %al
    8db8:	0f b6 c0             	movzbl %al,%eax
    8dbb:	8b 95 64 ed ff ff    	mov    -0x129c(%rbp),%edx
    8dc1:	21 d0                	and    %edx,%eax
    8dc3:	0f b7 c0             	movzwl %ax,%eax
    8dc6:	89 c6                	mov    %eax,%esi
    8dc8:	bf 16 11 00 00       	mov    $0x1116,%edi
    8dcd:	e8 2d cf ff ff       	callq  5cff <safe_add_func_uint16_t_u_u>
    8dd2:	0f b7 d0             	movzwl %ax,%edx
    8dd5:	8b 85 64 ed ff ff    	mov    -0x129c(%rbp),%eax
    8ddb:	39 c2                	cmp    %eax,%edx
    8ddd:	0f 97 c0             	seta   %al
    8de0:	0f b6 d0             	movzbl %al,%edx
    8de3:	8b 85 38 ee ff ff    	mov    -0x11c8(%rbp),%eax
    8de9:	c1 e8 1f             	shr    $0x1f,%eax
    8dec:	0f b6 c0             	movzbl %al,%eax
    8def:	89 d6                	mov    %edx,%esi
    8df1:	89 c7                	mov    %eax,%edi
    8df3:	e8 45 cf ff ff       	callq  5d3d <safe_mul_func_uint16_t_u_u>
    8df8:	0f b7 c0             	movzwl %ax,%eax
    8dfb:	89 de                	mov    %ebx,%esi
    8dfd:	89 c7                	mov    %eax,%edi
    8dff:	e8 44 d0 ff ff       	callq  5e48 <safe_rshift_func_uint16_t_u_s>
    8e04:	8b 95 f8 fd ff ff    	mov    -0x208(%rbp),%edx
    8e0a:	0f b7 c0             	movzwl %ax,%eax
    8e0d:	31 d0                	xor    %edx,%eax
    8e0f:	89 85 f8 fd ff ff    	mov    %eax,-0x208(%rbp)
    8e15:	8b 05 55 b4 00 00    	mov    0xb455(%rip),%eax        # 14270 <g_406>
    8e1b:	83 c0 01             	add    $0x1,%eax
    8e1e:	89 05 4c b4 00 00    	mov    %eax,0xb44c(%rip)        # 14270 <g_406>
    8e24:	8b 05 96 85 00 00    	mov    0x8596(%rip),%eax        # 113c0 <g_291>
    8e2a:	83 c0 01             	add    $0x1,%eax
    8e2d:	89 05 8d 85 00 00    	mov    %eax,0x858d(%rip)        # 113c0 <g_291>
    8e33:	8b 05 87 85 00 00    	mov    0x8587(%rip),%eax        # 113c0 <g_291>
    8e39:	83 f8 12             	cmp    $0x12,%eax
    8e3c:	0f 8e 1e fd ff ff    	jle    8b60 <func_36+0xe89>
    8e42:	8b 1d 44 8d 00 00    	mov    0x8d44(%rip),%ebx        # 11b8c <g_352+0x1ec>
    8e48:	8b 85 64 ed ff ff    	mov    -0x129c(%rbp),%eax
    8e4e:	41 89 c6             	mov    %eax,%r14d
    8e51:	be 01 00 00 00       	mov    $0x1,%esi
    8e56:	bf 00 00 00 00       	mov    $0x0,%edi
    8e5b:	e8 74 c3 ff ff       	callq  51d4 <safe_add_func_int8_t_s_s>
    8e60:	44 0f be e0          	movsbl %al,%r12d
    8e64:	48 8b 85 98 ee ff ff 	mov    -0x1168(%rbp),%rax
    8e6b:	48 8d 95 c0 ee ff ff 	lea    -0x1140(%rbp),%rdx
    8e72:	48 83 c2 04          	add    $0x4,%rdx
    8e76:	48 89 10             	mov    %rdx,(%rax)
    8e79:	48 8b 85 98 ee ff ff 	mov    -0x1168(%rbp),%rax
    8e80:	48 8b 10             	mov    (%rax),%rdx
    8e83:	48 8d 85 7c ed ff ff 	lea    -0x1284(%rbp),%rax
    8e8a:	48 39 c2             	cmp    %rax,%rdx
    8e8d:	0f 94 c0             	sete   %al
    8e90:	0f b6 d0             	movzbl %al,%edx
    8e93:	48 8b 05 c6 84 00 00 	mov    0x84c6(%rip),%rax        # 11360 <g_178>
    8e9a:	48 89 05 bf 84 00 00 	mov    %rax,0x84bf(%rip)        # 11360 <g_178>
    8ea1:	48 8b 05 b8 84 00 00 	mov    0x84b8(%rip),%rax        # 11360 <g_178>
    8ea8:	48 39 c2             	cmp    %rax,%rdx
    8eab:	0f 9e c0             	setle  %al
    8eae:	44 0f b6 e8          	movzbl %al,%r13d
    8eb2:	0f b7 85 bc ee ff ff 	movzwl -0x1144(%rbp),%eax
    8eb9:	0f bf d0             	movswl %ax,%edx
    8ebc:	48 8b 85 e0 ee ff ff 	mov    -0x1120(%rbp),%rax
    8ec3:	48 85 c0             	test   %rax,%rax
    8ec6:	0f 95 c0             	setne  %al
    8ec9:	0f b6 c0             	movzbl %al,%eax
    8ecc:	89 d6                	mov    %edx,%esi
    8ece:	89 c7                	mov    %eax,%edi
    8ed0:	e8 55 c6 ff ff       	callq  552a <safe_rshift_func_int16_t_s_s>
    8ed5:	0f b6 c0             	movzbl %al,%eax
    8ed8:	be 00 00 00 00       	mov    $0x0,%esi
    8edd:	89 c7                	mov    %eax,%edi
    8edf:	e8 68 cd ff ff       	callq  5c4c <safe_lshift_func_uint8_t_u_u>
    8ee4:	84 c0                	test   %al,%al
    8ee6:	74 11                	je     8ef9 <func_36+0x1222>
    8ee8:	8b 85 5c ef ff ff    	mov    -0x10a4(%rbp),%eax
    8eee:	85 c0                	test   %eax,%eax
    8ef0:	74 07                	je     8ef9 <func_36+0x1222>
    8ef2:	b8 01 00 00 00       	mov    $0x1,%eax
    8ef7:	eb 05                	jmp    8efe <func_36+0x1227>
    8ef9:	b8 00 00 00 00       	mov    $0x0,%eax
    8efe:	0b 85 a8 ed ff ff    	or     -0x1258(%rbp),%eax
    8f04:	89 c2                	mov    %eax,%edx
    8f06:	48 8b 85 00 ee ff ff 	mov    -0x1200(%rbp),%rax
    8f0d:	89 10                	mov    %edx,(%rax)
    8f0f:	8b 85 a8 ed ff ff    	mov    -0x1258(%rbp),%eax
    8f15:	0f b6 d0             	movzbl %al,%edx
    8f18:	0f b6 05 51 84 00 00 	movzbl 0x8451(%rip),%eax        # 11370 <g_195>
    8f1f:	83 c0 01             	add    $0x1,%eax
    8f22:	88 05 48 84 00 00    	mov    %al,0x8448(%rip)        # 11370 <g_195>
    8f28:	0f b6 05 41 84 00 00 	movzbl 0x8441(%rip),%eax        # 11370 <g_195>
    8f2f:	0f b6 c0             	movzbl %al,%eax
    8f32:	89 d6                	mov    %edx,%esi
    8f34:	89 c7                	mov    %eax,%edi
    8f36:	e8 73 cc ff ff       	callq  5bae <safe_mod_func_uint8_t_u_u>
    8f3b:	0f b6 c0             	movzbl %al,%eax
    8f3e:	48 89 05 23 84 00 00 	mov    %rax,0x8423(%rip)        # 11368 <g_180>
    8f45:	48 8b 05 1c 84 00 00 	mov    0x841c(%rip),%rax        # 11368 <g_180>
    8f4c:	49 39 c5             	cmp    %rax,%r13
    8f4f:	0f 96 c0             	setbe  %al
    8f52:	0f b6 d0             	movzbl %al,%edx
    8f55:	8b 85 64 ed ff ff    	mov    -0x129c(%rbp),%eax
    8f5b:	39 c2                	cmp    %eax,%edx
    8f5d:	0f 92 c0             	setb   %al
    8f60:	0f b6 c0             	movzbl %al,%eax
    8f63:	41 39 c4             	cmp    %eax,%r12d
    8f66:	0f 9e c0             	setle  %al
    8f69:	0f b6 c0             	movzbl %al,%eax
    8f6c:	4c 89 f6             	mov    %r14,%rsi
    8f6f:	48 89 c7             	mov    %rax,%rdi
    8f72:	e8 09 d1 ff ff       	callq  6080 <safe_mod_func_uint64_t_u_u>
    8f77:	89 de                	mov    %ebx,%esi
    8f79:	89 c7                	mov    %eax,%edi
    8f7b:	e8 a5 cf ff ff       	callq  5f25 <safe_div_func_uint32_t_u_u>
    8f80:	c7 85 00 fc ff ff f9 	movl   $0xfffffff9,-0x400(%rbp)
    8f87:	ff ff ff 
    8f8a:	e9 66 09 00 00       	jmpq   98f5 <func_36+0x1c1e>
    8f8f:	48 8d 85 f0 f3 ff ff 	lea    -0xc10(%rbp),%rax
    8f96:	48 8d 15 03 a7 00 00 	lea    0xa703(%rip),%rdx        # 136a0 <g_1030+0x1400>
    8f9d:	b9 38 00 00 00       	mov    $0x38,%ecx
    8fa2:	48 89 c7             	mov    %rax,%rdi
    8fa5:	48 89 d6             	mov    %rdx,%rsi
    8fa8:	f3 48 a5             	rep movsq %ds:(%rsi),%es:(%rdi)
    8fab:	48 8d 05 b6 83 00 00 	lea    0x83b6(%rip),%rax        # 11368 <g_180>
    8fb2:	48 89 85 28 ee ff ff 	mov    %rax,-0x11d8(%rbp)
    8fb9:	c7 85 80 ed ff ff 2d 	movl   $0xc0d00f2d,-0x1280(%rbp)
    8fc0:	0f d0 c0 
    8fc3:	c7 85 ac ed ff ff 40 	movl   $0x9ab42340,-0x1254(%rbp)
    8fca:	23 b4 9a 
    8fcd:	c7 85 60 ef ff ff ff 	movl   $0xffffffff,-0x10a0(%rbp)
    8fd4:	ff ff ff 
    8fd7:	c7 85 64 ef ff ff 4f 	movl   $0xcd55914f,-0x109c(%rbp)
    8fde:	91 55 cd 
    8fe1:	c7 85 68 ef ff ff ff 	movl   $0xffffffff,-0x1098(%rbp)
    8fe8:	ff ff ff 
    8feb:	c7 85 6c ef ff ff 4f 	movl   $0xcd55914f,-0x1094(%rbp)
    8ff2:	91 55 cd 
    8ff5:	c7 85 70 ef ff ff ff 	movl   $0xffffffff,-0x1090(%rbp)
    8ffc:	ff ff ff 
    8fff:	c7 85 74 ef ff ff 4f 	movl   $0xcd55914f,-0x108c(%rbp)
    9006:	91 55 cd 
    9009:	c7 85 78 ef ff ff ff 	movl   $0xffffffff,-0x1088(%rbp)
    9010:	ff ff ff 
    9013:	c7 85 7c ef ff ff 4f 	movl   $0xcd55914f,-0x1084(%rbp)
    901a:	91 55 cd 
    901d:	c7 85 80 ef ff ff ff 	movl   $0xffffffff,-0x1080(%rbp)
    9024:	ff ff ff 
    9027:	c7 85 84 ef ff ff 4f 	movl   $0xcd55914f,-0x107c(%rbp)
    902e:	91 55 cd 
    9031:	c7 85 88 ef ff ff ff 	movl   $0xffffffff,-0x1078(%rbp)
    9038:	ff ff ff 
    903b:	c7 85 8c ef ff ff 4f 	movl   $0xcd55914f,-0x1074(%rbp)
    9042:	91 55 cd 
    9045:	c7 85 90 ef ff ff ff 	movl   $0xffffffff,-0x1070(%rbp)
    904c:	ff ff ff 
    904f:	c7 85 94 ef ff ff 4f 	movl   $0xcd55914f,-0x106c(%rbp)
    9056:	91 55 cd 
    9059:	c7 85 98 ef ff ff ff 	movl   $0xffffffff,-0x1068(%rbp)
    9060:	ff ff ff 
    9063:	c7 85 9c ef ff ff 4f 	movl   $0xcd55914f,-0x1064(%rbp)
    906a:	91 55 cd 
    906d:	48 c7 85 30 ee ff ff 	movq   $0x0,-0x11d0(%rbp)
    9074:	00 00 00 00 
    9078:	48 8d 85 28 ee ff ff 	lea    -0x11d8(%rbp),%rax
    907f:	48 89 85 48 ee ff ff 	mov    %rax,-0x11b8(%rbp)
    9086:	c7 85 94 ed ff ff 00 	movl   $0x0,-0x126c(%rbp)
    908d:	00 00 00 
    9090:	eb 4a                	jmp    90dc <func_36+0x1405>
    9092:	c7 85 98 ed ff ff 00 	movl   $0x0,-0x1268(%rbp)
    9099:	00 00 00 
    909c:	eb 2e                	jmp    90cc <func_36+0x13f5>
    909e:	8b 85 98 ed ff ff    	mov    -0x1268(%rbp),%eax
    90a4:	48 98                	cltq   
    90a6:	8b 95 94 ed ff ff    	mov    -0x126c(%rbp),%edx
    90ac:	48 63 d2             	movslq %edx,%rdx
    90af:	48 01 d2             	add    %rdx,%rdx
    90b2:	48 8d 5d d0          	lea    -0x30(%rbp),%rbx
    90b6:	48 01 da             	add    %rbx,%rdx
    90b9:	48 01 d0             	add    %rdx,%rax
    90bc:	48 2d 16 11 00 00    	sub    $0x1116,%rax
    90c2:	c6 00 07             	movb   $0x7,(%rax)
    90c5:	83 85 98 ed ff ff 01 	addl   $0x1,-0x1268(%rbp)
    90cc:	83 bd 98 ed ff ff 01 	cmpl   $0x1,-0x1268(%rbp)
    90d3:	7e c9                	jle    909e <func_36+0x13c7>
    90d5:	83 85 94 ed ff ff 01 	addl   $0x1,-0x126c(%rbp)
    90dc:	83 bd 94 ed ff ff 00 	cmpl   $0x0,-0x126c(%rbp)
    90e3:	7e ad                	jle    9092 <func_36+0x13bb>
    90e5:	c7 05 a1 8c 00 00 00 	movl   $0x0,0x8ca1(%rip)        # 11d90 <g_400>
    90ec:	00 00 00 
    90ef:	e9 40 02 00 00       	jmpq   9334 <func_36+0x165d>
    90f4:	c7 85 a0 ef ff ff 0e 	movl   $0xf5ac9c0e,-0x1060(%rbp)
    90fb:	9c ac f5 
    90fe:	c7 85 a4 ef ff ff 01 	movl   $0x1,-0x105c(%rbp)
    9105:	00 00 00 
    9108:	c7 85 a8 ef ff ff 08 	movl   $0x8,-0x1058(%rbp)
    910f:	00 00 00 
    9112:	c7 85 ac ef ff ff 01 	movl   $0x1,-0x1054(%rbp)
    9119:	00 00 00 
    911c:	c7 85 b0 ef ff ff 0e 	movl   $0xf5ac9c0e,-0x1050(%rbp)
    9123:	9c ac f5 
    9126:	c7 85 b4 ef ff ff 01 	movl   $0x1,-0x104c(%rbp)
    912d:	00 00 00 
    9130:	c7 85 b8 ef ff ff 08 	movl   $0x8,-0x1048(%rbp)
    9137:	00 00 00 
    913a:	c7 85 bc ef ff ff 01 	movl   $0x1,-0x1044(%rbp)
    9141:	00 00 00 
    9144:	c7 85 c0 ef ff ff 0e 	movl   $0xf5ac9c0e,-0x1040(%rbp)
    914b:	9c ac f5 
    914e:	c7 85 c4 ef ff ff 01 	movl   $0x1,-0x103c(%rbp)
    9155:	00 00 00 
    9158:	c7 85 c8 ef ff ff 08 	movl   $0x8,-0x1038(%rbp)
    915f:	00 00 00 
    9162:	c7 85 cc ef ff ff 01 	movl   $0x1,-0x1034(%rbp)
    9169:	00 00 00 
    916c:	c7 85 d0 ef ff ff 0e 	movl   $0xf5ac9c0e,-0x1030(%rbp)
    9173:	9c ac f5 
    9176:	c7 85 d4 ef ff ff 01 	movl   $0x1,-0x102c(%rbp)
    917d:	00 00 00 
    9180:	c7 85 d8 ef ff ff 08 	movl   $0x8,-0x1028(%rbp)
    9187:	00 00 00 
    918a:	c7 85 dc ef ff ff 01 	movl   $0x1,-0x1024(%rbp)
    9191:	00 00 00 
    9194:	c7 85 e0 ef ff ff 0e 	movl   $0xf5ac9c0e,-0x1020(%rbp)
    919b:	9c ac f5 
    919e:	c7 85 e4 ef ff ff 01 	movl   $0x1,-0x101c(%rbp)
    91a5:	00 00 00 
    91a8:	c7 85 e8 ef ff ff 08 	movl   $0x8,-0x1018(%rbp)
    91af:	00 00 00 
    91b2:	c7 85 ec ef ff ff 01 	movl   $0x1,-0x1014(%rbp)
    91b9:	00 00 00 
    91bc:	c7 85 cc ed ff ff ee 	movl   $0x421a43ee,-0x1234(%rbp)
    91c3:	43 1a 42 
    91c6:	c7 85 d0 ed ff ff 00 	movl   $0x0,-0x1230(%rbp)
    91cd:	00 00 00 
    91d0:	c7 85 d4 ed ff ff 01 	movl   $0x1,-0x122c(%rbp)
    91d7:	00 00 00 
    91da:	c7 85 d8 ed ff ff 09 	movl   $0x9,-0x1228(%rbp)
    91e1:	00 00 00 
    91e4:	c6 05 85 81 00 00 1a 	movb   $0x1a,0x8185(%rip)        # 11370 <g_195>
    91eb:	e9 1d 01 00 00       	jmpq   930d <func_36+0x1636>
    91f0:	48 8d 05 2b 80 00 00 	lea    0x802b(%rip),%rax        # 11222 <g_111>
    91f7:	48 89 85 38 ee ff ff 	mov    %rax,-0x11c8(%rbp)
    91fe:	48 8d 85 38 ee ff ff 	lea    -0x11c8(%rbp),%rax
    9205:	48 89 85 70 ee ff ff 	mov    %rax,-0x1190(%rbp)
    920c:	48 8d 85 b0 f5 ff ff 	lea    -0xa50(%rbp),%rax
    9213:	48 05 b8 01 00 00    	add    $0x1b8,%rax
    9219:	48 89 85 78 ee ff ff 	mov    %rax,-0x1188(%rbp)
    9220:	c7 85 dc ed ff ff 01 	movl   $0x1,-0x1224(%rbp)
    9227:	00 00 00 
    922a:	c7 85 e0 ed ff ff 31 	movl   $0xadcc1531,-0x1220(%rbp)
    9231:	15 cc ad 
    9234:	c7 85 e4 ed ff ff ff 	movl   $0xffffffff,-0x121c(%rbp)
    923b:	ff ff ff 
    923e:	c7 85 e8 ed ff ff 13 	movl   $0xe49dd013,-0x1218(%rbp)
    9245:	d0 9d e4 
    9248:	c7 85 ec ed ff ff af 	movl   $0x5dce6af,-0x1214(%rbp)
    924f:	e6 dc 05 
    9252:	c7 85 f0 ed ff ff 09 	movl   $0x9,-0x1210(%rbp)
    9259:	00 00 00 
    925c:	48 8b 85 00 ee ff ff 	mov    -0x1200(%rbp),%rax
    9263:	c7 00 00 00 00 00    	movl   $0x0,(%rax)
    9269:	83 85 84 ed ff ff 01 	addl   $0x1,-0x127c(%rbp)
    9270:	0f b7 05 3f 8b 00 00 	movzwl 0x8b3f(%rip),%eax        # 11db6 <g_463+0x6>
    9277:	83 e8 01             	sub    $0x1,%eax
    927a:	66 89 05 35 8b 00 00 	mov    %ax,0x8b35(%rip)        # 11db6 <g_463+0x6>
    9281:	48 8b 85 28 ee ff ff 	mov    -0x11d8(%rbp),%rax
    9288:	48 8b 10             	mov    (%rax),%rdx
    928b:	48 83 ea 01          	sub    $0x1,%rdx
    928f:	48 89 10             	mov    %rdx,(%rax)
    9292:	48 b8 5a 8f 67 3b db 	movabs $0xe6c67adb3b678f5a,%rax
    9299:	7a c6 e6 
    929c:	48 89 85 80 ee ff ff 	mov    %rax,-0x1180(%rbp)
    92a3:	48 8d 85 d0 fb ff ff 	lea    -0x430(%rbp),%rax
    92aa:	48 8d 15 8f 49 00 00 	lea    0x498f(%rip),%rdx        # dc40 <g_59+0xbeb>
    92b1:	b9 7e 00 00 00       	mov    $0x7e,%ecx
    92b6:	48 89 c7             	mov    %rax,%rdi
    92b9:	48 89 d6             	mov    %rdx,%rsi
    92bc:	f3 48 a5             	rep movsq %ds:(%rsi),%es:(%rdi)
    92bf:	8b 85 64 ed ff ff    	mov    -0x129c(%rbp),%eax
    92c5:	89 c0                	mov    %eax,%eax
    92c7:	48 39 85 80 ee ff ff 	cmp    %rax,-0x1180(%rbp)
    92ce:	0f 95 c2             	setne  %dl
    92d1:	48 8b 05 a0 a6 00 00 	mov    0xa6a0(%rip),%rax        # 13978 <g_146>
    92d8:	0f b6 d2             	movzbl %dl,%edx
    92db:	89 10                	mov    %edx,(%rax)
    92dd:	48 83 bd 80 ee ff ff 	cmpq   $0x0,-0x1180(%rbp)
    92e4:	00 
    92e5:	75 35                	jne    931c <func_36+0x1645>
    92e7:	8b 85 44 ff ff ff    	mov    -0xbc(%rbp),%eax
    92ed:	89 c2                	mov    %eax,%edx
    92ef:	8b 85 64 ed ff ff    	mov    -0x129c(%rbp),%eax
    92f5:	31 d0                	xor    %edx,%eax
    92f7:	89 85 44 ff ff ff    	mov    %eax,-0xbc(%rbp)
    92fd:	0f b6 05 6c 80 00 00 	movzbl 0x806c(%rip),%eax        # 11370 <g_195>
    9304:	83 e8 01             	sub    $0x1,%eax
    9307:	88 05 63 80 00 00    	mov    %al,0x8063(%rip)        # 11370 <g_195>
    930d:	0f b6 05 5c 80 00 00 	movzbl 0x805c(%rip),%eax        # 11370 <g_195>
    9314:	3c 05                	cmp    $0x5,%al
    9316:	0f 85 d4 fe ff ff    	jne    91f0 <func_36+0x1519>
    931c:	8b 05 6e 8a 00 00    	mov    0x8a6e(%rip),%eax        # 11d90 <g_400>
    9322:	be 03 00 00 00       	mov    $0x3,%esi
    9327:	89 c7                	mov    %eax,%edi
    9329:	e8 d7 c2 ff ff       	callq  5605 <safe_sub_func_int32_t_s_s>
    932e:	89 05 5c 8a 00 00    	mov    %eax,0x8a5c(%rip)        # 11d90 <g_400>
    9334:	8b 05 56 8a 00 00    	mov    0x8a56(%rip),%eax        # 11d90 <g_400>
    933a:	83 f8 ea             	cmp    $0xffffffea,%eax
    933d:	0f 8c b1 fd ff ff    	jl     90f4 <func_36+0x141d>
    9343:	c7 85 84 ed ff ff 00 	movl   $0x0,-0x127c(%rbp)
    934a:	00 00 00 
    934d:	e9 82 05 00 00       	jmpq   98d4 <func_36+0x1bfd>
    9352:	c6 85 76 ed ff ff 5b 	movb   $0x5b,-0x128a(%rbp)
    9359:	48 8d 05 30 a6 00 00 	lea    0xa630(%rip),%rax        # 13990 <g_551>
    9360:	48 89 85 50 ee ff ff 	mov    %rax,-0x11b0(%rbp)
    9367:	48 c7 05 de 7c 00 00 	movq   $0x1,0x7cde(%rip)        # 11050 <g_61+0x10>
    936e:	01 00 00 00 
    9372:	e9 40 05 00 00       	jmpq   98b7 <func_36+0x1be0>
    9377:	c7 85 b0 ed ff ff fb 	movl   $0xfffffffb,-0x1250(%rbp)
    937e:	ff ff ff 
    9381:	c7 85 b4 ed ff ff ee 	movl   $0xb50ba4ee,-0x124c(%rbp)
    9388:	a4 0b b5 
    938b:	c7 85 b8 ed ff ff ff 	movl   $0xffffffff,-0x1248(%rbp)
    9392:	ff ff ff 
    9395:	8b 05 e9 7f 00 00    	mov    0x7fe9(%rip),%eax        # 11384 <g_208+0x4>
    939b:	80 bd 76 ed ff ff 01 	cmpb   $0x1,-0x128a(%rbp)
    93a2:	77 07                	ja     93ab <func_36+0x16d4>
    93a4:	ba 13 00 00 00       	mov    $0x13,%edx
    93a9:	eb 05                	jmp    93b0 <func_36+0x16d9>
    93ab:	ba 12 00 00 00       	mov    $0x12,%edx
    93b0:	b8 cd ff ff ff       	mov    $0xffffffcd,%eax
    93b5:	0f be c0             	movsbl %al,%eax
    93b8:	89 85 b0 ed ff ff    	mov    %eax,-0x1250(%rbp)
    93be:	8b 85 b0 ed ff ff    	mov    -0x1250(%rbp),%eax
    93c4:	48 98                	cltq   
    93c6:	48 09 c2             	or     %rax,%rdx
    93c9:	0f b7 05 8a 7f 00 00 	movzwl 0x7f8a(%rip),%eax        # 1135a <g_175+0x2>
    93d0:	66 85 c0             	test   %ax,%ax
    93d3:	74 11                	je     93e6 <func_36+0x170f>
    93d5:	8b 85 64 ed ff ff    	mov    -0x129c(%rbp),%eax
    93db:	85 c0                	test   %eax,%eax
    93dd:	74 07                	je     93e6 <func_36+0x170f>
    93df:	b8 01 00 00 00       	mov    $0x1,%eax
    93e4:	eb 05                	jmp    93eb <func_36+0x1714>
    93e6:	b8 00 00 00 00       	mov    $0x0,%eax
    93eb:	3b 85 b4 ed ff ff    	cmp    -0x124c(%rbp),%eax
    93f1:	0f 9c c0             	setl   %al
    93f4:	0f b6 c0             	movzbl %al,%eax
    93f7:	48 39 c2             	cmp    %rax,%rdx
    93fa:	75 07                	jne    9403 <func_36+0x172c>
    93fc:	80 bd 76 ed ff ff 00 	cmpb   $0x0,-0x128a(%rbp)
    9403:	8b 85 b4 ed ff ff    	mov    -0x124c(%rbp),%eax
    9409:	89 c6                	mov    %eax,%esi
    940b:	bf d8 cf 1d 1b       	mov    $0x1b1dcfd8,%edi
    9410:	e8 a1 c1 ff ff       	callq  55b6 <safe_add_func_int32_t_s_s>
    9415:	09 85 b8 ed ff ff    	or     %eax,-0x1248(%rbp)
    941b:	8b 85 64 ed ff ff    	mov    -0x129c(%rbp),%eax
    9421:	85 c0                	test   %eax,%eax
    9423:	74 26                	je     944b <func_36+0x1774>
    9425:	48 8b 05 3c ae 00 00 	mov    0xae3c(%rip),%rax        # 14268 <g_106>
    942c:	8b 15 5a 87 00 00    	mov    0x875a(%rip),%edx        # 11b8c <g_352+0x1ec>
    9432:	8b 85 ac ed ff ff    	mov    -0x1254(%rbp),%eax
    9438:	09 c2                	or     %eax,%edx
    943a:	8b 85 64 ed ff ff    	mov    -0x129c(%rbp),%eax
    9440:	39 c2                	cmp    %eax,%edx
    9442:	72 07                	jb     944b <func_36+0x1774>
    9444:	b8 01 00 00 00       	mov    $0x1,%eax
    9449:	eb 05                	jmp    9450 <func_36+0x1779>
    944b:	b8 00 00 00 00       	mov    $0x0,%eax
    9450:	48 63 d0             	movslq %eax,%rdx
    9453:	48 8b 05 06 7f 00 00 	mov    0x7f06(%rip),%rax        # 11360 <g_178>
    945a:	48 39 c2             	cmp    %rax,%rdx
    945d:	8b 85 64 ed ff ff    	mov    -0x129c(%rbp),%eax
    9463:	0f b6 d8             	movzbl %al,%ebx
    9466:	8b 85 64 ed ff ff    	mov    -0x129c(%rbp),%eax
    946c:	44 0f b7 e0          	movzwl %ax,%r12d
    9470:	0f b7 05 ab 7d 00 00 	movzwl 0x7dab(%rip),%eax        # 11222 <g_111>
    9477:	0f b7 d0             	movzwl %ax,%edx
    947a:	48 8b 85 18 ee ff ff 	mov    -0x11e8(%rbp),%rax
    9481:	48 39 c2             	cmp    %rax,%rdx
    9484:	0f 9e c0             	setle  %al
    9487:	0f b6 c0             	movzbl %al,%eax
    948a:	be ad ff ff ff       	mov    $0xffffffad,%esi
    948f:	89 c7                	mov    %eax,%edi
    9491:	e8 7c bd ff ff       	callq  5212 <safe_mul_func_int8_t_s_s>
    9496:	0f b6 c0             	movzbl %al,%eax
    9499:	be 25 00 00 00       	mov    $0x25,%esi
    949e:	89 c7                	mov    %eax,%edi
    94a0:	e8 d3 c6 ff ff       	callq  5b78 <safe_sub_func_uint8_t_u_u>
    94a5:	0f b6 c0             	movzbl %al,%eax
    94a8:	89 85 4c ef ff ff    	mov    %eax,-0x10b4(%rbp)
    94ae:	8b 85 4c ef ff ff    	mov    -0x10b4(%rbp),%eax
    94b4:	39 85 b4 ed ff ff    	cmp    %eax,-0x124c(%rbp)
    94ba:	0f 95 c0             	setne  %al
    94bd:	0f b6 d0             	movzbl %al,%edx
    94c0:	48 8b 05 c1 84 00 00 	mov    0x84c1(%rip),%rax        # 11988 <g_325>
    94c7:	48 31 c2             	xor    %rax,%rdx
    94ca:	48 0f bf 85 78 ed ff 	movswq -0x1288(%rbp),%rax
    94d1:	ff 
    94d2:	48 39 c2             	cmp    %rax,%rdx
    94d5:	0f 9d c0             	setge  %al
    94d8:	0f b6 c0             	movzbl %al,%eax
    94db:	44 89 e6             	mov    %r12d,%esi
    94de:	89 c7                	mov    %eax,%edi
    94e0:	e8 3a c8 ff ff       	callq  5d1f <safe_sub_func_uint16_t_u_u>
    94e5:	66 85 c0             	test   %ax,%ax
    94e8:	0f 94 c0             	sete   %al
    94eb:	0f b6 c0             	movzbl %al,%eax
    94ee:	39 85 b4 ed ff ff    	cmp    %eax,-0x124c(%rbp)
    94f4:	0f 94 c0             	sete   %al
    94f7:	0f b6 c0             	movzbl %al,%eax
    94fa:	8b 95 64 ed ff ff    	mov    -0x129c(%rbp),%edx
    9500:	89 c6                	mov    %eax,%esi
    9502:	89 d7                	mov    %edx,%edi
    9504:	e8 ad c0 ff ff       	callq  55b6 <safe_add_func_int32_t_s_s>
    9509:	89 c2                	mov    %eax,%edx
    950b:	8b 05 1f 7b 00 00    	mov    0x7b1f(%rip),%eax        # 11030 <g_30>
    9511:	09 c2                	or     %eax,%edx
    9513:	b8 cd ff ff ff       	mov    $0xffffffcd,%eax
    9518:	21 d0                	and    %edx,%eax
    951a:	0f b6 c0             	movzbl %al,%eax
    951d:	89 de                	mov    %ebx,%esi
    951f:	89 c7                	mov    %eax,%edi
    9521:	e8 6d c6 ff ff       	callq  5b93 <safe_mul_func_uint8_t_u_u>
    9526:	89 c2                	mov    %eax,%edx
    9528:	48 8b 05 39 a3 00 00 	mov    0xa339(%rip),%rax        # 13868 <g_121>
    952f:	0f b6 08             	movzbl (%rax),%ecx
    9532:	48 8b 05 2f a3 00 00 	mov    0xa32f(%rip),%rax        # 13868 <g_121>
    9539:	09 ca                	or     %ecx,%edx
    953b:	88 10                	mov    %dl,(%rax)
    953d:	0f b6 00             	movzbl (%rax),%eax
    9540:	84 c0                	test   %al,%al
    9542:	0f b7 05 3d 7c 00 00 	movzwl 0x7c3d(%rip),%eax        # 11186 <g_99+0x126>
    9549:	0f bf d0             	movswl %ax,%edx
    954c:	8b 85 64 ed ff ff    	mov    -0x129c(%rbp),%eax
    9552:	39 c2                	cmp    %eax,%edx
    9554:	0f 96 c0             	setbe  %al
    9557:	0f b6 c0             	movzbl %al,%eax
    955a:	89 85 90 ef ff ff    	mov    %eax,-0x1070(%rbp)
    9560:	8b 85 90 ef ff ff    	mov    -0x1070(%rbp),%eax
    9566:	48 63 d0             	movslq %eax,%rdx
    9569:	48 8b 05 f8 7d 00 00 	mov    0x7df8(%rip),%rax        # 11368 <g_180>
    9570:	48 39 c2             	cmp    %rax,%rdx
    9573:	0f 97 c2             	seta   %dl
    9576:	48 8b 85 00 ee ff ff 	mov    -0x1200(%rbp),%rax
    957d:	0f b6 d2             	movzbl %dl,%edx
    9580:	89 10                	mov    %edx,(%rax)
    9582:	8b 00                	mov    (%rax),%eax
    9584:	98                   	cwtl   
    9585:	be cf c2 ff ff       	mov    $0xffffc2cf,%esi
    958a:	89 c7                	mov    %eax,%edi
    958c:	e8 42 be ff ff       	callq  53d3 <safe_sub_func_int16_t_s_s>
    9591:	be f8 ff ff ff       	mov    $0xfffffff8,%esi
    9596:	bf 00 00 00 00       	mov    $0x0,%edi
    959b:	e8 55 be ff ff       	callq  53f5 <safe_mul_func_int16_t_s_s>
    95a0:	66 85 c0             	test   %ax,%ax
    95a3:	74 73                	je     9618 <func_36+0x1941>
    95a5:	c7 85 bc ed ff ff 98 	movl   $0x6830fe98,-0x1244(%rbp)
    95ac:	fe 30 68 
    95af:	48 8d 85 80 ed ff ff 	lea    -0x1280(%rbp),%rax
    95b6:	48 89 85 60 ee ff ff 	mov    %rax,-0x11a0(%rbp)
    95bd:	48 8d 05 b4 a3 00 00 	lea    0xa3b4(%rip),%rax        # 13978 <g_146>
    95c4:	48 89 85 68 ee ff ff 	mov    %rax,-0x1198(%rbp)
    95cb:	c7 85 c0 ed ff ff aa 	movl   $0x86e398aa,-0x1240(%rbp)
    95d2:	98 e3 86 
    95d5:	c7 85 c4 ed ff ff 09 	movl   $0x9,-0x123c(%rbp)
    95dc:	00 00 00 
    95df:	c7 85 c8 ed ff ff 81 	movl   $0xd3f69381,-0x1238(%rbp)
    95e6:	93 f6 d3 
    95e9:	83 ad bc ed ff ff 01 	subl   $0x1,-0x1244(%rbp)
    95f0:	48 8b 85 68 ee ff ff 	mov    -0x1198(%rbp),%rax
    95f7:	48 8b 95 60 ee ff ff 	mov    -0x11a0(%rbp),%rdx
    95fe:	48 89 10             	mov    %rdx,(%rax)
    9601:	48 8b 85 18 f0 ff ff 	mov    -0xfe8(%rbp),%rax
    9608:	48 83 e8 01          	sub    $0x1,%rax
    960c:	48 89 85 18 f0 ff ff 	mov    %rax,-0xfe8(%rbp)
    9613:	e9 7a 02 00 00       	jmpq   9892 <func_36+0x1bbb>
    9618:	48 b8 6e cb 0e 45 56 	movabs $0x16652b56450ecb6e,%rax
    961f:	2b 65 16 
    9622:	48 89 85 58 ee ff ff 	mov    %rax,-0x11a8(%rbp)
    9629:	48 c7 85 38 ee ff ff 	movq   $0x0,-0x11c8(%rbp)
    9630:	00 00 00 00 
    9634:	48 8d 85 38 ee ff ff 	lea    -0x11c8(%rbp),%rax
    963b:	48 89 85 d0 fb ff ff 	mov    %rax,-0x430(%rbp)
    9642:	48 8d 85 38 ee ff ff 	lea    -0x11c8(%rbp),%rax
    9649:	48 89 85 d8 fb ff ff 	mov    %rax,-0x428(%rbp)
    9650:	48 8d 85 38 ee ff ff 	lea    -0x11c8(%rbp),%rax
    9657:	48 89 85 e0 fb ff ff 	mov    %rax,-0x420(%rbp)
    965e:	48 8d 85 38 ee ff ff 	lea    -0x11c8(%rbp),%rax
    9665:	48 89 85 e8 fb ff ff 	mov    %rax,-0x418(%rbp)
    966c:	8b 85 64 ed ff ff    	mov    -0x129c(%rbp),%eax
    9672:	0f b7 d8             	movzwl %ax,%ebx
    9675:	44 8b a5 64 ed ff ff 	mov    -0x129c(%rbp),%r12d
    967c:	44 0f b6 ad 76 ed ff 	movzbl -0x128a(%rbp),%r13d
    9683:	ff 
    9684:	8b 85 64 ed ff ff    	mov    -0x129c(%rbp),%eax
    968a:	0f bf d0             	movswl %ax,%edx
    968d:	48 8b 05 bc 7c 00 00 	mov    0x7cbc(%rip),%rax        # 11350 <g_165>
    9694:	98                   	cwtl   
    9695:	89 d6                	mov    %edx,%esi
    9697:	89 c7                	mov    %eax,%edi
    9699:	e8 57 bd ff ff       	callq  53f5 <safe_mul_func_int16_t_s_s>
    969e:	8b 85 64 ed ff ff    	mov    -0x129c(%rbp),%eax
    96a4:	44 0f b6 f0          	movzbl %al,%r14d
    96a8:	8b 05 de 84 00 00    	mov    0x84de(%rip),%eax        # 11b8c <g_352+0x1ec>
    96ae:	83 c0 01             	add    $0x1,%eax
    96b1:	89 05 d5 84 00 00    	mov    %eax,0x84d5(%rip)        # 11b8c <g_352+0x1ec>
    96b7:	44 8b 3d ce 84 00 00 	mov    0x84ce(%rip),%r15d        # 11b8c <g_352+0x1ec>
    96be:	8b 05 cc 86 00 00    	mov    0x86cc(%rip),%eax        # 11d90 <g_400>
    96c4:	85 c0                	test   %eax,%eax
    96c6:	74 27                	je     96ef <func_36+0x1a18>
    96c8:	8b 85 64 ed ff ff    	mov    -0x129c(%rbp),%eax
    96ce:	89 c2                	mov    %eax,%edx
    96d0:	8b 85 64 ed ff ff    	mov    -0x129c(%rbp),%eax
    96d6:	89 c0                	mov    %eax,%eax
    96d8:	48 89 d6             	mov    %rdx,%rsi
    96db:	48 89 c7             	mov    %rax,%rdi
    96de:	e8 4b c9 ff ff       	callq  602e <safe_add_func_uint64_t_u_u>
    96e3:	48 85 c0             	test   %rax,%rax
    96e6:	74 07                	je     96ef <func_36+0x1a18>
    96e8:	b8 01 00 00 00       	mov    $0x1,%eax
    96ed:	eb 05                	jmp    96f4 <func_36+0x1a1d>
    96ef:	b8 00 00 00 00       	mov    $0x0,%eax
    96f4:	44 09 f8             	or     %r15d,%eax
    96f7:	85 c0                	test   %eax,%eax
    96f9:	75 0a                	jne    9705 <func_36+0x1a2e>
    96fb:	8b 05 8f 86 00 00    	mov    0x868f(%rip),%eax        # 11d90 <g_400>
    9701:	85 c0                	test   %eax,%eax
    9703:	74 07                	je     970c <func_36+0x1a35>
    9705:	b8 01 00 00 00       	mov    $0x1,%eax
    970a:	eb 05                	jmp    9711 <func_36+0x1a3a>
    970c:	b8 00 00 00 00       	mov    $0x0,%eax
    9711:	89 c2                	mov    %eax,%edx
    9713:	8b 85 64 ed ff ff    	mov    -0x129c(%rbp),%eax
    9719:	39 c2                	cmp    %eax,%edx
    971b:	0f 92 c0             	setb   %al
    971e:	0f b6 d0             	movzbl %al,%edx
    9721:	8b 85 64 ed ff ff    	mov    -0x129c(%rbp),%eax
    9727:	39 c2                	cmp    %eax,%edx
    9729:	0f 96 c0             	setbe  %al
    972c:	0f b6 c0             	movzbl %al,%eax
    972f:	44 89 f6             	mov    %r14d,%esi
    9732:	89 c7                	mov    %eax,%edi
    9734:	e8 75 c4 ff ff       	callq  5bae <safe_mod_func_uint8_t_u_u>
    9739:	89 c2                	mov    %eax,%edx
    973b:	48 8b 05 26 a1 00 00 	mov    0xa126(%rip),%rax        # 13868 <g_121>
    9742:	88 10                	mov    %dl,(%rax)
    9744:	0f b6 00             	movzbl (%rax),%eax
    9747:	0f be d0             	movsbl %al,%edx
    974a:	48 8b 85 58 ee ff ff 	mov    -0x11a8(%rbp),%rax
    9751:	89 85 80 ed ff ff    	mov    %eax,-0x1280(%rbp)
    9757:	8b 85 80 ed ff ff    	mov    -0x1280(%rbp),%eax
    975d:	0f b6 c0             	movzbl %al,%eax
    9760:	89 d6                	mov    %edx,%esi
    9762:	89 c7                	mov    %eax,%edi
    9764:	e8 24 c5 ff ff       	callq  5c8d <safe_rshift_func_uint8_t_u_s>
    9769:	3c c8                	cmp    $0xc8,%al
    976b:	0f 94 c0             	sete   %al
    976e:	0f b6 c0             	movzbl %al,%eax
    9771:	44 89 ee             	mov    %r13d,%esi
    9774:	89 c7                	mov    %eax,%edi
    9776:	e8 18 c4 ff ff       	callq  5b93 <safe_mul_func_uint8_t_u_u>
    977b:	8b 85 64 ed ff ff    	mov    -0x129c(%rbp),%eax
    9781:	25 d0 ae 21 58       	and    $0x5821aed0,%eax
    9786:	44 89 e6             	mov    %r12d,%esi
    9789:	89 c7                	mov    %eax,%edi
    978b:	e8 6d c7 ff ff       	callq  5efd <safe_mod_func_uint32_t_u_u>
    9790:	8b 85 b0 ed ff ff    	mov    -0x1250(%rbp),%eax
    9796:	0f b7 c0             	movzwl %ax,%eax
    9799:	89 de                	mov    %ebx,%esi
    979b:	89 c7                	mov    %eax,%edi
    979d:	e8 5d c5 ff ff       	callq  5cff <safe_add_func_uint16_t_u_u>
    97a2:	ba 01 00 00 00       	mov    $0x1,%edx
    97a7:	8b 05 a3 7a 00 00    	mov    0x7aa3(%rip),%eax        # 11250 <g_143+0x10>
    97ad:	09 d0                	or     %edx,%eax
    97af:	89 05 9b 7a 00 00    	mov    %eax,0x7a9b(%rip)        # 11250 <g_143+0x10>
    97b5:	8b 05 95 7a 00 00    	mov    0x7a95(%rip),%eax        # 11250 <g_143+0x10>
    97bb:	3d 69 67 45 c6       	cmp    $0xc6456769,%eax
    97c0:	0f 97 c2             	seta   %dl
    97c3:	48 8b 85 00 ee ff ff 	mov    -0x1200(%rbp),%rax
    97ca:	0f b6 d2             	movzbl %dl,%edx
    97cd:	89 10                	mov    %edx,(%rax)
    97cf:	48 8b 85 00 ee ff ff 	mov    -0x1200(%rbp),%rax
    97d6:	8b 18                	mov    (%rax),%ebx
    97d8:	48 8b 85 50 ee ff ff 	mov    -0x11b0(%rbp),%rax
    97df:	48 89 05 b2 a1 00 00 	mov    %rax,0xa1b2(%rip)        # 13998 <g_554>
    97e6:	48 8b 15 ab a1 00 00 	mov    0xa1ab(%rip),%rdx        # 13998 <g_554>
    97ed:	48 8b 85 28 f2 ff ff 	mov    -0xdd8(%rbp),%rax
    97f4:	48 39 c2             	cmp    %rax,%rdx
    97f7:	0f 94 c0             	sete   %al
    97fa:	0f b6 c0             	movzbl %al,%eax
    97fd:	48 39 85 58 ee ff ff 	cmp    %rax,-0x11a8(%rbp)
    9804:	0f 93 c0             	setae  %al
    9807:	44 0f b6 e0          	movzbl %al,%r12d
    980b:	8b 85 a4 ed ff ff    	mov    -0x125c(%rbp),%eax
    9811:	48 63 d0             	movslq %eax,%rdx
    9814:	0f b7 05 fb 78 00 00 	movzwl 0x78fb(%rip),%eax        # 11116 <g_99+0xb6>
    981b:	48 0f bf c0          	movswq %ax,%rax
    981f:	48 89 d6             	mov    %rdx,%rsi
    9822:	48 89 c7             	mov    %rax,%rdi
    9825:	e8 8a c1 ff ff       	callq  59b4 <safe_mod_func_int64_t_s_s>
    982a:	49 39 c4             	cmp    %rax,%r12
    982d:	0f 95 c0             	setne  %al
    9830:	0f b6 d0             	movzbl %al,%edx
    9833:	48 8d 85 28 ee ff ff 	lea    -0x11d8(%rbp),%rax
    983a:	48 89 85 48 ee ff ff 	mov    %rax,-0x11b8(%rbp)
    9841:	48 8b 05 48 a1 00 00 	mov    0xa148(%rip),%rax        # 13990 <g_551>
    9848:	48 39 85 48 ee ff ff 	cmp    %rax,-0x11b8(%rbp)
    984f:	0f 95 c0             	setne  %al
    9852:	0f b6 c0             	movzbl %al,%eax
    9855:	89 d6                	mov    %edx,%esi
    9857:	89 c7                	mov    %eax,%edi
    9859:	e8 a7 bd ff ff       	callq  5605 <safe_sub_func_int32_t_s_s>
    985e:	89 c2                	mov    %eax,%edx
    9860:	48 8b 85 18 f0 ff ff 	mov    -0xfe8(%rbp),%rax
    9867:	21 c2                	and    %eax,%edx
    9869:	48 8b 05 f8 9f 00 00 	mov    0x9ff8(%rip),%rax        # 13868 <g_121>
    9870:	88 10                	mov    %dl,(%rax)
    9872:	0f b6 00             	movzbl (%rax),%eax
    9875:	0f be c0             	movsbl %al,%eax
    9878:	89 de                	mov    %ebx,%esi
    987a:	89 c7                	mov    %eax,%edi
    987c:	e8 b4 ba ff ff       	callq  5335 <safe_rshift_func_int8_t_s_s>
    9881:	3c f8                	cmp    $0xf8,%al
    9883:	0f 9d c2             	setge  %dl
    9886:	48 8b 85 00 ee ff ff 	mov    -0x1200(%rbp),%rax
    988d:	0f b6 d2             	movzbl %dl,%edx
    9890:	89 10                	mov    %edx,(%rax)
    9892:	80 bd 76 ed ff ff 00 	cmpb   $0x0,-0x128a(%rbp)
    9899:	75 2e                	jne    98c9 <func_36+0x1bf2>
    989b:	8b 85 64 ed ff ff    	mov    -0x129c(%rbp),%eax
    98a1:	85 c0                	test   %eax,%eax
    98a3:	75 27                	jne    98cc <func_36+0x1bf5>
    98a5:	48 8b 05 a4 77 00 00 	mov    0x77a4(%rip),%rax        # 11050 <g_61+0x10>
    98ac:	48 83 e8 01          	sub    $0x1,%rax
    98b0:	48 89 05 99 77 00 00 	mov    %rax,0x7799(%rip)        # 11050 <g_61+0x10>
    98b7:	48 8b 05 92 77 00 00 	mov    0x7792(%rip),%rax        # 11050 <g_61+0x10>
    98be:	48 85 c0             	test   %rax,%rax
    98c1:	0f 89 b0 fa ff ff    	jns    9377 <func_36+0x16a0>
    98c7:	eb 04                	jmp    98cd <func_36+0x1bf6>
    98c9:	90                   	nop
    98ca:	eb 01                	jmp    98cd <func_36+0x1bf6>
    98cc:	90                   	nop
    98cd:	83 85 84 ed ff ff 01 	addl   $0x1,-0x127c(%rbp)
    98d4:	83 bd 84 ed ff ff 0b 	cmpl   $0xb,-0x127c(%rbp)
    98db:	0f 86 71 fa ff ff    	jbe    9352 <func_36+0x167b>
    98e1:	8b 85 64 ed ff ff    	mov    -0x129c(%rbp),%eax
    98e7:	85 c0                	test   %eax,%eax
    98e9:	75 33                	jne    991e <func_36+0x1c47>
    98eb:	8b 85 80 ed ff ff    	mov    -0x1280(%rbp),%eax
    98f1:	85 c0                	test   %eax,%eax
    98f3:	75 2c                	jne    9921 <func_36+0x1c4a>
    98f5:	8b 85 64 ed ff ff    	mov    -0x129c(%rbp),%eax
    98fb:	be 09 00 00 00       	mov    $0x9,%esi
    9900:	89 c7                	mov    %eax,%edi
    9902:	e8 af bc ff ff       	callq  55b6 <safe_add_func_int32_t_s_s>
    9907:	89 85 64 ed ff ff    	mov    %eax,-0x129c(%rbp)
    990d:	8b 85 64 ed ff ff    	mov    -0x129c(%rbp),%eax
    9913:	83 f8 18             	cmp    $0x18,%eax
    9916:	0f 86 48 e5 ff ff    	jbe    7e64 <func_36+0x18d>
    991c:	eb 04                	jmp    9922 <func_36+0x1c4b>
    991e:	90                   	nop
    991f:	eb 01                	jmp    9922 <func_36+0x1c4b>
    9921:	90                   	nop
    9922:	48 8b 85 40 ee ff ff 	mov    -0x11c0(%rbp),%rax
    9929:	48 89 05 f8 a0 00 00 	mov    %rax,0xa0f8(%rip)        # 13a28 <g_562>
    9930:	66 c7 05 5b 84 00 00 	movw   $0x5,0x845b(%rip)        # 11d94 <g_401>
    9937:	05 00 
    9939:	e9 ab 00 00 00       	jmpq   99e9 <func_36+0x1d12>
    993e:	48 c7 85 a8 ee ff ff 	movq   $0x0,-0x1158(%rbp)
    9945:	00 00 00 00 
    9949:	c7 85 f8 ed ff ff 01 	movl   $0x1,-0x1208(%rbp)
    9950:	00 00 00 
    9953:	48 8d 05 16 7a 00 00 	lea    0x7a16(%rip),%rax        # 11370 <g_195>
    995a:	48 89 85 b0 ee ff ff 	mov    %rax,-0x1150(%rbp)
    9961:	c7 85 fc ed ff ff fa 	movl   $0xfffffffa,-0x1204(%rbp)
    9968:	ff ff ff 
    996b:	48 83 bd a8 ee ff ff 	cmpq   $0x0,-0x1158(%rbp)
    9972:	00 
    9973:	be e4 ff ff ff       	mov    $0xffffffe4,%esi
    9978:	bf f9 ff ff ff       	mov    $0xfffffff9,%edi
    997d:	e8 af b8 ff ff       	callq  5231 <safe_mod_func_int8_t_s_s>
    9982:	8b 85 fc ed ff ff    	mov    -0x1204(%rbp),%eax
    9988:	0f be d8             	movsbl %al,%ebx
    998b:	8b 85 f8 ed ff ff    	mov    -0x1208(%rbp),%eax
    9991:	0f be c0             	movsbl %al,%eax
    9994:	be 66 00 00 00       	mov    $0x66,%esi
    9999:	89 c7                	mov    %eax,%edi
    999b:	e8 34 b8 ff ff       	callq  51d4 <safe_add_func_int8_t_s_s>
    99a0:	89 de                	mov    %ebx,%esi
    99a2:	bf 01 00 00 00       	mov    $0x1,%edi
    99a7:	e8 46 b8 ff ff       	callq  51f2 <safe_sub_func_int8_t_s_s>
    99ac:	0f be d0             	movsbl %al,%edx
    99af:	8b 85 64 ed ff ff    	mov    -0x129c(%rbp),%eax
    99b5:	0f be c0             	movsbl %al,%eax
    99b8:	89 d6                	mov    %edx,%esi
    99ba:	89 c7                	mov    %eax,%edi
    99bc:	e8 13 b8 ff ff       	callq  51d4 <safe_add_func_int8_t_s_s>
    99c1:	48 8b 95 00 ee ff ff 	mov    -0x1200(%rbp),%rdx
    99c8:	8b 0a                	mov    (%rdx),%ecx
    99ca:	0f be d0             	movsbl %al,%edx
    99cd:	48 8b 85 00 ee ff ff 	mov    -0x1200(%rbp),%rax
    99d4:	31 ca                	xor    %ecx,%edx
    99d6:	89 10                	mov    %edx,(%rax)
    99d8:	0f b7 05 b5 83 00 00 	movzwl 0x83b5(%rip),%eax        # 11d94 <g_401>
    99df:	83 c0 01             	add    $0x1,%eax
    99e2:	66 89 05 ab 83 00 00 	mov    %ax,0x83ab(%rip)        # 11d94 <g_401>
    99e9:	0f b7 05 a4 83 00 00 	movzwl 0x83a4(%rip),%eax        # 11d94 <g_401>
    99f0:	66 83 f8 18          	cmp    $0x18,%ax
    99f4:	0f 85 44 ff ff ff    	jne    993e <func_36+0x1c67>
    99fa:	48 8b 8d 68 ed ff ff 	mov    -0x1298(%rbp),%rcx
    9a01:	48 8b 05 58 85 00 00 	mov    0x8558(%rip),%rax        # 11f60 <g_580>
    9a08:	48 8b 15 59 85 00 00 	mov    0x8559(%rip),%rdx        # 11f68 <g_580+0x8>
    9a0f:	48 89 01             	mov    %rax,(%rcx)
    9a12:	48 89 51 08          	mov    %rdx,0x8(%rcx)
    9a16:	48 8b 05 53 85 00 00 	mov    0x8553(%rip),%rax        # 11f70 <g_580+0x10>
    9a1d:	48 89 41 10          	mov    %rax,0x10(%rcx)
    9a21:	48 8b 45 c8          	mov    -0x38(%rbp),%rax
    9a25:	64 48 33 04 25 28 00 	xor    %fs:0x28,%rax
    9a2c:	00 00 
    9a2e:	74 05                	je     9a35 <func_36+0x1d5e>
    9a30:	e8 3b b6 ff ff       	callq  5070 <__stack_chk_fail@plt>
    9a35:	48 8b 85 68 ed ff ff 	mov    -0x1298(%rbp),%rax
    9a3c:	48 81 c4 88 12 00 00 	add    $0x1288,%rsp
    9a43:	5b                   	pop    %rbx
    9a44:	41 5c                	pop    %r12
    9a46:	41 5d                	pop    %r13
    9a48:	41 5e                	pop    %r14
    9a4a:	41 5f                	pop    %r15
    9a4c:	5d                   	pop    %rbp
    9a4d:	c3                   	retq   

0000000000009a4e <func_40>:
    9a4e:	f3 0f 1e fa          	endbr64 
    9a52:	55                   	push   %rbp
    9a53:	48 89 e5             	mov    %rsp,%rbp
    9a56:	41 55                	push   %r13
    9a58:	41 54                	push   %r12
    9a5a:	53                   	push   %rbx
    9a5b:	48 81 ec 88 02 00 00 	sub    $0x288,%rsp
    9a62:	48 89 bd 78 fd ff ff 	mov    %rdi,-0x288(%rbp)
    9a69:	89 f0                	mov    %esi,%eax
    9a6b:	89 95 70 fd ff ff    	mov    %edx,-0x290(%rbp)
    9a71:	48 89 8d 68 fd ff ff 	mov    %rcx,-0x298(%rbp)
    9a78:	66 89 85 74 fd ff ff 	mov    %ax,-0x28c(%rbp)
    9a7f:	64 48 8b 04 25 28 00 	mov    %fs:0x28,%rax
    9a86:	00 00 
    9a88:	48 89 45 d8          	mov    %rax,-0x28(%rbp)
    9a8c:	31 c0                	xor    %eax,%eax
    9a8e:	48 8d 05 9b 75 00 00 	lea    0x759b(%rip),%rax        # 11030 <g_30>
    9a95:	48 89 85 b8 fd ff ff 	mov    %rax,-0x248(%rbp)
    9a9c:	48 8d 05 9d 75 00 00 	lea    0x759d(%rip),%rax        # 11040 <g_61>
    9aa3:	48 89 85 a8 fd ff ff 	mov    %rax,-0x258(%rbp)
    9aaa:	48 8d 05 8f 75 00 00 	lea    0x758f(%rip),%rax        # 11040 <g_61>
    9ab1:	48 89 85 c0 fd ff ff 	mov    %rax,-0x240(%rbp)
    9ab8:	48 8d 05 89 75 00 00 	lea    0x7589(%rip),%rax        # 11048 <g_61+0x8>
    9abf:	48 89 85 c8 fd ff ff 	mov    %rax,-0x238(%rbp)
    9ac6:	48 8d 05 73 75 00 00 	lea    0x7573(%rip),%rax        # 11040 <g_61>
    9acd:	48 89 85 d0 fd ff ff 	mov    %rax,-0x230(%rbp)
    9ad4:	48 8d 05 65 75 00 00 	lea    0x7565(%rip),%rax        # 11040 <g_61>
    9adb:	48 89 85 d8 fd ff ff 	mov    %rax,-0x228(%rbp)
    9ae2:	48 8d 05 47 75 00 00 	lea    0x7547(%rip),%rax        # 11030 <g_30>
    9ae9:	48 89 85 e0 fd ff ff 	mov    %rax,-0x220(%rbp)
    9af0:	48 8d 05 51 75 00 00 	lea    0x7551(%rip),%rax        # 11048 <g_61+0x8>
    9af7:	48 89 85 e8 fd ff ff 	mov    %rax,-0x218(%rbp)
    9afe:	48 8d 05 3b 75 00 00 	lea    0x753b(%rip),%rax        # 11040 <g_61>
    9b05:	48 89 85 e0 fe ff ff 	mov    %rax,-0x120(%rbp)
    9b0c:	48 8d 05 2d 75 00 00 	lea    0x752d(%rip),%rax        # 11040 <g_61>
    9b13:	48 89 85 e8 fe ff ff 	mov    %rax,-0x118(%rbp)
    9b1a:	48 8d 05 0f 75 00 00 	lea    0x750f(%rip),%rax        # 11030 <g_30>
    9b21:	48 89 85 f0 fe ff ff 	mov    %rax,-0x110(%rbp)
    9b28:	48 8d 05 01 75 00 00 	lea    0x7501(%rip),%rax        # 11030 <g_30>
    9b2f:	48 89 85 f8 fe ff ff 	mov    %rax,-0x108(%rbp)
    9b36:	48 8d 05 f3 74 00 00 	lea    0x74f3(%rip),%rax        # 11030 <g_30>
    9b3d:	48 89 85 00 ff ff ff 	mov    %rax,-0x100(%rbp)
    9b44:	48 8d 05 f5 74 00 00 	lea    0x74f5(%rip),%rax        # 11040 <g_61>
    9b4b:	48 89 85 08 ff ff ff 	mov    %rax,-0xf8(%rbp)
    9b52:	48 8d 05 d7 74 00 00 	lea    0x74d7(%rip),%rax        # 11030 <g_30>
    9b59:	48 89 85 10 ff ff ff 	mov    %rax,-0xf0(%rbp)
    9b60:	48 8d 05 c9 74 00 00 	lea    0x74c9(%rip),%rax        # 11030 <g_30>
    9b67:	48 89 85 18 ff ff ff 	mov    %rax,-0xe8(%rbp)
    9b6e:	48 8d 05 bb 74 00 00 	lea    0x74bb(%rip),%rax        # 11030 <g_30>
    9b75:	48 89 85 20 ff ff ff 	mov    %rax,-0xe0(%rbp)
    9b7c:	48 8d 05 ad 74 00 00 	lea    0x74ad(%rip),%rax        # 11030 <g_30>
    9b83:	48 89 85 28 ff ff ff 	mov    %rax,-0xd8(%rbp)
    9b8a:	48 8d 05 9f 74 00 00 	lea    0x749f(%rip),%rax        # 11030 <g_30>
    9b91:	48 89 85 30 ff ff ff 	mov    %rax,-0xd0(%rbp)
    9b98:	48 8d 05 91 74 00 00 	lea    0x7491(%rip),%rax        # 11030 <g_30>
    9b9f:	48 89 85 38 ff ff ff 	mov    %rax,-0xc8(%rbp)
    9ba6:	48 8d 05 93 74 00 00 	lea    0x7493(%rip),%rax        # 11040 <g_61>
    9bad:	48 89 85 40 ff ff ff 	mov    %rax,-0xc0(%rbp)
    9bb4:	48 8d 05 75 74 00 00 	lea    0x7475(%rip),%rax        # 11030 <g_30>
    9bbb:	48 89 85 48 ff ff ff 	mov    %rax,-0xb8(%rbp)
    9bc2:	48 8d 05 67 74 00 00 	lea    0x7467(%rip),%rax        # 11030 <g_30>
    9bc9:	48 89 85 50 ff ff ff 	mov    %rax,-0xb0(%rbp)
    9bd0:	48 8d 05 59 74 00 00 	lea    0x7459(%rip),%rax        # 11030 <g_30>
    9bd7:	48 89 85 58 ff ff ff 	mov    %rax,-0xa8(%rbp)
    9bde:	48 8d 05 5b 74 00 00 	lea    0x745b(%rip),%rax        # 11040 <g_61>
    9be5:	48 89 85 60 ff ff ff 	mov    %rax,-0xa0(%rbp)
    9bec:	48 8d 05 4d 74 00 00 	lea    0x744d(%rip),%rax        # 11040 <g_61>
    9bf3:	48 89 85 68 ff ff ff 	mov    %rax,-0x98(%rbp)
    9bfa:	48 8d 05 2f 74 00 00 	lea    0x742f(%rip),%rax        # 11030 <g_30>
    9c01:	48 89 85 70 ff ff ff 	mov    %rax,-0x90(%rbp)
    9c08:	48 8d 05 21 74 00 00 	lea    0x7421(%rip),%rax        # 11030 <g_30>
    9c0f:	48 89 85 78 ff ff ff 	mov    %rax,-0x88(%rbp)
    9c16:	48 8d 05 13 74 00 00 	lea    0x7413(%rip),%rax        # 11030 <g_30>
    9c1d:	48 89 45 80          	mov    %rax,-0x80(%rbp)
    9c21:	48 8d 05 08 74 00 00 	lea    0x7408(%rip),%rax        # 11030 <g_30>
    9c28:	48 89 45 88          	mov    %rax,-0x78(%rbp)
    9c2c:	48 8d 05 fd 73 00 00 	lea    0x73fd(%rip),%rax        # 11030 <g_30>
    9c33:	48 89 45 90          	mov    %rax,-0x70(%rbp)
    9c37:	48 8d 05 f2 73 00 00 	lea    0x73f2(%rip),%rax        # 11030 <g_30>
    9c3e:	48 89 45 98          	mov    %rax,-0x68(%rbp)
    9c42:	48 8d 05 e7 73 00 00 	lea    0x73e7(%rip),%rax        # 11030 <g_30>
    9c49:	48 89 45 a0          	mov    %rax,-0x60(%rbp)
    9c4d:	48 8d 05 dc 73 00 00 	lea    0x73dc(%rip),%rax        # 11030 <g_30>
    9c54:	48 89 45 a8          	mov    %rax,-0x58(%rbp)
    9c58:	48 8d 05 d1 73 00 00 	lea    0x73d1(%rip),%rax        # 11030 <g_30>
    9c5f:	48 89 45 b0          	mov    %rax,-0x50(%rbp)
    9c63:	48 8d 05 c6 73 00 00 	lea    0x73c6(%rip),%rax        # 11030 <g_30>
    9c6a:	48 89 45 b8          	mov    %rax,-0x48(%rbp)
    9c6e:	48 8d 05 bb 73 00 00 	lea    0x73bb(%rip),%rax        # 11030 <g_30>
    9c75:	48 89 45 c0          	mov    %rax,-0x40(%rbp)
    9c79:	48 8d 05 b0 73 00 00 	lea    0x73b0(%rip),%rax        # 11030 <g_30>
    9c80:	48 89 45 c8          	mov    %rax,-0x38(%rbp)
    9c84:	c6 85 85 fd ff ff e0 	movb   $0xe0,-0x27b(%rbp)
    9c8b:	48 8d 05 ce 9c 00 00 	lea    0x9cce(%rip),%rax        # 13960 <g_119>
    9c92:	48 89 85 f0 fd ff ff 	mov    %rax,-0x210(%rbp)
    9c99:	48 b8 2f da 92 0e 7a 	movabs $0x78e65a7a0e92da2f,%rax
    9ca0:	5a e6 78 
    9ca3:	48 89 85 f8 fd ff ff 	mov    %rax,-0x208(%rbp)
    9caa:	c7 85 8c fd ff ff 1f 	movl   $0x2e01831f,-0x274(%rbp)
    9cb1:	83 01 2e 
    9cb4:	48 8d 05 55 74 00 00 	lea    0x7455(%rip),%rax        # 11110 <g_99+0xb0>
    9cbb:	48 89 85 00 fe ff ff 	mov    %rax,-0x200(%rbp)
    9cc2:	8b 05 98 75 00 00    	mov    0x7598(%rip),%eax        # 11260 <g_143+0x20>
    9cc8:	83 c0 01             	add    $0x1,%eax
    9ccb:	89 05 8f 75 00 00    	mov    %eax,0x758f(%rip)        # 11260 <g_143+0x20>
    9cd1:	48 8b 85 68 ff ff ff 	mov    -0x98(%rbp),%rax
    9cd8:	48 89 05 99 9c 00 00 	mov    %rax,0x9c99(%rip)        # 13978 <g_146>
    9cdf:	48 8b 05 92 9c 00 00 	mov    0x9c92(%rip),%rax        # 13978 <g_146>
    9ce6:	48 89 85 c0 fd ff ff 	mov    %rax,-0x240(%rbp)
    9ced:	c6 85 85 fd ff ff 00 	movb   $0x0,-0x27b(%rbp)
    9cf4:	e9 f3 05 00 00       	jmpq   a2ec <func_40+0x89e>
    9cf9:	48 c7 85 b0 fd ff ff 	movq   $0x0,-0x250(%rbp)
    9d00:	00 00 00 00 
    9d04:	48 8d 85 b0 fd ff ff 	lea    -0x250(%rbp),%rax
    9d0b:	48 89 85 08 fe ff ff 	mov    %rax,-0x1f8(%rbp)
    9d12:	66 c7 85 80 fe ff ff 	movw   $0x249e,-0x180(%rbp)
    9d19:	9e 24 
    9d1b:	66 c7 85 82 fe ff ff 	movw   $0xa7c0,-0x17e(%rbp)
    9d22:	c0 a7 
    9d24:	66 c7 85 84 fe ff ff 	movw   $0xdc9c,-0x17c(%rbp)
    9d2b:	9c dc 
    9d2d:	66 c7 85 86 fe ff ff 	movw   $0x1,-0x17a(%rbp)
    9d34:	01 00 
    9d36:	66 c7 85 88 fe ff ff 	movw   $0xdc9c,-0x178(%rbp)
    9d3d:	9c dc 
    9d3f:	66 c7 85 8a fe ff ff 	movw   $0xa7c0,-0x176(%rbp)
    9d46:	c0 a7 
    9d48:	66 c7 85 8c fe ff ff 	movw   $0xdc9c,-0x174(%rbp)
    9d4f:	9c dc 
    9d51:	66 c7 85 8e fe ff ff 	movw   $0x44fb,-0x172(%rbp)
    9d58:	fb 44 
    9d5a:	66 c7 85 90 fe ff ff 	movw   $0xfff7,-0x170(%rbp)
    9d61:	f7 ff 
    9d63:	66 c7 85 92 fe ff ff 	movw   $0x1,-0x16e(%rbp)
    9d6a:	01 00 
    9d6c:	66 c7 85 94 fe ff ff 	movw   $0x5ccf,-0x16c(%rbp)
    9d73:	cf 5c 
    9d75:	66 c7 85 96 fe ff ff 	movw   $0x1,-0x16a(%rbp)
    9d7c:	01 00 
    9d7e:	66 c7 85 98 fe ff ff 	movw   $0x249e,-0x168(%rbp)
    9d85:	9e 24 
    9d87:	66 c7 85 9a fe ff ff 	movw   $0x1,-0x166(%rbp)
    9d8e:	01 00 
    9d90:	66 c7 85 9c fe ff ff 	movw   $0xfff7,-0x164(%rbp)
    9d97:	f7 ff 
    9d99:	66 c7 85 9e fe ff ff 	movw   $0x1,-0x162(%rbp)
    9da0:	01 00 
    9da2:	66 c7 85 a0 fe ff ff 	movw   $0x249e,-0x160(%rbp)
    9da9:	9e 24 
    9dab:	66 c7 85 a2 fe ff ff 	movw   $0xa7c0,-0x15e(%rbp)
    9db2:	c0 a7 
    9db4:	66 c7 85 a4 fe ff ff 	movw   $0x11b6,-0x15c(%rbp)
    9dbb:	b6 11 
    9dbd:	66 c7 85 a6 fe ff ff 	movw   $0x1,-0x15a(%rbp)
    9dc4:	01 00 
    9dc6:	66 c7 85 a8 fe ff ff 	movw   $0xdc9c,-0x158(%rbp)
    9dcd:	9c dc 
    9dcf:	66 c7 85 aa fe ff ff 	movw   $0xfff8,-0x156(%rbp)
    9dd6:	f8 ff 
    9dd8:	66 c7 85 ac fe ff ff 	movw   $0x5ccf,-0x154(%rbp)
    9ddf:	cf 5c 
    9de1:	66 c7 85 ae fe ff ff 	movw   $0xfff8,-0x152(%rbp)
    9de8:	f8 ff 
    9dea:	66 c7 85 b0 fe ff ff 	movw   $0x11b6,-0x150(%rbp)
    9df1:	b6 11 
    9df3:	66 c7 85 b2 fe ff ff 	movw   $0x44fb,-0x14e(%rbp)
    9dfa:	fb 44 
    9dfc:	66 c7 85 b4 fe ff ff 	movw   $0x11b6,-0x14c(%rbp)
    9e03:	b6 11 
    9e05:	66 c7 85 b6 fe ff ff 	movw   $0x1,-0x14a(%rbp)
    9e0c:	01 00 
    9e0e:	66 c7 85 b8 fe ff ff 	movw   $0xdc9c,-0x148(%rbp)
    9e15:	9c dc 
    9e17:	66 c7 85 ba fe ff ff 	movw   $0xfff8,-0x146(%rbp)
    9e1e:	f8 ff 
    9e20:	66 c7 85 bc fe ff ff 	movw   $0x249e,-0x144(%rbp)
    9e27:	9e 24 
    9e29:	66 c7 85 be fe ff ff 	movw   $0xa7c0,-0x142(%rbp)
    9e30:	c0 a7 
    9e32:	66 c7 85 c0 fe ff ff 	movw   $0xdc9c,-0x140(%rbp)
    9e39:	9c dc 
    9e3b:	66 c7 85 c2 fe ff ff 	movw   $0x1,-0x13e(%rbp)
    9e42:	01 00 
    9e44:	66 c7 85 c4 fe ff ff 	movw   $0xdc9c,-0x13c(%rbp)
    9e4b:	9c dc 
    9e4d:	66 c7 85 c6 fe ff ff 	movw   $0xa7c0,-0x13a(%rbp)
    9e54:	c0 a7 
    9e56:	66 c7 85 c8 fe ff ff 	movw   $0xdc9c,-0x138(%rbp)
    9e5d:	9c dc 
    9e5f:	66 c7 85 ca fe ff ff 	movw   $0x44fb,-0x136(%rbp)
    9e66:	fb 44 
    9e68:	66 c7 85 cc fe ff ff 	movw   $0xfff7,-0x134(%rbp)
    9e6f:	f7 ff 
    9e71:	66 c7 85 ce fe ff ff 	movw   $0x1,-0x132(%rbp)
    9e78:	01 00 
    9e7a:	66 c7 85 d0 fe ff ff 	movw   $0x5ccf,-0x130(%rbp)
    9e81:	cf 5c 
    9e83:	66 c7 85 d2 fe ff ff 	movw   $0x1,-0x12e(%rbp)
    9e8a:	01 00 
    9e8c:	66 c7 85 d4 fe ff ff 	movw   $0x249e,-0x12c(%rbp)
    9e93:	9e 24 
    9e95:	66 c7 85 d6 fe ff ff 	movw   $0x1,-0x12a(%rbp)
    9e9c:	01 00 
    9e9e:	66 c7 85 d8 fe ff ff 	movw   $0xfff7,-0x128(%rbp)
    9ea5:	f7 ff 
    9ea7:	66 c7 85 da fe ff ff 	movw   $0x1,-0x126(%rbp)
    9eae:	01 00 
    9eb0:	66 c7 85 dc fe ff ff 	movw   $0x249e,-0x124(%rbp)
    9eb7:	9e 24 
    9eb9:	66 c7 85 de fe ff ff 	movw   $0xa7c0,-0x122(%rbp)
    9ec0:	c0 a7 
    9ec2:	c7 85 90 fd ff ff 51 	movl   $0x45185051,-0x270(%rbp)
    9ec9:	50 18 45 
    9ecc:	66 c7 85 86 fd ff ff 	movw   $0xffff,-0x27a(%rbp)
    9ed3:	ff ff 
    9ed5:	c7 85 94 fd ff ff ff 	movl   $0xffffffff,-0x26c(%rbp)
    9edc:	ff ff ff 
    9edf:	c7 85 98 fd ff ff ad 	movl   $0x5ebf1cad,-0x268(%rbp)
    9ee6:	1c bf 5e 
    9ee9:	48 b8 d9 8f f7 ab bb 	movabs $0x5c2c58bbabf78fd9,%rax
    9ef0:	58 2c 5c 
    9ef3:	48 89 85 50 fe ff ff 	mov    %rax,-0x1b0(%rbp)
    9efa:	48 89 85 58 fe ff ff 	mov    %rax,-0x1a8(%rbp)
    9f01:	48 c7 85 60 fe ff ff 	movq   $0x1,-0x1a0(%rbp)
    9f08:	01 00 00 00 
    9f0c:	48 89 85 68 fe ff ff 	mov    %rax,-0x198(%rbp)
    9f13:	48 89 85 70 fe ff ff 	mov    %rax,-0x190(%rbp)
    9f1a:	48 c7 85 78 fe ff ff 	movq   $0x1,-0x188(%rbp)
    9f21:	01 00 00 00 
    9f25:	48 8d 85 a8 fd ff ff 	lea    -0x258(%rbp),%rax
    9f2c:	48 89 05 4d 9a 00 00 	mov    %rax,0x9a4d(%rip)        # 13980 <g_147>
    9f33:	48 8b 15 46 9a 00 00 	mov    0x9a46(%rip),%rdx        # 13980 <g_147>
    9f3a:	48 8b 85 08 fe ff ff 	mov    -0x1f8(%rbp),%rax
    9f41:	48 89 10             	mov    %rdx,(%rax)
    9f44:	48 8b 05 35 9a 00 00 	mov    0x9a35(%rip),%rax        # 13980 <g_147>
    9f4b:	48 8b 00             	mov    (%rax),%rax
    9f4e:	48 85 c0             	test   %rax,%rax
    9f51:	0f 94 c0             	sete   %al
    9f54:	44 0f b6 e0          	movzbl %al,%r12d
    9f58:	b8 83 ff ff ff       	mov    $0xffffff83,%eax
    9f5d:	48 0f be d8          	movsbq %al,%rbx
    9f61:	44 0f b7 ad 74 fd ff 	movzwl -0x28c(%rbp),%r13d
    9f68:	ff 
    9f69:	66 83 bd 74 fd ff ff 	cmpw   $0x0,-0x28c(%rbp)
    9f70:	00 
    9f71:	75 52                	jne    9fc5 <func_40+0x577>
    9f73:	66 83 bd 74 fd ff ff 	cmpw   $0x0,-0x28c(%rbp)
    9f7a:	00 
    9f7b:	75 09                	jne    9f86 <func_40+0x538>
    9f7d:	83 bd 70 fd ff ff 00 	cmpl   $0x0,-0x290(%rbp)
    9f84:	74 07                	je     9f8d <func_40+0x53f>
    9f86:	b8 01 00 00 00       	mov    $0x1,%eax
    9f8b:	eb 05                	jmp    9f92 <func_40+0x544>
    9f8d:	b8 00 00 00 00       	mov    $0x0,%eax
    9f92:	89 c2                	mov    %eax,%edx
    9f94:	8b 05 be 70 00 00    	mov    0x70be(%rip),%eax        # 11058 <g_66>
    9f9a:	21 d0                	and    %edx,%eax
    9f9c:	23 85 70 fd ff ff    	and    -0x290(%rbp),%eax
    9fa2:	89 c2                	mov    %eax,%edx
    9fa4:	b8 cd ff ff ff       	mov    $0xffffffcd,%eax
    9fa9:	0f be c0             	movsbl %al,%eax
    9fac:	39 c2                	cmp    %eax,%edx
    9fae:	0f 92 c0             	setb   %al
    9fb1:	0f b6 c0             	movzbl %al,%eax
    9fb4:	be ff ff 00 00       	mov    $0xffff,%esi
    9fb9:	89 c7                	mov    %eax,%edi
    9fbb:	e8 7d bd ff ff       	callq  5d3d <safe_mul_func_uint16_t_u_u>
    9fc0:	66 85 c0             	test   %ax,%ax
    9fc3:	74 07                	je     9fcc <func_40+0x57e>
    9fc5:	b8 01 00 00 00       	mov    $0x1,%eax
    9fca:	eb 05                	jmp    9fd1 <func_40+0x583>
    9fcc:	b8 00 00 00 00       	mov    $0x0,%eax
    9fd1:	44 39 e8             	cmp    %r13d,%eax
    9fd4:	74 10                	je     9fe6 <func_40+0x598>
    9fd6:	83 bd 70 fd ff ff 00 	cmpl   $0x0,-0x290(%rbp)
    9fdd:	74 07                	je     9fe6 <func_40+0x598>
    9fdf:	b8 01 00 00 00       	mov    $0x1,%eax
    9fe4:	eb 05                	jmp    9feb <func_40+0x59d>
    9fe6:	b8 00 00 00 00       	mov    $0x0,%eax
    9feb:	48 98                	cltq   
    9fed:	48 89 de             	mov    %rbx,%rsi
    9ff0:	48 89 c7             	mov    %rax,%rdi
    9ff3:	e8 bc b9 ff ff       	callq  59b4 <safe_mod_func_int64_t_s_s>
    9ff8:	49 39 c4             	cmp    %rax,%r12
    9ffb:	0f 95 c0             	setne  %al
    9ffe:	0f b6 c0             	movzbl %al,%eax
    a001:	be 05 00 00 00       	mov    $0x5,%esi
    a006:	89 c7                	mov    %eax,%edi
    a008:	e8 30 bd ff ff       	callq  5d3d <safe_mul_func_uint16_t_u_u>
    a00d:	0f b7 c0             	movzwl %ax,%eax
    a010:	89 c6                	mov    %eax,%esi
    a012:	bf 00 00 00 00       	mov    $0x0,%edi
    a017:	e8 b0 b6 ff ff       	callq  56cc <safe_mod_func_int32_t_s_s>
    a01c:	0f b7 05 ff 71 00 00 	movzwl 0x71ff(%rip),%eax        # 11222 <g_111>
    a023:	66 39 85 74 fd ff ff 	cmp    %ax,-0x28c(%rbp)
    a02a:	0f 92 c0             	setb   %al
    a02d:	0f b6 c0             	movzbl %al,%eax
    a030:	be f9 00 00 00       	mov    $0xf9,%esi
    a035:	89 c7                	mov    %eax,%edi
    a037:	e8 1e bb ff ff       	callq  5b5a <safe_add_func_uint8_t_u_u>
    a03c:	48 8b 95 e0 fd ff ff 	mov    -0x220(%rbp),%rdx
    a043:	8b 12                	mov    (%rdx),%edx
    a045:	0f b6 c0             	movzbl %al,%eax
    a048:	31 c2                	xor    %eax,%edx
    a04a:	48 8b 85 e0 fd ff ff 	mov    -0x220(%rbp),%rax
    a051:	89 10                	mov    %edx,(%rax)
    a053:	c7 05 d3 6f 00 00 00 	movl   $0x0,0x6fd3(%rip)        # 11030 <g_30>
    a05a:	00 00 00 
    a05d:	e9 6b 02 00 00       	jmpq   a2cd <func_40+0x87f>
    a062:	48 c7 85 10 fe ff ff 	movq   $0x0,-0x1f0(%rbp)
    a069:	00 00 00 00 
    a06d:	48 8d 05 e6 72 00 00 	lea    0x72e6(%rip),%rax        # 1135a <g_175+0x2>
    a074:	48 89 85 18 fe ff ff 	mov    %rax,-0x1e8(%rbp)
    a07b:	c7 85 9c fd ff ff f9 	movl   $0xfffffff9,-0x264(%rbp)
    a082:	ff ff ff 
    a085:	c7 85 a0 fd ff ff fb 	movl   $0xa28f9cfb,-0x260(%rbp)
    a08c:	9c 8f a2 
    a08f:	c7 85 a4 fd ff ff f6 	movl   $0xfffffff6,-0x25c(%rbp)
    a096:	ff ff ff 
    a099:	48 8d 05 c8 72 00 00 	lea    0x72c8(%rip),%rax        # 11368 <g_180>
    a0a0:	48 89 85 20 fe ff ff 	mov    %rax,-0x1e0(%rbp)
    a0a7:	48 8d 85 b0 fd ff ff 	lea    -0x250(%rbp),%rax
    a0ae:	48 89 85 28 fe ff ff 	mov    %rax,-0x1d8(%rbp)
    a0b5:	c7 85 88 fd ff ff 00 	movl   $0x0,-0x278(%rbp)
    a0bc:	00 00 00 
    a0bf:	eb 1e                	jmp    a0df <func_40+0x691>
    a0c1:	8b 85 88 fd ff ff    	mov    -0x278(%rbp),%eax
    a0c7:	48 98                	cltq   
    a0c9:	48 8d 15 88 6f 00 00 	lea    0x6f88(%rip),%rdx        # 11058 <g_66>
    a0d0:	48 89 94 c5 30 fe ff 	mov    %rdx,-0x1d0(%rbp,%rax,8)
    a0d7:	ff 
    a0d8:	83 85 88 fd ff ff 01 	addl   $0x1,-0x278(%rbp)
    a0df:	83 bd 88 fd ff ff 03 	cmpl   $0x3,-0x278(%rbp)
    a0e6:	7e d9                	jle    a0c1 <func_40+0x673>
    a0e8:	0f b7 85 b0 fe ff ff 	movzwl -0x150(%rbp),%eax
    a0ef:	0f bf d8             	movswl %ax,%ebx
    a0f2:	0f b7 85 b0 fe ff ff 	movzwl -0x150(%rbp),%eax
    a0f9:	44 0f be e0          	movsbl %al,%r12d
    a0fd:	0f be 85 85 fd ff ff 	movsbl -0x27b(%rbp),%eax
    a104:	8b 15 26 6f 00 00    	mov    0x6f26(%rip),%edx        # 11030 <g_30>
    a10a:	48 8d 8d e0 fe ff ff 	lea    -0x120(%rbp),%rcx
    a111:	48 63 f2             	movslq %edx,%rsi
    a114:	48 63 d0             	movslq %eax,%rdx
    a117:	48 89 d0             	mov    %rdx,%rax
    a11a:	48 01 c0             	add    %rax,%rax
    a11d:	48 01 d0             	add    %rdx,%rax
    a120:	48 01 c0             	add    %rax,%rax
    a123:	48 01 f0             	add    %rsi,%rax
    a126:	48 c1 e0 03          	shl    $0x3,%rax
    a12a:	48 8d 14 01          	lea    (%rcx,%rax,1),%rdx
    a12e:	48 8d 05 43 98 00 00 	lea    0x9843(%rip),%rax        # 13978 <g_146>
    a135:	48 39 c2             	cmp    %rax,%rdx
    a138:	0f 94 c0             	sete   %al
    a13b:	44 0f b6 e8          	movzbl %al,%r13d
    a13f:	48 8b 85 08 fe ff ff 	mov    -0x1f8(%rbp),%rax
    a146:	48 8b 00             	mov    (%rax),%rax
    a149:	48 85 c0             	test   %rax,%rax
    a14c:	0f 94 c0             	sete   %al
    a14f:	0f b6 d0             	movzbl %al,%edx
    a152:	48 8b 85 18 fe ff ff 	mov    -0x1e8(%rbp),%rax
    a159:	66 89 10             	mov    %dx,(%rax)
    a15c:	48 8b 85 e0 fd ff ff 	mov    -0x220(%rbp),%rax
    a163:	8b 00                	mov    (%rax),%eax
    a165:	f7 d0                	not    %eax
    a167:	0f b6 c0             	movzbl %al,%eax
    a16a:	be 87 00 00 00       	mov    $0x87,%esi
    a16f:	89 c7                	mov    %eax,%edi
    a171:	e8 1d ba ff ff       	callq  5b93 <safe_mul_func_uint8_t_u_u>
    a176:	0f b6 d0             	movzbl %al,%edx
    a179:	b8 83 ff ff ff       	mov    $0xffffff83,%eax
    a17e:	0f be c0             	movsbl %al,%eax
    a181:	39 c2                	cmp    %eax,%edx
    a183:	0f 95 c0             	setne  %al
    a186:	0f b6 c0             	movzbl %al,%eax
    a189:	41 39 c5             	cmp    %eax,%r13d
    a18c:	0f 9d c0             	setge  %al
    a18f:	0f b6 c0             	movzbl %al,%eax
    a192:	44 89 e6             	mov    %r12d,%esi
    a195:	89 c7                	mov    %eax,%edi
    a197:	e8 38 b0 ff ff       	callq  51d4 <safe_add_func_int8_t_s_s>
    a19c:	0f be d0             	movsbl %al,%edx
    a19f:	48 8b 85 d0 fd ff ff 	mov    -0x230(%rbp),%rax
    a1a6:	89 10                	mov    %edx,(%rax)
    a1a8:	0f b7 05 ab 71 00 00 	movzwl 0x71ab(%rip),%eax        # 1135a <g_175+0x2>
    a1af:	0f b6 c0             	movzbl %al,%eax
    a1b2:	89 de                	mov    %ebx,%esi
    a1b4:	89 c7                	mov    %eax,%edi
    a1b6:	e8 d2 ba ff ff       	callq  5c8d <safe_rshift_func_uint8_t_u_s>
    a1bb:	0f b6 d8             	movzbl %al,%ebx
    a1be:	48 8b 05 8b 71 00 00 	mov    0x718b(%rip),%rax        # 11350 <g_165>
    a1c5:	0f b7 c8             	movzwl %ax,%ecx
    a1c8:	0f be 85 85 fd ff ff 	movsbl -0x27b(%rbp),%eax
    a1cf:	0f be 95 85 fd ff ff 	movsbl -0x27b(%rbp),%edx
    a1d6:	83 c2 04             	add    $0x4,%edx
    a1d9:	48 63 f2             	movslq %edx,%rsi
    a1dc:	48 63 d0             	movslq %eax,%rdx
    a1df:	48 89 d0             	mov    %rdx,%rax
    a1e2:	48 c1 e0 02          	shl    $0x2,%rax
    a1e6:	48 01 d0             	add    %rdx,%rax
    a1e9:	48 01 c0             	add    %rax,%rax
    a1ec:	48 01 f0             	add    %rsi,%rax
    a1ef:	48 8d 14 85 00 00 00 	lea    0x0(,%rax,4),%rdx
    a1f6:	00 
    a1f7:	48 8d 05 42 70 00 00 	lea    0x7042(%rip),%rax        # 11240 <g_143>
    a1fe:	8b 04 02             	mov    (%rdx,%rax,1),%eax
    a201:	0f b7 c0             	movzwl %ax,%eax
    a204:	89 ce                	mov    %ecx,%esi
    a206:	89 c7                	mov    %eax,%edi
    a208:	e8 30 bb ff ff       	callq  5d3d <safe_mul_func_uint16_t_u_u>
    a20d:	0f b7 d0             	movzwl %ax,%edx
    a210:	48 8b 05 d1 70 00 00 	mov    0x70d1(%rip),%rax        # 112e8 <g_160+0x28>
    a217:	48 39 c2             	cmp    %rax,%rdx
    a21a:	0f 9d c0             	setge  %al
    a21d:	0f b6 d0             	movzbl %al,%edx
    a220:	0f b7 05 fb 6f 00 00 	movzwl 0x6ffb(%rip),%eax        # 11222 <g_111>
    a227:	0f b7 c0             	movzwl %ax,%eax
    a22a:	39 c2                	cmp    %eax,%edx
    a22c:	0f 9e c0             	setle  %al
    a22f:	0f b6 c0             	movzbl %al,%eax
    a232:	89 de                	mov    %ebx,%esi
    a234:	89 c7                	mov    %eax,%edi
    a236:	e8 98 b1 ff ff       	callq  53d3 <safe_sub_func_int16_t_s_s>
    a23b:	0f bf c8             	movswl %ax,%ecx
    a23e:	0f be 85 85 fd ff ff 	movsbl -0x27b(%rbp),%eax
    a245:	0f be 95 85 fd ff ff 	movsbl -0x27b(%rbp),%edx
    a24c:	83 c2 04             	add    $0x4,%edx
    a24f:	48 63 f2             	movslq %edx,%rsi
    a252:	48 63 d0             	movslq %eax,%rdx
    a255:	48 89 d0             	mov    %rdx,%rax
    a258:	48 c1 e0 02          	shl    $0x2,%rax
    a25c:	48 01 d0             	add    %rdx,%rax
    a25f:	48 01 c0             	add    %rax,%rax
    a262:	48 01 f0             	add    %rsi,%rax
    a265:	48 8d 14 85 00 00 00 	lea    0x0(,%rax,4),%rdx
    a26c:	00 
    a26d:	48 8d 05 cc 6f 00 00 	lea    0x6fcc(%rip),%rax        # 11240 <g_143>
    a274:	8b 04 02             	mov    (%rdx,%rax,1),%eax
    a277:	39 c1                	cmp    %eax,%ecx
    a279:	0f 97 c0             	seta   %al
    a27c:	0f b6 c0             	movzbl %al,%eax
    a27f:	89 85 90 fd ff ff    	mov    %eax,-0x270(%rbp)
    a285:	8b 85 90 fd ff ff    	mov    -0x270(%rbp),%eax
    a28b:	48 98                	cltq   
    a28d:	48 89 05 cc 70 00 00 	mov    %rax,0x70cc(%rip)        # 11360 <g_178>
    a294:	48 8b 05 c5 70 00 00 	mov    0x70c5(%rip),%rax        # 11360 <g_178>
    a29b:	66 89 85 86 fd ff ff 	mov    %ax,-0x27a(%rbp)
    a2a2:	0f b7 85 86 fd ff ff 	movzwl -0x27a(%rbp),%eax
    a2a9:	48 0f bf d0          	movswq %ax,%rdx
    a2ad:	48 8b 05 b4 70 00 00 	mov    0x70b4(%rip),%rax        # 11368 <g_180>
    a2b4:	48 31 d0             	xor    %rdx,%rax
    a2b7:	48 89 05 aa 70 00 00 	mov    %rax,0x70aa(%rip)        # 11368 <g_180>
    a2be:	8b 05 6c 6d 00 00    	mov    0x6d6c(%rip),%eax        # 11030 <g_30>
    a2c4:	83 c0 01             	add    $0x1,%eax
    a2c7:	89 05 63 6d 00 00    	mov    %eax,0x6d63(%rip)        # 11030 <g_30>
    a2cd:	8b 05 5d 6d 00 00    	mov    0x6d5d(%rip),%eax        # 11030 <g_30>
    a2d3:	83 f8 04             	cmp    $0x4,%eax
    a2d6:	0f 8e 86 fd ff ff    	jle    a062 <func_40+0x614>
    a2dc:	0f b6 85 85 fd ff ff 	movzbl -0x27b(%rbp),%eax
    a2e3:	83 c0 01             	add    $0x1,%eax
    a2e6:	88 85 85 fd ff ff    	mov    %al,-0x27b(%rbp)
    a2ec:	80 bd 85 fd ff ff 02 	cmpb   $0x2,-0x27b(%rbp)
    a2f3:	0f 8e 00 fa ff ff    	jle    9cf9 <func_40+0x2ab>
    a2f9:	0f b7 85 74 fd ff ff 	movzwl -0x28c(%rbp),%eax
    a300:	48 8b 5d d8          	mov    -0x28(%rbp),%rbx
    a304:	64 48 33 1c 25 28 00 	xor    %fs:0x28,%rbx
    a30b:	00 00 
    a30d:	74 05                	je     a314 <func_40+0x8c6>
    a30f:	e8 5c ad ff ff       	callq  5070 <__stack_chk_fail@plt>
    a314:	48 81 c4 88 02 00 00 	add    $0x288,%rsp
    a31b:	5b                   	pop    %rbx
    a31c:	41 5c                	pop    %r12
    a31e:	41 5d                	pop    %r13
    a320:	5d                   	pop    %rbp
    a321:	c3                   	retq   

000000000000a322 <func_45>:
    a322:	f3 0f 1e fa          	endbr64 
    a326:	55                   	push   %rbp
    a327:	48 89 e5             	mov    %rsp,%rbp
    a32a:	48 81 ec 30 08 00 00 	sub    $0x830,%rsp
    a331:	89 fa                	mov    %edi,%edx
    a333:	89 f0                	mov    %esi,%eax
    a335:	88 95 dc f7 ff ff    	mov    %dl,-0x824(%rbp)
    a33b:	88 85 d8 f7 ff ff    	mov    %al,-0x828(%rbp)
    a341:	64 48 8b 04 25 28 00 	mov    %fs:0x28,%rax
    a348:	00 00 
    a34a:	48 89 45 f8          	mov    %rax,-0x8(%rbp)
    a34e:	31 c0                	xor    %eax,%eax
    a350:	48 c7 85 e8 f7 ff ff 	movq   $0x0,-0x818(%rbp)
    a357:	00 00 00 00 
    a35b:	48 8d 85 e8 f7 ff ff 	lea    -0x818(%rbp),%rax
    a362:	48 89 85 70 f8 ff ff 	mov    %rax,-0x790(%rbp)
    a369:	48 8d 85 e8 f7 ff ff 	lea    -0x818(%rbp),%rax
    a370:	48 89 85 78 f8 ff ff 	mov    %rax,-0x788(%rbp)
    a377:	48 8d 85 e8 f7 ff ff 	lea    -0x818(%rbp),%rax
    a37e:	48 89 85 80 f8 ff ff 	mov    %rax,-0x780(%rbp)
    a385:	48 8d 85 e8 f7 ff ff 	lea    -0x818(%rbp),%rax
    a38c:	48 89 85 88 f8 ff ff 	mov    %rax,-0x778(%rbp)
    a393:	48 8d 85 e8 f7 ff ff 	lea    -0x818(%rbp),%rax
    a39a:	48 89 85 90 f8 ff ff 	mov    %rax,-0x770(%rbp)
    a3a1:	48 8d 85 e8 f7 ff ff 	lea    -0x818(%rbp),%rax
    a3a8:	48 89 85 98 f8 ff ff 	mov    %rax,-0x768(%rbp)
    a3af:	48 8d 85 e8 f7 ff ff 	lea    -0x818(%rbp),%rax
    a3b6:	48 89 85 a0 f8 ff ff 	mov    %rax,-0x760(%rbp)
    a3bd:	48 8d 85 e8 f7 ff ff 	lea    -0x818(%rbp),%rax
    a3c4:	48 89 85 a8 f8 ff ff 	mov    %rax,-0x758(%rbp)
    a3cb:	48 c7 85 b0 f8 ff ff 	movq   $0x0,-0x750(%rbp)
    a3d2:	00 00 00 00 
    a3d6:	48 c7 85 b8 f8 ff ff 	movq   $0x0,-0x748(%rbp)
    a3dd:	00 00 00 00 
    a3e1:	48 c7 85 c0 f8 ff ff 	movq   $0x0,-0x740(%rbp)
    a3e8:	00 00 00 00 
    a3ec:	48 8d 85 e8 f7 ff ff 	lea    -0x818(%rbp),%rax
    a3f3:	48 89 85 c8 f8 ff ff 	mov    %rax,-0x738(%rbp)
    a3fa:	48 8d 85 e8 f7 ff ff 	lea    -0x818(%rbp),%rax
    a401:	48 89 85 d0 f8 ff ff 	mov    %rax,-0x730(%rbp)
    a408:	48 c7 85 d8 f8 ff ff 	movq   $0x0,-0x728(%rbp)
    a40f:	00 00 00 00 
    a413:	48 8d 85 e8 f7 ff ff 	lea    -0x818(%rbp),%rax
    a41a:	48 89 85 e0 f8 ff ff 	mov    %rax,-0x720(%rbp)
    a421:	48 8d 85 e8 f7 ff ff 	lea    -0x818(%rbp),%rax
    a428:	48 89 85 e8 f8 ff ff 	mov    %rax,-0x718(%rbp)
    a42f:	48 8d 85 e8 f7 ff ff 	lea    -0x818(%rbp),%rax
    a436:	48 89 85 f0 f8 ff ff 	mov    %rax,-0x710(%rbp)
    a43d:	48 8d 85 e8 f7 ff ff 	lea    -0x818(%rbp),%rax
    a444:	48 89 85 f8 f8 ff ff 	mov    %rax,-0x708(%rbp)
    a44b:	48 8d 85 e8 f7 ff ff 	lea    -0x818(%rbp),%rax
    a452:	48 89 85 00 f9 ff ff 	mov    %rax,-0x700(%rbp)
    a459:	48 8d 85 e8 f7 ff ff 	lea    -0x818(%rbp),%rax
    a460:	48 89 85 08 f9 ff ff 	mov    %rax,-0x6f8(%rbp)
    a467:	48 8d 85 e8 f7 ff ff 	lea    -0x818(%rbp),%rax
    a46e:	48 89 85 10 f9 ff ff 	mov    %rax,-0x6f0(%rbp)
    a475:	48 8d 85 e8 f7 ff ff 	lea    -0x818(%rbp),%rax
    a47c:	48 89 85 18 f9 ff ff 	mov    %rax,-0x6e8(%rbp)
    a483:	48 8d 85 e8 f7 ff ff 	lea    -0x818(%rbp),%rax
    a48a:	48 89 85 20 f9 ff ff 	mov    %rax,-0x6e0(%rbp)
    a491:	48 8d 85 e8 f7 ff ff 	lea    -0x818(%rbp),%rax
    a498:	48 89 85 28 f9 ff ff 	mov    %rax,-0x6d8(%rbp)
    a49f:	48 8d 85 e8 f7 ff ff 	lea    -0x818(%rbp),%rax
    a4a6:	48 89 85 30 f9 ff ff 	mov    %rax,-0x6d0(%rbp)
    a4ad:	48 8d 85 e8 f7 ff ff 	lea    -0x818(%rbp),%rax
    a4b4:	48 89 85 38 f9 ff ff 	mov    %rax,-0x6c8(%rbp)
    a4bb:	48 8d 85 e8 f7 ff ff 	lea    -0x818(%rbp),%rax
    a4c2:	48 89 85 40 f9 ff ff 	mov    %rax,-0x6c0(%rbp)
    a4c9:	48 8d 85 e8 f7 ff ff 	lea    -0x818(%rbp),%rax
    a4d0:	48 89 85 48 f9 ff ff 	mov    %rax,-0x6b8(%rbp)
    a4d7:	48 c7 85 50 f9 ff ff 	movq   $0x0,-0x6b0(%rbp)
    a4de:	00 00 00 00 
    a4e2:	48 8d 85 e8 f7 ff ff 	lea    -0x818(%rbp),%rax
    a4e9:	48 89 85 58 f9 ff ff 	mov    %rax,-0x6a8(%rbp)
    a4f0:	48 8d 85 e8 f7 ff ff 	lea    -0x818(%rbp),%rax
    a4f7:	48 89 85 60 f9 ff ff 	mov    %rax,-0x6a0(%rbp)
    a4fe:	48 8d 85 e8 f7 ff ff 	lea    -0x818(%rbp),%rax
    a505:	48 89 85 68 f9 ff ff 	mov    %rax,-0x698(%rbp)
    a50c:	48 c7 85 70 f9 ff ff 	movq   $0x0,-0x690(%rbp)
    a513:	00 00 00 00 
    a517:	48 c7 85 78 f9 ff ff 	movq   $0x0,-0x688(%rbp)
    a51e:	00 00 00 00 
    a522:	48 8d 85 e8 f7 ff ff 	lea    -0x818(%rbp),%rax
    a529:	48 89 85 80 f9 ff ff 	mov    %rax,-0x680(%rbp)
    a530:	48 c7 85 88 f9 ff ff 	movq   $0x0,-0x678(%rbp)
    a537:	00 00 00 00 
    a53b:	48 8d 85 e8 f7 ff ff 	lea    -0x818(%rbp),%rax
    a542:	48 89 85 90 f9 ff ff 	mov    %rax,-0x670(%rbp)
    a549:	48 8d 85 e8 f7 ff ff 	lea    -0x818(%rbp),%rax
    a550:	48 89 85 98 f9 ff ff 	mov    %rax,-0x668(%rbp)
    a557:	48 c7 85 a0 f9 ff ff 	movq   $0x0,-0x660(%rbp)
    a55e:	00 00 00 00 
    a562:	48 8d 85 e8 f7 ff ff 	lea    -0x818(%rbp),%rax
    a569:	48 89 85 a8 f9 ff ff 	mov    %rax,-0x658(%rbp)
    a570:	48 8d 85 e8 f7 ff ff 	lea    -0x818(%rbp),%rax
    a577:	48 89 85 b0 f9 ff ff 	mov    %rax,-0x650(%rbp)
    a57e:	48 8d 85 e8 f7 ff ff 	lea    -0x818(%rbp),%rax
    a585:	48 89 85 b8 f9 ff ff 	mov    %rax,-0x648(%rbp)
    a58c:	48 8d 85 e8 f7 ff ff 	lea    -0x818(%rbp),%rax
    a593:	48 89 85 c0 f9 ff ff 	mov    %rax,-0x640(%rbp)
    a59a:	48 8d 85 e8 f7 ff ff 	lea    -0x818(%rbp),%rax
    a5a1:	48 89 85 c8 f9 ff ff 	mov    %rax,-0x638(%rbp)
    a5a8:	48 8d 85 e8 f7 ff ff 	lea    -0x818(%rbp),%rax
    a5af:	48 89 85 d0 f9 ff ff 	mov    %rax,-0x630(%rbp)
    a5b6:	48 8d 85 e8 f7 ff ff 	lea    -0x818(%rbp),%rax
    a5bd:	48 89 85 d8 f9 ff ff 	mov    %rax,-0x628(%rbp)
    a5c4:	48 c7 85 e0 f9 ff ff 	movq   $0x0,-0x620(%rbp)
    a5cb:	00 00 00 00 
    a5cf:	48 8d 85 e8 f7 ff ff 	lea    -0x818(%rbp),%rax
    a5d6:	48 89 85 e8 f9 ff ff 	mov    %rax,-0x618(%rbp)
    a5dd:	48 8d 85 e8 f7 ff ff 	lea    -0x818(%rbp),%rax
    a5e4:	48 89 85 f0 f9 ff ff 	mov    %rax,-0x610(%rbp)
    a5eb:	48 8d 85 e8 f7 ff ff 	lea    -0x818(%rbp),%rax
    a5f2:	48 89 85 f8 f9 ff ff 	mov    %rax,-0x608(%rbp)
    a5f9:	48 8d 85 e8 f7 ff ff 	lea    -0x818(%rbp),%rax
    a600:	48 89 85 00 fa ff ff 	mov    %rax,-0x600(%rbp)
    a607:	48 8d 85 e8 f7 ff ff 	lea    -0x818(%rbp),%rax
    a60e:	48 89 85 08 fa ff ff 	mov    %rax,-0x5f8(%rbp)
    a615:	48 c7 85 10 fa ff ff 	movq   $0x0,-0x5f0(%rbp)
    a61c:	00 00 00 00 
    a620:	48 8d 85 e8 f7 ff ff 	lea    -0x818(%rbp),%rax
    a627:	48 89 85 18 fa ff ff 	mov    %rax,-0x5e8(%rbp)
    a62e:	48 c7 85 20 fa ff ff 	movq   $0x0,-0x5e0(%rbp)
    a635:	00 00 00 00 
    a639:	48 8d 85 e8 f7 ff ff 	lea    -0x818(%rbp),%rax
    a640:	48 89 85 28 fa ff ff 	mov    %rax,-0x5d8(%rbp)
    a647:	48 8d 85 e8 f7 ff ff 	lea    -0x818(%rbp),%rax
    a64e:	48 89 85 30 fa ff ff 	mov    %rax,-0x5d0(%rbp)
    a655:	48 8d 85 e8 f7 ff ff 	lea    -0x818(%rbp),%rax
    a65c:	48 89 85 38 fa ff ff 	mov    %rax,-0x5c8(%rbp)
    a663:	48 8d 85 e8 f7 ff ff 	lea    -0x818(%rbp),%rax
    a66a:	48 89 85 40 fa ff ff 	mov    %rax,-0x5c0(%rbp)
    a671:	48 8d 85 e8 f7 ff ff 	lea    -0x818(%rbp),%rax
    a678:	48 89 85 48 fa ff ff 	mov    %rax,-0x5b8(%rbp)
    a67f:	48 8d 85 e8 f7 ff ff 	lea    -0x818(%rbp),%rax
    a686:	48 89 85 50 fa ff ff 	mov    %rax,-0x5b0(%rbp)
    a68d:	48 8d 85 e8 f7 ff ff 	lea    -0x818(%rbp),%rax
    a694:	48 89 85 58 fa ff ff 	mov    %rax,-0x5a8(%rbp)
    a69b:	48 c7 85 60 fa ff ff 	movq   $0x0,-0x5a0(%rbp)
    a6a2:	00 00 00 00 
    a6a6:	48 8d 85 e8 f7 ff ff 	lea    -0x818(%rbp),%rax
    a6ad:	48 89 85 68 fa ff ff 	mov    %rax,-0x598(%rbp)
    a6b4:	48 8d 85 e8 f7 ff ff 	lea    -0x818(%rbp),%rax
    a6bb:	48 89 85 70 fa ff ff 	mov    %rax,-0x590(%rbp)
    a6c2:	48 c7 85 78 fa ff ff 	movq   $0x0,-0x588(%rbp)
    a6c9:	00 00 00 00 
    a6cd:	48 c7 85 80 fa ff ff 	movq   $0x0,-0x580(%rbp)
    a6d4:	00 00 00 00 
    a6d8:	48 8d 85 e8 f7 ff ff 	lea    -0x818(%rbp),%rax
    a6df:	48 89 85 88 fa ff ff 	mov    %rax,-0x578(%rbp)
    a6e6:	48 8d 85 e8 f7 ff ff 	lea    -0x818(%rbp),%rax
    a6ed:	48 89 85 90 fa ff ff 	mov    %rax,-0x570(%rbp)
    a6f4:	48 8d 85 e8 f7 ff ff 	lea    -0x818(%rbp),%rax
    a6fb:	48 89 85 98 fa ff ff 	mov    %rax,-0x568(%rbp)
    a702:	48 8d 85 e8 f7 ff ff 	lea    -0x818(%rbp),%rax
    a709:	48 89 85 a0 fa ff ff 	mov    %rax,-0x560(%rbp)
    a710:	48 8d 85 e8 f7 ff ff 	lea    -0x818(%rbp),%rax
    a717:	48 89 85 a8 fa ff ff 	mov    %rax,-0x558(%rbp)
    a71e:	48 8d 85 e8 f7 ff ff 	lea    -0x818(%rbp),%rax
    a725:	48 89 85 b0 fa ff ff 	mov    %rax,-0x550(%rbp)
    a72c:	48 8d 85 e8 f7 ff ff 	lea    -0x818(%rbp),%rax
    a733:	48 89 85 b8 fa ff ff 	mov    %rax,-0x548(%rbp)
    a73a:	48 8d 85 e8 f7 ff ff 	lea    -0x818(%rbp),%rax
    a741:	48 89 85 c0 fa ff ff 	mov    %rax,-0x540(%rbp)
    a748:	48 8d 85 e8 f7 ff ff 	lea    -0x818(%rbp),%rax
    a74f:	48 89 85 c8 fa ff ff 	mov    %rax,-0x538(%rbp)
    a756:	48 8d 85 e8 f7 ff ff 	lea    -0x818(%rbp),%rax
    a75d:	48 89 85 d0 fa ff ff 	mov    %rax,-0x530(%rbp)
    a764:	48 c7 85 d8 fa ff ff 	movq   $0x0,-0x528(%rbp)
    a76b:	00 00 00 00 
    a76f:	48 8d 85 e8 f7 ff ff 	lea    -0x818(%rbp),%rax
    a776:	48 89 85 e0 fa ff ff 	mov    %rax,-0x520(%rbp)
    a77d:	48 8d 85 e8 f7 ff ff 	lea    -0x818(%rbp),%rax
    a784:	48 89 85 e8 fa ff ff 	mov    %rax,-0x518(%rbp)
    a78b:	48 8d 85 e8 f7 ff ff 	lea    -0x818(%rbp),%rax
    a792:	48 89 85 f0 fa ff ff 	mov    %rax,-0x510(%rbp)
    a799:	48 8d 85 e8 f7 ff ff 	lea    -0x818(%rbp),%rax
    a7a0:	48 89 85 f8 fa ff ff 	mov    %rax,-0x508(%rbp)
    a7a7:	48 8d 85 e8 f7 ff ff 	lea    -0x818(%rbp),%rax
    a7ae:	48 89 85 00 fb ff ff 	mov    %rax,-0x500(%rbp)
    a7b5:	48 8d 85 e8 f7 ff ff 	lea    -0x818(%rbp),%rax
    a7bc:	48 89 85 08 fb ff ff 	mov    %rax,-0x4f8(%rbp)
    a7c3:	48 8d 85 e8 f7 ff ff 	lea    -0x818(%rbp),%rax
    a7ca:	48 89 85 10 fb ff ff 	mov    %rax,-0x4f0(%rbp)
    a7d1:	48 8d 85 e8 f7 ff ff 	lea    -0x818(%rbp),%rax
    a7d8:	48 89 85 18 fb ff ff 	mov    %rax,-0x4e8(%rbp)
    a7df:	48 8d 85 e8 f7 ff ff 	lea    -0x818(%rbp),%rax
    a7e6:	48 89 85 20 fb ff ff 	mov    %rax,-0x4e0(%rbp)
    a7ed:	48 8d 85 e8 f7 ff ff 	lea    -0x818(%rbp),%rax
    a7f4:	48 89 85 28 fb ff ff 	mov    %rax,-0x4d8(%rbp)
    a7fb:	48 8d 85 e8 f7 ff ff 	lea    -0x818(%rbp),%rax
    a802:	48 89 85 30 fb ff ff 	mov    %rax,-0x4d0(%rbp)
    a809:	48 c7 85 38 fb ff ff 	movq   $0x0,-0x4c8(%rbp)
    a810:	00 00 00 00 
    a814:	48 8d 85 e8 f7 ff ff 	lea    -0x818(%rbp),%rax
    a81b:	48 89 85 40 fb ff ff 	mov    %rax,-0x4c0(%rbp)
    a822:	48 8d 85 e8 f7 ff ff 	lea    -0x818(%rbp),%rax
    a829:	48 89 85 48 fb ff ff 	mov    %rax,-0x4b8(%rbp)
    a830:	48 8d 85 e8 f7 ff ff 	lea    -0x818(%rbp),%rax
    a837:	48 89 85 50 fb ff ff 	mov    %rax,-0x4b0(%rbp)
    a83e:	48 8d 85 e8 f7 ff ff 	lea    -0x818(%rbp),%rax
    a845:	48 89 85 58 fb ff ff 	mov    %rax,-0x4a8(%rbp)
    a84c:	48 8d 85 e8 f7 ff ff 	lea    -0x818(%rbp),%rax
    a853:	48 89 85 60 fb ff ff 	mov    %rax,-0x4a0(%rbp)
    a85a:	48 8d 85 e8 f7 ff ff 	lea    -0x818(%rbp),%rax
    a861:	48 89 85 68 fb ff ff 	mov    %rax,-0x498(%rbp)
    a868:	48 8d 85 e8 f7 ff ff 	lea    -0x818(%rbp),%rax
    a86f:	48 89 85 70 fb ff ff 	mov    %rax,-0x490(%rbp)
    a876:	48 c7 85 78 fb ff ff 	movq   $0x0,-0x488(%rbp)
    a87d:	00 00 00 00 
    a881:	48 8d 85 e8 f7 ff ff 	lea    -0x818(%rbp),%rax
    a888:	48 89 85 80 fb ff ff 	mov    %rax,-0x480(%rbp)
    a88f:	48 8d 85 e8 f7 ff ff 	lea    -0x818(%rbp),%rax
    a896:	48 89 85 88 fb ff ff 	mov    %rax,-0x478(%rbp)
    a89d:	48 8d 85 e8 f7 ff ff 	lea    -0x818(%rbp),%rax
    a8a4:	48 89 85 90 fb ff ff 	mov    %rax,-0x470(%rbp)
    a8ab:	48 8d 85 e8 f7 ff ff 	lea    -0x818(%rbp),%rax
    a8b2:	48 89 85 98 fb ff ff 	mov    %rax,-0x468(%rbp)
    a8b9:	48 c7 85 a0 fb ff ff 	movq   $0x0,-0x460(%rbp)
    a8c0:	00 00 00 00 
    a8c4:	48 8d 85 e8 f7 ff ff 	lea    -0x818(%rbp),%rax
    a8cb:	48 89 85 a8 fb ff ff 	mov    %rax,-0x458(%rbp)
    a8d2:	48 8d 85 e8 f7 ff ff 	lea    -0x818(%rbp),%rax
    a8d9:	48 89 85 b0 fb ff ff 	mov    %rax,-0x450(%rbp)
    a8e0:	48 8d 85 e8 f7 ff ff 	lea    -0x818(%rbp),%rax
    a8e7:	48 89 85 b8 fb ff ff 	mov    %rax,-0x448(%rbp)
    a8ee:	48 8d 85 e8 f7 ff ff 	lea    -0x818(%rbp),%rax
    a8f5:	48 89 85 c0 fb ff ff 	mov    %rax,-0x440(%rbp)
    a8fc:	48 c7 85 c8 fb ff ff 	movq   $0x0,-0x438(%rbp)
    a903:	00 00 00 00 
    a907:	48 8d 85 e8 f7 ff ff 	lea    -0x818(%rbp),%rax
    a90e:	48 89 85 d0 fb ff ff 	mov    %rax,-0x430(%rbp)
    a915:	48 8d 85 e8 f7 ff ff 	lea    -0x818(%rbp),%rax
    a91c:	48 89 85 d8 fb ff ff 	mov    %rax,-0x428(%rbp)
    a923:	48 8d 85 e8 f7 ff ff 	lea    -0x818(%rbp),%rax
    a92a:	48 89 85 e0 fb ff ff 	mov    %rax,-0x420(%rbp)
    a931:	48 8d 85 e8 f7 ff ff 	lea    -0x818(%rbp),%rax
    a938:	48 89 85 e8 fb ff ff 	mov    %rax,-0x418(%rbp)
    a93f:	48 8d 85 e8 f7 ff ff 	lea    -0x818(%rbp),%rax
    a946:	48 89 85 f0 fb ff ff 	mov    %rax,-0x410(%rbp)
    a94d:	48 8d 85 e8 f7 ff ff 	lea    -0x818(%rbp),%rax
    a954:	48 89 85 f8 fb ff ff 	mov    %rax,-0x408(%rbp)
    a95b:	48 8d 85 e8 f7 ff ff 	lea    -0x818(%rbp),%rax
    a962:	48 89 85 00 fc ff ff 	mov    %rax,-0x400(%rbp)
    a969:	48 8d 85 e8 f7 ff ff 	lea    -0x818(%rbp),%rax
    a970:	48 89 85 08 fc ff ff 	mov    %rax,-0x3f8(%rbp)
    a977:	48 8d 85 e8 f7 ff ff 	lea    -0x818(%rbp),%rax
    a97e:	48 89 85 10 fc ff ff 	mov    %rax,-0x3f0(%rbp)
    a985:	48 c7 85 18 fc ff ff 	movq   $0x0,-0x3e8(%rbp)
    a98c:	00 00 00 00 
    a990:	48 8d 85 e8 f7 ff ff 	lea    -0x818(%rbp),%rax
    a997:	48 89 85 20 fc ff ff 	mov    %rax,-0x3e0(%rbp)
    a99e:	48 8d 85 e8 f7 ff ff 	lea    -0x818(%rbp),%rax
    a9a5:	48 89 85 28 fc ff ff 	mov    %rax,-0x3d8(%rbp)
    a9ac:	48 8d 85 e8 f7 ff ff 	lea    -0x818(%rbp),%rax
    a9b3:	48 89 85 30 fc ff ff 	mov    %rax,-0x3d0(%rbp)
    a9ba:	48 8d 85 e8 f7 ff ff 	lea    -0x818(%rbp),%rax
    a9c1:	48 89 85 38 fc ff ff 	mov    %rax,-0x3c8(%rbp)
    a9c8:	48 8d 85 e8 f7 ff ff 	lea    -0x818(%rbp),%rax
    a9cf:	48 89 85 40 fc ff ff 	mov    %rax,-0x3c0(%rbp)
    a9d6:	48 8d 85 e8 f7 ff ff 	lea    -0x818(%rbp),%rax
    a9dd:	48 89 85 48 fc ff ff 	mov    %rax,-0x3b8(%rbp)
    a9e4:	48 c7 85 50 fc ff ff 	movq   $0x0,-0x3b0(%rbp)
    a9eb:	00 00 00 00 
    a9ef:	48 c7 85 58 fc ff ff 	movq   $0x0,-0x3a8(%rbp)
    a9f6:	00 00 00 00 
    a9fa:	48 8d 85 e8 f7 ff ff 	lea    -0x818(%rbp),%rax
    aa01:	48 89 85 60 fc ff ff 	mov    %rax,-0x3a0(%rbp)
    aa08:	48 8d 85 e8 f7 ff ff 	lea    -0x818(%rbp),%rax
    aa0f:	48 89 85 68 fc ff ff 	mov    %rax,-0x398(%rbp)
    aa16:	48 8d 85 e8 f7 ff ff 	lea    -0x818(%rbp),%rax
    aa1d:	48 89 85 70 fc ff ff 	mov    %rax,-0x390(%rbp)
    aa24:	48 8d 85 e8 f7 ff ff 	lea    -0x818(%rbp),%rax
    aa2b:	48 89 85 78 fc ff ff 	mov    %rax,-0x388(%rbp)
    aa32:	48 8d 85 e8 f7 ff ff 	lea    -0x818(%rbp),%rax
    aa39:	48 89 85 80 fc ff ff 	mov    %rax,-0x380(%rbp)
    aa40:	48 8d 85 e8 f7 ff ff 	lea    -0x818(%rbp),%rax
    aa47:	48 89 85 88 fc ff ff 	mov    %rax,-0x378(%rbp)
    aa4e:	48 8d 85 e8 f7 ff ff 	lea    -0x818(%rbp),%rax
    aa55:	48 89 85 90 fc ff ff 	mov    %rax,-0x370(%rbp)
    aa5c:	48 8d 85 e8 f7 ff ff 	lea    -0x818(%rbp),%rax
    aa63:	48 89 85 98 fc ff ff 	mov    %rax,-0x368(%rbp)
    aa6a:	48 8d 85 e8 f7 ff ff 	lea    -0x818(%rbp),%rax
    aa71:	48 89 85 a0 fc ff ff 	mov    %rax,-0x360(%rbp)
    aa78:	48 8d 85 e8 f7 ff ff 	lea    -0x818(%rbp),%rax
    aa7f:	48 89 85 a8 fc ff ff 	mov    %rax,-0x358(%rbp)
    aa86:	48 8d 85 e8 f7 ff ff 	lea    -0x818(%rbp),%rax
    aa8d:	48 89 85 b0 fc ff ff 	mov    %rax,-0x350(%rbp)
    aa94:	48 8d 85 e8 f7 ff ff 	lea    -0x818(%rbp),%rax
    aa9b:	48 89 85 b8 fc ff ff 	mov    %rax,-0x348(%rbp)
    aaa2:	48 8d 85 e8 f7 ff ff 	lea    -0x818(%rbp),%rax
    aaa9:	48 89 85 c0 fc ff ff 	mov    %rax,-0x340(%rbp)
    aab0:	48 8d 85 e8 f7 ff ff 	lea    -0x818(%rbp),%rax
    aab7:	48 89 85 c8 fc ff ff 	mov    %rax,-0x338(%rbp)
    aabe:	48 8d 85 e8 f7 ff ff 	lea    -0x818(%rbp),%rax
    aac5:	48 89 85 d0 fc ff ff 	mov    %rax,-0x330(%rbp)
    aacc:	48 c7 85 d8 fc ff ff 	movq   $0x0,-0x328(%rbp)
    aad3:	00 00 00 00 
    aad7:	48 8d 85 e8 f7 ff ff 	lea    -0x818(%rbp),%rax
    aade:	48 89 85 e0 fc ff ff 	mov    %rax,-0x320(%rbp)
    aae5:	48 8d 85 e8 f7 ff ff 	lea    -0x818(%rbp),%rax
    aaec:	48 89 85 e8 fc ff ff 	mov    %rax,-0x318(%rbp)
    aaf3:	48 8d 85 e8 f7 ff ff 	lea    -0x818(%rbp),%rax
    aafa:	48 89 85 f0 fc ff ff 	mov    %rax,-0x310(%rbp)
    ab01:	48 8d 85 e8 f7 ff ff 	lea    -0x818(%rbp),%rax
    ab08:	48 89 85 f8 fc ff ff 	mov    %rax,-0x308(%rbp)
    ab0f:	48 8d 85 e8 f7 ff ff 	lea    -0x818(%rbp),%rax
    ab16:	48 89 85 00 fd ff ff 	mov    %rax,-0x300(%rbp)
    ab1d:	48 8d 85 e8 f7 ff ff 	lea    -0x818(%rbp),%rax
    ab24:	48 89 85 08 fd ff ff 	mov    %rax,-0x2f8(%rbp)
    ab2b:	48 8d 85 e8 f7 ff ff 	lea    -0x818(%rbp),%rax
    ab32:	48 89 85 10 fd ff ff 	mov    %rax,-0x2f0(%rbp)
    ab39:	48 8d 85 e8 f7 ff ff 	lea    -0x818(%rbp),%rax
    ab40:	48 89 85 18 fd ff ff 	mov    %rax,-0x2e8(%rbp)
    ab47:	48 8d 85 e8 f7 ff ff 	lea    -0x818(%rbp),%rax
    ab4e:	48 89 85 20 fd ff ff 	mov    %rax,-0x2e0(%rbp)
    ab55:	48 8d 85 e8 f7 ff ff 	lea    -0x818(%rbp),%rax
    ab5c:	48 89 85 28 fd ff ff 	mov    %rax,-0x2d8(%rbp)
    ab63:	48 8d 85 e8 f7 ff ff 	lea    -0x818(%rbp),%rax
    ab6a:	48 89 85 30 fd ff ff 	mov    %rax,-0x2d0(%rbp)
    ab71:	48 8d 85 e8 f7 ff ff 	lea    -0x818(%rbp),%rax
    ab78:	48 89 85 38 fd ff ff 	mov    %rax,-0x2c8(%rbp)
    ab7f:	48 8d 85 e8 f7 ff ff 	lea    -0x818(%rbp),%rax
    ab86:	48 89 85 40 fd ff ff 	mov    %rax,-0x2c0(%rbp)
    ab8d:	48 8d 85 e8 f7 ff ff 	lea    -0x818(%rbp),%rax
    ab94:	48 89 85 48 fd ff ff 	mov    %rax,-0x2b8(%rbp)
    ab9b:	48 8d 85 e8 f7 ff ff 	lea    -0x818(%rbp),%rax
    aba2:	48 89 85 50 fd ff ff 	mov    %rax,-0x2b0(%rbp)
    aba9:	48 8d 85 e8 f7 ff ff 	lea    -0x818(%rbp),%rax
    abb0:	48 89 85 58 fd ff ff 	mov    %rax,-0x2a8(%rbp)
    abb7:	48 8d 85 e8 f7 ff ff 	lea    -0x818(%rbp),%rax
    abbe:	48 89 85 60 fd ff ff 	mov    %rax,-0x2a0(%rbp)
    abc5:	48 c7 85 68 fd ff ff 	movq   $0x0,-0x298(%rbp)
    abcc:	00 00 00 00 
    abd0:	48 8d 85 e8 f7 ff ff 	lea    -0x818(%rbp),%rax
    abd7:	48 89 85 70 fd ff ff 	mov    %rax,-0x290(%rbp)
    abde:	48 8d 85 e8 f7 ff ff 	lea    -0x818(%rbp),%rax
    abe5:	48 89 85 78 fd ff ff 	mov    %rax,-0x288(%rbp)
    abec:	48 c7 85 80 fd ff ff 	movq   $0x0,-0x280(%rbp)
    abf3:	00 00 00 00 
    abf7:	48 c7 85 88 fd ff ff 	movq   $0x0,-0x278(%rbp)
    abfe:	00 00 00 00 
    ac02:	48 8d 85 e8 f7 ff ff 	lea    -0x818(%rbp),%rax
    ac09:	48 89 85 90 fd ff ff 	mov    %rax,-0x270(%rbp)
    ac10:	48 8d 85 e8 f7 ff ff 	lea    -0x818(%rbp),%rax
    ac17:	48 89 85 98 fd ff ff 	mov    %rax,-0x268(%rbp)
    ac1e:	48 c7 85 a0 fd ff ff 	movq   $0x0,-0x260(%rbp)
    ac25:	00 00 00 00 
    ac29:	48 c7 85 a8 fd ff ff 	movq   $0x0,-0x258(%rbp)
    ac30:	00 00 00 00 
    ac34:	48 8d 85 e8 f7 ff ff 	lea    -0x818(%rbp),%rax
    ac3b:	48 89 85 b0 fd ff ff 	mov    %rax,-0x250(%rbp)
    ac42:	48 8d 85 e8 f7 ff ff 	lea    -0x818(%rbp),%rax
    ac49:	48 89 85 b8 fd ff ff 	mov    %rax,-0x248(%rbp)
    ac50:	48 c7 85 c0 fd ff ff 	movq   $0x0,-0x240(%rbp)
    ac57:	00 00 00 00 
    ac5b:	48 8d 85 e8 f7 ff ff 	lea    -0x818(%rbp),%rax
    ac62:	48 89 85 c8 fd ff ff 	mov    %rax,-0x238(%rbp)
    ac69:	48 8d 85 e8 f7 ff ff 	lea    -0x818(%rbp),%rax
    ac70:	48 89 85 d0 fd ff ff 	mov    %rax,-0x230(%rbp)
    ac77:	48 8d 85 e8 f7 ff ff 	lea    -0x818(%rbp),%rax
    ac7e:	48 89 85 d8 fd ff ff 	mov    %rax,-0x228(%rbp)
    ac85:	48 8d 85 e8 f7 ff ff 	lea    -0x818(%rbp),%rax
    ac8c:	48 89 85 e0 fd ff ff 	mov    %rax,-0x220(%rbp)
    ac93:	48 8d 85 e8 f7 ff ff 	lea    -0x818(%rbp),%rax
    ac9a:	48 89 85 e8 fd ff ff 	mov    %rax,-0x218(%rbp)
    aca1:	48 8d 85 e8 f7 ff ff 	lea    -0x818(%rbp),%rax
    aca8:	48 89 85 f0 fd ff ff 	mov    %rax,-0x210(%rbp)
    acaf:	48 c7 85 f8 fd ff ff 	movq   $0x0,-0x208(%rbp)
    acb6:	00 00 00 00 
    acba:	48 c7 85 00 fe ff ff 	movq   $0x0,-0x200(%rbp)
    acc1:	00 00 00 00 
    acc5:	48 8d 85 e8 f7 ff ff 	lea    -0x818(%rbp),%rax
    accc:	48 89 85 08 fe ff ff 	mov    %rax,-0x1f8(%rbp)
    acd3:	48 8d 85 e8 f7 ff ff 	lea    -0x818(%rbp),%rax
    acda:	48 89 85 10 fe ff ff 	mov    %rax,-0x1f0(%rbp)
    ace1:	48 8d 85 e8 f7 ff ff 	lea    -0x818(%rbp),%rax
    ace8:	48 89 85 18 fe ff ff 	mov    %rax,-0x1e8(%rbp)
    acef:	48 8d 85 e8 f7 ff ff 	lea    -0x818(%rbp),%rax
    acf6:	48 89 85 20 fe ff ff 	mov    %rax,-0x1e0(%rbp)
    acfd:	48 8d 85 e8 f7 ff ff 	lea    -0x818(%rbp),%rax
    ad04:	48 89 85 28 fe ff ff 	mov    %rax,-0x1d8(%rbp)
    ad0b:	48 8d 85 e8 f7 ff ff 	lea    -0x818(%rbp),%rax
    ad12:	48 89 85 30 fe ff ff 	mov    %rax,-0x1d0(%rbp)
    ad19:	48 8d 85 e8 f7 ff ff 	lea    -0x818(%rbp),%rax
    ad20:	48 89 85 38 fe ff ff 	mov    %rax,-0x1c8(%rbp)
    ad27:	48 8d 85 e8 f7 ff ff 	lea    -0x818(%rbp),%rax
    ad2e:	48 89 85 40 fe ff ff 	mov    %rax,-0x1c0(%rbp)
    ad35:	48 8d 85 e8 f7 ff ff 	lea    -0x818(%rbp),%rax
    ad3c:	48 89 85 48 fe ff ff 	mov    %rax,-0x1b8(%rbp)
    ad43:	48 8d 85 e8 f7 ff ff 	lea    -0x818(%rbp),%rax
    ad4a:	48 89 85 50 fe ff ff 	mov    %rax,-0x1b0(%rbp)
    ad51:	48 c7 85 58 fe ff ff 	movq   $0x0,-0x1a8(%rbp)
    ad58:	00 00 00 00 
    ad5c:	48 8d 85 e8 f7 ff ff 	lea    -0x818(%rbp),%rax
    ad63:	48 89 85 60 fe ff ff 	mov    %rax,-0x1a0(%rbp)
    ad6a:	48 8d 85 e8 f7 ff ff 	lea    -0x818(%rbp),%rax
    ad71:	48 89 85 68 fe ff ff 	mov    %rax,-0x198(%rbp)
    ad78:	48 8d 85 e8 f7 ff ff 	lea    -0x818(%rbp),%rax
    ad7f:	48 89 85 70 fe ff ff 	mov    %rax,-0x190(%rbp)
    ad86:	48 8d 85 e8 f7 ff ff 	lea    -0x818(%rbp),%rax
    ad8d:	48 89 85 78 fe ff ff 	mov    %rax,-0x188(%rbp)
    ad94:	48 8d 85 e8 f7 ff ff 	lea    -0x818(%rbp),%rax
    ad9b:	48 89 85 80 fe ff ff 	mov    %rax,-0x180(%rbp)
    ada2:	48 8d 85 e8 f7 ff ff 	lea    -0x818(%rbp),%rax
    ada9:	48 89 85 88 fe ff ff 	mov    %rax,-0x178(%rbp)
    adb0:	48 8d 85 e8 f7 ff ff 	lea    -0x818(%rbp),%rax
    adb7:	48 89 85 90 fe ff ff 	mov    %rax,-0x170(%rbp)
    adbe:	48 8d 85 e8 f7 ff ff 	lea    -0x818(%rbp),%rax
    adc5:	48 89 85 98 fe ff ff 	mov    %rax,-0x168(%rbp)
    adcc:	48 8d 85 e8 f7 ff ff 	lea    -0x818(%rbp),%rax
    add3:	48 89 85 a0 fe ff ff 	mov    %rax,-0x160(%rbp)
    adda:	48 8d 85 e8 f7 ff ff 	lea    -0x818(%rbp),%rax
    ade1:	48 89 85 a8 fe ff ff 	mov    %rax,-0x158(%rbp)
    ade8:	48 8d 85 e8 f7 ff ff 	lea    -0x818(%rbp),%rax
    adef:	48 89 85 b0 fe ff ff 	mov    %rax,-0x150(%rbp)
    adf6:	48 c7 85 b8 fe ff ff 	movq   $0x0,-0x148(%rbp)
    adfd:	00 00 00 00 
    ae01:	48 8d 85 e8 f7 ff ff 	lea    -0x818(%rbp),%rax
    ae08:	48 89 85 c0 fe ff ff 	mov    %rax,-0x140(%rbp)
    ae0f:	48 8d 85 e8 f7 ff ff 	lea    -0x818(%rbp),%rax
    ae16:	48 89 85 c8 fe ff ff 	mov    %rax,-0x138(%rbp)
    ae1d:	48 c7 85 d0 fe ff ff 	movq   $0x0,-0x130(%rbp)
    ae24:	00 00 00 00 
    ae28:	48 8d 85 e8 f7 ff ff 	lea    -0x818(%rbp),%rax
    ae2f:	48 89 85 d8 fe ff ff 	mov    %rax,-0x128(%rbp)
    ae36:	48 8d 85 e8 f7 ff ff 	lea    -0x818(%rbp),%rax
    ae3d:	48 89 85 e0 fe ff ff 	mov    %rax,-0x120(%rbp)
    ae44:	48 8d 85 e8 f7 ff ff 	lea    -0x818(%rbp),%rax
    ae4b:	48 89 85 e8 fe ff ff 	mov    %rax,-0x118(%rbp)
    ae52:	48 8d 85 e8 f7 ff ff 	lea    -0x818(%rbp),%rax
    ae59:	48 89 85 f0 fe ff ff 	mov    %rax,-0x110(%rbp)
    ae60:	48 8d 85 e8 f7 ff ff 	lea    -0x818(%rbp),%rax
    ae67:	48 89 85 f8 fe ff ff 	mov    %rax,-0x108(%rbp)
    ae6e:	48 8d 85 e8 f7 ff ff 	lea    -0x818(%rbp),%rax
    ae75:	48 89 85 00 ff ff ff 	mov    %rax,-0x100(%rbp)
    ae7c:	48 c7 85 08 ff ff ff 	movq   $0x0,-0xf8(%rbp)
    ae83:	00 00 00 00 
    ae87:	48 8d 85 e8 f7 ff ff 	lea    -0x818(%rbp),%rax
    ae8e:	48 89 85 10 ff ff ff 	mov    %rax,-0xf0(%rbp)
    ae95:	48 8d 85 e8 f7 ff ff 	lea    -0x818(%rbp),%rax
    ae9c:	48 89 85 18 ff ff ff 	mov    %rax,-0xe8(%rbp)
    aea3:	48 8d 85 e8 f7 ff ff 	lea    -0x818(%rbp),%rax
    aeaa:	48 89 85 20 ff ff ff 	mov    %rax,-0xe0(%rbp)
    aeb1:	48 8d 85 e8 f7 ff ff 	lea    -0x818(%rbp),%rax
    aeb8:	48 89 85 28 ff ff ff 	mov    %rax,-0xd8(%rbp)
    aebf:	48 8d 85 e8 f7 ff ff 	lea    -0x818(%rbp),%rax
    aec6:	48 89 85 30 ff ff ff 	mov    %rax,-0xd0(%rbp)
    aecd:	48 8d 85 e8 f7 ff ff 	lea    -0x818(%rbp),%rax
    aed4:	48 89 85 38 ff ff ff 	mov    %rax,-0xc8(%rbp)
    aedb:	48 8d 85 e8 f7 ff ff 	lea    -0x818(%rbp),%rax
    aee2:	48 89 85 40 ff ff ff 	mov    %rax,-0xc0(%rbp)
    aee9:	48 c7 85 48 ff ff ff 	movq   $0x0,-0xb8(%rbp)
    aef0:	00 00 00 00 
    aef4:	48 8d 85 e8 f7 ff ff 	lea    -0x818(%rbp),%rax
    aefb:	48 89 85 50 ff ff ff 	mov    %rax,-0xb0(%rbp)
    af02:	48 8d 85 e8 f7 ff ff 	lea    -0x818(%rbp),%rax
    af09:	48 89 85 58 ff ff ff 	mov    %rax,-0xa8(%rbp)
    af10:	48 c7 85 60 ff ff ff 	movq   $0x0,-0xa0(%rbp)
    af17:	00 00 00 00 
    af1b:	48 8d 85 e8 f7 ff ff 	lea    -0x818(%rbp),%rax
    af22:	48 89 85 68 ff ff ff 	mov    %rax,-0x98(%rbp)
    af29:	48 8d 85 e8 f7 ff ff 	lea    -0x818(%rbp),%rax
    af30:	48 89 85 70 ff ff ff 	mov    %rax,-0x90(%rbp)
    af37:	48 8d 85 e8 f7 ff ff 	lea    -0x818(%rbp),%rax
    af3e:	48 89 85 78 ff ff ff 	mov    %rax,-0x88(%rbp)
    af45:	48 8d 85 e8 f7 ff ff 	lea    -0x818(%rbp),%rax
    af4c:	48 89 45 80          	mov    %rax,-0x80(%rbp)
    af50:	48 8d 85 e8 f7 ff ff 	lea    -0x818(%rbp),%rax
    af57:	48 89 45 88          	mov    %rax,-0x78(%rbp)
    af5b:	48 8d 85 e8 f7 ff ff 	lea    -0x818(%rbp),%rax
    af62:	48 89 45 90          	mov    %rax,-0x70(%rbp)
    af66:	48 8d 85 e8 f7 ff ff 	lea    -0x818(%rbp),%rax
    af6d:	48 89 45 98          	mov    %rax,-0x68(%rbp)
    af71:	48 8d 85 e8 f7 ff ff 	lea    -0x818(%rbp),%rax
    af78:	48 89 45 a0          	mov    %rax,-0x60(%rbp)
    af7c:	48 8d 85 e8 f7 ff ff 	lea    -0x818(%rbp),%rax
    af83:	48 89 45 a8          	mov    %rax,-0x58(%rbp)
    af87:	48 c7 45 b0 00 00 00 	movq   $0x0,-0x50(%rbp)
    af8e:	00 
    af8f:	48 8d 85 e8 f7 ff ff 	lea    -0x818(%rbp),%rax
    af96:	48 89 45 b8          	mov    %rax,-0x48(%rbp)
    af9a:	48 8d 85 e8 f7 ff ff 	lea    -0x818(%rbp),%rax
    afa1:	48 89 45 c0          	mov    %rax,-0x40(%rbp)
    afa5:	48 8d 85 e8 f7 ff ff 	lea    -0x818(%rbp),%rax
    afac:	48 89 45 c8          	mov    %rax,-0x38(%rbp)
    afb0:	48 8d 85 e8 f7 ff ff 	lea    -0x818(%rbp),%rax
    afb7:	48 89 45 d0          	mov    %rax,-0x30(%rbp)
    afbb:	48 8d 85 e8 f7 ff ff 	lea    -0x818(%rbp),%rax
    afc2:	48 89 45 d8          	mov    %rax,-0x28(%rbp)
    afc6:	48 8d 85 e8 f7 ff ff 	lea    -0x818(%rbp),%rax
    afcd:	48 89 45 e0          	mov    %rax,-0x20(%rbp)
    afd1:	48 c7 45 e8 00 00 00 	movq   $0x0,-0x18(%rbp)
    afd8:	00 
    afd9:	48 8d 85 70 f8 ff ff 	lea    -0x790(%rbp),%rax
    afe0:	48 05 c0 04 00 00    	add    $0x4c0,%rax
    afe6:	48 89 85 f0 f7 ff ff 	mov    %rax,-0x810(%rbp)
    afed:	48 c7 85 f8 f7 ff ff 	movq   $0x0,-0x808(%rbp)
    aff4:	00 00 00 00 
    aff8:	48 8d 05 23 62 00 00 	lea    0x6223(%rip),%rax        # 11222 <g_111>
    afff:	48 89 85 08 f8 ff ff 	mov    %rax,-0x7f8(%rbp)
    b006:	48 c7 85 50 f8 ff ff 	movq   $0x0,-0x7b0(%rbp)
    b00d:	00 00 00 00 
    b011:	48 c7 85 58 f8 ff ff 	movq   $0x0,-0x7a8(%rbp)
    b018:	00 00 00 00 
    b01c:	48 c7 85 60 f8 ff ff 	movq   $0x0,-0x7a0(%rbp)
    b023:	00 00 00 00 
    b027:	48 c7 85 68 f8 ff ff 	movq   $0x0,-0x798(%rbp)
    b02e:	00 00 00 00 
    b032:	48 8d 05 27 88 00 00 	lea    0x8827(%rip),%rax        # 13860 <g_58>
    b039:	48 89 85 00 f8 ff ff 	mov    %rax,-0x800(%rbp)
    b040:	48 c7 85 10 f8 ff ff 	movq   $0x0,-0x7f0(%rbp)
    b047:	00 00 00 00 
    b04b:	48 8d 85 00 f8 ff ff 	lea    -0x800(%rbp),%rax
    b052:	48 89 85 18 f8 ff ff 	mov    %rax,-0x7e8(%rbp)
    b059:	48 8d 05 f0 5f 00 00 	lea    0x5ff0(%rip),%rax        # 11050 <g_61+0x10>
    b060:	48 89 85 20 f8 ff ff 	mov    %rax,-0x7e0(%rbp)
    b067:	c7 85 e4 f7 ff ff 00 	movl   $0x0,-0x81c(%rbp)
    b06e:	00 00 00 
    b071:	eb 1e                	jmp    b091 <func_45+0xd6f>
    b073:	8b 85 e4 f7 ff ff    	mov    -0x81c(%rbp),%eax
    b079:	48 98                	cltq   
    b07b:	48 8d 95 f0 f7 ff ff 	lea    -0x810(%rbp),%rdx
    b082:	48 89 94 c5 30 f8 ff 	mov    %rdx,-0x7d0(%rbp,%rax,8)
    b089:	ff 
    b08a:	83 85 e4 f7 ff ff 01 	addl   $0x1,-0x81c(%rbp)
    b091:	83 bd e4 f7 ff ff 03 	cmpl   $0x3,-0x81c(%rbp)
    b098:	7e d9                	jle    b073 <func_45+0xd51>
    b09a:	c7 85 e4 f7 ff ff 00 	movl   $0x0,-0x81c(%rbp)
    b0a1:	00 00 00 
    b0a4:	eb 1b                	jmp    b0c1 <func_45+0xd9f>
    b0a6:	8b 85 e4 f7 ff ff    	mov    -0x81c(%rbp),%eax
    b0ac:	48 98                	cltq   
    b0ae:	48 c7 84 c5 28 f8 ff 	movq   $0x0,-0x7d8(%rbp,%rax,8)
    b0b5:	ff 00 00 00 00 
    b0ba:	83 85 e4 f7 ff ff 01 	addl   $0x1,-0x81c(%rbp)
    b0c1:	83 bd e4 f7 ff ff 00 	cmpl   $0x0,-0x81c(%rbp)
    b0c8:	7e dc                	jle    b0a6 <func_45+0xd84>
    b0ca:	48 c7 05 8b 88 00 00 	movq   $0x0,0x888b(%rip)        # 13960 <g_119>
    b0d1:	00 00 00 00 
    b0d5:	48 8b 85 f0 f7 ff ff 	mov    -0x810(%rbp),%rax
    b0dc:	48 8b 95 60 f8 ff ff 	mov    -0x7a0(%rbp),%rdx
    b0e3:	48 89 10             	mov    %rdx,(%rax)
    b0e6:	48 8b 08             	mov    (%rax),%rcx
    b0e9:	48 8b 95 00 f8 ff ff 	mov    -0x800(%rbp),%rdx
    b0f0:	48 8b 85 18 f8 ff ff 	mov    -0x7e8(%rbp),%rax
    b0f7:	48 89 10             	mov    %rdx,(%rax)
    b0fa:	48 8b 85 18 f8 ff ff 	mov    -0x7e8(%rbp),%rax
    b101:	48 8b 00             	mov    (%rax),%rax
    b104:	48 39 c1             	cmp    %rax,%rcx
    b107:	0f 95 c0             	setne  %al
    b10a:	0f b6 d0             	movzbl %al,%edx
    b10d:	48 8b 85 20 f8 ff ff 	mov    -0x7e0(%rbp),%rax
    b114:	48 89 10             	mov    %rdx,(%rax)
    b117:	0f b7 05 68 60 00 00 	movzwl 0x6068(%rip),%eax        # 11186 <g_99+0x126>
    b11e:	89 c2                	mov    %eax,%edx
    b120:	48 8b 85 08 f8 ff ff 	mov    -0x7f8(%rbp),%rax
    b127:	66 89 10             	mov    %dx,(%rax)
    b12a:	48 8b 85 08 f8 ff ff 	mov    -0x7f8(%rbp),%rax
    b131:	0f b7 00             	movzwl (%rax),%eax
    b134:	0f b7 c0             	movzwl %ax,%eax
    b137:	be 00 00 00 00       	mov    $0x0,%esi
    b13c:	89 c7                	mov    %eax,%edi
    b13e:	e8 bc ab ff ff       	callq  5cff <safe_add_func_uint16_t_u_u>
    b143:	0f b7 d0             	movzwl %ax,%edx
    b146:	8b 05 e4 5e 00 00    	mov    0x5ee4(%rip),%eax        # 11030 <g_30>
    b14c:	21 d0                	and    %edx,%eax
    b14e:	89 05 dc 5e 00 00    	mov    %eax,0x5edc(%rip)        # 11030 <g_30>
    b154:	8b 05 e6 5e 00 00    	mov    0x5ee6(%rip),%eax        # 11040 <g_61>
    b15a:	48 98                	cltq   
    b15c:	48 8b 4d f8          	mov    -0x8(%rbp),%rcx
    b160:	64 48 33 0c 25 28 00 	xor    %fs:0x28,%rcx
    b167:	00 00 
    b169:	74 05                	je     b170 <func_45+0xe4e>
    b16b:	e8 00 9f ff ff       	callq  5070 <__stack_chk_fail@plt>
    b170:	c9                   	leaveq 
    b171:	c3                   	retq   

000000000000b172 <func_50>:
    b172:	f3 0f 1e fa          	endbr64 
    b176:	55                   	push   %rbp
    b177:	48 89 e5             	mov    %rsp,%rbp
    b17a:	41 57                	push   %r15
    b17c:	41 56                	push   %r14
    b17e:	41 55                	push   %r13
    b180:	41 54                	push   %r12
    b182:	53                   	push   %rbx
    b183:	48 81 ec 08 01 00 00 	sub    $0x108,%rsp
    b18a:	89 bd ec fe ff ff    	mov    %edi,-0x114(%rbp)
    b190:	89 f0                	mov    %esi,%eax
    b192:	88 85 e8 fe ff ff    	mov    %al,-0x118(%rbp)
    b198:	64 48 8b 04 25 28 00 	mov    %fs:0x28,%rax
    b19f:	00 00 
    b1a1:	48 89 45 c8          	mov    %rax,-0x38(%rbp)
    b1a5:	31 c0                	xor    %eax,%eax
    b1a7:	c7 85 10 ff ff ff 62 	movl   $0x79b99862,-0xf0(%rbp)
    b1ae:	98 b9 79 
    b1b1:	c7 85 14 ff ff ff 62 	movl   $0x79b99862,-0xec(%rbp)
    b1b8:	98 b9 79 
    b1bb:	c7 85 18 ff ff ff 62 	movl   $0x79b99862,-0xe8(%rbp)
    b1c2:	98 b9 79 
    b1c5:	c7 85 1c ff ff ff 01 	movl   $0x1,-0xe4(%rbp)
    b1cc:	00 00 00 
    b1cf:	c7 85 20 ff ff ff 01 	movl   $0x1,-0xe0(%rbp)
    b1d6:	00 00 00 
    b1d9:	c7 85 24 ff ff ff 01 	movl   $0x1,-0xdc(%rbp)
    b1e0:	00 00 00 
    b1e3:	c7 85 28 ff ff ff 62 	movl   $0x79b99862,-0xd8(%rbp)
    b1ea:	98 b9 79 
    b1ed:	c7 85 2c ff ff ff 62 	movl   $0x79b99862,-0xd4(%rbp)
    b1f4:	98 b9 79 
    b1f7:	c7 85 30 ff ff ff 62 	movl   $0x79b99862,-0xd0(%rbp)
    b1fe:	98 b9 79 
    b201:	48 8d 05 28 5e 00 00 	lea    0x5e28(%rip),%rax        # 11030 <g_30>
    b208:	48 89 85 70 ff ff ff 	mov    %rax,-0x90(%rbp)
    b20f:	48 c7 85 78 ff ff ff 	movq   $0x0,-0x88(%rbp)
    b216:	00 00 00 00 
    b21a:	48 8d 05 0f 5e 00 00 	lea    0x5e0f(%rip),%rax        # 11030 <g_30>
    b221:	48 89 45 80          	mov    %rax,-0x80(%rbp)
    b225:	48 c7 45 88 00 00 00 	movq   $0x0,-0x78(%rbp)
    b22c:	00 
    b22d:	48 8d 05 fc 5d 00 00 	lea    0x5dfc(%rip),%rax        # 11030 <g_30>
    b234:	48 89 45 90          	mov    %rax,-0x70(%rbp)
    b238:	48 8d 05 f1 5d 00 00 	lea    0x5df1(%rip),%rax        # 11030 <g_30>
    b23f:	48 89 45 98          	mov    %rax,-0x68(%rbp)
    b243:	48 c7 45 a0 00 00 00 	movq   $0x0,-0x60(%rbp)
    b24a:	00 
    b24b:	48 8d 05 de 5d 00 00 	lea    0x5dde(%rip),%rax        # 11030 <g_30>
    b252:	48 89 45 a8          	mov    %rax,-0x58(%rbp)
    b256:	48 c7 45 b0 00 00 00 	movq   $0x0,-0x50(%rbp)
    b25d:	00 
    b25e:	48 8d 05 cb 5d 00 00 	lea    0x5dcb(%rip),%rax        # 11030 <g_30>
    b265:	48 89 45 b8          	mov    %rax,-0x48(%rbp)
    b269:	48 8d 05 16 5f 00 00 	lea    0x5f16(%rip),%rax        # 11186 <g_99+0x126>
    b270:	48 89 85 08 ff ff ff 	mov    %rax,-0xf8(%rbp)
    b277:	48 8d 05 ae 5d 00 00 	lea    0x5dae(%rip),%rax        # 1102c <g_17+0x4>
    b27e:	48 89 85 00 ff ff ff 	mov    %rax,-0x100(%rbp)
    b285:	48 8d 85 00 ff ff ff 	lea    -0x100(%rbp),%rax
    b28c:	48 89 85 40 ff ff ff 	mov    %rax,-0xc0(%rbp)
    b293:	48 8d 85 00 ff ff ff 	lea    -0x100(%rbp),%rax
    b29a:	48 89 85 48 ff ff ff 	mov    %rax,-0xb8(%rbp)
    b2a1:	48 8d 85 00 ff ff ff 	lea    -0x100(%rbp),%rax
    b2a8:	48 89 85 50 ff ff ff 	mov    %rax,-0xb0(%rbp)
    b2af:	48 8d 85 00 ff ff ff 	lea    -0x100(%rbp),%rax
    b2b6:	48 89 85 58 ff ff ff 	mov    %rax,-0xa8(%rbp)
    b2bd:	48 8d 85 00 ff ff ff 	lea    -0x100(%rbp),%rax
    b2c4:	48 89 85 60 ff ff ff 	mov    %rax,-0xa0(%rbp)
    b2cb:	48 8d 85 00 ff ff ff 	lea    -0x100(%rbp),%rax
    b2d2:	48 89 85 68 ff ff ff 	mov    %rax,-0x98(%rbp)
    b2d9:	c7 85 fc fe ff ff f6 	movl   $0xfffffff6,-0x104(%rbp)
    b2e0:	ff ff ff 
    b2e3:	c6 85 f9 fe ff ff 39 	movb   $0x39,-0x107(%rbp)
    b2ea:	c7 05 64 5d 00 00 00 	movl   $0x0,0x5d64(%rip)        # 11058 <g_66>
    b2f1:	00 00 00 
    b2f4:	90                   	nop
    b2f5:	8b 05 5d 5d 00 00    	mov    0x5d5d(%rip),%eax        # 11058 <g_66>
    b2fb:	83 f8 02             	cmp    $0x2,%eax
    b2fe:	77 39                	ja     b339 <func_50+0x1c7>
    b300:	66 c7 85 fa fe ff ff 	movw   $0xfff7,-0x106(%rbp)
    b307:	f7 ff 
    b309:	83 bd ec fe ff ff 00 	cmpl   $0x0,-0x114(%rbp)
    b310:	75 20                	jne    b332 <func_50+0x1c0>
    b312:	b8 83 ff ff ff       	mov    $0xffffff83,%eax
    b317:	84 c0                	test   %al,%al
    b319:	75 1a                	jne    b335 <func_50+0x1c3>
    b31b:	66 83 bd fa fe ff ff 	cmpw   $0x0,-0x106(%rbp)
    b322:	00 
    b323:	75 13                	jne    b338 <func_50+0x1c6>
    b325:	66 0f be 85 e8 fe ff 	movsbw -0x118(%rbp),%ax
    b32c:	ff 
    b32d:	e9 35 02 00 00       	jmpq   b567 <func_50+0x3f5>
    b332:	90                   	nop
    b333:	eb 04                	jmp    b339 <func_50+0x1c7>
    b335:	90                   	nop
    b336:	eb 01                	jmp    b339 <func_50+0x1c7>
    b338:	90                   	nop
    b339:	8b 85 ec fe ff ff    	mov    -0x114(%rbp),%eax
    b33f:	48 98                	cltq   
    b341:	48 89 c6             	mov    %rax,%rsi
    b344:	bf 01 00 00 00       	mov    $0x1,%edi
    b349:	e8 f3 a4 ff ff       	callq  5841 <safe_add_func_int64_t_s_s>
    b34e:	48 0f be 9d e8 fe ff 	movsbq -0x118(%rbp),%rbx
    b355:	ff 
    b356:	44 0f be a5 e8 fe ff 	movsbl -0x118(%rbp),%r12d
    b35d:	ff 
    b35e:	8b 05 dc 5c 00 00    	mov    0x5cdc(%rip),%eax        # 11040 <g_61>
    b364:	44 0f be e8          	movsbl %al,%r13d
    b368:	44 0f b6 b5 f9 fe ff 	movzbl -0x107(%rbp),%r14d
    b36f:	ff 
    b370:	0f b6 05 b8 5c 00 00 	movzbl 0x5cb8(%rip),%eax        # 1102f <g_17+0x7>
    b377:	66 98                	cbtw   
    b379:	44 0f b7 f8          	movzwl %ax,%r15d
    b37d:	8b 05 bd 5c 00 00    	mov    0x5cbd(%rip),%eax        # 11040 <g_61>
    b383:	48 98                	cltq   
    b385:	48 89 85 e0 fe ff ff 	mov    %rax,-0x120(%rbp)
    b38c:	0f be 85 e8 fe ff ff 	movsbl -0x118(%rbp),%eax
    b393:	be 01 00 00 00       	mov    $0x1,%esi
    b398:	89 c7                	mov    %eax,%edi
    b39a:	e8 73 9e ff ff       	callq  5212 <safe_mul_func_int8_t_s_s>
    b39f:	48 8b 95 08 ff ff ff 	mov    -0xf8(%rbp),%rdx
    b3a6:	0f b7 12             	movzwl (%rdx),%edx
    b3a9:	66 98                	cbtw   
    b3ab:	31 c2                	xor    %eax,%edx
    b3ad:	48 8b 85 08 ff ff ff 	mov    -0xf8(%rbp),%rax
    b3b4:	66 89 10             	mov    %dx,(%rax)
    b3b7:	48 8b 85 08 ff ff ff 	mov    -0xf8(%rbp),%rax
    b3be:	0f b7 00             	movzwl (%rax),%eax
    b3c1:	98                   	cwtl   
    b3c2:	89 85 dc fe ff ff    	mov    %eax,-0x124(%rbp)
    b3c8:	0f b6 05 5c 5c 00 00 	movzbl 0x5c5c(%rip),%eax        # 1102b <g_17+0x3>
    b3cf:	0f b6 c0             	movzbl %al,%eax
    b3d2:	89 85 d8 fe ff ff    	mov    %eax,-0x128(%rbp)
    b3d8:	48 8b 05 89 8e 00 00 	mov    0x8e89(%rip),%rax        # 14268 <g_106>
    b3df:	8b 85 ec fe ff ff    	mov    -0x114(%rbp),%eax
    b3e5:	0f bf d0             	movswl %ax,%edx
    b3e8:	48 8b 85 48 ff ff ff 	mov    -0xb8(%rbp),%rax
    b3ef:	48 8d 0d 6a 84 00 00 	lea    0x846a(%rip),%rcx        # 13860 <g_58>
    b3f6:	48 39 c8             	cmp    %rcx,%rax
    b3f9:	0f 95 c0             	setne  %al
    b3fc:	0f b6 c0             	movzbl %al,%eax
    b3ff:	89 d6                	mov    %edx,%esi
    b401:	89 c7                	mov    %eax,%edi
    b403:	e8 0e a0 ff ff       	callq  5416 <safe_mod_func_int16_t_s_s>
    b408:	0f b6 15 1f 5c 00 00 	movzbl 0x5c1f(%rip),%edx        # 1102e <g_17+0x6>
    b40f:	66 0f be d2          	movsbw %dl,%dx
    b413:	66 39 d0             	cmp    %dx,%ax
    b416:	7c 07                	jl     b41f <func_50+0x2ad>
    b418:	b8 01 00 00 00       	mov    $0x1,%eax
    b41d:	eb 05                	jmp    b424 <func_50+0x2b2>
    b41f:	b8 00 00 00 00       	mov    $0x0,%eax
    b424:	83 f8 01             	cmp    $0x1,%eax
    b427:	0f 95 c0             	setne  %al
    b42a:	0f b6 c0             	movzbl %al,%eax
    b42d:	8b 95 ec fe ff ff    	mov    -0x114(%rbp),%edx
    b433:	09 d0                	or     %edx,%eax
    b435:	66 89 05 e6 5d 00 00 	mov    %ax,0x5de6(%rip)        # 11222 <g_111>
    b43c:	48 8b 45 90          	mov    -0x70(%rbp),%rax
    b440:	48 85 c0             	test   %rax,%rax
    b443:	0f 95 c0             	setne  %al
    b446:	0f b6 c0             	movzbl %al,%eax
    b449:	be fd ff ff ff       	mov    $0xfffffffd,%esi
    b44e:	89 c7                	mov    %eax,%edi
    b450:	e8 7e 9f ff ff       	callq  53d3 <safe_sub_func_int16_t_s_s>
    b455:	98                   	cwtl   
    b456:	39 85 fc fe ff ff    	cmp    %eax,-0x104(%rbp)
    b45c:	0f 96 c0             	setbe  %al
    b45f:	0f b6 c0             	movzbl %al,%eax
    b462:	89 05 bc 5d 00 00    	mov    %eax,0x5dbc(%rip)        # 11224 <g_113>
    b468:	8b 05 b6 5d 00 00    	mov    0x5db6(%rip),%eax        # 11224 <g_113>
    b46e:	0f be c0             	movsbl %al,%eax
    b471:	8b 95 ec fe ff ff    	mov    -0x114(%rbp),%edx
    b477:	89 d6                	mov    %edx,%esi
    b479:	89 c7                	mov    %eax,%edi
    b47b:	e8 b5 9e ff ff       	callq  5335 <safe_rshift_func_int8_t_s_s>
    b480:	38 85 e8 fe ff ff    	cmp    %al,-0x118(%rbp)
    b486:	0f 94 c0             	sete   %al
    b489:	0f b6 c0             	movzbl %al,%eax
    b48c:	8b b5 d8 fe ff ff    	mov    -0x128(%rbp),%esi
    b492:	89 c7                	mov    %eax,%edi
    b494:	e8 15 a7 ff ff       	callq  5bae <safe_mod_func_uint8_t_u_u>
    b499:	0f b6 c0             	movzbl %al,%eax
    b49c:	33 85 dc fe ff ff    	xor    -0x124(%rbp),%eax
    b4a2:	48 98                	cltq   
    b4a4:	48 8b b5 e0 fe ff ff 	mov    -0x120(%rbp),%rsi
    b4ab:	48 89 c7             	mov    %rax,%rdi
    b4ae:	e8 44 a5 ff ff       	callq  59f7 <safe_div_func_int64_t_s_s>
    b4b3:	0f b7 c0             	movzwl %ax,%eax
    b4b6:	44 89 fe             	mov    %r15d,%esi
    b4b9:	89 c7                	mov    %eax,%edi
    b4bb:	e8 5f a8 ff ff       	callq  5d1f <safe_sub_func_uint16_t_u_u>
    b4c0:	0f b7 c0             	movzwl %ax,%eax
    b4c3:	4c 89 f6             	mov    %r14,%rsi
    b4c6:	48 89 c7             	mov    %rax,%rdi
    b4c9:	e8 da a3 ff ff       	callq  58a8 <safe_sub_func_int64_t_s_s>
    b4ce:	0f be c0             	movsbl %al,%eax
    b4d1:	44 89 ee             	mov    %r13d,%esi
    b4d4:	89 c7                	mov    %eax,%edi
    b4d6:	e8 8f 9d ff ff       	callq  526a <safe_div_func_int8_t_s_s>
    b4db:	0f be c0             	movsbl %al,%eax
    b4de:	be ff ff ff ff       	mov    $0xffffffff,%esi
    b4e3:	89 c7                	mov    %eax,%edi
    b4e5:	e8 0b 9f ff ff       	callq  53f5 <safe_mul_func_int16_t_s_s>
    b4ea:	0f be c0             	movsbl %al,%eax
    b4ed:	44 89 e6             	mov    %r12d,%esi
    b4f0:	89 c7                	mov    %eax,%edi
    b4f2:	e8 75 9e ff ff       	callq  536c <safe_rshift_func_int8_t_s_u>
    b4f7:	48 89 de             	mov    %rbx,%rsi
    b4fa:	bf 01 00 00 00       	mov    $0x1,%edi
    b4ff:	e8 f3 a4 ff ff       	callq  59f7 <safe_div_func_int64_t_s_s>
    b504:	48 85 c0             	test   %rax,%rax
    b507:	75 09                	jne    b512 <func_50+0x3a0>
    b509:	83 bd ec fe ff ff 00 	cmpl   $0x0,-0x114(%rbp)
    b510:	74 07                	je     b519 <func_50+0x3a7>
    b512:	b8 01 00 00 00       	mov    $0x1,%eax
    b517:	eb 05                	jmp    b51e <func_50+0x3ac>
    b519:	b8 00 00 00 00       	mov    $0x0,%eax
    b51e:	0f b6 c0             	movzbl %al,%eax
    b521:	be 08 00 00 00       	mov    $0x8,%esi
    b526:	89 c7                	mov    %eax,%edi
    b528:	e8 81 a6 ff ff       	callq  5bae <safe_mod_func_uint8_t_u_u>
    b52d:	48 0f be 95 e8 fe ff 	movsbq -0x118(%rbp),%rdx
    b534:	ff 
    b535:	8b 05 05 5b 00 00    	mov    0x5b05(%rip),%eax        # 11040 <g_61>
    b53b:	48 98                	cltq   
    b53d:	48 89 d6             	mov    %rdx,%rsi
    b540:	48 89 c7             	mov    %rax,%rdi
    b543:	e8 f9 a2 ff ff       	callq  5841 <safe_add_func_int64_t_s_s>
    b548:	48 85 c0             	test   %rax,%rax
    b54b:	0f 94 c0             	sete   %al
    b54e:	0f b6 d0             	movzbl %al,%edx
    b551:	8b 05 d9 5a 00 00    	mov    0x5ad9(%rip),%eax        # 11030 <g_30>
    b557:	09 d0                	or     %edx,%eax
    b559:	89 05 d1 5a 00 00    	mov    %eax,0x5ad1(%rip)        # 11030 <g_30>
    b55f:	66 0f be 85 e8 fe ff 	movsbw -0x118(%rbp),%ax
    b566:	ff 
    b567:	48 8b 5d c8          	mov    -0x38(%rbp),%rbx
    b56b:	64 48 33 1c 25 28 00 	xor    %fs:0x28,%rbx
    b572:	00 00 
    b574:	74 05                	je     b57b <func_50+0x409>
    b576:	e8 f5 9a ff ff       	callq  5070 <__stack_chk_fail@plt>
    b57b:	48 81 c4 08 01 00 00 	add    $0x108,%rsp
    b582:	5b                   	pop    %rbx
    b583:	41 5c                	pop    %r12
    b585:	41 5d                	pop    %r13
    b587:	41 5e                	pop    %r14
    b589:	41 5f                	pop    %r15
    b58b:	5d                   	pop    %rbp
    b58c:	c3                   	retq   

000000000000b58d <main>:
    b58d:	f3 0f 1e fa          	endbr64 
    b591:	55                   	push   %rbp
    b592:	48 89 e5             	mov    %rsp,%rbp
    b595:	48 83 ec 20          	sub    $0x20,%rsp
    b599:	89 7d ec             	mov    %edi,-0x14(%rbp)
    b59c:	48 89 75 e0          	mov    %rsi,-0x20(%rbp)
    b5a0:	c7 45 fc 00 00 00 00 	movl   $0x0,-0x4(%rbp)
    b5a7:	83 7d ec 02          	cmpl   $0x2,-0x14(%rbp)
    b5ab:	75 25                	jne    b5d2 <main+0x45>
    b5ad:	48 8b 45 e0          	mov    -0x20(%rbp),%rax
    b5b1:	48 83 c0 08          	add    $0x8,%rax
    b5b5:	48 8b 00             	mov    (%rax),%rax
    b5b8:	48 8d 35 71 2a 00 00 	lea    0x2a71(%rip),%rsi        # e030 <g_59+0xfdb>
    b5bf:	48 89 c7             	mov    %rax,%rdi
    b5c2:	e8 c9 9a ff ff       	callq  5090 <strcmp@plt>
    b5c7:	85 c0                	test   %eax,%eax
    b5c9:	75 07                	jne    b5d2 <main+0x45>
    b5cb:	c7 45 fc 01 00 00 00 	movl   $0x1,-0x4(%rbp)
    b5d2:	e8 b2 9b ff ff       	callq  5189 <platform_main_begin>
    b5d7:	e8 bc af ff ff       	callq  6598 <crc32_gentab>
    b5dc:	e8 d4 b1 ff ff       	callq  67b5 <func_1>
    b5e1:	c7 45 f0 00 00 00 00 	movl   $0x0,-0x10(%rbp)
    b5e8:	eb 46                	jmp    b630 <main+0xa3>
    b5ea:	8b 45 f0             	mov    -0x10(%rbp),%eax
    b5ed:	48 98                	cltq   
    b5ef:	48 8d 15 32 5a 00 00 	lea    0x5a32(%rip),%rdx        # 11028 <g_17>
    b5f6:	0f b6 04 10          	movzbl (%rax,%rdx,1),%eax
    b5fa:	48 0f be c0          	movsbq %al,%rax
    b5fe:	8b 55 fc             	mov    -0x4(%rbp),%edx
    b601:	48 8d 35 2a 2a 00 00 	lea    0x2a2a(%rip),%rsi        # e032 <g_59+0xfdd>
    b608:	48 89 c7             	mov    %rax,%rdi
    b60b:	e8 e3 b0 ff ff       	callq  66f3 <transparent_crc>
    b610:	83 7d fc 00          	cmpl   $0x0,-0x4(%rbp)
    b614:	74 16                	je     b62c <main+0x9f>
    b616:	8b 45 f0             	mov    -0x10(%rbp),%eax
    b619:	89 c6                	mov    %eax,%esi
    b61b:	48 8d 3d 18 2a 00 00 	lea    0x2a18(%rip),%rdi        # e03a <g_59+0xfe5>
    b622:	b8 00 00 00 00       	mov    $0x0,%eax
    b627:	e8 54 9a ff ff       	callq  5080 <printf@plt>
    b62c:	83 45 f0 01          	addl   $0x1,-0x10(%rbp)
    b630:	83 7d f0 07          	cmpl   $0x7,-0x10(%rbp)
    b634:	7e b4                	jle    b5ea <main+0x5d>
    b636:	8b 05 f4 59 00 00    	mov    0x59f4(%rip),%eax        # 11030 <g_30>
    b63c:	48 98                	cltq   
    b63e:	8b 55 fc             	mov    -0x4(%rbp),%edx
    b641:	48 8d 35 00 2a 00 00 	lea    0x2a00(%rip),%rsi        # e048 <g_59+0xff3>
    b648:	48 89 c7             	mov    %rax,%rdi
    b64b:	e8 a3 b0 ff ff       	callq  66f3 <transparent_crc>
    b650:	b8 cd ff ff ff       	mov    $0xffffffcd,%eax
    b655:	48 0f be c0          	movsbq %al,%rax
    b659:	8b 55 fc             	mov    -0x4(%rbp),%edx
    b65c:	48 8d 35 ea 29 00 00 	lea    0x29ea(%rip),%rsi        # e04d <g_59+0xff8>
    b663:	48 89 c7             	mov    %rax,%rdi
    b666:	e8 88 b0 ff ff       	callq  66f3 <transparent_crc>
    b66b:	b8 83 ff ff ff       	mov    $0xffffff83,%eax
    b670:	48 0f be c0          	movsbq %al,%rax
    b674:	8b 55 fc             	mov    -0x4(%rbp),%edx
    b677:	48 8d 35 d4 29 00 00 	lea    0x29d4(%rip),%rsi        # e052 <g_59+0xffd>
    b67e:	48 89 c7             	mov    %rax,%rdi
    b681:	e8 6d b0 ff ff       	callq  66f3 <transparent_crc>
    b686:	8b 05 b4 59 00 00    	mov    0x59b4(%rip),%eax        # 11040 <g_61>
    b68c:	48 98                	cltq   
    b68e:	8b 55 fc             	mov    -0x4(%rbp),%edx
    b691:	48 8d 35 bf 29 00 00 	lea    0x29bf(%rip),%rsi        # e057 <g_59+0x1002>
    b698:	48 89 c7             	mov    %rax,%rdi
    b69b:	e8 53 b0 ff ff       	callq  66f3 <transparent_crc>
    b6a0:	8b 05 b2 59 00 00    	mov    0x59b2(%rip),%eax        # 11058 <g_66>
    b6a6:	89 c1                	mov    %eax,%ecx
    b6a8:	8b 45 fc             	mov    -0x4(%rbp),%eax
    b6ab:	89 c2                	mov    %eax,%edx
    b6ad:	48 8d 35 ab 29 00 00 	lea    0x29ab(%rip),%rsi        # e05f <g_59+0x100a>
    b6b4:	48 89 cf             	mov    %rcx,%rdi
    b6b7:	e8 37 b0 ff ff       	callq  66f3 <transparent_crc>
    b6bc:	c7 45 f0 00 00 00 00 	movl   $0x0,-0x10(%rbp)
    b6c3:	e9 b6 00 00 00       	jmpq   b77e <main+0x1f1>
    b6c8:	c7 45 f4 00 00 00 00 	movl   $0x0,-0xc(%rbp)
    b6cf:	e9 9c 00 00 00       	jmpq   b770 <main+0x1e3>
    b6d4:	c7 45 f8 00 00 00 00 	movl   $0x0,-0x8(%rbp)
    b6db:	e9 82 00 00 00       	jmpq   b762 <main+0x1d5>
    b6e0:	8b 45 f8             	mov    -0x8(%rbp),%eax
    b6e3:	48 63 f0             	movslq %eax,%rsi
    b6e6:	8b 45 f0             	mov    -0x10(%rbp),%eax
    b6e9:	48 63 d0             	movslq %eax,%rdx
    b6ec:	8b 45 f4             	mov    -0xc(%rbp),%eax
    b6ef:	48 63 c8             	movslq %eax,%rcx
    b6f2:	48 89 d0             	mov    %rdx,%rax
    b6f5:	48 c1 e0 02          	shl    $0x2,%rax
    b6f9:	48 01 d0             	add    %rdx,%rax
    b6fc:	48 8d 14 85 00 00 00 	lea    0x0(,%rax,4),%rdx
    b703:	00 
    b704:	48 01 d0             	add    %rdx,%rax
    b707:	48 89 ca             	mov    %rcx,%rdx
    b70a:	48 c1 e2 02          	shl    $0x2,%rdx
    b70e:	48 01 ca             	add    %rcx,%rdx
    b711:	48 01 d0             	add    %rdx,%rax
    b714:	48 01 f0             	add    %rsi,%rax
    b717:	48 8d 14 00          	lea    (%rax,%rax,1),%rdx
    b71b:	48 8d 05 3e 59 00 00 	lea    0x593e(%rip),%rax        # 11060 <g_99>
    b722:	0f b7 04 02          	movzwl (%rdx,%rax,1),%eax
    b726:	48 0f bf c0          	movswq %ax,%rax
    b72a:	8b 55 fc             	mov    -0x4(%rbp),%edx
    b72d:	48 8d 35 30 29 00 00 	lea    0x2930(%rip),%rsi        # e064 <g_59+0x100f>
    b734:	48 89 c7             	mov    %rax,%rdi
    b737:	e8 b7 af ff ff       	callq  66f3 <transparent_crc>
    b73c:	83 7d fc 00          	cmpl   $0x0,-0x4(%rbp)
    b740:	74 1c                	je     b75e <main+0x1d1>
    b742:	8b 4d f8             	mov    -0x8(%rbp),%ecx
    b745:	8b 55 f4             	mov    -0xc(%rbp),%edx
    b748:	8b 45 f0             	mov    -0x10(%rbp),%eax
    b74b:	89 c6                	mov    %eax,%esi
    b74d:	48 8d 3d 1e 29 00 00 	lea    0x291e(%rip),%rdi        # e072 <g_59+0x101d>
    b754:	b8 00 00 00 00       	mov    $0x0,%eax
    b759:	e8 22 99 ff ff       	callq  5080 <printf@plt>
    b75e:	83 45 f8 01          	addl   $0x1,-0x8(%rbp)
    b762:	83 7d f8 04          	cmpl   $0x4,-0x8(%rbp)
    b766:	0f 8e 74 ff ff ff    	jle    b6e0 <main+0x153>
    b76c:	83 45 f4 01          	addl   $0x1,-0xc(%rbp)
    b770:	83 7d f4 04          	cmpl   $0x4,-0xc(%rbp)
    b774:	0f 8e 5a ff ff ff    	jle    b6d4 <main+0x147>
    b77a:	83 45 f0 01          	addl   $0x1,-0x10(%rbp)
    b77e:	83 7d f0 08          	cmpl   $0x8,-0x10(%rbp)
    b782:	0f 8e 40 ff ff ff    	jle    b6c8 <main+0x13b>
    b788:	0f b7 05 93 5a 00 00 	movzwl 0x5a93(%rip),%eax        # 11222 <g_111>
    b78f:	0f b7 c0             	movzwl %ax,%eax
    b792:	8b 55 fc             	mov    -0x4(%rbp),%edx
    b795:	48 8d 35 ec 28 00 00 	lea    0x28ec(%rip),%rsi        # e088 <g_59+0x1033>
    b79c:	48 89 c7             	mov    %rax,%rdi
    b79f:	e8 4f af ff ff       	callq  66f3 <transparent_crc>
    b7a4:	8b 05 7a 5a 00 00    	mov    0x5a7a(%rip),%eax        # 11224 <g_113>
    b7aa:	89 c1                	mov    %eax,%ecx
    b7ac:	8b 45 fc             	mov    -0x4(%rbp),%eax
    b7af:	89 c2                	mov    %eax,%edx
    b7b1:	48 8d 35 d6 28 00 00 	lea    0x28d6(%rip),%rsi        # e08e <g_59+0x1039>
    b7b8:	48 89 cf             	mov    %rcx,%rdi
    b7bb:	e8 33 af ff ff       	callq  66f3 <transparent_crc>
    b7c0:	c7 45 f0 00 00 00 00 	movl   $0x0,-0x10(%rbp)
    b7c7:	eb 7a                	jmp    b843 <main+0x2b6>
    b7c9:	c7 45 f4 00 00 00 00 	movl   $0x0,-0xc(%rbp)
    b7d0:	eb 67                	jmp    b839 <main+0x2ac>
    b7d2:	8b 45 f4             	mov    -0xc(%rbp),%eax
    b7d5:	48 63 c8             	movslq %eax,%rcx
    b7d8:	8b 45 f0             	mov    -0x10(%rbp),%eax
    b7db:	48 63 d0             	movslq %eax,%rdx
    b7de:	48 89 d0             	mov    %rdx,%rax
    b7e1:	48 c1 e0 02          	shl    $0x2,%rax
    b7e5:	48 01 d0             	add    %rdx,%rax
    b7e8:	48 01 c0             	add    %rax,%rax
    b7eb:	48 01 c8             	add    %rcx,%rax
    b7ee:	48 8d 14 85 00 00 00 	lea    0x0(,%rax,4),%rdx
    b7f5:	00 
    b7f6:	48 8d 05 43 5a 00 00 	lea    0x5a43(%rip),%rax        # 11240 <g_143>
    b7fd:	8b 04 02             	mov    (%rdx,%rax,1),%eax
    b800:	89 c1                	mov    %eax,%ecx
    b802:	8b 45 fc             	mov    -0x4(%rbp),%eax
    b805:	89 c2                	mov    %eax,%edx
    b807:	48 8d 35 86 28 00 00 	lea    0x2886(%rip),%rsi        # e094 <g_59+0x103f>
    b80e:	48 89 cf             	mov    %rcx,%rdi
    b811:	e8 dd ae ff ff       	callq  66f3 <transparent_crc>
    b816:	83 7d fc 00          	cmpl   $0x0,-0x4(%rbp)
    b81a:	74 19                	je     b835 <main+0x2a8>
    b81c:	8b 55 f4             	mov    -0xc(%rbp),%edx
    b81f:	8b 45 f0             	mov    -0x10(%rbp),%eax
    b822:	89 c6                	mov    %eax,%esi
    b824:	48 8d 3d 75 28 00 00 	lea    0x2875(%rip),%rdi        # e0a0 <g_59+0x104b>
    b82b:	b8 00 00 00 00       	mov    $0x0,%eax
    b830:	e8 4b 98 ff ff       	callq  5080 <printf@plt>
    b835:	83 45 f4 01          	addl   $0x1,-0xc(%rbp)
    b839:	83 7d f4 09          	cmpl   $0x9,-0xc(%rbp)
    b83d:	7e 93                	jle    b7d2 <main+0x245>
    b83f:	83 45 f0 01          	addl   $0x1,-0x10(%rbp)
    b843:	83 7d f0 02          	cmpl   $0x2,-0x10(%rbp)
    b847:	7e 80                	jle    b7c9 <main+0x23c>
    b849:	c7 45 f0 00 00 00 00 	movl   $0x0,-0x10(%rbp)
    b850:	e9 f6 00 00 00       	jmpq   b94b <main+0x3be>
    b855:	8b 45 f0             	mov    -0x10(%rbp),%eax
    b858:	48 63 d0             	movslq %eax,%rdx
    b85b:	48 89 d0             	mov    %rdx,%rax
    b85e:	48 01 c0             	add    %rax,%rax
    b861:	48 01 d0             	add    %rdx,%rax
    b864:	48 c1 e0 03          	shl    $0x3,%rax
    b868:	48 89 c2             	mov    %rax,%rdx
    b86b:	48 8d 05 4e 5a 00 00 	lea    0x5a4e(%rip),%rax        # 112c0 <g_160>
    b872:	8b 04 02             	mov    (%rdx,%rax,1),%eax
    b875:	48 98                	cltq   
    b877:	8b 55 fc             	mov    -0x4(%rbp),%edx
    b87a:	48 8d 35 31 28 00 00 	lea    0x2831(%rip),%rsi        # e0b2 <g_59+0x105d>
    b881:	48 89 c7             	mov    %rax,%rdi
    b884:	e8 6a ae ff ff       	callq  66f3 <transparent_crc>
    b889:	8b 45 f0             	mov    -0x10(%rbp),%eax
    b88c:	48 63 d0             	movslq %eax,%rdx
    b88f:	48 89 d0             	mov    %rdx,%rax
    b892:	48 01 c0             	add    %rax,%rax
    b895:	48 01 d0             	add    %rdx,%rax
    b898:	48 c1 e0 03          	shl    $0x3,%rax
    b89c:	48 89 c2             	mov    %rax,%rdx
    b89f:	48 8d 05 1e 5a 00 00 	lea    0x5a1e(%rip),%rax        # 112c4 <g_160+0x4>
    b8a6:	8b 04 02             	mov    (%rdx,%rax,1),%eax
    b8a9:	89 c1                	mov    %eax,%ecx
    b8ab:	8b 45 fc             	mov    -0x4(%rbp),%eax
    b8ae:	89 c2                	mov    %eax,%edx
    b8b0:	48 8d 35 07 28 00 00 	lea    0x2807(%rip),%rsi        # e0be <g_59+0x1069>
    b8b7:	48 89 cf             	mov    %rcx,%rdi
    b8ba:	e8 34 ae ff ff       	callq  66f3 <transparent_crc>
    b8bf:	8b 45 f0             	mov    -0x10(%rbp),%eax
    b8c2:	48 63 d0             	movslq %eax,%rdx
    b8c5:	48 89 d0             	mov    %rdx,%rax
    b8c8:	48 01 c0             	add    %rax,%rax
    b8cb:	48 01 d0             	add    %rdx,%rax
    b8ce:	48 c1 e0 03          	shl    $0x3,%rax
    b8d2:	48 89 c2             	mov    %rax,%rdx
    b8d5:	48 8d 05 ec 59 00 00 	lea    0x59ec(%rip),%rax        # 112c8 <g_160+0x8>
    b8dc:	8b 04 02             	mov    (%rdx,%rax,1),%eax
    b8df:	48 98                	cltq   
    b8e1:	8b 55 fc             	mov    -0x4(%rbp),%edx
    b8e4:	48 8d 35 df 27 00 00 	lea    0x27df(%rip),%rsi        # e0ca <g_59+0x1075>
    b8eb:	48 89 c7             	mov    %rax,%rdi
    b8ee:	e8 00 ae ff ff       	callq  66f3 <transparent_crc>
    b8f3:	8b 45 f0             	mov    -0x10(%rbp),%eax
    b8f6:	48 63 d0             	movslq %eax,%rdx
    b8f9:	48 89 d0             	mov    %rdx,%rax
    b8fc:	48 01 c0             	add    %rax,%rax
    b8ff:	48 01 d0             	add    %rdx,%rax
    b902:	48 c1 e0 03          	shl    $0x3,%rax
    b906:	48 89 c2             	mov    %rax,%rdx
    b909:	48 8d 05 c0 59 00 00 	lea    0x59c0(%rip),%rax        # 112d0 <g_160+0x10>
    b910:	48 8b 04 02          	mov    (%rdx,%rax,1),%rax
    b914:	48 89 c1             	mov    %rax,%rcx
    b917:	8b 45 fc             	mov    -0x4(%rbp),%eax
    b91a:	89 c2                	mov    %eax,%edx
    b91c:	48 8d 35 b3 27 00 00 	lea    0x27b3(%rip),%rsi        # e0d6 <g_59+0x1081>
    b923:	48 89 cf             	mov    %rcx,%rdi
    b926:	e8 c8 ad ff ff       	callq  66f3 <transparent_crc>
    b92b:	83 7d fc 00          	cmpl   $0x0,-0x4(%rbp)
    b92f:	74 16                	je     b947 <main+0x3ba>
    b931:	8b 45 f0             	mov    -0x10(%rbp),%eax
    b934:	89 c6                	mov    %eax,%esi
    b936:	48 8d 3d fd 26 00 00 	lea    0x26fd(%rip),%rdi        # e03a <g_59+0xfe5>
    b93d:	b8 00 00 00 00       	mov    $0x0,%eax
    b942:	e8 39 97 ff ff       	callq  5080 <printf@plt>
    b947:	83 45 f0 01          	addl   $0x1,-0x10(%rbp)
    b94b:	83 7d f0 05          	cmpl   $0x5,-0x10(%rbp)
    b94f:	0f 8e 00 ff ff ff    	jle    b855 <main+0x2c8>
    b955:	48 8b 05 f4 59 00 00 	mov    0x59f4(%rip),%rax        # 11350 <g_165>
    b95c:	48 89 c1             	mov    %rax,%rcx
    b95f:	8b 45 fc             	mov    -0x4(%rbp),%eax
    b962:	89 c2                	mov    %eax,%edx
    b964:	48 8d 35 77 27 00 00 	lea    0x2777(%rip),%rsi        # e0e2 <g_59+0x108d>
    b96b:	48 89 cf             	mov    %rcx,%rdi
    b96e:	e8 80 ad ff ff       	callq  66f3 <transparent_crc>
    b973:	c7 45 f0 00 00 00 00 	movl   $0x0,-0x10(%rbp)
    b97a:	eb 49                	jmp    b9c5 <main+0x438>
    b97c:	8b 45 f0             	mov    -0x10(%rbp),%eax
    b97f:	48 98                	cltq   
    b981:	48 8d 14 00          	lea    (%rax,%rax,1),%rdx
    b985:	48 8d 05 cc 59 00 00 	lea    0x59cc(%rip),%rax        # 11358 <g_175>
    b98c:	0f b7 04 02          	movzwl (%rdx,%rax,1),%eax
    b990:	0f b7 c0             	movzwl %ax,%eax
    b993:	8b 55 fc             	mov    -0x4(%rbp),%edx
    b996:	48 8d 35 4b 27 00 00 	lea    0x274b(%rip),%rsi        # e0e8 <g_59+0x1093>
    b99d:	48 89 c7             	mov    %rax,%rdi
    b9a0:	e8 4e ad ff ff       	callq  66f3 <transparent_crc>
    b9a5:	83 7d fc 00          	cmpl   $0x0,-0x4(%rbp)
    b9a9:	74 16                	je     b9c1 <main+0x434>
    b9ab:	8b 45 f0             	mov    -0x10(%rbp),%eax
    b9ae:	89 c6                	mov    %eax,%esi
    b9b0:	48 8d 3d 83 26 00 00 	lea    0x2683(%rip),%rdi        # e03a <g_59+0xfe5>
    b9b7:	b8 00 00 00 00       	mov    $0x0,%eax
    b9bc:	e8 bf 96 ff ff       	callq  5080 <printf@plt>
    b9c1:	83 45 f0 01          	addl   $0x1,-0x10(%rbp)
    b9c5:	83 7d f0 01          	cmpl   $0x1,-0x10(%rbp)
    b9c9:	7e b1                	jle    b97c <main+0x3ef>
    b9cb:	48 8b 05 8e 59 00 00 	mov    0x598e(%rip),%rax        # 11360 <g_178>
    b9d2:	48 89 c1             	mov    %rax,%rcx
    b9d5:	8b 45 fc             	mov    -0x4(%rbp),%eax
    b9d8:	89 c2                	mov    %eax,%edx
    b9da:	48 8d 35 10 27 00 00 	lea    0x2710(%rip),%rsi        # e0f1 <g_59+0x109c>
    b9e1:	48 89 cf             	mov    %rcx,%rdi
    b9e4:	e8 0a ad ff ff       	callq  66f3 <transparent_crc>
    b9e9:	48 8b 05 78 59 00 00 	mov    0x5978(%rip),%rax        # 11368 <g_180>
    b9f0:	8b 55 fc             	mov    -0x4(%rbp),%edx
    b9f3:	48 8d 35 fd 26 00 00 	lea    0x26fd(%rip),%rsi        # e0f7 <g_59+0x10a2>
    b9fa:	48 89 c7             	mov    %rax,%rdi
    b9fd:	e8 f1 ac ff ff       	callq  66f3 <transparent_crc>
    ba02:	0f b6 05 67 59 00 00 	movzbl 0x5967(%rip),%eax        # 11370 <g_195>
    ba09:	0f b6 c0             	movzbl %al,%eax
    ba0c:	8b 55 fc             	mov    -0x4(%rbp),%edx
    ba0f:	48 8d 35 e7 26 00 00 	lea    0x26e7(%rip),%rsi        # e0fd <g_59+0x10a8>
    ba16:	48 89 c7             	mov    %rax,%rdi
    ba19:	e8 d5 ac ff ff       	callq  66f3 <transparent_crc>
    ba1e:	8b 05 5c 59 00 00    	mov    0x595c(%rip),%eax        # 11380 <g_208>
    ba24:	48 98                	cltq   
    ba26:	8b 55 fc             	mov    -0x4(%rbp),%edx
    ba29:	48 8d 35 d3 26 00 00 	lea    0x26d3(%rip),%rsi        # e103 <g_59+0x10ae>
    ba30:	48 89 c7             	mov    %rax,%rdi
    ba33:	e8 bb ac ff ff       	callq  66f3 <transparent_crc>
    ba38:	8b 05 46 59 00 00    	mov    0x5946(%rip),%eax        # 11384 <g_208+0x4>
    ba3e:	89 c1                	mov    %eax,%ecx
    ba40:	8b 45 fc             	mov    -0x4(%rbp),%eax
    ba43:	89 c2                	mov    %eax,%edx
    ba45:	48 8d 35 c0 26 00 00 	lea    0x26c0(%rip),%rsi        # e10c <g_59+0x10b7>
    ba4c:	48 89 cf             	mov    %rcx,%rdi
    ba4f:	e8 9f ac ff ff       	callq  66f3 <transparent_crc>
    ba54:	8b 05 2e 59 00 00    	mov    0x592e(%rip),%eax        # 11388 <g_208+0x8>
    ba5a:	48 98                	cltq   
    ba5c:	8b 55 fc             	mov    -0x4(%rbp),%edx
    ba5f:	48 8d 35 af 26 00 00 	lea    0x26af(%rip),%rsi        # e115 <g_59+0x10c0>
    ba66:	48 89 c7             	mov    %rax,%rdi
    ba69:	e8 85 ac ff ff       	callq  66f3 <transparent_crc>
    ba6e:	48 8b 05 1b 59 00 00 	mov    0x591b(%rip),%rax        # 11390 <g_208+0x10>
    ba75:	48 89 c1             	mov    %rax,%rcx
    ba78:	8b 45 fc             	mov    -0x4(%rbp),%eax
    ba7b:	89 c2                	mov    %eax,%edx
    ba7d:	48 8d 35 9a 26 00 00 	lea    0x269a(%rip),%rsi        # e11e <g_59+0x10c9>
    ba84:	48 89 cf             	mov    %rcx,%rdi
    ba87:	e8 67 ac ff ff       	callq  66f3 <transparent_crc>
    ba8c:	8b 05 0e 59 00 00    	mov    0x590e(%rip),%eax        # 113a0 <g_217>
    ba92:	48 98                	cltq   
    ba94:	8b 55 fc             	mov    -0x4(%rbp),%edx
    ba97:	48 8d 35 89 26 00 00 	lea    0x2689(%rip),%rsi        # e127 <g_59+0x10d2>
    ba9e:	48 89 c7             	mov    %rax,%rdi
    baa1:	e8 4d ac ff ff       	callq  66f3 <transparent_crc>
    baa6:	8b 05 14 59 00 00    	mov    0x5914(%rip),%eax        # 113c0 <g_291>
    baac:	48 98                	cltq   
    baae:	8b 55 fc             	mov    -0x4(%rbp),%edx
    bab1:	48 8d 35 78 26 00 00 	lea    0x2678(%rip),%rsi        # e130 <g_59+0x10db>
    bab8:	48 89 c7             	mov    %rax,%rdi
    babb:	e8 33 ac ff ff       	callq  66f3 <transparent_crc>
    bac0:	c7 45 f0 00 00 00 00 	movl   $0x0,-0x10(%rbp)
    bac7:	e9 c1 00 00 00       	jmpq   bb8d <main+0x600>
    bacc:	c7 45 f4 00 00 00 00 	movl   $0x0,-0xc(%rbp)
    bad3:	e9 a7 00 00 00       	jmpq   bb7f <main+0x5f2>
    bad8:	c7 45 f8 00 00 00 00 	movl   $0x0,-0x8(%rbp)
    badf:	e9 8d 00 00 00       	jmpq   bb71 <main+0x5e4>
    bae4:	8b 45 f8             	mov    -0x8(%rbp),%eax
    bae7:	48 98                	cltq   
    bae9:	8b 55 f4             	mov    -0xc(%rbp),%edx
    baec:	48 63 f2             	movslq %edx,%rsi
    baef:	8b 55 f0             	mov    -0x10(%rbp),%edx
    baf2:	48 63 ca             	movslq %edx,%rcx
    baf5:	48 89 c2             	mov    %rax,%rdx
    baf8:	48 01 d2             	add    %rdx,%rdx
    bafb:	48 01 c2             	add    %rax,%rdx
    bafe:	48 8d 04 d5 00 00 00 	lea    0x0(,%rdx,8),%rax
    bb05:	00 
    bb06:	48 89 c2             	mov    %rax,%rdx
    bb09:	48 89 f0             	mov    %rsi,%rax
    bb0c:	48 c1 e0 03          	shl    $0x3,%rax
    bb10:	48 01 f0             	add    %rsi,%rax
    bb13:	48 c1 e0 04          	shl    $0x4,%rax
    bb17:	48 01 c2             	add    %rax,%rdx
    bb1a:	48 89 c8             	mov    %rcx,%rax
    bb1d:	48 c1 e0 03          	shl    $0x3,%rax
    bb21:	48 01 c8             	add    %rcx,%rax
    bb24:	48 c1 e0 04          	shl    $0x4,%rax
    bb28:	48 01 c2             	add    %rax,%rdx
    bb2b:	48 8d 05 ae 58 00 00 	lea    0x58ae(%rip),%rax        # 113e0 <g_323>
    bb32:	48 01 d0             	add    %rdx,%rax
    bb35:	8b 00                	mov    (%rax),%eax
    bb37:	48 98                	cltq   
    bb39:	8b 55 fc             	mov    -0x4(%rbp),%edx
    bb3c:	48 8d 35 f6 25 00 00 	lea    0x25f6(%rip),%rsi        # e139 <g_59+0x10e4>
    bb43:	48 89 c7             	mov    %rax,%rdi
    bb46:	e8 a8 ab ff ff       	callq  66f3 <transparent_crc>
    bb4b:	83 7d fc 00          	cmpl   $0x0,-0x4(%rbp)
    bb4f:	74 1c                	je     bb6d <main+0x5e0>
    bb51:	8b 4d f8             	mov    -0x8(%rbp),%ecx
    bb54:	8b 55 f4             	mov    -0xc(%rbp),%edx
    bb57:	8b 45 f0             	mov    -0x10(%rbp),%eax
    bb5a:	89 c6                	mov    %eax,%esi
    bb5c:	48 8d 3d 0f 25 00 00 	lea    0x250f(%rip),%rdi        # e072 <g_59+0x101d>
    bb63:	b8 00 00 00 00       	mov    $0x0,%eax
    bb68:	e8 13 95 ff ff       	callq  5080 <printf@plt>
    bb6d:	83 45 f8 01          	addl   $0x1,-0x8(%rbp)
    bb71:	83 7d f8 05          	cmpl   $0x5,-0x8(%rbp)
    bb75:	0f 8e 69 ff ff ff    	jle    bae4 <main+0x557>
    bb7b:	83 45 f4 01          	addl   $0x1,-0xc(%rbp)
    bb7f:	83 7d f4 00          	cmpl   $0x0,-0xc(%rbp)
    bb83:	0f 8e 4f ff ff ff    	jle    bad8 <main+0x54b>
    bb89:	83 45 f0 01          	addl   $0x1,-0x10(%rbp)
    bb8d:	83 7d f0 09          	cmpl   $0x9,-0x10(%rbp)
    bb91:	0f 8e 35 ff ff ff    	jle    bacc <main+0x53f>
    bb97:	0f b7 05 e2 5d 00 00 	movzwl 0x5de2(%rip),%eax        # 11980 <g_324>
    bb9e:	0f b7 c0             	movzwl %ax,%eax
    bba1:	8b 55 fc             	mov    -0x4(%rbp),%edx
    bba4:	48 8d 35 a0 25 00 00 	lea    0x25a0(%rip),%rsi        # e14b <g_59+0x10f6>
    bbab:	48 89 c7             	mov    %rax,%rdi
    bbae:	e8 40 ab ff ff       	callq  66f3 <transparent_crc>
    bbb3:	c7 45 f0 00 00 00 00 	movl   $0x0,-0x10(%rbp)
    bbba:	eb 4f                	jmp    bc0b <main+0x67e>
    bbbc:	8b 45 f0             	mov    -0x10(%rbp),%eax
    bbbf:	48 98                	cltq   
    bbc1:	48 8d 14 c5 00 00 00 	lea    0x0(,%rax,8),%rdx
    bbc8:	00 
    bbc9:	48 8d 05 b8 5d 00 00 	lea    0x5db8(%rip),%rax        # 11988 <g_325>
    bbd0:	48 8b 04 02          	mov    (%rdx,%rax,1),%rax
    bbd4:	48 89 c1             	mov    %rax,%rcx
    bbd7:	8b 45 fc             	mov    -0x4(%rbp),%eax
    bbda:	89 c2                	mov    %eax,%edx
    bbdc:	48 8d 35 6e 25 00 00 	lea    0x256e(%rip),%rsi        # e151 <g_59+0x10fc>
    bbe3:	48 89 cf             	mov    %rcx,%rdi
    bbe6:	e8 08 ab ff ff       	callq  66f3 <transparent_crc>
    bbeb:	83 7d fc 00          	cmpl   $0x0,-0x4(%rbp)
    bbef:	74 16                	je     bc07 <main+0x67a>
    bbf1:	8b 45 f0             	mov    -0x10(%rbp),%eax
    bbf4:	89 c6                	mov    %eax,%esi
    bbf6:	48 8d 3d 3d 24 00 00 	lea    0x243d(%rip),%rdi        # e03a <g_59+0xfe5>
    bbfd:	b8 00 00 00 00       	mov    $0x0,%eax
    bc02:	e8 79 94 ff ff       	callq  5080 <printf@plt>
    bc07:	83 45 f0 01          	addl   $0x1,-0x10(%rbp)
    bc0b:	83 7d f0 00          	cmpl   $0x0,-0x10(%rbp)
    bc0f:	7e ab                	jle    bbbc <main+0x62f>
    bc11:	0f b7 05 78 5d 00 00 	movzwl 0x5d78(%rip),%eax        # 11990 <g_333>
    bc18:	0f b7 c0             	movzwl %ax,%eax
    bc1b:	8b 55 fc             	mov    -0x4(%rbp),%edx
    bc1e:	48 8d 35 35 25 00 00 	lea    0x2535(%rip),%rsi        # e15a <g_59+0x1105>
    bc25:	48 89 c7             	mov    %rax,%rdi
    bc28:	e8 c6 aa ff ff       	callq  66f3 <transparent_crc>
    bc2d:	c7 45 f0 00 00 00 00 	movl   $0x0,-0x10(%rbp)
    bc34:	e9 af 00 00 00       	jmpq   bce8 <main+0x75b>
    bc39:	c7 45 f4 00 00 00 00 	movl   $0x0,-0xc(%rbp)
    bc40:	e9 95 00 00 00       	jmpq   bcda <main+0x74d>
    bc45:	c7 45 f8 00 00 00 00 	movl   $0x0,-0x8(%rbp)
    bc4c:	eb 7e                	jmp    bccc <main+0x73f>
    bc4e:	8b 45 f8             	mov    -0x8(%rbp),%eax
    bc51:	48 63 f0             	movslq %eax,%rsi
    bc54:	8b 45 f0             	mov    -0x10(%rbp),%eax
    bc57:	48 63 d0             	movslq %eax,%rdx
    bc5a:	8b 45 f4             	mov    -0xc(%rbp),%eax
    bc5d:	48 63 c8             	movslq %eax,%rcx
    bc60:	48 89 d0             	mov    %rdx,%rax
    bc63:	48 c1 e0 03          	shl    $0x3,%rax
    bc67:	48 01 d0             	add    %rdx,%rax
    bc6a:	48 c1 e0 02          	shl    $0x2,%rax
    bc6e:	48 89 ca             	mov    %rcx,%rdx
    bc71:	48 c1 e2 03          	shl    $0x3,%rdx
    bc75:	48 01 ca             	add    %rcx,%rdx
    bc78:	48 01 d0             	add    %rdx,%rax
    bc7b:	48 01 f0             	add    %rsi,%rax
    bc7e:	48 8d 14 85 00 00 00 	lea    0x0(,%rax,4),%rdx
    bc85:	00 
    bc86:	48 8d 05 13 5d 00 00 	lea    0x5d13(%rip),%rax        # 119a0 <g_352>
    bc8d:	8b 04 02             	mov    (%rdx,%rax,1),%eax
    bc90:	89 c1                	mov    %eax,%ecx
    bc92:	8b 45 fc             	mov    -0x4(%rbp),%eax
    bc95:	89 c2                	mov    %eax,%edx
    bc97:	48 8d 35 c2 24 00 00 	lea    0x24c2(%rip),%rsi        # e160 <g_59+0x110b>
    bc9e:	48 89 cf             	mov    %rcx,%rdi
    bca1:	e8 4d aa ff ff       	callq  66f3 <transparent_crc>
    bca6:	83 7d fc 00          	cmpl   $0x0,-0x4(%rbp)
    bcaa:	74 1c                	je     bcc8 <main+0x73b>
    bcac:	8b 4d f8             	mov    -0x8(%rbp),%ecx
    bcaf:	8b 55 f4             	mov    -0xc(%rbp),%edx
    bcb2:	8b 45 f0             	mov    -0x10(%rbp),%eax
    bcb5:	89 c6                	mov    %eax,%esi
    bcb7:	48 8d 3d b4 23 00 00 	lea    0x23b4(%rip),%rdi        # e072 <g_59+0x101d>
    bcbe:	b8 00 00 00 00       	mov    $0x0,%eax
    bcc3:	e8 b8 93 ff ff       	callq  5080 <printf@plt>
    bcc8:	83 45 f8 01          	addl   $0x1,-0x8(%rbp)
    bccc:	83 7d f8 08          	cmpl   $0x8,-0x8(%rbp)
    bcd0:	0f 8e 78 ff ff ff    	jle    bc4e <main+0x6c1>
    bcd6:	83 45 f4 01          	addl   $0x1,-0xc(%rbp)
    bcda:	83 7d f4 03          	cmpl   $0x3,-0xc(%rbp)
    bcde:	0f 8e 61 ff ff ff    	jle    bc45 <main+0x6b8>
    bce4:	83 45 f0 01          	addl   $0x1,-0x10(%rbp)
    bce8:	83 7d f0 06          	cmpl   $0x6,-0x10(%rbp)
    bcec:	0f 8e 47 ff ff ff    	jle    bc39 <main+0x6ac>
    bcf2:	8b 05 98 60 00 00    	mov    0x6098(%rip),%eax        # 11d90 <g_400>
    bcf8:	48 98                	cltq   
    bcfa:	8b 55 fc             	mov    -0x4(%rbp),%edx
    bcfd:	48 8d 35 6b 24 00 00 	lea    0x246b(%rip),%rsi        # e16f <g_59+0x111a>
    bd04:	48 89 c7             	mov    %rax,%rdi
    bd07:	e8 e7 a9 ff ff       	callq  66f3 <transparent_crc>
    bd0c:	0f b7 05 81 60 00 00 	movzwl 0x6081(%rip),%eax        # 11d94 <g_401>
    bd13:	48 0f bf c0          	movswq %ax,%rax
    bd17:	8b 55 fc             	mov    -0x4(%rbp),%edx
    bd1a:	48 8d 35 54 24 00 00 	lea    0x2454(%rip),%rsi        # e175 <g_59+0x1120>
    bd21:	48 89 c7             	mov    %rax,%rdi
    bd24:	e8 ca a9 ff ff       	callq  66f3 <transparent_crc>
    bd29:	0f b6 05 66 60 00 00 	movzbl 0x6066(%rip),%eax        # 11d96 <g_403>
    bd30:	48 0f be c0          	movsbq %al,%rax
    bd34:	8b 55 fc             	mov    -0x4(%rbp),%edx
    bd37:	48 8d 35 3d 24 00 00 	lea    0x243d(%rip),%rsi        # e17b <g_59+0x1126>
    bd3e:	48 89 c7             	mov    %rax,%rdi
    bd41:	e8 ad a9 ff ff       	callq  66f3 <transparent_crc>
    bd46:	8b 05 4c 60 00 00    	mov    0x604c(%rip),%eax        # 11d98 <g_404>
    bd4c:	48 98                	cltq   
    bd4e:	8b 55 fc             	mov    -0x4(%rbp),%edx
    bd51:	48 8d 35 29 24 00 00 	lea    0x2429(%rip),%rsi        # e181 <g_59+0x112c>
    bd58:	48 89 c7             	mov    %rax,%rdi
    bd5b:	e8 93 a9 ff ff       	callq  66f3 <transparent_crc>
    bd60:	c7 45 f0 00 00 00 00 	movl   $0x0,-0x10(%rbp)
    bd67:	eb 46                	jmp    bdaf <main+0x822>
    bd69:	8b 45 f0             	mov    -0x10(%rbp),%eax
    bd6c:	48 98                	cltq   
    bd6e:	48 8d 15 2b 60 00 00 	lea    0x602b(%rip),%rdx        # 11da0 <g_405>
    bd75:	0f b6 04 10          	movzbl (%rax,%rdx,1),%eax
    bd79:	48 0f be c0          	movsbq %al,%rax
    bd7d:	8b 55 fc             	mov    -0x4(%rbp),%edx
    bd80:	48 8d 35 00 24 00 00 	lea    0x2400(%rip),%rsi        # e187 <g_59+0x1132>
    bd87:	48 89 c7             	mov    %rax,%rdi
    bd8a:	e8 64 a9 ff ff       	callq  66f3 <transparent_crc>
    bd8f:	83 7d fc 00          	cmpl   $0x0,-0x4(%rbp)
    bd93:	74 16                	je     bdab <main+0x81e>
    bd95:	8b 45 f0             	mov    -0x10(%rbp),%eax
    bd98:	89 c6                	mov    %eax,%esi
    bd9a:	48 8d 3d 99 22 00 00 	lea    0x2299(%rip),%rdi        # e03a <g_59+0xfe5>
    bda1:	b8 00 00 00 00       	mov    $0x0,%eax
    bda6:	e8 d5 92 ff ff       	callq  5080 <printf@plt>
    bdab:	83 45 f0 01          	addl   $0x1,-0x10(%rbp)
    bdaf:	83 7d f0 07          	cmpl   $0x7,-0x10(%rbp)
    bdb3:	7e b4                	jle    bd69 <main+0x7dc>
    bdb5:	8b 05 b5 84 00 00    	mov    0x84b5(%rip),%eax        # 14270 <g_406>
    bdbb:	89 c1                	mov    %eax,%ecx
    bdbd:	8b 45 fc             	mov    -0x4(%rbp),%eax
    bdc0:	89 c2                	mov    %eax,%edx
    bdc2:	48 8d 35 c7 23 00 00 	lea    0x23c7(%rip),%rsi        # e190 <g_59+0x113b>
    bdc9:	48 89 cf             	mov    %rcx,%rdi
    bdcc:	e8 22 a9 ff ff       	callq  66f3 <transparent_crc>
    bdd1:	c7 45 f0 00 00 00 00 	movl   $0x0,-0x10(%rbp)
    bdd8:	eb 49                	jmp    be23 <main+0x896>
    bdda:	8b 45 f0             	mov    -0x10(%rbp),%eax
    bddd:	48 98                	cltq   
    bddf:	48 8d 14 00          	lea    (%rax,%rax,1),%rdx
    bde3:	48 8d 05 c6 5f 00 00 	lea    0x5fc6(%rip),%rax        # 11db0 <g_463>
    bdea:	0f b7 04 02          	movzwl (%rdx,%rax,1),%eax
    bdee:	0f b7 c0             	movzwl %ax,%eax
    bdf1:	8b 55 fc             	mov    -0x4(%rbp),%edx
    bdf4:	48 8d 35 9b 23 00 00 	lea    0x239b(%rip),%rsi        # e196 <g_59+0x1141>
    bdfb:	48 89 c7             	mov    %rax,%rdi
    bdfe:	e8 f0 a8 ff ff       	callq  66f3 <transparent_crc>
    be03:	83 7d fc 00          	cmpl   $0x0,-0x4(%rbp)
    be07:	74 16                	je     be1f <main+0x892>
    be09:	8b 45 f0             	mov    -0x10(%rbp),%eax
    be0c:	89 c6                	mov    %eax,%esi
    be0e:	48 8d 3d 25 22 00 00 	lea    0x2225(%rip),%rdi        # e03a <g_59+0xfe5>
    be15:	b8 00 00 00 00       	mov    $0x0,%eax
    be1a:	e8 61 92 ff ff       	callq  5080 <printf@plt>
    be1f:	83 45 f0 01          	addl   $0x1,-0x10(%rbp)
    be23:	83 7d f0 09          	cmpl   $0x9,-0x10(%rbp)
    be27:	7e b1                	jle    bdda <main+0x84d>
    be29:	c7 45 f0 00 00 00 00 	movl   $0x0,-0x10(%rbp)
    be30:	eb 7b                	jmp    bead <main+0x920>
    be32:	c7 45 f4 00 00 00 00 	movl   $0x0,-0xc(%rbp)
    be39:	eb 68                	jmp    bea3 <main+0x916>
    be3b:	8b 45 f4             	mov    -0xc(%rbp),%eax
    be3e:	48 63 c8             	movslq %eax,%rcx
    be41:	8b 45 f0             	mov    -0x10(%rbp),%eax
    be44:	48 63 d0             	movslq %eax,%rdx
    be47:	48 89 d0             	mov    %rdx,%rax
    be4a:	48 01 c0             	add    %rax,%rax
    be4d:	48 01 d0             	add    %rdx,%rax
    be50:	48 01 c0             	add    %rax,%rax
    be53:	48 01 c8             	add    %rcx,%rax
    be56:	48 8d 14 c5 00 00 00 	lea    0x0(,%rax,8),%rdx
    be5d:	00 
    be5e:	48 8d 05 7b 5f 00 00 	lea    0x5f7b(%rip),%rax        # 11de0 <g_511>
    be65:	48 8b 04 02          	mov    (%rdx,%rax,1),%rax
    be69:	48 89 c1             	mov    %rax,%rcx
    be6c:	8b 45 fc             	mov    -0x4(%rbp),%eax
    be6f:	89 c2                	mov    %eax,%edx
    be71:	48 8d 35 27 23 00 00 	lea    0x2327(%rip),%rsi        # e19f <g_59+0x114a>
    be78:	48 89 cf             	mov    %rcx,%rdi
    be7b:	e8 73 a8 ff ff       	callq  66f3 <transparent_crc>
    be80:	83 7d fc 00          	cmpl   $0x0,-0x4(%rbp)
    be84:	74 19                	je     be9f <main+0x912>
    be86:	8b 55 f4             	mov    -0xc(%rbp),%edx
    be89:	8b 45 f0             	mov    -0x10(%rbp),%eax
    be8c:	89 c6                	mov    %eax,%esi
    be8e:	48 8d 3d 0b 22 00 00 	lea    0x220b(%rip),%rdi        # e0a0 <g_59+0x104b>
    be95:	b8 00 00 00 00       	mov    $0x0,%eax
    be9a:	e8 e1 91 ff ff       	callq  5080 <printf@plt>
    be9f:	83 45 f4 01          	addl   $0x1,-0xc(%rbp)
    bea3:	83 7d f4 05          	cmpl   $0x5,-0xc(%rbp)
    bea7:	7e 92                	jle    be3b <main+0x8ae>
    bea9:	83 45 f0 01          	addl   $0x1,-0x10(%rbp)
    bead:	83 7d f0 06          	cmpl   $0x6,-0x10(%rbp)
    beb1:	0f 8e 7b ff ff ff    	jle    be32 <main+0x8a5>
    beb7:	0f b7 05 72 60 00 00 	movzwl 0x6072(%rip),%eax        # 11f30 <g_520>
    bebe:	48 0f bf c0          	movswq %ax,%rax
    bec2:	8b 55 fc             	mov    -0x4(%rbp),%edx
    bec5:	48 8d 35 df 22 00 00 	lea    0x22df(%rip),%rsi        # e1ab <g_59+0x1156>
    becc:	48 89 c7             	mov    %rax,%rdi
    becf:	e8 1f a8 ff ff       	callq  66f3 <transparent_crc>
    bed4:	8b 05 66 60 00 00    	mov    0x6066(%rip),%eax        # 11f40 <g_547>
    beda:	48 98                	cltq   
    bedc:	8b 55 fc             	mov    -0x4(%rbp),%edx
    bedf:	48 8d 35 cb 22 00 00 	lea    0x22cb(%rip),%rsi        # e1b1 <g_59+0x115c>
    bee6:	48 89 c7             	mov    %rax,%rdi
    bee9:	e8 05 a8 ff ff       	callq  66f3 <transparent_crc>
    beee:	8b 05 50 60 00 00    	mov    0x6050(%rip),%eax        # 11f44 <g_547+0x4>
    bef4:	89 c1                	mov    %eax,%ecx
    bef6:	8b 45 fc             	mov    -0x4(%rbp),%eax
    bef9:	89 c2                	mov    %eax,%edx
    befb:	48 8d 35 b8 22 00 00 	lea    0x22b8(%rip),%rsi        # e1ba <g_59+0x1165>
    bf02:	48 89 cf             	mov    %rcx,%rdi
    bf05:	e8 e9 a7 ff ff       	callq  66f3 <transparent_crc>
    bf0a:	8b 05 38 60 00 00    	mov    0x6038(%rip),%eax        # 11f48 <g_547+0x8>
    bf10:	48 98                	cltq   
    bf12:	8b 55 fc             	mov    -0x4(%rbp),%edx
    bf15:	48 8d 35 a7 22 00 00 	lea    0x22a7(%rip),%rsi        # e1c3 <g_59+0x116e>
    bf1c:	48 89 c7             	mov    %rax,%rdi
    bf1f:	e8 cf a7 ff ff       	callq  66f3 <transparent_crc>
    bf24:	48 8b 05 25 60 00 00 	mov    0x6025(%rip),%rax        # 11f50 <g_547+0x10>
    bf2b:	48 89 c1             	mov    %rax,%rcx
    bf2e:	8b 45 fc             	mov    -0x4(%rbp),%eax
    bf31:	89 c2                	mov    %eax,%edx
    bf33:	48 8d 35 92 22 00 00 	lea    0x2292(%rip),%rsi        # e1cc <g_59+0x1177>
    bf3a:	48 89 cf             	mov    %rcx,%rdi
    bf3d:	e8 b1 a7 ff ff       	callq  66f3 <transparent_crc>
    bf42:	8b 05 18 60 00 00    	mov    0x6018(%rip),%eax        # 11f60 <g_580>
    bf48:	48 98                	cltq   
    bf4a:	8b 55 fc             	mov    -0x4(%rbp),%edx
    bf4d:	48 8d 35 81 22 00 00 	lea    0x2281(%rip),%rsi        # e1d5 <g_59+0x1180>
    bf54:	48 89 c7             	mov    %rax,%rdi
    bf57:	e8 97 a7 ff ff       	callq  66f3 <transparent_crc>
    bf5c:	0f b6 05 15 60 00 00 	movzbl 0x6015(%rip),%eax        # 11f78 <g_582>
    bf63:	48 0f be c0          	movsbq %al,%rax
    bf67:	8b 55 fc             	mov    -0x4(%rbp),%edx
    bf6a:	48 8d 35 6d 22 00 00 	lea    0x226d(%rip),%rsi        # e1de <g_59+0x1189>
    bf71:	48 89 c7             	mov    %rax,%rdi
    bf74:	e8 7a a7 ff ff       	callq  66f3 <transparent_crc>
    bf79:	0f b7 05 fa 5f 00 00 	movzwl 0x5ffa(%rip),%eax        # 11f7a <g_596>
    bf80:	0f b7 c0             	movzwl %ax,%eax
    bf83:	8b 55 fc             	mov    -0x4(%rbp),%edx
    bf86:	48 8d 35 57 22 00 00 	lea    0x2257(%rip),%rsi        # e1e4 <g_59+0x118f>
    bf8d:	48 89 c7             	mov    %rax,%rdi
    bf90:	e8 5e a7 ff ff       	callq  66f3 <transparent_crc>
    bf95:	8b 05 e5 5f 00 00    	mov    0x5fe5(%rip),%eax        # 11f80 <g_647>
    bf9b:	48 98                	cltq   
    bf9d:	8b 55 fc             	mov    -0x4(%rbp),%edx
    bfa0:	48 8d 35 43 22 00 00 	lea    0x2243(%rip),%rsi        # e1ea <g_59+0x1195>
    bfa7:	48 89 c7             	mov    %rax,%rdi
    bfaa:	e8 44 a7 ff ff       	callq  66f3 <transparent_crc>
    bfaf:	8b 05 cf 5f 00 00    	mov    0x5fcf(%rip),%eax        # 11f84 <g_647+0x4>
    bfb5:	89 c1                	mov    %eax,%ecx
    bfb7:	8b 45 fc             	mov    -0x4(%rbp),%eax
    bfba:	89 c2                	mov    %eax,%edx
    bfbc:	48 8d 35 30 22 00 00 	lea    0x2230(%rip),%rsi        # e1f3 <g_59+0x119e>
    bfc3:	48 89 cf             	mov    %rcx,%rdi
    bfc6:	e8 28 a7 ff ff       	callq  66f3 <transparent_crc>
    bfcb:	8b 05 b7 5f 00 00    	mov    0x5fb7(%rip),%eax        # 11f88 <g_647+0x8>
    bfd1:	48 98                	cltq   
    bfd3:	8b 55 fc             	mov    -0x4(%rbp),%edx
    bfd6:	48 8d 35 1f 22 00 00 	lea    0x221f(%rip),%rsi        # e1fc <g_59+0x11a7>
    bfdd:	48 89 c7             	mov    %rax,%rdi
    bfe0:	e8 0e a7 ff ff       	callq  66f3 <transparent_crc>
    bfe5:	48 8b 05 a4 5f 00 00 	mov    0x5fa4(%rip),%rax        # 11f90 <g_647+0x10>
    bfec:	48 89 c1             	mov    %rax,%rcx
    bfef:	8b 45 fc             	mov    -0x4(%rbp),%eax
    bff2:	89 c2                	mov    %eax,%edx
    bff4:	48 8d 35 0a 22 00 00 	lea    0x220a(%rip),%rsi        # e205 <g_59+0x11b0>
    bffb:	48 89 cf             	mov    %rcx,%rdi
    bffe:	e8 f0 a6 ff ff       	callq  66f3 <transparent_crc>
    c003:	48 8b 05 8e 5f 00 00 	mov    0x5f8e(%rip),%rax        # 11f98 <g_700>
    c00a:	48 89 c1             	mov    %rax,%rcx
    c00d:	8b 45 fc             	mov    -0x4(%rbp),%eax
    c010:	89 c2                	mov    %eax,%edx
    c012:	48 8d 35 f5 21 00 00 	lea    0x21f5(%rip),%rsi        # e20e <g_59+0x11b9>
    c019:	48 89 cf             	mov    %rcx,%rdi
    c01c:	e8 d2 a6 ff ff       	callq  66f3 <transparent_crc>
    c021:	0f b7 05 78 5f 00 00 	movzwl 0x5f78(%rip),%eax        # 11fa0 <g_701>
    c028:	48 0f bf c0          	movswq %ax,%rax
    c02c:	8b 55 fc             	mov    -0x4(%rbp),%edx
    c02f:	48 8d 35 de 21 00 00 	lea    0x21de(%rip),%rsi        # e214 <g_59+0x11bf>
    c036:	48 89 c7             	mov    %rax,%rdi
    c039:	e8 b5 a6 ff ff       	callq  66f3 <transparent_crc>
    c03e:	c7 45 f0 00 00 00 00 	movl   $0x0,-0x10(%rbp)
    c045:	e9 96 00 00 00       	jmpq   c0e0 <main+0xb53>
    c04a:	c7 45 f4 00 00 00 00 	movl   $0x0,-0xc(%rbp)
    c051:	eb 7f                	jmp    c0d2 <main+0xb45>
    c053:	c7 45 f8 00 00 00 00 	movl   $0x0,-0x8(%rbp)
    c05a:	eb 6c                	jmp    c0c8 <main+0xb3b>
    c05c:	8b 45 f8             	mov    -0x8(%rbp),%eax
    c05f:	48 63 c8             	movslq %eax,%rcx
    c062:	8b 45 f0             	mov    -0x10(%rbp),%eax
    c065:	48 63 d0             	movslq %eax,%rdx
    c068:	8b 45 f4             	mov    -0xc(%rbp),%eax
    c06b:	48 98                	cltq   
    c06d:	48 01 c2             	add    %rax,%rdx
    c070:	48 89 d0             	mov    %rdx,%rax
    c073:	48 c1 e0 02          	shl    $0x2,%rax
    c077:	48 01 d0             	add    %rdx,%rax
    c07a:	48 01 c8             	add    %rcx,%rax
    c07d:	48 8d 14 00          	lea    (%rax,%rax,1),%rdx
    c081:	48 8d 05 20 5f 00 00 	lea    0x5f20(%rip),%rax        # 11fa8 <g_702>
    c088:	0f b7 04 02          	movzwl (%rdx,%rax,1),%eax
    c08c:	48 0f bf c0          	movswq %ax,%rax
    c090:	8b 55 fc             	mov    -0x4(%rbp),%edx
    c093:	48 8d 35 80 21 00 00 	lea    0x2180(%rip),%rsi        # e21a <g_59+0x11c5>
    c09a:	48 89 c7             	mov    %rax,%rdi
    c09d:	e8 51 a6 ff ff       	callq  66f3 <transparent_crc>
    c0a2:	83 7d fc 00          	cmpl   $0x0,-0x4(%rbp)
    c0a6:	74 1c                	je     c0c4 <main+0xb37>
    c0a8:	8b 4d f8             	mov    -0x8(%rbp),%ecx
    c0ab:	8b 55 f4             	mov    -0xc(%rbp),%edx
    c0ae:	8b 45 f0             	mov    -0x10(%rbp),%eax
    c0b1:	89 c6                	mov    %eax,%esi
    c0b3:	48 8d 3d b8 1f 00 00 	lea    0x1fb8(%rip),%rdi        # e072 <g_59+0x101d>
    c0ba:	b8 00 00 00 00       	mov    $0x0,%eax
    c0bf:	e8 bc 8f ff ff       	callq  5080 <printf@plt>
    c0c4:	83 45 f8 01          	addl   $0x1,-0x8(%rbp)
    c0c8:	83 7d f8 04          	cmpl   $0x4,-0x8(%rbp)
    c0cc:	7e 8e                	jle    c05c <main+0xacf>
    c0ce:	83 45 f4 01          	addl   $0x1,-0xc(%rbp)
    c0d2:	83 7d f4 00          	cmpl   $0x0,-0xc(%rbp)
    c0d6:	0f 8e 77 ff ff ff    	jle    c053 <main+0xac6>
    c0dc:	83 45 f0 01          	addl   $0x1,-0x10(%rbp)
    c0e0:	83 7d f0 00          	cmpl   $0x0,-0x10(%rbp)
    c0e4:	0f 8e 60 ff ff ff    	jle    c04a <main+0xabd>
    c0ea:	0f b6 05 c1 5e 00 00 	movzbl 0x5ec1(%rip),%eax        # 11fb2 <g_703>
    c0f1:	48 0f be c0          	movsbq %al,%rax
    c0f5:	8b 55 fc             	mov    -0x4(%rbp),%edx
    c0f8:	48 8d 35 2a 21 00 00 	lea    0x212a(%rip),%rsi        # e229 <g_59+0x11d4>
    c0ff:	48 89 c7             	mov    %rax,%rdi
    c102:	e8 ec a5 ff ff       	callq  66f3 <transparent_crc>
    c107:	0f b6 05 a5 5e 00 00 	movzbl 0x5ea5(%rip),%eax        # 11fb3 <g_705>
    c10e:	0f b6 c0             	movzbl %al,%eax
    c111:	8b 55 fc             	mov    -0x4(%rbp),%edx
    c114:	48 8d 35 14 21 00 00 	lea    0x2114(%rip),%rsi        # e22f <g_59+0x11da>
    c11b:	48 89 c7             	mov    %rax,%rdi
    c11e:	e8 d0 a5 ff ff       	callq  66f3 <transparent_crc>
    c123:	c7 45 f0 00 00 00 00 	movl   $0x0,-0x10(%rbp)
    c12a:	e9 b0 00 00 00       	jmpq   c1df <main+0xc52>
    c12f:	c7 45 f4 00 00 00 00 	movl   $0x0,-0xc(%rbp)
    c136:	e9 96 00 00 00       	jmpq   c1d1 <main+0xc44>
    c13b:	c7 45 f8 00 00 00 00 	movl   $0x0,-0x8(%rbp)
    c142:	eb 7f                	jmp    c1c3 <main+0xc36>
    c144:	8b 45 f8             	mov    -0x8(%rbp),%eax
    c147:	48 63 f0             	movslq %eax,%rsi
    c14a:	8b 45 f0             	mov    -0x10(%rbp),%eax
    c14d:	48 98                	cltq   
    c14f:	8b 55 f4             	mov    -0xc(%rbp),%edx
    c152:	48 63 ca             	movslq %edx,%rcx
    c155:	48 89 c2             	mov    %rax,%rdx
    c158:	48 c1 e2 04          	shl    $0x4,%rdx
    c15c:	48 29 c2             	sub    %rax,%rdx
    c15f:	48 8d 04 12          	lea    (%rdx,%rdx,1),%rax
    c163:	48 89 c2             	mov    %rax,%rdx
    c166:	48 89 c8             	mov    %rcx,%rax
    c169:	48 01 c0             	add    %rax,%rax
    c16c:	48 01 c8             	add    %rcx,%rax
    c16f:	48 01 c0             	add    %rax,%rax
    c172:	48 01 d0             	add    %rdx,%rax
    c175:	48 01 f0             	add    %rsi,%rax
    c178:	48 8d 14 00          	lea    (%rax,%rax,1),%rdx
    c17c:	48 8d 05 3d 5e 00 00 	lea    0x5e3d(%rip),%rax        # 11fc0 <g_714>
    c183:	0f b7 04 02          	movzwl (%rdx,%rax,1),%eax
    c187:	48 0f bf c0          	movswq %ax,%rax
    c18b:	8b 55 fc             	mov    -0x4(%rbp),%edx
    c18e:	48 8d 35 a0 20 00 00 	lea    0x20a0(%rip),%rsi        # e235 <g_59+0x11e0>
    c195:	48 89 c7             	mov    %rax,%rdi
    c198:	e8 56 a5 ff ff       	callq  66f3 <transparent_crc>
    c19d:	83 7d fc 00          	cmpl   $0x0,-0x4(%rbp)
    c1a1:	74 1c                	je     c1bf <main+0xc32>
    c1a3:	8b 4d f8             	mov    -0x8(%rbp),%ecx
    c1a6:	8b 55 f4             	mov    -0xc(%rbp),%edx
    c1a9:	8b 45 f0             	mov    -0x10(%rbp),%eax
    c1ac:	89 c6                	mov    %eax,%esi
    c1ae:	48 8d 3d bd 1e 00 00 	lea    0x1ebd(%rip),%rdi        # e072 <g_59+0x101d>
    c1b5:	b8 00 00 00 00       	mov    $0x0,%eax
    c1ba:	e8 c1 8e ff ff       	callq  5080 <printf@plt>
    c1bf:	83 45 f8 01          	addl   $0x1,-0x8(%rbp)
    c1c3:	83 7d f8 05          	cmpl   $0x5,-0x8(%rbp)
    c1c7:	0f 8e 77 ff ff ff    	jle    c144 <main+0xbb7>
    c1cd:	83 45 f4 01          	addl   $0x1,-0xc(%rbp)
    c1d1:	83 7d f4 04          	cmpl   $0x4,-0xc(%rbp)
    c1d5:	0f 8e 60 ff ff ff    	jle    c13b <main+0xbae>
    c1db:	83 45 f0 01          	addl   $0x1,-0x10(%rbp)
    c1df:	83 7d f0 06          	cmpl   $0x6,-0x10(%rbp)
    c1e3:	0f 8e 46 ff ff ff    	jle    c12f <main+0xba2>
    c1e9:	8b 05 81 5f 00 00    	mov    0x5f81(%rip),%eax        # 12170 <g_726>
    c1ef:	48 98                	cltq   
    c1f1:	8b 55 fc             	mov    -0x4(%rbp),%edx
    c1f4:	48 8d 35 49 20 00 00 	lea    0x2049(%rip),%rsi        # e244 <g_59+0x11ef>
    c1fb:	48 89 c7             	mov    %rax,%rdi
    c1fe:	e8 f0 a4 ff ff       	callq  66f3 <transparent_crc>
    c203:	8b 05 6b 5f 00 00    	mov    0x5f6b(%rip),%eax        # 12174 <g_726+0x4>
    c209:	89 c1                	mov    %eax,%ecx
    c20b:	8b 45 fc             	mov    -0x4(%rbp),%eax
    c20e:	89 c2                	mov    %eax,%edx
    c210:	48 8d 35 36 20 00 00 	lea    0x2036(%rip),%rsi        # e24d <g_59+0x11f8>
    c217:	48 89 cf             	mov    %rcx,%rdi
    c21a:	e8 d4 a4 ff ff       	callq  66f3 <transparent_crc>
    c21f:	8b 05 53 5f 00 00    	mov    0x5f53(%rip),%eax        # 12178 <g_726+0x8>
    c225:	48 98                	cltq   
    c227:	8b 55 fc             	mov    -0x4(%rbp),%edx
    c22a:	48 8d 35 25 20 00 00 	lea    0x2025(%rip),%rsi        # e256 <g_59+0x1201>
    c231:	48 89 c7             	mov    %rax,%rdi
    c234:	e8 ba a4 ff ff       	callq  66f3 <transparent_crc>
    c239:	48 8b 05 40 5f 00 00 	mov    0x5f40(%rip),%rax        # 12180 <g_726+0x10>
    c240:	48 89 c1             	mov    %rax,%rcx
    c243:	8b 45 fc             	mov    -0x4(%rbp),%eax
    c246:	89 c2                	mov    %eax,%edx
    c248:	48 8d 35 10 20 00 00 	lea    0x2010(%rip),%rsi        # e25f <g_59+0x120a>
    c24f:	48 89 cf             	mov    %rcx,%rdi
    c252:	e8 9c a4 ff ff       	callq  66f3 <transparent_crc>
    c257:	48 8b 05 2a 5f 00 00 	mov    0x5f2a(%rip),%rax        # 12188 <g_754>
    c25e:	8b 55 fc             	mov    -0x4(%rbp),%edx
    c261:	48 8d 35 00 20 00 00 	lea    0x2000(%rip),%rsi        # e268 <g_59+0x1213>
    c268:	48 89 c7             	mov    %rax,%rdi
    c26b:	e8 83 a4 ff ff       	callq  66f3 <transparent_crc>
    c270:	c7 45 f0 00 00 00 00 	movl   $0x0,-0x10(%rbp)
    c277:	eb 54                	jmp    c2cd <main+0xd40>
    c279:	8b 45 f0             	mov    -0x10(%rbp),%eax
    c27c:	48 63 d0             	movslq %eax,%rdx
    c27f:	48 89 d0             	mov    %rdx,%rax
    c282:	48 01 c0             	add    %rax,%rax
    c285:	48 01 d0             	add    %rdx,%rax
    c288:	48 c1 e0 03          	shl    $0x3,%rax
    c28c:	48 89 c2             	mov    %rax,%rdx
    c28f:	48 8d 05 0a 5f 00 00 	lea    0x5f0a(%rip),%rax        # 121a0 <g_792>
    c296:	8b 04 02             	mov    (%rdx,%rax,1),%eax
    c299:	48 98                	cltq   
    c29b:	8b 55 fc             	mov    -0x4(%rbp),%edx
    c29e:	48 8d 35 c9 1f 00 00 	lea    0x1fc9(%rip),%rsi        # e26e <g_59+0x1219>
    c2a5:	48 89 c7             	mov    %rax,%rdi
    c2a8:	e8 46 a4 ff ff       	callq  66f3 <transparent_crc>
    c2ad:	83 7d fc 00          	cmpl   $0x0,-0x4(%rbp)
    c2b1:	74 16                	je     c2c9 <main+0xd3c>
    c2b3:	8b 45 f0             	mov    -0x10(%rbp),%eax
    c2b6:	89 c6                	mov    %eax,%esi
    c2b8:	48 8d 3d 7b 1d 00 00 	lea    0x1d7b(%rip),%rdi        # e03a <g_59+0xfe5>
    c2bf:	b8 00 00 00 00       	mov    $0x0,%eax
    c2c4:	e8 b7 8d ff ff       	callq  5080 <printf@plt>
    c2c9:	83 45 f0 01          	addl   $0x1,-0x10(%rbp)
    c2cd:	83 7d f0 06          	cmpl   $0x6,-0x10(%rbp)
    c2d1:	7e a6                	jle    c279 <main+0xcec>
    c2d3:	0f b7 05 6e 5f 00 00 	movzwl 0x5f6e(%rip),%eax        # 12248 <g_870>
    c2da:	0f b7 c0             	movzwl %ax,%eax
    c2dd:	8b 55 fc             	mov    -0x4(%rbp),%edx
    c2e0:	48 8d 35 93 1f 00 00 	lea    0x1f93(%rip),%rsi        # e27a <g_59+0x1225>
    c2e7:	48 89 c7             	mov    %rax,%rdi
    c2ea:	e8 04 a4 ff ff       	callq  66f3 <transparent_crc>
    c2ef:	8b 05 bb 7f 00 00    	mov    0x7fbb(%rip),%eax        # 142b0 <g_881>
    c2f5:	48 98                	cltq   
    c2f7:	8b 55 fc             	mov    -0x4(%rbp),%edx
    c2fa:	48 8d 35 7f 1f 00 00 	lea    0x1f7f(%rip),%rsi        # e280 <g_59+0x122b>
    c301:	48 89 c7             	mov    %rax,%rdi
    c304:	e8 ea a3 ff ff       	callq  66f3 <transparent_crc>
    c309:	8b 05 3d 5f 00 00    	mov    0x5f3d(%rip),%eax        # 1224c <g_925>
    c30f:	89 c1                	mov    %eax,%ecx
    c311:	8b 45 fc             	mov    -0x4(%rbp),%eax
    c314:	89 c2                	mov    %eax,%edx
    c316:	48 8d 35 6c 1f 00 00 	lea    0x1f6c(%rip),%rsi        # e289 <g_59+0x1234>
    c31d:	48 89 cf             	mov    %rcx,%rdi
    c320:	e8 ce a3 ff ff       	callq  66f3 <transparent_crc>
    c325:	8b 05 25 5f 00 00    	mov    0x5f25(%rip),%eax        # 12250 <g_949>
    c32b:	89 c1                	mov    %eax,%ecx
    c32d:	8b 45 fc             	mov    -0x4(%rbp),%eax
    c330:	89 c2                	mov    %eax,%edx
    c332:	48 8d 35 56 1f 00 00 	lea    0x1f56(%rip),%rsi        # e28f <g_59+0x123a>
    c339:	48 89 cf             	mov    %rcx,%rdi
    c33c:	e8 b2 a3 ff ff       	callq  66f3 <transparent_crc>
    c341:	8b 05 19 5f 00 00    	mov    0x5f19(%rip),%eax        # 12260 <g_967>
    c347:	48 98                	cltq   
    c349:	8b 55 fc             	mov    -0x4(%rbp),%edx
    c34c:	48 8d 35 42 1f 00 00 	lea    0x1f42(%rip),%rsi        # e295 <g_59+0x1240>
    c353:	48 89 c7             	mov    %rax,%rdi
    c356:	e8 98 a3 ff ff       	callq  66f3 <transparent_crc>
    c35b:	8b 05 1f 5f 00 00    	mov    0x5f1f(%rip),%eax        # 12280 <g_969>
    c361:	48 98                	cltq   
    c363:	8b 55 fc             	mov    -0x4(%rbp),%edx
    c366:	48 8d 35 31 1f 00 00 	lea    0x1f31(%rip),%rsi        # e29e <g_59+0x1249>
    c36d:	48 89 c7             	mov    %rax,%rdi
    c370:	e8 7e a3 ff ff       	callq  66f3 <transparent_crc>
    c375:	8b 05 1d 5f 00 00    	mov    0x5f1d(%rip),%eax        # 12298 <g_973>
    c37b:	48 98                	cltq   
    c37d:	8b 55 fc             	mov    -0x4(%rbp),%edx
    c380:	48 8d 35 20 1f 00 00 	lea    0x1f20(%rip),%rsi        # e2a7 <g_59+0x1252>
    c387:	48 89 c7             	mov    %rax,%rdi
    c38a:	e8 64 a3 ff ff       	callq  66f3 <transparent_crc>
    c38f:	8b 05 07 5f 00 00    	mov    0x5f07(%rip),%eax        # 1229c <g_1025>
    c395:	48 98                	cltq   
    c397:	8b 55 fc             	mov    -0x4(%rbp),%edx
    c39a:	48 8d 35 0c 1f 00 00 	lea    0x1f0c(%rip),%rsi        # e2ad <g_59+0x1258>
    c3a1:	48 89 c7             	mov    %rax,%rdi
    c3a4:	e8 4a a3 ff ff       	callq  66f3 <transparent_crc>
    c3a9:	c7 45 f0 00 00 00 00 	movl   $0x0,-0x10(%rbp)
    c3b0:	eb 4d                	jmp    c3ff <main+0xe72>
    c3b2:	8b 45 f0             	mov    -0x10(%rbp),%eax
    c3b5:	48 98                	cltq   
    c3b7:	48 8d 14 85 00 00 00 	lea    0x0(,%rax,4),%rdx
    c3be:	00 
    c3bf:	48 8d 05 da 5e 00 00 	lea    0x5eda(%rip),%rax        # 122a0 <g_1030>
    c3c6:	8b 04 02             	mov    (%rdx,%rax,1),%eax
    c3c9:	89 c1                	mov    %eax,%ecx
    c3cb:	8b 45 fc             	mov    -0x4(%rbp),%eax
    c3ce:	89 c2                	mov    %eax,%edx
    c3d0:	48 8d 35 dd 1e 00 00 	lea    0x1edd(%rip),%rsi        # e2b4 <g_59+0x125f>
    c3d7:	48 89 cf             	mov    %rcx,%rdi
    c3da:	e8 14 a3 ff ff       	callq  66f3 <transparent_crc>
    c3df:	83 7d fc 00          	cmpl   $0x0,-0x4(%rbp)
    c3e3:	74 16                	je     c3fb <main+0xe6e>
    c3e5:	8b 45 f0             	mov    -0x10(%rbp),%eax
    c3e8:	89 c6                	mov    %eax,%esi
    c3ea:	48 8d 3d 49 1c 00 00 	lea    0x1c49(%rip),%rdi        # e03a <g_59+0xfe5>
    c3f1:	b8 00 00 00 00       	mov    $0x0,%eax
    c3f6:	e8 85 8c ff ff       	callq  5080 <printf@plt>
    c3fb:	83 45 f0 01          	addl   $0x1,-0x10(%rbp)
    c3ff:	83 7d f0 00          	cmpl   $0x0,-0x10(%rbp)
    c403:	7e ad                	jle    c3b2 <main+0xe25>
    c405:	8b 05 15 4c 00 00    	mov    0x4c15(%rip),%eax        # 11020 <crc32_context>
    c40b:	f7 d0                	not    %eax
    c40d:	89 c2                	mov    %eax,%edx
    c40f:	8b 45 fc             	mov    -0x4(%rbp),%eax
    c412:	89 c6                	mov    %eax,%esi
    c414:	89 d7                	mov    %edx,%edi
    c416:	e8 79 8d ff ff       	callq  5194 <platform_main_end>
    c41b:	b8 00 00 00 00       	mov    $0x0,%eax
    c420:	c9                   	leaveq 
    c421:	c3                   	retq   
    c422:	66 2e 0f 1f 84 00 00 	nopw   %cs:0x0(%rax,%rax,1)
    c429:	00 00 00 
    c42c:	0f 1f 40 00          	nopl   0x0(%rax)

000000000000c430 <__libc_csu_init>:
    c430:	f3 0f 1e fa          	endbr64 
    c434:	41 57                	push   %r15
    c436:	4c 8d 3d 63 49 00 00 	lea    0x4963(%rip),%r15        # 10da0 <__frame_dummy_init_array_entry>
    c43d:	41 56                	push   %r14
    c43f:	49 89 d6             	mov    %rdx,%r14
    c442:	41 55                	push   %r13
    c444:	49 89 f5             	mov    %rsi,%r13
    c447:	41 54                	push   %r12
    c449:	41 89 fc             	mov    %edi,%r12d
    c44c:	55                   	push   %rbp
    c44d:	48 8d 2d 54 49 00 00 	lea    0x4954(%rip),%rbp        # 10da8 <__do_global_dtors_aux_fini_array_entry>
    c454:	53                   	push   %rbx
    c455:	4c 29 fd             	sub    %r15,%rbp
    c458:	48 83 ec 08          	sub    $0x8,%rsp
    c45c:	e8 9f 8b ff ff       	callq  5000 <_init>
    c461:	48 c1 fd 03          	sar    $0x3,%rbp
    c465:	74 1f                	je     c486 <__libc_csu_init+0x56>
    c467:	31 db                	xor    %ebx,%ebx
    c469:	0f 1f 80 00 00 00 00 	nopl   0x0(%rax)
    c470:	4c 89 f2             	mov    %r14,%rdx
    c473:	4c 89 ee             	mov    %r13,%rsi
    c476:	44 89 e7             	mov    %r12d,%edi
    c479:	41 ff 14 df          	callq  *(%r15,%rbx,8)
    c47d:	48 83 c3 01          	add    $0x1,%rbx
    c481:	48 39 dd             	cmp    %rbx,%rbp
    c484:	75 ea                	jne    c470 <__libc_csu_init+0x40>
    c486:	48 83 c4 08          	add    $0x8,%rsp
    c48a:	5b                   	pop    %rbx
    c48b:	5d                   	pop    %rbp
    c48c:	41 5c                	pop    %r12
    c48e:	41 5d                	pop    %r13
    c490:	41 5e                	pop    %r14
    c492:	41 5f                	pop    %r15
    c494:	c3                   	retq   
    c495:	66 66 2e 0f 1f 84 00 	data16 nopw %cs:0x0(%rax,%rax,1)
    c49c:	00 00 00 00 

000000000000c4a0 <__libc_csu_fini>:
    c4a0:	f3 0f 1e fa          	endbr64 
    c4a4:	c3                   	retq   
