


Disassembly of section .text:

00000000000040a0 <_start>:
    40a0:	f3 0f 1e fa          	endbr64 
    40a4:	31 ed                	xor    %ebp,%ebp
    40a6:	49 89 d1             	mov    %rdx,%r9
    40a9:	5e                   	pop    %rsi
    40aa:	48 89 e2             	mov    %rsp,%rdx
    40ad:	48 83 e4 f0          	and    $0xfffffffffffffff0,%rsp
    40b1:	50                   	push   %rax
    40b2:	54                   	push   %rsp
    40b3:	4c 8d 05 a6 70 00 00 	lea    0x70a6(%rip),%r8        # b160 <__libc_csu_fini>
    40ba:	48 8d 0d 2f 70 00 00 	lea    0x702f(%rip),%rcx        # b0f0 <__libc_csu_init>
    40c1:	48 8d 3d c6 61 00 00 	lea    0x61c6(%rip),%rdi        # a28e <main>
    40c8:	ff 15 12 bf 00 00    	callq  *0xbf12(%rip)        # ffe0 <__libc_start_main@GLIBC_2.2.5>
    40ce:	f4                   	hlt    
    40cf:	90                   	nop

00000000000040d0 <deregister_tm_clones>:
    40d0:	48 8d 3d 09 df 00 00 	lea    0xdf09(%rip),%rdi        # 11fe0 <__TMC_END__>
    40d7:	48 8d 05 02 df 00 00 	lea    0xdf02(%rip),%rax        # 11fe0 <__TMC_END__>
    40de:	48 39 f8             	cmp    %rdi,%rax
    40e1:	74 15                	je     40f8 <deregister_tm_clones+0x28>
    40e3:	48 8b 05 ee be 00 00 	mov    0xbeee(%rip),%rax        # ffd8 <_ITM_deregisterTMCloneTable>
    40ea:	48 85 c0             	test   %rax,%rax
    40ed:	74 09                	je     40f8 <deregister_tm_clones+0x28>
    40ef:	ff e0                	jmpq   *%rax
    40f1:	0f 1f 80 00 00 00 00 	nopl   0x0(%rax)
    40f8:	c3                   	retq   
    40f9:	0f 1f 80 00 00 00 00 	nopl   0x0(%rax)

0000000000004100 <register_tm_clones>:
    4100:	48 8d 3d d9 de 00 00 	lea    0xded9(%rip),%rdi        # 11fe0 <__TMC_END__>
    4107:	48 8d 35 d2 de 00 00 	lea    0xded2(%rip),%rsi        # 11fe0 <__TMC_END__>
    410e:	48 29 fe             	sub    %rdi,%rsi
    4111:	48 89 f0             	mov    %rsi,%rax
    4114:	48 c1 ee 3f          	shr    $0x3f,%rsi
    4118:	48 c1 f8 03          	sar    $0x3,%rax
    411c:	48 01 c6             	add    %rax,%rsi
    411f:	48 d1 fe             	sar    %rsi
    4122:	74 14                	je     4138 <register_tm_clones+0x38>
    4124:	48 8b 05 c5 be 00 00 	mov    0xbec5(%rip),%rax        # fff0 <_ITM_registerTMCloneTable>
    412b:	48 85 c0             	test   %rax,%rax
    412e:	74 08                	je     4138 <register_tm_clones+0x38>
    4130:	ff e0                	jmpq   *%rax
    4132:	66 0f 1f 44 00 00    	nopw   0x0(%rax,%rax,1)
    4138:	c3                   	retq   
    4139:	0f 1f 80 00 00 00 00 	nopl   0x0(%rax)

0000000000004140 <__do_global_dtors_aux>:
    4140:	f3 0f 1e fa          	endbr64 
    4144:	80 3d 95 de 00 00 00 	cmpb   $0x0,0xde95(%rip)        # 11fe0 <__TMC_END__>
    414b:	75 2b                	jne    4178 <__do_global_dtors_aux+0x38>
    414d:	55                   	push   %rbp
    414e:	48 83 3d a2 be 00 00 	cmpq   $0x0,0xbea2(%rip)        # fff8 <__cxa_finalize@GLIBC_2.2.5>
    4155:	00 
    4156:	48 89 e5             	mov    %rsp,%rbp
    4159:	74 0c                	je     4167 <__do_global_dtors_aux+0x27>
    415b:	48 8b 3d a6 be 00 00 	mov    0xbea6(%rip),%rdi        # 10008 <__dso_handle>
    4162:	e8 f9 fe ff ff       	callq  4060 <__cxa_finalize@plt>
    4167:	e8 64 ff ff ff       	callq  40d0 <deregister_tm_clones>
    416c:	c6 05 6d de 00 00 01 	movb   $0x1,0xde6d(%rip)        # 11fe0 <__TMC_END__>
    4173:	5d                   	pop    %rbp
    4174:	c3                   	retq   
    4175:	0f 1f 00             	nopl   (%rax)
    4178:	c3                   	retq   
    4179:	0f 1f 80 00 00 00 00 	nopl   0x0(%rax)

0000000000004180 <frame_dummy>:
    4180:	f3 0f 1e fa          	endbr64 
    4184:	e9 77 ff ff ff       	jmpq   4100 <register_tm_clones>

0000000000004189 <platform_main_begin>:
    4189:	f3 0f 1e fa          	endbr64 
    418d:	55                   	push   %rbp
    418e:	48 89 e5             	mov    %rsp,%rbp
    4191:	90                   	nop
    4192:	5d                   	pop    %rbp
    4193:	c3                   	retq   

0000000000004194 <platform_main_end>:
    4194:	f3 0f 1e fa          	endbr64 
    4198:	55                   	push   %rbp
    4199:	48 89 e5             	mov    %rsp,%rbp
    419c:	48 83 ec 10          	sub    $0x10,%rsp
    41a0:	89 7d fc             	mov    %edi,-0x4(%rbp)
    41a3:	89 75 f8             	mov    %esi,-0x8(%rbp)
    41a6:	8b 45 fc             	mov    -0x4(%rbp),%eax
    41a9:	89 c6                	mov    %eax,%esi
    41ab:	48 8d 3d 6e 7e 00 00 	lea    0x7e6e(%rip),%rdi        # c020 <_IO_stdin_used+0x20>
    41b2:	b8 00 00 00 00       	mov    $0x0,%eax
    41b7:	e8 c4 fe ff ff       	callq  4080 <printf@plt>
    41bc:	90                   	nop
    41bd:	c9                   	leaveq 
    41be:	c3                   	retq   

00000000000041bf <safe_unary_minus_func_int8_t_s>:
    41bf:	f3 0f 1e fa          	endbr64 
    41c3:	55                   	push   %rbp
    41c4:	48 89 e5             	mov    %rsp,%rbp
    41c7:	89 f8                	mov    %edi,%eax
    41c9:	88 45 fc             	mov    %al,-0x4(%rbp)
    41cc:	0f b6 45 fc          	movzbl -0x4(%rbp),%eax
    41d0:	f7 d8                	neg    %eax
    41d2:	5d                   	pop    %rbp
    41d3:	c3                   	retq   

00000000000041d4 <safe_add_func_int8_t_s_s>:
    41d4:	f3 0f 1e fa          	endbr64 
    41d8:	55                   	push   %rbp
    41d9:	48 89 e5             	mov    %rsp,%rbp
    41dc:	89 fa                	mov    %edi,%edx
    41de:	89 f0                	mov    %esi,%eax
    41e0:	88 55 fc             	mov    %dl,-0x4(%rbp)
    41e3:	88 45 f8             	mov    %al,-0x8(%rbp)
    41e6:	0f b6 55 fc          	movzbl -0x4(%rbp),%edx
    41ea:	0f b6 45 f8          	movzbl -0x8(%rbp),%eax
    41ee:	01 d0                	add    %edx,%eax
    41f0:	5d                   	pop    %rbp
    41f1:	c3                   	retq   

00000000000041f2 <safe_sub_func_int8_t_s_s>:
    41f2:	f3 0f 1e fa          	endbr64 
    41f6:	55                   	push   %rbp
    41f7:	48 89 e5             	mov    %rsp,%rbp
    41fa:	89 fa                	mov    %edi,%edx
    41fc:	89 f0                	mov    %esi,%eax
    41fe:	88 55 fc             	mov    %dl,-0x4(%rbp)
    4201:	88 45 f8             	mov    %al,-0x8(%rbp)
    4204:	0f b6 55 fc          	movzbl -0x4(%rbp),%edx
    4208:	0f b6 45 f8          	movzbl -0x8(%rbp),%eax
    420c:	29 c2                	sub    %eax,%edx
    420e:	89 d0                	mov    %edx,%eax
    4210:	5d                   	pop    %rbp
    4211:	c3                   	retq   

0000000000004212 <safe_mul_func_int8_t_s_s>:
    4212:	f3 0f 1e fa          	endbr64 
    4216:	55                   	push   %rbp
    4217:	48 89 e5             	mov    %rsp,%rbp
    421a:	89 fa                	mov    %edi,%edx
    421c:	89 f0                	mov    %esi,%eax
    421e:	88 55 fc             	mov    %dl,-0x4(%rbp)
    4221:	88 45 f8             	mov    %al,-0x8(%rbp)
    4224:	0f b6 45 fc          	movzbl -0x4(%rbp),%eax
    4228:	0f b6 55 f8          	movzbl -0x8(%rbp),%edx
    422c:	0f af c2             	imul   %edx,%eax
    422f:	5d                   	pop    %rbp
    4230:	c3                   	retq   

0000000000004231 <safe_mod_func_int8_t_s_s>:
    4231:	f3 0f 1e fa          	endbr64 
    4235:	55                   	push   %rbp
    4236:	48 89 e5             	mov    %rsp,%rbp
    4239:	89 fa                	mov    %edi,%edx
    423b:	89 f0                	mov    %esi,%eax
    423d:	88 55 fc             	mov    %dl,-0x4(%rbp)
    4240:	88 45 f8             	mov    %al,-0x8(%rbp)
    4243:	80 7d f8 00          	cmpb   $0x0,-0x8(%rbp)
    4247:	74 1b                	je     4264 <safe_mod_func_int8_t_s_s+0x33>
    4249:	80 7d fc 80          	cmpb   $0x80,-0x4(%rbp)
    424d:	75 06                	jne    4255 <safe_mod_func_int8_t_s_s+0x24>
    424f:	80 7d f8 ff          	cmpb   $0xff,-0x8(%rbp)
    4253:	74 0f                	je     4264 <safe_mod_func_int8_t_s_s+0x33>
    4255:	0f be 45 fc          	movsbl -0x4(%rbp),%eax
    4259:	0f be 4d f8          	movsbl -0x8(%rbp),%ecx
    425d:	99                   	cltd   
    425e:	f7 f9                	idiv   %ecx
    4260:	89 d0                	mov    %edx,%eax
    4262:	eb 04                	jmp    4268 <safe_mod_func_int8_t_s_s+0x37>
    4264:	0f b6 45 fc          	movzbl -0x4(%rbp),%eax
    4268:	5d                   	pop    %rbp
    4269:	c3                   	retq   

000000000000426a <safe_div_func_int8_t_s_s>:
    426a:	f3 0f 1e fa          	endbr64 
    426e:	55                   	push   %rbp
    426f:	48 89 e5             	mov    %rsp,%rbp
    4272:	89 fa                	mov    %edi,%edx
    4274:	89 f0                	mov    %esi,%eax
    4276:	88 55 fc             	mov    %dl,-0x4(%rbp)
    4279:	88 45 f8             	mov    %al,-0x8(%rbp)
    427c:	80 7d f8 00          	cmpb   $0x0,-0x8(%rbp)
    4280:	74 19                	je     429b <safe_div_func_int8_t_s_s+0x31>
    4282:	80 7d fc 80          	cmpb   $0x80,-0x4(%rbp)
    4286:	75 06                	jne    428e <safe_div_func_int8_t_s_s+0x24>
    4288:	80 7d f8 ff          	cmpb   $0xff,-0x8(%rbp)
    428c:	74 0d                	je     429b <safe_div_func_int8_t_s_s+0x31>
    428e:	0f be 45 fc          	movsbl -0x4(%rbp),%eax
    4292:	0f be 4d f8          	movsbl -0x8(%rbp),%ecx
    4296:	99                   	cltd   
    4297:	f7 f9                	idiv   %ecx
    4299:	eb 04                	jmp    429f <safe_div_func_int8_t_s_s+0x35>
    429b:	0f b6 45 fc          	movzbl -0x4(%rbp),%eax
    429f:	5d                   	pop    %rbp
    42a0:	c3                   	retq   

00000000000042a1 <safe_lshift_func_int8_t_s_s>:
    42a1:	f3 0f 1e fa          	endbr64 
    42a5:	55                   	push   %rbp
    42a6:	48 89 e5             	mov    %rsp,%rbp
    42a9:	89 f8                	mov    %edi,%eax
    42ab:	89 75 f8             	mov    %esi,-0x8(%rbp)
    42ae:	88 45 fc             	mov    %al,-0x4(%rbp)
    42b1:	80 7d fc 00          	cmpb   $0x0,-0x4(%rbp)
    42b5:	78 31                	js     42e8 <safe_lshift_func_int8_t_s_s+0x47>
    42b7:	83 7d f8 00          	cmpl   $0x0,-0x8(%rbp)
    42bb:	78 2b                	js     42e8 <safe_lshift_func_int8_t_s_s+0x47>
    42bd:	83 7d f8 1f          	cmpl   $0x1f,-0x8(%rbp)
    42c1:	7f 25                	jg     42e8 <safe_lshift_func_int8_t_s_s+0x47>
    42c3:	0f be 55 fc          	movsbl -0x4(%rbp),%edx
    42c7:	8b 45 f8             	mov    -0x8(%rbp),%eax
    42ca:	be 7f 00 00 00       	mov    $0x7f,%esi
    42cf:	89 c1                	mov    %eax,%ecx
    42d1:	d3 fe                	sar    %cl,%esi
    42d3:	89 f0                	mov    %esi,%eax
    42d5:	39 c2                	cmp    %eax,%edx
    42d7:	7f 0f                	jg     42e8 <safe_lshift_func_int8_t_s_s+0x47>
    42d9:	0f be 55 fc          	movsbl -0x4(%rbp),%edx
    42dd:	8b 45 f8             	mov    -0x8(%rbp),%eax
    42e0:	89 c1                	mov    %eax,%ecx
    42e2:	d3 e2                	shl    %cl,%edx
    42e4:	89 d0                	mov    %edx,%eax
    42e6:	eb 04                	jmp    42ec <safe_lshift_func_int8_t_s_s+0x4b>
    42e8:	0f b6 45 fc          	movzbl -0x4(%rbp),%eax
    42ec:	5d                   	pop    %rbp
    42ed:	c3                   	retq   

00000000000042ee <safe_lshift_func_int8_t_s_u>:
    42ee:	f3 0f 1e fa          	endbr64 
    42f2:	55                   	push   %rbp
    42f3:	48 89 e5             	mov    %rsp,%rbp
    42f6:	89 f8                	mov    %edi,%eax
    42f8:	89 75 f8             	mov    %esi,-0x8(%rbp)
    42fb:	88 45 fc             	mov    %al,-0x4(%rbp)
    42fe:	80 7d fc 00          	cmpb   $0x0,-0x4(%rbp)
    4302:	78 2b                	js     432f <safe_lshift_func_int8_t_s_u+0x41>
    4304:	83 7d f8 1f          	cmpl   $0x1f,-0x8(%rbp)
    4308:	77 25                	ja     432f <safe_lshift_func_int8_t_s_u+0x41>
    430a:	0f be 55 fc          	movsbl -0x4(%rbp),%edx
    430e:	8b 45 f8             	mov    -0x8(%rbp),%eax
    4311:	be 7f 00 00 00       	mov    $0x7f,%esi
    4316:	89 c1                	mov    %eax,%ecx
    4318:	d3 fe                	sar    %cl,%esi
    431a:	89 f0                	mov    %esi,%eax
    431c:	39 c2                	cmp    %eax,%edx
    431e:	7f 0f                	jg     432f <safe_lshift_func_int8_t_s_u+0x41>
    4320:	0f be 55 fc          	movsbl -0x4(%rbp),%edx
    4324:	8b 45 f8             	mov    -0x8(%rbp),%eax
    4327:	89 c1                	mov    %eax,%ecx
    4329:	d3 e2                	shl    %cl,%edx
    432b:	89 d0                	mov    %edx,%eax
    432d:	eb 04                	jmp    4333 <safe_lshift_func_int8_t_s_u+0x45>
    432f:	0f b6 45 fc          	movzbl -0x4(%rbp),%eax
    4333:	5d                   	pop    %rbp
    4334:	c3                   	retq   

0000000000004335 <safe_rshift_func_int8_t_s_s>:
    4335:	f3 0f 1e fa          	endbr64 
    4339:	55                   	push   %rbp
    433a:	48 89 e5             	mov    %rsp,%rbp
    433d:	89 f8                	mov    %edi,%eax
    433f:	89 75 f8             	mov    %esi,-0x8(%rbp)
    4342:	88 45 fc             	mov    %al,-0x4(%rbp)
    4345:	80 7d fc 00          	cmpb   $0x0,-0x4(%rbp)
    4349:	78 1b                	js     4366 <safe_rshift_func_int8_t_s_s+0x31>
    434b:	83 7d f8 00          	cmpl   $0x0,-0x8(%rbp)
    434f:	78 15                	js     4366 <safe_rshift_func_int8_t_s_s+0x31>
    4351:	83 7d f8 1f          	cmpl   $0x1f,-0x8(%rbp)
    4355:	7f 0f                	jg     4366 <safe_rshift_func_int8_t_s_s+0x31>
    4357:	0f be 55 fc          	movsbl -0x4(%rbp),%edx
    435b:	8b 45 f8             	mov    -0x8(%rbp),%eax
    435e:	89 c1                	mov    %eax,%ecx
    4360:	d3 fa                	sar    %cl,%edx
    4362:	89 d0                	mov    %edx,%eax
    4364:	eb 04                	jmp    436a <safe_rshift_func_int8_t_s_s+0x35>
    4366:	0f b6 45 fc          	movzbl -0x4(%rbp),%eax
    436a:	5d                   	pop    %rbp
    436b:	c3                   	retq   

000000000000436c <safe_rshift_func_int8_t_s_u>:
    436c:	f3 0f 1e fa          	endbr64 
    4370:	55                   	push   %rbp
    4371:	48 89 e5             	mov    %rsp,%rbp
    4374:	89 f8                	mov    %edi,%eax
    4376:	89 75 f8             	mov    %esi,-0x8(%rbp)
    4379:	88 45 fc             	mov    %al,-0x4(%rbp)
    437c:	80 7d fc 00          	cmpb   $0x0,-0x4(%rbp)
    4380:	78 15                	js     4397 <safe_rshift_func_int8_t_s_u+0x2b>
    4382:	83 7d f8 1f          	cmpl   $0x1f,-0x8(%rbp)
    4386:	77 0f                	ja     4397 <safe_rshift_func_int8_t_s_u+0x2b>
    4388:	0f be 55 fc          	movsbl -0x4(%rbp),%edx
    438c:	8b 45 f8             	mov    -0x8(%rbp),%eax
    438f:	89 c1                	mov    %eax,%ecx
    4391:	d3 fa                	sar    %cl,%edx
    4393:	89 d0                	mov    %edx,%eax
    4395:	eb 04                	jmp    439b <safe_rshift_func_int8_t_s_u+0x2f>
    4397:	0f b6 45 fc          	movzbl -0x4(%rbp),%eax
    439b:	5d                   	pop    %rbp
    439c:	c3                   	retq   

000000000000439d <safe_unary_minus_func_int16_t_s>:
    439d:	f3 0f 1e fa          	endbr64 
    43a1:	55                   	push   %rbp
    43a2:	48 89 e5             	mov    %rsp,%rbp
    43a5:	89 f8                	mov    %edi,%eax
    43a7:	66 89 45 fc          	mov    %ax,-0x4(%rbp)
    43ab:	0f b7 45 fc          	movzwl -0x4(%rbp),%eax
    43af:	f7 d8                	neg    %eax
    43b1:	5d                   	pop    %rbp
    43b2:	c3                   	retq   

00000000000043b3 <safe_add_func_int16_t_s_s>:
    43b3:	f3 0f 1e fa          	endbr64 
    43b7:	55                   	push   %rbp
    43b8:	48 89 e5             	mov    %rsp,%rbp
    43bb:	89 fa                	mov    %edi,%edx
    43bd:	89 f0                	mov    %esi,%eax
    43bf:	66 89 55 fc          	mov    %dx,-0x4(%rbp)
    43c3:	66 89 45 f8          	mov    %ax,-0x8(%rbp)
    43c7:	0f b7 55 fc          	movzwl -0x4(%rbp),%edx
    43cb:	0f b7 45 f8          	movzwl -0x8(%rbp),%eax
    43cf:	01 d0                	add    %edx,%eax
    43d1:	5d                   	pop    %rbp
    43d2:	c3                   	retq   

00000000000043d3 <safe_sub_func_int16_t_s_s>:
    43d3:	f3 0f 1e fa          	endbr64 
    43d7:	55                   	push   %rbp
    43d8:	48 89 e5             	mov    %rsp,%rbp
    43db:	89 fa                	mov    %edi,%edx
    43dd:	89 f0                	mov    %esi,%eax
    43df:	66 89 55 fc          	mov    %dx,-0x4(%rbp)
    43e3:	66 89 45 f8          	mov    %ax,-0x8(%rbp)
    43e7:	0f b7 55 fc          	movzwl -0x4(%rbp),%edx
    43eb:	0f b7 45 f8          	movzwl -0x8(%rbp),%eax
    43ef:	29 c2                	sub    %eax,%edx
    43f1:	89 d0                	mov    %edx,%eax
    43f3:	5d                   	pop    %rbp
    43f4:	c3                   	retq   

00000000000043f5 <safe_mul_func_int16_t_s_s>:
    43f5:	f3 0f 1e fa          	endbr64 
    43f9:	55                   	push   %rbp
    43fa:	48 89 e5             	mov    %rsp,%rbp
    43fd:	89 fa                	mov    %edi,%edx
    43ff:	89 f0                	mov    %esi,%eax
    4401:	66 89 55 fc          	mov    %dx,-0x4(%rbp)
    4405:	66 89 45 f8          	mov    %ax,-0x8(%rbp)
    4409:	0f b7 55 fc          	movzwl -0x4(%rbp),%edx
    440d:	0f b7 45 f8          	movzwl -0x8(%rbp),%eax
    4411:	0f af c2             	imul   %edx,%eax
    4414:	5d                   	pop    %rbp
    4415:	c3                   	retq   

0000000000004416 <safe_mod_func_int16_t_s_s>:
    4416:	f3 0f 1e fa          	endbr64 
    441a:	55                   	push   %rbp
    441b:	48 89 e5             	mov    %rsp,%rbp
    441e:	89 fa                	mov    %edi,%edx
    4420:	89 f0                	mov    %esi,%eax
    4422:	66 89 55 fc          	mov    %dx,-0x4(%rbp)
    4426:	66 89 45 f8          	mov    %ax,-0x8(%rbp)
    442a:	66 83 7d f8 00       	cmpw   $0x0,-0x8(%rbp)
    442f:	74 1e                	je     444f <safe_mod_func_int16_t_s_s+0x39>
    4431:	66 81 7d fc 00 80    	cmpw   $0x8000,-0x4(%rbp)
    4437:	75 07                	jne    4440 <safe_mod_func_int16_t_s_s+0x2a>
    4439:	66 83 7d f8 ff       	cmpw   $0xffff,-0x8(%rbp)
    443e:	74 0f                	je     444f <safe_mod_func_int16_t_s_s+0x39>
    4440:	0f bf 45 fc          	movswl -0x4(%rbp),%eax
    4444:	0f bf 4d f8          	movswl -0x8(%rbp),%ecx
    4448:	99                   	cltd   
    4449:	f7 f9                	idiv   %ecx
    444b:	89 d0                	mov    %edx,%eax
    444d:	eb 04                	jmp    4453 <safe_mod_func_int16_t_s_s+0x3d>
    444f:	0f b7 45 fc          	movzwl -0x4(%rbp),%eax
    4453:	5d                   	pop    %rbp
    4454:	c3                   	retq   

0000000000004455 <safe_div_func_int16_t_s_s>:
    4455:	f3 0f 1e fa          	endbr64 
    4459:	55                   	push   %rbp
    445a:	48 89 e5             	mov    %rsp,%rbp
    445d:	89 fa                	mov    %edi,%edx
    445f:	89 f0                	mov    %esi,%eax
    4461:	66 89 55 fc          	mov    %dx,-0x4(%rbp)
    4465:	66 89 45 f8          	mov    %ax,-0x8(%rbp)
    4469:	66 83 7d f8 00       	cmpw   $0x0,-0x8(%rbp)
    446e:	74 1c                	je     448c <safe_div_func_int16_t_s_s+0x37>
    4470:	66 81 7d fc 00 80    	cmpw   $0x8000,-0x4(%rbp)
    4476:	75 07                	jne    447f <safe_div_func_int16_t_s_s+0x2a>
    4478:	66 83 7d f8 ff       	cmpw   $0xffff,-0x8(%rbp)
    447d:	74 0d                	je     448c <safe_div_func_int16_t_s_s+0x37>
    447f:	0f bf 45 fc          	movswl -0x4(%rbp),%eax
    4483:	0f bf 4d f8          	movswl -0x8(%rbp),%ecx
    4487:	99                   	cltd   
    4488:	f7 f9                	idiv   %ecx
    448a:	eb 04                	jmp    4490 <safe_div_func_int16_t_s_s+0x3b>
    448c:	0f b7 45 fc          	movzwl -0x4(%rbp),%eax
    4490:	5d                   	pop    %rbp
    4491:	c3                   	retq   

0000000000004492 <safe_lshift_func_int16_t_s_s>:
    4492:	f3 0f 1e fa          	endbr64 
    4496:	55                   	push   %rbp
    4497:	48 89 e5             	mov    %rsp,%rbp
    449a:	89 f8                	mov    %edi,%eax
    449c:	89 75 f8             	mov    %esi,-0x8(%rbp)
    449f:	66 89 45 fc          	mov    %ax,-0x4(%rbp)
    44a3:	66 83 7d fc 00       	cmpw   $0x0,-0x4(%rbp)
    44a8:	78 31                	js     44db <safe_lshift_func_int16_t_s_s+0x49>
    44aa:	83 7d f8 00          	cmpl   $0x0,-0x8(%rbp)
    44ae:	78 2b                	js     44db <safe_lshift_func_int16_t_s_s+0x49>
    44b0:	83 7d f8 1f          	cmpl   $0x1f,-0x8(%rbp)
    44b4:	7f 25                	jg     44db <safe_lshift_func_int16_t_s_s+0x49>
    44b6:	0f bf 55 fc          	movswl -0x4(%rbp),%edx
    44ba:	8b 45 f8             	mov    -0x8(%rbp),%eax
    44bd:	be ff 7f 00 00       	mov    $0x7fff,%esi
    44c2:	89 c1                	mov    %eax,%ecx
    44c4:	d3 fe                	sar    %cl,%esi
    44c6:	89 f0                	mov    %esi,%eax
    44c8:	39 c2                	cmp    %eax,%edx
    44ca:	7f 0f                	jg     44db <safe_lshift_func_int16_t_s_s+0x49>
    44cc:	0f bf 55 fc          	movswl -0x4(%rbp),%edx
    44d0:	8b 45 f8             	mov    -0x8(%rbp),%eax
    44d3:	89 c1                	mov    %eax,%ecx
    44d5:	d3 e2                	shl    %cl,%edx
    44d7:	89 d0                	mov    %edx,%eax
    44d9:	eb 04                	jmp    44df <safe_lshift_func_int16_t_s_s+0x4d>
    44db:	0f b7 45 fc          	movzwl -0x4(%rbp),%eax
    44df:	5d                   	pop    %rbp
    44e0:	c3                   	retq   

00000000000044e1 <safe_lshift_func_int16_t_s_u>:
    44e1:	f3 0f 1e fa          	endbr64 
    44e5:	55                   	push   %rbp
    44e6:	48 89 e5             	mov    %rsp,%rbp
    44e9:	89 f8                	mov    %edi,%eax
    44eb:	89 75 f8             	mov    %esi,-0x8(%rbp)
    44ee:	66 89 45 fc          	mov    %ax,-0x4(%rbp)
    44f2:	66 83 7d fc 00       	cmpw   $0x0,-0x4(%rbp)
    44f7:	78 2b                	js     4524 <safe_lshift_func_int16_t_s_u+0x43>
    44f9:	83 7d f8 1f          	cmpl   $0x1f,-0x8(%rbp)
    44fd:	77 25                	ja     4524 <safe_lshift_func_int16_t_s_u+0x43>
    44ff:	0f bf 55 fc          	movswl -0x4(%rbp),%edx
    4503:	8b 45 f8             	mov    -0x8(%rbp),%eax
    4506:	be ff 7f 00 00       	mov    $0x7fff,%esi
    450b:	89 c1                	mov    %eax,%ecx
    450d:	d3 fe                	sar    %cl,%esi
    450f:	89 f0                	mov    %esi,%eax
    4511:	39 c2                	cmp    %eax,%edx
    4513:	7f 0f                	jg     4524 <safe_lshift_func_int16_t_s_u+0x43>
    4515:	0f bf 55 fc          	movswl -0x4(%rbp),%edx
    4519:	8b 45 f8             	mov    -0x8(%rbp),%eax
    451c:	89 c1                	mov    %eax,%ecx
    451e:	d3 e2                	shl    %cl,%edx
    4520:	89 d0                	mov    %edx,%eax
    4522:	eb 04                	jmp    4528 <safe_lshift_func_int16_t_s_u+0x47>
    4524:	0f b7 45 fc          	movzwl -0x4(%rbp),%eax
    4528:	5d                   	pop    %rbp
    4529:	c3                   	retq   

000000000000452a <safe_rshift_func_int16_t_s_s>:
    452a:	f3 0f 1e fa          	endbr64 
    452e:	55                   	push   %rbp
    452f:	48 89 e5             	mov    %rsp,%rbp
    4532:	89 f8                	mov    %edi,%eax
    4534:	89 75 f8             	mov    %esi,-0x8(%rbp)
    4537:	66 89 45 fc          	mov    %ax,-0x4(%rbp)
    453b:	66 83 7d fc 00       	cmpw   $0x0,-0x4(%rbp)
    4540:	78 1b                	js     455d <safe_rshift_func_int16_t_s_s+0x33>
    4542:	83 7d f8 00          	cmpl   $0x0,-0x8(%rbp)
    4546:	78 15                	js     455d <safe_rshift_func_int16_t_s_s+0x33>
    4548:	83 7d f8 1f          	cmpl   $0x1f,-0x8(%rbp)
    454c:	7f 0f                	jg     455d <safe_rshift_func_int16_t_s_s+0x33>
    454e:	0f bf 55 fc          	movswl -0x4(%rbp),%edx
    4552:	8b 45 f8             	mov    -0x8(%rbp),%eax
    4555:	89 c1                	mov    %eax,%ecx
    4557:	d3 fa                	sar    %cl,%edx
    4559:	89 d0                	mov    %edx,%eax
    455b:	eb 04                	jmp    4561 <safe_rshift_func_int16_t_s_s+0x37>
    455d:	0f b7 45 fc          	movzwl -0x4(%rbp),%eax
    4561:	5d                   	pop    %rbp
    4562:	c3                   	retq   

0000000000004563 <safe_rshift_func_int16_t_s_u>:
    4563:	f3 0f 1e fa          	endbr64 
    4567:	55                   	push   %rbp
    4568:	48 89 e5             	mov    %rsp,%rbp
    456b:	89 f8                	mov    %edi,%eax
    456d:	89 75 f8             	mov    %esi,-0x8(%rbp)
    4570:	66 89 45 fc          	mov    %ax,-0x4(%rbp)
    4574:	66 83 7d fc 00       	cmpw   $0x0,-0x4(%rbp)
    4579:	78 15                	js     4590 <safe_rshift_func_int16_t_s_u+0x2d>
    457b:	83 7d f8 1f          	cmpl   $0x1f,-0x8(%rbp)
    457f:	77 0f                	ja     4590 <safe_rshift_func_int16_t_s_u+0x2d>
    4581:	0f bf 55 fc          	movswl -0x4(%rbp),%edx
    4585:	8b 45 f8             	mov    -0x8(%rbp),%eax
    4588:	89 c1                	mov    %eax,%ecx
    458a:	d3 fa                	sar    %cl,%edx
    458c:	89 d0                	mov    %edx,%eax
    458e:	eb 04                	jmp    4594 <safe_rshift_func_int16_t_s_u+0x31>
    4590:	0f b7 45 fc          	movzwl -0x4(%rbp),%eax
    4594:	5d                   	pop    %rbp
    4595:	c3                   	retq   

0000000000004596 <safe_unary_minus_func_int32_t_s>:
    4596:	f3 0f 1e fa          	endbr64 
    459a:	55                   	push   %rbp
    459b:	48 89 e5             	mov    %rsp,%rbp
    459e:	89 7d fc             	mov    %edi,-0x4(%rbp)
    45a1:	81 7d fc 00 00 00 80 	cmpl   $0x80000000,-0x4(%rbp)
    45a8:	74 07                	je     45b1 <safe_unary_minus_func_int32_t_s+0x1b>
    45aa:	8b 45 fc             	mov    -0x4(%rbp),%eax
    45ad:	f7 d8                	neg    %eax
    45af:	eb 03                	jmp    45b4 <safe_unary_minus_func_int32_t_s+0x1e>
    45b1:	8b 45 fc             	mov    -0x4(%rbp),%eax
    45b4:	5d                   	pop    %rbp
    45b5:	c3                   	retq   

00000000000045b6 <safe_add_func_int32_t_s_s>:
    45b6:	f3 0f 1e fa          	endbr64 
    45ba:	55                   	push   %rbp
    45bb:	48 89 e5             	mov    %rsp,%rbp
    45be:	89 7d fc             	mov    %edi,-0x4(%rbp)
    45c1:	89 75 f8             	mov    %esi,-0x8(%rbp)
    45c4:	83 7d fc 00          	cmpl   $0x0,-0x4(%rbp)
    45c8:	7e 13                	jle    45dd <safe_add_func_int32_t_s_s+0x27>
    45ca:	83 7d f8 00          	cmpl   $0x0,-0x8(%rbp)
    45ce:	7e 0d                	jle    45dd <safe_add_func_int32_t_s_s+0x27>
    45d0:	b8 ff ff ff 7f       	mov    $0x7fffffff,%eax
    45d5:	2b 45 f8             	sub    -0x8(%rbp),%eax
    45d8:	39 45 fc             	cmp    %eax,-0x4(%rbp)
    45db:	7f 23                	jg     4600 <safe_add_func_int32_t_s_s+0x4a>
    45dd:	83 7d fc 00          	cmpl   $0x0,-0x4(%rbp)
    45e1:	79 13                	jns    45f6 <safe_add_func_int32_t_s_s+0x40>
    45e3:	83 7d f8 00          	cmpl   $0x0,-0x8(%rbp)
    45e7:	79 0d                	jns    45f6 <safe_add_func_int32_t_s_s+0x40>
    45e9:	b8 00 00 00 80       	mov    $0x80000000,%eax
    45ee:	2b 45 f8             	sub    -0x8(%rbp),%eax
    45f1:	39 45 fc             	cmp    %eax,-0x4(%rbp)
    45f4:	7c 0a                	jl     4600 <safe_add_func_int32_t_s_s+0x4a>
    45f6:	8b 55 fc             	mov    -0x4(%rbp),%edx
    45f9:	8b 45 f8             	mov    -0x8(%rbp),%eax
    45fc:	01 d0                	add    %edx,%eax
    45fe:	eb 03                	jmp    4603 <safe_add_func_int32_t_s_s+0x4d>
    4600:	8b 45 fc             	mov    -0x4(%rbp),%eax
    4603:	5d                   	pop    %rbp
    4604:	c3                   	retq   

0000000000004605 <safe_sub_func_int32_t_s_s>:
    4605:	f3 0f 1e fa          	endbr64 
    4609:	55                   	push   %rbp
    460a:	48 89 e5             	mov    %rsp,%rbp
    460d:	89 7d fc             	mov    %edi,-0x4(%rbp)
    4610:	89 75 f8             	mov    %esi,-0x8(%rbp)
    4613:	8b 45 fc             	mov    -0x4(%rbp),%eax
    4616:	33 45 f8             	xor    -0x8(%rbp),%eax
    4619:	89 c2                	mov    %eax,%edx
    461b:	8b 45 fc             	mov    -0x4(%rbp),%eax
    461e:	33 45 f8             	xor    -0x8(%rbp),%eax
    4621:	25 00 00 00 80       	and    $0x80000000,%eax
    4626:	33 45 fc             	xor    -0x4(%rbp),%eax
    4629:	2b 45 f8             	sub    -0x8(%rbp),%eax
    462c:	33 45 f8             	xor    -0x8(%rbp),%eax
    462f:	21 d0                	and    %edx,%eax
    4631:	85 c0                	test   %eax,%eax
    4633:	78 08                	js     463d <safe_sub_func_int32_t_s_s+0x38>
    4635:	8b 45 fc             	mov    -0x4(%rbp),%eax
    4638:	2b 45 f8             	sub    -0x8(%rbp),%eax
    463b:	eb 03                	jmp    4640 <safe_sub_func_int32_t_s_s+0x3b>
    463d:	8b 45 fc             	mov    -0x4(%rbp),%eax
    4640:	5d                   	pop    %rbp
    4641:	c3                   	retq   

0000000000004642 <safe_mul_func_int32_t_s_s>:
    4642:	f3 0f 1e fa          	endbr64 
    4646:	55                   	push   %rbp
    4647:	48 89 e5             	mov    %rsp,%rbp
    464a:	89 7d fc             	mov    %edi,-0x4(%rbp)
    464d:	89 75 f8             	mov    %esi,-0x8(%rbp)
    4650:	83 7d fc 00          	cmpl   $0x0,-0x4(%rbp)
    4654:	7e 14                	jle    466a <safe_mul_func_int32_t_s_s+0x28>
    4656:	83 7d f8 00          	cmpl   $0x0,-0x8(%rbp)
    465a:	7e 0e                	jle    466a <safe_mul_func_int32_t_s_s+0x28>
    465c:	b8 ff ff ff 7f       	mov    $0x7fffffff,%eax
    4661:	99                   	cltd   
    4662:	f7 7d f8             	idivl  -0x8(%rbp)
    4665:	39 45 fc             	cmp    %eax,-0x4(%rbp)
    4668:	7f 5d                	jg     46c7 <safe_mul_func_int32_t_s_s+0x85>
    466a:	83 7d fc 00          	cmpl   $0x0,-0x4(%rbp)
    466e:	7e 14                	jle    4684 <safe_mul_func_int32_t_s_s+0x42>
    4670:	83 7d f8 00          	cmpl   $0x0,-0x8(%rbp)
    4674:	7f 0e                	jg     4684 <safe_mul_func_int32_t_s_s+0x42>
    4676:	b8 00 00 00 80       	mov    $0x80000000,%eax
    467b:	99                   	cltd   
    467c:	f7 7d fc             	idivl  -0x4(%rbp)
    467f:	39 45 f8             	cmp    %eax,-0x8(%rbp)
    4682:	7c 43                	jl     46c7 <safe_mul_func_int32_t_s_s+0x85>
    4684:	83 7d fc 00          	cmpl   $0x0,-0x4(%rbp)
    4688:	7f 14                	jg     469e <safe_mul_func_int32_t_s_s+0x5c>
    468a:	83 7d f8 00          	cmpl   $0x0,-0x8(%rbp)
    468e:	7e 0e                	jle    469e <safe_mul_func_int32_t_s_s+0x5c>
    4690:	b8 00 00 00 80       	mov    $0x80000000,%eax
    4695:	99                   	cltd   
    4696:	f7 7d f8             	idivl  -0x8(%rbp)
    4699:	39 45 fc             	cmp    %eax,-0x4(%rbp)
    469c:	7c 29                	jl     46c7 <safe_mul_func_int32_t_s_s+0x85>
    469e:	83 7d fc 00          	cmpl   $0x0,-0x4(%rbp)
    46a2:	7f 1a                	jg     46be <safe_mul_func_int32_t_s_s+0x7c>
    46a4:	83 7d f8 00          	cmpl   $0x0,-0x8(%rbp)
    46a8:	7f 14                	jg     46be <safe_mul_func_int32_t_s_s+0x7c>
    46aa:	83 7d fc 00          	cmpl   $0x0,-0x4(%rbp)
    46ae:	74 0e                	je     46be <safe_mul_func_int32_t_s_s+0x7c>
    46b0:	b8 ff ff ff 7f       	mov    $0x7fffffff,%eax
    46b5:	99                   	cltd   
    46b6:	f7 7d fc             	idivl  -0x4(%rbp)
    46b9:	39 45 f8             	cmp    %eax,-0x8(%rbp)
    46bc:	7c 09                	jl     46c7 <safe_mul_func_int32_t_s_s+0x85>
    46be:	8b 45 fc             	mov    -0x4(%rbp),%eax
    46c1:	0f af 45 f8          	imul   -0x8(%rbp),%eax
    46c5:	eb 03                	jmp    46ca <safe_mul_func_int32_t_s_s+0x88>
    46c7:	8b 45 fc             	mov    -0x4(%rbp),%eax
    46ca:	5d                   	pop    %rbp
    46cb:	c3                   	retq   

00000000000046cc <safe_mod_func_int32_t_s_s>:
    46cc:	f3 0f 1e fa          	endbr64 
    46d0:	55                   	push   %rbp
    46d1:	48 89 e5             	mov    %rsp,%rbp
    46d4:	89 7d fc             	mov    %edi,-0x4(%rbp)
    46d7:	89 75 f8             	mov    %esi,-0x8(%rbp)
    46da:	83 7d f8 00          	cmpl   $0x0,-0x8(%rbp)
    46de:	74 1a                	je     46fa <safe_mod_func_int32_t_s_s+0x2e>
    46e0:	81 7d fc 00 00 00 80 	cmpl   $0x80000000,-0x4(%rbp)
    46e7:	75 06                	jne    46ef <safe_mod_func_int32_t_s_s+0x23>
    46e9:	83 7d f8 ff          	cmpl   $0xffffffff,-0x8(%rbp)
    46ed:	74 0b                	je     46fa <safe_mod_func_int32_t_s_s+0x2e>
    46ef:	8b 45 fc             	mov    -0x4(%rbp),%eax
    46f2:	99                   	cltd   
    46f3:	f7 7d f8             	idivl  -0x8(%rbp)
    46f6:	89 d0                	mov    %edx,%eax
    46f8:	eb 03                	jmp    46fd <safe_mod_func_int32_t_s_s+0x31>
    46fa:	8b 45 fc             	mov    -0x4(%rbp),%eax
    46fd:	5d                   	pop    %rbp
    46fe:	c3                   	retq   

00000000000046ff <safe_div_func_int32_t_s_s>:
    46ff:	f3 0f 1e fa          	endbr64 
    4703:	55                   	push   %rbp
    4704:	48 89 e5             	mov    %rsp,%rbp
    4707:	89 7d fc             	mov    %edi,-0x4(%rbp)
    470a:	89 75 f8             	mov    %esi,-0x8(%rbp)
    470d:	83 7d f8 00          	cmpl   $0x0,-0x8(%rbp)
    4711:	74 18                	je     472b <safe_div_func_int32_t_s_s+0x2c>
    4713:	81 7d fc 00 00 00 80 	cmpl   $0x80000000,-0x4(%rbp)
    471a:	75 06                	jne    4722 <safe_div_func_int32_t_s_s+0x23>
    471c:	83 7d f8 ff          	cmpl   $0xffffffff,-0x8(%rbp)
    4720:	74 09                	je     472b <safe_div_func_int32_t_s_s+0x2c>
    4722:	8b 45 fc             	mov    -0x4(%rbp),%eax
    4725:	99                   	cltd   
    4726:	f7 7d f8             	idivl  -0x8(%rbp)
    4729:	eb 03                	jmp    472e <safe_div_func_int32_t_s_s+0x2f>
    472b:	8b 45 fc             	mov    -0x4(%rbp),%eax
    472e:	5d                   	pop    %rbp
    472f:	c3                   	retq   

0000000000004730 <safe_lshift_func_int32_t_s_s>:
    4730:	f3 0f 1e fa          	endbr64 
    4734:	55                   	push   %rbp
    4735:	48 89 e5             	mov    %rsp,%rbp
    4738:	89 7d fc             	mov    %edi,-0x4(%rbp)
    473b:	89 75 f8             	mov    %esi,-0x8(%rbp)
    473e:	83 7d fc 00          	cmpl   $0x0,-0x4(%rbp)
    4742:	78 2d                	js     4771 <safe_lshift_func_int32_t_s_s+0x41>
    4744:	83 7d f8 00          	cmpl   $0x0,-0x8(%rbp)
    4748:	78 27                	js     4771 <safe_lshift_func_int32_t_s_s+0x41>
    474a:	83 7d f8 1f          	cmpl   $0x1f,-0x8(%rbp)
    474e:	7f 21                	jg     4771 <safe_lshift_func_int32_t_s_s+0x41>
    4750:	8b 45 f8             	mov    -0x8(%rbp),%eax
    4753:	ba ff ff ff 7f       	mov    $0x7fffffff,%edx
    4758:	89 c1                	mov    %eax,%ecx
    475a:	d3 fa                	sar    %cl,%edx
    475c:	89 d0                	mov    %edx,%eax
    475e:	39 45 fc             	cmp    %eax,-0x4(%rbp)
    4761:	7f 0e                	jg     4771 <safe_lshift_func_int32_t_s_s+0x41>
    4763:	8b 45 f8             	mov    -0x8(%rbp),%eax
    4766:	8b 55 fc             	mov    -0x4(%rbp),%edx
    4769:	89 c1                	mov    %eax,%ecx
    476b:	d3 e2                	shl    %cl,%edx
    476d:	89 d0                	mov    %edx,%eax
    476f:	eb 03                	jmp    4774 <safe_lshift_func_int32_t_s_s+0x44>
    4771:	8b 45 fc             	mov    -0x4(%rbp),%eax
    4774:	5d                   	pop    %rbp
    4775:	c3                   	retq   

0000000000004776 <safe_lshift_func_int32_t_s_u>:
    4776:	f3 0f 1e fa          	endbr64 
    477a:	55                   	push   %rbp
    477b:	48 89 e5             	mov    %rsp,%rbp
    477e:	89 7d fc             	mov    %edi,-0x4(%rbp)
    4781:	89 75 f8             	mov    %esi,-0x8(%rbp)
    4784:	83 7d fc 00          	cmpl   $0x0,-0x4(%rbp)
    4788:	78 27                	js     47b1 <safe_lshift_func_int32_t_s_u+0x3b>
    478a:	83 7d f8 1f          	cmpl   $0x1f,-0x8(%rbp)
    478e:	77 21                	ja     47b1 <safe_lshift_func_int32_t_s_u+0x3b>
    4790:	8b 45 f8             	mov    -0x8(%rbp),%eax
    4793:	ba ff ff ff 7f       	mov    $0x7fffffff,%edx
    4798:	89 c1                	mov    %eax,%ecx
    479a:	d3 fa                	sar    %cl,%edx
    479c:	89 d0                	mov    %edx,%eax
    479e:	39 45 fc             	cmp    %eax,-0x4(%rbp)
    47a1:	7f 0e                	jg     47b1 <safe_lshift_func_int32_t_s_u+0x3b>
    47a3:	8b 45 f8             	mov    -0x8(%rbp),%eax
    47a6:	8b 55 fc             	mov    -0x4(%rbp),%edx
    47a9:	89 c1                	mov    %eax,%ecx
    47ab:	d3 e2                	shl    %cl,%edx
    47ad:	89 d0                	mov    %edx,%eax
    47af:	eb 03                	jmp    47b4 <safe_lshift_func_int32_t_s_u+0x3e>
    47b1:	8b 45 fc             	mov    -0x4(%rbp),%eax
    47b4:	5d                   	pop    %rbp
    47b5:	c3                   	retq   

00000000000047b6 <safe_rshift_func_int32_t_s_s>:
    47b6:	f3 0f 1e fa          	endbr64 
    47ba:	55                   	push   %rbp
    47bb:	48 89 e5             	mov    %rsp,%rbp
    47be:	89 7d fc             	mov    %edi,-0x4(%rbp)
    47c1:	89 75 f8             	mov    %esi,-0x8(%rbp)
    47c4:	83 7d fc 00          	cmpl   $0x0,-0x4(%rbp)
    47c8:	78 1a                	js     47e4 <safe_rshift_func_int32_t_s_s+0x2e>
    47ca:	83 7d f8 00          	cmpl   $0x0,-0x8(%rbp)
    47ce:	78 14                	js     47e4 <safe_rshift_func_int32_t_s_s+0x2e>
    47d0:	83 7d f8 1f          	cmpl   $0x1f,-0x8(%rbp)
    47d4:	7f 0e                	jg     47e4 <safe_rshift_func_int32_t_s_s+0x2e>
    47d6:	8b 45 f8             	mov    -0x8(%rbp),%eax
    47d9:	8b 55 fc             	mov    -0x4(%rbp),%edx
    47dc:	89 c1                	mov    %eax,%ecx
    47de:	d3 fa                	sar    %cl,%edx
    47e0:	89 d0                	mov    %edx,%eax
    47e2:	eb 03                	jmp    47e7 <safe_rshift_func_int32_t_s_s+0x31>
    47e4:	8b 45 fc             	mov    -0x4(%rbp),%eax
    47e7:	5d                   	pop    %rbp
    47e8:	c3                   	retq   

00000000000047e9 <safe_rshift_func_int32_t_s_u>:
    47e9:	f3 0f 1e fa          	endbr64 
    47ed:	55                   	push   %rbp
    47ee:	48 89 e5             	mov    %rsp,%rbp
    47f1:	89 7d fc             	mov    %edi,-0x4(%rbp)
    47f4:	89 75 f8             	mov    %esi,-0x8(%rbp)
    47f7:	83 7d fc 00          	cmpl   $0x0,-0x4(%rbp)
    47fb:	78 14                	js     4811 <safe_rshift_func_int32_t_s_u+0x28>
    47fd:	83 7d f8 1f          	cmpl   $0x1f,-0x8(%rbp)
    4801:	77 0e                	ja     4811 <safe_rshift_func_int32_t_s_u+0x28>
    4803:	8b 45 f8             	mov    -0x8(%rbp),%eax
    4806:	8b 55 fc             	mov    -0x4(%rbp),%edx
    4809:	89 c1                	mov    %eax,%ecx
    480b:	d3 fa                	sar    %cl,%edx
    480d:	89 d0                	mov    %edx,%eax
    480f:	eb 03                	jmp    4814 <safe_rshift_func_int32_t_s_u+0x2b>
    4811:	8b 45 fc             	mov    -0x4(%rbp),%eax
    4814:	5d                   	pop    %rbp
    4815:	c3                   	retq   

0000000000004816 <safe_unary_minus_func_int64_t_s>:
    4816:	f3 0f 1e fa          	endbr64 
    481a:	55                   	push   %rbp
    481b:	48 89 e5             	mov    %rsp,%rbp
    481e:	48 89 7d f8          	mov    %rdi,-0x8(%rbp)
    4822:	48 b8 00 00 00 00 00 	movabs $0x8000000000000000,%rax
    4829:	00 00 80 
    482c:	48 39 45 f8          	cmp    %rax,-0x8(%rbp)
    4830:	74 09                	je     483b <safe_unary_minus_func_int64_t_s+0x25>
    4832:	48 8b 45 f8          	mov    -0x8(%rbp),%rax
    4836:	48 f7 d8             	neg    %rax
    4839:	eb 04                	jmp    483f <safe_unary_minus_func_int64_t_s+0x29>
    483b:	48 8b 45 f8          	mov    -0x8(%rbp),%rax
    483f:	5d                   	pop    %rbp
    4840:	c3                   	retq   

0000000000004841 <safe_add_func_int64_t_s_s>:
    4841:	f3 0f 1e fa          	endbr64 
    4845:	55                   	push   %rbp
    4846:	48 89 e5             	mov    %rsp,%rbp
    4849:	48 89 7d f8          	mov    %rdi,-0x8(%rbp)
    484d:	48 89 75 f0          	mov    %rsi,-0x10(%rbp)
    4851:	48 83 7d f8 00       	cmpq   $0x0,-0x8(%rbp)
    4856:	7e 1b                	jle    4873 <safe_add_func_int64_t_s_s+0x32>
    4858:	48 83 7d f0 00       	cmpq   $0x0,-0x10(%rbp)
    485d:	7e 14                	jle    4873 <safe_add_func_int64_t_s_s+0x32>
    485f:	48 b8 ff ff ff ff ff 	movabs $0x7fffffffffffffff,%rax
    4866:	ff ff 7f 
    4869:	48 2b 45 f0          	sub    -0x10(%rbp),%rax
    486d:	48 39 45 f8          	cmp    %rax,-0x8(%rbp)
    4871:	7f 2f                	jg     48a2 <safe_add_func_int64_t_s_s+0x61>
    4873:	48 83 7d f8 00       	cmpq   $0x0,-0x8(%rbp)
    4878:	79 1b                	jns    4895 <safe_add_func_int64_t_s_s+0x54>
    487a:	48 83 7d f0 00       	cmpq   $0x0,-0x10(%rbp)
    487f:	79 14                	jns    4895 <safe_add_func_int64_t_s_s+0x54>
    4881:	48 b8 00 00 00 00 00 	movabs $0x8000000000000000,%rax
    4888:	00 00 80 
    488b:	48 2b 45 f0          	sub    -0x10(%rbp),%rax
    488f:	48 39 45 f8          	cmp    %rax,-0x8(%rbp)
    4893:	7c 0d                	jl     48a2 <safe_add_func_int64_t_s_s+0x61>
    4895:	48 8b 55 f8          	mov    -0x8(%rbp),%rdx
    4899:	48 8b 45 f0          	mov    -0x10(%rbp),%rax
    489d:	48 01 d0             	add    %rdx,%rax
    48a0:	eb 04                	jmp    48a6 <safe_add_func_int64_t_s_s+0x65>
    48a2:	48 8b 45 f8          	mov    -0x8(%rbp),%rax
    48a6:	5d                   	pop    %rbp
    48a7:	c3                   	retq   

00000000000048a8 <safe_sub_func_int64_t_s_s>:
    48a8:	f3 0f 1e fa          	endbr64 
    48ac:	55                   	push   %rbp
    48ad:	48 89 e5             	mov    %rsp,%rbp
    48b0:	48 89 7d f8          	mov    %rdi,-0x8(%rbp)
    48b4:	48 89 75 f0          	mov    %rsi,-0x10(%rbp)
    48b8:	48 8b 45 f8          	mov    -0x8(%rbp),%rax
    48bc:	48 33 45 f0          	xor    -0x10(%rbp),%rax
    48c0:	48 89 c2             	mov    %rax,%rdx
    48c3:	48 8b 45 f8          	mov    -0x8(%rbp),%rax
    48c7:	48 33 45 f0          	xor    -0x10(%rbp),%rax
    48cb:	48 b9 00 00 00 00 00 	movabs $0x8000000000000000,%rcx
    48d2:	00 00 80 
    48d5:	48 21 c8             	and    %rcx,%rax
    48d8:	48 33 45 f8          	xor    -0x8(%rbp),%rax
    48dc:	48 2b 45 f0          	sub    -0x10(%rbp),%rax
    48e0:	48 33 45 f0          	xor    -0x10(%rbp),%rax
    48e4:	48 21 d0             	and    %rdx,%rax
    48e7:	48 85 c0             	test   %rax,%rax
    48ea:	78 0a                	js     48f6 <safe_sub_func_int64_t_s_s+0x4e>
    48ec:	48 8b 45 f8          	mov    -0x8(%rbp),%rax
    48f0:	48 2b 45 f0          	sub    -0x10(%rbp),%rax
    48f4:	eb 04                	jmp    48fa <safe_sub_func_int64_t_s_s+0x52>
    48f6:	48 8b 45 f8          	mov    -0x8(%rbp),%rax
    48fa:	5d                   	pop    %rbp
    48fb:	c3                   	retq   

00000000000048fc <safe_mul_func_int64_t_s_s>:
    48fc:	f3 0f 1e fa          	endbr64 
    4900:	55                   	push   %rbp
    4901:	48 89 e5             	mov    %rsp,%rbp
    4904:	48 89 7d f8          	mov    %rdi,-0x8(%rbp)
    4908:	48 89 75 f0          	mov    %rsi,-0x10(%rbp)
    490c:	48 83 7d f8 00       	cmpq   $0x0,-0x8(%rbp)
    4911:	7e 1d                	jle    4930 <safe_mul_func_int64_t_s_s+0x34>
    4913:	48 83 7d f0 00       	cmpq   $0x0,-0x10(%rbp)
    4918:	7e 16                	jle    4930 <safe_mul_func_int64_t_s_s+0x34>
    491a:	48 b8 ff ff ff ff ff 	movabs $0x7fffffffffffffff,%rax
    4921:	ff ff 7f 
    4924:	48 99                	cqto   
    4926:	48 f7 7d f0          	idivq  -0x10(%rbp)
    492a:	48 39 45 f8          	cmp    %rax,-0x8(%rbp)
    492e:	7f 7e                	jg     49ae <safe_mul_func_int64_t_s_s+0xb2>
    4930:	48 83 7d f8 00       	cmpq   $0x0,-0x8(%rbp)
    4935:	7e 1d                	jle    4954 <safe_mul_func_int64_t_s_s+0x58>
    4937:	48 83 7d f0 00       	cmpq   $0x0,-0x10(%rbp)
    493c:	7f 16                	jg     4954 <safe_mul_func_int64_t_s_s+0x58>
    493e:	48 b8 00 00 00 00 00 	movabs $0x8000000000000000,%rax
    4945:	00 00 80 
    4948:	48 99                	cqto   
    494a:	48 f7 7d f8          	idivq  -0x8(%rbp)
    494e:	48 39 45 f0          	cmp    %rax,-0x10(%rbp)
    4952:	7c 5a                	jl     49ae <safe_mul_func_int64_t_s_s+0xb2>
    4954:	48 83 7d f8 00       	cmpq   $0x0,-0x8(%rbp)
    4959:	7f 1d                	jg     4978 <safe_mul_func_int64_t_s_s+0x7c>
    495b:	48 83 7d f0 00       	cmpq   $0x0,-0x10(%rbp)
    4960:	7e 16                	jle    4978 <safe_mul_func_int64_t_s_s+0x7c>
    4962:	48 b8 00 00 00 00 00 	movabs $0x8000000000000000,%rax
    4969:	00 00 80 
    496c:	48 99                	cqto   
    496e:	48 f7 7d f0          	idivq  -0x10(%rbp)
    4972:	48 39 45 f8          	cmp    %rax,-0x8(%rbp)
    4976:	7c 36                	jl     49ae <safe_mul_func_int64_t_s_s+0xb2>
    4978:	48 83 7d f8 00       	cmpq   $0x0,-0x8(%rbp)
    497d:	7f 24                	jg     49a3 <safe_mul_func_int64_t_s_s+0xa7>
    497f:	48 83 7d f0 00       	cmpq   $0x0,-0x10(%rbp)
    4984:	7f 1d                	jg     49a3 <safe_mul_func_int64_t_s_s+0xa7>
    4986:	48 83 7d f8 00       	cmpq   $0x0,-0x8(%rbp)
    498b:	74 16                	je     49a3 <safe_mul_func_int64_t_s_s+0xa7>
    498d:	48 b8 ff ff ff ff ff 	movabs $0x7fffffffffffffff,%rax
    4994:	ff ff 7f 
    4997:	48 99                	cqto   
    4999:	48 f7 7d f8          	idivq  -0x8(%rbp)
    499d:	48 39 45 f0          	cmp    %rax,-0x10(%rbp)
    49a1:	7c 0b                	jl     49ae <safe_mul_func_int64_t_s_s+0xb2>
    49a3:	48 8b 45 f8          	mov    -0x8(%rbp),%rax
    49a7:	48 0f af 45 f0       	imul   -0x10(%rbp),%rax
    49ac:	eb 04                	jmp    49b2 <safe_mul_func_int64_t_s_s+0xb6>
    49ae:	48 8b 45 f8          	mov    -0x8(%rbp),%rax
    49b2:	5d                   	pop    %rbp
    49b3:	c3                   	retq   

00000000000049b4 <safe_mod_func_int64_t_s_s>:
    49b4:	f3 0f 1e fa          	endbr64 
    49b8:	55                   	push   %rbp
    49b9:	48 89 e5             	mov    %rsp,%rbp
    49bc:	48 89 7d f8          	mov    %rdi,-0x8(%rbp)
    49c0:	48 89 75 f0          	mov    %rsi,-0x10(%rbp)
    49c4:	48 83 7d f0 00       	cmpq   $0x0,-0x10(%rbp)
    49c9:	74 26                	je     49f1 <safe_mod_func_int64_t_s_s+0x3d>
    49cb:	48 b8 00 00 00 00 00 	movabs $0x8000000000000000,%rax
    49d2:	00 00 80 
    49d5:	48 39 45 f8          	cmp    %rax,-0x8(%rbp)
    49d9:	75 07                	jne    49e2 <safe_mod_func_int64_t_s_s+0x2e>
    49db:	48 83 7d f0 ff       	cmpq   $0xffffffffffffffff,-0x10(%rbp)
    49e0:	74 0f                	je     49f1 <safe_mod_func_int64_t_s_s+0x3d>
    49e2:	48 8b 45 f8          	mov    -0x8(%rbp),%rax
    49e6:	48 99                	cqto   
    49e8:	48 f7 7d f0          	idivq  -0x10(%rbp)
    49ec:	48 89 d0             	mov    %rdx,%rax
    49ef:	eb 04                	jmp    49f5 <safe_mod_func_int64_t_s_s+0x41>
    49f1:	48 8b 45 f8          	mov    -0x8(%rbp),%rax
    49f5:	5d                   	pop    %rbp
    49f6:	c3                   	retq   

00000000000049f7 <safe_div_func_int64_t_s_s>:
    49f7:	f3 0f 1e fa          	endbr64 
    49fb:	55                   	push   %rbp
    49fc:	48 89 e5             	mov    %rsp,%rbp
    49ff:	48 89 7d f8          	mov    %rdi,-0x8(%rbp)
    4a03:	48 89 75 f0          	mov    %rsi,-0x10(%rbp)
    4a07:	48 83 7d f0 00       	cmpq   $0x0,-0x10(%rbp)
    4a0c:	74 23                	je     4a31 <safe_div_func_int64_t_s_s+0x3a>
    4a0e:	48 b8 00 00 00 00 00 	movabs $0x8000000000000000,%rax
    4a15:	00 00 80 
    4a18:	48 39 45 f8          	cmp    %rax,-0x8(%rbp)
    4a1c:	75 07                	jne    4a25 <safe_div_func_int64_t_s_s+0x2e>
    4a1e:	48 83 7d f0 ff       	cmpq   $0xffffffffffffffff,-0x10(%rbp)
    4a23:	74 0c                	je     4a31 <safe_div_func_int64_t_s_s+0x3a>
    4a25:	48 8b 45 f8          	mov    -0x8(%rbp),%rax
    4a29:	48 99                	cqto   
    4a2b:	48 f7 7d f0          	idivq  -0x10(%rbp)
    4a2f:	eb 04                	jmp    4a35 <safe_div_func_int64_t_s_s+0x3e>
    4a31:	48 8b 45 f8          	mov    -0x8(%rbp),%rax
    4a35:	5d                   	pop    %rbp
    4a36:	c3                   	retq   

0000000000004a37 <safe_lshift_func_int64_t_s_s>:
    4a37:	f3 0f 1e fa          	endbr64 
    4a3b:	55                   	push   %rbp
    4a3c:	48 89 e5             	mov    %rsp,%rbp
    4a3f:	48 89 7d f8          	mov    %rdi,-0x8(%rbp)
    4a43:	89 75 f4             	mov    %esi,-0xc(%rbp)
    4a46:	48 83 7d f8 00       	cmpq   $0x0,-0x8(%rbp)
    4a4b:	78 38                	js     4a85 <safe_lshift_func_int64_t_s_s+0x4e>
    4a4d:	83 7d f4 00          	cmpl   $0x0,-0xc(%rbp)
    4a51:	78 32                	js     4a85 <safe_lshift_func_int64_t_s_s+0x4e>
    4a53:	83 7d f4 1f          	cmpl   $0x1f,-0xc(%rbp)
    4a57:	7f 2c                	jg     4a85 <safe_lshift_func_int64_t_s_s+0x4e>
    4a59:	8b 45 f4             	mov    -0xc(%rbp),%eax
    4a5c:	48 ba ff ff ff ff ff 	movabs $0x7fffffffffffffff,%rdx
    4a63:	ff ff 7f 
    4a66:	89 c1                	mov    %eax,%ecx
    4a68:	48 d3 fa             	sar    %cl,%rdx
    4a6b:	48 89 d0             	mov    %rdx,%rax
    4a6e:	48 39 45 f8          	cmp    %rax,-0x8(%rbp)
    4a72:	7f 11                	jg     4a85 <safe_lshift_func_int64_t_s_s+0x4e>
    4a74:	8b 45 f4             	mov    -0xc(%rbp),%eax
    4a77:	48 8b 55 f8          	mov    -0x8(%rbp),%rdx
    4a7b:	89 c1                	mov    %eax,%ecx
    4a7d:	48 d3 e2             	shl    %cl,%rdx
    4a80:	48 89 d0             	mov    %rdx,%rax
    4a83:	eb 04                	jmp    4a89 <safe_lshift_func_int64_t_s_s+0x52>
    4a85:	48 8b 45 f8          	mov    -0x8(%rbp),%rax
    4a89:	5d                   	pop    %rbp
    4a8a:	c3                   	retq   

0000000000004a8b <safe_lshift_func_int64_t_s_u>:
    4a8b:	f3 0f 1e fa          	endbr64 
    4a8f:	55                   	push   %rbp
    4a90:	48 89 e5             	mov    %rsp,%rbp
    4a93:	48 89 7d f8          	mov    %rdi,-0x8(%rbp)
    4a97:	89 75 f4             	mov    %esi,-0xc(%rbp)
    4a9a:	48 83 7d f8 00       	cmpq   $0x0,-0x8(%rbp)
    4a9f:	78 32                	js     4ad3 <safe_lshift_func_int64_t_s_u+0x48>
    4aa1:	83 7d f4 1f          	cmpl   $0x1f,-0xc(%rbp)
    4aa5:	77 2c                	ja     4ad3 <safe_lshift_func_int64_t_s_u+0x48>
    4aa7:	8b 45 f4             	mov    -0xc(%rbp),%eax
    4aaa:	48 ba ff ff ff ff ff 	movabs $0x7fffffffffffffff,%rdx
    4ab1:	ff ff 7f 
    4ab4:	89 c1                	mov    %eax,%ecx
    4ab6:	48 d3 fa             	sar    %cl,%rdx
    4ab9:	48 89 d0             	mov    %rdx,%rax
    4abc:	48 39 45 f8          	cmp    %rax,-0x8(%rbp)
    4ac0:	7f 11                	jg     4ad3 <safe_lshift_func_int64_t_s_u+0x48>
    4ac2:	8b 45 f4             	mov    -0xc(%rbp),%eax
    4ac5:	48 8b 55 f8          	mov    -0x8(%rbp),%rdx
    4ac9:	89 c1                	mov    %eax,%ecx
    4acb:	48 d3 e2             	shl    %cl,%rdx
    4ace:	48 89 d0             	mov    %rdx,%rax
    4ad1:	eb 04                	jmp    4ad7 <safe_lshift_func_int64_t_s_u+0x4c>
    4ad3:	48 8b 45 f8          	mov    -0x8(%rbp),%rax
    4ad7:	5d                   	pop    %rbp
    4ad8:	c3                   	retq   

0000000000004ad9 <safe_rshift_func_int64_t_s_s>:
    4ad9:	f3 0f 1e fa          	endbr64 
    4add:	55                   	push   %rbp
    4ade:	48 89 e5             	mov    %rsp,%rbp
    4ae1:	48 89 7d f8          	mov    %rdi,-0x8(%rbp)
    4ae5:	89 75 f4             	mov    %esi,-0xc(%rbp)
    4ae8:	48 83 7d f8 00       	cmpq   $0x0,-0x8(%rbp)
    4aed:	78 1d                	js     4b0c <safe_rshift_func_int64_t_s_s+0x33>
    4aef:	83 7d f4 00          	cmpl   $0x0,-0xc(%rbp)
    4af3:	78 17                	js     4b0c <safe_rshift_func_int64_t_s_s+0x33>
    4af5:	83 7d f4 1f          	cmpl   $0x1f,-0xc(%rbp)
    4af9:	7f 11                	jg     4b0c <safe_rshift_func_int64_t_s_s+0x33>
    4afb:	8b 45 f4             	mov    -0xc(%rbp),%eax
    4afe:	48 8b 55 f8          	mov    -0x8(%rbp),%rdx
    4b02:	89 c1                	mov    %eax,%ecx
    4b04:	48 d3 fa             	sar    %cl,%rdx
    4b07:	48 89 d0             	mov    %rdx,%rax
    4b0a:	eb 04                	jmp    4b10 <safe_rshift_func_int64_t_s_s+0x37>
    4b0c:	48 8b 45 f8          	mov    -0x8(%rbp),%rax
    4b10:	5d                   	pop    %rbp
    4b11:	c3                   	retq   

0000000000004b12 <safe_rshift_func_int64_t_s_u>:
    4b12:	f3 0f 1e fa          	endbr64 
    4b16:	55                   	push   %rbp
    4b17:	48 89 e5             	mov    %rsp,%rbp
    4b1a:	48 89 7d f8          	mov    %rdi,-0x8(%rbp)
    4b1e:	89 75 f4             	mov    %esi,-0xc(%rbp)
    4b21:	48 83 7d f8 00       	cmpq   $0x0,-0x8(%rbp)
    4b26:	78 17                	js     4b3f <safe_rshift_func_int64_t_s_u+0x2d>
    4b28:	83 7d f4 1f          	cmpl   $0x1f,-0xc(%rbp)
    4b2c:	77 11                	ja     4b3f <safe_rshift_func_int64_t_s_u+0x2d>
    4b2e:	8b 45 f4             	mov    -0xc(%rbp),%eax
    4b31:	48 8b 55 f8          	mov    -0x8(%rbp),%rdx
    4b35:	89 c1                	mov    %eax,%ecx
    4b37:	48 d3 fa             	sar    %cl,%rdx
    4b3a:	48 89 d0             	mov    %rdx,%rax
    4b3d:	eb 04                	jmp    4b43 <safe_rshift_func_int64_t_s_u+0x31>
    4b3f:	48 8b 45 f8          	mov    -0x8(%rbp),%rax
    4b43:	5d                   	pop    %rbp
    4b44:	c3                   	retq   

0000000000004b45 <safe_unary_minus_func_uint8_t_u>:
    4b45:	f3 0f 1e fa          	endbr64 
    4b49:	55                   	push   %rbp
    4b4a:	48 89 e5             	mov    %rsp,%rbp
    4b4d:	89 f8                	mov    %edi,%eax
    4b4f:	88 45 fc             	mov    %al,-0x4(%rbp)
    4b52:	0f b6 45 fc          	movzbl -0x4(%rbp),%eax
    4b56:	f7 d8                	neg    %eax
    4b58:	5d                   	pop    %rbp
    4b59:	c3                   	retq   

0000000000004b5a <safe_add_func_uint8_t_u_u>:
    4b5a:	f3 0f 1e fa          	endbr64 
    4b5e:	55                   	push   %rbp
    4b5f:	48 89 e5             	mov    %rsp,%rbp
    4b62:	89 fa                	mov    %edi,%edx
    4b64:	89 f0                	mov    %esi,%eax
    4b66:	88 55 fc             	mov    %dl,-0x4(%rbp)
    4b69:	88 45 f8             	mov    %al,-0x8(%rbp)
    4b6c:	0f b6 55 fc          	movzbl -0x4(%rbp),%edx
    4b70:	0f b6 45 f8          	movzbl -0x8(%rbp),%eax
    4b74:	01 d0                	add    %edx,%eax
    4b76:	5d                   	pop    %rbp
    4b77:	c3                   	retq   

0000000000004b78 <safe_sub_func_uint8_t_u_u>:
    4b78:	f3 0f 1e fa          	endbr64 
    4b7c:	55                   	push   %rbp
    4b7d:	48 89 e5             	mov    %rsp,%rbp
    4b80:	89 fa                	mov    %edi,%edx
    4b82:	89 f0                	mov    %esi,%eax
    4b84:	88 55 fc             	mov    %dl,-0x4(%rbp)
    4b87:	88 45 f8             	mov    %al,-0x8(%rbp)
    4b8a:	0f b6 45 fc          	movzbl -0x4(%rbp),%eax
    4b8e:	2a 45 f8             	sub    -0x8(%rbp),%al
    4b91:	5d                   	pop    %rbp
    4b92:	c3                   	retq   

0000000000004b93 <safe_mul_func_uint8_t_u_u>:
    4b93:	f3 0f 1e fa          	endbr64 
    4b97:	55                   	push   %rbp
    4b98:	48 89 e5             	mov    %rsp,%rbp
    4b9b:	89 fa                	mov    %edi,%edx
    4b9d:	89 f0                	mov    %esi,%eax
    4b9f:	88 55 fc             	mov    %dl,-0x4(%rbp)
    4ba2:	88 45 f8             	mov    %al,-0x8(%rbp)
    4ba5:	0f b6 45 fc          	movzbl -0x4(%rbp),%eax
    4ba9:	f6 65 f8             	mulb   -0x8(%rbp)
    4bac:	5d                   	pop    %rbp
    4bad:	c3                   	retq   

0000000000004bae <safe_mod_func_uint8_t_u_u>:
    4bae:	f3 0f 1e fa          	endbr64 
    4bb2:	55                   	push   %rbp
    4bb3:	48 89 e5             	mov    %rsp,%rbp
    4bb6:	89 fa                	mov    %edi,%edx
    4bb8:	89 f0                	mov    %esi,%eax
    4bba:	88 55 fc             	mov    %dl,-0x4(%rbp)
    4bbd:	88 45 f8             	mov    %al,-0x8(%rbp)
    4bc0:	80 7d f8 00          	cmpb   $0x0,-0x8(%rbp)
    4bc4:	74 0f                	je     4bd5 <safe_mod_func_uint8_t_u_u+0x27>
    4bc6:	0f b6 45 fc          	movzbl -0x4(%rbp),%eax
    4bca:	0f b6 c0             	movzbl %al,%eax
    4bcd:	f6 75 f8             	divb   -0x8(%rbp)
    4bd0:	0f b6 c4             	movzbl %ah,%eax
    4bd3:	eb 04                	jmp    4bd9 <safe_mod_func_uint8_t_u_u+0x2b>
    4bd5:	0f b6 45 fc          	movzbl -0x4(%rbp),%eax
    4bd9:	5d                   	pop    %rbp
    4bda:	c3                   	retq   

0000000000004bdb <safe_div_func_uint8_t_u_u>:
    4bdb:	f3 0f 1e fa          	endbr64 
    4bdf:	55                   	push   %rbp
    4be0:	48 89 e5             	mov    %rsp,%rbp
    4be3:	89 fa                	mov    %edi,%edx
    4be5:	89 f0                	mov    %esi,%eax
    4be7:	88 55 fc             	mov    %dl,-0x4(%rbp)
    4bea:	88 45 f8             	mov    %al,-0x8(%rbp)
    4bed:	80 7d f8 00          	cmpb   $0x0,-0x8(%rbp)
    4bf1:	74 0c                	je     4bff <safe_div_func_uint8_t_u_u+0x24>
    4bf3:	0f b6 45 fc          	movzbl -0x4(%rbp),%eax
    4bf7:	0f b6 c0             	movzbl %al,%eax
    4bfa:	f6 75 f8             	divb   -0x8(%rbp)
    4bfd:	eb 04                	jmp    4c03 <safe_div_func_uint8_t_u_u+0x28>
    4bff:	0f b6 45 fc          	movzbl -0x4(%rbp),%eax
    4c03:	5d                   	pop    %rbp
    4c04:	c3                   	retq   

0000000000004c05 <safe_lshift_func_uint8_t_u_s>:
    4c05:	f3 0f 1e fa          	endbr64 
    4c09:	55                   	push   %rbp
    4c0a:	48 89 e5             	mov    %rsp,%rbp
    4c0d:	89 f8                	mov    %edi,%eax
    4c0f:	89 75 f8             	mov    %esi,-0x8(%rbp)
    4c12:	88 45 fc             	mov    %al,-0x4(%rbp)
    4c15:	83 7d f8 00          	cmpl   $0x0,-0x8(%rbp)
    4c19:	78 2b                	js     4c46 <safe_lshift_func_uint8_t_u_s+0x41>
    4c1b:	83 7d f8 1f          	cmpl   $0x1f,-0x8(%rbp)
    4c1f:	7f 25                	jg     4c46 <safe_lshift_func_uint8_t_u_s+0x41>
    4c21:	0f b6 55 fc          	movzbl -0x4(%rbp),%edx
    4c25:	8b 45 f8             	mov    -0x8(%rbp),%eax
    4c28:	be ff 00 00 00       	mov    $0xff,%esi
    4c2d:	89 c1                	mov    %eax,%ecx
    4c2f:	d3 fe                	sar    %cl,%esi
    4c31:	89 f0                	mov    %esi,%eax
    4c33:	39 c2                	cmp    %eax,%edx
    4c35:	7f 0f                	jg     4c46 <safe_lshift_func_uint8_t_u_s+0x41>
    4c37:	0f b6 55 fc          	movzbl -0x4(%rbp),%edx
    4c3b:	8b 45 f8             	mov    -0x8(%rbp),%eax
    4c3e:	89 c1                	mov    %eax,%ecx
    4c40:	d3 e2                	shl    %cl,%edx
    4c42:	89 d0                	mov    %edx,%eax
    4c44:	eb 04                	jmp    4c4a <safe_lshift_func_uint8_t_u_s+0x45>
    4c46:	0f b6 45 fc          	movzbl -0x4(%rbp),%eax
    4c4a:	5d                   	pop    %rbp
    4c4b:	c3                   	retq   

0000000000004c4c <safe_lshift_func_uint8_t_u_u>:
    4c4c:	f3 0f 1e fa          	endbr64 
    4c50:	55                   	push   %rbp
    4c51:	48 89 e5             	mov    %rsp,%rbp
    4c54:	89 f8                	mov    %edi,%eax
    4c56:	89 75 f8             	mov    %esi,-0x8(%rbp)
    4c59:	88 45 fc             	mov    %al,-0x4(%rbp)
    4c5c:	83 7d f8 1f          	cmpl   $0x1f,-0x8(%rbp)
    4c60:	77 25                	ja     4c87 <safe_lshift_func_uint8_t_u_u+0x3b>
    4c62:	0f b6 55 fc          	movzbl -0x4(%rbp),%edx
    4c66:	8b 45 f8             	mov    -0x8(%rbp),%eax
    4c69:	be ff 00 00 00       	mov    $0xff,%esi
    4c6e:	89 c1                	mov    %eax,%ecx
    4c70:	d3 fe                	sar    %cl,%esi
    4c72:	89 f0                	mov    %esi,%eax
    4c74:	39 c2                	cmp    %eax,%edx
    4c76:	7f 0f                	jg     4c87 <safe_lshift_func_uint8_t_u_u+0x3b>
    4c78:	0f b6 55 fc          	movzbl -0x4(%rbp),%edx
    4c7c:	8b 45 f8             	mov    -0x8(%rbp),%eax
    4c7f:	89 c1                	mov    %eax,%ecx
    4c81:	d3 e2                	shl    %cl,%edx
    4c83:	89 d0                	mov    %edx,%eax
    4c85:	eb 04                	jmp    4c8b <safe_lshift_func_uint8_t_u_u+0x3f>
    4c87:	0f b6 45 fc          	movzbl -0x4(%rbp),%eax
    4c8b:	5d                   	pop    %rbp
    4c8c:	c3                   	retq   

0000000000004c8d <safe_rshift_func_uint8_t_u_s>:
    4c8d:	f3 0f 1e fa          	endbr64 
    4c91:	55                   	push   %rbp
    4c92:	48 89 e5             	mov    %rsp,%rbp
    4c95:	89 f8                	mov    %edi,%eax
    4c97:	89 75 f8             	mov    %esi,-0x8(%rbp)
    4c9a:	88 45 fc             	mov    %al,-0x4(%rbp)
    4c9d:	83 7d f8 00          	cmpl   $0x0,-0x8(%rbp)
    4ca1:	78 15                	js     4cb8 <safe_rshift_func_uint8_t_u_s+0x2b>
    4ca3:	83 7d f8 1f          	cmpl   $0x1f,-0x8(%rbp)
    4ca7:	7f 0f                	jg     4cb8 <safe_rshift_func_uint8_t_u_s+0x2b>
    4ca9:	0f b6 55 fc          	movzbl -0x4(%rbp),%edx
    4cad:	8b 45 f8             	mov    -0x8(%rbp),%eax
    4cb0:	89 c1                	mov    %eax,%ecx
    4cb2:	d3 fa                	sar    %cl,%edx
    4cb4:	89 d0                	mov    %edx,%eax
    4cb6:	eb 04                	jmp    4cbc <safe_rshift_func_uint8_t_u_s+0x2f>
    4cb8:	0f b6 45 fc          	movzbl -0x4(%rbp),%eax
    4cbc:	5d                   	pop    %rbp
    4cbd:	c3                   	retq   

0000000000004cbe <safe_rshift_func_uint8_t_u_u>:
    4cbe:	f3 0f 1e fa          	endbr64 
    4cc2:	55                   	push   %rbp
    4cc3:	48 89 e5             	mov    %rsp,%rbp
    4cc6:	89 f8                	mov    %edi,%eax
    4cc8:	89 75 f8             	mov    %esi,-0x8(%rbp)
    4ccb:	88 45 fc             	mov    %al,-0x4(%rbp)
    4cce:	83 7d f8 1f          	cmpl   $0x1f,-0x8(%rbp)
    4cd2:	77 0f                	ja     4ce3 <safe_rshift_func_uint8_t_u_u+0x25>
    4cd4:	0f b6 55 fc          	movzbl -0x4(%rbp),%edx
    4cd8:	8b 45 f8             	mov    -0x8(%rbp),%eax
    4cdb:	89 c1                	mov    %eax,%ecx
    4cdd:	d3 fa                	sar    %cl,%edx
    4cdf:	89 d0                	mov    %edx,%eax
    4ce1:	eb 04                	jmp    4ce7 <safe_rshift_func_uint8_t_u_u+0x29>
    4ce3:	0f b6 45 fc          	movzbl -0x4(%rbp),%eax
    4ce7:	5d                   	pop    %rbp
    4ce8:	c3                   	retq   

0000000000004ce9 <safe_unary_minus_func_uint16_t_u>:
    4ce9:	f3 0f 1e fa          	endbr64 
    4ced:	55                   	push   %rbp
    4cee:	48 89 e5             	mov    %rsp,%rbp
    4cf1:	89 f8                	mov    %edi,%eax
    4cf3:	66 89 45 fc          	mov    %ax,-0x4(%rbp)
    4cf7:	0f b7 45 fc          	movzwl -0x4(%rbp),%eax
    4cfb:	f7 d8                	neg    %eax
    4cfd:	5d                   	pop    %rbp
    4cfe:	c3                   	retq   

0000000000004cff <safe_add_func_uint16_t_u_u>:
    4cff:	f3 0f 1e fa          	endbr64 
    4d03:	55                   	push   %rbp
    4d04:	48 89 e5             	mov    %rsp,%rbp
    4d07:	89 fa                	mov    %edi,%edx
    4d09:	89 f0                	mov    %esi,%eax
    4d0b:	66 89 55 fc          	mov    %dx,-0x4(%rbp)
    4d0f:	66 89 45 f8          	mov    %ax,-0x8(%rbp)
    4d13:	0f b7 55 fc          	movzwl -0x4(%rbp),%edx
    4d17:	0f b7 45 f8          	movzwl -0x8(%rbp),%eax
    4d1b:	01 d0                	add    %edx,%eax
    4d1d:	5d                   	pop    %rbp
    4d1e:	c3                   	retq   

0000000000004d1f <safe_sub_func_uint16_t_u_u>:
    4d1f:	f3 0f 1e fa          	endbr64 
    4d23:	55                   	push   %rbp
    4d24:	48 89 e5             	mov    %rsp,%rbp
    4d27:	89 fa                	mov    %edi,%edx
    4d29:	89 f0                	mov    %esi,%eax
    4d2b:	66 89 55 fc          	mov    %dx,-0x4(%rbp)
    4d2f:	66 89 45 f8          	mov    %ax,-0x8(%rbp)
    4d33:	0f b7 45 fc          	movzwl -0x4(%rbp),%eax
    4d37:	66 2b 45 f8          	sub    -0x8(%rbp),%ax
    4d3b:	5d                   	pop    %rbp
    4d3c:	c3                   	retq   

0000000000004d3d <safe_mul_func_uint16_t_u_u>:
    4d3d:	f3 0f 1e fa          	endbr64 
    4d41:	55                   	push   %rbp
    4d42:	48 89 e5             	mov    %rsp,%rbp
    4d45:	89 fa                	mov    %edi,%edx
    4d47:	89 f0                	mov    %esi,%eax
    4d49:	66 89 55 fc          	mov    %dx,-0x4(%rbp)
    4d4d:	66 89 45 f8          	mov    %ax,-0x8(%rbp)
    4d51:	0f b7 45 fc          	movzwl -0x4(%rbp),%eax
    4d55:	66 0f af 45 f8       	imul   -0x8(%rbp),%ax
    4d5a:	5d                   	pop    %rbp
    4d5b:	c3                   	retq   

0000000000004d5c <safe_mod_func_uint16_t_u_u>:
    4d5c:	f3 0f 1e fa          	endbr64 
    4d60:	55                   	push   %rbp
    4d61:	48 89 e5             	mov    %rsp,%rbp
    4d64:	89 fa                	mov    %edi,%edx
    4d66:	89 f0                	mov    %esi,%eax
    4d68:	66 89 55 fc          	mov    %dx,-0x4(%rbp)
    4d6c:	66 89 45 f8          	mov    %ax,-0x8(%rbp)
    4d70:	66 83 7d f8 00       	cmpw   $0x0,-0x8(%rbp)
    4d75:	74 11                	je     4d88 <safe_mod_func_uint16_t_u_u+0x2c>
    4d77:	0f b7 45 fc          	movzwl -0x4(%rbp),%eax
    4d7b:	ba 00 00 00 00       	mov    $0x0,%edx
    4d80:	66 f7 75 f8          	divw   -0x8(%rbp)
    4d84:	89 d0                	mov    %edx,%eax
    4d86:	eb 04                	jmp    4d8c <safe_mod_func_uint16_t_u_u+0x30>
    4d88:	0f b7 45 fc          	movzwl -0x4(%rbp),%eax
    4d8c:	5d                   	pop    %rbp
    4d8d:	c3                   	retq   

0000000000004d8e <safe_div_func_uint16_t_u_u>:
    4d8e:	f3 0f 1e fa          	endbr64 
    4d92:	55                   	push   %rbp
    4d93:	48 89 e5             	mov    %rsp,%rbp
    4d96:	89 fa                	mov    %edi,%edx
    4d98:	89 f0                	mov    %esi,%eax
    4d9a:	66 89 55 fc          	mov    %dx,-0x4(%rbp)
    4d9e:	66 89 45 f8          	mov    %ax,-0x8(%rbp)
    4da2:	66 83 7d f8 00       	cmpw   $0x0,-0x8(%rbp)
    4da7:	74 0f                	je     4db8 <safe_div_func_uint16_t_u_u+0x2a>
    4da9:	0f b7 45 fc          	movzwl -0x4(%rbp),%eax
    4dad:	ba 00 00 00 00       	mov    $0x0,%edx
    4db2:	66 f7 75 f8          	divw   -0x8(%rbp)
    4db6:	eb 04                	jmp    4dbc <safe_div_func_uint16_t_u_u+0x2e>
    4db8:	0f b7 45 fc          	movzwl -0x4(%rbp),%eax
    4dbc:	5d                   	pop    %rbp
    4dbd:	c3                   	retq   

0000000000004dbe <safe_lshift_func_uint16_t_u_s>:
    4dbe:	f3 0f 1e fa          	endbr64 
    4dc2:	55                   	push   %rbp
    4dc3:	48 89 e5             	mov    %rsp,%rbp
    4dc6:	89 f8                	mov    %edi,%eax
    4dc8:	89 75 f8             	mov    %esi,-0x8(%rbp)
    4dcb:	66 89 45 fc          	mov    %ax,-0x4(%rbp)
    4dcf:	83 7d f8 00          	cmpl   $0x0,-0x8(%rbp)
    4dd3:	78 2b                	js     4e00 <safe_lshift_func_uint16_t_u_s+0x42>
    4dd5:	83 7d f8 1f          	cmpl   $0x1f,-0x8(%rbp)
    4dd9:	7f 25                	jg     4e00 <safe_lshift_func_uint16_t_u_s+0x42>
    4ddb:	0f b7 55 fc          	movzwl -0x4(%rbp),%edx
    4ddf:	8b 45 f8             	mov    -0x8(%rbp),%eax
    4de2:	be ff ff 00 00       	mov    $0xffff,%esi
    4de7:	89 c1                	mov    %eax,%ecx
    4de9:	d3 fe                	sar    %cl,%esi
    4deb:	89 f0                	mov    %esi,%eax
    4ded:	39 c2                	cmp    %eax,%edx
    4def:	7f 0f                	jg     4e00 <safe_lshift_func_uint16_t_u_s+0x42>
    4df1:	0f b7 55 fc          	movzwl -0x4(%rbp),%edx
    4df5:	8b 45 f8             	mov    -0x8(%rbp),%eax
    4df8:	89 c1                	mov    %eax,%ecx
    4dfa:	d3 e2                	shl    %cl,%edx
    4dfc:	89 d0                	mov    %edx,%eax
    4dfe:	eb 04                	jmp    4e04 <safe_lshift_func_uint16_t_u_s+0x46>
    4e00:	0f b7 45 fc          	movzwl -0x4(%rbp),%eax
    4e04:	5d                   	pop    %rbp
    4e05:	c3                   	retq   

0000000000004e06 <safe_lshift_func_uint16_t_u_u>:
    4e06:	f3 0f 1e fa          	endbr64 
    4e0a:	55                   	push   %rbp
    4e0b:	48 89 e5             	mov    %rsp,%rbp
    4e0e:	89 f8                	mov    %edi,%eax
    4e10:	89 75 f8             	mov    %esi,-0x8(%rbp)
    4e13:	66 89 45 fc          	mov    %ax,-0x4(%rbp)
    4e17:	83 7d f8 1f          	cmpl   $0x1f,-0x8(%rbp)
    4e1b:	77 25                	ja     4e42 <safe_lshift_func_uint16_t_u_u+0x3c>
    4e1d:	0f b7 55 fc          	movzwl -0x4(%rbp),%edx
    4e21:	8b 45 f8             	mov    -0x8(%rbp),%eax
    4e24:	be ff ff 00 00       	mov    $0xffff,%esi
    4e29:	89 c1                	mov    %eax,%ecx
    4e2b:	d3 fe                	sar    %cl,%esi
    4e2d:	89 f0                	mov    %esi,%eax
    4e2f:	39 c2                	cmp    %eax,%edx
    4e31:	7f 0f                	jg     4e42 <safe_lshift_func_uint16_t_u_u+0x3c>
    4e33:	0f b7 55 fc          	movzwl -0x4(%rbp),%edx
    4e37:	8b 45 f8             	mov    -0x8(%rbp),%eax
    4e3a:	89 c1                	mov    %eax,%ecx
    4e3c:	d3 e2                	shl    %cl,%edx
    4e3e:	89 d0                	mov    %edx,%eax
    4e40:	eb 04                	jmp    4e46 <safe_lshift_func_uint16_t_u_u+0x40>
    4e42:	0f b7 45 fc          	movzwl -0x4(%rbp),%eax
    4e46:	5d                   	pop    %rbp
    4e47:	c3                   	retq   

0000000000004e48 <safe_rshift_func_uint16_t_u_s>:
    4e48:	f3 0f 1e fa          	endbr64 
    4e4c:	55                   	push   %rbp
    4e4d:	48 89 e5             	mov    %rsp,%rbp
    4e50:	89 f8                	mov    %edi,%eax
    4e52:	89 75 f8             	mov    %esi,-0x8(%rbp)
    4e55:	66 89 45 fc          	mov    %ax,-0x4(%rbp)
    4e59:	83 7d f8 00          	cmpl   $0x0,-0x8(%rbp)
    4e5d:	78 15                	js     4e74 <safe_rshift_func_uint16_t_u_s+0x2c>
    4e5f:	83 7d f8 1f          	cmpl   $0x1f,-0x8(%rbp)
    4e63:	7f 0f                	jg     4e74 <safe_rshift_func_uint16_t_u_s+0x2c>
    4e65:	0f b7 55 fc          	movzwl -0x4(%rbp),%edx
    4e69:	8b 45 f8             	mov    -0x8(%rbp),%eax
    4e6c:	89 c1                	mov    %eax,%ecx
    4e6e:	d3 fa                	sar    %cl,%edx
    4e70:	89 d0                	mov    %edx,%eax
    4e72:	eb 04                	jmp    4e78 <safe_rshift_func_uint16_t_u_s+0x30>
    4e74:	0f b7 45 fc          	movzwl -0x4(%rbp),%eax
    4e78:	5d                   	pop    %rbp
    4e79:	c3                   	retq   

0000000000004e7a <safe_rshift_func_uint16_t_u_u>:
    4e7a:	f3 0f 1e fa          	endbr64 
    4e7e:	55                   	push   %rbp
    4e7f:	48 89 e5             	mov    %rsp,%rbp
    4e82:	89 f8                	mov    %edi,%eax
    4e84:	89 75 f8             	mov    %esi,-0x8(%rbp)
    4e87:	66 89 45 fc          	mov    %ax,-0x4(%rbp)
    4e8b:	83 7d f8 1f          	cmpl   $0x1f,-0x8(%rbp)
    4e8f:	77 0f                	ja     4ea0 <safe_rshift_func_uint16_t_u_u+0x26>
    4e91:	0f b7 55 fc          	movzwl -0x4(%rbp),%edx
    4e95:	8b 45 f8             	mov    -0x8(%rbp),%eax
    4e98:	89 c1                	mov    %eax,%ecx
    4e9a:	d3 fa                	sar    %cl,%edx
    4e9c:	89 d0                	mov    %edx,%eax
    4e9e:	eb 04                	jmp    4ea4 <safe_rshift_func_uint16_t_u_u+0x2a>
    4ea0:	0f b7 45 fc          	movzwl -0x4(%rbp),%eax
    4ea4:	5d                   	pop    %rbp
    4ea5:	c3                   	retq   

0000000000004ea6 <safe_unary_minus_func_uint32_t_u>:
    4ea6:	f3 0f 1e fa          	endbr64 
    4eaa:	55                   	push   %rbp
    4eab:	48 89 e5             	mov    %rsp,%rbp
    4eae:	89 7d fc             	mov    %edi,-0x4(%rbp)
    4eb1:	8b 45 fc             	mov    -0x4(%rbp),%eax
    4eb4:	f7 d8                	neg    %eax
    4eb6:	5d                   	pop    %rbp
    4eb7:	c3                   	retq   

0000000000004eb8 <safe_add_func_uint32_t_u_u>:
    4eb8:	f3 0f 1e fa          	endbr64 
    4ebc:	55                   	push   %rbp
    4ebd:	48 89 e5             	mov    %rsp,%rbp
    4ec0:	89 7d fc             	mov    %edi,-0x4(%rbp)
    4ec3:	89 75 f8             	mov    %esi,-0x8(%rbp)
    4ec6:	8b 55 fc             	mov    -0x4(%rbp),%edx
    4ec9:	8b 45 f8             	mov    -0x8(%rbp),%eax
    4ecc:	01 d0                	add    %edx,%eax
    4ece:	5d                   	pop    %rbp
    4ecf:	c3                   	retq   

0000000000004ed0 <safe_sub_func_uint32_t_u_u>:
    4ed0:	f3 0f 1e fa          	endbr64 
    4ed4:	55                   	push   %rbp
    4ed5:	48 89 e5             	mov    %rsp,%rbp
    4ed8:	89 7d fc             	mov    %edi,-0x4(%rbp)
    4edb:	89 75 f8             	mov    %esi,-0x8(%rbp)
    4ede:	8b 45 fc             	mov    -0x4(%rbp),%eax
    4ee1:	2b 45 f8             	sub    -0x8(%rbp),%eax
    4ee4:	5d                   	pop    %rbp
    4ee5:	c3                   	retq   

0000000000004ee6 <safe_mul_func_uint32_t_u_u>:
    4ee6:	f3 0f 1e fa          	endbr64 
    4eea:	55                   	push   %rbp
    4eeb:	48 89 e5             	mov    %rsp,%rbp
    4eee:	89 7d fc             	mov    %edi,-0x4(%rbp)
    4ef1:	89 75 f8             	mov    %esi,-0x8(%rbp)
    4ef4:	8b 45 fc             	mov    -0x4(%rbp),%eax
    4ef7:	0f af 45 f8          	imul   -0x8(%rbp),%eax
    4efb:	5d                   	pop    %rbp
    4efc:	c3                   	retq   

0000000000004efd <safe_mod_func_uint32_t_u_u>:
    4efd:	f3 0f 1e fa          	endbr64 
    4f01:	55                   	push   %rbp
    4f02:	48 89 e5             	mov    %rsp,%rbp
    4f05:	89 7d fc             	mov    %edi,-0x4(%rbp)
    4f08:	89 75 f8             	mov    %esi,-0x8(%rbp)
    4f0b:	83 7d f8 00          	cmpl   $0x0,-0x8(%rbp)
    4f0f:	74 0f                	je     4f20 <safe_mod_func_uint32_t_u_u+0x23>
    4f11:	8b 45 fc             	mov    -0x4(%rbp),%eax
    4f14:	ba 00 00 00 00       	mov    $0x0,%edx
    4f19:	f7 75 f8             	divl   -0x8(%rbp)
    4f1c:	89 d0                	mov    %edx,%eax
    4f1e:	eb 03                	jmp    4f23 <safe_mod_func_uint32_t_u_u+0x26>
    4f20:	8b 45 fc             	mov    -0x4(%rbp),%eax
    4f23:	5d                   	pop    %rbp
    4f24:	c3                   	retq   

0000000000004f25 <safe_div_func_uint32_t_u_u>:
    4f25:	f3 0f 1e fa          	endbr64 
    4f29:	55                   	push   %rbp
    4f2a:	48 89 e5             	mov    %rsp,%rbp
    4f2d:	89 7d fc             	mov    %edi,-0x4(%rbp)
    4f30:	89 75 f8             	mov    %esi,-0x8(%rbp)
    4f33:	83 7d f8 00          	cmpl   $0x0,-0x8(%rbp)
    4f37:	74 0d                	je     4f46 <safe_div_func_uint32_t_u_u+0x21>
    4f39:	8b 45 fc             	mov    -0x4(%rbp),%eax
    4f3c:	ba 00 00 00 00       	mov    $0x0,%edx
    4f41:	f7 75 f8             	divl   -0x8(%rbp)
    4f44:	eb 03                	jmp    4f49 <safe_div_func_uint32_t_u_u+0x24>
    4f46:	8b 45 fc             	mov    -0x4(%rbp),%eax
    4f49:	5d                   	pop    %rbp
    4f4a:	c3                   	retq   

0000000000004f4b <safe_lshift_func_uint32_t_u_s>:
    4f4b:	f3 0f 1e fa          	endbr64 
    4f4f:	55                   	push   %rbp
    4f50:	48 89 e5             	mov    %rsp,%rbp
    4f53:	89 7d fc             	mov    %edi,-0x4(%rbp)
    4f56:	89 75 f8             	mov    %esi,-0x8(%rbp)
    4f59:	83 7d f8 00          	cmpl   $0x0,-0x8(%rbp)
    4f5d:	78 27                	js     4f86 <safe_lshift_func_uint32_t_u_s+0x3b>
    4f5f:	83 7d f8 1f          	cmpl   $0x1f,-0x8(%rbp)
    4f63:	7f 21                	jg     4f86 <safe_lshift_func_uint32_t_u_s+0x3b>
    4f65:	8b 45 f8             	mov    -0x8(%rbp),%eax
    4f68:	ba ff ff ff ff       	mov    $0xffffffff,%edx
    4f6d:	89 c1                	mov    %eax,%ecx
    4f6f:	d3 ea                	shr    %cl,%edx
    4f71:	89 d0                	mov    %edx,%eax
    4f73:	39 45 fc             	cmp    %eax,-0x4(%rbp)
    4f76:	77 0e                	ja     4f86 <safe_lshift_func_uint32_t_u_s+0x3b>
    4f78:	8b 45 f8             	mov    -0x8(%rbp),%eax
    4f7b:	8b 55 fc             	mov    -0x4(%rbp),%edx
    4f7e:	89 c1                	mov    %eax,%ecx
    4f80:	d3 e2                	shl    %cl,%edx
    4f82:	89 d0                	mov    %edx,%eax
    4f84:	eb 03                	jmp    4f89 <safe_lshift_func_uint32_t_u_s+0x3e>
    4f86:	8b 45 fc             	mov    -0x4(%rbp),%eax
    4f89:	5d                   	pop    %rbp
    4f8a:	c3                   	retq   

0000000000004f8b <safe_lshift_func_uint32_t_u_u>:
    4f8b:	f3 0f 1e fa          	endbr64 
    4f8f:	55                   	push   %rbp
    4f90:	48 89 e5             	mov    %rsp,%rbp
    4f93:	89 7d fc             	mov    %edi,-0x4(%rbp)
    4f96:	89 75 f8             	mov    %esi,-0x8(%rbp)
    4f99:	83 7d f8 1f          	cmpl   $0x1f,-0x8(%rbp)
    4f9d:	77 21                	ja     4fc0 <safe_lshift_func_uint32_t_u_u+0x35>
    4f9f:	8b 45 f8             	mov    -0x8(%rbp),%eax
    4fa2:	ba ff ff ff ff       	mov    $0xffffffff,%edx
    4fa7:	89 c1                	mov    %eax,%ecx
    4fa9:	d3 ea                	shr    %cl,%edx
    4fab:	89 d0                	mov    %edx,%eax
    4fad:	39 45 fc             	cmp    %eax,-0x4(%rbp)
    4fb0:	77 0e                	ja     4fc0 <safe_lshift_func_uint32_t_u_u+0x35>
    4fb2:	8b 45 f8             	mov    -0x8(%rbp),%eax
    4fb5:	8b 55 fc             	mov    -0x4(%rbp),%edx
    4fb8:	89 c1                	mov    %eax,%ecx
    4fba:	d3 e2                	shl    %cl,%edx
    4fbc:	89 d0                	mov    %edx,%eax
    4fbe:	eb 03                	jmp    4fc3 <safe_lshift_func_uint32_t_u_u+0x38>
    4fc0:	8b 45 fc             	mov    -0x4(%rbp),%eax
    4fc3:	5d                   	pop    %rbp
    4fc4:	c3                   	retq   

0000000000004fc5 <safe_rshift_func_uint32_t_u_s>:
    4fc5:	f3 0f 1e fa          	endbr64 
    4fc9:	55                   	push   %rbp
    4fca:	48 89 e5             	mov    %rsp,%rbp
    4fcd:	89 7d fc             	mov    %edi,-0x4(%rbp)
    4fd0:	89 75 f8             	mov    %esi,-0x8(%rbp)
    4fd3:	83 7d f8 00          	cmpl   $0x0,-0x8(%rbp)
    4fd7:	78 14                	js     4fed <safe_rshift_func_uint32_t_u_s+0x28>
    4fd9:	83 7d f8 1f          	cmpl   $0x1f,-0x8(%rbp)
    4fdd:	7f 0e                	jg     4fed <safe_rshift_func_uint32_t_u_s+0x28>
    4fdf:	8b 45 f8             	mov    -0x8(%rbp),%eax
    4fe2:	8b 55 fc             	mov    -0x4(%rbp),%edx
    4fe5:	89 c1                	mov    %eax,%ecx
    4fe7:	d3 ea                	shr    %cl,%edx
    4fe9:	89 d0                	mov    %edx,%eax
    4feb:	eb 03                	jmp    4ff0 <safe_rshift_func_uint32_t_u_s+0x2b>
    4fed:	8b 45 fc             	mov    -0x4(%rbp),%eax
    4ff0:	5d                   	pop    %rbp
    4ff1:	c3                   	retq   

0000000000004ff2 <safe_rshift_func_uint32_t_u_u>:
    4ff2:	f3 0f 1e fa          	endbr64 
    4ff6:	55                   	push   %rbp
    4ff7:	48 89 e5             	mov    %rsp,%rbp
    4ffa:	89 7d fc             	mov    %edi,-0x4(%rbp)
    4ffd:	89 75 f8             	mov    %esi,-0x8(%rbp)
    5000:	83 7d f8 1f          	cmpl   $0x1f,-0x8(%rbp)
    5004:	77 0e                	ja     5014 <safe_rshift_func_uint32_t_u_u+0x22>
    5006:	8b 45 f8             	mov    -0x8(%rbp),%eax
    5009:	8b 55 fc             	mov    -0x4(%rbp),%edx
    500c:	89 c1                	mov    %eax,%ecx
    500e:	d3 ea                	shr    %cl,%edx
    5010:	89 d0                	mov    %edx,%eax
    5012:	eb 03                	jmp    5017 <safe_rshift_func_uint32_t_u_u+0x25>
    5014:	8b 45 fc             	mov    -0x4(%rbp),%eax
    5017:	5d                   	pop    %rbp
    5018:	c3                   	retq   

0000000000005019 <safe_unary_minus_func_uint64_t_u>:
    5019:	f3 0f 1e fa          	endbr64 
    501d:	55                   	push   %rbp
    501e:	48 89 e5             	mov    %rsp,%rbp
    5021:	48 89 7d f8          	mov    %rdi,-0x8(%rbp)
    5025:	48 8b 45 f8          	mov    -0x8(%rbp),%rax
    5029:	48 f7 d8             	neg    %rax
    502c:	5d                   	pop    %rbp
    502d:	c3                   	retq   

000000000000502e <safe_add_func_uint64_t_u_u>:
    502e:	f3 0f 1e fa          	endbr64 
    5032:	55                   	push   %rbp
    5033:	48 89 e5             	mov    %rsp,%rbp
    5036:	48 89 7d f8          	mov    %rdi,-0x8(%rbp)
    503a:	48 89 75 f0          	mov    %rsi,-0x10(%rbp)
    503e:	48 8b 55 f8          	mov    -0x8(%rbp),%rdx
    5042:	48 8b 45 f0          	mov    -0x10(%rbp),%rax
    5046:	48 01 d0             	add    %rdx,%rax
    5049:	5d                   	pop    %rbp
    504a:	c3                   	retq   

000000000000504b <safe_sub_func_uint64_t_u_u>:
    504b:	f3 0f 1e fa          	endbr64 
    504f:	55                   	push   %rbp
    5050:	48 89 e5             	mov    %rsp,%rbp
    5053:	48 89 7d f8          	mov    %rdi,-0x8(%rbp)
    5057:	48 89 75 f0          	mov    %rsi,-0x10(%rbp)
    505b:	48 8b 45 f8          	mov    -0x8(%rbp),%rax
    505f:	48 2b 45 f0          	sub    -0x10(%rbp),%rax
    5063:	5d                   	pop    %rbp
    5064:	c3                   	retq   

0000000000005065 <safe_mul_func_uint64_t_u_u>:
    5065:	f3 0f 1e fa          	endbr64 
    5069:	55                   	push   %rbp
    506a:	48 89 e5             	mov    %rsp,%rbp
    506d:	48 89 7d f8          	mov    %rdi,-0x8(%rbp)
    5071:	48 89 75 f0          	mov    %rsi,-0x10(%rbp)
    5075:	48 8b 45 f8          	mov    -0x8(%rbp),%rax
    5079:	48 0f af 45 f0       	imul   -0x10(%rbp),%rax
    507e:	5d                   	pop    %rbp
    507f:	c3                   	retq   

0000000000005080 <safe_mod_func_uint64_t_u_u>:
    5080:	f3 0f 1e fa          	endbr64 
    5084:	55                   	push   %rbp
    5085:	48 89 e5             	mov    %rsp,%rbp
    5088:	48 89 7d f8          	mov    %rdi,-0x8(%rbp)
    508c:	48 89 75 f0          	mov    %rsi,-0x10(%rbp)
    5090:	48 83 7d f0 00       	cmpq   $0x0,-0x10(%rbp)
    5095:	74 12                	je     50a9 <safe_mod_func_uint64_t_u_u+0x29>
    5097:	48 8b 45 f8          	mov    -0x8(%rbp),%rax
    509b:	ba 00 00 00 00       	mov    $0x0,%edx
    50a0:	48 f7 75 f0          	divq   -0x10(%rbp)
    50a4:	48 89 d0             	mov    %rdx,%rax
    50a7:	eb 04                	jmp    50ad <safe_mod_func_uint64_t_u_u+0x2d>
    50a9:	48 8b 45 f8          	mov    -0x8(%rbp),%rax
    50ad:	5d                   	pop    %rbp
    50ae:	c3                   	retq   

00000000000050af <safe_div_func_uint64_t_u_u>:
    50af:	f3 0f 1e fa          	endbr64 
    50b3:	55                   	push   %rbp
    50b4:	48 89 e5             	mov    %rsp,%rbp
    50b7:	48 89 7d f8          	mov    %rdi,-0x8(%rbp)
    50bb:	48 89 75 f0          	mov    %rsi,-0x10(%rbp)
    50bf:	48 83 7d f0 00       	cmpq   $0x0,-0x10(%rbp)
    50c4:	74 0f                	je     50d5 <safe_div_func_uint64_t_u_u+0x26>
    50c6:	48 8b 45 f8          	mov    -0x8(%rbp),%rax
    50ca:	ba 00 00 00 00       	mov    $0x0,%edx
    50cf:	48 f7 75 f0          	divq   -0x10(%rbp)
    50d3:	eb 04                	jmp    50d9 <safe_div_func_uint64_t_u_u+0x2a>
    50d5:	48 8b 45 f8          	mov    -0x8(%rbp),%rax
    50d9:	5d                   	pop    %rbp
    50da:	c3                   	retq   

00000000000050db <safe_lshift_func_uint64_t_u_s>:
    50db:	f3 0f 1e fa          	endbr64 
    50df:	55                   	push   %rbp
    50e0:	48 89 e5             	mov    %rsp,%rbp
    50e3:	48 89 7d f8          	mov    %rdi,-0x8(%rbp)
    50e7:	89 75 f4             	mov    %esi,-0xc(%rbp)
    50ea:	83 7d f4 00          	cmpl   $0x0,-0xc(%rbp)
    50ee:	78 2f                	js     511f <safe_lshift_func_uint64_t_u_s+0x44>
    50f0:	83 7d f4 1f          	cmpl   $0x1f,-0xc(%rbp)
    50f4:	7f 29                	jg     511f <safe_lshift_func_uint64_t_u_s+0x44>
    50f6:	8b 45 f4             	mov    -0xc(%rbp),%eax
    50f9:	48 c7 c2 ff ff ff ff 	mov    $0xffffffffffffffff,%rdx
    5100:	89 c1                	mov    %eax,%ecx
    5102:	48 d3 ea             	shr    %cl,%rdx
    5105:	48 89 d0             	mov    %rdx,%rax
    5108:	48 39 45 f8          	cmp    %rax,-0x8(%rbp)
    510c:	77 11                	ja     511f <safe_lshift_func_uint64_t_u_s+0x44>
    510e:	8b 45 f4             	mov    -0xc(%rbp),%eax
    5111:	48 8b 55 f8          	mov    -0x8(%rbp),%rdx
    5115:	89 c1                	mov    %eax,%ecx
    5117:	48 d3 e2             	shl    %cl,%rdx
    511a:	48 89 d0             	mov    %rdx,%rax
    511d:	eb 04                	jmp    5123 <safe_lshift_func_uint64_t_u_s+0x48>
    511f:	48 8b 45 f8          	mov    -0x8(%rbp),%rax
    5123:	5d                   	pop    %rbp
    5124:	c3                   	retq   

0000000000005125 <safe_lshift_func_uint64_t_u_u>:
    5125:	f3 0f 1e fa          	endbr64 
    5129:	55                   	push   %rbp
    512a:	48 89 e5             	mov    %rsp,%rbp
    512d:	48 89 7d f8          	mov    %rdi,-0x8(%rbp)
    5131:	89 75 f4             	mov    %esi,-0xc(%rbp)
    5134:	83 7d f4 1f          	cmpl   $0x1f,-0xc(%rbp)
    5138:	77 29                	ja     5163 <safe_lshift_func_uint64_t_u_u+0x3e>
    513a:	8b 45 f4             	mov    -0xc(%rbp),%eax
    513d:	48 c7 c2 ff ff ff ff 	mov    $0xffffffffffffffff,%rdx
    5144:	89 c1                	mov    %eax,%ecx
    5146:	48 d3 ea             	shr    %cl,%rdx
    5149:	48 89 d0             	mov    %rdx,%rax
    514c:	48 39 45 f8          	cmp    %rax,-0x8(%rbp)
    5150:	77 11                	ja     5163 <safe_lshift_func_uint64_t_u_u+0x3e>
    5152:	8b 45 f4             	mov    -0xc(%rbp),%eax
    5155:	48 8b 55 f8          	mov    -0x8(%rbp),%rdx
    5159:	89 c1                	mov    %eax,%ecx
    515b:	48 d3 e2             	shl    %cl,%rdx
    515e:	48 89 d0             	mov    %rdx,%rax
    5161:	eb 04                	jmp    5167 <safe_lshift_func_uint64_t_u_u+0x42>
    5163:	48 8b 45 f8          	mov    -0x8(%rbp),%rax
    5167:	5d                   	pop    %rbp
    5168:	c3                   	retq   

0000000000005169 <safe_rshift_func_uint64_t_u_s>:
    5169:	f3 0f 1e fa          	endbr64 
    516d:	55                   	push   %rbp
    516e:	48 89 e5             	mov    %rsp,%rbp
    5171:	48 89 7d f8          	mov    %rdi,-0x8(%rbp)
    5175:	89 75 f4             	mov    %esi,-0xc(%rbp)
    5178:	83 7d f4 00          	cmpl   $0x0,-0xc(%rbp)
    517c:	78 17                	js     5195 <safe_rshift_func_uint64_t_u_s+0x2c>
    517e:	83 7d f4 1f          	cmpl   $0x1f,-0xc(%rbp)
    5182:	7f 11                	jg     5195 <safe_rshift_func_uint64_t_u_s+0x2c>
    5184:	8b 45 f4             	mov    -0xc(%rbp),%eax
    5187:	48 8b 55 f8          	mov    -0x8(%rbp),%rdx
    518b:	89 c1                	mov    %eax,%ecx
    518d:	48 d3 ea             	shr    %cl,%rdx
    5190:	48 89 d0             	mov    %rdx,%rax
    5193:	eb 04                	jmp    5199 <safe_rshift_func_uint64_t_u_s+0x30>
    5195:	48 8b 45 f8          	mov    -0x8(%rbp),%rax
    5199:	5d                   	pop    %rbp
    519a:	c3                   	retq   

000000000000519b <safe_rshift_func_uint64_t_u_u>:
    519b:	f3 0f 1e fa          	endbr64 
    519f:	55                   	push   %rbp
    51a0:	48 89 e5             	mov    %rsp,%rbp
    51a3:	48 89 7d f8          	mov    %rdi,-0x8(%rbp)
    51a7:	89 75 f4             	mov    %esi,-0xc(%rbp)
    51aa:	83 7d f4 1f          	cmpl   $0x1f,-0xc(%rbp)
    51ae:	77 11                	ja     51c1 <safe_rshift_func_uint64_t_u_u+0x26>
    51b0:	8b 45 f4             	mov    -0xc(%rbp),%eax
    51b3:	48 8b 55 f8          	mov    -0x8(%rbp),%rdx
    51b7:	89 c1                	mov    %eax,%ecx
    51b9:	48 d3 ea             	shr    %cl,%rdx
    51bc:	48 89 d0             	mov    %rdx,%rax
    51bf:	eb 04                	jmp    51c5 <safe_rshift_func_uint64_t_u_u+0x2a>
    51c1:	48 8b 45 f8          	mov    -0x8(%rbp),%rax
    51c5:	5d                   	pop    %rbp
    51c6:	c3                   	retq   

00000000000051c7 <safe_add_func_float_f_f>:
    51c7:	f3 0f 1e fa          	endbr64 
    51cb:	55                   	push   %rbp
    51cc:	48 89 e5             	mov    %rsp,%rbp
    51cf:	f3 0f 11 45 fc       	movss  %xmm0,-0x4(%rbp)
    51d4:	f3 0f 11 4d f8       	movss  %xmm1,-0x8(%rbp)
    51d9:	f3 0f 10 4d fc       	movss  -0x4(%rbp),%xmm1
    51de:	f3 0f 10 05 3a 7f 00 	movss  0x7f3a(%rip),%xmm0        # d120 <l_859.4477+0xc0>
    51e5:	00 
    51e6:	f3 0f 59 c8          	mulss  %xmm0,%xmm1
    51ea:	f3 0f 10 55 f8       	movss  -0x8(%rbp),%xmm2
    51ef:	f3 0f 10 05 29 7f 00 	movss  0x7f29(%rip),%xmm0        # d120 <l_859.4477+0xc0>
    51f6:	00 
    51f7:	f3 0f 59 c2          	mulss  %xmm2,%xmm0
    51fb:	f3 0f 58 c1          	addss  %xmm1,%xmm0
    51ff:	f3 0f 10 0d 29 7f 00 	movss  0x7f29(%rip),%xmm1        # d130 <l_859.4477+0xd0>
    5206:	00 
    5207:	0f 54 c1             	andps  %xmm1,%xmm0
    520a:	0f 2f 05 2f 7f 00 00 	comiss 0x7f2f(%rip),%xmm0        # d140 <l_859.4477+0xe0>
    5211:	76 07                	jbe    521a <safe_add_func_float_f_f+0x53>
    5213:	f3 0f 10 45 fc       	movss  -0x4(%rbp),%xmm0
    5218:	eb 0a                	jmp    5224 <safe_add_func_float_f_f+0x5d>
    521a:	f3 0f 10 45 fc       	movss  -0x4(%rbp),%xmm0
    521f:	f3 0f 58 45 f8       	addss  -0x8(%rbp),%xmm0
    5224:	5d                   	pop    %rbp
    5225:	c3                   	retq   

0000000000005226 <safe_sub_func_float_f_f>:
    5226:	f3 0f 1e fa          	endbr64 
    522a:	55                   	push   %rbp
    522b:	48 89 e5             	mov    %rsp,%rbp
    522e:	f3 0f 11 45 fc       	movss  %xmm0,-0x4(%rbp)
    5233:	f3 0f 11 4d f8       	movss  %xmm1,-0x8(%rbp)
    5238:	f3 0f 10 4d fc       	movss  -0x4(%rbp),%xmm1
    523d:	f3 0f 10 05 db 7e 00 	movss  0x7edb(%rip),%xmm0        # d120 <l_859.4477+0xc0>
    5244:	00 
    5245:	f3 0f 59 c1          	mulss  %xmm1,%xmm0
    5249:	f3 0f 10 55 f8       	movss  -0x8(%rbp),%xmm2
    524e:	f3 0f 10 0d ca 7e 00 	movss  0x7eca(%rip),%xmm1        # d120 <l_859.4477+0xc0>
    5255:	00 
    5256:	f3 0f 59 ca          	mulss  %xmm2,%xmm1
    525a:	f3 0f 5c c1          	subss  %xmm1,%xmm0
    525e:	f3 0f 10 0d ca 7e 00 	movss  0x7eca(%rip),%xmm1        # d130 <l_859.4477+0xd0>
    5265:	00 
    5266:	0f 54 c1             	andps  %xmm1,%xmm0
    5269:	0f 2f 05 d0 7e 00 00 	comiss 0x7ed0(%rip),%xmm0        # d140 <l_859.4477+0xe0>
    5270:	76 07                	jbe    5279 <safe_sub_func_float_f_f+0x53>
    5272:	f3 0f 10 45 fc       	movss  -0x4(%rbp),%xmm0
    5277:	eb 0a                	jmp    5283 <safe_sub_func_float_f_f+0x5d>
    5279:	f3 0f 10 45 fc       	movss  -0x4(%rbp),%xmm0
    527e:	f3 0f 5c 45 f8       	subss  -0x8(%rbp),%xmm0
    5283:	5d                   	pop    %rbp
    5284:	c3                   	retq   

0000000000005285 <safe_mul_func_float_f_f>:
    5285:	f3 0f 1e fa          	endbr64 
    5289:	55                   	push   %rbp
    528a:	48 89 e5             	mov    %rsp,%rbp
    528d:	f3 0f 11 45 fc       	movss  %xmm0,-0x4(%rbp)
    5292:	f3 0f 11 4d f8       	movss  %xmm1,-0x8(%rbp)
    5297:	f3 0f 10 4d fc       	movss  -0x4(%rbp),%xmm1
    529c:	f3 0f 10 05 a0 7e 00 	movss  0x7ea0(%rip),%xmm0        # d144 <l_859.4477+0xe4>
    52a3:	00 
    52a4:	f3 0f 59 c8          	mulss  %xmm0,%xmm1
    52a8:	f3 0f 10 55 f8       	movss  -0x8(%rbp),%xmm2
    52ad:	f3 0f 10 05 93 7e 00 	movss  0x7e93(%rip),%xmm0        # d148 <l_859.4477+0xe8>
    52b4:	00 
    52b5:	f3 0f 59 c2          	mulss  %xmm2,%xmm0
    52b9:	f3 0f 59 c1          	mulss  %xmm1,%xmm0
    52bd:	f3 0f 10 0d 6b 7e 00 	movss  0x7e6b(%rip),%xmm1        # d130 <l_859.4477+0xd0>
    52c4:	00 
    52c5:	0f 54 c1             	andps  %xmm1,%xmm0
    52c8:	0f 2f 05 7d 7e 00 00 	comiss 0x7e7d(%rip),%xmm0        # d14c <l_859.4477+0xec>
    52cf:	76 07                	jbe    52d8 <safe_mul_func_float_f_f+0x53>
    52d1:	f3 0f 10 45 fc       	movss  -0x4(%rbp),%xmm0
    52d6:	eb 0a                	jmp    52e2 <safe_mul_func_float_f_f+0x5d>
    52d8:	f3 0f 10 45 fc       	movss  -0x4(%rbp),%xmm0
    52dd:	f3 0f 59 45 f8       	mulss  -0x8(%rbp),%xmm0
    52e2:	5d                   	pop    %rbp
    52e3:	c3                   	retq   

00000000000052e4 <safe_div_func_float_f_f>:
    52e4:	f3 0f 1e fa          	endbr64 
    52e8:	55                   	push   %rbp
    52e9:	48 89 e5             	mov    %rsp,%rbp
    52ec:	f3 0f 11 45 fc       	movss  %xmm0,-0x4(%rbp)
    52f1:	f3 0f 11 4d f8       	movss  %xmm1,-0x8(%rbp)
    52f6:	f3 0f 10 45 f8       	movss  -0x8(%rbp),%xmm0
    52fb:	f3 0f 10 0d 2d 7e 00 	movss  0x7e2d(%rip),%xmm1        # d130 <l_859.4477+0xd0>
    5302:	00 
    5303:	0f 54 c8             	andps  %xmm0,%xmm1
    5306:	f3 0f 10 05 42 7e 00 	movss  0x7e42(%rip),%xmm0        # d150 <l_859.4477+0xf0>
    530d:	00 
    530e:	0f 2f c1             	comiss %xmm1,%xmm0
    5311:	0f 97 c0             	seta   %al
    5314:	83 f0 01             	xor    $0x1,%eax
    5317:	84 c0                	test   %al,%al
    5319:	75 56                	jne    5371 <safe_div_func_float_f_f+0x8d>
    531b:	66 0f ef c0          	pxor   %xmm0,%xmm0
    531f:	0f 2e 45 f8          	ucomiss -0x8(%rbp),%xmm0
    5323:	7a 0a                	jp     532f <safe_div_func_float_f_f+0x4b>
    5325:	66 0f ef c0          	pxor   %xmm0,%xmm0
    5329:	0f 2e 45 f8          	ucomiss -0x8(%rbp),%xmm0
    532d:	74 4e                	je     537d <safe_div_func_float_f_f+0x99>
    532f:	f3 0f 10 4d fc       	movss  -0x4(%rbp),%xmm1
    5334:	f3 0f 10 05 18 7e 00 	movss  0x7e18(%rip),%xmm0        # d154 <l_859.4477+0xf4>
    533b:	00 
    533c:	f3 0f 59 c1          	mulss  %xmm1,%xmm0
    5340:	f3 0f 10 55 f8       	movss  -0x8(%rbp),%xmm2
    5345:	f3 0f 10 0d 0b 7e 00 	movss  0x7e0b(%rip),%xmm1        # d158 <l_859.4477+0xf8>
    534c:	00 
    534d:	f3 0f 59 ca          	mulss  %xmm2,%xmm1
    5351:	f3 0f 5e c1          	divss  %xmm1,%xmm0
    5355:	f3 0f 10 0d d3 7d 00 	movss  0x7dd3(%rip),%xmm1        # d130 <l_859.4477+0xd0>
    535c:	00 
    535d:	0f 54 c1             	andps  %xmm1,%xmm0
    5360:	0f 2f 05 f5 7d 00 00 	comiss 0x7df5(%rip),%xmm0        # d15c <l_859.4477+0xfc>
    5367:	0f 97 c0             	seta   %al
    536a:	83 f0 01             	xor    $0x1,%eax
    536d:	84 c0                	test   %al,%al
    536f:	74 0c                	je     537d <safe_div_func_float_f_f+0x99>
    5371:	f3 0f 10 45 fc       	movss  -0x4(%rbp),%xmm0
    5376:	f3 0f 5e 45 f8       	divss  -0x8(%rbp),%xmm0
    537b:	eb 05                	jmp    5382 <safe_div_func_float_f_f+0x9e>
    537d:	f3 0f 10 45 fc       	movss  -0x4(%rbp),%xmm0
    5382:	5d                   	pop    %rbp
    5383:	c3                   	retq   

0000000000005384 <safe_add_func_double_f_f>:
    5384:	f3 0f 1e fa          	endbr64 
    5388:	55                   	push   %rbp
    5389:	48 89 e5             	mov    %rsp,%rbp
    538c:	f2 0f 11 45 f8       	movsd  %xmm0,-0x8(%rbp)
    5391:	f2 0f 11 4d f0       	movsd  %xmm1,-0x10(%rbp)
    5396:	f2 0f 10 4d f8       	movsd  -0x8(%rbp),%xmm1
    539b:	f2 0f 10 05 bd 7d 00 	movsd  0x7dbd(%rip),%xmm0        # d160 <l_859.4477+0x100>
    53a2:	00 
    53a3:	f2 0f 59 c8          	mulsd  %xmm0,%xmm1
    53a7:	f2 0f 10 55 f0       	movsd  -0x10(%rbp),%xmm2
    53ac:	f2 0f 10 05 ac 7d 00 	movsd  0x7dac(%rip),%xmm0        # d160 <l_859.4477+0x100>
    53b3:	00 
    53b4:	f2 0f 59 c2          	mulsd  %xmm2,%xmm0
    53b8:	f2 0f 58 c1          	addsd  %xmm1,%xmm0
    53bc:	f3 0f 7e 0d ac 7d 00 	movq   0x7dac(%rip),%xmm1        # d170 <l_859.4477+0x110>
    53c3:	00 
    53c4:	66 0f 54 c1          	andpd  %xmm1,%xmm0
    53c8:	66 0f 2f 05 b0 7d 00 	comisd 0x7db0(%rip),%xmm0        # d180 <l_859.4477+0x120>
    53cf:	00 
    53d0:	76 07                	jbe    53d9 <safe_add_func_double_f_f+0x55>
    53d2:	f2 0f 10 45 f8       	movsd  -0x8(%rbp),%xmm0
    53d7:	eb 0a                	jmp    53e3 <safe_add_func_double_f_f+0x5f>
    53d9:	f2 0f 10 45 f8       	movsd  -0x8(%rbp),%xmm0
    53de:	f2 0f 58 45 f0       	addsd  -0x10(%rbp),%xmm0
    53e3:	5d                   	pop    %rbp
    53e4:	c3                   	retq   

00000000000053e5 <safe_sub_func_double_f_f>:
    53e5:	f3 0f 1e fa          	endbr64 
    53e9:	55                   	push   %rbp
    53ea:	48 89 e5             	mov    %rsp,%rbp
    53ed:	f2 0f 11 45 f8       	movsd  %xmm0,-0x8(%rbp)
    53f2:	f2 0f 11 4d f0       	movsd  %xmm1,-0x10(%rbp)
    53f7:	f2 0f 10 4d f8       	movsd  -0x8(%rbp),%xmm1
    53fc:	f2 0f 10 05 5c 7d 00 	movsd  0x7d5c(%rip),%xmm0        # d160 <l_859.4477+0x100>
    5403:	00 
    5404:	f2 0f 59 c1          	mulsd  %xmm1,%xmm0
    5408:	f2 0f 10 55 f0       	movsd  -0x10(%rbp),%xmm2
    540d:	f2 0f 10 0d 4b 7d 00 	movsd  0x7d4b(%rip),%xmm1        # d160 <l_859.4477+0x100>
    5414:	00 
    5415:	f2 0f 59 ca          	mulsd  %xmm2,%xmm1
    5419:	f2 0f 5c c1          	subsd  %xmm1,%xmm0
    541d:	f3 0f 7e 0d 4b 7d 00 	movq   0x7d4b(%rip),%xmm1        # d170 <l_859.4477+0x110>
    5424:	00 
    5425:	66 0f 54 c1          	andpd  %xmm1,%xmm0
    5429:	66 0f 2f 05 4f 7d 00 	comisd 0x7d4f(%rip),%xmm0        # d180 <l_859.4477+0x120>
    5430:	00 
    5431:	76 07                	jbe    543a <safe_sub_func_double_f_f+0x55>
    5433:	f2 0f 10 45 f8       	movsd  -0x8(%rbp),%xmm0
    5438:	eb 0a                	jmp    5444 <safe_sub_func_double_f_f+0x5f>
    543a:	f2 0f 10 45 f8       	movsd  -0x8(%rbp),%xmm0
    543f:	f2 0f 5c 45 f0       	subsd  -0x10(%rbp),%xmm0
    5444:	5d                   	pop    %rbp
    5445:	c3                   	retq   

0000000000005446 <safe_mul_func_double_f_f>:
    5446:	f3 0f 1e fa          	endbr64 
    544a:	55                   	push   %rbp
    544b:	48 89 e5             	mov    %rsp,%rbp
    544e:	f2 0f 11 45 f8       	movsd  %xmm0,-0x8(%rbp)
    5453:	f2 0f 11 4d f0       	movsd  %xmm1,-0x10(%rbp)
    5458:	f2 0f 10 4d f8       	movsd  -0x8(%rbp),%xmm1
    545d:	f2 0f 10 05 23 7d 00 	movsd  0x7d23(%rip),%xmm0        # d188 <l_859.4477+0x128>
    5464:	00 
    5465:	f2 0f 59 c8          	mulsd  %xmm0,%xmm1
    5469:	f2 0f 10 55 f0       	movsd  -0x10(%rbp),%xmm2
    546e:	f2 0f 10 05 1a 7d 00 	movsd  0x7d1a(%rip),%xmm0        # d190 <l_859.4477+0x130>
    5475:	00 
    5476:	f2 0f 59 c2          	mulsd  %xmm2,%xmm0
    547a:	f2 0f 59 c1          	mulsd  %xmm1,%xmm0
    547e:	f3 0f 7e 0d ea 7c 00 	movq   0x7cea(%rip),%xmm1        # d170 <l_859.4477+0x110>
    5485:	00 
    5486:	66 0f 54 c1          	andpd  %xmm1,%xmm0
    548a:	66 0f 2f 05 06 7d 00 	comisd 0x7d06(%rip),%xmm0        # d198 <l_859.4477+0x138>
    5491:	00 
    5492:	76 07                	jbe    549b <safe_mul_func_double_f_f+0x55>
    5494:	f2 0f 10 45 f8       	movsd  -0x8(%rbp),%xmm0
    5499:	eb 0a                	jmp    54a5 <safe_mul_func_double_f_f+0x5f>
    549b:	f2 0f 10 45 f8       	movsd  -0x8(%rbp),%xmm0
    54a0:	f2 0f 59 45 f0       	mulsd  -0x10(%rbp),%xmm0
    54a5:	5d                   	pop    %rbp
    54a6:	c3                   	retq   

00000000000054a7 <safe_div_func_double_f_f>:
    54a7:	f3 0f 1e fa          	endbr64 
    54ab:	55                   	push   %rbp
    54ac:	48 89 e5             	mov    %rsp,%rbp
    54af:	f2 0f 11 45 f8       	movsd  %xmm0,-0x8(%rbp)
    54b4:	f2 0f 11 4d f0       	movsd  %xmm1,-0x10(%rbp)
    54b9:	f2 0f 10 45 f0       	movsd  -0x10(%rbp),%xmm0
    54be:	f3 0f 7e 0d aa 7c 00 	movq   0x7caa(%rip),%xmm1        # d170 <l_859.4477+0x110>
    54c5:	00 
    54c6:	66 0f 54 c8          	andpd  %xmm0,%xmm1
    54ca:	f2 0f 10 05 ce 7c 00 	movsd  0x7cce(%rip),%xmm0        # d1a0 <l_859.4477+0x140>
    54d1:	00 
    54d2:	66 0f 2f c1          	comisd %xmm1,%xmm0
    54d6:	0f 97 c0             	seta   %al
    54d9:	83 f0 01             	xor    $0x1,%eax
    54dc:	84 c0                	test   %al,%al
    54de:	75 5a                	jne    553a <safe_div_func_double_f_f+0x93>
    54e0:	66 0f ef c0          	pxor   %xmm0,%xmm0
    54e4:	66 0f 2e 45 f0       	ucomisd -0x10(%rbp),%xmm0
    54e9:	7a 0b                	jp     54f6 <safe_div_func_double_f_f+0x4f>
    54eb:	66 0f ef c0          	pxor   %xmm0,%xmm0
    54ef:	66 0f 2e 45 f0       	ucomisd -0x10(%rbp),%xmm0
    54f4:	74 50                	je     5546 <safe_div_func_double_f_f+0x9f>
    54f6:	f2 0f 10 4d f8       	movsd  -0x8(%rbp),%xmm1
    54fb:	f2 0f 10 05 a5 7c 00 	movsd  0x7ca5(%rip),%xmm0        # d1a8 <l_859.4477+0x148>
    5502:	00 
    5503:	f2 0f 59 c1          	mulsd  %xmm1,%xmm0
    5507:	f2 0f 10 55 f0       	movsd  -0x10(%rbp),%xmm2
    550c:	f2 0f 10 0d 9c 7c 00 	movsd  0x7c9c(%rip),%xmm1        # d1b0 <l_859.4477+0x150>
    5513:	00 
    5514:	f2 0f 59 ca          	mulsd  %xmm2,%xmm1
    5518:	f2 0f 5e c1          	divsd  %xmm1,%xmm0
    551c:	f3 0f 7e 0d 4c 7c 00 	movq   0x7c4c(%rip),%xmm1        # d170 <l_859.4477+0x110>
    5523:	00 
    5524:	66 0f 54 c1          	andpd  %xmm1,%xmm0
    5528:	66 0f 2f 05 88 7c 00 	comisd 0x7c88(%rip),%xmm0        # d1b8 <l_859.4477+0x158>
    552f:	00 
    5530:	0f 97 c0             	seta   %al
    5533:	83 f0 01             	xor    $0x1,%eax
    5536:	84 c0                	test   %al,%al
    5538:	74 0c                	je     5546 <safe_div_func_double_f_f+0x9f>
    553a:	f2 0f 10 45 f8       	movsd  -0x8(%rbp),%xmm0
    553f:	f2 0f 5e 45 f0       	divsd  -0x10(%rbp),%xmm0
    5544:	eb 05                	jmp    554b <safe_div_func_double_f_f+0xa4>
    5546:	f2 0f 10 45 f8       	movsd  -0x8(%rbp),%xmm0
    554b:	5d                   	pop    %rbp
    554c:	c3                   	retq   

000000000000554d <safe_convert_func_float_to_int32_t>:
    554d:	f3 0f 1e fa          	endbr64 
    5551:	55                   	push   %rbp
    5552:	48 89 e5             	mov    %rsp,%rbp
    5555:	f3 0f 11 45 fc       	movss  %xmm0,-0x4(%rbp)
    555a:	f3 0f 10 05 5e 7c 00 	movss  0x7c5e(%rip),%xmm0        # d1c0 <l_859.4477+0x160>
    5561:	00 
    5562:	0f 2f 45 fc          	comiss -0x4(%rbp),%xmm0
    5566:	0f 93 c0             	setae  %al
    5569:	83 f0 01             	xor    $0x1,%eax
    556c:	84 c0                	test   %al,%al
    556e:	74 21                	je     5591 <safe_convert_func_float_to_int32_t+0x44>
    5570:	f3 0f 10 45 fc       	movss  -0x4(%rbp),%xmm0
    5575:	0f 2f 05 48 7c 00 00 	comiss 0x7c48(%rip),%xmm0        # d1c4 <l_859.4477+0x164>
    557c:	0f 93 c0             	setae  %al
    557f:	83 f0 01             	xor    $0x1,%eax
    5582:	84 c0                	test   %al,%al
    5584:	74 0b                	je     5591 <safe_convert_func_float_to_int32_t+0x44>
    5586:	f3 0f 10 45 fc       	movss  -0x4(%rbp),%xmm0
    558b:	f3 0f 2c c0          	cvttss2si %xmm0,%eax
    558f:	eb 05                	jmp    5596 <safe_convert_func_float_to_int32_t+0x49>
    5591:	b8 ff ff ff 7f       	mov    $0x7fffffff,%eax
    5596:	5d                   	pop    %rbp
    5597:	c3                   	retq   

0000000000005598 <crc32_gentab>:
    5598:	f3 0f 1e fa          	endbr64 
    559c:	55                   	push   %rbp
    559d:	48 89 e5             	mov    %rsp,%rbp
    55a0:	c7 45 fc 20 83 b8 ed 	movl   $0xedb88320,-0x4(%rbp)
    55a7:	c7 45 f4 00 00 00 00 	movl   $0x0,-0xc(%rbp)
    55ae:	eb 51                	jmp    5601 <crc32_gentab+0x69>
    55b0:	8b 45 f4             	mov    -0xc(%rbp),%eax
    55b3:	89 45 f0             	mov    %eax,-0x10(%rbp)
    55b6:	c7 45 f8 08 00 00 00 	movl   $0x8,-0x8(%rbp)
    55bd:	eb 1e                	jmp    55dd <crc32_gentab+0x45>
    55bf:	8b 45 f0             	mov    -0x10(%rbp),%eax
    55c2:	83 e0 01             	and    $0x1,%eax
    55c5:	85 c0                	test   %eax,%eax
    55c7:	74 0d                	je     55d6 <crc32_gentab+0x3e>
    55c9:	8b 45 f0             	mov    -0x10(%rbp),%eax
    55cc:	d1 e8                	shr    %eax
    55ce:	33 45 fc             	xor    -0x4(%rbp),%eax
    55d1:	89 45 f0             	mov    %eax,-0x10(%rbp)
    55d4:	eb 03                	jmp    55d9 <crc32_gentab+0x41>
    55d6:	d1 6d f0             	shrl   -0x10(%rbp)
    55d9:	83 6d f8 01          	subl   $0x1,-0x8(%rbp)
    55dd:	83 7d f8 00          	cmpl   $0x0,-0x8(%rbp)
    55e1:	7f dc                	jg     55bf <crc32_gentab+0x27>
    55e3:	8b 45 f4             	mov    -0xc(%rbp),%eax
    55e6:	48 98                	cltq   
    55e8:	48 8d 0c 85 00 00 00 	lea    0x0(,%rax,4),%rcx
    55ef:	00 
    55f0:	48 8d 15 09 ca 00 00 	lea    0xca09(%rip),%rdx        # 12000 <crc32_tab>
    55f7:	8b 45 f0             	mov    -0x10(%rbp),%eax
    55fa:	89 04 11             	mov    %eax,(%rcx,%rdx,1)
    55fd:	83 45 f4 01          	addl   $0x1,-0xc(%rbp)
    5601:	81 7d f4 ff 00 00 00 	cmpl   $0xff,-0xc(%rbp)
    5608:	7e a6                	jle    55b0 <crc32_gentab+0x18>
    560a:	90                   	nop
    560b:	90                   	nop
    560c:	5d                   	pop    %rbp
    560d:	c3                   	retq   

000000000000560e <crc32_byte>:
    560e:	f3 0f 1e fa          	endbr64 
    5612:	55                   	push   %rbp
    5613:	48 89 e5             	mov    %rsp,%rbp
    5616:	89 f8                	mov    %edi,%eax
    5618:	88 45 fc             	mov    %al,-0x4(%rbp)
    561b:	8b 05 ff a9 00 00    	mov    0xa9ff(%rip),%eax        # 10020 <crc32_context>
    5621:	c1 e8 08             	shr    $0x8,%eax
    5624:	89 c1                	mov    %eax,%ecx
    5626:	0f b6 55 fc          	movzbl -0x4(%rbp),%edx
    562a:	8b 05 f0 a9 00 00    	mov    0xa9f0(%rip),%eax        # 10020 <crc32_context>
    5630:	31 d0                	xor    %edx,%eax
    5632:	0f b6 c0             	movzbl %al,%eax
    5635:	89 c0                	mov    %eax,%eax
    5637:	48 8d 14 85 00 00 00 	lea    0x0(,%rax,4),%rdx
    563e:	00 
    563f:	48 8d 05 ba c9 00 00 	lea    0xc9ba(%rip),%rax        # 12000 <crc32_tab>
    5646:	8b 04 02             	mov    (%rdx,%rax,1),%eax
    5649:	31 c8                	xor    %ecx,%eax
    564b:	89 05 cf a9 00 00    	mov    %eax,0xa9cf(%rip)        # 10020 <crc32_context>
    5651:	90                   	nop
    5652:	5d                   	pop    %rbp
    5653:	c3                   	retq   

0000000000005654 <crc32_8bytes>:
    5654:	f3 0f 1e fa          	endbr64 
    5658:	55                   	push   %rbp
    5659:	48 89 e5             	mov    %rsp,%rbp
    565c:	48 83 ec 08          	sub    $0x8,%rsp
    5660:	48 89 7d f8          	mov    %rdi,-0x8(%rbp)
    5664:	48 8b 45 f8          	mov    -0x8(%rbp),%rax
    5668:	0f b6 c0             	movzbl %al,%eax
    566b:	89 c7                	mov    %eax,%edi
    566d:	e8 9c ff ff ff       	callq  560e <crc32_byte>
    5672:	48 8b 45 f8          	mov    -0x8(%rbp),%rax
    5676:	48 c1 e8 08          	shr    $0x8,%rax
    567a:	0f b6 c0             	movzbl %al,%eax
    567d:	89 c7                	mov    %eax,%edi
    567f:	e8 8a ff ff ff       	callq  560e <crc32_byte>
    5684:	48 8b 45 f8          	mov    -0x8(%rbp),%rax
    5688:	48 c1 e8 10          	shr    $0x10,%rax
    568c:	0f b6 c0             	movzbl %al,%eax
    568f:	89 c7                	mov    %eax,%edi
    5691:	e8 78 ff ff ff       	callq  560e <crc32_byte>
    5696:	48 8b 45 f8          	mov    -0x8(%rbp),%rax
    569a:	48 c1 e8 18          	shr    $0x18,%rax
    569e:	0f b6 c0             	movzbl %al,%eax
    56a1:	89 c7                	mov    %eax,%edi
    56a3:	e8 66 ff ff ff       	callq  560e <crc32_byte>
    56a8:	48 8b 45 f8          	mov    -0x8(%rbp),%rax
    56ac:	48 c1 e8 20          	shr    $0x20,%rax
    56b0:	0f b6 c0             	movzbl %al,%eax
    56b3:	89 c7                	mov    %eax,%edi
    56b5:	e8 54 ff ff ff       	callq  560e <crc32_byte>
    56ba:	48 8b 45 f8          	mov    -0x8(%rbp),%rax
    56be:	48 c1 e8 28          	shr    $0x28,%rax
    56c2:	0f b6 c0             	movzbl %al,%eax
    56c5:	89 c7                	mov    %eax,%edi
    56c7:	e8 42 ff ff ff       	callq  560e <crc32_byte>
    56cc:	48 8b 45 f8          	mov    -0x8(%rbp),%rax
    56d0:	48 c1 e8 30          	shr    $0x30,%rax
    56d4:	0f b6 c0             	movzbl %al,%eax
    56d7:	89 c7                	mov    %eax,%edi
    56d9:	e8 30 ff ff ff       	callq  560e <crc32_byte>
    56de:	48 8b 45 f8          	mov    -0x8(%rbp),%rax
    56e2:	48 c1 e8 38          	shr    $0x38,%rax
    56e6:	0f b6 c0             	movzbl %al,%eax
    56e9:	89 c7                	mov    %eax,%edi
    56eb:	e8 1e ff ff ff       	callq  560e <crc32_byte>
    56f0:	90                   	nop
    56f1:	c9                   	leaveq 
    56f2:	c3                   	retq   

00000000000056f3 <transparent_crc>:
    56f3:	f3 0f 1e fa          	endbr64 
    56f7:	55                   	push   %rbp
    56f8:	48 89 e5             	mov    %rsp,%rbp
    56fb:	48 83 ec 20          	sub    $0x20,%rsp
    56ff:	48 89 7d f8          	mov    %rdi,-0x8(%rbp)
    5703:	48 89 75 f0          	mov    %rsi,-0x10(%rbp)
    5707:	89 55 ec             	mov    %edx,-0x14(%rbp)
    570a:	48 8b 45 f8          	mov    -0x8(%rbp),%rax
    570e:	48 89 c7             	mov    %rax,%rdi
    5711:	e8 3e ff ff ff       	callq  5654 <crc32_8bytes>
    5716:	83 7d ec 00          	cmpl   $0x0,-0x14(%rbp)
    571a:	74 22                	je     573e <transparent_crc+0x4b>
    571c:	8b 05 fe a8 00 00    	mov    0xa8fe(%rip),%eax        # 10020 <crc32_context>
    5722:	f7 d0                	not    %eax
    5724:	89 c2                	mov    %eax,%edx
    5726:	48 8b 45 f0          	mov    -0x10(%rbp),%rax
    572a:	48 89 c6             	mov    %rax,%rsi
    572d:	48 8d 3d fc 68 00 00 	lea    0x68fc(%rip),%rdi        # c030 <_IO_stdin_used+0x30>
    5734:	b8 00 00 00 00       	mov    $0x0,%eax
    5739:	e8 42 e9 ff ff       	callq  4080 <printf@plt>
    573e:	90                   	nop
    573f:	c9                   	leaveq 
    5740:	c3                   	retq   

0000000000005741 <transparent_crc_bytes>:
    5741:	f3 0f 1e fa          	endbr64 
    5745:	55                   	push   %rbp
    5746:	48 89 e5             	mov    %rsp,%rbp
    5749:	48 83 ec 30          	sub    $0x30,%rsp
    574d:	48 89 7d e8          	mov    %rdi,-0x18(%rbp)
    5751:	89 75 e4             	mov    %esi,-0x1c(%rbp)
    5754:	48 89 55 d8          	mov    %rdx,-0x28(%rbp)
    5758:	89 4d e0             	mov    %ecx,-0x20(%rbp)
    575b:	c7 45 fc 00 00 00 00 	movl   $0x0,-0x4(%rbp)
    5762:	eb 1e                	jmp    5782 <transparent_crc_bytes+0x41>
    5764:	8b 45 fc             	mov    -0x4(%rbp),%eax
    5767:	48 63 d0             	movslq %eax,%rdx
    576a:	48 8b 45 e8          	mov    -0x18(%rbp),%rax
    576e:	48 01 d0             	add    %rdx,%rax
    5771:	0f b6 00             	movzbl (%rax),%eax
    5774:	0f b6 c0             	movzbl %al,%eax
    5777:	89 c7                	mov    %eax,%edi
    5779:	e8 90 fe ff ff       	callq  560e <crc32_byte>
    577e:	83 45 fc 01          	addl   $0x1,-0x4(%rbp)
    5782:	8b 45 fc             	mov    -0x4(%rbp),%eax
    5785:	3b 45 e4             	cmp    -0x1c(%rbp),%eax
    5788:	7c da                	jl     5764 <transparent_crc_bytes+0x23>
    578a:	83 7d e0 00          	cmpl   $0x0,-0x20(%rbp)
    578e:	74 22                	je     57b2 <transparent_crc_bytes+0x71>
    5790:	8b 05 8a a8 00 00    	mov    0xa88a(%rip),%eax        # 10020 <crc32_context>
    5796:	f7 d0                	not    %eax
    5798:	89 c2                	mov    %eax,%edx
    579a:	48 8b 45 d8          	mov    -0x28(%rbp),%rax
    579e:	48 89 c6             	mov    %rax,%rsi
    57a1:	48 8d 3d 88 68 00 00 	lea    0x6888(%rip),%rdi        # c030 <_IO_stdin_used+0x30>
    57a8:	b8 00 00 00 00       	mov    $0x0,%eax
    57ad:	e8 ce e8 ff ff       	callq  4080 <printf@plt>
    57b2:	90                   	nop
    57b3:	c9                   	leaveq 
    57b4:	c3                   	retq   

00000000000057b5 <func_1>:
    57b5:	f3 0f 1e fa          	endbr64 
    57b9:	55                   	push   %rbp
    57ba:	48 89 e5             	mov    %rsp,%rbp
    57bd:	48 81 ec b0 00 00 00 	sub    $0xb0,%rsp
    57c4:	64 48 8b 04 25 28 00 	mov    %fs:0x28,%rax
    57cb:	00 00 
    57cd:	48 89 45 f8          	mov    %rax,-0x8(%rbp)
    57d1:	31 c0                	xor    %eax,%eax
    57d3:	c6 85 59 ff ff ff 04 	movb   $0x4,-0xa7(%rbp)
    57da:	48 c7 85 68 ff ff ff 	movq   $0x0,-0x98(%rbp)
    57e1:	00 00 00 00 
    57e5:	66 c7 45 80 75 1a    	movw   $0x1a75,-0x80(%rbp)
    57eb:	66 c7 45 82 75 1a    	movw   $0x1a75,-0x7e(%rbp)
    57f1:	66 c7 45 84 75 1a    	movw   $0x1a75,-0x7c(%rbp)
    57f7:	66 c7 45 86 90 30    	movw   $0x3090,-0x7a(%rbp)
    57fd:	66 c7 45 88 90 30    	movw   $0x3090,-0x78(%rbp)
    5803:	66 c7 45 8a 90 30    	movw   $0x3090,-0x76(%rbp)
    5809:	66 c7 45 8c 75 1a    	movw   $0x1a75,-0x74(%rbp)
    580f:	66 c7 45 8e 75 1a    	movw   $0x1a75,-0x72(%rbp)
    5815:	66 c7 45 90 75 1a    	movw   $0x1a75,-0x70(%rbp)
    581b:	66 c7 45 92 90 30    	movw   $0x3090,-0x6e(%rbp)
    5821:	66 c7 45 94 90 30    	movw   $0x3090,-0x6c(%rbp)
    5827:	66 c7 45 96 90 30    	movw   $0x3090,-0x6a(%rbp)
    582d:	66 c7 45 98 75 1a    	movw   $0x1a75,-0x68(%rbp)
    5833:	66 c7 45 9a 75 1a    	movw   $0x1a75,-0x66(%rbp)
    5839:	66 c7 45 9c 75 1a    	movw   $0x1a75,-0x64(%rbp)
    583f:	66 c7 45 9e 90 30    	movw   $0x3090,-0x62(%rbp)
    5845:	66 c7 45 a0 90 30    	movw   $0x3090,-0x60(%rbp)
    584b:	66 c7 45 a2 90 30    	movw   $0x3090,-0x5e(%rbp)
    5851:	66 c7 45 a4 75 1a    	movw   $0x1a75,-0x5c(%rbp)
    5857:	66 c7 45 a6 75 1a    	movw   $0x1a75,-0x5a(%rbp)
    585d:	66 c7 45 a8 75 1a    	movw   $0x1a75,-0x58(%rbp)
    5863:	66 c7 45 aa 90 30    	movw   $0x3090,-0x56(%rbp)
    5869:	66 c7 45 ac 90 30    	movw   $0x3090,-0x54(%rbp)
    586f:	66 c7 45 ae 90 30    	movw   $0x3090,-0x52(%rbp)
    5875:	66 c7 45 b0 75 1a    	movw   $0x1a75,-0x50(%rbp)
    587b:	66 c7 45 b2 75 1a    	movw   $0x1a75,-0x4e(%rbp)
    5881:	66 c7 45 b4 75 1a    	movw   $0x1a75,-0x4c(%rbp)
    5887:	66 c7 45 b6 90 30    	movw   $0x3090,-0x4a(%rbp)
    588d:	66 c7 45 b8 90 30    	movw   $0x3090,-0x48(%rbp)
    5893:	66 c7 45 ba 90 30    	movw   $0x3090,-0x46(%rbp)
    5899:	66 c7 45 bc 75 1a    	movw   $0x1a75,-0x44(%rbp)
    589f:	66 c7 45 be 75 1a    	movw   $0x1a75,-0x42(%rbp)
    58a5:	66 c7 45 c0 75 1a    	movw   $0x1a75,-0x40(%rbp)
    58ab:	66 c7 45 c2 90 30    	movw   $0x3090,-0x3e(%rbp)
    58b1:	66 c7 45 c4 90 30    	movw   $0x3090,-0x3c(%rbp)
    58b7:	66 c7 45 c6 90 30    	movw   $0x3090,-0x3a(%rbp)
    58bd:	66 c7 45 c8 75 1a    	movw   $0x1a75,-0x38(%rbp)
    58c3:	66 c7 45 ca 75 1a    	movw   $0x1a75,-0x36(%rbp)
    58c9:	66 c7 45 cc 75 1a    	movw   $0x1a75,-0x34(%rbp)
    58cf:	66 c7 45 ce 90 30    	movw   $0x3090,-0x32(%rbp)
    58d5:	66 c7 45 d0 90 30    	movw   $0x3090,-0x30(%rbp)
    58db:	66 c7 45 d2 90 30    	movw   $0x3090,-0x2e(%rbp)
    58e1:	66 c7 45 d4 75 1a    	movw   $0x1a75,-0x2c(%rbp)
    58e7:	66 c7 45 d6 75 1a    	movw   $0x1a75,-0x2a(%rbp)
    58ed:	66 c7 45 d8 75 1a    	movw   $0x1a75,-0x28(%rbp)
    58f3:	66 c7 45 da 90 30    	movw   $0x3090,-0x26(%rbp)
    58f9:	66 c7 45 dc 90 30    	movw   $0x3090,-0x24(%rbp)
    58ff:	66 c7 45 de 90 30    	movw   $0x3090,-0x22(%rbp)
    5905:	66 c7 45 e0 75 1a    	movw   $0x1a75,-0x20(%rbp)
    590b:	66 c7 45 e2 75 1a    	movw   $0x1a75,-0x1e(%rbp)
    5911:	66 c7 45 e4 75 1a    	movw   $0x1a75,-0x1c(%rbp)
    5917:	66 c7 45 e6 90 30    	movw   $0x3090,-0x1a(%rbp)
    591d:	66 c7 45 e8 90 30    	movw   $0x3090,-0x18(%rbp)
    5923:	66 c7 45 ea 90 30    	movw   $0x3090,-0x16(%rbp)
    5929:	c7 85 5c ff ff ff 00 	movl   $0x0,-0xa4(%rbp)
    5930:	00 00 00 
    5933:	c7 85 60 ff ff ff 01 	movl   $0x1,-0xa0(%rbp)
    593a:	00 00 00 
    593d:	c6 85 5a ff ff ff fc 	movb   $0xfc,-0xa6(%rbp)
    5944:	0f be 95 59 ff ff ff 	movsbl -0xa7(%rbp),%edx
    594b:	0f be 85 59 ff ff ff 	movsbl -0xa7(%rbp),%eax
    5952:	89 d6                	mov    %edx,%esi
    5954:	89 c7                	mov    %eax,%edi
    5956:	e8 d6 e8 ff ff       	callq  4231 <safe_mod_func_int8_t_s_s>
    595b:	48 0f be c0          	movsbq %al,%rax
    595f:	48 89 05 0a a7 00 00 	mov    %rax,0xa70a(%rip)        # 10070 <g_5+0x30>
    5966:	c6 85 59 ff ff ff 0c 	movb   $0xc,-0xa7(%rbp)
    596d:	eb 59                	jmp    59c8 <func_1+0x213>
    596f:	c6 85 7a ff ff ff 39 	movb   $0x39,-0x86(%rbp)
    5976:	c6 85 7b ff ff ff a8 	movb   $0xa8,-0x85(%rbp)
    597d:	c6 85 7c ff ff ff 39 	movb   $0x39,-0x84(%rbp)
    5984:	c6 85 7d ff ff ff a8 	movb   $0xa8,-0x83(%rbp)
    598b:	c6 85 7e ff ff ff 39 	movb   $0x39,-0x82(%rbp)
    5992:	c6 85 7f ff ff ff a8 	movb   $0xa8,-0x81(%rbp)
    5999:	48 8d 05 c0 b3 00 00 	lea    0xb3c0(%rip),%rax        # 10d60 <g_1319>
    59a0:	48 89 85 70 ff ff ff 	mov    %rax,-0x90(%rbp)
    59a7:	c7 85 64 ff ff ff fd 	movl   $0x98f2f8fd,-0x9c(%rbp)
    59ae:	f8 f2 98 
    59b1:	c6 85 5b ff ff ff f0 	movb   $0xf0,-0xa5(%rbp)
    59b8:	0f b6 85 59 ff ff ff 	movzbl -0xa7(%rbp),%eax
    59bf:	83 e8 01             	sub    $0x1,%eax
    59c2:	88 85 59 ff ff ff    	mov    %al,-0xa7(%rbp)
    59c8:	80 bd 59 ff ff ff 06 	cmpb   $0x6,-0xa7(%rbp)
    59cf:	7e 9e                	jle    596f <func_1+0x1ba>
    59d1:	48 8b 05 08 c1 00 00 	mov    0xc108(%rip),%rax        # 11ae0 <g_739>
    59d8:	48 8b 00             	mov    (%rax),%rax
    59db:	48 8b 10             	mov    (%rax),%rdx
    59de:	48 8b 05 4b bd 00 00 	mov    0xbd4b(%rip),%rax        # 11730 <g_244>
    59e5:	48 8b 00             	mov    (%rax),%rax
    59e8:	8b 12                	mov    (%rdx),%edx
    59ea:	89 10                	mov    %edx,(%rax)
    59ec:	0f be 85 5a ff ff ff 	movsbl -0xa6(%rbp),%eax
    59f3:	48 8b 4d f8          	mov    -0x8(%rbp),%rcx
    59f7:	64 48 33 0c 25 28 00 	xor    %fs:0x28,%rcx
    59fe:	00 00 
    5a00:	74 05                	je     5a07 <func_1+0x252>
    5a02:	e8 69 e6 ff ff       	callq  4070 <__stack_chk_fail@plt>
    5a07:	c9                   	leaveq 
    5a08:	c3                   	retq   

0000000000005a09 <func_10>:
    5a09:	f3 0f 1e fa          	endbr64 
    5a0d:	55                   	push   %rbp
    5a0e:	48 89 e5             	mov    %rsp,%rbp
    5a11:	41 55                	push   %r13
    5a13:	41 54                	push   %r12
    5a15:	53                   	push   %rbx
    5a16:	48 81 ec 58 03 00 00 	sub    $0x358,%rsp
    5a1d:	89 bd 9c fc ff ff    	mov    %edi,-0x364(%rbp)
    5a23:	64 48 8b 04 25 28 00 	mov    %fs:0x28,%rax
    5a2a:	00 00 
    5a2c:	48 89 45 d8          	mov    %rax,-0x28(%rbp)
    5a30:	31 c0                	xor    %eax,%eax
    5a32:	c7 85 b4 fc ff ff 01 	movl   $0x1,-0x34c(%rbp)
    5a39:	00 00 00 
    5a3c:	66 c7 85 90 fd ff ff 	movw   $0xb75e,-0x270(%rbp)
    5a43:	5e b7 
    5a45:	c6 85 92 fd ff ff f8 	movb   $0xf8,-0x26e(%rbp)
    5a4c:	66 c7 85 93 fd ff ff 	movw   $0xff00,-0x26d(%rbp)
    5a53:	00 ff 
    5a55:	c6 85 95 fd ff ff 09 	movb   $0x9,-0x26b(%rbp)
    5a5c:	66 c7 85 96 fd ff ff 	movw   $0x5e0d,-0x26a(%rbp)
    5a63:	0d 5e 
    5a65:	c6 85 98 fd ff ff f8 	movb   $0xf8,-0x268(%rbp)
    5a6c:	66 c7 85 99 fd ff ff 	movw   $0x9465,-0x267(%rbp)
    5a73:	65 94 
    5a75:	c6 85 9b fd ff ff c9 	movb   $0xc9,-0x265(%rbp)
    5a7c:	66 c7 85 9c fd ff ff 	movw   $0x67fb,-0x264(%rbp)
    5a83:	fb 67 
    5a85:	c6 85 9e fd ff ff 38 	movb   $0x38,-0x262(%rbp)
    5a8c:	66 c7 85 9f fd ff ff 	movw   $0x2600,-0x261(%rbp)
    5a93:	00 26 
    5a95:	c6 85 a1 fd ff ff 00 	movb   $0x0,-0x25f(%rbp)
    5a9c:	66 c7 85 a2 fd ff ff 	movw   $0x3f9,-0x25e(%rbp)
    5aa3:	f9 03 
    5aa5:	c6 85 a4 fd ff ff 00 	movb   $0x0,-0x25c(%rbp)
    5aac:	66 c7 85 a5 fd ff ff 	movw   $0xc9f9,-0x25b(%rbp)
    5ab3:	f9 c9 
    5ab5:	c6 85 a7 fd ff ff f7 	movb   $0xf7,-0x259(%rbp)
    5abc:	66 c7 85 a8 fd ff ff 	movw   $0xdc65,-0x258(%rbp)
    5ac3:	65 dc 
    5ac5:	c6 85 aa fd ff ff 5e 	movb   $0x5e,-0x256(%rbp)
    5acc:	66 c7 85 ab fd ff ff 	movw   $0x78ff,-0x255(%rbp)
    5ad3:	ff 78 
    5ad5:	c6 85 ad fd ff ff 00 	movb   $0x0,-0x253(%rbp)
    5adc:	66 c7 85 ae fd ff ff 	movw   $0x4dfa,-0x252(%rbp)
    5ae3:	fa 4d 
    5ae5:	c6 85 b0 fd ff ff 01 	movb   $0x1,-0x250(%rbp)
    5aec:	66 c7 85 b1 fd ff ff 	movw   $0xcd02,-0x24f(%rbp)
    5af3:	02 cd 
    5af5:	c6 85 b3 fd ff ff ff 	movb   $0xff,-0x24d(%rbp)
    5afc:	66 c7 85 b4 fd ff ff 	movw   $0x3800,-0x24c(%rbp)
    5b03:	00 38 
    5b05:	c6 85 b6 fd ff ff 91 	movb   $0x91,-0x24a(%rbp)
    5b0c:	66 c7 85 b7 fd ff ff 	movw   $0x95,-0x249(%rbp)
    5b13:	95 00 
    5b15:	c6 85 b9 fd ff ff 2f 	movb   $0x2f,-0x247(%rbp)
    5b1c:	66 c7 85 ba fd ff ff 	movw   $0x6704,-0x246(%rbp)
    5b23:	04 67 
    5b25:	c6 85 bc fd ff ff 01 	movb   $0x1,-0x244(%rbp)
    5b2c:	66 c7 85 bd fd ff ff 	movw   $0xfffa,-0x243(%rbp)
    5b33:	fa ff 
    5b35:	c6 85 bf fd ff ff 01 	movb   $0x1,-0x241(%rbp)
    5b3c:	66 c7 85 c0 fd ff ff 	movw   $0xfc00,-0x240(%rbp)
    5b43:	00 fc 
    5b45:	c6 85 c2 fd ff ff fb 	movb   $0xfb,-0x23e(%rbp)
    5b4c:	66 c7 85 c3 fd ff ff 	movw   $0x94,-0x23d(%rbp)
    5b53:	94 00 
    5b55:	c6 85 c5 fd ff ff 01 	movb   $0x1,-0x23b(%rbp)
    5b5c:	66 c7 85 c6 fd ff ff 	movw   $0x9b02,-0x23a(%rbp)
    5b63:	02 9b 
    5b65:	c6 85 c8 fd ff ff 88 	movb   $0x88,-0x238(%rbp)
    5b6c:	66 c7 85 c9 fd ff ff 	movw   $0x1d8,-0x237(%rbp)
    5b73:	d8 01 
    5b75:	c6 85 cb fd ff ff 67 	movb   $0x67,-0x235(%rbp)
    5b7c:	66 c7 85 cc fd ff ff 	movw   $0x1c5,-0x234(%rbp)
    5b83:	c5 01 
    5b85:	c6 85 ce fd ff ff 00 	movb   $0x0,-0x232(%rbp)
    5b8c:	66 c7 85 cf fd ff ff 	movw   $0x18f,-0x231(%rbp)
    5b93:	8f 01 
    5b95:	c6 85 d1 fd ff ff 09 	movb   $0x9,-0x22f(%rbp)
    5b9c:	66 c7 85 d2 fd ff ff 	movw   $0x100,-0x22e(%rbp)
    5ba3:	00 01 
    5ba5:	c6 85 d4 fd ff ff fd 	movb   $0xfd,-0x22c(%rbp)
    5bac:	66 c7 85 d5 fd ff ff 	movw   $0x9bf1,-0x22b(%rbp)
    5bb3:	f1 9b 
    5bb5:	c6 85 d7 fd ff ff ff 	movb   $0xff,-0x229(%rbp)
    5bbc:	66 c7 85 d8 fd ff ff 	movw   $0x0,-0x228(%rbp)
    5bc3:	00 00 
    5bc5:	c6 85 da fd ff ff 78 	movb   $0x78,-0x226(%rbp)
    5bcc:	66 c7 85 db fd ff ff 	movw   $0xfc01,-0x225(%rbp)
    5bd3:	01 fc 
    5bd5:	c6 85 dd fd ff ff f8 	movb   $0xf8,-0x223(%rbp)
    5bdc:	66 c7 85 de fd ff ff 	movw   $0xff00,-0x222(%rbp)
    5be3:	00 ff 
    5be5:	c6 85 e0 fd ff ff 83 	movb   $0x83,-0x220(%rbp)
    5bec:	66 c7 85 e1 fd ff ff 	movw   $0x67f9,-0x21f(%rbp)
    5bf3:	f9 67 
    5bf5:	c6 85 e3 fd ff ff 04 	movb   $0x4,-0x21d(%rbp)
    5bfc:	66 c7 85 e4 fd ff ff 	movw   $0xda,-0x21c(%rbp)
    5c03:	da 00 
    5c05:	c6 85 e6 fd ff ff fa 	movb   $0xfa,-0x21a(%rbp)
    5c0c:	66 c7 85 e7 fd ff ff 	movw   $0x38f9,-0x219(%rbp)
    5c13:	f9 38 
    5c15:	c6 85 e9 fd ff ff 67 	movb   $0x67,-0x217(%rbp)
    5c1c:	66 c7 85 ea fd ff ff 	movw   $0xcddd,-0x216(%rbp)
    5c23:	dd cd 
    5c25:	c6 85 ec fd ff ff f7 	movb   $0xf7,-0x214(%rbp)
    5c2c:	66 c7 85 ed fd ff ff 	movw   $0x4d00,-0x213(%rbp)
    5c33:	00 4d 
    5c35:	c6 85 ef fd ff ff 02 	movb   $0x2,-0x211(%rbp)
    5c3c:	66 c7 85 f0 fd ff ff 	movw   $0x780d,-0x210(%rbp)
    5c43:	0d 78 
    5c45:	c6 85 f2 fd ff ff 00 	movb   $0x0,-0x20e(%rbp)
    5c4c:	66 c7 85 f3 fd ff ff 	movw   $0xdc00,-0x20d(%rbp)
    5c53:	00 dc 
    5c55:	c6 85 f5 fd ff ff fe 	movb   $0xfe,-0x20b(%rbp)
    5c5c:	66 c7 85 f6 fd ff ff 	movw   $0xc902,-0x20a(%rbp)
    5c63:	02 c9 
    5c65:	c6 85 f8 fd ff ff 01 	movb   $0x1,-0x208(%rbp)
    5c6c:	66 c7 85 f9 fd ff ff 	movw   $0x3ff,-0x207(%rbp)
    5c73:	ff 03 
    5c75:	c6 85 fb fd ff ff 91 	movb   $0x91,-0x205(%rbp)
    5c7c:	66 c7 85 fc fd ff ff 	movw   $0x268f,-0x204(%rbp)
    5c83:	8f 26 
    5c85:	c6 85 fe fd ff ff 8f 	movb   $0x8f,-0x202(%rbp)
    5c8c:	66 c7 85 ff fd ff ff 	movw   $0x6719,-0x201(%rbp)
    5c93:	19 67 
    5c95:	c6 85 01 fe ff ff 95 	movb   $0x95,-0x1ff(%rbp)
    5c9c:	66 c7 85 02 fe ff ff 	movw   $0xc901,-0x1fe(%rbp)
    5ca3:	01 c9 
    5ca5:	c6 85 04 fe ff ff 02 	movb   $0x2,-0x1fc(%rbp)
    5cac:	66 c7 85 05 fe ff ff 	movw   $0xd8a5,-0x1fb(%rbp)
    5cb3:	a5 d8 
    5cb5:	c6 85 07 fe ff ff 09 	movb   $0x9,-0x1f9(%rbp)
    5cbc:	66 c7 85 08 fe ff ff 	movw   $0x4083,-0x1f8(%rbp)
    5cc3:	83 40 
    5cc5:	c6 85 0a fe ff ff fd 	movb   $0xfd,-0x1f6(%rbp)
    5ccc:	66 c7 85 0b fe ff ff 	movw   $0xf1a5,-0x1f5(%rbp)
    5cd3:	a5 f1 
    5cd5:	c6 85 0d fe ff ff fd 	movb   $0xfd,-0x1f3(%rbp)
    5cdc:	66 c7 85 0e fe ff ff 	movw   $0x401,-0x1f2(%rbp)
    5ce3:	01 04 
    5ce5:	c6 85 10 fe ff ff 26 	movb   $0x26,-0x1f0(%rbp)
    5cec:	66 c7 85 11 fe ff ff 	movw   $0x188,-0x1ef(%rbp)
    5cf3:	88 01 
    5cf5:	c6 85 13 fe ff ff 94 	movb   $0x94,-0x1ed(%rbp)
    5cfc:	66 c7 85 14 fe ff ff 	movw   $0x15e,-0x1ec(%rbp)
    5d03:	5e 01 
    5d05:	c6 85 16 fe ff ff 09 	movb   $0x9,-0x1ea(%rbp)
    5d0c:	66 c7 85 17 fe ff ff 	movw   $0x198f,-0x1e9(%rbp)
    5d13:	8f 19 
    5d15:	c6 85 19 fe ff ff ff 	movb   $0xff,-0x1e7(%rbp)
    5d1c:	66 c7 85 1a fe ff ff 	movw   $0xf101,-0x1e6(%rbp)
    5d23:	01 f1 
    5d25:	c6 85 1c fe ff ff bd 	movb   $0xbd,-0x1e4(%rbp)
    5d2c:	66 c7 85 1d fe ff ff 	movw   $0x9fb,-0x1e3(%rbp)
    5d33:	fb 09 
    5d35:	c6 85 1f fe ff ff 29 	movb   $0x29,-0x1e1(%rbp)
    5d3c:	66 c7 85 20 fe ff ff 	movw   $0xfac5,-0x1e0(%rbp)
    5d43:	c5 fa 
    5d45:	c6 85 22 fe ff ff 0e 	movb   $0xe,-0x1de(%rbp)
    5d4c:	66 c7 85 23 fe ff ff 	movw   $0x8300,-0x1dd(%rbp)
    5d53:	00 83 
    5d55:	c6 85 25 fe ff ff fb 	movb   $0xfb,-0x1db(%rbp)
    5d5c:	66 c7 85 26 fe ff ff 	movw   $0xf8,-0x1da(%rbp)
    5d63:	f8 00 
    5d65:	c6 85 28 fe ff ff 04 	movb   $0x4,-0x1d8(%rbp)
    5d6c:	66 c7 85 29 fe ff ff 	movw   $0x8afa,-0x1d7(%rbp)
    5d73:	fa 8a 
    5d75:	c6 85 2b fe ff ff b1 	movb   $0xb1,-0x1d5(%rbp)
    5d7c:	66 c7 85 2c fe ff ff 	movw   $0x989,-0x1d4(%rbp)
    5d83:	89 09 
    5d85:	c6 85 2e fe ff ff 26 	movb   $0x26,-0x1d2(%rbp)
    5d8c:	66 c7 85 2f fe ff ff 	movw   $0xfe,-0x1d1(%rbp)
    5d93:	fe 00 
    5d95:	c6 85 31 fe ff ff 83 	movb   $0x83,-0x1cf(%rbp)
    5d9c:	66 c7 85 32 fe ff ff 	movw   $0xe00,-0x1ce(%rbp)
    5da3:	00 0e 
    5da5:	c6 85 34 fe ff ff d8 	movb   $0xd8,-0x1cc(%rbp)
    5dac:	66 c7 85 35 fe ff ff 	movw   $0x204,-0x1cb(%rbp)
    5db3:	04 02 
    5db5:	c6 85 37 fe ff ff 03 	movb   $0x3,-0x1c9(%rbp)
    5dbc:	66 c7 85 38 fe ff ff 	movw   $0xb1,-0x1c8(%rbp)
    5dc3:	b1 00 
    5dc5:	c6 85 3a fe ff ff 01 	movb   $0x1,-0x1c6(%rbp)
    5dcc:	66 c7 85 3b fe ff ff 	movw   $0xfbfa,-0x1c5(%rbp)
    5dd3:	fa fb 
    5dd5:	c6 85 3d fe ff ff 00 	movb   $0x0,-0x1c3(%rbp)
    5ddc:	66 c7 85 3e fe ff ff 	movw   $0x782f,-0x1c2(%rbp)
    5de3:	2f 78 
    5de5:	c6 85 40 fe ff ff 01 	movb   $0x1,-0x1c0(%rbp)
    5dec:	66 c7 85 41 fe ff ff 	movw   $0x945e,-0x1bf(%rbp)
    5df3:	5e 94 
    5df5:	c6 85 43 fe ff ff 01 	movb   $0x1,-0x1bd(%rbp)
    5dfc:	66 c7 85 44 fe ff ff 	movw   $0x31,-0x1bc(%rbp)
    5e03:	31 00 
    5e05:	c6 85 46 fe ff ff 00 	movb   $0x0,-0x1ba(%rbp)
    5e0c:	66 c7 85 47 fe ff ff 	movw   $0x8e95,-0x1b9(%rbp)
    5e13:	95 8e 
    5e15:	c6 85 49 fe ff ff 01 	movb   $0x1,-0x1b7(%rbp)
    5e1c:	66 c7 85 4a fe ff ff 	movw   $0xd849,-0x1b6(%rbp)
    5e23:	49 d8 
    5e25:	c6 85 4c fe ff ff 03 	movb   $0x3,-0x1b4(%rbp)
    5e2c:	66 c7 85 4d fe ff ff 	movw   $0x38c9,-0x1b3(%rbp)
    5e33:	c9 38 
    5e35:	c6 85 4f fe ff ff d8 	movb   $0xd8,-0x1b1(%rbp)
    5e3c:	66 c7 85 50 fe ff ff 	movw   $0x2a5,-0x1b0(%rbp)
    5e43:	a5 02 
    5e45:	c6 85 52 fe ff ff 83 	movb   $0x83,-0x1ae(%rbp)
    5e4c:	66 c7 85 53 fe ff ff 	movw   $0x19ff,-0x1ad(%rbp)
    5e53:	ff 19 
    5e55:	c6 85 55 fe ff ff 26 	movb   $0x26,-0x1ab(%rbp)
    5e5c:	66 c7 85 56 fe ff ff 	movw   $0xb5f7,-0x1aa(%rbp)
    5e63:	f7 b5 
    5e65:	c6 85 58 fe ff ff b1 	movb   $0xb1,-0x1a8(%rbp)
    5e6c:	66 c7 85 59 fe ff ff 	movw   $0x101,-0x1a7(%rbp)
    5e73:	01 01 
    5e75:	c6 85 5b fe ff ff 04 	movb   $0x4,-0x1a5(%rbp)
    5e7c:	66 c7 85 5c fe ff ff 	movw   $0xc52f,-0x1a4(%rbp)
    5e83:	2f c5 
    5e85:	c6 85 5e fe ff ff fb 	movb   $0xfb,-0x1a2(%rbp)
    5e8c:	66 c7 85 5f fe ff ff 	movw   $0x201,-0x1a1(%rbp)
    5e93:	01 02 
    5e95:	c6 85 61 fe ff ff 0e 	movb   $0xe,-0x19f(%rbp)
    5e9c:	66 c7 85 62 fe ff ff 	movw   $0x4094,-0x19e(%rbp)
    5ea3:	94 40 
    5ea5:	c6 85 64 fe ff ff 29 	movb   $0x29,-0x19c(%rbp)
    5eac:	66 c7 85 65 fe ff ff 	movw   $0x100,-0x19b(%rbp)
    5eb3:	00 01 
    5eb5:	c6 85 67 fe ff ff bd 	movb   $0xbd,-0x199(%rbp)
    5ebc:	66 c7 85 68 fe ff ff 	movw   $0x83fa,-0x198(%rbp)
    5ec3:	fa 83 
    5ec5:	c6 85 6a fe ff ff ff 	movb   $0xff,-0x196(%rbp)
    5ecc:	66 c7 85 6b fe ff ff 	movw   $0xfafe,-0x195(%rbp)
    5ed3:	fe fa 
    5ed5:	c6 85 6d fe ff ff 09 	movb   $0x9,-0x193(%rbp)
    5edc:	66 c7 85 6e fe ff ff 	movw   $0x94fa,-0x192(%rbp)
    5ee3:	fa 94 
    5ee5:	c6 85 70 fe ff ff 94 	movb   $0x94,-0x190(%rbp)
    5eec:	66 c7 85 71 fe ff ff 	movw   $0x7005,-0x18f(%rbp)
    5ef3:	05 70 
    5ef5:	c6 85 73 fe ff ff 26 	movb   $0x26,-0x18d(%rbp)
    5efc:	66 c7 85 74 fe ff ff 	movw   $0x1,-0x18c(%rbp)
    5f03:	01 00 
    5f05:	c6 85 76 fe ff ff fd 	movb   $0xfd,-0x18a(%rbp)
    5f0c:	66 c7 85 77 fe ff ff 	movw   $0xefa,-0x189(%rbp)
    5f13:	fa 0e 
    5f15:	c6 85 79 fe ff ff fd 	movb   $0xfd,-0x187(%rbp)
    5f1c:	66 c7 85 7a fe ff ff 	movw   $0xc5,-0x186(%rbp)
    5f23:	c5 00 
    5f25:	c6 85 7c fe ff ff 09 	movb   $0x9,-0x184(%rbp)
    5f2c:	66 c7 85 7d fe ff ff 	movw   $0xeb1,-0x183(%rbp)
    5f33:	b1 0e 
    5f35:	c6 85 7f fe ff ff 02 	movb   $0x2,-0x181(%rbp)
    5f3c:	c6 85 ac fc ff ff 1d 	movb   $0x1d,-0x354(%rbp)
    5f43:	48 8d 05 96 a5 00 00 	lea    0xa596(%rip),%rax        # 104e0 <g_924>
    5f4a:	48 89 85 f0 fc ff ff 	mov    %rax,-0x310(%rbp)
    5f51:	48 8d 05 90 a5 00 00 	lea    0xa590(%rip),%rax        # 104e8 <g_955>
    5f58:	48 89 85 f8 fc ff ff 	mov    %rax,-0x308(%rbp)
    5f5f:	66 c7 85 b0 fc ff ff 	movw   $0xfffe,-0x350(%rbp)
    5f66:	fe ff 
    5f68:	48 c7 85 00 fd ff ff 	movq   $0x0,-0x300(%rbp)
    5f6f:	00 00 00 00 
    5f73:	48 8d 05 5e a5 00 00 	lea    0xa55e(%rip),%rax        # 104d8 <g_840>
    5f7a:	48 89 85 08 fd ff ff 	mov    %rax,-0x2f8(%rbp)
    5f81:	48 8d 05 00 a1 00 00 	lea    0xa100(%rip),%rax        # 10088 <g_34>
    5f88:	48 89 85 10 fd ff ff 	mov    %rax,-0x2f0(%rbp)
    5f8f:	48 c7 85 18 fd ff ff 	movq   $0x0,-0x2e8(%rbp)
    5f96:	00 00 00 00 
    5f9a:	48 8d 05 f3 a1 00 00 	lea    0xa1f3(%rip),%rax        # 10194 <g_346+0x74>
    5fa1:	48 89 85 20 fd ff ff 	mov    %rax,-0x2e0(%rbp)
    5fa8:	48 8d 85 80 fe ff ff 	lea    -0x180(%rbp),%rax
    5faf:	48 8d 15 ca ad 00 00 	lea    0xadca(%rip),%rdx        # 10d80 <g_1339+0x10>
    5fb6:	b9 2a 00 00 00       	mov    $0x2a,%ecx
    5fbb:	48 89 c7             	mov    %rax,%rdi
    5fbe:	48 89 d6             	mov    %rdx,%rsi
    5fc1:	f3 48 a5             	rep movsq %ds:(%rsi),%es:(%rdi)
    5fc4:	48 c7 85 28 fd ff ff 	movq   $0x0,-0x2d8(%rbp)
    5fcb:	00 00 00 00 
    5fcf:	66 c7 85 b2 fc ff ff 	movw   $0x1,-0x34e(%rbp)
    5fd6:	01 00 
    5fd8:	c7 85 b8 fc ff ff f6 	movl   $0xfffffff6,-0x348(%rbp)
    5fdf:	ff ff ff 
    5fe2:	48 8d 05 47 b7 00 00 	lea    0xb747(%rip),%rax        # 11730 <g_244>
    5fe9:	48 89 85 30 fd ff ff 	mov    %rax,-0x2d0(%rbp)
    5ff0:	48 8d 05 f9 ba 00 00 	lea    0xbaf9(%rip),%rax        # 11af0 <g_877>
    5ff7:	48 89 85 e8 fc ff ff 	mov    %rax,-0x318(%rbp)
    5ffe:	48 8d 85 e8 fc ff ff 	lea    -0x318(%rbp),%rax
    6005:	48 89 85 38 fd ff ff 	mov    %rax,-0x2c8(%rbp)
    600c:	c7 85 c0 fc ff ff fe 	movl   $0xfffffffe,-0x340(%rbp)
    6013:	ff ff ff 
    6016:	c7 85 c4 fc ff ff ff 	movl   $0xffffffff,-0x33c(%rbp)
    601d:	ff ff ff 
    6020:	0f b7 85 b0 fc ff ff 	movzwl -0x350(%rbp),%eax
    6027:	0f be d8             	movsbl %al,%ebx
    602a:	44 0f b6 a5 ac fc ff 	movzbl -0x354(%rbp),%r12d
    6031:	ff 
    6032:	48 8b 05 37 a0 00 00 	mov    0xa037(%rip),%rax        # 10070 <g_5+0x30>
    6039:	0f b7 d0             	movzwl %ax,%edx
    603c:	80 bd ac fc ff ff 06 	cmpb   $0x6,-0x354(%rbp)
    6043:	0f 94 c0             	sete   %al
    6046:	0f b6 c0             	movzbl %al,%eax
    6049:	89 d6                	mov    %edx,%esi
    604b:	89 c7                	mov    %eax,%edi
    604d:	e8 24 26 00 00       	callq  8676 <func_29>
    6052:	0f b6 c0             	movzbl %al,%eax
    6055:	39 85 9c fc ff ff    	cmp    %eax,-0x364(%rbp)
    605b:	0f 92 c2             	setb   %dl
    605e:	48 8d 05 8b ba 00 00 	lea    0xba8b(%rip),%rax        # 11af0 <g_877>
    6065:	48 8b 00             	mov    (%rax),%rax
    6068:	88 10                	mov    %dl,(%rax)
    606a:	0f b6 00             	movzbl (%rax),%eax
    606d:	0f be c0             	movsbl %al,%eax
    6070:	be 01 00 00 00       	mov    $0x1,%esi
    6075:	89 c7                	mov    %eax,%edi
    6077:	e8 ee e1 ff ff       	callq  426a <safe_div_func_int8_t_s_s>
    607c:	84 c0                	test   %al,%al
    607e:	75 07                	jne    6087 <func_10+0x67e>
    6080:	ba 01 00 00 00       	mov    $0x1,%edx
    6085:	eb 05                	jmp    608c <func_10+0x683>
    6087:	ba 00 00 00 00       	mov    $0x0,%edx
    608c:	48 8b 85 f0 fc ff ff 	mov    -0x310(%rbp),%rax
    6093:	48 89 10             	mov    %rdx,(%rax)
    6096:	8b 05 7c a0 00 00    	mov    0xa07c(%rip),%eax        # 10118 <g_310>
    609c:	33 85 9c fc ff ff    	xor    -0x364(%rbp),%eax
    60a2:	89 c2                	mov    %eax,%edx
    60a4:	0f b6 85 7f fe ff ff 	movzbl -0x181(%rbp),%eax
    60ab:	0f be c0             	movsbl %al,%eax
    60ae:	39 c2                	cmp    %eax,%edx
    60b0:	0f 94 c0             	sete   %al
    60b3:	0f b6 c0             	movzbl %al,%eax
    60b6:	48 8b 15 8b 9f 00 00 	mov    0x9f8b(%rip),%rdx        # 10048 <g_5+0x8>
    60bd:	48 89 c6             	mov    %rax,%rsi
    60c0:	48 89 d7             	mov    %rdx,%rdi
    60c3:	e8 83 ef ff ff       	callq  504b <safe_sub_func_uint64_t_u_u>
    60c8:	48 89 c2             	mov    %rax,%rdx
    60cb:	48 8b 85 f8 fc ff ff 	mov    -0x308(%rbp),%rax
    60d2:	0f b6 00             	movzbl (%rax),%eax
    60d5:	31 c2                	xor    %eax,%edx
    60d7:	48 8b 85 f8 fc ff ff 	mov    -0x308(%rbp),%rax
    60de:	88 10                	mov    %dl,(%rax)
    60e0:	48 8b 85 f8 fc ff ff 	mov    -0x308(%rbp),%rax
    60e7:	0f b6 00             	movzbl (%rax),%eax
    60ea:	0f b6 d0             	movzbl %al,%edx
    60ed:	0f b7 85 b0 fc ff ff 	movzwl -0x350(%rbp),%eax
    60f4:	39 c2                	cmp    %eax,%edx
    60f6:	7f 07                	jg     60ff <func_10+0x6f6>
    60f8:	b8 01 00 00 00       	mov    $0x1,%eax
    60fd:	eb 05                	jmp    6104 <func_10+0x6fb>
    60ff:	b8 00 00 00 00       	mov    $0x0,%eax
    6104:	89 c2                	mov    %eax,%edx
    6106:	8b 85 b4 fc ff ff    	mov    -0x34c(%rbp),%eax
    610c:	39 c2                	cmp    %eax,%edx
    610e:	0f 93 c0             	setae  %al
    6111:	0f b6 c8             	movzbl %al,%ecx
    6114:	8b 85 9c fc ff ff    	mov    -0x364(%rbp),%eax
    611a:	44 89 e2             	mov    %r12d,%edx
    611d:	89 ce                	mov    %ecx,%esi
    611f:	89 c7                	mov    %eax,%edi
    6121:	e8 06 0c 00 00       	callq  6d2c <func_17>
    6126:	0f be c0             	movsbl %al,%eax
    6129:	89 de                	mov    %ebx,%esi
    612b:	89 c7                	mov    %eax,%edi
    612d:	e8 e0 e0 ff ff       	callq  4212 <safe_mul_func_int8_t_s_s>
    6132:	48 0f be c0          	movsbq %al,%rax
    6136:	48 89 c7             	mov    %rax,%rdi
    6139:	e8 59 06 00 00       	callq  6797 <func_13>
    613e:	83 e0 03             	and    $0x3,%eax
    6141:	85 c0                	test   %eax,%eax
    6143:	75 09                	jne    614e <func_10+0x745>
    6145:	83 bd 9c fc ff ff 00 	cmpl   $0x0,-0x364(%rbp)
    614c:	74 07                	je     6155 <func_10+0x74c>
    614e:	ba 01 00 00 00       	mov    $0x1,%edx
    6153:	eb 05                	jmp    615a <func_10+0x751>
    6155:	ba 00 00 00 00       	mov    $0x0,%edx
    615a:	48 8b 85 08 fd ff ff 	mov    -0x2f8(%rbp),%rax
    6161:	8b 00                	mov    (%rax),%eax
    6163:	31 c2                	xor    %eax,%edx
    6165:	48 8b 85 08 fd ff ff 	mov    -0x2f8(%rbp),%rax
    616c:	89 10                	mov    %edx,(%rax)
    616e:	83 85 b8 fc ff ff 01 	addl   $0x1,-0x348(%rbp)
    6175:	66 c7 85 b0 fc ff ff 	movw   $0x0,-0x350(%rbp)
    617c:	00 00 
    617e:	e9 c4 05 00 00       	jmpq   6747 <func_10+0xd3e>
    6183:	48 8d 05 4e b9 00 00 	lea    0xb94e(%rip),%rax        # 11ad8 <g_740>
    618a:	48 89 85 40 fd ff ff 	mov    %rax,-0x2c0(%rbp)
    6191:	48 8d 85 b4 fc ff ff 	lea    -0x34c(%rbp),%rax
    6198:	48 89 85 48 fd ff ff 	mov    %rax,-0x2b8(%rbp)
    619f:	c7 85 c8 fc ff ff fe 	movl   $0xb73831fe,-0x338(%rbp)
    61a6:	31 38 b7 
    61a9:	48 8d 05 c8 c2 00 00 	lea    0xc2c8(%rip),%rax        # 12478 <g_1126>
    61b0:	48 89 85 50 fd ff ff 	mov    %rax,-0x2b0(%rbp)
    61b7:	48 8b 85 40 fd ff ff 	mov    -0x2c0(%rbp),%rax
    61be:	48 3b 85 30 fd ff ff 	cmp    -0x2d0(%rbp),%rax
    61c5:	0f 94 c0             	sete   %al
    61c8:	0f b6 d0             	movzbl %al,%edx
    61cb:	48 8b 85 48 fd ff ff 	mov    -0x2b8(%rbp),%rax
    61d2:	89 10                	mov    %edx,(%rax)
    61d4:	48 8b 85 48 fd ff ff 	mov    -0x2b8(%rbp),%rax
    61db:	8b 00                	mov    (%rax),%eax
    61dd:	41 89 c4             	mov    %eax,%r12d
    61e0:	8b 85 9c fc ff ff    	mov    -0x364(%rbp),%eax
    61e6:	0f b7 d8             	movzwl %ax,%ebx
    61e9:	8b 85 9c fc ff ff    	mov    -0x364(%rbp),%eax
    61ef:	0f b6 c0             	movzbl %al,%eax
    61f2:	89 c6                	mov    %eax,%esi
    61f4:	bf 00 00 00 00       	mov    $0x0,%edi
    61f9:	e8 dd e9 ff ff       	callq  4bdb <safe_div_func_uint8_t_u_u>
    61fe:	0f b6 c0             	movzbl %al,%eax
    6201:	89 de                	mov    %ebx,%esi
    6203:	89 c7                	mov    %eax,%edi
    6205:	e8 33 eb ff ff       	callq  4d3d <safe_mul_func_uint16_t_u_u>
    620a:	48 8b 85 08 fd ff ff 	mov    -0x2f8(%rbp),%rax
    6211:	8b 00                	mov    (%rax),%eax
    6213:	85 c0                	test   %eax,%eax
    6215:	74 09                	je     6220 <func_10+0x817>
    6217:	83 bd 9c fc ff ff 00 	cmpl   $0x0,-0x364(%rbp)
    621e:	74 07                	je     6227 <func_10+0x81e>
    6220:	b8 01 00 00 00       	mov    $0x1,%eax
    6225:	eb 05                	jmp    622c <func_10+0x823>
    6227:	b8 00 00 00 00       	mov    $0x0,%eax
    622c:	48 98                	cltq   
    622e:	48 c7 c6 ff ff ff ff 	mov    $0xffffffffffffffff,%rsi
    6235:	48 89 c7             	mov    %rax,%rdi
    6238:	e8 43 ee ff ff       	callq  5080 <safe_mod_func_uint64_t_u_u>
    623d:	48 85 c0             	test   %rax,%rax
    6240:	74 10                	je     6252 <func_10+0x849>
    6242:	83 bd 9c fc ff ff 00 	cmpl   $0x0,-0x364(%rbp)
    6249:	74 07                	je     6252 <func_10+0x849>
    624b:	b8 01 00 00 00       	mov    $0x1,%eax
    6250:	eb 05                	jmp    6257 <func_10+0x84e>
    6252:	b8 00 00 00 00       	mov    $0x0,%eax
    6257:	89 c2                	mov    %eax,%edx
    6259:	48 8b 05 30 b8 00 00 	mov    0xb830(%rip),%rax        # 11a90 <g_559>
    6260:	44 31 e2             	xor    %r12d,%edx
    6263:	66 89 10             	mov    %dx,(%rax)
    6266:	ba ac 87 e1 eb       	mov    $0xebe187ac,%edx
    626b:	48 8b 85 20 fd ff ff 	mov    -0x2e0(%rbp),%rax
    6272:	8b 00                	mov    (%rax),%eax
    6274:	21 c2                	and    %eax,%edx
    6276:	48 8b 85 20 fd ff ff 	mov    -0x2e0(%rbp),%rax
    627d:	89 10                	mov    %edx,(%rax)
    627f:	c7 85 b8 fc ff ff 00 	movl   $0x0,-0x348(%rbp)
    6286:	00 00 00 
    6289:	e9 9b 04 00 00       	jmpq   6729 <func_10+0xd20>
    628e:	c7 85 cc fc ff ff 6b 	movl   $0x71733a6b,-0x334(%rbp)
    6295:	3a 73 71 
    6298:	c7 85 d0 fc ff ff c7 	movl   $0x5c37b5c7,-0x330(%rbp)
    629f:	b5 37 5c 
    62a2:	c7 85 d4 fc ff ff 58 	movl   $0xf073d58,-0x32c(%rbp)
    62a9:	3d 07 0f 
    62ac:	48 b8 f4 08 07 a6 18 	movabs $0x903c7618a60708f4,%rax
    62b3:	76 3c 90 
    62b6:	48 89 85 58 fd ff ff 	mov    %rax,-0x2a8(%rbp)
    62bd:	c7 85 bc fc ff ff 00 	movl   $0x0,-0x344(%rbp)
    62c4:	00 00 00 
    62c7:	eb 1a                	jmp    62e3 <func_10+0x8da>
    62c9:	8b 85 bc fc ff ff    	mov    -0x344(%rbp),%eax
    62cf:	48 98                	cltq   
    62d1:	c7 84 85 70 fd ff ff 	movl   $0xfffffff9,-0x290(%rbp,%rax,4)
    62d8:	f9 ff ff ff 
    62dc:	83 85 bc fc ff ff 01 	addl   $0x1,-0x344(%rbp)
    62e3:	83 bd bc fc ff ff 07 	cmpl   $0x7,-0x344(%rbp)
    62ea:	7e dd                	jle    62c9 <func_10+0x8c0>
    62ec:	c7 05 e2 a1 00 00 00 	movl   $0x0,0xa1e2(%rip)        # 104d8 <g_840>
    62f3:	00 00 00 
    62f6:	90                   	nop
    62f7:	8b 05 db a1 00 00    	mov    0xa1db(%rip),%eax        # 104d8 <g_840>
    62fd:	83 f8 09             	cmp    $0x9,%eax
    6300:	0f 8f 53 01 00 00    	jg     6459 <func_10+0xa50>
    6306:	c6 85 af fc ff ff 03 	movb   $0x3,-0x351(%rbp)
    630d:	c7 85 e4 fc ff ff 36 	movl   $0xe677d136,-0x31c(%rbp)
    6314:	d1 77 e6 
    6317:	48 8b 85 30 fd ff ff 	mov    -0x2d0(%rbp),%rax
    631e:	48 8b 10             	mov    (%rax),%rdx
    6321:	48 8b 05 b8 b7 00 00 	mov    0xb7b8(%rip),%rax        # 11ae0 <g_739>
    6328:	48 8b 00             	mov    (%rax),%rax
    632b:	48 8b 12             	mov    (%rdx),%rdx
    632e:	48 89 10             	mov    %rdx,(%rax)
    6331:	48 8b 05 a0 b7 00 00 	mov    0xb7a0(%rip),%rax        # 11ad8 <g_740>
    6338:	48 8b 00             	mov    (%rax),%rax
    633b:	8b 18                	mov    (%rax),%ebx
    633d:	8b 05 49 a9 00 00    	mov    0xa949(%rip),%eax        # 10c8c <g_1270+0x32c>
    6343:	44 0f b6 e0          	movzbl %al,%r12d
    6347:	8b 85 78 fd ff ff    	mov    -0x288(%rbp),%eax
    634d:	4c 63 e8             	movslq %eax,%r13
    6350:	8b 95 9c fc ff ff    	mov    -0x364(%rbp),%edx
    6356:	48 8b 85 f0 fc ff ff 	mov    -0x310(%rbp),%rax
    635d:	48 89 10             	mov    %rdx,(%rax)
    6360:	48 8b 85 f0 fc ff ff 	mov    -0x310(%rbp),%rax
    6367:	48 8b 00             	mov    (%rax),%rax
    636a:	c7 85 cc fc ff ff 01 	movl   $0x1,-0x334(%rbp)
    6371:	00 00 00 
    6374:	48 89 c6             	mov    %rax,%rsi
    6377:	bf 01 00 00 00       	mov    $0x1,%edi
    637c:	e8 ad ec ff ff       	callq  502e <safe_add_func_uint64_t_u_u>
    6381:	48 8b 05 40 bc 00 00 	mov    0xbc40(%rip),%rax        # 11fc8 <g_1209>
    6388:	48 8b 00             	mov    (%rax),%rax
    638b:	48 8b 08             	mov    (%rax),%rcx
    638e:	8b 95 9c fc ff ff    	mov    -0x364(%rbp),%edx
    6394:	48 8b 05 2d bc 00 00 	mov    0xbc2d(%rip),%rax        # 11fc8 <g_1209>
    639b:	48 8b 00             	mov    (%rax),%rax
    639e:	48 21 ca             	and    %rcx,%rdx
    63a1:	48 89 10             	mov    %rdx,(%rax)
    63a4:	b8 00 00 00 00       	mov    $0x0,%eax
    63a9:	09 85 e4 fc ff ff    	or     %eax,-0x31c(%rbp)
    63af:	8b 85 e4 fc ff ff    	mov    -0x31c(%rbp),%eax
    63b5:	89 c6                	mov    %eax,%esi
    63b7:	bf 01 00 00 00       	mov    $0x1,%edi
    63bc:	e8 74 df ff ff       	callq  4335 <safe_rshift_func_int8_t_s_s>
    63c1:	48 8b 05 c8 b6 00 00 	mov    0xb6c8(%rip),%rax        # 11a90 <g_559>
    63c8:	0f b7 00             	movzwl (%rax),%eax
    63cb:	0f b7 c0             	movzwl %ax,%eax
    63ce:	be ff ff 00 00       	mov    $0xffff,%esi
    63d3:	89 c7                	mov    %eax,%edi
    63d5:	e8 82 e9 ff ff       	callq  4d5c <safe_mod_func_uint16_t_u_u>
    63da:	0f b7 c0             	movzwl %ax,%eax
    63dd:	4c 89 ee             	mov    %r13,%rsi
    63e0:	48 89 c7             	mov    %rax,%rdi
    63e3:	e8 cc e5 ff ff       	callq  49b4 <safe_mod_func_int64_t_s_s>
    63e8:	b8 01 00 00 00       	mov    $0x1,%eax
    63ed:	09 85 d0 fc ff ff    	or     %eax,-0x330(%rbp)
    63f3:	8b 85 d0 fc ff ff    	mov    -0x330(%rbp),%eax
    63f9:	48 63 d0             	movslq %eax,%rdx
    63fc:	80 bd af fc ff ff 00 	cmpb   $0x0,-0x351(%rbp)
    6403:	0f 94 c0             	sete   %al
    6406:	0f b6 c0             	movzbl %al,%eax
    6409:	48 89 d6             	mov    %rdx,%rsi
    640c:	48 89 c7             	mov    %rax,%rdi
    640f:	e8 e3 e5 ff ff       	callq  49f7 <safe_div_func_int64_t_s_s>
    6414:	0f b6 c0             	movzbl %al,%eax
    6417:	44 89 e6             	mov    %r12d,%esi
    641a:	89 c7                	mov    %eax,%edi
    641c:	e8 ba e7 ff ff       	callq  4bdb <safe_div_func_uint8_t_u_u>
    6421:	84 c0                	test   %al,%al
    6423:	75 0d                	jne    6432 <func_10+0xa29>
    6425:	48 8b 05 d4 b7 00 00 	mov    0xb7d4(%rip),%rax        # 11c00 <g_1100>
    642c:	0f b7 00             	movzwl (%rax),%eax
    642f:	66 85 c0             	test   %ax,%ax
    6432:	8b 85 9c fc ff ff    	mov    -0x364(%rbp),%eax
    6438:	89 de                	mov    %ebx,%esi
    643a:	89 c7                	mov    %eax,%edi
    643c:	e8 c4 e1 ff ff       	callq  4605 <safe_sub_func_int32_t_s_s>
    6441:	c1 e8 1f             	shr    $0x1f,%eax
    6444:	0f b6 c0             	movzbl %al,%eax
    6447:	21 85 d4 fc ff ff    	and    %eax,-0x32c(%rbp)
    644d:	48 8b 85 58 fd ff ff 	mov    -0x2a8(%rbp),%rax
    6454:	e9 1c 03 00 00       	jmpq   6775 <func_10+0xd6c>
    6459:	66 c7 05 ae bf 00 00 	movw   $0x1,0xbfae(%rip)        # 12410 <g_232>
    6460:	01 00 
    6462:	e9 a7 02 00 00       	jmpq   670e <func_10+0xd05>
    6467:	c6 85 ad fc ff ff ff 	movb   $0xff,-0x353(%rbp)
    646e:	c6 85 ae fc ff ff fb 	movb   $0xfb,-0x352(%rbp)
    6475:	48 8d 05 5c a0 00 00 	lea    0xa05c(%rip),%rax        # 104d8 <g_840>
    647c:	48 89 85 60 fd ff ff 	mov    %rax,-0x2a0(%rbp)
    6483:	48 8b 85 10 fd ff ff 	mov    -0x2f0(%rbp),%rax
    648a:	8b 18                	mov    (%rax),%ebx
    648c:	8b 85 9c fc ff ff    	mov    -0x364(%rbp),%eax
    6492:	0f b6 c0             	movzbl %al,%eax
    6495:	89 c7                	mov    %eax,%edi
    6497:	e8 a9 e6 ff ff       	callq  4b45 <safe_unary_minus_func_uint8_t_u>
    649c:	0f b6 c0             	movzbl %al,%eax
    649f:	f7 d0                	not    %eax
    64a1:	89 c6                	mov    %eax,%esi
    64a3:	bf 3e 9c 00 00       	mov    $0x9c3e,%edi
    64a8:	e8 cd e9 ff ff       	callq  4e7a <safe_rshift_func_uint16_t_u_u>
    64ad:	0f b7 c0             	movzwl %ax,%eax
    64b0:	0d b0 9c 8b de       	or     $0xde8b9cb0,%eax
    64b5:	89 c2                	mov    %eax,%edx
    64b7:	0f be 85 ad fc ff ff 	movsbl -0x353(%rbp),%eax
    64be:	31 d0                	xor    %edx,%eax
    64c0:	89 85 c8 fc ff ff    	mov    %eax,-0x338(%rbp)
    64c6:	83 bd 9c fc ff ff 01 	cmpl   $0x1,-0x364(%rbp)
    64cd:	0f 97 c0             	seta   %al
    64d0:	0f b6 c0             	movzbl %al,%eax
    64d3:	be 04 00 00 00       	mov    $0x4,%esi
    64d8:	89 c7                	mov    %eax,%edi
    64da:	e8 56 de ff ff       	callq  4335 <safe_rshift_func_int8_t_s_s>
    64df:	0f b6 c0             	movzbl %al,%eax
    64e2:	89 de                	mov    %ebx,%esi
    64e4:	89 c7                	mov    %eax,%edi
    64e6:	e8 a2 e7 ff ff       	callq  4c8d <safe_rshift_func_uint8_t_u_s>
    64eb:	0f b6 d0             	movzbl %al,%edx
    64ee:	48 8b 85 10 fd ff ff 	mov    -0x2f0(%rbp),%rax
    64f5:	89 10                	mov    %edx,(%rax)
    64f7:	48 8b 85 10 fd ff ff 	mov    -0x2f0(%rbp),%rax
    64fe:	8b 00                	mov    (%rax),%eax
    6500:	85 c0                	test   %eax,%eax
    6502:	74 50                	je     6554 <func_10+0xb4b>
    6504:	80 bd ad fc ff ff 00 	cmpb   $0x0,-0x353(%rbp)
    650b:	0f 85 10 02 00 00    	jne    6721 <func_10+0xd18>
    6511:	8b 85 b8 fc ff ff    	mov    -0x348(%rbp),%eax
    6517:	48 8d 0c c5 00 00 00 	lea    0x0(,%rax,8),%rcx
    651e:	00 
    651f:	48 8d 15 da b5 00 00 	lea    0xb5da(%rip),%rdx        # 11b00 <g_875>
    6526:	48 8b 85 38 fd ff ff 	mov    -0x2c8(%rbp),%rax
    652d:	48 89 04 11          	mov    %rax,(%rcx,%rdx,1)
    6531:	80 bd ae fc ff ff 00 	cmpb   $0x0,-0x352(%rbp)
    6538:	0f 84 c8 01 00 00    	je     6706 <func_10+0xcfd>
    653e:	0f b7 05 cb be 00 00 	movzwl 0xbecb(%rip),%eax        # 12410 <g_232>
    6545:	83 c0 01             	add    $0x1,%eax
    6548:	66 89 05 c1 be 00 00 	mov    %ax,0xbec1(%rip)        # 12410 <g_232>
    654f:	e9 ba 01 00 00       	jmpq   670e <func_10+0xd05>
    6554:	c7 85 d8 fc ff ff 97 	movl   $0x2475cf97,-0x328(%rbp)
    655b:	cf 75 24 
    655e:	c7 85 dc fc ff ff d0 	movl   $0x71fe88d0,-0x324(%rbp)
    6565:	88 fe 71 
    6568:	c7 85 e0 fc ff ff fa 	movl   $0xfffffffa,-0x320(%rbp)
    656f:	ff ff ff 
    6572:	48 8d 05 9f b7 00 00 	lea    0xb79f(%rip),%rax        # 11d18 <g_1125>
    6579:	48 89 85 68 fd ff ff 	mov    %rax,-0x298(%rbp)
    6580:	48 c7 05 d5 be 00 00 	movq   $0x0,0xbed5(%rip)        # 12460 <g_663>
    6587:	00 00 00 00 
    658b:	eb 21                	jmp    65ae <func_10+0xba5>
    658d:	48 8b 05 94 b1 00 00 	mov    0xb194(%rip),%rax        # 11728 <g_245>
    6594:	8b 95 9c fc ff ff    	mov    -0x364(%rbp),%edx
    659a:	89 10                	mov    %edx,(%rax)
    659c:	48 8b 05 bd be 00 00 	mov    0xbebd(%rip),%rax        # 12460 <g_663>
    65a3:	48 83 c0 01          	add    $0x1,%rax
    65a7:	48 89 05 b2 be 00 00 	mov    %rax,0xbeb2(%rip)        # 12460 <g_663>
    65ae:	48 8b 05 ab be 00 00 	mov    0xbeab(%rip),%rax        # 12460 <g_663>
    65b5:	48 83 f8 11          	cmp    $0x11,%rax
    65b9:	7f d2                	jg     658d <func_10+0xb84>
    65bb:	48 8b 85 40 fd ff ff 	mov    -0x2c0(%rbp),%rax
    65c2:	48 8b 00             	mov    (%rax),%rax
    65c5:	48 8b 95 60 fd ff ff 	mov    -0x2a0(%rbp),%rdx
    65cc:	48 89 10             	mov    %rdx,(%rax)
    65cf:	83 ad c0 fc ff ff 01 	subl   $0x1,-0x340(%rbp)
    65d6:	48 8b 05 5b b1 00 00 	mov    0xb15b(%rip),%rax        # 11738 <g_243>
    65dd:	48 8b 00             	mov    (%rax),%rax
    65e0:	48 8b 00             	mov    (%rax),%rax
    65e3:	8b 00                	mov    (%rax),%eax
    65e5:	89 c1                	mov    %eax,%ecx
    65e7:	48 8b 85 60 fd ff ff 	mov    -0x2a0(%rbp),%rax
    65ee:	8b 00                	mov    (%rax),%eax
    65f0:	89 c2                	mov    %eax,%edx
    65f2:	48 8b 85 48 fd ff ff 	mov    -0x2b8(%rbp),%rax
    65f9:	89 10                	mov    %edx,(%rax)
    65fb:	48 8b 85 48 fd ff ff 	mov    -0x2b8(%rbp),%rax
    6602:	8b 00                	mov    (%rax),%eax
    6604:	39 c1                	cmp    %eax,%ecx
    6606:	0f 94 c0             	sete   %al
    6609:	0f b6 d0             	movzbl %al,%edx
    660c:	48 8b 85 40 fd ff ff 	mov    -0x2c0(%rbp),%rax
    6613:	48 8b 00             	mov    (%rax),%rax
    6616:	48 8b 00             	mov    (%rax),%rax
    6619:	8b 00                	mov    (%rax),%eax
    661b:	98                   	cwtl   
    661c:	89 d6                	mov    %edx,%esi
    661e:	89 c7                	mov    %eax,%edi
    6620:	e8 bc de ff ff       	callq  44e1 <safe_lshift_func_int16_t_s_u>
    6625:	66 85 c0             	test   %ax,%ax
    6628:	75 22                	jne    664c <func_10+0xc43>
    662a:	48 8b 85 48 fd ff ff 	mov    -0x2b8(%rbp),%rax
    6631:	8b 00                	mov    (%rax),%eax
    6633:	8d 50 01             	lea    0x1(%rax),%edx
    6636:	48 8b 85 48 fd ff ff 	mov    -0x2b8(%rbp),%rax
    663d:	89 10                	mov    %edx,(%rax)
    663f:	48 8b 85 48 fd ff ff 	mov    -0x2b8(%rbp),%rax
    6646:	8b 00                	mov    (%rax),%eax
    6648:	85 c0                	test   %eax,%eax
    664a:	74 07                	je     6653 <func_10+0xc4a>
    664c:	b8 01 00 00 00       	mov    $0x1,%eax
    6651:	eb 05                	jmp    6658 <func_10+0xc4f>
    6653:	b8 00 00 00 00       	mov    $0x0,%eax
    6658:	21 85 d8 fc ff ff    	and    %eax,-0x328(%rbp)
    665e:	8b 85 c4 fc ff ff    	mov    -0x33c(%rbp),%eax
    6664:	0f be d8             	movsbl %al,%ebx
    6667:	8b 85 9c fc ff ff    	mov    -0x364(%rbp),%eax
    666d:	98                   	cwtl   
    666e:	be bd 9b ff ff       	mov    $0xffff9bbd,%esi
    6673:	89 c7                	mov    %eax,%edi
    6675:	e8 59 dd ff ff       	callq  43d3 <safe_sub_func_int16_t_s_s>
    667a:	0f b6 c0             	movzbl %al,%eax
    667d:	be 18 00 00 00       	mov    $0x18,%esi
    6682:	89 c7                	mov    %eax,%edi
    6684:	e8 52 e5 ff ff       	callq  4bdb <safe_div_func_uint8_t_u_u>
    6689:	0f b6 d0             	movzbl %al,%edx
    668c:	48 8b 05 0d b4 00 00 	mov    0xb40d(%rip),%rax        # 11aa0 <g_560>
    6693:	48 8b 00             	mov    (%rax),%rax
    6696:	48 8b 00             	mov    (%rax),%rax
    6699:	0f b7 00             	movzwl (%rax),%eax
    669c:	66 39 c2             	cmp    %ax,%dx
    669f:	0f 92 c0             	setb   %al
    66a2:	0f b6 c0             	movzbl %al,%eax
    66a5:	89 de                	mov    %ebx,%esi
    66a7:	89 c7                	mov    %eax,%edi
    66a9:	e8 83 db ff ff       	callq  4231 <safe_mod_func_int8_t_s_s>
    66ae:	48 8b 85 68 fd ff ff 	mov    -0x298(%rbp),%rax
    66b5:	48 8d 15 bc bd 00 00 	lea    0xbdbc(%rip),%rdx        # 12478 <g_1126>
    66bc:	48 89 10             	mov    %rdx,(%rax)
    66bf:	48 8b 85 68 fd ff ff 	mov    -0x298(%rbp),%rax
    66c6:	48 8b 00             	mov    (%rax),%rax
    66c9:	48 39 85 50 fd ff ff 	cmp    %rax,-0x2b0(%rbp)
    66d0:	0f 94 c2             	sete   %dl
    66d3:	48 8b 85 38 fd ff ff 	mov    -0x2c8(%rbp),%rax
    66da:	48 8b 00             	mov    (%rax),%rax
    66dd:	48 8b 00             	mov    (%rax),%rax
    66e0:	88 10                	mov    %dl,(%rax)
    66e2:	be 09 00 00 00       	mov    $0x9,%esi
    66e7:	bf 00 00 00 00       	mov    $0x0,%edi
    66ec:	e8 f0 dd ff ff       	callq  44e1 <safe_lshift_func_int16_t_s_u>
    66f1:	48 8b 85 30 fd ff ff 	mov    -0x2d0(%rbp),%rax
    66f8:	48 8b 00             	mov    (%rax),%rax
    66fb:	48 8b 00             	mov    (%rax),%rax
    66fe:	8b 95 9c fc ff ff    	mov    -0x364(%rbp),%edx
    6704:	89 10                	mov    %edx,(%rax)
    6706:	8b 85 9c fc ff ff    	mov    -0x364(%rbp),%eax
    670c:	eb 67                	jmp    6775 <func_10+0xd6c>
    670e:	0f b7 05 fb bc 00 00 	movzwl 0xbcfb(%rip),%eax        # 12410 <g_232>
    6715:	66 83 f8 09          	cmp    $0x9,%ax
    6719:	0f 86 48 fd ff ff    	jbe    6467 <func_10+0xa5e>
    671f:	eb 01                	jmp    6722 <func_10+0xd19>
    6721:	90                   	nop
    6722:	83 85 b8 fc ff ff 01 	addl   $0x1,-0x348(%rbp)
    6729:	83 bd b8 fc ff ff 09 	cmpl   $0x9,-0x348(%rbp)
    6730:	0f 86 58 fb ff ff    	jbe    628e <func_10+0x885>
    6736:	0f b7 85 b0 fc ff ff 	movzwl -0x350(%rbp),%eax
    673d:	83 c0 01             	add    $0x1,%eax
    6740:	66 89 85 b0 fc ff ff 	mov    %ax,-0x350(%rbp)
    6747:	66 83 bd b0 fc ff ff 	cmpw   $0x30,-0x350(%rbp)
    674e:	30 
    674f:	0f 84 2e fa ff ff    	je     6183 <func_10+0x77a>
    6755:	48 8b 85 30 fd ff ff 	mov    -0x2d0(%rbp),%rax
    675c:	48 8b 10             	mov    (%rax),%rdx
    675f:	48 8b 05 72 b3 00 00 	mov    0xb372(%rip),%rax        # 11ad8 <g_740>
    6766:	48 8b 12             	mov    (%rdx),%rdx
    6769:	48 89 10             	mov    %rdx,(%rax)
    676c:	48 8b 85 20 fd ff ff 	mov    -0x2e0(%rbp),%rax
    6773:	8b 00                	mov    (%rax),%eax
    6775:	48 8b 4d d8          	mov    -0x28(%rbp),%rcx
    6779:	64 48 33 0c 25 28 00 	xor    %fs:0x28,%rcx
    6780:	00 00 
    6782:	74 05                	je     6789 <func_10+0xd80>
    6784:	e8 e7 d8 ff ff       	callq  4070 <__stack_chk_fail@plt>
    6789:	48 81 c4 58 03 00 00 	add    $0x358,%rsp
    6790:	5b                   	pop    %rbx
    6791:	41 5c                	pop    %r12
    6793:	41 5d                	pop    %r13
    6795:	5d                   	pop    %rbp
    6796:	c3                   	retq   

0000000000006797 <func_13>:
    6797:	f3 0f 1e fa          	endbr64 
    679b:	55                   	push   %rbp
    679c:	48 89 e5             	mov    %rsp,%rbp
    679f:	48 81 ec 70 0c 00 00 	sub    $0xc70,%rsp
    67a6:	48 89 bd 98 f3 ff ff 	mov    %rdi,-0xc68(%rbp)
    67ad:	64 48 8b 04 25 28 00 	mov    %fs:0x28,%rax
    67b4:	00 00 
    67b6:	48 89 45 f8          	mov    %rax,-0x8(%rbp)
    67ba:	31 c0                	xor    %eax,%eax
    67bc:	48 8d 05 1d 9c 00 00 	lea    0x9c1d(%rip),%rax        # 103e0 <g_346+0x2c0>
    67c3:	48 89 85 d0 f3 ff ff 	mov    %rax,-0xc30(%rbp)
    67ca:	c7 85 b0 f3 ff ff 99 	movl   $0x1d637e99,-0xc50(%rbp)
    67d1:	7e 63 1d 
    67d4:	48 8d 85 d0 f4 ff ff 	lea    -0xb30(%rbp),%rax
    67db:	48 8d 15 9e 58 00 00 	lea    0x589e(%rip),%rdx        # c080 <g_1024+0x4>
    67e2:	b9 70 00 00 00       	mov    $0x70,%ecx
    67e7:	48 89 c7             	mov    %rax,%rdi
    67ea:	48 89 d6             	mov    %rdx,%rsi
    67ed:	f3 48 a5             	rep movsq %ds:(%rsi),%es:(%rdi)
    67f0:	48 89 f2             	mov    %rsi,%rdx
    67f3:	48 89 f8             	mov    %rdi,%rax
    67f6:	8b 0a                	mov    (%rdx),%ecx
    67f8:	89 08                	mov    %ecx,(%rax)
    67fa:	48 8d 40 04          	lea    0x4(%rax),%rax
    67fe:	48 8d 52 04          	lea    0x4(%rdx),%rdx
    6802:	48 8d 05 b7 b7 00 00 	lea    0xb7b7(%rip),%rax        # 11fc0 <g_1210>
    6809:	48 89 85 d8 f3 ff ff 	mov    %rax,-0xc28(%rbp)
    6810:	48 8d 05 29 a1 00 00 	lea    0xa129(%rip),%rax        # 10940 <g_1220>
    6817:	48 89 85 e0 f3 ff ff 	mov    %rax,-0xc20(%rbp)
    681e:	66 c7 05 a9 98 00 00 	movw   $0x0,0x98a9(%rip)        # 100d0 <g_216>
    6825:	00 00 
    6827:	e9 24 04 00 00       	jmpq   6c50 <func_13+0x4b9>
    682c:	66 c7 85 ae f3 ff ff 	movw   $0xfffc,-0xc52(%rbp)
    6833:	fc ff 
    6835:	c7 85 60 f4 ff ff 48 	movl   $0xeb7f9448,-0xba0(%rbp)
    683c:	94 7f eb 
    683f:	c7 85 64 f4 ff ff 48 	movl   $0xeb7f9448,-0xb9c(%rbp)
    6846:	94 7f eb 
    6849:	c7 85 68 f4 ff ff 48 	movl   $0xeb7f9448,-0xb98(%rbp)
    6850:	94 7f eb 
    6853:	c7 85 6c f4 ff ff 48 	movl   $0xeb7f9448,-0xb94(%rbp)
    685a:	94 7f eb 
    685d:	c7 85 70 f4 ff ff 48 	movl   $0xeb7f9448,-0xb90(%rbp)
    6864:	94 7f eb 
    6867:	c7 85 74 f4 ff ff 48 	movl   $0xeb7f9448,-0xb8c(%rbp)
    686e:	94 7f eb 
    6871:	c7 85 78 f4 ff ff 48 	movl   $0xeb7f9448,-0xb88(%rbp)
    6878:	94 7f eb 
    687b:	c7 85 7c f4 ff ff 48 	movl   $0xeb7f9448,-0xb84(%rbp)
    6882:	94 7f eb 
    6885:	48 8d 05 54 9b 00 00 	lea    0x9b54(%rip),%rax        # 103e0 <g_346+0x2c0>
    688c:	48 89 85 e8 f3 ff ff 	mov    %rax,-0xc18(%rbp)
    6893:	48 8d 05 ee 97 00 00 	lea    0x97ee(%rip),%rax        # 10088 <g_34>
    689a:	48 89 85 f0 f3 ff ff 	mov    %rax,-0xc10(%rbp)
    68a1:	48 8d 05 e0 97 00 00 	lea    0x97e0(%rip),%rax        # 10088 <g_34>
    68a8:	48 89 85 f8 f3 ff ff 	mov    %rax,-0xc08(%rbp)
    68af:	48 8d 85 b0 f3 ff ff 	lea    -0xc50(%rbp),%rax
    68b6:	48 89 85 00 f4 ff ff 	mov    %rax,-0xc00(%rbp)
    68bd:	48 8d 05 c4 97 00 00 	lea    0x97c4(%rip),%rax        # 10088 <g_34>
    68c4:	48 89 85 08 f4 ff ff 	mov    %rax,-0xbf8(%rbp)
    68cb:	48 8d 05 9e 9b 00 00 	lea    0x9b9e(%rip),%rax        # 10470 <g_346+0x350>
    68d2:	48 89 85 10 f4 ff ff 	mov    %rax,-0xbf0(%rbp)
    68d9:	48 8d 05 6c 99 00 00 	lea    0x996c(%rip),%rax        # 1024c <g_346+0x12c>
    68e0:	48 89 85 18 f4 ff ff 	mov    %rax,-0xbe8(%rbp)
    68e7:	48 8d 85 60 f4 ff ff 	lea    -0xba0(%rbp),%rax
    68ee:	48 83 c0 1c          	add    $0x1c,%rax
    68f2:	48 89 85 20 f4 ff ff 	mov    %rax,-0xbe0(%rbp)
    68f9:	48 c7 85 c0 f3 ff ff 	movq   $0x1,-0xc40(%rbp)
    6900:	01 00 00 00 
    6904:	48 8d 05 dd 9b 00 00 	lea    0x9bdd(%rip),%rax        # 104e8 <g_955>
    690b:	48 89 85 28 f4 ff ff 	mov    %rax,-0xbd8(%rbp)
    6912:	48 8d 05 47 bb 00 00 	lea    0xbb47(%rip),%rax        # 12460 <g_663>
    6919:	48 89 85 c8 f3 ff ff 	mov    %rax,-0xc38(%rbp)
    6920:	48 8d 85 c8 f3 ff ff 	lea    -0xc38(%rbp),%rax
    6927:	48 89 85 60 f8 ff ff 	mov    %rax,-0x7a0(%rbp)
    692e:	48 8d 85 c8 f3 ff ff 	lea    -0xc38(%rbp),%rax
    6935:	48 89 85 68 f8 ff ff 	mov    %rax,-0x798(%rbp)
    693c:	48 8d 85 c8 f3 ff ff 	lea    -0xc38(%rbp),%rax
    6943:	48 89 85 70 f8 ff ff 	mov    %rax,-0x790(%rbp)
    694a:	48 8d 85 c8 f3 ff ff 	lea    -0xc38(%rbp),%rax
    6951:	48 89 85 78 f8 ff ff 	mov    %rax,-0x788(%rbp)
    6958:	48 8d 85 c8 f3 ff ff 	lea    -0xc38(%rbp),%rax
    695f:	48 89 85 80 f8 ff ff 	mov    %rax,-0x780(%rbp)
    6966:	48 8d 85 c8 f3 ff ff 	lea    -0xc38(%rbp),%rax
    696d:	48 89 85 88 f8 ff ff 	mov    %rax,-0x778(%rbp)
    6974:	48 8d 85 c8 f3 ff ff 	lea    -0xc38(%rbp),%rax
    697b:	48 89 85 90 f8 ff ff 	mov    %rax,-0x770(%rbp)
    6982:	48 8d 85 c8 f3 ff ff 	lea    -0xc38(%rbp),%rax
    6989:	48 89 85 98 f8 ff ff 	mov    %rax,-0x768(%rbp)
    6990:	48 8d 85 c8 f3 ff ff 	lea    -0xc38(%rbp),%rax
    6997:	48 89 85 a0 f8 ff ff 	mov    %rax,-0x760(%rbp)
    699e:	48 8d 85 c8 f3 ff ff 	lea    -0xc38(%rbp),%rax
    69a5:	48 89 85 a8 f8 ff ff 	mov    %rax,-0x758(%rbp)
    69ac:	48 8d 85 c8 f3 ff ff 	lea    -0xc38(%rbp),%rax
    69b3:	48 89 85 b0 f8 ff ff 	mov    %rax,-0x750(%rbp)
    69ba:	48 8d 85 c8 f3 ff ff 	lea    -0xc38(%rbp),%rax
    69c1:	48 89 85 b8 f8 ff ff 	mov    %rax,-0x748(%rbp)
    69c8:	48 8d 85 c8 f3 ff ff 	lea    -0xc38(%rbp),%rax
    69cf:	48 89 85 c0 f8 ff ff 	mov    %rax,-0x740(%rbp)
    69d6:	48 8d 85 c8 f3 ff ff 	lea    -0xc38(%rbp),%rax
    69dd:	48 89 85 c8 f8 ff ff 	mov    %rax,-0x738(%rbp)
    69e4:	48 8d 85 c8 f3 ff ff 	lea    -0xc38(%rbp),%rax
    69eb:	48 89 85 d0 f8 ff ff 	mov    %rax,-0x730(%rbp)
    69f2:	48 8d 85 c8 f3 ff ff 	lea    -0xc38(%rbp),%rax
    69f9:	48 89 85 d8 f8 ff ff 	mov    %rax,-0x728(%rbp)
    6a00:	48 8d 85 c8 f3 ff ff 	lea    -0xc38(%rbp),%rax
    6a07:	48 89 85 e0 f8 ff ff 	mov    %rax,-0x720(%rbp)
    6a0e:	48 8d 85 c8 f3 ff ff 	lea    -0xc38(%rbp),%rax
    6a15:	48 89 85 e8 f8 ff ff 	mov    %rax,-0x718(%rbp)
    6a1c:	48 8d 85 c8 f3 ff ff 	lea    -0xc38(%rbp),%rax
    6a23:	48 89 85 f0 f8 ff ff 	mov    %rax,-0x710(%rbp)
    6a2a:	48 8d 85 c8 f3 ff ff 	lea    -0xc38(%rbp),%rax
    6a31:	48 89 85 f8 f8 ff ff 	mov    %rax,-0x708(%rbp)
    6a38:	48 8d 85 c8 f3 ff ff 	lea    -0xc38(%rbp),%rax
    6a3f:	48 89 85 00 f9 ff ff 	mov    %rax,-0x700(%rbp)
    6a46:	48 8d 85 c8 f3 ff ff 	lea    -0xc38(%rbp),%rax
    6a4d:	48 89 85 08 f9 ff ff 	mov    %rax,-0x6f8(%rbp)
    6a54:	48 8d 85 c8 f3 ff ff 	lea    -0xc38(%rbp),%rax
    6a5b:	48 89 85 10 f9 ff ff 	mov    %rax,-0x6f0(%rbp)
    6a62:	48 8d 85 c8 f3 ff ff 	lea    -0xc38(%rbp),%rax
    6a69:	48 89 85 18 f9 ff ff 	mov    %rax,-0x6e8(%rbp)
    6a70:	48 8d 85 c8 f3 ff ff 	lea    -0xc38(%rbp),%rax
    6a77:	48 89 85 20 f9 ff ff 	mov    %rax,-0x6e0(%rbp)
    6a7e:	48 8d 85 c8 f3 ff ff 	lea    -0xc38(%rbp),%rax
    6a85:	48 89 85 28 f9 ff ff 	mov    %rax,-0x6d8(%rbp)
    6a8c:	48 8d 85 c8 f3 ff ff 	lea    -0xc38(%rbp),%rax
    6a93:	48 89 85 30 f9 ff ff 	mov    %rax,-0x6d0(%rbp)
    6a9a:	48 8d 85 c8 f3 ff ff 	lea    -0xc38(%rbp),%rax
    6aa1:	48 89 85 38 f9 ff ff 	mov    %rax,-0x6c8(%rbp)
    6aa8:	48 8d 85 c8 f3 ff ff 	lea    -0xc38(%rbp),%rax
    6aaf:	48 89 85 40 f9 ff ff 	mov    %rax,-0x6c0(%rbp)
    6ab6:	48 8d 85 c8 f3 ff ff 	lea    -0xc38(%rbp),%rax
    6abd:	48 89 85 48 f9 ff ff 	mov    %rax,-0x6b8(%rbp)
    6ac4:	48 c7 85 30 f4 ff ff 	movq   $0x0,-0xbd0(%rbp)
    6acb:	00 00 00 00 
    6acf:	48 8d 05 3a b9 00 00 	lea    0xb93a(%rip),%rax        # 12410 <g_232>
    6ad6:	48 89 85 38 f4 ff ff 	mov    %rax,-0xbc8(%rbp)
    6add:	48 c7 85 40 f4 ff ff 	movq   $0x0,-0xbc0(%rbp)
    6ae4:	00 00 00 00 
    6ae8:	c7 85 b8 f3 ff ff 97 	movl   $0x3cd9c697,-0xc48(%rbp)
    6aef:	c6 d9 3c 
    6af2:	c7 85 b4 f3 ff ff 00 	movl   $0x0,-0xc4c(%rbp)
    6af9:	00 00 00 
    6afc:	eb 25                	jmp    6b23 <func_13+0x38c>
    6afe:	8b 85 b4 f3 ff ff    	mov    -0xc4c(%rbp),%eax
    6b04:	48 98                	cltq   
    6b06:	48 8d 95 d0 f4 ff ff 	lea    -0xb30(%rbp),%rdx
    6b0d:	48 81 c2 44 02 00 00 	add    $0x244,%rdx
    6b14:	48 89 94 c5 80 f4 ff 	mov    %rdx,-0xb80(%rbp,%rax,8)
    6b1b:	ff 
    6b1c:	83 85 b4 f3 ff ff 01 	addl   $0x1,-0xc4c(%rbp)
    6b23:	83 bd b4 f3 ff ff 08 	cmpl   $0x8,-0xc4c(%rbp)
    6b2a:	7e d2                	jle    6afe <func_13+0x367>
    6b2c:	48 8b 05 b5 af 00 00 	mov    0xafb5(%rip),%rax        # 11ae8 <g_738>
    6b33:	48 8b 00             	mov    (%rax),%rax
    6b36:	48 8b 00             	mov    (%rax),%rax
    6b39:	48 8b 95 d0 f3 ff ff 	mov    -0xc30(%rbp),%rdx
    6b40:	48 89 10             	mov    %rdx,(%rax)
    6b43:	48 8b 85 c0 f3 ff ff 	mov    -0xc40(%rbp),%rax
    6b4a:	48 83 c0 01          	add    $0x1,%rax
    6b4e:	48 89 85 c0 f3 ff ff 	mov    %rax,-0xc40(%rbp)
    6b55:	c7 05 35 95 00 00 00 	movl   $0x0,0x9535(%rip)        # 10094 <g_113>
    6b5c:	00 00 00 
    6b5f:	eb 43                	jmp    6ba4 <func_13+0x40d>
    6b61:	48 8d 05 29 95 00 00 	lea    0x9529(%rip),%rax        # 10091 <g_110>
    6b68:	48 89 85 48 f4 ff ff 	mov    %rax,-0xbb8(%rbp)
    6b6f:	48 8d 05 4e 99 00 00 	lea    0x994e(%rip),%rax        # 104c4 <g_710>
    6b76:	48 89 85 50 f4 ff ff 	mov    %rax,-0xbb0(%rbp)
    6b7d:	48 8d 85 c0 f3 ff ff 	lea    -0xc40(%rbp),%rax
    6b84:	48 89 85 58 f4 ff ff 	mov    %rax,-0xba8(%rbp)
    6b8b:	c7 85 bc f3 ff ff 39 	movl   $0x79c83d39,-0xc44(%rbp)
    6b92:	3d c8 79 
    6b95:	8b 05 f9 94 00 00    	mov    0x94f9(%rip),%eax        # 10094 <g_113>
    6b9b:	83 e8 01             	sub    $0x1,%eax
    6b9e:	89 05 f0 94 00 00    	mov    %eax,0x94f0(%rip)        # 10094 <g_113>
    6ba4:	8b 05 ea 94 00 00    	mov    0x94ea(%rip),%eax        # 10094 <g_113>
    6baa:	85 c0                	test   %eax,%eax
    6bac:	79 b3                	jns    6b61 <func_13+0x3ca>
    6bae:	48 8b 05 d3 ae 00 00 	mov    0xaed3(%rip),%rax        # 11a88 <g_411>
    6bb5:	48 8b 00             	mov    (%rax),%rax
    6bb8:	8b 00                	mov    (%rax),%eax
    6bba:	48 83 bd d8 f3 ff ff 	cmpq   $0x0,-0xc28(%rbp)
    6bc1:	00 
    6bc2:	48 8b 85 40 f4 ff ff 	mov    -0xbc0(%rbp),%rax
    6bc9:	48 3b 85 e0 f3 ff ff 	cmp    -0xc20(%rbp),%rax
    6bd0:	48 8b 85 38 f4 ff ff 	mov    -0xbc8(%rbp),%rax
    6bd7:	0f b7 00             	movzwl (%rax),%eax
    6bda:	8d 50 01             	lea    0x1(%rax),%edx
    6bdd:	48 8b 85 38 f4 ff ff 	mov    -0xbc8(%rbp),%rax
    6be4:	66 89 10             	mov    %dx,(%rax)
    6be7:	48 8b 85 38 f4 ff ff 	mov    -0xbc8(%rbp),%rax
    6bee:	0f b7 00             	movzwl (%rax),%eax
    6bf1:	0f b7 c0             	movzwl %ax,%eax
    6bf4:	48 39 85 98 f3 ff ff 	cmp    %rax,-0xc68(%rbp)
    6bfb:	7c 07                	jl     6c04 <func_13+0x46d>
    6bfd:	ba e9 c2 a1 3d       	mov    $0x3da1c2e9,%edx
    6c02:	eb 05                	jmp    6c09 <func_13+0x472>
    6c04:	ba e8 c2 a1 3d       	mov    $0x3da1c2e8,%edx
    6c09:	8b 85 b8 f3 ff ff    	mov    -0xc48(%rbp),%eax
    6c0f:	89 c6                	mov    %eax,%esi
    6c11:	89 d7                	mov    %edx,%edi
    6c13:	e8 a0 e2 ff ff       	callq  4eb8 <safe_add_func_uint32_t_u_u>
    6c18:	48 81 bd 98 f3 ff ff 	cmpq   $0xbaa1,-0xc68(%rbp)
    6c1f:	a1 ba 00 00 
    6c23:	0f 9f c2             	setg   %dl
    6c26:	48 8b 05 03 ab 00 00 	mov    0xab03(%rip),%rax        # 11730 <g_244>
    6c2d:	48 8b 00             	mov    (%rax),%rax
    6c30:	0f b6 d2             	movzbl %dl,%edx
    6c33:	89 10                	mov    %edx,(%rax)
    6c35:	0f b7 05 94 94 00 00 	movzwl 0x9494(%rip),%eax        # 100d0 <g_216>
    6c3c:	98                   	cwtl   
    6c3d:	be 06 00 00 00       	mov    $0x6,%esi
    6c42:	89 c7                	mov    %eax,%edi
    6c44:	e8 6a d7 ff ff       	callq  43b3 <safe_add_func_int16_t_s_s>
    6c49:	66 89 05 80 94 00 00 	mov    %ax,0x9480(%rip)        # 100d0 <g_216>
    6c50:	0f b7 05 79 94 00 00 	movzwl 0x9479(%rip),%eax        # 100d0 <g_216>
    6c57:	66 83 f8 02          	cmp    $0x2,%ax
    6c5b:	0f 86 cb fb ff ff    	jbe    682c <func_13+0x95>
    6c61:	66 c7 05 46 94 00 00 	movw   $0x0,0x9446(%rip)        # 100b0 <g_165>
    6c68:	00 00 
    6c6a:	eb 64                	jmp    6cd0 <func_13+0x539>
    6c6c:	48 8d 85 60 f8 ff ff 	lea    -0x7a0(%rbp),%rax
    6c73:	48 8d 15 a6 57 00 00 	lea    0x57a6(%rip),%rdx        # c420 <g_1024+0x3a4>
    6c7a:	b9 f3 00 00 00       	mov    $0xf3,%ecx
    6c7f:	48 89 c7             	mov    %rax,%rdi
    6c82:	48 89 d6             	mov    %rdx,%rsi
    6c85:	f3 48 a5             	rep movsq %ds:(%rsi),%es:(%rdi)
    6c88:	48 8b 15 21 ae 00 00 	mov    0xae21(%rip),%rdx        # 11ab0 <g_586>
    6c8f:	48 8b 05 42 b3 00 00 	mov    0xb342(%rip),%rax        # 11fd8 <g_1224>
    6c96:	48 8b 12             	mov    (%rdx),%rdx
    6c99:	48 89 10             	mov    %rdx,(%rax)
    6c9c:	48 83 bd 98 f3 ff ff 	cmpq   $0x0,-0xc68(%rbp)
    6ca3:	00 
    6ca4:	75 18                	jne    6cbe <func_13+0x527>
    6ca6:	48 8b 95 a0 fe ff ff 	mov    -0x160(%rbp),%rdx
    6cad:	48 8b 05 04 ae 00 00 	mov    0xae04(%rip),%rax        # 11ab8 <g_602>
    6cb4:	48 8b 00             	mov    (%rax),%rax
    6cb7:	48 8b 00             	mov    (%rax),%rax
    6cba:	89 10                	mov    %edx,(%rax)
    6cbc:	eb 01                	jmp    6cbf <func_13+0x528>
    6cbe:	90                   	nop
    6cbf:	0f b7 05 ea 93 00 00 	movzwl 0x93ea(%rip),%eax        # 100b0 <g_165>
    6cc6:	83 e8 01             	sub    $0x1,%eax
    6cc9:	66 89 05 e0 93 00 00 	mov    %ax,0x93e0(%rip)        # 100b0 <g_165>
    6cd0:	0f b7 05 d9 93 00 00 	movzwl 0x93d9(%rip),%eax        # 100b0 <g_165>
    6cd7:	66 83 f8 f3          	cmp    $0xfff3,%ax
    6cdb:	7c 8f                	jl     6c6c <func_13+0x4d5>
    6cdd:	48 8b 05 f4 ad 00 00 	mov    0xadf4(%rip),%rax        # 11ad8 <g_740>
    6ce4:	48 8d 95 d0 f4 ff ff 	lea    -0xb30(%rbp),%rdx
    6ceb:	48 81 c2 64 03 00 00 	add    $0x364,%rdx
    6cf2:	48 89 10             	mov    %rdx,(%rax)
    6cf5:	48 8b 05 dc ad 00 00 	mov    0xaddc(%rip),%rax        # 11ad8 <g_740>
    6cfc:	48 8d 95 d0 f4 ff ff 	lea    -0xb30(%rbp),%rdx
    6d03:	48 81 c2 d4 02 00 00 	add    $0x2d4,%rdx
    6d0a:	48 89 10             	mov    %rdx,(%rax)
    6d0d:	48 8b 85 d0 f3 ff ff 	mov    -0xc30(%rbp),%rax
    6d14:	8b 00                	mov    (%rax),%eax
    6d16:	48 8b 4d f8          	mov    -0x8(%rbp),%rcx
    6d1a:	64 48 33 0c 25 28 00 	xor    %fs:0x28,%rcx
    6d21:	00 00 
    6d23:	74 05                	je     6d2a <func_13+0x593>
    6d25:	e8 46 d3 ff ff       	callq  4070 <__stack_chk_fail@plt>
    6d2a:	c9                   	leaveq 
    6d2b:	c3                   	retq   

0000000000006d2c <func_17>:
    6d2c:	f3 0f 1e fa          	endbr64 
    6d30:	55                   	push   %rbp
    6d31:	48 89 e5             	mov    %rsp,%rbp
    6d34:	41 56                	push   %r14
    6d36:	41 55                	push   %r13
    6d38:	41 54                	push   %r12
    6d3a:	53                   	push   %rbx
    6d3b:	48 81 ec 10 06 00 00 	sub    $0x610,%rsp
    6d42:	89 bd dc f9 ff ff    	mov    %edi,-0x624(%rbp)
    6d48:	89 f0                	mov    %esi,%eax
    6d4a:	89 95 d4 f9 ff ff    	mov    %edx,-0x62c(%rbp)
    6d50:	66 89 85 d8 f9 ff ff 	mov    %ax,-0x628(%rbp)
    6d57:	64 48 8b 04 25 28 00 	mov    %fs:0x28,%rax
    6d5e:	00 00 
    6d60:	48 89 45 d8          	mov    %rax,-0x28(%rbp)
    6d64:	31 c0                	xor    %eax,%eax
    6d66:	66 c7 85 f4 f9 ff ff 	movw   $0x7684,-0x60c(%rbp)
    6d6d:	84 76 
    6d6f:	48 8d 05 1b 93 00 00 	lea    0x931b(%rip),%rax        # 10091 <g_110>
    6d76:	48 89 85 60 fa ff ff 	mov    %rax,-0x5a0(%rbp)
    6d7d:	c7 85 24 fa ff ff 03 	movl   $0x3,-0x5dc(%rbp)
    6d84:	00 00 00 
    6d87:	c7 85 70 fc ff ff 6a 	movl   $0x2cb11b6a,-0x390(%rbp)
    6d8e:	1b b1 2c 
    6d91:	c7 85 74 fc ff ff 6d 	movl   $0xf5c3bd6d,-0x38c(%rbp)
    6d98:	bd c3 f5 
    6d9b:	c7 85 78 fc ff ff 6a 	movl   $0x2cb11b6a,-0x388(%rbp)
    6da2:	1b b1 2c 
    6da5:	c7 85 7c fc ff ff c9 	movl   $0x628254c9,-0x384(%rbp)
    6dac:	54 82 62 
    6daf:	c7 85 80 fc ff ff 00 	movl   $0x0,-0x380(%rbp)
    6db6:	00 00 00 
    6db9:	c7 85 84 fc ff ff 6d 	movl   $0xf5c3bd6d,-0x37c(%rbp)
    6dc0:	bd c3 f5 
    6dc3:	c7 85 88 fc ff ff f9 	movl   $0x185adf9,-0x378(%rbp)
    6dca:	ad 85 01 
    6dcd:	c7 85 8c fc ff ff 42 	movl   $0x73811b42,-0x374(%rbp)
    6dd4:	1b 81 73 
    6dd7:	c7 85 90 fc ff ff 6d 	movl   $0xf5c3bd6d,-0x370(%rbp)
    6dde:	bd c3 f5 
    6de1:	c7 85 94 fc ff ff ba 	movl   $0x49f2f9ba,-0x36c(%rbp)
    6de8:	f9 f2 49 
    6deb:	c7 85 98 fc ff ff ba 	movl   $0x49f2f9ba,-0x368(%rbp)
    6df2:	f9 f2 49 
    6df5:	c7 85 9c fc ff ff 6d 	movl   $0xf5c3bd6d,-0x364(%rbp)
    6dfc:	bd c3 f5 
    6dff:	c7 85 a0 fc ff ff 6a 	movl   $0x2cb11b6a,-0x360(%rbp)
    6e06:	1b b1 2c 
    6e09:	c7 85 a4 fc ff ff 42 	movl   $0x73811b42,-0x35c(%rbp)
    6e10:	1b 81 73 
    6e13:	c7 85 a8 fc ff ff ba 	movl   $0x49f2f9ba,-0x358(%rbp)
    6e1a:	f9 f2 49 
    6e1d:	c7 85 ac fc ff ff c9 	movl   $0x628254c9,-0x354(%rbp)
    6e24:	54 82 62 
    6e27:	c7 85 b0 fc ff ff 6d 	movl   $0xf5c3bd6d,-0x350(%rbp)
    6e2e:	bd c3 f5 
    6e31:	c7 85 b4 fc ff ff 00 	movl   $0x0,-0x34c(%rbp)
    6e38:	00 00 00 
    6e3b:	c7 85 b8 fc ff ff f9 	movl   $0x185adf9,-0x348(%rbp)
    6e42:	ad 85 01 
    6e45:	c7 85 bc fc ff ff 00 	movl   $0x0,-0x344(%rbp)
    6e4c:	00 00 00 
    6e4f:	c7 85 c0 fc ff ff 00 	movl   $0x0,-0x340(%rbp)
    6e56:	00 00 00 
    6e59:	c7 85 c4 fc ff ff ba 	movl   $0x49f2f9ba,-0x33c(%rbp)
    6e60:	f9 f2 49 
    6e63:	c7 85 c8 fc ff ff 6a 	movl   $0x2cb11b6a,-0x338(%rbp)
    6e6a:	1b b1 2c 
    6e6d:	c7 85 cc fc ff ff 00 	movl   $0x0,-0x334(%rbp)
    6e74:	00 00 00 
    6e77:	c7 85 d0 fc ff ff 6a 	movl   $0x2cb11b6a,-0x330(%rbp)
    6e7e:	1b b1 2c 
    6e81:	c7 85 d4 fc ff ff 00 	movl   $0x0,-0x32c(%rbp)
    6e88:	00 00 00 
    6e8b:	c7 85 d8 fc ff ff c9 	movl   $0x628254c9,-0x328(%rbp)
    6e92:	54 82 62 
    6e95:	c7 85 dc fc ff ff c9 	movl   $0x628254c9,-0x324(%rbp)
    6e9c:	54 82 62 
    6e9f:	c7 85 e0 fc ff ff 42 	movl   $0x73811b42,-0x320(%rbp)
    6ea6:	1b 81 73 
    6ea9:	c7 85 e4 fc ff ff 42 	movl   $0x73811b42,-0x31c(%rbp)
    6eb0:	1b 81 73 
    6eb3:	c7 85 e8 fc ff ff f9 	movl   $0x185adf9,-0x318(%rbp)
    6eba:	ad 85 01 
    6ebd:	c7 85 ec fc ff ff 6d 	movl   $0xf5c3bd6d,-0x314(%rbp)
    6ec4:	bd c3 f5 
    6ec7:	c7 85 f0 fc ff ff 42 	movl   $0x73811b42,-0x310(%rbp)
    6ece:	1b 81 73 
    6ed1:	c7 85 f4 fc ff ff ba 	movl   $0x49f2f9ba,-0x30c(%rbp)
    6ed8:	f9 f2 49 
    6edb:	c7 85 f8 fc ff ff c9 	movl   $0x628254c9,-0x308(%rbp)
    6ee2:	54 82 62 
    6ee5:	c7 85 fc fc ff ff 42 	movl   $0x73811b42,-0x304(%rbp)
    6eec:	1b 81 73 
    6eef:	48 8d 05 d4 95 00 00 	lea    0x95d4(%rip),%rax        # 104ca <g_790+0x2>
    6ef6:	48 89 85 68 fa ff ff 	mov    %rax,-0x598(%rbp)
    6efd:	48 8d 85 68 fa ff ff 	lea    -0x598(%rbp),%rax
    6f04:	48 89 85 a8 fa ff ff 	mov    %rax,-0x558(%rbp)
    6f0b:	c7 85 fc f9 ff ff a8 	movl   $0xfa173ba8,-0x604(%rbp)
    6f12:	3b 17 fa 
    6f15:	c7 85 00 fa ff ff 06 	movl   $0x6,-0x600(%rbp)
    6f1c:	00 00 00 
    6f1f:	c7 85 90 fb ff ff 01 	movl   $0x1,-0x470(%rbp)
    6f26:	00 00 00 
    6f29:	c7 85 94 fb ff ff 76 	movl   $0xb324a776,-0x46c(%rbp)
    6f30:	a7 24 b3 
    6f33:	c7 85 98 fb ff ff 01 	movl   $0x1,-0x468(%rbp)
    6f3a:	00 00 00 
    6f3d:	c7 85 9c fb ff ff 76 	movl   $0xb324a776,-0x464(%rbp)
    6f44:	a7 24 b3 
    6f47:	c7 85 28 fa ff ff b8 	movl   $0xeddf63b8,-0x5d8(%rbp)
    6f4e:	63 df ed 
    6f51:	66 c7 85 f6 f9 ff ff 	movw   $0xa576,-0x60a(%rbp)
    6f58:	76 a5 
    6f5a:	48 c7 85 b0 fa ff ff 	movq   $0x0,-0x550(%rbp)
    6f61:	00 00 00 00 
    6f65:	c6 85 ed f9 ff ff 0e 	movb   $0xe,-0x613(%rbp)
    6f6c:	66 c7 85 f2 f9 ff ff 	movw   $0x0,-0x60e(%rbp)
    6f73:	00 00 
    6f75:	48 c7 85 b8 fa ff ff 	movq   $0x0,-0x548(%rbp)
    6f7c:	00 00 00 00 
    6f80:	c6 85 ee f9 ff ff 05 	movb   $0x5,-0x612(%rbp)
    6f87:	48 c7 05 ce b4 00 00 	movq   $0x0,0xb4ce(%rip)        # 12460 <g_663>
    6f8e:	00 00 00 00 
    6f92:	eb 1c                	jmp    6fb0 <func_17+0x284>
    6f94:	66 83 bd d8 f9 ff ff 	cmpw   $0x0,-0x628(%rbp)
    6f9b:	00 
    6f9c:	75 21                	jne    6fbf <func_17+0x293>
    6f9e:	48 8b 05 bb b4 00 00 	mov    0xb4bb(%rip),%rax        # 12460 <g_663>
    6fa5:	48 83 e8 01          	sub    $0x1,%rax
    6fa9:	48 89 05 b0 b4 00 00 	mov    %rax,0xb4b0(%rip)        # 12460 <g_663>
    6fb0:	48 8b 05 a9 b4 00 00 	mov    0xb4a9(%rip),%rax        # 12460 <g_663>
    6fb7:	48 83 f8 eb          	cmp    $0xffffffffffffffeb,%rax
    6fbb:	7d d7                	jge    6f94 <func_17+0x268>
    6fbd:	eb 01                	jmp    6fc0 <func_17+0x294>
    6fbf:	90                   	nop
    6fc0:	48 8b 05 69 a7 00 00 	mov    0xa769(%rip),%rax        # 11730 <g_244>
    6fc7:	48 8b 00             	mov    (%rax),%rax
    6fca:	8b 08                	mov    (%rax),%ecx
    6fcc:	0f bf 95 d8 f9 ff ff 	movswl -0x628(%rbp),%edx
    6fd3:	48 8b 05 56 a7 00 00 	mov    0xa756(%rip),%rax        # 11730 <g_244>
    6fda:	48 8b 00             	mov    (%rax),%rax
    6fdd:	21 ca                	and    %ecx,%edx
    6fdf:	89 10                	mov    %edx,(%rax)
    6fe1:	c6 05 b0 90 00 00 eb 	movb   $0xeb,0x90b0(%rip)        # 10098 <g_126>
    6fe8:	e9 50 16 00 00       	jmpq   863d <func_17+0x1911>
    6fed:	48 c7 85 c0 fa ff ff 	movq   $0x0,-0x540(%rbp)
    6ff4:	00 00 00 00 
    6ff8:	48 c7 85 a0 fa ff ff 	movq   $0xfffffffffffffffe,-0x560(%rbp)
    6fff:	fe ff ff ff 
    7003:	48 8d 05 86 aa 00 00 	lea    0xaa86(%rip),%rax        # 11a90 <g_559>
    700a:	48 89 85 70 fa ff ff 	mov    %rax,-0x590(%rbp)
    7011:	48 8d 85 70 fa ff ff 	lea    -0x590(%rbp),%rax
    7018:	48 89 85 c8 fa ff ff 	mov    %rax,-0x538(%rbp)
    701f:	66 c7 85 f0 f9 ff ff 	movw   $0x0,-0x610(%rbp)
    7026:	00 00 
    7028:	c7 85 2c fa ff ff fa 	movl   $0xfffffffa,-0x5d4(%rbp)
    702f:	ff ff ff 
    7032:	c7 85 30 fa ff ff 00 	movl   $0x0,-0x5d0(%rbp)
    7039:	00 00 00 
    703c:	c7 85 08 fa ff ff 00 	movl   $0x0,-0x5f8(%rbp)
    7043:	00 00 00 
    7046:	eb 1a                	jmp    7062 <func_17+0x336>
    7048:	8b 85 08 fa ff ff    	mov    -0x5f8(%rbp),%eax
    704e:	48 98                	cltq   
    7050:	c7 84 85 c0 fb ff ff 	movl   $0xebb8fce2,-0x440(%rbp,%rax,4)
    7057:	e2 fc b8 eb 
    705b:	83 85 08 fa ff ff 01 	addl   $0x1,-0x5f8(%rbp)
    7062:	83 bd 08 fa ff ff 04 	cmpl   $0x4,-0x5f8(%rbp)
    7069:	7e dd                	jle    7048 <func_17+0x31c>
    706b:	c7 85 08 fa ff ff 00 	movl   $0x0,-0x5f8(%rbp)
    7072:	00 00 00 
    7075:	eb 1e                	jmp    7095 <func_17+0x369>
    7077:	8b 85 08 fa ff ff    	mov    -0x5f8(%rbp),%eax
    707d:	48 98                	cltq   
    707f:	48 8d 95 60 fa ff ff 	lea    -0x5a0(%rbp),%rdx
    7086:	48 89 94 c5 a0 fb ff 	mov    %rdx,-0x460(%rbp,%rax,8)
    708d:	ff 
    708e:	83 85 08 fa ff ff 01 	addl   $0x1,-0x5f8(%rbp)
    7095:	83 bd 08 fa ff ff 01 	cmpl   $0x1,-0x5f8(%rbp)
    709c:	7e d9                	jle    7077 <func_17+0x34b>
    709e:	66 c7 85 d8 f9 ff ff 	movw   $0x4,-0x628(%rbp)
    70a5:	04 00 
    70a7:	e9 73 15 00 00       	jmpq   861f <func_17+0x18f3>
    70ac:	c7 85 a0 fd ff ff e2 	movl   $0x318003e2,-0x260(%rbp)
    70b3:	03 80 31 
    70b6:	c7 85 a4 fd ff ff 01 	movl   $0x1,-0x25c(%rbp)
    70bd:	00 00 00 
    70c0:	c7 85 a8 fd ff ff 01 	movl   $0x1,-0x258(%rbp)
    70c7:	00 00 00 
    70ca:	c7 85 ac fd ff ff 01 	movl   $0x1,-0x254(%rbp)
    70d1:	00 00 00 
    70d4:	c7 85 b0 fd ff ff 01 	movl   $0x1,-0x250(%rbp)
    70db:	00 00 00 
    70de:	c7 85 b4 fd ff ff 01 	movl   $0x1,-0x24c(%rbp)
    70e5:	00 00 00 
    70e8:	c7 85 b8 fd ff ff 01 	movl   $0x1,-0x248(%rbp)
    70ef:	00 00 00 
    70f2:	c7 85 bc fd ff ff e2 	movl   $0x318003e2,-0x244(%rbp)
    70f9:	03 80 31 
    70fc:	c7 85 c0 fd ff ff 9d 	movl   $0x8148849d,-0x240(%rbp)
    7103:	84 48 81 
    7106:	c7 85 c4 fd ff ff 22 	movl   $0x22d30322,-0x23c(%rbp)
    710d:	03 d3 22 
    7110:	c7 85 c8 fd ff ff ff 	movl   $0xffffffff,-0x238(%rbp)
    7117:	ff ff ff 
    711a:	c7 85 cc fd ff ff c9 	movl   $0xa82cdfc9,-0x234(%rbp)
    7121:	df 2c a8 
    7124:	c7 85 d0 fd ff ff 4a 	movl   $0x76fd574a,-0x230(%rbp)
    712b:	57 fd 76 
    712e:	c7 85 d4 fd ff ff 63 	movl   $0x3095a963,-0x22c(%rbp)
    7135:	a9 95 30 
    7138:	c7 85 d8 fd ff ff 5a 	movl   $0x227edf5a,-0x228(%rbp)
    713f:	df 7e 22 
    7142:	c7 85 dc fd ff ff 22 	movl   $0x22d30322,-0x224(%rbp)
    7149:	03 d3 22 
    714c:	c7 85 e0 fd ff ff cd 	movl   $0x129174cd,-0x220(%rbp)
    7153:	74 91 12 
    7156:	c7 85 e4 fd ff ff 88 	movl   $0x16e78a88,-0x21c(%rbp)
    715d:	8a e7 16 
    7160:	c7 85 e8 fd ff ff ff 	movl   $0xffffffff,-0x218(%rbp)
    7167:	ff ff ff 
    716a:	c7 85 ec fd ff ff e2 	movl   $0x318003e2,-0x214(%rbp)
    7171:	03 80 31 
    7174:	c7 85 f0 fd ff ff c9 	movl   $0xa82cdfc9,-0x210(%rbp)
    717b:	df 2c a8 
    717e:	c7 85 f4 fd ff ff 63 	movl   $0x3095a963,-0x20c(%rbp)
    7185:	a9 95 30 
    7188:	c7 85 f8 fd ff ff e2 	movl   $0x318003e2,-0x208(%rbp)
    718f:	03 80 31 
    7192:	c7 85 fc fd ff ff 00 	movl   $0x0,-0x204(%rbp)
    7199:	00 00 00 
    719c:	c7 85 00 fe ff ff 01 	movl   $0x1,-0x200(%rbp)
    71a3:	00 00 00 
    71a6:	c7 85 04 fe ff ff 22 	movl   $0x22d30322,-0x1fc(%rbp)
    71ad:	03 d3 22 
    71b0:	c7 85 08 fe ff ff 7f 	movl   $0x67abc97f,-0x1f8(%rbp)
    71b7:	c9 ab 67 
    71ba:	c7 85 0c fe ff ff 01 	movl   $0x1,-0x1f4(%rbp)
    71c1:	00 00 00 
    71c4:	c7 85 10 fe ff ff cd 	movl   $0x129174cd,-0x1f0(%rbp)
    71cb:	74 91 12 
    71ce:	c7 85 14 fe ff ff 01 	movl   $0x1,-0x1ec(%rbp)
    71d5:	00 00 00 
    71d8:	c7 85 18 fe ff ff cd 	movl   $0x129174cd,-0x1e8(%rbp)
    71df:	74 91 12 
    71e2:	c7 85 1c fe ff ff 01 	movl   $0x1,-0x1e4(%rbp)
    71e9:	00 00 00 
    71ec:	c7 85 20 fe ff ff 00 	movl   $0x0,-0x1e0(%rbp)
    71f3:	00 00 00 
    71f6:	c7 85 24 fe ff ff 01 	movl   $0x1,-0x1dc(%rbp)
    71fd:	00 00 00 
    7200:	c7 85 28 fe ff ff 00 	movl   $0x0,-0x1d8(%rbp)
    7207:	00 00 00 
    720a:	c7 85 2c fe ff ff 01 	movl   $0x1,-0x1d4(%rbp)
    7211:	00 00 00 
    7214:	c7 85 30 fe ff ff 01 	movl   $0x1,-0x1d0(%rbp)
    721b:	00 00 00 
    721e:	c7 85 34 fe ff ff ff 	movl   $0xffffffff,-0x1cc(%rbp)
    7225:	ff ff ff 
    7228:	c7 85 38 fe ff ff 5a 	movl   $0x227edf5a,-0x1c8(%rbp)
    722f:	df 7e 22 
    7232:	c7 85 3c fe ff ff 01 	movl   $0x1,-0x1c4(%rbp)
    7239:	00 00 00 
    723c:	c7 85 40 fe ff ff ff 	movl   $0xffffffff,-0x1c0(%rbp)
    7243:	ff ff ff 
    7246:	c7 85 44 fe ff ff 5a 	movl   $0x227edf5a,-0x1bc(%rbp)
    724d:	df 7e 22 
    7250:	c7 85 48 fe ff ff 88 	movl   $0x16e78a88,-0x1b8(%rbp)
    7257:	8a e7 16 
    725a:	c7 85 4c fe ff ff ff 	movl   $0xffffffff,-0x1b4(%rbp)
    7261:	ff ff ff 
    7264:	c7 85 50 fe ff ff 01 	movl   $0x1,-0x1b0(%rbp)
    726b:	00 00 00 
    726e:	c7 85 54 fe ff ff ff 	movl   $0xffffffff,-0x1ac(%rbp)
    7275:	ff ff ff 
    7278:	c7 85 58 fe ff ff 01 	movl   $0x1,-0x1a8(%rbp)
    727f:	00 00 00 
    7282:	c7 85 5c fe ff ff 00 	movl   $0x0,-0x1a4(%rbp)
    7289:	00 00 00 
    728c:	c7 85 60 fe ff ff ff 	movl   $0xffffffff,-0x1a0(%rbp)
    7293:	ff ff ff 
    7296:	c7 85 64 fe ff ff e2 	movl   $0x318003e2,-0x19c(%rbp)
    729d:	03 80 31 
    72a0:	c7 85 68 fe ff ff 22 	movl   $0x22d30322,-0x198(%rbp)
    72a7:	03 d3 22 
    72aa:	c7 85 6c fe ff ff 01 	movl   $0x1,-0x194(%rbp)
    72b1:	00 00 00 
    72b4:	c7 85 70 fe ff ff 5a 	movl   $0x227edf5a,-0x190(%rbp)
    72bb:	df 7e 22 
    72be:	c7 85 74 fe ff ff 01 	movl   $0x1,-0x18c(%rbp)
    72c5:	00 00 00 
    72c8:	c7 85 78 fe ff ff ff 	movl   $0xffffffff,-0x188(%rbp)
    72cf:	ff ff ff 
    72d2:	c7 85 7c fe ff ff ff 	movl   $0xffffffff,-0x184(%rbp)
    72d9:	ff ff ff 
    72dc:	48 c7 85 78 fa ff ff 	movq   $0x0,-0x588(%rbp)
    72e3:	00 00 00 00 
    72e7:	c7 85 34 fa ff ff 01 	movl   $0x1,-0x5cc(%rbp)
    72ee:	00 00 00 
    72f1:	c6 85 ec f9 ff ff 00 	movb   $0x0,-0x614(%rbp)
    72f8:	c7 85 38 fa ff ff 54 	movl   $0x82f1f754,-0x5c8(%rbp)
    72ff:	f7 f1 82 
    7302:	c7 85 3c fa ff ff 73 	movl   $0xeef9b073,-0x5c4(%rbp)
    7309:	b0 f9 ee 
    730c:	c7 85 04 fa ff ff 78 	movl   $0x181bb578,-0x5fc(%rbp)
    7313:	b5 1b 18 
    7316:	66 c7 85 f8 f9 ff ff 	movw   $0xfff9,-0x608(%rbp)
    731d:	f9 ff 
    731f:	48 c7 85 d0 fa ff ff 	movq   $0xffffffffffffffff,-0x530(%rbp)
    7326:	ff ff ff ff 
    732a:	48 c7 85 d8 fa ff ff 	movq   $0x8,-0x528(%rbp)
    7331:	08 00 00 00 
    7335:	c7 85 8b fb ff ff 22 	movl   $0x22222222,-0x475(%rbp)
    733c:	22 22 22 
    733f:	c6 85 8f fb ff ff 22 	movb   $0x22,-0x471(%rbp)
    7346:	48 8d 85 00 fa ff ff 	lea    -0x600(%rbp),%rax
    734d:	48 89 85 e0 fa ff ff 	mov    %rax,-0x520(%rbp)
    7354:	48 8d 85 fc f9 ff ff 	lea    -0x604(%rbp),%rax
    735b:	48 89 85 80 fe ff ff 	mov    %rax,-0x180(%rbp)
    7362:	48 8d 85 04 fa ff ff 	lea    -0x5fc(%rbp),%rax
    7369:	48 89 85 88 fe ff ff 	mov    %rax,-0x178(%rbp)
    7370:	48 8d 85 04 fa ff ff 	lea    -0x5fc(%rbp),%rax
    7377:	48 89 85 90 fe ff ff 	mov    %rax,-0x170(%rbp)
    737e:	48 8d 85 fc f9 ff ff 	lea    -0x604(%rbp),%rax
    7385:	48 89 85 98 fe ff ff 	mov    %rax,-0x168(%rbp)
    738c:	48 8d 85 04 fa ff ff 	lea    -0x5fc(%rbp),%rax
    7393:	48 89 85 a0 fe ff ff 	mov    %rax,-0x160(%rbp)
    739a:	48 8d 85 04 fa ff ff 	lea    -0x5fc(%rbp),%rax
    73a1:	48 89 85 a8 fe ff ff 	mov    %rax,-0x158(%rbp)
    73a8:	48 8d 85 fc f9 ff ff 	lea    -0x604(%rbp),%rax
    73af:	48 89 85 b0 fe ff ff 	mov    %rax,-0x150(%rbp)
    73b6:	48 8d 85 04 fa ff ff 	lea    -0x5fc(%rbp),%rax
    73bd:	48 89 85 b8 fe ff ff 	mov    %rax,-0x148(%rbp)
    73c4:	48 8d 85 04 fa ff ff 	lea    -0x5fc(%rbp),%rax
    73cb:	48 89 85 c0 fe ff ff 	mov    %rax,-0x140(%rbp)
    73d2:	48 8d 85 fc f9 ff ff 	lea    -0x604(%rbp),%rax
    73d9:	48 89 85 c8 fe ff ff 	mov    %rax,-0x138(%rbp)
    73e0:	48 8d 85 04 fa ff ff 	lea    -0x5fc(%rbp),%rax
    73e7:	48 89 85 d0 fe ff ff 	mov    %rax,-0x130(%rbp)
    73ee:	48 8d 85 04 fa ff ff 	lea    -0x5fc(%rbp),%rax
    73f5:	48 89 85 d8 fe ff ff 	mov    %rax,-0x128(%rbp)
    73fc:	48 8d 85 fc f9 ff ff 	lea    -0x604(%rbp),%rax
    7403:	48 89 85 e0 fe ff ff 	mov    %rax,-0x120(%rbp)
    740a:	48 8d 85 04 fa ff ff 	lea    -0x5fc(%rbp),%rax
    7411:	48 89 85 e8 fe ff ff 	mov    %rax,-0x118(%rbp)
    7418:	48 8d 85 04 fa ff ff 	lea    -0x5fc(%rbp),%rax
    741f:	48 89 85 f0 fe ff ff 	mov    %rax,-0x110(%rbp)
    7426:	48 8d 85 fc f9 ff ff 	lea    -0x604(%rbp),%rax
    742d:	48 89 85 f8 fe ff ff 	mov    %rax,-0x108(%rbp)
    7434:	48 8d 85 04 fa ff ff 	lea    -0x5fc(%rbp),%rax
    743b:	48 89 85 00 ff ff ff 	mov    %rax,-0x100(%rbp)
    7442:	48 8d 85 04 fa ff ff 	lea    -0x5fc(%rbp),%rax
    7449:	48 89 85 08 ff ff ff 	mov    %rax,-0xf8(%rbp)
    7450:	48 8d 85 fc f9 ff ff 	lea    -0x604(%rbp),%rax
    7457:	48 89 85 10 ff ff ff 	mov    %rax,-0xf0(%rbp)
    745e:	48 8d 85 04 fa ff ff 	lea    -0x5fc(%rbp),%rax
    7465:	48 89 85 18 ff ff ff 	mov    %rax,-0xe8(%rbp)
    746c:	48 8d 85 04 fa ff ff 	lea    -0x5fc(%rbp),%rax
    7473:	48 89 85 20 ff ff ff 	mov    %rax,-0xe0(%rbp)
    747a:	48 8d 85 fc f9 ff ff 	lea    -0x604(%rbp),%rax
    7481:	48 89 85 28 ff ff ff 	mov    %rax,-0xd8(%rbp)
    7488:	48 8d 85 04 fa ff ff 	lea    -0x5fc(%rbp),%rax
    748f:	48 89 85 30 ff ff ff 	mov    %rax,-0xd0(%rbp)
    7496:	48 8d 85 04 fa ff ff 	lea    -0x5fc(%rbp),%rax
    749d:	48 89 85 38 ff ff ff 	mov    %rax,-0xc8(%rbp)
    74a4:	48 8d 85 fc f9 ff ff 	lea    -0x604(%rbp),%rax
    74ab:	48 89 85 40 ff ff ff 	mov    %rax,-0xc0(%rbp)
    74b2:	48 8d 85 04 fa ff ff 	lea    -0x5fc(%rbp),%rax
    74b9:	48 89 85 48 ff ff ff 	mov    %rax,-0xb8(%rbp)
    74c0:	48 8d 85 04 fa ff ff 	lea    -0x5fc(%rbp),%rax
    74c7:	48 89 85 50 ff ff ff 	mov    %rax,-0xb0(%rbp)
    74ce:	48 8d 85 fc f9 ff ff 	lea    -0x604(%rbp),%rax
    74d5:	48 89 85 58 ff ff ff 	mov    %rax,-0xa8(%rbp)
    74dc:	48 8d 85 04 fa ff ff 	lea    -0x5fc(%rbp),%rax
    74e3:	48 89 85 60 ff ff ff 	mov    %rax,-0xa0(%rbp)
    74ea:	48 8d 85 04 fa ff ff 	lea    -0x5fc(%rbp),%rax
    74f1:	48 89 85 68 ff ff ff 	mov    %rax,-0x98(%rbp)
    74f8:	48 8d 85 fc f9 ff ff 	lea    -0x604(%rbp),%rax
    74ff:	48 89 85 70 ff ff ff 	mov    %rax,-0x90(%rbp)
    7506:	48 8d 85 04 fa ff ff 	lea    -0x5fc(%rbp),%rax
    750d:	48 89 85 78 ff ff ff 	mov    %rax,-0x88(%rbp)
    7514:	48 8d 85 04 fa ff ff 	lea    -0x5fc(%rbp),%rax
    751b:	48 89 45 80          	mov    %rax,-0x80(%rbp)
    751f:	48 8d 85 fc f9 ff ff 	lea    -0x604(%rbp),%rax
    7526:	48 89 45 88          	mov    %rax,-0x78(%rbp)
    752a:	48 8d 85 04 fa ff ff 	lea    -0x5fc(%rbp),%rax
    7531:	48 89 45 90          	mov    %rax,-0x70(%rbp)
    7535:	48 8d 85 04 fa ff ff 	lea    -0x5fc(%rbp),%rax
    753c:	48 89 45 98          	mov    %rax,-0x68(%rbp)
    7540:	48 8d 85 fc f9 ff ff 	lea    -0x604(%rbp),%rax
    7547:	48 89 45 a0          	mov    %rax,-0x60(%rbp)
    754b:	48 8d 85 04 fa ff ff 	lea    -0x5fc(%rbp),%rax
    7552:	48 89 45 a8          	mov    %rax,-0x58(%rbp)
    7556:	48 8d 85 04 fa ff ff 	lea    -0x5fc(%rbp),%rax
    755d:	48 89 45 b0          	mov    %rax,-0x50(%rbp)
    7561:	48 8d 85 fc f9 ff ff 	lea    -0x604(%rbp),%rax
    7568:	48 89 45 b8          	mov    %rax,-0x48(%rbp)
    756c:	48 8d 85 04 fa ff ff 	lea    -0x5fc(%rbp),%rax
    7573:	48 89 45 c0          	mov    %rax,-0x40(%rbp)
    7577:	48 8d 85 04 fa ff ff 	lea    -0x5fc(%rbp),%rax
    757e:	48 89 45 c8          	mov    %rax,-0x38(%rbp)
    7582:	c7 85 0c fa ff ff 00 	movl   $0x0,-0x5f4(%rbp)
    7589:	00 00 00 
    758c:	eb 1a                	jmp    75a8 <func_17+0x87c>
    758e:	8b 85 0c fa ff ff    	mov    -0x5f4(%rbp),%eax
    7594:	48 98                	cltq   
    7596:	c7 84 85 00 fc ff ff 	movl   $0xfffffff6,-0x400(%rbp,%rax,4)
    759d:	f6 ff ff ff 
    75a1:	83 85 0c fa ff ff 01 	addl   $0x1,-0x5f4(%rbp)
    75a8:	83 bd 0c fa ff ff 06 	cmpl   $0x6,-0x5f4(%rbp)
    75af:	7e dd                	jle    758e <func_17+0x862>
    75b1:	48 8b 85 c0 fa ff ff 	mov    -0x540(%rbp),%rax
    75b8:	41 89 c5             	mov    %eax,%r13d
    75bb:	8b 85 dc f9 ff ff    	mov    -0x624(%rbp),%eax
    75c1:	0f b6 d8             	movzbl %al,%ebx
    75c4:	48 8b 05 bd a4 00 00 	mov    0xa4bd(%rip),%rax        # 11a88 <g_411>
    75cb:	48 8b 00             	mov    (%rax),%rax
    75ce:	8b 00                	mov    (%rax),%eax
    75d0:	85 c0                	test   %eax,%eax
    75d2:	0f 85 97 00 00 00    	jne    766f <func_17+0x943>
    75d8:	8b 85 64 fe ff ff    	mov    -0x19c(%rbp),%eax
    75de:	44 0f b6 e0          	movzbl %al,%r12d
    75e2:	48 8b 05 af a4 00 00 	mov    0xa4af(%rip),%rax        # 11a98 <g_558>
    75e9:	48 8b 00             	mov    (%rax),%rax
    75ec:	0f b7 00             	movzwl (%rax),%eax
    75ef:	0f b7 c0             	movzwl %ax,%eax
    75f2:	89 c6                	mov    %eax,%esi
    75f4:	bf ff ff 00 00       	mov    $0xffff,%edi
    75f9:	e8 7c d8 ff ff       	callq  4e7a <safe_rshift_func_uint16_t_u_u>
    75fe:	0f b6 c0             	movzbl %al,%eax
    7601:	44 89 e6             	mov    %r12d,%esi
    7604:	89 c7                	mov    %eax,%edi
    7606:	e8 6d d5 ff ff       	callq  4b78 <safe_sub_func_uint8_t_u_u>
    760b:	0f b6 d0             	movzbl %al,%edx
    760e:	48 8b 05 cb 8e 00 00 	mov    0x8ecb(%rip),%rax        # 104e0 <g_924>
    7615:	48 39 c2             	cmp    %rax,%rdx
    7618:	0f 9f c0             	setg   %al
    761b:	0f b6 c0             	movzbl %al,%eax
    761e:	89 c2                	mov    %eax,%edx
    7620:	0f b6 05 6a 8a 00 00 	movzbl 0x8a6a(%rip),%eax        # 10091 <g_110>
    7627:	31 d0                	xor    %edx,%eax
    7629:	88 05 62 8a 00 00    	mov    %al,0x8a62(%rip)        # 10091 <g_110>
    762f:	0f b6 05 5b 8a 00 00 	movzbl 0x8a5b(%rip),%eax        # 10091 <g_110>
    7636:	0f b6 d0             	movzbl %al,%edx
    7639:	83 bd dc f9 ff ff 00 	cmpl   $0x0,-0x624(%rbp)
    7640:	75 11                	jne    7653 <func_17+0x927>
    7642:	48 8b 05 7f a4 00 00 	mov    0xa47f(%rip),%rax        # 11ac8 <g_698>
    7649:	48 8b 00             	mov    (%rax),%rax
    764c:	0f b6 00             	movzbl (%rax),%eax
    764f:	84 c0                	test   %al,%al
    7651:	74 07                	je     765a <func_17+0x92e>
    7653:	b8 01 00 00 00       	mov    $0x1,%eax
    7658:	eb 05                	jmp    765f <func_17+0x933>
    765a:	b8 00 00 00 00       	mov    $0x0,%eax
    765f:	0f b6 c0             	movzbl %al,%eax
    7662:	89 d6                	mov    %edx,%esi
    7664:	89 c7                	mov    %eax,%edi
    7666:	e8 70 d5 ff ff       	callq  4bdb <safe_div_func_uint8_t_u_u>
    766b:	84 c0                	test   %al,%al
    766d:	74 07                	je     7676 <func_17+0x94a>
    766f:	b8 01 00 00 00       	mov    $0x1,%eax
    7674:	eb 05                	jmp    767b <func_17+0x94f>
    7676:	b8 00 00 00 00       	mov    $0x0,%eax
    767b:	48 98                	cltq   
    767d:	48 89 c7             	mov    %rax,%rdi
    7680:	e8 91 d1 ff ff       	callq  4816 <safe_unary_minus_func_int64_t_s>
    7685:	48 3d 94 d0 5e 75    	cmp    $0x755ed094,%rax
    768b:	0f 9e c0             	setle  %al
    768e:	0f b6 c0             	movzbl %al,%eax
    7691:	89 de                	mov    %ebx,%esi
    7693:	89 c7                	mov    %eax,%edi
    7695:	e8 c0 d4 ff ff       	callq  4b5a <safe_add_func_uint8_t_u_u>
    769a:	0f b6 c0             	movzbl %al,%eax
    769d:	be 07 7c 00 00       	mov    $0x7c07,%esi
    76a2:	89 c7                	mov    %eax,%edi
    76a4:	e8 ac cd ff ff       	callq  4455 <safe_div_func_int16_t_s_s>
    76a9:	0f b6 c0             	movzbl %al,%eax
    76ac:	44 89 ee             	mov    %r13d,%esi
    76af:	89 c7                	mov    %eax,%edi
    76b1:	e8 4f d5 ff ff       	callq  4c05 <safe_lshift_func_uint8_t_u_s>
    76b6:	0f be d0             	movsbl %al,%edx
    76b9:	8b 85 dc f9 ff ff    	mov    -0x624(%rbp),%eax
    76bf:	0f be c0             	movsbl %al,%eax
    76c2:	89 d6                	mov    %edx,%esi
    76c4:	89 c7                	mov    %eax,%edi
    76c6:	e8 9f cb ff ff       	callq  426a <safe_div_func_int8_t_s_s>
    76cb:	84 c0                	test   %al,%al
    76cd:	74 11                	je     76e0 <func_17+0x9b4>
    76cf:	8b 85 48 fe ff ff    	mov    -0x1b8(%rbp),%eax
    76d5:	85 c0                	test   %eax,%eax
    76d7:	74 07                	je     76e0 <func_17+0x9b4>
    76d9:	b8 01 00 00 00       	mov    $0x1,%eax
    76de:	eb 05                	jmp    76e5 <func_17+0x9b9>
    76e0:	b8 00 00 00 00       	mov    $0x0,%eax
    76e5:	be 8b dd f4 be       	mov    $0xbef4dd8b,%esi
    76ea:	89 c7                	mov    %eax,%edi
    76ec:	e8 c5 ce ff ff       	callq  45b6 <safe_add_func_int32_t_s_s>
    76f1:	48 8b 15 a0 a3 00 00 	mov    0xa3a0(%rip),%rdx        # 11a98 <g_558>
    76f8:	48 8b 12             	mov    (%rdx),%rdx
    76fb:	0f b7 12             	movzwl (%rdx),%edx
    76fe:	0f b7 d2             	movzwl %dx,%edx
    7701:	39 d0                	cmp    %edx,%eax
    7703:	0f 8d d3 0a 00 00    	jge    81dc <func_17+0x14b0>
    7709:	48 8d 85 b0 fb ff ff 	lea    -0x450(%rbp),%rax
    7710:	48 89 85 18 fb ff ff 	mov    %rax,-0x4e8(%rbp)
    7717:	48 8d 05 02 ad 00 00 	lea    0xad02(%rip),%rax        # 12420 <g_323>
    771e:	48 89 85 20 fb ff ff 	mov    %rax,-0x4e0(%rbp)
    7725:	c7 85 40 fa ff ff 09 	movl   $0x30c84809,-0x5c0(%rbp)
    772c:	48 c8 30 
    772f:	48 8d 05 ba a3 00 00 	lea    0xa3ba(%rip),%rax        # 11af0 <g_877>
    7736:	48 89 85 80 fa ff ff 	mov    %rax,-0x580(%rbp)
    773d:	48 8d 85 80 fa ff ff 	lea    -0x580(%rbp),%rax
    7744:	48 89 85 88 fa ff ff 	mov    %rax,-0x578(%rbp)
    774b:	48 8d 85 88 fa ff ff 	lea    -0x578(%rbp),%rax
    7752:	48 89 85 28 fb ff ff 	mov    %rax,-0x4d8(%rbp)
    7759:	48 8d 05 31 89 00 00 	lea    0x8931(%rip),%rax        # 10091 <g_110>
    7760:	48 89 85 30 fb ff ff 	mov    %rax,-0x4d0(%rbp)
    7767:	c7 85 44 fa ff ff 00 	movl   $0x0,-0x5bc(%rbp)
    776e:	00 00 00 
    7771:	c7 85 48 fa ff ff f5 	movl   $0x9fa49ef5,-0x5b8(%rbp)
    7778:	9e a4 9f 
    777b:	48 c7 85 38 fb ff ff 	movq   $0x0,-0x4c8(%rbp)
    7782:	00 00 00 00 
    7786:	48 8d 85 00 fa ff ff 	lea    -0x600(%rbp),%rax
    778d:	48 89 85 40 fb ff ff 	mov    %rax,-0x4c0(%rbp)
    7794:	48 b8 4f 59 f9 92 98 	movabs $0x7b977b9892f9594f,%rax
    779b:	7b 97 7b 
    779e:	48 89 85 48 fb ff ff 	mov    %rax,-0x4b8(%rbp)
    77a5:	c7 85 10 fa ff ff 00 	movl   $0x0,-0x5f0(%rbp)
    77ac:	00 00 00 
    77af:	eb 1e                	jmp    77cf <func_17+0xaa3>
    77b1:	8b 85 10 fa ff ff    	mov    -0x5f0(%rbp),%eax
    77b7:	48 98                	cltq   
    77b9:	48 8d 15 e0 88 00 00 	lea    0x88e0(%rip),%rdx        # 100a0 <g_133>
    77c0:	48 89 94 c5 b0 fb ff 	mov    %rdx,-0x450(%rbp,%rax,8)
    77c7:	ff 
    77c8:	83 85 10 fa ff ff 01 	addl   $0x1,-0x5f0(%rbp)
    77cf:	83 bd 10 fa ff ff 01 	cmpl   $0x1,-0x5f0(%rbp)
    77d6:	7e d9                	jle    77b1 <func_17+0xa85>
    77d8:	c7 85 10 fa ff ff 00 	movl   $0x0,-0x5f0(%rbp)
    77df:	00 00 00 
    77e2:	eb 1e                	jmp    7802 <func_17+0xad6>
    77e4:	8b 85 10 fa ff ff    	mov    -0x5f0(%rbp),%eax
    77ea:	48 98                	cltq   
    77ec:	48 8d 95 fc f9 ff ff 	lea    -0x604(%rbp),%rdx
    77f3:	48 89 94 c5 e0 fb ff 	mov    %rdx,-0x420(%rbp,%rax,8)
    77fa:	ff 
    77fb:	83 85 10 fa ff ff 01 	addl   $0x1,-0x5f0(%rbp)
    7802:	83 bd 10 fa ff ff 02 	cmpl   $0x2,-0x5f0(%rbp)
    7809:	7e d9                	jle    77e4 <func_17+0xab8>
    780b:	48 8b 95 b8 fb ff ff 	mov    -0x448(%rbp),%rdx
    7812:	48 8b 85 18 fb ff ff 	mov    -0x4e8(%rbp),%rax
    7819:	48 89 10             	mov    %rdx,(%rax)
    781c:	c7 05 62 88 00 00 00 	movl   $0x0,0x8862(%rip)        # 10088 <g_34>
    7823:	00 00 00 
    7826:	e9 ba 00 00 00       	jmpq   78e5 <func_17+0xbb9>
    782b:	8b 05 57 88 00 00    	mov    0x8857(%rip),%eax        # 10088 <g_34>
    7831:	0f bf 95 d8 f9 ff ff 	movswl -0x628(%rbp),%edx
    7838:	44 8d 52 01          	lea    0x1(%rdx),%r10d
    783c:	8b 15 46 88 00 00    	mov    0x8846(%rip),%edx        # 10088 <g_34>
    7842:	44 8b 05 3f 88 00 00 	mov    0x883f(%rip),%r8d        # 10088 <g_34>
    7849:	8b 0d 39 88 00 00    	mov    0x8839(%rip),%ecx        # 10088 <g_34>
    784f:	44 8d 49 03          	lea    0x3(%rcx),%r9d
    7853:	0f bf bd d8 f9 ff ff 	movswl -0x628(%rbp),%edi
    785a:	48 63 f2             	movslq %edx,%rsi
    785d:	48 63 d0             	movslq %eax,%rdx
    7860:	49 63 ca             	movslq %r10d,%rcx
    7863:	48 89 d0             	mov    %rdx,%rax
    7866:	48 01 c0             	add    %rax,%rax
    7869:	48 01 d0             	add    %rdx,%rax
    786c:	48 89 c2             	mov    %rax,%rdx
    786f:	48 c1 e2 04          	shl    $0x4,%rdx
    7873:	48 29 c2             	sub    %rax,%rdx
    7876:	48 89 c8             	mov    %rcx,%rax
    7879:	48 c1 e0 02          	shl    $0x2,%rax
    787d:	48 01 c8             	add    %rcx,%rax
    7880:	48 01 d0             	add    %rdx,%rax
    7883:	48 01 f0             	add    %rsi,%rax
    7886:	48 8d 14 85 00 00 00 	lea    0x0(,%rax,4),%rdx
    788d:	00 
    788e:	48 8d 05 8b 88 00 00 	lea    0x888b(%rip),%rax        # 10120 <g_346>
    7895:	8b 34 02             	mov    (%rdx,%rax,1),%esi
    7898:	48 63 ff             	movslq %edi,%rdi
    789b:	49 63 d0             	movslq %r8d,%rdx
    789e:	49 63 c9             	movslq %r9d,%rcx
    78a1:	48 89 d0             	mov    %rdx,%rax
    78a4:	48 01 c0             	add    %rax,%rax
    78a7:	48 01 d0             	add    %rdx,%rax
    78aa:	48 89 c2             	mov    %rax,%rdx
    78ad:	48 c1 e2 04          	shl    $0x4,%rdx
    78b1:	48 29 c2             	sub    %rax,%rdx
    78b4:	48 89 c8             	mov    %rcx,%rax
    78b7:	48 c1 e0 02          	shl    $0x2,%rax
    78bb:	48 01 c8             	add    %rcx,%rax
    78be:	48 01 d0             	add    %rdx,%rax
    78c1:	48 01 f8             	add    %rdi,%rax
    78c4:	48 8d 14 85 00 00 00 	lea    0x0(,%rax,4),%rdx
    78cb:	00 
    78cc:	48 8d 05 4d 88 00 00 	lea    0x884d(%rip),%rax        # 10120 <g_346>
    78d3:	89 34 02             	mov    %esi,(%rdx,%rax,1)
    78d6:	8b 05 ac 87 00 00    	mov    0x87ac(%rip),%eax        # 10088 <g_34>
    78dc:	83 c0 01             	add    $0x1,%eax
    78df:	89 05 a3 87 00 00    	mov    %eax,0x87a3(%rip)        # 10088 <g_34>
    78e5:	8b 05 9d 87 00 00    	mov    0x879d(%rip),%eax        # 10088 <g_34>
    78eb:	83 f8 04             	cmp    $0x4,%eax
    78ee:	0f 8e 37 ff ff ff    	jle    782b <func_17+0xaff>
    78f4:	be fd ff ff ff       	mov    $0xfffffffd,%esi
    78f9:	bf 01 00 00 00       	mov    $0x1,%edi
    78fe:	e8 b0 ca ff ff       	callq  43b3 <safe_add_func_int16_t_s_s>
    7903:	4c 0f bf e0          	movswq %ax,%r12
    7907:	48 0f bf 9d f4 f9 ff 	movswq -0x60c(%rbp),%rbx
    790e:	ff 
    790f:	66 83 bd d8 f9 ff ff 	cmpw   $0x0,-0x628(%rbp)
    7916:	00 
    7917:	74 4c                	je     7965 <func_17+0xc39>
    7919:	48 8d 05 71 87 00 00 	lea    0x8771(%rip),%rax        # 10091 <g_110>
    7920:	48 89 05 f9 9d 00 00 	mov    %rax,0x9df9(%rip)        # 11720 <g_119>
    7927:	48 8b 15 f2 9d 00 00 	mov    0x9df2(%rip),%rdx        # 11720 <g_119>
    792e:	48 8b 85 60 fa ff ff 	mov    -0x5a0(%rbp),%rax
    7935:	48 39 c2             	cmp    %rax,%rdx
    7938:	0f 94 c0             	sete   %al
    793b:	0f b6 c8             	movzbl %al,%ecx
    793e:	48 8b 85 20 fb ff ff 	mov    -0x4e0(%rbp),%rax
    7945:	48 8b 10             	mov    (%rax),%rdx
    7948:	48 63 c1             	movslq %ecx,%rax
    794b:	48 31 c2             	xor    %rax,%rdx
    794e:	48 8b 85 20 fb ff ff 	mov    -0x4e0(%rbp),%rax
    7955:	48 89 10             	mov    %rdx,(%rax)
    7958:	48 8b 85 20 fb ff ff 	mov    -0x4e0(%rbp),%rax
    795f:	48 8b 00             	mov    (%rax),%rax
    7962:	48 85 c0             	test   %rax,%rax
    7965:	48 8b 05 24 a1 00 00 	mov    0xa124(%rip),%rax        # 11a90 <g_559>
    796c:	0f b7 00             	movzwl (%rax),%eax
    796f:	0f b7 d0             	movzwl %ax,%edx
    7972:	48 8b 05 07 a1 00 00 	mov    0xa107(%rip),%rax        # 11a80 <g_412>
    7979:	8b 00                	mov    (%rax),%eax
    797b:	66 0d 60 4d          	or     $0x4d60,%ax
    797f:	0f b7 c0             	movzwl %ax,%eax
    7982:	89 d6                	mov    %edx,%esi
    7984:	89 c7                	mov    %eax,%edi
    7986:	e8 94 d3 ff ff       	callq  4d1f <safe_sub_func_uint16_t_u_u>
    798b:	89 c2                	mov    %eax,%edx
    798d:	48 8b 85 60 fa ff ff 	mov    -0x5a0(%rbp),%rax
    7994:	88 10                	mov    %dl,(%rax)
    7996:	0f b6 00             	movzbl (%rax),%eax
    7999:	0f b6 c0             	movzbl %al,%eax
    799c:	39 85 dc f9 ff ff    	cmp    %eax,-0x624(%rbp)
    79a2:	48 89 de             	mov    %rbx,%rsi
    79a5:	48 c7 c7 f9 ff ff ff 	mov    $0xfffffffffffffff9,%rdi
    79ac:	e8 f7 ce ff ff       	callq  48a8 <safe_sub_func_int64_t_s_s>
    79b1:	49 39 c4             	cmp    %rax,%r12
    79b4:	0f 9f c0             	setg   %al
    79b7:	0f b6 d0             	movzbl %al,%edx
    79ba:	0f bf 85 d8 f9 ff ff 	movswl -0x628(%rbp),%eax
    79c1:	39 c2                	cmp    %eax,%edx
    79c3:	0f 9c c0             	setl   %al
    79c6:	0f b6 c0             	movzbl %al,%eax
    79c9:	39 85 24 fa ff ff    	cmp    %eax,-0x5dc(%rbp)
    79cf:	0f 8e 2d 06 00 00    	jle    8002 <func_17+0x12d6>
    79d5:	48 c7 85 58 fb ff ff 	movq   $0x0,-0x4a8(%rbp)
    79dc:	00 00 00 00 
    79e0:	c7 85 50 fa ff ff 39 	movl   $0x3d6adf39,-0x5b0(%rbp)
    79e7:	df 6a 3d 
    79ea:	48 c7 85 20 fc ff ff 	movq   $0x0,-0x3e0(%rbp)
    79f1:	00 00 00 00 
    79f5:	48 8d 85 b0 fb ff ff 	lea    -0x450(%rbp),%rax
    79fc:	48 83 c0 08          	add    $0x8,%rax
    7a00:	48 89 85 28 fc ff ff 	mov    %rax,-0x3d8(%rbp)
    7a07:	48 c7 85 30 fc ff ff 	movq   $0x0,-0x3d0(%rbp)
    7a0e:	00 00 00 00 
    7a12:	48 8d 05 8f a0 00 00 	lea    0xa08f(%rip),%rax        # 11aa8 <g_587>
    7a19:	48 89 85 38 fc ff ff 	mov    %rax,-0x3c8(%rbp)
    7a20:	48 8d 85 b0 fb ff ff 	lea    -0x450(%rbp),%rax
    7a27:	48 83 c0 08          	add    $0x8,%rax
    7a2b:	48 89 85 40 fc ff ff 	mov    %rax,-0x3c0(%rbp)
    7a32:	48 8d 05 6f a0 00 00 	lea    0xa06f(%rip),%rax        # 11aa8 <g_587>
    7a39:	48 89 85 48 fc ff ff 	mov    %rax,-0x3b8(%rbp)
    7a40:	48 c7 85 50 fc ff ff 	movq   $0x0,-0x3b0(%rbp)
    7a47:	00 00 00 00 
    7a4b:	48 8d 85 b0 fb ff ff 	lea    -0x450(%rbp),%rax
    7a52:	48 83 c0 08          	add    $0x8,%rax
    7a56:	48 89 85 58 fc ff ff 	mov    %rax,-0x3a8(%rbp)
    7a5d:	48 c7 85 60 fc ff ff 	movq   $0x0,-0x3a0(%rbp)
    7a64:	00 00 00 00 
    7a68:	48 c7 85 68 fc ff ff 	movq   $0x0,-0x398(%rbp)
    7a6f:	00 00 00 00 
    7a73:	c7 85 54 fa ff ff f1 	movl   $0x4311c9f1,-0x5ac(%rbp)
    7a7a:	c9 11 43 
    7a7d:	c7 85 58 fa ff ff ff 	movl   $0xffffffff,-0x5a8(%rbp)
    7a84:	ff ff ff 
    7a87:	c7 85 5c fa ff ff 04 	movl   $0x4,-0x5a4(%rbp)
    7a8e:	00 00 00 
    7a91:	48 c7 85 60 fb ff ff 	movq   $0x0,-0x4a0(%rbp)
    7a98:	00 00 00 00 
    7a9c:	48 b8 ad ec 7b 5c c5 	movabs $0x623579c55c7becad,%rax
    7aa3:	79 35 62 
    7aa6:	48 89 85 68 fb ff ff 	mov    %rax,-0x498(%rbp)
    7aad:	8b 85 40 fa ff ff    	mov    -0x5c0(%rbp),%eax
    7ab3:	0f b6 d8             	movzbl %al,%ebx
    7ab6:	0f b7 85 d8 f9 ff ff 	movzwl -0x628(%rbp),%eax
    7abd:	44 0f be e0          	movsbl %al,%r12d
    7ac1:	0f b7 85 f4 f9 ff ff 	movzwl -0x60c(%rbp),%eax
    7ac8:	0f be d0             	movsbl %al,%edx
    7acb:	8b 85 d4 f9 ff ff    	mov    -0x62c(%rbp),%eax
    7ad1:	0f be c0             	movsbl %al,%eax
    7ad4:	89 d6                	mov    %edx,%esi
    7ad6:	89 c7                	mov    %eax,%edi
    7ad8:	e8 15 c7 ff ff       	callq  41f2 <safe_sub_func_int8_t_s_s>
    7add:	0f be c0             	movsbl %al,%eax
    7ae0:	44 89 e6             	mov    %r12d,%esi
    7ae3:	89 c7                	mov    %eax,%edi
    7ae5:	e8 28 c7 ff ff       	callq  4212 <safe_mul_func_int8_t_s_s>
    7aea:	be 0e 00 00 00       	mov    $0xe,%esi
    7aef:	bf 00 00 00 00       	mov    $0x0,%edi
    7af4:	e8 31 ca ff ff       	callq  452a <safe_rshift_func_int16_t_s_s>
    7af9:	0f b6 c0             	movzbl %al,%eax
    7afc:	be a7 00 00 00       	mov    $0xa7,%esi
    7b01:	89 c7                	mov    %eax,%edi
    7b03:	e8 fd d0 ff ff       	callq  4c05 <safe_lshift_func_uint8_t_u_s>
    7b08:	0f b6 c0             	movzbl %al,%eax
    7b0b:	be ff ff 00 00       	mov    $0xffff,%esi
    7b10:	89 c7                	mov    %eax,%edi
    7b12:	e8 77 d2 ff ff       	callq  4d8e <safe_div_func_uint16_t_u_u>
    7b17:	b8 01 00 00 00       	mov    $0x1,%eax
    7b1c:	34 bb                	xor    $0xbb,%al
    7b1e:	48 98                	cltq   
    7b20:	48 89 c6             	mov    %rax,%rsi
    7b23:	bf 00 00 00 00       	mov    $0x0,%edi
    7b28:	e8 7b cd ff ff       	callq  48a8 <safe_sub_func_int64_t_s_s>
    7b2d:	48 8b 05 94 9f 00 00 	mov    0x9f94(%rip),%rax        # 11ac8 <g_698>
    7b34:	48 8b 10             	mov    (%rax),%rdx
    7b37:	48 8b 05 b2 9f 00 00 	mov    0x9fb2(%rip),%rax        # 11af0 <g_877>
    7b3e:	0f b6 12             	movzbl (%rdx),%edx
    7b41:	88 10                	mov    %dl,(%rax)
    7b43:	8b 85 64 fe ff ff    	mov    -0x19c(%rbp),%eax
    7b49:	0f b6 c0             	movzbl %al,%eax
    7b4c:	89 de                	mov    %ebx,%esi
    7b4e:	89 c7                	mov    %eax,%edi
    7b50:	e8 59 d0 ff ff       	callq  4bae <safe_mod_func_uint8_t_u_u>
    7b55:	84 c0                	test   %al,%al
    7b57:	74 17                	je     7b70 <func_17+0xe44>
    7b59:	48 8b 05 28 9f 00 00 	mov    0x9f28(%rip),%rax        # 11a88 <g_411>
    7b60:	48 8b 00             	mov    (%rax),%rax
    7b63:	8b 00                	mov    (%rax),%eax
    7b65:	85 c0                	test   %eax,%eax
    7b67:	74 07                	je     7b70 <func_17+0xe44>
    7b69:	b8 01 00 00 00       	mov    $0x1,%eax
    7b6e:	eb 05                	jmp    7b75 <func_17+0xe49>
    7b70:	b8 00 00 00 00       	mov    $0x0,%eax
    7b75:	48 98                	cltq   
    7b77:	25 78 bf 00 00       	and    $0xbf78,%eax
    7b7c:	48 89 c2             	mov    %rax,%rdx
    7b7f:	8b 85 50 fa ff ff    	mov    -0x5b0(%rbp),%eax
    7b85:	48 98                	cltq   
    7b87:	48 39 c2             	cmp    %rax,%rdx
    7b8a:	0f 9d c0             	setge  %al
    7b8d:	0f b6 d0             	movzbl %al,%edx
    7b90:	48 8b 85 20 fb ff ff 	mov    -0x4e0(%rbp),%rax
    7b97:	48 89 10             	mov    %rdx,(%rax)
    7b9a:	48 8b 85 20 fb ff ff 	mov    -0x4e0(%rbp),%rax
    7ba1:	48 8b 00             	mov    (%rax),%rax
    7ba4:	48 83 f8 01          	cmp    $0x1,%rax
    7ba8:	48 83 bd 28 fb ff ff 	cmpq   $0x0,-0x4d8(%rbp)
    7baf:	00 
    7bb0:	0f 84 7d 01 00 00    	je     7d33 <func_17+0x1007>
    7bb6:	48 8d 85 20 fc ff ff 	lea    -0x3e0(%rbp),%rax
    7bbd:	48 83 c0 08          	add    $0x8,%rax
    7bc1:	48 89 85 70 fb ff ff 	mov    %rax,-0x490(%rbp)
    7bc8:	48 8d 05 ad 44 00 00 	lea    0x44ad(%rip),%rax        # c07c <g_1024>
    7bcf:	48 89 85 90 fa ff ff 	mov    %rax,-0x570(%rbp)
    7bd6:	48 8d 85 90 fa ff ff 	lea    -0x570(%rbp),%rax
    7bdd:	48 89 85 98 fa ff ff 	mov    %rax,-0x568(%rbp)
    7be4:	48 8d 85 98 fa ff ff 	lea    -0x568(%rbp),%rax
    7beb:	48 89 85 78 fb ff ff 	mov    %rax,-0x488(%rbp)
    7bf2:	48 8d 05 cb 88 00 00 	lea    0x88cb(%rip),%rax        # 104c4 <g_710>
    7bf9:	48 89 85 80 fb ff ff 	mov    %rax,-0x480(%rbp)
    7c00:	c7 85 14 fa ff ff 00 	movl   $0x0,-0x5ec(%rbp)
    7c07:	00 00 00 
    7c0a:	eb 1e                	jmp    7c2a <func_17+0xefe>
    7c0c:	8b 85 14 fa ff ff    	mov    -0x5ec(%rbp),%eax
    7c12:	48 98                	cltq   
    7c14:	48 8d 95 78 fa ff ff 	lea    -0x588(%rbp),%rdx
    7c1b:	48 89 94 c5 00 fd ff 	mov    %rdx,-0x300(%rbp,%rax,8)
    7c22:	ff 
    7c23:	83 85 14 fa ff ff 01 	addl   $0x1,-0x5ec(%rbp)
    7c2a:	83 bd 14 fa ff ff 07 	cmpl   $0x7,-0x5ec(%rbp)
    7c31:	7e d9                	jle    7c0c <func_17+0xee0>
    7c33:	c7 85 50 fa ff ff 32 	movl   $0x54935f32,-0x5b0(%rbp)
    7c3a:	5f 93 54 
    7c3d:	48 8b 85 c0 fa ff ff 	mov    -0x540(%rbp),%rax
    7c44:	0f b6 d8             	movzbl %al,%ebx
    7c47:	48 8b 05 4a 9e 00 00 	mov    0x9e4a(%rip),%rax        # 11a98 <g_558>
    7c4e:	48 8b 00             	mov    (%rax),%rax
    7c51:	0f b7 00             	movzwl (%rax),%eax
    7c54:	0f b7 c0             	movzwl %ax,%eax
    7c57:	89 c6                	mov    %eax,%esi
    7c59:	bf 07 00 00 00       	mov    $0x7,%edi
    7c5e:	e8 00 c9 ff ff       	callq  4563 <safe_rshift_func_int16_t_s_u>
    7c63:	0f b6 c0             	movzbl %al,%eax
    7c66:	89 de                	mov    %ebx,%esi
    7c68:	89 c7                	mov    %eax,%edi
    7c6a:	e8 3f cf ff ff       	callq  4bae <safe_mod_func_uint8_t_u_u>
    7c6f:	83 bd dc f9 ff ff 31 	cmpl   $0x31,-0x624(%rbp)
    7c76:	0f 95 c2             	setne  %dl
    7c79:	0f b6 ca             	movzbl %dl,%ecx
    7c7c:	48 8b 95 80 fb ff ff 	mov    -0x480(%rbp),%rdx
    7c83:	8b 12                	mov    (%rdx),%edx
    7c85:	0f b6 c0             	movzbl %al,%eax
    7c88:	09 c2                	or     %eax,%edx
    7c8a:	48 8b 85 80 fb ff ff 	mov    -0x480(%rbp),%rax
    7c91:	89 10                	mov    %edx,(%rax)
    7c93:	48 8b 85 80 fb ff ff 	mov    -0x480(%rbp),%rax
    7c9a:	8b 00                	mov    (%rax),%eax
    7c9c:	35 b9 3c c7 46       	xor    $0x46c73cb9,%eax
    7ca1:	89 c0                	mov    %eax,%eax
    7ca3:	48 39 c1             	cmp    %rax,%rcx
    7ca6:	0f 95 c0             	setne  %al
    7ca9:	0f b6 c0             	movzbl %al,%eax
    7cac:	be 00 00 00 00       	mov    $0x0,%esi
    7cb1:	89 c7                	mov    %eax,%edi
    7cb3:	e8 b4 c6 ff ff       	callq  436c <safe_rshift_func_int8_t_s_u>
    7cb8:	be c1 02 00 00       	mov    $0x2c1,%esi
    7cbd:	bf ff ff 00 00       	mov    $0xffff,%edi
    7cc2:	e8 95 d0 ff ff       	callq  4d5c <safe_mod_func_uint16_t_u_u>
    7cc7:	0f b7 05 d2 83 00 00 	movzwl 0x83d2(%rip),%eax        # 100a0 <g_133>
    7cce:	0f b7 d0             	movzwl %ax,%edx
    7cd1:	48 8b 85 78 fb ff ff 	mov    -0x488(%rbp),%rax
    7cd8:	48 c7 00 00 00 00 00 	movq   $0x0,(%rax)
    7cdf:	48 8b 85 78 fa ff ff 	mov    -0x588(%rbp),%rax
    7ce6:	48 89 85 a8 fa ff ff 	mov    %rax,-0x558(%rbp)
    7ced:	48 83 bd a8 fa ff ff 	cmpq   $0x0,-0x558(%rbp)
    7cf4:	00 
    7cf5:	0f 94 c0             	sete   %al
    7cf8:	0f b6 c0             	movzbl %al,%eax
    7cfb:	89 d6                	mov    %edx,%esi
    7cfd:	89 c7                	mov    %eax,%edi
    7cff:	e8 fb cf ff ff       	callq  4cff <safe_add_func_uint16_t_u_u>
    7d04:	48 8b 95 28 fc ff ff 	mov    -0x3d8(%rbp),%rdx
    7d0b:	48 8b 85 70 fb ff ff 	mov    -0x490(%rbp),%rax
    7d12:	48 89 10             	mov    %rdx,(%rax)
    7d15:	48 8b 85 70 fb ff ff 	mov    -0x490(%rbp),%rax
    7d1c:	48 8b 00             	mov    (%rax),%rax
    7d1f:	48 85 c0             	test   %rax,%rax
    7d22:	0f 94 c0             	sete   %al
    7d25:	0f b6 c0             	movzbl %al,%eax
    7d28:	89 85 c4 fb ff ff    	mov    %eax,-0x43c(%rbp)
    7d2e:	e9 35 01 00 00       	jmpq   7e68 <func_17+0x113c>
    7d33:	c6 85 ef f9 ff ff 01 	movb   $0x1,-0x611(%rbp)
    7d3a:	48 8d 05 8f 85 00 00 	lea    0x858f(%rip),%rax        # 102d0 <g_346+0x1b0>
    7d41:	48 89 85 00 fd ff ff 	mov    %rax,-0x300(%rbp)
    7d48:	48 8d 05 45 83 00 00 	lea    0x8345(%rip),%rax        # 10094 <g_113>
    7d4f:	48 89 85 08 fd ff ff 	mov    %rax,-0x2f8(%rbp)
    7d56:	48 8d 05 73 85 00 00 	lea    0x8573(%rip),%rax        # 102d0 <g_346+0x1b0>
    7d5d:	48 89 85 10 fd ff ff 	mov    %rax,-0x2f0(%rbp)
    7d64:	48 8d 05 15 84 00 00 	lea    0x8415(%rip),%rax        # 10180 <g_346+0x60>
    7d6b:	48 89 85 18 fd ff ff 	mov    %rax,-0x2e8(%rbp)
    7d72:	48 8d 05 1b 83 00 00 	lea    0x831b(%rip),%rax        # 10094 <g_113>
    7d79:	48 89 85 20 fd ff ff 	mov    %rax,-0x2e0(%rbp)
    7d80:	48 8d 85 c0 fb ff ff 	lea    -0x440(%rbp),%rax
    7d87:	48 83 c0 08          	add    $0x8,%rax
    7d8b:	48 89 85 28 fd ff ff 	mov    %rax,-0x2d8(%rbp)
    7d92:	48 8d 85 c0 fb ff ff 	lea    -0x440(%rbp),%rax
    7d99:	48 83 c0 08          	add    $0x8,%rax
    7d9d:	48 89 85 30 fd ff ff 	mov    %rax,-0x2d0(%rbp)
    7da4:	48 8d 05 e9 82 00 00 	lea    0x82e9(%rip),%rax        # 10094 <g_113>
    7dab:	48 89 85 38 fd ff ff 	mov    %rax,-0x2c8(%rbp)
    7db2:	48 8d 05 c7 83 00 00 	lea    0x83c7(%rip),%rax        # 10180 <g_346+0x60>
    7db9:	48 89 85 40 fd ff ff 	mov    %rax,-0x2c0(%rbp)
    7dc0:	48 8d 05 09 85 00 00 	lea    0x8509(%rip),%rax        # 102d0 <g_346+0x1b0>
    7dc7:	48 89 85 48 fd ff ff 	mov    %rax,-0x2b8(%rbp)
    7dce:	48 8d 05 03 87 00 00 	lea    0x8703(%rip),%rax        # 104d8 <g_840>
    7dd5:	48 89 85 50 fd ff ff 	mov    %rax,-0x2b0(%rbp)
    7ddc:	48 8d 05 f5 86 00 00 	lea    0x86f5(%rip),%rax        # 104d8 <g_840>
    7de3:	48 89 85 58 fd ff ff 	mov    %rax,-0x2a8(%rbp)
    7dea:	48 c7 85 60 fd ff ff 	movq   $0x0,-0x2a0(%rbp)
    7df1:	00 00 00 00 
    7df5:	48 8d 05 98 82 00 00 	lea    0x8298(%rip),%rax        # 10094 <g_113>
    7dfc:	48 89 85 68 fd ff ff 	mov    %rax,-0x298(%rbp)
    7e03:	48 8d 85 c0 fb ff ff 	lea    -0x440(%rbp),%rax
    7e0a:	48 83 c0 04          	add    $0x4,%rax
    7e0e:	48 89 85 70 fd ff ff 	mov    %rax,-0x290(%rbp)
    7e15:	48 c7 85 78 fd ff ff 	movq   $0x0,-0x288(%rbp)
    7e1c:	00 00 00 00 
    7e20:	48 8d 85 c0 fb ff ff 	lea    -0x440(%rbp),%rax
    7e27:	48 83 c0 04          	add    $0x4,%rax
    7e2b:	48 89 85 80 fd ff ff 	mov    %rax,-0x280(%rbp)
    7e32:	48 8d 05 5b 82 00 00 	lea    0x825b(%rip),%rax        # 10094 <g_113>
    7e39:	48 89 85 88 fd ff ff 	mov    %rax,-0x278(%rbp)
    7e40:	48 c7 85 90 fd ff ff 	movq   $0x0,-0x270(%rbp)
    7e47:	00 00 00 00 
    7e4b:	48 8d 05 86 86 00 00 	lea    0x8686(%rip),%rax        # 104d8 <g_840>
    7e52:	48 89 85 98 fd ff ff 	mov    %rax,-0x268(%rbp)
    7e59:	80 85 ef f9 ff ff 01 	addb   $0x1,-0x611(%rbp)
    7e60:	48 83 85 a0 fa ff ff 	addq   $0x1,-0x560(%rbp)
    7e67:	01 
    7e68:	66 c7 05 3f 82 00 00 	movw   $0x4,0x823f(%rip)        # 100b0 <g_165>
    7e6f:	04 00 
    7e71:	e9 63 01 00 00       	jmpq   7fd9 <func_17+0x12ad>
    7e76:	48 8b 05 43 82 00 00 	mov    0x8243(%rip),%rax        # 100c0 <g_209>
    7e7d:	48 83 bd 60 fb ff ff 	cmpq   $0x0,-0x4a0(%rbp)
    7e84:	00 
    7e85:	0f 94 c0             	sete   %al
    7e88:	0f b6 f0             	movzbl %al,%esi
    7e8b:	0f bf 85 d8 f9 ff ff 	movswl -0x628(%rbp),%eax
    7e92:	0f b7 15 17 82 00 00 	movzwl 0x8217(%rip),%edx        # 100b0 <g_165>
    7e99:	0f bf d2             	movswl %dx,%edx
    7e9c:	8d 4a 04             	lea    0x4(%rdx),%ecx
    7e9f:	0f bf 95 d8 f9 ff ff 	movswl -0x628(%rbp),%edx
    7ea6:	48 63 fa             	movslq %edx,%rdi
    7ea9:	48 63 d0             	movslq %eax,%rdx
    7eac:	48 63 c9             	movslq %ecx,%rcx
    7eaf:	48 89 d0             	mov    %rdx,%rax
    7eb2:	48 01 c0             	add    %rax,%rax
    7eb5:	48 01 d0             	add    %rdx,%rax
    7eb8:	48 89 c2             	mov    %rax,%rdx
    7ebb:	48 c1 e2 04          	shl    $0x4,%rdx
    7ebf:	48 29 c2             	sub    %rax,%rdx
    7ec2:	48 89 c8             	mov    %rcx,%rax
    7ec5:	48 c1 e0 02          	shl    $0x2,%rax
    7ec9:	48 01 c8             	add    %rcx,%rax
    7ecc:	48 01 d0             	add    %rdx,%rax
    7ecf:	48 01 f8             	add    %rdi,%rax
    7ed2:	48 8d 14 85 00 00 00 	lea    0x0(,%rax,4),%rdx
    7ed9:	00 
    7eda:	48 8d 05 3f 82 00 00 	lea    0x823f(%rip),%rax        # 10120 <g_346>
    7ee1:	8b 04 02             	mov    (%rdx,%rax,1),%eax
    7ee4:	48 98                	cltq   
    7ee6:	48 89 c7             	mov    %rax,%rdi
    7ee9:	e8 ba c9 ff ff       	callq  48a8 <safe_sub_func_int64_t_s_s>
    7eee:	0f bf 95 d8 f9 ff ff 	movswl -0x628(%rbp),%edx
    7ef5:	0f bf 8d d8 f9 ff ff 	movswl -0x628(%rbp),%ecx
    7efc:	8d 79 02             	lea    0x2(%rcx),%edi
    7eff:	0f bf 8d d8 f9 ff ff 	movswl -0x628(%rbp),%ecx
    7f06:	41 89 c0             	mov    %eax,%r8d
    7f09:	48 63 f1             	movslq %ecx,%rsi
    7f0c:	48 63 d2             	movslq %edx,%rdx
    7f0f:	48 63 cf             	movslq %edi,%rcx
    7f12:	48 89 d0             	mov    %rdx,%rax
    7f15:	48 01 c0             	add    %rax,%rax
    7f18:	48 01 d0             	add    %rdx,%rax
    7f1b:	48 89 c2             	mov    %rax,%rdx
    7f1e:	48 c1 e2 04          	shl    $0x4,%rdx
    7f22:	48 29 c2             	sub    %rax,%rdx
    7f25:	48 89 c8             	mov    %rcx,%rax
    7f28:	48 c1 e0 02          	shl    $0x2,%rax
    7f2c:	48 01 c8             	add    %rcx,%rax
    7f2f:	48 01 d0             	add    %rdx,%rax
    7f32:	48 01 f0             	add    %rsi,%rax
    7f35:	48 8d 14 85 00 00 00 	lea    0x0(,%rax,4),%rdx
    7f3c:	00 
    7f3d:	48 8d 05 dc 81 00 00 	lea    0x81dc(%rip),%rax        # 10120 <g_346>
    7f44:	44 89 04 02          	mov    %r8d,(%rdx,%rax,1)
    7f48:	48 83 bd c0 fa ff ff 	cmpq   $0x0,-0x540(%rbp)
    7f4f:	00 
    7f50:	74 13                	je     7f65 <func_17+0x1239>
    7f52:	0f b7 05 57 81 00 00 	movzwl 0x8157(%rip),%eax        # 100b0 <g_165>
    7f59:	83 e8 01             	sub    $0x1,%eax
    7f5c:	66 89 05 4d 81 00 00 	mov    %ax,0x814d(%rip)        # 100b0 <g_165>
    7f63:	eb 74                	jmp    7fd9 <func_17+0x12ad>
    7f65:	48 8b 85 68 fb ff ff 	mov    -0x498(%rbp),%rax
    7f6c:	89 c6                	mov    %eax,%esi
    7f6e:	0f b7 05 3b 81 00 00 	movzwl 0x813b(%rip),%eax        # 100b0 <g_165>
    7f75:	0f bf d0             	movswl %ax,%edx
    7f78:	0f b7 05 31 81 00 00 	movzwl 0x8131(%rip),%eax        # 100b0 <g_165>
    7f7f:	98                   	cwtl   
    7f80:	0f b7 0d 29 81 00 00 	movzwl 0x8129(%rip),%ecx        # 100b0 <g_165>
    7f87:	0f bf c9             	movswl %cx,%ecx
    7f8a:	f7 d6                	not    %esi
    7f8c:	48 63 f9             	movslq %ecx,%rdi
    7f8f:	48 63 d2             	movslq %edx,%rdx
    7f92:	48 63 c8             	movslq %eax,%rcx
    7f95:	48 89 d0             	mov    %rdx,%rax
    7f98:	48 01 c0             	add    %rax,%rax
    7f9b:	48 01 d0             	add    %rdx,%rax
    7f9e:	48 89 c2             	mov    %rax,%rdx
    7fa1:	48 c1 e2 04          	shl    $0x4,%rdx
    7fa5:	48 29 c2             	sub    %rax,%rdx
    7fa8:	48 89 c8             	mov    %rcx,%rax
    7fab:	48 c1 e0 02          	shl    $0x2,%rax
    7faf:	48 01 c8             	add    %rcx,%rax
    7fb2:	48 01 d0             	add    %rdx,%rax
    7fb5:	48 01 f8             	add    %rdi,%rax
    7fb8:	48 8d 14 85 00 00 00 	lea    0x0(,%rax,4),%rdx
    7fbf:	00 
    7fc0:	48 8d 05 59 81 00 00 	lea    0x8159(%rip),%rax        # 10120 <g_346>
    7fc7:	89 34 02             	mov    %esi,(%rdx,%rax,1)
    7fca:	48 8b 05 ef 9a 00 00 	mov    0x9aef(%rip),%rax        # 11ac0 <g_699>
    7fd1:	0f b6 00             	movzbl (%rax),%eax
    7fd4:	e9 79 06 00 00       	jmpq   8652 <func_17+0x1926>
    7fd9:	0f b7 05 d0 80 00 00 	movzwl 0x80d0(%rip),%eax        # 100b0 <g_165>
    7fe0:	66 85 c0             	test   %ax,%ax
    7fe3:	0f 8f 8d fe ff ff    	jg     7e76 <func_17+0x114a>
    7fe9:	48 8b 15 e8 9a 00 00 	mov    0x9ae8(%rip),%rdx        # 11ad8 <g_740>
    7ff0:	48 8b 05 e1 9a 00 00 	mov    0x9ae1(%rip),%rax        # 11ad8 <g_740>
    7ff7:	48 8b 12             	mov    (%rdx),%rdx
    7ffa:	48 89 10             	mov    %rdx,(%rax)
    7ffd:	e9 c5 01 00 00       	jmpq   81c7 <func_17+0x149b>
    8002:	c7 85 4c fa ff ff 03 	movl   $0x3,-0x5b4(%rbp)
    8009:	00 00 00 
    800c:	c7 85 18 fa ff ff 00 	movl   $0x0,-0x5e8(%rbp)
    8013:	00 00 00 
    8016:	eb 6f                	jmp    8087 <func_17+0x135b>
    8018:	c7 85 1c fa ff ff 00 	movl   $0x0,-0x5e4(%rbp)
    801f:	00 00 00 
    8022:	eb 53                	jmp    8077 <func_17+0x134b>
    8024:	c7 85 20 fa ff ff 00 	movl   $0x0,-0x5e0(%rbp)
    802b:	00 00 00 
    802e:	eb 37                	jmp    8067 <func_17+0x133b>
    8030:	8b 85 20 fa ff ff    	mov    -0x5e0(%rbp),%eax
    8036:	48 98                	cltq   
    8038:	8b 95 18 fa ff ff    	mov    -0x5e8(%rbp),%edx
    803e:	48 63 ca             	movslq %edx,%rcx
    8041:	8b 95 1c fa ff ff    	mov    -0x5e4(%rbp),%edx
    8047:	48 63 d2             	movslq %edx,%rdx
    804a:	48 01 ca             	add    %rcx,%rdx
    804d:	48 c1 e2 02          	shl    $0x2,%rdx
    8051:	48 01 d0             	add    %rdx,%rax
    8054:	48 c7 84 c5 00 fd ff 	movq   $0x0,-0x300(%rbp,%rax,8)
    805b:	ff 00 00 00 00 
    8060:	83 85 20 fa ff ff 01 	addl   $0x1,-0x5e0(%rbp)
    8067:	83 bd 20 fa ff ff 03 	cmpl   $0x3,-0x5e0(%rbp)
    806e:	7e c0                	jle    8030 <func_17+0x1304>
    8070:	83 85 1c fa ff ff 01 	addl   $0x1,-0x5e4(%rbp)
    8077:	83 bd 1c fa ff ff 00 	cmpl   $0x0,-0x5e4(%rbp)
    807e:	7e a4                	jle    8024 <func_17+0x12f8>
    8080:	83 85 18 fa ff ff 01 	addl   $0x1,-0x5e8(%rbp)
    8087:	83 bd 18 fa ff ff 00 	cmpl   $0x0,-0x5e8(%rbp)
    808e:	7e 88                	jle    8018 <func_17+0x12ec>
    8090:	0f b7 85 d8 f9 ff ff 	movzwl -0x628(%rbp),%eax
    8097:	0f be d8             	movsbl %al,%ebx
    809a:	48 8b 05 4f 9a 00 00 	mov    0x9a4f(%rip),%rax        # 11af0 <g_877>
    80a1:	0f b6 00             	movzbl (%rax),%eax
    80a4:	44 0f be e0          	movsbl %al,%r12d
    80a8:	be f8 ff ff ff       	mov    $0xfffffff8,%esi
    80ad:	bf 21 a7 6b bc       	mov    $0xbc6ba721,%edi
    80b2:	e8 48 c6 ff ff       	callq  46ff <safe_div_func_int32_t_s_s>
    80b7:	0f b6 05 ea 83 00 00 	movzbl 0x83ea(%rip),%eax        # 104a8 <g_471>
    80be:	3c 01                	cmp    $0x1,%al
    80c0:	0f 94 c0             	sete   %al
    80c3:	0f b6 d0             	movzbl %al,%edx
    80c6:	0f bf 85 d8 f9 ff ff 	movswl -0x628(%rbp),%eax
    80cd:	39 c2                	cmp    %eax,%edx
    80cf:	0f 9c c0             	setl   %al
    80d2:	0f b6 c0             	movzbl %al,%eax
    80d5:	44 89 e6             	mov    %r12d,%esi
    80d8:	89 c7                	mov    %eax,%edi
    80da:	e8 56 c2 ff ff       	callq  4335 <safe_rshift_func_int8_t_s_s>
    80df:	0f b7 85 d8 f9 ff ff 	movzwl -0x628(%rbp),%eax
    80e6:	0f b7 d0             	movzwl %ax,%edx
    80e9:	48 83 bd c8 fa ff ff 	cmpq   $0x0,-0x538(%rbp)
    80f0:	00 
    80f1:	0f 95 c0             	setne  %al
    80f4:	0f b6 c0             	movzbl %al,%eax
    80f7:	89 d6                	mov    %edx,%esi
    80f9:	89 c7                	mov    %eax,%edi
    80fb:	e8 3d cc ff ff       	callq  4d3d <safe_mul_func_uint16_t_u_u>
    8100:	48 8b 85 60 fa ff ff 	mov    -0x5a0(%rbp),%rax
    8107:	48 85 c0             	test   %rax,%rax
    810a:	75 0a                	jne    8116 <func_17+0x13ea>
    810c:	66 83 bd d8 f9 ff ff 	cmpw   $0x0,-0x628(%rbp)
    8113:	00 
    8114:	74 07                	je     811d <func_17+0x13f1>
    8116:	ba 01 00 00 00       	mov    $0x1,%edx
    811b:	eb 05                	jmp    8122 <func_17+0x13f6>
    811d:	ba 00 00 00 00       	mov    $0x0,%edx
    8122:	0f b6 05 67 7f 00 00 	movzbl 0x7f67(%rip),%eax        # 10090 <g_38+0x4>
    8129:	0f b6 c0             	movzbl %al,%eax
    812c:	39 c2                	cmp    %eax,%edx
    812e:	0f 9f c0             	setg   %al
    8131:	89 c2                	mov    %eax,%edx
    8133:	48 8b 05 b6 99 00 00 	mov    0x99b6(%rip),%rax        # 11af0 <g_877>
    813a:	0f b6 00             	movzbl (%rax),%eax
    813d:	21 c2                	and    %eax,%edx
    813f:	8b 85 d4 f9 ff ff    	mov    -0x62c(%rbp),%eax
    8145:	09 d0                	or     %edx,%eax
    8147:	0f be c0             	movsbl %al,%eax
    814a:	89 de                	mov    %ebx,%esi
    814c:	89 c7                	mov    %eax,%edi
    814e:	e8 de c0 ff ff       	callq  4231 <safe_mod_func_int8_t_s_s>
    8153:	48 0f be d0          	movsbq %al,%rdx
    8157:	48 0f bf 85 f8 f9 ff 	movswq -0x608(%rbp),%rax
    815e:	ff 
    815f:	48 89 d6             	mov    %rdx,%rsi
    8162:	48 89 c7             	mov    %rax,%rdi
    8165:	e8 3e c7 ff ff       	callq  48a8 <safe_sub_func_int64_t_s_s>
    816a:	48 85 c0             	test   %rax,%rax
    816d:	74 46                	je     81b5 <func_17+0x1489>
    816f:	48 8d 85 00 fd ff ff 	lea    -0x300(%rbp),%rax
    8176:	48 83 c0 18          	add    $0x18,%rax
    817a:	48 89 85 50 fb ff ff 	mov    %rax,-0x4b0(%rbp)
    8181:	48 8b 05 a8 95 00 00 	mov    0x95a8(%rip),%rax        # 11730 <g_244>
    8188:	48 8b 00             	mov    (%rax),%rax
    818b:	0f bf 95 d8 f9 ff ff 	movswl -0x628(%rbp),%edx
    8192:	89 10                	mov    %edx,(%rax)
    8194:	48 8b 95 18 fd ff ff 	mov    -0x2e8(%rbp),%rdx
    819b:	48 8b 85 50 fb ff ff 	mov    -0x4b0(%rbp),%rax
    81a2:	48 89 10             	mov    %rdx,(%rax)
    81a5:	90                   	nop
    81a6:	8b 85 dc fc ff ff    	mov    -0x324(%rbp),%eax
    81ac:	85 c0                	test   %eax,%eax
    81ae:	74 17                	je     81c7 <func_17+0x149b>
    81b0:	e9 59 04 00 00       	jmpq   860e <func_17+0x18e2>
    81b5:	48 8b 05 0c 99 00 00 	mov    0x990c(%rip),%rax        # 11ac8 <g_698>
    81bc:	48 8b 00             	mov    (%rax),%rax
    81bf:	0f b6 00             	movzbl (%rax),%eax
    81c2:	e9 8b 04 00 00       	jmpq   8652 <func_17+0x1926>
    81c7:	0f b6 85 8b fb ff ff 	movzbl -0x475(%rbp),%eax
    81ce:	83 c0 01             	add    $0x1,%eax
    81d1:	88 85 8b fb ff ff    	mov    %al,-0x475(%rbp)
    81d7:	e9 0b 04 00 00       	jmpq   85e7 <func_17+0x18bb>
    81dc:	48 b8 03 dc 28 73 81 	movabs $0x5d1534817328dc03,%rax
    81e3:	34 15 5d 
    81e6:	48 89 85 e8 fa ff ff 	mov    %rax,-0x518(%rbp)
    81ed:	48 8d 05 a4 7e 00 00 	lea    0x7ea4(%rip),%rax        # 10098 <g_126>
    81f4:	48 89 85 f0 fa ff ff 	mov    %rax,-0x510(%rbp)
    81fb:	c7 85 dc f9 ff ff 00 	movl   $0x0,-0x624(%rbp)
    8202:	00 00 00 
    8205:	e9 d0 03 00 00       	jmpq   85da <func_17+0x18ae>
    820a:	48 c7 85 f8 fa ff ff 	movq   $0x0,-0x508(%rbp)
    8211:	00 00 00 00 
    8215:	48 8d 85 f0 f9 ff ff 	lea    -0x610(%rbp),%rax
    821c:	48 89 85 00 fb ff ff 	mov    %rax,-0x500(%rbp)
    8223:	48 8d 05 ee 9a 00 00 	lea    0x9aee(%rip),%rax        # 11d18 <g_1125>
    822a:	48 89 85 08 fb ff ff 	mov    %rax,-0x4f8(%rbp)
    8231:	48 8b 05 b8 98 00 00 	mov    0x98b8(%rip),%rax        # 11af0 <g_877>
    8238:	0f b6 00             	movzbl (%rax),%eax
    823b:	84 c0                	test   %al,%al
    823d:	0f 85 48 01 00 00    	jne    838b <func_17+0x165f>
    8243:	0f b7 05 c6 a1 00 00 	movzwl 0xa1c6(%rip),%eax        # 12410 <g_232>
    824a:	0f b7 c0             	movzwl %ax,%eax
    824d:	89 c6                	mov    %eax,%esi
    824f:	bf 01 00 00 00       	mov    $0x1,%edi
    8254:	e8 95 c0 ff ff       	callq  42ee <safe_lshift_func_int8_t_s_u>
    8259:	48 8b 85 e8 fa ff ff 	mov    -0x518(%rbp),%rax
    8260:	0f b6 d8             	movzbl %al,%ebx
    8263:	44 0f bf a5 f8 f9 ff 	movswl -0x608(%rbp),%r12d
    826a:	ff 
    826b:	8b 85 28 fa ff ff    	mov    -0x5d8(%rbp),%eax
    8271:	44 0f be e8          	movsbl %al,%r13d
    8275:	0f b6 85 ed f9 ff ff 	movzbl -0x613(%rbp),%eax
    827c:	89 c6                	mov    %eax,%esi
    827e:	bf de ff ff ff       	mov    $0xffffffde,%edi
    8283:	e8 ad c0 ff ff       	callq  4335 <safe_rshift_func_int8_t_s_s>
    8288:	84 c0                	test   %al,%al
    828a:	74 11                	je     829d <func_17+0x1571>
    828c:	48 83 bd e8 fa ff ff 	cmpq   $0x0,-0x518(%rbp)
    8293:	00 
    8294:	74 07                	je     829d <func_17+0x1571>
    8296:	b8 01 00 00 00       	mov    $0x1,%eax
    829b:	eb 05                	jmp    82a2 <func_17+0x1576>
    829d:	b8 00 00 00 00       	mov    $0x0,%eax
    82a2:	0f be c0             	movsbl %al,%eax
    82a5:	44 89 ee             	mov    %r13d,%esi
    82a8:	89 c7                	mov    %eax,%edi
    82aa:	e8 63 bf ff ff       	callq  4212 <safe_mul_func_int8_t_s_s>
    82af:	66 0f be d0          	movsbw %al,%dx
    82b3:	48 8b 85 00 fb ff ff 	mov    -0x500(%rbp),%rax
    82ba:	66 89 10             	mov    %dx,(%rax)
    82bd:	48 8b 85 00 fb ff ff 	mov    -0x500(%rbp),%rax
    82c4:	0f b7 00             	movzwl (%rax),%eax
    82c7:	98                   	cwtl   
    82c8:	44 89 e6             	mov    %r12d,%esi
    82cb:	89 c7                	mov    %eax,%edi
    82cd:	e8 23 c1 ff ff       	callq  43f5 <safe_mul_func_int16_t_s_s>
    82d2:	66 85 c0             	test   %ax,%ax
    82d5:	0f 94 c0             	sete   %al
    82d8:	0f b6 d0             	movzbl %al,%edx
    82db:	48 8b 0d 1e 99 00 00 	mov    0x991e(%rip),%rcx        # 11c00 <g_1100>
    82e2:	48 8b 05 17 99 00 00 	mov    0x9917(%rip),%rax        # 11c00 <g_1100>
    82e9:	0f b7 09             	movzwl (%rcx),%ecx
    82ec:	66 89 08             	mov    %cx,(%rax)
    82ef:	0f b7 00             	movzwl (%rax),%eax
    82f2:	98                   	cwtl   
    82f3:	89 d6                	mov    %edx,%esi
    82f5:	89 c7                	mov    %eax,%edi
    82f7:	e8 2e c2 ff ff       	callq  452a <safe_rshift_func_int16_t_s_s>
    82fc:	83 c8 a3             	or     $0xffffffa3,%eax
    82ff:	0f be c0             	movsbl %al,%eax
    8302:	be 04 00 00 00       	mov    $0x4,%esi
    8307:	89 c7                	mov    %eax,%edi
    8309:	e8 93 bf ff ff       	callq  42a1 <safe_lshift_func_int8_t_s_s>
    830e:	0f b6 c0             	movzbl %al,%eax
    8311:	89 de                	mov    %ebx,%esi
    8313:	89 c7                	mov    %eax,%edi
    8315:	e8 40 c8 ff ff       	callq  4b5a <safe_add_func_uint8_t_u_u>
    831a:	0f b6 c0             	movzbl %al,%eax
    831d:	48 39 85 e8 fa ff ff 	cmp    %rax,-0x518(%rbp)
    8324:	0f 97 c0             	seta   %al
    8327:	89 c2                	mov    %eax,%edx
    8329:	48 8b 05 60 97 00 00 	mov    0x9760(%rip),%rax        # 11a90 <g_559>
    8330:	0f b7 00             	movzwl (%rax),%eax
    8333:	31 d0                	xor    %edx,%eax
    8335:	0f be c0             	movsbl %al,%eax
    8338:	be 07 00 00 00       	mov    $0x7,%esi
    833d:	89 c7                	mov    %eax,%edi
    833f:	e8 f1 bf ff ff       	callq  4335 <safe_rshift_func_int8_t_s_s>
    8344:	0f be c0             	movsbl %al,%eax
    8347:	f7 d0                	not    %eax
    8349:	48 98                	cltq   
    834b:	48 39 85 e8 fa ff ff 	cmp    %rax,-0x518(%rbp)
    8352:	0f 94 c0             	sete   %al
    8355:	0f b6 c0             	movzbl %al,%eax
    8358:	be 07 00 00 00       	mov    $0x7,%esi
    835d:	89 c7                	mov    %eax,%edi
    835f:	e8 5a ca ff ff       	callq  4dbe <safe_lshift_func_uint16_t_u_s>
    8364:	48 8b 15 ad 99 00 00 	mov    0x99ad(%rip),%rdx        # 11d18 <g_1125>
    836b:	48 8b 85 08 fb ff ff 	mov    -0x4f8(%rbp),%rax
    8372:	48 89 10             	mov    %rdx,(%rax)
    8375:	48 8b 85 08 fb ff ff 	mov    -0x4f8(%rbp),%rax
    837c:	48 8b 10             	mov    (%rax),%rdx
    837f:	48 8b 05 8a 99 00 00 	mov    0x998a(%rip),%rax        # 11d10 <g_1098>
    8386:	48 39 c2             	cmp    %rax,%rdx
    8389:	75 07                	jne    8392 <func_17+0x1666>
    838b:	bf 01 00 00 00       	mov    $0x1,%edi
    8390:	eb 05                	jmp    8397 <func_17+0x166b>
    8392:	bf 00 00 00 00       	mov    $0x0,%edi
    8397:	0f bf 85 d8 f9 ff ff 	movswl -0x628(%rbp),%eax
    839e:	0f bf 95 d8 f9 ff ff 	movswl -0x628(%rbp),%edx
    83a5:	8d 4a 03             	lea    0x3(%rdx),%ecx
    83a8:	0f bf 95 d8 f9 ff ff 	movswl -0x628(%rbp),%edx
    83af:	48 63 f2             	movslq %edx,%rsi
    83b2:	48 63 d0             	movslq %eax,%rdx
    83b5:	48 63 c9             	movslq %ecx,%rcx
    83b8:	48 89 d0             	mov    %rdx,%rax
    83bb:	48 01 c0             	add    %rax,%rax
    83be:	48 01 d0             	add    %rdx,%rax
    83c1:	48 89 c2             	mov    %rax,%rdx
    83c4:	48 c1 e2 04          	shl    $0x4,%rdx
    83c8:	48 29 c2             	sub    %rax,%rdx
    83cb:	48 89 c8             	mov    %rcx,%rax
    83ce:	48 c1 e0 02          	shl    $0x2,%rax
    83d2:	48 01 c8             	add    %rcx,%rax
    83d5:	48 01 d0             	add    %rdx,%rax
    83d8:	48 01 f0             	add    %rsi,%rax
    83db:	48 8d 14 85 00 00 00 	lea    0x0(,%rax,4),%rdx
    83e2:	00 
    83e3:	48 8d 05 36 7d 00 00 	lea    0x7d36(%rip),%rax        # 10120 <g_346>
    83ea:	8b 0c 02             	mov    (%rdx,%rax,1),%ecx
    83ed:	0f bf 85 d8 f9 ff ff 	movswl -0x628(%rbp),%eax
    83f4:	0f bf 95 d8 f9 ff ff 	movswl -0x628(%rbp),%edx
    83fb:	44 8d 42 03          	lea    0x3(%rdx),%r8d
    83ff:	0f bf 95 d8 f9 ff ff 	movswl -0x628(%rbp),%edx
    8406:	89 fe                	mov    %edi,%esi
    8408:	21 ce                	and    %ecx,%esi
    840a:	48 63 fa             	movslq %edx,%rdi
    840d:	48 63 d0             	movslq %eax,%rdx
    8410:	49 63 c8             	movslq %r8d,%rcx
    8413:	48 89 d0             	mov    %rdx,%rax
    8416:	48 01 c0             	add    %rax,%rax
    8419:	48 01 d0             	add    %rdx,%rax
    841c:	48 89 c2             	mov    %rax,%rdx
    841f:	48 c1 e2 04          	shl    $0x4,%rdx
    8423:	48 29 c2             	sub    %rax,%rdx
    8426:	48 89 c8             	mov    %rcx,%rax
    8429:	48 c1 e0 02          	shl    $0x2,%rax
    842d:	48 01 c8             	add    %rcx,%rax
    8430:	48 01 d0             	add    %rdx,%rax
    8433:	48 01 f8             	add    %rdi,%rax
    8436:	48 8d 14 85 00 00 00 	lea    0x0(,%rax,4),%rdx
    843d:	00 
    843e:	48 8d 05 db 7c 00 00 	lea    0x7cdb(%rip),%rax        # 10120 <g_346>
    8445:	89 34 02             	mov    %esi,(%rdx,%rax,1)
    8448:	66 c7 85 f0 f9 ff ff 	movw   $0x0,-0x610(%rbp)
    844f:	00 00 
    8451:	e9 64 01 00 00       	jmpq   85ba <func_17+0x188e>
    8456:	66 c7 85 fa f9 ff ff 	movw   $0x0,-0x606(%rbp)
    845d:	00 00 
    845f:	48 8d 05 42 96 00 00 	lea    0x9642(%rip),%rax        # 11aa8 <g_587>
    8466:	48 89 85 90 fa ff ff 	mov    %rax,-0x570(%rbp)
    846d:	48 8d 85 90 fa ff ff 	lea    -0x570(%rbp),%rax
    8474:	48 89 85 98 fa ff ff 	mov    %rax,-0x568(%rbp)
    847b:	48 8d 85 98 fa ff ff 	lea    -0x568(%rbp),%rax
    8482:	48 89 85 10 fb ff ff 	mov    %rax,-0x4f0(%rbp)
    8489:	48 8b 85 e8 fa ff ff 	mov    -0x518(%rbp),%rax
    8490:	66 89 85 fa f9 ff ff 	mov    %ax,-0x606(%rbp)
    8497:	48 8b 05 72 7c 00 00 	mov    0x7c72(%rip),%rax        # 10110 <g_297+0x30>
    849e:	41 89 c6             	mov    %eax,%r14d
    84a1:	0f b7 85 fa f9 ff ff 	movzwl -0x606(%rbp),%eax
    84a8:	0f b6 d8             	movzbl %al,%ebx
    84ab:	44 8b a5 dc fc ff ff 	mov    -0x324(%rbp),%r12d
    84b2:	48 8b 05 37 80 00 00 	mov    0x8037(%rip),%rax        # 104f0 <g_1137>
    84b9:	48 8b 15 38 80 00 00 	mov    0x8038(%rip),%rdx        # 104f8 <g_1137+0x8>
    84c0:	44 0f b6 2d c8 7b 00 	movzbl 0x7bc8(%rip),%r13d        # 10090 <g_38+0x4>
    84c7:	00 
    84c8:	be fd f2 89 01       	mov    $0x189f2fd,%esi
    84cd:	bf 01 00 00 00       	mov    $0x1,%edi
    84d2:	e8 f9 c9 ff ff       	callq  4ed0 <safe_sub_func_uint32_t_u_u>
    84d7:	0f b6 c0             	movzbl %al,%eax
    84da:	be 03 00 00 00       	mov    $0x3,%esi
    84df:	89 c7                	mov    %eax,%edi
    84e1:	e8 d8 c7 ff ff       	callq  4cbe <safe_rshift_func_uint8_t_u_u>
    84e6:	41 38 c5             	cmp    %al,%r13b
    84e9:	0f 96 c0             	setbe  %al
    84ec:	0f b6 c0             	movzbl %al,%eax
    84ef:	44 89 e6             	mov    %r12d,%esi
    84f2:	89 c7                	mov    %eax,%edi
    84f4:	e8 c5 c7 ff ff       	callq  4cbe <safe_rshift_func_uint8_t_u_u>
    84f9:	89 de                	mov    %ebx,%esi
    84fb:	bf 01 00 00 00       	mov    $0x1,%edi
    8500:	e8 8e c6 ff ff       	callq  4b93 <safe_mul_func_uint8_t_u_u>
    8505:	8b 85 2c fa ff ff    	mov    -0x5d4(%rbp),%eax
    850b:	44 89 f6             	mov    %r14d,%esi
    850e:	89 c7                	mov    %eax,%edi
    8510:	e8 e8 c9 ff ff       	callq  4efd <safe_mod_func_uint32_t_u_u>
    8515:	48 8b 05 84 93 00 00 	mov    0x9384(%rip),%rax        # 118a0 <g_251>
    851c:	0f bf 95 d8 f9 ff ff 	movswl -0x628(%rbp),%edx
    8523:	0f bf 85 d8 f9 ff ff 	movswl -0x628(%rbp),%eax
    852a:	44 8d 40 03          	lea    0x3(%rax),%r8d
    852e:	0f bf 8d d8 f9 ff ff 	movswl -0x628(%rbp),%ecx
    8535:	48 8b 05 ac 95 00 00 	mov    0x95ac(%rip),%rax        # 11ae8 <g_738>
    853c:	48 8b 00             	mov    (%rax),%rax
    853f:	48 8b 30             	mov    (%rax),%rsi
    8542:	48 63 f9             	movslq %ecx,%rdi
    8545:	48 63 d2             	movslq %edx,%rdx
    8548:	48 89 d0             	mov    %rdx,%rax
    854b:	48 01 c0             	add    %rax,%rax
    854e:	48 01 d0             	add    %rdx,%rax
    8551:	48 89 c2             	mov    %rax,%rdx
    8554:	48 c1 e2 04          	shl    $0x4,%rdx
    8558:	48 29 c2             	sub    %rax,%rdx
    855b:	49 63 c8             	movslq %r8d,%rcx
    855e:	48 89 c8             	mov    %rcx,%rax
    8561:	48 c1 e0 02          	shl    $0x2,%rax
    8565:	48 01 c8             	add    %rcx,%rax
    8568:	48 01 d0             	add    %rdx,%rax
    856b:	48 01 f8             	add    %rdi,%rax
    856e:	48 8d 14 85 00 00 00 	lea    0x0(,%rax,4),%rdx
    8575:	00 
    8576:	48 8d 05 a3 7b 00 00 	lea    0x7ba3(%rip),%rax        # 10120 <g_346>
    857d:	48 01 d0             	add    %rdx,%rax
    8580:	48 89 06             	mov    %rax,(%rsi)
    8583:	8b 15 93 81 00 00    	mov    0x8193(%rip),%edx        # 1071c <g_1156+0x1fc>
    8589:	48 8b 05 28 95 00 00 	mov    0x9528(%rip),%rax        # 11ab8 <g_602>
    8590:	48 8b 00             	mov    (%rax),%rax
    8593:	48 8b 00             	mov    (%rax),%rax
    8596:	8b 00                	mov    (%rax),%eax
    8598:	09 c2                	or     %eax,%edx
    859a:	48 8b 05 17 95 00 00 	mov    0x9517(%rip),%rax        # 11ab8 <g_602>
    85a1:	48 8b 00             	mov    (%rax),%rax
    85a4:	48 8b 00             	mov    (%rax),%rax
    85a7:	89 10                	mov    %edx,(%rax)
    85a9:	0f b7 85 f0 f9 ff ff 	movzwl -0x610(%rbp),%eax
    85b0:	83 e8 01             	sub    $0x1,%eax
    85b3:	66 89 85 f0 f9 ff ff 	mov    %ax,-0x610(%rbp)
    85ba:	0f b7 85 f0 f9 ff ff 	movzwl -0x610(%rbp),%eax
    85c1:	66 83 f8 fd          	cmp    $0xfffd,%ax
    85c5:	0f 84 8b fe ff ff    	je     8456 <func_17+0x172a>
    85cb:	66 83 bd d8 f9 ff ff 	cmpw   $0x0,-0x628(%rbp)
    85d2:	00 
    85d3:	83 85 dc f9 ff ff 01 	addl   $0x1,-0x624(%rbp)
    85da:	83 bd dc f9 ff ff 04 	cmpl   $0x4,-0x624(%rbp)
    85e1:	0f 86 23 fc ff ff    	jbe    820a <func_17+0x14de>
    85e7:	66 83 bd d8 f9 ff ff 	cmpw   $0x0,-0x628(%rbp)
    85ee:	00 
    85ef:	0f 94 c0             	sete   %al
    85f2:	0f b6 c0             	movzbl %al,%eax
    85f5:	66 21 85 f2 f9 ff ff 	and    %ax,-0x60e(%rbp)
    85fc:	48 8b 05 0d 83 00 00 	mov    0x830d(%rip),%rax        # 10910 <g_1164>
    8603:	48 83 e8 01          	sub    $0x1,%rax
    8607:	48 89 05 02 83 00 00 	mov    %rax,0x8302(%rip)        # 10910 <g_1164>
    860e:	0f b7 85 d8 f9 ff ff 	movzwl -0x628(%rbp),%eax
    8615:	83 e8 01             	sub    $0x1,%eax
    8618:	66 89 85 d8 f9 ff ff 	mov    %ax,-0x628(%rbp)
    861f:	66 83 bd d8 f9 ff ff 	cmpw   $0x0,-0x628(%rbp)
    8626:	00 
    8627:	0f 89 7f ea ff ff    	jns    70ac <func_17+0x380>
    862d:	0f b6 05 64 7a 00 00 	movzbl 0x7a64(%rip),%eax        # 10098 <g_126>
    8634:	83 c0 01             	add    $0x1,%eax
    8637:	88 05 5b 7a 00 00    	mov    %al,0x7a5b(%rip)        # 10098 <g_126>
    863d:	0f b6 05 54 7a 00 00 	movzbl 0x7a54(%rip),%eax        # 10098 <g_126>
    8644:	3c f9                	cmp    $0xf9,%al
    8646:	0f 8d a1 e9 ff ff    	jge    6fed <func_17+0x2c1>
    864c:	8b 85 dc f9 ff ff    	mov    -0x624(%rbp),%eax
    8652:	48 8b 5d d8          	mov    -0x28(%rbp),%rbx
    8656:	64 48 33 1c 25 28 00 	xor    %fs:0x28,%rbx
    865d:	00 00 
    865f:	74 05                	je     8666 <func_17+0x193a>
    8661:	e8 0a ba ff ff       	callq  4070 <__stack_chk_fail@plt>
    8666:	48 81 c4 10 06 00 00 	add    $0x610,%rsp
    866d:	5b                   	pop    %rbx
    866e:	41 5c                	pop    %r12
    8670:	41 5d                	pop    %r13
    8672:	41 5e                	pop    %r14
    8674:	5d                   	pop    %rbp
    8675:	c3                   	retq   

0000000000008676 <func_29>:
    8676:	f3 0f 1e fa          	endbr64 
    867a:	55                   	push   %rbp
    867b:	48 89 e5             	mov    %rsp,%rbp
    867e:	41 57                	push   %r15
    8680:	41 56                	push   %r14
    8682:	41 55                	push   %r13
    8684:	41 54                	push   %r12
    8686:	53                   	push   %rbx
    8687:	48 81 ec d8 08 00 00 	sub    $0x8d8,%rsp
    868e:	89 bd 1c f7 ff ff    	mov    %edi,-0x8e4(%rbp)
    8694:	89 f0                	mov    %esi,%eax
    8696:	66 89 85 18 f7 ff ff 	mov    %ax,-0x8e8(%rbp)
    869d:	64 48 8b 04 25 28 00 	mov    %fs:0x28,%rax
    86a4:	00 00 
    86a6:	48 89 45 c8          	mov    %rax,-0x38(%rbp)
    86aa:	31 c0                	xor    %eax,%eax
    86ac:	48 8d 05 d5 79 00 00 	lea    0x79d5(%rip),%rax        # 10088 <g_34>
    86b3:	48 89 85 40 f7 ff ff 	mov    %rax,-0x8c0(%rbp)
    86ba:	48 8d 05 c7 79 00 00 	lea    0x79c7(%rip),%rax        # 10088 <g_34>
    86c1:	48 89 85 48 f7 ff ff 	mov    %rax,-0x8b8(%rbp)
    86c8:	48 8d 85 e0 f9 ff ff 	lea    -0x620(%rbp),%rax
    86cf:	48 8d 15 0a 88 00 00 	lea    0x880a(%rip),%rdx        # 10ee0 <g_1339+0x170>
    86d6:	b9 bd 00 00 00       	mov    $0xbd,%ecx
    86db:	48 89 c7             	mov    %rax,%rdi
    86de:	48 89 d6             	mov    %rdx,%rsi
    86e1:	f3 48 a5             	rep movsq %ds:(%rsi),%es:(%rdi)
    86e4:	48 b8 37 19 c3 0e c5 	movabs $0x7b6eb5c50ec31937,%rax
    86eb:	b5 6e 7b 
    86ee:	48 89 85 50 f7 ff ff 	mov    %rax,-0x8b0(%rbp)
    86f5:	48 8d 05 14 9d 00 00 	lea    0x9d14(%rip),%rax        # 12410 <g_232>
    86fc:	48 89 85 58 f7 ff ff 	mov    %rax,-0x8a8(%rbp)
    8703:	c7 85 2c f7 ff ff 8e 	movl   $0x8310518e,-0x8d4(%rbp)
    870a:	51 10 83 
    870d:	48 8d 05 b6 7d 00 00 	lea    0x7db6(%rip),%rax        # 104ca <g_790+0x2>
    8714:	48 89 85 30 f7 ff ff 	mov    %rax,-0x8d0(%rbp)
    871b:	48 8d 85 30 f7 ff ff 	lea    -0x8d0(%rbp),%rax
    8722:	48 89 85 60 f7 ff ff 	mov    %rax,-0x8a0(%rbp)
    8729:	48 8d 05 88 93 00 00 	lea    0x9388(%rip),%rax        # 11ab8 <g_602>
    8730:	48 89 85 38 f7 ff ff 	mov    %rax,-0x8c8(%rbp)
    8737:	48 8d 85 38 f7 ff ff 	lea    -0x8c8(%rbp),%rax
    873e:	48 89 85 68 f7 ff ff 	mov    %rax,-0x898(%rbp)
    8745:	48 8d 85 a0 f7 ff ff 	lea    -0x860(%rbp),%rax
    874c:	48 8d 15 8d 8d 00 00 	lea    0x8d8d(%rip),%rdx        # 114e0 <g_1339+0x770>
    8753:	b9 48 00 00 00       	mov    $0x48,%ecx
    8758:	48 89 c7             	mov    %rax,%rdi
    875b:	48 89 d6             	mov    %rdx,%rsi
    875e:	f3 48 a5             	rep movsq %ds:(%rsi),%es:(%rdi)
    8761:	66 c7 85 26 f7 ff ff 	movw   $0xfff7,-0x8da(%rbp)
    8768:	f7 ff 
    876a:	c7 85 28 f7 ff ff 00 	movl   $0x0,-0x8d8(%rbp)
    8771:	00 00 00 
    8774:	eb 1a                	jmp    8790 <func_29+0x11a>
    8776:	8b 85 28 f7 ff ff    	mov    -0x8d8(%rbp),%eax
    877c:	48 98                	cltq   
    877e:	c7 84 85 70 f7 ff ff 	movl   $0x1,-0x890(%rbp,%rax,4)
    8785:	01 00 00 00 
    8789:	83 85 28 f7 ff ff 01 	addl   $0x1,-0x8d8(%rbp)
    8790:	83 bd 28 f7 ff ff 08 	cmpl   $0x8,-0x8d8(%rbp)
    8797:	7e dd                	jle    8776 <func_29+0x100>
    8799:	0f b6 05 ef 78 00 00 	movzbl 0x78ef(%rip),%eax        # 1008f <g_38+0x3>
    87a0:	83 e8 01             	sub    $0x1,%eax
    87a3:	88 05 e6 78 00 00    	mov    %al,0x78e6(%rip)        # 1008f <g_38+0x3>
    87a9:	44 0f b7 a5 18 f7 ff 	movzwl -0x8e8(%rbp),%r12d
    87b0:	ff 
    87b1:	44 8b b5 2c f7 ff ff 	mov    -0x8d4(%rbp),%r14d
    87b8:	44 0f b7 ad 18 f7 ff 	movzwl -0x8e8(%rbp),%r13d
    87bf:	ff 
    87c0:	83 bd 1c f7 ff ff 00 	cmpl   $0x0,-0x8e4(%rbp)
    87c7:	0f 84 05 01 00 00    	je     88d2 <func_29+0x25c>
    87cd:	48 8b 05 84 78 00 00 	mov    0x7884(%rip),%rax        # 10058 <g_5+0x18>
    87d4:	0f bf d0             	movswl %ax,%edx
    87d7:	48 8b 85 48 f7 ff ff 	mov    -0x8b8(%rbp),%rax
    87de:	8b 08                	mov    (%rax),%ecx
    87e0:	0f b7 85 18 f7 ff ff 	movzwl -0x8e8(%rbp),%eax
    87e7:	21 c1                	and    %eax,%ecx
    87e9:	48 8b 85 48 f7 ff ff 	mov    -0x8b8(%rbp),%rax
    87f0:	89 08                	mov    %ecx,(%rax)
    87f2:	48 8b 85 48 f7 ff ff 	mov    -0x8b8(%rbp),%rax
    87f9:	8b 00                	mov    (%rax),%eax
    87fb:	89 c1                	mov    %eax,%ecx
    87fd:	8b 85 1c f7 ff ff    	mov    -0x8e4(%rbp),%eax
    8803:	31 c8                	xor    %ecx,%eax
    8805:	98                   	cwtl   
    8806:	89 d6                	mov    %edx,%esi
    8808:	89 c7                	mov    %eax,%edi
    880a:	e8 e6 bb ff ff       	callq  43f5 <safe_mul_func_int16_t_s_s>
    880f:	8b 05 c7 79 00 00    	mov    0x79c7(%rip),%eax        # 101dc <g_346+0xbc>
    8815:	48 98                	cltq   
    8817:	48 89 85 10 f7 ff ff 	mov    %rax,-0x8f0(%rbp)
    881e:	48 8b 05 bb 92 00 00 	mov    0x92bb(%rip),%rax        # 11ae0 <g_739>
    8825:	48 8b 00             	mov    (%rax),%rax
    8828:	48 8b 18             	mov    (%rax),%rbx
    882b:	48 89 9d 08 f7 ff ff 	mov    %rbx,-0x8f8(%rbp)
    8832:	4c 8b bd 38 fe ff ff 	mov    -0x1c8(%rbp),%r15
    8839:	8b 05 a1 7b 00 00    	mov    0x7ba1(%rip),%eax        # 103e0 <g_346+0x2c0>
    883f:	89 85 04 f7 ff ff    	mov    %eax,-0x8fc(%rbp)
    8845:	48 8b 85 48 f7 ff ff 	mov    -0x8b8(%rbp),%rax
    884c:	8b 10                	mov    (%rax),%edx
    884e:	48 83 bd 40 f7 ff ff 	cmpq   $0x0,-0x8c0(%rbp)
    8855:	00 
    8856:	0f 94 c0             	sete   %al
    8859:	0f b6 c8             	movzbl %al,%ecx
    885c:	48 8b 85 48 f7 ff ff 	mov    -0x8b8(%rbp),%rax
    8863:	8b 00                	mov    (%rax),%eax
    8865:	39 c1                	cmp    %eax,%ecx
    8867:	0f 95 c0             	setne  %al
    886a:	0f b6 c0             	movzbl %al,%eax
    886d:	89 d6                	mov    %edx,%esi
    886f:	89 c7                	mov    %eax,%edi
    8871:	e8 40 bd ff ff       	callq  45b6 <safe_add_func_int32_t_s_s>
    8876:	48 8b 85 60 fd ff ff 	mov    -0x2a0(%rbp),%rax
    887d:	48 8b 15 34 92 00 00 	mov    0x9234(%rip),%rdx        # 11ab8 <g_602>
    8884:	48 8b 1a             	mov    (%rdx),%rbx
    8887:	48 8d 15 fa 77 00 00 	lea    0x77fa(%rip),%rdx        # 10088 <g_34>
    888e:	be d3 ff ff ff       	mov    $0xffffffd3,%esi
    8893:	48 89 c7             	mov    %rax,%rdi
    8896:	e8 20 07 00 00       	callq  8fbb <func_60>
    889b:	48 89 03             	mov    %rax,(%rbx)
    889e:	48 8b 03             	mov    (%rbx),%rax
    88a1:	4c 8b 85 10 f7 ff ff 	mov    -0x8f0(%rbp),%r8
    88a8:	48 8b 8d 08 f7 ff ff 	mov    -0x8f8(%rbp),%rcx
    88af:	4c 89 fa             	mov    %r15,%rdx
    88b2:	8b b5 04 f7 ff ff    	mov    -0x8fc(%rbp),%esi
    88b8:	48 89 c7             	mov    %rax,%rdi
    88bb:	e8 d6 04 00 00       	callq  8d96 <func_54>
    88c0:	0f b7 95 18 f7 ff ff 	movzwl -0x8e8(%rbp),%edx
    88c7:	39 d0                	cmp    %edx,%eax
    88c9:	7e 07                	jle    88d2 <func_29+0x25c>
    88cb:	b8 01 00 00 00       	mov    $0x1,%eax
    88d0:	eb 05                	jmp    88d7 <func_29+0x261>
    88d2:	b8 00 00 00 00       	mov    $0x0,%eax
    88d7:	0f be c0             	movsbl %al,%eax
    88da:	89 c7                	mov    %eax,%edi
    88dc:	e8 de b8 ff ff       	callq  41bf <safe_unary_minus_func_int8_t_s>
    88e1:	89 c2                	mov    %eax,%edx
    88e3:	48 8b 05 ae 91 00 00 	mov    0x91ae(%rip),%rax        # 11a98 <g_558>
    88ea:	48 8b 00             	mov    (%rax),%rax
    88ed:	66 0f be d2          	movsbw %dl,%dx
    88f1:	66 89 10             	mov    %dx,(%rax)
    88f4:	0f b7 10             	movzwl (%rax),%edx
    88f7:	48 8b 85 58 f7 ff ff 	mov    -0x8a8(%rbp),%rax
    88fe:	0f b7 00             	movzwl (%rax),%eax
    8901:	09 c2                	or     %eax,%edx
    8903:	48 8b 85 58 f7 ff ff 	mov    -0x8a8(%rbp),%rax
    890a:	66 89 10             	mov    %dx,(%rax)
    890d:	48 8b 85 58 f7 ff ff 	mov    -0x8a8(%rbp),%rax
    8914:	0f b7 00             	movzwl (%rax),%eax
    8917:	0f b7 c0             	movzwl %ax,%eax
    891a:	be 9c da 00 00       	mov    $0xda9c,%esi
    891f:	89 c7                	mov    %eax,%edi
    8921:	e8 68 c4 ff ff       	callq  4d8e <safe_div_func_uint16_t_u_u>
    8926:	0f b7 c0             	movzwl %ax,%eax
    8929:	4c 89 f2             	mov    %r14,%rdx
    892c:	44 89 ee             	mov    %r13d,%esi
    892f:	89 c7                	mov    %eax,%edi
    8931:	e8 ac 01 00 00       	callq  8ae2 <func_45>
    8936:	83 f8 02             	cmp    $0x2,%eax
    8939:	0f 95 c0             	setne  %al
    893c:	0f b6 c0             	movzbl %al,%eax
    893f:	0f b7 95 18 f7 ff ff 	movzwl -0x8e8(%rbp),%edx
    8946:	81 e2 62 ed 00 00    	and    $0xed62,%edx
    894c:	89 c6                	mov    %eax,%esi
    894e:	89 d7                	mov    %edx,%edi
    8950:	e8 e8 c3 ff ff       	callq  4d3d <safe_mul_func_uint16_t_u_u>
    8955:	0f b7 c0             	movzwl %ax,%eax
    8958:	44 89 e6             	mov    %r12d,%esi
    895b:	89 c7                	mov    %eax,%edi
    895d:	e8 9d c3 ff ff       	callq  4cff <safe_add_func_uint16_t_u_u>
    8962:	66 85 c0             	test   %ax,%ax
    8965:	74 08                	je     896f <func_29+0x2f9>
    8967:	8b 85 8c f7 ff ff    	mov    -0x874(%rbp),%eax
    896d:	85 c0                	test   %eax,%eax
    896f:	48 8b 85 48 f7 ff ff 	mov    -0x8b8(%rbp),%rax
    8976:	8b 10                	mov    (%rax),%edx
    8978:	48 8b 85 40 f7 ff ff 	mov    -0x8c0(%rbp),%rax
    897f:	89 10                	mov    %edx,(%rax)
    8981:	48 8b 05 60 91 00 00 	mov    0x9160(%rip),%rax        # 11ae8 <g_738>
    8988:	48 8b 00             	mov    (%rax),%rax
    898b:	48 8b 00             	mov    (%rax),%rax
    898e:	48 8b 95 38 fe ff ff 	mov    -0x1c8(%rbp),%rdx
    8995:	48 89 10             	mov    %rdx,(%rax)
    8998:	0f b7 9d 18 f7 ff ff 	movzwl -0x8e8(%rbp),%ebx
    899f:	48 83 bd 60 f7 ff ff 	cmpq   $0x0,-0x8a0(%rbp)
    89a6:	00 
    89a7:	0f 95 c0             	setne  %al
    89aa:	0f b6 c0             	movzbl %al,%eax
    89ad:	be f9 00 00 00       	mov    $0xf9,%esi
    89b2:	89 c7                	mov    %eax,%edi
    89b4:	e8 f5 c1 ff ff       	callq  4bae <safe_mod_func_uint8_t_u_u>
    89b9:	48 8d 85 38 f7 ff ff 	lea    -0x8c8(%rbp),%rax
    89c0:	48 39 85 68 f7 ff ff 	cmp    %rax,-0x898(%rbp)
    89c7:	0f 94 c0             	sete   %al
    89ca:	0f b6 c0             	movzbl %al,%eax
    89cd:	48 89 05 7c 9a 00 00 	mov    %rax,0x9a7c(%rip)        # 12450 <g_323+0x30>
    89d4:	48 8b 05 75 9a 00 00 	mov    0x9a75(%rip),%rax        # 12450 <g_323+0x30>
    89db:	48 89 de             	mov    %rbx,%rsi
    89de:	48 89 c7             	mov    %rax,%rdi
    89e1:	e8 c9 c6 ff ff       	callq  50af <safe_div_func_uint64_t_u_u>
    89e6:	48 85 c0             	test   %rax,%rax
    89e9:	0f 85 94 00 00 00    	jne    8a83 <func_29+0x40d>
    89ef:	0f b7 9d 26 f7 ff ff 	movzwl -0x8da(%rbp),%ebx
    89f6:	0f b6 05 ad 7a 00 00 	movzbl 0x7aad(%rip),%eax        # 104aa <g_533+0x1>
    89fd:	44 0f be e0          	movsbl %al,%r12d
    8a01:	48 8b 85 48 f7 ff ff 	mov    -0x8b8(%rbp),%rax
    8a08:	8b 10                	mov    (%rax),%edx
    8a0a:	8b 85 1c f7 ff ff    	mov    -0x8e4(%rbp),%eax
    8a10:	0f b6 c0             	movzbl %al,%eax
    8a13:	89 d6                	mov    %edx,%esi
    8a15:	89 c7                	mov    %eax,%edi
    8a17:	e8 e9 c1 ff ff       	callq  4c05 <safe_lshift_func_uint8_t_u_s>
    8a1c:	0f b6 c0             	movzbl %al,%eax
    8a1f:	44 89 e6             	mov    %r12d,%esi
    8a22:	89 c7                	mov    %eax,%edi
    8a24:	e8 cc b9 ff ff       	callq  43f5 <safe_mul_func_int16_t_s_s>
    8a29:	48 c7 c6 f6 ff ff ff 	mov    $0xfffffffffffffff6,%rsi
    8a30:	bf 01 00 00 00       	mov    $0x1,%edi
    8a35:	e8 46 c6 ff ff       	callq  5080 <safe_mod_func_uint64_t_u_u>
    8a3a:	0f b6 c0             	movzbl %al,%eax
    8a3d:	83 e0 4d             	and    $0x4d,%eax
    8a40:	be 03 00 00 00       	mov    $0x3,%esi
    8a45:	89 c7                	mov    %eax,%edi
    8a47:	e8 72 c2 ff ff       	callq  4cbe <safe_rshift_func_uint8_t_u_u>
    8a4c:	0f b6 c0             	movzbl %al,%eax
    8a4f:	48 89 de             	mov    %rbx,%rsi
    8a52:	48 89 c7             	mov    %rax,%rdi
    8a55:	e8 5a bf ff ff       	callq  49b4 <safe_mod_func_int64_t_s_s>
    8a5a:	48 8d 15 8f 90 00 00 	lea    0x908f(%rip),%rdx        # 11af0 <g_877>
    8a61:	48 8b 12             	mov    (%rdx),%rdx
    8a64:	0f b6 12             	movzbl (%rdx),%edx
    8a67:	48 0f be d2          	movsbq %dl,%rdx
    8a6b:	48 39 d0             	cmp    %rdx,%rax
    8a6e:	0f 9c c0             	setl   %al
    8a71:	0f b6 d0             	movzbl %al,%edx
    8a74:	48 8b 05 e5 99 00 00 	mov    0x99e5(%rip),%rax        # 12460 <g_663>
    8a7b:	48 21 d0             	and    %rdx,%rax
    8a7e:	48 85 c0             	test   %rax,%rax
    8a81:	74 07                	je     8a8a <func_29+0x414>
    8a83:	b9 01 00 00 00       	mov    $0x1,%ecx
    8a88:	eb 05                	jmp    8a8f <func_29+0x419>
    8a8a:	b9 00 00 00 00       	mov    $0x0,%ecx
    8a8f:	48 8b 85 38 f7 ff ff 	mov    -0x8c8(%rbp),%rax
    8a96:	48 8b 00             	mov    (%rax),%rax
    8a99:	48 8b 00             	mov    (%rax),%rax
    8a9c:	48 8b 00             	mov    (%rax),%rax
    8a9f:	8b 10                	mov    (%rax),%edx
    8aa1:	48 8b 85 38 f7 ff ff 	mov    -0x8c8(%rbp),%rax
    8aa8:	48 8b 00             	mov    (%rax),%rax
    8aab:	48 8b 00             	mov    (%rax),%rax
    8aae:	48 8b 00             	mov    (%rax),%rax
    8ab1:	31 ca                	xor    %ecx,%edx
    8ab3:	89 10                	mov    %edx,(%rax)
    8ab5:	0f b7 85 18 f7 ff ff 	movzwl -0x8e8(%rbp),%eax
    8abc:	48 8b 5d c8          	mov    -0x38(%rbp),%rbx
    8ac0:	64 48 33 1c 25 28 00 	xor    %fs:0x28,%rbx
    8ac7:	00 00 
    8ac9:	74 05                	je     8ad0 <func_29+0x45a>
    8acb:	e8 a0 b5 ff ff       	callq  4070 <__stack_chk_fail@plt>
    8ad0:	48 81 c4 d8 08 00 00 	add    $0x8d8,%rsp
    8ad7:	5b                   	pop    %rbx
    8ad8:	41 5c                	pop    %r12
    8ada:	41 5d                	pop    %r13
    8adc:	41 5e                	pop    %r14
    8ade:	41 5f                	pop    %r15
    8ae0:	5d                   	pop    %rbp
    8ae1:	c3                   	retq   

0000000000008ae2 <func_45>:
    8ae2:	f3 0f 1e fa          	endbr64 
    8ae6:	55                   	push   %rbp
    8ae7:	48 89 e5             	mov    %rsp,%rbp
    8aea:	48 81 ec 50 01 00 00 	sub    $0x150,%rsp
    8af1:	89 bd bc fe ff ff    	mov    %edi,-0x144(%rbp)
    8af7:	89 b5 b8 fe ff ff    	mov    %esi,-0x148(%rbp)
    8afd:	48 89 95 b0 fe ff ff 	mov    %rdx,-0x150(%rbp)
    8b04:	64 48 8b 04 25 28 00 	mov    %fs:0x28,%rax
    8b0b:	00 00 
    8b0d:	48 89 45 f8          	mov    %rax,-0x8(%rbp)
    8b11:	31 c0                	xor    %eax,%eax
    8b13:	c7 85 d0 fe ff ff f9 	movl   $0xfffffff9,-0x130(%rbp)
    8b1a:	ff ff ff 
    8b1d:	48 c7 85 d8 fe ff ff 	movq   $0x0,-0x128(%rbp)
    8b24:	00 00 00 00 
    8b28:	48 8d 05 c1 76 00 00 	lea    0x76c1(%rip),%rax        # 101f0 <g_346+0xd0>
    8b2f:	48 89 85 e0 fe ff ff 	mov    %rax,-0x120(%rbp)
    8b36:	48 8d 05 4b 75 00 00 	lea    0x754b(%rip),%rax        # 10088 <g_34>
    8b3d:	48 89 85 e8 fe ff ff 	mov    %rax,-0x118(%rbp)
    8b44:	48 8d 05 8d 79 00 00 	lea    0x798d(%rip),%rax        # 104d8 <g_840>
    8b4b:	48 89 85 f0 fe ff ff 	mov    %rax,-0x110(%rbp)
    8b52:	48 c7 85 f8 fe ff ff 	movq   $0x0,-0x108(%rbp)
    8b59:	00 00 00 00 
    8b5d:	48 8d 05 74 79 00 00 	lea    0x7974(%rip),%rax        # 104d8 <g_840>
    8b64:	48 89 85 10 ff ff ff 	mov    %rax,-0xf0(%rbp)
    8b6b:	48 8d 05 66 79 00 00 	lea    0x7966(%rip),%rax        # 104d8 <g_840>
    8b72:	48 89 85 18 ff ff ff 	mov    %rax,-0xe8(%rbp)
    8b79:	48 8d 05 58 79 00 00 	lea    0x7958(%rip),%rax        # 104d8 <g_840>
    8b80:	48 89 85 20 ff ff ff 	mov    %rax,-0xe0(%rbp)
    8b87:	48 8d 05 4a 79 00 00 	lea    0x794a(%rip),%rax        # 104d8 <g_840>
    8b8e:	48 89 85 28 ff ff ff 	mov    %rax,-0xd8(%rbp)
    8b95:	48 8d 05 3c 79 00 00 	lea    0x793c(%rip),%rax        # 104d8 <g_840>
    8b9c:	48 89 85 30 ff ff ff 	mov    %rax,-0xd0(%rbp)
    8ba3:	48 8d 05 2e 79 00 00 	lea    0x792e(%rip),%rax        # 104d8 <g_840>
    8baa:	48 89 85 38 ff ff ff 	mov    %rax,-0xc8(%rbp)
    8bb1:	48 b8 af b8 05 42 9f 	movabs $0xaee0959f4205b8af,%rax
    8bb8:	95 e0 ae 
    8bbb:	48 89 85 00 ff ff ff 	mov    %rax,-0x100(%rbp)
    8bc2:	66 c7 85 cc fe ff ff 	movw   $0x6d7b,-0x134(%rbp)
    8bc9:	7b 6d 
    8bcb:	66 c7 85 ce fe ff ff 	movw   $0xbeec,-0x132(%rbp)
    8bd2:	ec be 
    8bd4:	c7 85 40 ff ff ff fc 	movl   $0xfffffffc,-0xc0(%rbp)
    8bdb:	ff ff ff 
    8bde:	c7 85 44 ff ff ff f2 	movl   $0x2f42e1f2,-0xbc(%rbp)
    8be5:	e1 42 2f 
    8be8:	c7 85 48 ff ff ff fc 	movl   $0xfffffffc,-0xb8(%rbp)
    8bef:	ff ff ff 
    8bf2:	c7 85 4c ff ff ff 02 	movl   $0x2,-0xb4(%rbp)
    8bf9:	00 00 00 
    8bfc:	c7 85 50 ff ff ff 02 	movl   $0x2,-0xb0(%rbp)
    8c03:	00 00 00 
    8c06:	c7 85 54 ff ff ff 6f 	movl   $0xfb95b26f,-0xac(%rbp)
    8c0d:	b2 95 fb 
    8c10:	c7 85 58 ff ff ff 3f 	movl   $0xf0a99c3f,-0xa8(%rbp)
    8c17:	9c a9 f0 
    8c1a:	c7 85 5c ff ff ff 6f 	movl   $0xfb95b26f,-0xa4(%rbp)
    8c21:	b2 95 fb 
    8c24:	c7 85 60 ff ff ff 01 	movl   $0x1,-0xa0(%rbp)
    8c2b:	00 00 00 
    8c2e:	c7 85 64 ff ff ff 01 	movl   $0x1,-0x9c(%rbp)
    8c35:	00 00 00 
    8c38:	c7 85 68 ff ff ff fc 	movl   $0xfffffffc,-0x98(%rbp)
    8c3f:	ff ff ff 
    8c42:	c7 85 6c ff ff ff f2 	movl   $0x2f42e1f2,-0x94(%rbp)
    8c49:	e1 42 2f 
    8c4c:	c7 85 70 ff ff ff fc 	movl   $0xfffffffc,-0x90(%rbp)
    8c53:	ff ff ff 
    8c56:	c7 85 74 ff ff ff 02 	movl   $0x2,-0x8c(%rbp)
    8c5d:	00 00 00 
    8c60:	c7 85 78 ff ff ff 02 	movl   $0x2,-0x88(%rbp)
    8c67:	00 00 00 
    8c6a:	c7 85 7c ff ff ff 6f 	movl   $0xfb95b26f,-0x84(%rbp)
    8c71:	b2 95 fb 
    8c74:	c7 45 80 3f 9c a9 f0 	movl   $0xf0a99c3f,-0x80(%rbp)
    8c7b:	c7 45 84 6f b2 95 fb 	movl   $0xfb95b26f,-0x7c(%rbp)
    8c82:	c7 45 88 01 00 00 00 	movl   $0x1,-0x78(%rbp)
    8c89:	c7 45 8c 01 00 00 00 	movl   $0x1,-0x74(%rbp)
    8c90:	c7 45 90 fc ff ff ff 	movl   $0xfffffffc,-0x70(%rbp)
    8c97:	c7 45 94 f2 e1 42 2f 	movl   $0x2f42e1f2,-0x6c(%rbp)
    8c9e:	c7 45 98 fc ff ff ff 	movl   $0xfffffffc,-0x68(%rbp)
    8ca5:	c7 45 9c 02 00 00 00 	movl   $0x2,-0x64(%rbp)
    8cac:	c7 45 a0 02 00 00 00 	movl   $0x2,-0x60(%rbp)
    8cb3:	c7 45 a4 6f b2 95 fb 	movl   $0xfb95b26f,-0x5c(%rbp)
    8cba:	c7 45 a8 3f 9c a9 f0 	movl   $0xf0a99c3f,-0x58(%rbp)
    8cc1:	c7 45 ac 6f b2 95 fb 	movl   $0xfb95b26f,-0x54(%rbp)
    8cc8:	c7 45 b0 01 00 00 00 	movl   $0x1,-0x50(%rbp)
    8ccf:	c7 45 b4 01 00 00 00 	movl   $0x1,-0x4c(%rbp)
    8cd6:	c7 45 b8 fc ff ff ff 	movl   $0xfffffffc,-0x48(%rbp)
    8cdd:	c7 45 bc 00 00 00 00 	movl   $0x0,-0x44(%rbp)
    8ce4:	c7 45 c0 e3 5f 7c 5c 	movl   $0x5c7c5fe3,-0x40(%rbp)
    8ceb:	c7 45 c4 fc ff ff ff 	movl   $0xfffffffc,-0x3c(%rbp)
    8cf2:	c7 45 c8 fc ff ff ff 	movl   $0xfffffffc,-0x38(%rbp)
    8cf9:	c7 45 cc 00 00 00 00 	movl   $0x0,-0x34(%rbp)
    8d00:	c7 45 d0 f7 ff ff ff 	movl   $0xfffffff7,-0x30(%rbp)
    8d07:	c7 45 d4 00 00 00 00 	movl   $0x0,-0x2c(%rbp)
    8d0e:	c7 45 d8 6f b2 95 fb 	movl   $0xfb95b26f,-0x28(%rbp)
    8d15:	c7 45 dc 6f b2 95 fb 	movl   $0xfb95b26f,-0x24(%rbp)
    8d1c:	c7 45 e0 e3 5f 7c 5c 	movl   $0x5c7c5fe3,-0x20(%rbp)
    8d23:	c7 45 e4 00 00 00 00 	movl   $0x0,-0x1c(%rbp)
    8d2a:	c7 45 e8 e3 5f 7c 5c 	movl   $0x5c7c5fe3,-0x18(%rbp)
    8d31:	c7 45 ec fc ff ff ff 	movl   $0xfffffffc,-0x14(%rbp)
    8d38:	c7 45 f0 fc ff ff ff 	movl   $0xfffffffc,-0x10(%rbp)
    8d3f:	c7 85 d4 fe ff ff 01 	movl   $0x1,-0x12c(%rbp)
    8d46:	00 00 00 
    8d49:	c6 85 cb fe ff ff fc 	movb   $0xfc,-0x135(%rbp)
    8d50:	48 b8 5d 22 98 1c 37 	movabs $0xb43f57371c98225d,%rax
    8d57:	57 3f b4 
    8d5a:	48 89 85 08 ff ff ff 	mov    %rax,-0xf8(%rbp)
    8d61:	0f b7 85 ce fe ff ff 	movzwl -0x132(%rbp),%eax
    8d68:	83 c0 01             	add    $0x1,%eax
    8d6b:	66 89 85 ce fe ff ff 	mov    %ax,-0x132(%rbp)
    8d72:	48 83 ad 08 ff ff ff 	subq   $0x1,-0xf8(%rbp)
    8d79:	01 
    8d7a:	8b 85 bc fe ff ff    	mov    -0x144(%rbp),%eax
    8d80:	48 8b 4d f8          	mov    -0x8(%rbp),%rcx
    8d84:	64 48 33 0c 25 28 00 	xor    %fs:0x28,%rcx
    8d8b:	00 00 
    8d8d:	74 05                	je     8d94 <func_45+0x2b2>
    8d8f:	e8 dc b2 ff ff       	callq  4070 <__stack_chk_fail@plt>
    8d94:	c9                   	leaveq 
    8d95:	c3                   	retq   

0000000000008d96 <func_54>:
    8d96:	f3 0f 1e fa          	endbr64 
    8d9a:	55                   	push   %rbp
    8d9b:	48 89 e5             	mov    %rsp,%rbp
    8d9e:	48 81 ec 80 01 00 00 	sub    $0x180,%rsp
    8da5:	48 89 bd a8 fe ff ff 	mov    %rdi,-0x158(%rbp)
    8dac:	89 b5 a4 fe ff ff    	mov    %esi,-0x15c(%rbp)
    8db2:	48 89 95 98 fe ff ff 	mov    %rdx,-0x168(%rbp)
    8db9:	48 89 8d 90 fe ff ff 	mov    %rcx,-0x170(%rbp)
    8dc0:	4c 89 85 88 fe ff ff 	mov    %r8,-0x178(%rbp)
    8dc7:	64 48 8b 04 25 28 00 	mov    %fs:0x28,%rax
    8dce:	00 00 
    8dd0:	48 89 45 f8          	mov    %rax,-0x8(%rbp)
    8dd4:	31 c0                	xor    %eax,%eax
    8dd6:	48 8d 05 cb 76 00 00 	lea    0x76cb(%rip),%rax        # 104a8 <g_471>
    8ddd:	48 89 85 c8 fe ff ff 	mov    %rax,-0x138(%rbp)
    8de4:	48 8d 05 9d 72 00 00 	lea    0x729d(%rip),%rax        # 10088 <g_34>
    8deb:	48 89 85 d0 fe ff ff 	mov    %rax,-0x130(%rbp)
    8df2:	48 8d 05 b7 72 00 00 	lea    0x72b7(%rip),%rax        # 100b0 <g_165>
    8df9:	48 89 85 d8 fe ff ff 	mov    %rax,-0x128(%rbp)
    8e00:	c7 85 b8 fe ff ff f9 	movl   $0xfffffff9,-0x148(%rbp)
    8e07:	ff ff ff 
    8e0a:	66 c7 85 f6 fe ff ff 	movw   $0x6,-0x10a(%rbp)
    8e11:	06 00 
    8e13:	66 c7 85 f8 fe ff ff 	movw   $0x6,-0x108(%rbp)
    8e1a:	06 00 
    8e1c:	66 c7 85 fa fe ff ff 	movw   $0x6,-0x106(%rbp)
    8e23:	06 00 
    8e25:	66 c7 85 fc fe ff ff 	movw   $0x6,-0x104(%rbp)
    8e2c:	06 00 
    8e2e:	66 c7 85 fe fe ff ff 	movw   $0x6,-0x102(%rbp)
    8e35:	06 00 
    8e37:	c6 85 b1 fe ff ff ff 	movb   $0xff,-0x14f(%rbp)
    8e3e:	48 8d 05 4c 72 00 00 	lea    0x724c(%rip),%rax        # 10091 <g_110>
    8e45:	48 89 45 80          	mov    %rax,-0x80(%rbp)
    8e49:	48 8d 05 41 72 00 00 	lea    0x7241(%rip),%rax        # 10091 <g_110>
    8e50:	48 89 45 88          	mov    %rax,-0x78(%rbp)
    8e54:	48 8d 05 36 72 00 00 	lea    0x7236(%rip),%rax        # 10091 <g_110>
    8e5b:	48 89 45 90          	mov    %rax,-0x70(%rbp)
    8e5f:	48 8d 05 2b 72 00 00 	lea    0x722b(%rip),%rax        # 10091 <g_110>
    8e66:	48 89 45 98          	mov    %rax,-0x68(%rbp)
    8e6a:	48 8d 05 20 72 00 00 	lea    0x7220(%rip),%rax        # 10091 <g_110>
    8e71:	48 89 45 a0          	mov    %rax,-0x60(%rbp)
    8e75:	48 8d 05 15 72 00 00 	lea    0x7215(%rip),%rax        # 10091 <g_110>
    8e7c:	48 89 45 a8          	mov    %rax,-0x58(%rbp)
    8e80:	48 8d 05 0a 72 00 00 	lea    0x720a(%rip),%rax        # 10091 <g_110>
    8e87:	48 89 45 b0          	mov    %rax,-0x50(%rbp)
    8e8b:	48 8d 05 ff 71 00 00 	lea    0x71ff(%rip),%rax        # 10091 <g_110>
    8e92:	48 89 45 b8          	mov    %rax,-0x48(%rbp)
    8e96:	48 8d 05 f4 71 00 00 	lea    0x71f4(%rip),%rax        # 10091 <g_110>
    8e9d:	48 89 45 c0          	mov    %rax,-0x40(%rbp)
    8ea1:	48 8d 05 e9 71 00 00 	lea    0x71e9(%rip),%rax        # 10091 <g_110>
    8ea8:	48 89 45 c8          	mov    %rax,-0x38(%rbp)
    8eac:	48 8d 05 de 71 00 00 	lea    0x71de(%rip),%rax        # 10091 <g_110>
    8eb3:	48 89 45 d0          	mov    %rax,-0x30(%rbp)
    8eb7:	48 8d 05 d3 71 00 00 	lea    0x71d3(%rip),%rax        # 10091 <g_110>
    8ebe:	48 89 45 d8          	mov    %rax,-0x28(%rbp)
    8ec2:	48 8d 05 c8 71 00 00 	lea    0x71c8(%rip),%rax        # 10091 <g_110>
    8ec9:	48 89 45 e0          	mov    %rax,-0x20(%rbp)
    8ecd:	48 8d 05 bd 71 00 00 	lea    0x71bd(%rip),%rax        # 10091 <g_110>
    8ed4:	48 89 45 e8          	mov    %rax,-0x18(%rbp)
    8ed8:	48 8d 05 b2 71 00 00 	lea    0x71b2(%rip),%rax        # 10091 <g_110>
    8edf:	48 89 45 f0          	mov    %rax,-0x10(%rbp)
    8ee3:	66 c7 85 b2 fe ff ff 	movw   $0xf46a,-0x14e(%rbp)
    8eea:	6a f4 
    8eec:	48 8d 05 d7 75 00 00 	lea    0x75d7(%rip),%rax        # 104ca <g_790+0x2>
    8ef3:	48 89 85 e0 fe ff ff 	mov    %rax,-0x120(%rbp)
    8efa:	c7 85 bc fe ff ff 94 	movl   $0x9434a594,-0x144(%rbp)
    8f01:	a5 34 94 
    8f04:	48 b8 3b 82 0c 43 77 	movabs $0x32c5277430c823b,%rax
    8f0b:	52 2c 03 
    8f0e:	48 89 85 40 ff ff ff 	mov    %rax,-0xc0(%rbp)
    8f15:	48 89 85 48 ff ff ff 	mov    %rax,-0xb8(%rbp)
    8f1c:	48 ba 47 99 d5 85 fc 	movabs $0x5a77e8fc85d59947,%rdx
    8f23:	e8 77 5a 
    8f26:	48 89 95 50 ff ff ff 	mov    %rdx,-0xb0(%rbp)
    8f2d:	48 89 85 58 ff ff ff 	mov    %rax,-0xa8(%rbp)
    8f34:	48 89 85 60 ff ff ff 	mov    %rax,-0xa0(%rbp)
    8f3b:	48 89 95 68 ff ff ff 	mov    %rdx,-0x98(%rbp)
    8f42:	48 89 85 70 ff ff ff 	mov    %rax,-0x90(%rbp)
    8f49:	48 89 85 78 ff ff ff 	mov    %rax,-0x88(%rbp)
    8f50:	48 8d 05 61 8b 00 00 	lea    0x8b61(%rip),%rax        # 11ab8 <g_602>
    8f57:	48 89 85 c0 fe ff ff 	mov    %rax,-0x140(%rbp)
    8f5e:	48 8d 85 c0 fe ff ff 	lea    -0x140(%rbp),%rax
    8f65:	48 89 85 e8 fe ff ff 	mov    %rax,-0x118(%rbp)
    8f6c:	c7 85 b4 fe ff ff 00 	movl   $0x0,-0x14c(%rbp)
    8f73:	00 00 00 
    8f76:	eb 1b                	jmp    8f93 <func_54+0x1fd>
    8f78:	8b 85 b4 fe ff ff    	mov    -0x14c(%rbp),%eax
    8f7e:	48 98                	cltq   
    8f80:	48 c7 84 c5 00 ff ff 	movq   $0x0,-0x100(%rbp,%rax,8)
    8f87:	ff 00 00 00 00 
    8f8c:	83 85 b4 fe ff ff 01 	addl   $0x1,-0x14c(%rbp)
    8f93:	83 bd b4 fe ff ff 06 	cmpl   $0x6,-0x14c(%rbp)
    8f9a:	7e dc                	jle    8f78 <func_54+0x1e2>
    8f9c:	48 8b 85 90 fe ff ff 	mov    -0x170(%rbp),%rax
    8fa3:	8b 00                	mov    (%rax),%eax
    8fa5:	48 8b 4d f8          	mov    -0x8(%rbp),%rcx
    8fa9:	64 48 33 0c 25 28 00 	xor    %fs:0x28,%rcx
    8fb0:	00 00 
    8fb2:	74 05                	je     8fb9 <func_54+0x223>
    8fb4:	e8 b7 b0 ff ff       	callq  4070 <__stack_chk_fail@plt>
    8fb9:	c9                   	leaveq 
    8fba:	c3                   	retq   

0000000000008fbb <func_60>:
    8fbb:	f3 0f 1e fa          	endbr64 
    8fbf:	55                   	push   %rbp
    8fc0:	48 89 e5             	mov    %rsp,%rbp
    8fc3:	41 56                	push   %r14
    8fc5:	41 55                	push   %r13
    8fc7:	41 54                	push   %r12
    8fc9:	53                   	push   %rbx
    8fca:	48 81 ec 00 02 00 00 	sub    $0x200,%rsp
    8fd1:	48 89 bd f8 fd ff ff 	mov    %rdi,-0x208(%rbp)
    8fd8:	89 f0                	mov    %esi,%eax
    8fda:	48 89 95 e8 fd ff ff 	mov    %rdx,-0x218(%rbp)
    8fe1:	88 85 f4 fd ff ff    	mov    %al,-0x20c(%rbp)
    8fe7:	64 48 8b 04 25 28 00 	mov    %fs:0x28,%rax
    8fee:	00 00 
    8ff0:	48 89 45 d8          	mov    %rax,-0x28(%rbp)
    8ff4:	31 c0                	xor    %eax,%eax
    8ff6:	66 c7 85 0e fe ff ff 	movw   $0x0,-0x1f2(%rbp)
    8ffd:	00 00 
    8fff:	c7 85 14 fe ff ff 09 	movl   $0x9,-0x1ec(%rbp)
    9006:	00 00 00 
    9009:	48 c7 85 18 fe ff ff 	movq   $0x0,-0x1e8(%rbp)
    9010:	00 00 00 00 
    9014:	48 8d 85 18 fe ff ff 	lea    -0x1e8(%rbp),%rax
    901b:	48 89 85 30 fe ff ff 	mov    %rax,-0x1d0(%rbp)
    9022:	48 8d 05 68 70 00 00 	lea    0x7068(%rip),%rax        # 10091 <g_110>
    9029:	48 89 85 20 fe ff ff 	mov    %rax,-0x1e0(%rbp)
    9030:	48 b8 63 e0 1d 6a 0a 	movabs $0x9edf730a6a1de063,%rax
    9037:	73 df 9e 
    903a:	48 89 85 38 fe ff ff 	mov    %rax,-0x1c8(%rbp)
    9041:	48 8d 05 4c 70 00 00 	lea    0x704c(%rip),%rax        # 10094 <g_113>
    9048:	48 89 85 40 fe ff ff 	mov    %rax,-0x1c0(%rbp)
    904f:	c7 85 10 fe ff ff a2 	movl   $0x75bf6ca2,-0x1f0(%rbp)
    9056:	6c bf 75 
    9059:	48 8d 85 20 fe ff ff 	lea    -0x1e0(%rbp),%rax
    9060:	48 89 85 28 fe ff ff 	mov    %rax,-0x1d8(%rbp)
    9067:	48 8d 85 28 fe ff ff 	lea    -0x1d8(%rbp),%rax
    906e:	48 89 85 48 fe ff ff 	mov    %rax,-0x1b8(%rbp)
    9075:	48 8d 85 10 fe ff ff 	lea    -0x1f0(%rbp),%rax
    907c:	48 89 85 50 fe ff ff 	mov    %rax,-0x1b0(%rbp)
    9083:	48 c7 85 58 fe ff ff 	movq   $0x0,-0x1a8(%rbp)
    908a:	00 00 00 00 
    908e:	48 8d 85 10 fe ff ff 	lea    -0x1f0(%rbp),%rax
    9095:	48 89 85 60 fe ff ff 	mov    %rax,-0x1a0(%rbp)
    909c:	48 8d 85 10 fe ff ff 	lea    -0x1f0(%rbp),%rax
    90a3:	48 89 85 68 fe ff ff 	mov    %rax,-0x198(%rbp)
    90aa:	48 c7 85 70 fe ff ff 	movq   $0x0,-0x190(%rbp)
    90b1:	00 00 00 00 
    90b5:	48 8d 85 10 fe ff ff 	lea    -0x1f0(%rbp),%rax
    90bc:	48 89 85 78 fe ff ff 	mov    %rax,-0x188(%rbp)
    90c3:	48 8d 85 10 fe ff ff 	lea    -0x1f0(%rbp),%rax
    90ca:	48 89 85 80 fe ff ff 	mov    %rax,-0x180(%rbp)
    90d1:	48 c7 85 88 fe ff ff 	movq   $0x0,-0x178(%rbp)
    90d8:	00 00 00 00 
    90dc:	48 8d 85 10 fe ff ff 	lea    -0x1f0(%rbp),%rax
    90e3:	48 89 85 90 fe ff ff 	mov    %rax,-0x170(%rbp)
    90ea:	48 8d 85 10 fe ff ff 	lea    -0x1f0(%rbp),%rax
    90f1:	48 89 85 98 fe ff ff 	mov    %rax,-0x168(%rbp)
    90f8:	48 c7 85 a0 fe ff ff 	movq   $0x0,-0x160(%rbp)
    90ff:	00 00 00 00 
    9103:	48 8d 85 10 fe ff ff 	lea    -0x1f0(%rbp),%rax
    910a:	48 89 85 a8 fe ff ff 	mov    %rax,-0x158(%rbp)
    9111:	48 8d 85 10 fe ff ff 	lea    -0x1f0(%rbp),%rax
    9118:	48 89 85 b0 fe ff ff 	mov    %rax,-0x150(%rbp)
    911f:	48 c7 85 b8 fe ff ff 	movq   $0x0,-0x148(%rbp)
    9126:	00 00 00 00 
    912a:	48 8d 85 10 fe ff ff 	lea    -0x1f0(%rbp),%rax
    9131:	48 89 85 c0 fe ff ff 	mov    %rax,-0x140(%rbp)
    9138:	48 8d 85 10 fe ff ff 	lea    -0x1f0(%rbp),%rax
    913f:	48 89 85 c8 fe ff ff 	mov    %rax,-0x138(%rbp)
    9146:	48 c7 85 d0 fe ff ff 	movq   $0x0,-0x130(%rbp)
    914d:	00 00 00 00 
    9151:	48 8d 85 10 fe ff ff 	lea    -0x1f0(%rbp),%rax
    9158:	48 89 85 d8 fe ff ff 	mov    %rax,-0x128(%rbp)
    915f:	48 8d 85 10 fe ff ff 	lea    -0x1f0(%rbp),%rax
    9166:	48 89 85 e0 fe ff ff 	mov    %rax,-0x120(%rbp)
    916d:	48 c7 85 e8 fe ff ff 	movq   $0x0,-0x118(%rbp)
    9174:	00 00 00 00 
    9178:	48 8d 85 10 fe ff ff 	lea    -0x1f0(%rbp),%rax
    917f:	48 89 85 f0 fe ff ff 	mov    %rax,-0x110(%rbp)
    9186:	48 8d 85 10 fe ff ff 	lea    -0x1f0(%rbp),%rax
    918d:	48 89 85 f8 fe ff ff 	mov    %rax,-0x108(%rbp)
    9194:	48 c7 85 00 ff ff ff 	movq   $0x0,-0x100(%rbp)
    919b:	00 00 00 00 
    919f:	48 8d 85 10 fe ff ff 	lea    -0x1f0(%rbp),%rax
    91a6:	48 89 85 08 ff ff ff 	mov    %rax,-0xf8(%rbp)
    91ad:	48 8d 85 10 fe ff ff 	lea    -0x1f0(%rbp),%rax
    91b4:	48 89 85 10 ff ff ff 	mov    %rax,-0xf0(%rbp)
    91bb:	48 c7 85 18 ff ff ff 	movq   $0x0,-0xe8(%rbp)
    91c2:	00 00 00 00 
    91c6:	48 8d 85 10 fe ff ff 	lea    -0x1f0(%rbp),%rax
    91cd:	48 89 85 20 ff ff ff 	mov    %rax,-0xe0(%rbp)
    91d4:	48 8d 85 10 fe ff ff 	lea    -0x1f0(%rbp),%rax
    91db:	48 89 85 28 ff ff ff 	mov    %rax,-0xd8(%rbp)
    91e2:	48 c7 85 30 ff ff ff 	movq   $0x0,-0xd0(%rbp)
    91e9:	00 00 00 00 
    91ed:	48 8d 85 10 fe ff ff 	lea    -0x1f0(%rbp),%rax
    91f4:	48 89 85 38 ff ff ff 	mov    %rax,-0xc8(%rbp)
    91fb:	48 8d 85 10 fe ff ff 	lea    -0x1f0(%rbp),%rax
    9202:	48 89 85 40 ff ff ff 	mov    %rax,-0xc0(%rbp)
    9209:	48 c7 85 48 ff ff ff 	movq   $0x0,-0xb8(%rbp)
    9210:	00 00 00 00 
    9214:	48 8d 85 10 fe ff ff 	lea    -0x1f0(%rbp),%rax
    921b:	48 89 85 50 ff ff ff 	mov    %rax,-0xb0(%rbp)
    9222:	48 8d 85 10 fe ff ff 	lea    -0x1f0(%rbp),%rax
    9229:	48 89 85 58 ff ff ff 	mov    %rax,-0xa8(%rbp)
    9230:	48 c7 85 60 ff ff ff 	movq   $0x0,-0xa0(%rbp)
    9237:	00 00 00 00 
    923b:	48 8d 85 10 fe ff ff 	lea    -0x1f0(%rbp),%rax
    9242:	48 89 85 68 ff ff ff 	mov    %rax,-0x98(%rbp)
    9249:	48 8d 85 10 fe ff ff 	lea    -0x1f0(%rbp),%rax
    9250:	48 89 85 70 ff ff ff 	mov    %rax,-0x90(%rbp)
    9257:	48 c7 85 78 ff ff ff 	movq   $0x0,-0x88(%rbp)
    925e:	00 00 00 00 
    9262:	48 8d 85 10 fe ff ff 	lea    -0x1f0(%rbp),%rax
    9269:	48 89 45 80          	mov    %rax,-0x80(%rbp)
    926d:	48 8d 85 10 fe ff ff 	lea    -0x1f0(%rbp),%rax
    9274:	48 89 45 88          	mov    %rax,-0x78(%rbp)
    9278:	48 c7 45 90 00 00 00 	movq   $0x0,-0x70(%rbp)
    927f:	00 
    9280:	48 8d 85 10 fe ff ff 	lea    -0x1f0(%rbp),%rax
    9287:	48 89 45 98          	mov    %rax,-0x68(%rbp)
    928b:	48 8d 85 10 fe ff ff 	lea    -0x1f0(%rbp),%rax
    9292:	48 89 45 a0          	mov    %rax,-0x60(%rbp)
    9296:	48 c7 45 a8 00 00 00 	movq   $0x0,-0x58(%rbp)
    929d:	00 
    929e:	48 8d 85 10 fe ff ff 	lea    -0x1f0(%rbp),%rax
    92a5:	48 89 45 b0          	mov    %rax,-0x50(%rbp)
    92a9:	48 8d 85 10 fe ff ff 	lea    -0x1f0(%rbp),%rax
    92b0:	48 89 45 b8          	mov    %rax,-0x48(%rbp)
    92b4:	48 c7 45 c0 00 00 00 	movq   $0x0,-0x40(%rbp)
    92bb:	00 
    92bc:	48 8d 85 10 fe ff ff 	lea    -0x1f0(%rbp),%rax
    92c3:	48 89 45 c8          	mov    %rax,-0x38(%rbp)
    92c7:	c7 05 b7 6d 00 00 00 	movl   $0x0,0x6db7(%rip)        # 10088 <g_34>
    92ce:	00 00 00 
    92d1:	eb 1a                	jmp    92ed <func_60+0x332>
    92d3:	48 c7 05 2a 91 00 00 	movq   $0x0,0x912a(%rip)        # 12408 <g_68>
    92da:	00 00 00 00 
    92de:	8b 05 a4 6d 00 00    	mov    0x6da4(%rip),%eax        # 10088 <g_34>
    92e4:	83 c0 01             	add    $0x1,%eax
    92e7:	89 05 9b 6d 00 00    	mov    %eax,0x6d9b(%rip)        # 10088 <g_34>
    92ed:	8b 05 95 6d 00 00    	mov    0x6d95(%rip),%eax        # 10088 <g_34>
    92f3:	83 f8 11             	cmp    $0x11,%eax
    92f6:	74 db                	je     92d3 <func_60+0x318>
    92f8:	8b 05 8a 6d 00 00    	mov    0x6d8a(%rip),%eax        # 10088 <g_34>
    92fe:	41 89 c5             	mov    %eax,%r13d
    9301:	8b 05 81 6d 00 00    	mov    0x6d81(%rip),%eax        # 10088 <g_34>
    9307:	41 89 c6             	mov    %eax,%r14d
    930a:	48 8b 05 5f 6d 00 00 	mov    0x6d5f(%rip),%rax        # 10070 <g_5+0x30>
    9311:	0f b6 d8             	movzbl %al,%ebx
    9314:	0f b6 05 71 6d 00 00 	movzbl 0x6d71(%rip),%eax        # 1008c <g_38>
    931b:	44 0f b6 e0          	movzbl %al,%r12d
    931f:	48 8b 05 4a 6d 00 00 	mov    0x6d4a(%rip),%rax        # 10070 <g_5+0x30>
    9326:	89 c6                	mov    %eax,%esi
    9328:	bf 01 00 00 00       	mov    $0x1,%edi
    932d:	e8 bc af ff ff       	callq  42ee <safe_lshift_func_int8_t_s_u>
    9332:	0f be c0             	movsbl %al,%eax
    9335:	44 89 e2             	mov    %r12d,%edx
    9338:	31 c2                	xor    %eax,%edx
    933a:	0f be 85 f4 fd ff ff 	movsbl -0x20c(%rbp),%eax
    9341:	39 c2                	cmp    %eax,%edx
    9343:	0f 9e c0             	setle  %al
    9346:	89 c2                	mov    %eax,%edx
    9348:	8b 05 3a 6d 00 00    	mov    0x6d3a(%rip),%eax        # 10088 <g_34>
    934e:	21 c2                	and    %eax,%edx
    9350:	48 8b 85 20 fe ff ff 	mov    -0x1e0(%rbp),%rax
    9357:	88 10                	mov    %dl,(%rax)
    9359:	0f b6 00             	movzbl (%rax),%eax
    935c:	0f b6 c0             	movzbl %al,%eax
    935f:	89 de                	mov    %ebx,%esi
    9361:	89 c7                	mov    %eax,%edi
    9363:	e8 10 b8 ff ff       	callq  4b78 <safe_sub_func_uint8_t_u_u>
    9368:	48 be 47 af b5 3b 34 	movabs $0xe908ae343bb5af47,%rsi
    936f:	ae 08 e9 
    9372:	bf 00 00 00 00       	mov    $0x0,%edi
    9377:	e8 33 bd ff ff       	callq  50af <safe_div_func_uint64_t_u_u>
    937c:	44 89 f6             	mov    %r14d,%esi
    937f:	bf 00 00 00 00       	mov    $0x0,%edi
    9384:	e8 e3 af ff ff       	callq  436c <safe_rshift_func_int8_t_s_u>
    9389:	38 85 f4 fd ff ff    	cmp    %al,-0x20c(%rbp)
    938f:	48 8b 05 da 6c 00 00 	mov    0x6cda(%rip),%rax        # 10070 <g_5+0x30>
    9396:	0f b6 d0             	movzbl %al,%edx
    9399:	48 8b 85 30 fe ff ff 	mov    -0x1d0(%rbp),%rax
    93a0:	48 c7 00 00 00 00 00 	movq   $0x0,(%rax)
    93a7:	48 8b 85 30 fe ff ff 	mov    -0x1d0(%rbp),%rax
    93ae:	48 8b 00             	mov    (%rax),%rax
    93b1:	48 39 85 e8 fd ff ff 	cmp    %rax,-0x218(%rbp)
    93b8:	0f 94 c0             	sete   %al
    93bb:	0f b6 c0             	movzbl %al,%eax
    93be:	89 d6                	mov    %edx,%esi
    93c0:	89 c7                	mov    %eax,%edi
    93c2:	e8 e7 b7 ff ff       	callq  4bae <safe_mod_func_uint8_t_u_u>
    93c7:	0f b6 c0             	movzbl %al,%eax
    93ca:	be a9 00 00 00       	mov    $0xa9,%esi
    93cf:	89 c7                	mov    %eax,%edi
    93d1:	e8 76 b8 ff ff       	callq  4c4c <safe_lshift_func_uint8_t_u_u>
    93d6:	84 c0                	test   %al,%al
    93d8:	74 11                	je     93eb <func_60+0x430>
    93da:	48 83 bd 38 fe ff ff 	cmpq   $0x0,-0x1c8(%rbp)
    93e1:	00 
    93e2:	74 07                	je     93eb <func_60+0x430>
    93e4:	b8 01 00 00 00       	mov    $0x1,%eax
    93e9:	eb 05                	jmp    93f0 <func_60+0x435>
    93eb:	b8 00 00 00 00       	mov    $0x0,%eax
    93f0:	0f be c0             	movsbl %al,%eax
    93f3:	be 05 00 00 00       	mov    $0x5,%esi
    93f8:	89 c7                	mov    %eax,%edi
    93fa:	e8 ef ae ff ff       	callq  42ee <safe_lshift_func_int8_t_s_u>
    93ff:	0f b6 85 f4 fd ff ff 	movzbl -0x20c(%rbp),%eax
    9406:	0f b6 c0             	movzbl %al,%eax
    9409:	be 01 00 00 00       	mov    $0x1,%esi
    940e:	89 c7                	mov    %eax,%edi
    9410:	e8 37 b8 ff ff       	callq  4c4c <safe_lshift_func_uint8_t_u_u>
    9415:	0f be c0             	movsbl %al,%eax
    9418:	be 06 00 00 00       	mov    $0x6,%esi
    941d:	89 c7                	mov    %eax,%edi
    941f:	e8 11 af ff ff       	callq  4335 <safe_rshift_func_int8_t_s_s>
    9424:	44 89 ee             	mov    %r13d,%esi
    9427:	bf 00 00 00 00       	mov    $0x0,%edi
    942c:	e8 b0 b0 ff ff       	callq  44e1 <safe_lshift_func_int16_t_s_u>
    9431:	98                   	cwtl   
    9432:	89 c6                	mov    %eax,%esi
    9434:	bf ac 3c 00 00       	mov    $0x3cac,%edi
    9439:	e8 b7 af ff ff       	callq  43f5 <safe_mul_func_int16_t_s_s>
    943e:	48 8b 95 40 fe ff ff 	mov    -0x1c0(%rbp),%rdx
    9445:	8b 12                	mov    (%rdx),%edx
    9447:	98                   	cwtl   
    9448:	09 c2                	or     %eax,%edx
    944a:	48 8b 85 40 fe ff ff 	mov    -0x1c0(%rbp),%rax
    9451:	89 10                	mov    %edx,(%rax)
    9453:	48 8b 85 40 fe ff ff 	mov    -0x1c0(%rbp),%rax
    945a:	8b 00                	mov    (%rax),%eax
    945c:	83 f0 84             	xor    $0xffffff84,%eax
    945f:	0f be d0             	movsbl %al,%edx
    9462:	0f b7 85 0e fe ff ff 	movzwl -0x1f2(%rbp),%eax
    9469:	09 85 14 fe ff ff    	or     %eax,-0x1ec(%rbp)
    946f:	8b 85 14 fe ff ff    	mov    -0x1ec(%rbp),%eax
    9475:	0f be c0             	movsbl %al,%eax
    9478:	89 d6                	mov    %edx,%esi
    947a:	89 c7                	mov    %eax,%edi
    947c:	e8 91 ad ff ff       	callq  4212 <safe_mul_func_int8_t_s_s>
    9481:	0f be c0             	movsbl %al,%eax
    9484:	be c4 b1 37 20       	mov    $0x2037b1c4,%esi
    9489:	89 c7                	mov    %eax,%edi
    948b:	e8 75 b1 ff ff       	callq  4605 <safe_sub_func_int32_t_s_s>
    9490:	be 0c 00 00 00       	mov    $0xc,%esi
    9495:	bf cc a9 00 00       	mov    $0xa9cc,%edi
    949a:	e8 67 b9 ff ff       	callq  4e06 <safe_lshift_func_uint16_t_u_u>
    949f:	0f b7 c0             	movzwl %ax,%eax
    94a2:	48 8b 95 40 fe ff ff 	mov    -0x1c0(%rbp),%rdx
    94a9:	48 8d 35 d8 6b 00 00 	lea    0x6bd8(%rip),%rsi        # 10088 <g_34>
    94b0:	89 c7                	mov    %eax,%edi
    94b2:	e8 c8 01 00 00       	callq  967f <func_73>
    94b7:	48 89 c2             	mov    %rax,%rdx
    94ba:	48 8b 05 af 6b 00 00 	mov    0x6baf(%rip),%rax        # 10070 <g_5+0x30>
    94c1:	48 89 d6             	mov    %rdx,%rsi
    94c4:	48 89 c7             	mov    %rax,%rdi
    94c7:	e8 dc b3 ff ff       	callq  48a8 <safe_sub_func_int64_t_s_s>
    94cc:	48 89 c2             	mov    %rax,%rdx
    94cf:	48 8b 05 62 82 00 00 	mov    0x8262(%rip),%rax        # 11738 <g_243>
    94d6:	48 8b 00             	mov    (%rax),%rax
    94d9:	48 8b 18             	mov    (%rax),%rbx
    94dc:	48 89 d7             	mov    %rdx,%rdi
    94df:	e8 72 00 00 00       	callq  9556 <func_69>
    94e4:	89 03                	mov    %eax,(%rbx)
    94e6:	8b 03                	mov    (%rbx),%eax
    94e8:	89 85 10 fe ff ff    	mov    %eax,-0x1f0(%rbp)
    94ee:	48 8b 85 e8 fd ff ff 	mov    -0x218(%rbp),%rax
    94f5:	8b 10                	mov    (%rax),%edx
    94f7:	48 8b 85 40 fe ff ff 	mov    -0x1c0(%rbp),%rax
    94fe:	89 10                	mov    %edx,(%rax)
    9500:	48 8b 05 29 82 00 00 	mov    0x8229(%rip),%rax        # 11730 <g_244>
    9507:	48 8b 00             	mov    (%rax),%rax
    950a:	8b 08                	mov    (%rax),%ecx
    950c:	48 83 bd 48 fe ff ff 	cmpq   $0x0,-0x1b8(%rbp)
    9513:	00 
    9514:	0f 94 c0             	sete   %al
    9517:	0f b6 d0             	movzbl %al,%edx
    951a:	48 8b 05 0f 82 00 00 	mov    0x820f(%rip),%rax        # 11730 <g_244>
    9521:	48 8b 00             	mov    (%rax),%rax
    9524:	21 ca                	and    %ecx,%edx
    9526:	89 10                	mov    %edx,(%rax)
    9528:	48 8b 05 01 82 00 00 	mov    0x8201(%rip),%rax        # 11730 <g_244>
    952f:	48 8b 00             	mov    (%rax),%rax
    9532:	48 8b 4d d8          	mov    -0x28(%rbp),%rcx
    9536:	64 48 33 0c 25 28 00 	xor    %fs:0x28,%rcx
    953d:	00 00 
    953f:	74 05                	je     9546 <func_60+0x58b>
    9541:	e8 2a ab ff ff       	callq  4070 <__stack_chk_fail@plt>
    9546:	48 81 c4 00 02 00 00 	add    $0x200,%rsp
    954d:	5b                   	pop    %rbx
    954e:	41 5c                	pop    %r12
    9550:	41 5d                	pop    %r13
    9552:	41 5e                	pop    %r14
    9554:	5d                   	pop    %rbp
    9555:	c3                   	retq   

0000000000009556 <func_69>:
    9556:	f3 0f 1e fa          	endbr64 
    955a:	55                   	push   %rbp
    955b:	48 89 e5             	mov    %rsp,%rbp
    955e:	48 81 ec 90 01 00 00 	sub    $0x190,%rsp
    9565:	48 89 bd 78 fe ff ff 	mov    %rdi,-0x188(%rbp)
    956c:	64 48 8b 04 25 28 00 	mov    %fs:0x28,%rax
    9573:	00 00 
    9575:	48 89 45 f8          	mov    %rax,-0x8(%rbp)
    9579:	31 c0                	xor    %eax,%eax
    957b:	48 8d 05 5e 6e 00 00 	lea    0x6e5e(%rip),%rax        # 103e0 <g_346+0x2c0>
    9582:	48 89 85 98 fe ff ff 	mov    %rax,-0x168(%rbp)
    9589:	48 c7 85 a0 fe ff ff 	movq   $0x0,-0x160(%rbp)
    9590:	00 00 00 00 
    9594:	48 8d 05 ed 6a 00 00 	lea    0x6aed(%rip),%rax        # 10088 <g_34>
    959b:	48 89 85 a8 fe ff ff 	mov    %rax,-0x158(%rbp)
    95a2:	48 8d 05 eb 6a 00 00 	lea    0x6aeb(%rip),%rax        # 10094 <g_113>
    95a9:	48 89 85 b0 fe ff ff 	mov    %rax,-0x150(%rbp)
    95b0:	c7 85 88 fe ff ff 21 	movl   $0xba899021,-0x178(%rbp)
    95b7:	90 89 ba 
    95ba:	48 8d 05 1f 6e 00 00 	lea    0x6e1f(%rip),%rax        # 103e0 <g_346+0x2c0>
    95c1:	48 89 85 b8 fe ff ff 	mov    %rax,-0x148(%rbp)
    95c8:	48 8d 85 88 fe ff ff 	lea    -0x178(%rbp),%rax
    95cf:	48 89 85 c0 fe ff ff 	mov    %rax,-0x140(%rbp)
    95d6:	48 8d 05 03 6e 00 00 	lea    0x6e03(%rip),%rax        # 103e0 <g_346+0x2c0>
    95dd:	48 89 85 c8 fe ff ff 	mov    %rax,-0x138(%rbp)
    95e4:	c7 85 94 fe ff ff fe 	movl   $0xfffffffe,-0x16c(%rbp)
    95eb:	ff ff ff 
    95ee:	c7 85 8c fe ff ff 00 	movl   $0x0,-0x174(%rbp)
    95f5:	00 00 00 
    95f8:	eb 50                	jmp    964a <func_69+0xf4>
    95fa:	c7 85 90 fe ff ff 00 	movl   $0x0,-0x170(%rbp)
    9601:	00 00 00 
    9604:	eb 34                	jmp    963a <func_69+0xe4>
    9606:	8b 85 90 fe ff ff    	mov    -0x170(%rbp),%eax
    960c:	48 63 c8             	movslq %eax,%rcx
    960f:	8b 85 8c fe ff ff    	mov    -0x174(%rbp),%eax
    9615:	48 63 d0             	movslq %eax,%rdx
    9618:	48 89 d0             	mov    %rdx,%rax
    961b:	48 01 c0             	add    %rax,%rax
    961e:	48 01 d0             	add    %rdx,%rax
    9621:	48 01 c0             	add    %rax,%rax
    9624:	48 01 c8             	add    %rcx,%rax
    9627:	48 c7 84 c5 d0 fe ff 	movq   $0x0,-0x130(%rbp,%rax,8)
    962e:	ff 00 00 00 00 
    9633:	83 85 90 fe ff ff 01 	addl   $0x1,-0x170(%rbp)
    963a:	83 bd 90 fe ff ff 05 	cmpl   $0x5,-0x170(%rbp)
    9641:	7e c3                	jle    9606 <func_69+0xb0>
    9643:	83 85 8c fe ff ff 01 	addl   $0x1,-0x174(%rbp)
    964a:	83 bd 8c fe ff ff 05 	cmpl   $0x5,-0x174(%rbp)
    9651:	7e a7                	jle    95fa <func_69+0xa4>
    9653:	83 ad 94 fe ff ff 01 	subl   $0x1,-0x16c(%rbp)
    965a:	48 8b 05 57 84 00 00 	mov    0x8457(%rip),%rax        # 11ab8 <g_602>
    9661:	48 8b 00             	mov    (%rax),%rax
    9664:	48 8b 00             	mov    (%rax),%rax
    9667:	8b 00                	mov    (%rax),%eax
    9669:	48 8b 75 f8          	mov    -0x8(%rbp),%rsi
    966d:	64 48 33 34 25 28 00 	xor    %fs:0x28,%rsi
    9674:	00 00 
    9676:	74 05                	je     967d <func_69+0x127>
    9678:	e8 f3 a9 ff ff       	callq  4070 <__stack_chk_fail@plt>
    967d:	c9                   	leaveq 
    967e:	c3                   	retq   

000000000000967f <func_73>:
    967f:	f3 0f 1e fa          	endbr64 
    9683:	55                   	push   %rbp
    9684:	48 89 e5             	mov    %rsp,%rbp
    9687:	53                   	push   %rbx
    9688:	48 81 ec 58 07 00 00 	sub    $0x758,%rsp
    968f:	89 bd bc f8 ff ff    	mov    %edi,-0x744(%rbp)
    9695:	48 89 b5 b0 f8 ff ff 	mov    %rsi,-0x750(%rbp)
    969c:	48 89 95 a8 f8 ff ff 	mov    %rdx,-0x758(%rbp)
    96a3:	64 48 8b 04 25 28 00 	mov    %fs:0x28,%rax
    96aa:	00 00 
    96ac:	48 89 45 e8          	mov    %rax,-0x18(%rbp)
    96b0:	31 c0                	xor    %eax,%eax
    96b2:	c7 85 d0 f8 ff ff 01 	movl   $0x1,-0x730(%rbp)
    96b9:	00 00 00 
    96bc:	48 8d 05 ce 69 00 00 	lea    0x69ce(%rip),%rax        # 10091 <g_110>
    96c3:	48 89 85 f8 f8 ff ff 	mov    %rax,-0x708(%rbp)
    96ca:	48 c7 85 90 f9 ff ff 	movq   $0x0,-0x670(%rbp)
    96d1:	00 00 00 00 
    96d5:	48 8d 85 f8 f8 ff ff 	lea    -0x708(%rbp),%rax
    96dc:	48 89 85 98 f9 ff ff 	mov    %rax,-0x668(%rbp)
    96e3:	48 c7 85 a0 f9 ff ff 	movq   $0x0,-0x660(%rbp)
    96ea:	00 00 00 00 
    96ee:	48 c7 85 a8 f9 ff ff 	movq   $0x0,-0x658(%rbp)
    96f5:	00 00 00 00 
    96f9:	48 8d 85 f8 f8 ff ff 	lea    -0x708(%rbp),%rax
    9700:	48 89 85 b0 f9 ff ff 	mov    %rax,-0x650(%rbp)
    9707:	48 c7 85 b8 f9 ff ff 	movq   $0x0,-0x648(%rbp)
    970e:	00 00 00 00 
    9712:	48 c7 85 c0 f9 ff ff 	movq   $0x0,-0x640(%rbp)
    9719:	00 00 00 00 
    971d:	48 8d 85 f8 f8 ff ff 	lea    -0x708(%rbp),%rax
    9724:	48 89 85 c8 f9 ff ff 	mov    %rax,-0x638(%rbp)
    972b:	48 c7 85 d0 f9 ff ff 	movq   $0x0,-0x630(%rbp)
    9732:	00 00 00 00 
    9736:	48 8d 05 5b 69 00 00 	lea    0x695b(%rip),%rax        # 10098 <g_126>
    973d:	48 89 85 00 f9 ff ff 	mov    %rax,-0x700(%rbp)
    9744:	c7 85 d4 f8 ff ff fe 	movl   $0xfffffffe,-0x72c(%rbp)
    974b:	ff ff ff 
    974e:	c7 85 d8 f8 ff ff 4f 	movl   $0xdeffe84f,-0x728(%rbp)
    9755:	e8 ff de 
    9758:	66 c7 85 c8 f8 ff ff 	movw   $0xab7,-0x738(%rbp)
    975f:	b7 0a 
    9761:	c7 85 dc f8 ff ff 03 	movl   $0x3,-0x724(%rbp)
    9768:	00 00 00 
    976b:	48 c7 85 30 f9 ff ff 	movq   $0x0,-0x6d0(%rbp)
    9772:	00 00 00 00 
    9776:	66 c7 85 ca f8 ff ff 	movw   $0xfff8,-0x736(%rbp)
    977d:	f8 ff 
    977f:	c7 85 e0 f8 ff ff 8e 	movl   $0x4e1a288e,-0x720(%rbp)
    9786:	28 1a 4e 
    9789:	c7 85 60 f9 ff ff 00 	movl   $0x0,-0x6a0(%rbp)
    9790:	00 00 00 
    9793:	c7 85 64 f9 ff ff 00 	movl   $0x0,-0x69c(%rbp)
    979a:	00 00 00 
    979d:	c7 85 68 f9 ff ff fc 	movl   $0xfffffffc,-0x698(%rbp)
    97a4:	ff ff ff 
    97a7:	c7 85 6c f9 ff ff 00 	movl   $0x0,-0x694(%rbp)
    97ae:	00 00 00 
    97b1:	c7 85 70 f9 ff ff 00 	movl   $0x0,-0x690(%rbp)
    97b8:	00 00 00 
    97bb:	c7 85 74 f9 ff ff 00 	movl   $0x0,-0x68c(%rbp)
    97c2:	00 00 00 
    97c5:	c7 85 78 f9 ff ff 00 	movl   $0x0,-0x688(%rbp)
    97cc:	00 00 00 
    97cf:	c7 85 7c f9 ff ff fc 	movl   $0xfffffffc,-0x684(%rbp)
    97d6:	ff ff ff 
    97d9:	c7 85 80 f9 ff ff 00 	movl   $0x0,-0x680(%rbp)
    97e0:	00 00 00 
    97e3:	c7 85 84 f9 ff ff 00 	movl   $0x0,-0x67c(%rbp)
    97ea:	00 00 00 
    97ed:	48 8d 05 ac 68 00 00 	lea    0x68ac(%rip),%rax        # 100a0 <g_133>
    97f4:	48 89 85 38 f9 ff ff 	mov    %rax,-0x6c8(%rbp)
    97fb:	48 8b 05 6e 68 00 00 	mov    0x686e(%rip),%rax        # 10070 <g_5+0x30>
    9802:	89 c2                	mov    %eax,%edx
    9804:	48 8b 85 b0 f8 ff ff 	mov    -0x750(%rbp),%rax
    980b:	89 10                	mov    %edx,(%rax)
    980d:	0f b6 05 7d 68 00 00 	movzbl 0x687d(%rip),%eax        # 10091 <g_110>
    9814:	0f b6 c0             	movzbl %al,%eax
    9817:	39 85 bc f8 ff ff    	cmp    %eax,-0x744(%rbp)
    981d:	0f 94 c0             	sete   %al
    9820:	0f b6 d8             	movzbl %al,%ebx
    9823:	8b 85 bc f8 ff ff    	mov    -0x744(%rbp),%eax
    9829:	48 63 d0             	movslq %eax,%rdx
    982c:	48 8b 8d 00 f9 ff ff 	mov    -0x700(%rbp),%rcx
    9833:	48 8b 85 00 f9 ff ff 	mov    -0x700(%rbp),%rax
    983a:	0f b6 09             	movzbl (%rcx),%ecx
    983d:	88 08                	mov    %cl,(%rax)
    983f:	0f b6 00             	movzbl (%rax),%eax
    9842:	0f be c0             	movsbl %al,%eax
    9845:	39 85 d0 f8 ff ff    	cmp    %eax,-0x730(%rbp)
    984b:	0f 97 c0             	seta   %al
    984e:	0f b6 c8             	movzbl %al,%ecx
    9851:	8b 05 31 68 00 00    	mov    0x6831(%rip),%eax        # 10088 <g_34>
    9857:	31 c8                	xor    %ecx,%eax
    9859:	3d 8e 00 00 00       	cmp    $0x8e,%eax
    985e:	7e 07                	jle    9867 <func_73+0x1e8>
    9860:	83 bd bc f8 ff ff 00 	cmpl   $0x0,-0x744(%rbp)
    9867:	83 bd d0 f8 ff ff 02 	cmpl   $0x2,-0x730(%rbp)
    986e:	0f 97 c0             	seta   %al
    9871:	0f b6 c0             	movzbl %al,%eax
    9874:	48 89 d6             	mov    %rdx,%rsi
    9877:	48 89 c7             	mov    %rax,%rdi
    987a:	e8 af b7 ff ff       	callq  502e <safe_add_func_uint64_t_u_u>
    987f:	f7 d0                	not    %eax
    9881:	89 85 d4 f8 ff ff    	mov    %eax,-0x72c(%rbp)
    9887:	39 9d d4 f8 ff ff    	cmp    %ebx,-0x72c(%rbp)
    988d:	0f 95 c0             	setne  %al
    9890:	0f b6 c0             	movzbl %al,%eax
    9893:	be 03 00 00 00       	mov    $0x3,%esi
    9898:	89 c7                	mov    %eax,%edi
    989a:	e8 02 aa ff ff       	callq  42a1 <safe_lshift_func_int8_t_s_s>
    989f:	84 c0                	test   %al,%al
    98a1:	74 07                	je     98aa <func_73+0x22b>
    98a3:	b8 01 00 00 00       	mov    $0x1,%eax
    98a8:	eb 05                	jmp    98af <func_73+0x230>
    98aa:	b8 00 00 00 00       	mov    $0x0,%eax
    98af:	0f b7 d0             	movzwl %ax,%edx
    98b2:	48 c7 05 63 7e 00 00 	movq   $0x0,0x7e63(%rip)        # 11720 <g_119>
    98b9:	00 00 00 00 
    98bd:	48 8b 05 5c 7e 00 00 	mov    0x7e5c(%rip),%rax        # 11720 <g_119>
    98c4:	48 8d 0d c6 67 00 00 	lea    0x67c6(%rip),%rcx        # 10091 <g_110>
    98cb:	48 39 c8             	cmp    %rcx,%rax
    98ce:	0f 94 c0             	sete   %al
    98d1:	0f b6 c0             	movzbl %al,%eax
    98d4:	89 d6                	mov    %edx,%esi
    98d6:	89 c7                	mov    %eax,%edi
    98d8:	e8 22 b4 ff ff       	callq  4cff <safe_add_func_uint16_t_u_u>
    98dd:	0f b6 05 aa 67 00 00 	movzbl 0x67aa(%rip),%eax        # 1008e <g_38+0x2>
    98e4:	48 8b 85 b0 f8 ff ff 	mov    -0x750(%rbp),%rax
    98eb:	8b 10                	mov    (%rax),%edx
    98ed:	48 8b 85 a8 f8 ff ff 	mov    -0x758(%rbp),%rax
    98f4:	8b 00                	mov    (%rax),%eax
    98f6:	09 c2                	or     %eax,%edx
    98f8:	48 8b 85 a8 f8 ff ff 	mov    -0x758(%rbp),%rax
    98ff:	89 10                	mov    %edx,(%rax)
    9901:	c6 05 90 67 00 00 00 	movb   $0x0,0x6790(%rip)        # 10098 <g_126>
    9908:	e9 4c 09 00 00       	jmpq   a259 <func_73+0xbda>
    990d:	c7 85 e4 f8 ff ff 02 	movl   $0x2,-0x71c(%rbp)
    9914:	00 00 00 
    9917:	c7 85 e8 f8 ff ff 01 	movl   $0x1,-0x718(%rbp)
    991e:	00 00 00 
    9921:	c7 85 ec f8 ff ff 5a 	movl   $0x3d88cf5a,-0x714(%rbp)
    9928:	cf 88 3d 
    992b:	c7 85 cc f8 ff ff fa 	movl   $0xfffffffa,-0x734(%rbp)
    9932:	ff ff ff 
    9935:	48 c7 85 08 f9 ff ff 	movq   $0x0,-0x6f8(%rbp)
    993c:	00 00 00 00 
    9940:	48 8d 85 08 f9 ff ff 	lea    -0x6f8(%rbp),%rax
    9947:	48 89 85 10 f9 ff ff 	mov    %rax,-0x6f0(%rbp)
    994e:	48 8d 85 10 f9 ff ff 	lea    -0x6f0(%rbp),%rax
    9955:	48 89 85 40 f9 ff ff 	mov    %rax,-0x6c0(%rbp)
    995c:	c7 85 f0 f8 ff ff 96 	movl   $0x27021f96,-0x710(%rbp)
    9963:	1f 02 27 
    9966:	48 8d 85 f0 fb ff ff 	lea    -0x410(%rbp),%rax
    996d:	48 8d 15 4c 32 00 00 	lea    0x324c(%rip),%rdx        # cbc0 <g_1024+0xb44>
    9974:	b9 2d 00 00 00       	mov    $0x2d,%ecx
    9979:	48 89 c7             	mov    %rax,%rdi
    997c:	48 89 d6             	mov    %rdx,%rsi
    997f:	f3 48 a5             	rep movsq %ds:(%rsi),%es:(%rdi)
    9982:	48 8d 85 cc f8 ff ff 	lea    -0x734(%rbp),%rax
    9989:	48 89 85 48 f9 ff ff 	mov    %rax,-0x6b8(%rbp)
    9990:	48 c7 85 e0 f9 ff ff 	movq   $0x1,-0x620(%rbp)
    9997:	01 00 00 00 
    999b:	48 c7 85 e8 f9 ff ff 	movq   $0x1,-0x618(%rbp)
    99a2:	01 00 00 00 
    99a6:	48 b8 f6 2d ad 61 ce 	movabs $0x3cbfdbce61ad2df6,%rax
    99ad:	db bf 3c 
    99b0:	48 89 85 f0 f9 ff ff 	mov    %rax,-0x610(%rbp)
    99b7:	48 c7 85 f8 f9 ff ff 	movq   $0x1,-0x608(%rbp)
    99be:	01 00 00 00 
    99c2:	48 c7 85 00 fa ff ff 	movq   $0x1,-0x600(%rbp)
    99c9:	01 00 00 00 
    99cd:	48 89 85 08 fa ff ff 	mov    %rax,-0x5f8(%rbp)
    99d4:	48 c7 85 10 fa ff ff 	movq   $0x1,-0x5f0(%rbp)
    99db:	01 00 00 00 
    99df:	48 c7 85 18 fa ff ff 	movq   $0x1,-0x5e8(%rbp)
    99e6:	01 00 00 00 
    99ea:	48 89 85 20 fa ff ff 	mov    %rax,-0x5e0(%rbp)
    99f1:	48 c7 85 28 fa ff ff 	movq   $0x1,-0x5d8(%rbp)
    99f8:	01 00 00 00 
    99fc:	66 c7 85 80 fa ff ff 	movw   $0xc17,-0x580(%rbp)
    9a03:	17 0c 
    9a05:	66 c7 85 82 fa ff ff 	movw   $0xfff6,-0x57e(%rbp)
    9a0c:	f6 ff 
    9a0e:	66 c7 85 84 fa ff ff 	movw   $0x483c,-0x57c(%rbp)
    9a15:	3c 48 
    9a17:	66 c7 85 86 fa ff ff 	movw   $0x1633,-0x57a(%rbp)
    9a1e:	33 16 
    9a20:	66 c7 85 88 fa ff ff 	movw   $0xfffc,-0x578(%rbp)
    9a27:	fc ff 
    9a29:	66 c7 85 8a fa ff ff 	movw   $0xfff6,-0x576(%rbp)
    9a30:	f6 ff 
    9a32:	66 c7 85 8c fa ff ff 	movw   $0xc548,-0x574(%rbp)
    9a39:	48 c5 
    9a3b:	66 c7 85 8e fa ff ff 	movw   $0xfe0c,-0x572(%rbp)
    9a42:	0c fe 
    9a44:	66 c7 85 90 fa ff ff 	movw   $0xffff,-0x570(%rbp)
    9a4b:	ff ff 
    9a4d:	66 c7 85 92 fa ff ff 	movw   $0xfe0c,-0x56e(%rbp)
    9a54:	0c fe 
    9a56:	66 c7 85 94 fa ff ff 	movw   $0x6347,-0x56c(%rbp)
    9a5d:	47 63 
    9a5f:	66 c7 85 96 fa ff ff 	movw   $0x0,-0x56a(%rbp)
    9a66:	00 00 
    9a68:	66 c7 85 98 fa ff ff 	movw   $0xc548,-0x568(%rbp)
    9a6f:	48 c5 
    9a71:	66 c7 85 9a fa ff ff 	movw   $0x8b04,-0x566(%rbp)
    9a78:	04 8b 
    9a7a:	66 c7 85 9c fa ff ff 	movw   $0x2,-0x564(%rbp)
    9a81:	02 00 
    9a83:	66 c7 85 9e fa ff ff 	movw   $0x1633,-0x562(%rbp)
    9a8a:	33 16 
    9a8c:	66 c7 85 a0 fa ff ff 	movw   $0xffff,-0x560(%rbp)
    9a93:	ff ff 
    9a95:	66 c7 85 a2 fa ff ff 	movw   $0x6c85,-0x55e(%rbp)
    9a9c:	85 6c 
    9a9e:	66 c7 85 a4 fa ff ff 	movw   $0xc17,-0x55c(%rbp)
    9aa5:	17 0c 
    9aa7:	66 c7 85 a6 fa ff ff 	movw   $0xfffc,-0x55a(%rbp)
    9aae:	fc ff 
    9ab0:	66 c7 85 a8 fa ff ff 	movw   $0x4d98,-0x558(%rbp)
    9ab7:	98 4d 
    9ab9:	66 c7 85 aa fa ff ff 	movw   $0x2,-0x556(%rbp)
    9ac0:	02 00 
    9ac2:	66 c7 85 ac fa ff ff 	movw   $0x4d98,-0x554(%rbp)
    9ac9:	98 4d 
    9acb:	66 c7 85 ae fa ff ff 	movw   $0x4d98,-0x552(%rbp)
    9ad2:	98 4d 
    9ad4:	66 c7 85 b0 fa ff ff 	movw   $0xfe0c,-0x550(%rbp)
    9adb:	0c fe 
    9add:	66 c7 85 b2 fa ff ff 	movw   $0xbef5,-0x54e(%rbp)
    9ae4:	f5 be 
    9ae6:	66 c7 85 b4 fa ff ff 	movw   $0x6c85,-0x54c(%rbp)
    9aed:	85 6c 
    9aef:	66 c7 85 b6 fa ff ff 	movw   $0x0,-0x54a(%rbp)
    9af6:	00 00 
    9af8:	66 c7 85 b8 fa ff ff 	movw   $0x0,-0x548(%rbp)
    9aff:	00 00 
    9b01:	66 c7 85 ba fa ff ff 	movw   $0x2,-0x546(%rbp)
    9b08:	02 00 
    9b0a:	66 c7 85 bc fa ff ff 	movw   $0xfffb,-0x544(%rbp)
    9b11:	fb ff 
    9b13:	66 c7 85 be fa ff ff 	movw   $0x1,-0x542(%rbp)
    9b1a:	01 00 
    9b1c:	66 c7 85 c0 fa ff ff 	movw   $0x0,-0x540(%rbp)
    9b23:	00 00 
    9b25:	66 c7 85 c2 fa ff ff 	movw   $0xbd08,-0x53e(%rbp)
    9b2c:	08 bd 
    9b2e:	66 c7 85 c4 fa ff ff 	movw   $0xfffc,-0x53c(%rbp)
    9b35:	fc ff 
    9b37:	66 c7 85 c6 fa ff ff 	movw   $0xffff,-0x53a(%rbp)
    9b3e:	ff ff 
    9b40:	66 c7 85 c8 fa ff ff 	movw   $0x8,-0x538(%rbp)
    9b47:	08 00 
    9b49:	66 c7 85 ca fa ff ff 	movw   $0x1,-0x536(%rbp)
    9b50:	01 00 
    9b52:	66 c7 85 cc fa ff ff 	movw   $0xfff6,-0x534(%rbp)
    9b59:	f6 ff 
    9b5b:	66 c7 85 ce fa ff ff 	movw   $0xfe0c,-0x532(%rbp)
    9b62:	0c fe 
    9b64:	66 c7 85 d0 fa ff ff 	movw   $0x0,-0x530(%rbp)
    9b6b:	00 00 
    9b6d:	66 c7 85 d2 fa ff ff 	movw   $0x483c,-0x52e(%rbp)
    9b74:	3c 48 
    9b76:	66 c7 85 d4 fa ff ff 	movw   $0xfff7,-0x52c(%rbp)
    9b7d:	f7 ff 
    9b7f:	66 c7 85 d6 fa ff ff 	movw   $0xbef5,-0x52a(%rbp)
    9b86:	f5 be 
    9b88:	66 c7 85 d8 fa ff ff 	movw   $0x2,-0x528(%rbp)
    9b8f:	02 00 
    9b91:	66 c7 85 da fa ff ff 	movw   $0xfffc,-0x526(%rbp)
    9b98:	fc ff 
    9b9a:	66 c7 85 dc fa ff ff 	movw   $0x4d98,-0x524(%rbp)
    9ba1:	98 4d 
    9ba3:	66 c7 85 de fa ff ff 	movw   $0xcfb3,-0x522(%rbp)
    9baa:	b3 cf 
    9bac:	66 c7 85 e0 fa ff ff 	movw   $0xfffc,-0x520(%rbp)
    9bb3:	fc ff 
    9bb5:	66 c7 85 e2 fa ff ff 	movw   $0xfffc,-0x51e(%rbp)
    9bbc:	fc ff 
    9bbe:	66 c7 85 e4 fa ff ff 	movw   $0xfe0c,-0x51c(%rbp)
    9bc5:	0c fe 
    9bc7:	66 c7 85 e6 fa ff ff 	movw   $0xfff7,-0x51a(%rbp)
    9bce:	f7 ff 
    9bd0:	66 c7 85 e8 fa ff ff 	movw   $0xffff,-0x518(%rbp)
    9bd7:	ff ff 
    9bd9:	66 c7 85 ea fa ff ff 	movw   $0x1,-0x516(%rbp)
    9be0:	01 00 
    9be2:	66 c7 85 ec fa ff ff 	movw   $0xfe0c,-0x514(%rbp)
    9be9:	0c fe 
    9beb:	66 c7 85 ee fa ff ff 	movw   $0x8b04,-0x512(%rbp)
    9bf2:	04 8b 
    9bf4:	66 c7 85 f0 fa ff ff 	movw   $0x6,-0x510(%rbp)
    9bfb:	06 00 
    9bfd:	66 c7 85 f2 fa ff ff 	movw   $0x8,-0x50e(%rbp)
    9c04:	08 00 
    9c06:	66 c7 85 f4 fa ff ff 	movw   $0x6347,-0x50c(%rbp)
    9c0d:	47 63 
    9c0f:	66 c7 85 f6 fa ff ff 	movw   $0x2,-0x50a(%rbp)
    9c16:	02 00 
    9c18:	66 c7 85 f8 fa ff ff 	movw   $0xbd08,-0x508(%rbp)
    9c1f:	08 bd 
    9c21:	66 c7 85 fa fa ff ff 	movw   $0xfe0c,-0x506(%rbp)
    9c28:	0c fe 
    9c2a:	66 c7 85 fc fa ff ff 	movw   $0x6,-0x504(%rbp)
    9c31:	06 00 
    9c33:	c7 85 f4 f8 ff ff 20 	movl   $0x2ff2ad20,-0x70c(%rbp)
    9c3a:	ad f2 2f 
    9c3d:	48 8d 05 6c 64 00 00 	lea    0x646c(%rip),%rax        # 100b0 <g_165>
    9c44:	48 89 85 18 f9 ff ff 	mov    %rax,-0x6e8(%rbp)
    9c4b:	48 8d 85 18 f9 ff ff 	lea    -0x6e8(%rbp),%rax
    9c52:	48 89 85 50 f9 ff ff 	mov    %rax,-0x6b0(%rbp)
    9c59:	48 c7 85 30 fa ff ff 	movq   $0x0,-0x5d0(%rbp)
    9c60:	00 00 00 00 
    9c64:	48 8d 85 00 f9 ff ff 	lea    -0x700(%rbp),%rax
    9c6b:	48 89 85 38 fa ff ff 	mov    %rax,-0x5c8(%rbp)
    9c72:	48 8d 85 00 f9 ff ff 	lea    -0x700(%rbp),%rax
    9c79:	48 89 85 40 fa ff ff 	mov    %rax,-0x5c0(%rbp)
    9c80:	48 c7 85 48 fa ff ff 	movq   $0x0,-0x5b8(%rbp)
    9c87:	00 00 00 00 
    9c8b:	48 8d 85 00 f9 ff ff 	lea    -0x700(%rbp),%rax
    9c92:	48 89 85 50 fa ff ff 	mov    %rax,-0x5b0(%rbp)
    9c99:	48 8d 85 00 f9 ff ff 	lea    -0x700(%rbp),%rax
    9ca0:	48 89 85 58 fa ff ff 	mov    %rax,-0x5a8(%rbp)
    9ca7:	48 c7 85 60 fa ff ff 	movq   $0x0,-0x5a0(%rbp)
    9cae:	00 00 00 00 
    9cb2:	48 8d 85 00 f9 ff ff 	lea    -0x700(%rbp),%rax
    9cb9:	48 89 85 68 fa ff ff 	mov    %rax,-0x598(%rbp)
    9cc0:	48 8d 85 00 f9 ff ff 	lea    -0x700(%rbp),%rax
    9cc7:	48 89 85 70 fa ff ff 	mov    %rax,-0x590(%rbp)
    9cce:	48 c7 85 78 fa ff ff 	movq   $0x0,-0x588(%rbp)
    9cd5:	00 00 00 00 
    9cd9:	48 b8 3a d5 21 57 c3 	movabs $0xca8962c35721d53a,%rax
    9ce0:	62 89 ca 
    9ce3:	48 89 85 00 fb ff ff 	mov    %rax,-0x500(%rbp)
    9cea:	48 c7 85 08 fb ff ff 	movq   $0x3,-0x4f8(%rbp)
    9cf1:	03 00 00 00 
    9cf5:	48 c7 85 10 fb ff ff 	movq   $0x6,-0x4f0(%rbp)
    9cfc:	06 00 00 00 
    9d00:	48 c7 85 18 fb ff ff 	movq   $0x5,-0x4e8(%rbp)
    9d07:	05 00 00 00 
    9d0b:	48 c7 85 20 fb ff ff 	movq   $0x6,-0x4e0(%rbp)
    9d12:	06 00 00 00 
    9d16:	48 c7 85 28 fb ff ff 	movq   $0x6,-0x4d8(%rbp)
    9d1d:	06 00 00 00 
    9d21:	48 c7 85 30 fb ff ff 	movq   $0x6,-0x4d0(%rbp)
    9d28:	06 00 00 00 
    9d2c:	48 c7 85 38 fb ff ff 	movq   $0x0,-0x4c8(%rbp)
    9d33:	00 00 00 00 
    9d37:	48 c7 85 40 fb ff ff 	movq   $0x5,-0x4c0(%rbp)
    9d3e:	05 00 00 00 
    9d42:	48 c7 85 48 fb ff ff 	movq   $0x5,-0x4b8(%rbp)
    9d49:	05 00 00 00 
    9d4d:	48 c7 85 50 fb ff ff 	movq   $0x3,-0x4b0(%rbp)
    9d54:	03 00 00 00 
    9d58:	48 89 85 58 fb ff ff 	mov    %rax,-0x4a8(%rbp)
    9d5f:	48 89 85 60 fb ff ff 	mov    %rax,-0x4a0(%rbp)
    9d66:	48 c7 85 68 fb ff ff 	movq   $0x3,-0x498(%rbp)
    9d6d:	03 00 00 00 
    9d71:	48 c7 85 70 fb ff ff 	movq   $0x6,-0x490(%rbp)
    9d78:	06 00 00 00 
    9d7c:	48 c7 85 78 fb ff ff 	movq   $0x3,-0x488(%rbp)
    9d83:	03 00 00 00 
    9d87:	48 c7 85 80 fb ff ff 	movq   $0x5,-0x480(%rbp)
    9d8e:	05 00 00 00 
    9d92:	48 c7 85 88 fb ff ff 	movq   $0x1,-0x478(%rbp)
    9d99:	01 00 00 00 
    9d9d:	48 c7 85 90 fb ff ff 	movq   $0x1,-0x470(%rbp)
    9da4:	01 00 00 00 
    9da8:	48 c7 85 98 fb ff ff 	movq   $0x5,-0x468(%rbp)
    9daf:	05 00 00 00 
    9db3:	48 c7 85 a0 fb ff ff 	movq   $0x6,-0x460(%rbp)
    9dba:	06 00 00 00 
    9dbe:	48 89 85 a8 fb ff ff 	mov    %rax,-0x458(%rbp)
    9dc5:	48 c7 85 b0 fb ff ff 	movq   $0x1,-0x450(%rbp)
    9dcc:	01 00 00 00 
    9dd0:	48 c7 85 b8 fb ff ff 	movq   $0x0,-0x448(%rbp)
    9dd7:	00 00 00 00 
    9ddb:	48 c7 85 c0 fb ff ff 	movq   $0x0,-0x440(%rbp)
    9de2:	00 00 00 00 
    9de6:	48 89 85 c8 fb ff ff 	mov    %rax,-0x438(%rbp)
    9ded:	48 c7 85 d0 fb ff ff 	movq   $0x6,-0x430(%rbp)
    9df4:	06 00 00 00 
    9df8:	48 89 85 d8 fb ff ff 	mov    %rax,-0x428(%rbp)
    9dff:	48 c7 85 e0 fb ff ff 	movq   $0x1,-0x420(%rbp)
    9e06:	01 00 00 00 
    9e0a:	48 c7 85 e8 fb ff ff 	movq   $0x0,-0x418(%rbp)
    9e11:	00 00 00 00 
    9e15:	48 8d 05 78 62 00 00 	lea    0x6278(%rip),%rax        # 10094 <g_113>
    9e1c:	48 89 85 20 f9 ff ff 	mov    %rax,-0x6e0(%rbp)
    9e23:	48 8d 85 20 f9 ff ff 	lea    -0x6e0(%rbp),%rax
    9e2a:	48 89 85 28 f9 ff ff 	mov    %rax,-0x6d8(%rbp)
    9e31:	48 8d 85 28 f9 ff ff 	lea    -0x6d8(%rbp),%rax
    9e38:	48 89 85 60 fd ff ff 	mov    %rax,-0x2a0(%rbp)
    9e3f:	48 c7 85 68 fd ff ff 	movq   $0x0,-0x298(%rbp)
    9e46:	00 00 00 00 
    9e4a:	48 8d 85 28 f9 ff ff 	lea    -0x6d8(%rbp),%rax
    9e51:	48 89 85 70 fd ff ff 	mov    %rax,-0x290(%rbp)
    9e58:	48 8d 85 28 f9 ff ff 	lea    -0x6d8(%rbp),%rax
    9e5f:	48 89 85 78 fd ff ff 	mov    %rax,-0x288(%rbp)
    9e66:	48 c7 85 80 fd ff ff 	movq   $0x0,-0x280(%rbp)
    9e6d:	00 00 00 00 
    9e71:	48 8d 85 28 f9 ff ff 	lea    -0x6d8(%rbp),%rax
    9e78:	48 89 85 88 fd ff ff 	mov    %rax,-0x278(%rbp)
    9e7f:	48 8d 85 28 f9 ff ff 	lea    -0x6d8(%rbp),%rax
    9e86:	48 89 85 90 fd ff ff 	mov    %rax,-0x270(%rbp)
    9e8d:	48 c7 85 98 fd ff ff 	movq   $0x0,-0x268(%rbp)
    9e94:	00 00 00 00 
    9e98:	48 8d 85 28 f9 ff ff 	lea    -0x6d8(%rbp),%rax
    9e9f:	48 89 85 a0 fd ff ff 	mov    %rax,-0x260(%rbp)
    9ea6:	48 8d 85 28 f9 ff ff 	lea    -0x6d8(%rbp),%rax
    9ead:	48 89 85 a8 fd ff ff 	mov    %rax,-0x258(%rbp)
    9eb4:	48 8d 85 28 f9 ff ff 	lea    -0x6d8(%rbp),%rax
    9ebb:	48 89 85 b0 fd ff ff 	mov    %rax,-0x250(%rbp)
    9ec2:	48 8d 85 28 f9 ff ff 	lea    -0x6d8(%rbp),%rax
    9ec9:	48 89 85 b8 fd ff ff 	mov    %rax,-0x248(%rbp)
    9ed0:	48 8d 85 28 f9 ff ff 	lea    -0x6d8(%rbp),%rax
    9ed7:	48 89 85 c0 fd ff ff 	mov    %rax,-0x240(%rbp)
    9ede:	48 c7 85 c8 fd ff ff 	movq   $0x0,-0x238(%rbp)
    9ee5:	00 00 00 00 
    9ee9:	48 c7 85 d0 fd ff ff 	movq   $0x0,-0x230(%rbp)
    9ef0:	00 00 00 00 
    9ef4:	48 8d 85 28 f9 ff ff 	lea    -0x6d8(%rbp),%rax
    9efb:	48 89 85 d8 fd ff ff 	mov    %rax,-0x228(%rbp)
    9f02:	48 c7 85 e0 fd ff ff 	movq   $0x0,-0x220(%rbp)
    9f09:	00 00 00 00 
    9f0d:	48 8d 85 28 f9 ff ff 	lea    -0x6d8(%rbp),%rax
    9f14:	48 89 85 e8 fd ff ff 	mov    %rax,-0x218(%rbp)
    9f1b:	48 8d 85 28 f9 ff ff 	lea    -0x6d8(%rbp),%rax
    9f22:	48 89 85 f0 fd ff ff 	mov    %rax,-0x210(%rbp)
    9f29:	48 8d 85 28 f9 ff ff 	lea    -0x6d8(%rbp),%rax
    9f30:	48 89 85 f8 fd ff ff 	mov    %rax,-0x208(%rbp)
    9f37:	48 8d 85 28 f9 ff ff 	lea    -0x6d8(%rbp),%rax
    9f3e:	48 89 85 00 fe ff ff 	mov    %rax,-0x200(%rbp)
    9f45:	48 8d 85 28 f9 ff ff 	lea    -0x6d8(%rbp),%rax
    9f4c:	48 89 85 08 fe ff ff 	mov    %rax,-0x1f8(%rbp)
    9f53:	48 8d 85 28 f9 ff ff 	lea    -0x6d8(%rbp),%rax
    9f5a:	48 89 85 10 fe ff ff 	mov    %rax,-0x1f0(%rbp)
    9f61:	48 8d 85 28 f9 ff ff 	lea    -0x6d8(%rbp),%rax
    9f68:	48 89 85 18 fe ff ff 	mov    %rax,-0x1e8(%rbp)
    9f6f:	48 8d 85 28 f9 ff ff 	lea    -0x6d8(%rbp),%rax
    9f76:	48 89 85 20 fe ff ff 	mov    %rax,-0x1e0(%rbp)
    9f7d:	48 8d 85 28 f9 ff ff 	lea    -0x6d8(%rbp),%rax
    9f84:	48 89 85 28 fe ff ff 	mov    %rax,-0x1d8(%rbp)
    9f8b:	48 8d 85 28 f9 ff ff 	lea    -0x6d8(%rbp),%rax
    9f92:	48 89 85 30 fe ff ff 	mov    %rax,-0x1d0(%rbp)
    9f99:	48 8d 85 28 f9 ff ff 	lea    -0x6d8(%rbp),%rax
    9fa0:	48 89 85 38 fe ff ff 	mov    %rax,-0x1c8(%rbp)
    9fa7:	48 c7 85 40 fe ff ff 	movq   $0x0,-0x1c0(%rbp)
    9fae:	00 00 00 00 
    9fb2:	48 8d 85 28 f9 ff ff 	lea    -0x6d8(%rbp),%rax
    9fb9:	48 89 85 48 fe ff ff 	mov    %rax,-0x1b8(%rbp)
    9fc0:	48 8d 85 28 f9 ff ff 	lea    -0x6d8(%rbp),%rax
    9fc7:	48 89 85 50 fe ff ff 	mov    %rax,-0x1b0(%rbp)
    9fce:	48 8d 85 28 f9 ff ff 	lea    -0x6d8(%rbp),%rax
    9fd5:	48 89 85 58 fe ff ff 	mov    %rax,-0x1a8(%rbp)
    9fdc:	48 8d 85 28 f9 ff ff 	lea    -0x6d8(%rbp),%rax
    9fe3:	48 89 85 60 fe ff ff 	mov    %rax,-0x1a0(%rbp)
    9fea:	48 8d 85 28 f9 ff ff 	lea    -0x6d8(%rbp),%rax
    9ff1:	48 89 85 68 fe ff ff 	mov    %rax,-0x198(%rbp)
    9ff8:	48 8d 85 28 f9 ff ff 	lea    -0x6d8(%rbp),%rax
    9fff:	48 89 85 70 fe ff ff 	mov    %rax,-0x190(%rbp)
    a006:	48 c7 85 78 fe ff ff 	movq   $0x0,-0x188(%rbp)
    a00d:	00 00 00 00 
    a011:	48 8d 85 28 f9 ff ff 	lea    -0x6d8(%rbp),%rax
    a018:	48 89 85 80 fe ff ff 	mov    %rax,-0x180(%rbp)
    a01f:	48 8d 85 28 f9 ff ff 	lea    -0x6d8(%rbp),%rax
    a026:	48 89 85 88 fe ff ff 	mov    %rax,-0x178(%rbp)
    a02d:	48 c7 85 90 fe ff ff 	movq   $0x0,-0x170(%rbp)
    a034:	00 00 00 00 
    a038:	48 8d 85 28 f9 ff ff 	lea    -0x6d8(%rbp),%rax
    a03f:	48 89 85 98 fe ff ff 	mov    %rax,-0x168(%rbp)
    a046:	48 8d 85 28 f9 ff ff 	lea    -0x6d8(%rbp),%rax
    a04d:	48 89 85 a0 fe ff ff 	mov    %rax,-0x160(%rbp)
    a054:	48 8d 85 28 f9 ff ff 	lea    -0x6d8(%rbp),%rax
    a05b:	48 89 85 a8 fe ff ff 	mov    %rax,-0x158(%rbp)
    a062:	48 8d 85 28 f9 ff ff 	lea    -0x6d8(%rbp),%rax
    a069:	48 89 85 b0 fe ff ff 	mov    %rax,-0x150(%rbp)
    a070:	48 8d 85 28 f9 ff ff 	lea    -0x6d8(%rbp),%rax
    a077:	48 89 85 b8 fe ff ff 	mov    %rax,-0x148(%rbp)
    a07e:	48 c7 85 c0 fe ff ff 	movq   $0x0,-0x140(%rbp)
    a085:	00 00 00 00 
    a089:	48 c7 85 c8 fe ff ff 	movq   $0x0,-0x138(%rbp)
    a090:	00 00 00 00 
    a094:	48 8d 85 28 f9 ff ff 	lea    -0x6d8(%rbp),%rax
    a09b:	48 89 85 d0 fe ff ff 	mov    %rax,-0x130(%rbp)
    a0a2:	48 c7 85 d8 fe ff ff 	movq   $0x0,-0x128(%rbp)
    a0a9:	00 00 00 00 
    a0ad:	48 8d 85 28 f9 ff ff 	lea    -0x6d8(%rbp),%rax
    a0b4:	48 89 85 e0 fe ff ff 	mov    %rax,-0x120(%rbp)
    a0bb:	48 c7 85 e8 fe ff ff 	movq   $0x0,-0x118(%rbp)
    a0c2:	00 00 00 00 
    a0c6:	48 8d 85 28 f9 ff ff 	lea    -0x6d8(%rbp),%rax
    a0cd:	48 89 85 f0 fe ff ff 	mov    %rax,-0x110(%rbp)
    a0d4:	48 8d 85 28 f9 ff ff 	lea    -0x6d8(%rbp),%rax
    a0db:	48 89 85 f8 fe ff ff 	mov    %rax,-0x108(%rbp)
    a0e2:	48 8d 85 28 f9 ff ff 	lea    -0x6d8(%rbp),%rax
    a0e9:	48 89 85 00 ff ff ff 	mov    %rax,-0x100(%rbp)
    a0f0:	48 8d 85 28 f9 ff ff 	lea    -0x6d8(%rbp),%rax
    a0f7:	48 89 85 08 ff ff ff 	mov    %rax,-0xf8(%rbp)
    a0fe:	48 8d 85 28 f9 ff ff 	lea    -0x6d8(%rbp),%rax
    a105:	48 89 85 10 ff ff ff 	mov    %rax,-0xf0(%rbp)
    a10c:	48 c7 85 18 ff ff ff 	movq   $0x0,-0xe8(%rbp)
    a113:	00 00 00 00 
    a117:	48 c7 85 20 ff ff ff 	movq   $0x0,-0xe0(%rbp)
    a11e:	00 00 00 00 
    a122:	48 8d 85 28 f9 ff ff 	lea    -0x6d8(%rbp),%rax
    a129:	48 89 85 28 ff ff ff 	mov    %rax,-0xd8(%rbp)
    a130:	48 8d 85 28 f9 ff ff 	lea    -0x6d8(%rbp),%rax
    a137:	48 89 85 30 ff ff ff 	mov    %rax,-0xd0(%rbp)
    a13e:	48 8d 85 28 f9 ff ff 	lea    -0x6d8(%rbp),%rax
    a145:	48 89 85 38 ff ff ff 	mov    %rax,-0xc8(%rbp)
    a14c:	48 8d 85 28 f9 ff ff 	lea    -0x6d8(%rbp),%rax
    a153:	48 89 85 40 ff ff ff 	mov    %rax,-0xc0(%rbp)
    a15a:	48 8d 85 28 f9 ff ff 	lea    -0x6d8(%rbp),%rax
    a161:	48 89 85 48 ff ff ff 	mov    %rax,-0xb8(%rbp)
    a168:	48 8d 85 28 f9 ff ff 	lea    -0x6d8(%rbp),%rax
    a16f:	48 89 85 50 ff ff ff 	mov    %rax,-0xb0(%rbp)
    a176:	48 8d 85 28 f9 ff ff 	lea    -0x6d8(%rbp),%rax
    a17d:	48 89 85 58 ff ff ff 	mov    %rax,-0xa8(%rbp)
    a184:	48 8d 85 28 f9 ff ff 	lea    -0x6d8(%rbp),%rax
    a18b:	48 89 85 60 ff ff ff 	mov    %rax,-0xa0(%rbp)
    a192:	48 8d 85 28 f9 ff ff 	lea    -0x6d8(%rbp),%rax
    a199:	48 89 85 68 ff ff ff 	mov    %rax,-0x98(%rbp)
    a1a0:	48 8d 85 28 f9 ff ff 	lea    -0x6d8(%rbp),%rax
    a1a7:	48 89 85 70 ff ff ff 	mov    %rax,-0x90(%rbp)
    a1ae:	48 c7 85 78 ff ff ff 	movq   $0x0,-0x88(%rbp)
    a1b5:	00 00 00 00 
    a1b9:	48 c7 45 80 00 00 00 	movq   $0x0,-0x80(%rbp)
    a1c0:	00 
    a1c1:	48 8d 85 28 f9 ff ff 	lea    -0x6d8(%rbp),%rax
    a1c8:	48 89 45 88          	mov    %rax,-0x78(%rbp)
    a1cc:	48 8d 85 28 f9 ff ff 	lea    -0x6d8(%rbp),%rax
    a1d3:	48 89 45 90          	mov    %rax,-0x70(%rbp)
    a1d7:	48 8d 85 28 f9 ff ff 	lea    -0x6d8(%rbp),%rax
    a1de:	48 89 45 98          	mov    %rax,-0x68(%rbp)
    a1e2:	48 8d 85 28 f9 ff ff 	lea    -0x6d8(%rbp),%rax
    a1e9:	48 89 45 a0          	mov    %rax,-0x60(%rbp)
    a1ed:	48 c7 45 a8 00 00 00 	movq   $0x0,-0x58(%rbp)
    a1f4:	00 
    a1f5:	48 8d 85 28 f9 ff ff 	lea    -0x6d8(%rbp),%rax
    a1fc:	48 89 45 b0          	mov    %rax,-0x50(%rbp)
    a200:	48 8d 85 28 f9 ff ff 	lea    -0x6d8(%rbp),%rax
    a207:	48 89 45 b8          	mov    %rax,-0x48(%rbp)
    a20b:	48 8d 85 28 f9 ff ff 	lea    -0x6d8(%rbp),%rax
    a212:	48 89 45 c0          	mov    %rax,-0x40(%rbp)
    a216:	48 8d 85 28 f9 ff ff 	lea    -0x6d8(%rbp),%rax
    a21d:	48 89 45 c8          	mov    %rax,-0x38(%rbp)
    a221:	48 8d 85 28 f9 ff ff 	lea    -0x6d8(%rbp),%rax
    a228:	48 89 45 d0          	mov    %rax,-0x30(%rbp)
    a22c:	48 8d 85 28 f9 ff ff 	lea    -0x6d8(%rbp),%rax
    a233:	48 89 45 d8          	mov    %rax,-0x28(%rbp)
    a237:	48 8d 85 60 fd ff ff 	lea    -0x2a0(%rbp),%rax
    a23e:	48 83 c0 60          	add    $0x60,%rax
    a242:	48 89 85 58 f9 ff ff 	mov    %rax,-0x6a8(%rbp)
    a249:	0f b6 05 48 5e 00 00 	movzbl 0x5e48(%rip),%eax        # 10098 <g_126>
    a250:	83 c0 01             	add    $0x1,%eax
    a253:	88 05 3f 5e 00 00    	mov    %al,0x5e3f(%rip)        # 10098 <g_126>
    a259:	0f b6 05 38 5e 00 00 	movzbl 0x5e38(%rip),%eax        # 10098 <g_126>
    a260:	3c 09                	cmp    $0x9,%al
    a262:	0f 85 a5 f6 ff ff    	jne    990d <func_73+0x28e>
    a268:	8b 05 0a 62 00 00    	mov    0x620a(%rip),%eax        # 10478 <g_346+0x358>
    a26e:	48 98                	cltq   
    a270:	48 8b 5d e8          	mov    -0x18(%rbp),%rbx
    a274:	64 48 33 1c 25 28 00 	xor    %fs:0x28,%rbx
    a27b:	00 00 
    a27d:	74 05                	je     a284 <func_73+0xc05>
    a27f:	e8 ec 9d ff ff       	callq  4070 <__stack_chk_fail@plt>
    a284:	48 81 c4 58 07 00 00 	add    $0x758,%rsp
    a28b:	5b                   	pop    %rbx
    a28c:	5d                   	pop    %rbp
    a28d:	c3                   	retq   

000000000000a28e <main>:
    a28e:	f3 0f 1e fa          	endbr64 
    a292:	55                   	push   %rbp
    a293:	48 89 e5             	mov    %rsp,%rbp
    a296:	48 83 ec 20          	sub    $0x20,%rsp
    a29a:	89 7d ec             	mov    %edi,-0x14(%rbp)
    a29d:	48 89 75 e0          	mov    %rsi,-0x20(%rbp)
    a2a1:	c7 45 fc 00 00 00 00 	movl   $0x0,-0x4(%rbp)
    a2a8:	83 7d ec 02          	cmpl   $0x2,-0x14(%rbp)
    a2ac:	75 25                	jne    a2d3 <main+0x45>
    a2ae:	48 8b 45 e0          	mov    -0x20(%rbp),%rax
    a2b2:	48 83 c0 08          	add    $0x8,%rax
    a2b6:	48 8b 00             	mov    (%rax),%rax
    a2b9:	48 8d 35 68 2a 00 00 	lea    0x2a68(%rip),%rsi        # cd28 <g_1024+0xcac>
    a2c0:	48 89 c7             	mov    %rax,%rdi
    a2c3:	e8 c8 9d ff ff       	callq  4090 <strcmp@plt>
    a2c8:	85 c0                	test   %eax,%eax
    a2ca:	75 07                	jne    a2d3 <main+0x45>
    a2cc:	c7 45 fc 01 00 00 00 	movl   $0x1,-0x4(%rbp)
    a2d3:	e8 b1 9e ff ff       	callq  4189 <platform_main_begin>
    a2d8:	e8 bb b2 ff ff       	callq  5598 <crc32_gentab>
    a2dd:	e8 d3 b4 ff ff       	callq  57b5 <func_1>
    a2e2:	c7 45 f0 00 00 00 00 	movl   $0x0,-0x10(%rbp)
    a2e9:	eb 4f                	jmp    a33a <main+0xac>
    a2eb:	8b 45 f0             	mov    -0x10(%rbp),%eax
    a2ee:	48 98                	cltq   
    a2f0:	48 8d 14 c5 00 00 00 	lea    0x0(,%rax,8),%rdx
    a2f7:	00 
    a2f8:	48 8d 05 41 5d 00 00 	lea    0x5d41(%rip),%rax        # 10040 <g_5>
    a2ff:	48 8b 04 02          	mov    (%rdx,%rax,1),%rax
    a303:	48 89 c1             	mov    %rax,%rcx
    a306:	8b 45 fc             	mov    -0x4(%rbp),%eax
    a309:	89 c2                	mov    %eax,%edx
    a30b:	48 8d 35 18 2a 00 00 	lea    0x2a18(%rip),%rsi        # cd2a <g_1024+0xcae>
    a312:	48 89 cf             	mov    %rcx,%rdi
    a315:	e8 d9 b3 ff ff       	callq  56f3 <transparent_crc>
    a31a:	83 7d fc 00          	cmpl   $0x0,-0x4(%rbp)
    a31e:	74 16                	je     a336 <main+0xa8>
    a320:	8b 45 f0             	mov    -0x10(%rbp),%eax
    a323:	89 c6                	mov    %eax,%esi
    a325:	48 8d 3d 05 2a 00 00 	lea    0x2a05(%rip),%rdi        # cd31 <g_1024+0xcb5>
    a32c:	b8 00 00 00 00       	mov    $0x0,%eax
    a331:	e8 4a 9d ff ff       	callq  4080 <printf@plt>
    a336:	83 45 f0 01          	addl   $0x1,-0x10(%rbp)
    a33a:	83 7d f0 08          	cmpl   $0x8,-0x10(%rbp)
    a33e:	7e ab                	jle    a2eb <main+0x5d>
    a340:	8b 05 42 5d 00 00    	mov    0x5d42(%rip),%eax        # 10088 <g_34>
    a346:	48 98                	cltq   
    a348:	8b 55 fc             	mov    -0x4(%rbp),%edx
    a34b:	48 8d 35 ed 29 00 00 	lea    0x29ed(%rip),%rsi        # cd3f <g_1024+0xcc3>
    a352:	48 89 c7             	mov    %rax,%rdi
    a355:	e8 99 b3 ff ff       	callq  56f3 <transparent_crc>
    a35a:	c7 45 f0 00 00 00 00 	movl   $0x0,-0x10(%rbp)
    a361:	eb 45                	jmp    a3a8 <main+0x11a>
    a363:	8b 45 f0             	mov    -0x10(%rbp),%eax
    a366:	48 98                	cltq   
    a368:	48 8d 15 1d 5d 00 00 	lea    0x5d1d(%rip),%rdx        # 1008c <g_38>
    a36f:	0f b6 04 10          	movzbl (%rax,%rdx,1),%eax
    a373:	0f b6 c0             	movzbl %al,%eax
    a376:	8b 55 fc             	mov    -0x4(%rbp),%edx
    a379:	48 8d 35 c4 29 00 00 	lea    0x29c4(%rip),%rsi        # cd44 <g_1024+0xcc8>
    a380:	48 89 c7             	mov    %rax,%rdi
    a383:	e8 6b b3 ff ff       	callq  56f3 <transparent_crc>
    a388:	83 7d fc 00          	cmpl   $0x0,-0x4(%rbp)
    a38c:	74 16                	je     a3a4 <main+0x116>
    a38e:	8b 45 f0             	mov    -0x10(%rbp),%eax
    a391:	89 c6                	mov    %eax,%esi
    a393:	48 8d 3d 97 29 00 00 	lea    0x2997(%rip),%rdi        # cd31 <g_1024+0xcb5>
    a39a:	b8 00 00 00 00       	mov    $0x0,%eax
    a39f:	e8 dc 9c ff ff       	callq  4080 <printf@plt>
    a3a4:	83 45 f0 01          	addl   $0x1,-0x10(%rbp)
    a3a8:	83 7d f0 04          	cmpl   $0x4,-0x10(%rbp)
    a3ac:	7e b5                	jle    a363 <main+0xd5>
    a3ae:	0f b6 05 dc 5c 00 00 	movzbl 0x5cdc(%rip),%eax        # 10091 <g_110>
    a3b5:	0f b6 c0             	movzbl %al,%eax
    a3b8:	8b 55 fc             	mov    -0x4(%rbp),%edx
    a3bb:	48 8d 35 8a 29 00 00 	lea    0x298a(%rip),%rsi        # cd4c <g_1024+0xcd0>
    a3c2:	48 89 c7             	mov    %rax,%rdi
    a3c5:	e8 29 b3 ff ff       	callq  56f3 <transparent_crc>
    a3ca:	8b 05 c4 5c 00 00    	mov    0x5cc4(%rip),%eax        # 10094 <g_113>
    a3d0:	48 98                	cltq   
    a3d2:	8b 55 fc             	mov    -0x4(%rbp),%edx
    a3d5:	48 8d 35 76 29 00 00 	lea    0x2976(%rip),%rsi        # cd52 <g_1024+0xcd6>
    a3dc:	48 89 c7             	mov    %rax,%rdi
    a3df:	e8 0f b3 ff ff       	callq  56f3 <transparent_crc>
    a3e4:	0f b6 05 ad 5c 00 00 	movzbl 0x5cad(%rip),%eax        # 10098 <g_126>
    a3eb:	48 0f be c0          	movsbq %al,%rax
    a3ef:	8b 55 fc             	mov    -0x4(%rbp),%edx
    a3f2:	48 8d 35 5f 29 00 00 	lea    0x295f(%rip),%rsi        # cd58 <g_1024+0xcdc>
    a3f9:	48 89 c7             	mov    %rax,%rdi
    a3fc:	e8 f2 b2 ff ff       	callq  56f3 <transparent_crc>
    a401:	0f b7 05 98 5c 00 00 	movzwl 0x5c98(%rip),%eax        # 100a0 <g_133>
    a408:	48 0f bf c0          	movswq %ax,%rax
    a40c:	8b 55 fc             	mov    -0x4(%rbp),%edx
    a40f:	48 8d 35 48 29 00 00 	lea    0x2948(%rip),%rsi        # cd5e <g_1024+0xce2>
    a416:	48 89 c7             	mov    %rax,%rdi
    a419:	e8 d5 b2 ff ff       	callq  56f3 <transparent_crc>
    a41e:	0f b7 05 7d 5c 00 00 	movzwl 0x5c7d(%rip),%eax        # 100a2 <g_133+0x2>
    a425:	c1 e0 03             	shl    $0x3,%eax
    a428:	66 c1 f8 03          	sar    $0x3,%ax
    a42c:	48 0f bf c0          	movswq %ax,%rax
    a430:	8b 55 fc             	mov    -0x4(%rbp),%edx
    a433:	48 8d 35 2d 29 00 00 	lea    0x292d(%rip),%rsi        # cd67 <g_1024+0xceb>
    a43a:	48 89 c7             	mov    %rax,%rdi
    a43d:	e8 b1 b2 ff ff       	callq  56f3 <transparent_crc>
    a442:	48 8b 05 57 5c 00 00 	mov    0x5c57(%rip),%rax        # 100a0 <g_133>
    a449:	48 c1 e8 20          	shr    $0x20,%rax
    a44d:	66 25 ff 1f          	and    $0x1fff,%ax
    a451:	0f b7 c0             	movzwl %ax,%eax
    a454:	8b 55 fc             	mov    -0x4(%rbp),%edx
    a457:	48 8d 35 12 29 00 00 	lea    0x2912(%rip),%rsi        # cd70 <g_1024+0xcf4>
    a45e:	48 89 c7             	mov    %rax,%rdi
    a461:	e8 8d b2 ff ff       	callq  56f3 <transparent_crc>
    a466:	8b 05 3c 5c 00 00    	mov    0x5c3c(%rip),%eax        # 100a8 <g_133+0x8>
    a46c:	c1 e0 05             	shl    $0x5,%eax
    a46f:	c1 f8 05             	sar    $0x5,%eax
    a472:	48 98                	cltq   
    a474:	8b 55 fc             	mov    -0x4(%rbp),%edx
    a477:	48 8d 35 fb 28 00 00 	lea    0x28fb(%rip),%rsi        # cd79 <g_1024+0xcfd>
    a47e:	48 89 c7             	mov    %rax,%rdi
    a481:	e8 6d b2 ff ff       	callq  56f3 <transparent_crc>
    a486:	48 8b 05 1b 5c 00 00 	mov    0x5c1b(%rip),%rax        # 100a8 <g_133+0x8>
    a48d:	48 c1 e0 0c          	shl    $0xc,%rax
    a491:	48 c1 f8 2c          	sar    $0x2c,%rax
    a495:	48 98                	cltq   
    a497:	8b 55 fc             	mov    -0x4(%rbp),%edx
    a49a:	48 8d 35 e1 28 00 00 	lea    0x28e1(%rip),%rsi        # cd82 <g_1024+0xd06>
    a4a1:	48 89 c7             	mov    %rax,%rdi
    a4a4:	e8 4a b2 ff ff       	callq  56f3 <transparent_crc>
    a4a9:	0f b7 05 00 5c 00 00 	movzwl 0x5c00(%rip),%eax        # 100b0 <g_165>
    a4b0:	48 0f bf c0          	movswq %ax,%rax
    a4b4:	8b 55 fc             	mov    -0x4(%rbp),%edx
    a4b7:	48 8d 35 cd 28 00 00 	lea    0x28cd(%rip),%rsi        # cd8b <g_1024+0xd0f>
    a4be:	48 89 c7             	mov    %rax,%rdi
    a4c1:	e8 2d b2 ff ff       	callq  56f3 <transparent_crc>
    a4c6:	0f b6 05 e5 5b 00 00 	movzbl 0x5be5(%rip),%eax        # 100b2 <g_178>
    a4cd:	0f b6 c0             	movzbl %al,%eax
    a4d0:	8b 55 fc             	mov    -0x4(%rbp),%edx
    a4d3:	48 8d 35 b7 28 00 00 	lea    0x28b7(%rip),%rsi        # cd91 <g_1024+0xd15>
    a4da:	48 89 c7             	mov    %rax,%rdi
    a4dd:	e8 11 b2 ff ff       	callq  56f3 <transparent_crc>
    a4e2:	0f b7 05 cb 5b 00 00 	movzwl 0x5bcb(%rip),%eax        # 100b4 <g_205>
    a4e9:	48 0f bf c0          	movswq %ax,%rax
    a4ed:	8b 55 fc             	mov    -0x4(%rbp),%edx
    a4f0:	48 8d 35 a0 28 00 00 	lea    0x28a0(%rip),%rsi        # cd97 <g_1024+0xd1b>
    a4f7:	48 89 c7             	mov    %rax,%rdi
    a4fa:	e8 f4 b1 ff ff       	callq  56f3 <transparent_crc>
    a4ff:	0f b7 05 ba 5b 00 00 	movzwl 0x5bba(%rip),%eax        # 100c0 <g_209>
    a506:	48 0f bf c0          	movswq %ax,%rax
    a50a:	8b 55 fc             	mov    -0x4(%rbp),%edx
    a50d:	48 8d 35 89 28 00 00 	lea    0x2889(%rip),%rsi        # cd9d <g_1024+0xd21>
    a514:	48 89 c7             	mov    %rax,%rdi
    a517:	e8 d7 b1 ff ff       	callq  56f3 <transparent_crc>
    a51c:	48 8b 05 9d 5b 00 00 	mov    0x5b9d(%rip),%rax        # 100c0 <g_209>
    a523:	c1 e0 03             	shl    $0x3,%eax
    a526:	c1 f8 13             	sar    $0x13,%eax
    a529:	48 0f bf c0          	movswq %ax,%rax
    a52d:	8b 55 fc             	mov    -0x4(%rbp),%edx
    a530:	48 8d 35 6f 28 00 00 	lea    0x286f(%rip),%rsi        # cda6 <g_1024+0xd2a>
    a537:	48 89 c7             	mov    %rax,%rdi
    a53a:	e8 b4 b1 ff ff       	callq  56f3 <transparent_crc>
    a53f:	48 8b 05 7a 5b 00 00 	mov    0x5b7a(%rip),%rax        # 100c0 <g_209>
    a546:	48 c1 e8 20          	shr    $0x20,%rax
    a54a:	66 25 ff 1f          	and    $0x1fff,%ax
    a54e:	0f b7 c0             	movzwl %ax,%eax
    a551:	8b 55 fc             	mov    -0x4(%rbp),%edx
    a554:	48 8d 35 54 28 00 00 	lea    0x2854(%rip),%rsi        # cdaf <g_1024+0xd33>
    a55b:	48 89 c7             	mov    %rax,%rdi
    a55e:	e8 90 b1 ff ff       	callq  56f3 <transparent_crc>
    a563:	48 8b 05 5e 5b 00 00 	mov    0x5b5e(%rip),%rax        # 100c8 <g_209+0x8>
    a56a:	c1 e0 05             	shl    $0x5,%eax
    a56d:	c1 f8 05             	sar    $0x5,%eax
    a570:	48 98                	cltq   
    a572:	8b 55 fc             	mov    -0x4(%rbp),%edx
    a575:	48 8d 35 3c 28 00 00 	lea    0x283c(%rip),%rsi        # cdb8 <g_1024+0xd3c>
    a57c:	48 89 c7             	mov    %rax,%rdi
    a57f:	e8 6f b1 ff ff       	callq  56f3 <transparent_crc>
    a584:	48 8b 05 3d 5b 00 00 	mov    0x5b3d(%rip),%rax        # 100c8 <g_209+0x8>
    a58b:	48 c1 e0 0c          	shl    $0xc,%rax
    a58f:	48 c1 f8 2c          	sar    $0x2c,%rax
    a593:	48 98                	cltq   
    a595:	8b 55 fc             	mov    -0x4(%rbp),%edx
    a598:	48 8d 35 22 28 00 00 	lea    0x2822(%rip),%rsi        # cdc1 <g_1024+0xd45>
    a59f:	48 89 c7             	mov    %rax,%rdi
    a5a2:	e8 4c b1 ff ff       	callq  56f3 <transparent_crc>
    a5a7:	0f b7 05 22 5b 00 00 	movzwl 0x5b22(%rip),%eax        # 100d0 <g_216>
    a5ae:	0f b7 c0             	movzwl %ax,%eax
    a5b1:	8b 55 fc             	mov    -0x4(%rbp),%edx
    a5b4:	48 8d 35 0f 28 00 00 	lea    0x280f(%rip),%rsi        # cdca <g_1024+0xd4e>
    a5bb:	48 89 c7             	mov    %rax,%rdi
    a5be:	e8 30 b1 ff ff       	callq  56f3 <transparent_crc>
    a5c3:	0f b7 05 46 7e 00 00 	movzwl 0x7e46(%rip),%eax        # 12410 <g_232>
    a5ca:	0f b7 c0             	movzwl %ax,%eax
    a5cd:	8b 55 fc             	mov    -0x4(%rbp),%edx
    a5d0:	48 8d 35 f9 27 00 00 	lea    0x27f9(%rip),%rsi        # cdd0 <g_1024+0xd54>
    a5d7:	48 89 c7             	mov    %rax,%rdi
    a5da:	e8 14 b1 ff ff       	callq  56f3 <transparent_crc>
    a5df:	c7 45 f0 00 00 00 00 	movl   $0x0,-0x10(%rbp)
    a5e6:	eb 4f                	jmp    a637 <main+0x3a9>
    a5e8:	8b 45 f0             	mov    -0x10(%rbp),%eax
    a5eb:	48 98                	cltq   
    a5ed:	48 8d 14 c5 00 00 00 	lea    0x0(,%rax,8),%rdx
    a5f4:	00 
    a5f5:	48 8d 05 e4 5a 00 00 	lea    0x5ae4(%rip),%rax        # 100e0 <g_297>
    a5fc:	48 8b 04 02          	mov    (%rdx,%rax,1),%rax
    a600:	48 89 c1             	mov    %rax,%rcx
    a603:	8b 45 fc             	mov    -0x4(%rbp),%eax
    a606:	89 c2                	mov    %eax,%edx
    a608:	48 8d 35 c7 27 00 00 	lea    0x27c7(%rip),%rsi        # cdd6 <g_1024+0xd5a>
    a60f:	48 89 cf             	mov    %rcx,%rdi
    a612:	e8 dc b0 ff ff       	callq  56f3 <transparent_crc>
    a617:	83 7d fc 00          	cmpl   $0x0,-0x4(%rbp)
    a61b:	74 16                	je     a633 <main+0x3a5>
    a61d:	8b 45 f0             	mov    -0x10(%rbp),%eax
    a620:	89 c6                	mov    %eax,%esi
    a622:	48 8d 3d 08 27 00 00 	lea    0x2708(%rip),%rdi        # cd31 <g_1024+0xcb5>
    a629:	b8 00 00 00 00       	mov    $0x0,%eax
    a62e:	e8 4d 9a ff ff       	callq  4080 <printf@plt>
    a633:	83 45 f0 01          	addl   $0x1,-0x10(%rbp)
    a637:	83 7d f0 06          	cmpl   $0x6,-0x10(%rbp)
    a63b:	7e ab                	jle    a5e8 <main+0x35a>
    a63d:	8b 05 d5 5a 00 00    	mov    0x5ad5(%rip),%eax        # 10118 <g_310>
    a643:	48 98                	cltq   
    a645:	8b 55 fc             	mov    -0x4(%rbp),%edx
    a648:	48 8d 35 90 27 00 00 	lea    0x2790(%rip),%rsi        # cddf <g_1024+0xd63>
    a64f:	48 89 c7             	mov    %rax,%rdi
    a652:	e8 9c b0 ff ff       	callq  56f3 <transparent_crc>
    a657:	c7 45 f0 00 00 00 00 	movl   $0x0,-0x10(%rbp)
    a65e:	eb 69                	jmp    a6c9 <main+0x43b>
    a660:	c7 45 f4 00 00 00 00 	movl   $0x0,-0xc(%rbp)
    a667:	eb 56                	jmp    a6bf <main+0x431>
    a669:	8b 45 f4             	mov    -0xc(%rbp),%eax
    a66c:	48 63 d0             	movslq %eax,%rdx
    a66f:	8b 45 f0             	mov    -0x10(%rbp),%eax
    a672:	48 98                	cltq   
    a674:	48 01 d0             	add    %rdx,%rax
    a677:	48 8d 14 c5 00 00 00 	lea    0x0(,%rax,8),%rdx
    a67e:	00 
    a67f:	48 8d 05 9a 7d 00 00 	lea    0x7d9a(%rip),%rax        # 12420 <g_323>
    a686:	48 8b 04 02          	mov    (%rdx,%rax,1),%rax
    a68a:	8b 55 fc             	mov    -0x4(%rbp),%edx
    a68d:	48 8d 35 51 27 00 00 	lea    0x2751(%rip),%rsi        # cde5 <g_1024+0xd69>
    a694:	48 89 c7             	mov    %rax,%rdi
    a697:	e8 57 b0 ff ff       	callq  56f3 <transparent_crc>
    a69c:	83 7d fc 00          	cmpl   $0x0,-0x4(%rbp)
    a6a0:	74 19                	je     a6bb <main+0x42d>
    a6a2:	8b 55 f4             	mov    -0xc(%rbp),%edx
    a6a5:	8b 45 f0             	mov    -0x10(%rbp),%eax
    a6a8:	89 c6                	mov    %eax,%esi
    a6aa:	48 8d 3d 40 27 00 00 	lea    0x2740(%rip),%rdi        # cdf1 <g_1024+0xd75>
    a6b1:	b8 00 00 00 00       	mov    $0x0,%eax
    a6b6:	e8 c5 99 ff ff       	callq  4080 <printf@plt>
    a6bb:	83 45 f4 01          	addl   $0x1,-0xc(%rbp)
    a6bf:	83 7d f4 00          	cmpl   $0x0,-0xc(%rbp)
    a6c3:	7e a4                	jle    a669 <main+0x3db>
    a6c5:	83 45 f0 01          	addl   $0x1,-0x10(%rbp)
    a6c9:	83 7d f0 07          	cmpl   $0x7,-0x10(%rbp)
    a6cd:	7e 91                	jle    a660 <main+0x3d2>
    a6cf:	c7 45 f0 00 00 00 00 	movl   $0x0,-0x10(%rbp)
    a6d6:	e9 b5 00 00 00       	jmpq   a790 <main+0x502>
    a6db:	c7 45 f4 00 00 00 00 	movl   $0x0,-0xc(%rbp)
    a6e2:	e9 9b 00 00 00       	jmpq   a782 <main+0x4f4>
    a6e7:	c7 45 f8 00 00 00 00 	movl   $0x0,-0x8(%rbp)
    a6ee:	e9 81 00 00 00       	jmpq   a774 <main+0x4e6>
    a6f3:	8b 45 f8             	mov    -0x8(%rbp),%eax
    a6f6:	48 63 f0             	movslq %eax,%rsi
    a6f9:	8b 45 f0             	mov    -0x10(%rbp),%eax
    a6fc:	48 63 d0             	movslq %eax,%rdx
    a6ff:	8b 45 f4             	mov    -0xc(%rbp),%eax
    a702:	48 63 c8             	movslq %eax,%rcx
    a705:	48 89 d0             	mov    %rdx,%rax
    a708:	48 01 c0             	add    %rax,%rax
    a70b:	48 01 d0             	add    %rdx,%rax
    a70e:	48 89 c2             	mov    %rax,%rdx
    a711:	48 c1 e2 04          	shl    $0x4,%rdx
    a715:	48 29 c2             	sub    %rax,%rdx
    a718:	48 89 c8             	mov    %rcx,%rax
    a71b:	48 c1 e0 02          	shl    $0x2,%rax
    a71f:	48 01 c8             	add    %rcx,%rax
    a722:	48 01 d0             	add    %rdx,%rax
    a725:	48 01 f0             	add    %rsi,%rax
    a728:	48 8d 14 85 00 00 00 	lea    0x0(,%rax,4),%rdx
    a72f:	00 
    a730:	48 8d 05 e9 59 00 00 	lea    0x59e9(%rip),%rax        # 10120 <g_346>
    a737:	8b 04 02             	mov    (%rdx,%rax,1),%eax
    a73a:	48 98                	cltq   
    a73c:	8b 55 fc             	mov    -0x4(%rbp),%edx
    a73f:	48 8d 35 bd 26 00 00 	lea    0x26bd(%rip),%rsi        # ce03 <g_1024+0xd87>
    a746:	48 89 c7             	mov    %rax,%rdi
    a749:	e8 a5 af ff ff       	callq  56f3 <transparent_crc>
    a74e:	83 7d fc 00          	cmpl   $0x0,-0x4(%rbp)
    a752:	74 1c                	je     a770 <main+0x4e2>
    a754:	8b 4d f8             	mov    -0x8(%rbp),%ecx
    a757:	8b 55 f4             	mov    -0xc(%rbp),%edx
    a75a:	8b 45 f0             	mov    -0x10(%rbp),%eax
    a75d:	89 c6                	mov    %eax,%esi
    a75f:	48 8d 3d ac 26 00 00 	lea    0x26ac(%rip),%rdi        # ce12 <g_1024+0xd96>
    a766:	b8 00 00 00 00       	mov    $0x0,%eax
    a76b:	e8 10 99 ff ff       	callq  4080 <printf@plt>
    a770:	83 45 f8 01          	addl   $0x1,-0x8(%rbp)
    a774:	83 7d f8 04          	cmpl   $0x4,-0x8(%rbp)
    a778:	0f 8e 75 ff ff ff    	jle    a6f3 <main+0x465>
    a77e:	83 45 f4 01          	addl   $0x1,-0xc(%rbp)
    a782:	83 7d f4 08          	cmpl   $0x8,-0xc(%rbp)
    a786:	0f 8e 5b ff ff ff    	jle    a6e7 <main+0x459>
    a78c:	83 45 f0 01          	addl   $0x1,-0x10(%rbp)
    a790:	83 7d f0 04          	cmpl   $0x4,-0x10(%rbp)
    a794:	0f 8e 41 ff ff ff    	jle    a6db <main+0x44d>
    a79a:	8b 05 04 5d 00 00    	mov    0x5d04(%rip),%eax        # 104a4 <g_413>
    a7a0:	89 c1                	mov    %eax,%ecx
    a7a2:	8b 45 fc             	mov    -0x4(%rbp),%eax
    a7a5:	89 c2                	mov    %eax,%edx
    a7a7:	48 8d 35 7a 26 00 00 	lea    0x267a(%rip),%rsi        # ce28 <g_1024+0xdac>
    a7ae:	48 89 cf             	mov    %rcx,%rdi
    a7b1:	e8 3d af ff ff       	callq  56f3 <transparent_crc>
    a7b6:	0f b6 05 eb 5c 00 00 	movzbl 0x5ceb(%rip),%eax        # 104a8 <g_471>
    a7bd:	48 0f be c0          	movsbq %al,%rax
    a7c1:	8b 55 fc             	mov    -0x4(%rbp),%edx
    a7c4:	48 8d 35 63 26 00 00 	lea    0x2663(%rip),%rsi        # ce2e <g_1024+0xdb2>
    a7cb:	48 89 c7             	mov    %rax,%rdi
    a7ce:	e8 20 af ff ff       	callq  56f3 <transparent_crc>
    a7d3:	c7 45 f0 00 00 00 00 	movl   $0x0,-0x10(%rbp)
    a7da:	eb 46                	jmp    a822 <main+0x594>
    a7dc:	8b 45 f0             	mov    -0x10(%rbp),%eax
    a7df:	48 98                	cltq   
    a7e1:	48 8d 15 c1 5c 00 00 	lea    0x5cc1(%rip),%rdx        # 104a9 <g_533>
    a7e8:	0f b6 04 10          	movzbl (%rax,%rdx,1),%eax
    a7ec:	48 0f be c0          	movsbq %al,%rax
    a7f0:	8b 55 fc             	mov    -0x4(%rbp),%edx
    a7f3:	48 8d 35 3a 26 00 00 	lea    0x263a(%rip),%rsi        # ce34 <g_1024+0xdb8>
    a7fa:	48 89 c7             	mov    %rax,%rdi
    a7fd:	e8 f1 ae ff ff       	callq  56f3 <transparent_crc>
    a802:	83 7d fc 00          	cmpl   $0x0,-0x4(%rbp)
    a806:	74 16                	je     a81e <main+0x590>
    a808:	8b 45 f0             	mov    -0x10(%rbp),%eax
    a80b:	89 c6                	mov    %eax,%esi
    a80d:	48 8d 3d 1d 25 00 00 	lea    0x251d(%rip),%rdi        # cd31 <g_1024+0xcb5>
    a814:	b8 00 00 00 00       	mov    $0x0,%eax
    a819:	e8 62 98 ff ff       	callq  4080 <printf@plt>
    a81e:	83 45 f0 01          	addl   $0x1,-0x10(%rbp)
    a822:	83 7d f0 06          	cmpl   $0x6,-0x10(%rbp)
    a826:	7e b4                	jle    a7dc <main+0x54e>
    a828:	0f b7 05 81 5c 00 00 	movzwl 0x5c81(%rip),%eax        # 104b0 <g_622>
    a82f:	48 0f bf c0          	movswq %ax,%rax
    a833:	8b 55 fc             	mov    -0x4(%rbp),%edx
    a836:	48 8d 35 00 26 00 00 	lea    0x2600(%rip),%rsi        # ce3d <g_1024+0xdc1>
    a83d:	48 89 c7             	mov    %rax,%rdi
    a840:	e8 ae ae ff ff       	callq  56f3 <transparent_crc>
    a845:	0f b7 05 66 5c 00 00 	movzwl 0x5c66(%rip),%eax        # 104b2 <g_622+0x2>
    a84c:	c1 e0 03             	shl    $0x3,%eax
    a84f:	66 c1 f8 03          	sar    $0x3,%ax
    a853:	48 0f bf c0          	movswq %ax,%rax
    a857:	8b 55 fc             	mov    -0x4(%rbp),%edx
    a85a:	48 8d 35 e5 25 00 00 	lea    0x25e5(%rip),%rsi        # ce46 <g_1024+0xdca>
    a861:	48 89 c7             	mov    %rax,%rdi
    a864:	e8 8a ae ff ff       	callq  56f3 <transparent_crc>
    a869:	48 8b 05 40 5c 00 00 	mov    0x5c40(%rip),%rax        # 104b0 <g_622>
    a870:	48 c1 e8 20          	shr    $0x20,%rax
    a874:	66 25 ff 1f          	and    $0x1fff,%ax
    a878:	0f b7 c0             	movzwl %ax,%eax
    a87b:	8b 55 fc             	mov    -0x4(%rbp),%edx
    a87e:	48 8d 35 ca 25 00 00 	lea    0x25ca(%rip),%rsi        # ce4f <g_1024+0xdd3>
    a885:	48 89 c7             	mov    %rax,%rdi
    a888:	e8 66 ae ff ff       	callq  56f3 <transparent_crc>
    a88d:	8b 05 25 5c 00 00    	mov    0x5c25(%rip),%eax        # 104b8 <g_622+0x8>
    a893:	c1 e0 05             	shl    $0x5,%eax
    a896:	c1 f8 05             	sar    $0x5,%eax
    a899:	48 98                	cltq   
    a89b:	8b 55 fc             	mov    -0x4(%rbp),%edx
    a89e:	48 8d 35 b3 25 00 00 	lea    0x25b3(%rip),%rsi        # ce58 <g_1024+0xddc>
    a8a5:	48 89 c7             	mov    %rax,%rdi
    a8a8:	e8 46 ae ff ff       	callq  56f3 <transparent_crc>
    a8ad:	48 8b 05 04 5c 00 00 	mov    0x5c04(%rip),%rax        # 104b8 <g_622+0x8>
    a8b4:	48 c1 e0 0c          	shl    $0xc,%rax
    a8b8:	48 c1 f8 2c          	sar    $0x2c,%rax
    a8bc:	48 98                	cltq   
    a8be:	8b 55 fc             	mov    -0x4(%rbp),%edx
    a8c1:	48 8d 35 99 25 00 00 	lea    0x2599(%rip),%rsi        # ce61 <g_1024+0xde5>
    a8c8:	48 89 c7             	mov    %rax,%rdi
    a8cb:	e8 23 ae ff ff       	callq  56f3 <transparent_crc>
    a8d0:	48 8b 05 89 7b 00 00 	mov    0x7b89(%rip),%rax        # 12460 <g_663>
    a8d7:	48 89 c1             	mov    %rax,%rcx
    a8da:	8b 45 fc             	mov    -0x4(%rbp),%eax
    a8dd:	89 c2                	mov    %eax,%edx
    a8df:	48 8d 35 84 25 00 00 	lea    0x2584(%rip),%rsi        # ce6a <g_1024+0xdee>
    a8e6:	48 89 cf             	mov    %rcx,%rdi
    a8e9:	e8 05 ae ff ff       	callq  56f3 <transparent_crc>
    a8ee:	0f b6 05 cb 5b 00 00 	movzbl 0x5bcb(%rip),%eax        # 104c0 <g_700>
    a8f5:	48 0f be c0          	movsbq %al,%rax
    a8f9:	8b 55 fc             	mov    -0x4(%rbp),%edx
    a8fc:	48 8d 35 6d 25 00 00 	lea    0x256d(%rip),%rsi        # ce70 <g_1024+0xdf4>
    a903:	48 89 c7             	mov    %rax,%rdi
    a906:	e8 e8 ad ff ff       	callq  56f3 <transparent_crc>
    a90b:	8b 05 b3 5b 00 00    	mov    0x5bb3(%rip),%eax        # 104c4 <g_710>
    a911:	89 c1                	mov    %eax,%ecx
    a913:	8b 45 fc             	mov    -0x4(%rbp),%eax
    a916:	89 c2                	mov    %eax,%edx
    a918:	48 8d 35 57 25 00 00 	lea    0x2557(%rip),%rsi        # ce76 <g_1024+0xdfa>
    a91f:	48 89 cf             	mov    %rcx,%rdi
    a922:	e8 cc ad ff ff       	callq  56f3 <transparent_crc>
    a927:	c7 45 f0 00 00 00 00 	movl   $0x0,-0x10(%rbp)
    a92e:	eb 4a                	jmp    a97a <main+0x6ec>
    a930:	8b 45 f0             	mov    -0x10(%rbp),%eax
    a933:	48 98                	cltq   
    a935:	48 8d 14 00          	lea    (%rax,%rax,1),%rdx
    a939:	48 8d 05 88 5b 00 00 	lea    0x5b88(%rip),%rax        # 104c8 <g_790>
    a940:	0f b7 04 02          	movzwl (%rdx,%rax,1),%eax
    a944:	48 0f bf c0          	movswq %ax,%rax
    a948:	8b 55 fc             	mov    -0x4(%rbp),%edx
    a94b:	48 8d 35 2a 25 00 00 	lea    0x252a(%rip),%rsi        # ce7c <g_1024+0xe00>
    a952:	48 89 c7             	mov    %rax,%rdi
    a955:	e8 99 ad ff ff       	callq  56f3 <transparent_crc>
    a95a:	83 7d fc 00          	cmpl   $0x0,-0x4(%rbp)
    a95e:	74 16                	je     a976 <main+0x6e8>
    a960:	8b 45 f0             	mov    -0x10(%rbp),%eax
    a963:	89 c6                	mov    %eax,%esi
    a965:	48 8d 3d c5 23 00 00 	lea    0x23c5(%rip),%rdi        # cd31 <g_1024+0xcb5>
    a96c:	b8 00 00 00 00       	mov    $0x0,%eax
    a971:	e8 0a 97 ff ff       	callq  4080 <printf@plt>
    a976:	83 45 f0 01          	addl   $0x1,-0x10(%rbp)
    a97a:	83 7d f0 06          	cmpl   $0x6,-0x10(%rbp)
    a97e:	7e b0                	jle    a930 <main+0x6a2>
    a980:	8b 05 52 5b 00 00    	mov    0x5b52(%rip),%eax        # 104d8 <g_840>
    a986:	48 98                	cltq   
    a988:	8b 55 fc             	mov    -0x4(%rbp),%edx
    a98b:	48 8d 35 f3 24 00 00 	lea    0x24f3(%rip),%rsi        # ce85 <g_1024+0xe09>
    a992:	48 89 c7             	mov    %rax,%rdi
    a995:	e8 59 ad ff ff       	callq  56f3 <transparent_crc>
    a99a:	c7 45 f0 00 00 00 00 	movl   $0x0,-0x10(%rbp)
    a9a1:	eb 4b                	jmp    a9ee <main+0x760>
    a9a3:	8b 45 f0             	mov    -0x10(%rbp),%eax
    a9a6:	48 98                	cltq   
    a9a8:	48 8d 14 85 00 00 00 	lea    0x0(,%rax,4),%rdx
    a9af:	00 
    a9b0:	48 8d 05 a9 16 00 00 	lea    0x16a9(%rip),%rax        # c060 <g_908>
    a9b7:	8b 04 02             	mov    (%rdx,%rax,1),%eax
    a9ba:	48 98                	cltq   
    a9bc:	8b 55 fc             	mov    -0x4(%rbp),%edx
    a9bf:	48 8d 35 c5 24 00 00 	lea    0x24c5(%rip),%rsi        # ce8b <g_1024+0xe0f>
    a9c6:	48 89 c7             	mov    %rax,%rdi
    a9c9:	e8 25 ad ff ff       	callq  56f3 <transparent_crc>
    a9ce:	83 7d fc 00          	cmpl   $0x0,-0x4(%rbp)
    a9d2:	74 16                	je     a9ea <main+0x75c>
    a9d4:	8b 45 f0             	mov    -0x10(%rbp),%eax
    a9d7:	89 c6                	mov    %eax,%esi
    a9d9:	48 8d 3d 51 23 00 00 	lea    0x2351(%rip),%rdi        # cd31 <g_1024+0xcb5>
    a9e0:	b8 00 00 00 00       	mov    $0x0,%eax
    a9e5:	e8 96 96 ff ff       	callq  4080 <printf@plt>
    a9ea:	83 45 f0 01          	addl   $0x1,-0x10(%rbp)
    a9ee:	83 7d f0 06          	cmpl   $0x6,-0x10(%rbp)
    a9f2:	7e af                	jle    a9a3 <main+0x715>
    a9f4:	48 8b 05 e5 5a 00 00 	mov    0x5ae5(%rip),%rax        # 104e0 <g_924>
    a9fb:	48 89 c1             	mov    %rax,%rcx
    a9fe:	8b 45 fc             	mov    -0x4(%rbp),%eax
    aa01:	89 c2                	mov    %eax,%edx
    aa03:	48 8d 35 8a 24 00 00 	lea    0x248a(%rip),%rsi        # ce94 <g_1024+0xe18>
    aa0a:	48 89 cf             	mov    %rcx,%rdi
    aa0d:	e8 e1 ac ff ff       	callq  56f3 <transparent_crc>
    aa12:	0f b6 05 cf 5a 00 00 	movzbl 0x5acf(%rip),%eax        # 104e8 <g_955>
    aa19:	0f b6 c0             	movzbl %al,%eax
    aa1c:	8b 55 fc             	mov    -0x4(%rbp),%edx
    aa1f:	48 8d 35 74 24 00 00 	lea    0x2474(%rip),%rsi        # ce9a <g_1024+0xe1e>
    aa26:	48 89 c7             	mov    %rax,%rdi
    aa29:	e8 c5 ac ff ff       	callq  56f3 <transparent_crc>
    aa2e:	b8 4f 89 ff ff       	mov    $0xffff894f,%eax
    aa33:	48 0f bf c0          	movswq %ax,%rax
    aa37:	8b 55 fc             	mov    -0x4(%rbp),%edx
    aa3a:	48 8d 35 5f 24 00 00 	lea    0x245f(%rip),%rsi        # cea0 <g_1024+0xe24>
    aa41:	48 89 c7             	mov    %rax,%rdi
    aa44:	e8 aa ac ff ff       	callq  56f3 <transparent_crc>
    aa49:	0f b7 05 a0 5a 00 00 	movzwl 0x5aa0(%rip),%eax        # 104f0 <g_1137>
    aa50:	48 0f bf c0          	movswq %ax,%rax
    aa54:	8b 55 fc             	mov    -0x4(%rbp),%edx
    aa57:	48 8d 35 49 24 00 00 	lea    0x2449(%rip),%rsi        # cea7 <g_1024+0xe2b>
    aa5e:	48 89 c7             	mov    %rax,%rdi
    aa61:	e8 8d ac ff ff       	callq  56f3 <transparent_crc>
    aa66:	48 8b 05 83 5a 00 00 	mov    0x5a83(%rip),%rax        # 104f0 <g_1137>
    aa6d:	c1 e0 03             	shl    $0x3,%eax
    aa70:	c1 f8 13             	sar    $0x13,%eax
    aa73:	48 0f bf c0          	movswq %ax,%rax
    aa77:	8b 55 fc             	mov    -0x4(%rbp),%edx
    aa7a:	48 8d 35 30 24 00 00 	lea    0x2430(%rip),%rsi        # ceb1 <g_1024+0xe35>
    aa81:	48 89 c7             	mov    %rax,%rdi
    aa84:	e8 6a ac ff ff       	callq  56f3 <transparent_crc>
    aa89:	48 8b 05 60 5a 00 00 	mov    0x5a60(%rip),%rax        # 104f0 <g_1137>
    aa90:	48 c1 e8 20          	shr    $0x20,%rax
    aa94:	66 25 ff 1f          	and    $0x1fff,%ax
    aa98:	0f b7 c0             	movzwl %ax,%eax
    aa9b:	8b 55 fc             	mov    -0x4(%rbp),%edx
    aa9e:	48 8d 35 16 24 00 00 	lea    0x2416(%rip),%rsi        # cebb <g_1024+0xe3f>
    aaa5:	48 89 c7             	mov    %rax,%rdi
    aaa8:	e8 46 ac ff ff       	callq  56f3 <transparent_crc>
    aaad:	48 8b 05 44 5a 00 00 	mov    0x5a44(%rip),%rax        # 104f8 <g_1137+0x8>
    aab4:	c1 e0 05             	shl    $0x5,%eax
    aab7:	c1 f8 05             	sar    $0x5,%eax
    aaba:	48 98                	cltq   
    aabc:	8b 55 fc             	mov    -0x4(%rbp),%edx
    aabf:	48 8d 35 ff 23 00 00 	lea    0x23ff(%rip),%rsi        # cec5 <g_1024+0xe49>
    aac6:	48 89 c7             	mov    %rax,%rdi
    aac9:	e8 25 ac ff ff       	callq  56f3 <transparent_crc>
    aace:	48 8b 05 23 5a 00 00 	mov    0x5a23(%rip),%rax        # 104f8 <g_1137+0x8>
    aad5:	48 c1 e0 0c          	shl    $0xc,%rax
    aad9:	48 c1 f8 2c          	sar    $0x2c,%rax
    aadd:	48 98                	cltq   
    aadf:	8b 55 fc             	mov    -0x4(%rbp),%edx
    aae2:	48 8d 35 e6 23 00 00 	lea    0x23e6(%rip),%rsi        # cecf <g_1024+0xe53>
    aae9:	48 89 c7             	mov    %rax,%rdi
    aaec:	e8 02 ac ff ff       	callq  56f3 <transparent_crc>
    aaf1:	0f b7 05 08 5a 00 00 	movzwl 0x5a08(%rip),%eax        # 10500 <g_1154>
    aaf8:	48 0f bf c0          	movswq %ax,%rax
    aafc:	8b 55 fc             	mov    -0x4(%rbp),%edx
    aaff:	48 8d 35 d3 23 00 00 	lea    0x23d3(%rip),%rsi        # ced9 <g_1024+0xe5d>
    ab06:	48 89 c7             	mov    %rax,%rdi
    ab09:	e8 e5 ab ff ff       	callq  56f3 <transparent_crc>
    ab0e:	48 8b 05 eb 59 00 00 	mov    0x59eb(%rip),%rax        # 10500 <g_1154>
    ab15:	c1 e0 03             	shl    $0x3,%eax
    ab18:	c1 f8 13             	sar    $0x13,%eax
    ab1b:	48 0f bf c0          	movswq %ax,%rax
    ab1f:	8b 55 fc             	mov    -0x4(%rbp),%edx
    ab22:	48 8d 35 ba 23 00 00 	lea    0x23ba(%rip),%rsi        # cee3 <g_1024+0xe67>
    ab29:	48 89 c7             	mov    %rax,%rdi
    ab2c:	e8 c2 ab ff ff       	callq  56f3 <transparent_crc>
    ab31:	48 8b 05 c8 59 00 00 	mov    0x59c8(%rip),%rax        # 10500 <g_1154>
    ab38:	48 c1 e8 20          	shr    $0x20,%rax
    ab3c:	66 25 ff 1f          	and    $0x1fff,%ax
    ab40:	0f b7 c0             	movzwl %ax,%eax
    ab43:	8b 55 fc             	mov    -0x4(%rbp),%edx
    ab46:	48 8d 35 a0 23 00 00 	lea    0x23a0(%rip),%rsi        # ceed <g_1024+0xe71>
    ab4d:	48 89 c7             	mov    %rax,%rdi
    ab50:	e8 9e ab ff ff       	callq  56f3 <transparent_crc>
    ab55:	48 8b 05 ac 59 00 00 	mov    0x59ac(%rip),%rax        # 10508 <g_1154+0x8>
    ab5c:	c1 e0 05             	shl    $0x5,%eax
    ab5f:	c1 f8 05             	sar    $0x5,%eax
    ab62:	48 98                	cltq   
    ab64:	8b 55 fc             	mov    -0x4(%rbp),%edx
    ab67:	48 8d 35 89 23 00 00 	lea    0x2389(%rip),%rsi        # cef7 <g_1024+0xe7b>
    ab6e:	48 89 c7             	mov    %rax,%rdi
    ab71:	e8 7d ab ff ff       	callq  56f3 <transparent_crc>
    ab76:	48 8b 05 8b 59 00 00 	mov    0x598b(%rip),%rax        # 10508 <g_1154+0x8>
    ab7d:	48 c1 e0 0c          	shl    $0xc,%rax
    ab81:	48 c1 f8 2c          	sar    $0x2c,%rax
    ab85:	48 98                	cltq   
    ab87:	8b 55 fc             	mov    -0x4(%rbp),%edx
    ab8a:	48 8d 35 70 23 00 00 	lea    0x2370(%rip),%rsi        # cf01 <g_1024+0xe85>
    ab91:	48 89 c7             	mov    %rax,%rdi
    ab94:	e8 5a ab ff ff       	callq  56f3 <transparent_crc>
    ab99:	c7 45 f0 00 00 00 00 	movl   $0x0,-0x10(%rbp)
    aba0:	e9 a1 00 00 00       	jmpq   ac46 <main+0x9b8>
    aba5:	c7 45 f4 00 00 00 00 	movl   $0x0,-0xc(%rbp)
    abac:	e9 87 00 00 00       	jmpq   ac38 <main+0x9aa>
    abb1:	c7 45 f8 00 00 00 00 	movl   $0x0,-0x8(%rbp)
    abb8:	eb 74                	jmp    ac2e <main+0x9a0>
    abba:	8b 45 f8             	mov    -0x8(%rbp),%eax
    abbd:	48 63 c8             	movslq %eax,%rcx
    abc0:	8b 45 f0             	mov    -0x10(%rbp),%eax
    abc3:	48 63 d0             	movslq %eax,%rdx
    abc6:	8b 45 f4             	mov    -0xc(%rbp),%eax
    abc9:	48 63 f0             	movslq %eax,%rsi
    abcc:	48 89 d0             	mov    %rdx,%rax
    abcf:	48 c1 e0 03          	shl    $0x3,%rax
    abd3:	48 29 d0             	sub    %rdx,%rax
    abd6:	48 01 f0             	add    %rsi,%rax
    abd9:	48 c1 e0 02          	shl    $0x2,%rax
    abdd:	48 01 c8             	add    %rcx,%rax
    abe0:	48 8d 14 85 00 00 00 	lea    0x0(,%rax,4),%rdx
    abe7:	00 
    abe8:	48 8d 05 31 59 00 00 	lea    0x5931(%rip),%rax        # 10520 <g_1156>
    abef:	8b 04 02             	mov    (%rdx,%rax,1),%eax
    abf2:	89 c1                	mov    %eax,%ecx
    abf4:	8b 45 fc             	mov    -0x4(%rbp),%eax
    abf7:	89 c2                	mov    %eax,%edx
    abf9:	48 8d 35 0b 23 00 00 	lea    0x230b(%rip),%rsi        # cf0b <g_1024+0xe8f>
    ac00:	48 89 cf             	mov    %rcx,%rdi
    ac03:	e8 eb aa ff ff       	callq  56f3 <transparent_crc>
    ac08:	83 7d fc 00          	cmpl   $0x0,-0x4(%rbp)
    ac0c:	74 1c                	je     ac2a <main+0x99c>
    ac0e:	8b 4d f8             	mov    -0x8(%rbp),%ecx
    ac11:	8b 55 f4             	mov    -0xc(%rbp),%edx
    ac14:	8b 45 f0             	mov    -0x10(%rbp),%eax
    ac17:	89 c6                	mov    %eax,%esi
    ac19:	48 8d 3d f2 21 00 00 	lea    0x21f2(%rip),%rdi        # ce12 <g_1024+0xd96>
    ac20:	b8 00 00 00 00       	mov    $0x0,%eax
    ac25:	e8 56 94 ff ff       	callq  4080 <printf@plt>
    ac2a:	83 45 f8 01          	addl   $0x1,-0x8(%rbp)
    ac2e:	83 7d f8 03          	cmpl   $0x3,-0x8(%rbp)
    ac32:	7e 86                	jle    abba <main+0x92c>
    ac34:	83 45 f4 01          	addl   $0x1,-0xc(%rbp)
    ac38:	83 7d f4 06          	cmpl   $0x6,-0xc(%rbp)
    ac3c:	0f 8e 6f ff ff ff    	jle    abb1 <main+0x923>
    ac42:	83 45 f0 01          	addl   $0x1,-0x10(%rbp)
    ac46:	83 7d f0 08          	cmpl   $0x8,-0x10(%rbp)
    ac4a:	0f 8e 55 ff ff ff    	jle    aba5 <main+0x917>
    ac50:	48 8b 05 b9 5c 00 00 	mov    0x5cb9(%rip),%rax        # 10910 <g_1164>
    ac57:	8b 55 fc             	mov    -0x4(%rbp),%edx
    ac5a:	48 8d 35 ba 22 00 00 	lea    0x22ba(%rip),%rsi        # cf1b <g_1024+0xe9f>
    ac61:	48 89 c7             	mov    %rax,%rdi
    ac64:	e8 8a aa ff ff       	callq  56f3 <transparent_crc>
    ac69:	0f b7 05 b0 5c 00 00 	movzwl 0x5cb0(%rip),%eax        # 10920 <g_1196>
    ac70:	48 0f bf c0          	movswq %ax,%rax
    ac74:	8b 55 fc             	mov    -0x4(%rbp),%edx
    ac77:	48 8d 35 a4 22 00 00 	lea    0x22a4(%rip),%rsi        # cf22 <g_1024+0xea6>
    ac7e:	48 89 c7             	mov    %rax,%rdi
    ac81:	e8 6d aa ff ff       	callq  56f3 <transparent_crc>
    ac86:	0f b7 05 95 5c 00 00 	movzwl 0x5c95(%rip),%eax        # 10922 <g_1196+0x2>
    ac8d:	c1 e0 03             	shl    $0x3,%eax
    ac90:	66 c1 f8 03          	sar    $0x3,%ax
    ac94:	48 0f bf c0          	movswq %ax,%rax
    ac98:	8b 55 fc             	mov    -0x4(%rbp),%edx
    ac9b:	48 8d 35 8a 22 00 00 	lea    0x228a(%rip),%rsi        # cf2c <g_1024+0xeb0>
    aca2:	48 89 c7             	mov    %rax,%rdi
    aca5:	e8 49 aa ff ff       	callq  56f3 <transparent_crc>
    acaa:	48 8b 05 6f 5c 00 00 	mov    0x5c6f(%rip),%rax        # 10920 <g_1196>
    acb1:	48 c1 e8 20          	shr    $0x20,%rax
    acb5:	66 25 ff 1f          	and    $0x1fff,%ax
    acb9:	0f b7 c0             	movzwl %ax,%eax
    acbc:	8b 55 fc             	mov    -0x4(%rbp),%edx
    acbf:	48 8d 35 70 22 00 00 	lea    0x2270(%rip),%rsi        # cf36 <g_1024+0xeba>
    acc6:	48 89 c7             	mov    %rax,%rdi
    acc9:	e8 25 aa ff ff       	callq  56f3 <transparent_crc>
    acce:	8b 05 54 5c 00 00    	mov    0x5c54(%rip),%eax        # 10928 <g_1196+0x8>
    acd4:	c1 e0 05             	shl    $0x5,%eax
    acd7:	c1 f8 05             	sar    $0x5,%eax
    acda:	48 98                	cltq   
    acdc:	8b 55 fc             	mov    -0x4(%rbp),%edx
    acdf:	48 8d 35 5a 22 00 00 	lea    0x225a(%rip),%rsi        # cf40 <g_1024+0xec4>
    ace6:	48 89 c7             	mov    %rax,%rdi
    ace9:	e8 05 aa ff ff       	callq  56f3 <transparent_crc>
    acee:	48 8b 05 33 5c 00 00 	mov    0x5c33(%rip),%rax        # 10928 <g_1196+0x8>
    acf5:	48 c1 e0 0c          	shl    $0xc,%rax
    acf9:	48 c1 f8 2c          	sar    $0x2c,%rax
    acfd:	48 98                	cltq   
    acff:	8b 55 fc             	mov    -0x4(%rbp),%edx
    ad02:	48 8d 35 41 22 00 00 	lea    0x2241(%rip),%rsi        # cf4a <g_1024+0xece>
    ad09:	48 89 c7             	mov    %rax,%rdi
    ad0c:	e8 e2 a9 ff ff       	callq  56f3 <transparent_crc>
    ad11:	0f b7 05 18 5c 00 00 	movzwl 0x5c18(%rip),%eax        # 10930 <g_1197>
    ad18:	48 0f bf c0          	movswq %ax,%rax
    ad1c:	8b 55 fc             	mov    -0x4(%rbp),%edx
    ad1f:	48 8d 35 2e 22 00 00 	lea    0x222e(%rip),%rsi        # cf54 <g_1024+0xed8>
    ad26:	48 89 c7             	mov    %rax,%rdi
    ad29:	e8 c5 a9 ff ff       	callq  56f3 <transparent_crc>
    ad2e:	48 8b 05 fb 5b 00 00 	mov    0x5bfb(%rip),%rax        # 10930 <g_1197>
    ad35:	c1 e0 03             	shl    $0x3,%eax
    ad38:	c1 f8 13             	sar    $0x13,%eax
    ad3b:	48 0f bf c0          	movswq %ax,%rax
    ad3f:	8b 55 fc             	mov    -0x4(%rbp),%edx
    ad42:	48 8d 35 15 22 00 00 	lea    0x2215(%rip),%rsi        # cf5e <g_1024+0xee2>
    ad49:	48 89 c7             	mov    %rax,%rdi
    ad4c:	e8 a2 a9 ff ff       	callq  56f3 <transparent_crc>
    ad51:	48 8b 05 d8 5b 00 00 	mov    0x5bd8(%rip),%rax        # 10930 <g_1197>
    ad58:	48 c1 e8 20          	shr    $0x20,%rax
    ad5c:	66 25 ff 1f          	and    $0x1fff,%ax
    ad60:	0f b7 c0             	movzwl %ax,%eax
    ad63:	8b 55 fc             	mov    -0x4(%rbp),%edx
    ad66:	48 8d 35 fb 21 00 00 	lea    0x21fb(%rip),%rsi        # cf68 <g_1024+0xeec>
    ad6d:	48 89 c7             	mov    %rax,%rdi
    ad70:	e8 7e a9 ff ff       	callq  56f3 <transparent_crc>
    ad75:	48 8b 05 bc 5b 00 00 	mov    0x5bbc(%rip),%rax        # 10938 <g_1197+0x8>
    ad7c:	c1 e0 05             	shl    $0x5,%eax
    ad7f:	c1 f8 05             	sar    $0x5,%eax
    ad82:	48 98                	cltq   
    ad84:	8b 55 fc             	mov    -0x4(%rbp),%edx
    ad87:	48 8d 35 e4 21 00 00 	lea    0x21e4(%rip),%rsi        # cf72 <g_1024+0xef6>
    ad8e:	48 89 c7             	mov    %rax,%rdi
    ad91:	e8 5d a9 ff ff       	callq  56f3 <transparent_crc>
    ad96:	48 8b 05 9b 5b 00 00 	mov    0x5b9b(%rip),%rax        # 10938 <g_1197+0x8>
    ad9d:	48 c1 e0 0c          	shl    $0xc,%rax
    ada1:	48 c1 f8 2c          	sar    $0x2c,%rax
    ada5:	48 98                	cltq   
    ada7:	8b 55 fc             	mov    -0x4(%rbp),%edx
    adaa:	48 8d 35 cb 21 00 00 	lea    0x21cb(%rip),%rsi        # cf7c <g_1024+0xf00>
    adb1:	48 89 c7             	mov    %rax,%rdi
    adb4:	e8 3a a9 ff ff       	callq  56f3 <transparent_crc>
    adb9:	0f b7 05 80 5b 00 00 	movzwl 0x5b80(%rip),%eax        # 10940 <g_1220>
    adc0:	48 0f bf c0          	movswq %ax,%rax
    adc4:	8b 55 fc             	mov    -0x4(%rbp),%edx
    adc7:	48 8d 35 b8 21 00 00 	lea    0x21b8(%rip),%rsi        # cf86 <g_1024+0xf0a>
    adce:	48 89 c7             	mov    %rax,%rdi
    add1:	e8 1d a9 ff ff       	callq  56f3 <transparent_crc>
    add6:	0f b7 05 65 5b 00 00 	movzwl 0x5b65(%rip),%eax        # 10942 <g_1220+0x2>
    addd:	c1 e0 03             	shl    $0x3,%eax
    ade0:	66 c1 f8 03          	sar    $0x3,%ax
    ade4:	48 0f bf c0          	movswq %ax,%rax
    ade8:	8b 55 fc             	mov    -0x4(%rbp),%edx
    adeb:	48 8d 35 9e 21 00 00 	lea    0x219e(%rip),%rsi        # cf90 <g_1024+0xf14>
    adf2:	48 89 c7             	mov    %rax,%rdi
    adf5:	e8 f9 a8 ff ff       	callq  56f3 <transparent_crc>
    adfa:	48 8b 05 3f 5b 00 00 	mov    0x5b3f(%rip),%rax        # 10940 <g_1220>
    ae01:	48 c1 e8 20          	shr    $0x20,%rax
    ae05:	66 25 ff 1f          	and    $0x1fff,%ax
    ae09:	0f b7 c0             	movzwl %ax,%eax
    ae0c:	8b 55 fc             	mov    -0x4(%rbp),%edx
    ae0f:	48 8d 35 84 21 00 00 	lea    0x2184(%rip),%rsi        # cf9a <g_1024+0xf1e>
    ae16:	48 89 c7             	mov    %rax,%rdi
    ae19:	e8 d5 a8 ff ff       	callq  56f3 <transparent_crc>
    ae1e:	8b 05 24 5b 00 00    	mov    0x5b24(%rip),%eax        # 10948 <g_1220+0x8>
    ae24:	c1 e0 05             	shl    $0x5,%eax
    ae27:	c1 f8 05             	sar    $0x5,%eax
    ae2a:	48 98                	cltq   
    ae2c:	8b 55 fc             	mov    -0x4(%rbp),%edx
    ae2f:	48 8d 35 6e 21 00 00 	lea    0x216e(%rip),%rsi        # cfa4 <g_1024+0xf28>
    ae36:	48 89 c7             	mov    %rax,%rdi
    ae39:	e8 b5 a8 ff ff       	callq  56f3 <transparent_crc>
    ae3e:	48 8b 05 03 5b 00 00 	mov    0x5b03(%rip),%rax        # 10948 <g_1220+0x8>
    ae45:	48 c1 e0 0c          	shl    $0xc,%rax
    ae49:	48 c1 f8 2c          	sar    $0x2c,%rax
    ae4d:	48 98                	cltq   
    ae4f:	8b 55 fc             	mov    -0x4(%rbp),%edx
    ae52:	48 8d 35 55 21 00 00 	lea    0x2155(%rip),%rsi        # cfae <g_1024+0xf32>
    ae59:	48 89 c7             	mov    %rax,%rdi
    ae5c:	e8 92 a8 ff ff       	callq  56f3 <transparent_crc>
    ae61:	c7 45 f0 00 00 00 00 	movl   $0x0,-0x10(%rbp)
    ae68:	e9 ad 00 00 00       	jmpq   af1a <main+0xc8c>
    ae6d:	c7 45 f4 00 00 00 00 	movl   $0x0,-0xc(%rbp)
    ae74:	e9 93 00 00 00       	jmpq   af0c <main+0xc7e>
    ae79:	c7 45 f8 00 00 00 00 	movl   $0x0,-0x8(%rbp)
    ae80:	eb 7c                	jmp    aefe <main+0xc70>
    ae82:	8b 45 f8             	mov    -0x8(%rbp),%eax
    ae85:	48 63 f0             	movslq %eax,%rsi
    ae88:	8b 45 f0             	mov    -0x10(%rbp),%eax
    ae8b:	48 63 d0             	movslq %eax,%rdx
    ae8e:	8b 45 f4             	mov    -0xc(%rbp),%eax
    ae91:	48 63 c8             	movslq %eax,%rcx
    ae94:	48 89 d0             	mov    %rdx,%rax
    ae97:	48 c1 e0 03          	shl    $0x3,%rax
    ae9b:	48 29 d0             	sub    %rdx,%rax
    ae9e:	48 c1 e0 02          	shl    $0x2,%rax
    aea2:	48 89 ca             	mov    %rcx,%rdx
    aea5:	48 c1 e2 03          	shl    $0x3,%rdx
    aea9:	48 29 ca             	sub    %rcx,%rdx
    aeac:	48 01 d0             	add    %rdx,%rax
    aeaf:	48 01 f0             	add    %rsi,%rax
    aeb2:	48 8d 14 85 00 00 00 	lea    0x0(,%rax,4),%rdx
    aeb9:	00 
    aeba:	48 8d 05 9f 5a 00 00 	lea    0x5a9f(%rip),%rax        # 10960 <g_1270>
    aec1:	8b 04 02             	mov    (%rdx,%rax,1),%eax
    aec4:	48 98                	cltq   
    aec6:	8b 55 fc             	mov    -0x4(%rbp),%edx
    aec9:	48 8d 35 e8 20 00 00 	lea    0x20e8(%rip),%rsi        # cfb8 <g_1024+0xf3c>
    aed0:	48 89 c7             	mov    %rax,%rdi
    aed3:	e8 1b a8 ff ff       	callq  56f3 <transparent_crc>
    aed8:	83 7d fc 00          	cmpl   $0x0,-0x4(%rbp)
    aedc:	74 1c                	je     aefa <main+0xc6c>
    aede:	8b 4d f8             	mov    -0x8(%rbp),%ecx
    aee1:	8b 55 f4             	mov    -0xc(%rbp),%edx
    aee4:	8b 45 f0             	mov    -0x10(%rbp),%eax
    aee7:	89 c6                	mov    %eax,%esi
    aee9:	48 8d 3d 22 1f 00 00 	lea    0x1f22(%rip),%rdi        # ce12 <g_1024+0xd96>
    aef0:	b8 00 00 00 00       	mov    $0x0,%eax
    aef5:	e8 86 91 ff ff       	callq  4080 <printf@plt>
    aefa:	83 45 f8 01          	addl   $0x1,-0x8(%rbp)
    aefe:	83 7d f8 06          	cmpl   $0x6,-0x8(%rbp)
    af02:	0f 8e 7a ff ff ff    	jle    ae82 <main+0xbf4>
    af08:	83 45 f4 01          	addl   $0x1,-0xc(%rbp)
    af0c:	83 7d f4 03          	cmpl   $0x3,-0xc(%rbp)
    af10:	0f 8e 63 ff ff ff    	jle    ae79 <main+0xbeb>
    af16:	83 45 f0 01          	addl   $0x1,-0x10(%rbp)
    af1a:	83 7d f0 08          	cmpl   $0x8,-0x10(%rbp)
    af1e:	0f 8e 49 ff ff ff    	jle    ae6d <main+0xbdf>
    af24:	0f b7 05 25 5e 00 00 	movzwl 0x5e25(%rip),%eax        # 10d50 <g_1283>
    af2b:	48 0f bf c0          	movswq %ax,%rax
    af2f:	8b 55 fc             	mov    -0x4(%rbp),%edx
    af32:	48 8d 35 8f 20 00 00 	lea    0x208f(%rip),%rsi        # cfc8 <g_1024+0xf4c>
    af39:	48 89 c7             	mov    %rax,%rdi
    af3c:	e8 b2 a7 ff ff       	callq  56f3 <transparent_crc>
    af41:	0f b7 05 0a 5e 00 00 	movzwl 0x5e0a(%rip),%eax        # 10d52 <g_1283+0x2>
    af48:	c1 e0 03             	shl    $0x3,%eax
    af4b:	66 c1 f8 03          	sar    $0x3,%ax
    af4f:	48 0f bf c0          	movswq %ax,%rax
    af53:	8b 55 fc             	mov    -0x4(%rbp),%edx
    af56:	48 8d 35 75 20 00 00 	lea    0x2075(%rip),%rsi        # cfd2 <g_1024+0xf56>
    af5d:	48 89 c7             	mov    %rax,%rdi
    af60:	e8 8e a7 ff ff       	callq  56f3 <transparent_crc>
    af65:	48 8b 05 e4 5d 00 00 	mov    0x5de4(%rip),%rax        # 10d50 <g_1283>
    af6c:	48 c1 e8 20          	shr    $0x20,%rax
    af70:	66 25 ff 1f          	and    $0x1fff,%ax
    af74:	0f b7 c0             	movzwl %ax,%eax
    af77:	8b 55 fc             	mov    -0x4(%rbp),%edx
    af7a:	48 8d 35 5b 20 00 00 	lea    0x205b(%rip),%rsi        # cfdc <g_1024+0xf60>
    af81:	48 89 c7             	mov    %rax,%rdi
    af84:	e8 6a a7 ff ff       	callq  56f3 <transparent_crc>
    af89:	8b 05 c9 5d 00 00    	mov    0x5dc9(%rip),%eax        # 10d58 <g_1283+0x8>
    af8f:	c1 e0 05             	shl    $0x5,%eax
    af92:	c1 f8 05             	sar    $0x5,%eax
    af95:	48 98                	cltq   
    af97:	8b 55 fc             	mov    -0x4(%rbp),%edx
    af9a:	48 8d 35 45 20 00 00 	lea    0x2045(%rip),%rsi        # cfe6 <g_1024+0xf6a>
    afa1:	48 89 c7             	mov    %rax,%rdi
    afa4:	e8 4a a7 ff ff       	callq  56f3 <transparent_crc>
    afa9:	48 8b 05 a8 5d 00 00 	mov    0x5da8(%rip),%rax        # 10d58 <g_1283+0x8>
    afb0:	48 c1 e0 0c          	shl    $0xc,%rax
    afb4:	48 c1 f8 2c          	sar    $0x2c,%rax
    afb8:	48 98                	cltq   
    afba:	8b 55 fc             	mov    -0x4(%rbp),%edx
    afbd:	48 8d 35 2c 20 00 00 	lea    0x202c(%rip),%rsi        # cff0 <g_1024+0xf74>
    afc4:	48 89 c7             	mov    %rax,%rdi
    afc7:	e8 27 a7 ff ff       	callq  56f3 <transparent_crc>
    afcc:	48 8b 05 8d 5d 00 00 	mov    0x5d8d(%rip),%rax        # 10d60 <g_1319>
    afd3:	48 89 c1             	mov    %rax,%rcx
    afd6:	8b 45 fc             	mov    -0x4(%rbp),%eax
    afd9:	89 c2                	mov    %eax,%edx
    afdb:	48 8d 35 18 20 00 00 	lea    0x2018(%rip),%rsi        # cffa <g_1024+0xf7e>
    afe2:	48 89 cf             	mov    %rcx,%rdi
    afe5:	e8 09 a7 ff ff       	callq  56f3 <transparent_crc>
    afea:	8b 05 78 5d 00 00    	mov    0x5d78(%rip),%eax        # 10d68 <g_1326>
    aff0:	89 c1                	mov    %eax,%ecx
    aff2:	8b 45 fc             	mov    -0x4(%rbp),%eax
    aff5:	89 c2                	mov    %eax,%edx
    aff7:	48 8d 35 03 20 00 00 	lea    0x2003(%rip),%rsi        # d001 <g_1024+0xf85>
    affe:	48 89 cf             	mov    %rcx,%rdi
    b001:	e8 ed a6 ff ff       	callq  56f3 <transparent_crc>
    b006:	0f b7 05 63 5d 00 00 	movzwl 0x5d63(%rip),%eax        # 10d70 <g_1339>
    b00d:	48 0f bf c0          	movswq %ax,%rax
    b011:	8b 55 fc             	mov    -0x4(%rbp),%edx
    b014:	48 8d 35 ed 1f 00 00 	lea    0x1fed(%rip),%rsi        # d008 <g_1024+0xf8c>
    b01b:	48 89 c7             	mov    %rax,%rdi
    b01e:	e8 d0 a6 ff ff       	callq  56f3 <transparent_crc>
    b023:	48 8b 05 46 5d 00 00 	mov    0x5d46(%rip),%rax        # 10d70 <g_1339>
    b02a:	c1 e0 03             	shl    $0x3,%eax
    b02d:	c1 f8 13             	sar    $0x13,%eax
    b030:	48 0f bf c0          	movswq %ax,%rax
    b034:	8b 55 fc             	mov    -0x4(%rbp),%edx
    b037:	48 8d 35 d4 1f 00 00 	lea    0x1fd4(%rip),%rsi        # d012 <g_1024+0xf96>
    b03e:	48 89 c7             	mov    %rax,%rdi
    b041:	e8 ad a6 ff ff       	callq  56f3 <transparent_crc>
    b046:	48 8b 05 23 5d 00 00 	mov    0x5d23(%rip),%rax        # 10d70 <g_1339>
    b04d:	48 c1 e8 20          	shr    $0x20,%rax
    b051:	66 25 ff 1f          	and    $0x1fff,%ax
    b055:	0f b7 c0             	movzwl %ax,%eax
    b058:	8b 55 fc             	mov    -0x4(%rbp),%edx
    b05b:	48 8d 35 ba 1f 00 00 	lea    0x1fba(%rip),%rsi        # d01c <g_1024+0xfa0>
    b062:	48 89 c7             	mov    %rax,%rdi
    b065:	e8 89 a6 ff ff       	callq  56f3 <transparent_crc>
    b06a:	48 8b 05 07 5d 00 00 	mov    0x5d07(%rip),%rax        # 10d78 <g_1339+0x8>
    b071:	c1 e0 05             	shl    $0x5,%eax
    b074:	c1 f8 05             	sar    $0x5,%eax
    b077:	48 98                	cltq   
    b079:	8b 55 fc             	mov    -0x4(%rbp),%edx
    b07c:	48 8d 35 a3 1f 00 00 	lea    0x1fa3(%rip),%rsi        # d026 <g_1024+0xfaa>
    b083:	48 89 c7             	mov    %rax,%rdi
    b086:	e8 68 a6 ff ff       	callq  56f3 <transparent_crc>
    b08b:	48 8b 05 e6 5c 00 00 	mov    0x5ce6(%rip),%rax        # 10d78 <g_1339+0x8>
    b092:	48 c1 e0 0c          	shl    $0xc,%rax
    b096:	48 c1 f8 2c          	sar    $0x2c,%rax
    b09a:	48 98                	cltq   
    b09c:	8b 55 fc             	mov    -0x4(%rbp),%edx
    b09f:	48 8d 35 8a 1f 00 00 	lea    0x1f8a(%rip),%rsi        # d030 <g_1024+0xfb4>
    b0a6:	48 89 c7             	mov    %rax,%rdi
    b0a9:	e8 45 a6 ff ff       	callq  56f3 <transparent_crc>
    b0ae:	0f b6 05 cb 73 00 00 	movzbl 0x73cb(%rip),%eax        # 12480 <g_1348>
    b0b5:	48 0f be c0          	movsbq %al,%rax
    b0b9:	8b 55 fc             	mov    -0x4(%rbp),%edx
    b0bc:	48 8d 35 77 1f 00 00 	lea    0x1f77(%rip),%rsi        # d03a <g_1024+0xfbe>
    b0c3:	48 89 c7             	mov    %rax,%rdi
    b0c6:	e8 28 a6 ff ff       	callq  56f3 <transparent_crc>
    b0cb:	8b 05 4f 4f 00 00    	mov    0x4f4f(%rip),%eax        # 10020 <crc32_context>
    b0d1:	f7 d0                	not    %eax
    b0d3:	89 c2                	mov    %eax,%edx
    b0d5:	8b 45 fc             	mov    -0x4(%rbp),%eax
    b0d8:	89 c6                	mov    %eax,%esi
    b0da:	89 d7                	mov    %edx,%edi
    b0dc:	e8 b3 90 ff ff       	callq  4194 <platform_main_end>
    b0e1:	b8 00 00 00 00       	mov    $0x0,%eax
    b0e6:	c9                   	leaveq 
    b0e7:	c3                   	retq   
    b0e8:	0f 1f 84 00 00 00 00 	nopl   0x0(%rax,%rax,1)
    b0ef:	00 

000000000000b0f0 <__libc_csu_init>:
    b0f0:	f3 0f 1e fa          	endbr64 
    b0f4:	41 57                	push   %r15
    b0f6:	4c 8d 3d a3 4c 00 00 	lea    0x4ca3(%rip),%r15        # fda0 <__frame_dummy_init_array_entry>
    b0fd:	41 56                	push   %r14
    b0ff:	49 89 d6             	mov    %rdx,%r14
    b102:	41 55                	push   %r13
    b104:	49 89 f5             	mov    %rsi,%r13
    b107:	41 54                	push   %r12
    b109:	41 89 fc             	mov    %edi,%r12d
    b10c:	55                   	push   %rbp
    b10d:	48 8d 2d 94 4c 00 00 	lea    0x4c94(%rip),%rbp        # fda8 <__do_global_dtors_aux_fini_array_entry>
    b114:	53                   	push   %rbx
    b115:	4c 29 fd             	sub    %r15,%rbp
    b118:	48 83 ec 08          	sub    $0x8,%rsp
    b11c:	e8 df 8e ff ff       	callq  4000 <_init>
    b121:	48 c1 fd 03          	sar    $0x3,%rbp
    b125:	74 1f                	je     b146 <__libc_csu_init+0x56>
    b127:	31 db                	xor    %ebx,%ebx
    b129:	0f 1f 80 00 00 00 00 	nopl   0x0(%rax)
    b130:	4c 89 f2             	mov    %r14,%rdx
    b133:	4c 89 ee             	mov    %r13,%rsi
    b136:	44 89 e7             	mov    %r12d,%edi
    b139:	41 ff 14 df          	callq  *(%r15,%rbx,8)
    b13d:	48 83 c3 01          	add    $0x1,%rbx
    b141:	48 39 dd             	cmp    %rbx,%rbp
    b144:	75 ea                	jne    b130 <__libc_csu_init+0x40>
    b146:	48 83 c4 08          	add    $0x8,%rsp
    b14a:	5b                   	pop    %rbx
    b14b:	5d                   	pop    %rbp
    b14c:	41 5c                	pop    %r12
    b14e:	41 5d                	pop    %r13
    b150:	41 5e                	pop    %r14
    b152:	41 5f                	pop    %r15
    b154:	c3                   	retq   
    b155:	66 66 2e 0f 1f 84 00 	data16 nopw %cs:0x0(%rax,%rax,1)
    b15c:	00 00 00 00 

000000000000b160 <__libc_csu_fini>:
    b160:	f3 0f 1e fa          	endbr64 
    b164:	c3                   	retq   
