


Disassembly of section .text:

00000000000030a0 <_start>:
    30a0:	f3 0f 1e fa          	endbr64 
    30a4:	31 ed                	xor    %ebp,%ebp
    30a6:	49 89 d1             	mov    %rdx,%r9
    30a9:	5e                   	pop    %rsi
    30aa:	48 89 e2             	mov    %rsp,%rdx
    30ad:	48 83 e4 f0          	and    $0xfffffffffffffff0,%rsp
    30b1:	50                   	push   %rax
    30b2:	54                   	push   %rsp
    30b3:	4c 8d 05 f6 d5 00 00 	lea    0xd5f6(%rip),%r8        # 106b0 <__libc_csu_fini>
    30ba:	48 8d 0d 7f d5 00 00 	lea    0xd57f(%rip),%rcx        # 10640 <__libc_csu_init>
    30c1:	48 8d 3d 29 a9 00 00 	lea    0xa929(%rip),%rdi        # d9f1 <main>
    30c8:	ff 15 fa 1e 01 00    	callq  *0x11efa(%rip)        # 14fc8 <__libc_start_main@GLIBC_2.2.5>
    30ce:	f4                   	hlt    
    30cf:	90                   	nop

00000000000030d0 <deregister_tm_clones>:
    30d0:	48 8d 3d a1 71 01 00 	lea    0x171a1(%rip),%rdi        # 1a278 <__TMC_END__>
    30d7:	48 8d 05 9a 71 01 00 	lea    0x1719a(%rip),%rax        # 1a278 <__TMC_END__>
    30de:	48 39 f8             	cmp    %rdi,%rax
    30e1:	74 15                	je     30f8 <deregister_tm_clones+0x28>
    30e3:	48 8b 05 d6 1e 01 00 	mov    0x11ed6(%rip),%rax        # 14fc0 <_ITM_deregisterTMCloneTable>
    30ea:	48 85 c0             	test   %rax,%rax
    30ed:	74 09                	je     30f8 <deregister_tm_clones+0x28>
    30ef:	ff e0                	jmpq   *%rax
    30f1:	0f 1f 80 00 00 00 00 	nopl   0x0(%rax)
    30f8:	c3                   	retq   
    30f9:	0f 1f 80 00 00 00 00 	nopl   0x0(%rax)

0000000000003100 <register_tm_clones>:
    3100:	48 8d 3d 71 71 01 00 	lea    0x17171(%rip),%rdi        # 1a278 <__TMC_END__>
    3107:	48 8d 35 6a 71 01 00 	lea    0x1716a(%rip),%rsi        # 1a278 <__TMC_END__>
    310e:	48 29 fe             	sub    %rdi,%rsi
    3111:	48 89 f0             	mov    %rsi,%rax
    3114:	48 c1 ee 3f          	shr    $0x3f,%rsi
    3118:	48 c1 f8 03          	sar    $0x3,%rax
    311c:	48 01 c6             	add    %rax,%rsi
    311f:	48 d1 fe             	sar    %rsi
    3122:	74 14                	je     3138 <register_tm_clones+0x38>
    3124:	48 8b 05 ad 1e 01 00 	mov    0x11ead(%rip),%rax        # 14fd8 <_ITM_registerTMCloneTable>
    312b:	48 85 c0             	test   %rax,%rax
    312e:	74 08                	je     3138 <register_tm_clones+0x38>
    3130:	ff e0                	jmpq   *%rax
    3132:	66 0f 1f 44 00 00    	nopw   0x0(%rax,%rax,1)
    3138:	c3                   	retq   
    3139:	0f 1f 80 00 00 00 00 	nopl   0x0(%rax)

0000000000003140 <__do_global_dtors_aux>:
    3140:	f3 0f 1e fa          	endbr64 
    3144:	80 3d 35 71 01 00 00 	cmpb   $0x0,0x17135(%rip)        # 1a280 <completed.8061>
    314b:	75 2b                	jne    3178 <__do_global_dtors_aux+0x38>
    314d:	55                   	push   %rbp
    314e:	48 83 3d 8a 1e 01 00 	cmpq   $0x0,0x11e8a(%rip)        # 14fe0 <__cxa_finalize@GLIBC_2.2.5>
    3155:	00 
    3156:	48 89 e5             	mov    %rsp,%rbp
    3159:	74 0c                	je     3167 <__do_global_dtors_aux+0x27>
    315b:	48 8b 3d a6 1e 01 00 	mov    0x11ea6(%rip),%rdi        # 15008 <__dso_handle>
    3162:	e8 f9 fe ff ff       	callq  3060 <__cxa_finalize@plt>
    3167:	e8 64 ff ff ff       	callq  30d0 <deregister_tm_clones>
    316c:	c6 05 0d 71 01 00 01 	movb   $0x1,0x1710d(%rip)        # 1a280 <completed.8061>
    3173:	5d                   	pop    %rbp
    3174:	c3                   	retq   
    3175:	0f 1f 00             	nopl   (%rax)
    3178:	c3                   	retq   
    3179:	0f 1f 80 00 00 00 00 	nopl   0x0(%rax)

0000000000003180 <frame_dummy>:
    3180:	f3 0f 1e fa          	endbr64 
    3184:	e9 77 ff ff ff       	jmpq   3100 <register_tm_clones>

0000000000003189 <platform_main_begin>:
    3189:	f3 0f 1e fa          	endbr64 
    318d:	55                   	push   %rbp
    318e:	48 89 e5             	mov    %rsp,%rbp
    3191:	90                   	nop
    3192:	5d                   	pop    %rbp
    3193:	c3                   	retq   

0000000000003194 <platform_main_end>:
    3194:	f3 0f 1e fa          	endbr64 
    3198:	55                   	push   %rbp
    3199:	48 89 e5             	mov    %rsp,%rbp
    319c:	48 83 ec 10          	sub    $0x10,%rsp
    31a0:	89 7d fc             	mov    %edi,-0x4(%rbp)
    31a3:	89 75 f8             	mov    %esi,-0x8(%rbp)
    31a6:	8b 45 fc             	mov    -0x4(%rbp),%eax
    31a9:	89 c6                	mov    %eax,%esi
    31ab:	48 8d 3d 6e de 00 00 	lea    0xde6e(%rip),%rdi        # 11020 <_IO_stdin_used+0x20>
    31b2:	b8 00 00 00 00       	mov    $0x0,%eax
    31b7:	e8 c4 fe ff ff       	callq  3080 <printf@plt>
    31bc:	90                   	nop
    31bd:	c9                   	leaveq 
    31be:	c3                   	retq   

00000000000031bf <safe_unary_minus_func_int8_t_s>:
    31bf:	f3 0f 1e fa          	endbr64 
    31c3:	55                   	push   %rbp
    31c4:	48 89 e5             	mov    %rsp,%rbp
    31c7:	89 f8                	mov    %edi,%eax
    31c9:	88 45 fc             	mov    %al,-0x4(%rbp)
    31cc:	0f b6 45 fc          	movzbl -0x4(%rbp),%eax
    31d0:	f7 d8                	neg    %eax
    31d2:	5d                   	pop    %rbp
    31d3:	c3                   	retq   

00000000000031d4 <safe_add_func_int8_t_s_s>:
    31d4:	f3 0f 1e fa          	endbr64 
    31d8:	55                   	push   %rbp
    31d9:	48 89 e5             	mov    %rsp,%rbp
    31dc:	89 fa                	mov    %edi,%edx
    31de:	89 f0                	mov    %esi,%eax
    31e0:	88 55 fc             	mov    %dl,-0x4(%rbp)
    31e3:	88 45 f8             	mov    %al,-0x8(%rbp)
    31e6:	0f b6 55 fc          	movzbl -0x4(%rbp),%edx
    31ea:	0f b6 45 f8          	movzbl -0x8(%rbp),%eax
    31ee:	01 d0                	add    %edx,%eax
    31f0:	5d                   	pop    %rbp
    31f1:	c3                   	retq   

00000000000031f2 <safe_sub_func_int8_t_s_s>:
    31f2:	f3 0f 1e fa          	endbr64 
    31f6:	55                   	push   %rbp
    31f7:	48 89 e5             	mov    %rsp,%rbp
    31fa:	89 fa                	mov    %edi,%edx
    31fc:	89 f0                	mov    %esi,%eax
    31fe:	88 55 fc             	mov    %dl,-0x4(%rbp)
    3201:	88 45 f8             	mov    %al,-0x8(%rbp)
    3204:	0f b6 55 fc          	movzbl -0x4(%rbp),%edx
    3208:	0f b6 45 f8          	movzbl -0x8(%rbp),%eax
    320c:	29 c2                	sub    %eax,%edx
    320e:	89 d0                	mov    %edx,%eax
    3210:	5d                   	pop    %rbp
    3211:	c3                   	retq   

0000000000003212 <safe_mul_func_int8_t_s_s>:
    3212:	f3 0f 1e fa          	endbr64 
    3216:	55                   	push   %rbp
    3217:	48 89 e5             	mov    %rsp,%rbp
    321a:	89 fa                	mov    %edi,%edx
    321c:	89 f0                	mov    %esi,%eax
    321e:	88 55 fc             	mov    %dl,-0x4(%rbp)
    3221:	88 45 f8             	mov    %al,-0x8(%rbp)
    3224:	0f b6 45 fc          	movzbl -0x4(%rbp),%eax
    3228:	0f b6 55 f8          	movzbl -0x8(%rbp),%edx
    322c:	0f af c2             	imul   %edx,%eax
    322f:	5d                   	pop    %rbp
    3230:	c3                   	retq   

0000000000003231 <safe_mod_func_int8_t_s_s>:
    3231:	f3 0f 1e fa          	endbr64 
    3235:	55                   	push   %rbp
    3236:	48 89 e5             	mov    %rsp,%rbp
    3239:	89 fa                	mov    %edi,%edx
    323b:	89 f0                	mov    %esi,%eax
    323d:	88 55 fc             	mov    %dl,-0x4(%rbp)
    3240:	88 45 f8             	mov    %al,-0x8(%rbp)
    3243:	80 7d f8 00          	cmpb   $0x0,-0x8(%rbp)
    3247:	74 1b                	je     3264 <safe_mod_func_int8_t_s_s+0x33>
    3249:	80 7d fc 80          	cmpb   $0x80,-0x4(%rbp)
    324d:	75 06                	jne    3255 <safe_mod_func_int8_t_s_s+0x24>
    324f:	80 7d f8 ff          	cmpb   $0xff,-0x8(%rbp)
    3253:	74 0f                	je     3264 <safe_mod_func_int8_t_s_s+0x33>
    3255:	0f be 45 fc          	movsbl -0x4(%rbp),%eax
    3259:	0f be 4d f8          	movsbl -0x8(%rbp),%ecx
    325d:	99                   	cltd   
    325e:	f7 f9                	idiv   %ecx
    3260:	89 d0                	mov    %edx,%eax
    3262:	eb 04                	jmp    3268 <safe_mod_func_int8_t_s_s+0x37>
    3264:	0f b6 45 fc          	movzbl -0x4(%rbp),%eax
    3268:	5d                   	pop    %rbp
    3269:	c3                   	retq   

000000000000326a <safe_div_func_int8_t_s_s>:
    326a:	f3 0f 1e fa          	endbr64 
    326e:	55                   	push   %rbp
    326f:	48 89 e5             	mov    %rsp,%rbp
    3272:	89 fa                	mov    %edi,%edx
    3274:	89 f0                	mov    %esi,%eax
    3276:	88 55 fc             	mov    %dl,-0x4(%rbp)
    3279:	88 45 f8             	mov    %al,-0x8(%rbp)
    327c:	80 7d f8 00          	cmpb   $0x0,-0x8(%rbp)
    3280:	74 19                	je     329b <safe_div_func_int8_t_s_s+0x31>
    3282:	80 7d fc 80          	cmpb   $0x80,-0x4(%rbp)
    3286:	75 06                	jne    328e <safe_div_func_int8_t_s_s+0x24>
    3288:	80 7d f8 ff          	cmpb   $0xff,-0x8(%rbp)
    328c:	74 0d                	je     329b <safe_div_func_int8_t_s_s+0x31>
    328e:	0f be 45 fc          	movsbl -0x4(%rbp),%eax
    3292:	0f be 4d f8          	movsbl -0x8(%rbp),%ecx
    3296:	99                   	cltd   
    3297:	f7 f9                	idiv   %ecx
    3299:	eb 04                	jmp    329f <safe_div_func_int8_t_s_s+0x35>
    329b:	0f b6 45 fc          	movzbl -0x4(%rbp),%eax
    329f:	5d                   	pop    %rbp
    32a0:	c3                   	retq   

00000000000032a1 <safe_lshift_func_int8_t_s_s>:
    32a1:	f3 0f 1e fa          	endbr64 
    32a5:	55                   	push   %rbp
    32a6:	48 89 e5             	mov    %rsp,%rbp
    32a9:	89 f8                	mov    %edi,%eax
    32ab:	89 75 f8             	mov    %esi,-0x8(%rbp)
    32ae:	88 45 fc             	mov    %al,-0x4(%rbp)
    32b1:	80 7d fc 00          	cmpb   $0x0,-0x4(%rbp)
    32b5:	78 31                	js     32e8 <safe_lshift_func_int8_t_s_s+0x47>
    32b7:	83 7d f8 00          	cmpl   $0x0,-0x8(%rbp)
    32bb:	78 2b                	js     32e8 <safe_lshift_func_int8_t_s_s+0x47>
    32bd:	83 7d f8 1f          	cmpl   $0x1f,-0x8(%rbp)
    32c1:	7f 25                	jg     32e8 <safe_lshift_func_int8_t_s_s+0x47>
    32c3:	0f be 55 fc          	movsbl -0x4(%rbp),%edx
    32c7:	8b 45 f8             	mov    -0x8(%rbp),%eax
    32ca:	be 7f 00 00 00       	mov    $0x7f,%esi
    32cf:	89 c1                	mov    %eax,%ecx
    32d1:	d3 fe                	sar    %cl,%esi
    32d3:	89 f0                	mov    %esi,%eax
    32d5:	39 c2                	cmp    %eax,%edx
    32d7:	7f 0f                	jg     32e8 <safe_lshift_func_int8_t_s_s+0x47>
    32d9:	0f be 55 fc          	movsbl -0x4(%rbp),%edx
    32dd:	8b 45 f8             	mov    -0x8(%rbp),%eax
    32e0:	89 c1                	mov    %eax,%ecx
    32e2:	d3 e2                	shl    %cl,%edx
    32e4:	89 d0                	mov    %edx,%eax
    32e6:	eb 04                	jmp    32ec <safe_lshift_func_int8_t_s_s+0x4b>
    32e8:	0f b6 45 fc          	movzbl -0x4(%rbp),%eax
    32ec:	5d                   	pop    %rbp
    32ed:	c3                   	retq   

00000000000032ee <safe_lshift_func_int8_t_s_u>:
    32ee:	f3 0f 1e fa          	endbr64 
    32f2:	55                   	push   %rbp
    32f3:	48 89 e5             	mov    %rsp,%rbp
    32f6:	89 f8                	mov    %edi,%eax
    32f8:	89 75 f8             	mov    %esi,-0x8(%rbp)
    32fb:	88 45 fc             	mov    %al,-0x4(%rbp)
    32fe:	80 7d fc 00          	cmpb   $0x0,-0x4(%rbp)
    3302:	78 2b                	js     332f <safe_lshift_func_int8_t_s_u+0x41>
    3304:	83 7d f8 1f          	cmpl   $0x1f,-0x8(%rbp)
    3308:	77 25                	ja     332f <safe_lshift_func_int8_t_s_u+0x41>
    330a:	0f be 55 fc          	movsbl -0x4(%rbp),%edx
    330e:	8b 45 f8             	mov    -0x8(%rbp),%eax
    3311:	be 7f 00 00 00       	mov    $0x7f,%esi
    3316:	89 c1                	mov    %eax,%ecx
    3318:	d3 fe                	sar    %cl,%esi
    331a:	89 f0                	mov    %esi,%eax
    331c:	39 c2                	cmp    %eax,%edx
    331e:	7f 0f                	jg     332f <safe_lshift_func_int8_t_s_u+0x41>
    3320:	0f be 55 fc          	movsbl -0x4(%rbp),%edx
    3324:	8b 45 f8             	mov    -0x8(%rbp),%eax
    3327:	89 c1                	mov    %eax,%ecx
    3329:	d3 e2                	shl    %cl,%edx
    332b:	89 d0                	mov    %edx,%eax
    332d:	eb 04                	jmp    3333 <safe_lshift_func_int8_t_s_u+0x45>
    332f:	0f b6 45 fc          	movzbl -0x4(%rbp),%eax
    3333:	5d                   	pop    %rbp
    3334:	c3                   	retq   

0000000000003335 <safe_rshift_func_int8_t_s_s>:
    3335:	f3 0f 1e fa          	endbr64 
    3339:	55                   	push   %rbp
    333a:	48 89 e5             	mov    %rsp,%rbp
    333d:	89 f8                	mov    %edi,%eax
    333f:	89 75 f8             	mov    %esi,-0x8(%rbp)
    3342:	88 45 fc             	mov    %al,-0x4(%rbp)
    3345:	80 7d fc 00          	cmpb   $0x0,-0x4(%rbp)
    3349:	78 1b                	js     3366 <safe_rshift_func_int8_t_s_s+0x31>
    334b:	83 7d f8 00          	cmpl   $0x0,-0x8(%rbp)
    334f:	78 15                	js     3366 <safe_rshift_func_int8_t_s_s+0x31>
    3351:	83 7d f8 1f          	cmpl   $0x1f,-0x8(%rbp)
    3355:	7f 0f                	jg     3366 <safe_rshift_func_int8_t_s_s+0x31>
    3357:	0f be 55 fc          	movsbl -0x4(%rbp),%edx
    335b:	8b 45 f8             	mov    -0x8(%rbp),%eax
    335e:	89 c1                	mov    %eax,%ecx
    3360:	d3 fa                	sar    %cl,%edx
    3362:	89 d0                	mov    %edx,%eax
    3364:	eb 04                	jmp    336a <safe_rshift_func_int8_t_s_s+0x35>
    3366:	0f b6 45 fc          	movzbl -0x4(%rbp),%eax
    336a:	5d                   	pop    %rbp
    336b:	c3                   	retq   

000000000000336c <safe_rshift_func_int8_t_s_u>:
    336c:	f3 0f 1e fa          	endbr64 
    3370:	55                   	push   %rbp
    3371:	48 89 e5             	mov    %rsp,%rbp
    3374:	89 f8                	mov    %edi,%eax
    3376:	89 75 f8             	mov    %esi,-0x8(%rbp)
    3379:	88 45 fc             	mov    %al,-0x4(%rbp)
    337c:	80 7d fc 00          	cmpb   $0x0,-0x4(%rbp)
    3380:	78 15                	js     3397 <safe_rshift_func_int8_t_s_u+0x2b>
    3382:	83 7d f8 1f          	cmpl   $0x1f,-0x8(%rbp)
    3386:	77 0f                	ja     3397 <safe_rshift_func_int8_t_s_u+0x2b>
    3388:	0f be 55 fc          	movsbl -0x4(%rbp),%edx
    338c:	8b 45 f8             	mov    -0x8(%rbp),%eax
    338f:	89 c1                	mov    %eax,%ecx
    3391:	d3 fa                	sar    %cl,%edx
    3393:	89 d0                	mov    %edx,%eax
    3395:	eb 04                	jmp    339b <safe_rshift_func_int8_t_s_u+0x2f>
    3397:	0f b6 45 fc          	movzbl -0x4(%rbp),%eax
    339b:	5d                   	pop    %rbp
    339c:	c3                   	retq   

000000000000339d <safe_unary_minus_func_int16_t_s>:
    339d:	f3 0f 1e fa          	endbr64 
    33a1:	55                   	push   %rbp
    33a2:	48 89 e5             	mov    %rsp,%rbp
    33a5:	89 f8                	mov    %edi,%eax
    33a7:	66 89 45 fc          	mov    %ax,-0x4(%rbp)
    33ab:	0f b7 45 fc          	movzwl -0x4(%rbp),%eax
    33af:	f7 d8                	neg    %eax
    33b1:	5d                   	pop    %rbp
    33b2:	c3                   	retq   

00000000000033b3 <safe_add_func_int16_t_s_s>:
    33b3:	f3 0f 1e fa          	endbr64 
    33b7:	55                   	push   %rbp
    33b8:	48 89 e5             	mov    %rsp,%rbp
    33bb:	89 fa                	mov    %edi,%edx
    33bd:	89 f0                	mov    %esi,%eax
    33bf:	66 89 55 fc          	mov    %dx,-0x4(%rbp)
    33c3:	66 89 45 f8          	mov    %ax,-0x8(%rbp)
    33c7:	0f b7 55 fc          	movzwl -0x4(%rbp),%edx
    33cb:	0f b7 45 f8          	movzwl -0x8(%rbp),%eax
    33cf:	01 d0                	add    %edx,%eax
    33d1:	5d                   	pop    %rbp
    33d2:	c3                   	retq   

00000000000033d3 <safe_sub_func_int16_t_s_s>:
    33d3:	f3 0f 1e fa          	endbr64 
    33d7:	55                   	push   %rbp
    33d8:	48 89 e5             	mov    %rsp,%rbp
    33db:	89 fa                	mov    %edi,%edx
    33dd:	89 f0                	mov    %esi,%eax
    33df:	66 89 55 fc          	mov    %dx,-0x4(%rbp)
    33e3:	66 89 45 f8          	mov    %ax,-0x8(%rbp)
    33e7:	0f b7 55 fc          	movzwl -0x4(%rbp),%edx
    33eb:	0f b7 45 f8          	movzwl -0x8(%rbp),%eax
    33ef:	29 c2                	sub    %eax,%edx
    33f1:	89 d0                	mov    %edx,%eax
    33f3:	5d                   	pop    %rbp
    33f4:	c3                   	retq   

00000000000033f5 <safe_mul_func_int16_t_s_s>:
    33f5:	f3 0f 1e fa          	endbr64 
    33f9:	55                   	push   %rbp
    33fa:	48 89 e5             	mov    %rsp,%rbp
    33fd:	89 fa                	mov    %edi,%edx
    33ff:	89 f0                	mov    %esi,%eax
    3401:	66 89 55 fc          	mov    %dx,-0x4(%rbp)
    3405:	66 89 45 f8          	mov    %ax,-0x8(%rbp)
    3409:	0f b7 55 fc          	movzwl -0x4(%rbp),%edx
    340d:	0f b7 45 f8          	movzwl -0x8(%rbp),%eax
    3411:	0f af c2             	imul   %edx,%eax
    3414:	5d                   	pop    %rbp
    3415:	c3                   	retq   

0000000000003416 <safe_mod_func_int16_t_s_s>:
    3416:	f3 0f 1e fa          	endbr64 
    341a:	55                   	push   %rbp
    341b:	48 89 e5             	mov    %rsp,%rbp
    341e:	89 fa                	mov    %edi,%edx
    3420:	89 f0                	mov    %esi,%eax
    3422:	66 89 55 fc          	mov    %dx,-0x4(%rbp)
    3426:	66 89 45 f8          	mov    %ax,-0x8(%rbp)
    342a:	66 83 7d f8 00       	cmpw   $0x0,-0x8(%rbp)
    342f:	74 1e                	je     344f <safe_mod_func_int16_t_s_s+0x39>
    3431:	66 81 7d fc 00 80    	cmpw   $0x8000,-0x4(%rbp)
    3437:	75 07                	jne    3440 <safe_mod_func_int16_t_s_s+0x2a>
    3439:	66 83 7d f8 ff       	cmpw   $0xffff,-0x8(%rbp)
    343e:	74 0f                	je     344f <safe_mod_func_int16_t_s_s+0x39>
    3440:	0f bf 45 fc          	movswl -0x4(%rbp),%eax
    3444:	0f bf 4d f8          	movswl -0x8(%rbp),%ecx
    3448:	99                   	cltd   
    3449:	f7 f9                	idiv   %ecx
    344b:	89 d0                	mov    %edx,%eax
    344d:	eb 04                	jmp    3453 <safe_mod_func_int16_t_s_s+0x3d>
    344f:	0f b7 45 fc          	movzwl -0x4(%rbp),%eax
    3453:	5d                   	pop    %rbp
    3454:	c3                   	retq   

0000000000003455 <safe_div_func_int16_t_s_s>:
    3455:	f3 0f 1e fa          	endbr64 
    3459:	55                   	push   %rbp
    345a:	48 89 e5             	mov    %rsp,%rbp
    345d:	89 fa                	mov    %edi,%edx
    345f:	89 f0                	mov    %esi,%eax
    3461:	66 89 55 fc          	mov    %dx,-0x4(%rbp)
    3465:	66 89 45 f8          	mov    %ax,-0x8(%rbp)
    3469:	66 83 7d f8 00       	cmpw   $0x0,-0x8(%rbp)
    346e:	74 1c                	je     348c <safe_div_func_int16_t_s_s+0x37>
    3470:	66 81 7d fc 00 80    	cmpw   $0x8000,-0x4(%rbp)
    3476:	75 07                	jne    347f <safe_div_func_int16_t_s_s+0x2a>
    3478:	66 83 7d f8 ff       	cmpw   $0xffff,-0x8(%rbp)
    347d:	74 0d                	je     348c <safe_div_func_int16_t_s_s+0x37>
    347f:	0f bf 45 fc          	movswl -0x4(%rbp),%eax
    3483:	0f bf 4d f8          	movswl -0x8(%rbp),%ecx
    3487:	99                   	cltd   
    3488:	f7 f9                	idiv   %ecx
    348a:	eb 04                	jmp    3490 <safe_div_func_int16_t_s_s+0x3b>
    348c:	0f b7 45 fc          	movzwl -0x4(%rbp),%eax
    3490:	5d                   	pop    %rbp
    3491:	c3                   	retq   

0000000000003492 <safe_lshift_func_int16_t_s_s>:
    3492:	f3 0f 1e fa          	endbr64 
    3496:	55                   	push   %rbp
    3497:	48 89 e5             	mov    %rsp,%rbp
    349a:	89 f8                	mov    %edi,%eax
    349c:	89 75 f8             	mov    %esi,-0x8(%rbp)
    349f:	66 89 45 fc          	mov    %ax,-0x4(%rbp)
    34a3:	66 83 7d fc 00       	cmpw   $0x0,-0x4(%rbp)
    34a8:	78 31                	js     34db <safe_lshift_func_int16_t_s_s+0x49>
    34aa:	83 7d f8 00          	cmpl   $0x0,-0x8(%rbp)
    34ae:	78 2b                	js     34db <safe_lshift_func_int16_t_s_s+0x49>
    34b0:	83 7d f8 1f          	cmpl   $0x1f,-0x8(%rbp)
    34b4:	7f 25                	jg     34db <safe_lshift_func_int16_t_s_s+0x49>
    34b6:	0f bf 55 fc          	movswl -0x4(%rbp),%edx
    34ba:	8b 45 f8             	mov    -0x8(%rbp),%eax
    34bd:	be ff 7f 00 00       	mov    $0x7fff,%esi
    34c2:	89 c1                	mov    %eax,%ecx
    34c4:	d3 fe                	sar    %cl,%esi
    34c6:	89 f0                	mov    %esi,%eax
    34c8:	39 c2                	cmp    %eax,%edx
    34ca:	7f 0f                	jg     34db <safe_lshift_func_int16_t_s_s+0x49>
    34cc:	0f bf 55 fc          	movswl -0x4(%rbp),%edx
    34d0:	8b 45 f8             	mov    -0x8(%rbp),%eax
    34d3:	89 c1                	mov    %eax,%ecx
    34d5:	d3 e2                	shl    %cl,%edx
    34d7:	89 d0                	mov    %edx,%eax
    34d9:	eb 04                	jmp    34df <safe_lshift_func_int16_t_s_s+0x4d>
    34db:	0f b7 45 fc          	movzwl -0x4(%rbp),%eax
    34df:	5d                   	pop    %rbp
    34e0:	c3                   	retq   

00000000000034e1 <safe_lshift_func_int16_t_s_u>:
    34e1:	f3 0f 1e fa          	endbr64 
    34e5:	55                   	push   %rbp
    34e6:	48 89 e5             	mov    %rsp,%rbp
    34e9:	89 f8                	mov    %edi,%eax
    34eb:	89 75 f8             	mov    %esi,-0x8(%rbp)
    34ee:	66 89 45 fc          	mov    %ax,-0x4(%rbp)
    34f2:	66 83 7d fc 00       	cmpw   $0x0,-0x4(%rbp)
    34f7:	78 2b                	js     3524 <safe_lshift_func_int16_t_s_u+0x43>
    34f9:	83 7d f8 1f          	cmpl   $0x1f,-0x8(%rbp)
    34fd:	77 25                	ja     3524 <safe_lshift_func_int16_t_s_u+0x43>
    34ff:	0f bf 55 fc          	movswl -0x4(%rbp),%edx
    3503:	8b 45 f8             	mov    -0x8(%rbp),%eax
    3506:	be ff 7f 00 00       	mov    $0x7fff,%esi
    350b:	89 c1                	mov    %eax,%ecx
    350d:	d3 fe                	sar    %cl,%esi
    350f:	89 f0                	mov    %esi,%eax
    3511:	39 c2                	cmp    %eax,%edx
    3513:	7f 0f                	jg     3524 <safe_lshift_func_int16_t_s_u+0x43>
    3515:	0f bf 55 fc          	movswl -0x4(%rbp),%edx
    3519:	8b 45 f8             	mov    -0x8(%rbp),%eax
    351c:	89 c1                	mov    %eax,%ecx
    351e:	d3 e2                	shl    %cl,%edx
    3520:	89 d0                	mov    %edx,%eax
    3522:	eb 04                	jmp    3528 <safe_lshift_func_int16_t_s_u+0x47>
    3524:	0f b7 45 fc          	movzwl -0x4(%rbp),%eax
    3528:	5d                   	pop    %rbp
    3529:	c3                   	retq   

000000000000352a <safe_rshift_func_int16_t_s_s>:
    352a:	f3 0f 1e fa          	endbr64 
    352e:	55                   	push   %rbp
    352f:	48 89 e5             	mov    %rsp,%rbp
    3532:	89 f8                	mov    %edi,%eax
    3534:	89 75 f8             	mov    %esi,-0x8(%rbp)
    3537:	66 89 45 fc          	mov    %ax,-0x4(%rbp)
    353b:	66 83 7d fc 00       	cmpw   $0x0,-0x4(%rbp)
    3540:	78 1b                	js     355d <safe_rshift_func_int16_t_s_s+0x33>
    3542:	83 7d f8 00          	cmpl   $0x0,-0x8(%rbp)
    3546:	78 15                	js     355d <safe_rshift_func_int16_t_s_s+0x33>
    3548:	83 7d f8 1f          	cmpl   $0x1f,-0x8(%rbp)
    354c:	7f 0f                	jg     355d <safe_rshift_func_int16_t_s_s+0x33>
    354e:	0f bf 55 fc          	movswl -0x4(%rbp),%edx
    3552:	8b 45 f8             	mov    -0x8(%rbp),%eax
    3555:	89 c1                	mov    %eax,%ecx
    3557:	d3 fa                	sar    %cl,%edx
    3559:	89 d0                	mov    %edx,%eax
    355b:	eb 04                	jmp    3561 <safe_rshift_func_int16_t_s_s+0x37>
    355d:	0f b7 45 fc          	movzwl -0x4(%rbp),%eax
    3561:	5d                   	pop    %rbp
    3562:	c3                   	retq   

0000000000003563 <safe_rshift_func_int16_t_s_u>:
    3563:	f3 0f 1e fa          	endbr64 
    3567:	55                   	push   %rbp
    3568:	48 89 e5             	mov    %rsp,%rbp
    356b:	89 f8                	mov    %edi,%eax
    356d:	89 75 f8             	mov    %esi,-0x8(%rbp)
    3570:	66 89 45 fc          	mov    %ax,-0x4(%rbp)
    3574:	66 83 7d fc 00       	cmpw   $0x0,-0x4(%rbp)
    3579:	78 15                	js     3590 <safe_rshift_func_int16_t_s_u+0x2d>
    357b:	83 7d f8 1f          	cmpl   $0x1f,-0x8(%rbp)
    357f:	77 0f                	ja     3590 <safe_rshift_func_int16_t_s_u+0x2d>
    3581:	0f bf 55 fc          	movswl -0x4(%rbp),%edx
    3585:	8b 45 f8             	mov    -0x8(%rbp),%eax
    3588:	89 c1                	mov    %eax,%ecx
    358a:	d3 fa                	sar    %cl,%edx
    358c:	89 d0                	mov    %edx,%eax
    358e:	eb 04                	jmp    3594 <safe_rshift_func_int16_t_s_u+0x31>
    3590:	0f b7 45 fc          	movzwl -0x4(%rbp),%eax
    3594:	5d                   	pop    %rbp
    3595:	c3                   	retq   

0000000000003596 <safe_unary_minus_func_int32_t_s>:
    3596:	f3 0f 1e fa          	endbr64 
    359a:	55                   	push   %rbp
    359b:	48 89 e5             	mov    %rsp,%rbp
    359e:	89 7d fc             	mov    %edi,-0x4(%rbp)
    35a1:	81 7d fc 00 00 00 80 	cmpl   $0x80000000,-0x4(%rbp)
    35a8:	74 07                	je     35b1 <safe_unary_minus_func_int32_t_s+0x1b>
    35aa:	8b 45 fc             	mov    -0x4(%rbp),%eax
    35ad:	f7 d8                	neg    %eax
    35af:	eb 03                	jmp    35b4 <safe_unary_minus_func_int32_t_s+0x1e>
    35b1:	8b 45 fc             	mov    -0x4(%rbp),%eax
    35b4:	5d                   	pop    %rbp
    35b5:	c3                   	retq   

00000000000035b6 <safe_add_func_int32_t_s_s>:
    35b6:	f3 0f 1e fa          	endbr64 
    35ba:	55                   	push   %rbp
    35bb:	48 89 e5             	mov    %rsp,%rbp
    35be:	89 7d fc             	mov    %edi,-0x4(%rbp)
    35c1:	89 75 f8             	mov    %esi,-0x8(%rbp)
    35c4:	83 7d fc 00          	cmpl   $0x0,-0x4(%rbp)
    35c8:	7e 13                	jle    35dd <safe_add_func_int32_t_s_s+0x27>
    35ca:	83 7d f8 00          	cmpl   $0x0,-0x8(%rbp)
    35ce:	7e 0d                	jle    35dd <safe_add_func_int32_t_s_s+0x27>
    35d0:	b8 ff ff ff 7f       	mov    $0x7fffffff,%eax
    35d5:	2b 45 f8             	sub    -0x8(%rbp),%eax
    35d8:	39 45 fc             	cmp    %eax,-0x4(%rbp)
    35db:	7f 23                	jg     3600 <safe_add_func_int32_t_s_s+0x4a>
    35dd:	83 7d fc 00          	cmpl   $0x0,-0x4(%rbp)
    35e1:	79 13                	jns    35f6 <safe_add_func_int32_t_s_s+0x40>
    35e3:	83 7d f8 00          	cmpl   $0x0,-0x8(%rbp)
    35e7:	79 0d                	jns    35f6 <safe_add_func_int32_t_s_s+0x40>
    35e9:	b8 00 00 00 80       	mov    $0x80000000,%eax
    35ee:	2b 45 f8             	sub    -0x8(%rbp),%eax
    35f1:	39 45 fc             	cmp    %eax,-0x4(%rbp)
    35f4:	7c 0a                	jl     3600 <safe_add_func_int32_t_s_s+0x4a>
    35f6:	8b 55 fc             	mov    -0x4(%rbp),%edx
    35f9:	8b 45 f8             	mov    -0x8(%rbp),%eax
    35fc:	01 d0                	add    %edx,%eax
    35fe:	eb 03                	jmp    3603 <safe_add_func_int32_t_s_s+0x4d>
    3600:	8b 45 fc             	mov    -0x4(%rbp),%eax
    3603:	5d                   	pop    %rbp
    3604:	c3                   	retq   

0000000000003605 <safe_sub_func_int32_t_s_s>:
    3605:	f3 0f 1e fa          	endbr64 
    3609:	55                   	push   %rbp
    360a:	48 89 e5             	mov    %rsp,%rbp
    360d:	89 7d fc             	mov    %edi,-0x4(%rbp)
    3610:	89 75 f8             	mov    %esi,-0x8(%rbp)
    3613:	8b 45 fc             	mov    -0x4(%rbp),%eax
    3616:	33 45 f8             	xor    -0x8(%rbp),%eax
    3619:	89 c2                	mov    %eax,%edx
    361b:	8b 45 fc             	mov    -0x4(%rbp),%eax
    361e:	33 45 f8             	xor    -0x8(%rbp),%eax
    3621:	25 00 00 00 80       	and    $0x80000000,%eax
    3626:	33 45 fc             	xor    -0x4(%rbp),%eax
    3629:	2b 45 f8             	sub    -0x8(%rbp),%eax
    362c:	33 45 f8             	xor    -0x8(%rbp),%eax
    362f:	21 d0                	and    %edx,%eax
    3631:	85 c0                	test   %eax,%eax
    3633:	78 08                	js     363d <safe_sub_func_int32_t_s_s+0x38>
    3635:	8b 45 fc             	mov    -0x4(%rbp),%eax
    3638:	2b 45 f8             	sub    -0x8(%rbp),%eax
    363b:	eb 03                	jmp    3640 <safe_sub_func_int32_t_s_s+0x3b>
    363d:	8b 45 fc             	mov    -0x4(%rbp),%eax
    3640:	5d                   	pop    %rbp
    3641:	c3                   	retq   

0000000000003642 <safe_mul_func_int32_t_s_s>:
    3642:	f3 0f 1e fa          	endbr64 
    3646:	55                   	push   %rbp
    3647:	48 89 e5             	mov    %rsp,%rbp
    364a:	89 7d fc             	mov    %edi,-0x4(%rbp)
    364d:	89 75 f8             	mov    %esi,-0x8(%rbp)
    3650:	83 7d fc 00          	cmpl   $0x0,-0x4(%rbp)
    3654:	7e 14                	jle    366a <safe_mul_func_int32_t_s_s+0x28>
    3656:	83 7d f8 00          	cmpl   $0x0,-0x8(%rbp)
    365a:	7e 0e                	jle    366a <safe_mul_func_int32_t_s_s+0x28>
    365c:	b8 ff ff ff 7f       	mov    $0x7fffffff,%eax
    3661:	99                   	cltd   
    3662:	f7 7d f8             	idivl  -0x8(%rbp)
    3665:	39 45 fc             	cmp    %eax,-0x4(%rbp)
    3668:	7f 5d                	jg     36c7 <safe_mul_func_int32_t_s_s+0x85>
    366a:	83 7d fc 00          	cmpl   $0x0,-0x4(%rbp)
    366e:	7e 14                	jle    3684 <safe_mul_func_int32_t_s_s+0x42>
    3670:	83 7d f8 00          	cmpl   $0x0,-0x8(%rbp)
    3674:	7f 0e                	jg     3684 <safe_mul_func_int32_t_s_s+0x42>
    3676:	b8 00 00 00 80       	mov    $0x80000000,%eax
    367b:	99                   	cltd   
    367c:	f7 7d fc             	idivl  -0x4(%rbp)
    367f:	39 45 f8             	cmp    %eax,-0x8(%rbp)
    3682:	7c 43                	jl     36c7 <safe_mul_func_int32_t_s_s+0x85>
    3684:	83 7d fc 00          	cmpl   $0x0,-0x4(%rbp)
    3688:	7f 14                	jg     369e <safe_mul_func_int32_t_s_s+0x5c>
    368a:	83 7d f8 00          	cmpl   $0x0,-0x8(%rbp)
    368e:	7e 0e                	jle    369e <safe_mul_func_int32_t_s_s+0x5c>
    3690:	b8 00 00 00 80       	mov    $0x80000000,%eax
    3695:	99                   	cltd   
    3696:	f7 7d f8             	idivl  -0x8(%rbp)
    3699:	39 45 fc             	cmp    %eax,-0x4(%rbp)
    369c:	7c 29                	jl     36c7 <safe_mul_func_int32_t_s_s+0x85>
    369e:	83 7d fc 00          	cmpl   $0x0,-0x4(%rbp)
    36a2:	7f 1a                	jg     36be <safe_mul_func_int32_t_s_s+0x7c>
    36a4:	83 7d f8 00          	cmpl   $0x0,-0x8(%rbp)
    36a8:	7f 14                	jg     36be <safe_mul_func_int32_t_s_s+0x7c>
    36aa:	83 7d fc 00          	cmpl   $0x0,-0x4(%rbp)
    36ae:	74 0e                	je     36be <safe_mul_func_int32_t_s_s+0x7c>
    36b0:	b8 ff ff ff 7f       	mov    $0x7fffffff,%eax
    36b5:	99                   	cltd   
    36b6:	f7 7d fc             	idivl  -0x4(%rbp)
    36b9:	39 45 f8             	cmp    %eax,-0x8(%rbp)
    36bc:	7c 09                	jl     36c7 <safe_mul_func_int32_t_s_s+0x85>
    36be:	8b 45 fc             	mov    -0x4(%rbp),%eax
    36c1:	0f af 45 f8          	imul   -0x8(%rbp),%eax
    36c5:	eb 03                	jmp    36ca <safe_mul_func_int32_t_s_s+0x88>
    36c7:	8b 45 fc             	mov    -0x4(%rbp),%eax
    36ca:	5d                   	pop    %rbp
    36cb:	c3                   	retq   

00000000000036cc <safe_mod_func_int32_t_s_s>:
    36cc:	f3 0f 1e fa          	endbr64 
    36d0:	55                   	push   %rbp
    36d1:	48 89 e5             	mov    %rsp,%rbp
    36d4:	89 7d fc             	mov    %edi,-0x4(%rbp)
    36d7:	89 75 f8             	mov    %esi,-0x8(%rbp)
    36da:	83 7d f8 00          	cmpl   $0x0,-0x8(%rbp)
    36de:	74 1a                	je     36fa <safe_mod_func_int32_t_s_s+0x2e>
    36e0:	81 7d fc 00 00 00 80 	cmpl   $0x80000000,-0x4(%rbp)
    36e7:	75 06                	jne    36ef <safe_mod_func_int32_t_s_s+0x23>
    36e9:	83 7d f8 ff          	cmpl   $0xffffffff,-0x8(%rbp)
    36ed:	74 0b                	je     36fa <safe_mod_func_int32_t_s_s+0x2e>
    36ef:	8b 45 fc             	mov    -0x4(%rbp),%eax
    36f2:	99                   	cltd   
    36f3:	f7 7d f8             	idivl  -0x8(%rbp)
    36f6:	89 d0                	mov    %edx,%eax
    36f8:	eb 03                	jmp    36fd <safe_mod_func_int32_t_s_s+0x31>
    36fa:	8b 45 fc             	mov    -0x4(%rbp),%eax
    36fd:	5d                   	pop    %rbp
    36fe:	c3                   	retq   

00000000000036ff <safe_div_func_int32_t_s_s>:
    36ff:	f3 0f 1e fa          	endbr64 
    3703:	55                   	push   %rbp
    3704:	48 89 e5             	mov    %rsp,%rbp
    3707:	89 7d fc             	mov    %edi,-0x4(%rbp)
    370a:	89 75 f8             	mov    %esi,-0x8(%rbp)
    370d:	83 7d f8 00          	cmpl   $0x0,-0x8(%rbp)
    3711:	74 18                	je     372b <safe_div_func_int32_t_s_s+0x2c>
    3713:	81 7d fc 00 00 00 80 	cmpl   $0x80000000,-0x4(%rbp)
    371a:	75 06                	jne    3722 <safe_div_func_int32_t_s_s+0x23>
    371c:	83 7d f8 ff          	cmpl   $0xffffffff,-0x8(%rbp)
    3720:	74 09                	je     372b <safe_div_func_int32_t_s_s+0x2c>
    3722:	8b 45 fc             	mov    -0x4(%rbp),%eax
    3725:	99                   	cltd   
    3726:	f7 7d f8             	idivl  -0x8(%rbp)
    3729:	eb 03                	jmp    372e <safe_div_func_int32_t_s_s+0x2f>
    372b:	8b 45 fc             	mov    -0x4(%rbp),%eax
    372e:	5d                   	pop    %rbp
    372f:	c3                   	retq   

0000000000003730 <safe_lshift_func_int32_t_s_s>:
    3730:	f3 0f 1e fa          	endbr64 
    3734:	55                   	push   %rbp
    3735:	48 89 e5             	mov    %rsp,%rbp
    3738:	89 7d fc             	mov    %edi,-0x4(%rbp)
    373b:	89 75 f8             	mov    %esi,-0x8(%rbp)
    373e:	83 7d fc 00          	cmpl   $0x0,-0x4(%rbp)
    3742:	78 2d                	js     3771 <safe_lshift_func_int32_t_s_s+0x41>
    3744:	83 7d f8 00          	cmpl   $0x0,-0x8(%rbp)
    3748:	78 27                	js     3771 <safe_lshift_func_int32_t_s_s+0x41>
    374a:	83 7d f8 1f          	cmpl   $0x1f,-0x8(%rbp)
    374e:	7f 21                	jg     3771 <safe_lshift_func_int32_t_s_s+0x41>
    3750:	8b 45 f8             	mov    -0x8(%rbp),%eax
    3753:	ba ff ff ff 7f       	mov    $0x7fffffff,%edx
    3758:	89 c1                	mov    %eax,%ecx
    375a:	d3 fa                	sar    %cl,%edx
    375c:	89 d0                	mov    %edx,%eax
    375e:	39 45 fc             	cmp    %eax,-0x4(%rbp)
    3761:	7f 0e                	jg     3771 <safe_lshift_func_int32_t_s_s+0x41>
    3763:	8b 45 f8             	mov    -0x8(%rbp),%eax
    3766:	8b 55 fc             	mov    -0x4(%rbp),%edx
    3769:	89 c1                	mov    %eax,%ecx
    376b:	d3 e2                	shl    %cl,%edx
    376d:	89 d0                	mov    %edx,%eax
    376f:	eb 03                	jmp    3774 <safe_lshift_func_int32_t_s_s+0x44>
    3771:	8b 45 fc             	mov    -0x4(%rbp),%eax
    3774:	5d                   	pop    %rbp
    3775:	c3                   	retq   

0000000000003776 <safe_lshift_func_int32_t_s_u>:
    3776:	f3 0f 1e fa          	endbr64 
    377a:	55                   	push   %rbp
    377b:	48 89 e5             	mov    %rsp,%rbp
    377e:	89 7d fc             	mov    %edi,-0x4(%rbp)
    3781:	89 75 f8             	mov    %esi,-0x8(%rbp)
    3784:	83 7d fc 00          	cmpl   $0x0,-0x4(%rbp)
    3788:	78 27                	js     37b1 <safe_lshift_func_int32_t_s_u+0x3b>
    378a:	83 7d f8 1f          	cmpl   $0x1f,-0x8(%rbp)
    378e:	77 21                	ja     37b1 <safe_lshift_func_int32_t_s_u+0x3b>
    3790:	8b 45 f8             	mov    -0x8(%rbp),%eax
    3793:	ba ff ff ff 7f       	mov    $0x7fffffff,%edx
    3798:	89 c1                	mov    %eax,%ecx
    379a:	d3 fa                	sar    %cl,%edx
    379c:	89 d0                	mov    %edx,%eax
    379e:	39 45 fc             	cmp    %eax,-0x4(%rbp)
    37a1:	7f 0e                	jg     37b1 <safe_lshift_func_int32_t_s_u+0x3b>
    37a3:	8b 45 f8             	mov    -0x8(%rbp),%eax
    37a6:	8b 55 fc             	mov    -0x4(%rbp),%edx
    37a9:	89 c1                	mov    %eax,%ecx
    37ab:	d3 e2                	shl    %cl,%edx
    37ad:	89 d0                	mov    %edx,%eax
    37af:	eb 03                	jmp    37b4 <safe_lshift_func_int32_t_s_u+0x3e>
    37b1:	8b 45 fc             	mov    -0x4(%rbp),%eax
    37b4:	5d                   	pop    %rbp
    37b5:	c3                   	retq   

00000000000037b6 <safe_rshift_func_int32_t_s_s>:
    37b6:	f3 0f 1e fa          	endbr64 
    37ba:	55                   	push   %rbp
    37bb:	48 89 e5             	mov    %rsp,%rbp
    37be:	89 7d fc             	mov    %edi,-0x4(%rbp)
    37c1:	89 75 f8             	mov    %esi,-0x8(%rbp)
    37c4:	83 7d fc 00          	cmpl   $0x0,-0x4(%rbp)
    37c8:	78 1a                	js     37e4 <safe_rshift_func_int32_t_s_s+0x2e>
    37ca:	83 7d f8 00          	cmpl   $0x0,-0x8(%rbp)
    37ce:	78 14                	js     37e4 <safe_rshift_func_int32_t_s_s+0x2e>
    37d0:	83 7d f8 1f          	cmpl   $0x1f,-0x8(%rbp)
    37d4:	7f 0e                	jg     37e4 <safe_rshift_func_int32_t_s_s+0x2e>
    37d6:	8b 45 f8             	mov    -0x8(%rbp),%eax
    37d9:	8b 55 fc             	mov    -0x4(%rbp),%edx
    37dc:	89 c1                	mov    %eax,%ecx
    37de:	d3 fa                	sar    %cl,%edx
    37e0:	89 d0                	mov    %edx,%eax
    37e2:	eb 03                	jmp    37e7 <safe_rshift_func_int32_t_s_s+0x31>
    37e4:	8b 45 fc             	mov    -0x4(%rbp),%eax
    37e7:	5d                   	pop    %rbp
    37e8:	c3                   	retq   

00000000000037e9 <safe_rshift_func_int32_t_s_u>:
    37e9:	f3 0f 1e fa          	endbr64 
    37ed:	55                   	push   %rbp
    37ee:	48 89 e5             	mov    %rsp,%rbp
    37f1:	89 7d fc             	mov    %edi,-0x4(%rbp)
    37f4:	89 75 f8             	mov    %esi,-0x8(%rbp)
    37f7:	83 7d fc 00          	cmpl   $0x0,-0x4(%rbp)
    37fb:	78 14                	js     3811 <safe_rshift_func_int32_t_s_u+0x28>
    37fd:	83 7d f8 1f          	cmpl   $0x1f,-0x8(%rbp)
    3801:	77 0e                	ja     3811 <safe_rshift_func_int32_t_s_u+0x28>
    3803:	8b 45 f8             	mov    -0x8(%rbp),%eax
    3806:	8b 55 fc             	mov    -0x4(%rbp),%edx
    3809:	89 c1                	mov    %eax,%ecx
    380b:	d3 fa                	sar    %cl,%edx
    380d:	89 d0                	mov    %edx,%eax
    380f:	eb 03                	jmp    3814 <safe_rshift_func_int32_t_s_u+0x2b>
    3811:	8b 45 fc             	mov    -0x4(%rbp),%eax
    3814:	5d                   	pop    %rbp
    3815:	c3                   	retq   

0000000000003816 <safe_unary_minus_func_int64_t_s>:
    3816:	f3 0f 1e fa          	endbr64 
    381a:	55                   	push   %rbp
    381b:	48 89 e5             	mov    %rsp,%rbp
    381e:	48 89 7d f8          	mov    %rdi,-0x8(%rbp)
    3822:	48 b8 00 00 00 00 00 	movabs $0x8000000000000000,%rax
    3829:	00 00 80 
    382c:	48 39 45 f8          	cmp    %rax,-0x8(%rbp)
    3830:	74 09                	je     383b <safe_unary_minus_func_int64_t_s+0x25>
    3832:	48 8b 45 f8          	mov    -0x8(%rbp),%rax
    3836:	48 f7 d8             	neg    %rax
    3839:	eb 04                	jmp    383f <safe_unary_minus_func_int64_t_s+0x29>
    383b:	48 8b 45 f8          	mov    -0x8(%rbp),%rax
    383f:	5d                   	pop    %rbp
    3840:	c3                   	retq   

0000000000003841 <safe_add_func_int64_t_s_s>:
    3841:	f3 0f 1e fa          	endbr64 
    3845:	55                   	push   %rbp
    3846:	48 89 e5             	mov    %rsp,%rbp
    3849:	48 89 7d f8          	mov    %rdi,-0x8(%rbp)
    384d:	48 89 75 f0          	mov    %rsi,-0x10(%rbp)
    3851:	48 83 7d f8 00       	cmpq   $0x0,-0x8(%rbp)
    3856:	7e 1b                	jle    3873 <safe_add_func_int64_t_s_s+0x32>
    3858:	48 83 7d f0 00       	cmpq   $0x0,-0x10(%rbp)
    385d:	7e 14                	jle    3873 <safe_add_func_int64_t_s_s+0x32>
    385f:	48 b8 ff ff ff ff ff 	movabs $0x7fffffffffffffff,%rax
    3866:	ff ff 7f 
    3869:	48 2b 45 f0          	sub    -0x10(%rbp),%rax
    386d:	48 39 45 f8          	cmp    %rax,-0x8(%rbp)
    3871:	7f 2f                	jg     38a2 <safe_add_func_int64_t_s_s+0x61>
    3873:	48 83 7d f8 00       	cmpq   $0x0,-0x8(%rbp)
    3878:	79 1b                	jns    3895 <safe_add_func_int64_t_s_s+0x54>
    387a:	48 83 7d f0 00       	cmpq   $0x0,-0x10(%rbp)
    387f:	79 14                	jns    3895 <safe_add_func_int64_t_s_s+0x54>
    3881:	48 b8 00 00 00 00 00 	movabs $0x8000000000000000,%rax
    3888:	00 00 80 
    388b:	48 2b 45 f0          	sub    -0x10(%rbp),%rax
    388f:	48 39 45 f8          	cmp    %rax,-0x8(%rbp)
    3893:	7c 0d                	jl     38a2 <safe_add_func_int64_t_s_s+0x61>
    3895:	48 8b 55 f8          	mov    -0x8(%rbp),%rdx
    3899:	48 8b 45 f0          	mov    -0x10(%rbp),%rax
    389d:	48 01 d0             	add    %rdx,%rax
    38a0:	eb 04                	jmp    38a6 <safe_add_func_int64_t_s_s+0x65>
    38a2:	48 8b 45 f8          	mov    -0x8(%rbp),%rax
    38a6:	5d                   	pop    %rbp
    38a7:	c3                   	retq   

00000000000038a8 <safe_sub_func_int64_t_s_s>:
    38a8:	f3 0f 1e fa          	endbr64 
    38ac:	55                   	push   %rbp
    38ad:	48 89 e5             	mov    %rsp,%rbp
    38b0:	48 89 7d f8          	mov    %rdi,-0x8(%rbp)
    38b4:	48 89 75 f0          	mov    %rsi,-0x10(%rbp)
    38b8:	48 8b 45 f8          	mov    -0x8(%rbp),%rax
    38bc:	48 33 45 f0          	xor    -0x10(%rbp),%rax
    38c0:	48 89 c2             	mov    %rax,%rdx
    38c3:	48 8b 45 f8          	mov    -0x8(%rbp),%rax
    38c7:	48 33 45 f0          	xor    -0x10(%rbp),%rax
    38cb:	48 b9 00 00 00 00 00 	movabs $0x8000000000000000,%rcx
    38d2:	00 00 80 
    38d5:	48 21 c8             	and    %rcx,%rax
    38d8:	48 33 45 f8          	xor    -0x8(%rbp),%rax
    38dc:	48 2b 45 f0          	sub    -0x10(%rbp),%rax
    38e0:	48 33 45 f0          	xor    -0x10(%rbp),%rax
    38e4:	48 21 d0             	and    %rdx,%rax
    38e7:	48 85 c0             	test   %rax,%rax
    38ea:	78 0a                	js     38f6 <safe_sub_func_int64_t_s_s+0x4e>
    38ec:	48 8b 45 f8          	mov    -0x8(%rbp),%rax
    38f0:	48 2b 45 f0          	sub    -0x10(%rbp),%rax
    38f4:	eb 04                	jmp    38fa <safe_sub_func_int64_t_s_s+0x52>
    38f6:	48 8b 45 f8          	mov    -0x8(%rbp),%rax
    38fa:	5d                   	pop    %rbp
    38fb:	c3                   	retq   

00000000000038fc <safe_mul_func_int64_t_s_s>:
    38fc:	f3 0f 1e fa          	endbr64 
    3900:	55                   	push   %rbp
    3901:	48 89 e5             	mov    %rsp,%rbp
    3904:	48 89 7d f8          	mov    %rdi,-0x8(%rbp)
    3908:	48 89 75 f0          	mov    %rsi,-0x10(%rbp)
    390c:	48 83 7d f8 00       	cmpq   $0x0,-0x8(%rbp)
    3911:	7e 1d                	jle    3930 <safe_mul_func_int64_t_s_s+0x34>
    3913:	48 83 7d f0 00       	cmpq   $0x0,-0x10(%rbp)
    3918:	7e 16                	jle    3930 <safe_mul_func_int64_t_s_s+0x34>
    391a:	48 b8 ff ff ff ff ff 	movabs $0x7fffffffffffffff,%rax
    3921:	ff ff 7f 
    3924:	48 99                	cqto   
    3926:	48 f7 7d f0          	idivq  -0x10(%rbp)
    392a:	48 39 45 f8          	cmp    %rax,-0x8(%rbp)
    392e:	7f 7e                	jg     39ae <safe_mul_func_int64_t_s_s+0xb2>
    3930:	48 83 7d f8 00       	cmpq   $0x0,-0x8(%rbp)
    3935:	7e 1d                	jle    3954 <safe_mul_func_int64_t_s_s+0x58>
    3937:	48 83 7d f0 00       	cmpq   $0x0,-0x10(%rbp)
    393c:	7f 16                	jg     3954 <safe_mul_func_int64_t_s_s+0x58>
    393e:	48 b8 00 00 00 00 00 	movabs $0x8000000000000000,%rax
    3945:	00 00 80 
    3948:	48 99                	cqto   
    394a:	48 f7 7d f8          	idivq  -0x8(%rbp)
    394e:	48 39 45 f0          	cmp    %rax,-0x10(%rbp)
    3952:	7c 5a                	jl     39ae <safe_mul_func_int64_t_s_s+0xb2>
    3954:	48 83 7d f8 00       	cmpq   $0x0,-0x8(%rbp)
    3959:	7f 1d                	jg     3978 <safe_mul_func_int64_t_s_s+0x7c>
    395b:	48 83 7d f0 00       	cmpq   $0x0,-0x10(%rbp)
    3960:	7e 16                	jle    3978 <safe_mul_func_int64_t_s_s+0x7c>
    3962:	48 b8 00 00 00 00 00 	movabs $0x8000000000000000,%rax
    3969:	00 00 80 
    396c:	48 99                	cqto   
    396e:	48 f7 7d f0          	idivq  -0x10(%rbp)
    3972:	48 39 45 f8          	cmp    %rax,-0x8(%rbp)
    3976:	7c 36                	jl     39ae <safe_mul_func_int64_t_s_s+0xb2>
    3978:	48 83 7d f8 00       	cmpq   $0x0,-0x8(%rbp)
    397d:	7f 24                	jg     39a3 <safe_mul_func_int64_t_s_s+0xa7>
    397f:	48 83 7d f0 00       	cmpq   $0x0,-0x10(%rbp)
    3984:	7f 1d                	jg     39a3 <safe_mul_func_int64_t_s_s+0xa7>
    3986:	48 83 7d f8 00       	cmpq   $0x0,-0x8(%rbp)
    398b:	74 16                	je     39a3 <safe_mul_func_int64_t_s_s+0xa7>
    398d:	48 b8 ff ff ff ff ff 	movabs $0x7fffffffffffffff,%rax
    3994:	ff ff 7f 
    3997:	48 99                	cqto   
    3999:	48 f7 7d f8          	idivq  -0x8(%rbp)
    399d:	48 39 45 f0          	cmp    %rax,-0x10(%rbp)
    39a1:	7c 0b                	jl     39ae <safe_mul_func_int64_t_s_s+0xb2>
    39a3:	48 8b 45 f8          	mov    -0x8(%rbp),%rax
    39a7:	48 0f af 45 f0       	imul   -0x10(%rbp),%rax
    39ac:	eb 04                	jmp    39b2 <safe_mul_func_int64_t_s_s+0xb6>
    39ae:	48 8b 45 f8          	mov    -0x8(%rbp),%rax
    39b2:	5d                   	pop    %rbp
    39b3:	c3                   	retq   

00000000000039b4 <safe_mod_func_int64_t_s_s>:
    39b4:	f3 0f 1e fa          	endbr64 
    39b8:	55                   	push   %rbp
    39b9:	48 89 e5             	mov    %rsp,%rbp
    39bc:	48 89 7d f8          	mov    %rdi,-0x8(%rbp)
    39c0:	48 89 75 f0          	mov    %rsi,-0x10(%rbp)
    39c4:	48 83 7d f0 00       	cmpq   $0x0,-0x10(%rbp)
    39c9:	74 26                	je     39f1 <safe_mod_func_int64_t_s_s+0x3d>
    39cb:	48 b8 00 00 00 00 00 	movabs $0x8000000000000000,%rax
    39d2:	00 00 80 
    39d5:	48 39 45 f8          	cmp    %rax,-0x8(%rbp)
    39d9:	75 07                	jne    39e2 <safe_mod_func_int64_t_s_s+0x2e>
    39db:	48 83 7d f0 ff       	cmpq   $0xffffffffffffffff,-0x10(%rbp)
    39e0:	74 0f                	je     39f1 <safe_mod_func_int64_t_s_s+0x3d>
    39e2:	48 8b 45 f8          	mov    -0x8(%rbp),%rax
    39e6:	48 99                	cqto   
    39e8:	48 f7 7d f0          	idivq  -0x10(%rbp)
    39ec:	48 89 d0             	mov    %rdx,%rax
    39ef:	eb 04                	jmp    39f5 <safe_mod_func_int64_t_s_s+0x41>
    39f1:	48 8b 45 f8          	mov    -0x8(%rbp),%rax
    39f5:	5d                   	pop    %rbp
    39f6:	c3                   	retq   

00000000000039f7 <safe_div_func_int64_t_s_s>:
    39f7:	f3 0f 1e fa          	endbr64 
    39fb:	55                   	push   %rbp
    39fc:	48 89 e5             	mov    %rsp,%rbp
    39ff:	48 89 7d f8          	mov    %rdi,-0x8(%rbp)
    3a03:	48 89 75 f0          	mov    %rsi,-0x10(%rbp)
    3a07:	48 83 7d f0 00       	cmpq   $0x0,-0x10(%rbp)
    3a0c:	74 23                	je     3a31 <safe_div_func_int64_t_s_s+0x3a>
    3a0e:	48 b8 00 00 00 00 00 	movabs $0x8000000000000000,%rax
    3a15:	00 00 80 
    3a18:	48 39 45 f8          	cmp    %rax,-0x8(%rbp)
    3a1c:	75 07                	jne    3a25 <safe_div_func_int64_t_s_s+0x2e>
    3a1e:	48 83 7d f0 ff       	cmpq   $0xffffffffffffffff,-0x10(%rbp)
    3a23:	74 0c                	je     3a31 <safe_div_func_int64_t_s_s+0x3a>
    3a25:	48 8b 45 f8          	mov    -0x8(%rbp),%rax
    3a29:	48 99                	cqto   
    3a2b:	48 f7 7d f0          	idivq  -0x10(%rbp)
    3a2f:	eb 04                	jmp    3a35 <safe_div_func_int64_t_s_s+0x3e>
    3a31:	48 8b 45 f8          	mov    -0x8(%rbp),%rax
    3a35:	5d                   	pop    %rbp
    3a36:	c3                   	retq   

0000000000003a37 <safe_lshift_func_int64_t_s_s>:
    3a37:	f3 0f 1e fa          	endbr64 
    3a3b:	55                   	push   %rbp
    3a3c:	48 89 e5             	mov    %rsp,%rbp
    3a3f:	48 89 7d f8          	mov    %rdi,-0x8(%rbp)
    3a43:	89 75 f4             	mov    %esi,-0xc(%rbp)
    3a46:	48 83 7d f8 00       	cmpq   $0x0,-0x8(%rbp)
    3a4b:	78 38                	js     3a85 <safe_lshift_func_int64_t_s_s+0x4e>
    3a4d:	83 7d f4 00          	cmpl   $0x0,-0xc(%rbp)
    3a51:	78 32                	js     3a85 <safe_lshift_func_int64_t_s_s+0x4e>
    3a53:	83 7d f4 1f          	cmpl   $0x1f,-0xc(%rbp)
    3a57:	7f 2c                	jg     3a85 <safe_lshift_func_int64_t_s_s+0x4e>
    3a59:	8b 45 f4             	mov    -0xc(%rbp),%eax
    3a5c:	48 ba ff ff ff ff ff 	movabs $0x7fffffffffffffff,%rdx
    3a63:	ff ff 7f 
    3a66:	89 c1                	mov    %eax,%ecx
    3a68:	48 d3 fa             	sar    %cl,%rdx
    3a6b:	48 89 d0             	mov    %rdx,%rax
    3a6e:	48 39 45 f8          	cmp    %rax,-0x8(%rbp)
    3a72:	7f 11                	jg     3a85 <safe_lshift_func_int64_t_s_s+0x4e>
    3a74:	8b 45 f4             	mov    -0xc(%rbp),%eax
    3a77:	48 8b 55 f8          	mov    -0x8(%rbp),%rdx
    3a7b:	89 c1                	mov    %eax,%ecx
    3a7d:	48 d3 e2             	shl    %cl,%rdx
    3a80:	48 89 d0             	mov    %rdx,%rax
    3a83:	eb 04                	jmp    3a89 <safe_lshift_func_int64_t_s_s+0x52>
    3a85:	48 8b 45 f8          	mov    -0x8(%rbp),%rax
    3a89:	5d                   	pop    %rbp
    3a8a:	c3                   	retq   

0000000000003a8b <safe_lshift_func_int64_t_s_u>:
    3a8b:	f3 0f 1e fa          	endbr64 
    3a8f:	55                   	push   %rbp
    3a90:	48 89 e5             	mov    %rsp,%rbp
    3a93:	48 89 7d f8          	mov    %rdi,-0x8(%rbp)
    3a97:	89 75 f4             	mov    %esi,-0xc(%rbp)
    3a9a:	48 83 7d f8 00       	cmpq   $0x0,-0x8(%rbp)
    3a9f:	78 32                	js     3ad3 <safe_lshift_func_int64_t_s_u+0x48>
    3aa1:	83 7d f4 1f          	cmpl   $0x1f,-0xc(%rbp)
    3aa5:	77 2c                	ja     3ad3 <safe_lshift_func_int64_t_s_u+0x48>
    3aa7:	8b 45 f4             	mov    -0xc(%rbp),%eax
    3aaa:	48 ba ff ff ff ff ff 	movabs $0x7fffffffffffffff,%rdx
    3ab1:	ff ff 7f 
    3ab4:	89 c1                	mov    %eax,%ecx
    3ab6:	48 d3 fa             	sar    %cl,%rdx
    3ab9:	48 89 d0             	mov    %rdx,%rax
    3abc:	48 39 45 f8          	cmp    %rax,-0x8(%rbp)
    3ac0:	7f 11                	jg     3ad3 <safe_lshift_func_int64_t_s_u+0x48>
    3ac2:	8b 45 f4             	mov    -0xc(%rbp),%eax
    3ac5:	48 8b 55 f8          	mov    -0x8(%rbp),%rdx
    3ac9:	89 c1                	mov    %eax,%ecx
    3acb:	48 d3 e2             	shl    %cl,%rdx
    3ace:	48 89 d0             	mov    %rdx,%rax
    3ad1:	eb 04                	jmp    3ad7 <safe_lshift_func_int64_t_s_u+0x4c>
    3ad3:	48 8b 45 f8          	mov    -0x8(%rbp),%rax
    3ad7:	5d                   	pop    %rbp
    3ad8:	c3                   	retq   

0000000000003ad9 <safe_rshift_func_int64_t_s_s>:
    3ad9:	f3 0f 1e fa          	endbr64 
    3add:	55                   	push   %rbp
    3ade:	48 89 e5             	mov    %rsp,%rbp
    3ae1:	48 89 7d f8          	mov    %rdi,-0x8(%rbp)
    3ae5:	89 75 f4             	mov    %esi,-0xc(%rbp)
    3ae8:	48 83 7d f8 00       	cmpq   $0x0,-0x8(%rbp)
    3aed:	78 1d                	js     3b0c <safe_rshift_func_int64_t_s_s+0x33>
    3aef:	83 7d f4 00          	cmpl   $0x0,-0xc(%rbp)
    3af3:	78 17                	js     3b0c <safe_rshift_func_int64_t_s_s+0x33>
    3af5:	83 7d f4 1f          	cmpl   $0x1f,-0xc(%rbp)
    3af9:	7f 11                	jg     3b0c <safe_rshift_func_int64_t_s_s+0x33>
    3afb:	8b 45 f4             	mov    -0xc(%rbp),%eax
    3afe:	48 8b 55 f8          	mov    -0x8(%rbp),%rdx
    3b02:	89 c1                	mov    %eax,%ecx
    3b04:	48 d3 fa             	sar    %cl,%rdx
    3b07:	48 89 d0             	mov    %rdx,%rax
    3b0a:	eb 04                	jmp    3b10 <safe_rshift_func_int64_t_s_s+0x37>
    3b0c:	48 8b 45 f8          	mov    -0x8(%rbp),%rax
    3b10:	5d                   	pop    %rbp
    3b11:	c3                   	retq   

0000000000003b12 <safe_rshift_func_int64_t_s_u>:
    3b12:	f3 0f 1e fa          	endbr64 
    3b16:	55                   	push   %rbp
    3b17:	48 89 e5             	mov    %rsp,%rbp
    3b1a:	48 89 7d f8          	mov    %rdi,-0x8(%rbp)
    3b1e:	89 75 f4             	mov    %esi,-0xc(%rbp)
    3b21:	48 83 7d f8 00       	cmpq   $0x0,-0x8(%rbp)
    3b26:	78 17                	js     3b3f <safe_rshift_func_int64_t_s_u+0x2d>
    3b28:	83 7d f4 1f          	cmpl   $0x1f,-0xc(%rbp)
    3b2c:	77 11                	ja     3b3f <safe_rshift_func_int64_t_s_u+0x2d>
    3b2e:	8b 45 f4             	mov    -0xc(%rbp),%eax
    3b31:	48 8b 55 f8          	mov    -0x8(%rbp),%rdx
    3b35:	89 c1                	mov    %eax,%ecx
    3b37:	48 d3 fa             	sar    %cl,%rdx
    3b3a:	48 89 d0             	mov    %rdx,%rax
    3b3d:	eb 04                	jmp    3b43 <safe_rshift_func_int64_t_s_u+0x31>
    3b3f:	48 8b 45 f8          	mov    -0x8(%rbp),%rax
    3b43:	5d                   	pop    %rbp
    3b44:	c3                   	retq   

0000000000003b45 <safe_unary_minus_func_uint8_t_u>:
    3b45:	f3 0f 1e fa          	endbr64 
    3b49:	55                   	push   %rbp
    3b4a:	48 89 e5             	mov    %rsp,%rbp
    3b4d:	89 f8                	mov    %edi,%eax
    3b4f:	88 45 fc             	mov    %al,-0x4(%rbp)
    3b52:	0f b6 45 fc          	movzbl -0x4(%rbp),%eax
    3b56:	f7 d8                	neg    %eax
    3b58:	5d                   	pop    %rbp
    3b59:	c3                   	retq   

0000000000003b5a <safe_add_func_uint8_t_u_u>:
    3b5a:	f3 0f 1e fa          	endbr64 
    3b5e:	55                   	push   %rbp
    3b5f:	48 89 e5             	mov    %rsp,%rbp
    3b62:	89 fa                	mov    %edi,%edx
    3b64:	89 f0                	mov    %esi,%eax
    3b66:	88 55 fc             	mov    %dl,-0x4(%rbp)
    3b69:	88 45 f8             	mov    %al,-0x8(%rbp)
    3b6c:	0f b6 55 fc          	movzbl -0x4(%rbp),%edx
    3b70:	0f b6 45 f8          	movzbl -0x8(%rbp),%eax
    3b74:	01 d0                	add    %edx,%eax
    3b76:	5d                   	pop    %rbp
    3b77:	c3                   	retq   

0000000000003b78 <safe_sub_func_uint8_t_u_u>:
    3b78:	f3 0f 1e fa          	endbr64 
    3b7c:	55                   	push   %rbp
    3b7d:	48 89 e5             	mov    %rsp,%rbp
    3b80:	89 fa                	mov    %edi,%edx
    3b82:	89 f0                	mov    %esi,%eax
    3b84:	88 55 fc             	mov    %dl,-0x4(%rbp)
    3b87:	88 45 f8             	mov    %al,-0x8(%rbp)
    3b8a:	0f b6 45 fc          	movzbl -0x4(%rbp),%eax
    3b8e:	2a 45 f8             	sub    -0x8(%rbp),%al
    3b91:	5d                   	pop    %rbp
    3b92:	c3                   	retq   

0000000000003b93 <safe_mul_func_uint8_t_u_u>:
    3b93:	f3 0f 1e fa          	endbr64 
    3b97:	55                   	push   %rbp
    3b98:	48 89 e5             	mov    %rsp,%rbp
    3b9b:	89 fa                	mov    %edi,%edx
    3b9d:	89 f0                	mov    %esi,%eax
    3b9f:	88 55 fc             	mov    %dl,-0x4(%rbp)
    3ba2:	88 45 f8             	mov    %al,-0x8(%rbp)
    3ba5:	0f b6 45 fc          	movzbl -0x4(%rbp),%eax
    3ba9:	f6 65 f8             	mulb   -0x8(%rbp)
    3bac:	5d                   	pop    %rbp
    3bad:	c3                   	retq   

0000000000003bae <safe_mod_func_uint8_t_u_u>:
    3bae:	f3 0f 1e fa          	endbr64 
    3bb2:	55                   	push   %rbp
    3bb3:	48 89 e5             	mov    %rsp,%rbp
    3bb6:	89 fa                	mov    %edi,%edx
    3bb8:	89 f0                	mov    %esi,%eax
    3bba:	88 55 fc             	mov    %dl,-0x4(%rbp)
    3bbd:	88 45 f8             	mov    %al,-0x8(%rbp)
    3bc0:	80 7d f8 00          	cmpb   $0x0,-0x8(%rbp)
    3bc4:	74 0f                	je     3bd5 <safe_mod_func_uint8_t_u_u+0x27>
    3bc6:	0f b6 45 fc          	movzbl -0x4(%rbp),%eax
    3bca:	0f b6 c0             	movzbl %al,%eax
    3bcd:	f6 75 f8             	divb   -0x8(%rbp)
    3bd0:	0f b6 c4             	movzbl %ah,%eax
    3bd3:	eb 04                	jmp    3bd9 <safe_mod_func_uint8_t_u_u+0x2b>
    3bd5:	0f b6 45 fc          	movzbl -0x4(%rbp),%eax
    3bd9:	5d                   	pop    %rbp
    3bda:	c3                   	retq   

0000000000003bdb <safe_div_func_uint8_t_u_u>:
    3bdb:	f3 0f 1e fa          	endbr64 
    3bdf:	55                   	push   %rbp
    3be0:	48 89 e5             	mov    %rsp,%rbp
    3be3:	89 fa                	mov    %edi,%edx
    3be5:	89 f0                	mov    %esi,%eax
    3be7:	88 55 fc             	mov    %dl,-0x4(%rbp)
    3bea:	88 45 f8             	mov    %al,-0x8(%rbp)
    3bed:	80 7d f8 00          	cmpb   $0x0,-0x8(%rbp)
    3bf1:	74 0c                	je     3bff <safe_div_func_uint8_t_u_u+0x24>
    3bf3:	0f b6 45 fc          	movzbl -0x4(%rbp),%eax
    3bf7:	0f b6 c0             	movzbl %al,%eax
    3bfa:	f6 75 f8             	divb   -0x8(%rbp)
    3bfd:	eb 04                	jmp    3c03 <safe_div_func_uint8_t_u_u+0x28>
    3bff:	0f b6 45 fc          	movzbl -0x4(%rbp),%eax
    3c03:	5d                   	pop    %rbp
    3c04:	c3                   	retq   

0000000000003c05 <safe_lshift_func_uint8_t_u_s>:
    3c05:	f3 0f 1e fa          	endbr64 
    3c09:	55                   	push   %rbp
    3c0a:	48 89 e5             	mov    %rsp,%rbp
    3c0d:	89 f8                	mov    %edi,%eax
    3c0f:	89 75 f8             	mov    %esi,-0x8(%rbp)
    3c12:	88 45 fc             	mov    %al,-0x4(%rbp)
    3c15:	83 7d f8 00          	cmpl   $0x0,-0x8(%rbp)
    3c19:	78 2b                	js     3c46 <safe_lshift_func_uint8_t_u_s+0x41>
    3c1b:	83 7d f8 1f          	cmpl   $0x1f,-0x8(%rbp)
    3c1f:	7f 25                	jg     3c46 <safe_lshift_func_uint8_t_u_s+0x41>
    3c21:	0f b6 55 fc          	movzbl -0x4(%rbp),%edx
    3c25:	8b 45 f8             	mov    -0x8(%rbp),%eax
    3c28:	be ff 00 00 00       	mov    $0xff,%esi
    3c2d:	89 c1                	mov    %eax,%ecx
    3c2f:	d3 fe                	sar    %cl,%esi
    3c31:	89 f0                	mov    %esi,%eax
    3c33:	39 c2                	cmp    %eax,%edx
    3c35:	7f 0f                	jg     3c46 <safe_lshift_func_uint8_t_u_s+0x41>
    3c37:	0f b6 55 fc          	movzbl -0x4(%rbp),%edx
    3c3b:	8b 45 f8             	mov    -0x8(%rbp),%eax
    3c3e:	89 c1                	mov    %eax,%ecx
    3c40:	d3 e2                	shl    %cl,%edx
    3c42:	89 d0                	mov    %edx,%eax
    3c44:	eb 04                	jmp    3c4a <safe_lshift_func_uint8_t_u_s+0x45>
    3c46:	0f b6 45 fc          	movzbl -0x4(%rbp),%eax
    3c4a:	5d                   	pop    %rbp
    3c4b:	c3                   	retq   

0000000000003c4c <safe_lshift_func_uint8_t_u_u>:
    3c4c:	f3 0f 1e fa          	endbr64 
    3c50:	55                   	push   %rbp
    3c51:	48 89 e5             	mov    %rsp,%rbp
    3c54:	89 f8                	mov    %edi,%eax
    3c56:	89 75 f8             	mov    %esi,-0x8(%rbp)
    3c59:	88 45 fc             	mov    %al,-0x4(%rbp)
    3c5c:	83 7d f8 1f          	cmpl   $0x1f,-0x8(%rbp)
    3c60:	77 25                	ja     3c87 <safe_lshift_func_uint8_t_u_u+0x3b>
    3c62:	0f b6 55 fc          	movzbl -0x4(%rbp),%edx
    3c66:	8b 45 f8             	mov    -0x8(%rbp),%eax
    3c69:	be ff 00 00 00       	mov    $0xff,%esi
    3c6e:	89 c1                	mov    %eax,%ecx
    3c70:	d3 fe                	sar    %cl,%esi
    3c72:	89 f0                	mov    %esi,%eax
    3c74:	39 c2                	cmp    %eax,%edx
    3c76:	7f 0f                	jg     3c87 <safe_lshift_func_uint8_t_u_u+0x3b>
    3c78:	0f b6 55 fc          	movzbl -0x4(%rbp),%edx
    3c7c:	8b 45 f8             	mov    -0x8(%rbp),%eax
    3c7f:	89 c1                	mov    %eax,%ecx
    3c81:	d3 e2                	shl    %cl,%edx
    3c83:	89 d0                	mov    %edx,%eax
    3c85:	eb 04                	jmp    3c8b <safe_lshift_func_uint8_t_u_u+0x3f>
    3c87:	0f b6 45 fc          	movzbl -0x4(%rbp),%eax
    3c8b:	5d                   	pop    %rbp
    3c8c:	c3                   	retq   

0000000000003c8d <safe_rshift_func_uint8_t_u_s>:
    3c8d:	f3 0f 1e fa          	endbr64 
    3c91:	55                   	push   %rbp
    3c92:	48 89 e5             	mov    %rsp,%rbp
    3c95:	89 f8                	mov    %edi,%eax
    3c97:	89 75 f8             	mov    %esi,-0x8(%rbp)
    3c9a:	88 45 fc             	mov    %al,-0x4(%rbp)
    3c9d:	83 7d f8 00          	cmpl   $0x0,-0x8(%rbp)
    3ca1:	78 15                	js     3cb8 <safe_rshift_func_uint8_t_u_s+0x2b>
    3ca3:	83 7d f8 1f          	cmpl   $0x1f,-0x8(%rbp)
    3ca7:	7f 0f                	jg     3cb8 <safe_rshift_func_uint8_t_u_s+0x2b>
    3ca9:	0f b6 55 fc          	movzbl -0x4(%rbp),%edx
    3cad:	8b 45 f8             	mov    -0x8(%rbp),%eax
    3cb0:	89 c1                	mov    %eax,%ecx
    3cb2:	d3 fa                	sar    %cl,%edx
    3cb4:	89 d0                	mov    %edx,%eax
    3cb6:	eb 04                	jmp    3cbc <safe_rshift_func_uint8_t_u_s+0x2f>
    3cb8:	0f b6 45 fc          	movzbl -0x4(%rbp),%eax
    3cbc:	5d                   	pop    %rbp
    3cbd:	c3                   	retq   

0000000000003cbe <safe_rshift_func_uint8_t_u_u>:
    3cbe:	f3 0f 1e fa          	endbr64 
    3cc2:	55                   	push   %rbp
    3cc3:	48 89 e5             	mov    %rsp,%rbp
    3cc6:	89 f8                	mov    %edi,%eax
    3cc8:	89 75 f8             	mov    %esi,-0x8(%rbp)
    3ccb:	88 45 fc             	mov    %al,-0x4(%rbp)
    3cce:	83 7d f8 1f          	cmpl   $0x1f,-0x8(%rbp)
    3cd2:	77 0f                	ja     3ce3 <safe_rshift_func_uint8_t_u_u+0x25>
    3cd4:	0f b6 55 fc          	movzbl -0x4(%rbp),%edx
    3cd8:	8b 45 f8             	mov    -0x8(%rbp),%eax
    3cdb:	89 c1                	mov    %eax,%ecx
    3cdd:	d3 fa                	sar    %cl,%edx
    3cdf:	89 d0                	mov    %edx,%eax
    3ce1:	eb 04                	jmp    3ce7 <safe_rshift_func_uint8_t_u_u+0x29>
    3ce3:	0f b6 45 fc          	movzbl -0x4(%rbp),%eax
    3ce7:	5d                   	pop    %rbp
    3ce8:	c3                   	retq   

0000000000003ce9 <safe_unary_minus_func_uint16_t_u>:
    3ce9:	f3 0f 1e fa          	endbr64 
    3ced:	55                   	push   %rbp
    3cee:	48 89 e5             	mov    %rsp,%rbp
    3cf1:	89 f8                	mov    %edi,%eax
    3cf3:	66 89 45 fc          	mov    %ax,-0x4(%rbp)
    3cf7:	0f b7 45 fc          	movzwl -0x4(%rbp),%eax
    3cfb:	f7 d8                	neg    %eax
    3cfd:	5d                   	pop    %rbp
    3cfe:	c3                   	retq   

0000000000003cff <safe_add_func_uint16_t_u_u>:
    3cff:	f3 0f 1e fa          	endbr64 
    3d03:	55                   	push   %rbp
    3d04:	48 89 e5             	mov    %rsp,%rbp
    3d07:	89 fa                	mov    %edi,%edx
    3d09:	89 f0                	mov    %esi,%eax
    3d0b:	66 89 55 fc          	mov    %dx,-0x4(%rbp)
    3d0f:	66 89 45 f8          	mov    %ax,-0x8(%rbp)
    3d13:	0f b7 55 fc          	movzwl -0x4(%rbp),%edx
    3d17:	0f b7 45 f8          	movzwl -0x8(%rbp),%eax
    3d1b:	01 d0                	add    %edx,%eax
    3d1d:	5d                   	pop    %rbp
    3d1e:	c3                   	retq   

0000000000003d1f <safe_sub_func_uint16_t_u_u>:
    3d1f:	f3 0f 1e fa          	endbr64 
    3d23:	55                   	push   %rbp
    3d24:	48 89 e5             	mov    %rsp,%rbp
    3d27:	89 fa                	mov    %edi,%edx
    3d29:	89 f0                	mov    %esi,%eax
    3d2b:	66 89 55 fc          	mov    %dx,-0x4(%rbp)
    3d2f:	66 89 45 f8          	mov    %ax,-0x8(%rbp)
    3d33:	0f b7 45 fc          	movzwl -0x4(%rbp),%eax
    3d37:	66 2b 45 f8          	sub    -0x8(%rbp),%ax
    3d3b:	5d                   	pop    %rbp
    3d3c:	c3                   	retq   

0000000000003d3d <safe_mul_func_uint16_t_u_u>:
    3d3d:	f3 0f 1e fa          	endbr64 
    3d41:	55                   	push   %rbp
    3d42:	48 89 e5             	mov    %rsp,%rbp
    3d45:	89 fa                	mov    %edi,%edx
    3d47:	89 f0                	mov    %esi,%eax
    3d49:	66 89 55 fc          	mov    %dx,-0x4(%rbp)
    3d4d:	66 89 45 f8          	mov    %ax,-0x8(%rbp)
    3d51:	0f b7 45 fc          	movzwl -0x4(%rbp),%eax
    3d55:	66 0f af 45 f8       	imul   -0x8(%rbp),%ax
    3d5a:	5d                   	pop    %rbp
    3d5b:	c3                   	retq   

0000000000003d5c <safe_mod_func_uint16_t_u_u>:
    3d5c:	f3 0f 1e fa          	endbr64 
    3d60:	55                   	push   %rbp
    3d61:	48 89 e5             	mov    %rsp,%rbp
    3d64:	89 fa                	mov    %edi,%edx
    3d66:	89 f0                	mov    %esi,%eax
    3d68:	66 89 55 fc          	mov    %dx,-0x4(%rbp)
    3d6c:	66 89 45 f8          	mov    %ax,-0x8(%rbp)
    3d70:	66 83 7d f8 00       	cmpw   $0x0,-0x8(%rbp)
    3d75:	74 11                	je     3d88 <safe_mod_func_uint16_t_u_u+0x2c>
    3d77:	0f b7 45 fc          	movzwl -0x4(%rbp),%eax
    3d7b:	ba 00 00 00 00       	mov    $0x0,%edx
    3d80:	66 f7 75 f8          	divw   -0x8(%rbp)
    3d84:	89 d0                	mov    %edx,%eax
    3d86:	eb 04                	jmp    3d8c <safe_mod_func_uint16_t_u_u+0x30>
    3d88:	0f b7 45 fc          	movzwl -0x4(%rbp),%eax
    3d8c:	5d                   	pop    %rbp
    3d8d:	c3                   	retq   

0000000000003d8e <safe_div_func_uint16_t_u_u>:
    3d8e:	f3 0f 1e fa          	endbr64 
    3d92:	55                   	push   %rbp
    3d93:	48 89 e5             	mov    %rsp,%rbp
    3d96:	89 fa                	mov    %edi,%edx
    3d98:	89 f0                	mov    %esi,%eax
    3d9a:	66 89 55 fc          	mov    %dx,-0x4(%rbp)
    3d9e:	66 89 45 f8          	mov    %ax,-0x8(%rbp)
    3da2:	66 83 7d f8 00       	cmpw   $0x0,-0x8(%rbp)
    3da7:	74 0f                	je     3db8 <safe_div_func_uint16_t_u_u+0x2a>
    3da9:	0f b7 45 fc          	movzwl -0x4(%rbp),%eax
    3dad:	ba 00 00 00 00       	mov    $0x0,%edx
    3db2:	66 f7 75 f8          	divw   -0x8(%rbp)
    3db6:	eb 04                	jmp    3dbc <safe_div_func_uint16_t_u_u+0x2e>
    3db8:	0f b7 45 fc          	movzwl -0x4(%rbp),%eax
    3dbc:	5d                   	pop    %rbp
    3dbd:	c3                   	retq   

0000000000003dbe <safe_lshift_func_uint16_t_u_s>:
    3dbe:	f3 0f 1e fa          	endbr64 
    3dc2:	55                   	push   %rbp
    3dc3:	48 89 e5             	mov    %rsp,%rbp
    3dc6:	89 f8                	mov    %edi,%eax
    3dc8:	89 75 f8             	mov    %esi,-0x8(%rbp)
    3dcb:	66 89 45 fc          	mov    %ax,-0x4(%rbp)
    3dcf:	83 7d f8 00          	cmpl   $0x0,-0x8(%rbp)
    3dd3:	78 2b                	js     3e00 <safe_lshift_func_uint16_t_u_s+0x42>
    3dd5:	83 7d f8 1f          	cmpl   $0x1f,-0x8(%rbp)
    3dd9:	7f 25                	jg     3e00 <safe_lshift_func_uint16_t_u_s+0x42>
    3ddb:	0f b7 55 fc          	movzwl -0x4(%rbp),%edx
    3ddf:	8b 45 f8             	mov    -0x8(%rbp),%eax
    3de2:	be ff ff 00 00       	mov    $0xffff,%esi
    3de7:	89 c1                	mov    %eax,%ecx
    3de9:	d3 fe                	sar    %cl,%esi
    3deb:	89 f0                	mov    %esi,%eax
    3ded:	39 c2                	cmp    %eax,%edx
    3def:	7f 0f                	jg     3e00 <safe_lshift_func_uint16_t_u_s+0x42>
    3df1:	0f b7 55 fc          	movzwl -0x4(%rbp),%edx
    3df5:	8b 45 f8             	mov    -0x8(%rbp),%eax
    3df8:	89 c1                	mov    %eax,%ecx
    3dfa:	d3 e2                	shl    %cl,%edx
    3dfc:	89 d0                	mov    %edx,%eax
    3dfe:	eb 04                	jmp    3e04 <safe_lshift_func_uint16_t_u_s+0x46>
    3e00:	0f b7 45 fc          	movzwl -0x4(%rbp),%eax
    3e04:	5d                   	pop    %rbp
    3e05:	c3                   	retq   

0000000000003e06 <safe_lshift_func_uint16_t_u_u>:
    3e06:	f3 0f 1e fa          	endbr64 
    3e0a:	55                   	push   %rbp
    3e0b:	48 89 e5             	mov    %rsp,%rbp
    3e0e:	89 f8                	mov    %edi,%eax
    3e10:	89 75 f8             	mov    %esi,-0x8(%rbp)
    3e13:	66 89 45 fc          	mov    %ax,-0x4(%rbp)
    3e17:	83 7d f8 1f          	cmpl   $0x1f,-0x8(%rbp)
    3e1b:	77 25                	ja     3e42 <safe_lshift_func_uint16_t_u_u+0x3c>
    3e1d:	0f b7 55 fc          	movzwl -0x4(%rbp),%edx
    3e21:	8b 45 f8             	mov    -0x8(%rbp),%eax
    3e24:	be ff ff 00 00       	mov    $0xffff,%esi
    3e29:	89 c1                	mov    %eax,%ecx
    3e2b:	d3 fe                	sar    %cl,%esi
    3e2d:	89 f0                	mov    %esi,%eax
    3e2f:	39 c2                	cmp    %eax,%edx
    3e31:	7f 0f                	jg     3e42 <safe_lshift_func_uint16_t_u_u+0x3c>
    3e33:	0f b7 55 fc          	movzwl -0x4(%rbp),%edx
    3e37:	8b 45 f8             	mov    -0x8(%rbp),%eax
    3e3a:	89 c1                	mov    %eax,%ecx
    3e3c:	d3 e2                	shl    %cl,%edx
    3e3e:	89 d0                	mov    %edx,%eax
    3e40:	eb 04                	jmp    3e46 <safe_lshift_func_uint16_t_u_u+0x40>
    3e42:	0f b7 45 fc          	movzwl -0x4(%rbp),%eax
    3e46:	5d                   	pop    %rbp
    3e47:	c3                   	retq   

0000000000003e48 <safe_rshift_func_uint16_t_u_s>:
    3e48:	f3 0f 1e fa          	endbr64 
    3e4c:	55                   	push   %rbp
    3e4d:	48 89 e5             	mov    %rsp,%rbp
    3e50:	89 f8                	mov    %edi,%eax
    3e52:	89 75 f8             	mov    %esi,-0x8(%rbp)
    3e55:	66 89 45 fc          	mov    %ax,-0x4(%rbp)
    3e59:	83 7d f8 00          	cmpl   $0x0,-0x8(%rbp)
    3e5d:	78 15                	js     3e74 <safe_rshift_func_uint16_t_u_s+0x2c>
    3e5f:	83 7d f8 1f          	cmpl   $0x1f,-0x8(%rbp)
    3e63:	7f 0f                	jg     3e74 <safe_rshift_func_uint16_t_u_s+0x2c>
    3e65:	0f b7 55 fc          	movzwl -0x4(%rbp),%edx
    3e69:	8b 45 f8             	mov    -0x8(%rbp),%eax
    3e6c:	89 c1                	mov    %eax,%ecx
    3e6e:	d3 fa                	sar    %cl,%edx
    3e70:	89 d0                	mov    %edx,%eax
    3e72:	eb 04                	jmp    3e78 <safe_rshift_func_uint16_t_u_s+0x30>
    3e74:	0f b7 45 fc          	movzwl -0x4(%rbp),%eax
    3e78:	5d                   	pop    %rbp
    3e79:	c3                   	retq   

0000000000003e7a <safe_rshift_func_uint16_t_u_u>:
    3e7a:	f3 0f 1e fa          	endbr64 
    3e7e:	55                   	push   %rbp
    3e7f:	48 89 e5             	mov    %rsp,%rbp
    3e82:	89 f8                	mov    %edi,%eax
    3e84:	89 75 f8             	mov    %esi,-0x8(%rbp)
    3e87:	66 89 45 fc          	mov    %ax,-0x4(%rbp)
    3e8b:	83 7d f8 1f          	cmpl   $0x1f,-0x8(%rbp)
    3e8f:	77 0f                	ja     3ea0 <safe_rshift_func_uint16_t_u_u+0x26>
    3e91:	0f b7 55 fc          	movzwl -0x4(%rbp),%edx
    3e95:	8b 45 f8             	mov    -0x8(%rbp),%eax
    3e98:	89 c1                	mov    %eax,%ecx
    3e9a:	d3 fa                	sar    %cl,%edx
    3e9c:	89 d0                	mov    %edx,%eax
    3e9e:	eb 04                	jmp    3ea4 <safe_rshift_func_uint16_t_u_u+0x2a>
    3ea0:	0f b7 45 fc          	movzwl -0x4(%rbp),%eax
    3ea4:	5d                   	pop    %rbp
    3ea5:	c3                   	retq   

0000000000003ea6 <safe_unary_minus_func_uint32_t_u>:
    3ea6:	f3 0f 1e fa          	endbr64 
    3eaa:	55                   	push   %rbp
    3eab:	48 89 e5             	mov    %rsp,%rbp
    3eae:	89 7d fc             	mov    %edi,-0x4(%rbp)
    3eb1:	8b 45 fc             	mov    -0x4(%rbp),%eax
    3eb4:	f7 d8                	neg    %eax
    3eb6:	5d                   	pop    %rbp
    3eb7:	c3                   	retq   

0000000000003eb8 <safe_add_func_uint32_t_u_u>:
    3eb8:	f3 0f 1e fa          	endbr64 
    3ebc:	55                   	push   %rbp
    3ebd:	48 89 e5             	mov    %rsp,%rbp
    3ec0:	89 7d fc             	mov    %edi,-0x4(%rbp)
    3ec3:	89 75 f8             	mov    %esi,-0x8(%rbp)
    3ec6:	8b 55 fc             	mov    -0x4(%rbp),%edx
    3ec9:	8b 45 f8             	mov    -0x8(%rbp),%eax
    3ecc:	01 d0                	add    %edx,%eax
    3ece:	5d                   	pop    %rbp
    3ecf:	c3                   	retq   

0000000000003ed0 <safe_sub_func_uint32_t_u_u>:
    3ed0:	f3 0f 1e fa          	endbr64 
    3ed4:	55                   	push   %rbp
    3ed5:	48 89 e5             	mov    %rsp,%rbp
    3ed8:	89 7d fc             	mov    %edi,-0x4(%rbp)
    3edb:	89 75 f8             	mov    %esi,-0x8(%rbp)
    3ede:	8b 45 fc             	mov    -0x4(%rbp),%eax
    3ee1:	2b 45 f8             	sub    -0x8(%rbp),%eax
    3ee4:	5d                   	pop    %rbp
    3ee5:	c3                   	retq   

0000000000003ee6 <safe_mul_func_uint32_t_u_u>:
    3ee6:	f3 0f 1e fa          	endbr64 
    3eea:	55                   	push   %rbp
    3eeb:	48 89 e5             	mov    %rsp,%rbp
    3eee:	89 7d fc             	mov    %edi,-0x4(%rbp)
    3ef1:	89 75 f8             	mov    %esi,-0x8(%rbp)
    3ef4:	8b 45 fc             	mov    -0x4(%rbp),%eax
    3ef7:	0f af 45 f8          	imul   -0x8(%rbp),%eax
    3efb:	5d                   	pop    %rbp
    3efc:	c3                   	retq   

0000000000003efd <safe_mod_func_uint32_t_u_u>:
    3efd:	f3 0f 1e fa          	endbr64 
    3f01:	55                   	push   %rbp
    3f02:	48 89 e5             	mov    %rsp,%rbp
    3f05:	89 7d fc             	mov    %edi,-0x4(%rbp)
    3f08:	89 75 f8             	mov    %esi,-0x8(%rbp)
    3f0b:	83 7d f8 00          	cmpl   $0x0,-0x8(%rbp)
    3f0f:	74 0f                	je     3f20 <safe_mod_func_uint32_t_u_u+0x23>
    3f11:	8b 45 fc             	mov    -0x4(%rbp),%eax
    3f14:	ba 00 00 00 00       	mov    $0x0,%edx
    3f19:	f7 75 f8             	divl   -0x8(%rbp)
    3f1c:	89 d0                	mov    %edx,%eax
    3f1e:	eb 03                	jmp    3f23 <safe_mod_func_uint32_t_u_u+0x26>
    3f20:	8b 45 fc             	mov    -0x4(%rbp),%eax
    3f23:	5d                   	pop    %rbp
    3f24:	c3                   	retq   

0000000000003f25 <safe_div_func_uint32_t_u_u>:
    3f25:	f3 0f 1e fa          	endbr64 
    3f29:	55                   	push   %rbp
    3f2a:	48 89 e5             	mov    %rsp,%rbp
    3f2d:	89 7d fc             	mov    %edi,-0x4(%rbp)
    3f30:	89 75 f8             	mov    %esi,-0x8(%rbp)
    3f33:	83 7d f8 00          	cmpl   $0x0,-0x8(%rbp)
    3f37:	74 0d                	je     3f46 <safe_div_func_uint32_t_u_u+0x21>
    3f39:	8b 45 fc             	mov    -0x4(%rbp),%eax
    3f3c:	ba 00 00 00 00       	mov    $0x0,%edx
    3f41:	f7 75 f8             	divl   -0x8(%rbp)
    3f44:	eb 03                	jmp    3f49 <safe_div_func_uint32_t_u_u+0x24>
    3f46:	8b 45 fc             	mov    -0x4(%rbp),%eax
    3f49:	5d                   	pop    %rbp
    3f4a:	c3                   	retq   

0000000000003f4b <safe_lshift_func_uint32_t_u_s>:
    3f4b:	f3 0f 1e fa          	endbr64 
    3f4f:	55                   	push   %rbp
    3f50:	48 89 e5             	mov    %rsp,%rbp
    3f53:	89 7d fc             	mov    %edi,-0x4(%rbp)
    3f56:	89 75 f8             	mov    %esi,-0x8(%rbp)
    3f59:	83 7d f8 00          	cmpl   $0x0,-0x8(%rbp)
    3f5d:	78 27                	js     3f86 <safe_lshift_func_uint32_t_u_s+0x3b>
    3f5f:	83 7d f8 1f          	cmpl   $0x1f,-0x8(%rbp)
    3f63:	7f 21                	jg     3f86 <safe_lshift_func_uint32_t_u_s+0x3b>
    3f65:	8b 45 f8             	mov    -0x8(%rbp),%eax
    3f68:	ba ff ff ff ff       	mov    $0xffffffff,%edx
    3f6d:	89 c1                	mov    %eax,%ecx
    3f6f:	d3 ea                	shr    %cl,%edx
    3f71:	89 d0                	mov    %edx,%eax
    3f73:	39 45 fc             	cmp    %eax,-0x4(%rbp)
    3f76:	77 0e                	ja     3f86 <safe_lshift_func_uint32_t_u_s+0x3b>
    3f78:	8b 45 f8             	mov    -0x8(%rbp),%eax
    3f7b:	8b 55 fc             	mov    -0x4(%rbp),%edx
    3f7e:	89 c1                	mov    %eax,%ecx
    3f80:	d3 e2                	shl    %cl,%edx
    3f82:	89 d0                	mov    %edx,%eax
    3f84:	eb 03                	jmp    3f89 <safe_lshift_func_uint32_t_u_s+0x3e>
    3f86:	8b 45 fc             	mov    -0x4(%rbp),%eax
    3f89:	5d                   	pop    %rbp
    3f8a:	c3                   	retq   

0000000000003f8b <safe_lshift_func_uint32_t_u_u>:
    3f8b:	f3 0f 1e fa          	endbr64 
    3f8f:	55                   	push   %rbp
    3f90:	48 89 e5             	mov    %rsp,%rbp
    3f93:	89 7d fc             	mov    %edi,-0x4(%rbp)
    3f96:	89 75 f8             	mov    %esi,-0x8(%rbp)
    3f99:	83 7d f8 1f          	cmpl   $0x1f,-0x8(%rbp)
    3f9d:	77 21                	ja     3fc0 <safe_lshift_func_uint32_t_u_u+0x35>
    3f9f:	8b 45 f8             	mov    -0x8(%rbp),%eax
    3fa2:	ba ff ff ff ff       	mov    $0xffffffff,%edx
    3fa7:	89 c1                	mov    %eax,%ecx
    3fa9:	d3 ea                	shr    %cl,%edx
    3fab:	89 d0                	mov    %edx,%eax
    3fad:	39 45 fc             	cmp    %eax,-0x4(%rbp)
    3fb0:	77 0e                	ja     3fc0 <safe_lshift_func_uint32_t_u_u+0x35>
    3fb2:	8b 45 f8             	mov    -0x8(%rbp),%eax
    3fb5:	8b 55 fc             	mov    -0x4(%rbp),%edx
    3fb8:	89 c1                	mov    %eax,%ecx
    3fba:	d3 e2                	shl    %cl,%edx
    3fbc:	89 d0                	mov    %edx,%eax
    3fbe:	eb 03                	jmp    3fc3 <safe_lshift_func_uint32_t_u_u+0x38>
    3fc0:	8b 45 fc             	mov    -0x4(%rbp),%eax
    3fc3:	5d                   	pop    %rbp
    3fc4:	c3                   	retq   

0000000000003fc5 <safe_rshift_func_uint32_t_u_s>:
    3fc5:	f3 0f 1e fa          	endbr64 
    3fc9:	55                   	push   %rbp
    3fca:	48 89 e5             	mov    %rsp,%rbp
    3fcd:	89 7d fc             	mov    %edi,-0x4(%rbp)
    3fd0:	89 75 f8             	mov    %esi,-0x8(%rbp)
    3fd3:	83 7d f8 00          	cmpl   $0x0,-0x8(%rbp)
    3fd7:	78 14                	js     3fed <safe_rshift_func_uint32_t_u_s+0x28>
    3fd9:	83 7d f8 1f          	cmpl   $0x1f,-0x8(%rbp)
    3fdd:	7f 0e                	jg     3fed <safe_rshift_func_uint32_t_u_s+0x28>
    3fdf:	8b 45 f8             	mov    -0x8(%rbp),%eax
    3fe2:	8b 55 fc             	mov    -0x4(%rbp),%edx
    3fe5:	89 c1                	mov    %eax,%ecx
    3fe7:	d3 ea                	shr    %cl,%edx
    3fe9:	89 d0                	mov    %edx,%eax
    3feb:	eb 03                	jmp    3ff0 <safe_rshift_func_uint32_t_u_s+0x2b>
    3fed:	8b 45 fc             	mov    -0x4(%rbp),%eax
    3ff0:	5d                   	pop    %rbp
    3ff1:	c3                   	retq   

0000000000003ff2 <safe_rshift_func_uint32_t_u_u>:
    3ff2:	f3 0f 1e fa          	endbr64 
    3ff6:	55                   	push   %rbp
    3ff7:	48 89 e5             	mov    %rsp,%rbp
    3ffa:	89 7d fc             	mov    %edi,-0x4(%rbp)
    3ffd:	89 75 f8             	mov    %esi,-0x8(%rbp)
    4000:	83 7d f8 1f          	cmpl   $0x1f,-0x8(%rbp)
    4004:	77 0e                	ja     4014 <safe_rshift_func_uint32_t_u_u+0x22>
    4006:	8b 45 f8             	mov    -0x8(%rbp),%eax
    4009:	8b 55 fc             	mov    -0x4(%rbp),%edx
    400c:	89 c1                	mov    %eax,%ecx
    400e:	d3 ea                	shr    %cl,%edx
    4010:	89 d0                	mov    %edx,%eax
    4012:	eb 03                	jmp    4017 <safe_rshift_func_uint32_t_u_u+0x25>
    4014:	8b 45 fc             	mov    -0x4(%rbp),%eax
    4017:	5d                   	pop    %rbp
    4018:	c3                   	retq   

0000000000004019 <safe_unary_minus_func_uint64_t_u>:
    4019:	f3 0f 1e fa          	endbr64 
    401d:	55                   	push   %rbp
    401e:	48 89 e5             	mov    %rsp,%rbp
    4021:	48 89 7d f8          	mov    %rdi,-0x8(%rbp)
    4025:	48 8b 45 f8          	mov    -0x8(%rbp),%rax
    4029:	48 f7 d8             	neg    %rax
    402c:	5d                   	pop    %rbp
    402d:	c3                   	retq   

000000000000402e <safe_add_func_uint64_t_u_u>:
    402e:	f3 0f 1e fa          	endbr64 
    4032:	55                   	push   %rbp
    4033:	48 89 e5             	mov    %rsp,%rbp
    4036:	48 89 7d f8          	mov    %rdi,-0x8(%rbp)
    403a:	48 89 75 f0          	mov    %rsi,-0x10(%rbp)
    403e:	48 8b 55 f8          	mov    -0x8(%rbp),%rdx
    4042:	48 8b 45 f0          	mov    -0x10(%rbp),%rax
    4046:	48 01 d0             	add    %rdx,%rax
    4049:	5d                   	pop    %rbp
    404a:	c3                   	retq   

000000000000404b <safe_sub_func_uint64_t_u_u>:
    404b:	f3 0f 1e fa          	endbr64 
    404f:	55                   	push   %rbp
    4050:	48 89 e5             	mov    %rsp,%rbp
    4053:	48 89 7d f8          	mov    %rdi,-0x8(%rbp)
    4057:	48 89 75 f0          	mov    %rsi,-0x10(%rbp)
    405b:	48 8b 45 f8          	mov    -0x8(%rbp),%rax
    405f:	48 2b 45 f0          	sub    -0x10(%rbp),%rax
    4063:	5d                   	pop    %rbp
    4064:	c3                   	retq   

0000000000004065 <safe_mul_func_uint64_t_u_u>:
    4065:	f3 0f 1e fa          	endbr64 
    4069:	55                   	push   %rbp
    406a:	48 89 e5             	mov    %rsp,%rbp
    406d:	48 89 7d f8          	mov    %rdi,-0x8(%rbp)
    4071:	48 89 75 f0          	mov    %rsi,-0x10(%rbp)
    4075:	48 8b 45 f8          	mov    -0x8(%rbp),%rax
    4079:	48 0f af 45 f0       	imul   -0x10(%rbp),%rax
    407e:	5d                   	pop    %rbp
    407f:	c3                   	retq   

0000000000004080 <safe_mod_func_uint64_t_u_u>:
    4080:	f3 0f 1e fa          	endbr64 
    4084:	55                   	push   %rbp
    4085:	48 89 e5             	mov    %rsp,%rbp
    4088:	48 89 7d f8          	mov    %rdi,-0x8(%rbp)
    408c:	48 89 75 f0          	mov    %rsi,-0x10(%rbp)
    4090:	48 83 7d f0 00       	cmpq   $0x0,-0x10(%rbp)
    4095:	74 12                	je     40a9 <safe_mod_func_uint64_t_u_u+0x29>
    4097:	48 8b 45 f8          	mov    -0x8(%rbp),%rax
    409b:	ba 00 00 00 00       	mov    $0x0,%edx
    40a0:	48 f7 75 f0          	divq   -0x10(%rbp)
    40a4:	48 89 d0             	mov    %rdx,%rax
    40a7:	eb 04                	jmp    40ad <safe_mod_func_uint64_t_u_u+0x2d>
    40a9:	48 8b 45 f8          	mov    -0x8(%rbp),%rax
    40ad:	5d                   	pop    %rbp
    40ae:	c3                   	retq   

00000000000040af <safe_div_func_uint64_t_u_u>:
    40af:	f3 0f 1e fa          	endbr64 
    40b3:	55                   	push   %rbp
    40b4:	48 89 e5             	mov    %rsp,%rbp
    40b7:	48 89 7d f8          	mov    %rdi,-0x8(%rbp)
    40bb:	48 89 75 f0          	mov    %rsi,-0x10(%rbp)
    40bf:	48 83 7d f0 00       	cmpq   $0x0,-0x10(%rbp)
    40c4:	74 0f                	je     40d5 <safe_div_func_uint64_t_u_u+0x26>
    40c6:	48 8b 45 f8          	mov    -0x8(%rbp),%rax
    40ca:	ba 00 00 00 00       	mov    $0x0,%edx
    40cf:	48 f7 75 f0          	divq   -0x10(%rbp)
    40d3:	eb 04                	jmp    40d9 <safe_div_func_uint64_t_u_u+0x2a>
    40d5:	48 8b 45 f8          	mov    -0x8(%rbp),%rax
    40d9:	5d                   	pop    %rbp
    40da:	c3                   	retq   

00000000000040db <safe_lshift_func_uint64_t_u_s>:
    40db:	f3 0f 1e fa          	endbr64 
    40df:	55                   	push   %rbp
    40e0:	48 89 e5             	mov    %rsp,%rbp
    40e3:	48 89 7d f8          	mov    %rdi,-0x8(%rbp)
    40e7:	89 75 f4             	mov    %esi,-0xc(%rbp)
    40ea:	83 7d f4 00          	cmpl   $0x0,-0xc(%rbp)
    40ee:	78 2f                	js     411f <safe_lshift_func_uint64_t_u_s+0x44>
    40f0:	83 7d f4 1f          	cmpl   $0x1f,-0xc(%rbp)
    40f4:	7f 29                	jg     411f <safe_lshift_func_uint64_t_u_s+0x44>
    40f6:	8b 45 f4             	mov    -0xc(%rbp),%eax
    40f9:	48 c7 c2 ff ff ff ff 	mov    $0xffffffffffffffff,%rdx
    4100:	89 c1                	mov    %eax,%ecx
    4102:	48 d3 ea             	shr    %cl,%rdx
    4105:	48 89 d0             	mov    %rdx,%rax
    4108:	48 39 45 f8          	cmp    %rax,-0x8(%rbp)
    410c:	77 11                	ja     411f <safe_lshift_func_uint64_t_u_s+0x44>
    410e:	8b 45 f4             	mov    -0xc(%rbp),%eax
    4111:	48 8b 55 f8          	mov    -0x8(%rbp),%rdx
    4115:	89 c1                	mov    %eax,%ecx
    4117:	48 d3 e2             	shl    %cl,%rdx
    411a:	48 89 d0             	mov    %rdx,%rax
    411d:	eb 04                	jmp    4123 <safe_lshift_func_uint64_t_u_s+0x48>
    411f:	48 8b 45 f8          	mov    -0x8(%rbp),%rax
    4123:	5d                   	pop    %rbp
    4124:	c3                   	retq   

0000000000004125 <safe_lshift_func_uint64_t_u_u>:
    4125:	f3 0f 1e fa          	endbr64 
    4129:	55                   	push   %rbp
    412a:	48 89 e5             	mov    %rsp,%rbp
    412d:	48 89 7d f8          	mov    %rdi,-0x8(%rbp)
    4131:	89 75 f4             	mov    %esi,-0xc(%rbp)
    4134:	83 7d f4 1f          	cmpl   $0x1f,-0xc(%rbp)
    4138:	77 29                	ja     4163 <safe_lshift_func_uint64_t_u_u+0x3e>
    413a:	8b 45 f4             	mov    -0xc(%rbp),%eax
    413d:	48 c7 c2 ff ff ff ff 	mov    $0xffffffffffffffff,%rdx
    4144:	89 c1                	mov    %eax,%ecx
    4146:	48 d3 ea             	shr    %cl,%rdx
    4149:	48 89 d0             	mov    %rdx,%rax
    414c:	48 39 45 f8          	cmp    %rax,-0x8(%rbp)
    4150:	77 11                	ja     4163 <safe_lshift_func_uint64_t_u_u+0x3e>
    4152:	8b 45 f4             	mov    -0xc(%rbp),%eax
    4155:	48 8b 55 f8          	mov    -0x8(%rbp),%rdx
    4159:	89 c1                	mov    %eax,%ecx
    415b:	48 d3 e2             	shl    %cl,%rdx
    415e:	48 89 d0             	mov    %rdx,%rax
    4161:	eb 04                	jmp    4167 <safe_lshift_func_uint64_t_u_u+0x42>
    4163:	48 8b 45 f8          	mov    -0x8(%rbp),%rax
    4167:	5d                   	pop    %rbp
    4168:	c3                   	retq   

0000000000004169 <safe_rshift_func_uint64_t_u_s>:
    4169:	f3 0f 1e fa          	endbr64 
    416d:	55                   	push   %rbp
    416e:	48 89 e5             	mov    %rsp,%rbp
    4171:	48 89 7d f8          	mov    %rdi,-0x8(%rbp)
    4175:	89 75 f4             	mov    %esi,-0xc(%rbp)
    4178:	83 7d f4 00          	cmpl   $0x0,-0xc(%rbp)
    417c:	78 17                	js     4195 <safe_rshift_func_uint64_t_u_s+0x2c>
    417e:	83 7d f4 1f          	cmpl   $0x1f,-0xc(%rbp)
    4182:	7f 11                	jg     4195 <safe_rshift_func_uint64_t_u_s+0x2c>
    4184:	8b 45 f4             	mov    -0xc(%rbp),%eax
    4187:	48 8b 55 f8          	mov    -0x8(%rbp),%rdx
    418b:	89 c1                	mov    %eax,%ecx
    418d:	48 d3 ea             	shr    %cl,%rdx
    4190:	48 89 d0             	mov    %rdx,%rax
    4193:	eb 04                	jmp    4199 <safe_rshift_func_uint64_t_u_s+0x30>
    4195:	48 8b 45 f8          	mov    -0x8(%rbp),%rax
    4199:	5d                   	pop    %rbp
    419a:	c3                   	retq   

000000000000419b <safe_rshift_func_uint64_t_u_u>:
    419b:	f3 0f 1e fa          	endbr64 
    419f:	55                   	push   %rbp
    41a0:	48 89 e5             	mov    %rsp,%rbp
    41a3:	48 89 7d f8          	mov    %rdi,-0x8(%rbp)
    41a7:	89 75 f4             	mov    %esi,-0xc(%rbp)
    41aa:	83 7d f4 1f          	cmpl   $0x1f,-0xc(%rbp)
    41ae:	77 11                	ja     41c1 <safe_rshift_func_uint64_t_u_u+0x26>
    41b0:	8b 45 f4             	mov    -0xc(%rbp),%eax
    41b3:	48 8b 55 f8          	mov    -0x8(%rbp),%rdx
    41b7:	89 c1                	mov    %eax,%ecx
    41b9:	48 d3 ea             	shr    %cl,%rdx
    41bc:	48 89 d0             	mov    %rdx,%rax
    41bf:	eb 04                	jmp    41c5 <safe_rshift_func_uint64_t_u_u+0x2a>
    41c1:	48 8b 45 f8          	mov    -0x8(%rbp),%rax
    41c5:	5d                   	pop    %rbp
    41c6:	c3                   	retq   

00000000000041c7 <safe_add_func_float_f_f>:
    41c7:	f3 0f 1e fa          	endbr64 
    41cb:	55                   	push   %rbp
    41cc:	48 89 e5             	mov    %rsp,%rbp
    41cf:	f3 0f 11 45 fc       	movss  %xmm0,-0x4(%rbp)
    41d4:	f3 0f 11 4d f8       	movss  %xmm1,-0x8(%rbp)
    41d9:	f3 0f 10 4d fc       	movss  -0x4(%rbp),%xmm1
    41de:	f3 0f 10 05 3e e7 00 	movss  0xe73e(%rip),%xmm0        # 12924 <l_2294.4446+0x14>
    41e5:	00 
    41e6:	f3 0f 59 c8          	mulss  %xmm0,%xmm1
    41ea:	f3 0f 10 55 f8       	movss  -0x8(%rbp),%xmm2
    41ef:	f3 0f 10 05 2d e7 00 	movss  0xe72d(%rip),%xmm0        # 12924 <l_2294.4446+0x14>
    41f6:	00 
    41f7:	f3 0f 59 c2          	mulss  %xmm2,%xmm0
    41fb:	f3 0f 58 c1          	addss  %xmm1,%xmm0
    41ff:	f3 0f 10 0d 29 e7 00 	movss  0xe729(%rip),%xmm1        # 12930 <l_2294.4446+0x20>
    4206:	00 
    4207:	0f 54 c1             	andps  %xmm1,%xmm0
    420a:	0f 2f 05 2f e7 00 00 	comiss 0xe72f(%rip),%xmm0        # 12940 <l_2294.4446+0x30>
    4211:	76 07                	jbe    421a <safe_add_func_float_f_f+0x53>
    4213:	f3 0f 10 45 fc       	movss  -0x4(%rbp),%xmm0
    4218:	eb 0a                	jmp    4224 <safe_add_func_float_f_f+0x5d>
    421a:	f3 0f 10 45 fc       	movss  -0x4(%rbp),%xmm0
    421f:	f3 0f 58 45 f8       	addss  -0x8(%rbp),%xmm0
    4224:	5d                   	pop    %rbp
    4225:	c3                   	retq   

0000000000004226 <safe_sub_func_float_f_f>:
    4226:	f3 0f 1e fa          	endbr64 
    422a:	55                   	push   %rbp
    422b:	48 89 e5             	mov    %rsp,%rbp
    422e:	f3 0f 11 45 fc       	movss  %xmm0,-0x4(%rbp)
    4233:	f3 0f 11 4d f8       	movss  %xmm1,-0x8(%rbp)
    4238:	f3 0f 10 4d fc       	movss  -0x4(%rbp),%xmm1
    423d:	f3 0f 10 05 df e6 00 	movss  0xe6df(%rip),%xmm0        # 12924 <l_2294.4446+0x14>
    4244:	00 
    4245:	f3 0f 59 c1          	mulss  %xmm1,%xmm0
    4249:	f3 0f 10 55 f8       	movss  -0x8(%rbp),%xmm2
    424e:	f3 0f 10 0d ce e6 00 	movss  0xe6ce(%rip),%xmm1        # 12924 <l_2294.4446+0x14>
    4255:	00 
    4256:	f3 0f 59 ca          	mulss  %xmm2,%xmm1
    425a:	f3 0f 5c c1          	subss  %xmm1,%xmm0
    425e:	f3 0f 10 0d ca e6 00 	movss  0xe6ca(%rip),%xmm1        # 12930 <l_2294.4446+0x20>
    4265:	00 
    4266:	0f 54 c1             	andps  %xmm1,%xmm0
    4269:	0f 2f 05 d0 e6 00 00 	comiss 0xe6d0(%rip),%xmm0        # 12940 <l_2294.4446+0x30>
    4270:	76 07                	jbe    4279 <safe_sub_func_float_f_f+0x53>
    4272:	f3 0f 10 45 fc       	movss  -0x4(%rbp),%xmm0
    4277:	eb 0a                	jmp    4283 <safe_sub_func_float_f_f+0x5d>
    4279:	f3 0f 10 45 fc       	movss  -0x4(%rbp),%xmm0
    427e:	f3 0f 5c 45 f8       	subss  -0x8(%rbp),%xmm0
    4283:	5d                   	pop    %rbp
    4284:	c3                   	retq   

0000000000004285 <safe_mul_func_float_f_f>:
    4285:	f3 0f 1e fa          	endbr64 
    4289:	55                   	push   %rbp
    428a:	48 89 e5             	mov    %rsp,%rbp
    428d:	f3 0f 11 45 fc       	movss  %xmm0,-0x4(%rbp)
    4292:	f3 0f 11 4d f8       	movss  %xmm1,-0x8(%rbp)
    4297:	f3 0f 10 4d fc       	movss  -0x4(%rbp),%xmm1
    429c:	f3 0f 10 05 a0 e6 00 	movss  0xe6a0(%rip),%xmm0        # 12944 <l_2294.4446+0x34>
    42a3:	00 
    42a4:	f3 0f 59 c8          	mulss  %xmm0,%xmm1
    42a8:	f3 0f 10 55 f8       	movss  -0x8(%rbp),%xmm2
    42ad:	f3 0f 10 05 93 e6 00 	movss  0xe693(%rip),%xmm0        # 12948 <l_2294.4446+0x38>
    42b4:	00 
    42b5:	f3 0f 59 c2          	mulss  %xmm2,%xmm0
    42b9:	f3 0f 59 c1          	mulss  %xmm1,%xmm0
    42bd:	f3 0f 10 0d 6b e6 00 	movss  0xe66b(%rip),%xmm1        # 12930 <l_2294.4446+0x20>
    42c4:	00 
    42c5:	0f 54 c1             	andps  %xmm1,%xmm0
    42c8:	0f 2f 05 7d e6 00 00 	comiss 0xe67d(%rip),%xmm0        # 1294c <l_2294.4446+0x3c>
    42cf:	76 07                	jbe    42d8 <safe_mul_func_float_f_f+0x53>
    42d1:	f3 0f 10 45 fc       	movss  -0x4(%rbp),%xmm0
    42d6:	eb 0a                	jmp    42e2 <safe_mul_func_float_f_f+0x5d>
    42d8:	f3 0f 10 45 fc       	movss  -0x4(%rbp),%xmm0
    42dd:	f3 0f 59 45 f8       	mulss  -0x8(%rbp),%xmm0
    42e2:	5d                   	pop    %rbp
    42e3:	c3                   	retq   

00000000000042e4 <safe_div_func_float_f_f>:
    42e4:	f3 0f 1e fa          	endbr64 
    42e8:	55                   	push   %rbp
    42e9:	48 89 e5             	mov    %rsp,%rbp
    42ec:	f3 0f 11 45 fc       	movss  %xmm0,-0x4(%rbp)
    42f1:	f3 0f 11 4d f8       	movss  %xmm1,-0x8(%rbp)
    42f6:	f3 0f 10 45 f8       	movss  -0x8(%rbp),%xmm0
    42fb:	f3 0f 10 0d 2d e6 00 	movss  0xe62d(%rip),%xmm1        # 12930 <l_2294.4446+0x20>
    4302:	00 
    4303:	0f 54 c8             	andps  %xmm0,%xmm1
    4306:	f3 0f 10 05 42 e6 00 	movss  0xe642(%rip),%xmm0        # 12950 <l_2294.4446+0x40>
    430d:	00 
    430e:	0f 2f c1             	comiss %xmm1,%xmm0
    4311:	0f 97 c0             	seta   %al
    4314:	83 f0 01             	xor    $0x1,%eax
    4317:	84 c0                	test   %al,%al
    4319:	75 56                	jne    4371 <safe_div_func_float_f_f+0x8d>
    431b:	66 0f ef c0          	pxor   %xmm0,%xmm0
    431f:	0f 2e 45 f8          	ucomiss -0x8(%rbp),%xmm0
    4323:	7a 0a                	jp     432f <safe_div_func_float_f_f+0x4b>
    4325:	66 0f ef c0          	pxor   %xmm0,%xmm0
    4329:	0f 2e 45 f8          	ucomiss -0x8(%rbp),%xmm0
    432d:	74 4e                	je     437d <safe_div_func_float_f_f+0x99>
    432f:	f3 0f 10 4d fc       	movss  -0x4(%rbp),%xmm1
    4334:	f3 0f 10 05 18 e6 00 	movss  0xe618(%rip),%xmm0        # 12954 <l_2294.4446+0x44>
    433b:	00 
    433c:	f3 0f 59 c1          	mulss  %xmm1,%xmm0
    4340:	f3 0f 10 55 f8       	movss  -0x8(%rbp),%xmm2
    4345:	f3 0f 10 0d 0b e6 00 	movss  0xe60b(%rip),%xmm1        # 12958 <l_2294.4446+0x48>
    434c:	00 
    434d:	f3 0f 59 ca          	mulss  %xmm2,%xmm1
    4351:	f3 0f 5e c1          	divss  %xmm1,%xmm0
    4355:	f3 0f 10 0d d3 e5 00 	movss  0xe5d3(%rip),%xmm1        # 12930 <l_2294.4446+0x20>
    435c:	00 
    435d:	0f 54 c1             	andps  %xmm1,%xmm0
    4360:	0f 2f 05 f5 e5 00 00 	comiss 0xe5f5(%rip),%xmm0        # 1295c <l_2294.4446+0x4c>
    4367:	0f 97 c0             	seta   %al
    436a:	83 f0 01             	xor    $0x1,%eax
    436d:	84 c0                	test   %al,%al
    436f:	74 0c                	je     437d <safe_div_func_float_f_f+0x99>
    4371:	f3 0f 10 45 fc       	movss  -0x4(%rbp),%xmm0
    4376:	f3 0f 5e 45 f8       	divss  -0x8(%rbp),%xmm0
    437b:	eb 05                	jmp    4382 <safe_div_func_float_f_f+0x9e>
    437d:	f3 0f 10 45 fc       	movss  -0x4(%rbp),%xmm0
    4382:	5d                   	pop    %rbp
    4383:	c3                   	retq   

0000000000004384 <safe_add_func_double_f_f>:
    4384:	f3 0f 1e fa          	endbr64 
    4388:	55                   	push   %rbp
    4389:	48 89 e5             	mov    %rsp,%rbp
    438c:	f2 0f 11 45 f8       	movsd  %xmm0,-0x8(%rbp)
    4391:	f2 0f 11 4d f0       	movsd  %xmm1,-0x10(%rbp)
    4396:	f2 0f 10 4d f8       	movsd  -0x8(%rbp),%xmm1
    439b:	f2 0f 10 05 bd e5 00 	movsd  0xe5bd(%rip),%xmm0        # 12960 <l_2294.4446+0x50>
    43a2:	00 
    43a3:	f2 0f 59 c8          	mulsd  %xmm0,%xmm1
    43a7:	f2 0f 10 55 f0       	movsd  -0x10(%rbp),%xmm2
    43ac:	f2 0f 10 05 ac e5 00 	movsd  0xe5ac(%rip),%xmm0        # 12960 <l_2294.4446+0x50>
    43b3:	00 
    43b4:	f2 0f 59 c2          	mulsd  %xmm2,%xmm0
    43b8:	f2 0f 58 c1          	addsd  %xmm1,%xmm0
    43bc:	f3 0f 7e 0d ac e5 00 	movq   0xe5ac(%rip),%xmm1        # 12970 <l_2294.4446+0x60>
    43c3:	00 
    43c4:	66 0f 54 c1          	andpd  %xmm1,%xmm0
    43c8:	66 0f 2f 05 b0 e5 00 	comisd 0xe5b0(%rip),%xmm0        # 12980 <l_2294.4446+0x70>
    43cf:	00 
    43d0:	76 07                	jbe    43d9 <safe_add_func_double_f_f+0x55>
    43d2:	f2 0f 10 45 f8       	movsd  -0x8(%rbp),%xmm0
    43d7:	eb 0a                	jmp    43e3 <safe_add_func_double_f_f+0x5f>
    43d9:	f2 0f 10 45 f8       	movsd  -0x8(%rbp),%xmm0
    43de:	f2 0f 58 45 f0       	addsd  -0x10(%rbp),%xmm0
    43e3:	5d                   	pop    %rbp
    43e4:	c3                   	retq   

00000000000043e5 <safe_sub_func_double_f_f>:
    43e5:	f3 0f 1e fa          	endbr64 
    43e9:	55                   	push   %rbp
    43ea:	48 89 e5             	mov    %rsp,%rbp
    43ed:	f2 0f 11 45 f8       	movsd  %xmm0,-0x8(%rbp)
    43f2:	f2 0f 11 4d f0       	movsd  %xmm1,-0x10(%rbp)
    43f7:	f2 0f 10 4d f8       	movsd  -0x8(%rbp),%xmm1
    43fc:	f2 0f 10 05 5c e5 00 	movsd  0xe55c(%rip),%xmm0        # 12960 <l_2294.4446+0x50>
    4403:	00 
    4404:	f2 0f 59 c1          	mulsd  %xmm1,%xmm0
    4408:	f2 0f 10 55 f0       	movsd  -0x10(%rbp),%xmm2
    440d:	f2 0f 10 0d 4b e5 00 	movsd  0xe54b(%rip),%xmm1        # 12960 <l_2294.4446+0x50>
    4414:	00 
    4415:	f2 0f 59 ca          	mulsd  %xmm2,%xmm1
    4419:	f2 0f 5c c1          	subsd  %xmm1,%xmm0
    441d:	f3 0f 7e 0d 4b e5 00 	movq   0xe54b(%rip),%xmm1        # 12970 <l_2294.4446+0x60>
    4424:	00 
    4425:	66 0f 54 c1          	andpd  %xmm1,%xmm0
    4429:	66 0f 2f 05 4f e5 00 	comisd 0xe54f(%rip),%xmm0        # 12980 <l_2294.4446+0x70>
    4430:	00 
    4431:	76 07                	jbe    443a <safe_sub_func_double_f_f+0x55>
    4433:	f2 0f 10 45 f8       	movsd  -0x8(%rbp),%xmm0
    4438:	eb 0a                	jmp    4444 <safe_sub_func_double_f_f+0x5f>
    443a:	f2 0f 10 45 f8       	movsd  -0x8(%rbp),%xmm0
    443f:	f2 0f 5c 45 f0       	subsd  -0x10(%rbp),%xmm0
    4444:	5d                   	pop    %rbp
    4445:	c3                   	retq   

0000000000004446 <safe_mul_func_double_f_f>:
    4446:	f3 0f 1e fa          	endbr64 
    444a:	55                   	push   %rbp
    444b:	48 89 e5             	mov    %rsp,%rbp
    444e:	f2 0f 11 45 f8       	movsd  %xmm0,-0x8(%rbp)
    4453:	f2 0f 11 4d f0       	movsd  %xmm1,-0x10(%rbp)
    4458:	f2 0f 10 4d f8       	movsd  -0x8(%rbp),%xmm1
    445d:	f2 0f 10 05 23 e5 00 	movsd  0xe523(%rip),%xmm0        # 12988 <l_2294.4446+0x78>
    4464:	00 
    4465:	f2 0f 59 c8          	mulsd  %xmm0,%xmm1
    4469:	f2 0f 10 55 f0       	movsd  -0x10(%rbp),%xmm2
    446e:	f2 0f 10 05 1a e5 00 	movsd  0xe51a(%rip),%xmm0        # 12990 <l_2294.4446+0x80>
    4475:	00 
    4476:	f2 0f 59 c2          	mulsd  %xmm2,%xmm0
    447a:	f2 0f 59 c1          	mulsd  %xmm1,%xmm0
    447e:	f3 0f 7e 0d ea e4 00 	movq   0xe4ea(%rip),%xmm1        # 12970 <l_2294.4446+0x60>
    4485:	00 
    4486:	66 0f 54 c1          	andpd  %xmm1,%xmm0
    448a:	66 0f 2f 05 06 e5 00 	comisd 0xe506(%rip),%xmm0        # 12998 <l_2294.4446+0x88>
    4491:	00 
    4492:	76 07                	jbe    449b <safe_mul_func_double_f_f+0x55>
    4494:	f2 0f 10 45 f8       	movsd  -0x8(%rbp),%xmm0
    4499:	eb 0a                	jmp    44a5 <safe_mul_func_double_f_f+0x5f>
    449b:	f2 0f 10 45 f8       	movsd  -0x8(%rbp),%xmm0
    44a0:	f2 0f 59 45 f0       	mulsd  -0x10(%rbp),%xmm0
    44a5:	5d                   	pop    %rbp
    44a6:	c3                   	retq   

00000000000044a7 <safe_div_func_double_f_f>:
    44a7:	f3 0f 1e fa          	endbr64 
    44ab:	55                   	push   %rbp
    44ac:	48 89 e5             	mov    %rsp,%rbp
    44af:	f2 0f 11 45 f8       	movsd  %xmm0,-0x8(%rbp)
    44b4:	f2 0f 11 4d f0       	movsd  %xmm1,-0x10(%rbp)
    44b9:	f2 0f 10 45 f0       	movsd  -0x10(%rbp),%xmm0
    44be:	f3 0f 7e 0d aa e4 00 	movq   0xe4aa(%rip),%xmm1        # 12970 <l_2294.4446+0x60>
    44c5:	00 
    44c6:	66 0f 54 c8          	andpd  %xmm0,%xmm1
    44ca:	f2 0f 10 05 ce e4 00 	movsd  0xe4ce(%rip),%xmm0        # 129a0 <l_2294.4446+0x90>
    44d1:	00 
    44d2:	66 0f 2f c1          	comisd %xmm1,%xmm0
    44d6:	0f 97 c0             	seta   %al
    44d9:	83 f0 01             	xor    $0x1,%eax
    44dc:	84 c0                	test   %al,%al
    44de:	75 5a                	jne    453a <safe_div_func_double_f_f+0x93>
    44e0:	66 0f ef c0          	pxor   %xmm0,%xmm0
    44e4:	66 0f 2e 45 f0       	ucomisd -0x10(%rbp),%xmm0
    44e9:	7a 0b                	jp     44f6 <safe_div_func_double_f_f+0x4f>
    44eb:	66 0f ef c0          	pxor   %xmm0,%xmm0
    44ef:	66 0f 2e 45 f0       	ucomisd -0x10(%rbp),%xmm0
    44f4:	74 50                	je     4546 <safe_div_func_double_f_f+0x9f>
    44f6:	f2 0f 10 4d f8       	movsd  -0x8(%rbp),%xmm1
    44fb:	f2 0f 10 05 a5 e4 00 	movsd  0xe4a5(%rip),%xmm0        # 129a8 <l_2294.4446+0x98>
    4502:	00 
    4503:	f2 0f 59 c1          	mulsd  %xmm1,%xmm0
    4507:	f2 0f 10 55 f0       	movsd  -0x10(%rbp),%xmm2
    450c:	f2 0f 10 0d 9c e4 00 	movsd  0xe49c(%rip),%xmm1        # 129b0 <l_2294.4446+0xa0>
    4513:	00 
    4514:	f2 0f 59 ca          	mulsd  %xmm2,%xmm1
    4518:	f2 0f 5e c1          	divsd  %xmm1,%xmm0
    451c:	f3 0f 7e 0d 4c e4 00 	movq   0xe44c(%rip),%xmm1        # 12970 <l_2294.4446+0x60>
    4523:	00 
    4524:	66 0f 54 c1          	andpd  %xmm1,%xmm0
    4528:	66 0f 2f 05 88 e4 00 	comisd 0xe488(%rip),%xmm0        # 129b8 <l_2294.4446+0xa8>
    452f:	00 
    4530:	0f 97 c0             	seta   %al
    4533:	83 f0 01             	xor    $0x1,%eax
    4536:	84 c0                	test   %al,%al
    4538:	74 0c                	je     4546 <safe_div_func_double_f_f+0x9f>
    453a:	f2 0f 10 45 f8       	movsd  -0x8(%rbp),%xmm0
    453f:	f2 0f 5e 45 f0       	divsd  -0x10(%rbp),%xmm0
    4544:	eb 05                	jmp    454b <safe_div_func_double_f_f+0xa4>
    4546:	f2 0f 10 45 f8       	movsd  -0x8(%rbp),%xmm0
    454b:	5d                   	pop    %rbp
    454c:	c3                   	retq   

000000000000454d <safe_convert_func_float_to_int32_t>:
    454d:	f3 0f 1e fa          	endbr64 
    4551:	55                   	push   %rbp
    4552:	48 89 e5             	mov    %rsp,%rbp
    4555:	f3 0f 11 45 fc       	movss  %xmm0,-0x4(%rbp)
    455a:	f3 0f 10 05 5e e4 00 	movss  0xe45e(%rip),%xmm0        # 129c0 <l_2294.4446+0xb0>
    4561:	00 
    4562:	0f 2f 45 fc          	comiss -0x4(%rbp),%xmm0
    4566:	0f 93 c0             	setae  %al
    4569:	83 f0 01             	xor    $0x1,%eax
    456c:	84 c0                	test   %al,%al
    456e:	74 21                	je     4591 <safe_convert_func_float_to_int32_t+0x44>
    4570:	f3 0f 10 45 fc       	movss  -0x4(%rbp),%xmm0
    4575:	0f 2f 05 48 e4 00 00 	comiss 0xe448(%rip),%xmm0        # 129c4 <l_2294.4446+0xb4>
    457c:	0f 93 c0             	setae  %al
    457f:	83 f0 01             	xor    $0x1,%eax
    4582:	84 c0                	test   %al,%al
    4584:	74 0b                	je     4591 <safe_convert_func_float_to_int32_t+0x44>
    4586:	f3 0f 10 45 fc       	movss  -0x4(%rbp),%xmm0
    458b:	f3 0f 2c c0          	cvttss2si %xmm0,%eax
    458f:	eb 05                	jmp    4596 <safe_convert_func_float_to_int32_t+0x49>
    4591:	b8 ff ff ff 7f       	mov    $0x7fffffff,%eax
    4596:	5d                   	pop    %rbp
    4597:	c3                   	retq   

0000000000004598 <crc32_gentab>:
    4598:	f3 0f 1e fa          	endbr64 
    459c:	55                   	push   %rbp
    459d:	48 89 e5             	mov    %rsp,%rbp
    45a0:	c7 45 fc 20 83 b8 ed 	movl   $0xedb88320,-0x4(%rbp)
    45a7:	c7 45 f4 00 00 00 00 	movl   $0x0,-0xc(%rbp)
    45ae:	eb 51                	jmp    4601 <crc32_gentab+0x69>
    45b0:	8b 45 f4             	mov    -0xc(%rbp),%eax
    45b3:	89 45 f0             	mov    %eax,-0x10(%rbp)
    45b6:	c7 45 f8 08 00 00 00 	movl   $0x8,-0x8(%rbp)
    45bd:	eb 1e                	jmp    45dd <crc32_gentab+0x45>
    45bf:	8b 45 f0             	mov    -0x10(%rbp),%eax
    45c2:	83 e0 01             	and    $0x1,%eax
    45c5:	85 c0                	test   %eax,%eax
    45c7:	74 0d                	je     45d6 <crc32_gentab+0x3e>
    45c9:	8b 45 f0             	mov    -0x10(%rbp),%eax
    45cc:	d1 e8                	shr    %eax
    45ce:	33 45 fc             	xor    -0x4(%rbp),%eax
    45d1:	89 45 f0             	mov    %eax,-0x10(%rbp)
    45d4:	eb 03                	jmp    45d9 <crc32_gentab+0x41>
    45d6:	d1 6d f0             	shrl   -0x10(%rbp)
    45d9:	83 6d f8 01          	subl   $0x1,-0x8(%rbp)
    45dd:	83 7d f8 00          	cmpl   $0x0,-0x8(%rbp)
    45e1:	7f dc                	jg     45bf <crc32_gentab+0x27>
    45e3:	8b 45 f4             	mov    -0xc(%rbp),%eax
    45e6:	48 98                	cltq   
    45e8:	48 8d 0c 85 00 00 00 	lea    0x0(,%rax,4),%rcx
    45ef:	00 
    45f0:	48 8d 15 a9 5c 01 00 	lea    0x15ca9(%rip),%rdx        # 1a2a0 <crc32_tab>
    45f7:	8b 45 f0             	mov    -0x10(%rbp),%eax
    45fa:	89 04 11             	mov    %eax,(%rcx,%rdx,1)
    45fd:	83 45 f4 01          	addl   $0x1,-0xc(%rbp)
    4601:	81 7d f4 ff 00 00 00 	cmpl   $0xff,-0xc(%rbp)
    4608:	7e a6                	jle    45b0 <crc32_gentab+0x18>
    460a:	90                   	nop
    460b:	90                   	nop
    460c:	5d                   	pop    %rbp
    460d:	c3                   	retq   

000000000000460e <crc32_byte>:
    460e:	f3 0f 1e fa          	endbr64 
    4612:	55                   	push   %rbp
    4613:	48 89 e5             	mov    %rsp,%rbp
    4616:	89 f8                	mov    %edi,%eax
    4618:	88 45 fc             	mov    %al,-0x4(%rbp)
    461b:	8b 05 ff 09 01 00    	mov    0x109ff(%rip),%eax        # 15020 <crc32_context>
    4621:	c1 e8 08             	shr    $0x8,%eax
    4624:	89 c1                	mov    %eax,%ecx
    4626:	0f b6 55 fc          	movzbl -0x4(%rbp),%edx
    462a:	8b 05 f0 09 01 00    	mov    0x109f0(%rip),%eax        # 15020 <crc32_context>
    4630:	31 d0                	xor    %edx,%eax
    4632:	0f b6 c0             	movzbl %al,%eax
    4635:	89 c0                	mov    %eax,%eax
    4637:	48 8d 14 85 00 00 00 	lea    0x0(,%rax,4),%rdx
    463e:	00 
    463f:	48 8d 05 5a 5c 01 00 	lea    0x15c5a(%rip),%rax        # 1a2a0 <crc32_tab>
    4646:	8b 04 02             	mov    (%rdx,%rax,1),%eax
    4649:	31 c8                	xor    %ecx,%eax
    464b:	89 05 cf 09 01 00    	mov    %eax,0x109cf(%rip)        # 15020 <crc32_context>
    4651:	90                   	nop
    4652:	5d                   	pop    %rbp
    4653:	c3                   	retq   

0000000000004654 <crc32_8bytes>:
    4654:	f3 0f 1e fa          	endbr64 
    4658:	55                   	push   %rbp
    4659:	48 89 e5             	mov    %rsp,%rbp
    465c:	48 83 ec 08          	sub    $0x8,%rsp
    4660:	48 89 7d f8          	mov    %rdi,-0x8(%rbp)
    4664:	48 8b 45 f8          	mov    -0x8(%rbp),%rax
    4668:	0f b6 c0             	movzbl %al,%eax
    466b:	89 c7                	mov    %eax,%edi
    466d:	e8 9c ff ff ff       	callq  460e <crc32_byte>
    4672:	48 8b 45 f8          	mov    -0x8(%rbp),%rax
    4676:	48 c1 e8 08          	shr    $0x8,%rax
    467a:	0f b6 c0             	movzbl %al,%eax
    467d:	89 c7                	mov    %eax,%edi
    467f:	e8 8a ff ff ff       	callq  460e <crc32_byte>
    4684:	48 8b 45 f8          	mov    -0x8(%rbp),%rax
    4688:	48 c1 e8 10          	shr    $0x10,%rax
    468c:	0f b6 c0             	movzbl %al,%eax
    468f:	89 c7                	mov    %eax,%edi
    4691:	e8 78 ff ff ff       	callq  460e <crc32_byte>
    4696:	48 8b 45 f8          	mov    -0x8(%rbp),%rax
    469a:	48 c1 e8 18          	shr    $0x18,%rax
    469e:	0f b6 c0             	movzbl %al,%eax
    46a1:	89 c7                	mov    %eax,%edi
    46a3:	e8 66 ff ff ff       	callq  460e <crc32_byte>
    46a8:	48 8b 45 f8          	mov    -0x8(%rbp),%rax
    46ac:	48 c1 e8 20          	shr    $0x20,%rax
    46b0:	0f b6 c0             	movzbl %al,%eax
    46b3:	89 c7                	mov    %eax,%edi
    46b5:	e8 54 ff ff ff       	callq  460e <crc32_byte>
    46ba:	48 8b 45 f8          	mov    -0x8(%rbp),%rax
    46be:	48 c1 e8 28          	shr    $0x28,%rax
    46c2:	0f b6 c0             	movzbl %al,%eax
    46c5:	89 c7                	mov    %eax,%edi
    46c7:	e8 42 ff ff ff       	callq  460e <crc32_byte>
    46cc:	48 8b 45 f8          	mov    -0x8(%rbp),%rax
    46d0:	48 c1 e8 30          	shr    $0x30,%rax
    46d4:	0f b6 c0             	movzbl %al,%eax
    46d7:	89 c7                	mov    %eax,%edi
    46d9:	e8 30 ff ff ff       	callq  460e <crc32_byte>
    46de:	48 8b 45 f8          	mov    -0x8(%rbp),%rax
    46e2:	48 c1 e8 38          	shr    $0x38,%rax
    46e6:	0f b6 c0             	movzbl %al,%eax
    46e9:	89 c7                	mov    %eax,%edi
    46eb:	e8 1e ff ff ff       	callq  460e <crc32_byte>
    46f0:	90                   	nop
    46f1:	c9                   	leaveq 
    46f2:	c3                   	retq   

00000000000046f3 <transparent_crc>:
    46f3:	f3 0f 1e fa          	endbr64 
    46f7:	55                   	push   %rbp
    46f8:	48 89 e5             	mov    %rsp,%rbp
    46fb:	48 83 ec 20          	sub    $0x20,%rsp
    46ff:	48 89 7d f8          	mov    %rdi,-0x8(%rbp)
    4703:	48 89 75 f0          	mov    %rsi,-0x10(%rbp)
    4707:	89 55 ec             	mov    %edx,-0x14(%rbp)
    470a:	48 8b 45 f8          	mov    -0x8(%rbp),%rax
    470e:	48 89 c7             	mov    %rax,%rdi
    4711:	e8 3e ff ff ff       	callq  4654 <crc32_8bytes>
    4716:	83 7d ec 00          	cmpl   $0x0,-0x14(%rbp)
    471a:	74 22                	je     473e <transparent_crc+0x4b>
    471c:	8b 05 fe 08 01 00    	mov    0x108fe(%rip),%eax        # 15020 <crc32_context>
    4722:	f7 d0                	not    %eax
    4724:	89 c2                	mov    %eax,%edx
    4726:	48 8b 45 f0          	mov    -0x10(%rbp),%rax
    472a:	48 89 c6             	mov    %rax,%rsi
    472d:	48 8d 3d fc c8 00 00 	lea    0xc8fc(%rip),%rdi        # 11030 <_IO_stdin_used+0x30>
    4734:	b8 00 00 00 00       	mov    $0x0,%eax
    4739:	e8 42 e9 ff ff       	callq  3080 <printf@plt>
    473e:	90                   	nop
    473f:	c9                   	leaveq 
    4740:	c3                   	retq   

0000000000004741 <transparent_crc_bytes>:
    4741:	f3 0f 1e fa          	endbr64 
    4745:	55                   	push   %rbp
    4746:	48 89 e5             	mov    %rsp,%rbp
    4749:	48 83 ec 30          	sub    $0x30,%rsp
    474d:	48 89 7d e8          	mov    %rdi,-0x18(%rbp)
    4751:	89 75 e4             	mov    %esi,-0x1c(%rbp)
    4754:	48 89 55 d8          	mov    %rdx,-0x28(%rbp)
    4758:	89 4d e0             	mov    %ecx,-0x20(%rbp)
    475b:	c7 45 fc 00 00 00 00 	movl   $0x0,-0x4(%rbp)
    4762:	eb 1e                	jmp    4782 <transparent_crc_bytes+0x41>
    4764:	8b 45 fc             	mov    -0x4(%rbp),%eax
    4767:	48 63 d0             	movslq %eax,%rdx
    476a:	48 8b 45 e8          	mov    -0x18(%rbp),%rax
    476e:	48 01 d0             	add    %rdx,%rax
    4771:	0f b6 00             	movzbl (%rax),%eax
    4774:	0f b6 c0             	movzbl %al,%eax
    4777:	89 c7                	mov    %eax,%edi
    4779:	e8 90 fe ff ff       	callq  460e <crc32_byte>
    477e:	83 45 fc 01          	addl   $0x1,-0x4(%rbp)
    4782:	8b 45 fc             	mov    -0x4(%rbp),%eax
    4785:	3b 45 e4             	cmp    -0x1c(%rbp),%eax
    4788:	7c da                	jl     4764 <transparent_crc_bytes+0x23>
    478a:	83 7d e0 00          	cmpl   $0x0,-0x20(%rbp)
    478e:	74 22                	je     47b2 <transparent_crc_bytes+0x71>
    4790:	8b 05 8a 08 01 00    	mov    0x1088a(%rip),%eax        # 15020 <crc32_context>
    4796:	f7 d0                	not    %eax
    4798:	89 c2                	mov    %eax,%edx
    479a:	48 8b 45 d8          	mov    -0x28(%rbp),%rax
    479e:	48 89 c6             	mov    %rax,%rsi
    47a1:	48 8d 3d 88 c8 00 00 	lea    0xc888(%rip),%rdi        # 11030 <_IO_stdin_used+0x30>
    47a8:	b8 00 00 00 00       	mov    $0x0,%eax
    47ad:	e8 ce e8 ff ff       	callq  3080 <printf@plt>
    47b2:	90                   	nop
    47b3:	c9                   	leaveq 
    47b4:	c3                   	retq   

00000000000047b5 <func_1>:
    47b5:	f3 0f 1e fa          	endbr64 
    47b9:	55                   	push   %rbp
    47ba:	48 89 e5             	mov    %rsp,%rbp
    47bd:	53                   	push   %rbx
    47be:	48 83 ec 58          	sub    $0x58,%rsp
    47c2:	64 48 8b 04 25 28 00 	mov    %fs:0x28,%rax
    47c9:	00 00 
    47cb:	48 89 45 e8          	mov    %rax,-0x18(%rbp)
    47cf:	31 c0                	xor    %eax,%eax
    47d1:	c7 45 c0 03 00 00 00 	movl   $0x3,-0x40(%rbp)
    47d8:	c7 45 c4 03 00 00 00 	movl   $0x3,-0x3c(%rbp)
    47df:	c7 45 c8 03 00 00 00 	movl   $0x3,-0x38(%rbp)
    47e6:	c7 45 cc 03 00 00 00 	movl   $0x3,-0x34(%rbp)
    47ed:	c7 45 d0 03 00 00 00 	movl   $0x3,-0x30(%rbp)
    47f4:	c7 45 d4 03 00 00 00 	movl   $0x3,-0x2c(%rbp)
    47fb:	c7 45 d8 03 00 00 00 	movl   $0x3,-0x28(%rbp)
    4802:	c7 45 dc 03 00 00 00 	movl   $0x3,-0x24(%rbp)
    4809:	c7 45 e0 03 00 00 00 	movl   $0x3,-0x20(%rbp)
    4810:	c7 45 e4 03 00 00 00 	movl   $0x3,-0x1c(%rbp)
    4817:	c6 45 ab 00          	movb   $0x0,-0x55(%rbp)
    481b:	48 8d 05 06 08 01 00 	lea    0x10806(%rip),%rax        # 15028 <g_11>
    4822:	48 89 45 b8          	mov    %rax,-0x48(%rbp)
    4826:	c7 45 ac 7f bd d5 8c 	movl   $0x8cd5bd7f,-0x54(%rbp)
    482d:	c7 45 b0 89 2b dc e0 	movl   $0xe0dc2b89,-0x50(%rbp)
    4834:	c7 45 b4 00 00 00 00 	movl   $0x0,-0x4c(%rbp)
    483b:	8b 45 ac             	mov    -0x54(%rbp),%eax
    483e:	0f b6 d8             	movzbl %al,%ebx
    4841:	48 8b 45 b8          	mov    -0x48(%rbp),%rax
    4845:	48 8b 00             	mov    (%rax),%rax
    4848:	48 8d 50 ff          	lea    -0x1(%rax),%rdx
    484c:	48 8b 45 b8          	mov    -0x48(%rbp),%rax
    4850:	48 89 10             	mov    %rdx,(%rax)
    4853:	48 8b 45 b8          	mov    -0x48(%rbp),%rax
    4857:	48 8b 00             	mov    (%rax),%rax
    485a:	48 85 c0             	test   %rax,%rax
    485d:	75 23                	jne    4882 <func_1+0xcd>
    485f:	be 00 00 00 00       	mov    $0x0,%esi
    4864:	bf 09 00 00 00       	mov    $0x9,%edi
    4869:	e8 97 ed ff ff       	callq  3605 <safe_sub_func_int32_t_s_s>
    486e:	f7 d0                	not    %eax
    4870:	48 63 d0             	movslq %eax,%rdx
    4873:	48 8b 05 72 44 01 00 	mov    0x14472(%rip),%rax        # 18cec <g_2234+0xc>
    487a:	48 21 d0             	and    %rdx,%rax
    487d:	48 85 c0             	test   %rax,%rax
    4880:	74 07                	je     4889 <func_1+0xd4>
    4882:	ba 01 00 00 00       	mov    $0x1,%edx
    4887:	eb 05                	jmp    488e <func_1+0xd9>
    4889:	ba 00 00 00 00       	mov    $0x0,%edx
    488e:	8b 05 14 5e 01 00    	mov    0x15e14(%rip),%eax        # 1a6a8 <g_9>
    4894:	39 c2                	cmp    %eax,%edx
    4896:	0f 9d c0             	setge  %al
    4899:	0f b6 c0             	movzbl %al,%eax
    489c:	89 de                	mov    %ebx,%esi
    489e:	89 c7                	mov    %eax,%edi
    48a0:	e8 57 00 00 00       	callq  48fc <func_5>
    48a5:	8b 45 c4             	mov    -0x3c(%rbp),%eax
    48a8:	83 f8 ff             	cmp    $0xffffffff,%eax
    48ab:	75 13                	jne    48c0 <func_1+0x10b>
    48ad:	0f b7 05 51 09 01 00 	movzwl 0x10951(%rip),%eax        # 15205 <g_144+0x45>
    48b4:	66 85 c0             	test   %ax,%ax
    48b7:	74 07                	je     48c0 <func_1+0x10b>
    48b9:	b8 01 00 00 00       	mov    $0x1,%eax
    48be:	eb 05                	jmp    48c5 <func_1+0x110>
    48c0:	b8 00 00 00 00       	mov    $0x0,%eax
    48c5:	98                   	cwtl   
    48c6:	be 35 56 00 00       	mov    $0x5635,%esi
    48cb:	89 c7                	mov    %eax,%edi
    48cd:	e8 23 eb ff ff       	callq  33f5 <safe_mul_func_int16_t_s_s>
    48d2:	98                   	cwtl   
    48d3:	89 45 b0             	mov    %eax,-0x50(%rbp)
    48d6:	8b 45 b0             	mov    -0x50(%rbp),%eax
    48d9:	89 45 b4             	mov    %eax,-0x4c(%rbp)
    48dc:	66 0f be 45 ab       	movsbw -0x55(%rbp),%ax
    48e1:	48 8b 4d e8          	mov    -0x18(%rbp),%rcx
    48e5:	64 48 33 0c 25 28 00 	xor    %fs:0x28,%rcx
    48ec:	00 00 
    48ee:	74 05                	je     48f5 <func_1+0x140>
    48f0:	e8 7b e7 ff ff       	callq  3070 <__stack_chk_fail@plt>
    48f5:	48 83 c4 58          	add    $0x58,%rsp
    48f9:	5b                   	pop    %rbx
    48fa:	5d                   	pop    %rbp
    48fb:	c3                   	retq   

00000000000048fc <func_5>:
    48fc:	f3 0f 1e fa          	endbr64 
    4900:	55                   	push   %rbp
    4901:	48 89 e5             	mov    %rsp,%rbp
    4904:	48 81 ec c0 08 00 00 	sub    $0x8c0,%rsp
    490b:	89 bd 4c f7 ff ff    	mov    %edi,-0x8b4(%rbp)
    4911:	89 f0                	mov    %esi,%eax
    4913:	88 85 48 f7 ff ff    	mov    %al,-0x8b8(%rbp)
    4919:	64 48 8b 04 25 28 00 	mov    %fs:0x28,%rax
    4920:	00 00 
    4922:	48 89 45 f8          	mov    %rax,-0x8(%rbp)
    4926:	31 c0                	xor    %eax,%eax
    4928:	c7 85 64 f7 ff ff 00 	movl   $0x0,-0x89c(%rbp)
    492f:	00 00 00 
    4932:	48 8d 05 c7 58 01 00 	lea    0x158c7(%rip),%rax        # 1a200 <g_1788>
    4939:	48 89 85 88 f7 ff ff 	mov    %rax,-0x878(%rbp)
    4940:	c7 85 58 f7 ff ff ff 	movl   $0xffffffff,-0x8a8(%rbp)
    4947:	ff ff ff 
    494a:	c7 85 10 f8 ff ff ad 	movl   $0xd8214cad,-0x7f0(%rbp)
    4951:	4c 21 d8 
    4954:	c7 85 14 f8 ff ff ad 	movl   $0xd8214cad,-0x7ec(%rbp)
    495b:	4c 21 d8 
    495e:	c7 85 18 f8 ff ff ad 	movl   $0xd8214cad,-0x7e8(%rbp)
    4965:	4c 21 d8 
    4968:	c7 85 1c f8 ff ff ad 	movl   $0xd8214cad,-0x7e4(%rbp)
    496f:	4c 21 d8 
    4972:	c7 85 20 f8 ff ff ad 	movl   $0xd8214cad,-0x7e0(%rbp)
    4979:	4c 21 d8 
    497c:	c7 85 24 f8 ff ff ad 	movl   $0xd8214cad,-0x7dc(%rbp)
    4983:	4c 21 d8 
    4986:	c7 85 28 f8 ff ff ad 	movl   $0xd8214cad,-0x7d8(%rbp)
    498d:	4c 21 d8 
    4990:	c7 85 2c f8 ff ff ad 	movl   $0xd8214cad,-0x7d4(%rbp)
    4997:	4c 21 d8 
    499a:	c7 85 30 f8 ff ff ad 	movl   $0xd8214cad,-0x7d0(%rbp)
    49a1:	4c 21 d8 
    49a4:	48 c7 85 90 f7 ff ff 	movq   $0xffffffffffffffff,-0x870(%rbp)
    49ab:	ff ff ff ff 
    49af:	c7 05 bf 1c 01 00 00 	movl   $0x0,0x11cbf(%rip)        # 16678 <g_2226+0x18>
    49b6:	00 00 00 
    49b9:	e9 76 15 00 00       	jmpq   5f34 <func_5+0x1638>
    49be:	48 b8 25 6a 53 51 28 	movabs $0xc07a7f2851536a25,%rax
    49c5:	7f 7a c0 
    49c8:	48 89 85 98 f7 ff ff 	mov    %rax,-0x868(%rbp)
    49cf:	c7 85 68 f7 ff ff d8 	movl   $0xbc1b6cd8,-0x898(%rbp)
    49d6:	6c 1b bc 
    49d9:	c7 85 6c f7 ff ff 5b 	movl   $0x31c1db5b,-0x894(%rbp)
    49e0:	db c1 31 
    49e3:	c7 85 70 f7 ff ff af 	movl   $0x638f1faf,-0x890(%rbp)
    49ea:	1f 8f 63 
    49ed:	c7 85 90 f8 ff ff 5e 	movl   $0xc2efce5e,-0x770(%rbp)
    49f4:	ce ef c2 
    49f7:	c7 85 94 f8 ff ff 4b 	movl   $0x8913c14b,-0x76c(%rbp)
    49fe:	c1 13 89 
    4a01:	c7 85 98 f8 ff ff 4b 	movl   $0x8913c14b,-0x768(%rbp)
    4a08:	c1 13 89 
    4a0b:	c7 85 9c f8 ff ff 5e 	movl   $0xc2efce5e,-0x764(%rbp)
    4a12:	ce ef c2 
    4a15:	c7 85 a0 f8 ff ff 01 	movl   $0x1,-0x760(%rbp)
    4a1c:	00 00 00 
    4a1f:	c7 85 a4 f8 ff ff 03 	movl   $0x3,-0x75c(%rbp)
    4a26:	00 00 00 
    4a29:	c7 85 a8 f8 ff ff 01 	movl   $0x1,-0x758(%rbp)
    4a30:	00 00 00 
    4a33:	c7 85 ac f8 ff ff 5e 	movl   $0xc2efce5e,-0x754(%rbp)
    4a3a:	ce ef c2 
    4a3d:	c7 85 b0 f8 ff ff 4b 	movl   $0x8913c14b,-0x750(%rbp)
    4a44:	c1 13 89 
    4a47:	c7 85 b4 f8 ff ff 4b 	movl   $0x8913c14b,-0x74c(%rbp)
    4a4e:	c1 13 89 
    4a51:	c7 85 b8 f8 ff ff 5e 	movl   $0xc2efce5e,-0x748(%rbp)
    4a58:	ce ef c2 
    4a5b:	c7 85 bc f8 ff ff 01 	movl   $0x1,-0x744(%rbp)
    4a62:	00 00 00 
    4a65:	c7 85 c0 f8 ff ff 03 	movl   $0x3,-0x740(%rbp)
    4a6c:	00 00 00 
    4a6f:	c7 85 c4 f8 ff ff 01 	movl   $0x1,-0x73c(%rbp)
    4a76:	00 00 00 
    4a79:	c7 85 c8 f8 ff ff 5e 	movl   $0xc2efce5e,-0x738(%rbp)
    4a80:	ce ef c2 
    4a83:	c7 85 cc f8 ff ff 81 	movl   $0xf7c92f81,-0x734(%rbp)
    4a8a:	2f c9 f7 
    4a8d:	c7 85 d0 f8 ff ff 81 	movl   $0xf7c92f81,-0x730(%rbp)
    4a94:	2f c9 f7 
    4a97:	c7 85 d4 f8 ff ff 03 	movl   $0x3,-0x72c(%rbp)
    4a9e:	00 00 00 
    4aa1:	c7 85 d8 f8 ff ff 5e 	movl   $0xc2efce5e,-0x728(%rbp)
    4aa8:	ce ef c2 
    4aab:	c7 85 dc f8 ff ff 0d 	movl   $0xe729910d,-0x724(%rbp)
    4ab2:	91 29 e7 
    4ab5:	c7 85 e0 f8 ff ff 5e 	movl   $0xc2efce5e,-0x720(%rbp)
    4abc:	ce ef c2 
    4abf:	c7 85 e4 f8 ff ff 03 	movl   $0x3,-0x71c(%rbp)
    4ac6:	00 00 00 
    4ac9:	c7 85 e8 f8 ff ff 81 	movl   $0xf7c92f81,-0x718(%rbp)
    4ad0:	2f c9 f7 
    4ad3:	c7 85 ec f8 ff ff 81 	movl   $0xf7c92f81,-0x714(%rbp)
    4ada:	2f c9 f7 
    4add:	c7 85 60 f7 ff ff 00 	movl   $0x0,-0x8a0(%rbp)
    4ae4:	00 00 00 
    4ae7:	eb 21                	jmp    4b0a <func_5+0x20e>
    4ae9:	8b 85 60 f7 ff ff    	mov    -0x8a0(%rbp),%eax
    4aef:	48 98                	cltq   
    4af1:	48 b9 1a d8 a0 14 d1 	movabs $0xb73829d114a0d81a,%rcx
    4af8:	29 38 b7 
    4afb:	48 89 8c c5 e0 f7 ff 	mov    %rcx,-0x820(%rbp,%rax,8)
    4b02:	ff 
    4b03:	83 85 60 f7 ff ff 01 	addl   $0x1,-0x8a0(%rbp)
    4b0a:	83 bd 60 f7 ff ff 01 	cmpl   $0x1,-0x8a0(%rbp)
    4b11:	7e d6                	jle    4ae9 <func_5+0x1ed>
    4b13:	48 c7 05 46 42 01 00 	movq   $0x0,0x14246(%rip)        # 18d64 <g_2236+0x4>
    4b1a:	00 00 00 00 
    4b1e:	e9 e8 13 00 00       	jmpq   5f0b <func_5+0x160f>
    4b23:	c7 85 74 f7 ff ff 1d 	movl   $0x8d36101d,-0x88c(%rbp)
    4b2a:	10 36 8d 
    4b2d:	c7 85 78 f7 ff ff 01 	movl   $0x1,-0x888(%rbp)
    4b34:	00 00 00 
    4b37:	c7 85 7c f7 ff ff f0 	movl   $0xd2f827f0,-0x884(%rbp)
    4b3e:	27 f8 d2 
    4b41:	c7 85 f0 f7 ff ff 31 	movl   $0xada94931,-0x810(%rbp)
    4b48:	49 a9 ad 
    4b4b:	c7 85 f4 f7 ff ff 31 	movl   $0xada94931,-0x80c(%rbp)
    4b52:	49 a9 ad 
    4b55:	c7 85 f8 f7 ff ff 31 	movl   $0xada94931,-0x808(%rbp)
    4b5c:	49 a9 ad 
    4b5f:	c7 85 fc f7 ff ff 31 	movl   $0xada94931,-0x804(%rbp)
    4b66:	49 a9 ad 
    4b69:	c7 85 00 f8 ff ff 31 	movl   $0xada94931,-0x800(%rbp)
    4b70:	49 a9 ad 
    4b73:	c7 85 04 f8 ff ff 31 	movl   $0xada94931,-0x7fc(%rbp)
    4b7a:	49 a9 ad 
    4b7d:	c7 85 08 f8 ff ff 31 	movl   $0xada94931,-0x7f8(%rbp)
    4b84:	49 a9 ad 
    4b87:	c7 85 f0 f8 ff ff 01 	movl   $0xb8fd0701,-0x710(%rbp)
    4b8e:	07 fd b8 
    4b91:	c7 85 f4 f8 ff ff ad 	movl   $0xfff6ffad,-0x70c(%rbp)
    4b98:	ff f6 ff 
    4b9b:	c7 85 f8 f8 ff ff a6 	movl   $0x14c68a6,-0x708(%rbp)
    4ba2:	68 4c 01 
    4ba5:	c7 85 fc f8 ff ff e3 	movl   $0xb801b8e3,-0x704(%rbp)
    4bac:	b8 01 b8 
    4baf:	c7 85 00 f9 ff ff 01 	movl   $0xfc010001,-0x700(%rbp)
    4bb6:	00 01 fc 
    4bb9:	c7 85 04 f9 ff ff f6 	movl   $0xaa00fff6,-0x6fc(%rbp)
    4bc0:	ff 00 aa 
    4bc3:	c7 85 08 f9 ff ff 68 	movl   $0x9ff68,-0x6f8(%rbp)
    4bca:	ff 09 00 
    4bcd:	c7 85 0c f9 ff ff 68 	movl   $0xe3003868,-0x6f4(%rbp)
    4bd4:	38 00 e3 
    4bd7:	c7 85 10 f9 ff ff f6 	movl   $0x330100f6,-0x6f0(%rbp)
    4bde:	00 01 33 
    4be1:	c7 85 14 f9 ff ff 01 	movl   $0x701ce01,-0x6ec(%rbp)
    4be8:	ce 01 07 
    4beb:	c7 85 18 f9 ff ff e3 	movl   $0xf74c01e3,-0x6e8(%rbp)
    4bf2:	01 4c f7 
    4bf5:	c7 85 1c f9 ff ff a6 	movl   $0xf6ada6,-0x6e4(%rbp)
    4bfc:	ad f6 00 
    4bff:	c7 85 20 f9 ff ff ad 	movl   $0x5efdcead,-0x6e0(%rbp)
    4c06:	ce fd 5e 
    4c09:	c7 85 24 f9 ff ff 01 	movl   $0xe300f601,-0x6dc(%rbp)
    4c10:	f6 00 e3 
    4c13:	c7 85 28 f9 ff ff 56 	movl   $0xf6330156,-0x6d8(%rbp)
    4c1a:	01 33 f6 
    4c1d:	c7 85 2c f9 ff ff 07 	movl   $0xfcf6ff07,-0x6d4(%rbp)
    4c24:	ff f6 fc 
    4c27:	c7 85 30 f9 ff ff fc 	movl   $0xfc0000fc,-0x6d0(%rbp)
    4c2e:	00 00 fc 
    4c31:	c7 85 34 f9 ff ff 38 	movl   $0xff010738,-0x6cc(%rbp)
    4c38:	07 01 ff 
    4c3b:	c7 85 38 f9 ff ff ad 	movl   $0xff79b8ad,-0x6c8(%rbp)
    4c42:	b8 79 ff 
    4c45:	c7 85 3c f9 ff ff f7 	movl   $0xff4cfff7,-0x6c4(%rbp)
    4c4c:	ff 4c ff 
    4c4f:	c7 85 40 f9 ff ff 00 	movl   $0xffa6b800,-0x6c0(%rbp)
    4c56:	b8 a6 ff 
    4c59:	c7 85 44 f9 ff ff 01 	movl   $0xfc180701,-0x6bc(%rbp)
    4c60:	07 18 fc 
    4c63:	c7 85 48 f9 ff ff 00 	movl   $0xfc000000,-0x6b8(%rbp)
    4c6a:	00 00 fc 
    4c6d:	c7 85 4c f9 ff ff ff 	movl   $0xf6aaffff,-0x6b4(%rbp)
    4c74:	ff aa f6 
    4c77:	c7 85 50 f9 ff ff 68 	movl   $0xe3520168,-0x6b0(%rbp)
    4c7e:	01 52 e3 
    4c81:	c7 85 54 f9 ff ff 00 	movl   $0x5e01f600,-0x6ac(%rbp)
    4c88:	f6 01 5e 
    4c8b:	c7 85 58 f9 ff ff fc 	movl   $0xa6cefc,-0x6a8(%rbp)
    4c92:	ce a6 00 
    4c95:	c7 85 5c f9 ff ff e3 	movl   $0xf743ade3,-0x6a4(%rbp)
    4c9c:	ad 43 f7 
    4c9f:	c7 85 60 f9 ff ff f7 	movl   $0x7f601f7,-0x6a0(%rbp)
    4ca6:	01 f6 07 
    4ca9:	c7 85 64 f9 ff ff 01 	movl   $0x3301ce01,-0x69c(%rbp)
    4cb0:	ce 01 33 
    4cb3:	c7 85 68 f9 ff ff 01 	movl   $0xe3e30001,-0x698(%rbp)
    4cba:	00 e3 e3 
    4cbd:	c7 85 6c f9 ff ff fc 	movl   $0x3338fc,-0x694(%rbp)
    4cc4:	38 33 00 
    4cc7:	c7 85 70 f9 ff ff 00 	movl   $0xaa33ff00,-0x690(%rbp)
    4cce:	ff 33 aa 
    4cd1:	c7 85 74 f9 ff ff fc 	movl   $0xfce3fffc,-0x68c(%rbp)
    4cd8:	ff e3 fc 
    4cdb:	c7 85 78 f9 ff ff 01 	movl   $0xb8010001,-0x688(%rbp)
    4ce2:	00 01 b8 
    4ce5:	c7 85 7c f9 ff ff 01 	movl   $0x1f6b801,-0x684(%rbp)
    4cec:	b8 f6 01 
    4cef:	c7 85 80 f9 ff ff f7 	movl   $0xff4368f7,-0x680(%rbp)
    4cf6:	68 43 ff 
    4cf9:	c7 85 84 f9 ff ff e3 	movl   $0xb8a6ffe3,-0x67c(%rbp)
    4d00:	ff a6 b8 
    4d03:	c7 85 88 f9 ff ff fc 	movl   $0x560107fc,-0x678(%rbp)
    4d0a:	07 01 56 
    4d0d:	c7 85 8c f9 ff ff 00 	movl   $0xfc52ff00,-0x674(%rbp)
    4d14:	ff 52 fc 
    4d17:	c7 85 90 f9 ff ff 68 	movl   $0xaa0168,-0x670(%rbp)
    4d1e:	01 aa 00 
    4d21:	c7 85 94 f9 ff ff ff 	movl   $0x1ff,-0x66c(%rbp)
    4d28:	01 00 00 
    4d2b:	c7 85 98 f9 ff ff 00 	movl   $0x5e180000,-0x668(%rbp)
    4d32:	00 18 5e 
    4d35:	c7 85 9c f9 ff ff 01 	movl   $0x56a60101,-0x664(%rbp)
    4d3c:	01 a6 56 
    4d3f:	c7 85 a0 f9 ff ff fd 	movl   $0x950957fd,-0x660(%rbp)
    4d46:	57 09 95 
    4d49:	c7 05 21 3f 01 00 05 	movl   $0x5,0x13f21(%rip)        # 18c74 <g_2232+0x14>
    4d50:	00 00 00 
    4d53:	e9 82 11 00 00       	jmpq   5eda <func_5+0x15de>
    4d58:	48 8d 05 c9 03 01 00 	lea    0x103c9(%rip),%rax        # 15128 <g_82+0x8>
    4d5f:	48 89 85 a0 f7 ff ff 	mov    %rax,-0x860(%rbp)
    4d66:	48 c7 85 40 f8 ff ff 	movq   $0x0,-0x7c0(%rbp)
    4d6d:	00 00 00 00 
    4d71:	48 c7 85 48 f8 ff ff 	movq   $0x0,-0x7b8(%rbp)
    4d78:	00 00 00 00 
    4d7c:	48 c7 85 50 f8 ff ff 	movq   $0x0,-0x7b0(%rbp)
    4d83:	00 00 00 00 
    4d87:	48 c7 85 58 f8 ff ff 	movq   $0x0,-0x7a8(%rbp)
    4d8e:	00 00 00 00 
    4d92:	48 c7 85 60 f8 ff ff 	movq   $0x0,-0x7a0(%rbp)
    4d99:	00 00 00 00 
    4d9d:	48 c7 85 68 f8 ff ff 	movq   $0x0,-0x798(%rbp)
    4da4:	00 00 00 00 
    4da8:	48 c7 85 70 f8 ff ff 	movq   $0x0,-0x790(%rbp)
    4daf:	00 00 00 00 
    4db3:	48 c7 85 78 f8 ff ff 	movq   $0x0,-0x788(%rbp)
    4dba:	00 00 00 00 
    4dbe:	48 c7 85 80 f8 ff ff 	movq   $0x0,-0x780(%rbp)
    4dc5:	00 00 00 00 
    4dc9:	8b 05 a5 3e 01 00    	mov    0x13ea5(%rip),%eax        # 18c74 <g_2232+0x14>
    4dcf:	48 98                	cltq   
    4dd1:	48 8d 14 85 00 00 00 	lea    0x0(,%rax,4),%rdx
    4dd8:	00 
    4dd9:	48 8d 05 10 0d 01 00 	lea    0x10d10(%rip),%rax        # 15af0 <g_358>
    4de0:	8b 04 02             	mov    (%rdx,%rax,1),%eax
    4de3:	48 63 d0             	movslq %eax,%rdx
    4de6:	48 8b 85 e0 f7 ff ff 	mov    -0x820(%rbp),%rax
    4ded:	48 83 e8 01          	sub    $0x1,%rax
    4df1:	48 89 85 e0 f7 ff ff 	mov    %rax,-0x820(%rbp)
    4df8:	48 8b 85 e0 f7 ff ff 	mov    -0x820(%rbp),%rax
    4dff:	48 21 d0             	and    %rdx,%rax
    4e02:	48 85 c0             	test   %rax,%rax
    4e05:	74 72                	je     4e79 <func_5+0x57d>
    4e07:	c7 45 f1 03 03 03 03 	movl   $0x3030303,-0xf(%rbp)
    4e0e:	66 c7 45 f5 03 03    	movw   $0x303,-0xb(%rbp)
    4e14:	c6 45 f7 03          	movb   $0x3,-0x9(%rbp)
    4e18:	48 c7 05 9b 3e 01 00 	movq   $0x5,0x13e9b(%rip)        # 18cbe <g_2233+0x1e>
    4e1f:	05 00 00 00 
    4e23:	90                   	nop
    4e24:	48 8b 05 93 3e 01 00 	mov    0x13e93(%rip),%rax        # 18cbe <g_2233+0x1e>
    4e2b:	48 85 c0             	test   %rax,%rax
    4e2e:	0f 88 87 10 00 00    	js     5ebb <func_5+0x15bf>
    4e34:	48 8d 05 05 03 01 00 	lea    0x10305(%rip),%rax        # 15140 <g_82+0x20>
    4e3b:	48 89 85 d0 f7 ff ff 	mov    %rax,-0x830(%rbp)
    4e42:	48 8d 05 0b 03 01 00 	lea    0x1030b(%rip),%rax        # 15154 <g_82+0x34>
    4e49:	48 89 85 d8 f7 ff ff 	mov    %rax,-0x828(%rbp)
    4e50:	0f b6 45 f2          	movzbl -0xe(%rbp),%eax
    4e54:	83 c0 01             	add    $0x1,%eax
    4e57:	88 45 f2             	mov    %al,-0xe(%rbp)
    4e5a:	8b 05 14 3e 01 00    	mov    0x13e14(%rip),%eax        # 18c74 <g_2232+0x14>
    4e60:	48 98                	cltq   
    4e62:	48 8d 14 85 00 00 00 	lea    0x0(,%rax,4),%rdx
    4e69:	00 
    4e6a:	48 8d 05 7f 0c 01 00 	lea    0x10c7f(%rip),%rax        # 15af0 <g_358>
    4e71:	8b 04 02             	mov    (%rdx,%rax,1),%eax
    4e74:	e9 d1 10 00 00       	jmpq   5f4a <func_5+0x164e>
    4e79:	66 c7 85 56 f7 ff ff 	movw   $0x94b8,-0x8aa(%rbp)
    4e80:	b8 94 
    4e82:	c7 85 5c f7 ff ff fb 	movl   $0xfffffffb,-0x8a4(%rbp)
    4e89:	ff ff ff 
    4e8c:	66 83 bd 56 f7 ff ff 	cmpw   $0x0,-0x8aa(%rbp)
    4e93:	00 
    4e94:	0f 84 2f 05 00 00    	je     53c9 <func_5+0xacd>
    4e9a:	48 c7 85 c8 f7 ff ff 	movq   $0x0,-0x838(%rbp)
    4ea1:	00 00 00 00 
    4ea5:	48 8d 05 54 53 01 00 	lea    0x15354(%rip),%rax        # 1a200 <g_1788>
    4eac:	48 89 85 80 f7 ff ff 	mov    %rax,-0x880(%rbp)
    4eb3:	48 8d 85 80 f7 ff ff 	lea    -0x880(%rbp),%rax
    4eba:	48 89 85 b0 f9 ff ff 	mov    %rax,-0x650(%rbp)
    4ec1:	48 8d 85 80 f7 ff ff 	lea    -0x880(%rbp),%rax
    4ec8:	48 89 85 b8 f9 ff ff 	mov    %rax,-0x648(%rbp)
    4ecf:	48 8d 85 80 f7 ff ff 	lea    -0x880(%rbp),%rax
    4ed6:	48 89 85 c0 f9 ff ff 	mov    %rax,-0x640(%rbp)
    4edd:	48 8d 85 80 f7 ff ff 	lea    -0x880(%rbp),%rax
    4ee4:	48 89 85 c8 f9 ff ff 	mov    %rax,-0x638(%rbp)
    4eeb:	48 8d 85 80 f7 ff ff 	lea    -0x880(%rbp),%rax
    4ef2:	48 89 85 d0 f9 ff ff 	mov    %rax,-0x630(%rbp)
    4ef9:	48 8d 85 80 f7 ff ff 	lea    -0x880(%rbp),%rax
    4f00:	48 89 85 d8 f9 ff ff 	mov    %rax,-0x628(%rbp)
    4f07:	48 8d 85 80 f7 ff ff 	lea    -0x880(%rbp),%rax
    4f0e:	48 89 85 e0 f9 ff ff 	mov    %rax,-0x620(%rbp)
    4f15:	48 c7 85 e8 f9 ff ff 	movq   $0x0,-0x618(%rbp)
    4f1c:	00 00 00 00 
    4f20:	48 c7 85 f0 f9 ff ff 	movq   $0x0,-0x610(%rbp)
    4f27:	00 00 00 00 
    4f2b:	48 8d 85 80 f7 ff ff 	lea    -0x880(%rbp),%rax
    4f32:	48 89 85 f8 f9 ff ff 	mov    %rax,-0x608(%rbp)
    4f39:	48 8d 85 80 f7 ff ff 	lea    -0x880(%rbp),%rax
    4f40:	48 89 85 00 fa ff ff 	mov    %rax,-0x600(%rbp)
    4f47:	48 c7 85 08 fa ff ff 	movq   $0x0,-0x5f8(%rbp)
    4f4e:	00 00 00 00 
    4f52:	48 c7 85 10 fa ff ff 	movq   $0x0,-0x5f0(%rbp)
    4f59:	00 00 00 00 
    4f5d:	48 c7 85 18 fa ff ff 	movq   $0x0,-0x5e8(%rbp)
    4f64:	00 00 00 00 
    4f68:	48 c7 85 20 fa ff ff 	movq   $0x0,-0x5e0(%rbp)
    4f6f:	00 00 00 00 
    4f73:	48 c7 85 28 fa ff ff 	movq   $0x0,-0x5d8(%rbp)
    4f7a:	00 00 00 00 
    4f7e:	48 8d 85 80 f7 ff ff 	lea    -0x880(%rbp),%rax
    4f85:	48 89 85 30 fa ff ff 	mov    %rax,-0x5d0(%rbp)
    4f8c:	48 8d 85 80 f7 ff ff 	lea    -0x880(%rbp),%rax
    4f93:	48 89 85 38 fa ff ff 	mov    %rax,-0x5c8(%rbp)
    4f9a:	48 8d 85 80 f7 ff ff 	lea    -0x880(%rbp),%rax
    4fa1:	48 89 85 40 fa ff ff 	mov    %rax,-0x5c0(%rbp)
    4fa8:	48 8d 85 80 f7 ff ff 	lea    -0x880(%rbp),%rax
    4faf:	48 89 85 48 fa ff ff 	mov    %rax,-0x5b8(%rbp)
    4fb6:	48 c7 85 50 fa ff ff 	movq   $0x0,-0x5b0(%rbp)
    4fbd:	00 00 00 00 
    4fc1:	48 8d 85 80 f7 ff ff 	lea    -0x880(%rbp),%rax
    4fc8:	48 89 85 58 fa ff ff 	mov    %rax,-0x5a8(%rbp)
    4fcf:	48 8d 85 80 f7 ff ff 	lea    -0x880(%rbp),%rax
    4fd6:	48 89 85 60 fa ff ff 	mov    %rax,-0x5a0(%rbp)
    4fdd:	48 8d 85 80 f7 ff ff 	lea    -0x880(%rbp),%rax
    4fe4:	48 89 85 68 fa ff ff 	mov    %rax,-0x598(%rbp)
    4feb:	48 8d 85 80 f7 ff ff 	lea    -0x880(%rbp),%rax
    4ff2:	48 89 85 70 fa ff ff 	mov    %rax,-0x590(%rbp)
    4ff9:	48 c7 85 78 fa ff ff 	movq   $0x0,-0x588(%rbp)
    5000:	00 00 00 00 
    5004:	48 c7 85 80 fa ff ff 	movq   $0x0,-0x580(%rbp)
    500b:	00 00 00 00 
    500f:	48 c7 85 88 fa ff ff 	movq   $0x0,-0x578(%rbp)
    5016:	00 00 00 00 
    501a:	48 c7 85 90 fa ff ff 	movq   $0x0,-0x570(%rbp)
    5021:	00 00 00 00 
    5025:	48 c7 85 98 fa ff ff 	movq   $0x0,-0x568(%rbp)
    502c:	00 00 00 00 
    5030:	48 8d 85 80 f7 ff ff 	lea    -0x880(%rbp),%rax
    5037:	48 89 85 a0 fa ff ff 	mov    %rax,-0x560(%rbp)
    503e:	48 8d 85 80 f7 ff ff 	lea    -0x880(%rbp),%rax
    5045:	48 89 85 a8 fa ff ff 	mov    %rax,-0x558(%rbp)
    504c:	48 c7 85 b0 fa ff ff 	movq   $0x0,-0x550(%rbp)
    5053:	00 00 00 00 
    5057:	48 c7 85 b8 fa ff ff 	movq   $0x0,-0x548(%rbp)
    505e:	00 00 00 00 
    5062:	48 8d 85 80 f7 ff ff 	lea    -0x880(%rbp),%rax
    5069:	48 89 85 c0 fa ff ff 	mov    %rax,-0x540(%rbp)
    5070:	48 8d 85 80 f7 ff ff 	lea    -0x880(%rbp),%rax
    5077:	48 89 85 c8 fa ff ff 	mov    %rax,-0x538(%rbp)
    507e:	48 8d 85 80 f7 ff ff 	lea    -0x880(%rbp),%rax
    5085:	48 89 85 d0 fa ff ff 	mov    %rax,-0x530(%rbp)
    508c:	48 8d 85 80 f7 ff ff 	lea    -0x880(%rbp),%rax
    5093:	48 89 85 d8 fa ff ff 	mov    %rax,-0x528(%rbp)
    509a:	48 8d 85 80 f7 ff ff 	lea    -0x880(%rbp),%rax
    50a1:	48 89 85 e0 fa ff ff 	mov    %rax,-0x520(%rbp)
    50a8:	48 8d 85 80 f7 ff ff 	lea    -0x880(%rbp),%rax
    50af:	48 89 85 e8 fa ff ff 	mov    %rax,-0x518(%rbp)
    50b6:	48 8d 85 80 f7 ff ff 	lea    -0x880(%rbp),%rax
    50bd:	48 89 85 f0 fa ff ff 	mov    %rax,-0x510(%rbp)
    50c4:	48 c7 85 f8 fa ff ff 	movq   $0x0,-0x508(%rbp)
    50cb:	00 00 00 00 
    50cf:	48 c7 85 00 fb ff ff 	movq   $0x0,-0x500(%rbp)
    50d6:	00 00 00 00 
    50da:	48 8d 85 80 f7 ff ff 	lea    -0x880(%rbp),%rax
    50e1:	48 89 85 08 fb ff ff 	mov    %rax,-0x4f8(%rbp)
    50e8:	48 c7 85 10 fb ff ff 	movq   $0x0,-0x4f0(%rbp)
    50ef:	00 00 00 00 
    50f3:	48 c7 85 18 fb ff ff 	movq   $0x0,-0x4e8(%rbp)
    50fa:	00 00 00 00 
    50fe:	48 8d 85 80 f7 ff ff 	lea    -0x880(%rbp),%rax
    5105:	48 89 85 20 fb ff ff 	mov    %rax,-0x4e0(%rbp)
    510c:	48 8d 85 80 f7 ff ff 	lea    -0x880(%rbp),%rax
    5113:	48 89 85 28 fb ff ff 	mov    %rax,-0x4d8(%rbp)
    511a:	48 8d 85 80 f7 ff ff 	lea    -0x880(%rbp),%rax
    5121:	48 89 85 30 fb ff ff 	mov    %rax,-0x4d0(%rbp)
    5128:	48 8d 85 80 f7 ff ff 	lea    -0x880(%rbp),%rax
    512f:	48 89 85 38 fb ff ff 	mov    %rax,-0x4c8(%rbp)
    5136:	48 8d 85 80 f7 ff ff 	lea    -0x880(%rbp),%rax
    513d:	48 89 85 40 fb ff ff 	mov    %rax,-0x4c0(%rbp)
    5144:	48 8d 85 80 f7 ff ff 	lea    -0x880(%rbp),%rax
    514b:	48 89 85 48 fb ff ff 	mov    %rax,-0x4b8(%rbp)
    5152:	48 8d 85 80 f7 ff ff 	lea    -0x880(%rbp),%rax
    5159:	48 89 85 50 fb ff ff 	mov    %rax,-0x4b0(%rbp)
    5160:	48 c7 85 58 fb ff ff 	movq   $0x0,-0x4a8(%rbp)
    5167:	00 00 00 00 
    516b:	48 c7 85 60 fb ff ff 	movq   $0x0,-0x4a0(%rbp)
    5172:	00 00 00 00 
    5176:	48 8d 85 80 f7 ff ff 	lea    -0x880(%rbp),%rax
    517d:	48 89 85 68 fb ff ff 	mov    %rax,-0x498(%rbp)
    5184:	48 8d 85 80 f7 ff ff 	lea    -0x880(%rbp),%rax
    518b:	48 89 85 70 fb ff ff 	mov    %rax,-0x490(%rbp)
    5192:	48 c7 85 78 fb ff ff 	movq   $0x0,-0x488(%rbp)
    5199:	00 00 00 00 
    519d:	48 c7 85 80 fb ff ff 	movq   $0x0,-0x480(%rbp)
    51a4:	00 00 00 00 
    51a8:	48 c7 85 88 fb ff ff 	movq   $0x0,-0x478(%rbp)
    51af:	00 00 00 00 
    51b3:	48 c7 85 90 fb ff ff 	movq   $0x0,-0x470(%rbp)
    51ba:	00 00 00 00 
    51be:	48 c7 85 98 fb ff ff 	movq   $0x0,-0x468(%rbp)
    51c5:	00 00 00 00 
    51c9:	48 8d 85 80 f7 ff ff 	lea    -0x880(%rbp),%rax
    51d0:	48 89 85 a0 fb ff ff 	mov    %rax,-0x460(%rbp)
    51d7:	48 8d 85 80 f7 ff ff 	lea    -0x880(%rbp),%rax
    51de:	48 89 85 a8 fb ff ff 	mov    %rax,-0x458(%rbp)
    51e5:	48 8d 85 80 f7 ff ff 	lea    -0x880(%rbp),%rax
    51ec:	48 89 85 b0 fb ff ff 	mov    %rax,-0x450(%rbp)
    51f3:	48 8d 85 80 f7 ff ff 	lea    -0x880(%rbp),%rax
    51fa:	48 89 85 b8 fb ff ff 	mov    %rax,-0x448(%rbp)
    5201:	48 c7 85 c0 fb ff ff 	movq   $0x0,-0x440(%rbp)
    5208:	00 00 00 00 
    520c:	48 8d 85 80 f7 ff ff 	lea    -0x880(%rbp),%rax
    5213:	48 89 85 c8 fb ff ff 	mov    %rax,-0x438(%rbp)
    521a:	48 8d 85 80 f7 ff ff 	lea    -0x880(%rbp),%rax
    5221:	48 89 85 d0 fb ff ff 	mov    %rax,-0x430(%rbp)
    5228:	48 8d 85 80 f7 ff ff 	lea    -0x880(%rbp),%rax
    522f:	48 89 85 d8 fb ff ff 	mov    %rax,-0x428(%rbp)
    5236:	48 8d 85 80 f7 ff ff 	lea    -0x880(%rbp),%rax
    523d:	48 89 85 e0 fb ff ff 	mov    %rax,-0x420(%rbp)
    5244:	48 c7 85 e8 fb ff ff 	movq   $0x0,-0x418(%rbp)
    524b:	00 00 00 00 
    524f:	48 c7 85 f0 fb ff ff 	movq   $0x0,-0x410(%rbp)
    5256:	00 00 00 00 
    525a:	48 c7 85 f8 fb ff ff 	movq   $0x0,-0x408(%rbp)
    5261:	00 00 00 00 
    5265:	48 c7 85 00 fc ff ff 	movq   $0x0,-0x400(%rbp)
    526c:	00 00 00 00 
    5270:	48 c7 85 08 fc ff ff 	movq   $0x0,-0x3f8(%rbp)
    5277:	00 00 00 00 
    527b:	48 8d 85 80 f7 ff ff 	lea    -0x880(%rbp),%rax
    5282:	48 89 85 10 fc ff ff 	mov    %rax,-0x3f0(%rbp)
    5289:	48 8d 85 80 f7 ff ff 	lea    -0x880(%rbp),%rax
    5290:	48 89 85 18 fc ff ff 	mov    %rax,-0x3e8(%rbp)
    5297:	48 c7 85 20 fc ff ff 	movq   $0x0,-0x3e0(%rbp)
    529e:	00 00 00 00 
    52a2:	48 c7 85 28 fc ff ff 	movq   $0x0,-0x3d8(%rbp)
    52a9:	00 00 00 00 
    52ad:	48 8d 85 80 f7 ff ff 	lea    -0x880(%rbp),%rax
    52b4:	48 89 85 30 fc ff ff 	mov    %rax,-0x3d0(%rbp)
    52bb:	48 8d 85 80 f7 ff ff 	lea    -0x880(%rbp),%rax
    52c2:	48 89 85 38 fc ff ff 	mov    %rax,-0x3c8(%rbp)
    52c9:	48 8d 85 80 f7 ff ff 	lea    -0x880(%rbp),%rax
    52d0:	48 89 85 40 fc ff ff 	mov    %rax,-0x3c0(%rbp)
    52d7:	48 8d 85 80 f7 ff ff 	lea    -0x880(%rbp),%rax
    52de:	48 89 85 48 fc ff ff 	mov    %rax,-0x3b8(%rbp)
    52e5:	48 8d 85 80 f7 ff ff 	lea    -0x880(%rbp),%rax
    52ec:	48 89 85 50 fc ff ff 	mov    %rax,-0x3b0(%rbp)
    52f3:	48 8d 85 80 f7 ff ff 	lea    -0x880(%rbp),%rax
    52fa:	48 89 85 58 fc ff ff 	mov    %rax,-0x3a8(%rbp)
    5301:	48 8d 85 80 f7 ff ff 	lea    -0x880(%rbp),%rax
    5308:	48 89 85 60 fc ff ff 	mov    %rax,-0x3a0(%rbp)
    530f:	48 c7 85 68 fc ff ff 	movq   $0x0,-0x398(%rbp)
    5316:	00 00 00 00 
    531a:	48 c7 85 70 fc ff ff 	movq   $0x0,-0x390(%rbp)
    5321:	00 00 00 00 
    5325:	48 8d 85 80 f7 ff ff 	lea    -0x880(%rbp),%rax
    532c:	48 89 85 78 fc ff ff 	mov    %rax,-0x388(%rbp)
    5333:	48 c7 85 80 fc ff ff 	movq   $0x0,-0x380(%rbp)
    533a:	00 00 00 00 
    533e:	48 c7 85 88 fc ff ff 	movq   $0x0,-0x378(%rbp)
    5345:	00 00 00 00 
    5349:	48 8d 85 80 f7 ff ff 	lea    -0x880(%rbp),%rax
    5350:	48 89 85 90 fc ff ff 	mov    %rax,-0x370(%rbp)
    5357:	48 8d 85 80 f7 ff ff 	lea    -0x880(%rbp),%rax
    535e:	48 89 85 98 fc ff ff 	mov    %rax,-0x368(%rbp)
    5365:	48 8d 85 80 f7 ff ff 	lea    -0x880(%rbp),%rax
    536c:	48 89 85 a0 fc ff ff 	mov    %rax,-0x360(%rbp)
    5373:	48 8d 85 80 f7 ff ff 	lea    -0x880(%rbp),%rax
    537a:	48 89 85 a8 fc ff ff 	mov    %rax,-0x358(%rbp)
    5381:	48 8d 85 80 f7 ff ff 	lea    -0x880(%rbp),%rax
    5388:	48 89 85 b0 fc ff ff 	mov    %rax,-0x350(%rbp)
    538f:	48 8d 85 80 f7 ff ff 	lea    -0x880(%rbp),%rax
    5396:	48 89 85 b8 fc ff ff 	mov    %rax,-0x348(%rbp)
    539d:	48 8d 85 80 f7 ff ff 	lea    -0x880(%rbp),%rax
    53a4:	48 89 85 c0 fc ff ff 	mov    %rax,-0x340(%rbp)
    53ab:	48 c7 85 c8 fc ff ff 	movq   $0x0,-0x338(%rbp)
    53b2:	00 00 00 00 
    53b6:	48 8d 05 43 4e 01 00 	lea    0x14e43(%rip),%rax        # 1a200 <g_1788>
    53bd:	48 89 85 88 f7 ff ff 	mov    %rax,-0x878(%rbp)
    53c4:	e9 f2 0a 00 00       	jmpq   5ebb <func_5+0x15bf>
    53c9:	48 c7 85 a8 f7 ff ff 	movq   $0x0,-0x858(%rbp)
    53d0:	00 00 00 00 
    53d4:	48 8d 05 f5 fc 00 00 	lea    0xfcf5(%rip),%rax        # 150d0 <g_81+0x90>
    53db:	48 89 85 b0 f7 ff ff 	mov    %rax,-0x850(%rbp)
    53e2:	8b 05 8c 38 01 00    	mov    0x1388c(%rip),%eax        # 18c74 <g_2232+0x14>
    53e8:	48 98                	cltq   
    53ea:	48 8d 14 85 00 00 00 	lea    0x0(,%rax,4),%rdx
    53f1:	00 
    53f2:	48 8d 05 f7 06 01 00 	lea    0x106f7(%rip),%rax        # 15af0 <g_358>
    53f9:	48 01 d0             	add    %rdx,%rax
    53fc:	48 89 85 b8 f7 ff ff 	mov    %rax,-0x848(%rbp)
    5403:	48 8d 05 4a fd 00 00 	lea    0xfd4a(%rip),%rax        # 15154 <g_82+0x34>
    540a:	48 89 85 c0 f7 ff ff 	mov    %rax,-0x840(%rbp)
    5411:	48 8d 05 48 fd 00 00 	lea    0xfd48(%rip),%rax        # 15160 <g_82+0x40>
    5418:	48 89 85 b0 f9 ff ff 	mov    %rax,-0x650(%rbp)
    541f:	48 8d 05 ea 52 01 00 	lea    0x152ea(%rip),%rax        # 1a710 <g_1552>
    5426:	48 89 85 b8 f9 ff ff 	mov    %rax,-0x648(%rbp)
    542d:	48 8d 05 dc 52 01 00 	lea    0x152dc(%rip),%rax        # 1a710 <g_1552>
    5434:	48 89 85 c0 f9 ff ff 	mov    %rax,-0x640(%rbp)
    543b:	48 8d 05 62 fc 00 00 	lea    0xfc62(%rip),%rax        # 150a4 <g_81+0x64>
    5442:	48 89 85 c8 f9 ff ff 	mov    %rax,-0x638(%rbp)
    5449:	48 8d 05 60 3a 01 00 	lea    0x13a60(%rip),%rax        # 18eb0 <g_2301+0x10>
    5450:	48 89 85 d0 f9 ff ff 	mov    %rax,-0x630(%rbp)
    5457:	48 c7 85 d8 f9 ff ff 	movq   $0x0,-0x628(%rbp)
    545e:	00 00 00 00 
    5462:	48 8d 05 f7 fc 00 00 	lea    0xfcf7(%rip),%rax        # 15160 <g_82+0x40>
    5469:	48 89 85 e0 f9 ff ff 	mov    %rax,-0x620(%rbp)
    5470:	48 8d 05 39 3a 01 00 	lea    0x13a39(%rip),%rax        # 18eb0 <g_2301+0x10>
    5477:	48 89 85 e8 f9 ff ff 	mov    %rax,-0x618(%rbp)
    547e:	48 c7 85 f0 f9 ff ff 	movq   $0x0,-0x610(%rbp)
    5485:	00 00 00 00 
    5489:	48 8d 05 14 fc 00 00 	lea    0xfc14(%rip),%rax        # 150a4 <g_81+0x64>
    5490:	48 89 85 f8 f9 ff ff 	mov    %rax,-0x608(%rbp)
    5497:	48 c7 85 00 fa ff ff 	movq   $0x0,-0x600(%rbp)
    549e:	00 00 00 00 
    54a2:	48 8d 05 07 3a 01 00 	lea    0x13a07(%rip),%rax        # 18eb0 <g_2301+0x10>
    54a9:	48 89 85 08 fa ff ff 	mov    %rax,-0x5f8(%rbp)
    54b0:	48 8d 05 a9 fc 00 00 	lea    0xfca9(%rip),%rax        # 15160 <g_82+0x40>
    54b7:	48 89 85 10 fa ff ff 	mov    %rax,-0x5f0(%rbp)
    54be:	48 c7 85 18 fa ff ff 	movq   $0x0,-0x5e8(%rbp)
    54c5:	00 00 00 00 
    54c9:	48 8d 05 e0 39 01 00 	lea    0x139e0(%rip),%rax        # 18eb0 <g_2301+0x10>
    54d0:	48 89 85 20 fa ff ff 	mov    %rax,-0x5e0(%rbp)
    54d7:	48 8d 05 c6 fb 00 00 	lea    0xfbc6(%rip),%rax        # 150a4 <g_81+0x64>
    54de:	48 89 85 28 fa ff ff 	mov    %rax,-0x5d8(%rbp)
    54e5:	48 8d 05 24 52 01 00 	lea    0x15224(%rip),%rax        # 1a710 <g_1552>
    54ec:	48 89 85 30 fa ff ff 	mov    %rax,-0x5d0(%rbp)
    54f3:	48 8d 05 16 52 01 00 	lea    0x15216(%rip),%rax        # 1a710 <g_1552>
    54fa:	48 89 85 38 fa ff ff 	mov    %rax,-0x5c8(%rbp)
    5501:	48 8d 05 58 fc 00 00 	lea    0xfc58(%rip),%rax        # 15160 <g_82+0x40>
    5508:	48 89 85 40 fa ff ff 	mov    %rax,-0x5c0(%rbp)
    550f:	48 8d 05 fa 51 01 00 	lea    0x151fa(%rip),%rax        # 1a710 <g_1552>
    5516:	48 89 85 48 fa ff ff 	mov    %rax,-0x5b8(%rbp)
    551d:	48 8d 05 ec 51 01 00 	lea    0x151ec(%rip),%rax        # 1a710 <g_1552>
    5524:	48 89 85 50 fa ff ff 	mov    %rax,-0x5b0(%rbp)
    552b:	48 8d 05 72 fb 00 00 	lea    0xfb72(%rip),%rax        # 150a4 <g_81+0x64>
    5532:	48 89 85 58 fa ff ff 	mov    %rax,-0x5a8(%rbp)
    5539:	48 8d 05 70 39 01 00 	lea    0x13970(%rip),%rax        # 18eb0 <g_2301+0x10>
    5540:	48 89 85 60 fa ff ff 	mov    %rax,-0x5a0(%rbp)
    5547:	48 c7 85 68 fa ff ff 	movq   $0x0,-0x598(%rbp)
    554e:	00 00 00 00 
    5552:	48 8d 05 07 fc 00 00 	lea    0xfc07(%rip),%rax        # 15160 <g_82+0x40>
    5559:	48 89 85 70 fa ff ff 	mov    %rax,-0x590(%rbp)
    5560:	48 8d 05 49 39 01 00 	lea    0x13949(%rip),%rax        # 18eb0 <g_2301+0x10>
    5567:	48 89 85 78 fa ff ff 	mov    %rax,-0x588(%rbp)
    556e:	48 c7 85 80 fa ff ff 	movq   $0x0,-0x580(%rbp)
    5575:	00 00 00 00 
    5579:	48 8d 05 24 fb 00 00 	lea    0xfb24(%rip),%rax        # 150a4 <g_81+0x64>
    5580:	48 89 85 88 fa ff ff 	mov    %rax,-0x578(%rbp)
    5587:	48 c7 85 90 fa ff ff 	movq   $0x0,-0x570(%rbp)
    558e:	00 00 00 00 
    5592:	48 8d 05 17 39 01 00 	lea    0x13917(%rip),%rax        # 18eb0 <g_2301+0x10>
    5599:	48 89 85 98 fa ff ff 	mov    %rax,-0x568(%rbp)
    55a0:	48 8d 05 b9 fb 00 00 	lea    0xfbb9(%rip),%rax        # 15160 <g_82+0x40>
    55a7:	48 89 85 a0 fa ff ff 	mov    %rax,-0x560(%rbp)
    55ae:	48 c7 85 a8 fa ff ff 	movq   $0x0,-0x558(%rbp)
    55b5:	00 00 00 00 
    55b9:	48 8d 05 f0 38 01 00 	lea    0x138f0(%rip),%rax        # 18eb0 <g_2301+0x10>
    55c0:	48 89 85 b0 fa ff ff 	mov    %rax,-0x550(%rbp)
    55c7:	48 8d 05 d6 fa 00 00 	lea    0xfad6(%rip),%rax        # 150a4 <g_81+0x64>
    55ce:	48 89 85 b8 fa ff ff 	mov    %rax,-0x548(%rbp)
    55d5:	48 8d 05 34 51 01 00 	lea    0x15134(%rip),%rax        # 1a710 <g_1552>
    55dc:	48 89 85 c0 fa ff ff 	mov    %rax,-0x540(%rbp)
    55e3:	48 8d 05 26 51 01 00 	lea    0x15126(%rip),%rax        # 1a710 <g_1552>
    55ea:	48 89 85 c8 fa ff ff 	mov    %rax,-0x538(%rbp)
    55f1:	48 8d 05 68 fb 00 00 	lea    0xfb68(%rip),%rax        # 15160 <g_82+0x40>
    55f8:	48 89 85 d0 fa ff ff 	mov    %rax,-0x530(%rbp)
    55ff:	48 8d 05 0a 51 01 00 	lea    0x1510a(%rip),%rax        # 1a710 <g_1552>
    5606:	48 89 85 d8 fa ff ff 	mov    %rax,-0x528(%rbp)
    560d:	48 8d 05 fc 50 01 00 	lea    0x150fc(%rip),%rax        # 1a710 <g_1552>
    5614:	48 89 85 e0 fa ff ff 	mov    %rax,-0x520(%rbp)
    561b:	48 8d 05 82 fa 00 00 	lea    0xfa82(%rip),%rax        # 150a4 <g_81+0x64>
    5622:	48 89 85 e8 fa ff ff 	mov    %rax,-0x518(%rbp)
    5629:	48 8d 05 80 38 01 00 	lea    0x13880(%rip),%rax        # 18eb0 <g_2301+0x10>
    5630:	48 89 85 f0 fa ff ff 	mov    %rax,-0x510(%rbp)
    5637:	48 c7 85 f8 fa ff ff 	movq   $0x0,-0x508(%rbp)
    563e:	00 00 00 00 
    5642:	48 8d 05 17 fb 00 00 	lea    0xfb17(%rip),%rax        # 15160 <g_82+0x40>
    5649:	48 89 85 00 fb ff ff 	mov    %rax,-0x500(%rbp)
    5650:	48 8d 05 59 38 01 00 	lea    0x13859(%rip),%rax        # 18eb0 <g_2301+0x10>
    5657:	48 89 85 08 fb ff ff 	mov    %rax,-0x4f8(%rbp)
    565e:	48 c7 85 10 fb ff ff 	movq   $0x0,-0x4f0(%rbp)
    5665:	00 00 00 00 
    5669:	48 8d 05 34 fa 00 00 	lea    0xfa34(%rip),%rax        # 150a4 <g_81+0x64>
    5670:	48 89 85 18 fb ff ff 	mov    %rax,-0x4e8(%rbp)
    5677:	48 c7 85 20 fb ff ff 	movq   $0x0,-0x4e0(%rbp)
    567e:	00 00 00 00 
    5682:	48 8d 05 27 38 01 00 	lea    0x13827(%rip),%rax        # 18eb0 <g_2301+0x10>
    5689:	48 89 85 28 fb ff ff 	mov    %rax,-0x4d8(%rbp)
    5690:	48 8d 05 c9 fa 00 00 	lea    0xfac9(%rip),%rax        # 15160 <g_82+0x40>
    5697:	48 89 85 30 fb ff ff 	mov    %rax,-0x4d0(%rbp)
    569e:	48 c7 85 38 fb ff ff 	movq   $0x0,-0x4c8(%rbp)
    56a5:	00 00 00 00 
    56a9:	48 8d 05 00 38 01 00 	lea    0x13800(%rip),%rax        # 18eb0 <g_2301+0x10>
    56b0:	48 89 85 40 fb ff ff 	mov    %rax,-0x4c0(%rbp)
    56b7:	48 8d 05 e6 f9 00 00 	lea    0xf9e6(%rip),%rax        # 150a4 <g_81+0x64>
    56be:	48 89 85 48 fb ff ff 	mov    %rax,-0x4b8(%rbp)
    56c5:	48 8d 05 44 50 01 00 	lea    0x15044(%rip),%rax        # 1a710 <g_1552>
    56cc:	48 89 85 50 fb ff ff 	mov    %rax,-0x4b0(%rbp)
    56d3:	48 8d 05 36 50 01 00 	lea    0x15036(%rip),%rax        # 1a710 <g_1552>
    56da:	48 89 85 58 fb ff ff 	mov    %rax,-0x4a8(%rbp)
    56e1:	48 8d 05 78 fa 00 00 	lea    0xfa78(%rip),%rax        # 15160 <g_82+0x40>
    56e8:	48 89 85 60 fb ff ff 	mov    %rax,-0x4a0(%rbp)
    56ef:	48 8d 05 1a 50 01 00 	lea    0x1501a(%rip),%rax        # 1a710 <g_1552>
    56f6:	48 89 85 68 fb ff ff 	mov    %rax,-0x498(%rbp)
    56fd:	48 8d 05 0c 50 01 00 	lea    0x1500c(%rip),%rax        # 1a710 <g_1552>
    5704:	48 89 85 70 fb ff ff 	mov    %rax,-0x490(%rbp)
    570b:	48 8d 05 92 f9 00 00 	lea    0xf992(%rip),%rax        # 150a4 <g_81+0x64>
    5712:	48 89 85 78 fb ff ff 	mov    %rax,-0x488(%rbp)
    5719:	48 8d 05 90 37 01 00 	lea    0x13790(%rip),%rax        # 18eb0 <g_2301+0x10>
    5720:	48 89 85 80 fb ff ff 	mov    %rax,-0x480(%rbp)
    5727:	48 c7 85 88 fb ff ff 	movq   $0x0,-0x478(%rbp)
    572e:	00 00 00 00 
    5732:	48 8d 05 27 fa 00 00 	lea    0xfa27(%rip),%rax        # 15160 <g_82+0x40>
    5739:	48 89 85 90 fb ff ff 	mov    %rax,-0x470(%rbp)
    5740:	48 8d 05 69 37 01 00 	lea    0x13769(%rip),%rax        # 18eb0 <g_2301+0x10>
    5747:	48 89 85 98 fb ff ff 	mov    %rax,-0x468(%rbp)
    574e:	48 c7 85 a0 fb ff ff 	movq   $0x0,-0x460(%rbp)
    5755:	00 00 00 00 
    5759:	48 8d 05 44 f9 00 00 	lea    0xf944(%rip),%rax        # 150a4 <g_81+0x64>
    5760:	48 89 85 a8 fb ff ff 	mov    %rax,-0x458(%rbp)
    5767:	48 c7 85 b0 fb ff ff 	movq   $0x0,-0x450(%rbp)
    576e:	00 00 00 00 
    5772:	48 8d 05 37 37 01 00 	lea    0x13737(%rip),%rax        # 18eb0 <g_2301+0x10>
    5779:	48 89 85 b8 fb ff ff 	mov    %rax,-0x448(%rbp)
    5780:	48 8d 05 d9 f9 00 00 	lea    0xf9d9(%rip),%rax        # 15160 <g_82+0x40>
    5787:	48 89 85 c0 fb ff ff 	mov    %rax,-0x440(%rbp)
    578e:	48 c7 85 c8 fb ff ff 	movq   $0x0,-0x438(%rbp)
    5795:	00 00 00 00 
    5799:	48 8d 05 10 37 01 00 	lea    0x13710(%rip),%rax        # 18eb0 <g_2301+0x10>
    57a0:	48 89 85 d0 fb ff ff 	mov    %rax,-0x430(%rbp)
    57a7:	48 8d 05 f6 f8 00 00 	lea    0xf8f6(%rip),%rax        # 150a4 <g_81+0x64>
    57ae:	48 89 85 d8 fb ff ff 	mov    %rax,-0x428(%rbp)
    57b5:	48 8d 05 a4 f9 00 00 	lea    0xf9a4(%rip),%rax        # 15160 <g_82+0x40>
    57bc:	48 89 85 e0 fb ff ff 	mov    %rax,-0x420(%rbp)
    57c3:	48 8d 05 96 f9 00 00 	lea    0xf996(%rip),%rax        # 15160 <g_82+0x40>
    57ca:	48 89 85 e8 fb ff ff 	mov    %rax,-0x418(%rbp)
    57d1:	48 8d 05 24 03 01 00 	lea    0x10324(%rip),%rax        # 15afc <g_358+0xc>
    57d8:	48 89 85 f0 fb ff ff 	mov    %rax,-0x410(%rbp)
    57df:	48 8d 05 7a f9 00 00 	lea    0xf97a(%rip),%rax        # 15160 <g_82+0x40>
    57e6:	48 89 85 f8 fb ff ff 	mov    %rax,-0x408(%rbp)
    57ed:	48 8d 05 6c f9 00 00 	lea    0xf96c(%rip),%rax        # 15160 <g_82+0x40>
    57f4:	48 89 85 00 fc ff ff 	mov    %rax,-0x400(%rbp)
    57fb:	48 8d 85 5c f7 ff ff 	lea    -0x8a4(%rbp),%rax
    5802:	48 89 85 08 fc ff ff 	mov    %rax,-0x3f8(%rbp)
    5809:	48 8d 05 94 f8 00 00 	lea    0xf894(%rip),%rax        # 150a4 <g_81+0x64>
    5810:	48 89 85 10 fc ff ff 	mov    %rax,-0x3f0(%rbp)
    5817:	48 8d 05 da 02 01 00 	lea    0x102da(%rip),%rax        # 15af8 <g_358+0x8>
    581e:	48 89 85 18 fc ff ff 	mov    %rax,-0x3e8(%rbp)
    5825:	48 8d 05 d0 02 01 00 	lea    0x102d0(%rip),%rax        # 15afc <g_358+0xc>
    582c:	48 89 85 20 fc ff ff 	mov    %rax,-0x3e0(%rbp)
    5833:	48 8d 05 6a f8 00 00 	lea    0xf86a(%rip),%rax        # 150a4 <g_81+0x64>
    583a:	48 89 85 28 fc ff ff 	mov    %rax,-0x3d8(%rbp)
    5841:	48 8d 05 b0 02 01 00 	lea    0x102b0(%rip),%rax        # 15af8 <g_358+0x8>
    5848:	48 89 85 30 fc ff ff 	mov    %rax,-0x3d0(%rbp)
    584f:	48 8d 85 5c f7 ff ff 	lea    -0x8a4(%rbp),%rax
    5856:	48 89 85 38 fc ff ff 	mov    %rax,-0x3c8(%rbp)
    585d:	48 8d 05 94 02 01 00 	lea    0x10294(%rip),%rax        # 15af8 <g_358+0x8>
    5864:	48 89 85 40 fc ff ff 	mov    %rax,-0x3c0(%rbp)
    586b:	48 8d 05 32 f8 00 00 	lea    0xf832(%rip),%rax        # 150a4 <g_81+0x64>
    5872:	48 89 85 48 fc ff ff 	mov    %rax,-0x3b8(%rbp)
    5879:	48 8d 05 7c 02 01 00 	lea    0x1027c(%rip),%rax        # 15afc <g_358+0xc>
    5880:	48 89 85 50 fc ff ff 	mov    %rax,-0x3b0(%rbp)
    5887:	48 8d 05 6a 02 01 00 	lea    0x1026a(%rip),%rax        # 15af8 <g_358+0x8>
    588e:	48 89 85 58 fc ff ff 	mov    %rax,-0x3a8(%rbp)
    5895:	48 8d 05 08 f8 00 00 	lea    0xf808(%rip),%rax        # 150a4 <g_81+0x64>
    589c:	48 89 85 60 fc ff ff 	mov    %rax,-0x3a0(%rbp)
    58a3:	48 8d 85 5c f7 ff ff 	lea    -0x8a4(%rbp),%rax
    58aa:	48 89 85 68 fc ff ff 	mov    %rax,-0x398(%rbp)
    58b1:	48 8d 05 a8 f8 00 00 	lea    0xf8a8(%rip),%rax        # 15160 <g_82+0x40>
    58b8:	48 89 85 70 fc ff ff 	mov    %rax,-0x390(%rbp)
    58bf:	48 8d 05 9a f8 00 00 	lea    0xf89a(%rip),%rax        # 15160 <g_82+0x40>
    58c6:	48 89 85 78 fc ff ff 	mov    %rax,-0x388(%rbp)
    58cd:	48 8d 05 28 02 01 00 	lea    0x10228(%rip),%rax        # 15afc <g_358+0xc>
    58d4:	48 89 85 80 fc ff ff 	mov    %rax,-0x380(%rbp)
    58db:	48 8d 05 7e f8 00 00 	lea    0xf87e(%rip),%rax        # 15160 <g_82+0x40>
    58e2:	48 89 85 88 fc ff ff 	mov    %rax,-0x378(%rbp)
    58e9:	48 8d 05 70 f8 00 00 	lea    0xf870(%rip),%rax        # 15160 <g_82+0x40>
    58f0:	48 89 85 90 fc ff ff 	mov    %rax,-0x370(%rbp)
    58f7:	48 8d 85 5c f7 ff ff 	lea    -0x8a4(%rbp),%rax
    58fe:	48 89 85 98 fc ff ff 	mov    %rax,-0x368(%rbp)
    5905:	48 8d 05 98 f7 00 00 	lea    0xf798(%rip),%rax        # 150a4 <g_81+0x64>
    590c:	48 89 85 a0 fc ff ff 	mov    %rax,-0x360(%rbp)
    5913:	48 8d 05 de 01 01 00 	lea    0x101de(%rip),%rax        # 15af8 <g_358+0x8>
    591a:	48 89 85 a8 fc ff ff 	mov    %rax,-0x358(%rbp)
    5921:	48 8d 05 d4 01 01 00 	lea    0x101d4(%rip),%rax        # 15afc <g_358+0xc>
    5928:	48 89 85 b0 fc ff ff 	mov    %rax,-0x350(%rbp)
    592f:	48 8d 05 6e f7 00 00 	lea    0xf76e(%rip),%rax        # 150a4 <g_81+0x64>
    5936:	48 89 85 b8 fc ff ff 	mov    %rax,-0x348(%rbp)
    593d:	48 8d 05 b4 01 01 00 	lea    0x101b4(%rip),%rax        # 15af8 <g_358+0x8>
    5944:	48 89 85 c0 fc ff ff 	mov    %rax,-0x340(%rbp)
    594b:	48 8d 85 5c f7 ff ff 	lea    -0x8a4(%rbp),%rax
    5952:	48 89 85 c8 fc ff ff 	mov    %rax,-0x338(%rbp)
    5959:	48 8d 05 98 01 01 00 	lea    0x10198(%rip),%rax        # 15af8 <g_358+0x8>
    5960:	48 89 85 d0 fc ff ff 	mov    %rax,-0x330(%rbp)
    5967:	48 8d 05 36 f7 00 00 	lea    0xf736(%rip),%rax        # 150a4 <g_81+0x64>
    596e:	48 89 85 d8 fc ff ff 	mov    %rax,-0x328(%rbp)
    5975:	48 8d 05 80 01 01 00 	lea    0x10180(%rip),%rax        # 15afc <g_358+0xc>
    597c:	48 89 85 e0 fc ff ff 	mov    %rax,-0x320(%rbp)
    5983:	48 8d 05 6e 01 01 00 	lea    0x1016e(%rip),%rax        # 15af8 <g_358+0x8>
    598a:	48 89 85 e8 fc ff ff 	mov    %rax,-0x318(%rbp)
    5991:	48 8d 05 0c f7 00 00 	lea    0xf70c(%rip),%rax        # 150a4 <g_81+0x64>
    5998:	48 89 85 f0 fc ff ff 	mov    %rax,-0x310(%rbp)
    599f:	48 8d 85 5c f7 ff ff 	lea    -0x8a4(%rbp),%rax
    59a6:	48 89 85 f8 fc ff ff 	mov    %rax,-0x308(%rbp)
    59ad:	48 8d 05 ac f7 00 00 	lea    0xf7ac(%rip),%rax        # 15160 <g_82+0x40>
    59b4:	48 89 85 00 fd ff ff 	mov    %rax,-0x300(%rbp)
    59bb:	48 8d 05 9e f7 00 00 	lea    0xf79e(%rip),%rax        # 15160 <g_82+0x40>
    59c2:	48 89 85 08 fd ff ff 	mov    %rax,-0x2f8(%rbp)
    59c9:	48 8d 05 2c 01 01 00 	lea    0x1012c(%rip),%rax        # 15afc <g_358+0xc>
    59d0:	48 89 85 10 fd ff ff 	mov    %rax,-0x2f0(%rbp)
    59d7:	48 8d 05 82 f7 00 00 	lea    0xf782(%rip),%rax        # 15160 <g_82+0x40>
    59de:	48 89 85 18 fd ff ff 	mov    %rax,-0x2e8(%rbp)
    59e5:	48 8d 05 74 f7 00 00 	lea    0xf774(%rip),%rax        # 15160 <g_82+0x40>
    59ec:	48 89 85 20 fd ff ff 	mov    %rax,-0x2e0(%rbp)
    59f3:	48 8d 85 5c f7 ff ff 	lea    -0x8a4(%rbp),%rax
    59fa:	48 89 85 28 fd ff ff 	mov    %rax,-0x2d8(%rbp)
    5a01:	48 8d 05 9c f6 00 00 	lea    0xf69c(%rip),%rax        # 150a4 <g_81+0x64>
    5a08:	48 89 85 30 fd ff ff 	mov    %rax,-0x2d0(%rbp)
    5a0f:	48 8d 05 e2 00 01 00 	lea    0x100e2(%rip),%rax        # 15af8 <g_358+0x8>
    5a16:	48 89 85 38 fd ff ff 	mov    %rax,-0x2c8(%rbp)
    5a1d:	48 8d 05 d8 00 01 00 	lea    0x100d8(%rip),%rax        # 15afc <g_358+0xc>
    5a24:	48 89 85 40 fd ff ff 	mov    %rax,-0x2c0(%rbp)
    5a2b:	48 8d 05 72 f6 00 00 	lea    0xf672(%rip),%rax        # 150a4 <g_81+0x64>
    5a32:	48 89 85 48 fd ff ff 	mov    %rax,-0x2b8(%rbp)
    5a39:	48 8d 05 b8 00 01 00 	lea    0x100b8(%rip),%rax        # 15af8 <g_358+0x8>
    5a40:	48 89 85 50 fd ff ff 	mov    %rax,-0x2b0(%rbp)
    5a47:	48 8d 85 5c f7 ff ff 	lea    -0x8a4(%rbp),%rax
    5a4e:	48 89 85 58 fd ff ff 	mov    %rax,-0x2a8(%rbp)
    5a55:	48 8d 05 9c 00 01 00 	lea    0x1009c(%rip),%rax        # 15af8 <g_358+0x8>
    5a5c:	48 89 85 60 fd ff ff 	mov    %rax,-0x2a0(%rbp)
    5a63:	48 8d 05 3a f6 00 00 	lea    0xf63a(%rip),%rax        # 150a4 <g_81+0x64>
    5a6a:	48 89 85 68 fd ff ff 	mov    %rax,-0x298(%rbp)
    5a71:	48 8d 05 84 00 01 00 	lea    0x10084(%rip),%rax        # 15afc <g_358+0xc>
    5a78:	48 89 85 70 fd ff ff 	mov    %rax,-0x290(%rbp)
    5a7f:	48 8d 05 72 00 01 00 	lea    0x10072(%rip),%rax        # 15af8 <g_358+0x8>
    5a86:	48 89 85 78 fd ff ff 	mov    %rax,-0x288(%rbp)
    5a8d:	48 8d 05 10 f6 00 00 	lea    0xf610(%rip),%rax        # 150a4 <g_81+0x64>
    5a94:	48 89 85 80 fd ff ff 	mov    %rax,-0x280(%rbp)
    5a9b:	48 8d 85 5c f7 ff ff 	lea    -0x8a4(%rbp),%rax
    5aa2:	48 89 85 88 fd ff ff 	mov    %rax,-0x278(%rbp)
    5aa9:	48 8d 05 b0 f6 00 00 	lea    0xf6b0(%rip),%rax        # 15160 <g_82+0x40>
    5ab0:	48 89 85 90 fd ff ff 	mov    %rax,-0x270(%rbp)
    5ab7:	48 8d 05 a2 f6 00 00 	lea    0xf6a2(%rip),%rax        # 15160 <g_82+0x40>
    5abe:	48 89 85 98 fd ff ff 	mov    %rax,-0x268(%rbp)
    5ac5:	48 8d 05 30 00 01 00 	lea    0x10030(%rip),%rax        # 15afc <g_358+0xc>
    5acc:	48 89 85 a0 fd ff ff 	mov    %rax,-0x260(%rbp)
    5ad3:	48 8d 05 86 f6 00 00 	lea    0xf686(%rip),%rax        # 15160 <g_82+0x40>
    5ada:	48 89 85 a8 fd ff ff 	mov    %rax,-0x258(%rbp)
    5ae1:	48 8d 05 78 f6 00 00 	lea    0xf678(%rip),%rax        # 15160 <g_82+0x40>
    5ae8:	48 89 85 b0 fd ff ff 	mov    %rax,-0x250(%rbp)
    5aef:	48 8d 85 5c f7 ff ff 	lea    -0x8a4(%rbp),%rax
    5af6:	48 89 85 b8 fd ff ff 	mov    %rax,-0x248(%rbp)
    5afd:	48 8d 05 a0 f5 00 00 	lea    0xf5a0(%rip),%rax        # 150a4 <g_81+0x64>
    5b04:	48 89 85 c0 fd ff ff 	mov    %rax,-0x240(%rbp)
    5b0b:	48 8d 05 e6 ff 00 00 	lea    0xffe6(%rip),%rax        # 15af8 <g_358+0x8>
    5b12:	48 89 85 c8 fd ff ff 	mov    %rax,-0x238(%rbp)
    5b19:	48 8d 05 dc ff 00 00 	lea    0xffdc(%rip),%rax        # 15afc <g_358+0xc>
    5b20:	48 89 85 d0 fd ff ff 	mov    %rax,-0x230(%rbp)
    5b27:	48 8d 05 76 f5 00 00 	lea    0xf576(%rip),%rax        # 150a4 <g_81+0x64>
    5b2e:	48 89 85 d8 fd ff ff 	mov    %rax,-0x228(%rbp)
    5b35:	48 8d 05 bc ff 00 00 	lea    0xffbc(%rip),%rax        # 15af8 <g_358+0x8>
    5b3c:	48 89 85 e0 fd ff ff 	mov    %rax,-0x220(%rbp)
    5b43:	48 8d 85 5c f7 ff ff 	lea    -0x8a4(%rbp),%rax
    5b4a:	48 89 85 e8 fd ff ff 	mov    %rax,-0x218(%rbp)
    5b51:	48 8d 05 a0 ff 00 00 	lea    0xffa0(%rip),%rax        # 15af8 <g_358+0x8>
    5b58:	48 89 85 f0 fd ff ff 	mov    %rax,-0x210(%rbp)
    5b5f:	48 8d 05 3e f5 00 00 	lea    0xf53e(%rip),%rax        # 150a4 <g_81+0x64>
    5b66:	48 89 85 f8 fd ff ff 	mov    %rax,-0x208(%rbp)
    5b6d:	48 8d 05 88 ff 00 00 	lea    0xff88(%rip),%rax        # 15afc <g_358+0xc>
    5b74:	48 89 85 00 fe ff ff 	mov    %rax,-0x200(%rbp)
    5b7b:	48 8d 05 76 ff 00 00 	lea    0xff76(%rip),%rax        # 15af8 <g_358+0x8>
    5b82:	48 89 85 08 fe ff ff 	mov    %rax,-0x1f8(%rbp)
    5b89:	48 8d 05 14 f5 00 00 	lea    0xf514(%rip),%rax        # 150a4 <g_81+0x64>
    5b90:	48 89 85 10 fe ff ff 	mov    %rax,-0x1f0(%rbp)
    5b97:	48 8d 85 5c f7 ff ff 	lea    -0x8a4(%rbp),%rax
    5b9e:	48 89 85 18 fe ff ff 	mov    %rax,-0x1e8(%rbp)
    5ba5:	48 8d 05 b4 f5 00 00 	lea    0xf5b4(%rip),%rax        # 15160 <g_82+0x40>
    5bac:	48 89 85 20 fe ff ff 	mov    %rax,-0x1e0(%rbp)
    5bb3:	48 8d 05 a6 f5 00 00 	lea    0xf5a6(%rip),%rax        # 15160 <g_82+0x40>
    5bba:	48 89 85 28 fe ff ff 	mov    %rax,-0x1d8(%rbp)
    5bc1:	48 8d 05 34 ff 00 00 	lea    0xff34(%rip),%rax        # 15afc <g_358+0xc>
    5bc8:	48 89 85 30 fe ff ff 	mov    %rax,-0x1d0(%rbp)
    5bcf:	48 8d 05 8a f5 00 00 	lea    0xf58a(%rip),%rax        # 15160 <g_82+0x40>
    5bd6:	48 89 85 38 fe ff ff 	mov    %rax,-0x1c8(%rbp)
    5bdd:	48 8d 05 7c f5 00 00 	lea    0xf57c(%rip),%rax        # 15160 <g_82+0x40>
    5be4:	48 89 85 40 fe ff ff 	mov    %rax,-0x1c0(%rbp)
    5beb:	48 8d 85 5c f7 ff ff 	lea    -0x8a4(%rbp),%rax
    5bf2:	48 89 85 48 fe ff ff 	mov    %rax,-0x1b8(%rbp)
    5bf9:	48 8d 05 a4 f4 00 00 	lea    0xf4a4(%rip),%rax        # 150a4 <g_81+0x64>
    5c00:	48 89 85 50 fe ff ff 	mov    %rax,-0x1b0(%rbp)
    5c07:	48 8d 05 ea fe 00 00 	lea    0xfeea(%rip),%rax        # 15af8 <g_358+0x8>
    5c0e:	48 89 85 58 fe ff ff 	mov    %rax,-0x1a8(%rbp)
    5c15:	48 8d 05 e0 fe 00 00 	lea    0xfee0(%rip),%rax        # 15afc <g_358+0xc>
    5c1c:	48 89 85 60 fe ff ff 	mov    %rax,-0x1a0(%rbp)
    5c23:	48 8d 05 7a f4 00 00 	lea    0xf47a(%rip),%rax        # 150a4 <g_81+0x64>
    5c2a:	48 89 85 68 fe ff ff 	mov    %rax,-0x198(%rbp)
    5c31:	48 8d 05 c0 fe 00 00 	lea    0xfec0(%rip),%rax        # 15af8 <g_358+0x8>
    5c38:	48 89 85 70 fe ff ff 	mov    %rax,-0x190(%rbp)
    5c3f:	48 8d 85 5c f7 ff ff 	lea    -0x8a4(%rbp),%rax
    5c46:	48 89 85 78 fe ff ff 	mov    %rax,-0x188(%rbp)
    5c4d:	48 8d 05 a4 fe 00 00 	lea    0xfea4(%rip),%rax        # 15af8 <g_358+0x8>
    5c54:	48 89 85 80 fe ff ff 	mov    %rax,-0x180(%rbp)
    5c5b:	48 8d 05 42 f4 00 00 	lea    0xf442(%rip),%rax        # 150a4 <g_81+0x64>
    5c62:	48 89 85 88 fe ff ff 	mov    %rax,-0x178(%rbp)
    5c69:	48 8d 05 8c fe 00 00 	lea    0xfe8c(%rip),%rax        # 15afc <g_358+0xc>
    5c70:	48 89 85 90 fe ff ff 	mov    %rax,-0x170(%rbp)
    5c77:	48 8d 05 7a fe 00 00 	lea    0xfe7a(%rip),%rax        # 15af8 <g_358+0x8>
    5c7e:	48 89 85 98 fe ff ff 	mov    %rax,-0x168(%rbp)
    5c85:	48 8d 05 18 f4 00 00 	lea    0xf418(%rip),%rax        # 150a4 <g_81+0x64>
    5c8c:	48 89 85 a0 fe ff ff 	mov    %rax,-0x160(%rbp)
    5c93:	48 8d 85 5c f7 ff ff 	lea    -0x8a4(%rbp),%rax
    5c9a:	48 89 85 a8 fe ff ff 	mov    %rax,-0x158(%rbp)
    5ca1:	48 8d 05 b8 f4 00 00 	lea    0xf4b8(%rip),%rax        # 15160 <g_82+0x40>
    5ca8:	48 89 85 b0 fe ff ff 	mov    %rax,-0x150(%rbp)
    5caf:	48 8d 05 aa f4 00 00 	lea    0xf4aa(%rip),%rax        # 15160 <g_82+0x40>
    5cb6:	48 89 85 b8 fe ff ff 	mov    %rax,-0x148(%rbp)
    5cbd:	48 8d 05 38 fe 00 00 	lea    0xfe38(%rip),%rax        # 15afc <g_358+0xc>
    5cc4:	48 89 85 c0 fe ff ff 	mov    %rax,-0x140(%rbp)
    5ccb:	48 8d 05 8e f4 00 00 	lea    0xf48e(%rip),%rax        # 15160 <g_82+0x40>
    5cd2:	48 89 85 c8 fe ff ff 	mov    %rax,-0x138(%rbp)
    5cd9:	48 8d 05 80 f4 00 00 	lea    0xf480(%rip),%rax        # 15160 <g_82+0x40>
    5ce0:	48 89 85 d0 fe ff ff 	mov    %rax,-0x130(%rbp)
    5ce7:	48 8d 85 5c f7 ff ff 	lea    -0x8a4(%rbp),%rax
    5cee:	48 89 85 d8 fe ff ff 	mov    %rax,-0x128(%rbp)
    5cf5:	48 8d 05 a8 f3 00 00 	lea    0xf3a8(%rip),%rax        # 150a4 <g_81+0x64>
    5cfc:	48 89 85 e0 fe ff ff 	mov    %rax,-0x120(%rbp)
    5d03:	48 8d 05 ee fd 00 00 	lea    0xfdee(%rip),%rax        # 15af8 <g_358+0x8>
    5d0a:	48 89 85 e8 fe ff ff 	mov    %rax,-0x118(%rbp)
    5d11:	48 8d 05 e4 fd 00 00 	lea    0xfde4(%rip),%rax        # 15afc <g_358+0xc>
    5d18:	48 89 85 f0 fe ff ff 	mov    %rax,-0x110(%rbp)
    5d1f:	48 8d 05 7e f3 00 00 	lea    0xf37e(%rip),%rax        # 150a4 <g_81+0x64>
    5d26:	48 89 85 f8 fe ff ff 	mov    %rax,-0x108(%rbp)
    5d2d:	48 8d 05 c4 fd 00 00 	lea    0xfdc4(%rip),%rax        # 15af8 <g_358+0x8>
    5d34:	48 89 85 00 ff ff ff 	mov    %rax,-0x100(%rbp)
    5d3b:	48 8d 85 5c f7 ff ff 	lea    -0x8a4(%rbp),%rax
    5d42:	48 89 85 08 ff ff ff 	mov    %rax,-0xf8(%rbp)
    5d49:	48 8d 05 a8 fd 00 00 	lea    0xfda8(%rip),%rax        # 15af8 <g_358+0x8>
    5d50:	48 89 85 10 ff ff ff 	mov    %rax,-0xf0(%rbp)
    5d57:	48 8d 05 46 f3 00 00 	lea    0xf346(%rip),%rax        # 150a4 <g_81+0x64>
    5d5e:	48 89 85 18 ff ff ff 	mov    %rax,-0xe8(%rbp)
    5d65:	48 8d 05 90 fd 00 00 	lea    0xfd90(%rip),%rax        # 15afc <g_358+0xc>
    5d6c:	48 89 85 20 ff ff ff 	mov    %rax,-0xe0(%rbp)
    5d73:	48 8d 05 7e fd 00 00 	lea    0xfd7e(%rip),%rax        # 15af8 <g_358+0x8>
    5d7a:	48 89 85 28 ff ff ff 	mov    %rax,-0xd8(%rbp)
    5d81:	48 8d 05 1c f3 00 00 	lea    0xf31c(%rip),%rax        # 150a4 <g_81+0x64>
    5d88:	48 89 85 30 ff ff ff 	mov    %rax,-0xd0(%rbp)
    5d8f:	48 8d 85 5c f7 ff ff 	lea    -0x8a4(%rbp),%rax
    5d96:	48 89 85 38 ff ff ff 	mov    %rax,-0xc8(%rbp)
    5d9d:	48 8d 05 bc f3 00 00 	lea    0xf3bc(%rip),%rax        # 15160 <g_82+0x40>
    5da4:	48 89 85 40 ff ff ff 	mov    %rax,-0xc0(%rbp)
    5dab:	48 8d 05 ae f3 00 00 	lea    0xf3ae(%rip),%rax        # 15160 <g_82+0x40>
    5db2:	48 89 85 48 ff ff ff 	mov    %rax,-0xb8(%rbp)
    5db9:	48 8d 05 3c fd 00 00 	lea    0xfd3c(%rip),%rax        # 15afc <g_358+0xc>
    5dc0:	48 89 85 50 ff ff ff 	mov    %rax,-0xb0(%rbp)
    5dc7:	48 8d 05 92 f3 00 00 	lea    0xf392(%rip),%rax        # 15160 <g_82+0x40>
    5dce:	48 89 85 58 ff ff ff 	mov    %rax,-0xa8(%rbp)
    5dd5:	48 8d 05 84 f3 00 00 	lea    0xf384(%rip),%rax        # 15160 <g_82+0x40>
    5ddc:	48 89 85 60 ff ff ff 	mov    %rax,-0xa0(%rbp)
    5de3:	48 8d 85 5c f7 ff ff 	lea    -0x8a4(%rbp),%rax
    5dea:	48 89 85 68 ff ff ff 	mov    %rax,-0x98(%rbp)
    5df1:	48 8d 05 ac f2 00 00 	lea    0xf2ac(%rip),%rax        # 150a4 <g_81+0x64>
    5df8:	48 89 85 70 ff ff ff 	mov    %rax,-0x90(%rbp)
    5dff:	48 8d 05 f2 fc 00 00 	lea    0xfcf2(%rip),%rax        # 15af8 <g_358+0x8>
    5e06:	48 89 85 78 ff ff ff 	mov    %rax,-0x88(%rbp)
    5e0d:	48 8d 05 e8 fc 00 00 	lea    0xfce8(%rip),%rax        # 15afc <g_358+0xc>
    5e14:	48 89 45 80          	mov    %rax,-0x80(%rbp)
    5e18:	48 8d 05 85 f2 00 00 	lea    0xf285(%rip),%rax        # 150a4 <g_81+0x64>
    5e1f:	48 89 45 88          	mov    %rax,-0x78(%rbp)
    5e23:	48 8d 05 ce fc 00 00 	lea    0xfcce(%rip),%rax        # 15af8 <g_358+0x8>
    5e2a:	48 89 45 90          	mov    %rax,-0x70(%rbp)
    5e2e:	48 8d 85 5c f7 ff ff 	lea    -0x8a4(%rbp),%rax
    5e35:	48 89 45 98          	mov    %rax,-0x68(%rbp)
    5e39:	48 8d 05 b8 fc 00 00 	lea    0xfcb8(%rip),%rax        # 15af8 <g_358+0x8>
    5e40:	48 89 45 a0          	mov    %rax,-0x60(%rbp)
    5e44:	48 8d 05 59 f2 00 00 	lea    0xf259(%rip),%rax        # 150a4 <g_81+0x64>
    5e4b:	48 89 45 a8          	mov    %rax,-0x58(%rbp)
    5e4f:	48 8d 05 a6 fc 00 00 	lea    0xfca6(%rip),%rax        # 15afc <g_358+0xc>
    5e56:	48 89 45 b0          	mov    %rax,-0x50(%rbp)
    5e5a:	48 8d 05 97 fc 00 00 	lea    0xfc97(%rip),%rax        # 15af8 <g_358+0x8>
    5e61:	48 89 45 b8          	mov    %rax,-0x48(%rbp)
    5e65:	48 8d 05 38 f2 00 00 	lea    0xf238(%rip),%rax        # 150a4 <g_81+0x64>
    5e6c:	48 89 45 c0          	mov    %rax,-0x40(%rbp)
    5e70:	48 8d 85 5c f7 ff ff 	lea    -0x8a4(%rbp),%rax
    5e77:	48 89 45 c8          	mov    %rax,-0x38(%rbp)
    5e7b:	48 8d 05 de f2 00 00 	lea    0xf2de(%rip),%rax        # 15160 <g_82+0x40>
    5e82:	48 89 45 d0          	mov    %rax,-0x30(%rbp)
    5e86:	48 8d 05 d3 f2 00 00 	lea    0xf2d3(%rip),%rax        # 15160 <g_82+0x40>
    5e8d:	48 89 45 d8          	mov    %rax,-0x28(%rbp)
    5e91:	48 8d 05 64 fc 00 00 	lea    0xfc64(%rip),%rax        # 15afc <g_358+0xc>
    5e98:	48 89 45 e0          	mov    %rax,-0x20(%rbp)
    5e9c:	48 8d 05 bd f2 00 00 	lea    0xf2bd(%rip),%rax        # 15160 <g_82+0x40>
    5ea3:	48 89 45 e8          	mov    %rax,-0x18(%rbp)
    5ea7:	48 83 ad 98 f7 ff ff 	subq   $0x1,-0x868(%rbp)
    5eae:	01 
    5eaf:	0f b6 85 48 f7 ff ff 	movzbl -0x8b8(%rbp),%eax
    5eb6:	e9 8f 00 00 00       	jmpq   5f4a <func_5+0x164e>
    5ebb:	0f b6 85 fb f8 ff ff 	movzbl -0x705(%rbp),%eax
    5ec2:	83 e8 01             	sub    $0x1,%eax
    5ec5:	88 85 fb f8 ff ff    	mov    %al,-0x705(%rbp)
    5ecb:	8b 05 a3 2d 01 00    	mov    0x12da3(%rip),%eax        # 18c74 <g_2232+0x14>
    5ed1:	83 e8 01             	sub    $0x1,%eax
    5ed4:	89 05 9a 2d 01 00    	mov    %eax,0x12d9a(%rip)        # 18c74 <g_2232+0x14>
    5eda:	8b 05 94 2d 01 00    	mov    0x12d94(%rip),%eax        # 18c74 <g_2232+0x14>
    5ee0:	85 c0                	test   %eax,%eax
    5ee2:	0f 89 70 ee ff ff    	jns    4d58 <func_5+0x45c>
    5ee8:	48 8b 05 89 41 01 00 	mov    0x14189(%rip),%rax        # 1a078 <g_212>
    5eef:	48 8d 95 58 f7 ff ff 	lea    -0x8a8(%rbp),%rdx
    5ef6:	48 89 10             	mov    %rdx,(%rax)
    5ef9:	48 8b 05 64 2e 01 00 	mov    0x12e64(%rip),%rax        # 18d64 <g_2236+0x4>
    5f00:	48 83 c0 01          	add    $0x1,%rax
    5f04:	48 89 05 59 2e 01 00 	mov    %rax,0x12e59(%rip)        # 18d64 <g_2236+0x4>
    5f0b:	48 8b 05 52 2e 01 00 	mov    0x12e52(%rip),%rax        # 18d64 <g_2236+0x4>
    5f12:	48 83 f8 18          	cmp    $0x18,%rax
    5f16:	0f 8e 07 ec ff ff    	jle    4b23 <func_5+0x227>
    5f1c:	8b 05 56 07 01 00    	mov    0x10756(%rip),%eax        # 16678 <g_2226+0x18>
    5f22:	be 09 00 00 00       	mov    $0x9,%esi
    5f27:	89 c7                	mov    %eax,%edi
    5f29:	e8 a2 df ff ff       	callq  3ed0 <safe_sub_func_uint32_t_u_u>
    5f2e:	89 05 44 07 01 00    	mov    %eax,0x10744(%rip)        # 16678 <g_2226+0x18>
    5f34:	8b 05 3e 07 01 00    	mov    0x1073e(%rip),%eax        # 16678 <g_2226+0x18>
    5f3a:	83 f8 e9             	cmp    $0xffffffe9,%eax
    5f3d:	0f 8d 7b ea ff ff    	jge    49be <func_5+0xc2>
    5f43:	0f b6 85 48 f7 ff ff 	movzbl -0x8b8(%rbp),%eax
    5f4a:	48 8b 4d f8          	mov    -0x8(%rbp),%rcx
    5f4e:	64 48 33 0c 25 28 00 	xor    %fs:0x28,%rcx
    5f55:	00 00 
    5f57:	74 05                	je     5f5e <func_5+0x1662>
    5f59:	e8 12 d1 ff ff       	callq  3070 <__stack_chk_fail@plt>
    5f5e:	c9                   	leaveq 
    5f5f:	c3                   	retq   

0000000000005f60 <func_17>:
    5f60:	f3 0f 1e fa          	endbr64 
    5f64:	55                   	push   %rbp
    5f65:	48 89 e5             	mov    %rsp,%rbp
    5f68:	41 56                	push   %r14
    5f6a:	41 55                	push   %r13
    5f6c:	41 54                	push   %r12
    5f6e:	53                   	push   %rbx
    5f6f:	48 81 ec 00 10 00 00 	sub    $0x1000,%rsp
    5f76:	48 83 0c 24 00       	orq    $0x0,(%rsp)
    5f7b:	48 83 c4 80          	add    $0xffffffffffffff80,%rsp
    5f7f:	89 bd 7c ef ff ff    	mov    %edi,-0x1084(%rbp)
    5f85:	48 89 b5 70 ef ff ff 	mov    %rsi,-0x1090(%rbp)
    5f8c:	48 89 95 68 ef ff ff 	mov    %rdx,-0x1098(%rbp)
    5f93:	89 c8                	mov    %ecx,%eax
    5f95:	44 89 85 64 ef ff ff 	mov    %r8d,-0x109c(%rbp)
    5f9c:	66 89 85 78 ef ff ff 	mov    %ax,-0x1088(%rbp)
    5fa3:	64 48 8b 04 25 28 00 	mov    %fs:0x28,%rax
    5faa:	00 00 
    5fac:	48 89 45 d8          	mov    %rax,-0x28(%rbp)
    5fb0:	31 c0                	xor    %eax,%eax
    5fb2:	c7 85 d8 ef ff ff 01 	movl   $0x1,-0x1028(%rbp)
    5fb9:	00 00 00 
    5fbc:	c7 85 bc ef ff ff 26 	movl   $0x27a03e26,-0x1044(%rbp)
    5fc3:	3e a0 27 
    5fc6:	c7 85 dc ef ff ff 20 	movl   $0x33e1ad20,-0x1024(%rbp)
    5fcd:	ad e1 33 
    5fd0:	c7 85 9c ef ff ff df 	movl   $0xf3d2df,-0x1064(%rbp)
    5fd7:	d2 f3 00 
    5fda:	c7 85 a0 ef ff ff 09 	movl   $0x9,-0x1060(%rbp)
    5fe1:	00 00 00 
    5fe4:	c7 85 b8 ef ff ff 09 	movl   $0x9,-0x1048(%rbp)
    5feb:	00 00 00 
    5fee:	c7 85 e0 ef ff ff 00 	movl   $0x0,-0x1020(%rbp)
    5ff5:	00 00 00 
    5ff8:	c7 85 a4 ef ff ff fd 	movl   $0xfffffffd,-0x105c(%rbp)
    5fff:	ff ff ff 
    6002:	c7 85 a0 f2 ff ff 05 	movl   $0x5,-0xd60(%rbp)
    6009:	00 00 00 
    600c:	c7 85 a4 f2 ff ff 05 	movl   $0x5,-0xd5c(%rbp)
    6013:	00 00 00 
    6016:	c7 85 a8 f2 ff ff 05 	movl   $0x5,-0xd58(%rbp)
    601d:	00 00 00 
    6020:	c7 85 ac f2 ff ff 05 	movl   $0x5,-0xd54(%rbp)
    6027:	00 00 00 
    602a:	c7 85 b0 f2 ff ff 05 	movl   $0x5,-0xd50(%rbp)
    6031:	00 00 00 
    6034:	c7 85 b4 f2 ff ff 05 	movl   $0x5,-0xd4c(%rbp)
    603b:	00 00 00 
    603e:	c7 85 b8 f2 ff ff 05 	movl   $0x5,-0xd48(%rbp)
    6045:	00 00 00 
    6048:	c7 85 bc f2 ff ff 05 	movl   $0x5,-0xd44(%rbp)
    604f:	00 00 00 
    6052:	c7 85 c0 f2 ff ff 05 	movl   $0x5,-0xd40(%rbp)
    6059:	00 00 00 
    605c:	c7 85 c4 f2 ff ff ff 	movl   $0xffffffff,-0xd3c(%rbp)
    6063:	ff ff ff 
    6066:	c7 85 c8 f2 ff ff ff 	movl   $0xffffffff,-0xd38(%rbp)
    606d:	ff ff ff 
    6070:	c7 85 cc f2 ff ff ff 	movl   $0xffffffff,-0xd34(%rbp)
    6077:	ff ff ff 
    607a:	c7 85 d0 f2 ff ff ff 	movl   $0xffffffff,-0xd30(%rbp)
    6081:	ff ff ff 
    6084:	c7 85 d4 f2 ff ff ff 	movl   $0xffffffff,-0xd2c(%rbp)
    608b:	ff ff ff 
    608e:	c7 85 d8 f2 ff ff ff 	movl   $0xffffffff,-0xd28(%rbp)
    6095:	ff ff ff 
    6098:	c7 85 dc f2 ff ff ff 	movl   $0xffffffff,-0xd24(%rbp)
    609f:	ff ff ff 
    60a2:	c7 85 e0 f2 ff ff ff 	movl   $0xffffffff,-0xd20(%rbp)
    60a9:	ff ff ff 
    60ac:	c7 85 e4 f2 ff ff ff 	movl   $0xffffffff,-0xd1c(%rbp)
    60b3:	ff ff ff 
    60b6:	c7 85 e8 f2 ff ff 05 	movl   $0x5,-0xd18(%rbp)
    60bd:	00 00 00 
    60c0:	c7 85 ec f2 ff ff 05 	movl   $0x5,-0xd14(%rbp)
    60c7:	00 00 00 
    60ca:	c7 85 f0 f2 ff ff 05 	movl   $0x5,-0xd10(%rbp)
    60d1:	00 00 00 
    60d4:	c7 85 f4 f2 ff ff 05 	movl   $0x5,-0xd0c(%rbp)
    60db:	00 00 00 
    60de:	c7 85 f8 f2 ff ff 05 	movl   $0x5,-0xd08(%rbp)
    60e5:	00 00 00 
    60e8:	c7 85 fc f2 ff ff 05 	movl   $0x5,-0xd04(%rbp)
    60ef:	00 00 00 
    60f2:	c7 85 00 f3 ff ff 05 	movl   $0x5,-0xd00(%rbp)
    60f9:	00 00 00 
    60fc:	c7 85 04 f3 ff ff 05 	movl   $0x5,-0xcfc(%rbp)
    6103:	00 00 00 
    6106:	c7 85 08 f3 ff ff 05 	movl   $0x5,-0xcf8(%rbp)
    610d:	00 00 00 
    6110:	66 c7 85 94 ef ff ff 	movw   $0x95b8,-0x106c(%rbp)
    6117:	b8 95 
    6119:	48 8d 05 70 3f 01 00 	lea    0x13f70(%rip),%rax        # 1a090 <g_856>
    6120:	48 89 85 28 f0 ff ff 	mov    %rax,-0xfd8(%rbp)
    6127:	48 8d 85 28 f0 ff ff 	lea    -0xfd8(%rbp),%rax
    612e:	48 89 85 70 f0 ff ff 	mov    %rax,-0xf90(%rbp)
    6135:	48 c7 85 78 f0 ff ff 	movq   $0x0,-0xf88(%rbp)
    613c:	00 00 00 00 
    6140:	48 8d 05 d9 45 01 00 	lea    0x145d9(%rip),%rax        # 1a720 <g_1678>
    6147:	48 89 85 30 f0 ff ff 	mov    %rax,-0xfd0(%rbp)
    614e:	48 c7 85 80 f0 ff ff 	movq   $0x0,-0xf80(%rbp)
    6155:	00 00 00 00 
    6159:	48 8d 05 59 f9 00 00 	lea    0xf959(%rip),%rax        # 15ab9 <g_296>
    6160:	48 89 85 38 f0 ff ff 	mov    %rax,-0xfc8(%rbp)
    6167:	48 8d 85 80 f3 ff ff 	lea    -0xc80(%rbp),%rax
    616e:	48 8d 15 6b 32 01 00 	lea    0x1326b(%rip),%rdx        # 193e0 <g_2557+0x18>
    6175:	b9 46 00 00 00       	mov    $0x46,%ecx
    617a:	48 89 c7             	mov    %rax,%rdi
    617d:	48 89 d6             	mov    %rdx,%rsi
    6180:	f3 48 a5             	rep movsq %ds:(%rsi),%es:(%rdi)
    6183:	48 c7 85 40 f0 ff ff 	movq   $0x0,-0xfc0(%rbp)
    618a:	00 00 00 00 
    618e:	48 c7 85 48 f0 ff ff 	movq   $0x0,-0xfb8(%rbp)
    6195:	00 00 00 00 
    6199:	48 8d 85 48 f0 ff ff 	lea    -0xfb8(%rbp),%rax
    61a0:	48 89 85 88 f0 ff ff 	mov    %rax,-0xf78(%rbp)
    61a7:	66 c7 85 96 ef ff ff 	movw   $0xffff,-0x106a(%rbp)
    61ae:	ff ff 
    61b0:	c6 85 8f ef ff ff 2a 	movb   $0x2a,-0x1071(%rbp)
    61b7:	48 c7 85 90 f0 ff ff 	movq   $0x0,-0xf70(%rbp)
    61be:	00 00 00 00 
    61c2:	48 b8 e2 c8 73 e6 e3 	movabs $0x96f1cae3e673c8e2,%rax
    61c9:	ca f1 96 
    61cc:	48 89 85 98 f0 ff ff 	mov    %rax,-0xf68(%rbp)
    61d3:	48 8d 05 76 40 01 00 	lea    0x14076(%rip),%rax        # 1a250 <g_2043>
    61da:	48 89 85 a0 f0 ff ff 	mov    %rax,-0xf60(%rbp)
    61e1:	48 c7 85 a8 f0 ff ff 	movq   $0x0,-0xf58(%rbp)
    61e8:	00 00 00 00 
    61ec:	c7 85 b4 ef ff ff 00 	movl   $0x0,-0x104c(%rbp)
    61f3:	00 00 00 
    61f6:	eb 1b                	jmp    6213 <func_17+0x2b3>
    61f8:	8b 85 b4 ef ff ff    	mov    -0x104c(%rbp),%eax
    61fe:	48 98                	cltq   
    6200:	48 c7 84 c5 60 f2 ff 	movq   $0x0,-0xda0(%rbp,%rax,8)
    6207:	ff 00 00 00 00 
    620c:	83 85 b4 ef ff ff 01 	addl   $0x1,-0x104c(%rbp)
    6213:	83 bd b4 ef ff ff 07 	cmpl   $0x7,-0x104c(%rbp)
    621a:	7e dc                	jle    61f8 <func_17+0x298>
    621c:	c7 85 b4 ef ff ff 00 	movl   $0x0,-0x104c(%rbp)
    6223:	00 00 00 
    6226:	eb 1e                	jmp    6246 <func_17+0x2e6>
    6228:	8b 85 b4 ef ff ff    	mov    -0x104c(%rbp),%eax
    622e:	48 98                	cltq   
    6230:	48 8d 15 41 3e 01 00 	lea    0x13e41(%rip),%rdx        # 1a078 <g_212>
    6237:	48 89 94 c5 48 f1 ff 	mov    %rdx,-0xeb8(%rbp,%rax,8)
    623e:	ff 
    623f:	83 85 b4 ef ff ff 01 	addl   $0x1,-0x104c(%rbp)
    6246:	83 bd b4 ef ff ff 00 	cmpl   $0x0,-0x104c(%rbp)
    624d:	7e d9                	jle    6228 <func_17+0x2c8>
    624f:	90                   	nop
    6250:	48 c7 05 e3 29 01 00 	movq   $0x6,0x129e3(%rip)        # 18c3e <g_2231+0x1e>
    6257:	06 00 00 00 
    625b:	e9 02 01 00 00       	jmpq   6362 <func_17+0x402>
    6260:	48 c7 85 18 f1 ff ff 	movq   $0x0,-0xee8(%rbp)
    6267:	00 00 00 00 
    626b:	48 c7 85 20 f1 ff ff 	movq   $0x0,-0xee0(%rbp)
    6272:	00 00 00 00 
    6276:	48 8d 05 53 ee 00 00 	lea    0xee53(%rip),%rax        # 150d0 <g_81+0x90>
    627d:	48 89 85 28 f1 ff ff 	mov    %rax,-0xed8(%rbp)
    6284:	48 8d 05 71 f8 00 00 	lea    0xf871(%rip),%rax        # 15afc <g_358+0xc>
    628b:	48 89 85 30 f1 ff ff 	mov    %rax,-0xed0(%rbp)
    6292:	48 8d 05 63 f8 00 00 	lea    0xf863(%rip),%rax        # 15afc <g_358+0xc>
    6299:	48 89 85 38 f1 ff ff 	mov    %rax,-0xec8(%rbp)
    62a0:	48 8d 05 d9 ee 00 00 	lea    0xeed9(%rip),%rax        # 15180 <g_82+0x60>
    62a7:	48 89 85 40 f1 ff ff 	mov    %rax,-0xec0(%rbp)
    62ae:	c7 85 20 f0 ff ff cb 	movl   $0xc12719cb,-0xfe0(%rbp)
    62b5:	19 27 c1 
    62b8:	48 8d 05 3d f8 00 00 	lea    0xf83d(%rip),%rax        # 15afc <g_358+0xc>
    62bf:	48 89 85 50 f8 ff ff 	mov    %rax,-0x7b0(%rbp)
    62c6:	48 8d 05 e3 2b 01 00 	lea    0x12be3(%rip),%rax        # 18eb0 <g_2301+0x10>
    62cd:	48 89 85 58 f8 ff ff 	mov    %rax,-0x7a8(%rbp)
    62d4:	48 8d 05 21 f8 00 00 	lea    0xf821(%rip),%rax        # 15afc <g_358+0xc>
    62db:	48 89 85 60 f8 ff ff 	mov    %rax,-0x7a0(%rbp)
    62e2:	48 8d 05 13 f8 00 00 	lea    0xf813(%rip),%rax        # 15afc <g_358+0xc>
    62e9:	48 89 85 68 f8 ff ff 	mov    %rax,-0x798(%rbp)
    62f0:	48 8d 05 b9 2b 01 00 	lea    0x12bb9(%rip),%rax        # 18eb0 <g_2301+0x10>
    62f7:	48 89 85 70 f8 ff ff 	mov    %rax,-0x790(%rbp)
    62fe:	48 8d 05 f7 f7 00 00 	lea    0xf7f7(%rip),%rax        # 15afc <g_358+0xc>
    6305:	48 89 85 78 f8 ff ff 	mov    %rax,-0x788(%rbp)
    630c:	48 8d 05 e9 f7 00 00 	lea    0xf7e9(%rip),%rax        # 15afc <g_358+0xc>
    6313:	48 89 85 80 f8 ff ff 	mov    %rax,-0x780(%rbp)
    631a:	48 8d 05 8f 2b 01 00 	lea    0x12b8f(%rip),%rax        # 18eb0 <g_2301+0x10>
    6321:	48 89 85 88 f8 ff ff 	mov    %rax,-0x778(%rbp)
    6328:	48 8d 05 cd f7 00 00 	lea    0xf7cd(%rip),%rax        # 15afc <g_358+0xc>
    632f:	48 89 85 90 f8 ff ff 	mov    %rax,-0x770(%rbp)
    6336:	66 c7 85 9a ef ff ff 	movw   $0xcff6,-0x1066(%rbp)
    633d:	f6 cf 
    633f:	c7 85 24 f0 ff ff 03 	movl   $0x3,-0xfdc(%rbp)
    6346:	00 00 00 
    6349:	83 85 24 f0 ff ff 01 	addl   $0x1,-0xfdc(%rbp)
    6350:	48 8b 05 e7 28 01 00 	mov    0x128e7(%rip),%rax        # 18c3e <g_2231+0x1e>
    6357:	48 83 e8 01          	sub    $0x1,%rax
    635b:	48 89 05 dc 28 01 00 	mov    %rax,0x128dc(%rip)        # 18c3e <g_2231+0x1e>
    6362:	48 8b 05 d5 28 01 00 	mov    0x128d5(%rip),%rax        # 18c3e <g_2231+0x1e>
    6369:	48 85 c0             	test   %rax,%rax
    636c:	0f 89 ee fe ff ff    	jns    6260 <func_17+0x300>
    6372:	48 8b 95 28 f0 ff ff 	mov    -0xfd8(%rbp),%rdx
    6379:	48 8b 85 70 f0 ff ff 	mov    -0xf90(%rbp),%rax
    6380:	48 89 10             	mov    %rdx,(%rax)
    6383:	48 8d 05 96 43 01 00 	lea    0x14396(%rip),%rax        # 1a720 <g_1678>
    638a:	48 89 85 30 f0 ff ff 	mov    %rax,-0xfd0(%rbp)
    6391:	48 8b 85 30 f0 ff ff 	mov    -0xfd0(%rbp),%rax
    6398:	48 89 05 51 3e 01 00 	mov    %rax,0x13e51(%rip)        # 1a1f0 <g_1677>
    639f:	4c 8b 35 4a 3e 01 00 	mov    0x13e4a(%rip),%r14        # 1a1f0 <g_1677>
    63a6:	8b 85 d8 ef ff ff    	mov    -0x1028(%rbp),%eax
    63ac:	0f bf d8             	movswl %ax,%ebx
    63af:	44 8b a5 7c ef ff ff 	mov    -0x1084(%rbp),%r12d
    63b6:	44 0f b7 ad 78 ef ff 	movzwl -0x1088(%rbp),%r13d
    63bd:	ff 
    63be:	be 06 00 00 00       	mov    $0x6,%esi
    63c3:	bf 01 00 00 00       	mov    $0x1,%edi
    63c8:	e8 d4 ce ff ff       	callq  32a1 <safe_lshift_func_int8_t_s_s>
    63cd:	0f be d0             	movsbl %al,%edx
    63d0:	8b 85 a0 ef ff ff    	mov    -0x1060(%rbp),%eax
    63d6:	31 d0                	xor    %edx,%eax
    63d8:	89 c2                	mov    %eax,%edx
    63da:	8b 85 64 ef ff ff    	mov    -0x109c(%rbp),%eax
    63e0:	89 d6                	mov    %edx,%esi
    63e2:	89 c7                	mov    %eax,%edi
    63e4:	e8 3c db ff ff       	callq  3f25 <safe_div_func_uint32_t_u_u>
    63e9:	8b 85 9c ef ff ff    	mov    -0x1064(%rbp),%eax
    63ef:	48 98                	cltq   
    63f1:	ba 56 8f 9a ae       	mov    $0xae9a8f56,%edx
    63f6:	48 09 c2             	or     %rax,%rdx
    63f9:	48 8b 85 70 ef ff ff 	mov    -0x1090(%rbp),%rax
    6400:	48 8b 00             	mov    (%rax),%rax
    6403:	48 39 c2             	cmp    %rax,%rdx
    6406:	0f 94 c0             	sete   %al
    6409:	0f b6 d0             	movzbl %al,%edx
    640c:	8b 85 64 ef ff ff    	mov    -0x109c(%rbp),%eax
    6412:	0f b7 c0             	movzwl %ax,%eax
    6415:	89 d6                	mov    %edx,%esi
    6417:	89 c7                	mov    %eax,%edi
    6419:	e8 2a da ff ff       	callq  3e48 <safe_rshift_func_uint16_t_u_s>
    641e:	83 8d bc ef ff ff 01 	orl    $0x1,-0x1044(%rbp)
    6425:	8b 85 bc ef ff ff    	mov    -0x1044(%rbp),%eax
    642b:	89 85 a4 f2 ff ff    	mov    %eax,-0xd5c(%rbp)
    6431:	8b 85 a4 f2 ff ff    	mov    -0xd5c(%rbp),%eax
    6437:	85 c0                	test   %eax,%eax
    6439:	0f 9e c0             	setle  %al
    643c:	0f b6 c0             	movzbl %al,%eax
    643f:	4c 89 ee             	mov    %r13,%rsi
    6442:	48 89 c7             	mov    %rax,%rdi
    6445:	e8 e4 db ff ff       	callq  402e <safe_add_func_uint64_t_u_u>
    644a:	0f b6 c0             	movzbl %al,%eax
    644d:	44 89 e6             	mov    %r12d,%esi
    6450:	89 c7                	mov    %eax,%edi
    6452:	e8 ae d7 ff ff       	callq  3c05 <safe_lshift_func_uint8_t_u_s>
    6457:	0f b6 c0             	movzbl %al,%eax
    645a:	39 85 7c ef ff ff    	cmp    %eax,-0x1084(%rbp)
    6460:	0f 94 c0             	sete   %al
    6463:	0f b6 c0             	movzbl %al,%eax
    6466:	be d4 78 00 00       	mov    $0x78d4,%esi
    646b:	89 c7                	mov    %eax,%edi
    646d:	e8 e3 cf ff ff       	callq  3455 <safe_div_func_int16_t_s_s>
    6472:	98                   	cwtl   
    6473:	89 de                	mov    %ebx,%esi
    6475:	89 c7                	mov    %eax,%edi
    6477:	e8 9a cf ff ff       	callq  3416 <safe_mod_func_int16_t_s_s>
    647c:	0f be d0             	movsbl %al,%edx
    647f:	48 8b 85 28 f0 ff ff 	mov    -0xfd8(%rbp),%rax
    6486:	48 8b 00             	mov    (%rax),%rax
    6489:	8b 08                	mov    (%rax),%ecx
    648b:	83 e9 01             	sub    $0x1,%ecx
    648e:	89 08                	mov    %ecx,(%rax)
    6490:	8b 08                	mov    (%rax),%ecx
    6492:	8b 85 b8 ef ff ff    	mov    -0x1048(%rbp),%eax
    6498:	39 c1                	cmp    %eax,%ecx
    649a:	0f 93 c1             	setae  %cl
    649d:	48 8b 85 38 f0 ff ff 	mov    -0xfc8(%rbp),%rax
    64a4:	88 08                	mov    %cl,(%rax)
    64a6:	0f b6 00             	movzbl (%rax),%eax
    64a9:	0f be c0             	movsbl %al,%eax
    64ac:	89 d6                	mov    %edx,%esi
    64ae:	89 c7                	mov    %eax,%edi
    64b0:	e8 1f cd ff ff       	callq  31d4 <safe_add_func_int8_t_s_s>
    64b5:	48 8d 05 64 42 01 00 	lea    0x14264(%rip),%rax        # 1a720 <g_1678>
    64bc:	48 89 85 40 f0 ff ff 	mov    %rax,-0xfc0(%rbp)
    64c3:	48 8b 85 40 f0 ff ff 	mov    -0xfc0(%rbp),%rax
    64ca:	49 39 c6             	cmp    %rax,%r14
    64cd:	74 07                	je     64d6 <func_17+0x576>
    64cf:	b8 01 00 00 00       	mov    $0x1,%eax
    64d4:	eb 05                	jmp    64db <func_17+0x57b>
    64d6:	b8 00 00 00 00       	mov    $0x0,%eax
    64db:	84 c0                	test   %al,%al
    64dd:	0f 84 44 16 00 00    	je     7b27 <func_17+0x1bc7>
    64e3:	48 8d 05 00 2e 01 00 	lea    0x12e00(%rip),%rax        # 192ea <g_2411+0x42a>
    64ea:	48 89 85 50 f0 ff ff 	mov    %rax,-0xfb0(%rbp)
    64f1:	48 8d 85 70 f1 ff ff 	lea    -0xe90(%rbp),%rax
    64f8:	48 89 85 58 f0 ff ff 	mov    %rax,-0xfa8(%rbp)
    64ff:	48 8d 85 58 f0 ff ff 	lea    -0xfa8(%rbp),%rax
    6506:	48 89 85 60 f0 ff ff 	mov    %rax,-0xfa0(%rbp)
    650d:	c7 85 a8 ef ff ff fd 	movl   $0xfffffffd,-0x1058(%rbp)
    6514:	ff ff ff 
    6517:	66 c7 85 92 ef ff ff 	movw   $0x4,-0x106e(%rbp)
    651e:	04 00 
    6520:	c7 85 b0 f1 ff ff 4c 	movl   $0x14b85f4c,-0xe50(%rbp)
    6527:	5f b8 14 
    652a:	c7 85 b4 f1 ff ff b6 	movl   $0xe8459cb6,-0xe4c(%rbp)
    6531:	9c 45 e8 
    6534:	c7 85 b8 f1 ff ff 4c 	movl   $0x14b85f4c,-0xe48(%rbp)
    653b:	5f b8 14 
    653e:	c7 85 bc f1 ff ff 4c 	movl   $0x14b85f4c,-0xe44(%rbp)
    6545:	5f b8 14 
    6548:	c7 85 c0 f1 ff ff b6 	movl   $0xe8459cb6,-0xe40(%rbp)
    654f:	9c 45 e8 
    6552:	c7 85 c4 f1 ff ff 4c 	movl   $0x14b85f4c,-0xe3c(%rbp)
    6559:	5f b8 14 
    655c:	c6 85 91 ef ff ff ff 	movb   $0xff,-0x106f(%rbp)
    6563:	c7 85 b0 f5 ff ff f6 	movl   $0xfffffff6,-0xa50(%rbp)
    656a:	ff ff ff 
    656d:	c7 85 b4 f5 ff ff f6 	movl   $0xfffffff6,-0xa4c(%rbp)
    6574:	ff ff ff 
    6577:	c7 85 b8 f5 ff ff f6 	movl   $0xfffffff6,-0xa48(%rbp)
    657e:	ff ff ff 
    6581:	c7 85 bc f5 ff ff f6 	movl   $0xfffffff6,-0xa44(%rbp)
    6588:	ff ff ff 
    658b:	c7 85 c0 f5 ff ff f6 	movl   $0xfffffff6,-0xa40(%rbp)
    6592:	ff ff ff 
    6595:	c7 85 c4 f5 ff ff f6 	movl   $0xfffffff6,-0xa3c(%rbp)
    659c:	ff ff ff 
    659f:	c7 85 c8 f5 ff ff f6 	movl   $0xfffffff6,-0xa38(%rbp)
    65a6:	ff ff ff 
    65a9:	c7 85 cc f5 ff ff f6 	movl   $0xfffffff6,-0xa34(%rbp)
    65b0:	ff ff ff 
    65b3:	c7 85 d0 f5 ff ff f6 	movl   $0xfffffff6,-0xa30(%rbp)
    65ba:	ff ff ff 
    65bd:	c7 85 d4 f5 ff ff f6 	movl   $0xfffffff6,-0xa2c(%rbp)
    65c4:	ff ff ff 
    65c7:	c7 85 d8 f5 ff ff f6 	movl   $0xfffffff6,-0xa28(%rbp)
    65ce:	ff ff ff 
    65d1:	c7 85 dc f5 ff ff f6 	movl   $0xfffffff6,-0xa24(%rbp)
    65d8:	ff ff ff 
    65db:	c7 85 e0 f5 ff ff f6 	movl   $0xfffffff6,-0xa20(%rbp)
    65e2:	ff ff ff 
    65e5:	c7 85 e4 f5 ff ff f6 	movl   $0xfffffff6,-0xa1c(%rbp)
    65ec:	ff ff ff 
    65ef:	c7 85 e8 f5 ff ff f6 	movl   $0xfffffff6,-0xa18(%rbp)
    65f6:	ff ff ff 
    65f9:	c7 85 ec f5 ff ff f6 	movl   $0xfffffff6,-0xa14(%rbp)
    6600:	ff ff ff 
    6603:	c7 85 f0 f5 ff ff f6 	movl   $0xfffffff6,-0xa10(%rbp)
    660a:	ff ff ff 
    660d:	c7 85 f4 f5 ff ff f6 	movl   $0xfffffff6,-0xa0c(%rbp)
    6614:	ff ff ff 
    6617:	c7 85 f8 f5 ff ff f6 	movl   $0xfffffff6,-0xa08(%rbp)
    661e:	ff ff ff 
    6621:	c7 85 fc f5 ff ff f6 	movl   $0xfffffff6,-0xa04(%rbp)
    6628:	ff ff ff 
    662b:	c7 85 00 f6 ff ff f6 	movl   $0xfffffff6,-0xa00(%rbp)
    6632:	ff ff ff 
    6635:	c7 85 04 f6 ff ff f6 	movl   $0xfffffff6,-0x9fc(%rbp)
    663c:	ff ff ff 
    663f:	c7 85 08 f6 ff ff f6 	movl   $0xfffffff6,-0x9f8(%rbp)
    6646:	ff ff ff 
    6649:	c7 85 0c f6 ff ff f6 	movl   $0xfffffff6,-0x9f4(%rbp)
    6650:	ff ff ff 
    6653:	c7 85 10 f6 ff ff f6 	movl   $0xfffffff6,-0x9f0(%rbp)
    665a:	ff ff ff 
    665d:	c7 85 14 f6 ff ff f6 	movl   $0xfffffff6,-0x9ec(%rbp)
    6664:	ff ff ff 
    6667:	c7 85 18 f6 ff ff f6 	movl   $0xfffffff6,-0x9e8(%rbp)
    666e:	ff ff ff 
    6671:	c7 85 1c f6 ff ff f6 	movl   $0xfffffff6,-0x9e4(%rbp)
    6678:	ff ff ff 
    667b:	c7 85 20 f6 ff ff f6 	movl   $0xfffffff6,-0x9e0(%rbp)
    6682:	ff ff ff 
    6685:	c7 85 24 f6 ff ff f6 	movl   $0xfffffff6,-0x9dc(%rbp)
    668c:	ff ff ff 
    668f:	c7 85 28 f6 ff ff f6 	movl   $0xfffffff6,-0x9d8(%rbp)
    6696:	ff ff ff 
    6699:	c7 85 2c f6 ff ff f6 	movl   $0xfffffff6,-0x9d4(%rbp)
    66a0:	ff ff ff 
    66a3:	48 8d 85 50 f0 ff ff 	lea    -0xfb0(%rbp),%rax
    66aa:	48 89 85 20 f2 ff ff 	mov    %rax,-0xde0(%rbp)
    66b1:	48 8d 85 50 f0 ff ff 	lea    -0xfb0(%rbp),%rax
    66b8:	48 89 85 28 f2 ff ff 	mov    %rax,-0xdd8(%rbp)
    66bf:	48 8d 85 50 f0 ff ff 	lea    -0xfb0(%rbp),%rax
    66c6:	48 89 85 30 f2 ff ff 	mov    %rax,-0xdd0(%rbp)
    66cd:	48 8d 85 50 f0 ff ff 	lea    -0xfb0(%rbp),%rax
    66d4:	48 89 85 38 f2 ff ff 	mov    %rax,-0xdc8(%rbp)
    66db:	48 8d 85 50 f0 ff ff 	lea    -0xfb0(%rbp),%rax
    66e2:	48 89 85 40 f2 ff ff 	mov    %rax,-0xdc0(%rbp)
    66e9:	48 8d 85 50 f0 ff ff 	lea    -0xfb0(%rbp),%rax
    66f0:	48 89 85 48 f2 ff ff 	mov    %rax,-0xdb8(%rbp)
    66f7:	48 8d 85 50 f0 ff ff 	lea    -0xfb0(%rbp),%rax
    66fe:	48 89 85 50 f2 ff ff 	mov    %rax,-0xdb0(%rbp)
    6705:	66 c7 85 10 f3 ff ff 	movw   $0x20d8,-0xcf0(%rbp)
    670c:	d8 20 
    670e:	66 c7 85 12 f3 ff ff 	movw   $0xf345,-0xcee(%rbp)
    6715:	45 f3 
    6717:	66 c7 85 14 f3 ff ff 	movw   $0x20d8,-0xcec(%rbp)
    671e:	d8 20 
    6720:	66 c7 85 16 f3 ff ff 	movw   $0xf345,-0xcea(%rbp)
    6727:	45 f3 
    6729:	66 c7 85 18 f3 ff ff 	movw   $0x20d8,-0xce8(%rbp)
    6730:	d8 20 
    6732:	66 c7 85 1a f3 ff ff 	movw   $0xf345,-0xce6(%rbp)
    6739:	45 f3 
    673b:	66 c7 85 1c f3 ff ff 	movw   $0x20d8,-0xce4(%rbp)
    6742:	d8 20 
    6744:	66 c7 85 1e f3 ff ff 	movw   $0xf345,-0xce2(%rbp)
    674b:	45 f3 
    674d:	66 c7 85 20 f3 ff ff 	movw   $0x20d8,-0xce0(%rbp)
    6754:	d8 20 
    6756:	66 c7 85 22 f3 ff ff 	movw   $0xf345,-0xcde(%rbp)
    675d:	45 f3 
    675f:	66 c7 85 24 f3 ff ff 	movw   $0x20d8,-0xcdc(%rbp)
    6766:	d8 20 
    6768:	66 c7 85 26 f3 ff ff 	movw   $0xf345,-0xcda(%rbp)
    676f:	45 f3 
    6771:	66 c7 85 28 f3 ff ff 	movw   $0x20d8,-0xcd8(%rbp)
    6778:	d8 20 
    677a:	66 c7 85 2a f3 ff ff 	movw   $0xf345,-0xcd6(%rbp)
    6781:	45 f3 
    6783:	66 c7 85 2c f3 ff ff 	movw   $0x20d8,-0xcd4(%rbp)
    678a:	d8 20 
    678c:	66 c7 85 2e f3 ff ff 	movw   $0xf345,-0xcd2(%rbp)
    6793:	45 f3 
    6795:	66 c7 85 30 f3 ff ff 	movw   $0x20d8,-0xcd0(%rbp)
    679c:	d8 20 
    679e:	66 c7 85 32 f3 ff ff 	movw   $0xf345,-0xcce(%rbp)
    67a5:	45 f3 
    67a7:	66 c7 85 34 f3 ff ff 	movw   $0x20d8,-0xccc(%rbp)
    67ae:	d8 20 
    67b0:	66 c7 85 36 f3 ff ff 	movw   $0xf345,-0xcca(%rbp)
    67b7:	45 f3 
    67b9:	66 c7 85 38 f3 ff ff 	movw   $0x20d8,-0xcc8(%rbp)
    67c0:	d8 20 
    67c2:	66 c7 85 3a f3 ff ff 	movw   $0xf345,-0xcc6(%rbp)
    67c9:	45 f3 
    67cb:	66 c7 85 3c f3 ff ff 	movw   $0x20d8,-0xcc4(%rbp)
    67d2:	d8 20 
    67d4:	66 c7 85 3e f3 ff ff 	movw   $0xf345,-0xcc2(%rbp)
    67db:	45 f3 
    67dd:	66 c7 85 40 f3 ff ff 	movw   $0x20d8,-0xcc0(%rbp)
    67e4:	d8 20 
    67e6:	66 c7 85 42 f3 ff ff 	movw   $0xf345,-0xcbe(%rbp)
    67ed:	45 f3 
    67ef:	66 c7 85 44 f3 ff ff 	movw   $0x20d8,-0xcbc(%rbp)
    67f6:	d8 20 
    67f8:	66 c7 85 46 f3 ff ff 	movw   $0xf345,-0xcba(%rbp)
    67ff:	45 f3 
    6801:	66 c7 85 48 f3 ff ff 	movw   $0x20d8,-0xcb8(%rbp)
    6808:	d8 20 
    680a:	66 c7 85 4a f3 ff ff 	movw   $0xf345,-0xcb6(%rbp)
    6811:	45 f3 
    6813:	66 c7 85 4c f3 ff ff 	movw   $0x20d8,-0xcb4(%rbp)
    681a:	d8 20 
    681c:	66 c7 85 4e f3 ff ff 	movw   $0xf345,-0xcb2(%rbp)
    6823:	45 f3 
    6825:	66 c7 85 50 f3 ff ff 	movw   $0x20d8,-0xcb0(%rbp)
    682c:	d8 20 
    682e:	66 c7 85 52 f3 ff ff 	movw   $0xf345,-0xcae(%rbp)
    6835:	45 f3 
    6837:	66 c7 85 54 f3 ff ff 	movw   $0x20d8,-0xcac(%rbp)
    683e:	d8 20 
    6840:	66 c7 85 56 f3 ff ff 	movw   $0xf345,-0xcaa(%rbp)
    6847:	45 f3 
    6849:	66 c7 85 58 f3 ff ff 	movw   $0x20d8,-0xca8(%rbp)
    6850:	d8 20 
    6852:	66 c7 85 5a f3 ff ff 	movw   $0xf345,-0xca6(%rbp)
    6859:	45 f3 
    685b:	66 c7 85 5c f3 ff ff 	movw   $0x20d8,-0xca4(%rbp)
    6862:	d8 20 
    6864:	66 c7 85 5e f3 ff ff 	movw   $0xf345,-0xca2(%rbp)
    686b:	45 f3 
    686d:	66 c7 85 60 f3 ff ff 	movw   $0x20d8,-0xca0(%rbp)
    6874:	d8 20 
    6876:	66 c7 85 62 f3 ff ff 	movw   $0xf345,-0xc9e(%rbp)
    687d:	45 f3 
    687f:	66 c7 85 64 f3 ff ff 	movw   $0x20d8,-0xc9c(%rbp)
    6886:	d8 20 
    6888:	66 c7 85 66 f3 ff ff 	movw   $0xf345,-0xc9a(%rbp)
    688f:	45 f3 
    6891:	66 c7 85 68 f3 ff ff 	movw   $0x20d8,-0xc98(%rbp)
    6898:	d8 20 
    689a:	66 c7 85 6a f3 ff ff 	movw   $0xf345,-0xc96(%rbp)
    68a1:	45 f3 
    68a3:	66 c7 85 6c f3 ff ff 	movw   $0x20d8,-0xc94(%rbp)
    68aa:	d8 20 
    68ac:	66 c7 85 6e f3 ff ff 	movw   $0xf345,-0xc92(%rbp)
    68b3:	45 f3 
    68b5:	66 c7 85 70 f3 ff ff 	movw   $0x20d8,-0xc90(%rbp)
    68bc:	d8 20 
    68be:	66 c7 85 72 f3 ff ff 	movw   $0xf345,-0xc8e(%rbp)
    68c5:	45 f3 
    68c7:	66 c7 85 74 f3 ff ff 	movw   $0x20d8,-0xc8c(%rbp)
    68ce:	d8 20 
    68d0:	66 c7 85 76 f3 ff ff 	movw   $0xf345,-0xc8a(%rbp)
    68d7:	45 f3 
    68d9:	66 c7 85 78 f3 ff ff 	movw   $0x20d8,-0xc88(%rbp)
    68e0:	d8 20 
    68e2:	66 c7 85 7a f3 ff ff 	movw   $0xf345,-0xc86(%rbp)
    68e9:	45 f3 
    68eb:	66 c7 85 7c f3 ff ff 	movw   $0x20d8,-0xc84(%rbp)
    68f2:	d8 20 
    68f4:	66 c7 85 7e f3 ff ff 	movw   $0xf345,-0xc82(%rbp)
    68fb:	45 f3 
    68fd:	c7 85 b0 ef ff ff 00 	movl   $0x0,-0x1050(%rbp)
    6904:	00 00 00 
    6907:	eb 1e                	jmp    6927 <func_17+0x9c7>
    6909:	8b 85 b0 ef ff ff    	mov    -0x1050(%rbp),%eax
    690f:	48 98                	cltq   
    6911:	48 8d 15 e5 e8 00 00 	lea    0xe8e5(%rip),%rdx        # 151fd <g_144+0x3d>
    6918:	48 89 94 c5 70 f1 ff 	mov    %rdx,-0xe90(%rbp,%rax,8)
    691f:	ff 
    6920:	83 85 b0 ef ff ff 01 	addl   $0x1,-0x1050(%rbp)
    6927:	83 bd b0 ef ff ff 02 	cmpl   $0x2,-0x1050(%rbp)
    692e:	7e d9                	jle    6909 <func_17+0x9a9>
    6930:	c7 85 b0 ef ff ff 00 	movl   $0x0,-0x1050(%rbp)
    6937:	00 00 00 
    693a:	eb 1e                	jmp    695a <func_17+0x9fa>
    693c:	8b 85 b0 ef ff ff    	mov    -0x1050(%rbp),%eax
    6942:	48 98                	cltq   
    6944:	48 8d 95 60 f0 ff ff 	lea    -0xfa0(%rbp),%rdx
    694b:	48 89 94 c5 90 f1 ff 	mov    %rdx,-0xe70(%rbp,%rax,8)
    6952:	ff 
    6953:	83 85 b0 ef ff ff 01 	addl   $0x1,-0x1050(%rbp)
    695a:	83 bd b0 ef ff ff 02 	cmpl   $0x2,-0x1050(%rbp)
    6961:	7e d9                	jle    693c <func_17+0x9dc>
    6963:	c7 85 b0 ef ff ff 00 	movl   $0x0,-0x1050(%rbp)
    696a:	00 00 00 
    696d:	eb 46                	jmp    69b5 <func_17+0xa55>
    696f:	c7 85 c0 ef ff ff 00 	movl   $0x0,-0x1040(%rbp)
    6976:	00 00 00 
    6979:	eb 2a                	jmp    69a5 <func_17+0xa45>
    697b:	8b 85 c0 ef ff ff    	mov    -0x1040(%rbp),%eax
    6981:	48 63 d0             	movslq %eax,%rdx
    6984:	8b 85 b0 ef ff ff    	mov    -0x1050(%rbp),%eax
    698a:	48 98                	cltq   
    698c:	48 01 d0             	add    %rdx,%rax
    698f:	48 8d 15 d2 a6 00 00 	lea    0xa6d2(%rip),%rdx        # 11068 <g_2577>
    6996:	48 89 94 c5 d0 f1 ff 	mov    %rdx,-0xe30(%rbp,%rax,8)
    699d:	ff 
    699e:	83 85 c0 ef ff ff 01 	addl   $0x1,-0x1040(%rbp)
    69a5:	83 bd c0 ef ff ff 00 	cmpl   $0x0,-0x1040(%rbp)
    69ac:	7e cd                	jle    697b <func_17+0xa1b>
    69ae:	83 85 b0 ef ff ff 01 	addl   $0x1,-0x1050(%rbp)
    69b5:	83 bd b0 ef ff ff 02 	cmpl   $0x2,-0x1050(%rbp)
    69bc:	7e b1                	jle    696f <func_17+0xa0f>
    69be:	83 bd d8 ef ff ff 00 	cmpl   $0x0,-0x1028(%rbp)
    69c5:	0f 84 21 10 00 00    	je     79ec <func_17+0x1a8c>
    69cb:	c7 85 0c f0 ff ff 01 	movl   $0x1,-0xff4(%rbp)
    69d2:	00 00 00 
    69d5:	c7 85 ac ef ff ff 7e 	movl   $0x532f8f7e,-0x1054(%rbp)
    69dc:	8f 2f 53 
    69df:	c7 85 c4 ef ff ff 00 	movl   $0x0,-0x103c(%rbp)
    69e6:	00 00 00 
    69e9:	eb 1a                	jmp    6a05 <func_17+0xaa5>
    69eb:	8b 85 c4 ef ff ff    	mov    -0x103c(%rbp),%eax
    69f1:	48 98                	cltq   
    69f3:	c7 84 85 50 f1 ff ff 	movl   $0xca02927,-0xeb0(%rbp,%rax,4)
    69fa:	27 29 a0 0c 
    69fe:	83 85 c4 ef ff ff 01 	addl   $0x1,-0x103c(%rbp)
    6a05:	83 bd c4 ef ff ff 04 	cmpl   $0x4,-0x103c(%rbp)
    6a0c:	7e dd                	jle    69eb <func_17+0xa8b>
    6a0e:	8b 85 a0 ef ff ff    	mov    -0x1060(%rbp),%eax
    6a14:	85 c0                	test   %eax,%eax
    6a16:	0f 85 c4 0f 00 00    	jne    79e0 <func_17+0x1a80>
    6a1c:	c7 05 26 f1 00 00 fc 	movl   $0xfffffffc,0xf126(%rip)        # 15b4c <g_524>
    6a23:	ff ff ff 
    6a26:	e9 a1 0f 00 00       	jmpq   79cc <func_17+0x1a6c>
    6a2b:	48 8d 05 86 f0 00 00 	lea    0xf086(%rip),%rax        # 15ab8 <g_278>
    6a32:	48 89 85 f0 f0 ff ff 	mov    %rax,-0xf10(%rbp)
    6a39:	c7 85 f0 f1 ff ff 17 	movl   $0x85524d17,-0xe10(%rbp)
    6a40:	4d 52 85 
    6a43:	c7 85 f4 f1 ff ff 17 	movl   $0x85524d17,-0xe0c(%rbp)
    6a4a:	4d 52 85 
    6a4d:	c7 85 f8 f1 ff ff 17 	movl   $0x85524d17,-0xe08(%rbp)
    6a54:	4d 52 85 
    6a57:	c7 85 fc f1 ff ff 17 	movl   $0x85524d17,-0xe04(%rbp)
    6a5e:	4d 52 85 
    6a61:	c7 85 00 f2 ff ff 17 	movl   $0x85524d17,-0xe00(%rbp)
    6a68:	4d 52 85 
    6a6b:	c7 85 04 f2 ff ff 17 	movl   $0x85524d17,-0xdfc(%rbp)
    6a72:	4d 52 85 
    6a75:	c7 85 08 f2 ff ff 17 	movl   $0x85524d17,-0xdf8(%rbp)
    6a7c:	4d 52 85 
    6a7f:	c7 85 0c f2 ff ff 17 	movl   $0x85524d17,-0xdf4(%rbp)
    6a86:	4d 52 85 
    6a89:	c7 85 10 f2 ff ff 17 	movl   $0x85524d17,-0xdf0(%rbp)
    6a90:	4d 52 85 
    6a93:	c7 85 14 f2 ff ff 17 	movl   $0x85524d17,-0xdec(%rbp)
    6a9a:	4d 52 85 
    6a9d:	c7 85 10 f0 ff ff 00 	movl   $0x0,-0xff0(%rbp)
    6aa4:	00 00 00 
    6aa7:	c7 85 14 f0 ff ff ff 	movl   $0xffffffff,-0xfec(%rbp)
    6aae:	ff ff ff 
    6ab1:	c7 05 7d 21 01 00 00 	movl   $0x0,0x1217d(%rip)        # 18c38 <g_2231+0x18>
    6ab8:	00 00 00 
    6abb:	e9 e3 0e 00 00       	jmpq   79a3 <func_17+0x1a43>
    6ac0:	c7 85 18 f0 ff ff 43 	movl   $0x21a03c43,-0xfe8(%rbp)
    6ac7:	3c a0 21 
    6aca:	48 b8 81 f2 0b da 40 	movabs $0x87ebef40da0bf281,%rax
    6ad1:	ef eb 87 
    6ad4:	48 89 85 68 f0 ff ff 	mov    %rax,-0xf98(%rbp)
    6adb:	48 c7 05 3e f0 00 00 	movq   $0x1,0xf03e(%rip)        # 15b24 <g_429+0x4>
    6ae2:	01 00 00 00 
    6ae6:	90                   	nop
    6ae7:	48 8b 05 36 f0 00 00 	mov    0xf036(%rip),%rax        # 15b24 <g_429+0x4>
    6aee:	48 83 f8 05          	cmp    $0x5,%rax
    6af2:	7f 4d                	jg     6b41 <func_17+0xbe1>
    6af4:	48 8d 05 6d 35 01 00 	lea    0x1356d(%rip),%rax        # 1a068 <g_143>
    6afb:	48 89 85 10 f1 ff ff 	mov    %rax,-0xef0(%rbp)
    6b02:	8b 85 9c ef ff ff    	mov    -0x1064(%rbp),%eax
    6b08:	85 c0                	test   %eax,%eax
    6b0a:	0f 85 d6 0e 00 00    	jne    79e6 <func_17+0x1a86>
    6b10:	48 8b 95 50 f0 ff ff 	mov    -0xfb0(%rbp),%rdx
    6b17:	48 8b 85 10 f1 ff ff 	mov    -0xef0(%rbp),%rax
    6b1e:	48 89 10             	mov    %rdx,(%rax)
    6b21:	48 8b 05 fc ef 00 00 	mov    0xeffc(%rip),%rax        # 15b24 <g_429+0x4>
    6b28:	48 8d 14 85 00 00 00 	lea    0x0(,%rax,4),%rdx
    6b2f:	00 
    6b30:	48 8d 05 b9 ef 00 00 	lea    0xefb9(%rip),%rax        # 15af0 <g_358>
    6b37:	8b 04 02             	mov    (%rdx,%rax,1),%eax
    6b3a:	48 98                	cltq   
    6b3c:	e9 09 13 00 00       	jmpq   7e4a <func_17+0x1eea>
    6b41:	c7 85 b8 ef ff ff 00 	movl   $0x0,-0x1048(%rbp)
    6b48:	00 00 00 
    6b4b:	e9 2e 0e 00 00       	jmpq   797e <func_17+0x1a1e>
    6b50:	48 8d 05 b9 fa 00 00 	lea    0xfab9(%rip),%rax        # 16610 <g_1310>
    6b57:	48 89 85 f8 f0 ff ff 	mov    %rax,-0xf08(%rbp)
    6b5e:	c7 85 1c f0 ff ff 14 	movl   $0x4a1b5a14,-0xfe4(%rbp)
    6b65:	5a 1b 4a 
    6b68:	48 8d 85 a8 ef ff ff 	lea    -0x1058(%rbp),%rax
    6b6f:	48 89 85 00 f1 ff ff 	mov    %rax,-0xf00(%rbp)
    6b76:	48 8d 85 9c ef ff ff 	lea    -0x1064(%rbp),%rax
    6b7d:	48 89 85 08 f1 ff ff 	mov    %rax,-0xef8(%rbp)
    6b84:	48 c7 85 50 f8 ff ff 	movq   $0x0,-0x7b0(%rbp)
    6b8b:	00 00 00 00 
    6b8f:	48 c7 85 58 f8 ff ff 	movq   $0x0,-0x7a8(%rbp)
    6b96:	00 00 00 00 
    6b9a:	48 8d 85 a0 ef ff ff 	lea    -0x1060(%rbp),%rax
    6ba1:	48 89 85 60 f8 ff ff 	mov    %rax,-0x7a0(%rbp)
    6ba8:	48 8d 85 a0 ef ff ff 	lea    -0x1060(%rbp),%rax
    6baf:	48 89 85 68 f8 ff ff 	mov    %rax,-0x798(%rbp)
    6bb6:	48 8d 05 f3 22 01 00 	lea    0x122f3(%rip),%rax        # 18eb0 <g_2301+0x10>
    6bbd:	48 89 85 70 f8 ff ff 	mov    %rax,-0x790(%rbp)
    6bc4:	48 8d 05 e5 22 01 00 	lea    0x122e5(%rip),%rax        # 18eb0 <g_2301+0x10>
    6bcb:	48 89 85 78 f8 ff ff 	mov    %rax,-0x788(%rbp)
    6bd2:	48 8d 85 a4 ef ff ff 	lea    -0x105c(%rbp),%rax
    6bd9:	48 89 85 80 f8 ff ff 	mov    %rax,-0x780(%rbp)
    6be0:	48 c7 85 88 f8 ff ff 	movq   $0x0,-0x778(%rbp)
    6be7:	00 00 00 00 
    6beb:	48 8d 05 be 22 01 00 	lea    0x122be(%rip),%rax        # 18eb0 <g_2301+0x10>
    6bf2:	48 89 85 90 f8 ff ff 	mov    %rax,-0x770(%rbp)
    6bf9:	48 8d 05 b0 22 01 00 	lea    0x122b0(%rip),%rax        # 18eb0 <g_2301+0x10>
    6c00:	48 89 85 98 f8 ff ff 	mov    %rax,-0x768(%rbp)
    6c07:	48 8d 85 a0 ef ff ff 	lea    -0x1060(%rbp),%rax
    6c0e:	48 89 85 a0 f8 ff ff 	mov    %rax,-0x760(%rbp)
    6c15:	48 8d 05 94 22 01 00 	lea    0x12294(%rip),%rax        # 18eb0 <g_2301+0x10>
    6c1c:	48 89 85 a8 f8 ff ff 	mov    %rax,-0x758(%rbp)
    6c23:	48 c7 85 b0 f8 ff ff 	movq   $0x0,-0x750(%rbp)
    6c2a:	00 00 00 00 
    6c2e:	48 c7 85 b8 f8 ff ff 	movq   $0x0,-0x748(%rbp)
    6c35:	00 00 00 00 
    6c39:	48 c7 85 c0 f8 ff ff 	movq   $0x0,-0x740(%rbp)
    6c40:	00 00 00 00 
    6c44:	48 8d 85 a0 ef ff ff 	lea    -0x1060(%rbp),%rax
    6c4b:	48 89 85 c8 f8 ff ff 	mov    %rax,-0x738(%rbp)
    6c52:	48 c7 85 d0 f8 ff ff 	movq   $0x0,-0x730(%rbp)
    6c59:	00 00 00 00 
    6c5d:	48 c7 85 d8 f8 ff ff 	movq   $0x0,-0x728(%rbp)
    6c64:	00 00 00 00 
    6c68:	48 8d 85 a4 ef ff ff 	lea    -0x105c(%rbp),%rax
    6c6f:	48 89 85 e0 f8 ff ff 	mov    %rax,-0x720(%rbp)
    6c76:	48 8d 05 33 22 01 00 	lea    0x12233(%rip),%rax        # 18eb0 <g_2301+0x10>
    6c7d:	48 89 85 e8 f8 ff ff 	mov    %rax,-0x718(%rbp)
    6c84:	48 c7 85 f0 f8 ff ff 	movq   $0x0,-0x710(%rbp)
    6c8b:	00 00 00 00 
    6c8f:	48 8d 05 1a 22 01 00 	lea    0x1221a(%rip),%rax        # 18eb0 <g_2301+0x10>
    6c96:	48 89 85 f8 f8 ff ff 	mov    %rax,-0x708(%rbp)
    6c9d:	48 8d 05 0c 22 01 00 	lea    0x1220c(%rip),%rax        # 18eb0 <g_2301+0x10>
    6ca4:	48 89 85 00 f9 ff ff 	mov    %rax,-0x700(%rbp)
    6cab:	48 c7 85 08 f9 ff ff 	movq   $0x0,-0x6f8(%rbp)
    6cb2:	00 00 00 00 
    6cb6:	48 c7 85 10 f9 ff ff 	movq   $0x0,-0x6f0(%rbp)
    6cbd:	00 00 00 00 
    6cc1:	48 8d 05 e8 21 01 00 	lea    0x121e8(%rip),%rax        # 18eb0 <g_2301+0x10>
    6cc8:	48 89 85 18 f9 ff ff 	mov    %rax,-0x6e8(%rbp)
    6ccf:	48 8d 05 da 21 01 00 	lea    0x121da(%rip),%rax        # 18eb0 <g_2301+0x10>
    6cd6:	48 89 85 20 f9 ff ff 	mov    %rax,-0x6e0(%rbp)
    6cdd:	48 8d 85 a0 ef ff ff 	lea    -0x1060(%rbp),%rax
    6ce4:	48 89 85 28 f9 ff ff 	mov    %rax,-0x6d8(%rbp)
    6ceb:	48 c7 85 30 f9 ff ff 	movq   $0x0,-0x6d0(%rbp)
    6cf2:	00 00 00 00 
    6cf6:	48 c7 85 38 f9 ff ff 	movq   $0x0,-0x6c8(%rbp)
    6cfd:	00 00 00 00 
    6d01:	48 8d 85 a4 ef ff ff 	lea    -0x105c(%rbp),%rax
    6d08:	48 89 85 40 f9 ff ff 	mov    %rax,-0x6c0(%rbp)
    6d0f:	48 c7 85 48 f9 ff ff 	movq   $0x0,-0x6b8(%rbp)
    6d16:	00 00 00 00 
    6d1a:	48 c7 85 50 f9 ff ff 	movq   $0x0,-0x6b0(%rbp)
    6d21:	00 00 00 00 
    6d25:	48 8d 05 84 21 01 00 	lea    0x12184(%rip),%rax        # 18eb0 <g_2301+0x10>
    6d2c:	48 89 85 58 f9 ff ff 	mov    %rax,-0x6a8(%rbp)
    6d33:	48 8d 85 f0 f1 ff ff 	lea    -0xe10(%rbp),%rax
    6d3a:	48 83 c0 1c          	add    $0x1c,%rax
    6d3e:	48 89 85 60 f9 ff ff 	mov    %rax,-0x6a0(%rbp)
    6d45:	48 8d 85 a0 ef ff ff 	lea    -0x1060(%rbp),%rax
    6d4c:	48 89 85 68 f9 ff ff 	mov    %rax,-0x698(%rbp)
    6d53:	48 8d 85 f0 f1 ff ff 	lea    -0xe10(%rbp),%rax
    6d5a:	48 83 c0 1c          	add    $0x1c,%rax
    6d5e:	48 89 85 70 f9 ff ff 	mov    %rax,-0x690(%rbp)
    6d65:	48 8d 85 a0 ef ff ff 	lea    -0x1060(%rbp),%rax
    6d6c:	48 89 85 78 f9 ff ff 	mov    %rax,-0x688(%rbp)
    6d73:	48 8d 85 ac ef ff ff 	lea    -0x1054(%rbp),%rax
    6d7a:	48 89 85 80 f9 ff ff 	mov    %rax,-0x680(%rbp)
    6d81:	48 8d 85 ac ef ff ff 	lea    -0x1054(%rbp),%rax
    6d88:	48 89 85 88 f9 ff ff 	mov    %rax,-0x678(%rbp)
    6d8f:	48 c7 85 90 f9 ff ff 	movq   $0x0,-0x670(%rbp)
    6d96:	00 00 00 00 
    6d9a:	48 c7 85 98 f9 ff ff 	movq   $0x0,-0x668(%rbp)
    6da1:	00 00 00 00 
    6da5:	48 8d 05 04 21 01 00 	lea    0x12104(%rip),%rax        # 18eb0 <g_2301+0x10>
    6dac:	48 89 85 a0 f9 ff ff 	mov    %rax,-0x660(%rbp)
    6db3:	48 8d 05 f6 20 01 00 	lea    0x120f6(%rip),%rax        # 18eb0 <g_2301+0x10>
    6dba:	48 89 85 a8 f9 ff ff 	mov    %rax,-0x658(%rbp)
    6dc1:	48 c7 85 b0 f9 ff ff 	movq   $0x0,-0x650(%rbp)
    6dc8:	00 00 00 00 
    6dcc:	48 8d 85 a4 ef ff ff 	lea    -0x105c(%rbp),%rax
    6dd3:	48 89 85 b8 f9 ff ff 	mov    %rax,-0x648(%rbp)
    6dda:	48 8d 85 ac ef ff ff 	lea    -0x1054(%rbp),%rax
    6de1:	48 89 85 c0 f9 ff ff 	mov    %rax,-0x640(%rbp)
    6de8:	48 c7 85 c8 f9 ff ff 	movq   $0x0,-0x638(%rbp)
    6def:	00 00 00 00 
    6df3:	48 8d 85 f0 f1 ff ff 	lea    -0xe10(%rbp),%rax
    6dfa:	48 83 c0 1c          	add    $0x1c,%rax
    6dfe:	48 89 85 d0 f9 ff ff 	mov    %rax,-0x630(%rbp)
    6e05:	48 8d 05 a4 20 01 00 	lea    0x120a4(%rip),%rax        # 18eb0 <g_2301+0x10>
    6e0c:	48 89 85 d8 f9 ff ff 	mov    %rax,-0x628(%rbp)
    6e13:	48 8d 85 f0 f1 ff ff 	lea    -0xe10(%rbp),%rax
    6e1a:	48 83 c0 1c          	add    $0x1c,%rax
    6e1e:	48 89 85 e0 f9 ff ff 	mov    %rax,-0x620(%rbp)
    6e25:	48 8d 85 ac ef ff ff 	lea    -0x1054(%rbp),%rax
    6e2c:	48 89 85 e8 f9 ff ff 	mov    %rax,-0x618(%rbp)
    6e33:	48 8d 85 a0 ef ff ff 	lea    -0x1060(%rbp),%rax
    6e3a:	48 89 85 f0 f9 ff ff 	mov    %rax,-0x610(%rbp)
    6e41:	48 8d 05 68 20 01 00 	lea    0x12068(%rip),%rax        # 18eb0 <g_2301+0x10>
    6e48:	48 89 85 f8 f9 ff ff 	mov    %rax,-0x608(%rbp)
    6e4f:	48 8d 05 5a 20 01 00 	lea    0x1205a(%rip),%rax        # 18eb0 <g_2301+0x10>
    6e56:	48 89 85 00 fa ff ff 	mov    %rax,-0x600(%rbp)
    6e5d:	48 c7 85 08 fa ff ff 	movq   $0x0,-0x5f8(%rbp)
    6e64:	00 00 00 00 
    6e68:	48 8d 05 41 20 01 00 	lea    0x12041(%rip),%rax        # 18eb0 <g_2301+0x10>
    6e6f:	48 89 85 10 fa ff ff 	mov    %rax,-0x5f0(%rbp)
    6e76:	48 8d 85 a4 ef ff ff 	lea    -0x105c(%rbp),%rax
    6e7d:	48 89 85 18 fa ff ff 	mov    %rax,-0x5e8(%rbp)
    6e84:	48 8d 85 a4 ef ff ff 	lea    -0x105c(%rbp),%rax
    6e8b:	48 89 85 20 fa ff ff 	mov    %rax,-0x5e0(%rbp)
    6e92:	48 8d 05 17 20 01 00 	lea    0x12017(%rip),%rax        # 18eb0 <g_2301+0x10>
    6e99:	48 89 85 28 fa ff ff 	mov    %rax,-0x5d8(%rbp)
    6ea0:	48 8d 85 f0 f1 ff ff 	lea    -0xe10(%rbp),%rax
    6ea7:	48 83 c0 1c          	add    $0x1c,%rax
    6eab:	48 89 85 30 fa ff ff 	mov    %rax,-0x5d0(%rbp)
    6eb2:	48 c7 85 38 fa ff ff 	movq   $0x0,-0x5c8(%rbp)
    6eb9:	00 00 00 00 
    6ebd:	48 8d 85 a4 ef ff ff 	lea    -0x105c(%rbp),%rax
    6ec4:	48 89 85 40 fa ff ff 	mov    %rax,-0x5c0(%rbp)
    6ecb:	48 8d 85 ac ef ff ff 	lea    -0x1054(%rbp),%rax
    6ed2:	48 89 85 48 fa ff ff 	mov    %rax,-0x5b8(%rbp)
    6ed9:	48 8d 05 d0 1f 01 00 	lea    0x11fd0(%rip),%rax        # 18eb0 <g_2301+0x10>
    6ee0:	48 89 85 50 fa ff ff 	mov    %rax,-0x5b0(%rbp)
    6ee7:	48 8d 85 a0 ef ff ff 	lea    -0x1060(%rbp),%rax
    6eee:	48 89 85 58 fa ff ff 	mov    %rax,-0x5a8(%rbp)
    6ef5:	48 8d 05 b4 1f 01 00 	lea    0x11fb4(%rip),%rax        # 18eb0 <g_2301+0x10>
    6efc:	48 89 85 60 fa ff ff 	mov    %rax,-0x5a0(%rbp)
    6f03:	48 8d 85 a0 ef ff ff 	lea    -0x1060(%rbp),%rax
    6f0a:	48 89 85 68 fa ff ff 	mov    %rax,-0x598(%rbp)
    6f11:	48 8d 85 a0 ef ff ff 	lea    -0x1060(%rbp),%rax
    6f18:	48 89 85 70 fa ff ff 	mov    %rax,-0x590(%rbp)
    6f1f:	48 8d 85 a4 ef ff ff 	lea    -0x105c(%rbp),%rax
    6f26:	48 89 85 78 fa ff ff 	mov    %rax,-0x588(%rbp)
    6f2d:	48 8d 85 f0 f1 ff ff 	lea    -0xe10(%rbp),%rax
    6f34:	48 83 c0 1c          	add    $0x1c,%rax
    6f38:	48 89 85 80 fa ff ff 	mov    %rax,-0x580(%rbp)
    6f3f:	48 8d 85 a0 ef ff ff 	lea    -0x1060(%rbp),%rax
    6f46:	48 89 85 88 fa ff ff 	mov    %rax,-0x578(%rbp)
    6f4d:	48 8d 85 f0 f1 ff ff 	lea    -0xe10(%rbp),%rax
    6f54:	48 83 c0 1c          	add    $0x1c,%rax
    6f58:	48 89 85 90 fa ff ff 	mov    %rax,-0x570(%rbp)
    6f5f:	48 8d 85 a0 ef ff ff 	lea    -0x1060(%rbp),%rax
    6f66:	48 89 85 98 fa ff ff 	mov    %rax,-0x568(%rbp)
    6f6d:	48 8d 85 ac ef ff ff 	lea    -0x1054(%rbp),%rax
    6f74:	48 89 85 a0 fa ff ff 	mov    %rax,-0x560(%rbp)
    6f7b:	48 8d 85 ac ef ff ff 	lea    -0x1054(%rbp),%rax
    6f82:	48 89 85 a8 fa ff ff 	mov    %rax,-0x558(%rbp)
    6f89:	48 c7 85 b0 fa ff ff 	movq   $0x0,-0x550(%rbp)
    6f90:	00 00 00 00 
    6f94:	48 c7 85 b8 fa ff ff 	movq   $0x0,-0x548(%rbp)
    6f9b:	00 00 00 00 
    6f9f:	48 8d 05 0a 1f 01 00 	lea    0x11f0a(%rip),%rax        # 18eb0 <g_2301+0x10>
    6fa6:	48 89 85 c0 fa ff ff 	mov    %rax,-0x540(%rbp)
    6fad:	48 8d 05 fc 1e 01 00 	lea    0x11efc(%rip),%rax        # 18eb0 <g_2301+0x10>
    6fb4:	48 89 85 c8 fa ff ff 	mov    %rax,-0x538(%rbp)
    6fbb:	48 c7 85 d0 fa ff ff 	movq   $0x0,-0x530(%rbp)
    6fc2:	00 00 00 00 
    6fc6:	48 8d 85 a4 ef ff ff 	lea    -0x105c(%rbp),%rax
    6fcd:	48 89 85 d8 fa ff ff 	mov    %rax,-0x528(%rbp)
    6fd4:	48 8d 85 ac ef ff ff 	lea    -0x1054(%rbp),%rax
    6fdb:	48 89 85 e0 fa ff ff 	mov    %rax,-0x520(%rbp)
    6fe2:	48 c7 85 e8 fa ff ff 	movq   $0x0,-0x518(%rbp)
    6fe9:	00 00 00 00 
    6fed:	48 8d 85 f0 f1 ff ff 	lea    -0xe10(%rbp),%rax
    6ff4:	48 83 c0 1c          	add    $0x1c,%rax
    6ff8:	48 89 85 f0 fa ff ff 	mov    %rax,-0x510(%rbp)
    6fff:	48 8d 05 aa 1e 01 00 	lea    0x11eaa(%rip),%rax        # 18eb0 <g_2301+0x10>
    7006:	48 89 85 f8 fa ff ff 	mov    %rax,-0x508(%rbp)
    700d:	48 8d 85 f0 f1 ff ff 	lea    -0xe10(%rbp),%rax
    7014:	48 83 c0 1c          	add    $0x1c,%rax
    7018:	48 89 85 00 fb ff ff 	mov    %rax,-0x500(%rbp)
    701f:	48 8d 85 ac ef ff ff 	lea    -0x1054(%rbp),%rax
    7026:	48 89 85 08 fb ff ff 	mov    %rax,-0x4f8(%rbp)
    702d:	48 8d 85 a0 ef ff ff 	lea    -0x1060(%rbp),%rax
    7034:	48 89 85 10 fb ff ff 	mov    %rax,-0x4f0(%rbp)
    703b:	48 8d 05 6e 1e 01 00 	lea    0x11e6e(%rip),%rax        # 18eb0 <g_2301+0x10>
    7042:	48 89 85 18 fb ff ff 	mov    %rax,-0x4e8(%rbp)
    7049:	48 8d 05 60 1e 01 00 	lea    0x11e60(%rip),%rax        # 18eb0 <g_2301+0x10>
    7050:	48 89 85 20 fb ff ff 	mov    %rax,-0x4e0(%rbp)
    7057:	48 c7 85 28 fb ff ff 	movq   $0x0,-0x4d8(%rbp)
    705e:	00 00 00 00 
    7062:	48 8d 05 47 1e 01 00 	lea    0x11e47(%rip),%rax        # 18eb0 <g_2301+0x10>
    7069:	48 89 85 30 fb ff ff 	mov    %rax,-0x4d0(%rbp)
    7070:	48 8d 85 a4 ef ff ff 	lea    -0x105c(%rbp),%rax
    7077:	48 89 85 38 fb ff ff 	mov    %rax,-0x4c8(%rbp)
    707e:	48 8d 85 a4 ef ff ff 	lea    -0x105c(%rbp),%rax
    7085:	48 89 85 40 fb ff ff 	mov    %rax,-0x4c0(%rbp)
    708c:	48 8d 05 1d 1e 01 00 	lea    0x11e1d(%rip),%rax        # 18eb0 <g_2301+0x10>
    7093:	48 89 85 48 fb ff ff 	mov    %rax,-0x4b8(%rbp)
    709a:	48 8d 85 f0 f1 ff ff 	lea    -0xe10(%rbp),%rax
    70a1:	48 83 c0 1c          	add    $0x1c,%rax
    70a5:	48 89 85 50 fb ff ff 	mov    %rax,-0x4b0(%rbp)
    70ac:	48 c7 85 58 fb ff ff 	movq   $0x0,-0x4a8(%rbp)
    70b3:	00 00 00 00 
    70b7:	48 8d 85 a4 ef ff ff 	lea    -0x105c(%rbp),%rax
    70be:	48 89 85 60 fb ff ff 	mov    %rax,-0x4a0(%rbp)
    70c5:	48 8d 85 ac ef ff ff 	lea    -0x1054(%rbp),%rax
    70cc:	48 89 85 68 fb ff ff 	mov    %rax,-0x498(%rbp)
    70d3:	48 8d 05 d6 1d 01 00 	lea    0x11dd6(%rip),%rax        # 18eb0 <g_2301+0x10>
    70da:	48 89 85 70 fb ff ff 	mov    %rax,-0x490(%rbp)
    70e1:	48 8d 85 a0 ef ff ff 	lea    -0x1060(%rbp),%rax
    70e8:	48 89 85 78 fb ff ff 	mov    %rax,-0x488(%rbp)
    70ef:	48 8d 05 ba 1d 01 00 	lea    0x11dba(%rip),%rax        # 18eb0 <g_2301+0x10>
    70f6:	48 89 85 80 fb ff ff 	mov    %rax,-0x480(%rbp)
    70fd:	48 8d 85 a0 ef ff ff 	lea    -0x1060(%rbp),%rax
    7104:	48 89 85 88 fb ff ff 	mov    %rax,-0x478(%rbp)
    710b:	48 8d 85 a0 ef ff ff 	lea    -0x1060(%rbp),%rax
    7112:	48 89 85 90 fb ff ff 	mov    %rax,-0x470(%rbp)
    7119:	48 8d 85 a4 ef ff ff 	lea    -0x105c(%rbp),%rax
    7120:	48 89 85 98 fb ff ff 	mov    %rax,-0x468(%rbp)
    7127:	48 8d 85 f0 f1 ff ff 	lea    -0xe10(%rbp),%rax
    712e:	48 83 c0 1c          	add    $0x1c,%rax
    7132:	48 89 85 a0 fb ff ff 	mov    %rax,-0x460(%rbp)
    7139:	48 8d 85 a0 ef ff ff 	lea    -0x1060(%rbp),%rax
    7140:	48 89 85 a8 fb ff ff 	mov    %rax,-0x458(%rbp)
    7147:	48 8d 85 f0 f1 ff ff 	lea    -0xe10(%rbp),%rax
    714e:	48 83 c0 1c          	add    $0x1c,%rax
    7152:	48 89 85 b0 fb ff ff 	mov    %rax,-0x450(%rbp)
    7159:	48 8d 85 a0 ef ff ff 	lea    -0x1060(%rbp),%rax
    7160:	48 89 85 b8 fb ff ff 	mov    %rax,-0x448(%rbp)
    7167:	48 8d 85 ac ef ff ff 	lea    -0x1054(%rbp),%rax
    716e:	48 89 85 c0 fb ff ff 	mov    %rax,-0x440(%rbp)
    7175:	48 8d 85 ac ef ff ff 	lea    -0x1054(%rbp),%rax
    717c:	48 89 85 c8 fb ff ff 	mov    %rax,-0x438(%rbp)
    7183:	48 c7 85 d0 fb ff ff 	movq   $0x0,-0x430(%rbp)
    718a:	00 00 00 00 
    718e:	48 c7 85 d8 fb ff ff 	movq   $0x0,-0x428(%rbp)
    7195:	00 00 00 00 
    7199:	48 8d 05 10 1d 01 00 	lea    0x11d10(%rip),%rax        # 18eb0 <g_2301+0x10>
    71a0:	48 89 85 e0 fb ff ff 	mov    %rax,-0x420(%rbp)
    71a7:	48 8d 05 02 1d 01 00 	lea    0x11d02(%rip),%rax        # 18eb0 <g_2301+0x10>
    71ae:	48 89 85 e8 fb ff ff 	mov    %rax,-0x418(%rbp)
    71b5:	48 c7 85 f0 fb ff ff 	movq   $0x0,-0x410(%rbp)
    71bc:	00 00 00 00 
    71c0:	48 8d 85 a4 ef ff ff 	lea    -0x105c(%rbp),%rax
    71c7:	48 89 85 f8 fb ff ff 	mov    %rax,-0x408(%rbp)
    71ce:	48 8d 85 ac ef ff ff 	lea    -0x1054(%rbp),%rax
    71d5:	48 89 85 00 fc ff ff 	mov    %rax,-0x400(%rbp)
    71dc:	48 c7 85 08 fc ff ff 	movq   $0x0,-0x3f8(%rbp)
    71e3:	00 00 00 00 
    71e7:	48 8d 85 f0 f1 ff ff 	lea    -0xe10(%rbp),%rax
    71ee:	48 83 c0 1c          	add    $0x1c,%rax
    71f2:	48 89 85 10 fc ff ff 	mov    %rax,-0x3f0(%rbp)
    71f9:	48 8d 05 b0 1c 01 00 	lea    0x11cb0(%rip),%rax        # 18eb0 <g_2301+0x10>
    7200:	48 89 85 18 fc ff ff 	mov    %rax,-0x3e8(%rbp)
    7207:	48 8d 85 f0 f1 ff ff 	lea    -0xe10(%rbp),%rax
    720e:	48 83 c0 1c          	add    $0x1c,%rax
    7212:	48 89 85 20 fc ff ff 	mov    %rax,-0x3e0(%rbp)
    7219:	48 8d 85 ac ef ff ff 	lea    -0x1054(%rbp),%rax
    7220:	48 89 85 28 fc ff ff 	mov    %rax,-0x3d8(%rbp)
    7227:	48 8d 85 a0 ef ff ff 	lea    -0x1060(%rbp),%rax
    722e:	48 89 85 30 fc ff ff 	mov    %rax,-0x3d0(%rbp)
    7235:	48 8d 05 74 1c 01 00 	lea    0x11c74(%rip),%rax        # 18eb0 <g_2301+0x10>
    723c:	48 89 85 38 fc ff ff 	mov    %rax,-0x3c8(%rbp)
    7243:	48 8d 05 66 1c 01 00 	lea    0x11c66(%rip),%rax        # 18eb0 <g_2301+0x10>
    724a:	48 89 85 40 fc ff ff 	mov    %rax,-0x3c0(%rbp)
    7251:	48 c7 85 48 fc ff ff 	movq   $0x0,-0x3b8(%rbp)
    7258:	00 00 00 00 
    725c:	48 8d 05 4d 1c 01 00 	lea    0x11c4d(%rip),%rax        # 18eb0 <g_2301+0x10>
    7263:	48 89 85 50 fc ff ff 	mov    %rax,-0x3b0(%rbp)
    726a:	48 8d 85 a4 ef ff ff 	lea    -0x105c(%rbp),%rax
    7271:	48 89 85 58 fc ff ff 	mov    %rax,-0x3a8(%rbp)
    7278:	48 8d 85 a4 ef ff ff 	lea    -0x105c(%rbp),%rax
    727f:	48 89 85 60 fc ff ff 	mov    %rax,-0x3a0(%rbp)
    7286:	48 8d 05 23 1c 01 00 	lea    0x11c23(%rip),%rax        # 18eb0 <g_2301+0x10>
    728d:	48 89 85 68 fc ff ff 	mov    %rax,-0x398(%rbp)
    7294:	48 8d 85 f0 f1 ff ff 	lea    -0xe10(%rbp),%rax
    729b:	48 83 c0 1c          	add    $0x1c,%rax
    729f:	48 89 85 70 fc ff ff 	mov    %rax,-0x390(%rbp)
    72a6:	48 c7 85 78 fc ff ff 	movq   $0x0,-0x388(%rbp)
    72ad:	00 00 00 00 
    72b1:	48 8d 85 a4 ef ff ff 	lea    -0x105c(%rbp),%rax
    72b8:	48 89 85 80 fc ff ff 	mov    %rax,-0x380(%rbp)
    72bf:	48 8d 85 ac ef ff ff 	lea    -0x1054(%rbp),%rax
    72c6:	48 89 85 88 fc ff ff 	mov    %rax,-0x378(%rbp)
    72cd:	48 8d 05 dc 1b 01 00 	lea    0x11bdc(%rip),%rax        # 18eb0 <g_2301+0x10>
    72d4:	48 89 85 90 fc ff ff 	mov    %rax,-0x370(%rbp)
    72db:	48 8d 85 a0 ef ff ff 	lea    -0x1060(%rbp),%rax
    72e2:	48 89 85 98 fc ff ff 	mov    %rax,-0x368(%rbp)
    72e9:	48 8d 05 c0 1b 01 00 	lea    0x11bc0(%rip),%rax        # 18eb0 <g_2301+0x10>
    72f0:	48 89 85 a0 fc ff ff 	mov    %rax,-0x360(%rbp)
    72f7:	48 8d 85 a0 ef ff ff 	lea    -0x1060(%rbp),%rax
    72fe:	48 89 85 a8 fc ff ff 	mov    %rax,-0x358(%rbp)
    7305:	48 8d 85 a0 ef ff ff 	lea    -0x1060(%rbp),%rax
    730c:	48 89 85 b0 fc ff ff 	mov    %rax,-0x350(%rbp)
    7313:	48 8d 85 a4 ef ff ff 	lea    -0x105c(%rbp),%rax
    731a:	48 89 85 b8 fc ff ff 	mov    %rax,-0x348(%rbp)
    7321:	48 8d 85 f0 f1 ff ff 	lea    -0xe10(%rbp),%rax
    7328:	48 83 c0 1c          	add    $0x1c,%rax
    732c:	48 89 85 c0 fc ff ff 	mov    %rax,-0x340(%rbp)
    7333:	48 8d 85 a0 ef ff ff 	lea    -0x1060(%rbp),%rax
    733a:	48 89 85 c8 fc ff ff 	mov    %rax,-0x338(%rbp)
    7341:	48 8d 85 f0 f1 ff ff 	lea    -0xe10(%rbp),%rax
    7348:	48 83 c0 1c          	add    $0x1c,%rax
    734c:	48 89 85 d0 fc ff ff 	mov    %rax,-0x330(%rbp)
    7353:	48 8d 85 a0 ef ff ff 	lea    -0x1060(%rbp),%rax
    735a:	48 89 85 d8 fc ff ff 	mov    %rax,-0x328(%rbp)
    7361:	48 8d 85 ac ef ff ff 	lea    -0x1054(%rbp),%rax
    7368:	48 89 85 e0 fc ff ff 	mov    %rax,-0x320(%rbp)
    736f:	48 8d 85 ac ef ff ff 	lea    -0x1054(%rbp),%rax
    7376:	48 89 85 e8 fc ff ff 	mov    %rax,-0x318(%rbp)
    737d:	48 c7 85 f0 fc ff ff 	movq   $0x0,-0x310(%rbp)
    7384:	00 00 00 00 
    7388:	48 c7 85 f8 fc ff ff 	movq   $0x0,-0x308(%rbp)
    738f:	00 00 00 00 
    7393:	48 8d 05 16 1b 01 00 	lea    0x11b16(%rip),%rax        # 18eb0 <g_2301+0x10>
    739a:	48 89 85 00 fd ff ff 	mov    %rax,-0x300(%rbp)
    73a1:	48 8d 05 08 1b 01 00 	lea    0x11b08(%rip),%rax        # 18eb0 <g_2301+0x10>
    73a8:	48 89 85 08 fd ff ff 	mov    %rax,-0x2f8(%rbp)
    73af:	48 c7 85 10 fd ff ff 	movq   $0x0,-0x2f0(%rbp)
    73b6:	00 00 00 00 
    73ba:	48 8d 85 a4 ef ff ff 	lea    -0x105c(%rbp),%rax
    73c1:	48 89 85 18 fd ff ff 	mov    %rax,-0x2e8(%rbp)
    73c8:	48 8d 85 ac ef ff ff 	lea    -0x1054(%rbp),%rax
    73cf:	48 89 85 20 fd ff ff 	mov    %rax,-0x2e0(%rbp)
    73d6:	48 c7 85 28 fd ff ff 	movq   $0x0,-0x2d8(%rbp)
    73dd:	00 00 00 00 
    73e1:	48 8d 85 f0 f1 ff ff 	lea    -0xe10(%rbp),%rax
    73e8:	48 83 c0 1c          	add    $0x1c,%rax
    73ec:	48 89 85 30 fd ff ff 	mov    %rax,-0x2d0(%rbp)
    73f3:	48 8d 05 b6 1a 01 00 	lea    0x11ab6(%rip),%rax        # 18eb0 <g_2301+0x10>
    73fa:	48 89 85 38 fd ff ff 	mov    %rax,-0x2c8(%rbp)
    7401:	48 8d 85 f0 f1 ff ff 	lea    -0xe10(%rbp),%rax
    7408:	48 83 c0 1c          	add    $0x1c,%rax
    740c:	48 89 85 40 fd ff ff 	mov    %rax,-0x2c0(%rbp)
    7413:	48 8d 85 ac ef ff ff 	lea    -0x1054(%rbp),%rax
    741a:	48 89 85 48 fd ff ff 	mov    %rax,-0x2b8(%rbp)
    7421:	48 8d 85 a0 ef ff ff 	lea    -0x1060(%rbp),%rax
    7428:	48 89 85 50 fd ff ff 	mov    %rax,-0x2b0(%rbp)
    742f:	48 8d 05 7a 1a 01 00 	lea    0x11a7a(%rip),%rax        # 18eb0 <g_2301+0x10>
    7436:	48 89 85 58 fd ff ff 	mov    %rax,-0x2a8(%rbp)
    743d:	48 8d 05 6c 1a 01 00 	lea    0x11a6c(%rip),%rax        # 18eb0 <g_2301+0x10>
    7444:	48 89 85 60 fd ff ff 	mov    %rax,-0x2a0(%rbp)
    744b:	48 c7 85 68 fd ff ff 	movq   $0x0,-0x298(%rbp)
    7452:	00 00 00 00 
    7456:	48 8d 05 53 1a 01 00 	lea    0x11a53(%rip),%rax        # 18eb0 <g_2301+0x10>
    745d:	48 89 85 70 fd ff ff 	mov    %rax,-0x290(%rbp)
    7464:	48 8d 85 a4 ef ff ff 	lea    -0x105c(%rbp),%rax
    746b:	48 89 85 78 fd ff ff 	mov    %rax,-0x288(%rbp)
    7472:	48 8d 85 a4 ef ff ff 	lea    -0x105c(%rbp),%rax
    7479:	48 89 85 80 fd ff ff 	mov    %rax,-0x280(%rbp)
    7480:	48 8d 05 29 1a 01 00 	lea    0x11a29(%rip),%rax        # 18eb0 <g_2301+0x10>
    7487:	48 89 85 88 fd ff ff 	mov    %rax,-0x278(%rbp)
    748e:	48 8d 85 f0 f1 ff ff 	lea    -0xe10(%rbp),%rax
    7495:	48 83 c0 1c          	add    $0x1c,%rax
    7499:	48 89 85 90 fd ff ff 	mov    %rax,-0x270(%rbp)
    74a0:	48 c7 85 98 fd ff ff 	movq   $0x0,-0x268(%rbp)
    74a7:	00 00 00 00 
    74ab:	48 8d 85 a4 ef ff ff 	lea    -0x105c(%rbp),%rax
    74b2:	48 89 85 a0 fd ff ff 	mov    %rax,-0x260(%rbp)
    74b9:	48 8d 85 ac ef ff ff 	lea    -0x1054(%rbp),%rax
    74c0:	48 89 85 a8 fd ff ff 	mov    %rax,-0x258(%rbp)
    74c7:	48 8d 05 e2 19 01 00 	lea    0x119e2(%rip),%rax        # 18eb0 <g_2301+0x10>
    74ce:	48 89 85 b0 fd ff ff 	mov    %rax,-0x250(%rbp)
    74d5:	48 8d 85 a0 ef ff ff 	lea    -0x1060(%rbp),%rax
    74dc:	48 89 85 b8 fd ff ff 	mov    %rax,-0x248(%rbp)
    74e3:	48 8d 05 c6 19 01 00 	lea    0x119c6(%rip),%rax        # 18eb0 <g_2301+0x10>
    74ea:	48 89 85 c0 fd ff ff 	mov    %rax,-0x240(%rbp)
    74f1:	48 8d 85 a0 ef ff ff 	lea    -0x1060(%rbp),%rax
    74f8:	48 89 85 c8 fd ff ff 	mov    %rax,-0x238(%rbp)
    74ff:	48 8d 85 a0 ef ff ff 	lea    -0x1060(%rbp),%rax
    7506:	48 89 85 d0 fd ff ff 	mov    %rax,-0x230(%rbp)
    750d:	48 8d 85 a4 ef ff ff 	lea    -0x105c(%rbp),%rax
    7514:	48 89 85 d8 fd ff ff 	mov    %rax,-0x228(%rbp)
    751b:	48 8d 85 f0 f1 ff ff 	lea    -0xe10(%rbp),%rax
    7522:	48 83 c0 1c          	add    $0x1c,%rax
    7526:	48 89 85 e0 fd ff ff 	mov    %rax,-0x220(%rbp)
    752d:	48 8d 85 a0 ef ff ff 	lea    -0x1060(%rbp),%rax
    7534:	48 89 85 e8 fd ff ff 	mov    %rax,-0x218(%rbp)
    753b:	48 8d 85 f0 f1 ff ff 	lea    -0xe10(%rbp),%rax
    7542:	48 83 c0 1c          	add    $0x1c,%rax
    7546:	48 89 85 f0 fd ff ff 	mov    %rax,-0x210(%rbp)
    754d:	48 8d 85 a0 ef ff ff 	lea    -0x1060(%rbp),%rax
    7554:	48 89 85 f8 fd ff ff 	mov    %rax,-0x208(%rbp)
    755b:	48 8d 85 ac ef ff ff 	lea    -0x1054(%rbp),%rax
    7562:	48 89 85 00 fe ff ff 	mov    %rax,-0x200(%rbp)
    7569:	48 8d 85 ac ef ff ff 	lea    -0x1054(%rbp),%rax
    7570:	48 89 85 08 fe ff ff 	mov    %rax,-0x1f8(%rbp)
    7577:	48 c7 85 10 fe ff ff 	movq   $0x0,-0x1f0(%rbp)
    757e:	00 00 00 00 
    7582:	48 c7 85 18 fe ff ff 	movq   $0x0,-0x1e8(%rbp)
    7589:	00 00 00 00 
    758d:	48 8d 05 1c 19 01 00 	lea    0x1191c(%rip),%rax        # 18eb0 <g_2301+0x10>
    7594:	48 89 85 20 fe ff ff 	mov    %rax,-0x1e0(%rbp)
    759b:	48 8d 05 0e 19 01 00 	lea    0x1190e(%rip),%rax        # 18eb0 <g_2301+0x10>
    75a2:	48 89 85 28 fe ff ff 	mov    %rax,-0x1d8(%rbp)
    75a9:	48 c7 85 30 fe ff ff 	movq   $0x0,-0x1d0(%rbp)
    75b0:	00 00 00 00 
    75b4:	48 8d 85 a4 ef ff ff 	lea    -0x105c(%rbp),%rax
    75bb:	48 89 85 38 fe ff ff 	mov    %rax,-0x1c8(%rbp)
    75c2:	48 8d 85 ac ef ff ff 	lea    -0x1054(%rbp),%rax
    75c9:	48 89 85 40 fe ff ff 	mov    %rax,-0x1c0(%rbp)
    75d0:	48 c7 85 48 fe ff ff 	movq   $0x0,-0x1b8(%rbp)
    75d7:	00 00 00 00 
    75db:	48 8d 85 f0 f1 ff ff 	lea    -0xe10(%rbp),%rax
    75e2:	48 83 c0 1c          	add    $0x1c,%rax
    75e6:	48 89 85 50 fe ff ff 	mov    %rax,-0x1b0(%rbp)
    75ed:	48 8d 05 bc 18 01 00 	lea    0x118bc(%rip),%rax        # 18eb0 <g_2301+0x10>
    75f4:	48 89 85 58 fe ff ff 	mov    %rax,-0x1a8(%rbp)
    75fb:	48 8d 85 f0 f1 ff ff 	lea    -0xe10(%rbp),%rax
    7602:	48 83 c0 1c          	add    $0x1c,%rax
    7606:	48 89 85 60 fe ff ff 	mov    %rax,-0x1a0(%rbp)
    760d:	48 8d 85 ac ef ff ff 	lea    -0x1054(%rbp),%rax
    7614:	48 89 85 68 fe ff ff 	mov    %rax,-0x198(%rbp)
    761b:	48 8d 85 a0 ef ff ff 	lea    -0x1060(%rbp),%rax
    7622:	48 89 85 70 fe ff ff 	mov    %rax,-0x190(%rbp)
    7629:	48 8d 05 80 18 01 00 	lea    0x11880(%rip),%rax        # 18eb0 <g_2301+0x10>
    7630:	48 89 85 78 fe ff ff 	mov    %rax,-0x188(%rbp)
    7637:	48 8d 05 72 18 01 00 	lea    0x11872(%rip),%rax        # 18eb0 <g_2301+0x10>
    763e:	48 89 85 80 fe ff ff 	mov    %rax,-0x180(%rbp)
    7645:	48 c7 85 88 fe ff ff 	movq   $0x0,-0x178(%rbp)
    764c:	00 00 00 00 
    7650:	48 8d 05 59 18 01 00 	lea    0x11859(%rip),%rax        # 18eb0 <g_2301+0x10>
    7657:	48 89 85 90 fe ff ff 	mov    %rax,-0x170(%rbp)
    765e:	48 8d 85 a4 ef ff ff 	lea    -0x105c(%rbp),%rax
    7665:	48 89 85 98 fe ff ff 	mov    %rax,-0x168(%rbp)
    766c:	48 8d 85 a4 ef ff ff 	lea    -0x105c(%rbp),%rax
    7673:	48 89 85 a0 fe ff ff 	mov    %rax,-0x160(%rbp)
    767a:	48 8d 05 2f 18 01 00 	lea    0x1182f(%rip),%rax        # 18eb0 <g_2301+0x10>
    7681:	48 89 85 a8 fe ff ff 	mov    %rax,-0x158(%rbp)
    7688:	48 8d 85 f0 f1 ff ff 	lea    -0xe10(%rbp),%rax
    768f:	48 83 c0 1c          	add    $0x1c,%rax
    7693:	48 89 85 b0 fe ff ff 	mov    %rax,-0x150(%rbp)
    769a:	48 c7 85 b8 fe ff ff 	movq   $0x0,-0x148(%rbp)
    76a1:	00 00 00 00 
    76a5:	48 8d 85 a4 ef ff ff 	lea    -0x105c(%rbp),%rax
    76ac:	48 89 85 c0 fe ff ff 	mov    %rax,-0x140(%rbp)
    76b3:	48 8d 85 ac ef ff ff 	lea    -0x1054(%rbp),%rax
    76ba:	48 89 85 c8 fe ff ff 	mov    %rax,-0x138(%rbp)
    76c1:	48 8d 05 e8 17 01 00 	lea    0x117e8(%rip),%rax        # 18eb0 <g_2301+0x10>
    76c8:	48 89 85 d0 fe ff ff 	mov    %rax,-0x130(%rbp)
    76cf:	48 8d 85 a0 ef ff ff 	lea    -0x1060(%rbp),%rax
    76d6:	48 89 85 d8 fe ff ff 	mov    %rax,-0x128(%rbp)
    76dd:	48 8d 05 cc 17 01 00 	lea    0x117cc(%rip),%rax        # 18eb0 <g_2301+0x10>
    76e4:	48 89 85 e0 fe ff ff 	mov    %rax,-0x120(%rbp)
    76eb:	48 8d 85 a0 ef ff ff 	lea    -0x1060(%rbp),%rax
    76f2:	48 89 85 e8 fe ff ff 	mov    %rax,-0x118(%rbp)
    76f9:	48 8d 85 a0 ef ff ff 	lea    -0x1060(%rbp),%rax
    7700:	48 89 85 f0 fe ff ff 	mov    %rax,-0x110(%rbp)
    7707:	48 8d 85 a4 ef ff ff 	lea    -0x105c(%rbp),%rax
    770e:	48 89 85 f8 fe ff ff 	mov    %rax,-0x108(%rbp)
    7715:	48 8d 85 f0 f1 ff ff 	lea    -0xe10(%rbp),%rax
    771c:	48 83 c0 1c          	add    $0x1c,%rax
    7720:	48 89 85 00 ff ff ff 	mov    %rax,-0x100(%rbp)
    7727:	48 8d 85 a0 ef ff ff 	lea    -0x1060(%rbp),%rax
    772e:	48 89 85 08 ff ff ff 	mov    %rax,-0xf8(%rbp)
    7735:	48 8d 85 f0 f1 ff ff 	lea    -0xe10(%rbp),%rax
    773c:	48 83 c0 1c          	add    $0x1c,%rax
    7740:	48 89 85 10 ff ff ff 	mov    %rax,-0xf0(%rbp)
    7747:	48 8d 85 a0 ef ff ff 	lea    -0x1060(%rbp),%rax
    774e:	48 89 85 18 ff ff ff 	mov    %rax,-0xe8(%rbp)
    7755:	48 8d 85 ac ef ff ff 	lea    -0x1054(%rbp),%rax
    775c:	48 89 85 20 ff ff ff 	mov    %rax,-0xe0(%rbp)
    7763:	48 8d 85 ac ef ff ff 	lea    -0x1054(%rbp),%rax
    776a:	48 89 85 28 ff ff ff 	mov    %rax,-0xd8(%rbp)
    7771:	48 c7 85 30 ff ff ff 	movq   $0x0,-0xd0(%rbp)
    7778:	00 00 00 00 
    777c:	48 c7 85 38 ff ff ff 	movq   $0x0,-0xc8(%rbp)
    7783:	00 00 00 00 
    7787:	48 8d 05 22 17 01 00 	lea    0x11722(%rip),%rax        # 18eb0 <g_2301+0x10>
    778e:	48 89 85 40 ff ff ff 	mov    %rax,-0xc0(%rbp)
    7795:	48 8d 05 14 17 01 00 	lea    0x11714(%rip),%rax        # 18eb0 <g_2301+0x10>
    779c:	48 89 85 48 ff ff ff 	mov    %rax,-0xb8(%rbp)
    77a3:	48 c7 85 50 ff ff ff 	movq   $0x0,-0xb0(%rbp)
    77aa:	00 00 00 00 
    77ae:	48 8d 05 fb 16 01 00 	lea    0x116fb(%rip),%rax        # 18eb0 <g_2301+0x10>
    77b5:	48 89 85 58 ff ff ff 	mov    %rax,-0xa8(%rbp)
    77bc:	48 c7 85 60 ff ff ff 	movq   $0x0,-0xa0(%rbp)
    77c3:	00 00 00 00 
    77c7:	48 8d 85 f0 f1 ff ff 	lea    -0xe10(%rbp),%rax
    77ce:	48 83 c0 1c          	add    $0x1c,%rax
    77d2:	48 89 85 68 ff ff ff 	mov    %rax,-0x98(%rbp)
    77d9:	48 c7 85 70 ff ff ff 	movq   $0x0,-0x90(%rbp)
    77e0:	00 00 00 00 
    77e4:	48 8d 85 a4 ef ff ff 	lea    -0x105c(%rbp),%rax
    77eb:	48 89 85 78 ff ff ff 	mov    %rax,-0x88(%rbp)
    77f2:	48 c7 45 80 00 00 00 	movq   $0x0,-0x80(%rbp)
    77f9:	00 
    77fa:	48 c7 45 88 00 00 00 	movq   $0x0,-0x78(%rbp)
    7801:	00 
    7802:	48 8d 85 ac ef ff ff 	lea    -0x1054(%rbp),%rax
    7809:	48 89 45 90          	mov    %rax,-0x70(%rbp)
    780d:	48 8d 85 a4 ef ff ff 	lea    -0x105c(%rbp),%rax
    7814:	48 89 45 98          	mov    %rax,-0x68(%rbp)
    7818:	48 c7 45 a0 00 00 00 	movq   $0x0,-0x60(%rbp)
    781f:	00 
    7820:	48 8d 85 f0 f1 ff ff 	lea    -0xe10(%rbp),%rax
    7827:	48 83 c0 1c          	add    $0x1c,%rax
    782b:	48 89 45 a8          	mov    %rax,-0x58(%rbp)
    782f:	48 8d 85 a4 ef ff ff 	lea    -0x105c(%rbp),%rax
    7836:	48 89 45 b0          	mov    %rax,-0x50(%rbp)
    783a:	48 8d 05 6f 16 01 00 	lea    0x1166f(%rip),%rax        # 18eb0 <g_2301+0x10>
    7841:	48 89 45 b8          	mov    %rax,-0x48(%rbp)
    7845:	48 8d 05 64 16 01 00 	lea    0x11664(%rip),%rax        # 18eb0 <g_2301+0x10>
    784c:	48 89 45 c0          	mov    %rax,-0x40(%rbp)
    7850:	48 8d 85 a4 ef ff ff 	lea    -0x105c(%rbp),%rax
    7857:	48 89 45 c8          	mov    %rax,-0x38(%rbp)
    785b:	48 83 bd 88 f0 ff ff 	cmpq   $0x0,-0xf78(%rbp)
    7862:	00 
    7863:	0f 95 c2             	setne  %dl
    7866:	48 8b 05 f3 27 01 00 	mov    0x127f3(%rip),%rax        # 1a060 <g_55>
    786d:	88 10                	mov    %dl,(%rax)
    786f:	0f b6 00             	movzbl (%rax),%eax
    7872:	0f b6 c0             	movzbl %al,%eax
    7875:	39 85 7c ef ff ff    	cmp    %eax,-0x1084(%rbp)
    787b:	0f 96 c0             	setbe  %al
    787e:	0f b6 c8             	movzbl %al,%ecx
    7881:	48 8b 05 e8 27 01 00 	mov    0x127e8(%rip),%rax        # 1a070 <g_213>
    7888:	8b 10                	mov    (%rax),%edx
    788a:	48 8b 05 df 27 01 00 	mov    0x127df(%rip),%rax        # 1a070 <g_213>
    7891:	21 ca                	and    %ecx,%edx
    7893:	89 10                	mov    %edx,(%rax)
    7895:	48 8b 85 70 ef ff ff 	mov    -0x1090(%rbp),%rax
    789c:	48 8b 10             	mov    (%rax),%rdx
    789f:	8b 85 7c ef ff ff    	mov    -0x1084(%rbp),%eax
    78a5:	48 39 c2             	cmp    %rax,%rdx
    78a8:	0f 96 c0             	setbe  %al
    78ab:	0f b6 c0             	movzbl %al,%eax
    78ae:	be 04 00 00 00       	mov    $0x4,%esi
    78b3:	89 c7                	mov    %eax,%edi
    78b5:	e8 e7 b9 ff ff       	callq  32a1 <safe_lshift_func_int8_t_s_s>
    78ba:	0f b7 85 78 ef ff ff 	movzwl -0x1088(%rbp),%eax
    78c1:	0f b6 d8             	movzbl %al,%ebx
    78c4:	8b 85 1c f0 ff ff    	mov    -0xfe4(%rbp),%eax
    78ca:	0b 85 7c ef ff ff    	or     -0x1084(%rbp),%eax
    78d0:	85 c0                	test   %eax,%eax
    78d2:	75 09                	jne    78dd <func_17+0x197d>
    78d4:	83 bd 0c f0 ff ff 00 	cmpl   $0x0,-0xff4(%rbp)
    78db:	74 07                	je     78e4 <func_17+0x1984>
    78dd:	b8 01 00 00 00       	mov    $0x1,%eax
    78e2:	eb 05                	jmp    78e9 <func_17+0x1989>
    78e4:	b8 00 00 00 00       	mov    $0x0,%eax
    78e9:	0f b7 d0             	movzwl %ax,%edx
    78ec:	8b 85 7c ef ff ff    	mov    -0x1084(%rbp),%eax
    78f2:	89 c1                	mov    %eax,%ecx
    78f4:	48 8b 85 f8 f0 ff ff 	mov    -0xf08(%rbp),%rax
    78fb:	66 89 08             	mov    %cx,(%rax)
    78fe:	48 8b 85 f8 f0 ff ff 	mov    -0xf08(%rbp),%rax
    7905:	0f b7 00             	movzwl (%rax),%eax
    7908:	0f b7 c0             	movzwl %ax,%eax
    790b:	89 d6                	mov    %edx,%esi
    790d:	89 c7                	mov    %eax,%edi
    790f:	e8 29 c4 ff ff       	callq  3d3d <safe_mul_func_uint16_t_u_u>
    7914:	0f b6 c0             	movzbl %al,%eax
    7917:	89 de                	mov    %ebx,%esi
    7919:	89 c7                	mov    %eax,%edi
    791b:	e8 73 c2 ff ff       	callq  3b93 <safe_mul_func_uint8_t_u_u>
    7920:	8b 85 0c f0 ff ff    	mov    -0xff4(%rbp),%eax
    7926:	39 85 7c ef ff ff    	cmp    %eax,-0x1084(%rbp)
    792c:	0f 95 c0             	setne  %al
    792f:	0f b6 d0             	movzbl %al,%edx
    7932:	48 8b 85 00 f1 ff ff 	mov    -0xf00(%rbp),%rax
    7939:	89 10                	mov    %edx,(%rax)
    793b:	b8 01 00 00 00       	mov    $0x1,%eax
    7940:	31 85 64 ef ff ff    	xor    %eax,-0x109c(%rbp)
    7946:	48 83 ad 68 f0 ff ff 	subq   $0x1,-0xf98(%rbp)
    794d:	01 
    794e:	48 8b 05 e9 12 01 00 	mov    0x112e9(%rip),%rax        # 18c3e <g_2231+0x1e>
    7955:	48 85 c0             	test   %rax,%rax
    7958:	74 06                	je     7960 <func_17+0x1a00>
    795a:	90                   	nop
    795b:	e9 f0 e8 ff ff       	jmpq   6250 <func_17+0x2f0>
    7960:	8b 85 b8 ef ff ff    	mov    -0x1048(%rbp),%eax
    7966:	0f b7 c0             	movzwl %ax,%eax
    7969:	be 08 00 00 00       	mov    $0x8,%esi
    796e:	89 c7                	mov    %eax,%edi
    7970:	e8 aa c3 ff ff       	callq  3d1f <safe_sub_func_uint16_t_u_u>
    7975:	0f b7 c0             	movzwl %ax,%eax
    7978:	89 85 b8 ef ff ff    	mov    %eax,-0x1048(%rbp)
    797e:	83 bd b8 ef ff ff e3 	cmpl   $0xffffffe3,-0x1048(%rbp)
    7985:	0f 8c c5 f1 ff ff    	jl     6b50 <func_17+0xbf0>
    798b:	8b 05 a7 12 01 00    	mov    0x112a7(%rip),%eax        # 18c38 <g_2231+0x18>
    7991:	be 08 00 00 00       	mov    $0x8,%esi
    7996:	89 c7                	mov    %eax,%edi
    7998:	e8 1b c5 ff ff       	callq  3eb8 <safe_add_func_uint32_t_u_u>
    799d:	89 05 95 12 01 00    	mov    %eax,0x11295(%rip)        # 18c38 <g_2231+0x18>
    79a3:	8b 05 8f 12 01 00    	mov    0x1128f(%rip),%eax        # 18c38 <g_2231+0x18>
    79a9:	83 f8 0f             	cmp    $0xf,%eax
    79ac:	0f 8f 0e f1 ff ff    	jg     6ac0 <func_17+0xb60>
    79b2:	8b 05 94 e1 00 00    	mov    0xe194(%rip),%eax        # 15b4c <g_524>
    79b8:	98                   	cwtl   
    79b9:	be 09 00 00 00       	mov    $0x9,%esi
    79be:	89 c7                	mov    %eax,%edi
    79c0:	e8 ee b9 ff ff       	callq  33b3 <safe_add_func_int16_t_s_s>
    79c5:	98                   	cwtl   
    79c6:	89 05 80 e1 00 00    	mov    %eax,0xe180(%rip)        # 15b4c <g_524>
    79cc:	8b 05 7a e1 00 00    	mov    0xe17a(%rip),%eax        # 15b4c <g_524>
    79d2:	83 f8 15             	cmp    $0x15,%eax
    79d5:	0f 86 50 f0 ff ff    	jbe    6a2b <func_17+0xacb>
    79db:	e9 44 04 00 00       	jmpq   7e24 <func_17+0x1ec4>
    79e0:	90                   	nop
    79e1:	e9 6a e8 ff ff       	jmpq   6250 <func_17+0x2f0>
    79e6:	90                   	nop
    79e7:	e9 64 e8 ff ff       	jmpq   6250 <func_17+0x2f0>
    79ec:	48 8d 05 c5 2c 01 00 	lea    0x12cc5(%rip),%rax        # 1a6b8 <g_164>
    79f3:	48 89 85 c0 f0 ff ff 	mov    %rax,-0xf40(%rbp)
    79fa:	48 8d 05 53 d7 00 00 	lea    0xd753(%rip),%rax        # 15154 <g_82+0x34>
    7a01:	48 89 85 c8 f0 ff ff 	mov    %rax,-0xf38(%rbp)
    7a08:	66 c7 85 98 ef ff ff 	movw   $0xd85a,-0x1068(%rbp)
    7a0f:	5a d8 
    7a11:	c7 85 08 f0 ff ff 08 	movl   $0x8,-0xff8(%rbp)
    7a18:	00 00 00 
    7a1b:	c7 85 c8 ef ff ff 00 	movl   $0x0,-0x1038(%rbp)
    7a22:	00 00 00 
    7a25:	eb 1e                	jmp    7a45 <func_17+0x1ae5>
    7a27:	8b 85 c8 ef ff ff    	mov    -0x1038(%rbp),%eax
    7a2d:	48 98                	cltq   
    7a2f:	48 8d 95 a8 ef ff ff 	lea    -0x1058(%rbp),%rdx
    7a36:	48 89 94 c5 50 f1 ff 	mov    %rdx,-0xeb0(%rbp,%rax,8)
    7a3d:	ff 
    7a3e:	83 85 c8 ef ff ff 01 	addl   $0x1,-0x1038(%rbp)
    7a45:	83 bd c8 ef ff ff 01 	cmpl   $0x1,-0x1038(%rbp)
    7a4c:	7e d9                	jle    7a27 <func_17+0x1ac7>
    7a4e:	66 83 85 96 ef ff ff 	addw   $0x1,-0x106a(%rbp)
    7a55:	01 
    7a56:	8b 85 04 f6 ff ff    	mov    -0x9fc(%rbp),%eax
    7a5c:	83 c0 01             	add    $0x1,%eax
    7a5f:	89 85 04 f6 ff ff    	mov    %eax,-0x9fc(%rbp)
    7a65:	66 c7 85 92 ef ff ff 	movw   $0xfff3,-0x106e(%rbp)
    7a6c:	f3 ff 
    7a6e:	e9 a1 00 00 00       	jmpq   7b14 <func_17+0x1bb4>
    7a73:	48 8d 85 50 f8 ff ff 	lea    -0x7b0(%rbp),%rax
    7a7a:	48 8d 15 ff 95 00 00 	lea    0x95ff(%rip),%rdx        # 11080 <g_2577+0x18>
    7a81:	b9 6c 00 00 00       	mov    $0x6c,%ecx
    7a86:	48 89 c7             	mov    %rax,%rdi
    7a89:	48 89 d6             	mov    %rdx,%rsi
    7a8c:	f3 48 a5             	rep movsq %ds:(%rsi),%es:(%rdi)
    7a8f:	48 c7 85 d0 f0 ff ff 	movq   $0x0,-0xf30(%rbp)
    7a96:	00 00 00 00 
    7a9a:	48 8d 05 8e 13 01 00 	lea    0x1138e(%rip),%rax        # 18e2f <g_2237+0x8f>
    7aa1:	48 89 85 d8 f0 ff ff 	mov    %rax,-0xf28(%rbp)
    7aa8:	48 b8 05 9e 1a ab 9d 	movabs $0x22ec249dab1a9e05,%rax
    7aaf:	24 ec 22 
    7ab2:	48 89 85 e0 f0 ff ff 	mov    %rax,-0xf20(%rbp)
    7ab9:	48 8d 05 e8 26 01 00 	lea    0x126e8(%rip),%rax        # 1a1a8 <g_1623+0x8>
    7ac0:	48 89 85 e8 f0 ff ff 	mov    %rax,-0xf18(%rbp)
    7ac7:	c7 85 cc ef ff ff 00 	movl   $0x0,-0x1034(%rbp)
    7ace:	00 00 00 
    7ad1:	eb 1e                	jmp    7af1 <func_17+0x1b91>
    7ad3:	8b 85 cc ef ff ff    	mov    -0x1034(%rbp),%eax
    7ad9:	48 98                	cltq   
    7adb:	48 8d 15 98 e0 00 00 	lea    0xe098(%rip),%rdx        # 15b7a <g_830+0x1a>
    7ae2:	48 89 94 c5 f0 f1 ff 	mov    %rdx,-0xe10(%rbp,%rax,8)
    7ae9:	ff 
    7aea:	83 85 cc ef ff ff 01 	addl   $0x1,-0x1034(%rbp)
    7af1:	83 bd cc ef ff ff 02 	cmpl   $0x2,-0x1034(%rbp)
    7af8:	7e d9                	jle    7ad3 <func_17+0x1b73>
    7afa:	0f bf 85 92 ef ff ff 	movswl -0x106e(%rbp),%eax
    7b01:	be 04 00 00 00       	mov    $0x4,%esi
    7b06:	89 c7                	mov    %eax,%edi
    7b08:	e8 f8 ba ff ff       	callq  3605 <safe_sub_func_int32_t_s_s>
    7b0d:	66 89 85 92 ef ff ff 	mov    %ax,-0x106e(%rbp)
    7b14:	66 83 bd 92 ef ff ff 	cmpw   $0xffeb,-0x106e(%rbp)
    7b1b:	eb 
    7b1c:	0f 8c 51 ff ff ff    	jl     7a73 <func_17+0x1b13>
    7b22:	e9 fd 02 00 00       	jmpq   7e24 <func_17+0x1ec4>
    7b27:	c7 85 e4 ef ff ff 01 	movl   $0x1,-0x101c(%rbp)
    7b2e:	00 00 00 
    7b31:	c7 85 e8 ef ff ff 9f 	movl   $0xd658399f,-0x1018(%rbp)
    7b38:	39 58 d6 
    7b3b:	c7 85 ec ef ff ff d9 	movl   $0xf320e4d9,-0x1014(%rbp)
    7b42:	e4 20 f3 
    7b45:	c7 85 f0 ef ff ff 9b 	movl   $0xa184c39b,-0x1010(%rbp)
    7b4c:	c3 84 a1 
    7b4f:	c7 85 f4 ef ff ff 9b 	movl   $0x4e98779b,-0x100c(%rbp)
    7b56:	77 98 4e 
    7b59:	c7 85 20 f2 ff ff 24 	movl   $0xbfb23d24,-0xde0(%rbp)
    7b60:	3d b2 bf 
    7b63:	c7 85 24 f2 ff ff 24 	movl   $0xbfb23d24,-0xddc(%rbp)
    7b6a:	3d b2 bf 
    7b6d:	c7 85 28 f2 ff ff 24 	movl   $0xbfb23d24,-0xdd8(%rbp)
    7b74:	3d b2 bf 
    7b77:	c7 85 2c f2 ff ff 24 	movl   $0xbfb23d24,-0xdd4(%rbp)
    7b7e:	3d b2 bf 
    7b81:	c7 85 30 f2 ff ff 24 	movl   $0xbfb23d24,-0xdd0(%rbp)
    7b88:	3d b2 bf 
    7b8b:	c7 85 34 f2 ff ff 24 	movl   $0xbfb23d24,-0xdcc(%rbp)
    7b92:	3d b2 bf 
    7b95:	c7 85 38 f2 ff ff 24 	movl   $0xbfb23d24,-0xdc8(%rbp)
    7b9c:	3d b2 bf 
    7b9f:	c7 85 3c f2 ff ff 24 	movl   $0xbfb23d24,-0xdc4(%rbp)
    7ba6:	3d b2 bf 
    7ba9:	c7 85 40 f2 ff ff 24 	movl   $0xbfb23d24,-0xdc0(%rbp)
    7bb0:	3d b2 bf 
    7bb3:	c7 85 44 f2 ff ff 24 	movl   $0xbfb23d24,-0xdbc(%rbp)
    7bba:	3d b2 bf 
    7bbd:	c7 85 d0 ef ff ff 00 	movl   $0x0,-0x1030(%rbp)
    7bc4:	00 00 00 
    7bc7:	eb 46                	jmp    7c0f <func_17+0x1caf>
    7bc9:	c7 85 d4 ef ff ff 00 	movl   $0x0,-0x102c(%rbp)
    7bd0:	00 00 00 
    7bd3:	eb 2a                	jmp    7bff <func_17+0x1c9f>
    7bd5:	8b 85 d4 ef ff ff    	mov    -0x102c(%rbp),%eax
    7bdb:	48 63 d0             	movslq %eax,%rdx
    7bde:	8b 85 d0 ef ff ff    	mov    -0x1030(%rbp),%eax
    7be4:	48 98                	cltq   
    7be6:	48 01 d0             	add    %rdx,%rax
    7be9:	48 8d 15 48 d4 00 00 	lea    0xd448(%rip),%rdx        # 15038 <g_56>
    7bf0:	48 89 94 c5 10 f3 ff 	mov    %rdx,-0xcf0(%rbp,%rax,8)
    7bf7:	ff 
    7bf8:	83 85 d4 ef ff ff 01 	addl   $0x1,-0x102c(%rbp)
    7bff:	83 bd d4 ef ff ff 00 	cmpl   $0x0,-0x102c(%rbp)
    7c06:	7e cd                	jle    7bd5 <func_17+0x1c75>
    7c08:	83 85 d0 ef ff ff 01 	addl   $0x1,-0x1030(%rbp)
    7c0f:	83 bd d0 ef ff ff 08 	cmpl   $0x8,-0x1030(%rbp)
    7c16:	7e b1                	jle    7bc9 <func_17+0x1c69>
    7c18:	c7 85 a0 ef ff ff 00 	movl   $0x0,-0x1060(%rbp)
    7c1f:	00 00 00 
    7c22:	e9 ee 01 00 00       	jmpq   7e15 <func_17+0x1eb5>
    7c27:	c7 85 f8 ef ff ff 00 	movl   $0x0,-0x1008(%rbp)
    7c2e:	00 00 00 
    7c31:	66 c7 85 d0 f1 ff ff 	movw   $0xbaba,-0xe30(%rbp)
    7c38:	ba ba 
    7c3a:	c6 85 d2 f1 ff ff a7 	movb   $0xa7,-0xe2e(%rbp)
    7c41:	66 c7 85 d3 f1 ff ff 	movw   $0x1ff,-0xe2d(%rbp)
    7c48:	ff 01 
    7c4a:	c6 85 d5 f1 ff ff a7 	movb   $0xa7,-0xe2b(%rbp)
    7c51:	66 c7 85 d6 f1 ff ff 	movw   $0xff01,-0xe2a(%rbp)
    7c58:	01 ff 
    7c5a:	c6 85 d8 f1 ff ff a7 	movb   $0xa7,-0xe28(%rbp)
    7c61:	66 c7 85 d9 f1 ff ff 	movw   $0xbaba,-0xe27(%rbp)
    7c68:	ba ba 
    7c6a:	c6 85 db f1 ff ff a7 	movb   $0xa7,-0xe25(%rbp)
    7c71:	66 c7 85 dc f1 ff ff 	movw   $0x1ff,-0xe24(%rbp)
    7c78:	ff 01 
    7c7a:	c6 85 de f1 ff ff a7 	movb   $0xa7,-0xe22(%rbp)
    7c81:	66 c7 85 df f1 ff ff 	movw   $0xff01,-0xe21(%rbp)
    7c88:	01 ff 
    7c8a:	c6 85 e1 f1 ff ff a7 	movb   $0xa7,-0xe1f(%rbp)
    7c91:	48 8d 85 b0 f5 ff ff 	lea    -0xa50(%rbp),%rax
    7c98:	48 8d 15 81 19 01 00 	lea    0x11981(%rip),%rdx        # 19620 <g_2557+0x258>
    7c9f:	b9 54 00 00 00       	mov    $0x54,%ecx
    7ca4:	48 89 c7             	mov    %rax,%rdi
    7ca7:	48 89 d6             	mov    %rdx,%rsi
    7caa:	f3 48 a5             	rep movsq %ds:(%rsi),%es:(%rdi)
    7cad:	48 8d 85 b0 f5 ff ff 	lea    -0xa50(%rbp),%rax
    7cb4:	48 83 c0 60          	add    $0x60,%rax
    7cb8:	48 89 85 60 f0 ff ff 	mov    %rax,-0xfa0(%rbp)
    7cbf:	48 8d 85 60 f0 ff ff 	lea    -0xfa0(%rbp),%rax
    7cc6:	48 89 85 b0 f0 ff ff 	mov    %rax,-0xf50(%rbp)
    7ccd:	48 8d 85 50 f8 ff ff 	lea    -0x7b0(%rbp),%rax
    7cd4:	48 8d 15 05 97 00 00 	lea    0x9705(%rip),%rdx        # 113e0 <g_2577+0x378>
    7cdb:	b9 5a 00 00 00       	mov    $0x5a,%ecx
    7ce0:	48 89 c7             	mov    %rax,%rdi
    7ce3:	48 89 d6             	mov    %rdx,%rsi
    7ce6:	f3 48 a5             	rep movsq %ds:(%rsi),%es:(%rdi)
    7ce9:	c6 85 90 ef ff ff fe 	movb   $0xfe,-0x1070(%rbp)
    7cf0:	48 8b 05 79 23 01 00 	mov    0x12379(%rip),%rax        # 1a070 <g_213>
    7cf7:	8b 95 7c ef ff ff    	mov    -0x1084(%rbp),%edx
    7cfd:	89 10                	mov    %edx,(%rax)
    7cff:	48 8d 05 4a 25 01 00 	lea    0x1254a(%rip),%rax        # 1a250 <g_2043>
    7d06:	48 39 85 a0 f0 ff ff 	cmp    %rax,-0xf60(%rbp)
    7d0d:	75 47                	jne    7d56 <func_17+0x1df6>
    7d0f:	48 8b 05 f2 24 01 00 	mov    0x124f2(%rip),%rax        # 1a208 <g_1905>
    7d16:	48 8b 00             	mov    (%rax),%rax
    7d19:	48 85 c0             	test   %rax,%rax
    7d1c:	0f 95 c0             	setne  %al
    7d1f:	0f b6 c0             	movzbl %al,%eax
    7d22:	be e7 06 00 00       	mov    $0x6e7,%esi
    7d27:	89 c7                	mov    %eax,%edi
    7d29:	e8 0f c0 ff ff       	callq  3d3d <safe_mul_func_uint16_t_u_u>
    7d2e:	66 85 c0             	test   %ax,%ax
    7d31:	0f 95 c0             	setne  %al
    7d34:	0f b6 d8             	movzbl %al,%ebx
    7d37:	8b 85 f8 ef ff ff    	mov    -0x1008(%rbp),%eax
    7d3d:	be fe ff ff ff       	mov    $0xfffffffe,%esi
    7d42:	89 c7                	mov    %eax,%edi
    7d44:	e8 6d b8 ff ff       	callq  35b6 <safe_add_func_int32_t_s_s>
    7d49:	98                   	cwtl   
    7d4a:	89 de                	mov    %ebx,%esi
    7d4c:	89 c7                	mov    %eax,%edi
    7d4e:	e8 02 b7 ff ff       	callq  3455 <safe_div_func_int16_t_s_s>
    7d53:	66 85 c0             	test   %ax,%ax
    7d56:	8b 85 64 ef ff ff    	mov    -0x109c(%rbp),%eax
    7d5c:	48 98                	cltq   
    7d5e:	48 0b 85 a8 f0 ff ff 	or     -0xf58(%rbp),%rax
    7d65:	48 85 c0             	test   %rax,%rax
    7d68:	74 07                	je     7d71 <func_17+0x1e11>
    7d6a:	b8 01 00 00 00       	mov    $0x1,%eax
    7d6f:	eb 05                	jmp    7d76 <func_17+0x1e16>
    7d71:	b8 00 00 00 00       	mov    $0x0,%eax
    7d76:	89 85 64 ef ff ff    	mov    %eax,-0x109c(%rbp)
    7d7c:	48 c7 05 9d dd 00 00 	movq   $0x0,0xdd9d(%rip)        # 15b24 <g_429+0x4>
    7d83:	00 00 00 00 
    7d87:	eb 70                	jmp    7df9 <func_17+0x1e99>
    7d89:	c7 85 fc ef ff ff 78 	movl   $0x9c1cfc78,-0x1004(%rbp)
    7d90:	fc 1c 9c 
    7d93:	48 8d 05 4e 29 01 00 	lea    0x1294e(%rip),%rax        # 1a6e8 <g_357>
    7d9a:	48 89 85 b8 f0 ff ff 	mov    %rax,-0xf48(%rbp)
    7da1:	c7 85 00 f0 ff ff 17 	movl   $0xe350be17,-0x1000(%rbp)
    7da8:	be 50 e3 
    7dab:	c7 85 04 f0 ff ff 16 	movl   $0x8ca1416,-0xffc(%rbp)
    7db2:	14 ca 08 
    7db5:	c7 85 f0 f1 ff ff 00 	movl   $0x0,-0xe10(%rbp)
    7dbc:	00 00 00 
    7dbf:	c7 85 f4 f1 ff ff 00 	movl   $0x0,-0xe0c(%rbp)
    7dc6:	00 00 00 
    7dc9:	c7 85 f8 f1 ff ff 00 	movl   $0x0,-0xe08(%rbp)
    7dd0:	00 00 00 
    7dd3:	c7 85 fc f1 ff ff 00 	movl   $0x0,-0xe04(%rbp)
    7dda:	00 00 00 
    7ddd:	c7 85 00 f2 ff ff 00 	movl   $0x0,-0xe00(%rbp)
    7de4:	00 00 00 
    7de7:	48 8b 05 36 dd 00 00 	mov    0xdd36(%rip),%rax        # 15b24 <g_429+0x4>
    7dee:	48 83 c0 01          	add    $0x1,%rax
    7df2:	48 89 05 2b dd 00 00 	mov    %rax,0xdd2b(%rip)        # 15b24 <g_429+0x4>
    7df9:	48 8b 05 24 dd 00 00 	mov    0xdd24(%rip),%rax        # 15b24 <g_429+0x4>
    7e00:	48 83 f8 08          	cmp    $0x8,%rax
    7e04:	7f 83                	jg     7d89 <func_17+0x1e29>
    7e06:	8b 85 a0 ef ff ff    	mov    -0x1060(%rbp),%eax
    7e0c:	83 c0 01             	add    $0x1,%eax
    7e0f:	89 85 a0 ef ff ff    	mov    %eax,-0x1060(%rbp)
    7e15:	8b 85 a0 ef ff ff    	mov    -0x1060(%rbp),%eax
    7e1b:	83 f8 01             	cmp    $0x1,%eax
    7e1e:	0f 8e 03 fe ff ff    	jle    7c27 <func_17+0x1cc7>
    7e24:	48 8b 05 4d 22 01 00 	mov    0x1224d(%rip),%rax        # 1a078 <g_212>
    7e2b:	48 8b 00             	mov    (%rax),%rax
    7e2e:	8b 10                	mov    (%rax),%edx
    7e30:	48 8b 05 41 22 01 00 	mov    0x12241(%rip),%rax        # 1a078 <g_212>
    7e37:	48 8b 00             	mov    (%rax),%rax
    7e3a:	33 95 64 ef ff ff    	xor    -0x109c(%rbp),%edx
    7e40:	89 10                	mov    %edx,(%rax)
    7e42:	8b 85 64 ef ff ff    	mov    -0x109c(%rbp),%eax
    7e48:	48 98                	cltq   
    7e4a:	48 8b 5d d8          	mov    -0x28(%rbp),%rbx
    7e4e:	64 48 33 1c 25 28 00 	xor    %fs:0x28,%rbx
    7e55:	00 00 
    7e57:	74 05                	je     7e5e <func_17+0x1efe>
    7e59:	e8 12 b2 ff ff       	callq  3070 <__stack_chk_fail@plt>
    7e5e:	48 81 c4 80 10 00 00 	add    $0x1080,%rsp
    7e65:	5b                   	pop    %rbx
    7e66:	41 5c                	pop    %r12
    7e68:	41 5d                	pop    %r13
    7e6a:	41 5e                	pop    %r14
    7e6c:	5d                   	pop    %rbp
    7e6d:	c3                   	retq   

0000000000007e6e <func_23>:
    7e6e:	f3 0f 1e fa          	endbr64 
    7e72:	55                   	push   %rbp
    7e73:	48 89 e5             	mov    %rsp,%rbp
    7e76:	41 55                	push   %r13
    7e78:	41 54                	push   %r12
    7e7a:	53                   	push   %rbx
    7e7b:	48 81 ec 68 05 00 00 	sub    $0x568,%rsp
    7e82:	89 f9                	mov    %edi,%ecx
    7e84:	48 89 b5 80 fa ff ff 	mov    %rsi,-0x580(%rbp)
    7e8b:	89 d0                	mov    %edx,%eax
    7e8d:	89 ca                	mov    %ecx,%edx
    7e8f:	88 95 8c fa ff ff    	mov    %dl,-0x574(%rbp)
    7e95:	66 89 85 88 fa ff ff 	mov    %ax,-0x578(%rbp)
    7e9c:	64 48 8b 04 25 28 00 	mov    %fs:0x28,%rax
    7ea3:	00 00 
    7ea5:	48 89 45 d8          	mov    %rax,-0x28(%rbp)
    7ea9:	31 c0                	xor    %eax,%eax
    7eab:	66 c7 85 92 fa ff ff 	movw   $0xfffe,-0x56e(%rbp)
    7eb2:	fe ff 
    7eb4:	c7 85 a0 fa ff ff fb 	movl   $0xfffffffb,-0x560(%rbp)
    7ebb:	ff ff ff 
    7ebe:	48 8d 05 73 d1 00 00 	lea    0xd173(%rip),%rax        # 15038 <g_56>
    7ec5:	48 89 85 b8 fa ff ff 	mov    %rax,-0x548(%rbp)
    7ecc:	48 c7 85 c0 fa ff ff 	movq   $0x0,-0x540(%rbp)
    7ed3:	00 00 00 00 
    7ed7:	48 c7 85 b0 fa ff ff 	movq   $0x0,-0x550(%rbp)
    7ede:	00 00 00 00 
    7ee2:	48 8d 85 b0 fa ff ff 	lea    -0x550(%rbp),%rax
    7ee9:	48 89 85 c8 fa ff ff 	mov    %rax,-0x538(%rbp)
    7ef0:	48 c7 85 d0 fa ff ff 	movq   $0x0,-0x530(%rbp)
    7ef7:	00 00 00 00 
    7efb:	48 8d 05 76 21 01 00 	lea    0x12176(%rip),%rax        # 1a078 <g_212>
    7f02:	48 89 85 d8 fa ff ff 	mov    %rax,-0x528(%rbp)
    7f09:	c7 85 a4 fa ff ff 00 	movl   $0x0,-0x55c(%rbp)
    7f10:	00 00 00 
    7f13:	48 c7 85 e0 fa ff ff 	movq   $0x0,-0x520(%rbp)
    7f1a:	00 00 00 00 
    7f1e:	c7 85 a8 fa ff ff 01 	movl   $0x1,-0x558(%rbp)
    7f25:	00 00 00 
    7f28:	66 c7 85 94 fa ff ff 	movw   $0xffff,-0x56c(%rbp)
    7f2f:	ff ff 
    7f31:	c7 85 9c fa ff ff 00 	movl   $0x0,-0x564(%rbp)
    7f38:	00 00 00 
    7f3b:	eb 1e                	jmp    7f5b <func_23+0xed>
    7f3d:	8b 85 9c fa ff ff    	mov    -0x564(%rbp),%eax
    7f43:	48 98                	cltq   
    7f45:	48 8d 15 c4 27 01 00 	lea    0x127c4(%rip),%rdx        # 1a710 <g_1552>
    7f4c:	48 89 94 c5 20 fb ff 	mov    %rdx,-0x4e0(%rbp,%rax,8)
    7f53:	ff 
    7f54:	83 85 9c fa ff ff 01 	addl   $0x1,-0x564(%rbp)
    7f5b:	83 bd 9c fa ff ff 01 	cmpl   $0x1,-0x564(%rbp)
    7f62:	7e d9                	jle    7f3d <func_23+0xcf>
    7f64:	90                   	nop
    7f65:	66 c7 85 96 fa ff ff 	movw   $0xb0fc,-0x56a(%rbp)
    7f6c:	fc b0 
    7f6e:	48 c7 85 e8 fa ff ff 	movq   $0x0,-0x518(%rbp)
    7f75:	00 00 00 00 
    7f79:	48 c7 85 f0 fa ff ff 	movq   $0x0,-0x510(%rbp)
    7f80:	00 00 00 00 
    7f84:	48 8d 05 2b db 00 00 	lea    0xdb2b(%rip),%rax        # 15ab6 <g_259>
    7f8b:	48 89 85 f8 fa ff ff 	mov    %rax,-0x508(%rbp)
    7f92:	48 8d 05 4f 27 01 00 	lea    0x1274f(%rip),%rax        # 1a6e8 <g_357>
    7f99:	48 89 85 00 fb ff ff 	mov    %rax,-0x500(%rbp)
    7fa0:	48 8b 05 c9 20 01 00 	mov    0x120c9(%rip),%rax        # 1a070 <g_213>
    7fa7:	0f bf 95 96 fa ff ff 	movswl -0x56a(%rbp),%edx
    7fae:	89 10                	mov    %edx,(%rax)
    7fb0:	0f b6 85 8c fa ff ff 	movzbl -0x574(%rbp),%eax
    7fb7:	0f b6 c0             	movzbl %al,%eax
    7fba:	83 f0 fe             	xor    $0xfffffffe,%eax
    7fbd:	48 98                	cltq   
    7fbf:	48 ba a6 7b f7 b4 03 	movabs $0x56231903b4f77ba6,%rdx
    7fc6:	19 23 56 
    7fc9:	48 31 d0             	xor    %rdx,%rax
    7fcc:	49 89 c5             	mov    %rax,%r13
    7fcf:	44 0f bf a5 92 fa ff 	movswl -0x56e(%rbp),%r12d
    7fd6:	ff 
    7fd7:	0f b6 85 8c fa ff ff 	movzbl -0x574(%rbp),%eax
    7fde:	0f b6 d8             	movzbl %al,%ebx
    7fe1:	0f bf 95 88 fa ff ff 	movswl -0x578(%rbp),%edx
    7fe8:	48 8b 85 f8 fa ff ff 	mov    -0x508(%rbp),%rax
    7fef:	0f b7 08             	movzwl (%rax),%ecx
    7ff2:	0f b6 85 8c fa ff ff 	movzbl -0x574(%rbp),%eax
    7ff9:	0f b6 c0             	movzbl %al,%eax
    7ffc:	31 c1                	xor    %eax,%ecx
    7ffe:	48 8b 85 f8 fa ff ff 	mov    -0x508(%rbp),%rax
    8005:	66 89 08             	mov    %cx,(%rax)
    8008:	48 8b 85 f8 fa ff ff 	mov    -0x508(%rbp),%rax
    800f:	0f b7 00             	movzwl (%rax),%eax
    8012:	98                   	cwtl   
    8013:	89 d6                	mov    %edx,%esi
    8015:	89 c7                	mov    %eax,%edi
    8017:	e8 39 b4 ff ff       	callq  3455 <safe_div_func_int16_t_s_s>
    801c:	89 de                	mov    %ebx,%esi
    801e:	bf 09 00 00 00       	mov    $0x9,%edi
    8023:	e8 dd bb ff ff       	callq  3c05 <safe_lshift_func_uint8_t_u_s>
    8028:	0f b6 85 8c fa ff ff 	movzbl -0x574(%rbp),%eax
    802f:	0f b6 c0             	movzbl %al,%eax
    8032:	be 0c 00 00 00       	mov    $0xc,%esi
    8037:	89 c7                	mov    %eax,%edi
    8039:	e8 c8 bd ff ff       	callq  3e06 <safe_lshift_func_uint16_t_u_u>
    803e:	0f b7 d0             	movzwl %ax,%edx
    8041:	0f bf 85 92 fa ff ff 	movswl -0x56e(%rbp),%eax
    8048:	39 c2                	cmp    %eax,%edx
    804a:	0f 9e c0             	setle  %al
    804d:	0f b6 c0             	movzbl %al,%eax
    8050:	41 39 c4             	cmp    %eax,%r12d
    8053:	0f 9c c0             	setl   %al
    8056:	0f b6 d0             	movzbl %al,%edx
    8059:	0f b6 85 8c fa ff ff 	movzbl -0x574(%rbp),%eax
    8060:	0f b6 c0             	movzbl %al,%eax
    8063:	39 c2                	cmp    %eax,%edx
    8065:	0f 9c c0             	setl   %al
    8068:	0f b6 d0             	movzbl %al,%edx
    806b:	48 8b 85 00 fb ff ff 	mov    -0x500(%rbp),%rax
    8072:	0f b7 00             	movzwl (%rax),%eax
    8075:	31 c2                	xor    %eax,%edx
    8077:	48 8b 85 00 fb ff ff 	mov    -0x500(%rbp),%rax
    807e:	66 89 10             	mov    %dx,(%rax)
    8081:	48 83 bd e8 fa ff ff 	cmpq   $0x0,-0x518(%rbp)
    8088:	00 
    8089:	0f 94 c0             	sete   %al
    808c:	0f b6 d0             	movzbl %al,%edx
    808f:	0f bf 85 92 fa ff ff 	movswl -0x56e(%rbp),%eax
    8096:	31 d0                	xor    %edx,%eax
    8098:	89 c6                	mov    %eax,%esi
    809a:	bf 00 00 00 00       	mov    $0x0,%edi
    809f:	e8 86 b4 ff ff       	callq  352a <safe_rshift_func_int16_t_s_s>
    80a4:	0f bf d0             	movswl %ax,%edx
    80a7:	48 8b 05 e2 1f 01 00 	mov    0x11fe2(%rip),%rax        # 1a090 <g_856>
    80ae:	8b 00                	mov    (%rax),%eax
    80b0:	39 c2                	cmp    %eax,%edx
    80b2:	0f 97 c0             	seta   %al
    80b5:	0f b6 d0             	movzbl %al,%edx
    80b8:	48 8b 85 80 fa ff ff 	mov    -0x580(%rbp),%rax
    80bf:	48 8b 00             	mov    (%rax),%rax
    80c2:	48 39 c2             	cmp    %rax,%rdx
    80c5:	0f 95 c0             	setne  %al
    80c8:	0f b6 c0             	movzbl %al,%eax
    80cb:	49 39 c5             	cmp    %rax,%r13
    80ce:	0f 9d c0             	setge  %al
    80d1:	0f b6 c0             	movzbl %al,%eax
    80d4:	33 85 a0 fa ff ff    	xor    -0x560(%rbp),%eax
    80da:	48 63 d0             	movslq %eax,%rdx
    80dd:	48 0f bf 85 88 fa ff 	movswq -0x578(%rbp),%rax
    80e4:	ff 
    80e5:	48 89 d6             	mov    %rdx,%rsi
    80e8:	48 89 c7             	mov    %rax,%rdi
    80eb:	e8 51 b7 ff ff       	callq  3841 <safe_add_func_int64_t_s_s>
    80f0:	48 89 c2             	mov    %rax,%rdx
    80f3:	48 8b 05 7e 1f 01 00 	mov    0x11f7e(%rip),%rax        # 1a078 <g_212>
    80fa:	48 8b 00             	mov    (%rax),%rax
    80fd:	89 10                	mov    %edx,(%rax)
    80ff:	c7 05 eb e3 00 00 00 	movl   $0x0,0xe3eb(%rip)        # 164f4 <g_1017+0x14>
    8106:	00 00 00 
    8109:	e9 bc 00 00 00       	jmpq   81ca <func_23+0x35c>
    810e:	48 c7 85 08 fb ff ff 	movq   $0x0,-0x4f8(%rbp)
    8115:	00 00 00 00 
    8119:	c7 85 ac fa ff ff ff 	movl   $0xffffffff,-0x554(%rbp)
    8120:	ff ff ff 
    8123:	c6 85 90 fa ff ff 89 	movb   $0x89,-0x570(%rbp)
    812a:	48 c7 85 50 fb ff ff 	movq   $0x0,-0x4b0(%rbp)
    8131:	00 00 00 00 
    8135:	48 c7 85 58 fb ff ff 	movq   $0x0,-0x4a8(%rbp)
    813c:	00 00 00 00 
    8140:	48 c7 85 60 fb ff ff 	movq   $0x0,-0x4a0(%rbp)
    8147:	00 00 00 00 
    814b:	48 c7 85 68 fb ff ff 	movq   $0x0,-0x498(%rbp)
    8152:	00 00 00 00 
    8156:	48 c7 85 70 fb ff ff 	movq   $0x0,-0x490(%rbp)
    815d:	00 00 00 00 
    8161:	48 8d 85 50 fb ff ff 	lea    -0x4b0(%rbp),%rax
    8168:	48 83 c0 20          	add    $0x20,%rax
    816c:	48 89 85 10 fb ff ff 	mov    %rax,-0x4f0(%rbp)
    8173:	c6 85 91 fa ff ff fc 	movb   $0xfc,-0x56f(%rbp)
    817a:	48 8d 05 a7 25 01 00 	lea    0x125a7(%rip),%rax        # 1a728 <g_2141>
    8181:	48 89 85 18 fb ff ff 	mov    %rax,-0x4e8(%rbp)
    8188:	c7 85 98 fa ff ff 00 	movl   $0x0,-0x568(%rbp)
    818f:	00 00 00 
    8192:	eb 1e                	jmp    81b2 <func_23+0x344>
    8194:	8b 85 98 fa ff ff    	mov    -0x568(%rbp),%eax
    819a:	48 98                	cltq   
    819c:	48 8d 15 2d 20 01 00 	lea    0x1202d(%rip),%rdx        # 1a1d0 <g_1623+0x30>
    81a3:	48 89 94 c5 30 fb ff 	mov    %rdx,-0x4d0(%rbp,%rax,8)
    81aa:	ff 
    81ab:	83 85 98 fa ff ff 01 	addl   $0x1,-0x568(%rbp)
    81b2:	83 bd 98 fa ff ff 02 	cmpl   $0x2,-0x568(%rbp)
    81b9:	7e d9                	jle    8194 <func_23+0x326>
    81bb:	8b 05 33 e3 00 00    	mov    0xe333(%rip),%eax        # 164f4 <g_1017+0x14>
    81c1:	83 c0 01             	add    $0x1,%eax
    81c4:	89 05 2a e3 00 00    	mov    %eax,0xe32a(%rip)        # 164f4 <g_1017+0x14>
    81ca:	8b 05 24 e3 00 00    	mov    0xe324(%rip),%eax        # 164f4 <g_1017+0x14>
    81d0:	83 f8 03             	cmp    $0x3,%eax
    81d3:	0f 8f 35 ff ff ff    	jg     810e <func_23+0x2a0>
    81d9:	90                   	nop
    81da:	f3 0f 1e fa          	endbr64 
    81de:	66 83 bd 92 fa ff ff 	cmpw   $0x0,-0x56e(%rbp)
    81e5:	00 
    81e6:	74 05                	je     81ed <func_23+0x37f>
    81e8:	e9 78 fd ff ff       	jmpq   7f65 <func_23+0xf7>
    81ed:	0f b7 85 94 fa ff ff 	movzwl -0x56c(%rbp),%eax
    81f4:	83 c0 01             	add    $0x1,%eax
    81f7:	66 89 85 94 fa ff ff 	mov    %ax,-0x56c(%rbp)
    81fe:	48 8b 05 eb 1f 01 00 	mov    0x11feb(%rip),%rax        # 1a1f0 <g_1677>
    8205:	48 8b 00             	mov    (%rax),%rax
    8208:	48 8b 5d d8          	mov    -0x28(%rbp),%rbx
    820c:	64 48 33 1c 25 28 00 	xor    %fs:0x28,%rbx
    8213:	00 00 
    8215:	74 05                	je     821c <func_23+0x3ae>
    8217:	e8 54 ae ff ff       	callq  3070 <__stack_chk_fail@plt>
    821c:	48 81 c4 68 05 00 00 	add    $0x568,%rsp
    8223:	5b                   	pop    %rbx
    8224:	41 5c                	pop    %r12
    8226:	41 5d                	pop    %r13
    8228:	5d                   	pop    %rbp
    8229:	c3                   	retq   

000000000000822a <func_27>:
    822a:	f3 0f 1e fa          	endbr64 
    822e:	55                   	push   %rbp
    822f:	48 89 e5             	mov    %rsp,%rbp
    8232:	41 56                	push   %r14
    8234:	41 55                	push   %r13
    8236:	41 54                	push   %r12
    8238:	53                   	push   %rbx
    8239:	48 81 ec 60 0a 00 00 	sub    $0xa60,%rsp
    8240:	89 bd 8c f5 ff ff    	mov    %edi,-0xa74(%rbp)
    8246:	89 b5 88 f5 ff ff    	mov    %esi,-0xa78(%rbp)
    824c:	48 89 95 80 f5 ff ff 	mov    %rdx,-0xa80(%rbp)
    8253:	64 48 8b 04 25 28 00 	mov    %fs:0x28,%rax
    825a:	00 00 
    825c:	48 89 45 d8          	mov    %rax,-0x28(%rbp)
    8260:	31 c0                	xor    %eax,%eax
    8262:	48 8d 05 c7 cd 00 00 	lea    0xcdc7(%rip),%rax        # 15030 <g_34>
    8269:	48 89 85 b8 f5 ff ff 	mov    %rax,-0xa48(%rbp)
    8270:	c7 85 9c f5 ff ff 7b 	movl   $0xbb9a67b,-0xa64(%rbp)
    8277:	a6 b9 0b 
    827a:	48 8d 05 2b 24 01 00 	lea    0x1242b(%rip),%rax        # 1a6ac <g_116>
    8281:	48 89 85 e8 f5 ff ff 	mov    %rax,-0xa18(%rbp)
    8288:	48 8d 05 27 d8 00 00 	lea    0xd827(%rip),%rax        # 15ab6 <g_259>
    828f:	48 89 85 f0 f5 ff ff 	mov    %rax,-0xa10(%rbp)
    8296:	c7 85 a4 f5 ff ff 84 	movl   $0x3d019884,-0xa5c(%rbp)
    829d:	98 01 3d 
    82a0:	c7 85 a8 f5 ff ff f8 	movl   $0xfffffff8,-0xa58(%rbp)
    82a7:	ff ff ff 
    82aa:	48 c7 85 c0 f5 ff ff 	movq   $0x0,-0xa40(%rbp)
    82b1:	00 00 00 00 
    82b5:	48 8d 85 c0 f5 ff ff 	lea    -0xa40(%rbp),%rax
    82bc:	48 89 85 f8 f5 ff ff 	mov    %rax,-0xa08(%rbp)
    82c3:	48 8d 85 30 f7 ff ff 	lea    -0x8d0(%rbp),%rax
    82ca:	48 8d 15 ef 15 01 00 	lea    0x115ef(%rip),%rdx        # 198c0 <g_2557+0x4f8>
    82d1:	b9 23 00 00 00       	mov    $0x23,%ecx
    82d6:	48 89 c7             	mov    %rax,%rdi
    82d9:	48 89 d6             	mov    %rdx,%rsi
    82dc:	f3 48 a5             	rep movsq %ds:(%rsi),%es:(%rdi)
    82df:	48 8d 05 4a e3 00 00 	lea    0xe34a(%rip),%rax        # 16630 <g_1770+0x10>
    82e6:	48 89 85 00 f6 ff ff 	mov    %rax,-0xa00(%rbp)
    82ed:	c7 85 a0 f5 ff ff 00 	movl   $0x0,-0xa60(%rbp)
    82f4:	00 00 00 
    82f7:	eb 1e                	jmp    8317 <func_27+0xed>
    82f9:	8b 85 a0 f5 ff ff    	mov    -0xa60(%rbp),%eax
    82ff:	48 98                	cltq   
    8301:	48 8d 15 20 cd 00 00 	lea    0xcd20(%rip),%rdx        # 15028 <g_11>
    8308:	48 89 94 c5 88 f6 ff 	mov    %rdx,-0x978(%rbp,%rax,8)
    830f:	ff 
    8310:	83 85 a0 f5 ff ff 01 	addl   $0x1,-0xa60(%rbp)
    8317:	83 bd a0 f5 ff ff 00 	cmpl   $0x0,-0xa60(%rbp)
    831e:	7e d9                	jle    82f9 <func_27+0xcf>
    8320:	4c 8b b5 b8 f5 ff ff 	mov    -0xa48(%rbp),%r14
    8327:	8b 85 88 f5 ff ff    	mov    -0xa78(%rbp),%eax
    832d:	48 63 d8             	movslq %eax,%rbx
    8330:	8b 85 88 f5 ff ff    	mov    -0xa78(%rbp),%eax
    8336:	44 0f bf e8          	movswl %ax,%r13d
    833a:	8b 05 11 d3 00 00    	mov    0xd311(%rip),%eax        # 15651 <g_246+0x2d1>
    8340:	4c 63 e0             	movslq %eax,%r12
    8343:	48 8b 85 88 f6 ff ff 	mov    -0x978(%rbp),%rax
    834a:	48 85 c0             	test   %rax,%rax
    834d:	8b 85 9c f5 ff ff    	mov    -0xa64(%rbp),%eax
    8353:	48 63 d0             	movslq %eax,%rdx
    8356:	48 8b 35 03 1d 01 00 	mov    0x11d03(%rip),%rsi        # 1a060 <g_55>
    835d:	48 8b 85 88 f6 ff ff 	mov    -0x978(%rbp),%rax
    8364:	48 8d 0d ce cc 00 00 	lea    0xccce(%rip),%rcx        # 15039 <g_56+0x1>
    836b:	48 89 c7             	mov    %rax,%rdi
    836e:	e8 4f 15 00 00       	callq  98c2 <func_50>
    8373:	48 8b 85 80 f5 ff ff 	mov    -0xa80(%rbp),%rax
    837a:	0f b7 f0             	movzwl %ax,%esi
    837d:	48 8b 85 88 f6 ff ff 	mov    -0x978(%rbp),%rax
    8384:	44 89 e9             	mov    %r13d,%ecx
    8387:	4c 89 e2             	mov    %r12,%rdx
    838a:	48 89 c7             	mov    %rax,%rdi
    838d:	e8 c6 14 00 00       	callq  9858 <func_44>
    8392:	8b 85 88 f5 ff ff    	mov    -0xa78(%rbp),%eax
    8398:	48 8b 8d e8 f5 ff ff 	mov    -0xa18(%rbp),%rcx
    839f:	8b 95 9c f5 ff ff    	mov    -0xa64(%rbp),%edx
    83a5:	4d 89 f0             	mov    %r14,%r8
    83a8:	48 89 de             	mov    %rbx,%rsi
    83ab:	89 c7                	mov    %eax,%edi
    83ad:	e8 91 10 00 00       	callq  9443 <func_37>
    83b2:	48 8b 95 f0 f5 ff ff 	mov    -0xa10(%rbp),%rdx
    83b9:	66 89 02             	mov    %ax,(%rdx)
    83bc:	48 8b 85 f0 f5 ff ff 	mov    -0xa10(%rbp),%rax
    83c3:	0f b7 00             	movzwl (%rax),%eax
    83c6:	0f bf d0             	movswl %ax,%edx
    83c9:	48 8b 85 b8 f5 ff ff 	mov    -0xa48(%rbp),%rax
    83d0:	0f b6 08             	movzbl (%rax),%ecx
    83d3:	8d 71 ff             	lea    -0x1(%rcx),%esi
    83d6:	40 88 30             	mov    %sil,(%rax)
    83d9:	89 c8                	mov    %ecx,%eax
    83db:	83 f0 08             	xor    $0x8,%eax
    83de:	0f b6 c0             	movzbl %al,%eax
    83e1:	89 d6                	mov    %edx,%esi
    83e3:	89 c7                	mov    %eax,%edi
    83e5:	e8 d4 b9 ff ff       	callq  3dbe <safe_lshift_func_uint16_t_u_s>
    83ea:	0f b7 c0             	movzwl %ax,%eax
    83ed:	48 39 85 80 f5 ff ff 	cmp    %rax,-0xa80(%rbp)
    83f4:	0f 93 c2             	setae  %dl
    83f7:	48 8b 05 72 1c 01 00 	mov    0x11c72(%rip),%rax        # 1a070 <g_213>
    83fe:	0f b6 d2             	movzbl %dl,%edx
    8401:	89 10                	mov    %edx,(%rax)
    8403:	8b 00                	mov    (%rax),%eax
    8405:	09 85 a4 f5 ff ff    	or     %eax,-0xa5c(%rbp)
    840b:	48 8b 05 66 1c 01 00 	mov    0x11c66(%rip),%rax        # 1a078 <g_212>
    8412:	48 8b 00             	mov    (%rax),%rax
    8415:	8b 00                	mov    (%rax),%eax
    8417:	89 c2                	mov    %eax,%edx
    8419:	48 8b 85 80 f5 ff ff 	mov    -0xa80(%rbp),%rax
    8420:	21 c2                	and    %eax,%edx
    8422:	48 8b 05 4f 1c 01 00 	mov    0x11c4f(%rip),%rax        # 1a078 <g_212>
    8429:	48 8b 00             	mov    (%rax),%rax
    842c:	89 10                	mov    %edx,(%rax)
    842e:	48 c7 05 07 e2 00 00 	movq   $0x1,0xe207(%rip)        # 16640 <g_2030>
    8435:	01 00 00 00 
    8439:	90                   	nop
    843a:	48 8b 05 ff e1 00 00 	mov    0xe1ff(%rip),%rax        # 16640 <g_2030>
    8441:	48 83 f8 05          	cmp    $0x5,%rax
    8445:	0f 87 c4 0f 00 00    	ja     940f <func_27+0x11e5>
    844b:	c7 85 90 f6 ff ff 3a 	movl   $0x6fbea03a,-0x970(%rbp)
    8452:	a0 be 6f 
    8455:	c7 85 94 f6 ff ff 3a 	movl   $0x6fbea03a,-0x96c(%rbp)
    845c:	a0 be 6f 
    845f:	c7 85 98 f6 ff ff 3a 	movl   $0x6fbea03a,-0x968(%rbp)
    8466:	a0 be 6f 
    8469:	c7 85 9c f6 ff ff 3a 	movl   $0x6fbea03a,-0x964(%rbp)
    8470:	a0 be 6f 
    8473:	48 8d 05 96 e1 00 00 	lea    0xe196(%rip),%rax        # 16610 <g_1310>
    847a:	48 89 85 08 f6 ff ff 	mov    %rax,-0x9f8(%rbp)
    8481:	48 8d 05 e8 d6 00 00 	lea    0xd6e8(%rip),%rax        # 15b70 <g_830+0x10>
    8488:	48 89 85 10 f6 ff ff 	mov    %rax,-0x9f0(%rbp)
    848f:	48 8d 05 23 d6 00 00 	lea    0xd623(%rip),%rax        # 15ab9 <g_296>
    8496:	48 89 85 18 f6 ff ff 	mov    %rax,-0x9e8(%rbp)
    849d:	48 c7 85 20 f6 ff ff 	movq   $0x0,-0x9e0(%rbp)
    84a4:	00 00 00 00 
    84a8:	48 c7 85 28 f6 ff ff 	movq   $0x0,-0x9d8(%rbp)
    84af:	00 00 00 00 
    84b3:	48 c7 85 30 f6 ff ff 	movq   $0x0,-0x9d0(%rbp)
    84ba:	00 00 00 00 
    84be:	48 8d 05 9d ce 00 00 	lea    0xce9d(%rip),%rax        # 15362 <g_210+0x2>
    84c5:	48 89 85 38 f6 ff ff 	mov    %rax,-0x9c8(%rbp)
    84cc:	48 8d 05 bd cc 00 00 	lea    0xccbd(%rip),%rax        # 15190 <g_127>
    84d3:	48 89 85 40 f6 ff ff 	mov    %rax,-0x9c0(%rbp)
    84da:	48 8d 05 cf 21 01 00 	lea    0x121cf(%rip),%rax        # 1a6b0 <g_122>
    84e1:	48 89 85 c8 f5 ff ff 	mov    %rax,-0xa38(%rbp)
    84e8:	48 8d 85 c8 f5 ff ff 	lea    -0xa38(%rbp),%rax
    84ef:	48 89 85 48 f6 ff ff 	mov    %rax,-0x9b8(%rbp)
    84f6:	48 8d 05 b3 21 01 00 	lea    0x121b3(%rip),%rax        # 1a6b0 <g_122>
    84fd:	48 89 85 50 f6 ff ff 	mov    %rax,-0x9b0(%rbp)
    8504:	c7 85 ac f5 ff ff fa 	movl   $0xfffffffa,-0xa54(%rbp)
    850b:	ff ff ff 
    850e:	48 8d 05 3b 1d 01 00 	lea    0x11d3b(%rip),%rax        # 1a250 <g_2043>
    8515:	48 89 85 58 f6 ff ff 	mov    %rax,-0x9a8(%rbp)
    851c:	c7 85 b0 f5 ff ff 01 	movl   $0x1,-0xa50(%rbp)
    8523:	00 00 00 
    8526:	8b 9d a4 f5 ff ff    	mov    -0xa5c(%rbp),%ebx
    852c:	48 8b 85 80 f5 ff ff 	mov    -0xa80(%rbp),%rax
    8533:	41 89 c4             	mov    %eax,%r12d
    8536:	8b 85 94 f6 ff ff    	mov    -0x96c(%rbp),%eax
    853c:	85 c0                	test   %eax,%eax
    853e:	75 59                	jne    8599 <func_27+0x36f>
    8540:	48 8b 05 09 1d 01 00 	mov    0x11d09(%rip),%rax        # 1a250 <g_2043>
    8547:	48 8b 00             	mov    (%rax),%rax
    854a:	8b 08                	mov    (%rax),%ecx
    854c:	83 bd 88 f5 ff ff 00 	cmpl   $0x0,-0xa78(%rbp)
    8553:	0f 95 c0             	setne  %al
    8556:	0f b6 d0             	movzbl %al,%edx
    8559:	8b 05 a7 d6 00 00    	mov    0xd6a7(%rip),%eax        # 15c06 <g_900+0x66>
    855f:	39 c2                	cmp    %eax,%edx
    8561:	0f 95 c0             	setne  %al
    8564:	0f b6 d0             	movzbl %al,%edx
    8567:	48 8b 05 e2 1c 01 00 	mov    0x11ce2(%rip),%rax        # 1a250 <g_2043>
    856e:	48 8b 00             	mov    (%rax),%rax
    8571:	09 ca                	or     %ecx,%edx
    8573:	89 10                	mov    %edx,(%rax)
    8575:	8b 95 9c f6 ff ff    	mov    -0x964(%rbp),%edx
    857b:	8b 85 9c f5 ff ff    	mov    -0xa64(%rbp),%eax
    8581:	09 d0                	or     %edx,%eax
    8583:	89 85 9c f5 ff ff    	mov    %eax,-0xa64(%rbp)
    8589:	8b 95 9c f5 ff ff    	mov    -0xa64(%rbp),%edx
    858f:	8b 85 94 f6 ff ff    	mov    -0x96c(%rbp),%eax
    8595:	39 c2                	cmp    %eax,%edx
    8597:	76 07                	jbe    85a0 <func_27+0x376>
    8599:	b8 01 00 00 00       	mov    $0x1,%eax
    859e:	eb 05                	jmp    85a5 <func_27+0x37b>
    85a0:	b8 00 00 00 00       	mov    $0x0,%eax
    85a5:	0f b7 d0             	movzwl %ax,%edx
    85a8:	48 8b 85 08 f6 ff ff 	mov    -0x9f8(%rbp),%rax
    85af:	0f b7 00             	movzwl (%rax),%eax
    85b2:	8b 8d 98 f6 ff ff    	mov    -0x968(%rbp),%ecx
    85b8:	09 c1                	or     %eax,%ecx
    85ba:	48 8b 85 08 f6 ff ff 	mov    -0x9f8(%rbp),%rax
    85c1:	66 89 08             	mov    %cx,(%rax)
    85c4:	48 8b 85 08 f6 ff ff 	mov    -0x9f8(%rbp),%rax
    85cb:	0f b7 38             	movzwl (%rax),%edi
    85ce:	48 8b 85 10 f6 ff ff 	mov    -0x9f0(%rbp),%rax
    85d5:	0f b7 00             	movzwl (%rax),%eax
    85d8:	8d 70 01             	lea    0x1(%rax),%esi
    85db:	48 8b 8d 10 f6 ff ff 	mov    -0x9f0(%rbp),%rcx
    85e2:	66 89 31             	mov    %si,(%rcx)
    85e5:	66 39 c7             	cmp    %ax,%di
    85e8:	0f 97 c0             	seta   %al
    85eb:	0f b6 c8             	movzbl %al,%ecx
    85ee:	8b 85 a8 f5 ff ff    	mov    -0xa58(%rbp),%eax
    85f4:	f7 d0                	not    %eax
    85f6:	c1 e8 1f             	shr    $0x1f,%eax
    85f9:	0f b6 f0             	movzbl %al,%esi
    85fc:	48 8b 05 f5 20 01 00 	mov    0x120f5(%rip),%rax        # 1a6f8 <g_777>
    8603:	48 85 c0             	test   %rax,%rax
    8606:	0f 95 c0             	setne  %al
    8609:	0f b6 c0             	movzbl %al,%eax
    860c:	33 85 88 f5 ff ff    	xor    -0xa78(%rbp),%eax
    8612:	39 c6                	cmp    %eax,%esi
    8614:	0f 94 c0             	sete   %al
    8617:	0f b6 c0             	movzbl %al,%eax
    861a:	39 c1                	cmp    %eax,%ecx
    861c:	0f 9d c0             	setge  %al
    861f:	0f b6 c0             	movzbl %al,%eax
    8622:	89 d6                	mov    %edx,%esi
    8624:	89 c7                	mov    %eax,%edi
    8626:	e8 31 b7 ff ff       	callq  3d5c <safe_mod_func_uint16_t_u_u>
    862b:	89 c2                	mov    %eax,%edx
    862d:	48 8b 85 f0 f5 ff ff 	mov    -0xa10(%rbp),%rax
    8634:	66 89 10             	mov    %dx,(%rax)
    8637:	48 8b 85 f0 f5 ff ff 	mov    -0xa10(%rbp),%rax
    863e:	0f b7 00             	movzwl (%rax),%eax
    8641:	98                   	cwtl   
    8642:	39 85 8c f5 ff ff    	cmp    %eax,-0xa74(%rbp)
    8648:	0f 96 c0             	setbe  %al
    864b:	89 c2                	mov    %eax,%edx
    864d:	48 8b 85 18 f6 ff ff 	mov    -0x9e8(%rbp),%rax
    8654:	88 10                	mov    %dl,(%rax)
    8656:	48 8b 85 18 f6 ff ff 	mov    -0x9e8(%rbp),%rax
    865d:	0f b6 00             	movzbl (%rax),%eax
    8660:	0f be c0             	movsbl %al,%eax
    8663:	be 08 00 00 00       	mov    $0x8,%esi
    8668:	89 c7                	mov    %eax,%edi
    866a:	e8 a3 ab ff ff       	callq  3212 <safe_mul_func_int8_t_s_s>
    866f:	8b 85 94 f6 ff ff    	mov    -0x96c(%rbp),%eax
    8675:	0f b7 c0             	movzwl %ax,%eax
    8678:	be ef c8 00 00       	mov    $0xc8ef,%esi
    867d:	89 c7                	mov    %eax,%edi
    867f:	e8 0a b7 ff ff       	callq  3d8e <safe_div_func_uint16_t_u_u>
    8684:	0f b7 c0             	movzwl %ax,%eax
    8687:	44 89 e6             	mov    %r12d,%esi
    868a:	89 c7                	mov    %eax,%edi
    868c:	e8 3b b0 ff ff       	callq  36cc <safe_mod_func_int32_t_s_s>
    8691:	89 c2                	mov    %eax,%edx
    8693:	48 8b 85 38 f6 ff ff 	mov    -0x9c8(%rbp),%rax
    869a:	88 10                	mov    %dl,(%rax)
    869c:	48 8b 85 38 f6 ff ff 	mov    -0x9c8(%rbp),%rax
    86a3:	0f b6 00             	movzbl (%rax),%eax
    86a6:	44 0f b6 e0          	movzbl %al,%r12d
    86aa:	8b 85 94 f6 ff ff    	mov    -0x96c(%rbp),%eax
    86b0:	0f be c0             	movsbl %al,%eax
    86b3:	be 03 00 00 00       	mov    $0x3,%esi
    86b8:	89 c7                	mov    %eax,%edi
    86ba:	e8 2f ac ff ff       	callq  32ee <safe_lshift_func_int8_t_s_u>
    86bf:	0f b6 c0             	movzbl %al,%eax
    86c2:	44 89 e6             	mov    %r12d,%esi
    86c5:	89 c7                	mov    %eax,%edi
    86c7:	e8 0f b5 ff ff       	callq  3bdb <safe_div_func_uint8_t_u_u>
    86cc:	48 8b 95 40 f6 ff ff 	mov    -0x9c0(%rbp),%rdx
    86d3:	48 8b 12             	mov    (%rdx),%rdx
    86d6:	0f b6 c0             	movzbl %al,%eax
    86d9:	48 09 c2             	or     %rax,%rdx
    86dc:	48 8b 85 40 f6 ff ff 	mov    -0x9c0(%rbp),%rax
    86e3:	48 89 10             	mov    %rdx,(%rax)
    86e6:	48 8b 85 40 f6 ff ff 	mov    -0x9c0(%rbp),%rax
    86ed:	48 8b 00             	mov    (%rax),%rax
    86f0:	48 85 c0             	test   %rax,%rax
    86f3:	75 07                	jne    86fc <func_27+0x4d2>
    86f5:	83 bd 8c f5 ff ff 00 	cmpl   $0x0,-0xa74(%rbp)
    86fc:	48 8b 85 48 f6 ff ff 	mov    -0x9b8(%rbp),%rax
    8703:	48 8d 15 a6 1f 01 00 	lea    0x11fa6(%rip),%rdx        # 1a6b0 <g_122>
    870a:	48 89 10             	mov    %rdx,(%rax)
    870d:	b8 00 00 00 00       	mov    $0x0,%eax
    8712:	21 85 ac f5 ff ff    	and    %eax,-0xa54(%rbp)
    8718:	b8 01 00 00 00       	mov    $0x1,%eax
    871d:	0f b7 c0             	movzwl %ax,%eax
    8720:	8b 95 88 f5 ff ff    	mov    -0xa78(%rbp),%edx
    8726:	89 d6                	mov    %edx,%esi
    8728:	89 c7                	mov    %eax,%edi
    872a:	e8 19 b7 ff ff       	callq  3e48 <safe_rshift_func_uint16_t_u_s>
    872f:	0f b7 c0             	movzwl %ax,%eax
    8732:	89 de                	mov    %ebx,%esi
    8734:	89 c7                	mov    %eax,%edi
    8736:	e8 c2 b7 ff ff       	callq  3efd <safe_mod_func_uint32_t_u_u>
    873b:	48 8b 85 58 f6 ff ff 	mov    -0x9a8(%rbp),%rax
    8742:	48 c7 00 00 00 00 00 	movq   $0x0,(%rax)
    8749:	0f b7 05 ec d3 00 00 	movzwl 0xd3ec(%rip),%eax        # 15b3c <g_429+0x1c>
    8750:	66 83 f8 03          	cmp    $0x3,%ax
    8754:	0f 9e c0             	setle  %al
    8757:	0f b6 c0             	movzbl %al,%eax
    875a:	be 06 00 00 00       	mov    $0x6,%esi
    875f:	89 c7                	mov    %eax,%edi
    8761:	e8 58 b6 ff ff       	callq  3dbe <safe_lshift_func_uint16_t_u_s>
    8766:	0f b7 c0             	movzwl %ax,%eax
    8769:	21 85 b0 f5 ff ff    	and    %eax,-0xa50(%rbp)
    876f:	83 bd a4 f5 ff ff 00 	cmpl   $0x0,-0xa5c(%rbp)
    8776:	0f 84 19 01 00 00    	je     8895 <func_27+0x66b>
    877c:	c7 85 e0 fb ff ff ff 	movl   $0xffffffff,-0x420(%rbp)
    8783:	ff ff ff 
    8786:	c7 85 e4 fb ff ff ff 	movl   $0xffffffff,-0x41c(%rbp)
    878d:	ff ff ff 
    8790:	c7 85 e8 fb ff ff fc 	movl   $0xfffffffc,-0x418(%rbp)
    8797:	ff ff ff 
    879a:	c7 85 ec fb ff ff ff 	movl   $0xffffffff,-0x414(%rbp)
    87a1:	ff ff ff 
    87a4:	c7 85 f0 fb ff ff ff 	movl   $0xffffffff,-0x410(%rbp)
    87ab:	ff ff ff 
    87ae:	c7 85 f4 fb ff ff fc 	movl   $0xfffffffc,-0x40c(%rbp)
    87b5:	ff ff ff 
    87b8:	c7 85 f8 fb ff ff ff 	movl   $0xffffffff,-0x408(%rbp)
    87bf:	ff ff ff 
    87c2:	c7 85 fc fb ff ff ff 	movl   $0xffffffff,-0x404(%rbp)
    87c9:	ff ff ff 
    87cc:	c7 85 00 fc ff ff fc 	movl   $0xfffffffc,-0x400(%rbp)
    87d3:	ff ff ff 
    87d6:	c7 85 04 fc ff ff ff 	movl   $0xffffffff,-0x3fc(%rbp)
    87dd:	ff ff ff 
    87e0:	c7 85 08 fc ff ff ff 	movl   $0xffffffff,-0x3f8(%rbp)
    87e7:	ff ff ff 
    87ea:	c7 85 0c fc ff ff fc 	movl   $0xfffffffc,-0x3f4(%rbp)
    87f1:	ff ff ff 
    87f4:	c7 85 10 fc ff ff ff 	movl   $0xffffffff,-0x3f0(%rbp)
    87fb:	ff ff ff 
    87fe:	c7 85 14 fc ff ff ff 	movl   $0xffffffff,-0x3ec(%rbp)
    8805:	ff ff ff 
    8808:	c7 85 18 fc ff ff fc 	movl   $0xfffffffc,-0x3e8(%rbp)
    880f:	ff ff ff 
    8812:	c7 85 1c fc ff ff ff 	movl   $0xffffffff,-0x3e4(%rbp)
    8819:	ff ff ff 
    881c:	c7 85 20 fc ff ff ff 	movl   $0xffffffff,-0x3e0(%rbp)
    8823:	ff ff ff 
    8826:	c7 85 24 fc ff ff fc 	movl   $0xfffffffc,-0x3dc(%rbp)
    882d:	ff ff ff 
    8830:	c7 85 28 fc ff ff ff 	movl   $0xffffffff,-0x3d8(%rbp)
    8837:	ff ff ff 
    883a:	c7 85 2c fc ff ff ff 	movl   $0xffffffff,-0x3d4(%rbp)
    8841:	ff ff ff 
    8844:	c7 85 30 fc ff ff fc 	movl   $0xfffffffc,-0x3d0(%rbp)
    884b:	ff ff ff 
    884e:	c7 85 34 fc ff ff ff 	movl   $0xffffffff,-0x3cc(%rbp)
    8855:	ff ff ff 
    8858:	c7 85 38 fc ff ff ff 	movl   $0xffffffff,-0x3c8(%rbp)
    885f:	ff ff ff 
    8862:	c7 85 3c fc ff ff fc 	movl   $0xfffffffc,-0x3c4(%rbp)
    8869:	ff ff ff 
    886c:	c7 85 40 fc ff ff ff 	movl   $0xffffffff,-0x3c0(%rbp)
    8873:	ff ff ff 
    8876:	c7 85 44 fc ff ff ff 	movl   $0xffffffff,-0x3bc(%rbp)
    887d:	ff ff ff 
    8880:	c7 85 48 fc ff ff fc 	movl   $0xfffffffc,-0x3b8(%rbp)
    8887:	ff ff ff 
    888a:	8b 85 f4 fb ff ff    	mov    -0x40c(%rbp),%eax
    8890:	e9 8a 0b 00 00       	jmpq   941f <func_27+0x11f5>
    8895:	c7 85 98 f5 ff ff ff 	movl   $0xffffffff,-0xa68(%rbp)
    889c:	ff ff ff 
    889f:	48 8d 05 66 dd 00 00 	lea    0xdd66(%rip),%rax        # 1660c <g_1181>
    88a6:	48 89 85 a0 f6 ff ff 	mov    %rax,-0x960(%rbp)
    88ad:	48 8d 05 58 dd 00 00 	lea    0xdd58(%rip),%rax        # 1660c <g_1181>
    88b4:	48 89 85 a8 f6 ff ff 	mov    %rax,-0x958(%rbp)
    88bb:	48 8d 05 6e dd 00 00 	lea    0xdd6e(%rip),%rax        # 16630 <g_1770+0x10>
    88c2:	48 89 85 b0 f6 ff ff 	mov    %rax,-0x950(%rbp)
    88c9:	48 8d 05 3c dd 00 00 	lea    0xdd3c(%rip),%rax        # 1660c <g_1181>
    88d0:	48 89 85 b8 f6 ff ff 	mov    %rax,-0x948(%rbp)
    88d7:	48 8d 05 2e dd 00 00 	lea    0xdd2e(%rip),%rax        # 1660c <g_1181>
    88de:	48 89 85 c0 f6 ff ff 	mov    %rax,-0x940(%rbp)
    88e5:	48 8d 05 44 dd 00 00 	lea    0xdd44(%rip),%rax        # 16630 <g_1770+0x10>
    88ec:	48 89 85 c8 f6 ff ff 	mov    %rax,-0x938(%rbp)
    88f3:	48 8d 05 12 dd 00 00 	lea    0xdd12(%rip),%rax        # 1660c <g_1181>
    88fa:	48 89 85 d0 f6 ff ff 	mov    %rax,-0x930(%rbp)
    8901:	48 8d 05 04 dd 00 00 	lea    0xdd04(%rip),%rax        # 1660c <g_1181>
    8908:	48 89 85 d8 f6 ff ff 	mov    %rax,-0x928(%rbp)
    890f:	48 8d 05 f6 dc 00 00 	lea    0xdcf6(%rip),%rax        # 1660c <g_1181>
    8916:	48 89 85 e0 f6 ff ff 	mov    %rax,-0x920(%rbp)
    891d:	48 8d 05 0c dd 00 00 	lea    0xdd0c(%rip),%rax        # 16630 <g_1770+0x10>
    8924:	48 89 85 e8 f6 ff ff 	mov    %rax,-0x918(%rbp)
    892b:	48 8d 05 fe dc 00 00 	lea    0xdcfe(%rip),%rax        # 16630 <g_1770+0x10>
    8932:	48 89 85 f0 f6 ff ff 	mov    %rax,-0x910(%rbp)
    8939:	48 8d 05 e8 dc 00 00 	lea    0xdce8(%rip),%rax        # 16628 <g_1770+0x8>
    8940:	48 89 85 f8 f6 ff ff 	mov    %rax,-0x908(%rbp)
    8947:	48 8d 05 e2 dc 00 00 	lea    0xdce2(%rip),%rax        # 16630 <g_1770+0x10>
    894e:	48 89 85 00 f7 ff ff 	mov    %rax,-0x900(%rbp)
    8955:	48 8d 05 d4 dc 00 00 	lea    0xdcd4(%rip),%rax        # 16630 <g_1770+0x10>
    895c:	48 89 85 08 f7 ff ff 	mov    %rax,-0x8f8(%rbp)
    8963:	48 8d 05 be dc 00 00 	lea    0xdcbe(%rip),%rax        # 16628 <g_1770+0x8>
    896a:	48 89 85 10 f7 ff ff 	mov    %rax,-0x8f0(%rbp)
    8971:	48 8d 05 b8 dc 00 00 	lea    0xdcb8(%rip),%rax        # 16630 <g_1770+0x10>
    8978:	48 89 85 18 f7 ff ff 	mov    %rax,-0x8e8(%rbp)
    897f:	48 8d 05 aa dc 00 00 	lea    0xdcaa(%rip),%rax        # 16630 <g_1770+0x10>
    8986:	48 89 85 20 f7 ff ff 	mov    %rax,-0x8e0(%rbp)
    898d:	48 8d 05 94 dc 00 00 	lea    0xdc94(%rip),%rax        # 16628 <g_1770+0x8>
    8994:	48 89 85 28 f7 ff ff 	mov    %rax,-0x8d8(%rbp)
    899b:	48 8d 85 98 f5 ff ff 	lea    -0xa68(%rbp),%rax
    89a2:	48 89 85 60 f6 ff ff 	mov    %rax,-0x9a0(%rbp)
    89a9:	48 c7 05 e4 c7 00 00 	movq   $0x1,0xc7e4(%rip)        # 15198 <g_135>
    89b0:	01 00 00 00 
    89b4:	e9 ee 09 00 00       	jmpq   93a7 <func_27+0x117d>
    89b9:	48 8d 85 50 f8 ff ff 	lea    -0x7b0(%rbp),%rax
    89c0:	48 8d 15 f9 8c 00 00 	lea    0x8cf9(%rip),%rdx        # 116c0 <g_2577+0x658>
    89c7:	b9 31 00 00 00       	mov    $0x31,%ecx
    89cc:	48 89 c7             	mov    %rax,%rdi
    89cf:	48 89 d6             	mov    %rdx,%rsi
    89d2:	f3 48 a5             	rep movsq %ds:(%rsi),%es:(%rdi)
    89d5:	48 8d 85 b8 f5 ff ff 	lea    -0xa48(%rbp),%rax
    89dc:	48 89 85 68 f6 ff ff 	mov    %rax,-0x998(%rbp)
    89e3:	c7 05 5f d1 00 00 00 	movl   $0x0,0xd15f(%rip)        # 15b4c <g_524>
    89ea:	00 00 00 
    89ed:	e9 78 09 00 00       	jmpq   936a <func_27+0x1140>
    89f2:	48 8d 05 67 16 01 00 	lea    0x11667(%rip),%rax        # 1a060 <g_55>
    89f9:	48 89 85 d0 f5 ff ff 	mov    %rax,-0xa30(%rbp)
    8a00:	48 c7 85 70 f6 ff ff 	movq   $0x0,-0x990(%rbp)
    8a07:	00 00 00 00 
    8a0b:	48 8d 85 e0 f9 ff ff 	lea    -0x620(%rbp),%rax
    8a12:	48 8d 15 c7 0f 01 00 	lea    0x10fc7(%rip),%rdx        # 199e0 <g_2557+0x618>
    8a19:	b9 40 00 00 00       	mov    $0x40,%ecx
    8a1e:	48 89 c7             	mov    %rax,%rdi
    8a21:	48 89 d6             	mov    %rdx,%rsi
    8a24:	f3 48 a5             	rep movsq %ds:(%rsi),%es:(%rdi)
    8a27:	83 bd 88 f5 ff ff 00 	cmpl   $0x0,-0xa78(%rbp)
    8a2e:	0f 84 26 02 00 00    	je     8c5a <func_27+0xa30>
    8a34:	66 c7 85 96 f5 ff ff 	movw   $0x5b80,-0xa6a(%rbp)
    8a3b:	80 5b 
    8a3d:	48 8d 85 d0 f5 ff ff 	lea    -0xa30(%rbp),%rax
    8a44:	48 89 85 80 f6 ff ff 	mov    %rax,-0x980(%rbp)
    8a4b:	48 8b 05 ec da 00 00 	mov    0xdaec(%rip),%rax        # 1653e <g_1018+0x1e>
    8a52:	41 89 c5             	mov    %eax,%r13d
    8a55:	8b 85 88 f5 ff ff    	mov    -0xa78(%rbp),%eax
    8a5b:	98                   	cwtl   
    8a5c:	be 00 00 00 00       	mov    $0x0,%esi
    8a61:	89 c7                	mov    %eax,%edi
    8a63:	e8 c2 aa ff ff       	callq  352a <safe_rshift_func_int16_t_s_s>
    8a68:	48 8b 85 60 f9 ff ff 	mov    -0x6a0(%rbp),%rax
    8a6f:	41 89 c6             	mov    %eax,%r14d
    8a72:	48 8b 05 e7 15 01 00 	mov    0x115e7(%rip),%rax        # 1a060 <g_55>
    8a79:	0f b6 00             	movzbl (%rax),%eax
    8a7c:	0f b6 d8             	movzbl %al,%ebx
    8a7f:	48 83 bd 80 f5 ff ff 	cmpq   $0x0,-0xa80(%rbp)
    8a86:	00 
    8a87:	0f 85 8a 00 00 00    	jne    8b17 <func_27+0x8ed>
    8a8d:	48 83 bd f8 f5 ff ff 	cmpq   $0x0,-0xa08(%rbp)
    8a94:	00 
    8a95:	0f 95 c0             	setne  %al
    8a98:	0f b6 d0             	movzbl %al,%edx
    8a9b:	48 8b 85 08 f6 ff ff 	mov    -0x9f8(%rbp),%rax
    8aa2:	0f b7 00             	movzwl (%rax),%eax
    8aa5:	8d 48 ff             	lea    -0x1(%rax),%ecx
    8aa8:	48 8b 85 08 f6 ff ff 	mov    -0x9f8(%rbp),%rax
    8aaf:	66 89 08             	mov    %cx,(%rax)
    8ab2:	48 8b 85 08 f6 ff ff 	mov    -0x9f8(%rbp),%rax
    8ab9:	0f b7 00             	movzwl (%rax),%eax
    8abc:	0f b7 c0             	movzwl %ax,%eax
    8abf:	89 d6                	mov    %edx,%esi
    8ac1:	89 c7                	mov    %eax,%edi
    8ac3:	e8 f6 b2 ff ff       	callq  3dbe <safe_lshift_func_uint16_t_u_s>
    8ac8:	44 0f b7 e0          	movzwl %ax,%r12d
    8acc:	8b 85 90 f6 ff ff    	mov    -0x970(%rbp),%eax
    8ad2:	be 00 00 00 00       	mov    $0x0,%esi
    8ad7:	89 c7                	mov    %eax,%edi
    8ad9:	e8 f2 b3 ff ff       	callq  3ed0 <safe_sub_func_uint32_t_u_u>
    8ade:	be 01 00 00 00       	mov    $0x1,%esi
    8ae3:	89 c7                	mov    %eax,%edi
    8ae5:	e8 ce b3 ff ff       	callq  3eb8 <safe_add_func_uint32_t_u_u>
    8aea:	48 8b 15 9f 15 01 00 	mov    0x1159f(%rip),%rdx        # 1a090 <g_856>
    8af1:	8b 12                	mov    (%rdx),%edx
    8af3:	09 d0                	or     %edx,%eax
    8af5:	89 c0                	mov    %eax,%eax
    8af7:	4c 89 e6             	mov    %r12,%rsi
    8afa:	48 89 c7             	mov    %rax,%rdi
    8afd:	e8 b2 ae ff ff       	callq  39b4 <safe_mod_func_int64_t_s_s>
    8b02:	48 be f1 dd 48 4e 08 	movabs $0x898b0084e48ddf1,%rsi
    8b09:	b0 98 08 
    8b0c:	48 89 c7             	mov    %rax,%rdi
    8b0f:	e8 94 ad ff ff       	callq  38a8 <safe_sub_func_int64_t_s_s>
    8b14:	48 85 c0             	test   %rax,%rax
    8b17:	89 de                	mov    %ebx,%esi
    8b19:	bf 01 00 00 00       	mov    $0x1,%edi
    8b1e:	e8 9b b1 ff ff       	callq  3cbe <safe_rshift_func_uint8_t_u_u>
    8b23:	44 89 f6             	mov    %r14d,%esi
    8b26:	bf 00 00 00 00       	mov    $0x0,%edi
    8b2b:	e8 88 b3 ff ff       	callq  3eb8 <safe_add_func_uint32_t_u_u>
    8b30:	89 c0                	mov    %eax,%eax
    8b32:	48 89 85 80 f5 ff ff 	mov    %rax,-0xa80(%rbp)
    8b39:	48 0f bf 85 96 f5 ff 	movswq -0xa6a(%rbp),%rax
    8b40:	ff 
    8b41:	48 39 85 80 f5 ff ff 	cmp    %rax,-0xa80(%rbp)
    8b48:	0f 97 c0             	seta   %al
    8b4b:	0f b6 c0             	movzbl %al,%eax
    8b4e:	89 c7                	mov    %eax,%edi
    8b50:	e8 51 b3 ff ff       	callq  3ea6 <safe_unary_minus_func_uint32_t_u>
    8b55:	66 0d 29 31          	or     $0x3129,%ax
    8b59:	98                   	cwtl   
    8b5a:	44 89 ee             	mov    %r13d,%esi
    8b5d:	89 c7                	mov    %eax,%edi
    8b5f:	e8 2e a9 ff ff       	callq  3492 <safe_lshift_func_int16_t_s_s>
    8b64:	48 8b 05 f5 14 01 00 	mov    0x114f5(%rip),%rax        # 1a060 <g_55>
    8b6b:	0f b6 00             	movzbl (%rax),%eax
    8b6e:	0f b6 c0             	movzbl %al,%eax
    8b71:	be 07 00 00 00       	mov    $0x7,%esi
    8b76:	89 c7                	mov    %eax,%edi
    8b78:	e8 88 b0 ff ff       	callq  3c05 <safe_lshift_func_uint8_t_u_s>
    8b7d:	0f b6 c0             	movzbl %al,%eax
    8b80:	39 85 88 f5 ff ff    	cmp    %eax,-0xa78(%rbp)
    8b86:	75 07                	jne    8b8f <func_27+0x965>
    8b88:	ba 01 00 00 00       	mov    $0x1,%edx
    8b8d:	eb 05                	jmp    8b94 <func_27+0x96a>
    8b8f:	ba 00 00 00 00       	mov    $0x0,%edx
    8b94:	8b 85 88 f5 ff ff    	mov    -0xa78(%rbp),%eax
    8b9a:	89 d6                	mov    %edx,%esi
    8b9c:	21 c6                	and    %eax,%esi
    8b9e:	48 8b 15 f3 c5 00 00 	mov    0xc5f3(%rip),%rdx        # 15198 <g_135>
    8ba5:	48 8b 05 94 da 00 00 	mov    0xda94(%rip),%rax        # 16640 <g_2030>
    8bac:	48 8d 48 02          	lea    0x2(%rax),%rcx
    8bb0:	48 89 d0             	mov    %rdx,%rax
    8bb3:	48 c1 e0 03          	shl    $0x3,%rax
    8bb7:	48 01 d0             	add    %rdx,%rax
    8bba:	48 01 c8             	add    %rcx,%rax
    8bbd:	48 8d 14 85 00 00 00 	lea    0x0(,%rax,4),%rdx
    8bc4:	00 
    8bc5:	48 8d 05 74 c4 00 00 	lea    0xc474(%rip),%rax        # 15040 <g_81>
    8bcc:	89 34 02             	mov    %esi,(%rdx,%rax,1)
    8bcf:	8b 85 98 f5 ff ff    	mov    -0xa68(%rbp),%eax
    8bd5:	98                   	cwtl   
    8bd6:	be 01 00 00 00       	mov    $0x1,%esi
    8bdb:	89 c7                	mov    %eax,%edi
    8bdd:	e8 48 a9 ff ff       	callq  352a <safe_rshift_func_int16_t_s_s>
    8be2:	66 85 c0             	test   %ax,%ax
    8be5:	0f 95 c0             	setne  %al
    8be8:	0f b6 c0             	movzbl %al,%eax
    8beb:	89 85 88 f5 ff ff    	mov    %eax,-0xa78(%rbp)
    8bf1:	8b 85 9c f5 ff ff    	mov    -0xa64(%rbp),%eax
    8bf7:	48 63 d0             	movslq %eax,%rdx
    8bfa:	48 8b 05 97 c5 00 00 	mov    0xc597(%rip),%rax        # 15198 <g_135>
    8c01:	48 39 c2             	cmp    %rax,%rdx
    8c04:	0f 95 c2             	setne  %dl
    8c07:	48 8b 05 62 14 01 00 	mov    0x11462(%rip),%rax        # 1a070 <g_213>
    8c0e:	0f b6 d2             	movzbl %dl,%edx
    8c11:	89 10                	mov    %edx,(%rax)
    8c13:	48 8b 95 d0 f5 ff ff 	mov    -0xa30(%rbp),%rdx
    8c1a:	48 8b 85 80 f6 ff ff 	mov    -0x980(%rbp),%rax
    8c21:	48 89 10             	mov    %rdx,(%rax)
    8c24:	48 8b 85 80 f6 ff ff 	mov    -0x980(%rbp),%rax
    8c2b:	48 8b 00             	mov    (%rax),%rax
    8c2e:	48 39 85 68 f6 ff ff 	cmp    %rax,-0x998(%rbp)
    8c35:	0f 95 c0             	setne  %al
    8c38:	0f b6 c8             	movzbl %al,%ecx
    8c3b:	48 8b 05 36 14 01 00 	mov    0x11436(%rip),%rax        # 1a078 <g_212>
    8c42:	48 8b 00             	mov    (%rax),%rax
    8c45:	8b 10                	mov    (%rax),%edx
    8c47:	48 8b 05 2a 14 01 00 	mov    0x1142a(%rip),%rax        # 1a078 <g_212>
    8c4e:	48 8b 00             	mov    (%rax),%rax
    8c51:	31 ca                	xor    %ecx,%edx
    8c53:	89 10                	mov    %edx,(%rax)
    8c55:	e9 f3 06 00 00       	jmpq   934d <func_27+0x1123>
    8c5a:	c7 85 b4 f5 ff ff fc 	movl   $0xfffffffc,-0xa4c(%rbp)
    8c61:	ff ff ff 
    8c64:	48 8d 05 bd 1a 01 00 	lea    0x11abd(%rip),%rax        # 1a728 <g_2141>
    8c6b:	48 89 85 d8 f5 ff ff 	mov    %rax,-0xa28(%rbp)
    8c72:	48 8d 85 d8 f5 ff ff 	lea    -0xa28(%rbp),%rax
    8c79:	48 89 85 e0 f5 ff ff 	mov    %rax,-0xa20(%rbp)
    8c80:	48 8d 85 e0 f5 ff ff 	lea    -0xa20(%rbp),%rax
    8c87:	48 89 85 e0 fb ff ff 	mov    %rax,-0x420(%rbp)
    8c8e:	48 8d 85 e0 f5 ff ff 	lea    -0xa20(%rbp),%rax
    8c95:	48 89 85 e8 fb ff ff 	mov    %rax,-0x418(%rbp)
    8c9c:	48 8d 85 e0 f5 ff ff 	lea    -0xa20(%rbp),%rax
    8ca3:	48 89 85 f0 fb ff ff 	mov    %rax,-0x410(%rbp)
    8caa:	48 8d 85 e0 f5 ff ff 	lea    -0xa20(%rbp),%rax
    8cb1:	48 89 85 f8 fb ff ff 	mov    %rax,-0x408(%rbp)
    8cb8:	48 8d 85 e0 f5 ff ff 	lea    -0xa20(%rbp),%rax
    8cbf:	48 89 85 00 fc ff ff 	mov    %rax,-0x400(%rbp)
    8cc6:	48 8d 85 e0 f5 ff ff 	lea    -0xa20(%rbp),%rax
    8ccd:	48 89 85 08 fc ff ff 	mov    %rax,-0x3f8(%rbp)
    8cd4:	48 8d 85 e0 f5 ff ff 	lea    -0xa20(%rbp),%rax
    8cdb:	48 89 85 10 fc ff ff 	mov    %rax,-0x3f0(%rbp)
    8ce2:	48 8d 85 e0 f5 ff ff 	lea    -0xa20(%rbp),%rax
    8ce9:	48 89 85 18 fc ff ff 	mov    %rax,-0x3e8(%rbp)
    8cf0:	48 c7 85 20 fc ff ff 	movq   $0x0,-0x3e0(%rbp)
    8cf7:	00 00 00 00 
    8cfb:	48 8d 85 e0 f5 ff ff 	lea    -0xa20(%rbp),%rax
    8d02:	48 89 85 28 fc ff ff 	mov    %rax,-0x3d8(%rbp)
    8d09:	48 8d 85 e0 f5 ff ff 	lea    -0xa20(%rbp),%rax
    8d10:	48 89 85 30 fc ff ff 	mov    %rax,-0x3d0(%rbp)
    8d17:	48 8d 85 e0 f5 ff ff 	lea    -0xa20(%rbp),%rax
    8d1e:	48 89 85 38 fc ff ff 	mov    %rax,-0x3c8(%rbp)
    8d25:	48 c7 85 40 fc ff ff 	movq   $0x0,-0x3c0(%rbp)
    8d2c:	00 00 00 00 
    8d30:	48 8d 85 e0 f5 ff ff 	lea    -0xa20(%rbp),%rax
    8d37:	48 89 85 48 fc ff ff 	mov    %rax,-0x3b8(%rbp)
    8d3e:	48 c7 85 50 fc ff ff 	movq   $0x0,-0x3b0(%rbp)
    8d45:	00 00 00 00 
    8d49:	48 8d 85 e0 f5 ff ff 	lea    -0xa20(%rbp),%rax
    8d50:	48 89 85 58 fc ff ff 	mov    %rax,-0x3a8(%rbp)
    8d57:	48 8d 85 e0 f5 ff ff 	lea    -0xa20(%rbp),%rax
    8d5e:	48 89 85 60 fc ff ff 	mov    %rax,-0x3a0(%rbp)
    8d65:	48 8d 85 e0 f5 ff ff 	lea    -0xa20(%rbp),%rax
    8d6c:	48 89 85 68 fc ff ff 	mov    %rax,-0x398(%rbp)
    8d73:	48 c7 85 70 fc ff ff 	movq   $0x0,-0x390(%rbp)
    8d7a:	00 00 00 00 
    8d7e:	48 8d 85 e0 f5 ff ff 	lea    -0xa20(%rbp),%rax
    8d85:	48 89 85 78 fc ff ff 	mov    %rax,-0x388(%rbp)
    8d8c:	48 c7 85 80 fc ff ff 	movq   $0x0,-0x380(%rbp)
    8d93:	00 00 00 00 
    8d97:	48 c7 85 88 fc ff ff 	movq   $0x0,-0x378(%rbp)
    8d9e:	00 00 00 00 
    8da2:	48 8d 85 e0 f5 ff ff 	lea    -0xa20(%rbp),%rax
    8da9:	48 89 85 90 fc ff ff 	mov    %rax,-0x370(%rbp)
    8db0:	48 8d 85 e0 f5 ff ff 	lea    -0xa20(%rbp),%rax
    8db7:	48 89 85 98 fc ff ff 	mov    %rax,-0x368(%rbp)
    8dbe:	48 c7 85 a0 fc ff ff 	movq   $0x0,-0x360(%rbp)
    8dc5:	00 00 00 00 
    8dc9:	48 8d 85 e0 f5 ff ff 	lea    -0xa20(%rbp),%rax
    8dd0:	48 89 85 a8 fc ff ff 	mov    %rax,-0x358(%rbp)
    8dd7:	48 8d 85 e0 f5 ff ff 	lea    -0xa20(%rbp),%rax
    8dde:	48 89 85 b0 fc ff ff 	mov    %rax,-0x350(%rbp)
    8de5:	48 8d 85 e0 f5 ff ff 	lea    -0xa20(%rbp),%rax
    8dec:	48 89 85 b8 fc ff ff 	mov    %rax,-0x348(%rbp)
    8df3:	48 8d 85 e0 f5 ff ff 	lea    -0xa20(%rbp),%rax
    8dfa:	48 89 85 c0 fc ff ff 	mov    %rax,-0x340(%rbp)
    8e01:	48 8d 85 e0 f5 ff ff 	lea    -0xa20(%rbp),%rax
    8e08:	48 89 85 c8 fc ff ff 	mov    %rax,-0x338(%rbp)
    8e0f:	48 8d 85 e0 f5 ff ff 	lea    -0xa20(%rbp),%rax
    8e16:	48 89 85 d0 fc ff ff 	mov    %rax,-0x330(%rbp)
    8e1d:	48 8d 85 e0 f5 ff ff 	lea    -0xa20(%rbp),%rax
    8e24:	48 89 85 d8 fc ff ff 	mov    %rax,-0x328(%rbp)
    8e2b:	48 8d 85 e0 f5 ff ff 	lea    -0xa20(%rbp),%rax
    8e32:	48 89 85 e0 fc ff ff 	mov    %rax,-0x320(%rbp)
    8e39:	48 8d 85 e0 f5 ff ff 	lea    -0xa20(%rbp),%rax
    8e40:	48 89 85 e8 fc ff ff 	mov    %rax,-0x318(%rbp)
    8e47:	48 8d 85 e0 f5 ff ff 	lea    -0xa20(%rbp),%rax
    8e4e:	48 89 85 f0 fc ff ff 	mov    %rax,-0x310(%rbp)
    8e55:	48 8d 85 e0 f5 ff ff 	lea    -0xa20(%rbp),%rax
    8e5c:	48 89 85 f8 fc ff ff 	mov    %rax,-0x308(%rbp)
    8e63:	48 8d 85 e0 f5 ff ff 	lea    -0xa20(%rbp),%rax
    8e6a:	48 89 85 00 fd ff ff 	mov    %rax,-0x300(%rbp)
    8e71:	48 8d 85 e0 f5 ff ff 	lea    -0xa20(%rbp),%rax
    8e78:	48 89 85 08 fd ff ff 	mov    %rax,-0x2f8(%rbp)
    8e7f:	48 c7 85 10 fd ff ff 	movq   $0x0,-0x2f0(%rbp)
    8e86:	00 00 00 00 
    8e8a:	48 8d 85 e0 f5 ff ff 	lea    -0xa20(%rbp),%rax
    8e91:	48 89 85 18 fd ff ff 	mov    %rax,-0x2e8(%rbp)
    8e98:	48 8d 85 e0 f5 ff ff 	lea    -0xa20(%rbp),%rax
    8e9f:	48 89 85 20 fd ff ff 	mov    %rax,-0x2e0(%rbp)
    8ea6:	48 8d 85 e0 f5 ff ff 	lea    -0xa20(%rbp),%rax
    8ead:	48 89 85 28 fd ff ff 	mov    %rax,-0x2d8(%rbp)
    8eb4:	48 8d 85 e0 f5 ff ff 	lea    -0xa20(%rbp),%rax
    8ebb:	48 89 85 30 fd ff ff 	mov    %rax,-0x2d0(%rbp)
    8ec2:	48 8d 85 e0 f5 ff ff 	lea    -0xa20(%rbp),%rax
    8ec9:	48 89 85 38 fd ff ff 	mov    %rax,-0x2c8(%rbp)
    8ed0:	48 8d 85 e0 f5 ff ff 	lea    -0xa20(%rbp),%rax
    8ed7:	48 89 85 40 fd ff ff 	mov    %rax,-0x2c0(%rbp)
    8ede:	48 8d 85 e0 f5 ff ff 	lea    -0xa20(%rbp),%rax
    8ee5:	48 89 85 48 fd ff ff 	mov    %rax,-0x2b8(%rbp)
    8eec:	48 8d 85 e0 f5 ff ff 	lea    -0xa20(%rbp),%rax
    8ef3:	48 89 85 50 fd ff ff 	mov    %rax,-0x2b0(%rbp)
    8efa:	48 8d 85 e0 f5 ff ff 	lea    -0xa20(%rbp),%rax
    8f01:	48 89 85 58 fd ff ff 	mov    %rax,-0x2a8(%rbp)
    8f08:	48 c7 85 60 fd ff ff 	movq   $0x0,-0x2a0(%rbp)
    8f0f:	00 00 00 00 
    8f13:	48 8d 85 e0 f5 ff ff 	lea    -0xa20(%rbp),%rax
    8f1a:	48 89 85 68 fd ff ff 	mov    %rax,-0x298(%rbp)
    8f21:	48 8d 85 e0 f5 ff ff 	lea    -0xa20(%rbp),%rax
    8f28:	48 89 85 70 fd ff ff 	mov    %rax,-0x290(%rbp)
    8f2f:	48 8d 85 e0 f5 ff ff 	lea    -0xa20(%rbp),%rax
    8f36:	48 89 85 78 fd ff ff 	mov    %rax,-0x288(%rbp)
    8f3d:	48 c7 85 80 fd ff ff 	movq   $0x0,-0x280(%rbp)
    8f44:	00 00 00 00 
    8f48:	48 8d 85 e0 f5 ff ff 	lea    -0xa20(%rbp),%rax
    8f4f:	48 89 85 88 fd ff ff 	mov    %rax,-0x278(%rbp)
    8f56:	48 c7 85 90 fd ff ff 	movq   $0x0,-0x270(%rbp)
    8f5d:	00 00 00 00 
    8f61:	48 8d 85 e0 f5 ff ff 	lea    -0xa20(%rbp),%rax
    8f68:	48 89 85 98 fd ff ff 	mov    %rax,-0x268(%rbp)
    8f6f:	48 c7 85 a0 fd ff ff 	movq   $0x0,-0x260(%rbp)
    8f76:	00 00 00 00 
    8f7a:	48 8d 85 e0 f5 ff ff 	lea    -0xa20(%rbp),%rax
    8f81:	48 89 85 a8 fd ff ff 	mov    %rax,-0x258(%rbp)
    8f88:	48 c7 85 b0 fd ff ff 	movq   $0x0,-0x250(%rbp)
    8f8f:	00 00 00 00 
    8f93:	48 8d 85 e0 f5 ff ff 	lea    -0xa20(%rbp),%rax
    8f9a:	48 89 85 b8 fd ff ff 	mov    %rax,-0x248(%rbp)
    8fa1:	48 8d 85 e0 f5 ff ff 	lea    -0xa20(%rbp),%rax
    8fa8:	48 89 85 c0 fd ff ff 	mov    %rax,-0x240(%rbp)
    8faf:	48 8d 85 e0 f5 ff ff 	lea    -0xa20(%rbp),%rax
    8fb6:	48 89 85 c8 fd ff ff 	mov    %rax,-0x238(%rbp)
    8fbd:	48 8d 85 e0 f5 ff ff 	lea    -0xa20(%rbp),%rax
    8fc4:	48 89 85 d0 fd ff ff 	mov    %rax,-0x230(%rbp)
    8fcb:	48 8d 85 e0 f5 ff ff 	lea    -0xa20(%rbp),%rax
    8fd2:	48 89 85 d8 fd ff ff 	mov    %rax,-0x228(%rbp)
    8fd9:	48 c7 85 e0 fd ff ff 	movq   $0x0,-0x220(%rbp)
    8fe0:	00 00 00 00 
    8fe4:	48 c7 85 e8 fd ff ff 	movq   $0x0,-0x218(%rbp)
    8feb:	00 00 00 00 
    8fef:	48 c7 85 f0 fd ff ff 	movq   $0x0,-0x210(%rbp)
    8ff6:	00 00 00 00 
    8ffa:	48 c7 85 f8 fd ff ff 	movq   $0x0,-0x208(%rbp)
    9001:	00 00 00 00 
    9005:	48 8d 85 e0 f5 ff ff 	lea    -0xa20(%rbp),%rax
    900c:	48 89 85 00 fe ff ff 	mov    %rax,-0x200(%rbp)
    9013:	48 8d 85 e0 f5 ff ff 	lea    -0xa20(%rbp),%rax
    901a:	48 89 85 08 fe ff ff 	mov    %rax,-0x1f8(%rbp)
    9021:	48 8d 85 e0 f5 ff ff 	lea    -0xa20(%rbp),%rax
    9028:	48 89 85 10 fe ff ff 	mov    %rax,-0x1f0(%rbp)
    902f:	48 8d 85 e0 f5 ff ff 	lea    -0xa20(%rbp),%rax
    9036:	48 89 85 18 fe ff ff 	mov    %rax,-0x1e8(%rbp)
    903d:	48 8d 85 e0 f5 ff ff 	lea    -0xa20(%rbp),%rax
    9044:	48 89 85 20 fe ff ff 	mov    %rax,-0x1e0(%rbp)
    904b:	48 8d 85 e0 f5 ff ff 	lea    -0xa20(%rbp),%rax
    9052:	48 89 85 28 fe ff ff 	mov    %rax,-0x1d8(%rbp)
    9059:	48 8d 85 e0 f5 ff ff 	lea    -0xa20(%rbp),%rax
    9060:	48 89 85 30 fe ff ff 	mov    %rax,-0x1d0(%rbp)
    9067:	48 8d 85 e0 f5 ff ff 	lea    -0xa20(%rbp),%rax
    906e:	48 89 85 38 fe ff ff 	mov    %rax,-0x1c8(%rbp)
    9075:	48 8d 85 e0 f5 ff ff 	lea    -0xa20(%rbp),%rax
    907c:	48 89 85 40 fe ff ff 	mov    %rax,-0x1c0(%rbp)
    9083:	48 c7 85 48 fe ff ff 	movq   $0x0,-0x1b8(%rbp)
    908a:	00 00 00 00 
    908e:	48 8d 85 e0 f5 ff ff 	lea    -0xa20(%rbp),%rax
    9095:	48 89 85 50 fe ff ff 	mov    %rax,-0x1b0(%rbp)
    909c:	48 c7 85 58 fe ff ff 	movq   $0x0,-0x1a8(%rbp)
    90a3:	00 00 00 00 
    90a7:	48 8d 85 e0 f5 ff ff 	lea    -0xa20(%rbp),%rax
    90ae:	48 89 85 60 fe ff ff 	mov    %rax,-0x1a0(%rbp)
    90b5:	48 8d 85 e0 f5 ff ff 	lea    -0xa20(%rbp),%rax
    90bc:	48 89 85 68 fe ff ff 	mov    %rax,-0x198(%rbp)
    90c3:	48 8d 85 e0 f5 ff ff 	lea    -0xa20(%rbp),%rax
    90ca:	48 89 85 70 fe ff ff 	mov    %rax,-0x190(%rbp)
    90d1:	48 8d 85 e0 f5 ff ff 	lea    -0xa20(%rbp),%rax
    90d8:	48 89 85 78 fe ff ff 	mov    %rax,-0x188(%rbp)
    90df:	48 8d 85 e0 f5 ff ff 	lea    -0xa20(%rbp),%rax
    90e6:	48 89 85 80 fe ff ff 	mov    %rax,-0x180(%rbp)
    90ed:	48 8d 85 e0 f5 ff ff 	lea    -0xa20(%rbp),%rax
    90f4:	48 89 85 88 fe ff ff 	mov    %rax,-0x178(%rbp)
    90fb:	48 8d 85 e0 f5 ff ff 	lea    -0xa20(%rbp),%rax
    9102:	48 89 85 90 fe ff ff 	mov    %rax,-0x170(%rbp)
    9109:	48 8d 85 e0 f5 ff ff 	lea    -0xa20(%rbp),%rax
    9110:	48 89 85 98 fe ff ff 	mov    %rax,-0x168(%rbp)
    9117:	48 8d 85 e0 f5 ff ff 	lea    -0xa20(%rbp),%rax
    911e:	48 89 85 a0 fe ff ff 	mov    %rax,-0x160(%rbp)
    9125:	48 8d 85 e0 f5 ff ff 	lea    -0xa20(%rbp),%rax
    912c:	48 89 85 a8 fe ff ff 	mov    %rax,-0x158(%rbp)
    9133:	48 8d 85 e0 f5 ff ff 	lea    -0xa20(%rbp),%rax
    913a:	48 89 85 b0 fe ff ff 	mov    %rax,-0x150(%rbp)
    9141:	48 8d 85 e0 f5 ff ff 	lea    -0xa20(%rbp),%rax
    9148:	48 89 85 b8 fe ff ff 	mov    %rax,-0x148(%rbp)
    914f:	48 c7 85 c0 fe ff ff 	movq   $0x0,-0x140(%rbp)
    9156:	00 00 00 00 
    915a:	48 8d 85 e0 f5 ff ff 	lea    -0xa20(%rbp),%rax
    9161:	48 89 85 c8 fe ff ff 	mov    %rax,-0x138(%rbp)
    9168:	48 8d 85 e0 f5 ff ff 	lea    -0xa20(%rbp),%rax
    916f:	48 89 85 d0 fe ff ff 	mov    %rax,-0x130(%rbp)
    9176:	48 8d 85 e0 f5 ff ff 	lea    -0xa20(%rbp),%rax
    917d:	48 89 85 d8 fe ff ff 	mov    %rax,-0x128(%rbp)
    9184:	48 8d 85 e0 f5 ff ff 	lea    -0xa20(%rbp),%rax
    918b:	48 89 85 e0 fe ff ff 	mov    %rax,-0x120(%rbp)
    9192:	48 8d 85 e0 f5 ff ff 	lea    -0xa20(%rbp),%rax
    9199:	48 89 85 e8 fe ff ff 	mov    %rax,-0x118(%rbp)
    91a0:	48 c7 85 f0 fe ff ff 	movq   $0x0,-0x110(%rbp)
    91a7:	00 00 00 00 
    91ab:	48 8d 85 e0 f5 ff ff 	lea    -0xa20(%rbp),%rax
    91b2:	48 89 85 f8 fe ff ff 	mov    %rax,-0x108(%rbp)
    91b9:	48 8d 85 e0 f5 ff ff 	lea    -0xa20(%rbp),%rax
    91c0:	48 89 85 00 ff ff ff 	mov    %rax,-0x100(%rbp)
    91c7:	48 8d 85 e0 f5 ff ff 	lea    -0xa20(%rbp),%rax
    91ce:	48 89 85 08 ff ff ff 	mov    %rax,-0xf8(%rbp)
    91d5:	48 8d 85 e0 f5 ff ff 	lea    -0xa20(%rbp),%rax
    91dc:	48 89 85 10 ff ff ff 	mov    %rax,-0xf0(%rbp)
    91e3:	48 8d 85 e0 f5 ff ff 	lea    -0xa20(%rbp),%rax
    91ea:	48 89 85 18 ff ff ff 	mov    %rax,-0xe8(%rbp)
    91f1:	48 8d 85 e0 f5 ff ff 	lea    -0xa20(%rbp),%rax
    91f8:	48 89 85 20 ff ff ff 	mov    %rax,-0xe0(%rbp)
    91ff:	48 8d 85 e0 f5 ff ff 	lea    -0xa20(%rbp),%rax
    9206:	48 89 85 28 ff ff ff 	mov    %rax,-0xd8(%rbp)
    920d:	48 8d 85 e0 f5 ff ff 	lea    -0xa20(%rbp),%rax
    9214:	48 89 85 30 ff ff ff 	mov    %rax,-0xd0(%rbp)
    921b:	48 8d 85 e0 f5 ff ff 	lea    -0xa20(%rbp),%rax
    9222:	48 89 85 38 ff ff ff 	mov    %rax,-0xc8(%rbp)
    9229:	48 c7 85 40 ff ff ff 	movq   $0x0,-0xc0(%rbp)
    9230:	00 00 00 00 
    9234:	48 c7 85 48 ff ff ff 	movq   $0x0,-0xb8(%rbp)
    923b:	00 00 00 00 
    923f:	48 8d 85 e0 f5 ff ff 	lea    -0xa20(%rbp),%rax
    9246:	48 89 85 50 ff ff ff 	mov    %rax,-0xb0(%rbp)
    924d:	48 8d 85 e0 f5 ff ff 	lea    -0xa20(%rbp),%rax
    9254:	48 89 85 58 ff ff ff 	mov    %rax,-0xa8(%rbp)
    925b:	48 8d 85 e0 f5 ff ff 	lea    -0xa20(%rbp),%rax
    9262:	48 89 85 60 ff ff ff 	mov    %rax,-0xa0(%rbp)
    9269:	48 8d 85 e0 f5 ff ff 	lea    -0xa20(%rbp),%rax
    9270:	48 89 85 68 ff ff ff 	mov    %rax,-0x98(%rbp)
    9277:	48 8d 85 e0 f5 ff ff 	lea    -0xa20(%rbp),%rax
    927e:	48 89 85 70 ff ff ff 	mov    %rax,-0x90(%rbp)
    9285:	48 8d 85 e0 f5 ff ff 	lea    -0xa20(%rbp),%rax
    928c:	48 89 85 78 ff ff ff 	mov    %rax,-0x88(%rbp)
    9293:	48 8d 85 e0 f5 ff ff 	lea    -0xa20(%rbp),%rax
    929a:	48 89 45 80          	mov    %rax,-0x80(%rbp)
    929e:	48 8d 85 e0 f5 ff ff 	lea    -0xa20(%rbp),%rax
    92a5:	48 89 45 88          	mov    %rax,-0x78(%rbp)
    92a9:	48 8d 85 e0 f5 ff ff 	lea    -0xa20(%rbp),%rax
    92b0:	48 89 45 90          	mov    %rax,-0x70(%rbp)
    92b4:	48 8d 85 e0 f5 ff ff 	lea    -0xa20(%rbp),%rax
    92bb:	48 89 45 98          	mov    %rax,-0x68(%rbp)
    92bf:	48 8d 85 e0 f5 ff ff 	lea    -0xa20(%rbp),%rax
    92c6:	48 89 45 a0          	mov    %rax,-0x60(%rbp)
    92ca:	48 c7 45 a8 00 00 00 	movq   $0x0,-0x58(%rbp)
    92d1:	00 
    92d2:	48 8d 85 e0 f5 ff ff 	lea    -0xa20(%rbp),%rax
    92d9:	48 89 45 b0          	mov    %rax,-0x50(%rbp)
    92dd:	48 8d 85 e0 f5 ff ff 	lea    -0xa20(%rbp),%rax
    92e4:	48 89 45 b8          	mov    %rax,-0x48(%rbp)
    92e8:	48 c7 45 c0 00 00 00 	movq   $0x0,-0x40(%rbp)
    92ef:	00 
    92f0:	48 8d 85 e0 f5 ff ff 	lea    -0xa20(%rbp),%rax
    92f7:	48 89 45 c8          	mov    %rax,-0x38(%rbp)
    92fb:	48 8d 05 f6 c7 00 00 	lea    0xc7f6(%rip),%rax        # 15af8 <g_358+0x8>
    9302:	48 89 85 78 f6 ff ff 	mov    %rax,-0x988(%rbp)
    9309:	83 bd 8c f5 ff ff 00 	cmpl   $0x0,-0xa74(%rbp)
    9310:	75 67                	jne    9379 <func_27+0x114f>
    9312:	83 bd b4 f5 ff ff 00 	cmpl   $0x0,-0xa4c(%rbp)
    9319:	75 40                	jne    935b <func_27+0x1131>
    931b:	48 8b 85 78 ff ff ff 	mov    -0x88(%rbp),%rax
    9322:	48 85 c0             	test   %rax,%rax
    9325:	0f 94 c2             	sete   %dl
    9328:	48 8b 05 49 0d 01 00 	mov    0x10d49(%rip),%rax        # 1a078 <g_212>
    932f:	48 8b 00             	mov    (%rax),%rax
    9332:	0f b6 d2             	movzbl %dl,%edx
    9335:	89 10                	mov    %edx,(%rax)
    9337:	8b 10                	mov    (%rax),%edx
    9339:	48 8b 85 78 f6 ff ff 	mov    -0x988(%rbp),%rax
    9340:	8b 00                	mov    (%rax),%eax
    9342:	21 c2                	and    %eax,%edx
    9344:	48 8b 85 78 f6 ff ff 	mov    -0x988(%rbp),%rax
    934b:	89 10                	mov    %edx,(%rax)
    934d:	48 8b 05 14 0d 01 00 	mov    0x10d14(%rip),%rax        # 1a068 <g_143>
    9354:	48 89 85 10 f8 ff ff 	mov    %rax,-0x7f0(%rbp)
    935b:	8b 05 eb c7 00 00    	mov    0xc7eb(%rip),%eax        # 15b4c <g_524>
    9361:	83 c0 01             	add    $0x1,%eax
    9364:	89 05 e2 c7 00 00    	mov    %eax,0xc7e2(%rip)        # 15b4c <g_524>
    936a:	8b 05 dc c7 00 00    	mov    0xc7dc(%rip),%eax        # 15b4c <g_524>
    9370:	83 f8 04             	cmp    $0x4,%eax
    9373:	0f 86 79 f6 ff ff    	jbe    89f2 <func_27+0x7c8>
    9379:	48 8b 05 f8 0c 01 00 	mov    0x10cf8(%rip),%rax        # 1a078 <g_212>
    9380:	48 8b 00             	mov    (%rax),%rax
    9383:	c7 00 cc d3 20 6a    	movl   $0x6a20d3cc,(%rax)
    9389:	48 8b 85 60 f9 ff ff 	mov    -0x6a0(%rbp),%rax
    9390:	48 85 c0             	test   %rax,%rax
    9393:	75 25                	jne    93ba <func_27+0x1190>
    9395:	48 8b 05 fc bd 00 00 	mov    0xbdfc(%rip),%rax        # 15198 <g_135>
    939c:	48 83 c0 01          	add    $0x1,%rax
    93a0:	48 89 05 f1 bd 00 00 	mov    %rax,0xbdf1(%rip)        # 15198 <g_135>
    93a7:	48 8b 05 ea bd 00 00 	mov    0xbdea(%rip),%rax        # 15198 <g_135>
    93ae:	48 83 f8 05          	cmp    $0x5,%rax
    93b2:	0f 8e 01 f6 ff ff    	jle    89b9 <func_27+0x78f>
    93b8:	eb 01                	jmp    93bb <func_27+0x1191>
    93ba:	90                   	nop
    93bb:	48 8b 15 b6 0c 01 00 	mov    0x10cb6(%rip),%rdx        # 1a078 <g_212>
    93c2:	48 8b 05 af 0c 01 00 	mov    0x10caf(%rip),%rax        # 1a078 <g_212>
    93c9:	48 8b 12             	mov    (%rdx),%rdx
    93cc:	48 89 10             	mov    %rdx,(%rax)
    93cf:	48 8b 05 a2 0c 01 00 	mov    0x10ca2(%rip),%rax        # 1a078 <g_212>
    93d6:	48 8b 00             	mov    (%rax),%rax
    93d9:	8b 00                	mov    (%rax),%eax
    93db:	85 c0                	test   %eax,%eax
    93dd:	75 30                	jne    940f <func_27+0x11e5>
    93df:	48 8b 85 60 f6 ff ff 	mov    -0x9a0(%rbp),%rax
    93e6:	8b 10                	mov    (%rax),%edx
    93e8:	48 8b 85 28 f7 ff ff 	mov    -0x8d8(%rbp),%rax
    93ef:	48 39 85 00 f6 ff ff 	cmp    %rax,-0xa00(%rbp)
    93f6:	0f 95 c0             	setne  %al
    93f9:	0f b6 c0             	movzbl %al,%eax
    93fc:	21 c2                	and    %eax,%edx
    93fe:	48 8b 85 60 f6 ff ff 	mov    -0x9a0(%rbp),%rax
    9405:	89 10                	mov    %edx,(%rax)
    9407:	8b 85 94 f6 ff ff    	mov    -0x96c(%rbp),%eax
    940d:	eb 10                	jmp    941f <func_27+0x11f5>
    940f:	81 8d 88 f5 ff ff 71 	orl    $0x206a6971,-0xa78(%rbp)
    9416:	69 6a 20 
    9419:	8b 85 a8 f5 ff ff    	mov    -0xa58(%rbp),%eax
    941f:	48 8b 5d d8          	mov    -0x28(%rbp),%rbx
    9423:	64 48 33 1c 25 28 00 	xor    %fs:0x28,%rbx
    942a:	00 00 
    942c:	74 05                	je     9433 <func_27+0x1209>
    942e:	e8 3d 9c ff ff       	callq  3070 <__stack_chk_fail@plt>
    9433:	48 81 c4 60 0a 00 00 	add    $0xa60,%rsp
    943a:	5b                   	pop    %rbx
    943b:	41 5c                	pop    %r12
    943d:	41 5d                	pop    %r13
    943f:	41 5e                	pop    %r14
    9441:	5d                   	pop    %rbp
    9442:	c3                   	retq   

0000000000009443 <func_37>:
    9443:	f3 0f 1e fa          	endbr64 
    9447:	55                   	push   %rbp
    9448:	48 89 e5             	mov    %rsp,%rbp
    944b:	48 81 ec 60 04 00 00 	sub    $0x460,%rsp
    9452:	89 bd bc fb ff ff    	mov    %edi,-0x444(%rbp)
    9458:	48 89 b5 b0 fb ff ff 	mov    %rsi,-0x450(%rbp)
    945f:	89 95 b8 fb ff ff    	mov    %edx,-0x448(%rbp)
    9465:	48 89 8d a8 fb ff ff 	mov    %rcx,-0x458(%rbp)
    946c:	4c 89 85 a0 fb ff ff 	mov    %r8,-0x460(%rbp)
    9473:	64 48 8b 04 25 28 00 	mov    %fs:0x28,%rax
    947a:	00 00 
    947c:	48 89 45 f8          	mov    %rax,-0x8(%rbp)
    9480:	31 c0                	xor    %eax,%eax
    9482:	48 8d 05 83 d1 00 00 	lea    0xd183(%rip),%rax        # 1660c <g_1181>
    9489:	48 89 85 f8 fb ff ff 	mov    %rax,-0x408(%rbp)
    9490:	48 8d 85 f8 fb ff ff 	lea    -0x408(%rbp),%rax
    9497:	48 89 85 00 fc ff ff 	mov    %rax,-0x400(%rbp)
    949e:	c7 85 d4 fb ff ff ff 	movl   $0xffffffff,-0x42c(%rbp)
    94a5:	ff ff ff 
    94a8:	c7 85 d8 fb ff ff ff 	movl   $0xffffffff,-0x428(%rbp)
    94af:	ff ff ff 
    94b2:	c7 85 dc fb ff ff 00 	movl   $0x0,-0x424(%rbp)
    94b9:	00 00 00 
    94bc:	c7 85 e0 fb ff ff 2d 	movl   $0xa0a1b82d,-0x420(%rbp)
    94c3:	b8 a1 a0 
    94c6:	c7 85 e4 fb ff ff 00 	movl   $0x0,-0x41c(%rbp)
    94cd:	00 00 00 
    94d0:	c7 85 e8 fb ff ff 00 	movl   $0x0,-0x418(%rbp)
    94d7:	00 00 00 
    94da:	c7 85 ec fb ff ff 01 	movl   $0x1,-0x414(%rbp)
    94e1:	00 00 00 
    94e4:	c7 85 f0 fb ff ff ff 	movl   $0x91f76cff,-0x410(%rbp)
    94eb:	6c f7 91 
    94ee:	48 c7 85 08 fc ff ff 	movq   $0x0,-0x3f8(%rbp)
    94f5:	00 00 00 00 
    94f9:	48 c7 85 10 fc ff ff 	movq   $0x0,-0x3f0(%rbp)
    9500:	00 00 00 00 
    9504:	48 8d 05 81 bc 00 00 	lea    0xbc81(%rip),%rax        # 1518c <g_90>
    950b:	48 89 85 18 fc ff ff 	mov    %rax,-0x3e8(%rbp)
    9512:	c6 85 c6 fb ff ff e4 	movb   $0xe4,-0x43a(%rbp)
    9519:	66 c7 85 90 fc ff ff 	movw   $0x1,-0x370(%rbp)
    9520:	01 00 
    9522:	66 c7 85 92 fc ff ff 	movw   $0xffff,-0x36e(%rbp)
    9529:	ff ff 
    952b:	66 c7 85 94 fc ff ff 	movw   $0xffff,-0x36c(%rbp)
    9532:	ff ff 
    9534:	66 c7 85 96 fc ff ff 	movw   $0x1,-0x36a(%rbp)
    953b:	01 00 
    953d:	66 c7 85 98 fc ff ff 	movw   $0x3596,-0x368(%rbp)
    9544:	96 35 
    9546:	66 c7 85 9a fc ff ff 	movw   $0x1,-0x366(%rbp)
    954d:	01 00 
    954f:	66 c7 85 9c fc ff ff 	movw   $0x0,-0x364(%rbp)
    9556:	00 00 
    9558:	66 c7 85 9e fc ff ff 	movw   $0x0,-0x362(%rbp)
    955f:	00 00 
    9561:	66 c7 85 a0 fc ff ff 	movw   $0x0,-0x360(%rbp)
    9568:	00 00 
    956a:	66 c7 85 a2 fc ff ff 	movw   $0x0,-0x35e(%rbp)
    9571:	00 00 
    9573:	66 c7 85 a4 fc ff ff 	movw   $0x3596,-0x35c(%rbp)
    957a:	96 35 
    957c:	66 c7 85 a6 fc ff ff 	movw   $0xffff,-0x35a(%rbp)
    9583:	ff ff 
    9585:	66 c7 85 a8 fc ff ff 	movw   $0x0,-0x358(%rbp)
    958c:	00 00 
    958e:	66 c7 85 aa fc ff ff 	movw   $0xf580,-0x356(%rbp)
    9595:	80 f5 
    9597:	66 c7 85 ac fc ff ff 	movw   $0xf580,-0x354(%rbp)
    959e:	80 f5 
    95a0:	66 c7 85 ae fc ff ff 	movw   $0xffff,-0x352(%rbp)
    95a7:	ff ff 
    95a9:	66 c7 85 b0 fc ff ff 	movw   $0x3596,-0x350(%rbp)
    95b0:	96 35 
    95b2:	66 c7 85 b2 fc ff ff 	movw   $0xffff,-0x34e(%rbp)
    95b9:	ff ff 
    95bb:	66 c7 85 b4 fc ff ff 	movw   $0x0,-0x34c(%rbp)
    95c2:	00 00 
    95c4:	66 c7 85 b6 fc ff ff 	movw   $0xf580,-0x34a(%rbp)
    95cb:	80 f5 
    95cd:	66 c7 85 b8 fc ff ff 	movw   $0x0,-0x348(%rbp)
    95d4:	00 00 
    95d6:	66 c7 85 ba fc ff ff 	movw   $0x1,-0x346(%rbp)
    95dd:	01 00 
    95df:	66 c7 85 bc fc ff ff 	movw   $0xf580,-0x344(%rbp)
    95e6:	80 f5 
    95e8:	66 c7 85 be fc ff ff 	movw   $0x1,-0x342(%rbp)
    95ef:	01 00 
    95f1:	66 c7 85 c0 fc ff ff 	movw   $0x0,-0x340(%rbp)
    95f8:	00 00 
    95fa:	66 c7 85 c2 fc ff ff 	movw   $0xffff,-0x33e(%rbp)
    9601:	ff ff 
    9603:	66 c7 85 c4 fc ff ff 	movw   $0x1,-0x33c(%rbp)
    960a:	01 00 
    960c:	66 c7 85 c6 fc ff ff 	movw   $0x3596,-0x33a(%rbp)
    9613:	96 35 
    9615:	66 c7 85 c8 fc ff ff 	movw   $0x0,-0x338(%rbp)
    961c:	00 00 
    961e:	66 c7 85 ca fc ff ff 	movw   $0x3596,-0x336(%rbp)
    9625:	96 35 
    9627:	66 c7 85 cc fc ff ff 	movw   $0x3596,-0x334(%rbp)
    962e:	96 35 
    9630:	66 c7 85 ce fc ff ff 	movw   $0x3596,-0x332(%rbp)
    9637:	96 35 
    9639:	66 c7 85 d0 fc ff ff 	movw   $0xf580,-0x330(%rbp)
    9640:	80 f5 
    9642:	66 c7 85 d2 fc ff ff 	movw   $0x0,-0x32e(%rbp)
    9649:	00 00 
    964b:	66 c7 85 d4 fc ff ff 	movw   $0xfffa,-0x32c(%rbp)
    9652:	fa ff 
    9654:	66 c7 85 d6 fc ff ff 	movw   $0x1,-0x32a(%rbp)
    965b:	01 00 
    965d:	66 c7 85 d8 fc ff ff 	movw   $0xffff,-0x328(%rbp)
    9664:	ff ff 
    9666:	66 c7 85 da fc ff ff 	movw   $0xffff,-0x326(%rbp)
    966d:	ff ff 
    966f:	66 c7 85 dc fc ff ff 	movw   $0x1,-0x324(%rbp)
    9676:	01 00 
    9678:	66 c7 85 de fc ff ff 	movw   $0x3596,-0x322(%rbp)
    967f:	96 35 
    9681:	66 c7 85 e0 fc ff ff 	movw   $0x1,-0x320(%rbp)
    9688:	01 00 
    968a:	66 c7 85 e2 fc ff ff 	movw   $0x0,-0x31e(%rbp)
    9691:	00 00 
    9693:	66 c7 85 e4 fc ff ff 	movw   $0x0,-0x31c(%rbp)
    969a:	00 00 
    969c:	66 c7 85 e6 fc ff ff 	movw   $0x0,-0x31a(%rbp)
    96a3:	00 00 
    96a5:	66 c7 85 e8 fc ff ff 	movw   $0x0,-0x318(%rbp)
    96ac:	00 00 
    96ae:	66 c7 85 ea fc ff ff 	movw   $0x3596,-0x316(%rbp)
    96b5:	96 35 
    96b7:	66 c7 85 ec fc ff ff 	movw   $0xffff,-0x314(%rbp)
    96be:	ff ff 
    96c0:	66 c7 85 ee fc ff ff 	movw   $0x0,-0x312(%rbp)
    96c7:	00 00 
    96c9:	66 c7 85 f0 fc ff ff 	movw   $0xf580,-0x310(%rbp)
    96d0:	80 f5 
    96d2:	66 c7 85 f2 fc ff ff 	movw   $0xf580,-0x30e(%rbp)
    96d9:	80 f5 
    96db:	48 8d 05 f6 c3 00 00 	lea    0xc3f6(%rip),%rax        # 15ad8 <g_333+0x18>
    96e2:	48 89 85 20 fc ff ff 	mov    %rax,-0x3e0(%rbp)
    96e9:	66 c7 85 c8 fb ff ff 	movw   $0xfa8b,-0x438(%rbp)
    96f0:	8b fa 
    96f2:	48 8d 05 6f 09 01 00 	lea    0x1096f(%rip),%rax        # 1a068 <g_143>
    96f9:	48 89 85 40 fc ff ff 	mov    %rax,-0x3c0(%rbp)
    9700:	48 8d 05 61 09 01 00 	lea    0x10961(%rip),%rax        # 1a068 <g_143>
    9707:	48 89 85 48 fc ff ff 	mov    %rax,-0x3b8(%rbp)
    970e:	48 8d 05 53 09 01 00 	lea    0x10953(%rip),%rax        # 1a068 <g_143>
    9715:	48 89 85 50 fc ff ff 	mov    %rax,-0x3b0(%rbp)
    971c:	48 8d 05 45 09 01 00 	lea    0x10945(%rip),%rax        # 1a068 <g_143>
    9723:	48 89 85 58 fc ff ff 	mov    %rax,-0x3a8(%rbp)
    972a:	48 8d 05 37 09 01 00 	lea    0x10937(%rip),%rax        # 1a068 <g_143>
    9731:	48 89 85 60 fc ff ff 	mov    %rax,-0x3a0(%rbp)
    9738:	48 8d 05 29 09 01 00 	lea    0x10929(%rip),%rax        # 1a068 <g_143>
    973f:	48 89 85 68 fc ff ff 	mov    %rax,-0x398(%rbp)
    9746:	48 8d 05 1b 09 01 00 	lea    0x1091b(%rip),%rax        # 1a068 <g_143>
    974d:	48 89 85 70 fc ff ff 	mov    %rax,-0x390(%rbp)
    9754:	48 8d 05 0d 09 01 00 	lea    0x1090d(%rip),%rax        # 1a068 <g_143>
    975b:	48 89 85 78 fc ff ff 	mov    %rax,-0x388(%rbp)
    9762:	48 8d 05 ff 08 01 00 	lea    0x108ff(%rip),%rax        # 1a068 <g_143>
    9769:	48 89 85 80 fc ff ff 	mov    %rax,-0x380(%rbp)
    9770:	c6 85 c7 fb ff ff 04 	movb   $0x4,-0x439(%rbp)
    9777:	48 8d 05 72 0f 01 00 	lea    0x10f72(%rip),%rax        # 1a6f0 <g_697>
    977e:	48 89 85 28 fc ff ff 	mov    %rax,-0x3d8(%rbp)
    9785:	48 8d 85 70 fd ff ff 	lea    -0x290(%rbp),%rax
    978c:	48 8d 15 cd 80 00 00 	lea    0x80cd(%rip),%rdx        # 11860 <g_2577+0x7f8>
    9793:	b9 51 00 00 00       	mov    $0x51,%ecx
    9798:	48 89 c7             	mov    %rax,%rdi
    979b:	48 89 d6             	mov    %rdx,%rsi
    979e:	f3 48 a5             	rep movsq %ds:(%rsi),%es:(%rdi)
    97a1:	66 c7 85 ca fb ff ff 	movw   $0xffff,-0x436(%rbp)
    97a8:	ff ff 
    97aa:	48 8d 05 cf 09 01 00 	lea    0x109cf(%rip),%rax        # 1a180 <g_1433>
    97b1:	48 89 85 30 fc ff ff 	mov    %rax,-0x3d0(%rbp)
    97b8:	48 b8 0a 98 64 47 d6 	movabs $0x122178d64764980a,%rax
    97bf:	78 21 12 
    97c2:	48 89 85 38 fc ff ff 	mov    %rax,-0x3c8(%rbp)
    97c9:	c7 85 f4 fb ff ff 00 	movl   $0x0,-0x40c(%rbp)
    97d0:	00 00 00 
    97d3:	c7 85 cc fb ff ff 00 	movl   $0x0,-0x434(%rbp)
    97da:	00 00 00 
    97dd:	eb 4d                	jmp    982c <func_37+0x3e9>
    97df:	c7 85 d0 fb ff ff 00 	movl   $0x0,-0x430(%rbp)
    97e6:	00 00 00 
    97e9:	eb 31                	jmp    981c <func_37+0x3d9>
    97eb:	8b 85 d0 fb ff ff    	mov    -0x430(%rbp),%eax
    97f1:	48 63 c8             	movslq %eax,%rcx
    97f4:	8b 85 cc fb ff ff    	mov    -0x434(%rbp),%eax
    97fa:	48 63 d0             	movslq %eax,%rdx
    97fd:	48 89 d0             	mov    %rdx,%rax
    9800:	48 c1 e0 02          	shl    $0x2,%rax
    9804:	48 01 d0             	add    %rdx,%rax
    9807:	48 01 c8             	add    %rcx,%rax
    980a:	c7 84 85 00 fd ff ff 	movl   $0xa834c529,-0x300(%rbp,%rax,4)
    9811:	29 c5 34 a8 
    9815:	83 85 d0 fb ff ff 01 	addl   $0x1,-0x430(%rbp)
    981c:	83 bd d0 fb ff ff 04 	cmpl   $0x4,-0x430(%rbp)
    9823:	7e c6                	jle    97eb <func_37+0x3a8>
    9825:	83 85 cc fb ff ff 01 	addl   $0x1,-0x434(%rbp)
    982c:	83 bd cc fb ff ff 04 	cmpl   $0x4,-0x434(%rbp)
    9833:	7e aa                	jle    97df <func_37+0x39c>
    9835:	0f b6 05 23 be 00 00 	movzbl 0xbe23(%rip),%eax        # 1565f <g_246+0x2df>
    983c:	83 e0 07             	and    $0x7,%eax
    983f:	0f b6 c0             	movzbl %al,%eax
    9842:	48 8b 75 f8          	mov    -0x8(%rbp),%rsi
    9846:	64 48 33 34 25 28 00 	xor    %fs:0x28,%rsi
    984d:	00 00 
    984f:	74 05                	je     9856 <func_37+0x413>
    9851:	e8 1a 98 ff ff       	callq  3070 <__stack_chk_fail@plt>
    9856:	c9                   	leaveq 
    9857:	c3                   	retq   

0000000000009858 <func_44>:
    9858:	f3 0f 1e fa          	endbr64 
    985c:	55                   	push   %rbp
    985d:	48 89 e5             	mov    %rsp,%rbp
    9860:	48 83 ec 30          	sub    $0x30,%rsp
    9864:	48 89 7d e8          	mov    %rdi,-0x18(%rbp)
    9868:	48 89 55 d8          	mov    %rdx,-0x28(%rbp)
    986c:	89 c8                	mov    %ecx,%eax
    986e:	89 f2                	mov    %esi,%edx
    9870:	66 89 55 e4          	mov    %dx,-0x1c(%rbp)
    9874:	66 89 45 e0          	mov    %ax,-0x20(%rbp)
    9878:	64 48 8b 04 25 28 00 	mov    %fs:0x28,%rax
    987f:	00 00 
    9881:	48 89 45 f8          	mov    %rax,-0x8(%rbp)
    9885:	31 c0                	xor    %eax,%eax
    9887:	c7 45 f0 00 00 00 00 	movl   $0x0,-0x10(%rbp)
    988e:	eb 0e                	jmp    989e <func_44+0x46>
    9890:	8b 45 f0             	mov    -0x10(%rbp),%eax
    9893:	48 98                	cltq   
    9895:	c6 44 05 f6 86       	movb   $0x86,-0xa(%rbp,%rax,1)
    989a:	83 45 f0 01          	addl   $0x1,-0x10(%rbp)
    989e:	83 7d f0 01          	cmpl   $0x1,-0x10(%rbp)
    98a2:	7e ec                	jle    9890 <func_44+0x38>
    98a4:	c6 45 f6 01          	movb   $0x1,-0xa(%rbp)
    98a8:	0f b7 45 e4          	movzwl -0x1c(%rbp),%eax
    98ac:	48 8b 4d f8          	mov    -0x8(%rbp),%rcx
    98b0:	64 48 33 0c 25 28 00 	xor    %fs:0x28,%rcx
    98b7:	00 00 
    98b9:	74 05                	je     98c0 <func_44+0x68>
    98bb:	e8 b0 97 ff ff       	callq  3070 <__stack_chk_fail@plt>
    98c0:	c9                   	leaveq 
    98c1:	c3                   	retq   

00000000000098c2 <func_50>:
    98c2:	f3 0f 1e fa          	endbr64 
    98c6:	55                   	push   %rbp
    98c7:	48 89 e5             	mov    %rsp,%rbp
    98ca:	48 81 ec f0 02 00 00 	sub    $0x2f0,%rsp
    98d1:	48 89 bd 28 fd ff ff 	mov    %rdi,-0x2d8(%rbp)
    98d8:	48 89 b5 20 fd ff ff 	mov    %rsi,-0x2e0(%rbp)
    98df:	48 89 95 18 fd ff ff 	mov    %rdx,-0x2e8(%rbp)
    98e6:	48 89 8d 10 fd ff ff 	mov    %rcx,-0x2f0(%rbp)
    98ed:	64 48 8b 04 25 28 00 	mov    %fs:0x28,%rax
    98f4:	00 00 
    98f6:	48 89 45 f8          	mov    %rax,-0x8(%rbp)
    98fa:	31 c0                	xor    %eax,%eax
    98fc:	48 8d 05 5d 07 01 00 	lea    0x1075d(%rip),%rax        # 1a060 <g_55>
    9903:	48 89 85 30 ff ff ff 	mov    %rax,-0xd0(%rbp)
    990a:	48 8d 85 b0 fe ff ff 	lea    -0x150(%rbp),%rax
    9911:	48 83 c0 20          	add    $0x20,%rax
    9915:	48 89 85 38 ff ff ff 	mov    %rax,-0xc8(%rbp)
    991c:	48 8d 85 b0 fe ff ff 	lea    -0x150(%rbp),%rax
    9923:	48 83 c0 20          	add    $0x20,%rax
    9927:	48 89 85 40 ff ff ff 	mov    %rax,-0xc0(%rbp)
    992e:	48 8d 05 2b 07 01 00 	lea    0x1072b(%rip),%rax        # 1a060 <g_55>
    9935:	48 89 85 48 ff ff ff 	mov    %rax,-0xb8(%rbp)
    993c:	48 8d 85 b0 fe ff ff 	lea    -0x150(%rbp),%rax
    9943:	48 83 c0 20          	add    $0x20,%rax
    9947:	48 89 85 50 ff ff ff 	mov    %rax,-0xb0(%rbp)
    994e:	48 8d 85 b0 fe ff ff 	lea    -0x150(%rbp),%rax
    9955:	48 83 c0 20          	add    $0x20,%rax
    9959:	48 89 85 58 ff ff ff 	mov    %rax,-0xa8(%rbp)
    9960:	48 8d 05 f9 06 01 00 	lea    0x106f9(%rip),%rax        # 1a060 <g_55>
    9967:	48 89 85 60 ff ff ff 	mov    %rax,-0xa0(%rbp)
    996e:	48 8d 85 b0 fe ff ff 	lea    -0x150(%rbp),%rax
    9975:	48 83 c0 20          	add    $0x20,%rax
    9979:	48 89 85 68 ff ff ff 	mov    %rax,-0x98(%rbp)
    9980:	48 8d 85 b0 fe ff ff 	lea    -0x150(%rbp),%rax
    9987:	48 83 c0 20          	add    $0x20,%rax
    998b:	48 89 85 70 ff ff ff 	mov    %rax,-0x90(%rbp)
    9992:	48 8d 05 c7 06 01 00 	lea    0x106c7(%rip),%rax        # 1a060 <g_55>
    9999:	48 89 85 78 ff ff ff 	mov    %rax,-0x88(%rbp)
    99a0:	48 8d 05 b9 06 01 00 	lea    0x106b9(%rip),%rax        # 1a060 <g_55>
    99a7:	48 89 85 c0 fd ff ff 	mov    %rax,-0x240(%rbp)
    99ae:	c7 85 4c fd ff ff 06 	movl   $0x6,-0x2b4(%rbp)
    99b5:	00 00 00 
    99b8:	48 8d 05 69 b6 00 00 	lea    0xb669(%rip),%rax        # 15028 <g_11>
    99bf:	48 89 85 b0 fd ff ff 	mov    %rax,-0x250(%rbp)
    99c6:	48 8d 85 b0 fd ff ff 	lea    -0x250(%rbp),%rax
    99cd:	48 89 85 c8 fd ff ff 	mov    %rax,-0x238(%rbp)
    99d4:	48 8d 85 4c fd ff ff 	lea    -0x2b4(%rbp),%rax
    99db:	48 89 85 d0 fd ff ff 	mov    %rax,-0x230(%rbp)
    99e2:	66 c7 85 42 fd ff ff 	movw   $0xabd8,-0x2be(%rbp)
    99e9:	d8 ab 
    99eb:	48 b8 f0 95 d2 bb 06 	movabs $0xf8282706bbd295f0,%rax
    99f2:	27 28 f8 
    99f5:	48 89 85 28 fe ff ff 	mov    %rax,-0x1d8(%rbp)
    99fc:	48 b8 37 af e7 a2 d4 	movabs $0xac86f5d4a2e7af37,%rax
    9a03:	f5 86 ac 
    9a06:	48 89 85 d8 fd ff ff 	mov    %rax,-0x228(%rbp)
    9a0d:	c7 85 58 fd ff ff 98 	movl   $0xd29d2598,-0x2a8(%rbp)
    9a14:	25 9d d2 
    9a17:	c7 85 5c fd ff ff 01 	movl   $0x1,-0x2a4(%rbp)
    9a1e:	00 00 00 
    9a21:	c7 85 60 fd ff ff 80 	movl   $0xcac3eb80,-0x2a0(%rbp)
    9a28:	eb c3 ca 
    9a2b:	c7 85 64 fd ff ff 00 	movl   $0x0,-0x29c(%rbp)
    9a32:	00 00 00 
    9a35:	c7 85 68 fd ff ff e4 	movl   $0x25c9c5e4,-0x298(%rbp)
    9a3c:	c5 c9 25 
    9a3f:	c7 85 6c fd ff ff 14 	movl   $0xe9cd9a14,-0x294(%rbp)
    9a46:	9a cd e9 
    9a49:	c7 85 70 fd ff ff a0 	movl   $0xea1641a0,-0x290(%rbp)
    9a50:	41 16 ea 
    9a53:	c7 85 74 fd ff ff ff 	movl   $0xffffffff,-0x28c(%rbp)
    9a5a:	ff ff ff 
    9a5d:	c7 85 78 fd ff ff 92 	movl   $0x9b9bd92,-0x288(%rbp)
    9a64:	bd b9 09 
    9a67:	c7 85 7c fd ff ff ff 	movl   $0xffffffff,-0x284(%rbp)
    9a6e:	ff ff ff 
    9a71:	c7 85 80 fd ff ff 67 	movl   $0x9f7fa067,-0x280(%rbp)
    9a78:	a0 7f 9f 
    9a7b:	c7 85 50 fd ff ff fc 	movl   $0xfffffffc,-0x2b0(%rbp)
    9a82:	ff ff ff 
    9a85:	c7 85 84 fd ff ff 00 	movl   $0x0,-0x27c(%rbp)
    9a8c:	00 00 00 
    9a8f:	c7 85 88 fd ff ff dd 	movl   $0x192d94dd,-0x278(%rbp)
    9a96:	94 2d 19 
    9a99:	c7 85 8c fd ff ff 06 	movl   $0x6,-0x274(%rbp)
    9aa0:	00 00 00 
    9aa3:	c7 85 90 fd ff ff 80 	movl   $0x7012fe80,-0x270(%rbp)
    9aaa:	fe 12 70 
    9aad:	c7 85 94 fd ff ff ff 	movl   $0x8e03dbff,-0x26c(%rbp)
    9ab4:	db 03 8e 
    9ab7:	c7 85 80 fe ff ff de 	movl   $0xa51f20de,-0x180(%rbp)
    9abe:	20 1f a5 
    9ac1:	c7 85 84 fe ff ff 00 	movl   $0x0,-0x17c(%rbp)
    9ac8:	00 00 00 
    9acb:	c7 85 88 fe ff ff f7 	movl   $0xfffffff7,-0x178(%rbp)
    9ad2:	ff ff ff 
    9ad5:	c7 85 8c fe ff ff f7 	movl   $0xfffffff7,-0x174(%rbp)
    9adc:	ff ff ff 
    9adf:	c7 85 90 fe ff ff 00 	movl   $0x0,-0x170(%rbp)
    9ae6:	00 00 00 
    9ae9:	c7 85 94 fe ff ff de 	movl   $0xa51f20de,-0x16c(%rbp)
    9af0:	20 1f a5 
    9af3:	c7 85 98 fe ff ff 00 	movl   $0x0,-0x168(%rbp)
    9afa:	00 00 00 
    9afd:	c7 85 9c fe ff ff f7 	movl   $0xfffffff7,-0x164(%rbp)
    9b04:	ff ff ff 
    9b07:	c7 85 a0 fe ff ff f7 	movl   $0xfffffff7,-0x160(%rbp)
    9b0e:	ff ff ff 
    9b11:	c7 85 a4 fe ff ff 00 	movl   $0x0,-0x15c(%rbp)
    9b18:	00 00 00 
    9b1b:	c7 85 98 fd ff ff 1a 	movl   $0xc2a44f1a,-0x268(%rbp)
    9b22:	4f a4 c2 
    9b25:	c7 85 9c fd ff ff 17 	movl   $0x3e50f217,-0x264(%rbp)
    9b2c:	f2 50 3e 
    9b2f:	48 c7 85 b8 fd ff ff 	movq   $0x0,-0x248(%rbp)
    9b36:	00 00 00 00 
    9b3a:	48 8d 85 b8 fd ff ff 	lea    -0x248(%rbp),%rax
    9b41:	48 89 85 e0 fd ff ff 	mov    %rax,-0x220(%rbp)
    9b48:	48 c7 85 e8 fd ff ff 	movq   $0x0,-0x218(%rbp)
    9b4f:	00 00 00 00 
    9b53:	66 c7 85 44 fd ff ff 	movw   $0x5,-0x2bc(%rbp)
    9b5a:	05 00 
    9b5c:	66 c7 85 46 fd ff ff 	movw   $0x4,-0x2ba(%rbp)
    9b63:	04 00 
    9b65:	48 8d 85 50 fe ff ff 	lea    -0x1b0(%rbp),%rax
    9b6c:	48 83 c0 18          	add    $0x18,%rax
    9b70:	48 89 85 f0 fd ff ff 	mov    %rax,-0x210(%rbp)
    9b77:	c7 85 a0 fd ff ff ff 	movl   $0xffffffff,-0x260(%rbp)
    9b7e:	ff ff ff 
    9b81:	66 c7 85 48 fd ff ff 	movw   $0xfffc,-0x2b8(%rbp)
    9b88:	fc ff 
    9b8a:	48 c7 45 80 00 00 00 	movq   $0x0,-0x80(%rbp)
    9b91:	00 
    9b92:	48 c7 45 88 00 00 00 	movq   $0x0,-0x78(%rbp)
    9b99:	00 
    9b9a:	48 c7 45 90 00 00 00 	movq   $0x0,-0x70(%rbp)
    9ba1:	00 
    9ba2:	48 c7 45 98 00 00 00 	movq   $0x0,-0x68(%rbp)
    9ba9:	00 
    9baa:	48 c7 45 a0 00 00 00 	movq   $0x0,-0x60(%rbp)
    9bb1:	00 
    9bb2:	48 c7 45 a8 00 00 00 	movq   $0x0,-0x58(%rbp)
    9bb9:	00 
    9bba:	48 c7 45 b0 00 00 00 	movq   $0x0,-0x50(%rbp)
    9bc1:	00 
    9bc2:	48 8d 05 c7 04 01 00 	lea    0x104c7(%rip),%rax        # 1a090 <g_856>
    9bc9:	48 89 45 b8          	mov    %rax,-0x48(%rbp)
    9bcd:	48 8d 05 bc 04 01 00 	lea    0x104bc(%rip),%rax        # 1a090 <g_856>
    9bd4:	48 89 45 c0          	mov    %rax,-0x40(%rbp)
    9bd8:	48 8d 05 b1 04 01 00 	lea    0x104b1(%rip),%rax        # 1a090 <g_856>
    9bdf:	48 89 45 c8          	mov    %rax,-0x38(%rbp)
    9be3:	48 8d 05 a6 04 01 00 	lea    0x104a6(%rip),%rax        # 1a090 <g_856>
    9bea:	48 89 45 d0          	mov    %rax,-0x30(%rbp)
    9bee:	48 8d 05 9b 04 01 00 	lea    0x1049b(%rip),%rax        # 1a090 <g_856>
    9bf5:	48 89 45 d8          	mov    %rax,-0x28(%rbp)
    9bf9:	48 8d 05 90 04 01 00 	lea    0x10490(%rip),%rax        # 1a090 <g_856>
    9c00:	48 89 45 e0          	mov    %rax,-0x20(%rbp)
    9c04:	48 8d 05 85 04 01 00 	lea    0x10485(%rip),%rax        # 1a090 <g_856>
    9c0b:	48 89 45 e8          	mov    %rax,-0x18(%rbp)
    9c0f:	48 c7 85 f8 fd ff ff 	movq   $0x1,-0x208(%rbp)
    9c16:	01 00 00 00 
    9c1a:	48 c7 85 f0 fe ff ff 	movq   $0x0,-0x110(%rbp)
    9c21:	00 00 00 00 
    9c25:	48 c7 85 f8 fe ff ff 	movq   $0x0,-0x108(%rbp)
    9c2c:	00 00 00 00 
    9c30:	48 c7 85 00 ff ff ff 	movq   $0x0,-0x100(%rbp)
    9c37:	00 00 00 00 
    9c3b:	48 c7 85 08 ff ff ff 	movq   $0x0,-0xf8(%rbp)
    9c42:	00 00 00 00 
    9c46:	48 c7 85 10 ff ff ff 	movq   $0x0,-0xf0(%rbp)
    9c4d:	00 00 00 00 
    9c51:	48 c7 85 18 ff ff ff 	movq   $0x0,-0xe8(%rbp)
    9c58:	00 00 00 00 
    9c5c:	48 c7 85 20 ff ff ff 	movq   $0x0,-0xe0(%rbp)
    9c63:	00 00 00 00 
    9c67:	48 c7 85 28 ff ff ff 	movq   $0x0,-0xd8(%rbp)
    9c6e:	00 00 00 00 
    9c72:	48 c7 85 00 fe ff ff 	movq   $0x1,-0x200(%rbp)
    9c79:	01 00 00 00 
    9c7d:	c7 85 a4 fd ff ff 09 	movl   $0x9,-0x25c(%rbp)
    9c84:	00 00 00 
    9c87:	48 c7 85 08 fe ff ff 	movq   $0x0,-0x1f8(%rbp)
    9c8e:	00 00 00 00 
    9c92:	c6 85 3e fd ff ff 44 	movb   $0x44,-0x2c2(%rbp)
    9c99:	c7 85 a8 fd ff ff 00 	movl   $0x0,-0x258(%rbp)
    9ca0:	00 00 00 
    9ca3:	c6 85 3f fd ff ff 04 	movb   $0x4,-0x2c1(%rbp)
    9caa:	66 c7 85 40 fd ff ff 	movw   $0xffff,-0x2c0(%rbp)
    9cb1:	ff ff 
    9cb3:	66 c7 85 4a fd ff ff 	movw   $0xffff,-0x2b6(%rbp)
    9cba:	ff ff 
    9cbc:	48 8d 05 27 be 00 00 	lea    0xbe27(%rip),%rax        # 15aea <g_353>
    9cc3:	48 89 85 10 fe ff ff 	mov    %rax,-0x1f0(%rbp)
    9cca:	48 8d 85 40 fd ff ff 	lea    -0x2c0(%rbp),%rax
    9cd1:	48 89 85 18 fe ff ff 	mov    %rax,-0x1e8(%rbp)
    9cd8:	c7 85 ac fd ff ff 00 	movl   $0x0,-0x254(%rbp)
    9cdf:	00 00 00 
    9ce2:	48 8d 85 50 fd ff ff 	lea    -0x2b0(%rbp),%rax
    9ce9:	48 89 85 20 fe ff ff 	mov    %rax,-0x1e0(%rbp)
    9cf0:	c7 85 54 fd ff ff 00 	movl   $0x0,-0x2ac(%rbp)
    9cf7:	00 00 00 
    9cfa:	eb 1e                	jmp    9d1a <func_50+0x458>
    9cfc:	8b 85 54 fd ff ff    	mov    -0x2ac(%rbp),%eax
    9d02:	48 98                	cltq   
    9d04:	48 8d 15 2d b3 00 00 	lea    0xb32d(%rip),%rdx        # 15038 <g_56>
    9d0b:	48 89 94 c5 b0 fe ff 	mov    %rdx,-0x150(%rbp,%rax,8)
    9d12:	ff 
    9d13:	83 85 54 fd ff ff 01 	addl   $0x1,-0x2ac(%rbp)
    9d1a:	83 bd 54 fd ff ff 06 	cmpl   $0x6,-0x2ac(%rbp)
    9d21:	7e d9                	jle    9cfc <func_50+0x43a>
    9d23:	c7 85 54 fd ff ff 00 	movl   $0x0,-0x2ac(%rbp)
    9d2a:	00 00 00 
    9d2d:	eb 1e                	jmp    9d4d <func_50+0x48b>
    9d2f:	8b 85 54 fd ff ff    	mov    -0x2ac(%rbp),%eax
    9d35:	48 98                	cltq   
    9d37:	48 8d 15 4e b4 00 00 	lea    0xb44e(%rip),%rdx        # 1518c <g_90>
    9d3e:	48 89 94 c5 50 fe ff 	mov    %rdx,-0x1b0(%rbp,%rax,8)
    9d45:	ff 
    9d46:	83 85 54 fd ff ff 01 	addl   $0x1,-0x2ac(%rbp)
    9d4d:	83 bd 54 fd ff ff 04 	cmpl   $0x4,-0x2ac(%rbp)
    9d54:	7e d9                	jle    9d2f <func_50+0x46d>
    9d56:	c7 85 54 fd ff ff 00 	movl   $0x0,-0x2ac(%rbp)
    9d5d:	00 00 00 
    9d60:	eb 1a                	jmp    9d7c <func_50+0x4ba>
    9d62:	8b 85 54 fd ff ff    	mov    -0x2ac(%rbp),%eax
    9d68:	48 98                	cltq   
    9d6a:	c7 84 85 34 fe ff ff 	movl   $0xb8e39105,-0x1cc(%rbp,%rax,4)
    9d71:	05 91 e3 b8 
    9d75:	83 85 54 fd ff ff 01 	addl   $0x1,-0x2ac(%rbp)
    9d7c:	83 bd 54 fd ff ff 02 	cmpl   $0x2,-0x2ac(%rbp)
    9d83:	7e dd                	jle    9d62 <func_50+0x4a0>
    9d85:	c7 85 54 fd ff ff 00 	movl   $0x0,-0x2ac(%rbp)
    9d8c:	00 00 00 
    9d8f:	eb 1a                	jmp    9dab <func_50+0x4e9>
    9d91:	8b 85 54 fd ff ff    	mov    -0x2ac(%rbp),%eax
    9d97:	48 98                	cltq   
    9d99:	c7 84 85 40 fe ff ff 	movl   $0xa6c88918,-0x1c0(%rbp,%rax,4)
    9da0:	18 89 c8 a6 
    9da4:	83 85 54 fd ff ff 01 	addl   $0x1,-0x2ac(%rbp)
    9dab:	83 bd 54 fd ff ff 03 	cmpl   $0x3,-0x2ac(%rbp)
    9db2:	7e dd                	jle    9d91 <func_50+0x4cf>
    9db4:	48 8b 05 d5 02 01 00 	mov    0x102d5(%rip),%rax        # 1a090 <g_856>
    9dbb:	8b 00                	mov    (%rax),%eax
    9dbd:	48 8b 4d f8          	mov    -0x8(%rbp),%rcx
    9dc1:	64 48 33 0c 25 28 00 	xor    %fs:0x28,%rcx
    9dc8:	00 00 
    9dca:	74 05                	je     9dd1 <func_50+0x50f>
    9dcc:	e8 9f 92 ff ff       	callq  3070 <__stack_chk_fail@plt>
    9dd1:	c9                   	leaveq 
    9dd2:	c3                   	retq   

0000000000009dd3 <func_57>:
    9dd3:	f3 0f 1e fa          	endbr64 
    9dd7:	55                   	push   %rbp
    9dd8:	48 89 e5             	mov    %rsp,%rbp
    9ddb:	41 55                	push   %r13
    9ddd:	41 54                	push   %r12
    9ddf:	53                   	push   %rbx
    9de0:	48 81 ec 68 07 00 00 	sub    $0x768,%rsp
    9de7:	48 89 bd 98 f8 ff ff 	mov    %rdi,-0x768(%rbp)
    9dee:	48 89 b5 90 f8 ff ff 	mov    %rsi,-0x770(%rbp)
    9df5:	48 89 95 88 f8 ff ff 	mov    %rdx,-0x778(%rbp)
    9dfc:	89 c8                	mov    %ecx,%eax
    9dfe:	44 89 c2             	mov    %r8d,%edx
    9e01:	66 89 85 84 f8 ff ff 	mov    %ax,-0x77c(%rbp)
    9e08:	89 d0                	mov    %edx,%eax
    9e0a:	88 85 80 f8 ff ff    	mov    %al,-0x780(%rbp)
    9e10:	64 48 8b 04 25 28 00 	mov    %fs:0x28,%rax
    9e17:	00 00 
    9e19:	48 89 45 d8          	mov    %rax,-0x28(%rbp)
    9e1d:	31 c0                	xor    %eax,%eax
    9e1f:	66 c7 85 a6 f8 ff ff 	movw   $0xb7a3,-0x75a(%rbp)
    9e26:	a3 b7 
    9e28:	c7 85 b4 f8 ff ff 00 	movl   $0x0,-0x74c(%rbp)
    9e2f:	00 00 00 
    9e32:	c7 85 b8 f8 ff ff 40 	movl   $0xddc5b740,-0x748(%rbp)
    9e39:	b7 c5 dd 
    9e3c:	c7 85 bc f8 ff ff 29 	movl   $0xf777ca29,-0x744(%rbp)
    9e43:	ca 77 f7 
    9e46:	48 8d 85 c0 f9 ff ff 	lea    -0x640(%rbp),%rax
    9e4d:	48 8d 15 ac 7c 00 00 	lea    0x7cac(%rip),%rdx        # 11b00 <g_2577+0xa98>
    9e54:	b9 32 00 00 00       	mov    $0x32,%ecx
    9e59:	48 89 c7             	mov    %rax,%rdi
    9e5c:	48 89 d6             	mov    %rdx,%rsi
    9e5f:	f3 48 a5             	rep movsq %ds:(%rsi),%es:(%rdi)
    9e62:	c7 85 a8 f8 ff ff 5c 	movl   $0x923e125c,-0x758(%rbp)
    9e69:	12 3e 92 
    9e6c:	c7 85 30 f9 ff ff 20 	movl   $0x24be720,-0x6d0(%rbp)
    9e73:	e7 4b 02 
    9e76:	c7 85 34 f9 ff ff 20 	movl   $0x24be720,-0x6cc(%rbp)
    9e7d:	e7 4b 02 
    9e80:	c7 85 38 f9 ff ff 20 	movl   $0x24be720,-0x6c8(%rbp)
    9e87:	e7 4b 02 
    9e8a:	c7 85 3c f9 ff ff 20 	movl   $0x24be720,-0x6c4(%rbp)
    9e91:	e7 4b 02 
    9e94:	c7 85 40 f9 ff ff 20 	movl   $0x24be720,-0x6c0(%rbp)
    9e9b:	e7 4b 02 
    9e9e:	c7 85 44 f9 ff ff 20 	movl   $0x24be720,-0x6bc(%rbp)
    9ea5:	e7 4b 02 
    9ea8:	c7 85 48 f9 ff ff 20 	movl   $0x24be720,-0x6b8(%rbp)
    9eaf:	e7 4b 02 
    9eb2:	c7 85 4c f9 ff ff 20 	movl   $0x24be720,-0x6b4(%rbp)
    9eb9:	e7 4b 02 
    9ebc:	48 8d 05 9d 01 01 00 	lea    0x1019d(%rip),%rax        # 1a060 <g_55>
    9ec3:	48 89 85 c8 f8 ff ff 	mov    %rax,-0x738(%rbp)
    9eca:	48 8d 85 c8 f8 ff ff 	lea    -0x738(%rbp),%rax
    9ed1:	48 89 85 d0 f8 ff ff 	mov    %rax,-0x730(%rbp)
    9ed8:	48 8d 85 d0 f8 ff ff 	lea    -0x730(%rbp),%rax
    9edf:	48 89 85 d8 f8 ff ff 	mov    %rax,-0x728(%rbp)
    9ee6:	66 c7 85 84 f8 ff ff 	movw   $0xfffd,-0x77c(%rbp)
    9eed:	fd ff 
    9eef:	e9 93 03 00 00       	jmpq   a287 <func_57+0x4b4>
    9ef4:	48 c7 85 e0 f8 ff ff 	movq   $0xfffffffffffffffd,-0x720(%rbp)
    9efb:	fd ff ff ff 
    9eff:	c7 85 c0 f8 ff ff a3 	movl   $0xb3b173a3,-0x740(%rbp)
    9f06:	73 b1 b3 
    9f09:	c7 85 c4 f8 ff ff 04 	movl   $0x4,-0x73c(%rbp)
    9f10:	00 00 00 
    9f13:	c7 85 ac f8 ff ff 4d 	movl   $0x2bfed14d,-0x754(%rbp)
    9f1a:	d1 fe 2b 
    9f1d:	48 8d 05 e0 bb 00 00 	lea    0xbbe0(%rip),%rax        # 15b04 <g_358+0x14>
    9f24:	48 89 85 e8 f8 ff ff 	mov    %rax,-0x718(%rbp)
    9f2b:	48 b8 9d a1 89 a1 91 	movabs $0xc0370d91a189a19d,%rax
    9f32:	0d 37 c0 
    9f35:	48 89 85 f0 f8 ff ff 	mov    %rax,-0x710(%rbp)
    9f3c:	48 8d 85 50 fb ff ff 	lea    -0x4b0(%rbp),%rax
    9f43:	48 8d 15 96 fc 00 00 	lea    0xfc96(%rip),%rdx        # 19be0 <g_2557+0x818>
    9f4a:	b9 90 00 00 00       	mov    $0x90,%ecx
    9f4f:	48 89 c7             	mov    %rax,%rdi
    9f52:	48 89 d6             	mov    %rdx,%rsi
    9f55:	f3 48 a5             	rep movsq %ds:(%rsi),%es:(%rdi)
    9f58:	48 8d 05 71 b1 00 00 	lea    0xb171(%rip),%rax        # 150d0 <g_81+0x90>
    9f5f:	48 89 85 f8 f8 ff ff 	mov    %rax,-0x708(%rbp)
    9f66:	c7 85 b0 f8 ff ff 00 	movl   $0x0,-0x750(%rbp)
    9f6d:	00 00 00 
    9f70:	eb 1e                	jmp    9f90 <func_57+0x1bd>
    9f72:	8b 85 b0 f8 ff ff    	mov    -0x750(%rbp),%eax
    9f78:	48 98                	cltq   
    9f7a:	48 8d 15 cb bb 00 00 	lea    0xbbcb(%rip),%rdx        # 15b4c <g_524>
    9f81:	48 89 94 c5 50 f9 ff 	mov    %rdx,-0x6b0(%rbp,%rax,8)
    9f88:	ff 
    9f89:	83 85 b0 f8 ff ff 01 	addl   $0x1,-0x750(%rbp)
    9f90:	83 bd b0 f8 ff ff 05 	cmpl   $0x5,-0x750(%rbp)
    9f97:	7e d9                	jle    9f72 <func_57+0x19f>
    9f99:	48 c7 05 9a bb 00 00 	movq   $0x0,0xbb9a(%rip)        # 15b3e <g_429+0x1e>
    9fa0:	00 00 00 00 
    9fa4:	e9 e3 00 00 00       	jmpq   a08c <func_57+0x2b9>
    9fa9:	48 8d 05 20 b1 00 00 	lea    0xb120(%rip),%rax        # 150d0 <g_81+0x90>
    9fb0:	48 89 85 00 f9 ff ff 	mov    %rax,-0x700(%rbp)
    9fb7:	48 8d 05 62 b1 00 00 	lea    0xb162(%rip),%rax        # 15120 <g_82>
    9fbe:	48 89 85 08 f9 ff ff 	mov    %rax,-0x6f8(%rbp)
    9fc5:	48 8d 05 ac b0 00 00 	lea    0xb0ac(%rip),%rax        # 15078 <g_81+0x38>
    9fcc:	48 89 85 10 f9 ff ff 	mov    %rax,-0x6f0(%rbp)
    9fd3:	48 c7 85 18 f9 ff ff 	movq   $0x0,-0x6e8(%rbp)
    9fda:	00 00 00 00 
    9fde:	48 8d 05 17 bb 00 00 	lea    0xbb17(%rip),%rax        # 15afc <g_358+0xc>
    9fe5:	48 89 85 20 f9 ff ff 	mov    %rax,-0x6e0(%rbp)
    9fec:	48 8d 05 dd b0 00 00 	lea    0xb0dd(%rip),%rax        # 150d0 <g_81+0x90>
    9ff3:	48 89 85 28 f9 ff ff 	mov    %rax,-0x6d8(%rbp)
    9ffa:	48 8d 05 fb ba 00 00 	lea    0xbafb(%rip),%rax        # 15afc <g_358+0xc>
    a001:	48 89 85 80 f9 ff ff 	mov    %rax,-0x680(%rbp)
    a008:	48 8d 05 ed ba 00 00 	lea    0xbaed(%rip),%rax        # 15afc <g_358+0xc>
    a00f:	48 89 85 88 f9 ff ff 	mov    %rax,-0x678(%rbp)
    a016:	48 8d 05 df ba 00 00 	lea    0xbadf(%rip),%rax        # 15afc <g_358+0xc>
    a01d:	48 89 85 90 f9 ff ff 	mov    %rax,-0x670(%rbp)
    a024:	48 8d 05 d1 ba 00 00 	lea    0xbad1(%rip),%rax        # 15afc <g_358+0xc>
    a02b:	48 89 85 98 f9 ff ff 	mov    %rax,-0x668(%rbp)
    a032:	48 8d 05 c3 ba 00 00 	lea    0xbac3(%rip),%rax        # 15afc <g_358+0xc>
    a039:	48 89 85 a0 f9 ff ff 	mov    %rax,-0x660(%rbp)
    a040:	48 8d 05 b5 ba 00 00 	lea    0xbab5(%rip),%rax        # 15afc <g_358+0xc>
    a047:	48 89 85 a8 f9 ff ff 	mov    %rax,-0x658(%rbp)
    a04e:	48 8d 05 a7 ba 00 00 	lea    0xbaa7(%rip),%rax        # 15afc <g_358+0xc>
    a055:	48 89 85 b0 f9 ff ff 	mov    %rax,-0x650(%rbp)
    a05c:	48 8d 05 99 ba 00 00 	lea    0xba99(%rip),%rax        # 15afc <g_358+0xc>
    a063:	48 89 85 b8 f9 ff ff 	mov    %rax,-0x648(%rbp)
    a06a:	83 ad ac f8 ff ff 01 	subl   $0x1,-0x754(%rbp)
    a071:	48 8b 05 c6 ba 00 00 	mov    0xbac6(%rip),%rax        # 15b3e <g_429+0x1e>
    a078:	be 03 00 00 00       	mov    $0x3,%esi
    a07d:	48 89 c7             	mov    %rax,%rdi
    a080:	e8 c6 9f ff ff       	callq  404b <safe_sub_func_uint64_t_u_u>
    a085:	48 89 05 b2 ba 00 00 	mov    %rax,0xbab2(%rip)        # 15b3e <g_429+0x1e>
    a08c:	48 8b 05 ab ba 00 00 	mov    0xbaab(%rip),%rax        # 15b3e <g_429+0x1e>
    a093:	48 83 f8 e3          	cmp    $0xffffffffffffffe3,%rax
    a097:	0f 8c 0c ff ff ff    	jl     9fa9 <func_57+0x1d6>
    a09d:	8b 1d 5a b1 00 00    	mov    0xb15a(%rip),%ebx        # 151fd <g_144+0x3d>
    a0a3:	8b 85 b8 f8 ff ff    	mov    -0x748(%rbp),%eax
    a0a9:	4c 63 e0             	movslq %eax,%r12
    a0ac:	44 0f b6 ad 80 f8 ff 	movzbl -0x780(%rbp),%r13d
    a0b3:	ff 
    a0b4:	0f b6 95 80 f8 ff ff 	movzbl -0x780(%rbp),%edx
    a0bb:	48 8b 85 e8 f8 ff ff 	mov    -0x718(%rbp),%rax
    a0c2:	8b 00                	mov    (%rax),%eax
    a0c4:	25 52 34 ee 6e       	and    $0x6eee3452,%eax
    a0c9:	89 c1                	mov    %eax,%ecx
    a0cb:	48 8b 85 e8 f8 ff ff 	mov    -0x718(%rbp),%rax
    a0d2:	89 08                	mov    %ecx,(%rax)
    a0d4:	48 8b 05 95 ac 00 00 	mov    0xac95(%rip),%rax        # 14d70 <l_517.4679+0x70>
    a0db:	48 8d 0d d6 b9 00 00 	lea    0xb9d6(%rip),%rcx        # 15ab8 <g_278>
    a0e2:	48 39 c8             	cmp    %rcx,%rax
    a0e5:	0f 95 c1             	setne  %cl
    a0e8:	48 8b 05 fe b0 00 00 	mov    0xb0fe(%rip),%rax        # 151ed <g_144+0x2d>
    a0ef:	48 83 f0 01          	xor    $0x1,%rax
    a0f3:	48 39 85 f0 f8 ff ff 	cmp    %rax,-0x710(%rbp)
    a0fa:	0f 94 c0             	sete   %al
    a0fd:	31 c8                	xor    %ecx,%eax
    a0ff:	0f b6 c0             	movzbl %al,%eax
    a102:	89 d6                	mov    %edx,%esi
    a104:	89 c7                	mov    %eax,%edi
    a106:	e8 a3 9a ff ff       	callq  3bae <safe_mod_func_uint8_t_u_u>
    a10b:	0f b6 c0             	movzbl %al,%eax
    a10e:	89 85 b4 f8 ff ff    	mov    %eax,-0x74c(%rbp)
    a114:	8b 85 b4 f8 ff ff    	mov    -0x74c(%rbp),%eax
    a11a:	0f be c0             	movsbl %al,%eax
    a11d:	be 00 00 00 00       	mov    $0x0,%esi
    a122:	89 c7                	mov    %eax,%edi
    a124:	e8 c5 91 ff ff       	callq  32ee <safe_lshift_func_int8_t_s_u>
    a129:	48 8b 95 f8 f8 ff ff 	mov    -0x708(%rbp),%rdx
    a130:	8b 12                	mov    (%rdx),%edx
    a132:	0f be c0             	movsbl %al,%eax
    a135:	21 c2                	and    %eax,%edx
    a137:	48 8b 85 f8 f8 ff ff 	mov    -0x708(%rbp),%rax
    a13e:	89 10                	mov    %edx,(%rax)
    a140:	48 8b 85 f8 f8 ff ff 	mov    -0x708(%rbp),%rax
    a147:	8b 00                	mov    (%rax),%eax
    a149:	31 85 a8 f8 ff ff    	xor    %eax,-0x758(%rbp)
    a14f:	48 8b 05 42 b0 00 00 	mov    0xb042(%rip),%rax        # 15198 <g_135>
    a156:	48 85 c0             	test   %rax,%rax
    a159:	0f 9e c0             	setle  %al
    a15c:	0f b6 c0             	movzbl %al,%eax
    a15f:	be 44 00 00 00       	mov    $0x44,%esi
    a164:	89 c7                	mov    %eax,%edi
    a166:	e8 70 9a ff ff       	callq  3bdb <safe_div_func_uint8_t_u_u>
    a16b:	0f b6 d0             	movzbl %al,%edx
    a16e:	8b 85 b8 f8 ff ff    	mov    -0x748(%rbp),%eax
    a174:	0f b7 c0             	movzwl %ax,%eax
    a177:	89 d6                	mov    %edx,%esi
    a179:	89 c7                	mov    %eax,%edi
    a17b:	e8 9f 9b ff ff       	callq  3d1f <safe_sub_func_uint16_t_u_u>
    a180:	0f b7 c0             	movzwl %ax,%eax
    a183:	be 01 00 00 00       	mov    $0x1,%esi
    a188:	89 c7                	mov    %eax,%edi
    a18a:	e8 ff 9b ff ff       	callq  3d8e <safe_div_func_uint16_t_u_u>
    a18f:	0f be c0             	movsbl %al,%eax
    a192:	be 9e ff ff ff       	mov    $0xffffff9e,%esi
    a197:	89 c7                	mov    %eax,%edi
    a199:	e8 54 90 ff ff       	callq  31f2 <safe_sub_func_int8_t_s_s>
    a19e:	8b 95 30 f9 ff ff    	mov    -0x6d0(%rbp),%edx
    a1a4:	0f be c0             	movsbl %al,%eax
    a1a7:	21 d0                	and    %edx,%eax
    a1a9:	89 85 30 f9 ff ff    	mov    %eax,-0x6d0(%rbp)
    a1af:	48 8b 85 e8 f8 ff ff 	mov    -0x718(%rbp),%rax
    a1b6:	8b 00                	mov    (%rax),%eax
    a1b8:	0f b6 c0             	movzbl %al,%eax
    a1bb:	be 05 00 00 00       	mov    $0x5,%esi
    a1c0:	89 c7                	mov    %eax,%edi
    a1c2:	e8 3e 9a ff ff       	callq  3c05 <safe_lshift_func_uint8_t_u_s>
    a1c7:	be 01 00 00 00       	mov    $0x1,%esi
    a1cc:	bf 01 00 00 00       	mov    $0x1,%edi
    a1d1:	e8 5b 90 ff ff       	callq  3231 <safe_mod_func_int8_t_s_s>
    a1d6:	0f be c0             	movsbl %al,%eax
    a1d9:	44 89 ee             	mov    %r13d,%esi
    a1dc:	89 c7                	mov    %eax,%edi
    a1de:	e8 d3 93 ff ff       	callq  35b6 <safe_add_func_int32_t_s_s>
    a1e3:	0f b7 d0             	movzwl %ax,%edx
    a1e6:	48 8b 85 d8 fa ff ff 	mov    -0x528(%rbp),%rax
    a1ed:	0f b7 c0             	movzwl %ax,%eax
    a1f0:	89 d6                	mov    %edx,%esi
    a1f2:	89 c7                	mov    %eax,%edi
    a1f4:	e8 06 9b ff ff       	callq  3cff <safe_add_func_uint16_t_u_u>
    a1f9:	0f b7 85 84 f8 ff ff 	movzwl -0x77c(%rbp),%eax
    a200:	83 e0 01             	and    $0x1,%eax
    a203:	48 89 c2             	mov    %rax,%rdx
    a206:	48 8b 05 fa af 00 00 	mov    0xaffa(%rip),%rax        # 15207 <g_144+0x47>
    a20d:	48 39 c2             	cmp    %rax,%rdx
    a210:	0f 95 c0             	setne  %al
    a213:	0f b6 c0             	movzbl %al,%eax
    a216:	4c 89 e6             	mov    %r12,%rsi
    a219:	48 89 c7             	mov    %rax,%rdi
    a21c:	e8 8e 9e ff ff       	callq  40af <safe_div_func_uint64_t_u_u>
    a221:	89 c2                	mov    %eax,%edx
    a223:	8b 05 ab b8 00 00    	mov    0xb8ab(%rip),%eax        # 15ad4 <g_333+0x14>
    a229:	21 d0                	and    %edx,%eax
    a22b:	0f be c0             	movsbl %al,%eax
    a22e:	be 03 00 00 00       	mov    $0x3,%esi
    a233:	89 c7                	mov    %eax,%edi
    a235:	e8 32 91 ff ff       	callq  336c <safe_rshift_func_int8_t_s_u>
    a23a:	0f be c0             	movsbl %al,%eax
    a23d:	89 de                	mov    %ebx,%esi
    a23f:	89 c7                	mov    %eax,%edi
    a241:	e8 86 94 ff ff       	callq  36cc <safe_mod_func_int32_t_s_s>
    a246:	39 85 b8 f8 ff ff    	cmp    %eax,-0x748(%rbp)
    a24c:	0f 9e c0             	setle  %al
    a24f:	0f b6 d0             	movzbl %al,%edx
    a252:	0f b7 85 84 f8 ff ff 	movzwl -0x77c(%rbp),%eax
    a259:	39 c2                	cmp    %eax,%edx
    a25b:	0f 94 c0             	sete   %al
    a25e:	0f b6 d0             	movzbl %al,%edx
    a261:	48 8b 05 ef b3 00 00 	mov    0xb3ef(%rip),%rax        # 15657 <g_246+0x2d7>
    a268:	48 39 c2             	cmp    %rax,%rdx
    a26b:	8b 95 30 f9 ff ff    	mov    -0x6d0(%rbp),%edx
    a271:	8b 05 dd ae 00 00    	mov    0xaedd(%rip),%eax        # 15154 <g_82+0x34>
    a277:	21 d0                	and    %edx,%eax
    a279:	89 05 d5 ae 00 00    	mov    %eax,0xaed5(%rip)        # 15154 <g_82+0x34>
    a27f:	66 83 85 84 f8 ff ff 	addw   $0x1,-0x77c(%rbp)
    a286:	01 
    a287:	66 83 bd 84 f8 ff ff 	cmpw   $0xe,-0x77c(%rbp)
    a28e:	0e 
    a28f:	0f 87 5f fc ff ff    	ja     9ef4 <func_57+0x121>
    a295:	48 c7 05 84 b8 00 00 	movq   $0x0,0xb884(%rip)        # 15b24 <g_429+0x4>
    a29c:	00 00 00 00 
    a2a0:	90                   	nop
    a2a1:	48 8b 05 7c b8 00 00 	mov    0xb87c(%rip),%rax        # 15b24 <g_429+0x4>
    a2a8:	48 83 f8 f6          	cmp    $0xfffffffffffffff6,%rax
    a2ac:	7d 09                	jge    a2b7 <func_57+0x4e4>
    a2ae:	0f bf 85 a6 f8 ff ff 	movswl -0x75a(%rbp),%eax
    a2b5:	eb 18                	jmp    a2cf <func_57+0x4fc>
    a2b7:	48 8b 95 d0 f8 ff ff 	mov    -0x730(%rbp),%rdx
    a2be:	48 8b 85 d8 f8 ff ff 	mov    -0x728(%rbp),%rax
    a2c5:	48 89 10             	mov    %rdx,(%rax)
    a2c8:	48 8b 85 d8 fa ff ff 	mov    -0x528(%rbp),%rax
    a2cf:	48 8b 5d d8          	mov    -0x28(%rbp),%rbx
    a2d3:	64 48 33 1c 25 28 00 	xor    %fs:0x28,%rbx
    a2da:	00 00 
    a2dc:	74 05                	je     a2e3 <func_57+0x510>
    a2de:	e8 8d 8d ff ff       	callq  3070 <__stack_chk_fail@plt>
    a2e3:	48 81 c4 68 07 00 00 	add    $0x768,%rsp
    a2ea:	5b                   	pop    %rbx
    a2eb:	41 5c                	pop    %r12
    a2ed:	41 5d                	pop    %r13
    a2ef:	5d                   	pop    %rbp
    a2f0:	c3                   	retq   

000000000000a2f1 <func_65>:
    a2f1:	f3 0f 1e fa          	endbr64 
    a2f5:	55                   	push   %rbp
    a2f6:	48 89 e5             	mov    %rsp,%rbp
    a2f9:	41 57                	push   %r15
    a2fb:	41 56                	push   %r14
    a2fd:	41 55                	push   %r13
    a2ff:	41 54                	push   %r12
    a301:	53                   	push   %rbx
    a302:	48 81 ec 00 10 00 00 	sub    $0x1000,%rsp
    a309:	48 83 0c 24 00       	orq    $0x0,(%rsp)
    a30e:	48 81 ec 28 03 00 00 	sub    $0x328,%rsp
    a315:	48 89 bd d8 ec ff ff 	mov    %rdi,-0x1328(%rbp)
    a31c:	48 89 b5 d0 ec ff ff 	mov    %rsi,-0x1330(%rbp)
    a323:	89 95 cc ec ff ff    	mov    %edx,-0x1334(%rbp)
    a329:	48 89 8d c0 ec ff ff 	mov    %rcx,-0x1340(%rbp)
    a330:	4c 89 85 b8 ec ff ff 	mov    %r8,-0x1348(%rbp)
    a337:	64 48 8b 04 25 28 00 	mov    %fs:0x28,%rax
    a33e:	00 00 
    a340:	48 89 45 c8          	mov    %rax,-0x38(%rbp)
    a344:	31 c0                	xor    %eax,%eax
    a346:	c6 85 e0 ec ff ff 06 	movb   $0x6,-0x1320(%rbp)
    a34d:	48 8d 05 d4 ac 00 00 	lea    0xacd4(%rip),%rax        # 15028 <g_11>
    a354:	48 89 85 68 ed ff ff 	mov    %rax,-0x1298(%rbp)
    a35b:	48 8d 85 68 ed ff ff 	lea    -0x1298(%rbp),%rax
    a362:	48 89 85 90 ed ff ff 	mov    %rax,-0x1270(%rbp)
    a369:	48 8d 05 54 ad 00 00 	lea    0xad54(%rip),%rax        # 150c4 <g_81+0x84>
    a370:	48 89 85 70 ed ff ff 	mov    %rax,-0x1290(%rbp)
    a377:	48 8d 05 3a 03 01 00 	lea    0x1033a(%rip),%rax        # 1a6b8 <g_164>
    a37e:	48 89 85 70 f0 ff ff 	mov    %rax,-0xf90(%rbp)
    a385:	48 8d 05 2c 03 01 00 	lea    0x1032c(%rip),%rax        # 1a6b8 <g_164>
    a38c:	48 89 85 78 f0 ff ff 	mov    %rax,-0xf88(%rbp)
    a393:	48 8d 05 1e 03 01 00 	lea    0x1031e(%rip),%rax        # 1a6b8 <g_164>
    a39a:	48 89 85 80 f0 ff ff 	mov    %rax,-0xf80(%rbp)
    a3a1:	48 8d 05 10 03 01 00 	lea    0x10310(%rip),%rax        # 1a6b8 <g_164>
    a3a8:	48 89 85 88 f0 ff ff 	mov    %rax,-0xf78(%rbp)
    a3af:	48 8d 05 02 03 01 00 	lea    0x10302(%rip),%rax        # 1a6b8 <g_164>
    a3b6:	48 89 85 90 f0 ff ff 	mov    %rax,-0xf70(%rbp)
    a3bd:	48 8d 05 f4 02 01 00 	lea    0x102f4(%rip),%rax        # 1a6b8 <g_164>
    a3c4:	48 89 85 98 f0 ff ff 	mov    %rax,-0xf68(%rbp)
    a3cb:	48 8d 05 e6 02 01 00 	lea    0x102e6(%rip),%rax        # 1a6b8 <g_164>
    a3d2:	48 89 85 a0 f0 ff ff 	mov    %rax,-0xf60(%rbp)
    a3d9:	48 8d 05 d8 02 01 00 	lea    0x102d8(%rip),%rax        # 1a6b8 <g_164>
    a3e0:	48 89 85 a8 f0 ff ff 	mov    %rax,-0xf58(%rbp)
    a3e7:	48 8d 05 ca 02 01 00 	lea    0x102ca(%rip),%rax        # 1a6b8 <g_164>
    a3ee:	48 89 85 b0 f0 ff ff 	mov    %rax,-0xf50(%rbp)
    a3f5:	48 8d 05 bc 02 01 00 	lea    0x102bc(%rip),%rax        # 1a6b8 <g_164>
    a3fc:	48 89 85 b8 f0 ff ff 	mov    %rax,-0xf48(%rbp)
    a403:	48 8d 05 ae 02 01 00 	lea    0x102ae(%rip),%rax        # 1a6b8 <g_164>
    a40a:	48 89 85 c0 f0 ff ff 	mov    %rax,-0xf40(%rbp)
    a411:	48 8d 05 a0 02 01 00 	lea    0x102a0(%rip),%rax        # 1a6b8 <g_164>
    a418:	48 89 85 c8 f0 ff ff 	mov    %rax,-0xf38(%rbp)
    a41f:	48 8d 05 92 02 01 00 	lea    0x10292(%rip),%rax        # 1a6b8 <g_164>
    a426:	48 89 85 d0 f0 ff ff 	mov    %rax,-0xf30(%rbp)
    a42d:	48 8d 05 84 02 01 00 	lea    0x10284(%rip),%rax        # 1a6b8 <g_164>
    a434:	48 89 85 d8 f0 ff ff 	mov    %rax,-0xf28(%rbp)
    a43b:	48 8d 05 76 02 01 00 	lea    0x10276(%rip),%rax        # 1a6b8 <g_164>
    a442:	48 89 85 e0 f0 ff ff 	mov    %rax,-0xf20(%rbp)
    a449:	48 8d 05 68 02 01 00 	lea    0x10268(%rip),%rax        # 1a6b8 <g_164>
    a450:	48 89 85 e8 f0 ff ff 	mov    %rax,-0xf18(%rbp)
    a457:	48 8d 05 5a 02 01 00 	lea    0x1025a(%rip),%rax        # 1a6b8 <g_164>
    a45e:	48 89 85 f0 f0 ff ff 	mov    %rax,-0xf10(%rbp)
    a465:	48 8d 05 4c 02 01 00 	lea    0x1024c(%rip),%rax        # 1a6b8 <g_164>
    a46c:	48 89 85 f8 f0 ff ff 	mov    %rax,-0xf08(%rbp)
    a473:	48 c7 85 78 ed ff ff 	movq   $0xfffffffffffffff7,-0x1288(%rbp)
    a47a:	f7 ff ff ff 
    a47e:	48 8d 05 eb fb 00 00 	lea    0xfbeb(%rip),%rax        # 1a070 <g_213>
    a485:	48 89 85 98 ed ff ff 	mov    %rax,-0x1268(%rbp)
    a48c:	c7 85 ec ec ff ff 01 	movl   $0x1,-0x1314(%rbp)
    a493:	00 00 00 
    a496:	48 8d 95 80 f3 ff ff 	lea    -0xc80(%rbp),%rdx
    a49d:	b8 00 00 00 00       	mov    $0x0,%eax
    a4a2:	b9 24 00 00 00       	mov    $0x24,%ecx
    a4a7:	48 89 d7             	mov    %rdx,%rdi
    a4aa:	f3 48 ab             	rep stos %rax,%es:(%rdi)
    a4ad:	48 8d 85 80 f3 ff ff 	lea    -0xc80(%rbp),%rax
    a4b4:	48 83 c0 48          	add    $0x48,%rax
    a4b8:	48 89 85 a0 ed ff ff 	mov    %rax,-0x1260(%rbp)
    a4bf:	c7 85 f0 ec ff ff 08 	movl   $0x8,-0x1310(%rbp)
    a4c6:	00 00 00 
    a4c9:	48 b8 cf 30 f5 00 29 	movabs $0x712d52900f530cf,%rax
    a4d0:	d5 12 07 
    a4d3:	48 89 85 a8 ed ff ff 	mov    %rax,-0x1258(%rbp)
    a4da:	c7 85 00 ed ff ff f8 	movl   $0xfffffff8,-0x1300(%rbp)
    a4e1:	ff ff ff 
    a4e4:	c6 85 e1 ec ff ff 8d 	movb   $0x8d,-0x131f(%rbp)
    a4eb:	c7 85 04 ed ff ff 00 	movl   $0x0,-0x12fc(%rbp)
    a4f2:	00 00 00 
    a4f5:	eb 1a                	jmp    a511 <func_65+0x220>
    a4f7:	8b 85 04 ed ff ff    	mov    -0x12fc(%rbp),%eax
    a4fd:	48 98                	cltq   
    a4ff:	c7 84 85 44 ef ff ff 	movl   $0x26a33a6a,-0x10bc(%rbp,%rax,4)
    a506:	6a 3a a3 26 
    a50a:	83 85 04 ed ff ff 01 	addl   $0x1,-0x12fc(%rbp)
    a511:	83 bd 04 ed ff ff 02 	cmpl   $0x2,-0x12fc(%rbp)
    a518:	7e dd                	jle    a4f7 <func_65+0x206>
    a51a:	c7 85 04 ed ff ff 00 	movl   $0x0,-0x12fc(%rbp)
    a521:	00 00 00 
    a524:	eb 1b                	jmp    a541 <func_65+0x250>
    a526:	8b 85 04 ed ff ff    	mov    -0x12fc(%rbp),%eax
    a52c:	48 98                	cltq   
    a52e:	48 c7 84 c5 38 ef ff 	movq   $0xfffffffffffffffb,-0x10c8(%rbp,%rax,8)
    a535:	ff fb ff ff ff 
    a53a:	83 85 04 ed ff ff 01 	addl   $0x1,-0x12fc(%rbp)
    a541:	83 bd 04 ed ff ff 00 	cmpl   $0x0,-0x12fc(%rbp)
    a548:	7e dc                	jle    a526 <func_65+0x235>
    a54a:	c7 85 cc ec ff ff 00 	movl   $0x0,-0x1334(%rbp)
    a551:	00 00 00 
    a554:	e9 5e 34 00 00       	jmpq   d9b7 <func_65+0x36c6>
    a559:	48 8d 05 c8 aa 00 00 	lea    0xaac8(%rip),%rax        # 15028 <g_11>
    a560:	48 89 85 b0 ed ff ff 	mov    %rax,-0x1250(%rbp)
    a567:	c7 85 f4 ec ff ff f3 	movl   $0x2e0efcf3,-0x130c(%rbp)
    a56e:	fc 0e 2e 
    a571:	c7 85 f8 ec ff ff fb 	movl   $0xfffffffb,-0x1308(%rbp)
    a578:	ff ff ff 
    a57b:	c7 85 70 ef ff ff 1e 	movl   $0x2582781e,-0x1090(%rbp)
    a582:	78 82 25 
    a585:	c7 85 74 ef ff ff 31 	movl   $0xe876f31,-0x108c(%rbp)
    a58c:	6f 87 0e 
    a58f:	c7 85 78 ef ff ff 31 	movl   $0xe876f31,-0x1088(%rbp)
    a596:	6f 87 0e 
    a599:	c7 85 7c ef ff ff 1e 	movl   $0x2582781e,-0x1084(%rbp)
    a5a0:	78 82 25 
    a5a3:	c7 85 80 ef ff ff 31 	movl   $0xe876f31,-0x1080(%rbp)
    a5aa:	6f 87 0e 
    a5ad:	c7 85 84 ef ff ff 31 	movl   $0xe876f31,-0x107c(%rbp)
    a5b4:	6f 87 0e 
    a5b7:	c7 85 88 ef ff ff 1e 	movl   $0x2582781e,-0x1078(%rbp)
    a5be:	78 82 25 
    a5c1:	48 8d 85 e0 f5 ff ff 	lea    -0xa20(%rbp),%rax
    a5c8:	48 8d 15 d1 76 00 00 	lea    0x76d1(%rip),%rdx        # 11ca0 <g_2577+0xc38>
    a5cf:	b9 3f 00 00 00       	mov    $0x3f,%ecx
    a5d4:	48 89 c7             	mov    %rax,%rdi
    a5d7:	48 89 d6             	mov    %rdx,%rsi
    a5da:	f3 48 a5             	rep movsq %ds:(%rsi),%es:(%rdi)
    a5dd:	48 8d 05 a8 ab 00 00 	lea    0xaba8(%rip),%rax        # 1518c <g_90>
    a5e4:	48 89 85 00 f1 ff ff 	mov    %rax,-0xf00(%rbp)
    a5eb:	48 c7 85 08 f1 ff ff 	movq   $0x0,-0xef8(%rbp)
    a5f2:	00 00 00 00 
    a5f6:	48 8d 05 8f ab 00 00 	lea    0xab8f(%rip),%rax        # 1518c <g_90>
    a5fd:	48 89 85 10 f1 ff ff 	mov    %rax,-0xef0(%rbp)
    a604:	48 8d 05 81 ab 00 00 	lea    0xab81(%rip),%rax        # 1518c <g_90>
    a60b:	48 89 85 18 f1 ff ff 	mov    %rax,-0xee8(%rbp)
    a612:	48 c7 85 20 f1 ff ff 	movq   $0x0,-0xee0(%rbp)
    a619:	00 00 00 00 
    a61d:	48 8d 05 68 ab 00 00 	lea    0xab68(%rip),%rax        # 1518c <g_90>
    a624:	48 89 85 28 f1 ff ff 	mov    %rax,-0xed8(%rbp)
    a62b:	48 8d 05 5a ab 00 00 	lea    0xab5a(%rip),%rax        # 1518c <g_90>
    a632:	48 89 85 30 f1 ff ff 	mov    %rax,-0xed0(%rbp)
    a639:	48 8d 05 4c ab 00 00 	lea    0xab4c(%rip),%rax        # 1518c <g_90>
    a640:	48 89 85 38 f1 ff ff 	mov    %rax,-0xec8(%rbp)
    a647:	48 8d 05 3e ab 00 00 	lea    0xab3e(%rip),%rax        # 1518c <g_90>
    a64e:	48 89 85 40 f1 ff ff 	mov    %rax,-0xec0(%rbp)
    a655:	48 8d 05 30 ab 00 00 	lea    0xab30(%rip),%rax        # 1518c <g_90>
    a65c:	48 89 85 48 f1 ff ff 	mov    %rax,-0xeb8(%rbp)
    a663:	48 c7 85 50 f1 ff ff 	movq   $0x0,-0xeb0(%rbp)
    a66a:	00 00 00 00 
    a66e:	48 8d 05 17 ab 00 00 	lea    0xab17(%rip),%rax        # 1518c <g_90>
    a675:	48 89 85 58 f1 ff ff 	mov    %rax,-0xea8(%rbp)
    a67c:	48 8d 05 09 ab 00 00 	lea    0xab09(%rip),%rax        # 1518c <g_90>
    a683:	48 89 85 60 f1 ff ff 	mov    %rax,-0xea0(%rbp)
    a68a:	48 c7 85 68 f1 ff ff 	movq   $0x0,-0xe98(%rbp)
    a691:	00 00 00 00 
    a695:	48 8d 05 f0 aa 00 00 	lea    0xaaf0(%rip),%rax        # 1518c <g_90>
    a69c:	48 89 85 70 f1 ff ff 	mov    %rax,-0xe90(%rbp)
    a6a3:	48 8d 05 e2 aa 00 00 	lea    0xaae2(%rip),%rax        # 1518c <g_90>
    a6aa:	48 89 85 78 f1 ff ff 	mov    %rax,-0xe88(%rbp)
    a6b1:	48 8d 05 d4 aa 00 00 	lea    0xaad4(%rip),%rax        # 1518c <g_90>
    a6b8:	48 89 85 80 f1 ff ff 	mov    %rax,-0xe80(%rbp)
    a6bf:	48 8d 05 c6 aa 00 00 	lea    0xaac6(%rip),%rax        # 1518c <g_90>
    a6c6:	48 89 85 88 f1 ff ff 	mov    %rax,-0xe78(%rbp)
    a6cd:	48 8d 05 b8 aa 00 00 	lea    0xaab8(%rip),%rax        # 1518c <g_90>
    a6d4:	48 89 85 90 f1 ff ff 	mov    %rax,-0xe70(%rbp)
    a6db:	48 c7 85 98 f1 ff ff 	movq   $0x0,-0xe68(%rbp)
    a6e2:	00 00 00 00 
    a6e6:	48 8d 05 9f aa 00 00 	lea    0xaa9f(%rip),%rax        # 1518c <g_90>
    a6ed:	48 89 85 a0 f1 ff ff 	mov    %rax,-0xe60(%rbp)
    a6f4:	48 8d 05 91 aa 00 00 	lea    0xaa91(%rip),%rax        # 1518c <g_90>
    a6fb:	48 89 85 a8 f1 ff ff 	mov    %rax,-0xe58(%rbp)
    a702:	48 c7 85 b0 f1 ff ff 	movq   $0x0,-0xe50(%rbp)
    a709:	00 00 00 00 
    a70d:	48 8d 05 78 aa 00 00 	lea    0xaa78(%rip),%rax        # 1518c <g_90>
    a714:	48 89 85 b8 f1 ff ff 	mov    %rax,-0xe48(%rbp)
    a71b:	48 c7 85 b8 ed ff ff 	movq   $0x0,-0x1248(%rbp)
    a722:	00 00 00 00 
    a726:	48 8d 05 3b f9 00 00 	lea    0xf93b(%rip),%rax        # 1a068 <g_143>
    a72d:	48 89 85 c0 ed ff ff 	mov    %rax,-0x1240(%rbp)
    a734:	66 c7 85 e4 ec ff ff 	movw   $0x8,-0x131c(%rbp)
    a73b:	08 00 
    a73d:	c7 85 30 ed ff ff 05 	movl   $0x85410a05,-0x12d0(%rbp)
    a744:	0a 41 85 
    a747:	48 8d 05 6a b3 00 00 	lea    0xb36a(%rip),%rax        # 15ab8 <g_278>
    a74e:	48 89 85 c8 ed ff ff 	mov    %rax,-0x1238(%rbp)
    a755:	48 c7 85 d0 ed ff ff 	movq   $0x0,-0x1230(%rbp)
    a75c:	00 00 00 00 
    a760:	48 c7 85 d8 ed ff ff 	movq   $0x0,-0x1228(%rbp)
    a767:	00 00 00 00 
    a76b:	48 8d 05 26 aa 00 00 	lea    0xaa26(%rip),%rax        # 15198 <g_135>
    a772:	48 89 85 e0 ed ff ff 	mov    %rax,-0x1220(%rbp)
    a779:	66 c7 85 e6 ec ff ff 	movw   $0x1e89,-0x131a(%rbp)
    a780:	89 1e 
    a782:	48 8d 85 f4 ec ff ff 	lea    -0x130c(%rbp),%rax
    a789:	48 89 85 e8 ed ff ff 	mov    %rax,-0x1218(%rbp)
    a790:	c7 05 36 a9 00 00 00 	movl   $0x0,0xa936(%rip)        # 150d0 <g_81+0x90>
    a797:	00 00 00 
    a79a:	e9 1a 30 00 00       	jmpq   d7b9 <func_65+0x34c8>
    a79f:	48 b8 15 e4 75 7a 0e 	movabs $0x7e5c3e0e7a75e415,%rax
    a7a6:	3e 5c 7e 
    a7a9:	48 89 85 90 f2 ff ff 	mov    %rax,-0xd70(%rbp)
    a7b0:	48 b9 cc f9 e0 2f 6e 	movabs $0x11e7dc6e2fe0f9cc,%rcx
    a7b7:	dc e7 11 
    a7ba:	48 89 8d 98 f2 ff ff 	mov    %rcx,-0xd68(%rbp)
    a7c1:	48 89 85 a0 f2 ff ff 	mov    %rax,-0xd60(%rbp)
    a7c8:	48 bb 51 1e 7e 5f 94 	movabs $0x47f693945f7e1e51,%rbx
    a7cf:	93 f6 47 
    a7d2:	48 89 9d a8 f2 ff ff 	mov    %rbx,-0xd58(%rbp)
    a7d9:	48 be 6f 2b a9 11 d2 	movabs $0xb2ec16d211a92b6f,%rsi
    a7e0:	16 ec b2 
    a7e3:	48 89 b5 b0 f2 ff ff 	mov    %rsi,-0xd50(%rbp)
    a7ea:	48 89 85 b8 f2 ff ff 	mov    %rax,-0xd48(%rbp)
    a7f1:	48 bf 70 84 70 7c 80 	movabs $0x48d5c8807c708470,%rdi
    a7f8:	c8 d5 48 
    a7fb:	48 89 bd c0 f2 ff ff 	mov    %rdi,-0xd40(%rbp)
    a802:	49 b9 48 e6 2d 90 b1 	movabs $0x37c488b1902de648,%r9
    a809:	88 c4 37 
    a80c:	4c 89 8d c8 f2 ff ff 	mov    %r9,-0xd38(%rbp)
    a813:	48 89 9d d0 f2 ff ff 	mov    %rbx,-0xd30(%rbp)
    a81a:	48 ba 8e 31 5d 19 5e 	movabs $0xa982e55e195d318e,%rdx
    a821:	e5 82 a9 
    a824:	48 89 95 d8 f2 ff ff 	mov    %rdx,-0xd28(%rbp)
    a82b:	48 89 b5 e0 f2 ff ff 	mov    %rsi,-0xd20(%rbp)
    a832:	48 89 bd e8 f2 ff ff 	mov    %rdi,-0xd18(%rbp)
    a839:	48 89 9d f0 f2 ff ff 	mov    %rbx,-0xd10(%rbp)
    a840:	48 89 8d f8 f2 ff ff 	mov    %rcx,-0xd08(%rbp)
    a847:	48 89 95 00 f3 ff ff 	mov    %rdx,-0xd00(%rbp)
    a84e:	48 89 95 08 f3 ff ff 	mov    %rdx,-0xcf8(%rbp)
    a855:	48 89 8d 10 f3 ff ff 	mov    %rcx,-0xcf0(%rbp)
    a85c:	48 89 9d 18 f3 ff ff 	mov    %rbx,-0xce8(%rbp)
    a863:	48 89 bd 20 f3 ff ff 	mov    %rdi,-0xce0(%rbp)
    a86a:	48 89 b5 28 f3 ff ff 	mov    %rsi,-0xcd8(%rbp)
    a871:	48 89 95 30 f3 ff ff 	mov    %rdx,-0xcd0(%rbp)
    a878:	48 89 9d 38 f3 ff ff 	mov    %rbx,-0xcc8(%rbp)
    a87f:	4c 89 8d 40 f3 ff ff 	mov    %r9,-0xcc0(%rbp)
    a886:	48 89 bd 48 f3 ff ff 	mov    %rdi,-0xcb8(%rbp)
    a88d:	48 89 85 50 f3 ff ff 	mov    %rax,-0xcb0(%rbp)
    a894:	48 89 b5 58 f3 ff ff 	mov    %rsi,-0xca8(%rbp)
    a89b:	48 89 9d 60 f3 ff ff 	mov    %rbx,-0xca0(%rbp)
    a8a2:	48 89 85 68 f3 ff ff 	mov    %rax,-0xc98(%rbp)
    a8a9:	48 89 8d 70 f3 ff ff 	mov    %rcx,-0xc90(%rbp)
    a8b0:	48 89 85 78 f3 ff ff 	mov    %rax,-0xc88(%rbp)
    a8b7:	c7 85 fc ec ff ff f9 	movl   $0xfffffff9,-0x1304(%rbp)
    a8be:	ff ff ff 
    a8c1:	48 8d 05 c4 a8 00 00 	lea    0xa8c4(%rip),%rax        # 1518c <g_90>
    a8c8:	48 89 85 20 f0 ff ff 	mov    %rax,-0xfe0(%rbp)
    a8cf:	48 8d 05 b6 a8 00 00 	lea    0xa8b6(%rip),%rax        # 1518c <g_90>
    a8d6:	48 89 85 28 f0 ff ff 	mov    %rax,-0xfd8(%rbp)
    a8dd:	48 8d 05 a8 a8 00 00 	lea    0xa8a8(%rip),%rax        # 1518c <g_90>
    a8e4:	48 89 85 30 f0 ff ff 	mov    %rax,-0xfd0(%rbp)
    a8eb:	48 8d 05 9a a8 00 00 	lea    0xa89a(%rip),%rax        # 1518c <g_90>
    a8f2:	48 89 85 38 f0 ff ff 	mov    %rax,-0xfc8(%rbp)
    a8f9:	48 8d 05 8c a8 00 00 	lea    0xa88c(%rip),%rax        # 1518c <g_90>
    a900:	48 89 85 40 f0 ff ff 	mov    %rax,-0xfc0(%rbp)
    a907:	48 8d 05 7e a8 00 00 	lea    0xa87e(%rip),%rax        # 1518c <g_90>
    a90e:	48 89 85 48 f0 ff ff 	mov    %rax,-0xfb8(%rbp)
    a915:	48 8d 05 70 a8 00 00 	lea    0xa870(%rip),%rax        # 1518c <g_90>
    a91c:	48 89 85 50 f0 ff ff 	mov    %rax,-0xfb0(%rbp)
    a923:	48 8d 05 62 a8 00 00 	lea    0xa862(%rip),%rax        # 1518c <g_90>
    a92a:	48 89 85 58 f0 ff ff 	mov    %rax,-0xfa8(%rbp)
    a931:	48 8d 05 54 a8 00 00 	lea    0xa854(%rip),%rax        # 1518c <g_90>
    a938:	48 89 85 60 f0 ff ff 	mov    %rax,-0xfa0(%rbp)
    a93f:	48 8d 05 46 a8 00 00 	lea    0xa846(%rip),%rax        # 1518c <g_90>
    a946:	48 89 85 68 f0 ff ff 	mov    %rax,-0xf98(%rbp)
    a94d:	c7 85 34 ed ff ff 06 	movl   $0x6,-0x12cc(%rbp)
    a954:	00 00 00 
    a957:	48 8d 05 ca a6 00 00 	lea    0xa6ca(%rip),%rax        # 15028 <g_11>
    a95e:	48 89 85 a0 f4 ff ff 	mov    %rax,-0xb60(%rbp)
    a965:	48 8d 05 bc a6 00 00 	lea    0xa6bc(%rip),%rax        # 15028 <g_11>
    a96c:	48 89 85 a8 f4 ff ff 	mov    %rax,-0xb58(%rbp)
    a973:	48 8d 05 ae a6 00 00 	lea    0xa6ae(%rip),%rax        # 15028 <g_11>
    a97a:	48 89 85 b0 f4 ff ff 	mov    %rax,-0xb50(%rbp)
    a981:	48 8d 85 78 ed ff ff 	lea    -0x1288(%rbp),%rax
    a988:	48 89 85 b8 f4 ff ff 	mov    %rax,-0xb48(%rbp)
    a98f:	48 8d 05 92 a6 00 00 	lea    0xa692(%rip),%rax        # 15028 <g_11>
    a996:	48 89 85 c0 f4 ff ff 	mov    %rax,-0xb40(%rbp)
    a99d:	48 8d 05 84 a6 00 00 	lea    0xa684(%rip),%rax        # 15028 <g_11>
    a9a4:	48 89 85 c8 f4 ff ff 	mov    %rax,-0xb38(%rbp)
    a9ab:	48 8d 05 76 a6 00 00 	lea    0xa676(%rip),%rax        # 15028 <g_11>
    a9b2:	48 89 85 d0 f4 ff ff 	mov    %rax,-0xb30(%rbp)
    a9b9:	48 8d 05 e0 a7 00 00 	lea    0xa7e0(%rip),%rax        # 151a0 <g_140>
    a9c0:	48 89 85 d8 f4 ff ff 	mov    %rax,-0xb28(%rbp)
    a9c7:	48 8d 05 5a a6 00 00 	lea    0xa65a(%rip),%rax        # 15028 <g_11>
    a9ce:	48 89 85 e0 f4 ff ff 	mov    %rax,-0xb20(%rbp)
    a9d5:	48 8d 05 4c a6 00 00 	lea    0xa64c(%rip),%rax        # 15028 <g_11>
    a9dc:	48 89 85 e8 f4 ff ff 	mov    %rax,-0xb18(%rbp)
    a9e3:	48 c7 85 f0 f4 ff ff 	movq   $0x0,-0xb10(%rbp)
    a9ea:	00 00 00 00 
    a9ee:	48 8d 05 ab a7 00 00 	lea    0xa7ab(%rip),%rax        # 151a0 <g_140>
    a9f5:	48 89 85 f8 f4 ff ff 	mov    %rax,-0xb08(%rbp)
    a9fc:	48 c7 85 00 f5 ff ff 	movq   $0x0,-0xb00(%rbp)
    aa03:	00 00 00 00 
    aa07:	48 8d 85 78 ed ff ff 	lea    -0x1288(%rbp),%rax
    aa0e:	48 89 85 08 f5 ff ff 	mov    %rax,-0xaf8(%rbp)
    aa15:	48 8d 85 78 ed ff ff 	lea    -0x1288(%rbp),%rax
    aa1c:	48 89 85 10 f5 ff ff 	mov    %rax,-0xaf0(%rbp)
    aa23:	48 c7 85 18 f5 ff ff 	movq   $0x0,-0xae8(%rbp)
    aa2a:	00 00 00 00 
    aa2e:	48 8d 05 6b a7 00 00 	lea    0xa76b(%rip),%rax        # 151a0 <g_140>
    aa35:	48 89 85 20 f5 ff ff 	mov    %rax,-0xae0(%rbp)
    aa3c:	48 8d 05 e5 a5 00 00 	lea    0xa5e5(%rip),%rax        # 15028 <g_11>
    aa43:	48 89 85 28 f5 ff ff 	mov    %rax,-0xad8(%rbp)
    aa4a:	48 8d 05 d7 a5 00 00 	lea    0xa5d7(%rip),%rax        # 15028 <g_11>
    aa51:	48 89 85 30 f5 ff ff 	mov    %rax,-0xad0(%rbp)
    aa58:	48 8d 05 41 a7 00 00 	lea    0xa741(%rip),%rax        # 151a0 <g_140>
    aa5f:	48 89 85 38 f5 ff ff 	mov    %rax,-0xac8(%rbp)
    aa66:	48 c7 85 40 f5 ff ff 	movq   $0x0,-0xac0(%rbp)
    aa6d:	00 00 00 00 
    aa71:	48 8d 05 b0 a5 00 00 	lea    0xa5b0(%rip),%rax        # 15028 <g_11>
    aa78:	48 89 85 48 f5 ff ff 	mov    %rax,-0xab8(%rbp)
    aa7f:	48 8d 05 1a a7 00 00 	lea    0xa71a(%rip),%rax        # 151a0 <g_140>
    aa86:	48 89 85 50 f5 ff ff 	mov    %rax,-0xab0(%rbp)
    aa8d:	48 8d 85 78 ed ff ff 	lea    -0x1288(%rbp),%rax
    aa94:	48 89 85 58 f5 ff ff 	mov    %rax,-0xaa8(%rbp)
    aa9b:	48 8d 05 86 a5 00 00 	lea    0xa586(%rip),%rax        # 15028 <g_11>
    aaa2:	48 89 85 60 f5 ff ff 	mov    %rax,-0xaa0(%rbp)
    aaa9:	48 8d 05 f0 a6 00 00 	lea    0xa6f0(%rip),%rax        # 151a0 <g_140>
    aab0:	48 89 85 68 f5 ff ff 	mov    %rax,-0xa98(%rbp)
    aab7:	48 8d 05 6a a5 00 00 	lea    0xa56a(%rip),%rax        # 15028 <g_11>
    aabe:	48 89 85 70 f5 ff ff 	mov    %rax,-0xa90(%rbp)
    aac5:	48 c7 85 78 f5 ff ff 	movq   $0x0,-0xa88(%rbp)
    aacc:	00 00 00 00 
    aad0:	48 8d 05 51 a5 00 00 	lea    0xa551(%rip),%rax        # 15028 <g_11>
    aad7:	48 89 85 80 f5 ff ff 	mov    %rax,-0xa80(%rbp)
    aade:	48 c7 85 88 f5 ff ff 	movq   $0x0,-0xa78(%rbp)
    aae5:	00 00 00 00 
    aae9:	48 8d 05 38 a5 00 00 	lea    0xa538(%rip),%rax        # 15028 <g_11>
    aaf0:	48 89 85 90 f5 ff ff 	mov    %rax,-0xa70(%rbp)
    aaf7:	48 8d 05 a2 a6 00 00 	lea    0xa6a2(%rip),%rax        # 151a0 <g_140>
    aafe:	48 89 85 98 f5 ff ff 	mov    %rax,-0xa68(%rbp)
    ab05:	48 8d 05 1c a5 00 00 	lea    0xa51c(%rip),%rax        # 15028 <g_11>
    ab0c:	48 89 85 a0 f5 ff ff 	mov    %rax,-0xa60(%rbp)
    ab13:	48 8d 05 86 a6 00 00 	lea    0xa686(%rip),%rax        # 151a0 <g_140>
    ab1a:	48 89 85 a8 f5 ff ff 	mov    %rax,-0xa58(%rbp)
    ab21:	48 8d 85 78 ed ff ff 	lea    -0x1288(%rbp),%rax
    ab28:	48 89 85 b0 f5 ff ff 	mov    %rax,-0xa50(%rbp)
    ab2f:	48 8d 05 f2 a4 00 00 	lea    0xa4f2(%rip),%rax        # 15028 <g_11>
    ab36:	48 89 85 b8 f5 ff ff 	mov    %rax,-0xa48(%rbp)
    ab3d:	48 c7 85 c0 f5 ff ff 	movq   $0x0,-0xa40(%rbp)
    ab44:	00 00 00 00 
    ab48:	48 8d 05 d9 a4 00 00 	lea    0xa4d9(%rip),%rax        # 15028 <g_11>
    ab4f:	48 89 85 c8 f5 ff ff 	mov    %rax,-0xa38(%rbp)
    ab56:	48 8d 05 43 a6 00 00 	lea    0xa643(%rip),%rax        # 151a0 <g_140>
    ab5d:	48 89 85 d0 f5 ff ff 	mov    %rax,-0xa30(%rbp)
    ab64:	48 8d 05 35 a6 00 00 	lea    0xa635(%rip),%rax        # 151a0 <g_140>
    ab6b:	48 89 85 d8 f5 ff ff 	mov    %rax,-0xa28(%rbp)
    ab72:	48 c7 85 f0 ed ff ff 	movq   $0x0,-0x1210(%rbp)
    ab79:	00 00 00 00 
    ab7d:	66 c7 85 e8 ec ff ff 	movw   $0x7c3,-0x1318(%rbp)
    ab84:	c3 07 
    ab86:	c7 85 38 ed ff ff 00 	movl   $0x0,-0x12c8(%rbp)
    ab8d:	00 00 00 
    ab90:	c7 85 08 ed ff ff 00 	movl   $0x0,-0x12f8(%rbp)
    ab97:	00 00 00 
    ab9a:	eb 1a                	jmp    abb6 <func_65+0x8c5>
    ab9c:	8b 85 08 ed ff ff    	mov    -0x12f8(%rbp),%eax
    aba2:	48 98                	cltq   
    aba4:	c7 84 85 34 ef ff ff 	movl   $0xe1d406a5,-0x10cc(%rbp,%rax,4)
    abab:	a5 06 d4 e1 
    abaf:	83 85 08 ed ff ff 01 	addl   $0x1,-0x12f8(%rbp)
    abb6:	83 bd 08 ed ff ff 00 	cmpl   $0x0,-0x12f8(%rbp)
    abbd:	7e dd                	jle    ab9c <func_65+0x8ab>
    abbf:	c7 05 8b a5 00 00 07 	movl   $0x7,0xa58b(%rip)        # 15154 <g_82+0x34>
    abc6:	00 00 00 
    abc9:	e9 10 06 00 00       	jmpq   b1de <func_65+0xeed>
    abce:	48 8d 05 b7 a5 00 00 	lea    0xa5b7(%rip),%rax        # 1518c <g_90>
    abd5:	48 89 85 80 ed ff ff 	mov    %rax,-0x1280(%rbp)
    abdc:	48 8d 85 80 ed ff ff 	lea    -0x1280(%rbp),%rax
    abe3:	48 89 85 f8 ed ff ff 	mov    %rax,-0x1208(%rbp)
    abea:	48 8d 05 bb fa 00 00 	lea    0xfabb(%rip),%rax        # 1a6ac <g_116>
    abf1:	48 89 85 00 ee ff ff 	mov    %rax,-0x1200(%rbp)
    abf8:	48 8d 85 f8 ec ff ff 	lea    -0x1308(%rbp),%rax
    abff:	48 89 85 08 ee ff ff 	mov    %rax,-0x11f8(%rbp)
    ac06:	c7 85 3c ed ff ff fd 	movl   $0x68eadfd,-0x12c4(%rbp)
    ac0d:	ad 8e 06 
    ac10:	48 8b 05 11 a4 00 00 	mov    0xa411(%rip),%rax        # 15028 <g_11>
    ac17:	41 89 c4             	mov    %eax,%r12d
    ac1a:	48 8b 85 80 ed ff ff 	mov    -0x1280(%rbp),%rax
    ac21:	0f b7 10             	movzwl (%rax),%edx
    ac24:	8d 4a 01             	lea    0x1(%rdx),%ecx
    ac27:	66 89 08             	mov    %cx,(%rax)
    ac2a:	0f b7 c2             	movzwl %dx,%eax
    ac2d:	39 85 cc ec ff ff    	cmp    %eax,-0x1334(%rbp)
    ac33:	8b 85 f8 ec ff ff    	mov    -0x1308(%rbp),%eax
    ac39:	0f b6 d8             	movzbl %al,%ebx
    ac3c:	8b 85 7c ef ff ff    	mov    -0x1084(%rbp),%eax
    ac42:	41 89 c5             	mov    %eax,%r13d
    ac45:	48 8b 85 28 f3 ff ff 	mov    -0xcd8(%rbp),%rax
    ac4c:	0f be c0             	movsbl %al,%eax
    ac4f:	48 8b 95 f8 ed ff ff 	mov    -0x1208(%rbp),%rdx
    ac56:	48 8d 0d 2f a5 00 00 	lea    0xa52f(%rip),%rcx        # 1518c <g_90>
    ac5d:	48 89 0a             	mov    %rcx,(%rdx)
    ac60:	89 c6                	mov    %eax,%esi
    ac62:	bf 01 00 00 00       	mov    $0x1,%edi
    ac67:	e8 86 85 ff ff       	callq  31f2 <safe_sub_func_int8_t_s_s>
    ac6c:	0f b6 c0             	movzbl %al,%eax
    ac6f:	be 04 00 00 00       	mov    $0x4,%esi
    ac74:	89 c7                	mov    %eax,%edi
    ac76:	e8 12 90 ff ff       	callq  3c8d <safe_rshift_func_uint8_t_u_s>
    ac7b:	c7 85 f4 ec ff ff 00 	movl   $0x0,-0x130c(%rbp)
    ac82:	00 00 00 
    ac85:	48 83 bd b0 ed ff ff 	cmpq   $0x0,-0x1250(%rbp)
    ac8c:	00 
    ac8d:	0f 94 c0             	sete   %al
    ac90:	0f b6 d0             	movzbl %al,%edx
    ac93:	8b 85 f8 ec ff ff    	mov    -0x1308(%rbp),%eax
    ac99:	21 d0                	and    %edx,%eax
    ac9b:	44 89 ee             	mov    %r13d,%esi
    ac9e:	89 c7                	mov    %eax,%edi
    aca0:	e8 60 89 ff ff       	callq  3605 <safe_sub_func_int32_t_s_s>
    aca5:	0f b6 95 e0 ec ff ff 	movzbl -0x1320(%rbp),%edx
    acac:	0f be d2             	movsbl %dl,%edx
    acaf:	39 d0                	cmp    %edx,%eax
    acb1:	0f 9f c0             	setg   %al
    acb4:	0f b6 c0             	movzbl %al,%eax
    acb7:	be 07 00 00 00       	mov    $0x7,%esi
    acbc:	89 c7                	mov    %eax,%edi
    acbe:	e8 72 86 ff ff       	callq  3335 <safe_rshift_func_int8_t_s_s>
    acc3:	48 0f be c0          	movsbq %al,%rax
    acc7:	25 da 24 00 00       	and    $0x24da,%eax
    accc:	48 83 f8 7f          	cmp    $0x7f,%rax
    acd0:	48 8b 95 28 f3 ff ff 	mov    -0xcd8(%rbp),%rdx
    acd7:	48 8b 85 c0 ec ff ff 	mov    -0x1340(%rbp),%rax
    acde:	48 8b 00             	mov    (%rax),%rax
    ace1:	48 85 c0             	test   %rax,%rax
    ace4:	0f 95 c0             	setne  %al
    ace7:	0f b6 c0             	movzbl %al,%eax
    acea:	48 39 c2             	cmp    %rax,%rdx
    aced:	0f 95 c0             	setne  %al
    acf0:	0f b6 c0             	movzbl %al,%eax
    acf3:	89 de                	mov    %ebx,%esi
    acf5:	89 c7                	mov    %eax,%edi
    acf7:	e8 5e 8e ff ff       	callq  3b5a <safe_add_func_uint8_t_u_u>
    acfc:	48 83 bd b8 ec ff ff 	cmpq   $0x0,-0x1348(%rbp)
    ad03:	00 
    ad04:	0f 95 c0             	setne  %al
    ad07:	89 c2                	mov    %eax,%edx
    ad09:	8b 85 cc ec ff ff    	mov    -0x1334(%rbp),%eax
    ad0f:	31 d0                	xor    %edx,%eax
    ad11:	0f b6 c0             	movzbl %al,%eax
    ad14:	be 05 00 00 00       	mov    $0x5,%esi
    ad19:	89 c7                	mov    %eax,%edi
    ad1b:	e8 73 8e ff ff       	callq  3b93 <safe_mul_func_uint8_t_u_u>
    ad20:	3c 01                	cmp    $0x1,%al
    ad22:	75 07                	jne    ad2b <func_65+0xa3a>
    ad24:	b8 62 00 00 00       	mov    $0x62,%eax
    ad29:	eb 05                	jmp    ad30 <func_65+0xa3f>
    ad2b:	b8 63 00 00 00       	mov    $0x63,%eax
    ad30:	44 89 e6             	mov    %r12d,%esi
    ad33:	89 c7                	mov    %eax,%edi
    ad35:	e8 53 8f ff ff       	callq  3c8d <safe_rshift_func_uint8_t_u_s>
    ad3a:	0f b6 05 fb a2 00 00 	movzbl 0xa2fb(%rip),%eax        # 1503c <g_56+0x4>
    ad41:	84 c0                	test   %al,%al
    ad43:	74 12                	je     ad57 <func_65+0xa66>
    ad45:	0f b6 05 ec a2 00 00 	movzbl 0xa2ec(%rip),%eax        # 15038 <g_56>
    ad4c:	84 c0                	test   %al,%al
    ad4e:	74 07                	je     ad57 <func_65+0xa66>
    ad50:	b8 01 00 00 00       	mov    $0x1,%eax
    ad55:	eb 05                	jmp    ad5c <func_65+0xa6b>
    ad57:	b8 00 00 00 00       	mov    $0x0,%eax
    ad5c:	0f bf d0             	movswl %ax,%edx
    ad5f:	8b 05 ef a3 00 00    	mov    0xa3ef(%rip),%eax        # 15154 <g_82+0x34>
    ad65:	48 98                	cltq   
    ad67:	48 8d 0d ca a2 00 00 	lea    0xa2ca(%rip),%rcx        # 15038 <g_56>
    ad6e:	0f b6 04 08          	movzbl (%rax,%rcx,1),%eax
    ad72:	0f b6 c0             	movzbl %al,%eax
    ad75:	89 d6                	mov    %edx,%esi
    ad77:	89 c7                	mov    %eax,%edi
    ad79:	e8 77 86 ff ff       	callq  33f5 <safe_mul_func_int16_t_s_s>
    ad7e:	89 c2                	mov    %eax,%edx
    ad80:	48 8b 85 00 ee ff ff 	mov    -0x1200(%rbp),%rax
    ad87:	0f b6 00             	movzbl (%rax),%eax
    ad8a:	89 c1                	mov    %eax,%ecx
    ad8c:	89 d0                	mov    %edx,%eax
    ad8e:	21 c8                	and    %ecx,%eax
    ad90:	89 c2                	mov    %eax,%edx
    ad92:	48 8b 85 00 ee ff ff 	mov    -0x1200(%rbp),%rax
    ad99:	88 10                	mov    %dl,(%rax)
    ad9b:	48 8b 85 00 ee ff ff 	mov    -0x1200(%rbp),%rax
    ada2:	0f b6 00             	movzbl (%rax),%eax
    ada5:	0f b6 c0             	movzbl %al,%eax
    ada8:	be e2 00 00 00       	mov    $0xe2,%esi
    adad:	89 c7                	mov    %eax,%edi
    adaf:	e8 fa 8d ff ff       	callq  3bae <safe_mod_func_uint8_t_u_u>
    adb4:	84 c0                	test   %al,%al
    adb6:	74 12                	je     adca <func_65+0xad9>
    adb8:	83 bd cc ec ff ff 00 	cmpl   $0x0,-0x1334(%rbp)
    adbf:	0f 84 b3 00 00 00    	je     ae78 <func_65+0xb87>
    adc5:	e9 22 04 00 00       	jmpq   b1ec <func_65+0xefb>
    adca:	48 8d 85 f4 ec ff ff 	lea    -0x130c(%rbp),%rax
    add1:	48 89 85 88 ed ff ff 	mov    %rax,-0x1278(%rbp)
    add8:	48 8b 85 88 ed ff ff 	mov    -0x1278(%rbp),%rax
    addf:	8b 08                	mov    (%rax),%ecx
    ade1:	8b 15 f9 a2 00 00    	mov    0xa2f9(%rip),%edx        # 150e0 <g_81+0xa0>
    ade7:	48 8b 85 88 ed ff ff 	mov    -0x1278(%rbp),%rax
    adee:	09 ca                	or     %ecx,%edx
    adf0:	89 10                	mov    %edx,(%rax)
    adf2:	8b 00                	mov    (%rax),%eax
    adf4:	85 c0                	test   %eax,%eax
    adf6:	74 39                	je     ae31 <func_65+0xb40>
    adf8:	48 c7 85 18 ee ff ff 	movq   $0x0,-0x11e8(%rbp)
    adff:	00 00 00 00 
    ae03:	48 8d 85 88 ed ff ff 	lea    -0x1278(%rbp),%rax
    ae0a:	48 89 85 20 ee ff ff 	mov    %rax,-0x11e0(%rbp)
    ae11:	48 8b 85 88 ed ff ff 	mov    -0x1278(%rbp),%rax
    ae18:	8b 00                	mov    (%rax),%eax
    ae1a:	85 c0                	test   %eax,%eax
    ae1c:	75 4e                	jne    ae6c <func_65+0xb7b>
    ae1e:	48 8b 95 88 ed ff ff 	mov    -0x1278(%rbp),%rdx
    ae25:	48 8b 85 20 ee ff ff 	mov    -0x11e0(%rbp),%rax
    ae2c:	48 89 10             	mov    %rdx,(%rax)
    ae2f:	eb 2b                	jmp    ae5c <func_65+0xb6b>
    ae31:	48 8d 85 70 ed ff ff 	lea    -0x1290(%rbp),%rax
    ae38:	48 89 85 10 ee ff ff 	mov    %rax,-0x11f0(%rbp)
    ae3f:	48 8b 85 d8 f2 ff ff 	mov    -0xd28(%rbp),%rax
    ae46:	48 85 c0             	test   %rax,%rax
    ae49:	75 27                	jne    ae72 <func_65+0xb81>
    ae4b:	48 8b 95 70 ed ff ff 	mov    -0x1290(%rbp),%rdx
    ae52:	48 8b 85 10 ee ff ff 	mov    -0x11f0(%rbp),%rax
    ae59:	48 89 10             	mov    %rdx,(%rax)
    ae5c:	48 8d 85 c0 ec ff ff 	lea    -0x1340(%rbp),%rax
    ae63:	48 89 05 46 f8 00 00 	mov    %rax,0xf846(%rip)        # 1a6b0 <g_122>
    ae6a:	eb 0c                	jmp    ae78 <func_65+0xb87>
    ae6c:	90                   	nop
    ae6d:	e9 7a 03 00 00       	jmpq   b1ec <func_65+0xefb>
    ae72:	90                   	nop
    ae73:	e9 74 03 00 00       	jmpq   b1ec <func_65+0xefb>
    ae78:	be 03 00 00 00       	mov    $0x3,%esi
    ae7d:	bf 01 00 00 00       	mov    $0x1,%edi
    ae82:	e8 a3 86 ff ff       	callq  352a <safe_rshift_func_int16_t_s_s>
    ae87:	8b 05 c7 a2 00 00    	mov    0xa2c7(%rip),%eax        # 15154 <g_82+0x34>
    ae8d:	48 98                	cltq   
    ae8f:	48 8d 15 a2 a1 00 00 	lea    0xa1a2(%rip),%rdx        # 15038 <g_56>
    ae96:	0f b6 04 10          	movzbl (%rax,%rdx,1),%eax
    ae9a:	0f b6 d0             	movzbl %al,%edx
    ae9d:	48 8b 05 bc f1 00 00 	mov    0xf1bc(%rip),%rax        # 1a060 <g_55>
    aea4:	0f b6 00             	movzbl (%rax),%eax
    aea7:	0f b6 c0             	movzbl %al,%eax
    aeaa:	89 d6                	mov    %edx,%esi
    aeac:	89 c7                	mov    %eax,%edi
    aeae:	e8 da 8d ff ff       	callq  3c8d <safe_rshift_func_uint8_t_u_s>
    aeb3:	0f b6 c0             	movzbl %al,%eax
    aeb6:	83 e0 01             	and    $0x1,%eax
    aeb9:	48 85 c0             	test   %rax,%rax
    aebc:	48 8b 85 70 ed ff ff 	mov    -0x1290(%rbp),%rax
    aec3:	8b 00                	mov    (%rax),%eax
    aec5:	48 63 d0             	movslq %eax,%rdx
    aec8:	48 8b 05 c1 a2 00 00 	mov    0xa2c1(%rip),%rax        # 15190 <g_127>
    aecf:	48 21 d0             	and    %rdx,%rax
    aed2:	48 89 05 b7 a2 00 00 	mov    %rax,0xa2b7(%rip)        # 15190 <g_127>
    aed9:	48 8b 05 b0 a2 00 00 	mov    0xa2b0(%rip),%rax        # 15190 <g_127>
    aee0:	89 c2                	mov    %eax,%edx
    aee2:	48 8b 85 08 ee ff ff 	mov    -0x11f8(%rbp),%rax
    aee9:	89 10                	mov    %edx,(%rax)
    aeeb:	c6 85 e0 ec ff ff 00 	movb   $0x0,-0x1320(%rbp)
    aef2:	e9 04 02 00 00       	jmpq   b0fb <func_65+0xe0a>
    aef7:	48 8d 85 e0 f5 ff ff 	lea    -0xa20(%rbp),%rax
    aefe:	48 05 bc 01 00 00    	add    $0x1bc,%rax
    af04:	48 89 85 28 ee ff ff 	mov    %rax,-0x11d8(%rbp)
    af0b:	c6 85 e2 ec ff ff ff 	movb   $0xff,-0x131e(%rbp)
    af12:	c6 85 e3 ec ff ff 08 	movb   $0x8,-0x131d(%rbp)
    af19:	c7 85 f4 ec ff ff 00 	movl   $0x0,-0x130c(%rbp)
    af20:	00 00 00 
    af23:	e9 a8 01 00 00       	jmpq   b0d0 <func_65+0xddf>
    af28:	48 c7 85 30 ee ff ff 	movq   $0xfffffffffffffff7,-0x11d0(%rbp)
    af2f:	f7 ff ff ff 
    af33:	48 c7 85 38 ee ff ff 	movq   $0x0,-0x11c8(%rbp)
    af3a:	00 00 00 00 
    af3e:	48 8d 85 f8 ec ff ff 	lea    -0x1308(%rbp),%rax
    af45:	48 89 85 40 ee ff ff 	mov    %rax,-0x11c0(%rbp)
    af4c:	48 8d 85 f8 ec ff ff 	lea    -0x1308(%rbp),%rax
    af53:	48 89 85 e0 f7 ff ff 	mov    %rax,-0x820(%rbp)
    af5a:	48 8d 85 f4 ec ff ff 	lea    -0x130c(%rbp),%rax
    af61:	48 89 85 e8 f7 ff ff 	mov    %rax,-0x818(%rbp)
    af68:	48 8d 85 f4 ec ff ff 	lea    -0x130c(%rbp),%rax
    af6f:	48 89 85 f0 f7 ff ff 	mov    %rax,-0x810(%rbp)
    af76:	48 8d 85 f8 ec ff ff 	lea    -0x1308(%rbp),%rax
    af7d:	48 89 85 f8 f7 ff ff 	mov    %rax,-0x808(%rbp)
    af84:	48 8d 85 f4 ec ff ff 	lea    -0x130c(%rbp),%rax
    af8b:	48 89 85 00 f8 ff ff 	mov    %rax,-0x800(%rbp)
    af92:	48 8d 85 f8 ec ff ff 	lea    -0x1308(%rbp),%rax
    af99:	48 89 85 08 f8 ff ff 	mov    %rax,-0x7f8(%rbp)
    afa0:	48 8d 85 f4 ec ff ff 	lea    -0x130c(%rbp),%rax
    afa7:	48 89 85 10 f8 ff ff 	mov    %rax,-0x7f0(%rbp)
    afae:	48 8d 85 f4 ec ff ff 	lea    -0x130c(%rbp),%rax
    afb5:	48 89 85 18 f8 ff ff 	mov    %rax,-0x7e8(%rbp)
    afbc:	48 8d 05 a5 f0 00 00 	lea    0xf0a5(%rip),%rax        # 1a068 <g_143>
    afc3:	48 89 85 48 ee ff ff 	mov    %rax,-0x11b8(%rbp)
    afca:	48 8b 85 08 ee ff ff 	mov    -0x11f8(%rbp),%rax
    afd1:	8b 10                	mov    (%rax),%edx
    afd3:	8b 85 cc ec ff ff    	mov    -0x1334(%rbp),%eax
    afd9:	48 98                	cltq   
    afdb:	48 39 85 30 ee ff ff 	cmp    %rax,-0x11d0(%rbp)
    afe2:	0f 97 c0             	seta   %al
    afe5:	0f b6 c0             	movzbl %al,%eax
    afe8:	21 c2                	and    %eax,%edx
    afea:	48 8b 85 08 ee ff ff 	mov    -0x11f8(%rbp),%rax
    aff1:	89 10                	mov    %edx,(%rax)
    aff3:	48 8b 05 a6 a1 00 00 	mov    0xa1a6(%rip),%rax        # 151a0 <g_140>
    affa:	48 83 e8 01          	sub    $0x1,%rax
    affe:	48 89 05 9b a1 00 00 	mov    %rax,0xa19b(%rip)        # 151a0 <g_140>
    b005:	48 8b 15 5c f0 00 00 	mov    0xf05c(%rip),%rdx        # 1a068 <g_143>
    b00c:	48 8b 85 48 ee ff ff 	mov    -0x11b8(%rbp),%rax
    b013:	48 89 10             	mov    %rdx,(%rax)
    b016:	48 8b 85 70 ed ff ff 	mov    -0x1290(%rbp),%rax
    b01d:	8b 00                	mov    (%rax),%eax
    b01f:	0f be c0             	movsbl %al,%eax
    b022:	be 68 00 00 00       	mov    $0x68,%esi
    b027:	89 c7                	mov    %eax,%edi
    b029:	e8 a6 81 ff ff       	callq  31d4 <safe_add_func_int8_t_s_s>
    b02e:	84 c0                	test   %al,%al
    b030:	74 3d                	je     b06f <func_65+0xd7e>
    b032:	48 8b 85 08 ee ff ff 	mov    -0x11f8(%rbp),%rax
    b039:	8b 00                	mov    (%rax),%eax
    b03b:	98                   	cwtl   
    b03c:	89 c7                	mov    %eax,%edi
    b03e:	e8 5a 83 ff ff       	callq  339d <safe_unary_minus_func_int16_t_s>
    b043:	89 c3                	mov    %eax,%ebx
    b045:	81 bd cc ec ff ff b9 	cmpl   $0xdfb9,-0x1334(%rbp)
    b04c:	df 00 00 
    b04f:	0f 94 c0             	sete   %al
    b052:	0f b6 c0             	movzbl %al,%eax
    b055:	be 04 00 00 00       	mov    $0x4,%esi
    b05a:	89 c7                	mov    %eax,%edi
    b05c:	e8 8d 82 ff ff       	callq  32ee <safe_lshift_func_int8_t_s_u>
    b061:	66 98                	cbtw   
    b063:	66 39 c3             	cmp    %ax,%bx
    b066:	7d 07                	jge    b06f <func_65+0xd7e>
    b068:	b8 01 00 00 00       	mov    $0x1,%eax
    b06d:	eb 05                	jmp    b074 <func_65+0xd83>
    b06f:	b8 00 00 00 00       	mov    $0x0,%eax
    b074:	98                   	cwtl   
    b075:	89 c6                	mov    %eax,%esi
    b077:	bf 00 00 00 00       	mov    $0x0,%edi
    b07c:	e8 74 83 ff ff       	callq  33f5 <safe_mul_func_int16_t_s_s>
    b081:	66 85 c0             	test   %ax,%ax
    b084:	75 09                	jne    b08f <func_65+0xd9e>
    b086:	83 bd cc ec ff ff 00 	cmpl   $0x0,-0x1334(%rbp)
    b08d:	74 07                	je     b096 <func_65+0xda5>
    b08f:	b8 01 00 00 00       	mov    $0x1,%eax
    b094:	eb 05                	jmp    b09b <func_65+0xdaa>
    b096:	b8 00 00 00 00       	mov    $0x0,%eax
    b09b:	0f b7 d0             	movzwl %ax,%edx
    b09e:	8b 85 cc ec ff ff    	mov    -0x1334(%rbp),%eax
    b0a4:	0f b7 c0             	movzwl %ax,%eax
    b0a7:	89 d6                	mov    %edx,%esi
    b0a9:	89 c7                	mov    %eax,%edi
    b0ab:	e8 8d 8c ff ff       	callq  3d3d <safe_mul_func_uint16_t_u_u>
    b0b0:	0f b7 d0             	movzwl %ax,%edx
    b0b3:	8b 85 fc ec ff ff    	mov    -0x1304(%rbp),%eax
    b0b9:	31 d0                	xor    %edx,%eax
    b0bb:	89 85 fc ec ff ff    	mov    %eax,-0x1304(%rbp)
    b0c1:	8b 85 f4 ec ff ff    	mov    -0x130c(%rbp),%eax
    b0c7:	83 e8 01             	sub    $0x1,%eax
    b0ca:	89 85 f4 ec ff ff    	mov    %eax,-0x130c(%rbp)
    b0d0:	8b 85 f4 ec ff ff    	mov    -0x130c(%rbp),%eax
    b0d6:	83 f8 fc             	cmp    $0xfffffffc,%eax
    b0d9:	0f 8c 49 fe ff ff    	jl     af28 <func_65+0xc37>
    b0df:	0f b6 85 e0 ec ff ff 	movzbl -0x1320(%rbp),%eax
    b0e6:	0f be c0             	movsbl %al,%eax
    b0e9:	be 05 00 00 00       	mov    $0x5,%esi
    b0ee:	89 c7                	mov    %eax,%edi
    b0f0:	e8 c1 84 ff ff       	callq  35b6 <safe_add_func_int32_t_s_s>
    b0f5:	88 85 e0 ec ff ff    	mov    %al,-0x1320(%rbp)
    b0fb:	0f b6 85 e0 ec ff ff 	movzbl -0x1320(%rbp),%eax
    b102:	3c 05                	cmp    $0x5,%al
    b104:	0f 85 ed fd ff ff    	jne    aef7 <func_65+0xc06>
    b10a:	c7 05 48 a2 00 00 ef 	movl   $0xffffffef,0xa248(%rip)        # 1535c <g_183>
    b111:	ff ff ff 
    b114:	e9 a4 00 00 00       	jmpq   b1bd <func_65+0xecc>
    b119:	48 8b 05 58 ef 00 00 	mov    0xef58(%rip),%rax        # 1a078 <g_212>
    b120:	48 8b 00             	mov    (%rax),%rax
    b123:	8b 00                	mov    (%rax),%eax
    b125:	85 c0                	test   %eax,%eax
    b127:	0f 85 a1 00 00 00    	jne    b1ce <func_65+0xedd>
    b12d:	c6 85 e0 ec ff ff 00 	movb   $0x0,-0x1320(%rbp)
    b134:	eb 50                	jmp    b186 <func_65+0xe95>
    b136:	48 8b 05 b8 a0 00 00 	mov    0xa0b8(%rip),%rax        # 151f5 <g_144+0x35>
    b13d:	48 85 c0             	test   %rax,%rax
    b140:	75 0c                	jne    b14e <func_65+0xe5d>
    b142:	48 8b 85 e8 f2 ff ff 	mov    -0xd18(%rbp),%rax
    b149:	48 85 c0             	test   %rax,%rax
    b14c:	74 07                	je     b155 <func_65+0xe64>
    b14e:	ba 01 00 00 00       	mov    $0x1,%edx
    b153:	eb 05                	jmp    b15a <func_65+0xe69>
    b155:	ba 00 00 00 00       	mov    $0x0,%edx
    b15a:	8b 85 f8 ec ff ff    	mov    -0x1308(%rbp),%eax
    b160:	31 d0                	xor    %edx,%eax
    b162:	89 85 f8 ec ff ff    	mov    %eax,-0x1308(%rbp)
    b168:	0f b6 85 e0 ec ff ff 	movzbl -0x1320(%rbp),%eax
    b16f:	48 0f be c0          	movsbq %al,%rax
    b173:	be 09 00 00 00       	mov    $0x9,%esi
    b178:	48 89 c7             	mov    %rax,%rdi
    b17b:	e8 cb 8e ff ff       	callq  404b <safe_sub_func_uint64_t_u_u>
    b180:	88 85 e0 ec ff ff    	mov    %al,-0x1320(%rbp)
    b186:	0f b6 85 e0 ec ff ff 	movzbl -0x1320(%rbp),%eax
    b18d:	3c ea                	cmp    $0xea,%al
    b18f:	7c a5                	jl     b136 <func_65+0xe45>
    b191:	48 8b 85 b8 ed ff ff 	mov    -0x1248(%rbp),%rax
    b198:	48 89 85 98 ed ff ff 	mov    %rax,-0x1268(%rbp)
    b19f:	8b 05 b7 a1 00 00    	mov    0xa1b7(%rip),%eax        # 1535c <g_183>
    b1a5:	0f b6 c0             	movzbl %al,%eax
    b1a8:	be 03 00 00 00       	mov    $0x3,%esi
    b1ad:	89 c7                	mov    %eax,%edi
    b1af:	e8 a6 89 ff ff       	callq  3b5a <safe_add_func_uint8_t_u_u>
    b1b4:	0f b6 c0             	movzbl %al,%eax
    b1b7:	89 05 9f a1 00 00    	mov    %eax,0xa19f(%rip)        # 1535c <g_183>
    b1bd:	8b 05 99 a1 00 00    	mov    0xa199(%rip),%eax        # 1535c <g_183>
    b1c3:	83 f8 37             	cmp    $0x37,%eax
    b1c6:	0f 85 4d ff ff ff    	jne    b119 <func_65+0xe28>
    b1cc:	eb 01                	jmp    b1cf <func_65+0xede>
    b1ce:	90                   	nop
    b1cf:	8b 05 7f 9f 00 00    	mov    0x9f7f(%rip),%eax        # 15154 <g_82+0x34>
    b1d5:	83 e8 01             	sub    $0x1,%eax
    b1d8:	89 05 76 9f 00 00    	mov    %eax,0x9f76(%rip)        # 15154 <g_82+0x34>
    b1de:	8b 05 70 9f 00 00    	mov    0x9f70(%rip),%eax        # 15154 <g_82+0x34>
    b1e4:	85 c0                	test   %eax,%eax
    b1e6:	0f 89 e2 f9 ff ff    	jns    abce <func_65+0x8dd>
    b1ec:	48 8b 85 b8 ec ff ff 	mov    -0x1348(%rbp),%rax
    b1f3:	48 8b 00             	mov    (%rax),%rax
    b1f6:	0f b6 00             	movzbl (%rax),%eax
    b1f9:	0f b6 d8             	movzbl %al,%ebx
    b1fc:	48 8b 05 8d 9f 00 00 	mov    0x9f8d(%rip),%rax        # 15190 <g_127>
    b203:	0f b6 d0             	movzbl %al,%edx
    b206:	48 8b 05 53 ee 00 00 	mov    0xee53(%rip),%rax        # 1a060 <g_55>
    b20d:	0f b6 00             	movzbl (%rax),%eax
    b210:	0f b6 c0             	movzbl %al,%eax
    b213:	89 d6                	mov    %edx,%esi
    b215:	89 c7                	mov    %eax,%edi
    b217:	e8 92 89 ff ff       	callq  3bae <safe_mod_func_uint8_t_u_u>
    b21c:	48 83 bd c0 ed ff ff 	cmpq   $0x0,-0x1240(%rbp)
    b223:	00 
    b224:	0f 95 c0             	setne  %al
    b227:	0f b6 c0             	movzbl %al,%eax
    b22a:	89 de                	mov    %ebx,%esi
    b22c:	89 c7                	mov    %eax,%edi
    b22e:	e8 a8 89 ff ff       	callq  3bdb <safe_div_func_uint8_t_u_u>
    b233:	8b 85 fc ec ff ff    	mov    -0x1304(%rbp),%eax
    b239:	41 89 c4             	mov    %eax,%r12d
    b23c:	8b 85 34 ed ff ff    	mov    -0x12cc(%rbp),%eax
    b242:	0f bf d8             	movswl %ax,%ebx
    b245:	0f b7 05 40 9f 00 00 	movzwl 0x9f40(%rip),%eax        # 1518c <g_90>
    b24c:	98                   	cwtl   
    b24d:	be 73 51 00 00       	mov    $0x5173,%esi
    b252:	89 c7                	mov    %eax,%edi
    b254:	e8 7a 81 ff ff       	callq  33d3 <safe_sub_func_int16_t_s_s>
    b259:	98                   	cwtl   
    b25a:	89 de                	mov    %ebx,%esi
    b25c:	89 c7                	mov    %eax,%edi
    b25e:	e8 50 81 ff ff       	callq  33b3 <safe_add_func_int16_t_s_s>
    b263:	48 0f bf d0          	movswq %ax,%rdx
    b267:	48 8b 05 32 9f 00 00 	mov    0x9f32(%rip),%rax        # 151a0 <g_140>
    b26e:	48 21 d0             	and    %rdx,%rax
    b271:	48 89 05 28 9f 00 00 	mov    %rax,0x9f28(%rip)        # 151a0 <g_140>
    b278:	48 8b 05 21 9f 00 00 	mov    0x9f21(%rip),%rax        # 151a0 <g_140>
    b27f:	48 85 c0             	test   %rax,%rax
    b282:	74 11                	je     b295 <func_65+0xfa4>
    b284:	8b 05 46 9e 00 00    	mov    0x9e46(%rip),%eax        # 150d0 <g_81+0x90>
    b28a:	85 c0                	test   %eax,%eax
    b28c:	74 07                	je     b295 <func_65+0xfa4>
    b28e:	b8 01 00 00 00       	mov    $0x1,%eax
    b293:	eb 05                	jmp    b29a <func_65+0xfa9>
    b295:	b8 00 00 00 00       	mov    $0x0,%eax
    b29a:	0f be c0             	movsbl %al,%eax
    b29d:	44 89 e6             	mov    %r12d,%esi
    b2a0:	89 c7                	mov    %eax,%edi
    b2a2:	e8 c5 80 ff ff       	callq  336c <safe_rshift_func_int8_t_s_u>
    b2a7:	84 c0                	test   %al,%al
    b2a9:	0f 95 c0             	setne  %al
    b2ac:	0f b6 c0             	movzbl %al,%eax
    b2af:	89 85 f8 ec ff ff    	mov    %eax,-0x1308(%rbp)
    b2b5:	8b 05 15 9e 00 00    	mov    0x9e15(%rip),%eax        # 150d0 <g_81+0x90>
    b2bb:	48 98                	cltq   
    b2bd:	48 8d 15 74 9d 00 00 	lea    0x9d74(%rip),%rdx        # 15038 <g_56>
    b2c4:	0f b6 04 10          	movzbl (%rax,%rdx,1),%eax
    b2c8:	0f b6 c0             	movzbl %al,%eax
    b2cb:	48 be e3 51 3b 76 d7 	movabs $0x35642bd7763b51e3,%rsi
    b2d2:	2b 64 35 
    b2d5:	48 89 c7             	mov    %rax,%rdi
    b2d8:	e8 1a 87 ff ff       	callq  39f7 <safe_div_func_int64_t_s_s>
    b2dd:	66 89 85 e4 ec ff ff 	mov    %ax,-0x131c(%rbp)
    b2e4:	8b 85 cc ec ff ff    	mov    -0x1334(%rbp),%eax
    b2ea:	89 85 ec ec ff ff    	mov    %eax,-0x1314(%rbp)
    b2f0:	8b 85 ec ec ff ff    	mov    -0x1314(%rbp),%eax
    b2f6:	85 c0                	test   %eax,%eax
    b2f8:	75 0d                	jne    b307 <func_65+0x1016>
    b2fa:	83 bd cc ec ff ff 00 	cmpl   $0x0,-0x1334(%rbp)
    b301:	0f 84 9a 0e 00 00    	je     c1a1 <func_65+0x1eb0>
    b307:	48 8d 05 a8 a7 00 00 	lea    0xa7a8(%rip),%rax        # 15ab6 <g_259>
    b30e:	48 89 85 c0 ee ff ff 	mov    %rax,-0x1140(%rbp)
    b315:	48 c7 85 c8 ee ff ff 	movq   $0x0,-0x1138(%rbp)
    b31c:	00 00 00 00 
    b320:	c7 85 c0 f1 ff ff c7 	movl   $0x8cdedc7,-0xe40(%rbp)
    b327:	ed cd 08 
    b32a:	c7 85 c4 f1 ff ff f8 	movl   $0xfffffff8,-0xe3c(%rbp)
    b331:	ff ff ff 
    b334:	c7 85 c8 f1 ff ff f8 	movl   $0x912ae4f8,-0xe38(%rbp)
    b33b:	e4 2a 91 
    b33e:	c7 85 cc f1 ff ff 0a 	movl   $0x7dd9ad0a,-0xe34(%rbp)
    b345:	ad d9 7d 
    b348:	c7 85 d0 f1 ff ff fd 	movl   $0xfffffffd,-0xe30(%rbp)
    b34f:	ff ff ff 
    b352:	c7 85 d4 f1 ff ff 0a 	movl   $0x7dd9ad0a,-0xe2c(%rbp)
    b359:	ad d9 7d 
    b35c:	c7 85 d8 f1 ff ff f8 	movl   $0x912ae4f8,-0xe28(%rbp)
    b363:	e4 2a 91 
    b366:	c7 85 dc f1 ff ff f8 	movl   $0xfffffff8,-0xe24(%rbp)
    b36d:	ff ff ff 
    b370:	c7 85 e0 f1 ff ff c7 	movl   $0x8cdedc7,-0xe20(%rbp)
    b377:	ed cd 08 
    b37a:	c7 85 e4 f1 ff ff ff 	movl   $0xffffffff,-0xe1c(%rbp)
    b381:	ff ff ff 
    b384:	c7 85 e8 f1 ff ff 18 	movl   $0xbbd40018,-0xe18(%rbp)
    b38b:	00 d4 bb 
    b38e:	c7 85 ec f1 ff ff 0a 	movl   $0x7dd9ad0a,-0xe14(%rbp)
    b395:	ad d9 7d 
    b398:	c7 85 f0 f1 ff ff c7 	movl   $0x8cdedc7,-0xe10(%rbp)
    b39f:	ed cd 08 
    b3a2:	c7 85 f4 f1 ff ff 00 	movl   $0x0,-0xe0c(%rbp)
    b3a9:	00 00 00 
    b3ac:	c7 85 f8 f1 ff ff 00 	movl   $0x0,-0xe08(%rbp)
    b3b3:	00 00 00 
    b3b6:	c7 85 fc f1 ff ff ff 	movl   $0xffffffff,-0xe04(%rbp)
    b3bd:	ff ff ff 
    b3c0:	c7 85 00 f2 ff ff fd 	movl   $0xfffffffd,-0xe00(%rbp)
    b3c7:	ff ff ff 
    b3ca:	c7 85 04 f2 ff ff ff 	movl   $0xffffffff,-0xdfc(%rbp)
    b3d1:	ff ff ff 
    b3d4:	c7 85 08 f2 ff ff 00 	movl   $0x0,-0xdf8(%rbp)
    b3db:	00 00 00 
    b3de:	c7 85 0c f2 ff ff 00 	movl   $0x0,-0xdf4(%rbp)
    b3e5:	00 00 00 
    b3e8:	c7 85 10 f2 ff ff f7 	movl   $0xfffffff7,-0xdf0(%rbp)
    b3ef:	ff ff ff 
    b3f2:	c7 85 14 f2 ff ff 76 	movl   $0xf2670d76,-0xdec(%rbp)
    b3f9:	0d 67 f2 
    b3fc:	c7 85 18 f2 ff ff 01 	movl   $0x1,-0xde8(%rbp)
    b403:	00 00 00 
    b406:	c7 85 1c f2 ff ff c7 	movl   $0x8cdedc7,-0xde4(%rbp)
    b40d:	ed cd 08 
    b410:	c7 85 20 f2 ff ff 18 	movl   $0xbbd40018,-0xde0(%rbp)
    b417:	00 d4 bb 
    b41a:	c7 85 24 f2 ff ff fd 	movl   $0xfffffffd,-0xddc(%rbp)
    b421:	ff ff ff 
    b424:	c7 85 28 f2 ff ff 00 	movl   $0x0,-0xdd8(%rbp)
    b42b:	00 00 00 
    b42e:	c7 85 2c f2 ff ff 90 	movl   $0xbfa90f90,-0xdd4(%rbp)
    b435:	0f a9 bf 
    b438:	c7 85 30 f2 ff ff 0a 	movl   $0x7dd9ad0a,-0xdd0(%rbp)
    b43f:	ad d9 7d 
    b442:	c7 85 34 f2 ff ff 00 	movl   $0x0,-0xdcc(%rbp)
    b449:	00 00 00 
    b44c:	c7 85 38 f2 ff ff 50 	movl   $0x1c07ac50,-0xdc8(%rbp)
    b453:	ac 07 1c 
    b456:	c7 85 3c f2 ff ff 05 	movl   $0x5,-0xdc4(%rbp)
    b45d:	00 00 00 
    b460:	c7 85 40 f2 ff ff 01 	movl   $0x1,-0xdc0(%rbp)
    b467:	00 00 00 
    b46a:	c7 85 44 f2 ff ff 18 	movl   $0xbbd40018,-0xdbc(%rbp)
    b471:	00 d4 bb 
    b474:	c7 85 48 f2 ff ff f8 	movl   $0xfffffff8,-0xdb8(%rbp)
    b47b:	ff ff ff 
    b47e:	c7 85 4c f2 ff ff 01 	movl   $0x1,-0xdb4(%rbp)
    b485:	00 00 00 
    b488:	c7 85 50 f2 ff ff 09 	movl   $0x9,-0xdb0(%rbp)
    b48f:	00 00 00 
    b492:	c7 85 54 f2 ff ff ff 	movl   $0xffffffff,-0xdac(%rbp)
    b499:	ff ff ff 
    b49c:	c7 85 58 f2 ff ff ff 	movl   $0xffffffff,-0xda8(%rbp)
    b4a3:	ff ff ff 
    b4a6:	c7 85 5c f2 ff ff 09 	movl   $0x9,-0xda4(%rbp)
    b4ad:	00 00 00 
    b4b0:	c7 85 60 f2 ff ff 00 	movl   $0x0,-0xda0(%rbp)
    b4b7:	00 00 00 
    b4ba:	c7 85 64 f2 ff ff 09 	movl   $0x9,-0xd9c(%rbp)
    b4c1:	00 00 00 
    b4c4:	c7 85 68 f2 ff ff c7 	movl   $0x8cdedc7,-0xd98(%rbp)
    b4cb:	ed cd 08 
    b4ce:	c7 85 6c f2 ff ff f7 	movl   $0xfffffff7,-0xd94(%rbp)
    b4d5:	ff ff ff 
    b4d8:	c7 85 70 f2 ff ff 45 	movl   $0x496f3e45,-0xd90(%rbp)
    b4df:	3e 6f 49 
    b4e2:	c7 85 74 f2 ff ff f8 	movl   $0x912ae4f8,-0xd8c(%rbp)
    b4e9:	e4 2a 91 
    b4ec:	c7 85 78 f2 ff ff 05 	movl   $0x5,-0xd88(%rbp)
    b4f3:	00 00 00 
    b4f6:	c7 85 7c f2 ff ff f8 	movl   $0xfffffff8,-0xd84(%rbp)
    b4fd:	ff ff ff 
    b500:	c7 85 80 f2 ff ff fd 	movl   $0xfffffffd,-0xd80(%rbp)
    b507:	ff ff ff 
    b50a:	c7 85 84 f2 ff ff 01 	movl   $0x1,-0xd7c(%rbp)
    b511:	00 00 00 
    b514:	48 8d 05 91 f1 00 00 	lea    0xf191(%rip),%rax        # 1a6ac <g_116>
    b51b:	48 89 85 d0 ee ff ff 	mov    %rax,-0x1130(%rbp)
    b522:	48 8d 85 e0 ec ff ff 	lea    -0x1320(%rbp),%rax
    b529:	48 89 85 d8 ee ff ff 	mov    %rax,-0x1128(%rbp)
    b530:	48 c7 85 e0 ee ff ff 	movq   $0x0,-0x1120(%rbp)
    b537:	00 00 00 00 
    b53b:	48 8d 05 2e eb 00 00 	lea    0xeb2e(%rip),%rax        # 1a070 <g_213>
    b542:	48 89 85 e8 ee ff ff 	mov    %rax,-0x1118(%rbp)
    b549:	c7 85 d0 ef ff ff b9 	movl   $0xf8003bb9,-0x1030(%rbp)
    b550:	3b 00 f8 
    b553:	66 c7 85 d4 ef ff ff 	movw   $0xb9fd,-0x102c(%rbp)
    b55a:	fd b9 
    b55c:	c6 85 d6 ef ff ff f8 	movb   $0xf8,-0x102a(%rbp)
    b563:	c7 85 d7 ef ff ff 59 	movl   $0x7f4f2559,-0x1029(%rbp)
    b56a:	25 4f 7f 
    b56d:	66 c7 85 db ef ff ff 	movw   $0x4f7f,-0x1025(%rbp)
    b574:	7f 4f 
    b576:	c6 85 dd ef ff ff 25 	movb   $0x25,-0x1023(%rbp)
    b57d:	c7 85 de ef ff ff 3b 	movl   $0x7008b3b,-0x1022(%rbp)
    b584:	8b 00 07 
    b587:	66 c7 85 e2 ef ff ff 	movw   $0xf88b,-0x101e(%rbp)
    b58e:	8b f8 
    b590:	c6 85 e4 ef ff ff a4 	movb   $0xa4,-0x101c(%rbp)
    b597:	c7 85 e5 ef ff ff fb 	movl   $0xfb137ffb,-0x101b(%rbp)
    b59e:	7f 13 fb 
    b5a1:	66 c7 85 e9 ef ff ff 	movw   $0xfb25,-0x1017(%rbp)
    b5a8:	25 fb 
    b5aa:	c6 85 eb ef ff ff 13 	movb   $0x13,-0x1015(%rbp)
    b5b1:	c7 85 ec ef ff ff fd 	movl   $0x705fdfd,-0x1014(%rbp)
    b5b8:	fd 05 07 
    b5bb:	66 c7 85 f0 ef ff ff 	movw   $0xfb3b,-0x1010(%rbp)
    b5c2:	3b fb 
    b5c4:	c6 85 f2 ef ff ff fd 	movb   $0xfd,-0x100e(%rbp)
    b5cb:	c7 85 f3 ef ff ff 01 	movl   $0x7fcb1301,-0x100d(%rbp)
    b5d2:	13 cb 7f 
    b5d5:	66 c7 85 f7 ef ff ff 	movw   $0x0,-0x1009(%rbp)
    b5dc:	00 00 
    b5de:	c6 85 f9 ef ff ff 7f 	movb   $0x7f,-0x1007(%rbp)
    b5e5:	c7 85 fa ef ff ff b9 	movl   $0xf8b9a4b9,-0x1006(%rbp)
    b5ec:	a4 b9 f8 
    b5ef:	66 c7 85 fe ef ff ff 	movw   $0xb93b,-0x1002(%rbp)
    b5f6:	3b b9 
    b5f8:	c6 85 00 f0 ff ff 8b 	movb   $0x8b,-0x1000(%rbp)
    b5ff:	c7 85 01 f0 ff ff 7f 	movl   $0x671d257f,-0xfff(%rbp)
    b606:	25 1d 67 
    b609:	66 c7 85 05 f0 ff ff 	movw   $0x5900,-0xffb(%rbp)
    b610:	00 59 
    b612:	c6 85 07 f0 ff ff 00 	movb   $0x0,-0xff9(%rbp)
    b619:	c7 85 08 f0 ff ff 00 	movl   $0xe0e000,-0xff8(%rbp)
    b620:	e0 e0 00 
    b623:	66 c7 85 0c f0 ff ff 	movw   $0x1fb,-0xff4(%rbp)
    b62a:	fb 01 
    b62c:	c6 85 0e f0 ff ff b9 	movb   $0xb9,-0xff2(%rbp)
    b633:	c7 85 0f f0 ff ff fc 	movl   $0x34f13fc,-0xff1(%rbp)
    b63a:	13 4f 03 
    b63d:	66 c7 85 13 f0 ff ff 	movw   $0xfcfb,-0xfed(%rbp)
    b644:	fb fc 
    b646:	c6 85 15 f0 ff ff fc 	movb   $0xfc,-0xfeb(%rbp)
    b64d:	48 8d 85 f4 ec ff ff 	lea    -0x130c(%rbp),%rax
    b654:	48 89 85 90 ef ff ff 	mov    %rax,-0x1070(%rbp)
    b65b:	48 8d 85 f4 ec ff ff 	lea    -0x130c(%rbp),%rax
    b662:	48 89 85 98 ef ff ff 	mov    %rax,-0x1068(%rbp)
    b669:	48 8d 85 f4 ec ff ff 	lea    -0x130c(%rbp),%rax
    b670:	48 89 85 a0 ef ff ff 	mov    %rax,-0x1060(%rbp)
    b677:	48 8d 85 f4 ec ff ff 	lea    -0x130c(%rbp),%rax
    b67e:	48 89 85 a8 ef ff ff 	mov    %rax,-0x1058(%rbp)
    b685:	48 8d 85 f4 ec ff ff 	lea    -0x130c(%rbp),%rax
    b68c:	48 89 85 b0 ef ff ff 	mov    %rax,-0x1050(%rbp)
    b693:	48 8d 85 f4 ec ff ff 	lea    -0x130c(%rbp),%rax
    b69a:	48 89 85 b8 ef ff ff 	mov    %rax,-0x1048(%rbp)
    b6a1:	48 8d 85 f4 ec ff ff 	lea    -0x130c(%rbp),%rax
    b6a8:	48 89 85 c0 ef ff ff 	mov    %rax,-0x1040(%rbp)
    b6af:	48 8d 85 f4 ec ff ff 	lea    -0x130c(%rbp),%rax
    b6b6:	48 89 85 c8 ef ff ff 	mov    %rax,-0x1038(%rbp)
    b6bd:	c7 85 0c ed ff ff 00 	movl   $0x0,-0x12f4(%rbp)
    b6c4:	00 00 00 
    b6c7:	eb 1e                	jmp    b6e7 <func_65+0x13f6>
    b6c9:	8b 85 0c ed ff ff    	mov    -0x12f4(%rbp),%eax
    b6cf:	48 98                	cltq   
    b6d1:	48 8d 15 e0 a3 00 00 	lea    0xa3e0(%rip),%rdx        # 15ab8 <g_278>
    b6d8:	48 89 94 c5 50 ef ff 	mov    %rdx,-0x10b0(%rbp,%rax,8)
    b6df:	ff 
    b6e0:	83 85 0c ed ff ff 01 	addl   $0x1,-0x12f4(%rbp)
    b6e7:	83 bd 0c ed ff ff 02 	cmpl   $0x2,-0x12f4(%rbp)
    b6ee:	7e d9                	jle    b6c9 <func_65+0x13d8>
    b6f0:	8b 05 da 99 00 00    	mov    0x99da(%rip),%eax        # 150d0 <g_81+0x90>
    b6f6:	48 98                	cltq   
    b6f8:	48 8d 15 39 99 00 00 	lea    0x9939(%rip),%rdx        # 15038 <g_56>
    b6ff:	0f b6 04 10          	movzbl (%rax,%rdx,1),%eax
    b703:	44 0f b6 f8          	movzbl %al,%r15d
    b707:	48 8b 85 b8 ec ff ff 	mov    -0x1348(%rbp),%rax
    b70e:	48 8b 00             	mov    (%rax),%rax
    b711:	0f b6 00             	movzbl (%rax),%eax
    b714:	0f be d8             	movsbl %al,%ebx
    b717:	8b 85 cc ec ff ff    	mov    -0x1334(%rbp),%eax
    b71d:	44 0f bf e0          	movswl %ax,%r12d
    b721:	8b 05 a9 99 00 00    	mov    0x99a9(%rip),%eax        # 150d0 <g_81+0x90>
    b727:	44 0f be e8          	movsbl %al,%r13d
    b72b:	44 8b 35 cf 9a 00 00 	mov    0x9acf(%rip),%r14d        # 15201 <g_144+0x41>
    b732:	48 83 bd f0 ed ff ff 	cmpq   $0x0,-0x1210(%rbp)
    b739:	00 
    b73a:	75 1f                	jne    b75b <func_65+0x146a>
    b73c:	48 c7 c6 ff ff ff ff 	mov    $0xffffffffffffffff,%rsi
    b743:	bf 09 00 00 00       	mov    $0x9,%edi
    b748:	e8 f4 80 ff ff       	callq  3841 <safe_add_func_int64_t_s_s>
    b74d:	8b 05 fe 9e 00 00    	mov    0x9efe(%rip),%eax        # 15651 <g_246+0x2d1>
    b753:	48 98                	cltq   
    b755:	48 83 f8 05          	cmp    $0x5,%rax
    b759:	76 07                	jbe    b762 <func_65+0x1471>
    b75b:	b8 01 00 00 00       	mov    $0x1,%eax
    b760:	eb 05                	jmp    b767 <func_65+0x1476>
    b762:	b8 00 00 00 00       	mov    $0x0,%eax
    b767:	48 63 d0             	movslq %eax,%rdx
    b76a:	0f b6 05 3b ef 00 00 	movzbl 0xef3b(%rip),%eax        # 1a6ac <g_116>
    b771:	0f b6 c0             	movzbl %al,%eax
    b774:	48 89 d6             	mov    %rdx,%rsi
    b777:	48 89 c7             	mov    %rax,%rdi
    b77a:	e8 c2 80 ff ff       	callq  3841 <safe_add_func_int64_t_s_s>
    b77f:	48 89 05 0a 9a 00 00 	mov    %rax,0x9a0a(%rip)        # 15190 <g_127>
    b786:	48 8b 05 03 9a 00 00 	mov    0x9a03(%rip),%rax        # 15190 <g_127>
    b78d:	89 c2                	mov    %eax,%edx
    b78f:	48 8b 85 c8 ee ff ff 	mov    -0x1138(%rbp),%rax
    b796:	21 d0                	and    %edx,%eax
    b798:	25 02 aa 2f bf       	and    $0xbf2faa02,%eax
    b79d:	89 85 04 f2 ff ff    	mov    %eax,-0xdfc(%rbp)
    b7a3:	48 8b 05 b6 e8 00 00 	mov    0xe8b6(%rip),%rax        # 1a060 <g_55>
    b7aa:	0f b6 10             	movzbl (%rax),%edx
    b7ad:	48 8b 85 d0 ee ff ff 	mov    -0x1130(%rbp),%rax
    b7b4:	88 10                	mov    %dl,(%rax)
    b7b6:	48 8b 85 d0 ee ff ff 	mov    -0x1130(%rbp),%rax
    b7bd:	0f b6 00             	movzbl (%rax),%eax
    b7c0:	89 c2                	mov    %eax,%edx
    b7c2:	8b 85 cc ec ff ff    	mov    -0x1334(%rbp),%eax
    b7c8:	31 d0                	xor    %edx,%eax
    b7ca:	0f be c0             	movsbl %al,%eax
    b7cd:	44 89 f6             	mov    %r14d,%esi
    b7d0:	89 c7                	mov    %eax,%edi
    b7d2:	e8 5e 7b ff ff       	callq  3335 <safe_rshift_func_int8_t_s_s>
    b7d7:	0f be c0             	movsbl %al,%eax
    b7da:	44 89 ee             	mov    %r13d,%esi
    b7dd:	89 c7                	mov    %eax,%edi
    b7df:	e8 4d 7a ff ff       	callq  3231 <safe_mod_func_int8_t_s_s>
    b7e4:	3c 09                	cmp    $0x9,%al
    b7e6:	0f 9f c0             	setg   %al
    b7e9:	0f b6 c0             	movzbl %al,%eax
    b7ec:	44 89 e6             	mov    %r12d,%esi
    b7ef:	89 c7                	mov    %eax,%edi
    b7f1:	e8 ff 7b ff ff       	callq  33f5 <safe_mul_func_int16_t_s_s>
    b7f6:	98                   	cwtl   
    b7f7:	48 8b 95 c0 ee ff ff 	mov    -0x1140(%rbp),%rdx
    b7fe:	66 c7 02 db 0a       	movw   $0xadb,(%rdx)
    b803:	89 c6                	mov    %eax,%esi
    b805:	bf db 0a 00 00       	mov    $0xadb,%edi
    b80a:	e8 54 7d ff ff       	callq  3563 <safe_rshift_func_int16_t_s_u>
    b80f:	98                   	cwtl   
    b810:	be 08 00 00 00       	mov    $0x8,%esi
    b815:	89 c7                	mov    %eax,%edi
    b817:	e8 b7 7b ff ff       	callq  33d3 <safe_sub_func_int16_t_s_s>
    b81c:	48 0f bf c0          	movswq %ax,%rax
    b820:	48 be e0 23 f5 be 79 	movabs $0x17b5e379bef523e0,%rsi
    b827:	e3 b5 17 
    b82a:	48 89 c7             	mov    %rax,%rdi
    b82d:	e8 19 88 ff ff       	callq  404b <safe_sub_func_uint64_t_u_u>
    b832:	8b 95 f0 ec ff ff    	mov    -0x1310(%rbp),%edx
    b838:	89 d2                	mov    %edx,%edx
    b83a:	48 39 d0             	cmp    %rdx,%rax
    b83d:	0f 93 c0             	setae  %al
    b840:	89 c2                	mov    %eax,%edx
    b842:	48 8b 85 d8 ee ff ff 	mov    -0x1128(%rbp),%rax
    b849:	88 10                	mov    %dl,(%rax)
    b84b:	48 8b 85 d8 ee ff ff 	mov    -0x1128(%rbp),%rax
    b852:	0f b6 00             	movzbl (%rax),%eax
    b855:	88 05 05 9b 00 00    	mov    %al,0x9b05(%rip)        # 15360 <g_210>
    b85b:	0f b6 05 fe 9a 00 00 	movzbl 0x9afe(%rip),%eax        # 15360 <g_210>
    b862:	84 c0                	test   %al,%al
    b864:	0f 94 c0             	sete   %al
    b867:	0f b6 c0             	movzbl %al,%eax
    b86a:	89 de                	mov    %ebx,%esi
    b86c:	89 c7                	mov    %eax,%edi
    b86e:	e8 f7 79 ff ff       	callq  326a <safe_div_func_int8_t_s_s>
    b873:	88 05 3f a2 00 00    	mov    %al,0xa23f(%rip)        # 15ab8 <g_278>
    b879:	0f b6 05 38 a2 00 00 	movzbl 0xa238(%rip),%eax        # 15ab8 <g_278>
    b880:	0f be c0             	movsbl %al,%eax
    b883:	be 06 00 00 00       	mov    $0x6,%esi
    b888:	89 c7                	mov    %eax,%edi
    b88a:	e8 a6 7a ff ff       	callq  3335 <safe_rshift_func_int8_t_s_s>
    b88f:	48 0f be d0          	movsbq %al,%rdx
    b893:	48 8d 05 ce e7 00 00 	lea    0xe7ce(%rip),%rax        # 1a068 <g_143>
    b89a:	48 39 85 a0 ed ff ff 	cmp    %rax,-0x1260(%rbp)
    b8a1:	0f 94 c0             	sete   %al
    b8a4:	0f b6 c0             	movzbl %al,%eax
    b8a7:	48 89 d6             	mov    %rdx,%rsi
    b8aa:	48 89 c7             	mov    %rax,%rdi
    b8ad:	e8 02 81 ff ff       	callq  39b4 <safe_mod_func_int64_t_s_s>
    b8b2:	49 39 c7             	cmp    %rax,%r15
    b8b5:	0f 84 28 04 00 00    	je     bce3 <func_65+0x19f2>
    b8bb:	48 c7 85 08 ef ff ff 	movq   $0x0,-0x10f8(%rbp)
    b8c2:	00 00 00 00 
    b8c6:	c7 85 10 ed ff ff 05 	movl   $0x5,-0x12f0(%rbp)
    b8cd:	00 00 00 
    b8d0:	c6 05 d5 ed 00 00 03 	movb   $0x3,0xedd5(%rip)        # 1a6ac <g_116>
    b8d7:	e9 ec 03 00 00       	jmpq   bcc8 <func_65+0x19d7>
    b8dc:	48 c7 85 10 ef ff ff 	movq   $0x0,-0x10f0(%rbp)
    b8e3:	00 00 00 00 
    b8e7:	48 8d 05 9e 98 00 00 	lea    0x989e(%rip),%rax        # 1518c <g_90>
    b8ee:	48 89 85 18 ef ff ff 	mov    %rax,-0x10e8(%rbp)
    b8f5:	c7 85 88 ed ff ff 01 	movl   $0x1,-0x1278(%rbp)
    b8fc:	00 00 00 
    b8ff:	48 8d 85 88 ed ff ff 	lea    -0x1278(%rbp),%rax
    b906:	48 89 85 20 ef ff ff 	mov    %rax,-0x10e0(%rbp)
    b90d:	48 8d 85 70 ef ff ff 	lea    -0x1090(%rbp),%rax
    b914:	48 83 c0 0c          	add    $0xc,%rax
    b918:	48 89 85 28 ef ff ff 	mov    %rax,-0x10d8(%rbp)
    b91f:	c7 85 14 ed ff ff 00 	movl   $0x0,-0x12ec(%rbp)
    b926:	00 00 00 
    b929:	eb 4a                	jmp    b975 <func_65+0x1684>
    b92b:	c7 85 18 ed ff ff 00 	movl   $0x0,-0x12e8(%rbp)
    b932:	00 00 00 
    b935:	eb 2e                	jmp    b965 <func_65+0x1674>
    b937:	8b 85 18 ed ff ff    	mov    -0x12e8(%rbp),%eax
    b93d:	48 98                	cltq   
    b93f:	8b 95 14 ed ff ff    	mov    -0x12ec(%rbp),%edx
    b945:	48 63 d2             	movslq %edx,%rdx
    b948:	48 c1 e2 02          	shl    $0x2,%rdx
    b94c:	48 01 c2             	add    %rax,%rdx
    b94f:	48 8d 85 f8 ec ff ff 	lea    -0x1308(%rbp),%rax
    b956:	48 89 84 d5 e0 f7 ff 	mov    %rax,-0x820(%rbp,%rdx,8)
    b95d:	ff 
    b95e:	83 85 18 ed ff ff 01 	addl   $0x1,-0x12e8(%rbp)
    b965:	83 bd 18 ed ff ff 03 	cmpl   $0x3,-0x12e8(%rbp)
    b96c:	7e c9                	jle    b937 <func_65+0x1646>
    b96e:	83 85 14 ed ff ff 01 	addl   $0x1,-0x12ec(%rbp)
    b975:	83 bd 14 ed ff ff 01 	cmpl   $0x1,-0x12ec(%rbp)
    b97c:	7e ad                	jle    b92b <func_65+0x163a>
    b97e:	48 8b 05 f3 e6 00 00 	mov    0xe6f3(%rip),%rax        # 1a078 <g_212>
    b985:	48 c7 00 00 00 00 00 	movq   $0x0,(%rax)
    b98c:	48 8b 85 b8 ec ff ff 	mov    -0x1348(%rbp),%rax
    b993:	48 8b 00             	mov    (%rax),%rax
    b996:	0f b6 00             	movzbl (%rax),%eax
    b999:	0f be d8             	movsbl %al,%ebx
    b99c:	8b 85 88 ed ff ff    	mov    -0x1278(%rbp),%eax
    b9a2:	88 05 11 a1 00 00    	mov    %al,0xa111(%rip)        # 15ab9 <g_296>
    b9a8:	0f b6 05 0a a1 00 00 	movzbl 0xa10a(%rip),%eax        # 15ab9 <g_296>
    b9af:	0f be d0             	movsbl %al,%edx
    b9b2:	0f b6 05 86 96 00 00 	movzbl 0x9686(%rip),%eax        # 1503f <g_56+0x7>
    b9b9:	0f b6 c8             	movzbl %al,%ecx
    b9bc:	48 8b 85 c0 ee ff ff 	mov    -0x1140(%rbp),%rax
    b9c3:	66 89 08             	mov    %cx,(%rax)
    b9c6:	48 8b 85 c0 ee ff ff 	mov    -0x1140(%rbp),%rax
    b9cd:	0f b7 00             	movzwl (%rax),%eax
    b9d0:	98                   	cwtl   
    b9d1:	89 d6                	mov    %edx,%esi
    b9d3:	89 c7                	mov    %eax,%edi
    b9d5:	e8 3c 7a ff ff       	callq  3416 <safe_mod_func_int16_t_s_s>
    b9da:	44 0f bf f0          	movswl %ax,%r14d
    b9de:	8b 85 cc ec ff ff    	mov    -0x1334(%rbp),%eax
    b9e4:	44 0f b6 e0          	movzbl %al,%r12d
    b9e8:	48 8b 85 d8 ec ff ff 	mov    -0x1328(%rbp),%rax
    b9ef:	48 8b 00             	mov    (%rax),%rax
    b9f2:	0f b6 00             	movzbl (%rax),%eax
    b9f5:	44 0f be e8          	movsbl %al,%r13d
    b9f9:	8b 05 8d 96 00 00    	mov    0x968d(%rip),%eax        # 1508c <g_81+0x4c>
    b9ff:	98                   	cwtl   
    ba00:	be 00 00 00 00       	mov    $0x0,%esi
    ba05:	89 c7                	mov    %eax,%edi
    ba07:	e8 c7 79 ff ff       	callq  33d3 <safe_sub_func_int16_t_s_s>
    ba0c:	0f b6 c0             	movzbl %al,%eax
    ba0f:	be 00 00 00 00       	mov    $0x0,%esi
    ba14:	89 c7                	mov    %eax,%edi
    ba16:	e8 a3 82 ff ff       	callq  3cbe <safe_rshift_func_uint8_t_u_u>
    ba1b:	0f be c0             	movsbl %al,%eax
    ba1e:	44 89 ee             	mov    %r13d,%esi
    ba21:	89 c7                	mov    %eax,%edi
    ba23:	e8 42 78 ff ff       	callq  326a <safe_div_func_int8_t_s_s>
    ba28:	0f b6 c0             	movzbl %al,%eax
    ba2b:	be 03 00 00 00       	mov    $0x3,%esi
    ba30:	89 c7                	mov    %eax,%edi
    ba32:	e8 5c 81 ff ff       	callq  3b93 <safe_mul_func_uint8_t_u_u>
    ba37:	48 8b 05 19 9c 00 00 	mov    0x9c19(%rip),%rax        # 15657 <g_246+0x2d7>
    ba3e:	48 85 c0             	test   %rax,%rax
    ba41:	0f 9f c0             	setg   %al
    ba44:	44 0f b6 e8          	movzbl %al,%r13d
    ba48:	48 8b 05 ee 9b 00 00 	mov    0x9bee(%rip),%rax        # 1563d <g_246+0x2bd>
    ba4f:	88 05 0d 99 00 00    	mov    %al,0x990d(%rip)        # 15362 <g_210+0x2>
    ba55:	0f b6 05 06 99 00 00 	movzbl 0x9906(%rip),%eax        # 15362 <g_210+0x2>
    ba5c:	0f be c0             	movsbl %al,%eax
    ba5f:	be 05 00 00 00       	mov    $0x5,%esi
    ba64:	89 c7                	mov    %eax,%edi
    ba66:	e8 36 78 ff ff       	callq  32a1 <safe_lshift_func_int8_t_s_s>
    ba6b:	66 98                	cbtw   
    ba6d:	0f b7 c0             	movzwl %ax,%eax
    ba70:	44 89 ee             	mov    %r13d,%esi
    ba73:	89 c7                	mov    %eax,%edi
    ba75:	e8 44 83 ff ff       	callq  3dbe <safe_lshift_func_uint16_t_u_s>
    ba7a:	0f b7 c0             	movzwl %ax,%eax
    ba7d:	39 85 cc ec ff ff    	cmp    %eax,-0x1334(%rbp)
    ba83:	0f 94 c0             	sete   %al
    ba86:	0f b6 c0             	movzbl %al,%eax
    ba89:	be 0d 00 00 00       	mov    $0xd,%esi
    ba8e:	89 c7                	mov    %eax,%edi
    ba90:	e8 29 83 ff ff       	callq  3dbe <safe_lshift_func_uint16_t_u_s>
    ba95:	0f be d0             	movsbl %al,%edx
    ba98:	8b 85 cc ec ff ff    	mov    -0x1334(%rbp),%eax
    ba9e:	0f be c0             	movsbl %al,%eax
    baa1:	89 d6                	mov    %edx,%esi
    baa3:	89 c7                	mov    %eax,%edi
    baa5:	e8 c0 77 ff ff       	callq  326a <safe_div_func_int8_t_s_s>
    baaa:	84 c0                	test   %al,%al
    baac:	75 0a                	jne    bab8 <func_65+0x17c7>
    baae:	48 83 bd a8 ed ff ff 	cmpq   $0x0,-0x1258(%rbp)
    bab5:	00 
    bab6:	74 07                	je     babf <func_65+0x17ce>
    bab8:	b8 01 00 00 00       	mov    $0x1,%eax
    babd:	eb 05                	jmp    bac4 <func_65+0x17d3>
    babf:	b8 00 00 00 00       	mov    $0x0,%eax
    bac4:	0f b6 c0             	movzbl %al,%eax
    bac7:	44 89 e6             	mov    %r12d,%esi
    baca:	89 c7                	mov    %eax,%edi
    bacc:	e8 0a 81 ff ff       	callq  3bdb <safe_div_func_uint8_t_u_u>
    bad1:	0f b6 c0             	movzbl %al,%eax
    bad4:	41 39 c6             	cmp    %eax,%r14d
    bad7:	0f 95 c0             	setne  %al
    bada:	0f b6 c0             	movzbl %al,%eax
    badd:	48 8b 95 50 f3 ff ff 	mov    -0xcb0(%rbp),%rdx
    bae4:	09 d0                	or     %edx,%eax
    bae6:	44 0f b7 e0          	movzwl %ax,%r12d
    baea:	48 8b 85 08 ef ff ff 	mov    -0x10f8(%rbp),%rax
    baf1:	48 89 85 18 ef ff ff 	mov    %rax,-0x10e8(%rbp)
    baf8:	48 8b 85 18 ef ff ff 	mov    -0x10e8(%rbp),%rax
    baff:	48 3b 85 10 ef ff ff 	cmp    -0x10f0(%rbp),%rax
    bb06:	0f 95 c0             	setne  %al
    bb09:	0f b6 c0             	movzbl %al,%eax
    bb0c:	48 8d 95 70 ed ff ff 	lea    -0x1290(%rbp),%rdx
    bb13:	48 89 95 e8 ee ff ff 	mov    %rdx,-0x1118(%rbp)
    bb1a:	89 c6                	mov    %eax,%esi
    bb1c:	bf 01 00 00 00       	mov    $0x1,%edi
    bb21:	e8 22 83 ff ff       	callq  3e48 <safe_rshift_func_uint16_t_u_s>
    bb26:	0f b7 c0             	movzwl %ax,%eax
    bb29:	44 89 e6             	mov    %r12d,%esi
    bb2c:	89 c7                	mov    %eax,%edi
    bb2e:	e8 ec 81 ff ff       	callq  3d1f <safe_sub_func_uint16_t_u_u>
    bb33:	0f b7 c0             	movzwl %ax,%eax
    bb36:	23 85 cc ec ff ff    	and    -0x1334(%rbp),%eax
    bb3c:	89 c2                	mov    %eax,%edx
    bb3e:	8b 85 88 ed ff ff    	mov    -0x1278(%rbp),%eax
    bb44:	39 c2                	cmp    %eax,%edx
    bb46:	0f 9e c0             	setle  %al
    bb49:	0f b6 c0             	movzbl %al,%eax
    bb4c:	be b5 00 00 00       	mov    $0xb5,%esi
    bb51:	89 c7                	mov    %eax,%edi
    bb53:	e8 3b 80 ff ff       	callq  3b93 <safe_mul_func_uint8_t_u_u>
    bb58:	0f be c0             	movsbl %al,%eax
    bb5b:	89 de                	mov    %ebx,%esi
    bb5d:	89 c7                	mov    %eax,%edi
    bb5f:	e8 ae 76 ff ff       	callq  3212 <safe_mul_func_int8_t_s_s>
    bb64:	0f be c0             	movsbl %al,%eax
    bb67:	33 85 cc ec ff ff    	xor    -0x1334(%rbp),%eax
    bb6d:	89 c2                	mov    %eax,%edx
    bb6f:	48 8b 85 20 ef ff ff 	mov    -0x10e0(%rbp),%rax
    bb76:	89 10                	mov    %edx,(%rax)
    bb78:	0f b7 05 d6 9a 00 00 	movzwl 0x9ad6(%rip),%eax        # 15655 <g_246+0x2d5>
    bb7f:	48 0f bf d8          	movswq %ax,%rbx
    bb83:	48 8b 85 c0 ec ff ff 	mov    -0x1340(%rbp),%rax
    bb8a:	4c 8b 20             	mov    (%rax),%r12
    bb8d:	48 8b 85 70 ed ff ff 	mov    -0x1290(%rbp),%rax
    bb94:	8b 10                	mov    (%rax),%edx
    bb96:	48 8b 85 20 ef ff ff 	mov    -0x10e0(%rbp),%rax
    bb9d:	89 10                	mov    %edx,(%rax)
    bb9f:	48 8b 85 20 ef ff ff 	mov    -0x10e0(%rbp),%rax
    bba6:	8b 00                	mov    (%rax),%eax
    bba8:	85 c0                	test   %eax,%eax
    bbaa:	74 20                	je     bbcc <func_65+0x18db>
    bbac:	48 8b 05 e5 95 00 00 	mov    0x95e5(%rip),%rax        # 15198 <g_135>
    bbb3:	98                   	cwtl   
    bbb4:	be 0d 00 00 00       	mov    $0xd,%esi
    bbb9:	89 c7                	mov    %eax,%edi
    bbbb:	e8 21 79 ff ff       	callq  34e1 <safe_lshift_func_int16_t_s_u>
    bbc0:	66 85 c0             	test   %ax,%ax
    bbc3:	74 07                	je     bbcc <func_65+0x18db>
    bbc5:	b8 01 00 00 00       	mov    $0x1,%eax
    bbca:	eb 05                	jmp    bbd1 <func_65+0x18e0>
    bbcc:	b8 00 00 00 00       	mov    $0x0,%eax
    bbd1:	89 c2                	mov    %eax,%edx
    bbd3:	48 8b 85 28 ef ff ff 	mov    -0x10d8(%rbp),%rax
    bbda:	89 10                	mov    %edx,(%rax)
    bbdc:	48 8b 85 28 ef ff ff 	mov    -0x10d8(%rbp),%rax
    bbe3:	44 8b 28             	mov    (%rax),%r13d
    bbe6:	48 8b 85 f0 f2 ff ff 	mov    -0xd10(%rbp),%rax
    bbed:	41 89 c6             	mov    %eax,%r14d
    bbf0:	48 8b 05 a9 95 00 00 	mov    0x95a9(%rip),%rax        # 151a0 <g_140>
    bbf7:	48 89 c2             	mov    %rax,%rdx
    bbfa:	8b 85 cc ec ff ff    	mov    -0x1334(%rbp),%eax
    bc00:	48 98                	cltq   
    bc02:	48 89 d6             	mov    %rdx,%rsi
    bc05:	48 89 c7             	mov    %rax,%rdi
    bc08:	e8 a7 7d ff ff       	callq  39b4 <safe_mod_func_int64_t_s_s>
    bc0d:	98                   	cwtl   
    bc0e:	44 89 f6             	mov    %r14d,%esi
    bc11:	89 c7                	mov    %eax,%edi
    bc13:	e8 4b 79 ff ff       	callq  3563 <safe_rshift_func_int16_t_s_u>
    bc18:	0f bf d0             	movswl %ax,%edx
    bc1b:	8b 05 af 94 00 00    	mov    0x94af(%rip),%eax        # 150d0 <g_81+0x90>
    bc21:	39 c2                	cmp    %eax,%edx
    bc23:	0f 94 c0             	sete   %al
    bc26:	0f b6 c0             	movzbl %al,%eax
    bc29:	be 01 00 00 00       	mov    $0x1,%esi
    bc2e:	89 c7                	mov    %eax,%edi
    bc30:	e8 08 81 ff ff       	callq  3d3d <safe_mul_func_uint16_t_u_u>
    bc35:	0f b7 c0             	movzwl %ax,%eax
    bc38:	44 09 e8             	or     %r13d,%eax
    bc3b:	89 c0                	mov    %eax,%eax
    bc3d:	49 39 c4             	cmp    %rax,%r12
    bc40:	8b 85 10 ed ff ff    	mov    -0x12f0(%rbp),%eax
    bc46:	3b 85 cc ec ff ff    	cmp    -0x1334(%rbp),%eax
    bc4c:	0f 9d c0             	setge  %al
    bc4f:	0f b6 c0             	movzbl %al,%eax
    bc52:	48 89 de             	mov    %rbx,%rsi
    bc55:	48 89 c7             	mov    %rax,%rdi
    bc58:	e8 52 84 ff ff       	callq  40af <safe_div_func_uint64_t_u_u>
    bc5d:	83 e0 01             	and    $0x1,%eax
    bc60:	88 05 fc 96 00 00    	mov    %al,0x96fc(%rip)        # 15362 <g_210+0x2>
    bc66:	0f b6 05 f5 96 00 00 	movzbl 0x96f5(%rip),%eax        # 15362 <g_210+0x2>
    bc6d:	0f be d0             	movsbl %al,%edx
    bc70:	0f b6 05 98 95 00 00 	movzbl 0x9598(%rip),%eax        # 1520f <g_144+0x4f>
    bc77:	83 e0 07             	and    $0x7,%eax
    bc7a:	0f b6 c0             	movzbl %al,%eax
    bc7d:	39 c2                	cmp    %eax,%edx
    bc7f:	0f 9e c0             	setle  %al
    bc82:	0f b6 c0             	movzbl %al,%eax
    bc85:	89 85 10 ed ff ff    	mov    %eax,-0x12f0(%rbp)
    bc8b:	8b 95 10 ed ff ff    	mov    -0x12f0(%rbp),%edx
    bc91:	8b 05 91 94 00 00    	mov    0x9491(%rip),%eax        # 15128 <g_82+0x8>
    bc97:	31 d0                	xor    %edx,%eax
    bc99:	89 05 89 94 00 00    	mov    %eax,0x9489(%rip)        # 15128 <g_82+0x8>
    bc9f:	8b 05 83 94 00 00    	mov    0x9483(%rip),%eax        # 15128 <g_82+0x8>
    bca5:	89 85 ec ec ff ff    	mov    %eax,-0x1314(%rbp)
    bcab:	0f b6 05 fa e9 00 00 	movzbl 0xe9fa(%rip),%eax        # 1a6ac <g_116>
    bcb2:	0f b6 c0             	movzbl %al,%eax
    bcb5:	be 01 00 00 00       	mov    $0x1,%esi
    bcba:	48 89 c7             	mov    %rax,%rdi
    bcbd:	e8 6c 83 ff ff       	callq  402e <safe_add_func_uint64_t_u_u>
    bcc2:	88 05 e4 e9 00 00    	mov    %al,0xe9e4(%rip)        # 1a6ac <g_116>
    bcc8:	0f b6 05 dd e9 00 00 	movzbl 0xe9dd(%rip),%eax        # 1a6ac <g_116>
    bccf:	3c 06                	cmp    $0x6,%al
    bcd1:	0f 86 05 fc ff ff    	jbe    b8dc <func_65+0x15eb>
    bcd7:	48 8b 85 c0 ec ff ff 	mov    -0x1340(%rbp),%rax
    bcde:	e9 e8 1c 00 00       	jmpq   d9cb <func_65+0x36da>
    bce3:	48 c7 85 f0 ee ff ff 	movq   $0x1,-0x1110(%rbp)
    bcea:	01 00 00 00 
    bcee:	66 c7 85 ea ec ff ff 	movw   $0xfffe,-0x1316(%rbp)
    bcf5:	fe ff 
    bcf7:	c7 85 88 ed ff ff ff 	movl   $0xffffffff,-0x1278(%rbp)
    bcfe:	ff ff ff 
    bd01:	66 c7 85 e4 ec ff ff 	movw   $0x3,-0x131c(%rbp)
    bd08:	03 00 
    bd0a:	eb 20                	jmp    bd2c <func_65+0x1a3b>
    bd0c:	48 8d 05 ad 9d 00 00 	lea    0x9dad(%rip),%rax        # 15ac0 <g_333>
    bd13:	48 89 85 00 ef ff ff 	mov    %rax,-0x1100(%rbp)
    bd1a:	c7 85 64 ed ff ff 05 	movl   $0x5,-0x129c(%rbp)
    bd21:	00 00 00 
    bd24:	66 83 85 e4 ec ff ff 	addw   $0x1,-0x131c(%rbp)
    bd2b:	01 
    bd2c:	66 83 bd e4 ec ff ff 	cmpw   $0x9,-0x131c(%rbp)
    bd33:	09 
    bd34:	76 d6                	jbe    bd0c <func_65+0x1a1b>
    bd36:	48 8b 05 3b e3 00 00 	mov    0xe33b(%rip),%rax        # 1a078 <g_212>
    bd3d:	48 8b 10             	mov    (%rax),%rdx
    bd40:	48 8b 85 e8 ee ff ff 	mov    -0x1118(%rbp),%rax
    bd47:	48 89 10             	mov    %rdx,(%rax)
    bd4a:	c7 85 f8 ec ff ff 07 	movl   $0x7,-0x1308(%rbp)
    bd51:	00 00 00 
    bd54:	e9 fe 02 00 00       	jmpq   c057 <func_65+0x1d66>
    bd59:	48 8d 85 ec ec ff ff 	lea    -0x1314(%rbp),%rax
    bd60:	48 89 85 e0 f7 ff ff 	mov    %rax,-0x820(%rbp)
    bd67:	48 8d 85 c0 f1 ff ff 	lea    -0xe40(%rbp),%rax
    bd6e:	48 83 c0 04          	add    $0x4,%rax
    bd72:	48 89 85 e8 f7 ff ff 	mov    %rax,-0x818(%rbp)
    bd79:	48 8d 85 f4 ec ff ff 	lea    -0x130c(%rbp),%rax
    bd80:	48 89 85 f0 f7 ff ff 	mov    %rax,-0x810(%rbp)
    bd87:	48 8d 85 88 ed ff ff 	lea    -0x1278(%rbp),%rax
    bd8e:	48 89 85 f8 f7 ff ff 	mov    %rax,-0x808(%rbp)
    bd95:	48 8d 85 88 ed ff ff 	lea    -0x1278(%rbp),%rax
    bd9c:	48 89 85 00 f8 ff ff 	mov    %rax,-0x800(%rbp)
    bda3:	48 8d 85 f4 ec ff ff 	lea    -0x130c(%rbp),%rax
    bdaa:	48 89 85 08 f8 ff ff 	mov    %rax,-0x7f8(%rbp)
    bdb1:	48 8d 85 88 ed ff ff 	lea    -0x1278(%rbp),%rax
    bdb8:	48 89 85 10 f8 ff ff 	mov    %rax,-0x7f0(%rbp)
    bdbf:	48 8d 85 88 ed ff ff 	lea    -0x1278(%rbp),%rax
    bdc6:	48 89 85 18 f8 ff ff 	mov    %rax,-0x7e8(%rbp)
    bdcd:	48 8d 85 f4 ec ff ff 	lea    -0x130c(%rbp),%rax
    bdd4:	48 89 85 20 f8 ff ff 	mov    %rax,-0x7e0(%rbp)
    bddb:	48 8d 85 c0 f1 ff ff 	lea    -0xe40(%rbp),%rax
    bde2:	48 83 c0 04          	add    $0x4,%rax
    bde6:	48 89 85 28 f8 ff ff 	mov    %rax,-0x7d8(%rbp)
    bded:	48 8d 85 ec ec ff ff 	lea    -0x1314(%rbp),%rax
    bdf4:	48 89 85 30 f8 ff ff 	mov    %rax,-0x7d0(%rbp)
    bdfb:	48 8d 85 ec ec ff ff 	lea    -0x1314(%rbp),%rax
    be02:	48 89 85 38 f8 ff ff 	mov    %rax,-0x7c8(%rbp)
    be09:	48 8d 85 88 ed ff ff 	lea    -0x1278(%rbp),%rax
    be10:	48 89 85 40 f8 ff ff 	mov    %rax,-0x7c0(%rbp)
    be17:	48 8d 85 c0 f1 ff ff 	lea    -0xe40(%rbp),%rax
    be1e:	48 83 c0 04          	add    $0x4,%rax
    be22:	48 89 85 48 f8 ff ff 	mov    %rax,-0x7b8(%rbp)
    be29:	48 8d 85 c0 f1 ff ff 	lea    -0xe40(%rbp),%rax
    be30:	48 83 c0 04          	add    $0x4,%rax
    be34:	48 89 85 50 f8 ff ff 	mov    %rax,-0x7b0(%rbp)
    be3b:	48 8d 85 88 ed ff ff 	lea    -0x1278(%rbp),%rax
    be42:	48 89 85 58 f8 ff ff 	mov    %rax,-0x7a8(%rbp)
    be49:	48 8d 85 ec ec ff ff 	lea    -0x1314(%rbp),%rax
    be50:	48 89 85 60 f8 ff ff 	mov    %rax,-0x7a0(%rbp)
    be57:	48 8d 85 f4 ec ff ff 	lea    -0x130c(%rbp),%rax
    be5e:	48 89 85 68 f8 ff ff 	mov    %rax,-0x798(%rbp)
    be65:	48 8d 85 ec ec ff ff 	lea    -0x1314(%rbp),%rax
    be6c:	48 89 85 70 f8 ff ff 	mov    %rax,-0x790(%rbp)
    be73:	48 8d 85 88 ed ff ff 	lea    -0x1278(%rbp),%rax
    be7a:	48 89 85 78 f8 ff ff 	mov    %rax,-0x788(%rbp)
    be81:	48 8d 85 c0 f1 ff ff 	lea    -0xe40(%rbp),%rax
    be88:	48 83 c0 04          	add    $0x4,%rax
    be8c:	48 89 85 80 f8 ff ff 	mov    %rax,-0x780(%rbp)
    be93:	48 8d 85 c0 f1 ff ff 	lea    -0xe40(%rbp),%rax
    be9a:	48 83 c0 04          	add    $0x4,%rax
    be9e:	48 89 85 88 f8 ff ff 	mov    %rax,-0x778(%rbp)
    bea5:	48 8d 85 88 ed ff ff 	lea    -0x1278(%rbp),%rax
    beac:	48 89 85 90 f8 ff ff 	mov    %rax,-0x770(%rbp)
    beb3:	48 8d 85 ec ec ff ff 	lea    -0x1314(%rbp),%rax
    beba:	48 89 85 98 f8 ff ff 	mov    %rax,-0x768(%rbp)
    bec1:	48 8d 85 ec ec ff ff 	lea    -0x1314(%rbp),%rax
    bec8:	48 89 85 a0 f8 ff ff 	mov    %rax,-0x760(%rbp)
    becf:	48 8d 85 c0 f1 ff ff 	lea    -0xe40(%rbp),%rax
    bed6:	48 83 c0 04          	add    $0x4,%rax
    beda:	48 89 85 a8 f8 ff ff 	mov    %rax,-0x758(%rbp)
    bee1:	48 8d 85 f4 ec ff ff 	lea    -0x130c(%rbp),%rax
    bee8:	48 89 85 b0 f8 ff ff 	mov    %rax,-0x750(%rbp)
    beef:	48 8d 85 88 ed ff ff 	lea    -0x1278(%rbp),%rax
    bef6:	48 89 85 b8 f8 ff ff 	mov    %rax,-0x748(%rbp)
    befd:	48 8d 85 88 ed ff ff 	lea    -0x1278(%rbp),%rax
    bf04:	48 89 85 c0 f8 ff ff 	mov    %rax,-0x740(%rbp)
    bf0b:	48 8d 85 f4 ec ff ff 	lea    -0x130c(%rbp),%rax
    bf12:	48 89 85 c8 f8 ff ff 	mov    %rax,-0x738(%rbp)
    bf19:	48 8d 85 88 ed ff ff 	lea    -0x1278(%rbp),%rax
    bf20:	48 89 85 d0 f8 ff ff 	mov    %rax,-0x730(%rbp)
    bf27:	48 8d 85 88 ed ff ff 	lea    -0x1278(%rbp),%rax
    bf2e:	48 89 85 d8 f8 ff ff 	mov    %rax,-0x728(%rbp)
    bf35:	48 8d 85 f4 ec ff ff 	lea    -0x130c(%rbp),%rax
    bf3c:	48 89 85 e0 f8 ff ff 	mov    %rax,-0x720(%rbp)
    bf43:	48 8d 85 c0 f1 ff ff 	lea    -0xe40(%rbp),%rax
    bf4a:	48 83 c0 04          	add    $0x4,%rax
    bf4e:	48 89 85 e8 f8 ff ff 	mov    %rax,-0x718(%rbp)
    bf55:	48 8d 85 ec ec ff ff 	lea    -0x1314(%rbp),%rax
    bf5c:	48 89 85 f0 f8 ff ff 	mov    %rax,-0x710(%rbp)
    bf63:	48 8d 85 ec ec ff ff 	lea    -0x1314(%rbp),%rax
    bf6a:	48 89 85 f8 f8 ff ff 	mov    %rax,-0x708(%rbp)
    bf71:	48 8d 85 88 ed ff ff 	lea    -0x1278(%rbp),%rax
    bf78:	48 89 85 00 f9 ff ff 	mov    %rax,-0x700(%rbp)
    bf7f:	48 8d 85 c0 f1 ff ff 	lea    -0xe40(%rbp),%rax
    bf86:	48 83 c0 04          	add    $0x4,%rax
    bf8a:	48 89 85 08 f9 ff ff 	mov    %rax,-0x6f8(%rbp)
    bf91:	48 8d 85 c0 f1 ff ff 	lea    -0xe40(%rbp),%rax
    bf98:	48 83 c0 04          	add    $0x4,%rax
    bf9c:	48 89 85 10 f9 ff ff 	mov    %rax,-0x6f0(%rbp)
    bfa3:	48 8d 85 88 ed ff ff 	lea    -0x1278(%rbp),%rax
    bfaa:	48 89 85 18 f9 ff ff 	mov    %rax,-0x6e8(%rbp)
    bfb1:	48 8d 85 ec ec ff ff 	lea    -0x1314(%rbp),%rax
    bfb8:	48 89 85 20 f9 ff ff 	mov    %rax,-0x6e0(%rbp)
    bfbf:	48 8d 85 f4 ec ff ff 	lea    -0x130c(%rbp),%rax
    bfc6:	48 89 85 28 f9 ff ff 	mov    %rax,-0x6d8(%rbp)
    bfcd:	48 8d 85 ec ec ff ff 	lea    -0x1314(%rbp),%rax
    bfd4:	48 89 85 30 f9 ff ff 	mov    %rax,-0x6d0(%rbp)
    bfdb:	48 8d 85 88 ed ff ff 	lea    -0x1278(%rbp),%rax
    bfe2:	48 89 85 38 f9 ff ff 	mov    %rax,-0x6c8(%rbp)
    bfe9:	48 8d 85 c0 f1 ff ff 	lea    -0xe40(%rbp),%rax
    bff0:	48 83 c0 04          	add    $0x4,%rax
    bff4:	48 89 85 40 f9 ff ff 	mov    %rax,-0x6c0(%rbp)
    bffb:	48 8d 85 c0 f1 ff ff 	lea    -0xe40(%rbp),%rax
    c002:	48 83 c0 04          	add    $0x4,%rax
    c006:	48 89 85 48 f9 ff ff 	mov    %rax,-0x6b8(%rbp)
    c00d:	48 8d 85 88 ed ff ff 	lea    -0x1278(%rbp),%rax
    c014:	48 89 85 50 f9 ff ff 	mov    %rax,-0x6b0(%rbp)
    c01b:	48 8d 85 ec ec ff ff 	lea    -0x1314(%rbp),%rax
    c022:	48 89 85 58 f9 ff ff 	mov    %rax,-0x6a8(%rbp)
    c029:	0f b6 85 db ef ff ff 	movzbl -0x1025(%rbp),%eax
    c030:	83 e8 01             	sub    $0x1,%eax
    c033:	88 85 db ef ff ff    	mov    %al,-0x1025(%rbp)
    c039:	8b 85 f8 ec ff ff    	mov    -0x1308(%rbp),%eax
    c03f:	0f b6 c0             	movzbl %al,%eax
    c042:	be 06 00 00 00       	mov    $0x6,%esi
    c047:	89 c7                	mov    %eax,%edi
    c049:	e8 0c 7b ff ff       	callq  3b5a <safe_add_func_uint8_t_u_u>
    c04e:	0f b6 c0             	movzbl %al,%eax
    c051:	89 85 f8 ec ff ff    	mov    %eax,-0x1308(%rbp)
    c057:	8b 85 f8 ec ff ff    	mov    -0x1308(%rbp),%eax
    c05d:	83 f8 1a             	cmp    $0x1a,%eax
    c060:	0f 8e f3 fc ff ff    	jle    bd59 <func_65+0x1a68>
    c066:	66 c7 05 47 9a 00 00 	movw   $0x0,0x9a47(%rip)        # 15ab6 <g_259>
    c06d:	00 00 
    c06f:	e9 fd 00 00 00       	jmpq   c171 <func_65+0x1e80>
    c074:	48 c7 85 f8 ee ff ff 	movq   $0x0,-0x1108(%rbp)
    c07b:	00 00 00 00 
    c07f:	c7 85 60 ed ff ff 01 	movl   $0x1,-0x12a0(%rbp)
    c086:	00 00 00 
    c089:	c7 85 1c ed ff ff 00 	movl   $0x0,-0x12e4(%rbp)
    c090:	00 00 00 
    c093:	eb 50                	jmp    c0e5 <func_65+0x1df4>
    c095:	c7 85 20 ed ff ff 00 	movl   $0x0,-0x12e0(%rbp)
    c09c:	00 00 00 
    c09f:	eb 34                	jmp    c0d5 <func_65+0x1de4>
    c0a1:	8b 85 20 ed ff ff    	mov    -0x12e0(%rbp),%eax
    c0a7:	48 63 c8             	movslq %eax,%rcx
    c0aa:	8b 85 1c ed ff ff    	mov    -0x12e4(%rbp),%eax
    c0b0:	48 63 d0             	movslq %eax,%rdx
    c0b3:	48 89 d0             	mov    %rdx,%rax
    c0b6:	48 01 c0             	add    %rax,%rax
    c0b9:	48 01 d0             	add    %rdx,%rax
    c0bc:	48 01 c8             	add    %rcx,%rax
    c0bf:	48 8d 15 24 9a 00 00 	lea    0x9a24(%rip),%rdx        # 15aea <g_353>
    c0c6:	48 89 94 c5 e0 f7 ff 	mov    %rdx,-0x820(%rbp,%rax,8)
    c0cd:	ff 
    c0ce:	83 85 20 ed ff ff 01 	addl   $0x1,-0x12e0(%rbp)
    c0d5:	83 bd 20 ed ff ff 02 	cmpl   $0x2,-0x12e0(%rbp)
    c0dc:	7e c3                	jle    c0a1 <func_65+0x1db0>
    c0de:	83 85 1c ed ff ff 01 	addl   $0x1,-0x12e4(%rbp)
    c0e5:	83 bd 1c ed ff ff 07 	cmpl   $0x7,-0x12e4(%rbp)
    c0ec:	7e a7                	jle    c095 <func_65+0x1da4>
    c0ee:	66 c7 05 f3 99 00 00 	movw   $0xffff,0x99f3(%rip)        # 15aea <g_353>
    c0f5:	ff ff 
    c0f7:	0f b7 05 ea e5 00 00 	movzwl 0xe5ea(%rip),%eax        # 1a6e8 <g_357>
    c0fe:	98                   	cwtl   
    c0ff:	be 01 00 00 00       	mov    $0x1,%esi
    c104:	89 c7                	mov    %eax,%edi
    c106:	e8 87 73 ff ff       	callq  3492 <safe_lshift_func_int16_t_s_s>
    c10b:	48 8d 85 d0 ec ff ff 	lea    -0x1330(%rbp),%rax
    c112:	48 89 85 f8 ee ff ff 	mov    %rax,-0x1108(%rbp)
    c119:	48 8d 85 a0 f4 ff ff 	lea    -0xb60(%rbp),%rax
    c120:	48 05 a0 00 00 00    	add    $0xa0,%rax
    c126:	48 39 85 f8 ee ff ff 	cmp    %rax,-0x1108(%rbp)
    c12d:	0f 94 c0             	sete   %al
    c130:	0f b6 d0             	movzbl %al,%edx
    c133:	8b 05 c3 99 00 00    	mov    0x99c3(%rip),%eax        # 15afc <g_358+0xc>
    c139:	31 d0                	xor    %edx,%eax
    c13b:	89 05 bb 99 00 00    	mov    %eax,0x99bb(%rip)        # 15afc <g_358+0xc>
    c141:	8b 05 b5 99 00 00    	mov    0x99b5(%rip),%eax        # 15afc <g_358+0xc>
    c147:	83 f8 ff             	cmp    $0xffffffff,%eax
    c14a:	0f 9c c0             	setl   %al
    c14d:	0f b6 c0             	movzbl %al,%eax
    c150:	31 85 60 ed ff ff    	xor    %eax,-0x12a0(%rbp)
    c156:	0f b7 05 59 99 00 00 	movzwl 0x9959(%rip),%eax        # 15ab6 <g_259>
    c15d:	98                   	cwtl   
    c15e:	be 03 00 00 00       	mov    $0x3,%esi
    c163:	89 c7                	mov    %eax,%edi
    c165:	e8 69 72 ff ff       	callq  33d3 <safe_sub_func_int16_t_s_s>
    c16a:	66 89 05 45 99 00 00 	mov    %ax,0x9945(%rip)        # 15ab6 <g_259>
    c171:	0f b7 05 3e 99 00 00 	movzwl 0x993e(%rip),%eax        # 15ab6 <g_259>
    c178:	66 83 f8 ed          	cmp    $0xffed,%ax
    c17c:	0f 8d f2 fe ff ff    	jge    c074 <func_65+0x1d83>
    c182:	48 8b 85 e8 ee ff ff 	mov    -0x1118(%rbp),%rax
    c189:	48 8b 00             	mov    (%rax),%rax
    c18c:	8b 10                	mov    (%rax),%edx
    c18e:	8b 85 f8 ec ff ff    	mov    -0x1308(%rbp),%eax
    c194:	31 d0                	xor    %edx,%eax
    c196:	89 85 f8 ec ff ff    	mov    %eax,-0x1308(%rbp)
    c19c:	e9 fe 15 00 00       	jmpq   d79f <func_65+0x34ae>
    c1a1:	c7 85 40 ed ff ff f9 	movl   $0xfffffff9,-0x12c0(%rbp)
    c1a8:	ff ff ff 
    c1ab:	c7 85 24 ed ff ff a3 	movl   $0x6aa308a3,-0x12dc(%rbp)
    c1b2:	08 a3 6a 
    c1b5:	48 8d 05 84 8f 00 00 	lea    0x8f84(%rip),%rax        # 15140 <g_82+0x20>
    c1bc:	48 89 85 c0 f1 ff ff 	mov    %rax,-0xe40(%rbp)
    c1c3:	48 8d 05 76 8f 00 00 	lea    0x8f76(%rip),%rax        # 15140 <g_82+0x20>
    c1ca:	48 89 85 c8 f1 ff ff 	mov    %rax,-0xe38(%rbp)
    c1d1:	48 8d 05 68 8f 00 00 	lea    0x8f68(%rip),%rax        # 15140 <g_82+0x20>
    c1d8:	48 89 85 d0 f1 ff ff 	mov    %rax,-0xe30(%rbp)
    c1df:	48 8d 05 5a 8f 00 00 	lea    0x8f5a(%rip),%rax        # 15140 <g_82+0x20>
    c1e6:	48 89 85 d8 f1 ff ff 	mov    %rax,-0xe28(%rbp)
    c1ed:	48 8d 05 4c 8f 00 00 	lea    0x8f4c(%rip),%rax        # 15140 <g_82+0x20>
    c1f4:	48 89 85 e0 f1 ff ff 	mov    %rax,-0xe20(%rbp)
    c1fb:	48 8d 05 3e 8f 00 00 	lea    0x8f3e(%rip),%rax        # 15140 <g_82+0x20>
    c202:	48 89 85 e8 f1 ff ff 	mov    %rax,-0xe18(%rbp)
    c209:	48 8d 05 30 8f 00 00 	lea    0x8f30(%rip),%rax        # 15140 <g_82+0x20>
    c210:	48 89 85 f0 f1 ff ff 	mov    %rax,-0xe10(%rbp)
    c217:	c7 85 28 ed ff ff 00 	movl   $0x0,-0x12d8(%rbp)
    c21e:	00 00 00 
    c221:	eb 1a                	jmp    c23d <func_65+0x1f4c>
    c223:	8b 85 28 ed ff ff    	mov    -0x12d8(%rbp),%eax
    c229:	48 98                	cltq   
    c22b:	c7 84 85 d0 ef ff ff 	movl   $0xffffffff,-0x1030(%rbp,%rax,4)
    c232:	ff ff ff ff 
    c236:	83 85 28 ed ff ff 01 	addl   $0x1,-0x12d8(%rbp)
    c23d:	83 bd 28 ed ff ff 01 	cmpl   $0x1,-0x12d8(%rbp)
    c244:	7e dd                	jle    c223 <func_65+0x1f32>
    c246:	66 83 b5 e8 ec ff ff 	xorw   $0xfffe,-0x1318(%rbp)
    c24d:	fe 
    c24e:	c7 85 f4 ec ff ff 00 	movl   $0x0,-0x130c(%rbp)
    c255:	00 00 00 
    c258:	e9 fd 02 00 00       	jmpq   c55a <func_65+0x2269>
    c25d:	c7 85 88 ed ff ff 01 	movl   $0x1,-0x1278(%rbp)
    c264:	00 00 00 
    c267:	48 8d 85 fc ec ff ff 	lea    -0x1304(%rbp),%rax
    c26e:	48 89 85 70 ee ff ff 	mov    %rax,-0x1190(%rbp)
    c275:	48 8d 85 f8 ec ff ff 	lea    -0x1308(%rbp),%rax
    c27c:	48 89 85 78 ee ff ff 	mov    %rax,-0x1188(%rbp)
    c283:	48 8d 85 ec ec ff ff 	lea    -0x1314(%rbp),%rax
    c28a:	48 89 85 80 ee ff ff 	mov    %rax,-0x1180(%rbp)
    c291:	48 c7 85 88 ee ff ff 	movq   $0x0,-0x1178(%rbp)
    c298:	00 00 00 00 
    c29c:	48 8d 85 ec ec ff ff 	lea    -0x1314(%rbp),%rax
    c2a3:	48 89 85 90 ee ff ff 	mov    %rax,-0x1170(%rbp)
    c2aa:	48 8d 85 e0 f5 ff ff 	lea    -0xa20(%rbp),%rax
    c2b1:	48 83 c0 64          	add    $0x64,%rax
    c2b5:	48 89 85 98 ee ff ff 	mov    %rax,-0x1168(%rbp)
    c2bc:	48 8d 85 88 ed ff ff 	lea    -0x1278(%rbp),%rax
    c2c3:	48 89 85 a0 ee ff ff 	mov    %rax,-0x1160(%rbp)
    c2ca:	48 8d 85 e0 f5 ff ff 	lea    -0xa20(%rbp),%rax
    c2d1:	48 05 bc 01 00 00    	add    $0x1bc,%rax
    c2d7:	48 89 85 a8 ee ff ff 	mov    %rax,-0x1158(%rbp)
    c2de:	48 8d 85 e0 f5 ff ff 	lea    -0xa20(%rbp),%rax
    c2e5:	48 05 bc 01 00 00    	add    $0x1bc,%rax
    c2eb:	48 89 85 b0 ee ff ff 	mov    %rax,-0x1150(%rbp)
    c2f2:	48 c7 85 b8 ee ff ff 	movq   $0x0,-0x1148(%rbp)
    c2f9:	00 00 00 00 
    c2fd:	48 c7 85 e0 f7 ff ff 	movq   $0xffffffffffffffff,-0x820(%rbp)
    c304:	ff ff ff ff 
    c308:	48 b8 82 70 a5 ea bb 	movabs $0xbd1094bbeaa57082,%rax
    c30f:	94 10 bd 
    c312:	48 89 85 e8 f7 ff ff 	mov    %rax,-0x818(%rbp)
    c319:	48 b9 19 31 91 18 2f 	movabs $0xeeb7112f18913119,%rcx
    c320:	11 b7 ee 
    c323:	48 89 8d f0 f7 ff ff 	mov    %rcx,-0x810(%rbp)
    c32a:	48 bb 26 40 05 e6 c7 	movabs $0x2675ddc7e6054026,%rbx
    c331:	dd 75 26 
    c334:	48 89 9d f8 f7 ff ff 	mov    %rbx,-0x808(%rbp)
    c33b:	48 b9 79 35 ab 0f 1c 	movabs $0x2597311c0fab3579,%rcx
    c342:	31 97 25 
    c345:	48 89 8d 00 f8 ff ff 	mov    %rcx,-0x800(%rbp)
    c34c:	48 c7 85 08 f8 ff ff 	movq   $0xffffffffffffffff,-0x7f8(%rbp)
    c353:	ff ff ff ff 
    c357:	48 c7 85 10 f8 ff ff 	movq   $0xffffffffffffffff,-0x7f0(%rbp)
    c35e:	ff ff ff ff 
    c362:	48 c7 85 18 f8 ff ff 	movq   $0xffffffffffffffff,-0x7e8(%rbp)
    c369:	ff ff ff ff 
    c36d:	48 c7 85 20 f8 ff ff 	movq   $0x0,-0x7e0(%rbp)
    c374:	00 00 00 00 
    c378:	48 89 8d 28 f8 ff ff 	mov    %rcx,-0x7d8(%rbp)
    c37f:	48 89 9d 30 f8 ff ff 	mov    %rbx,-0x7d0(%rbp)
    c386:	48 bb c8 41 f7 70 fd 	movabs $0x18263ffd70f741c8,%rbx
    c38d:	3f 26 18 
    c390:	48 89 9d 38 f8 ff ff 	mov    %rbx,-0x7c8(%rbp)
    c397:	48 89 85 40 f8 ff ff 	mov    %rax,-0x7c0(%rbp)
    c39e:	48 c7 85 48 f8 ff ff 	movq   $0xffffffffffffffff,-0x7b8(%rbp)
    c3a5:	ff ff ff ff 
    c3a9:	48 89 85 50 f8 ff ff 	mov    %rax,-0x7b0(%rbp)
    c3b0:	48 c7 85 58 f8 ff ff 	movq   $0x1,-0x7a8(%rbp)
    c3b7:	01 00 00 00 
    c3bb:	48 89 8d 60 f8 ff ff 	mov    %rcx,-0x7a0(%rbp)
    c3c2:	48 c7 85 68 f8 ff ff 	movq   $0x1,-0x798(%rbp)
    c3c9:	01 00 00 00 
    c3cd:	48 c7 85 70 f8 ff ff 	movq   $0xfffffffffffffffd,-0x790(%rbp)
    c3d4:	fd ff ff ff 
    c3d8:	48 89 85 78 f8 ff ff 	mov    %rax,-0x788(%rbp)
    c3df:	48 89 85 80 f8 ff ff 	mov    %rax,-0x780(%rbp)
    c3e6:	48 c7 85 88 f8 ff ff 	movq   $0x1,-0x778(%rbp)
    c3ed:	01 00 00 00 
    c3f1:	48 c7 85 90 f8 ff ff 	movq   $0x1,-0x770(%rbp)
    c3f8:	01 00 00 00 
    c3fc:	48 89 9d 98 f8 ff ff 	mov    %rbx,-0x768(%rbp)
    c403:	48 c7 85 a0 f8 ff ff 	movq   $0x0,-0x760(%rbp)
    c40a:	00 00 00 00 
    c40e:	48 c7 85 a8 f8 ff ff 	movq   $0xfffffffffffffffd,-0x758(%rbp)
    c415:	fd ff ff ff 
    c419:	48 c7 85 b0 f8 ff ff 	movq   $0x0,-0x750(%rbp)
    c420:	00 00 00 00 
    c424:	48 c7 85 b8 f8 ff ff 	movq   $0x1,-0x748(%rbp)
    c42b:	01 00 00 00 
    c42f:	48 c7 85 c0 f8 ff ff 	movq   $0x1,-0x740(%rbp)
    c436:	01 00 00 00 
    c43a:	48 c7 85 c8 f8 ff ff 	movq   $0xffffffffffffffff,-0x738(%rbp)
    c441:	ff ff ff ff 
    c445:	c7 85 2c ed ff ff 00 	movl   $0x0,-0x12d4(%rbp)
    c44c:	00 00 00 
    c44f:	eb 1b                	jmp    c46c <func_65+0x217b>
    c451:	8b 85 2c ed ff ff    	mov    -0x12d4(%rbp),%eax
    c457:	48 98                	cltq   
    c459:	48 c7 84 c5 90 ef ff 	movq   $0x0,-0x1070(%rbp,%rax,8)
    c460:	ff 00 00 00 00 
    c465:	83 85 2c ed ff ff 01 	addl   $0x1,-0x12d4(%rbp)
    c46c:	83 bd 2c ed ff ff 00 	cmpl   $0x0,-0x12d4(%rbp)
    c473:	7e dc                	jle    c451 <func_65+0x2160>
    c475:	83 ad 24 ed ff ff 01 	subl   $0x1,-0x12dc(%rbp)
    c47c:	c6 85 e0 ec ff ff 01 	movb   $0x1,-0x1320(%rbp)
    c483:	90                   	nop
    c484:	0f b6 85 e0 ec ff ff 	movzbl -0x1320(%rbp),%eax
    c48b:	84 c0                	test   %al,%al
    c48d:	0f 88 b8 00 00 00    	js     c54b <func_65+0x225a>
    c493:	c7 85 5c ed ff ff 65 	movl   $0x1a02e465,-0x12a4(%rbp)
    c49a:	e4 02 1a 
    c49d:	8b 85 cc ec ff ff    	mov    -0x1334(%rbp),%eax
    c4a3:	0f b7 d0             	movzwl %ax,%edx
    c4a6:	8b 85 5c ed ff ff    	mov    -0x12a4(%rbp),%eax
    c4ac:	0f b7 c0             	movzwl %ax,%eax
    c4af:	89 d6                	mov    %edx,%esi
    c4b1:	89 c7                	mov    %eax,%edi
    c4b3:	e8 47 78 ff ff       	callq  3cff <safe_add_func_uint16_t_u_u>
    c4b8:	89 c1                	mov    %eax,%ecx
    c4ba:	8b 85 f4 ec ff ff    	mov    -0x130c(%rbp),%eax
    c4c0:	8d 78 01             	lea    0x1(%rax),%edi
    c4c3:	0f b6 85 e0 ec ff ff 	movzbl -0x1320(%rbp),%eax
    c4ca:	0f be c0             	movsbl %al,%eax
    c4cd:	0f b6 95 e0 ec ff ff 	movzbl -0x1320(%rbp),%edx
    c4d4:	0f be d2             	movsbl %dl,%edx
    c4d7:	48 63 f2             	movslq %edx,%rsi
    c4da:	48 63 d7             	movslq %edi,%rdx
    c4dd:	48 63 f8             	movslq %eax,%rdi
    c4e0:	48 89 d0             	mov    %rdx,%rax
    c4e3:	48 c1 e0 03          	shl    $0x3,%rax
    c4e7:	48 01 d0             	add    %rdx,%rax
    c4ea:	48 01 f8             	add    %rdi,%rax
    c4ed:	48 01 c0             	add    %rax,%rax
    c4f0:	48 01 f0             	add    %rsi,%rax
    c4f3:	8b b4 85 e0 f5 ff ff 	mov    -0xa20(%rbp,%rax,4),%esi
    c4fa:	0f b7 c9             	movzwl %cx,%ecx
    c4fd:	8b 85 f4 ec ff ff    	mov    -0x130c(%rbp),%eax
    c503:	8d 78 01             	lea    0x1(%rax),%edi
    c506:	0f b6 85 e0 ec ff ff 	movzbl -0x1320(%rbp),%eax
    c50d:	0f be c0             	movsbl %al,%eax
    c510:	0f b6 95 e0 ec ff ff 	movzbl -0x1320(%rbp),%edx
    c517:	0f be d2             	movsbl %dl,%edx
    c51a:	31 f1                	xor    %esi,%ecx
    c51c:	48 63 f2             	movslq %edx,%rsi
    c51f:	48 63 d7             	movslq %edi,%rdx
    c522:	48 63 f8             	movslq %eax,%rdi
    c525:	48 89 d0             	mov    %rdx,%rax
    c528:	48 c1 e0 03          	shl    $0x3,%rax
    c52c:	48 01 d0             	add    %rdx,%rax
    c52f:	48 01 f8             	add    %rdi,%rax
    c532:	48 01 c0             	add    %rax,%rax
    c535:	48 01 f0             	add    %rsi,%rax
    c538:	89 8c 85 e0 f5 ff ff 	mov    %ecx,-0xa20(%rbp,%rax,4)
    c53f:	48 8b 85 c0 ec ff ff 	mov    -0x1340(%rbp),%rax
    c546:	e9 80 14 00 00       	jmpq   d9cb <func_65+0x36da>
    c54b:	8b 85 f4 ec ff ff    	mov    -0x130c(%rbp),%eax
    c551:	83 c0 01             	add    $0x1,%eax
    c554:	89 85 f4 ec ff ff    	mov    %eax,-0x130c(%rbp)
    c55a:	8b 85 f4 ec ff ff    	mov    -0x130c(%rbp),%eax
    c560:	83 f8 05             	cmp    $0x5,%eax
    c563:	0f 8e f4 fc ff ff    	jle    c25d <func_65+0x1f6c>
    c569:	c7 05 e1 8b 00 00 03 	movl   $0x3,0x8be1(%rip)        # 15154 <g_82+0x34>
    c570:	00 00 00 
    c573:	8b 05 db 8b 00 00    	mov    0x8bdb(%rip),%eax        # 15154 <g_82+0x34>
    c579:	89 05 7d 95 00 00    	mov    %eax,0x957d(%rip)        # 15afc <g_358+0xc>
    c57f:	8b 05 77 95 00 00    	mov    0x9577(%rip),%eax        # 15afc <g_358+0xc>
    c585:	89 85 34 ef ff ff    	mov    %eax,-0x10cc(%rbp)
    c58b:	c7 85 00 ed ff ff 02 	movl   $0x2,-0x1300(%rbp)
    c592:	00 00 00 
    c595:	e9 f5 11 00 00       	jmpq   d78f <func_65+0x349e>
    c59a:	c7 85 44 ed ff ff e2 	movl   $0xa27112e2,-0x12bc(%rbp)
    c5a1:	12 71 a2 
    c5a4:	c7 85 88 ed ff ff 00 	movl   $0x0,-0x1278(%rbp)
    c5ab:	00 00 00 
    c5ae:	48 8d 05 6b 95 00 00 	lea    0x956b(%rip),%rax        # 15b20 <g_429>
    c5b5:	48 89 85 50 ee ff ff 	mov    %rax,-0x11b0(%rbp)
    c5bc:	48 b8 1c 1c b3 1c 1c 	movabs $0x1c1cb31c1cb31c1c,%rax
    c5c3:	b3 1c 1c 
    c5c6:	48 89 45 be          	mov    %rax,-0x42(%rbp)
    c5ca:	66 c7 45 c6 b3 1c    	movw   $0x1cb3,-0x3a(%rbp)
    c5d0:	48 c7 85 58 ee ff ff 	movq   $0x0,-0x11a8(%rbp)
    c5d7:	00 00 00 00 
    c5db:	c7 85 48 ed ff ff 7f 	movl   $0x6a5ce27f,-0x12b8(%rbp)
    c5e2:	e2 5c 6a 
    c5e5:	48 c7 85 e0 f7 ff ff 	movq   $0x0,-0x820(%rbp)
    c5ec:	00 00 00 00 
    c5f0:	48 8d 85 88 ed ff ff 	lea    -0x1278(%rbp),%rax
    c5f7:	48 89 85 e8 f7 ff ff 	mov    %rax,-0x818(%rbp)
    c5fe:	48 8d 85 88 ed ff ff 	lea    -0x1278(%rbp),%rax
    c605:	48 89 85 f0 f7 ff ff 	mov    %rax,-0x810(%rbp)
    c60c:	48 8d 85 88 ed ff ff 	lea    -0x1278(%rbp),%rax
    c613:	48 89 85 f8 f7 ff ff 	mov    %rax,-0x808(%rbp)
    c61a:	48 c7 85 00 f8 ff ff 	movq   $0x0,-0x800(%rbp)
    c621:	00 00 00 00 
    c625:	48 8d 85 f0 ec ff ff 	lea    -0x1310(%rbp),%rax
    c62c:	48 89 85 08 f8 ff ff 	mov    %rax,-0x7f8(%rbp)
    c633:	48 8d 85 70 ef ff ff 	lea    -0x1090(%rbp),%rax
    c63a:	48 83 c0 0c          	add    $0xc,%rax
    c63e:	48 89 85 10 f8 ff ff 	mov    %rax,-0x7f0(%rbp)
    c645:	48 8d 85 88 ed ff ff 	lea    -0x1278(%rbp),%rax
    c64c:	48 89 85 18 f8 ff ff 	mov    %rax,-0x7e8(%rbp)
    c653:	48 8d 85 f0 ec ff ff 	lea    -0x1310(%rbp),%rax
    c65a:	48 89 85 20 f8 ff ff 	mov    %rax,-0x7e0(%rbp)
    c661:	48 8d 85 f0 ec ff ff 	lea    -0x1310(%rbp),%rax
    c668:	48 89 85 28 f8 ff ff 	mov    %rax,-0x7d8(%rbp)
    c66f:	48 8d 85 88 ed ff ff 	lea    -0x1278(%rbp),%rax
    c676:	48 89 85 30 f8 ff ff 	mov    %rax,-0x7d0(%rbp)
    c67d:	48 8d 85 f0 ec ff ff 	lea    -0x1310(%rbp),%rax
    c684:	48 89 85 38 f8 ff ff 	mov    %rax,-0x7c8(%rbp)
    c68b:	48 8d 85 88 ed ff ff 	lea    -0x1278(%rbp),%rax
    c692:	48 89 85 40 f8 ff ff 	mov    %rax,-0x7c0(%rbp)
    c699:	48 8d 85 70 ef ff ff 	lea    -0x1090(%rbp),%rax
    c6a0:	48 83 c0 18          	add    $0x18,%rax
    c6a4:	48 89 85 48 f8 ff ff 	mov    %rax,-0x7b8(%rbp)
    c6ab:	48 c7 85 50 f8 ff ff 	movq   $0x0,-0x7b0(%rbp)
    c6b2:	00 00 00 00 
    c6b6:	48 8d 85 88 ed ff ff 	lea    -0x1278(%rbp),%rax
    c6bd:	48 89 85 58 f8 ff ff 	mov    %rax,-0x7a8(%rbp)
    c6c4:	48 8d 85 f0 ec ff ff 	lea    -0x1310(%rbp),%rax
    c6cb:	48 89 85 60 f8 ff ff 	mov    %rax,-0x7a0(%rbp)
    c6d2:	48 8d 85 70 ef ff ff 	lea    -0x1090(%rbp),%rax
    c6d9:	48 83 c0 18          	add    $0x18,%rax
    c6dd:	48 89 85 68 f8 ff ff 	mov    %rax,-0x798(%rbp)
    c6e4:	48 c7 85 70 f8 ff ff 	movq   $0x0,-0x790(%rbp)
    c6eb:	00 00 00 00 
    c6ef:	48 8d 85 f0 ec ff ff 	lea    -0x1310(%rbp),%rax
    c6f6:	48 89 85 78 f8 ff ff 	mov    %rax,-0x788(%rbp)
    c6fd:	48 c7 85 80 f8 ff ff 	movq   $0x0,-0x780(%rbp)
    c704:	00 00 00 00 
    c708:	48 8d 85 f0 ec ff ff 	lea    -0x1310(%rbp),%rax
    c70f:	48 89 85 88 f8 ff ff 	mov    %rax,-0x778(%rbp)
    c716:	48 c7 85 90 f8 ff ff 	movq   $0x0,-0x770(%rbp)
    c71d:	00 00 00 00 
    c721:	48 c7 85 98 f8 ff ff 	movq   $0x0,-0x768(%rbp)
    c728:	00 00 00 00 
    c72c:	48 8d 85 88 ed ff ff 	lea    -0x1278(%rbp),%rax
    c733:	48 89 85 a0 f8 ff ff 	mov    %rax,-0x760(%rbp)
    c73a:	48 c7 85 a8 f8 ff ff 	movq   $0x0,-0x758(%rbp)
    c741:	00 00 00 00 
    c745:	48 8d 85 70 ef ff ff 	lea    -0x1090(%rbp),%rax
    c74c:	48 83 c0 0c          	add    $0xc,%rax
    c750:	48 89 85 b0 f8 ff ff 	mov    %rax,-0x750(%rbp)
    c757:	48 c7 85 b8 f8 ff ff 	movq   $0x0,-0x748(%rbp)
    c75e:	00 00 00 00 
    c762:	48 8d 85 88 ed ff ff 	lea    -0x1278(%rbp),%rax
    c769:	48 89 85 c0 f8 ff ff 	mov    %rax,-0x740(%rbp)
    c770:	48 c7 85 c8 f8 ff ff 	movq   $0x0,-0x738(%rbp)
    c777:	00 00 00 00 
    c77b:	48 8d 85 f0 ec ff ff 	lea    -0x1310(%rbp),%rax
    c782:	48 89 85 d0 f8 ff ff 	mov    %rax,-0x730(%rbp)
    c789:	48 8d 85 88 ed ff ff 	lea    -0x1278(%rbp),%rax
    c790:	48 89 85 d8 f8 ff ff 	mov    %rax,-0x728(%rbp)
    c797:	48 8d 85 88 ed ff ff 	lea    -0x1278(%rbp),%rax
    c79e:	48 89 85 e0 f8 ff ff 	mov    %rax,-0x720(%rbp)
    c7a5:	48 8d 85 f0 ec ff ff 	lea    -0x1310(%rbp),%rax
    c7ac:	48 89 85 e8 f8 ff ff 	mov    %rax,-0x718(%rbp)
    c7b3:	48 8d 85 88 ed ff ff 	lea    -0x1278(%rbp),%rax
    c7ba:	48 89 85 f0 f8 ff ff 	mov    %rax,-0x710(%rbp)
    c7c1:	48 8d 85 f0 ec ff ff 	lea    -0x1310(%rbp),%rax
    c7c8:	48 89 85 f8 f8 ff ff 	mov    %rax,-0x708(%rbp)
    c7cf:	48 c7 85 00 f9 ff ff 	movq   $0x0,-0x700(%rbp)
    c7d6:	00 00 00 00 
    c7da:	48 c7 85 08 f9 ff ff 	movq   $0x0,-0x6f8(%rbp)
    c7e1:	00 00 00 00 
    c7e5:	48 8d 85 88 ed ff ff 	lea    -0x1278(%rbp),%rax
    c7ec:	48 89 85 10 f9 ff ff 	mov    %rax,-0x6f0(%rbp)
    c7f3:	48 8d 85 f0 ec ff ff 	lea    -0x1310(%rbp),%rax
    c7fa:	48 89 85 18 f9 ff ff 	mov    %rax,-0x6e8(%rbp)
    c801:	48 8d 85 88 ed ff ff 	lea    -0x1278(%rbp),%rax
    c808:	48 89 85 20 f9 ff ff 	mov    %rax,-0x6e0(%rbp)
    c80f:	48 c7 85 28 f9 ff ff 	movq   $0x0,-0x6d8(%rbp)
    c816:	00 00 00 00 
    c81a:	48 8d 85 88 ed ff ff 	lea    -0x1278(%rbp),%rax
    c821:	48 89 85 30 f9 ff ff 	mov    %rax,-0x6d0(%rbp)
    c828:	48 c7 85 38 f9 ff ff 	movq   $0x0,-0x6c8(%rbp)
    c82f:	00 00 00 00 
    c833:	48 8d 85 88 ed ff ff 	lea    -0x1278(%rbp),%rax
    c83a:	48 89 85 40 f9 ff ff 	mov    %rax,-0x6c0(%rbp)
    c841:	48 8d 85 f0 ec ff ff 	lea    -0x1310(%rbp),%rax
    c848:	48 89 85 48 f9 ff ff 	mov    %rax,-0x6b8(%rbp)
    c84f:	48 c7 85 50 f9 ff ff 	movq   $0x0,-0x6b0(%rbp)
    c856:	00 00 00 00 
    c85a:	48 8d 85 f0 ec ff ff 	lea    -0x1310(%rbp),%rax
    c861:	48 89 85 58 f9 ff ff 	mov    %rax,-0x6a8(%rbp)
    c868:	48 8d 85 88 ed ff ff 	lea    -0x1278(%rbp),%rax
    c86f:	48 89 85 60 f9 ff ff 	mov    %rax,-0x6a0(%rbp)
    c876:	48 8d 85 f0 ec ff ff 	lea    -0x1310(%rbp),%rax
    c87d:	48 89 85 68 f9 ff ff 	mov    %rax,-0x698(%rbp)
    c884:	48 8d 85 f0 ec ff ff 	lea    -0x1310(%rbp),%rax
    c88b:	48 89 85 70 f9 ff ff 	mov    %rax,-0x690(%rbp)
    c892:	48 c7 85 78 f9 ff ff 	movq   $0x0,-0x688(%rbp)
    c899:	00 00 00 00 
    c89d:	48 8d 85 88 ed ff ff 	lea    -0x1278(%rbp),%rax
    c8a4:	48 89 85 80 f9 ff ff 	mov    %rax,-0x680(%rbp)
    c8ab:	48 8d 85 f0 ec ff ff 	lea    -0x1310(%rbp),%rax
    c8b2:	48 89 85 88 f9 ff ff 	mov    %rax,-0x678(%rbp)
    c8b9:	48 c7 85 90 f9 ff ff 	movq   $0x0,-0x670(%rbp)
    c8c0:	00 00 00 00 
    c8c4:	48 8d 85 70 ef ff ff 	lea    -0x1090(%rbp),%rax
    c8cb:	48 83 c0 0c          	add    $0xc,%rax
    c8cf:	48 89 85 98 f9 ff ff 	mov    %rax,-0x668(%rbp)
    c8d6:	48 c7 85 a0 f9 ff ff 	movq   $0x0,-0x660(%rbp)
    c8dd:	00 00 00 00 
    c8e1:	48 c7 85 a8 f9 ff ff 	movq   $0x0,-0x658(%rbp)
    c8e8:	00 00 00 00 
    c8ec:	48 8d 85 88 ed ff ff 	lea    -0x1278(%rbp),%rax
    c8f3:	48 89 85 b0 f9 ff ff 	mov    %rax,-0x650(%rbp)
    c8fa:	48 8d 85 70 ef ff ff 	lea    -0x1090(%rbp),%rax
    c901:	48 83 c0 10          	add    $0x10,%rax
    c905:	48 89 85 b8 f9 ff ff 	mov    %rax,-0x648(%rbp)
    c90c:	48 c7 85 c0 f9 ff ff 	movq   $0x0,-0x640(%rbp)
    c913:	00 00 00 00 
    c917:	48 c7 85 c8 f9 ff ff 	movq   $0x0,-0x638(%rbp)
    c91e:	00 00 00 00 
    c922:	48 8d 85 88 ed ff ff 	lea    -0x1278(%rbp),%rax
    c929:	48 89 85 d0 f9 ff ff 	mov    %rax,-0x630(%rbp)
    c930:	48 c7 85 d8 f9 ff ff 	movq   $0x0,-0x628(%rbp)
    c937:	00 00 00 00 
    c93b:	48 8d 85 70 ef ff ff 	lea    -0x1090(%rbp),%rax
    c942:	48 83 c0 0c          	add    $0xc,%rax
    c946:	48 89 85 e0 f9 ff ff 	mov    %rax,-0x620(%rbp)
    c94d:	48 c7 85 e8 f9 ff ff 	movq   $0x0,-0x618(%rbp)
    c954:	00 00 00 00 
    c958:	48 8d 85 70 ef ff ff 	lea    -0x1090(%rbp),%rax
    c95f:	48 83 c0 18          	add    $0x18,%rax
    c963:	48 89 85 f0 f9 ff ff 	mov    %rax,-0x610(%rbp)
    c96a:	48 8d 85 70 ef ff ff 	lea    -0x1090(%rbp),%rax
    c971:	48 83 c0 0c          	add    $0xc,%rax
    c975:	48 89 85 f8 f9 ff ff 	mov    %rax,-0x608(%rbp)
    c97c:	48 c7 85 00 fa ff ff 	movq   $0x0,-0x600(%rbp)
    c983:	00 00 00 00 
    c987:	48 c7 85 08 fa ff ff 	movq   $0x0,-0x5f8(%rbp)
    c98e:	00 00 00 00 
    c992:	48 8d 85 88 ed ff ff 	lea    -0x1278(%rbp),%rax
    c999:	48 89 85 10 fa ff ff 	mov    %rax,-0x5f0(%rbp)
    c9a0:	48 8d 85 f0 ec ff ff 	lea    -0x1310(%rbp),%rax
    c9a7:	48 89 85 18 fa ff ff 	mov    %rax,-0x5e8(%rbp)
    c9ae:	48 8d 85 70 ef ff ff 	lea    -0x1090(%rbp),%rax
    c9b5:	48 83 c0 0c          	add    $0xc,%rax
    c9b9:	48 89 85 20 fa ff ff 	mov    %rax,-0x5e0(%rbp)
    c9c0:	48 8d 85 70 ef ff ff 	lea    -0x1090(%rbp),%rax
    c9c7:	48 83 c0 0c          	add    $0xc,%rax
    c9cb:	48 89 85 28 fa ff ff 	mov    %rax,-0x5d8(%rbp)
    c9d2:	48 8d 85 70 ef ff ff 	lea    -0x1090(%rbp),%rax
    c9d9:	48 83 c0 0c          	add    $0xc,%rax
    c9dd:	48 89 85 30 fa ff ff 	mov    %rax,-0x5d0(%rbp)
    c9e4:	48 8d 85 88 ed ff ff 	lea    -0x1278(%rbp),%rax
    c9eb:	48 89 85 38 fa ff ff 	mov    %rax,-0x5c8(%rbp)
    c9f2:	48 8d 85 88 ed ff ff 	lea    -0x1278(%rbp),%rax
    c9f9:	48 89 85 40 fa ff ff 	mov    %rax,-0x5c0(%rbp)
    ca00:	48 c7 85 48 fa ff ff 	movq   $0x0,-0x5b8(%rbp)
    ca07:	00 00 00 00 
    ca0b:	48 8d 85 70 ef ff ff 	lea    -0x1090(%rbp),%rax
    ca12:	48 83 c0 0c          	add    $0xc,%rax
    ca16:	48 89 85 50 fa ff ff 	mov    %rax,-0x5b0(%rbp)
    ca1d:	48 c7 85 58 fa ff ff 	movq   $0x0,-0x5a8(%rbp)
    ca24:	00 00 00 00 
    ca28:	48 8d 85 70 ef ff ff 	lea    -0x1090(%rbp),%rax
    ca2f:	48 83 c0 10          	add    $0x10,%rax
    ca33:	48 89 85 60 fa ff ff 	mov    %rax,-0x5a0(%rbp)
    ca3a:	48 8d 85 f0 ec ff ff 	lea    -0x1310(%rbp),%rax
    ca41:	48 89 85 68 fa ff ff 	mov    %rax,-0x598(%rbp)
    ca48:	48 8d 85 70 ef ff ff 	lea    -0x1090(%rbp),%rax
    ca4f:	48 83 c0 18          	add    $0x18,%rax
    ca53:	48 89 85 70 fa ff ff 	mov    %rax,-0x590(%rbp)
    ca5a:	48 8d 85 70 ef ff ff 	lea    -0x1090(%rbp),%rax
    ca61:	48 83 c0 0c          	add    $0xc,%rax
    ca65:	48 89 85 78 fa ff ff 	mov    %rax,-0x588(%rbp)
    ca6c:	48 c7 85 80 fa ff ff 	movq   $0x0,-0x580(%rbp)
    ca73:	00 00 00 00 
    ca77:	48 8d 85 f0 ec ff ff 	lea    -0x1310(%rbp),%rax
    ca7e:	48 89 85 88 fa ff ff 	mov    %rax,-0x578(%rbp)
    ca85:	48 8d 85 70 ef ff ff 	lea    -0x1090(%rbp),%rax
    ca8c:	48 83 c0 14          	add    $0x14,%rax
    ca90:	48 89 85 90 fa ff ff 	mov    %rax,-0x570(%rbp)
    ca97:	48 8d 85 70 ef ff ff 	lea    -0x1090(%rbp),%rax
    ca9e:	48 83 c0 18          	add    $0x18,%rax
    caa2:	48 89 85 98 fa ff ff 	mov    %rax,-0x568(%rbp)
    caa9:	48 c7 85 a0 fa ff ff 	movq   $0x0,-0x560(%rbp)
    cab0:	00 00 00 00 
    cab4:	48 8d 85 f0 ec ff ff 	lea    -0x1310(%rbp),%rax
    cabb:	48 89 85 a8 fa ff ff 	mov    %rax,-0x558(%rbp)
    cac2:	48 8d 85 88 ed ff ff 	lea    -0x1278(%rbp),%rax
    cac9:	48 89 85 b0 fa ff ff 	mov    %rax,-0x550(%rbp)
    cad0:	48 8d 85 f0 ec ff ff 	lea    -0x1310(%rbp),%rax
    cad7:	48 89 85 b8 fa ff ff 	mov    %rax,-0x548(%rbp)
    cade:	48 c7 85 c0 fa ff ff 	movq   $0x0,-0x540(%rbp)
    cae5:	00 00 00 00 
    cae9:	48 c7 85 c8 fa ff ff 	movq   $0x0,-0x538(%rbp)
    caf0:	00 00 00 00 
    caf4:	48 8d 85 70 ef ff ff 	lea    -0x1090(%rbp),%rax
    cafb:	48 83 c0 10          	add    $0x10,%rax
    caff:	48 89 85 d0 fa ff ff 	mov    %rax,-0x530(%rbp)
    cb06:	48 c7 85 d8 fa ff ff 	movq   $0x0,-0x528(%rbp)
    cb0d:	00 00 00 00 
    cb11:	48 8d 85 88 ed ff ff 	lea    -0x1278(%rbp),%rax
    cb18:	48 89 85 e0 fa ff ff 	mov    %rax,-0x520(%rbp)
    cb1f:	48 8d 85 70 ef ff ff 	lea    -0x1090(%rbp),%rax
    cb26:	48 83 c0 0c          	add    $0xc,%rax
    cb2a:	48 89 85 e8 fa ff ff 	mov    %rax,-0x518(%rbp)
    cb31:	48 8d 85 f0 ec ff ff 	lea    -0x1310(%rbp),%rax
    cb38:	48 89 85 f0 fa ff ff 	mov    %rax,-0x510(%rbp)
    cb3f:	48 c7 85 f8 fa ff ff 	movq   $0x0,-0x508(%rbp)
    cb46:	00 00 00 00 
    cb4a:	48 c7 85 00 fb ff ff 	movq   $0x0,-0x500(%rbp)
    cb51:	00 00 00 00 
    cb55:	48 8d 85 88 ed ff ff 	lea    -0x1278(%rbp),%rax
    cb5c:	48 89 85 08 fb ff ff 	mov    %rax,-0x4f8(%rbp)
    cb63:	48 8d 85 88 ed ff ff 	lea    -0x1278(%rbp),%rax
    cb6a:	48 89 85 10 fb ff ff 	mov    %rax,-0x4f0(%rbp)
    cb71:	48 c7 85 18 fb ff ff 	movq   $0x0,-0x4e8(%rbp)
    cb78:	00 00 00 00 
    cb7c:	48 8d 85 70 ef ff ff 	lea    -0x1090(%rbp),%rax
    cb83:	48 83 c0 0c          	add    $0xc,%rax
    cb87:	48 89 85 20 fb ff ff 	mov    %rax,-0x4e0(%rbp)
    cb8e:	48 8d 85 70 ef ff ff 	lea    -0x1090(%rbp),%rax
    cb95:	48 83 c0 08          	add    $0x8,%rax
    cb99:	48 89 85 28 fb ff ff 	mov    %rax,-0x4d8(%rbp)
    cba0:	48 8d 85 88 ed ff ff 	lea    -0x1278(%rbp),%rax
    cba7:	48 89 85 30 fb ff ff 	mov    %rax,-0x4d0(%rbp)
    cbae:	48 8d 85 70 ef ff ff 	lea    -0x1090(%rbp),%rax
    cbb5:	48 83 c0 0c          	add    $0xc,%rax
    cbb9:	48 89 85 38 fb ff ff 	mov    %rax,-0x4c8(%rbp)
    cbc0:	48 8d 85 70 ef ff ff 	lea    -0x1090(%rbp),%rax
    cbc7:	48 83 c0 0c          	add    $0xc,%rax
    cbcb:	48 89 85 40 fb ff ff 	mov    %rax,-0x4c0(%rbp)
    cbd2:	48 8d 85 88 ed ff ff 	lea    -0x1278(%rbp),%rax
    cbd9:	48 89 85 48 fb ff ff 	mov    %rax,-0x4b8(%rbp)
    cbe0:	48 c7 85 50 fb ff ff 	movq   $0x0,-0x4b0(%rbp)
    cbe7:	00 00 00 00 
    cbeb:	48 8d 85 f0 ec ff ff 	lea    -0x1310(%rbp),%rax
    cbf2:	48 89 85 58 fb ff ff 	mov    %rax,-0x4a8(%rbp)
    cbf9:	48 c7 85 60 fb ff ff 	movq   $0x0,-0x4a0(%rbp)
    cc00:	00 00 00 00 
    cc04:	48 8d 85 70 ef ff ff 	lea    -0x1090(%rbp),%rax
    cc0b:	48 83 c0 0c          	add    $0xc,%rax
    cc0f:	48 89 85 68 fb ff ff 	mov    %rax,-0x498(%rbp)
    cc16:	48 c7 85 70 fb ff ff 	movq   $0x0,-0x490(%rbp)
    cc1d:	00 00 00 00 
    cc21:	48 c7 85 78 fb ff ff 	movq   $0x0,-0x488(%rbp)
    cc28:	00 00 00 00 
    cc2c:	48 c7 85 80 fb ff ff 	movq   $0x0,-0x480(%rbp)
    cc33:	00 00 00 00 
    cc37:	48 8d 85 88 ed ff ff 	lea    -0x1278(%rbp),%rax
    cc3e:	48 89 85 88 fb ff ff 	mov    %rax,-0x478(%rbp)
    cc45:	48 8d 85 70 ef ff ff 	lea    -0x1090(%rbp),%rax
    cc4c:	48 83 c0 18          	add    $0x18,%rax
    cc50:	48 89 85 90 fb ff ff 	mov    %rax,-0x470(%rbp)
    cc57:	48 8d 85 70 ef ff ff 	lea    -0x1090(%rbp),%rax
    cc5e:	48 83 c0 0c          	add    $0xc,%rax
    cc62:	48 89 85 98 fb ff ff 	mov    %rax,-0x468(%rbp)
    cc69:	48 8d 85 88 ed ff ff 	lea    -0x1278(%rbp),%rax
    cc70:	48 89 85 a0 fb ff ff 	mov    %rax,-0x460(%rbp)
    cc77:	48 8d 85 70 ef ff ff 	lea    -0x1090(%rbp),%rax
    cc7e:	48 83 c0 18          	add    $0x18,%rax
    cc82:	48 89 85 a8 fb ff ff 	mov    %rax,-0x458(%rbp)
    cc89:	48 8d 85 f0 ec ff ff 	lea    -0x1310(%rbp),%rax
    cc90:	48 89 85 b0 fb ff ff 	mov    %rax,-0x450(%rbp)
    cc97:	48 c7 85 b8 fb ff ff 	movq   $0x0,-0x448(%rbp)
    cc9e:	00 00 00 00 
    cca2:	48 c7 85 c0 fb ff ff 	movq   $0x0,-0x440(%rbp)
    cca9:	00 00 00 00 
    ccad:	48 8d 85 f0 ec ff ff 	lea    -0x1310(%rbp),%rax
    ccb4:	48 89 85 c8 fb ff ff 	mov    %rax,-0x438(%rbp)
    ccbb:	48 8d 85 f0 ec ff ff 	lea    -0x1310(%rbp),%rax
    ccc2:	48 89 85 d0 fb ff ff 	mov    %rax,-0x430(%rbp)
    ccc9:	48 c7 85 d8 fb ff ff 	movq   $0x0,-0x428(%rbp)
    ccd0:	00 00 00 00 
    ccd4:	48 8d 85 70 ef ff ff 	lea    -0x1090(%rbp),%rax
    ccdb:	48 83 c0 0c          	add    $0xc,%rax
    ccdf:	48 89 85 e0 fb ff ff 	mov    %rax,-0x420(%rbp)
    cce6:	48 8d 85 70 ef ff ff 	lea    -0x1090(%rbp),%rax
    cced:	48 83 c0 0c          	add    $0xc,%rax
    ccf1:	48 89 85 e8 fb ff ff 	mov    %rax,-0x418(%rbp)
    ccf8:	48 8d 85 88 ed ff ff 	lea    -0x1278(%rbp),%rax
    ccff:	48 89 85 f0 fb ff ff 	mov    %rax,-0x410(%rbp)
    cd06:	48 8d 85 70 ef ff ff 	lea    -0x1090(%rbp),%rax
    cd0d:	48 83 c0 18          	add    $0x18,%rax
    cd11:	48 89 85 f8 fb ff ff 	mov    %rax,-0x408(%rbp)
    cd18:	48 8d 85 f0 ec ff ff 	lea    -0x1310(%rbp),%rax
    cd1f:	48 89 85 00 fc ff ff 	mov    %rax,-0x400(%rbp)
    cd26:	48 8d 85 88 ed ff ff 	lea    -0x1278(%rbp),%rax
    cd2d:	48 89 85 08 fc ff ff 	mov    %rax,-0x3f8(%rbp)
    cd34:	48 8d 85 70 ef ff ff 	lea    -0x1090(%rbp),%rax
    cd3b:	48 83 c0 18          	add    $0x18,%rax
    cd3f:	48 89 85 10 fc ff ff 	mov    %rax,-0x3f0(%rbp)
    cd46:	48 8d 85 f0 ec ff ff 	lea    -0x1310(%rbp),%rax
    cd4d:	48 89 85 18 fc ff ff 	mov    %rax,-0x3e8(%rbp)
    cd54:	48 c7 85 20 fc ff ff 	movq   $0x0,-0x3e0(%rbp)
    cd5b:	00 00 00 00 
    cd5f:	48 8d 85 70 ef ff ff 	lea    -0x1090(%rbp),%rax
    cd66:	48 83 c0 0c          	add    $0xc,%rax
    cd6a:	48 89 85 28 fc ff ff 	mov    %rax,-0x3d8(%rbp)
    cd71:	48 8d 85 f0 ec ff ff 	lea    -0x1310(%rbp),%rax
    cd78:	48 89 85 30 fc ff ff 	mov    %rax,-0x3d0(%rbp)
    cd7f:	48 8d 85 88 ed ff ff 	lea    -0x1278(%rbp),%rax
    cd86:	48 89 85 38 fc ff ff 	mov    %rax,-0x3c8(%rbp)
    cd8d:	48 8d 85 70 ef ff ff 	lea    -0x1090(%rbp),%rax
    cd94:	48 83 c0 0c          	add    $0xc,%rax
    cd98:	48 89 85 40 fc ff ff 	mov    %rax,-0x3c0(%rbp)
    cd9f:	48 8d 85 f0 ec ff ff 	lea    -0x1310(%rbp),%rax
    cda6:	48 89 85 48 fc ff ff 	mov    %rax,-0x3b8(%rbp)
    cdad:	48 8d 85 88 ed ff ff 	lea    -0x1278(%rbp),%rax
    cdb4:	48 89 85 50 fc ff ff 	mov    %rax,-0x3b0(%rbp)
    cdbb:	48 8d 85 70 ef ff ff 	lea    -0x1090(%rbp),%rax
    cdc2:	48 83 c0 08          	add    $0x8,%rax
    cdc6:	48 89 85 58 fc ff ff 	mov    %rax,-0x3a8(%rbp)
    cdcd:	48 8d 85 88 ed ff ff 	lea    -0x1278(%rbp),%rax
    cdd4:	48 89 85 60 fc ff ff 	mov    %rax,-0x3a0(%rbp)
    cddb:	48 c7 85 68 fc ff ff 	movq   $0x0,-0x398(%rbp)
    cde2:	00 00 00 00 
    cde6:	48 8d 85 88 ed ff ff 	lea    -0x1278(%rbp),%rax
    cded:	48 89 85 70 fc ff ff 	mov    %rax,-0x390(%rbp)
    cdf4:	48 8d 85 70 ef ff ff 	lea    -0x1090(%rbp),%rax
    cdfb:	48 83 c0 0c          	add    $0xc,%rax
    cdff:	48 89 85 78 fc ff ff 	mov    %rax,-0x388(%rbp)
    ce06:	48 8d 85 70 ef ff ff 	lea    -0x1090(%rbp),%rax
    ce0d:	48 83 c0 0c          	add    $0xc,%rax
    ce11:	48 89 85 80 fc ff ff 	mov    %rax,-0x380(%rbp)
    ce18:	48 8d 85 70 ef ff ff 	lea    -0x1090(%rbp),%rax
    ce1f:	48 83 c0 14          	add    $0x14,%rax
    ce23:	48 89 85 88 fc ff ff 	mov    %rax,-0x378(%rbp)
    ce2a:	48 c7 85 90 fc ff ff 	movq   $0x0,-0x370(%rbp)
    ce31:	00 00 00 00 
    ce35:	48 8d 85 88 ed ff ff 	lea    -0x1278(%rbp),%rax
    ce3c:	48 89 85 98 fc ff ff 	mov    %rax,-0x368(%rbp)
    ce43:	48 8d 85 70 ef ff ff 	lea    -0x1090(%rbp),%rax
    ce4a:	48 83 c0 0c          	add    $0xc,%rax
    ce4e:	48 89 85 a0 fc ff ff 	mov    %rax,-0x360(%rbp)
    ce55:	48 8d 85 88 ed ff ff 	lea    -0x1278(%rbp),%rax
    ce5c:	48 89 85 a8 fc ff ff 	mov    %rax,-0x358(%rbp)
    ce63:	48 8d 85 70 ef ff ff 	lea    -0x1090(%rbp),%rax
    ce6a:	48 83 c0 18          	add    $0x18,%rax
    ce6e:	48 89 85 b0 fc ff ff 	mov    %rax,-0x350(%rbp)
    ce75:	48 8d 85 70 ef ff ff 	lea    -0x1090(%rbp),%rax
    ce7c:	48 83 c0 14          	add    $0x14,%rax
    ce80:	48 89 85 b8 fc ff ff 	mov    %rax,-0x348(%rbp)
    ce87:	48 8d 85 88 ed ff ff 	lea    -0x1278(%rbp),%rax
    ce8e:	48 89 85 c0 fc ff ff 	mov    %rax,-0x340(%rbp)
    ce95:	48 8d 85 70 ef ff ff 	lea    -0x1090(%rbp),%rax
    ce9c:	48 83 c0 0c          	add    $0xc,%rax
    cea0:	48 89 85 c8 fc ff ff 	mov    %rax,-0x338(%rbp)
    cea7:	48 8d 85 70 ef ff ff 	lea    -0x1090(%rbp),%rax
    ceae:	48 83 c0 10          	add    $0x10,%rax
    ceb2:	48 89 85 d0 fc ff ff 	mov    %rax,-0x330(%rbp)
    ceb9:	48 8d 85 f0 ec ff ff 	lea    -0x1310(%rbp),%rax
    cec0:	48 89 85 d8 fc ff ff 	mov    %rax,-0x328(%rbp)
    cec7:	48 8d 85 70 ef ff ff 	lea    -0x1090(%rbp),%rax
    cece:	48 83 c0 18          	add    $0x18,%rax
    ced2:	48 89 85 e0 fc ff ff 	mov    %rax,-0x320(%rbp)
    ced9:	48 8d 85 f0 ec ff ff 	lea    -0x1310(%rbp),%rax
    cee0:	48 89 85 e8 fc ff ff 	mov    %rax,-0x318(%rbp)
    cee7:	48 c7 85 f0 fc ff ff 	movq   $0x0,-0x310(%rbp)
    ceee:	00 00 00 00 
    cef2:	48 8d 85 f0 ec ff ff 	lea    -0x1310(%rbp),%rax
    cef9:	48 89 85 f8 fc ff ff 	mov    %rax,-0x308(%rbp)
    cf00:	48 8d 85 70 ef ff ff 	lea    -0x1090(%rbp),%rax
    cf07:	48 83 c0 18          	add    $0x18,%rax
    cf0b:	48 89 85 00 fd ff ff 	mov    %rax,-0x300(%rbp)
    cf12:	48 8d 85 f0 ec ff ff 	lea    -0x1310(%rbp),%rax
    cf19:	48 89 85 08 fd ff ff 	mov    %rax,-0x2f8(%rbp)
    cf20:	48 8d 85 70 ef ff ff 	lea    -0x1090(%rbp),%rax
    cf27:	48 83 c0 14          	add    $0x14,%rax
    cf2b:	48 89 85 10 fd ff ff 	mov    %rax,-0x2f0(%rbp)
    cf32:	48 8d 85 88 ed ff ff 	lea    -0x1278(%rbp),%rax
    cf39:	48 89 85 18 fd ff ff 	mov    %rax,-0x2e8(%rbp)
    cf40:	48 c7 85 20 fd ff ff 	movq   $0x0,-0x2e0(%rbp)
    cf47:	00 00 00 00 
    cf4b:	48 8d 85 88 ed ff ff 	lea    -0x1278(%rbp),%rax
    cf52:	48 89 85 28 fd ff ff 	mov    %rax,-0x2d8(%rbp)
    cf59:	48 8d 85 f0 ec ff ff 	lea    -0x1310(%rbp),%rax
    cf60:	48 89 85 30 fd ff ff 	mov    %rax,-0x2d0(%rbp)
    cf67:	48 8d 85 f0 ec ff ff 	lea    -0x1310(%rbp),%rax
    cf6e:	48 89 85 38 fd ff ff 	mov    %rax,-0x2c8(%rbp)
    cf75:	48 8d 85 f0 ec ff ff 	lea    -0x1310(%rbp),%rax
    cf7c:	48 89 85 40 fd ff ff 	mov    %rax,-0x2c0(%rbp)
    cf83:	48 c7 85 48 fd ff ff 	movq   $0x0,-0x2b8(%rbp)
    cf8a:	00 00 00 00 
    cf8e:	48 8d 85 88 ed ff ff 	lea    -0x1278(%rbp),%rax
    cf95:	48 89 85 50 fd ff ff 	mov    %rax,-0x2b0(%rbp)
    cf9c:	48 8d 85 70 ef ff ff 	lea    -0x1090(%rbp),%rax
    cfa3:	48 83 c0 18          	add    $0x18,%rax
    cfa7:	48 89 85 58 fd ff ff 	mov    %rax,-0x2a8(%rbp)
    cfae:	48 8d 85 88 ed ff ff 	lea    -0x1278(%rbp),%rax
    cfb5:	48 89 85 60 fd ff ff 	mov    %rax,-0x2a0(%rbp)
    cfbc:	48 8d 85 70 ef ff ff 	lea    -0x1090(%rbp),%rax
    cfc3:	48 83 c0 0c          	add    $0xc,%rax
    cfc7:	48 89 85 68 fd ff ff 	mov    %rax,-0x298(%rbp)
    cfce:	48 c7 85 70 fd ff ff 	movq   $0x0,-0x290(%rbp)
    cfd5:	00 00 00 00 
    cfd9:	48 8d 85 f0 ec ff ff 	lea    -0x1310(%rbp),%rax
    cfe0:	48 89 85 78 fd ff ff 	mov    %rax,-0x288(%rbp)
    cfe7:	48 8d 85 70 ef ff ff 	lea    -0x1090(%rbp),%rax
    cfee:	48 83 c0 14          	add    $0x14,%rax
    cff2:	48 89 85 80 fd ff ff 	mov    %rax,-0x280(%rbp)
    cff9:	48 8d 85 f0 ec ff ff 	lea    -0x1310(%rbp),%rax
    d000:	48 89 85 88 fd ff ff 	mov    %rax,-0x278(%rbp)
    d007:	48 8d 85 70 ef ff ff 	lea    -0x1090(%rbp),%rax
    d00e:	48 83 c0 08          	add    $0x8,%rax
    d012:	48 89 85 90 fd ff ff 	mov    %rax,-0x270(%rbp)
    d019:	48 8d 85 f0 ec ff ff 	lea    -0x1310(%rbp),%rax
    d020:	48 89 85 98 fd ff ff 	mov    %rax,-0x268(%rbp)
    d027:	48 8d 85 70 ef ff ff 	lea    -0x1090(%rbp),%rax
    d02e:	48 83 c0 0c          	add    $0xc,%rax
    d032:	48 89 85 a0 fd ff ff 	mov    %rax,-0x260(%rbp)
    d039:	48 c7 85 a8 fd ff ff 	movq   $0x0,-0x258(%rbp)
    d040:	00 00 00 00 
    d044:	48 c7 85 b0 fd ff ff 	movq   $0x0,-0x250(%rbp)
    d04b:	00 00 00 00 
    d04f:	48 8d 85 70 ef ff ff 	lea    -0x1090(%rbp),%rax
    d056:	48 83 c0 0c          	add    $0xc,%rax
    d05a:	48 89 85 b8 fd ff ff 	mov    %rax,-0x248(%rbp)
    d061:	48 c7 85 c0 fd ff ff 	movq   $0x0,-0x240(%rbp)
    d068:	00 00 00 00 
    d06c:	48 8d 85 f0 ec ff ff 	lea    -0x1310(%rbp),%rax
    d073:	48 89 85 c8 fd ff ff 	mov    %rax,-0x238(%rbp)
    d07a:	48 c7 85 d0 fd ff ff 	movq   $0x0,-0x230(%rbp)
    d081:	00 00 00 00 
    d085:	48 c7 85 d8 fd ff ff 	movq   $0x0,-0x228(%rbp)
    d08c:	00 00 00 00 
    d090:	48 8d 85 f0 ec ff ff 	lea    -0x1310(%rbp),%rax
    d097:	48 89 85 e0 fd ff ff 	mov    %rax,-0x220(%rbp)
    d09e:	48 8d 85 88 ed ff ff 	lea    -0x1278(%rbp),%rax
    d0a5:	48 89 85 e8 fd ff ff 	mov    %rax,-0x218(%rbp)
    d0ac:	48 8d 85 70 ef ff ff 	lea    -0x1090(%rbp),%rax
    d0b3:	48 83 c0 0c          	add    $0xc,%rax
    d0b7:	48 89 85 f0 fd ff ff 	mov    %rax,-0x210(%rbp)
    d0be:	48 8d 85 70 ef ff ff 	lea    -0x1090(%rbp),%rax
    d0c5:	48 83 c0 0c          	add    $0xc,%rax
    d0c9:	48 89 85 f8 fd ff ff 	mov    %rax,-0x208(%rbp)
    d0d0:	48 c7 85 00 fe ff ff 	movq   $0x0,-0x200(%rbp)
    d0d7:	00 00 00 00 
    d0db:	48 8d 85 70 ef ff ff 	lea    -0x1090(%rbp),%rax
    d0e2:	48 83 c0 0c          	add    $0xc,%rax
    d0e6:	48 89 85 08 fe ff ff 	mov    %rax,-0x1f8(%rbp)
    d0ed:	48 c7 85 10 fe ff ff 	movq   $0x0,-0x1f0(%rbp)
    d0f4:	00 00 00 00 
    d0f8:	48 8d 85 70 ef ff ff 	lea    -0x1090(%rbp),%rax
    d0ff:	48 83 c0 0c          	add    $0xc,%rax
    d103:	48 89 85 18 fe ff ff 	mov    %rax,-0x1e8(%rbp)
    d10a:	48 8d 85 f0 ec ff ff 	lea    -0x1310(%rbp),%rax
    d111:	48 89 85 20 fe ff ff 	mov    %rax,-0x1e0(%rbp)
    d118:	48 8d 85 f0 ec ff ff 	lea    -0x1310(%rbp),%rax
    d11f:	48 89 85 28 fe ff ff 	mov    %rax,-0x1d8(%rbp)
    d126:	48 8d 85 88 ed ff ff 	lea    -0x1278(%rbp),%rax
    d12d:	48 89 85 30 fe ff ff 	mov    %rax,-0x1d0(%rbp)
    d134:	48 8d 85 70 ef ff ff 	lea    -0x1090(%rbp),%rax
    d13b:	48 83 c0 0c          	add    $0xc,%rax
    d13f:	48 89 85 38 fe ff ff 	mov    %rax,-0x1c8(%rbp)
    d146:	48 c7 85 40 fe ff ff 	movq   $0x0,-0x1c0(%rbp)
    d14d:	00 00 00 00 
    d151:	48 8d 85 88 ed ff ff 	lea    -0x1278(%rbp),%rax
    d158:	48 89 85 48 fe ff ff 	mov    %rax,-0x1b8(%rbp)
    d15f:	48 8d 85 70 ef ff ff 	lea    -0x1090(%rbp),%rax
    d166:	48 83 c0 0c          	add    $0xc,%rax
    d16a:	48 89 85 50 fe ff ff 	mov    %rax,-0x1b0(%rbp)
    d171:	48 c7 85 58 fe ff ff 	movq   $0x0,-0x1a8(%rbp)
    d178:	00 00 00 00 
    d17c:	48 8d 85 70 ef ff ff 	lea    -0x1090(%rbp),%rax
    d183:	48 83 c0 0c          	add    $0xc,%rax
    d187:	48 89 85 60 fe ff ff 	mov    %rax,-0x1a0(%rbp)
    d18e:	48 c7 85 68 fe ff ff 	movq   $0x0,-0x198(%rbp)
    d195:	00 00 00 00 
    d199:	48 8d 85 f0 ec ff ff 	lea    -0x1310(%rbp),%rax
    d1a0:	48 89 85 70 fe ff ff 	mov    %rax,-0x190(%rbp)
    d1a7:	48 c7 85 78 fe ff ff 	movq   $0x0,-0x188(%rbp)
    d1ae:	00 00 00 00 
    d1b2:	48 8d 85 88 ed ff ff 	lea    -0x1278(%rbp),%rax
    d1b9:	48 89 85 80 fe ff ff 	mov    %rax,-0x180(%rbp)
    d1c0:	48 8d 85 f0 ec ff ff 	lea    -0x1310(%rbp),%rax
    d1c7:	48 89 85 88 fe ff ff 	mov    %rax,-0x178(%rbp)
    d1ce:	48 c7 85 90 fe ff ff 	movq   $0x0,-0x170(%rbp)
    d1d5:	00 00 00 00 
    d1d9:	48 8d 85 88 ed ff ff 	lea    -0x1278(%rbp),%rax
    d1e0:	48 89 85 98 fe ff ff 	mov    %rax,-0x168(%rbp)
    d1e7:	48 8d 85 70 ef ff ff 	lea    -0x1090(%rbp),%rax
    d1ee:	48 83 c0 0c          	add    $0xc,%rax
    d1f2:	48 89 85 a0 fe ff ff 	mov    %rax,-0x160(%rbp)
    d1f9:	48 c7 85 a8 fe ff ff 	movq   $0x0,-0x158(%rbp)
    d200:	00 00 00 00 
    d204:	48 8d 85 88 ed ff ff 	lea    -0x1278(%rbp),%rax
    d20b:	48 89 85 b0 fe ff ff 	mov    %rax,-0x150(%rbp)
    d212:	48 8d 85 70 ef ff ff 	lea    -0x1090(%rbp),%rax
    d219:	48 83 c0 0c          	add    $0xc,%rax
    d21d:	48 89 85 b8 fe ff ff 	mov    %rax,-0x148(%rbp)
    d224:	48 c7 85 c0 fe ff ff 	movq   $0x0,-0x140(%rbp)
    d22b:	00 00 00 00 
    d22f:	48 8d 85 70 ef ff ff 	lea    -0x1090(%rbp),%rax
    d236:	48 83 c0 0c          	add    $0xc,%rax
    d23a:	48 89 85 c8 fe ff ff 	mov    %rax,-0x138(%rbp)
    d241:	48 8d 85 f0 ec ff ff 	lea    -0x1310(%rbp),%rax
    d248:	48 89 85 d0 fe ff ff 	mov    %rax,-0x130(%rbp)
    d24f:	48 8d 85 88 ed ff ff 	lea    -0x1278(%rbp),%rax
    d256:	48 89 85 d8 fe ff ff 	mov    %rax,-0x128(%rbp)
    d25d:	48 8d 85 70 ef ff ff 	lea    -0x1090(%rbp),%rax
    d264:	48 83 c0 0c          	add    $0xc,%rax
    d268:	48 89 85 e0 fe ff ff 	mov    %rax,-0x120(%rbp)
    d26f:	48 c7 85 e8 fe ff ff 	movq   $0x0,-0x118(%rbp)
    d276:	00 00 00 00 
    d27a:	48 8d 85 70 ef ff ff 	lea    -0x1090(%rbp),%rax
    d281:	48 83 c0 0c          	add    $0xc,%rax
    d285:	48 89 85 f0 fe ff ff 	mov    %rax,-0x110(%rbp)
    d28c:	48 8d 85 88 ed ff ff 	lea    -0x1278(%rbp),%rax
    d293:	48 89 85 f8 fe ff ff 	mov    %rax,-0x108(%rbp)
    d29a:	48 8d 85 f0 ec ff ff 	lea    -0x1310(%rbp),%rax
    d2a1:	48 89 85 00 ff ff ff 	mov    %rax,-0x100(%rbp)
    d2a8:	48 8d 85 f0 ec ff ff 	lea    -0x1310(%rbp),%rax
    d2af:	48 89 85 08 ff ff ff 	mov    %rax,-0xf8(%rbp)
    d2b6:	48 8d 85 70 ef ff ff 	lea    -0x1090(%rbp),%rax
    d2bd:	48 83 c0 08          	add    $0x8,%rax
    d2c1:	48 89 85 10 ff ff ff 	mov    %rax,-0xf0(%rbp)
    d2c8:	48 c7 85 18 ff ff ff 	movq   $0x0,-0xe8(%rbp)
    d2cf:	00 00 00 00 
    d2d3:	48 8d 85 70 ef ff ff 	lea    -0x1090(%rbp),%rax
    d2da:	48 83 c0 0c          	add    $0xc,%rax
    d2de:	48 89 85 20 ff ff ff 	mov    %rax,-0xe0(%rbp)
    d2e5:	48 c7 85 28 ff ff ff 	movq   $0x0,-0xd8(%rbp)
    d2ec:	00 00 00 00 
    d2f0:	48 8d 85 70 ef ff ff 	lea    -0x1090(%rbp),%rax
    d2f7:	48 83 c0 0c          	add    $0xc,%rax
    d2fb:	48 89 85 30 ff ff ff 	mov    %rax,-0xd0(%rbp)
    d302:	48 c7 85 38 ff ff ff 	movq   $0x0,-0xc8(%rbp)
    d309:	00 00 00 00 
    d30d:	48 8d 85 88 ed ff ff 	lea    -0x1278(%rbp),%rax
    d314:	48 89 85 40 ff ff ff 	mov    %rax,-0xc0(%rbp)
    d31b:	48 8d 85 f0 ec ff ff 	lea    -0x1310(%rbp),%rax
    d322:	48 89 85 48 ff ff ff 	mov    %rax,-0xb8(%rbp)
    d329:	48 8d 85 f0 ec ff ff 	lea    -0x1310(%rbp),%rax
    d330:	48 89 85 50 ff ff ff 	mov    %rax,-0xb0(%rbp)
    d337:	48 8d 85 f0 ec ff ff 	lea    -0x1310(%rbp),%rax
    d33e:	48 89 85 58 ff ff ff 	mov    %rax,-0xa8(%rbp)
    d345:	48 c7 85 60 ff ff ff 	movq   $0x0,-0xa0(%rbp)
    d34c:	00 00 00 00 
    d350:	48 8d 85 70 ef ff ff 	lea    -0x1090(%rbp),%rax
    d357:	48 83 c0 0c          	add    $0xc,%rax
    d35b:	48 89 85 68 ff ff ff 	mov    %rax,-0x98(%rbp)
    d362:	48 8d 85 f0 ec ff ff 	lea    -0x1310(%rbp),%rax
    d369:	48 89 85 70 ff ff ff 	mov    %rax,-0x90(%rbp)
    d370:	48 c7 85 78 ff ff ff 	movq   $0x0,-0x88(%rbp)
    d377:	00 00 00 00 
    d37b:	48 8d 85 88 ed ff ff 	lea    -0x1278(%rbp),%rax
    d382:	48 89 45 80          	mov    %rax,-0x80(%rbp)
    d386:	48 8d 85 88 ed ff ff 	lea    -0x1278(%rbp),%rax
    d38d:	48 89 45 88          	mov    %rax,-0x78(%rbp)
    d391:	48 8d 85 70 ef ff ff 	lea    -0x1090(%rbp),%rax
    d398:	48 83 c0 0c          	add    $0xc,%rax
    d39c:	48 89 45 90          	mov    %rax,-0x70(%rbp)
    d3a0:	48 8d 85 70 ef ff ff 	lea    -0x1090(%rbp),%rax
    d3a7:	48 83 c0 18          	add    $0x18,%rax
    d3ab:	48 89 45 98          	mov    %rax,-0x68(%rbp)
    d3af:	48 c7 45 a0 00 00 00 	movq   $0x0,-0x60(%rbp)
    d3b6:	00 
    d3b7:	48 8d 85 88 ed ff ff 	lea    -0x1278(%rbp),%rax
    d3be:	48 89 45 a8          	mov    %rax,-0x58(%rbp)
    d3c2:	48 8d 05 ed 86 00 00 	lea    0x86ed(%rip),%rax        # 15ab6 <g_259>
    d3c9:	48 89 85 60 ee ff ff 	mov    %rax,-0x11a0(%rbp)
    d3d0:	c6 05 e1 86 00 00 02 	movb   $0x2,0x86e1(%rip)        # 15ab8 <g_278>
    d3d7:	e9 82 02 00 00       	jmpq   d65e <func_65+0x336d>
    d3dc:	c7 85 4c ed ff ff ab 	movl   $0x7a8c25ab,-0x12b4(%rbp)
    d3e3:	25 8c 7a 
    d3e6:	c7 85 50 ed ff ff 71 	movl   $0x3ea0dd71,-0x12b0(%rbp)
    d3ed:	dd a0 3e 
    d3f0:	c7 85 54 ed ff ff 02 	movl   $0x1233fa02,-0x12ac(%rbp)
    d3f7:	fa 33 12 
    d3fa:	c7 85 58 ed ff ff 43 	movl   $0x425ed643,-0x12a8(%rbp)
    d401:	d6 5e 42 
    d404:	48 8d 05 4c 82 00 00 	lea    0x824c(%rip),%rax        # 15657 <g_246+0x2d7>
    d40b:	48 89 85 68 ee ff ff 	mov    %rax,-0x1198(%rbp)
    d412:	8b 85 88 ed ff ff    	mov    -0x1278(%rbp),%eax
    d418:	83 e8 01             	sub    $0x1,%eax
    d41b:	89 85 88 ed ff ff    	mov    %eax,-0x1278(%rbp)
    d421:	48 8b 85 d8 ec ff ff 	mov    -0x1328(%rbp),%rax
    d428:	48 8b 00             	mov    (%rax),%rax
    d42b:	0f b6 00             	movzbl (%rax),%eax
    d42e:	0f b6 d8             	movzbl %al,%ebx
    d431:	48 8b 05 28 cc 00 00 	mov    0xcc28(%rip),%rax        # 1a060 <g_55>
    d438:	0f b6 00             	movzbl (%rax),%eax
    d43b:	44 0f b6 e0          	movzbl %al,%r12d
    d43f:	0f b6 45 c5          	movzbl -0x3b(%rbp),%eax
    d443:	44 0f b6 e8          	movzbl %al,%r13d
    d447:	8b 85 cc ec ff ff    	mov    -0x1334(%rbp),%eax
    d44d:	44 0f be f0          	movsbl %al,%r14d
    d451:	8b 05 a6 7d 00 00    	mov    0x7da6(%rip),%eax        # 151fd <g_144+0x3d>
    d457:	85 c0                	test   %eax,%eax
    d459:	0f 84 2d 01 00 00    	je     d58c <func_65+0x329b>
    d45f:	8b 85 fc ec ff ff    	mov    -0x1304(%rbp),%eax
    d465:	89 85 b4 ec ff ff    	mov    %eax,-0x134c(%rbp)
    d46b:	0f b6 05 3a d2 00 00 	movzbl 0xd23a(%rip),%eax        # 1a6ac <g_116>
    d472:	44 0f b6 f8          	movzbl %al,%r15d
    d476:	48 8b 05 eb cb 00 00 	mov    0xcbeb(%rip),%rax        # 1a068 <g_143>
    d47d:	48 39 85 50 ee ff ff 	cmp    %rax,-0x11b0(%rbp)
    d484:	be 01 00 00 00       	mov    $0x1,%esi
    d489:	bf 00 00 00 00       	mov    $0x0,%edi
    d48e:	e8 21 65 ff ff       	callq  39b4 <safe_mod_func_int64_t_s_s>
    d493:	89 c2                	mov    %eax,%edx
    d495:	48 8b 85 70 ed ff ff 	mov    -0x1290(%rbp),%rax
    d49c:	8b 00                	mov    (%rax),%eax
    d49e:	3d a4 00 00 00       	cmp    $0xa4,%eax
    d4a3:	0f 9f c0             	setg   %al
    d4a6:	0f b6 c0             	movzbl %al,%eax
    d4a9:	89 d6                	mov    %edx,%esi
    d4ab:	89 c7                	mov    %eax,%edi
    d4ad:	e8 0c 69 ff ff       	callq  3dbe <safe_lshift_func_uint16_t_u_s>
    d4b2:	66 85 c0             	test   %ax,%ax
    d4b5:	0f 94 c0             	sete   %al
    d4b8:	0f b6 c0             	movzbl %al,%eax
    d4bb:	be 0d 00 00 00       	mov    $0xd,%esi
    d4c0:	89 c7                	mov    %eax,%edi
    d4c2:	e8 81 69 ff ff       	callq  3e48 <safe_rshift_func_uint16_t_u_s>
    d4c7:	48 8b 85 c0 ed ff ff 	mov    -0x1240(%rbp),%rax
    d4ce:	48 8b 00             	mov    (%rax),%rax
    d4d1:	48 85 c0             	test   %rax,%rax
    d4d4:	0f 95 c0             	setne  %al
    d4d7:	0f b6 c0             	movzbl %al,%eax
    d4da:	89 c7                	mov    %eax,%edi
    d4dc:	e8 64 66 ff ff       	callq  3b45 <safe_unary_minus_func_uint8_t_u>
    d4e1:	0f b6 c0             	movzbl %al,%eax
    d4e4:	be 06 00 00 00       	mov    $0x6,%esi
    d4e9:	89 c7                	mov    %eax,%edi
    d4eb:	e8 73 60 ff ff       	callq  3563 <safe_rshift_func_int16_t_s_u>
    d4f0:	98                   	cwtl   
    d4f1:	44 89 fe             	mov    %r15d,%esi
    d4f4:	89 c7                	mov    %eax,%edi
    d4f6:	e8 5a 5f ff ff       	callq  3455 <safe_div_func_int16_t_s_s>
    d4fb:	48 0f bf d0          	movswq %ax,%rdx
    d4ff:	48 8b 85 68 ee ff ff 	mov    -0x1198(%rbp),%rax
    d506:	48 89 10             	mov    %rdx,(%rax)
    d509:	48 8b 85 68 ee ff ff 	mov    -0x1198(%rbp),%rax
    d510:	48 8b 00             	mov    (%rax),%rax
    d513:	89 c2                	mov    %eax,%edx
    d515:	48 8b 85 c0 ec ff ff 	mov    -0x1340(%rbp),%rax
    d51c:	48 8b 00             	mov    (%rax),%rax
    d51f:	31 d0                	xor    %edx,%eax
    d521:	0f b7 d0             	movzwl %ax,%edx
    d524:	48 83 bd b8 ed ff ff 	cmpq   $0x0,-0x1248(%rbp)
    d52b:	00 
    d52c:	0f 94 c0             	sete   %al
    d52f:	0f b6 c0             	movzbl %al,%eax
    d532:	89 d6                	mov    %edx,%esi
    d534:	89 c7                	mov    %eax,%edi
    d536:	e8 02 68 ff ff       	callq  3d3d <safe_mul_func_uint16_t_u_u>
    d53b:	be 05 00 00 00       	mov    $0x5,%esi
    d540:	bf 00 00 00 00       	mov    $0x0,%edi
    d545:	e8 43 67 ff ff       	callq  3c8d <safe_rshift_func_uint8_t_u_s>
    d54a:	0f b6 c0             	movzbl %al,%eax
    d54d:	8b b5 b4 ec ff ff    	mov    -0x134c(%rbp),%esi
    d553:	89 c7                	mov    %eax,%edi
    d555:	e8 76 69 ff ff       	callq  3ed0 <safe_sub_func_uint32_t_u_u>
    d55a:	48 8b 15 ff ca 00 00 	mov    0xcaff(%rip),%rdx        # 1a060 <g_55>
    d561:	0f b6 12             	movzbl (%rdx),%edx
    d564:	0f b6 d2             	movzbl %dl,%edx
    d567:	21 d0                	and    %edx,%eax
    d569:	85 c0                	test   %eax,%eax
    d56b:	74 07                	je     d574 <func_65+0x3283>
    d56d:	ba 01 00 00 00       	mov    $0x1,%edx
    d572:	eb 05                	jmp    d579 <func_65+0x3288>
    d574:	ba 00 00 00 00       	mov    $0x0,%edx
    d579:	0f b7 05 bc 85 00 00 	movzwl 0x85bc(%rip),%eax        # 15b3c <g_429+0x1c>
    d580:	98                   	cwtl   
    d581:	39 c2                	cmp    %eax,%edx
    d583:	7c 07                	jl     d58c <func_65+0x329b>
    d585:	b8 01 00 00 00       	mov    $0x1,%eax
    d58a:	eb 05                	jmp    d591 <func_65+0x32a0>
    d58c:	b8 00 00 00 00       	mov    $0x0,%eax
    d591:	0f be c0             	movsbl %al,%eax
    d594:	44 89 f6             	mov    %r14d,%esi
    d597:	89 c7                	mov    %eax,%edi
    d599:	e8 93 5c ff ff       	callq  3231 <safe_mod_func_int8_t_s_s>
    d59e:	66 98                	cbtw   
    d5a0:	0f b7 c0             	movzwl %ax,%eax
    d5a3:	44 89 ee             	mov    %r13d,%esi
    d5a6:	89 c7                	mov    %eax,%edi
    d5a8:	e8 90 67 ff ff       	callq  3d3d <safe_mul_func_uint16_t_u_u>
    d5ad:	0f b6 c0             	movzbl %al,%eax
    d5b0:	44 89 e6             	mov    %r12d,%esi
    d5b3:	89 c7                	mov    %eax,%edi
    d5b5:	e8 04 67 ff ff       	callq  3cbe <safe_rshift_func_uint8_t_u_u>
    d5ba:	0f be c0             	movsbl %al,%eax
    d5bd:	be fe ff ff ff       	mov    $0xfffffffe,%esi
    d5c2:	89 c7                	mov    %eax,%edi
    d5c4:	e8 0b 5c ff ff       	callq  31d4 <safe_add_func_int8_t_s_s>
    d5c9:	3c ff                	cmp    $0xff,%al
    d5cb:	75 07                	jne    d5d4 <func_65+0x32e3>
    d5cd:	83 bd cc ec ff ff 00 	cmpl   $0x0,-0x1334(%rbp)
    d5d4:	0f b6 05 dd 84 00 00 	movzbl 0x84dd(%rip),%eax        # 15ab8 <g_278>
    d5db:	0f be c0             	movsbl %al,%eax
    d5de:	83 c0 01             	add    $0x1,%eax
    d5e1:	48 63 c8             	movslq %eax,%rcx
    d5e4:	8b 85 00 ed ff ff    	mov    -0x1300(%rbp),%eax
    d5ea:	48 63 d0             	movslq %eax,%rdx
    d5ed:	48 89 d0             	mov    %rdx,%rax
    d5f0:	48 c1 e0 03          	shl    $0x3,%rax
    d5f4:	48 01 d0             	add    %rdx,%rax
    d5f7:	48 01 c8             	add    %rcx,%rax
    d5fa:	48 8d 14 85 00 00 00 	lea    0x0(,%rax,4),%rdx
    d601:	00 
    d602:	48 8d 05 17 7b 00 00 	lea    0x7b17(%rip),%rax        # 15120 <g_82>
    d609:	8b 04 02             	mov    (%rdx,%rax,1),%eax
    d60c:	89 c2                	mov    %eax,%edx
    d60e:	81 bd cc ec ff ff 71 	cmpl   $0x7b71,-0x1334(%rbp)
    d615:	7b 00 00 
    d618:	0f 9f c0             	setg   %al
    d61b:	09 d0                	or     %edx,%eax
    d61d:	0f b6 c0             	movzbl %al,%eax
    d620:	89 de                	mov    %ebx,%esi
    d622:	89 c7                	mov    %eax,%edi
    d624:	e8 b2 65 ff ff       	callq  3bdb <safe_div_func_uint8_t_u_u>
    d629:	0f b6 d0             	movzbl %al,%edx
    d62c:	8b 85 f4 ec ff ff    	mov    -0x130c(%rbp),%eax
    d632:	21 d0                	and    %edx,%eax
    d634:	89 85 f4 ec ff ff    	mov    %eax,-0x130c(%rbp)
    d63a:	48 8b 15 37 ca 00 00 	mov    0xca37(%rip),%rdx        # 1a078 <g_212>
    d641:	48 8b 05 30 ca 00 00 	mov    0xca30(%rip),%rax        # 1a078 <g_212>
    d648:	48 8b 12             	mov    (%rdx),%rdx
    d64b:	48 89 10             	mov    %rdx,(%rax)
    d64e:	0f b6 05 63 84 00 00 	movzbl 0x8463(%rip),%eax        # 15ab8 <g_278>
    d655:	83 e8 01             	sub    $0x1,%eax
    d658:	88 05 5a 84 00 00    	mov    %al,0x845a(%rip)        # 15ab8 <g_278>
    d65e:	0f b6 05 53 84 00 00 	movzbl 0x8453(%rip),%eax        # 15ab8 <g_278>
    d665:	84 c0                	test   %al,%al
    d667:	0f 89 6f fd ff ff    	jns    d3dc <func_65+0x30eb>
    d66d:	8b 15 5d 7a 00 00    	mov    0x7a5d(%rip),%edx        # 150d0 <g_81+0x90>
    d673:	0f b6 05 ea 7c 00 00 	movzbl 0x7cea(%rip),%eax        # 15364 <g_210+0x4>
    d67a:	0f be c0             	movsbl %al,%eax
    d67d:	39 c2                	cmp    %eax,%edx
    d67f:	0f 9f c0             	setg   %al
    d682:	0f b6 c0             	movzbl %al,%eax
    d685:	39 85 cc ec ff ff    	cmp    %eax,-0x1334(%rbp)
    d68b:	0f 8d a7 00 00 00    	jge    d738 <func_65+0x3447>
    d691:	81 a5 44 ed ff ff f6 	andl   $0xf6,-0x12bc(%rbp)
    d698:	00 00 00 
    d69b:	0f b6 85 e1 ec ff ff 	movzbl -0x131f(%rbp),%eax
    d6a2:	39 85 44 ed ff ff    	cmp    %eax,-0x12bc(%rbp)
    d6a8:	7e 07                	jle    d6b1 <func_65+0x33c0>
    d6aa:	b8 f9 ff ff ff       	mov    $0xfffffff9,%eax
    d6af:	eb 05                	jmp    d6b6 <func_65+0x33c5>
    d6b1:	b8 f8 ff ff ff       	mov    $0xfffffff8,%eax
    d6b6:	89 85 48 ed ff ff    	mov    %eax,-0x12b8(%rbp)
    d6bc:	48 8b 85 c0 ec ff ff 	mov    -0x1340(%rbp),%rax
    d6c3:	48 8b 00             	mov    (%rax),%rax
    d6c6:	48 85 c0             	test   %rax,%rax
    d6c9:	74 07                	je     d6d2 <func_65+0x33e1>
    d6cb:	b8 01 00 00 00       	mov    $0x1,%eax
    d6d0:	eb 05                	jmp    d6d7 <func_65+0x33e6>
    d6d2:	b8 00 00 00 00       	mov    $0x0,%eax
    d6d7:	89 c6                	mov    %eax,%esi
    d6d9:	bf 00 00 00 00       	mov    $0x0,%edi
    d6de:	e8 0b 5c ff ff       	callq  32ee <safe_lshift_func_int8_t_s_u>
    d6e3:	8b 95 cc ec ff ff    	mov    -0x1334(%rbp),%edx
    d6e9:	09 d0                	or     %edx,%eax
    d6eb:	83 e0 07             	and    $0x7,%eax
    d6ee:	83 e0 07             	and    $0x7,%eax
    d6f1:	89 c2                	mov    %eax,%edx
    d6f3:	0f b6 05 ec 83 00 00 	movzbl 0x83ec(%rip),%eax        # 15ae6 <g_333+0x26>
    d6fa:	83 e0 f8             	and    $0xfffffff8,%eax
    d6fd:	09 d0                	or     %edx,%eax
    d6ff:	88 05 e1 83 00 00    	mov    %al,0x83e1(%rip)        # 15ae6 <g_333+0x26>
    d705:	0f b6 05 da 83 00 00 	movzbl 0x83da(%rip),%eax        # 15ae6 <g_333+0x26>
    d70c:	83 e0 07             	and    $0x7,%eax
    d70f:	0f b6 c0             	movzbl %al,%eax
    d712:	89 c6                	mov    %eax,%esi
    d714:	bf 02 00 00 00       	mov    $0x2,%edi
    d719:	e8 df 67 ff ff       	callq  3efd <safe_mod_func_uint32_t_u_u>
    d71e:	0f b6 c0             	movzbl %al,%eax
    d721:	be 00 00 00 00       	mov    $0x0,%esi
    d726:	89 c7                	mov    %eax,%edi
    d728:	e8 91 65 ff ff       	callq  3cbe <safe_rshift_func_uint8_t_u_u>
    d72d:	84 c0                	test   %al,%al
    d72f:	74 07                	je     d738 <func_65+0x3447>
    d731:	b8 01 00 00 00       	mov    $0x1,%eax
    d736:	eb 05                	jmp    d73d <func_65+0x344c>
    d738:	b8 00 00 00 00       	mov    $0x0,%eax
    d73d:	89 c2                	mov    %eax,%edx
    d73f:	48 8b 85 60 ee ff ff 	mov    -0x11a0(%rbp),%rax
    d746:	66 89 10             	mov    %dx,(%rax)
    d749:	48 8b 85 60 ee ff ff 	mov    -0x11a0(%rbp),%rax
    d750:	0f b7 00             	movzwl (%rax),%eax
    d753:	98                   	cwtl   
    d754:	39 85 cc ec ff ff    	cmp    %eax,-0x1334(%rbp)
    d75a:	0f 9e c0             	setle  %al
    d75d:	0f b6 d0             	movzbl %al,%edx
    d760:	48 8b 85 70 ed ff ff 	mov    -0x1290(%rbp),%rax
    d767:	8b 00                	mov    (%rax),%eax
    d769:	39 c2                	cmp    %eax,%edx
    d76b:	0f 94 c0             	sete   %al
    d76e:	0f b6 d0             	movzbl %al,%edx
    d771:	8b 05 85 83 00 00    	mov    0x8385(%rip),%eax        # 15afc <g_358+0xc>
    d777:	09 d0                	or     %edx,%eax
    d779:	89 05 7d 83 00 00    	mov    %eax,0x837d(%rip)        # 15afc <g_358+0xc>
    d77f:	83 bd cc ec ff ff 00 	cmpl   $0x0,-0x1334(%rbp)
    d786:	75 16                	jne    d79e <func_65+0x34ad>
    d788:	83 ad 00 ed ff ff 01 	subl   $0x1,-0x1300(%rbp)
    d78f:	83 bd 00 ed ff ff 00 	cmpl   $0x0,-0x1300(%rbp)
    d796:	0f 89 fe ed ff ff    	jns    c59a <func_65+0x22a9>
    d79c:	eb 01                	jmp    d79f <func_65+0x34ae>
    d79e:	90                   	nop
    d79f:	48 8b 05 ca c8 00 00 	mov    0xc8ca(%rip),%rax        # 1a070 <g_213>
    d7a6:	8b 00                	mov    (%rax),%eax
    d7a8:	85 c0                	test   %eax,%eax
    d7aa:	8b 05 20 79 00 00    	mov    0x7920(%rip),%eax        # 150d0 <g_81+0x90>
    d7b0:	83 c0 01             	add    $0x1,%eax
    d7b3:	89 05 17 79 00 00    	mov    %eax,0x7917(%rip)        # 150d0 <g_81+0x90>
    d7b9:	8b 05 11 79 00 00    	mov    0x7911(%rip),%eax        # 150d0 <g_81+0x90>
    d7bf:	83 f8 07             	cmp    $0x7,%eax
    d7c2:	0f 8e d7 cf ff ff    	jle    a79f <func_65+0x4ae>
    d7c8:	48 8b 85 70 ed ff ff 	mov    -0x1290(%rbp),%rax
    d7cf:	8b 00                	mov    (%rax),%eax
    d7d1:	85 c0                	test   %eax,%eax
    d7d3:	0f 85 bf 01 00 00    	jne    d998 <func_65+0x36a7>
    d7d9:	48 8b 05 48 78 00 00 	mov    0x7848(%rip),%rax        # 15028 <g_11>
    d7e0:	41 89 c7             	mov    %eax,%r15d
    d7e3:	0f b6 05 4e 78 00 00 	movzbl 0x784e(%rip),%eax        # 15038 <g_56>
    d7ea:	0f b6 d8             	movzbl %al,%ebx
    d7ed:	0f b6 05 6d 7b 00 00 	movzbl 0x7b6d(%rip),%eax        # 15361 <g_210+0x1>
    d7f4:	0f be c0             	movsbl %al,%eax
    d7f7:	89 c7                	mov    %eax,%edi
    d7f9:	e8 9f 5b ff ff       	callq  339d <safe_unary_minus_func_int16_t_s>
    d7fe:	89 c2                	mov    %eax,%edx
    d800:	48 8b 85 c8 ed ff ff 	mov    -0x1238(%rbp),%rax
    d807:	88 10                	mov    %dl,(%rax)
    d809:	48 8b 85 c8 ed ff ff 	mov    -0x1238(%rbp),%rax
    d810:	0f b6 00             	movzbl (%rax),%eax
    d813:	0f b6 c0             	movzbl %al,%eax
    d816:	89 c6                	mov    %eax,%esi
    d818:	bf f6 00 00 00       	mov    $0xf6,%edi
    d81d:	e8 56 63 ff ff       	callq  3b78 <safe_sub_func_uint8_t_u_u>
    d822:	0f b6 d0             	movzbl %al,%edx
    d825:	0f b7 05 60 79 00 00 	movzwl 0x7960(%rip),%eax        # 1518c <g_90>
    d82c:	0f b7 c0             	movzwl %ax,%eax
    d82f:	39 85 cc ec ff ff    	cmp    %eax,-0x1334(%rbp)
    d835:	0f 9f c0             	setg   %al
    d838:	0f b6 c0             	movzbl %al,%eax
    d83b:	39 c2                	cmp    %eax,%edx
    d83d:	0f 9d c0             	setge  %al
    d840:	44 0f b6 e0          	movzbl %al,%r12d
    d844:	8b 85 cc ec ff ff    	mov    -0x1334(%rbp),%eax
    d84a:	4c 63 e8             	movslq %eax,%r13
    d84d:	44 8b 35 a8 82 00 00 	mov    0x82a8(%rip),%r14d        # 15afc <g_358+0xc>
    d854:	8b 85 cc ec ff ff    	mov    -0x1334(%rbp),%eax
    d85a:	0f b6 c0             	movzbl %al,%eax
    d85d:	89 c6                	mov    %eax,%esi
    d85f:	bf 01 00 00 00       	mov    $0x1,%edi
    d864:	e8 2a 63 ff ff       	callq  3b93 <safe_mul_func_uint8_t_u_u>
    d869:	84 c0                	test   %al,%al
    d86b:	75 09                	jne    d876 <func_65+0x3585>
    d86d:	83 bd cc ec ff ff 00 	cmpl   $0x0,-0x1334(%rbp)
    d874:	74 07                	je     d87d <func_65+0x358c>
    d876:	b8 01 00 00 00       	mov    $0x1,%eax
    d87b:	eb 05                	jmp    d882 <func_65+0x3591>
    d87d:	b8 00 00 00 00       	mov    $0x0,%eax
    d882:	f7 d0                	not    %eax
    d884:	48 98                	cltq   
    d886:	83 e0 02             	and    $0x2,%eax
    d889:	48 89 c2             	mov    %rax,%rdx
    d88c:	8b 85 cc ec ff ff    	mov    -0x1334(%rbp),%eax
    d892:	48 98                	cltq   
    d894:	48 39 c2             	cmp    %rax,%rdx
    d897:	0f 92 c0             	setb   %al
    d89a:	0f b6 c0             	movzbl %al,%eax
    d89d:	41 39 c6             	cmp    %eax,%r14d
    d8a0:	0f 94 c0             	sete   %al
    d8a3:	0f b6 d0             	movzbl %al,%edx
    d8a6:	48 8b 85 e0 ed ff ff 	mov    -0x1220(%rbp),%rax
    d8ad:	48 89 10             	mov    %rdx,(%rax)
    d8b0:	48 8b 85 e0 ed ff ff 	mov    -0x1220(%rbp),%rax
    d8b7:	48 8b 10             	mov    (%rax),%rdx
    d8ba:	48 0f bf 85 e6 ec ff 	movswq -0x131a(%rbp),%rax
    d8c1:	ff 
    d8c2:	48 09 d0             	or     %rdx,%rax
    d8c5:	49 39 c5             	cmp    %rax,%r13
    d8c8:	0f 9d c0             	setge  %al
    d8cb:	0f b6 c0             	movzbl %al,%eax
    d8ce:	be a9 00 00 00       	mov    $0xa9,%esi
    d8d3:	89 c7                	mov    %eax,%edi
    d8d5:	e8 01 63 ff ff       	callq  3bdb <safe_div_func_uint8_t_u_u>
    d8da:	0f b6 c0             	movzbl %al,%eax
    d8dd:	44 21 e0             	and    %r12d,%eax
    d8e0:	48 63 d0             	movslq %eax,%rdx
    d8e3:	48 8b 85 38 ef ff ff 	mov    -0x10c8(%rbp),%rax
    d8ea:	48 39 c2             	cmp    %rax,%rdx
    d8ed:	0f 94 c0             	sete   %al
    d8f0:	0f b6 c0             	movzbl %al,%eax
    d8f3:	48 be e7 fe c0 58 94 	movabs $0x69758e9458c0fee7,%rsi
    d8fa:	8e 75 69 
    d8fd:	48 89 c7             	mov    %rax,%rdi
    d900:	e8 aa 67 ff ff       	callq  40af <safe_div_func_uint64_t_u_u>
    d905:	48 85 c0             	test   %rax,%rax
    d908:	75 09                	jne    d913 <func_65+0x3622>
    d90a:	83 bd cc ec ff ff 00 	cmpl   $0x0,-0x1334(%rbp)
    d911:	74 07                	je     d91a <func_65+0x3629>
    d913:	b8 01 00 00 00       	mov    $0x1,%eax
    d918:	eb 05                	jmp    d91f <func_65+0x362e>
    d91a:	b8 00 00 00 00       	mov    $0x0,%eax
    d91f:	89 de                	mov    %ebx,%esi
    d921:	89 c7                	mov    %eax,%edi
    d923:	e8 fd 65 ff ff       	callq  3f25 <safe_div_func_uint32_t_u_u>
    d928:	0f b6 d0             	movzbl %al,%edx
    d92b:	48 8b 85 d8 ec ff ff 	mov    -0x1328(%rbp),%rax
    d932:	48 8b 00             	mov    (%rax),%rax
    d935:	0f b6 00             	movzbl (%rax),%eax
    d938:	0f b6 c0             	movzbl %al,%eax
    d93b:	89 d6                	mov    %edx,%esi
    d93d:	89 c7                	mov    %eax,%edi
    d93f:	e8 4f 62 ff ff       	callq  3b93 <safe_mul_func_uint8_t_u_u>
    d944:	0f b6 c0             	movzbl %al,%eax
    d947:	39 85 cc ec ff ff    	cmp    %eax,-0x1334(%rbp)
    d94d:	0f 9e c0             	setle  %al
    d950:	0f b6 c0             	movzbl %al,%eax
    d953:	44 89 fe             	mov    %r15d,%esi
    d956:	89 c7                	mov    %eax,%edi
    d958:	e8 c8 65 ff ff       	callq  3f25 <safe_div_func_uint32_t_u_u>
    d95d:	83 f8 01             	cmp    $0x1,%eax
    d960:	0f 96 c0             	setbe  %al
    d963:	0f b6 c0             	movzbl %al,%eax
    d966:	39 85 cc ec ff ff    	cmp    %eax,-0x1334(%rbp)
    d96c:	0f 95 c0             	setne  %al
    d96f:	0f b6 d0             	movzbl %al,%edx
    d972:	48 8b 05 27 78 00 00 	mov    0x7827(%rip),%rax        # 151a0 <g_140>
    d979:	48 39 c2             	cmp    %rax,%rdx
    d97c:	0f 94 c0             	sete   %al
    d97f:	0f b6 d0             	movzbl %al,%edx
    d982:	48 8b 85 e8 ed ff ff 	mov    -0x1218(%rbp),%rax
    d989:	8b 00                	mov    (%rax),%eax
    d98b:	09 c2                	or     %eax,%edx
    d98d:	48 8b 85 e8 ed ff ff 	mov    -0x1218(%rbp),%rax
    d994:	89 10                	mov    %edx,(%rax)
    d996:	eb 01                	jmp    d999 <func_65+0x36a8>
    d998:	90                   	nop
    d999:	8b 85 cc ec ff ff    	mov    -0x1334(%rbp),%eax
    d99f:	0f b7 c0             	movzwl %ax,%eax
    d9a2:	be 01 00 00 00       	mov    $0x1,%esi
    d9a7:	89 c7                	mov    %eax,%edi
    d9a9:	e8 51 63 ff ff       	callq  3cff <safe_add_func_uint16_t_u_u>
    d9ae:	0f b7 c0             	movzwl %ax,%eax
    d9b1:	89 85 cc ec ff ff    	mov    %eax,-0x1334(%rbp)
    d9b7:	83 bd cc ec ff ff 01 	cmpl   $0x1,-0x1334(%rbp)
    d9be:	0f 84 95 cb ff ff    	je     a559 <func_65+0x268>
    d9c4:	48 8b 85 d0 ec ff ff 	mov    -0x1330(%rbp),%rax
    d9cb:	48 8b 4d c8          	mov    -0x38(%rbp),%rcx
    d9cf:	64 48 33 0c 25 28 00 	xor    %fs:0x28,%rcx
    d9d6:	00 00 
    d9d8:	74 05                	je     d9df <func_65+0x36ee>
    d9da:	e8 91 56 ff ff       	callq  3070 <__stack_chk_fail@plt>
    d9df:	48 81 c4 28 13 00 00 	add    $0x1328,%rsp
    d9e6:	5b                   	pop    %rbx
    d9e7:	41 5c                	pop    %r12
    d9e9:	41 5d                	pop    %r13
    d9eb:	41 5e                	pop    %r14
    d9ed:	41 5f                	pop    %r15
    d9ef:	5d                   	pop    %rbp
    d9f0:	c3                   	retq   

000000000000d9f1 <main>:
    d9f1:	f3 0f 1e fa          	endbr64 
    d9f5:	55                   	push   %rbp
    d9f6:	48 89 e5             	mov    %rsp,%rbp
    d9f9:	48 83 ec 20          	sub    $0x20,%rsp
    d9fd:	89 7d ec             	mov    %edi,-0x14(%rbp)
    da00:	48 89 75 e0          	mov    %rsi,-0x20(%rbp)
    da04:	c7 45 fc 00 00 00 00 	movl   $0x0,-0x4(%rbp)
    da0b:	83 7d ec 02          	cmpl   $0x2,-0x14(%rbp)
    da0f:	75 25                	jne    da36 <main+0x45>
    da11:	48 8b 45 e0          	mov    -0x20(%rbp),%rax
    da15:	48 83 c0 08          	add    $0x8,%rax
    da19:	48 8b 00             	mov    (%rax),%rax
    da1c:	48 8d 35 75 44 00 00 	lea    0x4475(%rip),%rsi        # 11e98 <g_2577+0xe30>
    da23:	48 89 c7             	mov    %rax,%rdi
    da26:	e8 65 56 ff ff       	callq  3090 <strcmp@plt>
    da2b:	85 c0                	test   %eax,%eax
    da2d:	75 07                	jne    da36 <main+0x45>
    da2f:	c7 45 fc 01 00 00 00 	movl   $0x1,-0x4(%rbp)
    da36:	e8 4e 57 ff ff       	callq  3189 <platform_main_begin>
    da3b:	e8 58 6b ff ff       	callq  4598 <crc32_gentab>
    da40:	e8 70 6d ff ff       	callq  47b5 <func_1>
    da45:	8b 05 5d cc 00 00    	mov    0xcc5d(%rip),%eax        # 1a6a8 <g_9>
    da4b:	48 98                	cltq   
    da4d:	8b 55 fc             	mov    -0x4(%rbp),%edx
    da50:	48 8d 35 43 44 00 00 	lea    0x4443(%rip),%rsi        # 11e9a <g_2577+0xe32>
    da57:	48 89 c7             	mov    %rax,%rdi
    da5a:	e8 94 6c ff ff       	callq  46f3 <transparent_crc>
    da5f:	48 8b 05 c2 75 00 00 	mov    0x75c2(%rip),%rax        # 15028 <g_11>
    da66:	8b 55 fc             	mov    -0x4(%rbp),%edx
    da69:	48 8d 35 2e 44 00 00 	lea    0x442e(%rip),%rsi        # 11e9e <g_2577+0xe36>
    da70:	48 89 c7             	mov    %rax,%rdi
    da73:	e8 7b 6c ff ff       	callq  46f3 <transparent_crc>
    da78:	0f b6 05 b1 75 00 00 	movzbl 0x75b1(%rip),%eax        # 15030 <g_34>
    da7f:	0f b6 c0             	movzbl %al,%eax
    da82:	8b 55 fc             	mov    -0x4(%rbp),%edx
    da85:	48 8d 35 17 44 00 00 	lea    0x4417(%rip),%rsi        # 11ea3 <g_2577+0xe3b>
    da8c:	48 89 c7             	mov    %rax,%rdi
    da8f:	e8 5f 6c ff ff       	callq  46f3 <transparent_crc>
    da94:	c7 45 f0 00 00 00 00 	movl   $0x0,-0x10(%rbp)
    da9b:	eb 45                	jmp    dae2 <main+0xf1>
    da9d:	8b 45 f0             	mov    -0x10(%rbp),%eax
    daa0:	48 98                	cltq   
    daa2:	48 8d 15 8f 75 00 00 	lea    0x758f(%rip),%rdx        # 15038 <g_56>
    daa9:	0f b6 04 10          	movzbl (%rax,%rdx,1),%eax
    daad:	0f b6 c0             	movzbl %al,%eax
    dab0:	8b 55 fc             	mov    -0x4(%rbp),%edx
    dab3:	48 8d 35 ee 43 00 00 	lea    0x43ee(%rip),%rsi        # 11ea8 <g_2577+0xe40>
    daba:	48 89 c7             	mov    %rax,%rdi
    dabd:	e8 31 6c ff ff       	callq  46f3 <transparent_crc>
    dac2:	83 7d fc 00          	cmpl   $0x0,-0x4(%rbp)
    dac6:	74 16                	je     dade <main+0xed>
    dac8:	8b 45 f0             	mov    -0x10(%rbp),%eax
    dacb:	89 c6                	mov    %eax,%esi
    dacd:	48 8d 3d dc 43 00 00 	lea    0x43dc(%rip),%rdi        # 11eb0 <g_2577+0xe48>
    dad4:	b8 00 00 00 00       	mov    $0x0,%eax
    dad9:	e8 a2 55 ff ff       	callq  3080 <printf@plt>
    dade:	83 45 f0 01          	addl   $0x1,-0x10(%rbp)
    dae2:	83 7d f0 07          	cmpl   $0x7,-0x10(%rbp)
    dae6:	7e b5                	jle    da9d <main+0xac>
    dae8:	c7 45 f0 00 00 00 00 	movl   $0x0,-0x10(%rbp)
    daef:	eb 75                	jmp    db66 <main+0x175>
    daf1:	c7 45 f4 00 00 00 00 	movl   $0x0,-0xc(%rbp)
    daf8:	eb 62                	jmp    db5c <main+0x16b>
    dafa:	8b 45 f4             	mov    -0xc(%rbp),%eax
    dafd:	48 63 c8             	movslq %eax,%rcx
    db00:	8b 45 f0             	mov    -0x10(%rbp),%eax
    db03:	48 63 d0             	movslq %eax,%rdx
    db06:	48 89 d0             	mov    %rdx,%rax
    db09:	48 c1 e0 03          	shl    $0x3,%rax
    db0d:	48 01 d0             	add    %rdx,%rax
    db10:	48 01 c8             	add    %rcx,%rax
    db13:	48 8d 14 85 00 00 00 	lea    0x0(,%rax,4),%rdx
    db1a:	00 
    db1b:	48 8d 05 1e 75 00 00 	lea    0x751e(%rip),%rax        # 15040 <g_81>
    db22:	8b 04 02             	mov    (%rdx,%rax,1),%eax
    db25:	48 98                	cltq   
    db27:	8b 55 fc             	mov    -0x4(%rbp),%edx
    db2a:	48 8d 35 8d 43 00 00 	lea    0x438d(%rip),%rsi        # 11ebe <g_2577+0xe56>
    db31:	48 89 c7             	mov    %rax,%rdi
    db34:	e8 ba 6b ff ff       	callq  46f3 <transparent_crc>
    db39:	83 7d fc 00          	cmpl   $0x0,-0x4(%rbp)
    db3d:	74 19                	je     db58 <main+0x167>
    db3f:	8b 55 f4             	mov    -0xc(%rbp),%edx
    db42:	8b 45 f0             	mov    -0x10(%rbp),%eax
    db45:	89 c6                	mov    %eax,%esi
    db47:	48 8d 3d 7b 43 00 00 	lea    0x437b(%rip),%rdi        # 11ec9 <g_2577+0xe61>
    db4e:	b8 00 00 00 00       	mov    $0x0,%eax
    db53:	e8 28 55 ff ff       	callq  3080 <printf@plt>
    db58:	83 45 f4 01          	addl   $0x1,-0xc(%rbp)
    db5c:	83 7d f4 08          	cmpl   $0x8,-0xc(%rbp)
    db60:	7e 98                	jle    dafa <main+0x109>
    db62:	83 45 f0 01          	addl   $0x1,-0x10(%rbp)
    db66:	83 7d f0 05          	cmpl   $0x5,-0x10(%rbp)
    db6a:	7e 85                	jle    daf1 <main+0x100>
    db6c:	c7 45 f0 00 00 00 00 	movl   $0x0,-0x10(%rbp)
    db73:	eb 75                	jmp    dbea <main+0x1f9>
    db75:	c7 45 f4 00 00 00 00 	movl   $0x0,-0xc(%rbp)
    db7c:	eb 62                	jmp    dbe0 <main+0x1ef>
    db7e:	8b 45 f4             	mov    -0xc(%rbp),%eax
    db81:	48 63 c8             	movslq %eax,%rcx
    db84:	8b 45 f0             	mov    -0x10(%rbp),%eax
    db87:	48 63 d0             	movslq %eax,%rdx
    db8a:	48 89 d0             	mov    %rdx,%rax
    db8d:	48 c1 e0 03          	shl    $0x3,%rax
    db91:	48 01 d0             	add    %rdx,%rax
    db94:	48 01 c8             	add    %rcx,%rax
    db97:	48 8d 14 85 00 00 00 	lea    0x0(,%rax,4),%rdx
    db9e:	00 
    db9f:	48 8d 05 7a 75 00 00 	lea    0x757a(%rip),%rax        # 15120 <g_82>
    dba6:	8b 04 02             	mov    (%rdx,%rax,1),%eax
    dba9:	48 98                	cltq   
    dbab:	8b 55 fc             	mov    -0x4(%rbp),%edx
    dbae:	48 8d 35 26 43 00 00 	lea    0x4326(%rip),%rsi        # 11edb <g_2577+0xe73>
    dbb5:	48 89 c7             	mov    %rax,%rdi
    dbb8:	e8 36 6b ff ff       	callq  46f3 <transparent_crc>
    dbbd:	83 7d fc 00          	cmpl   $0x0,-0x4(%rbp)
    dbc1:	74 19                	je     dbdc <main+0x1eb>
    dbc3:	8b 55 f4             	mov    -0xc(%rbp),%edx
    dbc6:	8b 45 f0             	mov    -0x10(%rbp),%eax
    dbc9:	89 c6                	mov    %eax,%esi
    dbcb:	48 8d 3d f7 42 00 00 	lea    0x42f7(%rip),%rdi        # 11ec9 <g_2577+0xe61>
    dbd2:	b8 00 00 00 00       	mov    $0x0,%eax
    dbd7:	e8 a4 54 ff ff       	callq  3080 <printf@plt>
    dbdc:	83 45 f4 01          	addl   $0x1,-0xc(%rbp)
    dbe0:	83 7d f4 08          	cmpl   $0x8,-0xc(%rbp)
    dbe4:	7e 98                	jle    db7e <main+0x18d>
    dbe6:	83 45 f0 01          	addl   $0x1,-0x10(%rbp)
    dbea:	83 7d f0 02          	cmpl   $0x2,-0x10(%rbp)
    dbee:	7e 85                	jle    db75 <main+0x184>
    dbf0:	0f b7 05 95 75 00 00 	movzwl 0x7595(%rip),%eax        # 1518c <g_90>
    dbf7:	0f b7 c0             	movzwl %ax,%eax
    dbfa:	8b 55 fc             	mov    -0x4(%rbp),%edx
    dbfd:	48 8d 35 e2 42 00 00 	lea    0x42e2(%rip),%rsi        # 11ee6 <g_2577+0xe7e>
    dc04:	48 89 c7             	mov    %rax,%rdi
    dc07:	e8 e7 6a ff ff       	callq  46f3 <transparent_crc>
    dc0c:	0f b6 05 99 ca 00 00 	movzbl 0xca99(%rip),%eax        # 1a6ac <g_116>
    dc13:	0f b6 c0             	movzbl %al,%eax
    dc16:	8b 55 fc             	mov    -0x4(%rbp),%edx
    dc19:	48 8d 35 cb 42 00 00 	lea    0x42cb(%rip),%rsi        # 11eeb <g_2577+0xe83>
    dc20:	48 89 c7             	mov    %rax,%rdi
    dc23:	e8 cb 6a ff ff       	callq  46f3 <transparent_crc>
    dc28:	48 8b 05 61 75 00 00 	mov    0x7561(%rip),%rax        # 15190 <g_127>
    dc2f:	48 89 c1             	mov    %rax,%rcx
    dc32:	8b 45 fc             	mov    -0x4(%rbp),%eax
    dc35:	89 c2                	mov    %eax,%edx
    dc37:	48 8d 35 b3 42 00 00 	lea    0x42b3(%rip),%rsi        # 11ef1 <g_2577+0xe89>
    dc3e:	48 89 cf             	mov    %rcx,%rdi
    dc41:	e8 ad 6a ff ff       	callq  46f3 <transparent_crc>
    dc46:	48 8b 05 4b 75 00 00 	mov    0x754b(%rip),%rax        # 15198 <g_135>
    dc4d:	48 89 c1             	mov    %rax,%rcx
    dc50:	8b 45 fc             	mov    -0x4(%rbp),%eax
    dc53:	89 c2                	mov    %eax,%edx
    dc55:	48 8d 35 9b 42 00 00 	lea    0x429b(%rip),%rsi        # 11ef7 <g_2577+0xe8f>
    dc5c:	48 89 cf             	mov    %rcx,%rdi
    dc5f:	e8 8f 6a ff ff       	callq  46f3 <transparent_crc>
    dc64:	48 8b 05 35 75 00 00 	mov    0x7535(%rip),%rax        # 151a0 <g_140>
    dc6b:	8b 55 fc             	mov    -0x4(%rbp),%edx
    dc6e:	48 8d 35 88 42 00 00 	lea    0x4288(%rip),%rsi        # 11efd <g_2577+0xe95>
    dc75:	48 89 c7             	mov    %rax,%rdi
    dc78:	e8 76 6a ff ff       	callq  46f3 <transparent_crc>
    dc7d:	c7 45 f0 00 00 00 00 	movl   $0x0,-0x10(%rbp)
    dc84:	e9 18 02 00 00       	jmpq   dea1 <main+0x4b0>
    dc89:	8b 45 f0             	mov    -0x10(%rbp),%eax
    dc8c:	48 63 d0             	movslq %eax,%rdx
    dc8f:	48 89 d0             	mov    %rdx,%rax
    dc92:	48 c1 e0 02          	shl    $0x2,%rax
    dc96:	48 01 d0             	add    %rdx,%rax
    dc99:	48 c1 e0 03          	shl    $0x3,%rax
    dc9d:	48 01 c2             	add    %rax,%rdx
    dca0:	48 8d 05 19 75 00 00 	lea    0x7519(%rip),%rax        # 151c0 <g_144>
    dca7:	8b 04 02             	mov    (%rdx,%rax,1),%eax
    dcaa:	48 98                	cltq   
    dcac:	8b 55 fc             	mov    -0x4(%rbp),%edx
    dcaf:	48 8d 35 4d 42 00 00 	lea    0x424d(%rip),%rsi        # 11f03 <g_2577+0xe9b>
    dcb6:	48 89 c7             	mov    %rax,%rdi
    dcb9:	e8 35 6a ff ff       	callq  46f3 <transparent_crc>
    dcbe:	8b 45 f0             	mov    -0x10(%rbp),%eax
    dcc1:	48 63 d0             	movslq %eax,%rdx
    dcc4:	48 89 d0             	mov    %rdx,%rax
    dcc7:	48 c1 e0 02          	shl    $0x2,%rax
    dccb:	48 01 d0             	add    %rdx,%rax
    dcce:	48 c1 e0 03          	shl    $0x3,%rax
    dcd2:	48 01 c2             	add    %rax,%rdx
    dcd5:	48 8d 05 e4 74 00 00 	lea    0x74e4(%rip),%rax        # 151c0 <g_144>
    dcdc:	48 8b 44 02 04       	mov    0x4(%rdx,%rax,1),%rax
    dce1:	48 89 c1             	mov    %rax,%rcx
    dce4:	8b 45 fc             	mov    -0x4(%rbp),%eax
    dce7:	89 c2                	mov    %eax,%edx
    dce9:	48 8d 35 1f 42 00 00 	lea    0x421f(%rip),%rsi        # 11f0f <g_2577+0xea7>
    dcf0:	48 89 cf             	mov    %rcx,%rdi
    dcf3:	e8 fb 69 ff ff       	callq  46f3 <transparent_crc>
    dcf8:	8b 45 f0             	mov    -0x10(%rbp),%eax
    dcfb:	48 63 d0             	movslq %eax,%rdx
    dcfe:	48 89 d0             	mov    %rdx,%rax
    dd01:	48 c1 e0 02          	shl    $0x2,%rax
    dd05:	48 01 d0             	add    %rdx,%rax
    dd08:	48 c1 e0 03          	shl    $0x3,%rax
    dd0c:	48 01 c2             	add    %rax,%rdx
    dd0f:	48 8d 05 aa 74 00 00 	lea    0x74aa(%rip),%rax        # 151c0 <g_144>
    dd16:	48 8b 44 02 0c       	mov    0xc(%rdx,%rax,1),%rax
    dd1b:	48 89 c1             	mov    %rax,%rcx
    dd1e:	8b 45 fc             	mov    -0x4(%rbp),%eax
    dd21:	89 c2                	mov    %eax,%edx
    dd23:	48 8d 35 f1 41 00 00 	lea    0x41f1(%rip),%rsi        # 11f1b <g_2577+0xeb3>
    dd2a:	48 89 cf             	mov    %rcx,%rdi
    dd2d:	e8 c1 69 ff ff       	callq  46f3 <transparent_crc>
    dd32:	8b 45 f0             	mov    -0x10(%rbp),%eax
    dd35:	48 63 d0             	movslq %eax,%rdx
    dd38:	48 89 d0             	mov    %rdx,%rax
    dd3b:	48 c1 e0 02          	shl    $0x2,%rax
    dd3f:	48 01 d0             	add    %rdx,%rax
    dd42:	48 c1 e0 03          	shl    $0x3,%rax
    dd46:	48 01 c2             	add    %rax,%rdx
    dd49:	48 8d 05 84 74 00 00 	lea    0x7484(%rip),%rax        # 151d4 <g_144+0x14>
    dd50:	8b 04 02             	mov    (%rdx,%rax,1),%eax
    dd53:	48 98                	cltq   
    dd55:	8b 55 fc             	mov    -0x4(%rbp),%edx
    dd58:	48 8d 35 c8 41 00 00 	lea    0x41c8(%rip),%rsi        # 11f27 <g_2577+0xebf>
    dd5f:	48 89 c7             	mov    %rax,%rdi
    dd62:	e8 8c 69 ff ff       	callq  46f3 <transparent_crc>
    dd67:	8b 45 f0             	mov    -0x10(%rbp),%eax
    dd6a:	48 63 d0             	movslq %eax,%rdx
    dd6d:	48 89 d0             	mov    %rdx,%rax
    dd70:	48 c1 e0 02          	shl    $0x2,%rax
    dd74:	48 01 d0             	add    %rdx,%rax
    dd77:	48 c1 e0 03          	shl    $0x3,%rax
    dd7b:	48 01 c2             	add    %rax,%rdx
    dd7e:	48 8d 05 53 74 00 00 	lea    0x7453(%rip),%rax        # 151d8 <g_144+0x18>
    dd85:	8b 04 02             	mov    (%rdx,%rax,1),%eax
    dd88:	48 98                	cltq   
    dd8a:	8b 55 fc             	mov    -0x4(%rbp),%edx
    dd8d:	48 8d 35 9f 41 00 00 	lea    0x419f(%rip),%rsi        # 11f33 <g_2577+0xecb>
    dd94:	48 89 c7             	mov    %rax,%rdi
    dd97:	e8 57 69 ff ff       	callq  46f3 <transparent_crc>
    dd9c:	8b 45 f0             	mov    -0x10(%rbp),%eax
    dd9f:	48 63 d0             	movslq %eax,%rdx
    dda2:	48 89 d0             	mov    %rdx,%rax
    dda5:	48 c1 e0 02          	shl    $0x2,%rax
    dda9:	48 01 d0             	add    %rdx,%rax
    ddac:	48 c1 e0 03          	shl    $0x3,%rax
    ddb0:	48 01 c2             	add    %rax,%rdx
    ddb3:	48 8d 05 22 74 00 00 	lea    0x7422(%rip),%rax        # 151dc <g_144+0x1c>
    ddba:	0f b7 04 02          	movzwl (%rdx,%rax,1),%eax
    ddbe:	48 0f bf c0          	movswq %ax,%rax
    ddc2:	8b 55 fc             	mov    -0x4(%rbp),%edx
    ddc5:	48 8d 35 73 41 00 00 	lea    0x4173(%rip),%rsi        # 11f3f <g_2577+0xed7>
    ddcc:	48 89 c7             	mov    %rax,%rdi
    ddcf:	e8 1f 69 ff ff       	callq  46f3 <transparent_crc>
    ddd4:	8b 45 f0             	mov    -0x10(%rbp),%eax
    ddd7:	48 63 d0             	movslq %eax,%rdx
    ddda:	48 89 d0             	mov    %rdx,%rax
    dddd:	48 c1 e0 02          	shl    $0x2,%rax
    dde1:	48 01 d0             	add    %rdx,%rax
    dde4:	48 c1 e0 03          	shl    $0x3,%rax
    dde8:	48 01 c2             	add    %rax,%rdx
    ddeb:	48 8d 05 de 73 00 00 	lea    0x73de(%rip),%rax        # 151d0 <g_144+0x10>
    ddf2:	48 8b 44 02 0e       	mov    0xe(%rdx,%rax,1),%rax
    ddf7:	48 89 c1             	mov    %rax,%rcx
    ddfa:	8b 45 fc             	mov    -0x4(%rbp),%eax
    ddfd:	89 c2                	mov    %eax,%edx
    ddff:	48 8d 35 45 41 00 00 	lea    0x4145(%rip),%rsi        # 11f4b <g_2577+0xee3>
    de06:	48 89 cf             	mov    %rcx,%rdi
    de09:	e8 e5 68 ff ff       	callq  46f3 <transparent_crc>
    de0e:	8b 45 f0             	mov    -0x10(%rbp),%eax
    de11:	48 63 d0             	movslq %eax,%rdx
    de14:	48 89 d0             	mov    %rdx,%rax
    de17:	48 c1 e0 02          	shl    $0x2,%rax
    de1b:	48 01 d0             	add    %rdx,%rax
    de1e:	48 c1 e0 03          	shl    $0x3,%rax
    de22:	48 01 c2             	add    %rax,%rdx
    de25:	48 8d 05 b4 73 00 00 	lea    0x73b4(%rip),%rax        # 151e0 <g_144+0x20>
    de2c:	0f b6 44 02 06       	movzbl 0x6(%rdx,%rax,1),%eax
    de31:	83 e0 07             	and    $0x7,%eax
    de34:	0f b6 c0             	movzbl %al,%eax
    de37:	8b 55 fc             	mov    -0x4(%rbp),%edx
    de3a:	48 8d 35 16 41 00 00 	lea    0x4116(%rip),%rsi        # 11f57 <g_2577+0xeef>
    de41:	48 89 c7             	mov    %rax,%rdi
    de44:	e8 aa 68 ff ff       	callq  46f3 <transparent_crc>
    de49:	8b 45 f0             	mov    -0x10(%rbp),%eax
    de4c:	48 63 d0             	movslq %eax,%rdx
    de4f:	48 89 d0             	mov    %rdx,%rax
    de52:	48 c1 e0 02          	shl    $0x2,%rax
    de56:	48 01 d0             	add    %rdx,%rax
    de59:	48 c1 e0 03          	shl    $0x3,%rax
    de5d:	48 01 c2             	add    %rax,%rdx
    de60:	48 8d 05 79 73 00 00 	lea    0x7379(%rip),%rax        # 151e0 <g_144+0x20>
    de67:	0f b7 44 02 07       	movzwl 0x7(%rdx,%rax,1),%eax
    de6c:	0f b7 c0             	movzwl %ax,%eax
    de6f:	8b 55 fc             	mov    -0x4(%rbp),%edx
    de72:	48 8d 35 ea 40 00 00 	lea    0x40ea(%rip),%rsi        # 11f63 <g_2577+0xefb>
    de79:	48 89 c7             	mov    %rax,%rdi
    de7c:	e8 72 68 ff ff       	callq  46f3 <transparent_crc>
    de81:	83 7d fc 00          	cmpl   $0x0,-0x4(%rbp)
    de85:	74 16                	je     de9d <main+0x4ac>
    de87:	8b 45 f0             	mov    -0x10(%rbp),%eax
    de8a:	89 c6                	mov    %eax,%esi
    de8c:	48 8d 3d 1d 40 00 00 	lea    0x401d(%rip),%rdi        # 11eb0 <g_2577+0xe48>
    de93:	b8 00 00 00 00       	mov    $0x0,%eax
    de98:	e8 e3 51 ff ff       	callq  3080 <printf@plt>
    de9d:	83 45 f0 01          	addl   $0x1,-0x10(%rbp)
    dea1:	83 7d f0 09          	cmpl   $0x9,-0x10(%rbp)
    dea5:	0f 8e de fd ff ff    	jle    dc89 <main+0x298>
    deab:	8b 05 ab 74 00 00    	mov    0x74ab(%rip),%eax        # 1535c <g_183>
    deb1:	89 c1                	mov    %eax,%ecx
    deb3:	8b 45 fc             	mov    -0x4(%rbp),%eax
    deb6:	89 c2                	mov    %eax,%edx
    deb8:	48 8d 35 b0 40 00 00 	lea    0x40b0(%rip),%rsi        # 11f6f <g_2577+0xf07>
    debf:	48 89 cf             	mov    %rcx,%rdi
    dec2:	e8 2c 68 ff ff       	callq  46f3 <transparent_crc>
    dec7:	c7 45 f0 00 00 00 00 	movl   $0x0,-0x10(%rbp)
    dece:	eb 46                	jmp    df16 <main+0x525>
    ded0:	8b 45 f0             	mov    -0x10(%rbp),%eax
    ded3:	48 98                	cltq   
    ded5:	48 8d 15 84 74 00 00 	lea    0x7484(%rip),%rdx        # 15360 <g_210>
    dedc:	0f b6 04 10          	movzbl (%rax,%rdx,1),%eax
    dee0:	48 0f be c0          	movsbq %al,%rax
    dee4:	8b 55 fc             	mov    -0x4(%rbp),%edx
    dee7:	48 8d 35 87 40 00 00 	lea    0x4087(%rip),%rsi        # 11f75 <g_2577+0xf0d>
    deee:	48 89 c7             	mov    %rax,%rdi
    def1:	e8 fd 67 ff ff       	callq  46f3 <transparent_crc>
    def6:	83 7d fc 00          	cmpl   $0x0,-0x4(%rbp)
    defa:	74 16                	je     df12 <main+0x521>
    defc:	8b 45 f0             	mov    -0x10(%rbp),%eax
    deff:	89 c6                	mov    %eax,%esi
    df01:	48 8d 3d a8 3f 00 00 	lea    0x3fa8(%rip),%rdi        # 11eb0 <g_2577+0xe48>
    df08:	b8 00 00 00 00       	mov    $0x0,%eax
    df0d:	e8 6e 51 ff ff       	callq  3080 <printf@plt>
    df12:	83 45 f0 01          	addl   $0x1,-0x10(%rbp)
    df16:	83 7d f0 08          	cmpl   $0x8,-0x10(%rbp)
    df1a:	7e b4                	jle    ded0 <main+0x4df>
    df1c:	c7 45 f0 00 00 00 00 	movl   $0x0,-0x10(%rbp)
    df23:	e9 8b 03 00 00       	jmpq   e2b3 <main+0x8c2>
    df28:	c7 45 f4 00 00 00 00 	movl   $0x0,-0xc(%rbp)
    df2f:	e9 71 03 00 00       	jmpq   e2a5 <main+0x8b4>
    df34:	8b 45 f4             	mov    -0xc(%rbp),%eax
    df37:	48 98                	cltq   
    df39:	8b 55 f0             	mov    -0x10(%rbp),%edx
    df3c:	48 63 ca             	movslq %edx,%rcx
    df3f:	48 89 c2             	mov    %rax,%rdx
    df42:	48 c1 e2 02          	shl    $0x2,%rdx
    df46:	48 01 c2             	add    %rax,%rdx
    df49:	48 c1 e2 03          	shl    $0x3,%rdx
    df4d:	48 01 c2             	add    %rax,%rdx
    df50:	48 89 c8             	mov    %rcx,%rax
    df53:	48 c1 e0 02          	shl    $0x2,%rax
    df57:	48 01 c8             	add    %rcx,%rax
    df5a:	48 c1 e0 03          	shl    $0x3,%rax
    df5e:	48 01 c8             	add    %rcx,%rax
    df61:	48 8d 0c 85 00 00 00 	lea    0x0(,%rax,4),%rcx
    df68:	00 
    df69:	48 01 c8             	add    %rcx,%rax
    df6c:	48 01 c2             	add    %rax,%rdx
    df6f:	48 8d 05 0a 74 00 00 	lea    0x740a(%rip),%rax        # 15380 <g_246>
    df76:	48 01 d0             	add    %rdx,%rax
    df79:	8b 00                	mov    (%rax),%eax
    df7b:	48 98                	cltq   
    df7d:	8b 55 fc             	mov    -0x4(%rbp),%edx
    df80:	48 8d 35 f7 3f 00 00 	lea    0x3ff7(%rip),%rsi        # 11f7e <g_2577+0xf16>
    df87:	48 89 c7             	mov    %rax,%rdi
    df8a:	e8 64 67 ff ff       	callq  46f3 <transparent_crc>
    df8f:	8b 45 f4             	mov    -0xc(%rbp),%eax
    df92:	48 98                	cltq   
    df94:	8b 55 f0             	mov    -0x10(%rbp),%edx
    df97:	48 63 ca             	movslq %edx,%rcx
    df9a:	48 89 c2             	mov    %rax,%rdx
    df9d:	48 c1 e2 02          	shl    $0x2,%rdx
    dfa1:	48 01 c2             	add    %rax,%rdx
    dfa4:	48 c1 e2 03          	shl    $0x3,%rdx
    dfa8:	48 01 c2             	add    %rax,%rdx
    dfab:	48 89 c8             	mov    %rcx,%rax
    dfae:	48 c1 e0 02          	shl    $0x2,%rax
    dfb2:	48 01 c8             	add    %rcx,%rax
    dfb5:	48 c1 e0 03          	shl    $0x3,%rax
    dfb9:	48 01 c8             	add    %rcx,%rax
    dfbc:	48 8d 0c 85 00 00 00 	lea    0x0(,%rax,4),%rcx
    dfc3:	00 
    dfc4:	48 01 c8             	add    %rcx,%rax
    dfc7:	48 01 c2             	add    %rax,%rdx
    dfca:	48 8d 05 af 73 00 00 	lea    0x73af(%rip),%rax        # 15380 <g_246>
    dfd1:	48 01 d0             	add    %rdx,%rax
    dfd4:	48 8b 40 04          	mov    0x4(%rax),%rax
    dfd8:	48 89 c1             	mov    %rax,%rcx
    dfdb:	8b 45 fc             	mov    -0x4(%rbp),%eax
    dfde:	89 c2                	mov    %eax,%edx
    dfe0:	48 8d 35 a6 3f 00 00 	lea    0x3fa6(%rip),%rsi        # 11f8d <g_2577+0xf25>
    dfe7:	48 89 cf             	mov    %rcx,%rdi
    dfea:	e8 04 67 ff ff       	callq  46f3 <transparent_crc>
    dfef:	8b 45 f4             	mov    -0xc(%rbp),%eax
    dff2:	48 98                	cltq   
    dff4:	8b 55 f0             	mov    -0x10(%rbp),%edx
    dff7:	48 63 ca             	movslq %edx,%rcx
    dffa:	48 89 c2             	mov    %rax,%rdx
    dffd:	48 c1 e2 02          	shl    $0x2,%rdx
    e001:	48 01 c2             	add    %rax,%rdx
    e004:	48 c1 e2 03          	shl    $0x3,%rdx
    e008:	48 01 c2             	add    %rax,%rdx
    e00b:	48 89 c8             	mov    %rcx,%rax
    e00e:	48 c1 e0 02          	shl    $0x2,%rax
    e012:	48 01 c8             	add    %rcx,%rax
    e015:	48 c1 e0 03          	shl    $0x3,%rax
    e019:	48 01 c8             	add    %rcx,%rax
    e01c:	48 8d 0c 85 00 00 00 	lea    0x0(,%rax,4),%rcx
    e023:	00 
    e024:	48 01 c8             	add    %rcx,%rax
    e027:	48 01 c2             	add    %rax,%rdx
    e02a:	48 8d 05 4f 73 00 00 	lea    0x734f(%rip),%rax        # 15380 <g_246>
    e031:	48 01 d0             	add    %rdx,%rax
    e034:	48 8b 40 0c          	mov    0xc(%rax),%rax
    e038:	48 89 c1             	mov    %rax,%rcx
    e03b:	8b 45 fc             	mov    -0x4(%rbp),%eax
    e03e:	89 c2                	mov    %eax,%edx
    e040:	48 8d 35 55 3f 00 00 	lea    0x3f55(%rip),%rsi        # 11f9c <g_2577+0xf34>
    e047:	48 89 cf             	mov    %rcx,%rdi
    e04a:	e8 a4 66 ff ff       	callq  46f3 <transparent_crc>
    e04f:	8b 45 f4             	mov    -0xc(%rbp),%eax
    e052:	48 98                	cltq   
    e054:	8b 55 f0             	mov    -0x10(%rbp),%edx
    e057:	48 63 ca             	movslq %edx,%rcx
    e05a:	48 89 c2             	mov    %rax,%rdx
    e05d:	48 c1 e2 02          	shl    $0x2,%rdx
    e061:	48 01 c2             	add    %rax,%rdx
    e064:	48 c1 e2 03          	shl    $0x3,%rdx
    e068:	48 01 c2             	add    %rax,%rdx
    e06b:	48 89 c8             	mov    %rcx,%rax
    e06e:	48 c1 e0 02          	shl    $0x2,%rax
    e072:	48 01 c8             	add    %rcx,%rax
    e075:	48 c1 e0 03          	shl    $0x3,%rax
    e079:	48 01 c8             	add    %rcx,%rax
    e07c:	48 8d 0c 85 00 00 00 	lea    0x0(,%rax,4),%rcx
    e083:	00 
    e084:	48 01 c8             	add    %rcx,%rax
    e087:	48 01 c2             	add    %rax,%rdx
    e08a:	48 8d 05 03 73 00 00 	lea    0x7303(%rip),%rax        # 15394 <g_246+0x14>
    e091:	48 01 d0             	add    %rdx,%rax
    e094:	8b 00                	mov    (%rax),%eax
    e096:	48 98                	cltq   
    e098:	8b 55 fc             	mov    -0x4(%rbp),%edx
    e09b:	48 8d 35 09 3f 00 00 	lea    0x3f09(%rip),%rsi        # 11fab <g_2577+0xf43>
    e0a2:	48 89 c7             	mov    %rax,%rdi
    e0a5:	e8 49 66 ff ff       	callq  46f3 <transparent_crc>
    e0aa:	8b 45 f4             	mov    -0xc(%rbp),%eax
    e0ad:	48 98                	cltq   
    e0af:	8b 55 f0             	mov    -0x10(%rbp),%edx
    e0b2:	48 63 ca             	movslq %edx,%rcx
    e0b5:	48 89 c2             	mov    %rax,%rdx
    e0b8:	48 c1 e2 02          	shl    $0x2,%rdx
    e0bc:	48 01 c2             	add    %rax,%rdx
    e0bf:	48 c1 e2 03          	shl    $0x3,%rdx
    e0c3:	48 01 c2             	add    %rax,%rdx
    e0c6:	48 89 c8             	mov    %rcx,%rax
    e0c9:	48 c1 e0 02          	shl    $0x2,%rax
    e0cd:	48 01 c8             	add    %rcx,%rax
    e0d0:	48 c1 e0 03          	shl    $0x3,%rax
    e0d4:	48 01 c8             	add    %rcx,%rax
    e0d7:	48 8d 0c 85 00 00 00 	lea    0x0(,%rax,4),%rcx
    e0de:	00 
    e0df:	48 01 c8             	add    %rcx,%rax
    e0e2:	48 01 c2             	add    %rax,%rdx
    e0e5:	48 8d 05 ac 72 00 00 	lea    0x72ac(%rip),%rax        # 15398 <g_246+0x18>
    e0ec:	48 01 d0             	add    %rdx,%rax
    e0ef:	8b 00                	mov    (%rax),%eax
    e0f1:	48 98                	cltq   
    e0f3:	8b 55 fc             	mov    -0x4(%rbp),%edx
    e0f6:	48 8d 35 bd 3e 00 00 	lea    0x3ebd(%rip),%rsi        # 11fba <g_2577+0xf52>
    e0fd:	48 89 c7             	mov    %rax,%rdi
    e100:	e8 ee 65 ff ff       	callq  46f3 <transparent_crc>
    e105:	8b 45 f4             	mov    -0xc(%rbp),%eax
    e108:	48 98                	cltq   
    e10a:	8b 55 f0             	mov    -0x10(%rbp),%edx
    e10d:	48 63 ca             	movslq %edx,%rcx
    e110:	48 89 c2             	mov    %rax,%rdx
    e113:	48 c1 e2 02          	shl    $0x2,%rdx
    e117:	48 01 c2             	add    %rax,%rdx
    e11a:	48 c1 e2 03          	shl    $0x3,%rdx
    e11e:	48 01 c2             	add    %rax,%rdx
    e121:	48 89 c8             	mov    %rcx,%rax
    e124:	48 c1 e0 02          	shl    $0x2,%rax
    e128:	48 01 c8             	add    %rcx,%rax
    e12b:	48 c1 e0 03          	shl    $0x3,%rax
    e12f:	48 01 c8             	add    %rcx,%rax
    e132:	48 8d 0c 85 00 00 00 	lea    0x0(,%rax,4),%rcx
    e139:	00 
    e13a:	48 01 c8             	add    %rcx,%rax
    e13d:	48 01 c2             	add    %rax,%rdx
    e140:	48 8d 05 55 72 00 00 	lea    0x7255(%rip),%rax        # 1539c <g_246+0x1c>
    e147:	48 01 d0             	add    %rdx,%rax
    e14a:	0f b7 00             	movzwl (%rax),%eax
    e14d:	48 0f bf c0          	movswq %ax,%rax
    e151:	8b 55 fc             	mov    -0x4(%rbp),%edx
    e154:	48 8d 35 6e 3e 00 00 	lea    0x3e6e(%rip),%rsi        # 11fc9 <g_2577+0xf61>
    e15b:	48 89 c7             	mov    %rax,%rdi
    e15e:	e8 90 65 ff ff       	callq  46f3 <transparent_crc>
    e163:	8b 45 f4             	mov    -0xc(%rbp),%eax
    e166:	48 98                	cltq   
    e168:	8b 55 f0             	mov    -0x10(%rbp),%edx
    e16b:	48 63 ca             	movslq %edx,%rcx
    e16e:	48 89 c2             	mov    %rax,%rdx
    e171:	48 c1 e2 02          	shl    $0x2,%rdx
    e175:	48 01 c2             	add    %rax,%rdx
    e178:	48 c1 e2 03          	shl    $0x3,%rdx
    e17c:	48 01 c2             	add    %rax,%rdx
    e17f:	48 89 c8             	mov    %rcx,%rax
    e182:	48 c1 e0 02          	shl    $0x2,%rax
    e186:	48 01 c8             	add    %rcx,%rax
    e189:	48 c1 e0 03          	shl    $0x3,%rax
    e18d:	48 01 c8             	add    %rcx,%rax
    e190:	48 8d 0c 85 00 00 00 	lea    0x0(,%rax,4),%rcx
    e197:	00 
    e198:	48 01 c8             	add    %rcx,%rax
    e19b:	48 01 c2             	add    %rax,%rdx
    e19e:	48 8d 05 eb 71 00 00 	lea    0x71eb(%rip),%rax        # 15390 <g_246+0x10>
    e1a5:	48 01 d0             	add    %rdx,%rax
    e1a8:	48 8b 40 0e          	mov    0xe(%rax),%rax
    e1ac:	48 89 c1             	mov    %rax,%rcx
    e1af:	8b 45 fc             	mov    -0x4(%rbp),%eax
    e1b2:	89 c2                	mov    %eax,%edx
    e1b4:	48 8d 35 1d 3e 00 00 	lea    0x3e1d(%rip),%rsi        # 11fd8 <g_2577+0xf70>
    e1bb:	48 89 cf             	mov    %rcx,%rdi
    e1be:	e8 30 65 ff ff       	callq  46f3 <transparent_crc>
    e1c3:	8b 45 f4             	mov    -0xc(%rbp),%eax
    e1c6:	48 98                	cltq   
    e1c8:	8b 55 f0             	mov    -0x10(%rbp),%edx
    e1cb:	48 63 ca             	movslq %edx,%rcx
    e1ce:	48 89 c2             	mov    %rax,%rdx
    e1d1:	48 c1 e2 02          	shl    $0x2,%rdx
    e1d5:	48 01 c2             	add    %rax,%rdx
    e1d8:	48 c1 e2 03          	shl    $0x3,%rdx
    e1dc:	48 01 c2             	add    %rax,%rdx
    e1df:	48 89 c8             	mov    %rcx,%rax
    e1e2:	48 c1 e0 02          	shl    $0x2,%rax
    e1e6:	48 01 c8             	add    %rcx,%rax
    e1e9:	48 c1 e0 03          	shl    $0x3,%rax
    e1ed:	48 01 c8             	add    %rcx,%rax
    e1f0:	48 8d 0c 85 00 00 00 	lea    0x0(,%rax,4),%rcx
    e1f7:	00 
    e1f8:	48 01 c8             	add    %rcx,%rax
    e1fb:	48 01 c2             	add    %rax,%rdx
    e1fe:	48 8d 05 9b 71 00 00 	lea    0x719b(%rip),%rax        # 153a0 <g_246+0x20>
    e205:	48 01 d0             	add    %rdx,%rax
    e208:	0f b6 40 06          	movzbl 0x6(%rax),%eax
    e20c:	83 e0 07             	and    $0x7,%eax
    e20f:	0f b6 c0             	movzbl %al,%eax
    e212:	8b 55 fc             	mov    -0x4(%rbp),%edx
    e215:	48 8d 35 cb 3d 00 00 	lea    0x3dcb(%rip),%rsi        # 11fe7 <g_2577+0xf7f>
    e21c:	48 89 c7             	mov    %rax,%rdi
    e21f:	e8 cf 64 ff ff       	callq  46f3 <transparent_crc>
    e224:	8b 45 f4             	mov    -0xc(%rbp),%eax
    e227:	48 98                	cltq   
    e229:	8b 55 f0             	mov    -0x10(%rbp),%edx
    e22c:	48 63 ca             	movslq %edx,%rcx
    e22f:	48 89 c2             	mov    %rax,%rdx
    e232:	48 c1 e2 02          	shl    $0x2,%rdx
    e236:	48 01 c2             	add    %rax,%rdx
    e239:	48 c1 e2 03          	shl    $0x3,%rdx
    e23d:	48 01 c2             	add    %rax,%rdx
    e240:	48 89 c8             	mov    %rcx,%rax
    e243:	48 c1 e0 02          	shl    $0x2,%rax
    e247:	48 01 c8             	add    %rcx,%rax
    e24a:	48 c1 e0 03          	shl    $0x3,%rax
    e24e:	48 01 c8             	add    %rcx,%rax
    e251:	48 8d 0c 85 00 00 00 	lea    0x0(,%rax,4),%rcx
    e258:	00 
    e259:	48 01 c8             	add    %rcx,%rax
    e25c:	48 01 c2             	add    %rax,%rdx
    e25f:	48 8d 05 3a 71 00 00 	lea    0x713a(%rip),%rax        # 153a0 <g_246+0x20>
    e266:	48 01 d0             	add    %rdx,%rax
    e269:	0f b7 40 07          	movzwl 0x7(%rax),%eax
    e26d:	0f b7 c0             	movzwl %ax,%eax
    e270:	8b 55 fc             	mov    -0x4(%rbp),%edx
    e273:	48 8d 35 7c 3d 00 00 	lea    0x3d7c(%rip),%rsi        # 11ff6 <g_2577+0xf8e>
    e27a:	48 89 c7             	mov    %rax,%rdi
    e27d:	e8 71 64 ff ff       	callq  46f3 <transparent_crc>
    e282:	83 7d fc 00          	cmpl   $0x0,-0x4(%rbp)
    e286:	74 19                	je     e2a1 <main+0x8b0>
    e288:	8b 55 f4             	mov    -0xc(%rbp),%edx
    e28b:	8b 45 f0             	mov    -0x10(%rbp),%eax
    e28e:	89 c6                	mov    %eax,%esi
    e290:	48 8d 3d 32 3c 00 00 	lea    0x3c32(%rip),%rdi        # 11ec9 <g_2577+0xe61>
    e297:	b8 00 00 00 00       	mov    $0x0,%eax
    e29c:	e8 df 4d ff ff       	callq  3080 <printf@plt>
    e2a1:	83 45 f4 01          	addl   $0x1,-0xc(%rbp)
    e2a5:	83 7d f4 04          	cmpl   $0x4,-0xc(%rbp)
    e2a9:	0f 8e 85 fc ff ff    	jle    df34 <main+0x543>
    e2af:	83 45 f0 01          	addl   $0x1,-0x10(%rbp)
    e2b3:	83 7d f0 08          	cmpl   $0x8,-0x10(%rbp)
    e2b7:	0f 8e 6b fc ff ff    	jle    df28 <main+0x537>
    e2bd:	0f b7 05 f2 77 00 00 	movzwl 0x77f2(%rip),%eax        # 15ab6 <g_259>
    e2c4:	48 0f bf c0          	movswq %ax,%rax
    e2c8:	8b 55 fc             	mov    -0x4(%rbp),%edx
    e2cb:	48 8d 35 33 3d 00 00 	lea    0x3d33(%rip),%rsi        # 12005 <g_2577+0xf9d>
    e2d2:	48 89 c7             	mov    %rax,%rdi
    e2d5:	e8 19 64 ff ff       	callq  46f3 <transparent_crc>
    e2da:	0f b6 05 d7 77 00 00 	movzbl 0x77d7(%rip),%eax        # 15ab8 <g_278>
    e2e1:	48 0f be c0          	movsbq %al,%rax
    e2e5:	8b 55 fc             	mov    -0x4(%rbp),%edx
    e2e8:	48 8d 35 1c 3d 00 00 	lea    0x3d1c(%rip),%rsi        # 1200b <g_2577+0xfa3>
    e2ef:	48 89 c7             	mov    %rax,%rdi
    e2f2:	e8 fc 63 ff ff       	callq  46f3 <transparent_crc>
    e2f7:	0f b6 05 bb 77 00 00 	movzbl 0x77bb(%rip),%eax        # 15ab9 <g_296>
    e2fe:	48 0f be c0          	movsbq %al,%rax
    e302:	8b 55 fc             	mov    -0x4(%rbp),%edx
    e305:	48 8d 35 05 3d 00 00 	lea    0x3d05(%rip),%rsi        # 12011 <g_2577+0xfa9>
    e30c:	48 89 c7             	mov    %rax,%rdi
    e30f:	e8 df 63 ff ff       	callq  46f3 <transparent_crc>
    e314:	8b 05 a6 77 00 00    	mov    0x77a6(%rip),%eax        # 15ac0 <g_333>
    e31a:	48 98                	cltq   
    e31c:	8b 55 fc             	mov    -0x4(%rbp),%edx
    e31f:	48 8d 35 f1 3c 00 00 	lea    0x3cf1(%rip),%rsi        # 12017 <g_2577+0xfaf>
    e326:	48 89 c7             	mov    %rax,%rdi
    e329:	e8 c5 63 ff ff       	callq  46f3 <transparent_crc>
    e32e:	48 8b 05 8f 77 00 00 	mov    0x778f(%rip),%rax        # 15ac4 <g_333+0x4>
    e335:	48 89 c1             	mov    %rax,%rcx
    e338:	8b 45 fc             	mov    -0x4(%rbp),%eax
    e33b:	89 c2                	mov    %eax,%edx
    e33d:	48 8d 35 dc 3c 00 00 	lea    0x3cdc(%rip),%rsi        # 12020 <g_2577+0xfb8>
    e344:	48 89 cf             	mov    %rcx,%rdi
    e347:	e8 a7 63 ff ff       	callq  46f3 <transparent_crc>
    e34c:	48 8b 05 79 77 00 00 	mov    0x7779(%rip),%rax        # 15acc <g_333+0xc>
    e353:	48 89 c1             	mov    %rax,%rcx
    e356:	8b 45 fc             	mov    -0x4(%rbp),%eax
    e359:	89 c2                	mov    %eax,%edx
    e35b:	48 8d 35 c7 3c 00 00 	lea    0x3cc7(%rip),%rsi        # 12029 <g_2577+0xfc1>
    e362:	48 89 cf             	mov    %rcx,%rdi
    e365:	e8 89 63 ff ff       	callq  46f3 <transparent_crc>
    e36a:	8b 05 64 77 00 00    	mov    0x7764(%rip),%eax        # 15ad4 <g_333+0x14>
    e370:	48 98                	cltq   
    e372:	8b 55 fc             	mov    -0x4(%rbp),%edx
    e375:	48 8d 35 b6 3c 00 00 	lea    0x3cb6(%rip),%rsi        # 12032 <g_2577+0xfca>
    e37c:	48 89 c7             	mov    %rax,%rdi
    e37f:	e8 6f 63 ff ff       	callq  46f3 <transparent_crc>
    e384:	8b 05 4e 77 00 00    	mov    0x774e(%rip),%eax        # 15ad8 <g_333+0x18>
    e38a:	48 98                	cltq   
    e38c:	8b 55 fc             	mov    -0x4(%rbp),%edx
    e38f:	48 8d 35 a5 3c 00 00 	lea    0x3ca5(%rip),%rsi        # 1203b <g_2577+0xfd3>
    e396:	48 89 c7             	mov    %rax,%rdi
    e399:	e8 55 63 ff ff       	callq  46f3 <transparent_crc>
    e39e:	0f b7 05 37 77 00 00 	movzwl 0x7737(%rip),%eax        # 15adc <g_333+0x1c>
    e3a5:	48 0f bf c0          	movswq %ax,%rax
    e3a9:	8b 55 fc             	mov    -0x4(%rbp),%edx
    e3ac:	48 8d 35 91 3c 00 00 	lea    0x3c91(%rip),%rsi        # 12044 <g_2577+0xfdc>
    e3b3:	48 89 c7             	mov    %rax,%rdi
    e3b6:	e8 38 63 ff ff       	callq  46f3 <transparent_crc>
    e3bb:	48 8b 05 1c 77 00 00 	mov    0x771c(%rip),%rax        # 15ade <g_333+0x1e>
    e3c2:	48 89 c1             	mov    %rax,%rcx
    e3c5:	8b 45 fc             	mov    -0x4(%rbp),%eax
    e3c8:	89 c2                	mov    %eax,%edx
    e3ca:	48 8d 35 7c 3c 00 00 	lea    0x3c7c(%rip),%rsi        # 1204d <g_2577+0xfe5>
    e3d1:	48 89 cf             	mov    %rcx,%rdi
    e3d4:	e8 1a 63 ff ff       	callq  46f3 <transparent_crc>
    e3d9:	0f b6 05 06 77 00 00 	movzbl 0x7706(%rip),%eax        # 15ae6 <g_333+0x26>
    e3e0:	83 e0 07             	and    $0x7,%eax
    e3e3:	0f b6 c0             	movzbl %al,%eax
    e3e6:	8b 55 fc             	mov    -0x4(%rbp),%edx
    e3e9:	48 8d 35 66 3c 00 00 	lea    0x3c66(%rip),%rsi        # 12056 <g_2577+0xfee>
    e3f0:	48 89 c7             	mov    %rax,%rdi
    e3f3:	e8 fb 62 ff ff       	callq  46f3 <transparent_crc>
    e3f8:	0f b7 05 e8 76 00 00 	movzwl 0x76e8(%rip),%eax        # 15ae7 <g_333+0x27>
    e3ff:	0f b7 c0             	movzwl %ax,%eax
    e402:	8b 55 fc             	mov    -0x4(%rbp),%edx
    e405:	48 8d 35 53 3c 00 00 	lea    0x3c53(%rip),%rsi        # 1205f <g_2577+0xff7>
    e40c:	48 89 c7             	mov    %rax,%rdi
    e40f:	e8 df 62 ff ff       	callq  46f3 <transparent_crc>
    e414:	0f b7 05 cf 76 00 00 	movzwl 0x76cf(%rip),%eax        # 15aea <g_353>
    e41b:	48 0f bf c0          	movswq %ax,%rax
    e41f:	8b 55 fc             	mov    -0x4(%rbp),%edx
    e422:	48 8d 35 3f 3c 00 00 	lea    0x3c3f(%rip),%rsi        # 12068 <g_2577+0x1000>
    e429:	48 89 c7             	mov    %rax,%rdi
    e42c:	e8 c2 62 ff ff       	callq  46f3 <transparent_crc>
    e431:	0f b7 05 b0 c2 00 00 	movzwl 0xc2b0(%rip),%eax        # 1a6e8 <g_357>
    e438:	48 0f bf c0          	movswq %ax,%rax
    e43c:	8b 55 fc             	mov    -0x4(%rbp),%edx
    e43f:	48 8d 35 28 3c 00 00 	lea    0x3c28(%rip),%rsi        # 1206e <g_2577+0x1006>
    e446:	48 89 c7             	mov    %rax,%rdi
    e449:	e8 a5 62 ff ff       	callq  46f3 <transparent_crc>
    e44e:	c7 45 f0 00 00 00 00 	movl   $0x0,-0x10(%rbp)
    e455:	eb 4b                	jmp    e4a2 <main+0xab1>
    e457:	8b 45 f0             	mov    -0x10(%rbp),%eax
    e45a:	48 98                	cltq   
    e45c:	48 8d 14 85 00 00 00 	lea    0x0(,%rax,4),%rdx
    e463:	00 
    e464:	48 8d 05 85 76 00 00 	lea    0x7685(%rip),%rax        # 15af0 <g_358>
    e46b:	8b 04 02             	mov    (%rdx,%rax,1),%eax
    e46e:	48 98                	cltq   
    e470:	8b 55 fc             	mov    -0x4(%rbp),%edx
    e473:	48 8d 35 fa 3b 00 00 	lea    0x3bfa(%rip),%rsi        # 12074 <g_2577+0x100c>
    e47a:	48 89 c7             	mov    %rax,%rdi
    e47d:	e8 71 62 ff ff       	callq  46f3 <transparent_crc>
    e482:	83 7d fc 00          	cmpl   $0x0,-0x4(%rbp)
    e486:	74 16                	je     e49e <main+0xaad>
    e488:	8b 45 f0             	mov    -0x10(%rbp),%eax
    e48b:	89 c6                	mov    %eax,%esi
    e48d:	48 8d 3d 1c 3a 00 00 	lea    0x3a1c(%rip),%rdi        # 11eb0 <g_2577+0xe48>
    e494:	b8 00 00 00 00       	mov    $0x0,%eax
    e499:	e8 e2 4b ff ff       	callq  3080 <printf@plt>
    e49e:	83 45 f0 01          	addl   $0x1,-0x10(%rbp)
    e4a2:	83 7d f0 05          	cmpl   $0x5,-0x10(%rbp)
    e4a6:	7e af                	jle    e457 <main+0xa66>
    e4a8:	8b 05 72 76 00 00    	mov    0x7672(%rip),%eax        # 15b20 <g_429>
    e4ae:	48 98                	cltq   
    e4b0:	8b 55 fc             	mov    -0x4(%rbp),%edx
    e4b3:	48 8d 35 c3 3b 00 00 	lea    0x3bc3(%rip),%rsi        # 1207d <g_2577+0x1015>
    e4ba:	48 89 c7             	mov    %rax,%rdi
    e4bd:	e8 31 62 ff ff       	callq  46f3 <transparent_crc>
    e4c2:	48 8b 05 5b 76 00 00 	mov    0x765b(%rip),%rax        # 15b24 <g_429+0x4>
    e4c9:	48 89 c1             	mov    %rax,%rcx
    e4cc:	8b 45 fc             	mov    -0x4(%rbp),%eax
    e4cf:	89 c2                	mov    %eax,%edx
    e4d1:	48 8d 35 ae 3b 00 00 	lea    0x3bae(%rip),%rsi        # 12086 <g_2577+0x101e>
    e4d8:	48 89 cf             	mov    %rcx,%rdi
    e4db:	e8 13 62 ff ff       	callq  46f3 <transparent_crc>
    e4e0:	48 8b 05 45 76 00 00 	mov    0x7645(%rip),%rax        # 15b2c <g_429+0xc>
    e4e7:	48 89 c1             	mov    %rax,%rcx
    e4ea:	8b 45 fc             	mov    -0x4(%rbp),%eax
    e4ed:	89 c2                	mov    %eax,%edx
    e4ef:	48 8d 35 99 3b 00 00 	lea    0x3b99(%rip),%rsi        # 1208f <g_2577+0x1027>
    e4f6:	48 89 cf             	mov    %rcx,%rdi
    e4f9:	e8 f5 61 ff ff       	callq  46f3 <transparent_crc>
    e4fe:	8b 05 30 76 00 00    	mov    0x7630(%rip),%eax        # 15b34 <g_429+0x14>
    e504:	48 98                	cltq   
    e506:	8b 55 fc             	mov    -0x4(%rbp),%edx
    e509:	48 8d 35 88 3b 00 00 	lea    0x3b88(%rip),%rsi        # 12098 <g_2577+0x1030>
    e510:	48 89 c7             	mov    %rax,%rdi
    e513:	e8 db 61 ff ff       	callq  46f3 <transparent_crc>
    e518:	8b 05 1a 76 00 00    	mov    0x761a(%rip),%eax        # 15b38 <g_429+0x18>
    e51e:	48 98                	cltq   
    e520:	8b 55 fc             	mov    -0x4(%rbp),%edx
    e523:	48 8d 35 77 3b 00 00 	lea    0x3b77(%rip),%rsi        # 120a1 <g_2577+0x1039>
    e52a:	48 89 c7             	mov    %rax,%rdi
    e52d:	e8 c1 61 ff ff       	callq  46f3 <transparent_crc>
    e532:	0f b7 05 03 76 00 00 	movzwl 0x7603(%rip),%eax        # 15b3c <g_429+0x1c>
    e539:	48 0f bf c0          	movswq %ax,%rax
    e53d:	8b 55 fc             	mov    -0x4(%rbp),%edx
    e540:	48 8d 35 63 3b 00 00 	lea    0x3b63(%rip),%rsi        # 120aa <g_2577+0x1042>
    e547:	48 89 c7             	mov    %rax,%rdi
    e54a:	e8 a4 61 ff ff       	callq  46f3 <transparent_crc>
    e54f:	48 8b 05 e8 75 00 00 	mov    0x75e8(%rip),%rax        # 15b3e <g_429+0x1e>
    e556:	48 89 c1             	mov    %rax,%rcx
    e559:	8b 45 fc             	mov    -0x4(%rbp),%eax
    e55c:	89 c2                	mov    %eax,%edx
    e55e:	48 8d 35 4e 3b 00 00 	lea    0x3b4e(%rip),%rsi        # 120b3 <g_2577+0x104b>
    e565:	48 89 cf             	mov    %rcx,%rdi
    e568:	e8 86 61 ff ff       	callq  46f3 <transparent_crc>
    e56d:	0f b6 05 d2 75 00 00 	movzbl 0x75d2(%rip),%eax        # 15b46 <g_429+0x26>
    e574:	83 e0 07             	and    $0x7,%eax
    e577:	0f b6 c0             	movzbl %al,%eax
    e57a:	8b 55 fc             	mov    -0x4(%rbp),%edx
    e57d:	48 8d 35 38 3b 00 00 	lea    0x3b38(%rip),%rsi        # 120bc <g_2577+0x1054>
    e584:	48 89 c7             	mov    %rax,%rdi
    e587:	e8 67 61 ff ff       	callq  46f3 <transparent_crc>
    e58c:	0f b7 05 b4 75 00 00 	movzwl 0x75b4(%rip),%eax        # 15b47 <g_429+0x27>
    e593:	0f b7 c0             	movzwl %ax,%eax
    e596:	8b 55 fc             	mov    -0x4(%rbp),%edx
    e599:	48 8d 35 25 3b 00 00 	lea    0x3b25(%rip),%rsi        # 120c5 <g_2577+0x105d>
    e5a0:	48 89 c7             	mov    %rax,%rdi
    e5a3:	e8 4b 61 ff ff       	callq  46f3 <transparent_crc>
    e5a8:	8b 05 9e 75 00 00    	mov    0x759e(%rip),%eax        # 15b4c <g_524>
    e5ae:	89 c1                	mov    %eax,%ecx
    e5b0:	8b 45 fc             	mov    -0x4(%rbp),%eax
    e5b3:	89 c2                	mov    %eax,%edx
    e5b5:	48 8d 35 12 3b 00 00 	lea    0x3b12(%rip),%rsi        # 120ce <g_2577+0x1066>
    e5bc:	48 89 cf             	mov    %rcx,%rdi
    e5bf:	e8 2f 61 ff ff       	callq  46f3 <transparent_crc>
    e5c4:	b8 02 00 00 00       	mov    $0x2,%eax
    e5c9:	0f b7 c0             	movzwl %ax,%eax
    e5cc:	8b 55 fc             	mov    -0x4(%rbp),%edx
    e5cf:	48 8d 35 fe 3a 00 00 	lea    0x3afe(%rip),%rsi        # 120d4 <g_2577+0x106c>
    e5d6:	48 89 c7             	mov    %rax,%rdi
    e5d9:	e8 15 61 ff ff       	callq  46f3 <transparent_crc>
    e5de:	48 8b 05 6b 75 00 00 	mov    0x756b(%rip),%rax        # 15b50 <g_633>
    e5e5:	8b 55 fc             	mov    -0x4(%rbp),%edx
    e5e8:	48 8d 35 eb 3a 00 00 	lea    0x3aeb(%rip),%rsi        # 120da <g_2577+0x1072>
    e5ef:	48 89 c7             	mov    %rax,%rdi
    e5f2:	e8 fc 60 ff ff       	callq  46f3 <transparent_crc>
    e5f7:	b8 07 00 00 00       	mov    $0x7,%eax
    e5fc:	48 0f be c0          	movsbq %al,%rax
    e600:	8b 55 fc             	mov    -0x4(%rbp),%edx
    e603:	48 8d 35 d6 3a 00 00 	lea    0x3ad6(%rip),%rsi        # 120e0 <g_2577+0x1078>
    e60a:	48 89 c7             	mov    %rax,%rdi
    e60d:	e8 e1 60 ff ff       	callq  46f3 <transparent_crc>
    e612:	8b 05 40 75 00 00    	mov    0x7540(%rip),%eax        # 15b58 <g_710>
    e618:	89 c1                	mov    %eax,%ecx
    e61a:	8b 45 fc             	mov    -0x4(%rbp),%eax
    e61d:	89 c2                	mov    %eax,%edx
    e61f:	48 8d 35 c0 3a 00 00 	lea    0x3ac0(%rip),%rsi        # 120e6 <g_2577+0x107e>
    e626:	48 89 cf             	mov    %rcx,%rdi
    e629:	e8 c5 60 ff ff       	callq  46f3 <transparent_crc>
    e62e:	c7 45 f0 00 00 00 00 	movl   $0x0,-0x10(%rbp)
    e635:	eb 75                	jmp    e6ac <main+0xcbb>
    e637:	c7 45 f4 00 00 00 00 	movl   $0x0,-0xc(%rbp)
    e63e:	eb 62                	jmp    e6a2 <main+0xcb1>
    e640:	8b 45 f4             	mov    -0xc(%rbp),%eax
    e643:	48 63 c8             	movslq %eax,%rcx
    e646:	8b 45 f0             	mov    -0x10(%rbp),%eax
    e649:	48 63 d0             	movslq %eax,%rdx
    e64c:	48 89 d0             	mov    %rdx,%rax
    e64f:	48 01 c0             	add    %rax,%rax
    e652:	48 01 d0             	add    %rdx,%rax
    e655:	48 01 c0             	add    %rax,%rax
    e658:	48 01 c8             	add    %rcx,%rax
    e65b:	48 8d 14 00          	lea    (%rax,%rax,1),%rdx
    e65f:	48 8d 05 fa 74 00 00 	lea    0x74fa(%rip),%rax        # 15b60 <g_830>
    e666:	0f b7 04 02          	movzwl (%rdx,%rax,1),%eax
    e66a:	0f b7 c0             	movzwl %ax,%eax
    e66d:	8b 55 fc             	mov    -0x4(%rbp),%edx
    e670:	48 8d 35 75 3a 00 00 	lea    0x3a75(%rip),%rsi        # 120ec <g_2577+0x1084>
    e677:	48 89 c7             	mov    %rax,%rdi
    e67a:	e8 74 60 ff ff       	callq  46f3 <transparent_crc>
    e67f:	83 7d fc 00          	cmpl   $0x0,-0x4(%rbp)
    e683:	74 19                	je     e69e <main+0xcad>
    e685:	8b 55 f4             	mov    -0xc(%rbp),%edx
    e688:	8b 45 f0             	mov    -0x10(%rbp),%eax
    e68b:	89 c6                	mov    %eax,%esi
    e68d:	48 8d 3d 35 38 00 00 	lea    0x3835(%rip),%rdi        # 11ec9 <g_2577+0xe61>
    e694:	b8 00 00 00 00       	mov    $0x0,%eax
    e699:	e8 e2 49 ff ff       	callq  3080 <printf@plt>
    e69e:	83 45 f4 01          	addl   $0x1,-0xc(%rbp)
    e6a2:	83 7d f4 05          	cmpl   $0x5,-0xc(%rbp)
    e6a6:	7e 98                	jle    e640 <main+0xc4f>
    e6a8:	83 45 f0 01          	addl   $0x1,-0x10(%rbp)
    e6ac:	83 7d f0 02          	cmpl   $0x2,-0x10(%rbp)
    e6b0:	7e 85                	jle    e637 <main+0xc46>
    e6b2:	c7 45 f0 00 00 00 00 	movl   $0x0,-0x10(%rbp)
    e6b9:	e9 31 03 00 00       	jmpq   e9ef <main+0xffe>
    e6be:	c7 45 f4 00 00 00 00 	movl   $0x0,-0xc(%rbp)
    e6c5:	e9 17 03 00 00       	jmpq   e9e1 <main+0xff0>
    e6ca:	8b 45 f4             	mov    -0xc(%rbp),%eax
    e6cd:	48 63 d0             	movslq %eax,%rdx
    e6d0:	8b 45 f0             	mov    -0x10(%rbp),%eax
    e6d3:	48 63 c8             	movslq %eax,%rcx
    e6d6:	48 89 d0             	mov    %rdx,%rax
    e6d9:	48 c1 e0 02          	shl    $0x2,%rax
    e6dd:	48 01 d0             	add    %rdx,%rax
    e6e0:	48 c1 e0 03          	shl    $0x3,%rax
    e6e4:	48 01 d0             	add    %rdx,%rax
    e6e7:	48 89 ca             	mov    %rcx,%rdx
    e6ea:	48 c1 e2 03          	shl    $0x3,%rdx
    e6ee:	48 01 ca             	add    %rcx,%rdx
    e6f1:	48 c1 e2 05          	shl    $0x5,%rdx
    e6f5:	48 29 ca             	sub    %rcx,%rdx
    e6f8:	48 01 c2             	add    %rax,%rdx
    e6fb:	48 8d 05 9e 74 00 00 	lea    0x749e(%rip),%rax        # 15ba0 <g_900>
    e702:	48 01 d0             	add    %rdx,%rax
    e705:	8b 00                	mov    (%rax),%eax
    e707:	48 98                	cltq   
    e709:	8b 55 fc             	mov    -0x4(%rbp),%edx
    e70c:	48 8d 35 e5 39 00 00 	lea    0x39e5(%rip),%rsi        # 120f8 <g_2577+0x1090>
    e713:	48 89 c7             	mov    %rax,%rdi
    e716:	e8 d8 5f ff ff       	callq  46f3 <transparent_crc>
    e71b:	8b 45 f4             	mov    -0xc(%rbp),%eax
    e71e:	48 63 d0             	movslq %eax,%rdx
    e721:	8b 45 f0             	mov    -0x10(%rbp),%eax
    e724:	48 63 c8             	movslq %eax,%rcx
    e727:	48 89 d0             	mov    %rdx,%rax
    e72a:	48 c1 e0 02          	shl    $0x2,%rax
    e72e:	48 01 d0             	add    %rdx,%rax
    e731:	48 c1 e0 03          	shl    $0x3,%rax
    e735:	48 01 d0             	add    %rdx,%rax
    e738:	48 89 ca             	mov    %rcx,%rdx
    e73b:	48 c1 e2 03          	shl    $0x3,%rdx
    e73f:	48 01 ca             	add    %rcx,%rdx
    e742:	48 c1 e2 05          	shl    $0x5,%rdx
    e746:	48 29 ca             	sub    %rcx,%rdx
    e749:	48 01 c2             	add    %rax,%rdx
    e74c:	48 8d 05 4d 74 00 00 	lea    0x744d(%rip),%rax        # 15ba0 <g_900>
    e753:	48 01 d0             	add    %rdx,%rax
    e756:	48 8b 40 04          	mov    0x4(%rax),%rax
    e75a:	48 89 c1             	mov    %rax,%rcx
    e75d:	8b 45 fc             	mov    -0x4(%rbp),%eax
    e760:	89 c2                	mov    %eax,%edx
    e762:	48 8d 35 9e 39 00 00 	lea    0x399e(%rip),%rsi        # 12107 <g_2577+0x109f>
    e769:	48 89 cf             	mov    %rcx,%rdi
    e76c:	e8 82 5f ff ff       	callq  46f3 <transparent_crc>
    e771:	8b 45 f4             	mov    -0xc(%rbp),%eax
    e774:	48 63 d0             	movslq %eax,%rdx
    e777:	8b 45 f0             	mov    -0x10(%rbp),%eax
    e77a:	48 63 c8             	movslq %eax,%rcx
    e77d:	48 89 d0             	mov    %rdx,%rax
    e780:	48 c1 e0 02          	shl    $0x2,%rax
    e784:	48 01 d0             	add    %rdx,%rax
    e787:	48 c1 e0 03          	shl    $0x3,%rax
    e78b:	48 01 d0             	add    %rdx,%rax
    e78e:	48 89 ca             	mov    %rcx,%rdx
    e791:	48 c1 e2 03          	shl    $0x3,%rdx
    e795:	48 01 ca             	add    %rcx,%rdx
    e798:	48 c1 e2 05          	shl    $0x5,%rdx
    e79c:	48 29 ca             	sub    %rcx,%rdx
    e79f:	48 01 c2             	add    %rax,%rdx
    e7a2:	48 8d 05 f7 73 00 00 	lea    0x73f7(%rip),%rax        # 15ba0 <g_900>
    e7a9:	48 01 d0             	add    %rdx,%rax
    e7ac:	48 8b 40 0c          	mov    0xc(%rax),%rax
    e7b0:	48 89 c1             	mov    %rax,%rcx
    e7b3:	8b 45 fc             	mov    -0x4(%rbp),%eax
    e7b6:	89 c2                	mov    %eax,%edx
    e7b8:	48 8d 35 57 39 00 00 	lea    0x3957(%rip),%rsi        # 12116 <g_2577+0x10ae>
    e7bf:	48 89 cf             	mov    %rcx,%rdi
    e7c2:	e8 2c 5f ff ff       	callq  46f3 <transparent_crc>
    e7c7:	8b 45 f4             	mov    -0xc(%rbp),%eax
    e7ca:	48 63 d0             	movslq %eax,%rdx
    e7cd:	8b 45 f0             	mov    -0x10(%rbp),%eax
    e7d0:	48 63 c8             	movslq %eax,%rcx
    e7d3:	48 89 d0             	mov    %rdx,%rax
    e7d6:	48 c1 e0 02          	shl    $0x2,%rax
    e7da:	48 01 d0             	add    %rdx,%rax
    e7dd:	48 c1 e0 03          	shl    $0x3,%rax
    e7e1:	48 01 d0             	add    %rdx,%rax
    e7e4:	48 89 ca             	mov    %rcx,%rdx
    e7e7:	48 c1 e2 03          	shl    $0x3,%rdx
    e7eb:	48 01 ca             	add    %rcx,%rdx
    e7ee:	48 c1 e2 05          	shl    $0x5,%rdx
    e7f2:	48 29 ca             	sub    %rcx,%rdx
    e7f5:	48 01 c2             	add    %rax,%rdx
    e7f8:	48 8d 05 b5 73 00 00 	lea    0x73b5(%rip),%rax        # 15bb4 <g_900+0x14>
    e7ff:	48 01 d0             	add    %rdx,%rax
    e802:	8b 00                	mov    (%rax),%eax
    e804:	48 98                	cltq   
    e806:	8b 55 fc             	mov    -0x4(%rbp),%edx
    e809:	48 8d 35 15 39 00 00 	lea    0x3915(%rip),%rsi        # 12125 <g_2577+0x10bd>
    e810:	48 89 c7             	mov    %rax,%rdi
    e813:	e8 db 5e ff ff       	callq  46f3 <transparent_crc>
    e818:	8b 45 f4             	mov    -0xc(%rbp),%eax
    e81b:	48 63 d0             	movslq %eax,%rdx
    e81e:	8b 45 f0             	mov    -0x10(%rbp),%eax
    e821:	48 63 c8             	movslq %eax,%rcx
    e824:	48 89 d0             	mov    %rdx,%rax
    e827:	48 c1 e0 02          	shl    $0x2,%rax
    e82b:	48 01 d0             	add    %rdx,%rax
    e82e:	48 c1 e0 03          	shl    $0x3,%rax
    e832:	48 01 d0             	add    %rdx,%rax
    e835:	48 89 ca             	mov    %rcx,%rdx
    e838:	48 c1 e2 03          	shl    $0x3,%rdx
    e83c:	48 01 ca             	add    %rcx,%rdx
    e83f:	48 c1 e2 05          	shl    $0x5,%rdx
    e843:	48 29 ca             	sub    %rcx,%rdx
    e846:	48 01 c2             	add    %rax,%rdx
    e849:	48 8d 05 68 73 00 00 	lea    0x7368(%rip),%rax        # 15bb8 <g_900+0x18>
    e850:	48 01 d0             	add    %rdx,%rax
    e853:	8b 00                	mov    (%rax),%eax
    e855:	48 98                	cltq   
    e857:	8b 55 fc             	mov    -0x4(%rbp),%edx
    e85a:	48 8d 35 d3 38 00 00 	lea    0x38d3(%rip),%rsi        # 12134 <g_2577+0x10cc>
    e861:	48 89 c7             	mov    %rax,%rdi
    e864:	e8 8a 5e ff ff       	callq  46f3 <transparent_crc>
    e869:	8b 45 f4             	mov    -0xc(%rbp),%eax
    e86c:	48 63 d0             	movslq %eax,%rdx
    e86f:	8b 45 f0             	mov    -0x10(%rbp),%eax
    e872:	48 63 c8             	movslq %eax,%rcx
    e875:	48 89 d0             	mov    %rdx,%rax
    e878:	48 c1 e0 02          	shl    $0x2,%rax
    e87c:	48 01 d0             	add    %rdx,%rax
    e87f:	48 c1 e0 03          	shl    $0x3,%rax
    e883:	48 01 d0             	add    %rdx,%rax
    e886:	48 89 ca             	mov    %rcx,%rdx
    e889:	48 c1 e2 03          	shl    $0x3,%rdx
    e88d:	48 01 ca             	add    %rcx,%rdx
    e890:	48 c1 e2 05          	shl    $0x5,%rdx
    e894:	48 29 ca             	sub    %rcx,%rdx
    e897:	48 01 c2             	add    %rax,%rdx
    e89a:	48 8d 05 1b 73 00 00 	lea    0x731b(%rip),%rax        # 15bbc <g_900+0x1c>
    e8a1:	48 01 d0             	add    %rdx,%rax
    e8a4:	0f b7 00             	movzwl (%rax),%eax
    e8a7:	48 0f bf c0          	movswq %ax,%rax
    e8ab:	8b 55 fc             	mov    -0x4(%rbp),%edx
    e8ae:	48 8d 35 8e 38 00 00 	lea    0x388e(%rip),%rsi        # 12143 <g_2577+0x10db>
    e8b5:	48 89 c7             	mov    %rax,%rdi
    e8b8:	e8 36 5e ff ff       	callq  46f3 <transparent_crc>
    e8bd:	8b 45 f4             	mov    -0xc(%rbp),%eax
    e8c0:	48 63 d0             	movslq %eax,%rdx
    e8c3:	8b 45 f0             	mov    -0x10(%rbp),%eax
    e8c6:	48 63 c8             	movslq %eax,%rcx
    e8c9:	48 89 d0             	mov    %rdx,%rax
    e8cc:	48 c1 e0 02          	shl    $0x2,%rax
    e8d0:	48 01 d0             	add    %rdx,%rax
    e8d3:	48 c1 e0 03          	shl    $0x3,%rax
    e8d7:	48 01 d0             	add    %rdx,%rax
    e8da:	48 89 ca             	mov    %rcx,%rdx
    e8dd:	48 c1 e2 03          	shl    $0x3,%rdx
    e8e1:	48 01 ca             	add    %rcx,%rdx
    e8e4:	48 c1 e2 05          	shl    $0x5,%rdx
    e8e8:	48 29 ca             	sub    %rcx,%rdx
    e8eb:	48 01 c2             	add    %rax,%rdx
    e8ee:	48 8d 05 bb 72 00 00 	lea    0x72bb(%rip),%rax        # 15bb0 <g_900+0x10>
    e8f5:	48 01 d0             	add    %rdx,%rax
    e8f8:	48 8b 40 0e          	mov    0xe(%rax),%rax
    e8fc:	48 89 c1             	mov    %rax,%rcx
    e8ff:	8b 45 fc             	mov    -0x4(%rbp),%eax
    e902:	89 c2                	mov    %eax,%edx
    e904:	48 8d 35 47 38 00 00 	lea    0x3847(%rip),%rsi        # 12152 <g_2577+0x10ea>
    e90b:	48 89 cf             	mov    %rcx,%rdi
    e90e:	e8 e0 5d ff ff       	callq  46f3 <transparent_crc>
    e913:	8b 45 f4             	mov    -0xc(%rbp),%eax
    e916:	48 63 d0             	movslq %eax,%rdx
    e919:	8b 45 f0             	mov    -0x10(%rbp),%eax
    e91c:	48 63 c8             	movslq %eax,%rcx
    e91f:	48 89 d0             	mov    %rdx,%rax
    e922:	48 c1 e0 02          	shl    $0x2,%rax
    e926:	48 01 d0             	add    %rdx,%rax
    e929:	48 c1 e0 03          	shl    $0x3,%rax
    e92d:	48 01 d0             	add    %rdx,%rax
    e930:	48 89 ca             	mov    %rcx,%rdx
    e933:	48 c1 e2 03          	shl    $0x3,%rdx
    e937:	48 01 ca             	add    %rcx,%rdx
    e93a:	48 c1 e2 05          	shl    $0x5,%rdx
    e93e:	48 29 ca             	sub    %rcx,%rdx
    e941:	48 01 c2             	add    %rax,%rdx
    e944:	48 8d 05 75 72 00 00 	lea    0x7275(%rip),%rax        # 15bc0 <g_900+0x20>
    e94b:	48 01 d0             	add    %rdx,%rax
    e94e:	0f b6 40 06          	movzbl 0x6(%rax),%eax
    e952:	83 e0 07             	and    $0x7,%eax
    e955:	0f b6 c0             	movzbl %al,%eax
    e958:	8b 55 fc             	mov    -0x4(%rbp),%edx
    e95b:	48 8d 35 ff 37 00 00 	lea    0x37ff(%rip),%rsi        # 12161 <g_2577+0x10f9>
    e962:	48 89 c7             	mov    %rax,%rdi
    e965:	e8 89 5d ff ff       	callq  46f3 <transparent_crc>
    e96a:	8b 45 f4             	mov    -0xc(%rbp),%eax
    e96d:	48 63 d0             	movslq %eax,%rdx
    e970:	8b 45 f0             	mov    -0x10(%rbp),%eax
    e973:	48 63 c8             	movslq %eax,%rcx
    e976:	48 89 d0             	mov    %rdx,%rax
    e979:	48 c1 e0 02          	shl    $0x2,%rax
    e97d:	48 01 d0             	add    %rdx,%rax
    e980:	48 c1 e0 03          	shl    $0x3,%rax
    e984:	48 01 d0             	add    %rdx,%rax
    e987:	48 89 ca             	mov    %rcx,%rdx
    e98a:	48 c1 e2 03          	shl    $0x3,%rdx
    e98e:	48 01 ca             	add    %rcx,%rdx
    e991:	48 c1 e2 05          	shl    $0x5,%rdx
    e995:	48 29 ca             	sub    %rcx,%rdx
    e998:	48 01 c2             	add    %rax,%rdx
    e99b:	48 8d 05 1e 72 00 00 	lea    0x721e(%rip),%rax        # 15bc0 <g_900+0x20>
    e9a2:	48 01 d0             	add    %rdx,%rax
    e9a5:	0f b7 40 07          	movzwl 0x7(%rax),%eax
    e9a9:	0f b7 c0             	movzwl %ax,%eax
    e9ac:	8b 55 fc             	mov    -0x4(%rbp),%edx
    e9af:	48 8d 35 ba 37 00 00 	lea    0x37ba(%rip),%rsi        # 12170 <g_2577+0x1108>
    e9b6:	48 89 c7             	mov    %rax,%rdi
    e9b9:	e8 35 5d ff ff       	callq  46f3 <transparent_crc>
    e9be:	83 7d fc 00          	cmpl   $0x0,-0x4(%rbp)
    e9c2:	74 19                	je     e9dd <main+0xfec>
    e9c4:	8b 55 f4             	mov    -0xc(%rbp),%edx
    e9c7:	8b 45 f0             	mov    -0x10(%rbp),%eax
    e9ca:	89 c6                	mov    %eax,%esi
    e9cc:	48 8d 3d f6 34 00 00 	lea    0x34f6(%rip),%rdi        # 11ec9 <g_2577+0xe61>
    e9d3:	b8 00 00 00 00       	mov    $0x0,%eax
    e9d8:	e8 a3 46 ff ff       	callq  3080 <printf@plt>
    e9dd:	83 45 f4 01          	addl   $0x1,-0xc(%rbp)
    e9e1:	83 7d f4 06          	cmpl   $0x6,-0xc(%rbp)
    e9e5:	0f 8e df fc ff ff    	jle    e6ca <main+0xcd9>
    e9eb:	83 45 f0 01          	addl   $0x1,-0x10(%rbp)
    e9ef:	83 7d f0 07          	cmpl   $0x7,-0x10(%rbp)
    e9f3:	0f 8e c5 fc ff ff    	jle    e6be <main+0xccd>
    e9f9:	8b 05 a1 7a 00 00    	mov    0x7aa1(%rip),%eax        # 164a0 <g_1015>
    e9ff:	48 98                	cltq   
    ea01:	8b 55 fc             	mov    -0x4(%rbp),%edx
    ea04:	48 8d 35 74 37 00 00 	lea    0x3774(%rip),%rsi        # 1217f <g_2577+0x1117>
    ea0b:	48 89 c7             	mov    %rax,%rdi
    ea0e:	e8 e0 5c ff ff       	callq  46f3 <transparent_crc>
    ea13:	48 8b 05 8a 7a 00 00 	mov    0x7a8a(%rip),%rax        # 164a4 <g_1015+0x4>
    ea1a:	48 89 c1             	mov    %rax,%rcx
    ea1d:	8b 45 fc             	mov    -0x4(%rbp),%eax
    ea20:	89 c2                	mov    %eax,%edx
    ea22:	48 8d 35 60 37 00 00 	lea    0x3760(%rip),%rsi        # 12189 <g_2577+0x1121>
    ea29:	48 89 cf             	mov    %rcx,%rdi
    ea2c:	e8 c2 5c ff ff       	callq  46f3 <transparent_crc>
    ea31:	48 8b 05 74 7a 00 00 	mov    0x7a74(%rip),%rax        # 164ac <g_1015+0xc>
    ea38:	48 89 c1             	mov    %rax,%rcx
    ea3b:	8b 45 fc             	mov    -0x4(%rbp),%eax
    ea3e:	89 c2                	mov    %eax,%edx
    ea40:	48 8d 35 4c 37 00 00 	lea    0x374c(%rip),%rsi        # 12193 <g_2577+0x112b>
    ea47:	48 89 cf             	mov    %rcx,%rdi
    ea4a:	e8 a4 5c ff ff       	callq  46f3 <transparent_crc>
    ea4f:	8b 05 5f 7a 00 00    	mov    0x7a5f(%rip),%eax        # 164b4 <g_1015+0x14>
    ea55:	48 98                	cltq   
    ea57:	8b 55 fc             	mov    -0x4(%rbp),%edx
    ea5a:	48 8d 35 3c 37 00 00 	lea    0x373c(%rip),%rsi        # 1219d <g_2577+0x1135>
    ea61:	48 89 c7             	mov    %rax,%rdi
    ea64:	e8 8a 5c ff ff       	callq  46f3 <transparent_crc>
    ea69:	8b 05 49 7a 00 00    	mov    0x7a49(%rip),%eax        # 164b8 <g_1015+0x18>
    ea6f:	48 98                	cltq   
    ea71:	8b 55 fc             	mov    -0x4(%rbp),%edx
    ea74:	48 8d 35 2c 37 00 00 	lea    0x372c(%rip),%rsi        # 121a7 <g_2577+0x113f>
    ea7b:	48 89 c7             	mov    %rax,%rdi
    ea7e:	e8 70 5c ff ff       	callq  46f3 <transparent_crc>
    ea83:	0f b7 05 32 7a 00 00 	movzwl 0x7a32(%rip),%eax        # 164bc <g_1015+0x1c>
    ea8a:	48 0f bf c0          	movswq %ax,%rax
    ea8e:	8b 55 fc             	mov    -0x4(%rbp),%edx
    ea91:	48 8d 35 19 37 00 00 	lea    0x3719(%rip),%rsi        # 121b1 <g_2577+0x1149>
    ea98:	48 89 c7             	mov    %rax,%rdi
    ea9b:	e8 53 5c ff ff       	callq  46f3 <transparent_crc>
    eaa0:	48 8b 05 17 7a 00 00 	mov    0x7a17(%rip),%rax        # 164be <g_1015+0x1e>
    eaa7:	48 89 c1             	mov    %rax,%rcx
    eaaa:	8b 45 fc             	mov    -0x4(%rbp),%eax
    eaad:	89 c2                	mov    %eax,%edx
    eaaf:	48 8d 35 05 37 00 00 	lea    0x3705(%rip),%rsi        # 121bb <g_2577+0x1153>
    eab6:	48 89 cf             	mov    %rcx,%rdi
    eab9:	e8 35 5c ff ff       	callq  46f3 <transparent_crc>
    eabe:	0f b6 05 01 7a 00 00 	movzbl 0x7a01(%rip),%eax        # 164c6 <g_1015+0x26>
    eac5:	83 e0 07             	and    $0x7,%eax
    eac8:	0f b6 c0             	movzbl %al,%eax
    eacb:	8b 55 fc             	mov    -0x4(%rbp),%edx
    eace:	48 8d 35 f0 36 00 00 	lea    0x36f0(%rip),%rsi        # 121c5 <g_2577+0x115d>
    ead5:	48 89 c7             	mov    %rax,%rdi
    ead8:	e8 16 5c ff ff       	callq  46f3 <transparent_crc>
    eadd:	0f b7 05 e3 79 00 00 	movzwl 0x79e3(%rip),%eax        # 164c7 <g_1015+0x27>
    eae4:	0f b7 c0             	movzwl %ax,%eax
    eae7:	8b 55 fc             	mov    -0x4(%rbp),%edx
    eaea:	48 8d 35 de 36 00 00 	lea    0x36de(%rip),%rsi        # 121cf <g_2577+0x1167>
    eaf1:	48 89 c7             	mov    %rax,%rdi
    eaf4:	e8 fa 5b ff ff       	callq  46f3 <transparent_crc>
    eaf9:	8b 05 e1 79 00 00    	mov    0x79e1(%rip),%eax        # 164e0 <g_1017>
    eaff:	48 98                	cltq   
    eb01:	8b 55 fc             	mov    -0x4(%rbp),%edx
    eb04:	48 8d 35 ce 36 00 00 	lea    0x36ce(%rip),%rsi        # 121d9 <g_2577+0x1171>
    eb0b:	48 89 c7             	mov    %rax,%rdi
    eb0e:	e8 e0 5b ff ff       	callq  46f3 <transparent_crc>
    eb13:	48 8b 05 ca 79 00 00 	mov    0x79ca(%rip),%rax        # 164e4 <g_1017+0x4>
    eb1a:	48 89 c1             	mov    %rax,%rcx
    eb1d:	8b 45 fc             	mov    -0x4(%rbp),%eax
    eb20:	89 c2                	mov    %eax,%edx
    eb22:	48 8d 35 ba 36 00 00 	lea    0x36ba(%rip),%rsi        # 121e3 <g_2577+0x117b>
    eb29:	48 89 cf             	mov    %rcx,%rdi
    eb2c:	e8 c2 5b ff ff       	callq  46f3 <transparent_crc>
    eb31:	48 8b 05 b4 79 00 00 	mov    0x79b4(%rip),%rax        # 164ec <g_1017+0xc>
    eb38:	48 89 c1             	mov    %rax,%rcx
    eb3b:	8b 45 fc             	mov    -0x4(%rbp),%eax
    eb3e:	89 c2                	mov    %eax,%edx
    eb40:	48 8d 35 a6 36 00 00 	lea    0x36a6(%rip),%rsi        # 121ed <g_2577+0x1185>
    eb47:	48 89 cf             	mov    %rcx,%rdi
    eb4a:	e8 a4 5b ff ff       	callq  46f3 <transparent_crc>
    eb4f:	8b 05 9f 79 00 00    	mov    0x799f(%rip),%eax        # 164f4 <g_1017+0x14>
    eb55:	48 98                	cltq   
    eb57:	8b 55 fc             	mov    -0x4(%rbp),%edx
    eb5a:	48 8d 35 96 36 00 00 	lea    0x3696(%rip),%rsi        # 121f7 <g_2577+0x118f>
    eb61:	48 89 c7             	mov    %rax,%rdi
    eb64:	e8 8a 5b ff ff       	callq  46f3 <transparent_crc>
    eb69:	8b 05 89 79 00 00    	mov    0x7989(%rip),%eax        # 164f8 <g_1017+0x18>
    eb6f:	48 98                	cltq   
    eb71:	8b 55 fc             	mov    -0x4(%rbp),%edx
    eb74:	48 8d 35 86 36 00 00 	lea    0x3686(%rip),%rsi        # 12201 <g_2577+0x1199>
    eb7b:	48 89 c7             	mov    %rax,%rdi
    eb7e:	e8 70 5b ff ff       	callq  46f3 <transparent_crc>
    eb83:	0f b7 05 72 79 00 00 	movzwl 0x7972(%rip),%eax        # 164fc <g_1017+0x1c>
    eb8a:	48 0f bf c0          	movswq %ax,%rax
    eb8e:	8b 55 fc             	mov    -0x4(%rbp),%edx
    eb91:	48 8d 35 73 36 00 00 	lea    0x3673(%rip),%rsi        # 1220b <g_2577+0x11a3>
    eb98:	48 89 c7             	mov    %rax,%rdi
    eb9b:	e8 53 5b ff ff       	callq  46f3 <transparent_crc>
    eba0:	48 8b 05 57 79 00 00 	mov    0x7957(%rip),%rax        # 164fe <g_1017+0x1e>
    eba7:	48 89 c1             	mov    %rax,%rcx
    ebaa:	8b 45 fc             	mov    -0x4(%rbp),%eax
    ebad:	89 c2                	mov    %eax,%edx
    ebaf:	48 8d 35 5f 36 00 00 	lea    0x365f(%rip),%rsi        # 12215 <g_2577+0x11ad>
    ebb6:	48 89 cf             	mov    %rcx,%rdi
    ebb9:	e8 35 5b ff ff       	callq  46f3 <transparent_crc>
    ebbe:	0f b6 05 41 79 00 00 	movzbl 0x7941(%rip),%eax        # 16506 <g_1017+0x26>
    ebc5:	83 e0 07             	and    $0x7,%eax
    ebc8:	0f b6 c0             	movzbl %al,%eax
    ebcb:	8b 55 fc             	mov    -0x4(%rbp),%edx
    ebce:	48 8d 35 4a 36 00 00 	lea    0x364a(%rip),%rsi        # 1221f <g_2577+0x11b7>
    ebd5:	48 89 c7             	mov    %rax,%rdi
    ebd8:	e8 16 5b ff ff       	callq  46f3 <transparent_crc>
    ebdd:	0f b7 05 23 79 00 00 	movzwl 0x7923(%rip),%eax        # 16507 <g_1017+0x27>
    ebe4:	0f b7 c0             	movzwl %ax,%eax
    ebe7:	8b 55 fc             	mov    -0x4(%rbp),%edx
    ebea:	48 8d 35 38 36 00 00 	lea    0x3638(%rip),%rsi        # 12229 <g_2577+0x11c1>
    ebf1:	48 89 c7             	mov    %rax,%rdi
    ebf4:	e8 fa 5a ff ff       	callq  46f3 <transparent_crc>
    ebf9:	c7 45 f0 00 00 00 00 	movl   $0x0,-0x10(%rbp)
    ec00:	e9 18 02 00 00       	jmpq   ee1d <main+0x142c>
    ec05:	8b 45 f0             	mov    -0x10(%rbp),%eax
    ec08:	48 63 d0             	movslq %eax,%rdx
    ec0b:	48 89 d0             	mov    %rdx,%rax
    ec0e:	48 c1 e0 02          	shl    $0x2,%rax
    ec12:	48 01 d0             	add    %rdx,%rax
    ec15:	48 c1 e0 03          	shl    $0x3,%rax
    ec19:	48 01 c2             	add    %rax,%rdx
    ec1c:	48 8d 05 fd 78 00 00 	lea    0x78fd(%rip),%rax        # 16520 <g_1018>
    ec23:	8b 04 02             	mov    (%rdx,%rax,1),%eax
    ec26:	48 98                	cltq   
    ec28:	8b 55 fc             	mov    -0x4(%rbp),%edx
    ec2b:	48 8d 35 01 36 00 00 	lea    0x3601(%rip),%rsi        # 12233 <g_2577+0x11cb>
    ec32:	48 89 c7             	mov    %rax,%rdi
    ec35:	e8 b9 5a ff ff       	callq  46f3 <transparent_crc>
    ec3a:	8b 45 f0             	mov    -0x10(%rbp),%eax
    ec3d:	48 63 d0             	movslq %eax,%rdx
    ec40:	48 89 d0             	mov    %rdx,%rax
    ec43:	48 c1 e0 02          	shl    $0x2,%rax
    ec47:	48 01 d0             	add    %rdx,%rax
    ec4a:	48 c1 e0 03          	shl    $0x3,%rax
    ec4e:	48 01 c2             	add    %rax,%rdx
    ec51:	48 8d 05 c8 78 00 00 	lea    0x78c8(%rip),%rax        # 16520 <g_1018>
    ec58:	48 8b 44 02 04       	mov    0x4(%rdx,%rax,1),%rax
    ec5d:	48 89 c1             	mov    %rax,%rcx
    ec60:	8b 45 fc             	mov    -0x4(%rbp),%eax
    ec63:	89 c2                	mov    %eax,%edx
    ec65:	48 8d 35 d4 35 00 00 	lea    0x35d4(%rip),%rsi        # 12240 <g_2577+0x11d8>
    ec6c:	48 89 cf             	mov    %rcx,%rdi
    ec6f:	e8 7f 5a ff ff       	callq  46f3 <transparent_crc>
    ec74:	8b 45 f0             	mov    -0x10(%rbp),%eax
    ec77:	48 63 d0             	movslq %eax,%rdx
    ec7a:	48 89 d0             	mov    %rdx,%rax
    ec7d:	48 c1 e0 02          	shl    $0x2,%rax
    ec81:	48 01 d0             	add    %rdx,%rax
    ec84:	48 c1 e0 03          	shl    $0x3,%rax
    ec88:	48 01 c2             	add    %rax,%rdx
    ec8b:	48 8d 05 8e 78 00 00 	lea    0x788e(%rip),%rax        # 16520 <g_1018>
    ec92:	48 8b 44 02 0c       	mov    0xc(%rdx,%rax,1),%rax
    ec97:	48 89 c1             	mov    %rax,%rcx
    ec9a:	8b 45 fc             	mov    -0x4(%rbp),%eax
    ec9d:	89 c2                	mov    %eax,%edx
    ec9f:	48 8d 35 a7 35 00 00 	lea    0x35a7(%rip),%rsi        # 1224d <g_2577+0x11e5>
    eca6:	48 89 cf             	mov    %rcx,%rdi
    eca9:	e8 45 5a ff ff       	callq  46f3 <transparent_crc>
    ecae:	8b 45 f0             	mov    -0x10(%rbp),%eax
    ecb1:	48 63 d0             	movslq %eax,%rdx
    ecb4:	48 89 d0             	mov    %rdx,%rax
    ecb7:	48 c1 e0 02          	shl    $0x2,%rax
    ecbb:	48 01 d0             	add    %rdx,%rax
    ecbe:	48 c1 e0 03          	shl    $0x3,%rax
    ecc2:	48 01 c2             	add    %rax,%rdx
    ecc5:	48 8d 05 68 78 00 00 	lea    0x7868(%rip),%rax        # 16534 <g_1018+0x14>
    eccc:	8b 04 02             	mov    (%rdx,%rax,1),%eax
    eccf:	48 98                	cltq   
    ecd1:	8b 55 fc             	mov    -0x4(%rbp),%edx
    ecd4:	48 8d 35 7f 35 00 00 	lea    0x357f(%rip),%rsi        # 1225a <g_2577+0x11f2>
    ecdb:	48 89 c7             	mov    %rax,%rdi
    ecde:	e8 10 5a ff ff       	callq  46f3 <transparent_crc>
    ece3:	8b 45 f0             	mov    -0x10(%rbp),%eax
    ece6:	48 63 d0             	movslq %eax,%rdx
    ece9:	48 89 d0             	mov    %rdx,%rax
    ecec:	48 c1 e0 02          	shl    $0x2,%rax
    ecf0:	48 01 d0             	add    %rdx,%rax
    ecf3:	48 c1 e0 03          	shl    $0x3,%rax
    ecf7:	48 01 c2             	add    %rax,%rdx
    ecfa:	48 8d 05 37 78 00 00 	lea    0x7837(%rip),%rax        # 16538 <g_1018+0x18>
    ed01:	8b 04 02             	mov    (%rdx,%rax,1),%eax
    ed04:	48 98                	cltq   
    ed06:	8b 55 fc             	mov    -0x4(%rbp),%edx
    ed09:	48 8d 35 57 35 00 00 	lea    0x3557(%rip),%rsi        # 12267 <g_2577+0x11ff>
    ed10:	48 89 c7             	mov    %rax,%rdi
    ed13:	e8 db 59 ff ff       	callq  46f3 <transparent_crc>
    ed18:	8b 45 f0             	mov    -0x10(%rbp),%eax
    ed1b:	48 63 d0             	movslq %eax,%rdx
    ed1e:	48 89 d0             	mov    %rdx,%rax
    ed21:	48 c1 e0 02          	shl    $0x2,%rax
    ed25:	48 01 d0             	add    %rdx,%rax
    ed28:	48 c1 e0 03          	shl    $0x3,%rax
    ed2c:	48 01 c2             	add    %rax,%rdx
    ed2f:	48 8d 05 06 78 00 00 	lea    0x7806(%rip),%rax        # 1653c <g_1018+0x1c>
    ed36:	0f b7 04 02          	movzwl (%rdx,%rax,1),%eax
    ed3a:	48 0f bf c0          	movswq %ax,%rax
    ed3e:	8b 55 fc             	mov    -0x4(%rbp),%edx
    ed41:	48 8d 35 2c 35 00 00 	lea    0x352c(%rip),%rsi        # 12274 <g_2577+0x120c>
    ed48:	48 89 c7             	mov    %rax,%rdi
    ed4b:	e8 a3 59 ff ff       	callq  46f3 <transparent_crc>
    ed50:	8b 45 f0             	mov    -0x10(%rbp),%eax
    ed53:	48 63 d0             	movslq %eax,%rdx
    ed56:	48 89 d0             	mov    %rdx,%rax
    ed59:	48 c1 e0 02          	shl    $0x2,%rax
    ed5d:	48 01 d0             	add    %rdx,%rax
    ed60:	48 c1 e0 03          	shl    $0x3,%rax
    ed64:	48 01 c2             	add    %rax,%rdx
    ed67:	48 8d 05 c2 77 00 00 	lea    0x77c2(%rip),%rax        # 16530 <g_1018+0x10>
    ed6e:	48 8b 44 02 0e       	mov    0xe(%rdx,%rax,1),%rax
    ed73:	48 89 c1             	mov    %rax,%rcx
    ed76:	8b 45 fc             	mov    -0x4(%rbp),%eax
    ed79:	89 c2                	mov    %eax,%edx
    ed7b:	48 8d 35 ff 34 00 00 	lea    0x34ff(%rip),%rsi        # 12281 <g_2577+0x1219>
    ed82:	48 89 cf             	mov    %rcx,%rdi
    ed85:	e8 69 59 ff ff       	callq  46f3 <transparent_crc>
    ed8a:	8b 45 f0             	mov    -0x10(%rbp),%eax
    ed8d:	48 63 d0             	movslq %eax,%rdx
    ed90:	48 89 d0             	mov    %rdx,%rax
    ed93:	48 c1 e0 02          	shl    $0x2,%rax
    ed97:	48 01 d0             	add    %rdx,%rax
    ed9a:	48 c1 e0 03          	shl    $0x3,%rax
    ed9e:	48 01 c2             	add    %rax,%rdx
    eda1:	48 8d 05 98 77 00 00 	lea    0x7798(%rip),%rax        # 16540 <g_1018+0x20>
    eda8:	0f b6 44 02 06       	movzbl 0x6(%rdx,%rax,1),%eax
    edad:	83 e0 07             	and    $0x7,%eax
    edb0:	0f b6 c0             	movzbl %al,%eax
    edb3:	8b 55 fc             	mov    -0x4(%rbp),%edx
    edb6:	48 8d 35 d1 34 00 00 	lea    0x34d1(%rip),%rsi        # 1228e <g_2577+0x1226>
    edbd:	48 89 c7             	mov    %rax,%rdi
    edc0:	e8 2e 59 ff ff       	callq  46f3 <transparent_crc>
    edc5:	8b 45 f0             	mov    -0x10(%rbp),%eax
    edc8:	48 63 d0             	movslq %eax,%rdx
    edcb:	48 89 d0             	mov    %rdx,%rax
    edce:	48 c1 e0 02          	shl    $0x2,%rax
    edd2:	48 01 d0             	add    %rdx,%rax
    edd5:	48 c1 e0 03          	shl    $0x3,%rax
    edd9:	48 01 c2             	add    %rax,%rdx
    eddc:	48 8d 05 5d 77 00 00 	lea    0x775d(%rip),%rax        # 16540 <g_1018+0x20>
    ede3:	0f b7 44 02 07       	movzwl 0x7(%rdx,%rax,1),%eax
    ede8:	0f b7 c0             	movzwl %ax,%eax
    edeb:	8b 55 fc             	mov    -0x4(%rbp),%edx
    edee:	48 8d 35 a6 34 00 00 	lea    0x34a6(%rip),%rsi        # 1229b <g_2577+0x1233>
    edf5:	48 89 c7             	mov    %rax,%rdi
    edf8:	e8 f6 58 ff ff       	callq  46f3 <transparent_crc>
    edfd:	83 7d fc 00          	cmpl   $0x0,-0x4(%rbp)
    ee01:	74 16                	je     ee19 <main+0x1428>
    ee03:	8b 45 f0             	mov    -0x10(%rbp),%eax
    ee06:	89 c6                	mov    %eax,%esi
    ee08:	48 8d 3d a1 30 00 00 	lea    0x30a1(%rip),%rdi        # 11eb0 <g_2577+0xe48>
    ee0f:	b8 00 00 00 00       	mov    $0x0,%eax
    ee14:	e8 67 42 ff ff       	callq  3080 <printf@plt>
    ee19:	83 45 f0 01          	addl   $0x1,-0x10(%rbp)
    ee1d:	83 7d f0 03          	cmpl   $0x3,-0x10(%rbp)
    ee21:	0f 8e de fd ff ff    	jle    ec05 <main+0x1214>
    ee27:	8b 05 b3 77 00 00    	mov    0x77b3(%rip),%eax        # 165e0 <g_1113>
    ee2d:	48 98                	cltq   
    ee2f:	8b 55 fc             	mov    -0x4(%rbp),%edx
    ee32:	48 8d 35 6f 34 00 00 	lea    0x346f(%rip),%rsi        # 122a8 <g_2577+0x1240>
    ee39:	48 89 c7             	mov    %rax,%rdi
    ee3c:	e8 b2 58 ff ff       	callq  46f3 <transparent_crc>
    ee41:	48 8b 05 9c 77 00 00 	mov    0x779c(%rip),%rax        # 165e4 <g_1113+0x4>
    ee48:	48 89 c1             	mov    %rax,%rcx
    ee4b:	8b 45 fc             	mov    -0x4(%rbp),%eax
    ee4e:	89 c2                	mov    %eax,%edx
    ee50:	48 8d 35 5b 34 00 00 	lea    0x345b(%rip),%rsi        # 122b2 <g_2577+0x124a>
    ee57:	48 89 cf             	mov    %rcx,%rdi
    ee5a:	e8 94 58 ff ff       	callq  46f3 <transparent_crc>
    ee5f:	48 8b 05 86 77 00 00 	mov    0x7786(%rip),%rax        # 165ec <g_1113+0xc>
    ee66:	48 89 c1             	mov    %rax,%rcx
    ee69:	8b 45 fc             	mov    -0x4(%rbp),%eax
    ee6c:	89 c2                	mov    %eax,%edx
    ee6e:	48 8d 35 47 34 00 00 	lea    0x3447(%rip),%rsi        # 122bc <g_2577+0x1254>
    ee75:	48 89 cf             	mov    %rcx,%rdi
    ee78:	e8 76 58 ff ff       	callq  46f3 <transparent_crc>
    ee7d:	8b 05 71 77 00 00    	mov    0x7771(%rip),%eax        # 165f4 <g_1113+0x14>
    ee83:	48 98                	cltq   
    ee85:	8b 55 fc             	mov    -0x4(%rbp),%edx
    ee88:	48 8d 35 37 34 00 00 	lea    0x3437(%rip),%rsi        # 122c6 <g_2577+0x125e>
    ee8f:	48 89 c7             	mov    %rax,%rdi
    ee92:	e8 5c 58 ff ff       	callq  46f3 <transparent_crc>
    ee97:	8b 05 5b 77 00 00    	mov    0x775b(%rip),%eax        # 165f8 <g_1113+0x18>
    ee9d:	48 98                	cltq   
    ee9f:	8b 55 fc             	mov    -0x4(%rbp),%edx
    eea2:	48 8d 35 27 34 00 00 	lea    0x3427(%rip),%rsi        # 122d0 <g_2577+0x1268>
    eea9:	48 89 c7             	mov    %rax,%rdi
    eeac:	e8 42 58 ff ff       	callq  46f3 <transparent_crc>
    eeb1:	0f b7 05 44 77 00 00 	movzwl 0x7744(%rip),%eax        # 165fc <g_1113+0x1c>
    eeb8:	48 0f bf c0          	movswq %ax,%rax
    eebc:	8b 55 fc             	mov    -0x4(%rbp),%edx
    eebf:	48 8d 35 14 34 00 00 	lea    0x3414(%rip),%rsi        # 122da <g_2577+0x1272>
    eec6:	48 89 c7             	mov    %rax,%rdi
    eec9:	e8 25 58 ff ff       	callq  46f3 <transparent_crc>
    eece:	48 8b 05 29 77 00 00 	mov    0x7729(%rip),%rax        # 165fe <g_1113+0x1e>
    eed5:	48 89 c1             	mov    %rax,%rcx
    eed8:	8b 45 fc             	mov    -0x4(%rbp),%eax
    eedb:	89 c2                	mov    %eax,%edx
    eedd:	48 8d 35 00 34 00 00 	lea    0x3400(%rip),%rsi        # 122e4 <g_2577+0x127c>
    eee4:	48 89 cf             	mov    %rcx,%rdi
    eee7:	e8 07 58 ff ff       	callq  46f3 <transparent_crc>
    eeec:	0f b6 05 13 77 00 00 	movzbl 0x7713(%rip),%eax        # 16606 <g_1113+0x26>
    eef3:	83 e0 07             	and    $0x7,%eax
    eef6:	0f b6 c0             	movzbl %al,%eax
    eef9:	8b 55 fc             	mov    -0x4(%rbp),%edx
    eefc:	48 8d 35 eb 33 00 00 	lea    0x33eb(%rip),%rsi        # 122ee <g_2577+0x1286>
    ef03:	48 89 c7             	mov    %rax,%rdi
    ef06:	e8 e8 57 ff ff       	callq  46f3 <transparent_crc>
    ef0b:	0f b7 05 f5 76 00 00 	movzwl 0x76f5(%rip),%eax        # 16607 <g_1113+0x27>
    ef12:	0f b7 c0             	movzwl %ax,%eax
    ef15:	8b 55 fc             	mov    -0x4(%rbp),%edx
    ef18:	48 8d 35 d9 33 00 00 	lea    0x33d9(%rip),%rsi        # 122f8 <g_2577+0x1290>
    ef1f:	48 89 c7             	mov    %rax,%rdi
    ef22:	e8 cc 57 ff ff       	callq  46f3 <transparent_crc>
    ef27:	8b 05 df 76 00 00    	mov    0x76df(%rip),%eax        # 1660c <g_1181>
    ef2d:	89 c1                	mov    %eax,%ecx
    ef2f:	8b 45 fc             	mov    -0x4(%rbp),%eax
    ef32:	89 c2                	mov    %eax,%edx
    ef34:	48 8d 35 c7 33 00 00 	lea    0x33c7(%rip),%rsi        # 12302 <g_2577+0x129a>
    ef3b:	48 89 cf             	mov    %rcx,%rdi
    ef3e:	e8 b0 57 ff ff       	callq  46f3 <transparent_crc>
    ef43:	c7 45 f0 00 00 00 00 	movl   $0x0,-0x10(%rbp)
    ef4a:	eb 45                	jmp    ef91 <main+0x15a0>
    ef4c:	8b 45 f0             	mov    -0x10(%rbp),%eax
    ef4f:	48 98                	cltq   
    ef51:	48 8d 15 00 21 00 00 	lea    0x2100(%rip),%rdx        # 11058 <g_1206>
    ef58:	0f b6 04 10          	movzbl (%rax,%rdx,1),%eax
    ef5c:	0f b6 c0             	movzbl %al,%eax
    ef5f:	8b 55 fc             	mov    -0x4(%rbp),%edx
    ef62:	48 8d 35 a0 33 00 00 	lea    0x33a0(%rip),%rsi        # 12309 <g_2577+0x12a1>
    ef69:	48 89 c7             	mov    %rax,%rdi
    ef6c:	e8 82 57 ff ff       	callq  46f3 <transparent_crc>
    ef71:	83 7d fc 00          	cmpl   $0x0,-0x4(%rbp)
    ef75:	74 16                	je     ef8d <main+0x159c>
    ef77:	8b 45 f0             	mov    -0x10(%rbp),%eax
    ef7a:	89 c6                	mov    %eax,%esi
    ef7c:	48 8d 3d 2d 2f 00 00 	lea    0x2f2d(%rip),%rdi        # 11eb0 <g_2577+0xe48>
    ef83:	b8 00 00 00 00       	mov    $0x0,%eax
    ef88:	e8 f3 40 ff ff       	callq  3080 <printf@plt>
    ef8d:	83 45 f0 01          	addl   $0x1,-0x10(%rbp)
    ef91:	83 7d f0 09          	cmpl   $0x9,-0x10(%rbp)
    ef95:	7e b5                	jle    ef4c <main+0x155b>
    ef97:	0f b7 05 72 76 00 00 	movzwl 0x7672(%rip),%eax        # 16610 <g_1310>
    ef9e:	0f b7 c0             	movzwl %ax,%eax
    efa1:	8b 55 fc             	mov    -0x4(%rbp),%edx
    efa4:	48 8d 35 68 33 00 00 	lea    0x3368(%rip),%rsi        # 12313 <g_2577+0x12ab>
    efab:	48 89 c7             	mov    %rax,%rdi
    efae:	e8 40 57 ff ff       	callq  46f3 <transparent_crc>
    efb3:	b8 04 00 00 00       	mov    $0x4,%eax
    efb8:	89 c1                	mov    %eax,%ecx
    efba:	8b 45 fc             	mov    -0x4(%rbp),%eax
    efbd:	89 c2                	mov    %eax,%edx
    efbf:	48 8d 35 54 33 00 00 	lea    0x3354(%rip),%rsi        # 1231a <g_2577+0x12b2>
    efc6:	48 89 cf             	mov    %rcx,%rdi
    efc9:	e8 25 57 ff ff       	callq  46f3 <transparent_crc>
    efce:	8b 05 3c b7 00 00    	mov    0xb73c(%rip),%eax        # 1a710 <g_1552>
    efd4:	48 98                	cltq   
    efd6:	8b 55 fc             	mov    -0x4(%rbp),%edx
    efd9:	48 8d 35 41 33 00 00 	lea    0x3341(%rip),%rsi        # 12321 <g_2577+0x12b9>
    efe0:	48 89 c7             	mov    %rax,%rdi
    efe3:	e8 0b 57 ff ff       	callq  46f3 <transparent_crc>
    efe8:	48 8b 05 29 76 00 00 	mov    0x7629(%rip),%rax        # 16618 <g_1704>
    efef:	8b 55 fc             	mov    -0x4(%rbp),%edx
    eff2:	48 8d 35 2f 33 00 00 	lea    0x332f(%rip),%rsi        # 12328 <g_2577+0x12c0>
    eff9:	48 89 c7             	mov    %rax,%rdi
    effc:	e8 f2 56 ff ff       	callq  46f3 <transparent_crc>
    f001:	c7 45 f0 00 00 00 00 	movl   $0x0,-0x10(%rbp)
    f008:	eb 4d                	jmp    f057 <main+0x1666>
    f00a:	8b 45 f0             	mov    -0x10(%rbp),%eax
    f00d:	48 98                	cltq   
    f00f:	48 8d 14 85 00 00 00 	lea    0x0(,%rax,4),%rdx
    f016:	00 
    f017:	48 8d 05 02 76 00 00 	lea    0x7602(%rip),%rax        # 16620 <g_1770>
    f01e:	8b 04 02             	mov    (%rdx,%rax,1),%eax
    f021:	89 c1                	mov    %eax,%ecx
    f023:	8b 45 fc             	mov    -0x4(%rbp),%eax
    f026:	89 c2                	mov    %eax,%edx
    f028:	48 8d 35 00 33 00 00 	lea    0x3300(%rip),%rsi        # 1232f <g_2577+0x12c7>
    f02f:	48 89 cf             	mov    %rcx,%rdi
    f032:	e8 bc 56 ff ff       	callq  46f3 <transparent_crc>
    f037:	83 7d fc 00          	cmpl   $0x0,-0x4(%rbp)
    f03b:	74 16                	je     f053 <main+0x1662>
    f03d:	8b 45 f0             	mov    -0x10(%rbp),%eax
    f040:	89 c6                	mov    %eax,%esi
    f042:	48 8d 3d 67 2e 00 00 	lea    0x2e67(%rip),%rdi        # 11eb0 <g_2577+0xe48>
    f049:	b8 00 00 00 00       	mov    $0x0,%eax
    f04e:	e8 2d 40 ff ff       	callq  3080 <printf@plt>
    f053:	83 45 f0 01          	addl   $0x1,-0x10(%rbp)
    f057:	83 7d f0 04          	cmpl   $0x4,-0x10(%rbp)
    f05b:	7e ad                	jle    f00a <main+0x1619>
    f05d:	0f b7 05 d0 75 00 00 	movzwl 0x75d0(%rip),%eax        # 16634 <g_1790>
    f064:	48 0f bf c0          	movswq %ax,%rax
    f068:	8b 55 fc             	mov    -0x4(%rbp),%edx
    f06b:	48 8d 35 c7 32 00 00 	lea    0x32c7(%rip),%rsi        # 12339 <g_2577+0x12d1>
    f072:	48 89 c7             	mov    %rax,%rdi
    f075:	e8 79 56 ff ff       	callq  46f3 <transparent_crc>
    f07a:	48 8b 05 b7 75 00 00 	mov    0x75b7(%rip),%rax        # 16638 <g_1995>
    f081:	48 89 c1             	mov    %rax,%rcx
    f084:	8b 45 fc             	mov    -0x4(%rbp),%eax
    f087:	89 c2                	mov    %eax,%edx
    f089:	48 8d 35 b0 32 00 00 	lea    0x32b0(%rip),%rsi        # 12340 <g_2577+0x12d8>
    f090:	48 89 cf             	mov    %rcx,%rdi
    f093:	e8 5b 56 ff ff       	callq  46f3 <transparent_crc>
    f098:	48 8b 05 a1 75 00 00 	mov    0x75a1(%rip),%rax        # 16640 <g_2030>
    f09f:	8b 55 fc             	mov    -0x4(%rbp),%edx
    f0a2:	48 8d 35 9e 32 00 00 	lea    0x329e(%rip),%rsi        # 12347 <g_2577+0x12df>
    f0a9:	48 89 c7             	mov    %rax,%rdi
    f0ac:	e8 42 56 ff ff       	callq  46f3 <transparent_crc>
    f0b1:	48 8b 05 70 b6 00 00 	mov    0xb670(%rip),%rax        # 1a728 <g_2141>
    f0b8:	8b 55 fc             	mov    -0x4(%rbp),%edx
    f0bb:	48 8d 35 8c 32 00 00 	lea    0x328c(%rip),%rsi        # 1234e <g_2577+0x12e6>
    f0c2:	48 89 c7             	mov    %rax,%rdi
    f0c5:	e8 29 56 ff ff       	callq  46f3 <transparent_crc>
    f0ca:	8b 05 90 75 00 00    	mov    0x7590(%rip),%eax        # 16660 <g_2226>
    f0d0:	48 98                	cltq   
    f0d2:	8b 55 fc             	mov    -0x4(%rbp),%edx
    f0d5:	48 8d 35 79 32 00 00 	lea    0x3279(%rip),%rsi        # 12355 <g_2577+0x12ed>
    f0dc:	48 89 c7             	mov    %rax,%rdi
    f0df:	e8 0f 56 ff ff       	callq  46f3 <transparent_crc>
    f0e4:	48 8b 05 79 75 00 00 	mov    0x7579(%rip),%rax        # 16664 <g_2226+0x4>
    f0eb:	48 89 c1             	mov    %rax,%rcx
    f0ee:	8b 45 fc             	mov    -0x4(%rbp),%eax
    f0f1:	89 c2                	mov    %eax,%edx
    f0f3:	48 8d 35 65 32 00 00 	lea    0x3265(%rip),%rsi        # 1235f <g_2577+0x12f7>
    f0fa:	48 89 cf             	mov    %rcx,%rdi
    f0fd:	e8 f1 55 ff ff       	callq  46f3 <transparent_crc>
    f102:	48 8b 05 63 75 00 00 	mov    0x7563(%rip),%rax        # 1666c <g_2226+0xc>
    f109:	48 89 c1             	mov    %rax,%rcx
    f10c:	8b 45 fc             	mov    -0x4(%rbp),%eax
    f10f:	89 c2                	mov    %eax,%edx
    f111:	48 8d 35 51 32 00 00 	lea    0x3251(%rip),%rsi        # 12369 <g_2577+0x1301>
    f118:	48 89 cf             	mov    %rcx,%rdi
    f11b:	e8 d3 55 ff ff       	callq  46f3 <transparent_crc>
    f120:	8b 05 4e 75 00 00    	mov    0x754e(%rip),%eax        # 16674 <g_2226+0x14>
    f126:	48 98                	cltq   
    f128:	8b 55 fc             	mov    -0x4(%rbp),%edx
    f12b:	48 8d 35 41 32 00 00 	lea    0x3241(%rip),%rsi        # 12373 <g_2577+0x130b>
    f132:	48 89 c7             	mov    %rax,%rdi
    f135:	e8 b9 55 ff ff       	callq  46f3 <transparent_crc>
    f13a:	8b 05 38 75 00 00    	mov    0x7538(%rip),%eax        # 16678 <g_2226+0x18>
    f140:	48 98                	cltq   
    f142:	8b 55 fc             	mov    -0x4(%rbp),%edx
    f145:	48 8d 35 31 32 00 00 	lea    0x3231(%rip),%rsi        # 1237d <g_2577+0x1315>
    f14c:	48 89 c7             	mov    %rax,%rdi
    f14f:	e8 9f 55 ff ff       	callq  46f3 <transparent_crc>
    f154:	0f b7 05 21 75 00 00 	movzwl 0x7521(%rip),%eax        # 1667c <g_2226+0x1c>
    f15b:	48 0f bf c0          	movswq %ax,%rax
    f15f:	8b 55 fc             	mov    -0x4(%rbp),%edx
    f162:	48 8d 35 1e 32 00 00 	lea    0x321e(%rip),%rsi        # 12387 <g_2577+0x131f>
    f169:	48 89 c7             	mov    %rax,%rdi
    f16c:	e8 82 55 ff ff       	callq  46f3 <transparent_crc>
    f171:	48 8b 05 06 75 00 00 	mov    0x7506(%rip),%rax        # 1667e <g_2226+0x1e>
    f178:	48 89 c1             	mov    %rax,%rcx
    f17b:	8b 45 fc             	mov    -0x4(%rbp),%eax
    f17e:	89 c2                	mov    %eax,%edx
    f180:	48 8d 35 0a 32 00 00 	lea    0x320a(%rip),%rsi        # 12391 <g_2577+0x1329>
    f187:	48 89 cf             	mov    %rcx,%rdi
    f18a:	e8 64 55 ff ff       	callq  46f3 <transparent_crc>
    f18f:	0f b6 05 f0 74 00 00 	movzbl 0x74f0(%rip),%eax        # 16686 <g_2226+0x26>
    f196:	83 e0 07             	and    $0x7,%eax
    f199:	0f b6 c0             	movzbl %al,%eax
    f19c:	8b 55 fc             	mov    -0x4(%rbp),%edx
    f19f:	48 8d 35 f5 31 00 00 	lea    0x31f5(%rip),%rsi        # 1239b <g_2577+0x1333>
    f1a6:	48 89 c7             	mov    %rax,%rdi
    f1a9:	e8 45 55 ff ff       	callq  46f3 <transparent_crc>
    f1ae:	0f b7 05 d2 74 00 00 	movzwl 0x74d2(%rip),%eax        # 16687 <g_2226+0x27>
    f1b5:	0f b7 c0             	movzwl %ax,%eax
    f1b8:	8b 55 fc             	mov    -0x4(%rbp),%edx
    f1bb:	48 8d 35 e3 31 00 00 	lea    0x31e3(%rip),%rsi        # 123a5 <g_2577+0x133d>
    f1c2:	48 89 c7             	mov    %rax,%rdi
    f1c5:	e8 29 55 ff ff       	callq  46f3 <transparent_crc>
    f1ca:	8b 05 d0 74 00 00    	mov    0x74d0(%rip),%eax        # 166a0 <g_2227>
    f1d0:	48 98                	cltq   
    f1d2:	8b 55 fc             	mov    -0x4(%rbp),%edx
    f1d5:	48 8d 35 d3 31 00 00 	lea    0x31d3(%rip),%rsi        # 123af <g_2577+0x1347>
    f1dc:	48 89 c7             	mov    %rax,%rdi
    f1df:	e8 0f 55 ff ff       	callq  46f3 <transparent_crc>
    f1e4:	48 8b 05 b9 74 00 00 	mov    0x74b9(%rip),%rax        # 166a4 <g_2227+0x4>
    f1eb:	48 89 c1             	mov    %rax,%rcx
    f1ee:	8b 45 fc             	mov    -0x4(%rbp),%eax
    f1f1:	89 c2                	mov    %eax,%edx
    f1f3:	48 8d 35 bf 31 00 00 	lea    0x31bf(%rip),%rsi        # 123b9 <g_2577+0x1351>
    f1fa:	48 89 cf             	mov    %rcx,%rdi
    f1fd:	e8 f1 54 ff ff       	callq  46f3 <transparent_crc>
    f202:	48 8b 05 a3 74 00 00 	mov    0x74a3(%rip),%rax        # 166ac <g_2227+0xc>
    f209:	48 89 c1             	mov    %rax,%rcx
    f20c:	8b 45 fc             	mov    -0x4(%rbp),%eax
    f20f:	89 c2                	mov    %eax,%edx
    f211:	48 8d 35 ab 31 00 00 	lea    0x31ab(%rip),%rsi        # 123c3 <g_2577+0x135b>
    f218:	48 89 cf             	mov    %rcx,%rdi
    f21b:	e8 d3 54 ff ff       	callq  46f3 <transparent_crc>
    f220:	8b 05 8e 74 00 00    	mov    0x748e(%rip),%eax        # 166b4 <g_2227+0x14>
    f226:	48 98                	cltq   
    f228:	8b 55 fc             	mov    -0x4(%rbp),%edx
    f22b:	48 8d 35 9b 31 00 00 	lea    0x319b(%rip),%rsi        # 123cd <g_2577+0x1365>
    f232:	48 89 c7             	mov    %rax,%rdi
    f235:	e8 b9 54 ff ff       	callq  46f3 <transparent_crc>
    f23a:	8b 05 78 74 00 00    	mov    0x7478(%rip),%eax        # 166b8 <g_2227+0x18>
    f240:	48 98                	cltq   
    f242:	8b 55 fc             	mov    -0x4(%rbp),%edx
    f245:	48 8d 35 8b 31 00 00 	lea    0x318b(%rip),%rsi        # 123d7 <g_2577+0x136f>
    f24c:	48 89 c7             	mov    %rax,%rdi
    f24f:	e8 9f 54 ff ff       	callq  46f3 <transparent_crc>
    f254:	0f b7 05 61 74 00 00 	movzwl 0x7461(%rip),%eax        # 166bc <g_2227+0x1c>
    f25b:	48 0f bf c0          	movswq %ax,%rax
    f25f:	8b 55 fc             	mov    -0x4(%rbp),%edx
    f262:	48 8d 35 78 31 00 00 	lea    0x3178(%rip),%rsi        # 123e1 <g_2577+0x1379>
    f269:	48 89 c7             	mov    %rax,%rdi
    f26c:	e8 82 54 ff ff       	callq  46f3 <transparent_crc>
    f271:	48 8b 05 46 74 00 00 	mov    0x7446(%rip),%rax        # 166be <g_2227+0x1e>
    f278:	48 89 c1             	mov    %rax,%rcx
    f27b:	8b 45 fc             	mov    -0x4(%rbp),%eax
    f27e:	89 c2                	mov    %eax,%edx
    f280:	48 8d 35 64 31 00 00 	lea    0x3164(%rip),%rsi        # 123eb <g_2577+0x1383>
    f287:	48 89 cf             	mov    %rcx,%rdi
    f28a:	e8 64 54 ff ff       	callq  46f3 <transparent_crc>
    f28f:	0f b6 05 30 74 00 00 	movzbl 0x7430(%rip),%eax        # 166c6 <g_2227+0x26>
    f296:	83 e0 07             	and    $0x7,%eax
    f299:	0f b6 c0             	movzbl %al,%eax
    f29c:	8b 55 fc             	mov    -0x4(%rbp),%edx
    f29f:	48 8d 35 4f 31 00 00 	lea    0x314f(%rip),%rsi        # 123f5 <g_2577+0x138d>
    f2a6:	48 89 c7             	mov    %rax,%rdi
    f2a9:	e8 45 54 ff ff       	callq  46f3 <transparent_crc>
    f2ae:	0f b7 05 12 74 00 00 	movzwl 0x7412(%rip),%eax        # 166c7 <g_2227+0x27>
    f2b5:	0f b7 c0             	movzwl %ax,%eax
    f2b8:	8b 55 fc             	mov    -0x4(%rbp),%edx
    f2bb:	48 8d 35 3d 31 00 00 	lea    0x313d(%rip),%rsi        # 123ff <g_2577+0x1397>
    f2c2:	48 89 c7             	mov    %rax,%rdi
    f2c5:	e8 29 54 ff ff       	callq  46f3 <transparent_crc>
    f2ca:	c7 45 f0 00 00 00 00 	movl   $0x0,-0x10(%rbp)
    f2d1:	e9 05 04 00 00       	jmpq   f6db <main+0x1cea>
    f2d6:	c7 45 f4 00 00 00 00 	movl   $0x0,-0xc(%rbp)
    f2dd:	e9 eb 03 00 00       	jmpq   f6cd <main+0x1cdc>
    f2e2:	c7 45 f8 00 00 00 00 	movl   $0x0,-0x8(%rbp)
    f2e9:	e9 d1 03 00 00       	jmpq   f6bf <main+0x1cce>
    f2ee:	8b 45 f8             	mov    -0x8(%rbp),%eax
    f2f1:	48 98                	cltq   
    f2f3:	8b 55 f4             	mov    -0xc(%rbp),%edx
    f2f6:	48 63 ca             	movslq %edx,%rcx
    f2f9:	8b 55 f0             	mov    -0x10(%rbp),%edx
    f2fc:	48 63 f2             	movslq %edx,%rsi
    f2ff:	48 89 c2             	mov    %rax,%rdx
    f302:	48 c1 e2 02          	shl    $0x2,%rdx
    f306:	48 01 c2             	add    %rax,%rdx
    f309:	48 c1 e2 03          	shl    $0x3,%rdx
    f30d:	48 01 c2             	add    %rax,%rdx
    f310:	48 89 c8             	mov    %rcx,%rax
    f313:	48 c1 e0 02          	shl    $0x2,%rax
    f317:	48 01 c8             	add    %rcx,%rax
    f31a:	48 c1 e0 03          	shl    $0x3,%rax
    f31e:	48 01 c8             	add    %rcx,%rax
    f321:	48 c1 e0 02          	shl    $0x2,%rax
    f325:	48 01 c2             	add    %rax,%rdx
    f328:	48 69 c6 7c 04 00 00 	imul   $0x47c,%rsi,%rax
    f32f:	48 01 c2             	add    %rax,%rdx
    f332:	48 8d 05 a7 73 00 00 	lea    0x73a7(%rip),%rax        # 166e0 <g_2228>
    f339:	48 01 d0             	add    %rdx,%rax
    f33c:	8b 00                	mov    (%rax),%eax
    f33e:	48 98                	cltq   
    f340:	8b 55 fc             	mov    -0x4(%rbp),%edx
    f343:	48 8d 35 bf 30 00 00 	lea    0x30bf(%rip),%rsi        # 12409 <g_2577+0x13a1>
    f34a:	48 89 c7             	mov    %rax,%rdi
    f34d:	e8 a1 53 ff ff       	callq  46f3 <transparent_crc>
    f352:	8b 45 f8             	mov    -0x8(%rbp),%eax
    f355:	48 98                	cltq   
    f357:	8b 55 f4             	mov    -0xc(%rbp),%edx
    f35a:	48 63 ca             	movslq %edx,%rcx
    f35d:	8b 55 f0             	mov    -0x10(%rbp),%edx
    f360:	48 63 f2             	movslq %edx,%rsi
    f363:	48 89 c2             	mov    %rax,%rdx
    f366:	48 c1 e2 02          	shl    $0x2,%rdx
    f36a:	48 01 c2             	add    %rax,%rdx
    f36d:	48 c1 e2 03          	shl    $0x3,%rdx
    f371:	48 01 c2             	add    %rax,%rdx
    f374:	48 89 c8             	mov    %rcx,%rax
    f377:	48 c1 e0 02          	shl    $0x2,%rax
    f37b:	48 01 c8             	add    %rcx,%rax
    f37e:	48 c1 e0 03          	shl    $0x3,%rax
    f382:	48 01 c8             	add    %rcx,%rax
    f385:	48 c1 e0 02          	shl    $0x2,%rax
    f389:	48 01 c2             	add    %rax,%rdx
    f38c:	48 69 c6 7c 04 00 00 	imul   $0x47c,%rsi,%rax
    f393:	48 01 c2             	add    %rax,%rdx
    f396:	48 8d 05 43 73 00 00 	lea    0x7343(%rip),%rax        # 166e0 <g_2228>
    f39d:	48 01 d0             	add    %rdx,%rax
    f3a0:	48 8b 40 04          	mov    0x4(%rax),%rax
    f3a4:	48 89 c1             	mov    %rax,%rcx
    f3a7:	8b 45 fc             	mov    -0x4(%rbp),%eax
    f3aa:	89 c2                	mov    %eax,%edx
    f3ac:	48 8d 35 69 30 00 00 	lea    0x3069(%rip),%rsi        # 1241c <g_2577+0x13b4>
    f3b3:	48 89 cf             	mov    %rcx,%rdi
    f3b6:	e8 38 53 ff ff       	callq  46f3 <transparent_crc>
    f3bb:	8b 45 f8             	mov    -0x8(%rbp),%eax
    f3be:	48 98                	cltq   
    f3c0:	8b 55 f4             	mov    -0xc(%rbp),%edx
    f3c3:	48 63 ca             	movslq %edx,%rcx
    f3c6:	8b 55 f0             	mov    -0x10(%rbp),%edx
    f3c9:	48 63 f2             	movslq %edx,%rsi
    f3cc:	48 89 c2             	mov    %rax,%rdx
    f3cf:	48 c1 e2 02          	shl    $0x2,%rdx
    f3d3:	48 01 c2             	add    %rax,%rdx
    f3d6:	48 c1 e2 03          	shl    $0x3,%rdx
    f3da:	48 01 c2             	add    %rax,%rdx
    f3dd:	48 89 c8             	mov    %rcx,%rax
    f3e0:	48 c1 e0 02          	shl    $0x2,%rax
    f3e4:	48 01 c8             	add    %rcx,%rax
    f3e7:	48 c1 e0 03          	shl    $0x3,%rax
    f3eb:	48 01 c8             	add    %rcx,%rax
    f3ee:	48 c1 e0 02          	shl    $0x2,%rax
    f3f2:	48 01 c2             	add    %rax,%rdx
    f3f5:	48 69 c6 7c 04 00 00 	imul   $0x47c,%rsi,%rax
    f3fc:	48 01 c2             	add    %rax,%rdx
    f3ff:	48 8d 05 da 72 00 00 	lea    0x72da(%rip),%rax        # 166e0 <g_2228>
    f406:	48 01 d0             	add    %rdx,%rax
    f409:	48 8b 40 0c          	mov    0xc(%rax),%rax
    f40d:	48 89 c1             	mov    %rax,%rcx
    f410:	8b 45 fc             	mov    -0x4(%rbp),%eax
    f413:	89 c2                	mov    %eax,%edx
    f415:	48 8d 35 13 30 00 00 	lea    0x3013(%rip),%rsi        # 1242f <g_2577+0x13c7>
    f41c:	48 89 cf             	mov    %rcx,%rdi
    f41f:	e8 cf 52 ff ff       	callq  46f3 <transparent_crc>
    f424:	8b 45 f8             	mov    -0x8(%rbp),%eax
    f427:	48 63 c8             	movslq %eax,%rcx
    f42a:	8b 45 f4             	mov    -0xc(%rbp),%eax
    f42d:	48 63 d0             	movslq %eax,%rdx
    f430:	8b 45 f0             	mov    -0x10(%rbp),%eax
    f433:	48 63 f0             	movslq %eax,%rsi
    f436:	48 89 c8             	mov    %rcx,%rax
    f439:	48 c1 e0 02          	shl    $0x2,%rax
    f43d:	48 01 c8             	add    %rcx,%rax
    f440:	48 c1 e0 03          	shl    $0x3,%rax
    f444:	48 01 c8             	add    %rcx,%rax
    f447:	48 69 ce 7c 04 00 00 	imul   $0x47c,%rsi,%rcx
    f44e:	48 01 c1             	add    %rax,%rcx
    f451:	48 89 d0             	mov    %rdx,%rax
    f454:	48 c1 e0 02          	shl    $0x2,%rax
    f458:	48 01 d0             	add    %rdx,%rax
    f45b:	48 c1 e0 03          	shl    $0x3,%rax
    f45f:	48 01 d0             	add    %rdx,%rax
    f462:	48 c1 e0 02          	shl    $0x2,%rax
    f466:	48 8d 14 01          	lea    (%rcx,%rax,1),%rdx
    f46a:	48 8d 05 83 72 00 00 	lea    0x7283(%rip),%rax        # 166f4 <g_2228+0x14>
    f471:	48 01 d0             	add    %rdx,%rax
    f474:	8b 00                	mov    (%rax),%eax
    f476:	48 98                	cltq   
    f478:	8b 55 fc             	mov    -0x4(%rbp),%edx
    f47b:	48 8d 35 c0 2f 00 00 	lea    0x2fc0(%rip),%rsi        # 12442 <g_2577+0x13da>
    f482:	48 89 c7             	mov    %rax,%rdi
    f485:	e8 69 52 ff ff       	callq  46f3 <transparent_crc>
    f48a:	8b 45 f8             	mov    -0x8(%rbp),%eax
    f48d:	48 63 c8             	movslq %eax,%rcx
    f490:	8b 45 f4             	mov    -0xc(%rbp),%eax
    f493:	48 63 d0             	movslq %eax,%rdx
    f496:	8b 45 f0             	mov    -0x10(%rbp),%eax
    f499:	48 63 f0             	movslq %eax,%rsi
    f49c:	48 89 c8             	mov    %rcx,%rax
    f49f:	48 c1 e0 02          	shl    $0x2,%rax
    f4a3:	48 01 c8             	add    %rcx,%rax
    f4a6:	48 c1 e0 03          	shl    $0x3,%rax
    f4aa:	48 01 c8             	add    %rcx,%rax
    f4ad:	48 69 ce 7c 04 00 00 	imul   $0x47c,%rsi,%rcx
    f4b4:	48 01 c1             	add    %rax,%rcx
    f4b7:	48 89 d0             	mov    %rdx,%rax
    f4ba:	48 c1 e0 02          	shl    $0x2,%rax
    f4be:	48 01 d0             	add    %rdx,%rax
    f4c1:	48 c1 e0 03          	shl    $0x3,%rax
    f4c5:	48 01 d0             	add    %rdx,%rax
    f4c8:	48 c1 e0 02          	shl    $0x2,%rax
    f4cc:	48 8d 14 01          	lea    (%rcx,%rax,1),%rdx
    f4d0:	48 8d 05 21 72 00 00 	lea    0x7221(%rip),%rax        # 166f8 <g_2228+0x18>
    f4d7:	48 01 d0             	add    %rdx,%rax
    f4da:	8b 00                	mov    (%rax),%eax
    f4dc:	48 98                	cltq   
    f4de:	8b 55 fc             	mov    -0x4(%rbp),%edx
    f4e1:	48 8d 35 6d 2f 00 00 	lea    0x2f6d(%rip),%rsi        # 12455 <g_2577+0x13ed>
    f4e8:	48 89 c7             	mov    %rax,%rdi
    f4eb:	e8 03 52 ff ff       	callq  46f3 <transparent_crc>
    f4f0:	8b 45 f8             	mov    -0x8(%rbp),%eax
    f4f3:	48 63 c8             	movslq %eax,%rcx
    f4f6:	8b 45 f4             	mov    -0xc(%rbp),%eax
    f4f9:	48 63 d0             	movslq %eax,%rdx
    f4fc:	8b 45 f0             	mov    -0x10(%rbp),%eax
    f4ff:	48 63 f0             	movslq %eax,%rsi
    f502:	48 89 c8             	mov    %rcx,%rax
    f505:	48 c1 e0 02          	shl    $0x2,%rax
    f509:	48 01 c8             	add    %rcx,%rax
    f50c:	48 c1 e0 03          	shl    $0x3,%rax
    f510:	48 01 c8             	add    %rcx,%rax
    f513:	48 69 ce 7c 04 00 00 	imul   $0x47c,%rsi,%rcx
    f51a:	48 01 c1             	add    %rax,%rcx
    f51d:	48 89 d0             	mov    %rdx,%rax
    f520:	48 c1 e0 02          	shl    $0x2,%rax
    f524:	48 01 d0             	add    %rdx,%rax
    f527:	48 c1 e0 03          	shl    $0x3,%rax
    f52b:	48 01 d0             	add    %rdx,%rax
    f52e:	48 c1 e0 02          	shl    $0x2,%rax
    f532:	48 8d 14 01          	lea    (%rcx,%rax,1),%rdx
    f536:	48 8d 05 bf 71 00 00 	lea    0x71bf(%rip),%rax        # 166fc <g_2228+0x1c>
    f53d:	48 01 d0             	add    %rdx,%rax
    f540:	0f b7 00             	movzwl (%rax),%eax
    f543:	48 0f bf c0          	movswq %ax,%rax
    f547:	8b 55 fc             	mov    -0x4(%rbp),%edx
    f54a:	48 8d 35 17 2f 00 00 	lea    0x2f17(%rip),%rsi        # 12468 <g_2577+0x1400>
    f551:	48 89 c7             	mov    %rax,%rdi
    f554:	e8 9a 51 ff ff       	callq  46f3 <transparent_crc>
    f559:	8b 45 f8             	mov    -0x8(%rbp),%eax
    f55c:	48 63 c8             	movslq %eax,%rcx
    f55f:	8b 45 f4             	mov    -0xc(%rbp),%eax
    f562:	48 63 d0             	movslq %eax,%rdx
    f565:	8b 45 f0             	mov    -0x10(%rbp),%eax
    f568:	48 63 f0             	movslq %eax,%rsi
    f56b:	48 89 c8             	mov    %rcx,%rax
    f56e:	48 c1 e0 02          	shl    $0x2,%rax
    f572:	48 01 c8             	add    %rcx,%rax
    f575:	48 c1 e0 03          	shl    $0x3,%rax
    f579:	48 01 c8             	add    %rcx,%rax
    f57c:	48 69 ce 7c 04 00 00 	imul   $0x47c,%rsi,%rcx
    f583:	48 01 c1             	add    %rax,%rcx
    f586:	48 89 d0             	mov    %rdx,%rax
    f589:	48 c1 e0 02          	shl    $0x2,%rax
    f58d:	48 01 d0             	add    %rdx,%rax
    f590:	48 c1 e0 03          	shl    $0x3,%rax
    f594:	48 01 d0             	add    %rdx,%rax
    f597:	48 c1 e0 02          	shl    $0x2,%rax
    f59b:	48 8d 14 01          	lea    (%rcx,%rax,1),%rdx
    f59f:	48 8d 05 4a 71 00 00 	lea    0x714a(%rip),%rax        # 166f0 <g_2228+0x10>
    f5a6:	48 01 d0             	add    %rdx,%rax
    f5a9:	48 8b 40 0e          	mov    0xe(%rax),%rax
    f5ad:	48 89 c1             	mov    %rax,%rcx
    f5b0:	8b 45 fc             	mov    -0x4(%rbp),%eax
    f5b3:	89 c2                	mov    %eax,%edx
    f5b5:	48 8d 35 bf 2e 00 00 	lea    0x2ebf(%rip),%rsi        # 1247b <g_2577+0x1413>
    f5bc:	48 89 cf             	mov    %rcx,%rdi
    f5bf:	e8 2f 51 ff ff       	callq  46f3 <transparent_crc>
    f5c4:	8b 45 f8             	mov    -0x8(%rbp),%eax
    f5c7:	48 63 c8             	movslq %eax,%rcx
    f5ca:	8b 45 f4             	mov    -0xc(%rbp),%eax
    f5cd:	48 63 d0             	movslq %eax,%rdx
    f5d0:	8b 45 f0             	mov    -0x10(%rbp),%eax
    f5d3:	48 63 f0             	movslq %eax,%rsi
    f5d6:	48 89 c8             	mov    %rcx,%rax
    f5d9:	48 c1 e0 02          	shl    $0x2,%rax
    f5dd:	48 01 c8             	add    %rcx,%rax
    f5e0:	48 c1 e0 03          	shl    $0x3,%rax
    f5e4:	48 01 c8             	add    %rcx,%rax
    f5e7:	48 69 ce 7c 04 00 00 	imul   $0x47c,%rsi,%rcx
    f5ee:	48 01 c1             	add    %rax,%rcx
    f5f1:	48 89 d0             	mov    %rdx,%rax
    f5f4:	48 c1 e0 02          	shl    $0x2,%rax
    f5f8:	48 01 d0             	add    %rdx,%rax
    f5fb:	48 c1 e0 03          	shl    $0x3,%rax
    f5ff:	48 01 d0             	add    %rdx,%rax
    f602:	48 c1 e0 02          	shl    $0x2,%rax
    f606:	48 8d 14 01          	lea    (%rcx,%rax,1),%rdx
    f60a:	48 8d 05 ef 70 00 00 	lea    0x70ef(%rip),%rax        # 16700 <g_2228+0x20>
    f611:	48 01 d0             	add    %rdx,%rax
    f614:	0f b6 40 06          	movzbl 0x6(%rax),%eax
    f618:	83 e0 07             	and    $0x7,%eax
    f61b:	0f b6 c0             	movzbl %al,%eax
    f61e:	8b 55 fc             	mov    -0x4(%rbp),%edx
    f621:	48 8d 35 66 2e 00 00 	lea    0x2e66(%rip),%rsi        # 1248e <g_2577+0x1426>
    f628:	48 89 c7             	mov    %rax,%rdi
    f62b:	e8 c3 50 ff ff       	callq  46f3 <transparent_crc>
    f630:	8b 45 f8             	mov    -0x8(%rbp),%eax
    f633:	48 63 c8             	movslq %eax,%rcx
    f636:	8b 45 f4             	mov    -0xc(%rbp),%eax
    f639:	48 63 d0             	movslq %eax,%rdx
    f63c:	8b 45 f0             	mov    -0x10(%rbp),%eax
    f63f:	48 63 f0             	movslq %eax,%rsi
    f642:	48 89 c8             	mov    %rcx,%rax
    f645:	48 c1 e0 02          	shl    $0x2,%rax
    f649:	48 01 c8             	add    %rcx,%rax
    f64c:	48 c1 e0 03          	shl    $0x3,%rax
    f650:	48 01 c8             	add    %rcx,%rax
    f653:	48 69 ce 7c 04 00 00 	imul   $0x47c,%rsi,%rcx
    f65a:	48 01 c1             	add    %rax,%rcx
    f65d:	48 89 d0             	mov    %rdx,%rax
    f660:	48 c1 e0 02          	shl    $0x2,%rax
    f664:	48 01 d0             	add    %rdx,%rax
    f667:	48 c1 e0 03          	shl    $0x3,%rax
    f66b:	48 01 d0             	add    %rdx,%rax
    f66e:	48 c1 e0 02          	shl    $0x2,%rax
    f672:	48 8d 14 01          	lea    (%rcx,%rax,1),%rdx
    f676:	48 8d 05 83 70 00 00 	lea    0x7083(%rip),%rax        # 16700 <g_2228+0x20>
    f67d:	48 01 d0             	add    %rdx,%rax
    f680:	0f b7 40 07          	movzwl 0x7(%rax),%eax
    f684:	0f b7 c0             	movzwl %ax,%eax
    f687:	8b 55 fc             	mov    -0x4(%rbp),%edx
    f68a:	48 8d 35 10 2e 00 00 	lea    0x2e10(%rip),%rsi        # 124a1 <g_2577+0x1439>
    f691:	48 89 c7             	mov    %rax,%rdi
    f694:	e8 5a 50 ff ff       	callq  46f3 <transparent_crc>
    f699:	83 7d fc 00          	cmpl   $0x0,-0x4(%rbp)
    f69d:	74 1c                	je     f6bb <main+0x1cca>
    f69f:	8b 4d f8             	mov    -0x8(%rbp),%ecx
    f6a2:	8b 55 f4             	mov    -0xc(%rbp),%edx
    f6a5:	8b 45 f0             	mov    -0x10(%rbp),%eax
    f6a8:	89 c6                	mov    %eax,%esi
    f6aa:	48 8d 3d 03 2e 00 00 	lea    0x2e03(%rip),%rdi        # 124b4 <g_2577+0x144c>
    f6b1:	b8 00 00 00 00       	mov    $0x0,%eax
    f6b6:	e8 c5 39 ff ff       	callq  3080 <printf@plt>
    f6bb:	83 45 f8 01          	addl   $0x1,-0x8(%rbp)
    f6bf:	83 7d f8 03          	cmpl   $0x3,-0x8(%rbp)
    f6c3:	0f 8e 25 fc ff ff    	jle    f2ee <main+0x18fd>
    f6c9:	83 45 f4 01          	addl   $0x1,-0xc(%rbp)
    f6cd:	83 7d f4 06          	cmpl   $0x6,-0xc(%rbp)
    f6d1:	0f 8e 0b fc ff ff    	jle    f2e2 <main+0x18f1>
    f6d7:	83 45 f0 01          	addl   $0x1,-0x10(%rbp)
    f6db:	83 7d f0 07          	cmpl   $0x7,-0x10(%rbp)
    f6df:	0f 8e f1 fb ff ff    	jle    f2d6 <main+0x18e5>
    f6e5:	c7 45 f0 00 00 00 00 	movl   $0x0,-0x10(%rbp)
    f6ec:	e9 18 02 00 00       	jmpq   f909 <main+0x1f18>
    f6f1:	8b 45 f0             	mov    -0x10(%rbp),%eax
    f6f4:	48 63 d0             	movslq %eax,%rdx
    f6f7:	48 89 d0             	mov    %rdx,%rax
    f6fa:	48 c1 e0 02          	shl    $0x2,%rax
    f6fe:	48 01 d0             	add    %rdx,%rax
    f701:	48 c1 e0 03          	shl    $0x3,%rax
    f705:	48 01 c2             	add    %rax,%rdx
    f708:	48 8d 05 b1 93 00 00 	lea    0x93b1(%rip),%rax        # 18ac0 <g_2229>
    f70f:	8b 04 02             	mov    (%rdx,%rax,1),%eax
    f712:	48 98                	cltq   
    f714:	8b 55 fc             	mov    -0x4(%rbp),%edx
    f717:	48 8d 35 ac 2d 00 00 	lea    0x2dac(%rip),%rsi        # 124ca <g_2577+0x1462>
    f71e:	48 89 c7             	mov    %rax,%rdi
    f721:	e8 cd 4f ff ff       	callq  46f3 <transparent_crc>
    f726:	8b 45 f0             	mov    -0x10(%rbp),%eax
    f729:	48 63 d0             	movslq %eax,%rdx
    f72c:	48 89 d0             	mov    %rdx,%rax
    f72f:	48 c1 e0 02          	shl    $0x2,%rax
    f733:	48 01 d0             	add    %rdx,%rax
    f736:	48 c1 e0 03          	shl    $0x3,%rax
    f73a:	48 01 c2             	add    %rax,%rdx
    f73d:	48 8d 05 7c 93 00 00 	lea    0x937c(%rip),%rax        # 18ac0 <g_2229>
    f744:	48 8b 44 02 04       	mov    0x4(%rdx,%rax,1),%rax
    f749:	48 89 c1             	mov    %rax,%rcx
    f74c:	8b 45 fc             	mov    -0x4(%rbp),%eax
    f74f:	89 c2                	mov    %eax,%edx
    f751:	48 8d 35 7f 2d 00 00 	lea    0x2d7f(%rip),%rsi        # 124d7 <g_2577+0x146f>
    f758:	48 89 cf             	mov    %rcx,%rdi
    f75b:	e8 93 4f ff ff       	callq  46f3 <transparent_crc>
    f760:	8b 45 f0             	mov    -0x10(%rbp),%eax
    f763:	48 63 d0             	movslq %eax,%rdx
    f766:	48 89 d0             	mov    %rdx,%rax
    f769:	48 c1 e0 02          	shl    $0x2,%rax
    f76d:	48 01 d0             	add    %rdx,%rax
    f770:	48 c1 e0 03          	shl    $0x3,%rax
    f774:	48 01 c2             	add    %rax,%rdx
    f777:	48 8d 05 42 93 00 00 	lea    0x9342(%rip),%rax        # 18ac0 <g_2229>
    f77e:	48 8b 44 02 0c       	mov    0xc(%rdx,%rax,1),%rax
    f783:	48 89 c1             	mov    %rax,%rcx
    f786:	8b 45 fc             	mov    -0x4(%rbp),%eax
    f789:	89 c2                	mov    %eax,%edx
    f78b:	48 8d 35 52 2d 00 00 	lea    0x2d52(%rip),%rsi        # 124e4 <g_2577+0x147c>
    f792:	48 89 cf             	mov    %rcx,%rdi
    f795:	e8 59 4f ff ff       	callq  46f3 <transparent_crc>
    f79a:	8b 45 f0             	mov    -0x10(%rbp),%eax
    f79d:	48 63 d0             	movslq %eax,%rdx
    f7a0:	48 89 d0             	mov    %rdx,%rax
    f7a3:	48 c1 e0 02          	shl    $0x2,%rax
    f7a7:	48 01 d0             	add    %rdx,%rax
    f7aa:	48 c1 e0 03          	shl    $0x3,%rax
    f7ae:	48 01 c2             	add    %rax,%rdx
    f7b1:	48 8d 05 1c 93 00 00 	lea    0x931c(%rip),%rax        # 18ad4 <g_2229+0x14>
    f7b8:	8b 04 02             	mov    (%rdx,%rax,1),%eax
    f7bb:	48 98                	cltq   
    f7bd:	8b 55 fc             	mov    -0x4(%rbp),%edx
    f7c0:	48 8d 35 2a 2d 00 00 	lea    0x2d2a(%rip),%rsi        # 124f1 <g_2577+0x1489>
    f7c7:	48 89 c7             	mov    %rax,%rdi
    f7ca:	e8 24 4f ff ff       	callq  46f3 <transparent_crc>
    f7cf:	8b 45 f0             	mov    -0x10(%rbp),%eax
    f7d2:	48 63 d0             	movslq %eax,%rdx
    f7d5:	48 89 d0             	mov    %rdx,%rax
    f7d8:	48 c1 e0 02          	shl    $0x2,%rax
    f7dc:	48 01 d0             	add    %rdx,%rax
    f7df:	48 c1 e0 03          	shl    $0x3,%rax
    f7e3:	48 01 c2             	add    %rax,%rdx
    f7e6:	48 8d 05 eb 92 00 00 	lea    0x92eb(%rip),%rax        # 18ad8 <g_2229+0x18>
    f7ed:	8b 04 02             	mov    (%rdx,%rax,1),%eax
    f7f0:	48 98                	cltq   
    f7f2:	8b 55 fc             	mov    -0x4(%rbp),%edx
    f7f5:	48 8d 35 02 2d 00 00 	lea    0x2d02(%rip),%rsi        # 124fe <g_2577+0x1496>
    f7fc:	48 89 c7             	mov    %rax,%rdi
    f7ff:	e8 ef 4e ff ff       	callq  46f3 <transparent_crc>
    f804:	8b 45 f0             	mov    -0x10(%rbp),%eax
    f807:	48 63 d0             	movslq %eax,%rdx
    f80a:	48 89 d0             	mov    %rdx,%rax
    f80d:	48 c1 e0 02          	shl    $0x2,%rax
    f811:	48 01 d0             	add    %rdx,%rax
    f814:	48 c1 e0 03          	shl    $0x3,%rax
    f818:	48 01 c2             	add    %rax,%rdx
    f81b:	48 8d 05 ba 92 00 00 	lea    0x92ba(%rip),%rax        # 18adc <g_2229+0x1c>
    f822:	0f b7 04 02          	movzwl (%rdx,%rax,1),%eax
    f826:	48 0f bf c0          	movswq %ax,%rax
    f82a:	8b 55 fc             	mov    -0x4(%rbp),%edx
    f82d:	48 8d 35 d7 2c 00 00 	lea    0x2cd7(%rip),%rsi        # 1250b <g_2577+0x14a3>
    f834:	48 89 c7             	mov    %rax,%rdi
    f837:	e8 b7 4e ff ff       	callq  46f3 <transparent_crc>
    f83c:	8b 45 f0             	mov    -0x10(%rbp),%eax
    f83f:	48 63 d0             	movslq %eax,%rdx
    f842:	48 89 d0             	mov    %rdx,%rax
    f845:	48 c1 e0 02          	shl    $0x2,%rax
    f849:	48 01 d0             	add    %rdx,%rax
    f84c:	48 c1 e0 03          	shl    $0x3,%rax
    f850:	48 01 c2             	add    %rax,%rdx
    f853:	48 8d 05 76 92 00 00 	lea    0x9276(%rip),%rax        # 18ad0 <g_2229+0x10>
    f85a:	48 8b 44 02 0e       	mov    0xe(%rdx,%rax,1),%rax
    f85f:	48 89 c1             	mov    %rax,%rcx
    f862:	8b 45 fc             	mov    -0x4(%rbp),%eax
    f865:	89 c2                	mov    %eax,%edx
    f867:	48 8d 35 aa 2c 00 00 	lea    0x2caa(%rip),%rsi        # 12518 <g_2577+0x14b0>
    f86e:	48 89 cf             	mov    %rcx,%rdi
    f871:	e8 7d 4e ff ff       	callq  46f3 <transparent_crc>
    f876:	8b 45 f0             	mov    -0x10(%rbp),%eax
    f879:	48 63 d0             	movslq %eax,%rdx
    f87c:	48 89 d0             	mov    %rdx,%rax
    f87f:	48 c1 e0 02          	shl    $0x2,%rax
    f883:	48 01 d0             	add    %rdx,%rax
    f886:	48 c1 e0 03          	shl    $0x3,%rax
    f88a:	48 01 c2             	add    %rax,%rdx
    f88d:	48 8d 05 4c 92 00 00 	lea    0x924c(%rip),%rax        # 18ae0 <g_2229+0x20>
    f894:	0f b6 44 02 06       	movzbl 0x6(%rdx,%rax,1),%eax
    f899:	83 e0 07             	and    $0x7,%eax
    f89c:	0f b6 c0             	movzbl %al,%eax
    f89f:	8b 55 fc             	mov    -0x4(%rbp),%edx
    f8a2:	48 8d 35 7c 2c 00 00 	lea    0x2c7c(%rip),%rsi        # 12525 <g_2577+0x14bd>
    f8a9:	48 89 c7             	mov    %rax,%rdi
    f8ac:	e8 42 4e ff ff       	callq  46f3 <transparent_crc>
    f8b1:	8b 45 f0             	mov    -0x10(%rbp),%eax
    f8b4:	48 63 d0             	movslq %eax,%rdx
    f8b7:	48 89 d0             	mov    %rdx,%rax
    f8ba:	48 c1 e0 02          	shl    $0x2,%rax
    f8be:	48 01 d0             	add    %rdx,%rax
    f8c1:	48 c1 e0 03          	shl    $0x3,%rax
    f8c5:	48 01 c2             	add    %rax,%rdx
    f8c8:	48 8d 05 11 92 00 00 	lea    0x9211(%rip),%rax        # 18ae0 <g_2229+0x20>
    f8cf:	0f b7 44 02 07       	movzwl 0x7(%rdx,%rax,1),%eax
    f8d4:	0f b7 c0             	movzwl %ax,%eax
    f8d7:	8b 55 fc             	mov    -0x4(%rbp),%edx
    f8da:	48 8d 35 51 2c 00 00 	lea    0x2c51(%rip),%rsi        # 12532 <g_2577+0x14ca>
    f8e1:	48 89 c7             	mov    %rax,%rdi
    f8e4:	e8 0a 4e ff ff       	callq  46f3 <transparent_crc>
    f8e9:	83 7d fc 00          	cmpl   $0x0,-0x4(%rbp)
    f8ed:	74 16                	je     f905 <main+0x1f14>
    f8ef:	8b 45 f0             	mov    -0x10(%rbp),%eax
    f8f2:	89 c6                	mov    %eax,%esi
    f8f4:	48 8d 3d b5 25 00 00 	lea    0x25b5(%rip),%rdi        # 11eb0 <g_2577+0xe48>
    f8fb:	b8 00 00 00 00       	mov    $0x0,%eax
    f900:	e8 7b 37 ff ff       	callq  3080 <printf@plt>
    f905:	83 45 f0 01          	addl   $0x1,-0x10(%rbp)
    f909:	83 7d f0 06          	cmpl   $0x6,-0x10(%rbp)
    f90d:	0f 8e de fd ff ff    	jle    f6f1 <main+0x1d00>
    f913:	8b 05 c7 92 00 00    	mov    0x92c7(%rip),%eax        # 18be0 <g_2230>
    f919:	48 98                	cltq   
    f91b:	8b 55 fc             	mov    -0x4(%rbp),%edx
    f91e:	48 8d 35 1a 2c 00 00 	lea    0x2c1a(%rip),%rsi        # 1253f <g_2577+0x14d7>
    f925:	48 89 c7             	mov    %rax,%rdi
    f928:	e8 c6 4d ff ff       	callq  46f3 <transparent_crc>
    f92d:	48 8b 05 b0 92 00 00 	mov    0x92b0(%rip),%rax        # 18be4 <g_2230+0x4>
    f934:	48 89 c1             	mov    %rax,%rcx
    f937:	8b 45 fc             	mov    -0x4(%rbp),%eax
    f93a:	89 c2                	mov    %eax,%edx
    f93c:	48 8d 35 06 2c 00 00 	lea    0x2c06(%rip),%rsi        # 12549 <g_2577+0x14e1>
    f943:	48 89 cf             	mov    %rcx,%rdi
    f946:	e8 a8 4d ff ff       	callq  46f3 <transparent_crc>
    f94b:	48 8b 05 9a 92 00 00 	mov    0x929a(%rip),%rax        # 18bec <g_2230+0xc>
    f952:	48 89 c1             	mov    %rax,%rcx
    f955:	8b 45 fc             	mov    -0x4(%rbp),%eax
    f958:	89 c2                	mov    %eax,%edx
    f95a:	48 8d 35 f2 2b 00 00 	lea    0x2bf2(%rip),%rsi        # 12553 <g_2577+0x14eb>
    f961:	48 89 cf             	mov    %rcx,%rdi
    f964:	e8 8a 4d ff ff       	callq  46f3 <transparent_crc>
    f969:	8b 05 85 92 00 00    	mov    0x9285(%rip),%eax        # 18bf4 <g_2230+0x14>
    f96f:	48 98                	cltq   
    f971:	8b 55 fc             	mov    -0x4(%rbp),%edx
    f974:	48 8d 35 e2 2b 00 00 	lea    0x2be2(%rip),%rsi        # 1255d <g_2577+0x14f5>
    f97b:	48 89 c7             	mov    %rax,%rdi
    f97e:	e8 70 4d ff ff       	callq  46f3 <transparent_crc>
    f983:	8b 05 6f 92 00 00    	mov    0x926f(%rip),%eax        # 18bf8 <g_2230+0x18>
    f989:	48 98                	cltq   
    f98b:	8b 55 fc             	mov    -0x4(%rbp),%edx
    f98e:	48 8d 35 d2 2b 00 00 	lea    0x2bd2(%rip),%rsi        # 12567 <g_2577+0x14ff>
    f995:	48 89 c7             	mov    %rax,%rdi
    f998:	e8 56 4d ff ff       	callq  46f3 <transparent_crc>
    f99d:	0f b7 05 58 92 00 00 	movzwl 0x9258(%rip),%eax        # 18bfc <g_2230+0x1c>
    f9a4:	48 0f bf c0          	movswq %ax,%rax
    f9a8:	8b 55 fc             	mov    -0x4(%rbp),%edx
    f9ab:	48 8d 35 bf 2b 00 00 	lea    0x2bbf(%rip),%rsi        # 12571 <g_2577+0x1509>
    f9b2:	48 89 c7             	mov    %rax,%rdi
    f9b5:	e8 39 4d ff ff       	callq  46f3 <transparent_crc>
    f9ba:	48 8b 05 3d 92 00 00 	mov    0x923d(%rip),%rax        # 18bfe <g_2230+0x1e>
    f9c1:	48 89 c1             	mov    %rax,%rcx
    f9c4:	8b 45 fc             	mov    -0x4(%rbp),%eax
    f9c7:	89 c2                	mov    %eax,%edx
    f9c9:	48 8d 35 ab 2b 00 00 	lea    0x2bab(%rip),%rsi        # 1257b <g_2577+0x1513>
    f9d0:	48 89 cf             	mov    %rcx,%rdi
    f9d3:	e8 1b 4d ff ff       	callq  46f3 <transparent_crc>
    f9d8:	0f b6 05 27 92 00 00 	movzbl 0x9227(%rip),%eax        # 18c06 <g_2230+0x26>
    f9df:	83 e0 07             	and    $0x7,%eax
    f9e2:	0f b6 c0             	movzbl %al,%eax
    f9e5:	8b 55 fc             	mov    -0x4(%rbp),%edx
    f9e8:	48 8d 35 96 2b 00 00 	lea    0x2b96(%rip),%rsi        # 12585 <g_2577+0x151d>
    f9ef:	48 89 c7             	mov    %rax,%rdi
    f9f2:	e8 fc 4c ff ff       	callq  46f3 <transparent_crc>
    f9f7:	0f b7 05 09 92 00 00 	movzwl 0x9209(%rip),%eax        # 18c07 <g_2230+0x27>
    f9fe:	0f b7 c0             	movzwl %ax,%eax
    fa01:	8b 55 fc             	mov    -0x4(%rbp),%edx
    fa04:	48 8d 35 84 2b 00 00 	lea    0x2b84(%rip),%rsi        # 1258f <g_2577+0x1527>
    fa0b:	48 89 c7             	mov    %rax,%rdi
    fa0e:	e8 e0 4c ff ff       	callq  46f3 <transparent_crc>
    fa13:	8b 05 07 92 00 00    	mov    0x9207(%rip),%eax        # 18c20 <g_2231>
    fa19:	48 98                	cltq   
    fa1b:	8b 55 fc             	mov    -0x4(%rbp),%edx
    fa1e:	48 8d 35 74 2b 00 00 	lea    0x2b74(%rip),%rsi        # 12599 <g_2577+0x1531>
    fa25:	48 89 c7             	mov    %rax,%rdi
    fa28:	e8 c6 4c ff ff       	callq  46f3 <transparent_crc>
    fa2d:	48 8b 05 f0 91 00 00 	mov    0x91f0(%rip),%rax        # 18c24 <g_2231+0x4>
    fa34:	48 89 c1             	mov    %rax,%rcx
    fa37:	8b 45 fc             	mov    -0x4(%rbp),%eax
    fa3a:	89 c2                	mov    %eax,%edx
    fa3c:	48 8d 35 60 2b 00 00 	lea    0x2b60(%rip),%rsi        # 125a3 <g_2577+0x153b>
    fa43:	48 89 cf             	mov    %rcx,%rdi
    fa46:	e8 a8 4c ff ff       	callq  46f3 <transparent_crc>
    fa4b:	48 8b 05 da 91 00 00 	mov    0x91da(%rip),%rax        # 18c2c <g_2231+0xc>
    fa52:	48 89 c1             	mov    %rax,%rcx
    fa55:	8b 45 fc             	mov    -0x4(%rbp),%eax
    fa58:	89 c2                	mov    %eax,%edx
    fa5a:	48 8d 35 4c 2b 00 00 	lea    0x2b4c(%rip),%rsi        # 125ad <g_2577+0x1545>
    fa61:	48 89 cf             	mov    %rcx,%rdi
    fa64:	e8 8a 4c ff ff       	callq  46f3 <transparent_crc>
    fa69:	8b 05 c5 91 00 00    	mov    0x91c5(%rip),%eax        # 18c34 <g_2231+0x14>
    fa6f:	48 98                	cltq   
    fa71:	8b 55 fc             	mov    -0x4(%rbp),%edx
    fa74:	48 8d 35 3c 2b 00 00 	lea    0x2b3c(%rip),%rsi        # 125b7 <g_2577+0x154f>
    fa7b:	48 89 c7             	mov    %rax,%rdi
    fa7e:	e8 70 4c ff ff       	callq  46f3 <transparent_crc>
    fa83:	8b 05 af 91 00 00    	mov    0x91af(%rip),%eax        # 18c38 <g_2231+0x18>
    fa89:	48 98                	cltq   
    fa8b:	8b 55 fc             	mov    -0x4(%rbp),%edx
    fa8e:	48 8d 35 2c 2b 00 00 	lea    0x2b2c(%rip),%rsi        # 125c1 <g_2577+0x1559>
    fa95:	48 89 c7             	mov    %rax,%rdi
    fa98:	e8 56 4c ff ff       	callq  46f3 <transparent_crc>
    fa9d:	0f b7 05 98 91 00 00 	movzwl 0x9198(%rip),%eax        # 18c3c <g_2231+0x1c>
    faa4:	48 0f bf c0          	movswq %ax,%rax
    faa8:	8b 55 fc             	mov    -0x4(%rbp),%edx
    faab:	48 8d 35 19 2b 00 00 	lea    0x2b19(%rip),%rsi        # 125cb <g_2577+0x1563>
    fab2:	48 89 c7             	mov    %rax,%rdi
    fab5:	e8 39 4c ff ff       	callq  46f3 <transparent_crc>
    faba:	48 8b 05 7d 91 00 00 	mov    0x917d(%rip),%rax        # 18c3e <g_2231+0x1e>
    fac1:	48 89 c1             	mov    %rax,%rcx
    fac4:	8b 45 fc             	mov    -0x4(%rbp),%eax
    fac7:	89 c2                	mov    %eax,%edx
    fac9:	48 8d 35 05 2b 00 00 	lea    0x2b05(%rip),%rsi        # 125d5 <g_2577+0x156d>
    fad0:	48 89 cf             	mov    %rcx,%rdi
    fad3:	e8 1b 4c ff ff       	callq  46f3 <transparent_crc>
    fad8:	0f b6 05 67 91 00 00 	movzbl 0x9167(%rip),%eax        # 18c46 <g_2231+0x26>
    fadf:	83 e0 07             	and    $0x7,%eax
    fae2:	0f b6 c0             	movzbl %al,%eax
    fae5:	8b 55 fc             	mov    -0x4(%rbp),%edx
    fae8:	48 8d 35 f0 2a 00 00 	lea    0x2af0(%rip),%rsi        # 125df <g_2577+0x1577>
    faef:	48 89 c7             	mov    %rax,%rdi
    faf2:	e8 fc 4b ff ff       	callq  46f3 <transparent_crc>
    faf7:	0f b7 05 49 91 00 00 	movzwl 0x9149(%rip),%eax        # 18c47 <g_2231+0x27>
    fafe:	0f b7 c0             	movzwl %ax,%eax
    fb01:	8b 55 fc             	mov    -0x4(%rbp),%edx
    fb04:	48 8d 35 de 2a 00 00 	lea    0x2ade(%rip),%rsi        # 125e9 <g_2577+0x1581>
    fb0b:	48 89 c7             	mov    %rax,%rdi
    fb0e:	e8 e0 4b ff ff       	callq  46f3 <transparent_crc>
    fb13:	8b 05 47 91 00 00    	mov    0x9147(%rip),%eax        # 18c60 <g_2232>
    fb19:	48 98                	cltq   
    fb1b:	8b 55 fc             	mov    -0x4(%rbp),%edx
    fb1e:	48 8d 35 ce 2a 00 00 	lea    0x2ace(%rip),%rsi        # 125f3 <g_2577+0x158b>
    fb25:	48 89 c7             	mov    %rax,%rdi
    fb28:	e8 c6 4b ff ff       	callq  46f3 <transparent_crc>
    fb2d:	48 8b 05 30 91 00 00 	mov    0x9130(%rip),%rax        # 18c64 <g_2232+0x4>
    fb34:	48 89 c1             	mov    %rax,%rcx
    fb37:	8b 45 fc             	mov    -0x4(%rbp),%eax
    fb3a:	89 c2                	mov    %eax,%edx
    fb3c:	48 8d 35 ba 2a 00 00 	lea    0x2aba(%rip),%rsi        # 125fd <g_2577+0x1595>
    fb43:	48 89 cf             	mov    %rcx,%rdi
    fb46:	e8 a8 4b ff ff       	callq  46f3 <transparent_crc>
    fb4b:	48 8b 05 1a 91 00 00 	mov    0x911a(%rip),%rax        # 18c6c <g_2232+0xc>
    fb52:	48 89 c1             	mov    %rax,%rcx
    fb55:	8b 45 fc             	mov    -0x4(%rbp),%eax
    fb58:	89 c2                	mov    %eax,%edx
    fb5a:	48 8d 35 a6 2a 00 00 	lea    0x2aa6(%rip),%rsi        # 12607 <g_2577+0x159f>
    fb61:	48 89 cf             	mov    %rcx,%rdi
    fb64:	e8 8a 4b ff ff       	callq  46f3 <transparent_crc>
    fb69:	8b 05 05 91 00 00    	mov    0x9105(%rip),%eax        # 18c74 <g_2232+0x14>
    fb6f:	48 98                	cltq   
    fb71:	8b 55 fc             	mov    -0x4(%rbp),%edx
    fb74:	48 8d 35 96 2a 00 00 	lea    0x2a96(%rip),%rsi        # 12611 <g_2577+0x15a9>
    fb7b:	48 89 c7             	mov    %rax,%rdi
    fb7e:	e8 70 4b ff ff       	callq  46f3 <transparent_crc>
    fb83:	8b 05 ef 90 00 00    	mov    0x90ef(%rip),%eax        # 18c78 <g_2232+0x18>
    fb89:	48 98                	cltq   
    fb8b:	8b 55 fc             	mov    -0x4(%rbp),%edx
    fb8e:	48 8d 35 86 2a 00 00 	lea    0x2a86(%rip),%rsi        # 1261b <g_2577+0x15b3>
    fb95:	48 89 c7             	mov    %rax,%rdi
    fb98:	e8 56 4b ff ff       	callq  46f3 <transparent_crc>
    fb9d:	0f b7 05 d8 90 00 00 	movzwl 0x90d8(%rip),%eax        # 18c7c <g_2232+0x1c>
    fba4:	48 0f bf c0          	movswq %ax,%rax
    fba8:	8b 55 fc             	mov    -0x4(%rbp),%edx
    fbab:	48 8d 35 73 2a 00 00 	lea    0x2a73(%rip),%rsi        # 12625 <g_2577+0x15bd>
    fbb2:	48 89 c7             	mov    %rax,%rdi
    fbb5:	e8 39 4b ff ff       	callq  46f3 <transparent_crc>
    fbba:	48 8b 05 bd 90 00 00 	mov    0x90bd(%rip),%rax        # 18c7e <g_2232+0x1e>
    fbc1:	48 89 c1             	mov    %rax,%rcx
    fbc4:	8b 45 fc             	mov    -0x4(%rbp),%eax
    fbc7:	89 c2                	mov    %eax,%edx
    fbc9:	48 8d 35 5f 2a 00 00 	lea    0x2a5f(%rip),%rsi        # 1262f <g_2577+0x15c7>
    fbd0:	48 89 cf             	mov    %rcx,%rdi
    fbd3:	e8 1b 4b ff ff       	callq  46f3 <transparent_crc>
    fbd8:	0f b6 05 a7 90 00 00 	movzbl 0x90a7(%rip),%eax        # 18c86 <g_2232+0x26>
    fbdf:	83 e0 07             	and    $0x7,%eax
    fbe2:	0f b6 c0             	movzbl %al,%eax
    fbe5:	8b 55 fc             	mov    -0x4(%rbp),%edx
    fbe8:	48 8d 35 4a 2a 00 00 	lea    0x2a4a(%rip),%rsi        # 12639 <g_2577+0x15d1>
    fbef:	48 89 c7             	mov    %rax,%rdi
    fbf2:	e8 fc 4a ff ff       	callq  46f3 <transparent_crc>
    fbf7:	0f b7 05 89 90 00 00 	movzwl 0x9089(%rip),%eax        # 18c87 <g_2232+0x27>
    fbfe:	0f b7 c0             	movzwl %ax,%eax
    fc01:	8b 55 fc             	mov    -0x4(%rbp),%edx
    fc04:	48 8d 35 38 2a 00 00 	lea    0x2a38(%rip),%rsi        # 12643 <g_2577+0x15db>
    fc0b:	48 89 c7             	mov    %rax,%rdi
    fc0e:	e8 e0 4a ff ff       	callq  46f3 <transparent_crc>
    fc13:	8b 05 87 90 00 00    	mov    0x9087(%rip),%eax        # 18ca0 <g_2233>
    fc19:	48 98                	cltq   
    fc1b:	8b 55 fc             	mov    -0x4(%rbp),%edx
    fc1e:	48 8d 35 28 2a 00 00 	lea    0x2a28(%rip),%rsi        # 1264d <g_2577+0x15e5>
    fc25:	48 89 c7             	mov    %rax,%rdi
    fc28:	e8 c6 4a ff ff       	callq  46f3 <transparent_crc>
    fc2d:	48 8b 05 70 90 00 00 	mov    0x9070(%rip),%rax        # 18ca4 <g_2233+0x4>
    fc34:	48 89 c1             	mov    %rax,%rcx
    fc37:	8b 45 fc             	mov    -0x4(%rbp),%eax
    fc3a:	89 c2                	mov    %eax,%edx
    fc3c:	48 8d 35 14 2a 00 00 	lea    0x2a14(%rip),%rsi        # 12657 <g_2577+0x15ef>
    fc43:	48 89 cf             	mov    %rcx,%rdi
    fc46:	e8 a8 4a ff ff       	callq  46f3 <transparent_crc>
    fc4b:	48 8b 05 5a 90 00 00 	mov    0x905a(%rip),%rax        # 18cac <g_2233+0xc>
    fc52:	48 89 c1             	mov    %rax,%rcx
    fc55:	8b 45 fc             	mov    -0x4(%rbp),%eax
    fc58:	89 c2                	mov    %eax,%edx
    fc5a:	48 8d 35 00 2a 00 00 	lea    0x2a00(%rip),%rsi        # 12661 <g_2577+0x15f9>
    fc61:	48 89 cf             	mov    %rcx,%rdi
    fc64:	e8 8a 4a ff ff       	callq  46f3 <transparent_crc>
    fc69:	8b 05 45 90 00 00    	mov    0x9045(%rip),%eax        # 18cb4 <g_2233+0x14>
    fc6f:	48 98                	cltq   
    fc71:	8b 55 fc             	mov    -0x4(%rbp),%edx
    fc74:	48 8d 35 f0 29 00 00 	lea    0x29f0(%rip),%rsi        # 1266b <g_2577+0x1603>
    fc7b:	48 89 c7             	mov    %rax,%rdi
    fc7e:	e8 70 4a ff ff       	callq  46f3 <transparent_crc>
    fc83:	8b 05 2f 90 00 00    	mov    0x902f(%rip),%eax        # 18cb8 <g_2233+0x18>
    fc89:	48 98                	cltq   
    fc8b:	8b 55 fc             	mov    -0x4(%rbp),%edx
    fc8e:	48 8d 35 e0 29 00 00 	lea    0x29e0(%rip),%rsi        # 12675 <g_2577+0x160d>
    fc95:	48 89 c7             	mov    %rax,%rdi
    fc98:	e8 56 4a ff ff       	callq  46f3 <transparent_crc>
    fc9d:	0f b7 05 18 90 00 00 	movzwl 0x9018(%rip),%eax        # 18cbc <g_2233+0x1c>
    fca4:	48 0f bf c0          	movswq %ax,%rax
    fca8:	8b 55 fc             	mov    -0x4(%rbp),%edx
    fcab:	48 8d 35 cd 29 00 00 	lea    0x29cd(%rip),%rsi        # 1267f <g_2577+0x1617>
    fcb2:	48 89 c7             	mov    %rax,%rdi
    fcb5:	e8 39 4a ff ff       	callq  46f3 <transparent_crc>
    fcba:	48 8b 05 fd 8f 00 00 	mov    0x8ffd(%rip),%rax        # 18cbe <g_2233+0x1e>
    fcc1:	48 89 c1             	mov    %rax,%rcx
    fcc4:	8b 45 fc             	mov    -0x4(%rbp),%eax
    fcc7:	89 c2                	mov    %eax,%edx
    fcc9:	48 8d 35 b9 29 00 00 	lea    0x29b9(%rip),%rsi        # 12689 <g_2577+0x1621>
    fcd0:	48 89 cf             	mov    %rcx,%rdi
    fcd3:	e8 1b 4a ff ff       	callq  46f3 <transparent_crc>
    fcd8:	0f b6 05 e7 8f 00 00 	movzbl 0x8fe7(%rip),%eax        # 18cc6 <g_2233+0x26>
    fcdf:	83 e0 07             	and    $0x7,%eax
    fce2:	0f b6 c0             	movzbl %al,%eax
    fce5:	8b 55 fc             	mov    -0x4(%rbp),%edx
    fce8:	48 8d 35 a4 29 00 00 	lea    0x29a4(%rip),%rsi        # 12693 <g_2577+0x162b>
    fcef:	48 89 c7             	mov    %rax,%rdi
    fcf2:	e8 fc 49 ff ff       	callq  46f3 <transparent_crc>
    fcf7:	0f b7 05 c9 8f 00 00 	movzwl 0x8fc9(%rip),%eax        # 18cc7 <g_2233+0x27>
    fcfe:	0f b7 c0             	movzwl %ax,%eax
    fd01:	8b 55 fc             	mov    -0x4(%rbp),%edx
    fd04:	48 8d 35 92 29 00 00 	lea    0x2992(%rip),%rsi        # 1269d <g_2577+0x1635>
    fd0b:	48 89 c7             	mov    %rax,%rdi
    fd0e:	e8 e0 49 ff ff       	callq  46f3 <transparent_crc>
    fd13:	8b 05 c7 8f 00 00    	mov    0x8fc7(%rip),%eax        # 18ce0 <g_2234>
    fd19:	48 98                	cltq   
    fd1b:	8b 55 fc             	mov    -0x4(%rbp),%edx
    fd1e:	48 8d 35 82 29 00 00 	lea    0x2982(%rip),%rsi        # 126a7 <g_2577+0x163f>
    fd25:	48 89 c7             	mov    %rax,%rdi
    fd28:	e8 c6 49 ff ff       	callq  46f3 <transparent_crc>
    fd2d:	48 8b 05 b0 8f 00 00 	mov    0x8fb0(%rip),%rax        # 18ce4 <g_2234+0x4>
    fd34:	48 89 c1             	mov    %rax,%rcx
    fd37:	8b 45 fc             	mov    -0x4(%rbp),%eax
    fd3a:	89 c2                	mov    %eax,%edx
    fd3c:	48 8d 35 6e 29 00 00 	lea    0x296e(%rip),%rsi        # 126b1 <g_2577+0x1649>
    fd43:	48 89 cf             	mov    %rcx,%rdi
    fd46:	e8 a8 49 ff ff       	callq  46f3 <transparent_crc>
    fd4b:	48 8b 05 9a 8f 00 00 	mov    0x8f9a(%rip),%rax        # 18cec <g_2234+0xc>
    fd52:	48 89 c1             	mov    %rax,%rcx
    fd55:	8b 45 fc             	mov    -0x4(%rbp),%eax
    fd58:	89 c2                	mov    %eax,%edx
    fd5a:	48 8d 35 5a 29 00 00 	lea    0x295a(%rip),%rsi        # 126bb <g_2577+0x1653>
    fd61:	48 89 cf             	mov    %rcx,%rdi
    fd64:	e8 8a 49 ff ff       	callq  46f3 <transparent_crc>
    fd69:	8b 05 85 8f 00 00    	mov    0x8f85(%rip),%eax        # 18cf4 <g_2234+0x14>
    fd6f:	48 98                	cltq   
    fd71:	8b 55 fc             	mov    -0x4(%rbp),%edx
    fd74:	48 8d 35 4a 29 00 00 	lea    0x294a(%rip),%rsi        # 126c5 <g_2577+0x165d>
    fd7b:	48 89 c7             	mov    %rax,%rdi
    fd7e:	e8 70 49 ff ff       	callq  46f3 <transparent_crc>
    fd83:	8b 05 6f 8f 00 00    	mov    0x8f6f(%rip),%eax        # 18cf8 <g_2234+0x18>
    fd89:	48 98                	cltq   
    fd8b:	8b 55 fc             	mov    -0x4(%rbp),%edx
    fd8e:	48 8d 35 3a 29 00 00 	lea    0x293a(%rip),%rsi        # 126cf <g_2577+0x1667>
    fd95:	48 89 c7             	mov    %rax,%rdi
    fd98:	e8 56 49 ff ff       	callq  46f3 <transparent_crc>
    fd9d:	0f b7 05 58 8f 00 00 	movzwl 0x8f58(%rip),%eax        # 18cfc <g_2234+0x1c>
    fda4:	48 0f bf c0          	movswq %ax,%rax
    fda8:	8b 55 fc             	mov    -0x4(%rbp),%edx
    fdab:	48 8d 35 27 29 00 00 	lea    0x2927(%rip),%rsi        # 126d9 <g_2577+0x1671>
    fdb2:	48 89 c7             	mov    %rax,%rdi
    fdb5:	e8 39 49 ff ff       	callq  46f3 <transparent_crc>
    fdba:	48 8b 05 3d 8f 00 00 	mov    0x8f3d(%rip),%rax        # 18cfe <g_2234+0x1e>
    fdc1:	48 89 c1             	mov    %rax,%rcx
    fdc4:	8b 45 fc             	mov    -0x4(%rbp),%eax
    fdc7:	89 c2                	mov    %eax,%edx
    fdc9:	48 8d 35 13 29 00 00 	lea    0x2913(%rip),%rsi        # 126e3 <g_2577+0x167b>
    fdd0:	48 89 cf             	mov    %rcx,%rdi
    fdd3:	e8 1b 49 ff ff       	callq  46f3 <transparent_crc>
    fdd8:	0f b6 05 27 8f 00 00 	movzbl 0x8f27(%rip),%eax        # 18d06 <g_2234+0x26>
    fddf:	83 e0 07             	and    $0x7,%eax
    fde2:	0f b6 c0             	movzbl %al,%eax
    fde5:	8b 55 fc             	mov    -0x4(%rbp),%edx
    fde8:	48 8d 35 fe 28 00 00 	lea    0x28fe(%rip),%rsi        # 126ed <g_2577+0x1685>
    fdef:	48 89 c7             	mov    %rax,%rdi
    fdf2:	e8 fc 48 ff ff       	callq  46f3 <transparent_crc>
    fdf7:	0f b7 05 09 8f 00 00 	movzwl 0x8f09(%rip),%eax        # 18d07 <g_2234+0x27>
    fdfe:	0f b7 c0             	movzwl %ax,%eax
    fe01:	8b 55 fc             	mov    -0x4(%rbp),%edx
    fe04:	48 8d 35 ec 28 00 00 	lea    0x28ec(%rip),%rsi        # 126f7 <g_2577+0x168f>
    fe0b:	48 89 c7             	mov    %rax,%rdi
    fe0e:	e8 e0 48 ff ff       	callq  46f3 <transparent_crc>
    fe13:	8b 05 07 8f 00 00    	mov    0x8f07(%rip),%eax        # 18d20 <g_2235>
    fe19:	48 98                	cltq   
    fe1b:	8b 55 fc             	mov    -0x4(%rbp),%edx
    fe1e:	48 8d 35 dc 28 00 00 	lea    0x28dc(%rip),%rsi        # 12701 <g_2577+0x1699>
    fe25:	48 89 c7             	mov    %rax,%rdi
    fe28:	e8 c6 48 ff ff       	callq  46f3 <transparent_crc>
    fe2d:	48 8b 05 f0 8e 00 00 	mov    0x8ef0(%rip),%rax        # 18d24 <g_2235+0x4>
    fe34:	48 89 c1             	mov    %rax,%rcx
    fe37:	8b 45 fc             	mov    -0x4(%rbp),%eax
    fe3a:	89 c2                	mov    %eax,%edx
    fe3c:	48 8d 35 c8 28 00 00 	lea    0x28c8(%rip),%rsi        # 1270b <g_2577+0x16a3>
    fe43:	48 89 cf             	mov    %rcx,%rdi
    fe46:	e8 a8 48 ff ff       	callq  46f3 <transparent_crc>
    fe4b:	48 8b 05 da 8e 00 00 	mov    0x8eda(%rip),%rax        # 18d2c <g_2235+0xc>
    fe52:	48 89 c1             	mov    %rax,%rcx
    fe55:	8b 45 fc             	mov    -0x4(%rbp),%eax
    fe58:	89 c2                	mov    %eax,%edx
    fe5a:	48 8d 35 b4 28 00 00 	lea    0x28b4(%rip),%rsi        # 12715 <g_2577+0x16ad>
    fe61:	48 89 cf             	mov    %rcx,%rdi
    fe64:	e8 8a 48 ff ff       	callq  46f3 <transparent_crc>
    fe69:	8b 05 c5 8e 00 00    	mov    0x8ec5(%rip),%eax        # 18d34 <g_2235+0x14>
    fe6f:	48 98                	cltq   
    fe71:	8b 55 fc             	mov    -0x4(%rbp),%edx
    fe74:	48 8d 35 a4 28 00 00 	lea    0x28a4(%rip),%rsi        # 1271f <g_2577+0x16b7>
    fe7b:	48 89 c7             	mov    %rax,%rdi
    fe7e:	e8 70 48 ff ff       	callq  46f3 <transparent_crc>
    fe83:	8b 05 af 8e 00 00    	mov    0x8eaf(%rip),%eax        # 18d38 <g_2235+0x18>
    fe89:	48 98                	cltq   
    fe8b:	8b 55 fc             	mov    -0x4(%rbp),%edx
    fe8e:	48 8d 35 94 28 00 00 	lea    0x2894(%rip),%rsi        # 12729 <g_2577+0x16c1>
    fe95:	48 89 c7             	mov    %rax,%rdi
    fe98:	e8 56 48 ff ff       	callq  46f3 <transparent_crc>
    fe9d:	0f b7 05 98 8e 00 00 	movzwl 0x8e98(%rip),%eax        # 18d3c <g_2235+0x1c>
    fea4:	48 0f bf c0          	movswq %ax,%rax
    fea8:	8b 55 fc             	mov    -0x4(%rbp),%edx
    feab:	48 8d 35 81 28 00 00 	lea    0x2881(%rip),%rsi        # 12733 <g_2577+0x16cb>
    feb2:	48 89 c7             	mov    %rax,%rdi
    feb5:	e8 39 48 ff ff       	callq  46f3 <transparent_crc>
    feba:	48 8b 05 7d 8e 00 00 	mov    0x8e7d(%rip),%rax        # 18d3e <g_2235+0x1e>
    fec1:	48 89 c1             	mov    %rax,%rcx
    fec4:	8b 45 fc             	mov    -0x4(%rbp),%eax
    fec7:	89 c2                	mov    %eax,%edx
    fec9:	48 8d 35 6d 28 00 00 	lea    0x286d(%rip),%rsi        # 1273d <g_2577+0x16d5>
    fed0:	48 89 cf             	mov    %rcx,%rdi
    fed3:	e8 1b 48 ff ff       	callq  46f3 <transparent_crc>
    fed8:	0f b6 05 67 8e 00 00 	movzbl 0x8e67(%rip),%eax        # 18d46 <g_2235+0x26>
    fedf:	83 e0 07             	and    $0x7,%eax
    fee2:	0f b6 c0             	movzbl %al,%eax
    fee5:	8b 55 fc             	mov    -0x4(%rbp),%edx
    fee8:	48 8d 35 58 28 00 00 	lea    0x2858(%rip),%rsi        # 12747 <g_2577+0x16df>
    feef:	48 89 c7             	mov    %rax,%rdi
    fef2:	e8 fc 47 ff ff       	callq  46f3 <transparent_crc>
    fef7:	0f b7 05 49 8e 00 00 	movzwl 0x8e49(%rip),%eax        # 18d47 <g_2235+0x27>
    fefe:	0f b7 c0             	movzwl %ax,%eax
    ff01:	8b 55 fc             	mov    -0x4(%rbp),%edx
    ff04:	48 8d 35 46 28 00 00 	lea    0x2846(%rip),%rsi        # 12751 <g_2577+0x16e9>
    ff0b:	48 89 c7             	mov    %rax,%rdi
    ff0e:	e8 e0 47 ff ff       	callq  46f3 <transparent_crc>
    ff13:	8b 05 47 8e 00 00    	mov    0x8e47(%rip),%eax        # 18d60 <g_2236>
    ff19:	48 98                	cltq   
    ff1b:	8b 55 fc             	mov    -0x4(%rbp),%edx
    ff1e:	48 8d 35 36 28 00 00 	lea    0x2836(%rip),%rsi        # 1275b <g_2577+0x16f3>
    ff25:	48 89 c7             	mov    %rax,%rdi
    ff28:	e8 c6 47 ff ff       	callq  46f3 <transparent_crc>
    ff2d:	48 8b 05 30 8e 00 00 	mov    0x8e30(%rip),%rax        # 18d64 <g_2236+0x4>
    ff34:	48 89 c1             	mov    %rax,%rcx
    ff37:	8b 45 fc             	mov    -0x4(%rbp),%eax
    ff3a:	89 c2                	mov    %eax,%edx
    ff3c:	48 8d 35 22 28 00 00 	lea    0x2822(%rip),%rsi        # 12765 <g_2577+0x16fd>
    ff43:	48 89 cf             	mov    %rcx,%rdi
    ff46:	e8 a8 47 ff ff       	callq  46f3 <transparent_crc>
    ff4b:	48 8b 05 1a 8e 00 00 	mov    0x8e1a(%rip),%rax        # 18d6c <g_2236+0xc>
    ff52:	48 89 c1             	mov    %rax,%rcx
    ff55:	8b 45 fc             	mov    -0x4(%rbp),%eax
    ff58:	89 c2                	mov    %eax,%edx
    ff5a:	48 8d 35 0e 28 00 00 	lea    0x280e(%rip),%rsi        # 1276f <g_2577+0x1707>
    ff61:	48 89 cf             	mov    %rcx,%rdi
    ff64:	e8 8a 47 ff ff       	callq  46f3 <transparent_crc>
    ff69:	8b 05 05 8e 00 00    	mov    0x8e05(%rip),%eax        # 18d74 <g_2236+0x14>
    ff6f:	48 98                	cltq   
    ff71:	8b 55 fc             	mov    -0x4(%rbp),%edx
    ff74:	48 8d 35 fe 27 00 00 	lea    0x27fe(%rip),%rsi        # 12779 <g_2577+0x1711>
    ff7b:	48 89 c7             	mov    %rax,%rdi
    ff7e:	e8 70 47 ff ff       	callq  46f3 <transparent_crc>
    ff83:	8b 05 ef 8d 00 00    	mov    0x8def(%rip),%eax        # 18d78 <g_2236+0x18>
    ff89:	48 98                	cltq   
    ff8b:	8b 55 fc             	mov    -0x4(%rbp),%edx
    ff8e:	48 8d 35 ee 27 00 00 	lea    0x27ee(%rip),%rsi        # 12783 <g_2577+0x171b>
    ff95:	48 89 c7             	mov    %rax,%rdi
    ff98:	e8 56 47 ff ff       	callq  46f3 <transparent_crc>
    ff9d:	0f b7 05 d8 8d 00 00 	movzwl 0x8dd8(%rip),%eax        # 18d7c <g_2236+0x1c>
    ffa4:	48 0f bf c0          	movswq %ax,%rax
    ffa8:	8b 55 fc             	mov    -0x4(%rbp),%edx
    ffab:	48 8d 35 db 27 00 00 	lea    0x27db(%rip),%rsi        # 1278d <g_2577+0x1725>
    ffb2:	48 89 c7             	mov    %rax,%rdi
    ffb5:	e8 39 47 ff ff       	callq  46f3 <transparent_crc>
    ffba:	48 8b 05 bd 8d 00 00 	mov    0x8dbd(%rip),%rax        # 18d7e <g_2236+0x1e>
    ffc1:	48 89 c1             	mov    %rax,%rcx
    ffc4:	8b 45 fc             	mov    -0x4(%rbp),%eax
    ffc7:	89 c2                	mov    %eax,%edx
    ffc9:	48 8d 35 c7 27 00 00 	lea    0x27c7(%rip),%rsi        # 12797 <g_2577+0x172f>
    ffd0:	48 89 cf             	mov    %rcx,%rdi
    ffd3:	e8 1b 47 ff ff       	callq  46f3 <transparent_crc>
    ffd8:	0f b6 05 a7 8d 00 00 	movzbl 0x8da7(%rip),%eax        # 18d86 <g_2236+0x26>
    ffdf:	83 e0 07             	and    $0x7,%eax
    ffe2:	0f b6 c0             	movzbl %al,%eax
    ffe5:	8b 55 fc             	mov    -0x4(%rbp),%edx
    ffe8:	48 8d 35 b2 27 00 00 	lea    0x27b2(%rip),%rsi        # 127a1 <g_2577+0x1739>
    ffef:	48 89 c7             	mov    %rax,%rdi
    fff2:	e8 fc 46 ff ff       	callq  46f3 <transparent_crc>
    fff7:	0f b7 05 89 8d 00 00 	movzwl 0x8d89(%rip),%eax        # 18d87 <g_2236+0x27>
    fffe:	0f b7 c0             	movzwl %ax,%eax
   10001:	8b 55 fc             	mov    -0x4(%rbp),%edx
   10004:	48 8d 35 a0 27 00 00 	lea    0x27a0(%rip),%rsi        # 127ab <g_2577+0x1743>
   1000b:	48 89 c7             	mov    %rax,%rdi
   1000e:	e8 e0 46 ff ff       	callq  46f3 <transparent_crc>
   10013:	c7 45 f0 00 00 00 00 	movl   $0x0,-0x10(%rbp)
   1001a:	e9 18 02 00 00       	jmpq   10237 <main+0x2846>
   1001f:	8b 45 f0             	mov    -0x10(%rbp),%eax
   10022:	48 63 d0             	movslq %eax,%rdx
   10025:	48 89 d0             	mov    %rdx,%rax
   10028:	48 c1 e0 02          	shl    $0x2,%rax
   1002c:	48 01 d0             	add    %rdx,%rax
   1002f:	48 c1 e0 03          	shl    $0x3,%rax
   10033:	48 01 c2             	add    %rax,%rdx
   10036:	48 8d 05 63 8d 00 00 	lea    0x8d63(%rip),%rax        # 18da0 <g_2237>
   1003d:	8b 04 02             	mov    (%rdx,%rax,1),%eax
   10040:	48 98                	cltq   
   10042:	8b 55 fc             	mov    -0x4(%rbp),%edx
   10045:	48 8d 35 69 27 00 00 	lea    0x2769(%rip),%rsi        # 127b5 <g_2577+0x174d>
   1004c:	48 89 c7             	mov    %rax,%rdi
   1004f:	e8 9f 46 ff ff       	callq  46f3 <transparent_crc>
   10054:	8b 45 f0             	mov    -0x10(%rbp),%eax
   10057:	48 63 d0             	movslq %eax,%rdx
   1005a:	48 89 d0             	mov    %rdx,%rax
   1005d:	48 c1 e0 02          	shl    $0x2,%rax
   10061:	48 01 d0             	add    %rdx,%rax
   10064:	48 c1 e0 03          	shl    $0x3,%rax
   10068:	48 01 c2             	add    %rax,%rdx
   1006b:	48 8d 05 2e 8d 00 00 	lea    0x8d2e(%rip),%rax        # 18da0 <g_2237>
   10072:	48 8b 44 02 04       	mov    0x4(%rdx,%rax,1),%rax
   10077:	48 89 c1             	mov    %rax,%rcx
   1007a:	8b 45 fc             	mov    -0x4(%rbp),%eax
   1007d:	89 c2                	mov    %eax,%edx
   1007f:	48 8d 35 3c 27 00 00 	lea    0x273c(%rip),%rsi        # 127c2 <g_2577+0x175a>
   10086:	48 89 cf             	mov    %rcx,%rdi
   10089:	e8 65 46 ff ff       	callq  46f3 <transparent_crc>
   1008e:	8b 45 f0             	mov    -0x10(%rbp),%eax
   10091:	48 63 d0             	movslq %eax,%rdx
   10094:	48 89 d0             	mov    %rdx,%rax
   10097:	48 c1 e0 02          	shl    $0x2,%rax
   1009b:	48 01 d0             	add    %rdx,%rax
   1009e:	48 c1 e0 03          	shl    $0x3,%rax
   100a2:	48 01 c2             	add    %rax,%rdx
   100a5:	48 8d 05 f4 8c 00 00 	lea    0x8cf4(%rip),%rax        # 18da0 <g_2237>
   100ac:	48 8b 44 02 0c       	mov    0xc(%rdx,%rax,1),%rax
   100b1:	48 89 c1             	mov    %rax,%rcx
   100b4:	8b 45 fc             	mov    -0x4(%rbp),%eax
   100b7:	89 c2                	mov    %eax,%edx
   100b9:	48 8d 35 0f 27 00 00 	lea    0x270f(%rip),%rsi        # 127cf <g_2577+0x1767>
   100c0:	48 89 cf             	mov    %rcx,%rdi
   100c3:	e8 2b 46 ff ff       	callq  46f3 <transparent_crc>
   100c8:	8b 45 f0             	mov    -0x10(%rbp),%eax
   100cb:	48 63 d0             	movslq %eax,%rdx
   100ce:	48 89 d0             	mov    %rdx,%rax
   100d1:	48 c1 e0 02          	shl    $0x2,%rax
   100d5:	48 01 d0             	add    %rdx,%rax
   100d8:	48 c1 e0 03          	shl    $0x3,%rax
   100dc:	48 01 c2             	add    %rax,%rdx
   100df:	48 8d 05 ce 8c 00 00 	lea    0x8cce(%rip),%rax        # 18db4 <g_2237+0x14>
   100e6:	8b 04 02             	mov    (%rdx,%rax,1),%eax
   100e9:	48 98                	cltq   
   100eb:	8b 55 fc             	mov    -0x4(%rbp),%edx
   100ee:	48 8d 35 e7 26 00 00 	lea    0x26e7(%rip),%rsi        # 127dc <g_2577+0x1774>
   100f5:	48 89 c7             	mov    %rax,%rdi
   100f8:	e8 f6 45 ff ff       	callq  46f3 <transparent_crc>
   100fd:	8b 45 f0             	mov    -0x10(%rbp),%eax
   10100:	48 63 d0             	movslq %eax,%rdx
   10103:	48 89 d0             	mov    %rdx,%rax
   10106:	48 c1 e0 02          	shl    $0x2,%rax
   1010a:	48 01 d0             	add    %rdx,%rax
   1010d:	48 c1 e0 03          	shl    $0x3,%rax
   10111:	48 01 c2             	add    %rax,%rdx
   10114:	48 8d 05 9d 8c 00 00 	lea    0x8c9d(%rip),%rax        # 18db8 <g_2237+0x18>
   1011b:	8b 04 02             	mov    (%rdx,%rax,1),%eax
   1011e:	48 98                	cltq   
   10120:	8b 55 fc             	mov    -0x4(%rbp),%edx
   10123:	48 8d 35 bf 26 00 00 	lea    0x26bf(%rip),%rsi        # 127e9 <g_2577+0x1781>
   1012a:	48 89 c7             	mov    %rax,%rdi
   1012d:	e8 c1 45 ff ff       	callq  46f3 <transparent_crc>
   10132:	8b 45 f0             	mov    -0x10(%rbp),%eax
   10135:	48 63 d0             	movslq %eax,%rdx
   10138:	48 89 d0             	mov    %rdx,%rax
   1013b:	48 c1 e0 02          	shl    $0x2,%rax
   1013f:	48 01 d0             	add    %rdx,%rax
   10142:	48 c1 e0 03          	shl    $0x3,%rax
   10146:	48 01 c2             	add    %rax,%rdx
   10149:	48 8d 05 6c 8c 00 00 	lea    0x8c6c(%rip),%rax        # 18dbc <g_2237+0x1c>
   10150:	0f b7 04 02          	movzwl (%rdx,%rax,1),%eax
   10154:	48 0f bf c0          	movswq %ax,%rax
   10158:	8b 55 fc             	mov    -0x4(%rbp),%edx
   1015b:	48 8d 35 94 26 00 00 	lea    0x2694(%rip),%rsi        # 127f6 <g_2577+0x178e>
   10162:	48 89 c7             	mov    %rax,%rdi
   10165:	e8 89 45 ff ff       	callq  46f3 <transparent_crc>
   1016a:	8b 45 f0             	mov    -0x10(%rbp),%eax
   1016d:	48 63 d0             	movslq %eax,%rdx
   10170:	48 89 d0             	mov    %rdx,%rax
   10173:	48 c1 e0 02          	shl    $0x2,%rax
   10177:	48 01 d0             	add    %rdx,%rax
   1017a:	48 c1 e0 03          	shl    $0x3,%rax
   1017e:	48 01 c2             	add    %rax,%rdx
   10181:	48 8d 05 28 8c 00 00 	lea    0x8c28(%rip),%rax        # 18db0 <g_2237+0x10>
   10188:	48 8b 44 02 0e       	mov    0xe(%rdx,%rax,1),%rax
   1018d:	48 89 c1             	mov    %rax,%rcx
   10190:	8b 45 fc             	mov    -0x4(%rbp),%eax
   10193:	89 c2                	mov    %eax,%edx
   10195:	48 8d 35 67 26 00 00 	lea    0x2667(%rip),%rsi        # 12803 <g_2577+0x179b>
   1019c:	48 89 cf             	mov    %rcx,%rdi
   1019f:	e8 4f 45 ff ff       	callq  46f3 <transparent_crc>
   101a4:	8b 45 f0             	mov    -0x10(%rbp),%eax
   101a7:	48 63 d0             	movslq %eax,%rdx
   101aa:	48 89 d0             	mov    %rdx,%rax
   101ad:	48 c1 e0 02          	shl    $0x2,%rax
   101b1:	48 01 d0             	add    %rdx,%rax
   101b4:	48 c1 e0 03          	shl    $0x3,%rax
   101b8:	48 01 c2             	add    %rax,%rdx
   101bb:	48 8d 05 fe 8b 00 00 	lea    0x8bfe(%rip),%rax        # 18dc0 <g_2237+0x20>
   101c2:	0f b6 44 02 06       	movzbl 0x6(%rdx,%rax,1),%eax
   101c7:	83 e0 07             	and    $0x7,%eax
   101ca:	0f b6 c0             	movzbl %al,%eax
   101cd:	8b 55 fc             	mov    -0x4(%rbp),%edx
   101d0:	48 8d 35 39 26 00 00 	lea    0x2639(%rip),%rsi        # 12810 <g_2577+0x17a8>
   101d7:	48 89 c7             	mov    %rax,%rdi
   101da:	e8 14 45 ff ff       	callq  46f3 <transparent_crc>
   101df:	8b 45 f0             	mov    -0x10(%rbp),%eax
   101e2:	48 63 d0             	movslq %eax,%rdx
   101e5:	48 89 d0             	mov    %rdx,%rax
   101e8:	48 c1 e0 02          	shl    $0x2,%rax
   101ec:	48 01 d0             	add    %rdx,%rax
   101ef:	48 c1 e0 03          	shl    $0x3,%rax
   101f3:	48 01 c2             	add    %rax,%rdx
   101f6:	48 8d 05 c3 8b 00 00 	lea    0x8bc3(%rip),%rax        # 18dc0 <g_2237+0x20>
   101fd:	0f b7 44 02 07       	movzwl 0x7(%rdx,%rax,1),%eax
   10202:	0f b7 c0             	movzwl %ax,%eax
   10205:	8b 55 fc             	mov    -0x4(%rbp),%edx
   10208:	48 8d 35 0e 26 00 00 	lea    0x260e(%rip),%rsi        # 1281d <g_2577+0x17b5>
   1020f:	48 89 c7             	mov    %rax,%rdi
   10212:	e8 dc 44 ff ff       	callq  46f3 <transparent_crc>
   10217:	83 7d fc 00          	cmpl   $0x0,-0x4(%rbp)
   1021b:	74 16                	je     10233 <main+0x2842>
   1021d:	8b 45 f0             	mov    -0x10(%rbp),%eax
   10220:	89 c6                	mov    %eax,%esi
   10222:	48 8d 3d 87 1c 00 00 	lea    0x1c87(%rip),%rdi        # 11eb0 <g_2577+0xe48>
   10229:	b8 00 00 00 00       	mov    $0x0,%eax
   1022e:	e8 4d 2e ff ff       	callq  3080 <printf@plt>
   10233:	83 45 f0 01          	addl   $0x1,-0x10(%rbp)
   10237:	83 7d f0 05          	cmpl   $0x5,-0x10(%rbp)
   1023b:	0f 8e de fd ff ff    	jle    1001f <main+0x262e>
   10241:	c7 45 f0 00 00 00 00 	movl   $0x0,-0x10(%rbp)
   10248:	eb 4b                	jmp    10295 <main+0x28a4>
   1024a:	8b 45 f0             	mov    -0x10(%rbp),%eax
   1024d:	48 98                	cltq   
   1024f:	48 8d 14 85 00 00 00 	lea    0x0(,%rax,4),%rdx
   10256:	00 
   10257:	48 8d 05 42 8c 00 00 	lea    0x8c42(%rip),%rax        # 18ea0 <g_2301>
   1025e:	8b 04 02             	mov    (%rdx,%rax,1),%eax
   10261:	48 98                	cltq   
   10263:	8b 55 fc             	mov    -0x4(%rbp),%edx
   10266:	48 8d 35 bd 25 00 00 	lea    0x25bd(%rip),%rsi        # 1282a <g_2577+0x17c2>
   1026d:	48 89 c7             	mov    %rax,%rdi
   10270:	e8 7e 44 ff ff       	callq  46f3 <transparent_crc>
   10275:	83 7d fc 00          	cmpl   $0x0,-0x4(%rbp)
   10279:	74 16                	je     10291 <main+0x28a0>
   1027b:	8b 45 f0             	mov    -0x10(%rbp),%eax
   1027e:	89 c6                	mov    %eax,%esi
   10280:	48 8d 3d 29 1c 00 00 	lea    0x1c29(%rip),%rdi        # 11eb0 <g_2577+0xe48>
   10287:	b8 00 00 00 00       	mov    $0x0,%eax
   1028c:	e8 ef 2d ff ff       	callq  3080 <printf@plt>
   10291:	83 45 f0 01          	addl   $0x1,-0x10(%rbp)
   10295:	83 7d f0 05          	cmpl   $0x5,-0x10(%rbp)
   10299:	7e af                	jle    1024a <main+0x2859>
   1029b:	c7 45 f0 00 00 00 00 	movl   $0x0,-0x10(%rbp)
   102a2:	e9 bc 02 00 00       	jmpq   10563 <main+0x2b72>
   102a7:	c7 45 f4 00 00 00 00 	movl   $0x0,-0xc(%rbp)
   102ae:	e9 a2 02 00 00       	jmpq   10555 <main+0x2b64>
   102b3:	8b 45 f4             	mov    -0xc(%rbp),%eax
   102b6:	48 63 d0             	movslq %eax,%rdx
   102b9:	8b 45 f0             	mov    -0x10(%rbp),%eax
   102bc:	48 63 c8             	movslq %eax,%rcx
   102bf:	48 89 d0             	mov    %rdx,%rax
   102c2:	48 c1 e0 02          	shl    $0x2,%rax
   102c6:	48 01 d0             	add    %rdx,%rax
   102c9:	48 c1 e0 03          	shl    $0x3,%rax
   102cd:	48 01 d0             	add    %rdx,%rax
   102d0:	48 6b d1 7b          	imul   $0x7b,%rcx,%rdx
   102d4:	48 01 c2             	add    %rax,%rdx
   102d7:	48 8d 05 e2 8b 00 00 	lea    0x8be2(%rip),%rax        # 18ec0 <g_2411>
   102de:	48 01 d0             	add    %rdx,%rax
   102e1:	8b 00                	mov    (%rax),%eax
   102e3:	48 98                	cltq   
   102e5:	8b 55 fc             	mov    -0x4(%rbp),%edx
   102e8:	48 8d 35 45 25 00 00 	lea    0x2545(%rip),%rsi        # 12834 <g_2577+0x17cc>
   102ef:	48 89 c7             	mov    %rax,%rdi
   102f2:	e8 fc 43 ff ff       	callq  46f3 <transparent_crc>
   102f7:	8b 45 f4             	mov    -0xc(%rbp),%eax
   102fa:	48 63 d0             	movslq %eax,%rdx
   102fd:	8b 45 f0             	mov    -0x10(%rbp),%eax
   10300:	48 63 c8             	movslq %eax,%rcx
   10303:	48 89 d0             	mov    %rdx,%rax
   10306:	48 c1 e0 02          	shl    $0x2,%rax
   1030a:	48 01 d0             	add    %rdx,%rax
   1030d:	48 c1 e0 03          	shl    $0x3,%rax
   10311:	48 01 d0             	add    %rdx,%rax
   10314:	48 6b d1 7b          	imul   $0x7b,%rcx,%rdx
   10318:	48 01 c2             	add    %rax,%rdx
   1031b:	48 8d 05 9e 8b 00 00 	lea    0x8b9e(%rip),%rax        # 18ec0 <g_2411>
   10322:	48 01 d0             	add    %rdx,%rax
   10325:	48 8b 40 04          	mov    0x4(%rax),%rax
   10329:	48 89 c1             	mov    %rax,%rcx
   1032c:	8b 45 fc             	mov    -0x4(%rbp),%eax
   1032f:	89 c2                	mov    %eax,%edx
   10331:	48 8d 35 0c 25 00 00 	lea    0x250c(%rip),%rsi        # 12844 <g_2577+0x17dc>
   10338:	48 89 cf             	mov    %rcx,%rdi
   1033b:	e8 b3 43 ff ff       	callq  46f3 <transparent_crc>
   10340:	8b 45 f4             	mov    -0xc(%rbp),%eax
   10343:	48 63 d0             	movslq %eax,%rdx
   10346:	8b 45 f0             	mov    -0x10(%rbp),%eax
   10349:	48 63 c8             	movslq %eax,%rcx
   1034c:	48 89 d0             	mov    %rdx,%rax
   1034f:	48 c1 e0 02          	shl    $0x2,%rax
   10353:	48 01 d0             	add    %rdx,%rax
   10356:	48 c1 e0 03          	shl    $0x3,%rax
   1035a:	48 01 d0             	add    %rdx,%rax
   1035d:	48 6b d1 7b          	imul   $0x7b,%rcx,%rdx
   10361:	48 01 c2             	add    %rax,%rdx
   10364:	48 8d 05 55 8b 00 00 	lea    0x8b55(%rip),%rax        # 18ec0 <g_2411>
   1036b:	48 01 d0             	add    %rdx,%rax
   1036e:	48 8b 40 0c          	mov    0xc(%rax),%rax
   10372:	48 89 c1             	mov    %rax,%rcx
   10375:	8b 45 fc             	mov    -0x4(%rbp),%eax
   10378:	89 c2                	mov    %eax,%edx
   1037a:	48 8d 35 d3 24 00 00 	lea    0x24d3(%rip),%rsi        # 12854 <g_2577+0x17ec>
   10381:	48 89 cf             	mov    %rcx,%rdi
   10384:	e8 6a 43 ff ff       	callq  46f3 <transparent_crc>
   10389:	8b 45 f4             	mov    -0xc(%rbp),%eax
   1038c:	48 63 d0             	movslq %eax,%rdx
   1038f:	8b 45 f0             	mov    -0x10(%rbp),%eax
   10392:	48 63 c8             	movslq %eax,%rcx
   10395:	48 89 d0             	mov    %rdx,%rax
   10398:	48 c1 e0 02          	shl    $0x2,%rax
   1039c:	48 01 d0             	add    %rdx,%rax
   1039f:	48 c1 e0 03          	shl    $0x3,%rax
   103a3:	48 01 d0             	add    %rdx,%rax
   103a6:	48 6b d1 7b          	imul   $0x7b,%rcx,%rdx
   103aa:	48 01 c2             	add    %rax,%rdx
   103ad:	48 8d 05 20 8b 00 00 	lea    0x8b20(%rip),%rax        # 18ed4 <g_2411+0x14>
   103b4:	48 01 d0             	add    %rdx,%rax
   103b7:	8b 00                	mov    (%rax),%eax
   103b9:	48 98                	cltq   
   103bb:	8b 55 fc             	mov    -0x4(%rbp),%edx
   103be:	48 8d 35 9f 24 00 00 	lea    0x249f(%rip),%rsi        # 12864 <g_2577+0x17fc>
   103c5:	48 89 c7             	mov    %rax,%rdi
   103c8:	e8 26 43 ff ff       	callq  46f3 <transparent_crc>
   103cd:	8b 45 f4             	mov    -0xc(%rbp),%eax
   103d0:	48 63 d0             	movslq %eax,%rdx
   103d3:	8b 45 f0             	mov    -0x10(%rbp),%eax
   103d6:	48 63 c8             	movslq %eax,%rcx
   103d9:	48 89 d0             	mov    %rdx,%rax
   103dc:	48 c1 e0 02          	shl    $0x2,%rax
   103e0:	48 01 d0             	add    %rdx,%rax
   103e3:	48 c1 e0 03          	shl    $0x3,%rax
   103e7:	48 01 d0             	add    %rdx,%rax
   103ea:	48 6b d1 7b          	imul   $0x7b,%rcx,%rdx
   103ee:	48 01 c2             	add    %rax,%rdx
   103f1:	48 8d 05 e0 8a 00 00 	lea    0x8ae0(%rip),%rax        # 18ed8 <g_2411+0x18>
   103f8:	48 01 d0             	add    %rdx,%rax
   103fb:	8b 00                	mov    (%rax),%eax
   103fd:	48 98                	cltq   
   103ff:	8b 55 fc             	mov    -0x4(%rbp),%edx
   10402:	48 8d 35 6b 24 00 00 	lea    0x246b(%rip),%rsi        # 12874 <g_2577+0x180c>
   10409:	48 89 c7             	mov    %rax,%rdi
   1040c:	e8 e2 42 ff ff       	callq  46f3 <transparent_crc>
   10411:	8b 45 f4             	mov    -0xc(%rbp),%eax
   10414:	48 63 d0             	movslq %eax,%rdx
   10417:	8b 45 f0             	mov    -0x10(%rbp),%eax
   1041a:	48 63 c8             	movslq %eax,%rcx
   1041d:	48 89 d0             	mov    %rdx,%rax
   10420:	48 c1 e0 02          	shl    $0x2,%rax
   10424:	48 01 d0             	add    %rdx,%rax
   10427:	48 c1 e0 03          	shl    $0x3,%rax
   1042b:	48 01 d0             	add    %rdx,%rax
   1042e:	48 6b d1 7b          	imul   $0x7b,%rcx,%rdx
   10432:	48 01 c2             	add    %rax,%rdx
   10435:	48 8d 05 a0 8a 00 00 	lea    0x8aa0(%rip),%rax        # 18edc <g_2411+0x1c>
   1043c:	48 01 d0             	add    %rdx,%rax
   1043f:	0f b7 00             	movzwl (%rax),%eax
   10442:	48 0f bf c0          	movswq %ax,%rax
   10446:	8b 55 fc             	mov    -0x4(%rbp),%edx
   10449:	48 8d 35 34 24 00 00 	lea    0x2434(%rip),%rsi        # 12884 <g_2577+0x181c>
   10450:	48 89 c7             	mov    %rax,%rdi
   10453:	e8 9b 42 ff ff       	callq  46f3 <transparent_crc>
   10458:	8b 45 f4             	mov    -0xc(%rbp),%eax
   1045b:	48 63 d0             	movslq %eax,%rdx
   1045e:	8b 45 f0             	mov    -0x10(%rbp),%eax
   10461:	48 63 c8             	movslq %eax,%rcx
   10464:	48 89 d0             	mov    %rdx,%rax
   10467:	48 c1 e0 02          	shl    $0x2,%rax
   1046b:	48 01 d0             	add    %rdx,%rax
   1046e:	48 c1 e0 03          	shl    $0x3,%rax
   10472:	48 01 d0             	add    %rdx,%rax
   10475:	48 6b d1 7b          	imul   $0x7b,%rcx,%rdx
   10479:	48 01 c2             	add    %rax,%rdx
   1047c:	48 8d 05 4d 8a 00 00 	lea    0x8a4d(%rip),%rax        # 18ed0 <g_2411+0x10>
   10483:	48 01 d0             	add    %rdx,%rax
   10486:	48 8b 40 0e          	mov    0xe(%rax),%rax
   1048a:	48 89 c1             	mov    %rax,%rcx
   1048d:	8b 45 fc             	mov    -0x4(%rbp),%eax
   10490:	89 c2                	mov    %eax,%edx
   10492:	48 8d 35 fb 23 00 00 	lea    0x23fb(%rip),%rsi        # 12894 <g_2577+0x182c>
   10499:	48 89 cf             	mov    %rcx,%rdi
   1049c:	e8 52 42 ff ff       	callq  46f3 <transparent_crc>
   104a1:	8b 45 f4             	mov    -0xc(%rbp),%eax
   104a4:	48 63 d0             	movslq %eax,%rdx
   104a7:	8b 45 f0             	mov    -0x10(%rbp),%eax
   104aa:	48 63 c8             	movslq %eax,%rcx
   104ad:	48 89 d0             	mov    %rdx,%rax
   104b0:	48 c1 e0 02          	shl    $0x2,%rax
   104b4:	48 01 d0             	add    %rdx,%rax
   104b7:	48 c1 e0 03          	shl    $0x3,%rax
   104bb:	48 01 d0             	add    %rdx,%rax
   104be:	48 6b d1 7b          	imul   $0x7b,%rcx,%rdx
   104c2:	48 01 c2             	add    %rax,%rdx
   104c5:	48 8d 05 14 8a 00 00 	lea    0x8a14(%rip),%rax        # 18ee0 <g_2411+0x20>
   104cc:	48 01 d0             	add    %rdx,%rax
   104cf:	0f b6 40 06          	movzbl 0x6(%rax),%eax
   104d3:	83 e0 07             	and    $0x7,%eax
   104d6:	0f b6 c0             	movzbl %al,%eax
   104d9:	8b 55 fc             	mov    -0x4(%rbp),%edx
   104dc:	48 8d 35 c1 23 00 00 	lea    0x23c1(%rip),%rsi        # 128a4 <g_2577+0x183c>
   104e3:	48 89 c7             	mov    %rax,%rdi
   104e6:	e8 08 42 ff ff       	callq  46f3 <transparent_crc>
   104eb:	8b 45 f4             	mov    -0xc(%rbp),%eax
   104ee:	48 63 d0             	movslq %eax,%rdx
   104f1:	8b 45 f0             	mov    -0x10(%rbp),%eax
   104f4:	48 63 c8             	movslq %eax,%rcx
   104f7:	48 89 d0             	mov    %rdx,%rax
   104fa:	48 c1 e0 02          	shl    $0x2,%rax
   104fe:	48 01 d0             	add    %rdx,%rax
   10501:	48 c1 e0 03          	shl    $0x3,%rax
   10505:	48 01 d0             	add    %rdx,%rax
   10508:	48 6b d1 7b          	imul   $0x7b,%rcx,%rdx
   1050c:	48 01 c2             	add    %rax,%rdx
   1050f:	48 8d 05 ca 89 00 00 	lea    0x89ca(%rip),%rax        # 18ee0 <g_2411+0x20>
   10516:	48 01 d0             	add    %rdx,%rax
   10519:	0f b7 40 07          	movzwl 0x7(%rax),%eax
   1051d:	0f b7 c0             	movzwl %ax,%eax
   10520:	8b 55 fc             	mov    -0x4(%rbp),%edx
   10523:	48 8d 35 8a 23 00 00 	lea    0x238a(%rip),%rsi        # 128b4 <g_2577+0x184c>
   1052a:	48 89 c7             	mov    %rax,%rdi
   1052d:	e8 c1 41 ff ff       	callq  46f3 <transparent_crc>
   10532:	83 7d fc 00          	cmpl   $0x0,-0x4(%rbp)
   10536:	74 19                	je     10551 <main+0x2b60>
   10538:	8b 55 f4             	mov    -0xc(%rbp),%edx
   1053b:	8b 45 f0             	mov    -0x10(%rbp),%eax
   1053e:	89 c6                	mov    %eax,%esi
   10540:	48 8d 3d 82 19 00 00 	lea    0x1982(%rip),%rdi        # 11ec9 <g_2577+0xe61>
   10547:	b8 00 00 00 00       	mov    $0x0,%eax
   1054c:	e8 2f 2b ff ff       	callq  3080 <printf@plt>
   10551:	83 45 f4 01          	addl   $0x1,-0xc(%rbp)
   10555:	83 7d f4 02          	cmpl   $0x2,-0xc(%rbp)
   10559:	0f 8e 54 fd ff ff    	jle    102b3 <main+0x28c2>
   1055f:	83 45 f0 01          	addl   $0x1,-0x10(%rbp)
   10563:	83 7d f0 09          	cmpl   $0x9,-0x10(%rbp)
   10567:	0f 8e 3a fd ff ff    	jle    102a7 <main+0x28b6>
   1056d:	c7 45 f0 00 00 00 00 	movl   $0x0,-0x10(%rbp)
   10574:	eb 4b                	jmp    105c1 <main+0x2bd0>
   10576:	8b 45 f0             	mov    -0x10(%rbp),%eax
   10579:	48 98                	cltq   
   1057b:	48 8d 14 85 00 00 00 	lea    0x0(,%rax,4),%rdx
   10582:	00 
   10583:	48 8d 05 16 8e 00 00 	lea    0x8e16(%rip),%rax        # 193a0 <g_2525>
   1058a:	8b 04 02             	mov    (%rdx,%rax,1),%eax
   1058d:	48 98                	cltq   
   1058f:	8b 55 fc             	mov    -0x4(%rbp),%edx
   10592:	48 8d 35 2b 23 00 00 	lea    0x232b(%rip),%rsi        # 128c4 <g_2577+0x185c>
   10599:	48 89 c7             	mov    %rax,%rdi
   1059c:	e8 52 41 ff ff       	callq  46f3 <transparent_crc>
   105a1:	83 7d fc 00          	cmpl   $0x0,-0x4(%rbp)
   105a5:	74 16                	je     105bd <main+0x2bcc>
   105a7:	8b 45 f0             	mov    -0x10(%rbp),%eax
   105aa:	89 c6                	mov    %eax,%esi
   105ac:	48 8d 3d fd 18 00 00 	lea    0x18fd(%rip),%rdi        # 11eb0 <g_2577+0xe48>
   105b3:	b8 00 00 00 00       	mov    $0x0,%eax
   105b8:	e8 c3 2a ff ff       	callq  3080 <printf@plt>
   105bd:	83 45 f0 01          	addl   $0x1,-0x10(%rbp)
   105c1:	83 7d f0 08          	cmpl   $0x8,-0x10(%rbp)
   105c5:	7e af                	jle    10576 <main+0x2b85>
   105c7:	0f b6 05 f6 8d 00 00 	movzbl 0x8df6(%rip),%eax        # 193c4 <g_2548>
   105ce:	48 0f be c0          	movsbq %al,%rax
   105d2:	8b 55 fc             	mov    -0x4(%rbp),%edx
   105d5:	48 8d 35 f2 22 00 00 	lea    0x22f2(%rip),%rsi        # 128ce <g_2577+0x1866>
   105dc:	48 89 c7             	mov    %rax,%rdi
   105df:	e8 0f 41 ff ff       	callq  46f3 <transparent_crc>
   105e4:	48 8b 05 dd 8d 00 00 	mov    0x8ddd(%rip),%rax        # 193c8 <g_2557>
   105eb:	48 89 c1             	mov    %rax,%rcx
   105ee:	8b 45 fc             	mov    -0x4(%rbp),%eax
   105f1:	89 c2                	mov    %eax,%edx
   105f3:	48 8d 35 db 22 00 00 	lea    0x22db(%rip),%rsi        # 128d5 <g_2577+0x186d>
   105fa:	48 89 cf             	mov    %rcx,%rdi
   105fd:	e8 f1 40 ff ff       	callq  46f3 <transparent_crc>
   10602:	b8 01 00 00 00       	mov    $0x1,%eax
   10607:	48 98                	cltq   
   10609:	8b 55 fc             	mov    -0x4(%rbp),%edx
   1060c:	48 8d 35 c9 22 00 00 	lea    0x22c9(%rip),%rsi        # 128dc <g_2577+0x1874>
   10613:	48 89 c7             	mov    %rax,%rdi
   10616:	e8 d8 40 ff ff       	callq  46f3 <transparent_crc>
   1061b:	8b 05 ff 49 00 00    	mov    0x49ff(%rip),%eax        # 15020 <crc32_context>
   10621:	f7 d0                	not    %eax
   10623:	89 c2                	mov    %eax,%edx
   10625:	8b 45 fc             	mov    -0x4(%rbp),%eax
   10628:	89 c6                	mov    %eax,%esi
   1062a:	89 d7                	mov    %edx,%edi
   1062c:	e8 63 2b ff ff       	callq  3194 <platform_main_end>
   10631:	b8 00 00 00 00       	mov    $0x0,%eax
   10636:	c9                   	leaveq 
   10637:	c3                   	retq   
   10638:	0f 1f 84 00 00 00 00 	nopl   0x0(%rax,%rax,1)
   1063f:	00 

0000000000010640 <__libc_csu_init>:
   10640:	f3 0f 1e fa          	endbr64 
   10644:	41 57                	push   %r15
   10646:	4c 8d 3d a3 46 00 00 	lea    0x46a3(%rip),%r15        # 14cf0 <__frame_dummy_init_array_entry>
   1064d:	41 56                	push   %r14
   1064f:	49 89 d6             	mov    %rdx,%r14
   10652:	41 55                	push   %r13
   10654:	49 89 f5             	mov    %rsi,%r13
   10657:	41 54                	push   %r12
   10659:	41 89 fc             	mov    %edi,%r12d
   1065c:	55                   	push   %rbp
   1065d:	48 8d 2d 94 46 00 00 	lea    0x4694(%rip),%rbp        # 14cf8 <__do_global_dtors_aux_fini_array_entry>
   10664:	53                   	push   %rbx
   10665:	4c 29 fd             	sub    %r15,%rbp
   10668:	48 83 ec 08          	sub    $0x8,%rsp
   1066c:	e8 8f 29 ff ff       	callq  3000 <_init>
   10671:	48 c1 fd 03          	sar    $0x3,%rbp
   10675:	74 1f                	je     10696 <__libc_csu_init+0x56>
   10677:	31 db                	xor    %ebx,%ebx
   10679:	0f 1f 80 00 00 00 00 	nopl   0x0(%rax)
   10680:	4c 89 f2             	mov    %r14,%rdx
   10683:	4c 89 ee             	mov    %r13,%rsi
   10686:	44 89 e7             	mov    %r12d,%edi
   10689:	41 ff 14 df          	callq  *(%r15,%rbx,8)
   1068d:	48 83 c3 01          	add    $0x1,%rbx
   10691:	48 39 dd             	cmp    %rbx,%rbp
   10694:	75 ea                	jne    10680 <__libc_csu_init+0x40>
   10696:	48 83 c4 08          	add    $0x8,%rsp
   1069a:	5b                   	pop    %rbx
   1069b:	5d                   	pop    %rbp
   1069c:	41 5c                	pop    %r12
   1069e:	41 5d                	pop    %r13
   106a0:	41 5e                	pop    %r14
   106a2:	41 5f                	pop    %r15
   106a4:	c3                   	retq   
   106a5:	66 66 2e 0f 1f 84 00 	data16 nopw %cs:0x0(%rax,%rax,1)
   106ac:	00 00 00 00 

00000000000106b0 <__libc_csu_fini>:
   106b0:	f3 0f 1e fa          	endbr64 
   106b4:	c3                   	retq   
