


Disassembly of section .text:

000000000000a0a0 <_start>:
    a0a0:	f3 0f 1e fa          	endbr64 
    a0a4:	31 ed                	xor    %ebp,%ebp
    a0a6:	49 89 d1             	mov    %rdx,%r9
    a0a9:	5e                   	pop    %rsi
    a0aa:	48 89 e2             	mov    %rsp,%rdx
    a0ad:	48 83 e4 f0          	and    $0xfffffffffffffff0,%rsp
    a0b1:	50                   	push   %rax
    a0b2:	54                   	push   %rsp
    a0b3:	4c 8d 05 66 37 01 00 	lea    0x13766(%rip),%r8        # 1d820 <__libc_csu_fini>
    a0ba:	48 8d 0d ef 36 01 00 	lea    0x136ef(%rip),%rcx        # 1d7b0 <__libc_csu_init>
    a0c1:	48 8d 3d 0e 10 01 00 	lea    0x1100e(%rip),%rdi        # 1b0d6 <main>
    a0c8:	ff 15 fa 9e 01 00    	callq  *0x19efa(%rip)        # 23fc8 <__libc_start_main@GLIBC_2.2.5>
    a0ce:	f4                   	hlt    
    a0cf:	90                   	nop

000000000000a0d0 <deregister_tm_clones>:
    a0d0:	48 8d 3d f9 f9 01 00 	lea    0x1f9f9(%rip),%rdi        # 29ad0 <__TMC_END__>
    a0d7:	48 8d 05 f2 f9 01 00 	lea    0x1f9f2(%rip),%rax        # 29ad0 <__TMC_END__>
    a0de:	48 39 f8             	cmp    %rdi,%rax
    a0e1:	74 15                	je     a0f8 <deregister_tm_clones+0x28>
    a0e3:	48 8b 05 d6 9e 01 00 	mov    0x19ed6(%rip),%rax        # 23fc0 <_ITM_deregisterTMCloneTable>
    a0ea:	48 85 c0             	test   %rax,%rax
    a0ed:	74 09                	je     a0f8 <deregister_tm_clones+0x28>
    a0ef:	ff e0                	jmpq   *%rax
    a0f1:	0f 1f 80 00 00 00 00 	nopl   0x0(%rax)
    a0f8:	c3                   	retq   
    a0f9:	0f 1f 80 00 00 00 00 	nopl   0x0(%rax)

000000000000a100 <register_tm_clones>:
    a100:	48 8d 3d c9 f9 01 00 	lea    0x1f9c9(%rip),%rdi        # 29ad0 <__TMC_END__>
    a107:	48 8d 35 c2 f9 01 00 	lea    0x1f9c2(%rip),%rsi        # 29ad0 <__TMC_END__>
    a10e:	48 29 fe             	sub    %rdi,%rsi
    a111:	48 89 f0             	mov    %rsi,%rax
    a114:	48 c1 ee 3f          	shr    $0x3f,%rsi
    a118:	48 c1 f8 03          	sar    $0x3,%rax
    a11c:	48 01 c6             	add    %rax,%rsi
    a11f:	48 d1 fe             	sar    %rsi
    a122:	74 14                	je     a138 <register_tm_clones+0x38>
    a124:	48 8b 05 ad 9e 01 00 	mov    0x19ead(%rip),%rax        # 23fd8 <_ITM_registerTMCloneTable>
    a12b:	48 85 c0             	test   %rax,%rax
    a12e:	74 08                	je     a138 <register_tm_clones+0x38>
    a130:	ff e0                	jmpq   *%rax
    a132:	66 0f 1f 44 00 00    	nopw   0x0(%rax,%rax,1)
    a138:	c3                   	retq   
    a139:	0f 1f 80 00 00 00 00 	nopl   0x0(%rax)

000000000000a140 <__do_global_dtors_aux>:
    a140:	f3 0f 1e fa          	endbr64 
    a144:	80 3d 95 f9 01 00 00 	cmpb   $0x0,0x1f995(%rip)        # 29ae0 <completed.8061>
    a14b:	75 2b                	jne    a178 <__do_global_dtors_aux+0x38>
    a14d:	55                   	push   %rbp
    a14e:	48 83 3d 8a 9e 01 00 	cmpq   $0x0,0x19e8a(%rip)        # 23fe0 <__cxa_finalize@GLIBC_2.2.5>
    a155:	00 
    a156:	48 89 e5             	mov    %rsp,%rbp
    a159:	74 0c                	je     a167 <__do_global_dtors_aux+0x27>
    a15b:	48 8b 3d a6 9e 01 00 	mov    0x19ea6(%rip),%rdi        # 24008 <__dso_handle>
    a162:	e8 f9 fe ff ff       	callq  a060 <__cxa_finalize@plt>
    a167:	e8 64 ff ff ff       	callq  a0d0 <deregister_tm_clones>
    a16c:	c6 05 6d f9 01 00 01 	movb   $0x1,0x1f96d(%rip)        # 29ae0 <completed.8061>
    a173:	5d                   	pop    %rbp
    a174:	c3                   	retq   
    a175:	0f 1f 00             	nopl   (%rax)
    a178:	c3                   	retq   
    a179:	0f 1f 80 00 00 00 00 	nopl   0x0(%rax)

000000000000a180 <frame_dummy>:
    a180:	f3 0f 1e fa          	endbr64 
    a184:	e9 77 ff ff ff       	jmpq   a100 <register_tm_clones>

000000000000a189 <platform_main_begin>:
    a189:	f3 0f 1e fa          	endbr64 
    a18d:	55                   	push   %rbp
    a18e:	48 89 e5             	mov    %rsp,%rbp
    a191:	90                   	nop
    a192:	5d                   	pop    %rbp
    a193:	c3                   	retq   

000000000000a194 <platform_main_end>:
    a194:	f3 0f 1e fa          	endbr64 
    a198:	55                   	push   %rbp
    a199:	48 89 e5             	mov    %rsp,%rbp
    a19c:	48 83 ec 10          	sub    $0x10,%rsp
    a1a0:	89 7d fc             	mov    %edi,-0x4(%rbp)
    a1a3:	89 75 f8             	mov    %esi,-0x8(%rbp)
    a1a6:	8b 45 fc             	mov    -0x4(%rbp),%eax
    a1a9:	89 c6                	mov    %eax,%esi
    a1ab:	48 8d 3d 6e 3e 01 00 	lea    0x13e6e(%rip),%rdi        # 1e020 <_IO_stdin_used+0x20>
    a1b2:	b8 00 00 00 00       	mov    $0x0,%eax
    a1b7:	e8 c4 fe ff ff       	callq  a080 <printf@plt>
    a1bc:	90                   	nop
    a1bd:	c9                   	leaveq 
    a1be:	c3                   	retq   

000000000000a1bf <safe_unary_minus_func_int8_t_s>:
    a1bf:	f3 0f 1e fa          	endbr64 
    a1c3:	55                   	push   %rbp
    a1c4:	48 89 e5             	mov    %rsp,%rbp
    a1c7:	89 f8                	mov    %edi,%eax
    a1c9:	88 45 fc             	mov    %al,-0x4(%rbp)
    a1cc:	0f b6 45 fc          	movzbl -0x4(%rbp),%eax
    a1d0:	f7 d8                	neg    %eax
    a1d2:	5d                   	pop    %rbp
    a1d3:	c3                   	retq   

000000000000a1d4 <safe_add_func_int8_t_s_s>:
    a1d4:	f3 0f 1e fa          	endbr64 
    a1d8:	55                   	push   %rbp
    a1d9:	48 89 e5             	mov    %rsp,%rbp
    a1dc:	89 fa                	mov    %edi,%edx
    a1de:	89 f0                	mov    %esi,%eax
    a1e0:	88 55 fc             	mov    %dl,-0x4(%rbp)
    a1e3:	88 45 f8             	mov    %al,-0x8(%rbp)
    a1e6:	0f b6 55 fc          	movzbl -0x4(%rbp),%edx
    a1ea:	0f b6 45 f8          	movzbl -0x8(%rbp),%eax
    a1ee:	01 d0                	add    %edx,%eax
    a1f0:	5d                   	pop    %rbp
    a1f1:	c3                   	retq   

000000000000a1f2 <safe_sub_func_int8_t_s_s>:
    a1f2:	f3 0f 1e fa          	endbr64 
    a1f6:	55                   	push   %rbp
    a1f7:	48 89 e5             	mov    %rsp,%rbp
    a1fa:	89 fa                	mov    %edi,%edx
    a1fc:	89 f0                	mov    %esi,%eax
    a1fe:	88 55 fc             	mov    %dl,-0x4(%rbp)
    a201:	88 45 f8             	mov    %al,-0x8(%rbp)
    a204:	0f b6 55 fc          	movzbl -0x4(%rbp),%edx
    a208:	0f b6 45 f8          	movzbl -0x8(%rbp),%eax
    a20c:	29 c2                	sub    %eax,%edx
    a20e:	89 d0                	mov    %edx,%eax
    a210:	5d                   	pop    %rbp
    a211:	c3                   	retq   

000000000000a212 <safe_mul_func_int8_t_s_s>:
    a212:	f3 0f 1e fa          	endbr64 
    a216:	55                   	push   %rbp
    a217:	48 89 e5             	mov    %rsp,%rbp
    a21a:	89 fa                	mov    %edi,%edx
    a21c:	89 f0                	mov    %esi,%eax
    a21e:	88 55 fc             	mov    %dl,-0x4(%rbp)
    a221:	88 45 f8             	mov    %al,-0x8(%rbp)
    a224:	0f b6 45 fc          	movzbl -0x4(%rbp),%eax
    a228:	0f b6 55 f8          	movzbl -0x8(%rbp),%edx
    a22c:	0f af c2             	imul   %edx,%eax
    a22f:	5d                   	pop    %rbp
    a230:	c3                   	retq   

000000000000a231 <safe_mod_func_int8_t_s_s>:
    a231:	f3 0f 1e fa          	endbr64 
    a235:	55                   	push   %rbp
    a236:	48 89 e5             	mov    %rsp,%rbp
    a239:	89 fa                	mov    %edi,%edx
    a23b:	89 f0                	mov    %esi,%eax
    a23d:	88 55 fc             	mov    %dl,-0x4(%rbp)
    a240:	88 45 f8             	mov    %al,-0x8(%rbp)
    a243:	80 7d f8 00          	cmpb   $0x0,-0x8(%rbp)
    a247:	74 1b                	je     a264 <safe_mod_func_int8_t_s_s+0x33>
    a249:	80 7d fc 80          	cmpb   $0x80,-0x4(%rbp)
    a24d:	75 06                	jne    a255 <safe_mod_func_int8_t_s_s+0x24>
    a24f:	80 7d f8 ff          	cmpb   $0xff,-0x8(%rbp)
    a253:	74 0f                	je     a264 <safe_mod_func_int8_t_s_s+0x33>
    a255:	0f be 45 fc          	movsbl -0x4(%rbp),%eax
    a259:	0f be 4d f8          	movsbl -0x8(%rbp),%ecx
    a25d:	99                   	cltd   
    a25e:	f7 f9                	idiv   %ecx
    a260:	89 d0                	mov    %edx,%eax
    a262:	eb 04                	jmp    a268 <safe_mod_func_int8_t_s_s+0x37>
    a264:	0f b6 45 fc          	movzbl -0x4(%rbp),%eax
    a268:	5d                   	pop    %rbp
    a269:	c3                   	retq   

000000000000a26a <safe_div_func_int8_t_s_s>:
    a26a:	f3 0f 1e fa          	endbr64 
    a26e:	55                   	push   %rbp
    a26f:	48 89 e5             	mov    %rsp,%rbp
    a272:	89 fa                	mov    %edi,%edx
    a274:	89 f0                	mov    %esi,%eax
    a276:	88 55 fc             	mov    %dl,-0x4(%rbp)
    a279:	88 45 f8             	mov    %al,-0x8(%rbp)
    a27c:	80 7d f8 00          	cmpb   $0x0,-0x8(%rbp)
    a280:	74 19                	je     a29b <safe_div_func_int8_t_s_s+0x31>
    a282:	80 7d fc 80          	cmpb   $0x80,-0x4(%rbp)
    a286:	75 06                	jne    a28e <safe_div_func_int8_t_s_s+0x24>
    a288:	80 7d f8 ff          	cmpb   $0xff,-0x8(%rbp)
    a28c:	74 0d                	je     a29b <safe_div_func_int8_t_s_s+0x31>
    a28e:	0f be 45 fc          	movsbl -0x4(%rbp),%eax
    a292:	0f be 4d f8          	movsbl -0x8(%rbp),%ecx
    a296:	99                   	cltd   
    a297:	f7 f9                	idiv   %ecx
    a299:	eb 04                	jmp    a29f <safe_div_func_int8_t_s_s+0x35>
    a29b:	0f b6 45 fc          	movzbl -0x4(%rbp),%eax
    a29f:	5d                   	pop    %rbp
    a2a0:	c3                   	retq   

000000000000a2a1 <safe_lshift_func_int8_t_s_s>:
    a2a1:	f3 0f 1e fa          	endbr64 
    a2a5:	55                   	push   %rbp
    a2a6:	48 89 e5             	mov    %rsp,%rbp
    a2a9:	89 f8                	mov    %edi,%eax
    a2ab:	89 75 f8             	mov    %esi,-0x8(%rbp)
    a2ae:	88 45 fc             	mov    %al,-0x4(%rbp)
    a2b1:	80 7d fc 00          	cmpb   $0x0,-0x4(%rbp)
    a2b5:	78 31                	js     a2e8 <safe_lshift_func_int8_t_s_s+0x47>
    a2b7:	83 7d f8 00          	cmpl   $0x0,-0x8(%rbp)
    a2bb:	78 2b                	js     a2e8 <safe_lshift_func_int8_t_s_s+0x47>
    a2bd:	83 7d f8 1f          	cmpl   $0x1f,-0x8(%rbp)
    a2c1:	7f 25                	jg     a2e8 <safe_lshift_func_int8_t_s_s+0x47>
    a2c3:	0f be 55 fc          	movsbl -0x4(%rbp),%edx
    a2c7:	8b 45 f8             	mov    -0x8(%rbp),%eax
    a2ca:	be 7f 00 00 00       	mov    $0x7f,%esi
    a2cf:	89 c1                	mov    %eax,%ecx
    a2d1:	d3 fe                	sar    %cl,%esi
    a2d3:	89 f0                	mov    %esi,%eax
    a2d5:	39 c2                	cmp    %eax,%edx
    a2d7:	7f 0f                	jg     a2e8 <safe_lshift_func_int8_t_s_s+0x47>
    a2d9:	0f be 55 fc          	movsbl -0x4(%rbp),%edx
    a2dd:	8b 45 f8             	mov    -0x8(%rbp),%eax
    a2e0:	89 c1                	mov    %eax,%ecx
    a2e2:	d3 e2                	shl    %cl,%edx
    a2e4:	89 d0                	mov    %edx,%eax
    a2e6:	eb 04                	jmp    a2ec <safe_lshift_func_int8_t_s_s+0x4b>
    a2e8:	0f b6 45 fc          	movzbl -0x4(%rbp),%eax
    a2ec:	5d                   	pop    %rbp
    a2ed:	c3                   	retq   

000000000000a2ee <safe_lshift_func_int8_t_s_u>:
    a2ee:	f3 0f 1e fa          	endbr64 
    a2f2:	55                   	push   %rbp
    a2f3:	48 89 e5             	mov    %rsp,%rbp
    a2f6:	89 f8                	mov    %edi,%eax
    a2f8:	89 75 f8             	mov    %esi,-0x8(%rbp)
    a2fb:	88 45 fc             	mov    %al,-0x4(%rbp)
    a2fe:	80 7d fc 00          	cmpb   $0x0,-0x4(%rbp)
    a302:	78 2b                	js     a32f <safe_lshift_func_int8_t_s_u+0x41>
    a304:	83 7d f8 1f          	cmpl   $0x1f,-0x8(%rbp)
    a308:	77 25                	ja     a32f <safe_lshift_func_int8_t_s_u+0x41>
    a30a:	0f be 55 fc          	movsbl -0x4(%rbp),%edx
    a30e:	8b 45 f8             	mov    -0x8(%rbp),%eax
    a311:	be 7f 00 00 00       	mov    $0x7f,%esi
    a316:	89 c1                	mov    %eax,%ecx
    a318:	d3 fe                	sar    %cl,%esi
    a31a:	89 f0                	mov    %esi,%eax
    a31c:	39 c2                	cmp    %eax,%edx
    a31e:	7f 0f                	jg     a32f <safe_lshift_func_int8_t_s_u+0x41>
    a320:	0f be 55 fc          	movsbl -0x4(%rbp),%edx
    a324:	8b 45 f8             	mov    -0x8(%rbp),%eax
    a327:	89 c1                	mov    %eax,%ecx
    a329:	d3 e2                	shl    %cl,%edx
    a32b:	89 d0                	mov    %edx,%eax
    a32d:	eb 04                	jmp    a333 <safe_lshift_func_int8_t_s_u+0x45>
    a32f:	0f b6 45 fc          	movzbl -0x4(%rbp),%eax
    a333:	5d                   	pop    %rbp
    a334:	c3                   	retq   

000000000000a335 <safe_rshift_func_int8_t_s_s>:
    a335:	f3 0f 1e fa          	endbr64 
    a339:	55                   	push   %rbp
    a33a:	48 89 e5             	mov    %rsp,%rbp
    a33d:	89 f8                	mov    %edi,%eax
    a33f:	89 75 f8             	mov    %esi,-0x8(%rbp)
    a342:	88 45 fc             	mov    %al,-0x4(%rbp)
    a345:	80 7d fc 00          	cmpb   $0x0,-0x4(%rbp)
    a349:	78 1b                	js     a366 <safe_rshift_func_int8_t_s_s+0x31>
    a34b:	83 7d f8 00          	cmpl   $0x0,-0x8(%rbp)
    a34f:	78 15                	js     a366 <safe_rshift_func_int8_t_s_s+0x31>
    a351:	83 7d f8 1f          	cmpl   $0x1f,-0x8(%rbp)
    a355:	7f 0f                	jg     a366 <safe_rshift_func_int8_t_s_s+0x31>
    a357:	0f be 55 fc          	movsbl -0x4(%rbp),%edx
    a35b:	8b 45 f8             	mov    -0x8(%rbp),%eax
    a35e:	89 c1                	mov    %eax,%ecx
    a360:	d3 fa                	sar    %cl,%edx
    a362:	89 d0                	mov    %edx,%eax
    a364:	eb 04                	jmp    a36a <safe_rshift_func_int8_t_s_s+0x35>
    a366:	0f b6 45 fc          	movzbl -0x4(%rbp),%eax
    a36a:	5d                   	pop    %rbp
    a36b:	c3                   	retq   

000000000000a36c <safe_rshift_func_int8_t_s_u>:
    a36c:	f3 0f 1e fa          	endbr64 
    a370:	55                   	push   %rbp
    a371:	48 89 e5             	mov    %rsp,%rbp
    a374:	89 f8                	mov    %edi,%eax
    a376:	89 75 f8             	mov    %esi,-0x8(%rbp)
    a379:	88 45 fc             	mov    %al,-0x4(%rbp)
    a37c:	80 7d fc 00          	cmpb   $0x0,-0x4(%rbp)
    a380:	78 15                	js     a397 <safe_rshift_func_int8_t_s_u+0x2b>
    a382:	83 7d f8 1f          	cmpl   $0x1f,-0x8(%rbp)
    a386:	77 0f                	ja     a397 <safe_rshift_func_int8_t_s_u+0x2b>
    a388:	0f be 55 fc          	movsbl -0x4(%rbp),%edx
    a38c:	8b 45 f8             	mov    -0x8(%rbp),%eax
    a38f:	89 c1                	mov    %eax,%ecx
    a391:	d3 fa                	sar    %cl,%edx
    a393:	89 d0                	mov    %edx,%eax
    a395:	eb 04                	jmp    a39b <safe_rshift_func_int8_t_s_u+0x2f>
    a397:	0f b6 45 fc          	movzbl -0x4(%rbp),%eax
    a39b:	5d                   	pop    %rbp
    a39c:	c3                   	retq   

000000000000a39d <safe_unary_minus_func_int16_t_s>:
    a39d:	f3 0f 1e fa          	endbr64 
    a3a1:	55                   	push   %rbp
    a3a2:	48 89 e5             	mov    %rsp,%rbp
    a3a5:	89 f8                	mov    %edi,%eax
    a3a7:	66 89 45 fc          	mov    %ax,-0x4(%rbp)
    a3ab:	0f b7 45 fc          	movzwl -0x4(%rbp),%eax
    a3af:	f7 d8                	neg    %eax
    a3b1:	5d                   	pop    %rbp
    a3b2:	c3                   	retq   

000000000000a3b3 <safe_add_func_int16_t_s_s>:
    a3b3:	f3 0f 1e fa          	endbr64 
    a3b7:	55                   	push   %rbp
    a3b8:	48 89 e5             	mov    %rsp,%rbp
    a3bb:	89 fa                	mov    %edi,%edx
    a3bd:	89 f0                	mov    %esi,%eax
    a3bf:	66 89 55 fc          	mov    %dx,-0x4(%rbp)
    a3c3:	66 89 45 f8          	mov    %ax,-0x8(%rbp)
    a3c7:	0f b7 55 fc          	movzwl -0x4(%rbp),%edx
    a3cb:	0f b7 45 f8          	movzwl -0x8(%rbp),%eax
    a3cf:	01 d0                	add    %edx,%eax
    a3d1:	5d                   	pop    %rbp
    a3d2:	c3                   	retq   

000000000000a3d3 <safe_sub_func_int16_t_s_s>:
    a3d3:	f3 0f 1e fa          	endbr64 
    a3d7:	55                   	push   %rbp
    a3d8:	48 89 e5             	mov    %rsp,%rbp
    a3db:	89 fa                	mov    %edi,%edx
    a3dd:	89 f0                	mov    %esi,%eax
    a3df:	66 89 55 fc          	mov    %dx,-0x4(%rbp)
    a3e3:	66 89 45 f8          	mov    %ax,-0x8(%rbp)
    a3e7:	0f b7 55 fc          	movzwl -0x4(%rbp),%edx
    a3eb:	0f b7 45 f8          	movzwl -0x8(%rbp),%eax
    a3ef:	29 c2                	sub    %eax,%edx
    a3f1:	89 d0                	mov    %edx,%eax
    a3f3:	5d                   	pop    %rbp
    a3f4:	c3                   	retq   

000000000000a3f5 <safe_mul_func_int16_t_s_s>:
    a3f5:	f3 0f 1e fa          	endbr64 
    a3f9:	55                   	push   %rbp
    a3fa:	48 89 e5             	mov    %rsp,%rbp
    a3fd:	89 fa                	mov    %edi,%edx
    a3ff:	89 f0                	mov    %esi,%eax
    a401:	66 89 55 fc          	mov    %dx,-0x4(%rbp)
    a405:	66 89 45 f8          	mov    %ax,-0x8(%rbp)
    a409:	0f b7 55 fc          	movzwl -0x4(%rbp),%edx
    a40d:	0f b7 45 f8          	movzwl -0x8(%rbp),%eax
    a411:	0f af c2             	imul   %edx,%eax
    a414:	5d                   	pop    %rbp
    a415:	c3                   	retq   

000000000000a416 <safe_mod_func_int16_t_s_s>:
    a416:	f3 0f 1e fa          	endbr64 
    a41a:	55                   	push   %rbp
    a41b:	48 89 e5             	mov    %rsp,%rbp
    a41e:	89 fa                	mov    %edi,%edx
    a420:	89 f0                	mov    %esi,%eax
    a422:	66 89 55 fc          	mov    %dx,-0x4(%rbp)
    a426:	66 89 45 f8          	mov    %ax,-0x8(%rbp)
    a42a:	66 83 7d f8 00       	cmpw   $0x0,-0x8(%rbp)
    a42f:	74 1e                	je     a44f <safe_mod_func_int16_t_s_s+0x39>
    a431:	66 81 7d fc 00 80    	cmpw   $0x8000,-0x4(%rbp)
    a437:	75 07                	jne    a440 <safe_mod_func_int16_t_s_s+0x2a>
    a439:	66 83 7d f8 ff       	cmpw   $0xffff,-0x8(%rbp)
    a43e:	74 0f                	je     a44f <safe_mod_func_int16_t_s_s+0x39>
    a440:	0f bf 45 fc          	movswl -0x4(%rbp),%eax
    a444:	0f bf 4d f8          	movswl -0x8(%rbp),%ecx
    a448:	99                   	cltd   
    a449:	f7 f9                	idiv   %ecx
    a44b:	89 d0                	mov    %edx,%eax
    a44d:	eb 04                	jmp    a453 <safe_mod_func_int16_t_s_s+0x3d>
    a44f:	0f b7 45 fc          	movzwl -0x4(%rbp),%eax
    a453:	5d                   	pop    %rbp
    a454:	c3                   	retq   

000000000000a455 <safe_div_func_int16_t_s_s>:
    a455:	f3 0f 1e fa          	endbr64 
    a459:	55                   	push   %rbp
    a45a:	48 89 e5             	mov    %rsp,%rbp
    a45d:	89 fa                	mov    %edi,%edx
    a45f:	89 f0                	mov    %esi,%eax
    a461:	66 89 55 fc          	mov    %dx,-0x4(%rbp)
    a465:	66 89 45 f8          	mov    %ax,-0x8(%rbp)
    a469:	66 83 7d f8 00       	cmpw   $0x0,-0x8(%rbp)
    a46e:	74 1c                	je     a48c <safe_div_func_int16_t_s_s+0x37>
    a470:	66 81 7d fc 00 80    	cmpw   $0x8000,-0x4(%rbp)
    a476:	75 07                	jne    a47f <safe_div_func_int16_t_s_s+0x2a>
    a478:	66 83 7d f8 ff       	cmpw   $0xffff,-0x8(%rbp)
    a47d:	74 0d                	je     a48c <safe_div_func_int16_t_s_s+0x37>
    a47f:	0f bf 45 fc          	movswl -0x4(%rbp),%eax
    a483:	0f bf 4d f8          	movswl -0x8(%rbp),%ecx
    a487:	99                   	cltd   
    a488:	f7 f9                	idiv   %ecx
    a48a:	eb 04                	jmp    a490 <safe_div_func_int16_t_s_s+0x3b>
    a48c:	0f b7 45 fc          	movzwl -0x4(%rbp),%eax
    a490:	5d                   	pop    %rbp
    a491:	c3                   	retq   

000000000000a492 <safe_lshift_func_int16_t_s_s>:
    a492:	f3 0f 1e fa          	endbr64 
    a496:	55                   	push   %rbp
    a497:	48 89 e5             	mov    %rsp,%rbp
    a49a:	89 f8                	mov    %edi,%eax
    a49c:	89 75 f8             	mov    %esi,-0x8(%rbp)
    a49f:	66 89 45 fc          	mov    %ax,-0x4(%rbp)
    a4a3:	66 83 7d fc 00       	cmpw   $0x0,-0x4(%rbp)
    a4a8:	78 31                	js     a4db <safe_lshift_func_int16_t_s_s+0x49>
    a4aa:	83 7d f8 00          	cmpl   $0x0,-0x8(%rbp)
    a4ae:	78 2b                	js     a4db <safe_lshift_func_int16_t_s_s+0x49>
    a4b0:	83 7d f8 1f          	cmpl   $0x1f,-0x8(%rbp)
    a4b4:	7f 25                	jg     a4db <safe_lshift_func_int16_t_s_s+0x49>
    a4b6:	0f bf 55 fc          	movswl -0x4(%rbp),%edx
    a4ba:	8b 45 f8             	mov    -0x8(%rbp),%eax
    a4bd:	be ff 7f 00 00       	mov    $0x7fff,%esi
    a4c2:	89 c1                	mov    %eax,%ecx
    a4c4:	d3 fe                	sar    %cl,%esi
    a4c6:	89 f0                	mov    %esi,%eax
    a4c8:	39 c2                	cmp    %eax,%edx
    a4ca:	7f 0f                	jg     a4db <safe_lshift_func_int16_t_s_s+0x49>
    a4cc:	0f bf 55 fc          	movswl -0x4(%rbp),%edx
    a4d0:	8b 45 f8             	mov    -0x8(%rbp),%eax
    a4d3:	89 c1                	mov    %eax,%ecx
    a4d5:	d3 e2                	shl    %cl,%edx
    a4d7:	89 d0                	mov    %edx,%eax
    a4d9:	eb 04                	jmp    a4df <safe_lshift_func_int16_t_s_s+0x4d>
    a4db:	0f b7 45 fc          	movzwl -0x4(%rbp),%eax
    a4df:	5d                   	pop    %rbp
    a4e0:	c3                   	retq   

000000000000a4e1 <safe_lshift_func_int16_t_s_u>:
    a4e1:	f3 0f 1e fa          	endbr64 
    a4e5:	55                   	push   %rbp
    a4e6:	48 89 e5             	mov    %rsp,%rbp
    a4e9:	89 f8                	mov    %edi,%eax
    a4eb:	89 75 f8             	mov    %esi,-0x8(%rbp)
    a4ee:	66 89 45 fc          	mov    %ax,-0x4(%rbp)
    a4f2:	66 83 7d fc 00       	cmpw   $0x0,-0x4(%rbp)
    a4f7:	78 2b                	js     a524 <safe_lshift_func_int16_t_s_u+0x43>
    a4f9:	83 7d f8 1f          	cmpl   $0x1f,-0x8(%rbp)
    a4fd:	77 25                	ja     a524 <safe_lshift_func_int16_t_s_u+0x43>
    a4ff:	0f bf 55 fc          	movswl -0x4(%rbp),%edx
    a503:	8b 45 f8             	mov    -0x8(%rbp),%eax
    a506:	be ff 7f 00 00       	mov    $0x7fff,%esi
    a50b:	89 c1                	mov    %eax,%ecx
    a50d:	d3 fe                	sar    %cl,%esi
    a50f:	89 f0                	mov    %esi,%eax
    a511:	39 c2                	cmp    %eax,%edx
    a513:	7f 0f                	jg     a524 <safe_lshift_func_int16_t_s_u+0x43>
    a515:	0f bf 55 fc          	movswl -0x4(%rbp),%edx
    a519:	8b 45 f8             	mov    -0x8(%rbp),%eax
    a51c:	89 c1                	mov    %eax,%ecx
    a51e:	d3 e2                	shl    %cl,%edx
    a520:	89 d0                	mov    %edx,%eax
    a522:	eb 04                	jmp    a528 <safe_lshift_func_int16_t_s_u+0x47>
    a524:	0f b7 45 fc          	movzwl -0x4(%rbp),%eax
    a528:	5d                   	pop    %rbp
    a529:	c3                   	retq   

000000000000a52a <safe_rshift_func_int16_t_s_s>:
    a52a:	f3 0f 1e fa          	endbr64 
    a52e:	55                   	push   %rbp
    a52f:	48 89 e5             	mov    %rsp,%rbp
    a532:	89 f8                	mov    %edi,%eax
    a534:	89 75 f8             	mov    %esi,-0x8(%rbp)
    a537:	66 89 45 fc          	mov    %ax,-0x4(%rbp)
    a53b:	66 83 7d fc 00       	cmpw   $0x0,-0x4(%rbp)
    a540:	78 1b                	js     a55d <safe_rshift_func_int16_t_s_s+0x33>
    a542:	83 7d f8 00          	cmpl   $0x0,-0x8(%rbp)
    a546:	78 15                	js     a55d <safe_rshift_func_int16_t_s_s+0x33>
    a548:	83 7d f8 1f          	cmpl   $0x1f,-0x8(%rbp)
    a54c:	7f 0f                	jg     a55d <safe_rshift_func_int16_t_s_s+0x33>
    a54e:	0f bf 55 fc          	movswl -0x4(%rbp),%edx
    a552:	8b 45 f8             	mov    -0x8(%rbp),%eax
    a555:	89 c1                	mov    %eax,%ecx
    a557:	d3 fa                	sar    %cl,%edx
    a559:	89 d0                	mov    %edx,%eax
    a55b:	eb 04                	jmp    a561 <safe_rshift_func_int16_t_s_s+0x37>
    a55d:	0f b7 45 fc          	movzwl -0x4(%rbp),%eax
    a561:	5d                   	pop    %rbp
    a562:	c3                   	retq   

000000000000a563 <safe_rshift_func_int16_t_s_u>:
    a563:	f3 0f 1e fa          	endbr64 
    a567:	55                   	push   %rbp
    a568:	48 89 e5             	mov    %rsp,%rbp
    a56b:	89 f8                	mov    %edi,%eax
    a56d:	89 75 f8             	mov    %esi,-0x8(%rbp)
    a570:	66 89 45 fc          	mov    %ax,-0x4(%rbp)
    a574:	66 83 7d fc 00       	cmpw   $0x0,-0x4(%rbp)
    a579:	78 15                	js     a590 <safe_rshift_func_int16_t_s_u+0x2d>
    a57b:	83 7d f8 1f          	cmpl   $0x1f,-0x8(%rbp)
    a57f:	77 0f                	ja     a590 <safe_rshift_func_int16_t_s_u+0x2d>
    a581:	0f bf 55 fc          	movswl -0x4(%rbp),%edx
    a585:	8b 45 f8             	mov    -0x8(%rbp),%eax
    a588:	89 c1                	mov    %eax,%ecx
    a58a:	d3 fa                	sar    %cl,%edx
    a58c:	89 d0                	mov    %edx,%eax
    a58e:	eb 04                	jmp    a594 <safe_rshift_func_int16_t_s_u+0x31>
    a590:	0f b7 45 fc          	movzwl -0x4(%rbp),%eax
    a594:	5d                   	pop    %rbp
    a595:	c3                   	retq   

000000000000a596 <safe_unary_minus_func_int32_t_s>:
    a596:	f3 0f 1e fa          	endbr64 
    a59a:	55                   	push   %rbp
    a59b:	48 89 e5             	mov    %rsp,%rbp
    a59e:	89 7d fc             	mov    %edi,-0x4(%rbp)
    a5a1:	81 7d fc 00 00 00 80 	cmpl   $0x80000000,-0x4(%rbp)
    a5a8:	74 07                	je     a5b1 <safe_unary_minus_func_int32_t_s+0x1b>
    a5aa:	8b 45 fc             	mov    -0x4(%rbp),%eax
    a5ad:	f7 d8                	neg    %eax
    a5af:	eb 03                	jmp    a5b4 <safe_unary_minus_func_int32_t_s+0x1e>
    a5b1:	8b 45 fc             	mov    -0x4(%rbp),%eax
    a5b4:	5d                   	pop    %rbp
    a5b5:	c3                   	retq   

000000000000a5b6 <safe_add_func_int32_t_s_s>:
    a5b6:	f3 0f 1e fa          	endbr64 
    a5ba:	55                   	push   %rbp
    a5bb:	48 89 e5             	mov    %rsp,%rbp
    a5be:	89 7d fc             	mov    %edi,-0x4(%rbp)
    a5c1:	89 75 f8             	mov    %esi,-0x8(%rbp)
    a5c4:	83 7d fc 00          	cmpl   $0x0,-0x4(%rbp)
    a5c8:	7e 13                	jle    a5dd <safe_add_func_int32_t_s_s+0x27>
    a5ca:	83 7d f8 00          	cmpl   $0x0,-0x8(%rbp)
    a5ce:	7e 0d                	jle    a5dd <safe_add_func_int32_t_s_s+0x27>
    a5d0:	b8 ff ff ff 7f       	mov    $0x7fffffff,%eax
    a5d5:	2b 45 f8             	sub    -0x8(%rbp),%eax
    a5d8:	39 45 fc             	cmp    %eax,-0x4(%rbp)
    a5db:	7f 23                	jg     a600 <safe_add_func_int32_t_s_s+0x4a>
    a5dd:	83 7d fc 00          	cmpl   $0x0,-0x4(%rbp)
    a5e1:	79 13                	jns    a5f6 <safe_add_func_int32_t_s_s+0x40>
    a5e3:	83 7d f8 00          	cmpl   $0x0,-0x8(%rbp)
    a5e7:	79 0d                	jns    a5f6 <safe_add_func_int32_t_s_s+0x40>
    a5e9:	b8 00 00 00 80       	mov    $0x80000000,%eax
    a5ee:	2b 45 f8             	sub    -0x8(%rbp),%eax
    a5f1:	39 45 fc             	cmp    %eax,-0x4(%rbp)
    a5f4:	7c 0a                	jl     a600 <safe_add_func_int32_t_s_s+0x4a>
    a5f6:	8b 55 fc             	mov    -0x4(%rbp),%edx
    a5f9:	8b 45 f8             	mov    -0x8(%rbp),%eax
    a5fc:	01 d0                	add    %edx,%eax
    a5fe:	eb 03                	jmp    a603 <safe_add_func_int32_t_s_s+0x4d>
    a600:	8b 45 fc             	mov    -0x4(%rbp),%eax
    a603:	5d                   	pop    %rbp
    a604:	c3                   	retq   

000000000000a605 <safe_sub_func_int32_t_s_s>:
    a605:	f3 0f 1e fa          	endbr64 
    a609:	55                   	push   %rbp
    a60a:	48 89 e5             	mov    %rsp,%rbp
    a60d:	89 7d fc             	mov    %edi,-0x4(%rbp)
    a610:	89 75 f8             	mov    %esi,-0x8(%rbp)
    a613:	8b 45 fc             	mov    -0x4(%rbp),%eax
    a616:	33 45 f8             	xor    -0x8(%rbp),%eax
    a619:	89 c2                	mov    %eax,%edx
    a61b:	8b 45 fc             	mov    -0x4(%rbp),%eax
    a61e:	33 45 f8             	xor    -0x8(%rbp),%eax
    a621:	25 00 00 00 80       	and    $0x80000000,%eax
    a626:	33 45 fc             	xor    -0x4(%rbp),%eax
    a629:	2b 45 f8             	sub    -0x8(%rbp),%eax
    a62c:	33 45 f8             	xor    -0x8(%rbp),%eax
    a62f:	21 d0                	and    %edx,%eax
    a631:	85 c0                	test   %eax,%eax
    a633:	78 08                	js     a63d <safe_sub_func_int32_t_s_s+0x38>
    a635:	8b 45 fc             	mov    -0x4(%rbp),%eax
    a638:	2b 45 f8             	sub    -0x8(%rbp),%eax
    a63b:	eb 03                	jmp    a640 <safe_sub_func_int32_t_s_s+0x3b>
    a63d:	8b 45 fc             	mov    -0x4(%rbp),%eax
    a640:	5d                   	pop    %rbp
    a641:	c3                   	retq   

000000000000a642 <safe_mul_func_int32_t_s_s>:
    a642:	f3 0f 1e fa          	endbr64 
    a646:	55                   	push   %rbp
    a647:	48 89 e5             	mov    %rsp,%rbp
    a64a:	89 7d fc             	mov    %edi,-0x4(%rbp)
    a64d:	89 75 f8             	mov    %esi,-0x8(%rbp)
    a650:	83 7d fc 00          	cmpl   $0x0,-0x4(%rbp)
    a654:	7e 14                	jle    a66a <safe_mul_func_int32_t_s_s+0x28>
    a656:	83 7d f8 00          	cmpl   $0x0,-0x8(%rbp)
    a65a:	7e 0e                	jle    a66a <safe_mul_func_int32_t_s_s+0x28>
    a65c:	b8 ff ff ff 7f       	mov    $0x7fffffff,%eax
    a661:	99                   	cltd   
    a662:	f7 7d f8             	idivl  -0x8(%rbp)
    a665:	39 45 fc             	cmp    %eax,-0x4(%rbp)
    a668:	7f 5d                	jg     a6c7 <safe_mul_func_int32_t_s_s+0x85>
    a66a:	83 7d fc 00          	cmpl   $0x0,-0x4(%rbp)
    a66e:	7e 14                	jle    a684 <safe_mul_func_int32_t_s_s+0x42>
    a670:	83 7d f8 00          	cmpl   $0x0,-0x8(%rbp)
    a674:	7f 0e                	jg     a684 <safe_mul_func_int32_t_s_s+0x42>
    a676:	b8 00 00 00 80       	mov    $0x80000000,%eax
    a67b:	99                   	cltd   
    a67c:	f7 7d fc             	idivl  -0x4(%rbp)
    a67f:	39 45 f8             	cmp    %eax,-0x8(%rbp)
    a682:	7c 43                	jl     a6c7 <safe_mul_func_int32_t_s_s+0x85>
    a684:	83 7d fc 00          	cmpl   $0x0,-0x4(%rbp)
    a688:	7f 14                	jg     a69e <safe_mul_func_int32_t_s_s+0x5c>
    a68a:	83 7d f8 00          	cmpl   $0x0,-0x8(%rbp)
    a68e:	7e 0e                	jle    a69e <safe_mul_func_int32_t_s_s+0x5c>
    a690:	b8 00 00 00 80       	mov    $0x80000000,%eax
    a695:	99                   	cltd   
    a696:	f7 7d f8             	idivl  -0x8(%rbp)
    a699:	39 45 fc             	cmp    %eax,-0x4(%rbp)
    a69c:	7c 29                	jl     a6c7 <safe_mul_func_int32_t_s_s+0x85>
    a69e:	83 7d fc 00          	cmpl   $0x0,-0x4(%rbp)
    a6a2:	7f 1a                	jg     a6be <safe_mul_func_int32_t_s_s+0x7c>
    a6a4:	83 7d f8 00          	cmpl   $0x0,-0x8(%rbp)
    a6a8:	7f 14                	jg     a6be <safe_mul_func_int32_t_s_s+0x7c>
    a6aa:	83 7d fc 00          	cmpl   $0x0,-0x4(%rbp)
    a6ae:	74 0e                	je     a6be <safe_mul_func_int32_t_s_s+0x7c>
    a6b0:	b8 ff ff ff 7f       	mov    $0x7fffffff,%eax
    a6b5:	99                   	cltd   
    a6b6:	f7 7d fc             	idivl  -0x4(%rbp)
    a6b9:	39 45 f8             	cmp    %eax,-0x8(%rbp)
    a6bc:	7c 09                	jl     a6c7 <safe_mul_func_int32_t_s_s+0x85>
    a6be:	8b 45 fc             	mov    -0x4(%rbp),%eax
    a6c1:	0f af 45 f8          	imul   -0x8(%rbp),%eax
    a6c5:	eb 03                	jmp    a6ca <safe_mul_func_int32_t_s_s+0x88>
    a6c7:	8b 45 fc             	mov    -0x4(%rbp),%eax
    a6ca:	5d                   	pop    %rbp
    a6cb:	c3                   	retq   

000000000000a6cc <safe_mod_func_int32_t_s_s>:
    a6cc:	f3 0f 1e fa          	endbr64 
    a6d0:	55                   	push   %rbp
    a6d1:	48 89 e5             	mov    %rsp,%rbp
    a6d4:	89 7d fc             	mov    %edi,-0x4(%rbp)
    a6d7:	89 75 f8             	mov    %esi,-0x8(%rbp)
    a6da:	83 7d f8 00          	cmpl   $0x0,-0x8(%rbp)
    a6de:	74 1a                	je     a6fa <safe_mod_func_int32_t_s_s+0x2e>
    a6e0:	81 7d fc 00 00 00 80 	cmpl   $0x80000000,-0x4(%rbp)
    a6e7:	75 06                	jne    a6ef <safe_mod_func_int32_t_s_s+0x23>
    a6e9:	83 7d f8 ff          	cmpl   $0xffffffff,-0x8(%rbp)
    a6ed:	74 0b                	je     a6fa <safe_mod_func_int32_t_s_s+0x2e>
    a6ef:	8b 45 fc             	mov    -0x4(%rbp),%eax
    a6f2:	99                   	cltd   
    a6f3:	f7 7d f8             	idivl  -0x8(%rbp)
    a6f6:	89 d0                	mov    %edx,%eax
    a6f8:	eb 03                	jmp    a6fd <safe_mod_func_int32_t_s_s+0x31>
    a6fa:	8b 45 fc             	mov    -0x4(%rbp),%eax
    a6fd:	5d                   	pop    %rbp
    a6fe:	c3                   	retq   

000000000000a6ff <safe_div_func_int32_t_s_s>:
    a6ff:	f3 0f 1e fa          	endbr64 
    a703:	55                   	push   %rbp
    a704:	48 89 e5             	mov    %rsp,%rbp
    a707:	89 7d fc             	mov    %edi,-0x4(%rbp)
    a70a:	89 75 f8             	mov    %esi,-0x8(%rbp)
    a70d:	83 7d f8 00          	cmpl   $0x0,-0x8(%rbp)
    a711:	74 18                	je     a72b <safe_div_func_int32_t_s_s+0x2c>
    a713:	81 7d fc 00 00 00 80 	cmpl   $0x80000000,-0x4(%rbp)
    a71a:	75 06                	jne    a722 <safe_div_func_int32_t_s_s+0x23>
    a71c:	83 7d f8 ff          	cmpl   $0xffffffff,-0x8(%rbp)
    a720:	74 09                	je     a72b <safe_div_func_int32_t_s_s+0x2c>
    a722:	8b 45 fc             	mov    -0x4(%rbp),%eax
    a725:	99                   	cltd   
    a726:	f7 7d f8             	idivl  -0x8(%rbp)
    a729:	eb 03                	jmp    a72e <safe_div_func_int32_t_s_s+0x2f>
    a72b:	8b 45 fc             	mov    -0x4(%rbp),%eax
    a72e:	5d                   	pop    %rbp
    a72f:	c3                   	retq   

000000000000a730 <safe_lshift_func_int32_t_s_s>:
    a730:	f3 0f 1e fa          	endbr64 
    a734:	55                   	push   %rbp
    a735:	48 89 e5             	mov    %rsp,%rbp
    a738:	89 7d fc             	mov    %edi,-0x4(%rbp)
    a73b:	89 75 f8             	mov    %esi,-0x8(%rbp)
    a73e:	83 7d fc 00          	cmpl   $0x0,-0x4(%rbp)
    a742:	78 2d                	js     a771 <safe_lshift_func_int32_t_s_s+0x41>
    a744:	83 7d f8 00          	cmpl   $0x0,-0x8(%rbp)
    a748:	78 27                	js     a771 <safe_lshift_func_int32_t_s_s+0x41>
    a74a:	83 7d f8 1f          	cmpl   $0x1f,-0x8(%rbp)
    a74e:	7f 21                	jg     a771 <safe_lshift_func_int32_t_s_s+0x41>
    a750:	8b 45 f8             	mov    -0x8(%rbp),%eax
    a753:	ba ff ff ff 7f       	mov    $0x7fffffff,%edx
    a758:	89 c1                	mov    %eax,%ecx
    a75a:	d3 fa                	sar    %cl,%edx
    a75c:	89 d0                	mov    %edx,%eax
    a75e:	39 45 fc             	cmp    %eax,-0x4(%rbp)
    a761:	7f 0e                	jg     a771 <safe_lshift_func_int32_t_s_s+0x41>
    a763:	8b 45 f8             	mov    -0x8(%rbp),%eax
    a766:	8b 55 fc             	mov    -0x4(%rbp),%edx
    a769:	89 c1                	mov    %eax,%ecx
    a76b:	d3 e2                	shl    %cl,%edx
    a76d:	89 d0                	mov    %edx,%eax
    a76f:	eb 03                	jmp    a774 <safe_lshift_func_int32_t_s_s+0x44>
    a771:	8b 45 fc             	mov    -0x4(%rbp),%eax
    a774:	5d                   	pop    %rbp
    a775:	c3                   	retq   

000000000000a776 <safe_lshift_func_int32_t_s_u>:
    a776:	f3 0f 1e fa          	endbr64 
    a77a:	55                   	push   %rbp
    a77b:	48 89 e5             	mov    %rsp,%rbp
    a77e:	89 7d fc             	mov    %edi,-0x4(%rbp)
    a781:	89 75 f8             	mov    %esi,-0x8(%rbp)
    a784:	83 7d fc 00          	cmpl   $0x0,-0x4(%rbp)
    a788:	78 27                	js     a7b1 <safe_lshift_func_int32_t_s_u+0x3b>
    a78a:	83 7d f8 1f          	cmpl   $0x1f,-0x8(%rbp)
    a78e:	77 21                	ja     a7b1 <safe_lshift_func_int32_t_s_u+0x3b>
    a790:	8b 45 f8             	mov    -0x8(%rbp),%eax
    a793:	ba ff ff ff 7f       	mov    $0x7fffffff,%edx
    a798:	89 c1                	mov    %eax,%ecx
    a79a:	d3 fa                	sar    %cl,%edx
    a79c:	89 d0                	mov    %edx,%eax
    a79e:	39 45 fc             	cmp    %eax,-0x4(%rbp)
    a7a1:	7f 0e                	jg     a7b1 <safe_lshift_func_int32_t_s_u+0x3b>
    a7a3:	8b 45 f8             	mov    -0x8(%rbp),%eax
    a7a6:	8b 55 fc             	mov    -0x4(%rbp),%edx
    a7a9:	89 c1                	mov    %eax,%ecx
    a7ab:	d3 e2                	shl    %cl,%edx
    a7ad:	89 d0                	mov    %edx,%eax
    a7af:	eb 03                	jmp    a7b4 <safe_lshift_func_int32_t_s_u+0x3e>
    a7b1:	8b 45 fc             	mov    -0x4(%rbp),%eax
    a7b4:	5d                   	pop    %rbp
    a7b5:	c3                   	retq   

000000000000a7b6 <safe_rshift_func_int32_t_s_s>:
    a7b6:	f3 0f 1e fa          	endbr64 
    a7ba:	55                   	push   %rbp
    a7bb:	48 89 e5             	mov    %rsp,%rbp
    a7be:	89 7d fc             	mov    %edi,-0x4(%rbp)
    a7c1:	89 75 f8             	mov    %esi,-0x8(%rbp)
    a7c4:	83 7d fc 00          	cmpl   $0x0,-0x4(%rbp)
    a7c8:	78 1a                	js     a7e4 <safe_rshift_func_int32_t_s_s+0x2e>
    a7ca:	83 7d f8 00          	cmpl   $0x0,-0x8(%rbp)
    a7ce:	78 14                	js     a7e4 <safe_rshift_func_int32_t_s_s+0x2e>
    a7d0:	83 7d f8 1f          	cmpl   $0x1f,-0x8(%rbp)
    a7d4:	7f 0e                	jg     a7e4 <safe_rshift_func_int32_t_s_s+0x2e>
    a7d6:	8b 45 f8             	mov    -0x8(%rbp),%eax
    a7d9:	8b 55 fc             	mov    -0x4(%rbp),%edx
    a7dc:	89 c1                	mov    %eax,%ecx
    a7de:	d3 fa                	sar    %cl,%edx
    a7e0:	89 d0                	mov    %edx,%eax
    a7e2:	eb 03                	jmp    a7e7 <safe_rshift_func_int32_t_s_s+0x31>
    a7e4:	8b 45 fc             	mov    -0x4(%rbp),%eax
    a7e7:	5d                   	pop    %rbp
    a7e8:	c3                   	retq   

000000000000a7e9 <safe_rshift_func_int32_t_s_u>:
    a7e9:	f3 0f 1e fa          	endbr64 
    a7ed:	55                   	push   %rbp
    a7ee:	48 89 e5             	mov    %rsp,%rbp
    a7f1:	89 7d fc             	mov    %edi,-0x4(%rbp)
    a7f4:	89 75 f8             	mov    %esi,-0x8(%rbp)
    a7f7:	83 7d fc 00          	cmpl   $0x0,-0x4(%rbp)
    a7fb:	78 14                	js     a811 <safe_rshift_func_int32_t_s_u+0x28>
    a7fd:	83 7d f8 1f          	cmpl   $0x1f,-0x8(%rbp)
    a801:	77 0e                	ja     a811 <safe_rshift_func_int32_t_s_u+0x28>
    a803:	8b 45 f8             	mov    -0x8(%rbp),%eax
    a806:	8b 55 fc             	mov    -0x4(%rbp),%edx
    a809:	89 c1                	mov    %eax,%ecx
    a80b:	d3 fa                	sar    %cl,%edx
    a80d:	89 d0                	mov    %edx,%eax
    a80f:	eb 03                	jmp    a814 <safe_rshift_func_int32_t_s_u+0x2b>
    a811:	8b 45 fc             	mov    -0x4(%rbp),%eax
    a814:	5d                   	pop    %rbp
    a815:	c3                   	retq   

000000000000a816 <safe_unary_minus_func_int64_t_s>:
    a816:	f3 0f 1e fa          	endbr64 
    a81a:	55                   	push   %rbp
    a81b:	48 89 e5             	mov    %rsp,%rbp
    a81e:	48 89 7d f8          	mov    %rdi,-0x8(%rbp)
    a822:	48 b8 00 00 00 00 00 	movabs $0x8000000000000000,%rax
    a829:	00 00 80 
    a82c:	48 39 45 f8          	cmp    %rax,-0x8(%rbp)
    a830:	74 09                	je     a83b <safe_unary_minus_func_int64_t_s+0x25>
    a832:	48 8b 45 f8          	mov    -0x8(%rbp),%rax
    a836:	48 f7 d8             	neg    %rax
    a839:	eb 04                	jmp    a83f <safe_unary_minus_func_int64_t_s+0x29>
    a83b:	48 8b 45 f8          	mov    -0x8(%rbp),%rax
    a83f:	5d                   	pop    %rbp
    a840:	c3                   	retq   

000000000000a841 <safe_add_func_int64_t_s_s>:
    a841:	f3 0f 1e fa          	endbr64 
    a845:	55                   	push   %rbp
    a846:	48 89 e5             	mov    %rsp,%rbp
    a849:	48 89 7d f8          	mov    %rdi,-0x8(%rbp)
    a84d:	48 89 75 f0          	mov    %rsi,-0x10(%rbp)
    a851:	48 83 7d f8 00       	cmpq   $0x0,-0x8(%rbp)
    a856:	7e 1b                	jle    a873 <safe_add_func_int64_t_s_s+0x32>
    a858:	48 83 7d f0 00       	cmpq   $0x0,-0x10(%rbp)
    a85d:	7e 14                	jle    a873 <safe_add_func_int64_t_s_s+0x32>
    a85f:	48 b8 ff ff ff ff ff 	movabs $0x7fffffffffffffff,%rax
    a866:	ff ff 7f 
    a869:	48 2b 45 f0          	sub    -0x10(%rbp),%rax
    a86d:	48 39 45 f8          	cmp    %rax,-0x8(%rbp)
    a871:	7f 2f                	jg     a8a2 <safe_add_func_int64_t_s_s+0x61>
    a873:	48 83 7d f8 00       	cmpq   $0x0,-0x8(%rbp)
    a878:	79 1b                	jns    a895 <safe_add_func_int64_t_s_s+0x54>
    a87a:	48 83 7d f0 00       	cmpq   $0x0,-0x10(%rbp)
    a87f:	79 14                	jns    a895 <safe_add_func_int64_t_s_s+0x54>
    a881:	48 b8 00 00 00 00 00 	movabs $0x8000000000000000,%rax
    a888:	00 00 80 
    a88b:	48 2b 45 f0          	sub    -0x10(%rbp),%rax
    a88f:	48 39 45 f8          	cmp    %rax,-0x8(%rbp)
    a893:	7c 0d                	jl     a8a2 <safe_add_func_int64_t_s_s+0x61>
    a895:	48 8b 55 f8          	mov    -0x8(%rbp),%rdx
    a899:	48 8b 45 f0          	mov    -0x10(%rbp),%rax
    a89d:	48 01 d0             	add    %rdx,%rax
    a8a0:	eb 04                	jmp    a8a6 <safe_add_func_int64_t_s_s+0x65>
    a8a2:	48 8b 45 f8          	mov    -0x8(%rbp),%rax
    a8a6:	5d                   	pop    %rbp
    a8a7:	c3                   	retq   

000000000000a8a8 <safe_sub_func_int64_t_s_s>:
    a8a8:	f3 0f 1e fa          	endbr64 
    a8ac:	55                   	push   %rbp
    a8ad:	48 89 e5             	mov    %rsp,%rbp
    a8b0:	48 89 7d f8          	mov    %rdi,-0x8(%rbp)
    a8b4:	48 89 75 f0          	mov    %rsi,-0x10(%rbp)
    a8b8:	48 8b 45 f8          	mov    -0x8(%rbp),%rax
    a8bc:	48 33 45 f0          	xor    -0x10(%rbp),%rax
    a8c0:	48 89 c2             	mov    %rax,%rdx
    a8c3:	48 8b 45 f8          	mov    -0x8(%rbp),%rax
    a8c7:	48 33 45 f0          	xor    -0x10(%rbp),%rax
    a8cb:	48 b9 00 00 00 00 00 	movabs $0x8000000000000000,%rcx
    a8d2:	00 00 80 
    a8d5:	48 21 c8             	and    %rcx,%rax
    a8d8:	48 33 45 f8          	xor    -0x8(%rbp),%rax
    a8dc:	48 2b 45 f0          	sub    -0x10(%rbp),%rax
    a8e0:	48 33 45 f0          	xor    -0x10(%rbp),%rax
    a8e4:	48 21 d0             	and    %rdx,%rax
    a8e7:	48 85 c0             	test   %rax,%rax
    a8ea:	78 0a                	js     a8f6 <safe_sub_func_int64_t_s_s+0x4e>
    a8ec:	48 8b 45 f8          	mov    -0x8(%rbp),%rax
    a8f0:	48 2b 45 f0          	sub    -0x10(%rbp),%rax
    a8f4:	eb 04                	jmp    a8fa <safe_sub_func_int64_t_s_s+0x52>
    a8f6:	48 8b 45 f8          	mov    -0x8(%rbp),%rax
    a8fa:	5d                   	pop    %rbp
    a8fb:	c3                   	retq   

000000000000a8fc <safe_mul_func_int64_t_s_s>:
    a8fc:	f3 0f 1e fa          	endbr64 
    a900:	55                   	push   %rbp
    a901:	48 89 e5             	mov    %rsp,%rbp
    a904:	48 89 7d f8          	mov    %rdi,-0x8(%rbp)
    a908:	48 89 75 f0          	mov    %rsi,-0x10(%rbp)
    a90c:	48 83 7d f8 00       	cmpq   $0x0,-0x8(%rbp)
    a911:	7e 1d                	jle    a930 <safe_mul_func_int64_t_s_s+0x34>
    a913:	48 83 7d f0 00       	cmpq   $0x0,-0x10(%rbp)
    a918:	7e 16                	jle    a930 <safe_mul_func_int64_t_s_s+0x34>
    a91a:	48 b8 ff ff ff ff ff 	movabs $0x7fffffffffffffff,%rax
    a921:	ff ff 7f 
    a924:	48 99                	cqto   
    a926:	48 f7 7d f0          	idivq  -0x10(%rbp)
    a92a:	48 39 45 f8          	cmp    %rax,-0x8(%rbp)
    a92e:	7f 7e                	jg     a9ae <safe_mul_func_int64_t_s_s+0xb2>
    a930:	48 83 7d f8 00       	cmpq   $0x0,-0x8(%rbp)
    a935:	7e 1d                	jle    a954 <safe_mul_func_int64_t_s_s+0x58>
    a937:	48 83 7d f0 00       	cmpq   $0x0,-0x10(%rbp)
    a93c:	7f 16                	jg     a954 <safe_mul_func_int64_t_s_s+0x58>
    a93e:	48 b8 00 00 00 00 00 	movabs $0x8000000000000000,%rax
    a945:	00 00 80 
    a948:	48 99                	cqto   
    a94a:	48 f7 7d f8          	idivq  -0x8(%rbp)
    a94e:	48 39 45 f0          	cmp    %rax,-0x10(%rbp)
    a952:	7c 5a                	jl     a9ae <safe_mul_func_int64_t_s_s+0xb2>
    a954:	48 83 7d f8 00       	cmpq   $0x0,-0x8(%rbp)
    a959:	7f 1d                	jg     a978 <safe_mul_func_int64_t_s_s+0x7c>
    a95b:	48 83 7d f0 00       	cmpq   $0x0,-0x10(%rbp)
    a960:	7e 16                	jle    a978 <safe_mul_func_int64_t_s_s+0x7c>
    a962:	48 b8 00 00 00 00 00 	movabs $0x8000000000000000,%rax
    a969:	00 00 80 
    a96c:	48 99                	cqto   
    a96e:	48 f7 7d f0          	idivq  -0x10(%rbp)
    a972:	48 39 45 f8          	cmp    %rax,-0x8(%rbp)
    a976:	7c 36                	jl     a9ae <safe_mul_func_int64_t_s_s+0xb2>
    a978:	48 83 7d f8 00       	cmpq   $0x0,-0x8(%rbp)
    a97d:	7f 24                	jg     a9a3 <safe_mul_func_int64_t_s_s+0xa7>
    a97f:	48 83 7d f0 00       	cmpq   $0x0,-0x10(%rbp)
    a984:	7f 1d                	jg     a9a3 <safe_mul_func_int64_t_s_s+0xa7>
    a986:	48 83 7d f8 00       	cmpq   $0x0,-0x8(%rbp)
    a98b:	74 16                	je     a9a3 <safe_mul_func_int64_t_s_s+0xa7>
    a98d:	48 b8 ff ff ff ff ff 	movabs $0x7fffffffffffffff,%rax
    a994:	ff ff 7f 
    a997:	48 99                	cqto   
    a999:	48 f7 7d f8          	idivq  -0x8(%rbp)
    a99d:	48 39 45 f0          	cmp    %rax,-0x10(%rbp)
    a9a1:	7c 0b                	jl     a9ae <safe_mul_func_int64_t_s_s+0xb2>
    a9a3:	48 8b 45 f8          	mov    -0x8(%rbp),%rax
    a9a7:	48 0f af 45 f0       	imul   -0x10(%rbp),%rax
    a9ac:	eb 04                	jmp    a9b2 <safe_mul_func_int64_t_s_s+0xb6>
    a9ae:	48 8b 45 f8          	mov    -0x8(%rbp),%rax
    a9b2:	5d                   	pop    %rbp
    a9b3:	c3                   	retq   

000000000000a9b4 <safe_mod_func_int64_t_s_s>:
    a9b4:	f3 0f 1e fa          	endbr64 
    a9b8:	55                   	push   %rbp
    a9b9:	48 89 e5             	mov    %rsp,%rbp
    a9bc:	48 89 7d f8          	mov    %rdi,-0x8(%rbp)
    a9c0:	48 89 75 f0          	mov    %rsi,-0x10(%rbp)
    a9c4:	48 83 7d f0 00       	cmpq   $0x0,-0x10(%rbp)
    a9c9:	74 26                	je     a9f1 <safe_mod_func_int64_t_s_s+0x3d>
    a9cb:	48 b8 00 00 00 00 00 	movabs $0x8000000000000000,%rax
    a9d2:	00 00 80 
    a9d5:	48 39 45 f8          	cmp    %rax,-0x8(%rbp)
    a9d9:	75 07                	jne    a9e2 <safe_mod_func_int64_t_s_s+0x2e>
    a9db:	48 83 7d f0 ff       	cmpq   $0xffffffffffffffff,-0x10(%rbp)
    a9e0:	74 0f                	je     a9f1 <safe_mod_func_int64_t_s_s+0x3d>
    a9e2:	48 8b 45 f8          	mov    -0x8(%rbp),%rax
    a9e6:	48 99                	cqto   
    a9e8:	48 f7 7d f0          	idivq  -0x10(%rbp)
    a9ec:	48 89 d0             	mov    %rdx,%rax
    a9ef:	eb 04                	jmp    a9f5 <safe_mod_func_int64_t_s_s+0x41>
    a9f1:	48 8b 45 f8          	mov    -0x8(%rbp),%rax
    a9f5:	5d                   	pop    %rbp
    a9f6:	c3                   	retq   

000000000000a9f7 <safe_div_func_int64_t_s_s>:
    a9f7:	f3 0f 1e fa          	endbr64 
    a9fb:	55                   	push   %rbp
    a9fc:	48 89 e5             	mov    %rsp,%rbp
    a9ff:	48 89 7d f8          	mov    %rdi,-0x8(%rbp)
    aa03:	48 89 75 f0          	mov    %rsi,-0x10(%rbp)
    aa07:	48 83 7d f0 00       	cmpq   $0x0,-0x10(%rbp)
    aa0c:	74 23                	je     aa31 <safe_div_func_int64_t_s_s+0x3a>
    aa0e:	48 b8 00 00 00 00 00 	movabs $0x8000000000000000,%rax
    aa15:	00 00 80 
    aa18:	48 39 45 f8          	cmp    %rax,-0x8(%rbp)
    aa1c:	75 07                	jne    aa25 <safe_div_func_int64_t_s_s+0x2e>
    aa1e:	48 83 7d f0 ff       	cmpq   $0xffffffffffffffff,-0x10(%rbp)
    aa23:	74 0c                	je     aa31 <safe_div_func_int64_t_s_s+0x3a>
    aa25:	48 8b 45 f8          	mov    -0x8(%rbp),%rax
    aa29:	48 99                	cqto   
    aa2b:	48 f7 7d f0          	idivq  -0x10(%rbp)
    aa2f:	eb 04                	jmp    aa35 <safe_div_func_int64_t_s_s+0x3e>
    aa31:	48 8b 45 f8          	mov    -0x8(%rbp),%rax
    aa35:	5d                   	pop    %rbp
    aa36:	c3                   	retq   

000000000000aa37 <safe_lshift_func_int64_t_s_s>:
    aa37:	f3 0f 1e fa          	endbr64 
    aa3b:	55                   	push   %rbp
    aa3c:	48 89 e5             	mov    %rsp,%rbp
    aa3f:	48 89 7d f8          	mov    %rdi,-0x8(%rbp)
    aa43:	89 75 f4             	mov    %esi,-0xc(%rbp)
    aa46:	48 83 7d f8 00       	cmpq   $0x0,-0x8(%rbp)
    aa4b:	78 38                	js     aa85 <safe_lshift_func_int64_t_s_s+0x4e>
    aa4d:	83 7d f4 00          	cmpl   $0x0,-0xc(%rbp)
    aa51:	78 32                	js     aa85 <safe_lshift_func_int64_t_s_s+0x4e>
    aa53:	83 7d f4 1f          	cmpl   $0x1f,-0xc(%rbp)
    aa57:	7f 2c                	jg     aa85 <safe_lshift_func_int64_t_s_s+0x4e>
    aa59:	8b 45 f4             	mov    -0xc(%rbp),%eax
    aa5c:	48 ba ff ff ff ff ff 	movabs $0x7fffffffffffffff,%rdx
    aa63:	ff ff 7f 
    aa66:	89 c1                	mov    %eax,%ecx
    aa68:	48 d3 fa             	sar    %cl,%rdx
    aa6b:	48 89 d0             	mov    %rdx,%rax
    aa6e:	48 39 45 f8          	cmp    %rax,-0x8(%rbp)
    aa72:	7f 11                	jg     aa85 <safe_lshift_func_int64_t_s_s+0x4e>
    aa74:	8b 45 f4             	mov    -0xc(%rbp),%eax
    aa77:	48 8b 55 f8          	mov    -0x8(%rbp),%rdx
    aa7b:	89 c1                	mov    %eax,%ecx
    aa7d:	48 d3 e2             	shl    %cl,%rdx
    aa80:	48 89 d0             	mov    %rdx,%rax
    aa83:	eb 04                	jmp    aa89 <safe_lshift_func_int64_t_s_s+0x52>
    aa85:	48 8b 45 f8          	mov    -0x8(%rbp),%rax
    aa89:	5d                   	pop    %rbp
    aa8a:	c3                   	retq   

000000000000aa8b <safe_lshift_func_int64_t_s_u>:
    aa8b:	f3 0f 1e fa          	endbr64 
    aa8f:	55                   	push   %rbp
    aa90:	48 89 e5             	mov    %rsp,%rbp
    aa93:	48 89 7d f8          	mov    %rdi,-0x8(%rbp)
    aa97:	89 75 f4             	mov    %esi,-0xc(%rbp)
    aa9a:	48 83 7d f8 00       	cmpq   $0x0,-0x8(%rbp)
    aa9f:	78 32                	js     aad3 <safe_lshift_func_int64_t_s_u+0x48>
    aaa1:	83 7d f4 1f          	cmpl   $0x1f,-0xc(%rbp)
    aaa5:	77 2c                	ja     aad3 <safe_lshift_func_int64_t_s_u+0x48>
    aaa7:	8b 45 f4             	mov    -0xc(%rbp),%eax
    aaaa:	48 ba ff ff ff ff ff 	movabs $0x7fffffffffffffff,%rdx
    aab1:	ff ff 7f 
    aab4:	89 c1                	mov    %eax,%ecx
    aab6:	48 d3 fa             	sar    %cl,%rdx
    aab9:	48 89 d0             	mov    %rdx,%rax
    aabc:	48 39 45 f8          	cmp    %rax,-0x8(%rbp)
    aac0:	7f 11                	jg     aad3 <safe_lshift_func_int64_t_s_u+0x48>
    aac2:	8b 45 f4             	mov    -0xc(%rbp),%eax
    aac5:	48 8b 55 f8          	mov    -0x8(%rbp),%rdx
    aac9:	89 c1                	mov    %eax,%ecx
    aacb:	48 d3 e2             	shl    %cl,%rdx
    aace:	48 89 d0             	mov    %rdx,%rax
    aad1:	eb 04                	jmp    aad7 <safe_lshift_func_int64_t_s_u+0x4c>
    aad3:	48 8b 45 f8          	mov    -0x8(%rbp),%rax
    aad7:	5d                   	pop    %rbp
    aad8:	c3                   	retq   

000000000000aad9 <safe_rshift_func_int64_t_s_s>:
    aad9:	f3 0f 1e fa          	endbr64 
    aadd:	55                   	push   %rbp
    aade:	48 89 e5             	mov    %rsp,%rbp
    aae1:	48 89 7d f8          	mov    %rdi,-0x8(%rbp)
    aae5:	89 75 f4             	mov    %esi,-0xc(%rbp)
    aae8:	48 83 7d f8 00       	cmpq   $0x0,-0x8(%rbp)
    aaed:	78 1d                	js     ab0c <safe_rshift_func_int64_t_s_s+0x33>
    aaef:	83 7d f4 00          	cmpl   $0x0,-0xc(%rbp)
    aaf3:	78 17                	js     ab0c <safe_rshift_func_int64_t_s_s+0x33>
    aaf5:	83 7d f4 1f          	cmpl   $0x1f,-0xc(%rbp)
    aaf9:	7f 11                	jg     ab0c <safe_rshift_func_int64_t_s_s+0x33>
    aafb:	8b 45 f4             	mov    -0xc(%rbp),%eax
    aafe:	48 8b 55 f8          	mov    -0x8(%rbp),%rdx
    ab02:	89 c1                	mov    %eax,%ecx
    ab04:	48 d3 fa             	sar    %cl,%rdx
    ab07:	48 89 d0             	mov    %rdx,%rax
    ab0a:	eb 04                	jmp    ab10 <safe_rshift_func_int64_t_s_s+0x37>
    ab0c:	48 8b 45 f8          	mov    -0x8(%rbp),%rax
    ab10:	5d                   	pop    %rbp
    ab11:	c3                   	retq   

000000000000ab12 <safe_rshift_func_int64_t_s_u>:
    ab12:	f3 0f 1e fa          	endbr64 
    ab16:	55                   	push   %rbp
    ab17:	48 89 e5             	mov    %rsp,%rbp
    ab1a:	48 89 7d f8          	mov    %rdi,-0x8(%rbp)
    ab1e:	89 75 f4             	mov    %esi,-0xc(%rbp)
    ab21:	48 83 7d f8 00       	cmpq   $0x0,-0x8(%rbp)
    ab26:	78 17                	js     ab3f <safe_rshift_func_int64_t_s_u+0x2d>
    ab28:	83 7d f4 1f          	cmpl   $0x1f,-0xc(%rbp)
    ab2c:	77 11                	ja     ab3f <safe_rshift_func_int64_t_s_u+0x2d>
    ab2e:	8b 45 f4             	mov    -0xc(%rbp),%eax
    ab31:	48 8b 55 f8          	mov    -0x8(%rbp),%rdx
    ab35:	89 c1                	mov    %eax,%ecx
    ab37:	48 d3 fa             	sar    %cl,%rdx
    ab3a:	48 89 d0             	mov    %rdx,%rax
    ab3d:	eb 04                	jmp    ab43 <safe_rshift_func_int64_t_s_u+0x31>
    ab3f:	48 8b 45 f8          	mov    -0x8(%rbp),%rax
    ab43:	5d                   	pop    %rbp
    ab44:	c3                   	retq   

000000000000ab45 <safe_unary_minus_func_uint8_t_u>:
    ab45:	f3 0f 1e fa          	endbr64 
    ab49:	55                   	push   %rbp
    ab4a:	48 89 e5             	mov    %rsp,%rbp
    ab4d:	89 f8                	mov    %edi,%eax
    ab4f:	88 45 fc             	mov    %al,-0x4(%rbp)
    ab52:	0f b6 45 fc          	movzbl -0x4(%rbp),%eax
    ab56:	f7 d8                	neg    %eax
    ab58:	5d                   	pop    %rbp
    ab59:	c3                   	retq   

000000000000ab5a <safe_add_func_uint8_t_u_u>:
    ab5a:	f3 0f 1e fa          	endbr64 
    ab5e:	55                   	push   %rbp
    ab5f:	48 89 e5             	mov    %rsp,%rbp
    ab62:	89 fa                	mov    %edi,%edx
    ab64:	89 f0                	mov    %esi,%eax
    ab66:	88 55 fc             	mov    %dl,-0x4(%rbp)
    ab69:	88 45 f8             	mov    %al,-0x8(%rbp)
    ab6c:	0f b6 55 fc          	movzbl -0x4(%rbp),%edx
    ab70:	0f b6 45 f8          	movzbl -0x8(%rbp),%eax
    ab74:	01 d0                	add    %edx,%eax
    ab76:	5d                   	pop    %rbp
    ab77:	c3                   	retq   

000000000000ab78 <safe_sub_func_uint8_t_u_u>:
    ab78:	f3 0f 1e fa          	endbr64 
    ab7c:	55                   	push   %rbp
    ab7d:	48 89 e5             	mov    %rsp,%rbp
    ab80:	89 fa                	mov    %edi,%edx
    ab82:	89 f0                	mov    %esi,%eax
    ab84:	88 55 fc             	mov    %dl,-0x4(%rbp)
    ab87:	88 45 f8             	mov    %al,-0x8(%rbp)
    ab8a:	0f b6 45 fc          	movzbl -0x4(%rbp),%eax
    ab8e:	2a 45 f8             	sub    -0x8(%rbp),%al
    ab91:	5d                   	pop    %rbp
    ab92:	c3                   	retq   

000000000000ab93 <safe_mul_func_uint8_t_u_u>:
    ab93:	f3 0f 1e fa          	endbr64 
    ab97:	55                   	push   %rbp
    ab98:	48 89 e5             	mov    %rsp,%rbp
    ab9b:	89 fa                	mov    %edi,%edx
    ab9d:	89 f0                	mov    %esi,%eax
    ab9f:	88 55 fc             	mov    %dl,-0x4(%rbp)
    aba2:	88 45 f8             	mov    %al,-0x8(%rbp)
    aba5:	0f b6 45 fc          	movzbl -0x4(%rbp),%eax
    aba9:	f6 65 f8             	mulb   -0x8(%rbp)
    abac:	5d                   	pop    %rbp
    abad:	c3                   	retq   

000000000000abae <safe_mod_func_uint8_t_u_u>:
    abae:	f3 0f 1e fa          	endbr64 
    abb2:	55                   	push   %rbp
    abb3:	48 89 e5             	mov    %rsp,%rbp
    abb6:	89 fa                	mov    %edi,%edx
    abb8:	89 f0                	mov    %esi,%eax
    abba:	88 55 fc             	mov    %dl,-0x4(%rbp)
    abbd:	88 45 f8             	mov    %al,-0x8(%rbp)
    abc0:	80 7d f8 00          	cmpb   $0x0,-0x8(%rbp)
    abc4:	74 0f                	je     abd5 <safe_mod_func_uint8_t_u_u+0x27>
    abc6:	0f b6 45 fc          	movzbl -0x4(%rbp),%eax
    abca:	0f b6 c0             	movzbl %al,%eax
    abcd:	f6 75 f8             	divb   -0x8(%rbp)
    abd0:	0f b6 c4             	movzbl %ah,%eax
    abd3:	eb 04                	jmp    abd9 <safe_mod_func_uint8_t_u_u+0x2b>
    abd5:	0f b6 45 fc          	movzbl -0x4(%rbp),%eax
    abd9:	5d                   	pop    %rbp
    abda:	c3                   	retq   

000000000000abdb <safe_div_func_uint8_t_u_u>:
    abdb:	f3 0f 1e fa          	endbr64 
    abdf:	55                   	push   %rbp
    abe0:	48 89 e5             	mov    %rsp,%rbp
    abe3:	89 fa                	mov    %edi,%edx
    abe5:	89 f0                	mov    %esi,%eax
    abe7:	88 55 fc             	mov    %dl,-0x4(%rbp)
    abea:	88 45 f8             	mov    %al,-0x8(%rbp)
    abed:	80 7d f8 00          	cmpb   $0x0,-0x8(%rbp)
    abf1:	74 0c                	je     abff <safe_div_func_uint8_t_u_u+0x24>
    abf3:	0f b6 45 fc          	movzbl -0x4(%rbp),%eax
    abf7:	0f b6 c0             	movzbl %al,%eax
    abfa:	f6 75 f8             	divb   -0x8(%rbp)
    abfd:	eb 04                	jmp    ac03 <safe_div_func_uint8_t_u_u+0x28>
    abff:	0f b6 45 fc          	movzbl -0x4(%rbp),%eax
    ac03:	5d                   	pop    %rbp
    ac04:	c3                   	retq   

000000000000ac05 <safe_lshift_func_uint8_t_u_s>:
    ac05:	f3 0f 1e fa          	endbr64 
    ac09:	55                   	push   %rbp
    ac0a:	48 89 e5             	mov    %rsp,%rbp
    ac0d:	89 f8                	mov    %edi,%eax
    ac0f:	89 75 f8             	mov    %esi,-0x8(%rbp)
    ac12:	88 45 fc             	mov    %al,-0x4(%rbp)
    ac15:	83 7d f8 00          	cmpl   $0x0,-0x8(%rbp)
    ac19:	78 2b                	js     ac46 <safe_lshift_func_uint8_t_u_s+0x41>
    ac1b:	83 7d f8 1f          	cmpl   $0x1f,-0x8(%rbp)
    ac1f:	7f 25                	jg     ac46 <safe_lshift_func_uint8_t_u_s+0x41>
    ac21:	0f b6 55 fc          	movzbl -0x4(%rbp),%edx
    ac25:	8b 45 f8             	mov    -0x8(%rbp),%eax
    ac28:	be ff 00 00 00       	mov    $0xff,%esi
    ac2d:	89 c1                	mov    %eax,%ecx
    ac2f:	d3 fe                	sar    %cl,%esi
    ac31:	89 f0                	mov    %esi,%eax
    ac33:	39 c2                	cmp    %eax,%edx
    ac35:	7f 0f                	jg     ac46 <safe_lshift_func_uint8_t_u_s+0x41>
    ac37:	0f b6 55 fc          	movzbl -0x4(%rbp),%edx
    ac3b:	8b 45 f8             	mov    -0x8(%rbp),%eax
    ac3e:	89 c1                	mov    %eax,%ecx
    ac40:	d3 e2                	shl    %cl,%edx
    ac42:	89 d0                	mov    %edx,%eax
    ac44:	eb 04                	jmp    ac4a <safe_lshift_func_uint8_t_u_s+0x45>
    ac46:	0f b6 45 fc          	movzbl -0x4(%rbp),%eax
    ac4a:	5d                   	pop    %rbp
    ac4b:	c3                   	retq   

000000000000ac4c <safe_lshift_func_uint8_t_u_u>:
    ac4c:	f3 0f 1e fa          	endbr64 
    ac50:	55                   	push   %rbp
    ac51:	48 89 e5             	mov    %rsp,%rbp
    ac54:	89 f8                	mov    %edi,%eax
    ac56:	89 75 f8             	mov    %esi,-0x8(%rbp)
    ac59:	88 45 fc             	mov    %al,-0x4(%rbp)
    ac5c:	83 7d f8 1f          	cmpl   $0x1f,-0x8(%rbp)
    ac60:	77 25                	ja     ac87 <safe_lshift_func_uint8_t_u_u+0x3b>
    ac62:	0f b6 55 fc          	movzbl -0x4(%rbp),%edx
    ac66:	8b 45 f8             	mov    -0x8(%rbp),%eax
    ac69:	be ff 00 00 00       	mov    $0xff,%esi
    ac6e:	89 c1                	mov    %eax,%ecx
    ac70:	d3 fe                	sar    %cl,%esi
    ac72:	89 f0                	mov    %esi,%eax
    ac74:	39 c2                	cmp    %eax,%edx
    ac76:	7f 0f                	jg     ac87 <safe_lshift_func_uint8_t_u_u+0x3b>
    ac78:	0f b6 55 fc          	movzbl -0x4(%rbp),%edx
    ac7c:	8b 45 f8             	mov    -0x8(%rbp),%eax
    ac7f:	89 c1                	mov    %eax,%ecx
    ac81:	d3 e2                	shl    %cl,%edx
    ac83:	89 d0                	mov    %edx,%eax
    ac85:	eb 04                	jmp    ac8b <safe_lshift_func_uint8_t_u_u+0x3f>
    ac87:	0f b6 45 fc          	movzbl -0x4(%rbp),%eax
    ac8b:	5d                   	pop    %rbp
    ac8c:	c3                   	retq   

000000000000ac8d <safe_rshift_func_uint8_t_u_s>:
    ac8d:	f3 0f 1e fa          	endbr64 
    ac91:	55                   	push   %rbp
    ac92:	48 89 e5             	mov    %rsp,%rbp
    ac95:	89 f8                	mov    %edi,%eax
    ac97:	89 75 f8             	mov    %esi,-0x8(%rbp)
    ac9a:	88 45 fc             	mov    %al,-0x4(%rbp)
    ac9d:	83 7d f8 00          	cmpl   $0x0,-0x8(%rbp)
    aca1:	78 15                	js     acb8 <safe_rshift_func_uint8_t_u_s+0x2b>
    aca3:	83 7d f8 1f          	cmpl   $0x1f,-0x8(%rbp)
    aca7:	7f 0f                	jg     acb8 <safe_rshift_func_uint8_t_u_s+0x2b>
    aca9:	0f b6 55 fc          	movzbl -0x4(%rbp),%edx
    acad:	8b 45 f8             	mov    -0x8(%rbp),%eax
    acb0:	89 c1                	mov    %eax,%ecx
    acb2:	d3 fa                	sar    %cl,%edx
    acb4:	89 d0                	mov    %edx,%eax
    acb6:	eb 04                	jmp    acbc <safe_rshift_func_uint8_t_u_s+0x2f>
    acb8:	0f b6 45 fc          	movzbl -0x4(%rbp),%eax
    acbc:	5d                   	pop    %rbp
    acbd:	c3                   	retq   

000000000000acbe <safe_rshift_func_uint8_t_u_u>:
    acbe:	f3 0f 1e fa          	endbr64 
    acc2:	55                   	push   %rbp
    acc3:	48 89 e5             	mov    %rsp,%rbp
    acc6:	89 f8                	mov    %edi,%eax
    acc8:	89 75 f8             	mov    %esi,-0x8(%rbp)
    accb:	88 45 fc             	mov    %al,-0x4(%rbp)
    acce:	83 7d f8 1f          	cmpl   $0x1f,-0x8(%rbp)
    acd2:	77 0f                	ja     ace3 <safe_rshift_func_uint8_t_u_u+0x25>
    acd4:	0f b6 55 fc          	movzbl -0x4(%rbp),%edx
    acd8:	8b 45 f8             	mov    -0x8(%rbp),%eax
    acdb:	89 c1                	mov    %eax,%ecx
    acdd:	d3 fa                	sar    %cl,%edx
    acdf:	89 d0                	mov    %edx,%eax
    ace1:	eb 04                	jmp    ace7 <safe_rshift_func_uint8_t_u_u+0x29>
    ace3:	0f b6 45 fc          	movzbl -0x4(%rbp),%eax
    ace7:	5d                   	pop    %rbp
    ace8:	c3                   	retq   

000000000000ace9 <safe_unary_minus_func_uint16_t_u>:
    ace9:	f3 0f 1e fa          	endbr64 
    aced:	55                   	push   %rbp
    acee:	48 89 e5             	mov    %rsp,%rbp
    acf1:	89 f8                	mov    %edi,%eax
    acf3:	66 89 45 fc          	mov    %ax,-0x4(%rbp)
    acf7:	0f b7 45 fc          	movzwl -0x4(%rbp),%eax
    acfb:	f7 d8                	neg    %eax
    acfd:	5d                   	pop    %rbp
    acfe:	c3                   	retq   

000000000000acff <safe_add_func_uint16_t_u_u>:
    acff:	f3 0f 1e fa          	endbr64 
    ad03:	55                   	push   %rbp
    ad04:	48 89 e5             	mov    %rsp,%rbp
    ad07:	89 fa                	mov    %edi,%edx
    ad09:	89 f0                	mov    %esi,%eax
    ad0b:	66 89 55 fc          	mov    %dx,-0x4(%rbp)
    ad0f:	66 89 45 f8          	mov    %ax,-0x8(%rbp)
    ad13:	0f b7 55 fc          	movzwl -0x4(%rbp),%edx
    ad17:	0f b7 45 f8          	movzwl -0x8(%rbp),%eax
    ad1b:	01 d0                	add    %edx,%eax
    ad1d:	5d                   	pop    %rbp
    ad1e:	c3                   	retq   

000000000000ad1f <safe_sub_func_uint16_t_u_u>:
    ad1f:	f3 0f 1e fa          	endbr64 
    ad23:	55                   	push   %rbp
    ad24:	48 89 e5             	mov    %rsp,%rbp
    ad27:	89 fa                	mov    %edi,%edx
    ad29:	89 f0                	mov    %esi,%eax
    ad2b:	66 89 55 fc          	mov    %dx,-0x4(%rbp)
    ad2f:	66 89 45 f8          	mov    %ax,-0x8(%rbp)
    ad33:	0f b7 45 fc          	movzwl -0x4(%rbp),%eax
    ad37:	66 2b 45 f8          	sub    -0x8(%rbp),%ax
    ad3b:	5d                   	pop    %rbp
    ad3c:	c3                   	retq   

000000000000ad3d <safe_mul_func_uint16_t_u_u>:
    ad3d:	f3 0f 1e fa          	endbr64 
    ad41:	55                   	push   %rbp
    ad42:	48 89 e5             	mov    %rsp,%rbp
    ad45:	89 fa                	mov    %edi,%edx
    ad47:	89 f0                	mov    %esi,%eax
    ad49:	66 89 55 fc          	mov    %dx,-0x4(%rbp)
    ad4d:	66 89 45 f8          	mov    %ax,-0x8(%rbp)
    ad51:	0f b7 45 fc          	movzwl -0x4(%rbp),%eax
    ad55:	66 0f af 45 f8       	imul   -0x8(%rbp),%ax
    ad5a:	5d                   	pop    %rbp
    ad5b:	c3                   	retq   

000000000000ad5c <safe_mod_func_uint16_t_u_u>:
    ad5c:	f3 0f 1e fa          	endbr64 
    ad60:	55                   	push   %rbp
    ad61:	48 89 e5             	mov    %rsp,%rbp
    ad64:	89 fa                	mov    %edi,%edx
    ad66:	89 f0                	mov    %esi,%eax
    ad68:	66 89 55 fc          	mov    %dx,-0x4(%rbp)
    ad6c:	66 89 45 f8          	mov    %ax,-0x8(%rbp)
    ad70:	66 83 7d f8 00       	cmpw   $0x0,-0x8(%rbp)
    ad75:	74 11                	je     ad88 <safe_mod_func_uint16_t_u_u+0x2c>
    ad77:	0f b7 45 fc          	movzwl -0x4(%rbp),%eax
    ad7b:	ba 00 00 00 00       	mov    $0x0,%edx
    ad80:	66 f7 75 f8          	divw   -0x8(%rbp)
    ad84:	89 d0                	mov    %edx,%eax
    ad86:	eb 04                	jmp    ad8c <safe_mod_func_uint16_t_u_u+0x30>
    ad88:	0f b7 45 fc          	movzwl -0x4(%rbp),%eax
    ad8c:	5d                   	pop    %rbp
    ad8d:	c3                   	retq   

000000000000ad8e <safe_div_func_uint16_t_u_u>:
    ad8e:	f3 0f 1e fa          	endbr64 
    ad92:	55                   	push   %rbp
    ad93:	48 89 e5             	mov    %rsp,%rbp
    ad96:	89 fa                	mov    %edi,%edx
    ad98:	89 f0                	mov    %esi,%eax
    ad9a:	66 89 55 fc          	mov    %dx,-0x4(%rbp)
    ad9e:	66 89 45 f8          	mov    %ax,-0x8(%rbp)
    ada2:	66 83 7d f8 00       	cmpw   $0x0,-0x8(%rbp)
    ada7:	74 0f                	je     adb8 <safe_div_func_uint16_t_u_u+0x2a>
    ada9:	0f b7 45 fc          	movzwl -0x4(%rbp),%eax
    adad:	ba 00 00 00 00       	mov    $0x0,%edx
    adb2:	66 f7 75 f8          	divw   -0x8(%rbp)
    adb6:	eb 04                	jmp    adbc <safe_div_func_uint16_t_u_u+0x2e>
    adb8:	0f b7 45 fc          	movzwl -0x4(%rbp),%eax
    adbc:	5d                   	pop    %rbp
    adbd:	c3                   	retq   

000000000000adbe <safe_lshift_func_uint16_t_u_s>:
    adbe:	f3 0f 1e fa          	endbr64 
    adc2:	55                   	push   %rbp
    adc3:	48 89 e5             	mov    %rsp,%rbp
    adc6:	89 f8                	mov    %edi,%eax
    adc8:	89 75 f8             	mov    %esi,-0x8(%rbp)
    adcb:	66 89 45 fc          	mov    %ax,-0x4(%rbp)
    adcf:	83 7d f8 00          	cmpl   $0x0,-0x8(%rbp)
    add3:	78 2b                	js     ae00 <safe_lshift_func_uint16_t_u_s+0x42>
    add5:	83 7d f8 1f          	cmpl   $0x1f,-0x8(%rbp)
    add9:	7f 25                	jg     ae00 <safe_lshift_func_uint16_t_u_s+0x42>
    addb:	0f b7 55 fc          	movzwl -0x4(%rbp),%edx
    addf:	8b 45 f8             	mov    -0x8(%rbp),%eax
    ade2:	be ff ff 00 00       	mov    $0xffff,%esi
    ade7:	89 c1                	mov    %eax,%ecx
    ade9:	d3 fe                	sar    %cl,%esi
    adeb:	89 f0                	mov    %esi,%eax
    aded:	39 c2                	cmp    %eax,%edx
    adef:	7f 0f                	jg     ae00 <safe_lshift_func_uint16_t_u_s+0x42>
    adf1:	0f b7 55 fc          	movzwl -0x4(%rbp),%edx
    adf5:	8b 45 f8             	mov    -0x8(%rbp),%eax
    adf8:	89 c1                	mov    %eax,%ecx
    adfa:	d3 e2                	shl    %cl,%edx
    adfc:	89 d0                	mov    %edx,%eax
    adfe:	eb 04                	jmp    ae04 <safe_lshift_func_uint16_t_u_s+0x46>
    ae00:	0f b7 45 fc          	movzwl -0x4(%rbp),%eax
    ae04:	5d                   	pop    %rbp
    ae05:	c3                   	retq   

000000000000ae06 <safe_lshift_func_uint16_t_u_u>:
    ae06:	f3 0f 1e fa          	endbr64 
    ae0a:	55                   	push   %rbp
    ae0b:	48 89 e5             	mov    %rsp,%rbp
    ae0e:	89 f8                	mov    %edi,%eax
    ae10:	89 75 f8             	mov    %esi,-0x8(%rbp)
    ae13:	66 89 45 fc          	mov    %ax,-0x4(%rbp)
    ae17:	83 7d f8 1f          	cmpl   $0x1f,-0x8(%rbp)
    ae1b:	77 25                	ja     ae42 <safe_lshift_func_uint16_t_u_u+0x3c>
    ae1d:	0f b7 55 fc          	movzwl -0x4(%rbp),%edx
    ae21:	8b 45 f8             	mov    -0x8(%rbp),%eax
    ae24:	be ff ff 00 00       	mov    $0xffff,%esi
    ae29:	89 c1                	mov    %eax,%ecx
    ae2b:	d3 fe                	sar    %cl,%esi
    ae2d:	89 f0                	mov    %esi,%eax
    ae2f:	39 c2                	cmp    %eax,%edx
    ae31:	7f 0f                	jg     ae42 <safe_lshift_func_uint16_t_u_u+0x3c>
    ae33:	0f b7 55 fc          	movzwl -0x4(%rbp),%edx
    ae37:	8b 45 f8             	mov    -0x8(%rbp),%eax
    ae3a:	89 c1                	mov    %eax,%ecx
    ae3c:	d3 e2                	shl    %cl,%edx
    ae3e:	89 d0                	mov    %edx,%eax
    ae40:	eb 04                	jmp    ae46 <safe_lshift_func_uint16_t_u_u+0x40>
    ae42:	0f b7 45 fc          	movzwl -0x4(%rbp),%eax
    ae46:	5d                   	pop    %rbp
    ae47:	c3                   	retq   

000000000000ae48 <safe_rshift_func_uint16_t_u_s>:
    ae48:	f3 0f 1e fa          	endbr64 
    ae4c:	55                   	push   %rbp
    ae4d:	48 89 e5             	mov    %rsp,%rbp
    ae50:	89 f8                	mov    %edi,%eax
    ae52:	89 75 f8             	mov    %esi,-0x8(%rbp)
    ae55:	66 89 45 fc          	mov    %ax,-0x4(%rbp)
    ae59:	83 7d f8 00          	cmpl   $0x0,-0x8(%rbp)
    ae5d:	78 15                	js     ae74 <safe_rshift_func_uint16_t_u_s+0x2c>
    ae5f:	83 7d f8 1f          	cmpl   $0x1f,-0x8(%rbp)
    ae63:	7f 0f                	jg     ae74 <safe_rshift_func_uint16_t_u_s+0x2c>
    ae65:	0f b7 55 fc          	movzwl -0x4(%rbp),%edx
    ae69:	8b 45 f8             	mov    -0x8(%rbp),%eax
    ae6c:	89 c1                	mov    %eax,%ecx
    ae6e:	d3 fa                	sar    %cl,%edx
    ae70:	89 d0                	mov    %edx,%eax
    ae72:	eb 04                	jmp    ae78 <safe_rshift_func_uint16_t_u_s+0x30>
    ae74:	0f b7 45 fc          	movzwl -0x4(%rbp),%eax
    ae78:	5d                   	pop    %rbp
    ae79:	c3                   	retq   

000000000000ae7a <safe_rshift_func_uint16_t_u_u>:
    ae7a:	f3 0f 1e fa          	endbr64 
    ae7e:	55                   	push   %rbp
    ae7f:	48 89 e5             	mov    %rsp,%rbp
    ae82:	89 f8                	mov    %edi,%eax
    ae84:	89 75 f8             	mov    %esi,-0x8(%rbp)
    ae87:	66 89 45 fc          	mov    %ax,-0x4(%rbp)
    ae8b:	83 7d f8 1f          	cmpl   $0x1f,-0x8(%rbp)
    ae8f:	77 0f                	ja     aea0 <safe_rshift_func_uint16_t_u_u+0x26>
    ae91:	0f b7 55 fc          	movzwl -0x4(%rbp),%edx
    ae95:	8b 45 f8             	mov    -0x8(%rbp),%eax
    ae98:	89 c1                	mov    %eax,%ecx
    ae9a:	d3 fa                	sar    %cl,%edx
    ae9c:	89 d0                	mov    %edx,%eax
    ae9e:	eb 04                	jmp    aea4 <safe_rshift_func_uint16_t_u_u+0x2a>
    aea0:	0f b7 45 fc          	movzwl -0x4(%rbp),%eax
    aea4:	5d                   	pop    %rbp
    aea5:	c3                   	retq   

000000000000aea6 <safe_unary_minus_func_uint32_t_u>:
    aea6:	f3 0f 1e fa          	endbr64 
    aeaa:	55                   	push   %rbp
    aeab:	48 89 e5             	mov    %rsp,%rbp
    aeae:	89 7d fc             	mov    %edi,-0x4(%rbp)
    aeb1:	8b 45 fc             	mov    -0x4(%rbp),%eax
    aeb4:	f7 d8                	neg    %eax
    aeb6:	5d                   	pop    %rbp
    aeb7:	c3                   	retq   

000000000000aeb8 <safe_add_func_uint32_t_u_u>:
    aeb8:	f3 0f 1e fa          	endbr64 
    aebc:	55                   	push   %rbp
    aebd:	48 89 e5             	mov    %rsp,%rbp
    aec0:	89 7d fc             	mov    %edi,-0x4(%rbp)
    aec3:	89 75 f8             	mov    %esi,-0x8(%rbp)
    aec6:	8b 55 fc             	mov    -0x4(%rbp),%edx
    aec9:	8b 45 f8             	mov    -0x8(%rbp),%eax
    aecc:	01 d0                	add    %edx,%eax
    aece:	5d                   	pop    %rbp
    aecf:	c3                   	retq   

000000000000aed0 <safe_sub_func_uint32_t_u_u>:
    aed0:	f3 0f 1e fa          	endbr64 
    aed4:	55                   	push   %rbp
    aed5:	48 89 e5             	mov    %rsp,%rbp
    aed8:	89 7d fc             	mov    %edi,-0x4(%rbp)
    aedb:	89 75 f8             	mov    %esi,-0x8(%rbp)
    aede:	8b 45 fc             	mov    -0x4(%rbp),%eax
    aee1:	2b 45 f8             	sub    -0x8(%rbp),%eax
    aee4:	5d                   	pop    %rbp
    aee5:	c3                   	retq   

000000000000aee6 <safe_mul_func_uint32_t_u_u>:
    aee6:	f3 0f 1e fa          	endbr64 
    aeea:	55                   	push   %rbp
    aeeb:	48 89 e5             	mov    %rsp,%rbp
    aeee:	89 7d fc             	mov    %edi,-0x4(%rbp)
    aef1:	89 75 f8             	mov    %esi,-0x8(%rbp)
    aef4:	8b 45 fc             	mov    -0x4(%rbp),%eax
    aef7:	0f af 45 f8          	imul   -0x8(%rbp),%eax
    aefb:	5d                   	pop    %rbp
    aefc:	c3                   	retq   

000000000000aefd <safe_mod_func_uint32_t_u_u>:
    aefd:	f3 0f 1e fa          	endbr64 
    af01:	55                   	push   %rbp
    af02:	48 89 e5             	mov    %rsp,%rbp
    af05:	89 7d fc             	mov    %edi,-0x4(%rbp)
    af08:	89 75 f8             	mov    %esi,-0x8(%rbp)
    af0b:	83 7d f8 00          	cmpl   $0x0,-0x8(%rbp)
    af0f:	74 0f                	je     af20 <safe_mod_func_uint32_t_u_u+0x23>
    af11:	8b 45 fc             	mov    -0x4(%rbp),%eax
    af14:	ba 00 00 00 00       	mov    $0x0,%edx
    af19:	f7 75 f8             	divl   -0x8(%rbp)
    af1c:	89 d0                	mov    %edx,%eax
    af1e:	eb 03                	jmp    af23 <safe_mod_func_uint32_t_u_u+0x26>
    af20:	8b 45 fc             	mov    -0x4(%rbp),%eax
    af23:	5d                   	pop    %rbp
    af24:	c3                   	retq   

000000000000af25 <safe_div_func_uint32_t_u_u>:
    af25:	f3 0f 1e fa          	endbr64 
    af29:	55                   	push   %rbp
    af2a:	48 89 e5             	mov    %rsp,%rbp
    af2d:	89 7d fc             	mov    %edi,-0x4(%rbp)
    af30:	89 75 f8             	mov    %esi,-0x8(%rbp)
    af33:	83 7d f8 00          	cmpl   $0x0,-0x8(%rbp)
    af37:	74 0d                	je     af46 <safe_div_func_uint32_t_u_u+0x21>
    af39:	8b 45 fc             	mov    -0x4(%rbp),%eax
    af3c:	ba 00 00 00 00       	mov    $0x0,%edx
    af41:	f7 75 f8             	divl   -0x8(%rbp)
    af44:	eb 03                	jmp    af49 <safe_div_func_uint32_t_u_u+0x24>
    af46:	8b 45 fc             	mov    -0x4(%rbp),%eax
    af49:	5d                   	pop    %rbp
    af4a:	c3                   	retq   

000000000000af4b <safe_lshift_func_uint32_t_u_s>:
    af4b:	f3 0f 1e fa          	endbr64 
    af4f:	55                   	push   %rbp
    af50:	48 89 e5             	mov    %rsp,%rbp
    af53:	89 7d fc             	mov    %edi,-0x4(%rbp)
    af56:	89 75 f8             	mov    %esi,-0x8(%rbp)
    af59:	83 7d f8 00          	cmpl   $0x0,-0x8(%rbp)
    af5d:	78 27                	js     af86 <safe_lshift_func_uint32_t_u_s+0x3b>
    af5f:	83 7d f8 1f          	cmpl   $0x1f,-0x8(%rbp)
    af63:	7f 21                	jg     af86 <safe_lshift_func_uint32_t_u_s+0x3b>
    af65:	8b 45 f8             	mov    -0x8(%rbp),%eax
    af68:	ba ff ff ff ff       	mov    $0xffffffff,%edx
    af6d:	89 c1                	mov    %eax,%ecx
    af6f:	d3 ea                	shr    %cl,%edx
    af71:	89 d0                	mov    %edx,%eax
    af73:	39 45 fc             	cmp    %eax,-0x4(%rbp)
    af76:	77 0e                	ja     af86 <safe_lshift_func_uint32_t_u_s+0x3b>
    af78:	8b 45 f8             	mov    -0x8(%rbp),%eax
    af7b:	8b 55 fc             	mov    -0x4(%rbp),%edx
    af7e:	89 c1                	mov    %eax,%ecx
    af80:	d3 e2                	shl    %cl,%edx
    af82:	89 d0                	mov    %edx,%eax
    af84:	eb 03                	jmp    af89 <safe_lshift_func_uint32_t_u_s+0x3e>
    af86:	8b 45 fc             	mov    -0x4(%rbp),%eax
    af89:	5d                   	pop    %rbp
    af8a:	c3                   	retq   

000000000000af8b <safe_lshift_func_uint32_t_u_u>:
    af8b:	f3 0f 1e fa          	endbr64 
    af8f:	55                   	push   %rbp
    af90:	48 89 e5             	mov    %rsp,%rbp
    af93:	89 7d fc             	mov    %edi,-0x4(%rbp)
    af96:	89 75 f8             	mov    %esi,-0x8(%rbp)
    af99:	83 7d f8 1f          	cmpl   $0x1f,-0x8(%rbp)
    af9d:	77 21                	ja     afc0 <safe_lshift_func_uint32_t_u_u+0x35>
    af9f:	8b 45 f8             	mov    -0x8(%rbp),%eax
    afa2:	ba ff ff ff ff       	mov    $0xffffffff,%edx
    afa7:	89 c1                	mov    %eax,%ecx
    afa9:	d3 ea                	shr    %cl,%edx
    afab:	89 d0                	mov    %edx,%eax
    afad:	39 45 fc             	cmp    %eax,-0x4(%rbp)
    afb0:	77 0e                	ja     afc0 <safe_lshift_func_uint32_t_u_u+0x35>
    afb2:	8b 45 f8             	mov    -0x8(%rbp),%eax
    afb5:	8b 55 fc             	mov    -0x4(%rbp),%edx
    afb8:	89 c1                	mov    %eax,%ecx
    afba:	d3 e2                	shl    %cl,%edx
    afbc:	89 d0                	mov    %edx,%eax
    afbe:	eb 03                	jmp    afc3 <safe_lshift_func_uint32_t_u_u+0x38>
    afc0:	8b 45 fc             	mov    -0x4(%rbp),%eax
    afc3:	5d                   	pop    %rbp
    afc4:	c3                   	retq   

000000000000afc5 <safe_rshift_func_uint32_t_u_s>:
    afc5:	f3 0f 1e fa          	endbr64 
    afc9:	55                   	push   %rbp
    afca:	48 89 e5             	mov    %rsp,%rbp
    afcd:	89 7d fc             	mov    %edi,-0x4(%rbp)
    afd0:	89 75 f8             	mov    %esi,-0x8(%rbp)
    afd3:	83 7d f8 00          	cmpl   $0x0,-0x8(%rbp)
    afd7:	78 14                	js     afed <safe_rshift_func_uint32_t_u_s+0x28>
    afd9:	83 7d f8 1f          	cmpl   $0x1f,-0x8(%rbp)
    afdd:	7f 0e                	jg     afed <safe_rshift_func_uint32_t_u_s+0x28>
    afdf:	8b 45 f8             	mov    -0x8(%rbp),%eax
    afe2:	8b 55 fc             	mov    -0x4(%rbp),%edx
    afe5:	89 c1                	mov    %eax,%ecx
    afe7:	d3 ea                	shr    %cl,%edx
    afe9:	89 d0                	mov    %edx,%eax
    afeb:	eb 03                	jmp    aff0 <safe_rshift_func_uint32_t_u_s+0x2b>
    afed:	8b 45 fc             	mov    -0x4(%rbp),%eax
    aff0:	5d                   	pop    %rbp
    aff1:	c3                   	retq   

000000000000aff2 <safe_rshift_func_uint32_t_u_u>:
    aff2:	f3 0f 1e fa          	endbr64 
    aff6:	55                   	push   %rbp
    aff7:	48 89 e5             	mov    %rsp,%rbp
    affa:	89 7d fc             	mov    %edi,-0x4(%rbp)
    affd:	89 75 f8             	mov    %esi,-0x8(%rbp)
    b000:	83 7d f8 1f          	cmpl   $0x1f,-0x8(%rbp)
    b004:	77 0e                	ja     b014 <safe_rshift_func_uint32_t_u_u+0x22>
    b006:	8b 45 f8             	mov    -0x8(%rbp),%eax
    b009:	8b 55 fc             	mov    -0x4(%rbp),%edx
    b00c:	89 c1                	mov    %eax,%ecx
    b00e:	d3 ea                	shr    %cl,%edx
    b010:	89 d0                	mov    %edx,%eax
    b012:	eb 03                	jmp    b017 <safe_rshift_func_uint32_t_u_u+0x25>
    b014:	8b 45 fc             	mov    -0x4(%rbp),%eax
    b017:	5d                   	pop    %rbp
    b018:	c3                   	retq   

000000000000b019 <safe_unary_minus_func_uint64_t_u>:
    b019:	f3 0f 1e fa          	endbr64 
    b01d:	55                   	push   %rbp
    b01e:	48 89 e5             	mov    %rsp,%rbp
    b021:	48 89 7d f8          	mov    %rdi,-0x8(%rbp)
    b025:	48 8b 45 f8          	mov    -0x8(%rbp),%rax
    b029:	48 f7 d8             	neg    %rax
    b02c:	5d                   	pop    %rbp
    b02d:	c3                   	retq   

000000000000b02e <safe_add_func_uint64_t_u_u>:
    b02e:	f3 0f 1e fa          	endbr64 
    b032:	55                   	push   %rbp
    b033:	48 89 e5             	mov    %rsp,%rbp
    b036:	48 89 7d f8          	mov    %rdi,-0x8(%rbp)
    b03a:	48 89 75 f0          	mov    %rsi,-0x10(%rbp)
    b03e:	48 8b 55 f8          	mov    -0x8(%rbp),%rdx
    b042:	48 8b 45 f0          	mov    -0x10(%rbp),%rax
    b046:	48 01 d0             	add    %rdx,%rax
    b049:	5d                   	pop    %rbp
    b04a:	c3                   	retq   

000000000000b04b <safe_sub_func_uint64_t_u_u>:
    b04b:	f3 0f 1e fa          	endbr64 
    b04f:	55                   	push   %rbp
    b050:	48 89 e5             	mov    %rsp,%rbp
    b053:	48 89 7d f8          	mov    %rdi,-0x8(%rbp)
    b057:	48 89 75 f0          	mov    %rsi,-0x10(%rbp)
    b05b:	48 8b 45 f8          	mov    -0x8(%rbp),%rax
    b05f:	48 2b 45 f0          	sub    -0x10(%rbp),%rax
    b063:	5d                   	pop    %rbp
    b064:	c3                   	retq   

000000000000b065 <safe_mul_func_uint64_t_u_u>:
    b065:	f3 0f 1e fa          	endbr64 
    b069:	55                   	push   %rbp
    b06a:	48 89 e5             	mov    %rsp,%rbp
    b06d:	48 89 7d f8          	mov    %rdi,-0x8(%rbp)
    b071:	48 89 75 f0          	mov    %rsi,-0x10(%rbp)
    b075:	48 8b 45 f8          	mov    -0x8(%rbp),%rax
    b079:	48 0f af 45 f0       	imul   -0x10(%rbp),%rax
    b07e:	5d                   	pop    %rbp
    b07f:	c3                   	retq   

000000000000b080 <safe_mod_func_uint64_t_u_u>:
    b080:	f3 0f 1e fa          	endbr64 
    b084:	55                   	push   %rbp
    b085:	48 89 e5             	mov    %rsp,%rbp
    b088:	48 89 7d f8          	mov    %rdi,-0x8(%rbp)
    b08c:	48 89 75 f0          	mov    %rsi,-0x10(%rbp)
    b090:	48 83 7d f0 00       	cmpq   $0x0,-0x10(%rbp)
    b095:	74 12                	je     b0a9 <safe_mod_func_uint64_t_u_u+0x29>
    b097:	48 8b 45 f8          	mov    -0x8(%rbp),%rax
    b09b:	ba 00 00 00 00       	mov    $0x0,%edx
    b0a0:	48 f7 75 f0          	divq   -0x10(%rbp)
    b0a4:	48 89 d0             	mov    %rdx,%rax
    b0a7:	eb 04                	jmp    b0ad <safe_mod_func_uint64_t_u_u+0x2d>
    b0a9:	48 8b 45 f8          	mov    -0x8(%rbp),%rax
    b0ad:	5d                   	pop    %rbp
    b0ae:	c3                   	retq   

000000000000b0af <safe_div_func_uint64_t_u_u>:
    b0af:	f3 0f 1e fa          	endbr64 
    b0b3:	55                   	push   %rbp
    b0b4:	48 89 e5             	mov    %rsp,%rbp
    b0b7:	48 89 7d f8          	mov    %rdi,-0x8(%rbp)
    b0bb:	48 89 75 f0          	mov    %rsi,-0x10(%rbp)
    b0bf:	48 83 7d f0 00       	cmpq   $0x0,-0x10(%rbp)
    b0c4:	74 0f                	je     b0d5 <safe_div_func_uint64_t_u_u+0x26>
    b0c6:	48 8b 45 f8          	mov    -0x8(%rbp),%rax
    b0ca:	ba 00 00 00 00       	mov    $0x0,%edx
    b0cf:	48 f7 75 f0          	divq   -0x10(%rbp)
    b0d3:	eb 04                	jmp    b0d9 <safe_div_func_uint64_t_u_u+0x2a>
    b0d5:	48 8b 45 f8          	mov    -0x8(%rbp),%rax
    b0d9:	5d                   	pop    %rbp
    b0da:	c3                   	retq   

000000000000b0db <safe_lshift_func_uint64_t_u_s>:
    b0db:	f3 0f 1e fa          	endbr64 
    b0df:	55                   	push   %rbp
    b0e0:	48 89 e5             	mov    %rsp,%rbp
    b0e3:	48 89 7d f8          	mov    %rdi,-0x8(%rbp)
    b0e7:	89 75 f4             	mov    %esi,-0xc(%rbp)
    b0ea:	83 7d f4 00          	cmpl   $0x0,-0xc(%rbp)
    b0ee:	78 2f                	js     b11f <safe_lshift_func_uint64_t_u_s+0x44>
    b0f0:	83 7d f4 1f          	cmpl   $0x1f,-0xc(%rbp)
    b0f4:	7f 29                	jg     b11f <safe_lshift_func_uint64_t_u_s+0x44>
    b0f6:	8b 45 f4             	mov    -0xc(%rbp),%eax
    b0f9:	48 c7 c2 ff ff ff ff 	mov    $0xffffffffffffffff,%rdx
    b100:	89 c1                	mov    %eax,%ecx
    b102:	48 d3 ea             	shr    %cl,%rdx
    b105:	48 89 d0             	mov    %rdx,%rax
    b108:	48 39 45 f8          	cmp    %rax,-0x8(%rbp)
    b10c:	77 11                	ja     b11f <safe_lshift_func_uint64_t_u_s+0x44>
    b10e:	8b 45 f4             	mov    -0xc(%rbp),%eax
    b111:	48 8b 55 f8          	mov    -0x8(%rbp),%rdx
    b115:	89 c1                	mov    %eax,%ecx
    b117:	48 d3 e2             	shl    %cl,%rdx
    b11a:	48 89 d0             	mov    %rdx,%rax
    b11d:	eb 04                	jmp    b123 <safe_lshift_func_uint64_t_u_s+0x48>
    b11f:	48 8b 45 f8          	mov    -0x8(%rbp),%rax
    b123:	5d                   	pop    %rbp
    b124:	c3                   	retq   

000000000000b125 <safe_lshift_func_uint64_t_u_u>:
    b125:	f3 0f 1e fa          	endbr64 
    b129:	55                   	push   %rbp
    b12a:	48 89 e5             	mov    %rsp,%rbp
    b12d:	48 89 7d f8          	mov    %rdi,-0x8(%rbp)
    b131:	89 75 f4             	mov    %esi,-0xc(%rbp)
    b134:	83 7d f4 1f          	cmpl   $0x1f,-0xc(%rbp)
    b138:	77 29                	ja     b163 <safe_lshift_func_uint64_t_u_u+0x3e>
    b13a:	8b 45 f4             	mov    -0xc(%rbp),%eax
    b13d:	48 c7 c2 ff ff ff ff 	mov    $0xffffffffffffffff,%rdx
    b144:	89 c1                	mov    %eax,%ecx
    b146:	48 d3 ea             	shr    %cl,%rdx
    b149:	48 89 d0             	mov    %rdx,%rax
    b14c:	48 39 45 f8          	cmp    %rax,-0x8(%rbp)
    b150:	77 11                	ja     b163 <safe_lshift_func_uint64_t_u_u+0x3e>
    b152:	8b 45 f4             	mov    -0xc(%rbp),%eax
    b155:	48 8b 55 f8          	mov    -0x8(%rbp),%rdx
    b159:	89 c1                	mov    %eax,%ecx
    b15b:	48 d3 e2             	shl    %cl,%rdx
    b15e:	48 89 d0             	mov    %rdx,%rax
    b161:	eb 04                	jmp    b167 <safe_lshift_func_uint64_t_u_u+0x42>
    b163:	48 8b 45 f8          	mov    -0x8(%rbp),%rax
    b167:	5d                   	pop    %rbp
    b168:	c3                   	retq   

000000000000b169 <safe_rshift_func_uint64_t_u_s>:
    b169:	f3 0f 1e fa          	endbr64 
    b16d:	55                   	push   %rbp
    b16e:	48 89 e5             	mov    %rsp,%rbp
    b171:	48 89 7d f8          	mov    %rdi,-0x8(%rbp)
    b175:	89 75 f4             	mov    %esi,-0xc(%rbp)
    b178:	83 7d f4 00          	cmpl   $0x0,-0xc(%rbp)
    b17c:	78 17                	js     b195 <safe_rshift_func_uint64_t_u_s+0x2c>
    b17e:	83 7d f4 1f          	cmpl   $0x1f,-0xc(%rbp)
    b182:	7f 11                	jg     b195 <safe_rshift_func_uint64_t_u_s+0x2c>
    b184:	8b 45 f4             	mov    -0xc(%rbp),%eax
    b187:	48 8b 55 f8          	mov    -0x8(%rbp),%rdx
    b18b:	89 c1                	mov    %eax,%ecx
    b18d:	48 d3 ea             	shr    %cl,%rdx
    b190:	48 89 d0             	mov    %rdx,%rax
    b193:	eb 04                	jmp    b199 <safe_rshift_func_uint64_t_u_s+0x30>
    b195:	48 8b 45 f8          	mov    -0x8(%rbp),%rax
    b199:	5d                   	pop    %rbp
    b19a:	c3                   	retq   

000000000000b19b <safe_rshift_func_uint64_t_u_u>:
    b19b:	f3 0f 1e fa          	endbr64 
    b19f:	55                   	push   %rbp
    b1a0:	48 89 e5             	mov    %rsp,%rbp
    b1a3:	48 89 7d f8          	mov    %rdi,-0x8(%rbp)
    b1a7:	89 75 f4             	mov    %esi,-0xc(%rbp)
    b1aa:	83 7d f4 1f          	cmpl   $0x1f,-0xc(%rbp)
    b1ae:	77 11                	ja     b1c1 <safe_rshift_func_uint64_t_u_u+0x26>
    b1b0:	8b 45 f4             	mov    -0xc(%rbp),%eax
    b1b3:	48 8b 55 f8          	mov    -0x8(%rbp),%rdx
    b1b7:	89 c1                	mov    %eax,%ecx
    b1b9:	48 d3 ea             	shr    %cl,%rdx
    b1bc:	48 89 d0             	mov    %rdx,%rax
    b1bf:	eb 04                	jmp    b1c5 <safe_rshift_func_uint64_t_u_u+0x2a>
    b1c1:	48 8b 45 f8          	mov    -0x8(%rbp),%rax
    b1c5:	5d                   	pop    %rbp
    b1c6:	c3                   	retq   

000000000000b1c7 <safe_add_func_float_f_f>:
    b1c7:	f3 0f 1e fa          	endbr64 
    b1cb:	55                   	push   %rbp
    b1cc:	48 89 e5             	mov    %rsp,%rbp
    b1cf:	f3 0f 11 45 fc       	movss  %xmm0,-0x4(%rbp)
    b1d4:	f3 0f 11 4d f8       	movss  %xmm1,-0x8(%rbp)
    b1d9:	f3 0f 10 4d fc       	movss  -0x4(%rbp),%xmm1
    b1de:	f3 0f 10 05 aa 4d 01 	movss  0x14daa(%rip),%xmm0        # 1ff90 <l_2533.4916+0x30>
    b1e5:	00 
    b1e6:	f3 0f 59 c8          	mulss  %xmm0,%xmm1
    b1ea:	f3 0f 10 55 f8       	movss  -0x8(%rbp),%xmm2
    b1ef:	f3 0f 10 05 99 4d 01 	movss  0x14d99(%rip),%xmm0        # 1ff90 <l_2533.4916+0x30>
    b1f6:	00 
    b1f7:	f3 0f 59 c2          	mulss  %xmm2,%xmm0
    b1fb:	f3 0f 58 c1          	addss  %xmm1,%xmm0
    b1ff:	f3 0f 10 0d 99 4d 01 	movss  0x14d99(%rip),%xmm1        # 1ffa0 <l_2533.4916+0x40>
    b206:	00 
    b207:	0f 54 c1             	andps  %xmm1,%xmm0
    b20a:	0f 2f 05 9f 4d 01 00 	comiss 0x14d9f(%rip),%xmm0        # 1ffb0 <l_2533.4916+0x50>
    b211:	76 07                	jbe    b21a <safe_add_func_float_f_f+0x53>
    b213:	f3 0f 10 45 fc       	movss  -0x4(%rbp),%xmm0
    b218:	eb 0a                	jmp    b224 <safe_add_func_float_f_f+0x5d>
    b21a:	f3 0f 10 45 fc       	movss  -0x4(%rbp),%xmm0
    b21f:	f3 0f 58 45 f8       	addss  -0x8(%rbp),%xmm0
    b224:	5d                   	pop    %rbp
    b225:	c3                   	retq   

000000000000b226 <safe_sub_func_float_f_f>:
    b226:	f3 0f 1e fa          	endbr64 
    b22a:	55                   	push   %rbp
    b22b:	48 89 e5             	mov    %rsp,%rbp
    b22e:	f3 0f 11 45 fc       	movss  %xmm0,-0x4(%rbp)
    b233:	f3 0f 11 4d f8       	movss  %xmm1,-0x8(%rbp)
    b238:	f3 0f 10 4d fc       	movss  -0x4(%rbp),%xmm1
    b23d:	f3 0f 10 05 4b 4d 01 	movss  0x14d4b(%rip),%xmm0        # 1ff90 <l_2533.4916+0x30>
    b244:	00 
    b245:	f3 0f 59 c1          	mulss  %xmm1,%xmm0
    b249:	f3 0f 10 55 f8       	movss  -0x8(%rbp),%xmm2
    b24e:	f3 0f 10 0d 3a 4d 01 	movss  0x14d3a(%rip),%xmm1        # 1ff90 <l_2533.4916+0x30>
    b255:	00 
    b256:	f3 0f 59 ca          	mulss  %xmm2,%xmm1
    b25a:	f3 0f 5c c1          	subss  %xmm1,%xmm0
    b25e:	f3 0f 10 0d 3a 4d 01 	movss  0x14d3a(%rip),%xmm1        # 1ffa0 <l_2533.4916+0x40>
    b265:	00 
    b266:	0f 54 c1             	andps  %xmm1,%xmm0
    b269:	0f 2f 05 40 4d 01 00 	comiss 0x14d40(%rip),%xmm0        # 1ffb0 <l_2533.4916+0x50>
    b270:	76 07                	jbe    b279 <safe_sub_func_float_f_f+0x53>
    b272:	f3 0f 10 45 fc       	movss  -0x4(%rbp),%xmm0
    b277:	eb 0a                	jmp    b283 <safe_sub_func_float_f_f+0x5d>
    b279:	f3 0f 10 45 fc       	movss  -0x4(%rbp),%xmm0
    b27e:	f3 0f 5c 45 f8       	subss  -0x8(%rbp),%xmm0
    b283:	5d                   	pop    %rbp
    b284:	c3                   	retq   

000000000000b285 <safe_mul_func_float_f_f>:
    b285:	f3 0f 1e fa          	endbr64 
    b289:	55                   	push   %rbp
    b28a:	48 89 e5             	mov    %rsp,%rbp
    b28d:	f3 0f 11 45 fc       	movss  %xmm0,-0x4(%rbp)
    b292:	f3 0f 11 4d f8       	movss  %xmm1,-0x8(%rbp)
    b297:	f3 0f 10 4d fc       	movss  -0x4(%rbp),%xmm1
    b29c:	f3 0f 10 05 10 4d 01 	movss  0x14d10(%rip),%xmm0        # 1ffb4 <l_2533.4916+0x54>
    b2a3:	00 
    b2a4:	f3 0f 59 c8          	mulss  %xmm0,%xmm1
    b2a8:	f3 0f 10 55 f8       	movss  -0x8(%rbp),%xmm2
    b2ad:	f3 0f 10 05 03 4d 01 	movss  0x14d03(%rip),%xmm0        # 1ffb8 <l_2533.4916+0x58>
    b2b4:	00 
    b2b5:	f3 0f 59 c2          	mulss  %xmm2,%xmm0
    b2b9:	f3 0f 59 c1          	mulss  %xmm1,%xmm0
    b2bd:	f3 0f 10 0d db 4c 01 	movss  0x14cdb(%rip),%xmm1        # 1ffa0 <l_2533.4916+0x40>
    b2c4:	00 
    b2c5:	0f 54 c1             	andps  %xmm1,%xmm0
    b2c8:	0f 2f 05 ed 4c 01 00 	comiss 0x14ced(%rip),%xmm0        # 1ffbc <l_2533.4916+0x5c>
    b2cf:	76 07                	jbe    b2d8 <safe_mul_func_float_f_f+0x53>
    b2d1:	f3 0f 10 45 fc       	movss  -0x4(%rbp),%xmm0
    b2d6:	eb 0a                	jmp    b2e2 <safe_mul_func_float_f_f+0x5d>
    b2d8:	f3 0f 10 45 fc       	movss  -0x4(%rbp),%xmm0
    b2dd:	f3 0f 59 45 f8       	mulss  -0x8(%rbp),%xmm0
    b2e2:	5d                   	pop    %rbp
    b2e3:	c3                   	retq   

000000000000b2e4 <safe_div_func_float_f_f>:
    b2e4:	f3 0f 1e fa          	endbr64 
    b2e8:	55                   	push   %rbp
    b2e9:	48 89 e5             	mov    %rsp,%rbp
    b2ec:	f3 0f 11 45 fc       	movss  %xmm0,-0x4(%rbp)
    b2f1:	f3 0f 11 4d f8       	movss  %xmm1,-0x8(%rbp)
    b2f6:	f3 0f 10 45 f8       	movss  -0x8(%rbp),%xmm0
    b2fb:	f3 0f 10 0d 9d 4c 01 	movss  0x14c9d(%rip),%xmm1        # 1ffa0 <l_2533.4916+0x40>
    b302:	00 
    b303:	0f 54 c8             	andps  %xmm0,%xmm1
    b306:	f3 0f 10 05 b2 4c 01 	movss  0x14cb2(%rip),%xmm0        # 1ffc0 <l_2533.4916+0x60>
    b30d:	00 
    b30e:	0f 2f c1             	comiss %xmm1,%xmm0
    b311:	0f 97 c0             	seta   %al
    b314:	83 f0 01             	xor    $0x1,%eax
    b317:	84 c0                	test   %al,%al
    b319:	75 56                	jne    b371 <safe_div_func_float_f_f+0x8d>
    b31b:	66 0f ef c0          	pxor   %xmm0,%xmm0
    b31f:	0f 2e 45 f8          	ucomiss -0x8(%rbp),%xmm0
    b323:	7a 0a                	jp     b32f <safe_div_func_float_f_f+0x4b>
    b325:	66 0f ef c0          	pxor   %xmm0,%xmm0
    b329:	0f 2e 45 f8          	ucomiss -0x8(%rbp),%xmm0
    b32d:	74 4e                	je     b37d <safe_div_func_float_f_f+0x99>
    b32f:	f3 0f 10 4d fc       	movss  -0x4(%rbp),%xmm1
    b334:	f3 0f 10 05 88 4c 01 	movss  0x14c88(%rip),%xmm0        # 1ffc4 <l_2533.4916+0x64>
    b33b:	00 
    b33c:	f3 0f 59 c1          	mulss  %xmm1,%xmm0
    b340:	f3 0f 10 55 f8       	movss  -0x8(%rbp),%xmm2
    b345:	f3 0f 10 0d 7b 4c 01 	movss  0x14c7b(%rip),%xmm1        # 1ffc8 <l_2533.4916+0x68>
    b34c:	00 
    b34d:	f3 0f 59 ca          	mulss  %xmm2,%xmm1
    b351:	f3 0f 5e c1          	divss  %xmm1,%xmm0
    b355:	f3 0f 10 0d 43 4c 01 	movss  0x14c43(%rip),%xmm1        # 1ffa0 <l_2533.4916+0x40>
    b35c:	00 
    b35d:	0f 54 c1             	andps  %xmm1,%xmm0
    b360:	0f 2f 05 65 4c 01 00 	comiss 0x14c65(%rip),%xmm0        # 1ffcc <l_2533.4916+0x6c>
    b367:	0f 97 c0             	seta   %al
    b36a:	83 f0 01             	xor    $0x1,%eax
    b36d:	84 c0                	test   %al,%al
    b36f:	74 0c                	je     b37d <safe_div_func_float_f_f+0x99>
    b371:	f3 0f 10 45 fc       	movss  -0x4(%rbp),%xmm0
    b376:	f3 0f 5e 45 f8       	divss  -0x8(%rbp),%xmm0
    b37b:	eb 05                	jmp    b382 <safe_div_func_float_f_f+0x9e>
    b37d:	f3 0f 10 45 fc       	movss  -0x4(%rbp),%xmm0
    b382:	5d                   	pop    %rbp
    b383:	c3                   	retq   

000000000000b384 <safe_add_func_double_f_f>:
    b384:	f3 0f 1e fa          	endbr64 
    b388:	55                   	push   %rbp
    b389:	48 89 e5             	mov    %rsp,%rbp
    b38c:	f2 0f 11 45 f8       	movsd  %xmm0,-0x8(%rbp)
    b391:	f2 0f 11 4d f0       	movsd  %xmm1,-0x10(%rbp)
    b396:	f2 0f 10 4d f8       	movsd  -0x8(%rbp),%xmm1
    b39b:	f2 0f 10 05 2d 4c 01 	movsd  0x14c2d(%rip),%xmm0        # 1ffd0 <l_2533.4916+0x70>
    b3a2:	00 
    b3a3:	f2 0f 59 c8          	mulsd  %xmm0,%xmm1
    b3a7:	f2 0f 10 55 f0       	movsd  -0x10(%rbp),%xmm2
    b3ac:	f2 0f 10 05 1c 4c 01 	movsd  0x14c1c(%rip),%xmm0        # 1ffd0 <l_2533.4916+0x70>
    b3b3:	00 
    b3b4:	f2 0f 59 c2          	mulsd  %xmm2,%xmm0
    b3b8:	f2 0f 58 c1          	addsd  %xmm1,%xmm0
    b3bc:	f3 0f 7e 0d 1c 4c 01 	movq   0x14c1c(%rip),%xmm1        # 1ffe0 <l_2533.4916+0x80>
    b3c3:	00 
    b3c4:	66 0f 54 c1          	andpd  %xmm1,%xmm0
    b3c8:	66 0f 2f 05 20 4c 01 	comisd 0x14c20(%rip),%xmm0        # 1fff0 <l_2533.4916+0x90>
    b3cf:	00 
    b3d0:	76 07                	jbe    b3d9 <safe_add_func_double_f_f+0x55>
    b3d2:	f2 0f 10 45 f8       	movsd  -0x8(%rbp),%xmm0
    b3d7:	eb 0a                	jmp    b3e3 <safe_add_func_double_f_f+0x5f>
    b3d9:	f2 0f 10 45 f8       	movsd  -0x8(%rbp),%xmm0
    b3de:	f2 0f 58 45 f0       	addsd  -0x10(%rbp),%xmm0
    b3e3:	5d                   	pop    %rbp
    b3e4:	c3                   	retq   

000000000000b3e5 <safe_sub_func_double_f_f>:
    b3e5:	f3 0f 1e fa          	endbr64 
    b3e9:	55                   	push   %rbp
    b3ea:	48 89 e5             	mov    %rsp,%rbp
    b3ed:	f2 0f 11 45 f8       	movsd  %xmm0,-0x8(%rbp)
    b3f2:	f2 0f 11 4d f0       	movsd  %xmm1,-0x10(%rbp)
    b3f7:	f2 0f 10 4d f8       	movsd  -0x8(%rbp),%xmm1
    b3fc:	f2 0f 10 05 cc 4b 01 	movsd  0x14bcc(%rip),%xmm0        # 1ffd0 <l_2533.4916+0x70>
    b403:	00 
    b404:	f2 0f 59 c1          	mulsd  %xmm1,%xmm0
    b408:	f2 0f 10 55 f0       	movsd  -0x10(%rbp),%xmm2
    b40d:	f2 0f 10 0d bb 4b 01 	movsd  0x14bbb(%rip),%xmm1        # 1ffd0 <l_2533.4916+0x70>
    b414:	00 
    b415:	f2 0f 59 ca          	mulsd  %xmm2,%xmm1
    b419:	f2 0f 5c c1          	subsd  %xmm1,%xmm0
    b41d:	f3 0f 7e 0d bb 4b 01 	movq   0x14bbb(%rip),%xmm1        # 1ffe0 <l_2533.4916+0x80>
    b424:	00 
    b425:	66 0f 54 c1          	andpd  %xmm1,%xmm0
    b429:	66 0f 2f 05 bf 4b 01 	comisd 0x14bbf(%rip),%xmm0        # 1fff0 <l_2533.4916+0x90>
    b430:	00 
    b431:	76 07                	jbe    b43a <safe_sub_func_double_f_f+0x55>
    b433:	f2 0f 10 45 f8       	movsd  -0x8(%rbp),%xmm0
    b438:	eb 0a                	jmp    b444 <safe_sub_func_double_f_f+0x5f>
    b43a:	f2 0f 10 45 f8       	movsd  -0x8(%rbp),%xmm0
    b43f:	f2 0f 5c 45 f0       	subsd  -0x10(%rbp),%xmm0
    b444:	5d                   	pop    %rbp
    b445:	c3                   	retq   

000000000000b446 <safe_mul_func_double_f_f>:
    b446:	f3 0f 1e fa          	endbr64 
    b44a:	55                   	push   %rbp
    b44b:	48 89 e5             	mov    %rsp,%rbp
    b44e:	f2 0f 11 45 f8       	movsd  %xmm0,-0x8(%rbp)
    b453:	f2 0f 11 4d f0       	movsd  %xmm1,-0x10(%rbp)
    b458:	f2 0f 10 4d f8       	movsd  -0x8(%rbp),%xmm1
    b45d:	f2 0f 10 05 93 4b 01 	movsd  0x14b93(%rip),%xmm0        # 1fff8 <l_2533.4916+0x98>
    b464:	00 
    b465:	f2 0f 59 c8          	mulsd  %xmm0,%xmm1
    b469:	f2 0f 10 55 f0       	movsd  -0x10(%rbp),%xmm2
    b46e:	f2 0f 10 05 8a 4b 01 	movsd  0x14b8a(%rip),%xmm0        # 20000 <l_2533.4916+0xa0>
    b475:	00 
    b476:	f2 0f 59 c2          	mulsd  %xmm2,%xmm0
    b47a:	f2 0f 59 c1          	mulsd  %xmm1,%xmm0
    b47e:	f3 0f 7e 0d 5a 4b 01 	movq   0x14b5a(%rip),%xmm1        # 1ffe0 <l_2533.4916+0x80>
    b485:	00 
    b486:	66 0f 54 c1          	andpd  %xmm1,%xmm0
    b48a:	66 0f 2f 05 76 4b 01 	comisd 0x14b76(%rip),%xmm0        # 20008 <l_2533.4916+0xa8>
    b491:	00 
    b492:	76 07                	jbe    b49b <safe_mul_func_double_f_f+0x55>
    b494:	f2 0f 10 45 f8       	movsd  -0x8(%rbp),%xmm0
    b499:	eb 0a                	jmp    b4a5 <safe_mul_func_double_f_f+0x5f>
    b49b:	f2 0f 10 45 f8       	movsd  -0x8(%rbp),%xmm0
    b4a0:	f2 0f 59 45 f0       	mulsd  -0x10(%rbp),%xmm0
    b4a5:	5d                   	pop    %rbp
    b4a6:	c3                   	retq   

000000000000b4a7 <safe_div_func_double_f_f>:
    b4a7:	f3 0f 1e fa          	endbr64 
    b4ab:	55                   	push   %rbp
    b4ac:	48 89 e5             	mov    %rsp,%rbp
    b4af:	f2 0f 11 45 f8       	movsd  %xmm0,-0x8(%rbp)
    b4b4:	f2 0f 11 4d f0       	movsd  %xmm1,-0x10(%rbp)
    b4b9:	f2 0f 10 45 f0       	movsd  -0x10(%rbp),%xmm0
    b4be:	f3 0f 7e 0d 1a 4b 01 	movq   0x14b1a(%rip),%xmm1        # 1ffe0 <l_2533.4916+0x80>
    b4c5:	00 
    b4c6:	66 0f 54 c8          	andpd  %xmm0,%xmm1
    b4ca:	f2 0f 10 05 3e 4b 01 	movsd  0x14b3e(%rip),%xmm0        # 20010 <l_2533.4916+0xb0>
    b4d1:	00 
    b4d2:	66 0f 2f c1          	comisd %xmm1,%xmm0
    b4d6:	0f 97 c0             	seta   %al
    b4d9:	83 f0 01             	xor    $0x1,%eax
    b4dc:	84 c0                	test   %al,%al
    b4de:	75 5a                	jne    b53a <safe_div_func_double_f_f+0x93>
    b4e0:	66 0f ef c0          	pxor   %xmm0,%xmm0
    b4e4:	66 0f 2e 45 f0       	ucomisd -0x10(%rbp),%xmm0
    b4e9:	7a 0b                	jp     b4f6 <safe_div_func_double_f_f+0x4f>
    b4eb:	66 0f ef c0          	pxor   %xmm0,%xmm0
    b4ef:	66 0f 2e 45 f0       	ucomisd -0x10(%rbp),%xmm0
    b4f4:	74 50                	je     b546 <safe_div_func_double_f_f+0x9f>
    b4f6:	f2 0f 10 4d f8       	movsd  -0x8(%rbp),%xmm1
    b4fb:	f2 0f 10 05 15 4b 01 	movsd  0x14b15(%rip),%xmm0        # 20018 <l_2533.4916+0xb8>
    b502:	00 
    b503:	f2 0f 59 c1          	mulsd  %xmm1,%xmm0
    b507:	f2 0f 10 55 f0       	movsd  -0x10(%rbp),%xmm2
    b50c:	f2 0f 10 0d 0c 4b 01 	movsd  0x14b0c(%rip),%xmm1        # 20020 <l_2533.4916+0xc0>
    b513:	00 
    b514:	f2 0f 59 ca          	mulsd  %xmm2,%xmm1
    b518:	f2 0f 5e c1          	divsd  %xmm1,%xmm0
    b51c:	f3 0f 7e 0d bc 4a 01 	movq   0x14abc(%rip),%xmm1        # 1ffe0 <l_2533.4916+0x80>
    b523:	00 
    b524:	66 0f 54 c1          	andpd  %xmm1,%xmm0
    b528:	66 0f 2f 05 f8 4a 01 	comisd 0x14af8(%rip),%xmm0        # 20028 <l_2533.4916+0xc8>
    b52f:	00 
    b530:	0f 97 c0             	seta   %al
    b533:	83 f0 01             	xor    $0x1,%eax
    b536:	84 c0                	test   %al,%al
    b538:	74 0c                	je     b546 <safe_div_func_double_f_f+0x9f>
    b53a:	f2 0f 10 45 f8       	movsd  -0x8(%rbp),%xmm0
    b53f:	f2 0f 5e 45 f0       	divsd  -0x10(%rbp),%xmm0
    b544:	eb 05                	jmp    b54b <safe_div_func_double_f_f+0xa4>
    b546:	f2 0f 10 45 f8       	movsd  -0x8(%rbp),%xmm0
    b54b:	5d                   	pop    %rbp
    b54c:	c3                   	retq   

000000000000b54d <safe_convert_func_float_to_int32_t>:
    b54d:	f3 0f 1e fa          	endbr64 
    b551:	55                   	push   %rbp
    b552:	48 89 e5             	mov    %rsp,%rbp
    b555:	f3 0f 11 45 fc       	movss  %xmm0,-0x4(%rbp)
    b55a:	f3 0f 10 05 ce 4a 01 	movss  0x14ace(%rip),%xmm0        # 20030 <l_2533.4916+0xd0>
    b561:	00 
    b562:	0f 2f 45 fc          	comiss -0x4(%rbp),%xmm0
    b566:	0f 93 c0             	setae  %al
    b569:	83 f0 01             	xor    $0x1,%eax
    b56c:	84 c0                	test   %al,%al
    b56e:	74 21                	je     b591 <safe_convert_func_float_to_int32_t+0x44>
    b570:	f3 0f 10 45 fc       	movss  -0x4(%rbp),%xmm0
    b575:	0f 2f 05 b8 4a 01 00 	comiss 0x14ab8(%rip),%xmm0        # 20034 <l_2533.4916+0xd4>
    b57c:	0f 93 c0             	setae  %al
    b57f:	83 f0 01             	xor    $0x1,%eax
    b582:	84 c0                	test   %al,%al
    b584:	74 0b                	je     b591 <safe_convert_func_float_to_int32_t+0x44>
    b586:	f3 0f 10 45 fc       	movss  -0x4(%rbp),%xmm0
    b58b:	f3 0f 2c c0          	cvttss2si %xmm0,%eax
    b58f:	eb 05                	jmp    b596 <safe_convert_func_float_to_int32_t+0x49>
    b591:	b8 ff ff ff 7f       	mov    $0x7fffffff,%eax
    b596:	5d                   	pop    %rbp
    b597:	c3                   	retq   

000000000000b598 <crc32_gentab>:
    b598:	f3 0f 1e fa          	endbr64 
    b59c:	55                   	push   %rbp
    b59d:	48 89 e5             	mov    %rsp,%rbp
    b5a0:	c7 45 fc 20 83 b8 ed 	movl   $0xedb88320,-0x4(%rbp)
    b5a7:	c7 45 f4 00 00 00 00 	movl   $0x0,-0xc(%rbp)
    b5ae:	eb 51                	jmp    b601 <crc32_gentab+0x69>
    b5b0:	8b 45 f4             	mov    -0xc(%rbp),%eax
    b5b3:	89 45 f0             	mov    %eax,-0x10(%rbp)
    b5b6:	c7 45 f8 08 00 00 00 	movl   $0x8,-0x8(%rbp)
    b5bd:	eb 1e                	jmp    b5dd <crc32_gentab+0x45>
    b5bf:	8b 45 f0             	mov    -0x10(%rbp),%eax
    b5c2:	83 e0 01             	and    $0x1,%eax
    b5c5:	85 c0                	test   %eax,%eax
    b5c7:	74 0d                	je     b5d6 <crc32_gentab+0x3e>
    b5c9:	8b 45 f0             	mov    -0x10(%rbp),%eax
    b5cc:	d1 e8                	shr    %eax
    b5ce:	33 45 fc             	xor    -0x4(%rbp),%eax
    b5d1:	89 45 f0             	mov    %eax,-0x10(%rbp)
    b5d4:	eb 03                	jmp    b5d9 <crc32_gentab+0x41>
    b5d6:	d1 6d f0             	shrl   -0x10(%rbp)
    b5d9:	83 6d f8 01          	subl   $0x1,-0x8(%rbp)
    b5dd:	83 7d f8 00          	cmpl   $0x0,-0x8(%rbp)
    b5e1:	7f dc                	jg     b5bf <crc32_gentab+0x27>
    b5e3:	8b 45 f4             	mov    -0xc(%rbp),%eax
    b5e6:	48 98                	cltq   
    b5e8:	48 8d 0c 85 00 00 00 	lea    0x0(,%rax,4),%rcx
    b5ef:	00 
    b5f0:	48 8d 15 09 e5 01 00 	lea    0x1e509(%rip),%rdx        # 29b00 <crc32_tab>
    b5f7:	8b 45 f0             	mov    -0x10(%rbp),%eax
    b5fa:	89 04 11             	mov    %eax,(%rcx,%rdx,1)
    b5fd:	83 45 f4 01          	addl   $0x1,-0xc(%rbp)
    b601:	81 7d f4 ff 00 00 00 	cmpl   $0xff,-0xc(%rbp)
    b608:	7e a6                	jle    b5b0 <crc32_gentab+0x18>
    b60a:	90                   	nop
    b60b:	90                   	nop
    b60c:	5d                   	pop    %rbp
    b60d:	c3                   	retq   

000000000000b60e <crc32_byte>:
    b60e:	f3 0f 1e fa          	endbr64 
    b612:	55                   	push   %rbp
    b613:	48 89 e5             	mov    %rsp,%rbp
    b616:	89 f8                	mov    %edi,%eax
    b618:	88 45 fc             	mov    %al,-0x4(%rbp)
    b61b:	8b 05 ff 89 01 00    	mov    0x189ff(%rip),%eax        # 24020 <crc32_context>
    b621:	c1 e8 08             	shr    $0x8,%eax
    b624:	89 c1                	mov    %eax,%ecx
    b626:	0f b6 55 fc          	movzbl -0x4(%rbp),%edx
    b62a:	8b 05 f0 89 01 00    	mov    0x189f0(%rip),%eax        # 24020 <crc32_context>
    b630:	31 d0                	xor    %edx,%eax
    b632:	0f b6 c0             	movzbl %al,%eax
    b635:	89 c0                	mov    %eax,%eax
    b637:	48 8d 14 85 00 00 00 	lea    0x0(,%rax,4),%rdx
    b63e:	00 
    b63f:	48 8d 05 ba e4 01 00 	lea    0x1e4ba(%rip),%rax        # 29b00 <crc32_tab>
    b646:	8b 04 02             	mov    (%rdx,%rax,1),%eax
    b649:	31 c8                	xor    %ecx,%eax
    b64b:	89 05 cf 89 01 00    	mov    %eax,0x189cf(%rip)        # 24020 <crc32_context>
    b651:	90                   	nop
    b652:	5d                   	pop    %rbp
    b653:	c3                   	retq   

000000000000b654 <crc32_8bytes>:
    b654:	f3 0f 1e fa          	endbr64 
    b658:	55                   	push   %rbp
    b659:	48 89 e5             	mov    %rsp,%rbp
    b65c:	48 83 ec 08          	sub    $0x8,%rsp
    b660:	48 89 7d f8          	mov    %rdi,-0x8(%rbp)
    b664:	48 8b 45 f8          	mov    -0x8(%rbp),%rax
    b668:	0f b6 c0             	movzbl %al,%eax
    b66b:	89 c7                	mov    %eax,%edi
    b66d:	e8 9c ff ff ff       	callq  b60e <crc32_byte>
    b672:	48 8b 45 f8          	mov    -0x8(%rbp),%rax
    b676:	48 c1 e8 08          	shr    $0x8,%rax
    b67a:	0f b6 c0             	movzbl %al,%eax
    b67d:	89 c7                	mov    %eax,%edi
    b67f:	e8 8a ff ff ff       	callq  b60e <crc32_byte>
    b684:	48 8b 45 f8          	mov    -0x8(%rbp),%rax
    b688:	48 c1 e8 10          	shr    $0x10,%rax
    b68c:	0f b6 c0             	movzbl %al,%eax
    b68f:	89 c7                	mov    %eax,%edi
    b691:	e8 78 ff ff ff       	callq  b60e <crc32_byte>
    b696:	48 8b 45 f8          	mov    -0x8(%rbp),%rax
    b69a:	48 c1 e8 18          	shr    $0x18,%rax
    b69e:	0f b6 c0             	movzbl %al,%eax
    b6a1:	89 c7                	mov    %eax,%edi
    b6a3:	e8 66 ff ff ff       	callq  b60e <crc32_byte>
    b6a8:	48 8b 45 f8          	mov    -0x8(%rbp),%rax
    b6ac:	48 c1 e8 20          	shr    $0x20,%rax
    b6b0:	0f b6 c0             	movzbl %al,%eax
    b6b3:	89 c7                	mov    %eax,%edi
    b6b5:	e8 54 ff ff ff       	callq  b60e <crc32_byte>
    b6ba:	48 8b 45 f8          	mov    -0x8(%rbp),%rax
    b6be:	48 c1 e8 28          	shr    $0x28,%rax
    b6c2:	0f b6 c0             	movzbl %al,%eax
    b6c5:	89 c7                	mov    %eax,%edi
    b6c7:	e8 42 ff ff ff       	callq  b60e <crc32_byte>
    b6cc:	48 8b 45 f8          	mov    -0x8(%rbp),%rax
    b6d0:	48 c1 e8 30          	shr    $0x30,%rax
    b6d4:	0f b6 c0             	movzbl %al,%eax
    b6d7:	89 c7                	mov    %eax,%edi
    b6d9:	e8 30 ff ff ff       	callq  b60e <crc32_byte>
    b6de:	48 8b 45 f8          	mov    -0x8(%rbp),%rax
    b6e2:	48 c1 e8 38          	shr    $0x38,%rax
    b6e6:	0f b6 c0             	movzbl %al,%eax
    b6e9:	89 c7                	mov    %eax,%edi
    b6eb:	e8 1e ff ff ff       	callq  b60e <crc32_byte>
    b6f0:	90                   	nop
    b6f1:	c9                   	leaveq 
    b6f2:	c3                   	retq   

000000000000b6f3 <transparent_crc>:
    b6f3:	f3 0f 1e fa          	endbr64 
    b6f7:	55                   	push   %rbp
    b6f8:	48 89 e5             	mov    %rsp,%rbp
    b6fb:	48 83 ec 20          	sub    $0x20,%rsp
    b6ff:	48 89 7d f8          	mov    %rdi,-0x8(%rbp)
    b703:	48 89 75 f0          	mov    %rsi,-0x10(%rbp)
    b707:	89 55 ec             	mov    %edx,-0x14(%rbp)
    b70a:	48 8b 45 f8          	mov    -0x8(%rbp),%rax
    b70e:	48 89 c7             	mov    %rax,%rdi
    b711:	e8 3e ff ff ff       	callq  b654 <crc32_8bytes>
    b716:	83 7d ec 00          	cmpl   $0x0,-0x14(%rbp)
    b71a:	74 22                	je     b73e <transparent_crc+0x4b>
    b71c:	8b 05 fe 88 01 00    	mov    0x188fe(%rip),%eax        # 24020 <crc32_context>
    b722:	f7 d0                	not    %eax
    b724:	89 c2                	mov    %eax,%edx
    b726:	48 8b 45 f0          	mov    -0x10(%rbp),%rax
    b72a:	48 89 c6             	mov    %rax,%rsi
    b72d:	48 8d 3d fc 28 01 00 	lea    0x128fc(%rip),%rdi        # 1e030 <_IO_stdin_used+0x30>
    b734:	b8 00 00 00 00       	mov    $0x0,%eax
    b739:	e8 42 e9 ff ff       	callq  a080 <printf@plt>
    b73e:	90                   	nop
    b73f:	c9                   	leaveq 
    b740:	c3                   	retq   

000000000000b741 <transparent_crc_bytes>:
    b741:	f3 0f 1e fa          	endbr64 
    b745:	55                   	push   %rbp
    b746:	48 89 e5             	mov    %rsp,%rbp
    b749:	48 83 ec 30          	sub    $0x30,%rsp
    b74d:	48 89 7d e8          	mov    %rdi,-0x18(%rbp)
    b751:	89 75 e4             	mov    %esi,-0x1c(%rbp)
    b754:	48 89 55 d8          	mov    %rdx,-0x28(%rbp)
    b758:	89 4d e0             	mov    %ecx,-0x20(%rbp)
    b75b:	c7 45 fc 00 00 00 00 	movl   $0x0,-0x4(%rbp)
    b762:	eb 1e                	jmp    b782 <transparent_crc_bytes+0x41>
    b764:	8b 45 fc             	mov    -0x4(%rbp),%eax
    b767:	48 63 d0             	movslq %eax,%rdx
    b76a:	48 8b 45 e8          	mov    -0x18(%rbp),%rax
    b76e:	48 01 d0             	add    %rdx,%rax
    b771:	0f b6 00             	movzbl (%rax),%eax
    b774:	0f b6 c0             	movzbl %al,%eax
    b777:	89 c7                	mov    %eax,%edi
    b779:	e8 90 fe ff ff       	callq  b60e <crc32_byte>
    b77e:	83 45 fc 01          	addl   $0x1,-0x4(%rbp)
    b782:	8b 45 fc             	mov    -0x4(%rbp),%eax
    b785:	3b 45 e4             	cmp    -0x1c(%rbp),%eax
    b788:	7c da                	jl     b764 <transparent_crc_bytes+0x23>
    b78a:	83 7d e0 00          	cmpl   $0x0,-0x20(%rbp)
    b78e:	74 22                	je     b7b2 <transparent_crc_bytes+0x71>
    b790:	8b 05 8a 88 01 00    	mov    0x1888a(%rip),%eax        # 24020 <crc32_context>
    b796:	f7 d0                	not    %eax
    b798:	89 c2                	mov    %eax,%edx
    b79a:	48 8b 45 d8          	mov    -0x28(%rbp),%rax
    b79e:	48 89 c6             	mov    %rax,%rsi
    b7a1:	48 8d 3d 88 28 01 00 	lea    0x12888(%rip),%rdi        # 1e030 <_IO_stdin_used+0x30>
    b7a8:	b8 00 00 00 00       	mov    $0x0,%eax
    b7ad:	e8 ce e8 ff ff       	callq  a080 <printf@plt>
    b7b2:	90                   	nop
    b7b3:	c9                   	leaveq 
    b7b4:	c3                   	retq   

000000000000b7b5 <func_1>:
    b7b5:	f3 0f 1e fa          	endbr64 
    b7b9:	55                   	push   %rbp
    b7ba:	48 89 e5             	mov    %rsp,%rbp
    b7bd:	41 57                	push   %r15
    b7bf:	41 56                	push   %r14
    b7c1:	41 55                	push   %r13
    b7c3:	41 54                	push   %r12
    b7c5:	53                   	push   %rbx
    b7c6:	48 81 ec a8 0e 00 00 	sub    $0xea8,%rsp
    b7cd:	48 89 bd 38 f1 ff ff 	mov    %rdi,-0xec8(%rbp)
    b7d4:	64 48 8b 04 25 28 00 	mov    %fs:0x28,%rax
    b7db:	00 00 
    b7dd:	48 89 45 c8          	mov    %rax,-0x38(%rbp)
    b7e1:	31 c0                	xor    %eax,%eax
    b7e3:	48 8d 05 46 88 01 00 	lea    0x18846(%rip),%rax        # 24030 <g_8>
    b7ea:	48 89 85 c8 f2 ff ff 	mov    %rax,-0xd38(%rbp)
    b7f1:	48 8d 05 3a 88 01 00 	lea    0x1883a(%rip),%rax        # 24032 <g_16>
    b7f8:	48 89 85 d0 f2 ff ff 	mov    %rax,-0xd30(%rbp)
    b7ff:	48 8d 05 5a 9d 01 00 	lea    0x19d5a(%rip),%rax        # 25560 <g_3287>
    b806:	48 89 85 48 f2 ff ff 	mov    %rax,-0xdb8(%rbp)
    b80d:	c7 85 58 f1 ff ff ff 	movl   $0xffffffff,-0xea8(%rbp)
    b814:	ff ff ff 
    b817:	48 8d 05 c2 cc 01 00 	lea    0x1ccc2(%rip),%rax        # 284e0 <g_882>
    b81e:	48 89 85 50 f2 ff ff 	mov    %rax,-0xdb0(%rbp)
    b825:	48 8d 05 6e 88 01 00 	lea    0x1886e(%rip),%rax        # 2409a <g_98>
    b82c:	48 89 85 d8 f2 ff ff 	mov    %rax,-0xd28(%rbp)
    b833:	48 b8 07 49 69 e2 46 	movabs $0x8ea2ae46e2694907,%rax
    b83a:	ae a2 8e 
    b83d:	48 89 85 d0 f6 ff ff 	mov    %rax,-0x930(%rbp)
    b844:	48 bb 0a ce d7 da 9e 	movabs $0x31e0d99edad7ce0a,%rbx
    b84b:	d9 e0 31 
    b84e:	48 89 9d d8 f6 ff ff 	mov    %rbx,-0x928(%rbp)
    b855:	48 89 85 e0 f6 ff ff 	mov    %rax,-0x920(%rbp)
    b85c:	48 89 9d e8 f6 ff ff 	mov    %rbx,-0x918(%rbp)
    b863:	48 89 85 f0 f6 ff ff 	mov    %rax,-0x910(%rbp)
    b86a:	48 89 9d f8 f6 ff ff 	mov    %rbx,-0x908(%rbp)
    b871:	48 89 85 00 f7 ff ff 	mov    %rax,-0x900(%rbp)
    b878:	48 89 9d 08 f7 ff ff 	mov    %rbx,-0x8f8(%rbp)
    b87f:	48 89 85 10 f7 ff ff 	mov    %rax,-0x8f0(%rbp)
    b886:	48 89 9d 18 f7 ff ff 	mov    %rbx,-0x8e8(%rbp)
    b88d:	48 89 85 20 f7 ff ff 	mov    %rax,-0x8e0(%rbp)
    b894:	48 89 9d 28 f7 ff ff 	mov    %rbx,-0x8d8(%rbp)
    b89b:	48 89 85 30 f7 ff ff 	mov    %rax,-0x8d0(%rbp)
    b8a2:	48 89 9d 38 f7 ff ff 	mov    %rbx,-0x8c8(%rbp)
    b8a9:	48 89 85 40 f7 ff ff 	mov    %rax,-0x8c0(%rbp)
    b8b0:	48 89 9d 48 f7 ff ff 	mov    %rbx,-0x8b8(%rbp)
    b8b7:	48 89 85 50 f7 ff ff 	mov    %rax,-0x8b0(%rbp)
    b8be:	48 89 9d 58 f7 ff ff 	mov    %rbx,-0x8a8(%rbp)
    b8c5:	48 89 85 60 f7 ff ff 	mov    %rax,-0x8a0(%rbp)
    b8cc:	48 89 9d 68 f7 ff ff 	mov    %rbx,-0x898(%rbp)
    b8d3:	48 89 85 70 f7 ff ff 	mov    %rax,-0x890(%rbp)
    b8da:	48 89 9d 78 f7 ff ff 	mov    %rbx,-0x888(%rbp)
    b8e1:	48 89 85 80 f7 ff ff 	mov    %rax,-0x880(%rbp)
    b8e8:	48 89 9d 88 f7 ff ff 	mov    %rbx,-0x878(%rbp)
    b8ef:	48 89 85 90 f7 ff ff 	mov    %rax,-0x870(%rbp)
    b8f6:	48 89 9d 98 f7 ff ff 	mov    %rbx,-0x868(%rbp)
    b8fd:	48 89 85 a0 f7 ff ff 	mov    %rax,-0x860(%rbp)
    b904:	48 89 9d a8 f7 ff ff 	mov    %rbx,-0x858(%rbp)
    b90b:	48 89 85 b0 f7 ff ff 	mov    %rax,-0x850(%rbp)
    b912:	48 89 9d b8 f7 ff ff 	mov    %rbx,-0x848(%rbp)
    b919:	48 89 85 c0 f7 ff ff 	mov    %rax,-0x840(%rbp)
    b920:	48 89 9d c8 f7 ff ff 	mov    %rbx,-0x838(%rbp)
    b927:	66 c7 85 50 f1 ff ff 	movw   $0xae13,-0xeb0(%rbp)
    b92e:	13 ae 
    b930:	c7 85 5c f1 ff ff 07 	movl   $0x7,-0xea4(%rbp)
    b937:	00 00 00 
    b93a:	48 8d 05 4f e7 01 00 	lea    0x1e74f(%rip),%rax        # 2a090 <g_2377>
    b941:	48 89 85 58 f2 ff ff 	mov    %rax,-0xda8(%rbp)
    b948:	c7 85 c4 f1 ff ff 00 	movl   $0x0,-0xe3c(%rbp)
    b94f:	00 00 00 
    b952:	48 8d 05 87 cb 01 00 	lea    0x1cb87(%rip),%rax        # 284e0 <g_882>
    b959:	48 89 85 60 f2 ff ff 	mov    %rax,-0xda0(%rbp)
    b960:	48 c7 85 e0 f4 ff ff 	movq   $0x0,-0xb20(%rbp)
    b967:	00 00 00 00 
    b96b:	48 8d 85 60 f2 ff ff 	lea    -0xda0(%rbp),%rax
    b972:	48 89 85 e8 f4 ff ff 	mov    %rax,-0xb18(%rbp)
    b979:	48 c7 85 f0 f4 ff ff 	movq   $0x0,-0xb10(%rbp)
    b980:	00 00 00 00 
    b984:	48 c7 85 f8 f4 ff ff 	movq   $0x0,-0xb08(%rbp)
    b98b:	00 00 00 00 
    b98f:	48 8d 85 60 f2 ff ff 	lea    -0xda0(%rbp),%rax
    b996:	48 89 85 00 f5 ff ff 	mov    %rax,-0xb00(%rbp)
    b99d:	48 c7 85 08 f5 ff ff 	movq   $0x0,-0xaf8(%rbp)
    b9a4:	00 00 00 00 
    b9a8:	48 c7 85 10 f5 ff ff 	movq   $0x0,-0xaf0(%rbp)
    b9af:	00 00 00 00 
    b9b3:	48 8d 85 60 f2 ff ff 	lea    -0xda0(%rbp),%rax
    b9ba:	48 89 85 18 f5 ff ff 	mov    %rax,-0xae8(%rbp)
    b9c1:	48 c7 85 20 f5 ff ff 	movq   $0x0,-0xae0(%rbp)
    b9c8:	00 00 00 00 
    b9cc:	48 c7 85 28 f5 ff ff 	movq   $0x0,-0xad8(%rbp)
    b9d3:	00 00 00 00 
    b9d7:	48 8d 85 e0 f4 ff ff 	lea    -0xb20(%rbp),%rax
    b9de:	48 83 c0 40          	add    $0x40,%rax
    b9e2:	48 89 85 68 f2 ff ff 	mov    %rax,-0xd98(%rbp)
    b9e9:	48 8d 85 68 f2 ff ff 	lea    -0xd98(%rbp),%rax
    b9f0:	48 89 85 e0 f2 ff ff 	mov    %rax,-0xd20(%rbp)
    b9f7:	c7 85 60 f1 ff ff 92 	movl   $0xcb6e8892,-0xea0(%rbp)
    b9fe:	88 6e cb 
    ba01:	c7 85 d0 f1 ff ff 5d 	movl   $0x5a6dee5d,-0xe30(%rbp)
    ba08:	ee 6d 5a 
    ba0b:	c7 85 64 f1 ff ff f9 	movl   $0xfffffff9,-0xe9c(%rbp)
    ba12:	ff ff ff 
    ba15:	c7 85 68 f1 ff ff 01 	movl   $0x1,-0xe98(%rbp)
    ba1c:	00 00 00 
    ba1f:	c7 85 6c f1 ff ff e4 	movl   $0x10031ce4,-0xe94(%rbp)
    ba26:	1c 03 10 
    ba29:	48 8d 85 6c f1 ff ff 	lea    -0xe94(%rbp),%rax
    ba30:	48 89 85 e8 f2 ff ff 	mov    %rax,-0xd18(%rbp)
    ba37:	66 c7 85 52 f1 ff ff 	movw   $0xf977,-0xeae(%rbp)
    ba3e:	77 f9 
    ba40:	48 8d 85 48 f2 ff ff 	lea    -0xdb8(%rbp),%rax
    ba47:	48 89 85 70 f2 ff ff 	mov    %rax,-0xd90(%rbp)
    ba4e:	48 8d 85 70 f2 ff ff 	lea    -0xd90(%rbp),%rax
    ba55:	48 89 85 78 f2 ff ff 	mov    %rax,-0xd88(%rbp)
    ba5c:	48 8d 85 78 f2 ff ff 	lea    -0xd88(%rbp),%rax
    ba63:	48 89 85 f0 f2 ff ff 	mov    %rax,-0xd10(%rbp)
    ba6a:	48 8d 05 ff d9 01 00 	lea    0x1d9ff(%rip),%rax        # 29470 <g_1350>
    ba71:	48 89 85 80 f2 ff ff 	mov    %rax,-0xd80(%rbp)
    ba78:	48 8d 85 20 f9 ff ff 	lea    -0x6e0(%rbp),%rax
    ba7f:	48 8d 15 3a 27 01 00 	lea    0x1273a(%rip),%rdx        # 1e1c0 <g_3175+0x1c>
    ba86:	b9 2d 00 00 00       	mov    $0x2d,%ecx
    ba8b:	48 89 c7             	mov    %rax,%rdi
    ba8e:	48 89 d6             	mov    %rdx,%rsi
    ba91:	f3 48 a5             	rep movsq %ds:(%rsi),%es:(%rdi)
    ba94:	48 8d 85 58 f2 ff ff 	lea    -0xda8(%rbp),%rax
    ba9b:	48 89 85 20 f6 ff ff 	mov    %rax,-0x9e0(%rbp)
    baa2:	48 8d 85 58 f2 ff ff 	lea    -0xda8(%rbp),%rax
    baa9:	48 89 85 28 f6 ff ff 	mov    %rax,-0x9d8(%rbp)
    bab0:	48 8d 85 58 f2 ff ff 	lea    -0xda8(%rbp),%rax
    bab7:	48 89 85 30 f6 ff ff 	mov    %rax,-0x9d0(%rbp)
    babe:	48 8d 85 58 f2 ff ff 	lea    -0xda8(%rbp),%rax
    bac5:	48 89 85 38 f6 ff ff 	mov    %rax,-0x9c8(%rbp)
    bacc:	48 8d 85 58 f2 ff ff 	lea    -0xda8(%rbp),%rax
    bad3:	48 89 85 40 f6 ff ff 	mov    %rax,-0x9c0(%rbp)
    bada:	48 8d 85 58 f2 ff ff 	lea    -0xda8(%rbp),%rax
    bae1:	48 89 85 48 f6 ff ff 	mov    %rax,-0x9b8(%rbp)
    bae8:	48 8d 85 58 f2 ff ff 	lea    -0xda8(%rbp),%rax
    baef:	48 89 85 50 f6 ff ff 	mov    %rax,-0x9b0(%rbp)
    baf6:	48 8d 85 58 f2 ff ff 	lea    -0xda8(%rbp),%rax
    bafd:	48 89 85 58 f6 ff ff 	mov    %rax,-0x9a8(%rbp)
    bb04:	48 8d 85 58 f2 ff ff 	lea    -0xda8(%rbp),%rax
    bb0b:	48 89 85 60 f6 ff ff 	mov    %rax,-0x9a0(%rbp)
    bb12:	48 8d 85 58 f2 ff ff 	lea    -0xda8(%rbp),%rax
    bb19:	48 89 85 68 f6 ff ff 	mov    %rax,-0x998(%rbp)
    bb20:	48 8d 85 58 f2 ff ff 	lea    -0xda8(%rbp),%rax
    bb27:	48 89 85 70 f6 ff ff 	mov    %rax,-0x990(%rbp)
    bb2e:	48 8d 85 58 f2 ff ff 	lea    -0xda8(%rbp),%rax
    bb35:	48 89 85 78 f6 ff ff 	mov    %rax,-0x988(%rbp)
    bb3c:	48 8d 85 58 f2 ff ff 	lea    -0xda8(%rbp),%rax
    bb43:	48 89 85 80 f6 ff ff 	mov    %rax,-0x980(%rbp)
    bb4a:	48 8d 85 58 f2 ff ff 	lea    -0xda8(%rbp),%rax
    bb51:	48 89 85 88 f6 ff ff 	mov    %rax,-0x978(%rbp)
    bb58:	48 8d 85 58 f2 ff ff 	lea    -0xda8(%rbp),%rax
    bb5f:	48 89 85 90 f6 ff ff 	mov    %rax,-0x970(%rbp)
    bb66:	48 8d 85 58 f2 ff ff 	lea    -0xda8(%rbp),%rax
    bb6d:	48 89 85 98 f6 ff ff 	mov    %rax,-0x968(%rbp)
    bb74:	48 8d 85 58 f2 ff ff 	lea    -0xda8(%rbp),%rax
    bb7b:	48 89 85 a0 f6 ff ff 	mov    %rax,-0x960(%rbp)
    bb82:	48 8d 85 58 f2 ff ff 	lea    -0xda8(%rbp),%rax
    bb89:	48 89 85 a8 f6 ff ff 	mov    %rax,-0x958(%rbp)
    bb90:	48 8d 85 58 f2 ff ff 	lea    -0xda8(%rbp),%rax
    bb97:	48 89 85 b0 f6 ff ff 	mov    %rax,-0x950(%rbp)
    bb9e:	48 8d 85 58 f2 ff ff 	lea    -0xda8(%rbp),%rax
    bba5:	48 89 85 b8 f6 ff ff 	mov    %rax,-0x948(%rbp)
    bbac:	48 8d 85 58 f2 ff ff 	lea    -0xda8(%rbp),%rax
    bbb3:	48 89 85 c0 f6 ff ff 	mov    %rax,-0x940(%rbp)
    bbba:	48 8d 85 20 f6 ff ff 	lea    -0x9e0(%rbp),%rax
    bbc1:	48 83 c0 10          	add    $0x10,%rax
    bbc5:	48 89 85 30 f5 ff ff 	mov    %rax,-0xad0(%rbp)
    bbcc:	48 8d 85 20 f6 ff ff 	lea    -0x9e0(%rbp),%rax
    bbd3:	48 83 c0 10          	add    $0x10,%rax
    bbd7:	48 89 85 38 f5 ff ff 	mov    %rax,-0xac8(%rbp)
    bbde:	48 8d 85 20 f6 ff ff 	lea    -0x9e0(%rbp),%rax
    bbe5:	48 83 c0 10          	add    $0x10,%rax
    bbe9:	48 89 85 40 f5 ff ff 	mov    %rax,-0xac0(%rbp)
    bbf0:	48 8d 85 20 f6 ff ff 	lea    -0x9e0(%rbp),%rax
    bbf7:	48 83 c0 10          	add    $0x10,%rax
    bbfb:	48 89 85 48 f5 ff ff 	mov    %rax,-0xab8(%rbp)
    bc02:	48 8d 85 20 f6 ff ff 	lea    -0x9e0(%rbp),%rax
    bc09:	48 83 c0 10          	add    $0x10,%rax
    bc0d:	48 89 85 50 f5 ff ff 	mov    %rax,-0xab0(%rbp)
    bc14:	48 8d 85 20 f6 ff ff 	lea    -0x9e0(%rbp),%rax
    bc1b:	48 83 c0 10          	add    $0x10,%rax
    bc1f:	48 89 85 58 f5 ff ff 	mov    %rax,-0xaa8(%rbp)
    bc26:	48 8d 85 20 f6 ff ff 	lea    -0x9e0(%rbp),%rax
    bc2d:	48 83 c0 10          	add    $0x10,%rax
    bc31:	48 89 85 60 f5 ff ff 	mov    %rax,-0xaa0(%rbp)
    bc38:	48 8d 85 20 f6 ff ff 	lea    -0x9e0(%rbp),%rax
    bc3f:	48 83 c0 10          	add    $0x10,%rax
    bc43:	48 89 85 68 f5 ff ff 	mov    %rax,-0xa98(%rbp)
    bc4a:	48 8d 85 20 f6 ff ff 	lea    -0x9e0(%rbp),%rax
    bc51:	48 83 c0 10          	add    $0x10,%rax
    bc55:	48 89 85 70 f5 ff ff 	mov    %rax,-0xa90(%rbp)
    bc5c:	48 8d 85 20 f6 ff ff 	lea    -0x9e0(%rbp),%rax
    bc63:	48 83 c0 10          	add    $0x10,%rax
    bc67:	48 89 85 78 f5 ff ff 	mov    %rax,-0xa88(%rbp)
    bc6e:	48 8d 85 20 f6 ff ff 	lea    -0x9e0(%rbp),%rax
    bc75:	48 83 c0 10          	add    $0x10,%rax
    bc79:	48 89 85 80 f5 ff ff 	mov    %rax,-0xa80(%rbp)
    bc80:	48 8d 85 20 f6 ff ff 	lea    -0x9e0(%rbp),%rax
    bc87:	48 83 c0 10          	add    $0x10,%rax
    bc8b:	48 89 85 88 f5 ff ff 	mov    %rax,-0xa78(%rbp)
    bc92:	48 8d 05 af 88 01 00 	lea    0x188af(%rip),%rax        # 24548 <g_954>
    bc99:	48 89 85 f8 f2 ff ff 	mov    %rax,-0xd08(%rbp)
    bca0:	48 c7 85 88 f2 ff ff 	movq   $0x0,-0xd78(%rbp)
    bca7:	00 00 00 00 
    bcab:	48 8d 85 88 f2 ff ff 	lea    -0xd78(%rbp),%rax
    bcb2:	48 89 85 00 f3 ff ff 	mov    %rax,-0xd00(%rbp)
    bcb9:	48 c7 85 08 f3 ff ff 	movq   $0x0,-0xcf8(%rbp)
    bcc0:	00 00 00 00 
    bcc4:	c7 85 c8 f1 ff ff 00 	movl   $0x0,-0xe38(%rbp)
    bccb:	00 00 00 
    bcce:	eb 1a                	jmp    bcea <func_1+0x535>
    bcd0:	8b 85 c8 f1 ff ff    	mov    -0xe38(%rbp),%eax
    bcd6:	48 98                	cltq   
    bcd8:	c7 84 85 08 f4 ff ff 	movl   $0x4f6b397,-0xbf8(%rbp,%rax,4)
    bcdf:	97 b3 f6 04 
    bce3:	83 85 c8 f1 ff ff 01 	addl   $0x1,-0xe38(%rbp)
    bcea:	83 bd c8 f1 ff ff 02 	cmpl   $0x2,-0xe38(%rbp)
    bcf1:	7e dd                	jle    bcd0 <func_1+0x51b>
    bcf3:	48 8b 85 c8 f2 ff ff 	mov    -0xd38(%rbp),%rax
    bcfa:	0f b7 00             	movzwl (%rax),%eax
    bcfd:	8d 48 01             	lea    0x1(%rax),%ecx
    bd00:	48 8b 95 c8 f2 ff ff 	mov    -0xd38(%rbp),%rdx
    bd07:	66 89 0a             	mov    %cx,(%rdx)
    bd0a:	66 85 c0             	test   %ax,%ax
    bd0d:	75 24                	jne    bd33 <func_1+0x57e>
    bd0f:	48 8b 05 12 83 01 00 	mov    0x18312(%rip),%rax        # 24028 <g_6>
    bd16:	0f b6 c0             	movzbl %al,%eax
    bd19:	48 8b 95 d0 f2 ff ff 	mov    -0xd30(%rbp),%rdx
    bd20:	48 8d 35 09 83 01 00 	lea    0x18309(%rip),%rsi        # 24030 <g_8>
    bd27:	89 c7                	mov    %eax,%edi
    bd29:	e8 ee 27 00 00       	callq  e51c <func_11>
    bd2e:	66 85 c0             	test   %ax,%ax
    bd31:	74 07                	je     bd3a <func_1+0x585>
    bd33:	b8 01 00 00 00       	mov    $0x1,%eax
    bd38:	eb 05                	jmp    bd3f <func_1+0x58a>
    bd3a:	b8 00 00 00 00       	mov    $0x0,%eax
    bd3f:	89 c6                	mov    %eax,%esi
    bd41:	bf f8 ff ff ff       	mov    $0xfffffff8,%edi
    bd46:	e8 61 27 00 00       	callq  e4ac <func_2>
    bd4b:	48 89 85 48 f2 ff ff 	mov    %rax,-0xdb8(%rbp)
    bd52:	48 8b 05 8f dc 01 00 	mov    0x1dc8f(%rip),%rax        # 299e8 <g_2671>
    bd59:	8b 18                	mov    (%rax),%ebx
    bd5b:	48 8b 85 78 f7 ff ff 	mov    -0x888(%rbp),%rax
    bd62:	44 0f bf e0          	movswl %ax,%r12d
    bd66:	48 8b 85 88 f7 ff ff 	mov    -0x878(%rbp),%rax
    bd6d:	41 89 c6             	mov    %eax,%r14d
    bd70:	48 8b 85 c0 f7 ff ff 	mov    -0x840(%rbp),%rax
    bd77:	41 89 c7             	mov    %eax,%r15d
    bd7a:	8b 85 58 f1 ff ff    	mov    -0xea8(%rbp),%eax
    bd80:	44 0f b7 e8          	movzwl %ax,%r13d
    bd84:	48 8b 85 50 f2 ff ff 	mov    -0xdb0(%rbp),%rax
    bd8b:	48 85 c0             	test   %rax,%rax
    bd8e:	0f 94 c0             	sete   %al
    bd91:	89 c2                	mov    %eax,%edx
    bd93:	8b 85 58 f1 ff ff    	mov    -0xea8(%rbp),%eax
    bd99:	31 d0                	xor    %edx,%eax
    bd9b:	0f b6 d0             	movzbl %al,%edx
    bd9e:	8b 05 74 87 01 00    	mov    0x18774(%rip),%eax        # 24518 <g_849>
    bda4:	0f b6 c0             	movzbl %al,%eax
    bda7:	89 d6                	mov    %edx,%esi
    bda9:	89 c7                	mov    %eax,%edi
    bdab:	e8 2b ee ff ff       	callq  abdb <safe_div_func_uint8_t_u_u>
    bdb0:	44 89 ee             	mov    %r13d,%esi
    bdb3:	bf 00 00 00 00       	mov    $0x0,%edi
    bdb8:	e8 42 ef ff ff       	callq  acff <safe_add_func_uint16_t_u_u>
    bdbd:	66 85 c0             	test   %ax,%ax
    bdc0:	74 16                	je     bdd8 <func_1+0x623>
    bdc2:	48 8b 05 17 c6 01 00 	mov    0x1c617(%rip),%rax        # 283e0 <g_421>
    bdc9:	0f b7 00             	movzwl (%rax),%eax
    bdcc:	66 85 c0             	test   %ax,%ax
    bdcf:	74 07                	je     bdd8 <func_1+0x623>
    bdd1:	ba 01 00 00 00       	mov    $0x1,%edx
    bdd6:	eb 05                	jmp    bddd <func_1+0x628>
    bdd8:	ba 00 00 00 00       	mov    $0x0,%edx
    bddd:	48 8b 85 d8 f2 ff ff 	mov    -0xd28(%rbp),%rax
    bde4:	0f b7 00             	movzwl (%rax),%eax
    bde7:	21 c2                	and    %eax,%edx
    bde9:	48 8b 85 d8 f2 ff ff 	mov    -0xd28(%rbp),%rax
    bdf0:	66 89 10             	mov    %dx,(%rax)
    bdf3:	48 8b 85 d8 f2 ff ff 	mov    -0xd28(%rbp),%rax
    bdfa:	0f b7 00             	movzwl (%rax),%eax
    bdfd:	0f bf d0             	movswl %ax,%edx
    be00:	8b 85 58 f1 ff ff    	mov    -0xea8(%rbp),%eax
    be06:	0f b7 c0             	movzwl %ax,%eax
    be09:	89 d6                	mov    %edx,%esi
    be0b:	89 c7                	mov    %eax,%edi
    be0d:	e8 36 f0 ff ff       	callq  ae48 <safe_rshift_func_uint16_t_u_s>
    be12:	0f b7 d0             	movzwl %ax,%edx
    be15:	8b 85 58 f1 ff ff    	mov    -0xea8(%rbp),%eax
    be1b:	39 c2                	cmp    %eax,%edx
    be1d:	0f 95 c0             	setne  %al
    be20:	0f b6 d0             	movzbl %al,%edx
    be23:	8b 85 58 f1 ff ff    	mov    -0xea8(%rbp),%eax
    be29:	48 98                	cltq   
    be2b:	48 89 d6             	mov    %rdx,%rsi
    be2e:	48 89 c7             	mov    %rax,%rdi
    be31:	e8 0b ea ff ff       	callq  a841 <safe_add_func_int64_t_s_s>
    be36:	48 8b 85 78 f7 ff ff 	mov    -0x888(%rbp),%rax
    be3d:	48 89 c2             	mov    %rax,%rdx
    be40:	48 8b 05 e1 81 01 00 	mov    0x181e1(%rip),%rax        # 24028 <g_6>
    be47:	48 89 d6             	mov    %rdx,%rsi
    be4a:	48 89 c7             	mov    %rax,%rdi
    be4d:	e8 5d f2 ff ff       	callq  b0af <safe_div_func_uint64_t_u_u>
    be52:	89 85 34 f1 ff ff    	mov    %eax,-0xecc(%rbp)
    be58:	48 8b 05 a9 82 01 00 	mov    0x182a9(%rip),%rax        # 24108 <g_261>
    be5f:	44 0f b6 e8          	movzbl %al,%r13d
    be63:	48 be 6b e0 c1 3c f6 	movabs $0x249399f63cc1e06b,%rsi
    be6a:	99 93 24 
    be6d:	48 bf 86 29 c4 81 82 	movabs $0x32d7058281c42986,%rdi
    be74:	05 d7 32 
    be77:	e8 c5 e9 ff ff       	callq  a841 <safe_add_func_int64_t_s_s>
    be7c:	0f b6 c0             	movzbl %al,%eax
    be7f:	44 89 ee             	mov    %r13d,%esi
    be82:	89 c7                	mov    %eax,%edi
    be84:	e8 25 ed ff ff       	callq  abae <safe_mod_func_uint8_t_u_u>
    be89:	0f b6 c0             	movzbl %al,%eax
    be8c:	8b b5 34 f1 ff ff    	mov    -0xecc(%rbp),%esi
    be92:	89 c7                	mov    %eax,%edi
    be94:	e8 8c f0 ff ff       	callq  af25 <safe_div_func_uint32_t_u_u>
    be99:	44 89 fe             	mov    %r15d,%esi
    be9c:	bf 00 00 00 00       	mov    $0x0,%edi
    bea1:	e8 12 f0 ff ff       	callq  aeb8 <safe_add_func_uint32_t_u_u>
    bea6:	0f b7 95 50 f1 ff ff 	movzwl -0xeb0(%rbp),%edx
    bead:	39 d0                	cmp    %edx,%eax
    beaf:	0f 96 c2             	setbe  %dl
    beb2:	48 8b 05 0f c7 01 00 	mov    0x1c70f(%rip),%rax        # 285c8 <g_1097>
    beb9:	88 10                	mov    %dl,(%rax)
    bebb:	0f b6 00             	movzbl (%rax),%eax
    bebe:	0f be c0             	movsbl %al,%eax
    bec1:	89 85 58 f1 ff ff    	mov    %eax,-0xea8(%rbp)
    bec7:	8b 85 58 f1 ff ff    	mov    -0xea8(%rbp),%eax
    becd:	89 85 5c f1 ff ff    	mov    %eax,-0xea4(%rbp)
    bed3:	8b 85 5c f1 ff ff    	mov    -0xea4(%rbp),%eax
    bed9:	0f be c0             	movsbl %al,%eax
    bedc:	44 89 f6             	mov    %r14d,%esi
    bedf:	89 c7                	mov    %eax,%edi
    bee1:	e8 4f e4 ff ff       	callq  a335 <safe_rshift_func_int8_t_s_s>
    bee6:	0f be c0             	movsbl %al,%eax
    bee9:	44 89 e6             	mov    %r12d,%esi
    beec:	89 c7                	mov    %eax,%edi
    beee:	e8 62 e5 ff ff       	callq  a455 <safe_div_func_int16_t_s_s>
    bef3:	89 c2                	mov    %eax,%edx
    bef5:	48 8b 85 58 f2 ff ff 	mov    -0xda8(%rbp),%rax
    befc:	0f bf d2             	movswl %dx,%edx
    beff:	89 10                	mov    %edx,(%rax)
    bf01:	48 8b 85 98 f7 ff ff 	mov    -0x868(%rbp),%rax
    bf08:	0f b7 c0             	movzwl %ax,%eax
    bf0b:	be f4 81 00 00       	mov    $0x81f4,%esi
    bf10:	89 c7                	mov    %eax,%edi
    bf12:	e8 26 ee ff ff       	callq  ad3d <safe_mul_func_uint16_t_u_u>
    bf17:	0f b7 c0             	movzwl %ax,%eax
    bf1a:	89 05 28 86 01 00    	mov    %eax,0x18628(%rip)        # 24548 <g_954>
    bf20:	8b 05 22 86 01 00    	mov    0x18622(%rip),%eax        # 24548 <g_954>
    bf26:	89 de                	mov    %ebx,%esi
    bf28:	89 c7                	mov    %eax,%edi
    bf2a:	e8 89 ef ff ff       	callq  aeb8 <safe_add_func_uint32_t_u_u>
    bf2f:	85 c0                	test   %eax,%eax
    bf31:	0f 84 c2 13 00 00    	je     d2f9 <func_1+0x1b44>
    bf37:	c7 85 70 f1 ff ff d3 	movl   $0xf168c8d3,-0xe90(%rbp)
    bf3e:	c8 68 f1 
    bf41:	c7 85 74 f1 ff ff 89 	movl   $0xc296bc89,-0xe8c(%rbp)
    bf48:	bc 96 c2 
    bf4b:	c6 85 4d f1 ff ff 4c 	movb   $0x4c,-0xeb3(%rbp)
    bf52:	c6 85 48 f1 ff ff ff 	movb   $0xff,-0xeb8(%rbp)
    bf59:	c7 85 0c f2 ff ff ff 	movl   $0xffffffff,-0xdf4(%rbp)
    bf60:	ff ff ff 
    bf63:	48 8d 85 d0 f7 ff ff 	lea    -0x830(%rbp),%rax
    bf6a:	48 8d 15 cf 23 01 00 	lea    0x123cf(%rip),%rdx        # 1e340 <g_3175+0x19c>
    bf71:	b9 2a 00 00 00       	mov    $0x2a,%ecx
    bf76:	48 89 c7             	mov    %rax,%rdi
    bf79:	48 89 d6             	mov    %rdx,%rsi
    bf7c:	f3 48 a5             	rep movsq %ds:(%rsi),%es:(%rdi)
    bf7f:	48 c7 85 90 f2 ff ff 	movq   $0x0,-0xd70(%rbp)
    bf86:	00 00 00 00 
    bf8a:	48 8d 85 90 f4 ff ff 	lea    -0xb70(%rbp),%rax
    bf91:	48 83 c0 28          	add    $0x28,%rax
    bf95:	48 89 85 98 f2 ff ff 	mov    %rax,-0xd68(%rbp)
    bf9c:	48 8d 85 98 f2 ff ff 	lea    -0xd68(%rbp),%rax
    bfa3:	48 89 85 a0 f2 ff ff 	mov    %rax,-0xd60(%rbp)
    bfaa:	48 8d 85 a0 f2 ff ff 	lea    -0xd60(%rbp),%rax
    bfb1:	48 89 85 c0 f3 ff ff 	mov    %rax,-0xc40(%rbp)
    bfb8:	48 8d 05 11 d5 01 00 	lea    0x1d511(%rip),%rax        # 294d0 <g_1568>
    bfbf:	48 89 85 a8 f2 ff ff 	mov    %rax,-0xd58(%rbp)
    bfc6:	48 8d 85 a8 f2 ff ff 	lea    -0xd58(%rbp),%rax
    bfcd:	48 89 85 b0 f2 ff ff 	mov    %rax,-0xd50(%rbp)
    bfd4:	48 8d 85 b0 f2 ff ff 	lea    -0xd50(%rbp),%rax
    bfdb:	48 89 85 c8 f3 ff ff 	mov    %rax,-0xc38(%rbp)
    bfe2:	c7 85 10 f2 ff ff ff 	movl   $0xffffffff,-0xdf0(%rbp)
    bfe9:	ff ff ff 
    bfec:	c7 85 cc f1 ff ff 00 	movl   $0x0,-0xe34(%rbp)
    bff3:	00 00 00 
    bff6:	eb 1e                	jmp    c016 <func_1+0x861>
    bff8:	8b 85 cc f1 ff ff    	mov    -0xe34(%rbp),%eax
    bffe:	48 98                	cltq   
    c000:	48 8d 95 90 f2 ff ff 	lea    -0xd70(%rbp),%rdx
    c007:	48 89 94 c5 90 f4 ff 	mov    %rdx,-0xb70(%rbp,%rax,8)
    c00e:	ff 
    c00f:	83 85 cc f1 ff ff 01 	addl   $0x1,-0xe34(%rbp)
    c016:	83 bd cc f1 ff ff 08 	cmpl   $0x8,-0xe34(%rbp)
    c01d:	7e d9                	jle    bff8 <func_1+0x843>
    c01f:	c7 05 0b 80 01 00 00 	movl   $0x0,0x1800b(%rip)        # 24034 <g_34>
    c026:	00 00 00 
    c029:	e9 b7 12 00 00       	jmpq   d2e5 <func_1+0x1b30>
    c02e:	48 8d 05 f3 90 01 00 	lea    0x190f3(%rip),%rax        # 25128 <g_2253>
    c035:	48 89 85 d0 f3 ff ff 	mov    %rax,-0xc30(%rbp)
    c03c:	48 8d 05 d5 84 01 00 	lea    0x184d5(%rip),%rax        # 24518 <g_849>
    c043:	48 89 85 d8 f3 ff ff 	mov    %rax,-0xc28(%rbp)
    c04a:	48 8d 85 70 f1 ff ff 	lea    -0xe90(%rbp),%rax
    c051:	48 89 85 70 fc ff ff 	mov    %rax,-0x390(%rbp)
    c058:	48 c7 85 78 fc ff ff 	movq   $0x0,-0x388(%rbp)
    c05f:	00 00 00 00 
    c063:	48 8d 85 5c f1 ff ff 	lea    -0xea4(%rbp),%rax
    c06a:	48 89 85 80 fc ff ff 	mov    %rax,-0x380(%rbp)
    c071:	48 c7 85 88 fc ff ff 	movq   $0x0,-0x378(%rbp)
    c078:	00 00 00 00 
    c07c:	48 8d 85 5c f1 ff ff 	lea    -0xea4(%rbp),%rax
    c083:	48 89 85 90 fc ff ff 	mov    %rax,-0x370(%rbp)
    c08a:	48 c7 85 98 fc ff ff 	movq   $0x0,-0x368(%rbp)
    c091:	00 00 00 00 
    c095:	48 8d 85 70 f1 ff ff 	lea    -0xe90(%rbp),%rax
    c09c:	48 89 85 a0 fc ff ff 	mov    %rax,-0x360(%rbp)
    c0a3:	48 8d 85 70 f1 ff ff 	lea    -0xe90(%rbp),%rax
    c0aa:	48 89 85 a8 fc ff ff 	mov    %rax,-0x358(%rbp)
    c0b1:	48 c7 85 b0 fc ff ff 	movq   $0x0,-0x350(%rbp)
    c0b8:	00 00 00 00 
    c0bc:	48 c7 85 b8 fc ff ff 	movq   $0x0,-0x348(%rbp)
    c0c3:	00 00 00 00 
    c0c7:	48 c7 85 c0 fc ff ff 	movq   $0x0,-0x340(%rbp)
    c0ce:	00 00 00 00 
    c0d2:	48 8d 85 5c f1 ff ff 	lea    -0xea4(%rbp),%rax
    c0d9:	48 89 85 c8 fc ff ff 	mov    %rax,-0x338(%rbp)
    c0e0:	48 c7 85 d0 fc ff ff 	movq   $0x0,-0x330(%rbp)
    c0e7:	00 00 00 00 
    c0eb:	48 c7 85 d8 fc ff ff 	movq   $0x0,-0x328(%rbp)
    c0f2:	00 00 00 00 
    c0f6:	48 8d 05 7b 80 01 00 	lea    0x1807b(%rip),%rax        # 24178 <g_305>
    c0fd:	48 89 85 e0 fc ff ff 	mov    %rax,-0x320(%rbp)
    c104:	48 8d 05 6d 80 01 00 	lea    0x1806d(%rip),%rax        # 24178 <g_305>
    c10b:	48 89 85 e8 fc ff ff 	mov    %rax,-0x318(%rbp)
    c112:	48 c7 85 f0 fc ff ff 	movq   $0x0,-0x310(%rbp)
    c119:	00 00 00 00 
    c11d:	48 c7 85 f8 fc ff ff 	movq   $0x0,-0x308(%rbp)
    c124:	00 00 00 00 
    c128:	48 8d 85 70 f1 ff ff 	lea    -0xe90(%rbp),%rax
    c12f:	48 89 85 00 fd ff ff 	mov    %rax,-0x300(%rbp)
    c136:	48 8d 85 5c f1 ff ff 	lea    -0xea4(%rbp),%rax
    c13d:	48 89 85 08 fd ff ff 	mov    %rax,-0x2f8(%rbp)
    c144:	48 8d 85 70 f1 ff ff 	lea    -0xe90(%rbp),%rax
    c14b:	48 89 85 10 fd ff ff 	mov    %rax,-0x2f0(%rbp)
    c152:	48 8d 05 1f 80 01 00 	lea    0x1801f(%rip),%rax        # 24178 <g_305>
    c159:	48 89 85 18 fd ff ff 	mov    %rax,-0x2e8(%rbp)
    c160:	48 8d 85 5c f1 ff ff 	lea    -0xea4(%rbp),%rax
    c167:	48 89 85 20 fd ff ff 	mov    %rax,-0x2e0(%rbp)
    c16e:	48 8d 85 5c f1 ff ff 	lea    -0xea4(%rbp),%rax
    c175:	48 89 85 28 fd ff ff 	mov    %rax,-0x2d8(%rbp)
    c17c:	48 8d 05 f5 7f 01 00 	lea    0x17ff5(%rip),%rax        # 24178 <g_305>
    c183:	48 89 85 30 fd ff ff 	mov    %rax,-0x2d0(%rbp)
    c18a:	48 8d 85 70 f1 ff ff 	lea    -0xe90(%rbp),%rax
    c191:	48 89 85 38 fd ff ff 	mov    %rax,-0x2c8(%rbp)
    c198:	48 8d 85 5c f1 ff ff 	lea    -0xea4(%rbp),%rax
    c19f:	48 89 85 40 fd ff ff 	mov    %rax,-0x2c0(%rbp)
    c1a6:	48 8d 85 5c f1 ff ff 	lea    -0xea4(%rbp),%rax
    c1ad:	48 89 85 48 fd ff ff 	mov    %rax,-0x2b8(%rbp)
    c1b4:	48 8d 85 70 f1 ff ff 	lea    -0xe90(%rbp),%rax
    c1bb:	48 89 85 50 fd ff ff 	mov    %rax,-0x2b0(%rbp)
    c1c2:	48 8d 05 af 7f 01 00 	lea    0x17faf(%rip),%rax        # 24178 <g_305>
    c1c9:	48 89 85 58 fd ff ff 	mov    %rax,-0x2a8(%rbp)
    c1d0:	48 8d 85 5c f1 ff ff 	lea    -0xea4(%rbp),%rax
    c1d7:	48 89 85 60 fd ff ff 	mov    %rax,-0x2a0(%rbp)
    c1de:	48 8d 85 5c f1 ff ff 	lea    -0xea4(%rbp),%rax
    c1e5:	48 89 85 68 fd ff ff 	mov    %rax,-0x298(%rbp)
    c1ec:	48 8d 05 85 7f 01 00 	lea    0x17f85(%rip),%rax        # 24178 <g_305>
    c1f3:	48 89 85 70 fd ff ff 	mov    %rax,-0x290(%rbp)
    c1fa:	48 8d 85 70 f1 ff ff 	lea    -0xe90(%rbp),%rax
    c201:	48 89 85 78 fd ff ff 	mov    %rax,-0x288(%rbp)
    c208:	48 8d 85 5c f1 ff ff 	lea    -0xea4(%rbp),%rax
    c20f:	48 89 85 80 fd ff ff 	mov    %rax,-0x280(%rbp)
    c216:	48 8d 85 70 f1 ff ff 	lea    -0xe90(%rbp),%rax
    c21d:	48 89 85 88 fd ff ff 	mov    %rax,-0x278(%rbp)
    c224:	48 c7 85 90 fd ff ff 	movq   $0x0,-0x270(%rbp)
    c22b:	00 00 00 00 
    c22f:	48 c7 85 98 fd ff ff 	movq   $0x0,-0x268(%rbp)
    c236:	00 00 00 00 
    c23a:	48 8d 05 37 7f 01 00 	lea    0x17f37(%rip),%rax        # 24178 <g_305>
    c241:	48 89 85 a0 fd ff ff 	mov    %rax,-0x260(%rbp)
    c248:	48 8d 05 29 7f 01 00 	lea    0x17f29(%rip),%rax        # 24178 <g_305>
    c24f:	48 89 85 a8 fd ff ff 	mov    %rax,-0x258(%rbp)
    c256:	48 c7 85 b0 fd ff ff 	movq   $0x0,-0x250(%rbp)
    c25d:	00 00 00 00 
    c261:	48 c7 85 b8 fd ff ff 	movq   $0x0,-0x248(%rbp)
    c268:	00 00 00 00 
    c26c:	48 8d 85 5c f1 ff ff 	lea    -0xea4(%rbp),%rax
    c273:	48 89 85 c0 fd ff ff 	mov    %rax,-0x240(%rbp)
    c27a:	48 c7 85 c8 fd ff ff 	movq   $0x0,-0x238(%rbp)
    c281:	00 00 00 00 
    c285:	48 c7 85 d0 fd ff ff 	movq   $0x0,-0x230(%rbp)
    c28c:	00 00 00 00 
    c290:	48 c7 85 d8 fd ff ff 	movq   $0x0,-0x228(%rbp)
    c297:	00 00 00 00 
    c29b:	48 8d 85 70 f1 ff ff 	lea    -0xe90(%rbp),%rax
    c2a2:	48 89 85 e0 fd ff ff 	mov    %rax,-0x220(%rbp)
    c2a9:	48 8d 85 70 f1 ff ff 	lea    -0xe90(%rbp),%rax
    c2b0:	48 89 85 e8 fd ff ff 	mov    %rax,-0x218(%rbp)
    c2b7:	48 c7 85 f0 fd ff ff 	movq   $0x0,-0x210(%rbp)
    c2be:	00 00 00 00 
    c2c2:	48 8d 85 5c f1 ff ff 	lea    -0xea4(%rbp),%rax
    c2c9:	48 89 85 f8 fd ff ff 	mov    %rax,-0x208(%rbp)
    c2d0:	48 c7 85 00 fe ff ff 	movq   $0x0,-0x200(%rbp)
    c2d7:	00 00 00 00 
    c2db:	48 8d 85 5c f1 ff ff 	lea    -0xea4(%rbp),%rax
    c2e2:	48 89 85 08 fe ff ff 	mov    %rax,-0x1f8(%rbp)
    c2e9:	48 c7 85 10 fe ff ff 	movq   $0x0,-0x1f0(%rbp)
    c2f0:	00 00 00 00 
    c2f4:	48 8d 85 70 f1 ff ff 	lea    -0xe90(%rbp),%rax
    c2fb:	48 89 85 18 fe ff ff 	mov    %rax,-0x1e8(%rbp)
    c302:	48 8d 85 5c f1 ff ff 	lea    -0xea4(%rbp),%rax
    c309:	48 89 85 20 fe ff ff 	mov    %rax,-0x1e0(%rbp)
    c310:	48 8d 85 5c f1 ff ff 	lea    -0xea4(%rbp),%rax
    c317:	48 89 85 28 fe ff ff 	mov    %rax,-0x1d8(%rbp)
    c31e:	48 8d 85 5c f1 ff ff 	lea    -0xea4(%rbp),%rax
    c325:	48 89 85 30 fe ff ff 	mov    %rax,-0x1d0(%rbp)
    c32c:	48 c7 85 38 fe ff ff 	movq   $0x0,-0x1c8(%rbp)
    c333:	00 00 00 00 
    c337:	48 8d 05 ce db 01 00 	lea    0x1dbce(%rip),%rax        # 29f0c <g_65>
    c33e:	48 89 85 40 fe ff ff 	mov    %rax,-0x1c0(%rbp)
    c345:	48 c7 85 48 fe ff ff 	movq   $0x0,-0x1b8(%rbp)
    c34c:	00 00 00 00 
    c350:	48 8d 85 5c f1 ff ff 	lea    -0xea4(%rbp),%rax
    c357:	48 89 85 50 fe ff ff 	mov    %rax,-0x1b0(%rbp)
    c35e:	48 8d 85 5c f1 ff ff 	lea    -0xea4(%rbp),%rax
    c365:	48 89 85 58 fe ff ff 	mov    %rax,-0x1a8(%rbp)
    c36c:	48 8d 85 5c f1 ff ff 	lea    -0xea4(%rbp),%rax
    c373:	48 89 85 60 fe ff ff 	mov    %rax,-0x1a0(%rbp)
    c37a:	48 8d 85 70 f1 ff ff 	lea    -0xe90(%rbp),%rax
    c381:	48 89 85 68 fe ff ff 	mov    %rax,-0x198(%rbp)
    c388:	48 c7 85 70 fe ff ff 	movq   $0x0,-0x190(%rbp)
    c38f:	00 00 00 00 
    c393:	48 8d 85 5c f1 ff ff 	lea    -0xea4(%rbp),%rax
    c39a:	48 89 85 78 fe ff ff 	mov    %rax,-0x188(%rbp)
    c3a1:	48 c7 85 80 fe ff ff 	movq   $0x0,-0x180(%rbp)
    c3a8:	00 00 00 00 
    c3ac:	48 8d 85 5c f1 ff ff 	lea    -0xea4(%rbp),%rax
    c3b3:	48 89 85 88 fe ff ff 	mov    %rax,-0x178(%rbp)
    c3ba:	48 c7 85 90 fe ff ff 	movq   $0x0,-0x170(%rbp)
    c3c1:	00 00 00 00 
    c3c5:	48 8d 85 70 f1 ff ff 	lea    -0xe90(%rbp),%rax
    c3cc:	48 89 85 98 fe ff ff 	mov    %rax,-0x168(%rbp)
    c3d3:	48 8d 85 70 f1 ff ff 	lea    -0xe90(%rbp),%rax
    c3da:	48 89 85 a0 fe ff ff 	mov    %rax,-0x160(%rbp)
    c3e1:	48 c7 85 a8 fe ff ff 	movq   $0x0,-0x158(%rbp)
    c3e8:	00 00 00 00 
    c3ec:	48 8d 05 65 dc 01 00 	lea    0x1dc65(%rip),%rax        # 2a058 <g_1407>
    c3f3:	48 89 85 50 f4 ff ff 	mov    %rax,-0xbb0(%rbp)
    c3fa:	48 c7 85 58 f4 ff ff 	movq   $0x0,-0xba8(%rbp)
    c401:	00 00 00 00 
    c405:	48 8d 05 4c dc 01 00 	lea    0x1dc4c(%rip),%rax        # 2a058 <g_1407>
    c40c:	48 89 85 60 f4 ff ff 	mov    %rax,-0xba0(%rbp)
    c413:	48 8d 05 3e dc 01 00 	lea    0x1dc3e(%rip),%rax        # 2a058 <g_1407>
    c41a:	48 89 85 68 f4 ff ff 	mov    %rax,-0xb98(%rbp)
    c421:	48 c7 85 70 f4 ff ff 	movq   $0x0,-0xb90(%rbp)
    c428:	00 00 00 00 
    c42c:	48 8d 05 25 dc 01 00 	lea    0x1dc25(%rip),%rax        # 2a058 <g_1407>
    c433:	48 89 85 78 f4 ff ff 	mov    %rax,-0xb88(%rbp)
    c43a:	48 8d 05 17 dc 01 00 	lea    0x1dc17(%rip),%rax        # 2a058 <g_1407>
    c441:	48 89 85 80 f4 ff ff 	mov    %rax,-0xb80(%rbp)
    c448:	48 b8 b0 a6 34 91 4a 	movabs $0xd9179e4a9134a6b0,%rax
    c44f:	9e 17 d9 
    c452:	48 89 85 e0 f3 ff ff 	mov    %rax,-0xc20(%rbp)
    c459:	48 b8 ca 8d 43 11 5e 	movabs $0xae0195e11438dca,%rax
    c460:	19 e0 0a 
    c463:	48 89 85 e8 f3 ff ff 	mov    %rax,-0xc18(%rbp)
    c46a:	c7 85 c0 f1 ff ff d5 	movl   $0xcf0d72d5,-0xe40(%rbp)
    c471:	72 0d cf 
    c474:	83 ad c4 f1 ff ff 01 	subl   $0x1,-0xe3c(%rbp)
    c47b:	48 8b 85 d8 f3 ff ff 	mov    -0xc28(%rbp),%rax
    c482:	8b 00                	mov    (%rax),%eax
    c484:	85 c0                	test   %eax,%eax
    c486:	0f 85 43 0e 00 00    	jne    d2cf <func_1+0x1b1a>
    c48c:	0f b7 05 15 7c 01 00 	movzwl 0x17c15(%rip),%eax        # 240a8 <g_143>
    c493:	0f be d0             	movsbl %al,%edx
    c496:	0f b6 85 4d f1 ff ff 	movzbl -0xeb3(%rbp),%eax
    c49d:	0f be c0             	movsbl %al,%eax
    c4a0:	89 d6                	mov    %edx,%esi
    c4a2:	89 c7                	mov    %eax,%edi
    c4a4:	e8 49 dd ff ff       	callq  a1f2 <safe_sub_func_int8_t_s_s>
    c4a9:	84 c0                	test   %al,%al
    c4ab:	74 0a                	je     c4b7 <func_1+0xd02>
    c4ad:	48 8b 85 20 f7 ff ff 	mov    -0x8e0(%rbp),%rax
    c4b4:	48 85 c0             	test   %rax,%rax
    c4b7:	8b 85 58 f1 ff ff    	mov    -0xea8(%rbp),%eax
    c4bd:	83 c8 01             	or     $0x1,%eax
    c4c0:	0f bf d0             	movswl %ax,%edx
    c4c3:	48 8b 0d fe c0 01 00 	mov    0x1c0fe(%rip),%rcx        # 285c8 <g_1097>
    c4ca:	48 8b 05 f7 c0 01 00 	mov    0x1c0f7(%rip),%rax        # 285c8 <g_1097>
    c4d1:	0f b6 09             	movzbl (%rcx),%ecx
    c4d4:	88 08                	mov    %cl,(%rax)
    c4d6:	48 8b 85 e0 f2 ff ff 	mov    -0xd20(%rbp),%rax
    c4dd:	48 89 05 7c d5 01 00 	mov    %rax,0x1d57c(%rip)        # 29a60 <g_3342+0x20>
    c4e4:	8b 85 70 f1 ff ff    	mov    -0xe90(%rbp),%eax
    c4ea:	89 c1                	mov    %eax,%ecx
    c4ec:	48 8b 85 d8 f2 ff ff 	mov    -0xd28(%rbp),%rax
    c4f3:	66 89 08             	mov    %cx,(%rax)
    c4f6:	48 8b 85 d8 f2 ff ff 	mov    -0xd28(%rbp),%rax
    c4fd:	0f b7 00             	movzwl (%rax),%eax
    c500:	66 85 c0             	test   %ax,%ax
    c503:	0f 95 c0             	setne  %al
    c506:	0f b6 c0             	movzbl %al,%eax
    c509:	89 d6                	mov    %edx,%esi
    c50b:	89 c7                	mov    %eax,%edi
    c50d:	e8 43 df ff ff       	callq  a455 <safe_div_func_int16_t_s_s>
    c512:	48 0f bf c0          	movswq %ax,%rax
    c516:	48 0d bf c9 00 00    	or     $0xc9bf,%rax
    c51c:	be 00 00 00 00       	mov    $0x0,%esi
    c521:	48 89 c7             	mov    %rax,%rdi
    c524:	e8 22 eb ff ff       	callq  b04b <safe_sub_func_uint64_t_u_u>
    c529:	89 85 5c f1 ff ff    	mov    %eax,-0xea4(%rbp)
    c52f:	8b 85 5c f1 ff ff    	mov    -0xea4(%rbp),%eax
    c535:	89 85 60 f1 ff ff    	mov    %eax,-0xea0(%rbp)
    c53b:	8b 85 60 f1 ff ff    	mov    -0xea0(%rbp),%eax
    c541:	89 c2                	mov    %eax,%edx
    c543:	48 8b 05 f6 8b 01 00 	mov    0x18bf6(%rip),%rax        # 25140 <g_2289+0x10>
    c54a:	09 d0                	or     %edx,%eax
    c54c:	0f be d8             	movsbl %al,%ebx
    c54f:	8b 85 74 f1 ff ff    	mov    -0xe8c(%rbp),%eax
    c555:	48 63 d0             	movslq %eax,%rdx
    c558:	8b 85 c4 f1 ff ff    	mov    -0xe3c(%rbp),%eax
    c55e:	48 89 d6             	mov    %rdx,%rsi
    c561:	48 89 c7             	mov    %rax,%rdi
    c564:	e8 d8 e2 ff ff       	callq  a841 <safe_add_func_int64_t_s_s>
    c569:	0f be c0             	movsbl %al,%eax
    c56c:	89 de                	mov    %ebx,%esi
    c56e:	89 c7                	mov    %eax,%edi
    c570:	e8 9d dc ff ff       	callq  a212 <safe_mul_func_int8_t_s_s>
    c575:	84 c0                	test   %al,%al
    c577:	0f 84 d4 03 00 00    	je     c951 <func_1+0x119c>
    c57d:	48 c7 85 f8 f3 ff ff 	movq   $0xfffffffffffffffe,-0xc08(%rbp)
    c584:	fe ff ff ff 
    c588:	c7 85 88 f1 ff ff 00 	movl   $0x0,-0xe78(%rbp)
    c58f:	00 00 00 
    c592:	eb 46                	jmp    c5da <func_1+0xe25>
    c594:	c7 85 8c f1 ff ff 00 	movl   $0x0,-0xe74(%rbp)
    c59b:	00 00 00 
    c59e:	eb 2a                	jmp    c5ca <func_1+0xe15>
    c5a0:	8b 85 8c f1 ff ff    	mov    -0xe74(%rbp),%eax
    c5a6:	48 98                	cltq   
    c5a8:	8b 95 88 f1 ff ff    	mov    -0xe78(%rbp),%edx
    c5ae:	48 63 d2             	movslq %edx,%rdx
    c5b1:	48 c1 e2 03          	shl    $0x3,%rdx
    c5b5:	48 01 d0             	add    %rdx,%rax
    c5b8:	c7 84 85 90 f5 ff ff 	movl   $0x6b8ed7ed,-0xa70(%rbp,%rax,4)
    c5bf:	ed d7 8e 6b 
    c5c3:	83 85 8c f1 ff ff 01 	addl   $0x1,-0xe74(%rbp)
    c5ca:	83 bd 8c f1 ff ff 07 	cmpl   $0x7,-0xe74(%rbp)
    c5d1:	7e cd                	jle    c5a0 <func_1+0xdeb>
    c5d3:	83 85 88 f1 ff ff 01 	addl   $0x1,-0xe78(%rbp)
    c5da:	83 bd 88 f1 ff ff 00 	cmpl   $0x0,-0xe78(%rbp)
    c5e1:	7e b1                	jle    c594 <func_1+0xddf>
    c5e3:	c6 05 48 7a 01 00 01 	movb   $0x1,0x17a48(%rip)        # 24032 <g_16>
    c5ea:	90                   	nop
    c5eb:	0f b6 05 40 7a 01 00 	movzbl 0x17a40(%rip),%eax        # 24032 <g_16>
    c5f2:	3c 07                	cmp    $0x7,%al
    c5f4:	0f 8f dc 0c 00 00    	jg     d2d6 <func_1+0x1b21>
    c5fa:	c7 85 38 f2 ff ff ff 	movl   $0xffffffff,-0xdc8(%rbp)
    c601:	ff ff ff 
    c604:	c7 85 3c f2 ff ff ce 	movl   $0x12d642ce,-0xdc4(%rbp)
    c60b:	42 d6 12 
    c60e:	c7 85 40 f2 ff ff 01 	movl   $0x1,-0xdc0(%rbp)
    c615:	00 00 00 
    c618:	c7 85 74 f1 ff ff 00 	movl   $0x0,-0xe8c(%rbp)
    c61f:	00 00 00 
    c622:	eb 1c                	jmp    c640 <func_1+0xe8b>
    c624:	48 8b 85 d0 f3 ff ff 	mov    -0xc30(%rbp),%rax
    c62b:	c7 00 ff ff ff ff    	movl   $0xffffffff,(%rax)
    c631:	8b 85 74 f1 ff ff    	mov    -0xe8c(%rbp),%eax
    c637:	83 c0 01             	add    $0x1,%eax
    c63a:	89 85 74 f1 ff ff    	mov    %eax,-0xe8c(%rbp)
    c640:	8b 85 74 f1 ff ff    	mov    -0xe8c(%rbp),%eax
    c646:	83 f8 03             	cmp    $0x3,%eax
    c649:	7e d9                	jle    c624 <func_1+0xe6f>
    c64b:	c7 05 27 7b 01 00 00 	movl   $0x0,0x17b27(%rip)        # 2417c <g_322>
    c652:	00 00 00 
    c655:	e9 08 02 00 00       	jmpq   c862 <func_1+0x10ad>
    c65a:	48 c7 85 00 f4 ff ff 	movq   $0x0,-0xc00(%rbp)
    c661:	00 00 00 00 
    c665:	c6 85 4f f1 ff ff 07 	movb   $0x7,-0xeb1(%rbp)
    c66c:	48 8d 85 48 f1 ff ff 	lea    -0xeb8(%rbp),%rax
    c673:	48 89 85 90 fa ff ff 	mov    %rax,-0x570(%rbp)
    c67a:	48 8d 05 d7 89 01 00 	lea    0x189d7(%rip),%rax        # 25058 <g_2024>
    c681:	48 89 85 98 fa ff ff 	mov    %rax,-0x568(%rbp)
    c688:	48 8d 85 48 f1 ff ff 	lea    -0xeb8(%rbp),%rax
    c68f:	48 89 85 a0 fa ff ff 	mov    %rax,-0x560(%rbp)
    c696:	48 8d 05 bb 89 01 00 	lea    0x189bb(%rip),%rax        # 25058 <g_2024>
    c69d:	48 89 85 a8 fa ff ff 	mov    %rax,-0x558(%rbp)
    c6a4:	48 8d 85 48 f1 ff ff 	lea    -0xeb8(%rbp),%rax
    c6ab:	48 89 85 b0 fa ff ff 	mov    %rax,-0x550(%rbp)
    c6b2:	48 8d 05 9f 89 01 00 	lea    0x1899f(%rip),%rax        # 25058 <g_2024>
    c6b9:	48 89 85 b8 fa ff ff 	mov    %rax,-0x548(%rbp)
    c6c0:	48 8d 85 48 f1 ff ff 	lea    -0xeb8(%rbp),%rax
    c6c7:	48 89 85 c0 fa ff ff 	mov    %rax,-0x540(%rbp)
    c6ce:	48 8d 05 83 89 01 00 	lea    0x18983(%rip),%rax        # 25058 <g_2024>
    c6d5:	48 89 85 c8 fa ff ff 	mov    %rax,-0x538(%rbp)
    c6dc:	48 8d 85 48 f1 ff ff 	lea    -0xeb8(%rbp),%rax
    c6e3:	48 89 85 d0 fa ff ff 	mov    %rax,-0x530(%rbp)
    c6ea:	48 8b 05 bf bc 01 00 	mov    0x1bcbf(%rip),%rax        # 283b0 <g_265>
    c6f1:	48 8b 00             	mov    (%rax),%rax
    c6f4:	48 8d 95 74 f1 ff ff 	lea    -0xe8c(%rbp),%rdx
    c6fb:	48 89 10             	mov    %rdx,(%rax)
    c6fe:	48 8d 05 53 d9 01 00 	lea    0x1d953(%rip),%rax        # 2a058 <g_1407>
    c705:	48 89 85 60 f4 ff ff 	mov    %rax,-0xba0(%rbp)
    c70c:	0f b6 85 48 f1 ff ff 	movzbl -0xeb8(%rbp),%eax
    c713:	83 e8 01             	sub    $0x1,%eax
    c716:	88 85 48 f1 ff ff    	mov    %al,-0xeb8(%rbp)
    c71c:	0f be 9d 4f f1 ff ff 	movsbl -0xeb1(%rbp),%ebx
    c723:	44 0f be a5 4f f1 ff 	movsbl -0xeb1(%rbp),%r12d
    c72a:	ff 
    c72b:	b8 15 92 07 e8       	mov    $0xe8079215,%eax
    c730:	85 c0                	test   %eax,%eax
    c732:	75 4d                	jne    c781 <func_1+0xfcc>
    c734:	48 8b 85 58 f2 ff ff 	mov    -0xda8(%rbp),%rax
    c73b:	0f be 95 4f f1 ff ff 	movsbl -0xeb1(%rbp),%edx
    c742:	89 10                	mov    %edx,(%rax)
    c744:	8b 00                	mov    (%rax),%eax
    c746:	be 17 76 12 34       	mov    $0x34127617,%esi
    c74b:	89 c7                	mov    %eax,%edi
    c74d:	e8 d3 e7 ff ff       	callq  af25 <safe_div_func_uint32_t_u_u>
    c752:	48 83 bd f8 f3 ff ff 	cmpq   $0x0,-0xc08(%rbp)
    c759:	00 
    c75a:	0f 94 c0             	sete   %al
    c75d:	0f b6 d0             	movzbl %al,%edx
    c760:	48 8b 85 d0 f3 ff ff 	mov    -0xc30(%rbp),%rax
    c767:	8b 00                	mov    (%rax),%eax
    c769:	21 d0                	and    %edx,%eax
    c76b:	85 c0                	test   %eax,%eax
    c76d:	0f 95 c0             	setne  %al
    c770:	88 05 e2 88 01 00    	mov    %al,0x188e2(%rip)        # 25058 <g_2024>
    c776:	0f b6 05 db 88 01 00 	movzbl 0x188db(%rip),%eax        # 25058 <g_2024>
    c77d:	84 c0                	test   %al,%al
    c77f:	74 07                	je     c788 <func_1+0xfd3>
    c781:	b8 01 00 00 00       	mov    $0x1,%eax
    c786:	eb 05                	jmp    c78d <func_1+0xfd8>
    c788:	b8 00 00 00 00       	mov    $0x0,%eax
    c78d:	0f be d0             	movsbl %al,%edx
    c790:	8b 85 58 f1 ff ff    	mov    -0xea8(%rbp),%eax
    c796:	0f be c0             	movsbl %al,%eax
    c799:	89 d6                	mov    %edx,%esi
    c79b:	89 c7                	mov    %eax,%edi
    c79d:	e8 50 da ff ff       	callq  a1f2 <safe_sub_func_int8_t_s_s>
    c7a2:	0f be c0             	movsbl %al,%eax
    c7a5:	89 c7                	mov    %eax,%edi
    c7a7:	e8 f1 db ff ff       	callq  a39d <safe_unary_minus_func_int16_t_s>
    c7ac:	66 85 c0             	test   %ax,%ax
    c7af:	0f 95 c0             	setne  %al
    c7b2:	0f b6 d0             	movzbl %al,%edx
    c7b5:	48 8b 05 24 d2 01 00 	mov    0x1d224(%rip),%rax        # 299e0 <g_2670>
    c7bc:	48 8d 05 2d d2 01 00 	lea    0x1d22d(%rip),%rax        # 299f0 <g_3004>
    c7c3:	48 8b 00             	mov    (%rax),%rax
    c7c6:	0f b7 00             	movzwl (%rax),%eax
    c7c9:	98                   	cwtl   
    c7ca:	89 d6                	mov    %edx,%esi
    c7cc:	89 c7                	mov    %eax,%edi
    c7ce:	e8 0e dd ff ff       	callq  a4e1 <safe_lshift_func_int16_t_s_u>
    c7d3:	66 85 c0             	test   %ax,%ax
    c7d6:	0f 95 c0             	setne  %al
    c7d9:	0f b6 c0             	movzbl %al,%eax
    c7dc:	44 89 e6             	mov    %r12d,%esi
    c7df:	89 c7                	mov    %eax,%edi
    c7e1:	e8 bb da ff ff       	callq  a2a1 <safe_lshift_func_int8_t_s_s>
    c7e6:	48 83 bd f8 f3 ff ff 	cmpq   $0x1,-0xc08(%rbp)
    c7ed:	01 
    c7ee:	0f 97 c0             	seta   %al
    c7f1:	0f b6 c0             	movzbl %al,%eax
    c7f4:	89 de                	mov    %ebx,%esi
    c7f6:	89 c7                	mov    %eax,%edi
    c7f8:	e8 95 dc ff ff       	callq  a492 <safe_lshift_func_int16_t_s_s>
    c7fd:	0f b6 c0             	movzbl %al,%eax
    c800:	be 00 00 00 00       	mov    $0x0,%esi
    c805:	89 c7                	mov    %eax,%edi
    c807:	e8 81 e4 ff ff       	callq  ac8d <safe_rshift_func_uint8_t_u_s>
    c80c:	84 c0                	test   %al,%al
    c80e:	74 17                	je     c827 <func_1+0x1072>
    c810:	48 8b 05 e9 bc 01 00 	mov    0x1bce9(%rip),%rax        # 28500 <g_896>
    c817:	48 8b 00             	mov    (%rax),%rax
    c81a:	8b 00                	mov    (%rax),%eax
    c81c:	85 c0                	test   %eax,%eax
    c81e:	74 07                	je     c827 <func_1+0x1072>
    c820:	b8 01 00 00 00       	mov    $0x1,%eax
    c825:	eb 05                	jmp    c82c <func_1+0x1077>
    c827:	b8 00 00 00 00       	mov    $0x0,%eax
    c82c:	48 98                	cltq   
    c82e:	48 39 85 f8 f3 ff ff 	cmp    %rax,-0xc08(%rbp)
    c835:	0f 96 c0             	setbe  %al
    c838:	0f b6 c0             	movzbl %al,%eax
    c83b:	be 02 00 00 00       	mov    $0x2,%esi
    c840:	89 c7                	mov    %eax,%edi
    c842:	e8 05 e4 ff ff       	callq  ac4c <safe_lshift_func_uint8_t_u_u>
    c847:	0f b6 d0             	movzbl %al,%edx
    c84a:	48 8b 85 d0 f3 ff ff 	mov    -0xc30(%rbp),%rax
    c851:	89 10                	mov    %edx,(%rax)
    c853:	8b 05 23 79 01 00    	mov    0x17923(%rip),%eax        # 2417c <g_322>
    c859:	83 c0 01             	add    $0x1,%eax
    c85c:	89 05 1a 79 01 00    	mov    %eax,0x1791a(%rip)        # 2417c <g_322>
    c862:	8b 05 14 79 01 00    	mov    0x17914(%rip),%eax        # 2417c <g_322>
    c868:	83 f8 03             	cmp    $0x3,%eax
    c86b:	0f 86 e9 fd ff ff    	jbe    c65a <func_1+0xea5>
    c871:	48 c7 85 f8 f3 ff ff 	movq   $0x0,-0xc08(%rbp)
    c878:	00 00 00 00 
    c87c:	48 83 bd f8 f3 ff ff 	cmpq   $0x4,-0xc08(%rbp)
    c883:	04 
    c884:	0f 87 9b 00 00 00    	ja     c925 <func_1+0x1170>
    c88a:	c7 85 44 f2 ff ff 36 	movl   $0x9ba4bb36,-0xdbc(%rbp)
    c891:	bb a4 9b 
    c894:	c7 85 90 f1 ff ff 00 	movl   $0x0,-0xe70(%rbp)
    c89b:	00 00 00 
    c89e:	eb 41                	jmp    c8e1 <func_1+0x112c>
    c8a0:	c7 85 94 f1 ff ff 00 	movl   $0x0,-0xe6c(%rbp)
    c8a7:	00 00 00 
    c8aa:	eb 25                	jmp    c8d1 <func_1+0x111c>
    c8ac:	8b 85 94 f1 ff ff    	mov    -0xe6c(%rbp),%eax
    c8b2:	48 63 d0             	movslq %eax,%rdx
    c8b5:	8b 85 90 f1 ff ff    	mov    -0xe70(%rbp),%eax
    c8bb:	48 98                	cltq   
    c8bd:	48 01 d0             	add    %rdx,%rax
    c8c0:	66 c7 84 45 90 fa ff 	movw   $0x0,-0x570(%rbp,%rax,2)
    c8c7:	ff 00 00 
    c8ca:	83 85 94 f1 ff ff 01 	addl   $0x1,-0xe6c(%rbp)
    c8d1:	83 bd 94 f1 ff ff 00 	cmpl   $0x0,-0xe6c(%rbp)
    c8d8:	7e d2                	jle    c8ac <func_1+0x10f7>
    c8da:	83 85 90 f1 ff ff 01 	addl   $0x1,-0xe70(%rbp)
    c8e1:	83 bd 90 f1 ff ff 02 	cmpl   $0x2,-0xe70(%rbp)
    c8e8:	7e b6                	jle    c8a0 <func_1+0x10eb>
    c8ea:	8b 05 ac 8c 01 00    	mov    0x18cac(%rip),%eax        # 2559c <g_3390>
    c8f0:	83 c0 01             	add    $0x1,%eax
    c8f3:	89 05 a3 8c 01 00    	mov    %eax,0x18ca3(%rip)        # 2559c <g_3390>
    c8f9:	48 8b 8d 38 f1 ff ff 	mov    -0xec8(%rbp),%rcx
    c900:	48 8b 05 89 8d 01 00 	mov    0x18d89(%rip),%rax        # 25690 <g_3393+0xf0>
    c907:	48 8b 15 8a 8d 01 00 	mov    0x18d8a(%rip),%rdx        # 25698 <g_3393+0xf8>
    c90e:	48 89 01             	mov    %rax,(%rcx)
    c911:	48 89 51 08          	mov    %rdx,0x8(%rcx)
    c915:	48 8b 05 84 8d 01 00 	mov    0x18d84(%rip),%rax        # 256a0 <g_3393+0x100>
    c91c:	48 89 41 10          	mov    %rax,0x10(%rcx)
    c920:	e9 5a 1b 00 00       	jmpq   e47f <func_1+0x2cca>
    c925:	48 8b 8d 38 f1 ff ff 	mov    -0xec8(%rbp),%rcx
    c92c:	48 8b 05 6d a1 01 00 	mov    0x1a16d(%rip),%rax        # 26aa0 <g_3394>
    c933:	48 8b 15 6e a1 01 00 	mov    0x1a16e(%rip),%rdx        # 26aa8 <g_3394+0x8>
    c93a:	48 89 01             	mov    %rax,(%rcx)
    c93d:	48 89 51 08          	mov    %rdx,0x8(%rcx)
    c941:	48 8b 05 68 a1 01 00 	mov    0x1a168(%rip),%rax        # 26ab0 <g_3394+0x10>
    c948:	48 89 41 10          	mov    %rax,0x10(%rcx)
    c94c:	e9 2e 1b 00 00       	jmpq   e47f <func_1+0x2cca>
    c951:	66 c7 85 54 f1 ff ff 	movw   $0x1,-0xeac(%rbp)
    c958:	01 00 
    c95a:	66 c7 85 56 f1 ff ff 	movw   $0x9,-0xeaa(%rbp)
    c961:	09 00 
    c963:	c7 85 98 f1 ff ff 00 	movl   $0x0,-0xe68(%rbp)
    c96a:	00 00 00 
    c96d:	eb 78                	jmp    c9e7 <func_1+0x1232>
    c96f:	c7 85 9c f1 ff ff 00 	movl   $0x0,-0xe64(%rbp)
    c976:	00 00 00 
    c979:	eb 5c                	jmp    c9d7 <func_1+0x1222>
    c97b:	c7 85 a0 f1 ff ff 00 	movl   $0x0,-0xe60(%rbp)
    c982:	00 00 00 
    c985:	eb 40                	jmp    c9c7 <func_1+0x1212>
    c987:	8b 85 a0 f1 ff ff    	mov    -0xe60(%rbp),%eax
    c98d:	48 63 c8             	movslq %eax,%rcx
    c990:	8b 85 98 f1 ff ff    	mov    -0xe68(%rbp),%eax
    c996:	48 63 d0             	movslq %eax,%rdx
    c999:	8b 85 9c f1 ff ff    	mov    -0xe64(%rbp),%eax
    c99f:	48 63 f0             	movslq %eax,%rsi
    c9a2:	48 89 d0             	mov    %rdx,%rax
    c9a5:	48 01 c0             	add    %rax,%rax
    c9a8:	48 01 d0             	add    %rdx,%rax
    c9ab:	48 01 f0             	add    %rsi,%rax
    c9ae:	48 c1 e0 02          	shl    $0x2,%rax
    c9b2:	48 01 c8             	add    %rcx,%rax
    c9b5:	c7 84 85 90 f5 ff ff 	movl   $0x9df9b2d7,-0xa70(%rbp,%rax,4)
    c9bc:	d7 b2 f9 9d 
    c9c0:	83 85 a0 f1 ff ff 01 	addl   $0x1,-0xe60(%rbp)
    c9c7:	83 bd a0 f1 ff ff 03 	cmpl   $0x3,-0xe60(%rbp)
    c9ce:	7e b7                	jle    c987 <func_1+0x11d2>
    c9d0:	83 85 9c f1 ff ff 01 	addl   $0x1,-0xe64(%rbp)
    c9d7:	83 bd 9c f1 ff ff 02 	cmpl   $0x2,-0xe64(%rbp)
    c9de:	7e 9b                	jle    c97b <func_1+0x11c6>
    c9e0:	83 85 98 f1 ff ff 01 	addl   $0x1,-0xe68(%rbp)
    c9e7:	83 bd 98 f1 ff ff 02 	cmpl   $0x2,-0xe68(%rbp)
    c9ee:	0f 8e 7b ff ff ff    	jle    c96f <func_1+0x11ba>
    c9f4:	66 83 bd 50 f1 ff ff 	cmpw   $0x0,-0xeb0(%rbp)
    c9fb:	00 
    c9fc:	0f 84 ec 00 00 00    	je     caee <func_1+0x1339>
    ca02:	48 b8 69 3e 46 87 5b 	movabs $0xbb23a95b87463e69,%rax
    ca09:	a9 23 bb 
    ca0c:	48 89 85 c0 f2 ff ff 	mov    %rax,-0xd40(%rbp)
    ca13:	c7 85 1c f2 ff ff 4a 	movl   $0xe5ac394a,-0xde4(%rbp)
    ca1a:	39 ac e5 
    ca1d:	c7 85 20 f2 ff ff fb 	movl   $0xfffffffb,-0xde0(%rbp)
    ca24:	ff ff ff 
    ca27:	c7 85 24 f2 ff ff 00 	movl   $0x0,-0xddc(%rbp)
    ca2e:	00 00 00 
    ca31:	c7 85 28 f2 ff ff c4 	movl   $0xcbd1b9c4,-0xdd8(%rbp)
    ca38:	b9 d1 cb 
    ca3b:	c7 85 2c f2 ff ff 91 	movl   $0x54420091,-0xdd4(%rbp)
    ca42:	00 42 54 
    ca45:	c6 85 48 f1 ff ff 00 	movb   $0x0,-0xeb8(%rbp)
    ca4c:	90                   	nop
    ca4d:	0f b6 85 48 f1 ff ff 	movzbl -0xeb8(%rbp),%eax
    ca54:	3c 03                	cmp    $0x3,%al
    ca56:	77 2c                	ja     ca84 <func_1+0x12cf>
    ca58:	48 8b 8d 38 f1 ff ff 	mov    -0xec8(%rbp),%rcx
    ca5f:	48 8b 05 5a a0 01 00 	mov    0x1a05a(%rip),%rax        # 26ac0 <g_3395>
    ca66:	48 8b 15 5b a0 01 00 	mov    0x1a05b(%rip),%rdx        # 26ac8 <g_3395+0x8>
    ca6d:	48 89 01             	mov    %rax,(%rcx)
    ca70:	48 89 51 08          	mov    %rdx,0x8(%rcx)
    ca74:	48 8b 05 55 a0 01 00 	mov    0x1a055(%rip),%rax        # 26ad0 <g_3395+0x10>
    ca7b:	48 89 41 10          	mov    %rax,0x10(%rcx)
    ca7f:	e9 fb 19 00 00       	jmpq   e47f <func_1+0x2cca>
    ca84:	0f b7 85 56 f1 ff ff 	movzwl -0xeaa(%rbp),%eax
    ca8b:	83 c0 01             	add    $0x1,%eax
    ca8e:	66 89 85 56 f1 ff ff 	mov    %ax,-0xeaa(%rbp)
    ca95:	48 c7 85 c0 f2 ff ff 	movq   $0x0,-0xd40(%rbp)
    ca9c:	00 00 00 00 
    caa0:	eb 3d                	jmp    cadf <func_1+0x132a>
    caa2:	c7 85 a4 f1 ff ff 00 	movl   $0x0,-0xe5c(%rbp)
    caa9:	00 00 00 
    caac:	eb 14                	jmp    cac2 <func_1+0x130d>
    caae:	8b 85 a4 f1 ff ff    	mov    -0xe5c(%rbp),%eax
    cab4:	48 98                	cltq   
    cab6:	c6 44 05 c5 ff       	movb   $0xff,-0x3b(%rbp,%rax,1)
    cabb:	83 85 a4 f1 ff ff 01 	addl   $0x1,-0xe5c(%rbp)
    cac2:	83 bd a4 f1 ff ff 02 	cmpl   $0x2,-0xe5c(%rbp)
    cac9:	7e e3                	jle    caae <func_1+0x12f9>
    cacb:	0f b6 45 c7          	movzbl -0x39(%rbp),%eax
    cacf:	84 c0                	test   %al,%al
    cad1:	0f 85 4b 06 00 00    	jne    d122 <func_1+0x196d>
    cad7:	48 83 85 c0 f2 ff ff 	addq   $0x1,-0xd40(%rbp)
    cade:	01 
    cadf:	48 83 bd c0 f2 ff ff 	cmpq   $0x3,-0xd40(%rbp)
    cae6:	03 
    cae7:	7e b9                	jle    caa2 <func_1+0x12ed>
    cae9:	e9 35 06 00 00       	jmpq   d123 <func_1+0x196e>
    caee:	c6 85 4e f1 ff ff f7 	movb   $0xf7,-0xeb2(%rbp)
    caf5:	c7 85 14 f2 ff ff f7 	movl   $0x5f6716f7,-0xdec(%rbp)
    cafc:	16 67 5f 
    caff:	48 c7 85 b8 f2 ff ff 	movq   $0x0,-0xd48(%rbp)
    cb06:	00 00 00 00 
    cb0a:	48 8d 85 b8 f2 ff ff 	lea    -0xd48(%rbp),%rax
    cb11:	48 89 85 90 fa ff ff 	mov    %rax,-0x570(%rbp)
    cb18:	48 8d 85 b8 f2 ff ff 	lea    -0xd48(%rbp),%rax
    cb1f:	48 89 85 98 fa ff ff 	mov    %rax,-0x568(%rbp)
    cb26:	48 8d 85 b8 f2 ff ff 	lea    -0xd48(%rbp),%rax
    cb2d:	48 89 85 a0 fa ff ff 	mov    %rax,-0x560(%rbp)
    cb34:	48 8d 85 b8 f2 ff ff 	lea    -0xd48(%rbp),%rax
    cb3b:	48 89 85 a8 fa ff ff 	mov    %rax,-0x558(%rbp)
    cb42:	48 c7 85 b0 fa ff ff 	movq   $0x0,-0x550(%rbp)
    cb49:	00 00 00 00 
    cb4d:	48 8d 85 b8 f2 ff ff 	lea    -0xd48(%rbp),%rax
    cb54:	48 89 85 b8 fa ff ff 	mov    %rax,-0x548(%rbp)
    cb5b:	48 c7 85 c0 fa ff ff 	movq   $0x0,-0x540(%rbp)
    cb62:	00 00 00 00 
    cb66:	48 c7 85 c8 fa ff ff 	movq   $0x0,-0x538(%rbp)
    cb6d:	00 00 00 00 
    cb71:	48 8d 85 b8 f2 ff ff 	lea    -0xd48(%rbp),%rax
    cb78:	48 89 85 d0 fa ff ff 	mov    %rax,-0x530(%rbp)
    cb7f:	48 c7 85 d8 fa ff ff 	movq   $0x0,-0x528(%rbp)
    cb86:	00 00 00 00 
    cb8a:	48 8d 85 b8 f2 ff ff 	lea    -0xd48(%rbp),%rax
    cb91:	48 89 85 e0 fa ff ff 	mov    %rax,-0x520(%rbp)
    cb98:	48 8d 85 b8 f2 ff ff 	lea    -0xd48(%rbp),%rax
    cb9f:	48 89 85 e8 fa ff ff 	mov    %rax,-0x518(%rbp)
    cba6:	48 c7 85 f0 fa ff ff 	movq   $0x0,-0x510(%rbp)
    cbad:	00 00 00 00 
    cbb1:	48 c7 85 f8 fa ff ff 	movq   $0x0,-0x508(%rbp)
    cbb8:	00 00 00 00 
    cbbc:	48 8d 85 b8 f2 ff ff 	lea    -0xd48(%rbp),%rax
    cbc3:	48 89 85 00 fb ff ff 	mov    %rax,-0x500(%rbp)
    cbca:	48 8d 85 b8 f2 ff ff 	lea    -0xd48(%rbp),%rax
    cbd1:	48 89 85 08 fb ff ff 	mov    %rax,-0x4f8(%rbp)
    cbd8:	48 8d 85 b8 f2 ff ff 	lea    -0xd48(%rbp),%rax
    cbdf:	48 89 85 10 fb ff ff 	mov    %rax,-0x4f0(%rbp)
    cbe6:	48 c7 85 18 fb ff ff 	movq   $0x0,-0x4e8(%rbp)
    cbed:	00 00 00 00 
    cbf1:	48 8d 85 b8 f2 ff ff 	lea    -0xd48(%rbp),%rax
    cbf8:	48 89 85 20 fb ff ff 	mov    %rax,-0x4e0(%rbp)
    cbff:	48 c7 85 28 fb ff ff 	movq   $0x0,-0x4d8(%rbp)
    cc06:	00 00 00 00 
    cc0a:	48 8d 85 b8 f2 ff ff 	lea    -0xd48(%rbp),%rax
    cc11:	48 89 85 30 fb ff ff 	mov    %rax,-0x4d0(%rbp)
    cc18:	48 8d 85 b8 f2 ff ff 	lea    -0xd48(%rbp),%rax
    cc1f:	48 89 85 38 fb ff ff 	mov    %rax,-0x4c8(%rbp)
    cc26:	48 c7 85 40 fb ff ff 	movq   $0x0,-0x4c0(%rbp)
    cc2d:	00 00 00 00 
    cc31:	48 8d 85 b8 f2 ff ff 	lea    -0xd48(%rbp),%rax
    cc38:	48 89 85 48 fb ff ff 	mov    %rax,-0x4b8(%rbp)
    cc3f:	48 c7 85 50 fb ff ff 	movq   $0x0,-0x4b0(%rbp)
    cc46:	00 00 00 00 
    cc4a:	48 8d 85 b8 f2 ff ff 	lea    -0xd48(%rbp),%rax
    cc51:	48 89 85 58 fb ff ff 	mov    %rax,-0x4a8(%rbp)
    cc58:	48 8d 85 b8 f2 ff ff 	lea    -0xd48(%rbp),%rax
    cc5f:	48 89 85 60 fb ff ff 	mov    %rax,-0x4a0(%rbp)
    cc66:	48 8d 85 b8 f2 ff ff 	lea    -0xd48(%rbp),%rax
    cc6d:	48 89 85 68 fb ff ff 	mov    %rax,-0x498(%rbp)
    cc74:	48 c7 85 70 fb ff ff 	movq   $0x0,-0x490(%rbp)
    cc7b:	00 00 00 00 
    cc7f:	48 8d 85 b8 f2 ff ff 	lea    -0xd48(%rbp),%rax
    cc86:	48 89 85 78 fb ff ff 	mov    %rax,-0x488(%rbp)
    cc8d:	48 8d 85 b8 f2 ff ff 	lea    -0xd48(%rbp),%rax
    cc94:	48 89 85 80 fb ff ff 	mov    %rax,-0x480(%rbp)
    cc9b:	48 8d 85 b8 f2 ff ff 	lea    -0xd48(%rbp),%rax
    cca2:	48 89 85 88 fb ff ff 	mov    %rax,-0x478(%rbp)
    cca9:	48 8d 85 b8 f2 ff ff 	lea    -0xd48(%rbp),%rax
    ccb0:	48 89 85 90 fb ff ff 	mov    %rax,-0x470(%rbp)
    ccb7:	48 8d 85 b8 f2 ff ff 	lea    -0xd48(%rbp),%rax
    ccbe:	48 89 85 98 fb ff ff 	mov    %rax,-0x468(%rbp)
    ccc5:	48 c7 85 a0 fb ff ff 	movq   $0x0,-0x460(%rbp)
    cccc:	00 00 00 00 
    ccd0:	48 8d 85 b8 f2 ff ff 	lea    -0xd48(%rbp),%rax
    ccd7:	48 89 85 a8 fb ff ff 	mov    %rax,-0x458(%rbp)
    ccde:	48 8d 85 b8 f2 ff ff 	lea    -0xd48(%rbp),%rax
    cce5:	48 89 85 b0 fb ff ff 	mov    %rax,-0x450(%rbp)
    ccec:	48 c7 85 b8 fb ff ff 	movq   $0x0,-0x448(%rbp)
    ccf3:	00 00 00 00 
    ccf7:	48 8d 85 b8 f2 ff ff 	lea    -0xd48(%rbp),%rax
    ccfe:	48 89 85 c0 fb ff ff 	mov    %rax,-0x440(%rbp)
    cd05:	48 8d 85 b8 f2 ff ff 	lea    -0xd48(%rbp),%rax
    cd0c:	48 89 85 c8 fb ff ff 	mov    %rax,-0x438(%rbp)
    cd13:	48 8d 85 b8 f2 ff ff 	lea    -0xd48(%rbp),%rax
    cd1a:	48 89 85 d0 fb ff ff 	mov    %rax,-0x430(%rbp)
    cd21:	48 8d 85 b8 f2 ff ff 	lea    -0xd48(%rbp),%rax
    cd28:	48 89 85 d8 fb ff ff 	mov    %rax,-0x428(%rbp)
    cd2f:	48 8d 85 b8 f2 ff ff 	lea    -0xd48(%rbp),%rax
    cd36:	48 89 85 e0 fb ff ff 	mov    %rax,-0x420(%rbp)
    cd3d:	48 8d 85 b8 f2 ff ff 	lea    -0xd48(%rbp),%rax
    cd44:	48 89 85 e8 fb ff ff 	mov    %rax,-0x418(%rbp)
    cd4b:	48 8d 85 b8 f2 ff ff 	lea    -0xd48(%rbp),%rax
    cd52:	48 89 85 f0 fb ff ff 	mov    %rax,-0x410(%rbp)
    cd59:	48 c7 85 f8 fb ff ff 	movq   $0x0,-0x408(%rbp)
    cd60:	00 00 00 00 
    cd64:	48 8d 85 b8 f2 ff ff 	lea    -0xd48(%rbp),%rax
    cd6b:	48 89 85 00 fc ff ff 	mov    %rax,-0x400(%rbp)
    cd72:	48 c7 85 08 fc ff ff 	movq   $0x0,-0x3f8(%rbp)
    cd79:	00 00 00 00 
    cd7d:	48 8d 85 b8 f2 ff ff 	lea    -0xd48(%rbp),%rax
    cd84:	48 89 85 10 fc ff ff 	mov    %rax,-0x3f0(%rbp)
    cd8b:	48 c7 85 18 fc ff ff 	movq   $0x0,-0x3e8(%rbp)
    cd92:	00 00 00 00 
    cd96:	48 8d 85 b8 f2 ff ff 	lea    -0xd48(%rbp),%rax
    cd9d:	48 89 85 20 fc ff ff 	mov    %rax,-0x3e0(%rbp)
    cda4:	48 8d 85 b8 f2 ff ff 	lea    -0xd48(%rbp),%rax
    cdab:	48 89 85 28 fc ff ff 	mov    %rax,-0x3d8(%rbp)
    cdb2:	48 c7 85 30 fc ff ff 	movq   $0x0,-0x3d0(%rbp)
    cdb9:	00 00 00 00 
    cdbd:	48 8d 85 b8 f2 ff ff 	lea    -0xd48(%rbp),%rax
    cdc4:	48 89 85 38 fc ff ff 	mov    %rax,-0x3c8(%rbp)
    cdcb:	48 c7 85 40 fc ff ff 	movq   $0x0,-0x3c0(%rbp)
    cdd2:	00 00 00 00 
    cdd6:	48 8d 85 b8 f2 ff ff 	lea    -0xd48(%rbp),%rax
    cddd:	48 89 85 48 fc ff ff 	mov    %rax,-0x3b8(%rbp)
    cde4:	48 c7 85 50 fc ff ff 	movq   $0x0,-0x3b0(%rbp)
    cdeb:	00 00 00 00 
    cdef:	48 8d 85 b8 f2 ff ff 	lea    -0xd48(%rbp),%rax
    cdf6:	48 89 85 58 fc ff ff 	mov    %rax,-0x3a8(%rbp)
    cdfd:	48 8d 85 b8 f2 ff ff 	lea    -0xd48(%rbp),%rax
    ce04:	48 89 85 60 fc ff ff 	mov    %rax,-0x3a0(%rbp)
    ce0b:	48 8d 85 b8 f2 ff ff 	lea    -0xd48(%rbp),%rax
    ce12:	48 89 85 68 fc ff ff 	mov    %rax,-0x398(%rbp)
    ce19:	c7 85 18 f2 ff ff f1 	movl   $0x775148f1,-0xde8(%rbp)
    ce20:	48 51 77 
    ce23:	c7 85 20 f4 ff ff 01 	movl   $0x1,-0xbe0(%rbp)
    ce2a:	00 00 00 
    ce2d:	c7 85 24 f4 ff ff 01 	movl   $0x1,-0xbdc(%rbp)
    ce34:	00 00 00 
    ce37:	c7 85 28 f4 ff ff 01 	movl   $0x1,-0xbd8(%rbp)
    ce3e:	00 00 00 
    ce41:	c7 85 2c f4 ff ff 01 	movl   $0x1,-0xbd4(%rbp)
    ce48:	00 00 00 
    ce4b:	c7 85 30 f4 ff ff 01 	movl   $0x1,-0xbd0(%rbp)
    ce52:	00 00 00 
    ce55:	c7 85 34 f4 ff ff 01 	movl   $0x1,-0xbcc(%rbp)
    ce5c:	00 00 00 
    ce5f:	c7 85 38 f4 ff ff 01 	movl   $0x1,-0xbc8(%rbp)
    ce66:	00 00 00 
    ce69:	c7 85 3c f4 ff ff 01 	movl   $0x1,-0xbc4(%rbp)
    ce70:	00 00 00 
    ce73:	c7 85 40 f4 ff ff 01 	movl   $0x1,-0xbc0(%rbp)
    ce7a:	00 00 00 
    ce7d:	66 83 bd 54 f1 ff ff 	cmpw   $0x0,-0xeac(%rbp)
    ce84:	00 
    ce85:	0f 84 a9 00 00 00    	je     cf34 <func_1+0x177f>
    ce8b:	48 83 85 e8 f3 ff ff 	addq   $0x1,-0xc18(%rbp)
    ce92:	01 
    ce93:	8b 85 ec f5 ff ff    	mov    -0xa14(%rbp),%eax
    ce99:	0f bf d0             	movswl %ax,%edx
    ce9c:	48 8b 05 25 b7 01 00 	mov    0x1b725(%rip),%rax        # 285c8 <g_1097>
    cea3:	0f b6 00             	movzbl (%rax),%eax
    cea6:	48 0f be c8          	movsbq %al,%rcx
    ceaa:	48 8b 05 57 72 01 00 	mov    0x17257(%rip),%rax        # 24108 <g_261>
    ceb1:	48 39 c1             	cmp    %rax,%rcx
    ceb4:	0f 97 c0             	seta   %al
    ceb7:	0f b6 c0             	movzbl %al,%eax
    ceba:	89 d6                	mov    %edx,%esi
    cebc:	89 c7                	mov    %eax,%edi
    cebe:	e8 92 d5 ff ff       	callq  a455 <safe_div_func_int16_t_s_s>
    cec3:	98                   	cwtl   
    cec4:	0b 85 14 f2 ff ff    	or     -0xdec(%rbp),%eax
    ceca:	83 f8 05             	cmp    $0x5,%eax
    cecd:	0f 9f c0             	setg   %al
    ced0:	0f b6 c0             	movzbl %al,%eax
    ced3:	8b 95 34 f8 ff ff    	mov    -0x7cc(%rbp),%edx
    ced9:	83 ca 06             	or     $0x6,%edx
    cedc:	39 d0                	cmp    %edx,%eax
    cede:	0f 92 c0             	setb   %al
    cee1:	0f b6 c0             	movzbl %al,%eax
    cee4:	89 c6                	mov    %eax,%esi
    cee6:	bf 58 b4 00 00       	mov    $0xb458,%edi
    ceeb:	e8 0f de ff ff       	callq  acff <safe_add_func_uint16_t_u_u>
    cef0:	66 85 c0             	test   %ax,%ax
    cef3:	74 25                	je     cf1a <func_1+0x1765>
    cef5:	48 8b 05 ac d1 01 00 	mov    0x1d1ac(%rip),%rax        # 2a0a8 <g_3422>
    cefc:	48 89 85 c0 f3 ff ff 	mov    %rax,-0xc40(%rbp)
    cf03:	48 8b 85 b0 fb ff ff 	mov    -0x450(%rbp),%rax
    cf0a:	48 39 85 c0 f3 ff ff 	cmp    %rax,-0xc40(%rbp)
    cf11:	74 07                	je     cf1a <func_1+0x1765>
    cf13:	b8 01 00 00 00       	mov    $0x1,%eax
    cf18:	eb 05                	jmp    cf1f <func_1+0x176a>
    cf1a:	b8 00 00 00 00       	mov    $0x0,%eax
    cf1f:	89 85 68 f1 ff ff    	mov    %eax,-0xe98(%rbp)
    cf25:	48 8b 85 d0 f3 ff ff 	mov    -0xc30(%rbp),%rax
    cf2c:	c7 00 01 00 00 00    	movl   $0x1,(%rax)
    cf32:	eb 37                	jmp    cf6b <func_1+0x17b6>
    cf34:	48 c7 85 f0 f3 ff ff 	movq   $0x0,-0xc10(%rbp)
    cf3b:	00 00 00 00 
    cf3f:	48 8b 85 f0 f3 ff ff 	mov    -0xc10(%rbp),%rax
    cf46:	89 c2                	mov    %eax,%edx
    cf48:	48 8b 85 d8 f3 ff ff 	mov    -0xc28(%rbp),%rax
    cf4f:	89 10                	mov    %edx,(%rax)
    cf51:	48 8b 85 d8 f3 ff ff 	mov    -0xc28(%rbp),%rax
    cf58:	c7 00 01 00 00 00    	movl   $0x1,(%rax)
    cf5e:	80 bd 4e f1 ff ff 00 	cmpb   $0x0,-0xeb2(%rbp)
    cf65:	0f 85 67 03 00 00    	jne    d2d2 <func_1+0x1b1d>
    cf6b:	48 8b 05 8e b4 01 00 	mov    0x1b48e(%rip),%rax        # 28400 <g_610>
    cf72:	8b 00                	mov    (%rax),%eax
    cf74:	85 c0                	test   %eax,%eax
    cf76:	0f 85 59 03 00 00    	jne    d2d5 <func_1+0x1b20>
    cf7c:	48 8b 05 55 9b 01 00 	mov    0x19b55(%rip),%rax        # 26ad8 <g_3437>
    cf83:	48 83 e8 01          	sub    $0x1,%rax
    cf87:	48 89 05 4a 9b 01 00 	mov    %rax,0x19b4a(%rip)        # 26ad8 <g_3437>
    cf8e:	8b 95 0c f4 ff ff    	mov    -0xbf4(%rbp),%edx
    cf94:	0f b7 85 50 f1 ff ff 	movzwl -0xeb0(%rbp),%eax
    cf9b:	21 d0                	and    %edx,%eax
    cf9d:	89 85 0c f4 ff ff    	mov    %eax,-0xbf4(%rbp)
    cfa3:	44 8b a5 0c f4 ff ff 	mov    -0xbf4(%rbp),%r12d
    cfaa:	8b 85 58 f1 ff ff    	mov    -0xea8(%rbp),%eax
    cfb0:	0f b7 d8             	movzwl %ax,%ebx
    cfb3:	48 8b 05 3e b5 01 00 	mov    0x1b53e(%rip),%rax        # 284f8 <g_897>
    cfba:	8b 00                	mov    (%rax),%eax
    cfbc:	85 c0                	test   %eax,%eax
    cfbe:	0f 85 c5 00 00 00    	jne    d089 <func_1+0x18d4>
    cfc4:	48 8b 95 78 f7 ff ff 	mov    -0x888(%rbp),%rdx
    cfcb:	48 8b 05 36 ca 01 00 	mov    0x1ca36(%rip),%rax        # 29a08 <g_3000>
    cfd2:	48 8b 00             	mov    (%rax),%rax
    cfd5:	48 85 c0             	test   %rax,%rax
    cfd8:	0f 94 c0             	sete   %al
    cfdb:	89 c1                	mov    %eax,%ecx
    cfdd:	48 8b 85 d0 f2 ff ff 	mov    -0xd30(%rbp),%rax
    cfe4:	88 08                	mov    %cl,(%rax)
    cfe6:	48 8b 85 d0 f2 ff ff 	mov    -0xd30(%rbp),%rax
    cfed:	0f b6 00             	movzbl (%rax),%eax
    cff0:	84 c0                	test   %al,%al
    cff2:	0f 94 c0             	sete   %al
    cff5:	0f b6 c0             	movzbl %al,%eax
    cff8:	48 39 c2             	cmp    %rax,%rdx
    cffb:	8b 85 34 f8 ff ff    	mov    -0x7cc(%rbp),%eax
    d001:	41 89 c5             	mov    %eax,%r13d
    d004:	c7 85 5c f1 ff ff f5 	movl   $0x8454e4f5,-0xea4(%rbp)
    d00b:	e4 54 84 
    d00e:	8b 85 58 f1 ff ff    	mov    -0xea8(%rbp),%eax
    d014:	48 98                	cltq   
    d016:	8b 15 64 85 01 00    	mov    0x18564(%rip),%edx        # 25580 <g_3347>
    d01c:	85 d2                	test   %edx,%edx
    d01e:	0f 94 c2             	sete   %dl
    d021:	0f b6 ca             	movzbl %dl,%ecx
    d024:	48 8b 15 bd c9 01 00 	mov    0x1c9bd(%rip),%rdx        # 299e8 <g_2671>
    d02b:	8b 12                	mov    (%rdx),%edx
    d02d:	09 ca                	or     %ecx,%edx
    d02f:	89 d2                	mov    %edx,%edx
    d031:	48 89 c6             	mov    %rax,%rsi
    d034:	48 89 d7             	mov    %rdx,%rdi
    d037:	e8 6c d8 ff ff       	callq  a8a8 <safe_sub_func_int64_t_s_s>
    d03c:	44 89 ee             	mov    %r13d,%esi
    d03f:	bf 00 00 00 00       	mov    $0x0,%edi
    d044:	e8 87 de ff ff       	callq  aed0 <safe_sub_func_uint32_t_u_u>
    d049:	0f b7 c0             	movzwl %ax,%eax
    d04c:	be 06 00 00 00       	mov    $0x6,%esi
    d051:	89 c7                	mov    %eax,%edi
    d053:	e8 04 dd ff ff       	callq  ad5c <safe_mod_func_uint16_t_u_u>
    d058:	8b 85 74 f1 ff ff    	mov    -0xe8c(%rbp),%eax
    d05e:	48 63 d0             	movslq %eax,%rdx
    d061:	48 8b 05 10 c4 01 00 	mov    0x1c410(%rip),%rax        # 29478 <g_1351>
    d068:	48 8b 00             	mov    (%rax),%rax
    d06b:	48 89 d6             	mov    %rdx,%rsi
    d06e:	48 89 c7             	mov    %rax,%rdi
    d071:	e8 32 d8 ff ff       	callq  a8a8 <safe_sub_func_int64_t_s_s>
    d076:	ba 00 00 00 00       	mov    $0x0,%edx
    d07b:	0f b7 05 ae 6f 01 00 	movzwl 0x16fae(%rip),%eax        # 24030 <g_8>
    d082:	0f b7 c0             	movzwl %ax,%eax
    d085:	39 c2                	cmp    %eax,%edx
    d087:	7e 07                	jle    d090 <func_1+0x18db>
    d089:	b8 01 00 00 00       	mov    $0x1,%eax
    d08e:	eb 05                	jmp    d095 <func_1+0x18e0>
    d090:	b8 00 00 00 00       	mov    $0x0,%eax
    d095:	83 f8 ff             	cmp    $0xffffffff,%eax
    d098:	0f 94 c0             	sete   %al
    d09b:	0f b6 d0             	movzbl %al,%edx
    d09e:	8b 85 20 f4 ff ff    	mov    -0xbe0(%rbp),%eax
    d0a4:	39 c2                	cmp    %eax,%edx
    d0a6:	0f 9d c0             	setge  %al
    d0a9:	0f b6 c0             	movzbl %al,%eax
    d0ac:	be 01 00 00 00       	mov    $0x1,%esi
    d0b1:	89 c7                	mov    %eax,%edi
    d0b3:	e8 06 dc ff ff       	callq  acbe <safe_rshift_func_uint8_t_u_u>
    d0b8:	0f b6 d0             	movzbl %al,%edx
    d0bb:	8b 85 20 f4 ff ff    	mov    -0xbe0(%rbp),%eax
    d0c1:	39 c2                	cmp    %eax,%edx
    d0c3:	0f 9e c0             	setle  %al
    d0c6:	0f b6 c0             	movzbl %al,%eax
    d0c9:	89 de                	mov    %ebx,%esi
    d0cb:	89 c7                	mov    %eax,%edi
    d0cd:	e8 bc dc ff ff       	callq  ad8e <safe_div_func_uint16_t_u_u>
    d0d2:	0f b7 c0             	movzwl %ax,%eax
    d0d5:	41 39 c4             	cmp    %eax,%r12d
    d0d8:	7d 2d                	jge    d107 <func_1+0x1952>
    d0da:	48 8b 05 27 c9 01 00 	mov    0x1c927(%rip),%rax        # 29a08 <g_3000>
    d0e1:	48 8b 00             	mov    (%rax),%rax
    d0e4:	48 8b 10             	mov    (%rax),%rdx
    d0e7:	48 8b 05 9a c9 01 00 	mov    0x1c99a(%rip),%rax        # 29a88 <g_3455>
    d0ee:	48 39 c2             	cmp    %rax,%rdx
    d0f1:	0f 94 c0             	sete   %al
    d0f4:	0f b6 d0             	movzbl %al,%edx
    d0f7:	8b 85 64 f1 ff ff    	mov    -0xe9c(%rbp),%eax
    d0fd:	31 d0                	xor    %edx,%eax
    d0ff:	89 85 64 f1 ff ff    	mov    %eax,-0xe9c(%rbp)
    d105:	eb 1c                	jmp    d123 <func_1+0x196e>
    d107:	8b 85 08 f4 ff ff    	mov    -0xbf8(%rbp),%eax
    d10d:	85 c0                	test   %eax,%eax
    d10f:	0f 85 32 13 00 00    	jne    e447 <func_1+0x2c92>
    d115:	48 c7 85 e8 f2 ff ff 	movq   $0x0,-0xd18(%rbp)
    d11c:	00 00 00 00 
    d120:	eb 01                	jmp    d123 <func_1+0x196e>
    d122:	90                   	nop
    d123:	66 c7 05 04 6f 01 00 	movw   $0x0,0x16f04(%rip)        # 24030 <g_8>
    d12a:	00 00 
    d12c:	e9 8b 01 00 00       	jmpq   d2bc <func_1+0x1b07>
    d131:	c7 85 30 f2 ff ff 00 	movl   $0x0,-0xdd0(%rbp)
    d138:	00 00 00 
    d13b:	c7 85 34 f2 ff ff 90 	movl   $0x5ac58290,-0xdcc(%rbp)
    d142:	82 c5 5a 
    d145:	c7 85 a8 f1 ff ff 00 	movl   $0x0,-0xe58(%rbp)
    d14c:	00 00 00 
    d14f:	eb 1a                	jmp    d16b <func_1+0x19b6>
    d151:	8b 85 a8 f1 ff ff    	mov    -0xe58(%rbp),%eax
    d157:	48 98                	cltq   
    d159:	c7 84 85 20 f4 ff ff 	movl   $0xb542dab9,-0xbe0(%rbp,%rax,4)
    d160:	b9 da 42 b5 
    d164:	83 85 a8 f1 ff ff 01 	addl   $0x1,-0xe58(%rbp)
    d16b:	83 bd a8 f1 ff ff 07 	cmpl   $0x7,-0xe58(%rbp)
    d172:	7e dd                	jle    d151 <func_1+0x199c>
    d174:	48 8b 85 d8 f3 ff ff 	mov    -0xc28(%rbp),%rax
    d17b:	8b 10                	mov    (%rax),%edx
    d17d:	8b 85 34 f8 ff ff    	mov    -0x7cc(%rbp),%eax
    d183:	21 c2                	and    %eax,%edx
    d185:	48 8b 85 d8 f3 ff ff 	mov    -0xc28(%rbp),%rax
    d18c:	89 10                	mov    %edx,(%rax)
    d18e:	c7 85 64 f1 ff ff 01 	movl   $0x1,-0xe9c(%rbp)
    d195:	00 00 00 
    d198:	e9 fc 00 00 00       	jmpq   d299 <func_1+0x1ae4>
    d19d:	48 8d 85 90 fa ff ff 	lea    -0x570(%rbp),%rax
    d1a4:	48 8d 15 f5 12 01 00 	lea    0x112f5(%rip),%rdx        # 1e4a0 <g_3175+0x2fc>
    d1ab:	b9 23 00 00 00       	mov    $0x23,%ecx
    d1b0:	48 89 c7             	mov    %rax,%rdi
    d1b3:	48 89 d6             	mov    %rdx,%rsi
    d1b6:	f3 48 a5             	rep movsq %ds:(%rsi),%es:(%rdi)
    d1b9:	c7 85 ac f1 ff ff 00 	movl   $0x0,-0xe54(%rbp)
    d1c0:	00 00 00 
    d1c3:	eb 1a                	jmp    d1df <func_1+0x1a2a>
    d1c5:	8b 85 ac f1 ff ff    	mov    -0xe54(%rbp),%eax
    d1cb:	48 98                	cltq   
    d1cd:	c7 84 85 14 f4 ff ff 	movl   $0x1,-0xbec(%rbp,%rax,4)
    d1d4:	01 00 00 00 
    d1d8:	83 85 ac f1 ff ff 01 	addl   $0x1,-0xe54(%rbp)
    d1df:	83 bd ac f1 ff ff 02 	cmpl   $0x2,-0xe54(%rbp)
    d1e6:	7e dd                	jle    d1c5 <func_1+0x1a10>
    d1e8:	8b 85 14 f4 ff ff    	mov    -0xbec(%rbp),%eax
    d1ee:	89 c1                	mov    %eax,%ecx
    d1f0:	48 8b 05 11 6f 01 00 	mov    0x16f11(%rip),%rax        # 24108 <g_261>
    d1f7:	48 ba 08 31 d7 63 8c 	movabs $0x82915f8c63d73108,%rdx
    d1fe:	5f 91 82 
    d201:	48 31 d0             	xor    %rdx,%rax
    d204:	48 89 05 fd 6e 01 00 	mov    %rax,0x16efd(%rip)        # 24108 <g_261>
    d20b:	48 8b 05 f6 6e 01 00 	mov    0x16ef6(%rip),%rax        # 24108 <g_261>
    d212:	48 39 c1             	cmp    %rax,%rcx
    d215:	76 07                	jbe    d21e <func_1+0x1a69>
    d217:	b8 06 00 00 00       	mov    $0x6,%eax
    d21c:	eb 05                	jmp    d223 <func_1+0x1a6e>
    d21e:	b8 07 00 00 00       	mov    $0x7,%eax
    d223:	89 85 00 f6 ff ff    	mov    %eax,-0xa00(%rbp)
    d229:	8b 95 00 f6 ff ff    	mov    -0xa00(%rbp),%edx
    d22f:	48 8b 05 c2 c7 01 00 	mov    0x1c7c2(%rip),%rax        # 299f8 <g_3002>
    d236:	48 8b 08             	mov    (%rax),%rcx
    d239:	48 8b 05 b8 c7 01 00 	mov    0x1c7b8(%rip),%rax        # 299f8 <g_3002>
    d240:	48 8b 00             	mov    (%rax),%rax
    d243:	48 39 c1             	cmp    %rax,%rcx
    d246:	0f 95 c0             	setne  %al
    d249:	0f b6 c0             	movzbl %al,%eax
    d24c:	39 c2                	cmp    %eax,%edx
    d24e:	0f 9d c0             	setge  %al
    d251:	0f b6 d0             	movzbl %al,%edx
    d254:	48 8b 85 d8 f3 ff ff 	mov    -0xc28(%rbp),%rax
    d25b:	8b 00                	mov    (%rax),%eax
    d25d:	31 c2                	xor    %eax,%edx
    d25f:	48 8b 85 d8 f3 ff ff 	mov    -0xc28(%rbp),%rax
    d266:	89 10                	mov    %edx,(%rax)
    d268:	48 8b 85 d8 f3 ff ff 	mov    -0xc28(%rbp),%rax
    d26f:	8b 10                	mov    (%rax),%edx
    d271:	48 8b 85 d0 f3 ff ff 	mov    -0xc30(%rbp),%rax
    d278:	89 10                	mov    %edx,(%rax)
    d27a:	83 bd 30 f2 ff ff 00 	cmpl   $0x0,-0xdd0(%rbp)
    d281:	75 27                	jne    d2aa <func_1+0x1af5>
    d283:	83 85 c0 f1 ff ff 01 	addl   $0x1,-0xe40(%rbp)
    d28a:	8b 85 64 f1 ff ff    	mov    -0xe9c(%rbp),%eax
    d290:	83 c0 01             	add    $0x1,%eax
    d293:	89 85 64 f1 ff ff    	mov    %eax,-0xe9c(%rbp)
    d299:	8b 85 64 f1 ff ff    	mov    -0xe9c(%rbp),%eax
    d29f:	83 f8 04             	cmp    $0x4,%eax
    d2a2:	0f 8e f5 fe ff ff    	jle    d19d <func_1+0x19e8>
    d2a8:	eb 01                	jmp    d2ab <func_1+0x1af6>
    d2aa:	90                   	nop
    d2ab:	0f b7 05 7e 6d 01 00 	movzwl 0x16d7e(%rip),%eax        # 24030 <g_8>
    d2b2:	83 c0 01             	add    $0x1,%eax
    d2b5:	66 89 05 74 6d 01 00 	mov    %ax,0x16d74(%rip)        # 24030 <g_8>
    d2bc:	0f b7 05 6d 6d 01 00 	movzwl 0x16d6d(%rip),%eax        # 24030 <g_8>
    d2c3:	66 83 f8 07          	cmp    $0x7,%ax
    d2c7:	0f 86 64 fe ff ff    	jbe    d131 <func_1+0x197c>
    d2cd:	eb 07                	jmp    d2d6 <func_1+0x1b21>
    d2cf:	90                   	nop
    d2d0:	eb 04                	jmp    d2d6 <func_1+0x1b21>
    d2d2:	90                   	nop
    d2d3:	eb 01                	jmp    d2d6 <func_1+0x1b21>
    d2d5:	90                   	nop
    d2d6:	8b 05 58 6d 01 00    	mov    0x16d58(%rip),%eax        # 24034 <g_34>
    d2dc:	83 c0 01             	add    $0x1,%eax
    d2df:	89 05 4f 6d 01 00    	mov    %eax,0x16d4f(%rip)        # 24034 <g_34>
    d2e5:	8b 05 49 6d 01 00    	mov    0x16d49(%rip),%eax        # 24034 <g_34>
    d2eb:	83 f8 03             	cmp    $0x3,%eax
    d2ee:	0f 8e 3a ed ff ff    	jle    c02e <func_1+0x879>
    d2f4:	e9 4e 11 00 00       	jmpq   e447 <func_1+0x2c92>
    d2f9:	48 c7 85 10 f3 ff ff 	movq   $0xffffffffffffffff,-0xcf0(%rbp)
    d300:	ff ff ff ff 
    d304:	48 8d 05 c5 c1 01 00 	lea    0x1c1c5(%rip),%rax        # 294d0 <g_1568>
    d30b:	48 89 85 98 f2 ff ff 	mov    %rax,-0xd68(%rbp)
    d312:	48 8d 05 ef 6d 01 00 	lea    0x16def(%rip),%rax        # 24108 <g_261>
    d319:	48 89 85 a0 f2 ff ff 	mov    %rax,-0xd60(%rbp)
    d320:	c7 85 d4 f1 ff ff fe 	movl   $0xfffffffe,-0xe2c(%rbp)
    d327:	ff ff ff 
    d32a:	c7 85 d8 f1 ff ff ce 	movl   $0xa0f207ce,-0xe28(%rbp)
    d331:	07 f2 a0 
    d334:	48 8d 85 50 f2 ff ff 	lea    -0xdb0(%rbp),%rax
    d33b:	48 89 85 a8 f2 ff ff 	mov    %rax,-0xd58(%rbp)
    d342:	48 8d 85 a8 f2 ff ff 	lea    -0xd58(%rbp),%rax
    d349:	48 89 85 b0 f2 ff ff 	mov    %rax,-0xd50(%rbp)
    d350:	48 8d 85 b0 f2 ff ff 	lea    -0xd50(%rbp),%rax
    d357:	48 89 85 18 f3 ff ff 	mov    %rax,-0xce8(%rbp)
    d35e:	48 8d 05 d3 b2 01 00 	lea    0x1b2d3(%rip),%rax        # 28638 <g_1203+0x38>
    d365:	48 89 85 20 f3 ff ff 	mov    %rax,-0xce0(%rbp)
    d36c:	c7 85 dc f1 ff ff 00 	movl   $0x0,-0xe24(%rbp)
    d373:	00 00 00 
    d376:	48 c7 85 28 f3 ff ff 	movq   $0x0,-0xcd8(%rbp)
    d37d:	00 00 00 00 
    d381:	c7 85 b0 f1 ff ff 00 	movl   $0x0,-0xe50(%rbp)
    d388:	00 00 00 
    d38b:	eb 45                	jmp    d3d2 <func_1+0x1c1d>
    d38d:	c7 85 b4 f1 ff ff 00 	movl   $0x0,-0xe4c(%rbp)
    d394:	00 00 00 
    d397:	eb 29                	jmp    d3c2 <func_1+0x1c0d>
    d399:	8b 85 b4 f1 ff ff    	mov    -0xe4c(%rbp),%eax
    d39f:	48 98                	cltq   
    d3a1:	8b 95 b0 f1 ff ff    	mov    -0xe50(%rbp),%edx
    d3a7:	48 63 d2             	movslq %edx,%rdx
    d3aa:	48 01 d2             	add    %rdx,%rdx
    d3ad:	48 01 d0             	add    %rdx,%rax
    d3b0:	c7 84 85 90 f5 ff ff 	movl   $0x0,-0xa70(%rbp,%rax,4)
    d3b7:	00 00 00 00 
    d3bb:	83 85 b4 f1 ff ff 01 	addl   $0x1,-0xe4c(%rbp)
    d3c2:	83 bd b4 f1 ff ff 01 	cmpl   $0x1,-0xe4c(%rbp)
    d3c9:	7e ce                	jle    d399 <func_1+0x1be4>
    d3cb:	83 85 b0 f1 ff ff 01 	addl   $0x1,-0xe50(%rbp)
    d3d2:	83 bd b0 f1 ff ff 00 	cmpl   $0x0,-0xe50(%rbp)
    d3d9:	7e b2                	jle    d38d <func_1+0x1bd8>
    d3db:	c7 85 b0 f1 ff ff 00 	movl   $0x0,-0xe50(%rbp)
    d3e2:	00 00 00 
    d3e5:	eb 1b                	jmp    d402 <func_1+0x1c4d>
    d3e7:	8b 85 b0 f1 ff ff    	mov    -0xe50(%rbp),%eax
    d3ed:	48 98                	cltq   
    d3ef:	48 c7 84 c5 90 f4 ff 	movq   $0x0,-0xb70(%rbp,%rax,8)
    d3f6:	ff 00 00 00 00 
    d3fb:	83 85 b0 f1 ff ff 01 	addl   $0x1,-0xe50(%rbp)
    d402:	83 bd b0 f1 ff ff 00 	cmpl   $0x0,-0xe50(%rbp)
    d409:	7e dc                	jle    d3e7 <func_1+0x1c32>
    d40b:	48 83 bd 10 f3 ff ff 	cmpq   $0x0,-0xcf0(%rbp)
    d412:	00 
    d413:	0f 94 c0             	sete   %al
    d416:	0f b6 c0             	movzbl %al,%eax
    d419:	be 0a 00 00 00       	mov    $0xa,%esi
    d41e:	89 c7                	mov    %eax,%edi
    d420:	e8 23 da ff ff       	callq  ae48 <safe_rshift_func_uint16_t_u_s>
    d425:	48 8b 95 e8 f2 ff ff 	mov    -0xd18(%rbp),%rdx
    d42c:	8b 12                	mov    (%rdx),%edx
    d42e:	0f b7 c0             	movzwl %ax,%eax
    d431:	09 c2                	or     %eax,%edx
    d433:	48 8b 85 e8 f2 ff ff 	mov    -0xd18(%rbp),%rax
    d43a:	89 10                	mov    %edx,(%rax)
    d43c:	48 8b 85 e8 f2 ff ff 	mov    -0xd18(%rbp),%rax
    d443:	8b 00                	mov    (%rax),%eax
    d445:	48 63 d8             	movslq %eax,%rbx
    d448:	48 8b 85 e8 f2 ff ff 	mov    -0xd18(%rbp),%rax
    d44f:	8b 10                	mov    (%rax),%edx
    d451:	48 8b 85 a0 f2 ff ff 	mov    -0xd60(%rbp),%rax
    d458:	48 63 d2             	movslq %edx,%rdx
    d45b:	48 89 10             	mov    %rdx,(%rax)
    d45e:	48 8b 00             	mov    (%rax),%rax
    d461:	48 85 c0             	test   %rax,%rax
    d464:	74 0d                	je     d473 <func_1+0x1cbe>
    d466:	48 8b 85 68 f2 ff ff 	mov    -0xd98(%rbp),%rax
    d46d:	48 8b 00             	mov    (%rax),%rax
    d470:	48 85 c0             	test   %rax,%rax
    d473:	48 8b 05 f6 bf 01 00 	mov    0x1bff6(%rip),%rax        # 29470 <g_1350>
    d47a:	48 c7 00 00 00 00 00 	movq   $0x0,(%rax)
    d481:	48 8b 05 78 c5 01 00 	mov    0x1c578(%rip),%rax        # 29a00 <g_3001>
    d488:	48 8b 00             	mov    (%rax),%rax
    d48b:	48 8b 00             	mov    (%rax),%rax
    d48e:	48 8b 00             	mov    (%rax),%rax
    d491:	0f b7 00             	movzwl (%rax),%eax
    d494:	98                   	cwtl   
    d495:	be 00 00 00 00       	mov    $0x0,%esi
    d49a:	89 c7                	mov    %eax,%edi
    d49c:	e8 12 cf ff ff       	callq  a3b3 <safe_add_func_int16_t_s_s>
    d4a1:	48 8b 05 20 c0 01 00 	mov    0x1c020(%rip),%rax        # 294c8 <g_1524>
    d4a8:	48 8b 85 e8 f2 ff ff 	mov    -0xd18(%rbp),%rax
    d4af:	8b 00                	mov    (%rax),%eax
    d4b1:	48 98                	cltq   
    d4b3:	48 33 85 10 f3 ff ff 	xor    -0xcf0(%rbp),%rax
    d4ba:	48 89 de             	mov    %rbx,%rsi
    d4bd:	48 89 c7             	mov    %rax,%rdi
    d4c0:	e8 e3 d3 ff ff       	callq  a8a8 <safe_sub_func_int64_t_s_s>
    d4c5:	89 c2                	mov    %eax,%edx
    d4c7:	48 8b 85 e8 f2 ff ff 	mov    -0xd18(%rbp),%rax
    d4ce:	89 10                	mov    %edx,(%rax)
    d4d0:	48 c7 05 c5 6b 01 00 	movq   $0x0,0x16bc5(%rip)        # 240a0 <g_101>
    d4d7:	00 00 00 00 
    d4db:	e9 66 03 00 00       	jmpq   d846 <func_1+0x2091>
    d4e0:	c7 85 04 f2 ff ff 25 	movl   $0x2d3e525,-0xdfc(%rbp)
    d4e7:	e5 d3 02 
    d4ea:	48 c7 85 a8 f3 ff ff 	movq   $0x0,-0xc58(%rbp)
    d4f1:	00 00 00 00 
    d4f5:	c7 85 94 f5 ff ff 29 	movl   $0x74c7ca29,-0xa6c(%rbp)
    d4fc:	ca c7 74 
    d4ff:	c7 85 c4 f1 ff ff 00 	movl   $0x0,-0xe3c(%rbp)
    d506:	00 00 00 
    d509:	e9 ea 02 00 00       	jmpq   d7f8 <func_1+0x2043>
    d50e:	48 8d 85 98 f2 ff ff 	lea    -0xd68(%rbp),%rax
    d515:	48 89 85 b8 f2 ff ff 	mov    %rax,-0xd48(%rbp)
    d51c:	48 8d 85 b8 f2 ff ff 	lea    -0xd48(%rbp),%rax
    d523:	48 89 85 b0 f3 ff ff 	mov    %rax,-0xc50(%rbp)
    d52a:	c7 85 08 f2 ff ff ff 	movl   $0xffffffff,-0xdf8(%rbp)
    d531:	ff ff ff 
    d534:	48 8d 05 8d 7f 01 00 	lea    0x17f8d(%rip),%rax        # 254c8 <g_3224>
    d53b:	48 89 85 b8 f3 ff ff 	mov    %rax,-0xc48(%rbp)
    d542:	c7 85 b8 f1 ff ff 00 	movl   $0x0,-0xe48(%rbp)
    d549:	00 00 00 
    d54c:	eb 1e                	jmp    d56c <func_1+0x1db7>
    d54e:	8b 85 b8 f1 ff ff    	mov    -0xe48(%rbp),%eax
    d554:	48 98                	cltq   
    d556:	48 8d 15 9b 95 01 00 	lea    0x1959b(%rip),%rdx        # 26af8 <g_3508+0x18>
    d55d:	48 89 94 c5 70 fc ff 	mov    %rdx,-0x390(%rbp,%rax,8)
    d564:	ff 
    d565:	83 85 b8 f1 ff ff 01 	addl   $0x1,-0xe48(%rbp)
    d56c:	83 bd b8 f1 ff ff 03 	cmpl   $0x3,-0xe48(%rbp)
    d573:	7e d9                	jle    d54e <func_1+0x1d99>
    d575:	c7 85 b8 f1 ff ff 00 	movl   $0x0,-0xe48(%rbp)
    d57c:	00 00 00 
    d57f:	eb 46                	jmp    d5c7 <func_1+0x1e12>
    d581:	c7 85 bc f1 ff ff 00 	movl   $0x0,-0xe44(%rbp)
    d588:	00 00 00 
    d58b:	eb 2a                	jmp    d5b7 <func_1+0x1e02>
    d58d:	8b 85 bc f1 ff ff    	mov    -0xe44(%rbp),%eax
    d593:	48 63 d0             	movslq %eax,%rdx
    d596:	8b 85 b8 f1 ff ff    	mov    -0xe48(%rbp),%eax
    d59c:	48 98                	cltq   
    d59e:	48 01 d0             	add    %rdx,%rax
    d5a1:	48 8d 15 70 6f 01 00 	lea    0x16f70(%rip),%rdx        # 24518 <g_849>
    d5a8:	48 89 94 c5 90 fa ff 	mov    %rdx,-0x570(%rbp,%rax,8)
    d5af:	ff 
    d5b0:	83 85 bc f1 ff ff 01 	addl   $0x1,-0xe44(%rbp)
    d5b7:	83 bd bc f1 ff ff 00 	cmpl   $0x0,-0xe44(%rbp)
    d5be:	7e cd                	jle    d58d <func_1+0x1dd8>
    d5c0:	83 85 b8 f1 ff ff 01 	addl   $0x1,-0xe48(%rbp)
    d5c7:	83 bd b8 f1 ff ff 02 	cmpl   $0x2,-0xe48(%rbp)
    d5ce:	7e b1                	jle    d581 <func_1+0x1dcc>
    d5d0:	48 8b 05 d1 ad 01 00 	mov    0x1add1(%rip),%rax        # 283a8 <g_187>
    d5d7:	8b 00                	mov    (%rax),%eax
    d5d9:	85 c0                	test   %eax,%eax
    d5db:	0f 85 26 02 00 00    	jne    d807 <func_1+0x2052>
    d5e1:	8b 85 94 f5 ff ff    	mov    -0xa6c(%rbp),%eax
    d5e7:	85 c0                	test   %eax,%eax
    d5e9:	0f 85 fe 01 00 00    	jne    d7ed <func_1+0x2038>
    d5ef:	0f b7 05 a4 6a 01 00 	movzwl 0x16aa4(%rip),%eax        # 2409a <g_98>
    d5f6:	0f be d8             	movsbl %al,%ebx
    d5f9:	48 8b 05 d8 6a 01 00 	mov    0x16ad8(%rip),%rax        # 240d8 <g_250+0x8>
    d600:	48 8d 85 b8 f2 ff ff 	lea    -0xd48(%rbp),%rax
    d607:	48 39 85 b0 f3 ff ff 	cmp    %rax,-0xc50(%rbp)
    d60e:	0f 95 c0             	setne  %al
    d611:	0f b6 d0             	movzbl %al,%edx
    d614:	0f bf 85 52 f1 ff ff 	movswl -0xeae(%rbp),%eax
    d61b:	39 c2                	cmp    %eax,%edx
    d61d:	0f 84 ee 00 00 00    	je     d711 <func_1+0x1f5c>
    d623:	8b 85 04 f2 ff ff    	mov    -0xdfc(%rbp),%eax
    d629:	44 0f b6 e0          	movzbl %al,%r12d
    d62d:	8b 85 08 f2 ff ff    	mov    -0xdf8(%rbp),%eax
    d633:	44 0f b7 e8          	movzwl %ax,%r13d
    d637:	48 8b 15 a2 be 01 00 	mov    0x1bea2(%rip),%rdx        # 294e0 <g_1848>
    d63e:	48 8b 05 9b be 01 00 	mov    0x1be9b(%rip),%rax        # 294e0 <g_1848>
    d645:	48 8b 12             	mov    (%rdx),%rdx
    d648:	48 89 10             	mov    %rdx,(%rax)
    d64b:	48 8b 10             	mov    (%rax),%rdx
    d64e:	48 8b 85 80 f2 ff ff 	mov    -0xd80(%rbp),%rax
    d655:	48 39 c2             	cmp    %rax,%rdx
    d658:	75 0c                	jne    d666 <func_1+0x1eb1>
    d65a:	48 8b 05 67 af 01 00 	mov    0x1af67(%rip),%rax        # 285c8 <g_1097>
    d661:	0f b6 00             	movzbl (%rax),%eax
    d664:	84 c0                	test   %al,%al
    d666:	be 01 00 00 00       	mov    $0x1,%esi
    d66b:	bf 04 00 00 00       	mov    $0x4,%edi
    d670:	e8 c8 d6 ff ff       	callq  ad3d <safe_mul_func_uint16_t_u_u>
    d675:	98                   	cwtl   
    d676:	be 01 00 00 00       	mov    $0x1,%esi
    d67b:	89 c7                	mov    %eax,%edi
    d67d:	e8 5f ce ff ff       	callq  a4e1 <safe_lshift_func_int16_t_s_u>
    d682:	0f bf d0             	movswl %ax,%edx
    d685:	48 83 bd f0 f2 ff ff 	cmpq   $0x0,-0xd10(%rbp)
    d68c:	00 
    d68d:	0f 95 c0             	setne  %al
    d690:	0f b6 c0             	movzbl %al,%eax
    d693:	89 d6                	mov    %edx,%esi
    d695:	89 c7                	mov    %eax,%edi
    d697:	e8 59 cd ff ff       	callq  a3f5 <safe_mul_func_int16_t_s_s>
    d69c:	66 85 c0             	test   %ax,%ax
    d69f:	0f 94 c0             	sete   %al
    d6a2:	0f b6 c0             	movzbl %al,%eax
    d6a5:	44 89 ee             	mov    %r13d,%esi
    d6a8:	89 c7                	mov    %eax,%edi
    d6aa:	e8 50 d6 ff ff       	callq  acff <safe_add_func_uint16_t_u_u>
    d6af:	0f b7 d0             	movzwl %ax,%edx
    d6b2:	48 8b 85 e8 f2 ff ff 	mov    -0xd18(%rbp),%rax
    d6b9:	8b 00                	mov    (%rax),%eax
    d6bb:	39 c2                	cmp    %eax,%edx
    d6bd:	0f 9f c0             	setg   %al
    d6c0:	0f b6 c0             	movzbl %al,%eax
    d6c3:	be d4 ff ff ff       	mov    $0xffffffd4,%esi
    d6c8:	89 c7                	mov    %eax,%edi
    d6ca:	e8 62 cb ff ff       	callq  a231 <safe_mod_func_int8_t_s_s>
    d6cf:	48 8b 15 9a bd 01 00 	mov    0x1bd9a(%rip),%rdx        # 29470 <g_1350>
    d6d6:	48 0f be c0          	movsbq %al,%rax
    d6da:	48 89 02             	mov    %rax,(%rdx)
    d6dd:	48 8b 05 94 bd 01 00 	mov    0x1bd94(%rip),%rax        # 29478 <g_1351>
    d6e4:	48 8b 12             	mov    (%rdx),%rdx
    d6e7:	48 89 10             	mov    %rdx,(%rax)
    d6ea:	48 8b 00             	mov    (%rax),%rax
    d6ed:	be 03 00 00 00       	mov    $0x3,%esi
    d6f2:	48 89 c7             	mov    %rax,%rdi
    d6f5:	e8 fd d2 ff ff       	callq  a9f7 <safe_div_func_int64_t_s_s>
    d6fa:	83 c8 01             	or     $0x1,%eax
    d6fd:	0f b6 c0             	movzbl %al,%eax
    d700:	44 89 e6             	mov    %r12d,%esi
    d703:	89 c7                	mov    %eax,%edi
    d705:	e8 6e d4 ff ff       	callq  ab78 <safe_sub_func_uint8_t_u_u>
    d70a:	b8 01 00 00 00       	mov    $0x1,%eax
    d70f:	eb 05                	jmp    d716 <func_1+0x1f61>
    d711:	b8 00 00 00 00       	mov    $0x0,%eax
    d716:	48 98                	cltq   
    d718:	48 be ca 08 7a aa 61 	movabs $0xbaa18061aa7a08ca,%rsi
    d71f:	80 a1 ba 
    d722:	48 89 c7             	mov    %rax,%rdi
    d725:	e8 04 d9 ff ff       	callq  b02e <safe_add_func_uint64_t_u_u>
    d72a:	48 8b 95 88 fc ff ff 	mov    -0x378(%rbp),%rdx
    d731:	48 8b 85 48 f2 ff ff 	mov    -0xdb8(%rbp),%rax
    d738:	48 39 c2             	cmp    %rax,%rdx
    d73b:	0f 94 c0             	sete   %al
    d73e:	89 c2                	mov    %eax,%edx
    d740:	48 8b 85 d0 f2 ff ff 	mov    -0xd30(%rbp),%rax
    d747:	88 10                	mov    %dl,(%rax)
    d749:	48 8b 85 d0 f2 ff ff 	mov    -0xd30(%rbp),%rax
    d750:	0f b6 00             	movzbl (%rax),%eax
    d753:	0f be c0             	movsbl %al,%eax
    d756:	89 de                	mov    %ebx,%esi
    d758:	89 c7                	mov    %eax,%edi
    d75a:	e8 0b cb ff ff       	callq  a26a <safe_div_func_int8_t_s_s>
    d75f:	48 8b 85 e8 f2 ff ff 	mov    -0xd18(%rbp),%rax
    d766:	8b 10                	mov    (%rax),%edx
    d768:	48 8b 85 b8 f3 ff ff 	mov    -0xc48(%rbp),%rax
    d76f:	0f b7 00             	movzwl (%rax),%eax
    d772:	31 c2                	xor    %eax,%edx
    d774:	48 8b 85 b8 f3 ff ff 	mov    -0xc48(%rbp),%rax
    d77b:	66 89 10             	mov    %dx,(%rax)
    d77e:	48 8b 85 b8 f3 ff ff 	mov    -0xc48(%rbp),%rax
    d785:	0f b7 00             	movzwl (%rax),%eax
    d788:	98                   	cwtl   
    d789:	23 85 04 f2 ff ff    	and    -0xdfc(%rbp),%eax
    d78f:	83 f8 5d             	cmp    $0x5d,%eax
    d792:	0f 9f c0             	setg   %al
    d795:	0f b6 d0             	movzbl %al,%edx
    d798:	8b 85 60 f1 ff ff    	mov    -0xea0(%rbp),%eax
    d79e:	09 d0                	or     %edx,%eax
    d7a0:	89 85 60 f1 ff ff    	mov    %eax,-0xea0(%rbp)
    d7a6:	c7 05 e4 c8 01 00 00 	movl   $0x0,0x1c8e4(%rip)        # 2a094 <g_2604>
    d7ad:	00 00 00 
    d7b0:	eb 2f                	jmp    d7e1 <func_1+0x202c>
    d7b2:	8b 05 dc c8 01 00    	mov    0x1c8dc(%rip),%eax        # 2a094 <g_2604>
    d7b8:	48 98                	cltq   
    d7ba:	48 8d 14 c5 00 00 00 	lea    0x0(,%rax,8),%rdx
    d7c1:	00 
    d7c2:	48 8d 05 5f 68 01 00 	lea    0x1685f(%rip),%rax        # 24028 <g_6>
    d7c9:	48 8b 04 02          	mov    (%rdx,%rax,1),%rax
    d7cd:	48 85 c0             	test   %rax,%rax
    d7d0:	75 1e                	jne    d7f0 <func_1+0x203b>
    d7d2:	8b 05 bc c8 01 00    	mov    0x1c8bc(%rip),%eax        # 2a094 <g_2604>
    d7d8:	83 c0 01             	add    $0x1,%eax
    d7db:	89 05 b3 c8 01 00    	mov    %eax,0x1c8b3(%rip)        # 2a094 <g_2604>
    d7e1:	8b 05 ad c8 01 00    	mov    0x1c8ad(%rip),%eax        # 2a094 <g_2604>
    d7e7:	85 c0                	test   %eax,%eax
    d7e9:	7e c7                	jle    d7b2 <func_1+0x1ffd>
    d7eb:	eb 04                	jmp    d7f1 <func_1+0x203c>
    d7ed:	90                   	nop
    d7ee:	eb 01                	jmp    d7f1 <func_1+0x203c>
    d7f0:	90                   	nop
    d7f1:	83 85 c4 f1 ff ff 01 	addl   $0x1,-0xe3c(%rbp)
    d7f8:	83 bd c4 f1 ff ff 01 	cmpl   $0x1,-0xe3c(%rbp)
    d7ff:	0f 86 09 fd ff ff    	jbe    d50e <func_1+0x1d59>
    d805:	eb 01                	jmp    d808 <func_1+0x2053>
    d807:	90                   	nop
    d808:	48 8d 85 90 f5 ff ff 	lea    -0xa70(%rbp),%rax
    d80f:	48 83 c0 04          	add    $0x4,%rax
    d813:	48 89 85 a8 f3 ff ff 	mov    %rax,-0xc58(%rbp)
    d81a:	48 8b 85 e8 f2 ff ff 	mov    -0xd18(%rbp),%rax
    d821:	8b 10                	mov    (%rax),%edx
    d823:	8b 85 94 f5 ff ff    	mov    -0xa6c(%rbp),%eax
    d829:	09 c2                	or     %eax,%edx
    d82b:	48 8b 85 e8 f2 ff ff 	mov    -0xd18(%rbp),%rax
    d832:	89 10                	mov    %edx,(%rax)
    d834:	48 8b 05 65 68 01 00 	mov    0x16865(%rip),%rax        # 240a0 <g_101>
    d83b:	48 83 c0 01          	add    $0x1,%rax
    d83f:	48 89 05 5a 68 01 00 	mov    %rax,0x1685a(%rip)        # 240a0 <g_101>
    d846:	48 8b 05 53 68 01 00 	mov    0x16853(%rip),%rax        # 240a0 <g_101>
    d84d:	48 83 f8 08          	cmp    $0x8,%rax
    d851:	0f 86 89 fc ff ff    	jbe    d4e0 <func_1+0x1d2b>
    d857:	48 8b 05 a2 ab 01 00 	mov    0x1aba2(%rip),%rax        # 28400 <g_610>
    d85e:	8b 00                	mov    (%rax),%eax
    d860:	85 c0                	test   %eax,%eax
    d862:	0f 84 12 06 00 00    	je     de7a <func_1+0x26c5>
    d868:	c7 85 b8 f2 ff ff f6 	movl   $0xfffffff6,-0xd48(%rbp)
    d86f:	ff ff ff 
    d872:	c6 85 4c f1 ff ff 31 	movb   $0x31,-0xeb4(%rbp)
    d879:	48 8d 05 40 c2 01 00 	lea    0x1c240(%rip),%rax        # 29ac0 <g_3591>
    d880:	48 89 85 68 f3 ff ff 	mov    %rax,-0xc98(%rbp)
    d887:	c7 85 f0 f1 ff ff a0 	movl   $0x51d4c3a0,-0xe10(%rbp)
    d88e:	c3 d4 51 
    d891:	c7 85 f4 f1 ff ff f9 	movl   $0xfffffff9,-0xe0c(%rbp)
    d898:	ff ff ff 
    d89b:	c7 85 70 fc ff ff 07 	movl   $0x7,-0x390(%rbp)
    d8a2:	00 00 00 
    d8a5:	c7 85 74 fc ff ff 44 	movl   $0xc4d8ee44,-0x38c(%rbp)
    d8ac:	ee d8 c4 
    d8af:	c7 85 78 fc ff ff 48 	movl   $0xd02d0f48,-0x388(%rbp)
    d8b6:	0f 2d d0 
    d8b9:	c7 85 7c fc ff ff 44 	movl   $0xc4d8ee44,-0x384(%rbp)
    d8c0:	ee d8 c4 
    d8c3:	c7 85 80 fc ff ff 44 	movl   $0xc4d8ee44,-0x380(%rbp)
    d8ca:	ee d8 c4 
    d8cd:	c7 85 84 fc ff ff 95 	movl   $0xedb55195,-0x37c(%rbp)
    d8d4:	51 b5 ed 
    d8d7:	c7 85 88 fc ff ff 48 	movl   $0xd02d0f48,-0x378(%rbp)
    d8de:	0f 2d d0 
    d8e1:	c7 85 8c fc ff ff 48 	movl   $0xd02d0f48,-0x374(%rbp)
    d8e8:	0f 2d d0 
    d8eb:	c7 85 90 fc ff ff 07 	movl   $0x7,-0x370(%rbp)
    d8f2:	00 00 00 
    d8f5:	c7 85 94 fc ff ff 07 	movl   $0x7,-0x36c(%rbp)
    d8fc:	00 00 00 
    d8ff:	c7 85 98 fc ff ff 44 	movl   $0xc4d8ee44,-0x368(%rbp)
    d906:	ee d8 c4 
    d909:	c7 85 9c fc ff ff 48 	movl   $0xd02d0f48,-0x364(%rbp)
    d910:	0f 2d d0 
    d913:	c7 85 a0 fc ff ff 7a 	movl   $0x83aba57a,-0x360(%rbp)
    d91a:	a5 ab 83 
    d91d:	c7 85 a4 fc ff ff 95 	movl   $0xedb55195,-0x35c(%rbp)
    d924:	51 b5 ed 
    d927:	c7 85 a8 fc ff ff 7a 	movl   $0x83aba57a,-0x358(%rbp)
    d92e:	a5 ab 83 
    d931:	c7 85 ac fc ff ff 44 	movl   $0xc4d8ee44,-0x354(%rbp)
    d938:	ee d8 c4 
    d93b:	c7 85 b0 fc ff ff 7a 	movl   $0x83aba57a,-0x350(%rbp)
    d942:	a5 ab 83 
    d945:	c7 85 b4 fc ff ff 44 	movl   $0xc4d8ee44,-0x34c(%rbp)
    d94c:	ee d8 c4 
    d94f:	c7 85 b8 fc ff ff 44 	movl   $0xc4d8ee44,-0x348(%rbp)
    d956:	ee d8 c4 
    d959:	c7 85 bc fc ff ff 7a 	movl   $0x83aba57a,-0x344(%rbp)
    d960:	a5 ab 83 
    d963:	c7 85 c0 fc ff ff 07 	movl   $0x7,-0x340(%rbp)
    d96a:	00 00 00 
    d96d:	c7 85 c4 fc ff ff 44 	movl   $0xc4d8ee44,-0x33c(%rbp)
    d974:	ee d8 c4 
    d977:	c7 85 c8 fc ff ff 48 	movl   $0xd02d0f48,-0x338(%rbp)
    d97e:	0f 2d d0 
    d981:	c7 85 cc fc ff ff 44 	movl   $0xc4d8ee44,-0x334(%rbp)
    d988:	ee d8 c4 
    d98b:	c6 85 49 f1 ff ff c0 	movb   $0xc0,-0xeb7(%rbp)
    d992:	66 c7 05 9f 66 01 00 	movw   $0x0,0x1669f(%rip)        # 2403a <g_46>
    d999:	00 00 
    d99b:	e9 c4 04 00 00       	jmpq   de64 <func_1+0x26af>
    d9a0:	c7 85 f8 f1 ff ff f6 	movl   $0xfffffff6,-0xe08(%rbp)
    d9a7:	ff ff ff 
    d9aa:	48 8d 85 20 f6 ff ff 	lea    -0x9e0(%rbp),%rax
    d9b1:	48 83 c0 70          	add    $0x70,%rax
    d9b5:	48 89 85 70 f3 ff ff 	mov    %rax,-0xc90(%rbp)
    d9bc:	c7 85 fc f1 ff ff 32 	movl   $0xb526e932,-0xe04(%rbp)
    d9c3:	e9 26 b5 
    d9c6:	c7 85 00 f2 ff ff 07 	movl   $0x7,-0xe00(%rbp)
    d9cd:	00 00 00 
    d9d0:	c7 85 80 f1 ff ff 00 	movl   $0x0,-0xe80(%rbp)
    d9d7:	00 00 00 
    d9da:	eb 19                	jmp    d9f5 <func_1+0x2240>
    d9dc:	8b 85 80 f1 ff ff    	mov    -0xe80(%rbp),%eax
    d9e2:	48 98                	cltq   
    d9e4:	66 c7 84 45 d0 f7 ff 	movw   $0x4364,-0x830(%rbp,%rax,2)
    d9eb:	ff 64 43 
    d9ee:	83 85 80 f1 ff ff 01 	addl   $0x1,-0xe80(%rbp)
    d9f5:	83 bd 80 f1 ff ff 03 	cmpl   $0x3,-0xe80(%rbp)
    d9fc:	7e de                	jle    d9dc <func_1+0x2227>
    d9fe:	c7 85 80 f1 ff ff 00 	movl   $0x0,-0xe80(%rbp)
    da05:	00 00 00 
    da08:	eb 1a                	jmp    da24 <func_1+0x226f>
    da0a:	8b 85 80 f1 ff ff    	mov    -0xe80(%rbp),%eax
    da10:	48 98                	cltq   
    da12:	c7 84 85 50 f4 ff ff 	movl   $0xbbcca6c7,-0xbb0(%rbp,%rax,4)
    da19:	c7 a6 cc bb 
    da1d:	83 85 80 f1 ff ff 01 	addl   $0x1,-0xe80(%rbp)
    da24:	83 bd 80 f1 ff ff 00 	cmpl   $0x0,-0xe80(%rbp)
    da2b:	7e dd                	jle    da0a <func_1+0x2255>
    da2d:	0f b6 05 d4 6b 01 00 	movzbl 0x16bd4(%rip),%eax        # 24608 <g_975>
    da34:	0f b6 d8             	movzbl %al,%ebx
    da37:	0f b7 85 d0 f7 ff ff 	movzwl -0x830(%rbp),%eax
    da3e:	66 85 c0             	test   %ax,%ax
    da41:	75 11                	jne    da54 <func_1+0x229f>
    da43:	48 8b 05 76 06 01 00 	mov    0x10676(%rip),%rax        # 1e0c0 <g_1431+0x40>
    da4a:	0f b7 85 d0 f7 ff ff 	movzwl -0x830(%rbp),%eax
    da51:	66 85 c0             	test   %ax,%ax
    da54:	0f b7 85 d2 f7 ff ff 	movzwl -0x82e(%rbp),%eax
    da5b:	66 85 c0             	test   %ax,%ax
    da5e:	75 0a                	jne    da6a <func_1+0x22b5>
    da60:	48 8b 85 f8 f9 ff ff 	mov    -0x608(%rbp),%rax
    da67:	48 85 c0             	test   %rax,%rax
    da6a:	48 8b 05 5f a9 01 00 	mov    0x1a95f(%rip),%rax        # 283d0 <g_389>
    da71:	48 8b 00             	mov    (%rax),%rax
    da74:	8b 85 b8 f2 ff ff    	mov    -0xd48(%rbp),%eax
    da7a:	85 c0                	test   %eax,%eax
    da7c:	74 07                	je     da85 <func_1+0x22d0>
    da7e:	b8 01 00 00 00       	mov    $0x1,%eax
    da83:	eb 05                	jmp    da8a <func_1+0x22d5>
    da85:	b8 00 00 00 00       	mov    $0x0,%eax
    da8a:	98                   	cwtl   
    da8b:	be 08 00 00 00       	mov    $0x8,%esi
    da90:	89 c7                	mov    %eax,%edi
    da92:	e8 cc ca ff ff       	callq  a563 <safe_rshift_func_int16_t_s_u>
    da97:	0f b6 c0             	movzbl %al,%eax
    da9a:	be 01 00 00 00       	mov    $0x1,%esi
    da9f:	89 c7                	mov    %eax,%edi
    daa1:	e8 a6 d1 ff ff       	callq  ac4c <safe_lshift_func_uint8_t_u_u>
    daa6:	0f b6 c0             	movzbl %al,%eax
    daa9:	25 fc 00 00 00       	and    $0xfc,%eax
    daae:	89 de                	mov    %ebx,%esi
    dab0:	89 c7                	mov    %eax,%edi
    dab2:	e8 f7 d0 ff ff       	callq  abae <safe_mod_func_uint8_t_u_u>
    dab7:	48 8b 95 e8 f2 ff ff 	mov    -0xd18(%rbp),%rdx
    dabe:	8b 12                	mov    (%rdx),%edx
    dac0:	0f b6 c0             	movzbl %al,%eax
    dac3:	31 c2                	xor    %eax,%edx
    dac5:	48 8b 85 e8 f2 ff ff 	mov    -0xd18(%rbp),%rax
    dacc:	89 10                	mov    %edx,(%rax)
    dace:	48 8d 85 a0 f2 ff ff 	lea    -0xd60(%rbp),%rax
    dad5:	48 89 85 78 f3 ff ff 	mov    %rax,-0xc88(%rbp)
    dadc:	48 8d 05 29 c4 01 00 	lea    0x1c429(%rip),%rax        # 29f0c <g_65>
    dae3:	48 89 85 80 f3 ff ff 	mov    %rax,-0xc80(%rbp)
    daea:	48 8d 85 64 f1 ff ff 	lea    -0xe9c(%rbp),%rax
    daf1:	48 89 85 88 f3 ff ff 	mov    %rax,-0xc78(%rbp)
    daf8:	48 8d 85 08 f4 ff ff 	lea    -0xbf8(%rbp),%rax
    daff:	48 89 85 90 f3 ff ff 	mov    %rax,-0xc70(%rbp)
    db06:	48 8d 05 6b 66 01 00 	lea    0x1666b(%rip),%rax        # 24178 <g_305>
    db0d:	48 89 85 98 f3 ff ff 	mov    %rax,-0xc68(%rbp)
    db14:	48 c7 85 90 fa ff ff 	movq   $0x0,-0x570(%rbp)
    db1b:	00 00 00 00 
    db1f:	48 8d 85 5c f1 ff ff 	lea    -0xea4(%rbp),%rax
    db26:	48 89 85 98 fa ff ff 	mov    %rax,-0x568(%rbp)
    db2d:	48 c7 85 a0 fa ff ff 	movq   $0x0,-0x560(%rbp)
    db34:	00 00 00 00 
    db38:	48 c7 85 a8 fa ff ff 	movq   $0x0,-0x558(%rbp)
    db3f:	00 00 00 00 
    db43:	48 8d 85 5c f1 ff ff 	lea    -0xea4(%rbp),%rax
    db4a:	48 89 85 b0 fa ff ff 	mov    %rax,-0x550(%rbp)
    db51:	48 c7 85 b8 fa ff ff 	movq   $0x0,-0x548(%rbp)
    db58:	00 00 00 00 
    db5c:	48 8b 85 10 f3 ff ff 	mov    -0xcf0(%rbp),%rax
    db63:	0f b6 d0             	movzbl %al,%edx
    db66:	48 8b 05 3b 75 01 00 	mov    0x1753b(%rip),%rax        # 250a8 <g_2120+0x28>
    db6d:	0f b6 c0             	movzbl %al,%eax
    db70:	89 d6                	mov    %edx,%esi
    db72:	89 c7                	mov    %eax,%edi
    db74:	e8 ff cf ff ff       	callq  ab78 <safe_sub_func_uint8_t_u_u>
    db79:	44 0f b6 e8          	movzbl %al,%r13d
    db7d:	8b 85 d8 f1 ff ff    	mov    -0xe28(%rbp),%eax
    db83:	48 98                	cltq   
    db85:	48 89 c6             	mov    %rax,%rsi
    db88:	48 bf ba 32 6e 70 8d 	movabs $0xd767fb8d706e32ba,%rdi
    db8f:	fb 67 d7 
    db92:	e8 1d ce ff ff       	callq  a9b4 <safe_mod_func_int64_t_s_s>
    db97:	48 8b 85 e8 f2 ff ff 	mov    -0xd18(%rbp),%rax
    db9e:	8b 00                	mov    (%rax),%eax
    dba0:	0f b7 d8             	movzwl %ax,%ebx
    dba3:	48 8b 85 e8 f2 ff ff 	mov    -0xd18(%rbp),%rax
    dbaa:	8b 00                	mov    (%rax),%eax
    dbac:	4c 63 e0             	movslq %eax,%r12
    dbaf:	0f b6 05 7a 67 01 00 	movzbl 0x1677a(%rip),%eax        # 24330 <g_375>
    dbb6:	84 c0                	test   %al,%al
    dbb8:	74 28                	je     dbe2 <func_1+0x242d>
    dbba:	48 8b 85 78 f3 ff ff 	mov    -0xc88(%rbp),%rax
    dbc1:	48 89 05 c8 be 01 00 	mov    %rax,0x1bec8(%rip)        # 29a90 <g_3577>
    dbc8:	48 8b 15 c1 be 01 00 	mov    0x1bec1(%rip),%rdx        # 29a90 <g_3577>
    dbcf:	48 8d 85 a0 f2 ff ff 	lea    -0xd60(%rbp),%rax
    dbd6:	48 39 c2             	cmp    %rax,%rdx
    dbd9:	74 07                	je     dbe2 <func_1+0x242d>
    dbdb:	b8 01 00 00 00       	mov    $0x1,%eax
    dbe0:	eb 05                	jmp    dbe7 <func_1+0x2432>
    dbe2:	b8 00 00 00 00       	mov    $0x0,%eax
    dbe7:	48 98                	cltq   
    dbe9:	48 be 2b 82 90 cc 7c 	movabs $0xde12a7ccc90822b,%rsi
    dbf0:	2a e1 0d 
    dbf3:	48 89 c7             	mov    %rax,%rdi
    dbf6:	e8 33 d4 ff ff       	callq  b02e <safe_add_func_uint64_t_u_u>
    dbfb:	4c 89 e6             	mov    %r12,%rsi
    dbfe:	48 89 c7             	mov    %rax,%rdi
    dc01:	e8 ae cd ff ff       	callq  a9b4 <safe_mod_func_int64_t_s_s>
    dc06:	48 3d b9 3e 00 00    	cmp    $0x3eb9,%rax
    dc0c:	0f 9e c0             	setle  %al
    dc0f:	0f b6 c0             	movzbl %al,%eax
    dc12:	be 02 00 00 00       	mov    $0x2,%esi
    dc17:	89 c7                	mov    %eax,%edi
    dc19:	e8 4e c7 ff ff       	callq  a36c <safe_rshift_func_int8_t_s_u>
    dc1e:	3c ff                	cmp    $0xff,%al
    dc20:	75 09                	jne    dc2b <func_1+0x2476>
    dc22:	83 bd f8 f1 ff ff 00 	cmpl   $0x0,-0xe08(%rbp)
    dc29:	74 07                	je     dc32 <func_1+0x247d>
    dc2b:	b8 01 00 00 00       	mov    $0x1,%eax
    dc30:	eb 05                	jmp    dc37 <func_1+0x2482>
    dc32:	b8 00 00 00 00       	mov    $0x0,%eax
    dc37:	0f b7 c0             	movzwl %ax,%eax
    dc3a:	89 de                	mov    %ebx,%esi
    dc3c:	89 c7                	mov    %eax,%edi
    dc3e:	e8 fa d0 ff ff       	callq  ad3d <safe_mul_func_uint16_t_u_u>
    dc43:	8b 85 b8 f2 ff ff    	mov    -0xd48(%rbp),%eax
    dc49:	83 f8 01             	cmp    $0x1,%eax
    dc4c:	0f 94 c0             	sete   %al
    dc4f:	0f b6 c0             	movzbl %al,%eax
    dc52:	8b 95 d8 f1 ff ff    	mov    -0xe28(%rbp),%edx
    dc58:	89 d6                	mov    %edx,%esi
    dc5a:	89 c7                	mov    %eax,%edi
    dc5c:	e8 6b ca ff ff       	callq  a6cc <safe_mod_func_int32_t_s_s>
    dc61:	41 39 c5             	cmp    %eax,%r13d
    dc64:	7e 14                	jle    dc7a <func_1+0x24c5>
    dc66:	48 8b 05 1b bc 01 00 	mov    0x1bc1b(%rip),%rax        # 29888 <g_2036>
    dc6d:	8b 00                	mov    (%rax),%eax
    dc6f:	85 c0                	test   %eax,%eax
    dc71:	74 07                	je     dc7a <func_1+0x24c5>
    dc73:	b8 01 00 00 00       	mov    $0x1,%eax
    dc78:	eb 05                	jmp    dc7f <func_1+0x24ca>
    dc7a:	b8 00 00 00 00       	mov    $0x0,%eax
    dc7f:	0f be c0             	movsbl %al,%eax
    dc82:	be 9a ff ff ff       	mov    $0xffffff9a,%esi
    dc87:	89 c7                	mov    %eax,%edi
    dc89:	e8 84 c5 ff ff       	callq  a212 <safe_mul_func_int8_t_s_s>
    dc8e:	c7 85 b8 f2 ff ff fc 	movl   $0xfc,-0xd48(%rbp)
    dc95:	00 00 00 
    dc98:	8b 85 f8 f1 ff ff    	mov    -0xe08(%rbp),%eax
    dc9e:	0f bf d0             	movswl %ax,%edx
    dca1:	48 8b 85 e8 f2 ff ff 	mov    -0xd18(%rbp),%rax
    dca8:	8b 00                	mov    (%rax),%eax
    dcaa:	85 c0                	test   %eax,%eax
    dcac:	75 39                	jne    dce7 <func_1+0x2532>
    dcae:	48 8b 85 e8 f2 ff ff 	mov    -0xd18(%rbp),%rax
    dcb5:	8b 00                	mov    (%rax),%eax
    dcb7:	89 c1                	mov    %eax,%ecx
    dcb9:	48 83 bd 20 f3 ff ff 	cmpq   $0x0,-0xce0(%rbp)
    dcc0:	00 
    dcc1:	0f 94 c0             	sete   %al
    dcc4:	0f b6 c0             	movzbl %al,%eax
    dcc7:	23 85 f8 f1 ff ff    	and    -0xe08(%rbp),%eax
    dccd:	31 c8                	xor    %ecx,%eax
    dccf:	89 c1                	mov    %eax,%ecx
    dcd1:	48 8b 85 e8 f2 ff ff 	mov    -0xd18(%rbp),%rax
    dcd8:	89 08                	mov    %ecx,(%rax)
    dcda:	48 8b 85 e8 f2 ff ff 	mov    -0xd18(%rbp),%rax
    dce1:	8b 00                	mov    (%rax),%eax
    dce3:	85 c0                	test   %eax,%eax
    dce5:	74 07                	je     dcee <func_1+0x2539>
    dce7:	b8 01 00 00 00       	mov    $0x1,%eax
    dcec:	eb 05                	jmp    dcf3 <func_1+0x253e>
    dcee:	b8 00 00 00 00       	mov    $0x0,%eax
    dcf3:	f7 d0                	not    %eax
    dcf5:	39 85 d4 f1 ff ff    	cmp    %eax,-0xe2c(%rbp)
    dcfb:	0f 95 c0             	setne  %al
    dcfe:	0f b6 c0             	movzbl %al,%eax
    dd01:	89 d6                	mov    %edx,%esi
    dd03:	89 c7                	mov    %eax,%edi
    dd05:	e8 c9 c6 ff ff       	callq  a3d3 <safe_sub_func_int16_t_s_s>
    dd0a:	48 8b 95 80 f3 ff ff 	mov    -0xc80(%rbp),%rdx
    dd11:	8b 12                	mov    (%rdx),%edx
    dd13:	98                   	cwtl   
    dd14:	31 c2                	xor    %eax,%edx
    dd16:	48 8b 85 80 f3 ff ff 	mov    -0xc80(%rbp),%rax
    dd1d:	89 10                	mov    %edx,(%rax)
    dd1f:	66 c7 05 80 63 01 00 	movw   $0x0,0x16380(%rip)        # 240a8 <g_143>
    dd26:	00 00 
    dd28:	e9 f4 00 00 00       	jmpq   de21 <func_1+0x266c>
    dd2d:	48 8d 05 b4 bc 01 00 	lea    0x1bcb4(%rip),%rax        # 299e8 <g_2671>
    dd34:	48 89 85 a0 f3 ff ff 	mov    %rax,-0xc60(%rbp)
    dd3b:	48 8b 05 5e a6 01 00 	mov    0x1a65e(%rip),%rax        # 283a0 <g_146>
    dd42:	48 8d 95 b8 f2 ff ff 	lea    -0xd48(%rbp),%rdx
    dd49:	48 89 10             	mov    %rdx,(%rax)
    dd4c:	48 8b 05 5d a6 01 00 	mov    0x1a65d(%rip),%rax        # 283b0 <g_265>
    dd53:	48 8b 00             	mov    (%rax),%rax
    dd56:	48 8d 95 b8 f2 ff ff 	lea    -0xd48(%rbp),%rdx
    dd5d:	48 89 10             	mov    %rdx,(%rax)
    dd60:	48 8b 05 61 bd 01 00 	mov    0x1bd61(%rip),%rax        # 29ac8 <g_3590>
    dd67:	48 89 85 68 f3 ff ff 	mov    %rax,-0xc98(%rbp)
    dd6e:	8b 85 b8 f2 ff ff    	mov    -0xd48(%rbp),%eax
    dd74:	48 63 d8             	movslq %eax,%rbx
    dd77:	0f b7 85 d0 f7 ff ff 	movzwl -0x830(%rbp),%eax
    dd7e:	0f bf d0             	movswl %ax,%edx
    dd81:	48 8b 8d 90 f4 ff ff 	mov    -0xb70(%rbp),%rcx
    dd88:	48 8b 85 a0 f3 ff ff 	mov    -0xc60(%rbp),%rax
    dd8f:	48 89 08             	mov    %rcx,(%rax)
    dd92:	48 8b 85 a0 f3 ff ff 	mov    -0xc60(%rbp),%rax
    dd99:	48 8b 00             	mov    (%rax),%rax
    dd9c:	48 39 85 f8 f2 ff ff 	cmp    %rax,-0xd08(%rbp)
    dda3:	0f 94 c0             	sete   %al
    dda6:	0f b6 c8             	movzbl %al,%ecx
    dda9:	0f be 85 4c f1 ff ff 	movsbl -0xeb4(%rbp),%eax
    ddb0:	39 c1                	cmp    %eax,%ecx
    ddb2:	0f 95 c0             	setne  %al
    ddb5:	0f b6 c0             	movzbl %al,%eax
    ddb8:	89 d6                	mov    %edx,%esi
    ddba:	89 c7                	mov    %eax,%edi
    ddbc:	e8 34 c6 ff ff       	callq  a3f5 <safe_mul_func_int16_t_s_s>
    ddc1:	4c 0f bf e0          	movswq %ax,%r12
    ddc5:	48 8b 05 2c a6 01 00 	mov    0x1a62c(%rip),%rax        # 283f8 <g_607>
    ddcc:	48 8b 00             	mov    (%rax),%rax
    ddcf:	48 8b 00             	mov    (%rax),%rax
    ddd2:	48 be f3 84 ec 9f f9 	movabs $0xa1929df99fec84f3,%rsi
    ddd9:	9d 92 a1 
    dddc:	bf 01 00 00 00       	mov    $0x1,%edi
    dde1:	e8 9a d2 ff ff       	callq  b080 <safe_mod_func_uint64_t_u_u>
    dde6:	49 39 c4             	cmp    %rax,%r12
    dde9:	0f 95 c0             	setne  %al
    ddec:	0f b6 c0             	movzbl %al,%eax
    ddef:	48 89 de             	mov    %rbx,%rsi
    ddf2:	48 89 c7             	mov    %rax,%rdi
    ddf5:	e8 51 d2 ff ff       	callq  b04b <safe_sub_func_uint64_t_u_u>
    ddfa:	48 8b 95 80 f3 ff ff 	mov    -0xc80(%rbp),%rdx
    de01:	8b 12                	mov    (%rdx),%edx
    de03:	09 d0                	or     %edx,%eax
    de05:	89 c2                	mov    %eax,%edx
    de07:	48 8b 85 80 f3 ff ff 	mov    -0xc80(%rbp),%rax
    de0e:	89 10                	mov    %edx,(%rax)
    de10:	0f b7 05 91 62 01 00 	movzwl 0x16291(%rip),%eax        # 240a8 <g_143>
    de17:	83 c0 01             	add    $0x1,%eax
    de1a:	66 89 05 87 62 01 00 	mov    %ax,0x16287(%rip)        # 240a8 <g_143>
    de21:	0f b7 05 80 62 01 00 	movzwl 0x16280(%rip),%eax        # 240a8 <g_143>
    de28:	66 83 f8 01          	cmp    $0x1,%ax
    de2c:	0f 86 fb fe ff ff    	jbe    dd2d <func_1+0x2578>
    de32:	80 85 49 f1 ff ff 01 	addb   $0x1,-0xeb7(%rbp)
    de39:	48 8b 85 10 f3 ff ff 	mov    -0xcf0(%rbp),%rax
    de40:	89 85 fc f1 ff ff    	mov    %eax,-0xe04(%rbp)
    de46:	0f b7 05 ed 61 01 00 	movzwl 0x161ed(%rip),%eax        # 2403a <g_46>
    de4d:	0f b7 c0             	movzwl %ax,%eax
    de50:	be 08 00 00 00       	mov    $0x8,%esi
    de55:	48 89 c7             	mov    %rax,%rdi
    de58:	e8 e4 c9 ff ff       	callq  a841 <safe_add_func_int64_t_s_s>
    de5d:	66 89 05 d6 61 01 00 	mov    %ax,0x161d6(%rip)        # 2403a <g_46>
    de64:	0f b7 05 cf 61 01 00 	movzwl 0x161cf(%rip),%eax        # 2403a <g_46>
    de6b:	66 83 f8 04          	cmp    $0x4,%ax
    de6f:	0f 84 2b fb ff ff    	je     d9a0 <func_1+0x21eb>
    de75:	e9 cd 05 00 00       	jmpq   e447 <func_1+0x2c92>
    de7a:	c7 85 e0 f1 ff ff 00 	movl   $0x0,-0xe20(%rbp)
    de81:	00 00 00 
    de84:	c6 85 4a f1 ff ff 72 	movb   $0x72,-0xeb6(%rbp)
    de8b:	c7 85 84 f1 ff ff 00 	movl   $0x0,-0xe7c(%rbp)
    de92:	00 00 00 
    de95:	eb 1a                	jmp    deb1 <func_1+0x26fc>
    de97:	8b 85 84 f1 ff ff    	mov    -0xe7c(%rbp),%eax
    de9d:	48 98                	cltq   
    de9f:	c7 84 85 d0 f7 ff ff 	movl   $0xe7c33910,-0x830(%rbp,%rax,4)
    dea6:	10 39 c3 e7 
    deaa:	83 85 84 f1 ff ff 01 	addl   $0x1,-0xe7c(%rbp)
    deb1:	83 bd 84 f1 ff ff 01 	cmpl   $0x1,-0xe7c(%rbp)
    deb8:	7e dd                	jle    de97 <func_1+0x26e2>
    deba:	48 8b 85 10 f3 ff ff 	mov    -0xcf0(%rbp),%rax
    dec1:	41 89 c4             	mov    %eax,%r12d
    dec4:	48 83 bd 08 f3 ff ff 	cmpq   $0x0,-0xcf8(%rbp)
    decb:	00 
    decc:	0f 95 c0             	setne  %al
    decf:	0f b6 d8             	movzbl %al,%ebx
    ded2:	48 8b 85 e8 f2 ff ff 	mov    -0xd18(%rbp),%rax
    ded9:	8b 00                	mov    (%rax),%eax
    dedb:	98                   	cwtl   
    dedc:	be 79 96 ff ff       	mov    $0xffff9679,%esi
    dee1:	89 c7                	mov    %eax,%edi
    dee3:	e8 cb c4 ff ff       	callq  a3b3 <safe_add_func_int16_t_s_s>
    dee8:	0f be c0             	movsbl %al,%eax
    deeb:	89 de                	mov    %ebx,%esi
    deed:	89 c7                	mov    %eax,%edi
    deef:	e8 ad c3 ff ff       	callq  a2a1 <safe_lshift_func_int8_t_s_s>
    def4:	8b 95 94 f5 ff ff    	mov    -0xa6c(%rbp),%edx
    defa:	48 8b 85 e8 f2 ff ff 	mov    -0xd18(%rbp),%rax
    df01:	8b 00                	mov    (%rax),%eax
    df03:	83 f8 01             	cmp    $0x1,%eax
    df06:	0f 9f c0             	setg   %al
    df09:	0f b6 c8             	movzbl %al,%ecx
    df0c:	48 8b 05 65 b5 01 00 	mov    0x1b565(%rip),%rax        # 29478 <g_1351>
    df13:	48 8b 00             	mov    (%rax),%rax
    df16:	48 39 c1             	cmp    %rax,%rcx
    df19:	0f 9d c0             	setge  %al
    df1c:	0f b6 c0             	movzbl %al,%eax
    df1f:	39 c2                	cmp    %eax,%edx
    df21:	0f 9e c0             	setle  %al
    df24:	0f b6 d0             	movzbl %al,%edx
    df27:	48 8d 05 32 c1 01 00 	lea    0x1c132(%rip),%rax        # 2a060 <g_1450>
    df2e:	48 39 85 00 f3 ff ff 	cmp    %rax,-0xd00(%rbp)
    df35:	0f 94 c0             	sete   %al
    df38:	0f b6 c0             	movzbl %al,%eax
    df3b:	89 d6                	mov    %edx,%esi
    df3d:	89 c7                	mov    %eax,%edi
    df3f:	e8 8f c4 ff ff       	callq  a3d3 <safe_sub_func_int16_t_s_s>
    df44:	f7 d0                	not    %eax
    df46:	0f b7 c0             	movzwl %ax,%eax
    df49:	be f8 ff 00 00       	mov    $0xfff8,%esi
    df4e:	89 c7                	mov    %eax,%edi
    df50:	e8 07 ce ff ff       	callq  ad5c <safe_mod_func_uint16_t_u_u>
    df55:	0f b7 d0             	movzwl %ax,%edx
    df58:	48 8b 85 e8 f2 ff ff 	mov    -0xd18(%rbp),%rax
    df5f:	8b 00                	mov    (%rax),%eax
    df61:	39 c2                	cmp    %eax,%edx
    df63:	0f 9e c0             	setle  %al
    df66:	0f b6 d0             	movzbl %al,%edx
    df69:	48 8b 85 e8 f2 ff ff 	mov    -0xd18(%rbp),%rax
    df70:	89 10                	mov    %edx,(%rax)
    df72:	48 8b 85 e8 f2 ff ff 	mov    -0xd18(%rbp),%rax
    df79:	8b 00                	mov    (%rax),%eax
    df7b:	44 89 e6             	mov    %r12d,%esi
    df7e:	89 c7                	mov    %eax,%edi
    df80:	e8 31 c6 ff ff       	callq  a5b6 <safe_add_func_int32_t_s_s>
    df85:	89 c2                	mov    %eax,%edx
    df87:	8b 85 d4 f7 ff ff    	mov    -0x82c(%rbp),%eax
    df8d:	09 d0                	or     %edx,%eax
    df8f:	0f bf d8             	movswl %ax,%ebx
    df92:	48 8b 05 4f ba 01 00 	mov    0x1ba4f(%rip),%rax        # 299e8 <g_2671>
    df99:	8b 00                	mov    (%rax),%eax
    df9b:	41 89 c4             	mov    %eax,%r12d
    df9e:	8b 85 94 f5 ff ff    	mov    -0xa6c(%rbp),%eax
    dfa4:	89 c7                	mov    %eax,%edi
    dfa6:	e8 eb c5 ff ff       	callq  a596 <safe_unary_minus_func_int32_t_s>
    dfab:	44 89 e6             	mov    %r12d,%esi
    dfae:	89 c7                	mov    %eax,%edi
    dfb0:	e8 50 c6 ff ff       	callq  a605 <safe_sub_func_int32_t_s_s>
    dfb5:	98                   	cwtl   
    dfb6:	89 de                	mov    %ebx,%esi
    dfb8:	89 c7                	mov    %eax,%edi
    dfba:	e8 57 c4 ff ff       	callq  a416 <safe_mod_func_int16_t_s_s>
    dfbf:	98                   	cwtl   
    dfc0:	09 85 dc f1 ff ff    	or     %eax,-0xe24(%rbp)
    dfc6:	c7 85 e0 f1 ff ff 24 	movl   $0x4a07de24,-0xe20(%rbp)
    dfcd:	de 07 4a 
    dfd0:	66 c7 05 cf 60 01 00 	movw   $0x0,0x160cf(%rip)        # 240a8 <g_143>
    dfd7:	00 00 
    dfd9:	e9 58 04 00 00       	jmpq   e436 <func_1+0x2c81>
    dfde:	c7 85 e4 f1 ff ff 00 	movl   $0x0,-0xe1c(%rbp)
    dfe5:	00 00 00 
    dfe8:	c7 85 e8 f1 ff ff 83 	movl   $0xc0499783,-0xe18(%rbp)
    dfef:	97 49 c0 
    dff2:	48 8d 05 df b8 01 00 	lea    0x1b8df(%rip),%rax        # 298d8 <g_2370>
    dff9:	48 8b 00             	mov    (%rax),%rax
    dffc:	48 8b 95 28 f3 ff ff 	mov    -0xcd8(%rbp),%rdx
    e003:	48 89 10             	mov    %rdx,(%rax)
    e006:	66 c7 85 50 f1 ff ff 	movw   $0x0,-0xeb0(%rbp)
    e00d:	00 00 
    e00f:	e9 52 01 00 00       	jmpq   e166 <func_1+0x29b1>
    e014:	c7 05 7a 75 01 00 00 	movl   $0x0,0x1757a(%rip)        # 25598 <g_3389>
    e01b:	00 00 00 
    e01e:	e9 2c 01 00 00       	jmpq   e14f <func_1+0x299a>
    e023:	c6 85 4b f1 ff ff fc 	movb   $0xfc,-0xeb5(%rbp)
    e02a:	48 8d 85 60 f1 ff ff 	lea    -0xea0(%rbp),%rax
    e031:	48 89 85 60 f3 ff ff 	mov    %rax,-0xca0(%rbp)
    e038:	48 8b 85 a0 f2 ff ff 	mov    -0xd60(%rbp),%rax
    e03f:	48 c7 00 00 00 00 00 	movq   $0x0,(%rax)
    e046:	0f b6 05 e3 62 01 00 	movzbl 0x162e3(%rip),%eax        # 24330 <g_375>
    e04d:	0f b6 d8             	movzbl %al,%ebx
    e050:	48 8b 05 a9 b9 01 00 	mov    0x1b9a9(%rip),%rax        # 29a00 <g_3001>
    e057:	48 8b 00             	mov    (%rax),%rax
    e05a:	48 8b 00             	mov    (%rax),%rax
    e05d:	48 8b 00             	mov    (%rax),%rax
    e060:	0f b7 00             	movzwl (%rax),%eax
    e063:	44 0f bf e0          	movswl %ax,%r12d
    e067:	be 07 00 00 00       	mov    $0x7,%esi
    e06c:	bf 02 00 00 00       	mov    $0x2,%edi
    e071:	e8 78 c2 ff ff       	callq  a2ee <safe_lshift_func_int8_t_s_u>
    e076:	be fa 57 16 67       	mov    $0x671657fa,%esi
    e07b:	bf 00 00 00 00       	mov    $0x0,%edi
    e080:	e8 a0 ce ff ff       	callq  af25 <safe_div_func_uint32_t_u_u>
    e085:	f7 d0                	not    %eax
    e087:	89 c2                	mov    %eax,%edx
    e089:	8b 85 e4 f1 ff ff    	mov    -0xe1c(%rbp),%eax
    e08f:	21 d0                	and    %edx,%eax
    e091:	98                   	cwtl   
    e092:	44 89 e6             	mov    %r12d,%esi
    e095:	89 c7                	mov    %eax,%edi
    e097:	e8 37 c3 ff ff       	callq  a3d3 <safe_sub_func_int16_t_s_s>
    e09c:	be 08 00 00 00       	mov    $0x8,%esi
    e0a1:	bf 01 00 00 00       	mov    $0x1,%edi
    e0a6:	e8 b8 c4 ff ff       	callq  a563 <safe_rshift_func_int16_t_s_u>
    e0ab:	48 8b 85 e8 f2 ff ff 	mov    -0xd18(%rbp),%rax
    e0b2:	8b 00                	mov    (%rax),%eax
    e0b4:	39 85 e4 f1 ff ff    	cmp    %eax,-0xe1c(%rbp)
    e0ba:	48 8b 85 e8 f2 ff ff 	mov    -0xd18(%rbp),%rax
    e0c1:	8b 00                	mov    (%rax),%eax
    e0c3:	48 98                	cltq   
    e0c5:	48 3d fd 00 00 00    	cmp    $0xfd,%rax
    e0cb:	0f 96 c0             	setbe  %al
    e0ce:	0f b6 d0             	movzbl %al,%edx
    e0d1:	48 8b 85 80 f2 ff ff 	mov    -0xd80(%rbp),%rax
    e0d8:	48 8b 00             	mov    (%rax),%rax
    e0db:	48 8b 08             	mov    (%rax),%rcx
    e0de:	48 63 d2             	movslq %edx,%rdx
    e0e1:	48 8b 85 80 f2 ff ff 	mov    -0xd80(%rbp),%rax
    e0e8:	48 8b 00             	mov    (%rax),%rax
    e0eb:	48 21 ca             	and    %rcx,%rdx
    e0ee:	48 89 10             	mov    %rdx,(%rax)
    e0f1:	48 8b 00             	mov    (%rax),%rax
    e0f4:	48 85 c0             	test   %rax,%rax
    e0f7:	0f 94 c0             	sete   %al
    e0fa:	0f b6 d0             	movzbl %al,%edx
    e0fd:	48 8b 85 e8 f2 ff ff 	mov    -0xd18(%rbp),%rax
    e104:	89 10                	mov    %edx,(%rax)
    e106:	48 8b 85 e8 f2 ff ff 	mov    -0xd18(%rbp),%rax
    e10d:	8b 00                	mov    (%rax),%eax
    e10f:	89 c6                	mov    %eax,%esi
    e111:	bf e1 3f 92 fa       	mov    $0xfa923fe1,%edi
    e116:	e8 9d cd ff ff       	callq  aeb8 <safe_add_func_uint32_t_u_u>
    e11b:	89 c6                	mov    %eax,%esi
    e11d:	bf 04 00 00 00       	mov    $0x4,%edi
    e122:	e8 de c4 ff ff       	callq  a605 <safe_sub_func_int32_t_s_s>
    e127:	0f b6 c0             	movzbl %al,%eax
    e12a:	89 de                	mov    %ebx,%esi
    e12c:	89 c7                	mov    %eax,%edi
    e12e:	e8 45 ca ff ff       	callq  ab78 <safe_sub_func_uint8_t_u_u>
    e133:	48 8b 85 60 f3 ff ff 	mov    -0xca0(%rbp),%rax
    e13a:	c7 00 00 00 00 00    	movl   $0x0,(%rax)
    e140:	8b 05 52 74 01 00    	mov    0x17452(%rip),%eax        # 25598 <g_3389>
    e146:	83 c0 01             	add    $0x1,%eax
    e149:	89 05 49 74 01 00    	mov    %eax,0x17449(%rip)        # 25598 <g_3389>
    e14f:	8b 05 43 74 01 00    	mov    0x17443(%rip),%eax        # 25598 <g_3389>
    e155:	83 f8 04             	cmp    $0x4,%eax
    e158:	0f 8e c5 fe ff ff    	jle    e023 <func_1+0x286e>
    e15e:	66 83 85 50 f1 ff ff 	addw   $0x1,-0xeb0(%rbp)
    e165:	01 
    e166:	66 83 bd 50 f1 ff ff 	cmpw   $0x6,-0xeb0(%rbp)
    e16d:	06 
    e16e:	0f 86 a0 fe ff ff    	jbe    e014 <func_1+0x285f>
    e174:	c7 05 fa 5f 01 00 00 	movl   $0x0,0x15ffa(%rip)        # 24178 <g_305>
    e17b:	00 00 00 
    e17e:	e9 93 02 00 00       	jmpq   e416 <func_1+0x2c61>
    e183:	48 8d 05 26 6f 01 00 	lea    0x16f26(%rip),%rax        # 250b0 <g_2135>
    e18a:	48 89 85 70 fc ff ff 	mov    %rax,-0x390(%rbp)
    e191:	48 8d 05 68 70 01 00 	lea    0x17068(%rip),%rax        # 25200 <g_2461+0x60>
    e198:	48 89 85 78 fc ff ff 	mov    %rax,-0x388(%rbp)
    e19f:	48 8d 05 0a 6f 01 00 	lea    0x16f0a(%rip),%rax        # 250b0 <g_2135>
    e1a6:	48 89 85 80 fc ff ff 	mov    %rax,-0x380(%rbp)
    e1ad:	48 8d 05 ec 88 01 00 	lea    0x188ec(%rip),%rax        # 26aa0 <g_3394>
    e1b4:	48 89 85 88 fc ff ff 	mov    %rax,-0x378(%rbp)
    e1bb:	48 8d 05 4e 66 01 00 	lea    0x1664e(%rip),%rax        # 24810 <g_1822+0x30>
    e1c2:	48 89 85 90 fc ff ff 	mov    %rax,-0x370(%rbp)
    e1c9:	48 8d 05 d0 88 01 00 	lea    0x188d0(%rip),%rax        # 26aa0 <g_3394>
    e1d0:	48 89 85 98 fc ff ff 	mov    %rax,-0x368(%rbp)
    e1d7:	48 8d 05 d2 6e 01 00 	lea    0x16ed2(%rip),%rax        # 250b0 <g_2135>
    e1de:	48 89 85 a0 fc ff ff 	mov    %rax,-0x360(%rbp)
    e1e5:	48 8d 05 14 70 01 00 	lea    0x17014(%rip),%rax        # 25200 <g_2461+0x60>
    e1ec:	48 89 85 a8 fc ff ff 	mov    %rax,-0x358(%rbp)
    e1f3:	48 8d 05 b6 6e 01 00 	lea    0x16eb6(%rip),%rax        # 250b0 <g_2135>
    e1fa:	48 89 85 b0 fc ff ff 	mov    %rax,-0x350(%rbp)
    e201:	48 8d 05 98 88 01 00 	lea    0x18898(%rip),%rax        # 26aa0 <g_3394>
    e208:	48 89 85 b8 fc ff ff 	mov    %rax,-0x348(%rbp)
    e20f:	48 8d 05 fa 65 01 00 	lea    0x165fa(%rip),%rax        # 24810 <g_1822+0x30>
    e216:	48 89 85 c0 fc ff ff 	mov    %rax,-0x340(%rbp)
    e21d:	48 8d 05 7c 88 01 00 	lea    0x1887c(%rip),%rax        # 26aa0 <g_3394>
    e224:	48 89 85 c8 fc ff ff 	mov    %rax,-0x338(%rbp)
    e22b:	48 8d 05 7e 6e 01 00 	lea    0x16e7e(%rip),%rax        # 250b0 <g_2135>
    e232:	48 89 85 d0 fc ff ff 	mov    %rax,-0x330(%rbp)
    e239:	48 8d 05 c0 6f 01 00 	lea    0x16fc0(%rip),%rax        # 25200 <g_2461+0x60>
    e240:	48 89 85 d8 fc ff ff 	mov    %rax,-0x328(%rbp)
    e247:	48 8d 05 62 6e 01 00 	lea    0x16e62(%rip),%rax        # 250b0 <g_2135>
    e24e:	48 89 85 e0 fc ff ff 	mov    %rax,-0x320(%rbp)
    e255:	48 8d 05 44 88 01 00 	lea    0x18844(%rip),%rax        # 26aa0 <g_3394>
    e25c:	48 89 85 e8 fc ff ff 	mov    %rax,-0x318(%rbp)
    e263:	48 8d 05 a6 65 01 00 	lea    0x165a6(%rip),%rax        # 24810 <g_1822+0x30>
    e26a:	48 89 85 f0 fc ff ff 	mov    %rax,-0x310(%rbp)
    e271:	48 8d 05 28 88 01 00 	lea    0x18828(%rip),%rax        # 26aa0 <g_3394>
    e278:	48 89 85 f8 fc ff ff 	mov    %rax,-0x308(%rbp)
    e27f:	48 8d 05 2a 6e 01 00 	lea    0x16e2a(%rip),%rax        # 250b0 <g_2135>
    e286:	48 89 85 00 fd ff ff 	mov    %rax,-0x300(%rbp)
    e28d:	48 8d 05 6c 6f 01 00 	lea    0x16f6c(%rip),%rax        # 25200 <g_2461+0x60>
    e294:	48 89 85 08 fd ff ff 	mov    %rax,-0x2f8(%rbp)
    e29b:	48 8d 05 0e 6e 01 00 	lea    0x16e0e(%rip),%rax        # 250b0 <g_2135>
    e2a2:	48 89 85 10 fd ff ff 	mov    %rax,-0x2f0(%rbp)
    e2a9:	48 8d 05 f0 87 01 00 	lea    0x187f0(%rip),%rax        # 26aa0 <g_3394>
    e2b0:	48 89 85 18 fd ff ff 	mov    %rax,-0x2e8(%rbp)
    e2b7:	48 8d 05 52 65 01 00 	lea    0x16552(%rip),%rax        # 24810 <g_1822+0x30>
    e2be:	48 89 85 20 fd ff ff 	mov    %rax,-0x2e0(%rbp)
    e2c5:	48 8d 05 d4 87 01 00 	lea    0x187d4(%rip),%rax        # 26aa0 <g_3394>
    e2cc:	48 89 85 28 fd ff ff 	mov    %rax,-0x2d8(%rbp)
    e2d3:	c7 85 78 f1 ff ff 00 	movl   $0x0,-0xe88(%rbp)
    e2da:	00 00 00 
    e2dd:	eb 14                	jmp    e2f3 <func_1+0x2b3e>
    e2df:	8b 85 78 f1 ff ff    	mov    -0xe88(%rbp),%eax
    e2e5:	48 98                	cltq   
    e2e7:	c6 44 05 c5 31       	movb   $0x31,-0x3b(%rbp,%rax,1)
    e2ec:	83 85 78 f1 ff ff 01 	addl   $0x1,-0xe88(%rbp)
    e2f3:	83 bd 78 f1 ff ff 01 	cmpl   $0x1,-0xe88(%rbp)
    e2fa:	7e e3                	jle    e2df <func_1+0x2b2a>
    e2fc:	48 8b 85 e8 f2 ff ff 	mov    -0xd18(%rbp),%rax
    e303:	8b 00                	mov    (%rax),%eax
    e305:	0f b7 c0             	movzwl %ax,%eax
    e308:	89 c6                	mov    %eax,%esi
    e30a:	bf 5b eb 00 00       	mov    $0xeb5b,%edi
    e30f:	e8 eb c9 ff ff       	callq  acff <safe_add_func_uint16_t_u_u>
    e314:	0f b7 d0             	movzwl %ax,%edx
    e317:	48 8b 85 e8 f2 ff ff 	mov    -0xd18(%rbp),%rax
    e31e:	89 10                	mov    %edx,(%rax)
    e320:	c6 05 a1 5d 01 00 01 	movb   $0x1,0x15da1(%rip)        # 240c8 <g_213>
    e327:	e9 a8 00 00 00       	jmpq   e3d4 <func_1+0x2c1f>
    e32c:	48 8d 85 60 f1 ff ff 	lea    -0xea0(%rbp),%rax
    e333:	48 89 85 30 f3 ff ff 	mov    %rax,-0xcd0(%rbp)
    e33a:	48 8d 85 64 f1 ff ff 	lea    -0xe9c(%rbp),%rax
    e341:	48 89 85 38 f3 ff ff 	mov    %rax,-0xcc8(%rbp)
    e348:	48 8d 85 68 f1 ff ff 	lea    -0xe98(%rbp),%rax
    e34f:	48 89 85 40 f3 ff ff 	mov    %rax,-0xcc0(%rbp)
    e356:	c7 85 ec f1 ff ff fd 	movl   $0xfffffffd,-0xe14(%rbp)
    e35d:	ff ff ff 
    e360:	48 8d 85 60 f1 ff ff 	lea    -0xea0(%rbp),%rax
    e367:	48 89 85 48 f3 ff ff 	mov    %rax,-0xcb8(%rbp)
    e36e:	48 8d 05 23 72 01 00 	lea    0x17223(%rip),%rax        # 25598 <g_3389>
    e375:	48 89 85 50 f3 ff ff 	mov    %rax,-0xcb0(%rbp)
    e37c:	48 c7 85 58 f3 ff ff 	movq   $0x0,-0xca8(%rbp)
    e383:	00 00 00 00 
    e387:	c7 85 7c f1 ff ff 00 	movl   $0x0,-0xe84(%rbp)
    e38e:	00 00 00 
    e391:	eb 1e                	jmp    e3b1 <func_1+0x2bfc>
    e393:	8b 85 7c f1 ff ff    	mov    -0xe84(%rbp),%eax
    e399:	48 98                	cltq   
    e39b:	48 8d 95 58 f1 ff ff 	lea    -0xea8(%rbp),%rdx
    e3a2:	48 89 94 c5 90 fa ff 	mov    %rdx,-0x570(%rbp,%rax,8)
    e3a9:	ff 
    e3aa:	83 85 7c f1 ff ff 01 	addl   $0x1,-0xe84(%rbp)
    e3b1:	83 bd 7c f1 ff ff 01 	cmpl   $0x1,-0xe84(%rbp)
    e3b8:	7e d9                	jle    e393 <func_1+0x2bde>
    e3ba:	0f b6 45 c5          	movzbl -0x3b(%rbp),%eax
    e3be:	83 e8 01             	sub    $0x1,%eax
    e3c1:	88 45 c5             	mov    %al,-0x3b(%rbp)
    e3c4:	0f b6 05 fd 5c 01 00 	movzbl 0x15cfd(%rip),%eax        # 240c8 <g_213>
    e3cb:	83 c0 01             	add    $0x1,%eax
    e3ce:	88 05 f4 5c 01 00    	mov    %al,0x15cf4(%rip)        # 240c8 <g_213>
    e3d4:	0f b6 05 ed 5c 01 00 	movzbl 0x15ced(%rip),%eax        # 240c8 <g_213>
    e3db:	3c 04                	cmp    $0x4,%al
    e3dd:	0f 86 49 ff ff ff    	jbe    e32c <func_1+0x2b77>
    e3e3:	48 8b 85 b0 f2 ff ff 	mov    -0xd50(%rbp),%rax
    e3ea:	48 8b 00             	mov    (%rax),%rax
    e3ed:	48 8b 00             	mov    (%rax),%rax
    e3f0:	48 8b 95 a8 fc ff ff 	mov    -0x358(%rbp),%rdx
    e3f7:	48 89 10             	mov    %rdx,(%rax)
    e3fa:	0f b6 45 c5          	movzbl -0x3b(%rbp),%eax
    e3fe:	0f b6 c0             	movzbl %al,%eax
    e401:	89 85 e8 f1 ff ff    	mov    %eax,-0xe18(%rbp)
    e407:	8b 05 6b 5d 01 00    	mov    0x15d6b(%rip),%eax        # 24178 <g_305>
    e40d:	83 c0 01             	add    $0x1,%eax
    e410:	89 05 62 5d 01 00    	mov    %eax,0x15d62(%rip)        # 24178 <g_305>
    e416:	8b 05 5c 5d 01 00    	mov    0x15d5c(%rip),%eax        # 24178 <g_305>
    e41c:	83 f8 06             	cmp    $0x6,%eax
    e41f:	0f 8e 5e fd ff ff    	jle    e183 <func_1+0x29ce>
    e425:	0f b7 05 7c 5c 01 00 	movzwl 0x15c7c(%rip),%eax        # 240a8 <g_143>
    e42c:	83 c0 01             	add    $0x1,%eax
    e42f:	66 89 05 72 5c 01 00 	mov    %ax,0x15c72(%rip)        # 240a8 <g_143>
    e436:	0f b7 05 6b 5c 01 00 	movzwl 0x15c6b(%rip),%eax        # 240a8 <g_143>
    e43d:	66 83 f8 06          	cmp    $0x6,%ax
    e441:	0f 86 97 fb ff ff    	jbe    dfde <func_1+0x2829>
    e447:	48 8d 85 60 f1 ff ff 	lea    -0xea0(%rbp),%rax
    e44e:	48 89 85 e8 f2 ff ff 	mov    %rax,-0xd18(%rbp)
    e455:	48 8b 85 78 f2 ff ff 	mov    -0xd88(%rbp),%rax
    e45c:	48 8b 00             	mov    (%rax),%rax
    e45f:	48 8b 30             	mov    (%rax),%rsi
    e462:	48 8b 8d 38 f1 ff ff 	mov    -0xec8(%rbp),%rcx
    e469:	48 8b 06             	mov    (%rsi),%rax
    e46c:	48 8b 56 08          	mov    0x8(%rsi),%rdx
    e470:	48 89 01             	mov    %rax,(%rcx)
    e473:	48 89 51 08          	mov    %rdx,0x8(%rcx)
    e477:	48 8b 46 10          	mov    0x10(%rsi),%rax
    e47b:	48 89 41 10          	mov    %rax,0x10(%rcx)
    e47f:	48 8b 45 c8          	mov    -0x38(%rbp),%rax
    e483:	64 48 33 04 25 28 00 	xor    %fs:0x28,%rax
    e48a:	00 00 
    e48c:	74 05                	je     e493 <func_1+0x2cde>
    e48e:	e8 dd bb ff ff       	callq  a070 <__stack_chk_fail@plt>
    e493:	48 8b 85 38 f1 ff ff 	mov    -0xec8(%rbp),%rax
    e49a:	48 81 c4 a8 0e 00 00 	add    $0xea8,%rsp
    e4a1:	5b                   	pop    %rbx
    e4a2:	41 5c                	pop    %r12
    e4a4:	41 5d                	pop    %r13
    e4a6:	41 5e                	pop    %r14
    e4a8:	41 5f                	pop    %r15
    e4aa:	5d                   	pop    %rbp
    e4ab:	c3                   	retq   

000000000000e4ac <func_2>:
    e4ac:	f3 0f 1e fa          	endbr64 
    e4b0:	55                   	push   %rbp
    e4b1:	48 89 e5             	mov    %rsp,%rbp
    e4b4:	48 83 ec 60          	sub    $0x60,%rsp
    e4b8:	89 7d ac             	mov    %edi,-0x54(%rbp)
    e4bb:	89 75 a8             	mov    %esi,-0x58(%rbp)
    e4be:	64 48 8b 04 25 28 00 	mov    %fs:0x28,%rax
    e4c5:	00 00 
    e4c7:	48 89 45 f8          	mov    %rax,-0x8(%rbp)
    e4cb:	31 c0                	xor    %eax,%eax
    e4cd:	c7 45 bc 00 00 00 00 	movl   $0x0,-0x44(%rbp)
    e4d4:	eb 15                	jmp    e4eb <func_2+0x3f>
    e4d6:	8b 45 bc             	mov    -0x44(%rbp),%eax
    e4d9:	48 98                	cltq   
    e4db:	48 8d 15 6e 6e 01 00 	lea    0x16e6e(%rip),%rdx        # 25350 <g_2557>
    e4e2:	48 89 54 c5 c0       	mov    %rdx,-0x40(%rbp,%rax,8)
    e4e7:	83 45 bc 01          	addl   $0x1,-0x44(%rbp)
    e4eb:	83 7d bc 05          	cmpl   $0x5,-0x44(%rbp)
    e4ef:	7e e5                	jle    e4d6 <func_2+0x2a>
    e4f1:	48 8b 05 b8 9e 01 00 	mov    0x19eb8(%rip),%rax        # 283b0 <g_265>
    e4f8:	48 8b 00             	mov    (%rax),%rax
    e4fb:	48 8d 55 ac          	lea    -0x54(%rbp),%rdx
    e4ff:	48 89 10             	mov    %rdx,(%rax)
    e502:	48 8b 45 d8          	mov    -0x28(%rbp),%rax
    e506:	48 8b 4d f8          	mov    -0x8(%rbp),%rcx
    e50a:	64 48 33 0c 25 28 00 	xor    %fs:0x28,%rcx
    e511:	00 00 
    e513:	74 05                	je     e51a <func_2+0x6e>
    e515:	e8 56 bb ff ff       	callq  a070 <__stack_chk_fail@plt>
    e51a:	c9                   	leaveq 
    e51b:	c3                   	retq   

000000000000e51c <func_11>:
    e51c:	f3 0f 1e fa          	endbr64 
    e520:	55                   	push   %rbp
    e521:	48 89 e5             	mov    %rsp,%rbp
    e524:	41 57                	push   %r15
    e526:	41 56                	push   %r14
    e528:	41 55                	push   %r13
    e52a:	41 54                	push   %r12
    e52c:	53                   	push   %rbx
    e52d:	48 81 ec 00 10 00 00 	sub    $0x1000,%rsp
    e534:	48 83 0c 24 00       	orq    $0x0,(%rsp)
    e539:	48 81 ec 98 0f 00 00 	sub    $0xf98,%rsp
    e540:	89 f8                	mov    %edi,%eax
    e542:	48 89 b5 60 e0 ff ff 	mov    %rsi,-0x1fa0(%rbp)
    e549:	48 89 95 58 e0 ff ff 	mov    %rdx,-0x1fa8(%rbp)
    e550:	88 85 6c e0 ff ff    	mov    %al,-0x1f94(%rbp)
    e556:	64 48 8b 04 25 28 00 	mov    %fs:0x28,%rax
    e55d:	00 00 
    e55f:	48 89 45 c8          	mov    %rax,-0x38(%rbp)
    e563:	31 c0                	xor    %eax,%eax
    e565:	c7 85 50 e6 ff ff 00 	movl   $0x4d876d00,-0x19b0(%rbp)
    e56c:	6d 87 4d 
    e56f:	c7 85 54 e6 ff ff 41 	movl   $0x94e80441,-0x19ac(%rbp)
    e576:	04 e8 94 
    e579:	c7 85 58 e6 ff ff 41 	movl   $0x41878741,-0x19a8(%rbp)
    e580:	87 87 41 
    e583:	c7 85 5c e6 ff ff 00 	movl   $0x874d9400,-0x19a4(%rbp)
    e58a:	94 4d 87 
    e58d:	c7 85 60 e6 ff ff 94 	movl   $0xff7f0494,-0x19a0(%rbp)
    e594:	04 7f ff 
    e597:	c7 85 64 e6 ff ff 6d 	movl   $0xff87006d,-0x199c(%rbp)
    e59e:	00 87 ff 
    e5a1:	c7 85 68 e6 ff ff 15 	movl   $0x87150415,-0x1998(%rbp)
    e5a8:	04 15 87 
    e5ab:	c7 85 6c e6 ff ff 41 	movl   $0x41079441,-0x1994(%rbp)
    e5b2:	94 07 41 
    e5b5:	c7 85 70 e6 ff ff 6d 	movl   $0x944d876d,-0x1990(%rbp)
    e5bc:	87 4d 94 
    e5bf:	c7 85 74 e6 ff ff 87 	movl   $0x4d4d0487,-0x198c(%rbp)
    e5c6:	04 4d 4d 
    e5c9:	c7 85 78 e6 ff ff 6d 	movl   $0xff076d6d,-0x1988(%rbp)
    e5d0:	6d 07 ff 
    e5d3:	c7 85 7c e6 ff ff 41 	movl   $0x94158b41,-0x1984(%rbp)
    e5da:	8b 15 94 
    e5dd:	c7 85 80 e6 ff ff 15 	movl   $0x15879415,-0x1980(%rbp)
    e5e4:	94 87 15 
    e5e7:	c7 85 84 e6 ff ff 6d 	movl   $0x947f946d,-0x197c(%rbp)
    e5ee:	94 7f 94 
    e5f1:	c7 85 88 e6 ff ff 94 	movl   $0xff4d8b94,-0x1978(%rbp)
    e5f8:	8b 4d ff 
    e5fb:	c7 85 8c e6 ff ff 00 	movl   $0x4d876d00,-0x1974(%rbp)
    e602:	6d 87 4d 
    e605:	c7 85 90 e6 ff ff 41 	movl   $0x94e80441,-0x1970(%rbp)
    e60c:	04 e8 94 
    e60f:	c7 85 94 e6 ff ff 41 	movl   $0x41878741,-0x196c(%rbp)
    e616:	87 87 41 
    e619:	c7 85 98 e6 ff ff 00 	movl   $0x874d9400,-0x1968(%rbp)
    e620:	94 4d 87 
    e623:	c7 85 9c e6 ff ff 94 	movl   $0xff7f0494,-0x1964(%rbp)
    e62a:	04 7f ff 
    e62d:	c7 85 a0 e6 ff ff 6d 	movl   $0xff87006d,-0x1960(%rbp)
    e634:	00 87 ff 
    e637:	c7 85 a4 e6 ff ff 15 	movl   $0x87150415,-0x195c(%rbp)
    e63e:	04 15 87 
    e641:	c7 85 a8 e6 ff ff 41 	movl   $0x41079441,-0x1958(%rbp)
    e648:	94 07 41 
    e64b:	c7 85 ac e6 ff ff 6d 	movl   $0x944d876d,-0x1954(%rbp)
    e652:	87 4d 94 
    e655:	c7 85 b0 e6 ff ff 87 	movl   $0x4d4d0487,-0x1950(%rbp)
    e65c:	04 4d 4d 
    e65f:	c7 85 b4 e6 ff ff 6d 	movl   $0xff076d6d,-0x194c(%rbp)
    e666:	6d 07 ff 
    e669:	c7 85 b8 e6 ff ff 41 	movl   $0x94158b41,-0x1948(%rbp)
    e670:	8b 15 94 
    e673:	c7 85 bc e6 ff ff 15 	movl   $0x15879415,-0x1944(%rbp)
    e67a:	94 87 15 
    e67d:	c7 85 c0 e6 ff ff 6d 	movl   $0x947f946d,-0x1940(%rbp)
    e684:	94 7f 94 
    e687:	c7 85 c4 e6 ff ff 94 	movl   $0xff4d8b94,-0x193c(%rbp)
    e68e:	8b 4d ff 
    e691:	c7 85 c8 e6 ff ff 07 	movl   $0xf8e88707,-0x1938(%rbp)
    e698:	87 e8 f8 
    e69b:	c7 85 cc e6 ff ff 4d 	movl   $0x15ff004d,-0x1934(%rbp)
    e6a2:	00 ff 15 
    e6a5:	c7 85 d0 e6 ff ff 4d 	movl   $0x4de8e84d,-0x1930(%rbp)
    e6ac:	e8 e8 4d 
    e6af:	c7 85 d4 e6 ff ff 07 	movl   $0xe8f81507,-0x192c(%rbp)
    e6b6:	15 f8 e8 
    e6b9:	c7 85 d8 e6 ff ff 15 	movl   $0x8b040015,-0x1928(%rbp)
    e6c0:	00 04 8b 
    e6c3:	c7 85 dc e6 ff ff 87 	movl   $0x8be80787,-0x1924(%rbp)
    e6ca:	07 e8 8b 
    e6cd:	c7 85 e0 e6 ff ff 7f 	movl   $0xe87f007f,-0x1920(%rbp)
    e6d4:	00 7f e8 
    e6d7:	c7 85 e4 e6 ff ff 4d 	movl   $0x4d41154d,-0x191c(%rbp)
    e6de:	15 41 4d 
    e6e1:	c7 85 e8 e6 ff ff 87 	movl   $0x15f8e887,-0x1918(%rbp)
    e6e8:	e8 f8 15 
    e6eb:	c7 85 ec e6 ff ff e8 	movl   $0xf8f800e8,-0x1914(%rbp)
    e6f2:	00 f8 f8 
    e6f5:	48 8d 05 14 6a 01 00 	lea    0x16a14(%rip),%rax        # 25110 <g_2235>
    e6fc:	48 89 85 10 e1 ff ff 	mov    %rax,-0x1ef0(%rbp)
    e703:	c7 85 88 e0 ff ff ce 	movl   $0x4ce2c5ce,-0x1f78(%rbp)
    e70a:	c5 e2 4c 
    e70d:	c7 85 8c e0 ff ff bb 	movl   $0x108740bb,-0x1f74(%rbp)
    e714:	40 87 10 
    e717:	48 8d 85 50 eb ff ff 	lea    -0x14b0(%rbp),%rax
    e71e:	48 8d 15 9b fe 00 00 	lea    0xfe9b(%rip),%rdx        # 1e5c0 <g_3175+0x41c>
    e725:	b9 4b 00 00 00       	mov    $0x4b,%ecx
    e72a:	48 89 c7             	mov    %rax,%rdi
    e72d:	48 89 d6             	mov    %rdx,%rsi
    e730:	f3 48 a5             	rep movsq %ds:(%rsi),%es:(%rdi)
    e733:	48 8d 05 d6 60 01 00 	lea    0x160d6(%rip),%rax        # 24810 <g_1822+0x30>
    e73a:	48 89 85 a0 e1 ff ff 	mov    %rax,-0x1e60(%rbp)
    e741:	48 8d 85 40 f0 ff ff 	lea    -0xfc0(%rbp),%rax
    e748:	48 8d 15 31 84 01 00 	lea    0x18431(%rip),%rdx        # 26b80 <g_3508+0xa0>
    e74f:	b9 78 00 00 00       	mov    $0x78,%ecx
    e754:	48 89 c7             	mov    %rax,%rdi
    e757:	48 89 d6             	mov    %rdx,%rsi
    e75a:	f3 48 a5             	rep movsq %ds:(%rsi),%es:(%rdi)
    e75d:	48 c7 85 18 e1 ff ff 	movq   $0x0,-0x1ee8(%rbp)
    e764:	00 00 00 00 
    e768:	c7 85 9c e0 ff ff ff 	movl   $0xffffffff,-0x1f64(%rbp)
    e76f:	ff ff ff 
    e772:	c6 85 74 e0 ff ff 42 	movb   $0x42,-0x1f8c(%rbp)
    e779:	c7 85 00 e4 ff ff 11 	movl   $0xaac9e111,-0x1c00(%rbp)
    e780:	e1 c9 aa 
    e783:	c7 85 04 e4 ff ff 11 	movl   $0xaac9e111,-0x1bfc(%rbp)
    e78a:	e1 c9 aa 
    e78d:	c7 85 08 e4 ff ff 11 	movl   $0xaac9e111,-0x1bf8(%rbp)
    e794:	e1 c9 aa 
    e797:	c7 85 0c e4 ff ff 11 	movl   $0xaac9e111,-0x1bf4(%rbp)
    e79e:	e1 c9 aa 
    e7a1:	c7 85 10 e4 ff ff 11 	movl   $0xaac9e111,-0x1bf0(%rbp)
    e7a8:	e1 c9 aa 
    e7ab:	48 8d 05 e6 9b 01 00 	lea    0x19be6(%rip),%rax        # 28398 <g_147>
    e7b2:	48 89 85 a8 e1 ff ff 	mov    %rax,-0x1e58(%rbp)
    e7b9:	48 c7 85 20 e1 ff ff 	movq   $0x0,-0x1ee0(%rbp)
    e7c0:	00 00 00 00 
    e7c4:	48 c7 85 a0 e4 ff ff 	movq   $0x0,-0x1b60(%rbp)
    e7cb:	00 00 00 00 
    e7cf:	48 8d 85 20 e1 ff ff 	lea    -0x1ee0(%rbp),%rax
    e7d6:	48 89 85 a8 e4 ff ff 	mov    %rax,-0x1b58(%rbp)
    e7dd:	48 c7 85 b0 e4 ff ff 	movq   $0x0,-0x1b50(%rbp)
    e7e4:	00 00 00 00 
    e7e8:	48 c7 85 b8 e4 ff ff 	movq   $0x0,-0x1b48(%rbp)
    e7ef:	00 00 00 00 
    e7f3:	48 8d 85 20 e1 ff ff 	lea    -0x1ee0(%rbp),%rax
    e7fa:	48 89 85 c0 e4 ff ff 	mov    %rax,-0x1b40(%rbp)
    e801:	48 c7 85 c8 e4 ff ff 	movq   $0x0,-0x1b38(%rbp)
    e808:	00 00 00 00 
    e80c:	c7 85 c4 e0 ff ff 76 	movl   $0xb1d00576,-0x1f3c(%rbp)
    e813:	05 d0 b1 
    e816:	48 c7 85 b0 e1 ff ff 	movq   $0x0,-0x1e50(%rbp)
    e81d:	00 00 00 00 
    e821:	48 8d 05 10 b7 01 00 	lea    0x1b710(%rip),%rax        # 29f38 <g_889>
    e828:	48 89 85 b8 e1 ff ff 	mov    %rax,-0x1e48(%rbp)
    e82f:	48 b8 28 60 05 2d 83 	movabs $0x105832d056028,%rax
    e836:	05 01 00 
    e839:	48 89 85 c0 e1 ff ff 	mov    %rax,-0x1e40(%rbp)
    e840:	c7 85 c8 e0 ff ff f7 	movl   $0xfffffff7,-0x1f38(%rbp)
    e847:	ff ff ff 
    e84a:	48 c7 85 c8 e1 ff ff 	movq   $0x0,-0x1e38(%rbp)
    e851:	00 00 00 00 
    e855:	48 c7 85 28 e1 ff ff 	movq   $0x0,-0x1ed8(%rbp)
    e85c:	00 00 00 00 
    e860:	48 8d 85 28 e1 ff ff 	lea    -0x1ed8(%rbp),%rax
    e867:	48 89 85 90 e7 ff ff 	mov    %rax,-0x1870(%rbp)
    e86e:	48 c7 85 98 e7 ff ff 	movq   $0x0,-0x1868(%rbp)
    e875:	00 00 00 00 
    e879:	48 8d 85 28 e1 ff ff 	lea    -0x1ed8(%rbp),%rax
    e880:	48 89 85 a0 e7 ff ff 	mov    %rax,-0x1860(%rbp)
    e887:	48 c7 85 a8 e7 ff ff 	movq   $0x0,-0x1858(%rbp)
    e88e:	00 00 00 00 
    e892:	48 8d 85 28 e1 ff ff 	lea    -0x1ed8(%rbp),%rax
    e899:	48 89 85 b0 e7 ff ff 	mov    %rax,-0x1850(%rbp)
    e8a0:	48 c7 85 b8 e7 ff ff 	movq   $0x0,-0x1848(%rbp)
    e8a7:	00 00 00 00 
    e8ab:	48 8d 85 28 e1 ff ff 	lea    -0x1ed8(%rbp),%rax
    e8b2:	48 89 85 c0 e7 ff ff 	mov    %rax,-0x1840(%rbp)
    e8b9:	48 c7 85 c8 e7 ff ff 	movq   $0x0,-0x1838(%rbp)
    e8c0:	00 00 00 00 
    e8c4:	48 8d 85 28 e1 ff ff 	lea    -0x1ed8(%rbp),%rax
    e8cb:	48 89 85 d0 e7 ff ff 	mov    %rax,-0x1830(%rbp)
    e8d2:	48 c7 85 d8 e7 ff ff 	movq   $0x0,-0x1828(%rbp)
    e8d9:	00 00 00 00 
    e8dd:	48 8d 85 28 e1 ff ff 	lea    -0x1ed8(%rbp),%rax
    e8e4:	48 89 85 e0 e7 ff ff 	mov    %rax,-0x1820(%rbp)
    e8eb:	48 c7 85 e8 e7 ff ff 	movq   $0x0,-0x1818(%rbp)
    e8f2:	00 00 00 00 
    e8f6:	48 8d 85 28 e1 ff ff 	lea    -0x1ed8(%rbp),%rax
    e8fd:	48 89 85 f0 e7 ff ff 	mov    %rax,-0x1810(%rbp)
    e904:	48 c7 85 f8 e7 ff ff 	movq   $0x0,-0x1808(%rbp)
    e90b:	00 00 00 00 
    e90f:	48 8d 85 28 e1 ff ff 	lea    -0x1ed8(%rbp),%rax
    e916:	48 89 85 00 e8 ff ff 	mov    %rax,-0x1800(%rbp)
    e91d:	48 c7 85 08 e8 ff ff 	movq   $0x0,-0x17f8(%rbp)
    e924:	00 00 00 00 
    e928:	48 8d 85 28 e1 ff ff 	lea    -0x1ed8(%rbp),%rax
    e92f:	48 89 85 10 e8 ff ff 	mov    %rax,-0x17f0(%rbp)
    e936:	48 c7 85 18 e8 ff ff 	movq   $0x0,-0x17e8(%rbp)
    e93d:	00 00 00 00 
    e941:	48 8d 05 50 9a 01 00 	lea    0x19a50(%rip),%rax        # 28398 <g_147>
    e948:	48 89 85 20 e8 ff ff 	mov    %rax,-0x17e0(%rbp)
    e94f:	48 c7 85 28 e8 ff ff 	movq   $0x0,-0x17d8(%rbp)
    e956:	00 00 00 00 
    e95a:	48 8d 85 28 e1 ff ff 	lea    -0x1ed8(%rbp),%rax
    e961:	48 89 85 30 e8 ff ff 	mov    %rax,-0x17d0(%rbp)
    e968:	48 8d 85 28 e1 ff ff 	lea    -0x1ed8(%rbp),%rax
    e96f:	48 89 85 38 e8 ff ff 	mov    %rax,-0x17c8(%rbp)
    e976:	48 8d 85 28 e1 ff ff 	lea    -0x1ed8(%rbp),%rax
    e97d:	48 89 85 40 e8 ff ff 	mov    %rax,-0x17c0(%rbp)
    e984:	48 c7 85 48 e8 ff ff 	movq   $0x0,-0x17b8(%rbp)
    e98b:	00 00 00 00 
    e98f:	66 c7 85 7c e0 ff ff 	movw   $0x3485,-0x1f84(%rbp)
    e996:	85 34 
    e998:	48 c7 85 d0 e1 ff ff 	movq   $0xffffffffffffffff,-0x1e30(%rbp)
    e99f:	ff ff ff ff 
    e9a3:	48 c7 85 d8 e1 ff ff 	movq   $0x5,-0x1e28(%rbp)
    e9aa:	05 00 00 00 
    e9ae:	c7 85 cc e0 ff ff 03 	movl   $0x3,-0x1f34(%rbp)
    e9b5:	00 00 00 
    e9b8:	48 8d 05 a9 b6 01 00 	lea    0x1b6a9(%rip),%rax        # 2a068 <g_1658>
    e9bf:	48 89 85 e0 e1 ff ff 	mov    %rax,-0x1e20(%rbp)
    e9c6:	c7 85 d0 e0 ff ff 00 	movl   $0x0,-0x1f30(%rbp)
    e9cd:	00 00 00 
    e9d0:	c6 85 75 e0 ff ff 00 	movb   $0x0,-0x1f8b(%rbp)
    e9d7:	48 b8 8e 0e c5 77 48 	movabs $0xdc7b954877c50e8e,%rax
    e9de:	95 7b dc 
    e9e1:	48 89 85 e8 e1 ff ff 	mov    %rax,-0x1e18(%rbp)
    e9e8:	48 b8 c7 48 cd 0f d7 	movabs $0x5818dcd70fcd48c7,%rax
    e9ef:	dc 18 58 
    e9f2:	48 89 85 f0 e1 ff ff 	mov    %rax,-0x1e10(%rbp)
    e9f9:	c7 85 40 e4 ff ff 05 	movl   $0x6f90e305,-0x1bc0(%rbp)
    ea00:	e3 90 6f 
    ea03:	c7 85 44 e4 ff ff 05 	movl   $0x6f90e305,-0x1bbc(%rbp)
    ea0a:	e3 90 6f 
    ea0d:	c7 85 48 e4 ff ff 05 	movl   $0x6f90e305,-0x1bb8(%rbp)
    ea14:	e3 90 6f 
    ea17:	c7 85 4c e4 ff ff 05 	movl   $0x6f90e305,-0x1bb4(%rbp)
    ea1e:	e3 90 6f 
    ea21:	c7 85 50 e4 ff ff 05 	movl   $0x6f90e305,-0x1bb0(%rbp)
    ea28:	e3 90 6f 
    ea2b:	c7 85 54 e4 ff ff 05 	movl   $0x6f90e305,-0x1bac(%rbp)
    ea32:	e3 90 6f 
    ea35:	c7 85 58 e4 ff ff 05 	movl   $0x6f90e305,-0x1ba8(%rbp)
    ea3c:	e3 90 6f 
    ea3f:	c7 85 5c e4 ff ff 05 	movl   $0x6f90e305,-0x1ba4(%rbp)
    ea46:	e3 90 6f 
    ea49:	c7 85 60 e4 ff ff 05 	movl   $0x6f90e305,-0x1ba0(%rbp)
    ea50:	e3 90 6f 
    ea53:	48 8d 85 00 e4 ff ff 	lea    -0x1c00(%rbp),%rax
    ea5a:	48 83 c0 10          	add    $0x10,%rax
    ea5e:	48 89 85 f8 e1 ff ff 	mov    %rax,-0x1e08(%rbp)
    ea65:	c6 85 76 e0 ff ff 26 	movb   $0x26,-0x1f8a(%rbp)
    ea6c:	48 8d 85 d0 e4 ff ff 	lea    -0x1b30(%rbp),%rax
    ea73:	48 83 c0 10          	add    $0x10,%rax
    ea77:	48 89 85 00 e2 ff ff 	mov    %rax,-0x1e00(%rbp)
    ea7e:	48 c7 85 08 e2 ff ff 	movq   $0x0,-0x1df8(%rbp)
    ea85:	00 00 00 00 
    ea89:	48 8d 05 60 9a 01 00 	lea    0x19a60(%rip),%rax        # 284f0 <g_893>
    ea90:	48 89 85 10 e2 ff ff 	mov    %rax,-0x1df0(%rbp)
    ea97:	c7 85 50 e8 ff ff 00 	movl   $0x0,-0x17b0(%rbp)
    ea9e:	00 00 00 
    eaa1:	c7 85 54 e8 ff ff ca 	movl   $0x48c19cca,-0x17ac(%rbp)
    eaa8:	9c c1 48 
    eaab:	c7 85 58 e8 ff ff 00 	movl   $0x0,-0x17a8(%rbp)
    eab2:	00 00 00 
    eab5:	c7 85 5c e8 ff ff 45 	movl   $0xac1c3d45,-0x17a4(%rbp)
    eabc:	3d 1c ac 
    eabf:	c7 85 60 e8 ff ff fa 	movl   $0xfffffffa,-0x17a0(%rbp)
    eac6:	ff ff ff 
    eac9:	c7 85 64 e8 ff ff 01 	movl   $0x1,-0x179c(%rbp)
    ead0:	00 00 00 
    ead3:	c7 85 68 e8 ff ff 24 	movl   $0xad09a24,-0x1798(%rbp)
    eada:	9a d0 0a 
    eadd:	c7 85 6c e8 ff ff e4 	movl   $0x823731e4,-0x1794(%rbp)
    eae4:	31 37 82 
    eae7:	c7 85 70 e8 ff ff 01 	movl   $0x1,-0x1790(%rbp)
    eaee:	00 00 00 
    eaf1:	c7 85 74 e8 ff ff 01 	movl   $0x1,-0x178c(%rbp)
    eaf8:	00 00 00 
    eafb:	c7 85 78 e8 ff ff 45 	movl   $0xac1c3d45,-0x1788(%rbp)
    eb02:	3d 1c ac 
    eb05:	c7 85 7c e8 ff ff 01 	movl   $0x1,-0x1784(%rbp)
    eb0c:	00 00 00 
    eb0f:	c7 85 80 e8 ff ff 01 	movl   $0x1,-0x1780(%rbp)
    eb16:	00 00 00 
    eb19:	c7 85 84 e8 ff ff e4 	movl   $0x823731e4,-0x177c(%rbp)
    eb20:	31 37 82 
    eb23:	c7 85 88 e8 ff ff 01 	movl   $0x1,-0x1778(%rbp)
    eb2a:	00 00 00 
    eb2d:	c7 85 8c e8 ff ff eb 	movl   $0x75a411eb,-0x1774(%rbp)
    eb34:	11 a4 75 
    eb37:	c7 85 90 e8 ff ff 24 	movl   $0xad09a24,-0x1770(%rbp)
    eb3e:	9a d0 0a 
    eb41:	c7 85 94 e8 ff ff fa 	movl   $0xfffffffa,-0x176c(%rbp)
    eb48:	ff ff ff 
    eb4b:	c7 85 98 e8 ff ff 63 	movl   $0xadf15063,-0x1768(%rbp)
    eb52:	50 f1 ad 
    eb55:	c7 85 9c e8 ff ff 01 	movl   $0x1,-0x1764(%rbp)
    eb5c:	00 00 00 
    eb5f:	c7 85 a0 e8 ff ff 63 	movl   $0xadf15063,-0x1760(%rbp)
    eb66:	50 f1 ad 
    eb69:	c7 85 a4 e8 ff ff 01 	movl   $0x1,-0x175c(%rbp)
    eb70:	00 00 00 
    eb73:	c7 85 a8 e8 ff ff 63 	movl   $0xadf15063,-0x1758(%rbp)
    eb7a:	50 f1 ad 
    eb7d:	c7 85 ac e8 ff ff 63 	movl   $0xadf15063,-0x1754(%rbp)
    eb84:	50 f1 ad 
    eb87:	c7 85 b0 e8 ff ff 01 	movl   $0x1,-0x1750(%rbp)
    eb8e:	00 00 00 
    eb91:	c7 85 b4 e8 ff ff 00 	movl   $0x0,-0x174c(%rbp)
    eb98:	00 00 00 
    eb9b:	c7 85 b8 e8 ff ff 01 	movl   $0x1,-0x1748(%rbp)
    eba2:	00 00 00 
    eba5:	c7 85 bc e8 ff ff 45 	movl   $0xac1c3d45,-0x1744(%rbp)
    ebac:	3d 1c ac 
    ebaf:	c7 85 c0 e8 ff ff ca 	movl   $0x48c19cca,-0x1740(%rbp)
    ebb6:	9c c1 48 
    ebb9:	c7 85 c4 e8 ff ff 01 	movl   $0x1,-0x173c(%rbp)
    ebc0:	00 00 00 
    ebc3:	c7 85 c8 e8 ff ff 00 	movl   $0x0,-0x1738(%rbp)
    ebca:	00 00 00 
    ebcd:	c7 85 cc e8 ff ff eb 	movl   $0x75a411eb,-0x1734(%rbp)
    ebd4:	11 a4 75 
    ebd7:	c7 85 d0 e8 ff ff eb 	movl   $0x75a411eb,-0x1730(%rbp)
    ebde:	11 a4 75 
    ebe1:	c7 85 d4 e8 ff ff 00 	movl   $0x0,-0x172c(%rbp)
    ebe8:	00 00 00 
    ebeb:	c7 85 d8 e8 ff ff 01 	movl   $0x1,-0x1728(%rbp)
    ebf2:	00 00 00 
    ebf5:	c7 85 dc e8 ff ff eb 	movl   $0x75a411eb,-0x1724(%rbp)
    ebfc:	11 a4 75 
    ebff:	c7 85 e0 e8 ff ff ca 	movl   $0x48c19cca,-0x1720(%rbp)
    ec06:	9c c1 48 
    ec09:	c7 85 e4 e8 ff ff 24 	movl   $0xad09a24,-0x171c(%rbp)
    ec10:	9a d0 0a 
    ec13:	c7 85 e8 e8 ff ff 01 	movl   $0x1,-0x1718(%rbp)
    ec1a:	00 00 00 
    ec1d:	c7 85 ec e8 ff ff 45 	movl   $0xac1c3d45,-0x1714(%rbp)
    ec24:	3d 1c ac 
    ec27:	c7 85 f0 e8 ff ff e4 	movl   $0x823731e4,-0x1710(%rbp)
    ec2e:	31 37 82 
    ec31:	c7 85 f4 e8 ff ff e4 	movl   $0x823731e4,-0x170c(%rbp)
    ec38:	31 37 82 
    ec3b:	c7 85 f8 e8 ff ff 24 	movl   $0xad09a24,-0x1708(%rbp)
    ec42:	9a d0 0a 
    ec45:	c7 85 fc e8 ff ff ca 	movl   $0x48c19cca,-0x1704(%rbp)
    ec4c:	9c c1 48 
    ec4f:	c7 85 00 e9 ff ff eb 	movl   $0x75a411eb,-0x1700(%rbp)
    ec56:	11 a4 75 
    ec59:	c7 85 04 e9 ff ff ca 	movl   $0x48c19cca,-0x16fc(%rbp)
    ec60:	9c c1 48 
    ec63:	c7 85 08 e9 ff ff 24 	movl   $0xad09a24,-0x16f8(%rbp)
    ec6a:	9a d0 0a 
    ec6d:	c7 85 0c e9 ff ff 01 	movl   $0x1,-0x16f4(%rbp)
    ec74:	00 00 00 
    ec77:	c7 85 10 e9 ff ff 45 	movl   $0xac1c3d45,-0x16f0(%rbp)
    ec7e:	3d 1c ac 
    ec81:	c7 85 14 e9 ff ff 00 	movl   $0x0,-0x16ec(%rbp)
    ec88:	00 00 00 
    ec8b:	c7 85 18 e9 ff ff 01 	movl   $0x1,-0x16e8(%rbp)
    ec92:	00 00 00 
    ec95:	c7 85 1c e9 ff ff ca 	movl   $0x48c19cca,-0x16e4(%rbp)
    ec9c:	9c c1 48 
    ec9f:	c7 85 20 e9 ff ff 01 	movl   $0x1,-0x16e0(%rbp)
    eca6:	00 00 00 
    eca9:	c7 85 24 e9 ff ff 01 	movl   $0x1,-0x16dc(%rbp)
    ecb0:	00 00 00 
    ecb3:	c7 85 28 e9 ff ff 01 	movl   $0x1,-0x16d8(%rbp)
    ecba:	00 00 00 
    ecbd:	c7 85 2c e9 ff ff ca 	movl   $0x48c19cca,-0x16d4(%rbp)
    ecc4:	9c c1 48 
    ecc7:	48 c7 85 18 e2 ff ff 	movq   $0x0,-0x1de8(%rbp)
    ecce:	00 00 00 00 
    ecd2:	c7 85 a0 e0 ff ff 00 	movl   $0x0,-0x1f60(%rbp)
    ecd9:	00 00 00 
    ecdc:	eb 1e                	jmp    ecfc <func_11+0x7e0>
    ecde:	8b 85 a0 e0 ff ff    	mov    -0x1f60(%rbp),%eax
    ece4:	48 98                	cltq   
    ece6:	48 8d 15 8b b3 01 00 	lea    0x1b38b(%rip),%rdx        # 2a078 <g_2100>
    eced:	48 89 94 c5 e0 e3 ff 	mov    %rdx,-0x1c20(%rbp,%rax,8)
    ecf4:	ff 
    ecf5:	83 85 a0 e0 ff ff 01 	addl   $0x1,-0x1f60(%rbp)
    ecfc:	83 bd a0 e0 ff ff 00 	cmpl   $0x0,-0x1f60(%rbp)
    ed03:	7e d9                	jle    ecde <func_11+0x7c2>
    ed05:	c7 85 a0 e0 ff ff 00 	movl   $0x0,-0x1f60(%rbp)
    ed0c:	00 00 00 
    ed0f:	eb 1e                	jmp    ed2f <func_11+0x813>
    ed11:	8b 85 a0 e0 ff ff    	mov    -0x1f60(%rbp),%eax
    ed17:	48 98                	cltq   
    ed19:	48 8d 15 e8 b1 01 00 	lea    0x1b1e8(%rip),%rdx        # 29f08 <g_36>
    ed20:	48 89 94 c5 d0 e4 ff 	mov    %rdx,-0x1b30(%rbp,%rax,8)
    ed27:	ff 
    ed28:	83 85 a0 e0 ff ff 01 	addl   $0x1,-0x1f60(%rbp)
    ed2f:	83 bd a0 e0 ff ff 07 	cmpl   $0x7,-0x1f60(%rbp)
    ed36:	7e d9                	jle    ed11 <func_11+0x7f5>
    ed38:	66 c7 05 ef 52 01 00 	movw   $0xfffa,0x152ef(%rip)        # 24030 <g_8>
    ed3f:	fa ff 
    ed41:	90                   	nop
    ed42:	0f b7 05 e7 52 01 00 	movzwl 0x152e7(%rip),%eax        # 24030 <g_8>
    ed49:	66 85 c0             	test   %ax,%ax
    ed4c:	0f 84 fd 37 00 00    	je     1254f <func_11+0x4033>
    ed52:	48 8d 85 b0 ed ff ff 	lea    -0x1250(%rbp),%rax
    ed59:	48 8d 15 e0 81 01 00 	lea    0x181e0(%rip),%rdx        # 26f40 <g_3508+0x460>
    ed60:	b9 51 00 00 00       	mov    $0x51,%ecx
    ed65:	48 89 c7             	mov    %rax,%rdi
    ed68:	48 89 d6             	mov    %rdx,%rsi
    ed6b:	f3 48 a5             	rep movsq %ds:(%rsi),%es:(%rdi)
    ed6e:	48 8d 05 c3 52 01 00 	lea    0x152c3(%rip),%rax        # 24038 <g_42>
    ed75:	48 89 85 20 e2 ff ff 	mov    %rax,-0x1de0(%rbp)
    ed7c:	48 8d 05 b7 52 01 00 	lea    0x152b7(%rip),%rax        # 2403a <g_46>
    ed83:	48 89 85 28 e2 ff ff 	mov    %rax,-0x1dd8(%rbp)
    ed8a:	48 8d 85 30 ea ff ff 	lea    -0x15d0(%rbp),%rax
    ed91:	48 8d 15 88 fa 00 00 	lea    0xfa88(%rip),%rdx        # 1e820 <g_3175+0x67c>
    ed98:	b9 24 00 00 00       	mov    $0x24,%ecx
    ed9d:	48 89 c7             	mov    %rax,%rdi
    eda0:	48 89 d6             	mov    %rdx,%rsi
    eda3:	f3 48 a5             	rep movsq %ds:(%rsi),%es:(%rdi)
    eda6:	48 8d 05 63 5a 01 00 	lea    0x15a63(%rip),%rax        # 24810 <g_1822+0x30>
    edad:	48 89 85 30 e2 ff ff 	mov    %rax,-0x1dd0(%rbp)
    edb4:	c6 85 73 e0 ff ff 04 	movb   $0x4,-0x1f8d(%rbp)
    edbb:	48 8d 05 96 62 01 00 	lea    0x16296(%rip),%rax        # 25058 <g_2024>
    edc2:	48 89 85 38 e2 ff ff 	mov    %rax,-0x1dc8(%rbp)
    edc9:	48 8d 05 58 63 01 00 	lea    0x16358(%rip),%rax        # 25128 <g_2253>
    edd0:	48 89 85 80 e1 ff ff 	mov    %rax,-0x1e80(%rbp)
    edd7:	48 8d 05 02 97 01 00 	lea    0x19702(%rip),%rax        # 284e0 <g_882>
    edde:	48 89 85 30 e1 ff ff 	mov    %rax,-0x1ed0(%rbp)
    ede5:	48 8d 85 30 e1 ff ff 	lea    -0x1ed0(%rbp),%rax
    edec:	48 89 85 38 e1 ff ff 	mov    %rax,-0x1ec8(%rbp)
    edf3:	48 8d 85 38 e1 ff ff 	lea    -0x1ec8(%rbp),%rax
    edfa:	48 89 85 40 e2 ff ff 	mov    %rax,-0x1dc0(%rbp)
    ee01:	66 c7 85 78 e0 ff ff 	movw   $0x0,-0x1f88(%rbp)
    ee08:	00 00 
    ee0a:	48 c7 85 00 e6 ff ff 	movq   $0x1,-0x1a00(%rbp)
    ee11:	01 00 00 00 
    ee15:	48 c7 85 08 e6 ff ff 	movq   $0x1,-0x19f8(%rbp)
    ee1c:	01 00 00 00 
    ee20:	48 c7 85 10 e6 ff ff 	movq   $0x1,-0x19f0(%rbp)
    ee27:	01 00 00 00 
    ee2b:	48 c7 85 18 e6 ff ff 	movq   $0x1,-0x19e8(%rbp)
    ee32:	01 00 00 00 
    ee36:	48 c7 85 20 e6 ff ff 	movq   $0x1,-0x19e0(%rbp)
    ee3d:	01 00 00 00 
    ee41:	48 c7 85 28 e6 ff ff 	movq   $0x1,-0x19d8(%rbp)
    ee48:	01 00 00 00 
    ee4c:	48 c7 85 30 e6 ff ff 	movq   $0x1,-0x19d0(%rbp)
    ee53:	01 00 00 00 
    ee57:	48 c7 85 38 e6 ff ff 	movq   $0x1,-0x19c8(%rbp)
    ee5e:	01 00 00 00 
    ee62:	48 c7 85 40 e6 ff ff 	movq   $0x1,-0x19c0(%rbp)
    ee69:	01 00 00 00 
    ee6d:	48 c7 85 48 e6 ff ff 	movq   $0x1,-0x19b8(%rbp)
    ee74:	01 00 00 00 
    ee78:	48 c7 85 48 e2 ff ff 	movq   $0x0,-0x1db8(%rbp)
    ee7f:	00 00 00 00 
    ee83:	c7 85 90 e0 ff ff fc 	movl   $0xfffffffc,-0x1f70(%rbp)
    ee8a:	ff ff ff 
    ee8d:	66 c7 85 7a e0 ff ff 	movw   $0x26af,-0x1f86(%rbp)
    ee94:	af 26 
    ee96:	48 c7 85 40 e1 ff ff 	movq   $0x0,-0x1ec0(%rbp)
    ee9d:	00 00 00 00 
    eea1:	48 8d 85 40 e1 ff ff 	lea    -0x1ec0(%rbp),%rax
    eea8:	48 89 85 60 e5 ff ff 	mov    %rax,-0x1aa0(%rbp)
    eeaf:	48 8d 85 40 e1 ff ff 	lea    -0x1ec0(%rbp),%rax
    eeb6:	48 89 85 68 e5 ff ff 	mov    %rax,-0x1a98(%rbp)
    eebd:	48 8d 85 40 e1 ff ff 	lea    -0x1ec0(%rbp),%rax
    eec4:	48 89 85 70 e5 ff ff 	mov    %rax,-0x1a90(%rbp)
    eecb:	48 8d 85 40 e1 ff ff 	lea    -0x1ec0(%rbp),%rax
    eed2:	48 89 85 78 e5 ff ff 	mov    %rax,-0x1a88(%rbp)
    eed9:	48 8d 85 40 e1 ff ff 	lea    -0x1ec0(%rbp),%rax
    eee0:	48 89 85 80 e5 ff ff 	mov    %rax,-0x1a80(%rbp)
    eee7:	48 8d 85 40 e1 ff ff 	lea    -0x1ec0(%rbp),%rax
    eeee:	48 89 85 88 e5 ff ff 	mov    %rax,-0x1a78(%rbp)
    eef5:	48 8d 85 40 e1 ff ff 	lea    -0x1ec0(%rbp),%rax
    eefc:	48 89 85 90 e5 ff ff 	mov    %rax,-0x1a70(%rbp)
    ef03:	48 8d 85 40 e1 ff ff 	lea    -0x1ec0(%rbp),%rax
    ef0a:	48 89 85 98 e5 ff ff 	mov    %rax,-0x1a68(%rbp)
    ef11:	48 8d 85 40 e1 ff ff 	lea    -0x1ec0(%rbp),%rax
    ef18:	48 89 85 a0 e5 ff ff 	mov    %rax,-0x1a60(%rbp)
    ef1f:	48 8d 05 56 52 01 00 	lea    0x15256(%rip),%rax        # 2417c <g_322>
    ef26:	48 89 85 50 e2 ff ff 	mov    %rax,-0x1db0(%rbp)
    ef2d:	48 8d 85 7a e0 ff ff 	lea    -0x1f86(%rbp),%rax
    ef34:	48 89 85 58 e2 ff ff 	mov    %rax,-0x1da8(%rbp)
    ef3b:	48 8d 05 26 b1 01 00 	lea    0x1b126(%rip),%rax        # 2a068 <g_1658>
    ef42:	48 89 85 48 e1 ff ff 	mov    %rax,-0x1eb8(%rbp)
    ef49:	48 8d 85 48 e1 ff ff 	lea    -0x1eb8(%rbp),%rax
    ef50:	48 89 85 60 e2 ff ff 	mov    %rax,-0x1da0(%rbp)
    ef57:	48 8d 85 18 e1 ff ff 	lea    -0x1ee8(%rbp),%rax
    ef5e:	48 89 85 50 e1 ff ff 	mov    %rax,-0x1eb0(%rbp)
    ef65:	48 8d 85 50 e1 ff ff 	lea    -0x1eb0(%rbp),%rax
    ef6c:	48 89 85 68 e2 ff ff 	mov    %rax,-0x1d98(%rbp)
    ef73:	c7 85 a4 e0 ff ff 00 	movl   $0x0,-0x1f5c(%rbp)
    ef7a:	00 00 00 
    ef7d:	eb 1e                	jmp    ef9d <func_11+0xa81>
    ef7f:	8b 85 a4 e0 ff ff    	mov    -0x1f5c(%rbp),%eax
    ef85:	48 98                	cltq   
    ef87:	48 8d 15 52 94 01 00 	lea    0x19452(%rip),%rdx        # 283e0 <g_421>
    ef8e:	48 89 94 c5 e8 e3 ff 	mov    %rdx,-0x1c18(%rbp,%rax,8)
    ef95:	ff 
    ef96:	83 85 a4 e0 ff ff 01 	addl   $0x1,-0x1f5c(%rbp)
    ef9d:	83 bd a4 e0 ff ff 00 	cmpl   $0x0,-0x1f5c(%rbp)
    efa4:	7e d9                	jle    ef7f <func_11+0xa63>
    efa6:	c7 85 a4 e0 ff ff 00 	movl   $0x0,-0x1f5c(%rbp)
    efad:	00 00 00 
    efb0:	eb 1e                	jmp    efd0 <func_11+0xab4>
    efb2:	8b 85 a4 e0 ff ff    	mov    -0x1f5c(%rbp),%eax
    efb8:	48 98                	cltq   
    efba:	48 8d 15 c7 a2 01 00 	lea    0x1a2c7(%rip),%rdx        # 29288 <g_1286>
    efc1:	48 89 94 c5 10 e5 ff 	mov    %rdx,-0x1af0(%rbp,%rax,8)
    efc8:	ff 
    efc9:	83 85 a4 e0 ff ff 01 	addl   $0x1,-0x1f5c(%rbp)
    efd0:	83 bd a4 e0 ff ff 08 	cmpl   $0x8,-0x1f5c(%rbp)
    efd7:	7e d9                	jle    efb2 <func_11+0xa96>
    efd9:	b8 ff ff ff ff       	mov    $0xffffffff,%eax
    efde:	89 85 54 e0 ff ff    	mov    %eax,-0x1fac(%rbp)
    efe4:	4c 8b a5 10 e1 ff ff 	mov    -0x1ef0(%rbp),%r12
    efeb:	48 8b 9d 10 e1 ff ff 	mov    -0x1ef0(%rbp),%rbx
    eff2:	44 0f b6 bd 6c e0 ff 	movzbl -0x1f94(%rbp),%r15d
    eff9:	ff 
    effa:	44 0f b6 b5 6c e0 ff 	movzbl -0x1f94(%rbp),%r14d
    f001:	ff 
    f002:	b8 03 00 00 00       	mov    $0x3,%eax
    f007:	44 0f b7 e8          	movzwl %ax,%r13d
    f00b:	48 c7 85 48 e0 ff ff 	movq   $0x0,-0x1fb8(%rbp)
    f012:	00 00 00 00 
    f016:	48 8b 85 58 e0 ff ff 	mov    -0x1fa8(%rbp),%rax
    f01d:	0f b6 00             	movzbl (%rax),%eax
    f020:	48 8b 15 01 50 01 00 	mov    0x15001(%rip),%rdx        # 24028 <g_6>
    f027:	09 c2                	or     %eax,%edx
    f029:	48 8b 85 58 e0 ff ff 	mov    -0x1fa8(%rbp),%rax
    f030:	88 10                	mov    %dl,(%rax)
    f032:	48 8b 85 58 e0 ff ff 	mov    -0x1fa8(%rbp),%rax
    f039:	0f b6 00             	movzbl (%rax),%eax
    f03c:	0f be c0             	movsbl %al,%eax
    f03f:	be 03 00 00 00       	mov    $0x3,%esi
    f044:	89 c7                	mov    %eax,%edi
    f046:	e8 a3 b2 ff ff       	callq  a2ee <safe_lshift_func_int8_t_s_u>
    f04b:	0f be c0             	movsbl %al,%eax
    f04e:	89 05 e0 4f 01 00    	mov    %eax,0x14fe0(%rip)        # 24034 <g_34>
    f054:	8b 05 da 4f 01 00    	mov    0x14fda(%rip),%eax        # 24034 <g_34>
    f05a:	89 05 a8 ae 01 00    	mov    %eax,0x1aea8(%rip)        # 29f08 <g_36>
    f060:	0f b7 05 c9 4f 01 00 	movzwl 0x14fc9(%rip),%eax        # 24030 <g_8>
    f067:	0f b6 c0             	movzbl %al,%eax
    f06a:	89 c6                	mov    %eax,%esi
    f06c:	bf 01 00 00 00       	mov    $0x1,%edi
    f071:	e8 1d bb ff ff       	callq  ab93 <safe_mul_func_uint8_t_u_u>
    f076:	0f b6 c0             	movzbl %al,%eax
    f079:	be 95 b1 ca fa       	mov    $0xfacab195,%esi
    f07e:	89 c7                	mov    %eax,%edi
    f080:	e8 a0 be ff ff       	callq  af25 <safe_div_func_uint32_t_u_u>
    f085:	45 89 f8             	mov    %r15d,%r8d
    f088:	4c 89 f1             	mov    %r14,%rcx
    f08b:	4c 89 ea             	mov    %r13,%rdx
    f08e:	48 8b b5 48 e0 ff ff 	mov    -0x1fb8(%rbp),%rsi
    f095:	89 c7                	mov    %eax,%edi
    f097:	e8 20 36 00 00       	callq  126bc <func_24>
    f09c:	8b 8d 54 e0 ff ff    	mov    -0x1fac(%rbp),%ecx
    f0a2:	4c 89 e2             	mov    %r12,%rdx
    f0a5:	48 89 de             	mov    %rbx,%rsi
    f0a8:	48 89 c7             	mov    %rax,%rdi
    f0ab:	e8 cf 34 00 00       	callq  1257f <func_19>
    f0b0:	48 8b 95 80 e1 ff ff 	mov    -0x1e80(%rbp),%rdx
    f0b7:	8b 12                	mov    (%rdx),%edx
    f0b9:	31 c2                	xor    %eax,%edx
    f0bb:	48 8b 85 80 e1 ff ff 	mov    -0x1e80(%rbp),%rax
    f0c2:	89 10                	mov    %edx,(%rax)
    f0c4:	48 c7 05 a9 56 01 00 	movq   $0x0,0x156a9(%rip)        # 24778 <g_1417>
    f0cb:	00 00 00 00 
    f0cf:	e9 b4 1c 00 00       	jmpq   10d88 <func_11+0x286c>
    f0d4:	48 8d 05 d1 4f 01 00 	lea    0x14fd1(%rip),%rax        # 240ac <g_188>
    f0db:	48 89 85 88 e1 ff ff 	mov    %rax,-0x1e78(%rbp)
    f0e2:	48 c7 85 70 e2 ff ff 	movq   $0x0,-0x1d90(%rbp)
    f0e9:	00 00 00 00 
    f0ed:	c7 85 94 e0 ff ff fb 	movl   $0xfffffffb,-0x1f6c(%rbp)
    f0f4:	ff ff ff 
    f0f7:	c7 85 98 e0 ff ff 04 	movl   $0x4,-0x1f68(%rbp)
    f0fe:	00 00 00 
    f101:	c7 85 70 e4 ff ff a5 	movl   $0x2d4b4a5,-0x1b90(%rbp)
    f108:	b4 d4 02 
    f10b:	c7 85 74 e4 ff ff a5 	movl   $0x2d4b4a5,-0x1b8c(%rbp)
    f112:	b4 d4 02 
    f115:	c7 85 78 e4 ff ff a5 	movl   $0x2d4b4a5,-0x1b88(%rbp)
    f11c:	b4 d4 02 
    f11f:	c7 85 7c e4 ff ff a5 	movl   $0x2d4b4a5,-0x1b84(%rbp)
    f126:	b4 d4 02 
    f129:	c7 85 80 e4 ff ff a5 	movl   $0x2d4b4a5,-0x1b80(%rbp)
    f130:	b4 d4 02 
    f133:	c7 85 84 e4 ff ff a5 	movl   $0x2d4b4a5,-0x1b7c(%rbp)
    f13a:	b4 d4 02 
    f13d:	c7 85 88 e4 ff ff a5 	movl   $0x2d4b4a5,-0x1b78(%rbp)
    f144:	b4 d4 02 
    f147:	c7 85 8c e4 ff ff a5 	movl   $0x2d4b4a5,-0x1b74(%rbp)
    f14e:	b4 d4 02 
    f151:	c7 85 90 e4 ff ff a5 	movl   $0x2d4b4a5,-0x1b70(%rbp)
    f158:	b4 d4 02 
    f15b:	48 8d 05 c6 ae 01 00 	lea    0x1aec6(%rip),%rax        # 2a028 <g_1253>
    f162:	48 89 85 78 e2 ff ff 	mov    %rax,-0x1d88(%rbp)
    f169:	48 8d 05 f8 ae 01 00 	lea    0x1aef8(%rip),%rax        # 2a068 <g_1658>
    f170:	48 89 85 80 e2 ff ff 	mov    %rax,-0x1d80(%rbp)
    f177:	48 8d 05 fe 4f 01 00 	lea    0x14ffe(%rip),%rax        # 2417c <g_322>
    f17e:	48 89 85 b0 e5 ff ff 	mov    %rax,-0x1a50(%rbp)
    f185:	48 8d 05 f0 4f 01 00 	lea    0x14ff0(%rip),%rax        # 2417c <g_322>
    f18c:	48 89 85 b8 e5 ff ff 	mov    %rax,-0x1a48(%rbp)
    f193:	48 8d 05 e2 4f 01 00 	lea    0x14fe2(%rip),%rax        # 2417c <g_322>
    f19a:	48 89 85 c0 e5 ff ff 	mov    %rax,-0x1a40(%rbp)
    f1a1:	48 8d 05 d4 4f 01 00 	lea    0x14fd4(%rip),%rax        # 2417c <g_322>
    f1a8:	48 89 85 c8 e5 ff ff 	mov    %rax,-0x1a38(%rbp)
    f1af:	48 8d 05 c6 4f 01 00 	lea    0x14fc6(%rip),%rax        # 2417c <g_322>
    f1b6:	48 89 85 d0 e5 ff ff 	mov    %rax,-0x1a30(%rbp)
    f1bd:	48 8d 05 b8 4f 01 00 	lea    0x14fb8(%rip),%rax        # 2417c <g_322>
    f1c4:	48 89 85 d8 e5 ff ff 	mov    %rax,-0x1a28(%rbp)
    f1cb:	48 8d 05 aa 4f 01 00 	lea    0x14faa(%rip),%rax        # 2417c <g_322>
    f1d2:	48 89 85 e0 e5 ff ff 	mov    %rax,-0x1a20(%rbp)
    f1d9:	48 8d 05 9c 4f 01 00 	lea    0x14f9c(%rip),%rax        # 2417c <g_322>
    f1e0:	48 89 85 e8 e5 ff ff 	mov    %rax,-0x1a18(%rbp)
    f1e7:	48 8d 05 8e 4f 01 00 	lea    0x14f8e(%rip),%rax        # 2417c <g_322>
    f1ee:	48 89 85 f0 e5 ff ff 	mov    %rax,-0x1a10(%rbp)
    f1f5:	48 8d 85 b0 e5 ff ff 	lea    -0x1a50(%rbp),%rax
    f1fc:	48 83 c0 18          	add    $0x18,%rax
    f200:	48 89 85 88 e2 ff ff 	mov    %rax,-0x1d78(%rbp)
    f207:	66 c7 85 7e e0 ff ff 	movw   $0xffff,-0x1f82(%rbp)
    f20e:	ff ff 
    f210:	c7 85 a8 e0 ff ff 00 	movl   $0x0,-0x1f58(%rbp)
    f217:	00 00 00 
    f21a:	eb 1e                	jmp    f23a <func_11+0xd1e>
    f21c:	8b 85 a8 e0 ff ff    	mov    -0x1f58(%rbp),%eax
    f222:	48 98                	cltq   
    f224:	48 8d 15 6f 4e 01 00 	lea    0x14e6f(%rip),%rdx        # 2409a <g_98>
    f22b:	48 89 94 c5 20 e4 ff 	mov    %rdx,-0x1be0(%rbp,%rax,8)
    f232:	ff 
    f233:	83 85 a8 e0 ff ff 01 	addl   $0x1,-0x1f58(%rbp)
    f23a:	83 bd a8 e0 ff ff 03 	cmpl   $0x3,-0x1f58(%rbp)
    f241:	7e d9                	jle    f21c <func_11+0xd00>
    f243:	c7 85 a8 e0 ff ff 00 	movl   $0x0,-0x1f58(%rbp)
    f24a:	00 00 00 
    f24d:	e9 81 00 00 00       	jmpq   f2d3 <func_11+0xdb7>
    f252:	c7 85 ac e0 ff ff 00 	movl   $0x0,-0x1f54(%rbp)
    f259:	00 00 00 
    f25c:	eb 65                	jmp    f2c3 <func_11+0xda7>
    f25e:	c7 85 b0 e0 ff ff 00 	movl   $0x0,-0x1f50(%rbp)
    f265:	00 00 00 
    f268:	eb 49                	jmp    f2b3 <func_11+0xd97>
    f26a:	8b 85 b0 e0 ff ff    	mov    -0x1f50(%rbp),%eax
    f270:	48 63 f0             	movslq %eax,%rsi
    f273:	8b 85 a8 e0 ff ff    	mov    -0x1f58(%rbp),%eax
    f279:	48 63 d0             	movslq %eax,%rdx
    f27c:	8b 85 ac e0 ff ff    	mov    -0x1f54(%rbp),%eax
    f282:	48 63 c8             	movslq %eax,%rcx
    f285:	48 89 d0             	mov    %rdx,%rax
    f288:	48 c1 e0 03          	shl    $0x3,%rax
    f28c:	48 01 d0             	add    %rdx,%rax
    f28f:	48 01 c0             	add    %rax,%rax
    f292:	48 89 ca             	mov    %rcx,%rdx
    f295:	48 c1 e2 03          	shl    $0x3,%rdx
    f299:	48 01 ca             	add    %rcx,%rdx
    f29c:	48 01 d0             	add    %rdx,%rax
    f29f:	48 01 f0             	add    %rsi,%rax
    f2a2:	66 c7 84 45 30 e9 ff 	movw   $0xffff,-0x16d0(%rbp,%rax,2)
    f2a9:	ff ff ff 
    f2ac:	83 85 b0 e0 ff ff 01 	addl   $0x1,-0x1f50(%rbp)
    f2b3:	83 bd b0 e0 ff ff 08 	cmpl   $0x8,-0x1f50(%rbp)
    f2ba:	7e ae                	jle    f26a <func_11+0xd4e>
    f2bc:	83 85 ac e0 ff ff 01 	addl   $0x1,-0x1f54(%rbp)
    f2c3:	83 bd ac e0 ff ff 01 	cmpl   $0x1,-0x1f54(%rbp)
    f2ca:	7e 92                	jle    f25e <func_11+0xd42>
    f2cc:	83 85 a8 e0 ff ff 01 	addl   $0x1,-0x1f58(%rbp)
    f2d3:	83 bd a8 e0 ff ff 06 	cmpl   $0x6,-0x1f58(%rbp)
    f2da:	0f 8e 72 ff ff ff    	jle    f252 <func_11+0xd36>
    f2e0:	48 8b 05 19 91 01 00 	mov    0x19119(%rip),%rax        # 28400 <g_610>
    f2e7:	8b 00                	mov    (%rax),%eax
    f2e9:	85 c0                	test   %eax,%eax
    f2eb:	0f 84 3a 0a 00 00    	je     fd2b <func_11+0x180f>
    f2f1:	48 8d 85 38 e1 ff ff 	lea    -0x1ec8(%rbp),%rax
    f2f8:	48 89 85 98 e2 ff ff 	mov    %rax,-0x1d68(%rbp)
    f2ff:	c7 85 70 e1 ff ff 99 	movl   $0xa010a699,-0x1e90(%rbp)
    f306:	a6 10 a0 
    f309:	48 8d 85 00 f9 ff ff 	lea    -0x700(%rbp),%rax
    f310:	48 8d 15 29 f6 00 00 	lea    0xf629(%rip),%rdx        # 1e940 <g_3175+0x79c>
    f317:	b9 48 00 00 00       	mov    $0x48,%ecx
    f31c:	48 89 c7             	mov    %rax,%rdi
    f31f:	48 89 d6             	mov    %rdx,%rsi
    f322:	f3 48 a5             	rep movsq %ds:(%rsi),%es:(%rdi)
    f325:	48 8d 85 73 e0 ff ff 	lea    -0x1f8d(%rbp),%rax
    f32c:	48 89 85 78 e1 ff ff 	mov    %rax,-0x1e88(%rbp)
    f333:	48 8d 85 78 e1 ff ff 	lea    -0x1e88(%rbp),%rax
    f33a:	48 89 85 a0 e2 ff ff 	mov    %rax,-0x1d60(%rbp)
    f341:	48 8d 05 28 a1 01 00 	lea    0x1a128(%rip),%rax        # 29470 <g_1350>
    f348:	48 89 85 f0 e6 ff ff 	mov    %rax,-0x1910(%rbp)
    f34f:	48 8d 05 1a a1 01 00 	lea    0x1a11a(%rip),%rax        # 29470 <g_1350>
    f356:	48 89 85 f8 e6 ff ff 	mov    %rax,-0x1908(%rbp)
    f35d:	48 8d 05 0c a1 01 00 	lea    0x1a10c(%rip),%rax        # 29470 <g_1350>
    f364:	48 89 85 00 e7 ff ff 	mov    %rax,-0x1900(%rbp)
    f36b:	48 8d 05 fe a0 01 00 	lea    0x1a0fe(%rip),%rax        # 29470 <g_1350>
    f372:	48 89 85 08 e7 ff ff 	mov    %rax,-0x18f8(%rbp)
    f379:	48 8d 05 f0 a0 01 00 	lea    0x1a0f0(%rip),%rax        # 29470 <g_1350>
    f380:	48 89 85 10 e7 ff ff 	mov    %rax,-0x18f0(%rbp)
    f387:	48 8d 05 e2 a0 01 00 	lea    0x1a0e2(%rip),%rax        # 29470 <g_1350>
    f38e:	48 89 85 18 e7 ff ff 	mov    %rax,-0x18e8(%rbp)
    f395:	48 8d 05 dc a0 01 00 	lea    0x1a0dc(%rip),%rax        # 29478 <g_1351>
    f39c:	48 89 85 20 e7 ff ff 	mov    %rax,-0x18e0(%rbp)
    f3a3:	48 8d 05 c6 a0 01 00 	lea    0x1a0c6(%rip),%rax        # 29470 <g_1350>
    f3aa:	48 89 85 28 e7 ff ff 	mov    %rax,-0x18d8(%rbp)
    f3b1:	48 8d 05 b8 a0 01 00 	lea    0x1a0b8(%rip),%rax        # 29470 <g_1350>
    f3b8:	48 89 85 30 e7 ff ff 	mov    %rax,-0x18d0(%rbp)
    f3bf:	48 8d 05 aa a0 01 00 	lea    0x1a0aa(%rip),%rax        # 29470 <g_1350>
    f3c6:	48 89 85 38 e7 ff ff 	mov    %rax,-0x18c8(%rbp)
    f3cd:	48 8d 05 9c a0 01 00 	lea    0x1a09c(%rip),%rax        # 29470 <g_1350>
    f3d4:	48 89 85 40 e7 ff ff 	mov    %rax,-0x18c0(%rbp)
    f3db:	48 8d 05 8e a0 01 00 	lea    0x1a08e(%rip),%rax        # 29470 <g_1350>
    f3e2:	48 89 85 48 e7 ff ff 	mov    %rax,-0x18b8(%rbp)
    f3e9:	48 8d 05 80 a0 01 00 	lea    0x1a080(%rip),%rax        # 29470 <g_1350>
    f3f0:	48 89 85 50 e7 ff ff 	mov    %rax,-0x18b0(%rbp)
    f3f7:	48 8d 05 72 a0 01 00 	lea    0x1a072(%rip),%rax        # 29470 <g_1350>
    f3fe:	48 89 85 58 e7 ff ff 	mov    %rax,-0x18a8(%rbp)
    f405:	48 8d 05 64 a0 01 00 	lea    0x1a064(%rip),%rax        # 29470 <g_1350>
    f40c:	48 89 85 60 e7 ff ff 	mov    %rax,-0x18a0(%rbp)
    f413:	48 8d 05 56 a0 01 00 	lea    0x1a056(%rip),%rax        # 29470 <g_1350>
    f41a:	48 89 85 68 e7 ff ff 	mov    %rax,-0x1898(%rbp)
    f421:	48 8d 05 48 a0 01 00 	lea    0x1a048(%rip),%rax        # 29470 <g_1350>
    f428:	48 89 85 70 e7 ff ff 	mov    %rax,-0x1890(%rbp)
    f42f:	48 8d 05 3a a0 01 00 	lea    0x1a03a(%rip),%rax        # 29470 <g_1350>
    f436:	48 89 85 78 e7 ff ff 	mov    %rax,-0x1888(%rbp)
    f43d:	48 8d 05 34 a0 01 00 	lea    0x1a034(%rip),%rax        # 29478 <g_1351>
    f444:	48 89 85 80 e7 ff ff 	mov    %rax,-0x1880(%rbp)
    f44b:	48 8d 05 1e a0 01 00 	lea    0x1a01e(%rip),%rax        # 29470 <g_1350>
    f452:	48 89 85 88 e7 ff ff 	mov    %rax,-0x1878(%rbp)
    f459:	48 8d 85 f0 e6 ff ff 	lea    -0x1910(%rbp),%rax
    f460:	48 83 e8 80          	sub    $0xffffffffffffff80,%rax
    f464:	48 89 85 a8 e2 ff ff 	mov    %rax,-0x1d58(%rbp)
    f46b:	48 8d 05 be 4e 01 00 	lea    0x14ebe(%rip),%rax        # 24330 <g_375>
    f472:	48 89 85 b0 e2 ff ff 	mov    %rax,-0x1d50(%rbp)
    f479:	48 c7 85 b8 e2 ff ff 	movq   $0x1,-0x1d48(%rbp)
    f480:	01 00 00 00 
    f484:	c7 85 d4 e0 ff ff db 	movl   $0xb5ae2bdb,-0x1f2c(%rbp)
    f48b:	2b ae b5 
    f48e:	48 8d 05 bb 5c 01 00 	lea    0x15cbb(%rip),%rax        # 25150 <g_2314>
    f495:	48 89 85 c0 e2 ff ff 	mov    %rax,-0x1d40(%rbp)
    f49c:	c7 85 b4 e0 ff ff 00 	movl   $0x0,-0x1f4c(%rbp)
    f4a3:	00 00 00 
    f4a6:	eb 1b                	jmp    f4c3 <func_11+0xfa7>
    f4a8:	8b 85 b4 e0 ff ff    	mov    -0x1f4c(%rbp),%eax
    f4ae:	48 98                	cltq   
    f4b0:	48 c7 84 c5 f0 e3 ff 	movq   $0x0,-0x1c10(%rbp,%rax,8)
    f4b7:	ff 00 00 00 00 
    f4bc:	83 85 b4 e0 ff ff 01 	addl   $0x1,-0x1f4c(%rbp)
    f4c3:	83 bd b4 e0 ff ff 01 	cmpl   $0x1,-0x1f4c(%rbp)
    f4ca:	7e dc                	jle    f4a8 <func_11+0xf8c>
    f4cc:	48 8b 05 dd 8e 01 00 	mov    0x18edd(%rip),%rax        # 283b0 <g_265>
    f4d3:	48 8b 00             	mov    (%rax),%rax
    f4d6:	48 8b 95 88 e1 ff ff 	mov    -0x1e78(%rbp),%rdx
    f4dd:	48 89 10             	mov    %rdx,(%rax)
    f4e0:	0f b6 85 6b e6 ff ff 	movzbl -0x1995(%rbp),%eax
    f4e7:	48 0f be d8          	movsbq %al,%rbx
    f4eb:	48 8b 85 80 e1 ff ff 	mov    -0x1e80(%rbp),%rax
    f4f2:	8b 00                	mov    (%rax),%eax
    f4f4:	44 0f bf e0          	movswl %ax,%r12d
    f4f8:	44 0f b6 ad 6c e0 ff 	movzbl -0x1f94(%rbp),%r13d
    f4ff:	ff 
    f500:	8b 85 70 e1 ff ff    	mov    -0x1e90(%rbp),%eax
    f506:	41 89 c7             	mov    %eax,%r15d
    f509:	48 8b 85 60 e0 ff ff 	mov    -0x1fa0(%rbp),%rax
    f510:	0f b7 00             	movzwl (%rax),%eax
    f513:	44 0f b7 f0          	movzwl %ax,%r14d
    f517:	0f b6 05 12 4e 01 00 	movzbl 0x14e12(%rip),%eax        # 24330 <g_375>
    f51e:	0f b6 d0             	movzbl %al,%edx
    f521:	48 8b 05 50 9f 01 00 	mov    0x19f50(%rip),%rax        # 29478 <g_1351>
    f528:	48 8b 00             	mov    (%rax),%rax
    f52b:	48 b9 fa 83 56 81 af 	movabs $0x2e1885af815683fa,%rcx
    f532:	85 18 2e 
    f535:	48 21 c8             	and    %rcx,%rax
    f538:	48 39 c2             	cmp    %rax,%rdx
    f53b:	0f 9f c0             	setg   %al
    f53e:	0f b6 c0             	movzbl %al,%eax
    f541:	48 be 24 d0 4d de 1e 	movabs $0x5638381ede4dd024,%rsi
    f548:	38 38 56 
    f54b:	48 89 c7             	mov    %rax,%rdi
    f54e:	e8 61 b4 ff ff       	callq  a9b4 <safe_mod_func_int64_t_s_s>
    f553:	89 c2                	mov    %eax,%edx
    f555:	48 8b 85 88 e1 ff ff 	mov    -0x1e78(%rbp),%rax
    f55c:	89 10                	mov    %edx,(%rax)
    f55e:	48 8b 85 88 e1 ff ff 	mov    -0x1e78(%rbp),%rax
    f565:	8b 10                	mov    (%rax),%edx
    f567:	48 8b 85 60 e0 ff ff 	mov    -0x1fa0(%rbp),%rax
    f56e:	0f b7 00             	movzwl (%rax),%eax
    f571:	0f b7 c0             	movzwl %ax,%eax
    f574:	39 c2                	cmp    %eax,%edx
    f576:	0f 9d c0             	setge  %al
    f579:	0f b6 c0             	movzbl %al,%eax
    f57c:	44 89 f6             	mov    %r14d,%esi
    f57f:	89 c7                	mov    %eax,%edi
    f581:	e8 b7 b7 ff ff       	callq  ad3d <safe_mul_func_uint16_t_u_u>
    f586:	98                   	cwtl   
    f587:	be 02 00 00 00       	mov    $0x2,%esi
    f58c:	89 c7                	mov    %eax,%edi
    f58e:	e8 d0 af ff ff       	callq  a563 <safe_rshift_func_int16_t_s_u>
    f593:	48 8b 05 66 8f 01 00 	mov    0x18f66(%rip),%rax        # 28500 <g_896>
    f59a:	48 8b 00             	mov    (%rax),%rax
    f59d:	8b 00                	mov    (%rax),%eax
    f59f:	48 8b 85 88 e1 ff ff 	mov    -0x1e78(%rbp),%rax
    f5a6:	8b 10                	mov    (%rax),%edx
    f5a8:	8b 85 70 e1 ff ff    	mov    -0x1e90(%rbp),%eax
    f5ae:	09 d0                	or     %edx,%eax
    f5b0:	48 98                	cltq   
    f5b2:	25 41 30 f1 5a       	and    $0x5af13041,%eax
    f5b7:	48 89 c2             	mov    %rax,%rdx
    f5ba:	48 8b 85 80 e1 ff ff 	mov    -0x1e80(%rbp),%rax
    f5c1:	8b 00                	mov    (%rax),%eax
    f5c3:	48 98                	cltq   
    f5c5:	48 39 c2             	cmp    %rax,%rdx
    f5c8:	7f 07                	jg     f5d1 <func_11+0x10b5>
    f5ca:	ba 01 00 00 00       	mov    $0x1,%edx
    f5cf:	eb 05                	jmp    f5d6 <func_11+0x10ba>
    f5d1:	ba 00 00 00 00       	mov    $0x0,%edx
    f5d6:	8b 85 dc f9 ff ff    	mov    -0x624(%rbp),%eax
    f5dc:	09 d0                	or     %edx,%eax
    f5de:	89 85 dc f9 ff ff    	mov    %eax,-0x624(%rbp)
    f5e4:	c7 05 8e 4b 01 00 86 	movl   $0xb4f94086,0x14b8e(%rip)        # 2417c <g_322>
    f5eb:	40 f9 b4 
    f5ee:	44 89 fe             	mov    %r15d,%esi
    f5f1:	bf 01 00 00 00       	mov    $0x1,%edi
    f5f6:	e8 bd b8 ff ff       	callq  aeb8 <safe_add_func_uint32_t_u_u>
    f5fb:	0f be c0             	movsbl %al,%eax
    f5fe:	44 89 ee             	mov    %r13d,%esi
    f601:	89 c7                	mov    %eax,%edi
    f603:	e8 64 ad ff ff       	callq  a36c <safe_rshift_func_int8_t_s_u>
    f608:	84 c0                	test   %al,%al
    f60a:	75 09                	jne    f615 <func_11+0x10f9>
    f60c:	80 bd 6c e0 ff ff 00 	cmpb   $0x0,-0x1f94(%rbp)
    f613:	74 07                	je     f61c <func_11+0x1100>
    f615:	ba 01 00 00 00       	mov    $0x1,%edx
    f61a:	eb 05                	jmp    f621 <func_11+0x1105>
    f61c:	ba 00 00 00 00       	mov    $0x0,%edx
    f621:	0f b6 85 6c e0 ff ff 	movzbl -0x1f94(%rbp),%eax
    f628:	39 c2                	cmp    %eax,%edx
    f62a:	0f 9d c0             	setge  %al
    f62d:	0f b6 c0             	movzbl %al,%eax
    f630:	44 89 e6             	mov    %r12d,%esi
    f633:	89 c7                	mov    %eax,%edi
    f635:	e8 79 ad ff ff       	callq  a3b3 <safe_add_func_int16_t_s_s>
    f63a:	48 89 de             	mov    %rbx,%rsi
    f63d:	48 c7 c7 ff ff ff ff 	mov    $0xffffffffffffffff,%rdi
    f644:	e8 37 ba ff ff       	callq  b080 <safe_mod_func_uint64_t_u_u>
    f649:	48 89 c3             	mov    %rax,%rbx
    f64c:	0f b6 85 6b e6 ff ff 	movzbl -0x1995(%rbp),%eax
    f653:	66 98                	cbtw   
    f655:	0f b7 d0             	movzwl %ax,%edx
    f658:	48 8b 85 40 e2 ff ff 	mov    -0x1dc0(%rbp),%rax
    f65f:	48 3b 85 98 e2 ff ff 	cmp    -0x1d68(%rbp),%rax
    f666:	0f 94 c0             	sete   %al
    f669:	0f b6 c0             	movzbl %al,%eax
    f66c:	89 d6                	mov    %edx,%esi
    f66e:	89 c7                	mov    %eax,%edi
    f670:	e8 e7 b6 ff ff       	callq  ad5c <safe_mod_func_uint16_t_u_u>
    f675:	48 8b 95 38 e2 ff ff 	mov    -0x1dc8(%rbp),%rdx
    f67c:	0f b6 12             	movzbl (%rdx),%edx
    f67f:	89 d9                	mov    %ebx,%ecx
    f681:	21 d1                	and    %edx,%ecx
    f683:	48 8b 95 38 e2 ff ff 	mov    -0x1dc8(%rbp),%rdx
    f68a:	88 0a                	mov    %cl,(%rdx)
    f68c:	48 8b 95 38 e2 ff ff 	mov    -0x1dc8(%rbp),%rdx
    f693:	0f b6 12             	movzbl (%rdx),%edx
    f696:	0f b6 d2             	movzbl %dl,%edx
    f699:	66 39 d0             	cmp    %dx,%ax
    f69c:	0f 94 c0             	sete   %al
    f69f:	0f b6 d0             	movzbl %al,%edx
    f6a2:	8b 85 94 e0 ff ff    	mov    -0x1f6c(%rbp),%eax
    f6a8:	09 d0                	or     %edx,%eax
    f6aa:	89 85 94 e0 ff ff    	mov    %eax,-0x1f6c(%rbp)
    f6b0:	48 8b 85 a0 e2 ff ff 	mov    -0x1d60(%rbp),%rax
    f6b7:	48 8d 15 47 50 01 00 	lea    0x15047(%rip),%rdx        # 24705 <g_977+0xe5>
    f6be:	48 89 10             	mov    %rdx,(%rax)
    f6c1:	48 8b 05 18 9e 01 00 	mov    0x19e18(%rip),%rax        # 294e0 <g_1848>
    f6c8:	48 8b 08             	mov    (%rax),%rcx
    f6cb:	48 8b 95 00 e7 ff ff 	mov    -0x1900(%rbp),%rdx
    f6d2:	48 8b 85 a8 e2 ff ff 	mov    -0x1d58(%rbp),%rax
    f6d9:	48 89 10             	mov    %rdx,(%rax)
    f6dc:	48 8b 85 a8 e2 ff ff 	mov    -0x1d58(%rbp),%rax
    f6e3:	48 8b 00             	mov    (%rax),%rax
    f6e6:	48 39 c1             	cmp    %rax,%rcx
    f6e9:	48 8d 05 15 50 01 00 	lea    0x15015(%rip),%rax        # 24705 <g_977+0xe5>
    f6f0:	48 39 85 58 e0 ff ff 	cmp    %rax,-0x1fa8(%rbp)
    f6f7:	0f 94 c0             	sete   %al
    f6fa:	0f b6 d0             	movzbl %al,%edx
    f6fd:	48 8b 05 c4 8e 01 00 	mov    0x18ec4(%rip),%rax        # 285c8 <g_1097>
    f704:	0f b6 00             	movzbl (%rax),%eax
    f707:	0f be c0             	movsbl %al,%eax
    f70a:	39 c2                	cmp    %eax,%edx
    f70c:	0f 9e c0             	setle  %al
    f70f:	89 c2                	mov    %eax,%edx
    f711:	48 8b 85 b0 e2 ff ff 	mov    -0x1d50(%rbp),%rax
    f718:	88 10                	mov    %dl,(%rax)
    f71a:	48 8b 85 b0 e2 ff ff 	mov    -0x1d50(%rbp),%rax
    f721:	0f b6 00             	movzbl (%rax),%eax
    f724:	84 c0                	test   %al,%al
    f726:	75 0c                	jne    f734 <func_11+0x1218>
    f728:	48 8b 05 59 4d 01 00 	mov    0x14d59(%rip),%rax        # 24488 <g_651+0x8>
    f72f:	48 85 c0             	test   %rax,%rax
    f732:	74 07                	je     f73b <func_11+0x121f>
    f734:	b8 01 00 00 00       	mov    $0x1,%eax
    f739:	eb 05                	jmp    f740 <func_11+0x1224>
    f73b:	b8 00 00 00 00       	mov    $0x0,%eax
    f740:	0f be c0             	movsbl %al,%eax
    f743:	be ff ff ff ff       	mov    $0xffffffff,%esi
    f748:	89 c7                	mov    %eax,%edi
    f74a:	e8 1b ab ff ff       	callq  a26a <safe_div_func_int8_t_s_s>
    f74f:	66 98                	cbtw   
    f751:	0f b7 d0             	movzwl %ax,%edx
    f754:	48 8b 05 6d 8e 01 00 	mov    0x18e6d(%rip),%rax        # 285c8 <g_1097>
    f75b:	0f b6 00             	movzbl (%rax),%eax
    f75e:	0f be c8             	movsbl %al,%ecx
    f761:	48 8b 85 38 e2 ff ff 	mov    -0x1dc8(%rbp),%rax
    f768:	0f b6 00             	movzbl (%rax),%eax
    f76b:	83 e0 03             	and    $0x3,%eax
    f76e:	89 c6                	mov    %eax,%esi
    f770:	48 8b 85 38 e2 ff ff 	mov    -0x1dc8(%rbp),%rax
    f777:	40 88 30             	mov    %sil,(%rax)
    f77a:	48 8b 85 38 e2 ff ff 	mov    -0x1dc8(%rbp),%rax
    f781:	0f b6 00             	movzbl (%rax),%eax
    f784:	0f b6 c0             	movzbl %al,%eax
    f787:	39 c1                	cmp    %eax,%ecx
    f789:	0f 9c c0             	setl   %al
    f78c:	0f b6 c0             	movzbl %al,%eax
    f78f:	89 d6                	mov    %edx,%esi
    f791:	89 c7                	mov    %eax,%edi
    f793:	e8 c4 b5 ff ff       	callq  ad5c <safe_mod_func_uint16_t_u_u>
    f798:	0f b6 85 6c e0 ff ff 	movzbl -0x1f94(%rbp),%eax
    f79f:	0f b6 d0             	movzbl %al,%edx
    f7a2:	8b 85 88 e0 ff ff    	mov    -0x1f78(%rbp),%eax
    f7a8:	31 d0                	xor    %edx,%eax
    f7aa:	89 85 88 e0 ff ff    	mov    %eax,-0x1f78(%rbp)
    f7b0:	8b 85 88 e0 ff ff    	mov    -0x1f78(%rbp),%eax
    f7b6:	0f b7 d0             	movzwl %ax,%edx
    f7b9:	48 8b 05 b0 9c 01 00 	mov    0x19cb0(%rip),%rax        # 29470 <g_1350>
    f7c0:	48 8b 08             	mov    (%rax),%rcx
    f7c3:	48 8b 85 80 e1 ff ff 	mov    -0x1e80(%rbp),%rax
    f7ca:	8b 00                	mov    (%rax),%eax
    f7cc:	48 98                	cltq   
    f7ce:	48 39 c1             	cmp    %rax,%rcx
    f7d1:	0f 9d c0             	setge  %al
    f7d4:	0f b6 c8             	movzbl %al,%ecx
    f7d7:	48 8b 85 88 e1 ff ff 	mov    -0x1e78(%rbp),%rax
    f7de:	89 08                	mov    %ecx,(%rax)
    f7e0:	48 8b 85 88 e1 ff ff 	mov    -0x1e78(%rbp),%rax
    f7e7:	8b 00                	mov    (%rax),%eax
    f7e9:	0f b7 c0             	movzwl %ax,%eax
    f7ec:	89 d6                	mov    %edx,%esi
    f7ee:	89 c7                	mov    %eax,%edi
    f7f0:	e8 48 b5 ff ff       	callq  ad3d <safe_mul_func_uint16_t_u_u>
    f7f5:	0f b6 c0             	movzbl %al,%eax
    f7f8:	89 c7                	mov    %eax,%edi
    f7fa:	e8 46 b3 ff ff       	callq  ab45 <safe_unary_minus_func_uint8_t_u>
    f7ff:	0f b6 d0             	movzbl %al,%edx
    f802:	0f b6 85 dd e6 ff ff 	movzbl -0x1923(%rbp),%eax
    f809:	0f be c0             	movsbl %al,%eax
    f80c:	39 c2                	cmp    %eax,%edx
    f80e:	0f 84 87 02 00 00    	je     fa9b <func_11+0x157f>
    f814:	48 b8 e3 8e fe e9 02 	movabs $0x6700eb02e9fe8ee3,%rax
    f81b:	eb 00 67 
    f81e:	48 89 85 d8 e2 ff ff 	mov    %rax,-0x1d28(%rbp)
    f825:	48 8d 85 30 ea ff ff 	lea    -0x15d0(%rbp),%rax
    f82c:	48 83 c0 44          	add    $0x44,%rax
    f830:	48 89 85 e0 e2 ff ff 	mov    %rax,-0x1d20(%rbp)
    f837:	48 8d 85 30 ea ff ff 	lea    -0x15d0(%rbp),%rax
    f83e:	48 83 c0 1c          	add    $0x1c,%rax
    f842:	48 89 85 e8 e2 ff ff 	mov    %rax,-0x1d18(%rbp)
    f849:	48 8d 85 70 e1 ff ff 	lea    -0x1e90(%rbp),%rax
    f850:	48 89 85 f0 e2 ff ff 	mov    %rax,-0x1d10(%rbp)
    f857:	48 8d 05 ba 4c 01 00 	lea    0x14cba(%rip),%rax        # 24518 <g_849>
    f85e:	48 89 85 f8 e2 ff ff 	mov    %rax,-0x1d08(%rbp)
    f865:	48 8d 85 00 f9 ff ff 	lea    -0x700(%rbp),%rax
    f86c:	48 05 dc 00 00 00    	add    $0xdc,%rax
    f872:	48 89 85 00 e3 ff ff 	mov    %rax,-0x1d00(%rbp)
    f879:	48 8d 85 94 e0 ff ff 	lea    -0x1f6c(%rbp),%rax
    f880:	48 89 85 00 f4 ff ff 	mov    %rax,-0xc00(%rbp)
    f887:	48 c7 85 08 f4 ff ff 	movq   $0x0,-0xbf8(%rbp)
    f88e:	00 00 00 00 
    f892:	48 8d 85 94 e0 ff ff 	lea    -0x1f6c(%rbp),%rax
    f899:	48 89 85 10 f4 ff ff 	mov    %rax,-0xbf0(%rbp)
    f8a0:	48 8d 05 65 a6 01 00 	lea    0x1a665(%rip),%rax        # 29f0c <g_65>
    f8a7:	48 89 85 18 f4 ff ff 	mov    %rax,-0xbe8(%rbp)
    f8ae:	48 8d 85 94 e0 ff ff 	lea    -0x1f6c(%rbp),%rax
    f8b5:	48 89 85 20 f4 ff ff 	mov    %rax,-0xbe0(%rbp)
    f8bc:	48 c7 85 28 f4 ff ff 	movq   $0x0,-0xbd8(%rbp)
    f8c3:	00 00 00 00 
    f8c7:	48 8d 85 94 e0 ff ff 	lea    -0x1f6c(%rbp),%rax
    f8ce:	48 89 85 30 f4 ff ff 	mov    %rax,-0xbd0(%rbp)
    f8d5:	48 8d 05 30 a6 01 00 	lea    0x1a630(%rip),%rax        # 29f0c <g_65>
    f8dc:	48 89 85 38 f4 ff ff 	mov    %rax,-0xbc8(%rbp)
    f8e3:	48 8d 85 94 e0 ff ff 	lea    -0x1f6c(%rbp),%rax
    f8ea:	48 89 85 40 f4 ff ff 	mov    %rax,-0xbc0(%rbp)
    f8f1:	48 c7 85 48 f4 ff ff 	movq   $0x0,-0xbb8(%rbp)
    f8f8:	00 00 00 00 
    f8fc:	48 8d 85 94 e0 ff ff 	lea    -0x1f6c(%rbp),%rax
    f903:	48 89 85 50 f4 ff ff 	mov    %rax,-0xbb0(%rbp)
    f90a:	48 8d 05 fb a5 01 00 	lea    0x1a5fb(%rip),%rax        # 29f0c <g_65>
    f911:	48 89 85 58 f4 ff ff 	mov    %rax,-0xba8(%rbp)
    f918:	48 8d 85 94 e0 ff ff 	lea    -0x1f6c(%rbp),%rax
    f91f:	48 89 85 60 f4 ff ff 	mov    %rax,-0xba0(%rbp)
    f926:	48 c7 85 68 f4 ff ff 	movq   $0x0,-0xb98(%rbp)
    f92d:	00 00 00 00 
    f931:	48 8d 85 94 e0 ff ff 	lea    -0x1f6c(%rbp),%rax
    f938:	48 89 85 70 f4 ff ff 	mov    %rax,-0xb90(%rbp)
    f93f:	48 8d 05 c6 a5 01 00 	lea    0x1a5c6(%rip),%rax        # 29f0c <g_65>
    f946:	48 89 85 78 f4 ff ff 	mov    %rax,-0xb88(%rbp)
    f94d:	48 8d 85 94 e0 ff ff 	lea    -0x1f6c(%rbp),%rax
    f954:	48 89 85 80 f4 ff ff 	mov    %rax,-0xb80(%rbp)
    f95b:	48 c7 85 88 f4 ff ff 	movq   $0x0,-0xb78(%rbp)
    f962:	00 00 00 00 
    f966:	48 8d 85 94 e0 ff ff 	lea    -0x1f6c(%rbp),%rax
    f96d:	48 89 85 90 f4 ff ff 	mov    %rax,-0xb70(%rbp)
    f974:	48 8d 05 91 a5 01 00 	lea    0x1a591(%rip),%rax        # 29f0c <g_65>
    f97b:	48 89 85 98 f4 ff ff 	mov    %rax,-0xb68(%rbp)
    f982:	48 8d 85 94 e0 ff ff 	lea    -0x1f6c(%rbp),%rax
    f989:	48 89 85 a0 f4 ff ff 	mov    %rax,-0xb60(%rbp)
    f990:	48 c7 85 a8 f4 ff ff 	movq   $0x0,-0xb58(%rbp)
    f997:	00 00 00 00 
    f99b:	48 8d 85 94 e0 ff ff 	lea    -0x1f6c(%rbp),%rax
    f9a2:	48 89 85 b0 f4 ff ff 	mov    %rax,-0xb50(%rbp)
    f9a9:	48 8d 05 5c a5 01 00 	lea    0x1a55c(%rip),%rax        # 29f0c <g_65>
    f9b0:	48 89 85 b8 f4 ff ff 	mov    %rax,-0xb48(%rbp)
    f9b7:	48 8d 85 94 e0 ff ff 	lea    -0x1f6c(%rbp),%rax
    f9be:	48 89 85 c0 f4 ff ff 	mov    %rax,-0xb40(%rbp)
    f9c5:	48 c7 85 c8 f4 ff ff 	movq   $0x0,-0xb38(%rbp)
    f9cc:	00 00 00 00 
    f9d0:	48 8d 85 94 e0 ff ff 	lea    -0x1f6c(%rbp),%rax
    f9d7:	48 89 85 d0 f4 ff ff 	mov    %rax,-0xb30(%rbp)
    f9de:	48 8d 05 27 a5 01 00 	lea    0x1a527(%rip),%rax        # 29f0c <g_65>
    f9e5:	48 89 85 d8 f4 ff ff 	mov    %rax,-0xb28(%rbp)
    f9ec:	48 8d 85 94 e0 ff ff 	lea    -0x1f6c(%rbp),%rax
    f9f3:	48 89 85 e0 f4 ff ff 	mov    %rax,-0xb20(%rbp)
    f9fa:	48 c7 85 e8 f4 ff ff 	movq   $0x0,-0xb18(%rbp)
    fa01:	00 00 00 00 
    fa05:	48 8d 85 94 e0 ff ff 	lea    -0x1f6c(%rbp),%rax
    fa0c:	48 89 85 f0 f4 ff ff 	mov    %rax,-0xb10(%rbp)
    fa13:	48 8d 05 f2 a4 01 00 	lea    0x1a4f2(%rip),%rax        # 29f0c <g_65>
    fa1a:	48 89 85 f8 f4 ff ff 	mov    %rax,-0xb08(%rbp)
    fa21:	48 8d 85 94 e0 ff ff 	lea    -0x1f6c(%rbp),%rax
    fa28:	48 89 85 00 f5 ff ff 	mov    %rax,-0xb00(%rbp)
    fa2f:	48 c7 85 08 f5 ff ff 	movq   $0x0,-0xaf8(%rbp)
    fa36:	00 00 00 00 
    fa3a:	48 8d 85 94 e0 ff ff 	lea    -0x1f6c(%rbp),%rax
    fa41:	48 89 85 10 f5 ff ff 	mov    %rax,-0xaf0(%rbp)
    fa48:	48 8d 05 bd a4 01 00 	lea    0x1a4bd(%rip),%rax        # 29f0c <g_65>
    fa4f:	48 89 85 18 f5 ff ff 	mov    %rax,-0xae8(%rbp)
    fa56:	83 ad d4 e0 ff ff 01 	subl   $0x1,-0x1f2c(%rbp)
    fa5d:	48 c7 85 c0 e2 ff ff 	movq   $0x0,-0x1d40(%rbp)
    fa64:	00 00 00 00 
    fa68:	48 8b 05 49 89 01 00 	mov    0x18949(%rip),%rax        # 283b8 <g_264>
    fa6f:	48 8b 00             	mov    (%rax),%rax
    fa72:	48 8b 10             	mov    (%rax),%rdx
    fa75:	48 8b 05 34 89 01 00 	mov    0x18934(%rip),%rax        # 283b0 <g_265>
    fa7c:	48 8b 00             	mov    (%rax),%rax
    fa7f:	48 8b 12             	mov    (%rdx),%rdx
    fa82:	48 89 10             	mov    %rdx,(%rax)
    fa85:	48 8b 85 f0 e2 ff ff 	mov    -0x1d10(%rbp),%rax
    fa8c:	8b 00                	mov    (%rax),%eax
    fa8e:	85 c0                	test   %eax,%eax
    fa90:	0f 84 3b 03 00 00    	je     fdd1 <func_11+0x18b5>
    fa96:	e9 04 13 00 00       	jmpq   10d9f <func_11+0x2883>
    fa9b:	66 c7 85 82 e0 ff ff 	movw   $0x5e42,-0x1f7e(%rbp)
    faa2:	42 5e 
    faa4:	48 8d 85 f0 e6 ff ff 	lea    -0x1910(%rbp),%rax
    faab:	48 83 c0 10          	add    $0x10,%rax
    faaf:	48 89 85 c8 e2 ff ff 	mov    %rax,-0x1d38(%rbp)
    fab6:	c7 85 d8 e0 ff ff 01 	movl   $0x1,-0x1f28(%rbp)
    fabd:	00 00 00 
    fac0:	c7 85 dc e0 ff ff 9a 	movl   $0x49e5719a,-0x1f24(%rbp)
    fac7:	71 e5 49 
    faca:	48 8b 85 80 e1 ff ff 	mov    -0x1e80(%rbp),%rax
    fad1:	8b 00                	mov    (%rax),%eax
    fad3:	85 c0                	test   %eax,%eax
    fad5:	0f 84 b3 00 00 00    	je     fb8e <func_11+0x1672>
    fadb:	c7 85 e4 e0 ff ff 01 	movl   $0x1,-0x1f1c(%rbp)
    fae2:	00 00 00 
    fae5:	0f b6 9d 6c e0 ff ff 	movzbl -0x1f94(%rbp),%ebx
    faec:	0f b6 05 15 4b 01 00 	movzbl 0x14b15(%rip),%eax        # 24608 <g_975>
    faf3:	44 0f be e0          	movsbl %al,%r12d
    faf7:	48 8b 05 02 46 01 00 	mov    0x14602(%rip),%rax        # 24100 <g_251+0x10>
    fafe:	41 89 c5             	mov    %eax,%r13d
    fb01:	48 8b 85 20 e2 ff ff 	mov    -0x1de0(%rbp),%rax
    fb08:	66 c7 00 f9 ff       	movw   $0xfff9,(%rax)
    fb0d:	48 8b 85 20 e2 ff ff 	mov    -0x1de0(%rbp),%rax
    fb14:	0f b7 00             	movzwl (%rax),%eax
    fb17:	0f b7 c0             	movzwl %ax,%eax
    fb1a:	be f7 ff 00 00       	mov    $0xfff7,%esi
    fb1f:	89 c7                	mov    %eax,%edi
    fb21:	e8 68 b2 ff ff       	callq  ad8e <safe_div_func_uint16_t_u_u>
    fb26:	0a 85 6c e0 ff ff    	or     -0x1f94(%rbp),%al
    fb2c:	0f b6 c0             	movzbl %al,%eax
    fb2f:	44 89 ee             	mov    %r13d,%esi
    fb32:	89 c7                	mov    %eax,%edi
    fb34:	e8 13 b1 ff ff       	callq  ac4c <safe_lshift_func_uint8_t_u_u>
    fb39:	0f b6 c0             	movzbl %al,%eax
    fb3c:	be a7 92 ff ff       	mov    $0xffff92a7,%esi
    fb41:	89 c7                	mov    %eax,%edi
    fb43:	e8 ad a8 ff ff       	callq  a3f5 <safe_mul_func_int16_t_s_s>
    fb48:	0f be c0             	movsbl %al,%eax
    fb4b:	44 89 e6             	mov    %r12d,%esi
    fb4e:	89 c7                	mov    %eax,%edi
    fb50:	e8 17 a8 ff ff       	callq  a36c <safe_rshift_func_int8_t_s_u>
    fb55:	48 8b 85 98 e2 ff ff 	mov    -0x1d68(%rbp),%rax
    fb5c:	48 8b 00             	mov    (%rax),%rax
    fb5f:	48 8b 00             	mov    (%rax),%rax
    fb62:	48 8b 00             	mov    (%rax),%rax
    fb65:	48 39 85 a0 e1 ff ff 	cmp    %rax,-0x1e60(%rbp)
    fb6c:	0f 95 c0             	setne  %al
    fb6f:	0f b6 c0             	movzbl %al,%eax
    fb72:	89 de                	mov    %ebx,%esi
    fb74:	89 c7                	mov    %eax,%edi
    fb76:	e8 17 a9 ff ff       	callq  a492 <safe_lshift_func_int16_t_s_s>
    fb7b:	89 c2                	mov    %eax,%edx
    fb7d:	48 8b 05 14 88 01 00 	mov    0x18814(%rip),%rax        # 28398 <g_147>
    fb84:	0f bf d2             	movswl %dx,%edx
    fb87:	89 10                	mov    %edx,(%rax)
    fb89:	e9 17 01 00 00       	jmpq   fca5 <func_11+0x1789>
    fb8e:	c7 85 e0 e0 ff ff 00 	movl   $0x0,-0x1f20(%rbp)
    fb95:	00 00 00 
    fb98:	48 8b 85 58 e0 ff ff 	mov    -0x1fa8(%rbp),%rax
    fb9f:	0f b6 00             	movzbl (%rax),%eax
    fba2:	0f b6 d8             	movzbl %al,%ebx
    fba5:	0f b6 85 6c e0 ff ff 	movzbl -0x1f94(%rbp),%eax
    fbac:	be 01 00 00 00       	mov    $0x1,%esi
    fbb1:	89 c7                	mov    %eax,%edi
    fbb3:	e8 c0 af ff ff       	callq  ab78 <safe_sub_func_uint8_t_u_u>
    fbb8:	0f b7 85 82 e0 ff ff 	movzwl -0x1f7e(%rbp),%eax
    fbbf:	44 0f b7 e0          	movzwl %ax,%r12d
    fbc3:	8b 85 d4 e0 ff ff    	mov    -0x1f2c(%rbp),%eax
    fbc9:	44 0f b7 e8          	movzwl %ax,%r13d
    fbcd:	8b 05 35 a3 01 00    	mov    0x1a335(%rip),%eax        # 29f08 <g_36>
    fbd3:	85 c0                	test   %eax,%eax
    fbd5:	0f 94 c0             	sete   %al
    fbd8:	0f b6 c0             	movzbl %al,%eax
    fbdb:	8b 95 90 ec ff ff    	mov    -0x1370(%rbp),%edx
    fbe1:	89 c6                	mov    %eax,%esi
    fbe3:	89 d7                	mov    %edx,%edi
    fbe5:	e8 ce b2 ff ff       	callq  aeb8 <safe_add_func_uint32_t_u_u>
    fbea:	41 89 c6             	mov    %eax,%r14d
    fbed:	0f b6 95 6c e0 ff ff 	movzbl -0x1f94(%rbp),%edx
    fbf4:	0f b6 85 6c e0 ff ff 	movzbl -0x1f94(%rbp),%eax
    fbfb:	89 d6                	mov    %edx,%esi
    fbfd:	89 c7                	mov    %eax,%edi
    fbff:	e8 44 b2 ff ff       	callq  ae48 <safe_rshift_func_uint16_t_u_s>
    fc04:	0f b7 c0             	movzwl %ax,%eax
    fc07:	41 39 c6             	cmp    %eax,%r14d
    fc0a:	0f 95 c0             	setne  %al
    fc0d:	0f b6 c0             	movzbl %al,%eax
    fc10:	8b 95 e0 e0 ff ff    	mov    -0x1f20(%rbp),%edx
    fc16:	89 d6                	mov    %edx,%esi
    fc18:	89 c7                	mov    %eax,%edi
    fc1a:	e8 82 a6 ff ff       	callq  a2a1 <safe_lshift_func_int8_t_s_s>
    fc1f:	66 98                	cbtw   
    fc21:	0f b7 c0             	movzwl %ax,%eax
    fc24:	44 89 ee             	mov    %r13d,%esi
    fc27:	89 c7                	mov    %eax,%edi
    fc29:	e8 d1 b0 ff ff       	callq  acff <safe_add_func_uint16_t_u_u>
    fc2e:	0f b7 85 82 e0 ff ff 	movzwl -0x1f7e(%rbp),%eax
    fc35:	0f b7 c0             	movzwl %ax,%eax
    fc38:	44 89 e6             	mov    %r12d,%esi
    fc3b:	89 c7                	mov    %eax,%edi
    fc3d:	e8 1a b1 ff ff       	callq  ad5c <safe_mod_func_uint16_t_u_u>
    fc42:	0f b6 95 6c e0 ff ff 	movzbl -0x1f94(%rbp),%edx
    fc49:	66 39 d0             	cmp    %dx,%ax
    fc4c:	48 8b 05 7d 9c 01 00 	mov    0x19c7d(%rip),%rax        # 298d0 <g_2348>
    fc53:	48 89 85 e8 f1 ff ff 	mov    %rax,-0xe18(%rbp)
    fc5a:	89 de                	mov    %ebx,%esi
    fc5c:	bf 00 00 00 00       	mov    $0x0,%edi
    fc61:	e8 48 af ff ff       	callq  abae <safe_mod_func_uint8_t_u_u>
    fc66:	48 8b 95 88 e1 ff ff 	mov    -0x1e78(%rbp),%rdx
    fc6d:	8b 12                	mov    (%rdx),%edx
    fc6f:	0f b6 c0             	movzbl %al,%eax
    fc72:	09 c2                	or     %eax,%edx
    fc74:	48 8b 85 88 e1 ff ff 	mov    -0x1e78(%rbp),%rax
    fc7b:	89 10                	mov    %edx,(%rax)
    fc7d:	48 8b 05 14 87 01 00 	mov    0x18714(%rip),%rax        # 28398 <g_147>
    fc84:	8b 08                	mov    (%rax),%ecx
    fc86:	0f b6 95 6c e0 ff ff 	movzbl -0x1f94(%rbp),%edx
    fc8d:	48 8b 05 04 87 01 00 	mov    0x18704(%rip),%rax        # 28398 <g_147>
    fc94:	31 ca                	xor    %ecx,%edx
    fc96:	89 10                	mov    %edx,(%rax)
    fc98:	80 bd 6c e0 ff ff 00 	cmpb   $0x0,-0x1f94(%rbp)
    fc9f:	0f 85 f6 10 00 00    	jne    10d9b <func_11+0x287f>
    fca5:	c6 85 73 e0 ff ff 00 	movb   $0x0,-0x1f8d(%rbp)
    fcac:	eb 6d                	jmp    fd1b <func_11+0x17ff>
    fcae:	48 8d 85 30 ea ff ff 	lea    -0x15d0(%rbp),%rax
    fcb5:	48 83 c0 44          	add    $0x44,%rax
    fcb9:	48 89 85 d0 e2 ff ff 	mov    %rax,-0x1d30(%rbp)
    fcc0:	48 c7 85 00 f4 ff ff 	movq   $0x0,-0xc00(%rbp)
    fcc7:	00 00 00 00 
    fccb:	48 c7 85 08 f4 ff ff 	movq   $0x0,-0xbf8(%rbp)
    fcd2:	00 00 00 00 
    fcd6:	48 c7 85 10 f4 ff ff 	movq   $0x0,-0xbf0(%rbp)
    fcdd:	00 00 00 00 
    fce1:	48 c7 85 18 f4 ff ff 	movq   $0x0,-0xbe8(%rbp)
    fce8:	00 00 00 00 
    fcec:	0f b6 95 6c e0 ff ff 	movzbl -0x1f94(%rbp),%edx
    fcf3:	48 8b 85 88 e1 ff ff 	mov    -0x1e78(%rbp),%rax
    fcfa:	89 10                	mov    %edx,(%rax)
    fcfc:	8b 05 66 54 01 00    	mov    0x15466(%rip),%eax        # 25168 <g_2355>
    fd02:	83 c0 01             	add    $0x1,%eax
    fd05:	89 05 5d 54 01 00    	mov    %eax,0x1545d(%rip)        # 25168 <g_2355>
    fd0b:	0f b6 85 73 e0 ff ff 	movzbl -0x1f8d(%rbp),%eax
    fd12:	83 c0 01             	add    $0x1,%eax
    fd15:	88 85 73 e0 ff ff    	mov    %al,-0x1f8d(%rbp)
    fd1b:	0f b6 85 73 e0 ff ff 	movzbl -0x1f8d(%rbp),%eax
    fd22:	3c 02                	cmp    $0x2,%al
    fd24:	7e 88                	jle    fcae <func_11+0x1792>
    fd26:	e9 a6 00 00 00       	jmpq   fdd1 <func_11+0x18b5>
    fd2b:	48 8d 85 30 ea ff ff 	lea    -0x15d0(%rbp),%rax
    fd32:	48 83 c0 78          	add    $0x78,%rax
    fd36:	48 89 85 90 e2 ff ff 	mov    %rax,-0x1d70(%rbp)
    fd3d:	48 8d 85 00 f9 ff ff 	lea    -0x700(%rbp),%rax
    fd44:	48 8d 15 35 ee 00 00 	lea    0xee35(%rip),%rdx        # 1eb80 <g_3175+0x9dc>
    fd4b:	b9 28 00 00 00       	mov    $0x28,%ecx
    fd50:	48 89 c7             	mov    %rax,%rdi
    fd53:	48 89 d6             	mov    %rdx,%rsi
    fd56:	f3 48 a5             	rep movsq %ds:(%rsi),%es:(%rdi)
    fd59:	48 8d 05 4c 43 01 00 	lea    0x1434c(%rip),%rax        # 240ac <g_188>
    fd60:	48 89 85 00 f4 ff ff 	mov    %rax,-0xc00(%rbp)
    fd67:	48 8d 85 88 e0 ff ff 	lea    -0x1f78(%rbp),%rax
    fd6e:	48 89 85 08 f4 ff ff 	mov    %rax,-0xbf8(%rbp)
    fd75:	48 8d 05 30 43 01 00 	lea    0x14330(%rip),%rax        # 240ac <g_188>
    fd7c:	48 89 85 10 f4 ff ff 	mov    %rax,-0xbf0(%rbp)
    fd83:	48 8d 85 88 e0 ff ff 	lea    -0x1f78(%rbp),%rax
    fd8a:	48 89 85 18 f4 ff ff 	mov    %rax,-0xbe8(%rbp)
    fd91:	48 8d 05 14 43 01 00 	lea    0x14314(%rip),%rax        # 240ac <g_188>
    fd98:	48 89 85 20 f4 ff ff 	mov    %rax,-0xbe0(%rbp)
    fd9f:	66 c7 85 80 e0 ff ff 	movw   $0xf0e9,-0x1f80(%rbp)
    fda6:	e9 f0 
    fda8:	66 83 ad 80 e0 ff ff 	subw   $0x1,-0x1f80(%rbp)
    fdaf:	01 
    fdb0:	80 bd 6c e0 ff ff 00 	cmpb   $0x0,-0x1f94(%rbp)
    fdb7:	0f 85 a7 0f 00 00    	jne    10d64 <func_11+0x2848>
    fdbd:	48 8b 15 24 87 01 00 	mov    0x18724(%rip),%rdx        # 284e8 <g_881>
    fdc4:	48 8b 05 1d 87 01 00 	mov    0x1871d(%rip),%rax        # 284e8 <g_881>
    fdcb:	48 8b 12             	mov    (%rdx),%rdx
    fdce:	48 89 10             	mov    %rdx,(%rax)
    fdd1:	0f b6 85 6b e6 ff ff 	movzbl -0x1995(%rbp),%eax
    fdd8:	84 c0                	test   %al,%al
    fdda:	0f 85 87 0f 00 00    	jne    10d67 <func_11+0x284b>
    fde0:	48 8b 85 28 e2 ff ff 	mov    -0x1dd8(%rbp),%rax
    fde7:	0f b7 10             	movzwl (%rax),%edx
    fdea:	48 8b 85 28 e2 ff ff 	mov    -0x1dd8(%rbp),%rax
    fdf1:	66 89 10             	mov    %dx,(%rax)
    fdf4:	48 8b 85 28 e2 ff ff 	mov    -0x1dd8(%rbp),%rax
    fdfb:	0f b7 00             	movzwl (%rax),%eax
    fdfe:	0f b7 d0             	movzwl %ax,%edx
    fe01:	48 8b 85 78 e2 ff ff 	mov    -0x1d88(%rbp),%rax
    fe08:	48 89 05 d1 9a 01 00 	mov    %rax,0x19ad1(%rip)        # 298e0 <g_2368>
    fe0f:	48 8b 0d ca 9a 01 00 	mov    0x19aca(%rip),%rcx        # 298e0 <g_2368>
    fe16:	48 8b 85 28 e5 ff ff 	mov    -0x1ad8(%rbp),%rax
    fe1d:	48 39 c1             	cmp    %rax,%rcx
    fe20:	0f 95 c0             	setne  %al
    fe23:	0f b6 c0             	movzbl %al,%eax
    fe26:	89 d6                	mov    %edx,%esi
    fe28:	89 c7                	mov    %eax,%edi
    fe2a:	e8 d0 ae ff ff       	callq  acff <safe_add_func_uint16_t_u_u>
    fe2f:	0f b6 95 6c e0 ff ff 	movzbl -0x1f94(%rbp),%edx
    fe36:	48 8b 85 80 e1 ff ff 	mov    -0x1e80(%rbp),%rax
    fe3d:	c7 00 c6 79 00 00    	movl   $0x79c6,(%rax)
    fe43:	48 8b 85 60 e0 ff ff 	mov    -0x1fa0(%rbp),%rax
    fe4a:	0f b7 00             	movzwl (%rax),%eax
    fe4d:	66 3d c5 79          	cmp    $0x79c5,%ax
    fe51:	0f 97 c0             	seta   %al
    fe54:	0f b6 c0             	movzbl %al,%eax
    fe57:	48 89 d6             	mov    %rdx,%rsi
    fe5a:	48 89 c7             	mov    %rax,%rdi
    fe5d:	e8 1e b2 ff ff       	callq  b080 <safe_mod_func_uint64_t_u_u>
    fe62:	80 bd 6c e0 ff ff 00 	cmpb   $0x0,-0x1f94(%rbp)
    fe69:	0f 84 1c 0a 00 00    	je     1088b <func_11+0x236f>
    fe6f:	48 c7 85 90 e1 ff ff 	movq   $0xffffffffffffffff,-0x1e70(%rbp)
    fe76:	ff ff ff ff 
    fe7a:	48 8d 05 bf 48 01 00 	lea    0x148bf(%rip),%rax        # 24740 <g_1320>
    fe81:	48 89 85 28 e3 ff ff 	mov    %rax,-0x1cd8(%rbp)
    fe88:	48 8d 05 11 9a 01 00 	lea    0x19a11(%rip),%rax        # 298a0 <g_2099>
    fe8f:	48 89 85 30 e3 ff ff 	mov    %rax,-0x1cd0(%rbp)
    fe96:	c7 85 ec e0 ff ff 36 	movl   $0x1c6e0036,-0x1f14(%rbp)
    fe9d:	00 6e 1c 
    fea0:	8b 05 ea a1 01 00    	mov    0x1a1ea(%rip),%eax        # 2a090 <g_2377>
    fea6:	83 c0 01             	add    $0x1,%eax
    fea9:	89 05 e1 a1 01 00    	mov    %eax,0x1a1e1(%rip)        # 2a090 <g_2377>
    feaf:	66 c7 05 80 41 01 00 	movw   $0xa,0x14180(%rip)        # 24038 <g_42>
    feb6:	0a 00 
    feb8:	e9 8b 09 00 00       	jmpq   10848 <func_11+0x232c>
    febd:	c7 85 f0 e6 ff ff 03 	movl   $0x27a4d703,-0x1910(%rbp)
    fec4:	d7 a4 27 
    fec7:	c7 85 f4 e6 ff ff 03 	movl   $0x27a4d703,-0x190c(%rbp)
    fece:	d7 a4 27 
    fed1:	c7 85 f8 e6 ff ff 03 	movl   $0x27a4d703,-0x1908(%rbp)
    fed8:	d7 a4 27 
    fedb:	c7 85 fc e6 ff ff 03 	movl   $0x27a4d703,-0x1904(%rbp)
    fee2:	d7 a4 27 
    fee5:	c7 85 00 e7 ff ff 03 	movl   $0x27a4d703,-0x1900(%rbp)
    feec:	d7 a4 27 
    feef:	c7 85 04 e7 ff ff 03 	movl   $0x27a4d703,-0x18fc(%rbp)
    fef6:	d7 a4 27 
    fef9:	c7 85 08 e7 ff ff 03 	movl   $0x27a4d703,-0x18f8(%rbp)
    ff00:	d7 a4 27 
    ff03:	c7 85 0c e7 ff ff 03 	movl   $0x27a4d703,-0x18f4(%rbp)
    ff0a:	d7 a4 27 
    ff0d:	c7 85 10 e7 ff ff 03 	movl   $0x27a4d703,-0x18f0(%rbp)
    ff14:	d7 a4 27 
    ff17:	c7 85 14 e7 ff ff 03 	movl   $0x27a4d703,-0x18ec(%rbp)
    ff1e:	d7 a4 27 
    ff21:	c7 85 70 e1 ff ff 22 	movl   $0x4df64522,-0x1e90(%rbp)
    ff28:	45 f6 4d 
    ff2b:	48 8d 05 68 41 01 00 	lea    0x14168(%rip),%rax        # 2409a <g_98>
    ff32:	48 89 85 98 e1 ff ff 	mov    %rax,-0x1e68(%rbp)
    ff39:	48 8d 05 98 84 01 00 	lea    0x18498(%rip),%rax        # 283d8 <g_400>
    ff40:	48 89 85 78 e1 ff ff 	mov    %rax,-0x1e88(%rbp)
    ff47:	48 8d 85 78 e1 ff ff 	lea    -0x1e88(%rbp),%rax
    ff4e:	48 89 85 38 e3 ff ff 	mov    %rax,-0x1cc8(%rbp)
    ff55:	c7 85 f0 e0 ff ff 23 	movl   $0x5b448b23,-0x1f10(%rbp)
    ff5c:	8b 44 5b 
    ff5f:	48 b8 b8 bf 87 df 89 	movabs $0xdf3a0989df87bfb8,%rax
    ff66:	09 3a df 
    ff69:	48 89 85 40 e3 ff ff 	mov    %rax,-0x1cc0(%rbp)
    ff70:	c7 05 02 42 01 00 06 	movl   $0x6,0x14202(%rip)        # 2417c <g_322>
    ff77:	00 00 00 
    ff7a:	e9 07 05 00 00       	jmpq   10486 <func_11+0x1f6a>
    ff7f:	48 c7 85 48 e3 ff ff 	movq   $0x0,-0x1cb8(%rbp)
    ff86:	00 00 00 00 
    ff8a:	48 8d 85 50 eb ff ff 	lea    -0x14b0(%rbp),%rax
    ff91:	48 05 a0 01 00 00    	add    $0x1a0,%rax
    ff97:	48 89 85 50 e3 ff ff 	mov    %rax,-0x1cb0(%rbp)
    ff9e:	48 8d 85 50 eb ff ff 	lea    -0x14b0(%rbp),%rax
    ffa5:	48 05 a0 01 00 00    	add    $0x1a0,%rax
    ffab:	48 89 85 58 e3 ff ff 	mov    %rax,-0x1ca8(%rbp)
    ffb2:	48 8d 85 50 eb ff ff 	lea    -0x14b0(%rbp),%rax
    ffb9:	48 05 3c 02 00 00    	add    $0x23c,%rax
    ffbf:	48 89 85 00 f9 ff ff 	mov    %rax,-0x700(%rbp)
    ffc6:	48 8d 05 4b 45 01 00 	lea    0x1454b(%rip),%rax        # 24518 <g_849>
    ffcd:	48 89 85 08 f9 ff ff 	mov    %rax,-0x6f8(%rbp)
    ffd4:	48 8d 85 30 ea ff ff 	lea    -0x15d0(%rbp),%rax
    ffdb:	48 05 18 01 00 00    	add    $0x118,%rax
    ffe1:	48 89 85 10 f9 ff ff 	mov    %rax,-0x6f0(%rbp)
    ffe8:	48 8d 85 70 e4 ff ff 	lea    -0x1b90(%rbp),%rax
    ffef:	48 89 85 18 f9 ff ff 	mov    %rax,-0x6e8(%rbp)
    fff6:	48 c7 85 20 f9 ff ff 	movq   $0x0,-0x6e0(%rbp)
    fffd:	00 00 00 00 
   10001:	48 8d 85 30 ea ff ff 	lea    -0x15d0(%rbp),%rax
   10008:	48 05 18 01 00 00    	add    $0x118,%rax
   1000e:	48 89 85 28 f9 ff ff 	mov    %rax,-0x6d8(%rbp)
   10015:	48 8d 05 5c 41 01 00 	lea    0x1415c(%rip),%rax        # 24178 <g_305>
   1001c:	48 89 85 30 f9 ff ff 	mov    %rax,-0x6d0(%rbp)
   10023:	48 8d 05 ee 44 01 00 	lea    0x144ee(%rip),%rax        # 24518 <g_849>
   1002a:	48 89 85 38 f9 ff ff 	mov    %rax,-0x6c8(%rbp)
   10031:	48 8d 05 40 41 01 00 	lea    0x14140(%rip),%rax        # 24178 <g_305>
   10038:	48 89 85 40 f9 ff ff 	mov    %rax,-0x6c0(%rbp)
   1003f:	48 8d 85 30 ea ff ff 	lea    -0x15d0(%rbp),%rax
   10046:	48 05 18 01 00 00    	add    $0x118,%rax
   1004c:	48 89 85 48 f9 ff ff 	mov    %rax,-0x6b8(%rbp)
   10053:	48 c7 85 50 f9 ff ff 	movq   $0x0,-0x6b0(%rbp)
   1005a:	00 00 00 00 
   1005e:	48 8d 85 70 e4 ff ff 	lea    -0x1b90(%rbp),%rax
   10065:	48 89 85 58 f9 ff ff 	mov    %rax,-0x6a8(%rbp)
   1006c:	48 8d 85 30 ea ff ff 	lea    -0x15d0(%rbp),%rax
   10073:	48 05 18 01 00 00    	add    $0x118,%rax
   10079:	48 89 85 60 f9 ff ff 	mov    %rax,-0x6a0(%rbp)
   10080:	48 8d 05 91 44 01 00 	lea    0x14491(%rip),%rax        # 24518 <g_849>
   10087:	48 89 85 68 f9 ff ff 	mov    %rax,-0x698(%rbp)
   1008e:	48 8d 85 50 eb ff ff 	lea    -0x14b0(%rbp),%rax
   10095:	48 05 3c 02 00 00    	add    $0x23c,%rax
   1009b:	48 89 85 70 f9 ff ff 	mov    %rax,-0x690(%rbp)
   100a2:	48 8d 85 30 ea ff ff 	lea    -0x15d0(%rbp),%rax
   100a9:	48 05 18 01 00 00    	add    $0x118,%rax
   100af:	48 89 85 78 f9 ff ff 	mov    %rax,-0x688(%rbp)
   100b6:	48 8d 05 5b 44 01 00 	lea    0x1445b(%rip),%rax        # 24518 <g_849>
   100bd:	48 89 85 80 f9 ff ff 	mov    %rax,-0x680(%rbp)
   100c4:	48 8d 05 ad 40 01 00 	lea    0x140ad(%rip),%rax        # 24178 <g_305>
   100cb:	48 89 85 88 f9 ff ff 	mov    %rax,-0x678(%rbp)
   100d2:	48 8d 05 9f 40 01 00 	lea    0x1409f(%rip),%rax        # 24178 <g_305>
   100d9:	48 89 85 90 f9 ff ff 	mov    %rax,-0x670(%rbp)
   100e0:	48 8d 85 8c e0 ff ff 	lea    -0x1f74(%rbp),%rax
   100e7:	48 89 85 98 f9 ff ff 	mov    %rax,-0x668(%rbp)
   100ee:	48 8d 85 50 eb ff ff 	lea    -0x14b0(%rbp),%rax
   100f5:	48 05 3c 02 00 00    	add    $0x23c,%rax
   100fb:	48 89 85 a0 f9 ff ff 	mov    %rax,-0x660(%rbp)
   10102:	48 8d 85 70 e4 ff ff 	lea    -0x1b90(%rbp),%rax
   10109:	48 89 85 a8 f9 ff ff 	mov    %rax,-0x658(%rbp)
   10110:	48 8d 85 8c e0 ff ff 	lea    -0x1f74(%rbp),%rax
   10117:	48 89 85 b0 f9 ff ff 	mov    %rax,-0x650(%rbp)
   1011e:	48 8d 85 70 e4 ff ff 	lea    -0x1b90(%rbp),%rax
   10125:	48 89 85 b8 f9 ff ff 	mov    %rax,-0x648(%rbp)
   1012c:	48 8d 85 50 eb ff ff 	lea    -0x14b0(%rbp),%rax
   10133:	48 05 3c 02 00 00    	add    $0x23c,%rax
   10139:	48 89 85 c0 f9 ff ff 	mov    %rax,-0x640(%rbp)
   10140:	48 8d 85 8c e0 ff ff 	lea    -0x1f74(%rbp),%rax
   10147:	48 89 85 c8 f9 ff ff 	mov    %rax,-0x638(%rbp)
   1014e:	48 8d 05 23 40 01 00 	lea    0x14023(%rip),%rax        # 24178 <g_305>
   10155:	48 89 85 d0 f9 ff ff 	mov    %rax,-0x630(%rbp)
   1015c:	48 8d 05 15 40 01 00 	lea    0x14015(%rip),%rax        # 24178 <g_305>
   10163:	48 89 85 d8 f9 ff ff 	mov    %rax,-0x628(%rbp)
   1016a:	48 8d 05 a7 43 01 00 	lea    0x143a7(%rip),%rax        # 24518 <g_849>
   10171:	48 89 85 e0 f9 ff ff 	mov    %rax,-0x620(%rbp)
   10178:	48 8d 85 30 ea ff ff 	lea    -0x15d0(%rbp),%rax
   1017f:	48 05 18 01 00 00    	add    $0x118,%rax
   10185:	48 89 85 e8 f9 ff ff 	mov    %rax,-0x618(%rbp)
   1018c:	48 8d 85 50 eb ff ff 	lea    -0x14b0(%rbp),%rax
   10193:	48 05 3c 02 00 00    	add    $0x23c,%rax
   10199:	48 89 85 f0 f9 ff ff 	mov    %rax,-0x610(%rbp)
   101a0:	48 8d 05 71 43 01 00 	lea    0x14371(%rip),%rax        # 24518 <g_849>
   101a7:	48 89 85 f8 f9 ff ff 	mov    %rax,-0x608(%rbp)
   101ae:	48 8d 85 30 ea ff ff 	lea    -0x15d0(%rbp),%rax
   101b5:	48 05 18 01 00 00    	add    $0x118,%rax
   101bb:	48 89 85 00 fa ff ff 	mov    %rax,-0x600(%rbp)
   101c2:	48 8d 85 70 e4 ff ff 	lea    -0x1b90(%rbp),%rax
   101c9:	48 89 85 08 fa ff ff 	mov    %rax,-0x5f8(%rbp)
   101d0:	48 c7 85 10 fa ff ff 	movq   $0x0,-0x5f0(%rbp)
   101d7:	00 00 00 00 
   101db:	48 8d 85 30 ea ff ff 	lea    -0x15d0(%rbp),%rax
   101e2:	48 05 18 01 00 00    	add    $0x118,%rax
   101e8:	48 89 85 18 fa ff ff 	mov    %rax,-0x5e8(%rbp)
   101ef:	48 8d 05 82 3f 01 00 	lea    0x13f82(%rip),%rax        # 24178 <g_305>
   101f6:	48 89 85 20 fa ff ff 	mov    %rax,-0x5e0(%rbp)
   101fd:	48 8d 05 14 43 01 00 	lea    0x14314(%rip),%rax        # 24518 <g_849>
   10204:	48 89 85 28 fa ff ff 	mov    %rax,-0x5d8(%rbp)
   1020b:	48 8d 05 66 3f 01 00 	lea    0x13f66(%rip),%rax        # 24178 <g_305>
   10212:	48 89 85 30 fa ff ff 	mov    %rax,-0x5d0(%rbp)
   10219:	48 8d 85 30 ea ff ff 	lea    -0x15d0(%rbp),%rax
   10220:	48 05 18 01 00 00    	add    $0x118,%rax
   10226:	48 89 85 38 fa ff ff 	mov    %rax,-0x5c8(%rbp)
   1022d:	48 c7 85 40 fa ff ff 	movq   $0x0,-0x5c0(%rbp)
   10234:	00 00 00 00 
   10238:	48 8d 85 70 e4 ff ff 	lea    -0x1b90(%rbp),%rax
   1023f:	48 89 85 48 fa ff ff 	mov    %rax,-0x5b8(%rbp)
   10246:	48 8d 85 30 ea ff ff 	lea    -0x15d0(%rbp),%rax
   1024d:	48 05 18 01 00 00    	add    $0x118,%rax
   10253:	48 89 85 50 fa ff ff 	mov    %rax,-0x5b0(%rbp)
   1025a:	48 8d 05 b7 42 01 00 	lea    0x142b7(%rip),%rax        # 24518 <g_849>
   10261:	48 89 85 58 fa ff ff 	mov    %rax,-0x5a8(%rbp)
   10268:	48 8d 85 50 eb ff ff 	lea    -0x14b0(%rbp),%rax
   1026f:	48 05 3c 02 00 00    	add    $0x23c,%rax
   10275:	48 89 85 60 fa ff ff 	mov    %rax,-0x5a0(%rbp)
   1027c:	48 8d 85 30 ea ff ff 	lea    -0x15d0(%rbp),%rax
   10283:	48 05 18 01 00 00    	add    $0x118,%rax
   10289:	48 89 85 68 fa ff ff 	mov    %rax,-0x598(%rbp)
   10290:	48 8d 05 81 42 01 00 	lea    0x14281(%rip),%rax        # 24518 <g_849>
   10297:	48 89 85 70 fa ff ff 	mov    %rax,-0x590(%rbp)
   1029e:	48 8d 05 d3 3e 01 00 	lea    0x13ed3(%rip),%rax        # 24178 <g_305>
   102a5:	48 89 85 78 fa ff ff 	mov    %rax,-0x588(%rbp)
   102ac:	48 8d 85 18 e1 ff ff 	lea    -0x1ee8(%rbp),%rax
   102b3:	48 89 85 60 e3 ff ff 	mov    %rax,-0x1ca0(%rbp)
   102ba:	48 8d 05 4f 9c 01 00 	lea    0x19c4f(%rip),%rax        # 29f10 <g_144>
   102c1:	48 89 85 00 f4 ff ff 	mov    %rax,-0xc00(%rbp)
   102c8:	48 8d 85 78 e0 ff ff 	lea    -0x1f88(%rbp),%rax
   102cf:	48 89 85 08 f4 ff ff 	mov    %rax,-0xbf8(%rbp)
   102d6:	48 8d 85 78 e0 ff ff 	lea    -0x1f88(%rbp),%rax
   102dd:	48 89 85 10 f4 ff ff 	mov    %rax,-0xbf0(%rbp)
   102e4:	48 8d 05 25 9c 01 00 	lea    0x19c25(%rip),%rax        # 29f10 <g_144>
   102eb:	48 89 85 18 f4 ff ff 	mov    %rax,-0xbe8(%rbp)
   102f2:	48 8d 85 78 e0 ff ff 	lea    -0x1f88(%rbp),%rax
   102f9:	48 89 85 20 f4 ff ff 	mov    %rax,-0xbe0(%rbp)
   10300:	48 8d 85 78 e0 ff ff 	lea    -0x1f88(%rbp),%rax
   10307:	48 89 85 28 f4 ff ff 	mov    %rax,-0xbd8(%rbp)
   1030e:	48 8d 05 fb 9b 01 00 	lea    0x19bfb(%rip),%rax        # 29f10 <g_144>
   10315:	48 89 85 30 f4 ff ff 	mov    %rax,-0xbd0(%rbp)
   1031c:	48 8d 85 78 e0 ff ff 	lea    -0x1f88(%rbp),%rax
   10323:	48 89 85 38 f4 ff ff 	mov    %rax,-0xbc8(%rbp)
   1032a:	48 8d 05 67 3d 01 00 	lea    0x13d67(%rip),%rax        # 24098 <g_96>
   10331:	48 89 85 40 f4 ff ff 	mov    %rax,-0xbc0(%rbp)
   10338:	48 8d 85 78 e0 ff ff 	lea    -0x1f88(%rbp),%rax
   1033f:	48 89 85 48 f4 ff ff 	mov    %rax,-0xbb8(%rbp)
   10346:	48 8d 85 78 e0 ff ff 	lea    -0x1f88(%rbp),%rax
   1034d:	48 89 85 50 f4 ff ff 	mov    %rax,-0xbb0(%rbp)
   10354:	48 8d 05 3d 3d 01 00 	lea    0x13d3d(%rip),%rax        # 24098 <g_96>
   1035b:	48 89 85 58 f4 ff ff 	mov    %rax,-0xba8(%rbp)
   10362:	48 8d 85 78 e0 ff ff 	lea    -0x1f88(%rbp),%rax
   10369:	48 89 85 60 f4 ff ff 	mov    %rax,-0xba0(%rbp)
   10370:	48 8d 85 78 e0 ff ff 	lea    -0x1f88(%rbp),%rax
   10377:	48 89 85 68 f4 ff ff 	mov    %rax,-0xb98(%rbp)
   1037e:	0f b7 05 eb 4d 01 00 	movzwl 0x14deb(%rip),%eax        # 25170 <g_2390>
   10385:	83 e8 01             	sub    $0x1,%eax
   10388:	66 89 05 e1 4d 01 00 	mov    %ax,0x14de1(%rip)        # 25170 <g_2390>
   1038f:	48 8b 05 6a 80 01 00 	mov    0x1806a(%rip),%rax        # 28400 <g_610>
   10396:	8b 00                	mov    (%rax),%eax
   10398:	85 c0                	test   %eax,%eax
   1039a:	0f 85 f7 00 00 00    	jne    10497 <func_11+0x1f7b>
   103a0:	48 83 85 90 e1 ff ff 	addq   $0x1,-0x1e70(%rbp)
   103a7:	01 
   103a8:	0f b6 85 6c e0 ff ff 	movzbl -0x1f94(%rbp),%eax
   103af:	0f be d8             	movsbl %al,%ebx
   103b2:	48 8b 95 18 e1 ff ff 	mov    -0x1ee8(%rbp),%rdx
   103b9:	48 8b 85 60 e3 ff ff 	mov    -0x1ca0(%rbp),%rax
   103c0:	48 89 10             	mov    %rdx,(%rax)
   103c3:	48 8b 85 60 e3 ff ff 	mov    -0x1ca0(%rbp),%rax
   103ca:	48 8b 00             	mov    (%rax),%rax
   103cd:	48 85 c0             	test   %rax,%rax
   103d0:	0f 95 c0             	setne  %al
   103d3:	0f b6 d0             	movzbl %al,%edx
   103d6:	8b 85 10 e7 ff ff    	mov    -0x18f0(%rbp),%eax
   103dc:	39 c2                	cmp    %eax,%edx
   103de:	0f 9c c0             	setl   %al
   103e1:	0f b6 d0             	movzbl %al,%edx
   103e4:	48 8b 85 10 e1 ff ff 	mov    -0x1ef0(%rbp),%rax
   103eb:	48 39 85 28 e3 ff ff 	cmp    %rax,-0x1cd8(%rbp)
   103f2:	0f 95 c0             	setne  %al
   103f5:	0f b6 c8             	movzbl %al,%ecx
   103f8:	0f b7 05 9b 3c 01 00 	movzwl 0x13c9b(%rip),%eax        # 2409a <g_98>
   103ff:	09 c8                	or     %ecx,%eax
   10401:	0f b7 c0             	movzwl %ax,%eax
   10404:	89 d6                	mov    %edx,%esi
   10406:	89 c7                	mov    %eax,%edi
   10408:	e8 30 a9 ff ff       	callq  ad3d <safe_mul_func_uint16_t_u_u>
   1040d:	48 8b 85 68 f4 ff ff 	mov    -0xb98(%rbp),%rax
   10414:	48 89 85 98 e1 ff ff 	mov    %rax,-0x1e68(%rbp)
   1041b:	48 8b 85 98 e1 ff ff 	mov    -0x1e68(%rbp),%rax
   10422:	48 3b 85 60 e0 ff ff 	cmp    -0x1fa0(%rbp),%rax
   10429:	0f 95 c0             	setne  %al
   1042c:	0f b6 c0             	movzbl %al,%eax
   1042f:	89 de                	mov    %ebx,%esi
   10431:	89 c7                	mov    %eax,%edi
   10433:	e8 f9 9d ff ff       	callq  a231 <safe_mod_func_int8_t_s_s>
   10438:	48 8b 95 58 e3 ff ff 	mov    -0x1ca8(%rbp),%rdx
   1043f:	8b 12                	mov    (%rdx),%edx
   10441:	0f be c0             	movsbl %al,%eax
   10444:	31 c2                	xor    %eax,%edx
   10446:	48 8b 85 58 e3 ff ff 	mov    -0x1ca8(%rbp),%rax
   1044d:	89 10                	mov    %edx,(%rax)
   1044f:	48 8b 85 58 e3 ff ff 	mov    -0x1ca8(%rbp),%rax
   10456:	8b 10                	mov    (%rax),%edx
   10458:	48 8b 85 88 e1 ff ff 	mov    -0x1e78(%rbp),%rax
   1045f:	8b 00                	mov    (%rax),%eax
   10461:	31 c2                	xor    %eax,%edx
   10463:	48 8b 85 88 e1 ff ff 	mov    -0x1e78(%rbp),%rax
   1046a:	89 10                	mov    %edx,(%rax)
   1046c:	8b 05 0a 3d 01 00    	mov    0x13d0a(%rip),%eax        # 2417c <g_322>
   10472:	98                   	cwtl   
   10473:	be 04 00 00 00       	mov    $0x4,%esi
   10478:	89 c7                	mov    %eax,%edi
   1047a:	e8 34 9f ff ff       	callq  a3b3 <safe_add_func_int16_t_s_s>
   1047f:	98                   	cwtl   
   10480:	89 05 f6 3c 01 00    	mov    %eax,0x13cf6(%rip)        # 2417c <g_322>
   10486:	8b 05 f0 3c 01 00    	mov    0x13cf0(%rip),%eax        # 2417c <g_322>
   1048c:	83 f8 27             	cmp    $0x27,%eax
   1048f:	0f 84 ea fa ff ff    	je     ff7f <func_11+0x1a63>
   10495:	eb 01                	jmp    10498 <func_11+0x1f7c>
   10497:	90                   	nop
   10498:	0f b6 85 6c e0 ff ff 	movzbl -0x1f94(%rbp),%eax
   1049f:	89 85 88 e0 ff ff    	mov    %eax,-0x1f78(%rbp)
   104a5:	48 8b 85 58 e0 ff ff 	mov    -0x1fa8(%rbp),%rax
   104ac:	0f b6 00             	movzbl (%rax),%eax
   104af:	0f be d8             	movsbl %al,%ebx
   104b2:	0f b6 85 6c e0 ff ff 	movzbl -0x1f94(%rbp),%eax
   104b9:	89 05 f1 48 01 00    	mov    %eax,0x148f1(%rip)        # 24db0 <g_1931>
   104bf:	8b 05 eb 48 01 00    	mov    0x148eb(%rip),%eax        # 24db0 <g_1931>
   104c5:	09 85 9c e0 ff ff    	or     %eax,-0x1f64(%rbp)
   104cb:	8b 85 9c e0 ff ff    	mov    -0x1f64(%rbp),%eax
   104d1:	89 05 31 9a 01 00    	mov    %eax,0x19a31(%rip)        # 29f08 <g_36>
   104d7:	8b 85 70 e1 ff ff    	mov    -0x1e90(%rbp),%eax
   104dd:	0f b6 d0             	movzbl %al,%edx
   104e0:	0f b7 05 b3 3b 01 00 	movzwl 0x13bb3(%rip),%eax        # 2409a <g_98>
   104e7:	0f b6 c0             	movzbl %al,%eax
   104ea:	89 d6                	mov    %edx,%esi
   104ec:	89 c7                	mov    %eax,%edi
   104ee:	e8 a0 a6 ff ff       	callq  ab93 <safe_mul_func_uint8_t_u_u>
   104f3:	0f b6 c0             	movzbl %al,%eax
   104f6:	be 05 00 00 00       	mov    $0x5,%esi
   104fb:	89 c7                	mov    %eax,%edi
   104fd:	e8 bc a8 ff ff       	callq  adbe <safe_lshift_func_uint16_t_u_s>
   10502:	0f b6 c0             	movzbl %al,%eax
   10505:	89 de                	mov    %ebx,%esi
   10507:	89 c7                	mov    %eax,%edi
   10509:	e8 f7 a6 ff ff       	callq  ac05 <safe_lshift_func_uint8_t_u_s>
   1050e:	0f b6 d0             	movzbl %al,%edx
   10511:	8b 85 70 e1 ff ff    	mov    -0x1e90(%rbp),%eax
   10517:	0f b7 c0             	movzwl %ax,%eax
   1051a:	89 d6                	mov    %edx,%esi
   1051c:	89 c7                	mov    %eax,%edi
   1051e:	e8 6b a8 ff ff       	callq  ad8e <safe_div_func_uint16_t_u_u>
   10523:	48 8b 95 90 e1 ff ff 	mov    -0x1e70(%rbp),%rdx
   1052a:	89 d1                	mov    %edx,%ecx
   1052c:	48 8b 95 38 e2 ff ff 	mov    -0x1dc8(%rbp),%rdx
   10533:	88 0a                	mov    %cl,(%rdx)
   10535:	48 8b 95 88 e1 ff ff 	mov    -0x1e78(%rbp),%rdx
   1053c:	8b 12                	mov    (%rdx),%edx
   1053e:	0f b7 c0             	movzwl %ax,%eax
   10541:	21 c2                	and    %eax,%edx
   10543:	48 8b 85 88 e1 ff ff 	mov    -0x1e78(%rbp),%rax
   1054a:	89 10                	mov    %edx,(%rax)
   1054c:	48 8b 85 88 e1 ff ff 	mov    -0x1e78(%rbp),%rax
   10553:	8b 10                	mov    (%rax),%edx
   10555:	0f b6 85 6c e0 ff ff 	movzbl -0x1f94(%rbp),%eax
   1055c:	39 c2                	cmp    %eax,%edx
   1055e:	8b 85 00 e7 ff ff    	mov    -0x1900(%rbp),%eax
   10564:	85 c0                	test   %eax,%eax
   10566:	0f 88 53 01 00 00    	js     106bf <func_11+0x21a3>
   1056c:	48 8d 05 0d 9b 01 00 	lea    0x19b0d(%rip),%rax        # 2a080 <g_2163>
   10573:	48 89 85 70 e3 ff ff 	mov    %rax,-0x1c90(%rbp)
   1057a:	c7 85 f4 e0 ff ff 01 	movl   $0x1,-0x1f0c(%rbp)
   10581:	00 00 00 
   10584:	48 8b 05 65 93 01 00 	mov    0x19365(%rip),%rax        # 298f0 <g_2417>
   1058b:	48 85 c0             	test   %rax,%rax
   1058e:	75 08                	jne    10598 <func_11+0x207c>
   10590:	48 83 bd 38 e3 ff ff 	cmpq   $0x0,-0x1cc8(%rbp)
   10597:	00 
   10598:	48 8b 15 e1 9a 01 00 	mov    0x19ae1(%rip),%rdx        # 2a080 <g_2163>
   1059f:	48 8b 85 70 e3 ff ff 	mov    -0x1c90(%rbp),%rax
   105a6:	48 89 10             	mov    %rdx,(%rax)
   105a9:	48 8b 85 70 e3 ff ff 	mov    -0x1c90(%rbp),%rax
   105b0:	48 8b 00             	mov    (%rax),%rax
   105b3:	48 85 c0             	test   %rax,%rax
   105b6:	0f 94 c0             	sete   %al
   105b9:	0f b6 d0             	movzbl %al,%edx
   105bc:	8b 85 10 e7 ff ff    	mov    -0x18f0(%rbp),%eax
   105c2:	98                   	cwtl   
   105c3:	89 d6                	mov    %edx,%esi
   105c5:	89 c7                	mov    %eax,%edi
   105c7:	e8 c6 9e ff ff       	callq  a492 <safe_lshift_func_int16_t_s_s>
   105cc:	48 8b 85 88 e1 ff ff 	mov    -0x1e78(%rbp),%rax
   105d3:	8b 10                	mov    (%rax),%edx
   105d5:	48 8b 85 80 e1 ff ff 	mov    -0x1e80(%rbp),%rax
   105dc:	8b 00                	mov    (%rax),%eax
   105de:	09 c2                	or     %eax,%edx
   105e0:	48 8b 85 80 e1 ff ff 	mov    -0x1e80(%rbp),%rax
   105e7:	89 10                	mov    %edx,(%rax)
   105e9:	0f b7 05 48 3a 01 00 	movzwl 0x13a48(%rip),%eax        # 24038 <g_42>
   105f0:	0f b7 d8             	movzwl %ax,%ebx
   105f3:	48 8b 05 06 7f 01 00 	mov    0x17f06(%rip),%rax        # 28500 <g_896>
   105fa:	48 8b 00             	mov    (%rax),%rax
   105fd:	8b 00                	mov    (%rax),%eax
   105ff:	48 8b 05 da 7d 01 00 	mov    0x17dda(%rip),%rax        # 283e0 <g_421>
   10606:	0f b7 00             	movzwl (%rax),%eax
   10609:	0f b7 d0             	movzwl %ax,%edx
   1060c:	8b 85 f4 e0 ff ff    	mov    -0x1f0c(%rbp),%eax
   10612:	48 98                	cltq   
   10614:	48 89 05 7d 4b 01 00 	mov    %rax,0x14b7d(%rip)        # 25198 <g_2438>
   1061b:	48 8b 05 76 4b 01 00 	mov    0x14b76(%rip),%rax        # 25198 <g_2438>
   10622:	48 09 c2             	or     %rax,%rdx
   10625:	8b 85 9c e0 ff ff    	mov    -0x1f64(%rbp),%eax
   1062b:	48 39 c2             	cmp    %rax,%rdx
   1062e:	0f b6 95 6c e0 ff ff 	movzbl -0x1f94(%rbp),%edx
   10635:	8b 85 8c e0 ff ff    	mov    -0x1f74(%rbp),%eax
   1063b:	39 c2                	cmp    %eax,%edx
   1063d:	66 0f be 95 74 e0 ff 	movsbw -0x1f8c(%rbp),%dx
   10644:	ff 
   10645:	48 8b 85 98 e1 ff ff 	mov    -0x1e68(%rbp),%rax
   1064c:	66 89 10             	mov    %dx,(%rax)
   1064f:	8b 85 08 e7 ff ff    	mov    -0x18f8(%rbp),%eax
   10655:	98                   	cwtl   
   10656:	be 01 00 00 00       	mov    $0x1,%esi
   1065b:	89 c7                	mov    %eax,%edi
   1065d:	e8 93 9d ff ff       	callq  a3f5 <safe_mul_func_int16_t_s_s>
   10662:	b8 01 00 00 00       	mov    $0x1,%eax
   10667:	f7 d0                	not    %eax
   10669:	89 c2                	mov    %eax,%edx
   1066b:	48 8b 85 80 e1 ff ff 	mov    -0x1e80(%rbp),%rax
   10672:	8b 00                	mov    (%rax),%eax
   10674:	09 d0                	or     %edx,%eax
   10676:	0f be c0             	movsbl %al,%eax
   10679:	89 de                	mov    %ebx,%esi
   1067b:	89 c7                	mov    %eax,%edi
   1067d:	e8 6c 9c ff ff       	callq  a2ee <safe_lshift_func_int8_t_s_u>
   10682:	48 8b 85 88 e1 ff ff 	mov    -0x1e78(%rbp),%rax
   10689:	c7 00 ff ff ff ff    	movl   $0xffffffff,(%rax)
   1068f:	48 8b 05 1a 7d 01 00 	mov    0x17d1a(%rip),%rax        # 283b0 <g_265>
   10696:	48 8b 00             	mov    (%rax),%rax
   10699:	48 8d 95 70 e1 ff ff 	lea    -0x1e90(%rbp),%rdx
   106a0:	48 89 10             	mov    %rdx,(%rax)
   106a3:	48 8b 15 be 8d 01 00 	mov    0x18dbe(%rip),%rdx        # 29468 <g_1292>
   106aa:	48 8b 05 ff 7c 01 00 	mov    0x17cff(%rip),%rax        # 283b0 <g_265>
   106b1:	48 8b 00             	mov    (%rax),%rax
   106b4:	48 8b 12             	mov    (%rdx),%rdx
   106b7:	48 89 10             	mov    %rdx,(%rax)
   106ba:	e9 78 01 00 00       	jmpq   10837 <func_11+0x231b>
   106bf:	48 8d 85 70 e4 ff ff 	lea    -0x1b90(%rbp),%rax
   106c6:	48 83 c0 04          	add    $0x4,%rax
   106ca:	48 89 85 68 e3 ff ff 	mov    %rax,-0x1c98(%rbp)
   106d1:	c7 85 b8 e0 ff ff 00 	movl   $0x0,-0x1f48(%rbp)
   106d8:	00 00 00 
   106db:	eb 1e                	jmp    106fb <func_11+0x21df>
   106dd:	8b 85 b8 e0 ff ff    	mov    -0x1f48(%rbp),%eax
   106e3:	48 98                	cltq   
   106e5:	48 8d 95 98 e0 ff ff 	lea    -0x1f68(%rbp),%rdx
   106ec:	48 89 94 c5 00 f9 ff 	mov    %rdx,-0x700(%rbp,%rax,8)
   106f3:	ff 
   106f4:	83 85 b8 e0 ff ff 01 	addl   $0x1,-0x1f48(%rbp)
   106fb:	83 bd b8 e0 ff ff 02 	cmpl   $0x2,-0x1f48(%rbp)
   10702:	7e d9                	jle    106dd <func_11+0x21c1>
   10704:	48 8b 85 90 e1 ff ff 	mov    -0x1e70(%rbp),%rax
   1070b:	41 89 c4             	mov    %eax,%r12d
   1070e:	0f b7 85 14 ea ff ff 	movzwl -0x15ec(%rbp),%eax
   10715:	89 c2                	mov    %eax,%edx
   10717:	48 83 bd 88 e2 ff ff 	cmpq   $0x0,-0x1d78(%rbp)
   1071e:	00 
   1071f:	0f 94 c0             	sete   %al
   10722:	0f b6 c0             	movzbl %al,%eax
   10725:	21 d0                	and    %edx,%eax
   10727:	66 89 85 14 ea ff ff 	mov    %ax,-0x15ec(%rbp)
   1072e:	8b 85 fc e6 ff ff    	mov    -0x1904(%rbp),%eax
   10734:	83 f8 f8             	cmp    $0xfffffff8,%eax
   10737:	0f 95 c0             	setne  %al
   1073a:	0f b6 d8             	movzbl %al,%ebx
   1073d:	8b 85 8c e0 ff ff    	mov    -0x1f74(%rbp),%eax
   10743:	0f bf d0             	movswl %ax,%edx
   10746:	0f b6 85 53 e6 ff ff 	movzbl -0x19ad(%rbp),%eax
   1074d:	84 c0                	test   %al,%al
   1074f:	0f 9e c0             	setle  %al
   10752:	0f b6 c0             	movzbl %al,%eax
   10755:	89 d6                	mov    %edx,%esi
   10757:	89 c7                	mov    %eax,%edi
   10759:	e8 b8 9c ff ff       	callq  a416 <safe_mod_func_int16_t_s_s>
   1075e:	98                   	cwtl   
   1075f:	39 c3                	cmp    %eax,%ebx
   10761:	7c 07                	jl     1076a <func_11+0x224e>
   10763:	ba a6 00 00 00       	mov    $0xa6,%edx
   10768:	eb 05                	jmp    1076f <func_11+0x2253>
   1076a:	ba a7 00 00 00       	mov    $0xa7,%edx
   1076f:	0f b6 85 6c e0 ff ff 	movzbl -0x1f94(%rbp),%eax
   10776:	48 39 c2             	cmp    %rax,%rdx
   10779:	0f 9f c0             	setg   %al
   1077c:	0f b6 d0             	movzbl %al,%edx
   1077f:	0f b6 85 6c e0 ff ff 	movzbl -0x1f94(%rbp),%eax
   10786:	39 c2                	cmp    %eax,%edx
   10788:	75 09                	jne    10793 <func_11+0x2277>
   1078a:	80 bd 6c e0 ff ff 00 	cmpb   $0x0,-0x1f94(%rbp)
   10791:	74 07                	je     1079a <func_11+0x227e>
   10793:	b8 01 00 00 00       	mov    $0x1,%eax
   10798:	eb 05                	jmp    1079f <func_11+0x2283>
   1079a:	b8 00 00 00 00       	mov    $0x0,%eax
   1079f:	89 05 93 97 01 00    	mov    %eax,0x19793(%rip)        # 29f38 <g_889>
   107a5:	48 8b 85 80 e1 ff ff 	mov    -0x1e80(%rbp),%rax
   107ac:	8b 00                	mov    (%rax),%eax
   107ae:	0f b6 c0             	movzbl %al,%eax
   107b1:	be d7 00 00 00       	mov    $0xd7,%esi
   107b6:	89 c7                	mov    %eax,%edi
   107b8:	e8 1e a4 ff ff       	callq  abdb <safe_div_func_uint8_t_u_u>
   107bd:	0f be c0             	movsbl %al,%eax
   107c0:	44 89 e6             	mov    %r12d,%esi
   107c3:	89 c7                	mov    %eax,%edi
   107c5:	e8 a2 9b ff ff       	callq  a36c <safe_rshift_func_int8_t_s_u>
   107ca:	48 8d 05 df 7b 01 00 	lea    0x17bdf(%rip),%rax        # 283b0 <g_265>
   107d1:	48 39 85 30 e3 ff ff 	cmp    %rax,-0x1cd0(%rbp)
   107d8:	0f 94 c1             	sete   %cl
   107db:	48 8b 85 80 e1 ff ff 	mov    -0x1e80(%rbp),%rax
   107e2:	8b 10                	mov    (%rax),%edx
   107e4:	48 8b 85 60 e0 ff ff 	mov    -0x1fa0(%rbp),%rax
   107eb:	0f b7 00             	movzwl (%rax),%eax
   107ee:	0f b7 c0             	movzwl %ax,%eax
   107f1:	39 c2                	cmp    %eax,%edx
   107f3:	0f 95 c0             	setne  %al
   107f6:	31 c8                	xor    %ecx,%eax
   107f8:	0f b6 d0             	movzbl %al,%edx
   107fb:	48 8b 85 88 e1 ff ff 	mov    -0x1e78(%rbp),%rax
   10802:	8b 00                	mov    (%rax),%eax
   10804:	31 c2                	xor    %eax,%edx
   10806:	48 8b 85 88 e1 ff ff 	mov    -0x1e78(%rbp),%rax
   1080d:	89 10                	mov    %edx,(%rax)
   1080f:	48 8b 85 80 e1 ff ff 	mov    -0x1e80(%rbp),%rax
   10816:	8b 00                	mov    (%rax),%eax
   10818:	35 f1 73 2b e2       	xor    $0xe22b73f1,%eax
   1081d:	89 c2                	mov    %eax,%edx
   1081f:	48 8b 85 80 e1 ff ff 	mov    -0x1e80(%rbp),%rax
   10826:	89 10                	mov    %edx,(%rax)
   10828:	48 83 85 40 e3 ff ff 	addq   $0x1,-0x1cc0(%rbp)
   1082f:	01 
   10830:	80 bd 6c e0 ff ff 00 	cmpb   $0x0,-0x1f94(%rbp)
   10837:	0f b7 05 fa 37 01 00 	movzwl 0x137fa(%rip),%eax        # 24038 <g_42>
   1083e:	83 c0 01             	add    $0x1,%eax
   10841:	66 89 05 f0 37 01 00 	mov    %ax,0x137f0(%rip)        # 24038 <g_42>
   10848:	0f b7 05 e9 37 01 00 	movzwl 0x137e9(%rip),%eax        # 24038 <g_42>
   1084f:	66 83 f8 10          	cmp    $0x10,%ax
   10853:	0f 84 64 f6 ff ff    	je     febd <func_11+0x19a1>
   10859:	48 8d 85 30 ea ff ff 	lea    -0x15d0(%rbp),%rax
   10860:	48 83 c0 44          	add    $0x44,%rax
   10864:	48 89 85 80 e1 ff ff 	mov    %rax,-0x1e80(%rbp)
   1086b:	48 8b 85 88 e1 ff ff 	mov    -0x1e78(%rbp),%rax
   10872:	8b 10                	mov    (%rax),%edx
   10874:	0f b6 85 6c e0 ff ff 	movzbl -0x1f94(%rbp),%eax
   1087b:	21 c2                	and    %eax,%edx
   1087d:	48 8b 85 88 e1 ff ff 	mov    -0x1e78(%rbp),%rax
   10884:	89 10                	mov    %edx,(%rax)
   10886:	e9 ce 04 00 00       	jmpq   10d59 <func_11+0x283d>
   1088b:	48 b8 26 1d 83 2a b3 	movabs $0xd21f1eb32a831d26,%rax
   10892:	1e 1f d2 
   10895:	48 89 85 08 e3 ff ff 	mov    %rax,-0x1cf8(%rbp)
   1089c:	48 c7 85 58 e1 ff ff 	movq   $0x0,-0x1ea8(%rbp)
   108a3:	00 00 00 00 
   108a7:	48 8d 85 58 e1 ff ff 	lea    -0x1ea8(%rbp),%rax
   108ae:	48 89 85 60 e1 ff ff 	mov    %rax,-0x1ea0(%rbp)
   108b5:	48 8d 85 60 e1 ff ff 	lea    -0x1ea0(%rbp),%rax
   108bc:	48 89 85 68 e1 ff ff 	mov    %rax,-0x1e98(%rbp)
   108c3:	48 8d 85 68 e1 ff ff 	lea    -0x1e98(%rbp),%rax
   108ca:	48 89 85 10 e3 ff ff 	mov    %rax,-0x1cf0(%rbp)
   108d1:	c7 85 e8 e0 ff ff 05 	movl   $0x5,-0x1f18(%rbp)
   108d8:	00 00 00 
   108db:	c7 05 53 96 01 00 00 	movl   $0x0,0x19653(%rip)        # 29f38 <g_889>
   108e2:	00 00 00 
   108e5:	e9 60 04 00 00       	jmpq   10d4a <func_11+0x282e>
   108ea:	66 c7 85 84 e0 ff ff 	movw   $0x580b,-0x1f7c(%rbp)
   108f1:	0b 58 
   108f3:	66 83 bd 84 e0 ff ff 	cmpw   $0x0,-0x1f7c(%rbp)
   108fa:	00 
   108fb:	74 0c                	je     10909 <func_11+0x23ed>
   108fd:	0f b7 85 7a e0 ff ff 	movzwl -0x1f86(%rbp),%eax
   10904:	e9 50 1c 00 00       	jmpq   12559 <func_11+0x403d>
   10909:	48 8d 85 00 f9 ff ff 	lea    -0x700(%rbp),%rax
   10910:	48 8d 15 c9 68 01 00 	lea    0x168c9(%rip),%rdx        # 271e0 <g_3508+0x700>
   10917:	b9 28 00 00 00       	mov    $0x28,%ecx
   1091c:	48 89 c7             	mov    %rax,%rdi
   1091f:	48 89 d6             	mov    %rdx,%rsi
   10922:	f3 48 a5             	rep movsq %ds:(%rsi),%es:(%rdi)
   10925:	48 8d 05 1c 96 01 00 	lea    0x1961c(%rip),%rax        # 29f48 <g_990>
   1092c:	48 89 85 70 e1 ff ff 	mov    %rax,-0x1e90(%rbp)
   10933:	48 c7 85 f0 e6 ff ff 	movq   $0x0,-0x1910(%rbp)
   1093a:	00 00 00 00 
   1093e:	48 8d 85 70 e1 ff ff 	lea    -0x1e90(%rbp),%rax
   10945:	48 89 85 f8 e6 ff ff 	mov    %rax,-0x1908(%rbp)
   1094c:	48 8d 85 70 e1 ff ff 	lea    -0x1e90(%rbp),%rax
   10953:	48 89 85 00 e7 ff ff 	mov    %rax,-0x1900(%rbp)
   1095a:	48 c7 85 08 e7 ff ff 	movq   $0x0,-0x18f8(%rbp)
   10961:	00 00 00 00 
   10965:	48 8d 85 70 e1 ff ff 	lea    -0x1e90(%rbp),%rax
   1096c:	48 89 85 10 e7 ff ff 	mov    %rax,-0x18f0(%rbp)
   10973:	48 8d 85 70 e1 ff ff 	lea    -0x1e90(%rbp),%rax
   1097a:	48 89 85 18 e7 ff ff 	mov    %rax,-0x18e8(%rbp)
   10981:	48 c7 85 20 e7 ff ff 	movq   $0x0,-0x18e0(%rbp)
   10988:	00 00 00 00 
   1098c:	48 8d 85 70 e1 ff ff 	lea    -0x1e90(%rbp),%rax
   10993:	48 89 85 28 e7 ff ff 	mov    %rax,-0x18d8(%rbp)
   1099a:	48 c7 85 18 e3 ff ff 	movq   $0x0,-0x1ce8(%rbp)
   109a1:	00 00 00 00 
   109a5:	48 8d 85 f0 e6 ff ff 	lea    -0x1910(%rbp),%rax
   109ac:	48 83 c0 18          	add    $0x18,%rax
   109b0:	48 89 85 20 e3 ff ff 	mov    %rax,-0x1ce0(%rbp)
   109b7:	48 c7 85 78 e1 ff ff 	movq   $0x0,-0x1e88(%rbp)
   109be:	00 00 00 00 
   109c2:	48 8d 85 f0 e3 ff ff 	lea    -0x1c10(%rbp),%rax
   109c9:	48 89 85 00 f4 ff ff 	mov    %rax,-0xc00(%rbp)
   109d0:	48 8d 85 f0 e3 ff ff 	lea    -0x1c10(%rbp),%rax
   109d7:	48 89 85 08 f4 ff ff 	mov    %rax,-0xbf8(%rbp)
   109de:	48 8d 85 f0 e3 ff ff 	lea    -0x1c10(%rbp),%rax
   109e5:	48 89 85 10 f4 ff ff 	mov    %rax,-0xbf0(%rbp)
   109ec:	48 8d 85 f0 e3 ff ff 	lea    -0x1c10(%rbp),%rax
   109f3:	48 89 85 18 f4 ff ff 	mov    %rax,-0xbe8(%rbp)
   109fa:	48 8d 85 f0 e3 ff ff 	lea    -0x1c10(%rbp),%rax
   10a01:	48 89 85 20 f4 ff ff 	mov    %rax,-0xbe0(%rbp)
   10a08:	48 8d 85 f0 e3 ff ff 	lea    -0x1c10(%rbp),%rax
   10a0f:	48 89 85 28 f4 ff ff 	mov    %rax,-0xbd8(%rbp)
   10a16:	48 8d 85 f0 e3 ff ff 	lea    -0x1c10(%rbp),%rax
   10a1d:	48 89 85 30 f4 ff ff 	mov    %rax,-0xbd0(%rbp)
   10a24:	48 8d 85 f0 e3 ff ff 	lea    -0x1c10(%rbp),%rax
   10a2b:	48 89 85 38 f4 ff ff 	mov    %rax,-0xbc8(%rbp)
   10a32:	48 8d 85 f0 e3 ff ff 	lea    -0x1c10(%rbp),%rax
   10a39:	48 89 85 40 f4 ff ff 	mov    %rax,-0xbc0(%rbp)
   10a40:	48 8d 85 f0 e3 ff ff 	lea    -0x1c10(%rbp),%rax
   10a47:	48 89 85 48 f4 ff ff 	mov    %rax,-0xbb8(%rbp)
   10a4e:	c7 85 bc e0 ff ff 00 	movl   $0x0,-0x1f44(%rbp)
   10a55:	00 00 00 
   10a58:	eb 1e                	jmp    10a78 <func_11+0x255c>
   10a5a:	8b 85 bc e0 ff ff    	mov    -0x1f44(%rbp),%eax
   10a60:	48 98                	cltq   
   10a62:	48 8d 95 78 e1 ff ff 	lea    -0x1e88(%rbp),%rdx
   10a69:	48 89 94 c5 f0 e3 ff 	mov    %rdx,-0x1c10(%rbp,%rax,8)
   10a70:	ff 
   10a71:	83 85 bc e0 ff ff 01 	addl   $0x1,-0x1f44(%rbp)
   10a78:	83 bd bc e0 ff ff 00 	cmpl   $0x0,-0x1f44(%rbp)
   10a7f:	7e d9                	jle    10a5a <func_11+0x253e>
   10a81:	0f bf 9d 7e e0 ff ff 	movswl -0x1f82(%rbp),%ebx
   10a88:	44 0f b6 a5 6c e0 ff 	movzbl -0x1f94(%rbp),%r12d
   10a8f:	ff 
   10a90:	0f b6 85 6c e0 ff ff 	movzbl -0x1f94(%rbp),%eax
   10a97:	44 0f be e8          	movsbl %al,%r13d
   10a9b:	44 0f b6 b5 6c e0 ff 	movzbl -0x1f94(%rbp),%r14d
   10aa2:	ff 
   10aa3:	48 8b 85 60 e0 ff ff 	mov    -0x1fa0(%rbp),%rax
   10aaa:	0f b7 00             	movzwl (%rax),%eax
   10aad:	0f bf d0             	movswl %ax,%edx
   10ab0:	48 8b 85 30 f9 ff ff 	mov    -0x6d0(%rbp),%rax
   10ab7:	48 39 85 a8 e1 ff ff 	cmp    %rax,-0x1e58(%rbp)
   10abe:	0f 94 c0             	sete   %al
   10ac1:	0f b6 c0             	movzbl %al,%eax
   10ac4:	89 d6                	mov    %edx,%esi
   10ac6:	89 c7                	mov    %eax,%edi
   10ac8:	e8 e6 98 ff ff       	callq  a3b3 <safe_add_func_int16_t_s_s>
   10acd:	66 83 bd 84 e0 ff ff 	cmpw   $0x0,-0x1f7c(%rbp)
   10ad4:	00 
   10ad5:	0f 94 c0             	sete   %al
   10ad8:	0f b6 d0             	movzbl %al,%edx
   10adb:	48 8b 05 96 3c 01 00 	mov    0x13c96(%rip),%rax        # 24778 <g_1417>
   10ae2:	48 39 c2             	cmp    %rax,%rdx
   10ae5:	0f 9f c0             	setg   %al
   10ae8:	0f b6 d0             	movzbl %al,%edx
   10aeb:	48 8b 85 88 e1 ff ff 	mov    -0x1e78(%rbp),%rax
   10af2:	89 10                	mov    %edx,(%rax)
   10af4:	48 8b 85 88 e1 ff ff 	mov    -0x1e78(%rbp),%rax
   10afb:	8b 00                	mov    (%rax),%eax
   10afd:	85 c0                	test   %eax,%eax
   10aff:	74 07                	je     10b08 <func_11+0x25ec>
   10b01:	b8 01 00 00 00       	mov    $0x1,%eax
   10b06:	eb 05                	jmp    10b0d <func_11+0x25f1>
   10b08:	b8 00 00 00 00       	mov    $0x0,%eax
   10b0d:	48 98                	cltq   
   10b0f:	48 39 85 08 e3 ff ff 	cmp    %rax,-0x1cf8(%rbp)
   10b16:	0f 94 c0             	sete   %al
   10b19:	0f b6 d0             	movzbl %al,%edx
   10b1c:	48 8b 85 38 e2 ff ff 	mov    -0x1dc8(%rbp),%rax
   10b23:	0f b6 00             	movzbl (%rax),%eax
   10b26:	89 c1                	mov    %eax,%ecx
   10b28:	89 d0                	mov    %edx,%eax
   10b2a:	09 c8                	or     %ecx,%eax
   10b2c:	89 c2                	mov    %eax,%edx
   10b2e:	48 8b 85 38 e2 ff ff 	mov    -0x1dc8(%rbp),%rax
   10b35:	88 10                	mov    %dl,(%rax)
   10b37:	48 8b 85 38 e2 ff ff 	mov    -0x1dc8(%rbp),%rax
   10b3e:	0f b6 00             	movzbl (%rax),%eax
   10b41:	84 c0                	test   %al,%al
   10b43:	0f 94 c0             	sete   %al
   10b46:	0f b6 c0             	movzbl %al,%eax
   10b49:	be 01 00 00 00       	mov    $0x1,%esi
   10b4e:	89 c7                	mov    %eax,%edi
   10b50:	e8 69 a1 ff ff       	callq  acbe <safe_rshift_func_uint8_t_u_u>
   10b55:	84 c0                	test   %al,%al
   10b57:	0f 94 c0             	sete   %al
   10b5a:	0f b6 c0             	movzbl %al,%eax
   10b5d:	44 89 f6             	mov    %r14d,%esi
   10b60:	89 c7                	mov    %eax,%edi
   10b62:	e8 8e 98 ff ff       	callq  a3f5 <safe_mul_func_int16_t_s_s>
   10b67:	66 85 c0             	test   %ax,%ax
   10b6a:	0f 95 c0             	setne  %al
   10b6d:	0f b6 c0             	movzbl %al,%eax
   10b70:	be 03 00 00 00       	mov    $0x3,%esi
   10b75:	89 c7                	mov    %eax,%edi
   10b77:	e8 fe a2 ff ff       	callq  ae7a <safe_rshift_func_uint16_t_u_u>
   10b7c:	0f be c0             	movsbl %al,%eax
   10b7f:	be 78 00 00 00       	mov    $0x78,%esi
   10b84:	89 c7                	mov    %eax,%edi
   10b86:	e8 67 96 ff ff       	callq  a1f2 <safe_sub_func_int8_t_s_s>
   10b8b:	0f be c0             	movsbl %al,%eax
   10b8e:	44 89 ee             	mov    %r13d,%esi
   10b91:	89 c7                	mov    %eax,%edi
   10b93:	e8 7a 96 ff ff       	callq  a212 <safe_mul_func_int8_t_s_s>
   10b98:	44 89 e6             	mov    %r12d,%esi
   10b9b:	bf 05 00 00 00       	mov    $0x5,%edi
   10ba0:	e8 49 97 ff ff       	callq  a2ee <safe_lshift_func_int8_t_s_u>
   10ba5:	3c 0c                	cmp    $0xc,%al
   10ba7:	0f 94 c0             	sete   %al
   10baa:	0f b6 d0             	movzbl %al,%edx
   10bad:	48 8b 05 14 7a 01 00 	mov    0x17a14(%rip),%rax        # 285c8 <g_1097>
   10bb4:	0f b6 00             	movzbl (%rax),%eax
   10bb7:	0f be c0             	movsbl %al,%eax
   10bba:	39 c2                	cmp    %eax,%edx
   10bbc:	0f 9c c0             	setl   %al
   10bbf:	0f b6 d0             	movzbl %al,%edx
   10bc2:	0f b6 85 6c e0 ff ff 	movzbl -0x1f94(%rbp),%eax
   10bc9:	21 c2                	and    %eax,%edx
   10bcb:	48 8b 05 a6 88 01 00 	mov    0x188a6(%rip),%rax        # 29478 <g_1351>
   10bd2:	48 63 d2             	movslq %edx,%rdx
   10bd5:	48 89 10             	mov    %rdx,(%rax)
   10bd8:	48 8b 15 91 88 01 00 	mov    0x18891(%rip),%rdx        # 29470 <g_1350>
   10bdf:	48 8b 00             	mov    (%rax),%rax
   10be2:	48 89 02             	mov    %rax,(%rdx)
   10be5:	48 8b 95 08 e7 ff ff 	mov    -0x18f8(%rbp),%rdx
   10bec:	48 8b 85 20 e3 ff ff 	mov    -0x1ce0(%rbp),%rax
   10bf3:	48 89 10             	mov    %rdx,(%rax)
   10bf6:	48 8b 85 20 e3 ff ff 	mov    -0x1ce0(%rbp),%rax
   10bfd:	48 8b 00             	mov    (%rax),%rax
   10c00:	48 8d 15 61 94 01 00 	lea    0x19461(%rip),%rdx        # 2a068 <g_1658>
   10c07:	48 39 d0             	cmp    %rdx,%rax
   10c0a:	0f 94 c0             	sete   %al
   10c0d:	0f b6 c0             	movzbl %al,%eax
   10c10:	89 de                	mov    %ebx,%esi
   10c12:	89 c7                	mov    %eax,%edi
   10c14:	e8 4a 99 ff ff       	callq  a563 <safe_rshift_func_int16_t_s_u>
   10c19:	48 8b 85 00 f4 ff ff 	mov    -0xc00(%rbp),%rax
   10c20:	48 89 85 10 e3 ff ff 	mov    %rax,-0x1cf0(%rbp)
   10c27:	48 8b 85 88 e5 ff ff 	mov    -0x1a78(%rbp),%rax
   10c2e:	48 39 85 10 e3 ff ff 	cmp    %rax,-0x1cf0(%rbp)
   10c35:	74 07                	je     10c3e <func_11+0x2722>
   10c37:	b8 01 00 00 00       	mov    $0x1,%eax
   10c3c:	eb 05                	jmp    10c43 <func_11+0x2727>
   10c3e:	b8 00 00 00 00       	mov    $0x0,%eax
   10c43:	83 f8 01             	cmp    $0x1,%eax
   10c46:	0f 94 c0             	sete   %al
   10c49:	0f b6 d0             	movzbl %al,%edx
   10c4c:	48 8b 85 80 e1 ff ff 	mov    -0x1e80(%rbp),%rax
   10c53:	89 10                	mov    %edx,(%rax)
   10c55:	80 bd 6c e0 ff ff 00 	cmpb   $0x0,-0x1f94(%rbp)
   10c5c:	0f 85 d8 00 00 00    	jne    10d3a <func_11+0x281e>
   10c62:	0f b6 9d 6c e0 ff ff 	movzbl -0x1f94(%rbp),%ebx
   10c69:	8b 85 e8 e0 ff ff    	mov    -0x1f18(%rbp),%eax
   10c6f:	89 c2                	mov    %eax,%edx
   10c71:	48 8b 85 28 e2 ff ff 	mov    -0x1dd8(%rbp),%rax
   10c78:	66 89 10             	mov    %dx,(%rax)
   10c7b:	48 8b 85 60 e0 ff ff 	mov    -0x1fa0(%rbp),%rax
   10c82:	0f b7 00             	movzwl (%rax),%eax
   10c85:	66 83 f8 01          	cmp    $0x1,%ax
   10c89:	0f 96 c0             	setbe  %al
   10c8c:	0f b6 d0             	movzbl %al,%edx
   10c8f:	48 8b 85 60 e0 ff ff 	mov    -0x1fa0(%rbp),%rax
   10c96:	0f b7 00             	movzwl (%rax),%eax
   10c99:	66 85 c0             	test   %ax,%ax
   10c9c:	75 0f                	jne    10cad <func_11+0x2791>
   10c9e:	48 8b 05 3b 77 01 00 	mov    0x1773b(%rip),%rax        # 283e0 <g_421>
   10ca5:	0f b7 00             	movzwl (%rax),%eax
   10ca8:	66 85 c0             	test   %ax,%ax
   10cab:	74 07                	je     10cb4 <func_11+0x2798>
   10cad:	b8 01 00 00 00       	mov    $0x1,%eax
   10cb2:	eb 05                	jmp    10cb9 <func_11+0x279d>
   10cb4:	b8 00 00 00 00       	mov    $0x0,%eax
   10cb9:	0f be c0             	movsbl %al,%eax
   10cbc:	89 d6                	mov    %edx,%esi
   10cbe:	89 c7                	mov    %eax,%edi
   10cc0:	e8 4d 95 ff ff       	callq  a212 <safe_mul_func_int8_t_s_s>
   10cc5:	0f be d0             	movsbl %al,%edx
   10cc8:	0f b6 85 6c e0 ff ff 	movzbl -0x1f94(%rbp),%eax
   10ccf:	39 c2                	cmp    %eax,%edx
   10cd1:	0f 9f c0             	setg   %al
   10cd4:	0f b6 d0             	movzbl %al,%edx
   10cd7:	48 8b 85 80 e1 ff ff 	mov    -0x1e80(%rbp),%rax
   10cde:	c7 00 00 00 00 00    	movl   $0x0,(%rax)
   10ce4:	48 8b 85 80 e1 ff ff 	mov    -0x1e80(%rbp),%rax
   10ceb:	8b 00                	mov    (%rax),%eax
   10ced:	39 c2                	cmp    %eax,%edx
   10cef:	0f 9c c0             	setl   %al
   10cf2:	0f b6 c0             	movzbl %al,%eax
   10cf5:	21 d8                	and    %ebx,%eax
   10cf7:	85 c0                	test   %eax,%eax
   10cf9:	75 0f                	jne    10d0a <func_11+0x27ee>
   10cfb:	48 8b 05 6e 87 01 00 	mov    0x1876e(%rip),%rax        # 29470 <g_1350>
   10d02:	48 8b 00             	mov    (%rax),%rax
   10d05:	48 85 c0             	test   %rax,%rax
   10d08:	74 07                	je     10d11 <func_11+0x27f5>
   10d0a:	ba 01 00 00 00       	mov    $0x1,%edx
   10d0f:	eb 05                	jmp    10d16 <func_11+0x27fa>
   10d11:	ba 00 00 00 00       	mov    $0x0,%edx
   10d16:	48 8b 85 88 e1 ff ff 	mov    -0x1e78(%rbp),%rax
   10d1d:	8b 00                	mov    (%rax),%eax
   10d1f:	09 c2                	or     %eax,%edx
   10d21:	48 8b 85 88 e1 ff ff 	mov    -0x1e78(%rbp),%rax
   10d28:	89 10                	mov    %edx,(%rax)
   10d2a:	48 8d 85 94 e0 ff ff 	lea    -0x1f6c(%rbp),%rax
   10d31:	48 89 85 88 e1 ff ff 	mov    %rax,-0x1e78(%rbp)
   10d38:	eb 01                	jmp    10d3b <func_11+0x281f>
   10d3a:	90                   	nop
   10d3b:	8b 05 f7 91 01 00    	mov    0x191f7(%rip),%eax        # 29f38 <g_889>
   10d41:	83 c0 01             	add    $0x1,%eax
   10d44:	89 05 ee 91 01 00    	mov    %eax,0x191ee(%rip)        # 29f38 <g_889>
   10d4a:	8b 05 e8 91 01 00    	mov    0x191e8(%rip),%eax        # 29f38 <g_889>
   10d50:	83 f8 21             	cmp    $0x21,%eax
   10d53:	0f 87 91 fb ff ff    	ja     108ea <func_11+0x23ce>
   10d59:	80 bd 6c e0 ff ff 00 	cmpb   $0x0,-0x1f94(%rbp)
   10d60:	75 3c                	jne    10d9e <func_11+0x2882>
   10d62:	eb 04                	jmp    10d68 <func_11+0x284c>
   10d64:	90                   	nop
   10d65:	eb 01                	jmp    10d68 <func_11+0x284c>
   10d67:	90                   	nop
   10d68:	48 8b 05 09 3a 01 00 	mov    0x13a09(%rip),%rax        # 24778 <g_1417>
   10d6f:	0f b6 c0             	movzbl %al,%eax
   10d72:	be 01 00 00 00       	mov    $0x1,%esi
   10d77:	89 c7                	mov    %eax,%edi
   10d79:	e8 dc 9d ff ff       	callq  ab5a <safe_add_func_uint8_t_u_u>
   10d7e:	0f b6 c0             	movzbl %al,%eax
   10d81:	48 89 05 f0 39 01 00 	mov    %rax,0x139f0(%rip)        # 24778 <g_1417>
   10d88:	48 8b 05 e9 39 01 00 	mov    0x139e9(%rip),%rax        # 24778 <g_1417>
   10d8f:	48 83 f8 12          	cmp    $0x12,%rax
   10d93:	0f 8e 3b e3 ff ff    	jle    f0d4 <func_11+0xbb8>
   10d99:	eb 04                	jmp    10d9f <func_11+0x2883>
   10d9b:	90                   	nop
   10d9c:	eb 01                	jmp    10d9f <func_11+0x2883>
   10d9e:	90                   	nop
   10d9f:	48 8b 85 60 e0 ff ff 	mov    -0x1fa0(%rbp),%rax
   10da6:	0f b7 00             	movzwl (%rax),%eax
   10da9:	44 0f b7 e0          	movzwl %ax,%r12d
   10dad:	48 8b 05 d4 8a 01 00 	mov    0x18ad4(%rip),%rax        # 29888 <g_2036>
   10db4:	44 8b 28             	mov    (%rax),%r13d
   10db7:	48 8b 85 80 e1 ff ff 	mov    -0x1e80(%rbp),%rax
   10dbe:	44 8b 30             	mov    (%rax),%r14d
   10dc1:	48 8b 85 80 e1 ff ff 	mov    -0x1e80(%rbp),%rax
   10dc8:	44 8b 38             	mov    (%rax),%r15d
   10dcb:	8b 05 47 37 01 00    	mov    0x13747(%rip),%eax        # 24518 <g_849>
   10dd1:	89 c2                	mov    %eax,%edx
   10dd3:	48 8b 85 50 e2 ff ff 	mov    -0x1db0(%rbp),%rax
   10dda:	89 10                	mov    %edx,(%rax)
   10ddc:	48 8b 85 50 e2 ff ff 	mov    -0x1db0(%rbp),%rax
   10de3:	8b 00                	mov    (%rax),%eax
   10de5:	89 85 54 e0 ff ff    	mov    %eax,-0x1fac(%rbp)
   10deb:	48 8b 85 20 e2 ff ff 	mov    -0x1de0(%rbp),%rax
   10df2:	0f b7 00             	movzwl (%rax),%eax
   10df5:	8d 50 ff             	lea    -0x1(%rax),%edx
   10df8:	48 8b 85 20 e2 ff ff 	mov    -0x1de0(%rbp),%rax
   10dff:	66 89 10             	mov    %dx,(%rax)
   10e02:	48 8b 85 20 e2 ff ff 	mov    -0x1de0(%rbp),%rax
   10e09:	0f b7 00             	movzwl (%rax),%eax
   10e0c:	0f bf d8             	movswl %ax,%ebx
   10e0f:	be 02 00 00 00       	mov    $0x2,%esi
   10e14:	bf 92 19 00 00       	mov    $0x1992,%edi
   10e19:	e8 45 97 ff ff       	callq  a563 <safe_rshift_func_int16_t_s_u>
   10e1e:	98                   	cwtl   
   10e1f:	89 de                	mov    %ebx,%esi
   10e21:	89 c7                	mov    %eax,%edi
   10e23:	e8 ee 95 ff ff       	callq  a416 <safe_mod_func_int16_t_s_s>
   10e28:	0f b7 05 69 32 01 00 	movzwl 0x13269(%rip),%eax        # 24098 <g_96>
   10e2f:	66 35 89 de          	xor    $0xde89,%ax
   10e33:	66 89 05 5e 32 01 00 	mov    %ax,0x1325e(%rip)        # 24098 <g_96>
   10e3a:	8b 05 70 3f 01 00    	mov    0x13f70(%rip),%eax        # 24db0 <g_1931>
   10e40:	89 c6                	mov    %eax,%esi
   10e42:	bf 01 00 00 00       	mov    $0x1,%edi
   10e47:	e8 20 95 ff ff       	callq  a36c <safe_rshift_func_int8_t_s_u>
   10e4c:	0f b6 15 c1 90 01 00 	movzbl 0x190c1(%rip),%edx        # 29f14 <g_302>
   10e53:	38 d0                	cmp    %dl,%al
   10e55:	0f 9e c0             	setle  %al
   10e58:	0f b6 c0             	movzbl %al,%eax
   10e5b:	89 85 c4 e0 ff ff    	mov    %eax,-0x1f3c(%rbp)
   10e61:	81 bd c4 e0 ff ff 7c 	cmpl   $0x65bbd97c,-0x1f3c(%rbp)
   10e68:	d9 bb 65 
   10e6b:	0f 95 c0             	setne  %al
   10e6e:	0f b6 c0             	movzbl %al,%eax
   10e71:	39 85 54 e0 ff ff    	cmp    %eax,-0x1fac(%rbp)
   10e77:	74 10                	je     10e89 <func_11+0x296d>
   10e79:	80 bd 6c e0 ff ff 00 	cmpb   $0x0,-0x1f94(%rbp)
   10e80:	74 07                	je     10e89 <func_11+0x296d>
   10e82:	b8 01 00 00 00       	mov    $0x1,%eax
   10e87:	eb 05                	jmp    10e8e <func_11+0x2972>
   10e89:	b8 00 00 00 00       	mov    $0x0,%eax
   10e8e:	44 39 f8             	cmp    %r15d,%eax
   10e91:	0f 95 c0             	setne  %al
   10e94:	0f b6 c0             	movzbl %al,%eax
   10e97:	44 21 f0             	and    %r14d,%eax
   10e9a:	44 21 e8             	and    %r13d,%eax
   10e9d:	85 c0                	test   %eax,%eax
   10e9f:	74 10                	je     10eb1 <func_11+0x2995>
   10ea1:	80 bd 6c e0 ff ff 00 	cmpb   $0x0,-0x1f94(%rbp)
   10ea8:	74 07                	je     10eb1 <func_11+0x2995>
   10eaa:	b8 01 00 00 00       	mov    $0x1,%eax
   10eaf:	eb 05                	jmp    10eb6 <func_11+0x299a>
   10eb1:	b8 00 00 00 00       	mov    $0x0,%eax
   10eb6:	89 c2                	mov    %eax,%edx
   10eb8:	48 8b 85 58 e2 ff ff 	mov    -0x1da8(%rbp),%rax
   10ebf:	66 89 10             	mov    %dx,(%rax)
   10ec2:	48 8b 85 58 e2 ff ff 	mov    -0x1da8(%rbp),%rax
   10ec9:	0f b7 00             	movzwl (%rax),%eax
   10ecc:	98                   	cwtl   
   10ecd:	44 09 e0             	or     %r12d,%eax
   10ed0:	85 c0                	test   %eax,%eax
   10ed2:	0f 84 89 0c 00 00    	je     11b61 <func_11+0x3645>
   10ed8:	66 c7 85 86 e0 ff ff 	movw   $0x1bc4,-0x1f7a(%rbp)
   10edf:	c4 1b 
   10ee1:	c7 85 fc e0 ff ff 68 	movl   $0x4ca6a668,-0x1f04(%rbp)
   10ee8:	a6 a6 4c 
   10eeb:	48 b8 4b fa c5 fd bd 	movabs $0xe6058bbdfdc5fa4b,%rax
   10ef2:	8b 05 e6 
   10ef5:	48 89 85 80 e3 ff ff 	mov    %rax,-0x1c80(%rbp)
   10efc:	c7 85 00 e1 ff ff ff 	movl   $0xffffffff,-0x1f00(%rbp)
   10f03:	ff ff ff 
   10f06:	c7 85 c0 e0 ff ff 00 	movl   $0x0,-0x1f40(%rbp)
   10f0d:	00 00 00 
   10f10:	48 8d 05 f5 8f 01 00 	lea    0x18ff5(%rip),%rax        # 29f0c <g_65>
   10f17:	48 89 85 00 f9 ff ff 	mov    %rax,-0x700(%rbp)
   10f1e:	48 c7 85 08 f9 ff ff 	movq   $0x0,-0x6f8(%rbp)
   10f25:	00 00 00 00 
   10f29:	48 c7 85 10 f9 ff ff 	movq   $0x0,-0x6f0(%rbp)
   10f30:	00 00 00 00 
   10f34:	48 8d 05 d1 8f 01 00 	lea    0x18fd1(%rip),%rax        # 29f0c <g_65>
   10f3b:	48 89 85 18 f9 ff ff 	mov    %rax,-0x6e8(%rbp)
   10f42:	48 8d 05 2b d1 00 00 	lea    0xd12b(%rip),%rax        # 1e074 <g_524>
   10f49:	48 89 85 20 f9 ff ff 	mov    %rax,-0x6e0(%rbp)
   10f50:	48 8d 05 21 32 01 00 	lea    0x13221(%rip),%rax        # 24178 <g_305>
   10f57:	48 89 85 28 f9 ff ff 	mov    %rax,-0x6d8(%rbp)
   10f5e:	48 8d 05 0f d1 00 00 	lea    0xd10f(%rip),%rax        # 1e074 <g_524>
   10f65:	48 89 85 30 f9 ff ff 	mov    %rax,-0x6d0(%rbp)
   10f6c:	48 8d 05 99 8f 01 00 	lea    0x18f99(%rip),%rax        # 29f0c <g_65>
   10f73:	48 89 85 38 f9 ff ff 	mov    %rax,-0x6c8(%rbp)
   10f7a:	48 c7 85 40 f9 ff ff 	movq   $0x0,-0x6c0(%rbp)
   10f81:	00 00 00 00 
   10f85:	48 8d 05 e8 d0 00 00 	lea    0xd0e8(%rip),%rax        # 1e074 <g_524>
   10f8c:	48 89 85 48 f9 ff ff 	mov    %rax,-0x6b8(%rbp)
   10f93:	48 c7 85 50 f9 ff ff 	movq   $0x0,-0x6b0(%rbp)
   10f9a:	00 00 00 00 
   10f9e:	48 8d 05 83 41 01 00 	lea    0x14183(%rip),%rax        # 25128 <g_2253>
   10fa5:	48 89 85 58 f9 ff ff 	mov    %rax,-0x6a8(%rbp)
   10fac:	48 c7 85 60 f9 ff ff 	movq   $0x0,-0x6a0(%rbp)
   10fb3:	00 00 00 00 
   10fb7:	48 c7 85 68 f9 ff ff 	movq   $0x0,-0x698(%rbp)
   10fbe:	00 00 00 00 
   10fc2:	48 8d 05 5f 41 01 00 	lea    0x1415f(%rip),%rax        # 25128 <g_2253>
   10fc9:	48 89 85 70 f9 ff ff 	mov    %rax,-0x690(%rbp)
   10fd0:	48 c7 85 78 f9 ff ff 	movq   $0x0,-0x688(%rbp)
   10fd7:	00 00 00 00 
   10fdb:	48 8d 05 92 d0 00 00 	lea    0xd092(%rip),%rax        # 1e074 <g_524>
   10fe2:	48 89 85 80 f9 ff ff 	mov    %rax,-0x680(%rbp)
   10fe9:	48 8d 05 84 d0 00 00 	lea    0xd084(%rip),%rax        # 1e074 <g_524>
   10ff0:	48 89 85 88 f9 ff ff 	mov    %rax,-0x678(%rbp)
   10ff7:	48 c7 85 90 f9 ff ff 	movq   $0x0,-0x670(%rbp)
   10ffe:	00 00 00 00 
   11002:	48 8d 05 6f 31 01 00 	lea    0x1316f(%rip),%rax        # 24178 <g_305>
   11009:	48 89 85 98 f9 ff ff 	mov    %rax,-0x668(%rbp)
   11010:	48 8d 85 8c e0 ff ff 	lea    -0x1f74(%rbp),%rax
   11017:	48 89 85 a0 f9 ff ff 	mov    %rax,-0x660(%rbp)
   1101e:	48 8d 05 53 31 01 00 	lea    0x13153(%rip),%rax        # 24178 <g_305>
   11025:	48 89 85 a8 f9 ff ff 	mov    %rax,-0x658(%rbp)
   1102c:	48 c7 85 b0 f9 ff ff 	movq   $0x0,-0x650(%rbp)
   11033:	00 00 00 00 
   11037:	48 8d 05 36 d0 00 00 	lea    0xd036(%rip),%rax        # 1e074 <g_524>
   1103e:	48 89 85 b8 f9 ff ff 	mov    %rax,-0x648(%rbp)
   11045:	48 8d 05 28 d0 00 00 	lea    0xd028(%rip),%rax        # 1e074 <g_524>
   1104c:	48 89 85 c0 f9 ff ff 	mov    %rax,-0x640(%rbp)
   11053:	48 c7 85 c8 f9 ff ff 	movq   $0x0,-0x638(%rbp)
   1105a:	00 00 00 00 
   1105e:	48 8d 05 c3 40 01 00 	lea    0x140c3(%rip),%rax        # 25128 <g_2253>
   11065:	48 89 85 d0 f9 ff ff 	mov    %rax,-0x630(%rbp)
   1106c:	48 c7 85 d8 f9 ff ff 	movq   $0x0,-0x628(%rbp)
   11073:	00 00 00 00 
   11077:	48 c7 85 e0 f9 ff ff 	movq   $0x0,-0x620(%rbp)
   1107e:	00 00 00 00 
   11082:	48 8d 05 9f 40 01 00 	lea    0x1409f(%rip),%rax        # 25128 <g_2253>
   11089:	48 89 85 e8 f9 ff ff 	mov    %rax,-0x618(%rbp)
   11090:	48 c7 85 f0 f9 ff ff 	movq   $0x0,-0x610(%rbp)
   11097:	00 00 00 00 
   1109b:	48 8d 05 d2 cf 00 00 	lea    0xcfd2(%rip),%rax        # 1e074 <g_524>
   110a2:	48 89 85 f8 f9 ff ff 	mov    %rax,-0x608(%rbp)
   110a9:	48 c7 85 00 fa ff ff 	movq   $0x0,-0x600(%rbp)
   110b0:	00 00 00 00 
   110b4:	48 8d 05 51 8e 01 00 	lea    0x18e51(%rip),%rax        # 29f0c <g_65>
   110bb:	48 89 85 08 fa ff ff 	mov    %rax,-0x5f8(%rbp)
   110c2:	48 8d 05 ab cf 00 00 	lea    0xcfab(%rip),%rax        # 1e074 <g_524>
   110c9:	48 89 85 10 fa ff ff 	mov    %rax,-0x5f0(%rbp)
   110d0:	48 8d 05 a1 30 01 00 	lea    0x130a1(%rip),%rax        # 24178 <g_305>
   110d7:	48 89 85 18 fa ff ff 	mov    %rax,-0x5e8(%rbp)
   110de:	48 8d 05 8f cf 00 00 	lea    0xcf8f(%rip),%rax        # 1e074 <g_524>
   110e5:	48 89 85 20 fa ff ff 	mov    %rax,-0x5e0(%rbp)
   110ec:	48 8d 05 19 8e 01 00 	lea    0x18e19(%rip),%rax        # 29f0c <g_65>
   110f3:	48 89 85 28 fa ff ff 	mov    %rax,-0x5d8(%rbp)
   110fa:	48 c7 85 30 fa ff ff 	movq   $0x0,-0x5d0(%rbp)
   11101:	00 00 00 00 
   11105:	48 c7 85 38 fa ff ff 	movq   $0x0,-0x5c8(%rbp)
   1110c:	00 00 00 00 
   11110:	48 8d 05 f5 8d 01 00 	lea    0x18df5(%rip),%rax        # 29f0c <g_65>
   11117:	48 89 85 40 fa ff ff 	mov    %rax,-0x5c0(%rbp)
   1111e:	48 8d 05 53 30 01 00 	lea    0x13053(%rip),%rax        # 24178 <g_305>
   11125:	48 89 85 48 fa ff ff 	mov    %rax,-0x5b8(%rbp)
   1112c:	48 8d 05 f5 3f 01 00 	lea    0x13ff5(%rip),%rax        # 25128 <g_2253>
   11133:	48 89 85 50 fa ff ff 	mov    %rax,-0x5b0(%rbp)
   1113a:	48 8d 05 e7 3f 01 00 	lea    0x13fe7(%rip),%rax        # 25128 <g_2253>
   11141:	48 89 85 58 fa ff ff 	mov    %rax,-0x5a8(%rbp)
   11148:	48 8d 05 29 30 01 00 	lea    0x13029(%rip),%rax        # 24178 <g_305>
   1114f:	48 89 85 60 fa ff ff 	mov    %rax,-0x5a0(%rbp)
   11156:	48 8d 05 af 8d 01 00 	lea    0x18daf(%rip),%rax        # 29f0c <g_65>
   1115d:	48 89 85 68 fa ff ff 	mov    %rax,-0x598(%rbp)
   11164:	48 c7 85 70 fa ff ff 	movq   $0x0,-0x590(%rbp)
   1116b:	00 00 00 00 
   1116f:	48 8d 05 96 8d 01 00 	lea    0x18d96(%rip),%rax        # 29f0c <g_65>
   11176:	48 89 85 78 fa ff ff 	mov    %rax,-0x588(%rbp)
   1117d:	c7 05 f1 2f 01 00 00 	movl   $0x0,0x12ff1(%rip)        # 24178 <g_305>
   11184:	00 00 00 
   11187:	e9 d3 08 00 00       	jmpq   11a5f <func_11+0x3543>
   1118c:	48 c7 85 88 e3 ff ff 	movq   $0x8,-0x1c78(%rbp)
   11193:	08 00 00 00 
   11197:	48 8d 05 92 41 01 00 	lea    0x14192(%rip),%rax        # 25330 <g_2551>
   1119e:	48 89 85 90 e3 ff ff 	mov    %rax,-0x1c70(%rbp)
   111a5:	c7 85 60 e1 ff ff 07 	movl   $0x7,-0x1ea0(%rbp)
   111ac:	00 00 00 
   111af:	c7 85 68 e1 ff ff 09 	movl   $0x9,-0x1e98(%rbp)
   111b6:	00 00 00 
   111b9:	48 8d 05 88 33 01 00 	lea    0x13388(%rip),%rax        # 24548 <g_954>
   111c0:	48 89 85 30 e9 ff ff 	mov    %rax,-0x16d0(%rbp)
   111c7:	48 8d 05 7a 33 01 00 	lea    0x1337a(%rip),%rax        # 24548 <g_954>
   111ce:	48 89 85 38 e9 ff ff 	mov    %rax,-0x16c8(%rbp)
   111d5:	48 8d 05 6c 33 01 00 	lea    0x1336c(%rip),%rax        # 24548 <g_954>
   111dc:	48 89 85 40 e9 ff ff 	mov    %rax,-0x16c0(%rbp)
   111e3:	48 8d 05 5e 33 01 00 	lea    0x1335e(%rip),%rax        # 24548 <g_954>
   111ea:	48 89 85 48 e9 ff ff 	mov    %rax,-0x16b8(%rbp)
   111f1:	48 8d 05 50 33 01 00 	lea    0x13350(%rip),%rax        # 24548 <g_954>
   111f8:	48 89 85 50 e9 ff ff 	mov    %rax,-0x16b0(%rbp)
   111ff:	48 83 bd 88 e3 ff ff 	cmpq   $0x0,-0x1c78(%rbp)
   11206:	00 
   11207:	0f 84 58 02 00 00    	je     11465 <func_11+0x2f49>
   1120d:	48 c7 85 a0 e3 ff ff 	movq   $0x0,-0x1c60(%rbp)
   11214:	00 00 00 00 
   11218:	48 8d 05 e9 2e 01 00 	lea    0x12ee9(%rip),%rax        # 24108 <g_261>
   1121f:	48 89 85 a8 e3 ff ff 	mov    %rax,-0x1c58(%rbp)
   11226:	48 8d 05 23 41 01 00 	lea    0x14123(%rip),%rax        # 25350 <g_2557>
   1122d:	48 89 85 b0 e3 ff ff 	mov    %rax,-0x1c50(%rbp)
   11234:	48 8d 85 00 e4 ff ff 	lea    -0x1c00(%rbp),%rax
   1123b:	48 83 c0 08          	add    $0x8,%rax
   1123f:	48 89 85 b8 e3 ff ff 	mov    %rax,-0x1c48(%rbp)
   11246:	48 c7 85 60 e2 ff ff 	movq   $0x0,-0x1da0(%rbp)
   1124d:	00 00 00 00 
   11251:	48 8b 85 60 e0 ff ff 	mov    -0x1fa0(%rbp),%rax
   11258:	0f b7 00             	movzwl (%rax),%eax
   1125b:	0f b7 d8             	movzwl %ax,%ebx
   1125e:	48 8b 85 60 e0 ff ff 	mov    -0x1fa0(%rbp),%rax
   11265:	0f b7 00             	movzwl (%rax),%eax
   11268:	44 0f bf e0          	movswl %ax,%r12d
   1126c:	48 8b 05 95 2e 01 00 	mov    0x12e95(%rip),%rax        # 24108 <g_261>
   11273:	44 0f b6 e8          	movzbl %al,%r13d
   11277:	0f b7 95 86 e0 ff ff 	movzwl -0x1f7a(%rbp),%edx
   1127e:	48 8b 05 7b 72 01 00 	mov    0x1727b(%rip),%rax        # 28500 <g_896>
   11285:	48 8b 00             	mov    (%rax),%rax
   11288:	8b 00                	mov    (%rax),%eax
   1128a:	09 d0                	or     %edx,%eax
   1128c:	85 c0                	test   %eax,%eax
   1128e:	44 0f b6 bd 6c e0 ff 	movzbl -0x1f94(%rbp),%r15d
   11295:	ff 
   11296:	48 8b 05 c3 ec 00 00 	mov    0xecc3(%rip),%rax        # 1ff60 <l_2533.4916>
   1129d:	44 0f be f0          	movsbl %al,%r14d
   112a1:	48 8b 05 58 71 01 00 	mov    0x17158(%rip),%rax        # 28400 <g_610>
   112a8:	be 03 00 00 00       	mov    $0x3,%esi
   112ad:	bf 00 00 00 00       	mov    $0x0,%edi
   112b2:	e8 07 9a ff ff       	callq  acbe <safe_rshift_func_uint8_t_u_u>
   112b7:	89 c2                	mov    %eax,%edx
   112b9:	48 8b 85 58 e0 ff ff 	mov    -0x1fa8(%rbp),%rax
   112c0:	88 10                	mov    %dl,(%rax)
   112c2:	48 8b 85 58 e0 ff ff 	mov    -0x1fa8(%rbp),%rax
   112c9:	0f b6 00             	movzbl (%rax),%eax
   112cc:	0f be c0             	movsbl %al,%eax
   112cf:	44 89 f6             	mov    %r14d,%esi
   112d2:	89 c7                	mov    %eax,%edi
   112d4:	e8 58 8f ff ff       	callq  a231 <safe_mod_func_int8_t_s_s>
   112d9:	0f be c0             	movsbl %al,%eax
   112dc:	41 39 c7             	cmp    %eax,%r15d
   112df:	75 07                	jne    112e8 <func_11+0x2dcc>
   112e1:	b8 01 00 00 00       	mov    $0x1,%eax
   112e6:	eb 05                	jmp    112ed <func_11+0x2dd1>
   112e8:	b8 00 00 00 00       	mov    $0x0,%eax
   112ed:	0f b6 c0             	movzbl %al,%eax
   112f0:	44 89 ee             	mov    %r13d,%esi
   112f3:	89 c7                	mov    %eax,%edi
   112f5:	e8 b4 98 ff ff       	callq  abae <safe_mod_func_uint8_t_u_u>
   112fa:	0f b6 c0             	movzbl %al,%eax
   112fd:	44 89 e6             	mov    %r12d,%esi
   11300:	89 c7                	mov    %eax,%edi
   11302:	e8 cc 90 ff ff       	callq  a3d3 <safe_sub_func_int16_t_s_s>
   11307:	8b 85 fc e0 ff ff    	mov    -0x1f04(%rbp),%eax
   1130d:	0f b7 c0             	movzwl %ax,%eax
   11310:	89 de                	mov    %ebx,%esi
   11312:	89 c7                	mov    %eax,%edi
   11314:	e8 61 9b ff ff       	callq  ae7a <safe_rshift_func_uint16_t_u_u>
   11319:	0f b7 c0             	movzwl %ax,%eax
   1131c:	be 07 00 00 00       	mov    $0x7,%esi
   11321:	89 c7                	mov    %eax,%edi
   11323:	e8 15 9a ff ff       	callq  ad3d <safe_mul_func_uint16_t_u_u>
   11328:	48 8b 05 59 85 01 00 	mov    0x18559(%rip),%rax        # 29888 <g_2036>
   1132f:	8b 10                	mov    (%rax),%edx
   11331:	48 8b 85 80 e1 ff ff 	mov    -0x1e80(%rbp),%rax
   11338:	89 10                	mov    %edx,(%rax)
   1133a:	48 8b 85 a8 e3 ff ff 	mov    -0x1c58(%rbp),%rax
   11341:	48 8b 00             	mov    (%rax),%rax
   11344:	48 8d 50 ff          	lea    -0x1(%rax),%rdx
   11348:	48 8b 85 a8 e3 ff ff 	mov    -0x1c58(%rbp),%rax
   1134f:	48 89 10             	mov    %rdx,(%rax)
   11352:	48 c7 85 b0 e3 ff ff 	movq   $0x0,-0x1c50(%rbp)
   11359:	00 00 00 00 
   1135d:	48 8b 05 64 72 01 00 	mov    0x17264(%rip),%rax        # 285c8 <g_1097>
   11364:	0f b6 00             	movzbl (%rax),%eax
   11367:	84 c0                	test   %al,%al
   11369:	0f 95 c0             	setne  %al
   1136c:	0f b6 c0             	movzbl %al,%eax
   1136f:	be 01 00 00 00       	mov    $0x1,%esi
   11374:	89 c7                	mov    %eax,%edi
   11376:	e8 97 8e ff ff       	callq  a212 <safe_mul_func_int8_t_s_s>
   1137b:	48 8b 95 88 e3 ff ff 	mov    -0x1c78(%rbp),%rdx
   11382:	48 8b 85 80 e1 ff ff 	mov    -0x1e80(%rbp),%rax
   11389:	8b 00                	mov    (%rax),%eax
   1138b:	89 c1                	mov    %eax,%ecx
   1138d:	89 d0                	mov    %edx,%eax
   1138f:	31 c8                	xor    %ecx,%eax
   11391:	89 c2                	mov    %eax,%edx
   11393:	48 8b 85 80 e1 ff ff 	mov    -0x1e80(%rbp),%rax
   1139a:	89 10                	mov    %edx,(%rax)
   1139c:	48 8b 85 80 e1 ff ff 	mov    -0x1e80(%rbp),%rax
   113a3:	8b 10                	mov    (%rax),%edx
   113a5:	0f b6 85 6c e0 ff ff 	movzbl -0x1f94(%rbp),%eax
   113ac:	39 c2                	cmp    %eax,%edx
   113ae:	0f 9e c0             	setle  %al
   113b1:	89 c2                	mov    %eax,%edx
   113b3:	8b 85 fc e0 ff ff    	mov    -0x1f04(%rbp),%eax
   113b9:	31 d0                	xor    %edx,%eax
   113bb:	0f b6 c0             	movzbl %al,%eax
   113be:	be 02 00 00 00       	mov    $0x2,%esi
   113c3:	89 c7                	mov    %eax,%edi
   113c5:	e8 3b 98 ff ff       	callq  ac05 <safe_lshift_func_uint8_t_u_s>
   113ca:	84 c0                	test   %al,%al
   113cc:	75 09                	jne    113d7 <func_11+0x2ebb>
   113ce:	80 bd 6c e0 ff ff 00 	cmpb   $0x0,-0x1f94(%rbp)
   113d5:	74 07                	je     113de <func_11+0x2ec2>
   113d7:	b8 01 00 00 00       	mov    $0x1,%eax
   113dc:	eb 05                	jmp    113e3 <func_11+0x2ec7>
   113de:	b8 00 00 00 00       	mov    $0x0,%eax
   113e3:	3b 85 fc e0 ff ff    	cmp    -0x1f04(%rbp),%eax
   113e9:	0f 95 c0             	setne  %al
   113ec:	0f b6 c0             	movzbl %al,%eax
   113ef:	f7 d0                	not    %eax
   113f1:	be d8 bb 4d a3       	mov    $0xa34dbbd8,%esi
   113f6:	89 c7                	mov    %eax,%edi
   113f8:	e8 d3 9a ff ff       	callq  aed0 <safe_sub_func_uint32_t_u_u>
   113fd:	48 83 bd 88 e3 ff ff 	cmpq   $0x0,-0x1c78(%rbp)
   11404:	00 
   11405:	0f 94 c0             	sete   %al
   11408:	0f b6 d0             	movzbl %al,%edx
   1140b:	0f b6 85 6c e0 ff ff 	movzbl -0x1f94(%rbp),%eax
   11412:	39 c2                	cmp    %eax,%edx
   11414:	0f 9f c0             	setg   %al
   11417:	0f b6 c0             	movzbl %al,%eax
   1141a:	89 c7                	mov    %eax,%edi
   1141c:	e8 24 97 ff ff       	callq  ab45 <safe_unary_minus_func_uint8_t_u>
   11421:	0f b6 c0             	movzbl %al,%eax
   11424:	be 00 00 00 00       	mov    $0x0,%esi
   11429:	89 c7                	mov    %eax,%edi
   1142b:	e8 88 9a ff ff       	callq  aeb8 <safe_add_func_uint32_t_u_u>
   11430:	48 8b 95 b8 e3 ff ff 	mov    -0x1c48(%rbp),%rdx
   11437:	8b 12                	mov    (%rdx),%edx
   11439:	09 d0                	or     %edx,%eax
   1143b:	89 c2                	mov    %eax,%edx
   1143d:	48 8b 85 b8 e3 ff ff 	mov    -0x1c48(%rbp),%rax
   11444:	89 10                	mov    %edx,(%rax)
   11446:	48 8b 85 b8 e3 ff ff 	mov    -0x1c48(%rbp),%rax
   1144d:	8b 00                	mov    (%rax),%eax
   1144f:	23 85 fc e0 ff ff    	and    -0x1f04(%rbp),%eax
   11455:	89 c2                	mov    %eax,%edx
   11457:	48 8b 85 b8 e3 ff ff 	mov    -0x1c48(%rbp),%rax
   1145e:	89 10                	mov    %edx,(%rax)
   11460:	e9 ef 01 00 00       	jmpq   11654 <func_11+0x3138>
   11465:	c7 85 04 e1 ff ff f6 	movl   $0xfffffff6,-0x1efc(%rbp)
   1146c:	ff ff ff 
   1146f:	48 8d 05 92 2c 01 00 	lea    0x12c92(%rip),%rax        # 24108 <g_261>
   11476:	48 89 85 70 e1 ff ff 	mov    %rax,-0x1e90(%rbp)
   1147d:	48 8d 85 70 e1 ff ff 	lea    -0x1e90(%rbp),%rax
   11484:	48 89 85 78 e1 ff ff 	mov    %rax,-0x1e88(%rbp)
   1148b:	48 8d 85 78 e1 ff ff 	lea    -0x1e88(%rbp),%rax
   11492:	48 89 85 98 e3 ff ff 	mov    %rax,-0x1c68(%rbp)
   11499:	c7 85 08 e1 ff ff ff 	movl   $0xffffffff,-0x1ef8(%rbp)
   114a0:	ff ff ff 
   114a3:	c7 85 0c e1 ff ff 9b 	movl   $0x1ac0d59b,-0x1ef4(%rbp)
   114aa:	d5 c0 1a 
   114ad:	48 83 bd 98 e3 ff ff 	cmpq   $0x0,-0x1c68(%rbp)
   114b4:	00 
   114b5:	0f 95 c0             	setne  %al
   114b8:	0f b6 d8             	movzbl %al,%ebx
   114bb:	83 bd 04 e1 ff ff 00 	cmpl   $0x0,-0x1efc(%rbp)
   114c2:	74 29                	je     114ed <func_11+0x2fd1>
   114c4:	0f b6 95 6c e0 ff ff 	movzbl -0x1f94(%rbp),%edx
   114cb:	48 8b 85 60 e0 ff ff 	mov    -0x1fa0(%rbp),%rax
   114d2:	0f b7 00             	movzwl (%rax),%eax
   114d5:	0f b7 c0             	movzwl %ax,%eax
   114d8:	89 d6                	mov    %edx,%esi
   114da:	89 c7                	mov    %eax,%edi
   114dc:	e8 7b 98 ff ff       	callq  ad5c <safe_mod_func_uint16_t_u_u>
   114e1:	66 85 c0             	test   %ax,%ax
   114e4:	74 07                	je     114ed <func_11+0x2fd1>
   114e6:	b8 01 00 00 00       	mov    $0x1,%eax
   114eb:	eb 05                	jmp    114f2 <func_11+0x2fd6>
   114ed:	b8 00 00 00 00       	mov    $0x0,%eax
   114f2:	98                   	cwtl   
   114f3:	89 de                	mov    %ebx,%esi
   114f5:	89 c7                	mov    %eax,%edi
   114f7:	e8 f9 8e ff ff       	callq  a3f5 <safe_mul_func_int16_t_s_s>
   114fc:	98                   	cwtl   
   114fd:	21 85 08 e1 ff ff    	and    %eax,-0x1ef8(%rbp)
   11503:	80 bd 6c e0 ff ff 00 	cmpb   $0x0,-0x1f94(%rbp)
   1150a:	0f 85 2d 05 00 00    	jne    11a3d <func_11+0x3521>
   11510:	80 bd 6c e0 ff ff 00 	cmpb   $0x0,-0x1f94(%rbp)
   11517:	0f 85 53 05 00 00    	jne    11a70 <func_11+0x3554>
   1151d:	48 8b 85 58 e0 ff ff 	mov    -0x1fa8(%rbp),%rax
   11524:	0f b6 00             	movzbl (%rax),%eax
   11527:	0f b6 d0             	movzbl %al,%edx
   1152a:	0f b6 85 6c e0 ff ff 	movzbl -0x1f94(%rbp),%eax
   11531:	89 d6                	mov    %edx,%esi
   11533:	89 c7                	mov    %eax,%edi
   11535:	e8 20 96 ff ff       	callq  ab5a <safe_add_func_uint8_t_u_u>
   1153a:	0f b6 c0             	movzbl %al,%eax
   1153d:	be 00 00 00 00       	mov    $0x0,%esi
   11542:	89 c7                	mov    %eax,%edi
   11544:	e8 8a 8e ff ff       	callq  a3d3 <safe_sub_func_int16_t_s_s>
   11549:	44 0f bf e0          	movswl %ax,%r12d
   1154d:	48 8b 05 ac 6f 01 00 	mov    0x16fac(%rip),%rax        # 28500 <g_896>
   11554:	48 8b 00             	mov    (%rax),%rax
   11557:	8b 00                	mov    (%rax),%eax
   11559:	be ff ff ff ff       	mov    $0xffffffff,%esi
   1155e:	89 c7                	mov    %eax,%edi
   11560:	e8 53 99 ff ff       	callq  aeb8 <safe_add_func_uint32_t_u_u>
   11565:	85 c0                	test   %eax,%eax
   11567:	0f 85 9d 00 00 00    	jne    1160a <func_11+0x30ee>
   1156d:	8b 85 fc e0 ff ff    	mov    -0x1f04(%rbp),%eax
   11573:	48 63 d8             	movslq %eax,%rbx
   11576:	48 8b 05 f3 2d 01 00 	mov    0x12df3(%rip),%rax        # 24370 <g_440+0x10>
   1157d:	89 c2                	mov    %eax,%edx
   1157f:	48 8b 85 38 e2 ff ff 	mov    -0x1dc8(%rbp),%rax
   11586:	88 10                	mov    %dl,(%rax)
   11588:	48 8b 85 38 e2 ff ff 	mov    -0x1dc8(%rbp),%rax
   1158f:	0f b6 00             	movzbl (%rax),%eax
   11592:	0f b6 c0             	movzbl %al,%eax
   11595:	83 f0 fe             	xor    $0xfffffffe,%eax
   11598:	98                   	cwtl   
   11599:	be 02 00 00 00       	mov    $0x2,%esi
   1159e:	89 c7                	mov    %eax,%edi
   115a0:	e8 be 8f ff ff       	callq  a563 <safe_rshift_func_int16_t_s_u>
   115a5:	89 c2                	mov    %eax,%edx
   115a7:	48 8b 85 98 e3 ff ff 	mov    -0x1c68(%rbp),%rax
   115ae:	48 8b 00             	mov    (%rax),%rax
   115b1:	48 8b 00             	mov    (%rax),%rax
   115b4:	48 0f bf d2          	movswq %dx,%rdx
   115b8:	48 89 10             	mov    %rdx,(%rax)
   115bb:	48 8b 10             	mov    (%rax),%rdx
   115be:	48 8b 85 58 e0 ff ff 	mov    -0x1fa8(%rbp),%rax
   115c5:	0f b6 00             	movzbl (%rax),%eax
   115c8:	0f be c0             	movsbl %al,%eax
   115cb:	89 85 60 e1 ff ff    	mov    %eax,-0x1ea0(%rbp)
   115d1:	8b 8d 60 e1 ff ff    	mov    -0x1ea0(%rbp),%ecx
   115d7:	0f b6 85 6c e0 ff ff 	movzbl -0x1f94(%rbp),%eax
   115de:	39 c1                	cmp    %eax,%ecx
   115e0:	0f 9d c0             	setge  %al
   115e3:	0f b6 c0             	movzbl %al,%eax
   115e6:	48 39 c2             	cmp    %rax,%rdx
   115e9:	0f 92 c0             	setb   %al
   115ec:	0f b6 c0             	movzbl %al,%eax
   115ef:	48 89 de             	mov    %rbx,%rsi
   115f2:	48 89 c7             	mov    %rax,%rdi
   115f5:	e8 51 9a ff ff       	callq  b04b <safe_sub_func_uint64_t_u_u>
   115fa:	89 c2                	mov    %eax,%edx
   115fc:	8b 85 68 e1 ff ff    	mov    -0x1e98(%rbp),%eax
   11602:	21 d0                	and    %edx,%eax
   11604:	89 85 68 e1 ff ff    	mov    %eax,-0x1e98(%rbp)
   1160a:	b8 01 00 00 00       	mov    $0x1,%eax
   1160f:	0f b7 d0             	movzwl %ax,%edx
   11612:	48 8b 85 28 e2 ff ff 	mov    -0x1dd8(%rbp),%rax
   11619:	0f b7 00             	movzwl (%rax),%eax
   1161c:	8d 70 01             	lea    0x1(%rax),%esi
   1161f:	48 8b 8d 28 e2 ff ff 	mov    -0x1dd8(%rbp),%rcx
   11626:	66 89 31             	mov    %si,(%rcx)
   11629:	0f b7 c0             	movzwl %ax,%eax
   1162c:	89 d6                	mov    %edx,%esi
   1162e:	89 c7                	mov    %eax,%edi
   11630:	e8 59 97 ff ff       	callq  ad8e <safe_div_func_uint16_t_u_u>
   11635:	0f b7 c0             	movzwl %ax,%eax
   11638:	44 09 e0             	or     %r12d,%eax
   1163b:	48 98                	cltq   
   1163d:	48 23 85 88 e3 ff ff 	and    -0x1c78(%rbp),%rax
   11644:	89 c2                	mov    %eax,%edx
   11646:	8b 85 0c e1 ff ff    	mov    -0x1ef4(%rbp),%eax
   1164c:	09 d0                	or     %edx,%eax
   1164e:	89 85 0c e1 ff ff    	mov    %eax,-0x1ef4(%rbp)
   11654:	80 bd 6c e0 ff ff 00 	cmpb   $0x0,-0x1f94(%rbp)
   1165b:	0f 85 12 04 00 00    	jne    11a73 <func_11+0x3557>
   11661:	c7 85 88 e0 ff ff 00 	movl   $0x0,-0x1f78(%rbp)
   11668:	00 00 00 
   1166b:	e9 02 02 00 00       	jmpq   11872 <func_11+0x3356>
   11670:	48 8d 85 30 ea ff ff 	lea    -0x15d0(%rbp),%rax
   11677:	48 05 d0 00 00 00    	add    $0xd0,%rax
   1167d:	48 89 85 d0 e3 ff ff 	mov    %rax,-0x1c30(%rbp)
   11684:	66 c7 05 eb 2c 01 00 	movw   $0x12,0x12ceb(%rip)        # 24378 <g_457>
   1168b:	12 00 
   1168d:	eb 52                	jmp    116e1 <func_11+0x31c5>
   1168f:	48 c7 85 d8 e3 ff ff 	movq   $0x0,-0x1c28(%rbp)
   11696:	00 00 00 00 
   1169a:	48 8b 05 e7 81 01 00 	mov    0x181e7(%rip),%rax        # 29888 <g_2036>
   116a1:	8b 00                	mov    (%rax),%eax
   116a3:	85 c0                	test   %eax,%eax
   116a5:	75 49                	jne    116f0 <func_11+0x31d4>
   116a7:	48 8b 85 d8 e3 ff ff 	mov    -0x1c28(%rbp),%rax
   116ae:	48 89 85 d0 e3 ff ff 	mov    %rax,-0x1c30(%rbp)
   116b5:	48 8b 85 a8 e1 ff ff 	mov    -0x1e58(%rbp),%rax
   116bc:	48 8d 95 60 e1 ff ff 	lea    -0x1ea0(%rbp),%rdx
   116c3:	48 89 10             	mov    %rdx,(%rax)
   116c6:	0f b7 05 ab 2c 01 00 	movzwl 0x12cab(%rip),%eax        # 24378 <g_457>
   116cd:	98                   	cwtl   
   116ce:	be 03 00 00 00       	mov    $0x3,%esi
   116d3:	89 c7                	mov    %eax,%edi
   116d5:	e8 d9 8c ff ff       	callq  a3b3 <safe_add_func_int16_t_s_s>
   116da:	66 89 05 97 2c 01 00 	mov    %ax,0x12c97(%rip)        # 24378 <g_457>
   116e1:	0f b7 05 90 2c 01 00 	movzwl 0x12c90(%rip),%eax        # 24378 <g_457>
   116e8:	66 83 f8 30          	cmp    $0x30,%ax
   116ec:	77 a1                	ja     1168f <func_11+0x3173>
   116ee:	eb 01                	jmp    116f1 <func_11+0x31d5>
   116f0:	90                   	nop
   116f1:	0f b6 9d 6c e0 ff ff 	movzbl -0x1f94(%rbp),%ebx
   116f8:	0f b7 85 86 e0 ff ff 	movzwl -0x1f7a(%rbp),%eax
   116ff:	48 39 85 80 e3 ff ff 	cmp    %rax,-0x1c80(%rbp)
   11706:	0f 97 c0             	seta   %al
   11709:	0f b6 d0             	movzbl %al,%edx
   1170c:	8b 05 82 89 01 00    	mov    0x18982(%rip),%eax        # 2a094 <g_2604>
   11712:	0f b6 c0             	movzbl %al,%eax
   11715:	89 d6                	mov    %edx,%esi
   11717:	89 c7                	mov    %eax,%edi
   11719:	e8 e7 94 ff ff       	callq  ac05 <safe_lshift_func_uint8_t_u_s>
   1171e:	44 0f b6 f8          	movzbl %al,%r15d
   11722:	44 8b a5 68 e1 ff ff 	mov    -0x1e98(%rbp),%r12d
   11729:	44 0f b6 ad 6c e0 ff 	movzbl -0x1f94(%rbp),%r13d
   11730:	ff 
   11731:	44 0f b6 b5 6c e0 ff 	movzbl -0x1f94(%rbp),%r14d
   11738:	ff 
   11739:	be 0d 00 00 00       	mov    $0xd,%esi
   1173e:	bf 00 00 00 00       	mov    $0x0,%edi
   11743:	e8 32 97 ff ff       	callq  ae7a <safe_rshift_func_uint16_t_u_u>
   11748:	0f b7 c0             	movzwl %ax,%eax
   1174b:	44 89 f6             	mov    %r14d,%esi
   1174e:	89 c7                	mov    %eax,%edi
   11750:	e8 a8 97 ff ff       	callq  aefd <safe_mod_func_uint32_t_u_u>
   11755:	89 c0                	mov    %eax,%eax
   11757:	4c 89 ee             	mov    %r13,%rsi
   1175a:	48 89 c7             	mov    %rax,%rdi
   1175d:	e8 4d 99 ff ff       	callq  b0af <safe_div_func_uint64_t_u_u>
   11762:	0f b6 c0             	movzbl %al,%eax
   11765:	44 89 e6             	mov    %r12d,%esi
   11768:	89 c7                	mov    %eax,%edi
   1176a:	e8 1e 95 ff ff       	callq  ac8d <safe_rshift_func_uint8_t_u_s>
   1176f:	0f b6 d0             	movzbl %al,%edx
   11772:	48 8b 05 0f 7d 01 00 	mov    0x17d0f(%rip),%rax        # 29488 <g_1522>
   11779:	48 8b 00             	mov    (%rax),%rax
   1177c:	0f b7 00             	movzwl (%rax),%eax
   1177f:	0f b7 c0             	movzwl %ax,%eax
   11782:	09 c2                	or     %eax,%edx
   11784:	0f b6 85 6c e0 ff ff 	movzbl -0x1f94(%rbp),%eax
   1178b:	39 c2                	cmp    %eax,%edx
   1178d:	0f 9f c0             	setg   %al
   11790:	0f b6 c0             	movzbl %al,%eax
   11793:	ba 15 92 07 e8       	mov    $0xe8079215,%edx
   11798:	39 d0                	cmp    %edx,%eax
   1179a:	0f 94 c0             	sete   %al
   1179d:	0f b6 d0             	movzbl %al,%edx
   117a0:	0f b6 85 6c e0 ff ff 	movzbl -0x1f94(%rbp),%eax
   117a7:	09 d0                	or     %edx,%eax
   117a9:	44 31 f8             	xor    %r15d,%eax
   117ac:	0f b7 d0             	movzwl %ax,%edx
   117af:	48 8b 85 28 e2 ff ff 	mov    -0x1dd8(%rbp),%rax
   117b6:	0f b7 00             	movzwl (%rax),%eax
   117b9:	8d 48 01             	lea    0x1(%rax),%ecx
   117bc:	48 8b 85 28 e2 ff ff 	mov    -0x1dd8(%rbp),%rax
   117c3:	66 89 08             	mov    %cx,(%rax)
   117c6:	48 8b 85 28 e2 ff ff 	mov    -0x1dd8(%rbp),%rax
   117cd:	0f b7 00             	movzwl (%rax),%eax
   117d0:	0f b7 c0             	movzwl %ax,%eax
   117d3:	89 d6                	mov    %edx,%esi
   117d5:	89 c7                	mov    %eax,%edi
   117d7:	e8 23 95 ff ff       	callq  acff <safe_add_func_uint16_t_u_u>
   117dc:	66 85 c0             	test   %ax,%ax
   117df:	74 19                	je     117fa <func_11+0x32de>
   117e1:	48 8b 05 a0 7c 01 00 	mov    0x17ca0(%rip),%rax        # 29488 <g_1522>
   117e8:	48 8b 00             	mov    (%rax),%rax
   117eb:	0f b7 00             	movzwl (%rax),%eax
   117ee:	66 85 c0             	test   %ax,%ax
   117f1:	74 07                	je     117fa <func_11+0x32de>
   117f3:	b8 01 00 00 00       	mov    $0x1,%eax
   117f8:	eb 05                	jmp    117ff <func_11+0x32e3>
   117fa:	b8 00 00 00 00       	mov    $0x0,%eax
   117ff:	3d 81 00 00 00       	cmp    $0x81,%eax
   11804:	7f 15                	jg     1181b <func_11+0x32ff>
   11806:	48 8b 85 58 e0 ff ff 	mov    -0x1fa8(%rbp),%rax
   1180d:	0f b6 00             	movzbl (%rax),%eax
   11810:	84 c0                	test   %al,%al
   11812:	74 07                	je     1181b <func_11+0x32ff>
   11814:	b8 01 00 00 00       	mov    $0x1,%eax
   11819:	eb 05                	jmp    11820 <func_11+0x3304>
   1181b:	b8 00 00 00 00       	mov    $0x0,%eax
   11820:	0f b7 c0             	movzwl %ax,%eax
   11823:	89 de                	mov    %ebx,%esi
   11825:	89 c7                	mov    %eax,%edi
   11827:	e8 92 95 ff ff       	callq  adbe <safe_lshift_func_uint16_t_u_s>
   1182c:	0f b6 85 6c e0 ff ff 	movzbl -0x1f94(%rbp),%eax
   11833:	be 01 00 00 00       	mov    $0x1,%esi
   11838:	89 c7                	mov    %eax,%edi
   1183a:	e8 77 8d ff ff       	callq  a5b6 <safe_add_func_int32_t_s_s>
   1183f:	89 c2                	mov    %eax,%edx
   11841:	48 8b 85 80 e3 ff ff 	mov    -0x1c80(%rbp),%rax
   11848:	09 d0                	or     %edx,%eax
   1184a:	f7 d0                	not    %eax
   1184c:	89 c2                	mov    %eax,%edx
   1184e:	48 8b 85 80 e1 ff ff 	mov    -0x1e80(%rbp),%rax
   11855:	89 10                	mov    %edx,(%rax)
   11857:	8b 85 88 e0 ff ff    	mov    -0x1f78(%rbp),%eax
   1185d:	48 98                	cltq   
   1185f:	be 04 00 00 00       	mov    $0x4,%esi
   11864:	48 89 c7             	mov    %rax,%rdi
   11867:	e8 df 97 ff ff       	callq  b04b <safe_sub_func_uint64_t_u_u>
   1186c:	89 85 88 e0 ff ff    	mov    %eax,-0x1f78(%rbp)
   11872:	8b 85 88 e0 ff ff    	mov    -0x1f78(%rbp),%eax
   11878:	83 f8 f1             	cmp    $0xfffffff1,%eax
   1187b:	0f 84 ef fd ff ff    	je     11670 <func_11+0x3154>
   11881:	48 8b 05 30 6b 01 00 	mov    0x16b30(%rip),%rax        # 283b8 <g_264>
   11888:	48 8b 00             	mov    (%rax),%rax
   1188b:	48 8b 00             	mov    (%rax),%rax
   1188e:	48 8b 05 0b 28 01 00 	mov    0x1280b(%rip),%rax        # 240a0 <g_101>
   11895:	89 c1                	mov    %eax,%ecx
   11897:	48 8b 85 50 e2 ff ff 	mov    -0x1db0(%rbp),%rax
   1189e:	8b 10                	mov    (%rax),%edx
   118a0:	48 8b 05 d1 7b 01 00 	mov    0x17bd1(%rip),%rax        # 29478 <g_1351>
   118a7:	48 8b 00             	mov    (%rax),%rax
   118aa:	21 d0                	and    %edx,%eax
   118ac:	25 dc 12 9d 97       	and    $0x979d12dc,%eax
   118b1:	89 c2                	mov    %eax,%edx
   118b3:	48 8b 85 50 e2 ff ff 	mov    -0x1db0(%rbp),%rax
   118ba:	89 10                	mov    %edx,(%rax)
   118bc:	48 8b 85 50 e2 ff ff 	mov    -0x1db0(%rbp),%rax
   118c3:	8b 00                	mov    (%rax),%eax
   118c5:	85 c0                	test   %eax,%eax
   118c7:	74 07                	je     118d0 <func_11+0x33b4>
   118c9:	b8 01 00 00 00       	mov    $0x1,%eax
   118ce:	eb 05                	jmp    118d5 <func_11+0x33b9>
   118d0:	b8 00 00 00 00       	mov    $0x0,%eax
   118d5:	48 63 d0             	movslq %eax,%rdx
   118d8:	48 8b 05 b1 38 01 00 	mov    0x138b1(%rip),%rax        # 25190 <g_2421+0x10>
   118df:	48 09 d0             	or     %rdx,%rax
   118e2:	48 85 c0             	test   %rax,%rax
   118e5:	75 0f                	jne    118f6 <func_11+0x33da>
   118e7:	48 8b 05 92 7b 01 00 	mov    0x17b92(%rip),%rax        # 29480 <g_1523>
   118ee:	0f b7 00             	movzwl (%rax),%eax
   118f1:	66 85 c0             	test   %ax,%ax
   118f4:	74 07                	je     118fd <func_11+0x33e1>
   118f6:	b8 01 00 00 00       	mov    $0x1,%eax
   118fb:	eb 05                	jmp    11902 <func_11+0x33e6>
   118fd:	b8 00 00 00 00       	mov    $0x0,%eax
   11902:	89 ce                	mov    %ecx,%esi
   11904:	89 c7                	mov    %eax,%edi
   11906:	e8 f4 8d ff ff       	callq  a6ff <safe_div_func_int32_t_s_s>
   1190b:	89 05 7f 87 01 00    	mov    %eax,0x1877f(%rip)        # 2a090 <g_2377>
   11911:	8b 15 79 87 01 00    	mov    0x18779(%rip),%edx        # 2a090 <g_2377>
   11917:	8b 05 2b 2c 01 00    	mov    0x12c2b(%rip),%eax        # 24548 <g_954>
   1191d:	31 d0                	xor    %edx,%eax
   1191f:	89 05 23 2c 01 00    	mov    %eax,0x12c23(%rip)        # 24548 <g_954>
   11925:	8b 05 1d 2c 01 00    	mov    0x12c1d(%rip),%eax        # 24548 <g_954>
   1192b:	85 c0                	test   %eax,%eax
   1192d:	75 0c                	jne    1193b <func_11+0x341f>
   1192f:	0f b6 85 6c e0 ff ff 	movzbl -0x1f94(%rbp),%eax
   11936:	e9 1e 0c 00 00       	jmpq   12559 <func_11+0x403d>
   1193b:	48 c7 85 c0 e3 ff ff 	movq   $0x0,-0x1c40(%rbp)
   11942:	00 00 00 00 
   11946:	48 8d 05 bb 27 01 00 	lea    0x127bb(%rip),%rax        # 24108 <g_261>
   1194d:	48 89 85 c8 e3 ff ff 	mov    %rax,-0x1c38(%rbp)
   11954:	48 8d 85 00 e4 ff ff 	lea    -0x1c00(%rbp),%rax
   1195b:	48 83 c0 0c          	add    $0xc,%rax
   1195f:	48 89 85 00 f4 ff ff 	mov    %rax,-0xc00(%rbp)
   11966:	48 8d 85 00 e4 ff ff 	lea    -0x1c00(%rbp),%rax
   1196d:	48 83 c0 0c          	add    $0xc,%rax
   11971:	48 89 85 08 f4 ff ff 	mov    %rax,-0xbf8(%rbp)
   11978:	48 c7 85 10 f4 ff ff 	movq   $0x0,-0xbf0(%rbp)
   1197f:	00 00 00 00 
   11983:	48 8d 85 00 e4 ff ff 	lea    -0x1c00(%rbp),%rax
   1198a:	48 83 c0 0c          	add    $0xc,%rax
   1198e:	48 89 85 18 f4 ff ff 	mov    %rax,-0xbe8(%rbp)
   11995:	48 8d 85 00 e4 ff ff 	lea    -0x1c00(%rbp),%rax
   1199c:	48 83 c0 0c          	add    $0xc,%rax
   119a0:	48 89 85 20 f4 ff ff 	mov    %rax,-0xbe0(%rbp)
   119a7:	48 c7 85 28 f4 ff ff 	movq   $0x0,-0xbd8(%rbp)
   119ae:	00 00 00 00 
   119b2:	48 8b 85 80 e1 ff ff 	mov    -0x1e80(%rbp),%rax
   119b9:	8b 10                	mov    (%rax),%edx
   119bb:	48 83 bd 68 e2 ff ff 	cmpq   $0x0,-0x1d98(%rbp)
   119c2:	00 
   119c3:	0f 95 c0             	setne  %al
   119c6:	0f b6 c0             	movzbl %al,%eax
   119c9:	31 c2                	xor    %eax,%edx
   119cb:	48 8b 85 80 e1 ff ff 	mov    -0x1e80(%rbp),%rax
   119d2:	89 10                	mov    %edx,(%rax)
   119d4:	48 8b 85 c8 e3 ff ff 	mov    -0x1c38(%rbp),%rax
   119db:	48 c7 00 00 00 00 00 	movq   $0x0,(%rax)
   119e2:	b8 01 00 00 00       	mov    $0x1,%eax
   119e7:	09 85 c0 e0 ff ff    	or     %eax,-0x1f40(%rbp)
   119ed:	80 bd 6c e0 ff ff 00 	cmpb   $0x0,-0x1f94(%rbp)
   119f4:	75 4a                	jne    11a40 <func_11+0x3524>
   119f6:	66 c7 05 39 26 01 00 	movw   $0x0,0x12639(%rip)        # 24038 <g_42>
   119fd:	00 00 
   119ff:	eb 2d                	jmp    11a2e <func_11+0x3512>
   11a01:	48 8b 85 10 f4 ff ff 	mov    -0xbf0(%rbp),%rax
   11a08:	48 89 85 d8 f9 ff ff 	mov    %rax,-0x628(%rbp)
   11a0f:	48 8d 85 68 e1 ff ff 	lea    -0x1e98(%rbp),%rax
   11a16:	48 89 85 d8 f9 ff ff 	mov    %rax,-0x628(%rbp)
   11a1d:	0f b7 05 14 26 01 00 	movzwl 0x12614(%rip),%eax        # 24038 <g_42>
   11a24:	83 c0 01             	add    $0x1,%eax
   11a27:	66 89 05 0a 26 01 00 	mov    %ax,0x1260a(%rip)        # 24038 <g_42>
   11a2e:	0f b7 05 03 26 01 00 	movzwl 0x12603(%rip),%eax        # 24038 <g_42>
   11a35:	66 83 f8 05          	cmp    $0x5,%ax
   11a39:	76 c6                	jbe    11a01 <func_11+0x34e5>
   11a3b:	eb 04                	jmp    11a41 <func_11+0x3525>
   11a3d:	90                   	nop
   11a3e:	eb 01                	jmp    11a41 <func_11+0x3525>
   11a40:	90                   	nop
   11a41:	8b 05 31 27 01 00    	mov    0x12731(%rip),%eax        # 24178 <g_305>
   11a47:	0f be c0             	movsbl %al,%eax
   11a4a:	be 01 00 00 00       	mov    $0x1,%esi
   11a4f:	89 c7                	mov    %eax,%edi
   11a51:	e8 9c 87 ff ff       	callq  a1f2 <safe_sub_func_int8_t_s_s>
   11a56:	0f be c0             	movsbl %al,%eax
   11a59:	89 05 19 27 01 00    	mov    %eax,0x12719(%rip)        # 24178 <g_305>
   11a5f:	8b 05 13 27 01 00    	mov    0x12713(%rip),%eax        # 24178 <g_305>
   11a65:	83 f8 f6             	cmp    $0xfffffff6,%eax
   11a68:	0f 85 1e f7 ff ff    	jne    1118c <func_11+0x2c70>
   11a6e:	eb 04                	jmp    11a74 <func_11+0x3558>
   11a70:	90                   	nop
   11a71:	eb 01                	jmp    11a74 <func_11+0x3558>
   11a73:	90                   	nop
   11a74:	48 8b 85 58 e2 ff ff 	mov    -0x1da8(%rbp),%rax
   11a7b:	66 c7 00 00 00       	movw   $0x0,(%rax)
   11a80:	0f b6 9d 6c e0 ff ff 	movzbl -0x1f94(%rbp),%ebx
   11a87:	48 8b 85 38 e2 ff ff 	mov    -0x1dc8(%rbp),%rax
   11a8e:	0f b6 00             	movzbl (%rax),%eax
   11a91:	8d 50 01             	lea    0x1(%rax),%edx
   11a94:	48 8b 85 38 e2 ff ff 	mov    -0x1dc8(%rbp),%rax
   11a9b:	88 10                	mov    %dl,(%rax)
   11a9d:	8b 85 88 e0 ff ff    	mov    -0x1f78(%rbp),%eax
   11aa3:	44 0f bf e0          	movswl %ax,%r12d
   11aa7:	0f b6 95 6c e0 ff ff 	movzbl -0x1f94(%rbp),%edx
   11aae:	48 8b 85 60 e0 ff ff 	mov    -0x1fa0(%rbp),%rax
   11ab5:	0f b7 00             	movzwl (%rax),%eax
   11ab8:	0f b7 c0             	movzwl %ax,%eax
   11abb:	89 d6                	mov    %edx,%esi
   11abd:	89 c7                	mov    %eax,%edi
   11abf:	e8 fa 92 ff ff       	callq  adbe <safe_lshift_func_uint16_t_u_s>
   11ac4:	66 3d 0f 25          	cmp    $0x250f,%ax
   11ac8:	77 0b                	ja     11ad5 <func_11+0x35b9>
   11aca:	48 8b 05 af 68 01 00 	mov    0x168af(%rip),%rax        # 28380 <g_64>
   11ad1:	8b 00                	mov    (%rax),%eax
   11ad3:	85 c0                	test   %eax,%eax
   11ad5:	44 89 e6             	mov    %r12d,%esi
   11ad8:	bf 01 00 00 00       	mov    $0x1,%edi
   11add:	e8 d1 88 ff ff       	callq  a3b3 <safe_add_func_int16_t_s_s>
   11ae2:	48 8b 05 0f 6a 01 00 	mov    0x16a0f(%rip),%rax        # 284f8 <g_897>
   11ae9:	8b 00                	mov    (%rax),%eax
   11aeb:	89 de                	mov    %ebx,%esi
   11aed:	89 c7                	mov    %eax,%edi
   11aef:	e8 c4 93 ff ff       	callq  aeb8 <safe_add_func_uint32_t_u_u>
   11af4:	0f be c0             	movsbl %al,%eax
   11af7:	be 01 00 00 00       	mov    $0x1,%esi
   11afc:	89 c7                	mov    %eax,%edi
   11afe:	e8 32 88 ff ff       	callq  a335 <safe_rshift_func_int8_t_s_s>
   11b03:	84 c0                	test   %al,%al
   11b05:	75 07                	jne    11b0e <func_11+0x35f2>
   11b07:	80 bd 6c e0 ff ff 00 	cmpb   $0x0,-0x1f94(%rbp)
   11b0e:	83 bd c8 e0 ff ff 01 	cmpl   $0x1,-0x1f38(%rbp)
   11b15:	0f 94 c0             	sete   %al
   11b18:	0f b6 c0             	movzbl %al,%eax
   11b1b:	be b4 83 b2 09       	mov    $0x9b283b4,%esi
   11b20:	89 c7                	mov    %eax,%edi
   11b22:	e8 8f 8a ff ff       	callq  a5b6 <safe_add_func_int32_t_s_s>
   11b27:	0f b7 c0             	movzwl %ax,%eax
   11b2a:	be 07 00 00 00       	mov    $0x7,%esi
   11b2f:	89 c7                	mov    %eax,%edi
   11b31:	e8 44 93 ff ff       	callq  ae7a <safe_rshift_func_uint16_t_u_u>
   11b36:	0f b7 c0             	movzwl %ax,%eax
   11b39:	89 c6                	mov    %eax,%esi
   11b3b:	bf 06 00 00 00       	mov    $0x6,%edi
   11b40:	e8 48 91 ff ff       	callq  ac8d <safe_rshift_func_uint8_t_u_s>
   11b45:	48 8b 95 80 e1 ff ff 	mov    -0x1e80(%rbp),%rdx
   11b4c:	8b 12                	mov    (%rdx),%edx
   11b4e:	0f b6 c0             	movzbl %al,%eax
   11b51:	21 c2                	and    %eax,%edx
   11b53:	48 8b 85 80 e1 ff ff 	mov    -0x1e80(%rbp),%rax
   11b5a:	89 10                	mov    %edx,(%rax)
   11b5c:	e9 e5 09 00 00       	jmpq   12546 <func_11+0x402a>
   11b61:	c7 85 f8 e0 ff ff 00 	movl   $0x0,-0x1f08(%rbp)
   11b68:	00 00 00 
   11b6b:	48 8d 85 00 f9 ff ff 	lea    -0x700(%rbp),%rax
   11b72:	48 8d 15 a7 57 01 00 	lea    0x157a7(%rip),%rdx        # 27320 <g_3508+0x840>
   11b79:	b9 d8 00 00 00       	mov    $0xd8,%ecx
   11b7e:	48 89 c7             	mov    %rax,%rdi
   11b81:	48 89 d6             	mov    %rdx,%rsi
   11b84:	f3 48 a5             	rep movsq %ds:(%rsi),%es:(%rdi)
   11b87:	48 8d 05 02 68 01 00 	lea    0x16802(%rip),%rax        # 28390 <g_87>
   11b8e:	48 89 85 78 e3 ff ff 	mov    %rax,-0x1c88(%rbp)
   11b95:	48 8d 05 fe 24 01 00 	lea    0x124fe(%rip),%rax        # 2409a <g_98>
   11b9c:	48 89 85 00 f4 ff ff 	mov    %rax,-0xc00(%rbp)
   11ba3:	48 8d 05 ee 24 01 00 	lea    0x124ee(%rip),%rax        # 24098 <g_96>
   11baa:	48 89 85 08 f4 ff ff 	mov    %rax,-0xbf8(%rbp)
   11bb1:	48 8d 05 e0 24 01 00 	lea    0x124e0(%rip),%rax        # 24098 <g_96>
   11bb8:	48 89 85 10 f4 ff ff 	mov    %rax,-0xbf0(%rbp)
   11bbf:	48 8d 05 d2 24 01 00 	lea    0x124d2(%rip),%rax        # 24098 <g_96>
   11bc6:	48 89 85 18 f4 ff ff 	mov    %rax,-0xbe8(%rbp)
   11bcd:	48 8d 05 c6 24 01 00 	lea    0x124c6(%rip),%rax        # 2409a <g_98>
   11bd4:	48 89 85 20 f4 ff ff 	mov    %rax,-0xbe0(%rbp)
   11bdb:	48 8d 05 b6 24 01 00 	lea    0x124b6(%rip),%rax        # 24098 <g_96>
   11be2:	48 89 85 28 f4 ff ff 	mov    %rax,-0xbd8(%rbp)
   11be9:	48 c7 85 30 f4 ff ff 	movq   $0x0,-0xbd0(%rbp)
   11bf0:	00 00 00 00 
   11bf4:	48 c7 85 38 f4 ff ff 	movq   $0x0,-0xbc8(%rbp)
   11bfb:	00 00 00 00 
   11bff:	48 8d 05 94 24 01 00 	lea    0x12494(%rip),%rax        # 2409a <g_98>
   11c06:	48 89 85 40 f4 ff ff 	mov    %rax,-0xbc0(%rbp)
   11c0d:	48 8d 05 84 24 01 00 	lea    0x12484(%rip),%rax        # 24098 <g_96>
   11c14:	48 89 85 48 f4 ff ff 	mov    %rax,-0xbb8(%rbp)
   11c1b:	48 8d 85 78 e0 ff ff 	lea    -0x1f88(%rbp),%rax
   11c22:	48 89 85 50 f4 ff ff 	mov    %rax,-0xbb0(%rbp)
   11c29:	48 8d 85 78 e0 ff ff 	lea    -0x1f88(%rbp),%rax
   11c30:	48 89 85 58 f4 ff ff 	mov    %rax,-0xba8(%rbp)
   11c37:	48 8d 05 5a 24 01 00 	lea    0x1245a(%rip),%rax        # 24098 <g_96>
   11c3e:	48 89 85 60 f4 ff ff 	mov    %rax,-0xba0(%rbp)
   11c45:	48 8d 05 4e 24 01 00 	lea    0x1244e(%rip),%rax        # 2409a <g_98>
   11c4c:	48 89 85 68 f4 ff ff 	mov    %rax,-0xb98(%rbp)
   11c53:	48 8d 05 b6 82 01 00 	lea    0x182b6(%rip),%rax        # 29f10 <g_144>
   11c5a:	48 89 85 70 f4 ff ff 	mov    %rax,-0xb90(%rbp)
   11c61:	48 8d 05 30 24 01 00 	lea    0x12430(%rip),%rax        # 24098 <g_96>
   11c68:	48 89 85 78 f4 ff ff 	mov    %rax,-0xb88(%rbp)
   11c6f:	48 c7 85 80 f4 ff ff 	movq   $0x0,-0xb80(%rbp)
   11c76:	00 00 00 00 
   11c7a:	48 8d 05 8f 82 01 00 	lea    0x1828f(%rip),%rax        # 29f10 <g_144>
   11c81:	48 89 85 88 f4 ff ff 	mov    %rax,-0xb78(%rbp)
   11c88:	48 8d 85 78 e0 ff ff 	lea    -0x1f88(%rbp),%rax
   11c8f:	48 89 85 90 f4 ff ff 	mov    %rax,-0xb70(%rbp)
   11c96:	48 c7 85 98 f4 ff ff 	movq   $0x0,-0xb68(%rbp)
   11c9d:	00 00 00 00 
   11ca1:	48 8d 85 78 e0 ff ff 	lea    -0x1f88(%rbp),%rax
   11ca8:	48 89 85 a0 f4 ff ff 	mov    %rax,-0xb60(%rbp)
   11caf:	48 8d 05 5a 82 01 00 	lea    0x1825a(%rip),%rax        # 29f10 <g_144>
   11cb6:	48 89 85 a8 f4 ff ff 	mov    %rax,-0xb58(%rbp)
   11cbd:	48 c7 85 b0 f4 ff ff 	movq   $0x0,-0xb50(%rbp)
   11cc4:	00 00 00 00 
   11cc8:	48 8d 05 cb 23 01 00 	lea    0x123cb(%rip),%rax        # 2409a <g_98>
   11ccf:	48 89 85 b8 f4 ff ff 	mov    %rax,-0xb48(%rbp)
   11cd6:	48 8d 05 bb 23 01 00 	lea    0x123bb(%rip),%rax        # 24098 <g_96>
   11cdd:	48 89 85 c0 f4 ff ff 	mov    %rax,-0xb40(%rbp)
   11ce4:	48 8d 05 af 23 01 00 	lea    0x123af(%rip),%rax        # 2409a <g_98>
   11ceb:	48 89 85 c8 f4 ff ff 	mov    %rax,-0xb38(%rbp)
   11cf2:	48 8d 05 9f 23 01 00 	lea    0x1239f(%rip),%rax        # 24098 <g_96>
   11cf9:	48 89 85 d0 f4 ff ff 	mov    %rax,-0xb30(%rbp)
   11d00:	48 c7 85 d8 f4 ff ff 	movq   $0x0,-0xb28(%rbp)
   11d07:	00 00 00 00 
   11d0b:	48 c7 85 e0 f4 ff ff 	movq   $0x0,-0xb20(%rbp)
   11d12:	00 00 00 00 
   11d16:	48 8d 05 7b 23 01 00 	lea    0x1237b(%rip),%rax        # 24098 <g_96>
   11d1d:	48 89 85 e8 f4 ff ff 	mov    %rax,-0xb18(%rbp)
   11d24:	48 8d 05 6f 23 01 00 	lea    0x1236f(%rip),%rax        # 2409a <g_98>
   11d2b:	48 89 85 f0 f4 ff ff 	mov    %rax,-0xb10(%rbp)
   11d32:	48 8d 05 5f 23 01 00 	lea    0x1235f(%rip),%rax        # 24098 <g_96>
   11d39:	48 89 85 f8 f4 ff ff 	mov    %rax,-0xb08(%rbp)
   11d40:	48 8d 05 53 23 01 00 	lea    0x12353(%rip),%rax        # 2409a <g_98>
   11d47:	48 89 85 00 f5 ff ff 	mov    %rax,-0xb00(%rbp)
   11d4e:	48 c7 85 08 f5 ff ff 	movq   $0x0,-0xaf8(%rbp)
   11d55:	00 00 00 00 
   11d59:	48 8d 05 b0 81 01 00 	lea    0x181b0(%rip),%rax        # 29f10 <g_144>
   11d60:	48 89 85 10 f5 ff ff 	mov    %rax,-0xaf0(%rbp)
   11d67:	48 8d 85 78 e0 ff ff 	lea    -0x1f88(%rbp),%rax
   11d6e:	48 89 85 18 f5 ff ff 	mov    %rax,-0xae8(%rbp)
   11d75:	48 8d 05 1e 23 01 00 	lea    0x1231e(%rip),%rax        # 2409a <g_98>
   11d7c:	48 89 85 20 f5 ff ff 	mov    %rax,-0xae0(%rbp)
   11d83:	48 8d 85 78 e0 ff ff 	lea    -0x1f88(%rbp),%rax
   11d8a:	48 89 85 28 f5 ff ff 	mov    %rax,-0xad8(%rbp)
   11d91:	48 8d 05 00 23 01 00 	lea    0x12300(%rip),%rax        # 24098 <g_96>
   11d98:	48 89 85 30 f5 ff ff 	mov    %rax,-0xad0(%rbp)
   11d9f:	48 8d 05 f4 22 01 00 	lea    0x122f4(%rip),%rax        # 2409a <g_98>
   11da6:	48 89 85 38 f5 ff ff 	mov    %rax,-0xac8(%rbp)
   11dad:	48 8d 85 78 e0 ff ff 	lea    -0x1f88(%rbp),%rax
   11db4:	48 89 85 40 f5 ff ff 	mov    %rax,-0xac0(%rbp)
   11dbb:	48 8d 05 d6 22 01 00 	lea    0x122d6(%rip),%rax        # 24098 <g_96>
   11dc2:	48 89 85 48 f5 ff ff 	mov    %rax,-0xab8(%rbp)
   11dc9:	48 8d 05 c8 22 01 00 	lea    0x122c8(%rip),%rax        # 24098 <g_96>
   11dd0:	48 89 85 50 f5 ff ff 	mov    %rax,-0xab0(%rbp)
   11dd7:	48 8d 85 78 e0 ff ff 	lea    -0x1f88(%rbp),%rax
   11dde:	48 89 85 58 f5 ff ff 	mov    %rax,-0xaa8(%rbp)
   11de5:	48 8d 85 78 e0 ff ff 	lea    -0x1f88(%rbp),%rax
   11dec:	48 89 85 60 f5 ff ff 	mov    %rax,-0xaa0(%rbp)
   11df3:	48 8d 85 78 e0 ff ff 	lea    -0x1f88(%rbp),%rax
   11dfa:	48 89 85 68 f5 ff ff 	mov    %rax,-0xa98(%rbp)
   11e01:	48 8d 85 78 e0 ff ff 	lea    -0x1f88(%rbp),%rax
   11e08:	48 89 85 70 f5 ff ff 	mov    %rax,-0xa90(%rbp)
   11e0f:	48 8d 05 82 22 01 00 	lea    0x12282(%rip),%rax        # 24098 <g_96>
   11e16:	48 89 85 78 f5 ff ff 	mov    %rax,-0xa88(%rbp)
   11e1d:	48 8d 05 76 22 01 00 	lea    0x12276(%rip),%rax        # 2409a <g_98>
   11e24:	48 89 85 80 f5 ff ff 	mov    %rax,-0xa80(%rbp)
   11e2b:	48 8d 05 68 22 01 00 	lea    0x12268(%rip),%rax        # 2409a <g_98>
   11e32:	48 89 85 88 f5 ff ff 	mov    %rax,-0xa78(%rbp)
   11e39:	48 c7 85 90 f5 ff ff 	movq   $0x0,-0xa70(%rbp)
   11e40:	00 00 00 00 
   11e44:	48 8d 05 c5 80 01 00 	lea    0x180c5(%rip),%rax        # 29f10 <g_144>
   11e4b:	48 89 85 98 f5 ff ff 	mov    %rax,-0xa68(%rbp)
   11e52:	48 8d 85 78 e0 ff ff 	lea    -0x1f88(%rbp),%rax
   11e59:	48 89 85 a0 f5 ff ff 	mov    %rax,-0xa60(%rbp)
   11e60:	48 c7 85 a8 f5 ff ff 	movq   $0x0,-0xa58(%rbp)
   11e67:	00 00 00 00 
   11e6b:	48 8d 85 78 e0 ff ff 	lea    -0x1f88(%rbp),%rax
   11e72:	48 89 85 b0 f5 ff ff 	mov    %rax,-0xa50(%rbp)
   11e79:	48 8d 05 90 80 01 00 	lea    0x18090(%rip),%rax        # 29f10 <g_144>
   11e80:	48 89 85 b8 f5 ff ff 	mov    %rax,-0xa48(%rbp)
   11e87:	48 8d 05 0a 22 01 00 	lea    0x1220a(%rip),%rax        # 24098 <g_96>
   11e8e:	48 89 85 c0 f5 ff ff 	mov    %rax,-0xa40(%rbp)
   11e95:	48 8d 05 74 80 01 00 	lea    0x18074(%rip),%rax        # 29f10 <g_144>
   11e9c:	48 89 85 c8 f5 ff ff 	mov    %rax,-0xa38(%rbp)
   11ea3:	48 8d 05 ee 21 01 00 	lea    0x121ee(%rip),%rax        # 24098 <g_96>
   11eaa:	48 89 85 d0 f5 ff ff 	mov    %rax,-0xa30(%rbp)
   11eb1:	48 8d 85 78 e0 ff ff 	lea    -0x1f88(%rbp),%rax
   11eb8:	48 89 85 d8 f5 ff ff 	mov    %rax,-0xa28(%rbp)
   11ebf:	48 8d 05 4a 80 01 00 	lea    0x1804a(%rip),%rax        # 29f10 <g_144>
   11ec6:	48 89 85 e0 f5 ff ff 	mov    %rax,-0xa20(%rbp)
   11ecd:	48 8d 05 c4 21 01 00 	lea    0x121c4(%rip),%rax        # 24098 <g_96>
   11ed4:	48 89 85 e8 f5 ff ff 	mov    %rax,-0xa18(%rbp)
   11edb:	48 8d 05 b6 21 01 00 	lea    0x121b6(%rip),%rax        # 24098 <g_96>
   11ee2:	48 89 85 f0 f5 ff ff 	mov    %rax,-0xa10(%rbp)
   11ee9:	48 8d 05 20 80 01 00 	lea    0x18020(%rip),%rax        # 29f10 <g_144>
   11ef0:	48 89 85 f8 f5 ff ff 	mov    %rax,-0xa08(%rbp)
   11ef7:	48 8d 05 12 80 01 00 	lea    0x18012(%rip),%rax        # 29f10 <g_144>
   11efe:	48 89 85 00 f6 ff ff 	mov    %rax,-0xa00(%rbp)
   11f05:	48 8d 05 8c 21 01 00 	lea    0x1218c(%rip),%rax        # 24098 <g_96>
   11f0c:	48 89 85 08 f6 ff ff 	mov    %rax,-0x9f8(%rbp)
   11f13:	48 8d 05 7e 21 01 00 	lea    0x1217e(%rip),%rax        # 24098 <g_96>
   11f1a:	48 89 85 10 f6 ff ff 	mov    %rax,-0x9f0(%rbp)
   11f21:	48 8d 05 e8 7f 01 00 	lea    0x17fe8(%rip),%rax        # 29f10 <g_144>
   11f28:	48 89 85 18 f6 ff ff 	mov    %rax,-0x9e8(%rbp)
   11f2f:	48 8d 85 78 e0 ff ff 	lea    -0x1f88(%rbp),%rax
   11f36:	48 89 85 20 f6 ff ff 	mov    %rax,-0x9e0(%rbp)
   11f3d:	48 8d 05 54 21 01 00 	lea    0x12154(%rip),%rax        # 24098 <g_96>
   11f44:	48 89 85 28 f6 ff ff 	mov    %rax,-0x9d8(%rbp)
   11f4b:	48 8d 05 be 7f 01 00 	lea    0x17fbe(%rip),%rax        # 29f10 <g_144>
   11f52:	48 89 85 30 f6 ff ff 	mov    %rax,-0x9d0(%rbp)
   11f59:	48 8d 05 38 21 01 00 	lea    0x12138(%rip),%rax        # 24098 <g_96>
   11f60:	48 89 85 38 f6 ff ff 	mov    %rax,-0x9c8(%rbp)
   11f67:	48 8d 05 a2 7f 01 00 	lea    0x17fa2(%rip),%rax        # 29f10 <g_144>
   11f6e:	48 89 85 40 f6 ff ff 	mov    %rax,-0x9c0(%rbp)
   11f75:	48 8d 85 78 e0 ff ff 	lea    -0x1f88(%rbp),%rax
   11f7c:	48 89 85 48 f6 ff ff 	mov    %rax,-0x9b8(%rbp)
   11f83:	48 c7 85 50 f6 ff ff 	movq   $0x0,-0x9b0(%rbp)
   11f8a:	00 00 00 00 
   11f8e:	48 8d 85 78 e0 ff ff 	lea    -0x1f88(%rbp),%rax
   11f95:	48 89 85 58 f6 ff ff 	mov    %rax,-0x9a8(%rbp)
   11f9c:	48 8d 05 6d 7f 01 00 	lea    0x17f6d(%rip),%rax        # 29f10 <g_144>
   11fa3:	48 89 85 60 f6 ff ff 	mov    %rax,-0x9a0(%rbp)
   11faa:	48 c7 85 68 f6 ff ff 	movq   $0x0,-0x998(%rbp)
   11fb1:	00 00 00 00 
   11fb5:	48 8d 05 de 20 01 00 	lea    0x120de(%rip),%rax        # 2409a <g_98>
   11fbc:	48 89 85 70 f6 ff ff 	mov    %rax,-0x990(%rbp)
   11fc3:	48 8d 05 d0 20 01 00 	lea    0x120d0(%rip),%rax        # 2409a <g_98>
   11fca:	48 89 85 78 f6 ff ff 	mov    %rax,-0x988(%rbp)
   11fd1:	48 8d 05 c0 20 01 00 	lea    0x120c0(%rip),%rax        # 24098 <g_96>
   11fd8:	48 89 85 80 f6 ff ff 	mov    %rax,-0x980(%rbp)
   11fdf:	48 8d 85 78 e0 ff ff 	lea    -0x1f88(%rbp),%rax
   11fe6:	48 89 85 88 f6 ff ff 	mov    %rax,-0x978(%rbp)
   11fed:	48 8d 85 78 e0 ff ff 	lea    -0x1f88(%rbp),%rax
   11ff4:	48 89 85 90 f6 ff ff 	mov    %rax,-0x970(%rbp)
   11ffb:	48 8d 85 78 e0 ff ff 	lea    -0x1f88(%rbp),%rax
   12002:	48 89 85 98 f6 ff ff 	mov    %rax,-0x968(%rbp)
   12009:	48 8d 85 78 e0 ff ff 	lea    -0x1f88(%rbp),%rax
   12010:	48 89 85 a0 f6 ff ff 	mov    %rax,-0x960(%rbp)
   12017:	48 8d 05 7a 20 01 00 	lea    0x1207a(%rip),%rax        # 24098 <g_96>
   1201e:	48 89 85 a8 f6 ff ff 	mov    %rax,-0x958(%rbp)
   12025:	48 8d 05 6c 20 01 00 	lea    0x1206c(%rip),%rax        # 24098 <g_96>
   1202c:	48 89 85 b0 f6 ff ff 	mov    %rax,-0x950(%rbp)
   12033:	48 8d 85 78 e0 ff ff 	lea    -0x1f88(%rbp),%rax
   1203a:	48 89 85 b8 f6 ff ff 	mov    %rax,-0x948(%rbp)
   12041:	48 8d 05 52 20 01 00 	lea    0x12052(%rip),%rax        # 2409a <g_98>
   12048:	48 89 85 c0 f6 ff ff 	mov    %rax,-0x940(%rbp)
   1204f:	48 8d 05 42 20 01 00 	lea    0x12042(%rip),%rax        # 24098 <g_96>
   12056:	48 89 85 c8 f6 ff ff 	mov    %rax,-0x938(%rbp)
   1205d:	48 8d 85 78 e0 ff ff 	lea    -0x1f88(%rbp),%rax
   12064:	48 89 85 d0 f6 ff ff 	mov    %rax,-0x930(%rbp)
   1206b:	48 8d 05 28 20 01 00 	lea    0x12028(%rip),%rax        # 2409a <g_98>
   12072:	48 89 85 d8 f6 ff ff 	mov    %rax,-0x928(%rbp)
   12079:	48 8d 85 78 e0 ff ff 	lea    -0x1f88(%rbp),%rax
   12080:	48 89 85 e0 f6 ff ff 	mov    %rax,-0x920(%rbp)
   12087:	48 8d 05 0a 20 01 00 	lea    0x1200a(%rip),%rax        # 24098 <g_96>
   1208e:	48 89 85 e8 f6 ff ff 	mov    %rax,-0x918(%rbp)
   12095:	48 8d 05 fe 1f 01 00 	lea    0x11ffe(%rip),%rax        # 2409a <g_98>
   1209c:	48 89 85 f0 f6 ff ff 	mov    %rax,-0x910(%rbp)
   120a3:	48 8d 05 ee 1f 01 00 	lea    0x11fee(%rip),%rax        # 24098 <g_96>
   120aa:	48 89 85 f8 f6 ff ff 	mov    %rax,-0x908(%rbp)
   120b1:	48 8d 85 78 e0 ff ff 	lea    -0x1f88(%rbp),%rax
   120b8:	48 89 85 00 f7 ff ff 	mov    %rax,-0x900(%rbp)
   120bf:	48 8d 05 4a 7e 01 00 	lea    0x17e4a(%rip),%rax        # 29f10 <g_144>
   120c6:	48 89 85 08 f7 ff ff 	mov    %rax,-0x8f8(%rbp)
   120cd:	48 c7 85 10 f7 ff ff 	movq   $0x0,-0x8f0(%rbp)
   120d4:	00 00 00 00 
   120d8:	48 8d 05 bb 1f 01 00 	lea    0x11fbb(%rip),%rax        # 2409a <g_98>
   120df:	48 89 85 18 f7 ff ff 	mov    %rax,-0x8e8(%rbp)
   120e6:	48 8d 05 ad 1f 01 00 	lea    0x11fad(%rip),%rax        # 2409a <g_98>
   120ed:	48 89 85 20 f7 ff ff 	mov    %rax,-0x8e0(%rbp)
   120f4:	48 c7 85 28 f7 ff ff 	movq   $0x0,-0x8d8(%rbp)
   120fb:	00 00 00 00 
   120ff:	48 8d 05 0a 7e 01 00 	lea    0x17e0a(%rip),%rax        # 29f10 <g_144>
   12106:	48 89 85 30 f7 ff ff 	mov    %rax,-0x8d0(%rbp)
   1210d:	48 8d 85 78 e0 ff ff 	lea    -0x1f88(%rbp),%rax
   12114:	48 89 85 38 f7 ff ff 	mov    %rax,-0x8c8(%rbp)
   1211b:	48 8d 05 76 1f 01 00 	lea    0x11f76(%rip),%rax        # 24098 <g_96>
   12122:	48 89 85 40 f7 ff ff 	mov    %rax,-0x8c0(%rbp)
   12129:	48 8d 05 6a 1f 01 00 	lea    0x11f6a(%rip),%rax        # 2409a <g_98>
   12130:	48 89 85 48 f7 ff ff 	mov    %rax,-0x8b8(%rbp)
   12137:	48 8d 05 5a 1f 01 00 	lea    0x11f5a(%rip),%rax        # 24098 <g_96>
   1213e:	48 89 85 50 f7 ff ff 	mov    %rax,-0x8b0(%rbp)
   12145:	48 8d 85 78 e0 ff ff 	lea    -0x1f88(%rbp),%rax
   1214c:	48 89 85 58 f7 ff ff 	mov    %rax,-0x8a8(%rbp)
   12153:	48 8d 05 40 1f 01 00 	lea    0x11f40(%rip),%rax        # 2409a <g_98>
   1215a:	48 89 85 60 f7 ff ff 	mov    %rax,-0x8a0(%rbp)
   12161:	48 8d 85 78 e0 ff ff 	lea    -0x1f88(%rbp),%rax
   12168:	48 89 85 68 f7 ff ff 	mov    %rax,-0x898(%rbp)
   1216f:	48 8d 05 22 1f 01 00 	lea    0x11f22(%rip),%rax        # 24098 <g_96>
   12176:	48 89 85 70 f7 ff ff 	mov    %rax,-0x890(%rbp)
   1217d:	48 8d 05 16 1f 01 00 	lea    0x11f16(%rip),%rax        # 2409a <g_98>
   12184:	48 89 85 78 f7 ff ff 	mov    %rax,-0x888(%rbp)
   1218b:	48 8d 85 78 e0 ff ff 	lea    -0x1f88(%rbp),%rax
   12192:	48 89 85 80 f7 ff ff 	mov    %rax,-0x880(%rbp)
   12199:	48 8d 05 f8 1e 01 00 	lea    0x11ef8(%rip),%rax        # 24098 <g_96>
   121a0:	48 89 85 88 f7 ff ff 	mov    %rax,-0x878(%rbp)
   121a7:	48 8d 05 ea 1e 01 00 	lea    0x11eea(%rip),%rax        # 24098 <g_96>
   121ae:	48 89 85 90 f7 ff ff 	mov    %rax,-0x870(%rbp)
   121b5:	48 8d 85 78 e0 ff ff 	lea    -0x1f88(%rbp),%rax
   121bc:	48 89 85 98 f7 ff ff 	mov    %rax,-0x868(%rbp)
   121c3:	48 8d 85 78 e0 ff ff 	lea    -0x1f88(%rbp),%rax
   121ca:	48 89 85 a0 f7 ff ff 	mov    %rax,-0x860(%rbp)
   121d1:	48 8d 85 78 e0 ff ff 	lea    -0x1f88(%rbp),%rax
   121d8:	48 89 85 a8 f7 ff ff 	mov    %rax,-0x858(%rbp)
   121df:	48 8d 85 78 e0 ff ff 	lea    -0x1f88(%rbp),%rax
   121e6:	48 89 85 b0 f7 ff ff 	mov    %rax,-0x850(%rbp)
   121ed:	48 8d 05 a4 1e 01 00 	lea    0x11ea4(%rip),%rax        # 24098 <g_96>
   121f4:	48 89 85 b8 f7 ff ff 	mov    %rax,-0x848(%rbp)
   121fb:	48 8d 05 98 1e 01 00 	lea    0x11e98(%rip),%rax        # 2409a <g_98>
   12202:	48 89 85 c0 f7 ff ff 	mov    %rax,-0x840(%rbp)
   12209:	48 8d 05 8a 1e 01 00 	lea    0x11e8a(%rip),%rax        # 2409a <g_98>
   12210:	48 89 85 c8 f7 ff ff 	mov    %rax,-0x838(%rbp)
   12217:	48 c7 85 d0 f7 ff ff 	movq   $0x0,-0x830(%rbp)
   1221e:	00 00 00 00 
   12222:	48 8d 05 e7 7c 01 00 	lea    0x17ce7(%rip),%rax        # 29f10 <g_144>
   12229:	48 89 85 d8 f7 ff ff 	mov    %rax,-0x828(%rbp)
   12230:	48 8d 85 78 e0 ff ff 	lea    -0x1f88(%rbp),%rax
   12237:	48 89 85 e0 f7 ff ff 	mov    %rax,-0x820(%rbp)
   1223e:	48 c7 85 e8 f7 ff ff 	movq   $0x0,-0x818(%rbp)
   12245:	00 00 00 00 
   12249:	48 8d 85 78 e0 ff ff 	lea    -0x1f88(%rbp),%rax
   12250:	48 89 85 f0 f7 ff ff 	mov    %rax,-0x810(%rbp)
   12257:	48 8d 05 b2 7c 01 00 	lea    0x17cb2(%rip),%rax        # 29f10 <g_144>
   1225e:	48 89 85 f8 f7 ff ff 	mov    %rax,-0x808(%rbp)
   12265:	48 8d 05 2c 1e 01 00 	lea    0x11e2c(%rip),%rax        # 24098 <g_96>
   1226c:	48 89 85 00 f8 ff ff 	mov    %rax,-0x800(%rbp)
   12273:	48 8d 05 96 7c 01 00 	lea    0x17c96(%rip),%rax        # 29f10 <g_144>
   1227a:	48 89 85 08 f8 ff ff 	mov    %rax,-0x7f8(%rbp)
   12281:	48 8d 05 10 1e 01 00 	lea    0x11e10(%rip),%rax        # 24098 <g_96>
   12288:	48 89 85 10 f8 ff ff 	mov    %rax,-0x7f0(%rbp)
   1228f:	48 8d 85 78 e0 ff ff 	lea    -0x1f88(%rbp),%rax
   12296:	48 89 85 18 f8 ff ff 	mov    %rax,-0x7e8(%rbp)
   1229d:	48 8d 05 6c 7c 01 00 	lea    0x17c6c(%rip),%rax        # 29f10 <g_144>
   122a4:	48 89 85 20 f8 ff ff 	mov    %rax,-0x7e0(%rbp)
   122ab:	48 8d 05 e6 1d 01 00 	lea    0x11de6(%rip),%rax        # 24098 <g_96>
   122b2:	48 89 85 28 f8 ff ff 	mov    %rax,-0x7d8(%rbp)
   122b9:	48 8d 05 d8 1d 01 00 	lea    0x11dd8(%rip),%rax        # 24098 <g_96>
   122c0:	48 89 85 30 f8 ff ff 	mov    %rax,-0x7d0(%rbp)
   122c7:	48 8d 05 42 7c 01 00 	lea    0x17c42(%rip),%rax        # 29f10 <g_144>
   122ce:	48 89 85 38 f8 ff ff 	mov    %rax,-0x7c8(%rbp)
   122d5:	48 8d 05 34 7c 01 00 	lea    0x17c34(%rip),%rax        # 29f10 <g_144>
   122dc:	48 89 85 40 f8 ff ff 	mov    %rax,-0x7c0(%rbp)
   122e3:	48 8d 05 ae 1d 01 00 	lea    0x11dae(%rip),%rax        # 24098 <g_96>
   122ea:	48 89 85 48 f8 ff ff 	mov    %rax,-0x7b8(%rbp)
   122f1:	48 8d 05 a0 1d 01 00 	lea    0x11da0(%rip),%rax        # 24098 <g_96>
   122f8:	48 89 85 50 f8 ff ff 	mov    %rax,-0x7b0(%rbp)
   122ff:	48 8d 05 0a 7c 01 00 	lea    0x17c0a(%rip),%rax        # 29f10 <g_144>
   12306:	48 89 85 58 f8 ff ff 	mov    %rax,-0x7a8(%rbp)
   1230d:	48 8d 85 78 e0 ff ff 	lea    -0x1f88(%rbp),%rax
   12314:	48 89 85 60 f8 ff ff 	mov    %rax,-0x7a0(%rbp)
   1231b:	48 8d 05 76 1d 01 00 	lea    0x11d76(%rip),%rax        # 24098 <g_96>
   12322:	48 89 85 68 f8 ff ff 	mov    %rax,-0x798(%rbp)
   12329:	48 8d 05 e0 7b 01 00 	lea    0x17be0(%rip),%rax        # 29f10 <g_144>
   12330:	48 89 85 70 f8 ff ff 	mov    %rax,-0x790(%rbp)
   12337:	48 8d 05 5a 1d 01 00 	lea    0x11d5a(%rip),%rax        # 24098 <g_96>
   1233e:	48 89 85 78 f8 ff ff 	mov    %rax,-0x788(%rbp)
   12345:	48 8d 05 c4 7b 01 00 	lea    0x17bc4(%rip),%rax        # 29f10 <g_144>
   1234c:	48 89 85 80 f8 ff ff 	mov    %rax,-0x780(%rbp)
   12353:	48 8d 85 78 e0 ff ff 	lea    -0x1f88(%rbp),%rax
   1235a:	48 89 85 88 f8 ff ff 	mov    %rax,-0x778(%rbp)
   12361:	48 c7 85 90 f8 ff ff 	movq   $0x0,-0x770(%rbp)
   12368:	00 00 00 00 
   1236c:	48 8d 85 78 e0 ff ff 	lea    -0x1f88(%rbp),%rax
   12373:	48 89 85 98 f8 ff ff 	mov    %rax,-0x768(%rbp)
   1237a:	48 8d 05 8f 7b 01 00 	lea    0x17b8f(%rip),%rax        # 29f10 <g_144>
   12381:	48 89 85 a0 f8 ff ff 	mov    %rax,-0x760(%rbp)
   12388:	48 c7 85 a8 f8 ff ff 	movq   $0x0,-0x758(%rbp)
   1238f:	00 00 00 00 
   12393:	48 8d 05 00 1d 01 00 	lea    0x11d00(%rip),%rax        # 2409a <g_98>
   1239a:	48 89 85 b0 f8 ff ff 	mov    %rax,-0x750(%rbp)
   123a1:	48 8d 05 f2 1c 01 00 	lea    0x11cf2(%rip),%rax        # 2409a <g_98>
   123a8:	48 89 85 b8 f8 ff ff 	mov    %rax,-0x748(%rbp)
   123af:	48 8d 05 e2 1c 01 00 	lea    0x11ce2(%rip),%rax        # 24098 <g_96>
   123b6:	48 89 85 c0 f8 ff ff 	mov    %rax,-0x740(%rbp)
   123bd:	48 8d 85 78 e0 ff ff 	lea    -0x1f88(%rbp),%rax
   123c4:	48 89 85 c8 f8 ff ff 	mov    %rax,-0x738(%rbp)
   123cb:	48 8d 85 78 e0 ff ff 	lea    -0x1f88(%rbp),%rax
   123d2:	48 89 85 d0 f8 ff ff 	mov    %rax,-0x730(%rbp)
   123d9:	48 8d 85 78 e0 ff ff 	lea    -0x1f88(%rbp),%rax
   123e0:	48 89 85 d8 f8 ff ff 	mov    %rax,-0x728(%rbp)
   123e7:	48 8d 85 78 e0 ff ff 	lea    -0x1f88(%rbp),%rax
   123ee:	48 89 85 e0 f8 ff ff 	mov    %rax,-0x720(%rbp)
   123f5:	48 8d 05 9c 1c 01 00 	lea    0x11c9c(%rip),%rax        # 24098 <g_96>
   123fc:	48 89 85 e8 f8 ff ff 	mov    %rax,-0x718(%rbp)
   12403:	48 8d 05 8e 1c 01 00 	lea    0x11c8e(%rip),%rax        # 24098 <g_96>
   1240a:	48 89 85 f0 f8 ff ff 	mov    %rax,-0x710(%rbp)
   12411:	48 8d 85 78 e0 ff ff 	lea    -0x1f88(%rbp),%rax
   12418:	48 89 85 f8 f8 ff ff 	mov    %rax,-0x708(%rbp)
   1241f:	c6 85 77 e0 ff ff 0d 	movb   $0xd,-0x1f89(%rbp)
   12426:	48 8b 85 60 e0 ff ff 	mov    -0x1fa0(%rbp),%rax
   1242d:	0f b7 00             	movzwl (%rax),%eax
   12430:	98                   	cwtl   
   12431:	89 c6                	mov    %eax,%esi
   12433:	bf 00 00 00 00       	mov    $0x0,%edi
   12438:	e8 b8 7f ff ff       	callq  a3f5 <safe_mul_func_int16_t_s_s>
   1243d:	48 8b 95 58 e2 ff ff 	mov    -0x1da8(%rbp),%rdx
   12444:	66 89 02             	mov    %ax,(%rdx)
   12447:	48 8b 85 58 e2 ff ff 	mov    -0x1da8(%rbp),%rax
   1244e:	0f b7 00             	movzwl (%rax),%eax
   12451:	66 89 05 b8 7a 01 00 	mov    %ax,0x17ab8(%rip)        # 29f10 <g_144>
   12458:	0f b7 05 b1 7a 01 00 	movzwl 0x17ab1(%rip),%eax        # 29f10 <g_144>
   1245f:	98                   	cwtl   
   12460:	be 03 00 00 00       	mov    $0x3,%esi
   12465:	89 c7                	mov    %eax,%edi
   12467:	e8 26 80 ff ff       	callq  a492 <safe_lshift_func_int16_t_s_s>
   1246c:	0f be d0             	movsbl %al,%edx
   1246f:	48 8b 05 12 75 01 00 	mov    0x17512(%rip),%rax        # 29988 <g_2660+0x28>
   12476:	48 89 85 c8 e1 ff ff 	mov    %rax,-0x1e38(%rbp)
   1247d:	48 83 bd c8 e1 ff ff 	cmpq   $0x0,-0x1e38(%rbp)
   12484:	00 
   12485:	0f 94 c0             	sete   %al
   12488:	0f b6 c0             	movzbl %al,%eax
   1248b:	89 d6                	mov    %edx,%esi
   1248d:	89 c7                	mov    %eax,%edi
   1248f:	e8 9d 7d ff ff       	callq  a231 <safe_mod_func_int8_t_s_s>
   12494:	0f be d8             	movsbl %al,%ebx
   12497:	8b 85 f8 e0 ff ff    	mov    -0x1f08(%rbp),%eax
   1249d:	0f b6 d0             	movzbl %al,%edx
   124a0:	48 8b 05 b1 2e 01 00 	mov    0x12eb1(%rip),%rax        # 25358 <g_2557+0x8>
   124a7:	0f b6 c0             	movzbl %al,%eax
   124aa:	89 d6                	mov    %edx,%esi
   124ac:	89 c7                	mov    %eax,%edi
   124ae:	e8 28 87 ff ff       	callq  abdb <safe_div_func_uint8_t_u_u>
   124b3:	89 c2                	mov    %eax,%edx
   124b5:	48 8b 85 58 e0 ff ff 	mov    -0x1fa8(%rbp),%rax
   124bc:	0f b6 00             	movzbl (%rax),%eax
   124bf:	21 c2                	and    %eax,%edx
   124c1:	48 8b 85 58 e0 ff ff 	mov    -0x1fa8(%rbp),%rax
   124c8:	88 10                	mov    %dl,(%rax)
   124ca:	48 8b 85 58 e0 ff ff 	mov    -0x1fa8(%rbp),%rax
   124d1:	0f b6 00             	movzbl (%rax),%eax
   124d4:	0f be d0             	movsbl %al,%edx
   124d7:	8b 05 4b 2c 01 00    	mov    0x12c4b(%rip),%eax        # 25128 <g_2253>
   124dd:	39 c2                	cmp    %eax,%edx
   124df:	0f 9e c0             	setle  %al
   124e2:	0f b6 c0             	movzbl %al,%eax
   124e5:	89 de                	mov    %ebx,%esi
   124e7:	89 c7                	mov    %eax,%edi
   124e9:	e8 43 7d ff ff       	callq  a231 <safe_mod_func_int8_t_s_s>
   124ee:	0f be d0             	movsbl %al,%edx
   124f1:	48 8b 85 80 e1 ff ff 	mov    -0x1e80(%rbp),%rax
   124f8:	89 10                	mov    %edx,(%rax)
   124fa:	48 8b 05 df 74 01 00 	mov    0x174df(%rip),%rax        # 299e0 <g_2670>
   12501:	48 8b 95 78 e3 ff ff 	mov    -0x1c88(%rbp),%rdx
   12508:	48 8b 12             	mov    (%rdx),%rdx
   1250b:	48 89 10             	mov    %rdx,(%rax)
   1250e:	0f b6 85 6c e0 ff ff 	movzbl -0x1f94(%rbp),%eax
   12515:	89 85 f8 e0 ff ff    	mov    %eax,-0x1f08(%rbp)
   1251b:	48 8d 05 5a 1c 01 00 	lea    0x11c5a(%rip),%rax        # 2417c <g_322>
   12522:	48 89 05 bf 74 01 00 	mov    %rax,0x174bf(%rip)        # 299e8 <g_2671>
   12529:	48 8b 05 d0 5f 01 00 	mov    0x15fd0(%rip),%rax        # 28500 <g_896>
   12530:	48 8b 00             	mov    (%rax),%rax
   12533:	48 8d 15 42 1c 01 00 	lea    0x11c42(%rip),%rdx        # 2417c <g_322>
   1253a:	48 39 d0             	cmp    %rdx,%rax
   1253d:	0f 95 c0             	setne  %al
   12540:	88 85 77 e0 ff ff    	mov    %al,-0x1f89(%rbp)
   12546:	0f b6 85 6c e0 ff ff 	movzbl -0x1f94(%rbp),%eax
   1254d:	eb 0a                	jmp    12559 <func_11+0x403d>
   1254f:	48 8b 05 9a 74 01 00 	mov    0x1749a(%rip),%rax        # 299f0 <g_3004>
   12556:	0f b7 00             	movzwl (%rax),%eax
   12559:	48 8b 5d c8          	mov    -0x38(%rbp),%rbx
   1255d:	64 48 33 1c 25 28 00 	xor    %fs:0x28,%rbx
   12564:	00 00 
   12566:	74 05                	je     1256d <func_11+0x4051>
   12568:	e8 03 7b ff ff       	callq  a070 <__stack_chk_fail@plt>
   1256d:	48 81 c4 98 1f 00 00 	add    $0x1f98,%rsp
   12574:	5b                   	pop    %rbx
   12575:	41 5c                	pop    %r12
   12577:	41 5d                	pop    %r13
   12579:	41 5e                	pop    %r14
   1257b:	41 5f                	pop    %r15
   1257d:	5d                   	pop    %rbp
   1257e:	c3                   	retq   

000000000001257f <func_19>:
   1257f:	f3 0f 1e fa          	endbr64 
   12583:	55                   	push   %rbp
   12584:	48 89 e5             	mov    %rsp,%rbp
   12587:	48 81 ec d0 00 00 00 	sub    $0xd0,%rsp
   1258e:	48 89 bd 48 ff ff ff 	mov    %rdi,-0xb8(%rbp)
   12595:	48 89 b5 40 ff ff ff 	mov    %rsi,-0xc0(%rbp)
   1259c:	48 89 95 38 ff ff ff 	mov    %rdx,-0xc8(%rbp)
   125a3:	89 8d 34 ff ff ff    	mov    %ecx,-0xcc(%rbp)
   125a9:	64 48 8b 04 25 28 00 	mov    %fs:0x28,%rax
   125b0:	00 00 
   125b2:	48 89 45 f8          	mov    %rax,-0x8(%rbp)
   125b6:	31 c0                	xor    %eax,%eax
   125b8:	48 8d 05 ed 1a 01 00 	lea    0x11aed(%rip),%rax        # 240ac <g_188>
   125bf:	48 89 85 58 ff ff ff 	mov    %rax,-0xa8(%rbp)
   125c6:	48 c7 85 60 ff ff ff 	movq   $0x0,-0xa0(%rbp)
   125cd:	00 00 00 00 
   125d1:	48 8d 05 a0 1b 01 00 	lea    0x11ba0(%rip),%rax        # 24178 <g_305>
   125d8:	48 89 85 68 ff ff ff 	mov    %rax,-0x98(%rbp)
   125df:	48 8d 05 32 1f 01 00 	lea    0x11f32(%rip),%rax        # 24518 <g_849>
   125e6:	48 89 85 70 ff ff ff 	mov    %rax,-0x90(%rbp)
   125ed:	48 c7 85 78 ff ff ff 	movq   $0x0,-0x88(%rbp)
   125f4:	00 00 00 00 
   125f8:	48 8d 05 ad 1a 01 00 	lea    0x11aad(%rip),%rax        # 240ac <g_188>
   125ff:	48 89 45 80          	mov    %rax,-0x80(%rbp)
   12603:	48 8d 05 6e 1b 01 00 	lea    0x11b6e(%rip),%rax        # 24178 <g_305>
   1260a:	48 89 45 88          	mov    %rax,-0x78(%rbp)
   1260e:	48 8d 05 f7 78 01 00 	lea    0x178f7(%rip),%rax        # 29f0c <g_65>
   12615:	48 89 45 90          	mov    %rax,-0x70(%rbp)
   12619:	48 8d 05 8c 1a 01 00 	lea    0x11a8c(%rip),%rax        # 240ac <g_188>
   12620:	48 89 45 98          	mov    %rax,-0x68(%rbp)
   12624:	48 8d 05 ed 1e 01 00 	lea    0x11eed(%rip),%rax        # 24518 <g_849>
   1262b:	48 89 45 a0          	mov    %rax,-0x60(%rbp)
   1262f:	48 c7 45 a8 00 00 00 	movq   $0x0,-0x58(%rbp)
   12636:	00 
   12637:	48 8d 05 3a 1b 01 00 	lea    0x11b3a(%rip),%rax        # 24178 <g_305>
   1263e:	48 89 45 b0          	mov    %rax,-0x50(%rbp)
   12642:	48 8d 05 2f 1b 01 00 	lea    0x11b2f(%rip),%rax        # 24178 <g_305>
   12649:	48 89 45 b8          	mov    %rax,-0x48(%rbp)
   1264d:	48 8d 05 24 1b 01 00 	lea    0x11b24(%rip),%rax        # 24178 <g_305>
   12654:	48 89 45 c0          	mov    %rax,-0x40(%rbp)
   12658:	48 8d 05 19 1b 01 00 	lea    0x11b19(%rip),%rax        # 24178 <g_305>
   1265f:	48 89 45 c8          	mov    %rax,-0x38(%rbp)
   12663:	66 c7 85 52 ff ff ff 	movw   $0xffff,-0xae(%rbp)
   1266a:	ff ff 
   1266c:	c7 85 54 ff ff ff 00 	movl   $0x0,-0xac(%rbp)
   12673:	00 00 00 
   12676:	eb 17                	jmp    1268f <func_19+0x110>
   12678:	8b 85 54 ff ff ff    	mov    -0xac(%rbp),%eax
   1267e:	48 98                	cltq   
   12680:	c7 44 85 d0 51 2f 4b 	movl   $0x4b4b2f51,-0x30(%rbp,%rax,4)
   12687:	4b 
   12688:	83 85 54 ff ff ff 01 	addl   $0x1,-0xac(%rbp)
   1268f:	83 bd 54 ff ff ff 08 	cmpl   $0x8,-0xac(%rbp)
   12696:	7e e0                	jle    12678 <func_19+0xf9>
   12698:	66 83 ad 52 ff ff ff 	subw   $0x1,-0xae(%rbp)
   1269f:	01 
   126a0:	8b 85 34 ff ff ff    	mov    -0xcc(%rbp),%eax
   126a6:	48 8b 55 f8          	mov    -0x8(%rbp),%rdx
   126aa:	64 48 33 14 25 28 00 	xor    %fs:0x28,%rdx
   126b1:	00 00 
   126b3:	74 05                	je     126ba <func_19+0x13b>
   126b5:	e8 b6 79 ff ff       	callq  a070 <__stack_chk_fail@plt>
   126ba:	c9                   	leaveq 
   126bb:	c3                   	retq   

00000000000126bc <func_24>:
   126bc:	f3 0f 1e fa          	endbr64 
   126c0:	55                   	push   %rbp
   126c1:	48 89 e5             	mov    %rsp,%rbp
   126c4:	41 54                	push   %r12
   126c6:	53                   	push   %rbx
   126c7:	48 81 ec 70 07 00 00 	sub    $0x770,%rsp
   126ce:	89 bd 9c f8 ff ff    	mov    %edi,-0x764(%rbp)
   126d4:	48 89 b5 90 f8 ff ff 	mov    %rsi,-0x770(%rbp)
   126db:	48 89 95 88 f8 ff ff 	mov    %rdx,-0x778(%rbp)
   126e2:	48 89 8d 80 f8 ff ff 	mov    %rcx,-0x780(%rbp)
   126e9:	44 89 85 98 f8 ff ff 	mov    %r8d,-0x768(%rbp)
   126f0:	64 48 8b 04 25 28 00 	mov    %fs:0x28,%rax
   126f7:	00 00 
   126f9:	48 89 45 e8          	mov    %rax,-0x18(%rbp)
   126fd:	31 c0                	xor    %eax,%eax
   126ff:	48 b8 ee 3c 36 f1 a1 	movabs $0xf8d998a1f1363cee,%rax
   12706:	98 d9 f8 
   12709:	48 89 85 68 f9 ff ff 	mov    %rax,-0x698(%rbp)
   12710:	48 8d 05 c9 5d 01 00 	lea    0x15dc9(%rip),%rax        # 284e0 <g_882>
   12717:	48 89 85 00 f9 ff ff 	mov    %rax,-0x700(%rbp)
   1271e:	48 8d 85 00 f9 ff ff 	lea    -0x700(%rbp),%rax
   12725:	48 89 85 08 f9 ff ff 	mov    %rax,-0x6f8(%rbp)
   1272c:	48 c7 85 70 f9 ff ff 	movq   $0x0,-0x690(%rbp)
   12733:	00 00 00 00 
   12737:	48 c7 85 78 f9 ff ff 	movq   $0x0,-0x688(%rbp)
   1273e:	00 00 00 00 
   12742:	48 8d 85 08 f9 ff ff 	lea    -0x6f8(%rbp),%rax
   12749:	48 89 85 80 f9 ff ff 	mov    %rax,-0x680(%rbp)
   12750:	48 c7 85 10 f9 ff ff 	movq   $0x0,-0x6f0(%rbp)
   12757:	00 00 00 00 
   1275b:	c7 85 b0 f8 ff ff 02 	movl   $0x9e7d7202,-0x750(%rbp)
   12762:	72 7d 9e 
   12765:	48 c7 85 88 f9 ff ff 	movq   $0x0,-0x678(%rbp)
   1276c:	00 00 00 00 
   12770:	48 8d 05 d1 1d 01 00 	lea    0x11dd1(%rip),%rax        # 24548 <g_954>
   12777:	48 89 85 18 f9 ff ff 	mov    %rax,-0x6e8(%rbp)
   1277e:	48 8d 85 18 f9 ff ff 	lea    -0x6e8(%rbp),%rax
   12785:	48 89 85 20 f9 ff ff 	mov    %rax,-0x6e0(%rbp)
   1278c:	48 8d 85 20 f9 ff ff 	lea    -0x6e0(%rbp),%rax
   12793:	48 89 85 28 f9 ff ff 	mov    %rax,-0x6d8(%rbp)
   1279a:	48 8d 85 28 f9 ff ff 	lea    -0x6d8(%rbp),%rax
   127a1:	48 89 85 90 f9 ff ff 	mov    %rax,-0x670(%rbp)
   127a8:	48 8d 05 cd 19 01 00 	lea    0x119cd(%rip),%rax        # 2417c <g_322>
   127af:	48 89 85 30 f9 ff ff 	mov    %rax,-0x6d0(%rbp)
   127b6:	48 8d 85 30 f9 ff ff 	lea    -0x6d0(%rbp),%rax
   127bd:	48 89 85 38 f9 ff ff 	mov    %rax,-0x6c8(%rbp)
   127c4:	48 8d 85 38 f9 ff ff 	lea    -0x6c8(%rbp),%rax
   127cb:	48 89 85 40 f9 ff ff 	mov    %rax,-0x6c0(%rbp)
   127d2:	48 8d 85 40 f9 ff ff 	lea    -0x6c0(%rbp),%rax
   127d9:	48 89 85 98 f9 ff ff 	mov    %rax,-0x668(%rbp)
   127e0:	48 c7 85 a0 f9 ff ff 	movq   $0x0,-0x660(%rbp)
   127e7:	00 00 00 00 
   127eb:	48 8d 05 a8 18 01 00 	lea    0x118a8(%rip),%rax        # 2409a <g_98>
   127f2:	48 89 85 a8 f9 ff ff 	mov    %rax,-0x658(%rbp)
   127f9:	c7 85 b4 f8 ff ff 66 	movl   $0x48caf266,-0x74c(%rbp)
   12800:	f2 ca 48 
   12803:	48 8d 05 a6 70 01 00 	lea    0x170a6(%rip),%rax        # 298b0 <g_2099+0x10>
   1280a:	48 89 85 b0 f9 ff ff 	mov    %rax,-0x650(%rbp)
   12811:	66 c7 85 12 fa ff ff 	movw   $0xdfd4,-0x5ee(%rbp)
   12818:	d4 df 
   1281a:	66 c7 85 14 fa ff ff 	movw   $0xdfd4,-0x5ec(%rbp)
   12821:	d4 df 
   12823:	66 c7 85 16 fa ff ff 	movw   $0xdfd4,-0x5ea(%rbp)
   1282a:	d4 df 
   1282c:	66 c7 85 18 fa ff ff 	movw   $0xdfd4,-0x5e8(%rbp)
   12833:	d4 df 
   12835:	66 c7 85 1a fa ff ff 	movw   $0xdfd4,-0x5e6(%rbp)
   1283c:	d4 df 
   1283e:	66 c7 85 1c fa ff ff 	movw   $0xdfd4,-0x5e4(%rbp)
   12845:	d4 df 
   12847:	66 c7 85 1e fa ff ff 	movw   $0xdfd4,-0x5e2(%rbp)
   1284e:	d4 df 
   12850:	48 c7 85 b8 f9 ff ff 	movq   $0x1,-0x648(%rbp)
   12857:	01 00 00 00 
   1285b:	48 b8 8a 76 17 05 60 	movabs $0x768fc8600517768a,%rax
   12862:	c8 8f 76 
   12865:	48 89 85 c0 f9 ff ff 	mov    %rax,-0x640(%rbp)
   1286c:	c7 85 a8 f8 ff ff 00 	movl   $0x0,-0x758(%rbp)
   12873:	00 00 00 
   12876:	eb 1e                	jmp    12896 <func_24+0x1da>
   12878:	8b 85 a8 f8 ff ff    	mov    -0x758(%rbp),%eax
   1287e:	48 98                	cltq   
   12880:	48 8d 15 85 76 01 00 	lea    0x17685(%rip),%rdx        # 29f0c <g_65>
   12887:	48 89 94 c5 20 fa ff 	mov    %rdx,-0x5e0(%rbp,%rax,8)
   1288e:	ff 
   1288f:	83 85 a8 f8 ff ff 01 	addl   $0x1,-0x758(%rbp)
   12896:	83 bd a8 f8 ff ff 01 	cmpl   $0x1,-0x758(%rbp)
   1289d:	7e d9                	jle    12878 <func_24+0x1bc>
   1289f:	c7 85 a8 f8 ff ff 00 	movl   $0x0,-0x758(%rbp)
   128a6:	00 00 00 
   128a9:	eb 21                	jmp    128cc <func_24+0x210>
   128ab:	8b 85 a8 f8 ff ff    	mov    -0x758(%rbp),%eax
   128b1:	48 98                	cltq   
   128b3:	48 bb 57 07 9b 8a 32 	movabs $0x1ae9f5328a9b0757,%rbx
   128ba:	f5 e9 1a 
   128bd:	48 89 9c c5 30 fa ff 	mov    %rbx,-0x5d0(%rbp,%rax,8)
   128c4:	ff 
   128c5:	83 85 a8 f8 ff ff 01 	addl   $0x1,-0x758(%rbp)
   128cc:	83 bd a8 f8 ff ff 09 	cmpl   $0x9,-0x758(%rbp)
   128d3:	7e d6                	jle    128ab <func_24+0x1ef>
   128d5:	48 83 bd 80 f8 ff ff 	cmpq   $0x0,-0x780(%rbp)
   128dc:	00 
   128dd:	74 43                	je     12922 <func_24+0x266>
   128df:	48 8b 15 8a 6b 01 00 	mov    0x16b8a(%rip),%rdx        # 29470 <g_1350>
   128e6:	48 8b 05 83 6b 01 00 	mov    0x16b83(%rip),%rax        # 29470 <g_1350>
   128ed:	48 8b 12             	mov    (%rdx),%rdx
   128f0:	48 89 10             	mov    %rdx,(%rax)
   128f3:	48 8b 00             	mov    (%rax),%rax
   128f6:	48 85 c0             	test   %rax,%rax
   128f9:	75 4e                	jne    12949 <func_24+0x28d>
   128fb:	48 8b 95 08 f9 ff ff 	mov    -0x6f8(%rbp),%rdx
   12902:	48 8b 85 80 f9 ff ff 	mov    -0x680(%rbp),%rax
   12909:	48 89 10             	mov    %rdx,(%rax)
   1290c:	48 8b 85 80 f9 ff ff 	mov    -0x680(%rbp),%rax
   12913:	48 8b 10             	mov    (%rax),%rdx
   12916:	48 8d 85 00 f9 ff ff 	lea    -0x700(%rbp),%rax
   1291d:	48 39 c2             	cmp    %rax,%rdx
   12920:	74 27                	je     12949 <func_24+0x28d>
   12922:	48 83 bd 68 f9 ff ff 	cmpq   $0x0,-0x698(%rbp)
   12929:	00 
   1292a:	75 1d                	jne    12949 <func_24+0x28d>
   1292c:	48 8b 05 4d 6f 01 00 	mov    0x16f4d(%rip),%rax        # 29880 <g_2021>
   12933:	8b 00                	mov    (%rax),%eax
   12935:	89 c2                	mov    %eax,%edx
   12937:	48 8b 85 68 f9 ff ff 	mov    -0x698(%rbp),%rax
   1293e:	89 d6                	mov    %edx,%esi
   12940:	89 c7                	mov    %eax,%edi
   12942:	e8 89 85 ff ff       	callq  aed0 <safe_sub_func_uint32_t_u_u>
   12947:	85 c0                	test   %eax,%eax
   12949:	90                   	nop
   1294a:	48 be 7e f5 1c 36 32 	movabs $0x71f5b832361cf57e,%rsi
   12951:	b8 f5 71 
   12954:	bf 01 00 00 00       	mov    $0x1,%edi
   12959:	e8 56 80 ff ff       	callq  a9b4 <safe_mod_func_int64_t_s_s>
   1295e:	48 83 f8 72          	cmp    $0x72,%rax
   12962:	48 8b 05 1f 6f 01 00 	mov    0x16f1f(%rip),%rax        # 29888 <g_2036>
   12969:	c7 00 00 00 00 00    	movl   $0x0,(%rax)
   1296f:	48 8b 05 52 5c 01 00 	mov    0x15c52(%rip),%rax        # 285c8 <g_1097>
   12976:	0f b6 00             	movzbl (%rax),%eax
   12979:	0f be d8             	movsbl %al,%ebx
   1297c:	48 8b 85 80 f8 ff ff 	mov    -0x780(%rbp),%rax
   12983:	0f b7 c0             	movzwl %ax,%eax
   12986:	be 0e 00 00 00       	mov    $0xe,%esi
   1298b:	89 c7                	mov    %eax,%edi
   1298d:	e8 e8 84 ff ff       	callq  ae7a <safe_rshift_func_uint16_t_u_u>
   12992:	0f b7 d0             	movzwl %ax,%edx
   12995:	8b 05 7d 1b 01 00    	mov    0x11b7d(%rip),%eax        # 24518 <g_849>
   1299b:	39 c2                	cmp    %eax,%edx
   1299d:	8b 05 09 17 01 00    	mov    0x11709(%rip),%eax        # 240ac <g_188>
   129a3:	89 c2                	mov    %eax,%edx
   129a5:	0f b6 05 5c 1c 01 00 	movzbl 0x11c5c(%rip),%eax        # 24608 <g_975>
   129ac:	3c fa                	cmp    $0xfa,%al
   129ae:	0f 9c c0             	setl   %al
   129b1:	0f b6 c0             	movzbl %al,%eax
   129b4:	48 39 85 88 f8 ff ff 	cmp    %rax,-0x778(%rbp)
   129bb:	74 12                	je     129cf <func_24+0x313>
   129bd:	83 bd 98 f8 ff ff 00 	cmpl   $0x0,-0x768(%rbp)
   129c4:	75 09                	jne    129cf <func_24+0x313>
   129c6:	83 bd 98 f8 ff ff 00 	cmpl   $0x0,-0x768(%rbp)
   129cd:	74 07                	je     129d6 <func_24+0x31a>
   129cf:	b8 01 00 00 00       	mov    $0x1,%eax
   129d4:	eb 05                	jmp    129db <func_24+0x31f>
   129d6:	b8 00 00 00 00       	mov    $0x0,%eax
   129db:	0f be c0             	movsbl %al,%eax
   129de:	89 d6                	mov    %edx,%esi
   129e0:	89 c7                	mov    %eax,%edi
   129e2:	e8 85 79 ff ff       	callq  a36c <safe_rshift_func_int8_t_s_u>
   129e7:	0f b6 15 6a 26 01 00 	movzbl 0x1266a(%rip),%edx        # 25058 <g_2024>
   129ee:	21 d0                	and    %edx,%eax
   129f0:	88 05 62 26 01 00    	mov    %al,0x12662(%rip)        # 25058 <g_2024>
   129f6:	0f b6 05 5b 26 01 00 	movzbl 0x1265b(%rip),%eax        # 25058 <g_2024>
   129fd:	0f b6 c0             	movzbl %al,%eax
   12a00:	be 05 00 00 00       	mov    $0x5,%esi
   12a05:	89 c7                	mov    %eax,%edi
   12a07:	e8 40 82 ff ff       	callq  ac4c <safe_lshift_func_uint8_t_u_u>
   12a0c:	84 c0                	test   %al,%al
   12a0e:	48 8b 85 a8 f9 ff ff 	mov    -0x658(%rbp),%rax
   12a15:	66 c7 00 01 00       	movw   $0x1,(%rax)
   12a1a:	48 83 bd 80 f8 ff ff 	cmpq   $0x0,-0x780(%rbp)
   12a21:	00 
   12a22:	74 07                	je     12a2b <func_24+0x36f>
   12a24:	b8 01 00 00 00       	mov    $0x1,%eax
   12a29:	eb 05                	jmp    12a30 <func_24+0x374>
   12a2b:	b8 00 00 00 00       	mov    $0x0,%eax
   12a30:	98                   	cwtl   
   12a31:	be e9 00 00 00       	mov    $0xe9,%esi
   12a36:	89 c7                	mov    %eax,%edi
   12a38:	e8 96 79 ff ff       	callq  a3d3 <safe_sub_func_int16_t_s_s>
   12a3d:	48 8b 05 84 6a 01 00 	mov    0x16a84(%rip),%rax        # 294c8 <g_1524>
   12a44:	48 8b 00             	mov    (%rax),%rax
   12a47:	48 8b 00             	mov    (%rax),%rax
   12a4a:	48 8b 00             	mov    (%rax),%rax
   12a4d:	0f b7 00             	movzwl (%rax),%eax
   12a50:	66 85 c0             	test   %ax,%ax
   12a53:	0f 94 c0             	sete   %al
   12a56:	0f b6 d0             	movzbl %al,%edx
   12a59:	48 83 bd 80 f8 ff ff 	cmpq   $0x0,-0x780(%rbp)
   12a60:	00 
   12a61:	0f 94 c0             	sete   %al
   12a64:	0f b6 c0             	movzbl %al,%eax
   12a67:	39 c2                	cmp    %eax,%edx
   12a69:	0f 9c c0             	setl   %al
   12a6c:	0f b6 c0             	movzbl %al,%eax
   12a6f:	be 00 00 00 00       	mov    $0x0,%esi
   12a74:	89 c7                	mov    %eax,%edi
   12a76:	e8 6b 84 ff ff       	callq  aee6 <safe_mul_func_uint32_t_u_u>
   12a7b:	0f be c0             	movsbl %al,%eax
   12a7e:	89 de                	mov    %ebx,%esi
   12a80:	89 c7                	mov    %eax,%edi
   12a82:	e8 ae 78 ff ff       	callq  a335 <safe_rshift_func_int8_t_s_s>
   12a87:	84 c0                	test   %al,%al
   12a89:	74 07                	je     12a92 <func_24+0x3d6>
   12a8b:	b8 01 00 00 00       	mov    $0x1,%eax
   12a90:	eb 05                	jmp    12a97 <func_24+0x3db>
   12a92:	b8 00 00 00 00       	mov    $0x0,%eax
   12a97:	0f bf d8             	movswl %ax,%ebx
   12a9a:	48 8b 05 ff 15 01 00 	mov    0x115ff(%rip),%rax        # 240a0 <g_101>
   12aa1:	83 c8 01             	or     $0x1,%eax
   12aa4:	89 c2                	mov    %eax,%edx
   12aa6:	8b 85 9c f8 ff ff    	mov    -0x764(%rbp),%eax
   12aac:	31 d0                	xor    %edx,%eax
   12aae:	89 85 9c f8 ff ff    	mov    %eax,-0x764(%rbp)
   12ab4:	44 8b a5 9c f8 ff ff 	mov    -0x764(%rbp),%r12d
   12abb:	c7 85 b0 f8 ff ff 00 	movl   $0x0,-0x750(%rbp)
   12ac2:	00 00 00 
   12ac5:	be 02 00 00 00       	mov    $0x2,%esi
   12aca:	bf 00 00 00 00       	mov    $0x0,%edi
   12acf:	e8 78 81 ff ff       	callq  ac4c <safe_lshift_func_uint8_t_u_u>
   12ad4:	0f b6 c0             	movzbl %al,%eax
   12ad7:	44 31 e0             	xor    %r12d,%eax
   12ada:	48 98                	cltq   
   12adc:	48 39 85 88 f8 ff ff 	cmp    %rax,-0x778(%rbp)
   12ae3:	0f 97 c0             	seta   %al
   12ae6:	0f b6 c0             	movzbl %al,%eax
   12ae9:	89 de                	mov    %ebx,%esi
   12aeb:	89 c7                	mov    %eax,%edi
   12aed:	e8 c1 78 ff ff       	callq  a3b3 <safe_add_func_int16_t_s_s>
   12af2:	66 85 c0             	test   %ax,%ax
   12af5:	75 0e                	jne    12b05 <func_24+0x449>
   12af7:	48 83 bd 88 f8 ff ff 	cmpq   $0x0,-0x778(%rbp)
   12afe:	00 
   12aff:	0f 84 68 06 00 00    	je     1316d <func_24+0xab1>
   12b05:	48 c7 85 70 fb ff ff 	movq   $0x0,-0x490(%rbp)
   12b0c:	00 00 00 00 
   12b10:	48 c7 85 78 fb ff ff 	movq   $0x0,-0x488(%rbp)
   12b17:	00 00 00 00 
   12b1b:	48 c7 85 80 fb ff ff 	movq   $0x0,-0x480(%rbp)
   12b22:	00 00 00 00 
   12b26:	48 8d 85 30 f9 ff ff 	lea    -0x6d0(%rbp),%rax
   12b2d:	48 89 85 88 fb ff ff 	mov    %rax,-0x478(%rbp)
   12b34:	48 8d 85 30 f9 ff ff 	lea    -0x6d0(%rbp),%rax
   12b3b:	48 89 85 90 fb ff ff 	mov    %rax,-0x470(%rbp)
   12b42:	48 8d 85 30 f9 ff ff 	lea    -0x6d0(%rbp),%rax
   12b49:	48 89 85 98 fb ff ff 	mov    %rax,-0x468(%rbp)
   12b50:	48 c7 85 a0 fb ff ff 	movq   $0x0,-0x460(%rbp)
   12b57:	00 00 00 00 
   12b5b:	48 c7 85 a8 fb ff ff 	movq   $0x0,-0x458(%rbp)
   12b62:	00 00 00 00 
   12b66:	48 c7 85 b0 fb ff ff 	movq   $0x0,-0x450(%rbp)
   12b6d:	00 00 00 00 
   12b71:	48 8d 85 30 f9 ff ff 	lea    -0x6d0(%rbp),%rax
   12b78:	48 89 85 b8 fb ff ff 	mov    %rax,-0x448(%rbp)
   12b7f:	48 8d 85 30 f9 ff ff 	lea    -0x6d0(%rbp),%rax
   12b86:	48 89 85 c0 fb ff ff 	mov    %rax,-0x440(%rbp)
   12b8d:	48 8d 85 30 f9 ff ff 	lea    -0x6d0(%rbp),%rax
   12b94:	48 89 85 c8 fb ff ff 	mov    %rax,-0x438(%rbp)
   12b9b:	48 c7 85 d0 fb ff ff 	movq   $0x0,-0x430(%rbp)
   12ba2:	00 00 00 00 
   12ba6:	48 c7 85 d8 fb ff ff 	movq   $0x0,-0x428(%rbp)
   12bad:	00 00 00 00 
   12bb1:	48 c7 85 e0 fb ff ff 	movq   $0x0,-0x420(%rbp)
   12bb8:	00 00 00 00 
   12bbc:	48 8d 85 30 f9 ff ff 	lea    -0x6d0(%rbp),%rax
   12bc3:	48 89 85 e8 fb ff ff 	mov    %rax,-0x418(%rbp)
   12bca:	48 8d 85 30 f9 ff ff 	lea    -0x6d0(%rbp),%rax
   12bd1:	48 89 85 f0 fb ff ff 	mov    %rax,-0x410(%rbp)
   12bd8:	48 8d 85 30 f9 ff ff 	lea    -0x6d0(%rbp),%rax
   12bdf:	48 89 85 f8 fb ff ff 	mov    %rax,-0x408(%rbp)
   12be6:	48 c7 85 00 fc ff ff 	movq   $0x0,-0x400(%rbp)
   12bed:	00 00 00 00 
   12bf1:	48 c7 85 08 fc ff ff 	movq   $0x0,-0x3f8(%rbp)
   12bf8:	00 00 00 00 
   12bfc:	48 c7 85 10 fc ff ff 	movq   $0x0,-0x3f0(%rbp)
   12c03:	00 00 00 00 
   12c07:	48 8d 85 10 f9 ff ff 	lea    -0x6f0(%rbp),%rax
   12c0e:	48 89 85 48 f9 ff ff 	mov    %rax,-0x6b8(%rbp)
   12c15:	c7 85 bc f8 ff ff bc 	movl   $0xd14a27bc,-0x744(%rbp)
   12c1c:	27 4a d1 
   12c1f:	48 c7 85 d0 f9 ff ff 	movq   $0x0,-0x630(%rbp)
   12c26:	00 00 00 00 
   12c2a:	48 8d 85 00 f9 ff ff 	lea    -0x700(%rbp),%rax
   12c31:	48 89 85 d8 f9 ff ff 	mov    %rax,-0x628(%rbp)
   12c38:	48 c7 85 e0 f9 ff ff 	movq   $0x1,-0x620(%rbp)
   12c3f:	01 00 00 00 
   12c43:	c7 85 c0 f8 ff ff b1 	movl   $0x748d24b1,-0x740(%rbp)
   12c4a:	24 8d 74 
   12c4d:	c7 85 c4 f8 ff ff 9c 	movl   $0x22960c9c,-0x73c(%rbp)
   12c54:	0c 96 22 
   12c57:	c7 85 c8 f8 ff ff de 	movl   $0xd975f9de,-0x738(%rbp)
   12c5e:	f9 75 d9 
   12c61:	c7 85 cc f8 ff ff 00 	movl   $0x0,-0x734(%rbp)
   12c68:	00 00 00 
   12c6b:	c7 85 d0 f8 ff ff ff 	movl   $0xffffffff,-0x730(%rbp)
   12c72:	ff ff ff 
   12c75:	c7 85 d4 f8 ff ff 90 	movl   $0x79371690,-0x72c(%rbp)
   12c7c:	16 37 79 
   12c7f:	c7 85 d8 f8 ff ff 3b 	movl   $0xa49813b,-0x728(%rbp)
   12c86:	81 49 0a 
   12c89:	c7 85 dc f8 ff ff 65 	movl   $0x4f98bb65,-0x724(%rbp)
   12c90:	bb 98 4f 
   12c93:	c7 85 e0 f8 ff ff ff 	movl   $0xffffffff,-0x720(%rbp)
   12c9a:	ff ff ff 
   12c9d:	48 8d 85 20 fc ff ff 	lea    -0x3e0(%rbp),%rax
   12ca4:	48 8d 15 15 c0 00 00 	lea    0xc015(%rip),%rdx        # 1ecc0 <g_3175+0xb1c>
   12cab:	b9 32 00 00 00       	mov    $0x32,%ecx
   12cb0:	48 89 c7             	mov    %rax,%rdi
   12cb3:	48 89 d6             	mov    %rdx,%rsi
   12cb6:	f3 48 a5             	rep movsq %ds:(%rsi),%es:(%rdi)
   12cb9:	c7 05 e9 13 01 00 06 	movl   $0x6,0x113e9(%rip)        # 240ac <g_188>
   12cc0:	00 00 00 
   12cc3:	eb 34                	jmp    12cf9 <func_24+0x63d>
   12cc5:	c7 85 fc f8 ff ff 1c 	movl   $0x1186191c,-0x704(%rbp)
   12ccc:	19 86 11 
   12ccf:	48 8b 05 8a 23 01 00 	mov    0x1238a(%rip),%rax        # 25060 <g_2074>
   12cd6:	48 83 e8 01          	sub    $0x1,%rax
   12cda:	48 89 05 7f 23 01 00 	mov    %rax,0x1237f(%rip)        # 25060 <g_2074>
   12ce1:	8b 05 c5 13 01 00    	mov    0x113c5(%rip),%eax        # 240ac <g_188>
   12ce7:	be 09 00 00 00       	mov    $0x9,%esi
   12cec:	89 c7                	mov    %eax,%edi
   12cee:	e8 c5 81 ff ff       	callq  aeb8 <safe_add_func_uint32_t_u_u>
   12cf3:	89 05 b3 13 01 00    	mov    %eax,0x113b3(%rip)        # 240ac <g_188>
   12cf9:	8b 05 ad 13 01 00    	mov    0x113ad(%rip),%eax        # 240ac <g_188>
   12cff:	83 f8 0c             	cmp    $0xc,%eax
   12d02:	7e c1                	jle    12cc5 <func_24+0x609>
   12d04:	48 8b 85 a8 fb ff ff 	mov    -0x458(%rbp),%rax
   12d0b:	48 85 c0             	test   %rax,%rax
   12d0e:	0f 94 c0             	sete   %al
   12d11:	0f b6 c0             	movzbl %al,%eax
   12d14:	89 85 9c f8 ff ff    	mov    %eax,-0x764(%rbp)
   12d1a:	c7 05 e4 71 01 00 03 	movl   $0x3,0x171e4(%rip)        # 29f08 <g_36>
   12d21:	00 00 00 
   12d24:	e9 19 03 00 00       	jmpq   13042 <func_24+0x986>
   12d29:	48 8d 05 78 13 01 00 	lea    0x11378(%rip),%rax        # 240a8 <g_143>
   12d30:	48 89 85 e0 fa ff ff 	mov    %rax,-0x520(%rbp)
   12d37:	48 8d 05 f2 12 01 00 	lea    0x112f2(%rip),%rax        # 24030 <g_8>
   12d3e:	48 89 85 e8 fa ff ff 	mov    %rax,-0x518(%rbp)
   12d45:	48 8d 05 2c 16 01 00 	lea    0x1162c(%rip),%rax        # 24378 <g_457>
   12d4c:	48 89 85 f0 fa ff ff 	mov    %rax,-0x510(%rbp)
   12d53:	48 8d 05 1e 16 01 00 	lea    0x1161e(%rip),%rax        # 24378 <g_457>
   12d5a:	48 89 85 f8 fa ff ff 	mov    %rax,-0x508(%rbp)
   12d61:	48 8d 05 c8 12 01 00 	lea    0x112c8(%rip),%rax        # 24030 <g_8>
   12d68:	48 89 85 00 fb ff ff 	mov    %rax,-0x500(%rbp)
   12d6f:	48 c7 85 08 fb ff ff 	movq   $0x0,-0x4f8(%rbp)
   12d76:	00 00 00 00 
   12d7a:	48 8d 05 af 12 01 00 	lea    0x112af(%rip),%rax        # 24030 <g_8>
   12d81:	48 89 85 10 fb ff ff 	mov    %rax,-0x4f0(%rbp)
   12d88:	48 8d 05 a1 12 01 00 	lea    0x112a1(%rip),%rax        # 24030 <g_8>
   12d8f:	48 89 85 18 fb ff ff 	mov    %rax,-0x4e8(%rbp)
   12d96:	48 8d 05 93 12 01 00 	lea    0x11293(%rip),%rax        # 24030 <g_8>
   12d9d:	48 89 85 20 fb ff ff 	mov    %rax,-0x4e0(%rbp)
   12da4:	48 8d 05 fd 12 01 00 	lea    0x112fd(%rip),%rax        # 240a8 <g_143>
   12dab:	48 89 85 28 fb ff ff 	mov    %rax,-0x4d8(%rbp)
   12db2:	48 8d 05 77 12 01 00 	lea    0x11277(%rip),%rax        # 24030 <g_8>
   12db9:	48 89 85 30 fb ff ff 	mov    %rax,-0x4d0(%rbp)
   12dc0:	48 8d 05 b1 15 01 00 	lea    0x115b1(%rip),%rax        # 24378 <g_457>
   12dc7:	48 89 85 38 fb ff ff 	mov    %rax,-0x4c8(%rbp)
   12dce:	48 8d 05 a3 15 01 00 	lea    0x115a3(%rip),%rax        # 24378 <g_457>
   12dd5:	48 89 85 40 fb ff ff 	mov    %rax,-0x4c0(%rbp)
   12ddc:	48 8d 05 4d 12 01 00 	lea    0x1124d(%rip),%rax        # 24030 <g_8>
   12de3:	48 89 85 48 fb ff ff 	mov    %rax,-0x4b8(%rbp)
   12dea:	48 c7 85 50 fb ff ff 	movq   $0x0,-0x4b0(%rbp)
   12df1:	00 00 00 00 
   12df5:	48 8d 05 34 12 01 00 	lea    0x11234(%rip),%rax        # 24030 <g_8>
   12dfc:	48 89 85 58 fb ff ff 	mov    %rax,-0x4a8(%rbp)
   12e03:	48 8d 05 26 12 01 00 	lea    0x11226(%rip),%rax        # 24030 <g_8>
   12e0a:	48 89 85 60 fb ff ff 	mov    %rax,-0x4a0(%rbp)
   12e11:	48 8d 05 18 12 01 00 	lea    0x11218(%rip),%rax        # 24030 <g_8>
   12e18:	48 89 85 68 fb ff ff 	mov    %rax,-0x498(%rbp)
   12e1f:	48 8d 85 48 f9 ff ff 	lea    -0x6b8(%rbp),%rax
   12e26:	48 89 85 50 f9 ff ff 	mov    %rax,-0x6b0(%rbp)
   12e2d:	48 8d 85 50 f9 ff ff 	lea    -0x6b0(%rbp),%rax
   12e34:	48 89 85 58 f9 ff ff 	mov    %rax,-0x6a8(%rbp)
   12e3b:	48 8d 85 58 f9 ff ff 	lea    -0x6a8(%rbp),%rax
   12e42:	48 89 85 f8 f9 ff ff 	mov    %rax,-0x608(%rbp)
   12e49:	48 c7 85 00 fa ff ff 	movq   $0x0,-0x600(%rbp)
   12e50:	00 00 00 00 
   12e54:	48 c7 85 60 f9 ff ff 	movq   $0x0,-0x6a0(%rbp)
   12e5b:	00 00 00 00 
   12e5f:	48 8d 85 60 f9 ff ff 	lea    -0x6a0(%rbp),%rax
   12e66:	48 89 85 80 fa ff ff 	mov    %rax,-0x580(%rbp)
   12e6d:	48 8d 85 60 f9 ff ff 	lea    -0x6a0(%rbp),%rax
   12e74:	48 89 85 88 fa ff ff 	mov    %rax,-0x578(%rbp)
   12e7b:	48 8d 85 60 f9 ff ff 	lea    -0x6a0(%rbp),%rax
   12e82:	48 89 85 90 fa ff ff 	mov    %rax,-0x570(%rbp)
   12e89:	48 8d 85 60 f9 ff ff 	lea    -0x6a0(%rbp),%rax
   12e90:	48 89 85 98 fa ff ff 	mov    %rax,-0x568(%rbp)
   12e97:	48 8d 85 60 f9 ff ff 	lea    -0x6a0(%rbp),%rax
   12e9e:	48 89 85 a0 fa ff ff 	mov    %rax,-0x560(%rbp)
   12ea5:	48 8d 85 60 f9 ff ff 	lea    -0x6a0(%rbp),%rax
   12eac:	48 89 85 a8 fa ff ff 	mov    %rax,-0x558(%rbp)
   12eb3:	48 8d 85 60 f9 ff ff 	lea    -0x6a0(%rbp),%rax
   12eba:	48 89 85 b0 fa ff ff 	mov    %rax,-0x550(%rbp)
   12ec1:	48 8d 85 60 f9 ff ff 	lea    -0x6a0(%rbp),%rax
   12ec8:	48 89 85 b8 fa ff ff 	mov    %rax,-0x548(%rbp)
   12ecf:	48 8d 85 60 f9 ff ff 	lea    -0x6a0(%rbp),%rax
   12ed6:	48 89 85 c0 fa ff ff 	mov    %rax,-0x540(%rbp)
   12edd:	48 8d 85 60 f9 ff ff 	lea    -0x6a0(%rbp),%rax
   12ee4:	48 89 85 c8 fa ff ff 	mov    %rax,-0x538(%rbp)
   12eeb:	48 8d 85 60 f9 ff ff 	lea    -0x6a0(%rbp),%rax
   12ef2:	48 89 85 d0 fa ff ff 	mov    %rax,-0x530(%rbp)
   12ef9:	48 8d 85 60 f9 ff ff 	lea    -0x6a0(%rbp),%rax
   12f00:	48 89 85 d8 fa ff ff 	mov    %rax,-0x528(%rbp)
   12f07:	48 8d 05 c2 65 01 00 	lea    0x165c2(%rip),%rax        # 294d0 <g_1568>
   12f0e:	48 89 85 08 fa ff ff 	mov    %rax,-0x5f8(%rbp)
   12f15:	66 c7 05 8a 11 01 00 	movw   $0x1,0x1118a(%rip)        # 240a8 <g_143>
   12f1c:	01 00 
   12f1e:	8b 85 9c f8 ff ff    	mov    -0x764(%rbp),%eax
   12f24:	0f b7 c0             	movzwl %ax,%eax
   12f27:	be 01 00 00 00       	mov    $0x1,%esi
   12f2c:	89 c7                	mov    %eax,%edi
   12f2e:	e8 5b 7e ff ff       	callq  ad8e <safe_div_func_uint16_t_u_u>
   12f33:	48 8b 05 a6 54 01 00 	mov    0x154a6(%rip),%rax        # 283e0 <g_421>
   12f3a:	0f b7 00             	movzwl (%rax),%eax
   12f3d:	0f b7 d8             	movzwl %ax,%ebx
   12f40:	8b 95 98 f8 ff ff    	mov    -0x768(%rbp),%edx
   12f46:	48 8b 8d 58 f9 ff ff 	mov    -0x6a8(%rbp),%rcx
   12f4d:	48 8b 85 f8 f9 ff ff 	mov    -0x608(%rbp),%rax
   12f54:	48 89 08             	mov    %rcx,(%rax)
   12f57:	48 8b 85 f8 f9 ff ff 	mov    -0x608(%rbp),%rax
   12f5e:	48 8b 08             	mov    (%rax),%rcx
   12f61:	48 8d 85 50 f9 ff ff 	lea    -0x6b0(%rbp),%rax
   12f68:	48 89 05 59 69 01 00 	mov    %rax,0x16959(%rip)        # 298c8 <g_2098>
   12f6f:	48 8b 05 52 69 01 00 	mov    0x16952(%rip),%rax        # 298c8 <g_2098>
   12f76:	48 39 c1             	cmp    %rax,%rcx
   12f79:	0f 95 c0             	setne  %al
   12f7c:	0f b6 c0             	movzbl %al,%eax
   12f7f:	33 85 bc f8 ff ff    	xor    -0x744(%rbp),%eax
   12f85:	89 c1                	mov    %eax,%ecx
   12f87:	48 8b 05 3a 56 01 00 	mov    0x1563a(%rip),%rax        # 285c8 <g_1097>
   12f8e:	0f b6 00             	movzbl (%rax),%eax
   12f91:	0f be c0             	movsbl %al,%eax
   12f94:	39 c1                	cmp    %eax,%ecx
   12f96:	0f 9c c0             	setl   %al
   12f99:	0f b6 c0             	movzbl %al,%eax
   12f9c:	f7 d0                	not    %eax
   12f9e:	48 98                	cltq   
   12fa0:	48 89 d6             	mov    %rdx,%rsi
   12fa3:	48 89 c7             	mov    %rax,%rdi
   12fa6:	e8 fd 78 ff ff       	callq  a8a8 <safe_sub_func_int64_t_s_s>
   12fab:	0f b6 c0             	movzbl %al,%eax
   12fae:	8b 95 bc f8 ff ff    	mov    -0x744(%rbp),%edx
   12fb4:	89 d6                	mov    %edx,%esi
   12fb6:	89 c7                	mov    %eax,%edi
   12fb8:	e8 d0 7c ff ff       	callq  ac8d <safe_rshift_func_uint8_t_u_s>
   12fbd:	0f b6 c0             	movzbl %al,%eax
   12fc0:	89 de                	mov    %ebx,%esi
   12fc2:	89 c7                	mov    %eax,%edi
   12fc4:	e8 56 7d ff ff       	callq  ad1f <safe_sub_func_uint16_t_u_u>
   12fc9:	0f b7 c0             	movzwl %ax,%eax
   12fcc:	89 c7                	mov    %eax,%edi
   12fce:	e8 16 7d ff ff       	callq  ace9 <safe_unary_minus_func_uint16_t_u>
   12fd3:	0f b6 d0             	movzbl %al,%edx
   12fd6:	b8 1b 75 9a f4       	mov    $0xf49a751b,%eax
   12fdb:	0f b6 c0             	movzbl %al,%eax
   12fde:	89 d6                	mov    %edx,%esi
   12fe0:	89 c7                	mov    %eax,%edi
   12fe2:	e8 c7 7b ff ff       	callq  abae <safe_mod_func_uint8_t_u_u>
   12fe7:	48 8b 05 2a 18 01 00 	mov    0x1182a(%rip),%rax        # 24818 <g_1822+0x38>
   12fee:	c6 05 3b 13 01 00 00 	movb   $0x0,0x1133b(%rip)        # 24330 <g_375>
   12ff5:	eb 31                	jmp    13028 <func_24+0x96c>
   12ff7:	48 8b 85 48 f9 ff ff 	mov    -0x6b8(%rbp),%rax
   12ffe:	48 8d 95 9c f8 ff ff 	lea    -0x764(%rbp),%rdx
   13005:	48 89 10             	mov    %rdx,(%rax)
   13008:	48 8b 15 a1 53 01 00 	mov    0x153a1(%rip),%rdx        # 283b0 <g_265>
   1300f:	48 8b 12             	mov    (%rdx),%rdx
   13012:	48 8b 00             	mov    (%rax),%rax
   13015:	48 89 02             	mov    %rax,(%rdx)
   13018:	0f b6 05 11 13 01 00 	movzbl 0x11311(%rip),%eax        # 24330 <g_375>
   1301f:	83 c0 01             	add    $0x1,%eax
   13022:	88 05 08 13 01 00    	mov    %al,0x11308(%rip)        # 24330 <g_375>
   13028:	0f b6 05 01 13 01 00 	movzbl 0x11301(%rip),%eax        # 24330 <g_375>
   1302f:	3c 03                	cmp    $0x3,%al
   13031:	76 c4                	jbe    12ff7 <func_24+0x93b>
   13033:	8b 05 cf 6e 01 00    	mov    0x16ecf(%rip),%eax        # 29f08 <g_36>
   13039:	83 e8 01             	sub    $0x1,%eax
   1303c:	89 05 c6 6e 01 00    	mov    %eax,0x16ec6(%rip)        # 29f08 <g_36>
   13042:	8b 05 c0 6e 01 00    	mov    0x16ec0(%rip),%eax        # 29f08 <g_36>
   13048:	85 c0                	test   %eax,%eax
   1304a:	0f 89 d9 fc ff ff    	jns    12d29 <func_24+0x66d>
   13050:	66 c7 05 b7 6e 01 00 	movw   $0x11,0x16eb7(%rip)        # 29f10 <g_144>
   13057:	11 00 
   13059:	e9 f9 00 00 00       	jmpq   13157 <func_24+0xa9b>
   1305e:	48 c7 85 e8 f9 ff ff 	movq   $0x0,-0x618(%rbp)
   13065:	00 00 00 00 
   13069:	c7 85 e4 f8 ff ff ff 	movl   $0xffffffff,-0x71c(%rbp)
   13070:	ff ff ff 
   13073:	c7 85 e8 f8 ff ff 00 	movl   $0x0,-0x718(%rbp)
   1307a:	00 00 00 
   1307d:	48 8d 05 84 10 01 00 	lea    0x11084(%rip),%rax        # 24108 <g_261>
   13084:	48 89 85 f0 f9 ff ff 	mov    %rax,-0x610(%rbp)
   1308b:	c7 85 e0 fa ff ff 4a 	movl   $0x3f4a004a,-0x520(%rbp)
   13092:	00 4a 3f 
   13095:	c7 85 e4 fa ff ff 3f 	movl   $0x3f3f693f,-0x51c(%rbp)
   1309c:	69 3f 3f 
   1309f:	c7 85 e8 fa ff ff 00 	movl   $0x692d0000,-0x518(%rbp)
   130a6:	00 2d 69 
   130a9:	c7 85 ec fa ff ff 69 	movl   $0x3f2d3f69,-0x514(%rbp)
   130b0:	3f 2d 3f 
   130b3:	c7 85 f0 fa ff ff 00 	movl   $0x2d3f4a00,-0x510(%rbp)
   130ba:	4a 3f 2d 
   130bd:	c7 85 f4 fa ff ff 3f 	movl   $0x3f4a4a3f,-0x50c(%rbp)
   130c4:	4a 4a 3f 
   130c7:	c7 85 f8 fa ff ff 4a 	movl   $0x69003f4a,-0x508(%rbp)
   130ce:	3f 00 69 
   130d1:	c7 85 ec f8 ff ff 01 	movl   $0x1,-0x714(%rbp)
   130d8:	00 00 00 
   130db:	c7 85 f0 f8 ff ff 01 	movl   $0x1,-0x710(%rbp)
   130e2:	00 00 00 
   130e5:	c7 85 f4 f8 ff ff 00 	movl   $0x0,-0x70c(%rbp)
   130ec:	00 00 00 
   130ef:	c7 85 f8 f8 ff ff ea 	movl   $0xe2d38cea,-0x708(%rbp)
   130f6:	8c d3 e2 
   130f9:	c7 85 ac f8 ff ff 00 	movl   $0x0,-0x754(%rbp)
   13100:	00 00 00 
   13103:	eb 1a                	jmp    1311f <func_24+0xa63>
   13105:	8b 85 ac f8 ff ff    	mov    -0x754(%rbp),%eax
   1310b:	48 98                	cltq   
   1310d:	c7 84 85 80 fa ff ff 	movl   $0xfffffffd,-0x580(%rbp,%rax,4)
   13114:	fd ff ff ff 
   13118:	83 85 ac f8 ff ff 01 	addl   $0x1,-0x754(%rbp)
   1311f:	83 bd ac f8 ff ff 00 	cmpl   $0x0,-0x754(%rbp)
   13126:	7e dd                	jle    13105 <func_24+0xa49>
   13128:	8b 05 4a 10 01 00    	mov    0x1104a(%rip),%eax        # 24178 <g_305>
   1312e:	85 c0                	test   %eax,%eax
   13130:	74 05                	je     13137 <func_24+0xa7b>
   13132:	e9 e3 fb ff ff       	jmpq   12d1a <func_24+0x65e>
   13137:	0f b7 05 d2 6d 01 00 	movzwl 0x16dd2(%rip),%eax        # 29f10 <g_144>
   1313e:	0f b6 c0             	movzbl %al,%eax
   13141:	be 08 00 00 00       	mov    $0x8,%esi
   13146:	89 c7                	mov    %eax,%edi
   13148:	e8 2b 7a ff ff       	callq  ab78 <safe_sub_func_uint8_t_u_u>
   1314d:	0f b6 c0             	movzbl %al,%eax
   13150:	66 89 05 b9 6d 01 00 	mov    %ax,0x16db9(%rip)        # 29f10 <g_144>
   13157:	0f b7 05 b2 6d 01 00 	movzwl 0x16db2(%rip),%eax        # 29f10 <g_144>
   1315e:	66 83 f8 eb          	cmp    $0xffeb,%ax
   13162:	0f 8d f6 fe ff ff    	jge    1305e <func_24+0x9a2>
   13168:	e9 d9 00 00 00       	jmpq   13246 <func_24+0xb8a>
   1316d:	c7 85 b8 f8 ff ff 04 	movl   $0xb2c49d04,-0x748(%rbp)
   13174:	9d c4 b2 
   13177:	48 83 bd 88 f8 ff ff 	cmpq   $0x0,-0x778(%rbp)
   1317e:	00 
   1317f:	74 0c                	je     1318d <func_24+0xad1>
   13181:	48 8b 85 a0 f9 ff ff 	mov    -0x660(%rbp),%rax
   13188:	e9 03 01 00 00       	jmpq   13290 <func_24+0xbd4>
   1318d:	c6 85 a7 f8 ff ff a6 	movb   $0xa6,-0x759(%rbp)
   13194:	48 8d 05 8d 0f 01 00 	lea    0x10f8d(%rip),%rax        # 24128 <g_301+0x8>
   1319b:	48 89 85 c8 f9 ff ff 	mov    %rax,-0x638(%rbp)
   131a2:	48 8d 85 20 fc ff ff 	lea    -0x3e0(%rbp),%rax
   131a9:	48 8d 15 b0 bc 00 00 	lea    0xbcb0(%rip),%rdx        # 1ee60 <g_3175+0xcbc>
   131b0:	b9 78 00 00 00       	mov    $0x78,%ecx
   131b5:	48 89 c7             	mov    %rax,%rdi
   131b8:	48 89 d6             	mov    %rdx,%rsi
   131bb:	f3 48 a5             	rep movsq %ds:(%rsi),%es:(%rdi)
   131be:	48 83 bd 88 f8 ff ff 	cmpq   $0x0,-0x778(%rbp)
   131c5:	00 
   131c6:	74 46                	je     1320e <func_24+0xb52>
   131c8:	0f b6 95 a7 f8 ff ff 	movzbl -0x759(%rbp),%edx
   131cf:	48 8b 85 88 f8 ff ff 	mov    -0x778(%rbp),%rax
   131d6:	98                   	cwtl   
   131d7:	89 d6                	mov    %edx,%esi
   131d9:	89 c7                	mov    %eax,%edi
   131db:	e8 15 72 ff ff       	callq  a3f5 <safe_mul_func_int16_t_s_s>
   131e0:	8b 85 b8 f8 ff ff    	mov    -0x748(%rbp),%eax
   131e6:	0f b6 c0             	movzbl %al,%eax
   131e9:	be 06 00 00 00       	mov    $0x6,%esi
   131ee:	89 c7                	mov    %eax,%edi
   131f0:	e8 98 7a ff ff       	callq  ac8d <safe_rshift_func_uint8_t_u_s>
   131f5:	48 83 bd c8 f9 ff ff 	cmpq   $0x0,-0x638(%rbp)
   131fc:	00 
   131fd:	8b 85 28 fd ff ff    	mov    -0x2d8(%rbp),%eax
   13203:	85 c0                	test   %eax,%eax
   13205:	74 07                	je     1320e <func_24+0xb52>
   13207:	b8 01 00 00 00       	mov    $0x1,%eax
   1320c:	eb 05                	jmp    13213 <func_24+0xb57>
   1320e:	b8 00 00 00 00       	mov    $0x0,%eax
   13213:	0f b7 c0             	movzwl %ax,%eax
   13216:	be 03 00 00 00       	mov    $0x3,%esi
   1321b:	89 c7                	mov    %eax,%edi
   1321d:	e8 26 7c ff ff       	callq  ae48 <safe_rshift_func_uint16_t_u_s>
   13222:	0f b7 c0             	movzwl %ax,%eax
   13225:	39 85 b8 f8 ff ff    	cmp    %eax,-0x748(%rbp)
   1322b:	0f 93 c0             	setae  %al
   1322e:	0f b6 c0             	movzbl %al,%eax
   13231:	89 85 9c f8 ff ff    	mov    %eax,-0x764(%rbp)
   13237:	48 8b 05 c2 51 01 00 	mov    0x151c2(%rip),%rax        # 28400 <g_610>
   1323e:	8b 95 9c f8 ff ff    	mov    -0x764(%rbp),%edx
   13244:	89 10                	mov    %edx,(%rax)
   13246:	48 8b 05 63 51 01 00 	mov    0x15163(%rip),%rax        # 283b0 <g_265>
   1324d:	48 8b 00             	mov    (%rax),%rax
   13250:	48 8d 95 9c f8 ff ff 	lea    -0x764(%rbp),%rdx
   13257:	48 89 10             	mov    %rdx,(%rax)
   1325a:	48 8b 05 9f 52 01 00 	mov    0x1529f(%rip),%rax        # 28500 <g_896>
   13261:	48 8b 00             	mov    (%rax),%rax
   13264:	8b 00                	mov    (%rax),%eax
   13266:	89 c0                	mov    %eax,%eax
   13268:	48 39 85 c0 f9 ff ff 	cmp    %rax,-0x640(%rbp)
   1326f:	0f 95 c0             	setne  %al
   13272:	0f b6 c8             	movzbl %al,%ecx
   13275:	48 8b 05 1c 51 01 00 	mov    0x1511c(%rip),%rax        # 28398 <g_147>
   1327c:	8b 10                	mov    (%rax),%edx
   1327e:	48 8b 05 13 51 01 00 	mov    0x15113(%rip),%rax        # 28398 <g_147>
   13285:	21 ca                	and    %ecx,%edx
   13287:	89 10                	mov    %edx,(%rax)
   13289:	48 8b 85 a8 f9 ff ff 	mov    -0x658(%rbp),%rax
   13290:	48 8b 5d e8          	mov    -0x18(%rbp),%rbx
   13294:	64 48 33 1c 25 28 00 	xor    %fs:0x28,%rbx
   1329b:	00 00 
   1329d:	74 05                	je     132a4 <func_24+0xbe8>
   1329f:	e8 cc 6d ff ff       	callq  a070 <__stack_chk_fail@plt>
   132a4:	48 81 c4 70 07 00 00 	add    $0x770,%rsp
   132ab:	5b                   	pop    %rbx
   132ac:	41 5c                	pop    %r12
   132ae:	5d                   	pop    %rbp
   132af:	c3                   	retq   

00000000000132b0 <func_54>:
   132b0:	f3 0f 1e fa          	endbr64 
   132b4:	55                   	push   %rbp
   132b5:	48 89 e5             	mov    %rsp,%rbp
   132b8:	41 57                	push   %r15
   132ba:	41 56                	push   %r14
   132bc:	41 55                	push   %r13
   132be:	41 54                	push   %r12
   132c0:	53                   	push   %rbx
   132c1:	48 81 ec 78 09 00 00 	sub    $0x978,%rsp
   132c8:	89 fa                	mov    %edi,%edx
   132ca:	89 f0                	mov    %esi,%eax
   132cc:	66 89 95 6c f6 ff ff 	mov    %dx,-0x994(%rbp)
   132d3:	66 89 85 68 f6 ff ff 	mov    %ax,-0x998(%rbp)
   132da:	64 48 8b 04 25 28 00 	mov    %fs:0x28,%rax
   132e1:	00 00 
   132e3:	48 89 45 c8          	mov    %rax,-0x38(%rbp)
   132e7:	31 c0                	xor    %eax,%eax
   132e9:	48 8d 05 b0 0d 01 00 	lea    0x10db0(%rip),%rax        # 240a0 <g_101>
   132f0:	48 89 85 90 f6 ff ff 	mov    %rax,-0x970(%rbp)
   132f7:	48 8d 85 90 f6 ff ff 	lea    -0x970(%rbp),%rax
   132fe:	48 89 85 98 f6 ff ff 	mov    %rax,-0x968(%rbp)
   13305:	48 8d 85 98 f6 ff ff 	lea    -0x968(%rbp),%rax
   1330c:	48 89 85 c0 f6 ff ff 	mov    %rax,-0x940(%rbp)
   13313:	48 c7 85 c8 f6 ff ff 	movq   $0x0,-0x938(%rbp)
   1331a:	00 00 00 00 
   1331e:	c7 85 7c f6 ff ff 02 	movl   $0x2,-0x984(%rbp)
   13325:	00 00 00 
   13328:	48 c7 85 d0 f6 ff ff 	movq   $0x0,-0x930(%rbp)
   1332f:	00 00 00 00 
   13333:	48 8d 05 46 11 01 00 	lea    0x11146(%rip),%rax        # 24480 <g_651>
   1333a:	48 89 85 a0 f6 ff ff 	mov    %rax,-0x960(%rbp)
   13341:	48 8d 05 28 15 01 00 	lea    0x11528(%rip),%rax        # 24870 <g_1886>
   13348:	48 89 85 d8 f6 ff ff 	mov    %rax,-0x928(%rbp)
   1334f:	c7 85 80 f6 ff ff ff 	movl   $0xffffffff,-0x980(%rbp)
   13356:	ff ff ff 
   13359:	c7 85 84 f6 ff ff fb 	movl   $0xfffffffb,-0x97c(%rbp)
   13360:	ff ff ff 
   13363:	48 c7 85 e0 f6 ff ff 	movq   $0x0,-0x920(%rbp)
   1336a:	00 00 00 00 
   1336e:	48 8d 05 97 6b 01 00 	lea    0x16b97(%rip),%rax        # 29f0c <g_65>
   13375:	48 89 85 e8 f6 ff ff 	mov    %rax,-0x918(%rbp)
   1337c:	48 8d 05 55 50 01 00 	lea    0x15055(%rip),%rax        # 283d8 <g_400>
   13383:	48 89 85 f0 f6 ff ff 	mov    %rax,-0x910(%rbp)
   1338a:	c7 85 78 f6 ff ff 00 	movl   $0x0,-0x988(%rbp)
   13391:	00 00 00 
   13394:	eb 1e                	jmp    133b4 <func_54+0x104>
   13396:	8b 85 78 f6 ff ff    	mov    -0x988(%rbp),%eax
   1339c:	48 98                	cltq   
   1339e:	48 8d 15 83 0c 01 00 	lea    0x10c83(%rip),%rdx        # 24028 <g_6>
   133a5:	48 89 94 c5 60 f7 ff 	mov    %rdx,-0x8a0(%rbp,%rax,8)
   133ac:	ff 
   133ad:	83 85 78 f6 ff ff 01 	addl   $0x1,-0x988(%rbp)
   133b4:	83 bd 78 f6 ff ff 01 	cmpl   $0x1,-0x988(%rbp)
   133bb:	7e d9                	jle    13396 <func_54+0xe6>
   133bd:	c7 85 78 f6 ff ff 00 	movl   $0x0,-0x988(%rbp)
   133c4:	00 00 00 
   133c7:	eb 1a                	jmp    133e3 <func_54+0x133>
   133c9:	8b 85 78 f6 ff ff    	mov    -0x988(%rbp),%eax
   133cf:	48 98                	cltq   
   133d1:	c7 84 85 58 f7 ff ff 	movl   $0xffffffff,-0x8a8(%rbp,%rax,4)
   133d8:	ff ff ff ff 
   133dc:	83 85 78 f6 ff ff 01 	addl   $0x1,-0x988(%rbp)
   133e3:	83 bd 78 f6 ff ff 01 	cmpl   $0x1,-0x988(%rbp)
   133ea:	7e dd                	jle    133c9 <func_54+0x119>
   133ec:	c7 05 82 0d 01 00 00 	movl   $0x0,0x10d82(%rip)        # 24178 <g_305>
   133f3:	00 00 00 
   133f6:	90                   	nop
   133f7:	8b 05 7b 0d 01 00    	mov    0x10d7b(%rip),%eax        # 24178 <g_305>
   133fd:	83 f8 1c             	cmp    $0x1c,%eax
   13400:	0f 8f db 04 00 00    	jg     138e1 <func_54+0x631>
   13406:	48 8d 05 63 60 01 00 	lea    0x16063(%rip),%rax        # 29470 <g_1350>
   1340d:	48 89 85 70 f7 ff ff 	mov    %rax,-0x890(%rbp)
   13414:	48 8d 05 55 60 01 00 	lea    0x16055(%rip),%rax        # 29470 <g_1350>
   1341b:	48 89 85 78 f7 ff ff 	mov    %rax,-0x888(%rbp)
   13422:	48 8d 05 47 60 01 00 	lea    0x16047(%rip),%rax        # 29470 <g_1350>
   13429:	48 89 85 80 f7 ff ff 	mov    %rax,-0x880(%rbp)
   13430:	48 8d 05 39 60 01 00 	lea    0x16039(%rip),%rax        # 29470 <g_1350>
   13437:	48 89 85 88 f7 ff ff 	mov    %rax,-0x878(%rbp)
   1343e:	48 c7 85 30 f7 ff ff 	movq   $0x0,-0x8d0(%rbp)
   13445:	00 00 00 00 
   13449:	48 8d 05 78 0c 01 00 	lea    0x10c78(%rip),%rax        # 240c8 <g_213>
   13450:	48 89 85 38 f7 ff ff 	mov    %rax,-0x8c8(%rbp)
   13457:	48 c7 85 40 f7 ff ff 	movq   $0x0,-0x8c0(%rbp)
   1345e:	00 00 00 00 
   13462:	48 c7 85 a8 f6 ff ff 	movq   $0x0,-0x958(%rbp)
   13469:	00 00 00 00 
   1346d:	48 8d 85 a8 f6 ff ff 	lea    -0x958(%rbp),%rax
   13474:	48 89 85 b0 f6 ff ff 	mov    %rax,-0x950(%rbp)
   1347b:	48 8d 85 b0 f6 ff ff 	lea    -0x950(%rbp),%rax
   13482:	48 89 85 30 f8 ff ff 	mov    %rax,-0x7d0(%rbp)
   13489:	48 8d 85 b0 f6 ff ff 	lea    -0x950(%rbp),%rax
   13490:	48 89 85 38 f8 ff ff 	mov    %rax,-0x7c8(%rbp)
   13497:	48 8d 85 b0 f6 ff ff 	lea    -0x950(%rbp),%rax
   1349e:	48 89 85 40 f8 ff ff 	mov    %rax,-0x7c0(%rbp)
   134a5:	48 8d 85 b0 f6 ff ff 	lea    -0x950(%rbp),%rax
   134ac:	48 89 85 48 f8 ff ff 	mov    %rax,-0x7b8(%rbp)
   134b3:	48 8d 85 b0 f6 ff ff 	lea    -0x950(%rbp),%rax
   134ba:	48 89 85 50 f8 ff ff 	mov    %rax,-0x7b0(%rbp)
   134c1:	48 8d 85 b0 f6 ff ff 	lea    -0x950(%rbp),%rax
   134c8:	48 89 85 58 f8 ff ff 	mov    %rax,-0x7a8(%rbp)
   134cf:	48 8d 85 b0 f6 ff ff 	lea    -0x950(%rbp),%rax
   134d6:	48 89 85 60 f8 ff ff 	mov    %rax,-0x7a0(%rbp)
   134dd:	48 8d 85 b0 f6 ff ff 	lea    -0x950(%rbp),%rax
   134e4:	48 89 85 68 f8 ff ff 	mov    %rax,-0x798(%rbp)
   134eb:	48 8d 85 b0 f6 ff ff 	lea    -0x950(%rbp),%rax
   134f2:	48 89 85 70 f8 ff ff 	mov    %rax,-0x790(%rbp)
   134f9:	48 8d 85 b0 f6 ff ff 	lea    -0x950(%rbp),%rax
   13500:	48 89 85 78 f8 ff ff 	mov    %rax,-0x788(%rbp)
   13507:	48 8d 85 b0 f6 ff ff 	lea    -0x950(%rbp),%rax
   1350e:	48 89 85 80 f8 ff ff 	mov    %rax,-0x780(%rbp)
   13515:	48 8d 85 b0 f6 ff ff 	lea    -0x950(%rbp),%rax
   1351c:	48 89 85 88 f8 ff ff 	mov    %rax,-0x778(%rbp)
   13523:	48 8d 85 b0 f6 ff ff 	lea    -0x950(%rbp),%rax
   1352a:	48 89 85 90 f8 ff ff 	mov    %rax,-0x770(%rbp)
   13531:	48 8d 85 b0 f6 ff ff 	lea    -0x950(%rbp),%rax
   13538:	48 89 85 98 f8 ff ff 	mov    %rax,-0x768(%rbp)
   1353f:	48 c7 85 a0 f8 ff ff 	movq   $0x0,-0x760(%rbp)
   13546:	00 00 00 00 
   1354a:	48 8d 85 b0 f6 ff ff 	lea    -0x950(%rbp),%rax
   13551:	48 89 85 a8 f8 ff ff 	mov    %rax,-0x758(%rbp)
   13558:	48 8d 85 b0 f6 ff ff 	lea    -0x950(%rbp),%rax
   1355f:	48 89 85 b0 f8 ff ff 	mov    %rax,-0x750(%rbp)
   13566:	48 c7 85 b8 f8 ff ff 	movq   $0x0,-0x748(%rbp)
   1356d:	00 00 00 00 
   13571:	48 8d 85 b0 f6 ff ff 	lea    -0x950(%rbp),%rax
   13578:	48 89 85 c0 f8 ff ff 	mov    %rax,-0x740(%rbp)
   1357f:	48 8d 85 b0 f6 ff ff 	lea    -0x950(%rbp),%rax
   13586:	48 89 85 c8 f8 ff ff 	mov    %rax,-0x738(%rbp)
   1358d:	48 8d 85 b0 f6 ff ff 	lea    -0x950(%rbp),%rax
   13594:	48 89 85 d0 f8 ff ff 	mov    %rax,-0x730(%rbp)
   1359b:	48 8d 85 b0 f6 ff ff 	lea    -0x950(%rbp),%rax
   135a2:	48 89 85 d8 f8 ff ff 	mov    %rax,-0x728(%rbp)
   135a9:	48 8d 85 b0 f6 ff ff 	lea    -0x950(%rbp),%rax
   135b0:	48 89 85 e0 f8 ff ff 	mov    %rax,-0x720(%rbp)
   135b7:	48 8d 85 b0 f6 ff ff 	lea    -0x950(%rbp),%rax
   135be:	48 89 85 e8 f8 ff ff 	mov    %rax,-0x718(%rbp)
   135c5:	48 8d 85 b0 f6 ff ff 	lea    -0x950(%rbp),%rax
   135cc:	48 89 85 f0 f8 ff ff 	mov    %rax,-0x710(%rbp)
   135d3:	48 8d 85 b0 f6 ff ff 	lea    -0x950(%rbp),%rax
   135da:	48 89 85 f8 f8 ff ff 	mov    %rax,-0x708(%rbp)
   135e1:	48 8d 85 b0 f6 ff ff 	lea    -0x950(%rbp),%rax
   135e8:	48 89 85 00 f9 ff ff 	mov    %rax,-0x700(%rbp)
   135ef:	48 8d 85 b0 f6 ff ff 	lea    -0x950(%rbp),%rax
   135f6:	48 89 85 08 f9 ff ff 	mov    %rax,-0x6f8(%rbp)
   135fd:	48 8d 85 b0 f6 ff ff 	lea    -0x950(%rbp),%rax
   13604:	48 89 85 10 f9 ff ff 	mov    %rax,-0x6f0(%rbp)
   1360b:	48 8d 85 b0 f6 ff ff 	lea    -0x950(%rbp),%rax
   13612:	48 89 85 18 f9 ff ff 	mov    %rax,-0x6e8(%rbp)
   13619:	48 8d 85 b0 f6 ff ff 	lea    -0x950(%rbp),%rax
   13620:	48 89 85 20 f9 ff ff 	mov    %rax,-0x6e0(%rbp)
   13627:	48 8d 85 b0 f6 ff ff 	lea    -0x950(%rbp),%rax
   1362e:	48 89 85 28 f9 ff ff 	mov    %rax,-0x6d8(%rbp)
   13635:	48 8d 85 b0 f6 ff ff 	lea    -0x950(%rbp),%rax
   1363c:	48 89 85 30 f9 ff ff 	mov    %rax,-0x6d0(%rbp)
   13643:	48 c7 85 38 f9 ff ff 	movq   $0x0,-0x6c8(%rbp)
   1364a:	00 00 00 00 
   1364e:	48 8d 85 b0 f6 ff ff 	lea    -0x950(%rbp),%rax
   13655:	48 89 85 40 f9 ff ff 	mov    %rax,-0x6c0(%rbp)
   1365c:	48 8d 85 b0 f6 ff ff 	lea    -0x950(%rbp),%rax
   13663:	48 89 85 48 f9 ff ff 	mov    %rax,-0x6b8(%rbp)
   1366a:	48 8d 85 b0 f6 ff ff 	lea    -0x950(%rbp),%rax
   13671:	48 89 85 50 f9 ff ff 	mov    %rax,-0x6b0(%rbp)
   13678:	48 8d 85 b0 f6 ff ff 	lea    -0x950(%rbp),%rax
   1367f:	48 89 85 58 f9 ff ff 	mov    %rax,-0x6a8(%rbp)
   13686:	48 c7 85 60 f9 ff ff 	movq   $0x0,-0x6a0(%rbp)
   1368d:	00 00 00 00 
   13691:	48 8d 85 b0 f6 ff ff 	lea    -0x950(%rbp),%rax
   13698:	48 89 85 68 f9 ff ff 	mov    %rax,-0x698(%rbp)
   1369f:	48 8d 85 b0 f6 ff ff 	lea    -0x950(%rbp),%rax
   136a6:	48 89 85 70 f9 ff ff 	mov    %rax,-0x690(%rbp)
   136ad:	48 8d 85 b0 f6 ff ff 	lea    -0x950(%rbp),%rax
   136b4:	48 89 85 78 f9 ff ff 	mov    %rax,-0x688(%rbp)
   136bb:	48 8d 85 b0 f6 ff ff 	lea    -0x950(%rbp),%rax
   136c2:	48 89 85 80 f9 ff ff 	mov    %rax,-0x680(%rbp)
   136c9:	48 8d 85 b0 f6 ff ff 	lea    -0x950(%rbp),%rax
   136d0:	48 89 85 88 f9 ff ff 	mov    %rax,-0x678(%rbp)
   136d7:	48 8d 85 b0 f6 ff ff 	lea    -0x950(%rbp),%rax
   136de:	48 89 85 90 f9 ff ff 	mov    %rax,-0x670(%rbp)
   136e5:	48 8d 85 b0 f6 ff ff 	lea    -0x950(%rbp),%rax
   136ec:	48 89 85 98 f9 ff ff 	mov    %rax,-0x668(%rbp)
   136f3:	48 8d 85 b0 f6 ff ff 	lea    -0x950(%rbp),%rax
   136fa:	48 89 85 a0 f9 ff ff 	mov    %rax,-0x660(%rbp)
   13701:	48 8d 85 b0 f6 ff ff 	lea    -0x950(%rbp),%rax
   13708:	48 89 85 a8 f9 ff ff 	mov    %rax,-0x658(%rbp)
   1370f:	48 8d 85 b0 f6 ff ff 	lea    -0x950(%rbp),%rax
   13716:	48 89 85 b0 f9 ff ff 	mov    %rax,-0x650(%rbp)
   1371d:	48 8d 85 b0 f6 ff ff 	lea    -0x950(%rbp),%rax
   13724:	48 89 85 b8 f9 ff ff 	mov    %rax,-0x648(%rbp)
   1372b:	48 8d 85 b0 f6 ff ff 	lea    -0x950(%rbp),%rax
   13732:	48 89 85 c0 f9 ff ff 	mov    %rax,-0x640(%rbp)
   13739:	48 8d 85 b0 f6 ff ff 	lea    -0x950(%rbp),%rax
   13740:	48 89 85 c8 f9 ff ff 	mov    %rax,-0x638(%rbp)
   13747:	48 8d 85 b0 f6 ff ff 	lea    -0x950(%rbp),%rax
   1374e:	48 89 85 d0 f9 ff ff 	mov    %rax,-0x630(%rbp)
   13755:	48 c7 85 d8 f9 ff ff 	movq   $0x0,-0x628(%rbp)
   1375c:	00 00 00 00 
   13760:	48 c7 85 e0 f9 ff ff 	movq   $0x0,-0x620(%rbp)
   13767:	00 00 00 00 
   1376b:	48 8d 85 b0 f6 ff ff 	lea    -0x950(%rbp),%rax
   13772:	48 89 85 e8 f9 ff ff 	mov    %rax,-0x618(%rbp)
   13779:	48 8d 85 30 f8 ff ff 	lea    -0x7d0(%rbp),%rax
   13780:	48 83 c0 20          	add    $0x20,%rax
   13784:	48 89 85 b8 f6 ff ff 	mov    %rax,-0x948(%rbp)
   1378b:	48 8d 85 b8 f6 ff ff 	lea    -0x948(%rbp),%rax
   13792:	48 89 85 48 f7 ff ff 	mov    %rax,-0x8b8(%rbp)
   13799:	66 c7 85 76 f6 ff ff 	movw   $0x84fa,-0x98a(%rbp)
   137a0:	fa 84 
   137a2:	0f bf 8d 6c f6 ff ff 	movswl -0x994(%rbp),%ecx
   137a9:	48 8d 05 78 09 01 00 	lea    0x10978(%rip),%rax        # 24128 <g_301+0x8>
   137b0:	48 89 85 68 f7 ff ff 	mov    %rax,-0x898(%rbp)
   137b7:	48 8b 85 68 f7 ff ff 	mov    -0x898(%rbp),%rax
   137be:	48 8b 95 90 f6 ff ff 	mov    -0x970(%rbp),%rdx
   137c5:	48 89 95 c8 f6 ff ff 	mov    %rdx,-0x938(%rbp)
   137cc:	48 39 85 c8 f6 ff ff 	cmp    %rax,-0x938(%rbp)
   137d3:	0f 95 c0             	setne  %al
   137d6:	0f b6 c0             	movzbl %al,%eax
   137d9:	09 c8                	or     %ecx,%eax
   137db:	21 85 7c f6 ff ff    	and    %eax,-0x984(%rbp)
   137e1:	48 8b 05 88 5c 01 00 	mov    0x15c88(%rip),%rax        # 29470 <g_1350>
   137e8:	8b 95 7c f6 ff ff    	mov    -0x984(%rbp),%edx
   137ee:	48 63 d2             	movslq %edx,%rdx
   137f1:	48 89 10             	mov    %rdx,(%rax)
   137f4:	48 8b 00             	mov    (%rax),%rax
   137f7:	48 85 c0             	test   %rax,%rax
   137fa:	0f 85 88 00 00 00    	jne    13888 <func_54+0x5d8>
   13800:	48 8b 05 31 0d 01 00 	mov    0x10d31(%rip),%rax        # 24538 <g_883+0x8>
   13807:	89 c2                	mov    %eax,%edx
   13809:	48 8b 85 38 f7 ff ff 	mov    -0x8c8(%rbp),%rax
   13810:	88 10                	mov    %dl,(%rax)
   13812:	48 8b 85 38 f7 ff ff 	mov    -0x8c8(%rbp),%rax
   13819:	0f b6 00             	movzbl (%rax),%eax
   1381c:	0f b6 c0             	movzbl %al,%eax
   1381f:	89 c6                	mov    %eax,%esi
   13821:	bf 07 00 00 00       	mov    $0x7,%edi
   13826:	e8 21 74 ff ff       	callq  ac4c <safe_lshift_func_uint8_t_u_u>
   1382b:	0f b6 d8             	movzbl %al,%ebx
   1382e:	0f bf 85 76 f6 ff ff 	movswl -0x98a(%rbp),%eax
   13835:	48 8b 95 48 f7 ff ff 	mov    -0x8b8(%rbp),%rdx
   1383c:	48 8b 8d 40 f7 ff ff 	mov    -0x8c0(%rbp),%rcx
   13843:	48 89 0a             	mov    %rcx,(%rdx)
   13846:	66 83 bd 76 f6 ff ff 	cmpw   $0x0,-0x98a(%rbp)
   1384d:	00 
   1384e:	74 07                	je     13857 <func_54+0x5a7>
   13850:	ba 01 00 00 00       	mov    $0x1,%edx
   13855:	eb 05                	jmp    1385c <func_54+0x5ac>
   13857:	ba 00 00 00 00       	mov    $0x0,%edx
   1385c:	89 c6                	mov    %eax,%esi
   1385e:	89 d7                	mov    %edx,%edi
   13860:	e8 6b 76 ff ff       	callq  aed0 <safe_sub_func_uint32_t_u_u>
   13865:	48 8b 05 5c 4d 01 00 	mov    0x14d5c(%rip),%rax        # 285c8 <g_1097>
   1386c:	c6 00 e0             	movb   $0xe0,(%rax)
   1386f:	0f b6 00             	movzbl (%rax),%eax
   13872:	88 05 8d 0e 01 00    	mov    %al,0x10e8d(%rip)        # 24705 <g_977+0xe5>
   13878:	0f b6 05 86 0e 01 00 	movzbl 0x10e86(%rip),%eax        # 24705 <g_977+0xe5>
   1387f:	0f be c0             	movsbl %al,%eax
   13882:	21 d8                	and    %ebx,%eax
   13884:	85 c0                	test   %eax,%eax
   13886:	74 07                	je     1388f <func_54+0x5df>
   13888:	b8 01 00 00 00       	mov    $0x1,%eax
   1388d:	eb 05                	jmp    13894 <func_54+0x5e4>
   1388f:	b8 00 00 00 00       	mov    $0x0,%eax
   13894:	0f b6 c0             	movzbl %al,%eax
   13897:	be 03 00 00 00       	mov    $0x3,%esi
   1389c:	89 c7                	mov    %eax,%edi
   1389e:	e8 0b 73 ff ff       	callq  abae <safe_mod_func_uint8_t_u_u>
   138a3:	84 c0                	test   %al,%al
   138a5:	74 1d                	je     138c4 <func_54+0x614>
   138a7:	48 8d 05 fe 07 01 00 	lea    0x107fe(%rip),%rax        # 240ac <g_188>
   138ae:	48 89 85 50 f7 ff ff 	mov    %rax,-0x8b0(%rbp)
   138b5:	48 8b 85 50 f7 ff ff 	mov    -0x8b0(%rbp),%rax
   138bc:	c7 00 08 00 00 00    	movl   $0x8,(%rax)
   138c2:	eb 0e                	jmp    138d2 <func_54+0x622>
   138c4:	48 8b 05 15 5c 01 00 	mov    0x15c15(%rip),%rax        # 294e0 <g_1848>
   138cb:	48 89 05 0e 5c 01 00 	mov    %rax,0x15c0e(%rip)        # 294e0 <g_1848>
   138d2:	48 8b 05 ef 4c 01 00 	mov    0x14cef(%rip),%rax        # 285c8 <g_1097>
   138d9:	0f b6 00             	movzbl (%rax),%eax
   138dc:	e9 cd 10 00 00       	jmpq   149ae <func_54+0x16fe>
   138e1:	c6 05 48 0a 01 00 11 	movb   $0x11,0x10a48(%rip)        # 24330 <g_375>
   138e8:	e9 ab 10 00 00       	jmpq   14998 <func_54+0x16e8>
   138ed:	48 c7 85 f8 f6 ff ff 	movq   $0x0,-0x908(%rbp)
   138f4:	00 00 00 00 
   138f8:	c7 85 88 f6 ff ff 15 	movl   $0x8c7ec715,-0x978(%rbp)
   138ff:	c7 7e 8c 
   13902:	48 8d 85 90 f6 ff ff 	lea    -0x970(%rbp),%rax
   13909:	48 89 85 00 f7 ff ff 	mov    %rax,-0x900(%rbp)
   13910:	48 c7 85 08 f7 ff ff 	movq   $0x1,-0x8f8(%rbp)
   13917:	01 00 00 00 
   1391b:	48 8d 05 56 0a 01 00 	lea    0x10a56(%rip),%rax        # 24378 <g_457>
   13922:	48 89 85 10 f7 ff ff 	mov    %rax,-0x8f0(%rbp)
   13929:	48 8d 05 4c 08 01 00 	lea    0x1084c(%rip),%rax        # 2417c <g_322>
   13930:	48 89 85 b0 f6 ff ff 	mov    %rax,-0x950(%rbp)
   13937:	48 8d 85 b0 f6 ff ff 	lea    -0x950(%rbp),%rax
   1393e:	48 89 85 b8 f6 ff ff 	mov    %rax,-0x948(%rbp)
   13945:	48 8d 85 b8 f6 ff ff 	lea    -0x948(%rbp),%rax
   1394c:	48 89 85 18 f7 ff ff 	mov    %rax,-0x8e8(%rbp)
   13953:	48 c7 85 20 f7 ff ff 	movq   $0x0,-0x8e0(%rbp)
   1395a:	00 00 00 00 
   1395e:	48 c7 85 28 f7 ff ff 	movq   $0x0,-0x8d8(%rbp)
   13965:	00 00 00 00 
   13969:	48 c7 85 30 f8 ff ff 	movq   $0x0,-0x7d0(%rbp)
   13970:	00 00 00 00 
   13974:	48 c7 85 38 f8 ff ff 	movq   $0x0,-0x7c8(%rbp)
   1397b:	00 00 00 00 
   1397f:	48 c7 85 40 f8 ff ff 	movq   $0x0,-0x7c0(%rbp)
   13986:	00 00 00 00 
   1398a:	48 8d 05 4f 4b 01 00 	lea    0x14b4f(%rip),%rax        # 284e0 <g_882>
   13991:	48 89 85 48 f8 ff ff 	mov    %rax,-0x7b8(%rbp)
   13998:	48 8d 85 a0 f6 ff ff 	lea    -0x960(%rbp),%rax
   1399f:	48 89 85 50 f8 ff ff 	mov    %rax,-0x7b0(%rbp)
   139a6:	48 8d 05 33 4b 01 00 	lea    0x14b33(%rip),%rax        # 284e0 <g_882>
   139ad:	48 89 85 58 f8 ff ff 	mov    %rax,-0x7a8(%rbp)
   139b4:	48 8d 85 a0 f6 ff ff 	lea    -0x960(%rbp),%rax
   139bb:	48 89 85 60 f8 ff ff 	mov    %rax,-0x7a0(%rbp)
   139c2:	48 c7 85 68 f8 ff ff 	movq   $0x0,-0x798(%rbp)
   139c9:	00 00 00 00 
   139cd:	48 8d 85 a0 f6 ff ff 	lea    -0x960(%rbp),%rax
   139d4:	48 89 85 70 f8 ff ff 	mov    %rax,-0x790(%rbp)
   139db:	48 8d 85 a0 f6 ff ff 	lea    -0x960(%rbp),%rax
   139e2:	48 89 85 78 f8 ff ff 	mov    %rax,-0x788(%rbp)
   139e9:	48 8d 85 a0 f6 ff ff 	lea    -0x960(%rbp),%rax
   139f0:	48 89 85 80 f8 ff ff 	mov    %rax,-0x780(%rbp)
   139f7:	48 c7 85 88 f8 ff ff 	movq   $0x0,-0x778(%rbp)
   139fe:	00 00 00 00 
   13a02:	48 8d 85 a0 f6 ff ff 	lea    -0x960(%rbp),%rax
   13a09:	48 89 85 90 f8 ff ff 	mov    %rax,-0x770(%rbp)
   13a10:	48 8d 85 a0 f6 ff ff 	lea    -0x960(%rbp),%rax
   13a17:	48 89 85 98 f8 ff ff 	mov    %rax,-0x768(%rbp)
   13a1e:	48 c7 85 a0 f8 ff ff 	movq   $0x0,-0x760(%rbp)
   13a25:	00 00 00 00 
   13a29:	48 8d 85 a0 f6 ff ff 	lea    -0x960(%rbp),%rax
   13a30:	48 89 85 a8 f8 ff ff 	mov    %rax,-0x758(%rbp)
   13a37:	48 8d 85 a0 f6 ff ff 	lea    -0x960(%rbp),%rax
   13a3e:	48 89 85 b0 f8 ff ff 	mov    %rax,-0x750(%rbp)
   13a45:	48 8d 05 94 4a 01 00 	lea    0x14a94(%rip),%rax        # 284e0 <g_882>
   13a4c:	48 89 85 b8 f8 ff ff 	mov    %rax,-0x748(%rbp)
   13a53:	48 8d 85 a0 f6 ff ff 	lea    -0x960(%rbp),%rax
   13a5a:	48 89 85 c0 f8 ff ff 	mov    %rax,-0x740(%rbp)
   13a61:	48 8d 85 a0 f6 ff ff 	lea    -0x960(%rbp),%rax
   13a68:	48 89 85 c8 f8 ff ff 	mov    %rax,-0x738(%rbp)
   13a6f:	48 8d 85 a0 f6 ff ff 	lea    -0x960(%rbp),%rax
   13a76:	48 89 85 d0 f8 ff ff 	mov    %rax,-0x730(%rbp)
   13a7d:	48 8d 05 5c 4a 01 00 	lea    0x14a5c(%rip),%rax        # 284e0 <g_882>
   13a84:	48 89 85 d8 f8 ff ff 	mov    %rax,-0x728(%rbp)
   13a8b:	48 8d 05 4e 4a 01 00 	lea    0x14a4e(%rip),%rax        # 284e0 <g_882>
   13a92:	48 89 85 e0 f8 ff ff 	mov    %rax,-0x720(%rbp)
   13a99:	48 8d 85 a0 f6 ff ff 	lea    -0x960(%rbp),%rax
   13aa0:	48 89 85 e8 f8 ff ff 	mov    %rax,-0x718(%rbp)
   13aa7:	48 8d 85 a0 f6 ff ff 	lea    -0x960(%rbp),%rax
   13aae:	48 89 85 f0 f8 ff ff 	mov    %rax,-0x710(%rbp)
   13ab5:	48 8d 85 a0 f6 ff ff 	lea    -0x960(%rbp),%rax
   13abc:	48 89 85 f8 f8 ff ff 	mov    %rax,-0x708(%rbp)
   13ac3:	48 8d 85 a0 f6 ff ff 	lea    -0x960(%rbp),%rax
   13aca:	48 89 85 00 f9 ff ff 	mov    %rax,-0x700(%rbp)
   13ad1:	48 8d 85 a0 f6 ff ff 	lea    -0x960(%rbp),%rax
   13ad8:	48 89 85 08 f9 ff ff 	mov    %rax,-0x6f8(%rbp)
   13adf:	48 8d 85 a0 f6 ff ff 	lea    -0x960(%rbp),%rax
   13ae6:	48 89 85 10 f9 ff ff 	mov    %rax,-0x6f0(%rbp)
   13aed:	48 8d 05 ec 49 01 00 	lea    0x149ec(%rip),%rax        # 284e0 <g_882>
   13af4:	48 89 85 18 f9 ff ff 	mov    %rax,-0x6e8(%rbp)
   13afb:	48 c7 85 20 f9 ff ff 	movq   $0x0,-0x6e0(%rbp)
   13b02:	00 00 00 00 
   13b06:	48 8d 85 a0 f6 ff ff 	lea    -0x960(%rbp),%rax
   13b0d:	48 89 85 28 f9 ff ff 	mov    %rax,-0x6d8(%rbp)
   13b14:	48 c7 85 30 f9 ff ff 	movq   $0x0,-0x6d0(%rbp)
   13b1b:	00 00 00 00 
   13b1f:	48 c7 85 38 f9 ff ff 	movq   $0x0,-0x6c8(%rbp)
   13b26:	00 00 00 00 
   13b2a:	48 8d 85 a0 f6 ff ff 	lea    -0x960(%rbp),%rax
   13b31:	48 89 85 40 f9 ff ff 	mov    %rax,-0x6c0(%rbp)
   13b38:	48 c7 85 48 f9 ff ff 	movq   $0x0,-0x6b8(%rbp)
   13b3f:	00 00 00 00 
   13b43:	48 8d 85 a0 f6 ff ff 	lea    -0x960(%rbp),%rax
   13b4a:	48 89 85 50 f9 ff ff 	mov    %rax,-0x6b0(%rbp)
   13b51:	48 8d 05 88 49 01 00 	lea    0x14988(%rip),%rax        # 284e0 <g_882>
   13b58:	48 89 85 58 f9 ff ff 	mov    %rax,-0x6a8(%rbp)
   13b5f:	48 8d 85 a0 f6 ff ff 	lea    -0x960(%rbp),%rax
   13b66:	48 89 85 60 f9 ff ff 	mov    %rax,-0x6a0(%rbp)
   13b6d:	48 c7 85 68 f9 ff ff 	movq   $0x0,-0x698(%rbp)
   13b74:	00 00 00 00 
   13b78:	48 c7 85 70 f9 ff ff 	movq   $0x0,-0x690(%rbp)
   13b7f:	00 00 00 00 
   13b83:	48 8d 05 56 49 01 00 	lea    0x14956(%rip),%rax        # 284e0 <g_882>
   13b8a:	48 89 85 78 f9 ff ff 	mov    %rax,-0x688(%rbp)
   13b91:	48 8d 05 48 49 01 00 	lea    0x14948(%rip),%rax        # 284e0 <g_882>
   13b98:	48 89 85 80 f9 ff ff 	mov    %rax,-0x680(%rbp)
   13b9f:	48 8d 05 3a 49 01 00 	lea    0x1493a(%rip),%rax        # 284e0 <g_882>
   13ba6:	48 89 85 88 f9 ff ff 	mov    %rax,-0x678(%rbp)
   13bad:	48 8d 85 a0 f6 ff ff 	lea    -0x960(%rbp),%rax
   13bb4:	48 89 85 90 f9 ff ff 	mov    %rax,-0x670(%rbp)
   13bbb:	48 8d 85 a0 f6 ff ff 	lea    -0x960(%rbp),%rax
   13bc2:	48 89 85 98 f9 ff ff 	mov    %rax,-0x668(%rbp)
   13bc9:	48 c7 85 a0 f9 ff ff 	movq   $0x0,-0x660(%rbp)
   13bd0:	00 00 00 00 
   13bd4:	48 8d 85 a0 f6 ff ff 	lea    -0x960(%rbp),%rax
   13bdb:	48 89 85 a8 f9 ff ff 	mov    %rax,-0x658(%rbp)
   13be2:	48 c7 85 b0 f9 ff ff 	movq   $0x0,-0x650(%rbp)
   13be9:	00 00 00 00 
   13bed:	48 8d 85 a0 f6 ff ff 	lea    -0x960(%rbp),%rax
   13bf4:	48 89 85 b8 f9 ff ff 	mov    %rax,-0x648(%rbp)
   13bfb:	48 8d 05 de 48 01 00 	lea    0x148de(%rip),%rax        # 284e0 <g_882>
   13c02:	48 89 85 c0 f9 ff ff 	mov    %rax,-0x640(%rbp)
   13c09:	48 8d 85 a0 f6 ff ff 	lea    -0x960(%rbp),%rax
   13c10:	48 89 85 c8 f9 ff ff 	mov    %rax,-0x638(%rbp)
   13c17:	48 8d 85 a0 f6 ff ff 	lea    -0x960(%rbp),%rax
   13c1e:	48 89 85 d0 f9 ff ff 	mov    %rax,-0x630(%rbp)
   13c25:	48 c7 85 d8 f9 ff ff 	movq   $0x0,-0x628(%rbp)
   13c2c:	00 00 00 00 
   13c30:	48 8d 05 a9 48 01 00 	lea    0x148a9(%rip),%rax        # 284e0 <g_882>
   13c37:	48 89 85 e0 f9 ff ff 	mov    %rax,-0x620(%rbp)
   13c3e:	48 8d 05 9b 48 01 00 	lea    0x1489b(%rip),%rax        # 284e0 <g_882>
   13c45:	48 89 85 e8 f9 ff ff 	mov    %rax,-0x618(%rbp)
   13c4c:	48 c7 85 f0 f9 ff ff 	movq   $0x0,-0x610(%rbp)
   13c53:	00 00 00 00 
   13c57:	48 c7 85 f8 f9 ff ff 	movq   $0x0,-0x608(%rbp)
   13c5e:	00 00 00 00 
   13c62:	48 8d 85 a0 f6 ff ff 	lea    -0x960(%rbp),%rax
   13c69:	48 89 85 00 fa ff ff 	mov    %rax,-0x600(%rbp)
   13c70:	48 c7 85 08 fa ff ff 	movq   $0x0,-0x5f8(%rbp)
   13c77:	00 00 00 00 
   13c7b:	48 8d 05 5e 48 01 00 	lea    0x1485e(%rip),%rax        # 284e0 <g_882>
   13c82:	48 89 85 10 fa ff ff 	mov    %rax,-0x5f0(%rbp)
   13c89:	48 8d 05 50 48 01 00 	lea    0x14850(%rip),%rax        # 284e0 <g_882>
   13c90:	48 89 85 18 fa ff ff 	mov    %rax,-0x5e8(%rbp)
   13c97:	48 c7 85 20 fa ff ff 	movq   $0x0,-0x5e0(%rbp)
   13c9e:	00 00 00 00 
   13ca2:	48 8d 85 a0 f6 ff ff 	lea    -0x960(%rbp),%rax
   13ca9:	48 89 85 28 fa ff ff 	mov    %rax,-0x5d8(%rbp)
   13cb0:	48 8d 85 a0 f6 ff ff 	lea    -0x960(%rbp),%rax
   13cb7:	48 89 85 30 fa ff ff 	mov    %rax,-0x5d0(%rbp)
   13cbe:	48 8d 05 1b 48 01 00 	lea    0x1481b(%rip),%rax        # 284e0 <g_882>
   13cc5:	48 89 85 38 fa ff ff 	mov    %rax,-0x5c8(%rbp)
   13ccc:	48 c7 85 40 fa ff ff 	movq   $0x0,-0x5c0(%rbp)
   13cd3:	00 00 00 00 
   13cd7:	48 8d 05 02 48 01 00 	lea    0x14802(%rip),%rax        # 284e0 <g_882>
   13cde:	48 89 85 48 fa ff ff 	mov    %rax,-0x5b8(%rbp)
   13ce5:	48 8d 05 f4 47 01 00 	lea    0x147f4(%rip),%rax        # 284e0 <g_882>
   13cec:	48 89 85 50 fa ff ff 	mov    %rax,-0x5b0(%rbp)
   13cf3:	48 8d 05 e6 47 01 00 	lea    0x147e6(%rip),%rax        # 284e0 <g_882>
   13cfa:	48 89 85 58 fa ff ff 	mov    %rax,-0x5a8(%rbp)
   13d01:	48 8d 05 d8 47 01 00 	lea    0x147d8(%rip),%rax        # 284e0 <g_882>
   13d08:	48 89 85 60 fa ff ff 	mov    %rax,-0x5a0(%rbp)
   13d0f:	48 c7 85 68 fa ff ff 	movq   $0x0,-0x598(%rbp)
   13d16:	00 00 00 00 
   13d1a:	48 8d 85 a0 f6 ff ff 	lea    -0x960(%rbp),%rax
   13d21:	48 89 85 70 fa ff ff 	mov    %rax,-0x590(%rbp)
   13d28:	48 8d 85 a0 f6 ff ff 	lea    -0x960(%rbp),%rax
   13d2f:	48 89 85 78 fa ff ff 	mov    %rax,-0x588(%rbp)
   13d36:	48 8d 05 a3 47 01 00 	lea    0x147a3(%rip),%rax        # 284e0 <g_882>
   13d3d:	48 89 85 80 fa ff ff 	mov    %rax,-0x580(%rbp)
   13d44:	48 8d 05 95 47 01 00 	lea    0x14795(%rip),%rax        # 284e0 <g_882>
   13d4b:	48 89 85 88 fa ff ff 	mov    %rax,-0x578(%rbp)
   13d52:	48 8d 85 a0 f6 ff ff 	lea    -0x960(%rbp),%rax
   13d59:	48 89 85 90 fa ff ff 	mov    %rax,-0x570(%rbp)
   13d60:	48 c7 85 98 fa ff ff 	movq   $0x0,-0x568(%rbp)
   13d67:	00 00 00 00 
   13d6b:	48 8d 05 6e 47 01 00 	lea    0x1476e(%rip),%rax        # 284e0 <g_882>
   13d72:	48 89 85 a0 fa ff ff 	mov    %rax,-0x560(%rbp)
   13d79:	48 8d 85 a0 f6 ff ff 	lea    -0x960(%rbp),%rax
   13d80:	48 89 85 a8 fa ff ff 	mov    %rax,-0x558(%rbp)
   13d87:	48 8d 85 a0 f6 ff ff 	lea    -0x960(%rbp),%rax
   13d8e:	48 89 85 b0 fa ff ff 	mov    %rax,-0x550(%rbp)
   13d95:	48 8d 85 a0 f6 ff ff 	lea    -0x960(%rbp),%rax
   13d9c:	48 89 85 b8 fa ff ff 	mov    %rax,-0x548(%rbp)
   13da3:	48 8d 05 36 47 01 00 	lea    0x14736(%rip),%rax        # 284e0 <g_882>
   13daa:	48 89 85 c0 fa ff ff 	mov    %rax,-0x540(%rbp)
   13db1:	48 8d 85 a0 f6 ff ff 	lea    -0x960(%rbp),%rax
   13db8:	48 89 85 c8 fa ff ff 	mov    %rax,-0x538(%rbp)
   13dbf:	48 8d 85 a0 f6 ff ff 	lea    -0x960(%rbp),%rax
   13dc6:	48 89 85 d0 fa ff ff 	mov    %rax,-0x530(%rbp)
   13dcd:	48 8d 85 a0 f6 ff ff 	lea    -0x960(%rbp),%rax
   13dd4:	48 89 85 d8 fa ff ff 	mov    %rax,-0x528(%rbp)
   13ddb:	48 8d 85 a0 f6 ff ff 	lea    -0x960(%rbp),%rax
   13de2:	48 89 85 e0 fa ff ff 	mov    %rax,-0x520(%rbp)
   13de9:	48 8d 05 f0 46 01 00 	lea    0x146f0(%rip),%rax        # 284e0 <g_882>
   13df0:	48 89 85 e8 fa ff ff 	mov    %rax,-0x518(%rbp)
   13df7:	48 8d 05 e2 46 01 00 	lea    0x146e2(%rip),%rax        # 284e0 <g_882>
   13dfe:	48 89 85 f0 fa ff ff 	mov    %rax,-0x510(%rbp)
   13e05:	48 8d 05 d4 46 01 00 	lea    0x146d4(%rip),%rax        # 284e0 <g_882>
   13e0c:	48 89 85 f8 fa ff ff 	mov    %rax,-0x508(%rbp)
   13e13:	48 c7 85 00 fb ff ff 	movq   $0x0,-0x500(%rbp)
   13e1a:	00 00 00 00 
   13e1e:	48 c7 85 08 fb ff ff 	movq   $0x0,-0x4f8(%rbp)
   13e25:	00 00 00 00 
   13e29:	48 c7 85 10 fb ff ff 	movq   $0x0,-0x4f0(%rbp)
   13e30:	00 00 00 00 
   13e34:	48 8d 05 a5 46 01 00 	lea    0x146a5(%rip),%rax        # 284e0 <g_882>
   13e3b:	48 89 85 18 fb ff ff 	mov    %rax,-0x4e8(%rbp)
   13e42:	48 8d 85 a0 f6 ff ff 	lea    -0x960(%rbp),%rax
   13e49:	48 89 85 20 fb ff ff 	mov    %rax,-0x4e0(%rbp)
   13e50:	48 c7 85 28 fb ff ff 	movq   $0x0,-0x4d8(%rbp)
   13e57:	00 00 00 00 
   13e5b:	48 8d 05 7e 46 01 00 	lea    0x1467e(%rip),%rax        # 284e0 <g_882>
   13e62:	48 89 85 30 fb ff ff 	mov    %rax,-0x4d0(%rbp)
   13e69:	48 8d 85 a0 f6 ff ff 	lea    -0x960(%rbp),%rax
   13e70:	48 89 85 38 fb ff ff 	mov    %rax,-0x4c8(%rbp)
   13e77:	48 8d 05 62 46 01 00 	lea    0x14662(%rip),%rax        # 284e0 <g_882>
   13e7e:	48 89 85 40 fb ff ff 	mov    %rax,-0x4c0(%rbp)
   13e85:	48 8d 85 a0 f6 ff ff 	lea    -0x960(%rbp),%rax
   13e8c:	48 89 85 48 fb ff ff 	mov    %rax,-0x4b8(%rbp)
   13e93:	48 8d 85 a0 f6 ff ff 	lea    -0x960(%rbp),%rax
   13e9a:	48 89 85 50 fb ff ff 	mov    %rax,-0x4b0(%rbp)
   13ea1:	48 8d 05 38 46 01 00 	lea    0x14638(%rip),%rax        # 284e0 <g_882>
   13ea8:	48 89 85 58 fb ff ff 	mov    %rax,-0x4a8(%rbp)
   13eaf:	48 8d 05 2a 46 01 00 	lea    0x1462a(%rip),%rax        # 284e0 <g_882>
   13eb6:	48 89 85 60 fb ff ff 	mov    %rax,-0x4a0(%rbp)
   13ebd:	48 8d 05 1c 46 01 00 	lea    0x1461c(%rip),%rax        # 284e0 <g_882>
   13ec4:	48 89 85 68 fb ff ff 	mov    %rax,-0x498(%rbp)
   13ecb:	48 8d 85 a0 f6 ff ff 	lea    -0x960(%rbp),%rax
   13ed2:	48 89 85 70 fb ff ff 	mov    %rax,-0x490(%rbp)
   13ed9:	48 8d 05 00 46 01 00 	lea    0x14600(%rip),%rax        # 284e0 <g_882>
   13ee0:	48 89 85 78 fb ff ff 	mov    %rax,-0x488(%rbp)
   13ee7:	48 8d 85 a0 f6 ff ff 	lea    -0x960(%rbp),%rax
   13eee:	48 89 85 80 fb ff ff 	mov    %rax,-0x480(%rbp)
   13ef5:	48 8d 85 a0 f6 ff ff 	lea    -0x960(%rbp),%rax
   13efc:	48 89 85 88 fb ff ff 	mov    %rax,-0x478(%rbp)
   13f03:	48 8d 05 d6 45 01 00 	lea    0x145d6(%rip),%rax        # 284e0 <g_882>
   13f0a:	48 89 85 90 fb ff ff 	mov    %rax,-0x470(%rbp)
   13f11:	48 8d 05 c8 45 01 00 	lea    0x145c8(%rip),%rax        # 284e0 <g_882>
   13f18:	48 89 85 98 fb ff ff 	mov    %rax,-0x468(%rbp)
   13f1f:	48 8d 05 ba 45 01 00 	lea    0x145ba(%rip),%rax        # 284e0 <g_882>
   13f26:	48 89 85 a0 fb ff ff 	mov    %rax,-0x460(%rbp)
   13f2d:	48 8d 85 a0 f6 ff ff 	lea    -0x960(%rbp),%rax
   13f34:	48 89 85 a8 fb ff ff 	mov    %rax,-0x458(%rbp)
   13f3b:	48 8d 85 a0 f6 ff ff 	lea    -0x960(%rbp),%rax
   13f42:	48 89 85 b0 fb ff ff 	mov    %rax,-0x450(%rbp)
   13f49:	48 8d 05 90 45 01 00 	lea    0x14590(%rip),%rax        # 284e0 <g_882>
   13f50:	48 89 85 b8 fb ff ff 	mov    %rax,-0x448(%rbp)
   13f57:	48 8d 85 a0 f6 ff ff 	lea    -0x960(%rbp),%rax
   13f5e:	48 89 85 c0 fb ff ff 	mov    %rax,-0x440(%rbp)
   13f65:	48 8d 05 74 45 01 00 	lea    0x14574(%rip),%rax        # 284e0 <g_882>
   13f6c:	48 89 85 c8 fb ff ff 	mov    %rax,-0x438(%rbp)
   13f73:	48 c7 85 d0 fb ff ff 	movq   $0x0,-0x430(%rbp)
   13f7a:	00 00 00 00 
   13f7e:	48 c7 85 d8 fb ff ff 	movq   $0x0,-0x428(%rbp)
   13f85:	00 00 00 00 
   13f89:	48 c7 85 e0 fb ff ff 	movq   $0x0,-0x420(%rbp)
   13f90:	00 00 00 00 
   13f94:	48 8d 85 a0 f6 ff ff 	lea    -0x960(%rbp),%rax
   13f9b:	48 89 85 e8 fb ff ff 	mov    %rax,-0x418(%rbp)
   13fa2:	48 8d 05 37 45 01 00 	lea    0x14537(%rip),%rax        # 284e0 <g_882>
   13fa9:	48 89 85 f0 fb ff ff 	mov    %rax,-0x410(%rbp)
   13fb0:	48 c7 85 f8 fb ff ff 	movq   $0x0,-0x408(%rbp)
   13fb7:	00 00 00 00 
   13fbb:	48 c7 85 00 fc ff ff 	movq   $0x0,-0x400(%rbp)
   13fc2:	00 00 00 00 
   13fc6:	48 c7 85 08 fc ff ff 	movq   $0x0,-0x3f8(%rbp)
   13fcd:	00 00 00 00 
   13fd1:	48 c7 85 10 fc ff ff 	movq   $0x0,-0x3f0(%rbp)
   13fd8:	00 00 00 00 
   13fdc:	48 c7 85 18 fc ff ff 	movq   $0x0,-0x3e8(%rbp)
   13fe3:	00 00 00 00 
   13fe7:	48 c7 85 20 fc ff ff 	movq   $0x0,-0x3e0(%rbp)
   13fee:	00 00 00 00 
   13ff2:	48 8d 85 a0 f6 ff ff 	lea    -0x960(%rbp),%rax
   13ff9:	48 89 85 28 fc ff ff 	mov    %rax,-0x3d8(%rbp)
   14000:	48 8d 85 a0 f6 ff ff 	lea    -0x960(%rbp),%rax
   14007:	48 89 85 30 fc ff ff 	mov    %rax,-0x3d0(%rbp)
   1400e:	48 c7 85 38 fc ff ff 	movq   $0x0,-0x3c8(%rbp)
   14015:	00 00 00 00 
   14019:	48 8d 85 a0 f6 ff ff 	lea    -0x960(%rbp),%rax
   14020:	48 89 85 40 fc ff ff 	mov    %rax,-0x3c0(%rbp)
   14027:	48 c7 85 48 fc ff ff 	movq   $0x0,-0x3b8(%rbp)
   1402e:	00 00 00 00 
   14032:	48 8d 85 a0 f6 ff ff 	lea    -0x960(%rbp),%rax
   14039:	48 89 85 50 fc ff ff 	mov    %rax,-0x3b0(%rbp)
   14040:	48 8d 85 a0 f6 ff ff 	lea    -0x960(%rbp),%rax
   14047:	48 89 85 58 fc ff ff 	mov    %rax,-0x3a8(%rbp)
   1404e:	48 c7 85 60 fc ff ff 	movq   $0x0,-0x3a0(%rbp)
   14055:	00 00 00 00 
   14059:	48 c7 85 68 fc ff ff 	movq   $0x0,-0x398(%rbp)
   14060:	00 00 00 00 
   14064:	48 8d 85 a0 f6 ff ff 	lea    -0x960(%rbp),%rax
   1406b:	48 89 85 70 fc ff ff 	mov    %rax,-0x390(%rbp)
   14072:	48 c7 85 78 fc ff ff 	movq   $0x0,-0x388(%rbp)
   14079:	00 00 00 00 
   1407d:	48 8d 05 5c 44 01 00 	lea    0x1445c(%rip),%rax        # 284e0 <g_882>
   14084:	48 89 85 80 fc ff ff 	mov    %rax,-0x380(%rbp)
   1408b:	48 8d 05 4e 44 01 00 	lea    0x1444e(%rip),%rax        # 284e0 <g_882>
   14092:	48 89 85 88 fc ff ff 	mov    %rax,-0x378(%rbp)
   14099:	48 c7 85 90 fc ff ff 	movq   $0x0,-0x370(%rbp)
   140a0:	00 00 00 00 
   140a4:	48 c7 85 98 fc ff ff 	movq   $0x0,-0x368(%rbp)
   140ab:	00 00 00 00 
   140af:	48 c7 85 a0 fc ff ff 	movq   $0x0,-0x360(%rbp)
   140b6:	00 00 00 00 
   140ba:	48 8d 85 a0 f6 ff ff 	lea    -0x960(%rbp),%rax
   140c1:	48 89 85 a8 fc ff ff 	mov    %rax,-0x358(%rbp)
   140c8:	48 c7 85 b0 fc ff ff 	movq   $0x0,-0x350(%rbp)
   140cf:	00 00 00 00 
   140d3:	48 8d 85 a0 f6 ff ff 	lea    -0x960(%rbp),%rax
   140da:	48 89 85 b8 fc ff ff 	mov    %rax,-0x348(%rbp)
   140e1:	48 8d 05 f8 43 01 00 	lea    0x143f8(%rip),%rax        # 284e0 <g_882>
   140e8:	48 89 85 c0 fc ff ff 	mov    %rax,-0x340(%rbp)
   140ef:	48 8d 85 a0 f6 ff ff 	lea    -0x960(%rbp),%rax
   140f6:	48 89 85 c8 fc ff ff 	mov    %rax,-0x338(%rbp)
   140fd:	48 8d 85 a0 f6 ff ff 	lea    -0x960(%rbp),%rax
   14104:	48 89 85 d0 fc ff ff 	mov    %rax,-0x330(%rbp)
   1410b:	48 8d 05 ce 43 01 00 	lea    0x143ce(%rip),%rax        # 284e0 <g_882>
   14112:	48 89 85 d8 fc ff ff 	mov    %rax,-0x328(%rbp)
   14119:	48 8d 85 a0 f6 ff ff 	lea    -0x960(%rbp),%rax
   14120:	48 89 85 e0 fc ff ff 	mov    %rax,-0x320(%rbp)
   14127:	48 8d 85 a0 f6 ff ff 	lea    -0x960(%rbp),%rax
   1412e:	48 89 85 e8 fc ff ff 	mov    %rax,-0x318(%rbp)
   14135:	48 c7 85 f0 fc ff ff 	movq   $0x0,-0x310(%rbp)
   1413c:	00 00 00 00 
   14140:	48 8d 05 99 43 01 00 	lea    0x14399(%rip),%rax        # 284e0 <g_882>
   14147:	48 89 85 f8 fc ff ff 	mov    %rax,-0x308(%rbp)
   1414e:	48 8d 85 a0 f6 ff ff 	lea    -0x960(%rbp),%rax
   14155:	48 89 85 00 fd ff ff 	mov    %rax,-0x300(%rbp)
   1415c:	48 8d 05 7d 43 01 00 	lea    0x1437d(%rip),%rax        # 284e0 <g_882>
   14163:	48 89 85 08 fd ff ff 	mov    %rax,-0x2f8(%rbp)
   1416a:	48 8d 05 6f 43 01 00 	lea    0x1436f(%rip),%rax        # 284e0 <g_882>
   14171:	48 89 85 10 fd ff ff 	mov    %rax,-0x2f0(%rbp)
   14178:	48 8d 05 61 43 01 00 	lea    0x14361(%rip),%rax        # 284e0 <g_882>
   1417f:	48 89 85 18 fd ff ff 	mov    %rax,-0x2e8(%rbp)
   14186:	48 c7 85 20 fd ff ff 	movq   $0x0,-0x2e0(%rbp)
   1418d:	00 00 00 00 
   14191:	48 8d 05 48 43 01 00 	lea    0x14348(%rip),%rax        # 284e0 <g_882>
   14198:	48 89 85 28 fd ff ff 	mov    %rax,-0x2d8(%rbp)
   1419f:	48 8d 05 3a 43 01 00 	lea    0x1433a(%rip),%rax        # 284e0 <g_882>
   141a6:	48 89 85 30 fd ff ff 	mov    %rax,-0x2d0(%rbp)
   141ad:	48 8d 85 a0 f6 ff ff 	lea    -0x960(%rbp),%rax
   141b4:	48 89 85 38 fd ff ff 	mov    %rax,-0x2c8(%rbp)
   141bb:	48 8d 85 a0 f6 ff ff 	lea    -0x960(%rbp),%rax
   141c2:	48 89 85 40 fd ff ff 	mov    %rax,-0x2c0(%rbp)
   141c9:	48 8d 05 10 43 01 00 	lea    0x14310(%rip),%rax        # 284e0 <g_882>
   141d0:	48 89 85 48 fd ff ff 	mov    %rax,-0x2b8(%rbp)
   141d7:	48 8d 05 02 43 01 00 	lea    0x14302(%rip),%rax        # 284e0 <g_882>
   141de:	48 89 85 50 fd ff ff 	mov    %rax,-0x2b0(%rbp)
   141e5:	48 8d 85 a0 f6 ff ff 	lea    -0x960(%rbp),%rax
   141ec:	48 89 85 58 fd ff ff 	mov    %rax,-0x2a8(%rbp)
   141f3:	48 8d 85 a0 f6 ff ff 	lea    -0x960(%rbp),%rax
   141fa:	48 89 85 60 fd ff ff 	mov    %rax,-0x2a0(%rbp)
   14201:	48 c7 85 68 fd ff ff 	movq   $0x0,-0x298(%rbp)
   14208:	00 00 00 00 
   1420c:	48 8d 05 cd 42 01 00 	lea    0x142cd(%rip),%rax        # 284e0 <g_882>
   14213:	48 89 85 70 fd ff ff 	mov    %rax,-0x290(%rbp)
   1421a:	48 8d 85 a0 f6 ff ff 	lea    -0x960(%rbp),%rax
   14221:	48 89 85 78 fd ff ff 	mov    %rax,-0x288(%rbp)
   14228:	48 8d 05 b1 42 01 00 	lea    0x142b1(%rip),%rax        # 284e0 <g_882>
   1422f:	48 89 85 80 fd ff ff 	mov    %rax,-0x280(%rbp)
   14236:	48 8d 85 a0 f6 ff ff 	lea    -0x960(%rbp),%rax
   1423d:	48 89 85 88 fd ff ff 	mov    %rax,-0x278(%rbp)
   14244:	48 c7 85 90 fd ff ff 	movq   $0x0,-0x270(%rbp)
   1424b:	00 00 00 00 
   1424f:	48 8d 85 a0 f6 ff ff 	lea    -0x960(%rbp),%rax
   14256:	48 89 85 98 fd ff ff 	mov    %rax,-0x268(%rbp)
   1425d:	48 8d 05 7c 42 01 00 	lea    0x1427c(%rip),%rax        # 284e0 <g_882>
   14264:	48 89 85 a0 fd ff ff 	mov    %rax,-0x260(%rbp)
   1426b:	48 8d 05 6e 42 01 00 	lea    0x1426e(%rip),%rax        # 284e0 <g_882>
   14272:	48 89 85 a8 fd ff ff 	mov    %rax,-0x258(%rbp)
   14279:	48 8d 05 60 42 01 00 	lea    0x14260(%rip),%rax        # 284e0 <g_882>
   14280:	48 89 85 b0 fd ff ff 	mov    %rax,-0x250(%rbp)
   14287:	48 8d 05 52 42 01 00 	lea    0x14252(%rip),%rax        # 284e0 <g_882>
   1428e:	48 89 85 b8 fd ff ff 	mov    %rax,-0x248(%rbp)
   14295:	48 8d 05 44 42 01 00 	lea    0x14244(%rip),%rax        # 284e0 <g_882>
   1429c:	48 89 85 c0 fd ff ff 	mov    %rax,-0x240(%rbp)
   142a3:	48 8d 85 a0 f6 ff ff 	lea    -0x960(%rbp),%rax
   142aa:	48 89 85 c8 fd ff ff 	mov    %rax,-0x238(%rbp)
   142b1:	48 8d 05 28 42 01 00 	lea    0x14228(%rip),%rax        # 284e0 <g_882>
   142b8:	48 89 85 d0 fd ff ff 	mov    %rax,-0x230(%rbp)
   142bf:	48 8d 05 1a 42 01 00 	lea    0x1421a(%rip),%rax        # 284e0 <g_882>
   142c6:	48 89 85 d8 fd ff ff 	mov    %rax,-0x228(%rbp)
   142cd:	48 8d 05 0c 42 01 00 	lea    0x1420c(%rip),%rax        # 284e0 <g_882>
   142d4:	48 89 85 e0 fd ff ff 	mov    %rax,-0x220(%rbp)
   142db:	48 8d 05 fe 41 01 00 	lea    0x141fe(%rip),%rax        # 284e0 <g_882>
   142e2:	48 89 85 e8 fd ff ff 	mov    %rax,-0x218(%rbp)
   142e9:	48 8d 85 a0 f6 ff ff 	lea    -0x960(%rbp),%rax
   142f0:	48 89 85 f0 fd ff ff 	mov    %rax,-0x210(%rbp)
   142f7:	48 8d 85 a0 f6 ff ff 	lea    -0x960(%rbp),%rax
   142fe:	48 89 85 f8 fd ff ff 	mov    %rax,-0x208(%rbp)
   14305:	48 c7 85 00 fe ff ff 	movq   $0x0,-0x200(%rbp)
   1430c:	00 00 00 00 
   14310:	48 8d 85 a0 f6 ff ff 	lea    -0x960(%rbp),%rax
   14317:	48 89 85 08 fe ff ff 	mov    %rax,-0x1f8(%rbp)
   1431e:	48 8d 05 bb 41 01 00 	lea    0x141bb(%rip),%rax        # 284e0 <g_882>
   14325:	48 89 85 10 fe ff ff 	mov    %rax,-0x1f0(%rbp)
   1432c:	48 8d 05 ad 41 01 00 	lea    0x141ad(%rip),%rax        # 284e0 <g_882>
   14333:	48 89 85 18 fe ff ff 	mov    %rax,-0x1e8(%rbp)
   1433a:	48 8d 85 a0 f6 ff ff 	lea    -0x960(%rbp),%rax
   14341:	48 89 85 20 fe ff ff 	mov    %rax,-0x1e0(%rbp)
   14348:	48 c7 85 28 fe ff ff 	movq   $0x0,-0x1d8(%rbp)
   1434f:	00 00 00 00 
   14353:	48 8d 85 a0 f6 ff ff 	lea    -0x960(%rbp),%rax
   1435a:	48 89 85 30 fe ff ff 	mov    %rax,-0x1d0(%rbp)
   14361:	48 8d 05 78 41 01 00 	lea    0x14178(%rip),%rax        # 284e0 <g_882>
   14368:	48 89 85 38 fe ff ff 	mov    %rax,-0x1c8(%rbp)
   1436f:	48 8d 05 6a 41 01 00 	lea    0x1416a(%rip),%rax        # 284e0 <g_882>
   14376:	48 89 85 40 fe ff ff 	mov    %rax,-0x1c0(%rbp)
   1437d:	48 8d 85 a0 f6 ff ff 	lea    -0x960(%rbp),%rax
   14384:	48 89 85 48 fe ff ff 	mov    %rax,-0x1b8(%rbp)
   1438b:	48 8d 85 a0 f6 ff ff 	lea    -0x960(%rbp),%rax
   14392:	48 89 85 50 fe ff ff 	mov    %rax,-0x1b0(%rbp)
   14399:	48 c7 85 58 fe ff ff 	movq   $0x0,-0x1a8(%rbp)
   143a0:	00 00 00 00 
   143a4:	48 8d 85 a0 f6 ff ff 	lea    -0x960(%rbp),%rax
   143ab:	48 89 85 60 fe ff ff 	mov    %rax,-0x1a0(%rbp)
   143b2:	48 8d 05 27 41 01 00 	lea    0x14127(%rip),%rax        # 284e0 <g_882>
   143b9:	48 89 85 68 fe ff ff 	mov    %rax,-0x198(%rbp)
   143c0:	48 8d 05 19 41 01 00 	lea    0x14119(%rip),%rax        # 284e0 <g_882>
   143c7:	48 89 85 70 fe ff ff 	mov    %rax,-0x190(%rbp)
   143ce:	48 c7 85 78 fe ff ff 	movq   $0x0,-0x188(%rbp)
   143d5:	00 00 00 00 
   143d9:	48 c7 85 80 fe ff ff 	movq   $0x0,-0x180(%rbp)
   143e0:	00 00 00 00 
   143e4:	48 8d 85 a0 f6 ff ff 	lea    -0x960(%rbp),%rax
   143eb:	48 89 85 88 fe ff ff 	mov    %rax,-0x178(%rbp)
   143f2:	48 8d 85 a0 f6 ff ff 	lea    -0x960(%rbp),%rax
   143f9:	48 89 85 90 fe ff ff 	mov    %rax,-0x170(%rbp)
   14400:	48 8d 85 a0 f6 ff ff 	lea    -0x960(%rbp),%rax
   14407:	48 89 85 98 fe ff ff 	mov    %rax,-0x168(%rbp)
   1440e:	48 8d 05 cb 40 01 00 	lea    0x140cb(%rip),%rax        # 284e0 <g_882>
   14415:	48 89 85 a0 fe ff ff 	mov    %rax,-0x160(%rbp)
   1441c:	48 8d 85 a0 f6 ff ff 	lea    -0x960(%rbp),%rax
   14423:	48 89 85 a8 fe ff ff 	mov    %rax,-0x158(%rbp)
   1442a:	48 c7 85 b0 fe ff ff 	movq   $0x0,-0x150(%rbp)
   14431:	00 00 00 00 
   14435:	48 8d 85 a0 f6 ff ff 	lea    -0x960(%rbp),%rax
   1443c:	48 89 85 b8 fe ff ff 	mov    %rax,-0x148(%rbp)
   14443:	48 8d 05 96 40 01 00 	lea    0x14096(%rip),%rax        # 284e0 <g_882>
   1444a:	48 89 85 c0 fe ff ff 	mov    %rax,-0x140(%rbp)
   14451:	48 8d 05 88 40 01 00 	lea    0x14088(%rip),%rax        # 284e0 <g_882>
   14458:	48 89 85 c8 fe ff ff 	mov    %rax,-0x138(%rbp)
   1445f:	48 8d 05 7a 40 01 00 	lea    0x1407a(%rip),%rax        # 284e0 <g_882>
   14466:	48 89 85 d0 fe ff ff 	mov    %rax,-0x130(%rbp)
   1446d:	48 c7 85 d8 fe ff ff 	movq   $0x0,-0x128(%rbp)
   14474:	00 00 00 00 
   14478:	48 c7 85 e0 fe ff ff 	movq   $0x0,-0x120(%rbp)
   1447f:	00 00 00 00 
   14483:	48 8d 05 56 40 01 00 	lea    0x14056(%rip),%rax        # 284e0 <g_882>
   1448a:	48 89 85 e8 fe ff ff 	mov    %rax,-0x118(%rbp)
   14491:	48 8d 05 48 40 01 00 	lea    0x14048(%rip),%rax        # 284e0 <g_882>
   14498:	48 89 85 f0 fe ff ff 	mov    %rax,-0x110(%rbp)
   1449f:	48 c7 85 f8 fe ff ff 	movq   $0x0,-0x108(%rbp)
   144a6:	00 00 00 00 
   144aa:	48 8d 85 a0 f6 ff ff 	lea    -0x960(%rbp),%rax
   144b1:	48 89 85 00 ff ff ff 	mov    %rax,-0x100(%rbp)
   144b8:	48 c7 85 08 ff ff ff 	movq   $0x0,-0xf8(%rbp)
   144bf:	00 00 00 00 
   144c3:	48 8d 05 16 40 01 00 	lea    0x14016(%rip),%rax        # 284e0 <g_882>
   144ca:	48 89 85 10 ff ff ff 	mov    %rax,-0xf0(%rbp)
   144d1:	48 8d 05 08 40 01 00 	lea    0x14008(%rip),%rax        # 284e0 <g_882>
   144d8:	48 89 85 18 ff ff ff 	mov    %rax,-0xe8(%rbp)
   144df:	48 8d 05 fa 3f 01 00 	lea    0x13ffa(%rip),%rax        # 284e0 <g_882>
   144e6:	48 89 85 20 ff ff ff 	mov    %rax,-0xe0(%rbp)
   144ed:	48 8d 05 ec 3f 01 00 	lea    0x13fec(%rip),%rax        # 284e0 <g_882>
   144f4:	48 89 85 28 ff ff ff 	mov    %rax,-0xd8(%rbp)
   144fb:	48 8d 85 a0 f6 ff ff 	lea    -0x960(%rbp),%rax
   14502:	48 89 85 30 ff ff ff 	mov    %rax,-0xd0(%rbp)
   14509:	48 8d 85 a0 f6 ff ff 	lea    -0x960(%rbp),%rax
   14510:	48 89 85 38 ff ff ff 	mov    %rax,-0xc8(%rbp)
   14517:	48 8d 05 c2 3f 01 00 	lea    0x13fc2(%rip),%rax        # 284e0 <g_882>
   1451e:	48 89 85 40 ff ff ff 	mov    %rax,-0xc0(%rbp)
   14525:	48 8d 05 b4 3f 01 00 	lea    0x13fb4(%rip),%rax        # 284e0 <g_882>
   1452c:	48 89 85 48 ff ff ff 	mov    %rax,-0xb8(%rbp)
   14533:	48 8d 05 a6 3f 01 00 	lea    0x13fa6(%rip),%rax        # 284e0 <g_882>
   1453a:	48 89 85 50 ff ff ff 	mov    %rax,-0xb0(%rbp)
   14541:	48 8d 85 a0 f6 ff ff 	lea    -0x960(%rbp),%rax
   14548:	48 89 85 58 ff ff ff 	mov    %rax,-0xa8(%rbp)
   1454f:	48 8d 05 8a 3f 01 00 	lea    0x13f8a(%rip),%rax        # 284e0 <g_882>
   14556:	48 89 85 60 ff ff ff 	mov    %rax,-0xa0(%rbp)
   1455d:	48 8d 05 7c 3f 01 00 	lea    0x13f7c(%rip),%rax        # 284e0 <g_882>
   14564:	48 89 85 68 ff ff ff 	mov    %rax,-0x98(%rbp)
   1456b:	48 8d 85 a0 f6 ff ff 	lea    -0x960(%rbp),%rax
   14572:	48 89 85 70 ff ff ff 	mov    %rax,-0x90(%rbp)
   14579:	48 8d 05 60 3f 01 00 	lea    0x13f60(%rip),%rax        # 284e0 <g_882>
   14580:	48 89 85 78 ff ff ff 	mov    %rax,-0x88(%rbp)
   14587:	48 8d 85 a0 f6 ff ff 	lea    -0x960(%rbp),%rax
   1458e:	48 89 45 80          	mov    %rax,-0x80(%rbp)
   14592:	48 8d 05 47 3f 01 00 	lea    0x13f47(%rip),%rax        # 284e0 <g_882>
   14599:	48 89 45 88          	mov    %rax,-0x78(%rbp)
   1459d:	48 8d 85 a0 f6 ff ff 	lea    -0x960(%rbp),%rax
   145a4:	48 89 45 90          	mov    %rax,-0x70(%rbp)
   145a8:	48 8d 05 31 3f 01 00 	lea    0x13f31(%rip),%rax        # 284e0 <g_882>
   145af:	48 89 45 98          	mov    %rax,-0x68(%rbp)
   145b3:	48 8d 85 a0 f6 ff ff 	lea    -0x960(%rbp),%rax
   145ba:	48 89 45 a0          	mov    %rax,-0x60(%rbp)
   145be:	48 8d 05 1b 3f 01 00 	lea    0x13f1b(%rip),%rax        # 284e0 <g_882>
   145c5:	48 89 45 a8          	mov    %rax,-0x58(%rbp)
   145c9:	48 8d 85 a0 f6 ff ff 	lea    -0x960(%rbp),%rax
   145d0:	48 89 45 b0          	mov    %rax,-0x50(%rbp)
   145d4:	48 8d 05 05 3f 01 00 	lea    0x13f05(%rip),%rax        # 284e0 <g_882>
   145db:	48 89 45 b8          	mov    %rax,-0x48(%rbp)
   145df:	48 8d 85 a0 f6 ff ff 	lea    -0x960(%rbp),%rax
   145e6:	48 89 45 c0          	mov    %rax,-0x40(%rbp)
   145ea:	c7 85 8c f6 ff ff 01 	movl   $0x1,-0x974(%rbp)
   145f1:	00 00 00 
   145f4:	c7 85 70 f7 ff ff fc 	movl   $0xfffffffc,-0x890(%rbp)
   145fb:	ff ff ff 
   145fe:	c7 85 74 f7 ff ff 29 	movl   $0xd5dd7229,-0x88c(%rbp)
   14605:	72 dd d5 
   14608:	c7 85 78 f7 ff ff 09 	movl   $0x9,-0x888(%rbp)
   1460f:	00 00 00 
   14612:	c7 85 7c f7 ff ff 09 	movl   $0x9,-0x884(%rbp)
   14619:	00 00 00 
   1461c:	c7 85 80 f7 ff ff 29 	movl   $0xd5dd7229,-0x880(%rbp)
   14623:	72 dd d5 
   14626:	c7 85 84 f7 ff ff fc 	movl   $0xfffffffc,-0x87c(%rbp)
   1462d:	ff ff ff 
   14630:	c7 85 88 f7 ff ff fb 	movl   $0xfffffffb,-0x878(%rbp)
   14637:	ff ff ff 
   1463a:	c7 85 8c f7 ff ff 5b 	movl   $0x78f4915b,-0x874(%rbp)
   14641:	91 f4 78 
   14644:	c7 85 90 f7 ff ff 00 	movl   $0x0,-0x870(%rbp)
   1464b:	00 00 00 
   1464e:	c7 85 94 f7 ff ff 58 	movl   $0x24a85458,-0x86c(%rbp)
   14655:	54 a8 24 
   14658:	c7 85 98 f7 ff ff 00 	movl   $0x0,-0x868(%rbp)
   1465f:	00 00 00 
   14662:	c7 85 9c f7 ff ff fc 	movl   $0xfffffffc,-0x864(%rbp)
   14669:	ff ff ff 
   1466c:	c7 85 a0 f7 ff ff 00 	movl   $0x0,-0x860(%rbp)
   14673:	00 00 00 
   14676:	c7 85 a4 f7 ff ff 09 	movl   $0x9,-0x85c(%rbp)
   1467d:	00 00 00 
   14680:	c7 85 a8 f7 ff ff 09 	movl   $0x9,-0x858(%rbp)
   14687:	00 00 00 
   1468a:	c7 85 ac f7 ff ff fb 	movl   $0xfffffffb,-0x854(%rbp)
   14691:	ff ff ff 
   14694:	c7 85 b0 f7 ff ff 08 	movl   $0x8,-0x850(%rbp)
   1469b:	00 00 00 
   1469e:	c7 85 b4 f7 ff ff 09 	movl   $0x9,-0x84c(%rbp)
   146a5:	00 00 00 
   146a8:	c7 85 b8 f7 ff ff 00 	movl   $0x0,-0x848(%rbp)
   146af:	00 00 00 
   146b2:	c7 85 bc f7 ff ff 00 	movl   $0x0,-0x844(%rbp)
   146b9:	00 00 00 
   146bc:	c7 85 c0 f7 ff ff fb 	movl   $0xfffffffb,-0x840(%rbp)
   146c3:	ff ff ff 
   146c6:	c7 85 c4 f7 ff ff 58 	movl   $0x24a85458,-0x83c(%rbp)
   146cd:	54 a8 24 
   146d0:	c7 85 c8 f7 ff ff 01 	movl   $0x1,-0x838(%rbp)
   146d7:	00 00 00 
   146da:	c7 85 cc f7 ff ff 58 	movl   $0x24a85458,-0x834(%rbp)
   146e1:	54 a8 24 
   146e4:	c7 85 d0 f7 ff ff fb 	movl   $0xfffffffb,-0x830(%rbp)
   146eb:	ff ff ff 
   146ee:	c7 85 d4 f7 ff ff 00 	movl   $0x0,-0x82c(%rbp)
   146f5:	00 00 00 
   146f8:	c7 85 d8 f7 ff ff fb 	movl   $0xfffffffb,-0x828(%rbp)
   146ff:	ff ff ff 
   14702:	c7 85 dc f7 ff ff 09 	movl   $0x9,-0x824(%rbp)
   14709:	00 00 00 
   1470c:	c7 85 e0 f7 ff ff 08 	movl   $0x8,-0x820(%rbp)
   14713:	00 00 00 
   14716:	c7 85 e4 f7 ff ff fb 	movl   $0xfffffffb,-0x81c(%rbp)
   1471d:	ff ff ff 
   14720:	c7 85 e8 f7 ff ff fc 	movl   $0xfffffffc,-0x818(%rbp)
   14727:	ff ff ff 
   1472a:	c7 85 ec f7 ff ff 09 	movl   $0x9,-0x814(%rbp)
   14731:	00 00 00 
   14734:	c7 85 f0 f7 ff ff fb 	movl   $0xfffffffb,-0x810(%rbp)
   1473b:	ff ff ff 
   1473e:	c7 85 f4 f7 ff ff fc 	movl   $0xfffffffc,-0x80c(%rbp)
   14745:	ff ff ff 
   14748:	c7 85 f8 f7 ff ff 00 	movl   $0x0,-0x808(%rbp)
   1474f:	00 00 00 
   14752:	c7 85 fc f7 ff ff 58 	movl   $0x24a85458,-0x804(%rbp)
   14759:	54 a8 24 
   1475c:	c7 85 00 f8 ff ff 58 	movl   $0x24a85458,-0x800(%rbp)
   14763:	54 a8 24 
   14766:	c7 85 04 f8 ff ff 5b 	movl   $0x78f4915b,-0x7fc(%rbp)
   1476d:	91 f4 78 
   14770:	c7 85 08 f8 ff ff fb 	movl   $0xfffffffb,-0x7f8(%rbp)
   14777:	ff ff ff 
   1477a:	c7 85 0c f8 ff ff fc 	movl   $0xfffffffc,-0x7f4(%rbp)
   14781:	ff ff ff 
   14784:	c7 85 10 f8 ff ff 29 	movl   $0xd5dd7229,-0x7f0(%rbp)
   1478b:	72 dd d5 
   1478e:	c7 85 14 f8 ff ff 09 	movl   $0x9,-0x7ec(%rbp)
   14795:	00 00 00 
   14798:	c7 85 18 f8 ff ff fc 	movl   $0xfffffffc,-0x7e8(%rbp)
   1479f:	ff ff ff 
   147a2:	c7 85 1c f8 ff ff 29 	movl   $0xd5dd7229,-0x7e4(%rbp)
   147a9:	72 dd d5 
   147ac:	c7 85 20 f8 ff ff 09 	movl   $0x9,-0x7e0(%rbp)
   147b3:	00 00 00 
   147b6:	c7 85 24 f8 ff ff 09 	movl   $0x9,-0x7dc(%rbp)
   147bd:	00 00 00 
   147c0:	c7 85 28 f8 ff ff 29 	movl   $0xd5dd7229,-0x7d8(%rbp)
   147c7:	72 dd d5 
   147ca:	c7 85 2c f8 ff ff fc 	movl   $0xfffffffc,-0x7d4(%rbp)
   147d1:	ff ff ff 
   147d4:	48 8b 05 05 3c 01 00 	mov    0x13c05(%rip),%rax        # 283e0 <g_421>
   147db:	0f b7 00             	movzwl (%rax),%eax
   147de:	0f b7 d8             	movzwl %ax,%ebx
   147e1:	44 0f bf a5 68 f6 ff 	movswl -0x998(%rbp),%r12d
   147e8:	ff 
   147e9:	48 8b 05 f0 3b 01 00 	mov    0x13bf0(%rip),%rax        # 283e0 <g_421>
   147f0:	0f b7 00             	movzwl (%rax),%eax
   147f3:	44 0f bf e8          	movswl %ax,%r13d
   147f7:	48 8b 05 0a f9 00 00 	mov    0xf90a(%rip),%rax        # 24108 <g_261>
   147fe:	44 0f b6 f0          	movzbl %al,%r14d
   14802:	48 8b 05 bf 3d 01 00 	mov    0x13dbf(%rip),%rax        # 285c8 <g_1097>
   14809:	0f b6 10             	movzbl (%rax),%edx
   1480c:	8b 85 7c f6 ff ff    	mov    -0x984(%rbp),%eax
   14812:	89 c1                	mov    %eax,%ecx
   14814:	48 8b 05 ad 3d 01 00 	mov    0x13dad(%rip),%rax        # 285c8 <g_1097>
   1481b:	21 ca                	and    %ecx,%edx
   1481d:	88 10                	mov    %dl,(%rax)
   1481f:	0f b6 00             	movzbl (%rax),%eax
   14822:	84 c0                	test   %al,%al
   14824:	74 7d                	je     148a3 <func_54+0x15f3>
   14826:	44 8b bd 7c f6 ff ff 	mov    -0x984(%rbp),%r15d
   1482d:	0f bf 85 68 f6 ff ff 	movswl -0x998(%rbp),%eax
   14834:	89 85 64 f6 ff ff    	mov    %eax,-0x99c(%rbp)
   1483a:	0f b7 85 68 f6 ff ff 	movzwl -0x998(%rbp),%eax
   14841:	0f b7 d0             	movzwl %ax,%edx
   14844:	8b 85 7c f6 ff ff    	mov    -0x984(%rbp),%eax
   1484a:	0f b7 c0             	movzwl %ax,%eax
   1484d:	89 d6                	mov    %edx,%esi
   1484f:	89 c7                	mov    %eax,%edi
   14851:	e8 a9 64 ff ff       	callq  acff <safe_add_func_uint16_t_u_u>
   14856:	98                   	cwtl   
   14857:	8b b5 64 f6 ff ff    	mov    -0x99c(%rbp),%esi
   1485d:	89 c7                	mov    %eax,%edi
   1485f:	e8 6f 5b ff ff       	callq  a3d3 <safe_sub_func_int16_t_s_s>
   14864:	48 0f bf c0          	movswq %ax,%rax
   14868:	48 ba 1a 79 51 eb 28 	movabs $0x3ce51028eb51791a,%rdx
   1486f:	10 e5 3c 
   14872:	48 31 d0             	xor    %rdx,%rax
   14875:	48 3d 88 00 00 00    	cmp    $0x88,%rax
   1487b:	0f 9e c0             	setle  %al
   1487e:	0f b6 c0             	movzbl %al,%eax
   14881:	44 89 fe             	mov    %r15d,%esi
   14884:	89 c7                	mov    %eax,%edi
   14886:	e8 c1 63 ff ff       	callq  ac4c <safe_lshift_func_uint8_t_u_u>
   1488b:	48 8b 05 d6 fe 00 00 	mov    0xfed6(%rip),%rax        # 24768 <g_1345+0x8>
   14892:	48 83 bd 08 f7 ff ff 	cmpq   $0x1,-0x8f8(%rbp)
   14899:	01 
   1489a:	77 07                	ja     148a3 <func_54+0x15f3>
   1489c:	ba 01 00 00 00       	mov    $0x1,%edx
   148a1:	eb 05                	jmp    148a8 <func_54+0x15f8>
   148a3:	ba 00 00 00 00       	mov    $0x0,%edx
   148a8:	0f bf 85 68 f6 ff ff 	movswl -0x998(%rbp),%eax
   148af:	39 c2                	cmp    %eax,%edx
   148b1:	0f 9c c0             	setl   %al
   148b4:	0f b6 c0             	movzbl %al,%eax
   148b7:	44 89 f6             	mov    %r14d,%esi
   148ba:	89 c7                	mov    %eax,%edi
   148bc:	e8 99 62 ff ff       	callq  ab5a <safe_add_func_uint8_t_u_u>
   148c1:	0f b6 c0             	movzbl %al,%eax
   148c4:	44 89 ee             	mov    %r13d,%esi
   148c7:	89 c7                	mov    %eax,%edi
   148c9:	e8 e5 5a ff ff       	callq  a3b3 <safe_add_func_int16_t_s_s>
   148ce:	0f bf d0             	movswl %ax,%edx
   148d1:	48 8b 05 08 3b 01 00 	mov    0x13b08(%rip),%rax        # 283e0 <g_421>
   148d8:	0f b7 00             	movzwl (%rax),%eax
   148db:	0f b7 c0             	movzwl %ax,%eax
   148de:	39 c2                	cmp    %eax,%edx
   148e0:	0f 9d c0             	setge  %al
   148e3:	0f b6 c0             	movzbl %al,%eax
   148e6:	44 89 e6             	mov    %r12d,%esi
   148e9:	89 c7                	mov    %eax,%edi
   148eb:	e8 15 5d ff ff       	callq  a605 <safe_sub_func_int32_t_s_s>
   148f0:	83 f8 01             	cmp    $0x1,%eax
   148f3:	48 8b 05 56 fa 00 00 	mov    0xfa56(%rip),%rax        # 24350 <g_379+0x10>
   148fa:	0f b6 d0             	movzbl %al,%edx
   148fd:	48 8b 85 68 f7 ff ff 	mov    -0x898(%rbp),%rax
   14904:	48 89 85 f8 f6 ff ff 	mov    %rax,-0x908(%rbp)
   1490b:	48 8b 85 f8 f6 ff ff 	mov    -0x908(%rbp),%rax
   14912:	48 3b 85 c8 f6 ff ff 	cmp    -0x938(%rbp),%rax
   14919:	83 bd 88 f6 ff ff 00 	cmpl   $0x0,-0x978(%rbp)
   14920:	74 10                	je     14932 <func_54+0x1682>
   14922:	83 bd 7c f6 ff ff 00 	cmpl   $0x0,-0x984(%rbp)
   14929:	74 07                	je     14932 <func_54+0x1682>
   1492b:	b8 01 00 00 00       	mov    $0x1,%eax
   14930:	eb 05                	jmp    14937 <func_54+0x1687>
   14932:	b8 00 00 00 00       	mov    $0x0,%eax
   14937:	0f b6 c0             	movzbl %al,%eax
   1493a:	89 d6                	mov    %edx,%esi
   1493c:	89 c7                	mov    %eax,%edi
   1493e:	e8 35 62 ff ff       	callq  ab78 <safe_sub_func_uint8_t_u_u>
   14943:	48 8b 95 10 f7 ff ff 	mov    -0x8f0(%rbp),%rdx
   1494a:	0f b7 12             	movzwl (%rdx),%edx
   1494d:	0f b6 c0             	movzbl %al,%eax
   14950:	09 c2                	or     %eax,%edx
   14952:	48 8b 85 10 f7 ff ff 	mov    -0x8f0(%rbp),%rax
   14959:	66 89 10             	mov    %dx,(%rax)
   1495c:	48 8b 85 10 f7 ff ff 	mov    -0x8f0(%rbp),%rax
   14963:	0f b7 00             	movzwl (%rax),%eax
   14966:	0f b7 c0             	movzwl %ax,%eax
   14969:	89 de                	mov    %ebx,%esi
   1496b:	89 c7                	mov    %eax,%edi
   1496d:	e8 1c 64 ff ff       	callq  ad8e <safe_div_func_uint16_t_u_u>
   14972:	c7 85 88 f6 ff ff 01 	movl   $0x1,-0x978(%rbp)
   14979:	00 00 00 
   1497c:	0f b6 05 ad f9 00 00 	movzbl 0xf9ad(%rip),%eax        # 24330 <g_375>
   14983:	0f b6 c0             	movzbl %al,%eax
   14986:	be 08 00 00 00       	mov    $0x8,%esi
   1498b:	89 c7                	mov    %eax,%edi
   1498d:	e8 21 5a ff ff       	callq  a3b3 <safe_add_func_int16_t_s_s>
   14992:	88 05 98 f9 00 00    	mov    %al,0xf998(%rip)        # 24330 <g_375>
   14998:	0f b6 05 91 f9 00 00 	movzbl 0xf991(%rip),%eax        # 24330 <g_375>
   1499f:	3c 2e                	cmp    $0x2e,%al
   149a1:	0f 86 46 ef ff ff    	jbe    138ed <func_54+0x63d>
   149a7:	0f b7 85 6c f6 ff ff 	movzwl -0x994(%rbp),%eax
   149ae:	48 8b 5d c8          	mov    -0x38(%rbp),%rbx
   149b2:	64 48 33 1c 25 28 00 	xor    %fs:0x28,%rbx
   149b9:	00 00 
   149bb:	74 05                	je     149c2 <func_54+0x1712>
   149bd:	e8 ae 56 ff ff       	callq  a070 <__stack_chk_fail@plt>
   149c2:	48 81 c4 78 09 00 00 	add    $0x978,%rsp
   149c9:	5b                   	pop    %rbx
   149ca:	41 5c                	pop    %r12
   149cc:	41 5d                	pop    %r13
   149ce:	41 5e                	pop    %r14
   149d0:	41 5f                	pop    %r15
   149d2:	5d                   	pop    %rbp
   149d3:	c3                   	retq   

00000000000149d4 <func_57>:
   149d4:	f3 0f 1e fa          	endbr64 
   149d8:	55                   	push   %rbp
   149d9:	48 89 e5             	mov    %rsp,%rbp
   149dc:	41 57                	push   %r15
   149de:	41 56                	push   %r14
   149e0:	41 55                	push   %r13
   149e2:	41 54                	push   %r12
   149e4:	53                   	push   %rbx
   149e5:	48 81 ec 00 10 00 00 	sub    $0x1000,%rsp
   149ec:	48 83 0c 24 00       	orq    $0x0,(%rsp)
   149f1:	48 81 ec 78 08 00 00 	sub    $0x878,%rsp
   149f8:	48 89 bd 78 e7 ff ff 	mov    %rdi,-0x1888(%rbp)
   149ff:	89 f0                	mov    %esi,%eax
   14a01:	48 89 95 68 e7 ff ff 	mov    %rdx,-0x1898(%rbp)
   14a08:	66 89 85 74 e7 ff ff 	mov    %ax,-0x188c(%rbp)
   14a0f:	64 48 8b 04 25 28 00 	mov    %fs:0x28,%rax
   14a16:	00 00 
   14a18:	48 89 45 c8          	mov    %rax,-0x38(%rbp)
   14a1c:	31 c0                	xor    %eax,%eax
   14a1e:	c7 85 fc e7 ff ff ff 	movl   $0xffffffff,-0x1804(%rbp)
   14a25:	ff ff ff 
   14a28:	48 8d 05 e9 fa 00 00 	lea    0xfae9(%rip),%rax        # 24518 <g_849>
   14a2f:	48 89 85 20 ed ff ff 	mov    %rax,-0x12e0(%rbp)
   14a36:	48 8d 05 db fa 00 00 	lea    0xfadb(%rip),%rax        # 24518 <g_849>
   14a3d:	48 89 85 28 ed ff ff 	mov    %rax,-0x12d8(%rbp)
   14a44:	48 8d 05 cd fa 00 00 	lea    0xfacd(%rip),%rax        # 24518 <g_849>
   14a4b:	48 89 85 30 ed ff ff 	mov    %rax,-0x12d0(%rbp)
   14a52:	48 8d 05 bf fa 00 00 	lea    0xfabf(%rip),%rax        # 24518 <g_849>
   14a59:	48 89 85 38 ed ff ff 	mov    %rax,-0x12c8(%rbp)
   14a60:	48 8d 05 b1 fa 00 00 	lea    0xfab1(%rip),%rax        # 24518 <g_849>
   14a67:	48 89 85 40 ed ff ff 	mov    %rax,-0x12c0(%rbp)
   14a6e:	48 8d 05 a3 fa 00 00 	lea    0xfaa3(%rip),%rax        # 24518 <g_849>
   14a75:	48 89 85 48 ed ff ff 	mov    %rax,-0x12b8(%rbp)
   14a7c:	48 8d 05 95 fa 00 00 	lea    0xfa95(%rip),%rax        # 24518 <g_849>
   14a83:	48 89 85 50 ed ff ff 	mov    %rax,-0x12b0(%rbp)
   14a8a:	48 8d 05 87 fa 00 00 	lea    0xfa87(%rip),%rax        # 24518 <g_849>
   14a91:	48 89 85 58 ed ff ff 	mov    %rax,-0x12a8(%rbp)
   14a98:	48 8d 05 79 fa 00 00 	lea    0xfa79(%rip),%rax        # 24518 <g_849>
   14a9f:	48 89 85 60 ed ff ff 	mov    %rax,-0x12a0(%rbp)
   14aa6:	48 8d 05 6b fa 00 00 	lea    0xfa6b(%rip),%rax        # 24518 <g_849>
   14aad:	48 89 85 68 ed ff ff 	mov    %rax,-0x1298(%rbp)
   14ab4:	48 8d 05 5d fa 00 00 	lea    0xfa5d(%rip),%rax        # 24518 <g_849>
   14abb:	48 89 85 70 ed ff ff 	mov    %rax,-0x1290(%rbp)
   14ac2:	48 8d 05 4f fa 00 00 	lea    0xfa4f(%rip),%rax        # 24518 <g_849>
   14ac9:	48 89 85 78 ed ff ff 	mov    %rax,-0x1288(%rbp)
   14ad0:	48 8d 05 41 fa 00 00 	lea    0xfa41(%rip),%rax        # 24518 <g_849>
   14ad7:	48 89 85 80 ed ff ff 	mov    %rax,-0x1280(%rbp)
   14ade:	48 8d 05 33 fa 00 00 	lea    0xfa33(%rip),%rax        # 24518 <g_849>
   14ae5:	48 89 85 88 ed ff ff 	mov    %rax,-0x1278(%rbp)
   14aec:	48 8d 05 25 fa 00 00 	lea    0xfa25(%rip),%rax        # 24518 <g_849>
   14af3:	48 89 85 90 ed ff ff 	mov    %rax,-0x1270(%rbp)
   14afa:	48 8d 05 17 fa 00 00 	lea    0xfa17(%rip),%rax        # 24518 <g_849>
   14b01:	48 89 85 98 ed ff ff 	mov    %rax,-0x1268(%rbp)
   14b08:	48 8d 85 20 ed ff ff 	lea    -0x12e0(%rbp),%rax
   14b0f:	48 83 c0 40          	add    $0x40,%rax
   14b13:	48 89 85 50 ee ff ff 	mov    %rax,-0x11b0(%rbp)
   14b1a:	48 c7 85 58 ee ff ff 	movq   $0x0,-0x11a8(%rbp)
   14b21:	00 00 00 00 
   14b25:	48 8d 85 20 ed ff ff 	lea    -0x12e0(%rbp),%rax
   14b2c:	48 83 c0 40          	add    $0x40,%rax
   14b30:	48 89 85 60 ee ff ff 	mov    %rax,-0x11a0(%rbp)
   14b37:	48 c7 85 68 ee ff ff 	movq   $0x0,-0x1198(%rbp)
   14b3e:	00 00 00 00 
   14b42:	48 8d 85 20 ed ff ff 	lea    -0x12e0(%rbp),%rax
   14b49:	48 83 c0 40          	add    $0x40,%rax
   14b4d:	48 89 85 70 ee ff ff 	mov    %rax,-0x1190(%rbp)
   14b54:	48 c7 85 78 ee ff ff 	movq   $0x0,-0x1188(%rbp)
   14b5b:	00 00 00 00 
   14b5f:	48 c7 85 80 ee ff ff 	movq   $0x0,-0x1180(%rbp)
   14b66:	00 00 00 00 
   14b6a:	48 8d 85 20 ed ff ff 	lea    -0x12e0(%rbp),%rax
   14b71:	48 83 c0 40          	add    $0x40,%rax
   14b75:	48 89 85 88 ee ff ff 	mov    %rax,-0x1178(%rbp)
   14b7c:	48 c7 85 90 ee ff ff 	movq   $0x0,-0x1170(%rbp)
   14b83:	00 00 00 00 
   14b87:	48 c7 85 98 ee ff ff 	movq   $0x0,-0x1168(%rbp)
   14b8e:	00 00 00 00 
   14b92:	48 c7 85 a0 ee ff ff 	movq   $0x0,-0x1160(%rbp)
   14b99:	00 00 00 00 
   14b9d:	48 c7 85 a8 ee ff ff 	movq   $0x0,-0x1158(%rbp)
   14ba4:	00 00 00 00 
   14ba8:	48 c7 85 b0 ee ff ff 	movq   $0x0,-0x1150(%rbp)
   14baf:	00 00 00 00 
   14bb3:	48 c7 85 b8 ee ff ff 	movq   $0x0,-0x1148(%rbp)
   14bba:	00 00 00 00 
   14bbe:	48 8d 85 20 ed ff ff 	lea    -0x12e0(%rbp),%rax
   14bc5:	48 83 c0 40          	add    $0x40,%rax
   14bc9:	48 89 85 c0 ee ff ff 	mov    %rax,-0x1140(%rbp)
   14bd0:	48 8d 85 20 ed ff ff 	lea    -0x12e0(%rbp),%rax
   14bd7:	48 83 c0 40          	add    $0x40,%rax
   14bdb:	48 89 85 c8 ee ff ff 	mov    %rax,-0x1138(%rbp)
   14be2:	48 c7 85 d0 ee ff ff 	movq   $0x0,-0x1130(%rbp)
   14be9:	00 00 00 00 
   14bed:	48 8d 85 20 ed ff ff 	lea    -0x12e0(%rbp),%rax
   14bf4:	48 83 c0 40          	add    $0x40,%rax
   14bf8:	48 89 85 d8 ee ff ff 	mov    %rax,-0x1128(%rbp)
   14bff:	48 c7 85 e0 ee ff ff 	movq   $0x0,-0x1120(%rbp)
   14c06:	00 00 00 00 
   14c0a:	48 c7 85 e8 ee ff ff 	movq   $0x0,-0x1118(%rbp)
   14c11:	00 00 00 00 
   14c15:	48 c7 85 f0 ee ff ff 	movq   $0x0,-0x1110(%rbp)
   14c1c:	00 00 00 00 
   14c20:	48 8d 85 20 ed ff ff 	lea    -0x12e0(%rbp),%rax
   14c27:	48 83 c0 40          	add    $0x40,%rax
   14c2b:	48 89 85 f8 ee ff ff 	mov    %rax,-0x1108(%rbp)
   14c32:	48 c7 85 00 ef ff ff 	movq   $0x0,-0x1100(%rbp)
   14c39:	00 00 00 00 
   14c3d:	48 c7 85 08 ef ff ff 	movq   $0x0,-0x10f8(%rbp)
   14c44:	00 00 00 00 
   14c48:	48 8d 85 50 ee ff ff 	lea    -0x11b0(%rbp),%rax
   14c4f:	48 83 c0 18          	add    $0x18,%rax
   14c53:	48 89 85 70 ec ff ff 	mov    %rax,-0x1390(%rbp)
   14c5a:	48 c7 85 78 ec ff ff 	movq   $0x0,-0x1388(%rbp)
   14c61:	00 00 00 00 
   14c65:	48 8d 85 50 ee ff ff 	lea    -0x11b0(%rbp),%rax
   14c6c:	48 83 c0 18          	add    $0x18,%rax
   14c70:	48 89 85 80 ec ff ff 	mov    %rax,-0x1380(%rbp)
   14c77:	48 c7 85 88 ec ff ff 	movq   $0x0,-0x1378(%rbp)
   14c7e:	00 00 00 00 
   14c82:	48 8d 85 50 ee ff ff 	lea    -0x11b0(%rbp),%rax
   14c89:	48 83 c0 18          	add    $0x18,%rax
   14c8d:	48 89 85 90 ec ff ff 	mov    %rax,-0x1370(%rbp)
   14c94:	48 c7 85 98 ec ff ff 	movq   $0x0,-0x1368(%rbp)
   14c9b:	00 00 00 00 
   14c9f:	48 8d 85 50 ee ff ff 	lea    -0x11b0(%rbp),%rax
   14ca6:	48 83 c0 18          	add    $0x18,%rax
   14caa:	48 89 85 a0 ec ff ff 	mov    %rax,-0x1360(%rbp)
   14cb1:	48 c7 85 a8 ec ff ff 	movq   $0x0,-0x1358(%rbp)
   14cb8:	00 00 00 00 
   14cbc:	48 8d 85 50 ee ff ff 	lea    -0x11b0(%rbp),%rax
   14cc3:	48 83 c0 18          	add    $0x18,%rax
   14cc7:	48 89 85 b0 ec ff ff 	mov    %rax,-0x1350(%rbp)
   14cce:	48 c7 85 b8 ec ff ff 	movq   $0x0,-0x1348(%rbp)
   14cd5:	00 00 00 00 
   14cd9:	c7 85 40 eb ff ff 00 	movl   $0x0,-0x14c0(%rbp)
   14ce0:	00 00 00 
   14ce3:	c7 85 44 eb ff ff 00 	movl   $0x0,-0x14bc(%rbp)
   14cea:	00 00 00 
   14ced:	c7 85 48 eb ff ff 00 	movl   $0x0,-0x14b8(%rbp)
   14cf4:	00 00 00 
   14cf7:	c7 85 4c eb ff ff 00 	movl   $0x0,-0x14b4(%rbp)
   14cfe:	00 00 00 
   14d01:	66 c7 85 8c e7 ff ff 	movw   $0xffff,-0x1874(%rbp)
   14d08:	ff ff 
   14d0a:	48 c7 85 98 e9 ff ff 	movq   $0xfffffffffffffff8,-0x1668(%rbp)
   14d11:	f8 ff ff ff 
   14d15:	c7 85 f8 e7 ff ff 8c 	movl   $0x59d9068c,-0x1808(%rbp)
   14d1c:	06 d9 59 
   14d1f:	48 b8 13 fe b3 1e 6a 	movabs $0xe44a2a6a1eb3fe13,%rax
   14d26:	2a 4a e4 
   14d29:	48 89 85 a0 e9 ff ff 	mov    %rax,-0x1660(%rbp)
   14d30:	48 8d 05 a1 36 01 00 	lea    0x136a1(%rip),%rax        # 283d8 <g_400>
   14d37:	48 89 85 a8 e9 ff ff 	mov    %rax,-0x1658(%rbp)
   14d3e:	48 8d 05 4b 36 01 00 	lea    0x1364b(%rip),%rax        # 28390 <g_87>
   14d45:	48 89 85 90 e8 ff ff 	mov    %rax,-0x1770(%rbp)
   14d4c:	48 8d 85 90 e8 ff ff 	lea    -0x1770(%rbp),%rax
   14d53:	48 89 85 98 e8 ff ff 	mov    %rax,-0x1768(%rbp)
   14d5a:	66 c7 85 9a e7 ff ff 	movw   $0xffff,-0x1866(%rbp)
   14d61:	ff ff 
   14d63:	48 8d 85 e0 f2 ff ff 	lea    -0xd20(%rbp),%rax
   14d6a:	48 8d 15 6f 2c 01 00 	lea    0x12c6f(%rip),%rdx        # 279e0 <g_3508+0xf00>
   14d71:	b9 c4 00 00 00       	mov    $0xc4,%ecx
   14d76:	48 89 c7             	mov    %rax,%rdi
   14d79:	48 89 d6             	mov    %rdx,%rsi
   14d7c:	f3 48 a5             	rep movsq %ds:(%rsi),%es:(%rdi)
   14d7f:	48 8d 85 e0 f2 ff ff 	lea    -0xd20(%rbp),%rax
   14d86:	48 05 b8 00 00 00    	add    $0xb8,%rax
   14d8c:	48 89 85 a0 e8 ff ff 	mov    %rax,-0x1760(%rbp)
   14d93:	48 8d 85 a0 e8 ff ff 	lea    -0x1760(%rbp),%rax
   14d9a:	48 89 85 a8 e8 ff ff 	mov    %rax,-0x1758(%rbp)
   14da1:	c7 85 f4 e7 ff ff 99 	movl   $0x7c5ce699,-0x180c(%rbp)
   14da8:	e6 5c 7c 
   14dab:	48 b8 fd c6 48 5d bc 	movabs $0x49eff8bc5d48c6fd,%rax
   14db2:	f8 ef 49 
   14db5:	48 89 85 b0 e8 ff ff 	mov    %rax,-0x1750(%rbp)
   14dbc:	48 8d 85 8c e7 ff ff 	lea    -0x1874(%rbp),%rax
   14dc3:	48 89 85 b8 e8 ff ff 	mov    %rax,-0x1748(%rbp)
   14dca:	48 8d 85 b8 e8 ff ff 	lea    -0x1748(%rbp),%rax
   14dd1:	48 89 85 c0 e8 ff ff 	mov    %rax,-0x1740(%rbp)
   14dd8:	48 8d 85 10 ef ff ff 	lea    -0x10f0(%rbp),%rax
   14ddf:	48 8d 15 1a 32 01 00 	lea    0x1321a(%rip),%rdx        # 28000 <g_3508+0x1520>
   14de6:	b9 32 00 00 00       	mov    $0x32,%ecx
   14deb:	48 89 c7             	mov    %rax,%rdi
   14dee:	48 89 d6             	mov    %rdx,%rsi
   14df1:	f3 48 a5             	rep movsq %ds:(%rsi),%es:(%rdi)
   14df4:	48 8d 85 10 ef ff ff 	lea    -0x10f0(%rbp),%rax
   14dfb:	48 83 c0 78          	add    $0x78,%rax
   14dff:	48 89 85 90 e9 ff ff 	mov    %rax,-0x1670(%rbp)
   14e06:	c7 85 d4 e7 ff ff fd 	movl   $0xfffffffd,-0x182c(%rbp)
   14e0d:	ff ff ff 
   14e10:	66 c7 85 8e e7 ff ff 	movw   $0x5ab7,-0x1872(%rbp)
   14e17:	b7 5a 
   14e19:	c7 85 ec e7 ff ff bf 	movl   $0xc1484ebf,-0x1814(%rbp)
   14e20:	4e 48 c1 
   14e23:	c7 85 f0 e7 ff ff fb 	movl   $0xfffffffb,-0x1810(%rbp)
   14e2a:	ff ff ff 
   14e2d:	66 c7 85 98 e7 ff ff 	movw   $0xb954,-0x1868(%rbp)
   14e34:	54 b9 
   14e36:	c7 85 e8 e7 ff ff 36 	movl   $0x138fc36,-0x1818(%rbp)
   14e3d:	fc 38 01 
   14e40:	48 c7 85 d0 eb ff ff 	movq   $0x0,-0x1430(%rbp)
   14e47:	00 00 00 00 
   14e4b:	48 c7 85 d8 eb ff ff 	movq   $0x0,-0x1428(%rbp)
   14e52:	00 00 00 00 
   14e56:	48 c7 85 e0 eb ff ff 	movq   $0x0,-0x1420(%rbp)
   14e5d:	00 00 00 00 
   14e61:	48 c7 85 e8 eb ff ff 	movq   $0x0,-0x1418(%rbp)
   14e68:	00 00 00 00 
   14e6c:	48 c7 85 f0 eb ff ff 	movq   $0x0,-0x1410(%rbp)
   14e73:	00 00 00 00 
   14e77:	48 8d 05 62 36 01 00 	lea    0x13662(%rip),%rax        # 284e0 <g_882>
   14e7e:	48 89 85 58 e9 ff ff 	mov    %rax,-0x16a8(%rbp)
   14e85:	48 8d 05 b4 51 01 00 	lea    0x151b4(%rip),%rax        # 2a040 <g_1266>
   14e8c:	48 89 85 60 e9 ff ff 	mov    %rax,-0x16a0(%rbp)
   14e93:	c7 85 a8 e7 ff ff f6 	movl   $0xfffffff6,-0x1858(%rbp)
   14e9a:	ff ff ff 
   14e9d:	66 c7 85 94 e7 ff ff 	movw   $0xfffd,-0x186c(%rbp)
   14ea4:	fd ff 
   14ea6:	48 c7 85 c8 e8 ff ff 	movq   $0x0,-0x1738(%rbp)
   14ead:	00 00 00 00 
   14eb1:	48 8d 85 c8 e8 ff ff 	lea    -0x1738(%rbp),%rax
   14eb8:	48 89 85 d0 e8 ff ff 	mov    %rax,-0x1730(%rbp)
   14ebf:	66 c7 85 96 e7 ff ff 	movw   $0x63af,-0x186a(%rbp)
   14ec6:	af 63 
   14ec8:	c7 85 d8 e7 ff ff f8 	movl   $0xfffffff8,-0x1828(%rbp)
   14ecf:	ff ff ff 
   14ed2:	48 8d 05 cf f1 00 00 	lea    0xf1cf(%rip),%rax        # 240a8 <g_143>
   14ed9:	48 89 85 68 e9 ff ff 	mov    %rax,-0x1698(%rbp)
   14ee0:	48 8d 05 e9 45 01 00 	lea    0x145e9(%rip),%rax        # 294d0 <g_1568>
   14ee7:	48 89 85 d8 e8 ff ff 	mov    %rax,-0x1728(%rbp)
   14eee:	48 8d 85 d8 e8 ff ff 	lea    -0x1728(%rbp),%rax
   14ef5:	48 89 85 70 e9 ff ff 	mov    %rax,-0x1690(%rbp)
   14efc:	48 8d 05 75 f8 00 00 	lea    0xf875(%rip),%rax        # 24778 <g_1417>
   14f03:	48 89 85 78 e9 ff ff 	mov    %rax,-0x1688(%rbp)
   14f0a:	c7 85 dc e7 ff ff 2d 	movl   $0xa32add2d,-0x1824(%rbp)
   14f11:	dd 2a a3 
   14f14:	48 b8 a6 b8 b4 57 98 	movabs $0xa2663b9857b4b8a6,%rax
   14f1b:	3b 66 a2 
   14f1e:	48 89 85 80 e9 ff ff 	mov    %rax,-0x1680(%rbp)
   14f25:	c7 85 e0 e7 ff ff 04 	movl   $0x4,-0x1820(%rbp)
   14f2c:	00 00 00 
   14f2f:	48 c7 85 88 e9 ff ff 	movq   $0x1,-0x1678(%rbp)
   14f36:	01 00 00 00 
   14f3a:	66 c7 85 90 e7 ff ff 	movw   $0x6,-0x1870(%rbp)
   14f41:	06 00 
   14f43:	c7 85 e4 e7 ff ff 00 	movl   $0x0,-0x181c(%rbp)
   14f4a:	00 00 00 
   14f4d:	eb 1a                	jmp    14f69 <func_57+0x595>
   14f4f:	8b 85 e4 e7 ff ff    	mov    -0x181c(%rbp),%eax
   14f55:	48 98                	cltq   
   14f57:	c7 84 85 24 eb ff ff 	movl   $0x1,-0x14dc(%rbp,%rax,4)
   14f5e:	01 00 00 00 
   14f62:	83 85 e4 e7 ff ff 01 	addl   $0x1,-0x181c(%rbp)
   14f69:	83 bd e4 e7 ff ff 02 	cmpl   $0x2,-0x181c(%rbp)
   14f70:	7e dd                	jle    14f4f <func_57+0x57b>
   14f72:	90                   	nop
   14f73:	66 c7 05 fc f3 00 00 	movw   $0xa,0xf3fc(%rip)        # 24378 <g_457>
   14f7a:	0a 00 
   14f7c:	eb 30                	jmp    14fae <func_57+0x5da>
   14f7e:	48 8d 05 7b 35 01 00 	lea    0x1357b(%rip),%rax        # 28500 <g_896>
   14f85:	48 89 85 18 eb ff ff 	mov    %rax,-0x14e8(%rbp)
   14f8c:	48 8b 15 6d 35 01 00 	mov    0x1356d(%rip),%rdx        # 28500 <g_896>
   14f93:	48 8b 85 18 eb ff ff 	mov    -0x14e8(%rbp),%rax
   14f9a:	48 89 10             	mov    %rdx,(%rax)
   14f9d:	0f b7 05 d4 f3 00 00 	movzwl 0xf3d4(%rip),%eax        # 24378 <g_457>
   14fa4:	83 c0 01             	add    $0x1,%eax
   14fa7:	66 89 05 ca f3 00 00 	mov    %ax,0xf3ca(%rip)        # 24378 <g_457>
   14fae:	0f b7 05 c3 f3 00 00 	movzwl 0xf3c3(%rip),%eax        # 24378 <g_457>
   14fb5:	66 83 f8 18          	cmp    $0x18,%ax
   14fb9:	76 c3                	jbe    14f7e <func_57+0x5aa>
   14fbb:	90                   	nop
   14fbc:	c6 05 6f f0 00 00 04 	movb   $0x4,0xf06f(%rip)        # 24032 <g_16>
   14fc3:	e9 1d 19 00 00       	jmpq   168e5 <func_57+0x1f11>
   14fc8:	66 c7 85 32 eb ff ff 	movw   $0xfff8,-0x14ce(%rbp)
   14fcf:	f8 ff 
   14fd1:	66 c7 85 34 eb ff ff 	movw   $0x81a6,-0x14cc(%rbp)
   14fd8:	a6 81 
   14fda:	66 c7 85 36 eb ff ff 	movw   $0x81a6,-0x14ca(%rbp)
   14fe1:	a6 81 
   14fe3:	66 c7 85 38 eb ff ff 	movw   $0xfff8,-0x14c8(%rbp)
   14fea:	f8 ff 
   14fec:	66 c7 85 3a eb ff ff 	movw   $0x81a6,-0x14c6(%rbp)
   14ff3:	a6 81 
   14ff5:	66 c7 85 3c eb ff ff 	movw   $0x81a6,-0x14c4(%rbp)
   14ffc:	a6 81 
   14ffe:	66 c7 85 3e eb ff ff 	movw   $0xfff8,-0x14c2(%rbp)
   15005:	f8 ff 
   15007:	48 8d 05 26 f0 00 00 	lea    0xf026(%rip),%rax        # 24034 <g_34>
   1500e:	48 89 85 40 ea ff ff 	mov    %rax,-0x15c0(%rbp)
   15015:	c7 85 58 e8 ff ff 38 	movl   $0x3ecf1e38,-0x17a8(%rbp)
   1501c:	1e cf 3e 
   1501f:	48 8d 05 ee 4e 01 00 	lea    0x14eee(%rip),%rax        # 29f14 <g_302>
   15026:	48 89 85 48 ea ff ff 	mov    %rax,-0x15b8(%rbp)
   1502d:	48 8d 05 48 f1 00 00 	lea    0xf148(%rip),%rax        # 2417c <g_322>
   15034:	48 89 85 50 ea ff ff 	mov    %rax,-0x15b0(%rbp)
   1503b:	48 c7 85 58 ea ff ff 	movq   $0x0,-0x15a8(%rbp)
   15042:	00 00 00 00 
   15046:	48 c7 85 60 ea ff ff 	movq   $0x0,-0x15a0(%rbp)
   1504d:	00 00 00 00 
   15051:	48 8d 05 b0 f5 00 00 	lea    0xf5b0(%rip),%rax        # 24608 <g_975>
   15058:	48 89 85 68 ea ff ff 	mov    %rax,-0x1598(%rbp)
   1505f:	48 8d 05 9f f6 00 00 	lea    0xf69f(%rip),%rax        # 24705 <g_977+0xe5>
   15066:	48 89 85 70 ea ff ff 	mov    %rax,-0x1590(%rbp)
   1506d:	48 8d 05 d4 f0 00 00 	lea    0xf0d4(%rip),%rax        # 24148 <g_301+0x28>
   15074:	48 89 85 e8 e8 ff ff 	mov    %rax,-0x1718(%rbp)
   1507b:	48 8d 05 56 33 01 00 	lea    0x13356(%rip),%rax        # 283d8 <g_400>
   15082:	48 89 85 f0 e8 ff ff 	mov    %rax,-0x1710(%rbp)
   15089:	48 8d 05 b0 4e 01 00 	lea    0x14eb0(%rip),%rax        # 29f40 <g_970>
   15090:	48 89 85 30 ec ff ff 	mov    %rax,-0x13d0(%rbp)
   15097:	48 8d 05 a2 4e 01 00 	lea    0x14ea2(%rip),%rax        # 29f40 <g_970>
   1509e:	48 89 85 38 ec ff ff 	mov    %rax,-0x13c8(%rbp)
   150a5:	48 8d 05 94 4e 01 00 	lea    0x14e94(%rip),%rax        # 29f40 <g_970>
   150ac:	48 89 85 40 ec ff ff 	mov    %rax,-0x13c0(%rbp)
   150b3:	48 8d 05 86 4e 01 00 	lea    0x14e86(%rip),%rax        # 29f40 <g_970>
   150ba:	48 89 85 48 ec ff ff 	mov    %rax,-0x13b8(%rbp)
   150c1:	48 8d 05 78 4e 01 00 	lea    0x14e78(%rip),%rax        # 29f40 <g_970>
   150c8:	48 89 85 50 ec ff ff 	mov    %rax,-0x13b0(%rbp)
   150cf:	48 8d 05 6a 4e 01 00 	lea    0x14e6a(%rip),%rax        # 29f40 <g_970>
   150d6:	48 89 85 58 ec ff ff 	mov    %rax,-0x13a8(%rbp)
   150dd:	48 8d 05 5c 4e 01 00 	lea    0x14e5c(%rip),%rax        # 29f40 <g_970>
   150e4:	48 89 85 60 ec ff ff 	mov    %rax,-0x13a0(%rbp)
   150eb:	48 8d 05 4e 4e 01 00 	lea    0x14e4e(%rip),%rax        # 29f40 <g_970>
   150f2:	48 89 85 68 ec ff ff 	mov    %rax,-0x1398(%rbp)
   150f9:	c7 85 5c e8 ff ff 00 	movl   $0x0,-0x17a4(%rbp)
   15100:	00 00 00 
   15103:	66 c7 85 9e e7 ff ff 	movw   $0xfffb,-0x1862(%rbp)
   1510a:	fb ff 
   1510c:	c6 85 a4 e7 ff ff 12 	movb   $0x12,-0x185c(%rbp)
   15113:	48 b8 48 80 87 06 51 	movabs $0x9148e75106878048,%rax
   1511a:	e7 48 91 
   1511d:	48 89 85 78 ea ff ff 	mov    %rax,-0x1588(%rbp)
   15124:	48 c7 85 80 ea ff ff 	movq   $0xfffffffffffffff8,-0x1580(%rbp)
   1512b:	f8 ff ff ff 
   1512f:	66 c7 85 a0 e7 ff ff 	movw   $0x1,-0x1860(%rbp)
   15136:	01 00 
   15138:	48 c7 85 88 ea ff ff 	movq   $0x0,-0x1578(%rbp)
   1513f:	00 00 00 00 
   15143:	c7 85 20 e8 ff ff 00 	movl   $0x0,-0x17e0(%rbp)
   1514a:	00 00 00 
   1514d:	eb 1b                	jmp    1516a <func_57+0x796>
   1514f:	8b 85 20 e8 ff ff    	mov    -0x17e0(%rbp),%eax
   15155:	48 98                	cltq   
   15157:	48 c7 84 c5 00 ec ff 	movq   $0x0,-0x1400(%rbp,%rax,8)
   1515e:	ff 00 00 00 00 
   15163:	83 85 20 e8 ff ff 01 	addl   $0x1,-0x17e0(%rbp)
   1516a:	83 bd 20 e8 ff ff 05 	cmpl   $0x5,-0x17e0(%rbp)
   15171:	7e dc                	jle    1514f <func_57+0x77b>
   15173:	c7 85 20 e8 ff ff 00 	movl   $0x0,-0x17e0(%rbp)
   1517a:	00 00 00 
   1517d:	eb 1e                	jmp    1519d <func_57+0x7c9>
   1517f:	8b 85 20 e8 ff ff    	mov    -0x17e0(%rbp),%eax
   15185:	48 98                	cltq   
   15187:	48 8d 15 52 33 01 00 	lea    0x13352(%rip),%rdx        # 284e0 <g_882>
   1518e:	48 89 94 c5 50 eb ff 	mov    %rdx,-0x14b0(%rbp,%rax,8)
   15195:	ff 
   15196:	83 85 20 e8 ff ff 01 	addl   $0x1,-0x17e0(%rbp)
   1519d:	83 bd 20 e8 ff ff 01 	cmpl   $0x1,-0x17e0(%rbp)
   151a4:	7e d9                	jle    1517f <func_57+0x7ab>
   151a6:	c7 85 20 e8 ff ff 00 	movl   $0x0,-0x17e0(%rbp)
   151ad:	00 00 00 
   151b0:	eb 51                	jmp    15203 <func_57+0x82f>
   151b2:	c7 85 1c e8 ff ff 00 	movl   $0x0,-0x17e4(%rbp)
   151b9:	00 00 00 
   151bc:	eb 35                	jmp    151f3 <func_57+0x81f>
   151be:	8b 85 1c e8 ff ff    	mov    -0x17e4(%rbp),%eax
   151c4:	48 63 c8             	movslq %eax,%rcx
   151c7:	8b 85 20 e8 ff ff    	mov    -0x17e0(%rbp),%eax
   151cd:	48 63 d0             	movslq %eax,%rdx
   151d0:	48 89 d0             	mov    %rdx,%rax
   151d3:	48 01 c0             	add    %rax,%rax
   151d6:	48 01 d0             	add    %rdx,%rax
   151d9:	48 8d 14 08          	lea    (%rax,%rcx,1),%rdx
   151dd:	48 8d 85 e8 e8 ff ff 	lea    -0x1718(%rbp),%rax
   151e4:	48 89 84 d5 a0 ed ff 	mov    %rax,-0x1260(%rbp,%rdx,8)
   151eb:	ff 
   151ec:	83 85 1c e8 ff ff 01 	addl   $0x1,-0x17e4(%rbp)
   151f3:	83 bd 1c e8 ff ff 02 	cmpl   $0x2,-0x17e4(%rbp)
   151fa:	7e c2                	jle    151be <func_57+0x7ea>
   151fc:	83 85 20 e8 ff ff 01 	addl   $0x1,-0x17e0(%rbp)
   15203:	83 bd 20 e8 ff ff 06 	cmpl   $0x6,-0x17e0(%rbp)
   1520a:	7e a6                	jle    151b2 <func_57+0x7de>
   1520c:	c7 85 20 e8 ff ff 00 	movl   $0x0,-0x17e0(%rbp)
   15213:	00 00 00 
   15216:	eb 1e                	jmp    15236 <func_57+0x862>
   15218:	8b 85 20 e8 ff ff    	mov    -0x17e0(%rbp),%eax
   1521e:	48 98                	cltq   
   15220:	48 8d 15 f1 f2 00 00 	lea    0xf2f1(%rip),%rdx        # 24518 <g_849>
   15227:	48 89 94 c5 90 eb ff 	mov    %rdx,-0x1470(%rbp,%rax,8)
   1522e:	ff 
   1522f:	83 85 20 e8 ff ff 01 	addl   $0x1,-0x17e0(%rbp)
   15236:	83 bd 20 e8 ff ff 02 	cmpl   $0x2,-0x17e0(%rbp)
   1523d:	7e d9                	jle    15218 <func_57+0x844>
   1523f:	c7 05 c3 4c 01 00 05 	movl   $0x5,0x14cc3(%rip)        # 29f0c <g_65>
   15246:	00 00 00 
   15249:	e9 bd 03 00 00       	jmpq   1560b <func_57+0xc37>
   1524e:	c7 85 00 e8 ff ff 00 	movl   $0x0,-0x1800(%rbp)
   15255:	00 00 00 
   15258:	eb 1b                	jmp    15275 <func_57+0x8a1>
   1525a:	8b 85 00 e8 ff ff    	mov    -0x1800(%rbp),%eax
   15260:	48 98                	cltq   
   15262:	48 c7 84 c5 00 f9 ff 	movq   $0x0,-0x700(%rbp,%rax,8)
   15269:	ff 00 00 00 00 
   1526e:	83 85 00 e8 ff ff 01 	addl   $0x1,-0x1800(%rbp)
   15275:	83 bd 00 e8 ff ff 00 	cmpl   $0x0,-0x1800(%rbp)
   1527c:	7e dc                	jle    1525a <func_57+0x886>
   1527e:	0f b6 05 ad ed 00 00 	movzbl 0xedad(%rip),%eax        # 24032 <g_16>
   15285:	0f be d8             	movsbl %al,%ebx
   15288:	48 8b 85 68 e7 ff ff 	mov    -0x1898(%rbp),%rax
   1528f:	0f b7 00             	movzwl (%rax),%eax
   15292:	44 0f b7 e0          	movzwl %ax,%r12d
   15296:	48 8b 85 68 e7 ff ff 	mov    -0x1898(%rbp),%rax
   1529d:	0f b7 00             	movzwl (%rax),%eax
   152a0:	0f b7 c0             	movzwl %ax,%eax
   152a3:	be 0e 00 00 00       	mov    $0xe,%esi
   152a8:	89 c7                	mov    %eax,%edi
   152aa:	e8 57 5b ff ff       	callq  ae06 <safe_lshift_func_uint16_t_u_u>
   152af:	0f b7 c0             	movzwl %ax,%eax
   152b2:	89 c6                	mov    %eax,%esi
   152b4:	bf 00 00 00 00       	mov    $0x0,%edi
   152b9:	e8 8a 5b ff ff       	callq  ae48 <safe_rshift_func_uint16_t_u_s>
   152be:	0f b7 85 74 e7 ff ff 	movzwl -0x188c(%rbp),%eax
   152c5:	98                   	cwtl   
   152c6:	44 89 e6             	mov    %r12d,%esi
   152c9:	89 c7                	mov    %eax,%edi
   152cb:	e8 93 52 ff ff       	callq  a563 <safe_rshift_func_int16_t_s_u>
   152d0:	be 01 00 00 00       	mov    $0x1,%esi
   152d5:	bf 1c 00 00 00       	mov    $0x1c,%edi
   152da:	e8 c2 4f ff ff       	callq  a2a1 <safe_lshift_func_int8_t_s_s>
   152df:	0f be c0             	movsbl %al,%eax
   152e2:	89 de                	mov    %ebx,%esi
   152e4:	89 c7                	mov    %eax,%edi
   152e6:	e8 27 4f ff ff       	callq  a212 <safe_mul_func_int8_t_s_s>
   152eb:	0f be d0             	movsbl %al,%edx
   152ee:	0f b7 85 74 e7 ff ff 	movzwl -0x188c(%rbp),%eax
   152f5:	0f be c0             	movsbl %al,%eax
   152f8:	89 d6                	mov    %edx,%esi
   152fa:	89 c7                	mov    %eax,%edi
   152fc:	e8 f1 4e ff ff       	callq  a1f2 <safe_sub_func_int8_t_s_s>
   15301:	0f be d0             	movsbl %al,%edx
   15304:	48 8b 05 75 30 01 00 	mov    0x13075(%rip),%rax        # 28380 <g_64>
   1530b:	48 8b 05 a6 f0 00 00 	mov    0xf0a6(%rip),%rax        # 243b8 <g_462+0x38>
   15312:	0f be c0             	movsbl %al,%eax
   15315:	89 d6                	mov    %edx,%esi
   15317:	89 c7                	mov    %eax,%edi
   15319:	e8 83 4f ff ff       	callq  a2a1 <safe_lshift_func_int8_t_s_s>
   1531e:	66 98                	cbtw   
   15320:	0f b7 d0             	movzwl %ax,%edx
   15323:	0f b7 85 3a eb ff ff 	movzwl -0x14c6(%rbp),%eax
   1532a:	0f b7 c0             	movzwl %ax,%eax
   1532d:	89 d6                	mov    %edx,%esi
   1532f:	89 c7                	mov    %eax,%edi
   15331:	e8 26 5a ff ff       	callq  ad5c <safe_mod_func_uint16_t_u_u>
   15336:	be 0d 00 00 00       	mov    $0xd,%esi
   1533b:	bf 01 00 00 00       	mov    $0x1,%edi
   15340:	e8 4d 51 ff ff       	callq  a492 <safe_lshift_func_int16_t_s_s>
   15345:	0f bf d0             	movswl %ax,%edx
   15348:	8b 05 ca f1 00 00    	mov    0xf1ca(%rip),%eax        # 24518 <g_849>
   1534e:	31 d0                	xor    %edx,%eax
   15350:	89 05 c2 f1 00 00    	mov    %eax,0xf1c2(%rip)        # 24518 <g_849>
   15356:	8b 05 bc f1 00 00    	mov    0xf1bc(%rip),%eax        # 24518 <g_849>
   1535c:	31 85 fc e7 ff ff    	xor    %eax,-0x1804(%rbp)
   15362:	66 c7 05 a5 4b 01 00 	movw   $0x0,0x14ba5(%rip)        # 29f10 <g_144>
   15369:	00 00 
   1536b:	e9 7b 02 00 00       	jmpq   155eb <func_57+0xc17>
   15370:	48 b8 a0 24 b9 7f 67 	movabs $0x464da2677fb924a0,%rax
   15377:	a2 4d 46 
   1537a:	48 89 85 00 eb ff ff 	mov    %rax,-0x1500(%rbp)
   15381:	c7 85 88 e8 ff ff ff 	movl   $0xffffffff,-0x1778(%rbp)
   15388:	ff ff ff 
   1538b:	66 c7 85 a2 e7 ff ff 	movw   $0x0,-0x185e(%rbp)
   15392:	00 00 
   15394:	0f b7 85 74 e7 ff ff 	movzwl -0x188c(%rbp),%eax
   1539b:	0f be c0             	movsbl %al,%eax
   1539e:	be 02 00 00 00       	mov    $0x2,%esi
   153a3:	89 c7                	mov    %eax,%edi
   153a5:	e8 c2 4f ff ff       	callq  a36c <safe_rshift_func_int8_t_s_u>
   153aa:	0f be c0             	movsbl %al,%eax
   153ad:	89 c6                	mov    %eax,%esi
   153af:	bf 01 00 00 00       	mov    $0x1,%edi
   153b4:	e8 59 4e ff ff       	callq  a212 <safe_mul_func_int8_t_s_s>
   153b9:	84 c0                	test   %al,%al
   153bb:	0f 84 09 02 00 00    	je     155ca <func_57+0xbf6>
   153c1:	48 8d 05 60 ed 00 00 	lea    0xed60(%rip),%rax        # 24128 <g_301+0x8>
   153c8:	48 89 85 08 eb ff ff 	mov    %rax,-0x14f8(%rbp)
   153cf:	48 8d 05 a2 ef 00 00 	lea    0xefa2(%rip),%rax        # 24378 <g_457>
   153d6:	48 89 85 10 eb ff ff 	mov    %rax,-0x14f0(%rbp)
   153dd:	c7 85 8c e8 ff ff 4c 	movl   $0xf9bbc24c,-0x1774(%rbp)
   153e4:	c2 bb f9 
   153e7:	48 8b 05 ca 2f 01 00 	mov    0x12fca(%rip),%rax        # 283b8 <g_264>
   153ee:	0f b7 05 a5 ec 00 00 	movzwl 0xeca5(%rip),%eax        # 2409a <g_98>
   153f5:	0f b6 d8             	movzbl %al,%ebx
   153f8:	44 8b 25 79 ed 00 00 	mov    0xed79(%rip),%r12d        # 24178 <g_305>
   153ff:	48 8b 05 f2 2f 01 00 	mov    0x12ff2(%rip),%rax        # 283f8 <g_607>
   15406:	48 8b 00             	mov    (%rax),%rax
   15409:	48 8b 00             	mov    (%rax),%rax
   1540c:	44 0f b7 ad 74 e7 ff 	movzwl -0x188c(%rbp),%r13d
   15413:	ff 
   15414:	44 0f b7 b5 74 e7 ff 	movzwl -0x188c(%rbp),%r14d
   1541b:	ff 
   1541c:	be f6 ff ff ff       	mov    $0xfffffff6,%esi
   15421:	bf ff ff ff ff       	mov    $0xffffffff,%edi
   15426:	e8 d2 5a ff ff       	callq  aefd <safe_mod_func_uint32_t_u_u>
   1542b:	0f b7 95 74 e7 ff ff 	movzwl -0x188c(%rbp),%edx
   15432:	39 d0                	cmp    %edx,%eax
   15434:	0f 95 c0             	setne  %al
   15437:	0f b6 c8             	movzbl %al,%ecx
   1543a:	48 8b 85 08 eb ff ff 	mov    -0x14f8(%rbp),%rax
   15441:	48 8b 10             	mov    (%rax),%rdx
   15444:	48 63 c1             	movslq %ecx,%rax
   15447:	48 21 c2             	and    %rax,%rdx
   1544a:	48 8b 85 08 eb ff ff 	mov    -0x14f8(%rbp),%rax
   15451:	48 89 10             	mov    %rdx,(%rax)
   15454:	48 8b 85 08 eb ff ff 	mov    -0x14f8(%rbp),%rax
   1545b:	48 8b 00             	mov    (%rax),%rax
   1545e:	48 89 c6             	mov    %rax,%rsi
   15461:	48 bf bd 6a 61 1c 16 	movabs $0x8bafa0161c616abd,%rdi
   15468:	a0 af 8b 
   1546b:	e8 be 5b ff ff       	callq  b02e <safe_add_func_uint64_t_u_u>
   15470:	0f be d0             	movsbl %al,%edx
   15473:	0f b7 85 74 e7 ff ff 	movzwl -0x188c(%rbp),%eax
   1547a:	0f be c0             	movsbl %al,%eax
   1547d:	89 d6                	mov    %edx,%esi
   1547f:	89 c7                	mov    %eax,%edi
   15481:	e8 8c 4d ff ff       	callq  a212 <safe_mul_func_int8_t_s_s>
   15486:	44 89 f6             	mov    %r14d,%esi
   15489:	bf 01 00 00 00       	mov    $0x1,%edi
   1548e:	e8 2b 58 ff ff       	callq  acbe <safe_rshift_func_uint8_t_u_u>
   15493:	0f b6 c0             	movzbl %al,%eax
   15496:	89 85 88 e8 ff ff    	mov    %eax,-0x1778(%rbp)
   1549c:	83 bd 88 e8 ff ff 07 	cmpl   $0x7,-0x1778(%rbp)
   154a3:	0f 95 c0             	setne  %al
   154a6:	0f b6 c0             	movzbl %al,%eax
   154a9:	44 89 ee             	mov    %r13d,%esi
   154ac:	89 c7                	mov    %eax,%edi
   154ae:	e8 82 4e ff ff       	callq  a335 <safe_rshift_func_int8_t_s_s>
   154b3:	48 8b 85 00 eb ff ff 	mov    -0x1500(%rbp),%rax
   154ba:	0f b7 c0             	movzwl %ax,%eax
   154bd:	8b 95 88 e8 ff ff    	mov    -0x1778(%rbp),%edx
   154c3:	89 d6                	mov    %edx,%esi
   154c5:	89 c7                	mov    %eax,%edi
   154c7:	e8 7c 59 ff ff       	callq  ae48 <safe_rshift_func_uint16_t_u_s>
   154cc:	48 8b 95 68 e7 ff ff 	mov    -0x1898(%rbp),%rdx
   154d3:	0f b7 12             	movzwl (%rdx),%edx
   154d6:	21 d0                	and    %edx,%eax
   154d8:	0f b7 c0             	movzwl %ax,%eax
   154db:	48 39 85 00 eb ff ff 	cmp    %rax,-0x1500(%rbp)
   154e2:	0f 9d c0             	setge  %al
   154e5:	0f b6 c0             	movzbl %al,%eax
   154e8:	48 89 05 39 eb 00 00 	mov    %rax,0xeb39(%rip)        # 24028 <g_6>
   154ef:	48 8b 05 32 eb 00 00 	mov    0xeb32(%rip),%rax        # 24028 <g_6>
   154f6:	89 c2                	mov    %eax,%edx
   154f8:	48 8b 85 00 eb ff ff 	mov    -0x1500(%rbp),%rax
   154ff:	21 d0                	and    %edx,%eax
   15501:	98                   	cwtl   
   15502:	83 e0 07             	and    $0x7,%eax
   15505:	89 c7                	mov    %eax,%edi
   15507:	e8 91 4e ff ff       	callq  a39d <safe_unary_minus_func_int16_t_s>
   1550c:	0f b7 95 a2 e7 ff ff 	movzwl -0x185e(%rbp),%edx
   15513:	31 d0                	xor    %edx,%eax
   15515:	0f b7 c0             	movzwl %ax,%eax
   15518:	44 89 e6             	mov    %r12d,%esi
   1551b:	89 c7                	mov    %eax,%edi
   1551d:	e8 26 59 ff ff       	callq  ae48 <safe_rshift_func_uint16_t_u_s>
   15522:	48 8b 95 10 eb ff ff 	mov    -0x14f0(%rbp),%rdx
   15529:	66 89 02             	mov    %ax,(%rdx)
   1552c:	48 8b 85 10 eb ff ff 	mov    -0x14f0(%rbp),%rax
   15533:	0f b7 00             	movzwl (%rax),%eax
   15536:	0f b7 c0             	movzwl %ax,%eax
   15539:	89 c7                	mov    %eax,%edi
   1553b:	e8 a9 57 ff ff       	callq  ace9 <safe_unary_minus_func_uint16_t_u>
   15540:	0f b7 c0             	movzwl %ax,%eax
   15543:	39 85 8c e8 ff ff    	cmp    %eax,-0x1774(%rbp)
   15549:	0f 9f c0             	setg   %al
   1554c:	0f b6 d0             	movzbl %al,%edx
   1554f:	0f b7 85 74 e7 ff ff 	movzwl -0x188c(%rbp),%eax
   15556:	39 c2                	cmp    %eax,%edx
   15558:	74 10                	je     1556a <func_57+0xb96>
   1555a:	83 bd 8c e8 ff ff 00 	cmpl   $0x0,-0x1774(%rbp)
   15561:	74 07                	je     1556a <func_57+0xb96>
   15563:	b8 01 00 00 00       	mov    $0x1,%eax
   15568:	eb 05                	jmp    1556f <func_57+0xb9b>
   1556a:	b8 00 00 00 00       	mov    $0x0,%eax
   1556f:	89 05 d3 ef 00 00    	mov    %eax,0xefd3(%rip)        # 24548 <g_954>
   15575:	8b 15 cd ef 00 00    	mov    0xefcd(%rip),%edx        # 24548 <g_954>
   1557b:	0f b7 85 74 e7 ff ff 	movzwl -0x188c(%rbp),%eax
   15582:	39 c2                	cmp    %eax,%edx
   15584:	0f 95 c0             	setne  %al
   15587:	0f b6 c0             	movzbl %al,%eax
   1558a:	89 de                	mov    %ebx,%esi
   1558c:	89 c7                	mov    %eax,%edi
   1558e:	e8 00 56 ff ff       	callq  ab93 <safe_mul_func_uint8_t_u_u>
   15593:	84 c0                	test   %al,%al
   15595:	74 08                	je     1559f <func_57+0xbcb>
   15597:	8b 05 e3 ea 00 00    	mov    0xeae3(%rip),%eax        # 24080 <g_88>
   1559d:	85 c0                	test   %eax,%eax
   1559f:	48 be 1e 07 0b 94 f9 	movabs $0x47eca1f9940b071e,%rsi
   155a6:	a1 ec 47 
   155a9:	48 bf 6d 56 54 ee d3 	movabs $0x3634b9d3ee54566d,%rdi
   155b0:	b9 34 36 
   155b3:	e8 93 5a ff ff       	callq  b04b <safe_sub_func_uint64_t_u_u>
   155b8:	89 85 58 e8 ff ff    	mov    %eax,-0x17a8(%rbp)
   155be:	66 83 bd a2 e7 ff ff 	cmpw   $0x0,-0x185e(%rbp)
   155c5:	00 
   155c6:	74 11                	je     155d9 <func_57+0xc05>
   155c8:	eb 32                	jmp    155fc <func_57+0xc28>
   155ca:	8b 05 a8 eb 00 00    	mov    0xeba8(%rip),%eax        # 24178 <g_305>
   155d0:	85 c0                	test   %eax,%eax
   155d2:	74 06                	je     155da <func_57+0xc06>
   155d4:	e9 9a f9 ff ff       	jmpq   14f73 <func_57+0x59f>
   155d9:	90                   	nop
   155da:	0f b7 05 2f 49 01 00 	movzwl 0x1492f(%rip),%eax        # 29f10 <g_144>
   155e1:	83 c0 01             	add    $0x1,%eax
   155e4:	66 89 05 25 49 01 00 	mov    %ax,0x14925(%rip)        # 29f10 <g_144>
   155eb:	0f b7 05 1e 49 01 00 	movzwl 0x1491e(%rip),%eax        # 29f10 <g_144>
   155f2:	66 83 f8 02          	cmp    $0x2,%ax
   155f6:	0f 8e 74 fd ff ff    	jle    15370 <func_57+0x99c>
   155fc:	8b 05 0a 49 01 00    	mov    0x1490a(%rip),%eax        # 29f0c <g_65>
   15602:	83 e8 01             	sub    $0x1,%eax
   15605:	89 05 01 49 01 00    	mov    %eax,0x14901(%rip)        # 29f0c <g_65>
   1560b:	8b 05 fb 48 01 00    	mov    0x148fb(%rip),%eax        # 29f0c <g_65>
   15611:	85 c0                	test   %eax,%eax
   15613:	0f 8f 35 fc ff ff    	jg     1524e <func_57+0x87a>
   15619:	be 01 00 00 00       	mov    $0x1,%esi
   1561e:	bf 01 00 00 00       	mov    $0x1,%edi
   15623:	e8 8b 4d ff ff       	callq  a3b3 <safe_add_func_int16_t_s_s>
   15628:	0f bf d0             	movswl %ax,%edx
   1562b:	8b 85 4c eb ff ff    	mov    -0x14b4(%rbp),%eax
   15631:	39 c2                	cmp    %eax,%edx
   15633:	0f 92 c0             	setb   %al
   15636:	0f b6 c0             	movzbl %al,%eax
   15639:	be 0d 00 00 00       	mov    $0xd,%esi
   1563e:	89 c7                	mov    %eax,%edi
   15640:	e8 1e 4f ff ff       	callq  a563 <safe_rshift_func_int16_t_s_u>
   15645:	48 c7 05 b8 2e 01 00 	movq   $0x0,0x12eb8(%rip)        # 28508 <g_969>
   1564c:	00 00 00 00 
   15650:	48 8b 05 b1 2e 01 00 	mov    0x12eb1(%rip),%rax        # 28508 <g_969>
   15657:	48 85 c0             	test   %rax,%rax
   1565a:	48 8b 85 08 ec ff ff 	mov    -0x13f8(%rbp),%rax
   15661:	48 85 c0             	test   %rax,%rax
   15664:	0f 95 c0             	setne  %al
   15667:	0f b6 d0             	movzbl %al,%edx
   1566a:	48 8b 85 50 ea ff ff 	mov    -0x15b0(%rbp),%rax
   15671:	89 10                	mov    %edx,(%rax)
   15673:	48 8b 85 50 ea ff ff 	mov    -0x15b0(%rbp),%rax
   1567a:	8b 00                	mov    (%rax),%eax
   1567c:	3d 24 cb fb d0       	cmp    $0xd0fbcb24,%eax
   15681:	0f 97 c0             	seta   %al
   15684:	0f b6 d0             	movzbl %al,%edx
   15687:	48 8b 85 68 ea ff ff 	mov    -0x1598(%rbp),%rax
   1568e:	0f b6 00             	movzbl (%rax),%eax
   15691:	09 c2                	or     %eax,%edx
   15693:	48 8b 85 68 ea ff ff 	mov    -0x1598(%rbp),%rax
   1569a:	88 10                	mov    %dl,(%rax)
   1569c:	ba 01 00 00 00       	mov    $0x1,%edx
   156a1:	48 8b 85 70 ea ff ff 	mov    -0x1590(%rbp),%rax
   156a8:	0f b6 00             	movzbl (%rax),%eax
   156ab:	09 c2                	or     %eax,%edx
   156ad:	48 8b 85 70 ea ff ff 	mov    -0x1590(%rbp),%rax
   156b4:	88 10                	mov    %dl,(%rax)
   156b6:	48 8b 85 70 ea ff ff 	mov    -0x1590(%rbp),%rax
   156bd:	0f b6 00             	movzbl (%rax),%eax
   156c0:	0f be d0             	movsbl %al,%edx
   156c3:	48 8b 85 48 ea ff ff 	mov    -0x15b8(%rbp),%rax
   156ca:	0f b6 00             	movzbl (%rax),%eax
   156cd:	83 c8 04             	or     $0x4,%eax
   156d0:	89 c1                	mov    %eax,%ecx
   156d2:	48 8b 85 48 ea ff ff 	mov    -0x15b8(%rbp),%rax
   156d9:	88 08                	mov    %cl,(%rax)
   156db:	48 8b 85 48 ea ff ff 	mov    -0x15b8(%rbp),%rax
   156e2:	0f b6 00             	movzbl (%rax),%eax
   156e5:	0f be c0             	movsbl %al,%eax
   156e8:	89 d6                	mov    %edx,%esi
   156ea:	89 c7                	mov    %eax,%edi
   156ec:	e8 21 4b ff ff       	callq  a212 <safe_mul_func_int8_t_s_s>
   156f1:	48 8b 85 e8 e8 ff ff 	mov    -0x1718(%rbp),%rax
   156f8:	48 bb bb c2 31 6e b7 	movabs $0x57c873b76e31c2bb,%rbx
   156ff:	73 c8 57 
   15702:	48 89 18             	mov    %rbx,(%rax)
   15705:	48 8b 00             	mov    (%rax),%rax
   15708:	8b 15 2a 48 01 00    	mov    0x1482a(%rip),%edx        # 29f38 <g_889>
   1570e:	89 d2                	mov    %edx,%edx
   15710:	48 39 d0             	cmp    %rdx,%rax
   15713:	0f 94 c0             	sete   %al
   15716:	0f b6 c0             	movzbl %al,%eax
   15719:	66 89 85 8c e7 ff ff 	mov    %ax,-0x1874(%rbp)
   15720:	66 c7 05 e7 47 01 00 	movw   $0x0,0x147e7(%rip)        # 29f10 <g_144>
   15727:	00 00 
   15729:	e9 96 11 00 00       	jmpq   168c4 <func_57+0x1ef0>
   1572e:	48 8d 85 a0 f0 ff ff 	lea    -0xf60(%rbp),%rax
   15735:	48 8d 15 e4 9a 00 00 	lea    0x9ae4(%rip),%rdx        # 1f220 <g_3175+0x107c>
   1573c:	b9 48 00 00 00       	mov    $0x48,%ecx
   15741:	48 89 c7             	mov    %rax,%rdi
   15744:	48 89 d6             	mov    %rdx,%rsi
   15747:	f3 48 a5             	rep movsq %ds:(%rsi),%es:(%rdi)
   1574a:	c7 85 60 e8 ff ff 07 	movl   $0x7,-0x17a0(%rbp)
   15751:	00 00 00 
   15754:	48 c7 85 90 ea ff ff 	movq   $0x0,-0x1570(%rbp)
   1575b:	00 00 00 00 
   1575f:	66 c7 85 e0 e8 ff ff 	movw   $0x3,-0x1720(%rbp)
   15766:	03 00 
   15768:	c7 85 64 e8 ff ff ff 	movl   $0xffffffff,-0x179c(%rbp)
   1576f:	ff ff ff 
   15772:	48 8d 05 b9 e8 00 00 	lea    0xe8b9(%rip),%rax        # 24032 <g_16>
   15779:	48 89 85 98 ea ff ff 	mov    %rax,-0x1568(%rbp)
   15780:	c7 85 68 e8 ff ff 3a 	movl   $0x4a0d893a,-0x1798(%rbp)
   15787:	89 0d 4a 
   1578a:	c7 85 6c e8 ff ff 00 	movl   $0x0,-0x1794(%rbp)
   15791:	00 00 00 
   15794:	c7 85 70 e8 ff ff ff 	movl   $0xffffffff,-0x1790(%rbp)
   1579b:	ff ff ff 
   1579e:	48 8d 05 f3 2b 01 00 	lea    0x12bf3(%rip),%rax        # 28398 <g_147>
   157a5:	48 89 85 a0 ea ff ff 	mov    %rax,-0x1560(%rbp)
   157ac:	c7 85 b0 eb ff ff 00 	movl   $0x0,-0x1450(%rbp)
   157b3:	00 00 00 
   157b6:	c7 85 b4 eb ff ff 00 	movl   $0x0,-0x144c(%rbp)
   157bd:	00 00 00 
   157c0:	c7 85 b8 eb ff ff 00 	movl   $0x0,-0x1448(%rbp)
   157c7:	00 00 00 
   157ca:	c7 85 bc eb ff ff 00 	movl   $0x0,-0x1444(%rbp)
   157d1:	00 00 00 
   157d4:	c7 85 c0 eb ff ff 00 	movl   $0x0,-0x1440(%rbp)
   157db:	00 00 00 
   157de:	c7 85 c4 eb ff ff 00 	movl   $0x0,-0x143c(%rbp)
   157e5:	00 00 00 
   157e8:	48 c7 85 a8 ea ff ff 	movq   $0x0,-0x1558(%rbp)
   157ef:	00 00 00 00 
   157f3:	c7 85 04 e8 ff ff 00 	movl   $0x0,-0x17fc(%rbp)
   157fa:	00 00 00 
   157fd:	eb 1e                	jmp    1581d <func_57+0xe49>
   157ff:	8b 85 04 e8 ff ff    	mov    -0x17fc(%rbp),%eax
   15805:	48 98                	cltq   
   15807:	48 8d 15 32 47 01 00 	lea    0x14732(%rip),%rdx        # 29f40 <g_970>
   1580e:	48 89 94 c5 60 eb ff 	mov    %rdx,-0x14a0(%rbp,%rax,8)
   15815:	ff 
   15816:	83 85 04 e8 ff ff 01 	addl   $0x1,-0x17fc(%rbp)
   1581d:	83 bd 04 e8 ff ff 01 	cmpl   $0x1,-0x17fc(%rbp)
   15824:	7e d9                	jle    157ff <func_57+0xe2b>
   15826:	66 c7 05 49 eb 00 00 	movw   $0x0,0xeb49(%rip)        # 24378 <g_457>
   1582d:	00 00 
   1582f:	e9 1a 08 00 00       	jmpq   1604e <func_57+0x167a>
   15834:	66 c7 85 70 eb ff ff 	movw   $0x4,-0x1490(%rbp)
   1583b:	04 00 
   1583d:	66 c7 85 72 eb ff ff 	movw   $0x9,-0x148e(%rbp)
   15844:	09 00 
   15846:	66 c7 85 74 eb ff ff 	movw   $0x9,-0x148c(%rbp)
   1584d:	09 00 
   1584f:	66 c7 85 76 eb ff ff 	movw   $0x4,-0x148a(%rbp)
   15856:	04 00 
   15858:	66 c7 85 78 eb ff ff 	movw   $0x9,-0x1488(%rbp)
   1585f:	09 00 
   15861:	66 c7 85 7a eb ff ff 	movw   $0x9,-0x1486(%rbp)
   15868:	09 00 
   1586a:	66 c7 85 7c eb ff ff 	movw   $0x4,-0x1484(%rbp)
   15871:	04 00 
   15873:	66 c7 85 7e eb ff ff 	movw   $0x9,-0x1482(%rbp)
   1587a:	09 00 
   1587c:	66 c7 85 80 eb ff ff 	movw   $0x9,-0x1480(%rbp)
   15883:	09 00 
   15885:	c7 85 80 e8 ff ff 00 	movl   $0x0,-0x1780(%rbp)
   1588c:	00 00 00 
   1588f:	48 c7 85 c0 ec ff ff 	movq   $0x0,-0x1340(%rbp)
   15896:	00 00 00 00 
   1589a:	48 8d 85 70 eb ff ff 	lea    -0x1490(%rbp),%rax
   158a1:	48 83 c0 08          	add    $0x8,%rax
   158a5:	48 89 85 c8 ec ff ff 	mov    %rax,-0x1338(%rbp)
   158ac:	48 c7 85 d0 ec ff ff 	movq   $0x0,-0x1330(%rbp)
   158b3:	00 00 00 00 
   158b7:	48 c7 85 d8 ec ff ff 	movq   $0x0,-0x1328(%rbp)
   158be:	00 00 00 00 
   158c2:	48 8d 85 70 eb ff ff 	lea    -0x1490(%rbp),%rax
   158c9:	48 83 c0 08          	add    $0x8,%rax
   158cd:	48 89 85 e0 ec ff ff 	mov    %rax,-0x1320(%rbp)
   158d4:	48 c7 85 e8 ec ff ff 	movq   $0x0,-0x1318(%rbp)
   158db:	00 00 00 00 
   158df:	48 c7 85 f0 ec ff ff 	movq   $0x0,-0x1310(%rbp)
   158e6:	00 00 00 00 
   158ea:	48 8d 85 70 eb ff ff 	lea    -0x1490(%rbp),%rax
   158f1:	48 83 c0 08          	add    $0x8,%rax
   158f5:	48 89 85 f8 ec ff ff 	mov    %rax,-0x1308(%rbp)
   158fc:	48 c7 85 00 ed ff ff 	movq   $0x0,-0x1300(%rbp)
   15903:	00 00 00 00 
   15907:	48 c7 85 08 ed ff ff 	movq   $0x0,-0x12f8(%rbp)
   1590e:	00 00 00 00 
   15912:	48 8d 85 70 eb ff ff 	lea    -0x1490(%rbp),%rax
   15919:	48 83 c0 08          	add    $0x8,%rax
   1591d:	48 89 85 10 ed ff ff 	mov    %rax,-0x12f0(%rbp)
   15924:	48 c7 85 18 ed ff ff 	movq   $0x0,-0x12e8(%rbp)
   1592b:	00 00 00 00 
   1592f:	48 c7 85 00 f9 ff ff 	movq   $0x0,-0x700(%rbp)
   15936:	00 00 00 00 
   1593a:	48 8d 85 c0 ec ff ff 	lea    -0x1340(%rbp),%rax
   15941:	48 83 c0 40          	add    $0x40,%rax
   15945:	48 89 85 08 f9 ff ff 	mov    %rax,-0x6f8(%rbp)
   1594c:	48 8d 85 c0 ec ff ff 	lea    -0x1340(%rbp),%rax
   15953:	48 83 c0 40          	add    $0x40,%rax
   15957:	48 89 85 10 f9 ff ff 	mov    %rax,-0x6f0(%rbp)
   1595e:	48 8d 85 c0 ec ff ff 	lea    -0x1340(%rbp),%rax
   15965:	48 83 c0 40          	add    $0x40,%rax
   15969:	48 89 85 18 f9 ff ff 	mov    %rax,-0x6e8(%rbp)
   15970:	48 8d 85 c0 ec ff ff 	lea    -0x1340(%rbp),%rax
   15977:	48 83 c0 40          	add    $0x40,%rax
   1597b:	48 89 85 20 f9 ff ff 	mov    %rax,-0x6e0(%rbp)
   15982:	48 8d 85 c0 ec ff ff 	lea    -0x1340(%rbp),%rax
   15989:	48 83 c0 40          	add    $0x40,%rax
   1598d:	48 89 85 28 f9 ff ff 	mov    %rax,-0x6d8(%rbp)
   15994:	48 c7 85 30 f9 ff ff 	movq   $0x0,-0x6d0(%rbp)
   1599b:	00 00 00 00 
   1599f:	48 8d 85 c0 ec ff ff 	lea    -0x1340(%rbp),%rax
   159a6:	48 83 c0 40          	add    $0x40,%rax
   159aa:	48 89 85 38 f9 ff ff 	mov    %rax,-0x6c8(%rbp)
   159b1:	48 8d 85 c0 ec ff ff 	lea    -0x1340(%rbp),%rax
   159b8:	48 89 85 40 f9 ff ff 	mov    %rax,-0x6c0(%rbp)
   159bf:	48 8d 85 c0 ec ff ff 	lea    -0x1340(%rbp),%rax
   159c6:	48 83 c0 40          	add    $0x40,%rax
   159ca:	48 89 85 48 f9 ff ff 	mov    %rax,-0x6b8(%rbp)
   159d1:	48 8d 85 c0 ec ff ff 	lea    -0x1340(%rbp),%rax
   159d8:	48 83 c0 40          	add    $0x40,%rax
   159dc:	48 89 85 50 f9 ff ff 	mov    %rax,-0x6b0(%rbp)
   159e3:	48 8d 85 c0 ec ff ff 	lea    -0x1340(%rbp),%rax
   159ea:	48 83 c0 40          	add    $0x40,%rax
   159ee:	48 89 85 58 f9 ff ff 	mov    %rax,-0x6a8(%rbp)
   159f5:	48 8d 85 c0 ec ff ff 	lea    -0x1340(%rbp),%rax
   159fc:	48 83 c0 40          	add    $0x40,%rax
   15a00:	48 89 85 60 f9 ff ff 	mov    %rax,-0x6a0(%rbp)
   15a07:	48 8d 85 c0 ec ff ff 	lea    -0x1340(%rbp),%rax
   15a0e:	48 83 c0 30          	add    $0x30,%rax
   15a12:	48 89 85 68 f9 ff ff 	mov    %rax,-0x698(%rbp)
   15a19:	48 8d 85 c0 ec ff ff 	lea    -0x1340(%rbp),%rax
   15a20:	48 83 c0 10          	add    $0x10,%rax
   15a24:	48 89 85 70 f9 ff ff 	mov    %rax,-0x690(%rbp)
   15a2b:	48 8d 85 c0 ec ff ff 	lea    -0x1340(%rbp),%rax
   15a32:	48 83 c0 40          	add    $0x40,%rax
   15a36:	48 89 85 78 f9 ff ff 	mov    %rax,-0x688(%rbp)
   15a3d:	48 8d 85 c0 ec ff ff 	lea    -0x1340(%rbp),%rax
   15a44:	48 83 c0 40          	add    $0x40,%rax
   15a48:	48 89 85 80 f9 ff ff 	mov    %rax,-0x680(%rbp)
   15a4f:	48 8d 85 c0 ec ff ff 	lea    -0x1340(%rbp),%rax
   15a56:	48 83 c0 10          	add    $0x10,%rax
   15a5a:	48 89 85 88 f9 ff ff 	mov    %rax,-0x678(%rbp)
   15a61:	48 8d 85 c0 ec ff ff 	lea    -0x1340(%rbp),%rax
   15a68:	48 83 c0 30          	add    $0x30,%rax
   15a6c:	48 89 85 90 f9 ff ff 	mov    %rax,-0x670(%rbp)
   15a73:	48 8d 85 c0 ec ff ff 	lea    -0x1340(%rbp),%rax
   15a7a:	48 83 c0 40          	add    $0x40,%rax
   15a7e:	48 89 85 98 f9 ff ff 	mov    %rax,-0x668(%rbp)
   15a85:	48 8d 85 c0 ec ff ff 	lea    -0x1340(%rbp),%rax
   15a8c:	48 83 c0 40          	add    $0x40,%rax
   15a90:	48 89 85 a0 f9 ff ff 	mov    %rax,-0x660(%rbp)
   15a97:	48 8d 85 c0 ec ff ff 	lea    -0x1340(%rbp),%rax
   15a9e:	48 83 c0 40          	add    $0x40,%rax
   15aa2:	48 89 85 a8 f9 ff ff 	mov    %rax,-0x658(%rbp)
   15aa9:	48 8d 85 c0 ec ff ff 	lea    -0x1340(%rbp),%rax
   15ab0:	48 83 c0 08          	add    $0x8,%rax
   15ab4:	48 89 85 b0 f9 ff ff 	mov    %rax,-0x650(%rbp)
   15abb:	48 8d 85 c0 ec ff ff 	lea    -0x1340(%rbp),%rax
   15ac2:	48 83 c0 40          	add    $0x40,%rax
   15ac6:	48 89 85 b8 f9 ff ff 	mov    %rax,-0x648(%rbp)
   15acd:	48 8d 85 c0 ec ff ff 	lea    -0x1340(%rbp),%rax
   15ad4:	48 83 c0 10          	add    $0x10,%rax
   15ad8:	48 89 85 c0 f9 ff ff 	mov    %rax,-0x640(%rbp)
   15adf:	48 8d 85 c0 ec ff ff 	lea    -0x1340(%rbp),%rax
   15ae6:	48 83 c0 40          	add    $0x40,%rax
   15aea:	48 89 85 c8 f9 ff ff 	mov    %rax,-0x638(%rbp)
   15af1:	48 8d 85 c0 ec ff ff 	lea    -0x1340(%rbp),%rax
   15af8:	48 83 c0 40          	add    $0x40,%rax
   15afc:	48 89 85 d0 f9 ff ff 	mov    %rax,-0x630(%rbp)
   15b03:	48 8d 85 c0 ec ff ff 	lea    -0x1340(%rbp),%rax
   15b0a:	48 83 c0 10          	add    $0x10,%rax
   15b0e:	48 89 85 d8 f9 ff ff 	mov    %rax,-0x628(%rbp)
   15b15:	48 c7 85 e0 f9 ff ff 	movq   $0x0,-0x620(%rbp)
   15b1c:	00 00 00 00 
   15b20:	48 8d 85 c0 ec ff ff 	lea    -0x1340(%rbp),%rax
   15b27:	48 83 c0 10          	add    $0x10,%rax
   15b2b:	48 89 85 e8 f9 ff ff 	mov    %rax,-0x618(%rbp)
   15b32:	48 8d 85 c0 ec ff ff 	lea    -0x1340(%rbp),%rax
   15b39:	48 83 c0 40          	add    $0x40,%rax
   15b3d:	48 89 85 f0 f9 ff ff 	mov    %rax,-0x610(%rbp)
   15b44:	48 8d 85 c0 ec ff ff 	lea    -0x1340(%rbp),%rax
   15b4b:	48 83 c0 40          	add    $0x40,%rax
   15b4f:	48 89 85 f8 f9 ff ff 	mov    %rax,-0x608(%rbp)
   15b56:	48 8d 85 c0 ec ff ff 	lea    -0x1340(%rbp),%rax
   15b5d:	48 83 c0 40          	add    $0x40,%rax
   15b61:	48 89 85 00 fa ff ff 	mov    %rax,-0x600(%rbp)
   15b68:	48 8d 85 c0 ec ff ff 	lea    -0x1340(%rbp),%rax
   15b6f:	48 83 c0 40          	add    $0x40,%rax
   15b73:	48 89 85 08 fa ff ff 	mov    %rax,-0x5f8(%rbp)
   15b7a:	48 8d 85 c0 ec ff ff 	lea    -0x1340(%rbp),%rax
   15b81:	48 83 c0 40          	add    $0x40,%rax
   15b85:	48 89 85 10 fa ff ff 	mov    %rax,-0x5f0(%rbp)
   15b8c:	48 8d 85 c0 ec ff ff 	lea    -0x1340(%rbp),%rax
   15b93:	48 83 c0 40          	add    $0x40,%rax
   15b97:	48 89 85 18 fa ff ff 	mov    %rax,-0x5e8(%rbp)
   15b9e:	48 8d 85 c0 ec ff ff 	lea    -0x1340(%rbp),%rax
   15ba5:	48 83 c0 40          	add    $0x40,%rax
   15ba9:	48 89 85 20 fa ff ff 	mov    %rax,-0x5e0(%rbp)
   15bb0:	48 8d 85 c0 ec ff ff 	lea    -0x1340(%rbp),%rax
   15bb7:	48 83 c0 40          	add    $0x40,%rax
   15bbb:	48 89 85 28 fa ff ff 	mov    %rax,-0x5d8(%rbp)
   15bc2:	48 8d 85 c0 ec ff ff 	lea    -0x1340(%rbp),%rax
   15bc9:	48 83 c0 30          	add    $0x30,%rax
   15bcd:	48 89 85 30 fa ff ff 	mov    %rax,-0x5d0(%rbp)
   15bd4:	48 8d 85 c0 ec ff ff 	lea    -0x1340(%rbp),%rax
   15bdb:	48 83 c0 10          	add    $0x10,%rax
   15bdf:	48 89 85 38 fa ff ff 	mov    %rax,-0x5c8(%rbp)
   15be6:	48 8d 85 c0 ec ff ff 	lea    -0x1340(%rbp),%rax
   15bed:	48 83 c0 40          	add    $0x40,%rax
   15bf1:	48 89 85 40 fa ff ff 	mov    %rax,-0x5c0(%rbp)
   15bf8:	48 8d 85 c0 ec ff ff 	lea    -0x1340(%rbp),%rax
   15bff:	48 83 c0 40          	add    $0x40,%rax
   15c03:	48 89 85 48 fa ff ff 	mov    %rax,-0x5b8(%rbp)
   15c0a:	48 8d 85 c0 ec ff ff 	lea    -0x1340(%rbp),%rax
   15c11:	48 83 c0 40          	add    $0x40,%rax
   15c15:	48 89 85 50 fa ff ff 	mov    %rax,-0x5b0(%rbp)
   15c1c:	48 8d 85 c0 ec ff ff 	lea    -0x1340(%rbp),%rax
   15c23:	48 83 c0 30          	add    $0x30,%rax
   15c27:	48 89 85 58 fa ff ff 	mov    %rax,-0x5a8(%rbp)
   15c2e:	48 8d 85 c0 ec ff ff 	lea    -0x1340(%rbp),%rax
   15c35:	48 83 c0 10          	add    $0x10,%rax
   15c39:	48 89 85 60 fa ff ff 	mov    %rax,-0x5a0(%rbp)
   15c40:	48 8d 85 c0 ec ff ff 	lea    -0x1340(%rbp),%rax
   15c47:	48 83 c0 40          	add    $0x40,%rax
   15c4b:	48 89 85 68 fa ff ff 	mov    %rax,-0x598(%rbp)
   15c52:	48 8d 85 c0 ec ff ff 	lea    -0x1340(%rbp),%rax
   15c59:	48 83 c0 40          	add    $0x40,%rax
   15c5d:	48 89 85 70 fa ff ff 	mov    %rax,-0x590(%rbp)
   15c64:	48 8d 85 c0 ec ff ff 	lea    -0x1340(%rbp),%rax
   15c6b:	48 83 c0 10          	add    $0x10,%rax
   15c6f:	48 89 85 78 fa ff ff 	mov    %rax,-0x588(%rbp)
   15c76:	48 8d 85 c0 ec ff ff 	lea    -0x1340(%rbp),%rax
   15c7d:	48 83 c0 30          	add    $0x30,%rax
   15c81:	48 89 85 80 fa ff ff 	mov    %rax,-0x580(%rbp)
   15c88:	48 8d 85 c0 ec ff ff 	lea    -0x1340(%rbp),%rax
   15c8f:	48 83 c0 40          	add    $0x40,%rax
   15c93:	48 89 85 88 fa ff ff 	mov    %rax,-0x578(%rbp)
   15c9a:	48 8d 85 c0 ec ff ff 	lea    -0x1340(%rbp),%rax
   15ca1:	48 83 c0 40          	add    $0x40,%rax
   15ca5:	48 89 85 90 fa ff ff 	mov    %rax,-0x570(%rbp)
   15cac:	48 8d 85 c0 ec ff ff 	lea    -0x1340(%rbp),%rax
   15cb3:	48 83 c0 40          	add    $0x40,%rax
   15cb7:	48 89 85 98 fa ff ff 	mov    %rax,-0x568(%rbp)
   15cbe:	48 8d 85 c0 ec ff ff 	lea    -0x1340(%rbp),%rax
   15cc5:	48 83 c0 08          	add    $0x8,%rax
   15cc9:	48 89 85 a0 fa ff ff 	mov    %rax,-0x560(%rbp)
   15cd0:	48 8d 85 c0 ec ff ff 	lea    -0x1340(%rbp),%rax
   15cd7:	48 83 c0 40          	add    $0x40,%rax
   15cdb:	48 89 85 a8 fa ff ff 	mov    %rax,-0x558(%rbp)
   15ce2:	48 8d 85 c0 ec ff ff 	lea    -0x1340(%rbp),%rax
   15ce9:	48 83 c0 10          	add    $0x10,%rax
   15ced:	48 89 85 b0 fa ff ff 	mov    %rax,-0x550(%rbp)
   15cf4:	48 8d 85 c0 ec ff ff 	lea    -0x1340(%rbp),%rax
   15cfb:	48 83 c0 40          	add    $0x40,%rax
   15cff:	48 89 85 b8 fa ff ff 	mov    %rax,-0x548(%rbp)
   15d06:	48 8d 85 c0 ec ff ff 	lea    -0x1340(%rbp),%rax
   15d0d:	48 83 c0 40          	add    $0x40,%rax
   15d11:	48 89 85 c0 fa ff ff 	mov    %rax,-0x540(%rbp)
   15d18:	48 8d 85 c0 ec ff ff 	lea    -0x1340(%rbp),%rax
   15d1f:	48 83 c0 10          	add    $0x10,%rax
   15d23:	48 89 85 c8 fa ff ff 	mov    %rax,-0x538(%rbp)
   15d2a:	48 c7 85 d0 fa ff ff 	movq   $0x0,-0x530(%rbp)
   15d31:	00 00 00 00 
   15d35:	48 8d 85 c0 ec ff ff 	lea    -0x1340(%rbp),%rax
   15d3c:	48 83 c0 10          	add    $0x10,%rax
   15d40:	48 89 85 d8 fa ff ff 	mov    %rax,-0x528(%rbp)
   15d47:	48 8d 85 c0 ec ff ff 	lea    -0x1340(%rbp),%rax
   15d4e:	48 83 c0 40          	add    $0x40,%rax
   15d52:	48 89 85 e0 fa ff ff 	mov    %rax,-0x520(%rbp)
   15d59:	48 8d 85 c0 ec ff ff 	lea    -0x1340(%rbp),%rax
   15d60:	48 83 c0 40          	add    $0x40,%rax
   15d64:	48 89 85 e8 fa ff ff 	mov    %rax,-0x518(%rbp)
   15d6b:	48 8d 85 c0 ec ff ff 	lea    -0x1340(%rbp),%rax
   15d72:	48 83 c0 40          	add    $0x40,%rax
   15d76:	48 89 85 f0 fa ff ff 	mov    %rax,-0x510(%rbp)
   15d7d:	48 8d 85 c0 ec ff ff 	lea    -0x1340(%rbp),%rax
   15d84:	48 83 c0 40          	add    $0x40,%rax
   15d88:	48 89 85 f8 fa ff ff 	mov    %rax,-0x508(%rbp)
   15d8f:	48 8d 85 c0 ec ff ff 	lea    -0x1340(%rbp),%rax
   15d96:	48 83 c0 40          	add    $0x40,%rax
   15d9a:	48 89 85 00 fb ff ff 	mov    %rax,-0x500(%rbp)
   15da1:	48 8d 85 c0 ec ff ff 	lea    -0x1340(%rbp),%rax
   15da8:	48 83 c0 40          	add    $0x40,%rax
   15dac:	48 89 85 08 fb ff ff 	mov    %rax,-0x4f8(%rbp)
   15db3:	48 8d 85 c0 ec ff ff 	lea    -0x1340(%rbp),%rax
   15dba:	48 83 c0 40          	add    $0x40,%rax
   15dbe:	48 89 85 10 fb ff ff 	mov    %rax,-0x4f0(%rbp)
   15dc5:	48 8d 85 c0 ec ff ff 	lea    -0x1340(%rbp),%rax
   15dcc:	48 83 c0 40          	add    $0x40,%rax
   15dd0:	48 89 85 18 fb ff ff 	mov    %rax,-0x4e8(%rbp)
   15dd7:	48 8d 85 c0 ec ff ff 	lea    -0x1340(%rbp),%rax
   15dde:	48 83 c0 30          	add    $0x30,%rax
   15de2:	48 89 85 20 fb ff ff 	mov    %rax,-0x4e0(%rbp)
   15de9:	48 8d 85 c0 ec ff ff 	lea    -0x1340(%rbp),%rax
   15df0:	48 83 c0 10          	add    $0x10,%rax
   15df4:	48 89 85 28 fb ff ff 	mov    %rax,-0x4d8(%rbp)
   15dfb:	83 ad f8 e7 ff ff 01 	subl   $0x1,-0x1808(%rbp)
   15e02:	c7 05 3c e7 00 00 00 	movl   $0x0,0xe73c(%rip)        # 24548 <g_954>
   15e09:	00 00 00 
   15e0c:	e9 1d 02 00 00       	jmpq   1602e <func_57+0x165a>
   15e11:	48 8d 05 68 e2 00 00 	lea    0xe268(%rip),%rax        # 24080 <g_88>
   15e18:	48 89 85 e8 ea ff ff 	mov    %rax,-0x1518(%rbp)
   15e1f:	48 8d 05 6a 25 01 00 	lea    0x1256a(%rip),%rax        # 28390 <g_87>
   15e26:	48 89 85 f8 e8 ff ff 	mov    %rax,-0x1708(%rbp)
   15e2d:	48 8d 85 f8 e8 ff ff 	lea    -0x1708(%rbp),%rax
   15e34:	48 89 85 f0 ea ff ff 	mov    %rax,-0x1510(%rbp)
   15e3b:	c7 85 84 e8 ff ff 00 	movl   $0x0,-0x177c(%rbp)
   15e42:	00 00 00 
   15e45:	48 8b 05 74 27 01 00 	mov    0x12774(%rip),%rax        # 285c0 <g_991>
   15e4c:	48 8b 95 70 fa ff ff 	mov    -0x590(%rbp),%rdx
   15e53:	48 89 10             	mov    %rdx,(%rax)
   15e56:	66 c7 85 8c e7 ff ff 	movw   $0x5,-0x1874(%rbp)
   15e5d:	05 00 
   15e5f:	90                   	nop
   15e60:	0f b7 85 8c e7 ff ff 	movzwl -0x1874(%rbp),%eax
   15e67:	66 85 c0             	test   %ax,%ax
   15e6a:	0f 88 c5 00 00 00    	js     15f35 <func_57+0x1561>
   15e70:	48 b8 45 41 4c b1 e0 	movabs $0x275e69e0b14c4145,%rax
   15e77:	69 5e 27 
   15e7a:	48 89 85 f8 ea ff ff 	mov    %rax,-0x1508(%rbp)
   15e81:	48 8b 85 10 f1 ff ff 	mov    -0xef0(%rbp),%rax
   15e88:	89 c2                	mov    %eax,%edx
   15e8a:	0f b7 85 74 e7 ff ff 	movzwl -0x188c(%rbp),%eax
   15e91:	89 d6                	mov    %edx,%esi
   15e93:	89 c7                	mov    %eax,%edi
   15e95:	e8 65 48 ff ff       	callq  a6ff <safe_div_func_int32_t_s_s>
   15e9a:	66 83 bd 74 e7 ff ff 	cmpw   $0x0,-0x188c(%rbp)
   15ea1:	00 
   15ea2:	75 0b                	jne    15eaf <func_57+0x14db>
   15ea4:	0f b6 05 e0 e7 00 00 	movzbl 0xe7e0(%rip),%eax        # 2468b <g_977+0x6b>
   15eab:	84 c0                	test   %al,%al
   15ead:	74 07                	je     15eb6 <func_57+0x14e2>
   15eaf:	b8 01 00 00 00       	mov    $0x1,%eax
   15eb4:	eb 05                	jmp    15ebb <func_57+0x14e7>
   15eb6:	b8 00 00 00 00       	mov    $0x0,%eax
   15ebb:	48 98                	cltq   
   15ebd:	48 89 85 f8 ea ff ff 	mov    %rax,-0x1508(%rbp)
   15ec4:	48 8b 85 b0 f0 ff ff 	mov    -0xf50(%rbp),%rax
   15ecb:	48 33 85 f8 ea ff ff 	xor    -0x1508(%rbp),%rax
   15ed2:	48 89 c2             	mov    %rax,%rdx
   15ed5:	0f b7 85 74 e7 ff ff 	movzwl -0x188c(%rbp),%eax
   15edc:	48 89 d6             	mov    %rdx,%rsi
   15edf:	48 89 c7             	mov    %rax,%rdi
   15ee2:	e8 cd 4a ff ff       	callq  a9b4 <safe_mod_func_int64_t_s_s>
   15ee7:	8b 15 2b 40 01 00    	mov    0x1402b(%rip),%edx        # 29f18 <g_306>
   15eed:	89 d2                	mov    %edx,%edx
   15eef:	48 39 d0             	cmp    %rdx,%rax
   15ef2:	7c 08                	jl     15efc <func_57+0x1528>
   15ef4:	66 83 bd 74 e7 ff ff 	cmpw   $0x0,-0x188c(%rbp)
   15efb:	00 
   15efc:	b8 00 00 00 00       	mov    $0x0,%eax
   15f01:	0f b7 c0             	movzwl %ax,%eax
   15f04:	be 00 00 00 00       	mov    $0x0,%esi
   15f09:	89 c7                	mov    %eax,%edi
   15f0b:	e8 f6 4e ff ff       	callq  ae06 <safe_lshift_func_uint16_t_u_u>
   15f10:	0f b7 85 74 e7 ff ff 	movzwl -0x188c(%rbp),%eax
   15f17:	be 00 00 00 00       	mov    $0x0,%esi
   15f1c:	89 c7                	mov    %eax,%edi
   15f1e:	e8 e2 46 ff ff       	callq  a605 <safe_sub_func_int32_t_s_s>
   15f23:	09 85 80 e8 ff ff    	or     %eax,-0x1780(%rbp)
   15f29:	48 8b 85 e8 ea ff ff 	mov    -0x1518(%rbp),%rax
   15f30:	e9 3f 2e 00 00       	jmpq   18d74 <func_57+0x43a0>
   15f35:	48 8b 85 10 f1 ff ff 	mov    -0xef0(%rbp),%rax
   15f3c:	0f b6 d8             	movzbl %al,%ebx
   15f3f:	48 8b 85 58 eb ff ff 	mov    -0x14a8(%rbp),%rax
   15f46:	48 85 c0             	test   %rax,%rax
   15f49:	75 32                	jne    15f7d <func_57+0x15a9>
   15f4b:	0f b7 95 74 e7 ff ff 	movzwl -0x188c(%rbp),%edx
   15f52:	48 8b 85 f0 ea ff ff 	mov    -0x1510(%rbp),%rax
   15f59:	48 8d 0d 30 24 01 00 	lea    0x12430(%rip),%rcx        # 28390 <g_87>
   15f60:	48 89 08             	mov    %rcx,(%rax)
   15f63:	48 8b 85 50 ea ff ff 	mov    -0x15b0(%rbp),%rax
   15f6a:	c7 00 01 00 00 00    	movl   $0x1,(%rax)
   15f70:	48 8b 85 50 ea ff ff 	mov    -0x15b0(%rbp),%rax
   15f77:	8b 00                	mov    (%rax),%eax
   15f79:	21 d0                	and    %edx,%eax
   15f7b:	85 c0                	test   %eax,%eax
   15f7d:	8b 85 84 e8 ff ff    	mov    -0x177c(%rbp),%eax
   15f83:	89 85 60 e8 ff ff    	mov    %eax,-0x17a0(%rbp)
   15f89:	8b 85 60 e8 ff ff    	mov    -0x17a0(%rbp),%eax
   15f8f:	48 98                	cltq   
   15f91:	83 e0 04             	and    $0x4,%eax
   15f94:	48 85 c0             	test   %rax,%rax
   15f97:	75 3e                	jne    15fd7 <func_57+0x1603>
   15f99:	0f b7 85 e0 e8 ff ff 	movzwl -0x1720(%rbp),%eax
   15fa0:	0f b7 c0             	movzwl %ax,%eax
   15fa3:	89 c6                	mov    %eax,%esi
   15fa5:	bf 01 00 00 00       	mov    $0x1,%edi
   15faa:	e8 50 4d ff ff       	callq  acff <safe_add_func_uint16_t_u_u>
   15faf:	8b 05 c3 e1 00 00    	mov    0xe1c3(%rip),%eax        # 24178 <g_305>
   15fb5:	48 63 d0             	movslq %eax,%rdx
   15fb8:	48 8b 05 c9 e4 00 00 	mov    0xe4c9(%rip),%rax        # 24488 <g_651+0x8>
   15fbf:	48 39 c2             	cmp    %rax,%rdx
   15fc2:	0f 95 c0             	setne  %al
   15fc5:	0f b6 c0             	movzbl %al,%eax
   15fc8:	89 85 60 e8 ff ff    	mov    %eax,-0x17a0(%rbp)
   15fce:	83 bd 60 e8 ff ff 00 	cmpl   $0x0,-0x17a0(%rbp)
   15fd5:	74 07                	je     15fde <func_57+0x160a>
   15fd7:	b8 01 00 00 00       	mov    $0x1,%eax
   15fdc:	eb 05                	jmp    15fe3 <func_57+0x160f>
   15fde:	b8 00 00 00 00       	mov    $0x0,%eax
   15fe3:	0f b6 c0             	movzbl %al,%eax
   15fe6:	89 de                	mov    %ebx,%esi
   15fe8:	89 c7                	mov    %eax,%edi
   15fea:	e8 6b 4b ff ff       	callq  ab5a <safe_add_func_uint8_t_u_u>
   15fef:	0f b6 d0             	movzbl %al,%edx
   15ff2:	0f b7 85 74 e7 ff ff 	movzwl -0x188c(%rbp),%eax
   15ff9:	31 c2                	xor    %eax,%edx
   15ffb:	0f b6 05 2e e3 00 00 	movzbl 0xe32e(%rip),%eax        # 24330 <g_375>
   16002:	0f b6 c0             	movzbl %al,%eax
   16005:	39 c2                	cmp    %eax,%edx
   16007:	0f 9d c0             	setge  %al
   1600a:	0f b6 c0             	movzbl %al,%eax
   1600d:	31 85 fc e7 ff ff    	xor    %eax,-0x1804(%rbp)
   16013:	8b 85 fc e7 ff ff    	mov    -0x1804(%rbp),%eax
   16019:	89 85 64 e8 ff ff    	mov    %eax,-0x179c(%rbp)
   1601f:	8b 05 23 e5 00 00    	mov    0xe523(%rip),%eax        # 24548 <g_954>
   16025:	83 c0 01             	add    $0x1,%eax
   16028:	89 05 1a e5 00 00    	mov    %eax,0xe51a(%rip)        # 24548 <g_954>
   1602e:	8b 05 14 e5 00 00    	mov    0xe514(%rip),%eax        # 24548 <g_954>
   16034:	83 f8 05             	cmp    $0x5,%eax
   16037:	0f 86 d4 fd ff ff    	jbe    15e11 <func_57+0x143d>
   1603d:	0f b7 05 34 e3 00 00 	movzwl 0xe334(%rip),%eax        # 24378 <g_457>
   16044:	83 c0 01             	add    $0x1,%eax
   16047:	66 89 05 2a e3 00 00 	mov    %ax,0xe32a(%rip)        # 24378 <g_457>
   1604e:	0f b7 05 23 e3 00 00 	movzwl 0xe323(%rip),%eax        # 24378 <g_457>
   16055:	66 83 f8 05          	cmp    $0x5,%ax
   16059:	0f 86 d5 f7 ff ff    	jbe    15834 <func_57+0xe60>
   1605f:	48 b8 bb 00 08 19 a9 	movabs $0x819a9a9190800bb,%rax
   16066:	a9 19 08 
   16069:	48 89 85 c0 ec ff ff 	mov    %rax,-0x1340(%rbp)
   16070:	48 b8 e1 e1 56 fd 06 	movabs $0xbb00f706fd56e1e1,%rax
   16077:	f7 00 bb 
   1607a:	48 89 85 c8 ec ff ff 	mov    %rax,-0x1338(%rbp)
   16081:	48 b8 a9 00 01 00 39 	movabs $0xbba90139000100a9,%rax
   16088:	01 a9 bb 
   1608b:	48 89 85 d0 ec ff ff 	mov    %rax,-0x1330(%rbp)
   16092:	48 b8 00 01 09 fd 08 	movabs $0x8e10008fd090100,%rax
   16099:	00 e1 08 
   1609c:	48 89 85 d8 ec ff ff 	mov    %rax,-0x1328(%rbp)
   160a3:	48 b8 19 92 42 19 00 	movabs $0xe1bbda0019429219,%rax
   160aa:	da bb e1 
   160ad:	48 89 85 e0 ec ff ff 	mov    %rax,-0x1320(%rbp)
   160b4:	48 b8 01 f9 fd 08 39 	movabs $0xf9fd083908fdf901,%rax
   160bb:	08 fd f9 
   160be:	48 89 85 e8 ec ff ff 	mov    %rax,-0x1318(%rbp)
   160c5:	48 b8 92 76 00 7d 09 	movabs $0xfffd00097d007692,%rax
   160cc:	00 fd ff 
   160cf:	48 89 85 f0 ec ff ff 	mov    %rax,-0x1310(%rbp)
   160d6:	48 b8 e1 92 f7 7b 92 	movabs $0x39fdec927bf792e1,%rax
   160dd:	ec fd 39 
   160e0:	48 89 85 f8 ec ff ff 	mov    %rax,-0x1308(%rbp)
   160e7:	48 b8 ff 7b 00 00 7d 	movabs $0x2dfd017d00007bff,%rax
   160ee:	01 fd 2d 
   160f1:	48 89 85 00 ed ff ff 	mov    %rax,-0x1300(%rbp)
   160f8:	48 b8 7d 01 fd 2d 00 	movabs $0x1bb01002dfd017d,%rax
   160ff:	01 bb 01 
   16102:	48 89 85 08 ed ff ff 	mov    %rax,-0x12f8(%rbp)
   16109:	c7 85 74 e8 ff ff fa 	movl   $0xfffffffa,-0x178c(%rbp)
   16110:	ff ff ff 
   16113:	c7 85 78 e8 ff ff f9 	movl   $0xfffffff9,-0x1788(%rbp)
   1611a:	ff ff ff 
   1611d:	c6 05 a4 df 00 00 00 	movb   $0x0,0xdfa4(%rip)        # 240c8 <g_213>
   16124:	e9 7b 07 00 00       	jmpq   168a4 <func_57+0x1ed0>
   16129:	48 c7 85 b0 ea ff ff 	movq   $0x0,-0x1550(%rbp)
   16130:	00 00 00 00 
   16134:	48 c7 85 b8 ea ff ff 	movq   $0x0,-0x1548(%rbp)
   1613b:	00 00 00 00 
   1613f:	48 c7 85 c0 ea ff ff 	movq   $0x0,-0x1540(%rbp)
   16146:	00 00 00 00 
   1614a:	48 8d 85 c0 ec ff ff 	lea    -0x1340(%rbp),%rax
   16151:	48 83 c0 0d          	add    $0xd,%rax
   16155:	48 89 85 c8 ea ff ff 	mov    %rax,-0x1538(%rbp)
   1615c:	48 8d 05 cd e1 00 00 	lea    0xe1cd(%rip),%rax        # 24330 <g_375>
   16163:	48 89 85 00 f9 ff ff 	mov    %rax,-0x700(%rbp)
   1616a:	48 8d 85 a4 e7 ff ff 	lea    -0x185c(%rbp),%rax
   16171:	48 89 85 08 f9 ff ff 	mov    %rax,-0x6f8(%rbp)
   16178:	48 8d 05 b1 e1 00 00 	lea    0xe1b1(%rip),%rax        # 24330 <g_375>
   1617f:	48 89 85 10 f9 ff ff 	mov    %rax,-0x6f0(%rbp)
   16186:	48 8d 05 a3 e1 00 00 	lea    0xe1a3(%rip),%rax        # 24330 <g_375>
   1618d:	48 89 85 18 f9 ff ff 	mov    %rax,-0x6e8(%rbp)
   16194:	48 c7 85 20 f9 ff ff 	movq   $0x0,-0x6e0(%rbp)
   1619b:	00 00 00 00 
   1619f:	48 c7 85 28 f9 ff ff 	movq   $0x0,-0x6d8(%rbp)
   161a6:	00 00 00 00 
   161aa:	48 8d 05 7f e1 00 00 	lea    0xe17f(%rip),%rax        # 24330 <g_375>
   161b1:	48 89 85 30 f9 ff ff 	mov    %rax,-0x6d0(%rbp)
   161b8:	48 8d 05 71 e1 00 00 	lea    0xe171(%rip),%rax        # 24330 <g_375>
   161bf:	48 89 85 38 f9 ff ff 	mov    %rax,-0x6c8(%rbp)
   161c6:	48 8d 85 a4 e7 ff ff 	lea    -0x185c(%rbp),%rax
   161cd:	48 89 85 40 f9 ff ff 	mov    %rax,-0x6c0(%rbp)
   161d4:	48 8d 85 a4 e7 ff ff 	lea    -0x185c(%rbp),%rax
   161db:	48 89 85 48 f9 ff ff 	mov    %rax,-0x6b8(%rbp)
   161e2:	48 8d 85 a4 e7 ff ff 	lea    -0x185c(%rbp),%rax
   161e9:	48 89 85 50 f9 ff ff 	mov    %rax,-0x6b0(%rbp)
   161f0:	48 8d 05 39 e1 00 00 	lea    0xe139(%rip),%rax        # 24330 <g_375>
   161f7:	48 89 85 58 f9 ff ff 	mov    %rax,-0x6a8(%rbp)
   161fe:	48 8d 85 a4 e7 ff ff 	lea    -0x185c(%rbp),%rax
   16205:	48 89 85 60 f9 ff ff 	mov    %rax,-0x6a0(%rbp)
   1620c:	48 8d 05 1d e1 00 00 	lea    0xe11d(%rip),%rax        # 24330 <g_375>
   16213:	48 89 85 68 f9 ff ff 	mov    %rax,-0x698(%rbp)
   1621a:	48 8d 05 0f e1 00 00 	lea    0xe10f(%rip),%rax        # 24330 <g_375>
   16221:	48 89 85 70 f9 ff ff 	mov    %rax,-0x690(%rbp)
   16228:	48 8d 85 a4 e7 ff ff 	lea    -0x185c(%rbp),%rax
   1622f:	48 89 85 78 f9 ff ff 	mov    %rax,-0x688(%rbp)
   16236:	48 c7 85 80 f9 ff ff 	movq   $0x0,-0x680(%rbp)
   1623d:	00 00 00 00 
   16241:	48 8d 05 e8 e0 00 00 	lea    0xe0e8(%rip),%rax        # 24330 <g_375>
   16248:	48 89 85 88 f9 ff ff 	mov    %rax,-0x678(%rbp)
   1624f:	48 8d 05 da e0 00 00 	lea    0xe0da(%rip),%rax        # 24330 <g_375>
   16256:	48 89 85 90 f9 ff ff 	mov    %rax,-0x670(%rbp)
   1625d:	48 8d 05 cc e0 00 00 	lea    0xe0cc(%rip),%rax        # 24330 <g_375>
   16264:	48 89 85 98 f9 ff ff 	mov    %rax,-0x668(%rbp)
   1626b:	48 8d 05 be e0 00 00 	lea    0xe0be(%rip),%rax        # 24330 <g_375>
   16272:	48 89 85 a0 f9 ff ff 	mov    %rax,-0x660(%rbp)
   16279:	48 8d 85 a4 e7 ff ff 	lea    -0x185c(%rbp),%rax
   16280:	48 89 85 a8 f9 ff ff 	mov    %rax,-0x658(%rbp)
   16287:	48 8d 05 a2 e0 00 00 	lea    0xe0a2(%rip),%rax        # 24330 <g_375>
   1628e:	48 89 85 b0 f9 ff ff 	mov    %rax,-0x650(%rbp)
   16295:	48 8d 05 94 e0 00 00 	lea    0xe094(%rip),%rax        # 24330 <g_375>
   1629c:	48 89 85 b8 f9 ff ff 	mov    %rax,-0x648(%rbp)
   162a3:	48 c7 85 c0 f9 ff ff 	movq   $0x0,-0x640(%rbp)
   162aa:	00 00 00 00 
   162ae:	48 c7 85 c8 f9 ff ff 	movq   $0x0,-0x638(%rbp)
   162b5:	00 00 00 00 
   162b9:	48 8d 05 70 e0 00 00 	lea    0xe070(%rip),%rax        # 24330 <g_375>
   162c0:	48 89 85 d0 f9 ff ff 	mov    %rax,-0x630(%rbp)
   162c7:	48 8d 05 62 e0 00 00 	lea    0xe062(%rip),%rax        # 24330 <g_375>
   162ce:	48 89 85 d8 f9 ff ff 	mov    %rax,-0x628(%rbp)
   162d5:	48 8d 85 a4 e7 ff ff 	lea    -0x185c(%rbp),%rax
   162dc:	48 89 85 e0 f9 ff ff 	mov    %rax,-0x620(%rbp)
   162e3:	48 8d 85 a4 e7 ff ff 	lea    -0x185c(%rbp),%rax
   162ea:	48 89 85 e8 f9 ff ff 	mov    %rax,-0x618(%rbp)
   162f1:	48 8d 85 a4 e7 ff ff 	lea    -0x185c(%rbp),%rax
   162f8:	48 89 85 f0 f9 ff ff 	mov    %rax,-0x610(%rbp)
   162ff:	48 8d 05 2a e0 00 00 	lea    0xe02a(%rip),%rax        # 24330 <g_375>
   16306:	48 89 85 f8 f9 ff ff 	mov    %rax,-0x608(%rbp)
   1630d:	48 8d 85 a4 e7 ff ff 	lea    -0x185c(%rbp),%rax
   16314:	48 89 85 00 fa ff ff 	mov    %rax,-0x600(%rbp)
   1631b:	48 8d 05 0e e0 00 00 	lea    0xe00e(%rip),%rax        # 24330 <g_375>
   16322:	48 89 85 08 fa ff ff 	mov    %rax,-0x5f8(%rbp)
   16329:	48 8d 05 00 e0 00 00 	lea    0xe000(%rip),%rax        # 24330 <g_375>
   16330:	48 89 85 10 fa ff ff 	mov    %rax,-0x5f0(%rbp)
   16337:	48 8d 85 a4 e7 ff ff 	lea    -0x185c(%rbp),%rax
   1633e:	48 89 85 18 fa ff ff 	mov    %rax,-0x5e8(%rbp)
   16345:	48 c7 85 20 fa ff ff 	movq   $0x0,-0x5e0(%rbp)
   1634c:	00 00 00 00 
   16350:	48 8d 05 d9 df 00 00 	lea    0xdfd9(%rip),%rax        # 24330 <g_375>
   16357:	48 89 85 28 fa ff ff 	mov    %rax,-0x5d8(%rbp)
   1635e:	48 8d 05 cb df 00 00 	lea    0xdfcb(%rip),%rax        # 24330 <g_375>
   16365:	48 89 85 30 fa ff ff 	mov    %rax,-0x5d0(%rbp)
   1636c:	48 8d 05 bd df 00 00 	lea    0xdfbd(%rip),%rax        # 24330 <g_375>
   16373:	48 89 85 38 fa ff ff 	mov    %rax,-0x5c8(%rbp)
   1637a:	48 8d 05 af df 00 00 	lea    0xdfaf(%rip),%rax        # 24330 <g_375>
   16381:	48 89 85 40 fa ff ff 	mov    %rax,-0x5c0(%rbp)
   16388:	48 8d 85 a4 e7 ff ff 	lea    -0x185c(%rbp),%rax
   1638f:	48 89 85 48 fa ff ff 	mov    %rax,-0x5b8(%rbp)
   16396:	48 8d 05 93 df 00 00 	lea    0xdf93(%rip),%rax        # 24330 <g_375>
   1639d:	48 89 85 50 fa ff ff 	mov    %rax,-0x5b0(%rbp)
   163a4:	48 8d 05 85 df 00 00 	lea    0xdf85(%rip),%rax        # 24330 <g_375>
   163ab:	48 89 85 58 fa ff ff 	mov    %rax,-0x5a8(%rbp)
   163b2:	48 c7 85 60 fa ff ff 	movq   $0x0,-0x5a0(%rbp)
   163b9:	00 00 00 00 
   163bd:	48 c7 85 68 fa ff ff 	movq   $0x0,-0x598(%rbp)
   163c4:	00 00 00 00 
   163c8:	48 8d 05 61 df 00 00 	lea    0xdf61(%rip),%rax        # 24330 <g_375>
   163cf:	48 89 85 70 fa ff ff 	mov    %rax,-0x590(%rbp)
   163d6:	48 8d 05 53 df 00 00 	lea    0xdf53(%rip),%rax        # 24330 <g_375>
   163dd:	48 89 85 78 fa ff ff 	mov    %rax,-0x588(%rbp)
   163e4:	48 8d 85 a4 e7 ff ff 	lea    -0x185c(%rbp),%rax
   163eb:	48 89 85 80 fa ff ff 	mov    %rax,-0x580(%rbp)
   163f2:	48 8d 85 a4 e7 ff ff 	lea    -0x185c(%rbp),%rax
   163f9:	48 89 85 88 fa ff ff 	mov    %rax,-0x578(%rbp)
   16400:	48 8d 85 a4 e7 ff ff 	lea    -0x185c(%rbp),%rax
   16407:	48 89 85 90 fa ff ff 	mov    %rax,-0x570(%rbp)
   1640e:	48 8d 05 1b df 00 00 	lea    0xdf1b(%rip),%rax        # 24330 <g_375>
   16415:	48 89 85 98 fa ff ff 	mov    %rax,-0x568(%rbp)
   1641c:	48 8d 85 a4 e7 ff ff 	lea    -0x185c(%rbp),%rax
   16423:	48 89 85 a0 fa ff ff 	mov    %rax,-0x560(%rbp)
   1642a:	48 8d 05 ff de 00 00 	lea    0xdeff(%rip),%rax        # 24330 <g_375>
   16431:	48 89 85 a8 fa ff ff 	mov    %rax,-0x558(%rbp)
   16438:	48 8d 05 f1 de 00 00 	lea    0xdef1(%rip),%rax        # 24330 <g_375>
   1643f:	48 89 85 b0 fa ff ff 	mov    %rax,-0x550(%rbp)
   16446:	48 8d 85 a4 e7 ff ff 	lea    -0x185c(%rbp),%rax
   1644d:	48 89 85 b8 fa ff ff 	mov    %rax,-0x548(%rbp)
   16454:	48 c7 85 c0 fa ff ff 	movq   $0x0,-0x540(%rbp)
   1645b:	00 00 00 00 
   1645f:	48 8d 05 ca de 00 00 	lea    0xdeca(%rip),%rax        # 24330 <g_375>
   16466:	48 89 85 c8 fa ff ff 	mov    %rax,-0x538(%rbp)
   1646d:	48 8d 05 bc de 00 00 	lea    0xdebc(%rip),%rax        # 24330 <g_375>
   16474:	48 89 85 d0 fa ff ff 	mov    %rax,-0x530(%rbp)
   1647b:	48 8d 05 ae de 00 00 	lea    0xdeae(%rip),%rax        # 24330 <g_375>
   16482:	48 89 85 d8 fa ff ff 	mov    %rax,-0x528(%rbp)
   16489:	48 8d 05 a0 de 00 00 	lea    0xdea0(%rip),%rax        # 24330 <g_375>
   16490:	48 89 85 e0 fa ff ff 	mov    %rax,-0x520(%rbp)
   16497:	48 8d 85 a4 e7 ff ff 	lea    -0x185c(%rbp),%rax
   1649e:	48 89 85 e8 fa ff ff 	mov    %rax,-0x518(%rbp)
   164a5:	48 8d 05 84 de 00 00 	lea    0xde84(%rip),%rax        # 24330 <g_375>
   164ac:	48 89 85 f0 fa ff ff 	mov    %rax,-0x510(%rbp)
   164b3:	48 8d 05 76 de 00 00 	lea    0xde76(%rip),%rax        # 24330 <g_375>
   164ba:	48 89 85 f8 fa ff ff 	mov    %rax,-0x508(%rbp)
   164c1:	48 c7 85 00 fb ff ff 	movq   $0x0,-0x500(%rbp)
   164c8:	00 00 00 00 
   164cc:	48 c7 85 08 fb ff ff 	movq   $0x0,-0x4f8(%rbp)
   164d3:	00 00 00 00 
   164d7:	48 8d 05 52 de 00 00 	lea    0xde52(%rip),%rax        # 24330 <g_375>
   164de:	48 89 85 10 fb ff ff 	mov    %rax,-0x4f0(%rbp)
   164e5:	48 8d 05 44 de 00 00 	lea    0xde44(%rip),%rax        # 24330 <g_375>
   164ec:	48 89 85 18 fb ff ff 	mov    %rax,-0x4e8(%rbp)
   164f3:	48 8d 85 a4 e7 ff ff 	lea    -0x185c(%rbp),%rax
   164fa:	48 89 85 20 fb ff ff 	mov    %rax,-0x4e0(%rbp)
   16501:	48 8d 85 a4 e7 ff ff 	lea    -0x185c(%rbp),%rax
   16508:	48 89 85 28 fb ff ff 	mov    %rax,-0x4d8(%rbp)
   1650f:	48 8d 85 a4 e7 ff ff 	lea    -0x185c(%rbp),%rax
   16516:	48 89 85 30 fb ff ff 	mov    %rax,-0x4d0(%rbp)
   1651d:	48 8d 05 0c de 00 00 	lea    0xde0c(%rip),%rax        # 24330 <g_375>
   16524:	48 89 85 38 fb ff ff 	mov    %rax,-0x4c8(%rbp)
   1652b:	48 8d 85 a4 e7 ff ff 	lea    -0x185c(%rbp),%rax
   16532:	48 89 85 40 fb ff ff 	mov    %rax,-0x4c0(%rbp)
   16539:	48 8d 05 f0 dd 00 00 	lea    0xddf0(%rip),%rax        # 24330 <g_375>
   16540:	48 89 85 48 fb ff ff 	mov    %rax,-0x4b8(%rbp)
   16547:	48 8d 05 e2 dd 00 00 	lea    0xdde2(%rip),%rax        # 24330 <g_375>
   1654e:	48 89 85 50 fb ff ff 	mov    %rax,-0x4b0(%rbp)
   16555:	48 8d 85 a4 e7 ff ff 	lea    -0x185c(%rbp),%rax
   1655c:	48 89 85 58 fb ff ff 	mov    %rax,-0x4a8(%rbp)
   16563:	48 c7 85 60 fb ff ff 	movq   $0x0,-0x4a0(%rbp)
   1656a:	00 00 00 00 
   1656e:	48 8d 05 bb dd 00 00 	lea    0xddbb(%rip),%rax        # 24330 <g_375>
   16575:	48 89 85 68 fb ff ff 	mov    %rax,-0x498(%rbp)
   1657c:	48 8d 05 ad dd 00 00 	lea    0xddad(%rip),%rax        # 24330 <g_375>
   16583:	48 89 85 70 fb ff ff 	mov    %rax,-0x490(%rbp)
   1658a:	48 8d 05 9f dd 00 00 	lea    0xdd9f(%rip),%rax        # 24330 <g_375>
   16591:	48 89 85 78 fb ff ff 	mov    %rax,-0x488(%rbp)
   16598:	c6 05 91 dd 00 00 00 	movb   $0x0,0xdd91(%rip)        # 24330 <g_375>
   1659f:	e9 44 01 00 00       	jmpq   166e8 <func_57+0x1d14>
   165a4:	48 8d 85 a4 e7 ff ff 	lea    -0x185c(%rbp),%rax
   165ab:	48 89 85 d0 ea ff ff 	mov    %rax,-0x1530(%rbp)
   165b2:	48 c7 85 d8 ea ff ff 	movq   $0x0,-0x1528(%rbp)
   165b9:	00 00 00 00 
   165bd:	48 8d 85 a8 e8 ff ff 	lea    -0x1758(%rbp),%rax
   165c4:	48 89 85 e0 ea ff ff 	mov    %rax,-0x1520(%rbp)
   165cb:	c7 85 7c e8 ff ff 00 	movl   $0x0,-0x1784(%rbp)
   165d2:	00 00 00 
   165d5:	48 8b 05 8c 2e 01 00 	mov    0x12e8c(%rip),%rax        # 29468 <g_1292>
   165dc:	48 8b 95 b0 ea ff ff 	mov    -0x1550(%rbp),%rdx
   165e3:	48 89 10             	mov    %rdx,(%rax)
   165e6:	48 8b 85 d0 ea ff ff 	mov    -0x1530(%rbp),%rax
   165ed:	0f b6 00             	movzbl (%rax),%eax
   165f0:	8d 50 ff             	lea    -0x1(%rax),%edx
   165f3:	48 8b 85 d0 ea ff ff 	mov    -0x1530(%rbp),%rax
   165fa:	88 10                	mov    %dl,(%rax)
   165fc:	48 8b 85 d0 ea ff ff 	mov    -0x1530(%rbp),%rax
   16603:	0f b6 00             	movzbl (%rax),%eax
   16606:	84 c0                	test   %al,%al
   16608:	75 22                	jne    1662c <func_57+0x1c58>
   1660a:	48 8b 95 a8 e8 ff ff 	mov    -0x1758(%rbp),%rdx
   16611:	48 8b 85 e0 ea ff ff 	mov    -0x1520(%rbp),%rax
   16618:	48 89 10             	mov    %rdx,(%rax)
   1661b:	48 8b 85 e0 ea ff ff 	mov    -0x1520(%rbp),%rax
   16622:	48 8b 00             	mov    (%rax),%rax
   16625:	48 39 85 a8 ea ff ff 	cmp    %rax,-0x1558(%rbp)
   1662c:	b8 03 00 00 00       	mov    $0x3,%eax
   16631:	66 33 85 74 e7 ff ff 	xor    -0x188c(%rbp),%ax
   16638:	0f b7 c0             	movzwl %ax,%eax
   1663b:	be 0d 00 00 00       	mov    $0xd,%esi
   16640:	89 c7                	mov    %eax,%edi
   16642:	e8 01 48 ff ff       	callq  ae48 <safe_rshift_func_uint16_t_u_s>
   16647:	0f b7 05 4a da 00 00 	movzwl 0xda4a(%rip),%eax        # 24098 <g_96>
   1664e:	89 c2                	mov    %eax,%edx
   16650:	8b 05 c6 e0 00 00    	mov    0xe0c6(%rip),%eax        # 2471c <g_1127>
   16656:	09 d0                	or     %edx,%eax
   16658:	0f be d0             	movsbl %al,%edx
   1665b:	0f b7 85 74 e7 ff ff 	movzwl -0x188c(%rbp),%eax
   16662:	0f be c0             	movsbl %al,%eax
   16665:	89 d6                	mov    %edx,%esi
   16667:	89 c7                	mov    %eax,%edi
   16669:	e8 a4 3b ff ff       	callq  a212 <safe_mul_func_int8_t_s_s>
   1666e:	0f b6 85 fb ec ff ff 	movzbl -0x1305(%rbp),%eax
   16675:	0f b6 d0             	movzbl %al,%edx
   16678:	48 8b 85 68 e7 ff ff 	mov    -0x1898(%rbp),%rax
   1667f:	0f b7 00             	movzwl (%rax),%eax
   16682:	0f b7 c0             	movzwl %ax,%eax
   16685:	39 c2                	cmp    %eax,%edx
   16687:	0f 9c c0             	setl   %al
   1668a:	0f b6 c0             	movzbl %al,%eax
   1668d:	be dd d3 00 00       	mov    $0xd3dd,%esi
   16692:	89 c7                	mov    %eax,%edi
   16694:	e8 c3 46 ff ff       	callq  ad5c <safe_mod_func_uint16_t_u_u>
   16699:	0f be d0             	movsbl %al,%edx
   1669c:	48 83 bd b8 ea ff ff 	cmpq   $0x0,-0x1548(%rbp)
   166a3:	00 
   166a4:	0f 94 c0             	sete   %al
   166a7:	0f b6 c0             	movzbl %al,%eax
   166aa:	89 d6                	mov    %edx,%esi
   166ac:	89 c7                	mov    %eax,%edi
   166ae:	e8 3f 3b ff ff       	callq  a1f2 <safe_sub_func_int8_t_s_s>
   166b3:	0f b6 c0             	movzbl %al,%eax
   166b6:	be bd 00 00 00       	mov    $0xbd,%esi
   166bb:	89 c7                	mov    %eax,%edi
   166bd:	e8 98 44 ff ff       	callq  ab5a <safe_add_func_uint8_t_u_u>
   166c2:	0f b6 c0             	movzbl %al,%eax
   166c5:	66 39 85 74 e7 ff ff 	cmp    %ax,-0x188c(%rbp)
   166cc:	0f 92 c0             	setb   %al
   166cf:	0f b6 c0             	movzbl %al,%eax
   166d2:	89 85 fc e7 ff ff    	mov    %eax,-0x1804(%rbp)
   166d8:	0f b6 05 51 dc 00 00 	movzbl 0xdc51(%rip),%eax        # 24330 <g_375>
   166df:	83 c0 01             	add    $0x1,%eax
   166e2:	88 05 48 dc 00 00    	mov    %al,0xdc48(%rip)        # 24330 <g_375>
   166e8:	0f b6 05 41 dc 00 00 	movzbl 0xdc41(%rip),%eax        # 24330 <g_375>
   166ef:	3c 05                	cmp    $0x5,%al
   166f1:	0f 86 ad fe ff ff    	jbe    165a4 <func_57+0x1bd0>
   166f7:	0f b7 9d 74 e7 ff ff 	movzwl -0x188c(%rbp),%ebx
   166fe:	0f b7 85 74 e7 ff ff 	movzwl -0x188c(%rbp),%eax
   16705:	44 0f bf e0          	movswl %ax,%r12d
   16709:	0f b6 05 22 d9 00 00 	movzbl 0xd922(%rip),%eax        # 24032 <g_16>
   16710:	44 0f be e8          	movsbl %al,%r13d
   16714:	44 0f b7 b5 74 e7 ff 	movzwl -0x188c(%rbp),%r14d
   1671b:	ff 
   1671c:	48 8b 85 68 e7 ff ff 	mov    -0x1898(%rbp),%rax
   16723:	0f b7 00             	movzwl (%rax),%eax
   16726:	0f b7 c0             	movzwl %ax,%eax
   16729:	be 06 00 00 00       	mov    $0x6,%esi
   1672e:	89 c7                	mov    %eax,%edi
   16730:	e8 d1 46 ff ff       	callq  ae06 <safe_lshift_func_uint16_t_u_u>
   16735:	0f b7 c0             	movzwl %ax,%eax
   16738:	44 89 f6             	mov    %r14d,%esi
   1673b:	89 c7                	mov    %eax,%edi
   1673d:	e8 8e 47 ff ff       	callq  aed0 <safe_sub_func_uint32_t_u_u>
   16742:	48 83 bd c0 ea ff ff 	cmpq   $0x0,-0x1540(%rbp)
   16749:	00 
   1674a:	0f 95 c2             	setne  %dl
   1674d:	0f b6 d2             	movzbl %dl,%edx
   16750:	39 d0                	cmp    %edx,%eax
   16752:	0f 95 c0             	setne  %al
   16755:	0f b6 d0             	movzbl %al,%edx
   16758:	0f b7 85 74 e7 ff ff 	movzwl -0x188c(%rbp),%eax
   1675f:	39 c2                	cmp    %eax,%edx
   16761:	0f 8d d8 00 00 00    	jge    1683f <func_57+0x1e6b>
   16767:	44 0f b7 b5 74 e7 ff 	movzwl -0x188c(%rbp),%r14d
   1676e:	ff 
   1676f:	0f b6 05 a3 df 00 00 	movzbl 0xdfa3(%rip),%eax        # 24719 <g_977+0xf9>
   16776:	44 0f b6 f8          	movzbl %al,%r15d
   1677a:	48 8b 05 47 1e 01 00 	mov    0x11e47(%rip),%rax        # 285c8 <g_1097>
   16781:	0f b6 00             	movzbl (%rax),%eax
   16784:	0f b6 c0             	movzbl %al,%eax
   16787:	89 85 64 e7 ff ff    	mov    %eax,-0x189c(%rbp)
   1678d:	8b 85 f4 e7 ff ff    	mov    -0x180c(%rbp),%eax
   16793:	0f b7 d0             	movzwl %ax,%edx
   16796:	8b 85 6c e8 ff ff    	mov    -0x1794(%rbp),%eax
   1679c:	0f b7 c0             	movzwl %ax,%eax
   1679f:	89 d6                	mov    %edx,%esi
   167a1:	89 c7                	mov    %eax,%edi
   167a3:	e8 95 45 ff ff       	callq  ad3d <safe_mul_func_uint16_t_u_u>
   167a8:	0f b7 d0             	movzwl %ax,%edx
   167ab:	48 8b 85 b0 e8 ff ff 	mov    -0x1750(%rbp),%rax
   167b2:	48 39 c2             	cmp    %rax,%rdx
   167b5:	0f 92 c0             	setb   %al
   167b8:	89 c2                	mov    %eax,%edx
   167ba:	48 8b 85 c8 ea ff ff 	mov    -0x1538(%rbp),%rax
   167c1:	88 10                	mov    %dl,(%rax)
   167c3:	48 8b 85 c8 ea ff ff 	mov    -0x1538(%rbp),%rax
   167ca:	0f b6 00             	movzbl (%rax),%eax
   167cd:	0f b6 c0             	movzbl %al,%eax
   167d0:	8b b5 64 e7 ff ff    	mov    -0x189c(%rbp),%esi
   167d6:	89 c7                	mov    %eax,%edi
   167d8:	e8 b6 43 ff ff       	callq  ab93 <safe_mul_func_uint8_t_u_u>
   167dd:	0f b6 c0             	movzbl %al,%eax
   167e0:	be 05 00 00 00       	mov    $0x5,%esi
   167e5:	89 c7                	mov    %eax,%edi
   167e7:	e8 60 44 ff ff       	callq  ac4c <safe_lshift_func_uint8_t_u_u>
   167ec:	8b 05 4e df 00 00    	mov    0xdf4e(%rip),%eax        # 24740 <g_1320>
   167f2:	c7 85 74 e8 ff ff 00 	movl   $0x0,-0x178c(%rbp)
   167f9:	00 00 00 
   167fc:	8b 85 74 e8 ff ff    	mov    -0x178c(%rbp),%eax
   16802:	0f b6 c0             	movzbl %al,%eax
   16805:	44 89 fe             	mov    %r15d,%esi
   16808:	89 c7                	mov    %eax,%edi
   1680a:	e8 84 43 ff ff       	callq  ab93 <safe_mul_func_uint8_t_u_u>
   1680f:	84 c0                	test   %al,%al
   16811:	0f 94 c0             	sete   %al
   16814:	89 c2                	mov    %eax,%edx
   16816:	0f b7 05 7b d8 00 00 	movzwl 0xd87b(%rip),%eax        # 24098 <g_96>
   1681d:	31 d0                	xor    %edx,%eax
   1681f:	0f b6 c0             	movzbl %al,%eax
   16822:	be ef 00 00 00       	mov    $0xef,%esi
   16827:	89 c7                	mov    %eax,%edi
   16829:	e8 ad 43 ff ff       	callq  abdb <safe_div_func_uint8_t_u_u>
   1682e:	0f b6 c0             	movzbl %al,%eax
   16831:	44 89 f6             	mov    %r14d,%esi
   16834:	89 c7                	mov    %eax,%edi
   16836:	e8 91 3e ff ff       	callq  a6cc <safe_mod_func_int32_t_s_s>
   1683b:	85 c0                	test   %eax,%eax
   1683d:	74 07                	je     16846 <func_57+0x1e72>
   1683f:	b8 01 00 00 00       	mov    $0x1,%eax
   16844:	eb 05                	jmp    1684b <func_57+0x1e77>
   16846:	b8 00 00 00 00       	mov    $0x0,%eax
   1684b:	3d c4 ff 29 6a       	cmp    $0x6a29ffc4,%eax
   16850:	0f 9e c0             	setle  %al
   16853:	0f b6 c0             	movzbl %al,%eax
   16856:	44 89 ee             	mov    %r13d,%esi
   16859:	89 c7                	mov    %eax,%edi
   1685b:	e8 ca 3c ff ff       	callq  a52a <safe_rshift_func_int16_t_s_s>
   16860:	44 89 e6             	mov    %r12d,%esi
   16863:	bf 00 00 00 00       	mov    $0x0,%edi
   16868:	e8 e8 3b ff ff       	callq  a455 <safe_div_func_int16_t_s_s>
   1686d:	98                   	cwtl   
   1686e:	23 85 78 e8 ff ff    	and    -0x1788(%rbp),%eax
   16874:	89 de                	mov    %ebx,%esi
   16876:	89 c7                	mov    %eax,%edi
   16878:	e8 4f 3e ff ff       	callq  a6cc <safe_mod_func_int32_t_s_s>
   1687d:	48 c7 c0 f6 ff ff ff 	mov    $0xfffffffffffffff6,%rax
   16884:	89 c2                	mov    %eax,%edx
   16886:	8b 05 20 d8 00 00    	mov    0xd820(%rip),%eax        # 240ac <g_188>
   1688c:	31 d0                	xor    %edx,%eax
   1688e:	89 05 18 d8 00 00    	mov    %eax,0xd818(%rip)        # 240ac <g_188>
   16894:	0f b6 05 2d d8 00 00 	movzbl 0xd82d(%rip),%eax        # 240c8 <g_213>
   1689b:	83 c0 01             	add    $0x1,%eax
   1689e:	88 05 24 d8 00 00    	mov    %al,0xd824(%rip)        # 240c8 <g_213>
   168a4:	0f b6 05 1d d8 00 00 	movzbl 0xd81d(%rip),%eax        # 240c8 <g_213>
   168ab:	3c 05                	cmp    $0x5,%al
   168ad:	0f 86 76 f8 ff ff    	jbe    16129 <func_57+0x1755>
   168b3:	0f b7 05 56 36 01 00 	movzwl 0x13656(%rip),%eax        # 29f10 <g_144>
   168ba:	83 c0 01             	add    $0x1,%eax
   168bd:	66 89 05 4c 36 01 00 	mov    %ax,0x1364c(%rip)        # 29f10 <g_144>
   168c4:	0f b7 05 45 36 01 00 	movzwl 0x13645(%rip),%eax        # 29f10 <g_144>
   168cb:	66 83 f8 05          	cmp    $0x5,%ax
   168cf:	0f 8e 59 ee ff ff    	jle    1572e <func_57+0xd5a>
   168d5:	0f b6 05 56 d7 00 00 	movzbl 0xd756(%rip),%eax        # 24032 <g_16>
   168dc:	83 e8 01             	sub    $0x1,%eax
   168df:	88 05 4d d7 00 00    	mov    %al,0xd74d(%rip)        # 24032 <g_16>
   168e5:	0f b6 05 46 d7 00 00 	movzbl 0xd746(%rip),%eax        # 24032 <g_16>
   168ec:	84 c0                	test   %al,%al
   168ee:	0f 89 d4 e6 ff ff    	jns    14fc8 <func_57+0x5f4>
   168f4:	90                   	nop
   168f5:	f3 0f 1e fa          	endbr64 
   168f9:	c7 85 d4 e7 ff ff 0c 	movl   $0xc,-0x182c(%rbp)
   16900:	00 00 00 
   16903:	e9 07 0c 00 00       	jmpq   1750f <func_57+0x2b3b>
   16908:	48 8d 85 d0 eb ff ff 	lea    -0x1430(%rbp),%rax
   1690f:	48 83 c0 08          	add    $0x8,%rax
   16913:	48 89 85 c0 e9 ff ff 	mov    %rax,-0x1640(%rbp)
   1691a:	48 8d 05 bf 1a 01 00 	lea    0x11abf(%rip),%rax        # 283e0 <g_421>
   16921:	48 89 85 c8 e9 ff ff 	mov    %rax,-0x1638(%rbp)
   16928:	48 8d 05 49 d8 00 00 	lea    0xd849(%rip),%rax        # 24178 <g_305>
   1692f:	48 89 85 d0 e9 ff ff 	mov    %rax,-0x1630(%rbp)
   16936:	c7 85 08 e8 ff ff b5 	movl   $0xf3712bb5,-0x17f8(%rbp)
   1693d:	2b 71 f3 
   16940:	c7 85 2c e8 ff ff fb 	movl   $0xfffffffb,-0x17d4(%rbp)
   16947:	ff ff ff 
   1694a:	c7 85 a4 e7 ff ff 12 	movl   $0x1df3b12,-0x185c(%rbp)
   16951:	3b df 01 
   16954:	c7 85 30 e8 ff ff fc 	movl   $0xfffffffc,-0x17d0(%rbp)
   1695b:	ff ff ff 
   1695e:	c7 85 34 e8 ff ff 08 	movl   $0x8,-0x17cc(%rbp)
   16965:	00 00 00 
   16968:	c7 85 38 e8 ff ff 4d 	movl   $0xbfcaeb4d,-0x17c8(%rbp)
   1696f:	eb ca bf 
   16972:	c7 85 00 f9 ff ff da 	movl   $0x20a450da,-0x700(%rbp)
   16979:	50 a4 20 
   1697c:	c7 85 04 f9 ff ff 09 	movl   $0x9,-0x6fc(%rbp)
   16983:	00 00 00 
   16986:	c7 85 08 f9 ff ff da 	movl   $0x20a450da,-0x6f8(%rbp)
   1698d:	50 a4 20 
   16990:	c7 85 0c f9 ff ff 28 	movl   $0x3dd0de28,-0x6f4(%rbp)
   16997:	de d0 3d 
   1699a:	c7 85 10 f9 ff ff 28 	movl   $0x3dd0de28,-0x6f0(%rbp)
   169a1:	de d0 3d 
   169a4:	c7 85 14 f9 ff ff 77 	movl   $0x9419a277,-0x6ec(%rbp)
   169ab:	a2 19 94 
   169ae:	c7 85 18 f9 ff ff d9 	movl   $0x65fa89d9,-0x6e8(%rbp)
   169b5:	89 fa 65 
   169b8:	c7 85 1c f9 ff ff fb 	movl   $0xfffffffb,-0x6e4(%rbp)
   169bf:	ff ff ff 
   169c2:	c7 85 20 f9 ff ff 77 	movl   $0x9419a277,-0x6e0(%rbp)
   169c9:	a2 19 94 
   169cc:	c7 85 24 f9 ff ff 77 	movl   $0x9419a277,-0x6dc(%rbp)
   169d3:	a2 19 94 
   169d6:	c7 85 28 f9 ff ff 61 	movl   $0x25efaa61,-0x6d8(%rbp)
   169dd:	aa ef 25 
   169e0:	c7 85 2c f9 ff ff 23 	movl   $0xb72cf023,-0x6d4(%rbp)
   169e7:	f0 2c b7 
   169ea:	c7 85 30 f9 ff ff 61 	movl   $0x25efaa61,-0x6d0(%rbp)
   169f1:	aa ef 25 
   169f4:	c7 85 34 f9 ff ff da 	movl   $0x20a450da,-0x6cc(%rbp)
   169fb:	50 a4 20 
   169fe:	c7 85 38 f9 ff ff da 	movl   $0x20a450da,-0x6c8(%rbp)
   16a05:	50 a4 20 
   16a08:	c7 85 3c f9 ff ff fb 	movl   $0xfffffffb,-0x6c4(%rbp)
   16a0f:	ff ff ff 
   16a12:	c7 85 40 f9 ff ff ed 	movl   $0x1da05ed,-0x6c0(%rbp)
   16a19:	05 da 01 
   16a1c:	c7 85 44 f9 ff ff fb 	movl   $0xfffffffb,-0x6bc(%rbp)
   16a23:	ff ff ff 
   16a26:	c7 85 48 f9 ff ff 77 	movl   $0x9419a277,-0x6b8(%rbp)
   16a2d:	a2 19 94 
   16a30:	c7 85 4c f9 ff ff 77 	movl   $0x9419a277,-0x6b4(%rbp)
   16a37:	a2 19 94 
   16a3a:	c7 85 50 f9 ff ff 61 	movl   $0x25efaa61,-0x6b0(%rbp)
   16a41:	aa ef 25 
   16a44:	c7 85 54 f9 ff ff 23 	movl   $0xb72cf023,-0x6ac(%rbp)
   16a4b:	f0 2c b7 
   16a4e:	c7 85 58 f9 ff ff 61 	movl   $0x25efaa61,-0x6a8(%rbp)
   16a55:	aa ef 25 
   16a58:	c7 85 5c f9 ff ff da 	movl   $0x20a450da,-0x6a4(%rbp)
   16a5f:	50 a4 20 
   16a62:	c7 85 60 f9 ff ff da 	movl   $0x20a450da,-0x6a0(%rbp)
   16a69:	50 a4 20 
   16a6c:	c7 85 64 f9 ff ff fb 	movl   $0xfffffffb,-0x69c(%rbp)
   16a73:	ff ff ff 
   16a76:	c7 85 68 f9 ff ff ed 	movl   $0x1da05ed,-0x698(%rbp)
   16a7d:	05 da 01 
   16a80:	c7 85 6c f9 ff ff fb 	movl   $0xfffffffb,-0x694(%rbp)
   16a87:	ff ff ff 
   16a8a:	c7 85 70 f9 ff ff 77 	movl   $0x9419a277,-0x690(%rbp)
   16a91:	a2 19 94 
   16a94:	c7 85 74 f9 ff ff 77 	movl   $0x9419a277,-0x68c(%rbp)
   16a9b:	a2 19 94 
   16a9e:	c7 85 78 f9 ff ff 61 	movl   $0x25efaa61,-0x688(%rbp)
   16aa5:	aa ef 25 
   16aa8:	c7 85 7c f9 ff ff 23 	movl   $0xb72cf023,-0x684(%rbp)
   16aaf:	f0 2c b7 
   16ab2:	c7 85 80 f9 ff ff 61 	movl   $0x25efaa61,-0x680(%rbp)
   16ab9:	aa ef 25 
   16abc:	c7 85 84 f9 ff ff da 	movl   $0x20a450da,-0x67c(%rbp)
   16ac3:	50 a4 20 
   16ac6:	c7 85 88 f9 ff ff da 	movl   $0x20a450da,-0x678(%rbp)
   16acd:	50 a4 20 
   16ad0:	c7 85 8c f9 ff ff fb 	movl   $0xfffffffb,-0x674(%rbp)
   16ad7:	ff ff ff 
   16ada:	c7 85 90 f9 ff ff ed 	movl   $0x1da05ed,-0x670(%rbp)
   16ae1:	05 da 01 
   16ae4:	c7 85 94 f9 ff ff fb 	movl   $0xfffffffb,-0x66c(%rbp)
   16aeb:	ff ff ff 
   16aee:	c7 85 98 f9 ff ff 77 	movl   $0x9419a277,-0x668(%rbp)
   16af5:	a2 19 94 
   16af8:	c7 85 9c f9 ff ff 77 	movl   $0x9419a277,-0x664(%rbp)
   16aff:	a2 19 94 
   16b02:	c7 85 a0 f9 ff ff 61 	movl   $0x25efaa61,-0x660(%rbp)
   16b09:	aa ef 25 
   16b0c:	c7 85 a4 f9 ff ff 23 	movl   $0xb72cf023,-0x65c(%rbp)
   16b13:	f0 2c b7 
   16b16:	c7 85 a8 f9 ff ff 61 	movl   $0x25efaa61,-0x658(%rbp)
   16b1d:	aa ef 25 
   16b20:	c7 85 ac f9 ff ff da 	movl   $0x20a450da,-0x654(%rbp)
   16b27:	50 a4 20 
   16b2a:	c7 85 b0 f9 ff ff da 	movl   $0x20a450da,-0x650(%rbp)
   16b31:	50 a4 20 
   16b34:	c6 85 8b e7 ff ff 00 	movb   $0x0,-0x1875(%rbp)
   16b3b:	48 8d 05 16 34 01 00 	lea    0x13416(%rip),%rax        # 29f58 <g_1198+0x8>
   16b42:	48 89 85 d8 e9 ff ff 	mov    %rax,-0x1628(%rbp)
   16b49:	48 8d 85 b8 e8 ff ff 	lea    -0x1748(%rbp),%rax
   16b50:	48 89 85 e0 e9 ff ff 	mov    %rax,-0x1620(%rbp)
   16b57:	48 8d 85 8e e7 ff ff 	lea    -0x1872(%rbp),%rax
   16b5e:	48 89 85 e8 e9 ff ff 	mov    %rax,-0x1618(%rbp)
   16b65:	48 8d 85 c0 e8 ff ff 	lea    -0x1740(%rbp),%rax
   16b6c:	48 89 85 e0 e8 ff ff 	mov    %rax,-0x1720(%rbp)
   16b73:	48 8d 85 d0 e8 ff ff 	lea    -0x1730(%rbp),%rax
   16b7a:	48 89 85 f0 e9 ff ff 	mov    %rax,-0x1610(%rbp)
   16b81:	48 c7 85 e8 e8 ff ff 	movq   $0x0,-0x1718(%rbp)
   16b88:	00 00 00 00 
   16b8c:	48 8d 05 75 d5 00 00 	lea    0xd575(%rip),%rax        # 24108 <g_261>
   16b93:	48 89 85 a0 ed ff ff 	mov    %rax,-0x1260(%rbp)
   16b9a:	48 8d 85 b0 e8 ff ff 	lea    -0x1750(%rbp),%rax
   16ba1:	48 89 85 a8 ed ff ff 	mov    %rax,-0x1258(%rbp)
   16ba8:	48 8d 85 b0 e8 ff ff 	lea    -0x1750(%rbp),%rax
   16baf:	48 89 85 b0 ed ff ff 	mov    %rax,-0x1250(%rbp)
   16bb6:	48 8d 05 4b d5 00 00 	lea    0xd54b(%rip),%rax        # 24108 <g_261>
   16bbd:	48 89 85 b8 ed ff ff 	mov    %rax,-0x1248(%rbp)
   16bc4:	48 8d 85 b0 e8 ff ff 	lea    -0x1750(%rbp),%rax
   16bcb:	48 89 85 c0 ed ff ff 	mov    %rax,-0x1240(%rbp)
   16bd2:	48 8d 85 b0 e8 ff ff 	lea    -0x1750(%rbp),%rax
   16bd9:	48 89 85 c8 ed ff ff 	mov    %rax,-0x1238(%rbp)
   16be0:	48 8d 05 21 d5 00 00 	lea    0xd521(%rip),%rax        # 24108 <g_261>
   16be7:	48 89 85 d0 ed ff ff 	mov    %rax,-0x1230(%rbp)
   16bee:	48 8d 85 b0 e8 ff ff 	lea    -0x1750(%rbp),%rax
   16bf5:	48 89 85 d8 ed ff ff 	mov    %rax,-0x1228(%rbp)
   16bfc:	48 8d 85 b0 e8 ff ff 	lea    -0x1750(%rbp),%rax
   16c03:	48 89 85 e0 ed ff ff 	mov    %rax,-0x1220(%rbp)
   16c0a:	48 8d 05 f7 d4 00 00 	lea    0xd4f7(%rip),%rax        # 24108 <g_261>
   16c11:	48 89 85 e8 ed ff ff 	mov    %rax,-0x1218(%rbp)
   16c18:	48 8d 85 e8 e8 ff ff 	lea    -0x1718(%rbp),%rax
   16c1f:	48 89 85 f8 e9 ff ff 	mov    %rax,-0x1608(%rbp)
   16c26:	48 8d 85 a0 ed ff ff 	lea    -0x1260(%rbp),%rax
   16c2d:	48 83 c0 20          	add    $0x20,%rax
   16c31:	48 89 85 00 ea ff ff 	mov    %rax,-0x1600(%rbp)
   16c38:	c7 85 0c e8 ff ff 00 	movl   $0x0,-0x17f4(%rbp)
   16c3f:	00 00 00 
   16c42:	eb 52                	jmp    16c96 <func_57+0x22c2>
   16c44:	c7 85 10 e8 ff ff 00 	movl   $0x0,-0x17f0(%rbp)
   16c4b:	00 00 00 
   16c4e:	eb 36                	jmp    16c86 <func_57+0x22b2>
   16c50:	8b 85 10 e8 ff ff    	mov    -0x17f0(%rbp),%eax
   16c56:	48 63 c8             	movslq %eax,%rcx
   16c59:	8b 85 0c e8 ff ff    	mov    -0x17f4(%rbp),%eax
   16c5f:	48 63 d0             	movslq %eax,%rdx
   16c62:	48 89 d0             	mov    %rdx,%rax
   16c65:	48 c1 e0 03          	shl    $0x3,%rax
   16c69:	48 29 d0             	sub    %rdx,%rax
   16c6c:	48 8d 14 08          	lea    (%rax,%rcx,1),%rdx
   16c70:	48 8d 85 e0 e8 ff ff 	lea    -0x1720(%rbp),%rax
   16c77:	48 89 84 d5 c0 ec ff 	mov    %rax,-0x1340(%rbp,%rdx,8)
   16c7e:	ff 
   16c7f:	83 85 10 e8 ff ff 01 	addl   $0x1,-0x17f0(%rbp)
   16c86:	83 bd 10 e8 ff ff 06 	cmpl   $0x6,-0x17f0(%rbp)
   16c8d:	7e c1                	jle    16c50 <func_57+0x227c>
   16c8f:	83 85 0c e8 ff ff 01 	addl   $0x1,-0x17f4(%rbp)
   16c96:	83 bd 0c e8 ff ff 00 	cmpl   $0x0,-0x17f4(%rbp)
   16c9d:	7e a5                	jle    16c44 <func_57+0x2270>
   16c9f:	48 8b 95 d8 eb ff ff 	mov    -0x1428(%rbp),%rdx
   16ca6:	48 8b 85 c0 e9 ff ff 	mov    -0x1640(%rbp),%rax
   16cad:	48 89 10             	mov    %rdx,(%rax)
   16cb0:	48 8b 85 c0 e9 ff ff 	mov    -0x1640(%rbp),%rax
   16cb7:	48 8b 00             	mov    (%rax),%rax
   16cba:	48 39 85 58 e9 ff ff 	cmp    %rax,-0x16a8(%rbp)
   16cc1:	0f 84 1a 01 00 00    	je     16de1 <func_57+0x240d>
   16cc7:	48 8d 05 92 d8 00 00 	lea    0xd892(%rip),%rax        # 24560 <g_962>
   16cce:	48 89 85 28 ea ff ff 	mov    %rax,-0x15d8(%rbp)
   16cd5:	c7 85 48 e8 ff ff cd 	movl   $0xec67acd,-0x17b8(%rbp)
   16cdc:	7a c6 0e 
   16cdf:	c7 85 4c e8 ff ff 04 	movl   $0x4,-0x17b4(%rbp)
   16ce6:	00 00 00 
   16ce9:	66 c7 05 86 d6 00 00 	movw   $0x0,0xd686(%rip)        # 24378 <g_457>
   16cf0:	00 00 
   16cf2:	e9 97 00 00 00       	jmpq   16d8e <func_57+0x23ba>
   16cf7:	48 c7 85 30 ea ff ff 	movq   $0x4,-0x15d0(%rbp)
   16cfe:	04 00 00 00 
   16d02:	b8 94 43 16 d0       	mov    $0xd0164394,%eax
   16d07:	48 09 85 30 ea ff ff 	or     %rax,-0x15d0(%rbp)
   16d0e:	48 c7 85 98 e9 ff ff 	movq   $0x1,-0x1668(%rbp)
   16d15:	01 00 00 00 
   16d19:	48 83 bd 98 e9 ff ff 	cmpq   $0x4,-0x1668(%rbp)
   16d20:	04 
   16d21:	7f 1d                	jg     16d40 <func_57+0x236c>
   16d23:	48 8b 05 ae 27 01 00 	mov    0x127ae(%rip),%rax        # 294d8 <g_1567>
   16d2a:	48 8b 95 c8 e9 ff ff 	mov    -0x1638(%rbp),%rdx
   16d31:	48 89 10             	mov    %rdx,(%rax)
   16d34:	48 8b 05 75 c9 00 00 	mov    0xc975(%rip),%rax        # 236b0 <l_1569.5407+0x10>
   16d3b:	e9 34 20 00 00       	jmpq   18d74 <func_57+0x43a0>
   16d40:	c6 05 c1 d8 00 00 00 	movb   $0x0,0xd8c1(%rip)        # 24608 <g_975>
   16d47:	90                   	nop
   16d48:	0f b6 05 b9 d8 00 00 	movzbl 0xd8b9(%rip),%eax        # 24608 <g_975>
   16d4f:	3c 05                	cmp    $0x5,%al
   16d51:	7f 2a                	jg     16d7d <func_57+0x23a9>
   16d53:	48 8b 05 56 16 01 00 	mov    0x11656(%rip),%rax        # 283b0 <g_265>
   16d5a:	48 8b 00             	mov    (%rax),%rax
   16d5d:	48 8b 95 d0 e9 ff ff 	mov    -0x1630(%rbp),%rdx
   16d64:	48 89 10             	mov    %rdx,(%rax)
   16d67:	48 8b 00             	mov    (%rax),%rax
   16d6a:	48 89 85 d0 e9 ff ff 	mov    %rax,-0x1630(%rbp)
   16d71:	48 8b 85 28 ea ff ff 	mov    -0x15d8(%rbp),%rax
   16d78:	e9 f7 1f 00 00       	jmpq   18d74 <func_57+0x43a0>
   16d7d:	0f b7 05 f4 d5 00 00 	movzwl 0xd5f4(%rip),%eax        # 24378 <g_457>
   16d84:	83 c0 01             	add    $0x1,%eax
   16d87:	66 89 05 ea d5 00 00 	mov    %ax,0xd5ea(%rip)        # 24378 <g_457>
   16d8e:	0f b7 05 e3 d5 00 00 	movzwl 0xd5e3(%rip),%eax        # 24378 <g_457>
   16d95:	66 83 f8 09          	cmp    $0x9,%ax
   16d99:	0f 86 58 ff ff ff    	jbe    16cf7 <func_57+0x2323>
   16d9f:	80 ad 8b e7 ff ff 01 	subb   $0x1,-0x1875(%rbp)
   16da6:	c7 85 f4 e7 ff ff 00 	movl   $0x0,-0x180c(%rbp)
   16dad:	00 00 00 
   16db0:	83 bd f4 e7 ff ff 03 	cmpl   $0x3,-0x180c(%rbp)
   16db7:	7f 12                	jg     16dcb <func_57+0x23f7>
   16db9:	48 8b 05 48 1e 01 00 	mov    0x11e48(%rip),%rax        # 28c08 <g_1258>
   16dc0:	48 8b 00             	mov    (%rax),%rax
   16dc3:	48 8b 00             	mov    (%rax),%rax
   16dc6:	e9 a9 1f 00 00       	jmpq   18d74 <func_57+0x43a0>
   16dcb:	48 8b 05 96 26 01 00 	mov    0x12696(%rip),%rax        # 29468 <g_1292>
   16dd2:	48 8d 95 a4 e7 ff ff 	lea    -0x185c(%rbp),%rdx
   16dd9:	48 89 10             	mov    %rdx,(%rax)
   16ddc:	e9 33 04 00 00       	jmpq   17214 <func_57+0x2840>
   16de1:	48 8d 05 b8 d2 00 00 	lea    0xd2b8(%rip),%rax        # 240a0 <g_101>
   16de8:	48 89 85 f0 e8 ff ff 	mov    %rax,-0x1710(%rbp)
   16def:	48 8d 85 f0 e8 ff ff 	lea    -0x1710(%rbp),%rax
   16df6:	48 89 85 f8 e8 ff ff 	mov    %rax,-0x1708(%rbp)
   16dfd:	48 8d 85 f8 e8 ff ff 	lea    -0x1708(%rbp),%rax
   16e04:	48 89 85 08 ea ff ff 	mov    %rax,-0x15f8(%rbp)
   16e0b:	48 8d 05 b6 d2 00 00 	lea    0xd2b6(%rip),%rax        # 240c8 <g_213>
   16e12:	48 89 85 10 ea ff ff 	mov    %rax,-0x15f0(%rbp)
   16e19:	48 c7 85 18 ea ff ff 	movq   $0x0,-0x15e8(%rbp)
   16e20:	00 00 00 00 
   16e24:	48 c7 85 a0 f0 ff ff 	movq   $0x0,-0xf60(%rbp)
   16e2b:	00 00 00 00 
   16e2f:	48 8d 05 d2 16 01 00 	lea    0x116d2(%rip),%rax        # 28508 <g_969>
   16e36:	48 89 85 a8 f0 ff ff 	mov    %rax,-0xf58(%rbp)
   16e3d:	48 c7 85 b0 f0 ff ff 	movq   $0x0,-0xf50(%rbp)
   16e44:	00 00 00 00 
   16e48:	48 c7 85 b8 f0 ff ff 	movq   $0x0,-0xf48(%rbp)
   16e4f:	00 00 00 00 
   16e53:	48 8d 05 ae 16 01 00 	lea    0x116ae(%rip),%rax        # 28508 <g_969>
   16e5a:	48 89 85 c0 f0 ff ff 	mov    %rax,-0xf40(%rbp)
   16e61:	48 c7 85 c8 f0 ff ff 	movq   $0x0,-0xf38(%rbp)
   16e68:	00 00 00 00 
   16e6c:	48 c7 85 d0 f0 ff ff 	movq   $0x0,-0xf30(%rbp)
   16e73:	00 00 00 00 
   16e77:	c7 85 3c e8 ff ff 08 	movl   $0x8,-0x17c4(%rbp)
   16e7e:	00 00 00 
   16e81:	48 b8 8b 3b 29 ef e7 	movabs $0xdafe95e7ef293b8b,%rax
   16e88:	95 fe da 
   16e8b:	48 89 85 20 ea ff ff 	mov    %rax,-0x15e0(%rbp)
   16e92:	c7 85 40 e8 ff ff fc 	movl   $0xfffffffc,-0x17c0(%rbp)
   16e99:	ff ff ff 
   16e9c:	c7 85 44 e8 ff ff ff 	movl   $0xffffffff,-0x17bc(%rbp)
   16ea3:	ff ff ff 
   16ea6:	c7 85 14 e8 ff ff 00 	movl   $0x0,-0x17ec(%rbp)
   16ead:	00 00 00 
   16eb0:	eb 1a                	jmp    16ecc <func_57+0x24f8>
   16eb2:	8b 85 14 e8 ff ff    	mov    -0x17ec(%rbp),%eax
   16eb8:	48 98                	cltq   
   16eba:	c7 84 85 30 ec ff ff 	movl   $0x9,-0x13d0(%rbp,%rax,4)
   16ec1:	09 00 00 00 
   16ec5:	83 85 14 e8 ff ff 01 	addl   $0x1,-0x17ec(%rbp)
   16ecc:	83 bd 14 e8 ff ff 01 	cmpl   $0x1,-0x17ec(%rbp)
   16ed3:	7e dd                	jle    16eb2 <func_57+0x24de>
   16ed5:	c7 85 14 e8 ff ff 00 	movl   $0x0,-0x17ec(%rbp)
   16edc:	00 00 00 
   16edf:	eb 1e                	jmp    16eff <func_57+0x252b>
   16ee1:	8b 85 14 e8 ff ff    	mov    -0x17ec(%rbp),%eax
   16ee7:	48 98                	cltq   
   16ee9:	48 8d 95 8e e7 ff ff 	lea    -0x1872(%rbp),%rdx
   16ef0:	48 89 94 c5 00 ec ff 	mov    %rdx,-0x1400(%rbp,%rax,8)
   16ef7:	ff 
   16ef8:	83 85 14 e8 ff ff 01 	addl   $0x1,-0x17ec(%rbp)
   16eff:	83 bd 14 e8 ff ff 00 	cmpl   $0x0,-0x17ec(%rbp)
   16f06:	7e d9                	jle    16ee1 <func_57+0x250d>
   16f08:	0f b6 05 f9 d6 00 00 	movzbl 0xd6f9(%rip),%eax        # 24608 <g_975>
   16f0f:	84 c0                	test   %al,%al
   16f11:	74 05                	je     16f18 <func_57+0x2544>
   16f13:	e9 a4 e0 ff ff       	jmpq   14fbc <func_57+0x5e8>
   16f18:	66 83 bd 74 e7 ff ff 	cmpw   $0x0,-0x188c(%rbp)
   16f1f:	00 
   16f20:	0f 85 d1 05 00 00    	jne    174f7 <func_57+0x2b23>
   16f26:	0f b7 9d 74 e7 ff ff 	movzwl -0x188c(%rbp),%ebx
   16f2d:	48 8b 85 d0 e9 ff ff 	mov    -0x1630(%rbp),%rax
   16f34:	8b 00                	mov    (%rax),%eax
   16f36:	41 89 c4             	mov    %eax,%r12d
   16f39:	0f b7 85 74 e7 ff ff 	movzwl -0x188c(%rbp),%eax
   16f40:	0f be c0             	movsbl %al,%eax
   16f43:	48 8b 15 7e 16 01 00 	mov    0x1167e(%rip),%rdx        # 285c8 <g_1097>
   16f4a:	c6 02 01             	movb   $0x1,(%rdx)
   16f4d:	89 c6                	mov    %eax,%esi
   16f4f:	bf 01 00 00 00       	mov    $0x1,%edi
   16f54:	e8 b9 32 ff ff       	callq  a212 <safe_mul_func_int8_t_s_s>
   16f59:	48 8b 85 d8 e9 ff ff 	mov    -0x1628(%rbp),%rax
   16f60:	48 89 85 60 e9 ff ff 	mov    %rax,-0x16a0(%rbp)
   16f67:	48 8b 85 60 e9 ff ff 	mov    -0x16a0(%rbp),%rax
   16f6e:	48 89 85 d8 e9 ff ff 	mov    %rax,-0x1628(%rbp)
   16f75:	48 8d 85 98 e8 ff ff 	lea    -0x1768(%rbp),%rax
   16f7c:	48 39 85 d8 e9 ff ff 	cmp    %rax,-0x1628(%rbp)
   16f83:	0f 95 c2             	setne  %dl
   16f86:	48 8b 85 f8 e8 ff ff 	mov    -0x1708(%rbp),%rax
   16f8d:	48 8b 00             	mov    (%rax),%rax
   16f90:	0f b6 d2             	movzbl %dl,%edx
   16f93:	48 89 10             	mov    %rdx,(%rax)
   16f96:	48 8b 10             	mov    (%rax),%rdx
   16f99:	81 bd 3c e8 ff ff 93 	cmpl   $0x93,-0x17c4(%rbp)
   16fa0:	00 00 00 
   16fa3:	0f 9e c0             	setle  %al
   16fa6:	0f b6 c0             	movzbl %al,%eax
   16fa9:	48 21 c2             	and    %rax,%rdx
   16fac:	b8 35 61 65 8e       	mov    $0x8e656135,%eax
   16fb1:	48 39 c2             	cmp    %rax,%rdx
   16fb4:	48 8b 85 d0 e9 ff ff 	mov    -0x1630(%rbp),%rax
   16fbb:	8b 00                	mov    (%rax),%eax
   16fbd:	98                   	cwtl   
   16fbe:	be 03 00 00 00       	mov    $0x3,%esi
   16fc3:	89 c7                	mov    %eax,%edi
   16fc5:	e8 17 35 ff ff       	callq  a4e1 <safe_lshift_func_int16_t_s_u>
   16fca:	48 8b 05 a7 24 01 00 	mov    0x124a7(%rip),%rax        # 29478 <g_1351>
   16fd1:	48 8b 00             	mov    (%rax),%rax
   16fd4:	48 85 c0             	test   %rax,%rax
   16fd7:	74 08                	je     16fe1 <func_57+0x260d>
   16fd9:	66 83 bd 74 e7 ff ff 	cmpw   $0x0,-0x188c(%rbp)
   16fe0:	00 
   16fe1:	0f b7 85 74 e7 ff ff 	movzwl -0x188c(%rbp),%eax
   16fe8:	44 89 e6             	mov    %r12d,%esi
   16feb:	89 c7                	mov    %eax,%edi
   16fed:	e8 33 3f ff ff       	callq  af25 <safe_div_func_uint32_t_u_u>
   16ff2:	48 8b 95 d0 e9 ff ff 	mov    -0x1630(%rbp),%rdx
   16ff9:	8b 12                	mov    (%rdx),%edx
   16ffb:	09 d0                	or     %edx,%eax
   16ffd:	41 89 c4             	mov    %eax,%r12d
   17000:	48 8b 15 49 d0 00 00 	mov    0xd049(%rip),%rdx        # 24050 <g_80+0x10>
   17007:	48 8b 85 10 ea ff ff 	mov    -0x15f0(%rbp),%rax
   1700e:	0f b6 00             	movzbl (%rax),%eax
   17011:	89 c1                	mov    %eax,%ecx
   17013:	89 d0                	mov    %edx,%eax
   17015:	31 c8                	xor    %ecx,%eax
   17017:	89 c2                	mov    %eax,%edx
   17019:	48 8b 85 10 ea ff ff 	mov    -0x15f0(%rbp),%rax
   17020:	88 10                	mov    %dl,(%rax)
   17022:	48 8b 85 10 ea ff ff 	mov    -0x15f0(%rbp),%rax
   17029:	0f b6 00             	movzbl (%rax),%eax
   1702c:	0f b6 c0             	movzbl %al,%eax
   1702f:	be 06 00 00 00       	mov    $0x6,%esi
   17034:	89 c7                	mov    %eax,%edi
   17036:	e8 ca 3b ff ff       	callq  ac05 <safe_lshift_func_uint8_t_u_s>
   1703b:	0f b6 c0             	movzbl %al,%eax
   1703e:	44 89 e6             	mov    %r12d,%esi
   17041:	89 c7                	mov    %eax,%edi
   17043:	e8 b5 3e ff ff       	callq  aefd <safe_mod_func_uint32_t_u_u>
   17048:	89 c0                	mov    %eax,%eax
   1704a:	48 89 de             	mov    %rbx,%rsi
   1704d:	48 89 c7             	mov    %rax,%rdi
   17050:	e8 f6 3f ff ff       	callq  b04b <safe_sub_func_uint64_t_u_u>
   17055:	48 8b 05 f4 d6 00 00 	mov    0xd6f4(%rip),%rax        # 24750 <g_1320+0x10>
   1705c:	48 83 bd 08 ea ff ff 	cmpq   $0x0,-0x15f8(%rbp)
   17063:	00 
   17064:	0f 94 c0             	sete   %al
   17067:	0f b6 d0             	movzbl %al,%edx
   1706a:	48 8b 85 d0 e9 ff ff 	mov    -0x1630(%rbp),%rax
   17071:	8b 00                	mov    (%rax),%eax
   17073:	39 c2                	cmp    %eax,%edx
   17075:	0f 9f c0             	setg   %al
   17078:	0f b6 d0             	movzbl %al,%edx
   1707b:	8b 85 30 ec ff ff    	mov    -0x13d0(%rbp),%eax
   17081:	21 d0                	and    %edx,%eax
   17083:	89 85 30 ec ff ff    	mov    %eax,-0x13d0(%rbp)
   17089:	48 83 bd 20 ea ff ff 	cmpq   $0x0,-0x15e0(%rbp)
   17090:	00 
   17091:	0f 9f c0             	setg   %al
   17094:	0f b6 c0             	movzbl %al,%eax
   17097:	89 85 3c e8 ff ff    	mov    %eax,-0x17c4(%rbp)
   1709d:	48 8b 05 5c 14 01 00 	mov    0x1145c(%rip),%rax        # 28500 <g_896>
   170a4:	48 8b 00             	mov    (%rax),%rax
   170a7:	8b 00                	mov    (%rax),%eax
   170a9:	85 c0                	test   %eax,%eax
   170ab:	0f 95 c0             	setne  %al
   170ae:	0f b6 c0             	movzbl %al,%eax
   170b1:	be 8a dd 00 00       	mov    $0xdd8a,%esi
   170b6:	89 c7                	mov    %eax,%edi
   170b8:	e8 80 3c ff ff       	callq  ad3d <safe_mul_func_uint16_t_u_u>
   170bd:	98                   	cwtl   
   170be:	8b 95 a8 e7 ff ff    	mov    -0x1858(%rbp),%edx
   170c4:	89 d6                	mov    %edx,%esi
   170c6:	89 c7                	mov    %eax,%edi
   170c8:	e8 5d 34 ff ff       	callq  a52a <safe_rshift_func_int16_t_s_s>
   170cd:	8b 95 ac f9 ff ff    	mov    -0x654(%rbp),%edx
   170d3:	98                   	cwtl   
   170d4:	21 d0                	and    %edx,%eax
   170d6:	89 85 ac f9 ff ff    	mov    %eax,-0x654(%rbp)
   170dc:	8b 85 ac f9 ff ff    	mov    -0x654(%rbp),%eax
   170e2:	09 85 40 e8 ff ff    	or     %eax,-0x17c0(%rbp)
   170e8:	0f b6 05 c9 d6 00 00 	movzbl 0xd6c9(%rip),%eax        # 247b8 <g_1616>
   170ef:	0f b6 d8             	movzbl %al,%ebx
   170f2:	0f b7 85 74 e7 ff ff 	movzwl -0x188c(%rbp),%eax
   170f9:	48 8b 95 20 ea ff ff 	mov    -0x15e0(%rbp),%rdx
   17100:	89 c6                	mov    %eax,%esi
   17102:	89 d7                	mov    %edx,%edi
   17104:	e8 fc 34 ff ff       	callq  a605 <safe_sub_func_int32_t_s_s>
   17109:	09 c3                	or     %eax,%ebx
   1710b:	89 da                	mov    %ebx,%edx
   1710d:	0f b7 85 74 e7 ff ff 	movzwl -0x188c(%rbp),%eax
   17114:	21 d0                	and    %edx,%eax
   17116:	4c 63 f8             	movslq %eax,%r15
   17119:	0f b7 9d 74 e7 ff ff 	movzwl -0x188c(%rbp),%ebx
   17120:	b8 03 00 00 00       	mov    $0x3,%eax
   17125:	44 0f be e0          	movsbl %al,%r12d
   17129:	8b 85 44 e8 ff ff    	mov    -0x17bc(%rbp),%eax
   1712f:	44 0f b6 e8          	movzbl %al,%r13d
   17133:	0f b6 05 da 2d 01 00 	movzbl 0x12dda(%rip),%eax        # 29f14 <g_302>
   1713a:	44 0f be f0          	movsbl %al,%r14d
   1713e:	48 8b 05 e3 cf 00 00 	mov    0xcfe3(%rip),%rax        # 24128 <g_301+0x8>
   17145:	89 85 64 e7 ff ff    	mov    %eax,-0x189c(%rbp)
   1714b:	8b 85 34 ec ff ff    	mov    -0x13cc(%rbp),%eax
   17151:	0f bf d0             	movswl %ax,%edx
   17154:	48 8b 85 d0 e9 ff ff 	mov    -0x1630(%rbp),%rax
   1715b:	8b 00                	mov    (%rax),%eax
   1715d:	98                   	cwtl   
   1715e:	89 d6                	mov    %edx,%esi
   17160:	89 c7                	mov    %eax,%edi
   17162:	e8 8e 32 ff ff       	callq  a3f5 <safe_mul_func_int16_t_s_s>
   17167:	0f bf d0             	movswl %ax,%edx
   1716a:	8b 05 08 d0 00 00    	mov    0xd008(%rip),%eax        # 24178 <g_305>
   17170:	39 c2                	cmp    %eax,%edx
   17172:	0f 9f c0             	setg   %al
   17175:	0f b6 c0             	movzbl %al,%eax
   17178:	be 14 1f 83 80       	mov    $0x80831f14,%esi
   1717d:	89 c7                	mov    %eax,%edi
   1717f:	e8 34 3d ff ff       	callq  aeb8 <safe_add_func_uint32_t_u_u>
   17184:	83 f0 26             	xor    $0x26,%eax
   17187:	66 89 05 ea d1 00 00 	mov    %ax,0xd1ea(%rip)        # 24378 <g_457>
   1718e:	0f b7 05 e3 d1 00 00 	movzwl 0xd1e3(%rip),%eax        # 24378 <g_457>
   17195:	0f b7 c0             	movzwl %ax,%eax
   17198:	8b b5 64 e7 ff ff    	mov    -0x189c(%rbp),%esi
   1719e:	89 c7                	mov    %eax,%edi
   171a0:	e8 19 3c ff ff       	callq  adbe <safe_lshift_func_uint16_t_u_s>
   171a5:	0f b7 c0             	movzwl %ax,%eax
   171a8:	44 89 f6             	mov    %r14d,%esi
   171ab:	89 c7                	mov    %eax,%edi
   171ad:	e8 06 3d ff ff       	callq  aeb8 <safe_add_func_uint32_t_u_u>
   171b2:	44 89 ee             	mov    %r13d,%esi
   171b5:	bf 13 00 00 00       	mov    $0x13,%edi
   171ba:	e8 ef 39 ff ff       	callq  abae <safe_mod_func_uint8_t_u_u>
   171bf:	0f b6 c0             	movzbl %al,%eax
   171c2:	66 39 85 74 e7 ff ff 	cmp    %ax,-0x188c(%rbp)
   171c9:	0f 94 c0             	sete   %al
   171cc:	0f b6 c0             	movzbl %al,%eax
   171cf:	be 0a 00 00 00       	mov    $0xa,%esi
   171d4:	89 c7                	mov    %eax,%edi
   171d6:	e8 e3 3b ff ff       	callq  adbe <safe_lshift_func_uint16_t_u_s>
   171db:	89 c2                	mov    %eax,%edx
   171dd:	48 8b 05 e4 13 01 00 	mov    0x113e4(%rip),%rax        # 285c8 <g_1097>
   171e4:	88 10                	mov    %dl,(%rax)
   171e6:	0f b6 00             	movzbl (%rax),%eax
   171e9:	0f be c0             	movsbl %al,%eax
   171ec:	44 89 e6             	mov    %r12d,%esi
   171ef:	89 c7                	mov    %eax,%edi
   171f1:	e8 1c 30 ff ff       	callq  a212 <safe_mul_func_int8_t_s_s>
   171f6:	48 0f be c0          	movsbq %al,%rax
   171fa:	48 89 de             	mov    %rbx,%rsi
   171fd:	48 89 c7             	mov    %rax,%rdi
   17200:	e8 46 3e ff ff       	callq  b04b <safe_sub_func_uint64_t_u_u>
   17205:	49 39 c7             	cmp    %rax,%r15
   17208:	0f 96 c0             	setbe  %al
   1720b:	0f b6 c0             	movzbl %al,%eax
   1720e:	09 85 3c e8 ff ff    	or     %eax,-0x17c4(%rbp)
   17214:	c7 85 08 e8 ff ff eb 	movl   $0xffffffeb,-0x17f8(%rbp)
   1721b:	ff ff ff 
   1721e:	e9 25 02 00 00       	jmpq   17448 <func_57+0x2a74>
   17223:	c7 85 50 e8 ff ff fd 	movl   $0x2d0d5ffd,-0x17b0(%rbp)
   1722a:	5f 0d 2d 
   1722d:	48 c7 85 a0 f0 ff ff 	movq   $0x8,-0xf60(%rbp)
   17234:	08 00 00 00 
   17238:	48 c7 85 a8 f0 ff ff 	movq   $0xfffffffffffffff9,-0xf58(%rbp)
   1723f:	f9 ff ff ff 
   17243:	48 c7 85 b0 f0 ff ff 	movq   $0x8,-0xf50(%rbp)
   1724a:	08 00 00 00 
   1724e:	48 c7 85 b8 f0 ff ff 	movq   $0x8,-0xf48(%rbp)
   17255:	08 00 00 00 
   17259:	48 c7 85 c0 f0 ff ff 	movq   $0x8,-0xf40(%rbp)
   17260:	08 00 00 00 
   17264:	48 c7 85 c8 f0 ff ff 	movq   $0xfffffffffffffff9,-0xf38(%rbp)
   1726b:	f9 ff ff ff 
   1726f:	48 c7 85 d0 f0 ff ff 	movq   $0x8,-0xf30(%rbp)
   17276:	08 00 00 00 
   1727a:	48 c7 85 d8 f0 ff ff 	movq   $0x8,-0xf28(%rbp)
   17281:	08 00 00 00 
   17285:	48 c7 85 e0 f0 ff ff 	movq   $0x8,-0xf20(%rbp)
   1728c:	08 00 00 00 
   17290:	48 c7 85 e8 f0 ff ff 	movq   $0xfffffffffffffff9,-0xf18(%rbp)
   17297:	f9 ff ff ff 
   1729b:	48 c7 85 f0 f0 ff ff 	movq   $0x8,-0xf10(%rbp)
   172a2:	08 00 00 00 
   172a6:	48 c7 85 f8 f0 ff ff 	movq   $0x8,-0xf08(%rbp)
   172ad:	08 00 00 00 
   172b1:	48 c7 85 00 f1 ff ff 	movq   $0x8,-0xf00(%rbp)
   172b8:	08 00 00 00 
   172bc:	48 c7 85 08 f1 ff ff 	movq   $0xfffffffffffffff9,-0xef8(%rbp)
   172c3:	f9 ff ff ff 
   172c7:	48 c7 85 10 f1 ff ff 	movq   $0x8,-0xef0(%rbp)
   172ce:	08 00 00 00 
   172d2:	48 c7 85 18 f1 ff ff 	movq   $0x8,-0xee8(%rbp)
   172d9:	08 00 00 00 
   172dd:	48 c7 85 20 f1 ff ff 	movq   $0x8,-0xee0(%rbp)
   172e4:	08 00 00 00 
   172e8:	48 c7 85 28 f1 ff ff 	movq   $0xfffffffffffffff9,-0xed8(%rbp)
   172ef:	f9 ff ff ff 
   172f3:	48 c7 85 30 f1 ff ff 	movq   $0x8,-0xed0(%rbp)
   172fa:	08 00 00 00 
   172fe:	48 c7 85 38 f1 ff ff 	movq   $0x8,-0xec8(%rbp)
   17305:	08 00 00 00 
   17309:	48 8d 05 b8 cd 00 00 	lea    0xcdb8(%rip),%rax        # 240c8 <g_213>
   17310:	48 89 85 38 ea ff ff 	mov    %rax,-0x15c8(%rbp)
   17317:	c7 85 54 e8 ff ff 00 	movl   $0x0,-0x17ac(%rbp)
   1731e:	00 00 00 
   17321:	48 8b 85 68 e7 ff ff 	mov    -0x1898(%rbp),%rax
   17328:	0f b7 00             	movzwl (%rax),%eax
   1732b:	66 85 c0             	test   %ax,%ax
   1732e:	75 19                	jne    17349 <func_57+0x2975>
   17330:	48 8b 85 b8 e8 ff ff 	mov    -0x1748(%rbp),%rax
   17337:	0f b7 95 74 e7 ff ff 	movzwl -0x188c(%rbp),%edx
   1733e:	66 89 10             	mov    %dx,(%rax)
   17341:	0f b7 00             	movzwl (%rax),%eax
   17344:	66 85 c0             	test   %ax,%ax
   17347:	74 08                	je     17351 <func_57+0x297d>
   17349:	41 be 01 00 00 00    	mov    $0x1,%r14d
   1734f:	eb 06                	jmp    17357 <func_57+0x2983>
   17351:	41 be 00 00 00 00    	mov    $0x0,%r14d
   17357:	48 8b 05 1a 21 01 00 	mov    0x1211a(%rip),%rax        # 29478 <g_1351>
   1735e:	48 8b 18             	mov    (%rax),%rbx
   17361:	48 8b 85 68 e7 ff ff 	mov    -0x1898(%rbp),%rax
   17368:	0f b7 00             	movzwl (%rax),%eax
   1736b:	66 33 85 74 e7 ff ff 	xor    -0x188c(%rbp),%ax
   17372:	41 89 c4             	mov    %eax,%r12d
   17375:	48 8b 85 b8 f0 ff ff 	mov    -0xf48(%rbp),%rax
   1737c:	41 89 c5             	mov    %eax,%r13d
   1737f:	8b 85 50 e8 ff ff    	mov    -0x17b0(%rbp),%eax
   17385:	89 c6                	mov    %eax,%esi
   17387:	bf 04 00 00 00       	mov    $0x4,%edi
   1738c:	e8 2d 3a ff ff       	callq  adbe <safe_lshift_func_uint16_t_u_s>
   17391:	0f b7 c0             	movzwl %ax,%eax
   17394:	be 02 00 00 00       	mov    $0x2,%esi
   17399:	89 c7                	mov    %eax,%edi
   1739b:	e8 66 3a ff ff       	callq  ae06 <safe_lshift_func_uint16_t_u_u>
   173a0:	48 8b 05 d1 20 01 00 	mov    0x120d1(%rip),%rax        # 29478 <g_1351>
   173a7:	48 8b 00             	mov    (%rax),%rax
   173aa:	48 83 f8 01          	cmp    $0x1,%rax
   173ae:	0f 95 c0             	setne  %al
   173b1:	0f b6 c0             	movzbl %al,%eax
   173b4:	44 89 ee             	mov    %r13d,%esi
   173b7:	89 c7                	mov    %eax,%edi
   173b9:	e8 fa 3a ff ff       	callq  aeb8 <safe_add_func_uint32_t_u_u>
   173be:	0f b7 95 74 e7 ff ff 	movzwl -0x188c(%rbp),%edx
   173c5:	39 d0                	cmp    %edx,%eax
   173c7:	0f 93 c0             	setae  %al
   173ca:	89 c2                	mov    %eax,%edx
   173cc:	48 8b 85 38 ea ff ff 	mov    -0x15c8(%rbp),%rax
   173d3:	88 10                	mov    %dl,(%rax)
   173d5:	48 8b 85 38 ea ff ff 	mov    -0x15c8(%rbp),%rax
   173dc:	0f b6 00             	movzbl (%rax),%eax
   173df:	0f b6 c0             	movzbl %al,%eax
   173e2:	66 41 39 c4          	cmp    %ax,%r12w
   173e6:	0f 97 c0             	seta   %al
   173e9:	0f b6 c0             	movzbl %al,%eax
   173ec:	48 39 c3             	cmp    %rax,%rbx
   173ef:	0f 9e c0             	setle  %al
   173f2:	0f b6 c0             	movzbl %al,%eax
   173f5:	41 39 c6             	cmp    %eax,%r14d
   173f8:	0f 9c c0             	setl   %al
   173fb:	0f b6 d0             	movzbl %al,%edx
   173fe:	48 8b 85 d0 e9 ff ff 	mov    -0x1630(%rbp),%rax
   17405:	8b 00                	mov    (%rax),%eax
   17407:	31 c2                	xor    %eax,%edx
   17409:	48 8b 85 d0 e9 ff ff 	mov    -0x1630(%rbp),%rax
   17410:	89 10                	mov    %edx,(%rax)
   17412:	48 8b 85 d0 e9 ff ff 	mov    -0x1630(%rbp),%rax
   17419:	c7 00 dd 29 50 99    	movl   $0x995029dd,(%rax)
   1741f:	48 8b 85 d0 e9 ff ff 	mov    -0x1630(%rbp),%rax
   17426:	8b 00                	mov    (%rax),%eax
   17428:	21 85 54 e8 ff ff    	and    %eax,-0x17ac(%rbp)
   1742e:	8b 85 08 e8 ff ff    	mov    -0x17f8(%rbp),%eax
   17434:	98                   	cwtl   
   17435:	be 01 00 00 00       	mov    $0x1,%esi
   1743a:	89 c7                	mov    %eax,%edi
   1743c:	e8 72 2f ff ff       	callq  a3b3 <safe_add_func_int16_t_s_s>
   17441:	98                   	cwtl   
   17442:	89 85 08 e8 ff ff    	mov    %eax,-0x17f8(%rbp)
   17448:	83 bd 08 e8 ff ff 06 	cmpl   $0x6,-0x17f8(%rbp)
   1744f:	0f 8e ce fd ff ff    	jle    17223 <func_57+0x284f>
   17455:	48 8b 85 e8 e9 ff ff 	mov    -0x1618(%rbp),%rax
   1745c:	66 c7 00 fb d8       	movw   $0xd8fb,(%rax)
   17461:	b8 01 00 00 00       	mov    $0x1,%eax
   17466:	48 63 d0             	movslq %eax,%rdx
   17469:	48 8b 05 98 cc 00 00 	mov    0xcc98(%rip),%rax        # 24108 <g_261>
   17470:	48 83 e8 01          	sub    $0x1,%rax
   17474:	48 89 05 8d cc 00 00 	mov    %rax,0xcc8d(%rip)        # 24108 <g_261>
   1747b:	48 8b 05 86 cc 00 00 	mov    0xcc86(%rip),%rax        # 24108 <g_261>
   17482:	48 39 c2             	cmp    %rax,%rdx
   17485:	48 8b 85 f8 e9 ff ff 	mov    -0x1608(%rbp),%rax
   1748c:	48 8d 15 0d cc 00 00 	lea    0xcc0d(%rip),%rdx        # 240a0 <g_101>
   17493:	48 89 10             	mov    %rdx,(%rax)
   17496:	48 8b 85 f8 e9 ff ff 	mov    -0x1608(%rbp),%rax
   1749d:	48 8b 10             	mov    (%rax),%rdx
   174a0:	48 8b 85 00 ea ff ff 	mov    -0x1600(%rbp),%rax
   174a7:	48 89 10             	mov    %rdx,(%rax)
   174aa:	48 8b 85 00 ea ff ff 	mov    -0x1600(%rbp),%rax
   174b1:	48 8b 10             	mov    (%rax),%rdx
   174b4:	48 8d 85 b0 e8 ff ff 	lea    -0x1750(%rbp),%rax
   174bb:	48 39 c2             	cmp    %rax,%rdx
   174be:	48 8b 05 b3 1f 01 00 	mov    0x11fb3(%rip),%rax        # 29478 <g_1351>
   174c5:	48 8b 00             	mov    (%rax),%rax
   174c8:	48 89 c6             	mov    %rax,%rsi
   174cb:	48 bf 31 d1 b7 c3 10 	movabs $0x9b3f2410c3b7d131,%rdi
   174d2:	24 3f 9b 
   174d5:	e8 1d 35 ff ff       	callq  a9f7 <safe_div_func_int64_t_s_s>
   174da:	89 c2                	mov    %eax,%edx
   174dc:	48 8b 85 d0 e9 ff ff 	mov    -0x1630(%rbp),%rax
   174e3:	89 10                	mov    %edx,(%rax)
   174e5:	48 8d 85 00 f9 ff ff 	lea    -0x700(%rbp),%rax
   174ec:	48 83 c0 48          	add    $0x48,%rax
   174f0:	48 89 85 d0 e9 ff ff 	mov    %rax,-0x1630(%rbp)
   174f7:	8b 85 d4 e7 ff ff    	mov    -0x182c(%rbp),%eax
   174fd:	be 02 00 00 00       	mov    $0x2,%esi
   17502:	89 c7                	mov    %eax,%edi
   17504:	e8 fc 30 ff ff       	callq  a605 <safe_sub_func_int32_t_s_s>
   17509:	89 85 d4 e7 ff ff    	mov    %eax,-0x182c(%rbp)
   1750f:	83 bd d4 e7 ff ff eb 	cmpl   $0xffffffeb,-0x182c(%rbp)
   17516:	0f 8d ec f3 ff ff    	jge    16908 <func_57+0x1f34>
   1751c:	66 83 bd 74 e7 ff ff 	cmpw   $0x0,-0x188c(%rbp)
   17523:	00 
   17524:	0f 85 e7 00 00 00    	jne    17611 <func_57+0x2c3d>
   1752a:	48 8b 05 47 1f 01 00 	mov    0x11f47(%rip),%rax        # 29478 <g_1351>
   17531:	48 8b 18             	mov    (%rax),%rbx
   17534:	0f b7 85 74 e7 ff ff 	movzwl -0x188c(%rbp),%eax
   1753b:	44 0f be e0          	movsbl %al,%r12d
   1753f:	48 8b 05 ba 0f 01 00 	mov    0x10fba(%rip),%rax        # 28500 <g_896>
   17546:	48 8b 00             	mov    (%rax),%rax
   17549:	44 8b 28             	mov    (%rax),%r13d
   1754c:	0f b7 85 74 e7 ff ff 	movzwl -0x188c(%rbp),%eax
   17553:	98                   	cwtl   
   17554:	be 04 00 00 00       	mov    $0x4,%esi
   17559:	89 c7                	mov    %eax,%edi
   1755b:	e8 ca 2f ff ff       	callq  a52a <safe_rshift_func_int16_t_s_s>
   17560:	66 85 c0             	test   %ax,%ax
   17563:	75 0a                	jne    1756f <func_57+0x2b9b>
   17565:	66 83 bd 96 e7 ff ff 	cmpw   $0x0,-0x186a(%rbp)
   1756c:	00 
   1756d:	74 1d                	je     1758c <func_57+0x2bb8>
   1756f:	8b 05 bf ca 00 00    	mov    0xcabf(%rip),%eax        # 24034 <g_34>
   17575:	48 98                	cltq   
   17577:	48 89 c7             	mov    %rax,%rdi
   1757a:	e8 9a 3a ff ff       	callq  b019 <safe_unary_minus_func_uint64_t_u>
   1757f:	48 8b 85 68 e9 ff ff 	mov    -0x1698(%rbp),%rax
   17586:	66 c7 00 ff ff       	movw   $0xffff,(%rax)
   1758b:	90                   	nop
   1758c:	48 8d 05 0d 1f 01 00 	lea    0x11f0d(%rip),%rax        # 294a0 <g_1521>
   17593:	48 39 85 70 e9 ff ff 	cmp    %rax,-0x1690(%rbp)
   1759a:	0f 95 c0             	setne  %al
   1759d:	0f b6 c0             	movzbl %al,%eax
   175a0:	be f9 ff ff ff       	mov    $0xfffffff9,%esi
   175a5:	89 c7                	mov    %eax,%edi
   175a7:	e8 be 2c ff ff       	callq  a26a <safe_div_func_int8_t_s_s>
   175ac:	0f be c0             	movsbl %al,%eax
   175af:	41 39 c5             	cmp    %eax,%r13d
   175b2:	0f 92 c0             	setb   %al
   175b5:	0f b6 d0             	movzbl %al,%edx
   175b8:	0f b7 85 74 e7 ff ff 	movzwl -0x188c(%rbp),%eax
   175bf:	39 c2                	cmp    %eax,%edx
   175c1:	0f 9f c0             	setg   %al
   175c4:	89 c2                	mov    %eax,%edx
   175c6:	48 8b 05 a3 1e 01 00 	mov    0x11ea3(%rip),%rax        # 29470 <g_1350>
   175cd:	48 8b 00             	mov    (%rax),%rax
   175d0:	21 d0                	and    %edx,%eax
   175d2:	0f be c0             	movsbl %al,%eax
   175d5:	44 89 e6             	mov    %r12d,%esi
   175d8:	89 c7                	mov    %eax,%edi
   175da:	e8 33 2c ff ff       	callq  a212 <safe_mul_func_int8_t_s_s>
   175df:	48 8b 05 e2 0f 01 00 	mov    0x10fe2(%rip),%rax        # 285c8 <g_1097>
   175e6:	0f b6 00             	movzbl (%rax),%eax
   175e9:	0f be c0             	movsbl %al,%eax
   175ec:	be 01 00 00 00       	mov    $0x1,%esi
   175f1:	89 c7                	mov    %eax,%edi
   175f3:	e8 1a 2c ff ff       	callq  a212 <safe_mul_func_int8_t_s_s>
   175f8:	48 0f be c0          	movsbq %al,%rax
   175fc:	48 89 de             	mov    %rbx,%rsi
   175ff:	48 89 c7             	mov    %rax,%rdi
   17602:	e8 f0 33 ff ff       	callq  a9f7 <safe_div_func_int64_t_s_s>
   17607:	48 8b 05 72 1e 01 00 	mov    0x11e72(%rip),%rax        # 29480 <g_1523>
   1760e:	0f b7 00             	movzwl (%rax),%eax
   17611:	b8 01 00 00 00       	mov    $0x1,%eax
   17616:	83 f8 f7             	cmp    $0xfffffff7,%eax
   17619:	0f 95 c0             	setne  %al
   1761c:	0f b6 c8             	movzbl %al,%ecx
   1761f:	48 8b 85 78 e9 ff ff 	mov    -0x1688(%rbp),%rax
   17626:	48 8b 10             	mov    (%rax),%rdx
   17629:	48 63 c1             	movslq %ecx,%rax
   1762c:	48 31 c2             	xor    %rax,%rdx
   1762f:	48 8b 85 78 e9 ff ff 	mov    -0x1688(%rbp),%rax
   17636:	48 89 10             	mov    %rdx,(%rax)
   17639:	48 8b 85 78 e9 ff ff 	mov    -0x1688(%rbp),%rax
   17640:	48 8b 10             	mov    (%rax),%rdx
   17643:	0f b7 85 74 e7 ff ff 	movzwl -0x188c(%rbp),%eax
   1764a:	48 31 d0             	xor    %rdx,%rax
   1764d:	48 3d 64 77 48 71    	cmp    $0x71487764,%rax
   17653:	74 11                	je     17666 <func_57+0x2c92>
   17655:	66 83 bd 74 e7 ff ff 	cmpw   $0x0,-0x188c(%rbp)
   1765c:	00 
   1765d:	74 07                	je     17666 <func_57+0x2c92>
   1765f:	ba 01 00 00 00       	mov    $0x1,%edx
   17664:	eb 05                	jmp    1766b <func_57+0x2c97>
   17666:	ba 00 00 00 00       	mov    $0x0,%edx
   1766b:	48 8b 05 56 0f 01 00 	mov    0x10f56(%rip),%rax        # 285c8 <g_1097>
   17672:	0f b6 00             	movzbl (%rax),%eax
   17675:	0f be c0             	movsbl %al,%eax
   17678:	21 c2                	and    %eax,%edx
   1767a:	0f b7 85 74 e7 ff ff 	movzwl -0x188c(%rbp),%eax
   17681:	39 c2                	cmp    %eax,%edx
   17683:	0f 8f 4e 03 00 00    	jg     179d7 <func_57+0x3003>
   17689:	66 c7 85 9c e7 ff ff 	movw   $0x1,-0x1864(%rbp)
   17690:	01 00 
   17692:	c7 85 f8 e8 ff ff fb 	movl   $0xfffffffb,-0x1708(%rbp)
   17699:	ff ff ff 
   1769c:	48 8d 05 b5 11 01 00 	lea    0x111b5(%rip),%rax        # 28858 <g_1227>
   176a3:	48 89 85 b8 e9 ff ff 	mov    %rax,-0x1648(%rbp)
   176aa:	c7 85 a0 f0 ff ff 01 	movl   $0x1,-0xf60(%rbp)
   176b1:	00 00 00 
   176b4:	c7 85 a4 f0 ff ff b7 	movl   $0x9e0abeb7,-0xf5c(%rbp)
   176bb:	be 0a 9e 
   176be:	c7 85 a8 f0 ff ff 01 	movl   $0x1,-0xf58(%rbp)
   176c5:	00 00 00 
   176c8:	c7 85 ac f0 ff ff 01 	movl   $0x1,-0xf54(%rbp)
   176cf:	00 00 00 
   176d2:	c7 85 b0 f0 ff ff b7 	movl   $0x9e0abeb7,-0xf50(%rbp)
   176d9:	be 0a 9e 
   176dc:	c7 85 b4 f0 ff ff 01 	movl   $0x1,-0xf4c(%rbp)
   176e3:	00 00 00 
   176e6:	c7 85 b8 f0 ff ff 01 	movl   $0x1,-0xf48(%rbp)
   176ed:	00 00 00 
   176f0:	c7 85 bc f0 ff ff b7 	movl   $0x9e0abeb7,-0xf44(%rbp)
   176f7:	be 0a 9e 
   176fa:	c7 85 c0 f0 ff ff 01 	movl   $0x1,-0xf40(%rbp)
   17701:	00 00 00 
   17704:	66 c7 85 00 f9 ff ff 	movw   $0xfff6,-0x700(%rbp)
   1770b:	f6 ff 
   1770d:	66 c7 85 02 f9 ff ff 	movw   $0x1,-0x6fe(%rbp)
   17714:	01 00 
   17716:	66 c7 85 04 f9 ff ff 	movw   $0xffff,-0x6fc(%rbp)
   1771d:	ff ff 
   1771f:	66 c7 85 06 f9 ff ff 	movw   $0xf537,-0x6fa(%rbp)
   17726:	37 f5 
   17728:	66 c7 85 08 f9 ff ff 	movw   $0xffff,-0x6f8(%rbp)
   1772f:	ff ff 
   17731:	66 c7 85 0a f9 ff ff 	movw   $0x1,-0x6f6(%rbp)
   17738:	01 00 
   1773a:	66 c7 85 0c f9 ff ff 	movw   $0xddfd,-0x6f4(%rbp)
   17741:	fd dd 
   17743:	66 c7 85 0e f9 ff ff 	movw   $0x7,-0x6f2(%rbp)
   1774a:	07 00 
   1774c:	66 c7 85 10 f9 ff ff 	movw   $0x1,-0x6f0(%rbp)
   17753:	01 00 
   17755:	66 c7 85 12 f9 ff ff 	movw   $0xffff,-0x6ee(%rbp)
   1775c:	ff ff 
   1775e:	66 c7 85 14 f9 ff ff 	movw   $0xffff,-0x6ec(%rbp)
   17765:	ff ff 
   17767:	66 c7 85 16 f9 ff ff 	movw   $0x7,-0x6ea(%rbp)
   1776e:	07 00 
   17770:	66 c7 85 18 f9 ff ff 	movw   $0xf344,-0x6e8(%rbp)
   17777:	44 f3 
   17779:	66 c7 85 1a f9 ff ff 	movw   $0x1,-0x6e6(%rbp)
   17780:	01 00 
   17782:	66 c7 85 1c f9 ff ff 	movw   $0x1,-0x6e4(%rbp)
   17789:	01 00 
   1778b:	66 c7 85 1e f9 ff ff 	movw   $0xf344,-0x6e2(%rbp)
   17792:	44 f3 
   17794:	66 c7 85 20 f9 ff ff 	movw   $0xa34d,-0x6e0(%rbp)
   1779b:	4d a3 
   1779d:	66 c7 85 22 f9 ff ff 	movw   $0xddfd,-0x6de(%rbp)
   177a4:	fd dd 
   177a6:	66 c7 85 24 f9 ff ff 	movw   $0xffff,-0x6dc(%rbp)
   177ad:	ff ff 
   177af:	66 c7 85 26 f9 ff ff 	movw   $0x1,-0x6da(%rbp)
   177b6:	01 00 
   177b8:	66 c7 85 28 f9 ff ff 	movw   $0x1,-0x6d8(%rbp)
   177bf:	01 00 
   177c1:	66 c7 85 2a f9 ff ff 	movw   $0xddfd,-0x6d6(%rbp)
   177c8:	fd dd 
   177ca:	66 c7 85 2c f9 ff ff 	movw   $0xf344,-0x6d4(%rbp)
   177d1:	44 f3 
   177d3:	66 c7 85 2e f9 ff ff 	movw   $0xddfd,-0x6d2(%rbp)
   177da:	fd dd 
   177dc:	66 c7 85 30 f9 ff ff 	movw   $0xf537,-0x6d0(%rbp)
   177e3:	37 f5 
   177e5:	66 c7 85 32 f9 ff ff 	movw   $0xfffa,-0x6ce(%rbp)
   177ec:	fa ff 
   177ee:	66 c7 85 34 f9 ff ff 	movw   $0x1,-0x6cc(%rbp)
   177f5:	01 00 
   177f7:	c7 85 24 e8 ff ff 40 	movl   $0xa3353e40,-0x17dc(%rbp)
   177fe:	3e 35 a3 
   17801:	c7 85 fc e7 ff ff 02 	movl   $0x2,-0x1804(%rbp)
   17808:	00 00 00 
   1780b:	e9 51 01 00 00       	jmpq   17961 <func_57+0x2f8d>
   17810:	c7 85 a0 ed ff ff 52 	movl   $0xaa608152,-0x1260(%rbp)
   17817:	81 60 aa 
   1781a:	c7 85 a4 ed ff ff 52 	movl   $0xaa608152,-0x125c(%rbp)
   17821:	81 60 aa 
   17824:	c7 85 a8 ed ff ff 52 	movl   $0xaa608152,-0x1258(%rbp)
   1782b:	81 60 aa 
   1782e:	c7 85 ac ed ff ff 52 	movl   $0xaa608152,-0x1254(%rbp)
   17835:	81 60 aa 
   17838:	c7 85 b0 ed ff ff 52 	movl   $0xaa608152,-0x1250(%rbp)
   1783f:	81 60 aa 
   17842:	c7 85 b4 ed ff ff 52 	movl   $0xaa608152,-0x124c(%rbp)
   17849:	81 60 aa 
   1784c:	c7 85 b8 ed ff ff 52 	movl   $0xaa608152,-0x1248(%rbp)
   17853:	81 60 aa 
   17856:	c7 85 28 e8 ff ff 06 	movl   $0xad9a6706,-0x17d8(%rbp)
   1785d:	67 9a ad 
   17860:	0f bf 85 9c e7 ff ff 	movswl -0x1864(%rbp),%eax
   17867:	89 85 f8 e8 ff ff    	mov    %eax,-0x1708(%rbp)
   1786d:	66 83 bd 74 e7 ff ff 	cmpw   $0x0,-0x188c(%rbp)
   17874:	00 
   17875:	0f 85 f5 00 00 00    	jne    17970 <func_57+0x2f9c>
   1787b:	c7 85 e8 e7 ff ff 08 	movl   $0x8,-0x1818(%rbp)
   17882:	00 00 00 
   17885:	eb 15                	jmp    1789c <func_57+0x2ec8>
   17887:	48 8b 05 b2 0f 01 00 	mov    0x10fb2(%rip),%rax        # 28840 <g_1222>
   1788e:	48 c7 00 00 00 00 00 	movq   $0x0,(%rax)
   17895:	83 ad e8 e7 ff ff 01 	subl   $0x1,-0x1818(%rbp)
   1789c:	83 bd e8 e7 ff ff 02 	cmpl   $0x2,-0x1818(%rbp)
   178a3:	7f e2                	jg     17887 <func_57+0x2eb3>
   178a5:	44 8b a5 ac ed ff ff 	mov    -0x1254(%rbp),%r12d
   178ac:	48 8b 85 68 e9 ff ff 	mov    -0x1698(%rbp),%rax
   178b3:	0f b7 00             	movzwl (%rax),%eax
   178b6:	8d 48 ff             	lea    -0x1(%rax),%ecx
   178b9:	48 8b 95 68 e9 ff ff 	mov    -0x1698(%rbp),%rdx
   178c0:	66 89 0a             	mov    %cx,(%rdx)
   178c3:	0f b7 d8             	movzwl %ax,%ebx
   178c6:	0f b7 85 74 e7 ff ff 	movzwl -0x188c(%rbp),%eax
   178cd:	98                   	cwtl   
   178ce:	be 01 00 00 00       	mov    $0x1,%esi
   178d3:	89 c7                	mov    %eax,%edi
   178d5:	e8 f9 2a ff ff       	callq  a3d3 <safe_sub_func_int16_t_s_s>
   178da:	66 83 f8 03          	cmp    $0x3,%ax
   178de:	0f 95 c0             	setne  %al
   178e1:	0f b6 c0             	movzbl %al,%eax
   178e4:	89 de                	mov    %ebx,%esi
   178e6:	89 c7                	mov    %eax,%edi
   178e8:	e8 19 35 ff ff       	callq  ae06 <safe_lshift_func_uint16_t_u_u>
   178ed:	98                   	cwtl   
   178ee:	89 c7                	mov    %eax,%edi
   178f0:	e8 a8 2a ff ff       	callq  a39d <safe_unary_minus_func_int16_t_s>
   178f5:	98                   	cwtl   
   178f6:	44 89 e2             	mov    %r12d,%edx
   178f9:	31 c2                	xor    %eax,%edx
   178fb:	48 8b 05 fe 0b 01 00 	mov    0x10bfe(%rip),%rax        # 28500 <g_896>
   17902:	48 8b 00             	mov    (%rax),%rax
   17905:	8b 00                	mov    (%rax),%eax
   17907:	21 d0                	and    %edx,%eax
   17909:	89 c2                	mov    %eax,%edx
   1790b:	48 8b 05 8e c7 00 00 	mov    0xc78e(%rip),%rax        # 240a0 <g_101>
   17912:	48 83 e8 01          	sub    $0x1,%rax
   17916:	48 89 05 83 c7 00 00 	mov    %rax,0xc783(%rip)        # 240a0 <g_101>
   1791d:	48 8b 05 7c c7 00 00 	mov    0xc77c(%rip),%rax        # 240a0 <g_101>
   17924:	48 89 d6             	mov    %rdx,%rsi
   17927:	48 89 c7             	mov    %rax,%rdi
   1792a:	e8 1c 37 ff ff       	callq  b04b <safe_sub_func_uint64_t_u_u>
   1792f:	48 89 c2             	mov    %rax,%rdx
   17932:	48 8b 05 3f 1b 01 00 	mov    0x11b3f(%rip),%rax        # 29478 <g_1351>
   17939:	48 8b 00             	mov    (%rax),%rax
   1793c:	48 89 d6             	mov    %rdx,%rsi
   1793f:	48 89 c7             	mov    %rax,%rdi
   17942:	e8 6d 30 ff ff       	callq  a9b4 <safe_mod_func_int64_t_s_s>
   17947:	83 bd dc e7 ff ff 00 	cmpl   $0x0,-0x1824(%rbp)
   1794e:	0f 94 c0             	sete   %al
   17951:	0f b6 c0             	movzbl %al,%eax
   17954:	31 85 28 e8 ff ff    	xor    %eax,-0x17d8(%rbp)
   1795a:	83 85 fc e7 ff ff 01 	addl   $0x1,-0x1804(%rbp)
   17961:	83 bd fc e7 ff ff 08 	cmpl   $0x8,-0x1804(%rbp)
   17968:	0f 8e a2 fe ff ff    	jle    17810 <func_57+0x2e3c>
   1796e:	eb 01                	jmp    17971 <func_57+0x2f9d>
   17970:	90                   	nop
   17971:	48 8b 05 38 0a 01 00 	mov    0x10a38(%rip),%rax        # 283b0 <g_265>
   17978:	48 8b 00             	mov    (%rax),%rax
   1797b:	48 8d 95 f8 e8 ff ff 	lea    -0x1708(%rbp),%rdx
   17982:	48 89 10             	mov    %rdx,(%rax)
   17985:	0f b7 85 74 e7 ff ff 	movzwl -0x188c(%rbp),%eax
   1798c:	0f be d0             	movsbl %al,%edx
   1798f:	48 8b 85 b8 e9 ff ff 	mov    -0x1648(%rbp),%rax
   17996:	48 89 05 6b 0b 01 00 	mov    %rax,0x10b6b(%rip)        # 28508 <g_969>
   1799d:	48 8b 0d 64 0b 01 00 	mov    0x10b64(%rip),%rcx        # 28508 <g_969>
   179a4:	48 8d 85 98 e8 ff ff 	lea    -0x1768(%rbp),%rax
   179ab:	48 39 c1             	cmp    %rax,%rcx
   179ae:	0f 95 c0             	setne  %al
   179b1:	0f b6 c0             	movzbl %al,%eax
   179b4:	89 d6                	mov    %edx,%esi
   179b6:	89 c7                	mov    %eax,%edi
   179b8:	e8 74 28 ff ff       	callq  a231 <safe_mod_func_int8_t_s_s>
   179bd:	89 c2                	mov    %eax,%edx
   179bf:	48 8b 05 d2 09 01 00 	mov    0x109d2(%rip),%rax        # 28398 <g_147>
   179c6:	0f be d2             	movsbl %dl,%edx
   179c9:	89 10                	mov    %edx,(%rax)
   179cb:	83 ad 24 e8 ff ff 01 	subl   $0x1,-0x17dc(%rbp)
   179d2:	e9 93 13 00 00       	jmpq   18d6a <func_57+0x4396>
   179d7:	48 8d 05 56 c6 00 00 	lea    0xc656(%rip),%rax        # 24034 <g_34>
   179de:	48 89 85 e8 e8 ff ff 	mov    %rax,-0x1718(%rbp)
   179e5:	48 8d 85 e8 e8 ff ff 	lea    -0x1718(%rbp),%rax
   179ec:	48 89 85 48 e9 ff ff 	mov    %rax,-0x16b8(%rbp)
   179f3:	c7 85 c0 ec ff ff 62 	movl   $0x8c5ac262,-0x1340(%rbp)
   179fa:	c2 5a 8c 
   179fd:	c7 85 c4 ec ff ff 62 	movl   $0x8c5ac262,-0x133c(%rbp)
   17a04:	c2 5a 8c 
   17a07:	c7 85 c8 ec ff ff 86 	movl   $0x3bbe8d86,-0x1338(%rbp)
   17a0e:	8d be 3b 
   17a11:	c7 85 cc ec ff ff 62 	movl   $0x8c5ac262,-0x1334(%rbp)
   17a18:	c2 5a 8c 
   17a1b:	c7 85 d0 ec ff ff 62 	movl   $0x8c5ac262,-0x1330(%rbp)
   17a22:	c2 5a 8c 
   17a25:	c7 85 d4 ec ff ff a6 	movl   $0xc9fa1da6,-0x132c(%rbp)
   17a2c:	1d fa c9 
   17a2f:	c7 85 d8 ec ff ff a6 	movl   $0xc9fa1da6,-0x1328(%rbp)
   17a36:	1d fa c9 
   17a39:	c7 85 dc ec ff ff 62 	movl   $0x8c5ac262,-0x1324(%rbp)
   17a40:	c2 5a 8c 
   17a43:	c7 85 e0 ec ff ff a6 	movl   $0xc9fa1da6,-0x1320(%rbp)
   17a4a:	1d fa c9 
   17a4d:	c7 85 e4 ec ff ff 62 	movl   $0x8c5ac262,-0x131c(%rbp)
   17a54:	c2 5a 8c 
   17a57:	c7 85 e8 ec ff ff a6 	movl   $0xc9fa1da6,-0x1318(%rbp)
   17a5e:	1d fa c9 
   17a61:	c7 85 ec ec ff ff a6 	movl   $0xc9fa1da6,-0x1314(%rbp)
   17a68:	1d fa c9 
   17a6b:	c7 85 f0 ec ff ff 62 	movl   $0x8c5ac262,-0x1310(%rbp)
   17a72:	c2 5a 8c 
   17a75:	c7 85 f4 ec ff ff 62 	movl   $0x8c5ac262,-0x130c(%rbp)
   17a7c:	c2 5a 8c 
   17a7f:	c7 85 f8 ec ff ff 86 	movl   $0x3bbe8d86,-0x1308(%rbp)
   17a86:	8d be 3b 
   17a89:	c7 85 fc ec ff ff 62 	movl   $0x8c5ac262,-0x1304(%rbp)
   17a90:	c2 5a 8c 
   17a93:	48 b8 26 da c4 bc f0 	movabs $0xa7547ef0bcc4da26,%rax
   17a9a:	7e 54 a7 
   17a9d:	48 89 85 50 e9 ff ff 	mov    %rax,-0x16b0(%rbp)
   17aa4:	48 c7 85 f0 e8 ff ff 	movq   $0x0,-0x1710(%rbp)
   17aab:	00 00 00 00 
   17aaf:	c7 85 d0 e7 ff ff fa 	movl   $0xfffffffa,-0x1830(%rbp)
   17ab6:	ff ff ff 
   17ab9:	66 c7 85 92 e7 ff ff 	movw   $0x35c7,-0x186e(%rbp)
   17ac0:	c7 35 
   17ac2:	8b 05 70 24 01 00    	mov    0x12470(%rip),%eax        # 29f38 <g_889>
   17ac8:	85 c0                	test   %eax,%eax
   17aca:	74 05                	je     17ad1 <func_57+0x30fd>
   17acc:	e9 eb d4 ff ff       	jmpq   14fbc <func_57+0x5e8>
   17ad1:	48 8b 05 28 09 01 00 	mov    0x10928(%rip),%rax        # 28400 <g_610>
   17ad8:	8b 10                	mov    (%rax),%edx
   17ada:	8b 05 2c 24 01 00    	mov    0x1242c(%rip),%eax        # 29f0c <g_65>
   17ae0:	09 d0                	or     %edx,%eax
   17ae2:	89 05 24 24 01 00    	mov    %eax,0x12424(%rip)        # 29f0c <g_65>
   17ae8:	66 c7 05 a9 c5 00 00 	movw   $0xfff4,0xc5a9(%rip)        # 2409a <g_98>
   17aef:	f4 ff 
   17af1:	e9 52 12 00 00       	jmpq   18d48 <func_57+0x4374>
   17af6:	c7 85 bc e7 ff ff e7 	movl   $0xae9862e7,-0x1844(%rbp)
   17afd:	62 98 ae 
   17b00:	48 8d 05 c9 0a 01 00 	lea    0x10ac9(%rip),%rax        # 285d0 <g_1200>
   17b07:	48 89 85 a0 ed ff ff 	mov    %rax,-0x1260(%rbp)
   17b0e:	48 8d 05 bb 0a 01 00 	lea    0x10abb(%rip),%rax        # 285d0 <g_1200>
   17b15:	48 89 85 a8 ed ff ff 	mov    %rax,-0x1258(%rbp)
   17b1c:	48 8d 05 ad 0a 01 00 	lea    0x10aad(%rip),%rax        # 285d0 <g_1200>
   17b23:	48 89 85 b0 ed ff ff 	mov    %rax,-0x1250(%rbp)
   17b2a:	48 8d 05 9f 0a 01 00 	lea    0x10a9f(%rip),%rax        # 285d0 <g_1200>
   17b31:	48 89 85 b8 ed ff ff 	mov    %rax,-0x1248(%rbp)
   17b38:	48 8d 05 91 0a 01 00 	lea    0x10a91(%rip),%rax        # 285d0 <g_1200>
   17b3f:	48 89 85 c0 ed ff ff 	mov    %rax,-0x1240(%rbp)
   17b46:	48 8d 05 83 0a 01 00 	lea    0x10a83(%rip),%rax        # 285d0 <g_1200>
   17b4d:	48 89 85 c8 ed ff ff 	mov    %rax,-0x1238(%rbp)
   17b54:	48 8d 05 75 0a 01 00 	lea    0x10a75(%rip),%rax        # 285d0 <g_1200>
   17b5b:	48 89 85 d0 ed ff ff 	mov    %rax,-0x1230(%rbp)
   17b62:	48 8d 05 67 0a 01 00 	lea    0x10a67(%rip),%rax        # 285d0 <g_1200>
   17b69:	48 89 85 d8 ed ff ff 	mov    %rax,-0x1228(%rbp)
   17b70:	48 8d 85 b8 e8 ff ff 	lea    -0x1748(%rbp),%rax
   17b77:	48 89 85 40 e9 ff ff 	mov    %rax,-0x16c0(%rbp)
   17b7e:	c7 85 c0 e7 ff ff ab 	movl   $0xcb6dc3ab,-0x1840(%rbp)
   17b85:	c3 6d cb 
   17b88:	c7 85 c4 e7 ff ff 9f 	movl   $0x2505ac9f,-0x183c(%rbp)
   17b8f:	ac 05 25 
   17b92:	c7 85 c8 e7 ff ff 00 	movl   $0x0,-0x1838(%rbp)
   17b99:	00 00 00 
   17b9c:	c7 85 cc e7 ff ff 42 	movl   $0x2cb78142,-0x1834(%rbp)
   17ba3:	81 b7 2c 
   17ba6:	48 83 bd 48 e9 ff ff 	cmpq   $0x0,-0x16b8(%rbp)
   17bad:	00 
   17bae:	0f 95 c0             	setne  %al
   17bb1:	0f b6 d0             	movzbl %al,%edx
   17bb4:	48 8b 85 68 e7 ff ff 	mov    -0x1898(%rbp),%rax
   17bbb:	0f b7 00             	movzwl (%rax),%eax
   17bbe:	0f b7 c0             	movzwl %ax,%eax
   17bc1:	89 d6                	mov    %edx,%esi
   17bc3:	89 c7                	mov    %eax,%edi
   17bc5:	e8 55 31 ff ff       	callq  ad1f <safe_sub_func_uint16_t_u_u>
   17bca:	66 39 85 74 e7 ff ff 	cmp    %ax,-0x188c(%rbp)
   17bd1:	8b 85 f0 ec ff ff    	mov    -0x1310(%rbp),%eax
   17bd7:	89 c6                	mov    %eax,%esi
   17bd9:	bf ca 7b 00 00       	mov    $0x7bca,%edi
   17bde:	e8 80 29 ff ff       	callq  a563 <safe_rshift_func_int16_t_s_u>
   17be3:	0f bf d0             	movswl %ax,%edx
   17be6:	48 8b 05 0b 09 01 00 	mov    0x1090b(%rip),%rax        # 284f8 <g_897>
   17bed:	8b 00                	mov    (%rax),%eax
   17bef:	39 c2                	cmp    %eax,%edx
   17bf1:	0f b7 85 74 e7 ff ff 	movzwl -0x188c(%rbp),%eax
   17bf8:	83 f0 01             	xor    $0x1,%eax
   17bfb:	0f b7 d0             	movzwl %ax,%edx
   17bfe:	48 8b 05 6b 18 01 00 	mov    0x1186b(%rip),%rax        # 29470 <g_1350>
   17c05:	48 8b 00             	mov    (%rax),%rax
   17c08:	48 09 d0             	or     %rdx,%rax
   17c0b:	48 85 c0             	test   %rax,%rax
   17c0e:	0f 84 1d 11 00 00    	je     18d31 <func_57+0x435d>
   17c14:	48 8d 05 bd 07 01 00 	lea    0x107bd(%rip),%rax        # 283d8 <g_400>
   17c1b:	48 89 85 f8 e8 ff ff 	mov    %rax,-0x1708(%rbp)
   17c22:	48 8d 85 f8 e8 ff ff 	lea    -0x1708(%rbp),%rax
   17c29:	48 89 85 28 e9 ff ff 	mov    %rax,-0x16d8(%rbp)
   17c30:	c7 85 b0 e7 ff ff 1f 	movl   $0xd2b7b21f,-0x1850(%rbp)
   17c37:	b2 b7 d2 
   17c3a:	c7 85 b4 e7 ff ff 00 	movl   $0x0,-0x184c(%rbp)
   17c41:	00 00 00 
   17c44:	48 c7 85 30 ec ff ff 	movq   $0x0,-0x13d0(%rbp)
   17c4b:	00 00 00 00 
   17c4f:	48 c7 85 38 ec ff ff 	movq   $0x0,-0x13c8(%rbp)
   17c56:	00 00 00 00 
   17c5a:	48 c7 85 40 ec ff ff 	movq   $0x0,-0x13c0(%rbp)
   17c61:	00 00 00 00 
   17c65:	48 c7 85 48 ec ff ff 	movq   $0x0,-0x13b8(%rbp)
   17c6c:	00 00 00 00 
   17c70:	48 c7 85 50 ec ff ff 	movq   $0x0,-0x13b0(%rbp)
   17c77:	00 00 00 00 
   17c7b:	48 c7 85 58 ec ff ff 	movq   $0x0,-0x13a8(%rbp)
   17c82:	00 00 00 00 
   17c86:	48 8d 05 43 18 01 00 	lea    0x11843(%rip),%rax        # 294d0 <g_1568>
   17c8d:	48 89 85 30 e9 ff ff 	mov    %rax,-0x16d0(%rbp)
   17c94:	48 8d 85 a0 f0 ff ff 	lea    -0xf60(%rbp),%rax
   17c9b:	48 8d 15 be 77 00 00 	lea    0x77be(%rip),%rdx        # 1f460 <g_3175+0x12bc>
   17ca2:	b9 23 00 00 00       	mov    $0x23,%ecx
   17ca7:	48 89 c7             	mov    %rax,%rdi
   17caa:	48 89 d6             	mov    %rdx,%rsi
   17cad:	f3 48 a5             	rep movsq %ds:(%rsi),%es:(%rdi)
   17cb0:	c7 85 b8 e7 ff ff 06 	movl   $0x6,-0x1848(%rbp)
   17cb7:	00 00 00 
   17cba:	8b 05 88 c8 00 00    	mov    0xc888(%rip),%eax        # 24548 <g_954>
   17cc0:	0f b6 d8             	movzbl %al,%ebx
   17cc3:	48 8b 05 36 c4 00 00 	mov    0xc436(%rip),%rax        # 24100 <g_251+0x10>
   17cca:	8b 05 68 22 01 00    	mov    0x12268(%rip),%eax        # 29f38 <g_889>
   17cd0:	44 0f be e0          	movsbl %al,%r12d
   17cd4:	48 8b 85 28 e9 ff ff 	mov    -0x16d8(%rbp),%rax
   17cdb:	48 8b 95 a8 e9 ff ff 	mov    -0x1658(%rbp),%rdx
   17ce2:	48 89 10             	mov    %rdx,(%rax)
   17ce5:	48 8b 85 28 e9 ff ff 	mov    -0x16d8(%rbp),%rax
   17cec:	48 8b 00             	mov    (%rax),%rax
   17cef:	48 39 85 a8 e9 ff ff 	cmp    %rax,-0x1658(%rbp)
   17cf6:	0f 95 c0             	setne  %al
   17cf9:	44 0f b6 e8          	movzbl %al,%r13d
   17cfd:	0f b7 85 74 e7 ff ff 	movzwl -0x188c(%rbp),%eax
   17d04:	89 85 f8 ec ff ff    	mov    %eax,-0x1308(%rbp)
   17d0a:	8b 95 f8 ec ff ff    	mov    -0x1308(%rbp),%edx
   17d10:	0f b7 85 74 e7 ff ff 	movzwl -0x188c(%rbp),%eax
   17d17:	89 d6                	mov    %edx,%esi
   17d19:	89 c7                	mov    %eax,%edi
   17d1b:	e8 e5 28 ff ff       	callq  a605 <safe_sub_func_int32_t_s_s>
   17d20:	48 98                	cltq   
   17d22:	48 39 85 50 e9 ff ff 	cmp    %rax,-0x16b0(%rbp)
   17d29:	0f 95 c0             	setne  %al
   17d2c:	0f b6 c0             	movzbl %al,%eax
   17d2f:	89 c7                	mov    %eax,%edi
   17d31:	e8 70 31 ff ff       	callq  aea6 <safe_unary_minus_func_uint32_t_u>
   17d36:	0f be d0             	movsbl %al,%edx
   17d39:	48 8b 05 88 08 01 00 	mov    0x10888(%rip),%rax        # 285c8 <g_1097>
   17d40:	0f b6 00             	movzbl (%rax),%eax
   17d43:	0f be c0             	movsbl %al,%eax
   17d46:	89 d6                	mov    %edx,%esi
   17d48:	89 c7                	mov    %eax,%edi
   17d4a:	e8 c3 24 ff ff       	callq  a212 <safe_mul_func_int8_t_s_s>
   17d4f:	be 01 00 00 00       	mov    $0x1,%esi
   17d54:	bf 00 00 00 00       	mov    $0x0,%edi
   17d59:	e8 f7 26 ff ff       	callq  a455 <safe_div_func_int16_t_s_s>
   17d5e:	98                   	cwtl   
   17d5f:	44 09 e8             	or     %r13d,%eax
   17d62:	89 85 b0 e7 ff ff    	mov    %eax,-0x1850(%rbp)
   17d68:	8b 85 b0 e7 ff ff    	mov    -0x1850(%rbp),%eax
   17d6e:	89 c6                	mov    %eax,%esi
   17d70:	bf 2b 9b 8c d5       	mov    $0xd58c9b2b,%edi
   17d75:	e8 8b 28 ff ff       	callq  a605 <safe_sub_func_int32_t_s_s>
   17d7a:	39 85 bc e7 ff ff    	cmp    %eax,-0x1844(%rbp)
   17d80:	0f 92 c0             	setb   %al
   17d83:	0f b6 c0             	movzbl %al,%eax
   17d86:	be 02 00 00 00       	mov    $0x2,%esi
   17d8b:	89 c7                	mov    %eax,%edi
   17d8d:	e8 e8 30 ff ff       	callq  ae7a <safe_rshift_func_uint16_t_u_u>
   17d92:	0f be c0             	movsbl %al,%eax
   17d95:	44 89 e6             	mov    %r12d,%esi
   17d98:	89 c7                	mov    %eax,%edi
   17d9a:	e8 92 24 ff ff       	callq  a231 <safe_mod_func_int8_t_s_s>
   17d9f:	84 c0                	test   %al,%al
   17da1:	48 8b 85 68 e7 ff ff 	mov    -0x1898(%rbp),%rax
   17da8:	0f b7 00             	movzwl (%rax),%eax
   17dab:	66 85 c0             	test   %ax,%ax
   17dae:	0f 94 c0             	sete   %al
   17db1:	0f b6 c0             	movzbl %al,%eax
   17db4:	be 4a 00 00 00       	mov    $0x4a,%esi
   17db9:	89 c7                	mov    %eax,%edi
   17dbb:	e8 b8 2d ff ff       	callq  ab78 <safe_sub_func_uint8_t_u_u>
   17dc0:	83 c8 f6             	or     $0xfffffff6,%eax
   17dc3:	3c 05                	cmp    $0x5,%al
   17dc5:	be 3a 0c 00 00       	mov    $0xc3a,%esi
   17dca:	bf ef 76 00 00       	mov    $0x76ef,%edi
   17dcf:	e8 69 2f ff ff       	callq  ad3d <safe_mul_func_uint16_t_u_u>
   17dd4:	0f b7 c0             	movzwl %ax,%eax
   17dd7:	48 39 85 50 e9 ff ff 	cmp    %rax,-0x16b0(%rbp)
   17dde:	0f 95 c0             	setne  %al
   17de1:	0f b6 c0             	movzbl %al,%eax
   17de4:	89 de                	mov    %ebx,%esi
   17de6:	89 c7                	mov    %eax,%edi
   17de8:	e8 a6 2d ff ff       	callq  ab93 <safe_mul_func_uint8_t_u_u>
   17ded:	48 8d 85 f0 e8 ff ff 	lea    -0x1710(%rbp),%rax
   17df4:	48 89 85 20 e9 ff ff 	mov    %rax,-0x16e0(%rbp)
   17dfb:	48 8b 05 ae 05 01 00 	mov    0x105ae(%rip),%rax        # 283b0 <g_265>
   17e02:	48 8b 00             	mov    (%rax),%rax
   17e05:	48 8d 95 c0 ec ff ff 	lea    -0x1340(%rbp),%rdx
   17e0c:	48 83 c2 30          	add    $0x30,%rdx
   17e10:	48 89 10             	mov    %rdx,(%rax)
   17e13:	48 8b 95 b8 ed ff ff 	mov    -0x1248(%rbp),%rdx
   17e1a:	48 8b 85 60 e9 ff ff 	mov    -0x16a0(%rbp),%rax
   17e21:	48 89 10             	mov    %rdx,(%rax)
   17e24:	48 8b 85 60 e9 ff ff 	mov    -0x16a0(%rbp),%rax
   17e2b:	48 8b 08             	mov    (%rax),%rcx
   17e2e:	48 8b 95 f0 e8 ff ff 	mov    -0x1710(%rbp),%rdx
   17e35:	48 8b 85 20 e9 ff ff 	mov    -0x16e0(%rbp),%rax
   17e3c:	48 89 10             	mov    %rdx,(%rax)
   17e3f:	48 8b 85 20 e9 ff ff 	mov    -0x16e0(%rbp),%rax
   17e46:	48 8b 00             	mov    (%rax),%rax
   17e49:	48 39 c1             	cmp    %rax,%rcx
   17e4c:	0f 94 c0             	sete   %al
   17e4f:	0f b6 d0             	movzbl %al,%edx
   17e52:	48 8b 05 1f 16 01 00 	mov    0x1161f(%rip),%rax        # 29478 <g_1351>
   17e59:	48 8b 00             	mov    (%rax),%rax
   17e5c:	48 b9 a4 8a 37 d4 ee 	movabs $0x5b55a8eed4378aa4,%rcx
   17e63:	a8 55 5b 
   17e66:	48 39 c8             	cmp    %rcx,%rax
   17e69:	0f 9f c0             	setg   %al
   17e6c:	0f b6 c0             	movzbl %al,%eax
   17e6f:	89 d6                	mov    %edx,%esi
   17e71:	89 c7                	mov    %eax,%edi
   17e73:	e8 40 30 ff ff       	callq  aeb8 <safe_add_func_uint32_t_u_u>
   17e78:	8b 85 b0 e7 ff ff    	mov    -0x1850(%rbp),%eax
   17e7e:	89 85 e8 ec ff ff    	mov    %eax,-0x1318(%rbp)
   17e84:	c7 85 b0 e7 ff ff ec 	movl   $0xffffffec,-0x1850(%rbp)
   17e8b:	ff ff ff 
   17e8e:	e9 b2 0d 00 00       	jmpq   18c45 <func_57+0x4271>
   17e93:	48 c7 85 00 e9 ff ff 	movq   $0x0,-0x1700(%rbp)
   17e9a:	00 00 00 00 
   17e9e:	48 8d 05 23 c2 00 00 	lea    0xc223(%rip),%rax        # 240c8 <g_213>
   17ea5:	48 89 85 08 e9 ff ff 	mov    %rax,-0x16f8(%rbp)
   17eac:	48 8d 85 b8 e8 ff ff 	lea    -0x1748(%rbp),%rax
   17eb3:	48 89 85 00 f9 ff ff 	mov    %rax,-0x700(%rbp)
   17eba:	48 c7 85 08 f9 ff ff 	movq   $0x0,-0x6f8(%rbp)
   17ec1:	00 00 00 00 
   17ec5:	48 8d 85 b8 e8 ff ff 	lea    -0x1748(%rbp),%rax
   17ecc:	48 89 85 10 f9 ff ff 	mov    %rax,-0x6f0(%rbp)
   17ed3:	48 8d 85 b8 e8 ff ff 	lea    -0x1748(%rbp),%rax
   17eda:	48 89 85 18 f9 ff ff 	mov    %rax,-0x6e8(%rbp)
   17ee1:	48 8d 85 b8 e8 ff ff 	lea    -0x1748(%rbp),%rax
   17ee8:	48 89 85 20 f9 ff ff 	mov    %rax,-0x6e0(%rbp)
   17eef:	48 8d 85 b8 e8 ff ff 	lea    -0x1748(%rbp),%rax
   17ef6:	48 89 85 28 f9 ff ff 	mov    %rax,-0x6d8(%rbp)
   17efd:	48 c7 85 30 f9 ff ff 	movq   $0x0,-0x6d0(%rbp)
   17f04:	00 00 00 00 
   17f08:	48 8d 85 b8 e8 ff ff 	lea    -0x1748(%rbp),%rax
   17f0f:	48 89 85 38 f9 ff ff 	mov    %rax,-0x6c8(%rbp)
   17f16:	48 8d 85 b8 e8 ff ff 	lea    -0x1748(%rbp),%rax
   17f1d:	48 89 85 40 f9 ff ff 	mov    %rax,-0x6c0(%rbp)
   17f24:	48 8d 85 b8 e8 ff ff 	lea    -0x1748(%rbp),%rax
   17f2b:	48 89 85 48 f9 ff ff 	mov    %rax,-0x6b8(%rbp)
   17f32:	48 8d 85 b8 e8 ff ff 	lea    -0x1748(%rbp),%rax
   17f39:	48 89 85 50 f9 ff ff 	mov    %rax,-0x6b0(%rbp)
   17f40:	48 c7 85 58 f9 ff ff 	movq   $0x0,-0x6a8(%rbp)
   17f47:	00 00 00 00 
   17f4b:	48 8d 85 b8 e8 ff ff 	lea    -0x1748(%rbp),%rax
   17f52:	48 89 85 60 f9 ff ff 	mov    %rax,-0x6a0(%rbp)
   17f59:	48 8d 85 b8 e8 ff ff 	lea    -0x1748(%rbp),%rax
   17f60:	48 89 85 68 f9 ff ff 	mov    %rax,-0x698(%rbp)
   17f67:	48 8d 85 b8 e8 ff ff 	lea    -0x1748(%rbp),%rax
   17f6e:	48 89 85 70 f9 ff ff 	mov    %rax,-0x690(%rbp)
   17f75:	48 8d 85 b8 e8 ff ff 	lea    -0x1748(%rbp),%rax
   17f7c:	48 89 85 78 f9 ff ff 	mov    %rax,-0x688(%rbp)
   17f83:	48 8d 85 b8 e8 ff ff 	lea    -0x1748(%rbp),%rax
   17f8a:	48 89 85 80 f9 ff ff 	mov    %rax,-0x680(%rbp)
   17f91:	48 8d 85 b8 e8 ff ff 	lea    -0x1748(%rbp),%rax
   17f98:	48 89 85 88 f9 ff ff 	mov    %rax,-0x678(%rbp)
   17f9f:	48 8d 85 b8 e8 ff ff 	lea    -0x1748(%rbp),%rax
   17fa6:	48 89 85 90 f9 ff ff 	mov    %rax,-0x670(%rbp)
   17fad:	48 c7 85 98 f9 ff ff 	movq   $0x0,-0x668(%rbp)
   17fb4:	00 00 00 00 
   17fb8:	48 c7 85 a0 f9 ff ff 	movq   $0x0,-0x660(%rbp)
   17fbf:	00 00 00 00 
   17fc3:	48 c7 85 a8 f9 ff ff 	movq   $0x0,-0x658(%rbp)
   17fca:	00 00 00 00 
   17fce:	48 8d 85 b8 e8 ff ff 	lea    -0x1748(%rbp),%rax
   17fd5:	48 89 85 b0 f9 ff ff 	mov    %rax,-0x650(%rbp)
   17fdc:	48 8d 85 b8 e8 ff ff 	lea    -0x1748(%rbp),%rax
   17fe3:	48 89 85 b8 f9 ff ff 	mov    %rax,-0x648(%rbp)
   17fea:	48 8d 85 b8 e8 ff ff 	lea    -0x1748(%rbp),%rax
   17ff1:	48 89 85 c0 f9 ff ff 	mov    %rax,-0x640(%rbp)
   17ff8:	48 8d 85 b8 e8 ff ff 	lea    -0x1748(%rbp),%rax
   17fff:	48 89 85 c8 f9 ff ff 	mov    %rax,-0x638(%rbp)
   18006:	48 8d 85 b8 e8 ff ff 	lea    -0x1748(%rbp),%rax
   1800d:	48 89 85 d0 f9 ff ff 	mov    %rax,-0x630(%rbp)
   18014:	48 8d 85 b8 e8 ff ff 	lea    -0x1748(%rbp),%rax
   1801b:	48 89 85 d8 f9 ff ff 	mov    %rax,-0x628(%rbp)
   18022:	48 8d 85 b8 e8 ff ff 	lea    -0x1748(%rbp),%rax
   18029:	48 89 85 e0 f9 ff ff 	mov    %rax,-0x620(%rbp)
   18030:	48 8d 85 b8 e8 ff ff 	lea    -0x1748(%rbp),%rax
   18037:	48 89 85 e8 f9 ff ff 	mov    %rax,-0x618(%rbp)
   1803e:	48 c7 85 f0 f9 ff ff 	movq   $0x0,-0x610(%rbp)
   18045:	00 00 00 00 
   18049:	48 8d 85 b8 e8 ff ff 	lea    -0x1748(%rbp),%rax
   18050:	48 89 85 f8 f9 ff ff 	mov    %rax,-0x608(%rbp)
   18057:	48 8d 85 b8 e8 ff ff 	lea    -0x1748(%rbp),%rax
   1805e:	48 89 85 00 fa ff ff 	mov    %rax,-0x600(%rbp)
   18065:	48 8d 85 b8 e8 ff ff 	lea    -0x1748(%rbp),%rax
   1806c:	48 89 85 08 fa ff ff 	mov    %rax,-0x5f8(%rbp)
   18073:	48 8d 85 b8 e8 ff ff 	lea    -0x1748(%rbp),%rax
   1807a:	48 89 85 10 fa ff ff 	mov    %rax,-0x5f0(%rbp)
   18081:	48 8d 85 b8 e8 ff ff 	lea    -0x1748(%rbp),%rax
   18088:	48 89 85 18 fa ff ff 	mov    %rax,-0x5e8(%rbp)
   1808f:	48 8d 85 b8 e8 ff ff 	lea    -0x1748(%rbp),%rax
   18096:	48 89 85 20 fa ff ff 	mov    %rax,-0x5e0(%rbp)
   1809d:	48 c7 85 28 fa ff ff 	movq   $0x0,-0x5d8(%rbp)
   180a4:	00 00 00 00 
   180a8:	48 8d 85 b8 e8 ff ff 	lea    -0x1748(%rbp),%rax
   180af:	48 89 85 30 fa ff ff 	mov    %rax,-0x5d0(%rbp)
   180b6:	48 8d 85 b8 e8 ff ff 	lea    -0x1748(%rbp),%rax
   180bd:	48 89 85 38 fa ff ff 	mov    %rax,-0x5c8(%rbp)
   180c4:	48 8d 85 b8 e8 ff ff 	lea    -0x1748(%rbp),%rax
   180cb:	48 89 85 40 fa ff ff 	mov    %rax,-0x5c0(%rbp)
   180d2:	48 c7 85 48 fa ff ff 	movq   $0x0,-0x5b8(%rbp)
   180d9:	00 00 00 00 
   180dd:	48 8d 85 b8 e8 ff ff 	lea    -0x1748(%rbp),%rax
   180e4:	48 89 85 50 fa ff ff 	mov    %rax,-0x5b0(%rbp)
   180eb:	48 c7 85 58 fa ff ff 	movq   $0x0,-0x5a8(%rbp)
   180f2:	00 00 00 00 
   180f6:	48 8d 85 b8 e8 ff ff 	lea    -0x1748(%rbp),%rax
   180fd:	48 89 85 60 fa ff ff 	mov    %rax,-0x5a0(%rbp)
   18104:	48 8d 85 b8 e8 ff ff 	lea    -0x1748(%rbp),%rax
   1810b:	48 89 85 68 fa ff ff 	mov    %rax,-0x598(%rbp)
   18112:	48 8d 85 b8 e8 ff ff 	lea    -0x1748(%rbp),%rax
   18119:	48 89 85 70 fa ff ff 	mov    %rax,-0x590(%rbp)
   18120:	48 c7 85 78 fa ff ff 	movq   $0x0,-0x588(%rbp)
   18127:	00 00 00 00 
   1812b:	48 c7 85 80 fa ff ff 	movq   $0x0,-0x580(%rbp)
   18132:	00 00 00 00 
   18136:	48 8d 85 b8 e8 ff ff 	lea    -0x1748(%rbp),%rax
   1813d:	48 89 85 88 fa ff ff 	mov    %rax,-0x578(%rbp)
   18144:	48 c7 85 90 fa ff ff 	movq   $0x0,-0x570(%rbp)
   1814b:	00 00 00 00 
   1814f:	48 c7 85 98 fa ff ff 	movq   $0x0,-0x568(%rbp)
   18156:	00 00 00 00 
   1815a:	48 8d 85 b8 e8 ff ff 	lea    -0x1748(%rbp),%rax
   18161:	48 89 85 a0 fa ff ff 	mov    %rax,-0x560(%rbp)
   18168:	48 c7 85 a8 fa ff ff 	movq   $0x0,-0x558(%rbp)
   1816f:	00 00 00 00 
   18173:	48 8d 85 b8 e8 ff ff 	lea    -0x1748(%rbp),%rax
   1817a:	48 89 85 b0 fa ff ff 	mov    %rax,-0x550(%rbp)
   18181:	48 8d 85 b8 e8 ff ff 	lea    -0x1748(%rbp),%rax
   18188:	48 89 85 b8 fa ff ff 	mov    %rax,-0x548(%rbp)
   1818f:	48 8d 85 b8 e8 ff ff 	lea    -0x1748(%rbp),%rax
   18196:	48 89 85 c0 fa ff ff 	mov    %rax,-0x540(%rbp)
   1819d:	48 c7 85 c8 fa ff ff 	movq   $0x0,-0x538(%rbp)
   181a4:	00 00 00 00 
   181a8:	48 8d 85 b8 e8 ff ff 	lea    -0x1748(%rbp),%rax
   181af:	48 89 85 d0 fa ff ff 	mov    %rax,-0x530(%rbp)
   181b6:	48 c7 85 d8 fa ff ff 	movq   $0x0,-0x528(%rbp)
   181bd:	00 00 00 00 
   181c1:	48 8d 85 b8 e8 ff ff 	lea    -0x1748(%rbp),%rax
   181c8:	48 89 85 e0 fa ff ff 	mov    %rax,-0x520(%rbp)
   181cf:	48 8d 85 b8 e8 ff ff 	lea    -0x1748(%rbp),%rax
   181d6:	48 89 85 e8 fa ff ff 	mov    %rax,-0x518(%rbp)
   181dd:	48 8d 85 b8 e8 ff ff 	lea    -0x1748(%rbp),%rax
   181e4:	48 89 85 f0 fa ff ff 	mov    %rax,-0x510(%rbp)
   181eb:	48 c7 85 f8 fa ff ff 	movq   $0x0,-0x508(%rbp)
   181f2:	00 00 00 00 
   181f6:	48 8d 85 b8 e8 ff ff 	lea    -0x1748(%rbp),%rax
   181fd:	48 89 85 00 fb ff ff 	mov    %rax,-0x500(%rbp)
   18204:	48 8d 85 b8 e8 ff ff 	lea    -0x1748(%rbp),%rax
   1820b:	48 89 85 08 fb ff ff 	mov    %rax,-0x4f8(%rbp)
   18212:	48 c7 85 10 fb ff ff 	movq   $0x0,-0x4f0(%rbp)
   18219:	00 00 00 00 
   1821d:	48 8d 85 b8 e8 ff ff 	lea    -0x1748(%rbp),%rax
   18224:	48 89 85 18 fb ff ff 	mov    %rax,-0x4e8(%rbp)
   1822b:	48 8d 85 b8 e8 ff ff 	lea    -0x1748(%rbp),%rax
   18232:	48 89 85 20 fb ff ff 	mov    %rax,-0x4e0(%rbp)
   18239:	48 8d 85 b8 e8 ff ff 	lea    -0x1748(%rbp),%rax
   18240:	48 89 85 28 fb ff ff 	mov    %rax,-0x4d8(%rbp)
   18247:	48 c7 85 30 fb ff ff 	movq   $0x0,-0x4d0(%rbp)
   1824e:	00 00 00 00 
   18252:	48 8d 85 b8 e8 ff ff 	lea    -0x1748(%rbp),%rax
   18259:	48 89 85 38 fb ff ff 	mov    %rax,-0x4c8(%rbp)
   18260:	48 8d 85 b8 e8 ff ff 	lea    -0x1748(%rbp),%rax
   18267:	48 89 85 40 fb ff ff 	mov    %rax,-0x4c0(%rbp)
   1826e:	48 8d 85 b8 e8 ff ff 	lea    -0x1748(%rbp),%rax
   18275:	48 89 85 48 fb ff ff 	mov    %rax,-0x4b8(%rbp)
   1827c:	48 8d 85 b8 e8 ff ff 	lea    -0x1748(%rbp),%rax
   18283:	48 89 85 50 fb ff ff 	mov    %rax,-0x4b0(%rbp)
   1828a:	48 8d 85 b8 e8 ff ff 	lea    -0x1748(%rbp),%rax
   18291:	48 89 85 58 fb ff ff 	mov    %rax,-0x4a8(%rbp)
   18298:	48 c7 85 60 fb ff ff 	movq   $0x0,-0x4a0(%rbp)
   1829f:	00 00 00 00 
   182a3:	48 8d 85 b8 e8 ff ff 	lea    -0x1748(%rbp),%rax
   182aa:	48 89 85 68 fb ff ff 	mov    %rax,-0x498(%rbp)
   182b1:	48 8d 85 b8 e8 ff ff 	lea    -0x1748(%rbp),%rax
   182b8:	48 89 85 70 fb ff ff 	mov    %rax,-0x490(%rbp)
   182bf:	48 8d 85 b8 e8 ff ff 	lea    -0x1748(%rbp),%rax
   182c6:	48 89 85 78 fb ff ff 	mov    %rax,-0x488(%rbp)
   182cd:	48 c7 85 80 fb ff ff 	movq   $0x0,-0x480(%rbp)
   182d4:	00 00 00 00 
   182d8:	48 8d 85 b8 e8 ff ff 	lea    -0x1748(%rbp),%rax
   182df:	48 89 85 88 fb ff ff 	mov    %rax,-0x478(%rbp)
   182e6:	48 c7 85 90 fb ff ff 	movq   $0x0,-0x470(%rbp)
   182ed:	00 00 00 00 
   182f1:	48 8d 85 b8 e8 ff ff 	lea    -0x1748(%rbp),%rax
   182f8:	48 89 85 98 fb ff ff 	mov    %rax,-0x468(%rbp)
   182ff:	48 8d 85 b8 e8 ff ff 	lea    -0x1748(%rbp),%rax
   18306:	48 89 85 a0 fb ff ff 	mov    %rax,-0x460(%rbp)
   1830d:	48 8d 85 b8 e8 ff ff 	lea    -0x1748(%rbp),%rax
   18314:	48 89 85 a8 fb ff ff 	mov    %rax,-0x458(%rbp)
   1831b:	48 8d 85 b8 e8 ff ff 	lea    -0x1748(%rbp),%rax
   18322:	48 89 85 b0 fb ff ff 	mov    %rax,-0x450(%rbp)
   18329:	48 8d 85 b8 e8 ff ff 	lea    -0x1748(%rbp),%rax
   18330:	48 89 85 b8 fb ff ff 	mov    %rax,-0x448(%rbp)
   18337:	48 8d 85 b8 e8 ff ff 	lea    -0x1748(%rbp),%rax
   1833e:	48 89 85 c0 fb ff ff 	mov    %rax,-0x440(%rbp)
   18345:	48 c7 85 c8 fb ff ff 	movq   $0x0,-0x438(%rbp)
   1834c:	00 00 00 00 
   18350:	48 8d 85 b8 e8 ff ff 	lea    -0x1748(%rbp),%rax
   18357:	48 89 85 d0 fb ff ff 	mov    %rax,-0x430(%rbp)
   1835e:	48 c7 85 d8 fb ff ff 	movq   $0x0,-0x428(%rbp)
   18365:	00 00 00 00 
   18369:	48 8d 85 b8 e8 ff ff 	lea    -0x1748(%rbp),%rax
   18370:	48 89 85 e0 fb ff ff 	mov    %rax,-0x420(%rbp)
   18377:	48 8d 85 b8 e8 ff ff 	lea    -0x1748(%rbp),%rax
   1837e:	48 89 85 e8 fb ff ff 	mov    %rax,-0x418(%rbp)
   18385:	48 c7 85 f0 fb ff ff 	movq   $0x0,-0x410(%rbp)
   1838c:	00 00 00 00 
   18390:	48 8d 85 b8 e8 ff ff 	lea    -0x1748(%rbp),%rax
   18397:	48 89 85 f8 fb ff ff 	mov    %rax,-0x408(%rbp)
   1839e:	48 c7 85 00 fc ff ff 	movq   $0x0,-0x400(%rbp)
   183a5:	00 00 00 00 
   183a9:	48 8d 85 b8 e8 ff ff 	lea    -0x1748(%rbp),%rax
   183b0:	48 89 85 08 fc ff ff 	mov    %rax,-0x3f8(%rbp)
   183b7:	48 8d 85 b8 e8 ff ff 	lea    -0x1748(%rbp),%rax
   183be:	48 89 85 10 fc ff ff 	mov    %rax,-0x3f0(%rbp)
   183c5:	48 c7 85 18 fc ff ff 	movq   $0x0,-0x3e8(%rbp)
   183cc:	00 00 00 00 
   183d0:	48 8d 85 b8 e8 ff ff 	lea    -0x1748(%rbp),%rax
   183d7:	48 89 85 20 fc ff ff 	mov    %rax,-0x3e0(%rbp)
   183de:	48 8d 85 b8 e8 ff ff 	lea    -0x1748(%rbp),%rax
   183e5:	48 89 85 28 fc ff ff 	mov    %rax,-0x3d8(%rbp)
   183ec:	48 8d 85 b8 e8 ff ff 	lea    -0x1748(%rbp),%rax
   183f3:	48 89 85 30 fc ff ff 	mov    %rax,-0x3d0(%rbp)
   183fa:	48 8d 85 b8 e8 ff ff 	lea    -0x1748(%rbp),%rax
   18401:	48 89 85 38 fc ff ff 	mov    %rax,-0x3c8(%rbp)
   18408:	48 8d 85 b8 e8 ff ff 	lea    -0x1748(%rbp),%rax
   1840f:	48 89 85 40 fc ff ff 	mov    %rax,-0x3c0(%rbp)
   18416:	48 c7 85 48 fc ff ff 	movq   $0x0,-0x3b8(%rbp)
   1841d:	00 00 00 00 
   18421:	48 8d 85 b8 e8 ff ff 	lea    -0x1748(%rbp),%rax
   18428:	48 89 85 50 fc ff ff 	mov    %rax,-0x3b0(%rbp)
   1842f:	48 8d 85 b8 e8 ff ff 	lea    -0x1748(%rbp),%rax
   18436:	48 89 85 58 fc ff ff 	mov    %rax,-0x3a8(%rbp)
   1843d:	48 8d 85 b8 e8 ff ff 	lea    -0x1748(%rbp),%rax
   18444:	48 89 85 60 fc ff ff 	mov    %rax,-0x3a0(%rbp)
   1844b:	48 c7 85 68 fc ff ff 	movq   $0x0,-0x398(%rbp)
   18452:	00 00 00 00 
   18456:	48 8d 85 b8 e8 ff ff 	lea    -0x1748(%rbp),%rax
   1845d:	48 89 85 70 fc ff ff 	mov    %rax,-0x390(%rbp)
   18464:	48 c7 85 78 fc ff ff 	movq   $0x0,-0x388(%rbp)
   1846b:	00 00 00 00 
   1846f:	48 8d 85 b8 e8 ff ff 	lea    -0x1748(%rbp),%rax
   18476:	48 89 85 80 fc ff ff 	mov    %rax,-0x380(%rbp)
   1847d:	48 c7 85 88 fc ff ff 	movq   $0x0,-0x378(%rbp)
   18484:	00 00 00 00 
   18488:	48 c7 85 90 fc ff ff 	movq   $0x0,-0x370(%rbp)
   1848f:	00 00 00 00 
   18493:	48 c7 85 98 fc ff ff 	movq   $0x0,-0x368(%rbp)
   1849a:	00 00 00 00 
   1849e:	48 8d 85 b8 e8 ff ff 	lea    -0x1748(%rbp),%rax
   184a5:	48 89 85 a0 fc ff ff 	mov    %rax,-0x360(%rbp)
   184ac:	48 8d 85 b8 e8 ff ff 	lea    -0x1748(%rbp),%rax
   184b3:	48 89 85 a8 fc ff ff 	mov    %rax,-0x358(%rbp)
   184ba:	48 8d 85 b8 e8 ff ff 	lea    -0x1748(%rbp),%rax
   184c1:	48 89 85 b0 fc ff ff 	mov    %rax,-0x350(%rbp)
   184c8:	48 8d 85 b8 e8 ff ff 	lea    -0x1748(%rbp),%rax
   184cf:	48 89 85 b8 fc ff ff 	mov    %rax,-0x348(%rbp)
   184d6:	48 8d 85 b8 e8 ff ff 	lea    -0x1748(%rbp),%rax
   184dd:	48 89 85 c0 fc ff ff 	mov    %rax,-0x340(%rbp)
   184e4:	48 8d 85 b8 e8 ff ff 	lea    -0x1748(%rbp),%rax
   184eb:	48 89 85 c8 fc ff ff 	mov    %rax,-0x338(%rbp)
   184f2:	48 8d 85 b8 e8 ff ff 	lea    -0x1748(%rbp),%rax
   184f9:	48 89 85 d0 fc ff ff 	mov    %rax,-0x330(%rbp)
   18500:	48 8d 85 b8 e8 ff ff 	lea    -0x1748(%rbp),%rax
   18507:	48 89 85 d8 fc ff ff 	mov    %rax,-0x328(%rbp)
   1850e:	48 8d 85 b8 e8 ff ff 	lea    -0x1748(%rbp),%rax
   18515:	48 89 85 e0 fc ff ff 	mov    %rax,-0x320(%rbp)
   1851c:	48 8d 85 b8 e8 ff ff 	lea    -0x1748(%rbp),%rax
   18523:	48 89 85 e8 fc ff ff 	mov    %rax,-0x318(%rbp)
   1852a:	48 8d 85 b8 e8 ff ff 	lea    -0x1748(%rbp),%rax
   18531:	48 89 85 f0 fc ff ff 	mov    %rax,-0x310(%rbp)
   18538:	48 8d 85 b8 e8 ff ff 	lea    -0x1748(%rbp),%rax
   1853f:	48 89 85 f8 fc ff ff 	mov    %rax,-0x308(%rbp)
   18546:	48 c7 85 00 fd ff ff 	movq   $0x0,-0x300(%rbp)
   1854d:	00 00 00 00 
   18551:	48 8d 85 b8 e8 ff ff 	lea    -0x1748(%rbp),%rax
   18558:	48 89 85 08 fd ff ff 	mov    %rax,-0x2f8(%rbp)
   1855f:	48 c7 85 10 fd ff ff 	movq   $0x0,-0x2f0(%rbp)
   18566:	00 00 00 00 
   1856a:	48 8d 85 b8 e8 ff ff 	lea    -0x1748(%rbp),%rax
   18571:	48 89 85 18 fd ff ff 	mov    %rax,-0x2e8(%rbp)
   18578:	48 c7 85 20 fd ff ff 	movq   $0x0,-0x2e0(%rbp)
   1857f:	00 00 00 00 
   18583:	48 c7 85 28 fd ff ff 	movq   $0x0,-0x2d8(%rbp)
   1858a:	00 00 00 00 
   1858e:	48 8d 85 b8 e8 ff ff 	lea    -0x1748(%rbp),%rax
   18595:	48 89 85 30 fd ff ff 	mov    %rax,-0x2d0(%rbp)
   1859c:	48 8d 85 b8 e8 ff ff 	lea    -0x1748(%rbp),%rax
   185a3:	48 89 85 38 fd ff ff 	mov    %rax,-0x2c8(%rbp)
   185aa:	48 8d 85 b8 e8 ff ff 	lea    -0x1748(%rbp),%rax
   185b1:	48 89 85 40 fd ff ff 	mov    %rax,-0x2c0(%rbp)
   185b8:	48 c7 85 48 fd ff ff 	movq   $0x0,-0x2b8(%rbp)
   185bf:	00 00 00 00 
   185c3:	48 8d 85 b8 e8 ff ff 	lea    -0x1748(%rbp),%rax
   185ca:	48 89 85 50 fd ff ff 	mov    %rax,-0x2b0(%rbp)
   185d1:	48 8d 85 b8 e8 ff ff 	lea    -0x1748(%rbp),%rax
   185d8:	48 89 85 58 fd ff ff 	mov    %rax,-0x2a8(%rbp)
   185df:	48 8d 85 b8 e8 ff ff 	lea    -0x1748(%rbp),%rax
   185e6:	48 89 85 60 fd ff ff 	mov    %rax,-0x2a0(%rbp)
   185ed:	48 c7 85 68 fd ff ff 	movq   $0x0,-0x298(%rbp)
   185f4:	00 00 00 00 
   185f8:	48 c7 85 70 fd ff ff 	movq   $0x0,-0x290(%rbp)
   185ff:	00 00 00 00 
   18603:	48 8d 85 b8 e8 ff ff 	lea    -0x1748(%rbp),%rax
   1860a:	48 89 85 78 fd ff ff 	mov    %rax,-0x288(%rbp)
   18611:	48 8d 85 b8 e8 ff ff 	lea    -0x1748(%rbp),%rax
   18618:	48 89 85 80 fd ff ff 	mov    %rax,-0x280(%rbp)
   1861f:	48 8d 85 b8 e8 ff ff 	lea    -0x1748(%rbp),%rax
   18626:	48 89 85 88 fd ff ff 	mov    %rax,-0x278(%rbp)
   1862d:	48 8d 85 b8 e8 ff ff 	lea    -0x1748(%rbp),%rax
   18634:	48 89 85 90 fd ff ff 	mov    %rax,-0x270(%rbp)
   1863b:	48 8d 85 b8 e8 ff ff 	lea    -0x1748(%rbp),%rax
   18642:	48 89 85 98 fd ff ff 	mov    %rax,-0x268(%rbp)
   18649:	48 c7 85 a0 fd ff ff 	movq   $0x0,-0x260(%rbp)
   18650:	00 00 00 00 
   18654:	48 c7 85 a8 fd ff ff 	movq   $0x0,-0x258(%rbp)
   1865b:	00 00 00 00 
   1865f:	48 8d 85 b8 e8 ff ff 	lea    -0x1748(%rbp),%rax
   18666:	48 89 85 b0 fd ff ff 	mov    %rax,-0x250(%rbp)
   1866d:	48 8d 85 b8 e8 ff ff 	lea    -0x1748(%rbp),%rax
   18674:	48 89 85 b8 fd ff ff 	mov    %rax,-0x248(%rbp)
   1867b:	48 8d 85 b8 e8 ff ff 	lea    -0x1748(%rbp),%rax
   18682:	48 89 85 c0 fd ff ff 	mov    %rax,-0x240(%rbp)
   18689:	48 8d 85 b8 e8 ff ff 	lea    -0x1748(%rbp),%rax
   18690:	48 89 85 c8 fd ff ff 	mov    %rax,-0x238(%rbp)
   18697:	48 c7 85 d0 fd ff ff 	movq   $0x0,-0x230(%rbp)
   1869e:	00 00 00 00 
   186a2:	48 8d 85 b8 e8 ff ff 	lea    -0x1748(%rbp),%rax
   186a9:	48 89 85 d8 fd ff ff 	mov    %rax,-0x228(%rbp)
   186b0:	48 c7 85 e0 fd ff ff 	movq   $0x0,-0x220(%rbp)
   186b7:	00 00 00 00 
   186bb:	48 8d 85 b8 e8 ff ff 	lea    -0x1748(%rbp),%rax
   186c2:	48 89 85 e8 fd ff ff 	mov    %rax,-0x218(%rbp)
   186c9:	48 c7 85 f0 fd ff ff 	movq   $0x0,-0x210(%rbp)
   186d0:	00 00 00 00 
   186d4:	48 8d 85 b8 e8 ff ff 	lea    -0x1748(%rbp),%rax
   186db:	48 89 85 f8 fd ff ff 	mov    %rax,-0x208(%rbp)
   186e2:	48 8d 85 b8 e8 ff ff 	lea    -0x1748(%rbp),%rax
   186e9:	48 89 85 00 fe ff ff 	mov    %rax,-0x200(%rbp)
   186f0:	48 8d 85 b8 e8 ff ff 	lea    -0x1748(%rbp),%rax
   186f7:	48 89 85 08 fe ff ff 	mov    %rax,-0x1f8(%rbp)
   186fe:	48 8d 85 b8 e8 ff ff 	lea    -0x1748(%rbp),%rax
   18705:	48 89 85 10 fe ff ff 	mov    %rax,-0x1f0(%rbp)
   1870c:	48 c7 85 18 fe ff ff 	movq   $0x0,-0x1e8(%rbp)
   18713:	00 00 00 00 
   18717:	48 8d 85 b8 e8 ff ff 	lea    -0x1748(%rbp),%rax
   1871e:	48 89 85 20 fe ff ff 	mov    %rax,-0x1e0(%rbp)
   18725:	48 c7 85 28 fe ff ff 	movq   $0x0,-0x1d8(%rbp)
   1872c:	00 00 00 00 
   18730:	48 8d 85 b8 e8 ff ff 	lea    -0x1748(%rbp),%rax
   18737:	48 89 85 30 fe ff ff 	mov    %rax,-0x1d0(%rbp)
   1873e:	48 8d 85 b8 e8 ff ff 	lea    -0x1748(%rbp),%rax
   18745:	48 89 85 38 fe ff ff 	mov    %rax,-0x1c8(%rbp)
   1874c:	48 8d 85 b8 e8 ff ff 	lea    -0x1748(%rbp),%rax
   18753:	48 89 85 40 fe ff ff 	mov    %rax,-0x1c0(%rbp)
   1875a:	48 8d 85 b8 e8 ff ff 	lea    -0x1748(%rbp),%rax
   18761:	48 89 85 48 fe ff ff 	mov    %rax,-0x1b8(%rbp)
   18768:	48 8d 85 b8 e8 ff ff 	lea    -0x1748(%rbp),%rax
   1876f:	48 89 85 50 fe ff ff 	mov    %rax,-0x1b0(%rbp)
   18776:	48 8d 85 b8 e8 ff ff 	lea    -0x1748(%rbp),%rax
   1877d:	48 89 85 58 fe ff ff 	mov    %rax,-0x1a8(%rbp)
   18784:	48 8d 85 b8 e8 ff ff 	lea    -0x1748(%rbp),%rax
   1878b:	48 89 85 60 fe ff ff 	mov    %rax,-0x1a0(%rbp)
   18792:	48 8d 85 b8 e8 ff ff 	lea    -0x1748(%rbp),%rax
   18799:	48 89 85 68 fe ff ff 	mov    %rax,-0x198(%rbp)
   187a0:	48 8d 85 b8 e8 ff ff 	lea    -0x1748(%rbp),%rax
   187a7:	48 89 85 70 fe ff ff 	mov    %rax,-0x190(%rbp)
   187ae:	48 8d 85 b8 e8 ff ff 	lea    -0x1748(%rbp),%rax
   187b5:	48 89 85 78 fe ff ff 	mov    %rax,-0x188(%rbp)
   187bc:	48 c7 85 80 fe ff ff 	movq   $0x0,-0x180(%rbp)
   187c3:	00 00 00 00 
   187c7:	48 8d 85 b8 e8 ff ff 	lea    -0x1748(%rbp),%rax
   187ce:	48 89 85 88 fe ff ff 	mov    %rax,-0x178(%rbp)
   187d5:	48 8d 85 b8 e8 ff ff 	lea    -0x1748(%rbp),%rax
   187dc:	48 89 85 90 fe ff ff 	mov    %rax,-0x170(%rbp)
   187e3:	48 8d 85 b8 e8 ff ff 	lea    -0x1748(%rbp),%rax
   187ea:	48 89 85 98 fe ff ff 	mov    %rax,-0x168(%rbp)
   187f1:	48 8d 85 b8 e8 ff ff 	lea    -0x1748(%rbp),%rax
   187f8:	48 89 85 a0 fe ff ff 	mov    %rax,-0x160(%rbp)
   187ff:	48 c7 85 a8 fe ff ff 	movq   $0x0,-0x158(%rbp)
   18806:	00 00 00 00 
   1880a:	48 8d 85 b8 e8 ff ff 	lea    -0x1748(%rbp),%rax
   18811:	48 89 85 b0 fe ff ff 	mov    %rax,-0x150(%rbp)
   18818:	48 c7 85 b8 fe ff ff 	movq   $0x0,-0x148(%rbp)
   1881f:	00 00 00 00 
   18823:	48 8d 85 b8 e8 ff ff 	lea    -0x1748(%rbp),%rax
   1882a:	48 89 85 c0 fe ff ff 	mov    %rax,-0x140(%rbp)
   18831:	48 8d 85 b8 e8 ff ff 	lea    -0x1748(%rbp),%rax
   18838:	48 89 85 c8 fe ff ff 	mov    %rax,-0x138(%rbp)
   1883f:	48 8d 85 b8 e8 ff ff 	lea    -0x1748(%rbp),%rax
   18846:	48 89 85 d0 fe ff ff 	mov    %rax,-0x130(%rbp)
   1884d:	48 8d 85 b8 e8 ff ff 	lea    -0x1748(%rbp),%rax
   18854:	48 89 85 d8 fe ff ff 	mov    %rax,-0x128(%rbp)
   1885b:	48 8d 85 b8 e8 ff ff 	lea    -0x1748(%rbp),%rax
   18862:	48 89 85 e0 fe ff ff 	mov    %rax,-0x120(%rbp)
   18869:	48 c7 85 e8 fe ff ff 	movq   $0x0,-0x118(%rbp)
   18870:	00 00 00 00 
   18874:	48 8d 85 b8 e8 ff ff 	lea    -0x1748(%rbp),%rax
   1887b:	48 89 85 f0 fe ff ff 	mov    %rax,-0x110(%rbp)
   18882:	48 8d 85 b8 e8 ff ff 	lea    -0x1748(%rbp),%rax
   18889:	48 89 85 f8 fe ff ff 	mov    %rax,-0x108(%rbp)
   18890:	48 8d 85 b8 e8 ff ff 	lea    -0x1748(%rbp),%rax
   18897:	48 89 85 00 ff ff ff 	mov    %rax,-0x100(%rbp)
   1889e:	48 8d 85 b8 e8 ff ff 	lea    -0x1748(%rbp),%rax
   188a5:	48 89 85 08 ff ff ff 	mov    %rax,-0xf8(%rbp)
   188ac:	48 8d 85 b8 e8 ff ff 	lea    -0x1748(%rbp),%rax
   188b3:	48 89 85 10 ff ff ff 	mov    %rax,-0xf0(%rbp)
   188ba:	48 8d 85 b8 e8 ff ff 	lea    -0x1748(%rbp),%rax
   188c1:	48 89 85 18 ff ff ff 	mov    %rax,-0xe8(%rbp)
   188c8:	48 8d 85 b8 e8 ff ff 	lea    -0x1748(%rbp),%rax
   188cf:	48 89 85 20 ff ff ff 	mov    %rax,-0xe0(%rbp)
   188d6:	48 c7 85 28 ff ff ff 	movq   $0x0,-0xd8(%rbp)
   188dd:	00 00 00 00 
   188e1:	48 c7 85 30 ff ff ff 	movq   $0x0,-0xd0(%rbp)
   188e8:	00 00 00 00 
   188ec:	48 8d 85 b8 e8 ff ff 	lea    -0x1748(%rbp),%rax
   188f3:	48 89 85 38 ff ff ff 	mov    %rax,-0xc8(%rbp)
   188fa:	48 c7 85 40 ff ff ff 	movq   $0x0,-0xc0(%rbp)
   18901:	00 00 00 00 
   18905:	48 8d 85 b8 e8 ff ff 	lea    -0x1748(%rbp),%rax
   1890c:	48 89 85 48 ff ff ff 	mov    %rax,-0xb8(%rbp)
   18913:	48 8d 85 b8 e8 ff ff 	lea    -0x1748(%rbp),%rax
   1891a:	48 89 85 50 ff ff ff 	mov    %rax,-0xb0(%rbp)
   18921:	48 8d 85 b8 e8 ff ff 	lea    -0x1748(%rbp),%rax
   18928:	48 89 85 58 ff ff ff 	mov    %rax,-0xa8(%rbp)
   1892f:	48 c7 85 60 ff ff ff 	movq   $0x0,-0xa0(%rbp)
   18936:	00 00 00 00 
   1893a:	48 8d 85 b8 e8 ff ff 	lea    -0x1748(%rbp),%rax
   18941:	48 89 85 68 ff ff ff 	mov    %rax,-0x98(%rbp)
   18948:	48 8d 85 b8 e8 ff ff 	lea    -0x1748(%rbp),%rax
   1894f:	48 89 85 70 ff ff ff 	mov    %rax,-0x90(%rbp)
   18956:	48 8d 85 b8 e8 ff ff 	lea    -0x1748(%rbp),%rax
   1895d:	48 89 85 78 ff ff ff 	mov    %rax,-0x88(%rbp)
   18964:	48 8d 85 b8 e8 ff ff 	lea    -0x1748(%rbp),%rax
   1896b:	48 89 45 80          	mov    %rax,-0x80(%rbp)
   1896f:	48 8d 85 b8 e8 ff ff 	lea    -0x1748(%rbp),%rax
   18976:	48 89 45 88          	mov    %rax,-0x78(%rbp)
   1897a:	48 c7 45 90 00 00 00 	movq   $0x0,-0x70(%rbp)
   18981:	00 
   18982:	48 8d 85 b8 e8 ff ff 	lea    -0x1748(%rbp),%rax
   18989:	48 89 45 98          	mov    %rax,-0x68(%rbp)
   1898d:	48 8d 85 b8 e8 ff ff 	lea    -0x1748(%rbp),%rax
   18994:	48 89 45 a0          	mov    %rax,-0x60(%rbp)
   18998:	48 8d 85 b8 e8 ff ff 	lea    -0x1748(%rbp),%rax
   1899f:	48 89 45 a8          	mov    %rax,-0x58(%rbp)
   189a3:	48 8d 85 b8 e8 ff ff 	lea    -0x1748(%rbp),%rax
   189aa:	48 89 45 b0          	mov    %rax,-0x50(%rbp)
   189ae:	48 8d 85 b8 e8 ff ff 	lea    -0x1748(%rbp),%rax
   189b5:	48 89 45 b8          	mov    %rax,-0x48(%rbp)
   189b9:	48 8d 05 70 b9 00 00 	lea    0xb970(%rip),%rax        # 24330 <g_375>
   189c0:	48 89 85 b0 e9 ff ff 	mov    %rax,-0x1650(%rbp)
   189c7:	c6 45 c7 24          	movb   $0x24,-0x39(%rbp)
   189cb:	c7 85 18 e8 ff ff 00 	movl   $0x0,-0x17e8(%rbp)
   189d2:	00 00 00 
   189d5:	eb 1a                	jmp    189f1 <func_57+0x401d>
   189d7:	8b 85 18 e8 ff ff    	mov    -0x17e8(%rbp),%eax
   189dd:	48 98                	cltq   
   189df:	c7 84 85 00 ec ff ff 	movl   $0x9,-0x1400(%rbp,%rax,4)
   189e6:	09 00 00 00 
   189ea:	83 85 18 e8 ff ff 01 	addl   $0x1,-0x17e8(%rbp)
   189f1:	83 bd 18 e8 ff ff 05 	cmpl   $0x5,-0x17e8(%rbp)
   189f8:	7e dd                	jle    189d7 <func_57+0x4003>
   189fa:	48 8b 05 a7 f9 00 00 	mov    0xf9a7(%rip),%rax        # 283a8 <g_187>
   18a01:	8b 10                	mov    (%rax),%edx
   18a03:	8b 85 f0 ec ff ff    	mov    -0x1310(%rbp),%eax
   18a09:	21 d0                	and    %edx,%eax
   18a0b:	89 85 f0 ec ff ff    	mov    %eax,-0x1310(%rbp)
   18a11:	0f b7 85 74 e7 ff ff 	movzwl -0x188c(%rbp),%eax
   18a18:	89 c2                	mov    %eax,%edx
   18a1a:	48 8b 85 08 e9 ff ff 	mov    -0x16f8(%rbp),%rax
   18a21:	88 10                	mov    %dl,(%rax)
   18a23:	48 8b 85 08 e9 ff ff 	mov    -0x16f8(%rbp),%rax
   18a2a:	0f b6 00             	movzbl (%rax),%eax
   18a2d:	44 0f b6 e8          	movzbl %al,%r13d
   18a31:	8b 85 b4 e7 ff ff    	mov    -0x184c(%rbp),%eax
   18a37:	0f b7 d8             	movzwl %ax,%ebx
   18a3a:	48 8b 85 68 e7 ff ff 	mov    -0x1898(%rbp),%rax
   18a41:	0f b7 00             	movzwl (%rax),%eax
   18a44:	44 0f b7 e0          	movzwl %ax,%r12d
   18a48:	48 8b 85 c0 e8 ff ff 	mov    -0x1740(%rbp),%rax
   18a4f:	48 8b 00             	mov    (%rax),%rax
   18a52:	0f b7 10             	movzwl (%rax),%edx
   18a55:	48 8b 85 50 e9 ff ff 	mov    -0x16b0(%rbp),%rax
   18a5c:	89 c1                	mov    %eax,%ecx
   18a5e:	48 8b 85 c0 e8 ff ff 	mov    -0x1740(%rbp),%rax
   18a65:	48 8b 00             	mov    (%rax),%rax
   18a68:	09 ca                	or     %ecx,%edx
   18a6a:	66 89 10             	mov    %dx,(%rax)
   18a6d:	8b 05 bd ba 00 00    	mov    0xbabd(%rip),%eax        # 24530 <g_883>
   18a73:	48 8b 85 d0 fb ff ff 	mov    -0x430(%rbp),%rax
   18a7a:	48 39 85 40 e9 ff ff 	cmp    %rax,-0x16c0(%rbp)
   18a81:	0f 95 c0             	setne  %al
   18a84:	89 c2                	mov    %eax,%edx
   18a86:	48 8b 85 b0 e9 ff ff 	mov    -0x1650(%rbp),%rax
   18a8d:	88 10                	mov    %dl,(%rax)
   18a8f:	48 8b 85 b0 e9 ff ff 	mov    -0x1650(%rbp),%rax
   18a96:	0f b6 00             	movzbl (%rax),%eax
   18a99:	0f b6 d0             	movzbl %al,%edx
   18a9c:	0f b7 85 74 e7 ff ff 	movzwl -0x188c(%rbp),%eax
   18aa3:	0f b6 c0             	movzbl %al,%eax
   18aa6:	89 d6                	mov    %edx,%esi
   18aa8:	89 c7                	mov    %eax,%edi
   18aaa:	e8 9d 21 ff ff       	callq  ac4c <safe_lshift_func_uint8_t_u_u>
   18aaf:	84 c0                	test   %al,%al
   18ab1:	74 07                	je     18aba <func_57+0x40e6>
   18ab3:	83 bd b0 e7 ff ff 00 	cmpl   $0x0,-0x1850(%rbp)
   18aba:	44 89 e6             	mov    %r12d,%esi
   18abd:	bf 01 00 00 00       	mov    $0x1,%edi
   18ac2:	e8 9c 1a ff ff       	callq  a563 <safe_rshift_func_int16_t_s_u>
   18ac7:	48 8b 05 fa fa 00 00 	mov    0xfafa(%rip),%rax        # 285c8 <g_1097>
   18ace:	0f b6 00             	movzbl (%rax),%eax
   18ad1:	66 98                	cbtw   
   18ad3:	f7 d0                	not    %eax
   18ad5:	89 c2                	mov    %eax,%edx
   18ad7:	48 8b 85 68 e9 ff ff 	mov    -0x1698(%rbp),%rax
   18ade:	66 89 10             	mov    %dx,(%rax)
   18ae1:	48 8b 85 68 e9 ff ff 	mov    -0x1698(%rbp),%rax
   18ae8:	0f b7 00             	movzwl (%rax),%eax
   18aeb:	0f b7 d0             	movzwl %ax,%edx
   18aee:	48 8b 05 93 09 01 00 	mov    0x10993(%rip),%rax        # 29488 <g_1522>
   18af5:	48 8b 08             	mov    (%rax),%rcx
   18af8:	48 8b 85 30 ec ff ff 	mov    -0x13d0(%rbp),%rax
   18aff:	48 39 c1             	cmp    %rax,%rcx
   18b02:	0f 94 c0             	sete   %al
   18b05:	0f b6 c8             	movzbl %al,%ecx
   18b08:	8b 85 f0 ec ff ff    	mov    -0x1310(%rbp),%eax
   18b0e:	31 c8                	xor    %ecx,%eax
   18b10:	f7 d0                	not    %eax
   18b12:	39 c2                	cmp    %eax,%edx
   18b14:	7c 07                	jl     18b1d <func_57+0x4149>
   18b16:	b8 01 00 00 00       	mov    $0x1,%eax
   18b1b:	eb 05                	jmp    18b22 <func_57+0x414e>
   18b1d:	b8 00 00 00 00       	mov    $0x0,%eax
   18b22:	98                   	cwtl   
   18b23:	be 0e 00 00 00       	mov    $0xe,%esi
   18b28:	89 c7                	mov    %eax,%edi
   18b2a:	e8 63 19 ff ff       	callq  a492 <safe_lshift_func_int16_t_s_s>
   18b2f:	0f b7 c0             	movzwl %ax,%eax
   18b32:	89 de                	mov    %ebx,%esi
   18b34:	89 c7                	mov    %eax,%edi
   18b36:	e8 c4 21 ff ff       	callq  acff <safe_add_func_uint16_t_u_u>
   18b3b:	66 85 c0             	test   %ax,%ax
   18b3e:	0f 94 c0             	sete   %al
   18b41:	0f b6 c0             	movzbl %al,%eax
   18b44:	44 31 e8             	xor    %r13d,%eax
   18b47:	89 85 10 ec ff ff    	mov    %eax,-0x13f0(%rbp)
   18b4d:	48 8b 05 74 09 01 00 	mov    0x10974(%rip),%rax        # 294c8 <g_1524>
   18b54:	48 8b 00             	mov    (%rax),%rax
   18b57:	48 8b 00             	mov    (%rax),%rax
   18b5a:	48 8b 00             	mov    (%rax),%rax
   18b5d:	0f b7 00             	movzwl (%rax),%eax
   18b60:	48 8b 85 68 e7 ff ff 	mov    -0x1898(%rbp),%rax
   18b67:	0f b7 00             	movzwl (%rax),%eax
   18b6a:	66 85 c0             	test   %ax,%ax
   18b6d:	0f 94 c0             	sete   %al
   18b70:	0f b6 c0             	movzbl %al,%eax
   18b73:	48 39 85 88 e9 ff ff 	cmp    %rax,-0x1678(%rbp)
   18b7a:	48 8b 05 ff f7 00 00 	mov    0xf7ff(%rip),%rax        # 28380 <g_64>
   18b81:	8b 18                	mov    (%rax),%ebx
   18b83:	bf 01 00 00 00       	mov    $0x1,%edi
   18b88:	e8 19 23 ff ff       	callq  aea6 <safe_unary_minus_func_uint32_t_u>
   18b8d:	66 83 bd 74 e7 ff ff 	cmpw   $0x0,-0x188c(%rbp)
   18b94:	00 
   18b95:	75 0a                	jne    18ba1 <func_57+0x41cd>
   18b97:	48 83 bd 50 e9 ff ff 	cmpq   $0x0,-0x16b0(%rbp)
   18b9e:	00 
   18b9f:	74 07                	je     18ba8 <func_57+0x41d4>
   18ba1:	b9 01 00 00 00       	mov    $0x1,%ecx
   18ba6:	eb 05                	jmp    18bad <func_57+0x41d9>
   18ba8:	b9 00 00 00 00       	mov    $0x0,%ecx
   18bad:	8b 95 b4 e7 ff ff    	mov    -0x184c(%rbp),%edx
   18bb3:	09 d0                	or     %edx,%eax
   18bb5:	89 85 b4 e7 ff ff    	mov    %eax,-0x184c(%rbp)
   18bbb:	8b 85 b4 e7 ff ff    	mov    -0x184c(%rbp),%eax
   18bc1:	3b 85 b0 e7 ff ff    	cmp    -0x1850(%rbp),%eax
   18bc7:	0f 9d c0             	setge  %al
   18bca:	0f b6 c0             	movzbl %al,%eax
   18bcd:	39 c1                	cmp    %eax,%ecx
   18bcf:	0f 9d c0             	setge  %al
   18bd2:	0f b6 c0             	movzbl %al,%eax
   18bd5:	89 de                	mov    %ebx,%esi
   18bd7:	89 c7                	mov    %eax,%edi
   18bd9:	e8 27 1a ff ff       	callq  a605 <safe_sub_func_int32_t_s_s>
   18bde:	8b 95 10 ec ff ff    	mov    -0x13f0(%rbp),%edx
   18be4:	48 83 bd 30 e9 ff ff 	cmpq   $0x0,-0x16d0(%rbp)
   18beb:	00 
   18bec:	0f 95 c0             	setne  %al
   18bef:	0f b6 c0             	movzbl %al,%eax
   18bf2:	39 c2                	cmp    %eax,%edx
   18bf4:	0f 9f c0             	setg   %al
   18bf7:	0f b6 c0             	movzbl %al,%eax
   18bfa:	be 06 00 00 00       	mov    $0x6,%esi
   18bff:	89 c7                	mov    %eax,%edi
   18c01:	e8 8d 1f ff ff       	callq  ab93 <safe_mul_func_uint8_t_u_u>
   18c06:	0f b6 c0             	movzbl %al,%eax
   18c09:	89 c6                	mov    %eax,%esi
   18c0b:	bf dd 12 00 00       	mov    $0x12dd,%edi
   18c10:	e8 4e 19 ff ff       	callq  a563 <safe_rshift_func_int16_t_s_u>
   18c15:	0f b7 95 74 e7 ff ff 	movzwl -0x188c(%rbp),%edx
   18c1c:	8b 85 f4 f0 ff ff    	mov    -0xf0c(%rbp),%eax
   18c22:	31 d0                	xor    %edx,%eax
   18c24:	89 85 f4 f0 ff ff    	mov    %eax,-0xf0c(%rbp)
   18c2a:	8b 95 f4 f0 ff ff    	mov    -0xf0c(%rbp),%edx
   18c30:	8b 05 76 b4 00 00    	mov    0xb476(%rip),%eax        # 240ac <g_188>
   18c36:	09 d0                	or     %edx,%eax
   18c38:	89 05 6e b4 00 00    	mov    %eax,0xb46e(%rip)        # 240ac <g_188>
   18c3e:	83 85 b0 e7 ff ff 01 	addl   $0x1,-0x1850(%rbp)
   18c45:	83 bd b0 e7 ff ff 16 	cmpl   $0x16,-0x1850(%rbp)
   18c4c:	0f 8e 41 f2 ff ff    	jle    17e93 <func_57+0x34bf>
   18c52:	c7 85 a8 e7 ff ff e9 	movl   $0xffffffe9,-0x1858(%rbp)
   18c59:	ff ff ff 
   18c5c:	e9 ad 00 00 00       	jmpq   18d0e <func_57+0x433a>
   18c61:	48 b8 ec 31 40 e9 b5 	movabs $0xf11d00b5e94031ec,%rax
   18c68:	00 1d f1 
   18c6b:	48 89 85 10 e9 ff ff 	mov    %rax,-0x16f0(%rbp)
   18c72:	c6 85 8a e7 ff ff ff 	movb   $0xff,-0x1876(%rbp)
   18c79:	48 8d 85 00 f9 ff ff 	lea    -0x700(%rbp),%rax
   18c80:	48 83 c0 04          	add    $0x4,%rax
   18c84:	48 89 85 18 e9 ff ff 	mov    %rax,-0x16e8(%rbp)
   18c8b:	c7 85 ac e7 ff ff 00 	movl   $0x0,-0x1854(%rbp)
   18c92:	00 00 00 
   18c95:	eb 1a                	jmp    18cb1 <func_57+0x42dd>
   18c97:	8b 85 ac e7 ff ff    	mov    -0x1854(%rbp),%eax
   18c9d:	48 98                	cltq   
   18c9f:	c7 84 85 00 f9 ff ff 	movl   $0xef4bd7c2,-0x700(%rbp,%rax,4)
   18ca6:	c2 d7 4b ef 
   18caa:	83 85 ac e7 ff ff 01 	addl   $0x1,-0x1854(%rbp)
   18cb1:	83 bd ac e7 ff ff 01 	cmpl   $0x1,-0x1854(%rbp)
   18cb8:	7e dd                	jle    18c97 <func_57+0x42c3>
   18cba:	83 bd bc e7 ff ff 00 	cmpl   $0x0,-0x1844(%rbp)
   18cc1:	75 5a                	jne    18d1d <func_57+0x4349>
   18cc3:	0f b6 85 8a e7 ff ff 	movzbl -0x1876(%rbp),%eax
   18cca:	83 e8 01             	sub    $0x1,%eax
   18ccd:	88 85 8a e7 ff ff    	mov    %al,-0x1876(%rbp)
   18cd3:	0f b7 85 90 e7 ff ff 	movzwl -0x1870(%rbp),%eax
   18cda:	83 c0 01             	add    $0x1,%eax
   18cdd:	66 89 85 90 e7 ff ff 	mov    %ax,-0x1870(%rbp)
   18ce4:	48 8d 85 c0 ec ff ff 	lea    -0x1340(%rbp),%rax
   18ceb:	48 83 c0 30          	add    $0x30,%rax
   18cef:	48 89 85 18 e9 ff ff 	mov    %rax,-0x16e8(%rbp)
   18cf6:	8b 85 a8 e7 ff ff    	mov    -0x1858(%rbp),%eax
   18cfc:	be 08 00 00 00       	mov    $0x8,%esi
   18d01:	89 c7                	mov    %eax,%edi
   18d03:	e8 ae 18 ff ff       	callq  a5b6 <safe_add_func_int32_t_s_s>
   18d08:	89 85 a8 e7 ff ff    	mov    %eax,-0x1858(%rbp)
   18d0e:	83 bd a8 e7 ff ff 04 	cmpl   $0x4,-0x1858(%rbp)
   18d15:	0f 8e 46 ff ff ff    	jle    18c61 <func_57+0x428d>
   18d1b:	eb 01                	jmp    18d1e <func_57+0x434a>
   18d1d:	90                   	nop
   18d1e:	0f b7 05 75 b3 00 00 	movzwl 0xb375(%rip),%eax        # 2409a <g_98>
   18d25:	83 c0 01             	add    $0x1,%eax
   18d28:	66 89 05 6b b3 00 00 	mov    %ax,0xb36b(%rip)        # 2409a <g_98>
   18d2f:	eb 17                	jmp    18d48 <func_57+0x4374>
   18d31:	48 8d 05 48 b3 00 00 	lea    0xb348(%rip),%rax        # 24080 <g_88>
   18d38:	48 89 85 38 e9 ff ff 	mov    %rax,-0x16c8(%rbp)
   18d3f:	48 8b 85 38 e9 ff ff 	mov    -0x16c8(%rbp),%rax
   18d46:	eb 2c                	jmp    18d74 <func_57+0x43a0>
   18d48:	0f b7 05 4b b3 00 00 	movzwl 0xb34b(%rip),%eax        # 2409a <g_98>
   18d4f:	66 83 f8 0a          	cmp    $0xa,%ax
   18d53:	0f 85 9d ed ff ff    	jne    17af6 <func_57+0x3122>
   18d59:	0f b7 85 92 e7 ff ff 	movzwl -0x186e(%rbp),%eax
   18d60:	83 c0 01             	add    $0x1,%eax
   18d63:	66 89 85 92 e7 ff ff 	mov    %ax,-0x186e(%rbp)
   18d6a:	48 8b 85 90 e8 ff ff 	mov    -0x1770(%rbp),%rax
   18d71:	48 8b 00             	mov    (%rax),%rax
   18d74:	48 8b 5d c8          	mov    -0x38(%rbp),%rbx
   18d78:	64 48 33 1c 25 28 00 	xor    %fs:0x28,%rbx
   18d7f:	00 00 
   18d81:	74 05                	je     18d88 <func_57+0x43b4>
   18d83:	e8 e8 12 ff ff       	callq  a070 <__stack_chk_fail@plt>
   18d88:	48 81 c4 78 18 00 00 	add    $0x1878,%rsp
   18d8f:	5b                   	pop    %rbx
   18d90:	41 5c                	pop    %r12
   18d92:	41 5d                	pop    %r13
   18d94:	41 5e                	pop    %r14
   18d96:	41 5f                	pop    %r15
   18d98:	5d                   	pop    %rbp
   18d99:	c3                   	retq   

0000000000018d9a <func_61>:
   18d9a:	f3 0f 1e fa          	endbr64 
   18d9e:	55                   	push   %rbp
   18d9f:	48 89 e5             	mov    %rsp,%rbp
   18da2:	41 57                	push   %r15
   18da4:	41 56                	push   %r14
   18da6:	41 55                	push   %r13
   18da8:	41 54                	push   %r12
   18daa:	53                   	push   %rbx
   18dab:	48 81 ec e8 0f 00 00 	sub    $0xfe8,%rsp
   18db2:	89 bd fc ef ff ff    	mov    %edi,-0x1004(%rbp)
   18db8:	64 48 8b 04 25 28 00 	mov    %fs:0x28,%rax
   18dbf:	00 00 
   18dc1:	48 89 45 c8          	mov    %rax,-0x38(%rbp)
   18dc5:	31 c0                	xor    %eax,%eax
   18dc7:	48 c7 85 28 f2 ff ff 	movq   $0x0,-0xdd8(%rbp)
   18dce:	00 00 00 00 
   18dd2:	c7 85 0c f0 ff ff ff 	movl   $0xffffffff,-0xff4(%rbp)
   18dd9:	ff ff ff 
   18ddc:	c7 85 10 f0 ff ff ac 	movl   $0x3c04a0ac,-0xff0(%rbp)
   18de3:	a0 04 3c 
   18de6:	48 c7 85 30 f2 ff ff 	movq   $0x0,-0xdd0(%rbp)
   18ded:	00 00 00 00 
   18df1:	48 8d 05 a0 f5 00 00 	lea    0xf5a0(%rip),%rax        # 28398 <g_147>
   18df8:	48 89 85 60 f0 ff ff 	mov    %rax,-0xfa0(%rbp)
   18dff:	c7 85 14 f0 ff ff 0b 	movl   $0x4741d20b,-0xfec(%rbp)
   18e06:	d2 41 47 
   18e09:	c7 85 f0 f3 ff ff ac 	movl   $0x579abdac,-0xc10(%rbp)
   18e10:	bd 9a 57 
   18e13:	c7 85 f4 f3 ff ff 77 	movl   $0xab405f77,-0xc0c(%rbp)
   18e1a:	5f 40 ab 
   18e1d:	c7 85 f8 f3 ff ff d4 	movl   $0x39ff2ad4,-0xc08(%rbp)
   18e24:	2a ff 39 
   18e27:	c7 85 fc f3 ff ff d4 	movl   $0x39ff2ad4,-0xc04(%rbp)
   18e2e:	2a ff 39 
   18e31:	c7 85 00 f4 ff ff 77 	movl   $0xab405f77,-0xc00(%rbp)
   18e38:	5f 40 ab 
   18e3b:	c7 85 04 f4 ff ff ac 	movl   $0x579abdac,-0xbfc(%rbp)
   18e42:	bd 9a 57 
   18e45:	c7 85 08 f4 ff ff 54 	movl   $0x2e6f0454,-0xbf8(%rbp)
   18e4c:	04 6f 2e 
   18e4f:	c7 85 0c f4 ff ff 77 	movl   $0xab405f77,-0xbf4(%rbp)
   18e56:	5f 40 ab 
   18e59:	c7 85 10 f4 ff ff ff 	movl   $0xffffffff,-0xbf0(%rbp)
   18e60:	ff ff ff 
   18e63:	c7 85 14 f4 ff ff 00 	movl   $0x0,-0xbec(%rbp)
   18e6a:	00 00 00 
   18e6d:	c7 85 18 f4 ff ff f9 	movl   $0xfffffff9,-0xbe8(%rbp)
   18e74:	ff ff ff 
   18e77:	c7 85 1c f4 ff ff f9 	movl   $0xfffffff9,-0xbe4(%rbp)
   18e7e:	ff ff ff 
   18e81:	c7 85 20 f4 ff ff 00 	movl   $0x0,-0xbe0(%rbp)
   18e88:	00 00 00 
   18e8b:	c7 85 24 f4 ff ff ff 	movl   $0xffffffff,-0xbdc(%rbp)
   18e92:	ff ff ff 
   18e95:	c7 85 28 f4 ff ff 77 	movl   $0xab405f77,-0xbd8(%rbp)
   18e9c:	5f 40 ab 
   18e9f:	c7 85 2c f4 ff ff 54 	movl   $0x2e6f0454,-0xbd4(%rbp)
   18ea6:	04 6f 2e 
   18ea9:	c7 85 30 f4 ff ff ac 	movl   $0x579abdac,-0xbd0(%rbp)
   18eb0:	bd 9a 57 
   18eb3:	c7 85 34 f4 ff ff 77 	movl   $0xab405f77,-0xbcc(%rbp)
   18eba:	5f 40 ab 
   18ebd:	c7 85 38 f4 ff ff d4 	movl   $0x39ff2ad4,-0xbc8(%rbp)
   18ec4:	2a ff 39 
   18ec7:	c7 85 3c f4 ff ff d4 	movl   $0x39ff2ad4,-0xbc4(%rbp)
   18ece:	2a ff 39 
   18ed1:	c7 85 40 f4 ff ff 77 	movl   $0xab405f77,-0xbc0(%rbp)
   18ed8:	5f 40 ab 
   18edb:	c7 85 44 f4 ff ff ac 	movl   $0x579abdac,-0xbbc(%rbp)
   18ee2:	bd 9a 57 
   18ee5:	c7 85 48 f4 ff ff ff 	movl   $0xffffffff,-0xbb8(%rbp)
   18eec:	ff ff ff 
   18eef:	c7 85 4c f4 ff ff ac 	movl   $0x579abdac,-0xbb4(%rbp)
   18ef6:	bd 9a 57 
   18ef9:	c7 85 50 f4 ff ff d4 	movl   $0x39ff2ad4,-0xbb0(%rbp)
   18f00:	2a ff 39 
   18f03:	c7 85 54 f4 ff ff ff 	movl   $0xffffffff,-0xbac(%rbp)
   18f0a:	ff ff ff 
   18f0d:	c7 85 58 f4 ff ff 54 	movl   $0x2e6f0454,-0xba8(%rbp)
   18f14:	04 6f 2e 
   18f17:	c7 85 5c f4 ff ff 54 	movl   $0x2e6f0454,-0xba4(%rbp)
   18f1e:	04 6f 2e 
   18f21:	48 8d 05 80 b1 00 00 	lea    0xb180(%rip),%rax        # 240a8 <g_143>
   18f28:	48 89 85 68 f0 ff ff 	mov    %rax,-0xf98(%rbp)
   18f2f:	48 8d 05 5a f4 00 00 	lea    0xf45a(%rip),%rax        # 28390 <g_87>
   18f36:	48 89 85 70 f0 ff ff 	mov    %rax,-0xf90(%rbp)
   18f3d:	48 b8 10 15 77 c1 b2 	movabs $0x29b707b2c1771510,%rax
   18f44:	07 b7 29 
   18f47:	48 89 85 78 f0 ff ff 	mov    %rax,-0xf88(%rbp)
   18f4e:	c7 85 18 f0 ff ff fd 	movl   $0x91aa0bfd,-0xfe8(%rbp)
   18f55:	0b aa 91 
   18f58:	48 8d 05 d1 b3 00 00 	lea    0xb3d1(%rip),%rax        # 24330 <g_375>
   18f5f:	48 89 85 00 f2 ff ff 	mov    %rax,-0xe00(%rbp)
   18f66:	48 c7 85 08 f2 ff ff 	movq   $0x0,-0xdf8(%rbp)
   18f6d:	00 00 00 00 
   18f71:	48 8d 85 18 f0 ff ff 	lea    -0xfe8(%rbp),%rax
   18f78:	48 89 85 50 f3 ff ff 	mov    %rax,-0xcb0(%rbp)
   18f7f:	48 c7 85 58 f3 ff ff 	movq   $0x0,-0xca8(%rbp)
   18f86:	00 00 00 00 
   18f8a:	48 8d 85 18 f0 ff ff 	lea    -0xfe8(%rbp),%rax
   18f91:	48 89 85 60 f3 ff ff 	mov    %rax,-0xca0(%rbp)
   18f98:	48 8d 05 dd b1 00 00 	lea    0xb1dd(%rip),%rax        # 2417c <g_322>
   18f9f:	48 89 85 68 f3 ff ff 	mov    %rax,-0xc98(%rbp)
   18fa6:	48 8d 05 cf b1 00 00 	lea    0xb1cf(%rip),%rax        # 2417c <g_322>
   18fad:	48 89 85 70 f3 ff ff 	mov    %rax,-0xc90(%rbp)
   18fb4:	48 8d 85 18 f0 ff ff 	lea    -0xfe8(%rbp),%rax
   18fbb:	48 89 85 78 f3 ff ff 	mov    %rax,-0xc88(%rbp)
   18fc2:	48 c7 85 80 f3 ff ff 	movq   $0x0,-0xc80(%rbp)
   18fc9:	00 00 00 00 
   18fcd:	48 8d 85 18 f0 ff ff 	lea    -0xfe8(%rbp),%rax
   18fd4:	48 89 85 88 f3 ff ff 	mov    %rax,-0xc78(%rbp)
   18fdb:	48 8d 05 9a b1 00 00 	lea    0xb19a(%rip),%rax        # 2417c <g_322>
   18fe2:	48 89 85 90 f3 ff ff 	mov    %rax,-0xc70(%rbp)
   18fe9:	48 8d 05 8c b1 00 00 	lea    0xb18c(%rip),%rax        # 2417c <g_322>
   18ff0:	48 89 85 98 f3 ff ff 	mov    %rax,-0xc68(%rbp)
   18ff7:	c7 85 5c f0 ff ff 07 	movl   $0x7,-0xfa4(%rbp)
   18ffe:	00 00 00 
   19001:	48 8d 05 a0 b0 00 00 	lea    0xb0a0(%rip),%rax        # 240a8 <g_143>
   19008:	48 89 85 10 f2 ff ff 	mov    %rax,-0xdf0(%rbp)
   1900f:	48 8d 05 3e 50 00 00 	lea    0x503e(%rip),%rax        # 1e054 <g_136>
   19016:	48 89 85 80 f0 ff ff 	mov    %rax,-0xf80(%rbp)
   1901d:	48 8d 85 80 f0 ff ff 	lea    -0xf80(%rbp),%rax
   19024:	48 89 85 88 f0 ff ff 	mov    %rax,-0xf78(%rbp)
   1902b:	48 8d 85 88 f0 ff ff 	lea    -0xf78(%rbp),%rax
   19032:	48 89 85 18 f2 ff ff 	mov    %rax,-0xde8(%rbp)
   19039:	48 8d 85 80 f0 ff ff 	lea    -0xf80(%rbp),%rax
   19040:	48 89 85 90 f0 ff ff 	mov    %rax,-0xf70(%rbp)
   19047:	48 8d 85 90 f0 ff ff 	lea    -0xf70(%rbp),%rax
   1904e:	48 89 85 a0 f3 ff ff 	mov    %rax,-0xc60(%rbp)
   19055:	48 8d 85 90 f0 ff ff 	lea    -0xf70(%rbp),%rax
   1905c:	48 89 85 a8 f3 ff ff 	mov    %rax,-0xc58(%rbp)
   19063:	48 8d 85 90 f0 ff ff 	lea    -0xf70(%rbp),%rax
   1906a:	48 89 85 b0 f3 ff ff 	mov    %rax,-0xc50(%rbp)
   19071:	48 8d 85 90 f0 ff ff 	lea    -0xf70(%rbp),%rax
   19078:	48 89 85 b8 f3 ff ff 	mov    %rax,-0xc48(%rbp)
   1907f:	48 8d 85 90 f0 ff ff 	lea    -0xf70(%rbp),%rax
   19086:	48 89 85 c0 f3 ff ff 	mov    %rax,-0xc40(%rbp)
   1908d:	48 8d 85 90 f0 ff ff 	lea    -0xf70(%rbp),%rax
   19094:	48 89 85 c8 f3 ff ff 	mov    %rax,-0xc38(%rbp)
   1909b:	48 8d 85 90 f0 ff ff 	lea    -0xf70(%rbp),%rax
   190a2:	48 89 85 d0 f3 ff ff 	mov    %rax,-0xc30(%rbp)
   190a9:	48 8d 85 90 f0 ff ff 	lea    -0xf70(%rbp),%rax
   190b0:	48 89 85 d8 f3 ff ff 	mov    %rax,-0xc28(%rbp)
   190b7:	48 8d 85 90 f0 ff ff 	lea    -0xf70(%rbp),%rax
   190be:	48 89 85 e0 f3 ff ff 	mov    %rax,-0xc20(%rbp)
   190c5:	48 8d 85 90 f0 ff ff 	lea    -0xf70(%rbp),%rax
   190cc:	48 89 85 e8 f3 ff ff 	mov    %rax,-0xc18(%rbp)
   190d3:	48 8d 05 06 f4 00 00 	lea    0xf406(%rip),%rax        # 284e0 <g_882>
   190da:	48 89 85 20 f2 ff ff 	mov    %rax,-0xde0(%rbp)
   190e1:	48 8d 85 10 f0 ff ff 	lea    -0xff0(%rbp),%rax
   190e8:	48 89 85 60 f4 ff ff 	mov    %rax,-0xba0(%rbp)
   190ef:	48 8d 05 3e af 00 00 	lea    0xaf3e(%rip),%rax        # 24034 <g_34>
   190f6:	48 89 85 68 f4 ff ff 	mov    %rax,-0xb98(%rbp)
   190fd:	48 c7 85 70 f4 ff ff 	movq   $0x0,-0xb90(%rbp)
   19104:	00 00 00 00 
   19108:	48 8d 05 25 af 00 00 	lea    0xaf25(%rip),%rax        # 24034 <g_34>
   1910f:	48 89 85 78 f4 ff ff 	mov    %rax,-0xb88(%rbp)
   19116:	48 c7 85 80 f4 ff ff 	movq   $0x0,-0xb80(%rbp)
   1911d:	00 00 00 00 
   19121:	48 8d 05 0c af 00 00 	lea    0xaf0c(%rip),%rax        # 24034 <g_34>
   19128:	48 89 85 88 f4 ff ff 	mov    %rax,-0xb78(%rbp)
   1912f:	48 8d 85 10 f0 ff ff 	lea    -0xff0(%rbp),%rax
   19136:	48 89 85 90 f4 ff ff 	mov    %rax,-0xb70(%rbp)
   1913d:	48 c7 85 98 f4 ff ff 	movq   $0x0,-0xb68(%rbp)
   19144:	00 00 00 00 
   19148:	48 8d 05 e5 ae 00 00 	lea    0xaee5(%rip),%rax        # 24034 <g_34>
   1914f:	48 89 85 a0 f4 ff ff 	mov    %rax,-0xb60(%rbp)
   19156:	48 8d 05 d7 ae 00 00 	lea    0xaed7(%rip),%rax        # 24034 <g_34>
   1915d:	48 89 85 a8 f4 ff ff 	mov    %rax,-0xb58(%rbp)
   19164:	48 8d 05 9d 0d 01 00 	lea    0x10d9d(%rip),%rax        # 29f08 <g_36>
   1916b:	48 89 85 b0 f4 ff ff 	mov    %rax,-0xb50(%rbp)
   19172:	48 8d 05 8f 0d 01 00 	lea    0x10d8f(%rip),%rax        # 29f08 <g_36>
   19179:	48 89 85 b8 f4 ff ff 	mov    %rax,-0xb48(%rbp)
   19180:	48 8d 85 10 f0 ff ff 	lea    -0xff0(%rbp),%rax
   19187:	48 89 85 c0 f4 ff ff 	mov    %rax,-0xb40(%rbp)
   1918e:	48 8d 05 73 0d 01 00 	lea    0x10d73(%rip),%rax        # 29f08 <g_36>
   19195:	48 89 85 c8 f4 ff ff 	mov    %rax,-0xb38(%rbp)
   1919c:	48 8d 05 65 0d 01 00 	lea    0x10d65(%rip),%rax        # 29f08 <g_36>
   191a3:	48 89 85 d0 f4 ff ff 	mov    %rax,-0xb30(%rbp)
   191aa:	48 8d 05 83 ae 00 00 	lea    0xae83(%rip),%rax        # 24034 <g_34>
   191b1:	48 89 85 d8 f4 ff ff 	mov    %rax,-0xb28(%rbp)
   191b8:	48 8d 05 75 ae 00 00 	lea    0xae75(%rip),%rax        # 24034 <g_34>
   191bf:	48 89 85 e0 f4 ff ff 	mov    %rax,-0xb20(%rbp)
   191c6:	48 c7 85 e8 f4 ff ff 	movq   $0x0,-0xb18(%rbp)
   191cd:	00 00 00 00 
   191d1:	48 8d 85 10 f0 ff ff 	lea    -0xff0(%rbp),%rax
   191d8:	48 89 85 f0 f4 ff ff 	mov    %rax,-0xb10(%rbp)
   191df:	48 8d 05 4e ae 00 00 	lea    0xae4e(%rip),%rax        # 24034 <g_34>
   191e6:	48 89 85 f8 f4 ff ff 	mov    %rax,-0xb08(%rbp)
   191ed:	48 c7 85 e0 f1 ff ff 	movq   $0x0,-0xe20(%rbp)
   191f4:	00 00 00 00 
   191f8:	48 8d 05 39 0d 01 00 	lea    0x10d39(%rip),%rax        # 29f38 <g_889>
   191ff:	48 89 85 e8 f1 ff ff 	mov    %rax,-0xe18(%rbp)
   19206:	48 c7 85 f0 f1 ff ff 	movq   $0x0,-0xe10(%rbp)
   1920d:	00 00 00 00 
   19211:	48 8d 05 d0 f1 00 00 	lea    0xf1d0(%rip),%rax        # 283e8 <g_470>
   19218:	48 89 85 f8 f1 ff ff 	mov    %rax,-0xe08(%rbp)
   1921f:	c7 85 30 f0 ff ff 00 	movl   $0x0,-0xfd0(%rbp)
   19226:	00 00 00 
   19229:	eb 1a                	jmp    19245 <func_61+0x4ab>
   1922b:	8b 85 30 f0 ff ff    	mov    -0xfd0(%rbp),%eax
   19231:	48 98                	cltq   
   19233:	c7 84 85 a0 f2 ff ff 	movl   $0xffffffff,-0xd60(%rbp,%rax,4)
   1923a:	ff ff ff ff 
   1923e:	83 85 30 f0 ff ff 01 	addl   $0x1,-0xfd0(%rbp)
   19245:	83 bd 30 f0 ff ff 08 	cmpl   $0x8,-0xfd0(%rbp)
   1924c:	7e dd                	jle    1922b <func_61+0x491>
   1924e:	c7 85 30 f0 ff ff 00 	movl   $0x0,-0xfd0(%rbp)
   19255:	00 00 00 
   19258:	eb 1e                	jmp    19278 <func_61+0x4de>
   1925a:	8b 85 30 f0 ff ff    	mov    -0xfd0(%rbp),%eax
   19260:	48 98                	cltq   
   19262:	48 8d 15 a7 0c 01 00 	lea    0x10ca7(%rip),%rdx        # 29f10 <g_144>
   19269:	48 89 94 c5 40 f2 ff 	mov    %rdx,-0xdc0(%rbp,%rax,8)
   19270:	ff 
   19271:	83 85 30 f0 ff ff 01 	addl   $0x1,-0xfd0(%rbp)
   19278:	83 bd 30 f0 ff ff 02 	cmpl   $0x2,-0xfd0(%rbp)
   1927f:	7e d9                	jle    1925a <func_61+0x4c0>
   19281:	c7 85 30 f0 ff ff 00 	movl   $0x0,-0xfd0(%rbp)
   19288:	00 00 00 
   1928b:	eb 4e                	jmp    192db <func_61+0x541>
   1928d:	c7 85 34 f0 ff ff 00 	movl   $0x0,-0xfcc(%rbp)
   19294:	00 00 00 
   19297:	eb 32                	jmp    192cb <func_61+0x531>
   19299:	8b 85 34 f0 ff ff    	mov    -0xfcc(%rbp),%eax
   1929f:	48 63 c8             	movslq %eax,%rcx
   192a2:	8b 85 30 f0 ff ff    	mov    -0xfd0(%rbp),%eax
   192a8:	48 63 d0             	movslq %eax,%rdx
   192ab:	48 89 d0             	mov    %rdx,%rax
   192ae:	48 c1 e0 03          	shl    $0x3,%rax
   192b2:	48 29 d0             	sub    %rdx,%rax
   192b5:	48 01 c8             	add    %rcx,%rax
   192b8:	48 c7 84 c5 c0 f5 ff 	movq   $0x0,-0xa40(%rbp,%rax,8)
   192bf:	ff 00 00 00 00 
   192c4:	83 85 34 f0 ff ff 01 	addl   $0x1,-0xfcc(%rbp)
   192cb:	83 bd 34 f0 ff ff 06 	cmpl   $0x6,-0xfcc(%rbp)
   192d2:	7e c5                	jle    19299 <func_61+0x4ff>
   192d4:	83 85 30 f0 ff ff 01 	addl   $0x1,-0xfd0(%rbp)
   192db:	83 bd 30 f0 ff ff 08 	cmpl   $0x8,-0xfd0(%rbp)
   192e2:	7e a9                	jle    1928d <func_61+0x4f3>
   192e4:	c7 85 30 f0 ff ff 00 	movl   $0x0,-0xfd0(%rbp)
   192eb:	00 00 00 
   192ee:	eb 19                	jmp    19309 <func_61+0x56f>
   192f0:	8b 85 30 f0 ff ff    	mov    -0xfd0(%rbp),%eax
   192f6:	48 98                	cltq   
   192f8:	66 c7 84 45 3a f2 ff 	movw   $0xb61,-0xdc6(%rbp,%rax,2)
   192ff:	ff 61 0b 
   19302:	83 85 30 f0 ff ff 01 	addl   $0x1,-0xfd0(%rbp)
   19309:	83 bd 30 f0 ff ff 02 	cmpl   $0x2,-0xfd0(%rbp)
   19310:	7e de                	jle    192f0 <func_61+0x556>
   19312:	c7 05 ec 0b 01 00 00 	movl   $0x0,0x10bec(%rip)        # 29f08 <g_36>
   19319:	00 00 00 
   1931c:	e9 61 03 00 00       	jmpq   19682 <func_61+0x8e8>
   19321:	48 8d 05 68 f0 00 00 	lea    0xf068(%rip),%rax        # 28390 <g_87>
   19328:	48 89 85 c8 f0 ff ff 	mov    %rax,-0xf38(%rbp)
   1932f:	48 8d 05 62 ad 00 00 	lea    0xad62(%rip),%rax        # 24098 <g_96>
   19336:	48 89 85 d0 f0 ff ff 	mov    %rax,-0xf30(%rbp)
   1933d:	48 8d 05 56 ad 00 00 	lea    0xad56(%rip),%rax        # 2409a <g_98>
   19344:	48 89 85 d8 f0 ff ff 	mov    %rax,-0xf28(%rbp)
   1934b:	c6 85 04 f0 ff ff 62 	movb   $0x62,-0xffc(%rbp)
   19352:	48 8d 05 b3 0b 01 00 	lea    0x10bb3(%rip),%rax        # 29f0c <g_65>
   19359:	48 89 85 a8 f0 ff ff 	mov    %rax,-0xf58(%rbp)
   19360:	48 b8 33 5e 4d 23 15 	movabs $0xd9ba7415234d5e33,%rax
   19367:	74 ba d9 
   1936a:	48 89 85 c0 f7 ff ff 	mov    %rax,-0x840(%rbp)
   19371:	48 89 85 c8 f7 ff ff 	mov    %rax,-0x838(%rbp)
   19378:	48 89 85 d0 f7 ff ff 	mov    %rax,-0x830(%rbp)
   1937f:	48 89 85 d8 f7 ff ff 	mov    %rax,-0x828(%rbp)
   19386:	48 89 85 e0 f7 ff ff 	mov    %rax,-0x820(%rbp)
   1938d:	48 89 85 e8 f7 ff ff 	mov    %rax,-0x818(%rbp)
   19394:	48 89 85 f0 f7 ff ff 	mov    %rax,-0x810(%rbp)
   1939b:	48 89 85 f8 f7 ff ff 	mov    %rax,-0x808(%rbp)
   193a2:	48 89 85 00 f8 ff ff 	mov    %rax,-0x800(%rbp)
   193a9:	48 89 85 08 f8 ff ff 	mov    %rax,-0x7f8(%rbp)
   193b0:	8b 05 52 0b 01 00    	mov    0x10b52(%rip),%eax        # 29f08 <g_36>
   193b6:	48 98                	cltq   
   193b8:	48 8d 14 c5 00 00 00 	lea    0x0(,%rax,8),%rdx
   193bf:	00 
   193c0:	48 8d 05 61 ac 00 00 	lea    0xac61(%rip),%rax        # 24028 <g_6>
   193c7:	48 8b 14 02          	mov    (%rdx,%rax,1),%rdx
   193cb:	48 8b 05 ae ef 00 00 	mov    0xefae(%rip),%rax        # 28380 <g_64>
   193d2:	89 10                	mov    %edx,(%rax)
   193d4:	48 8b 85 e8 f7 ff ff 	mov    -0x818(%rbp),%rax
   193db:	44 0f b6 f0          	movzbl %al,%r14d
   193df:	8b 05 9b ac 00 00    	mov    0xac9b(%rip),%eax        # 24080 <g_88>
   193e5:	41 89 c7             	mov    %eax,%r15d
   193e8:	8b 9d fc ef ff ff    	mov    -0x1004(%rbp),%ebx
   193ee:	48 8b 85 d0 f0 ff ff 	mov    -0xf30(%rbp),%rax
   193f5:	0f b7 00             	movzwl (%rax),%eax
   193f8:	83 bd fc ef ff ff 00 	cmpl   $0x0,-0x1004(%rbp)
   193ff:	75 09                	jne    1940a <func_61+0x670>
   19401:	83 bd fc ef ff ff 00 	cmpl   $0x0,-0x1004(%rbp)
   19408:	74 07                	je     19411 <func_61+0x677>
   1940a:	ba 01 00 00 00       	mov    $0x1,%edx
   1940f:	eb 05                	jmp    19416 <func_61+0x67c>
   19411:	ba 00 00 00 00       	mov    $0x0,%edx
   19416:	31 c2                	xor    %eax,%edx
   19418:	48 8b 85 d0 f0 ff ff 	mov    -0xf30(%rbp),%rax
   1941f:	66 89 10             	mov    %dx,(%rax)
   19422:	48 8b 85 d0 f0 ff ff 	mov    -0xf30(%rbp),%rax
   19429:	0f b7 10             	movzwl (%rax),%edx
   1942c:	48 8b 85 d8 f0 ff ff 	mov    -0xf28(%rbp),%rax
   19433:	66 89 10             	mov    %dx,(%rax)
   19436:	48 8b 85 d8 f0 ff ff 	mov    -0xf28(%rbp),%rax
   1943d:	0f b7 00             	movzwl (%rax),%eax
   19440:	66 85 c0             	test   %ax,%ax
   19443:	75 09                	jne    1944e <func_61+0x6b4>
   19445:	80 bd 04 f0 ff ff 00 	cmpb   $0x0,-0xffc(%rbp)
   1944c:	74 07                	je     19455 <func_61+0x6bb>
   1944e:	ba 01 00 00 00       	mov    $0x1,%edx
   19453:	eb 05                	jmp    1945a <func_61+0x6c0>
   19455:	ba 00 00 00 00       	mov    $0x0,%edx
   1945a:	48 8b 85 a8 f0 ff ff 	mov    -0xf58(%rbp),%rax
   19461:	89 10                	mov    %edx,(%rax)
   19463:	be 07 00 00 00       	mov    $0x7,%esi
   19468:	bf 01 00 00 00       	mov    $0x1,%edi
   1946d:	e8 d6 19 ff ff       	callq  ae48 <safe_rshift_func_uint16_t_u_s>
   19472:	0f b7 c0             	movzwl %ax,%eax
   19475:	48 89 05 24 ac 00 00 	mov    %rax,0xac24(%rip)        # 240a0 <g_101>
   1947c:	48 8b 05 1d ac 00 00 	mov    0xac1d(%rip),%rax        # 240a0 <g_101>
   19483:	48 89 de             	mov    %rbx,%rsi
   19486:	48 89 c7             	mov    %rax,%rdi
   19489:	e8 1a 14 ff ff       	callq  a8a8 <safe_sub_func_int64_t_s_s>
   1948e:	44 0f b6 e0          	movzbl %al,%r12d
   19492:	8b 85 0c f0 ff ff    	mov    -0xff4(%rbp),%eax
   19498:	0f b6 d8             	movzbl %al,%ebx
   1949b:	8b 85 fc ef ff ff    	mov    -0x1004(%rbp),%eax
   194a1:	98                   	cwtl   
   194a2:	be 0e 00 00 00       	mov    $0xe,%esi
   194a7:	89 c7                	mov    %eax,%edi
   194a9:	e8 e4 0f ff ff       	callq  a492 <safe_lshift_func_int16_t_s_s>
   194ae:	66 85 c0             	test   %ax,%ax
   194b1:	0f 94 c0             	sete   %al
   194b4:	44 0f b6 e8          	movzbl %al,%r13d
   194b8:	48 8b 05 c9 ee 00 00 	mov    0xeec9(%rip),%rax        # 28388 <g_79>
   194bf:	48 39 85 28 f2 ff ff 	cmp    %rax,-0xdd8(%rbp)
   194c6:	0f 95 c0             	setne  %al
   194c9:	0f b6 d0             	movzbl %al,%edx
   194cc:	8b 85 fc ef ff ff    	mov    -0x1004(%rbp),%eax
   194d2:	0f b7 c0             	movzwl %ax,%eax
   194d5:	89 d6                	mov    %edx,%esi
   194d7:	89 c7                	mov    %eax,%edi
   194d9:	e8 41 18 ff ff       	callq  ad1f <safe_sub_func_uint16_t_u_u>
   194de:	0f b7 d0             	movzwl %ax,%edx
   194e1:	8b 05 21 0a 01 00    	mov    0x10a21(%rip),%eax        # 29f08 <g_36>
   194e7:	48 98                	cltq   
   194e9:	48 8d 0c c5 00 00 00 	lea    0x0(,%rax,8),%rcx
   194f0:	00 
   194f1:	48 8d 05 30 ab 00 00 	lea    0xab30(%rip),%rax        # 24028 <g_6>
   194f8:	48 8b 04 01          	mov    (%rcx,%rax,1),%rax
   194fc:	0f be c0             	movsbl %al,%eax
   194ff:	89 d6                	mov    %edx,%esi
   19501:	89 c7                	mov    %eax,%edi
   19503:	e8 99 0d ff ff       	callq  a2a1 <safe_lshift_func_int8_t_s_s>
   19508:	89 c2                	mov    %eax,%edx
   1950a:	8b 05 f8 09 01 00    	mov    0x109f8(%rip),%eax        # 29f08 <g_36>
   19510:	48 0f be d2          	movsbq %dl,%rdx
   19514:	48 63 c8             	movslq %eax,%rcx
   19517:	48 8d 34 cd 00 00 00 	lea    0x0(,%rcx,8),%rsi
   1951e:	00 
   1951f:	48 8d 0d 02 ab 00 00 	lea    0xab02(%rip),%rcx        # 24028 <g_6>
   19526:	48 89 14 0e          	mov    %rdx,(%rsi,%rcx,1)
   1952a:	48 98                	cltq   
   1952c:	48 8d 14 c5 00 00 00 	lea    0x0(,%rax,8),%rdx
   19533:	00 
   19534:	48 8d 05 ed aa 00 00 	lea    0xaaed(%rip),%rax        # 24028 <g_6>
   1953b:	48 8b 04 02          	mov    (%rdx,%rax,1),%rax
   1953f:	44 89 ee             	mov    %r13d,%esi
   19542:	48 89 c7             	mov    %rax,%rdi
   19545:	e8 5c 1b 00 00       	callq  1b0a6 <func_72>
   1954a:	48 8b 95 c8 f0 ff ff 	mov    -0xf38(%rbp),%rdx
   19551:	48 89 02             	mov    %rax,(%rdx)
   19554:	48 8b 85 c8 f0 ff ff 	mov    -0xf38(%rbp),%rax
   1955b:	48 8b 00             	mov    (%rax),%rax
   1955e:	45 89 f0             	mov    %r14d,%r8d
   19561:	44 89 f9             	mov    %r15d,%ecx
   19564:	44 89 e2             	mov    %r12d,%edx
   19567:	89 de                	mov    %ebx,%esi
   19569:	48 89 c7             	mov    %rax,%rdi
   1956c:	e8 9a 18 00 00       	callq  1ae0b <func_66>
   19571:	48 8b 05 28 ee 00 00 	mov    0xee28(%rip),%rax        # 283a0 <g_146>
   19578:	48 8d 95 0c f0 ff ff 	lea    -0xff4(%rbp),%rdx
   1957f:	48 89 10             	mov    %rdx,(%rax)
   19582:	48 c7 05 13 ab 00 00 	movq   $0x0,0xab13(%rip)        # 240a0 <g_101>
   19589:	00 00 00 00 
   1958d:	e9 d0 00 00 00       	jmpq   19662 <func_61+0x8c8>
   19592:	48 c7 85 b0 f0 ff ff 	movq   $0x0,-0xf50(%rbp)
   19599:	00 00 00 00 
   1959d:	c6 85 04 f0 ff ff 03 	movb   $0x3,-0xffc(%rbp)
   195a4:	eb 2f                	jmp    195d5 <func_61+0x83b>
   195a6:	48 8d 85 b0 f0 ff ff 	lea    -0xf50(%rbp),%rax
   195ad:	48 89 85 c0 f0 ff ff 	mov    %rax,-0xf40(%rbp)
   195b4:	48 8b 95 b0 f0 ff ff 	mov    -0xf50(%rbp),%rdx
   195bb:	48 8b 85 c0 f0 ff ff 	mov    -0xf40(%rbp),%rax
   195c2:	48 89 10             	mov    %rdx,(%rax)
   195c5:	0f b6 85 04 f0 ff ff 	movzbl -0xffc(%rbp),%eax
   195cc:	83 c0 01             	add    $0x1,%eax
   195cf:	88 85 04 f0 ff ff    	mov    %al,-0xffc(%rbp)
   195d5:	80 bd 04 f0 ff ff 09 	cmpb   $0x9,-0xffc(%rbp)
   195dc:	7e c8                	jle    195a6 <func_61+0x80c>
   195de:	c7 85 0c f0 ff ff ea 	movl   $0xffffffea,-0xff4(%rbp)
   195e5:	ff ff ff 
   195e8:	eb 51                	jmp    1963b <func_61+0x8a1>
   195ea:	48 8d 85 a8 f0 ff ff 	lea    -0xf58(%rbp),%rax
   195f1:	48 89 85 b8 f0 ff ff 	mov    %rax,-0xf48(%rbp)
   195f8:	48 8b 05 a1 ed 00 00 	mov    0xeda1(%rip),%rax        # 283a0 <g_146>
   195ff:	48 8b 10             	mov    (%rax),%rdx
   19602:	48 8b 85 b8 f0 ff ff 	mov    -0xf48(%rbp),%rax
   19609:	48 89 10             	mov    %rdx,(%rax)
   1960c:	8b 95 b4 f2 ff ff    	mov    -0xd4c(%rbp),%edx
   19612:	48 8b 85 a8 f0 ff ff 	mov    -0xf58(%rbp),%rax
   19619:	8b 00                	mov    (%rax),%eax
   1961b:	09 d0                	or     %edx,%eax
   1961d:	89 85 b4 f2 ff ff    	mov    %eax,-0xd4c(%rbp)
   19623:	8b 85 0c f0 ff ff    	mov    -0xff4(%rbp),%eax
   19629:	be 03 00 00 00       	mov    $0x3,%esi
   1962e:	89 c7                	mov    %eax,%edi
   19630:	e8 83 18 ff ff       	callq  aeb8 <safe_add_func_uint32_t_u_u>
   19635:	89 85 0c f0 ff ff    	mov    %eax,-0xff4(%rbp)
   1963b:	8b 85 0c f0 ff ff    	mov    -0xff4(%rbp),%eax
   19641:	83 f8 fc             	cmp    $0xfffffffc,%eax
   19644:	7c a4                	jl     195ea <func_61+0x850>
   19646:	48 8b 05 53 aa 00 00 	mov    0xaa53(%rip),%rax        # 240a0 <g_101>
   1964d:	be 01 00 00 00       	mov    $0x1,%esi
   19652:	89 c7                	mov    %eax,%edi
   19654:	e8 5f 18 ff ff       	callq  aeb8 <safe_add_func_uint32_t_u_u>
   19659:	89 c0                	mov    %eax,%eax
   1965b:	48 89 05 3e aa 00 00 	mov    %rax,0xaa3e(%rip)        # 240a0 <g_101>
   19662:	48 8b 05 37 aa 00 00 	mov    0xaa37(%rip),%rax        # 240a0 <g_101>
   19669:	48 83 f8 07          	cmp    $0x7,%rax
   1966d:	0f 84 1f ff ff ff    	je     19592 <func_61+0x7f8>
   19673:	8b 05 8f 08 01 00    	mov    0x1088f(%rip),%eax        # 29f08 <g_36>
   19679:	83 e8 01             	sub    $0x1,%eax
   1967c:	89 05 86 08 01 00    	mov    %eax,0x10886(%rip)        # 29f08 <g_36>
   19682:	8b 05 80 08 01 00    	mov    0x10880(%rip),%eax        # 29f08 <g_36>
   19688:	85 c0                	test   %eax,%eax
   1968a:	0f 89 91 fc ff ff    	jns    19321 <func_61+0x587>
   19690:	48 8b 05 91 a9 00 00 	mov    0xa991(%rip),%rax        # 24028 <g_6>
   19697:	0f b7 d8             	movzwl %ax,%ebx
   1969a:	48 8b 05 e7 a9 00 00 	mov    0xa9e7(%rip),%rax        # 24088 <g_88+0x8>
   196a1:	89 85 f8 ef ff ff    	mov    %eax,-0x1008(%rbp)
   196a7:	8b 05 5b 08 01 00    	mov    0x1085b(%rip),%eax        # 29f08 <g_36>
   196ad:	44 0f bf e0          	movswl %ax,%r12d
   196b1:	8b 85 b4 f2 ff ff    	mov    -0xd4c(%rbp),%eax
   196b7:	4c 63 e8             	movslq %eax,%r13
   196ba:	8b 85 c0 f2 ff ff    	mov    -0xd40(%rbp),%eax
   196c0:	44 0f bf f0          	movswl %ax,%r14d
   196c4:	8b 85 b4 f2 ff ff    	mov    -0xd4c(%rbp),%eax
   196ca:	66 89 85 f6 ef ff ff 	mov    %ax,-0x100a(%rbp)
   196d1:	8b 85 fc ef ff ff    	mov    -0x1004(%rbp),%eax
   196d7:	44 0f bf f8          	movswl %ax,%r15d
   196db:	8b 85 a0 f2 ff ff    	mov    -0xd60(%rbp),%eax
   196e1:	89 85 0c f0 ff ff    	mov    %eax,-0xff4(%rbp)
   196e7:	8b 85 0c f0 ff ff    	mov    -0xff4(%rbp),%eax
   196ed:	0f b7 c0             	movzwl %ax,%eax
   196f0:	89 85 f0 ef ff ff    	mov    %eax,-0x1010(%rbp)
   196f6:	48 8b 05 2b a9 00 00 	mov    0xa92b(%rip),%rax        # 24028 <g_6>
   196fd:	48 be 70 7f 87 27 dc 	movabs $0x4affb0dc27877f70,%rsi
   19704:	b0 ff 4a 
   19707:	48 89 c7             	mov    %rax,%rdi
   1970a:	e8 32 11 ff ff       	callq  a841 <safe_add_func_int64_t_s_s>
   1970f:	0f b7 c0             	movzwl %ax,%eax
   19712:	8b b5 f0 ef ff ff    	mov    -0x1010(%rbp),%esi
   19718:	89 c7                	mov    %eax,%edi
   1971a:	e8 00 16 ff ff       	callq  ad1f <safe_sub_func_uint16_t_u_u>
   1971f:	98                   	cwtl   
   19720:	44 89 fe             	mov    %r15d,%esi
   19723:	89 c7                	mov    %eax,%edi
   19725:	e8 a9 0c ff ff       	callq  a3d3 <safe_sub_func_int16_t_s_s>
   1972a:	66 33 85 f6 ef ff ff 	xor    -0x100a(%rbp),%ax
   19731:	66 89 05 62 a9 00 00 	mov    %ax,0xa962(%rip)        # 2409a <g_98>
   19738:	0f b7 05 5b a9 00 00 	movzwl 0xa95b(%rip),%eax        # 2409a <g_98>
   1973f:	98                   	cwtl   
   19740:	44 89 f6             	mov    %r14d,%esi
   19743:	89 c7                	mov    %eax,%edi
   19745:	e8 ab 0c ff ff       	callq  a3f5 <safe_mul_func_int16_t_s_s>
   1974a:	8b 95 b4 f2 ff ff    	mov    -0xd4c(%rbp),%edx
   19750:	8b 85 bc f2 ff ff    	mov    -0xd44(%rbp),%eax
   19756:	39 c2                	cmp    %eax,%edx
   19758:	0f 9f c0             	setg   %al
   1975b:	0f b6 c0             	movzbl %al,%eax
   1975e:	be 00 00 00 00       	mov    $0x0,%esi
   19763:	89 c7                	mov    %eax,%edi
   19765:	e8 29 14 ff ff       	callq  ab93 <safe_mul_func_uint8_t_u_u>
   1976a:	0f b6 c0             	movzbl %al,%eax
   1976d:	4c 89 ee             	mov    %r13,%rsi
   19770:	48 89 c7             	mov    %rax,%rdi
   19773:	e8 7f 12 ff ff       	callq  a9f7 <safe_div_func_int64_t_s_s>
   19778:	98                   	cwtl   
   19779:	44 89 e6             	mov    %r12d,%esi
   1977c:	89 c7                	mov    %eax,%edi
   1977e:	e8 30 0c ff ff       	callq  a3b3 <safe_add_func_int16_t_s_s>
   19783:	0f be c0             	movsbl %al,%eax
   19786:	be 03 00 00 00       	mov    $0x3,%esi
   1978b:	89 c7                	mov    %eax,%edi
   1978d:	e8 5c 0b ff ff       	callq  a2ee <safe_lshift_func_int8_t_s_u>
   19792:	66 98                	cbtw   
   19794:	0f b7 c0             	movzwl %ax,%eax
   19797:	8b b5 f8 ef ff ff    	mov    -0x1008(%rbp),%esi
   1979d:	89 c7                	mov    %eax,%edi
   1979f:	e8 a4 16 ff ff       	callq  ae48 <safe_rshift_func_uint16_t_u_s>
   197a4:	89 de                	mov    %ebx,%esi
   197a6:	bf 4f 86 00 00       	mov    $0x864f,%edi
   197ab:	e8 4f 15 ff ff       	callq  acff <safe_add_func_uint16_t_u_u>
   197b0:	66 85 c0             	test   %ax,%ax
   197b3:	74 07                	je     197bc <func_61+0xa22>
   197b5:	b8 15 92 07 e8       	mov    $0xe8079215,%eax
   197ba:	85 c0                	test   %eax,%eax
   197bc:	48 8d 05 e5 a8 00 00 	lea    0xa8e5(%rip),%rax        # 240a8 <g_143>
   197c3:	48 89 85 00 f3 ff ff 	mov    %rax,-0xd00(%rbp)
   197ca:	48 8d 05 d7 a8 00 00 	lea    0xa8d7(%rip),%rax        # 240a8 <g_143>
   197d1:	48 89 85 08 f3 ff ff 	mov    %rax,-0xcf8(%rbp)
   197d8:	48 8d 05 c9 a8 00 00 	lea    0xa8c9(%rip),%rax        # 240a8 <g_143>
   197df:	48 89 85 10 f3 ff ff 	mov    %rax,-0xcf0(%rbp)
   197e6:	48 8d 05 bb a8 00 00 	lea    0xa8bb(%rip),%rax        # 240a8 <g_143>
   197ed:	48 89 85 18 f3 ff ff 	mov    %rax,-0xce8(%rbp)
   197f4:	48 8d 05 ad a8 00 00 	lea    0xa8ad(%rip),%rax        # 240a8 <g_143>
   197fb:	48 89 85 20 f3 ff ff 	mov    %rax,-0xce0(%rbp)
   19802:	48 8d 05 9f a8 00 00 	lea    0xa89f(%rip),%rax        # 240a8 <g_143>
   19809:	48 89 85 28 f3 ff ff 	mov    %rax,-0xcd8(%rbp)
   19810:	48 8d 05 91 a8 00 00 	lea    0xa891(%rip),%rax        # 240a8 <g_143>
   19817:	48 89 85 30 f3 ff ff 	mov    %rax,-0xcd0(%rbp)
   1981e:	48 8d 05 83 a8 00 00 	lea    0xa883(%rip),%rax        # 240a8 <g_143>
   19825:	48 89 85 38 f3 ff ff 	mov    %rax,-0xcc8(%rbp)
   1982c:	48 8d 05 75 a8 00 00 	lea    0xa875(%rip),%rax        # 240a8 <g_143>
   19833:	48 89 85 40 f3 ff ff 	mov    %rax,-0xcc0(%rbp)
   1983a:	c7 85 1c f0 ff ff 33 	movl   $0x144c4033,-0xfe4(%rbp)
   19841:	40 4c 14 
   19844:	48 c7 85 98 f0 ff ff 	movq   $0x0,-0xf68(%rbp)
   1984b:	00 00 00 00 
   1984f:	48 8d 05 b2 a8 00 00 	lea    0xa8b2(%rip),%rax        # 24108 <g_261>
   19856:	48 89 85 b0 f1 ff ff 	mov    %rax,-0xe50(%rbp)
   1985d:	66 c7 85 0a f0 ff ff 	movw   $0xfff9,-0xff6(%rbp)
   19864:	f9 ff 
   19866:	c7 85 20 f0 ff ff 53 	movl   $0x4a64fc53,-0xfe0(%rbp)
   1986d:	fc 64 4a 
   19870:	c7 85 24 f0 ff ff 45 	movl   $0x4d59ca45,-0xfdc(%rbp)
   19877:	ca 59 4d 
   1987a:	c7 85 28 f0 ff ff f8 	movl   $0xfffffff8,-0xfd8(%rbp)
   19881:	ff ff ff 
   19884:	48 8d 05 ed a8 00 00 	lea    0xa8ed(%rip),%rax        # 24178 <g_305>
   1988b:	48 89 85 b8 f1 ff ff 	mov    %rax,-0xe48(%rbp)
   19892:	48 8d 05 ff ea 00 00 	lea    0xeaff(%rip),%rax        # 28398 <g_147>
   19899:	48 89 85 a0 f0 ff ff 	mov    %rax,-0xf60(%rbp)
   198a0:	48 c7 85 c0 f1 ff ff 	movq   $0xffffffffffffffff,-0xe40(%rbp)
   198a7:	ff ff ff ff 
   198ab:	48 c7 85 c8 f1 ff ff 	movq   $0xffffffffffffffff,-0xe38(%rbp)
   198b2:	ff ff ff ff 
   198b6:	c7 85 38 f0 ff ff 00 	movl   $0x0,-0xfc8(%rbp)
   198bd:	00 00 00 
   198c0:	eb 1e                	jmp    198e0 <func_61+0xb46>
   198c2:	8b 85 38 f0 ff ff    	mov    -0xfc8(%rbp),%eax
   198c8:	48 98                	cltq   
   198ca:	48 8d 95 00 f3 ff ff 	lea    -0xd00(%rbp),%rdx
   198d1:	48 89 94 c5 80 f2 ff 	mov    %rdx,-0xd80(%rbp,%rax,8)
   198d8:	ff 
   198d9:	83 85 38 f0 ff ff 01 	addl   $0x1,-0xfc8(%rbp)
   198e0:	83 bd 38 f0 ff ff 03 	cmpl   $0x3,-0xfc8(%rbp)
   198e7:	7e d9                	jle    198c2 <func_61+0xb28>
   198e9:	0f b7 05 b8 a7 00 00 	movzwl 0xa7b8(%rip),%eax        # 240a8 <g_143>
   198f0:	0f b7 d8             	movzwl %ax,%ebx
   198f3:	8b 85 1c f0 ff ff    	mov    -0xfe4(%rbp),%eax
   198f9:	44 0f be e0          	movsbl %al,%r12d
   198fd:	be 01 00 00 00       	mov    $0x1,%esi
   19902:	bf f7 00 00 00       	mov    $0xf7,%edi
   19907:	e8 cf 12 ff ff       	callq  abdb <safe_div_func_uint8_t_u_u>
   1990c:	44 8b 2d 2d aa 00 00 	mov    0xaa2d(%rip),%r13d        # 24340 <g_379>
   19913:	0f b7 05 8e a7 00 00 	movzwl 0xa78e(%rip),%eax        # 240a8 <g_143>
   1991a:	0f b7 d0             	movzwl %ax,%edx
   1991d:	48 8d 05 0c a7 00 00 	lea    0xa70c(%rip),%rax        # 24030 <g_8>
   19924:	48 89 05 b5 ea 00 00 	mov    %rax,0xeab5(%rip)        # 283e0 <g_421>
   1992b:	48 8b 05 ae ea 00 00 	mov    0xeaae(%rip),%rax        # 283e0 <g_421>
   19932:	48 89 85 68 f0 ff ff 	mov    %rax,-0xf98(%rbp)
   19939:	48 8b 85 60 f0 ff ff 	mov    -0xfa0(%rbp),%rax
   19940:	48 8b 00             	mov    (%rax),%rax
   19943:	8b 00                	mov    (%rax),%eax
   19945:	89 d6                	mov    %edx,%esi
   19947:	89 c7                	mov    %eax,%edi
   19949:	e8 68 0c ff ff       	callq  a5b6 <safe_add_func_int32_t_s_s>
   1994e:	41 39 c5             	cmp    %eax,%r13d
   19951:	0f 93 c0             	setae  %al
   19954:	0f b6 c0             	movzbl %al,%eax
   19957:	39 85 fc ef ff ff    	cmp    %eax,-0x1004(%rbp)
   1995d:	0f 96 c0             	setbe  %al
   19960:	0f b6 c0             	movzbl %al,%eax
   19963:	89 c6                	mov    %eax,%esi
   19965:	bf 9d 58 00 00       	mov    $0x589d,%edi
   1996a:	e8 90 13 ff ff       	callq  acff <safe_add_func_uint16_t_u_u>
   1996f:	0f b7 d0             	movzwl %ax,%edx
   19972:	48 8b 05 af a6 00 00 	mov    0xa6af(%rip),%rax        # 24028 <g_6>
   19979:	48 09 c2             	or     %rax,%rdx
   1997c:	8b 85 fc ef ff ff    	mov    -0x1004(%rbp),%eax
   19982:	48 89 d6             	mov    %rdx,%rsi
   19985:	48 89 c7             	mov    %rax,%rdi
   19988:	e8 b4 0e ff ff       	callq  a841 <safe_add_func_int64_t_s_s>
   1998d:	0f be c0             	movsbl %al,%eax
   19990:	44 89 e6             	mov    %r12d,%esi
   19993:	89 c7                	mov    %eax,%edi
   19995:	e8 97 08 ff ff       	callq  a231 <safe_mod_func_int8_t_s_s>
   1999a:	66 98                	cbtw   
   1999c:	0f b7 c0             	movzwl %ax,%eax
   1999f:	be 04 00 00 00       	mov    $0x4,%esi
   199a4:	89 c7                	mov    %eax,%edi
   199a6:	e8 e3 13 ff ff       	callq  ad8e <safe_div_func_uint16_t_u_u>
   199ab:	0f b7 c0             	movzwl %ax,%eax
   199ae:	89 85 1c f0 ff ff    	mov    %eax,-0xfe4(%rbp)
   199b4:	8b 85 1c f0 ff ff    	mov    -0xfe4(%rbp),%eax
   199ba:	0f b7 c0             	movzwl %ax,%eax
   199bd:	89 de                	mov    %ebx,%esi
   199bf:	89 c7                	mov    %eax,%edi
   199c1:	e8 96 13 ff ff       	callq  ad5c <safe_mod_func_uint16_t_u_u>
   199c6:	48 c7 85 d0 f1 ff ff 	movq   $0x0,-0xe30(%rbp)
   199cd:	00 00 00 00 
   199d1:	48 8d 05 50 a6 00 00 	lea    0xa650(%rip),%rax        # 24028 <g_6>
   199d8:	48 89 85 d8 f1 ff ff 	mov    %rax,-0xe28(%rbp)
   199df:	c7 85 d0 f2 ff ff ff 	movl   $0xffffffff,-0xd30(%rbp)
   199e6:	ff ff ff 
   199e9:	c7 85 d4 f2 ff ff ff 	movl   $0xffffffff,-0xd2c(%rbp)
   199f0:	ff ff ff 
   199f3:	c7 85 d8 f2 ff ff ff 	movl   $0xffffffff,-0xd28(%rbp)
   199fa:	ff ff ff 
   199fd:	c7 85 dc f2 ff ff ff 	movl   $0xffffffff,-0xd24(%rbp)
   19a04:	ff ff ff 
   19a07:	c7 85 e0 f2 ff ff ff 	movl   $0xffffffff,-0xd20(%rbp)
   19a0e:	ff ff ff 
   19a11:	c7 85 e4 f2 ff ff ff 	movl   $0xffffffff,-0xd1c(%rbp)
   19a18:	ff ff ff 
   19a1b:	c7 85 e8 f2 ff ff ff 	movl   $0xffffffff,-0xd18(%rbp)
   19a22:	ff ff ff 
   19a25:	c7 85 ec f2 ff ff ff 	movl   $0xffffffff,-0xd14(%rbp)
   19a2c:	ff ff ff 
   19a2f:	c7 85 f0 f2 ff ff ff 	movl   $0xffffffff,-0xd10(%rbp)
   19a36:	ff ff ff 
   19a39:	c7 85 f4 f2 ff ff ff 	movl   $0xffffffff,-0xd0c(%rbp)
   19a40:	ff ff ff 
   19a43:	48 8d 05 e6 a5 00 00 	lea    0xa5e6(%rip),%rax        # 24030 <g_8>
   19a4a:	48 89 85 a8 f1 ff ff 	mov    %rax,-0xe58(%rbp)
   19a51:	48 8d 05 d8 a5 00 00 	lea    0xa5d8(%rip),%rax        # 24030 <g_8>
   19a58:	48 89 85 00 f5 ff ff 	mov    %rax,-0xb00(%rbp)
   19a5f:	48 8d 05 ca a5 00 00 	lea    0xa5ca(%rip),%rax        # 24030 <g_8>
   19a66:	48 89 85 08 f5 ff ff 	mov    %rax,-0xaf8(%rbp)
   19a6d:	48 8d 05 04 a9 00 00 	lea    0xa904(%rip),%rax        # 24378 <g_457>
   19a74:	48 89 85 10 f5 ff ff 	mov    %rax,-0xaf0(%rbp)
   19a7b:	48 8d 05 26 a6 00 00 	lea    0xa626(%rip),%rax        # 240a8 <g_143>
   19a82:	48 89 85 18 f5 ff ff 	mov    %rax,-0xae8(%rbp)
   19a89:	48 8d 05 a0 a5 00 00 	lea    0xa5a0(%rip),%rax        # 24030 <g_8>
   19a90:	48 89 85 20 f5 ff ff 	mov    %rax,-0xae0(%rbp)
   19a97:	48 8d 05 0a a6 00 00 	lea    0xa60a(%rip),%rax        # 240a8 <g_143>
   19a9e:	48 89 85 28 f5 ff ff 	mov    %rax,-0xad8(%rbp)
   19aa5:	48 c7 85 30 f5 ff ff 	movq   $0x0,-0xad0(%rbp)
   19aac:	00 00 00 00 
   19ab0:	48 8d 05 79 a5 00 00 	lea    0xa579(%rip),%rax        # 24030 <g_8>
   19ab7:	48 89 85 38 f5 ff ff 	mov    %rax,-0xac8(%rbp)
   19abe:	48 8d 05 b3 a8 00 00 	lea    0xa8b3(%rip),%rax        # 24378 <g_457>
   19ac5:	48 89 85 40 f5 ff ff 	mov    %rax,-0xac0(%rbp)
   19acc:	48 c7 85 48 f5 ff ff 	movq   $0x0,-0xab8(%rbp)
   19ad3:	00 00 00 00 
   19ad7:	48 c7 85 50 f5 ff ff 	movq   $0x0,-0xab0(%rbp)
   19ade:	00 00 00 00 
   19ae2:	48 8d 05 47 a5 00 00 	lea    0xa547(%rip),%rax        # 24030 <g_8>
   19ae9:	48 89 85 58 f5 ff ff 	mov    %rax,-0xaa8(%rbp)
   19af0:	48 8d 05 b1 a5 00 00 	lea    0xa5b1(%rip),%rax        # 240a8 <g_143>
   19af7:	48 89 85 60 f5 ff ff 	mov    %rax,-0xaa0(%rbp)
   19afe:	48 8d 05 2b a5 00 00 	lea    0xa52b(%rip),%rax        # 24030 <g_8>
   19b05:	48 89 85 68 f5 ff ff 	mov    %rax,-0xa98(%rbp)
   19b0c:	48 8d 05 1d a5 00 00 	lea    0xa51d(%rip),%rax        # 24030 <g_8>
   19b13:	48 89 85 70 f5 ff ff 	mov    %rax,-0xa90(%rbp)
   19b1a:	48 8d 05 0f a5 00 00 	lea    0xa50f(%rip),%rax        # 24030 <g_8>
   19b21:	48 89 85 78 f5 ff ff 	mov    %rax,-0xa88(%rbp)
   19b28:	48 8d 05 01 a5 00 00 	lea    0xa501(%rip),%rax        # 24030 <g_8>
   19b2f:	48 89 85 80 f5 ff ff 	mov    %rax,-0xa80(%rbp)
   19b36:	48 8d 05 3b a8 00 00 	lea    0xa83b(%rip),%rax        # 24378 <g_457>
   19b3d:	48 89 85 88 f5 ff ff 	mov    %rax,-0xa78(%rbp)
   19b44:	48 8d 05 5d a5 00 00 	lea    0xa55d(%rip),%rax        # 240a8 <g_143>
   19b4b:	48 89 85 90 f5 ff ff 	mov    %rax,-0xa70(%rbp)
   19b52:	48 8d 05 d7 a4 00 00 	lea    0xa4d7(%rip),%rax        # 24030 <g_8>
   19b59:	48 89 85 98 f5 ff ff 	mov    %rax,-0xa68(%rbp)
   19b60:	48 8d 05 41 a5 00 00 	lea    0xa541(%rip),%rax        # 240a8 <g_143>
   19b67:	48 89 85 a0 f5 ff ff 	mov    %rax,-0xa60(%rbp)
   19b6e:	48 c7 85 a8 f5 ff ff 	movq   $0x0,-0xa58(%rbp)
   19b75:	00 00 00 00 
   19b79:	48 8d 05 b0 a4 00 00 	lea    0xa4b0(%rip),%rax        # 24030 <g_8>
   19b80:	48 89 85 b0 f5 ff ff 	mov    %rax,-0xa50(%rbp)
   19b87:	48 8d 05 ea a7 00 00 	lea    0xa7ea(%rip),%rax        # 24378 <g_457>
   19b8e:	48 89 85 b8 f5 ff ff 	mov    %rax,-0xa48(%rbp)
   19b95:	48 8b 85 d8 f1 ff ff 	mov    -0xe28(%rbp),%rax
   19b9c:	48 8b 10             	mov    (%rax),%rdx
   19b9f:	48 8b 85 98 f0 ff ff 	mov    -0xf68(%rbp),%rax
   19ba6:	48 85 c0             	test   %rax,%rax
   19ba9:	0f 95 c0             	setne  %al
   19bac:	0f b6 c0             	movzbl %al,%eax
   19baf:	48 09 c2             	or     %rax,%rdx
   19bb2:	48 8b 85 d8 f1 ff ff 	mov    -0xe28(%rbp),%rax
   19bb9:	48 89 10             	mov    %rdx,(%rax)
   19bbc:	48 8b 85 d8 f1 ff ff 	mov    -0xe28(%rbp),%rax
   19bc3:	48 8b 10             	mov    (%rax),%rdx
   19bc6:	8b 85 fc ef ff ff    	mov    -0x1004(%rbp),%eax
   19bcc:	48 39 c2             	cmp    %rax,%rdx
   19bcf:	7f 30                	jg     19c01 <func_61+0xe67>
   19bd1:	48 8b 85 60 f0 ff ff 	mov    -0xfa0(%rbp),%rax
   19bd8:	48 8b 00             	mov    (%rax),%rax
   19bdb:	8b 00                	mov    (%rax),%eax
   19bdd:	39 85 fc ef ff ff    	cmp    %eax,-0x1004(%rbp)
   19be3:	0f 97 c2             	seta   %dl
   19be6:	48 8b 85 60 f0 ff ff 	mov    -0xfa0(%rbp),%rax
   19bed:	48 8b 00             	mov    (%rax),%rax
   19bf0:	0f b6 d2             	movzbl %dl,%edx
   19bf3:	89 10                	mov    %edx,(%rax)
   19bf5:	48 8b 85 68 f0 ff ff 	mov    -0xf98(%rbp),%rax
   19bfc:	e9 e4 11 00 00       	jmpq   1ade5 <func_61+0x204b>
   19c01:	c7 85 50 f0 ff ff 7b 	movl   $0x4edad87b,-0xfb0(%rbp)
   19c08:	d8 da 4e 
   19c0b:	c6 85 05 f0 ff ff f6 	movb   $0xf6,-0xffb(%rbp)
   19c12:	c7 85 58 f0 ff ff 5c 	movl   $0x41b725c,-0xfa8(%rbp)
   19c19:	72 1b 04 
   19c1c:	c7 85 40 f0 ff ff 00 	movl   $0x0,-0xfc0(%rbp)
   19c23:	00 00 00 
   19c26:	eb 50                	jmp    19c78 <func_61+0xede>
   19c28:	c7 85 3c f0 ff ff 00 	movl   $0x0,-0xfc4(%rbp)
   19c2f:	00 00 00 
   19c32:	eb 34                	jmp    19c68 <func_61+0xece>
   19c34:	8b 85 3c f0 ff ff    	mov    -0xfc4(%rbp),%eax
   19c3a:	48 63 c8             	movslq %eax,%rcx
   19c3d:	8b 85 40 f0 ff ff    	mov    -0xfc0(%rbp),%eax
   19c43:	48 63 d0             	movslq %eax,%rdx
   19c46:	48 89 d0             	mov    %rdx,%rax
   19c49:	48 01 c0             	add    %rax,%rax
   19c4c:	48 01 d0             	add    %rdx,%rax
   19c4f:	48 01 c8             	add    %rcx,%rax
   19c52:	48 8d 15 af a4 00 00 	lea    0xa4af(%rip),%rdx        # 24108 <g_261>
   19c59:	48 89 94 c5 60 f2 ff 	mov    %rdx,-0xda0(%rbp,%rax,8)
   19c60:	ff 
   19c61:	83 85 3c f0 ff ff 01 	addl   $0x1,-0xfc4(%rbp)
   19c68:	83 bd 3c f0 ff ff 02 	cmpl   $0x2,-0xfc4(%rbp)
   19c6f:	7e c3                	jle    19c34 <func_61+0xe9a>
   19c71:	83 85 40 f0 ff ff 01 	addl   $0x1,-0xfc0(%rbp)
   19c78:	83 bd 40 f0 ff ff 00 	cmpl   $0x0,-0xfc0(%rbp)
   19c7f:	7e a7                	jle    19c28 <func_61+0xe8e>
   19c81:	c7 05 7d 02 01 00 0e 	movl   $0xe,0x1027d(%rip)        # 29f08 <g_36>
   19c88:	00 00 00 
   19c8b:	e9 3f 11 00 00       	jmpq   1adcf <func_61+0x2035>
   19c90:	48 c7 85 a8 f0 ff ff 	movq   $0x0,-0xf58(%rbp)
   19c97:	00 00 00 00 
   19c9b:	48 8d 85 a8 f0 ff ff 	lea    -0xf58(%rbp),%rax
   19ca2:	48 89 85 a0 f1 ff ff 	mov    %rax,-0xe60(%rbp)
   19ca9:	66 c7 85 08 f0 ff ff 	movw   $0xffff,-0xff8(%rbp)
   19cb0:	ff ff 
   19cb2:	66 c7 85 06 f0 ff ff 	movw   $0xfad2,-0xffa(%rbp)
   19cb9:	d2 fa 
   19cbb:	c7 85 2c f0 ff ff 6b 	movl   $0xd03f306b,-0xfd4(%rbp)
   19cc2:	30 3f d0 
   19cc5:	8b 85 1c f0 ff ff    	mov    -0xfe4(%rbp),%eax
   19ccb:	85 c0                	test   %eax,%eax
   19ccd:	0f 95 c0             	setne  %al
   19cd0:	0f b6 c0             	movzbl %al,%eax
   19cd3:	89 c3                	mov    %eax,%ebx
   19cd5:	48 8b 85 a0 f1 ff ff 	mov    -0xe60(%rbp),%rax
   19cdc:	48 8d 15 bd a3 00 00 	lea    0xa3bd(%rip),%rdx        # 240a0 <g_101>
   19ce3:	48 89 10             	mov    %rdx,(%rax)
   19ce6:	48 8b 85 68 f2 ff ff 	mov    -0xd98(%rbp),%rax
   19ced:	48 8d 15 ac a3 00 00 	lea    0xa3ac(%rip),%rdx        # 240a0 <g_101>
   19cf4:	48 39 d0             	cmp    %rdx,%rax
   19cf7:	0f 95 c0             	setne  %al
   19cfa:	0f b6 c0             	movzbl %al,%eax
   19cfd:	be bb 00 00 00       	mov    $0xbb,%esi
   19d02:	89 c7                	mov    %eax,%edi
   19d04:	e8 fc 0e ff ff       	callq  ac05 <safe_lshift_func_uint8_t_u_s>
   19d09:	0f b6 c0             	movzbl %al,%eax
   19d0c:	89 c6                	mov    %eax,%esi
   19d0e:	bf 6a 76 29 f5       	mov    $0xf529766a,%edi
   19d13:	e8 e5 11 ff ff       	callq  aefd <safe_mod_func_uint32_t_u_u>
   19d18:	39 c3                	cmp    %eax,%ebx
   19d1a:	8b 85 e0 f2 ff ff    	mov    -0xd20(%rbp),%eax
   19d20:	0f be c0             	movsbl %al,%eax
   19d23:	be 02 00 00 00       	mov    $0x2,%esi
   19d28:	89 c7                	mov    %eax,%edi
   19d2a:	e8 3d 06 ff ff       	callq  a36c <safe_rshift_func_int8_t_s_u>
   19d2f:	3c 01                	cmp    $0x1,%al
   19d31:	0f 94 c0             	sete   %al
   19d34:	0f b6 c0             	movzbl %al,%eax
   19d37:	be 98 2c b2 5a       	mov    $0x5ab22c98,%esi
   19d3c:	89 c7                	mov    %eax,%edi
   19d3e:	e8 e2 11 ff ff       	callq  af25 <safe_div_func_uint32_t_u_u>
   19d43:	8b 95 dc f2 ff ff    	mov    -0xd24(%rbp),%edx
   19d49:	39 d0                	cmp    %edx,%eax
   19d4b:	0f 86 a8 00 00 00    	jbe    19df9 <func_61+0x105f>
   19d51:	48 8d 05 b4 01 01 00 	lea    0x101b4(%rip),%rax        # 29f0c <g_65>
   19d58:	48 89 85 68 f1 ff ff 	mov    %rax,-0xe98(%rbp)
   19d5f:	48 8d 85 1c f0 ff ff 	lea    -0xfe4(%rbp),%rax
   19d66:	48 89 85 08 f1 ff ff 	mov    %rax,-0xef8(%rbp)
   19d6d:	48 8d 85 0c f0 ff ff 	lea    -0xff4(%rbp),%rax
   19d74:	48 89 85 10 f1 ff ff 	mov    %rax,-0xef0(%rbp)
   19d7b:	48 8d 85 1c f0 ff ff 	lea    -0xfe4(%rbp),%rax
   19d82:	48 89 85 18 f1 ff ff 	mov    %rax,-0xee8(%rbp)
   19d89:	48 8d 85 d0 f2 ff ff 	lea    -0xd30(%rbp),%rax
   19d90:	48 83 c0 10          	add    $0x10,%rax
   19d94:	48 89 85 20 f1 ff ff 	mov    %rax,-0xee0(%rbp)
   19d9b:	48 8d 85 d0 f2 ff ff 	lea    -0xd30(%rbp),%rax
   19da2:	48 83 c0 18          	add    $0x18,%rax
   19da6:	48 89 85 c0 f7 ff ff 	mov    %rax,-0x840(%rbp)
   19dad:	48 8d 85 d0 f2 ff ff 	lea    -0xd30(%rbp),%rax
   19db4:	48 83 c0 18          	add    $0x18,%rax
   19db8:	48 89 85 c8 f7 ff ff 	mov    %rax,-0x838(%rbp)
   19dbf:	48 8d 85 d0 f2 ff ff 	lea    -0xd30(%rbp),%rax
   19dc6:	48 83 c0 18          	add    $0x18,%rax
   19dca:	48 89 85 d0 f7 ff ff 	mov    %rax,-0x830(%rbp)
   19dd1:	48 8d 85 d0 f2 ff ff 	lea    -0xd30(%rbp),%rax
   19dd8:	48 83 c0 18          	add    $0x18,%rax
   19ddc:	48 89 85 d8 f7 ff ff 	mov    %rax,-0x828(%rbp)
   19de3:	0f b7 05 8e a5 00 00 	movzwl 0xa58e(%rip),%eax        # 24378 <g_457>
   19dea:	83 c0 01             	add    $0x1,%eax
   19ded:	66 89 05 84 a5 00 00 	mov    %ax,0xa584(%rip)        # 24378 <g_457>
   19df4:	e9 0e 0e 00 00       	jmpq   1ac07 <func_61+0x1e6d>
   19df9:	48 c7 85 b0 f0 ff ff 	movq   $0x0,-0xf50(%rbp)
   19e00:	00 00 00 00 
   19e04:	48 8d 85 b0 f0 ff ff 	lea    -0xf50(%rbp),%rax
   19e0b:	48 89 85 c0 f7 ff ff 	mov    %rax,-0x840(%rbp)
   19e12:	48 8d 85 b0 f0 ff ff 	lea    -0xf50(%rbp),%rax
   19e19:	48 89 85 c8 f7 ff ff 	mov    %rax,-0x838(%rbp)
   19e20:	48 8d 85 b0 f0 ff ff 	lea    -0xf50(%rbp),%rax
   19e27:	48 89 85 d0 f7 ff ff 	mov    %rax,-0x830(%rbp)
   19e2e:	48 8d 85 b0 f0 ff ff 	lea    -0xf50(%rbp),%rax
   19e35:	48 89 85 d8 f7 ff ff 	mov    %rax,-0x828(%rbp)
   19e3c:	48 c7 85 e0 f7 ff ff 	movq   $0x0,-0x820(%rbp)
   19e43:	00 00 00 00 
   19e47:	48 8d 85 b0 f0 ff ff 	lea    -0xf50(%rbp),%rax
   19e4e:	48 89 85 e8 f7 ff ff 	mov    %rax,-0x818(%rbp)
   19e55:	48 8d 85 b0 f0 ff ff 	lea    -0xf50(%rbp),%rax
   19e5c:	48 89 85 f0 f7 ff ff 	mov    %rax,-0x810(%rbp)
   19e63:	48 c7 85 f8 f7 ff ff 	movq   $0x0,-0x808(%rbp)
   19e6a:	00 00 00 00 
   19e6e:	48 8d 85 b0 f0 ff ff 	lea    -0xf50(%rbp),%rax
   19e75:	48 89 85 00 f8 ff ff 	mov    %rax,-0x800(%rbp)
   19e7c:	48 8d 85 b0 f0 ff ff 	lea    -0xf50(%rbp),%rax
   19e83:	48 89 85 08 f8 ff ff 	mov    %rax,-0x7f8(%rbp)
   19e8a:	48 8d 85 b0 f0 ff ff 	lea    -0xf50(%rbp),%rax
   19e91:	48 89 85 10 f8 ff ff 	mov    %rax,-0x7f0(%rbp)
   19e98:	48 8d 85 b0 f0 ff ff 	lea    -0xf50(%rbp),%rax
   19e9f:	48 89 85 18 f8 ff ff 	mov    %rax,-0x7e8(%rbp)
   19ea6:	48 8d 85 b0 f0 ff ff 	lea    -0xf50(%rbp),%rax
   19ead:	48 89 85 20 f8 ff ff 	mov    %rax,-0x7e0(%rbp)
   19eb4:	48 8d 85 b0 f0 ff ff 	lea    -0xf50(%rbp),%rax
   19ebb:	48 89 85 28 f8 ff ff 	mov    %rax,-0x7d8(%rbp)
   19ec2:	48 8d 85 b0 f0 ff ff 	lea    -0xf50(%rbp),%rax
   19ec9:	48 89 85 30 f8 ff ff 	mov    %rax,-0x7d0(%rbp)
   19ed0:	48 c7 85 38 f8 ff ff 	movq   $0x0,-0x7c8(%rbp)
   19ed7:	00 00 00 00 
   19edb:	48 c7 85 40 f8 ff ff 	movq   $0x0,-0x7c0(%rbp)
   19ee2:	00 00 00 00 
   19ee6:	48 8d 85 b0 f0 ff ff 	lea    -0xf50(%rbp),%rax
   19eed:	48 89 85 48 f8 ff ff 	mov    %rax,-0x7b8(%rbp)
   19ef4:	48 c7 85 50 f8 ff ff 	movq   $0x0,-0x7b0(%rbp)
   19efb:	00 00 00 00 
   19eff:	48 8d 85 b0 f0 ff ff 	lea    -0xf50(%rbp),%rax
   19f06:	48 89 85 58 f8 ff ff 	mov    %rax,-0x7a8(%rbp)
   19f0d:	48 8d 85 b0 f0 ff ff 	lea    -0xf50(%rbp),%rax
   19f14:	48 89 85 60 f8 ff ff 	mov    %rax,-0x7a0(%rbp)
   19f1b:	48 8d 85 b0 f0 ff ff 	lea    -0xf50(%rbp),%rax
   19f22:	48 89 85 68 f8 ff ff 	mov    %rax,-0x798(%rbp)
   19f29:	48 8d 85 b0 f0 ff ff 	lea    -0xf50(%rbp),%rax
   19f30:	48 89 85 70 f8 ff ff 	mov    %rax,-0x790(%rbp)
   19f37:	48 c7 85 78 f8 ff ff 	movq   $0x0,-0x788(%rbp)
   19f3e:	00 00 00 00 
   19f42:	48 8d 85 b0 f0 ff ff 	lea    -0xf50(%rbp),%rax
   19f49:	48 89 85 80 f8 ff ff 	mov    %rax,-0x780(%rbp)
   19f50:	48 8d 85 b0 f0 ff ff 	lea    -0xf50(%rbp),%rax
   19f57:	48 89 85 88 f8 ff ff 	mov    %rax,-0x778(%rbp)
   19f5e:	48 8d 85 b0 f0 ff ff 	lea    -0xf50(%rbp),%rax
   19f65:	48 89 85 90 f8 ff ff 	mov    %rax,-0x770(%rbp)
   19f6c:	48 8d 85 b0 f0 ff ff 	lea    -0xf50(%rbp),%rax
   19f73:	48 89 85 98 f8 ff ff 	mov    %rax,-0x768(%rbp)
   19f7a:	48 c7 85 a0 f8 ff ff 	movq   $0x0,-0x760(%rbp)
   19f81:	00 00 00 00 
   19f85:	48 8d 85 b0 f0 ff ff 	lea    -0xf50(%rbp),%rax
   19f8c:	48 89 85 a8 f8 ff ff 	mov    %rax,-0x758(%rbp)
   19f93:	48 8d 85 b0 f0 ff ff 	lea    -0xf50(%rbp),%rax
   19f9a:	48 89 85 b0 f8 ff ff 	mov    %rax,-0x750(%rbp)
   19fa1:	48 8d 85 b0 f0 ff ff 	lea    -0xf50(%rbp),%rax
   19fa8:	48 89 85 b8 f8 ff ff 	mov    %rax,-0x748(%rbp)
   19faf:	48 8d 85 b0 f0 ff ff 	lea    -0xf50(%rbp),%rax
   19fb6:	48 89 85 c0 f8 ff ff 	mov    %rax,-0x740(%rbp)
   19fbd:	48 8d 85 b0 f0 ff ff 	lea    -0xf50(%rbp),%rax
   19fc4:	48 89 85 c8 f8 ff ff 	mov    %rax,-0x738(%rbp)
   19fcb:	48 8d 85 b0 f0 ff ff 	lea    -0xf50(%rbp),%rax
   19fd2:	48 89 85 d0 f8 ff ff 	mov    %rax,-0x730(%rbp)
   19fd9:	48 8d 85 b0 f0 ff ff 	lea    -0xf50(%rbp),%rax
   19fe0:	48 89 85 d8 f8 ff ff 	mov    %rax,-0x728(%rbp)
   19fe7:	48 8d 85 b0 f0 ff ff 	lea    -0xf50(%rbp),%rax
   19fee:	48 89 85 e0 f8 ff ff 	mov    %rax,-0x720(%rbp)
   19ff5:	48 8d 85 b0 f0 ff ff 	lea    -0xf50(%rbp),%rax
   19ffc:	48 89 85 e8 f8 ff ff 	mov    %rax,-0x718(%rbp)
   1a003:	48 8d 85 b0 f0 ff ff 	lea    -0xf50(%rbp),%rax
   1a00a:	48 89 85 f0 f8 ff ff 	mov    %rax,-0x710(%rbp)
   1a011:	48 8d 85 b0 f0 ff ff 	lea    -0xf50(%rbp),%rax
   1a018:	48 89 85 f8 f8 ff ff 	mov    %rax,-0x708(%rbp)
   1a01f:	48 8d 85 b0 f0 ff ff 	lea    -0xf50(%rbp),%rax
   1a026:	48 89 85 00 f9 ff ff 	mov    %rax,-0x700(%rbp)
   1a02d:	48 c7 85 08 f9 ff ff 	movq   $0x0,-0x6f8(%rbp)
   1a034:	00 00 00 00 
   1a038:	48 8d 85 b0 f0 ff ff 	lea    -0xf50(%rbp),%rax
   1a03f:	48 89 85 10 f9 ff ff 	mov    %rax,-0x6f0(%rbp)
   1a046:	48 c7 85 18 f9 ff ff 	movq   $0x0,-0x6e8(%rbp)
   1a04d:	00 00 00 00 
   1a051:	48 8d 85 b0 f0 ff ff 	lea    -0xf50(%rbp),%rax
   1a058:	48 89 85 20 f9 ff ff 	mov    %rax,-0x6e0(%rbp)
   1a05f:	48 8d 85 b0 f0 ff ff 	lea    -0xf50(%rbp),%rax
   1a066:	48 89 85 28 f9 ff ff 	mov    %rax,-0x6d8(%rbp)
   1a06d:	48 8d 85 b0 f0 ff ff 	lea    -0xf50(%rbp),%rax
   1a074:	48 89 85 30 f9 ff ff 	mov    %rax,-0x6d0(%rbp)
   1a07b:	48 8d 85 b0 f0 ff ff 	lea    -0xf50(%rbp),%rax
   1a082:	48 89 85 38 f9 ff ff 	mov    %rax,-0x6c8(%rbp)
   1a089:	48 8d 85 b0 f0 ff ff 	lea    -0xf50(%rbp),%rax
   1a090:	48 89 85 40 f9 ff ff 	mov    %rax,-0x6c0(%rbp)
   1a097:	48 8d 85 b0 f0 ff ff 	lea    -0xf50(%rbp),%rax
   1a09e:	48 89 85 48 f9 ff ff 	mov    %rax,-0x6b8(%rbp)
   1a0a5:	48 8d 85 b0 f0 ff ff 	lea    -0xf50(%rbp),%rax
   1a0ac:	48 89 85 50 f9 ff ff 	mov    %rax,-0x6b0(%rbp)
   1a0b3:	48 8d 85 b0 f0 ff ff 	lea    -0xf50(%rbp),%rax
   1a0ba:	48 89 85 58 f9 ff ff 	mov    %rax,-0x6a8(%rbp)
   1a0c1:	48 c7 85 60 f9 ff ff 	movq   $0x0,-0x6a0(%rbp)
   1a0c8:	00 00 00 00 
   1a0cc:	48 8d 85 b0 f0 ff ff 	lea    -0xf50(%rbp),%rax
   1a0d3:	48 89 85 68 f9 ff ff 	mov    %rax,-0x698(%rbp)
   1a0da:	48 8d 85 b0 f0 ff ff 	lea    -0xf50(%rbp),%rax
   1a0e1:	48 89 85 70 f9 ff ff 	mov    %rax,-0x690(%rbp)
   1a0e8:	48 c7 85 78 f9 ff ff 	movq   $0x0,-0x688(%rbp)
   1a0ef:	00 00 00 00 
   1a0f3:	48 c7 85 80 f9 ff ff 	movq   $0x0,-0x680(%rbp)
   1a0fa:	00 00 00 00 
   1a0fe:	48 8d 85 b0 f0 ff ff 	lea    -0xf50(%rbp),%rax
   1a105:	48 89 85 88 f9 ff ff 	mov    %rax,-0x678(%rbp)
   1a10c:	48 8d 85 b0 f0 ff ff 	lea    -0xf50(%rbp),%rax
   1a113:	48 89 85 90 f9 ff ff 	mov    %rax,-0x670(%rbp)
   1a11a:	48 c7 85 98 f9 ff ff 	movq   $0x0,-0x668(%rbp)
   1a121:	00 00 00 00 
   1a125:	48 c7 85 a0 f9 ff ff 	movq   $0x0,-0x660(%rbp)
   1a12c:	00 00 00 00 
   1a130:	48 8d 85 b0 f0 ff ff 	lea    -0xf50(%rbp),%rax
   1a137:	48 89 85 a8 f9 ff ff 	mov    %rax,-0x658(%rbp)
   1a13e:	48 8d 85 b0 f0 ff ff 	lea    -0xf50(%rbp),%rax
   1a145:	48 89 85 b0 f9 ff ff 	mov    %rax,-0x650(%rbp)
   1a14c:	48 8d 85 b0 f0 ff ff 	lea    -0xf50(%rbp),%rax
   1a153:	48 89 85 b8 f9 ff ff 	mov    %rax,-0x648(%rbp)
   1a15a:	48 c7 85 c0 f9 ff ff 	movq   $0x0,-0x640(%rbp)
   1a161:	00 00 00 00 
   1a165:	48 8d 85 b0 f0 ff ff 	lea    -0xf50(%rbp),%rax
   1a16c:	48 89 85 c8 f9 ff ff 	mov    %rax,-0x638(%rbp)
   1a173:	48 8d 85 b0 f0 ff ff 	lea    -0xf50(%rbp),%rax
   1a17a:	48 89 85 d0 f9 ff ff 	mov    %rax,-0x630(%rbp)
   1a181:	48 c7 85 d8 f9 ff ff 	movq   $0x0,-0x628(%rbp)
   1a188:	00 00 00 00 
   1a18c:	48 8d 85 b0 f0 ff ff 	lea    -0xf50(%rbp),%rax
   1a193:	48 89 85 e0 f9 ff ff 	mov    %rax,-0x620(%rbp)
   1a19a:	48 8d 85 b0 f0 ff ff 	lea    -0xf50(%rbp),%rax
   1a1a1:	48 89 85 e8 f9 ff ff 	mov    %rax,-0x618(%rbp)
   1a1a8:	48 8d 85 b0 f0 ff ff 	lea    -0xf50(%rbp),%rax
   1a1af:	48 89 85 f0 f9 ff ff 	mov    %rax,-0x610(%rbp)
   1a1b6:	48 8d 85 b0 f0 ff ff 	lea    -0xf50(%rbp),%rax
   1a1bd:	48 89 85 f8 f9 ff ff 	mov    %rax,-0x608(%rbp)
   1a1c4:	48 8d 85 b0 f0 ff ff 	lea    -0xf50(%rbp),%rax
   1a1cb:	48 89 85 00 fa ff ff 	mov    %rax,-0x600(%rbp)
   1a1d2:	48 8d 85 b0 f0 ff ff 	lea    -0xf50(%rbp),%rax
   1a1d9:	48 89 85 08 fa ff ff 	mov    %rax,-0x5f8(%rbp)
   1a1e0:	48 8d 85 b0 f0 ff ff 	lea    -0xf50(%rbp),%rax
   1a1e7:	48 89 85 10 fa ff ff 	mov    %rax,-0x5f0(%rbp)
   1a1ee:	48 8d 85 b0 f0 ff ff 	lea    -0xf50(%rbp),%rax
   1a1f5:	48 89 85 18 fa ff ff 	mov    %rax,-0x5e8(%rbp)
   1a1fc:	48 8d 85 b0 f0 ff ff 	lea    -0xf50(%rbp),%rax
   1a203:	48 89 85 20 fa ff ff 	mov    %rax,-0x5e0(%rbp)
   1a20a:	48 8d 85 b0 f0 ff ff 	lea    -0xf50(%rbp),%rax
   1a211:	48 89 85 28 fa ff ff 	mov    %rax,-0x5d8(%rbp)
   1a218:	48 8d 85 b0 f0 ff ff 	lea    -0xf50(%rbp),%rax
   1a21f:	48 89 85 30 fa ff ff 	mov    %rax,-0x5d0(%rbp)
   1a226:	48 8d 85 b0 f0 ff ff 	lea    -0xf50(%rbp),%rax
   1a22d:	48 89 85 38 fa ff ff 	mov    %rax,-0x5c8(%rbp)
   1a234:	48 8d 85 b0 f0 ff ff 	lea    -0xf50(%rbp),%rax
   1a23b:	48 89 85 40 fa ff ff 	mov    %rax,-0x5c0(%rbp)
   1a242:	48 8d 85 b0 f0 ff ff 	lea    -0xf50(%rbp),%rax
   1a249:	48 89 85 48 fa ff ff 	mov    %rax,-0x5b8(%rbp)
   1a250:	48 8d 85 b0 f0 ff ff 	lea    -0xf50(%rbp),%rax
   1a257:	48 89 85 50 fa ff ff 	mov    %rax,-0x5b0(%rbp)
   1a25e:	48 c7 85 58 fa ff ff 	movq   $0x0,-0x5a8(%rbp)
   1a265:	00 00 00 00 
   1a269:	48 8d 85 b0 f0 ff ff 	lea    -0xf50(%rbp),%rax
   1a270:	48 89 85 60 fa ff ff 	mov    %rax,-0x5a0(%rbp)
   1a277:	48 8d 85 b0 f0 ff ff 	lea    -0xf50(%rbp),%rax
   1a27e:	48 89 85 68 fa ff ff 	mov    %rax,-0x598(%rbp)
   1a285:	48 8d 85 b0 f0 ff ff 	lea    -0xf50(%rbp),%rax
   1a28c:	48 89 85 70 fa ff ff 	mov    %rax,-0x590(%rbp)
   1a293:	48 8d 85 b0 f0 ff ff 	lea    -0xf50(%rbp),%rax
   1a29a:	48 89 85 78 fa ff ff 	mov    %rax,-0x588(%rbp)
   1a2a1:	48 8d 85 b0 f0 ff ff 	lea    -0xf50(%rbp),%rax
   1a2a8:	48 89 85 80 fa ff ff 	mov    %rax,-0x580(%rbp)
   1a2af:	48 8d 85 b0 f0 ff ff 	lea    -0xf50(%rbp),%rax
   1a2b6:	48 89 85 88 fa ff ff 	mov    %rax,-0x578(%rbp)
   1a2bd:	48 c7 85 90 fa ff ff 	movq   $0x0,-0x570(%rbp)
   1a2c4:	00 00 00 00 
   1a2c8:	48 c7 85 98 fa ff ff 	movq   $0x0,-0x568(%rbp)
   1a2cf:	00 00 00 00 
   1a2d3:	48 c7 85 a0 fa ff ff 	movq   $0x0,-0x560(%rbp)
   1a2da:	00 00 00 00 
   1a2de:	48 c7 85 a8 fa ff ff 	movq   $0x0,-0x558(%rbp)
   1a2e5:	00 00 00 00 
   1a2e9:	48 c7 85 b0 fa ff ff 	movq   $0x0,-0x550(%rbp)
   1a2f0:	00 00 00 00 
   1a2f4:	48 8d 85 b0 f0 ff ff 	lea    -0xf50(%rbp),%rax
   1a2fb:	48 89 85 b8 fa ff ff 	mov    %rax,-0x548(%rbp)
   1a302:	48 8d 85 b0 f0 ff ff 	lea    -0xf50(%rbp),%rax
   1a309:	48 89 85 c0 fa ff ff 	mov    %rax,-0x540(%rbp)
   1a310:	48 8d 85 b0 f0 ff ff 	lea    -0xf50(%rbp),%rax
   1a317:	48 89 85 c8 fa ff ff 	mov    %rax,-0x538(%rbp)
   1a31e:	48 8d 85 b0 f0 ff ff 	lea    -0xf50(%rbp),%rax
   1a325:	48 89 85 d0 fa ff ff 	mov    %rax,-0x530(%rbp)
   1a32c:	48 8d 85 b0 f0 ff ff 	lea    -0xf50(%rbp),%rax
   1a333:	48 89 85 d8 fa ff ff 	mov    %rax,-0x528(%rbp)
   1a33a:	48 c7 85 e0 fa ff ff 	movq   $0x0,-0x520(%rbp)
   1a341:	00 00 00 00 
   1a345:	48 c7 85 e8 fa ff ff 	movq   $0x0,-0x518(%rbp)
   1a34c:	00 00 00 00 
   1a350:	48 8d 85 b0 f0 ff ff 	lea    -0xf50(%rbp),%rax
   1a357:	48 89 85 f0 fa ff ff 	mov    %rax,-0x510(%rbp)
   1a35e:	48 8d 85 b0 f0 ff ff 	lea    -0xf50(%rbp),%rax
   1a365:	48 89 85 f8 fa ff ff 	mov    %rax,-0x508(%rbp)
   1a36c:	48 8d 85 b0 f0 ff ff 	lea    -0xf50(%rbp),%rax
   1a373:	48 89 85 00 fb ff ff 	mov    %rax,-0x500(%rbp)
   1a37a:	48 c7 85 08 fb ff ff 	movq   $0x0,-0x4f8(%rbp)
   1a381:	00 00 00 00 
   1a385:	48 8d 85 b0 f0 ff ff 	lea    -0xf50(%rbp),%rax
   1a38c:	48 89 85 10 fb ff ff 	mov    %rax,-0x4f0(%rbp)
   1a393:	48 c7 85 18 fb ff ff 	movq   $0x0,-0x4e8(%rbp)
   1a39a:	00 00 00 00 
   1a39e:	48 8d 85 b0 f0 ff ff 	lea    -0xf50(%rbp),%rax
   1a3a5:	48 89 85 20 fb ff ff 	mov    %rax,-0x4e0(%rbp)
   1a3ac:	48 c7 85 28 fb ff ff 	movq   $0x0,-0x4d8(%rbp)
   1a3b3:	00 00 00 00 
   1a3b7:	48 8d 85 b0 f0 ff ff 	lea    -0xf50(%rbp),%rax
   1a3be:	48 89 85 30 fb ff ff 	mov    %rax,-0x4d0(%rbp)
   1a3c5:	48 8d 85 b0 f0 ff ff 	lea    -0xf50(%rbp),%rax
   1a3cc:	48 89 85 38 fb ff ff 	mov    %rax,-0x4c8(%rbp)
   1a3d3:	48 8d 85 b0 f0 ff ff 	lea    -0xf50(%rbp),%rax
   1a3da:	48 89 85 40 fb ff ff 	mov    %rax,-0x4c0(%rbp)
   1a3e1:	48 8d 85 b0 f0 ff ff 	lea    -0xf50(%rbp),%rax
   1a3e8:	48 89 85 48 fb ff ff 	mov    %rax,-0x4b8(%rbp)
   1a3ef:	48 c7 85 50 fb ff ff 	movq   $0x0,-0x4b0(%rbp)
   1a3f6:	00 00 00 00 
   1a3fa:	48 8d 85 b0 f0 ff ff 	lea    -0xf50(%rbp),%rax
   1a401:	48 89 85 58 fb ff ff 	mov    %rax,-0x4a8(%rbp)
   1a408:	48 8d 85 b0 f0 ff ff 	lea    -0xf50(%rbp),%rax
   1a40f:	48 89 85 60 fb ff ff 	mov    %rax,-0x4a0(%rbp)
   1a416:	48 8d 85 b0 f0 ff ff 	lea    -0xf50(%rbp),%rax
   1a41d:	48 89 85 68 fb ff ff 	mov    %rax,-0x498(%rbp)
   1a424:	48 8d 85 b0 f0 ff ff 	lea    -0xf50(%rbp),%rax
   1a42b:	48 89 85 70 fb ff ff 	mov    %rax,-0x490(%rbp)
   1a432:	48 8d 85 b0 f0 ff ff 	lea    -0xf50(%rbp),%rax
   1a439:	48 89 85 78 fb ff ff 	mov    %rax,-0x488(%rbp)
   1a440:	48 8d 85 b0 f0 ff ff 	lea    -0xf50(%rbp),%rax
   1a447:	48 89 85 80 fb ff ff 	mov    %rax,-0x480(%rbp)
   1a44e:	48 c7 85 88 fb ff ff 	movq   $0x0,-0x478(%rbp)
   1a455:	00 00 00 00 
   1a459:	48 8d 85 b0 f0 ff ff 	lea    -0xf50(%rbp),%rax
   1a460:	48 89 85 90 fb ff ff 	mov    %rax,-0x470(%rbp)
   1a467:	48 c7 85 98 fb ff ff 	movq   $0x0,-0x468(%rbp)
   1a46e:	00 00 00 00 
   1a472:	48 8d 85 b0 f0 ff ff 	lea    -0xf50(%rbp),%rax
   1a479:	48 89 85 a0 fb ff ff 	mov    %rax,-0x460(%rbp)
   1a480:	48 8d 85 b0 f0 ff ff 	lea    -0xf50(%rbp),%rax
   1a487:	48 89 85 a8 fb ff ff 	mov    %rax,-0x458(%rbp)
   1a48e:	48 8d 85 b0 f0 ff ff 	lea    -0xf50(%rbp),%rax
   1a495:	48 89 85 b0 fb ff ff 	mov    %rax,-0x450(%rbp)
   1a49c:	48 8d 85 b0 f0 ff ff 	lea    -0xf50(%rbp),%rax
   1a4a3:	48 89 85 b8 fb ff ff 	mov    %rax,-0x448(%rbp)
   1a4aa:	48 8d 85 b0 f0 ff ff 	lea    -0xf50(%rbp),%rax
   1a4b1:	48 89 85 c0 fb ff ff 	mov    %rax,-0x440(%rbp)
   1a4b8:	48 8d 85 b0 f0 ff ff 	lea    -0xf50(%rbp),%rax
   1a4bf:	48 89 85 c8 fb ff ff 	mov    %rax,-0x438(%rbp)
   1a4c6:	48 8d 85 b0 f0 ff ff 	lea    -0xf50(%rbp),%rax
   1a4cd:	48 89 85 d0 fb ff ff 	mov    %rax,-0x430(%rbp)
   1a4d4:	48 8d 85 b0 f0 ff ff 	lea    -0xf50(%rbp),%rax
   1a4db:	48 89 85 d8 fb ff ff 	mov    %rax,-0x428(%rbp)
   1a4e2:	48 8d 85 b0 f0 ff ff 	lea    -0xf50(%rbp),%rax
   1a4e9:	48 89 85 e0 fb ff ff 	mov    %rax,-0x420(%rbp)
   1a4f0:	48 c7 85 e8 fb ff ff 	movq   $0x0,-0x418(%rbp)
   1a4f7:	00 00 00 00 
   1a4fb:	48 8d 85 b0 f0 ff ff 	lea    -0xf50(%rbp),%rax
   1a502:	48 89 85 f0 fb ff ff 	mov    %rax,-0x410(%rbp)
   1a509:	48 8d 85 b0 f0 ff ff 	lea    -0xf50(%rbp),%rax
   1a510:	48 89 85 f8 fb ff ff 	mov    %rax,-0x408(%rbp)
   1a517:	48 c7 85 00 fc ff ff 	movq   $0x0,-0x400(%rbp)
   1a51e:	00 00 00 00 
   1a522:	48 8d 85 b0 f0 ff ff 	lea    -0xf50(%rbp),%rax
   1a529:	48 89 85 08 fc ff ff 	mov    %rax,-0x3f8(%rbp)
   1a530:	48 8d 85 b0 f0 ff ff 	lea    -0xf50(%rbp),%rax
   1a537:	48 89 85 10 fc ff ff 	mov    %rax,-0x3f0(%rbp)
   1a53e:	48 8d 85 b0 f0 ff ff 	lea    -0xf50(%rbp),%rax
   1a545:	48 89 85 18 fc ff ff 	mov    %rax,-0x3e8(%rbp)
   1a54c:	48 8d 85 b0 f0 ff ff 	lea    -0xf50(%rbp),%rax
   1a553:	48 89 85 20 fc ff ff 	mov    %rax,-0x3e0(%rbp)
   1a55a:	48 8d 85 b0 f0 ff ff 	lea    -0xf50(%rbp),%rax
   1a561:	48 89 85 28 fc ff ff 	mov    %rax,-0x3d8(%rbp)
   1a568:	48 8d 85 b0 f0 ff ff 	lea    -0xf50(%rbp),%rax
   1a56f:	48 89 85 30 fc ff ff 	mov    %rax,-0x3d0(%rbp)
   1a576:	48 c7 85 38 fc ff ff 	movq   $0x0,-0x3c8(%rbp)
   1a57d:	00 00 00 00 
   1a581:	48 8d 85 b0 f0 ff ff 	lea    -0xf50(%rbp),%rax
   1a588:	48 89 85 40 fc ff ff 	mov    %rax,-0x3c0(%rbp)
   1a58f:	48 8d 85 b0 f0 ff ff 	lea    -0xf50(%rbp),%rax
   1a596:	48 89 85 48 fc ff ff 	mov    %rax,-0x3b8(%rbp)
   1a59d:	48 c7 85 50 fc ff ff 	movq   $0x0,-0x3b0(%rbp)
   1a5a4:	00 00 00 00 
   1a5a8:	48 8d 85 b0 f0 ff ff 	lea    -0xf50(%rbp),%rax
   1a5af:	48 89 85 58 fc ff ff 	mov    %rax,-0x3a8(%rbp)
   1a5b6:	48 c7 85 60 fc ff ff 	movq   $0x0,-0x3a0(%rbp)
   1a5bd:	00 00 00 00 
   1a5c1:	48 c7 85 68 fc ff ff 	movq   $0x0,-0x398(%rbp)
   1a5c8:	00 00 00 00 
   1a5cc:	48 8d 85 b0 f0 ff ff 	lea    -0xf50(%rbp),%rax
   1a5d3:	48 89 85 70 fc ff ff 	mov    %rax,-0x390(%rbp)
   1a5da:	48 8d 85 b0 f0 ff ff 	lea    -0xf50(%rbp),%rax
   1a5e1:	48 89 85 78 fc ff ff 	mov    %rax,-0x388(%rbp)
   1a5e8:	48 8d 85 b0 f0 ff ff 	lea    -0xf50(%rbp),%rax
   1a5ef:	48 89 85 80 fc ff ff 	mov    %rax,-0x380(%rbp)
   1a5f6:	48 8d 85 b0 f0 ff ff 	lea    -0xf50(%rbp),%rax
   1a5fd:	48 89 85 88 fc ff ff 	mov    %rax,-0x378(%rbp)
   1a604:	48 8d 85 b0 f0 ff ff 	lea    -0xf50(%rbp),%rax
   1a60b:	48 89 85 90 fc ff ff 	mov    %rax,-0x370(%rbp)
   1a612:	48 8d 85 b0 f0 ff ff 	lea    -0xf50(%rbp),%rax
   1a619:	48 89 85 98 fc ff ff 	mov    %rax,-0x368(%rbp)
   1a620:	48 8d 85 b0 f0 ff ff 	lea    -0xf50(%rbp),%rax
   1a627:	48 89 85 a0 fc ff ff 	mov    %rax,-0x360(%rbp)
   1a62e:	48 c7 85 a8 fc ff ff 	movq   $0x0,-0x358(%rbp)
   1a635:	00 00 00 00 
   1a639:	48 8d 85 b0 f0 ff ff 	lea    -0xf50(%rbp),%rax
   1a640:	48 89 85 b0 fc ff ff 	mov    %rax,-0x350(%rbp)
   1a647:	48 8d 85 b0 f0 ff ff 	lea    -0xf50(%rbp),%rax
   1a64e:	48 89 85 b8 fc ff ff 	mov    %rax,-0x348(%rbp)
   1a655:	48 8d 85 b0 f0 ff ff 	lea    -0xf50(%rbp),%rax
   1a65c:	48 89 85 c0 fc ff ff 	mov    %rax,-0x340(%rbp)
   1a663:	48 8d 85 b0 f0 ff ff 	lea    -0xf50(%rbp),%rax
   1a66a:	48 89 85 c8 fc ff ff 	mov    %rax,-0x338(%rbp)
   1a671:	48 c7 85 d0 fc ff ff 	movq   $0x0,-0x330(%rbp)
   1a678:	00 00 00 00 
   1a67c:	48 8d 85 b0 f0 ff ff 	lea    -0xf50(%rbp),%rax
   1a683:	48 89 85 d8 fc ff ff 	mov    %rax,-0x328(%rbp)
   1a68a:	48 8d 85 b0 f0 ff ff 	lea    -0xf50(%rbp),%rax
   1a691:	48 89 85 e0 fc ff ff 	mov    %rax,-0x320(%rbp)
   1a698:	48 8d 85 b0 f0 ff ff 	lea    -0xf50(%rbp),%rax
   1a69f:	48 89 85 e8 fc ff ff 	mov    %rax,-0x318(%rbp)
   1a6a6:	48 8d 85 b0 f0 ff ff 	lea    -0xf50(%rbp),%rax
   1a6ad:	48 89 85 f0 fc ff ff 	mov    %rax,-0x310(%rbp)
   1a6b4:	48 8d 85 b0 f0 ff ff 	lea    -0xf50(%rbp),%rax
   1a6bb:	48 89 85 f8 fc ff ff 	mov    %rax,-0x308(%rbp)
   1a6c2:	48 8d 85 b0 f0 ff ff 	lea    -0xf50(%rbp),%rax
   1a6c9:	48 89 85 00 fd ff ff 	mov    %rax,-0x300(%rbp)
   1a6d0:	48 8d 85 b0 f0 ff ff 	lea    -0xf50(%rbp),%rax
   1a6d7:	48 89 85 08 fd ff ff 	mov    %rax,-0x2f8(%rbp)
   1a6de:	48 8d 85 b0 f0 ff ff 	lea    -0xf50(%rbp),%rax
   1a6e5:	48 89 85 10 fd ff ff 	mov    %rax,-0x2f0(%rbp)
   1a6ec:	48 8d 85 b0 f0 ff ff 	lea    -0xf50(%rbp),%rax
   1a6f3:	48 89 85 18 fd ff ff 	mov    %rax,-0x2e8(%rbp)
   1a6fa:	48 c7 85 20 fd ff ff 	movq   $0x0,-0x2e0(%rbp)
   1a701:	00 00 00 00 
   1a705:	48 8d 85 b0 f0 ff ff 	lea    -0xf50(%rbp),%rax
   1a70c:	48 89 85 28 fd ff ff 	mov    %rax,-0x2d8(%rbp)
   1a713:	48 c7 85 30 fd ff ff 	movq   $0x0,-0x2d0(%rbp)
   1a71a:	00 00 00 00 
   1a71e:	48 8d 85 b0 f0 ff ff 	lea    -0xf50(%rbp),%rax
   1a725:	48 89 85 38 fd ff ff 	mov    %rax,-0x2c8(%rbp)
   1a72c:	48 8d 85 b0 f0 ff ff 	lea    -0xf50(%rbp),%rax
   1a733:	48 89 85 40 fd ff ff 	mov    %rax,-0x2c0(%rbp)
   1a73a:	48 8d 85 b0 f0 ff ff 	lea    -0xf50(%rbp),%rax
   1a741:	48 89 85 48 fd ff ff 	mov    %rax,-0x2b8(%rbp)
   1a748:	48 8d 85 b0 f0 ff ff 	lea    -0xf50(%rbp),%rax
   1a74f:	48 89 85 50 fd ff ff 	mov    %rax,-0x2b0(%rbp)
   1a756:	48 8d 85 b0 f0 ff ff 	lea    -0xf50(%rbp),%rax
   1a75d:	48 89 85 58 fd ff ff 	mov    %rax,-0x2a8(%rbp)
   1a764:	48 8d 85 b0 f0 ff ff 	lea    -0xf50(%rbp),%rax
   1a76b:	48 89 85 60 fd ff ff 	mov    %rax,-0x2a0(%rbp)
   1a772:	48 8d 85 b0 f0 ff ff 	lea    -0xf50(%rbp),%rax
   1a779:	48 89 85 68 fd ff ff 	mov    %rax,-0x298(%rbp)
   1a780:	48 8d 85 b0 f0 ff ff 	lea    -0xf50(%rbp),%rax
   1a787:	48 89 85 70 fd ff ff 	mov    %rax,-0x290(%rbp)
   1a78e:	48 8d 85 b0 f0 ff ff 	lea    -0xf50(%rbp),%rax
   1a795:	48 89 85 78 fd ff ff 	mov    %rax,-0x288(%rbp)
   1a79c:	48 c7 85 80 fd ff ff 	movq   $0x0,-0x280(%rbp)
   1a7a3:	00 00 00 00 
   1a7a7:	48 8d 85 b0 f0 ff ff 	lea    -0xf50(%rbp),%rax
   1a7ae:	48 89 85 88 fd ff ff 	mov    %rax,-0x278(%rbp)
   1a7b5:	48 8d 85 b0 f0 ff ff 	lea    -0xf50(%rbp),%rax
   1a7bc:	48 89 85 90 fd ff ff 	mov    %rax,-0x270(%rbp)
   1a7c3:	48 8d 85 b0 f0 ff ff 	lea    -0xf50(%rbp),%rax
   1a7ca:	48 89 85 98 fd ff ff 	mov    %rax,-0x268(%rbp)
   1a7d1:	48 8d 85 b0 f0 ff ff 	lea    -0xf50(%rbp),%rax
   1a7d8:	48 89 85 a0 fd ff ff 	mov    %rax,-0x260(%rbp)
   1a7df:	48 8d 85 b0 f0 ff ff 	lea    -0xf50(%rbp),%rax
   1a7e6:	48 89 85 a8 fd ff ff 	mov    %rax,-0x258(%rbp)
   1a7ed:	48 8d 85 b0 f0 ff ff 	lea    -0xf50(%rbp),%rax
   1a7f4:	48 89 85 b0 fd ff ff 	mov    %rax,-0x250(%rbp)
   1a7fb:	48 8d 85 b0 f0 ff ff 	lea    -0xf50(%rbp),%rax
   1a802:	48 89 85 b8 fd ff ff 	mov    %rax,-0x248(%rbp)
   1a809:	48 8d 85 b0 f0 ff ff 	lea    -0xf50(%rbp),%rax
   1a810:	48 89 85 c0 fd ff ff 	mov    %rax,-0x240(%rbp)
   1a817:	48 8d 85 b0 f0 ff ff 	lea    -0xf50(%rbp),%rax
   1a81e:	48 89 85 c8 fd ff ff 	mov    %rax,-0x238(%rbp)
   1a825:	48 8d 85 b0 f0 ff ff 	lea    -0xf50(%rbp),%rax
   1a82c:	48 89 85 d0 fd ff ff 	mov    %rax,-0x230(%rbp)
   1a833:	48 8d 85 b0 f0 ff ff 	lea    -0xf50(%rbp),%rax
   1a83a:	48 89 85 d8 fd ff ff 	mov    %rax,-0x228(%rbp)
   1a841:	48 8d 85 b0 f0 ff ff 	lea    -0xf50(%rbp),%rax
   1a848:	48 89 85 e0 fd ff ff 	mov    %rax,-0x220(%rbp)
   1a84f:	48 8d 85 b0 f0 ff ff 	lea    -0xf50(%rbp),%rax
   1a856:	48 89 85 e8 fd ff ff 	mov    %rax,-0x218(%rbp)
   1a85d:	48 8d 85 b0 f0 ff ff 	lea    -0xf50(%rbp),%rax
   1a864:	48 89 85 f0 fd ff ff 	mov    %rax,-0x210(%rbp)
   1a86b:	48 c7 85 f8 fd ff ff 	movq   $0x0,-0x208(%rbp)
   1a872:	00 00 00 00 
   1a876:	48 8d 85 b0 f0 ff ff 	lea    -0xf50(%rbp),%rax
   1a87d:	48 89 85 00 fe ff ff 	mov    %rax,-0x200(%rbp)
   1a884:	48 8d 85 b0 f0 ff ff 	lea    -0xf50(%rbp),%rax
   1a88b:	48 89 85 08 fe ff ff 	mov    %rax,-0x1f8(%rbp)
   1a892:	48 8d 85 b0 f0 ff ff 	lea    -0xf50(%rbp),%rax
   1a899:	48 89 85 10 fe ff ff 	mov    %rax,-0x1f0(%rbp)
   1a8a0:	48 c7 85 18 fe ff ff 	movq   $0x0,-0x1e8(%rbp)
   1a8a7:	00 00 00 00 
   1a8ab:	48 c7 85 20 fe ff ff 	movq   $0x0,-0x1e0(%rbp)
   1a8b2:	00 00 00 00 
   1a8b6:	48 8d 85 b0 f0 ff ff 	lea    -0xf50(%rbp),%rax
   1a8bd:	48 89 85 28 fe ff ff 	mov    %rax,-0x1d8(%rbp)
   1a8c4:	48 c7 85 30 fe ff ff 	movq   $0x0,-0x1d0(%rbp)
   1a8cb:	00 00 00 00 
   1a8cf:	48 8d 85 b0 f0 ff ff 	lea    -0xf50(%rbp),%rax
   1a8d6:	48 89 85 38 fe ff ff 	mov    %rax,-0x1c8(%rbp)
   1a8dd:	48 8d 85 b0 f0 ff ff 	lea    -0xf50(%rbp),%rax
   1a8e4:	48 89 85 40 fe ff ff 	mov    %rax,-0x1c0(%rbp)
   1a8eb:	48 8d 85 b0 f0 ff ff 	lea    -0xf50(%rbp),%rax
   1a8f2:	48 89 85 48 fe ff ff 	mov    %rax,-0x1b8(%rbp)
   1a8f9:	48 8d 85 b0 f0 ff ff 	lea    -0xf50(%rbp),%rax
   1a900:	48 89 85 50 fe ff ff 	mov    %rax,-0x1b0(%rbp)
   1a907:	48 c7 85 58 fe ff ff 	movq   $0x0,-0x1a8(%rbp)
   1a90e:	00 00 00 00 
   1a912:	48 8d 85 b0 f0 ff ff 	lea    -0xf50(%rbp),%rax
   1a919:	48 89 85 60 fe ff ff 	mov    %rax,-0x1a0(%rbp)
   1a920:	48 8d 85 b0 f0 ff ff 	lea    -0xf50(%rbp),%rax
   1a927:	48 89 85 68 fe ff ff 	mov    %rax,-0x198(%rbp)
   1a92e:	48 c7 85 70 fe ff ff 	movq   $0x0,-0x190(%rbp)
   1a935:	00 00 00 00 
   1a939:	48 8d 85 b0 f0 ff ff 	lea    -0xf50(%rbp),%rax
   1a940:	48 89 85 78 fe ff ff 	mov    %rax,-0x188(%rbp)
   1a947:	48 c7 85 80 fe ff ff 	movq   $0x0,-0x180(%rbp)
   1a94e:	00 00 00 00 
   1a952:	48 8d 85 b0 f0 ff ff 	lea    -0xf50(%rbp),%rax
   1a959:	48 89 85 88 fe ff ff 	mov    %rax,-0x178(%rbp)
   1a960:	48 8d 85 b0 f0 ff ff 	lea    -0xf50(%rbp),%rax
   1a967:	48 89 85 90 fe ff ff 	mov    %rax,-0x170(%rbp)
   1a96e:	48 8d 85 b0 f0 ff ff 	lea    -0xf50(%rbp),%rax
   1a975:	48 89 85 98 fe ff ff 	mov    %rax,-0x168(%rbp)
   1a97c:	48 8d 85 b0 f0 ff ff 	lea    -0xf50(%rbp),%rax
   1a983:	48 89 85 a0 fe ff ff 	mov    %rax,-0x160(%rbp)
   1a98a:	48 c7 85 a8 fe ff ff 	movq   $0x0,-0x158(%rbp)
   1a991:	00 00 00 00 
   1a995:	48 c7 85 b0 fe ff ff 	movq   $0x0,-0x150(%rbp)
   1a99c:	00 00 00 00 
   1a9a0:	48 8d 85 b0 f0 ff ff 	lea    -0xf50(%rbp),%rax
   1a9a7:	48 89 85 b8 fe ff ff 	mov    %rax,-0x148(%rbp)
   1a9ae:	48 8d 85 b0 f0 ff ff 	lea    -0xf50(%rbp),%rax
   1a9b5:	48 89 85 c0 fe ff ff 	mov    %rax,-0x140(%rbp)
   1a9bc:	48 8d 85 b0 f0 ff ff 	lea    -0xf50(%rbp),%rax
   1a9c3:	48 89 85 c8 fe ff ff 	mov    %rax,-0x138(%rbp)
   1a9ca:	48 8d 85 b0 f0 ff ff 	lea    -0xf50(%rbp),%rax
   1a9d1:	48 89 85 d0 fe ff ff 	mov    %rax,-0x130(%rbp)
   1a9d8:	48 8d 85 b0 f0 ff ff 	lea    -0xf50(%rbp),%rax
   1a9df:	48 89 85 d8 fe ff ff 	mov    %rax,-0x128(%rbp)
   1a9e6:	48 c7 85 e0 fe ff ff 	movq   $0x0,-0x120(%rbp)
   1a9ed:	00 00 00 00 
   1a9f1:	48 8d 85 b0 f0 ff ff 	lea    -0xf50(%rbp),%rax
   1a9f8:	48 89 85 e8 fe ff ff 	mov    %rax,-0x118(%rbp)
   1a9ff:	48 8d 85 b0 f0 ff ff 	lea    -0xf50(%rbp),%rax
   1aa06:	48 89 85 f0 fe ff ff 	mov    %rax,-0x110(%rbp)
   1aa0d:	48 c7 85 f8 fe ff ff 	movq   $0x0,-0x108(%rbp)
   1aa14:	00 00 00 00 
   1aa18:	48 8d 85 b0 f0 ff ff 	lea    -0xf50(%rbp),%rax
   1aa1f:	48 89 85 00 ff ff ff 	mov    %rax,-0x100(%rbp)
   1aa26:	48 8d 85 b0 f0 ff ff 	lea    -0xf50(%rbp),%rax
   1aa2d:	48 89 85 08 ff ff ff 	mov    %rax,-0xf8(%rbp)
   1aa34:	48 8d 85 b0 f0 ff ff 	lea    -0xf50(%rbp),%rax
   1aa3b:	48 89 85 10 ff ff ff 	mov    %rax,-0xf0(%rbp)
   1aa42:	48 c7 85 18 ff ff ff 	movq   $0x0,-0xe8(%rbp)
   1aa49:	00 00 00 00 
   1aa4d:	48 8d 85 b0 f0 ff ff 	lea    -0xf50(%rbp),%rax
   1aa54:	48 89 85 20 ff ff ff 	mov    %rax,-0xe0(%rbp)
   1aa5b:	48 8d 85 b0 f0 ff ff 	lea    -0xf50(%rbp),%rax
   1aa62:	48 89 85 28 ff ff ff 	mov    %rax,-0xd8(%rbp)
   1aa69:	48 c7 85 30 ff ff ff 	movq   $0x0,-0xd0(%rbp)
   1aa70:	00 00 00 00 
   1aa74:	48 c7 85 38 ff ff ff 	movq   $0x0,-0xc8(%rbp)
   1aa7b:	00 00 00 00 
   1aa7f:	48 8d 85 b0 f0 ff ff 	lea    -0xf50(%rbp),%rax
   1aa86:	48 89 85 40 ff ff ff 	mov    %rax,-0xc0(%rbp)
   1aa8d:	48 8d 85 b0 f0 ff ff 	lea    -0xf50(%rbp),%rax
   1aa94:	48 89 85 48 ff ff ff 	mov    %rax,-0xb8(%rbp)
   1aa9b:	48 c7 85 50 ff ff ff 	movq   $0x0,-0xb0(%rbp)
   1aaa2:	00 00 00 00 
   1aaa6:	48 c7 85 58 ff ff ff 	movq   $0x0,-0xa8(%rbp)
   1aaad:	00 00 00 00 
   1aab1:	48 8d 85 b0 f0 ff ff 	lea    -0xf50(%rbp),%rax
   1aab8:	48 89 85 60 ff ff ff 	mov    %rax,-0xa0(%rbp)
   1aabf:	48 c7 85 68 ff ff ff 	movq   $0x0,-0x98(%rbp)
   1aac6:	00 00 00 00 
   1aaca:	48 c7 85 70 ff ff ff 	movq   $0x0,-0x90(%rbp)
   1aad1:	00 00 00 00 
   1aad5:	48 8d 85 b0 f0 ff ff 	lea    -0xf50(%rbp),%rax
   1aadc:	48 89 85 78 ff ff ff 	mov    %rax,-0x88(%rbp)
   1aae3:	48 8d 85 b0 f0 ff ff 	lea    -0xf50(%rbp),%rax
   1aaea:	48 89 45 80          	mov    %rax,-0x80(%rbp)
   1aaee:	48 8d 85 b0 f0 ff ff 	lea    -0xf50(%rbp),%rax
   1aaf5:	48 89 45 88          	mov    %rax,-0x78(%rbp)
   1aaf9:	48 c7 45 90 00 00 00 	movq   $0x0,-0x70(%rbp)
   1ab00:	00 
   1ab01:	48 8d 85 b0 f0 ff ff 	lea    -0xf50(%rbp),%rax
   1ab08:	48 89 45 98          	mov    %rax,-0x68(%rbp)
   1ab0c:	c7 85 54 f0 ff ff 1f 	movl   $0xc7880c1f,-0xfac(%rbp)
   1ab13:	0c 88 c7 
   1ab16:	48 8d 85 14 f0 ff ff 	lea    -0xfec(%rbp),%rax
   1ab1d:	48 89 85 88 f1 ff ff 	mov    %rax,-0xe78(%rbp)
   1ab24:	48 8d 05 81 95 00 00 	lea    0x9581(%rip),%rax        # 240ac <g_188>
   1ab2b:	48 89 85 90 f1 ff ff 	mov    %rax,-0xe70(%rbp)
   1ab32:	48 8d 05 d3 f3 00 00 	lea    0xf3d3(%rip),%rax        # 29f0c <g_65>
   1ab39:	48 89 85 98 f1 ff ff 	mov    %rax,-0xe68(%rbp)
   1ab40:	48 8d 85 2c f0 ff ff 	lea    -0xfd4(%rbp),%rax
   1ab47:	48 89 85 70 f1 ff ff 	mov    %rax,-0xe90(%rbp)
   1ab4e:	48 c7 85 78 f1 ff ff 	movq   $0x0,-0xe88(%rbp)
   1ab55:	00 00 00 00 
   1ab59:	48 8d 05 18 96 00 00 	lea    0x9618(%rip),%rax        # 24178 <g_305>
   1ab60:	48 89 85 80 f1 ff ff 	mov    %rax,-0xe80(%rbp)
   1ab67:	8b 85 fc ef ff ff    	mov    -0x1004(%rbp),%eax
   1ab6d:	0f be d8             	movsbl %al,%ebx
   1ab70:	48 8b 85 b0 f0 ff ff 	mov    -0xf50(%rbp),%rax
   1ab77:	48 89 85 70 f0 ff ff 	mov    %rax,-0xf90(%rbp)
   1ab7e:	8b 85 e0 f2 ff ff    	mov    -0xd20(%rbp),%eax
   1ab84:	48 63 d0             	movslq %eax,%rdx
   1ab87:	8b 85 54 f0 ff ff    	mov    -0xfac(%rbp),%eax
   1ab8d:	48 98                	cltq   
   1ab8f:	48 89 d6             	mov    %rdx,%rsi
   1ab92:	48 89 c7             	mov    %rax,%rdi
   1ab95:	e8 1a fe fe ff       	callq  a9b4 <safe_mod_func_int64_t_s_s>
   1ab9a:	48 8b 85 a8 f1 ff ff 	mov    -0xe58(%rbp),%rax
   1aba1:	48 89 05 40 d8 00 00 	mov    %rax,0xd840(%rip)        # 283e8 <g_470>
   1aba8:	48 8b 05 39 d8 00 00 	mov    0xd839(%rip),%rax        # 283e8 <g_470>
   1abaf:	48 8d 15 7a 94 00 00 	lea    0x947a(%rip),%rdx        # 24030 <g_8>
   1abb6:	48 39 d0             	cmp    %rdx,%rax
   1abb9:	0f 95 c0             	setne  %al
   1abbc:	0f b6 c0             	movzbl %al,%eax
   1abbf:	89 85 e0 f2 ff ff    	mov    %eax,-0xd20(%rbp)
   1abc5:	8b 85 1c f0 ff ff    	mov    -0xfe4(%rbp),%eax
   1abcb:	83 c8 01             	or     $0x1,%eax
   1abce:	0f be c0             	movsbl %al,%eax
   1abd1:	89 de                	mov    %ebx,%esi
   1abd3:	89 c7                	mov    %eax,%edi
   1abd5:	e8 90 f6 fe ff       	callq  a26a <safe_div_func_int8_t_s_s>
   1abda:	0f be c0             	movsbl %al,%eax
   1abdd:	39 85 fc ef ff ff    	cmp    %eax,-0x1004(%rbp)
   1abe3:	0f 92 c0             	setb   %al
   1abe6:	0f b6 c0             	movzbl %al,%eax
   1abe9:	31 85 50 f0 ff ff    	xor    %eax,-0xfb0(%rbp)
   1abef:	80 ad 05 f0 ff ff 01 	subb   $0x1,-0xffb(%rbp)
   1abf6:	48 8b 05 83 d7 00 00 	mov    0xd783(%rip),%rax        # 28380 <g_64>
   1abfd:	8b 00                	mov    (%rax),%eax
   1abff:	85 c0                	test   %eax,%eax
   1ac01:	0f 85 d7 01 00 00    	jne    1adde <func_61+0x2044>
   1ac07:	66 c7 05 98 94 00 00 	movw   $0x0,0x9498(%rip)        # 240a8 <g_143>
   1ac0e:	00 00 
   1ac10:	e9 97 01 00 00       	jmpq   1adac <func_61+0x2012>
   1ac15:	48 8d 85 20 f0 ff ff 	lea    -0xfe0(%rbp),%rax
   1ac1c:	48 89 85 28 f1 ff ff 	mov    %rax,-0xed8(%rbp)
   1ac23:	48 8d 05 4e 95 00 00 	lea    0x954e(%rip),%rax        # 24178 <g_305>
   1ac2a:	48 89 85 30 f1 ff ff 	mov    %rax,-0xed0(%rbp)
   1ac31:	48 8d 85 a0 f2 ff ff 	lea    -0xd60(%rbp),%rax
   1ac38:	48 83 c0 1c          	add    $0x1c,%rax
   1ac3c:	48 89 85 38 f1 ff ff 	mov    %rax,-0xec8(%rbp)
   1ac43:	48 8d 85 a0 f2 ff ff 	lea    -0xd60(%rbp),%rax
   1ac4a:	48 83 c0 14          	add    $0x14,%rax
   1ac4e:	48 89 85 40 f1 ff ff 	mov    %rax,-0xec0(%rbp)
   1ac55:	48 c7 85 48 f1 ff ff 	movq   $0x0,-0xeb8(%rbp)
   1ac5c:	00 00 00 00 
   1ac60:	48 8d 85 14 f0 ff ff 	lea    -0xfec(%rbp),%rax
   1ac67:	48 89 85 50 f1 ff ff 	mov    %rax,-0xeb0(%rbp)
   1ac6e:	48 c7 85 58 f1 ff ff 	movq   $0x0,-0xea8(%rbp)
   1ac75:	00 00 00 00 
   1ac79:	48 8d 85 d0 f2 ff ff 	lea    -0xd30(%rbp),%rax
   1ac80:	48 83 c0 1c          	add    $0x1c,%rax
   1ac84:	48 89 85 60 f1 ff ff 	mov    %rax,-0xea0(%rbp)
   1ac8b:	48 8d 85 2c f0 ff ff 	lea    -0xfd4(%rbp),%rax
   1ac92:	48 89 85 00 f1 ff ff 	mov    %rax,-0xf00(%rbp)
   1ac99:	48 8d 85 d0 f2 ff ff 	lea    -0xd30(%rbp),%rax
   1aca0:	48 83 c0 10          	add    $0x10,%rax
   1aca4:	48 89 85 e0 f0 ff ff 	mov    %rax,-0xf20(%rbp)
   1acab:	48 c7 85 e8 f0 ff ff 	movq   $0x0,-0xf18(%rbp)
   1acb2:	00 00 00 00 
   1acb6:	48 8d 85 24 f0 ff ff 	lea    -0xfdc(%rbp),%rax
   1acbd:	48 89 85 f0 f0 ff ff 	mov    %rax,-0xf10(%rbp)
   1acc4:	48 8d 05 ad 94 00 00 	lea    0x94ad(%rip),%rax        # 24178 <g_305>
   1accb:	48 89 85 f8 f0 ff ff 	mov    %rax,-0xf08(%rbp)
   1acd2:	c7 85 48 f0 ff ff 00 	movl   $0x0,-0xfb8(%rbp)
   1acd9:	00 00 00 
   1acdc:	eb 6e                	jmp    1ad4c <func_61+0x1fb2>
   1acde:	c7 85 44 f0 ff ff 00 	movl   $0x0,-0xfbc(%rbp)
   1ace5:	00 00 00 
   1ace8:	eb 52                	jmp    1ad3c <func_61+0x1fa2>
   1acea:	c7 85 4c f0 ff ff 00 	movl   $0x0,-0xfb4(%rbp)
   1acf1:	00 00 00 
   1acf4:	eb 36                	jmp    1ad2c <func_61+0x1f92>
   1acf6:	8b 85 4c f0 ff ff    	mov    -0xfb4(%rbp),%eax
   1acfc:	48 63 c8             	movslq %eax,%rcx
   1acff:	8b 85 44 f0 ff ff    	mov    -0xfbc(%rbp),%eax
   1ad05:	48 63 d0             	movslq %eax,%rdx
   1ad08:	8b 85 48 f0 ff ff    	mov    -0xfb8(%rbp),%eax
   1ad0e:	48 98                	cltq   
   1ad10:	48 01 ca             	add    %rcx,%rdx
   1ad13:	48 01 c2             	add    %rax,%rdx
   1ad16:	48 8d 85 0c f0 ff ff 	lea    -0xff4(%rbp),%rax
   1ad1d:	48 89 84 d5 c0 f7 ff 	mov    %rax,-0x840(%rbp,%rdx,8)
   1ad24:	ff 
   1ad25:	83 85 4c f0 ff ff 01 	addl   $0x1,-0xfb4(%rbp)
   1ad2c:	83 bd 4c f0 ff ff 00 	cmpl   $0x0,-0xfb4(%rbp)
   1ad33:	7e c1                	jle    1acf6 <func_61+0x1f5c>
   1ad35:	83 85 44 f0 ff ff 01 	addl   $0x1,-0xfbc(%rbp)
   1ad3c:	83 bd 44 f0 ff ff 00 	cmpl   $0x0,-0xfbc(%rbp)
   1ad43:	7e a5                	jle    1acea <func_61+0x1f50>
   1ad45:	83 85 48 f0 ff ff 01 	addl   $0x1,-0xfb8(%rbp)
   1ad4c:	83 bd 48 f0 ff ff 07 	cmpl   $0x7,-0xfb8(%rbp)
   1ad53:	7e 89                	jle    1acde <func_61+0x1f44>
   1ad55:	83 bd 50 f0 ff ff 00 	cmpl   $0x0,-0xfb0(%rbp)
   1ad5c:	75 61                	jne    1adbf <func_61+0x2025>
   1ad5e:	0f b7 05 f3 96 00 00 	movzwl 0x96f3(%rip),%eax        # 24458 <g_499+0x38>
   1ad65:	83 e8 01             	sub    $0x1,%eax
   1ad68:	66 89 05 e9 96 00 00 	mov    %ax,0x96e9(%rip)        # 24458 <g_499+0x38>
   1ad6f:	48 8b 05 2a d6 00 00 	mov    0xd62a(%rip),%rax        # 283a0 <g_146>
   1ad76:	48 8b 00             	mov    (%rax),%rax
   1ad79:	8b 18                	mov    (%rax),%ebx
   1ad7b:	be 01 00 00 00       	mov    $0x1,%esi
   1ad80:	bf 00 00 00 00       	mov    $0x0,%edi
   1ad85:	e8 34 00 ff ff       	callq  adbe <safe_lshift_func_uint16_t_u_s>
   1ad8a:	0f b7 d0             	movzwl %ax,%edx
   1ad8d:	48 8b 85 60 f0 ff ff 	mov    -0xfa0(%rbp),%rax
   1ad94:	48 8b 00             	mov    (%rax),%rax
   1ad97:	21 da                	and    %ebx,%edx
   1ad99:	89 10                	mov    %edx,(%rax)
   1ad9b:	0f b7 05 06 93 00 00 	movzwl 0x9306(%rip),%eax        # 240a8 <g_143>
   1ada2:	83 c0 01             	add    $0x1,%eax
   1ada5:	66 89 05 fc 92 00 00 	mov    %ax,0x92fc(%rip)        # 240a8 <g_143>
   1adac:	0f b7 05 f5 92 00 00 	movzwl 0x92f5(%rip),%eax        # 240a8 <g_143>
   1adb3:	66 83 f8 24          	cmp    $0x24,%ax
   1adb7:	0f 85 58 fe ff ff    	jne    1ac15 <func_61+0x1e7b>
   1adbd:	eb 01                	jmp    1adc0 <func_61+0x2026>
   1adbf:	90                   	nop
   1adc0:	8b 05 42 f1 00 00    	mov    0xf142(%rip),%eax        # 29f08 <g_36>
   1adc6:	83 c0 01             	add    $0x1,%eax
   1adc9:	89 05 39 f1 00 00    	mov    %eax,0xf139(%rip)        # 29f08 <g_36>
   1adcf:	8b 05 33 f1 00 00    	mov    0xf133(%rip),%eax        # 29f08 <g_36>
   1add5:	83 f8 1d             	cmp    $0x1d,%eax
   1add8:	0f 8e b2 ee ff ff    	jle    19c90 <func_61+0xef6>
   1adde:	48 8b 85 10 f5 ff ff 	mov    -0xaf0(%rbp),%rax
   1ade5:	48 8b 5d c8          	mov    -0x38(%rbp),%rbx
   1ade9:	64 48 33 1c 25 28 00 	xor    %fs:0x28,%rbx
   1adf0:	00 00 
   1adf2:	74 05                	je     1adf9 <func_61+0x205f>
   1adf4:	e8 77 f2 fe ff       	callq  a070 <__stack_chk_fail@plt>
   1adf9:	48 81 c4 e8 0f 00 00 	add    $0xfe8,%rsp
   1ae00:	5b                   	pop    %rbx
   1ae01:	41 5c                	pop    %r12
   1ae03:	41 5d                	pop    %r13
   1ae05:	41 5e                	pop    %r14
   1ae07:	41 5f                	pop    %r15
   1ae09:	5d                   	pop    %rbp
   1ae0a:	c3                   	retq   

000000000001ae0b <func_66>:
   1ae0b:	f3 0f 1e fa          	endbr64 
   1ae0f:	55                   	push   %rbp
   1ae10:	48 89 e5             	mov    %rsp,%rbp
   1ae13:	53                   	push   %rbx
   1ae14:	48 81 ec 58 02 00 00 	sub    $0x258,%rsp
   1ae1b:	48 89 bd b8 fd ff ff 	mov    %rdi,-0x248(%rbp)
   1ae22:	89 d0                	mov    %edx,%eax
   1ae24:	89 8d ac fd ff ff    	mov    %ecx,-0x254(%rbp)
   1ae2a:	44 89 c1             	mov    %r8d,%ecx
   1ae2d:	89 f2                	mov    %esi,%edx
   1ae2f:	88 95 b4 fd ff ff    	mov    %dl,-0x24c(%rbp)
   1ae35:	88 85 b0 fd ff ff    	mov    %al,-0x250(%rbp)
   1ae3b:	89 c8                	mov    %ecx,%eax
   1ae3d:	88 85 a8 fd ff ff    	mov    %al,-0x258(%rbp)
   1ae43:	64 48 8b 04 25 28 00 	mov    %fs:0x28,%rax
   1ae4a:	00 00 
   1ae4c:	48 89 45 e8          	mov    %rax,-0x18(%rbp)
   1ae50:	31 c0                	xor    %eax,%eax
   1ae52:	48 8d 85 00 fe ff ff 	lea    -0x200(%rbp),%rax
   1ae59:	48 8d 15 40 d3 00 00 	lea    0xd340(%rip),%rdx        # 281a0 <g_3508+0x16c0>
   1ae60:	b9 3c 00 00 00       	mov    $0x3c,%ecx
   1ae65:	48 89 c7             	mov    %rax,%rdi
   1ae68:	48 89 d6             	mov    %rdx,%rsi
   1ae6b:	f3 48 a5             	rep movsq %ds:(%rsi),%es:(%rdi)
   1ae6e:	c7 85 c8 fd ff ff ff 	movl   $0xffffffff,-0x238(%rbp)
   1ae75:	ff ff ff 
   1ae78:	c6 85 c4 fd ff ff 92 	movb   $0x92,-0x23c(%rbp)
   1ae7f:	c6 85 c5 fd ff ff f3 	movb   $0xf3,-0x23b(%rbp)
   1ae86:	c7 85 cc fd ff ff a7 	movl   $0x5671b2a7,-0x234(%rbp)
   1ae8d:	b2 71 56 
   1ae90:	bf 01 00 00 00       	mov    $0x1,%edi
   1ae95:	e8 0c 00 ff ff       	callq  aea6 <safe_unary_minus_func_uint32_t_u>
   1ae9a:	0f b7 d0             	movzwl %ax,%edx
   1ae9d:	0f b6 85 a8 fd ff ff 	movzbl -0x258(%rbp),%eax
   1aea4:	89 d6                	mov    %edx,%esi
   1aea6:	89 c7                	mov    %eax,%edi
   1aea8:	e8 e1 fe fe ff       	callq  ad8e <safe_div_func_uint16_t_u_u>
   1aead:	89 c2                	mov    %eax,%edx
   1aeaf:	48 8b 05 ca d4 00 00 	mov    0xd4ca(%rip),%rax        # 28380 <g_64>
   1aeb6:	0f b7 d2             	movzwl %dx,%edx
   1aeb9:	89 10                	mov    %edx,(%rax)
   1aebb:	48 8b 05 be d4 00 00 	mov    0xd4be(%rip),%rax        # 28380 <g_64>
   1aec2:	c7 00 01 00 00 00    	movl   $0x1,(%rax)
   1aec8:	c6 85 b0 fd ff ff 0e 	movb   $0xe,-0x250(%rbp)
   1aecf:	e9 9f 01 00 00       	jmpq   1b073 <func_66+0x268>
   1aed4:	48 8d 85 00 fe ff ff 	lea    -0x200(%rbp),%rax
   1aedb:	48 05 a0 00 00 00    	add    $0xa0,%rax
   1aee1:	48 89 85 e0 fd ff ff 	mov    %rax,-0x220(%rbp)
   1aee8:	48 8d 05 1d f0 00 00 	lea    0xf01d(%rip),%rax        # 29f0c <g_65>
   1aeef:	48 89 85 d0 fd ff ff 	mov    %rax,-0x230(%rbp)
   1aef6:	48 8d 85 d0 fd ff ff 	lea    -0x230(%rbp),%rax
   1aefd:	48 89 85 e8 fd ff ff 	mov    %rax,-0x218(%rbp)
   1af04:	66 c7 85 c6 fd ff ff 	movw   $0xffff,-0x23a(%rbp)
   1af0b:	ff ff 
   1af0d:	48 8d 05 40 31 00 00 	lea    0x3140(%rip),%rax        # 1e054 <g_136>
   1af14:	48 89 85 d8 fd ff ff 	mov    %rax,-0x228(%rbp)
   1af1b:	48 8d 85 d8 fd ff ff 	lea    -0x228(%rbp),%rax
   1af22:	48 89 85 f0 fd ff ff 	mov    %rax,-0x210(%rbp)
   1af29:	48 8d 05 78 91 00 00 	lea    0x9178(%rip),%rax        # 240a8 <g_143>
   1af30:	48 89 85 f8 fd ff ff 	mov    %rax,-0x208(%rbp)
   1af37:	48 8b 85 e0 fd ff ff 	mov    -0x220(%rbp),%rax
   1af3e:	48 c7 00 00 00 00 00 	movq   $0x0,(%rax)
   1af45:	48 8b 85 e0 fd ff ff 	mov    -0x220(%rbp),%rax
   1af4c:	48 8b 10             	mov    (%rax),%rdx
   1af4f:	48 8b 85 e8 fd ff ff 	mov    -0x218(%rbp),%rax
   1af56:	48 89 10             	mov    %rdx,(%rax)
   1af59:	0f b6 05 d2 90 00 00 	movzbl 0x90d2(%rip),%eax        # 24032 <g_16>
   1af60:	0f be d0             	movsbl %al,%edx
   1af63:	8b 85 ac fd ff ff    	mov    -0x254(%rbp),%eax
   1af69:	39 c2                	cmp    %eax,%edx
   1af6b:	7c 10                	jl     1af7d <func_66+0x172>
   1af6d:	80 bd b0 fd ff ff 00 	cmpb   $0x0,-0x250(%rbp)
   1af74:	74 07                	je     1af7d <func_66+0x172>
   1af76:	b8 01 00 00 00       	mov    $0x1,%eax
   1af7b:	eb 05                	jmp    1af82 <func_66+0x177>
   1af7d:	b8 00 00 00 00       	mov    $0x0,%eax
   1af82:	0d dd 94 2b 20       	or     $0x202b94dd,%eax
   1af87:	89 c2                	mov    %eax,%edx
   1af89:	0f b6 8d a8 fd ff ff 	movzbl -0x258(%rbp),%ecx
   1af90:	48 8b 85 f8 fd ff ff 	mov    -0x208(%rbp),%rax
   1af97:	66 89 08             	mov    %cx,(%rax)
   1af9a:	48 8b 85 f8 fd ff ff 	mov    -0x208(%rbp),%rax
   1afa1:	0f b7 00             	movzwl (%rax),%eax
   1afa4:	0f b7 c0             	movzwl %ax,%eax
   1afa7:	89 d6                	mov    %edx,%esi
   1afa9:	89 c7                	mov    %eax,%edi
   1afab:	e8 98 fe fe ff       	callq  ae48 <safe_rshift_func_uint16_t_u_s>
   1afb0:	8b 05 56 ef 00 00    	mov    0xef56(%rip),%eax        # 29f0c <g_65>
   1afb6:	89 c2                	mov    %eax,%edx
   1afb8:	48 8b 05 89 90 00 00 	mov    0x9089(%rip),%rax        # 24048 <g_80+0x8>
   1afbf:	89 d6                	mov    %edx,%esi
   1afc1:	89 c7                	mov    %eax,%edi
   1afc3:	e8 08 ff fe ff       	callq  aed0 <safe_sub_func_uint32_t_u_u>
   1afc8:	8b 05 3e ef 00 00    	mov    0xef3e(%rip),%eax        # 29f0c <g_65>
   1afce:	0f be c0             	movsbl %al,%eax
   1afd1:	be 07 00 00 00       	mov    $0x7,%esi
   1afd6:	89 c7                	mov    %eax,%edi
   1afd8:	e8 8f f3 fe ff       	callq  a36c <safe_rshift_func_int8_t_s_u>
   1afdd:	0f be d8             	movsbl %al,%ebx
   1afe0:	48 8b 85 f0 fd ff ff 	mov    -0x210(%rbp),%rax
   1afe7:	48 8d 95 ac fd ff ff 	lea    -0x254(%rbp),%rdx
   1afee:	48 89 10             	mov    %rdx,(%rax)
   1aff1:	48 8b 85 f0 fd ff ff 	mov    -0x210(%rbp),%rax
   1aff8:	48 8b 10             	mov    (%rax),%rdx
   1affb:	48 8d 85 ac fd ff ff 	lea    -0x254(%rbp),%rax
   1b002:	48 39 c2             	cmp    %rax,%rdx
   1b005:	0f 95 c0             	setne  %al
   1b008:	0f b6 d0             	movzbl %al,%edx
   1b00b:	66 81 bd c6 fd ff ff 	cmpw   $0xbd68,-0x23a(%rbp)
   1b012:	68 bd 
   1b014:	0f 95 c0             	setne  %al
   1b017:	0f b6 c0             	movzbl %al,%eax
   1b01a:	89 d6                	mov    %edx,%esi
   1b01c:	89 c7                	mov    %eax,%edi
   1b01e:	e8 ef f1 fe ff       	callq  a212 <safe_mul_func_int8_t_s_s>
   1b023:	88 85 c5 fd ff ff    	mov    %al,-0x23b(%rbp)
   1b029:	0f be 95 c5 fd ff ff 	movsbl -0x23b(%rbp),%edx
   1b030:	0f b7 05 63 90 00 00 	movzwl 0x9063(%rip),%eax        # 2409a <g_98>
   1b037:	98                   	cwtl   
   1b038:	39 c2                	cmp    %eax,%edx
   1b03a:	0f 9e c0             	setle  %al
   1b03d:	0f b6 c0             	movzbl %al,%eax
   1b040:	39 c3                	cmp    %eax,%ebx
   1b042:	0f 9f c0             	setg   %al
   1b045:	0f b6 c0             	movzbl %al,%eax
   1b048:	89 c2                	mov    %eax,%edx
   1b04a:	0f b7 05 bf ee 00 00 	movzwl 0xeebf(%rip),%eax        # 29f10 <g_144>
   1b051:	09 d0                	or     %edx,%eax
   1b053:	66 89 05 b6 ee 00 00 	mov    %ax,0xeeb6(%rip)        # 29f10 <g_144>
   1b05a:	0f b6 85 b0 fd ff ff 	movzbl -0x250(%rbp),%eax
   1b061:	be 01 00 00 00       	mov    $0x1,%esi
   1b066:	89 c7                	mov    %eax,%edi
   1b068:	e8 4b fe fe ff       	callq  aeb8 <safe_add_func_uint32_t_u_u>
   1b06d:	88 85 b0 fd ff ff    	mov    %al,-0x250(%rbp)
   1b073:	80 bd b0 fd ff ff 2e 	cmpb   $0x2e,-0x250(%rbp)
   1b07a:	0f 85 54 fe ff ff    	jne    1aed4 <func_66+0xc9>
   1b080:	8b 85 cc fd ff ff    	mov    -0x234(%rbp),%eax
   1b086:	48 98                	cltq   
   1b088:	48 8b 5d e8          	mov    -0x18(%rbp),%rbx
   1b08c:	64 48 33 1c 25 28 00 	xor    %fs:0x28,%rbx
   1b093:	00 00 
   1b095:	74 05                	je     1b09c <func_66+0x291>
   1b097:	e8 d4 ef fe ff       	callq  a070 <__stack_chk_fail@plt>
   1b09c:	48 81 c4 58 02 00 00 	add    $0x258,%rsp
   1b0a3:	5b                   	pop    %rbx
   1b0a4:	5d                   	pop    %rbp
   1b0a5:	c3                   	retq   

000000000001b0a6 <func_72>:
   1b0a6:	f3 0f 1e fa          	endbr64 
   1b0aa:	55                   	push   %rbp
   1b0ab:	48 89 e5             	mov    %rsp,%rbp
   1b0ae:	48 89 7d e8          	mov    %rdi,-0x18(%rbp)
   1b0b2:	89 f0                	mov    %esi,%eax
   1b0b4:	88 45 e4             	mov    %al,-0x1c(%rbp)
   1b0b7:	48 8d 05 a2 8f 00 00 	lea    0x8fa2(%rip),%rax        # 24060 <g_86>
   1b0be:	48 89 45 f8          	mov    %rax,-0x8(%rbp)
   1b0c2:	48 8b 45 f8          	mov    -0x8(%rbp),%rax
   1b0c6:	48 89 05 c3 d2 00 00 	mov    %rax,0xd2c3(%rip)        # 28390 <g_87>
   1b0cd:	48 8d 05 8c 8f 00 00 	lea    0x8f8c(%rip),%rax        # 24060 <g_86>
   1b0d4:	5d                   	pop    %rbp
   1b0d5:	c3                   	retq   

000000000001b0d6 <main>:
   1b0d6:	f3 0f 1e fa          	endbr64 
   1b0da:	55                   	push   %rbp
   1b0db:	48 89 e5             	mov    %rsp,%rbp
   1b0de:	48 83 ec 50          	sub    $0x50,%rsp
   1b0e2:	89 7d dc             	mov    %edi,-0x24(%rbp)
   1b0e5:	48 89 75 d0          	mov    %rsi,-0x30(%rbp)
   1b0e9:	64 48 8b 04 25 28 00 	mov    %fs:0x28,%rax
   1b0f0:	00 00 
   1b0f2:	48 89 45 f8          	mov    %rax,-0x8(%rbp)
   1b0f6:	31 c0                	xor    %eax,%eax
   1b0f8:	c7 45 f4 00 00 00 00 	movl   $0x0,-0xc(%rbp)
   1b0ff:	83 7d dc 02          	cmpl   $0x2,-0x24(%rbp)
   1b103:	75 25                	jne    1b12a <main+0x54>
   1b105:	48 8b 45 d0          	mov    -0x30(%rbp),%rax
   1b109:	48 83 c0 08          	add    $0x8,%rax
   1b10d:	48 8b 00             	mov    (%rax),%rax
   1b110:	48 8d 35 61 44 00 00 	lea    0x4461(%rip),%rsi        # 1f578 <g_3175+0x13d4>
   1b117:	48 89 c7             	mov    %rax,%rdi
   1b11a:	e8 71 ef fe ff       	callq  a090 <strcmp@plt>
   1b11f:	85 c0                	test   %eax,%eax
   1b121:	75 07                	jne    1b12a <main+0x54>
   1b123:	c7 45 f4 01 00 00 00 	movl   $0x1,-0xc(%rbp)
   1b12a:	e8 5a f0 fe ff       	callq  a189 <platform_main_begin>
   1b12f:	e8 64 04 ff ff       	callq  b598 <crc32_gentab>
   1b134:	48 8d 45 b0          	lea    -0x50(%rbp),%rax
   1b138:	48 89 c7             	mov    %rax,%rdi
   1b13b:	e8 75 06 ff ff       	callq  b7b5 <func_1>
   1b140:	c7 45 e8 00 00 00 00 	movl   $0x0,-0x18(%rbp)
   1b147:	eb 4f                	jmp    1b198 <main+0xc2>
   1b149:	8b 45 e8             	mov    -0x18(%rbp),%eax
   1b14c:	48 98                	cltq   
   1b14e:	48 8d 14 c5 00 00 00 	lea    0x0(,%rax,8),%rdx
   1b155:	00 
   1b156:	48 8d 05 cb 8e 00 00 	lea    0x8ecb(%rip),%rax        # 24028 <g_6>
   1b15d:	48 8b 04 02          	mov    (%rdx,%rax,1),%rax
   1b161:	48 89 c1             	mov    %rax,%rcx
   1b164:	8b 45 f4             	mov    -0xc(%rbp),%eax
   1b167:	89 c2                	mov    %eax,%edx
   1b169:	48 8d 35 0a 44 00 00 	lea    0x440a(%rip),%rsi        # 1f57a <g_3175+0x13d6>
   1b170:	48 89 cf             	mov    %rcx,%rdi
   1b173:	e8 7b 05 ff ff       	callq  b6f3 <transparent_crc>
   1b178:	83 7d f4 00          	cmpl   $0x0,-0xc(%rbp)
   1b17c:	74 16                	je     1b194 <main+0xbe>
   1b17e:	8b 45 e8             	mov    -0x18(%rbp),%eax
   1b181:	89 c6                	mov    %eax,%esi
   1b183:	48 8d 3d f7 43 00 00 	lea    0x43f7(%rip),%rdi        # 1f581 <g_3175+0x13dd>
   1b18a:	b8 00 00 00 00       	mov    $0x0,%eax
   1b18f:	e8 ec ee fe ff       	callq  a080 <printf@plt>
   1b194:	83 45 e8 01          	addl   $0x1,-0x18(%rbp)
   1b198:	83 7d e8 00          	cmpl   $0x0,-0x18(%rbp)
   1b19c:	7e ab                	jle    1b149 <main+0x73>
   1b19e:	0f b7 05 8b 8e 00 00 	movzwl 0x8e8b(%rip),%eax        # 24030 <g_8>
   1b1a5:	0f b7 c0             	movzwl %ax,%eax
   1b1a8:	8b 55 f4             	mov    -0xc(%rbp),%edx
   1b1ab:	48 8d 35 dd 43 00 00 	lea    0x43dd(%rip),%rsi        # 1f58f <g_3175+0x13eb>
   1b1b2:	48 89 c7             	mov    %rax,%rdi
   1b1b5:	e8 39 05 ff ff       	callq  b6f3 <transparent_crc>
   1b1ba:	0f b6 05 71 8e 00 00 	movzbl 0x8e71(%rip),%eax        # 24032 <g_16>
   1b1c1:	48 0f be c0          	movsbq %al,%rax
   1b1c5:	8b 55 f4             	mov    -0xc(%rbp),%edx
   1b1c8:	48 8d 35 c4 43 00 00 	lea    0x43c4(%rip),%rsi        # 1f593 <g_3175+0x13ef>
   1b1cf:	48 89 c7             	mov    %rax,%rdi
   1b1d2:	e8 1c 05 ff ff       	callq  b6f3 <transparent_crc>
   1b1d7:	8b 05 57 8e 00 00    	mov    0x8e57(%rip),%eax        # 24034 <g_34>
   1b1dd:	48 98                	cltq   
   1b1df:	8b 55 f4             	mov    -0xc(%rbp),%edx
   1b1e2:	48 8d 35 af 43 00 00 	lea    0x43af(%rip),%rsi        # 1f598 <g_3175+0x13f4>
   1b1e9:	48 89 c7             	mov    %rax,%rdi
   1b1ec:	e8 02 05 ff ff       	callq  b6f3 <transparent_crc>
   1b1f1:	8b 05 11 ed 00 00    	mov    0xed11(%rip),%eax        # 29f08 <g_36>
   1b1f7:	48 98                	cltq   
   1b1f9:	8b 55 f4             	mov    -0xc(%rbp),%edx
   1b1fc:	48 8d 35 9a 43 00 00 	lea    0x439a(%rip),%rsi        # 1f59d <g_3175+0x13f9>
   1b203:	48 89 c7             	mov    %rax,%rdi
   1b206:	e8 e8 04 ff ff       	callq  b6f3 <transparent_crc>
   1b20b:	0f b7 05 26 8e 00 00 	movzwl 0x8e26(%rip),%eax        # 24038 <g_42>
   1b212:	0f b7 c0             	movzwl %ax,%eax
   1b215:	8b 55 f4             	mov    -0xc(%rbp),%edx
   1b218:	48 8d 35 83 43 00 00 	lea    0x4383(%rip),%rsi        # 1f5a2 <g_3175+0x13fe>
   1b21f:	48 89 c7             	mov    %rax,%rdi
   1b222:	e8 cc 04 ff ff       	callq  b6f3 <transparent_crc>
   1b227:	0f b7 05 0c 8e 00 00 	movzwl 0x8e0c(%rip),%eax        # 2403a <g_46>
   1b22e:	0f b7 c0             	movzwl %ax,%eax
   1b231:	8b 55 f4             	mov    -0xc(%rbp),%edx
   1b234:	48 8d 35 6c 43 00 00 	lea    0x436c(%rip),%rsi        # 1f5a7 <g_3175+0x1403>
   1b23b:	48 89 c7             	mov    %rax,%rdi
   1b23e:	e8 b0 04 ff ff       	callq  b6f3 <transparent_crc>
   1b243:	8b 05 c3 ec 00 00    	mov    0xecc3(%rip),%eax        # 29f0c <g_65>
   1b249:	48 98                	cltq   
   1b24b:	8b 55 f4             	mov    -0xc(%rbp),%edx
   1b24e:	48 8d 35 57 43 00 00 	lea    0x4357(%rip),%rsi        # 1f5ac <g_3175+0x1408>
   1b255:	48 89 c7             	mov    %rax,%rdi
   1b258:	e8 96 04 ff ff       	callq  b6f3 <transparent_crc>
   1b25d:	8b 05 dd 8d 00 00    	mov    0x8ddd(%rip),%eax        # 24040 <g_80>
   1b263:	89 c1                	mov    %eax,%ecx
   1b265:	8b 45 f4             	mov    -0xc(%rbp),%eax
   1b268:	89 c2                	mov    %eax,%edx
   1b26a:	48 8d 35 40 43 00 00 	lea    0x4340(%rip),%rsi        # 1f5b1 <g_3175+0x140d>
   1b271:	48 89 cf             	mov    %rcx,%rdi
   1b274:	e8 7a 04 ff ff       	callq  b6f3 <transparent_crc>
   1b279:	48 8b 05 c8 8d 00 00 	mov    0x8dc8(%rip),%rax        # 24048 <g_80+0x8>
   1b280:	8b 55 f4             	mov    -0xc(%rbp),%edx
   1b283:	48 8d 35 32 43 00 00 	lea    0x4332(%rip),%rsi        # 1f5bc <g_3175+0x1418>
   1b28a:	48 89 c7             	mov    %rax,%rdi
   1b28d:	e8 61 04 ff ff       	callq  b6f3 <transparent_crc>
   1b292:	48 8b 05 b7 8d 00 00 	mov    0x8db7(%rip),%rax        # 24050 <g_80+0x10>
   1b299:	48 89 c1             	mov    %rax,%rcx
   1b29c:	8b 45 f4             	mov    -0xc(%rbp),%eax
   1b29f:	89 c2                	mov    %eax,%edx
   1b2a1:	48 8d 35 1f 43 00 00 	lea    0x431f(%rip),%rsi        # 1f5c7 <g_3175+0x1423>
   1b2a8:	48 89 cf             	mov    %rcx,%rdi
   1b2ab:	e8 43 04 ff ff       	callq  b6f3 <transparent_crc>
   1b2b0:	8b 05 aa 8d 00 00    	mov    0x8daa(%rip),%eax        # 24060 <g_86>
   1b2b6:	89 c1                	mov    %eax,%ecx
   1b2b8:	8b 45 f4             	mov    -0xc(%rbp),%eax
   1b2bb:	89 c2                	mov    %eax,%edx
   1b2bd:	48 8d 35 0e 43 00 00 	lea    0x430e(%rip),%rsi        # 1f5d2 <g_3175+0x142e>
   1b2c4:	48 89 cf             	mov    %rcx,%rdi
   1b2c7:	e8 27 04 ff ff       	callq  b6f3 <transparent_crc>
   1b2cc:	48 8b 05 95 8d 00 00 	mov    0x8d95(%rip),%rax        # 24068 <g_86+0x8>
   1b2d3:	8b 55 f4             	mov    -0xc(%rbp),%edx
   1b2d6:	48 8d 35 00 43 00 00 	lea    0x4300(%rip),%rsi        # 1f5dd <g_3175+0x1439>
   1b2dd:	48 89 c7             	mov    %rax,%rdi
   1b2e0:	e8 0e 04 ff ff       	callq  b6f3 <transparent_crc>
   1b2e5:	48 8b 05 84 8d 00 00 	mov    0x8d84(%rip),%rax        # 24070 <g_86+0x10>
   1b2ec:	48 89 c1             	mov    %rax,%rcx
   1b2ef:	8b 45 f4             	mov    -0xc(%rbp),%eax
   1b2f2:	89 c2                	mov    %eax,%edx
   1b2f4:	48 8d 35 ed 42 00 00 	lea    0x42ed(%rip),%rsi        # 1f5e8 <g_3175+0x1444>
   1b2fb:	48 89 cf             	mov    %rcx,%rdi
   1b2fe:	e8 f0 03 ff ff       	callq  b6f3 <transparent_crc>
   1b303:	8b 05 77 8d 00 00    	mov    0x8d77(%rip),%eax        # 24080 <g_88>
   1b309:	89 c1                	mov    %eax,%ecx
   1b30b:	8b 45 f4             	mov    -0xc(%rbp),%eax
   1b30e:	89 c2                	mov    %eax,%edx
   1b310:	48 8d 35 dc 42 00 00 	lea    0x42dc(%rip),%rsi        # 1f5f3 <g_3175+0x144f>
   1b317:	48 89 cf             	mov    %rcx,%rdi
   1b31a:	e8 d4 03 ff ff       	callq  b6f3 <transparent_crc>
   1b31f:	48 8b 05 62 8d 00 00 	mov    0x8d62(%rip),%rax        # 24088 <g_88+0x8>
   1b326:	8b 55 f4             	mov    -0xc(%rbp),%edx
   1b329:	48 8d 35 ce 42 00 00 	lea    0x42ce(%rip),%rsi        # 1f5fe <g_3175+0x145a>
   1b330:	48 89 c7             	mov    %rax,%rdi
   1b333:	e8 bb 03 ff ff       	callq  b6f3 <transparent_crc>
   1b338:	48 8b 05 51 8d 00 00 	mov    0x8d51(%rip),%rax        # 24090 <g_88+0x10>
   1b33f:	48 89 c1             	mov    %rax,%rcx
   1b342:	8b 45 f4             	mov    -0xc(%rbp),%eax
   1b345:	89 c2                	mov    %eax,%edx
   1b347:	48 8d 35 bb 42 00 00 	lea    0x42bb(%rip),%rsi        # 1f609 <g_3175+0x1465>
   1b34e:	48 89 cf             	mov    %rcx,%rdi
   1b351:	e8 9d 03 ff ff       	callq  b6f3 <transparent_crc>
   1b356:	0f b7 05 3b 8d 00 00 	movzwl 0x8d3b(%rip),%eax        # 24098 <g_96>
   1b35d:	48 0f bf c0          	movswq %ax,%rax
   1b361:	8b 55 f4             	mov    -0xc(%rbp),%edx
   1b364:	48 8d 35 a9 42 00 00 	lea    0x42a9(%rip),%rsi        # 1f614 <g_3175+0x1470>
   1b36b:	48 89 c7             	mov    %rax,%rdi
   1b36e:	e8 80 03 ff ff       	callq  b6f3 <transparent_crc>
   1b373:	0f b7 05 20 8d 00 00 	movzwl 0x8d20(%rip),%eax        # 2409a <g_98>
   1b37a:	48 0f bf c0          	movswq %ax,%rax
   1b37e:	8b 55 f4             	mov    -0xc(%rbp),%edx
   1b381:	48 8d 35 91 42 00 00 	lea    0x4291(%rip),%rsi        # 1f619 <g_3175+0x1475>
   1b388:	48 89 c7             	mov    %rax,%rdi
   1b38b:	e8 63 03 ff ff       	callq  b6f3 <transparent_crc>
   1b390:	48 8b 05 09 8d 00 00 	mov    0x8d09(%rip),%rax        # 240a0 <g_101>
   1b397:	8b 55 f4             	mov    -0xc(%rbp),%edx
   1b39a:	48 8d 35 7d 42 00 00 	lea    0x427d(%rip),%rsi        # 1f61e <g_3175+0x147a>
   1b3a1:	48 89 c7             	mov    %rax,%rdi
   1b3a4:	e8 4a 03 ff ff       	callq  b6f3 <transparent_crc>
   1b3a9:	b8 15 92 07 e8       	mov    $0xe8079215,%eax
   1b3ae:	48 98                	cltq   
   1b3b0:	8b 55 f4             	mov    -0xc(%rbp),%edx
   1b3b3:	48 8d 35 6a 42 00 00 	lea    0x426a(%rip),%rsi        # 1f624 <g_3175+0x1480>
   1b3ba:	48 89 c7             	mov    %rax,%rdi
   1b3bd:	e8 31 03 ff ff       	callq  b6f3 <transparent_crc>
   1b3c2:	0f b7 05 df 8c 00 00 	movzwl 0x8cdf(%rip),%eax        # 240a8 <g_143>
   1b3c9:	0f b7 c0             	movzwl %ax,%eax
   1b3cc:	8b 55 f4             	mov    -0xc(%rbp),%edx
   1b3cf:	48 8d 35 54 42 00 00 	lea    0x4254(%rip),%rsi        # 1f62a <g_3175+0x1486>
   1b3d6:	48 89 c7             	mov    %rax,%rdi
   1b3d9:	e8 15 03 ff ff       	callq  b6f3 <transparent_crc>
   1b3de:	0f b7 05 2b eb 00 00 	movzwl 0xeb2b(%rip),%eax        # 29f10 <g_144>
   1b3e5:	48 0f bf c0          	movswq %ax,%rax
   1b3e9:	8b 55 f4             	mov    -0xc(%rbp),%edx
   1b3ec:	48 8d 35 3d 42 00 00 	lea    0x423d(%rip),%rsi        # 1f630 <g_3175+0x148c>
   1b3f3:	48 89 c7             	mov    %rax,%rdi
   1b3f6:	e8 f8 02 ff ff       	callq  b6f3 <transparent_crc>
   1b3fb:	8b 05 ab 8c 00 00    	mov    0x8cab(%rip),%eax        # 240ac <g_188>
   1b401:	48 98                	cltq   
   1b403:	8b 55 f4             	mov    -0xc(%rbp),%edx
   1b406:	48 8d 35 29 42 00 00 	lea    0x4229(%rip),%rsi        # 1f636 <g_3175+0x1492>
   1b40d:	48 89 c7             	mov    %rax,%rdi
   1b410:	e8 de 02 ff ff       	callq  b6f3 <transparent_crc>
   1b415:	8b 05 95 8c 00 00    	mov    0x8c95(%rip),%eax        # 240b0 <g_209>
   1b41b:	89 c1                	mov    %eax,%ecx
   1b41d:	8b 45 f4             	mov    -0xc(%rbp),%eax
   1b420:	89 c2                	mov    %eax,%edx
   1b422:	48 8d 35 13 42 00 00 	lea    0x4213(%rip),%rsi        # 1f63c <g_3175+0x1498>
   1b429:	48 89 cf             	mov    %rcx,%rdi
   1b42c:	e8 c2 02 ff ff       	callq  b6f3 <transparent_crc>
   1b431:	48 8b 05 80 8c 00 00 	mov    0x8c80(%rip),%rax        # 240b8 <g_209+0x8>
   1b438:	8b 55 f4             	mov    -0xc(%rbp),%edx
   1b43b:	48 8d 35 03 42 00 00 	lea    0x4203(%rip),%rsi        # 1f645 <g_3175+0x14a1>
   1b442:	48 89 c7             	mov    %rax,%rdi
   1b445:	e8 a9 02 ff ff       	callq  b6f3 <transparent_crc>
   1b44a:	48 8b 05 6f 8c 00 00 	mov    0x8c6f(%rip),%rax        # 240c0 <g_209+0x10>
   1b451:	48 89 c1             	mov    %rax,%rcx
   1b454:	8b 45 f4             	mov    -0xc(%rbp),%eax
   1b457:	89 c2                	mov    %eax,%edx
   1b459:	48 8d 35 ee 41 00 00 	lea    0x41ee(%rip),%rsi        # 1f64e <g_3175+0x14aa>
   1b460:	48 89 cf             	mov    %rcx,%rdi
   1b463:	e8 8b 02 ff ff       	callq  b6f3 <transparent_crc>
   1b468:	0f b6 05 59 8c 00 00 	movzbl 0x8c59(%rip),%eax        # 240c8 <g_213>
   1b46f:	0f b6 c0             	movzbl %al,%eax
   1b472:	8b 55 f4             	mov    -0xc(%rbp),%edx
   1b475:	48 8d 35 db 41 00 00 	lea    0x41db(%rip),%rsi        # 1f657 <g_3175+0x14b3>
   1b47c:	48 89 c7             	mov    %rax,%rdi
   1b47f:	e8 6f 02 ff ff       	callq  b6f3 <transparent_crc>
   1b484:	8b 05 46 8c 00 00    	mov    0x8c46(%rip),%eax        # 240d0 <g_250>
   1b48a:	89 c1                	mov    %eax,%ecx
   1b48c:	8b 45 f4             	mov    -0xc(%rbp),%eax
   1b48f:	89 c2                	mov    %eax,%edx
   1b491:	48 8d 35 c5 41 00 00 	lea    0x41c5(%rip),%rsi        # 1f65d <g_3175+0x14b9>
   1b498:	48 89 cf             	mov    %rcx,%rdi
   1b49b:	e8 53 02 ff ff       	callq  b6f3 <transparent_crc>
   1b4a0:	48 8b 05 31 8c 00 00 	mov    0x8c31(%rip),%rax        # 240d8 <g_250+0x8>
   1b4a7:	8b 55 f4             	mov    -0xc(%rbp),%edx
   1b4aa:	48 8d 35 b5 41 00 00 	lea    0x41b5(%rip),%rsi        # 1f666 <g_3175+0x14c2>
   1b4b1:	48 89 c7             	mov    %rax,%rdi
   1b4b4:	e8 3a 02 ff ff       	callq  b6f3 <transparent_crc>
   1b4b9:	48 8b 05 20 8c 00 00 	mov    0x8c20(%rip),%rax        # 240e0 <g_250+0x10>
   1b4c0:	48 89 c1             	mov    %rax,%rcx
   1b4c3:	8b 45 f4             	mov    -0xc(%rbp),%eax
   1b4c6:	89 c2                	mov    %eax,%edx
   1b4c8:	48 8d 35 a0 41 00 00 	lea    0x41a0(%rip),%rsi        # 1f66f <g_3175+0x14cb>
   1b4cf:	48 89 cf             	mov    %rcx,%rdi
   1b4d2:	e8 1c 02 ff ff       	callq  b6f3 <transparent_crc>
   1b4d7:	8b 05 13 8c 00 00    	mov    0x8c13(%rip),%eax        # 240f0 <g_251>
   1b4dd:	89 c1                	mov    %eax,%ecx
   1b4df:	8b 45 f4             	mov    -0xc(%rbp),%eax
   1b4e2:	89 c2                	mov    %eax,%edx
   1b4e4:	48 8d 35 8d 41 00 00 	lea    0x418d(%rip),%rsi        # 1f678 <g_3175+0x14d4>
   1b4eb:	48 89 cf             	mov    %rcx,%rdi
   1b4ee:	e8 00 02 ff ff       	callq  b6f3 <transparent_crc>
   1b4f3:	48 8b 05 fe 8b 00 00 	mov    0x8bfe(%rip),%rax        # 240f8 <g_251+0x8>
   1b4fa:	8b 55 f4             	mov    -0xc(%rbp),%edx
   1b4fd:	48 8d 35 7d 41 00 00 	lea    0x417d(%rip),%rsi        # 1f681 <g_3175+0x14dd>
   1b504:	48 89 c7             	mov    %rax,%rdi
   1b507:	e8 e7 01 ff ff       	callq  b6f3 <transparent_crc>
   1b50c:	48 8b 05 ed 8b 00 00 	mov    0x8bed(%rip),%rax        # 24100 <g_251+0x10>
   1b513:	48 89 c1             	mov    %rax,%rcx
   1b516:	8b 45 f4             	mov    -0xc(%rbp),%eax
   1b519:	89 c2                	mov    %eax,%edx
   1b51b:	48 8d 35 68 41 00 00 	lea    0x4168(%rip),%rsi        # 1f68a <g_3175+0x14e6>
   1b522:	48 89 cf             	mov    %rcx,%rdi
   1b525:	e8 c9 01 ff ff       	callq  b6f3 <transparent_crc>
   1b52a:	48 8b 05 d7 8b 00 00 	mov    0x8bd7(%rip),%rax        # 24108 <g_261>
   1b531:	8b 55 f4             	mov    -0xc(%rbp),%edx
   1b534:	48 8d 35 58 41 00 00 	lea    0x4158(%rip),%rsi        # 1f693 <g_3175+0x14ef>
   1b53b:	48 89 c7             	mov    %rax,%rdi
   1b53e:	e8 b0 01 ff ff       	callq  b6f3 <transparent_crc>
   1b543:	0f b7 05 c8 e9 00 00 	movzwl 0xe9c8(%rip),%eax        # 29f12 <g_292>
   1b54a:	48 0f bf c0          	movswq %ax,%rax
   1b54e:	8b 55 f4             	mov    -0xc(%rbp),%edx
   1b551:	48 8d 35 41 41 00 00 	lea    0x4141(%rip),%rsi        # 1f699 <g_3175+0x14f5>
   1b558:	48 89 c7             	mov    %rax,%rdi
   1b55b:	e8 93 01 ff ff       	callq  b6f3 <transparent_crc>
   1b560:	8b 05 aa 8b 00 00    	mov    0x8baa(%rip),%eax        # 24110 <g_293>
   1b566:	89 c1                	mov    %eax,%ecx
   1b568:	8b 45 f4             	mov    -0xc(%rbp),%eax
   1b56b:	89 c2                	mov    %eax,%edx
   1b56d:	48 8d 35 2b 41 00 00 	lea    0x412b(%rip),%rsi        # 1f69f <g_3175+0x14fb>
   1b574:	48 89 cf             	mov    %rcx,%rdi
   1b577:	e8 77 01 ff ff       	callq  b6f3 <transparent_crc>
   1b57c:	c7 45 e8 00 00 00 00 	movl   $0x0,-0x18(%rbp)
   1b583:	eb 4f                	jmp    1b5d4 <main+0x4fe>
   1b585:	8b 45 e8             	mov    -0x18(%rbp),%eax
   1b588:	48 98                	cltq   
   1b58a:	48 8d 14 c5 00 00 00 	lea    0x0(,%rax,8),%rdx
   1b591:	00 
   1b592:	48 8d 05 87 8b 00 00 	lea    0x8b87(%rip),%rax        # 24120 <g_301>
   1b599:	48 8b 04 02          	mov    (%rdx,%rax,1),%rax
   1b59d:	48 89 c1             	mov    %rax,%rcx
   1b5a0:	8b 45 f4             	mov    -0xc(%rbp),%eax
   1b5a3:	89 c2                	mov    %eax,%edx
   1b5a5:	48 8d 35 f9 40 00 00 	lea    0x40f9(%rip),%rsi        # 1f6a5 <g_3175+0x1501>
   1b5ac:	48 89 cf             	mov    %rcx,%rdi
   1b5af:	e8 3f 01 ff ff       	callq  b6f3 <transparent_crc>
   1b5b4:	83 7d f4 00          	cmpl   $0x0,-0xc(%rbp)
   1b5b8:	74 16                	je     1b5d0 <main+0x4fa>
   1b5ba:	8b 45 e8             	mov    -0x18(%rbp),%eax
   1b5bd:	89 c6                	mov    %eax,%esi
   1b5bf:	48 8d 3d bb 3f 00 00 	lea    0x3fbb(%rip),%rdi        # 1f581 <g_3175+0x13dd>
   1b5c6:	b8 00 00 00 00       	mov    $0x0,%eax
   1b5cb:	e8 b0 ea fe ff       	callq  a080 <printf@plt>
   1b5d0:	83 45 e8 01          	addl   $0x1,-0x18(%rbp)
   1b5d4:	83 7d e8 05          	cmpl   $0x5,-0x18(%rbp)
   1b5d8:	7e ab                	jle    1b585 <main+0x4af>
   1b5da:	0f b6 05 33 e9 00 00 	movzbl 0xe933(%rip),%eax        # 29f14 <g_302>
   1b5e1:	48 0f be c0          	movsbq %al,%rax
   1b5e5:	8b 55 f4             	mov    -0xc(%rbp),%edx
   1b5e8:	48 8d 35 bf 40 00 00 	lea    0x40bf(%rip),%rsi        # 1f6ae <g_3175+0x150a>
   1b5ef:	48 89 c7             	mov    %rax,%rdi
   1b5f2:	e8 fc 00 ff ff       	callq  b6f3 <transparent_crc>
   1b5f7:	48 8b 05 52 8b 00 00 	mov    0x8b52(%rip),%rax        # 24150 <g_303>
   1b5fe:	48 89 c1             	mov    %rax,%rcx
   1b601:	8b 45 f4             	mov    -0xc(%rbp),%eax
   1b604:	89 c2                	mov    %eax,%edx
   1b606:	48 8d 35 a7 40 00 00 	lea    0x40a7(%rip),%rsi        # 1f6b4 <g_3175+0x1510>
   1b60d:	48 89 cf             	mov    %rcx,%rdi
   1b610:	e8 de 00 ff ff       	callq  b6f3 <transparent_crc>
   1b615:	c7 45 e8 00 00 00 00 	movl   $0x0,-0x18(%rbp)
   1b61c:	eb 4b                	jmp    1b669 <main+0x593>
   1b61e:	8b 45 e8             	mov    -0x18(%rbp),%eax
   1b621:	48 98                	cltq   
   1b623:	48 8d 14 85 00 00 00 	lea    0x0(,%rax,4),%rdx
   1b62a:	00 
   1b62b:	48 8d 05 2e 8b 00 00 	lea    0x8b2e(%rip),%rax        # 24160 <g_304>
   1b632:	8b 04 02             	mov    (%rdx,%rax,1),%eax
   1b635:	48 98                	cltq   
   1b637:	8b 55 f4             	mov    -0xc(%rbp),%edx
   1b63a:	48 8d 35 79 40 00 00 	lea    0x4079(%rip),%rsi        # 1f6ba <g_3175+0x1516>
   1b641:	48 89 c7             	mov    %rax,%rdi
   1b644:	e8 aa 00 ff ff       	callq  b6f3 <transparent_crc>
   1b649:	83 7d f4 00          	cmpl   $0x0,-0xc(%rbp)
   1b64d:	74 16                	je     1b665 <main+0x58f>
   1b64f:	8b 45 e8             	mov    -0x18(%rbp),%eax
   1b652:	89 c6                	mov    %eax,%esi
   1b654:	48 8d 3d 26 3f 00 00 	lea    0x3f26(%rip),%rdi        # 1f581 <g_3175+0x13dd>
   1b65b:	b8 00 00 00 00       	mov    $0x0,%eax
   1b660:	e8 1b ea fe ff       	callq  a080 <printf@plt>
   1b665:	83 45 e8 01          	addl   $0x1,-0x18(%rbp)
   1b669:	83 7d e8 05          	cmpl   $0x5,-0x18(%rbp)
   1b66d:	7e af                	jle    1b61e <main+0x548>
   1b66f:	8b 05 03 8b 00 00    	mov    0x8b03(%rip),%eax        # 24178 <g_305>
   1b675:	48 98                	cltq   
   1b677:	8b 55 f4             	mov    -0xc(%rbp),%edx
   1b67a:	48 8d 35 42 40 00 00 	lea    0x4042(%rip),%rsi        # 1f6c3 <g_3175+0x151f>
   1b681:	48 89 c7             	mov    %rax,%rdi
   1b684:	e8 6a 00 ff ff       	callq  b6f3 <transparent_crc>
   1b689:	8b 05 89 e8 00 00    	mov    0xe889(%rip),%eax        # 29f18 <g_306>
   1b68f:	89 c1                	mov    %eax,%ecx
   1b691:	8b 45 f4             	mov    -0xc(%rbp),%eax
   1b694:	89 c2                	mov    %eax,%edx
   1b696:	48 8d 35 2c 40 00 00 	lea    0x402c(%rip),%rsi        # 1f6c9 <g_3175+0x1525>
   1b69d:	48 89 cf             	mov    %rcx,%rdi
   1b6a0:	e8 4e 00 ff ff       	callq  b6f3 <transparent_crc>
   1b6a5:	8b 05 d1 8a 00 00    	mov    0x8ad1(%rip),%eax        # 2417c <g_322>
   1b6ab:	89 c1                	mov    %eax,%ecx
   1b6ad:	8b 45 f4             	mov    -0xc(%rbp),%eax
   1b6b0:	89 c2                	mov    %eax,%edx
   1b6b2:	48 8d 35 16 40 00 00 	lea    0x4016(%rip),%rsi        # 1f6cf <g_3175+0x152b>
   1b6b9:	48 89 cf             	mov    %rcx,%rdi
   1b6bc:	e8 32 00 ff ff       	callq  b6f3 <transparent_crc>
   1b6c1:	c7 45 e8 00 00 00 00 	movl   $0x0,-0x18(%rbp)
   1b6c8:	eb 76                	jmp    1b740 <main+0x66a>
   1b6ca:	c7 45 ec 00 00 00 00 	movl   $0x0,-0x14(%rbp)
   1b6d1:	eb 63                	jmp    1b736 <main+0x660>
   1b6d3:	8b 45 ec             	mov    -0x14(%rbp),%eax
   1b6d6:	48 63 c8             	movslq %eax,%rcx
   1b6d9:	8b 45 e8             	mov    -0x18(%rbp),%eax
   1b6dc:	48 63 d0             	movslq %eax,%rdx
   1b6df:	48 89 d0             	mov    %rdx,%rax
   1b6e2:	48 01 c0             	add    %rax,%rax
   1b6e5:	48 01 d0             	add    %rdx,%rax
   1b6e8:	48 01 c0             	add    %rax,%rax
   1b6eb:	48 01 c8             	add    %rcx,%rax
   1b6ee:	48 8d 14 c5 00 00 00 	lea    0x0(,%rax,8),%rdx
   1b6f5:	00 
   1b6f6:	48 8d 05 83 8a 00 00 	lea    0x8a83(%rip),%rax        # 24180 <g_356>
   1b6fd:	48 8b 04 02          	mov    (%rdx,%rax,1),%rax
   1b701:	8b 55 f4             	mov    -0xc(%rbp),%edx
   1b704:	48 8d 35 ca 3f 00 00 	lea    0x3fca(%rip),%rsi        # 1f6d5 <g_3175+0x1531>
   1b70b:	48 89 c7             	mov    %rax,%rdi
   1b70e:	e8 e0 ff fe ff       	callq  b6f3 <transparent_crc>
   1b713:	83 7d f4 00          	cmpl   $0x0,-0xc(%rbp)
   1b717:	74 19                	je     1b732 <main+0x65c>
   1b719:	8b 55 ec             	mov    -0x14(%rbp),%edx
   1b71c:	8b 45 e8             	mov    -0x18(%rbp),%eax
   1b71f:	89 c6                	mov    %eax,%esi
   1b721:	48 8d 3d b9 3f 00 00 	lea    0x3fb9(%rip),%rdi        # 1f6e1 <g_3175+0x153d>
   1b728:	b8 00 00 00 00       	mov    $0x0,%eax
   1b72d:	e8 4e e9 fe ff       	callq  a080 <printf@plt>
   1b732:	83 45 ec 01          	addl   $0x1,-0x14(%rbp)
   1b736:	83 7d ec 05          	cmpl   $0x5,-0x14(%rbp)
   1b73a:	7e 97                	jle    1b6d3 <main+0x5fd>
   1b73c:	83 45 e8 01          	addl   $0x1,-0x18(%rbp)
   1b740:	83 7d e8 08          	cmpl   $0x8,-0x18(%rbp)
   1b744:	7e 84                	jle    1b6ca <main+0x5f4>
   1b746:	0f b6 05 e3 8b 00 00 	movzbl 0x8be3(%rip),%eax        # 24330 <g_375>
   1b74d:	0f b6 c0             	movzbl %al,%eax
   1b750:	8b 55 f4             	mov    -0xc(%rbp),%edx
   1b753:	48 8d 35 99 3f 00 00 	lea    0x3f99(%rip),%rsi        # 1f6f3 <g_3175+0x154f>
   1b75a:	48 89 c7             	mov    %rax,%rdi
   1b75d:	e8 91 ff fe ff       	callq  b6f3 <transparent_crc>
   1b762:	8b 05 d8 8b 00 00    	mov    0x8bd8(%rip),%eax        # 24340 <g_379>
   1b768:	89 c1                	mov    %eax,%ecx
   1b76a:	8b 45 f4             	mov    -0xc(%rbp),%eax
   1b76d:	89 c2                	mov    %eax,%edx
   1b76f:	48 8d 35 83 3f 00 00 	lea    0x3f83(%rip),%rsi        # 1f6f9 <g_3175+0x1555>
   1b776:	48 89 cf             	mov    %rcx,%rdi
   1b779:	e8 75 ff fe ff       	callq  b6f3 <transparent_crc>
   1b77e:	48 8b 05 c3 8b 00 00 	mov    0x8bc3(%rip),%rax        # 24348 <g_379+0x8>
   1b785:	8b 55 f4             	mov    -0xc(%rbp),%edx
   1b788:	48 8d 35 73 3f 00 00 	lea    0x3f73(%rip),%rsi        # 1f702 <g_3175+0x155e>
   1b78f:	48 89 c7             	mov    %rax,%rdi
   1b792:	e8 5c ff fe ff       	callq  b6f3 <transparent_crc>
   1b797:	48 8b 05 b2 8b 00 00 	mov    0x8bb2(%rip),%rax        # 24350 <g_379+0x10>
   1b79e:	48 89 c1             	mov    %rax,%rcx
   1b7a1:	8b 45 f4             	mov    -0xc(%rbp),%eax
   1b7a4:	89 c2                	mov    %eax,%edx
   1b7a6:	48 8d 35 5e 3f 00 00 	lea    0x3f5e(%rip),%rsi        # 1f70b <g_3175+0x1567>
   1b7ad:	48 89 cf             	mov    %rcx,%rdi
   1b7b0:	e8 3e ff fe ff       	callq  b6f3 <transparent_crc>
   1b7b5:	8b 05 9d 8b 00 00    	mov    0x8b9d(%rip),%eax        # 24358 <g_392>
   1b7bb:	48 98                	cltq   
   1b7bd:	8b 55 f4             	mov    -0xc(%rbp),%edx
   1b7c0:	48 8d 35 4d 3f 00 00 	lea    0x3f4d(%rip),%rsi        # 1f714 <g_3175+0x1570>
   1b7c7:	48 89 c7             	mov    %rax,%rdi
   1b7ca:	e8 24 ff fe ff       	callq  b6f3 <transparent_crc>
   1b7cf:	8b 05 8b 8b 00 00    	mov    0x8b8b(%rip),%eax        # 24360 <g_440>
   1b7d5:	89 c1                	mov    %eax,%ecx
   1b7d7:	8b 45 f4             	mov    -0xc(%rbp),%eax
   1b7da:	89 c2                	mov    %eax,%edx
   1b7dc:	48 8d 35 37 3f 00 00 	lea    0x3f37(%rip),%rsi        # 1f71a <g_3175+0x1576>
   1b7e3:	48 89 cf             	mov    %rcx,%rdi
   1b7e6:	e8 08 ff fe ff       	callq  b6f3 <transparent_crc>
   1b7eb:	48 8b 05 76 8b 00 00 	mov    0x8b76(%rip),%rax        # 24368 <g_440+0x8>
   1b7f2:	8b 55 f4             	mov    -0xc(%rbp),%edx
   1b7f5:	48 8d 35 2a 3f 00 00 	lea    0x3f2a(%rip),%rsi        # 1f726 <g_3175+0x1582>
   1b7fc:	48 89 c7             	mov    %rax,%rdi
   1b7ff:	e8 ef fe fe ff       	callq  b6f3 <transparent_crc>
   1b804:	48 8b 05 65 8b 00 00 	mov    0x8b65(%rip),%rax        # 24370 <g_440+0x10>
   1b80b:	48 89 c1             	mov    %rax,%rcx
   1b80e:	8b 45 f4             	mov    -0xc(%rbp),%eax
   1b811:	89 c2                	mov    %eax,%edx
   1b813:	48 8d 35 18 3f 00 00 	lea    0x3f18(%rip),%rsi        # 1f732 <g_3175+0x158e>
   1b81a:	48 89 cf             	mov    %rcx,%rdi
   1b81d:	e8 d1 fe fe ff       	callq  b6f3 <transparent_crc>
   1b822:	0f b7 05 4f 8b 00 00 	movzwl 0x8b4f(%rip),%eax        # 24378 <g_457>
   1b829:	0f b7 c0             	movzwl %ax,%eax
   1b82c:	8b 55 f4             	mov    -0xc(%rbp),%edx
   1b82f:	48 8d 35 08 3f 00 00 	lea    0x3f08(%rip),%rsi        # 1f73e <g_3175+0x159a>
   1b836:	48 89 c7             	mov    %rax,%rdi
   1b839:	e8 b5 fe fe ff       	callq  b6f3 <transparent_crc>
   1b83e:	c7 45 e8 00 00 00 00 	movl   $0x0,-0x18(%rbp)
   1b845:	e9 32 01 00 00       	jmpq   1b97c <main+0x8a6>
   1b84a:	c7 45 ec 00 00 00 00 	movl   $0x0,-0x14(%rbp)
   1b851:	e9 18 01 00 00       	jmpq   1b96e <main+0x898>
   1b856:	8b 45 ec             	mov    -0x14(%rbp),%eax
   1b859:	48 98                	cltq   
   1b85b:	8b 55 e8             	mov    -0x18(%rbp),%edx
   1b85e:	48 63 ca             	movslq %edx,%rcx
   1b861:	48 89 c2             	mov    %rax,%rdx
   1b864:	48 01 d2             	add    %rdx,%rdx
   1b867:	48 01 c2             	add    %rax,%rdx
   1b86a:	48 8d 04 d5 00 00 00 	lea    0x0(,%rdx,8),%rax
   1b871:	00 
   1b872:	48 89 c2             	mov    %rax,%rdx
   1b875:	48 89 c8             	mov    %rcx,%rax
   1b878:	48 c1 e0 03          	shl    $0x3,%rax
   1b87c:	48 01 c8             	add    %rcx,%rax
   1b87f:	48 c1 e0 04          	shl    $0x4,%rax
   1b883:	48 01 c2             	add    %rax,%rdx
   1b886:	48 8d 05 f3 8a 00 00 	lea    0x8af3(%rip),%rax        # 24380 <g_462>
   1b88d:	48 01 d0             	add    %rdx,%rax
   1b890:	8b 00                	mov    (%rax),%eax
   1b892:	89 c1                	mov    %eax,%ecx
   1b894:	8b 45 f4             	mov    -0xc(%rbp),%eax
   1b897:	89 c2                	mov    %eax,%edx
   1b899:	48 8d 35 a4 3e 00 00 	lea    0x3ea4(%rip),%rsi        # 1f744 <g_3175+0x15a0>
   1b8a0:	48 89 cf             	mov    %rcx,%rdi
   1b8a3:	e8 4b fe fe ff       	callq  b6f3 <transparent_crc>
   1b8a8:	8b 45 ec             	mov    -0x14(%rbp),%eax
   1b8ab:	48 98                	cltq   
   1b8ad:	8b 55 e8             	mov    -0x18(%rbp),%edx
   1b8b0:	48 63 ca             	movslq %edx,%rcx
   1b8b3:	48 89 c2             	mov    %rax,%rdx
   1b8b6:	48 01 d2             	add    %rdx,%rdx
   1b8b9:	48 01 c2             	add    %rax,%rdx
   1b8bc:	48 8d 04 d5 00 00 00 	lea    0x0(,%rdx,8),%rax
   1b8c3:	00 
   1b8c4:	48 89 c2             	mov    %rax,%rdx
   1b8c7:	48 89 c8             	mov    %rcx,%rax
   1b8ca:	48 c1 e0 03          	shl    $0x3,%rax
   1b8ce:	48 01 c8             	add    %rcx,%rax
   1b8d1:	48 c1 e0 04          	shl    $0x4,%rax
   1b8d5:	48 01 c2             	add    %rax,%rdx
   1b8d8:	48 8d 05 a9 8a 00 00 	lea    0x8aa9(%rip),%rax        # 24388 <g_462+0x8>
   1b8df:	48 01 d0             	add    %rdx,%rax
   1b8e2:	48 8b 00             	mov    (%rax),%rax
   1b8e5:	8b 55 f4             	mov    -0xc(%rbp),%edx
   1b8e8:	48 8d 35 64 3e 00 00 	lea    0x3e64(%rip),%rsi        # 1f753 <g_3175+0x15af>
   1b8ef:	48 89 c7             	mov    %rax,%rdi
   1b8f2:	e8 fc fd fe ff       	callq  b6f3 <transparent_crc>
   1b8f7:	8b 45 ec             	mov    -0x14(%rbp),%eax
   1b8fa:	48 98                	cltq   
   1b8fc:	8b 55 e8             	mov    -0x18(%rbp),%edx
   1b8ff:	48 63 ca             	movslq %edx,%rcx
   1b902:	48 89 c2             	mov    %rax,%rdx
   1b905:	48 01 d2             	add    %rdx,%rdx
   1b908:	48 01 c2             	add    %rax,%rdx
   1b90b:	48 8d 04 d5 00 00 00 	lea    0x0(,%rdx,8),%rax
   1b912:	00 
   1b913:	48 89 c2             	mov    %rax,%rdx
   1b916:	48 89 c8             	mov    %rcx,%rax
   1b919:	48 c1 e0 03          	shl    $0x3,%rax
   1b91d:	48 01 c8             	add    %rcx,%rax
   1b920:	48 c1 e0 04          	shl    $0x4,%rax
   1b924:	48 01 c2             	add    %rax,%rdx
   1b927:	48 8d 05 62 8a 00 00 	lea    0x8a62(%rip),%rax        # 24390 <g_462+0x10>
   1b92e:	48 01 d0             	add    %rdx,%rax
   1b931:	48 8b 00             	mov    (%rax),%rax
   1b934:	48 89 c1             	mov    %rax,%rcx
   1b937:	8b 45 f4             	mov    -0xc(%rbp),%eax
   1b93a:	89 c2                	mov    %eax,%edx
   1b93c:	48 8d 35 1f 3e 00 00 	lea    0x3e1f(%rip),%rsi        # 1f762 <g_3175+0x15be>
   1b943:	48 89 cf             	mov    %rcx,%rdi
   1b946:	e8 a8 fd fe ff       	callq  b6f3 <transparent_crc>
   1b94b:	83 7d f4 00          	cmpl   $0x0,-0xc(%rbp)
   1b94f:	74 19                	je     1b96a <main+0x894>
   1b951:	8b 55 ec             	mov    -0x14(%rbp),%edx
   1b954:	8b 45 e8             	mov    -0x18(%rbp),%eax
   1b957:	89 c6                	mov    %eax,%esi
   1b959:	48 8d 3d 81 3d 00 00 	lea    0x3d81(%rip),%rdi        # 1f6e1 <g_3175+0x153d>
   1b960:	b8 00 00 00 00       	mov    $0x0,%eax
   1b965:	e8 16 e7 fe ff       	callq  a080 <printf@plt>
   1b96a:	83 45 ec 01          	addl   $0x1,-0x14(%rbp)
   1b96e:	83 7d ec 05          	cmpl   $0x5,-0x14(%rbp)
   1b972:	0f 8e de fe ff ff    	jle    1b856 <main+0x780>
   1b978:	83 45 e8 01          	addl   $0x1,-0x18(%rbp)
   1b97c:	83 7d e8 00          	cmpl   $0x0,-0x18(%rbp)
   1b980:	0f 8e c4 fe ff ff    	jle    1b84a <main+0x774>
   1b986:	c7 45 e8 00 00 00 00 	movl   $0x0,-0x18(%rbp)
   1b98d:	eb 49                	jmp    1b9d8 <main+0x902>
   1b98f:	8b 45 e8             	mov    -0x18(%rbp),%eax
   1b992:	48 98                	cltq   
   1b994:	48 8d 14 00          	lea    (%rax,%rax,1),%rdx
   1b998:	48 8d 05 c1 26 00 00 	lea    0x26c1(%rip),%rax        # 1e060 <g_471>
   1b99f:	0f b7 04 02          	movzwl (%rdx,%rax,1),%eax
   1b9a3:	0f b7 c0             	movzwl %ax,%eax
   1b9a6:	8b 55 f4             	mov    -0xc(%rbp),%edx
   1b9a9:	48 8d 35 c1 3d 00 00 	lea    0x3dc1(%rip),%rsi        # 1f771 <g_3175+0x15cd>
   1b9b0:	48 89 c7             	mov    %rax,%rdi
   1b9b3:	e8 3b fd fe ff       	callq  b6f3 <transparent_crc>
   1b9b8:	83 7d f4 00          	cmpl   $0x0,-0xc(%rbp)
   1b9bc:	74 16                	je     1b9d4 <main+0x8fe>
   1b9be:	8b 45 e8             	mov    -0x18(%rbp),%eax
   1b9c1:	89 c6                	mov    %eax,%esi
   1b9c3:	48 8d 3d b7 3b 00 00 	lea    0x3bb7(%rip),%rdi        # 1f581 <g_3175+0x13dd>
   1b9ca:	b8 00 00 00 00       	mov    $0x0,%eax
   1b9cf:	e8 ac e6 fe ff       	callq  a080 <printf@plt>
   1b9d4:	83 45 e8 01          	addl   $0x1,-0x18(%rbp)
   1b9d8:	83 7d e8 08          	cmpl   $0x8,-0x18(%rbp)
   1b9dc:	7e b1                	jle    1b98f <main+0x8b9>
   1b9de:	c7 45 e8 00 00 00 00 	movl   $0x0,-0x18(%rbp)
   1b9e5:	eb 73                	jmp    1ba5a <main+0x984>
   1b9e7:	c7 45 ec 00 00 00 00 	movl   $0x0,-0x14(%rbp)
   1b9ee:	eb 60                	jmp    1ba50 <main+0x97a>
   1b9f0:	8b 45 ec             	mov    -0x14(%rbp),%eax
   1b9f3:	48 63 c8             	movslq %eax,%rcx
   1b9f6:	8b 45 e8             	mov    -0x18(%rbp),%eax
   1b9f9:	48 63 d0             	movslq %eax,%rdx
   1b9fc:	48 89 d0             	mov    %rdx,%rax
   1b9ff:	48 c1 e0 02          	shl    $0x2,%rax
   1ba03:	48 01 d0             	add    %rdx,%rax
   1ba06:	48 01 c8             	add    %rcx,%rax
   1ba09:	48 8d 14 00          	lea    (%rax,%rax,1),%rdx
   1ba0d:	48 8d 05 0c 8a 00 00 	lea    0x8a0c(%rip),%rax        # 24420 <g_499>
   1ba14:	0f b7 04 02          	movzwl (%rdx,%rax,1),%eax
   1ba18:	0f b7 c0             	movzwl %ax,%eax
   1ba1b:	8b 55 f4             	mov    -0xc(%rbp),%edx
   1ba1e:	48 8d 35 55 3d 00 00 	lea    0x3d55(%rip),%rsi        # 1f77a <g_3175+0x15d6>
   1ba25:	48 89 c7             	mov    %rax,%rdi
   1ba28:	e8 c6 fc fe ff       	callq  b6f3 <transparent_crc>
   1ba2d:	83 7d f4 00          	cmpl   $0x0,-0xc(%rbp)
   1ba31:	74 19                	je     1ba4c <main+0x976>
   1ba33:	8b 55 ec             	mov    -0x14(%rbp),%edx
   1ba36:	8b 45 e8             	mov    -0x18(%rbp),%eax
   1ba39:	89 c6                	mov    %eax,%esi
   1ba3b:	48 8d 3d 9f 3c 00 00 	lea    0x3c9f(%rip),%rdi        # 1f6e1 <g_3175+0x153d>
   1ba42:	b8 00 00 00 00       	mov    $0x0,%eax
   1ba47:	e8 34 e6 fe ff       	callq  a080 <printf@plt>
   1ba4c:	83 45 ec 01          	addl   $0x1,-0x14(%rbp)
   1ba50:	83 7d ec 04          	cmpl   $0x4,-0x14(%rbp)
   1ba54:	7e 9a                	jle    1b9f0 <main+0x91a>
   1ba56:	83 45 e8 01          	addl   $0x1,-0x18(%rbp)
   1ba5a:	83 7d e8 06          	cmpl   $0x6,-0x18(%rbp)
   1ba5e:	7e 87                	jle    1b9e7 <main+0x911>
   1ba60:	b8 1b 75 9a f4       	mov    $0xf49a751b,%eax
   1ba65:	48 98                	cltq   
   1ba67:	8b 55 f4             	mov    -0xc(%rbp),%edx
   1ba6a:	48 8d 35 15 3d 00 00 	lea    0x3d15(%rip),%rsi        # 1f786 <g_3175+0x15e2>
   1ba71:	48 89 c7             	mov    %rax,%rdi
   1ba74:	e8 7a fc fe ff       	callq  b6f3 <transparent_crc>
   1ba79:	c7 45 e8 00 00 00 00 	movl   $0x0,-0x18(%rbp)
   1ba80:	e9 8e 01 00 00       	jmpq   1bc13 <main+0xb3d>
   1ba85:	c7 45 ec 00 00 00 00 	movl   $0x0,-0x14(%rbp)
   1ba8c:	e9 74 01 00 00       	jmpq   1bc05 <main+0xb2f>
   1ba91:	c7 45 f0 00 00 00 00 	movl   $0x0,-0x10(%rbp)
   1ba98:	e9 5a 01 00 00       	jmpq   1bbf7 <main+0xb21>
   1ba9d:	8b 45 f0             	mov    -0x10(%rbp),%eax
   1baa0:	48 98                	cltq   
   1baa2:	8b 55 ec             	mov    -0x14(%rbp),%edx
   1baa5:	48 63 f2             	movslq %edx,%rsi
   1baa8:	8b 55 e8             	mov    -0x18(%rbp),%edx
   1baab:	48 63 ca             	movslq %edx,%rcx
   1baae:	48 89 c2             	mov    %rax,%rdx
   1bab1:	48 01 d2             	add    %rdx,%rdx
   1bab4:	48 01 c2             	add    %rax,%rdx
   1bab7:	48 8d 04 d5 00 00 00 	lea    0x0(,%rdx,8),%rax
   1babe:	00 
   1babf:	48 89 c2             	mov    %rax,%rdx
   1bac2:	48 89 f0             	mov    %rsi,%rax
   1bac5:	48 01 c0             	add    %rax,%rax
   1bac8:	48 01 f0             	add    %rsi,%rax
   1bacb:	48 c1 e0 04          	shl    $0x4,%rax
   1bacf:	48 01 c2             	add    %rax,%rdx
   1bad2:	48 89 c8             	mov    %rcx,%rax
   1bad5:	48 01 c0             	add    %rax,%rax
   1bad8:	48 01 c8             	add    %rcx,%rax
   1badb:	48 c1 e0 05          	shl    $0x5,%rax
   1badf:	48 01 c2             	add    %rax,%rdx
   1bae2:	48 8d 05 97 89 00 00 	lea    0x8997(%rip),%rax        # 24480 <g_651>
   1bae9:	48 01 d0             	add    %rdx,%rax
   1baec:	8b 00                	mov    (%rax),%eax
   1baee:	89 c1                	mov    %eax,%ecx
   1baf0:	8b 45 f4             	mov    -0xc(%rbp),%eax
   1baf3:	89 c2                	mov    %eax,%edx
   1baf5:	48 8d 35 90 3c 00 00 	lea    0x3c90(%rip),%rsi        # 1f78c <g_3175+0x15e8>
   1bafc:	48 89 cf             	mov    %rcx,%rdi
   1baff:	e8 ef fb fe ff       	callq  b6f3 <transparent_crc>
   1bb04:	8b 45 f0             	mov    -0x10(%rbp),%eax
   1bb07:	48 98                	cltq   
   1bb09:	8b 55 ec             	mov    -0x14(%rbp),%edx
   1bb0c:	48 63 f2             	movslq %edx,%rsi
   1bb0f:	8b 55 e8             	mov    -0x18(%rbp),%edx
   1bb12:	48 63 ca             	movslq %edx,%rcx
   1bb15:	48 89 c2             	mov    %rax,%rdx
   1bb18:	48 01 d2             	add    %rdx,%rdx
   1bb1b:	48 01 c2             	add    %rax,%rdx
   1bb1e:	48 8d 04 d5 00 00 00 	lea    0x0(,%rdx,8),%rax
   1bb25:	00 
   1bb26:	48 89 c2             	mov    %rax,%rdx
   1bb29:	48 89 f0             	mov    %rsi,%rax
   1bb2c:	48 01 c0             	add    %rax,%rax
   1bb2f:	48 01 f0             	add    %rsi,%rax
   1bb32:	48 c1 e0 04          	shl    $0x4,%rax
   1bb36:	48 01 c2             	add    %rax,%rdx
   1bb39:	48 89 c8             	mov    %rcx,%rax
   1bb3c:	48 01 c0             	add    %rax,%rax
   1bb3f:	48 01 c8             	add    %rcx,%rax
   1bb42:	48 c1 e0 05          	shl    $0x5,%rax
   1bb46:	48 01 c2             	add    %rax,%rdx
   1bb49:	48 8d 05 38 89 00 00 	lea    0x8938(%rip),%rax        # 24488 <g_651+0x8>
   1bb50:	48 01 d0             	add    %rdx,%rax
   1bb53:	48 8b 00             	mov    (%rax),%rax
   1bb56:	8b 55 f4             	mov    -0xc(%rbp),%edx
   1bb59:	48 8d 35 3e 3c 00 00 	lea    0x3c3e(%rip),%rsi        # 1f79e <g_3175+0x15fa>
   1bb60:	48 89 c7             	mov    %rax,%rdi
   1bb63:	e8 8b fb fe ff       	callq  b6f3 <transparent_crc>
   1bb68:	8b 45 f0             	mov    -0x10(%rbp),%eax
   1bb6b:	48 98                	cltq   
   1bb6d:	8b 55 ec             	mov    -0x14(%rbp),%edx
   1bb70:	48 63 ca             	movslq %edx,%rcx
   1bb73:	8b 55 e8             	mov    -0x18(%rbp),%edx
   1bb76:	48 63 f2             	movslq %edx,%rsi
   1bb79:	48 89 c2             	mov    %rax,%rdx
   1bb7c:	48 01 d2             	add    %rdx,%rdx
   1bb7f:	48 01 c2             	add    %rax,%rdx
   1bb82:	48 8d 04 d5 00 00 00 	lea    0x0(,%rdx,8),%rax
   1bb89:	00 
   1bb8a:	48 89 c2             	mov    %rax,%rdx
   1bb8d:	48 89 f0             	mov    %rsi,%rax
   1bb90:	48 01 c0             	add    %rax,%rax
   1bb93:	48 01 f0             	add    %rsi,%rax
   1bb96:	48 c1 e0 05          	shl    $0x5,%rax
   1bb9a:	48 01 c2             	add    %rax,%rdx
   1bb9d:	48 89 c8             	mov    %rcx,%rax
   1bba0:	48 01 c0             	add    %rax,%rax
   1bba3:	48 01 c8             	add    %rcx,%rax
   1bba6:	48 c1 e0 04          	shl    $0x4,%rax
   1bbaa:	48 01 c2             	add    %rax,%rdx
   1bbad:	48 8d 05 dc 88 00 00 	lea    0x88dc(%rip),%rax        # 24490 <g_651+0x10>
   1bbb4:	48 01 d0             	add    %rdx,%rax
   1bbb7:	48 8b 00             	mov    (%rax),%rax
   1bbba:	48 89 c1             	mov    %rax,%rcx
   1bbbd:	8b 45 f4             	mov    -0xc(%rbp),%eax
   1bbc0:	89 c2                	mov    %eax,%edx
   1bbc2:	48 8d 35 e7 3b 00 00 	lea    0x3be7(%rip),%rsi        # 1f7b0 <g_3175+0x160c>
   1bbc9:	48 89 cf             	mov    %rcx,%rdi
   1bbcc:	e8 22 fb fe ff       	callq  b6f3 <transparent_crc>
   1bbd1:	83 7d f4 00          	cmpl   $0x0,-0xc(%rbp)
   1bbd5:	74 1c                	je     1bbf3 <main+0xb1d>
   1bbd7:	8b 4d f0             	mov    -0x10(%rbp),%ecx
   1bbda:	8b 55 ec             	mov    -0x14(%rbp),%edx
   1bbdd:	8b 45 e8             	mov    -0x18(%rbp),%eax
   1bbe0:	89 c6                	mov    %eax,%esi
   1bbe2:	48 8d 3d d9 3b 00 00 	lea    0x3bd9(%rip),%rdi        # 1f7c2 <g_3175+0x161e>
   1bbe9:	b8 00 00 00 00       	mov    $0x0,%eax
   1bbee:	e8 8d e4 fe ff       	callq  a080 <printf@plt>
   1bbf3:	83 45 f0 01          	addl   $0x1,-0x10(%rbp)
   1bbf7:	83 7d f0 01          	cmpl   $0x1,-0x10(%rbp)
   1bbfb:	0f 8e 9c fe ff ff    	jle    1ba9d <main+0x9c7>
   1bc01:	83 45 ec 01          	addl   $0x1,-0x14(%rbp)
   1bc05:	83 7d ec 01          	cmpl   $0x1,-0x14(%rbp)
   1bc09:	0f 8e 82 fe ff ff    	jle    1ba91 <main+0x9bb>
   1bc0f:	83 45 e8 01          	addl   $0x1,-0x18(%rbp)
   1bc13:	83 7d e8 00          	cmpl   $0x0,-0x18(%rbp)
   1bc17:	0f 8e 68 fe ff ff    	jle    1ba85 <main+0x9af>
   1bc1d:	8b 05 bd 88 00 00    	mov    0x88bd(%rip),%eax        # 244e0 <g_795>
   1bc23:	89 c1                	mov    %eax,%ecx
   1bc25:	8b 45 f4             	mov    -0xc(%rbp),%eax
   1bc28:	89 c2                	mov    %eax,%edx
   1bc2a:	48 8d 35 a7 3b 00 00 	lea    0x3ba7(%rip),%rsi        # 1f7d8 <g_3175+0x1634>
   1bc31:	48 89 cf             	mov    %rcx,%rdi
   1bc34:	e8 ba fa fe ff       	callq  b6f3 <transparent_crc>
   1bc39:	48 8b 05 a8 88 00 00 	mov    0x88a8(%rip),%rax        # 244e8 <g_795+0x8>
   1bc40:	8b 55 f4             	mov    -0xc(%rbp),%edx
   1bc43:	48 8d 35 9a 3b 00 00 	lea    0x3b9a(%rip),%rsi        # 1f7e4 <g_3175+0x1640>
   1bc4a:	48 89 c7             	mov    %rax,%rdi
   1bc4d:	e8 a1 fa fe ff       	callq  b6f3 <transparent_crc>
   1bc52:	48 8b 05 97 88 00 00 	mov    0x8897(%rip),%rax        # 244f0 <g_795+0x10>
   1bc59:	48 89 c1             	mov    %rax,%rcx
   1bc5c:	8b 45 f4             	mov    -0xc(%rbp),%eax
   1bc5f:	89 c2                	mov    %eax,%edx
   1bc61:	48 8d 35 88 3b 00 00 	lea    0x3b88(%rip),%rsi        # 1f7f0 <g_3175+0x164c>
   1bc68:	48 89 cf             	mov    %rcx,%rdi
   1bc6b:	e8 83 fa fe ff       	callq  b6f3 <transparent_crc>
   1bc70:	8b 05 8a 88 00 00    	mov    0x888a(%rip),%eax        # 24500 <g_841>
   1bc76:	89 c1                	mov    %eax,%ecx
   1bc78:	8b 45 f4             	mov    -0xc(%rbp),%eax
   1bc7b:	89 c2                	mov    %eax,%edx
   1bc7d:	48 8d 35 78 3b 00 00 	lea    0x3b78(%rip),%rsi        # 1f7fc <g_3175+0x1658>
   1bc84:	48 89 cf             	mov    %rcx,%rdi
   1bc87:	e8 67 fa fe ff       	callq  b6f3 <transparent_crc>
   1bc8c:	48 8b 05 75 88 00 00 	mov    0x8875(%rip),%rax        # 24508 <g_841+0x8>
   1bc93:	8b 55 f4             	mov    -0xc(%rbp),%edx
   1bc96:	48 8d 35 68 3b 00 00 	lea    0x3b68(%rip),%rsi        # 1f805 <g_3175+0x1661>
   1bc9d:	48 89 c7             	mov    %rax,%rdi
   1bca0:	e8 4e fa fe ff       	callq  b6f3 <transparent_crc>
   1bca5:	48 8b 05 64 88 00 00 	mov    0x8864(%rip),%rax        # 24510 <g_841+0x10>
   1bcac:	48 89 c1             	mov    %rax,%rcx
   1bcaf:	8b 45 f4             	mov    -0xc(%rbp),%eax
   1bcb2:	89 c2                	mov    %eax,%edx
   1bcb4:	48 8d 35 53 3b 00 00 	lea    0x3b53(%rip),%rsi        # 1f80e <g_3175+0x166a>
   1bcbb:	48 89 cf             	mov    %rcx,%rdi
   1bcbe:	e8 30 fa fe ff       	callq  b6f3 <transparent_crc>
   1bcc3:	8b 05 4f 88 00 00    	mov    0x884f(%rip),%eax        # 24518 <g_849>
   1bcc9:	48 98                	cltq   
   1bccb:	8b 55 f4             	mov    -0xc(%rbp),%edx
   1bcce:	48 8d 35 42 3b 00 00 	lea    0x3b42(%rip),%rsi        # 1f817 <g_3175+0x1673>
   1bcd5:	48 89 c7             	mov    %rax,%rdi
   1bcd8:	e8 16 fa fe ff       	callq  b6f3 <transparent_crc>
   1bcdd:	8b 05 4d 88 00 00    	mov    0x884d(%rip),%eax        # 24530 <g_883>
   1bce3:	89 c1                	mov    %eax,%ecx
   1bce5:	8b 45 f4             	mov    -0xc(%rbp),%eax
   1bce8:	89 c2                	mov    %eax,%edx
   1bcea:	48 8d 35 2c 3b 00 00 	lea    0x3b2c(%rip),%rsi        # 1f81d <g_3175+0x1679>
   1bcf1:	48 89 cf             	mov    %rcx,%rdi
   1bcf4:	e8 fa f9 fe ff       	callq  b6f3 <transparent_crc>
   1bcf9:	48 8b 05 38 88 00 00 	mov    0x8838(%rip),%rax        # 24538 <g_883+0x8>
   1bd00:	8b 55 f4             	mov    -0xc(%rbp),%edx
   1bd03:	48 8d 35 1c 3b 00 00 	lea    0x3b1c(%rip),%rsi        # 1f826 <g_3175+0x1682>
   1bd0a:	48 89 c7             	mov    %rax,%rdi
   1bd0d:	e8 e1 f9 fe ff       	callq  b6f3 <transparent_crc>
   1bd12:	48 8b 05 27 88 00 00 	mov    0x8827(%rip),%rax        # 24540 <g_883+0x10>
   1bd19:	48 89 c1             	mov    %rax,%rcx
   1bd1c:	8b 45 f4             	mov    -0xc(%rbp),%eax
   1bd1f:	89 c2                	mov    %eax,%edx
   1bd21:	48 8d 35 07 3b 00 00 	lea    0x3b07(%rip),%rsi        # 1f82f <g_3175+0x168b>
   1bd28:	48 89 cf             	mov    %rcx,%rdi
   1bd2b:	e8 c3 f9 fe ff       	callq  b6f3 <transparent_crc>
   1bd30:	8b 05 02 e2 00 00    	mov    0xe202(%rip),%eax        # 29f38 <g_889>
   1bd36:	89 c1                	mov    %eax,%ecx
   1bd38:	8b 45 f4             	mov    -0xc(%rbp),%eax
   1bd3b:	89 c2                	mov    %eax,%edx
   1bd3d:	48 8d 35 f4 3a 00 00 	lea    0x3af4(%rip),%rsi        # 1f838 <g_3175+0x1694>
   1bd44:	48 89 cf             	mov    %rcx,%rdi
   1bd47:	e8 a7 f9 fe ff       	callq  b6f3 <transparent_crc>
   1bd4c:	8b 05 f6 87 00 00    	mov    0x87f6(%rip),%eax        # 24548 <g_954>
   1bd52:	89 c1                	mov    %eax,%ecx
   1bd54:	8b 45 f4             	mov    -0xc(%rbp),%eax
   1bd57:	89 c2                	mov    %eax,%edx
   1bd59:	48 8d 35 de 3a 00 00 	lea    0x3ade(%rip),%rsi        # 1f83e <g_3175+0x169a>
   1bd60:	48 89 cf             	mov    %rcx,%rdi
   1bd63:	e8 8b f9 fe ff       	callq  b6f3 <transparent_crc>
   1bd68:	c7 45 e8 00 00 00 00 	movl   $0x0,-0x18(%rbp)
   1bd6f:	e9 c1 00 00 00       	jmpq   1be35 <main+0xd5f>
   1bd74:	8b 45 e8             	mov    -0x18(%rbp),%eax
   1bd77:	48 63 d0             	movslq %eax,%rdx
   1bd7a:	48 89 d0             	mov    %rdx,%rax
   1bd7d:	48 01 c0             	add    %rax,%rax
   1bd80:	48 01 d0             	add    %rdx,%rax
   1bd83:	48 c1 e0 03          	shl    $0x3,%rax
   1bd87:	48 89 c2             	mov    %rax,%rdx
   1bd8a:	48 8d 05 cf 87 00 00 	lea    0x87cf(%rip),%rax        # 24560 <g_962>
   1bd91:	8b 04 02             	mov    (%rdx,%rax,1),%eax
   1bd94:	89 c1                	mov    %eax,%ecx
   1bd96:	8b 45 f4             	mov    -0xc(%rbp),%eax
   1bd99:	89 c2                	mov    %eax,%edx
   1bd9b:	48 8d 35 a2 3a 00 00 	lea    0x3aa2(%rip),%rsi        # 1f844 <g_3175+0x16a0>
   1bda2:	48 89 cf             	mov    %rcx,%rdi
   1bda5:	e8 49 f9 fe ff       	callq  b6f3 <transparent_crc>
   1bdaa:	8b 45 e8             	mov    -0x18(%rbp),%eax
   1bdad:	48 63 d0             	movslq %eax,%rdx
   1bdb0:	48 89 d0             	mov    %rdx,%rax
   1bdb3:	48 01 c0             	add    %rax,%rax
   1bdb6:	48 01 d0             	add    %rdx,%rax
   1bdb9:	48 c1 e0 03          	shl    $0x3,%rax
   1bdbd:	48 89 c2             	mov    %rax,%rdx
   1bdc0:	48 8d 05 a1 87 00 00 	lea    0x87a1(%rip),%rax        # 24568 <g_962+0x8>
   1bdc7:	48 8b 04 02          	mov    (%rdx,%rax,1),%rax
   1bdcb:	8b 55 f4             	mov    -0xc(%rbp),%edx
   1bdce:	48 8d 35 7e 3a 00 00 	lea    0x3a7e(%rip),%rsi        # 1f853 <g_3175+0x16af>
   1bdd5:	48 89 c7             	mov    %rax,%rdi
   1bdd8:	e8 16 f9 fe ff       	callq  b6f3 <transparent_crc>
   1bddd:	8b 45 e8             	mov    -0x18(%rbp),%eax
   1bde0:	48 63 d0             	movslq %eax,%rdx
   1bde3:	48 89 d0             	mov    %rdx,%rax
   1bde6:	48 01 c0             	add    %rax,%rax
   1bde9:	48 01 d0             	add    %rdx,%rax
   1bdec:	48 c1 e0 03          	shl    $0x3,%rax
   1bdf0:	48 89 c2             	mov    %rax,%rdx
   1bdf3:	48 8d 05 76 87 00 00 	lea    0x8776(%rip),%rax        # 24570 <g_962+0x10>
   1bdfa:	48 8b 04 02          	mov    (%rdx,%rax,1),%rax
   1bdfe:	48 89 c1             	mov    %rax,%rcx
   1be01:	8b 45 f4             	mov    -0xc(%rbp),%eax
   1be04:	89 c2                	mov    %eax,%edx
   1be06:	48 8d 35 55 3a 00 00 	lea    0x3a55(%rip),%rsi        # 1f862 <g_3175+0x16be>
   1be0d:	48 89 cf             	mov    %rcx,%rdi
   1be10:	e8 de f8 fe ff       	callq  b6f3 <transparent_crc>
   1be15:	83 7d f4 00          	cmpl   $0x0,-0xc(%rbp)
   1be19:	74 16                	je     1be31 <main+0xd5b>
   1be1b:	8b 45 e8             	mov    -0x18(%rbp),%eax
   1be1e:	89 c6                	mov    %eax,%esi
   1be20:	48 8d 3d 5a 37 00 00 	lea    0x375a(%rip),%rdi        # 1f581 <g_3175+0x13dd>
   1be27:	b8 00 00 00 00       	mov    $0x0,%eax
   1be2c:	e8 4f e2 fe ff       	callq  a080 <printf@plt>
   1be31:	83 45 e8 01          	addl   $0x1,-0x18(%rbp)
   1be35:	83 7d e8 06          	cmpl   $0x6,-0x18(%rbp)
   1be39:	0f 8e 35 ff ff ff    	jle    1bd74 <main+0xc9e>
   1be3f:	0f b6 05 c2 87 00 00 	movzbl 0x87c2(%rip),%eax        # 24608 <g_975>
   1be46:	48 0f be c0          	movsbq %al,%rax
   1be4a:	8b 55 f4             	mov    -0xc(%rbp),%edx
   1be4d:	48 8d 35 1d 3a 00 00 	lea    0x3a1d(%rip),%rsi        # 1f871 <g_3175+0x16cd>
   1be54:	48 89 c7             	mov    %rax,%rdi
   1be57:	e8 97 f8 fe ff       	callq  b6f3 <transparent_crc>
   1be5c:	c7 45 e8 00 00 00 00 	movl   $0x0,-0x18(%rbp)
   1be63:	e9 b4 00 00 00       	jmpq   1bf1c <main+0xe46>
   1be68:	c7 45 ec 00 00 00 00 	movl   $0x0,-0x14(%rbp)
   1be6f:	e9 9a 00 00 00       	jmpq   1bf0e <main+0xe38>
   1be74:	c7 45 f0 00 00 00 00 	movl   $0x0,-0x10(%rbp)
   1be7b:	e9 80 00 00 00       	jmpq   1bf00 <main+0xe2a>
   1be80:	8b 45 f0             	mov    -0x10(%rbp),%eax
   1be83:	48 63 f0             	movslq %eax,%rsi
   1be86:	8b 45 e8             	mov    -0x18(%rbp),%eax
   1be89:	48 63 d0             	movslq %eax,%rdx
   1be8c:	8b 45 ec             	mov    -0x14(%rbp),%eax
   1be8f:	48 63 c8             	movslq %eax,%rcx
   1be92:	48 89 d0             	mov    %rdx,%rax
   1be95:	48 c1 e0 02          	shl    $0x2,%rax
   1be99:	48 01 d0             	add    %rdx,%rax
   1be9c:	48 c1 e0 02          	shl    $0x2,%rax
   1bea0:	48 01 d0             	add    %rdx,%rax
   1bea3:	48 01 c0             	add    %rax,%rax
   1bea6:	48 89 ca             	mov    %rcx,%rdx
   1bea9:	48 c1 e2 03          	shl    $0x3,%rdx
   1bead:	48 29 ca             	sub    %rcx,%rdx
   1beb0:	48 01 d0             	add    %rdx,%rax
   1beb3:	48 8d 14 30          	lea    (%rax,%rsi,1),%rdx
   1beb7:	48 8d 05 62 87 00 00 	lea    0x8762(%rip),%rax        # 24620 <g_977>
   1bebe:	48 01 d0             	add    %rdx,%rax
   1bec1:	0f b6 00             	movzbl (%rax),%eax
   1bec4:	48 0f be c0          	movsbq %al,%rax
   1bec8:	8b 55 f4             	mov    -0xc(%rbp),%edx
   1becb:	48 8d 35 a5 39 00 00 	lea    0x39a5(%rip),%rsi        # 1f877 <g_3175+0x16d3>
   1bed2:	48 89 c7             	mov    %rax,%rdi
   1bed5:	e8 19 f8 fe ff       	callq  b6f3 <transparent_crc>
   1beda:	83 7d f4 00          	cmpl   $0x0,-0xc(%rbp)
   1bede:	74 1c                	je     1befc <main+0xe26>
   1bee0:	8b 4d f0             	mov    -0x10(%rbp),%ecx
   1bee3:	8b 55 ec             	mov    -0x14(%rbp),%edx
   1bee6:	8b 45 e8             	mov    -0x18(%rbp),%eax
   1bee9:	89 c6                	mov    %eax,%esi
   1beeb:	48 8d 3d d0 38 00 00 	lea    0x38d0(%rip),%rdi        # 1f7c2 <g_3175+0x161e>
   1bef2:	b8 00 00 00 00       	mov    $0x0,%eax
   1bef7:	e8 84 e1 fe ff       	callq  a080 <printf@plt>
   1befc:	83 45 f0 01          	addl   $0x1,-0x10(%rbp)
   1bf00:	83 7d f0 06          	cmpl   $0x6,-0x10(%rbp)
   1bf04:	0f 8e 76 ff ff ff    	jle    1be80 <main+0xdaa>
   1bf0a:	83 45 ec 01          	addl   $0x1,-0x14(%rbp)
   1bf0e:	83 7d ec 05          	cmpl   $0x5,-0x14(%rbp)
   1bf12:	0f 8e 5c ff ff ff    	jle    1be74 <main+0xd9e>
   1bf18:	83 45 e8 01          	addl   $0x1,-0x18(%rbp)
   1bf1c:	83 7d e8 05          	cmpl   $0x5,-0x18(%rbp)
   1bf20:	0f 8e 42 ff ff ff    	jle    1be68 <main+0xd92>
   1bf26:	8b 05 f0 87 00 00    	mov    0x87f0(%rip),%eax        # 2471c <g_1127>
   1bf2c:	48 98                	cltq   
   1bf2e:	8b 55 f4             	mov    -0xc(%rbp),%edx
   1bf31:	48 8d 35 4e 39 00 00 	lea    0x394e(%rip),%rsi        # 1f886 <g_3175+0x16e2>
   1bf38:	48 89 c7             	mov    %rax,%rdi
   1bf3b:	e8 b3 f7 fe ff       	callq  b6f3 <transparent_crc>
   1bf40:	8b 05 da 87 00 00    	mov    0x87da(%rip),%eax        # 24720 <g_1143>
   1bf46:	89 c1                	mov    %eax,%ecx
   1bf48:	8b 45 f4             	mov    -0xc(%rbp),%eax
   1bf4b:	89 c2                	mov    %eax,%edx
   1bf4d:	48 8d 35 39 39 00 00 	lea    0x3939(%rip),%rsi        # 1f88d <g_3175+0x16e9>
   1bf54:	48 89 cf             	mov    %rcx,%rdi
   1bf57:	e8 97 f7 fe ff       	callq  b6f3 <transparent_crc>
   1bf5c:	48 8b 05 c5 87 00 00 	mov    0x87c5(%rip),%rax        # 24728 <g_1143+0x8>
   1bf63:	8b 55 f4             	mov    -0xc(%rbp),%edx
   1bf66:	48 8d 35 2a 39 00 00 	lea    0x392a(%rip),%rsi        # 1f897 <g_3175+0x16f3>
   1bf6d:	48 89 c7             	mov    %rax,%rdi
   1bf70:	e8 7e f7 fe ff       	callq  b6f3 <transparent_crc>
   1bf75:	48 8b 05 b4 87 00 00 	mov    0x87b4(%rip),%rax        # 24730 <g_1143+0x10>
   1bf7c:	48 89 c1             	mov    %rax,%rcx
   1bf7f:	8b 45 f4             	mov    -0xc(%rbp),%eax
   1bf82:	89 c2                	mov    %eax,%edx
   1bf84:	48 8d 35 16 39 00 00 	lea    0x3916(%rip),%rsi        # 1f8a1 <g_3175+0x16fd>
   1bf8b:	48 89 cf             	mov    %rcx,%rdi
   1bf8e:	e8 60 f7 fe ff       	callq  b6f3 <transparent_crc>
   1bf93:	8b 05 a7 87 00 00    	mov    0x87a7(%rip),%eax        # 24740 <g_1320>
   1bf99:	89 c1                	mov    %eax,%ecx
   1bf9b:	8b 45 f4             	mov    -0xc(%rbp),%eax
   1bf9e:	89 c2                	mov    %eax,%edx
   1bfa0:	48 8d 35 04 39 00 00 	lea    0x3904(%rip),%rsi        # 1f8ab <g_3175+0x1707>
   1bfa7:	48 89 cf             	mov    %rcx,%rdi
   1bfaa:	e8 44 f7 fe ff       	callq  b6f3 <transparent_crc>
   1bfaf:	48 8b 05 92 87 00 00 	mov    0x8792(%rip),%rax        # 24748 <g_1320+0x8>
   1bfb6:	8b 55 f4             	mov    -0xc(%rbp),%edx
   1bfb9:	48 8d 35 f8 38 00 00 	lea    0x38f8(%rip),%rsi        # 1f8b8 <g_3175+0x1714>
   1bfc0:	48 89 c7             	mov    %rax,%rdi
   1bfc3:	e8 2b f7 fe ff       	callq  b6f3 <transparent_crc>
   1bfc8:	48 8b 05 81 87 00 00 	mov    0x8781(%rip),%rax        # 24750 <g_1320+0x10>
   1bfcf:	48 89 c1             	mov    %rax,%rcx
   1bfd2:	8b 45 f4             	mov    -0xc(%rbp),%eax
   1bfd5:	89 c2                	mov    %eax,%edx
   1bfd7:	48 8d 35 e7 38 00 00 	lea    0x38e7(%rip),%rsi        # 1f8c5 <g_3175+0x1721>
   1bfde:	48 89 cf             	mov    %rcx,%rdi
   1bfe1:	e8 0d f7 fe ff       	callq  b6f3 <transparent_crc>
   1bfe6:	8b 05 74 87 00 00    	mov    0x8774(%rip),%eax        # 24760 <g_1345>
   1bfec:	89 c1                	mov    %eax,%ecx
   1bfee:	8b 45 f4             	mov    -0xc(%rbp),%eax
   1bff1:	89 c2                	mov    %eax,%edx
   1bff3:	48 8d 35 d8 38 00 00 	lea    0x38d8(%rip),%rsi        # 1f8d2 <g_3175+0x172e>
   1bffa:	48 89 cf             	mov    %rcx,%rdi
   1bffd:	e8 f1 f6 fe ff       	callq  b6f3 <transparent_crc>
   1c002:	48 8b 05 5f 87 00 00 	mov    0x875f(%rip),%rax        # 24768 <g_1345+0x8>
   1c009:	8b 55 f4             	mov    -0xc(%rbp),%edx
   1c00c:	48 8d 35 c9 38 00 00 	lea    0x38c9(%rip),%rsi        # 1f8dc <g_3175+0x1738>
   1c013:	48 89 c7             	mov    %rax,%rdi
   1c016:	e8 d8 f6 fe ff       	callq  b6f3 <transparent_crc>
   1c01b:	48 8b 05 4e 87 00 00 	mov    0x874e(%rip),%rax        # 24770 <g_1345+0x10>
   1c022:	48 89 c1             	mov    %rax,%rcx
   1c025:	8b 45 f4             	mov    -0xc(%rbp),%eax
   1c028:	89 c2                	mov    %eax,%edx
   1c02a:	48 8d 35 b5 38 00 00 	lea    0x38b5(%rip),%rsi        # 1f8e6 <g_3175+0x1742>
   1c031:	48 89 cf             	mov    %rcx,%rdi
   1c034:	e8 ba f6 fe ff       	callq  b6f3 <transparent_crc>
   1c039:	48 8b 05 38 87 00 00 	mov    0x8738(%rip),%rax        # 24778 <g_1417>
   1c040:	48 89 c1             	mov    %rax,%rcx
   1c043:	8b 45 f4             	mov    -0xc(%rbp),%eax
   1c046:	89 c2                	mov    %eax,%edx
   1c048:	48 8d 35 a1 38 00 00 	lea    0x38a1(%rip),%rsi        # 1f8f0 <g_3175+0x174c>
   1c04f:	48 89 cf             	mov    %rcx,%rdi
   1c052:	e8 9c f6 fe ff       	callq  b6f3 <transparent_crc>
   1c057:	c7 45 e8 00 00 00 00 	movl   $0x0,-0x18(%rbp)
   1c05e:	e9 c1 00 00 00       	jmpq   1c124 <main+0x104e>
   1c063:	8b 45 e8             	mov    -0x18(%rbp),%eax
   1c066:	48 63 d0             	movslq %eax,%rdx
   1c069:	48 89 d0             	mov    %rdx,%rax
   1c06c:	48 01 c0             	add    %rax,%rax
   1c06f:	48 01 d0             	add    %rdx,%rax
   1c072:	48 c1 e0 03          	shl    $0x3,%rax
   1c076:	48 89 c2             	mov    %rax,%rdx
   1c079:	48 8d 05 00 20 00 00 	lea    0x2000(%rip),%rax        # 1e080 <g_1431>
   1c080:	8b 04 02             	mov    (%rdx,%rax,1),%eax
   1c083:	89 c1                	mov    %eax,%ecx
   1c085:	8b 45 f4             	mov    -0xc(%rbp),%eax
   1c088:	89 c2                	mov    %eax,%edx
   1c08a:	48 8d 35 66 38 00 00 	lea    0x3866(%rip),%rsi        # 1f8f7 <g_3175+0x1753>
   1c091:	48 89 cf             	mov    %rcx,%rdi
   1c094:	e8 5a f6 fe ff       	callq  b6f3 <transparent_crc>
   1c099:	8b 45 e8             	mov    -0x18(%rbp),%eax
   1c09c:	48 63 d0             	movslq %eax,%rdx
   1c09f:	48 89 d0             	mov    %rdx,%rax
   1c0a2:	48 01 c0             	add    %rax,%rax
   1c0a5:	48 01 d0             	add    %rdx,%rax
   1c0a8:	48 c1 e0 03          	shl    $0x3,%rax
   1c0ac:	48 89 c2             	mov    %rax,%rdx
   1c0af:	48 8d 05 d2 1f 00 00 	lea    0x1fd2(%rip),%rax        # 1e088 <g_1431+0x8>
   1c0b6:	48 8b 04 02          	mov    (%rdx,%rax,1),%rax
   1c0ba:	8b 55 f4             	mov    -0xc(%rbp),%edx
   1c0bd:	48 8d 35 40 38 00 00 	lea    0x3840(%rip),%rsi        # 1f904 <g_3175+0x1760>
   1c0c4:	48 89 c7             	mov    %rax,%rdi
   1c0c7:	e8 27 f6 fe ff       	callq  b6f3 <transparent_crc>
   1c0cc:	8b 45 e8             	mov    -0x18(%rbp),%eax
   1c0cf:	48 63 d0             	movslq %eax,%rdx
   1c0d2:	48 89 d0             	mov    %rdx,%rax
   1c0d5:	48 01 c0             	add    %rax,%rax
   1c0d8:	48 01 d0             	add    %rdx,%rax
   1c0db:	48 c1 e0 03          	shl    $0x3,%rax
   1c0df:	48 89 c2             	mov    %rax,%rdx
   1c0e2:	48 8d 05 a7 1f 00 00 	lea    0x1fa7(%rip),%rax        # 1e090 <g_1431+0x10>
   1c0e9:	48 8b 04 02          	mov    (%rdx,%rax,1),%rax
   1c0ed:	48 89 c1             	mov    %rax,%rcx
   1c0f0:	8b 45 f4             	mov    -0xc(%rbp),%eax
   1c0f3:	89 c2                	mov    %eax,%edx
   1c0f5:	48 8d 35 15 38 00 00 	lea    0x3815(%rip),%rsi        # 1f911 <g_3175+0x176d>
   1c0fc:	48 89 cf             	mov    %rcx,%rdi
   1c0ff:	e8 ef f5 fe ff       	callq  b6f3 <transparent_crc>
   1c104:	83 7d f4 00          	cmpl   $0x0,-0xc(%rbp)
   1c108:	74 16                	je     1c120 <main+0x104a>
   1c10a:	8b 45 e8             	mov    -0x18(%rbp),%eax
   1c10d:	89 c6                	mov    %eax,%esi
   1c10f:	48 8d 3d 6b 34 00 00 	lea    0x346b(%rip),%rdi        # 1f581 <g_3175+0x13dd>
   1c116:	b8 00 00 00 00       	mov    $0x0,%eax
   1c11b:	e8 60 df fe ff       	callq  a080 <printf@plt>
   1c120:	83 45 e8 01          	addl   $0x1,-0x18(%rbp)
   1c124:	83 7d e8 09          	cmpl   $0x9,-0x18(%rbp)
   1c128:	0f 8e 35 ff ff ff    	jle    1c063 <main+0xf8d>
   1c12e:	8b 05 4c 86 00 00    	mov    0x864c(%rip),%eax        # 24780 <g_1442>
   1c134:	89 c1                	mov    %eax,%ecx
   1c136:	8b 45 f4             	mov    -0xc(%rbp),%eax
   1c139:	89 c2                	mov    %eax,%edx
   1c13b:	48 8d 35 dc 37 00 00 	lea    0x37dc(%rip),%rsi        # 1f91e <g_3175+0x177a>
   1c142:	48 89 cf             	mov    %rcx,%rdi
   1c145:	e8 a9 f5 fe ff       	callq  b6f3 <transparent_crc>
   1c14a:	48 8b 05 37 86 00 00 	mov    0x8637(%rip),%rax        # 24788 <g_1442+0x8>
   1c151:	8b 55 f4             	mov    -0xc(%rbp),%edx
   1c154:	48 8d 35 d0 37 00 00 	lea    0x37d0(%rip),%rsi        # 1f92b <g_3175+0x1787>
   1c15b:	48 89 c7             	mov    %rax,%rdi
   1c15e:	e8 90 f5 fe ff       	callq  b6f3 <transparent_crc>
   1c163:	48 8b 05 26 86 00 00 	mov    0x8626(%rip),%rax        # 24790 <g_1442+0x10>
   1c16a:	48 89 c1             	mov    %rax,%rcx
   1c16d:	8b 45 f4             	mov    -0xc(%rbp),%eax
   1c170:	89 c2                	mov    %eax,%edx
   1c172:	48 8d 35 bf 37 00 00 	lea    0x37bf(%rip),%rsi        # 1f938 <g_3175+0x1794>
   1c179:	48 89 cf             	mov    %rcx,%rdi
   1c17c:	e8 72 f5 fe ff       	callq  b6f3 <transparent_crc>
   1c181:	b8 ff ff ff ff       	mov    $0xffffffff,%eax
   1c186:	48 98                	cltq   
   1c188:	8b 55 f4             	mov    -0xc(%rbp),%edx
   1c18b:	48 8d 35 b3 37 00 00 	lea    0x37b3(%rip),%rsi        # 1f945 <g_3175+0x17a1>
   1c192:	48 89 c7             	mov    %rax,%rdi
   1c195:	e8 59 f5 fe ff       	callq  b6f3 <transparent_crc>
   1c19a:	8b 05 00 86 00 00    	mov    0x8600(%rip),%eax        # 247a0 <g_1584>
   1c1a0:	89 c1                	mov    %eax,%ecx
   1c1a2:	8b 45 f4             	mov    -0xc(%rbp),%eax
   1c1a5:	89 c2                	mov    %eax,%edx
   1c1a7:	48 8d 35 9e 37 00 00 	lea    0x379e(%rip),%rsi        # 1f94c <g_3175+0x17a8>
   1c1ae:	48 89 cf             	mov    %rcx,%rdi
   1c1b1:	e8 3d f5 fe ff       	callq  b6f3 <transparent_crc>
   1c1b6:	48 8b 05 eb 85 00 00 	mov    0x85eb(%rip),%rax        # 247a8 <g_1584+0x8>
   1c1bd:	8b 55 f4             	mov    -0xc(%rbp),%edx
   1c1c0:	48 8d 35 8f 37 00 00 	lea    0x378f(%rip),%rsi        # 1f956 <g_3175+0x17b2>
   1c1c7:	48 89 c7             	mov    %rax,%rdi
   1c1ca:	e8 24 f5 fe ff       	callq  b6f3 <transparent_crc>
   1c1cf:	48 8b 05 da 85 00 00 	mov    0x85da(%rip),%rax        # 247b0 <g_1584+0x10>
   1c1d6:	48 89 c1             	mov    %rax,%rcx
   1c1d9:	8b 45 f4             	mov    -0xc(%rbp),%eax
   1c1dc:	89 c2                	mov    %eax,%edx
   1c1de:	48 8d 35 7b 37 00 00 	lea    0x377b(%rip),%rsi        # 1f960 <g_3175+0x17bc>
   1c1e5:	48 89 cf             	mov    %rcx,%rdi
   1c1e8:	e8 06 f5 fe ff       	callq  b6f3 <transparent_crc>
   1c1ed:	0f b6 05 c4 85 00 00 	movzbl 0x85c4(%rip),%eax        # 247b8 <g_1616>
   1c1f4:	0f b6 c0             	movzbl %al,%eax
   1c1f7:	8b 55 f4             	mov    -0xc(%rbp),%edx
   1c1fa:	48 8d 35 69 37 00 00 	lea    0x3769(%rip),%rsi        # 1f96a <g_3175+0x17c6>
   1c201:	48 89 c7             	mov    %rax,%rdi
   1c204:	e8 ea f4 fe ff       	callq  b6f3 <transparent_crc>
   1c209:	8b 05 b1 85 00 00    	mov    0x85b1(%rip),%eax        # 247c0 <g_1778>
   1c20f:	89 c1                	mov    %eax,%ecx
   1c211:	8b 45 f4             	mov    -0xc(%rbp),%eax
   1c214:	89 c2                	mov    %eax,%edx
   1c216:	48 8d 35 54 37 00 00 	lea    0x3754(%rip),%rsi        # 1f971 <g_3175+0x17cd>
   1c21d:	48 89 cf             	mov    %rcx,%rdi
   1c220:	e8 ce f4 fe ff       	callq  b6f3 <transparent_crc>
   1c225:	48 8b 05 9c 85 00 00 	mov    0x859c(%rip),%rax        # 247c8 <g_1778+0x8>
   1c22c:	8b 55 f4             	mov    -0xc(%rbp),%edx
   1c22f:	48 8d 35 48 37 00 00 	lea    0x3748(%rip),%rsi        # 1f97e <g_3175+0x17da>
   1c236:	48 89 c7             	mov    %rax,%rdi
   1c239:	e8 b5 f4 fe ff       	callq  b6f3 <transparent_crc>
   1c23e:	48 8b 05 8b 85 00 00 	mov    0x858b(%rip),%rax        # 247d0 <g_1778+0x10>
   1c245:	48 89 c1             	mov    %rax,%rcx
   1c248:	8b 45 f4             	mov    -0xc(%rbp),%eax
   1c24b:	89 c2                	mov    %eax,%edx
   1c24d:	48 8d 35 37 37 00 00 	lea    0x3737(%rip),%rsi        # 1f98b <g_3175+0x17e7>
   1c254:	48 89 cf             	mov    %rcx,%rdi
   1c257:	e8 97 f4 fe ff       	callq  b6f3 <transparent_crc>
   1c25c:	c7 45 e8 00 00 00 00 	movl   $0x0,-0x18(%rbp)
   1c263:	e9 c1 00 00 00       	jmpq   1c329 <main+0x1253>
   1c268:	8b 45 e8             	mov    -0x18(%rbp),%eax
   1c26b:	48 63 d0             	movslq %eax,%rdx
   1c26e:	48 89 d0             	mov    %rdx,%rax
   1c271:	48 01 c0             	add    %rax,%rax
   1c274:	48 01 d0             	add    %rdx,%rax
   1c277:	48 c1 e0 03          	shl    $0x3,%rax
   1c27b:	48 89 c2             	mov    %rax,%rdx
   1c27e:	48 8d 05 5b 85 00 00 	lea    0x855b(%rip),%rax        # 247e0 <g_1822>
   1c285:	8b 04 02             	mov    (%rdx,%rax,1),%eax
   1c288:	89 c1                	mov    %eax,%ecx
   1c28a:	8b 45 f4             	mov    -0xc(%rbp),%eax
   1c28d:	89 c2                	mov    %eax,%edx
   1c28f:	48 8d 35 02 37 00 00 	lea    0x3702(%rip),%rsi        # 1f998 <g_3175+0x17f4>
   1c296:	48 89 cf             	mov    %rcx,%rdi
   1c299:	e8 55 f4 fe ff       	callq  b6f3 <transparent_crc>
   1c29e:	8b 45 e8             	mov    -0x18(%rbp),%eax
   1c2a1:	48 63 d0             	movslq %eax,%rdx
   1c2a4:	48 89 d0             	mov    %rdx,%rax
   1c2a7:	48 01 c0             	add    %rax,%rax
   1c2aa:	48 01 d0             	add    %rdx,%rax
   1c2ad:	48 c1 e0 03          	shl    $0x3,%rax
   1c2b1:	48 89 c2             	mov    %rax,%rdx
   1c2b4:	48 8d 05 2d 85 00 00 	lea    0x852d(%rip),%rax        # 247e8 <g_1822+0x8>
   1c2bb:	48 8b 04 02          	mov    (%rdx,%rax,1),%rax
   1c2bf:	8b 55 f4             	mov    -0xc(%rbp),%edx
   1c2c2:	48 8d 35 df 36 00 00 	lea    0x36df(%rip),%rsi        # 1f9a8 <g_3175+0x1804>
   1c2c9:	48 89 c7             	mov    %rax,%rdi
   1c2cc:	e8 22 f4 fe ff       	callq  b6f3 <transparent_crc>
   1c2d1:	8b 45 e8             	mov    -0x18(%rbp),%eax
   1c2d4:	48 63 d0             	movslq %eax,%rdx
   1c2d7:	48 89 d0             	mov    %rdx,%rax
   1c2da:	48 01 c0             	add    %rax,%rax
   1c2dd:	48 01 d0             	add    %rdx,%rax
   1c2e0:	48 c1 e0 03          	shl    $0x3,%rax
   1c2e4:	48 89 c2             	mov    %rax,%rdx
   1c2e7:	48 8d 05 02 85 00 00 	lea    0x8502(%rip),%rax        # 247f0 <g_1822+0x10>
   1c2ee:	48 8b 04 02          	mov    (%rdx,%rax,1),%rax
   1c2f2:	48 89 c1             	mov    %rax,%rcx
   1c2f5:	8b 45 f4             	mov    -0xc(%rbp),%eax
   1c2f8:	89 c2                	mov    %eax,%edx
   1c2fa:	48 8d 35 b7 36 00 00 	lea    0x36b7(%rip),%rsi        # 1f9b8 <g_3175+0x1814>
   1c301:	48 89 cf             	mov    %rcx,%rdi
   1c304:	e8 ea f3 fe ff       	callq  b6f3 <transparent_crc>
   1c309:	83 7d f4 00          	cmpl   $0x0,-0xc(%rbp)
   1c30d:	74 16                	je     1c325 <main+0x124f>
   1c30f:	8b 45 e8             	mov    -0x18(%rbp),%eax
   1c312:	89 c6                	mov    %eax,%esi
   1c314:	48 8d 3d 66 32 00 00 	lea    0x3266(%rip),%rdi        # 1f581 <g_3175+0x13dd>
   1c31b:	b8 00 00 00 00       	mov    $0x0,%eax
   1c320:	e8 5b dd fe ff       	callq  a080 <printf@plt>
   1c325:	83 45 e8 01          	addl   $0x1,-0x18(%rbp)
   1c329:	83 7d e8 05          	cmpl   $0x5,-0x18(%rbp)
   1c32d:	0f 8e 35 ff ff ff    	jle    1c268 <main+0x1192>
   1c333:	8b 05 37 85 00 00    	mov    0x8537(%rip),%eax        # 24870 <g_1886>
   1c339:	89 c1                	mov    %eax,%ecx
   1c33b:	8b 45 f4             	mov    -0xc(%rbp),%eax
   1c33e:	89 c2                	mov    %eax,%edx
   1c340:	48 8d 35 81 36 00 00 	lea    0x3681(%rip),%rsi        # 1f9c8 <g_3175+0x1824>
   1c347:	48 89 cf             	mov    %rcx,%rdi
   1c34a:	e8 a4 f3 fe ff       	callq  b6f3 <transparent_crc>
   1c34f:	48 8b 05 22 85 00 00 	mov    0x8522(%rip),%rax        # 24878 <g_1886+0x8>
   1c356:	8b 55 f4             	mov    -0xc(%rbp),%edx
   1c359:	48 8d 35 72 36 00 00 	lea    0x3672(%rip),%rsi        # 1f9d2 <g_3175+0x182e>
   1c360:	48 89 c7             	mov    %rax,%rdi
   1c363:	e8 8b f3 fe ff       	callq  b6f3 <transparent_crc>
   1c368:	48 8b 05 11 85 00 00 	mov    0x8511(%rip),%rax        # 24880 <g_1886+0x10>
   1c36f:	48 89 c1             	mov    %rax,%rcx
   1c372:	8b 45 f4             	mov    -0xc(%rbp),%eax
   1c375:	89 c2                	mov    %eax,%edx
   1c377:	48 8d 35 5e 36 00 00 	lea    0x365e(%rip),%rsi        # 1f9dc <g_3175+0x1838>
   1c37e:	48 89 cf             	mov    %rcx,%rdi
   1c381:	e8 6d f3 fe ff       	callq  b6f3 <transparent_crc>
   1c386:	c7 45 e8 00 00 00 00 	movl   $0x0,-0x18(%rbp)
   1c38d:	e9 32 01 00 00       	jmpq   1c4c4 <main+0x13ee>
   1c392:	c7 45 ec 00 00 00 00 	movl   $0x0,-0x14(%rbp)
   1c399:	e9 18 01 00 00       	jmpq   1c4b6 <main+0x13e0>
   1c39e:	8b 45 ec             	mov    -0x14(%rbp),%eax
   1c3a1:	48 98                	cltq   
   1c3a3:	8b 55 e8             	mov    -0x18(%rbp),%edx
   1c3a6:	48 63 ca             	movslq %edx,%rcx
   1c3a9:	48 89 c2             	mov    %rax,%rdx
   1c3ac:	48 01 d2             	add    %rdx,%rdx
   1c3af:	48 01 c2             	add    %rax,%rdx
   1c3b2:	48 8d 04 d5 00 00 00 	lea    0x0(,%rdx,8),%rax
   1c3b9:	00 
   1c3ba:	48 89 c2             	mov    %rax,%rdx
   1c3bd:	48 89 c8             	mov    %rcx,%rax
   1c3c0:	48 c1 e0 03          	shl    $0x3,%rax
   1c3c4:	48 01 c8             	add    %rcx,%rax
   1c3c7:	48 c1 e0 04          	shl    $0x4,%rax
   1c3cb:	48 01 c2             	add    %rax,%rdx
   1c3ce:	48 8d 05 cb 84 00 00 	lea    0x84cb(%rip),%rax        # 248a0 <g_1917>
   1c3d5:	48 01 d0             	add    %rdx,%rax
   1c3d8:	8b 00                	mov    (%rax),%eax
   1c3da:	89 c1                	mov    %eax,%ecx
   1c3dc:	8b 45 f4             	mov    -0xc(%rbp),%eax
   1c3df:	89 c2                	mov    %eax,%edx
   1c3e1:	48 8d 35 fe 35 00 00 	lea    0x35fe(%rip),%rsi        # 1f9e6 <g_3175+0x1842>
   1c3e8:	48 89 cf             	mov    %rcx,%rdi
   1c3eb:	e8 03 f3 fe ff       	callq  b6f3 <transparent_crc>
   1c3f0:	8b 45 ec             	mov    -0x14(%rbp),%eax
   1c3f3:	48 98                	cltq   
   1c3f5:	8b 55 e8             	mov    -0x18(%rbp),%edx
   1c3f8:	48 63 ca             	movslq %edx,%rcx
   1c3fb:	48 89 c2             	mov    %rax,%rdx
   1c3fe:	48 01 d2             	add    %rdx,%rdx
   1c401:	48 01 c2             	add    %rax,%rdx
   1c404:	48 8d 04 d5 00 00 00 	lea    0x0(,%rdx,8),%rax
   1c40b:	00 
   1c40c:	48 89 c2             	mov    %rax,%rdx
   1c40f:	48 89 c8             	mov    %rcx,%rax
   1c412:	48 c1 e0 03          	shl    $0x3,%rax
   1c416:	48 01 c8             	add    %rcx,%rax
   1c419:	48 c1 e0 04          	shl    $0x4,%rax
   1c41d:	48 01 c2             	add    %rax,%rdx
   1c420:	48 8d 05 81 84 00 00 	lea    0x8481(%rip),%rax        # 248a8 <g_1917+0x8>
   1c427:	48 01 d0             	add    %rdx,%rax
   1c42a:	48 8b 00             	mov    (%rax),%rax
   1c42d:	8b 55 f4             	mov    -0xc(%rbp),%edx
   1c430:	48 8d 35 bf 35 00 00 	lea    0x35bf(%rip),%rsi        # 1f9f6 <g_3175+0x1852>
   1c437:	48 89 c7             	mov    %rax,%rdi
   1c43a:	e8 b4 f2 fe ff       	callq  b6f3 <transparent_crc>
   1c43f:	8b 45 ec             	mov    -0x14(%rbp),%eax
   1c442:	48 98                	cltq   
   1c444:	8b 55 e8             	mov    -0x18(%rbp),%edx
   1c447:	48 63 ca             	movslq %edx,%rcx
   1c44a:	48 89 c2             	mov    %rax,%rdx
   1c44d:	48 01 d2             	add    %rdx,%rdx
   1c450:	48 01 c2             	add    %rax,%rdx
   1c453:	48 8d 04 d5 00 00 00 	lea    0x0(,%rdx,8),%rax
   1c45a:	00 
   1c45b:	48 89 c2             	mov    %rax,%rdx
   1c45e:	48 89 c8             	mov    %rcx,%rax
   1c461:	48 c1 e0 03          	shl    $0x3,%rax
   1c465:	48 01 c8             	add    %rcx,%rax
   1c468:	48 c1 e0 04          	shl    $0x4,%rax
   1c46c:	48 01 c2             	add    %rax,%rdx
   1c46f:	48 8d 05 3a 84 00 00 	lea    0x843a(%rip),%rax        # 248b0 <g_1917+0x10>
   1c476:	48 01 d0             	add    %rdx,%rax
   1c479:	48 8b 00             	mov    (%rax),%rax
   1c47c:	48 89 c1             	mov    %rax,%rcx
   1c47f:	8b 45 f4             	mov    -0xc(%rbp),%eax
   1c482:	89 c2                	mov    %eax,%edx
   1c484:	48 8d 35 7b 35 00 00 	lea    0x357b(%rip),%rsi        # 1fa06 <g_3175+0x1862>
   1c48b:	48 89 cf             	mov    %rcx,%rdi
   1c48e:	e8 60 f2 fe ff       	callq  b6f3 <transparent_crc>
   1c493:	83 7d f4 00          	cmpl   $0x0,-0xc(%rbp)
   1c497:	74 19                	je     1c4b2 <main+0x13dc>
   1c499:	8b 55 ec             	mov    -0x14(%rbp),%edx
   1c49c:	8b 45 e8             	mov    -0x18(%rbp),%eax
   1c49f:	89 c6                	mov    %eax,%esi
   1c4a1:	48 8d 3d 39 32 00 00 	lea    0x3239(%rip),%rdi        # 1f6e1 <g_3175+0x153d>
   1c4a8:	b8 00 00 00 00       	mov    $0x0,%eax
   1c4ad:	e8 ce db fe ff       	callq  a080 <printf@plt>
   1c4b2:	83 45 ec 01          	addl   $0x1,-0x14(%rbp)
   1c4b6:	83 7d ec 05          	cmpl   $0x5,-0x14(%rbp)
   1c4ba:	0f 8e de fe ff ff    	jle    1c39e <main+0x12c8>
   1c4c0:	83 45 e8 01          	addl   $0x1,-0x18(%rbp)
   1c4c4:	83 7d e8 08          	cmpl   $0x8,-0x18(%rbp)
   1c4c8:	0f 8e c4 fe ff ff    	jle    1c392 <main+0x12bc>
   1c4ce:	8b 05 dc 88 00 00    	mov    0x88dc(%rip),%eax        # 24db0 <g_1931>
   1c4d4:	48 98                	cltq   
   1c4d6:	8b 55 f4             	mov    -0xc(%rbp),%edx
   1c4d9:	48 8d 35 36 35 00 00 	lea    0x3536(%rip),%rsi        # 1fa16 <g_3175+0x1872>
   1c4e0:	48 89 c7             	mov    %rax,%rdi
   1c4e3:	e8 0b f2 fe ff       	callq  b6f3 <transparent_crc>
   1c4e8:	0f b6 05 c5 88 00 00 	movzbl 0x88c5(%rip),%eax        # 24db4 <g_1969>
   1c4ef:	0f b6 c0             	movzbl %al,%eax
   1c4f2:	8b 55 f4             	mov    -0xc(%rbp),%edx
   1c4f5:	48 8d 35 21 35 00 00 	lea    0x3521(%rip),%rsi        # 1fa1d <g_3175+0x1879>
   1c4fc:	48 89 c7             	mov    %rax,%rdi
   1c4ff:	e8 ef f1 fe ff       	callq  b6f3 <transparent_crc>
   1c504:	8b 05 b6 88 00 00    	mov    0x88b6(%rip),%eax        # 24dc0 <g_1970>
   1c50a:	89 c1                	mov    %eax,%ecx
   1c50c:	8b 45 f4             	mov    -0xc(%rbp),%eax
   1c50f:	89 c2                	mov    %eax,%edx
   1c511:	48 8d 35 0c 35 00 00 	lea    0x350c(%rip),%rsi        # 1fa24 <g_3175+0x1880>
   1c518:	48 89 cf             	mov    %rcx,%rdi
   1c51b:	e8 d3 f1 fe ff       	callq  b6f3 <transparent_crc>
   1c520:	48 8b 05 a1 88 00 00 	mov    0x88a1(%rip),%rax        # 24dc8 <g_1970+0x8>
   1c527:	8b 55 f4             	mov    -0xc(%rbp),%edx
   1c52a:	48 8d 35 fd 34 00 00 	lea    0x34fd(%rip),%rsi        # 1fa2e <g_3175+0x188a>
   1c531:	48 89 c7             	mov    %rax,%rdi
   1c534:	e8 ba f1 fe ff       	callq  b6f3 <transparent_crc>
   1c539:	48 8b 05 90 88 00 00 	mov    0x8890(%rip),%rax        # 24dd0 <g_1970+0x10>
   1c540:	48 89 c1             	mov    %rax,%rcx
   1c543:	8b 45 f4             	mov    -0xc(%rbp),%eax
   1c546:	89 c2                	mov    %eax,%edx
   1c548:	48 8d 35 e9 34 00 00 	lea    0x34e9(%rip),%rsi        # 1fa38 <g_3175+0x1894>
   1c54f:	48 89 cf             	mov    %rcx,%rdi
   1c552:	e8 9c f1 fe ff       	callq  b6f3 <transparent_crc>
   1c557:	8b 05 23 1c 00 00    	mov    0x1c23(%rip),%eax        # 1e180 <g_1971>
   1c55d:	89 c1                	mov    %eax,%ecx
   1c55f:	8b 45 f4             	mov    -0xc(%rbp),%eax
   1c562:	89 c2                	mov    %eax,%edx
   1c564:	48 8d 35 d7 34 00 00 	lea    0x34d7(%rip),%rsi        # 1fa42 <g_3175+0x189e>
   1c56b:	48 89 cf             	mov    %rcx,%rdi
   1c56e:	e8 80 f1 fe ff       	callq  b6f3 <transparent_crc>
   1c573:	48 8b 05 0e 1c 00 00 	mov    0x1c0e(%rip),%rax        # 1e188 <g_1971+0x8>
   1c57a:	8b 55 f4             	mov    -0xc(%rbp),%edx
   1c57d:	48 8d 35 cb 34 00 00 	lea    0x34cb(%rip),%rsi        # 1fa4f <g_3175+0x18ab>
   1c584:	48 89 c7             	mov    %rax,%rdi
   1c587:	e8 67 f1 fe ff       	callq  b6f3 <transparent_crc>
   1c58c:	48 8b 05 fd 1b 00 00 	mov    0x1bfd(%rip),%rax        # 1e190 <g_1971+0x10>
   1c593:	48 89 c1             	mov    %rax,%rcx
   1c596:	8b 45 f4             	mov    -0xc(%rbp),%eax
   1c599:	89 c2                	mov    %eax,%edx
   1c59b:	48 8d 35 ba 34 00 00 	lea    0x34ba(%rip),%rsi        # 1fa5c <g_3175+0x18b8>
   1c5a2:	48 89 cf             	mov    %rcx,%rdi
   1c5a5:	e8 49 f1 fe ff       	callq  b6f3 <transparent_crc>
   1c5aa:	c7 45 e8 00 00 00 00 	movl   $0x0,-0x18(%rbp)
   1c5b1:	e9 94 01 00 00       	jmpq   1c74a <main+0x1674>
   1c5b6:	c7 45 ec 00 00 00 00 	movl   $0x0,-0x14(%rbp)
   1c5bd:	e9 7a 01 00 00       	jmpq   1c73c <main+0x1666>
   1c5c2:	c7 45 f0 00 00 00 00 	movl   $0x0,-0x10(%rbp)
   1c5c9:	e9 60 01 00 00       	jmpq   1c72e <main+0x1658>
   1c5ce:	8b 45 f0             	mov    -0x10(%rbp),%eax
   1c5d1:	48 98                	cltq   
   1c5d3:	8b 55 ec             	mov    -0x14(%rbp),%edx
   1c5d6:	48 63 f2             	movslq %edx,%rsi
   1c5d9:	8b 55 e8             	mov    -0x18(%rbp),%edx
   1c5dc:	48 63 ca             	movslq %edx,%rcx
   1c5df:	48 89 c2             	mov    %rax,%rdx
   1c5e2:	48 01 d2             	add    %rdx,%rdx
   1c5e5:	48 01 c2             	add    %rax,%rdx
   1c5e8:	48 8d 04 d5 00 00 00 	lea    0x0(,%rdx,8),%rax
   1c5ef:	00 
   1c5f0:	48 89 c2             	mov    %rax,%rdx
   1c5f3:	48 89 f0             	mov    %rsi,%rax
   1c5f6:	48 c1 e0 03          	shl    $0x3,%rax
   1c5fa:	48 01 f0             	add    %rsi,%rax
   1c5fd:	48 c1 e0 03          	shl    $0x3,%rax
   1c601:	48 01 c2             	add    %rax,%rdx
   1c604:	48 89 c8             	mov    %rcx,%rax
   1c607:	48 c1 e0 03          	shl    $0x3,%rax
   1c60b:	48 01 c8             	add    %rcx,%rax
   1c60e:	48 c1 e0 06          	shl    $0x6,%rax
   1c612:	48 01 c2             	add    %rax,%rdx
   1c615:	48 8d 05 c4 87 00 00 	lea    0x87c4(%rip),%rax        # 24de0 <g_1981>
   1c61c:	48 01 d0             	add    %rdx,%rax
   1c61f:	8b 00                	mov    (%rax),%eax
   1c621:	89 c1                	mov    %eax,%ecx
   1c623:	8b 45 f4             	mov    -0xc(%rbp),%eax
   1c626:	89 c2                	mov    %eax,%edx
   1c628:	48 8d 35 3a 34 00 00 	lea    0x343a(%rip),%rsi        # 1fa69 <g_3175+0x18c5>
   1c62f:	48 89 cf             	mov    %rcx,%rdi
   1c632:	e8 bc f0 fe ff       	callq  b6f3 <transparent_crc>
   1c637:	8b 45 f0             	mov    -0x10(%rbp),%eax
   1c63a:	48 98                	cltq   
   1c63c:	8b 55 ec             	mov    -0x14(%rbp),%edx
   1c63f:	48 63 f2             	movslq %edx,%rsi
   1c642:	8b 55 e8             	mov    -0x18(%rbp),%edx
   1c645:	48 63 ca             	movslq %edx,%rcx
   1c648:	48 89 c2             	mov    %rax,%rdx
   1c64b:	48 01 d2             	add    %rdx,%rdx
   1c64e:	48 01 c2             	add    %rax,%rdx
   1c651:	48 8d 04 d5 00 00 00 	lea    0x0(,%rdx,8),%rax
   1c658:	00 
   1c659:	48 89 c2             	mov    %rax,%rdx
   1c65c:	48 89 f0             	mov    %rsi,%rax
   1c65f:	48 c1 e0 03          	shl    $0x3,%rax
   1c663:	48 01 f0             	add    %rsi,%rax
   1c666:	48 c1 e0 03          	shl    $0x3,%rax
   1c66a:	48 01 c2             	add    %rax,%rdx
   1c66d:	48 89 c8             	mov    %rcx,%rax
   1c670:	48 c1 e0 03          	shl    $0x3,%rax
   1c674:	48 01 c8             	add    %rcx,%rax
   1c677:	48 c1 e0 06          	shl    $0x6,%rax
   1c67b:	48 01 c2             	add    %rax,%rdx
   1c67e:	48 8d 05 63 87 00 00 	lea    0x8763(%rip),%rax        # 24de8 <g_1981+0x8>
   1c685:	48 01 d0             	add    %rdx,%rax
   1c688:	48 8b 00             	mov    (%rax),%rax
   1c68b:	8b 55 f4             	mov    -0xc(%rbp),%edx
   1c68e:	48 8d 35 ea 33 00 00 	lea    0x33ea(%rip),%rsi        # 1fa7f <g_3175+0x18db>
   1c695:	48 89 c7             	mov    %rax,%rdi
   1c698:	e8 56 f0 fe ff       	callq  b6f3 <transparent_crc>
   1c69d:	8b 45 f0             	mov    -0x10(%rbp),%eax
   1c6a0:	48 98                	cltq   
   1c6a2:	8b 55 ec             	mov    -0x14(%rbp),%edx
   1c6a5:	48 63 ca             	movslq %edx,%rcx
   1c6a8:	8b 55 e8             	mov    -0x18(%rbp),%edx
   1c6ab:	48 63 f2             	movslq %edx,%rsi
   1c6ae:	48 89 c2             	mov    %rax,%rdx
   1c6b1:	48 01 d2             	add    %rdx,%rdx
   1c6b4:	48 01 c2             	add    %rax,%rdx
   1c6b7:	48 8d 04 d5 00 00 00 	lea    0x0(,%rdx,8),%rax
   1c6be:	00 
   1c6bf:	48 89 c2             	mov    %rax,%rdx
   1c6c2:	48 89 f0             	mov    %rsi,%rax
   1c6c5:	48 c1 e0 03          	shl    $0x3,%rax
   1c6c9:	48 01 f0             	add    %rsi,%rax
   1c6cc:	48 c1 e0 06          	shl    $0x6,%rax
   1c6d0:	48 01 c2             	add    %rax,%rdx
   1c6d3:	48 89 c8             	mov    %rcx,%rax
   1c6d6:	48 c1 e0 03          	shl    $0x3,%rax
   1c6da:	48 01 c8             	add    %rcx,%rax
   1c6dd:	48 c1 e0 03          	shl    $0x3,%rax
   1c6e1:	48 01 c2             	add    %rax,%rdx
   1c6e4:	48 8d 05 05 87 00 00 	lea    0x8705(%rip),%rax        # 24df0 <g_1981+0x10>
   1c6eb:	48 01 d0             	add    %rdx,%rax
   1c6ee:	48 8b 00             	mov    (%rax),%rax
   1c6f1:	48 89 c1             	mov    %rax,%rcx
   1c6f4:	8b 45 f4             	mov    -0xc(%rbp),%eax
   1c6f7:	89 c2                	mov    %eax,%edx
   1c6f9:	48 8d 35 95 33 00 00 	lea    0x3395(%rip),%rsi        # 1fa95 <g_3175+0x18f1>
   1c700:	48 89 cf             	mov    %rcx,%rdi
   1c703:	e8 eb ef fe ff       	callq  b6f3 <transparent_crc>
   1c708:	83 7d f4 00          	cmpl   $0x0,-0xc(%rbp)
   1c70c:	74 1c                	je     1c72a <main+0x1654>
   1c70e:	8b 4d f0             	mov    -0x10(%rbp),%ecx
   1c711:	8b 55 ec             	mov    -0x14(%rbp),%edx
   1c714:	8b 45 e8             	mov    -0x18(%rbp),%eax
   1c717:	89 c6                	mov    %eax,%esi
   1c719:	48 8d 3d a2 30 00 00 	lea    0x30a2(%rip),%rdi        # 1f7c2 <g_3175+0x161e>
   1c720:	b8 00 00 00 00       	mov    $0x0,%eax
   1c725:	e8 56 d9 fe ff       	callq  a080 <printf@plt>
   1c72a:	83 45 f0 01          	addl   $0x1,-0x10(%rbp)
   1c72e:	83 7d f0 02          	cmpl   $0x2,-0x10(%rbp)
   1c732:	0f 8e 96 fe ff ff    	jle    1c5ce <main+0x14f8>
   1c738:	83 45 ec 01          	addl   $0x1,-0x14(%rbp)
   1c73c:	83 7d ec 07          	cmpl   $0x7,-0x14(%rbp)
   1c740:	0f 8e 7c fe ff ff    	jle    1c5c2 <main+0x14ec>
   1c746:	83 45 e8 01          	addl   $0x1,-0x18(%rbp)
   1c74a:	83 7d e8 00          	cmpl   $0x0,-0x18(%rbp)
   1c74e:	0f 8e 62 fe ff ff    	jle    1c5b6 <main+0x14e0>
   1c754:	8b 05 c6 88 00 00    	mov    0x88c6(%rip),%eax        # 25020 <g_1983>
   1c75a:	89 c1                	mov    %eax,%ecx
   1c75c:	8b 45 f4             	mov    -0xc(%rbp),%eax
   1c75f:	89 c2                	mov    %eax,%edx
   1c761:	48 8d 35 43 33 00 00 	lea    0x3343(%rip),%rsi        # 1faab <g_3175+0x1907>
   1c768:	48 89 cf             	mov    %rcx,%rdi
   1c76b:	e8 83 ef fe ff       	callq  b6f3 <transparent_crc>
   1c770:	48 8b 05 b1 88 00 00 	mov    0x88b1(%rip),%rax        # 25028 <g_1983+0x8>
   1c777:	8b 55 f4             	mov    -0xc(%rbp),%edx
   1c77a:	48 8d 35 37 33 00 00 	lea    0x3337(%rip),%rsi        # 1fab8 <g_3175+0x1914>
   1c781:	48 89 c7             	mov    %rax,%rdi
   1c784:	e8 6a ef fe ff       	callq  b6f3 <transparent_crc>
   1c789:	48 8b 05 a0 88 00 00 	mov    0x88a0(%rip),%rax        # 25030 <g_1983+0x10>
   1c790:	48 89 c1             	mov    %rax,%rcx
   1c793:	8b 45 f4             	mov    -0xc(%rbp),%eax
   1c796:	89 c2                	mov    %eax,%edx
   1c798:	48 8d 35 26 33 00 00 	lea    0x3326(%rip),%rsi        # 1fac5 <g_3175+0x1921>
   1c79f:	48 89 cf             	mov    %rcx,%rdi
   1c7a2:	e8 4c ef fe ff       	callq  b6f3 <transparent_crc>
   1c7a7:	8b 05 93 88 00 00    	mov    0x8893(%rip),%eax        # 25040 <g_1985>
   1c7ad:	89 c1                	mov    %eax,%ecx
   1c7af:	8b 45 f4             	mov    -0xc(%rbp),%eax
   1c7b2:	89 c2                	mov    %eax,%edx
   1c7b4:	48 8d 35 17 33 00 00 	lea    0x3317(%rip),%rsi        # 1fad2 <g_3175+0x192e>
   1c7bb:	48 89 cf             	mov    %rcx,%rdi
   1c7be:	e8 30 ef fe ff       	callq  b6f3 <transparent_crc>
   1c7c3:	48 8b 05 7e 88 00 00 	mov    0x887e(%rip),%rax        # 25048 <g_1985+0x8>
   1c7ca:	8b 55 f4             	mov    -0xc(%rbp),%edx
   1c7cd:	48 8d 35 0b 33 00 00 	lea    0x330b(%rip),%rsi        # 1fadf <g_3175+0x193b>
   1c7d4:	48 89 c7             	mov    %rax,%rdi
   1c7d7:	e8 17 ef fe ff       	callq  b6f3 <transparent_crc>
   1c7dc:	48 8b 05 6d 88 00 00 	mov    0x886d(%rip),%rax        # 25050 <g_1985+0x10>
   1c7e3:	48 89 c1             	mov    %rax,%rcx
   1c7e6:	8b 45 f4             	mov    -0xc(%rbp),%eax
   1c7e9:	89 c2                	mov    %eax,%edx
   1c7eb:	48 8d 35 fa 32 00 00 	lea    0x32fa(%rip),%rsi        # 1faec <g_3175+0x1948>
   1c7f2:	48 89 cf             	mov    %rcx,%rdi
   1c7f5:	e8 f9 ee fe ff       	callq  b6f3 <transparent_crc>
   1c7fa:	0f b6 05 57 88 00 00 	movzbl 0x8857(%rip),%eax        # 25058 <g_2024>
   1c801:	0f b6 c0             	movzbl %al,%eax
   1c804:	8b 55 f4             	mov    -0xc(%rbp),%edx
   1c807:	48 8d 35 eb 32 00 00 	lea    0x32eb(%rip),%rsi        # 1faf9 <g_3175+0x1955>
   1c80e:	48 89 c7             	mov    %rax,%rdi
   1c811:	e8 dd ee fe ff       	callq  b6f3 <transparent_crc>
   1c816:	48 8b 05 43 88 00 00 	mov    0x8843(%rip),%rax        # 25060 <g_2074>
   1c81d:	8b 55 f4             	mov    -0xc(%rbp),%edx
   1c820:	48 8d 35 d9 32 00 00 	lea    0x32d9(%rip),%rsi        # 1fb00 <g_3175+0x195c>
   1c827:	48 89 c7             	mov    %rax,%rdi
   1c82a:	e8 c4 ee fe ff       	callq  b6f3 <transparent_crc>
   1c82f:	c7 45 e8 00 00 00 00 	movl   $0x0,-0x18(%rbp)
   1c836:	e9 c1 00 00 00       	jmpq   1c8fc <main+0x1826>
   1c83b:	8b 45 e8             	mov    -0x18(%rbp),%eax
   1c83e:	48 63 d0             	movslq %eax,%rdx
   1c841:	48 89 d0             	mov    %rdx,%rax
   1c844:	48 01 c0             	add    %rax,%rax
   1c847:	48 01 d0             	add    %rdx,%rax
   1c84a:	48 c1 e0 03          	shl    $0x3,%rax
   1c84e:	48 89 c2             	mov    %rax,%rdx
   1c851:	48 8d 05 28 88 00 00 	lea    0x8828(%rip),%rax        # 25080 <g_2120>
   1c858:	8b 04 02             	mov    (%rdx,%rax,1),%eax
   1c85b:	89 c1                	mov    %eax,%ecx
   1c85d:	8b 45 f4             	mov    -0xc(%rbp),%eax
   1c860:	89 c2                	mov    %eax,%edx
   1c862:	48 8d 35 9e 32 00 00 	lea    0x329e(%rip),%rsi        # 1fb07 <g_3175+0x1963>
   1c869:	48 89 cf             	mov    %rcx,%rdi
   1c86c:	e8 82 ee fe ff       	callq  b6f3 <transparent_crc>
   1c871:	8b 45 e8             	mov    -0x18(%rbp),%eax
   1c874:	48 63 d0             	movslq %eax,%rdx
   1c877:	48 89 d0             	mov    %rdx,%rax
   1c87a:	48 01 c0             	add    %rax,%rax
   1c87d:	48 01 d0             	add    %rdx,%rax
   1c880:	48 c1 e0 03          	shl    $0x3,%rax
   1c884:	48 89 c2             	mov    %rax,%rdx
   1c887:	48 8d 05 fa 87 00 00 	lea    0x87fa(%rip),%rax        # 25088 <g_2120+0x8>
   1c88e:	48 8b 04 02          	mov    (%rdx,%rax,1),%rax
   1c892:	8b 55 f4             	mov    -0xc(%rbp),%edx
   1c895:	48 8d 35 7b 32 00 00 	lea    0x327b(%rip),%rsi        # 1fb17 <g_3175+0x1973>
   1c89c:	48 89 c7             	mov    %rax,%rdi
   1c89f:	e8 4f ee fe ff       	callq  b6f3 <transparent_crc>
   1c8a4:	8b 45 e8             	mov    -0x18(%rbp),%eax
   1c8a7:	48 63 d0             	movslq %eax,%rdx
   1c8aa:	48 89 d0             	mov    %rdx,%rax
   1c8ad:	48 01 c0             	add    %rax,%rax
   1c8b0:	48 01 d0             	add    %rdx,%rax
   1c8b3:	48 c1 e0 03          	shl    $0x3,%rax
   1c8b7:	48 89 c2             	mov    %rax,%rdx
   1c8ba:	48 8d 05 cf 87 00 00 	lea    0x87cf(%rip),%rax        # 25090 <g_2120+0x10>
   1c8c1:	48 8b 04 02          	mov    (%rdx,%rax,1),%rax
   1c8c5:	48 89 c1             	mov    %rax,%rcx
   1c8c8:	8b 45 f4             	mov    -0xc(%rbp),%eax
   1c8cb:	89 c2                	mov    %eax,%edx
   1c8cd:	48 8d 35 53 32 00 00 	lea    0x3253(%rip),%rsi        # 1fb27 <g_3175+0x1983>
   1c8d4:	48 89 cf             	mov    %rcx,%rdi
   1c8d7:	e8 17 ee fe ff       	callq  b6f3 <transparent_crc>
   1c8dc:	83 7d f4 00          	cmpl   $0x0,-0xc(%rbp)
   1c8e0:	74 16                	je     1c8f8 <main+0x1822>
   1c8e2:	8b 45 e8             	mov    -0x18(%rbp),%eax
   1c8e5:	89 c6                	mov    %eax,%esi
   1c8e7:	48 8d 3d 93 2c 00 00 	lea    0x2c93(%rip),%rdi        # 1f581 <g_3175+0x13dd>
   1c8ee:	b8 00 00 00 00       	mov    $0x0,%eax
   1c8f3:	e8 88 d7 fe ff       	callq  a080 <printf@plt>
   1c8f8:	83 45 e8 01          	addl   $0x1,-0x18(%rbp)
   1c8fc:	83 7d e8 01          	cmpl   $0x1,-0x18(%rbp)
   1c900:	0f 8e 35 ff ff ff    	jle    1c83b <main+0x1765>
   1c906:	8b 05 a4 87 00 00    	mov    0x87a4(%rip),%eax        # 250b0 <g_2135>
   1c90c:	89 c1                	mov    %eax,%ecx
   1c90e:	8b 45 f4             	mov    -0xc(%rbp),%eax
   1c911:	89 c2                	mov    %eax,%edx
   1c913:	48 8d 35 1d 32 00 00 	lea    0x321d(%rip),%rsi        # 1fb37 <g_3175+0x1993>
   1c91a:	48 89 cf             	mov    %rcx,%rdi
   1c91d:	e8 d1 ed fe ff       	callq  b6f3 <transparent_crc>
   1c922:	48 8b 05 8f 87 00 00 	mov    0x878f(%rip),%rax        # 250b8 <g_2135+0x8>
   1c929:	8b 55 f4             	mov    -0xc(%rbp),%edx
   1c92c:	48 8d 35 11 32 00 00 	lea    0x3211(%rip),%rsi        # 1fb44 <g_3175+0x19a0>
   1c933:	48 89 c7             	mov    %rax,%rdi
   1c936:	e8 b8 ed fe ff       	callq  b6f3 <transparent_crc>
   1c93b:	48 8b 05 7e 87 00 00 	mov    0x877e(%rip),%rax        # 250c0 <g_2135+0x10>
   1c942:	48 89 c1             	mov    %rax,%rcx
   1c945:	8b 45 f4             	mov    -0xc(%rbp),%eax
   1c948:	89 c2                	mov    %eax,%edx
   1c94a:	48 8d 35 00 32 00 00 	lea    0x3200(%rip),%rsi        # 1fb51 <g_3175+0x19ad>
   1c951:	48 89 cf             	mov    %rcx,%rdi
   1c954:	e8 9a ed fe ff       	callq  b6f3 <transparent_crc>
   1c959:	8b 05 71 87 00 00    	mov    0x8771(%rip),%eax        # 250d0 <g_2226>
   1c95f:	89 c1                	mov    %eax,%ecx
   1c961:	8b 45 f4             	mov    -0xc(%rbp),%eax
   1c964:	89 c2                	mov    %eax,%edx
   1c966:	48 8d 35 f1 31 00 00 	lea    0x31f1(%rip),%rsi        # 1fb5e <g_3175+0x19ba>
   1c96d:	48 89 cf             	mov    %rcx,%rdi
   1c970:	e8 7e ed fe ff       	callq  b6f3 <transparent_crc>
   1c975:	48 8b 05 5c 87 00 00 	mov    0x875c(%rip),%rax        # 250d8 <g_2226+0x8>
   1c97c:	8b 55 f4             	mov    -0xc(%rbp),%edx
   1c97f:	48 8d 35 e5 31 00 00 	lea    0x31e5(%rip),%rsi        # 1fb6b <g_3175+0x19c7>
   1c986:	48 89 c7             	mov    %rax,%rdi
   1c989:	e8 65 ed fe ff       	callq  b6f3 <transparent_crc>
   1c98e:	48 8b 05 4b 87 00 00 	mov    0x874b(%rip),%rax        # 250e0 <g_2226+0x10>
   1c995:	48 89 c1             	mov    %rax,%rcx
   1c998:	8b 45 f4             	mov    -0xc(%rbp),%eax
   1c99b:	89 c2                	mov    %eax,%edx
   1c99d:	48 8d 35 d4 31 00 00 	lea    0x31d4(%rip),%rsi        # 1fb78 <g_3175+0x19d4>
   1c9a4:	48 89 cf             	mov    %rcx,%rdi
   1c9a7:	e8 47 ed fe ff       	callq  b6f3 <transparent_crc>
   1c9ac:	8b 05 3e 87 00 00    	mov    0x873e(%rip),%eax        # 250f0 <g_2233>
   1c9b2:	89 c1                	mov    %eax,%ecx
   1c9b4:	8b 45 f4             	mov    -0xc(%rbp),%eax
   1c9b7:	89 c2                	mov    %eax,%edx
   1c9b9:	48 8d 35 c5 31 00 00 	lea    0x31c5(%rip),%rsi        # 1fb85 <g_3175+0x19e1>
   1c9c0:	48 89 cf             	mov    %rcx,%rdi
   1c9c3:	e8 2b ed fe ff       	callq  b6f3 <transparent_crc>
   1c9c8:	48 8b 05 29 87 00 00 	mov    0x8729(%rip),%rax        # 250f8 <g_2233+0x8>
   1c9cf:	8b 55 f4             	mov    -0xc(%rbp),%edx
   1c9d2:	48 8d 35 b9 31 00 00 	lea    0x31b9(%rip),%rsi        # 1fb92 <g_3175+0x19ee>
   1c9d9:	48 89 c7             	mov    %rax,%rdi
   1c9dc:	e8 12 ed fe ff       	callq  b6f3 <transparent_crc>
   1c9e1:	48 8b 05 18 87 00 00 	mov    0x8718(%rip),%rax        # 25100 <g_2233+0x10>
   1c9e8:	48 89 c1             	mov    %rax,%rcx
   1c9eb:	8b 45 f4             	mov    -0xc(%rbp),%eax
   1c9ee:	89 c2                	mov    %eax,%edx
   1c9f0:	48 8d 35 a8 31 00 00 	lea    0x31a8(%rip),%rsi        # 1fb9f <g_3175+0x19fb>
   1c9f7:	48 89 cf             	mov    %rcx,%rdi
   1c9fa:	e8 f4 ec fe ff       	callq  b6f3 <transparent_crc>
   1c9ff:	8b 05 0b 87 00 00    	mov    0x870b(%rip),%eax        # 25110 <g_2235>
   1ca05:	89 c1                	mov    %eax,%ecx
   1ca07:	8b 45 f4             	mov    -0xc(%rbp),%eax
   1ca0a:	89 c2                	mov    %eax,%edx
   1ca0c:	48 8d 35 99 31 00 00 	lea    0x3199(%rip),%rsi        # 1fbac <g_3175+0x1a08>
   1ca13:	48 89 cf             	mov    %rcx,%rdi
   1ca16:	e8 d8 ec fe ff       	callq  b6f3 <transparent_crc>
   1ca1b:	48 8b 05 f6 86 00 00 	mov    0x86f6(%rip),%rax        # 25118 <g_2235+0x8>
   1ca22:	8b 55 f4             	mov    -0xc(%rbp),%edx
   1ca25:	48 8d 35 8d 31 00 00 	lea    0x318d(%rip),%rsi        # 1fbb9 <g_3175+0x1a15>
   1ca2c:	48 89 c7             	mov    %rax,%rdi
   1ca2f:	e8 bf ec fe ff       	callq  b6f3 <transparent_crc>
   1ca34:	48 8b 05 e5 86 00 00 	mov    0x86e5(%rip),%rax        # 25120 <g_2235+0x10>
   1ca3b:	48 89 c1             	mov    %rax,%rcx
   1ca3e:	8b 45 f4             	mov    -0xc(%rbp),%eax
   1ca41:	89 c2                	mov    %eax,%edx
   1ca43:	48 8d 35 7c 31 00 00 	lea    0x317c(%rip),%rsi        # 1fbc6 <g_3175+0x1a22>
   1ca4a:	48 89 cf             	mov    %rcx,%rdi
   1ca4d:	e8 a1 ec fe ff       	callq  b6f3 <transparent_crc>
   1ca52:	8b 05 d0 86 00 00    	mov    0x86d0(%rip),%eax        # 25128 <g_2253>
   1ca58:	48 98                	cltq   
   1ca5a:	8b 55 f4             	mov    -0xc(%rbp),%edx
   1ca5d:	48 8d 35 6f 31 00 00 	lea    0x316f(%rip),%rsi        # 1fbd3 <g_3175+0x1a2f>
   1ca64:	48 89 c7             	mov    %rax,%rdi
   1ca67:	e8 87 ec fe ff       	callq  b6f3 <transparent_crc>
   1ca6c:	8b 05 be 86 00 00    	mov    0x86be(%rip),%eax        # 25130 <g_2289>
   1ca72:	89 c1                	mov    %eax,%ecx
   1ca74:	8b 45 f4             	mov    -0xc(%rbp),%eax
   1ca77:	89 c2                	mov    %eax,%edx
   1ca79:	48 8d 35 5a 31 00 00 	lea    0x315a(%rip),%rsi        # 1fbda <g_3175+0x1a36>
   1ca80:	48 89 cf             	mov    %rcx,%rdi
   1ca83:	e8 6b ec fe ff       	callq  b6f3 <transparent_crc>
   1ca88:	48 8b 05 a9 86 00 00 	mov    0x86a9(%rip),%rax        # 25138 <g_2289+0x8>
   1ca8f:	8b 55 f4             	mov    -0xc(%rbp),%edx
   1ca92:	48 8d 35 4e 31 00 00 	lea    0x314e(%rip),%rsi        # 1fbe7 <g_3175+0x1a43>
   1ca99:	48 89 c7             	mov    %rax,%rdi
   1ca9c:	e8 52 ec fe ff       	callq  b6f3 <transparent_crc>
   1caa1:	48 8b 05 98 86 00 00 	mov    0x8698(%rip),%rax        # 25140 <g_2289+0x10>
   1caa8:	48 89 c1             	mov    %rax,%rcx
   1caab:	8b 45 f4             	mov    -0xc(%rbp),%eax
   1caae:	89 c2                	mov    %eax,%edx
   1cab0:	48 8d 35 3d 31 00 00 	lea    0x313d(%rip),%rsi        # 1fbf4 <g_3175+0x1a50>
   1cab7:	48 89 cf             	mov    %rcx,%rdi
   1caba:	e8 34 ec fe ff       	callq  b6f3 <transparent_crc>
   1cabf:	8b 05 8b 86 00 00    	mov    0x868b(%rip),%eax        # 25150 <g_2314>
   1cac5:	89 c1                	mov    %eax,%ecx
   1cac7:	8b 45 f4             	mov    -0xc(%rbp),%eax
   1caca:	89 c2                	mov    %eax,%edx
   1cacc:	48 8d 35 2e 31 00 00 	lea    0x312e(%rip),%rsi        # 1fc01 <g_3175+0x1a5d>
   1cad3:	48 89 cf             	mov    %rcx,%rdi
   1cad6:	e8 18 ec fe ff       	callq  b6f3 <transparent_crc>
   1cadb:	48 8b 05 76 86 00 00 	mov    0x8676(%rip),%rax        # 25158 <g_2314+0x8>
   1cae2:	8b 55 f4             	mov    -0xc(%rbp),%edx
   1cae5:	48 8d 35 22 31 00 00 	lea    0x3122(%rip),%rsi        # 1fc0e <g_3175+0x1a6a>
   1caec:	48 89 c7             	mov    %rax,%rdi
   1caef:	e8 ff eb fe ff       	callq  b6f3 <transparent_crc>
   1caf4:	48 8b 05 65 86 00 00 	mov    0x8665(%rip),%rax        # 25160 <g_2314+0x10>
   1cafb:	48 89 c1             	mov    %rax,%rcx
   1cafe:	8b 45 f4             	mov    -0xc(%rbp),%eax
   1cb01:	89 c2                	mov    %eax,%edx
   1cb03:	48 8d 35 11 31 00 00 	lea    0x3111(%rip),%rsi        # 1fc1b <g_3175+0x1a77>
   1cb0a:	48 89 cf             	mov    %rcx,%rdi
   1cb0d:	e8 e1 eb fe ff       	callq  b6f3 <transparent_crc>
   1cb12:	8b 05 50 86 00 00    	mov    0x8650(%rip),%eax        # 25168 <g_2355>
   1cb18:	89 c1                	mov    %eax,%ecx
   1cb1a:	8b 45 f4             	mov    -0xc(%rbp),%eax
   1cb1d:	89 c2                	mov    %eax,%edx
   1cb1f:	48 8d 35 02 31 00 00 	lea    0x3102(%rip),%rsi        # 1fc28 <g_3175+0x1a84>
   1cb26:	48 89 cf             	mov    %rcx,%rdi
   1cb29:	e8 c5 eb fe ff       	callq  b6f3 <transparent_crc>
   1cb2e:	8b 05 38 86 00 00    	mov    0x8638(%rip),%eax        # 2516c <g_2361>
   1cb34:	48 98                	cltq   
   1cb36:	8b 55 f4             	mov    -0xc(%rbp),%edx
   1cb39:	48 8d 35 ef 30 00 00 	lea    0x30ef(%rip),%rsi        # 1fc2f <g_3175+0x1a8b>
   1cb40:	48 89 c7             	mov    %rax,%rdi
   1cb43:	e8 ab eb fe ff       	callq  b6f3 <transparent_crc>
   1cb48:	8b 05 42 d5 00 00    	mov    0xd542(%rip),%eax        # 2a090 <g_2377>
   1cb4e:	89 c1                	mov    %eax,%ecx
   1cb50:	8b 45 f4             	mov    -0xc(%rbp),%eax
   1cb53:	89 c2                	mov    %eax,%edx
   1cb55:	48 8d 35 da 30 00 00 	lea    0x30da(%rip),%rsi        # 1fc36 <g_3175+0x1a92>
   1cb5c:	48 89 cf             	mov    %rcx,%rdi
   1cb5f:	e8 8f eb fe ff       	callq  b6f3 <transparent_crc>
   1cb64:	0f b7 05 05 86 00 00 	movzwl 0x8605(%rip),%eax        # 25170 <g_2390>
   1cb6b:	0f b7 c0             	movzwl %ax,%eax
   1cb6e:	8b 55 f4             	mov    -0xc(%rbp),%edx
   1cb71:	48 8d 35 c5 30 00 00 	lea    0x30c5(%rip),%rsi        # 1fc3d <g_3175+0x1a99>
   1cb78:	48 89 c7             	mov    %rax,%rdi
   1cb7b:	e8 73 eb fe ff       	callq  b6f3 <transparent_crc>
   1cb80:	8b 05 fa 85 00 00    	mov    0x85fa(%rip),%eax        # 25180 <g_2421>
   1cb86:	89 c1                	mov    %eax,%ecx
   1cb88:	8b 45 f4             	mov    -0xc(%rbp),%eax
   1cb8b:	89 c2                	mov    %eax,%edx
   1cb8d:	48 8d 35 b0 30 00 00 	lea    0x30b0(%rip),%rsi        # 1fc44 <g_3175+0x1aa0>
   1cb94:	48 89 cf             	mov    %rcx,%rdi
   1cb97:	e8 57 eb fe ff       	callq  b6f3 <transparent_crc>
   1cb9c:	48 8b 05 e5 85 00 00 	mov    0x85e5(%rip),%rax        # 25188 <g_2421+0x8>
   1cba3:	8b 55 f4             	mov    -0xc(%rbp),%edx
   1cba6:	48 8d 35 a4 30 00 00 	lea    0x30a4(%rip),%rsi        # 1fc51 <g_3175+0x1aad>
   1cbad:	48 89 c7             	mov    %rax,%rdi
   1cbb0:	e8 3e eb fe ff       	callq  b6f3 <transparent_crc>
   1cbb5:	48 8b 05 d4 85 00 00 	mov    0x85d4(%rip),%rax        # 25190 <g_2421+0x10>
   1cbbc:	48 89 c1             	mov    %rax,%rcx
   1cbbf:	8b 45 f4             	mov    -0xc(%rbp),%eax
   1cbc2:	89 c2                	mov    %eax,%edx
   1cbc4:	48 8d 35 93 30 00 00 	lea    0x3093(%rip),%rsi        # 1fc5e <g_3175+0x1aba>
   1cbcb:	48 89 cf             	mov    %rcx,%rdi
   1cbce:	e8 20 eb fe ff       	callq  b6f3 <transparent_crc>
   1cbd3:	48 8b 05 be 85 00 00 	mov    0x85be(%rip),%rax        # 25198 <g_2438>
   1cbda:	48 89 c1             	mov    %rax,%rcx
   1cbdd:	8b 45 f4             	mov    -0xc(%rbp),%eax
   1cbe0:	89 c2                	mov    %eax,%edx
   1cbe2:	48 8d 35 82 30 00 00 	lea    0x3082(%rip),%rsi        # 1fc6b <g_3175+0x1ac7>
   1cbe9:	48 89 cf             	mov    %rcx,%rdi
   1cbec:	e8 02 eb fe ff       	callq  b6f3 <transparent_crc>
   1cbf1:	c7 45 e8 00 00 00 00 	movl   $0x0,-0x18(%rbp)
   1cbf8:	e9 c1 00 00 00       	jmpq   1ccbe <main+0x1be8>
   1cbfd:	8b 45 e8             	mov    -0x18(%rbp),%eax
   1cc00:	48 63 d0             	movslq %eax,%rdx
   1cc03:	48 89 d0             	mov    %rdx,%rax
   1cc06:	48 01 c0             	add    %rax,%rax
   1cc09:	48 01 d0             	add    %rdx,%rax
   1cc0c:	48 c1 e0 03          	shl    $0x3,%rax
   1cc10:	48 89 c2             	mov    %rax,%rdx
   1cc13:	48 8d 05 86 85 00 00 	lea    0x8586(%rip),%rax        # 251a0 <g_2461>
   1cc1a:	8b 04 02             	mov    (%rdx,%rax,1),%eax
   1cc1d:	89 c1                	mov    %eax,%ecx
   1cc1f:	8b 45 f4             	mov    -0xc(%rbp),%eax
   1cc22:	89 c2                	mov    %eax,%edx
   1cc24:	48 8d 35 47 30 00 00 	lea    0x3047(%rip),%rsi        # 1fc72 <g_3175+0x1ace>
   1cc2b:	48 89 cf             	mov    %rcx,%rdi
   1cc2e:	e8 c0 ea fe ff       	callq  b6f3 <transparent_crc>
   1cc33:	8b 45 e8             	mov    -0x18(%rbp),%eax
   1cc36:	48 63 d0             	movslq %eax,%rdx
   1cc39:	48 89 d0             	mov    %rdx,%rax
   1cc3c:	48 01 c0             	add    %rax,%rax
   1cc3f:	48 01 d0             	add    %rdx,%rax
   1cc42:	48 c1 e0 03          	shl    $0x3,%rax
   1cc46:	48 89 c2             	mov    %rax,%rdx
   1cc49:	48 8d 05 58 85 00 00 	lea    0x8558(%rip),%rax        # 251a8 <g_2461+0x8>
   1cc50:	48 8b 04 02          	mov    (%rdx,%rax,1),%rax
   1cc54:	8b 55 f4             	mov    -0xc(%rbp),%edx
   1cc57:	48 8d 35 21 30 00 00 	lea    0x3021(%rip),%rsi        # 1fc7f <g_3175+0x1adb>
   1cc5e:	48 89 c7             	mov    %rax,%rdi
   1cc61:	e8 8d ea fe ff       	callq  b6f3 <transparent_crc>
   1cc66:	8b 45 e8             	mov    -0x18(%rbp),%eax
   1cc69:	48 63 d0             	movslq %eax,%rdx
   1cc6c:	48 89 d0             	mov    %rdx,%rax
   1cc6f:	48 01 c0             	add    %rax,%rax
   1cc72:	48 01 d0             	add    %rdx,%rax
   1cc75:	48 c1 e0 03          	shl    $0x3,%rax
   1cc79:	48 89 c2             	mov    %rax,%rdx
   1cc7c:	48 8d 05 2d 85 00 00 	lea    0x852d(%rip),%rax        # 251b0 <g_2461+0x10>
   1cc83:	48 8b 04 02          	mov    (%rdx,%rax,1),%rax
   1cc87:	48 89 c1             	mov    %rax,%rcx
   1cc8a:	8b 45 f4             	mov    -0xc(%rbp),%eax
   1cc8d:	89 c2                	mov    %eax,%edx
   1cc8f:	48 8d 35 f6 2f 00 00 	lea    0x2ff6(%rip),%rsi        # 1fc8c <g_3175+0x1ae8>
   1cc96:	48 89 cf             	mov    %rcx,%rdi
   1cc99:	e8 55 ea fe ff       	callq  b6f3 <transparent_crc>
   1cc9e:	83 7d f4 00          	cmpl   $0x0,-0xc(%rbp)
   1cca2:	74 16                	je     1ccba <main+0x1be4>
   1cca4:	8b 45 e8             	mov    -0x18(%rbp),%eax
   1cca7:	89 c6                	mov    %eax,%esi
   1cca9:	48 8d 3d d1 28 00 00 	lea    0x28d1(%rip),%rdi        # 1f581 <g_3175+0x13dd>
   1ccb0:	b8 00 00 00 00       	mov    $0x0,%eax
   1ccb5:	e8 c6 d3 fe ff       	callq  a080 <printf@plt>
   1ccba:	83 45 e8 01          	addl   $0x1,-0x18(%rbp)
   1ccbe:	83 7d e8 04          	cmpl   $0x4,-0x18(%rbp)
   1ccc2:	0f 8e 35 ff ff ff    	jle    1cbfd <main+0x1b27>
   1ccc8:	c7 45 e8 00 00 00 00 	movl   $0x0,-0x18(%rbp)
   1cccf:	e9 2f 01 00 00       	jmpq   1ce03 <main+0x1d2d>
   1ccd4:	c7 45 ec 00 00 00 00 	movl   $0x0,-0x14(%rbp)
   1ccdb:	e9 15 01 00 00       	jmpq   1cdf5 <main+0x1d1f>
   1cce0:	8b 45 ec             	mov    -0x14(%rbp),%eax
   1cce3:	48 98                	cltq   
   1cce5:	8b 55 e8             	mov    -0x18(%rbp),%edx
   1cce8:	48 63 ca             	movslq %edx,%rcx
   1cceb:	48 89 c2             	mov    %rax,%rdx
   1ccee:	48 01 d2             	add    %rdx,%rdx
   1ccf1:	48 01 c2             	add    %rax,%rdx
   1ccf4:	48 8d 04 d5 00 00 00 	lea    0x0(,%rdx,8),%rax
   1ccfb:	00 
   1ccfc:	48 89 c2             	mov    %rax,%rdx
   1ccff:	48 89 c8             	mov    %rcx,%rax
   1cd02:	48 01 c0             	add    %rax,%rax
   1cd05:	48 01 c8             	add    %rcx,%rax
   1cd08:	48 c1 e0 04          	shl    $0x4,%rax
   1cd0c:	48 01 c2             	add    %rax,%rdx
   1cd0f:	48 8d 05 0a 85 00 00 	lea    0x850a(%rip),%rax        # 25220 <g_2542>
   1cd16:	48 01 d0             	add    %rdx,%rax
   1cd19:	8b 00                	mov    (%rax),%eax
   1cd1b:	89 c1                	mov    %eax,%ecx
   1cd1d:	8b 45 f4             	mov    -0xc(%rbp),%eax
   1cd20:	89 c2                	mov    %eax,%edx
   1cd22:	48 8d 35 70 2f 00 00 	lea    0x2f70(%rip),%rsi        # 1fc99 <g_3175+0x1af5>
   1cd29:	48 89 cf             	mov    %rcx,%rdi
   1cd2c:	e8 c2 e9 fe ff       	callq  b6f3 <transparent_crc>
   1cd31:	8b 45 ec             	mov    -0x14(%rbp),%eax
   1cd34:	48 98                	cltq   
   1cd36:	8b 55 e8             	mov    -0x18(%rbp),%edx
   1cd39:	48 63 ca             	movslq %edx,%rcx
   1cd3c:	48 89 c2             	mov    %rax,%rdx
   1cd3f:	48 01 d2             	add    %rdx,%rdx
   1cd42:	48 01 c2             	add    %rax,%rdx
   1cd45:	48 8d 04 d5 00 00 00 	lea    0x0(,%rdx,8),%rax
   1cd4c:	00 
   1cd4d:	48 89 c2             	mov    %rax,%rdx
   1cd50:	48 89 c8             	mov    %rcx,%rax
   1cd53:	48 01 c0             	add    %rax,%rax
   1cd56:	48 01 c8             	add    %rcx,%rax
   1cd59:	48 c1 e0 04          	shl    $0x4,%rax
   1cd5d:	48 01 c2             	add    %rax,%rdx
   1cd60:	48 8d 05 c1 84 00 00 	lea    0x84c1(%rip),%rax        # 25228 <g_2542+0x8>
   1cd67:	48 01 d0             	add    %rdx,%rax
   1cd6a:	48 8b 00             	mov    (%rax),%rax
   1cd6d:	8b 55 f4             	mov    -0xc(%rbp),%edx
   1cd70:	48 8d 35 35 2f 00 00 	lea    0x2f35(%rip),%rsi        # 1fcac <g_3175+0x1b08>
   1cd77:	48 89 c7             	mov    %rax,%rdi
   1cd7a:	e8 74 e9 fe ff       	callq  b6f3 <transparent_crc>
   1cd7f:	8b 45 ec             	mov    -0x14(%rbp),%eax
   1cd82:	48 98                	cltq   
   1cd84:	8b 55 e8             	mov    -0x18(%rbp),%edx
   1cd87:	48 63 ca             	movslq %edx,%rcx
   1cd8a:	48 89 c2             	mov    %rax,%rdx
   1cd8d:	48 01 d2             	add    %rdx,%rdx
   1cd90:	48 01 c2             	add    %rax,%rdx
   1cd93:	48 8d 04 d5 00 00 00 	lea    0x0(,%rdx,8),%rax
   1cd9a:	00 
   1cd9b:	48 89 c2             	mov    %rax,%rdx
   1cd9e:	48 89 c8             	mov    %rcx,%rax
   1cda1:	48 01 c0             	add    %rax,%rax
   1cda4:	48 01 c8             	add    %rcx,%rax
   1cda7:	48 c1 e0 04          	shl    $0x4,%rax
   1cdab:	48 01 c2             	add    %rax,%rdx
   1cdae:	48 8d 05 7b 84 00 00 	lea    0x847b(%rip),%rax        # 25230 <g_2542+0x10>
   1cdb5:	48 01 d0             	add    %rdx,%rax
   1cdb8:	48 8b 00             	mov    (%rax),%rax
   1cdbb:	48 89 c1             	mov    %rax,%rcx
   1cdbe:	8b 45 f4             	mov    -0xc(%rbp),%eax
   1cdc1:	89 c2                	mov    %eax,%edx
   1cdc3:	48 8d 35 f5 2e 00 00 	lea    0x2ef5(%rip),%rsi        # 1fcbf <g_3175+0x1b1b>
   1cdca:	48 89 cf             	mov    %rcx,%rdi
   1cdcd:	e8 21 e9 fe ff       	callq  b6f3 <transparent_crc>
   1cdd2:	83 7d f4 00          	cmpl   $0x0,-0xc(%rbp)
   1cdd6:	74 19                	je     1cdf1 <main+0x1d1b>
   1cdd8:	8b 55 ec             	mov    -0x14(%rbp),%edx
   1cddb:	8b 45 e8             	mov    -0x18(%rbp),%eax
   1cdde:	89 c6                	mov    %eax,%esi
   1cde0:	48 8d 3d fa 28 00 00 	lea    0x28fa(%rip),%rdi        # 1f6e1 <g_3175+0x153d>
   1cde7:	b8 00 00 00 00       	mov    $0x0,%eax
   1cdec:	e8 8f d2 fe ff       	callq  a080 <printf@plt>
   1cdf1:	83 45 ec 01          	addl   $0x1,-0x14(%rbp)
   1cdf5:	83 7d ec 01          	cmpl   $0x1,-0x14(%rbp)
   1cdf9:	0f 8e e1 fe ff ff    	jle    1cce0 <main+0x1c0a>
   1cdff:	83 45 e8 01          	addl   $0x1,-0x18(%rbp)
   1ce03:	83 7d e8 04          	cmpl   $0x4,-0x18(%rbp)
   1ce07:	0f 8e c7 fe ff ff    	jle    1ccd4 <main+0x1bfe>
   1ce0d:	8b 05 fd 84 00 00    	mov    0x84fd(%rip),%eax        # 25310 <g_2549>
   1ce13:	89 c1                	mov    %eax,%ecx
   1ce15:	8b 45 f4             	mov    -0xc(%rbp),%eax
   1ce18:	89 c2                	mov    %eax,%edx
   1ce1a:	48 8d 35 b1 2e 00 00 	lea    0x2eb1(%rip),%rsi        # 1fcd2 <g_3175+0x1b2e>
   1ce21:	48 89 cf             	mov    %rcx,%rdi
   1ce24:	e8 ca e8 fe ff       	callq  b6f3 <transparent_crc>
   1ce29:	48 8b 05 e8 84 00 00 	mov    0x84e8(%rip),%rax        # 25318 <g_2549+0x8>
   1ce30:	8b 55 f4             	mov    -0xc(%rbp),%edx
   1ce33:	48 8d 35 a5 2e 00 00 	lea    0x2ea5(%rip),%rsi        # 1fcdf <g_3175+0x1b3b>
   1ce3a:	48 89 c7             	mov    %rax,%rdi
   1ce3d:	e8 b1 e8 fe ff       	callq  b6f3 <transparent_crc>
   1ce42:	48 8b 05 d7 84 00 00 	mov    0x84d7(%rip),%rax        # 25320 <g_2549+0x10>
   1ce49:	48 89 c1             	mov    %rax,%rcx
   1ce4c:	8b 45 f4             	mov    -0xc(%rbp),%eax
   1ce4f:	89 c2                	mov    %eax,%edx
   1ce51:	48 8d 35 94 2e 00 00 	lea    0x2e94(%rip),%rsi        # 1fcec <g_3175+0x1b48>
   1ce58:	48 89 cf             	mov    %rcx,%rdi
   1ce5b:	e8 93 e8 fe ff       	callq  b6f3 <transparent_crc>
   1ce60:	8b 05 ca 84 00 00    	mov    0x84ca(%rip),%eax        # 25330 <g_2551>
   1ce66:	89 c1                	mov    %eax,%ecx
   1ce68:	8b 45 f4             	mov    -0xc(%rbp),%eax
   1ce6b:	89 c2                	mov    %eax,%edx
   1ce6d:	48 8d 35 85 2e 00 00 	lea    0x2e85(%rip),%rsi        # 1fcf9 <g_3175+0x1b55>
   1ce74:	48 89 cf             	mov    %rcx,%rdi
   1ce77:	e8 77 e8 fe ff       	callq  b6f3 <transparent_crc>
   1ce7c:	48 8b 05 b5 84 00 00 	mov    0x84b5(%rip),%rax        # 25338 <g_2551+0x8>
   1ce83:	8b 55 f4             	mov    -0xc(%rbp),%edx
   1ce86:	48 8d 35 79 2e 00 00 	lea    0x2e79(%rip),%rsi        # 1fd06 <g_3175+0x1b62>
   1ce8d:	48 89 c7             	mov    %rax,%rdi
   1ce90:	e8 5e e8 fe ff       	callq  b6f3 <transparent_crc>
   1ce95:	48 8b 05 a4 84 00 00 	mov    0x84a4(%rip),%rax        # 25340 <g_2551+0x10>
   1ce9c:	48 89 c1             	mov    %rax,%rcx
   1ce9f:	8b 45 f4             	mov    -0xc(%rbp),%eax
   1cea2:	89 c2                	mov    %eax,%edx
   1cea4:	48 8d 35 68 2e 00 00 	lea    0x2e68(%rip),%rsi        # 1fd13 <g_3175+0x1b6f>
   1ceab:	48 89 cf             	mov    %rcx,%rdi
   1ceae:	e8 40 e8 fe ff       	callq  b6f3 <transparent_crc>
   1ceb3:	8b 05 97 84 00 00    	mov    0x8497(%rip),%eax        # 25350 <g_2557>
   1ceb9:	89 c1                	mov    %eax,%ecx
   1cebb:	8b 45 f4             	mov    -0xc(%rbp),%eax
   1cebe:	89 c2                	mov    %eax,%edx
   1cec0:	48 8d 35 59 2e 00 00 	lea    0x2e59(%rip),%rsi        # 1fd20 <g_3175+0x1b7c>
   1cec7:	48 89 cf             	mov    %rcx,%rdi
   1ceca:	e8 24 e8 fe ff       	callq  b6f3 <transparent_crc>
   1cecf:	48 8b 05 82 84 00 00 	mov    0x8482(%rip),%rax        # 25358 <g_2557+0x8>
   1ced6:	8b 55 f4             	mov    -0xc(%rbp),%edx
   1ced9:	48 8d 35 4d 2e 00 00 	lea    0x2e4d(%rip),%rsi        # 1fd2d <g_3175+0x1b89>
   1cee0:	48 89 c7             	mov    %rax,%rdi
   1cee3:	e8 0b e8 fe ff       	callq  b6f3 <transparent_crc>
   1cee8:	48 8b 05 71 84 00 00 	mov    0x8471(%rip),%rax        # 25360 <g_2557+0x10>
   1ceef:	48 89 c1             	mov    %rax,%rcx
   1cef2:	8b 45 f4             	mov    -0xc(%rbp),%eax
   1cef5:	89 c2                	mov    %eax,%edx
   1cef7:	48 8d 35 3c 2e 00 00 	lea    0x2e3c(%rip),%rsi        # 1fd3a <g_3175+0x1b96>
   1cefe:	48 89 cf             	mov    %rcx,%rdi
   1cf01:	e8 ed e7 fe ff       	callq  b6f3 <transparent_crc>
   1cf06:	8b 05 88 d1 00 00    	mov    0xd188(%rip),%eax        # 2a094 <g_2604>
   1cf0c:	48 98                	cltq   
   1cf0e:	8b 55 f4             	mov    -0xc(%rbp),%edx
   1cf11:	48 8d 35 2f 2e 00 00 	lea    0x2e2f(%rip),%rsi        # 1fd47 <g_3175+0x1ba3>
   1cf18:	48 89 c7             	mov    %rax,%rdi
   1cf1b:	e8 d3 e7 fe ff       	callq  b6f3 <transparent_crc>
   1cf20:	b8 2a df dc e5       	mov    $0xe5dcdf2a,%eax
   1cf25:	89 c1                	mov    %eax,%ecx
   1cf27:	8b 45 f4             	mov    -0xc(%rbp),%eax
   1cf2a:	89 c2                	mov    %eax,%edx
   1cf2c:	48 8d 35 1b 2e 00 00 	lea    0x2e1b(%rip),%rsi        # 1fd4e <g_3175+0x1baa>
   1cf33:	48 89 cf             	mov    %rcx,%rdi
   1cf36:	e8 b8 e7 fe ff       	callq  b6f3 <transparent_crc>
   1cf3b:	c7 45 e8 00 00 00 00 	movl   $0x0,-0x18(%rbp)
   1cf42:	eb 6e                	jmp    1cfb2 <main+0x1edc>
   1cf44:	c7 45 ec 00 00 00 00 	movl   $0x0,-0x14(%rbp)
   1cf4b:	eb 5b                	jmp    1cfa8 <main+0x1ed2>
   1cf4d:	8b 45 ec             	mov    -0x14(%rbp),%eax
   1cf50:	48 98                	cltq   
   1cf52:	8b 55 e8             	mov    -0x18(%rbp),%edx
   1cf55:	48 63 d2             	movslq %edx,%rdx
   1cf58:	48 c1 e2 03          	shl    $0x3,%rdx
   1cf5c:	48 01 d0             	add    %rdx,%rax
   1cf5f:	48 8d 14 85 00 00 00 	lea    0x0(,%rax,4),%rdx
   1cf66:	00 
   1cf67:	48 8d 05 12 84 00 00 	lea    0x8412(%rip),%rax        # 25380 <g_2836>
   1cf6e:	8b 04 02             	mov    (%rdx,%rax,1),%eax
   1cf71:	48 98                	cltq   
   1cf73:	8b 55 f4             	mov    -0xc(%rbp),%edx
   1cf76:	48 8d 35 d8 2d 00 00 	lea    0x2dd8(%rip),%rsi        # 1fd55 <g_3175+0x1bb1>
   1cf7d:	48 89 c7             	mov    %rax,%rdi
   1cf80:	e8 6e e7 fe ff       	callq  b6f3 <transparent_crc>
   1cf85:	83 7d f4 00          	cmpl   $0x0,-0xc(%rbp)
   1cf89:	74 19                	je     1cfa4 <main+0x1ece>
   1cf8b:	8b 55 ec             	mov    -0x14(%rbp),%edx
   1cf8e:	8b 45 e8             	mov    -0x18(%rbp),%eax
   1cf91:	89 c6                	mov    %eax,%esi
   1cf93:	48 8d 3d 47 27 00 00 	lea    0x2747(%rip),%rdi        # 1f6e1 <g_3175+0x153d>
   1cf9a:	b8 00 00 00 00       	mov    $0x0,%eax
   1cf9f:	e8 dc d0 fe ff       	callq  a080 <printf@plt>
   1cfa4:	83 45 ec 01          	addl   $0x1,-0x14(%rbp)
   1cfa8:	83 7d ec 07          	cmpl   $0x7,-0x14(%rbp)
   1cfac:	7e 9f                	jle    1cf4d <main+0x1e77>
   1cfae:	83 45 e8 01          	addl   $0x1,-0x18(%rbp)
   1cfb2:	83 7d e8 03          	cmpl   $0x3,-0x18(%rbp)
   1cfb6:	7e 8c                	jle    1cf44 <main+0x1e6e>
   1cfb8:	0f b7 05 41 84 00 00 	movzwl 0x8441(%rip),%eax        # 25400 <g_2846>
   1cfbf:	0f b7 c0             	movzwl %ax,%eax
   1cfc2:	8b 55 f4             	mov    -0xc(%rbp),%edx
   1cfc5:	48 8d 35 96 2d 00 00 	lea    0x2d96(%rip),%rsi        # 1fd62 <g_3175+0x1bbe>
   1cfcc:	48 89 c7             	mov    %rax,%rdi
   1cfcf:	e8 1f e7 fe ff       	callq  b6f3 <transparent_crc>
   1cfd4:	8b 05 2a 84 00 00    	mov    0x842a(%rip),%eax        # 25404 <g_2880>
   1cfda:	48 98                	cltq   
   1cfdc:	8b 55 f4             	mov    -0xc(%rbp),%edx
   1cfdf:	48 8d 35 83 2d 00 00 	lea    0x2d83(%rip),%rsi        # 1fd69 <g_3175+0x1bc5>
   1cfe6:	48 89 c7             	mov    %rax,%rdi
   1cfe9:	e8 05 e7 fe ff       	callq  b6f3 <transparent_crc>
   1cfee:	8b 05 14 84 00 00    	mov    0x8414(%rip),%eax        # 25408 <g_2915>
   1cff4:	48 98                	cltq   
   1cff6:	8b 55 f4             	mov    -0xc(%rbp),%edx
   1cff9:	48 8d 35 70 2d 00 00 	lea    0x2d70(%rip),%rsi        # 1fd70 <g_3175+0x1bcc>
   1d000:	48 89 c7             	mov    %rax,%rdi
   1d003:	e8 eb e6 fe ff       	callq  b6f3 <transparent_crc>
   1d008:	c7 45 e8 00 00 00 00 	movl   $0x0,-0x18(%rbp)
   1d00f:	e9 c1 00 00 00       	jmpq   1d0d5 <main+0x1fff>
   1d014:	8b 45 e8             	mov    -0x18(%rbp),%eax
   1d017:	48 63 d0             	movslq %eax,%rdx
   1d01a:	48 89 d0             	mov    %rdx,%rax
   1d01d:	48 01 c0             	add    %rax,%rax
   1d020:	48 01 d0             	add    %rdx,%rax
   1d023:	48 c1 e0 03          	shl    $0x3,%rax
   1d027:	48 89 c2             	mov    %rax,%rdx
   1d02a:	48 8d 05 ef 83 00 00 	lea    0x83ef(%rip),%rax        # 25420 <g_2965>
   1d031:	8b 04 02             	mov    (%rdx,%rax,1),%eax
   1d034:	89 c1                	mov    %eax,%ecx
   1d036:	8b 45 f4             	mov    -0xc(%rbp),%eax
   1d039:	89 c2                	mov    %eax,%edx
   1d03b:	48 8d 35 35 2d 00 00 	lea    0x2d35(%rip),%rsi        # 1fd77 <g_3175+0x1bd3>
   1d042:	48 89 cf             	mov    %rcx,%rdi
   1d045:	e8 a9 e6 fe ff       	callq  b6f3 <transparent_crc>
   1d04a:	8b 45 e8             	mov    -0x18(%rbp),%eax
   1d04d:	48 63 d0             	movslq %eax,%rdx
   1d050:	48 89 d0             	mov    %rdx,%rax
   1d053:	48 01 c0             	add    %rax,%rax
   1d056:	48 01 d0             	add    %rdx,%rax
   1d059:	48 c1 e0 03          	shl    $0x3,%rax
   1d05d:	48 89 c2             	mov    %rax,%rdx
   1d060:	48 8d 05 c1 83 00 00 	lea    0x83c1(%rip),%rax        # 25428 <g_2965+0x8>
   1d067:	48 8b 04 02          	mov    (%rdx,%rax,1),%rax
   1d06b:	8b 55 f4             	mov    -0xc(%rbp),%edx
   1d06e:	48 8d 35 12 2d 00 00 	lea    0x2d12(%rip),%rsi        # 1fd87 <g_3175+0x1be3>
   1d075:	48 89 c7             	mov    %rax,%rdi
   1d078:	e8 76 e6 fe ff       	callq  b6f3 <transparent_crc>
   1d07d:	8b 45 e8             	mov    -0x18(%rbp),%eax
   1d080:	48 63 d0             	movslq %eax,%rdx
   1d083:	48 89 d0             	mov    %rdx,%rax
   1d086:	48 01 c0             	add    %rax,%rax
   1d089:	48 01 d0             	add    %rdx,%rax
   1d08c:	48 c1 e0 03          	shl    $0x3,%rax
   1d090:	48 89 c2             	mov    %rax,%rdx
   1d093:	48 8d 05 96 83 00 00 	lea    0x8396(%rip),%rax        # 25430 <g_2965+0x10>
   1d09a:	48 8b 04 02          	mov    (%rdx,%rax,1),%rax
   1d09e:	48 89 c1             	mov    %rax,%rcx
   1d0a1:	8b 45 f4             	mov    -0xc(%rbp),%eax
   1d0a4:	89 c2                	mov    %eax,%edx
   1d0a6:	48 8d 35 ea 2c 00 00 	lea    0x2cea(%rip),%rsi        # 1fd97 <g_3175+0x1bf3>
   1d0ad:	48 89 cf             	mov    %rcx,%rdi
   1d0b0:	e8 3e e6 fe ff       	callq  b6f3 <transparent_crc>
   1d0b5:	83 7d f4 00          	cmpl   $0x0,-0xc(%rbp)
   1d0b9:	74 16                	je     1d0d1 <main+0x1ffb>
   1d0bb:	8b 45 e8             	mov    -0x18(%rbp),%eax
   1d0be:	89 c6                	mov    %eax,%esi
   1d0c0:	48 8d 3d ba 24 00 00 	lea    0x24ba(%rip),%rdi        # 1f581 <g_3175+0x13dd>
   1d0c7:	b8 00 00 00 00       	mov    $0x0,%eax
   1d0cc:	e8 af cf fe ff       	callq  a080 <printf@plt>
   1d0d1:	83 45 e8 01          	addl   $0x1,-0x18(%rbp)
   1d0d5:	83 7d e8 02          	cmpl   $0x2,-0x18(%rbp)
   1d0d9:	0f 8e 35 ff ff ff    	jle    1d014 <main+0x1f3e>
   1d0df:	0f b7 05 82 83 00 00 	movzwl 0x8382(%rip),%eax        # 25468 <g_3005>
   1d0e6:	48 0f bf c0          	movswq %ax,%rax
   1d0ea:	8b 55 f4             	mov    -0xc(%rbp),%edx
   1d0ed:	48 8d 35 b3 2c 00 00 	lea    0x2cb3(%rip),%rsi        # 1fda7 <g_3175+0x1c03>
   1d0f4:	48 89 c7             	mov    %rax,%rdi
   1d0f7:	e8 f7 e5 fe ff       	callq  b6f3 <transparent_crc>
   1d0fc:	8b 05 6e 83 00 00    	mov    0x836e(%rip),%eax        # 25470 <g_3045>
   1d102:	89 c1                	mov    %eax,%ecx
   1d104:	8b 45 f4             	mov    -0xc(%rbp),%eax
   1d107:	89 c2                	mov    %eax,%edx
   1d109:	48 8d 35 9e 2c 00 00 	lea    0x2c9e(%rip),%rsi        # 1fdae <g_3175+0x1c0a>
   1d110:	48 89 cf             	mov    %rcx,%rdi
   1d113:	e8 db e5 fe ff       	callq  b6f3 <transparent_crc>
   1d118:	48 8b 05 59 83 00 00 	mov    0x8359(%rip),%rax        # 25478 <g_3045+0x8>
   1d11f:	8b 55 f4             	mov    -0xc(%rbp),%edx
   1d122:	48 8d 35 8f 2c 00 00 	lea    0x2c8f(%rip),%rsi        # 1fdb8 <g_3175+0x1c14>
   1d129:	48 89 c7             	mov    %rax,%rdi
   1d12c:	e8 c2 e5 fe ff       	callq  b6f3 <transparent_crc>
   1d131:	48 8b 05 48 83 00 00 	mov    0x8348(%rip),%rax        # 25480 <g_3045+0x10>
   1d138:	48 89 c1             	mov    %rax,%rcx
   1d13b:	8b 45 f4             	mov    -0xc(%rbp),%eax
   1d13e:	89 c2                	mov    %eax,%edx
   1d140:	48 8d 35 7b 2c 00 00 	lea    0x2c7b(%rip),%rsi        # 1fdc2 <g_3175+0x1c1e>
   1d147:	48 89 cf             	mov    %rcx,%rdi
   1d14a:	e8 a4 e5 fe ff       	callq  b6f3 <transparent_crc>
   1d14f:	8b 05 3b 83 00 00    	mov    0x833b(%rip),%eax        # 25490 <g_3167>
   1d155:	89 c1                	mov    %eax,%ecx
   1d157:	8b 45 f4             	mov    -0xc(%rbp),%eax
   1d15a:	89 c2                	mov    %eax,%edx
   1d15c:	48 8d 35 69 2c 00 00 	lea    0x2c69(%rip),%rsi        # 1fdcc <g_3175+0x1c28>
   1d163:	48 89 cf             	mov    %rcx,%rdi
   1d166:	e8 88 e5 fe ff       	callq  b6f3 <transparent_crc>
   1d16b:	48 8b 05 26 83 00 00 	mov    0x8326(%rip),%rax        # 25498 <g_3167+0x8>
   1d172:	8b 55 f4             	mov    -0xc(%rbp),%edx
   1d175:	48 8d 35 5a 2c 00 00 	lea    0x2c5a(%rip),%rsi        # 1fdd6 <g_3175+0x1c32>
   1d17c:	48 89 c7             	mov    %rax,%rdi
   1d17f:	e8 6f e5 fe ff       	callq  b6f3 <transparent_crc>
   1d184:	48 8b 05 15 83 00 00 	mov    0x8315(%rip),%rax        # 254a0 <g_3167+0x10>
   1d18b:	48 89 c1             	mov    %rax,%rcx
   1d18e:	8b 45 f4             	mov    -0xc(%rbp),%eax
   1d191:	89 c2                	mov    %eax,%edx
   1d193:	48 8d 35 46 2c 00 00 	lea    0x2c46(%rip),%rsi        # 1fde0 <g_3175+0x1c3c>
   1d19a:	48 89 cf             	mov    %rcx,%rdi
   1d19d:	e8 51 e5 fe ff       	callq  b6f3 <transparent_crc>
   1d1a2:	8b 05 08 83 00 00    	mov    0x8308(%rip),%eax        # 254b0 <g_3169>
   1d1a8:	89 c1                	mov    %eax,%ecx
   1d1aa:	8b 45 f4             	mov    -0xc(%rbp),%eax
   1d1ad:	89 c2                	mov    %eax,%edx
   1d1af:	48 8d 35 34 2c 00 00 	lea    0x2c34(%rip),%rsi        # 1fdea <g_3175+0x1c46>
   1d1b6:	48 89 cf             	mov    %rcx,%rdi
   1d1b9:	e8 35 e5 fe ff       	callq  b6f3 <transparent_crc>
   1d1be:	48 8b 05 f3 82 00 00 	mov    0x82f3(%rip),%rax        # 254b8 <g_3169+0x8>
   1d1c5:	8b 55 f4             	mov    -0xc(%rbp),%edx
   1d1c8:	48 8d 35 25 2c 00 00 	lea    0x2c25(%rip),%rsi        # 1fdf4 <g_3175+0x1c50>
   1d1cf:	48 89 c7             	mov    %rax,%rdi
   1d1d2:	e8 1c e5 fe ff       	callq  b6f3 <transparent_crc>
   1d1d7:	48 8b 05 e2 82 00 00 	mov    0x82e2(%rip),%rax        # 254c0 <g_3169+0x10>
   1d1de:	48 89 c1             	mov    %rax,%rcx
   1d1e1:	8b 45 f4             	mov    -0xc(%rbp),%eax
   1d1e4:	89 c2                	mov    %eax,%edx
   1d1e6:	48 8d 35 11 2c 00 00 	lea    0x2c11(%rip),%rsi        # 1fdfe <g_3175+0x1c5a>
   1d1ed:	48 89 cf             	mov    %rcx,%rdi
   1d1f0:	e8 fe e4 fe ff       	callq  b6f3 <transparent_crc>
   1d1f5:	b8 05 00 00 00       	mov    $0x5,%eax
   1d1fa:	48 98                	cltq   
   1d1fc:	8b 55 f4             	mov    -0xc(%rbp),%edx
   1d1ff:	48 8d 35 02 2c 00 00 	lea    0x2c02(%rip),%rsi        # 1fe08 <g_3175+0x1c64>
   1d206:	48 89 c7             	mov    %rax,%rdi
   1d209:	e8 e5 e4 fe ff       	callq  b6f3 <transparent_crc>
   1d20e:	0f b7 05 b3 82 00 00 	movzwl 0x82b3(%rip),%eax        # 254c8 <g_3224>
   1d215:	48 0f bf c0          	movswq %ax,%rax
   1d219:	8b 55 f4             	mov    -0xc(%rbp),%edx
   1d21c:	48 8d 35 ec 2b 00 00 	lea    0x2bec(%rip),%rsi        # 1fe0f <g_3175+0x1c6b>
   1d223:	48 89 c7             	mov    %rax,%rdi
   1d226:	e8 c8 e4 fe ff       	callq  b6f3 <transparent_crc>
   1d22b:	c7 45 e8 00 00 00 00 	movl   $0x0,-0x18(%rbp)
   1d232:	e9 f6 00 00 00       	jmpq   1d32d <main+0x2257>
   1d237:	c7 45 ec 00 00 00 00 	movl   $0x0,-0x14(%rbp)
   1d23e:	e9 dc 00 00 00       	jmpq   1d31f <main+0x2249>
   1d243:	8b 45 ec             	mov    -0x14(%rbp),%eax
   1d246:	48 63 d0             	movslq %eax,%rdx
   1d249:	8b 45 e8             	mov    -0x18(%rbp),%eax
   1d24c:	48 98                	cltq   
   1d24e:	48 01 c2             	add    %rax,%rdx
   1d251:	48 89 d0             	mov    %rdx,%rax
   1d254:	48 01 c0             	add    %rax,%rax
   1d257:	48 01 d0             	add    %rdx,%rax
   1d25a:	48 c1 e0 03          	shl    $0x3,%rax
   1d25e:	48 89 c2             	mov    %rax,%rdx
   1d261:	48 8d 05 78 82 00 00 	lea    0x8278(%rip),%rax        # 254e0 <g_3246>
   1d268:	8b 04 02             	mov    (%rdx,%rax,1),%eax
   1d26b:	89 c1                	mov    %eax,%ecx
   1d26d:	8b 45 f4             	mov    -0xc(%rbp),%eax
   1d270:	89 c2                	mov    %eax,%edx
   1d272:	48 8d 35 9d 2b 00 00 	lea    0x2b9d(%rip),%rsi        # 1fe16 <g_3175+0x1c72>
   1d279:	48 89 cf             	mov    %rcx,%rdi
   1d27c:	e8 72 e4 fe ff       	callq  b6f3 <transparent_crc>
   1d281:	8b 45 ec             	mov    -0x14(%rbp),%eax
   1d284:	48 63 d0             	movslq %eax,%rdx
   1d287:	8b 45 e8             	mov    -0x18(%rbp),%eax
   1d28a:	48 98                	cltq   
   1d28c:	48 01 c2             	add    %rax,%rdx
   1d28f:	48 89 d0             	mov    %rdx,%rax
   1d292:	48 01 c0             	add    %rax,%rax
   1d295:	48 01 d0             	add    %rdx,%rax
   1d298:	48 c1 e0 03          	shl    $0x3,%rax
   1d29c:	48 89 c2             	mov    %rax,%rdx
   1d29f:	48 8d 05 42 82 00 00 	lea    0x8242(%rip),%rax        # 254e8 <g_3246+0x8>
   1d2a6:	48 8b 04 02          	mov    (%rdx,%rax,1),%rax
   1d2aa:	8b 55 f4             	mov    -0xc(%rbp),%edx
   1d2ad:	48 8d 35 72 2b 00 00 	lea    0x2b72(%rip),%rsi        # 1fe26 <g_3175+0x1c82>
   1d2b4:	48 89 c7             	mov    %rax,%rdi
   1d2b7:	e8 37 e4 fe ff       	callq  b6f3 <transparent_crc>
   1d2bc:	8b 45 ec             	mov    -0x14(%rbp),%eax
   1d2bf:	48 63 d0             	movslq %eax,%rdx
   1d2c2:	8b 45 e8             	mov    -0x18(%rbp),%eax
   1d2c5:	48 98                	cltq   
   1d2c7:	48 01 c2             	add    %rax,%rdx
   1d2ca:	48 89 d0             	mov    %rdx,%rax
   1d2cd:	48 01 c0             	add    %rax,%rax
   1d2d0:	48 01 d0             	add    %rdx,%rax
   1d2d3:	48 c1 e0 03          	shl    $0x3,%rax
   1d2d7:	48 89 c2             	mov    %rax,%rdx
   1d2da:	48 8d 05 0f 82 00 00 	lea    0x820f(%rip),%rax        # 254f0 <g_3246+0x10>
   1d2e1:	48 8b 04 02          	mov    (%rdx,%rax,1),%rax
   1d2e5:	48 89 c1             	mov    %rax,%rcx
   1d2e8:	8b 45 f4             	mov    -0xc(%rbp),%eax
   1d2eb:	89 c2                	mov    %eax,%edx
   1d2ed:	48 8d 35 42 2b 00 00 	lea    0x2b42(%rip),%rsi        # 1fe36 <g_3175+0x1c92>
   1d2f4:	48 89 cf             	mov    %rcx,%rdi
   1d2f7:	e8 f7 e3 fe ff       	callq  b6f3 <transparent_crc>
   1d2fc:	83 7d f4 00          	cmpl   $0x0,-0xc(%rbp)
   1d300:	74 19                	je     1d31b <main+0x2245>
   1d302:	8b 55 ec             	mov    -0x14(%rbp),%edx
   1d305:	8b 45 e8             	mov    -0x18(%rbp),%eax
   1d308:	89 c6                	mov    %eax,%esi
   1d30a:	48 8d 3d d0 23 00 00 	lea    0x23d0(%rip),%rdi        # 1f6e1 <g_3175+0x153d>
   1d311:	b8 00 00 00 00       	mov    $0x0,%eax
   1d316:	e8 65 cd fe ff       	callq  a080 <printf@plt>
   1d31b:	83 45 ec 01          	addl   $0x1,-0x14(%rbp)
   1d31f:	83 7d ec 00          	cmpl   $0x0,-0x14(%rbp)
   1d323:	0f 8e 1a ff ff ff    	jle    1d243 <main+0x216d>
   1d329:	83 45 e8 01          	addl   $0x1,-0x18(%rbp)
   1d32d:	83 7d e8 04          	cmpl   $0x4,-0x18(%rbp)
   1d331:	0f 8e 00 ff ff ff    	jle    1d237 <main+0x2161>
   1d337:	8b 05 23 82 00 00    	mov    0x8223(%rip),%eax        # 25560 <g_3287>
   1d33d:	89 c1                	mov    %eax,%ecx
   1d33f:	8b 45 f4             	mov    -0xc(%rbp),%eax
   1d342:	89 c2                	mov    %eax,%edx
   1d344:	48 8d 35 fb 2a 00 00 	lea    0x2afb(%rip),%rsi        # 1fe46 <g_3175+0x1ca2>
   1d34b:	48 89 cf             	mov    %rcx,%rdi
   1d34e:	e8 a0 e3 fe ff       	callq  b6f3 <transparent_crc>
   1d353:	48 8b 05 0e 82 00 00 	mov    0x820e(%rip),%rax        # 25568 <g_3287+0x8>
   1d35a:	8b 55 f4             	mov    -0xc(%rbp),%edx
   1d35d:	48 8d 35 ef 2a 00 00 	lea    0x2aef(%rip),%rsi        # 1fe53 <g_3175+0x1caf>
   1d364:	48 89 c7             	mov    %rax,%rdi
   1d367:	e8 87 e3 fe ff       	callq  b6f3 <transparent_crc>
   1d36c:	48 8b 05 fd 81 00 00 	mov    0x81fd(%rip),%rax        # 25570 <g_3287+0x10>
   1d373:	48 89 c1             	mov    %rax,%rcx
   1d376:	8b 45 f4             	mov    -0xc(%rbp),%eax
   1d379:	89 c2                	mov    %eax,%edx
   1d37b:	48 8d 35 de 2a 00 00 	lea    0x2ade(%rip),%rsi        # 1fe60 <g_3175+0x1cbc>
   1d382:	48 89 cf             	mov    %rcx,%rdi
   1d385:	e8 69 e3 fe ff       	callq  b6f3 <transparent_crc>
   1d38a:	8b 05 f0 81 00 00    	mov    0x81f0(%rip),%eax        # 25580 <g_3347>
   1d390:	89 c1                	mov    %eax,%ecx
   1d392:	8b 45 f4             	mov    -0xc(%rbp),%eax
   1d395:	89 c2                	mov    %eax,%edx
   1d397:	48 8d 35 cf 2a 00 00 	lea    0x2acf(%rip),%rsi        # 1fe6d <g_3175+0x1cc9>
   1d39e:	48 89 cf             	mov    %rcx,%rdi
   1d3a1:	e8 4d e3 fe ff       	callq  b6f3 <transparent_crc>
   1d3a6:	48 8b 05 db 81 00 00 	mov    0x81db(%rip),%rax        # 25588 <g_3347+0x8>
   1d3ad:	8b 55 f4             	mov    -0xc(%rbp),%edx
   1d3b0:	48 8d 35 c0 2a 00 00 	lea    0x2ac0(%rip),%rsi        # 1fe77 <g_3175+0x1cd3>
   1d3b7:	48 89 c7             	mov    %rax,%rdi
   1d3ba:	e8 34 e3 fe ff       	callq  b6f3 <transparent_crc>
   1d3bf:	48 8b 05 ca 81 00 00 	mov    0x81ca(%rip),%rax        # 25590 <g_3347+0x10>
   1d3c6:	48 89 c1             	mov    %rax,%rcx
   1d3c9:	8b 45 f4             	mov    -0xc(%rbp),%eax
   1d3cc:	89 c2                	mov    %eax,%edx
   1d3ce:	48 8d 35 ac 2a 00 00 	lea    0x2aac(%rip),%rsi        # 1fe81 <g_3175+0x1cdd>
   1d3d5:	48 89 cf             	mov    %rcx,%rdi
   1d3d8:	e8 16 e3 fe ff       	callq  b6f3 <transparent_crc>
   1d3dd:	8b 05 b5 81 00 00    	mov    0x81b5(%rip),%eax        # 25598 <g_3389>
   1d3e3:	48 98                	cltq   
   1d3e5:	8b 55 f4             	mov    -0xc(%rbp),%edx
   1d3e8:	48 8d 35 9c 2a 00 00 	lea    0x2a9c(%rip),%rsi        # 1fe8b <g_3175+0x1ce7>
   1d3ef:	48 89 c7             	mov    %rax,%rdi
   1d3f2:	e8 fc e2 fe ff       	callq  b6f3 <transparent_crc>
   1d3f7:	8b 05 9f 81 00 00    	mov    0x819f(%rip),%eax        # 2559c <g_3390>
   1d3fd:	89 c1                	mov    %eax,%ecx
   1d3ff:	8b 45 f4             	mov    -0xc(%rbp),%eax
   1d402:	89 c2                	mov    %eax,%edx
   1d404:	48 8d 35 87 2a 00 00 	lea    0x2a87(%rip),%rsi        # 1fe92 <g_3175+0x1cee>
   1d40b:	48 89 cf             	mov    %rcx,%rdi
   1d40e:	e8 e0 e2 fe ff       	callq  b6f3 <transparent_crc>
   1d413:	c7 45 e8 00 00 00 00 	movl   $0x0,-0x18(%rbp)
   1d41a:	e9 be 01 00 00       	jmpq   1d5dd <main+0x2507>
   1d41f:	c7 45 ec 00 00 00 00 	movl   $0x0,-0x14(%rbp)
   1d426:	e9 a4 01 00 00       	jmpq   1d5cf <main+0x24f9>
   1d42b:	c7 45 f0 00 00 00 00 	movl   $0x0,-0x10(%rbp)
   1d432:	e9 8a 01 00 00       	jmpq   1d5c1 <main+0x24eb>
   1d437:	8b 45 f0             	mov    -0x10(%rbp),%eax
   1d43a:	48 98                	cltq   
   1d43c:	8b 55 ec             	mov    -0x14(%rbp),%edx
   1d43f:	48 63 f2             	movslq %edx,%rsi
   1d442:	8b 55 e8             	mov    -0x18(%rbp),%edx
   1d445:	48 63 ca             	movslq %edx,%rcx
   1d448:	48 89 c2             	mov    %rax,%rdx
   1d44b:	48 01 d2             	add    %rdx,%rdx
   1d44e:	48 01 c2             	add    %rax,%rdx
   1d451:	48 8d 04 d5 00 00 00 	lea    0x0(,%rdx,8),%rax
   1d458:	00 
   1d459:	48 89 c2             	mov    %rax,%rdx
   1d45c:	48 89 f0             	mov    %rsi,%rax
   1d45f:	48 c1 e0 02          	shl    $0x2,%rax
   1d463:	48 01 f0             	add    %rsi,%rax
   1d466:	48 c1 e0 02          	shl    $0x2,%rax
   1d46a:	48 01 f0             	add    %rsi,%rax
   1d46d:	48 c1 e0 03          	shl    $0x3,%rax
   1d471:	48 01 c2             	add    %rax,%rdx
   1d474:	48 89 c8             	mov    %rcx,%rax
   1d477:	48 c1 e0 02          	shl    $0x2,%rax
   1d47b:	48 01 c8             	add    %rcx,%rax
   1d47e:	48 c1 e0 02          	shl    $0x2,%rax
   1d482:	48 01 c8             	add    %rcx,%rax
   1d485:	48 c1 e0 05          	shl    $0x5,%rax
   1d489:	48 01 c2             	add    %rax,%rdx
   1d48c:	48 8d 05 0d 81 00 00 	lea    0x810d(%rip),%rax        # 255a0 <g_3393>
   1d493:	48 01 d0             	add    %rdx,%rax
   1d496:	8b 00                	mov    (%rax),%eax
   1d498:	89 c1                	mov    %eax,%ecx
   1d49a:	8b 45 f4             	mov    -0xc(%rbp),%eax
   1d49d:	89 c2                	mov    %eax,%edx
   1d49f:	48 8d 35 f3 29 00 00 	lea    0x29f3(%rip),%rsi        # 1fe99 <g_3175+0x1cf5>
   1d4a6:	48 89 cf             	mov    %rcx,%rdi
   1d4a9:	e8 45 e2 fe ff       	callq  b6f3 <transparent_crc>
   1d4ae:	8b 45 f0             	mov    -0x10(%rbp),%eax
   1d4b1:	48 98                	cltq   
   1d4b3:	8b 55 ec             	mov    -0x14(%rbp),%edx
   1d4b6:	48 63 f2             	movslq %edx,%rsi
   1d4b9:	8b 55 e8             	mov    -0x18(%rbp),%edx
   1d4bc:	48 63 ca             	movslq %edx,%rcx
   1d4bf:	48 89 c2             	mov    %rax,%rdx
   1d4c2:	48 01 d2             	add    %rdx,%rdx
   1d4c5:	48 01 c2             	add    %rax,%rdx
   1d4c8:	48 8d 04 d5 00 00 00 	lea    0x0(,%rdx,8),%rax
   1d4cf:	00 
   1d4d0:	48 89 c2             	mov    %rax,%rdx
   1d4d3:	48 89 f0             	mov    %rsi,%rax
   1d4d6:	48 c1 e0 02          	shl    $0x2,%rax
   1d4da:	48 01 f0             	add    %rsi,%rax
   1d4dd:	48 c1 e0 02          	shl    $0x2,%rax
   1d4e1:	48 01 f0             	add    %rsi,%rax
   1d4e4:	48 c1 e0 03          	shl    $0x3,%rax
   1d4e8:	48 01 c2             	add    %rax,%rdx
   1d4eb:	48 89 c8             	mov    %rcx,%rax
   1d4ee:	48 c1 e0 02          	shl    $0x2,%rax
   1d4f2:	48 01 c8             	add    %rcx,%rax
   1d4f5:	48 c1 e0 02          	shl    $0x2,%rax
   1d4f9:	48 01 c8             	add    %rcx,%rax
   1d4fc:	48 c1 e0 05          	shl    $0x5,%rax
   1d500:	48 01 c2             	add    %rax,%rdx
   1d503:	48 8d 05 9e 80 00 00 	lea    0x809e(%rip),%rax        # 255a8 <g_3393+0x8>
   1d50a:	48 01 d0             	add    %rdx,%rax
   1d50d:	48 8b 00             	mov    (%rax),%rax
   1d510:	8b 55 f4             	mov    -0xc(%rbp),%edx
   1d513:	48 8d 35 95 29 00 00 	lea    0x2995(%rip),%rsi        # 1feaf <g_3175+0x1d0b>
   1d51a:	48 89 c7             	mov    %rax,%rdi
   1d51d:	e8 d1 e1 fe ff       	callq  b6f3 <transparent_crc>
   1d522:	8b 45 f0             	mov    -0x10(%rbp),%eax
   1d525:	48 98                	cltq   
   1d527:	8b 55 ec             	mov    -0x14(%rbp),%edx
   1d52a:	48 63 ca             	movslq %edx,%rcx
   1d52d:	8b 55 e8             	mov    -0x18(%rbp),%edx
   1d530:	48 63 f2             	movslq %edx,%rsi
   1d533:	48 89 c2             	mov    %rax,%rdx
   1d536:	48 01 d2             	add    %rdx,%rdx
   1d539:	48 01 c2             	add    %rax,%rdx
   1d53c:	48 8d 04 d5 00 00 00 	lea    0x0(,%rdx,8),%rax
   1d543:	00 
   1d544:	48 89 c2             	mov    %rax,%rdx
   1d547:	48 89 f0             	mov    %rsi,%rax
   1d54a:	48 c1 e0 02          	shl    $0x2,%rax
   1d54e:	48 01 f0             	add    %rsi,%rax
   1d551:	48 c1 e0 02          	shl    $0x2,%rax
   1d555:	48 01 f0             	add    %rsi,%rax
   1d558:	48 c1 e0 05          	shl    $0x5,%rax
   1d55c:	48 01 c2             	add    %rax,%rdx
   1d55f:	48 89 c8             	mov    %rcx,%rax
   1d562:	48 c1 e0 02          	shl    $0x2,%rax
   1d566:	48 01 c8             	add    %rcx,%rax
   1d569:	48 c1 e0 02          	shl    $0x2,%rax
   1d56d:	48 01 c8             	add    %rcx,%rax
   1d570:	48 c1 e0 03          	shl    $0x3,%rax
   1d574:	48 01 c2             	add    %rax,%rdx
   1d577:	48 8d 05 32 80 00 00 	lea    0x8032(%rip),%rax        # 255b0 <g_3393+0x10>
   1d57e:	48 01 d0             	add    %rdx,%rax
   1d581:	48 8b 00             	mov    (%rax),%rax
   1d584:	48 89 c1             	mov    %rax,%rcx
   1d587:	8b 45 f4             	mov    -0xc(%rbp),%eax
   1d58a:	89 c2                	mov    %eax,%edx
   1d58c:	48 8d 35 32 29 00 00 	lea    0x2932(%rip),%rsi        # 1fec5 <g_3175+0x1d21>
   1d593:	48 89 cf             	mov    %rcx,%rdi
   1d596:	e8 58 e1 fe ff       	callq  b6f3 <transparent_crc>
   1d59b:	83 7d f4 00          	cmpl   $0x0,-0xc(%rbp)
   1d59f:	74 1c                	je     1d5bd <main+0x24e7>
   1d5a1:	8b 4d f0             	mov    -0x10(%rbp),%ecx
   1d5a4:	8b 55 ec             	mov    -0x14(%rbp),%edx
   1d5a7:	8b 45 e8             	mov    -0x18(%rbp),%eax
   1d5aa:	89 c6                	mov    %eax,%esi
   1d5ac:	48 8d 3d 0f 22 00 00 	lea    0x220f(%rip),%rdi        # 1f7c2 <g_3175+0x161e>
   1d5b3:	b8 00 00 00 00       	mov    $0x0,%eax
   1d5b8:	e8 c3 ca fe ff       	callq  a080 <printf@plt>
   1d5bd:	83 45 f0 01          	addl   $0x1,-0x10(%rbp)
   1d5c1:	83 7d f0 06          	cmpl   $0x6,-0x10(%rbp)
   1d5c5:	0f 8e 6c fe ff ff    	jle    1d437 <main+0x2361>
   1d5cb:	83 45 ec 01          	addl   $0x1,-0x14(%rbp)
   1d5cf:	83 7d ec 03          	cmpl   $0x3,-0x14(%rbp)
   1d5d3:	0f 8e 52 fe ff ff    	jle    1d42b <main+0x2355>
   1d5d9:	83 45 e8 01          	addl   $0x1,-0x18(%rbp)
   1d5dd:	83 7d e8 07          	cmpl   $0x7,-0x18(%rbp)
   1d5e1:	0f 8e 38 fe ff ff    	jle    1d41f <main+0x2349>
   1d5e7:	8b 05 b3 94 00 00    	mov    0x94b3(%rip),%eax        # 26aa0 <g_3394>
   1d5ed:	89 c1                	mov    %eax,%ecx
   1d5ef:	8b 45 f4             	mov    -0xc(%rbp),%eax
   1d5f2:	89 c2                	mov    %eax,%edx
   1d5f4:	48 8d 35 e0 28 00 00 	lea    0x28e0(%rip),%rsi        # 1fedb <g_3175+0x1d37>
   1d5fb:	48 89 cf             	mov    %rcx,%rdi
   1d5fe:	e8 f0 e0 fe ff       	callq  b6f3 <transparent_crc>
   1d603:	48 8b 05 9e 94 00 00 	mov    0x949e(%rip),%rax        # 26aa8 <g_3394+0x8>
   1d60a:	8b 55 f4             	mov    -0xc(%rbp),%edx
   1d60d:	48 8d 35 d4 28 00 00 	lea    0x28d4(%rip),%rsi        # 1fee8 <g_3175+0x1d44>
   1d614:	48 89 c7             	mov    %rax,%rdi
   1d617:	e8 d7 e0 fe ff       	callq  b6f3 <transparent_crc>
   1d61c:	48 8b 05 8d 94 00 00 	mov    0x948d(%rip),%rax        # 26ab0 <g_3394+0x10>
   1d623:	48 89 c1             	mov    %rax,%rcx
   1d626:	8b 45 f4             	mov    -0xc(%rbp),%eax
   1d629:	89 c2                	mov    %eax,%edx
   1d62b:	48 8d 35 c3 28 00 00 	lea    0x28c3(%rip),%rsi        # 1fef5 <g_3175+0x1d51>
   1d632:	48 89 cf             	mov    %rcx,%rdi
   1d635:	e8 b9 e0 fe ff       	callq  b6f3 <transparent_crc>
   1d63a:	8b 05 80 94 00 00    	mov    0x9480(%rip),%eax        # 26ac0 <g_3395>
   1d640:	89 c1                	mov    %eax,%ecx
   1d642:	8b 45 f4             	mov    -0xc(%rbp),%eax
   1d645:	89 c2                	mov    %eax,%edx
   1d647:	48 8d 35 b4 28 00 00 	lea    0x28b4(%rip),%rsi        # 1ff02 <g_3175+0x1d5e>
   1d64e:	48 89 cf             	mov    %rcx,%rdi
   1d651:	e8 9d e0 fe ff       	callq  b6f3 <transparent_crc>
   1d656:	48 8b 05 6b 94 00 00 	mov    0x946b(%rip),%rax        # 26ac8 <g_3395+0x8>
   1d65d:	8b 55 f4             	mov    -0xc(%rbp),%edx
   1d660:	48 8d 35 a8 28 00 00 	lea    0x28a8(%rip),%rsi        # 1ff0f <g_3175+0x1d6b>
   1d667:	48 89 c7             	mov    %rax,%rdi
   1d66a:	e8 84 e0 fe ff       	callq  b6f3 <transparent_crc>
   1d66f:	48 8b 05 5a 94 00 00 	mov    0x945a(%rip),%rax        # 26ad0 <g_3395+0x10>
   1d676:	48 89 c1             	mov    %rax,%rcx
   1d679:	8b 45 f4             	mov    -0xc(%rbp),%eax
   1d67c:	89 c2                	mov    %eax,%edx
   1d67e:	48 8d 35 97 28 00 00 	lea    0x2897(%rip),%rsi        # 1ff1c <g_3175+0x1d78>
   1d685:	48 89 cf             	mov    %rcx,%rdi
   1d688:	e8 66 e0 fe ff       	callq  b6f3 <transparent_crc>
   1d68d:	48 8b 05 44 94 00 00 	mov    0x9444(%rip),%rax        # 26ad8 <g_3437>
   1d694:	8b 55 f4             	mov    -0xc(%rbp),%edx
   1d697:	48 8d 35 8b 28 00 00 	lea    0x288b(%rip),%rsi        # 1ff29 <g_3175+0x1d85>
   1d69e:	48 89 c7             	mov    %rax,%rdi
   1d6a1:	e8 4d e0 fe ff       	callq  b6f3 <transparent_crc>
   1d6a6:	c7 45 e8 00 00 00 00 	movl   $0x0,-0x18(%rbp)
   1d6ad:	e9 c1 00 00 00       	jmpq   1d773 <main+0x269d>
   1d6b2:	8b 45 e8             	mov    -0x18(%rbp),%eax
   1d6b5:	48 63 d0             	movslq %eax,%rdx
   1d6b8:	48 89 d0             	mov    %rdx,%rax
   1d6bb:	48 01 c0             	add    %rax,%rax
   1d6be:	48 01 d0             	add    %rdx,%rax
   1d6c1:	48 c1 e0 03          	shl    $0x3,%rax
   1d6c5:	48 89 c2             	mov    %rax,%rdx
   1d6c8:	48 8d 05 11 94 00 00 	lea    0x9411(%rip),%rax        # 26ae0 <g_3508>
   1d6cf:	8b 04 02             	mov    (%rdx,%rax,1),%eax
   1d6d2:	89 c1                	mov    %eax,%ecx
   1d6d4:	8b 45 f4             	mov    -0xc(%rbp),%eax
   1d6d7:	89 c2                	mov    %eax,%edx
   1d6d9:	48 8d 35 50 28 00 00 	lea    0x2850(%rip),%rsi        # 1ff30 <g_3175+0x1d8c>
   1d6e0:	48 89 cf             	mov    %rcx,%rdi
   1d6e3:	e8 0b e0 fe ff       	callq  b6f3 <transparent_crc>
   1d6e8:	8b 45 e8             	mov    -0x18(%rbp),%eax
   1d6eb:	48 63 d0             	movslq %eax,%rdx
   1d6ee:	48 89 d0             	mov    %rdx,%rax
   1d6f1:	48 01 c0             	add    %rax,%rax
   1d6f4:	48 01 d0             	add    %rdx,%rax
   1d6f7:	48 c1 e0 03          	shl    $0x3,%rax
   1d6fb:	48 89 c2             	mov    %rax,%rdx
   1d6fe:	48 8d 05 e3 93 00 00 	lea    0x93e3(%rip),%rax        # 26ae8 <g_3508+0x8>
   1d705:	48 8b 04 02          	mov    (%rdx,%rax,1),%rax
   1d709:	8b 55 f4             	mov    -0xc(%rbp),%edx
   1d70c:	48 8d 35 2d 28 00 00 	lea    0x282d(%rip),%rsi        # 1ff40 <g_3175+0x1d9c>
   1d713:	48 89 c7             	mov    %rax,%rdi
   1d716:	e8 d8 df fe ff       	callq  b6f3 <transparent_crc>
   1d71b:	8b 45 e8             	mov    -0x18(%rbp),%eax
   1d71e:	48 63 d0             	movslq %eax,%rdx
   1d721:	48 89 d0             	mov    %rdx,%rax
   1d724:	48 01 c0             	add    %rax,%rax
   1d727:	48 01 d0             	add    %rdx,%rax
   1d72a:	48 c1 e0 03          	shl    $0x3,%rax
   1d72e:	48 89 c2             	mov    %rax,%rdx
   1d731:	48 8d 05 b8 93 00 00 	lea    0x93b8(%rip),%rax        # 26af0 <g_3508+0x10>
   1d738:	48 8b 04 02          	mov    (%rdx,%rax,1),%rax
   1d73c:	48 89 c1             	mov    %rax,%rcx
   1d73f:	8b 45 f4             	mov    -0xc(%rbp),%eax
   1d742:	89 c2                	mov    %eax,%edx
   1d744:	48 8d 35 05 28 00 00 	lea    0x2805(%rip),%rsi        # 1ff50 <g_3175+0x1dac>
   1d74b:	48 89 cf             	mov    %rcx,%rdi
   1d74e:	e8 a0 df fe ff       	callq  b6f3 <transparent_crc>
   1d753:	83 7d f4 00          	cmpl   $0x0,-0xc(%rbp)
   1d757:	74 16                	je     1d76f <main+0x2699>
   1d759:	8b 45 e8             	mov    -0x18(%rbp),%eax
   1d75c:	89 c6                	mov    %eax,%esi
   1d75e:	48 8d 3d 1c 1e 00 00 	lea    0x1e1c(%rip),%rdi        # 1f581 <g_3175+0x13dd>
   1d765:	b8 00 00 00 00       	mov    $0x0,%eax
   1d76a:	e8 11 c9 fe ff       	callq  a080 <printf@plt>
   1d76f:	83 45 e8 01          	addl   $0x1,-0x18(%rbp)
   1d773:	83 7d e8 05          	cmpl   $0x5,-0x18(%rbp)
   1d777:	0f 8e 35 ff ff ff    	jle    1d6b2 <main+0x25dc>
   1d77d:	8b 05 9d 68 00 00    	mov    0x689d(%rip),%eax        # 24020 <crc32_context>
   1d783:	f7 d0                	not    %eax
   1d785:	89 c2                	mov    %eax,%edx
   1d787:	8b 45 f4             	mov    -0xc(%rbp),%eax
   1d78a:	89 c6                	mov    %eax,%esi
   1d78c:	89 d7                	mov    %edx,%edi
   1d78e:	e8 01 ca fe ff       	callq  a194 <platform_main_end>
   1d793:	b8 00 00 00 00       	mov    $0x0,%eax
   1d798:	48 8b 7d f8          	mov    -0x8(%rbp),%rdi
   1d79c:	64 48 33 3c 25 28 00 	xor    %fs:0x28,%rdi
   1d7a3:	00 00 
   1d7a5:	74 05                	je     1d7ac <main+0x26d6>
   1d7a7:	e8 c4 c8 fe ff       	callq  a070 <__stack_chk_fail@plt>
   1d7ac:	c9                   	leaveq 
   1d7ad:	c3                   	retq   
   1d7ae:	66 90                	xchg   %ax,%ax

000000000001d7b0 <__libc_csu_init>:
   1d7b0:	f3 0f 1e fa          	endbr64 
   1d7b4:	41 57                	push   %r15
   1d7b6:	4c 8d 3d d3 56 00 00 	lea    0x56d3(%rip),%r15        # 22e90 <__frame_dummy_init_array_entry>
   1d7bd:	41 56                	push   %r14
   1d7bf:	49 89 d6             	mov    %rdx,%r14
   1d7c2:	41 55                	push   %r13
   1d7c4:	49 89 f5             	mov    %rsi,%r13
   1d7c7:	41 54                	push   %r12
   1d7c9:	41 89 fc             	mov    %edi,%r12d
   1d7cc:	55                   	push   %rbp
   1d7cd:	48 8d 2d c4 56 00 00 	lea    0x56c4(%rip),%rbp        # 22e98 <__do_global_dtors_aux_fini_array_entry>
   1d7d4:	53                   	push   %rbx
   1d7d5:	4c 29 fd             	sub    %r15,%rbp
   1d7d8:	48 83 ec 08          	sub    $0x8,%rsp
   1d7dc:	e8 1f c8 fe ff       	callq  a000 <_init>
   1d7e1:	48 c1 fd 03          	sar    $0x3,%rbp
   1d7e5:	74 1f                	je     1d806 <__libc_csu_init+0x56>
   1d7e7:	31 db                	xor    %ebx,%ebx
   1d7e9:	0f 1f 80 00 00 00 00 	nopl   0x0(%rax)
   1d7f0:	4c 89 f2             	mov    %r14,%rdx
   1d7f3:	4c 89 ee             	mov    %r13,%rsi
   1d7f6:	44 89 e7             	mov    %r12d,%edi
   1d7f9:	41 ff 14 df          	callq  *(%r15,%rbx,8)
   1d7fd:	48 83 c3 01          	add    $0x1,%rbx
   1d801:	48 39 dd             	cmp    %rbx,%rbp
   1d804:	75 ea                	jne    1d7f0 <__libc_csu_init+0x40>
   1d806:	48 83 c4 08          	add    $0x8,%rsp
   1d80a:	5b                   	pop    %rbx
   1d80b:	5d                   	pop    %rbp
   1d80c:	41 5c                	pop    %r12
   1d80e:	41 5d                	pop    %r13
   1d810:	41 5e                	pop    %r14
   1d812:	41 5f                	pop    %r15
   1d814:	c3                   	retq   
   1d815:	66 66 2e 0f 1f 84 00 	data16 nopw %cs:0x0(%rax,%rax,1)
   1d81c:	00 00 00 00 

000000000001d820 <__libc_csu_fini>:
   1d820:	f3 0f 1e fa          	endbr64 
   1d824:	c3                   	retq   
