


Disassembly of section .text:

000000000000a0a0 <_start>:
    a0a0:	f3 0f 1e fa          	endbr64 
    a0a4:	31 ed                	xor    %ebp,%ebp
    a0a6:	49 89 d1             	mov    %rdx,%r9
    a0a9:	5e                   	pop    %rsi
    a0aa:	48 89 e2             	mov    %rsp,%rdx
    a0ad:	48 83 e4 f0          	and    $0xfffffffffffffff0,%rsp
    a0b1:	50                   	push   %rax
    a0b2:	54                   	push   %rsp
    a0b3:	4c 8d 05 b6 0d 01 00 	lea    0x10db6(%rip),%r8        # 1ae70 <__libc_csu_fini>
    a0ba:	48 8d 0d 3f 0d 01 00 	lea    0x10d3f(%rip),%rcx        # 1ae00 <__libc_csu_init>
    a0c1:	48 8d 3d b4 e7 00 00 	lea    0xe7b4(%rip),%rdi        # 1887c <main>
    a0c8:	ff 15 fa 4e 01 00    	callq  *0x14efa(%rip)        # 1efc8 <__libc_start_main@GLIBC_2.2.5>
    a0ce:	f4                   	hlt    
    a0cf:	90                   	nop

000000000000a0d0 <deregister_tm_clones>:
    a0d0:	48 8d 3d 41 8e 01 00 	lea    0x18e41(%rip),%rdi        # 22f18 <__TMC_END__>
    a0d7:	48 8d 05 3a 8e 01 00 	lea    0x18e3a(%rip),%rax        # 22f18 <__TMC_END__>
    a0de:	48 39 f8             	cmp    %rdi,%rax
    a0e1:	74 15                	je     a0f8 <deregister_tm_clones+0x28>
    a0e3:	48 8b 05 d6 4e 01 00 	mov    0x14ed6(%rip),%rax        # 1efc0 <_ITM_deregisterTMCloneTable>
    a0ea:	48 85 c0             	test   %rax,%rax
    a0ed:	74 09                	je     a0f8 <deregister_tm_clones+0x28>
    a0ef:	ff e0                	jmpq   *%rax
    a0f1:	0f 1f 80 00 00 00 00 	nopl   0x0(%rax)
    a0f8:	c3                   	retq   
    a0f9:	0f 1f 80 00 00 00 00 	nopl   0x0(%rax)

000000000000a100 <register_tm_clones>:
    a100:	48 8d 3d 11 8e 01 00 	lea    0x18e11(%rip),%rdi        # 22f18 <__TMC_END__>
    a107:	48 8d 35 0a 8e 01 00 	lea    0x18e0a(%rip),%rsi        # 22f18 <__TMC_END__>
    a10e:	48 29 fe             	sub    %rdi,%rsi
    a111:	48 89 f0             	mov    %rsi,%rax
    a114:	48 c1 ee 3f          	shr    $0x3f,%rsi
    a118:	48 c1 f8 03          	sar    $0x3,%rax
    a11c:	48 01 c6             	add    %rax,%rsi
    a11f:	48 d1 fe             	sar    %rsi
    a122:	74 14                	je     a138 <register_tm_clones+0x38>
    a124:	48 8b 05 ad 4e 01 00 	mov    0x14ead(%rip),%rax        # 1efd8 <_ITM_registerTMCloneTable>
    a12b:	48 85 c0             	test   %rax,%rax
    a12e:	74 08                	je     a138 <register_tm_clones+0x38>
    a130:	ff e0                	jmpq   *%rax
    a132:	66 0f 1f 44 00 00    	nopw   0x0(%rax,%rax,1)
    a138:	c3                   	retq   
    a139:	0f 1f 80 00 00 00 00 	nopl   0x0(%rax)

000000000000a140 <__do_global_dtors_aux>:
    a140:	f3 0f 1e fa          	endbr64 
    a144:	80 3d d5 8d 01 00 00 	cmpb   $0x0,0x18dd5(%rip)        # 22f20 <completed.8061>
    a14b:	75 2b                	jne    a178 <__do_global_dtors_aux+0x38>
    a14d:	55                   	push   %rbp
    a14e:	48 83 3d 8a 4e 01 00 	cmpq   $0x0,0x14e8a(%rip)        # 1efe0 <__cxa_finalize@GLIBC_2.2.5>
    a155:	00 
    a156:	48 89 e5             	mov    %rsp,%rbp
    a159:	74 0c                	je     a167 <__do_global_dtors_aux+0x27>
    a15b:	48 8b 3d a6 4e 01 00 	mov    0x14ea6(%rip),%rdi        # 1f008 <__dso_handle>
    a162:	e8 f9 fe ff ff       	callq  a060 <__cxa_finalize@plt>
    a167:	e8 64 ff ff ff       	callq  a0d0 <deregister_tm_clones>
    a16c:	c6 05 ad 8d 01 00 01 	movb   $0x1,0x18dad(%rip)        # 22f20 <completed.8061>
    a173:	5d                   	pop    %rbp
    a174:	c3                   	retq   
    a175:	0f 1f 00             	nopl   (%rax)
    a178:	c3                   	retq   
    a179:	0f 1f 80 00 00 00 00 	nopl   0x0(%rax)

000000000000a180 <frame_dummy>:
    a180:	f3 0f 1e fa          	endbr64 
    a184:	e9 77 ff ff ff       	jmpq   a100 <register_tm_clones>

000000000000a189 <platform_main_begin>:
    a189:	f3 0f 1e fa          	endbr64 
    a18d:	55                   	push   %rbp
    a18e:	48 89 e5             	mov    %rsp,%rbp
    a191:	90                   	nop
    a192:	5d                   	pop    %rbp
    a193:	c3                   	retq   

000000000000a194 <platform_main_end>:
    a194:	f3 0f 1e fa          	endbr64 
    a198:	55                   	push   %rbp
    a199:	48 89 e5             	mov    %rsp,%rbp
    a19c:	48 83 ec 10          	sub    $0x10,%rsp
    a1a0:	89 7d fc             	mov    %edi,-0x4(%rbp)
    a1a3:	89 75 f8             	mov    %esi,-0x8(%rbp)
    a1a6:	8b 45 fc             	mov    -0x4(%rbp),%eax
    a1a9:	89 c6                	mov    %eax,%esi
    a1ab:	48 8d 3d 6e 0e 01 00 	lea    0x10e6e(%rip),%rdi        # 1b020 <_IO_stdin_used+0x20>
    a1b2:	b8 00 00 00 00       	mov    $0x0,%eax
    a1b7:	e8 c4 fe ff ff       	callq  a080 <printf@plt>
    a1bc:	90                   	nop
    a1bd:	c9                   	leaveq 
    a1be:	c3                   	retq   

000000000000a1bf <safe_unary_minus_func_int8_t_s>:
    a1bf:	f3 0f 1e fa          	endbr64 
    a1c3:	55                   	push   %rbp
    a1c4:	48 89 e5             	mov    %rsp,%rbp
    a1c7:	89 f8                	mov    %edi,%eax
    a1c9:	88 45 fc             	mov    %al,-0x4(%rbp)
    a1cc:	0f b6 45 fc          	movzbl -0x4(%rbp),%eax
    a1d0:	f7 d8                	neg    %eax
    a1d2:	5d                   	pop    %rbp
    a1d3:	c3                   	retq   

000000000000a1d4 <safe_add_func_int8_t_s_s>:
    a1d4:	f3 0f 1e fa          	endbr64 
    a1d8:	55                   	push   %rbp
    a1d9:	48 89 e5             	mov    %rsp,%rbp
    a1dc:	89 fa                	mov    %edi,%edx
    a1de:	89 f0                	mov    %esi,%eax
    a1e0:	88 55 fc             	mov    %dl,-0x4(%rbp)
    a1e3:	88 45 f8             	mov    %al,-0x8(%rbp)
    a1e6:	0f b6 55 fc          	movzbl -0x4(%rbp),%edx
    a1ea:	0f b6 45 f8          	movzbl -0x8(%rbp),%eax
    a1ee:	01 d0                	add    %edx,%eax
    a1f0:	5d                   	pop    %rbp
    a1f1:	c3                   	retq   

000000000000a1f2 <safe_sub_func_int8_t_s_s>:
    a1f2:	f3 0f 1e fa          	endbr64 
    a1f6:	55                   	push   %rbp
    a1f7:	48 89 e5             	mov    %rsp,%rbp
    a1fa:	89 fa                	mov    %edi,%edx
    a1fc:	89 f0                	mov    %esi,%eax
    a1fe:	88 55 fc             	mov    %dl,-0x4(%rbp)
    a201:	88 45 f8             	mov    %al,-0x8(%rbp)
    a204:	0f b6 55 fc          	movzbl -0x4(%rbp),%edx
    a208:	0f b6 45 f8          	movzbl -0x8(%rbp),%eax
    a20c:	29 c2                	sub    %eax,%edx
    a20e:	89 d0                	mov    %edx,%eax
    a210:	5d                   	pop    %rbp
    a211:	c3                   	retq   

000000000000a212 <safe_mul_func_int8_t_s_s>:
    a212:	f3 0f 1e fa          	endbr64 
    a216:	55                   	push   %rbp
    a217:	48 89 e5             	mov    %rsp,%rbp
    a21a:	89 fa                	mov    %edi,%edx
    a21c:	89 f0                	mov    %esi,%eax
    a21e:	88 55 fc             	mov    %dl,-0x4(%rbp)
    a221:	88 45 f8             	mov    %al,-0x8(%rbp)
    a224:	0f b6 45 fc          	movzbl -0x4(%rbp),%eax
    a228:	0f b6 55 f8          	movzbl -0x8(%rbp),%edx
    a22c:	0f af c2             	imul   %edx,%eax
    a22f:	5d                   	pop    %rbp
    a230:	c3                   	retq   

000000000000a231 <safe_mod_func_int8_t_s_s>:
    a231:	f3 0f 1e fa          	endbr64 
    a235:	55                   	push   %rbp
    a236:	48 89 e5             	mov    %rsp,%rbp
    a239:	89 fa                	mov    %edi,%edx
    a23b:	89 f0                	mov    %esi,%eax
    a23d:	88 55 fc             	mov    %dl,-0x4(%rbp)
    a240:	88 45 f8             	mov    %al,-0x8(%rbp)
    a243:	80 7d f8 00          	cmpb   $0x0,-0x8(%rbp)
    a247:	74 1b                	je     a264 <safe_mod_func_int8_t_s_s+0x33>
    a249:	80 7d fc 80          	cmpb   $0x80,-0x4(%rbp)
    a24d:	75 06                	jne    a255 <safe_mod_func_int8_t_s_s+0x24>
    a24f:	80 7d f8 ff          	cmpb   $0xff,-0x8(%rbp)
    a253:	74 0f                	je     a264 <safe_mod_func_int8_t_s_s+0x33>
    a255:	0f be 45 fc          	movsbl -0x4(%rbp),%eax
    a259:	0f be 4d f8          	movsbl -0x8(%rbp),%ecx
    a25d:	99                   	cltd   
    a25e:	f7 f9                	idiv   %ecx
    a260:	89 d0                	mov    %edx,%eax
    a262:	eb 04                	jmp    a268 <safe_mod_func_int8_t_s_s+0x37>
    a264:	0f b6 45 fc          	movzbl -0x4(%rbp),%eax
    a268:	5d                   	pop    %rbp
    a269:	c3                   	retq   

000000000000a26a <safe_div_func_int8_t_s_s>:
    a26a:	f3 0f 1e fa          	endbr64 
    a26e:	55                   	push   %rbp
    a26f:	48 89 e5             	mov    %rsp,%rbp
    a272:	89 fa                	mov    %edi,%edx
    a274:	89 f0                	mov    %esi,%eax
    a276:	88 55 fc             	mov    %dl,-0x4(%rbp)
    a279:	88 45 f8             	mov    %al,-0x8(%rbp)
    a27c:	80 7d f8 00          	cmpb   $0x0,-0x8(%rbp)
    a280:	74 19                	je     a29b <safe_div_func_int8_t_s_s+0x31>
    a282:	80 7d fc 80          	cmpb   $0x80,-0x4(%rbp)
    a286:	75 06                	jne    a28e <safe_div_func_int8_t_s_s+0x24>
    a288:	80 7d f8 ff          	cmpb   $0xff,-0x8(%rbp)
    a28c:	74 0d                	je     a29b <safe_div_func_int8_t_s_s+0x31>
    a28e:	0f be 45 fc          	movsbl -0x4(%rbp),%eax
    a292:	0f be 4d f8          	movsbl -0x8(%rbp),%ecx
    a296:	99                   	cltd   
    a297:	f7 f9                	idiv   %ecx
    a299:	eb 04                	jmp    a29f <safe_div_func_int8_t_s_s+0x35>
    a29b:	0f b6 45 fc          	movzbl -0x4(%rbp),%eax
    a29f:	5d                   	pop    %rbp
    a2a0:	c3                   	retq   

000000000000a2a1 <safe_lshift_func_int8_t_s_s>:
    a2a1:	f3 0f 1e fa          	endbr64 
    a2a5:	55                   	push   %rbp
    a2a6:	48 89 e5             	mov    %rsp,%rbp
    a2a9:	89 f8                	mov    %edi,%eax
    a2ab:	89 75 f8             	mov    %esi,-0x8(%rbp)
    a2ae:	88 45 fc             	mov    %al,-0x4(%rbp)
    a2b1:	80 7d fc 00          	cmpb   $0x0,-0x4(%rbp)
    a2b5:	78 31                	js     a2e8 <safe_lshift_func_int8_t_s_s+0x47>
    a2b7:	83 7d f8 00          	cmpl   $0x0,-0x8(%rbp)
    a2bb:	78 2b                	js     a2e8 <safe_lshift_func_int8_t_s_s+0x47>
    a2bd:	83 7d f8 1f          	cmpl   $0x1f,-0x8(%rbp)
    a2c1:	7f 25                	jg     a2e8 <safe_lshift_func_int8_t_s_s+0x47>
    a2c3:	0f be 55 fc          	movsbl -0x4(%rbp),%edx
    a2c7:	8b 45 f8             	mov    -0x8(%rbp),%eax
    a2ca:	be 7f 00 00 00       	mov    $0x7f,%esi
    a2cf:	89 c1                	mov    %eax,%ecx
    a2d1:	d3 fe                	sar    %cl,%esi
    a2d3:	89 f0                	mov    %esi,%eax
    a2d5:	39 c2                	cmp    %eax,%edx
    a2d7:	7f 0f                	jg     a2e8 <safe_lshift_func_int8_t_s_s+0x47>
    a2d9:	0f be 55 fc          	movsbl -0x4(%rbp),%edx
    a2dd:	8b 45 f8             	mov    -0x8(%rbp),%eax
    a2e0:	89 c1                	mov    %eax,%ecx
    a2e2:	d3 e2                	shl    %cl,%edx
    a2e4:	89 d0                	mov    %edx,%eax
    a2e6:	eb 04                	jmp    a2ec <safe_lshift_func_int8_t_s_s+0x4b>
    a2e8:	0f b6 45 fc          	movzbl -0x4(%rbp),%eax
    a2ec:	5d                   	pop    %rbp
    a2ed:	c3                   	retq   

000000000000a2ee <safe_lshift_func_int8_t_s_u>:
    a2ee:	f3 0f 1e fa          	endbr64 
    a2f2:	55                   	push   %rbp
    a2f3:	48 89 e5             	mov    %rsp,%rbp
    a2f6:	89 f8                	mov    %edi,%eax
    a2f8:	89 75 f8             	mov    %esi,-0x8(%rbp)
    a2fb:	88 45 fc             	mov    %al,-0x4(%rbp)
    a2fe:	80 7d fc 00          	cmpb   $0x0,-0x4(%rbp)
    a302:	78 2b                	js     a32f <safe_lshift_func_int8_t_s_u+0x41>
    a304:	83 7d f8 1f          	cmpl   $0x1f,-0x8(%rbp)
    a308:	77 25                	ja     a32f <safe_lshift_func_int8_t_s_u+0x41>
    a30a:	0f be 55 fc          	movsbl -0x4(%rbp),%edx
    a30e:	8b 45 f8             	mov    -0x8(%rbp),%eax
    a311:	be 7f 00 00 00       	mov    $0x7f,%esi
    a316:	89 c1                	mov    %eax,%ecx
    a318:	d3 fe                	sar    %cl,%esi
    a31a:	89 f0                	mov    %esi,%eax
    a31c:	39 c2                	cmp    %eax,%edx
    a31e:	7f 0f                	jg     a32f <safe_lshift_func_int8_t_s_u+0x41>
    a320:	0f be 55 fc          	movsbl -0x4(%rbp),%edx
    a324:	8b 45 f8             	mov    -0x8(%rbp),%eax
    a327:	89 c1                	mov    %eax,%ecx
    a329:	d3 e2                	shl    %cl,%edx
    a32b:	89 d0                	mov    %edx,%eax
    a32d:	eb 04                	jmp    a333 <safe_lshift_func_int8_t_s_u+0x45>
    a32f:	0f b6 45 fc          	movzbl -0x4(%rbp),%eax
    a333:	5d                   	pop    %rbp
    a334:	c3                   	retq   

000000000000a335 <safe_rshift_func_int8_t_s_s>:
    a335:	f3 0f 1e fa          	endbr64 
    a339:	55                   	push   %rbp
    a33a:	48 89 e5             	mov    %rsp,%rbp
    a33d:	89 f8                	mov    %edi,%eax
    a33f:	89 75 f8             	mov    %esi,-0x8(%rbp)
    a342:	88 45 fc             	mov    %al,-0x4(%rbp)
    a345:	80 7d fc 00          	cmpb   $0x0,-0x4(%rbp)
    a349:	78 1b                	js     a366 <safe_rshift_func_int8_t_s_s+0x31>
    a34b:	83 7d f8 00          	cmpl   $0x0,-0x8(%rbp)
    a34f:	78 15                	js     a366 <safe_rshift_func_int8_t_s_s+0x31>
    a351:	83 7d f8 1f          	cmpl   $0x1f,-0x8(%rbp)
    a355:	7f 0f                	jg     a366 <safe_rshift_func_int8_t_s_s+0x31>
    a357:	0f be 55 fc          	movsbl -0x4(%rbp),%edx
    a35b:	8b 45 f8             	mov    -0x8(%rbp),%eax
    a35e:	89 c1                	mov    %eax,%ecx
    a360:	d3 fa                	sar    %cl,%edx
    a362:	89 d0                	mov    %edx,%eax
    a364:	eb 04                	jmp    a36a <safe_rshift_func_int8_t_s_s+0x35>
    a366:	0f b6 45 fc          	movzbl -0x4(%rbp),%eax
    a36a:	5d                   	pop    %rbp
    a36b:	c3                   	retq   

000000000000a36c <safe_rshift_func_int8_t_s_u>:
    a36c:	f3 0f 1e fa          	endbr64 
    a370:	55                   	push   %rbp
    a371:	48 89 e5             	mov    %rsp,%rbp
    a374:	89 f8                	mov    %edi,%eax
    a376:	89 75 f8             	mov    %esi,-0x8(%rbp)
    a379:	88 45 fc             	mov    %al,-0x4(%rbp)
    a37c:	80 7d fc 00          	cmpb   $0x0,-0x4(%rbp)
    a380:	78 15                	js     a397 <safe_rshift_func_int8_t_s_u+0x2b>
    a382:	83 7d f8 1f          	cmpl   $0x1f,-0x8(%rbp)
    a386:	77 0f                	ja     a397 <safe_rshift_func_int8_t_s_u+0x2b>
    a388:	0f be 55 fc          	movsbl -0x4(%rbp),%edx
    a38c:	8b 45 f8             	mov    -0x8(%rbp),%eax
    a38f:	89 c1                	mov    %eax,%ecx
    a391:	d3 fa                	sar    %cl,%edx
    a393:	89 d0                	mov    %edx,%eax
    a395:	eb 04                	jmp    a39b <safe_rshift_func_int8_t_s_u+0x2f>
    a397:	0f b6 45 fc          	movzbl -0x4(%rbp),%eax
    a39b:	5d                   	pop    %rbp
    a39c:	c3                   	retq   

000000000000a39d <safe_unary_minus_func_int16_t_s>:
    a39d:	f3 0f 1e fa          	endbr64 
    a3a1:	55                   	push   %rbp
    a3a2:	48 89 e5             	mov    %rsp,%rbp
    a3a5:	89 f8                	mov    %edi,%eax
    a3a7:	66 89 45 fc          	mov    %ax,-0x4(%rbp)
    a3ab:	0f b7 45 fc          	movzwl -0x4(%rbp),%eax
    a3af:	f7 d8                	neg    %eax
    a3b1:	5d                   	pop    %rbp
    a3b2:	c3                   	retq   

000000000000a3b3 <safe_add_func_int16_t_s_s>:
    a3b3:	f3 0f 1e fa          	endbr64 
    a3b7:	55                   	push   %rbp
    a3b8:	48 89 e5             	mov    %rsp,%rbp
    a3bb:	89 fa                	mov    %edi,%edx
    a3bd:	89 f0                	mov    %esi,%eax
    a3bf:	66 89 55 fc          	mov    %dx,-0x4(%rbp)
    a3c3:	66 89 45 f8          	mov    %ax,-0x8(%rbp)
    a3c7:	0f b7 55 fc          	movzwl -0x4(%rbp),%edx
    a3cb:	0f b7 45 f8          	movzwl -0x8(%rbp),%eax
    a3cf:	01 d0                	add    %edx,%eax
    a3d1:	5d                   	pop    %rbp
    a3d2:	c3                   	retq   

000000000000a3d3 <safe_sub_func_int16_t_s_s>:
    a3d3:	f3 0f 1e fa          	endbr64 
    a3d7:	55                   	push   %rbp
    a3d8:	48 89 e5             	mov    %rsp,%rbp
    a3db:	89 fa                	mov    %edi,%edx
    a3dd:	89 f0                	mov    %esi,%eax
    a3df:	66 89 55 fc          	mov    %dx,-0x4(%rbp)
    a3e3:	66 89 45 f8          	mov    %ax,-0x8(%rbp)
    a3e7:	0f b7 55 fc          	movzwl -0x4(%rbp),%edx
    a3eb:	0f b7 45 f8          	movzwl -0x8(%rbp),%eax
    a3ef:	29 c2                	sub    %eax,%edx
    a3f1:	89 d0                	mov    %edx,%eax
    a3f3:	5d                   	pop    %rbp
    a3f4:	c3                   	retq   

000000000000a3f5 <safe_mul_func_int16_t_s_s>:
    a3f5:	f3 0f 1e fa          	endbr64 
    a3f9:	55                   	push   %rbp
    a3fa:	48 89 e5             	mov    %rsp,%rbp
    a3fd:	89 fa                	mov    %edi,%edx
    a3ff:	89 f0                	mov    %esi,%eax
    a401:	66 89 55 fc          	mov    %dx,-0x4(%rbp)
    a405:	66 89 45 f8          	mov    %ax,-0x8(%rbp)
    a409:	0f b7 55 fc          	movzwl -0x4(%rbp),%edx
    a40d:	0f b7 45 f8          	movzwl -0x8(%rbp),%eax
    a411:	0f af c2             	imul   %edx,%eax
    a414:	5d                   	pop    %rbp
    a415:	c3                   	retq   

000000000000a416 <safe_mod_func_int16_t_s_s>:
    a416:	f3 0f 1e fa          	endbr64 
    a41a:	55                   	push   %rbp
    a41b:	48 89 e5             	mov    %rsp,%rbp
    a41e:	89 fa                	mov    %edi,%edx
    a420:	89 f0                	mov    %esi,%eax
    a422:	66 89 55 fc          	mov    %dx,-0x4(%rbp)
    a426:	66 89 45 f8          	mov    %ax,-0x8(%rbp)
    a42a:	66 83 7d f8 00       	cmpw   $0x0,-0x8(%rbp)
    a42f:	74 1e                	je     a44f <safe_mod_func_int16_t_s_s+0x39>
    a431:	66 81 7d fc 00 80    	cmpw   $0x8000,-0x4(%rbp)
    a437:	75 07                	jne    a440 <safe_mod_func_int16_t_s_s+0x2a>
    a439:	66 83 7d f8 ff       	cmpw   $0xffff,-0x8(%rbp)
    a43e:	74 0f                	je     a44f <safe_mod_func_int16_t_s_s+0x39>
    a440:	0f bf 45 fc          	movswl -0x4(%rbp),%eax
    a444:	0f bf 4d f8          	movswl -0x8(%rbp),%ecx
    a448:	99                   	cltd   
    a449:	f7 f9                	idiv   %ecx
    a44b:	89 d0                	mov    %edx,%eax
    a44d:	eb 04                	jmp    a453 <safe_mod_func_int16_t_s_s+0x3d>
    a44f:	0f b7 45 fc          	movzwl -0x4(%rbp),%eax
    a453:	5d                   	pop    %rbp
    a454:	c3                   	retq   

000000000000a455 <safe_div_func_int16_t_s_s>:
    a455:	f3 0f 1e fa          	endbr64 
    a459:	55                   	push   %rbp
    a45a:	48 89 e5             	mov    %rsp,%rbp
    a45d:	89 fa                	mov    %edi,%edx
    a45f:	89 f0                	mov    %esi,%eax
    a461:	66 89 55 fc          	mov    %dx,-0x4(%rbp)
    a465:	66 89 45 f8          	mov    %ax,-0x8(%rbp)
    a469:	66 83 7d f8 00       	cmpw   $0x0,-0x8(%rbp)
    a46e:	74 1c                	je     a48c <safe_div_func_int16_t_s_s+0x37>
    a470:	66 81 7d fc 00 80    	cmpw   $0x8000,-0x4(%rbp)
    a476:	75 07                	jne    a47f <safe_div_func_int16_t_s_s+0x2a>
    a478:	66 83 7d f8 ff       	cmpw   $0xffff,-0x8(%rbp)
    a47d:	74 0d                	je     a48c <safe_div_func_int16_t_s_s+0x37>
    a47f:	0f bf 45 fc          	movswl -0x4(%rbp),%eax
    a483:	0f bf 4d f8          	movswl -0x8(%rbp),%ecx
    a487:	99                   	cltd   
    a488:	f7 f9                	idiv   %ecx
    a48a:	eb 04                	jmp    a490 <safe_div_func_int16_t_s_s+0x3b>
    a48c:	0f b7 45 fc          	movzwl -0x4(%rbp),%eax
    a490:	5d                   	pop    %rbp
    a491:	c3                   	retq   

000000000000a492 <safe_lshift_func_int16_t_s_s>:
    a492:	f3 0f 1e fa          	endbr64 
    a496:	55                   	push   %rbp
    a497:	48 89 e5             	mov    %rsp,%rbp
    a49a:	89 f8                	mov    %edi,%eax
    a49c:	89 75 f8             	mov    %esi,-0x8(%rbp)
    a49f:	66 89 45 fc          	mov    %ax,-0x4(%rbp)
    a4a3:	66 83 7d fc 00       	cmpw   $0x0,-0x4(%rbp)
    a4a8:	78 31                	js     a4db <safe_lshift_func_int16_t_s_s+0x49>
    a4aa:	83 7d f8 00          	cmpl   $0x0,-0x8(%rbp)
    a4ae:	78 2b                	js     a4db <safe_lshift_func_int16_t_s_s+0x49>
    a4b0:	83 7d f8 1f          	cmpl   $0x1f,-0x8(%rbp)
    a4b4:	7f 25                	jg     a4db <safe_lshift_func_int16_t_s_s+0x49>
    a4b6:	0f bf 55 fc          	movswl -0x4(%rbp),%edx
    a4ba:	8b 45 f8             	mov    -0x8(%rbp),%eax
    a4bd:	be ff 7f 00 00       	mov    $0x7fff,%esi
    a4c2:	89 c1                	mov    %eax,%ecx
    a4c4:	d3 fe                	sar    %cl,%esi
    a4c6:	89 f0                	mov    %esi,%eax
    a4c8:	39 c2                	cmp    %eax,%edx
    a4ca:	7f 0f                	jg     a4db <safe_lshift_func_int16_t_s_s+0x49>
    a4cc:	0f bf 55 fc          	movswl -0x4(%rbp),%edx
    a4d0:	8b 45 f8             	mov    -0x8(%rbp),%eax
    a4d3:	89 c1                	mov    %eax,%ecx
    a4d5:	d3 e2                	shl    %cl,%edx
    a4d7:	89 d0                	mov    %edx,%eax
    a4d9:	eb 04                	jmp    a4df <safe_lshift_func_int16_t_s_s+0x4d>
    a4db:	0f b7 45 fc          	movzwl -0x4(%rbp),%eax
    a4df:	5d                   	pop    %rbp
    a4e0:	c3                   	retq   

000000000000a4e1 <safe_lshift_func_int16_t_s_u>:
    a4e1:	f3 0f 1e fa          	endbr64 
    a4e5:	55                   	push   %rbp
    a4e6:	48 89 e5             	mov    %rsp,%rbp
    a4e9:	89 f8                	mov    %edi,%eax
    a4eb:	89 75 f8             	mov    %esi,-0x8(%rbp)
    a4ee:	66 89 45 fc          	mov    %ax,-0x4(%rbp)
    a4f2:	66 83 7d fc 00       	cmpw   $0x0,-0x4(%rbp)
    a4f7:	78 2b                	js     a524 <safe_lshift_func_int16_t_s_u+0x43>
    a4f9:	83 7d f8 1f          	cmpl   $0x1f,-0x8(%rbp)
    a4fd:	77 25                	ja     a524 <safe_lshift_func_int16_t_s_u+0x43>
    a4ff:	0f bf 55 fc          	movswl -0x4(%rbp),%edx
    a503:	8b 45 f8             	mov    -0x8(%rbp),%eax
    a506:	be ff 7f 00 00       	mov    $0x7fff,%esi
    a50b:	89 c1                	mov    %eax,%ecx
    a50d:	d3 fe                	sar    %cl,%esi
    a50f:	89 f0                	mov    %esi,%eax
    a511:	39 c2                	cmp    %eax,%edx
    a513:	7f 0f                	jg     a524 <safe_lshift_func_int16_t_s_u+0x43>
    a515:	0f bf 55 fc          	movswl -0x4(%rbp),%edx
    a519:	8b 45 f8             	mov    -0x8(%rbp),%eax
    a51c:	89 c1                	mov    %eax,%ecx
    a51e:	d3 e2                	shl    %cl,%edx
    a520:	89 d0                	mov    %edx,%eax
    a522:	eb 04                	jmp    a528 <safe_lshift_func_int16_t_s_u+0x47>
    a524:	0f b7 45 fc          	movzwl -0x4(%rbp),%eax
    a528:	5d                   	pop    %rbp
    a529:	c3                   	retq   

000000000000a52a <safe_rshift_func_int16_t_s_s>:
    a52a:	f3 0f 1e fa          	endbr64 
    a52e:	55                   	push   %rbp
    a52f:	48 89 e5             	mov    %rsp,%rbp
    a532:	89 f8                	mov    %edi,%eax
    a534:	89 75 f8             	mov    %esi,-0x8(%rbp)
    a537:	66 89 45 fc          	mov    %ax,-0x4(%rbp)
    a53b:	66 83 7d fc 00       	cmpw   $0x0,-0x4(%rbp)
    a540:	78 1b                	js     a55d <safe_rshift_func_int16_t_s_s+0x33>
    a542:	83 7d f8 00          	cmpl   $0x0,-0x8(%rbp)
    a546:	78 15                	js     a55d <safe_rshift_func_int16_t_s_s+0x33>
    a548:	83 7d f8 1f          	cmpl   $0x1f,-0x8(%rbp)
    a54c:	7f 0f                	jg     a55d <safe_rshift_func_int16_t_s_s+0x33>
    a54e:	0f bf 55 fc          	movswl -0x4(%rbp),%edx
    a552:	8b 45 f8             	mov    -0x8(%rbp),%eax
    a555:	89 c1                	mov    %eax,%ecx
    a557:	d3 fa                	sar    %cl,%edx
    a559:	89 d0                	mov    %edx,%eax
    a55b:	eb 04                	jmp    a561 <safe_rshift_func_int16_t_s_s+0x37>
    a55d:	0f b7 45 fc          	movzwl -0x4(%rbp),%eax
    a561:	5d                   	pop    %rbp
    a562:	c3                   	retq   

000000000000a563 <safe_rshift_func_int16_t_s_u>:
    a563:	f3 0f 1e fa          	endbr64 
    a567:	55                   	push   %rbp
    a568:	48 89 e5             	mov    %rsp,%rbp
    a56b:	89 f8                	mov    %edi,%eax
    a56d:	89 75 f8             	mov    %esi,-0x8(%rbp)
    a570:	66 89 45 fc          	mov    %ax,-0x4(%rbp)
    a574:	66 83 7d fc 00       	cmpw   $0x0,-0x4(%rbp)
    a579:	78 15                	js     a590 <safe_rshift_func_int16_t_s_u+0x2d>
    a57b:	83 7d f8 1f          	cmpl   $0x1f,-0x8(%rbp)
    a57f:	77 0f                	ja     a590 <safe_rshift_func_int16_t_s_u+0x2d>
    a581:	0f bf 55 fc          	movswl -0x4(%rbp),%edx
    a585:	8b 45 f8             	mov    -0x8(%rbp),%eax
    a588:	89 c1                	mov    %eax,%ecx
    a58a:	d3 fa                	sar    %cl,%edx
    a58c:	89 d0                	mov    %edx,%eax
    a58e:	eb 04                	jmp    a594 <safe_rshift_func_int16_t_s_u+0x31>
    a590:	0f b7 45 fc          	movzwl -0x4(%rbp),%eax
    a594:	5d                   	pop    %rbp
    a595:	c3                   	retq   

000000000000a596 <safe_unary_minus_func_int32_t_s>:
    a596:	f3 0f 1e fa          	endbr64 
    a59a:	55                   	push   %rbp
    a59b:	48 89 e5             	mov    %rsp,%rbp
    a59e:	89 7d fc             	mov    %edi,-0x4(%rbp)
    a5a1:	81 7d fc 00 00 00 80 	cmpl   $0x80000000,-0x4(%rbp)
    a5a8:	74 07                	je     a5b1 <safe_unary_minus_func_int32_t_s+0x1b>
    a5aa:	8b 45 fc             	mov    -0x4(%rbp),%eax
    a5ad:	f7 d8                	neg    %eax
    a5af:	eb 03                	jmp    a5b4 <safe_unary_minus_func_int32_t_s+0x1e>
    a5b1:	8b 45 fc             	mov    -0x4(%rbp),%eax
    a5b4:	5d                   	pop    %rbp
    a5b5:	c3                   	retq   

000000000000a5b6 <safe_add_func_int32_t_s_s>:
    a5b6:	f3 0f 1e fa          	endbr64 
    a5ba:	55                   	push   %rbp
    a5bb:	48 89 e5             	mov    %rsp,%rbp
    a5be:	89 7d fc             	mov    %edi,-0x4(%rbp)
    a5c1:	89 75 f8             	mov    %esi,-0x8(%rbp)
    a5c4:	83 7d fc 00          	cmpl   $0x0,-0x4(%rbp)
    a5c8:	7e 13                	jle    a5dd <safe_add_func_int32_t_s_s+0x27>
    a5ca:	83 7d f8 00          	cmpl   $0x0,-0x8(%rbp)
    a5ce:	7e 0d                	jle    a5dd <safe_add_func_int32_t_s_s+0x27>
    a5d0:	b8 ff ff ff 7f       	mov    $0x7fffffff,%eax
    a5d5:	2b 45 f8             	sub    -0x8(%rbp),%eax
    a5d8:	39 45 fc             	cmp    %eax,-0x4(%rbp)
    a5db:	7f 23                	jg     a600 <safe_add_func_int32_t_s_s+0x4a>
    a5dd:	83 7d fc 00          	cmpl   $0x0,-0x4(%rbp)
    a5e1:	79 13                	jns    a5f6 <safe_add_func_int32_t_s_s+0x40>
    a5e3:	83 7d f8 00          	cmpl   $0x0,-0x8(%rbp)
    a5e7:	79 0d                	jns    a5f6 <safe_add_func_int32_t_s_s+0x40>
    a5e9:	b8 00 00 00 80       	mov    $0x80000000,%eax
    a5ee:	2b 45 f8             	sub    -0x8(%rbp),%eax
    a5f1:	39 45 fc             	cmp    %eax,-0x4(%rbp)
    a5f4:	7c 0a                	jl     a600 <safe_add_func_int32_t_s_s+0x4a>
    a5f6:	8b 55 fc             	mov    -0x4(%rbp),%edx
    a5f9:	8b 45 f8             	mov    -0x8(%rbp),%eax
    a5fc:	01 d0                	add    %edx,%eax
    a5fe:	eb 03                	jmp    a603 <safe_add_func_int32_t_s_s+0x4d>
    a600:	8b 45 fc             	mov    -0x4(%rbp),%eax
    a603:	5d                   	pop    %rbp
    a604:	c3                   	retq   

000000000000a605 <safe_sub_func_int32_t_s_s>:
    a605:	f3 0f 1e fa          	endbr64 
    a609:	55                   	push   %rbp
    a60a:	48 89 e5             	mov    %rsp,%rbp
    a60d:	89 7d fc             	mov    %edi,-0x4(%rbp)
    a610:	89 75 f8             	mov    %esi,-0x8(%rbp)
    a613:	8b 45 fc             	mov    -0x4(%rbp),%eax
    a616:	33 45 f8             	xor    -0x8(%rbp),%eax
    a619:	89 c2                	mov    %eax,%edx
    a61b:	8b 45 fc             	mov    -0x4(%rbp),%eax
    a61e:	33 45 f8             	xor    -0x8(%rbp),%eax
    a621:	25 00 00 00 80       	and    $0x80000000,%eax
    a626:	33 45 fc             	xor    -0x4(%rbp),%eax
    a629:	2b 45 f8             	sub    -0x8(%rbp),%eax
    a62c:	33 45 f8             	xor    -0x8(%rbp),%eax
    a62f:	21 d0                	and    %edx,%eax
    a631:	85 c0                	test   %eax,%eax
    a633:	78 08                	js     a63d <safe_sub_func_int32_t_s_s+0x38>
    a635:	8b 45 fc             	mov    -0x4(%rbp),%eax
    a638:	2b 45 f8             	sub    -0x8(%rbp),%eax
    a63b:	eb 03                	jmp    a640 <safe_sub_func_int32_t_s_s+0x3b>
    a63d:	8b 45 fc             	mov    -0x4(%rbp),%eax
    a640:	5d                   	pop    %rbp
    a641:	c3                   	retq   

000000000000a642 <safe_mul_func_int32_t_s_s>:
    a642:	f3 0f 1e fa          	endbr64 
    a646:	55                   	push   %rbp
    a647:	48 89 e5             	mov    %rsp,%rbp
    a64a:	89 7d fc             	mov    %edi,-0x4(%rbp)
    a64d:	89 75 f8             	mov    %esi,-0x8(%rbp)
    a650:	83 7d fc 00          	cmpl   $0x0,-0x4(%rbp)
    a654:	7e 14                	jle    a66a <safe_mul_func_int32_t_s_s+0x28>
    a656:	83 7d f8 00          	cmpl   $0x0,-0x8(%rbp)
    a65a:	7e 0e                	jle    a66a <safe_mul_func_int32_t_s_s+0x28>
    a65c:	b8 ff ff ff 7f       	mov    $0x7fffffff,%eax
    a661:	99                   	cltd   
    a662:	f7 7d f8             	idivl  -0x8(%rbp)
    a665:	39 45 fc             	cmp    %eax,-0x4(%rbp)
    a668:	7f 5d                	jg     a6c7 <safe_mul_func_int32_t_s_s+0x85>
    a66a:	83 7d fc 00          	cmpl   $0x0,-0x4(%rbp)
    a66e:	7e 14                	jle    a684 <safe_mul_func_int32_t_s_s+0x42>
    a670:	83 7d f8 00          	cmpl   $0x0,-0x8(%rbp)
    a674:	7f 0e                	jg     a684 <safe_mul_func_int32_t_s_s+0x42>
    a676:	b8 00 00 00 80       	mov    $0x80000000,%eax
    a67b:	99                   	cltd   
    a67c:	f7 7d fc             	idivl  -0x4(%rbp)
    a67f:	39 45 f8             	cmp    %eax,-0x8(%rbp)
    a682:	7c 43                	jl     a6c7 <safe_mul_func_int32_t_s_s+0x85>
    a684:	83 7d fc 00          	cmpl   $0x0,-0x4(%rbp)
    a688:	7f 14                	jg     a69e <safe_mul_func_int32_t_s_s+0x5c>
    a68a:	83 7d f8 00          	cmpl   $0x0,-0x8(%rbp)
    a68e:	7e 0e                	jle    a69e <safe_mul_func_int32_t_s_s+0x5c>
    a690:	b8 00 00 00 80       	mov    $0x80000000,%eax
    a695:	99                   	cltd   
    a696:	f7 7d f8             	idivl  -0x8(%rbp)
    a699:	39 45 fc             	cmp    %eax,-0x4(%rbp)
    a69c:	7c 29                	jl     a6c7 <safe_mul_func_int32_t_s_s+0x85>
    a69e:	83 7d fc 00          	cmpl   $0x0,-0x4(%rbp)
    a6a2:	7f 1a                	jg     a6be <safe_mul_func_int32_t_s_s+0x7c>
    a6a4:	83 7d f8 00          	cmpl   $0x0,-0x8(%rbp)
    a6a8:	7f 14                	jg     a6be <safe_mul_func_int32_t_s_s+0x7c>
    a6aa:	83 7d fc 00          	cmpl   $0x0,-0x4(%rbp)
    a6ae:	74 0e                	je     a6be <safe_mul_func_int32_t_s_s+0x7c>
    a6b0:	b8 ff ff ff 7f       	mov    $0x7fffffff,%eax
    a6b5:	99                   	cltd   
    a6b6:	f7 7d fc             	idivl  -0x4(%rbp)
    a6b9:	39 45 f8             	cmp    %eax,-0x8(%rbp)
    a6bc:	7c 09                	jl     a6c7 <safe_mul_func_int32_t_s_s+0x85>
    a6be:	8b 45 fc             	mov    -0x4(%rbp),%eax
    a6c1:	0f af 45 f8          	imul   -0x8(%rbp),%eax
    a6c5:	eb 03                	jmp    a6ca <safe_mul_func_int32_t_s_s+0x88>
    a6c7:	8b 45 fc             	mov    -0x4(%rbp),%eax
    a6ca:	5d                   	pop    %rbp
    a6cb:	c3                   	retq   

000000000000a6cc <safe_mod_func_int32_t_s_s>:
    a6cc:	f3 0f 1e fa          	endbr64 
    a6d0:	55                   	push   %rbp
    a6d1:	48 89 e5             	mov    %rsp,%rbp
    a6d4:	89 7d fc             	mov    %edi,-0x4(%rbp)
    a6d7:	89 75 f8             	mov    %esi,-0x8(%rbp)
    a6da:	83 7d f8 00          	cmpl   $0x0,-0x8(%rbp)
    a6de:	74 1a                	je     a6fa <safe_mod_func_int32_t_s_s+0x2e>
    a6e0:	81 7d fc 00 00 00 80 	cmpl   $0x80000000,-0x4(%rbp)
    a6e7:	75 06                	jne    a6ef <safe_mod_func_int32_t_s_s+0x23>
    a6e9:	83 7d f8 ff          	cmpl   $0xffffffff,-0x8(%rbp)
    a6ed:	74 0b                	je     a6fa <safe_mod_func_int32_t_s_s+0x2e>
    a6ef:	8b 45 fc             	mov    -0x4(%rbp),%eax
    a6f2:	99                   	cltd   
    a6f3:	f7 7d f8             	idivl  -0x8(%rbp)
    a6f6:	89 d0                	mov    %edx,%eax
    a6f8:	eb 03                	jmp    a6fd <safe_mod_func_int32_t_s_s+0x31>
    a6fa:	8b 45 fc             	mov    -0x4(%rbp),%eax
    a6fd:	5d                   	pop    %rbp
    a6fe:	c3                   	retq   

000000000000a6ff <safe_div_func_int32_t_s_s>:
    a6ff:	f3 0f 1e fa          	endbr64 
    a703:	55                   	push   %rbp
    a704:	48 89 e5             	mov    %rsp,%rbp
    a707:	89 7d fc             	mov    %edi,-0x4(%rbp)
    a70a:	89 75 f8             	mov    %esi,-0x8(%rbp)
    a70d:	83 7d f8 00          	cmpl   $0x0,-0x8(%rbp)
    a711:	74 18                	je     a72b <safe_div_func_int32_t_s_s+0x2c>
    a713:	81 7d fc 00 00 00 80 	cmpl   $0x80000000,-0x4(%rbp)
    a71a:	75 06                	jne    a722 <safe_div_func_int32_t_s_s+0x23>
    a71c:	83 7d f8 ff          	cmpl   $0xffffffff,-0x8(%rbp)
    a720:	74 09                	je     a72b <safe_div_func_int32_t_s_s+0x2c>
    a722:	8b 45 fc             	mov    -0x4(%rbp),%eax
    a725:	99                   	cltd   
    a726:	f7 7d f8             	idivl  -0x8(%rbp)
    a729:	eb 03                	jmp    a72e <safe_div_func_int32_t_s_s+0x2f>
    a72b:	8b 45 fc             	mov    -0x4(%rbp),%eax
    a72e:	5d                   	pop    %rbp
    a72f:	c3                   	retq   

000000000000a730 <safe_lshift_func_int32_t_s_s>:
    a730:	f3 0f 1e fa          	endbr64 
    a734:	55                   	push   %rbp
    a735:	48 89 e5             	mov    %rsp,%rbp
    a738:	89 7d fc             	mov    %edi,-0x4(%rbp)
    a73b:	89 75 f8             	mov    %esi,-0x8(%rbp)
    a73e:	83 7d fc 00          	cmpl   $0x0,-0x4(%rbp)
    a742:	78 2d                	js     a771 <safe_lshift_func_int32_t_s_s+0x41>
    a744:	83 7d f8 00          	cmpl   $0x0,-0x8(%rbp)
    a748:	78 27                	js     a771 <safe_lshift_func_int32_t_s_s+0x41>
    a74a:	83 7d f8 1f          	cmpl   $0x1f,-0x8(%rbp)
    a74e:	7f 21                	jg     a771 <safe_lshift_func_int32_t_s_s+0x41>
    a750:	8b 45 f8             	mov    -0x8(%rbp),%eax
    a753:	ba ff ff ff 7f       	mov    $0x7fffffff,%edx
    a758:	89 c1                	mov    %eax,%ecx
    a75a:	d3 fa                	sar    %cl,%edx
    a75c:	89 d0                	mov    %edx,%eax
    a75e:	39 45 fc             	cmp    %eax,-0x4(%rbp)
    a761:	7f 0e                	jg     a771 <safe_lshift_func_int32_t_s_s+0x41>
    a763:	8b 45 f8             	mov    -0x8(%rbp),%eax
    a766:	8b 55 fc             	mov    -0x4(%rbp),%edx
    a769:	89 c1                	mov    %eax,%ecx
    a76b:	d3 e2                	shl    %cl,%edx
    a76d:	89 d0                	mov    %edx,%eax
    a76f:	eb 03                	jmp    a774 <safe_lshift_func_int32_t_s_s+0x44>
    a771:	8b 45 fc             	mov    -0x4(%rbp),%eax
    a774:	5d                   	pop    %rbp
    a775:	c3                   	retq   

000000000000a776 <safe_lshift_func_int32_t_s_u>:
    a776:	f3 0f 1e fa          	endbr64 
    a77a:	55                   	push   %rbp
    a77b:	48 89 e5             	mov    %rsp,%rbp
    a77e:	89 7d fc             	mov    %edi,-0x4(%rbp)
    a781:	89 75 f8             	mov    %esi,-0x8(%rbp)
    a784:	83 7d fc 00          	cmpl   $0x0,-0x4(%rbp)
    a788:	78 27                	js     a7b1 <safe_lshift_func_int32_t_s_u+0x3b>
    a78a:	83 7d f8 1f          	cmpl   $0x1f,-0x8(%rbp)
    a78e:	77 21                	ja     a7b1 <safe_lshift_func_int32_t_s_u+0x3b>
    a790:	8b 45 f8             	mov    -0x8(%rbp),%eax
    a793:	ba ff ff ff 7f       	mov    $0x7fffffff,%edx
    a798:	89 c1                	mov    %eax,%ecx
    a79a:	d3 fa                	sar    %cl,%edx
    a79c:	89 d0                	mov    %edx,%eax
    a79e:	39 45 fc             	cmp    %eax,-0x4(%rbp)
    a7a1:	7f 0e                	jg     a7b1 <safe_lshift_func_int32_t_s_u+0x3b>
    a7a3:	8b 45 f8             	mov    -0x8(%rbp),%eax
    a7a6:	8b 55 fc             	mov    -0x4(%rbp),%edx
    a7a9:	89 c1                	mov    %eax,%ecx
    a7ab:	d3 e2                	shl    %cl,%edx
    a7ad:	89 d0                	mov    %edx,%eax
    a7af:	eb 03                	jmp    a7b4 <safe_lshift_func_int32_t_s_u+0x3e>
    a7b1:	8b 45 fc             	mov    -0x4(%rbp),%eax
    a7b4:	5d                   	pop    %rbp
    a7b5:	c3                   	retq   

000000000000a7b6 <safe_rshift_func_int32_t_s_s>:
    a7b6:	f3 0f 1e fa          	endbr64 
    a7ba:	55                   	push   %rbp
    a7bb:	48 89 e5             	mov    %rsp,%rbp
    a7be:	89 7d fc             	mov    %edi,-0x4(%rbp)
    a7c1:	89 75 f8             	mov    %esi,-0x8(%rbp)
    a7c4:	83 7d fc 00          	cmpl   $0x0,-0x4(%rbp)
    a7c8:	78 1a                	js     a7e4 <safe_rshift_func_int32_t_s_s+0x2e>
    a7ca:	83 7d f8 00          	cmpl   $0x0,-0x8(%rbp)
    a7ce:	78 14                	js     a7e4 <safe_rshift_func_int32_t_s_s+0x2e>
    a7d0:	83 7d f8 1f          	cmpl   $0x1f,-0x8(%rbp)
    a7d4:	7f 0e                	jg     a7e4 <safe_rshift_func_int32_t_s_s+0x2e>
    a7d6:	8b 45 f8             	mov    -0x8(%rbp),%eax
    a7d9:	8b 55 fc             	mov    -0x4(%rbp),%edx
    a7dc:	89 c1                	mov    %eax,%ecx
    a7de:	d3 fa                	sar    %cl,%edx
    a7e0:	89 d0                	mov    %edx,%eax
    a7e2:	eb 03                	jmp    a7e7 <safe_rshift_func_int32_t_s_s+0x31>
    a7e4:	8b 45 fc             	mov    -0x4(%rbp),%eax
    a7e7:	5d                   	pop    %rbp
    a7e8:	c3                   	retq   

000000000000a7e9 <safe_rshift_func_int32_t_s_u>:
    a7e9:	f3 0f 1e fa          	endbr64 
    a7ed:	55                   	push   %rbp
    a7ee:	48 89 e5             	mov    %rsp,%rbp
    a7f1:	89 7d fc             	mov    %edi,-0x4(%rbp)
    a7f4:	89 75 f8             	mov    %esi,-0x8(%rbp)
    a7f7:	83 7d fc 00          	cmpl   $0x0,-0x4(%rbp)
    a7fb:	78 14                	js     a811 <safe_rshift_func_int32_t_s_u+0x28>
    a7fd:	83 7d f8 1f          	cmpl   $0x1f,-0x8(%rbp)
    a801:	77 0e                	ja     a811 <safe_rshift_func_int32_t_s_u+0x28>
    a803:	8b 45 f8             	mov    -0x8(%rbp),%eax
    a806:	8b 55 fc             	mov    -0x4(%rbp),%edx
    a809:	89 c1                	mov    %eax,%ecx
    a80b:	d3 fa                	sar    %cl,%edx
    a80d:	89 d0                	mov    %edx,%eax
    a80f:	eb 03                	jmp    a814 <safe_rshift_func_int32_t_s_u+0x2b>
    a811:	8b 45 fc             	mov    -0x4(%rbp),%eax
    a814:	5d                   	pop    %rbp
    a815:	c3                   	retq   

000000000000a816 <safe_unary_minus_func_int64_t_s>:
    a816:	f3 0f 1e fa          	endbr64 
    a81a:	55                   	push   %rbp
    a81b:	48 89 e5             	mov    %rsp,%rbp
    a81e:	48 89 7d f8          	mov    %rdi,-0x8(%rbp)
    a822:	48 b8 00 00 00 00 00 	movabs $0x8000000000000000,%rax
    a829:	00 00 80 
    a82c:	48 39 45 f8          	cmp    %rax,-0x8(%rbp)
    a830:	74 09                	je     a83b <safe_unary_minus_func_int64_t_s+0x25>
    a832:	48 8b 45 f8          	mov    -0x8(%rbp),%rax
    a836:	48 f7 d8             	neg    %rax
    a839:	eb 04                	jmp    a83f <safe_unary_minus_func_int64_t_s+0x29>
    a83b:	48 8b 45 f8          	mov    -0x8(%rbp),%rax
    a83f:	5d                   	pop    %rbp
    a840:	c3                   	retq   

000000000000a841 <safe_add_func_int64_t_s_s>:
    a841:	f3 0f 1e fa          	endbr64 
    a845:	55                   	push   %rbp
    a846:	48 89 e5             	mov    %rsp,%rbp
    a849:	48 89 7d f8          	mov    %rdi,-0x8(%rbp)
    a84d:	48 89 75 f0          	mov    %rsi,-0x10(%rbp)
    a851:	48 83 7d f8 00       	cmpq   $0x0,-0x8(%rbp)
    a856:	7e 1b                	jle    a873 <safe_add_func_int64_t_s_s+0x32>
    a858:	48 83 7d f0 00       	cmpq   $0x0,-0x10(%rbp)
    a85d:	7e 14                	jle    a873 <safe_add_func_int64_t_s_s+0x32>
    a85f:	48 b8 ff ff ff ff ff 	movabs $0x7fffffffffffffff,%rax
    a866:	ff ff 7f 
    a869:	48 2b 45 f0          	sub    -0x10(%rbp),%rax
    a86d:	48 39 45 f8          	cmp    %rax,-0x8(%rbp)
    a871:	7f 2f                	jg     a8a2 <safe_add_func_int64_t_s_s+0x61>
    a873:	48 83 7d f8 00       	cmpq   $0x0,-0x8(%rbp)
    a878:	79 1b                	jns    a895 <safe_add_func_int64_t_s_s+0x54>
    a87a:	48 83 7d f0 00       	cmpq   $0x0,-0x10(%rbp)
    a87f:	79 14                	jns    a895 <safe_add_func_int64_t_s_s+0x54>
    a881:	48 b8 00 00 00 00 00 	movabs $0x8000000000000000,%rax
    a888:	00 00 80 
    a88b:	48 2b 45 f0          	sub    -0x10(%rbp),%rax
    a88f:	48 39 45 f8          	cmp    %rax,-0x8(%rbp)
    a893:	7c 0d                	jl     a8a2 <safe_add_func_int64_t_s_s+0x61>
    a895:	48 8b 55 f8          	mov    -0x8(%rbp),%rdx
    a899:	48 8b 45 f0          	mov    -0x10(%rbp),%rax
    a89d:	48 01 d0             	add    %rdx,%rax
    a8a0:	eb 04                	jmp    a8a6 <safe_add_func_int64_t_s_s+0x65>
    a8a2:	48 8b 45 f8          	mov    -0x8(%rbp),%rax
    a8a6:	5d                   	pop    %rbp
    a8a7:	c3                   	retq   

000000000000a8a8 <safe_sub_func_int64_t_s_s>:
    a8a8:	f3 0f 1e fa          	endbr64 
    a8ac:	55                   	push   %rbp
    a8ad:	48 89 e5             	mov    %rsp,%rbp
    a8b0:	48 89 7d f8          	mov    %rdi,-0x8(%rbp)
    a8b4:	48 89 75 f0          	mov    %rsi,-0x10(%rbp)
    a8b8:	48 8b 45 f8          	mov    -0x8(%rbp),%rax
    a8bc:	48 33 45 f0          	xor    -0x10(%rbp),%rax
    a8c0:	48 89 c2             	mov    %rax,%rdx
    a8c3:	48 8b 45 f8          	mov    -0x8(%rbp),%rax
    a8c7:	48 33 45 f0          	xor    -0x10(%rbp),%rax
    a8cb:	48 b9 00 00 00 00 00 	movabs $0x8000000000000000,%rcx
    a8d2:	00 00 80 
    a8d5:	48 21 c8             	and    %rcx,%rax
    a8d8:	48 33 45 f8          	xor    -0x8(%rbp),%rax
    a8dc:	48 2b 45 f0          	sub    -0x10(%rbp),%rax
    a8e0:	48 33 45 f0          	xor    -0x10(%rbp),%rax
    a8e4:	48 21 d0             	and    %rdx,%rax
    a8e7:	48 85 c0             	test   %rax,%rax
    a8ea:	78 0a                	js     a8f6 <safe_sub_func_int64_t_s_s+0x4e>
    a8ec:	48 8b 45 f8          	mov    -0x8(%rbp),%rax
    a8f0:	48 2b 45 f0          	sub    -0x10(%rbp),%rax
    a8f4:	eb 04                	jmp    a8fa <safe_sub_func_int64_t_s_s+0x52>
    a8f6:	48 8b 45 f8          	mov    -0x8(%rbp),%rax
    a8fa:	5d                   	pop    %rbp
    a8fb:	c3                   	retq   

000000000000a8fc <safe_mul_func_int64_t_s_s>:
    a8fc:	f3 0f 1e fa          	endbr64 
    a900:	55                   	push   %rbp
    a901:	48 89 e5             	mov    %rsp,%rbp
    a904:	48 89 7d f8          	mov    %rdi,-0x8(%rbp)
    a908:	48 89 75 f0          	mov    %rsi,-0x10(%rbp)
    a90c:	48 83 7d f8 00       	cmpq   $0x0,-0x8(%rbp)
    a911:	7e 1d                	jle    a930 <safe_mul_func_int64_t_s_s+0x34>
    a913:	48 83 7d f0 00       	cmpq   $0x0,-0x10(%rbp)
    a918:	7e 16                	jle    a930 <safe_mul_func_int64_t_s_s+0x34>
    a91a:	48 b8 ff ff ff ff ff 	movabs $0x7fffffffffffffff,%rax
    a921:	ff ff 7f 
    a924:	48 99                	cqto   
    a926:	48 f7 7d f0          	idivq  -0x10(%rbp)
    a92a:	48 39 45 f8          	cmp    %rax,-0x8(%rbp)
    a92e:	7f 7e                	jg     a9ae <safe_mul_func_int64_t_s_s+0xb2>
    a930:	48 83 7d f8 00       	cmpq   $0x0,-0x8(%rbp)
    a935:	7e 1d                	jle    a954 <safe_mul_func_int64_t_s_s+0x58>
    a937:	48 83 7d f0 00       	cmpq   $0x0,-0x10(%rbp)
    a93c:	7f 16                	jg     a954 <safe_mul_func_int64_t_s_s+0x58>
    a93e:	48 b8 00 00 00 00 00 	movabs $0x8000000000000000,%rax
    a945:	00 00 80 
    a948:	48 99                	cqto   
    a94a:	48 f7 7d f8          	idivq  -0x8(%rbp)
    a94e:	48 39 45 f0          	cmp    %rax,-0x10(%rbp)
    a952:	7c 5a                	jl     a9ae <safe_mul_func_int64_t_s_s+0xb2>
    a954:	48 83 7d f8 00       	cmpq   $0x0,-0x8(%rbp)
    a959:	7f 1d                	jg     a978 <safe_mul_func_int64_t_s_s+0x7c>
    a95b:	48 83 7d f0 00       	cmpq   $0x0,-0x10(%rbp)
    a960:	7e 16                	jle    a978 <safe_mul_func_int64_t_s_s+0x7c>
    a962:	48 b8 00 00 00 00 00 	movabs $0x8000000000000000,%rax
    a969:	00 00 80 
    a96c:	48 99                	cqto   
    a96e:	48 f7 7d f0          	idivq  -0x10(%rbp)
    a972:	48 39 45 f8          	cmp    %rax,-0x8(%rbp)
    a976:	7c 36                	jl     a9ae <safe_mul_func_int64_t_s_s+0xb2>
    a978:	48 83 7d f8 00       	cmpq   $0x0,-0x8(%rbp)
    a97d:	7f 24                	jg     a9a3 <safe_mul_func_int64_t_s_s+0xa7>
    a97f:	48 83 7d f0 00       	cmpq   $0x0,-0x10(%rbp)
    a984:	7f 1d                	jg     a9a3 <safe_mul_func_int64_t_s_s+0xa7>
    a986:	48 83 7d f8 00       	cmpq   $0x0,-0x8(%rbp)
    a98b:	74 16                	je     a9a3 <safe_mul_func_int64_t_s_s+0xa7>
    a98d:	48 b8 ff ff ff ff ff 	movabs $0x7fffffffffffffff,%rax
    a994:	ff ff 7f 
    a997:	48 99                	cqto   
    a999:	48 f7 7d f8          	idivq  -0x8(%rbp)
    a99d:	48 39 45 f0          	cmp    %rax,-0x10(%rbp)
    a9a1:	7c 0b                	jl     a9ae <safe_mul_func_int64_t_s_s+0xb2>
    a9a3:	48 8b 45 f8          	mov    -0x8(%rbp),%rax
    a9a7:	48 0f af 45 f0       	imul   -0x10(%rbp),%rax
    a9ac:	eb 04                	jmp    a9b2 <safe_mul_func_int64_t_s_s+0xb6>
    a9ae:	48 8b 45 f8          	mov    -0x8(%rbp),%rax
    a9b2:	5d                   	pop    %rbp
    a9b3:	c3                   	retq   

000000000000a9b4 <safe_mod_func_int64_t_s_s>:
    a9b4:	f3 0f 1e fa          	endbr64 
    a9b8:	55                   	push   %rbp
    a9b9:	48 89 e5             	mov    %rsp,%rbp
    a9bc:	48 89 7d f8          	mov    %rdi,-0x8(%rbp)
    a9c0:	48 89 75 f0          	mov    %rsi,-0x10(%rbp)
    a9c4:	48 83 7d f0 00       	cmpq   $0x0,-0x10(%rbp)
    a9c9:	74 26                	je     a9f1 <safe_mod_func_int64_t_s_s+0x3d>
    a9cb:	48 b8 00 00 00 00 00 	movabs $0x8000000000000000,%rax
    a9d2:	00 00 80 
    a9d5:	48 39 45 f8          	cmp    %rax,-0x8(%rbp)
    a9d9:	75 07                	jne    a9e2 <safe_mod_func_int64_t_s_s+0x2e>
    a9db:	48 83 7d f0 ff       	cmpq   $0xffffffffffffffff,-0x10(%rbp)
    a9e0:	74 0f                	je     a9f1 <safe_mod_func_int64_t_s_s+0x3d>
    a9e2:	48 8b 45 f8          	mov    -0x8(%rbp),%rax
    a9e6:	48 99                	cqto   
    a9e8:	48 f7 7d f0          	idivq  -0x10(%rbp)
    a9ec:	48 89 d0             	mov    %rdx,%rax
    a9ef:	eb 04                	jmp    a9f5 <safe_mod_func_int64_t_s_s+0x41>
    a9f1:	48 8b 45 f8          	mov    -0x8(%rbp),%rax
    a9f5:	5d                   	pop    %rbp
    a9f6:	c3                   	retq   

000000000000a9f7 <safe_div_func_int64_t_s_s>:
    a9f7:	f3 0f 1e fa          	endbr64 
    a9fb:	55                   	push   %rbp
    a9fc:	48 89 e5             	mov    %rsp,%rbp
    a9ff:	48 89 7d f8          	mov    %rdi,-0x8(%rbp)
    aa03:	48 89 75 f0          	mov    %rsi,-0x10(%rbp)
    aa07:	48 83 7d f0 00       	cmpq   $0x0,-0x10(%rbp)
    aa0c:	74 23                	je     aa31 <safe_div_func_int64_t_s_s+0x3a>
    aa0e:	48 b8 00 00 00 00 00 	movabs $0x8000000000000000,%rax
    aa15:	00 00 80 
    aa18:	48 39 45 f8          	cmp    %rax,-0x8(%rbp)
    aa1c:	75 07                	jne    aa25 <safe_div_func_int64_t_s_s+0x2e>
    aa1e:	48 83 7d f0 ff       	cmpq   $0xffffffffffffffff,-0x10(%rbp)
    aa23:	74 0c                	je     aa31 <safe_div_func_int64_t_s_s+0x3a>
    aa25:	48 8b 45 f8          	mov    -0x8(%rbp),%rax
    aa29:	48 99                	cqto   
    aa2b:	48 f7 7d f0          	idivq  -0x10(%rbp)
    aa2f:	eb 04                	jmp    aa35 <safe_div_func_int64_t_s_s+0x3e>
    aa31:	48 8b 45 f8          	mov    -0x8(%rbp),%rax
    aa35:	5d                   	pop    %rbp
    aa36:	c3                   	retq   

000000000000aa37 <safe_lshift_func_int64_t_s_s>:
    aa37:	f3 0f 1e fa          	endbr64 
    aa3b:	55                   	push   %rbp
    aa3c:	48 89 e5             	mov    %rsp,%rbp
    aa3f:	48 89 7d f8          	mov    %rdi,-0x8(%rbp)
    aa43:	89 75 f4             	mov    %esi,-0xc(%rbp)
    aa46:	48 83 7d f8 00       	cmpq   $0x0,-0x8(%rbp)
    aa4b:	78 38                	js     aa85 <safe_lshift_func_int64_t_s_s+0x4e>
    aa4d:	83 7d f4 00          	cmpl   $0x0,-0xc(%rbp)
    aa51:	78 32                	js     aa85 <safe_lshift_func_int64_t_s_s+0x4e>
    aa53:	83 7d f4 1f          	cmpl   $0x1f,-0xc(%rbp)
    aa57:	7f 2c                	jg     aa85 <safe_lshift_func_int64_t_s_s+0x4e>
    aa59:	8b 45 f4             	mov    -0xc(%rbp),%eax
    aa5c:	48 ba ff ff ff ff ff 	movabs $0x7fffffffffffffff,%rdx
    aa63:	ff ff 7f 
    aa66:	89 c1                	mov    %eax,%ecx
    aa68:	48 d3 fa             	sar    %cl,%rdx
    aa6b:	48 89 d0             	mov    %rdx,%rax
    aa6e:	48 39 45 f8          	cmp    %rax,-0x8(%rbp)
    aa72:	7f 11                	jg     aa85 <safe_lshift_func_int64_t_s_s+0x4e>
    aa74:	8b 45 f4             	mov    -0xc(%rbp),%eax
    aa77:	48 8b 55 f8          	mov    -0x8(%rbp),%rdx
    aa7b:	89 c1                	mov    %eax,%ecx
    aa7d:	48 d3 e2             	shl    %cl,%rdx
    aa80:	48 89 d0             	mov    %rdx,%rax
    aa83:	eb 04                	jmp    aa89 <safe_lshift_func_int64_t_s_s+0x52>
    aa85:	48 8b 45 f8          	mov    -0x8(%rbp),%rax
    aa89:	5d                   	pop    %rbp
    aa8a:	c3                   	retq   

000000000000aa8b <safe_lshift_func_int64_t_s_u>:
    aa8b:	f3 0f 1e fa          	endbr64 
    aa8f:	55                   	push   %rbp
    aa90:	48 89 e5             	mov    %rsp,%rbp
    aa93:	48 89 7d f8          	mov    %rdi,-0x8(%rbp)
    aa97:	89 75 f4             	mov    %esi,-0xc(%rbp)
    aa9a:	48 83 7d f8 00       	cmpq   $0x0,-0x8(%rbp)
    aa9f:	78 32                	js     aad3 <safe_lshift_func_int64_t_s_u+0x48>
    aaa1:	83 7d f4 1f          	cmpl   $0x1f,-0xc(%rbp)
    aaa5:	77 2c                	ja     aad3 <safe_lshift_func_int64_t_s_u+0x48>
    aaa7:	8b 45 f4             	mov    -0xc(%rbp),%eax
    aaaa:	48 ba ff ff ff ff ff 	movabs $0x7fffffffffffffff,%rdx
    aab1:	ff ff 7f 
    aab4:	89 c1                	mov    %eax,%ecx
    aab6:	48 d3 fa             	sar    %cl,%rdx
    aab9:	48 89 d0             	mov    %rdx,%rax
    aabc:	48 39 45 f8          	cmp    %rax,-0x8(%rbp)
    aac0:	7f 11                	jg     aad3 <safe_lshift_func_int64_t_s_u+0x48>
    aac2:	8b 45 f4             	mov    -0xc(%rbp),%eax
    aac5:	48 8b 55 f8          	mov    -0x8(%rbp),%rdx
    aac9:	89 c1                	mov    %eax,%ecx
    aacb:	48 d3 e2             	shl    %cl,%rdx
    aace:	48 89 d0             	mov    %rdx,%rax
    aad1:	eb 04                	jmp    aad7 <safe_lshift_func_int64_t_s_u+0x4c>
    aad3:	48 8b 45 f8          	mov    -0x8(%rbp),%rax
    aad7:	5d                   	pop    %rbp
    aad8:	c3                   	retq   

000000000000aad9 <safe_rshift_func_int64_t_s_s>:
    aad9:	f3 0f 1e fa          	endbr64 
    aadd:	55                   	push   %rbp
    aade:	48 89 e5             	mov    %rsp,%rbp
    aae1:	48 89 7d f8          	mov    %rdi,-0x8(%rbp)
    aae5:	89 75 f4             	mov    %esi,-0xc(%rbp)
    aae8:	48 83 7d f8 00       	cmpq   $0x0,-0x8(%rbp)
    aaed:	78 1d                	js     ab0c <safe_rshift_func_int64_t_s_s+0x33>
    aaef:	83 7d f4 00          	cmpl   $0x0,-0xc(%rbp)
    aaf3:	78 17                	js     ab0c <safe_rshift_func_int64_t_s_s+0x33>
    aaf5:	83 7d f4 1f          	cmpl   $0x1f,-0xc(%rbp)
    aaf9:	7f 11                	jg     ab0c <safe_rshift_func_int64_t_s_s+0x33>
    aafb:	8b 45 f4             	mov    -0xc(%rbp),%eax
    aafe:	48 8b 55 f8          	mov    -0x8(%rbp),%rdx
    ab02:	89 c1                	mov    %eax,%ecx
    ab04:	48 d3 fa             	sar    %cl,%rdx
    ab07:	48 89 d0             	mov    %rdx,%rax
    ab0a:	eb 04                	jmp    ab10 <safe_rshift_func_int64_t_s_s+0x37>
    ab0c:	48 8b 45 f8          	mov    -0x8(%rbp),%rax
    ab10:	5d                   	pop    %rbp
    ab11:	c3                   	retq   

000000000000ab12 <safe_rshift_func_int64_t_s_u>:
    ab12:	f3 0f 1e fa          	endbr64 
    ab16:	55                   	push   %rbp
    ab17:	48 89 e5             	mov    %rsp,%rbp
    ab1a:	48 89 7d f8          	mov    %rdi,-0x8(%rbp)
    ab1e:	89 75 f4             	mov    %esi,-0xc(%rbp)
    ab21:	48 83 7d f8 00       	cmpq   $0x0,-0x8(%rbp)
    ab26:	78 17                	js     ab3f <safe_rshift_func_int64_t_s_u+0x2d>
    ab28:	83 7d f4 1f          	cmpl   $0x1f,-0xc(%rbp)
    ab2c:	77 11                	ja     ab3f <safe_rshift_func_int64_t_s_u+0x2d>
    ab2e:	8b 45 f4             	mov    -0xc(%rbp),%eax
    ab31:	48 8b 55 f8          	mov    -0x8(%rbp),%rdx
    ab35:	89 c1                	mov    %eax,%ecx
    ab37:	48 d3 fa             	sar    %cl,%rdx
    ab3a:	48 89 d0             	mov    %rdx,%rax
    ab3d:	eb 04                	jmp    ab43 <safe_rshift_func_int64_t_s_u+0x31>
    ab3f:	48 8b 45 f8          	mov    -0x8(%rbp),%rax
    ab43:	5d                   	pop    %rbp
    ab44:	c3                   	retq   

000000000000ab45 <safe_unary_minus_func_uint8_t_u>:
    ab45:	f3 0f 1e fa          	endbr64 
    ab49:	55                   	push   %rbp
    ab4a:	48 89 e5             	mov    %rsp,%rbp
    ab4d:	89 f8                	mov    %edi,%eax
    ab4f:	88 45 fc             	mov    %al,-0x4(%rbp)
    ab52:	0f b6 45 fc          	movzbl -0x4(%rbp),%eax
    ab56:	f7 d8                	neg    %eax
    ab58:	5d                   	pop    %rbp
    ab59:	c3                   	retq   

000000000000ab5a <safe_add_func_uint8_t_u_u>:
    ab5a:	f3 0f 1e fa          	endbr64 
    ab5e:	55                   	push   %rbp
    ab5f:	48 89 e5             	mov    %rsp,%rbp
    ab62:	89 fa                	mov    %edi,%edx
    ab64:	89 f0                	mov    %esi,%eax
    ab66:	88 55 fc             	mov    %dl,-0x4(%rbp)
    ab69:	88 45 f8             	mov    %al,-0x8(%rbp)
    ab6c:	0f b6 55 fc          	movzbl -0x4(%rbp),%edx
    ab70:	0f b6 45 f8          	movzbl -0x8(%rbp),%eax
    ab74:	01 d0                	add    %edx,%eax
    ab76:	5d                   	pop    %rbp
    ab77:	c3                   	retq   

000000000000ab78 <safe_sub_func_uint8_t_u_u>:
    ab78:	f3 0f 1e fa          	endbr64 
    ab7c:	55                   	push   %rbp
    ab7d:	48 89 e5             	mov    %rsp,%rbp
    ab80:	89 fa                	mov    %edi,%edx
    ab82:	89 f0                	mov    %esi,%eax
    ab84:	88 55 fc             	mov    %dl,-0x4(%rbp)
    ab87:	88 45 f8             	mov    %al,-0x8(%rbp)
    ab8a:	0f b6 45 fc          	movzbl -0x4(%rbp),%eax
    ab8e:	2a 45 f8             	sub    -0x8(%rbp),%al
    ab91:	5d                   	pop    %rbp
    ab92:	c3                   	retq   

000000000000ab93 <safe_mul_func_uint8_t_u_u>:
    ab93:	f3 0f 1e fa          	endbr64 
    ab97:	55                   	push   %rbp
    ab98:	48 89 e5             	mov    %rsp,%rbp
    ab9b:	89 fa                	mov    %edi,%edx
    ab9d:	89 f0                	mov    %esi,%eax
    ab9f:	88 55 fc             	mov    %dl,-0x4(%rbp)
    aba2:	88 45 f8             	mov    %al,-0x8(%rbp)
    aba5:	0f b6 45 fc          	movzbl -0x4(%rbp),%eax
    aba9:	f6 65 f8             	mulb   -0x8(%rbp)
    abac:	5d                   	pop    %rbp
    abad:	c3                   	retq   

000000000000abae <safe_mod_func_uint8_t_u_u>:
    abae:	f3 0f 1e fa          	endbr64 
    abb2:	55                   	push   %rbp
    abb3:	48 89 e5             	mov    %rsp,%rbp
    abb6:	89 fa                	mov    %edi,%edx
    abb8:	89 f0                	mov    %esi,%eax
    abba:	88 55 fc             	mov    %dl,-0x4(%rbp)
    abbd:	88 45 f8             	mov    %al,-0x8(%rbp)
    abc0:	80 7d f8 00          	cmpb   $0x0,-0x8(%rbp)
    abc4:	74 0f                	je     abd5 <safe_mod_func_uint8_t_u_u+0x27>
    abc6:	0f b6 45 fc          	movzbl -0x4(%rbp),%eax
    abca:	0f b6 c0             	movzbl %al,%eax
    abcd:	f6 75 f8             	divb   -0x8(%rbp)
    abd0:	0f b6 c4             	movzbl %ah,%eax
    abd3:	eb 04                	jmp    abd9 <safe_mod_func_uint8_t_u_u+0x2b>
    abd5:	0f b6 45 fc          	movzbl -0x4(%rbp),%eax
    abd9:	5d                   	pop    %rbp
    abda:	c3                   	retq   

000000000000abdb <safe_div_func_uint8_t_u_u>:
    abdb:	f3 0f 1e fa          	endbr64 
    abdf:	55                   	push   %rbp
    abe0:	48 89 e5             	mov    %rsp,%rbp
    abe3:	89 fa                	mov    %edi,%edx
    abe5:	89 f0                	mov    %esi,%eax
    abe7:	88 55 fc             	mov    %dl,-0x4(%rbp)
    abea:	88 45 f8             	mov    %al,-0x8(%rbp)
    abed:	80 7d f8 00          	cmpb   $0x0,-0x8(%rbp)
    abf1:	74 0c                	je     abff <safe_div_func_uint8_t_u_u+0x24>
    abf3:	0f b6 45 fc          	movzbl -0x4(%rbp),%eax
    abf7:	0f b6 c0             	movzbl %al,%eax
    abfa:	f6 75 f8             	divb   -0x8(%rbp)
    abfd:	eb 04                	jmp    ac03 <safe_div_func_uint8_t_u_u+0x28>
    abff:	0f b6 45 fc          	movzbl -0x4(%rbp),%eax
    ac03:	5d                   	pop    %rbp
    ac04:	c3                   	retq   

000000000000ac05 <safe_lshift_func_uint8_t_u_s>:
    ac05:	f3 0f 1e fa          	endbr64 
    ac09:	55                   	push   %rbp
    ac0a:	48 89 e5             	mov    %rsp,%rbp
    ac0d:	89 f8                	mov    %edi,%eax
    ac0f:	89 75 f8             	mov    %esi,-0x8(%rbp)
    ac12:	88 45 fc             	mov    %al,-0x4(%rbp)
    ac15:	83 7d f8 00          	cmpl   $0x0,-0x8(%rbp)
    ac19:	78 2b                	js     ac46 <safe_lshift_func_uint8_t_u_s+0x41>
    ac1b:	83 7d f8 1f          	cmpl   $0x1f,-0x8(%rbp)
    ac1f:	7f 25                	jg     ac46 <safe_lshift_func_uint8_t_u_s+0x41>
    ac21:	0f b6 55 fc          	movzbl -0x4(%rbp),%edx
    ac25:	8b 45 f8             	mov    -0x8(%rbp),%eax
    ac28:	be ff 00 00 00       	mov    $0xff,%esi
    ac2d:	89 c1                	mov    %eax,%ecx
    ac2f:	d3 fe                	sar    %cl,%esi
    ac31:	89 f0                	mov    %esi,%eax
    ac33:	39 c2                	cmp    %eax,%edx
    ac35:	7f 0f                	jg     ac46 <safe_lshift_func_uint8_t_u_s+0x41>
    ac37:	0f b6 55 fc          	movzbl -0x4(%rbp),%edx
    ac3b:	8b 45 f8             	mov    -0x8(%rbp),%eax
    ac3e:	89 c1                	mov    %eax,%ecx
    ac40:	d3 e2                	shl    %cl,%edx
    ac42:	89 d0                	mov    %edx,%eax
    ac44:	eb 04                	jmp    ac4a <safe_lshift_func_uint8_t_u_s+0x45>
    ac46:	0f b6 45 fc          	movzbl -0x4(%rbp),%eax
    ac4a:	5d                   	pop    %rbp
    ac4b:	c3                   	retq   

000000000000ac4c <safe_lshift_func_uint8_t_u_u>:
    ac4c:	f3 0f 1e fa          	endbr64 
    ac50:	55                   	push   %rbp
    ac51:	48 89 e5             	mov    %rsp,%rbp
    ac54:	89 f8                	mov    %edi,%eax
    ac56:	89 75 f8             	mov    %esi,-0x8(%rbp)
    ac59:	88 45 fc             	mov    %al,-0x4(%rbp)
    ac5c:	83 7d f8 1f          	cmpl   $0x1f,-0x8(%rbp)
    ac60:	77 25                	ja     ac87 <safe_lshift_func_uint8_t_u_u+0x3b>
    ac62:	0f b6 55 fc          	movzbl -0x4(%rbp),%edx
    ac66:	8b 45 f8             	mov    -0x8(%rbp),%eax
    ac69:	be ff 00 00 00       	mov    $0xff,%esi
    ac6e:	89 c1                	mov    %eax,%ecx
    ac70:	d3 fe                	sar    %cl,%esi
    ac72:	89 f0                	mov    %esi,%eax
    ac74:	39 c2                	cmp    %eax,%edx
    ac76:	7f 0f                	jg     ac87 <safe_lshift_func_uint8_t_u_u+0x3b>
    ac78:	0f b6 55 fc          	movzbl -0x4(%rbp),%edx
    ac7c:	8b 45 f8             	mov    -0x8(%rbp),%eax
    ac7f:	89 c1                	mov    %eax,%ecx
    ac81:	d3 e2                	shl    %cl,%edx
    ac83:	89 d0                	mov    %edx,%eax
    ac85:	eb 04                	jmp    ac8b <safe_lshift_func_uint8_t_u_u+0x3f>
    ac87:	0f b6 45 fc          	movzbl -0x4(%rbp),%eax
    ac8b:	5d                   	pop    %rbp
    ac8c:	c3                   	retq   

000000000000ac8d <safe_rshift_func_uint8_t_u_s>:
    ac8d:	f3 0f 1e fa          	endbr64 
    ac91:	55                   	push   %rbp
    ac92:	48 89 e5             	mov    %rsp,%rbp
    ac95:	89 f8                	mov    %edi,%eax
    ac97:	89 75 f8             	mov    %esi,-0x8(%rbp)
    ac9a:	88 45 fc             	mov    %al,-0x4(%rbp)
    ac9d:	83 7d f8 00          	cmpl   $0x0,-0x8(%rbp)
    aca1:	78 15                	js     acb8 <safe_rshift_func_uint8_t_u_s+0x2b>
    aca3:	83 7d f8 1f          	cmpl   $0x1f,-0x8(%rbp)
    aca7:	7f 0f                	jg     acb8 <safe_rshift_func_uint8_t_u_s+0x2b>
    aca9:	0f b6 55 fc          	movzbl -0x4(%rbp),%edx
    acad:	8b 45 f8             	mov    -0x8(%rbp),%eax
    acb0:	89 c1                	mov    %eax,%ecx
    acb2:	d3 fa                	sar    %cl,%edx
    acb4:	89 d0                	mov    %edx,%eax
    acb6:	eb 04                	jmp    acbc <safe_rshift_func_uint8_t_u_s+0x2f>
    acb8:	0f b6 45 fc          	movzbl -0x4(%rbp),%eax
    acbc:	5d                   	pop    %rbp
    acbd:	c3                   	retq   

000000000000acbe <safe_rshift_func_uint8_t_u_u>:
    acbe:	f3 0f 1e fa          	endbr64 
    acc2:	55                   	push   %rbp
    acc3:	48 89 e5             	mov    %rsp,%rbp
    acc6:	89 f8                	mov    %edi,%eax
    acc8:	89 75 f8             	mov    %esi,-0x8(%rbp)
    accb:	88 45 fc             	mov    %al,-0x4(%rbp)
    acce:	83 7d f8 1f          	cmpl   $0x1f,-0x8(%rbp)
    acd2:	77 0f                	ja     ace3 <safe_rshift_func_uint8_t_u_u+0x25>
    acd4:	0f b6 55 fc          	movzbl -0x4(%rbp),%edx
    acd8:	8b 45 f8             	mov    -0x8(%rbp),%eax
    acdb:	89 c1                	mov    %eax,%ecx
    acdd:	d3 fa                	sar    %cl,%edx
    acdf:	89 d0                	mov    %edx,%eax
    ace1:	eb 04                	jmp    ace7 <safe_rshift_func_uint8_t_u_u+0x29>
    ace3:	0f b6 45 fc          	movzbl -0x4(%rbp),%eax
    ace7:	5d                   	pop    %rbp
    ace8:	c3                   	retq   

000000000000ace9 <safe_unary_minus_func_uint16_t_u>:
    ace9:	f3 0f 1e fa          	endbr64 
    aced:	55                   	push   %rbp
    acee:	48 89 e5             	mov    %rsp,%rbp
    acf1:	89 f8                	mov    %edi,%eax
    acf3:	66 89 45 fc          	mov    %ax,-0x4(%rbp)
    acf7:	0f b7 45 fc          	movzwl -0x4(%rbp),%eax
    acfb:	f7 d8                	neg    %eax
    acfd:	5d                   	pop    %rbp
    acfe:	c3                   	retq   

000000000000acff <safe_add_func_uint16_t_u_u>:
    acff:	f3 0f 1e fa          	endbr64 
    ad03:	55                   	push   %rbp
    ad04:	48 89 e5             	mov    %rsp,%rbp
    ad07:	89 fa                	mov    %edi,%edx
    ad09:	89 f0                	mov    %esi,%eax
    ad0b:	66 89 55 fc          	mov    %dx,-0x4(%rbp)
    ad0f:	66 89 45 f8          	mov    %ax,-0x8(%rbp)
    ad13:	0f b7 55 fc          	movzwl -0x4(%rbp),%edx
    ad17:	0f b7 45 f8          	movzwl -0x8(%rbp),%eax
    ad1b:	01 d0                	add    %edx,%eax
    ad1d:	5d                   	pop    %rbp
    ad1e:	c3                   	retq   

000000000000ad1f <safe_sub_func_uint16_t_u_u>:
    ad1f:	f3 0f 1e fa          	endbr64 
    ad23:	55                   	push   %rbp
    ad24:	48 89 e5             	mov    %rsp,%rbp
    ad27:	89 fa                	mov    %edi,%edx
    ad29:	89 f0                	mov    %esi,%eax
    ad2b:	66 89 55 fc          	mov    %dx,-0x4(%rbp)
    ad2f:	66 89 45 f8          	mov    %ax,-0x8(%rbp)
    ad33:	0f b7 45 fc          	movzwl -0x4(%rbp),%eax
    ad37:	66 2b 45 f8          	sub    -0x8(%rbp),%ax
    ad3b:	5d                   	pop    %rbp
    ad3c:	c3                   	retq   

000000000000ad3d <safe_mul_func_uint16_t_u_u>:
    ad3d:	f3 0f 1e fa          	endbr64 
    ad41:	55                   	push   %rbp
    ad42:	48 89 e5             	mov    %rsp,%rbp
    ad45:	89 fa                	mov    %edi,%edx
    ad47:	89 f0                	mov    %esi,%eax
    ad49:	66 89 55 fc          	mov    %dx,-0x4(%rbp)
    ad4d:	66 89 45 f8          	mov    %ax,-0x8(%rbp)
    ad51:	0f b7 45 fc          	movzwl -0x4(%rbp),%eax
    ad55:	66 0f af 45 f8       	imul   -0x8(%rbp),%ax
    ad5a:	5d                   	pop    %rbp
    ad5b:	c3                   	retq   

000000000000ad5c <safe_mod_func_uint16_t_u_u>:
    ad5c:	f3 0f 1e fa          	endbr64 
    ad60:	55                   	push   %rbp
    ad61:	48 89 e5             	mov    %rsp,%rbp
    ad64:	89 fa                	mov    %edi,%edx
    ad66:	89 f0                	mov    %esi,%eax
    ad68:	66 89 55 fc          	mov    %dx,-0x4(%rbp)
    ad6c:	66 89 45 f8          	mov    %ax,-0x8(%rbp)
    ad70:	66 83 7d f8 00       	cmpw   $0x0,-0x8(%rbp)
    ad75:	74 11                	je     ad88 <safe_mod_func_uint16_t_u_u+0x2c>
    ad77:	0f b7 45 fc          	movzwl -0x4(%rbp),%eax
    ad7b:	ba 00 00 00 00       	mov    $0x0,%edx
    ad80:	66 f7 75 f8          	divw   -0x8(%rbp)
    ad84:	89 d0                	mov    %edx,%eax
    ad86:	eb 04                	jmp    ad8c <safe_mod_func_uint16_t_u_u+0x30>
    ad88:	0f b7 45 fc          	movzwl -0x4(%rbp),%eax
    ad8c:	5d                   	pop    %rbp
    ad8d:	c3                   	retq   

000000000000ad8e <safe_div_func_uint16_t_u_u>:
    ad8e:	f3 0f 1e fa          	endbr64 
    ad92:	55                   	push   %rbp
    ad93:	48 89 e5             	mov    %rsp,%rbp
    ad96:	89 fa                	mov    %edi,%edx
    ad98:	89 f0                	mov    %esi,%eax
    ad9a:	66 89 55 fc          	mov    %dx,-0x4(%rbp)
    ad9e:	66 89 45 f8          	mov    %ax,-0x8(%rbp)
    ada2:	66 83 7d f8 00       	cmpw   $0x0,-0x8(%rbp)
    ada7:	74 0f                	je     adb8 <safe_div_func_uint16_t_u_u+0x2a>
    ada9:	0f b7 45 fc          	movzwl -0x4(%rbp),%eax
    adad:	ba 00 00 00 00       	mov    $0x0,%edx
    adb2:	66 f7 75 f8          	divw   -0x8(%rbp)
    adb6:	eb 04                	jmp    adbc <safe_div_func_uint16_t_u_u+0x2e>
    adb8:	0f b7 45 fc          	movzwl -0x4(%rbp),%eax
    adbc:	5d                   	pop    %rbp
    adbd:	c3                   	retq   

000000000000adbe <safe_lshift_func_uint16_t_u_s>:
    adbe:	f3 0f 1e fa          	endbr64 
    adc2:	55                   	push   %rbp
    adc3:	48 89 e5             	mov    %rsp,%rbp
    adc6:	89 f8                	mov    %edi,%eax
    adc8:	89 75 f8             	mov    %esi,-0x8(%rbp)
    adcb:	66 89 45 fc          	mov    %ax,-0x4(%rbp)
    adcf:	83 7d f8 00          	cmpl   $0x0,-0x8(%rbp)
    add3:	78 2b                	js     ae00 <safe_lshift_func_uint16_t_u_s+0x42>
    add5:	83 7d f8 1f          	cmpl   $0x1f,-0x8(%rbp)
    add9:	7f 25                	jg     ae00 <safe_lshift_func_uint16_t_u_s+0x42>
    addb:	0f b7 55 fc          	movzwl -0x4(%rbp),%edx
    addf:	8b 45 f8             	mov    -0x8(%rbp),%eax
    ade2:	be ff ff 00 00       	mov    $0xffff,%esi
    ade7:	89 c1                	mov    %eax,%ecx
    ade9:	d3 fe                	sar    %cl,%esi
    adeb:	89 f0                	mov    %esi,%eax
    aded:	39 c2                	cmp    %eax,%edx
    adef:	7f 0f                	jg     ae00 <safe_lshift_func_uint16_t_u_s+0x42>
    adf1:	0f b7 55 fc          	movzwl -0x4(%rbp),%edx
    adf5:	8b 45 f8             	mov    -0x8(%rbp),%eax
    adf8:	89 c1                	mov    %eax,%ecx
    adfa:	d3 e2                	shl    %cl,%edx
    adfc:	89 d0                	mov    %edx,%eax
    adfe:	eb 04                	jmp    ae04 <safe_lshift_func_uint16_t_u_s+0x46>
    ae00:	0f b7 45 fc          	movzwl -0x4(%rbp),%eax
    ae04:	5d                   	pop    %rbp
    ae05:	c3                   	retq   

000000000000ae06 <safe_lshift_func_uint16_t_u_u>:
    ae06:	f3 0f 1e fa          	endbr64 
    ae0a:	55                   	push   %rbp
    ae0b:	48 89 e5             	mov    %rsp,%rbp
    ae0e:	89 f8                	mov    %edi,%eax
    ae10:	89 75 f8             	mov    %esi,-0x8(%rbp)
    ae13:	66 89 45 fc          	mov    %ax,-0x4(%rbp)
    ae17:	83 7d f8 1f          	cmpl   $0x1f,-0x8(%rbp)
    ae1b:	77 25                	ja     ae42 <safe_lshift_func_uint16_t_u_u+0x3c>
    ae1d:	0f b7 55 fc          	movzwl -0x4(%rbp),%edx
    ae21:	8b 45 f8             	mov    -0x8(%rbp),%eax
    ae24:	be ff ff 00 00       	mov    $0xffff,%esi
    ae29:	89 c1                	mov    %eax,%ecx
    ae2b:	d3 fe                	sar    %cl,%esi
    ae2d:	89 f0                	mov    %esi,%eax
    ae2f:	39 c2                	cmp    %eax,%edx
    ae31:	7f 0f                	jg     ae42 <safe_lshift_func_uint16_t_u_u+0x3c>
    ae33:	0f b7 55 fc          	movzwl -0x4(%rbp),%edx
    ae37:	8b 45 f8             	mov    -0x8(%rbp),%eax
    ae3a:	89 c1                	mov    %eax,%ecx
    ae3c:	d3 e2                	shl    %cl,%edx
    ae3e:	89 d0                	mov    %edx,%eax
    ae40:	eb 04                	jmp    ae46 <safe_lshift_func_uint16_t_u_u+0x40>
    ae42:	0f b7 45 fc          	movzwl -0x4(%rbp),%eax
    ae46:	5d                   	pop    %rbp
    ae47:	c3                   	retq   

000000000000ae48 <safe_rshift_func_uint16_t_u_s>:
    ae48:	f3 0f 1e fa          	endbr64 
    ae4c:	55                   	push   %rbp
    ae4d:	48 89 e5             	mov    %rsp,%rbp
    ae50:	89 f8                	mov    %edi,%eax
    ae52:	89 75 f8             	mov    %esi,-0x8(%rbp)
    ae55:	66 89 45 fc          	mov    %ax,-0x4(%rbp)
    ae59:	83 7d f8 00          	cmpl   $0x0,-0x8(%rbp)
    ae5d:	78 15                	js     ae74 <safe_rshift_func_uint16_t_u_s+0x2c>
    ae5f:	83 7d f8 1f          	cmpl   $0x1f,-0x8(%rbp)
    ae63:	7f 0f                	jg     ae74 <safe_rshift_func_uint16_t_u_s+0x2c>
    ae65:	0f b7 55 fc          	movzwl -0x4(%rbp),%edx
    ae69:	8b 45 f8             	mov    -0x8(%rbp),%eax
    ae6c:	89 c1                	mov    %eax,%ecx
    ae6e:	d3 fa                	sar    %cl,%edx
    ae70:	89 d0                	mov    %edx,%eax
    ae72:	eb 04                	jmp    ae78 <safe_rshift_func_uint16_t_u_s+0x30>
    ae74:	0f b7 45 fc          	movzwl -0x4(%rbp),%eax
    ae78:	5d                   	pop    %rbp
    ae79:	c3                   	retq   

000000000000ae7a <safe_rshift_func_uint16_t_u_u>:
    ae7a:	f3 0f 1e fa          	endbr64 
    ae7e:	55                   	push   %rbp
    ae7f:	48 89 e5             	mov    %rsp,%rbp
    ae82:	89 f8                	mov    %edi,%eax
    ae84:	89 75 f8             	mov    %esi,-0x8(%rbp)
    ae87:	66 89 45 fc          	mov    %ax,-0x4(%rbp)
    ae8b:	83 7d f8 1f          	cmpl   $0x1f,-0x8(%rbp)
    ae8f:	77 0f                	ja     aea0 <safe_rshift_func_uint16_t_u_u+0x26>
    ae91:	0f b7 55 fc          	movzwl -0x4(%rbp),%edx
    ae95:	8b 45 f8             	mov    -0x8(%rbp),%eax
    ae98:	89 c1                	mov    %eax,%ecx
    ae9a:	d3 fa                	sar    %cl,%edx
    ae9c:	89 d0                	mov    %edx,%eax
    ae9e:	eb 04                	jmp    aea4 <safe_rshift_func_uint16_t_u_u+0x2a>
    aea0:	0f b7 45 fc          	movzwl -0x4(%rbp),%eax
    aea4:	5d                   	pop    %rbp
    aea5:	c3                   	retq   

000000000000aea6 <safe_unary_minus_func_uint32_t_u>:
    aea6:	f3 0f 1e fa          	endbr64 
    aeaa:	55                   	push   %rbp
    aeab:	48 89 e5             	mov    %rsp,%rbp
    aeae:	89 7d fc             	mov    %edi,-0x4(%rbp)
    aeb1:	8b 45 fc             	mov    -0x4(%rbp),%eax
    aeb4:	f7 d8                	neg    %eax
    aeb6:	5d                   	pop    %rbp
    aeb7:	c3                   	retq   

000000000000aeb8 <safe_add_func_uint32_t_u_u>:
    aeb8:	f3 0f 1e fa          	endbr64 
    aebc:	55                   	push   %rbp
    aebd:	48 89 e5             	mov    %rsp,%rbp
    aec0:	89 7d fc             	mov    %edi,-0x4(%rbp)
    aec3:	89 75 f8             	mov    %esi,-0x8(%rbp)
    aec6:	8b 55 fc             	mov    -0x4(%rbp),%edx
    aec9:	8b 45 f8             	mov    -0x8(%rbp),%eax
    aecc:	01 d0                	add    %edx,%eax
    aece:	5d                   	pop    %rbp
    aecf:	c3                   	retq   

000000000000aed0 <safe_sub_func_uint32_t_u_u>:
    aed0:	f3 0f 1e fa          	endbr64 
    aed4:	55                   	push   %rbp
    aed5:	48 89 e5             	mov    %rsp,%rbp
    aed8:	89 7d fc             	mov    %edi,-0x4(%rbp)
    aedb:	89 75 f8             	mov    %esi,-0x8(%rbp)
    aede:	8b 45 fc             	mov    -0x4(%rbp),%eax
    aee1:	2b 45 f8             	sub    -0x8(%rbp),%eax
    aee4:	5d                   	pop    %rbp
    aee5:	c3                   	retq   

000000000000aee6 <safe_mul_func_uint32_t_u_u>:
    aee6:	f3 0f 1e fa          	endbr64 
    aeea:	55                   	push   %rbp
    aeeb:	48 89 e5             	mov    %rsp,%rbp
    aeee:	89 7d fc             	mov    %edi,-0x4(%rbp)
    aef1:	89 75 f8             	mov    %esi,-0x8(%rbp)
    aef4:	8b 45 fc             	mov    -0x4(%rbp),%eax
    aef7:	0f af 45 f8          	imul   -0x8(%rbp),%eax
    aefb:	5d                   	pop    %rbp
    aefc:	c3                   	retq   

000000000000aefd <safe_mod_func_uint32_t_u_u>:
    aefd:	f3 0f 1e fa          	endbr64 
    af01:	55                   	push   %rbp
    af02:	48 89 e5             	mov    %rsp,%rbp
    af05:	89 7d fc             	mov    %edi,-0x4(%rbp)
    af08:	89 75 f8             	mov    %esi,-0x8(%rbp)
    af0b:	83 7d f8 00          	cmpl   $0x0,-0x8(%rbp)
    af0f:	74 0f                	je     af20 <safe_mod_func_uint32_t_u_u+0x23>
    af11:	8b 45 fc             	mov    -0x4(%rbp),%eax
    af14:	ba 00 00 00 00       	mov    $0x0,%edx
    af19:	f7 75 f8             	divl   -0x8(%rbp)
    af1c:	89 d0                	mov    %edx,%eax
    af1e:	eb 03                	jmp    af23 <safe_mod_func_uint32_t_u_u+0x26>
    af20:	8b 45 fc             	mov    -0x4(%rbp),%eax
    af23:	5d                   	pop    %rbp
    af24:	c3                   	retq   

000000000000af25 <safe_div_func_uint32_t_u_u>:
    af25:	f3 0f 1e fa          	endbr64 
    af29:	55                   	push   %rbp
    af2a:	48 89 e5             	mov    %rsp,%rbp
    af2d:	89 7d fc             	mov    %edi,-0x4(%rbp)
    af30:	89 75 f8             	mov    %esi,-0x8(%rbp)
    af33:	83 7d f8 00          	cmpl   $0x0,-0x8(%rbp)
    af37:	74 0d                	je     af46 <safe_div_func_uint32_t_u_u+0x21>
    af39:	8b 45 fc             	mov    -0x4(%rbp),%eax
    af3c:	ba 00 00 00 00       	mov    $0x0,%edx
    af41:	f7 75 f8             	divl   -0x8(%rbp)
    af44:	eb 03                	jmp    af49 <safe_div_func_uint32_t_u_u+0x24>
    af46:	8b 45 fc             	mov    -0x4(%rbp),%eax
    af49:	5d                   	pop    %rbp
    af4a:	c3                   	retq   

000000000000af4b <safe_lshift_func_uint32_t_u_s>:
    af4b:	f3 0f 1e fa          	endbr64 
    af4f:	55                   	push   %rbp
    af50:	48 89 e5             	mov    %rsp,%rbp
    af53:	89 7d fc             	mov    %edi,-0x4(%rbp)
    af56:	89 75 f8             	mov    %esi,-0x8(%rbp)
    af59:	83 7d f8 00          	cmpl   $0x0,-0x8(%rbp)
    af5d:	78 27                	js     af86 <safe_lshift_func_uint32_t_u_s+0x3b>
    af5f:	83 7d f8 1f          	cmpl   $0x1f,-0x8(%rbp)
    af63:	7f 21                	jg     af86 <safe_lshift_func_uint32_t_u_s+0x3b>
    af65:	8b 45 f8             	mov    -0x8(%rbp),%eax
    af68:	ba ff ff ff ff       	mov    $0xffffffff,%edx
    af6d:	89 c1                	mov    %eax,%ecx
    af6f:	d3 ea                	shr    %cl,%edx
    af71:	89 d0                	mov    %edx,%eax
    af73:	39 45 fc             	cmp    %eax,-0x4(%rbp)
    af76:	77 0e                	ja     af86 <safe_lshift_func_uint32_t_u_s+0x3b>
    af78:	8b 45 f8             	mov    -0x8(%rbp),%eax
    af7b:	8b 55 fc             	mov    -0x4(%rbp),%edx
    af7e:	89 c1                	mov    %eax,%ecx
    af80:	d3 e2                	shl    %cl,%edx
    af82:	89 d0                	mov    %edx,%eax
    af84:	eb 03                	jmp    af89 <safe_lshift_func_uint32_t_u_s+0x3e>
    af86:	8b 45 fc             	mov    -0x4(%rbp),%eax
    af89:	5d                   	pop    %rbp
    af8a:	c3                   	retq   

000000000000af8b <safe_lshift_func_uint32_t_u_u>:
    af8b:	f3 0f 1e fa          	endbr64 
    af8f:	55                   	push   %rbp
    af90:	48 89 e5             	mov    %rsp,%rbp
    af93:	89 7d fc             	mov    %edi,-0x4(%rbp)
    af96:	89 75 f8             	mov    %esi,-0x8(%rbp)
    af99:	83 7d f8 1f          	cmpl   $0x1f,-0x8(%rbp)
    af9d:	77 21                	ja     afc0 <safe_lshift_func_uint32_t_u_u+0x35>
    af9f:	8b 45 f8             	mov    -0x8(%rbp),%eax
    afa2:	ba ff ff ff ff       	mov    $0xffffffff,%edx
    afa7:	89 c1                	mov    %eax,%ecx
    afa9:	d3 ea                	shr    %cl,%edx
    afab:	89 d0                	mov    %edx,%eax
    afad:	39 45 fc             	cmp    %eax,-0x4(%rbp)
    afb0:	77 0e                	ja     afc0 <safe_lshift_func_uint32_t_u_u+0x35>
    afb2:	8b 45 f8             	mov    -0x8(%rbp),%eax
    afb5:	8b 55 fc             	mov    -0x4(%rbp),%edx
    afb8:	89 c1                	mov    %eax,%ecx
    afba:	d3 e2                	shl    %cl,%edx
    afbc:	89 d0                	mov    %edx,%eax
    afbe:	eb 03                	jmp    afc3 <safe_lshift_func_uint32_t_u_u+0x38>
    afc0:	8b 45 fc             	mov    -0x4(%rbp),%eax
    afc3:	5d                   	pop    %rbp
    afc4:	c3                   	retq   

000000000000afc5 <safe_rshift_func_uint32_t_u_s>:
    afc5:	f3 0f 1e fa          	endbr64 
    afc9:	55                   	push   %rbp
    afca:	48 89 e5             	mov    %rsp,%rbp
    afcd:	89 7d fc             	mov    %edi,-0x4(%rbp)
    afd0:	89 75 f8             	mov    %esi,-0x8(%rbp)
    afd3:	83 7d f8 00          	cmpl   $0x0,-0x8(%rbp)
    afd7:	78 14                	js     afed <safe_rshift_func_uint32_t_u_s+0x28>
    afd9:	83 7d f8 1f          	cmpl   $0x1f,-0x8(%rbp)
    afdd:	7f 0e                	jg     afed <safe_rshift_func_uint32_t_u_s+0x28>
    afdf:	8b 45 f8             	mov    -0x8(%rbp),%eax
    afe2:	8b 55 fc             	mov    -0x4(%rbp),%edx
    afe5:	89 c1                	mov    %eax,%ecx
    afe7:	d3 ea                	shr    %cl,%edx
    afe9:	89 d0                	mov    %edx,%eax
    afeb:	eb 03                	jmp    aff0 <safe_rshift_func_uint32_t_u_s+0x2b>
    afed:	8b 45 fc             	mov    -0x4(%rbp),%eax
    aff0:	5d                   	pop    %rbp
    aff1:	c3                   	retq   

000000000000aff2 <safe_rshift_func_uint32_t_u_u>:
    aff2:	f3 0f 1e fa          	endbr64 
    aff6:	55                   	push   %rbp
    aff7:	48 89 e5             	mov    %rsp,%rbp
    affa:	89 7d fc             	mov    %edi,-0x4(%rbp)
    affd:	89 75 f8             	mov    %esi,-0x8(%rbp)
    b000:	83 7d f8 1f          	cmpl   $0x1f,-0x8(%rbp)
    b004:	77 0e                	ja     b014 <safe_rshift_func_uint32_t_u_u+0x22>
    b006:	8b 45 f8             	mov    -0x8(%rbp),%eax
    b009:	8b 55 fc             	mov    -0x4(%rbp),%edx
    b00c:	89 c1                	mov    %eax,%ecx
    b00e:	d3 ea                	shr    %cl,%edx
    b010:	89 d0                	mov    %edx,%eax
    b012:	eb 03                	jmp    b017 <safe_rshift_func_uint32_t_u_u+0x25>
    b014:	8b 45 fc             	mov    -0x4(%rbp),%eax
    b017:	5d                   	pop    %rbp
    b018:	c3                   	retq   

000000000000b019 <safe_unary_minus_func_uint64_t_u>:
    b019:	f3 0f 1e fa          	endbr64 
    b01d:	55                   	push   %rbp
    b01e:	48 89 e5             	mov    %rsp,%rbp
    b021:	48 89 7d f8          	mov    %rdi,-0x8(%rbp)
    b025:	48 8b 45 f8          	mov    -0x8(%rbp),%rax
    b029:	48 f7 d8             	neg    %rax
    b02c:	5d                   	pop    %rbp
    b02d:	c3                   	retq   

000000000000b02e <safe_add_func_uint64_t_u_u>:
    b02e:	f3 0f 1e fa          	endbr64 
    b032:	55                   	push   %rbp
    b033:	48 89 e5             	mov    %rsp,%rbp
    b036:	48 89 7d f8          	mov    %rdi,-0x8(%rbp)
    b03a:	48 89 75 f0          	mov    %rsi,-0x10(%rbp)
    b03e:	48 8b 55 f8          	mov    -0x8(%rbp),%rdx
    b042:	48 8b 45 f0          	mov    -0x10(%rbp),%rax
    b046:	48 01 d0             	add    %rdx,%rax
    b049:	5d                   	pop    %rbp
    b04a:	c3                   	retq   

000000000000b04b <safe_sub_func_uint64_t_u_u>:
    b04b:	f3 0f 1e fa          	endbr64 
    b04f:	55                   	push   %rbp
    b050:	48 89 e5             	mov    %rsp,%rbp
    b053:	48 89 7d f8          	mov    %rdi,-0x8(%rbp)
    b057:	48 89 75 f0          	mov    %rsi,-0x10(%rbp)
    b05b:	48 8b 45 f8          	mov    -0x8(%rbp),%rax
    b05f:	48 2b 45 f0          	sub    -0x10(%rbp),%rax
    b063:	5d                   	pop    %rbp
    b064:	c3                   	retq   

000000000000b065 <safe_mul_func_uint64_t_u_u>:
    b065:	f3 0f 1e fa          	endbr64 
    b069:	55                   	push   %rbp
    b06a:	48 89 e5             	mov    %rsp,%rbp
    b06d:	48 89 7d f8          	mov    %rdi,-0x8(%rbp)
    b071:	48 89 75 f0          	mov    %rsi,-0x10(%rbp)
    b075:	48 8b 45 f8          	mov    -0x8(%rbp),%rax
    b079:	48 0f af 45 f0       	imul   -0x10(%rbp),%rax
    b07e:	5d                   	pop    %rbp
    b07f:	c3                   	retq   

000000000000b080 <safe_mod_func_uint64_t_u_u>:
    b080:	f3 0f 1e fa          	endbr64 
    b084:	55                   	push   %rbp
    b085:	48 89 e5             	mov    %rsp,%rbp
    b088:	48 89 7d f8          	mov    %rdi,-0x8(%rbp)
    b08c:	48 89 75 f0          	mov    %rsi,-0x10(%rbp)
    b090:	48 83 7d f0 00       	cmpq   $0x0,-0x10(%rbp)
    b095:	74 12                	je     b0a9 <safe_mod_func_uint64_t_u_u+0x29>
    b097:	48 8b 45 f8          	mov    -0x8(%rbp),%rax
    b09b:	ba 00 00 00 00       	mov    $0x0,%edx
    b0a0:	48 f7 75 f0          	divq   -0x10(%rbp)
    b0a4:	48 89 d0             	mov    %rdx,%rax
    b0a7:	eb 04                	jmp    b0ad <safe_mod_func_uint64_t_u_u+0x2d>
    b0a9:	48 8b 45 f8          	mov    -0x8(%rbp),%rax
    b0ad:	5d                   	pop    %rbp
    b0ae:	c3                   	retq   

000000000000b0af <safe_div_func_uint64_t_u_u>:
    b0af:	f3 0f 1e fa          	endbr64 
    b0b3:	55                   	push   %rbp
    b0b4:	48 89 e5             	mov    %rsp,%rbp
    b0b7:	48 89 7d f8          	mov    %rdi,-0x8(%rbp)
    b0bb:	48 89 75 f0          	mov    %rsi,-0x10(%rbp)
    b0bf:	48 83 7d f0 00       	cmpq   $0x0,-0x10(%rbp)
    b0c4:	74 0f                	je     b0d5 <safe_div_func_uint64_t_u_u+0x26>
    b0c6:	48 8b 45 f8          	mov    -0x8(%rbp),%rax
    b0ca:	ba 00 00 00 00       	mov    $0x0,%edx
    b0cf:	48 f7 75 f0          	divq   -0x10(%rbp)
    b0d3:	eb 04                	jmp    b0d9 <safe_div_func_uint64_t_u_u+0x2a>
    b0d5:	48 8b 45 f8          	mov    -0x8(%rbp),%rax
    b0d9:	5d                   	pop    %rbp
    b0da:	c3                   	retq   

000000000000b0db <safe_lshift_func_uint64_t_u_s>:
    b0db:	f3 0f 1e fa          	endbr64 
    b0df:	55                   	push   %rbp
    b0e0:	48 89 e5             	mov    %rsp,%rbp
    b0e3:	48 89 7d f8          	mov    %rdi,-0x8(%rbp)
    b0e7:	89 75 f4             	mov    %esi,-0xc(%rbp)
    b0ea:	83 7d f4 00          	cmpl   $0x0,-0xc(%rbp)
    b0ee:	78 2f                	js     b11f <safe_lshift_func_uint64_t_u_s+0x44>
    b0f0:	83 7d f4 1f          	cmpl   $0x1f,-0xc(%rbp)
    b0f4:	7f 29                	jg     b11f <safe_lshift_func_uint64_t_u_s+0x44>
    b0f6:	8b 45 f4             	mov    -0xc(%rbp),%eax
    b0f9:	48 c7 c2 ff ff ff ff 	mov    $0xffffffffffffffff,%rdx
    b100:	89 c1                	mov    %eax,%ecx
    b102:	48 d3 ea             	shr    %cl,%rdx
    b105:	48 89 d0             	mov    %rdx,%rax
    b108:	48 39 45 f8          	cmp    %rax,-0x8(%rbp)
    b10c:	77 11                	ja     b11f <safe_lshift_func_uint64_t_u_s+0x44>
    b10e:	8b 45 f4             	mov    -0xc(%rbp),%eax
    b111:	48 8b 55 f8          	mov    -0x8(%rbp),%rdx
    b115:	89 c1                	mov    %eax,%ecx
    b117:	48 d3 e2             	shl    %cl,%rdx
    b11a:	48 89 d0             	mov    %rdx,%rax
    b11d:	eb 04                	jmp    b123 <safe_lshift_func_uint64_t_u_s+0x48>
    b11f:	48 8b 45 f8          	mov    -0x8(%rbp),%rax
    b123:	5d                   	pop    %rbp
    b124:	c3                   	retq   

000000000000b125 <safe_lshift_func_uint64_t_u_u>:
    b125:	f3 0f 1e fa          	endbr64 
    b129:	55                   	push   %rbp
    b12a:	48 89 e5             	mov    %rsp,%rbp
    b12d:	48 89 7d f8          	mov    %rdi,-0x8(%rbp)
    b131:	89 75 f4             	mov    %esi,-0xc(%rbp)
    b134:	83 7d f4 1f          	cmpl   $0x1f,-0xc(%rbp)
    b138:	77 29                	ja     b163 <safe_lshift_func_uint64_t_u_u+0x3e>
    b13a:	8b 45 f4             	mov    -0xc(%rbp),%eax
    b13d:	48 c7 c2 ff ff ff ff 	mov    $0xffffffffffffffff,%rdx
    b144:	89 c1                	mov    %eax,%ecx
    b146:	48 d3 ea             	shr    %cl,%rdx
    b149:	48 89 d0             	mov    %rdx,%rax
    b14c:	48 39 45 f8          	cmp    %rax,-0x8(%rbp)
    b150:	77 11                	ja     b163 <safe_lshift_func_uint64_t_u_u+0x3e>
    b152:	8b 45 f4             	mov    -0xc(%rbp),%eax
    b155:	48 8b 55 f8          	mov    -0x8(%rbp),%rdx
    b159:	89 c1                	mov    %eax,%ecx
    b15b:	48 d3 e2             	shl    %cl,%rdx
    b15e:	48 89 d0             	mov    %rdx,%rax
    b161:	eb 04                	jmp    b167 <safe_lshift_func_uint64_t_u_u+0x42>
    b163:	48 8b 45 f8          	mov    -0x8(%rbp),%rax
    b167:	5d                   	pop    %rbp
    b168:	c3                   	retq   

000000000000b169 <safe_rshift_func_uint64_t_u_s>:
    b169:	f3 0f 1e fa          	endbr64 
    b16d:	55                   	push   %rbp
    b16e:	48 89 e5             	mov    %rsp,%rbp
    b171:	48 89 7d f8          	mov    %rdi,-0x8(%rbp)
    b175:	89 75 f4             	mov    %esi,-0xc(%rbp)
    b178:	83 7d f4 00          	cmpl   $0x0,-0xc(%rbp)
    b17c:	78 17                	js     b195 <safe_rshift_func_uint64_t_u_s+0x2c>
    b17e:	83 7d f4 1f          	cmpl   $0x1f,-0xc(%rbp)
    b182:	7f 11                	jg     b195 <safe_rshift_func_uint64_t_u_s+0x2c>
    b184:	8b 45 f4             	mov    -0xc(%rbp),%eax
    b187:	48 8b 55 f8          	mov    -0x8(%rbp),%rdx
    b18b:	89 c1                	mov    %eax,%ecx
    b18d:	48 d3 ea             	shr    %cl,%rdx
    b190:	48 89 d0             	mov    %rdx,%rax
    b193:	eb 04                	jmp    b199 <safe_rshift_func_uint64_t_u_s+0x30>
    b195:	48 8b 45 f8          	mov    -0x8(%rbp),%rax
    b199:	5d                   	pop    %rbp
    b19a:	c3                   	retq   

000000000000b19b <safe_rshift_func_uint64_t_u_u>:
    b19b:	f3 0f 1e fa          	endbr64 
    b19f:	55                   	push   %rbp
    b1a0:	48 89 e5             	mov    %rsp,%rbp
    b1a3:	48 89 7d f8          	mov    %rdi,-0x8(%rbp)
    b1a7:	89 75 f4             	mov    %esi,-0xc(%rbp)
    b1aa:	83 7d f4 1f          	cmpl   $0x1f,-0xc(%rbp)
    b1ae:	77 11                	ja     b1c1 <safe_rshift_func_uint64_t_u_u+0x26>
    b1b0:	8b 45 f4             	mov    -0xc(%rbp),%eax
    b1b3:	48 8b 55 f8          	mov    -0x8(%rbp),%rdx
    b1b7:	89 c1                	mov    %eax,%ecx
    b1b9:	48 d3 ea             	shr    %cl,%rdx
    b1bc:	48 89 d0             	mov    %rdx,%rax
    b1bf:	eb 04                	jmp    b1c5 <safe_rshift_func_uint64_t_u_u+0x2a>
    b1c1:	48 8b 45 f8          	mov    -0x8(%rbp),%rax
    b1c5:	5d                   	pop    %rbp
    b1c6:	c3                   	retq   

000000000000b1c7 <safe_add_func_float_f_f>:
    b1c7:	f3 0f 1e fa          	endbr64 
    b1cb:	55                   	push   %rbp
    b1cc:	48 89 e5             	mov    %rsp,%rbp
    b1cf:	f3 0f 11 45 fc       	movss  %xmm0,-0x4(%rbp)
    b1d4:	f3 0f 11 4d f8       	movss  %xmm1,-0x8(%rbp)
    b1d9:	f3 0f 10 4d fc       	movss  -0x4(%rbp),%xmm1
    b1de:	f3 0f 10 05 de 0e 01 	movss  0x10ede(%rip),%xmm0        # 1c0c4 <l_405.5081+0x24>
    b1e5:	00 
    b1e6:	f3 0f 59 c8          	mulss  %xmm0,%xmm1
    b1ea:	f3 0f 10 55 f8       	movss  -0x8(%rbp),%xmm2
    b1ef:	f3 0f 10 05 cd 0e 01 	movss  0x10ecd(%rip),%xmm0        # 1c0c4 <l_405.5081+0x24>
    b1f6:	00 
    b1f7:	f3 0f 59 c2          	mulss  %xmm2,%xmm0
    b1fb:	f3 0f 58 c1          	addss  %xmm1,%xmm0
    b1ff:	f3 0f 10 0d c9 0e 01 	movss  0x10ec9(%rip),%xmm1        # 1c0d0 <l_405.5081+0x30>
    b206:	00 
    b207:	0f 54 c1             	andps  %xmm1,%xmm0
    b20a:	0f 2f 05 cf 0e 01 00 	comiss 0x10ecf(%rip),%xmm0        # 1c0e0 <l_405.5081+0x40>
    b211:	76 07                	jbe    b21a <safe_add_func_float_f_f+0x53>
    b213:	f3 0f 10 45 fc       	movss  -0x4(%rbp),%xmm0
    b218:	eb 0a                	jmp    b224 <safe_add_func_float_f_f+0x5d>
    b21a:	f3 0f 10 45 fc       	movss  -0x4(%rbp),%xmm0
    b21f:	f3 0f 58 45 f8       	addss  -0x8(%rbp),%xmm0
    b224:	5d                   	pop    %rbp
    b225:	c3                   	retq   

000000000000b226 <safe_sub_func_float_f_f>:
    b226:	f3 0f 1e fa          	endbr64 
    b22a:	55                   	push   %rbp
    b22b:	48 89 e5             	mov    %rsp,%rbp
    b22e:	f3 0f 11 45 fc       	movss  %xmm0,-0x4(%rbp)
    b233:	f3 0f 11 4d f8       	movss  %xmm1,-0x8(%rbp)
    b238:	f3 0f 10 4d fc       	movss  -0x4(%rbp),%xmm1
    b23d:	f3 0f 10 05 7f 0e 01 	movss  0x10e7f(%rip),%xmm0        # 1c0c4 <l_405.5081+0x24>
    b244:	00 
    b245:	f3 0f 59 c1          	mulss  %xmm1,%xmm0
    b249:	f3 0f 10 55 f8       	movss  -0x8(%rbp),%xmm2
    b24e:	f3 0f 10 0d 6e 0e 01 	movss  0x10e6e(%rip),%xmm1        # 1c0c4 <l_405.5081+0x24>
    b255:	00 
    b256:	f3 0f 59 ca          	mulss  %xmm2,%xmm1
    b25a:	f3 0f 5c c1          	subss  %xmm1,%xmm0
    b25e:	f3 0f 10 0d 6a 0e 01 	movss  0x10e6a(%rip),%xmm1        # 1c0d0 <l_405.5081+0x30>
    b265:	00 
    b266:	0f 54 c1             	andps  %xmm1,%xmm0
    b269:	0f 2f 05 70 0e 01 00 	comiss 0x10e70(%rip),%xmm0        # 1c0e0 <l_405.5081+0x40>
    b270:	76 07                	jbe    b279 <safe_sub_func_float_f_f+0x53>
    b272:	f3 0f 10 45 fc       	movss  -0x4(%rbp),%xmm0
    b277:	eb 0a                	jmp    b283 <safe_sub_func_float_f_f+0x5d>
    b279:	f3 0f 10 45 fc       	movss  -0x4(%rbp),%xmm0
    b27e:	f3 0f 5c 45 f8       	subss  -0x8(%rbp),%xmm0
    b283:	5d                   	pop    %rbp
    b284:	c3                   	retq   

000000000000b285 <safe_mul_func_float_f_f>:
    b285:	f3 0f 1e fa          	endbr64 
    b289:	55                   	push   %rbp
    b28a:	48 89 e5             	mov    %rsp,%rbp
    b28d:	f3 0f 11 45 fc       	movss  %xmm0,-0x4(%rbp)
    b292:	f3 0f 11 4d f8       	movss  %xmm1,-0x8(%rbp)
    b297:	f3 0f 10 4d fc       	movss  -0x4(%rbp),%xmm1
    b29c:	f3 0f 10 05 40 0e 01 	movss  0x10e40(%rip),%xmm0        # 1c0e4 <l_405.5081+0x44>
    b2a3:	00 
    b2a4:	f3 0f 59 c8          	mulss  %xmm0,%xmm1
    b2a8:	f3 0f 10 55 f8       	movss  -0x8(%rbp),%xmm2
    b2ad:	f3 0f 10 05 33 0e 01 	movss  0x10e33(%rip),%xmm0        # 1c0e8 <l_405.5081+0x48>
    b2b4:	00 
    b2b5:	f3 0f 59 c2          	mulss  %xmm2,%xmm0
    b2b9:	f3 0f 59 c1          	mulss  %xmm1,%xmm0
    b2bd:	f3 0f 10 0d 0b 0e 01 	movss  0x10e0b(%rip),%xmm1        # 1c0d0 <l_405.5081+0x30>
    b2c4:	00 
    b2c5:	0f 54 c1             	andps  %xmm1,%xmm0
    b2c8:	0f 2f 05 1d 0e 01 00 	comiss 0x10e1d(%rip),%xmm0        # 1c0ec <l_405.5081+0x4c>
    b2cf:	76 07                	jbe    b2d8 <safe_mul_func_float_f_f+0x53>
    b2d1:	f3 0f 10 45 fc       	movss  -0x4(%rbp),%xmm0
    b2d6:	eb 0a                	jmp    b2e2 <safe_mul_func_float_f_f+0x5d>
    b2d8:	f3 0f 10 45 fc       	movss  -0x4(%rbp),%xmm0
    b2dd:	f3 0f 59 45 f8       	mulss  -0x8(%rbp),%xmm0
    b2e2:	5d                   	pop    %rbp
    b2e3:	c3                   	retq   

000000000000b2e4 <safe_div_func_float_f_f>:
    b2e4:	f3 0f 1e fa          	endbr64 
    b2e8:	55                   	push   %rbp
    b2e9:	48 89 e5             	mov    %rsp,%rbp
    b2ec:	f3 0f 11 45 fc       	movss  %xmm0,-0x4(%rbp)
    b2f1:	f3 0f 11 4d f8       	movss  %xmm1,-0x8(%rbp)
    b2f6:	f3 0f 10 45 f8       	movss  -0x8(%rbp),%xmm0
    b2fb:	f3 0f 10 0d cd 0d 01 	movss  0x10dcd(%rip),%xmm1        # 1c0d0 <l_405.5081+0x30>
    b302:	00 
    b303:	0f 54 c8             	andps  %xmm0,%xmm1
    b306:	f3 0f 10 05 e2 0d 01 	movss  0x10de2(%rip),%xmm0        # 1c0f0 <l_405.5081+0x50>
    b30d:	00 
    b30e:	0f 2f c1             	comiss %xmm1,%xmm0
    b311:	0f 97 c0             	seta   %al
    b314:	83 f0 01             	xor    $0x1,%eax
    b317:	84 c0                	test   %al,%al
    b319:	75 56                	jne    b371 <safe_div_func_float_f_f+0x8d>
    b31b:	66 0f ef c0          	pxor   %xmm0,%xmm0
    b31f:	0f 2e 45 f8          	ucomiss -0x8(%rbp),%xmm0
    b323:	7a 0a                	jp     b32f <safe_div_func_float_f_f+0x4b>
    b325:	66 0f ef c0          	pxor   %xmm0,%xmm0
    b329:	0f 2e 45 f8          	ucomiss -0x8(%rbp),%xmm0
    b32d:	74 4e                	je     b37d <safe_div_func_float_f_f+0x99>
    b32f:	f3 0f 10 4d fc       	movss  -0x4(%rbp),%xmm1
    b334:	f3 0f 10 05 b8 0d 01 	movss  0x10db8(%rip),%xmm0        # 1c0f4 <l_405.5081+0x54>
    b33b:	00 
    b33c:	f3 0f 59 c1          	mulss  %xmm1,%xmm0
    b340:	f3 0f 10 55 f8       	movss  -0x8(%rbp),%xmm2
    b345:	f3 0f 10 0d ab 0d 01 	movss  0x10dab(%rip),%xmm1        # 1c0f8 <l_405.5081+0x58>
    b34c:	00 
    b34d:	f3 0f 59 ca          	mulss  %xmm2,%xmm1
    b351:	f3 0f 5e c1          	divss  %xmm1,%xmm0
    b355:	f3 0f 10 0d 73 0d 01 	movss  0x10d73(%rip),%xmm1        # 1c0d0 <l_405.5081+0x30>
    b35c:	00 
    b35d:	0f 54 c1             	andps  %xmm1,%xmm0
    b360:	0f 2f 05 95 0d 01 00 	comiss 0x10d95(%rip),%xmm0        # 1c0fc <l_405.5081+0x5c>
    b367:	0f 97 c0             	seta   %al
    b36a:	83 f0 01             	xor    $0x1,%eax
    b36d:	84 c0                	test   %al,%al
    b36f:	74 0c                	je     b37d <safe_div_func_float_f_f+0x99>
    b371:	f3 0f 10 45 fc       	movss  -0x4(%rbp),%xmm0
    b376:	f3 0f 5e 45 f8       	divss  -0x8(%rbp),%xmm0
    b37b:	eb 05                	jmp    b382 <safe_div_func_float_f_f+0x9e>
    b37d:	f3 0f 10 45 fc       	movss  -0x4(%rbp),%xmm0
    b382:	5d                   	pop    %rbp
    b383:	c3                   	retq   

000000000000b384 <safe_add_func_double_f_f>:
    b384:	f3 0f 1e fa          	endbr64 
    b388:	55                   	push   %rbp
    b389:	48 89 e5             	mov    %rsp,%rbp
    b38c:	f2 0f 11 45 f8       	movsd  %xmm0,-0x8(%rbp)
    b391:	f2 0f 11 4d f0       	movsd  %xmm1,-0x10(%rbp)
    b396:	f2 0f 10 4d f8       	movsd  -0x8(%rbp),%xmm1
    b39b:	f2 0f 10 05 5d 0d 01 	movsd  0x10d5d(%rip),%xmm0        # 1c100 <l_405.5081+0x60>
    b3a2:	00 
    b3a3:	f2 0f 59 c8          	mulsd  %xmm0,%xmm1
    b3a7:	f2 0f 10 55 f0       	movsd  -0x10(%rbp),%xmm2
    b3ac:	f2 0f 10 05 4c 0d 01 	movsd  0x10d4c(%rip),%xmm0        # 1c100 <l_405.5081+0x60>
    b3b3:	00 
    b3b4:	f2 0f 59 c2          	mulsd  %xmm2,%xmm0
    b3b8:	f2 0f 58 c1          	addsd  %xmm1,%xmm0
    b3bc:	f3 0f 7e 0d 4c 0d 01 	movq   0x10d4c(%rip),%xmm1        # 1c110 <l_405.5081+0x70>
    b3c3:	00 
    b3c4:	66 0f 54 c1          	andpd  %xmm1,%xmm0
    b3c8:	66 0f 2f 05 50 0d 01 	comisd 0x10d50(%rip),%xmm0        # 1c120 <l_405.5081+0x80>
    b3cf:	00 
    b3d0:	76 07                	jbe    b3d9 <safe_add_func_double_f_f+0x55>
    b3d2:	f2 0f 10 45 f8       	movsd  -0x8(%rbp),%xmm0
    b3d7:	eb 0a                	jmp    b3e3 <safe_add_func_double_f_f+0x5f>
    b3d9:	f2 0f 10 45 f8       	movsd  -0x8(%rbp),%xmm0
    b3de:	f2 0f 58 45 f0       	addsd  -0x10(%rbp),%xmm0
    b3e3:	5d                   	pop    %rbp
    b3e4:	c3                   	retq   

000000000000b3e5 <safe_sub_func_double_f_f>:
    b3e5:	f3 0f 1e fa          	endbr64 
    b3e9:	55                   	push   %rbp
    b3ea:	48 89 e5             	mov    %rsp,%rbp
    b3ed:	f2 0f 11 45 f8       	movsd  %xmm0,-0x8(%rbp)
    b3f2:	f2 0f 11 4d f0       	movsd  %xmm1,-0x10(%rbp)
    b3f7:	f2 0f 10 4d f8       	movsd  -0x8(%rbp),%xmm1
    b3fc:	f2 0f 10 05 fc 0c 01 	movsd  0x10cfc(%rip),%xmm0        # 1c100 <l_405.5081+0x60>
    b403:	00 
    b404:	f2 0f 59 c1          	mulsd  %xmm1,%xmm0
    b408:	f2 0f 10 55 f0       	movsd  -0x10(%rbp),%xmm2
    b40d:	f2 0f 10 0d eb 0c 01 	movsd  0x10ceb(%rip),%xmm1        # 1c100 <l_405.5081+0x60>
    b414:	00 
    b415:	f2 0f 59 ca          	mulsd  %xmm2,%xmm1
    b419:	f2 0f 5c c1          	subsd  %xmm1,%xmm0
    b41d:	f3 0f 7e 0d eb 0c 01 	movq   0x10ceb(%rip),%xmm1        # 1c110 <l_405.5081+0x70>
    b424:	00 
    b425:	66 0f 54 c1          	andpd  %xmm1,%xmm0
    b429:	66 0f 2f 05 ef 0c 01 	comisd 0x10cef(%rip),%xmm0        # 1c120 <l_405.5081+0x80>
    b430:	00 
    b431:	76 07                	jbe    b43a <safe_sub_func_double_f_f+0x55>
    b433:	f2 0f 10 45 f8       	movsd  -0x8(%rbp),%xmm0
    b438:	eb 0a                	jmp    b444 <safe_sub_func_double_f_f+0x5f>
    b43a:	f2 0f 10 45 f8       	movsd  -0x8(%rbp),%xmm0
    b43f:	f2 0f 5c 45 f0       	subsd  -0x10(%rbp),%xmm0
    b444:	5d                   	pop    %rbp
    b445:	c3                   	retq   

000000000000b446 <safe_mul_func_double_f_f>:
    b446:	f3 0f 1e fa          	endbr64 
    b44a:	55                   	push   %rbp
    b44b:	48 89 e5             	mov    %rsp,%rbp
    b44e:	f2 0f 11 45 f8       	movsd  %xmm0,-0x8(%rbp)
    b453:	f2 0f 11 4d f0       	movsd  %xmm1,-0x10(%rbp)
    b458:	f2 0f 10 4d f8       	movsd  -0x8(%rbp),%xmm1
    b45d:	f2 0f 10 05 c3 0c 01 	movsd  0x10cc3(%rip),%xmm0        # 1c128 <l_405.5081+0x88>
    b464:	00 
    b465:	f2 0f 59 c8          	mulsd  %xmm0,%xmm1
    b469:	f2 0f 10 55 f0       	movsd  -0x10(%rbp),%xmm2
    b46e:	f2 0f 10 05 ba 0c 01 	movsd  0x10cba(%rip),%xmm0        # 1c130 <l_405.5081+0x90>
    b475:	00 
    b476:	f2 0f 59 c2          	mulsd  %xmm2,%xmm0
    b47a:	f2 0f 59 c1          	mulsd  %xmm1,%xmm0
    b47e:	f3 0f 7e 0d 8a 0c 01 	movq   0x10c8a(%rip),%xmm1        # 1c110 <l_405.5081+0x70>
    b485:	00 
    b486:	66 0f 54 c1          	andpd  %xmm1,%xmm0
    b48a:	66 0f 2f 05 a6 0c 01 	comisd 0x10ca6(%rip),%xmm0        # 1c138 <l_405.5081+0x98>
    b491:	00 
    b492:	76 07                	jbe    b49b <safe_mul_func_double_f_f+0x55>
    b494:	f2 0f 10 45 f8       	movsd  -0x8(%rbp),%xmm0
    b499:	eb 0a                	jmp    b4a5 <safe_mul_func_double_f_f+0x5f>
    b49b:	f2 0f 10 45 f8       	movsd  -0x8(%rbp),%xmm0
    b4a0:	f2 0f 59 45 f0       	mulsd  -0x10(%rbp),%xmm0
    b4a5:	5d                   	pop    %rbp
    b4a6:	c3                   	retq   

000000000000b4a7 <safe_div_func_double_f_f>:
    b4a7:	f3 0f 1e fa          	endbr64 
    b4ab:	55                   	push   %rbp
    b4ac:	48 89 e5             	mov    %rsp,%rbp
    b4af:	f2 0f 11 45 f8       	movsd  %xmm0,-0x8(%rbp)
    b4b4:	f2 0f 11 4d f0       	movsd  %xmm1,-0x10(%rbp)
    b4b9:	f2 0f 10 45 f0       	movsd  -0x10(%rbp),%xmm0
    b4be:	f3 0f 7e 0d 4a 0c 01 	movq   0x10c4a(%rip),%xmm1        # 1c110 <l_405.5081+0x70>
    b4c5:	00 
    b4c6:	66 0f 54 c8          	andpd  %xmm0,%xmm1
    b4ca:	f2 0f 10 05 6e 0c 01 	movsd  0x10c6e(%rip),%xmm0        # 1c140 <l_405.5081+0xa0>
    b4d1:	00 
    b4d2:	66 0f 2f c1          	comisd %xmm1,%xmm0
    b4d6:	0f 97 c0             	seta   %al
    b4d9:	83 f0 01             	xor    $0x1,%eax
    b4dc:	84 c0                	test   %al,%al
    b4de:	75 5a                	jne    b53a <safe_div_func_double_f_f+0x93>
    b4e0:	66 0f ef c0          	pxor   %xmm0,%xmm0
    b4e4:	66 0f 2e 45 f0       	ucomisd -0x10(%rbp),%xmm0
    b4e9:	7a 0b                	jp     b4f6 <safe_div_func_double_f_f+0x4f>
    b4eb:	66 0f ef c0          	pxor   %xmm0,%xmm0
    b4ef:	66 0f 2e 45 f0       	ucomisd -0x10(%rbp),%xmm0
    b4f4:	74 50                	je     b546 <safe_div_func_double_f_f+0x9f>
    b4f6:	f2 0f 10 4d f8       	movsd  -0x8(%rbp),%xmm1
    b4fb:	f2 0f 10 05 45 0c 01 	movsd  0x10c45(%rip),%xmm0        # 1c148 <l_405.5081+0xa8>
    b502:	00 
    b503:	f2 0f 59 c1          	mulsd  %xmm1,%xmm0
    b507:	f2 0f 10 55 f0       	movsd  -0x10(%rbp),%xmm2
    b50c:	f2 0f 10 0d 3c 0c 01 	movsd  0x10c3c(%rip),%xmm1        # 1c150 <l_405.5081+0xb0>
    b513:	00 
    b514:	f2 0f 59 ca          	mulsd  %xmm2,%xmm1
    b518:	f2 0f 5e c1          	divsd  %xmm1,%xmm0
    b51c:	f3 0f 7e 0d ec 0b 01 	movq   0x10bec(%rip),%xmm1        # 1c110 <l_405.5081+0x70>
    b523:	00 
    b524:	66 0f 54 c1          	andpd  %xmm1,%xmm0
    b528:	66 0f 2f 05 28 0c 01 	comisd 0x10c28(%rip),%xmm0        # 1c158 <l_405.5081+0xb8>
    b52f:	00 
    b530:	0f 97 c0             	seta   %al
    b533:	83 f0 01             	xor    $0x1,%eax
    b536:	84 c0                	test   %al,%al
    b538:	74 0c                	je     b546 <safe_div_func_double_f_f+0x9f>
    b53a:	f2 0f 10 45 f8       	movsd  -0x8(%rbp),%xmm0
    b53f:	f2 0f 5e 45 f0       	divsd  -0x10(%rbp),%xmm0
    b544:	eb 05                	jmp    b54b <safe_div_func_double_f_f+0xa4>
    b546:	f2 0f 10 45 f8       	movsd  -0x8(%rbp),%xmm0
    b54b:	5d                   	pop    %rbp
    b54c:	c3                   	retq   

000000000000b54d <safe_convert_func_float_to_int32_t>:
    b54d:	f3 0f 1e fa          	endbr64 
    b551:	55                   	push   %rbp
    b552:	48 89 e5             	mov    %rsp,%rbp
    b555:	f3 0f 11 45 fc       	movss  %xmm0,-0x4(%rbp)
    b55a:	f3 0f 10 05 fe 0b 01 	movss  0x10bfe(%rip),%xmm0        # 1c160 <l_405.5081+0xc0>
    b561:	00 
    b562:	0f 2f 45 fc          	comiss -0x4(%rbp),%xmm0
    b566:	0f 93 c0             	setae  %al
    b569:	83 f0 01             	xor    $0x1,%eax
    b56c:	84 c0                	test   %al,%al
    b56e:	74 21                	je     b591 <safe_convert_func_float_to_int32_t+0x44>
    b570:	f3 0f 10 45 fc       	movss  -0x4(%rbp),%xmm0
    b575:	0f 2f 05 e8 0b 01 00 	comiss 0x10be8(%rip),%xmm0        # 1c164 <l_405.5081+0xc4>
    b57c:	0f 93 c0             	setae  %al
    b57f:	83 f0 01             	xor    $0x1,%eax
    b582:	84 c0                	test   %al,%al
    b584:	74 0b                	je     b591 <safe_convert_func_float_to_int32_t+0x44>
    b586:	f3 0f 10 45 fc       	movss  -0x4(%rbp),%xmm0
    b58b:	f3 0f 2c c0          	cvttss2si %xmm0,%eax
    b58f:	eb 05                	jmp    b596 <safe_convert_func_float_to_int32_t+0x49>
    b591:	b8 ff ff ff 7f       	mov    $0x7fffffff,%eax
    b596:	5d                   	pop    %rbp
    b597:	c3                   	retq   

000000000000b598 <crc32_gentab>:
    b598:	f3 0f 1e fa          	endbr64 
    b59c:	55                   	push   %rbp
    b59d:	48 89 e5             	mov    %rsp,%rbp
    b5a0:	c7 45 fc 20 83 b8 ed 	movl   $0xedb88320,-0x4(%rbp)
    b5a7:	c7 45 f4 00 00 00 00 	movl   $0x0,-0xc(%rbp)
    b5ae:	eb 51                	jmp    b601 <crc32_gentab+0x69>
    b5b0:	8b 45 f4             	mov    -0xc(%rbp),%eax
    b5b3:	89 45 f0             	mov    %eax,-0x10(%rbp)
    b5b6:	c7 45 f8 08 00 00 00 	movl   $0x8,-0x8(%rbp)
    b5bd:	eb 1e                	jmp    b5dd <crc32_gentab+0x45>
    b5bf:	8b 45 f0             	mov    -0x10(%rbp),%eax
    b5c2:	83 e0 01             	and    $0x1,%eax
    b5c5:	85 c0                	test   %eax,%eax
    b5c7:	74 0d                	je     b5d6 <crc32_gentab+0x3e>
    b5c9:	8b 45 f0             	mov    -0x10(%rbp),%eax
    b5cc:	d1 e8                	shr    %eax
    b5ce:	33 45 fc             	xor    -0x4(%rbp),%eax
    b5d1:	89 45 f0             	mov    %eax,-0x10(%rbp)
    b5d4:	eb 03                	jmp    b5d9 <crc32_gentab+0x41>
    b5d6:	d1 6d f0             	shrl   -0x10(%rbp)
    b5d9:	83 6d f8 01          	subl   $0x1,-0x8(%rbp)
    b5dd:	83 7d f8 00          	cmpl   $0x0,-0x8(%rbp)
    b5e1:	7f dc                	jg     b5bf <crc32_gentab+0x27>
    b5e3:	8b 45 f4             	mov    -0xc(%rbp),%eax
    b5e6:	48 98                	cltq   
    b5e8:	48 8d 0c 85 00 00 00 	lea    0x0(,%rax,4),%rcx
    b5ef:	00 
    b5f0:	48 8d 15 49 79 01 00 	lea    0x17949(%rip),%rdx        # 22f40 <crc32_tab>
    b5f7:	8b 45 f0             	mov    -0x10(%rbp),%eax
    b5fa:	89 04 11             	mov    %eax,(%rcx,%rdx,1)
    b5fd:	83 45 f4 01          	addl   $0x1,-0xc(%rbp)
    b601:	81 7d f4 ff 00 00 00 	cmpl   $0xff,-0xc(%rbp)
    b608:	7e a6                	jle    b5b0 <crc32_gentab+0x18>
    b60a:	90                   	nop
    b60b:	90                   	nop
    b60c:	5d                   	pop    %rbp
    b60d:	c3                   	retq   

000000000000b60e <crc32_byte>:
    b60e:	f3 0f 1e fa          	endbr64 
    b612:	55                   	push   %rbp
    b613:	48 89 e5             	mov    %rsp,%rbp
    b616:	89 f8                	mov    %edi,%eax
    b618:	88 45 fc             	mov    %al,-0x4(%rbp)
    b61b:	8b 05 ff 39 01 00    	mov    0x139ff(%rip),%eax        # 1f020 <crc32_context>
    b621:	c1 e8 08             	shr    $0x8,%eax
    b624:	89 c1                	mov    %eax,%ecx
    b626:	0f b6 55 fc          	movzbl -0x4(%rbp),%edx
    b62a:	8b 05 f0 39 01 00    	mov    0x139f0(%rip),%eax        # 1f020 <crc32_context>
    b630:	31 d0                	xor    %edx,%eax
    b632:	0f b6 c0             	movzbl %al,%eax
    b635:	89 c0                	mov    %eax,%eax
    b637:	48 8d 14 85 00 00 00 	lea    0x0(,%rax,4),%rdx
    b63e:	00 
    b63f:	48 8d 05 fa 78 01 00 	lea    0x178fa(%rip),%rax        # 22f40 <crc32_tab>
    b646:	8b 04 02             	mov    (%rdx,%rax,1),%eax
    b649:	31 c8                	xor    %ecx,%eax
    b64b:	89 05 cf 39 01 00    	mov    %eax,0x139cf(%rip)        # 1f020 <crc32_context>
    b651:	90                   	nop
    b652:	5d                   	pop    %rbp
    b653:	c3                   	retq   

000000000000b654 <crc32_8bytes>:
    b654:	f3 0f 1e fa          	endbr64 
    b658:	55                   	push   %rbp
    b659:	48 89 e5             	mov    %rsp,%rbp
    b65c:	48 83 ec 08          	sub    $0x8,%rsp
    b660:	48 89 7d f8          	mov    %rdi,-0x8(%rbp)
    b664:	48 8b 45 f8          	mov    -0x8(%rbp),%rax
    b668:	0f b6 c0             	movzbl %al,%eax
    b66b:	89 c7                	mov    %eax,%edi
    b66d:	e8 9c ff ff ff       	callq  b60e <crc32_byte>
    b672:	48 8b 45 f8          	mov    -0x8(%rbp),%rax
    b676:	48 c1 e8 08          	shr    $0x8,%rax
    b67a:	0f b6 c0             	movzbl %al,%eax
    b67d:	89 c7                	mov    %eax,%edi
    b67f:	e8 8a ff ff ff       	callq  b60e <crc32_byte>
    b684:	48 8b 45 f8          	mov    -0x8(%rbp),%rax
    b688:	48 c1 e8 10          	shr    $0x10,%rax
    b68c:	0f b6 c0             	movzbl %al,%eax
    b68f:	89 c7                	mov    %eax,%edi
    b691:	e8 78 ff ff ff       	callq  b60e <crc32_byte>
    b696:	48 8b 45 f8          	mov    -0x8(%rbp),%rax
    b69a:	48 c1 e8 18          	shr    $0x18,%rax
    b69e:	0f b6 c0             	movzbl %al,%eax
    b6a1:	89 c7                	mov    %eax,%edi
    b6a3:	e8 66 ff ff ff       	callq  b60e <crc32_byte>
    b6a8:	48 8b 45 f8          	mov    -0x8(%rbp),%rax
    b6ac:	48 c1 e8 20          	shr    $0x20,%rax
    b6b0:	0f b6 c0             	movzbl %al,%eax
    b6b3:	89 c7                	mov    %eax,%edi
    b6b5:	e8 54 ff ff ff       	callq  b60e <crc32_byte>
    b6ba:	48 8b 45 f8          	mov    -0x8(%rbp),%rax
    b6be:	48 c1 e8 28          	shr    $0x28,%rax
    b6c2:	0f b6 c0             	movzbl %al,%eax
    b6c5:	89 c7                	mov    %eax,%edi
    b6c7:	e8 42 ff ff ff       	callq  b60e <crc32_byte>
    b6cc:	48 8b 45 f8          	mov    -0x8(%rbp),%rax
    b6d0:	48 c1 e8 30          	shr    $0x30,%rax
    b6d4:	0f b6 c0             	movzbl %al,%eax
    b6d7:	89 c7                	mov    %eax,%edi
    b6d9:	e8 30 ff ff ff       	callq  b60e <crc32_byte>
    b6de:	48 8b 45 f8          	mov    -0x8(%rbp),%rax
    b6e2:	48 c1 e8 38          	shr    $0x38,%rax
    b6e6:	0f b6 c0             	movzbl %al,%eax
    b6e9:	89 c7                	mov    %eax,%edi
    b6eb:	e8 1e ff ff ff       	callq  b60e <crc32_byte>
    b6f0:	90                   	nop
    b6f1:	c9                   	leaveq 
    b6f2:	c3                   	retq   

000000000000b6f3 <transparent_crc>:
    b6f3:	f3 0f 1e fa          	endbr64 
    b6f7:	55                   	push   %rbp
    b6f8:	48 89 e5             	mov    %rsp,%rbp
    b6fb:	48 83 ec 20          	sub    $0x20,%rsp
    b6ff:	48 89 7d f8          	mov    %rdi,-0x8(%rbp)
    b703:	48 89 75 f0          	mov    %rsi,-0x10(%rbp)
    b707:	89 55 ec             	mov    %edx,-0x14(%rbp)
    b70a:	48 8b 45 f8          	mov    -0x8(%rbp),%rax
    b70e:	48 89 c7             	mov    %rax,%rdi
    b711:	e8 3e ff ff ff       	callq  b654 <crc32_8bytes>
    b716:	83 7d ec 00          	cmpl   $0x0,-0x14(%rbp)
    b71a:	74 22                	je     b73e <transparent_crc+0x4b>
    b71c:	8b 05 fe 38 01 00    	mov    0x138fe(%rip),%eax        # 1f020 <crc32_context>
    b722:	f7 d0                	not    %eax
    b724:	89 c2                	mov    %eax,%edx
    b726:	48 8b 45 f0          	mov    -0x10(%rbp),%rax
    b72a:	48 89 c6             	mov    %rax,%rsi
    b72d:	48 8d 3d fc f8 00 00 	lea    0xf8fc(%rip),%rdi        # 1b030 <_IO_stdin_used+0x30>
    b734:	b8 00 00 00 00       	mov    $0x0,%eax
    b739:	e8 42 e9 ff ff       	callq  a080 <printf@plt>
    b73e:	90                   	nop
    b73f:	c9                   	leaveq 
    b740:	c3                   	retq   

000000000000b741 <transparent_crc_bytes>:
    b741:	f3 0f 1e fa          	endbr64 
    b745:	55                   	push   %rbp
    b746:	48 89 e5             	mov    %rsp,%rbp
    b749:	48 83 ec 30          	sub    $0x30,%rsp
    b74d:	48 89 7d e8          	mov    %rdi,-0x18(%rbp)
    b751:	89 75 e4             	mov    %esi,-0x1c(%rbp)
    b754:	48 89 55 d8          	mov    %rdx,-0x28(%rbp)
    b758:	89 4d e0             	mov    %ecx,-0x20(%rbp)
    b75b:	c7 45 fc 00 00 00 00 	movl   $0x0,-0x4(%rbp)
    b762:	eb 1e                	jmp    b782 <transparent_crc_bytes+0x41>
    b764:	8b 45 fc             	mov    -0x4(%rbp),%eax
    b767:	48 63 d0             	movslq %eax,%rdx
    b76a:	48 8b 45 e8          	mov    -0x18(%rbp),%rax
    b76e:	48 01 d0             	add    %rdx,%rax
    b771:	0f b6 00             	movzbl (%rax),%eax
    b774:	0f b6 c0             	movzbl %al,%eax
    b777:	89 c7                	mov    %eax,%edi
    b779:	e8 90 fe ff ff       	callq  b60e <crc32_byte>
    b77e:	83 45 fc 01          	addl   $0x1,-0x4(%rbp)
    b782:	8b 45 fc             	mov    -0x4(%rbp),%eax
    b785:	3b 45 e4             	cmp    -0x1c(%rbp),%eax
    b788:	7c da                	jl     b764 <transparent_crc_bytes+0x23>
    b78a:	83 7d e0 00          	cmpl   $0x0,-0x20(%rbp)
    b78e:	74 22                	je     b7b2 <transparent_crc_bytes+0x71>
    b790:	8b 05 8a 38 01 00    	mov    0x1388a(%rip),%eax        # 1f020 <crc32_context>
    b796:	f7 d0                	not    %eax
    b798:	89 c2                	mov    %eax,%edx
    b79a:	48 8b 45 d8          	mov    -0x28(%rbp),%rax
    b79e:	48 89 c6             	mov    %rax,%rsi
    b7a1:	48 8d 3d 88 f8 00 00 	lea    0xf888(%rip),%rdi        # 1b030 <_IO_stdin_used+0x30>
    b7a8:	b8 00 00 00 00       	mov    $0x0,%eax
    b7ad:	e8 ce e8 ff ff       	callq  a080 <printf@plt>
    b7b2:	90                   	nop
    b7b3:	c9                   	leaveq 
    b7b4:	c3                   	retq   

000000000000b7b5 <func_1>:
    b7b5:	f3 0f 1e fa          	endbr64 
    b7b9:	55                   	push   %rbp
    b7ba:	48 89 e5             	mov    %rsp,%rbp
    b7bd:	41 57                	push   %r15
    b7bf:	41 56                	push   %r14
    b7c1:	41 55                	push   %r13
    b7c3:	41 54                	push   %r12
    b7c5:	53                   	push   %rbx
    b7c6:	48 81 ec 00 10 00 00 	sub    $0x1000,%rsp
    b7cd:	48 83 0c 24 00       	orq    $0x0,(%rsp)
    b7d2:	48 81 ec 08 01 00 00 	sub    $0x108,%rsp
    b7d9:	64 48 8b 04 25 28 00 	mov    %fs:0x28,%rax
    b7e0:	00 00 
    b7e2:	48 89 45 c8          	mov    %rax,-0x38(%rbp)
    b7e6:	31 c0                	xor    %eax,%eax
    b7e8:	48 b8 5b 00 02 6b 00 	movabs $0x26b006b02005b,%rax
    b7ef:	6b 02 00 
    b7f2:	48 89 85 50 f0 ff ff 	mov    %rax,-0xfb0(%rbp)
    b7f9:	48 bb 86 02 5b 86 6b 	movabs $0x5b866b6b865b0286,%rbx
    b800:	6b 86 5b 
    b803:	48 89 9d 58 f0 ff ff 	mov    %rbx,-0xfa8(%rbp)
    b80a:	48 b9 00 00 ce ff 86 	movabs $0xff86ce86ffce0000,%rcx
    b811:	ce 86 ff 
    b814:	48 89 8d 60 f0 ff ff 	mov    %rcx,-0xfa0(%rbp)
    b81b:	48 bb 5b ff 5b 6b ff 	movabs $0xff0202ff6b5bff5b,%rbx
    b822:	02 02 ff 
    b825:	48 89 9d 68 f0 ff ff 	mov    %rbx,-0xf98(%rbp)
    b82c:	48 b9 ff 02 02 ff 6b 	movabs $0x5bff5b6bff0202ff,%rcx
    b833:	5b ff 5b 
    b836:	48 89 8d 70 f0 ff ff 	mov    %rcx,-0xf90(%rbp)
    b83d:	48 bb ff 86 ce 86 ff 	movabs $0xceff86ce86ff,%rbx
    b844:	ce 00 00 
    b847:	48 89 9d 78 f0 ff ff 	mov    %rbx,-0xf88(%rbp)
    b84e:	48 b9 5b 86 6b 6b 86 	movabs $0x86025b866b6b865b,%rcx
    b855:	5b 02 86 
    b858:	48 89 8d 80 f0 ff ff 	mov    %rcx,-0xf80(%rbp)
    b85f:	48 bb 00 02 6b 00 6b 	movabs $0x5b00026b006b0200,%rbx
    b866:	02 00 5b 
    b869:	48 89 9d 88 f0 ff ff 	mov    %rbx,-0xf78(%rbp)
    b870:	48 b9 86 ff ce 00 00 	movabs $0x86ffce0000ceff86,%rcx
    b877:	ce ff 86 
    b87a:	48 89 8d 90 f0 ff ff 	mov    %rcx,-0xf70(%rbp)
    b881:	48 89 85 98 f0 ff ff 	mov    %rax,-0xf68(%rbp)
    b888:	c7 85 08 ef ff ff 0c 	movl   $0x8f232d0c,-0x10f8(%rbp)
    b88f:	2d 23 8f 
    b892:	48 8d 85 90 f2 ff ff 	lea    -0xd70(%rbp),%rax
    b899:	48 8d 15 c0 fb 00 00 	lea    0xfbc0(%rip),%rdx        # 1b460 <g_1906+0x380>
    b8a0:	b9 36 00 00 00       	mov    $0x36,%ecx
    b8a5:	48 89 c7             	mov    %rax,%rdi
    b8a8:	48 89 d6             	mov    %rdx,%rsi
    b8ab:	f3 48 a5             	rep movsq %ds:(%rsi),%es:(%rdi)
    b8ae:	66 c7 85 f2 ee ff ff 	movw   $0x59fe,-0x110e(%rbp)
    b8b5:	fe 59 
    b8b7:	48 c7 85 90 f1 ff ff 	movq   $0x0,-0xe70(%rbp)
    b8be:	00 00 00 00 
    b8c2:	48 8d 05 5f 39 01 00 	lea    0x1395f(%rip),%rax        # 1f228 <g_450>
    b8c9:	48 89 85 98 f1 ff ff 	mov    %rax,-0xe68(%rbp)
    b8d0:	48 8d 05 51 39 01 00 	lea    0x13951(%rip),%rax        # 1f228 <g_450>
    b8d7:	48 89 85 a0 f1 ff ff 	mov    %rax,-0xe60(%rbp)
    b8de:	48 c7 85 a8 f1 ff ff 	movq   $0x0,-0xe58(%rbp)
    b8e5:	00 00 00 00 
    b8e9:	48 c7 85 b0 f1 ff ff 	movq   $0x0,-0xe50(%rbp)
    b8f0:	00 00 00 00 
    b8f4:	48 8d 05 2d 39 01 00 	lea    0x1392d(%rip),%rax        # 1f228 <g_450>
    b8fb:	48 89 85 b8 f1 ff ff 	mov    %rax,-0xe48(%rbp)
    b902:	48 8d 05 1f 39 01 00 	lea    0x1391f(%rip),%rax        # 1f228 <g_450>
    b909:	48 89 85 c0 f1 ff ff 	mov    %rax,-0xe40(%rbp)
    b910:	48 c7 85 c8 f1 ff ff 	movq   $0x0,-0xe38(%rbp)
    b917:	00 00 00 00 
    b91b:	48 c7 85 d0 f1 ff ff 	movq   $0x0,-0xe30(%rbp)
    b922:	00 00 00 00 
    b926:	48 8d 05 fb 38 01 00 	lea    0x138fb(%rip),%rax        # 1f228 <g_450>
    b92d:	48 89 85 d8 f1 ff ff 	mov    %rax,-0xe28(%rbp)
    b934:	48 8d 05 ed 38 01 00 	lea    0x138ed(%rip),%rax        # 1f228 <g_450>
    b93b:	48 89 85 e0 f1 ff ff 	mov    %rax,-0xe20(%rbp)
    b942:	48 c7 85 e8 f1 ff ff 	movq   $0x0,-0xe18(%rbp)
    b949:	00 00 00 00 
    b94d:	48 c7 85 f0 f1 ff ff 	movq   $0x0,-0xe10(%rbp)
    b954:	00 00 00 00 
    b958:	48 8d 05 c9 38 01 00 	lea    0x138c9(%rip),%rax        # 1f228 <g_450>
    b95f:	48 89 85 f8 f1 ff ff 	mov    %rax,-0xe08(%rbp)
    b966:	48 8d 05 bb 38 01 00 	lea    0x138bb(%rip),%rax        # 1f228 <g_450>
    b96d:	48 89 85 00 f2 ff ff 	mov    %rax,-0xe00(%rbp)
    b974:	48 c7 85 08 f2 ff ff 	movq   $0x0,-0xdf8(%rbp)
    b97b:	00 00 00 00 
    b97f:	48 c7 85 10 f2 ff ff 	movq   $0x0,-0xdf0(%rbp)
    b986:	00 00 00 00 
    b98a:	48 8d 05 97 38 01 00 	lea    0x13897(%rip),%rax        # 1f228 <g_450>
    b991:	48 89 85 18 f2 ff ff 	mov    %rax,-0xde8(%rbp)
    b998:	48 8d 05 89 38 01 00 	lea    0x13889(%rip),%rax        # 1f228 <g_450>
    b99f:	48 89 85 20 f2 ff ff 	mov    %rax,-0xde0(%rbp)
    b9a6:	48 c7 85 28 f2 ff ff 	movq   $0x0,-0xdd8(%rbp)
    b9ad:	00 00 00 00 
    b9b1:	48 c7 85 30 f2 ff ff 	movq   $0x0,-0xdd0(%rbp)
    b9b8:	00 00 00 00 
    b9bc:	48 8d 05 65 38 01 00 	lea    0x13865(%rip),%rax        # 1f228 <g_450>
    b9c3:	48 89 85 38 f2 ff ff 	mov    %rax,-0xdc8(%rbp)
    b9ca:	48 8d 05 57 38 01 00 	lea    0x13857(%rip),%rax        # 1f228 <g_450>
    b9d1:	48 89 85 40 f2 ff ff 	mov    %rax,-0xdc0(%rbp)
    b9d8:	48 c7 85 48 f2 ff ff 	movq   $0x0,-0xdb8(%rbp)
    b9df:	00 00 00 00 
    b9e3:	48 c7 85 50 f2 ff ff 	movq   $0x0,-0xdb0(%rbp)
    b9ea:	00 00 00 00 
    b9ee:	48 8d 05 33 38 01 00 	lea    0x13833(%rip),%rax        # 1f228 <g_450>
    b9f5:	48 89 85 58 f2 ff ff 	mov    %rax,-0xda8(%rbp)
    b9fc:	48 8d 05 25 38 01 00 	lea    0x13825(%rip),%rax        # 1f228 <g_450>
    ba03:	48 89 85 60 f2 ff ff 	mov    %rax,-0xda0(%rbp)
    ba0a:	48 c7 85 68 f2 ff ff 	movq   $0x0,-0xd98(%rbp)
    ba11:	00 00 00 00 
    ba15:	48 c7 85 70 f2 ff ff 	movq   $0x0,-0xd90(%rbp)
    ba1c:	00 00 00 00 
    ba20:	48 8d 05 01 38 01 00 	lea    0x13801(%rip),%rax        # 1f228 <g_450>
    ba27:	48 89 85 78 f2 ff ff 	mov    %rax,-0xd88(%rbp)
    ba2e:	48 8d 05 f3 37 01 00 	lea    0x137f3(%rip),%rax        # 1f228 <g_450>
    ba35:	48 89 85 80 f2 ff ff 	mov    %rax,-0xd80(%rbp)
    ba3c:	48 c7 85 88 f2 ff ff 	movq   $0x0,-0xd78(%rbp)
    ba43:	00 00 00 00 
    ba47:	48 c7 85 70 ef ff ff 	movq   $0x0,-0x1090(%rbp)
    ba4e:	00 00 00 00 
    ba52:	48 c7 85 a0 f0 ff ff 	movq   $0x0,-0xf60(%rbp)
    ba59:	00 00 00 00 
    ba5d:	48 c7 85 a8 f0 ff ff 	movq   $0x0,-0xf58(%rbp)
    ba64:	00 00 00 00 
    ba68:	48 c7 85 b0 f0 ff ff 	movq   $0x0,-0xf50(%rbp)
    ba6f:	00 00 00 00 
    ba73:	48 c7 85 b8 f0 ff ff 	movq   $0x0,-0xf48(%rbp)
    ba7a:	00 00 00 00 
    ba7e:	48 c7 85 c0 f0 ff ff 	movq   $0x0,-0xf40(%rbp)
    ba85:	00 00 00 00 
    ba89:	48 b8 fa e2 70 bd 2d 	movabs $0xd1700e2dbd70e2fa,%rax
    ba90:	0e 70 d1 
    ba93:	48 89 85 c8 f0 ff ff 	mov    %rax,-0xf38(%rbp)
    ba9a:	48 89 85 d0 f0 ff ff 	mov    %rax,-0xf30(%rbp)
    baa1:	48 89 85 d8 f0 ff ff 	mov    %rax,-0xf28(%rbp)
    baa8:	48 89 85 e0 f0 ff ff 	mov    %rax,-0xf20(%rbp)
    baaf:	48 89 85 e8 f0 ff ff 	mov    %rax,-0xf18(%rbp)
    bab6:	48 c7 85 f0 f0 ff ff 	movq   $0x0,-0xf10(%rbp)
    babd:	00 00 00 00 
    bac1:	48 c7 85 f8 f0 ff ff 	movq   $0x0,-0xf08(%rbp)
    bac8:	00 00 00 00 
    bacc:	48 c7 85 00 f1 ff ff 	movq   $0x0,-0xf00(%rbp)
    bad3:	00 00 00 00 
    bad7:	48 c7 85 08 f1 ff ff 	movq   $0x0,-0xef8(%rbp)
    bade:	00 00 00 00 
    bae2:	48 c7 85 10 f1 ff ff 	movq   $0x0,-0xef0(%rbp)
    bae9:	00 00 00 00 
    baed:	48 89 85 18 f1 ff ff 	mov    %rax,-0xee8(%rbp)
    baf4:	48 89 85 20 f1 ff ff 	mov    %rax,-0xee0(%rbp)
    bafb:	48 89 85 28 f1 ff ff 	mov    %rax,-0xed8(%rbp)
    bb02:	48 89 85 30 f1 ff ff 	mov    %rax,-0xed0(%rbp)
    bb09:	48 89 85 38 f1 ff ff 	mov    %rax,-0xec8(%rbp)
    bb10:	48 c7 85 40 f1 ff ff 	movq   $0x0,-0xec0(%rbp)
    bb17:	00 00 00 00 
    bb1b:	48 c7 85 48 f1 ff ff 	movq   $0x0,-0xeb8(%rbp)
    bb22:	00 00 00 00 
    bb26:	48 c7 85 50 f1 ff ff 	movq   $0x0,-0xeb0(%rbp)
    bb2d:	00 00 00 00 
    bb31:	48 c7 85 58 f1 ff ff 	movq   $0x0,-0xea8(%rbp)
    bb38:	00 00 00 00 
    bb3c:	48 c7 85 60 f1 ff ff 	movq   $0x0,-0xea0(%rbp)
    bb43:	00 00 00 00 
    bb47:	48 89 85 68 f1 ff ff 	mov    %rax,-0xe98(%rbp)
    bb4e:	48 89 85 70 f1 ff ff 	mov    %rax,-0xe90(%rbp)
    bb55:	48 89 85 78 f1 ff ff 	mov    %rax,-0xe88(%rbp)
    bb5c:	48 89 85 80 f1 ff ff 	mov    %rax,-0xe80(%rbp)
    bb63:	48 89 85 88 f1 ff ff 	mov    %rax,-0xe78(%rbp)
    bb6a:	48 c7 85 78 ef ff ff 	movq   $0x0,-0x1088(%rbp)
    bb71:	00 00 00 00 
    bb75:	48 8d 05 d4 3c 01 00 	lea    0x13cd4(%rip),%rax        # 1f850 <g_1514>
    bb7c:	48 89 85 80 ef ff ff 	mov    %rax,-0x1080(%rbp)
    bb83:	c7 85 f8 ee ff ff 00 	movl   $0x0,-0x1108(%rbp)
    bb8a:	00 00 00 
    bb8d:	c7 85 fc ee ff ff fb 	movl   $0xfffffffb,-0x1104(%rbp)
    bb94:	ff ff ff 
    bb97:	c7 85 00 ef ff ff 00 	movl   $0x0,-0x1100(%rbp)
    bb9e:	00 00 00 
    bba1:	eb 42                	jmp    bbe5 <func_1+0x430>
    bba3:	c7 85 04 ef ff ff 00 	movl   $0x0,-0x10fc(%rbp)
    bbaa:	00 00 00 
    bbad:	eb 26                	jmp    bbd5 <func_1+0x420>
    bbaf:	8b 85 04 ef ff ff    	mov    -0x10fc(%rbp),%eax
    bbb5:	48 63 d0             	movslq %eax,%rdx
    bbb8:	8b 85 00 ef ff ff    	mov    -0x1100(%rbp),%eax
    bbbe:	48 98                	cltq   
    bbc0:	48 01 d0             	add    %rdx,%rax
    bbc3:	c7 84 85 fc ef ff ff 	movl   $0xcfbb27ad,-0x1004(%rbp,%rax,4)
    bbca:	ad 27 bb cf 
    bbce:	83 85 04 ef ff ff 01 	addl   $0x1,-0x10fc(%rbp)
    bbd5:	83 bd 04 ef ff ff 00 	cmpl   $0x0,-0x10fc(%rbp)
    bbdc:	7e d1                	jle    bbaf <func_1+0x3fa>
    bbde:	83 85 00 ef ff ff 01 	addl   $0x1,-0x1100(%rbp)
    bbe5:	83 bd 00 ef ff ff 00 	cmpl   $0x0,-0x1100(%rbp)
    bbec:	7e b5                	jle    bba3 <func_1+0x3ee>
    bbee:	c7 05 d8 34 01 00 00 	movl   $0x0,0x134d8(%rip)        # 1f0d0 <g_10>
    bbf5:	00 00 00 
    bbf8:	e9 a2 11 00 00       	jmpq   cd9f <func_1+0x15ea>
    bbfd:	c7 85 00 f0 ff ff e2 	movl   $0x6b32fee2,-0x1000(%rbp)
    bc04:	fe 32 6b 
    bc07:	c7 85 04 f0 ff ff e2 	movl   $0x6b32fee2,-0xffc(%rbp)
    bc0e:	fe 32 6b 
    bc11:	c7 85 08 f0 ff ff e2 	movl   $0x6b32fee2,-0xff8(%rbp)
    bc18:	fe 32 6b 
    bc1b:	c7 85 0c f0 ff ff e2 	movl   $0x6b32fee2,-0xff4(%rbp)
    bc22:	fe 32 6b 
    bc25:	c7 85 10 f0 ff ff e2 	movl   $0x6b32fee2,-0xff0(%rbp)
    bc2c:	fe 32 6b 
    bc2f:	48 8d 05 da 37 01 00 	lea    0x137da(%rip),%rax        # 1f410 <g_797>
    bc36:	48 89 85 88 ef ff ff 	mov    %rax,-0x1078(%rbp)
    bc3d:	c7 85 0c ef ff ff 64 	movl   $0x44c0df64,-0x10f4(%rbp)
    bc44:	df c0 44 
    bc47:	c7 85 10 ef ff ff cd 	movl   $0x8a861acd,-0x10f0(%rbp)
    bc4e:	1a 86 8a 
    bc51:	48 b8 ee 8d f8 42 52 	movabs $0xedac6d5242f88dee,%rax
    bc58:	6d ac ed 
    bc5b:	48 89 85 90 ef ff ff 	mov    %rax,-0x1070(%rbp)
    bc62:	48 c7 85 98 ef ff ff 	movq   $0x0,-0x1068(%rbp)
    bc69:	00 00 00 00 
    bc6d:	48 8d 05 8c 37 01 00 	lea    0x1378c(%rip),%rax        # 1f400 <g_624>
    bc74:	48 89 85 28 ef ff ff 	mov    %rax,-0x10d8(%rbp)
    bc7b:	48 8d 85 28 ef ff ff 	lea    -0x10d8(%rbp),%rax
    bc82:	48 89 85 c0 f7 ff ff 	mov    %rax,-0x840(%rbp)
    bc89:	48 8d 85 28 ef ff ff 	lea    -0x10d8(%rbp),%rax
    bc90:	48 89 85 c8 f7 ff ff 	mov    %rax,-0x838(%rbp)
    bc97:	48 8d 85 28 ef ff ff 	lea    -0x10d8(%rbp),%rax
    bc9e:	48 89 85 d0 f7 ff ff 	mov    %rax,-0x830(%rbp)
    bca5:	48 8d 85 28 ef ff ff 	lea    -0x10d8(%rbp),%rax
    bcac:	48 89 85 d8 f7 ff ff 	mov    %rax,-0x828(%rbp)
    bcb3:	48 c7 85 e0 f7 ff ff 	movq   $0x0,-0x820(%rbp)
    bcba:	00 00 00 00 
    bcbe:	48 c7 85 e8 f7 ff ff 	movq   $0x0,-0x818(%rbp)
    bcc5:	00 00 00 00 
    bcc9:	48 8d 85 28 ef ff ff 	lea    -0x10d8(%rbp),%rax
    bcd0:	48 89 85 f0 f7 ff ff 	mov    %rax,-0x810(%rbp)
    bcd7:	48 8d 85 28 ef ff ff 	lea    -0x10d8(%rbp),%rax
    bcde:	48 89 85 f8 f7 ff ff 	mov    %rax,-0x808(%rbp)
    bce5:	48 8d 85 28 ef ff ff 	lea    -0x10d8(%rbp),%rax
    bcec:	48 89 85 00 f8 ff ff 	mov    %rax,-0x800(%rbp)
    bcf3:	48 8d 85 28 ef ff ff 	lea    -0x10d8(%rbp),%rax
    bcfa:	48 89 85 08 f8 ff ff 	mov    %rax,-0x7f8(%rbp)
    bd01:	48 c7 85 10 f8 ff ff 	movq   $0x0,-0x7f0(%rbp)
    bd08:	00 00 00 00 
    bd0c:	48 8d 85 28 ef ff ff 	lea    -0x10d8(%rbp),%rax
    bd13:	48 89 85 18 f8 ff ff 	mov    %rax,-0x7e8(%rbp)
    bd1a:	48 8d 85 28 ef ff ff 	lea    -0x10d8(%rbp),%rax
    bd21:	48 89 85 20 f8 ff ff 	mov    %rax,-0x7e0(%rbp)
    bd28:	48 8d 85 28 ef ff ff 	lea    -0x10d8(%rbp),%rax
    bd2f:	48 89 85 28 f8 ff ff 	mov    %rax,-0x7d8(%rbp)
    bd36:	48 8d 85 28 ef ff ff 	lea    -0x10d8(%rbp),%rax
    bd3d:	48 89 85 30 f8 ff ff 	mov    %rax,-0x7d0(%rbp)
    bd44:	48 c7 85 38 f8 ff ff 	movq   $0x0,-0x7c8(%rbp)
    bd4b:	00 00 00 00 
    bd4f:	48 8d 85 28 ef ff ff 	lea    -0x10d8(%rbp),%rax
    bd56:	48 89 85 40 f8 ff ff 	mov    %rax,-0x7c0(%rbp)
    bd5d:	48 8d 85 28 ef ff ff 	lea    -0x10d8(%rbp),%rax
    bd64:	48 89 85 48 f8 ff ff 	mov    %rax,-0x7b8(%rbp)
    bd6b:	48 8d 85 28 ef ff ff 	lea    -0x10d8(%rbp),%rax
    bd72:	48 89 85 50 f8 ff ff 	mov    %rax,-0x7b0(%rbp)
    bd79:	48 8d 85 28 ef ff ff 	lea    -0x10d8(%rbp),%rax
    bd80:	48 89 85 58 f8 ff ff 	mov    %rax,-0x7a8(%rbp)
    bd87:	48 c7 85 60 f8 ff ff 	movq   $0x0,-0x7a0(%rbp)
    bd8e:	00 00 00 00 
    bd92:	48 8d 85 28 ef ff ff 	lea    -0x10d8(%rbp),%rax
    bd99:	48 89 85 68 f8 ff ff 	mov    %rax,-0x798(%rbp)
    bda0:	48 c7 85 70 f8 ff ff 	movq   $0x0,-0x790(%rbp)
    bda7:	00 00 00 00 
    bdab:	48 c7 85 78 f8 ff ff 	movq   $0x0,-0x788(%rbp)
    bdb2:	00 00 00 00 
    bdb6:	48 c7 85 80 f8 ff ff 	movq   $0x0,-0x780(%rbp)
    bdbd:	00 00 00 00 
    bdc1:	48 8d 85 28 ef ff ff 	lea    -0x10d8(%rbp),%rax
    bdc8:	48 89 85 88 f8 ff ff 	mov    %rax,-0x778(%rbp)
    bdcf:	48 8d 85 28 ef ff ff 	lea    -0x10d8(%rbp),%rax
    bdd6:	48 89 85 90 f8 ff ff 	mov    %rax,-0x770(%rbp)
    bddd:	48 8d 85 28 ef ff ff 	lea    -0x10d8(%rbp),%rax
    bde4:	48 89 85 98 f8 ff ff 	mov    %rax,-0x768(%rbp)
    bdeb:	48 8d 85 28 ef ff ff 	lea    -0x10d8(%rbp),%rax
    bdf2:	48 89 85 a0 f8 ff ff 	mov    %rax,-0x760(%rbp)
    bdf9:	48 8d 85 28 ef ff ff 	lea    -0x10d8(%rbp),%rax
    be00:	48 89 85 a8 f8 ff ff 	mov    %rax,-0x758(%rbp)
    be07:	48 8d 85 28 ef ff ff 	lea    -0x10d8(%rbp),%rax
    be0e:	48 89 85 b0 f8 ff ff 	mov    %rax,-0x750(%rbp)
    be15:	48 c7 85 b8 f8 ff ff 	movq   $0x0,-0x748(%rbp)
    be1c:	00 00 00 00 
    be20:	48 8d 85 28 ef ff ff 	lea    -0x10d8(%rbp),%rax
    be27:	48 89 85 c0 f8 ff ff 	mov    %rax,-0x740(%rbp)
    be2e:	48 8d 85 28 ef ff ff 	lea    -0x10d8(%rbp),%rax
    be35:	48 89 85 c8 f8 ff ff 	mov    %rax,-0x738(%rbp)
    be3c:	48 c7 85 d0 f8 ff ff 	movq   $0x0,-0x730(%rbp)
    be43:	00 00 00 00 
    be47:	48 8d 85 28 ef ff ff 	lea    -0x10d8(%rbp),%rax
    be4e:	48 89 85 d8 f8 ff ff 	mov    %rax,-0x728(%rbp)
    be55:	48 8d 85 28 ef ff ff 	lea    -0x10d8(%rbp),%rax
    be5c:	48 89 85 e0 f8 ff ff 	mov    %rax,-0x720(%rbp)
    be63:	48 8d 85 28 ef ff ff 	lea    -0x10d8(%rbp),%rax
    be6a:	48 89 85 e8 f8 ff ff 	mov    %rax,-0x718(%rbp)
    be71:	48 8d 85 28 ef ff ff 	lea    -0x10d8(%rbp),%rax
    be78:	48 89 85 f0 f8 ff ff 	mov    %rax,-0x710(%rbp)
    be7f:	48 c7 85 f8 f8 ff ff 	movq   $0x0,-0x708(%rbp)
    be86:	00 00 00 00 
    be8a:	48 8d 85 28 ef ff ff 	lea    -0x10d8(%rbp),%rax
    be91:	48 89 85 00 f9 ff ff 	mov    %rax,-0x700(%rbp)
    be98:	48 8d 85 28 ef ff ff 	lea    -0x10d8(%rbp),%rax
    be9f:	48 89 85 08 f9 ff ff 	mov    %rax,-0x6f8(%rbp)
    bea6:	48 8d 85 28 ef ff ff 	lea    -0x10d8(%rbp),%rax
    bead:	48 89 85 10 f9 ff ff 	mov    %rax,-0x6f0(%rbp)
    beb4:	48 8d 85 28 ef ff ff 	lea    -0x10d8(%rbp),%rax
    bebb:	48 89 85 18 f9 ff ff 	mov    %rax,-0x6e8(%rbp)
    bec2:	48 c7 85 20 f9 ff ff 	movq   $0x0,-0x6e0(%rbp)
    bec9:	00 00 00 00 
    becd:	48 8d 85 28 ef ff ff 	lea    -0x10d8(%rbp),%rax
    bed4:	48 89 85 28 f9 ff ff 	mov    %rax,-0x6d8(%rbp)
    bedb:	48 c7 85 30 f9 ff ff 	movq   $0x0,-0x6d0(%rbp)
    bee2:	00 00 00 00 
    bee6:	48 8d 85 28 ef ff ff 	lea    -0x10d8(%rbp),%rax
    beed:	48 89 85 38 f9 ff ff 	mov    %rax,-0x6c8(%rbp)
    bef4:	48 8d 85 28 ef ff ff 	lea    -0x10d8(%rbp),%rax
    befb:	48 89 85 40 f9 ff ff 	mov    %rax,-0x6c0(%rbp)
    bf02:	48 8d 85 28 ef ff ff 	lea    -0x10d8(%rbp),%rax
    bf09:	48 89 85 48 f9 ff ff 	mov    %rax,-0x6b8(%rbp)
    bf10:	48 c7 85 50 f9 ff ff 	movq   $0x0,-0x6b0(%rbp)
    bf17:	00 00 00 00 
    bf1b:	48 8d 85 28 ef ff ff 	lea    -0x10d8(%rbp),%rax
    bf22:	48 89 85 58 f9 ff ff 	mov    %rax,-0x6a8(%rbp)
    bf29:	48 8d 85 28 ef ff ff 	lea    -0x10d8(%rbp),%rax
    bf30:	48 89 85 60 f9 ff ff 	mov    %rax,-0x6a0(%rbp)
    bf37:	48 c7 85 68 f9 ff ff 	movq   $0x0,-0x698(%rbp)
    bf3e:	00 00 00 00 
    bf42:	48 8d 85 28 ef ff ff 	lea    -0x10d8(%rbp),%rax
    bf49:	48 89 85 70 f9 ff ff 	mov    %rax,-0x690(%rbp)
    bf50:	48 8d 85 28 ef ff ff 	lea    -0x10d8(%rbp),%rax
    bf57:	48 89 85 78 f9 ff ff 	mov    %rax,-0x688(%rbp)
    bf5e:	48 8d 85 28 ef ff ff 	lea    -0x10d8(%rbp),%rax
    bf65:	48 89 85 80 f9 ff ff 	mov    %rax,-0x680(%rbp)
    bf6c:	48 8d 85 28 ef ff ff 	lea    -0x10d8(%rbp),%rax
    bf73:	48 89 85 88 f9 ff ff 	mov    %rax,-0x678(%rbp)
    bf7a:	48 8d 85 28 ef ff ff 	lea    -0x10d8(%rbp),%rax
    bf81:	48 89 85 90 f9 ff ff 	mov    %rax,-0x670(%rbp)
    bf88:	48 c7 85 98 f9 ff ff 	movq   $0x0,-0x668(%rbp)
    bf8f:	00 00 00 00 
    bf93:	48 8d 85 28 ef ff ff 	lea    -0x10d8(%rbp),%rax
    bf9a:	48 89 85 a0 f9 ff ff 	mov    %rax,-0x660(%rbp)
    bfa1:	48 c7 85 a8 f9 ff ff 	movq   $0x0,-0x658(%rbp)
    bfa8:	00 00 00 00 
    bfac:	48 8d 85 28 ef ff ff 	lea    -0x10d8(%rbp),%rax
    bfb3:	48 89 85 b0 f9 ff ff 	mov    %rax,-0x650(%rbp)
    bfba:	48 8d 85 28 ef ff ff 	lea    -0x10d8(%rbp),%rax
    bfc1:	48 89 85 b8 f9 ff ff 	mov    %rax,-0x648(%rbp)
    bfc8:	48 8d 85 28 ef ff ff 	lea    -0x10d8(%rbp),%rax
    bfcf:	48 89 85 c0 f9 ff ff 	mov    %rax,-0x640(%rbp)
    bfd6:	48 8d 85 28 ef ff ff 	lea    -0x10d8(%rbp),%rax
    bfdd:	48 89 85 c8 f9 ff ff 	mov    %rax,-0x638(%rbp)
    bfe4:	48 8d 85 28 ef ff ff 	lea    -0x10d8(%rbp),%rax
    bfeb:	48 89 85 d0 f9 ff ff 	mov    %rax,-0x630(%rbp)
    bff2:	48 8d 85 28 ef ff ff 	lea    -0x10d8(%rbp),%rax
    bff9:	48 89 85 d8 f9 ff ff 	mov    %rax,-0x628(%rbp)
    c000:	48 8d 85 28 ef ff ff 	lea    -0x10d8(%rbp),%rax
    c007:	48 89 85 e0 f9 ff ff 	mov    %rax,-0x620(%rbp)
    c00e:	48 c7 85 e8 f9 ff ff 	movq   $0x0,-0x618(%rbp)
    c015:	00 00 00 00 
    c019:	48 8d 85 28 ef ff ff 	lea    -0x10d8(%rbp),%rax
    c020:	48 89 85 f0 f9 ff ff 	mov    %rax,-0x610(%rbp)
    c027:	48 8d 85 28 ef ff ff 	lea    -0x10d8(%rbp),%rax
    c02e:	48 89 85 f8 f9 ff ff 	mov    %rax,-0x608(%rbp)
    c035:	48 c7 85 00 fa ff ff 	movq   $0x0,-0x600(%rbp)
    c03c:	00 00 00 00 
    c040:	48 8d 85 28 ef ff ff 	lea    -0x10d8(%rbp),%rax
    c047:	48 89 85 08 fa ff ff 	mov    %rax,-0x5f8(%rbp)
    c04e:	48 8d 85 28 ef ff ff 	lea    -0x10d8(%rbp),%rax
    c055:	48 89 85 10 fa ff ff 	mov    %rax,-0x5f0(%rbp)
    c05c:	48 8d 85 28 ef ff ff 	lea    -0x10d8(%rbp),%rax
    c063:	48 89 85 18 fa ff ff 	mov    %rax,-0x5e8(%rbp)
    c06a:	48 8d 85 28 ef ff ff 	lea    -0x10d8(%rbp),%rax
    c071:	48 89 85 20 fa ff ff 	mov    %rax,-0x5e0(%rbp)
    c078:	48 c7 85 28 fa ff ff 	movq   $0x0,-0x5d8(%rbp)
    c07f:	00 00 00 00 
    c083:	48 8d 85 28 ef ff ff 	lea    -0x10d8(%rbp),%rax
    c08a:	48 89 85 30 fa ff ff 	mov    %rax,-0x5d0(%rbp)
    c091:	48 8d 85 28 ef ff ff 	lea    -0x10d8(%rbp),%rax
    c098:	48 89 85 38 fa ff ff 	mov    %rax,-0x5c8(%rbp)
    c09f:	48 8d 85 28 ef ff ff 	lea    -0x10d8(%rbp),%rax
    c0a6:	48 89 85 40 fa ff ff 	mov    %rax,-0x5c0(%rbp)
    c0ad:	48 8d 85 28 ef ff ff 	lea    -0x10d8(%rbp),%rax
    c0b4:	48 89 85 48 fa ff ff 	mov    %rax,-0x5b8(%rbp)
    c0bb:	48 8d 85 28 ef ff ff 	lea    -0x10d8(%rbp),%rax
    c0c2:	48 89 85 50 fa ff ff 	mov    %rax,-0x5b0(%rbp)
    c0c9:	48 c7 85 58 fa ff ff 	movq   $0x0,-0x5a8(%rbp)
    c0d0:	00 00 00 00 
    c0d4:	48 8d 85 28 ef ff ff 	lea    -0x10d8(%rbp),%rax
    c0db:	48 89 85 60 fa ff ff 	mov    %rax,-0x5a0(%rbp)
    c0e2:	48 8d 85 28 ef ff ff 	lea    -0x10d8(%rbp),%rax
    c0e9:	48 89 85 68 fa ff ff 	mov    %rax,-0x598(%rbp)
    c0f0:	48 8d 85 28 ef ff ff 	lea    -0x10d8(%rbp),%rax
    c0f7:	48 89 85 70 fa ff ff 	mov    %rax,-0x590(%rbp)
    c0fe:	48 8d 85 28 ef ff ff 	lea    -0x10d8(%rbp),%rax
    c105:	48 89 85 78 fa ff ff 	mov    %rax,-0x588(%rbp)
    c10c:	48 8d 85 28 ef ff ff 	lea    -0x10d8(%rbp),%rax
    c113:	48 89 85 80 fa ff ff 	mov    %rax,-0x580(%rbp)
    c11a:	48 8d 85 28 ef ff ff 	lea    -0x10d8(%rbp),%rax
    c121:	48 89 85 88 fa ff ff 	mov    %rax,-0x578(%rbp)
    c128:	48 8d 85 28 ef ff ff 	lea    -0x10d8(%rbp),%rax
    c12f:	48 89 85 90 fa ff ff 	mov    %rax,-0x570(%rbp)
    c136:	48 8d 85 28 ef ff ff 	lea    -0x10d8(%rbp),%rax
    c13d:	48 89 85 98 fa ff ff 	mov    %rax,-0x568(%rbp)
    c144:	48 8d 85 28 ef ff ff 	lea    -0x10d8(%rbp),%rax
    c14b:	48 89 85 a0 fa ff ff 	mov    %rax,-0x560(%rbp)
    c152:	48 8d 85 28 ef ff ff 	lea    -0x10d8(%rbp),%rax
    c159:	48 89 85 a8 fa ff ff 	mov    %rax,-0x558(%rbp)
    c160:	48 8d 85 28 ef ff ff 	lea    -0x10d8(%rbp),%rax
    c167:	48 89 85 b0 fa ff ff 	mov    %rax,-0x550(%rbp)
    c16e:	48 8d 85 28 ef ff ff 	lea    -0x10d8(%rbp),%rax
    c175:	48 89 85 b8 fa ff ff 	mov    %rax,-0x548(%rbp)
    c17c:	48 8d 85 28 ef ff ff 	lea    -0x10d8(%rbp),%rax
    c183:	48 89 85 c0 fa ff ff 	mov    %rax,-0x540(%rbp)
    c18a:	48 8d 85 28 ef ff ff 	lea    -0x10d8(%rbp),%rax
    c191:	48 89 85 c8 fa ff ff 	mov    %rax,-0x538(%rbp)
    c198:	48 c7 85 d0 fa ff ff 	movq   $0x0,-0x530(%rbp)
    c19f:	00 00 00 00 
    c1a3:	48 8d 85 28 ef ff ff 	lea    -0x10d8(%rbp),%rax
    c1aa:	48 89 85 d8 fa ff ff 	mov    %rax,-0x528(%rbp)
    c1b1:	48 8d 85 28 ef ff ff 	lea    -0x10d8(%rbp),%rax
    c1b8:	48 89 85 e0 fa ff ff 	mov    %rax,-0x520(%rbp)
    c1bf:	48 8d 85 28 ef ff ff 	lea    -0x10d8(%rbp),%rax
    c1c6:	48 89 85 e8 fa ff ff 	mov    %rax,-0x518(%rbp)
    c1cd:	48 c7 85 f0 fa ff ff 	movq   $0x0,-0x510(%rbp)
    c1d4:	00 00 00 00 
    c1d8:	48 8d 85 28 ef ff ff 	lea    -0x10d8(%rbp),%rax
    c1df:	48 89 85 f8 fa ff ff 	mov    %rax,-0x508(%rbp)
    c1e6:	48 8d 85 28 ef ff ff 	lea    -0x10d8(%rbp),%rax
    c1ed:	48 89 85 00 fb ff ff 	mov    %rax,-0x500(%rbp)
    c1f4:	48 8d 85 28 ef ff ff 	lea    -0x10d8(%rbp),%rax
    c1fb:	48 89 85 08 fb ff ff 	mov    %rax,-0x4f8(%rbp)
    c202:	48 8d 85 28 ef ff ff 	lea    -0x10d8(%rbp),%rax
    c209:	48 89 85 10 fb ff ff 	mov    %rax,-0x4f0(%rbp)
    c210:	48 8d 85 28 ef ff ff 	lea    -0x10d8(%rbp),%rax
    c217:	48 89 85 18 fb ff ff 	mov    %rax,-0x4e8(%rbp)
    c21e:	48 8d 85 28 ef ff ff 	lea    -0x10d8(%rbp),%rax
    c225:	48 89 85 20 fb ff ff 	mov    %rax,-0x4e0(%rbp)
    c22c:	48 8d 85 28 ef ff ff 	lea    -0x10d8(%rbp),%rax
    c233:	48 89 85 28 fb ff ff 	mov    %rax,-0x4d8(%rbp)
    c23a:	48 8d 85 28 ef ff ff 	lea    -0x10d8(%rbp),%rax
    c241:	48 89 85 30 fb ff ff 	mov    %rax,-0x4d0(%rbp)
    c248:	48 8d 85 28 ef ff ff 	lea    -0x10d8(%rbp),%rax
    c24f:	48 89 85 38 fb ff ff 	mov    %rax,-0x4c8(%rbp)
    c256:	48 8d 85 28 ef ff ff 	lea    -0x10d8(%rbp),%rax
    c25d:	48 89 85 40 fb ff ff 	mov    %rax,-0x4c0(%rbp)
    c264:	48 8d 85 28 ef ff ff 	lea    -0x10d8(%rbp),%rax
    c26b:	48 89 85 48 fb ff ff 	mov    %rax,-0x4b8(%rbp)
    c272:	48 c7 85 50 fb ff ff 	movq   $0x0,-0x4b0(%rbp)
    c279:	00 00 00 00 
    c27d:	48 8d 85 28 ef ff ff 	lea    -0x10d8(%rbp),%rax
    c284:	48 89 85 58 fb ff ff 	mov    %rax,-0x4a8(%rbp)
    c28b:	48 8d 85 28 ef ff ff 	lea    -0x10d8(%rbp),%rax
    c292:	48 89 85 60 fb ff ff 	mov    %rax,-0x4a0(%rbp)
    c299:	48 c7 85 68 fb ff ff 	movq   $0x0,-0x498(%rbp)
    c2a0:	00 00 00 00 
    c2a4:	48 8d 85 28 ef ff ff 	lea    -0x10d8(%rbp),%rax
    c2ab:	48 89 85 70 fb ff ff 	mov    %rax,-0x490(%rbp)
    c2b2:	48 8d 85 28 ef ff ff 	lea    -0x10d8(%rbp),%rax
    c2b9:	48 89 85 78 fb ff ff 	mov    %rax,-0x488(%rbp)
    c2c0:	48 8d 85 28 ef ff ff 	lea    -0x10d8(%rbp),%rax
    c2c7:	48 89 85 80 fb ff ff 	mov    %rax,-0x480(%rbp)
    c2ce:	48 c7 85 88 fb ff ff 	movq   $0x0,-0x478(%rbp)
    c2d5:	00 00 00 00 
    c2d9:	48 8d 85 28 ef ff ff 	lea    -0x10d8(%rbp),%rax
    c2e0:	48 89 85 90 fb ff ff 	mov    %rax,-0x470(%rbp)
    c2e7:	48 8d 85 28 ef ff ff 	lea    -0x10d8(%rbp),%rax
    c2ee:	48 89 85 98 fb ff ff 	mov    %rax,-0x468(%rbp)
    c2f5:	48 8d 85 28 ef ff ff 	lea    -0x10d8(%rbp),%rax
    c2fc:	48 89 85 a0 fb ff ff 	mov    %rax,-0x460(%rbp)
    c303:	48 c7 85 a8 fb ff ff 	movq   $0x0,-0x458(%rbp)
    c30a:	00 00 00 00 
    c30e:	48 c7 85 b0 fb ff ff 	movq   $0x0,-0x450(%rbp)
    c315:	00 00 00 00 
    c319:	48 8d 85 28 ef ff ff 	lea    -0x10d8(%rbp),%rax
    c320:	48 89 85 b8 fb ff ff 	mov    %rax,-0x448(%rbp)
    c327:	48 c7 85 c0 fb ff ff 	movq   $0x0,-0x440(%rbp)
    c32e:	00 00 00 00 
    c332:	48 8d 85 28 ef ff ff 	lea    -0x10d8(%rbp),%rax
    c339:	48 89 85 c8 fb ff ff 	mov    %rax,-0x438(%rbp)
    c340:	48 8d 85 28 ef ff ff 	lea    -0x10d8(%rbp),%rax
    c347:	48 89 85 d0 fb ff ff 	mov    %rax,-0x430(%rbp)
    c34e:	48 8d 85 28 ef ff ff 	lea    -0x10d8(%rbp),%rax
    c355:	48 89 85 d8 fb ff ff 	mov    %rax,-0x428(%rbp)
    c35c:	48 8d 85 28 ef ff ff 	lea    -0x10d8(%rbp),%rax
    c363:	48 89 85 e0 fb ff ff 	mov    %rax,-0x420(%rbp)
    c36a:	48 8d 85 28 ef ff ff 	lea    -0x10d8(%rbp),%rax
    c371:	48 89 85 e8 fb ff ff 	mov    %rax,-0x418(%rbp)
    c378:	48 8d 85 28 ef ff ff 	lea    -0x10d8(%rbp),%rax
    c37f:	48 89 85 f0 fb ff ff 	mov    %rax,-0x410(%rbp)
    c386:	48 c7 85 f8 fb ff ff 	movq   $0x0,-0x408(%rbp)
    c38d:	00 00 00 00 
    c391:	48 8d 85 28 ef ff ff 	lea    -0x10d8(%rbp),%rax
    c398:	48 89 85 00 fc ff ff 	mov    %rax,-0x400(%rbp)
    c39f:	48 8d 85 28 ef ff ff 	lea    -0x10d8(%rbp),%rax
    c3a6:	48 89 85 08 fc ff ff 	mov    %rax,-0x3f8(%rbp)
    c3ad:	48 c7 85 10 fc ff ff 	movq   $0x0,-0x3f0(%rbp)
    c3b4:	00 00 00 00 
    c3b8:	48 c7 85 18 fc ff ff 	movq   $0x0,-0x3e8(%rbp)
    c3bf:	00 00 00 00 
    c3c3:	48 8d 85 28 ef ff ff 	lea    -0x10d8(%rbp),%rax
    c3ca:	48 89 85 20 fc ff ff 	mov    %rax,-0x3e0(%rbp)
    c3d1:	48 8d 85 28 ef ff ff 	lea    -0x10d8(%rbp),%rax
    c3d8:	48 89 85 28 fc ff ff 	mov    %rax,-0x3d8(%rbp)
    c3df:	48 8d 85 28 ef ff ff 	lea    -0x10d8(%rbp),%rax
    c3e6:	48 89 85 30 fc ff ff 	mov    %rax,-0x3d0(%rbp)
    c3ed:	48 c7 85 38 fc ff ff 	movq   $0x0,-0x3c8(%rbp)
    c3f4:	00 00 00 00 
    c3f8:	48 c7 85 40 fc ff ff 	movq   $0x0,-0x3c0(%rbp)
    c3ff:	00 00 00 00 
    c403:	48 8d 85 28 ef ff ff 	lea    -0x10d8(%rbp),%rax
    c40a:	48 89 85 48 fc ff ff 	mov    %rax,-0x3b8(%rbp)
    c411:	48 8d 85 28 ef ff ff 	lea    -0x10d8(%rbp),%rax
    c418:	48 89 85 50 fc ff ff 	mov    %rax,-0x3b0(%rbp)
    c41f:	48 c7 85 58 fc ff ff 	movq   $0x0,-0x3a8(%rbp)
    c426:	00 00 00 00 
    c42a:	48 8d 85 28 ef ff ff 	lea    -0x10d8(%rbp),%rax
    c431:	48 89 85 60 fc ff ff 	mov    %rax,-0x3a0(%rbp)
    c438:	48 8d 85 28 ef ff ff 	lea    -0x10d8(%rbp),%rax
    c43f:	48 89 85 68 fc ff ff 	mov    %rax,-0x398(%rbp)
    c446:	48 8d 85 28 ef ff ff 	lea    -0x10d8(%rbp),%rax
    c44d:	48 89 85 70 fc ff ff 	mov    %rax,-0x390(%rbp)
    c454:	48 8d 85 28 ef ff ff 	lea    -0x10d8(%rbp),%rax
    c45b:	48 89 85 78 fc ff ff 	mov    %rax,-0x388(%rbp)
    c462:	48 c7 85 80 fc ff ff 	movq   $0x0,-0x380(%rbp)
    c469:	00 00 00 00 
    c46d:	48 8d 85 28 ef ff ff 	lea    -0x10d8(%rbp),%rax
    c474:	48 89 85 88 fc ff ff 	mov    %rax,-0x378(%rbp)
    c47b:	48 8d 85 28 ef ff ff 	lea    -0x10d8(%rbp),%rax
    c482:	48 89 85 90 fc ff ff 	mov    %rax,-0x370(%rbp)
    c489:	48 8d 85 28 ef ff ff 	lea    -0x10d8(%rbp),%rax
    c490:	48 89 85 98 fc ff ff 	mov    %rax,-0x368(%rbp)
    c497:	48 8d 85 28 ef ff ff 	lea    -0x10d8(%rbp),%rax
    c49e:	48 89 85 a0 fc ff ff 	mov    %rax,-0x360(%rbp)
    c4a5:	48 8d 85 28 ef ff ff 	lea    -0x10d8(%rbp),%rax
    c4ac:	48 89 85 a8 fc ff ff 	mov    %rax,-0x358(%rbp)
    c4b3:	48 c7 85 b0 fc ff ff 	movq   $0x0,-0x350(%rbp)
    c4ba:	00 00 00 00 
    c4be:	48 8d 85 28 ef ff ff 	lea    -0x10d8(%rbp),%rax
    c4c5:	48 89 85 b8 fc ff ff 	mov    %rax,-0x348(%rbp)
    c4cc:	48 c7 85 c0 fc ff ff 	movq   $0x0,-0x340(%rbp)
    c4d3:	00 00 00 00 
    c4d7:	48 8d 85 28 ef ff ff 	lea    -0x10d8(%rbp),%rax
    c4de:	48 89 85 c8 fc ff ff 	mov    %rax,-0x338(%rbp)
    c4e5:	48 8d 85 28 ef ff ff 	lea    -0x10d8(%rbp),%rax
    c4ec:	48 89 85 d0 fc ff ff 	mov    %rax,-0x330(%rbp)
    c4f3:	48 c7 85 d8 fc ff ff 	movq   $0x0,-0x328(%rbp)
    c4fa:	00 00 00 00 
    c4fe:	48 8d 85 28 ef ff ff 	lea    -0x10d8(%rbp),%rax
    c505:	48 89 85 e0 fc ff ff 	mov    %rax,-0x320(%rbp)
    c50c:	48 c7 85 e8 fc ff ff 	movq   $0x0,-0x318(%rbp)
    c513:	00 00 00 00 
    c517:	48 8d 85 28 ef ff ff 	lea    -0x10d8(%rbp),%rax
    c51e:	48 89 85 f0 fc ff ff 	mov    %rax,-0x310(%rbp)
    c525:	48 c7 85 f8 fc ff ff 	movq   $0x0,-0x308(%rbp)
    c52c:	00 00 00 00 
    c530:	48 c7 85 00 fd ff ff 	movq   $0x0,-0x300(%rbp)
    c537:	00 00 00 00 
    c53b:	48 8d 85 28 ef ff ff 	lea    -0x10d8(%rbp),%rax
    c542:	48 89 85 08 fd ff ff 	mov    %rax,-0x2f8(%rbp)
    c549:	48 8d 85 28 ef ff ff 	lea    -0x10d8(%rbp),%rax
    c550:	48 89 85 10 fd ff ff 	mov    %rax,-0x2f0(%rbp)
    c557:	48 8d 85 28 ef ff ff 	lea    -0x10d8(%rbp),%rax
    c55e:	48 89 85 18 fd ff ff 	mov    %rax,-0x2e8(%rbp)
    c565:	48 8d 85 28 ef ff ff 	lea    -0x10d8(%rbp),%rax
    c56c:	48 89 85 20 fd ff ff 	mov    %rax,-0x2e0(%rbp)
    c573:	48 c7 85 28 fd ff ff 	movq   $0x0,-0x2d8(%rbp)
    c57a:	00 00 00 00 
    c57e:	48 c7 85 30 fd ff ff 	movq   $0x0,-0x2d0(%rbp)
    c585:	00 00 00 00 
    c589:	48 8d 85 28 ef ff ff 	lea    -0x10d8(%rbp),%rax
    c590:	48 89 85 38 fd ff ff 	mov    %rax,-0x2c8(%rbp)
    c597:	48 c7 85 40 fd ff ff 	movq   $0x0,-0x2c0(%rbp)
    c59e:	00 00 00 00 
    c5a2:	48 8d 85 28 ef ff ff 	lea    -0x10d8(%rbp),%rax
    c5a9:	48 89 85 48 fd ff ff 	mov    %rax,-0x2b8(%rbp)
    c5b0:	48 8d 85 28 ef ff ff 	lea    -0x10d8(%rbp),%rax
    c5b7:	48 89 85 50 fd ff ff 	mov    %rax,-0x2b0(%rbp)
    c5be:	48 c7 85 58 fd ff ff 	movq   $0x0,-0x2a8(%rbp)
    c5c5:	00 00 00 00 
    c5c9:	48 8d 85 28 ef ff ff 	lea    -0x10d8(%rbp),%rax
    c5d0:	48 89 85 60 fd ff ff 	mov    %rax,-0x2a0(%rbp)
    c5d7:	48 c7 85 68 fd ff ff 	movq   $0x0,-0x298(%rbp)
    c5de:	00 00 00 00 
    c5e2:	48 8d 85 28 ef ff ff 	lea    -0x10d8(%rbp),%rax
    c5e9:	48 89 85 70 fd ff ff 	mov    %rax,-0x290(%rbp)
    c5f0:	48 8d 85 28 ef ff ff 	lea    -0x10d8(%rbp),%rax
    c5f7:	48 89 85 78 fd ff ff 	mov    %rax,-0x288(%rbp)
    c5fe:	48 c7 85 80 fd ff ff 	movq   $0x0,-0x280(%rbp)
    c605:	00 00 00 00 
    c609:	48 8d 85 28 ef ff ff 	lea    -0x10d8(%rbp),%rax
    c610:	48 89 85 88 fd ff ff 	mov    %rax,-0x278(%rbp)
    c617:	48 8d 85 28 ef ff ff 	lea    -0x10d8(%rbp),%rax
    c61e:	48 89 85 90 fd ff ff 	mov    %rax,-0x270(%rbp)
    c625:	48 8d 85 28 ef ff ff 	lea    -0x10d8(%rbp),%rax
    c62c:	48 89 85 98 fd ff ff 	mov    %rax,-0x268(%rbp)
    c633:	48 8d 85 28 ef ff ff 	lea    -0x10d8(%rbp),%rax
    c63a:	48 89 85 a0 fd ff ff 	mov    %rax,-0x260(%rbp)
    c641:	48 c7 85 a8 fd ff ff 	movq   $0x0,-0x258(%rbp)
    c648:	00 00 00 00 
    c64c:	48 8d 85 28 ef ff ff 	lea    -0x10d8(%rbp),%rax
    c653:	48 89 85 b0 fd ff ff 	mov    %rax,-0x250(%rbp)
    c65a:	48 c7 85 b8 fd ff ff 	movq   $0x0,-0x248(%rbp)
    c661:	00 00 00 00 
    c665:	48 c7 85 c0 fd ff ff 	movq   $0x0,-0x240(%rbp)
    c66c:	00 00 00 00 
    c670:	48 8d 85 28 ef ff ff 	lea    -0x10d8(%rbp),%rax
    c677:	48 89 85 c8 fd ff ff 	mov    %rax,-0x238(%rbp)
    c67e:	48 c7 85 d0 fd ff ff 	movq   $0x0,-0x230(%rbp)
    c685:	00 00 00 00 
    c689:	48 c7 85 d8 fd ff ff 	movq   $0x0,-0x228(%rbp)
    c690:	00 00 00 00 
    c694:	48 8d 85 28 ef ff ff 	lea    -0x10d8(%rbp),%rax
    c69b:	48 89 85 e0 fd ff ff 	mov    %rax,-0x220(%rbp)
    c6a2:	48 8d 85 28 ef ff ff 	lea    -0x10d8(%rbp),%rax
    c6a9:	48 89 85 e8 fd ff ff 	mov    %rax,-0x218(%rbp)
    c6b0:	48 8d 85 28 ef ff ff 	lea    -0x10d8(%rbp),%rax
    c6b7:	48 89 85 f0 fd ff ff 	mov    %rax,-0x210(%rbp)
    c6be:	48 8d 85 28 ef ff ff 	lea    -0x10d8(%rbp),%rax
    c6c5:	48 89 85 f8 fd ff ff 	mov    %rax,-0x208(%rbp)
    c6cc:	48 8d 85 28 ef ff ff 	lea    -0x10d8(%rbp),%rax
    c6d3:	48 89 85 00 fe ff ff 	mov    %rax,-0x200(%rbp)
    c6da:	48 8d 85 28 ef ff ff 	lea    -0x10d8(%rbp),%rax
    c6e1:	48 89 85 08 fe ff ff 	mov    %rax,-0x1f8(%rbp)
    c6e8:	48 8d 85 28 ef ff ff 	lea    -0x10d8(%rbp),%rax
    c6ef:	48 89 85 10 fe ff ff 	mov    %rax,-0x1f0(%rbp)
    c6f6:	48 8d 85 28 ef ff ff 	lea    -0x10d8(%rbp),%rax
    c6fd:	48 89 85 18 fe ff ff 	mov    %rax,-0x1e8(%rbp)
    c704:	48 8d 85 28 ef ff ff 	lea    -0x10d8(%rbp),%rax
    c70b:	48 89 85 20 fe ff ff 	mov    %rax,-0x1e0(%rbp)
    c712:	48 8d 85 28 ef ff ff 	lea    -0x10d8(%rbp),%rax
    c719:	48 89 85 28 fe ff ff 	mov    %rax,-0x1d8(%rbp)
    c720:	48 8d 85 28 ef ff ff 	lea    -0x10d8(%rbp),%rax
    c727:	48 89 85 30 fe ff ff 	mov    %rax,-0x1d0(%rbp)
    c72e:	48 8d 85 28 ef ff ff 	lea    -0x10d8(%rbp),%rax
    c735:	48 89 85 38 fe ff ff 	mov    %rax,-0x1c8(%rbp)
    c73c:	48 8d 85 28 ef ff ff 	lea    -0x10d8(%rbp),%rax
    c743:	48 89 85 40 fe ff ff 	mov    %rax,-0x1c0(%rbp)
    c74a:	48 c7 85 48 fe ff ff 	movq   $0x0,-0x1b8(%rbp)
    c751:	00 00 00 00 
    c755:	48 8d 85 28 ef ff ff 	lea    -0x10d8(%rbp),%rax
    c75c:	48 89 85 50 fe ff ff 	mov    %rax,-0x1b0(%rbp)
    c763:	48 8d 85 28 ef ff ff 	lea    -0x10d8(%rbp),%rax
    c76a:	48 89 85 58 fe ff ff 	mov    %rax,-0x1a8(%rbp)
    c771:	48 8d 85 28 ef ff ff 	lea    -0x10d8(%rbp),%rax
    c778:	48 89 85 60 fe ff ff 	mov    %rax,-0x1a0(%rbp)
    c77f:	48 c7 85 68 fe ff ff 	movq   $0x0,-0x198(%rbp)
    c786:	00 00 00 00 
    c78a:	48 c7 85 70 fe ff ff 	movq   $0x0,-0x190(%rbp)
    c791:	00 00 00 00 
    c795:	48 8d 85 28 ef ff ff 	lea    -0x10d8(%rbp),%rax
    c79c:	48 89 85 78 fe ff ff 	mov    %rax,-0x188(%rbp)
    c7a3:	48 8d 85 28 ef ff ff 	lea    -0x10d8(%rbp),%rax
    c7aa:	48 89 85 80 fe ff ff 	mov    %rax,-0x180(%rbp)
    c7b1:	48 8d 85 28 ef ff ff 	lea    -0x10d8(%rbp),%rax
    c7b8:	48 89 85 88 fe ff ff 	mov    %rax,-0x178(%rbp)
    c7bf:	48 8d 85 28 ef ff ff 	lea    -0x10d8(%rbp),%rax
    c7c6:	48 89 85 90 fe ff ff 	mov    %rax,-0x170(%rbp)
    c7cd:	48 8d 85 28 ef ff ff 	lea    -0x10d8(%rbp),%rax
    c7d4:	48 89 85 98 fe ff ff 	mov    %rax,-0x168(%rbp)
    c7db:	48 c7 85 a0 fe ff ff 	movq   $0x0,-0x160(%rbp)
    c7e2:	00 00 00 00 
    c7e6:	48 8d 85 28 ef ff ff 	lea    -0x10d8(%rbp),%rax
    c7ed:	48 89 85 a8 fe ff ff 	mov    %rax,-0x158(%rbp)
    c7f4:	48 8d 85 28 ef ff ff 	lea    -0x10d8(%rbp),%rax
    c7fb:	48 89 85 b0 fe ff ff 	mov    %rax,-0x150(%rbp)
    c802:	48 8d 85 28 ef ff ff 	lea    -0x10d8(%rbp),%rax
    c809:	48 89 85 b8 fe ff ff 	mov    %rax,-0x148(%rbp)
    c810:	48 8d 85 28 ef ff ff 	lea    -0x10d8(%rbp),%rax
    c817:	48 89 85 c0 fe ff ff 	mov    %rax,-0x140(%rbp)
    c81e:	48 c7 85 c8 fe ff ff 	movq   $0x0,-0x138(%rbp)
    c825:	00 00 00 00 
    c829:	48 8d 85 28 ef ff ff 	lea    -0x10d8(%rbp),%rax
    c830:	48 89 85 d0 fe ff ff 	mov    %rax,-0x130(%rbp)
    c837:	48 8d 85 28 ef ff ff 	lea    -0x10d8(%rbp),%rax
    c83e:	48 89 85 d8 fe ff ff 	mov    %rax,-0x128(%rbp)
    c845:	48 8d 85 28 ef ff ff 	lea    -0x10d8(%rbp),%rax
    c84c:	48 89 85 e0 fe ff ff 	mov    %rax,-0x120(%rbp)
    c853:	48 8d 85 28 ef ff ff 	lea    -0x10d8(%rbp),%rax
    c85a:	48 89 85 e8 fe ff ff 	mov    %rax,-0x118(%rbp)
    c861:	48 8d 85 28 ef ff ff 	lea    -0x10d8(%rbp),%rax
    c868:	48 89 85 f0 fe ff ff 	mov    %rax,-0x110(%rbp)
    c86f:	48 8d 85 28 ef ff ff 	lea    -0x10d8(%rbp),%rax
    c876:	48 89 85 f8 fe ff ff 	mov    %rax,-0x108(%rbp)
    c87d:	48 c7 85 00 ff ff ff 	movq   $0x0,-0x100(%rbp)
    c884:	00 00 00 00 
    c888:	48 c7 85 08 ff ff ff 	movq   $0x0,-0xf8(%rbp)
    c88f:	00 00 00 00 
    c893:	48 8d 85 28 ef ff ff 	lea    -0x10d8(%rbp),%rax
    c89a:	48 89 85 10 ff ff ff 	mov    %rax,-0xf0(%rbp)
    c8a1:	48 c7 85 18 ff ff ff 	movq   $0x0,-0xe8(%rbp)
    c8a8:	00 00 00 00 
    c8ac:	48 8d 85 28 ef ff ff 	lea    -0x10d8(%rbp),%rax
    c8b3:	48 89 85 20 ff ff ff 	mov    %rax,-0xe0(%rbp)
    c8ba:	48 8d 85 28 ef ff ff 	lea    -0x10d8(%rbp),%rax
    c8c1:	48 89 85 28 ff ff ff 	mov    %rax,-0xd8(%rbp)
    c8c8:	48 c7 85 30 ff ff ff 	movq   $0x0,-0xd0(%rbp)
    c8cf:	00 00 00 00 
    c8d3:	48 8d 85 28 ef ff ff 	lea    -0x10d8(%rbp),%rax
    c8da:	48 89 85 38 ff ff ff 	mov    %rax,-0xc8(%rbp)
    c8e1:	48 8d 85 28 ef ff ff 	lea    -0x10d8(%rbp),%rax
    c8e8:	48 89 85 40 ff ff ff 	mov    %rax,-0xc0(%rbp)
    c8ef:	48 8d 85 28 ef ff ff 	lea    -0x10d8(%rbp),%rax
    c8f6:	48 89 85 48 ff ff ff 	mov    %rax,-0xb8(%rbp)
    c8fd:	48 8d 85 28 ef ff ff 	lea    -0x10d8(%rbp),%rax
    c904:	48 89 85 50 ff ff ff 	mov    %rax,-0xb0(%rbp)
    c90b:	48 c7 85 58 ff ff ff 	movq   $0x0,-0xa8(%rbp)
    c912:	00 00 00 00 
    c916:	48 c7 85 60 ff ff ff 	movq   $0x0,-0xa0(%rbp)
    c91d:	00 00 00 00 
    c921:	48 8d 85 28 ef ff ff 	lea    -0x10d8(%rbp),%rax
    c928:	48 89 85 68 ff ff ff 	mov    %rax,-0x98(%rbp)
    c92f:	48 8d 85 28 ef ff ff 	lea    -0x10d8(%rbp),%rax
    c936:	48 89 85 70 ff ff ff 	mov    %rax,-0x90(%rbp)
    c93d:	48 8d 85 28 ef ff ff 	lea    -0x10d8(%rbp),%rax
    c944:	48 89 85 78 ff ff ff 	mov    %rax,-0x88(%rbp)
    c94b:	48 c7 45 80 00 00 00 	movq   $0x0,-0x80(%rbp)
    c952:	00 
    c953:	48 8d 85 28 ef ff ff 	lea    -0x10d8(%rbp),%rax
    c95a:	48 89 45 88          	mov    %rax,-0x78(%rbp)
    c95e:	48 8d 85 28 ef ff ff 	lea    -0x10d8(%rbp),%rax
    c965:	48 89 45 90          	mov    %rax,-0x70(%rbp)
    c969:	48 8d 85 28 ef ff ff 	lea    -0x10d8(%rbp),%rax
    c970:	48 89 45 98          	mov    %rax,-0x68(%rbp)
    c974:	48 c7 45 a0 00 00 00 	movq   $0x0,-0x60(%rbp)
    c97b:	00 
    c97c:	48 8d 85 28 ef ff ff 	lea    -0x10d8(%rbp),%rax
    c983:	48 89 45 a8          	mov    %rax,-0x58(%rbp)
    c987:	48 8d 85 28 ef ff ff 	lea    -0x10d8(%rbp),%rax
    c98e:	48 89 45 b0          	mov    %rax,-0x50(%rbp)
    c992:	48 8d 85 28 ef ff ff 	lea    -0x10d8(%rbp),%rax
    c999:	48 89 45 b8          	mov    %rax,-0x48(%rbp)
    c99d:	48 c7 85 30 ef ff ff 	movq   $0x0,-0x10d0(%rbp)
    c9a4:	00 00 00 00 
    c9a8:	48 8d 85 30 ef ff ff 	lea    -0x10d0(%rbp),%rax
    c9af:	48 89 85 38 ef ff ff 	mov    %rax,-0x10c8(%rbp)
    c9b6:	48 8d 85 38 ef ff ff 	lea    -0x10c8(%rbp),%rax
    c9bd:	48 89 85 a0 ef ff ff 	mov    %rax,-0x1060(%rbp)
    c9c4:	48 c7 85 a8 ef ff ff 	movq   $0xfffffffffffffff9,-0x1058(%rbp)
    c9cb:	f9 ff ff ff 
    c9cf:	48 c7 85 b0 ef ff ff 	movq   $0x0,-0x1050(%rbp)
    c9d6:	00 00 00 00 
    c9da:	48 8d 85 f8 ee ff ff 	lea    -0x1108(%rbp),%rax
    c9e1:	48 89 85 40 ef ff ff 	mov    %rax,-0x10c0(%rbp)
    c9e8:	48 8d 85 40 ef ff ff 	lea    -0x10c0(%rbp),%rax
    c9ef:	48 89 85 b8 ef ff ff 	mov    %rax,-0x1048(%rbp)
    c9f6:	48 c7 85 48 ef ff ff 	movq   $0x0,-0x10b8(%rbp)
    c9fd:	00 00 00 00 
    ca01:	c7 85 48 ef ff ff 02 	movl   $0x9bb0fc02,-0x10b8(%rbp)
    ca08:	fc b0 9b 
    ca0b:	c7 05 bf 26 01 00 01 	movl   $0x1,0x126bf(%rip)        # 1f0d4 <g_11>
    ca12:	00 00 00 
    ca15:	e9 3a 01 00 00       	jmpq   cb54 <func_1+0x139f>
    ca1a:	48 c7 85 50 ef ff ff 	movq   $0x0,-0x10b0(%rbp)
    ca21:	00 00 00 00 
    ca25:	c7 85 50 ef ff ff cf 	movl   $0x36a5b5cf,-0x10b0(%rbp)
    ca2c:	b5 a5 36 
    ca2f:	48 8d 05 a2 26 01 00 	lea    0x126a2(%rip),%rax        # 1f0d8 <g_31>
    ca36:	48 89 85 c0 ef ff ff 	mov    %rax,-0x1040(%rbp)
    ca3d:	48 c7 85 c8 ef ff ff 	movq   $0x0,-0x1038(%rbp)
    ca44:	00 00 00 00 
    ca48:	48 8d 05 25 2d 01 00 	lea    0x12d25(%rip),%rax        # 1f774 <g_1177>
    ca4f:	48 89 85 d0 ef ff ff 	mov    %rax,-0x1030(%rbp)
    ca56:	c7 85 14 ef ff ff 00 	movl   $0x0,-0x10ec(%rbp)
    ca5d:	00 00 00 
    ca60:	c7 85 18 ef ff ff 0b 	movl   $0x9f2cac0b,-0x10e8(%rbp)
    ca67:	ac 2c 9f 
    ca6a:	c7 85 1c ef ff ff 3d 	movl   $0x87a9c43d,-0x10e4(%rbp)
    ca71:	c4 a9 87 
    ca74:	48 8d 05 25 56 01 00 	lea    0x15625(%rip),%rax        # 220a0 <g_447>
    ca7b:	48 89 85 58 ef ff ff 	mov    %rax,-0x10a8(%rbp)
    ca82:	48 8d 85 58 ef ff ff 	lea    -0x10a8(%rbp),%rax
    ca89:	48 89 85 d8 ef ff ff 	mov    %rax,-0x1028(%rbp)
    ca90:	48 8d 85 40 f4 ff ff 	lea    -0xbc0(%rbp),%rax
    ca97:	48 8d 15 c2 30 01 00 	lea    0x130c2(%rip),%rdx        # 1fb60 <g_2057+0x2e0>
    ca9e:	b9 70 00 00 00       	mov    $0x70,%ecx
    caa3:	48 89 c7             	mov    %rax,%rdi
    caa6:	48 89 d6             	mov    %rdx,%rsi
    caa9:	f3 48 a5             	rep movsq %ds:(%rsi),%es:(%rdi)
    caac:	c7 85 20 ef ff ff da 	movl   $0x65a16ada,-0x10e0(%rbp)
    cab3:	6a a1 65 
    cab6:	c7 85 24 ef ff ff ff 	movl   $0xffffffff,-0x10dc(%rbp)
    cabd:	ff ff ff 
    cac0:	48 b8 3e 45 52 c4 3f 	movabs $0x8bfb183fc452453e,%rax
    cac7:	18 fb 8b 
    caca:	48 89 85 20 f0 ff ff 	mov    %rax,-0xfe0(%rbp)
    cad1:	48 89 85 28 f0 ff ff 	mov    %rax,-0xfd8(%rbp)
    cad8:	48 89 85 30 f0 ff ff 	mov    %rax,-0xfd0(%rbp)
    cadf:	48 89 85 38 f0 ff ff 	mov    %rax,-0xfc8(%rbp)
    cae6:	48 89 85 40 f0 ff ff 	mov    %rax,-0xfc0(%rbp)
    caed:	48 8d 05 04 29 01 00 	lea    0x12904(%rip),%rax        # 1f3f8 <g_623>
    caf4:	48 89 85 e0 ef ff ff 	mov    %rax,-0x1020(%rbp)
    cafb:	66 c7 85 f4 ee ff ff 	movw   $0xfff6,-0x110c(%rbp)
    cb02:	f6 ff 
    cb04:	48 8d 05 55 68 01 00 	lea    0x16855(%rip),%rax        # 23360 <g_245>
    cb0b:	48 89 85 60 ef ff ff 	mov    %rax,-0x10a0(%rbp)
    cb12:	48 8d 85 60 ef ff ff 	lea    -0x10a0(%rbp),%rax
    cb19:	48 89 85 e8 ef ff ff 	mov    %rax,-0x1018(%rbp)
    cb20:	66 c7 85 f6 ee ff ff 	movw   $0x0,-0x110a(%rbp)
    cb27:	00 00 
    cb29:	48 8d 05 60 55 01 00 	lea    0x15560(%rip),%rax        # 22090 <g_192>
    cb30:	48 89 85 68 ef ff ff 	mov    %rax,-0x1098(%rbp)
    cb37:	48 8d 85 68 ef ff ff 	lea    -0x1098(%rbp),%rax
    cb3e:	48 89 85 f0 ef ff ff 	mov    %rax,-0x1010(%rbp)
    cb45:	8b 05 89 25 01 00    	mov    0x12589(%rip),%eax        # 1f0d4 <g_11>
    cb4b:	83 c0 01             	add    $0x1,%eax
    cb4e:	89 05 80 25 01 00    	mov    %eax,0x12580(%rip)        # 1f0d4 <g_11>
    cb54:	8b 05 7a 25 01 00    	mov    0x1257a(%rip),%eax        # 1f0d4 <g_11>
    cb5a:	83 f8 04             	cmp    $0x4,%eax
    cb5d:	0f 8e b7 fe ff ff    	jle    ca1a <func_1+0x1265>
    cb63:	8b 05 0b f4 00 00    	mov    0xf40b(%rip),%eax        # 1bf74 <l_47.4260+0x14>
    cb69:	0f b7 d8             	movzwl %ax,%ebx
    cb6c:	48 8b 05 2d 55 01 00 	mov    0x1552d(%rip),%rax        # 220a0 <g_447>
    cb73:	48 8b 00             	mov    (%rax),%rax
    cb76:	48 89 85 e8 ee ff ff 	mov    %rax,-0x1118(%rbp)
    cb7d:	8b 85 08 ef ff ff    	mov    -0x10f8(%rbp),%eax
    cb83:	44 0f be e0          	movsbl %al,%r12d
    cb87:	8b 85 08 ef ff ff    	mov    -0x10f8(%rbp),%eax
    cb8d:	4c 63 e8             	movslq %eax,%r13
    cb90:	48 8b 85 b8 ef ff ff 	mov    -0x1048(%rbp),%rax
    cb97:	48 8d 15 52 25 01 00 	lea    0x12552(%rip),%rdx        # 1f0f0 <g_74>
    cb9e:	48 89 10             	mov    %rdx,(%rax)
    cba1:	48 8b 85 b8 ef ff ff 	mov    -0x1048(%rbp),%rax
    cba8:	48 8b 10             	mov    (%rax),%rdx
    cbab:	48 8d 85 f8 ee ff ff 	lea    -0x1108(%rbp),%rax
    cbb2:	48 39 c2             	cmp    %rax,%rdx
    cbb5:	0f 85 1f 01 00 00    	jne    ccda <func_1+0x1525>
    cbbb:	48 8b 05 a6 55 01 00 	mov    0x155a6(%rip),%rax        # 22168 <g_1015>
    cbc2:	44 0f b7 30          	movzwl (%rax),%r14d
    cbc6:	8b 85 fc ef ff ff    	mov    -0x1004(%rbp),%eax
    cbcc:	89 85 e4 ee ff ff    	mov    %eax,-0x111c(%rbp)
    cbd2:	8b 85 0c f0 ff ff    	mov    -0xff4(%rbp),%eax
    cbd8:	0f b7 c0             	movzwl %ax,%eax
    cbdb:	be 05 00 00 00       	mov    $0x5,%esi
    cbe0:	89 c7                	mov    %eax,%edi
    cbe2:	e8 d7 e1 ff ff       	callq  adbe <safe_lshift_func_uint16_t_u_s>
    cbe7:	89 c2                	mov    %eax,%edx
    cbe9:	48 8b 05 88 58 01 00 	mov    0x15888(%rip),%rax        # 22478 <g_1305>
    cbf0:	48 8b 00             	mov    (%rax),%rax
    cbf3:	66 89 10             	mov    %dx,(%rax)
    cbf6:	0f b7 00             	movzwl (%rax),%eax
    cbf9:	98                   	cwtl   
    cbfa:	be 00 00 00 00       	mov    $0x0,%esi
    cbff:	89 c7                	mov    %eax,%edi
    cc01:	e8 db d8 ff ff       	callq  a4e1 <safe_lshift_func_int16_t_s_u>
    cc06:	44 0f bf f8          	movswl %ax,%r15d
    cc0a:	8b 05 00 26 01 00    	mov    0x12600(%rip),%eax        # 1f210 <g_263+0x8>
    cc10:	89 c0                	mov    %eax,%eax
    cc12:	48 89 85 d8 ee ff ff 	mov    %rax,-0x1128(%rbp)
    cc19:	8b 05 fd 25 01 00    	mov    0x125fd(%rip),%eax        # 1f21c <g_426>
    cc1f:	89 85 e0 ee ff ff    	mov    %eax,-0x1120(%rbp)
    cc25:	0f b6 85 5f f0 ff ff 	movzbl -0xfa1(%rbp),%eax
    cc2c:	0f be c0             	movsbl %al,%eax
    cc2f:	be 07 00 00 00       	mov    $0x7,%esi
    cc34:	89 c7                	mov    %eax,%edi
    cc36:	e8 31 d7 ff ff       	callq  a36c <safe_rshift_func_int8_t_s_u>
    cc3b:	84 c0                	test   %al,%al
    cc3d:	74 28                	je     cc67 <func_1+0x14b2>
    cc3f:	48 8b 85 50 f1 ff ff 	mov    -0xeb0(%rbp),%rax
    cc46:	0f be d0             	movsbl %al,%edx
    cc49:	0f b6 05 88 24 01 00 	movzbl 0x12488(%rip),%eax        # 1f0d8 <g_31>
    cc50:	0f be c0             	movsbl %al,%eax
    cc53:	89 d6                	mov    %edx,%esi
    cc55:	89 c7                	mov    %eax,%edi
    cc57:	e8 78 d5 ff ff       	callq  a1d4 <safe_add_func_int8_t_s_s>
    cc5c:	84 c0                	test   %al,%al
    cc5e:	74 07                	je     cc67 <func_1+0x14b2>
    cc60:	b8 01 00 00 00       	mov    $0x1,%eax
    cc65:	eb 05                	jmp    cc6c <func_1+0x14b7>
    cc67:	b8 00 00 00 00       	mov    $0x0,%eax
    cc6c:	0f be c0             	movsbl %al,%eax
    cc6f:	8b b5 e0 ee ff ff    	mov    -0x1120(%rbp),%esi
    cc75:	89 c7                	mov    %eax,%edi
    cc77:	e8 25 d6 ff ff       	callq  a2a1 <safe_lshift_func_int8_t_s_s>
    cc7c:	48 0f be c0          	movsbq %al,%rax
    cc80:	48 8b b5 d8 ee ff ff 	mov    -0x1128(%rbp),%rsi
    cc87:	48 89 c7             	mov    %rax,%rdi
    cc8a:	e8 25 dd ff ff       	callq  a9b4 <safe_mod_func_int64_t_s_s>
    cc8f:	48 89 c2             	mov    %rax,%rdx
    cc92:	48 8b 05 ff 53 01 00 	mov    0x153ff(%rip),%rax        # 22098 <g_375>
    cc99:	88 10                	mov    %dl,(%rax)
    cc9b:	0f b6 00             	movzbl (%rax),%eax
    cc9e:	0f b6 c0             	movzbl %al,%eax
    cca1:	41 39 c7             	cmp    %eax,%r15d
    cca4:	0f 9e c0             	setle  %al
    cca7:	0f b6 c0             	movzbl %al,%eax
    ccaa:	8b b5 e4 ee ff ff    	mov    -0x111c(%rbp),%esi
    ccb0:	89 c7                	mov    %eax,%edi
    ccb2:	e8 b5 d6 ff ff       	callq  a36c <safe_rshift_func_int8_t_s_u>
    ccb7:	66 98                	cbtw   
    ccb9:	66 41 39 c6          	cmp    %ax,%r14w
    ccbd:	0f 9e c0             	setle  %al
    ccc0:	0f b6 c0             	movzbl %al,%eax
    ccc3:	48 8b 95 a8 ef ff ff 	mov    -0x1058(%rbp),%rdx
    ccca:	48 89 d6             	mov    %rdx,%rsi
    cccd:	48 89 c7             	mov    %rax,%rdi
    ccd0:	e8 59 e3 ff ff       	callq  b02e <safe_add_func_uint64_t_u_u>
    ccd5:	48 85 c0             	test   %rax,%rax
    ccd8:	74 07                	je     cce1 <func_1+0x152c>
    ccda:	b8 01 00 00 00       	mov    $0x1,%eax
    ccdf:	eb 05                	jmp    cce6 <func_1+0x1531>
    cce1:	b8 00 00 00 00       	mov    $0x0,%eax
    cce6:	89 85 08 f0 ff ff    	mov    %eax,-0xff8(%rbp)
    ccec:	48 8b 05 65 54 01 00 	mov    0x15465(%rip),%rax        # 22158 <g_1010>
    ccf3:	48 8b 00             	mov    (%rax),%rax
    ccf6:	4c 89 ee             	mov    %r13,%rsi
    ccf9:	48 89 c7             	mov    %rax,%rdi
    ccfc:	e8 2d e3 ff ff       	callq  b02e <safe_add_func_uint64_t_u_u>
    cd01:	48 83 f8 fd          	cmp    $0xfffffffffffffffd,%rax
    cd05:	0f 96 c0             	setbe  %al
    cd08:	0f b6 c0             	movzbl %al,%eax
    cd0b:	44 89 e6             	mov    %r12d,%esi
    cd0e:	89 c7                	mov    %eax,%edi
    cd10:	e8 dd d4 ff ff       	callq  a1f2 <safe_sub_func_int8_t_s_s>
    cd15:	0f b7 05 4c 2b 01 00 	movzwl 0x12b4c(%rip),%eax        # 1f868 <g_1959+0x1>
    cd1c:	0f b6 d0             	movzbl %al,%edx
    cd1f:	48 8b 05 2a 57 01 00 	mov    0x1572a(%rip),%rax        # 22450 <g_1221>
    cd26:	0f b7 00             	movzwl (%rax),%eax
    cd29:	66 83 f8 ff          	cmp    $0xffff,%ax
    cd2d:	0f 94 c0             	sete   %al
    cd30:	0f b6 c0             	movzbl %al,%eax
    cd33:	89 d6                	mov    %edx,%esi
    cd35:	89 c7                	mov    %eax,%edi
    cd37:	e8 72 de ff ff       	callq  abae <safe_mod_func_uint8_t_u_u>
    cd3c:	89 c2                	mov    %eax,%edx
    cd3e:	48 8b 05 2b 57 01 00 	mov    0x1572b(%rip),%rax        # 22470 <g_1255>
    cd45:	0f b6 d2             	movzbl %dl,%edx
    cd48:	89 10                	mov    %edx,(%rax)
    cd4a:	8b 00                	mov    (%rax),%eax
    cd4c:	89 85 fc ef ff ff    	mov    %eax,-0x1004(%rbp)
    cd52:	8b 85 48 ef ff ff    	mov    -0x10b8(%rbp),%eax
    cd58:	85 c0                	test   %eax,%eax
    cd5a:	75 08                	jne    cd64 <func_1+0x15af>
    cd5c:	8b 85 fc ef ff ff    	mov    -0x1004(%rbp),%eax
    cd62:	85 c0                	test   %eax,%eax
    cd64:	48 8b b5 e8 ee ff ff 	mov    -0x1118(%rbp),%rsi
    cd6b:	bf fb 00 00 00       	mov    $0xfb,%edi
    cd70:	e8 d6 e2 ff ff       	callq  b04b <safe_sub_func_uint64_t_u_u>
    cd75:	8b 85 10 ef ff ff    	mov    -0x10f0(%rbp),%eax
    cd7b:	0f b7 c0             	movzwl %ax,%eax
    cd7e:	89 de                	mov    %ebx,%esi
    cd80:	89 c7                	mov    %eax,%edi
    cd82:	e8 b6 df ff ff       	callq  ad3d <safe_mul_func_uint16_t_u_u>
    cd87:	0f b7 c0             	movzwl %ax,%eax
    cd8a:	09 85 fc ee ff ff    	or     %eax,-0x1104(%rbp)
    cd90:	8b 05 3a 23 01 00    	mov    0x1233a(%rip),%eax        # 1f0d0 <g_10>
    cd96:	83 c0 01             	add    $0x1,%eax
    cd99:	89 05 31 23 01 00    	mov    %eax,0x12331(%rip)        # 1f0d0 <g_10>
    cd9f:	8b 05 2b 23 01 00    	mov    0x1232b(%rip),%eax        # 1f0d0 <g_10>
    cda5:	83 f8 04             	cmp    $0x4,%eax
    cda8:	0f 8e 4f ee ff ff    	jle    bbfd <func_1+0x448>
    cdae:	8b 85 fc ee ff ff    	mov    -0x1104(%rbp),%eax
    cdb4:	48 98                	cltq   
    cdb6:	48 8b 5d c8          	mov    -0x38(%rbp),%rbx
    cdba:	64 48 33 1c 25 28 00 	xor    %fs:0x28,%rbx
    cdc1:	00 00 
    cdc3:	74 05                	je     cdca <func_1+0x1615>
    cdc5:	e8 a6 d2 ff ff       	callq  a070 <__stack_chk_fail@plt>
    cdca:	48 81 c4 08 11 00 00 	add    $0x1108,%rsp
    cdd1:	5b                   	pop    %rbx
    cdd2:	41 5c                	pop    %r12
    cdd4:	41 5d                	pop    %r13
    cdd6:	41 5e                	pop    %r14
    cdd8:	41 5f                	pop    %r15
    cdda:	5d                   	pop    %rbp
    cddb:	c3                   	retq   

000000000000cddc <func_14>:
    cddc:	f3 0f 1e fa          	endbr64 
    cde0:	55                   	push   %rbp
    cde1:	48 89 e5             	mov    %rsp,%rbp
    cde4:	41 57                	push   %r15
    cde6:	41 56                	push   %r14
    cde8:	41 55                	push   %r13
    cdea:	41 54                	push   %r12
    cdec:	53                   	push   %rbx
    cded:	48 81 ec 18 0f 00 00 	sub    $0xf18,%rsp
    cdf4:	89 f8                	mov    %edi,%eax
    cdf6:	66 89 b5 de f0 ff ff 	mov    %si,-0xf22(%rbp)
    cdfd:	88 85 dc f0 ff ff    	mov    %al,-0xf24(%rbp)
    ce03:	64 48 8b 04 25 28 00 	mov    %fs:0x28,%rax
    ce0a:	00 00 
    ce0c:	48 89 45 c8          	mov    %rax,-0x38(%rbp)
    ce10:	31 c0                	xor    %eax,%eax
    ce12:	48 b8 c2 8b 23 37 fd 	movabs $0x2e596ffd37238bc2,%rax
    ce19:	6f 59 2e 
    ce1c:	48 89 85 b0 f1 ff ff 	mov    %rax,-0xe50(%rbp)
    ce23:	48 8d 05 5e 52 01 00 	lea    0x1525e(%rip),%rax        # 22088 <g_193>
    ce2a:	48 89 85 b8 f1 ff ff 	mov    %rax,-0xe48(%rbp)
    ce31:	66 c7 85 f8 f0 ff ff 	movw   $0xfff6,-0xf08(%rbp)
    ce38:	f6 ff 
    ce3a:	48 8d 05 c7 23 01 00 	lea    0x123c7(%rip),%rax        # 1f208 <g_263>
    ce41:	48 89 85 c0 f1 ff ff 	mov    %rax,-0xe40(%rbp)
    ce48:	c7 85 30 f1 ff ff 05 	movl   $0x5,-0xed0(%rbp)
    ce4f:	00 00 00 
    ce52:	c7 85 34 f1 ff ff 2d 	movl   $0x9f96982d,-0xecc(%rbp)
    ce59:	98 96 9f 
    ce5c:	c7 85 38 f1 ff ff 09 	movl   $0x9,-0xec8(%rbp)
    ce63:	00 00 00 
    ce66:	c7 85 90 f3 ff ff c1 	movl   $0x493665c1,-0xc70(%rbp)
    ce6d:	65 36 49 
    ce70:	c7 85 94 f3 ff ff d8 	movl   $0x7c4807d8,-0xc6c(%rbp)
    ce77:	07 48 7c 
    ce7a:	c7 85 98 f3 ff ff d8 	movl   $0x7c4807d8,-0xc68(%rbp)
    ce81:	07 48 7c 
    ce84:	c7 85 9c f3 ff ff c1 	movl   $0x493665c1,-0xc64(%rbp)
    ce8b:	65 36 49 
    ce8e:	c7 85 a0 f3 ff ff c1 	movl   $0x493665c1,-0xc60(%rbp)
    ce95:	65 36 49 
    ce98:	c7 85 a4 f3 ff ff d8 	movl   $0x7c4807d8,-0xc5c(%rbp)
    ce9f:	07 48 7c 
    cea2:	c7 85 a8 f3 ff ff d8 	movl   $0x7c4807d8,-0xc58(%rbp)
    cea9:	07 48 7c 
    ceac:	c7 85 ac f3 ff ff c1 	movl   $0x493665c1,-0xc54(%rbp)
    ceb3:	65 36 49 
    ceb6:	c7 85 b0 f3 ff ff c1 	movl   $0x493665c1,-0xc50(%rbp)
    cebd:	65 36 49 
    cec0:	c7 85 b4 f3 ff ff f9 	movl   $0xfffffff9,-0xc4c(%rbp)
    cec7:	ff ff ff 
    ceca:	c7 85 b8 f3 ff ff ed 	movl   $0x8f2bdded,-0xc48(%rbp)
    ced1:	dd 2b 8f 
    ced4:	c7 85 bc f3 ff ff f9 	movl   $0xfffffff9,-0xc44(%rbp)
    cedb:	ff ff ff 
    cede:	c7 85 c0 f3 ff ff ed 	movl   $0x8f2bdded,-0xc40(%rbp)
    cee5:	dd 2b 8f 
    cee8:	c7 85 c4 f3 ff ff f9 	movl   $0xfffffff9,-0xc3c(%rbp)
    ceef:	ff ff ff 
    cef2:	c7 85 c8 f3 ff ff ed 	movl   $0x8f2bdded,-0xc38(%rbp)
    cef9:	dd 2b 8f 
    cefc:	c7 85 cc f3 ff ff f9 	movl   $0xfffffff9,-0xc34(%rbp)
    cf03:	ff ff ff 
    cf06:	c7 85 d0 f3 ff ff ed 	movl   $0x8f2bdded,-0xc30(%rbp)
    cf0d:	dd 2b 8f 
    cf10:	c7 85 d4 f3 ff ff f9 	movl   $0xfffffff9,-0xc2c(%rbp)
    cf17:	ff ff ff 
    cf1a:	c7 85 d8 f3 ff ff c1 	movl   $0x493665c1,-0xc28(%rbp)
    cf21:	65 36 49 
    cf24:	c7 85 dc f3 ff ff c1 	movl   $0x493665c1,-0xc24(%rbp)
    cf2b:	65 36 49 
    cf2e:	c7 85 e0 f3 ff ff d8 	movl   $0x7c4807d8,-0xc20(%rbp)
    cf35:	07 48 7c 
    cf38:	c7 85 e4 f3 ff ff d8 	movl   $0x7c4807d8,-0xc1c(%rbp)
    cf3f:	07 48 7c 
    cf42:	c7 85 e8 f3 ff ff c1 	movl   $0x493665c1,-0xc18(%rbp)
    cf49:	65 36 49 
    cf4c:	c7 85 ec f3 ff ff c1 	movl   $0x493665c1,-0xc14(%rbp)
    cf53:	65 36 49 
    cf56:	c7 85 f0 f3 ff ff d8 	movl   $0x7c4807d8,-0xc10(%rbp)
    cf5d:	07 48 7c 
    cf60:	c7 85 f4 f3 ff ff d8 	movl   $0x7c4807d8,-0xc0c(%rbp)
    cf67:	07 48 7c 
    cf6a:	c7 85 f8 f3 ff ff c1 	movl   $0x493665c1,-0xc08(%rbp)
    cf71:	65 36 49 
    cf74:	c7 85 fc f3 ff ff 31 	movl   $0x13ca331,-0xc04(%rbp)
    cf7b:	a3 3c 01 
    cf7e:	c7 85 00 f4 ff ff ed 	movl   $0x8f2bdded,-0xc00(%rbp)
    cf85:	dd 2b 8f 
    cf88:	c7 85 04 f4 ff ff 31 	movl   $0x13ca331,-0xbfc(%rbp)
    cf8f:	a3 3c 01 
    cf92:	c7 85 08 f4 ff ff ed 	movl   $0x8f2bdded,-0xbf8(%rbp)
    cf99:	dd 2b 8f 
    cf9c:	c7 85 0c f4 ff ff 31 	movl   $0x13ca331,-0xbf4(%rbp)
    cfa3:	a3 3c 01 
    cfa6:	c7 85 10 f4 ff ff ed 	movl   $0x8f2bdded,-0xbf0(%rbp)
    cfad:	dd 2b 8f 
    cfb0:	c7 85 14 f4 ff ff 31 	movl   $0x13ca331,-0xbec(%rbp)
    cfb7:	a3 3c 01 
    cfba:	c7 85 18 f4 ff ff ed 	movl   $0x8f2bdded,-0xbe8(%rbp)
    cfc1:	dd 2b 8f 
    cfc4:	c7 85 1c f4 ff ff 31 	movl   $0x13ca331,-0xbe4(%rbp)
    cfcb:	a3 3c 01 
    cfce:	48 c7 85 c8 f1 ff ff 	movq   $0x0,-0xe38(%rbp)
    cfd5:	00 00 00 00 
    cfd9:	48 8d 05 f9 20 01 00 	lea    0x120f9(%rip),%rax        # 1f0d9 <g_34>
    cfe0:	48 89 85 d0 f1 ff ff 	mov    %rax,-0xe30(%rbp)
    cfe7:	48 8d 05 52 54 01 00 	lea    0x15452(%rip),%rax        # 22440 <g_1033>
    cfee:	48 89 85 78 f1 ff ff 	mov    %rax,-0xe88(%rbp)
    cff5:	48 8d 85 78 f1 ff ff 	lea    -0xe88(%rbp),%rax
    cffc:	48 89 85 d8 f1 ff ff 	mov    %rax,-0xe28(%rbp)
    d003:	c6 85 ef f0 ff ff fd 	movb   $0xfd,-0xf11(%rbp)
    d00a:	66 c7 85 f6 f0 ff ff 	movw   $0x1,-0xf0a(%rbp)
    d011:	01 00 
    d013:	c6 85 f0 f0 ff ff 00 	movb   $0x0,-0xf10(%rbp)
    d01a:	c7 85 40 f3 ff ff 04 	movl   $0x4,-0xcc0(%rbp)
    d021:	00 00 00 
    d024:	c7 85 44 f3 ff ff b0 	movl   $0xec7bf9b0,-0xcbc(%rbp)
    d02b:	f9 7b ec 
    d02e:	c7 85 48 f3 ff ff b0 	movl   $0xec7bf9b0,-0xcb8(%rbp)
    d035:	f9 7b ec 
    d038:	c7 85 4c f3 ff ff 04 	movl   $0x4,-0xcb4(%rbp)
    d03f:	00 00 00 
    d042:	c7 85 50 f3 ff ff 04 	movl   $0x4,-0xcb0(%rbp)
    d049:	00 00 00 
    d04c:	c7 85 54 f3 ff ff b0 	movl   $0xec7bf9b0,-0xcac(%rbp)
    d053:	f9 7b ec 
    d056:	c7 85 58 f3 ff ff b0 	movl   $0xec7bf9b0,-0xca8(%rbp)
    d05d:	f9 7b ec 
    d060:	c7 85 5c f3 ff ff 04 	movl   $0x4,-0xca4(%rbp)
    d067:	00 00 00 
    d06a:	c7 85 60 f3 ff ff 04 	movl   $0x4,-0xca0(%rbp)
    d071:	00 00 00 
    d074:	c7 85 64 f3 ff ff b0 	movl   $0xec7bf9b0,-0xc9c(%rbp)
    d07b:	f9 7b ec 
    d07e:	c7 85 68 f3 ff ff b0 	movl   $0xec7bf9b0,-0xc98(%rbp)
    d085:	f9 7b ec 
    d088:	c7 85 6c f3 ff ff 04 	movl   $0x4,-0xc94(%rbp)
    d08f:	00 00 00 
    d092:	c7 85 70 f3 ff ff 04 	movl   $0x4,-0xc90(%rbp)
    d099:	00 00 00 
    d09c:	c7 85 74 f3 ff ff b0 	movl   $0xec7bf9b0,-0xc8c(%rbp)
    d0a3:	f9 7b ec 
    d0a6:	c7 85 78 f3 ff ff b0 	movl   $0xec7bf9b0,-0xc88(%rbp)
    d0ad:	f9 7b ec 
    d0b0:	c7 85 7c f3 ff ff 04 	movl   $0x4,-0xc84(%rbp)
    d0b7:	00 00 00 
    d0ba:	c7 85 80 f3 ff ff 04 	movl   $0x4,-0xc80(%rbp)
    d0c1:	00 00 00 
    d0c4:	c7 85 84 f3 ff ff b0 	movl   $0xec7bf9b0,-0xc7c(%rbp)
    d0cb:	f9 7b ec 
    d0ce:	c7 85 88 f3 ff ff b0 	movl   $0xec7bf9b0,-0xc78(%rbp)
    d0d5:	f9 7b ec 
    d0d8:	c7 85 8c f3 ff ff 04 	movl   $0x4,-0xc74(%rbp)
    d0df:	00 00 00 
    d0e2:	48 8d 05 af 4f 01 00 	lea    0x14faf(%rip),%rax        # 22098 <g_375>
    d0e9:	48 89 85 e0 f1 ff ff 	mov    %rax,-0xe20(%rbp)
    d0f0:	c6 85 ed f0 ff ff 01 	movb   $0x1,-0xf13(%rbp)
    d0f7:	48 8d 05 cb 21 01 00 	lea    0x121cb(%rip),%rax        # 1f2c9 <g_589>
    d0fe:	48 89 85 a8 f1 ff ff 	mov    %rax,-0xe58(%rbp)
    d105:	c6 85 ee f0 ff ff 82 	movb   $0x82,-0xf12(%rbp)
    d10c:	c7 85 08 f1 ff ff 00 	movl   $0x0,-0xef8(%rbp)
    d113:	00 00 00 
    d116:	eb 1b                	jmp    d133 <func_14+0x357>
    d118:	8b 85 08 f1 ff ff    	mov    -0xef8(%rbp),%eax
    d11e:	48 98                	cltq   
    d120:	48 c7 84 c5 d0 f2 ff 	movq   $0x0,-0xd30(%rbp,%rax,8)
    d127:	ff 00 00 00 00 
    d12c:	83 85 08 f1 ff ff 01 	addl   $0x1,-0xef8(%rbp)
    d133:	83 bd 08 f1 ff ff 00 	cmpl   $0x0,-0xef8(%rbp)
    d13a:	7e dc                	jle    d118 <func_14+0x33c>
    d13c:	c7 85 08 f1 ff ff 00 	movl   $0x0,-0xef8(%rbp)
    d143:	00 00 00 
    d146:	eb 1e                	jmp    d166 <func_14+0x38a>
    d148:	8b 85 08 f1 ff ff    	mov    -0xef8(%rbp),%eax
    d14e:	48 98                	cltq   
    d150:	48 8d 15 f9 52 01 00 	lea    0x152f9(%rip),%rdx        # 22450 <g_1221>
    d157:	48 89 94 c5 f0 f2 ff 	mov    %rdx,-0xd10(%rbp,%rax,8)
    d15e:	ff 
    d15f:	83 85 08 f1 ff ff 01 	addl   $0x1,-0xef8(%rbp)
    d166:	83 bd 08 f1 ff ff 01 	cmpl   $0x1,-0xef8(%rbp)
    d16d:	7e d9                	jle    d148 <func_14+0x36c>
    d16f:	c7 05 b7 20 01 00 00 	movl   $0x0,0x120b7(%rip)        # 1f230 <g_557>
    d176:	00 00 00 
    d179:	e9 4d 01 00 00       	jmpq   d2cb <func_14+0x4ef>
    d17e:	c6 85 f5 f0 ff ff c2 	movb   $0xc2,-0xf0b(%rbp)
    d185:	c7 85 74 f1 ff ff 00 	movl   $0x0,-0xe8c(%rbp)
    d18c:	00 00 00 
    d18f:	48 c7 85 40 f8 ff ff 	movq   $0x0,-0x7c0(%rbp)
    d196:	00 00 00 00 
    d19a:	48 c7 85 48 f8 ff ff 	movq   $0x0,-0x7b8(%rbp)
    d1a1:	00 00 00 00 
    d1a5:	48 c7 85 50 f8 ff ff 	movq   $0x0,-0x7b0(%rbp)
    d1ac:	00 00 00 00 
    d1b0:	48 c7 85 58 f8 ff ff 	movq   $0x0,-0x7a8(%rbp)
    d1b7:	00 00 00 00 
    d1bb:	48 c7 85 60 f8 ff ff 	movq   $0x0,-0x7a0(%rbp)
    d1c2:	00 00 00 00 
    d1c6:	48 c7 85 68 f8 ff ff 	movq   $0x0,-0x798(%rbp)
    d1cd:	00 00 00 00 
    d1d1:	48 c7 85 70 f8 ff ff 	movq   $0x0,-0x790(%rbp)
    d1d8:	00 00 00 00 
    d1dc:	48 c7 85 78 f8 ff ff 	movq   $0x0,-0x788(%rbp)
    d1e3:	00 00 00 00 
    d1e7:	48 c7 85 80 f8 ff ff 	movq   $0x0,-0x780(%rbp)
    d1ee:	00 00 00 00 
    d1f2:	c6 85 f5 f0 ff ff 05 	movb   $0x5,-0xf0b(%rbp)
    d1f9:	0f b6 85 f5 f0 ff ff 	movzbl -0xf0b(%rbp),%eax
    d200:	0f b6 c0             	movzbl %al,%eax
    d203:	31 85 74 f1 ff ff    	xor    %eax,-0xe8c(%rbp)
    d209:	0f b6 9d f5 f0 ff ff 	movzbl -0xf0b(%rbp),%ebx
    d210:	48 8b 05 81 4e 01 00 	mov    0x14e81(%rip),%rax        # 22098 <g_375>
    d217:	0f b6 00             	movzbl (%rax),%eax
    d21a:	44 0f b6 e0          	movzbl %al,%r12d
    d21e:	48 8b 05 73 4e 01 00 	mov    0x14e73(%rip),%rax        # 22098 <g_375>
    d225:	0f b6 00             	movzbl (%rax),%eax
    d228:	0f be d0             	movsbl %al,%edx
    d22b:	48 8b 85 b0 f1 ff ff 	mov    -0xe50(%rbp),%rax
    d232:	0f be c0             	movsbl %al,%eax
    d235:	89 d6                	mov    %edx,%esi
    d237:	89 c7                	mov    %eax,%edi
    d239:	e8 d4 cf ff ff       	callq  a212 <safe_mul_func_int8_t_s_s>
    d23e:	66 98                	cbtw   
    d240:	0f b7 c0             	movzwl %ax,%eax
    d243:	89 c6                	mov    %eax,%esi
    d245:	bf 20 96 00 00       	mov    $0x9620,%edi
    d24a:	e8 b0 da ff ff       	callq  acff <safe_add_func_uint16_t_u_u>
    d24f:	89 c2                	mov    %eax,%edx
    d251:	48 8b 05 40 4e 01 00 	mov    0x14e40(%rip),%rax        # 22098 <g_375>
    d258:	0f b6 00             	movzbl (%rax),%eax
    d25b:	21 d0                	and    %edx,%eax
    d25d:	88 05 9d 1e 01 00    	mov    %al,0x11e9d(%rip)        # 1f100 <g_99>
    d263:	0f b6 05 96 1e 01 00 	movzbl 0x11e96(%rip),%eax        # 1f100 <g_99>
    d26a:	0f be c0             	movsbl %al,%eax
    d26d:	41 39 c4             	cmp    %eax,%r12d
    d270:	0f 95 c0             	setne  %al
    d273:	0f b6 c0             	movzbl %al,%eax
    d276:	39 c3                	cmp    %eax,%ebx
    d278:	0f 9f c0             	setg   %al
    d27b:	0f b6 c8             	movzbl %al,%ecx
    d27e:	48 8b 05 c3 51 01 00 	mov    0x151c3(%rip),%rax        # 22448 <g_1181>
    d285:	8b 10                	mov    (%rax),%edx
    d287:	21 ca                	and    %ecx,%edx
    d289:	89 10                	mov    %edx,(%rax)
    d28b:	c7 05 87 1f 01 00 1d 	movl   $0x1d,0x11f87(%rip)        # 1f21c <g_426>
    d292:	00 00 00 
    d295:	90                   	nop
    d296:	8b 05 80 1f 01 00    	mov    0x11f80(%rip),%eax        # 1f21c <g_426>
    d29c:	83 f8 2d             	cmp    $0x2d,%eax
    d29f:	74 0c                	je     d2ad <func_14+0x4d1>
    d2a1:	0f b7 85 de f0 ff ff 	movzwl -0xf22(%rbp),%eax
    d2a8:	e9 b6 1a 00 00       	jmpq   ed63 <func_14+0x1f87>
    d2ad:	8b 05 7d 1f 01 00    	mov    0x11f7d(%rip),%eax        # 1f230 <g_557>
    d2b3:	0f be c0             	movsbl %al,%eax
    d2b6:	be 03 00 00 00       	mov    $0x3,%esi
    d2bb:	89 c7                	mov    %eax,%edi
    d2bd:	e8 12 cf ff ff       	callq  a1d4 <safe_add_func_int8_t_s_s>
    d2c2:	0f be c0             	movsbl %al,%eax
    d2c5:	89 05 65 1f 01 00    	mov    %eax,0x11f65(%rip)        # 1f230 <g_557>
    d2cb:	8b 05 5f 1f 01 00    	mov    0x11f5f(%rip),%eax        # 1f230 <g_557>
    d2d1:	83 f8 28             	cmp    $0x28,%eax
    d2d4:	0f 87 a4 fe ff ff    	ja     d17e <func_14+0x3a2>
    d2da:	48 c7 05 13 21 01 00 	movq   $0x19,0x12113(%rip)        # 1f3f8 <g_623>
    d2e1:	19 00 00 00 
    d2e5:	e9 c7 02 00 00       	jmpq   d5b1 <func_14+0x7d5>
    d2ea:	c6 85 f4 f0 ff ff af 	movb   $0xaf,-0xf0c(%rbp)
    d2f1:	48 8d 05 e1 1d 01 00 	lea    0x11de1(%rip),%rax        # 1f0d9 <g_34>
    d2f8:	48 89 85 98 f2 ff ff 	mov    %rax,-0xd68(%rbp)
    d2ff:	48 8d 05 46 60 01 00 	lea    0x16046(%rip),%rax        # 2334c <g_100>
    d306:	48 89 85 a0 f2 ff ff 	mov    %rax,-0xd60(%rbp)
    d30d:	c7 85 4c f1 ff ff f4 	movl   $0xb5dd21f4,-0xeb4(%rbp)
    d314:	21 dd b5 
    d317:	48 c7 85 88 f1 ff ff 	movq   $0x0,-0xe78(%rbp)
    d31e:	00 00 00 00 
    d322:	c7 85 88 f1 ff ff ff 	movl   $0xffffffff,-0xe78(%rbp)
    d329:	ff ff ff 
    d32c:	48 b8 b6 e2 22 3f f1 	movabs $0xd9644bf13f22e2b6,%rax
    d333:	4b 64 d9 
    d336:	48 89 85 a8 f2 ff ff 	mov    %rax,-0xd58(%rbp)
    d33d:	48 8d 05 88 1e 01 00 	lea    0x11e88(%rip),%rax        # 1f1cc <g_256+0x4c>
    d344:	48 89 85 90 f1 ff ff 	mov    %rax,-0xe70(%rbp)
    d34b:	48 8d 85 90 f1 ff ff 	lea    -0xe70(%rbp),%rax
    d352:	48 89 85 98 f1 ff ff 	mov    %rax,-0xe68(%rbp)
    d359:	48 8d 85 98 f1 ff ff 	lea    -0xe68(%rbp),%rax
    d360:	48 89 85 b0 f2 ff ff 	mov    %rax,-0xd50(%rbp)
    d367:	c7 85 50 f1 ff ff 08 	movl   $0xdd903c08,-0xeb0(%rbp)
    d36e:	3c 90 dd 
    d371:	48 8d 05 38 4d 01 00 	lea    0x14d38(%rip),%rax        # 220b0 <g_515>
    d378:	48 89 85 b8 f2 ff ff 	mov    %rax,-0xd48(%rbp)
    d37f:	c7 85 54 f1 ff ff 95 	movl   $0x1557fd95,-0xeac(%rbp)
    d386:	fd 57 15 
    d389:	c7 85 58 f1 ff ff ff 	movl   $0xffffffff,-0xea8(%rbp)
    d390:	ff ff ff 
    d393:	c7 85 5c f1 ff ff 69 	movl   $0x40a05569,-0xea4(%rbp)
    d39a:	55 a0 40 
    d39d:	c7 85 60 f1 ff ff f8 	movl   $0xfffffff8,-0xea0(%rbp)
    d3a4:	ff ff ff 
    d3a7:	c7 85 70 f5 ff ff 01 	movl   $0x1,-0xa90(%rbp)
    d3ae:	00 00 00 
    d3b1:	c7 85 74 f5 ff ff 01 	movl   $0x1,-0xa8c(%rbp)
    d3b8:	00 00 00 
    d3bb:	c7 85 78 f5 ff ff 01 	movl   $0x1,-0xa88(%rbp)
    d3c2:	00 00 00 
    d3c5:	c7 85 7c f5 ff ff 01 	movl   $0x1,-0xa84(%rbp)
    d3cc:	00 00 00 
    d3cf:	66 c7 85 80 f1 ff ff 	movw   $0x8338,-0xe80(%rbp)
    d3d6:	38 83 
    d3d8:	48 c7 85 c0 f2 ff ff 	movq   $0x0,-0xd40(%rbp)
    d3df:	00 00 00 00 
    d3e3:	48 8d 05 f6 1c 01 00 	lea    0x11cf6(%rip),%rax        # 1f0e0 <g_59>
    d3ea:	48 89 85 a0 f1 ff ff 	mov    %rax,-0xe60(%rbp)
    d3f1:	48 8d 85 a0 f1 ff ff 	lea    -0xe60(%rbp),%rax
    d3f8:	48 89 85 40 f6 ff ff 	mov    %rax,-0x9c0(%rbp)
    d3ff:	48 8d 85 a0 f1 ff ff 	lea    -0xe60(%rbp),%rax
    d406:	48 89 85 48 f6 ff ff 	mov    %rax,-0x9b8(%rbp)
    d40d:	48 8d 85 a0 f1 ff ff 	lea    -0xe60(%rbp),%rax
    d414:	48 89 85 50 f6 ff ff 	mov    %rax,-0x9b0(%rbp)
    d41b:	48 8d 85 a0 f1 ff ff 	lea    -0xe60(%rbp),%rax
    d422:	48 89 85 58 f6 ff ff 	mov    %rax,-0x9a8(%rbp)
    d429:	c7 85 64 f1 ff ff f9 	movl   $0xfffffff9,-0xe9c(%rbp)
    d430:	ff ff ff 
    d433:	c7 85 68 f1 ff ff 00 	movl   $0x0,-0xe98(%rbp)
    d43a:	00 00 00 
    d43d:	c7 85 6c f1 ff ff fa 	movl   $0xfffffffa,-0xe94(%rbp)
    d444:	ff ff ff 
    d447:	c7 85 70 f1 ff ff 00 	movl   $0x0,-0xe90(%rbp)
    d44e:	00 00 00 
    d451:	c7 85 40 f8 ff ff 8b 	movl   $0x996f638b,-0x7c0(%rbp)
    d458:	63 6f 99 
    d45b:	c7 85 44 f8 ff ff 03 	movl   $0x7781c303,-0x7bc(%rbp)
    d462:	c3 81 77 
    d465:	c7 85 48 f8 ff ff 8b 	movl   $0x996f638b,-0x7b8(%rbp)
    d46c:	63 6f 99 
    d46f:	c7 85 4c f8 ff ff 03 	movl   $0x7781c303,-0x7b4(%rbp)
    d476:	c3 81 77 
    d479:	c7 85 50 f8 ff ff 8b 	movl   $0x996f638b,-0x7b0(%rbp)
    d480:	63 6f 99 
    d483:	c7 85 54 f8 ff ff 03 	movl   $0x7781c303,-0x7ac(%rbp)
    d48a:	c3 81 77 
    d48d:	c7 85 58 f8 ff ff 8b 	movl   $0x996f638b,-0x7a8(%rbp)
    d494:	63 6f 99 
    d497:	c7 85 5c f8 ff ff 03 	movl   $0x7781c303,-0x7a4(%rbp)
    d49e:	c3 81 77 
    d4a1:	c7 85 60 f8 ff ff 8b 	movl   $0x996f638b,-0x7a0(%rbp)
    d4a8:	63 6f 99 
    d4ab:	c7 85 64 f8 ff ff 03 	movl   $0x7781c303,-0x79c(%rbp)
    d4b2:	c3 81 77 
    d4b5:	c7 85 68 f8 ff ff 8b 	movl   $0x996f638b,-0x798(%rbp)
    d4bc:	63 6f 99 
    d4bf:	c7 85 6c f8 ff ff 03 	movl   $0x7781c303,-0x794(%rbp)
    d4c6:	c3 81 77 
    d4c9:	c7 85 70 f8 ff ff 8b 	movl   $0x996f638b,-0x790(%rbp)
    d4d0:	63 6f 99 
    d4d3:	c7 85 74 f8 ff ff 03 	movl   $0x7781c303,-0x78c(%rbp)
    d4da:	c3 81 77 
    d4dd:	c7 85 78 f8 ff ff 8b 	movl   $0x996f638b,-0x788(%rbp)
    d4e4:	63 6f 99 
    d4e7:	c7 85 7c f8 ff ff 03 	movl   $0x7781c303,-0x784(%rbp)
    d4ee:	c3 81 77 
    d4f1:	c7 85 80 f8 ff ff 8b 	movl   $0x996f638b,-0x780(%rbp)
    d4f8:	63 6f 99 
    d4fb:	c7 85 84 f8 ff ff 03 	movl   $0x7781c303,-0x77c(%rbp)
    d502:	c3 81 77 
    d505:	c7 85 88 f8 ff ff 8b 	movl   $0x996f638b,-0x778(%rbp)
    d50c:	63 6f 99 
    d50f:	c7 85 8c f8 ff ff 03 	movl   $0x7781c303,-0x774(%rbp)
    d516:	c3 81 77 
    d519:	c7 85 90 f8 ff ff 8b 	movl   $0x996f638b,-0x770(%rbp)
    d520:	63 6f 99 
    d523:	c7 85 94 f8 ff ff 03 	movl   $0x7781c303,-0x76c(%rbp)
    d52a:	c3 81 77 
    d52d:	c7 85 98 f8 ff ff 8b 	movl   $0x996f638b,-0x768(%rbp)
    d534:	63 6f 99 
    d537:	c7 85 9c f8 ff ff 03 	movl   $0x7781c303,-0x764(%rbp)
    d53e:	c3 81 77 
    d541:	c7 85 a0 f8 ff ff 8b 	movl   $0x996f638b,-0x760(%rbp)
    d548:	63 6f 99 
    d54b:	c7 85 a4 f8 ff ff 03 	movl   $0x7781c303,-0x75c(%rbp)
    d552:	c3 81 77 
    d555:	c7 85 a8 f8 ff ff 8b 	movl   $0x996f638b,-0x758(%rbp)
    d55c:	63 6f 99 
    d55f:	c7 85 ac f8 ff ff 03 	movl   $0x7781c303,-0x754(%rbp)
    d566:	c3 81 77 
    d569:	c7 85 b0 f8 ff ff 8b 	movl   $0x996f638b,-0x750(%rbp)
    d570:	63 6f 99 
    d573:	c7 85 b4 f8 ff ff 03 	movl   $0x7781c303,-0x74c(%rbp)
    d57a:	c3 81 77 
    d57d:	c7 85 b8 f8 ff ff 8b 	movl   $0x996f638b,-0x748(%rbp)
    d584:	63 6f 99 
    d587:	c7 85 bc f8 ff ff 03 	movl   $0x7781c303,-0x744(%rbp)
    d58e:	c3 81 77 
    d591:	48 8b 05 60 1e 01 00 	mov    0x11e60(%rip),%rax        # 1f3f8 <g_623>
    d598:	0f b7 c0             	movzwl %ax,%eax
    d59b:	be 07 00 00 00       	mov    $0x7,%esi
    d5a0:	89 c7                	mov    %eax,%edi
    d5a2:	e8 78 d7 ff ff       	callq  ad1f <safe_sub_func_uint16_t_u_u>
    d5a7:	0f b7 c0             	movzwl %ax,%eax
    d5aa:	48 89 05 47 1e 01 00 	mov    %rax,0x11e47(%rip)        # 1f3f8 <g_623>
    d5b1:	48 8b 05 40 1e 01 00 	mov    0x11e40(%rip),%rax        # 1f3f8 <g_623>
    d5b8:	48 83 f8 0b          	cmp    $0xb,%rax
    d5bc:	0f 85 28 fd ff ff    	jne    d2ea <func_14+0x50e>
    d5c2:	c6 05 37 1b 01 00 00 	movb   $0x0,0x11b37(%rip)        # 1f100 <g_99>
    d5c9:	e9 7f 17 00 00       	jmpq   ed4d <func_14+0x1f71>
    d5ce:	48 8d 05 17 1b 01 00 	lea    0x11b17(%rip),%rax        # 1f0ec <g_69>
    d5d5:	48 89 85 e8 f1 ff ff 	mov    %rax,-0xe18(%rbp)
    d5dc:	c7 85 3c f1 ff ff 3a 	movl   $0xee25243a,-0xec4(%rbp)
    d5e3:	24 25 ee 
    d5e6:	48 c7 85 f0 f1 ff ff 	movq   $0x0,-0xe10(%rbp)
    d5ed:	00 00 00 00 
    d5f1:	48 8d 05 a0 4a 01 00 	lea    0x14aa0(%rip),%rax        # 22098 <g_375>
    d5f8:	48 89 85 80 f1 ff ff 	mov    %rax,-0xe80(%rbp)
    d5ff:	48 8d 85 80 f1 ff ff 	lea    -0xe80(%rbp),%rax
    d606:	48 89 85 f8 f1 ff ff 	mov    %rax,-0xe08(%rbp)
    d60d:	48 8d 05 b4 da 00 00 	lea    0xdab4(%rip),%rax        # 1b0c8 <g_1647>
    d614:	48 89 85 00 f2 ff ff 	mov    %rax,-0xe00(%rbp)
    d61b:	48 8d 05 46 1b 01 00 	lea    0x11b46(%rip),%rax        # 1f168 <g_162+0x28>
    d622:	48 89 85 88 f1 ff ff 	mov    %rax,-0xe78(%rbp)
    d629:	c6 85 f1 f0 ff ff fb 	movb   $0xfb,-0xf0f(%rbp)
    d630:	48 8d 85 90 f3 ff ff 	lea    -0xc70(%rbp),%rax
    d637:	48 83 c0 64          	add    $0x64,%rax
    d63b:	48 89 85 20 f3 ff ff 	mov    %rax,-0xce0(%rbp)
    d642:	48 8d 85 90 f3 ff ff 	lea    -0xc70(%rbp),%rax
    d649:	48 83 c0 64          	add    $0x64,%rax
    d64d:	48 89 85 28 f3 ff ff 	mov    %rax,-0xcd8(%rbp)
    d654:	48 8d 85 90 f3 ff ff 	lea    -0xc70(%rbp),%rax
    d65b:	48 83 c0 64          	add    $0x64,%rax
    d65f:	48 89 85 30 f3 ff ff 	mov    %rax,-0xcd0(%rbp)
    d666:	48 8d 85 90 f3 ff ff 	lea    -0xc70(%rbp),%rax
    d66d:	48 83 c0 64          	add    $0x64,%rax
    d671:	48 89 85 38 f3 ff ff 	mov    %rax,-0xcc8(%rbp)
    d678:	66 c7 85 fa f0 ff ff 	movw   $0x1,-0xf06(%rbp)
    d67f:	01 00 
    d681:	c6 85 f2 f0 ff ff ff 	movb   $0xff,-0xf0e(%rbp)
    d688:	c7 85 0c f1 ff ff 00 	movl   $0x0,-0xef4(%rbp)
    d68f:	00 00 00 
    d692:	eb 51                	jmp    d6e5 <func_14+0x909>
    d694:	c7 85 10 f1 ff ff 00 	movl   $0x0,-0xef0(%rbp)
    d69b:	00 00 00 
    d69e:	eb 35                	jmp    d6d5 <func_14+0x8f9>
    d6a0:	8b 85 10 f1 ff ff    	mov    -0xef0(%rbp),%eax
    d6a6:	48 63 c8             	movslq %eax,%rcx
    d6a9:	8b 85 0c f1 ff ff    	mov    -0xef4(%rbp),%eax
    d6af:	48 63 d0             	movslq %eax,%rdx
    d6b2:	48 89 d0             	mov    %rdx,%rax
    d6b5:	48 c1 e0 03          	shl    $0x3,%rax
    d6b9:	48 01 d0             	add    %rdx,%rax
    d6bc:	48 01 c8             	add    %rcx,%rax
    d6bf:	48 8d 15 b2 5c 01 00 	lea    0x15cb2(%rip),%rdx        # 23378 <g_507>
    d6c6:	48 89 94 c5 20 f4 ff 	mov    %rdx,-0xbe0(%rbp,%rax,8)
    d6cd:	ff 
    d6ce:	83 85 10 f1 ff ff 01 	addl   $0x1,-0xef0(%rbp)
    d6d5:	83 bd 10 f1 ff ff 08 	cmpl   $0x8,-0xef0(%rbp)
    d6dc:	7e c2                	jle    d6a0 <func_14+0x8c4>
    d6de:	83 85 0c f1 ff ff 01 	addl   $0x1,-0xef4(%rbp)
    d6e5:	83 bd 0c f1 ff ff 01 	cmpl   $0x1,-0xef4(%rbp)
    d6ec:	7e a6                	jle    d694 <func_14+0x8b8>
    d6ee:	c7 85 0c f1 ff ff 00 	movl   $0x0,-0xef4(%rbp)
    d6f5:	00 00 00 
    d6f8:	eb 19                	jmp    d713 <func_14+0x937>
    d6fa:	8b 85 0c f1 ff ff    	mov    -0xef4(%rbp),%eax
    d700:	48 98                	cltq   
    d702:	66 c7 84 45 cc f2 ff 	movw   $0x0,-0xd34(%rbp,%rax,2)
    d709:	ff 00 00 
    d70c:	83 85 0c f1 ff ff 01 	addl   $0x1,-0xef4(%rbp)
    d713:	83 bd 0c f1 ff ff 01 	cmpl   $0x1,-0xef4(%rbp)
    d71a:	7e de                	jle    d6fa <func_14+0x91e>
    d71c:	83 ad 3c f1 ff ff 01 	subl   $0x1,-0xec4(%rbp)
    d723:	48 8b 05 46 4d 01 00 	mov    0x14d46(%rip),%rax        # 22470 <g_1255>
    d72a:	8b 00                	mov    (%rax),%eax
    d72c:	85 c0                	test   %eax,%eax
    d72e:	0f 84 9e 02 00 00    	je     d9d2 <func_14+0xbf6>
    d734:	48 8d 85 40 f8 ff ff 	lea    -0x7c0(%rbp),%rax
    d73b:	48 8d 15 9e 27 01 00 	lea    0x1279e(%rip),%rdx        # 1fee0 <g_2057+0x660>
    d742:	b9 d8 00 00 00       	mov    $0xd8,%ecx
    d747:	48 89 c7             	mov    %rax,%rdi
    d74a:	48 89 d6             	mov    %rdx,%rsi
    d74d:	f3 48 a5             	rep movsq %ds:(%rsi),%es:(%rdi)
    d750:	48 8d 85 40 f6 ff ff 	lea    -0x9c0(%rbp),%rax
    d757:	48 8d 15 42 2e 01 00 	lea    0x12e42(%rip),%rdx        # 205a0 <g_2057+0xd20>
    d75e:	b9 3f 00 00 00       	mov    $0x3f,%ecx
    d763:	48 89 c7             	mov    %rax,%rdi
    d766:	48 89 d6             	mov    %rdx,%rsi
    d769:	f3 48 a5             	rep movsq %ds:(%rsi),%es:(%rdi)
    d76c:	c7 85 14 f1 ff ff 00 	movl   $0x0,-0xeec(%rbp)
    d773:	00 00 00 
    d776:	eb 4c                	jmp    d7c4 <func_14+0x9e8>
    d778:	c7 85 18 f1 ff ff 00 	movl   $0x0,-0xee8(%rbp)
    d77f:	00 00 00 
    d782:	eb 30                	jmp    d7b4 <func_14+0x9d8>
    d784:	8b 85 18 f1 ff ff    	mov    -0xee8(%rbp),%eax
    d78a:	48 63 c8             	movslq %eax,%rcx
    d78d:	8b 85 14 f1 ff ff    	mov    -0xeec(%rbp),%eax
    d793:	48 63 d0             	movslq %eax,%rdx
    d796:	48 89 d0             	mov    %rdx,%rax
    d799:	48 01 c0             	add    %rax,%rax
    d79c:	48 01 d0             	add    %rdx,%rax
    d79f:	48 01 c8             	add    %rcx,%rax
    d7a2:	c7 84 85 70 f5 ff ff 	movl   $0x577d5efb,-0xa90(%rbp,%rax,4)
    d7a9:	fb 5e 7d 57 
    d7ad:	83 85 18 f1 ff ff 01 	addl   $0x1,-0xee8(%rbp)
    d7b4:	83 bd 18 f1 ff ff 02 	cmpl   $0x2,-0xee8(%rbp)
    d7bb:	7e c7                	jle    d784 <func_14+0x9a8>
    d7bd:	83 85 14 f1 ff ff 01 	addl   $0x1,-0xeec(%rbp)
    d7c4:	83 bd 14 f1 ff ff 03 	cmpl   $0x3,-0xeec(%rbp)
    d7cb:	7e ab                	jle    d778 <func_14+0x99c>
    d7cd:	c7 85 3c f1 ff ff 00 	movl   $0x0,-0xec4(%rbp)
    d7d4:	00 00 00 
    d7d7:	83 bd 3c f1 ff ff 39 	cmpl   $0x39,-0xec4(%rbp)
    d7de:	75 15                	jne    d7f5 <func_14+0xa19>
    d7e0:	66 c7 85 a0 f1 ff ff 	movw   $0x4fdd,-0xe60(%rbp)
    d7e7:	dd 4f 
    d7e9:	0f b7 85 a0 f1 ff ff 	movzwl -0xe60(%rbp),%eax
    d7f0:	e9 6e 15 00 00       	jmpq   ed63 <func_14+0x1f87>
    d7f5:	48 8b 05 7c 4d 01 00 	mov    0x14d7c(%rip),%rax        # 22578 <g_1534>
    d7fc:	48 8b 95 e0 f1 ff ff 	mov    -0xe20(%rbp),%rdx
    d803:	48 89 10             	mov    %rdx,(%rax)
    d806:	48 8b 05 93 48 01 00 	mov    0x14893(%rip),%rax        # 220a0 <g_447>
    d80d:	48 8b 18             	mov    (%rax),%rbx
    d810:	0f b6 85 dc f0 ff ff 	movzbl -0xf24(%rbp),%eax
    d817:	44 0f b6 e0          	movzbl %al,%r12d
    d81b:	0f b6 05 27 1b 01 00 	movzbl 0x11b27(%rip),%eax        # 1f349 <g_613>
    d822:	83 e0 7f             	and    $0x7f,%eax
    d825:	44 0f b6 e8          	movzbl %al,%r13d
    d829:	48 8b 05 20 4c 01 00 	mov    0x14c20(%rip),%rax        # 22450 <g_1221>
    d830:	0f b7 00             	movzwl (%rax),%eax
    d833:	44 0f b7 f0          	movzwl %ax,%r14d
    d837:	48 8b 05 3a 4c 01 00 	mov    0x14c3a(%rip),%rax        # 22478 <g_1305>
    d83e:	48 8b 00             	mov    (%rax),%rax
    d841:	0f b7 00             	movzwl (%rax),%eax
    d844:	44 0f b7 f8          	movzwl %ax,%r15d
    d848:	48 8b 05 01 4c 01 00 	mov    0x14c01(%rip),%rax        # 22450 <g_1221>
    d84f:	0f b7 00             	movzwl (%rax),%eax
    d852:	0f b7 c0             	movzwl %ax,%eax
    d855:	89 85 d8 f0 ff ff    	mov    %eax,-0xf28(%rbp)
    d85b:	48 8b 05 ee 48 01 00 	mov    0x148ee(%rip),%rax        # 22150 <g_962>
    d862:	48 8b 00             	mov    (%rax),%rax
    d865:	48 8b 00             	mov    (%rax),%rax
    d868:	48 8b 00             	mov    (%rax),%rax
    d86b:	48 89 85 d0 f0 ff ff 	mov    %rax,-0xf30(%rbp)
    d872:	0f b7 85 de f0 ff ff 	movzwl -0xf22(%rbp),%eax
    d879:	0f b7 c0             	movzwl %ax,%eax
    d87c:	48 89 85 c8 f0 ff ff 	mov    %rax,-0xf38(%rbp)
    d883:	0f b6 85 ed f0 ff ff 	movzbl -0xf13(%rbp),%eax
    d88a:	0f b6 d0             	movzbl %al,%edx
    d88d:	0f b7 85 de f0 ff ff 	movzwl -0xf22(%rbp),%eax
    d894:	66 85 c0             	test   %ax,%ax
    d897:	74 11                	je     d8aa <func_14+0xace>
    d899:	8b 85 74 f5 ff ff    	mov    -0xa8c(%rbp),%eax
    d89f:	85 c0                	test   %eax,%eax
    d8a1:	74 07                	je     d8aa <func_14+0xace>
    d8a3:	b8 01 00 00 00       	mov    $0x1,%eax
    d8a8:	eb 05                	jmp    d8af <func_14+0xad3>
    d8aa:	b8 00 00 00 00       	mov    $0x0,%eax
    d8af:	0f b6 c0             	movzbl %al,%eax
    d8b2:	89 d6                	mov    %edx,%esi
    d8b4:	89 c7                	mov    %eax,%edi
    d8b6:	e8 9f d2 ff ff       	callq  ab5a <safe_add_func_uint8_t_u_u>
    d8bb:	0f b6 c0             	movzbl %al,%eax
    d8be:	89 c6                	mov    %eax,%esi
    d8c0:	bf aa 00 00 00       	mov    $0xaa,%edi
    d8c5:	e8 f4 d3 ff ff       	callq  acbe <safe_rshift_func_uint8_t_u_u>
    d8ca:	48 8b 85 30 fd ff ff 	mov    -0x2d0(%rbp),%rax
    d8d1:	48 39 85 f0 f1 ff ff 	cmp    %rax,-0xe10(%rbp)
    d8d8:	0f 95 c0             	setne  %al
    d8db:	0f b6 d0             	movzbl %al,%edx
    d8de:	48 8b 05 6b 4b 01 00 	mov    0x14b6b(%rip),%rax        # 22450 <g_1221>
    d8e5:	0f b7 00             	movzwl (%rax),%eax
    d8e8:	0f b7 c0             	movzwl %ax,%eax
    d8eb:	89 d6                	mov    %edx,%esi
    d8ed:	89 c7                	mov    %eax,%edi
    d8ef:	e8 0b d4 ff ff       	callq  acff <safe_add_func_uint16_t_u_u>
    d8f4:	48 8b 05 a5 47 01 00 	mov    0x147a5(%rip),%rax        # 220a0 <g_447>
    d8fb:	48 8b 00             	mov    (%rax),%rax
    d8fe:	48 8b b5 c8 f0 ff ff 	mov    -0xf38(%rbp),%rsi
    d905:	48 89 c7             	mov    %rax,%rdi
    d908:	e8 ea d0 ff ff       	callq  a9f7 <safe_div_func_int64_t_s_s>
    d90d:	48 39 85 d0 f0 ff ff 	cmp    %rax,-0xf30(%rbp)
    d914:	0f 95 c0             	setne  %al
    d917:	0f b6 c0             	movzbl %al,%eax
    d91a:	8b b5 d8 f0 ff ff    	mov    -0xf28(%rbp),%esi
    d920:	89 c7                	mov    %eax,%edi
    d922:	e8 53 d5 ff ff       	callq  ae7a <safe_rshift_func_uint16_t_u_u>
    d927:	44 89 fe             	mov    %r15d,%esi
    d92a:	bf 08 00 00 00       	mov    $0x8,%edi
    d92f:	e8 09 d4 ff ff       	callq  ad3d <safe_mul_func_uint16_t_u_u>
    d934:	0f b7 c0             	movzwl %ax,%eax
    d937:	44 89 f6             	mov    %r14d,%esi
    d93a:	89 c7                	mov    %eax,%edi
    d93c:	e8 c5 d4 ff ff       	callq  ae06 <safe_lshift_func_uint16_t_u_u>
    d941:	44 89 ee             	mov    %r13d,%esi
    d944:	bf 54 00 00 00       	mov    $0x54,%edi
    d949:	e8 0c d2 ff ff       	callq  ab5a <safe_add_func_uint8_t_u_u>
    d94e:	0f be d0             	movsbl %al,%edx
    d951:	0f b6 85 dc f0 ff ff 	movzbl -0xf24(%rbp),%eax
    d958:	0f be c0             	movsbl %al,%eax
    d95b:	89 d6                	mov    %edx,%esi
    d95d:	89 c7                	mov    %eax,%edi
    d95f:	e8 06 c9 ff ff       	callq  a26a <safe_div_func_int8_t_s_s>
    d964:	48 0f be c0          	movsbq %al,%rax
    d968:	48 89 c7             	mov    %rax,%rdi
    d96b:	e8 a9 d6 ff ff       	callq  b019 <safe_unary_minus_func_uint64_t_u>
    d970:	4c 89 e6             	mov    %r12,%rsi
    d973:	48 89 c7             	mov    %rax,%rdi
    d976:	e8 05 d7 ff ff       	callq  b080 <safe_mod_func_uint64_t_u_u>
    d97b:	0f b7 d0             	movzwl %ax,%edx
    d97e:	0f b7 85 de f0 ff ff 	movzwl -0xf22(%rbp),%eax
    d985:	0f b7 c0             	movzwl %ax,%eax
    d988:	89 d6                	mov    %edx,%esi
    d98a:	89 c7                	mov    %eax,%edi
    d98c:	e8 ac d3 ff ff       	callq  ad3d <safe_mul_func_uint16_t_u_u>
    d991:	48 8b 85 88 f7 ff ff 	mov    -0x878(%rbp),%rax
    d998:	48 85 c0             	test   %rax,%rax
    d99b:	0f 94 c0             	sete   %al
    d99e:	0f b6 c0             	movzbl %al,%eax
    d9a1:	48 89 de             	mov    %rbx,%rsi
    d9a4:	48 89 c7             	mov    %rax,%rdi
    d9a7:	e8 fc ce ff ff       	callq  a8a8 <safe_sub_func_int64_t_s_s>
    d9ac:	89 c2                	mov    %eax,%edx
    d9ae:	0f b6 85 dc f0 ff ff 	movzbl -0xf24(%rbp),%eax
    d9b5:	0f b6 c0             	movzbl %al,%eax
    d9b8:	89 d6                	mov    %edx,%esi
    d9ba:	89 c7                	mov    %eax,%edi
    d9bc:	e8 b9 d4 ff ff       	callq  ae7a <safe_rshift_func_uint16_t_u_u>
    d9c1:	0f b7 d0             	movzwl %ax,%edx
    d9c4:	48 8b 85 e8 f1 ff ff 	mov    -0xe18(%rbp),%rax
    d9cb:	89 10                	mov    %edx,(%rax)
    d9cd:	e9 dc 12 00 00       	jmpq   ecae <func_14+0x1ed2>
    d9d2:	48 8d 85 ed f0 ff ff 	lea    -0xf13(%rbp),%rax
    d9d9:	48 89 85 08 f2 ff ff 	mov    %rax,-0xdf8(%rbp)
    d9e0:	c7 85 00 f1 ff ff e1 	movl   $0xd1ca0de1,-0xf00(%rbp)
    d9e7:	0d ca d1 
    d9ea:	c7 85 70 f5 ff ff fa 	movl   $0xfffffffa,-0xa90(%rbp)
    d9f1:	ff ff ff 
    d9f4:	c7 85 74 f5 ff ff fa 	movl   $0xfffffffa,-0xa8c(%rbp)
    d9fb:	ff ff ff 
    d9fe:	c7 85 78 f5 ff ff 04 	movl   $0x4,-0xa88(%rbp)
    da05:	00 00 00 
    da08:	c7 85 7c f5 ff ff fa 	movl   $0xfffffffa,-0xa84(%rbp)
    da0f:	ff ff ff 
    da12:	c7 85 80 f5 ff ff fa 	movl   $0xfffffffa,-0xa80(%rbp)
    da19:	ff ff ff 
    da1c:	c7 85 84 f5 ff ff 04 	movl   $0x4,-0xa7c(%rbp)
    da23:	00 00 00 
    da26:	c7 85 88 f5 ff ff fa 	movl   $0xfffffffa,-0xa78(%rbp)
    da2d:	ff ff ff 
    da30:	c7 85 8c f5 ff ff 98 	movl   $0x8d1fab98,-0xa74(%rbp)
    da37:	ab 1f 8d 
    da3a:	c7 85 90 f5 ff ff 00 	movl   $0x0,-0xa70(%rbp)
    da41:	00 00 00 
    da44:	c7 85 94 f5 ff ff f6 	movl   $0xfffffff6,-0xa6c(%rbp)
    da4b:	ff ff ff 
    da4e:	c7 85 98 f5 ff ff a6 	movl   $0x7d921a6,-0xa68(%rbp)
    da55:	21 d9 07 
    da58:	c7 85 9c f5 ff ff f6 	movl   $0xfffffff6,-0xa64(%rbp)
    da5f:	ff ff ff 
    da62:	c7 85 a0 f5 ff ff 00 	movl   $0x0,-0xa60(%rbp)
    da69:	00 00 00 
    da6c:	c7 85 a4 f5 ff ff f6 	movl   $0xfffffff6,-0xa5c(%rbp)
    da73:	ff ff ff 
    da76:	c7 85 a8 f5 ff ff 04 	movl   $0x4,-0xa58(%rbp)
    da7d:	00 00 00 
    da80:	c7 85 ac f5 ff ff 0b 	movl   $0x7de46c0b,-0xa54(%rbp)
    da87:	6c e4 7d 
    da8a:	c7 85 b0 f5 ff ff 04 	movl   $0x4,-0xa50(%rbp)
    da91:	00 00 00 
    da94:	c7 85 b4 f5 ff ff 04 	movl   $0x4,-0xa4c(%rbp)
    da9b:	00 00 00 
    da9e:	c7 85 b8 f5 ff ff 0b 	movl   $0x7de46c0b,-0xa48(%rbp)
    daa5:	6c e4 7d 
    daa8:	c7 85 bc f5 ff ff 04 	movl   $0x4,-0xa44(%rbp)
    daaf:	00 00 00 
    dab2:	c7 85 c0 f5 ff ff 04 	movl   $0x4,-0xa40(%rbp)
    dab9:	00 00 00 
    dabc:	c7 85 c4 f5 ff ff f6 	movl   $0xfffffff6,-0xa3c(%rbp)
    dac3:	ff ff ff 
    dac6:	c7 85 c8 f5 ff ff 00 	movl   $0x0,-0xa38(%rbp)
    dacd:	00 00 00 
    dad0:	c7 85 cc f5 ff ff 98 	movl   $0x8d1fab98,-0xa34(%rbp)
    dad7:	ab 1f 8d 
    dada:	c7 85 d0 f5 ff ff 00 	movl   $0x0,-0xa30(%rbp)
    dae1:	00 00 00 
    dae4:	c7 85 d4 f5 ff ff f6 	movl   $0xfffffff6,-0xa2c(%rbp)
    daeb:	ff ff ff 
    daee:	c7 85 d8 f5 ff ff a6 	movl   $0x7d921a6,-0xa28(%rbp)
    daf5:	21 d9 07 
    daf8:	c7 85 dc f5 ff ff f6 	movl   $0xfffffff6,-0xa24(%rbp)
    daff:	ff ff ff 
    db02:	c7 85 e0 f5 ff ff 0b 	movl   $0x7de46c0b,-0xa20(%rbp)
    db09:	6c e4 7d 
    db0c:	c7 85 e4 f5 ff ff 04 	movl   $0x4,-0xa1c(%rbp)
    db13:	00 00 00 
    db16:	c7 85 e8 f5 ff ff 04 	movl   $0x4,-0xa18(%rbp)
    db1d:	00 00 00 
    db20:	c7 85 ec f5 ff ff 0b 	movl   $0x7de46c0b,-0xa14(%rbp)
    db27:	6c e4 7d 
    db2a:	c7 85 f0 f5 ff ff 04 	movl   $0x4,-0xa10(%rbp)
    db31:	00 00 00 
    db34:	c7 85 f4 f5 ff ff 04 	movl   $0x4,-0xa0c(%rbp)
    db3b:	00 00 00 
    db3e:	c7 85 f8 f5 ff ff 0b 	movl   $0x7de46c0b,-0xa08(%rbp)
    db45:	6c e4 7d 
    db48:	c7 85 fc f5 ff ff 65 	movl   $0x3108c065,-0xa04(%rbp)
    db4f:	c0 08 31 
    db52:	c7 85 00 f6 ff ff 00 	movl   $0x0,-0xa00(%rbp)
    db59:	00 00 00 
    db5c:	c7 85 04 f6 ff ff 65 	movl   $0x3108c065,-0x9fc(%rbp)
    db63:	c0 08 31 
    db66:	c7 85 08 f6 ff ff 9b 	movl   $0x9c8e569b,-0x9f8(%rbp)
    db6d:	56 8e 9c 
    db70:	c7 85 0c f6 ff ff f6 	movl   $0xfffffff6,-0x9f4(%rbp)
    db77:	ff ff ff 
    db7a:	c7 85 10 f6 ff ff 9b 	movl   $0x9c8e569b,-0x9f0(%rbp)
    db81:	56 8e 9c 
    db84:	c7 85 14 f6 ff ff 65 	movl   $0x3108c065,-0x9ec(%rbp)
    db8b:	c0 08 31 
    db8e:	c7 85 18 f6 ff ff 0b 	movl   $0x7de46c0b,-0x9e8(%rbp)
    db95:	6c e4 7d 
    db98:	c7 85 1c f6 ff ff 0b 	movl   $0x7de46c0b,-0x9e4(%rbp)
    db9f:	6c e4 7d 
    dba2:	c7 85 20 f6 ff ff fa 	movl   $0xfffffffa,-0x9e0(%rbp)
    dba9:	ff ff ff 
    dbac:	c7 85 24 f6 ff ff 0b 	movl   $0x7de46c0b,-0x9dc(%rbp)
    dbb3:	6c e4 7d 
    dbb6:	c7 85 28 f6 ff ff 0b 	movl   $0x7de46c0b,-0x9d8(%rbp)
    dbbd:	6c e4 7d 
    dbc0:	c7 85 2c f6 ff ff fa 	movl   $0xfffffffa,-0x9d4(%rbp)
    dbc7:	ff ff ff 
    dbca:	c7 85 30 f6 ff ff 0b 	movl   $0x7de46c0b,-0x9d0(%rbp)
    dbd1:	6c e4 7d 
    dbd4:	48 8d 85 f6 f0 ff ff 	lea    -0xf0a(%rbp),%rax
    dbdb:	48 89 85 10 f2 ff ff 	mov    %rax,-0xdf0(%rbp)
    dbe2:	48 8d 85 40 f8 ff ff 	lea    -0x7c0(%rbp),%rax
    dbe9:	48 8d 15 b0 2b 01 00 	lea    0x12bb0(%rip),%rdx        # 207a0 <g_2057+0xf20>
    dbf0:	b9 f0 00 00 00       	mov    $0xf0,%ecx
    dbf5:	48 89 c7             	mov    %rax,%rdi
    dbf8:	48 89 d6             	mov    %rdx,%rsi
    dbfb:	f3 48 a5             	rep movsq %ds:(%rsi),%es:(%rdi)
    dbfe:	66 c7 85 fc f0 ff ff 	movw   $0x2c5f,-0xf04(%rbp)
    dc05:	5f 2c 
    dc07:	48 b8 24 7b 9a 7e 0d 	movabs $0x34ea8b0d7e9a7b24,%rax
    dc0e:	8b ea 34 
    dc11:	48 89 85 18 f2 ff ff 	mov    %rax,-0xde8(%rbp)
    dc18:	48 8d 05 f1 17 01 00 	lea    0x117f1(%rip),%rax        # 1f410 <g_797>
    dc1f:	48 89 85 20 f2 ff ff 	mov    %rax,-0xde0(%rbp)
    dc26:	c7 05 f4 14 01 00 00 	movl   $0x0,0x114f4(%rip)        # 1f124 <g_153>
    dc2d:	00 00 00 
    dc30:	e9 6b 0f 00 00       	jmpq   eba0 <func_14+0x1dc4>
    dc35:	48 b8 04 98 6c 15 0d 	movabs $0x80c13f0d156c9804,%rax
    dc3c:	3f c1 80 
    dc3f:	48 89 85 28 f2 ff ff 	mov    %rax,-0xdd8(%rbp)
    dc46:	c7 85 04 f1 ff ff 00 	movl   $0x0,-0xefc(%rbp)
    dc4d:	00 00 00 
    dc50:	48 c7 85 90 f1 ff ff 	movq   $0x0,-0xe70(%rbp)
    dc57:	00 00 00 00 
    dc5b:	c7 85 90 f1 ff ff b2 	movl   $0x44855db2,-0xe70(%rbp)
    dc62:	5d 85 44 
    dc65:	c7 85 1c f1 ff ff fd 	movl   $0xfb6384fd,-0xee4(%rbp)
    dc6c:	84 63 fb 
    dc6f:	66 c7 85 fe f0 ff ff 	movw   $0xffff,-0xf02(%rbp)
    dc76:	ff ff 
    dc78:	c7 85 40 f1 ff ff ff 	movl   $0xffffffff,-0xec0(%rbp)
    dc7f:	ff ff ff 
    dc82:	c7 85 20 f1 ff ff 00 	movl   $0x0,-0xee0(%rbp)
    dc89:	00 00 00 
    dc8c:	eb 1e                	jmp    dcac <func_14+0xed0>
    dc8e:	8b 85 20 f1 ff ff    	mov    -0xee0(%rbp),%eax
    dc94:	48 98                	cltq   
    dc96:	48 8d 15 fb 43 01 00 	lea    0x143fb(%rip),%rdx        # 22098 <g_375>
    dc9d:	48 89 94 c5 d8 f2 ff 	mov    %rdx,-0xd28(%rbp,%rax,8)
    dca4:	ff 
    dca5:	83 85 20 f1 ff ff 01 	addl   $0x1,-0xee0(%rbp)
    dcac:	83 bd 20 f1 ff ff 00 	cmpl   $0x0,-0xee0(%rbp)
    dcb3:	7e d9                	jle    dc8e <func_14+0xeb2>
    dcb5:	0f b6 85 dc f0 ff ff 	movzbl -0xf24(%rbp),%eax
    dcbc:	0f b6 d8             	movzbl %al,%ebx
    dcbf:	48 8b 85 28 f2 ff ff 	mov    -0xdd8(%rbp),%rax
    dcc6:	89 c1                	mov    %eax,%ecx
    dcc8:	48 8b 05 c9 43 01 00 	mov    0x143c9(%rip),%rax        # 22098 <g_375>
    dccf:	0f b6 10             	movzbl (%rax),%edx
    dcd2:	83 ea 01             	sub    $0x1,%edx
    dcd5:	88 10                	mov    %dl,(%rax)
    dcd7:	0f b6 00             	movzbl (%rax),%eax
    dcda:	0f b6 15 8d 15 01 00 	movzbl 0x1158d(%rip),%edx        # 1f26e <g_569>
    dce1:	83 e2 7f             	and    $0x7f,%edx
    dce4:	38 d0                	cmp    %dl,%al
    dce6:	0f 93 c0             	setae  %al
    dce9:	0f b6 d0             	movzbl %al,%edx
    dcec:	48 8b 85 e8 f1 ff ff 	mov    -0xe18(%rbp),%rax
    dcf3:	89 10                	mov    %edx,(%rax)
    dcf5:	48 8b 85 e8 f1 ff ff 	mov    -0xe18(%rbp),%rax
    dcfc:	8b 00                	mov    (%rax),%eax
    dcfe:	83 c8 f9             	or     $0xfffffff9,%eax
    dd01:	0f b6 c0             	movzbl %al,%eax
    dd04:	89 ce                	mov    %ecx,%esi
    dd06:	89 c7                	mov    %eax,%edi
    dd08:	e8 b1 cf ff ff       	callq  acbe <safe_rshift_func_uint8_t_u_u>
    dd0d:	0f b6 c0             	movzbl %al,%eax
    dd10:	48 be 21 e2 58 bd 05 	movabs $0x757a8105bd58e221,%rsi
    dd17:	81 7a 75 
    dd1a:	48 89 c7             	mov    %rax,%rdi
    dd1d:	e8 d5 cc ff ff       	callq  a9f7 <safe_div_func_int64_t_s_s>
    dd22:	48 89 c2             	mov    %rax,%rdx
    dd25:	0f b6 85 dc f0 ff ff 	movzbl -0xf24(%rbp),%eax
    dd2c:	0f b6 c0             	movzbl %al,%eax
    dd2f:	48 89 d6             	mov    %rdx,%rsi
    dd32:	48 89 c7             	mov    %rax,%rdi
    dd35:	e8 7a cc ff ff       	callq  a9b4 <safe_mod_func_int64_t_s_s>
    dd3a:	89 85 04 f1 ff ff    	mov    %eax,-0xefc(%rbp)
    dd40:	8b 95 04 f1 ff ff    	mov    -0xefc(%rbp),%edx
    dd46:	48 8b 05 03 47 01 00 	mov    0x14703(%rip),%rax        # 22450 <g_1221>
    dd4d:	0f b7 08             	movzwl (%rax),%ecx
    dd50:	83 e9 01             	sub    $0x1,%ecx
    dd53:	66 89 08             	mov    %cx,(%rax)
    dd56:	0f b7 00             	movzwl (%rax),%eax
    dd59:	0f b7 c0             	movzwl %ax,%eax
    dd5c:	89 d6                	mov    %edx,%esi
    dd5e:	89 c7                	mov    %eax,%edi
    dd60:	e8 59 d0 ff ff       	callq  adbe <safe_lshift_func_uint16_t_u_s>
    dd65:	0f b7 c0             	movzwl %ax,%eax
    dd68:	48 89 c6             	mov    %rax,%rsi
    dd6b:	48 bf c6 d1 70 59 35 	movabs $0x1e534d355970d1c6,%rdi
    dd72:	4d 53 1e 
    dd75:	e8 2e cb ff ff       	callq  a8a8 <safe_sub_func_int64_t_s_s>
    dd7a:	be 05 00 00 00       	mov    $0x5,%esi
    dd7f:	48 89 c7             	mov    %rax,%rdi
    dd82:	e8 c4 d2 ff ff       	callq  b04b <safe_sub_func_uint64_t_u_u>
    dd87:	48 83 bd 08 f2 ff ff 	cmpq   $0x0,-0xdf8(%rbp)
    dd8e:	00 
    dd8f:	89 de                	mov    %ebx,%esi
    dd91:	bf 01 00 00 00       	mov    $0x1,%edi
    dd96:	e8 46 c7 ff ff       	callq  a4e1 <safe_lshift_func_int16_t_s_u>
    dd9b:	66 85 c0             	test   %ax,%ax
    dd9e:	74 12                	je     ddb2 <func_14+0xfd6>
    dda0:	0f b6 85 dc f0 ff ff 	movzbl -0xf24(%rbp),%eax
    dda7:	84 c0                	test   %al,%al
    dda9:	74 07                	je     ddb2 <func_14+0xfd6>
    ddab:	ba 01 00 00 00       	mov    $0x1,%edx
    ddb0:	eb 05                	jmp    ddb7 <func_14+0xfdb>
    ddb2:	ba 00 00 00 00       	mov    $0x0,%edx
    ddb7:	8b 85 00 f1 ff ff    	mov    -0xf00(%rbp),%eax
    ddbd:	39 c2                	cmp    %eax,%edx
    ddbf:	74 07                	je     ddc8 <func_14+0xfec>
    ddc1:	b8 01 00 00 00       	mov    $0x1,%eax
    ddc6:	eb 05                	jmp    ddcd <func_14+0xff1>
    ddc8:	b8 00 00 00 00       	mov    $0x0,%eax
    ddcd:	be 01 00 00 00       	mov    $0x1,%esi
    ddd2:	89 c7                	mov    %eax,%edi
    ddd4:	e8 39 c4 ff ff       	callq  a212 <safe_mul_func_int8_t_s_s>
    ddd9:	84 c0                	test   %al,%al
    dddb:	0f 84 c4 04 00 00    	je     e2a5 <func_14+0x14c9>
    dde1:	48 8d 05 f8 12 01 00 	lea    0x112f8(%rip),%rax        # 1f0e0 <g_59>
    dde8:	48 89 85 50 f2 ff ff 	mov    %rax,-0xdb0(%rbp)
    ddef:	48 c7 85 58 f2 ff ff 	movq   $0x0,-0xda8(%rbp)
    ddf6:	00 00 00 00 
    ddfa:	48 8d 05 f3 12 01 00 	lea    0x112f3(%rip),%rax        # 1f0f4 <g_97>
    de01:	48 89 85 60 f2 ff ff 	mov    %rax,-0xda0(%rbp)
    de08:	c7 85 44 f1 ff ff 6e 	movl   $0x81726c6e,-0xebc(%rbp)
    de0f:	6c 72 81 
    de12:	c7 85 48 f1 ff ff 53 	movl   $0xf675053,-0xeb8(%rbp)
    de19:	50 67 0f 
    de1c:	48 8d 85 90 f1 ff ff 	lea    -0xe70(%rbp),%rax
    de23:	48 89 85 98 f1 ff ff 	mov    %rax,-0xe68(%rbp)
    de2a:	66 c7 85 00 f3 ff ff 	movw   $0xf38,-0xd00(%rbp)
    de31:	38 0f 
    de33:	66 c7 85 02 f3 ff ff 	movw   $0xf38,-0xcfe(%rbp)
    de3a:	38 0f 
    de3c:	66 c7 85 04 f3 ff ff 	movw   $0xf38,-0xcfc(%rbp)
    de43:	38 0f 
    de45:	66 c7 85 06 f3 ff ff 	movw   $0xf38,-0xcfa(%rbp)
    de4c:	38 0f 
    de4e:	66 c7 85 08 f3 ff ff 	movw   $0xf38,-0xcf8(%rbp)
    de55:	38 0f 
    de57:	66 c7 85 0a f3 ff ff 	movw   $0xf38,-0xcf6(%rbp)
    de5e:	38 0f 
    de60:	66 c7 85 0c f3 ff ff 	movw   $0xf38,-0xcf4(%rbp)
    de67:	38 0f 
    de69:	66 c7 85 0e f3 ff ff 	movw   $0xf38,-0xcf2(%rbp)
    de70:	38 0f 
    de72:	66 c7 85 10 f3 ff ff 	movw   $0xf38,-0xcf0(%rbp)
    de79:	38 0f 
    de7b:	48 8b 85 50 f2 ff ff 	mov    -0xdb0(%rbp),%rax
    de82:	48 c7 00 09 00 00 00 	movq   $0x9,(%rax)
    de89:	8b 85 90 f1 ff ff    	mov    -0xe70(%rbp),%eax
    de8f:	41 89 c4             	mov    %eax,%r12d
    de92:	48 83 bd a8 f1 ff ff 	cmpq   $0x0,-0xe58(%rbp)
    de99:	00 
    de9a:	0f 94 c0             	sete   %al
    de9d:	89 c2                	mov    %eax,%edx
    de9f:	48 8b 85 60 f2 ff ff 	mov    -0xda0(%rbp),%rax
    dea6:	88 10                	mov    %dl,(%rax)
    dea8:	0f b7 85 de f0 ff ff 	movzwl -0xf22(%rbp),%eax
    deaf:	66 85 c0             	test   %ax,%ax
    deb2:	75 4c                	jne    df00 <func_14+0x1124>
    deb4:	48 8b 05 a5 45 01 00 	mov    0x145a5(%rip),%rax        # 22460 <g_1219>
    debb:	48 8b 00             	mov    (%rax),%rax
    debe:	48 8b 00             	mov    (%rax),%rax
    dec1:	0f b7 00             	movzwl (%rax),%eax
    dec4:	0f bf d8             	movswl %ax,%ebx
    dec7:	0f b6 85 dc f0 ff ff 	movzbl -0xf24(%rbp),%eax
    dece:	0f b6 d0             	movzbl %al,%edx
    ded1:	48 83 bd 08 f2 ff ff 	cmpq   $0x0,-0xdf8(%rbp)
    ded8:	00 
    ded9:	0f 94 c0             	sete   %al
    dedc:	0f b6 c0             	movzbl %al,%eax
    dedf:	48 89 d6             	mov    %rdx,%rsi
    dee2:	48 89 c7             	mov    %rax,%rdi
    dee5:	e8 96 d1 ff ff       	callq  b080 <safe_mod_func_uint64_t_u_u>
    deea:	48 83 f8 01          	cmp    $0x1,%rax
    deee:	0f 97 c0             	seta   %al
    def1:	0f b6 c0             	movzbl %al,%eax
    def4:	89 de                	mov    %ebx,%esi
    def6:	89 c7                	mov    %eax,%edi
    def8:	e8 d6 c4 ff ff       	callq  a3d3 <safe_sub_func_int16_t_s_s>
    defd:	66 85 c0             	test   %ax,%ax
    df00:	8b 85 00 f1 ff ff    	mov    -0xf00(%rbp),%eax
    df06:	89 85 00 f1 ff ff    	mov    %eax,-0xf00(%rbp)
    df0c:	8b 85 00 f1 ff ff    	mov    -0xf00(%rbp),%eax
    df12:	89 c2                	mov    %eax,%edx
    df14:	8b 85 c0 f5 ff ff    	mov    -0xa40(%rbp),%eax
    df1a:	31 d0                	xor    %edx,%eax
    df1c:	0f b7 c0             	movzwl %ax,%eax
    df1f:	44 89 e6             	mov    %r12d,%esi
    df22:	89 c7                	mov    %eax,%edi
    df24:	e8 dd ce ff ff       	callq  ae06 <safe_lshift_func_uint16_t_u_u>
    df29:	0f b7 c0             	movzwl %ax,%eax
    df2c:	48 be 36 63 3b 85 aa 	movabs $0x9903d4aa853b6336,%rsi
    df33:	d4 03 99 
    df36:	48 89 c7             	mov    %rax,%rdi
    df39:	e8 76 ca ff ff       	callq  a9b4 <safe_mod_func_int64_t_s_s>
    df3e:	48 33 85 28 f2 ff ff 	xor    -0xdd8(%rbp),%rax
    df45:	48 83 f8 09          	cmp    $0x9,%rax
    df49:	0f 97 c0             	seta   %al
    df4c:	0f b6 d0             	movzbl %al,%edx
    df4f:	0f b7 85 de f0 ff ff 	movzwl -0xf22(%rbp),%eax
    df56:	0f b7 c0             	movzwl %ax,%eax
    df59:	39 c2                	cmp    %eax,%edx
    df5b:	0f 9c c0             	setl   %al
    df5e:	0f b6 d0             	movzbl %al,%edx
    df61:	48 8b 85 e8 f1 ff ff 	mov    -0xe18(%rbp),%rax
    df68:	89 10                	mov    %edx,(%rax)
    df6a:	48 8b 85 e8 f1 ff ff 	mov    -0xe18(%rbp),%rax
    df71:	8b 00                	mov    (%rax),%eax
    df73:	89 85 44 f1 ff ff    	mov    %eax,-0xebc(%rbp)
    df79:	0f b7 85 de f0 ff ff 	movzwl -0xf22(%rbp),%eax
    df80:	66 85 c0             	test   %ax,%ax
    df83:	0f 84 95 02 00 00    	je     e21e <func_14+0x1442>
    df89:	66 c7 85 e1 f2 ff ff 	movw   $0x605,-0xd1f(%rbp)
    df90:	05 06 
    df92:	c6 85 e3 f2 ff ff 00 	movb   $0x0,-0xd1d(%rbp)
    df99:	66 c7 85 e4 f2 ff ff 	movw   $0x62f,-0xd1c(%rbp)
    dfa0:	2f 06 
    dfa2:	c6 85 e6 f2 ff ff 2f 	movb   $0x2f,-0xd1a(%rbp)
    dfa9:	66 c7 85 e7 f2 ff ff 	movw   $0x57d,-0xd19(%rbp)
    dfb0:	7d 05 
    dfb2:	c6 85 e9 f2 ff ff 00 	movb   $0x0,-0xd17(%rbp)
    dfb9:	66 c7 85 ea f2 ff ff 	movw   $0x7d7d,-0xd16(%rbp)
    dfc0:	7d 7d 
    dfc2:	c6 85 ec f2 ff ff 05 	movb   $0x5,-0xd14(%rbp)
    dfc9:	66 c7 85 ed f2 ff ff 	movw   $0x52f,-0xd13(%rbp)
    dfd0:	2f 05 
    dfd2:	c6 85 ef f2 ff ff 05 	movb   $0x5,-0xd11(%rbp)
    dfd9:	48 c7 85 70 f2 ff ff 	movq   $0x0,-0xd90(%rbp)
    dfe0:	00 00 00 00 
    dfe4:	48 c7 85 a0 f1 ff ff 	movq   $0x0,-0xe60(%rbp)
    dfeb:	00 00 00 00 
    dfef:	c7 85 a0 f1 ff ff 97 	movl   $0xf3f39d97,-0xe60(%rbp)
    dff6:	9d f3 f3 
    dff9:	48 8d 85 88 f1 ff ff 	lea    -0xe78(%rbp),%rax
    e000:	48 89 85 78 f2 ff ff 	mov    %rax,-0xd88(%rbp)
    e007:	c7 85 24 f1 ff ff 00 	movl   $0x0,-0xedc(%rbp)
    e00e:	00 00 00 
    e011:	eb 1b                	jmp    e02e <func_14+0x1252>
    e013:	8b 85 24 f1 ff ff    	mov    -0xedc(%rbp),%eax
    e019:	48 98                	cltq   
    e01b:	48 c7 84 c5 40 f6 ff 	movq   $0x1,-0x9c0(%rbp,%rax,8)
    e022:	ff 01 00 00 00 
    e027:	83 85 24 f1 ff ff 01 	addl   $0x1,-0xedc(%rbp)
    e02e:	83 bd 24 f1 ff ff 05 	cmpl   $0x5,-0xedc(%rbp)
    e035:	7e dc                	jle    e013 <func_14+0x1237>
    e037:	c7 85 24 f1 ff ff 00 	movl   $0x0,-0xedc(%rbp)
    e03e:	00 00 00 
    e041:	eb 1e                	jmp    e061 <func_14+0x1285>
    e043:	8b 85 24 f1 ff ff    	mov    -0xedc(%rbp),%eax
    e049:	48 98                	cltq   
    e04b:	48 8d 95 98 f1 ff ff 	lea    -0xe68(%rbp),%rdx
    e052:	48 89 94 c5 b0 f4 ff 	mov    %rdx,-0xb50(%rbp,%rax,8)
    e059:	ff 
    e05a:	83 85 24 f1 ff ff 01 	addl   $0x1,-0xedc(%rbp)
    e061:	83 bd 24 f1 ff ff 02 	cmpl   $0x2,-0xedc(%rbp)
    e068:	7e d9                	jle    e043 <func_14+0x1267>
    e06a:	0f b6 85 e7 f2 ff ff 	movzbl -0xd19(%rbp),%eax
    e071:	83 e8 01             	sub    $0x1,%eax
    e074:	88 85 e7 f2 ff ff    	mov    %al,-0xd19(%rbp)
    e07a:	0f b6 85 dc f0 ff ff 	movzbl -0xf24(%rbp),%eax
    e081:	0f b6 d8             	movzbl %al,%ebx
    e084:	8b 85 44 f1 ff ff    	mov    -0xebc(%rbp),%eax
    e08a:	44 0f be e0          	movsbl %al,%r12d
    e08e:	0f b6 85 dc f0 ff ff 	movzbl -0xf24(%rbp),%eax
    e095:	44 0f be e8          	movsbl %al,%r13d
    e099:	be 0c 00 00 00       	mov    $0xc,%esi
    e09e:	bf f0 b5 ff ff       	mov    $0xffffb5f0,%edi
    e0a3:	e8 39 c4 ff ff       	callq  a4e1 <safe_lshift_func_int16_t_s_u>
    e0a8:	0f b6 85 dc f0 ff ff 	movzbl -0xf24(%rbp),%eax
    e0af:	0f b6 d0             	movzbl %al,%edx
    e0b2:	48 8d 05 ef 52 01 00 	lea    0x152ef(%rip),%rax        # 233a8 <g_1535>
    e0b9:	48 39 85 f8 f1 ff ff 	cmp    %rax,-0xe08(%rbp)
    e0c0:	0f 95 c0             	setne  %al
    e0c3:	0f b6 c0             	movzbl %al,%eax
    e0c6:	89 d6                	mov    %edx,%esi
    e0c8:	89 c7                	mov    %eax,%edi
    e0ca:	e8 bf cc ff ff       	callq  ad8e <safe_div_func_uint16_t_u_u>
    e0cf:	48 8b 85 60 f6 ff ff 	mov    -0x9a0(%rbp),%rax
    e0d6:	48 83 f8 01          	cmp    $0x1,%rax
    e0da:	0f 94 c0             	sete   %al
    e0dd:	0f b6 c0             	movzbl %al,%eax
    e0e0:	89 c6                	mov    %eax,%esi
    e0e2:	bf 01 00 00 00       	mov    $0x1,%edi
    e0e7:	e8 77 c4 ff ff       	callq  a563 <safe_rshift_func_int16_t_s_u>
    e0ec:	48 8b 05 65 43 01 00 	mov    0x14365(%rip),%rax        # 22458 <g_1220>
    e0f3:	48 8b 00             	mov    (%rax),%rax
    e0f6:	48 39 85 70 f2 ff ff 	cmp    %rax,-0xd90(%rbp)
    e0fd:	0f 95 c0             	setne  %al
    e100:	0f b6 c0             	movzbl %al,%eax
    e103:	44 89 ee             	mov    %r13d,%esi
    e106:	89 c7                	mov    %eax,%edi
    e108:	e8 05 c1 ff ff       	callq  a212 <safe_mul_func_int8_t_s_s>
    e10d:	89 c2                	mov    %eax,%edx
    e10f:	48 8b 05 62 43 01 00 	mov    0x14362(%rip),%rax        # 22478 <g_1305>
    e116:	48 8b 00             	mov    (%rax),%rax
    e119:	66 0f be d2          	movsbw %dl,%dx
    e11d:	66 89 10             	mov    %dx,(%rax)
    e120:	0f b7 00             	movzwl (%rax),%eax
    e123:	98                   	cwtl   
    e124:	48 8b 15 35 43 01 00 	mov    0x14335(%rip),%rdx        # 22460 <g_1219>
    e12b:	48 8b 12             	mov    (%rdx),%rdx
    e12e:	48 8b 12             	mov    (%rdx),%rdx
    e131:	0f b7 12             	movzwl (%rdx),%edx
    e134:	0f b7 d2             	movzwl %dx,%edx
    e137:	83 e2 01             	and    $0x1,%edx
    e13a:	89 c6                	mov    %eax,%esi
    e13c:	89 d7                	mov    %edx,%edi
    e13e:	e8 05 cd ff ff       	callq  ae48 <safe_rshift_func_uint16_t_u_s>
    e143:	0f b7 c0             	movzwl %ax,%eax
    e146:	be f6 ff 00 00       	mov    $0xfff6,%esi
    e14b:	89 c7                	mov    %eax,%edi
    e14d:	e8 eb cb ff ff       	callq  ad3d <safe_mul_func_uint16_t_u_u>
    e152:	0f be c0             	movsbl %al,%eax
    e155:	44 89 e6             	mov    %r12d,%esi
    e158:	89 c7                	mov    %eax,%edi
    e15a:	e8 b3 c0 ff ff       	callq  a212 <safe_mul_func_int8_t_s_s>
    e15f:	0f be c0             	movsbl %al,%eax
    e162:	89 c6                	mov    %eax,%esi
    e164:	bf 00 00 00 00       	mov    $0x0,%edi
    e169:	e8 b7 cd ff ff       	callq  af25 <safe_div_func_uint32_t_u_u>
    e16e:	0f b7 c0             	movzwl %ax,%eax
    e171:	be 05 00 00 00       	mov    $0x5,%esi
    e176:	89 c7                	mov    %eax,%edi
    e178:	e8 cb cc ff ff       	callq  ae48 <safe_rshift_func_uint16_t_u_s>
    e17d:	98                   	cwtl   
    e17e:	89 de                	mov    %ebx,%esi
    e180:	89 c7                	mov    %eax,%edi
    e182:	e8 8f c2 ff ff       	callq  a416 <safe_mod_func_int16_t_s_s>
    e187:	66 85 c0             	test   %ax,%ax
    e18a:	74 07                	je     e193 <func_14+0x13b7>
    e18c:	ba 01 00 00 00       	mov    $0x1,%edx
    e191:	eb 05                	jmp    e198 <func_14+0x13bc>
    e193:	ba 00 00 00 00       	mov    $0x0,%edx
    e198:	48 8b 85 e8 f1 ff ff 	mov    -0xe18(%rbp),%rax
    e19f:	8b 00                	mov    (%rax),%eax
    e1a1:	09 c2                	or     %eax,%edx
    e1a3:	48 8b 85 e8 f1 ff ff 	mov    -0xe18(%rbp),%rax
    e1aa:	89 10                	mov    %edx,(%rax)
    e1ac:	48 8b 85 b8 f1 ff ff 	mov    -0xe48(%rbp),%rax
    e1b3:	48 8b 00             	mov    (%rax),%rax
    e1b6:	48 8d 95 00 f1 ff ff 	lea    -0xf00(%rbp),%rdx
    e1bd:	48 89 10             	mov    %rdx,(%rax)
    e1c0:	48 8b 05 d1 3e 01 00 	mov    0x13ed1(%rip),%rax        # 22098 <g_375>
    e1c7:	0f b6 10             	movzbl (%rax),%edx
    e1ca:	8d 4a 01             	lea    0x1(%rdx),%ecx
    e1cd:	88 08                	mov    %cl,(%rax)
    e1cf:	0f b6 ca             	movzbl %dl,%ecx
    e1d2:	48 8b 85 98 f1 ff ff 	mov    -0xe68(%rbp),%rax
    e1d9:	48 89 85 00 f2 ff ff 	mov    %rax,-0xe00(%rbp)
    e1e0:	48 8b 95 88 f1 ff ff 	mov    -0xe78(%rbp),%rdx
    e1e7:	48 8b 85 78 f2 ff ff 	mov    -0xd88(%rbp),%rax
    e1ee:	48 89 10             	mov    %rdx,(%rax)
    e1f1:	48 8b 85 78 f2 ff ff 	mov    -0xd88(%rbp),%rax
    e1f8:	48 8b 00             	mov    (%rax),%rax
    e1fb:	48 39 85 00 f2 ff ff 	cmp    %rax,-0xe00(%rbp)
    e202:	0f 94 c0             	sete   %al
    e205:	0f b6 c0             	movzbl %al,%eax
    e208:	39 c1                	cmp    %eax,%ecx
    e20a:	0f 94 c2             	sete   %dl
    e20d:	48 8b 05 6c 3e 01 00 	mov    0x13e6c(%rip),%rax        # 22080 <g_194>
    e214:	0f b6 d2             	movzbl %dl,%edx
    e217:	89 10                	mov    %edx,(%rax)
    e219:	e9 63 04 00 00       	jmpq   e681 <func_14+0x18a5>
    e21e:	48 8d 05 7b 3e 01 00 	lea    0x13e7b(%rip),%rax        # 220a0 <g_447>
    e225:	48 89 85 68 f2 ff ff 	mov    %rax,-0xd98(%rbp)
    e22c:	66 c7 85 a0 f1 ff ff 	movw   $0x3b15,-0xe60(%rbp)
    e233:	15 3b 
    e235:	0f b7 85 de f0 ff ff 	movzwl -0xf22(%rbp),%eax
    e23c:	0f b7 d0             	movzwl %ax,%edx
    e23f:	48 8b 05 0a 42 01 00 	mov    0x1420a(%rip),%rax        # 22450 <g_1221>
    e246:	0f b7 08             	movzwl (%rax),%ecx
    e249:	83 c1 01             	add    $0x1,%ecx
    e24c:	66 89 08             	mov    %cx,(%rax)
    e24f:	0f b7 00             	movzwl (%rax),%eax
    e252:	0f b7 c0             	movzwl %ax,%eax
    e255:	89 d6                	mov    %edx,%esi
    e257:	89 c7                	mov    %eax,%edi
    e259:	e8 fe ca ff ff       	callq  ad5c <safe_mod_func_uint16_t_u_u>
    e25e:	0f bf d0             	movswl %ax,%edx
    e261:	48 8b 05 10 42 01 00 	mov    0x14210(%rip),%rax        # 22478 <g_1305>
    e268:	48 8b 00             	mov    (%rax),%rax
    e26b:	0f b7 08             	movzwl (%rax),%ecx
    e26e:	48 8b 05 03 42 01 00 	mov    0x14203(%rip),%rax        # 22478 <g_1305>
    e275:	48 8b 00             	mov    (%rax),%rax
    e278:	83 e1 01             	and    $0x1,%ecx
    e27b:	66 89 08             	mov    %cx,(%rax)
    e27e:	0f b7 00             	movzwl (%rax),%eax
    e281:	98                   	cwtl   
    e282:	89 d6                	mov    %edx,%esi
    e284:	89 c7                	mov    %eax,%edi
    e286:	e8 48 c1 ff ff       	callq  a3d3 <safe_sub_func_int16_t_s_s>
    e28b:	98                   	cwtl   
    e28c:	21 85 1c f1 ff ff    	and    %eax,-0xee4(%rbp)
    e292:	0f b7 85 02 f3 ff ff 	movzwl -0xcfe(%rbp),%eax
    e299:	66 89 85 a0 f1 ff ff 	mov    %ax,-0xe60(%rbp)
    e2a0:	e9 dc 03 00 00       	jmpq   e681 <func_14+0x18a5>
    e2a5:	48 8d 05 40 0e 01 00 	lea    0x10e40(%rip),%rax        # 1f0ec <g_69>
    e2ac:	48 89 85 30 f2 ff ff 	mov    %rax,-0xdd0(%rbp)
    e2b3:	48 8d 05 c0 0e 01 00 	lea    0x10ec0(%rip),%rax        # 1f17a <g_235>
    e2ba:	48 89 85 38 f2 ff ff 	mov    %rax,-0xdc8(%rbp)
    e2c1:	c7 85 28 f1 ff ff 00 	movl   $0x0,-0xed8(%rbp)
    e2c8:	00 00 00 
    e2cb:	eb 1e                	jmp    e2eb <func_14+0x150f>
    e2cd:	8b 85 28 f1 ff ff    	mov    -0xed8(%rbp),%eax
    e2d3:	48 98                	cltq   
    e2d5:	48 8d 15 ae 0e 01 00 	lea    0x10eae(%rip),%rdx        # 1f18a <g_256+0xa>
    e2dc:	48 89 94 c5 b0 f4 ff 	mov    %rdx,-0xb50(%rbp,%rax,8)
    e2e3:	ff 
    e2e4:	83 85 28 f1 ff ff 01 	addl   $0x1,-0xed8(%rbp)
    e2eb:	83 bd 28 f1 ff ff 01 	cmpl   $0x1,-0xed8(%rbp)
    e2f2:	7e d9                	jle    e2cd <func_14+0x14f1>
    e2f4:	48 8b 05 65 3e 01 00 	mov    0x13e65(%rip),%rax        # 22160 <g_1009>
    e2fb:	48 8b 00             	mov    (%rax),%rax
    e2fe:	48 8b 00             	mov    (%rax),%rax
    e301:	48 8b 05 60 42 01 00 	mov    0x14260(%rip),%rax        # 22568 <g_1458>
    e308:	48 8b 00             	mov    (%rax),%rax
    e30b:	0f b7 00             	movzwl (%rax),%eax
    e30e:	66 89 85 fe f0 ff ff 	mov    %ax,-0xf02(%rbp)
    e315:	48 8d 85 04 f1 ff ff 	lea    -0xefc(%rbp),%rax
    e31c:	48 89 85 30 f2 ff ff 	mov    %rax,-0xdd0(%rbp)
    e323:	48 c7 05 ca 10 01 00 	movq   $0x0,0x110ca(%rip)        # 1f3f8 <g_623>
    e32a:	00 00 00 00 
    e32e:	eb 31                	jmp    e361 <func_14+0x1585>
    e330:	48 8b 05 51 3d 01 00 	mov    0x13d51(%rip),%rax        # 22088 <g_193>
    e337:	48 8b 95 90 f4 ff ff 	mov    -0xb70(%rbp),%rdx
    e33e:	48 89 10             	mov    %rdx,(%rax)
    e341:	48 8b 05 b0 10 01 00 	mov    0x110b0(%rip),%rax        # 1f3f8 <g_623>
    e348:	0f b6 c0             	movzbl %al,%eax
    e34b:	be 05 00 00 00       	mov    $0x5,%esi
    e350:	89 c7                	mov    %eax,%edi
    e352:	e8 21 c8 ff ff       	callq  ab78 <safe_sub_func_uint8_t_u_u>
    e357:	0f b6 c0             	movzbl %al,%eax
    e35a:	48 89 05 97 10 01 00 	mov    %rax,0x11097(%rip)        # 1f3f8 <g_623>
    e361:	48 8b 05 90 10 01 00 	mov    0x11090(%rip),%rax        # 1f3f8 <g_623>
    e368:	48 83 f8 fb          	cmp    $0xfffffffffffffffb,%rax
    e36c:	75 c2                	jne    e330 <func_14+0x1554>
    e36e:	44 8b ad c0 f5 ff ff 	mov    -0xa40(%rbp),%r13d
    e375:	8b 9d c0 f5 ff ff    	mov    -0xa40(%rbp),%ebx
    e37b:	0f b7 85 de f0 ff ff 	movzwl -0xf22(%rbp),%eax
    e382:	44 0f b7 e0          	movzwl %ax,%r12d
    e386:	0f b6 05 2a 0f 01 00 	movzbl 0x10f2a(%rip),%eax        # 1f2b7 <g_582>
    e38d:	83 e0 7f             	and    $0x7f,%eax
    e390:	0f b6 d0             	movzbl %al,%edx
    e393:	0f b6 05 a6 0e 01 00 	movzbl 0x10ea6(%rip),%eax        # 1f240 <g_566>
    e39a:	83 e0 7f             	and    $0x7f,%eax
    e39d:	0f b6 c8             	movzbl %al,%ecx
    e3a0:	0f b7 85 de f0 ff ff 	movzwl -0xf22(%rbp),%eax
    e3a7:	66 83 f8 79          	cmp    $0x79,%ax
    e3ab:	0f 96 c0             	setbe  %al
    e3ae:	0f b6 c0             	movzbl %al,%eax
    e3b1:	39 c1                	cmp    %eax,%ecx
    e3b3:	0f 9f c0             	setg   %al
    e3b6:	0f b6 c8             	movzbl %al,%ecx
    e3b9:	0f b7 85 de f0 ff ff 	movzwl -0xf22(%rbp),%eax
    e3c0:	0f b7 c0             	movzwl %ax,%eax
    e3c3:	39 c1                	cmp    %eax,%ecx
    e3c5:	0f 9f c0             	setg   %al
    e3c8:	0f b6 c0             	movzbl %al,%eax
    e3cb:	89 d6                	mov    %edx,%esi
    e3cd:	89 c7                	mov    %eax,%edi
    e3cf:	e8 3e be ff ff       	callq  a212 <safe_mul_func_int8_t_s_s>
    e3d4:	48 83 bd c8 f1 ff ff 	cmpq   $0x0,-0xe38(%rbp)
    e3db:	00 
    e3dc:	0f 95 c0             	setne  %al
    e3df:	0f b6 c0             	movzbl %al,%eax
    e3e2:	be 46 2c 00 00       	mov    $0x2c46,%esi
    e3e7:	89 c7                	mov    %eax,%edi
    e3e9:	e8 a0 c9 ff ff       	callq  ad8e <safe_div_func_uint16_t_u_u>
    e3ee:	48 8b 05 83 40 01 00 	mov    0x14083(%rip),%rax        # 22478 <g_1305>
    e3f5:	48 8b 00             	mov    (%rax),%rax
    e3f8:	66 c7 00 a4 10       	movw   $0x10a4,(%rax)
    e3fd:	48 8b 85 80 f1 ff ff 	mov    -0xe80(%rbp),%rax
    e404:	48 8b 00             	mov    (%rax),%rax
    e407:	0f b6 10             	movzbl (%rax),%edx
    e40a:	0f b7 85 de f0 ff ff 	movzwl -0xf22(%rbp),%eax
    e411:	89 c1                	mov    %eax,%ecx
    e413:	48 8b 85 80 f1 ff ff 	mov    -0xe80(%rbp),%rax
    e41a:	48 8b 00             	mov    (%rax),%rax
    e41d:	31 ca                	xor    %ecx,%edx
    e41f:	88 10                	mov    %dl,(%rax)
    e421:	0f b6 00             	movzbl (%rax),%eax
    e424:	88 85 dc f0 ff ff    	mov    %al,-0xf24(%rbp)
    e42a:	0f b6 85 dc f0 ff ff 	movzbl -0xf24(%rbp),%eax
    e431:	0f b6 d0             	movzbl %al,%edx
    e434:	0f b7 05 25 0e 01 00 	movzwl 0x10e25(%rip),%eax        # 1f260 <g_568+0x10>
    e43b:	0f be c0             	movsbl %al,%eax
    e43e:	89 d6                	mov    %edx,%esi
    e440:	89 c7                	mov    %eax,%edi
    e442:	e8 a7 be ff ff       	callq  a2ee <safe_lshift_func_int8_t_s_u>
    e447:	0f be c0             	movsbl %al,%eax
    e44a:	be a4 10 00 00       	mov    $0x10a4,%esi
    e44f:	89 c7                	mov    %eax,%edi
    e451:	e8 9f bf ff ff       	callq  a3f5 <safe_mul_func_int16_t_s_s>
    e456:	4c 89 e6             	mov    %r12,%rsi
    e459:	bf 00 00 00 00       	mov    $0x0,%edi
    e45e:	e8 51 c5 ff ff       	callq  a9b4 <safe_mod_func_int64_t_s_s>
    e463:	8b 85 1c f1 ff ff    	mov    -0xee4(%rbp),%eax
    e469:	0d 0e 2a 7d ba       	or     $0xba7d2a0e,%eax
    e46e:	89 de                	mov    %ebx,%esi
    e470:	89 c7                	mov    %eax,%edi
    e472:	e8 8e c1 ff ff       	callq  a605 <safe_sub_func_int32_t_s_s>
    e477:	41 39 c5             	cmp    %eax,%r13d
    e47a:	74 14                	je     e490 <func_14+0x16b4>
    e47c:	48 8b 85 30 f2 ff ff 	mov    -0xdd0(%rbp),%rax
    e483:	8b 00                	mov    (%rax),%eax
    e485:	85 c0                	test   %eax,%eax
    e487:	74 07                	je     e490 <func_14+0x16b4>
    e489:	b8 01 00 00 00       	mov    $0x1,%eax
    e48e:	eb 05                	jmp    e495 <func_14+0x16b9>
    e490:	b8 00 00 00 00       	mov    $0x0,%eax
    e495:	98                   	cwtl   
    e496:	be dc cc ff ff       	mov    $0xffffccdc,%esi
    e49b:	89 c7                	mov    %eax,%edi
    e49d:	e8 b3 bf ff ff       	callq  a455 <safe_div_func_int16_t_s_s>
    e4a2:	66 83 f8 22          	cmp    $0x22,%ax
    e4a6:	74 1e                	je     e4c6 <func_14+0x16ea>
    e4a8:	48 8b 05 b9 3f 01 00 	mov    0x13fb9(%rip),%rax        # 22468 <g_1231>
    e4af:	8b 10                	mov    (%rax),%edx
    e4b1:	48 8b 85 e8 f1 ff ff 	mov    -0xe18(%rbp),%rax
    e4b8:	89 10                	mov    %edx,(%rax)
    e4ba:	0f b7 85 de f0 ff ff 	movzwl -0xf22(%rbp),%eax
    e4c1:	e9 9d 08 00 00       	jmpq   ed63 <func_14+0x1f87>
    e4c6:	48 8d 05 07 0c 01 00 	lea    0x10c07(%rip),%rax        # 1f0d4 <g_11>
    e4cd:	48 89 85 40 f2 ff ff 	mov    %rax,-0xdc0(%rbp)
    e4d4:	48 8d 05 ed 40 01 00 	lea    0x140ed(%rip),%rax        # 225c8 <g_1693>
    e4db:	48 89 85 48 f2 ff ff 	mov    %rax,-0xdb8(%rbp)
    e4e2:	c7 85 2c f1 ff ff 00 	movl   $0x0,-0xed4(%rbp)
    e4e9:	00 00 00 
    e4ec:	eb 1b                	jmp    e509 <func_14+0x172d>
    e4ee:	8b 85 2c f1 ff ff    	mov    -0xed4(%rbp),%eax
    e4f4:	48 98                	cltq   
    e4f6:	48 c7 84 c5 40 f6 ff 	movq   $0x0,-0x9c0(%rbp,%rax,8)
    e4fd:	ff 00 00 00 00 
    e502:	83 85 2c f1 ff ff 01 	addl   $0x1,-0xed4(%rbp)
    e509:	83 bd 2c f1 ff ff 01 	cmpl   $0x1,-0xed4(%rbp)
    e510:	7e dc                	jle    e4ee <func_14+0x1712>
    e512:	48 8b 05 77 3b 01 00 	mov    0x13b77(%rip),%rax        # 22090 <g_192>
    e519:	48 8b 00             	mov    (%rax),%rax
    e51c:	48 8b 95 40 f2 ff ff 	mov    -0xdc0(%rbp),%rdx
    e523:	48 89 10             	mov    %rdx,(%rax)
    e526:	48 8b 05 73 3b 01 00 	mov    0x13b73(%rip),%rax        # 220a0 <g_447>
    e52d:	48 8b 00             	mov    (%rax),%rax
    e530:	49 89 c4             	mov    %rax,%r12
    e533:	48 8b 85 40 f2 ff ff 	mov    -0xdc0(%rbp),%rax
    e53a:	8b 18                	mov    (%rax),%ebx
    e53c:	48 8b 05 0d 3c 01 00 	mov    0x13c0d(%rip),%rax        # 22150 <g_962>
    e543:	48 8b 00             	mov    (%rax),%rax
    e546:	48 85 c0             	test   %rax,%rax
    e549:	0f 85 bf 00 00 00    	jne    e60e <func_14+0x1832>
    e54f:	48 8b 15 72 40 01 00 	mov    0x14072(%rip),%rdx        # 225c8 <g_1693>
    e556:	48 8b 85 48 f2 ff ff 	mov    -0xdb8(%rbp),%rax
    e55d:	48 89 10             	mov    %rdx,(%rax)
    e560:	48 8b 85 48 f2 ff ff 	mov    -0xdb8(%rbp),%rax
    e567:	48 8b 00             	mov    (%rax),%rax
    e56a:	48 89 85 78 fd ff ff 	mov    %rax,-0x288(%rbp)
    e571:	0f b6 85 dc f0 ff ff 	movzbl -0xf24(%rbp),%eax
    e578:	0f b6 d0             	movzbl %al,%edx
    e57b:	48 8b 05 d6 3e 01 00 	mov    0x13ed6(%rip),%rax        # 22458 <g_1220>
    e582:	48 8b 00             	mov    (%rax),%rax
    e585:	0f b7 00             	movzwl (%rax),%eax
    e588:	0f b7 c0             	movzwl %ax,%eax
    e58b:	89 d6                	mov    %edx,%esi
    e58d:	89 c7                	mov    %eax,%edi
    e58f:	e8 fa c7 ff ff       	callq  ad8e <safe_div_func_uint16_t_u_u>
    e594:	48 8b 95 d8 f2 ff ff 	mov    -0xd28(%rbp),%rdx
    e59b:	48 8b 85 f8 f1 ff ff 	mov    -0xe08(%rbp),%rax
    e5a2:	48 8b 00             	mov    (%rax),%rax
    e5a5:	48 39 c2             	cmp    %rax,%rdx
    e5a8:	0f 94 c0             	sete   %al
    e5ab:	0f b6 d0             	movzbl %al,%edx
    e5ae:	48 8b 85 30 f2 ff ff 	mov    -0xdd0(%rbp),%rax
    e5b5:	8b 00                	mov    (%rax),%eax
    e5b7:	31 c2                	xor    %eax,%edx
    e5b9:	48 8b 05 b8 3e 01 00 	mov    0x13eb8(%rip),%rax        # 22478 <g_1305>
    e5c0:	48 8b 00             	mov    (%rax),%rax
    e5c3:	0f b7 00             	movzwl (%rax),%eax
    e5c6:	98                   	cwtl   
    e5c7:	31 d0                	xor    %edx,%eax
    e5c9:	48 63 d0             	movslq %eax,%rdx
    e5cc:	48 8b 05 8d 3b 01 00 	mov    0x13b8d(%rip),%rax        # 22160 <g_1009>
    e5d3:	48 8b 00             	mov    (%rax),%rax
    e5d6:	48 8b 00             	mov    (%rax),%rax
    e5d9:	48 89 d6             	mov    %rdx,%rsi
    e5dc:	48 89 c7             	mov    %rax,%rdi
    e5df:	e8 4a ca ff ff       	callq  b02e <safe_add_func_uint64_t_u_u>
    e5e4:	0f b6 95 dc f0 ff ff 	movzbl -0xf24(%rbp),%edx
    e5eb:	0f b6 d2             	movzbl %dl,%edx
    e5ee:	48 39 d0             	cmp    %rdx,%rax
    e5f1:	75 12                	jne    e605 <func_14+0x1829>
    e5f3:	0f b6 85 dc f0 ff ff 	movzbl -0xf24(%rbp),%eax
    e5fa:	84 c0                	test   %al,%al
    e5fc:	74 07                	je     e605 <func_14+0x1829>
    e5fe:	b8 01 00 00 00       	mov    $0x1,%eax
    e603:	eb 05                	jmp    e60a <func_14+0x182e>
    e605:	b8 00 00 00 00       	mov    $0x0,%eax
    e60a:	85 c0                	test   %eax,%eax
    e60c:	75 13                	jne    e621 <func_14+0x1845>
    e60e:	48 8b 85 b8 f1 ff ff 	mov    -0xe48(%rbp),%rax
    e615:	48 8b 00             	mov    (%rax),%rax
    e618:	48 8b 00             	mov    (%rax),%rax
    e61b:	8b 00                	mov    (%rax),%eax
    e61d:	85 c0                	test   %eax,%eax
    e61f:	74 07                	je     e628 <func_14+0x184c>
    e621:	b8 01 00 00 00       	mov    $0x1,%eax
    e626:	eb 05                	jmp    e62d <func_14+0x1851>
    e628:	b8 00 00 00 00       	mov    $0x0,%eax
    e62d:	83 f8 16             	cmp    $0x16,%eax
    e630:	0f 9e c0             	setle  %al
    e633:	0f b6 c0             	movzbl %al,%eax
    e636:	89 de                	mov    %ebx,%esi
    e638:	89 c7                	mov    %eax,%edi
    e63a:	e8 f6 bc ff ff       	callq  a335 <safe_rshift_func_int8_t_s_s>
    e63f:	48 0f be c0          	movsbq %al,%rax
    e643:	4c 89 e6             	mov    %r12,%rsi
    e646:	48 89 c7             	mov    %rax,%rdi
    e649:	e8 61 ca ff ff       	callq  b0af <safe_div_func_uint64_t_u_u>
    e64e:	0f b7 c0             	movzwl %ax,%eax
    e651:	be 0c 00 00 00       	mov    $0xc,%esi
    e656:	89 c7                	mov    %eax,%edi
    e658:	e8 1d c8 ff ff       	callq  ae7a <safe_rshift_func_uint16_t_u_u>
    e65d:	be 01 b4 00 00       	mov    $0xb401,%esi
    e662:	bf 01 00 00 00       	mov    $0x1,%edi
    e667:	e8 b3 c6 ff ff       	callq  ad1f <safe_sub_func_uint16_t_u_u>
    e66c:	0f b7 c0             	movzwl %ax,%eax
    e66f:	89 85 04 f1 ff ff    	mov    %eax,-0xefc(%rbp)
    e675:	0f b7 85 fc f0 ff ff 	movzwl -0xf04(%rbp),%eax
    e67c:	e9 e2 06 00 00       	jmpq   ed63 <func_14+0x1f87>
    e681:	48 c7 85 90 f1 ff ff 	movq   $0x10,-0xe70(%rbp)
    e688:	10 00 00 00 
    e68c:	e9 e0 04 00 00       	jmpq   eb71 <func_14+0x1d95>
    e691:	48 8d 05 30 0b 01 00 	lea    0x10b30(%rip),%rax        # 1f1c8 <g_256+0x48>
    e698:	48 89 85 b0 f4 ff ff 	mov    %rax,-0xb50(%rbp)
    e69f:	48 8d 05 33 0a 01 00 	lea    0x10a33(%rip),%rax        # 1f0d9 <g_34>
    e6a6:	48 89 85 b8 f4 ff ff 	mov    %rax,-0xb48(%rbp)
    e6ad:	48 8d 05 25 0a 01 00 	lea    0x10a25(%rip),%rax        # 1f0d9 <g_34>
    e6b4:	48 89 85 c0 f4 ff ff 	mov    %rax,-0xb40(%rbp)
    e6bb:	48 8d 05 06 0b 01 00 	lea    0x10b06(%rip),%rax        # 1f1c8 <g_256+0x48>
    e6c2:	48 89 85 c8 f4 ff ff 	mov    %rax,-0xb38(%rbp)
    e6c9:	48 8d 05 09 0a 01 00 	lea    0x10a09(%rip),%rax        # 1f0d9 <g_34>
    e6d0:	48 89 85 d0 f4 ff ff 	mov    %rax,-0xb30(%rbp)
    e6d7:	48 8d 05 ea 0a 01 00 	lea    0x10aea(%rip),%rax        # 1f1c8 <g_256+0x48>
    e6de:	48 89 85 d8 f4 ff ff 	mov    %rax,-0xb28(%rbp)
    e6e5:	48 8d 05 ed 09 01 00 	lea    0x109ed(%rip),%rax        # 1f0d9 <g_34>
    e6ec:	48 89 85 e0 f4 ff ff 	mov    %rax,-0xb20(%rbp)
    e6f3:	48 8d 05 df 09 01 00 	lea    0x109df(%rip),%rax        # 1f0d9 <g_34>
    e6fa:	48 89 85 e8 f4 ff ff 	mov    %rax,-0xb18(%rbp)
    e701:	48 8d 05 c0 0a 01 00 	lea    0x10ac0(%rip),%rax        # 1f1c8 <g_256+0x48>
    e708:	48 89 85 f0 f4 ff ff 	mov    %rax,-0xb10(%rbp)
    e70f:	48 8d 05 b2 0a 01 00 	lea    0x10ab2(%rip),%rax        # 1f1c8 <g_256+0x48>
    e716:	48 89 85 f8 f4 ff ff 	mov    %rax,-0xb08(%rbp)
    e71d:	48 8d 05 a8 0a 01 00 	lea    0x10aa8(%rip),%rax        # 1f1cc <g_256+0x4c>
    e724:	48 89 85 00 f5 ff ff 	mov    %rax,-0xb00(%rbp)
    e72b:	48 8d 05 96 0a 01 00 	lea    0x10a96(%rip),%rax        # 1f1c8 <g_256+0x48>
    e732:	48 89 85 08 f5 ff ff 	mov    %rax,-0xaf8(%rbp)
    e739:	48 8d 05 88 0a 01 00 	lea    0x10a88(%rip),%rax        # 1f1c8 <g_256+0x48>
    e740:	48 89 85 10 f5 ff ff 	mov    %rax,-0xaf0(%rbp)
    e747:	48 8d 05 8b 09 01 00 	lea    0x1098b(%rip),%rax        # 1f0d9 <g_34>
    e74e:	48 89 85 18 f5 ff ff 	mov    %rax,-0xae8(%rbp)
    e755:	48 8d 05 7d 09 01 00 	lea    0x1097d(%rip),%rax        # 1f0d9 <g_34>
    e75c:	48 89 85 20 f5 ff ff 	mov    %rax,-0xae0(%rbp)
    e763:	48 8d 05 5e 0a 01 00 	lea    0x10a5e(%rip),%rax        # 1f1c8 <g_256+0x48>
    e76a:	48 89 85 28 f5 ff ff 	mov    %rax,-0xad8(%rbp)
    e771:	48 8d 05 61 09 01 00 	lea    0x10961(%rip),%rax        # 1f0d9 <g_34>
    e778:	48 89 85 30 f5 ff ff 	mov    %rax,-0xad0(%rbp)
    e77f:	48 8d 05 42 0a 01 00 	lea    0x10a42(%rip),%rax        # 1f1c8 <g_256+0x48>
    e786:	48 89 85 38 f5 ff ff 	mov    %rax,-0xac8(%rbp)
    e78d:	48 8d 05 45 09 01 00 	lea    0x10945(%rip),%rax        # 1f0d9 <g_34>
    e794:	48 89 85 40 f5 ff ff 	mov    %rax,-0xac0(%rbp)
    e79b:	48 8d 05 37 09 01 00 	lea    0x10937(%rip),%rax        # 1f0d9 <g_34>
    e7a2:	48 89 85 48 f5 ff ff 	mov    %rax,-0xab8(%rbp)
    e7a9:	48 8d 05 18 0a 01 00 	lea    0x10a18(%rip),%rax        # 1f1c8 <g_256+0x48>
    e7b0:	48 89 85 50 f5 ff ff 	mov    %rax,-0xab0(%rbp)
    e7b7:	48 8d 05 0a 0a 01 00 	lea    0x10a0a(%rip),%rax        # 1f1c8 <g_256+0x48>
    e7be:	48 89 85 58 f5 ff ff 	mov    %rax,-0xaa8(%rbp)
    e7c5:	48 8d 05 00 0a 01 00 	lea    0x10a00(%rip),%rax        # 1f1cc <g_256+0x4c>
    e7cc:	48 89 85 60 f5 ff ff 	mov    %rax,-0xaa0(%rbp)
    e7d3:	48 8d 05 ee 09 01 00 	lea    0x109ee(%rip),%rax        # 1f1c8 <g_256+0x48>
    e7da:	48 89 85 68 f5 ff ff 	mov    %rax,-0xa98(%rbp)
    e7e1:	c6 85 f3 f0 ff ff 01 	movb   $0x1,-0xf0d(%rbp)
    e7e8:	48 8d 05 21 09 01 00 	lea    0x10921(%rip),%rax        # 1f110 <g_117>
    e7ef:	48 89 85 80 f2 ff ff 	mov    %rax,-0xd80(%rbp)
    e7f6:	48 8d 85 40 f6 ff ff 	lea    -0x9c0(%rbp),%rax
    e7fd:	48 8d 15 1c 27 01 00 	lea    0x1271c(%rip),%rdx        # 20f20 <g_2057+0x16a0>
    e804:	b9 28 00 00 00       	mov    $0x28,%ecx
    e809:	48 89 c7             	mov    %rax,%rdi
    e80c:	48 89 d6             	mov    %rdx,%rsi
    e80f:	f3 48 a5             	rep movsq %ds:(%rsi),%es:(%rdi)
    e812:	48 8d 05 bb 08 01 00 	lea    0x108bb(%rip),%rax        # 1f0d4 <g_11>
    e819:	48 89 85 88 f2 ff ff 	mov    %rax,-0xd78(%rbp)
    e820:	8b 9d 1c f1 ff ff    	mov    -0xee4(%rbp),%ebx
    e826:	48 8b 05 2b 39 01 00 	mov    0x1392b(%rip),%rax        # 22158 <g_1010>
    e82d:	48 8b 00             	mov    (%rax),%rax
    e830:	48 85 c0             	test   %rax,%rax
    e833:	74 2b                	je     e860 <func_14+0x1a84>
    e835:	48 8b 05 34 3c 01 00 	mov    0x13c34(%rip),%rax        # 22470 <g_1255>
    e83c:	48 8b 85 80 f2 ff ff 	mov    -0xd80(%rbp),%rax
    e843:	48 8b 00             	mov    (%rax),%rax
    e846:	48 8d 48 01          	lea    0x1(%rax),%rcx
    e84a:	48 8b 95 80 f2 ff ff 	mov    -0xd80(%rbp),%rdx
    e851:	48 89 0a             	mov    %rcx,(%rdx)
    e854:	48 85 c0             	test   %rax,%rax
    e857:	74 07                	je     e860 <func_14+0x1a84>
    e859:	b9 01 00 00 00       	mov    $0x1,%ecx
    e85e:	eb 05                	jmp    e865 <func_14+0x1a89>
    e860:	b9 00 00 00 00       	mov    $0x0,%ecx
    e865:	8b 85 c0 f5 ff ff    	mov    -0xa40(%rbp),%eax
    e86b:	83 f0 01             	xor    $0x1,%eax
    e86e:	89 85 c0 f5 ff ff    	mov    %eax,-0xa40(%rbp)
    e874:	8b 85 c0 f5 ff ff    	mov    -0xa40(%rbp),%eax
    e87a:	48 63 d0             	movslq %eax,%rdx
    e87d:	48 8b 05 1c 38 01 00 	mov    0x1381c(%rip),%rax        # 220a0 <g_447>
    e884:	48 8b 00             	mov    (%rax),%rax
    e887:	48 39 c2             	cmp    %rax,%rdx
    e88a:	0f 9e c0             	setle  %al
    e88d:	0f b6 c0             	movzbl %al,%eax
    e890:	39 c1                	cmp    %eax,%ecx
    e892:	7e 07                	jle    e89b <func_14+0x1abf>
    e894:	ba 05 00 00 00       	mov    $0x5,%edx
    e899:	eb 05                	jmp    e8a0 <func_14+0x1ac4>
    e89b:	ba 04 00 00 00       	mov    $0x4,%edx
    e8a0:	48 8b 05 f1 37 01 00 	mov    0x137f1(%rip),%rax        # 22098 <g_375>
    e8a7:	0f b6 00             	movzbl (%rax),%eax
    e8aa:	0f b6 c0             	movzbl %al,%eax
    e8ad:	89 d6                	mov    %edx,%esi
    e8af:	89 c7                	mov    %eax,%edi
    e8b1:	e8 c2 c2 ff ff       	callq  ab78 <safe_sub_func_uint8_t_u_u>
    e8b6:	0f b6 d0             	movzbl %al,%edx
    e8b9:	0f b6 85 f3 f0 ff ff 	movzbl -0xf0d(%rbp),%eax
    e8c0:	89 d6                	mov    %edx,%esi
    e8c2:	89 c7                	mov    %eax,%edi
    e8c4:	e8 2c bb ff ff       	callq  a3f5 <safe_mul_func_int16_t_s_s>
    e8c9:	48 8b 85 20 f7 ff ff 	mov    -0x8e0(%rbp),%rax
    e8d0:	48 85 c0             	test   %rax,%rax
    e8d3:	0f 94 c0             	sete   %al
    e8d6:	0f b6 c0             	movzbl %al,%eax
    e8d9:	89 de                	mov    %ebx,%esi
    e8db:	89 c7                	mov    %eax,%edi
    e8dd:	e8 6a c3 ff ff       	callq  ac4c <safe_lshift_func_uint8_t_u_u>
    e8e2:	84 c0                	test   %al,%al
    e8e4:	0f 84 6a 02 00 00    	je     eb54 <func_14+0x1d78>
    e8ea:	c7 85 a0 f1 ff ff e9 	movl   $0x4b5420e9,-0xe60(%rbp)
    e8f1:	20 54 4b 
    e8f4:	0f b6 85 dc f0 ff ff 	movzbl -0xf24(%rbp),%eax
    e8fb:	0f b6 c0             	movzbl %al,%eax
    e8fe:	66 89 85 de f0 ff ff 	mov    %ax,-0xf22(%rbp)
    e905:	0f b7 85 de f0 ff ff 	movzwl -0xf22(%rbp),%eax
    e90c:	0f b7 d0             	movzwl %ax,%edx
    e90f:	0f be 85 f1 f0 ff ff 	movsbl -0xf0f(%rbp),%eax
    e916:	39 c2                	cmp    %eax,%edx
    e918:	0f 9f c0             	setg   %al
    e91b:	0f b6 d0             	movzbl %al,%edx
    e91e:	48 8b 85 e8 f1 ff ff 	mov    -0xe18(%rbp),%rax
    e925:	8b 00                	mov    (%rax),%eax
    e927:	31 c2                	xor    %eax,%edx
    e929:	48 8b 85 e8 f1 ff ff 	mov    -0xe18(%rbp),%rax
    e930:	89 10                	mov    %edx,(%rax)
    e932:	8b 85 c0 f5 ff ff    	mov    -0xa40(%rbp),%eax
    e938:	0f bf d8             	movswl %ax,%ebx
    e93b:	0f b6 85 dc f0 ff ff 	movzbl -0xf24(%rbp),%eax
    e942:	44 0f b6 e0          	movzbl %al,%r12d
    e946:	48 8b 05 2b 3c 01 00 	mov    0x13c2b(%rip),%rax        # 22578 <g_1534>
    e94d:	48 8b 00             	mov    (%rax),%rax
    e950:	48 39 85 e0 f1 ff ff 	cmp    %rax,-0xe20(%rbp)
    e957:	0f 94 c0             	sete   %al
    e95a:	44 0f b6 e8          	movzbl %al,%r13d
    e95e:	8b 85 a0 f1 ff ff    	mov    -0xe60(%rbp),%eax
    e964:	41 89 c6             	mov    %eax,%r14d
    e967:	8b 85 00 f1 ff ff    	mov    -0xf00(%rbp),%eax
    e96d:	98                   	cwtl   
    e96e:	be ff ff ff ff       	mov    $0xffffffff,%esi
    e973:	89 c7                	mov    %eax,%edi
    e975:	e8 7b ba ff ff       	callq  a3f5 <safe_mul_func_int16_t_s_s>
    e97a:	0f b7 c0             	movzwl %ax,%eax
    e97d:	be 05 00 00 00       	mov    $0x5,%esi
    e982:	89 c7                	mov    %eax,%edi
    e984:	e8 35 c4 ff ff       	callq  adbe <safe_lshift_func_uint16_t_u_s>
    e989:	66 3d 05 a9          	cmp    $0xa905,%ax
    e98d:	0f 97 c2             	seta   %dl
    e990:	48 8b 05 c1 3a 01 00 	mov    0x13ac1(%rip),%rax        # 22458 <g_1220>
    e997:	48 8b 00             	mov    (%rax),%rax
    e99a:	0f b6 d2             	movzbl %dl,%edx
    e99d:	66 89 10             	mov    %dx,(%rax)
    e9a0:	0f b7 10             	movzwl (%rax),%edx
    e9a3:	0f b6 85 dc f0 ff ff 	movzbl -0xf24(%rbp),%eax
    e9aa:	0f b6 c0             	movzbl %al,%eax
    e9ad:	66 39 c2             	cmp    %ax,%dx
    e9b0:	77 07                	ja     e9b9 <func_14+0x1bdd>
    e9b2:	b8 01 00 00 00       	mov    $0x1,%eax
    e9b7:	eb 05                	jmp    e9be <func_14+0x1be2>
    e9b9:	b8 00 00 00 00       	mov    $0x0,%eax
    e9be:	44 89 f6             	mov    %r14d,%esi
    e9c1:	89 c7                	mov    %eax,%edi
    e9c3:	e8 35 c5 ff ff       	callq  aefd <safe_mod_func_uint32_t_u_u>
    e9c8:	0f b6 95 dc f0 ff ff 	movzbl -0xf24(%rbp),%edx
    e9cf:	0f b6 d2             	movzbl %dl,%edx
    e9d2:	39 d0                	cmp    %edx,%eax
    e9d4:	0f 97 c0             	seta   %al
    e9d7:	0f b6 c0             	movzbl %al,%eax
    e9da:	48 39 85 18 f2 ff ff 	cmp    %rax,-0xde8(%rbp)
    e9e1:	0f 94 c0             	sete   %al
    e9e4:	0f b6 c0             	movzbl %al,%eax
    e9e7:	be 08 00 00 00       	mov    $0x8,%esi
    e9ec:	89 c7                	mov    %eax,%edi
    e9ee:	e8 ff b7 ff ff       	callq  a1f2 <safe_sub_func_int8_t_s_s>
    e9f3:	c7 05 0f 0a 01 00 00 	movl   $0x0,0x10a0f(%rip)        # 1f40c <g_704>
    e9fa:	00 00 00 
    e9fd:	8b 05 09 0a 01 00    	mov    0x10a09(%rip),%eax        # 1f40c <g_704>
    ea03:	41 39 c5             	cmp    %eax,%r13d
    ea06:	0f 94 c0             	sete   %al
    ea09:	0f b6 c0             	movzbl %al,%eax
    ea0c:	89 85 1c f1 ff ff    	mov    %eax,-0xee4(%rbp)
    ea12:	8b 85 1c f1 ff ff    	mov    -0xee4(%rbp),%eax
    ea18:	44 89 e6             	mov    %r12d,%esi
    ea1b:	89 c7                	mov    %eax,%edi
    ea1d:	e8 dd bc ff ff       	callq  a6ff <safe_div_func_int32_t_s_s>
    ea22:	48 63 d0             	movslq %eax,%rdx
    ea25:	0f b6 85 dc f0 ff ff 	movzbl -0xf24(%rbp),%eax
    ea2c:	0f b6 c0             	movzbl %al,%eax
    ea2f:	48 89 d6             	mov    %rdx,%rsi
    ea32:	48 89 c7             	mov    %rax,%rdi
    ea35:	e8 11 c6 ff ff       	callq  b04b <safe_sub_func_uint64_t_u_u>
    ea3a:	98                   	cwtl   
    ea3b:	89 de                	mov    %ebx,%esi
    ea3d:	89 c7                	mov    %eax,%edi
    ea3f:	e8 8f b9 ff ff       	callq  a3d3 <safe_sub_func_int16_t_s_s>
    ea44:	66 85 c0             	test   %ax,%ax
    ea47:	75 0f                	jne    ea58 <func_14+0x1c7c>
    ea49:	48 8b 05 08 37 01 00 	mov    0x13708(%rip),%rax        # 22158 <g_1010>
    ea50:	48 8b 00             	mov    (%rax),%rax
    ea53:	48 85 c0             	test   %rax,%rax
    ea56:	74 11                	je     ea69 <func_14+0x1c8d>
    ea58:	48 83 bd 18 f2 ff ff 	cmpq   $0x0,-0xde8(%rbp)
    ea5f:	00 
    ea60:	74 07                	je     ea69 <func_14+0x1c8d>
    ea62:	b8 01 00 00 00       	mov    $0x1,%eax
    ea67:	eb 05                	jmp    ea6e <func_14+0x1c92>
    ea69:	b8 00 00 00 00       	mov    $0x0,%eax
    ea6e:	89 c6                	mov    %eax,%esi
    ea70:	bf 34 00 00 00       	mov    $0x34,%edi
    ea75:	e8 44 c2 ff ff       	callq  acbe <safe_rshift_func_uint8_t_u_u>
    ea7a:	0f b6 85 dc f0 ff ff 	movzbl -0xf24(%rbp),%eax
    ea81:	0f b6 c0             	movzbl %al,%eax
    ea84:	89 85 04 f1 ff ff    	mov    %eax,-0xefc(%rbp)
    ea8a:	0f b7 85 de f0 ff ff 	movzwl -0xf22(%rbp),%eax
    ea91:	20 85 ee f0 ff ff    	and    %al,-0xf12(%rbp)
    ea97:	48 8b 05 02 36 01 00 	mov    0x13602(%rip),%rax        # 220a0 <g_447>
    ea9e:	48 8b 18             	mov    (%rax),%rbx
    eaa1:	0f b7 85 de f0 ff ff 	movzwl -0xf22(%rbp),%eax
    eaa8:	0f b7 c0             	movzwl %ax,%eax
    eaab:	89 c6                	mov    %eax,%esi
    eaad:	bf 08 00 00 00       	mov    $0x8,%edi
    eab2:	e8 37 b8 ff ff       	callq  a2ee <safe_lshift_func_int8_t_s_u>
    eab7:	66 0f be d0          	movsbw %al,%dx
    eabb:	48 8b 85 10 f2 ff ff 	mov    -0xdf0(%rbp),%rax
    eac2:	66 89 10             	mov    %dx,(%rax)
    eac5:	48 8b 85 10 f2 ff ff 	mov    -0xdf0(%rbp),%rax
    eacc:	0f b7 00             	movzwl (%rax),%eax
    eacf:	0f bf d0             	movswl %ax,%edx
    ead2:	0f b7 85 de f0 ff ff 	movzwl -0xf22(%rbp),%eax
    ead9:	98                   	cwtl   
    eada:	89 d6                	mov    %edx,%esi
    eadc:	89 c7                	mov    %eax,%edi
    eade:	e8 12 b9 ff ff       	callq  a3f5 <safe_mul_func_int16_t_s_s>
    eae3:	48 89 de             	mov    %rbx,%rsi
    eae6:	bf 01 00 00 00       	mov    $0x1,%edi
    eaeb:	e8 51 bd ff ff       	callq  a841 <safe_add_func_int64_t_s_s>
    eaf0:	48 8b 05 49 38 01 00 	mov    0x13849(%rip),%rax        # 22340 <g_1012>
    eaf7:	48 8b 00             	mov    (%rax),%rax
    eafa:	48 85 c0             	test   %rax,%rax
    eafd:	0f b6 85 dc f0 ff ff 	movzbl -0xf24(%rbp),%eax
    eb04:	83 f0 01             	xor    $0x1,%eax
    eb07:	0f b6 d8             	movzbl %al,%ebx
    eb0a:	0f b7 85 de f0 ff ff 	movzwl -0xf22(%rbp),%eax
    eb11:	0f b7 c0             	movzwl %ax,%eax
    eb14:	48 c7 c6 ff ff ff ff 	mov    $0xffffffffffffffff,%rsi
    eb1b:	48 89 c7             	mov    %rax,%rdi
    eb1e:	e8 85 bd ff ff       	callq  a8a8 <safe_sub_func_int64_t_s_s>
    eb23:	0f b7 c0             	movzwl %ax,%eax
    eb26:	89 de                	mov    %ebx,%esi
    eb28:	89 c7                	mov    %eax,%edi
    eb2a:	e8 f0 c1 ff ff       	callq  ad1f <safe_sub_func_uint16_t_u_u>
    eb2f:	0f b7 d0             	movzwl %ax,%edx
    eb32:	48 8b 85 e8 f1 ff ff 	mov    -0xe18(%rbp),%rax
    eb39:	89 10                	mov    %edx,(%rax)
    eb3b:	83 bd 40 f1 ff ff 00 	cmpl   $0x0,-0xec0(%rbp)
    eb42:	75 40                	jne    eb84 <func_14+0x1da8>
    eb44:	48 8d 85 a0 f1 ff ff 	lea    -0xe60(%rbp),%rax
    eb4b:	48 89 85 20 f3 ff ff 	mov    %rax,-0xce0(%rbp)
    eb52:	eb 0b                	jmp    eb5f <func_14+0x1d83>
    eb54:	0f b6 85 dc f0 ff ff 	movzbl -0xf24(%rbp),%eax
    eb5b:	84 c0                	test   %al,%al
    eb5d:	75 28                	jne    eb87 <func_14+0x1dab>
    eb5f:	48 8b 85 90 f1 ff ff 	mov    -0xe70(%rbp),%rax
    eb66:	48 83 c0 01          	add    $0x1,%rax
    eb6a:	48 89 85 90 f1 ff ff 	mov    %rax,-0xe70(%rbp)
    eb71:	48 8b 85 90 f1 ff ff 	mov    -0xe70(%rbp),%rax
    eb78:	48 83 f8 33          	cmp    $0x33,%rax
    eb7c:	0f 86 0f fb ff ff    	jbe    e691 <func_14+0x18b5>
    eb82:	eb 04                	jmp    eb88 <func_14+0x1dac>
    eb84:	90                   	nop
    eb85:	eb 01                	jmp    eb88 <func_14+0x1dac>
    eb87:	90                   	nop
    eb88:	8b 05 96 05 01 00    	mov    0x10596(%rip),%eax        # 1f124 <g_153>
    eb8e:	be 09 00 00 00       	mov    $0x9,%esi
    eb93:	89 c7                	mov    %eax,%edi
    eb95:	e8 1e c3 ff ff       	callq  aeb8 <safe_add_func_uint32_t_u_u>
    eb9a:	89 05 84 05 01 00    	mov    %eax,0x10584(%rip)        # 1f124 <g_153>
    eba0:	8b 05 7e 05 01 00    	mov    0x1057e(%rip),%eax        # 1f124 <g_153>
    eba6:	83 f8 07             	cmp    $0x7,%eax
    eba9:	0f 86 86 f0 ff ff    	jbe    dc35 <func_14+0xe59>
    ebaf:	0f b7 85 de f0 ff ff 	movzwl -0xf22(%rbp),%eax
    ebb6:	66 85 c0             	test   %ax,%ax
    ebb9:	0f 85 7e 01 00 00    	jne    ed3d <func_14+0x1f61>
    ebbf:	48 8b 05 92 35 01 00 	mov    0x13592(%rip),%rax        # 22158 <g_1010>
    ebc6:	48 8b 00             	mov    (%rax),%rax
    ebc9:	48 8b 85 18 f2 ff ff 	mov    -0xde8(%rbp),%rax
    ebd0:	89 c3                	mov    %eax,%ebx
    ebd2:	0f b7 85 de f0 ff ff 	movzwl -0xf22(%rbp),%eax
    ebd9:	0f b7 c0             	movzwl %ax,%eax
    ebdc:	89 c6                	mov    %eax,%esi
    ebde:	bf 01 00 00 00       	mov    $0x1,%edi
    ebe3:	e8 d6 c0 ff ff       	callq  acbe <safe_rshift_func_uint8_t_u_u>
    ebe8:	0f b6 c0             	movzbl %al,%eax
    ebeb:	89 de                	mov    %ebx,%esi
    ebed:	89 c7                	mov    %eax,%edi
    ebef:	e8 99 c0 ff ff       	callq  ac8d <safe_rshift_func_uint8_t_u_s>
    ebf4:	0f be c0             	movsbl %al,%eax
    ebf7:	89 c7                	mov    %eax,%edi
    ebf9:	e8 c1 b5 ff ff       	callq  a1bf <safe_unary_minus_func_int8_t_s>
    ebfe:	48 0f be d8          	movsbq %al,%rbx
    ec02:	0f b6 85 dc f0 ff ff 	movzbl -0xf24(%rbp),%eax
    ec09:	0f b6 d0             	movzbl %al,%edx
    ec0c:	48 8b 85 20 f2 ff ff 	mov    -0xde0(%rbp),%rax
    ec13:	c6 00 0b             	movb   $0xb,(%rax)
    ec16:	48 8b 05 4b 35 01 00 	mov    0x1354b(%rip),%rax        # 22168 <g_1015>
    ec1d:	0f b7 00             	movzwl (%rax),%eax
    ec20:	8b 85 78 f5 ff ff    	mov    -0xa88(%rbp),%eax
    ec26:	83 f8 01             	cmp    $0x1,%eax
    ec29:	0f 9f c0             	setg   %al
    ec2c:	0f b6 c8             	movzbl %al,%ecx
    ec2f:	0f b7 85 de f0 ff ff 	movzwl -0xf22(%rbp),%eax
    ec36:	0f b7 c0             	movzwl %ax,%eax
    ec39:	39 c1                	cmp    %eax,%ecx
    ec3b:	0f 9c c0             	setl   %al
    ec3e:	0f b6 c0             	movzbl %al,%eax
    ec41:	48 89 d6             	mov    %rdx,%rsi
    ec44:	48 89 c7             	mov    %rax,%rdi
    ec47:	e8 f5 bb ff ff       	callq  a841 <safe_add_func_int64_t_s_s>
    ec4c:	98                   	cwtl   
    ec4d:	be f1 50 00 00       	mov    $0x50f1,%esi
    ec52:	89 c7                	mov    %eax,%edi
    ec54:	e8 9c b7 ff ff       	callq  a3f5 <safe_mul_func_int16_t_s_s>
    ec59:	be 0d 00 00 00       	mov    $0xd,%esi
    ec5e:	bf 01 00 00 00       	mov    $0x1,%edi
    ec63:	e8 12 c2 ff ff       	callq  ae7a <safe_rshift_func_uint16_t_u_u>
    ec68:	0f b7 c0             	movzwl %ax,%eax
    ec6b:	25 f6 39 00 00       	and    $0x39f6,%eax
    ec70:	48 21 c3             	and    %rax,%rbx
    ec73:	48 89 da             	mov    %rbx,%rdx
    ec76:	48 8b 05 db 37 01 00 	mov    0x137db(%rip),%rax        # 22458 <g_1220>
    ec7d:	48 8b 00             	mov    (%rax),%rax
    ec80:	0f b7 00             	movzwl (%rax),%eax
    ec83:	0f b7 c0             	movzwl %ax,%eax
    ec86:	48 39 c2             	cmp    %rax,%rdx
    ec89:	0f 94 c0             	sete   %al
    ec8c:	0f b6 d0             	movzbl %al,%edx
    ec8f:	8b 85 00 f1 ff ff    	mov    -0xf00(%rbp),%eax
    ec95:	09 d0                	or     %edx,%eax
    ec97:	89 85 00 f1 ff ff    	mov    %eax,-0xf00(%rbp)
    ec9d:	0f b7 85 cc f2 ff ff 	movzwl -0xd34(%rbp),%eax
    eca4:	83 c0 01             	add    $0x1,%eax
    eca7:	66 89 85 cc f2 ff ff 	mov    %ax,-0xd34(%rbp)
    ecae:	48 8b 05 1b 39 01 00 	mov    0x1391b(%rip),%rax        # 225d0 <g_1770>
    ecb5:	48 8b 95 d0 f1 ff ff 	mov    -0xe30(%rbp),%rdx
    ecbc:	0f b7 12             	movzwl (%rdx),%edx
    ecbf:	66 89 10             	mov    %dx,(%rax)
    ecc2:	66 c7 05 81 46 01 00 	movw   $0x0,0x14681(%rip)        # 2334c <g_100>
    ecc9:	00 00 
    eccb:	eb 60                	jmp    ed2d <func_14+0x1f51>
    eccd:	66 c7 85 fa f0 ff ff 	movw   $0x0,-0xf06(%rbp)
    ecd4:	00 00 
    ecd6:	eb 1c                	jmp    ecf4 <func_14+0x1f18>
    ecd8:	48 c7 85 90 f2 ff ff 	movq   $0x0,-0xd70(%rbp)
    ecdf:	00 00 00 00 
    ece3:	0f b7 85 fa f0 ff ff 	movzwl -0xf06(%rbp),%eax
    ecea:	83 c0 01             	add    $0x1,%eax
    eced:	66 89 85 fa f0 ff ff 	mov    %ax,-0xf06(%rbp)
    ecf4:	0f b7 85 fa f0 ff ff 	movzwl -0xf06(%rbp),%eax
    ecfb:	66 83 f8 01          	cmp    $0x1,%ax
    ecff:	76 d7                	jbe    ecd8 <func_14+0x1efc>
    ed01:	0f b6 85 dc f0 ff ff 	movzbl -0xf24(%rbp),%eax
    ed08:	84 c0                	test   %al,%al
    ed0a:	75 0f                	jne    ed1b <func_14+0x1f3f>
    ed0c:	48 8b 05 5d 37 01 00 	mov    0x1375d(%rip),%rax        # 22470 <g_1255>
    ed13:	8b 00                	mov    (%rax),%eax
    ed15:	85 c0                	test   %eax,%eax
    ed17:	75 23                	jne    ed3c <func_14+0x1f60>
    ed19:	eb 01                	jmp    ed1c <func_14+0x1f40>
    ed1b:	90                   	nop
    ed1c:	0f b7 05 29 46 01 00 	movzwl 0x14629(%rip),%eax        # 2334c <g_100>
    ed23:	83 c0 01             	add    $0x1,%eax
    ed26:	66 89 05 1f 46 01 00 	mov    %ax,0x1461f(%rip)        # 2334c <g_100>
    ed2d:	0f b7 05 18 46 01 00 	movzwl 0x14618(%rip),%eax        # 2334c <g_100>
    ed34:	66 83 f8 39          	cmp    $0x39,%ax
    ed38:	76 93                	jbe    eccd <func_14+0x1ef1>
    ed3a:	eb 01                	jmp    ed3d <func_14+0x1f61>
    ed3c:	90                   	nop
    ed3d:	0f b6 05 bc 03 01 00 	movzbl 0x103bc(%rip),%eax        # 1f100 <g_99>
    ed44:	83 c0 01             	add    $0x1,%eax
    ed47:	88 05 b3 03 01 00    	mov    %al,0x103b3(%rip)        # 1f100 <g_99>
    ed4d:	0f b6 05 ac 03 01 00 	movzbl 0x103ac(%rip),%eax        # 1f100 <g_99>
    ed54:	3c 1a                	cmp    $0x1a,%al
    ed56:	0f 8f 72 e8 ff ff    	jg     d5ce <func_14+0x7f2>
    ed5c:	0f b7 85 de f0 ff ff 	movzwl -0xf22(%rbp),%eax
    ed63:	48 8b 5d c8          	mov    -0x38(%rbp),%rbx
    ed67:	64 48 33 1c 25 28 00 	xor    %fs:0x28,%rbx
    ed6e:	00 00 
    ed70:	74 05                	je     ed77 <func_14+0x1f9b>
    ed72:	e8 f9 b2 ff ff       	callq  a070 <__stack_chk_fail@plt>
    ed77:	48 81 c4 18 0f 00 00 	add    $0xf18,%rsp
    ed7e:	5b                   	pop    %rbx
    ed7f:	41 5c                	pop    %r12
    ed81:	41 5d                	pop    %r13
    ed83:	41 5e                	pop    %r14
    ed85:	41 5f                	pop    %r15
    ed87:	5d                   	pop    %rbp
    ed88:	c3                   	retq   

000000000000ed89 <func_17>:
    ed89:	f3 0f 1e fa          	endbr64 
    ed8d:	55                   	push   %rbp
    ed8e:	48 89 e5             	mov    %rsp,%rbp
    ed91:	48 81 ec e0 01 00 00 	sub    $0x1e0,%rsp
    ed98:	89 f0                	mov    %esi,%eax
    ed9a:	89 d6                	mov    %edx,%esi
    ed9c:	48 89 8d 28 fe ff ff 	mov    %rcx,-0x1d8(%rbp)
    eda3:	44 89 c2             	mov    %r8d,%edx
    eda6:	89 f9                	mov    %edi,%ecx
    eda8:	88 8d 3c fe ff ff    	mov    %cl,-0x1c4(%rbp)
    edae:	66 89 85 38 fe ff ff 	mov    %ax,-0x1c8(%rbp)
    edb5:	89 f0                	mov    %esi,%eax
    edb7:	88 85 34 fe ff ff    	mov    %al,-0x1cc(%rbp)
    edbd:	89 d0                	mov    %edx,%eax
    edbf:	66 89 85 30 fe ff ff 	mov    %ax,-0x1d0(%rbp)
    edc6:	64 48 8b 04 25 28 00 	mov    %fs:0x28,%rax
    edcd:	00 00 
    edcf:	48 89 45 f8          	mov    %rax,-0x8(%rbp)
    edd3:	31 c0                	xor    %eax,%eax
    edd5:	48 c7 85 50 fe ff ff 	movq   $0x0,-0x1b0(%rbp)
    eddc:	00 00 00 00 
    ede0:	c7 85 50 fe ff ff 17 	movl   $0x6a4da417,-0x1b0(%rbp)
    ede7:	a4 4d 6a 
    edea:	48 8d 85 90 fe ff ff 	lea    -0x170(%rbp),%rax
    edf1:	48 8d 15 68 22 01 00 	lea    0x12268(%rip),%rdx        # 21060 <g_2057+0x17e0>
    edf8:	b9 2d 00 00 00       	mov    $0x2d,%ecx
    edfd:	48 89 c7             	mov    %rax,%rdi
    ee00:	48 89 d6             	mov    %rdx,%rsi
    ee03:	f3 48 a5             	rep movsq %ds:(%rsi),%es:(%rdi)
    ee06:	48 8d 85 90 fe ff ff 	lea    -0x170(%rbp),%rax
    ee0d:	48 05 38 01 00 00    	add    $0x138,%rax
    ee13:	48 89 85 58 fe ff ff 	mov    %rax,-0x1a8(%rbp)
    ee1a:	c7 85 4c fe ff ff 1b 	movl   $0x6894cd1b,-0x1b4(%rbp)
    ee21:	cd 94 68 
    ee24:	c7 85 60 fe ff ff ba 	movl   $0x3c0ec2ba,-0x1a0(%rbp)
    ee2b:	c2 0e 3c 
    ee2e:	c7 85 64 fe ff ff ba 	movl   $0x3c0ec2ba,-0x19c(%rbp)
    ee35:	c2 0e 3c 
    ee38:	c7 85 68 fe ff ff ba 	movl   $0x3c0ec2ba,-0x198(%rbp)
    ee3f:	c2 0e 3c 
    ee42:	c7 85 6c fe ff ff ba 	movl   $0x3c0ec2ba,-0x194(%rbp)
    ee49:	c2 0e 3c 
    ee4c:	c7 85 70 fe ff ff ba 	movl   $0x3c0ec2ba,-0x190(%rbp)
    ee53:	c2 0e 3c 
    ee56:	c7 85 74 fe ff ff ba 	movl   $0x3c0ec2ba,-0x18c(%rbp)
    ee5d:	c2 0e 3c 
    ee60:	c7 85 78 fe ff ff ba 	movl   $0x3c0ec2ba,-0x188(%rbp)
    ee67:	c2 0e 3c 
    ee6a:	c7 85 7c fe ff ff ba 	movl   $0x3c0ec2ba,-0x184(%rbp)
    ee71:	c2 0e 3c 
    ee74:	c7 85 80 fe ff ff ba 	movl   $0x3c0ec2ba,-0x180(%rbp)
    ee7b:	c2 0e 3c 
    ee7e:	48 8b 05 c3 35 01 00 	mov    0x135c3(%rip),%rax        # 22448 <g_1181>
    ee85:	8b 08                	mov    (%rax),%ecx
    ee87:	0f b7 95 30 fe ff ff 	movzwl -0x1d0(%rbp),%edx
    ee8e:	09 ca                	or     %ecx,%edx
    ee90:	89 10                	mov    %edx,(%rax)
    ee92:	48 8b 95 40 ff ff ff 	mov    -0xc0(%rbp),%rdx
    ee99:	48 8b 85 58 fe ff ff 	mov    -0x1a8(%rbp),%rax
    eea0:	48 89 10             	mov    %rdx,(%rax)
    eea3:	8b 85 50 fe ff ff    	mov    -0x1b0(%rbp),%eax
    eea9:	0f bf d0             	movswl %ax,%edx
    eeac:	0f b6 85 3c fe ff ff 	movzbl -0x1c4(%rbp),%eax
    eeb3:	89 d6                	mov    %edx,%esi
    eeb5:	89 c7                	mov    %eax,%edi
    eeb7:	e8 17 b5 ff ff       	callq  a3d3 <safe_sub_func_int16_t_s_s>
    eebc:	98                   	cwtl   
    eebd:	89 85 4c fe ff ff    	mov    %eax,-0x1b4(%rbp)
    eec3:	8b 85 50 fe ff ff    	mov    -0x1b0(%rbp),%eax
    eec9:	23 85 4c fe ff ff    	and    -0x1b4(%rbp),%eax
    eecf:	25 c0 70 46 af       	and    $0xaf4670c0,%eax
    eed4:	89 85 80 fe ff ff    	mov    %eax,-0x180(%rbp)
    eeda:	8b 85 50 fe ff ff    	mov    -0x1b0(%rbp),%eax
    eee0:	48 8b 75 f8          	mov    -0x8(%rbp),%rsi
    eee4:	64 48 33 34 25 28 00 	xor    %fs:0x28,%rsi
    eeeb:	00 00 
    eeed:	74 05                	je     eef4 <func_17+0x16b>
    eeef:	e8 7c b1 ff ff       	callq  a070 <__stack_chk_fail@plt>
    eef4:	c9                   	leaveq 
    eef5:	c3                   	retq   

000000000000eef6 <func_25>:
    eef6:	f3 0f 1e fa          	endbr64 
    eefa:	55                   	push   %rbp
    eefb:	48 89 e5             	mov    %rsp,%rbp
    eefe:	66 89 7d ee          	mov    %di,-0x12(%rbp)
    ef02:	48 89 75 e0          	mov    %rsi,-0x20(%rbp)
    ef06:	48 89 55 d8          	mov    %rdx,-0x28(%rbp)
    ef0a:	89 4d e8             	mov    %ecx,-0x18(%rbp)
    ef0d:	48 b8 52 e7 0a 6b de 	movabs $0xa2b135de6b0ae752,%rax
    ef14:	35 b1 a2 
    ef17:	48 89 45 f8          	mov    %rax,-0x8(%rbp)
    ef1b:	c7 45 f4 4b 44 05 f4 	movl   $0xf405444b,-0xc(%rbp)
    ef22:	48 8b 45 f8          	mov    -0x8(%rbp),%rax
    ef26:	89 45 f4             	mov    %eax,-0xc(%rbp)
    ef29:	48 8b 45 d8          	mov    -0x28(%rbp),%rax
    ef2d:	5d                   	pop    %rbp
    ef2e:	c3                   	retq   

000000000000ef2f <func_37>:
    ef2f:	f3 0f 1e fa          	endbr64 
    ef33:	55                   	push   %rbp
    ef34:	48 89 e5             	mov    %rsp,%rbp
    ef37:	41 57                	push   %r15
    ef39:	41 56                	push   %r14
    ef3b:	41 55                	push   %r13
    ef3d:	41 54                	push   %r12
    ef3f:	53                   	push   %rbx
    ef40:	48 81 ec b8 07 00 00 	sub    $0x7b8,%rsp
    ef47:	48 89 bd 38 f8 ff ff 	mov    %rdi,-0x7c8(%rbp)
    ef4e:	48 89 b5 30 f8 ff ff 	mov    %rsi,-0x7d0(%rbp)
    ef55:	64 48 8b 04 25 28 00 	mov    %fs:0x28,%rax
    ef5c:	00 00 
    ef5e:	48 89 45 c8          	mov    %rax,-0x38(%rbp)
    ef62:	31 c0                	xor    %eax,%eax
    ef64:	c7 85 60 f8 ff ff 5e 	movl   $0xcb2cea5e,-0x7a0(%rbp)
    ef6b:	ea 2c cb 
    ef6e:	48 8d 05 1b 31 01 00 	lea    0x1311b(%rip),%rax        # 22090 <g_192>
    ef75:	48 89 85 f8 f8 ff ff 	mov    %rax,-0x708(%rbp)
    ef7c:	48 c7 85 00 f9 ff ff 	movq   $0xfffffffffffffff6,-0x700(%rbp)
    ef83:	f6 ff ff ff 
    ef87:	c7 85 64 f8 ff ff 00 	movl   $0x0,-0x79c(%rbp)
    ef8e:	00 00 00 
    ef91:	c7 85 68 f8 ff ff bc 	movl   $0x375d80bc,-0x798(%rbp)
    ef98:	80 5d 37 
    ef9b:	c7 85 6c f8 ff ff f6 	movl   $0xfffffff6,-0x794(%rbp)
    efa2:	ff ff ff 
    efa5:	c7 85 e0 f9 ff ff f8 	movl   $0xfffffff8,-0x620(%rbp)
    efac:	ff ff ff 
    efaf:	c7 85 e4 f9 ff ff f8 	movl   $0xfffffff8,-0x61c(%rbp)
    efb6:	ff ff ff 
    efb9:	c7 85 e8 f9 ff ff f8 	movl   $0xfffffff8,-0x618(%rbp)
    efc0:	ff ff ff 
    efc3:	c7 85 ec f9 ff ff f8 	movl   $0xfffffff8,-0x614(%rbp)
    efca:	ff ff ff 
    efcd:	c7 85 f0 f9 ff ff f8 	movl   $0xfffffff8,-0x610(%rbp)
    efd4:	ff ff ff 
    efd7:	c7 85 f4 f9 ff ff f8 	movl   $0xfffffff8,-0x60c(%rbp)
    efde:	ff ff ff 
    efe1:	c7 85 f8 f9 ff ff f8 	movl   $0xfffffff8,-0x608(%rbp)
    efe8:	ff ff ff 
    efeb:	66 c7 85 52 f8 ff ff 	movw   $0x5,-0x7ae(%rbp)
    eff2:	05 00 
    eff4:	c6 85 4d f8 ff ff 01 	movb   $0x1,-0x7b3(%rbp)
    effb:	48 8d 05 0a 04 01 00 	lea    0x1040a(%rip),%rax        # 1f40c <g_704>
    f002:	48 89 85 08 f9 ff ff 	mov    %rax,-0x6f8(%rbp)
    f009:	48 c7 85 d8 f8 ff ff 	movq   $0x0,-0x728(%rbp)
    f010:	00 00 00 00 
    f014:	66 c7 85 5e f8 ff ff 	movw   $0x0,-0x7a2(%rbp)
    f01b:	00 00 
    f01d:	c7 85 a8 f8 ff ff fb 	movl   $0xfffffffb,-0x758(%rbp)
    f024:	ff ff ff 
    f027:	c7 85 ac f8 ff ff d9 	movl   $0xb6bcdad9,-0x754(%rbp)
    f02e:	da bc b6 
    f031:	c6 85 4e f8 ff ff 00 	movb   $0x0,-0x7b2(%rbp)
    f038:	48 8d 85 d8 f8 ff ff 	lea    -0x728(%rbp),%rax
    f03f:	48 89 85 10 f9 ff ff 	mov    %rax,-0x6f0(%rbp)
    f046:	c7 85 b0 f8 ff ff f6 	movl   $0xfffffff6,-0x750(%rbp)
    f04d:	ff ff ff 
    f050:	c7 85 9c f8 ff ff 00 	movl   $0x0,-0x764(%rbp)
    f057:	00 00 00 
    f05a:	eb 4a                	jmp    f0a6 <func_37+0x177>
    f05c:	c7 85 a0 f8 ff ff 00 	movl   $0x0,-0x760(%rbp)
    f063:	00 00 00 
    f066:	eb 2e                	jmp    f096 <func_37+0x167>
    f068:	8b 85 a0 f8 ff ff    	mov    -0x760(%rbp),%eax
    f06e:	48 63 d0             	movslq %eax,%rdx
    f071:	8b 85 9c f8 ff ff    	mov    -0x764(%rbp),%eax
    f077:	48 98                	cltq   
    f079:	48 01 d0             	add    %rdx,%rax
    f07c:	48 8d 95 e0 f9 ff ff 	lea    -0x620(%rbp),%rdx
    f083:	48 83 c2 04          	add    $0x4,%rdx
    f087:	48 89 94 c5 c8 f9 ff 	mov    %rdx,-0x638(%rbp,%rax,8)
    f08e:	ff 
    f08f:	83 85 a0 f8 ff ff 01 	addl   $0x1,-0x760(%rbp)
    f096:	83 bd a0 f8 ff ff 00 	cmpl   $0x0,-0x760(%rbp)
    f09d:	7e c9                	jle    f068 <func_37+0x139>
    f09f:	83 85 9c f8 ff ff 01 	addl   $0x1,-0x764(%rbp)
    f0a6:	83 bd 9c f8 ff ff 00 	cmpl   $0x0,-0x764(%rbp)
    f0ad:	7e ad                	jle    f05c <func_37+0x12d>
    f0af:	0f b6 05 78 01 01 00 	movzbl 0x10178(%rip),%eax        # 1f22e <g_556>
    f0b6:	0f be c0             	movsbl %al,%eax
    f0b9:	be 04 00 00 00       	mov    $0x4,%esi
    f0be:	89 c7                	mov    %eax,%edi
    f0c0:	e8 29 b2 ff ff       	callq  a2ee <safe_lshift_func_int8_t_s_u>
    f0c5:	84 c0                	test   %al,%al
    f0c7:	74 1c                	je     f0e5 <func_37+0x1b6>
    f0c9:	c7 85 d4 f8 ff ff 01 	movl   $0x1,-0x72c(%rbp)
    f0d0:	00 00 00 
    f0d3:	83 ad d4 f8 ff ff 01 	subl   $0x1,-0x72c(%rbp)
    f0da:	8b 85 d4 f8 ff ff    	mov    -0x72c(%rbp),%eax
    f0e0:	e9 cc 1c 00 00       	jmpq   10db1 <func_37+0x1e82>
    f0e5:	c7 85 b4 f8 ff ff 9b 	movl   $0x253da49b,-0x74c(%rbp)
    f0ec:	a4 3d 25 
    f0ef:	c7 85 70 f8 ff ff 49 	movl   $0x5cc11b49,-0x790(%rbp)
    f0f6:	1b c1 5c 
    f0f9:	48 8d 05 93 03 01 00 	lea    0x10393(%rip),%rax        # 1f493 <g_935+0x3>
    f100:	48 89 85 18 f9 ff ff 	mov    %rax,-0x6e8(%rbp)
    f107:	48 8d 05 92 2f 01 00 	lea    0x12f92(%rip),%rax        # 220a0 <g_447>
    f10e:	48 89 85 d0 f9 ff ff 	mov    %rax,-0x630(%rbp)
    f115:	48 c7 85 e0 f8 ff ff 	movq   $0x0,-0x720(%rbp)
    f11c:	00 00 00 00 
    f120:	c7 85 e0 f8 ff ff 01 	movl   $0x1,-0x720(%rbp)
    f127:	00 00 00 
    f12a:	48 c7 85 20 f9 ff ff 	movq   $0x0,-0x6e0(%rbp)
    f131:	00 00 00 00 
    f135:	66 c7 85 54 f8 ff ff 	movw   $0x6bd8,-0x7ac(%rbp)
    f13c:	d8 6b 
    f13e:	c7 85 a4 f8 ff ff 00 	movl   $0x0,-0x75c(%rbp)
    f145:	00 00 00 
    f148:	eb 1b                	jmp    f165 <func_37+0x236>
    f14a:	8b 85 a4 f8 ff ff    	mov    -0x75c(%rbp),%eax
    f150:	48 98                	cltq   
    f152:	48 c7 84 c5 00 fa ff 	movq   $0x0,-0x600(%rbp,%rax,8)
    f159:	ff 00 00 00 00 
    f15e:	83 85 a4 f8 ff ff 01 	addl   $0x1,-0x75c(%rbp)
    f165:	83 bd a4 f8 ff ff 03 	cmpl   $0x3,-0x75c(%rbp)
    f16c:	7e dc                	jle    f14a <func_37+0x21b>
    f16e:	90                   	nop
    f16f:	f3 0f 1e fa          	endbr64 
    f173:	8b 85 60 f8 ff ff    	mov    -0x7a0(%rbp),%eax
    f179:	85 c0                	test   %eax,%eax
    f17b:	0f 84 d9 03 00 00    	je     f55a <func_37+0x62b>
    f181:	c7 85 bc f8 ff ff fc 	movl   $0xfffffffc,-0x744(%rbp)
    f188:	ff ff ff 
    f18b:	66 c7 85 56 f8 ff ff 	movw   $0xd784,-0x7aa(%rbp)
    f192:	84 d7 
    f194:	c7 85 8c f8 ff ff 00 	movl   $0x0,-0x774(%rbp)
    f19b:	00 00 00 
    f19e:	eb 1b                	jmp    f1bb <func_37+0x28c>
    f1a0:	8b 85 8c f8 ff ff    	mov    -0x774(%rbp),%eax
    f1a6:	48 98                	cltq   
    f1a8:	48 c7 84 c5 20 fa ff 	movq   $0x0,-0x5e0(%rbp,%rax,8)
    f1af:	ff 00 00 00 00 
    f1b4:	83 85 8c f8 ff ff 01 	addl   $0x1,-0x774(%rbp)
    f1bb:	83 bd 8c f8 ff ff 02 	cmpl   $0x2,-0x774(%rbp)
    f1c2:	7e dc                	jle    f1a0 <func_37+0x271>
    f1c4:	48 c7 05 a1 ff 00 00 	movq   $0x0,0xffa1(%rip)        # 1f170 <g_215>
    f1cb:	00 00 00 00 
    f1cf:	e9 70 03 00 00       	jmpq   f544 <func_37+0x615>
    f1d4:	48 8d 05 a3 02 01 00 	lea    0x102a3(%rip),%rax        # 1f47e <g_932+0x6>
    f1db:	48 89 85 e8 f8 ff ff 	mov    %rax,-0x718(%rbp)
    f1e2:	48 c7 05 2b ff 00 00 	movq   $0x0,0xff2b(%rip)        # 1f118 <g_121>
    f1e9:	00 00 00 00 
    f1ed:	e9 2c 03 00 00       	jmpq   f51e <func_37+0x5ef>
    f1f2:	c6 85 51 f8 ff ff fe 	movb   $0xfe,-0x7af(%rbp)
    f1f9:	c7 85 c0 f8 ff ff d3 	movl   $0x98aa0dd3,-0x740(%rbp)
    f200:	0d aa 98 
    f203:	83 bd bc f8 ff ff 00 	cmpl   $0x0,-0x744(%rbp)
    f20a:	74 46                	je     f252 <func_37+0x323>
    f20c:	80 bd 51 f8 ff ff 00 	cmpb   $0x0,-0x7af(%rbp)
    f213:	0f 85 18 03 00 00    	jne    f531 <func_37+0x602>
    f219:	48 8b 05 68 2e 01 00 	mov    0x12e68(%rip),%rax        # 22088 <g_193>
    f220:	48 c7 00 00 00 00 00 	movq   $0x0,(%rax)
    f227:	8b 85 b4 f8 ff ff    	mov    -0x74c(%rbp),%eax
    f22d:	0f be c0             	movsbl %al,%eax
    f230:	be 06 00 00 00       	mov    $0x6,%esi
    f235:	89 c7                	mov    %eax,%edi
    f237:	e8 98 af ff ff       	callq  a1d4 <safe_add_func_int8_t_s_s>
    f23c:	0f be d0             	movsbl %al,%edx
    f23f:	8b 85 70 f8 ff ff    	mov    -0x790(%rbp),%eax
    f245:	09 d0                	or     %edx,%eax
    f247:	89 85 70 f8 ff ff    	mov    %eax,-0x790(%rbp)
    f24d:	e9 ac 02 00 00       	jmpq   f4fe <func_37+0x5cf>
    f252:	48 8d 85 e8 f8 ff ff 	lea    -0x718(%rbp),%rax
    f259:	48 89 85 10 fb ff ff 	mov    %rax,-0x4f0(%rbp)
    f260:	48 8d 85 e8 f8 ff ff 	lea    -0x718(%rbp),%rax
    f267:	48 89 85 18 fb ff ff 	mov    %rax,-0x4e8(%rbp)
    f26e:	48 8d 85 e8 f8 ff ff 	lea    -0x718(%rbp),%rax
    f275:	48 89 85 20 fb ff ff 	mov    %rax,-0x4e0(%rbp)
    f27c:	48 8d 85 e8 f8 ff ff 	lea    -0x718(%rbp),%rax
    f283:	48 89 85 28 fb ff ff 	mov    %rax,-0x4d8(%rbp)
    f28a:	48 8d 85 e8 f8 ff ff 	lea    -0x718(%rbp),%rax
    f291:	48 89 85 30 fb ff ff 	mov    %rax,-0x4d0(%rbp)
    f298:	48 8d 85 e8 f8 ff ff 	lea    -0x718(%rbp),%rax
    f29f:	48 89 85 38 fb ff ff 	mov    %rax,-0x4c8(%rbp)
    f2a6:	48 8d 85 e8 f8 ff ff 	lea    -0x718(%rbp),%rax
    f2ad:	48 89 85 40 fb ff ff 	mov    %rax,-0x4c0(%rbp)
    f2b4:	48 8d 85 e8 f8 ff ff 	lea    -0x718(%rbp),%rax
    f2bb:	48 89 85 48 fb ff ff 	mov    %rax,-0x4b8(%rbp)
    f2c2:	48 8d 85 e8 f8 ff ff 	lea    -0x718(%rbp),%rax
    f2c9:	48 89 85 50 fb ff ff 	mov    %rax,-0x4b0(%rbp)
    f2d0:	48 8d 85 e8 f8 ff ff 	lea    -0x718(%rbp),%rax
    f2d7:	48 89 85 58 fb ff ff 	mov    %rax,-0x4a8(%rbp)
    f2de:	48 8d 85 e8 f8 ff ff 	lea    -0x718(%rbp),%rax
    f2e5:	48 89 85 60 fb ff ff 	mov    %rax,-0x4a0(%rbp)
    f2ec:	48 8d 85 e8 f8 ff ff 	lea    -0x718(%rbp),%rax
    f2f3:	48 89 85 68 fb ff ff 	mov    %rax,-0x498(%rbp)
    f2fa:	48 8d 85 e8 f8 ff ff 	lea    -0x718(%rbp),%rax
    f301:	48 89 85 70 fb ff ff 	mov    %rax,-0x490(%rbp)
    f308:	48 8d 85 e8 f8 ff ff 	lea    -0x718(%rbp),%rax
    f30f:	48 89 85 78 fb ff ff 	mov    %rax,-0x488(%rbp)
    f316:	48 8d 85 e8 f8 ff ff 	lea    -0x718(%rbp),%rax
    f31d:	48 89 85 80 fb ff ff 	mov    %rax,-0x480(%rbp)
    f324:	48 8d 85 e8 f8 ff ff 	lea    -0x718(%rbp),%rax
    f32b:	48 89 85 88 fb ff ff 	mov    %rax,-0x478(%rbp)
    f332:	48 8d 85 e8 f8 ff ff 	lea    -0x718(%rbp),%rax
    f339:	48 89 85 90 fb ff ff 	mov    %rax,-0x470(%rbp)
    f340:	48 8d 85 e8 f8 ff ff 	lea    -0x718(%rbp),%rax
    f347:	48 89 85 98 fb ff ff 	mov    %rax,-0x468(%rbp)
    f34e:	48 8d 85 e8 f8 ff ff 	lea    -0x718(%rbp),%rax
    f355:	48 89 85 a0 fb ff ff 	mov    %rax,-0x460(%rbp)
    f35c:	48 8d 85 e8 f8 ff ff 	lea    -0x718(%rbp),%rax
    f363:	48 89 85 a8 fb ff ff 	mov    %rax,-0x458(%rbp)
    f36a:	48 8d 85 e8 f8 ff ff 	lea    -0x718(%rbp),%rax
    f371:	48 89 85 b0 fb ff ff 	mov    %rax,-0x450(%rbp)
    f378:	48 8d 85 e8 f8 ff ff 	lea    -0x718(%rbp),%rax
    f37f:	48 89 85 b8 fb ff ff 	mov    %rax,-0x448(%rbp)
    f386:	48 8d 85 e8 f8 ff ff 	lea    -0x718(%rbp),%rax
    f38d:	48 89 85 c0 fb ff ff 	mov    %rax,-0x440(%rbp)
    f394:	48 8d 85 e8 f8 ff ff 	lea    -0x718(%rbp),%rax
    f39b:	48 89 85 c8 fb ff ff 	mov    %rax,-0x438(%rbp)
    f3a2:	48 8d 85 e8 f8 ff ff 	lea    -0x718(%rbp),%rax
    f3a9:	48 89 85 d0 fb ff ff 	mov    %rax,-0x430(%rbp)
    f3b0:	48 8d 85 e8 f8 ff ff 	lea    -0x718(%rbp),%rax
    f3b7:	48 89 85 d8 fb ff ff 	mov    %rax,-0x428(%rbp)
    f3be:	48 8d 85 e8 f8 ff ff 	lea    -0x718(%rbp),%rax
    f3c5:	48 89 85 e0 fb ff ff 	mov    %rax,-0x420(%rbp)
    f3cc:	48 8d 85 e8 f8 ff ff 	lea    -0x718(%rbp),%rax
    f3d3:	48 89 85 e8 fb ff ff 	mov    %rax,-0x418(%rbp)
    f3da:	48 8d 85 e8 f8 ff ff 	lea    -0x718(%rbp),%rax
    f3e1:	48 89 85 f0 fb ff ff 	mov    %rax,-0x410(%rbp)
    f3e8:	48 8d 85 e8 f8 ff ff 	lea    -0x718(%rbp),%rax
    f3ef:	48 89 85 f8 fb ff ff 	mov    %rax,-0x408(%rbp)
    f3f6:	48 8d 85 e8 f8 ff ff 	lea    -0x718(%rbp),%rax
    f3fd:	48 89 85 00 fc ff ff 	mov    %rax,-0x400(%rbp)
    f404:	48 8d 85 e8 f8 ff ff 	lea    -0x718(%rbp),%rax
    f40b:	48 89 85 08 fc ff ff 	mov    %rax,-0x3f8(%rbp)
    f412:	48 8d 05 df fc 00 00 	lea    0xfcdf(%rip),%rax        # 1f0f8 <g_98>
    f419:	48 89 85 50 f9 ff ff 	mov    %rax,-0x6b0(%rbp)
    f420:	c7 85 c4 f8 ff ff fd 	movl   $0xfffffffd,-0x73c(%rbp)
    f427:	ff ff ff 
    f42a:	48 8d 85 60 f8 ff ff 	lea    -0x7a0(%rbp),%rax
    f431:	48 89 85 58 f9 ff ff 	mov    %rax,-0x6a8(%rbp)
    f438:	48 c7 85 30 fa ff ff 	movq   $0x0,-0x5d0(%rbp)
    f43f:	00 00 00 00 
    f443:	48 8b 85 e8 f8 ff ff 	mov    -0x718(%rbp),%rax
    f44a:	48 89 85 18 f9 ff ff 	mov    %rax,-0x6e8(%rbp)
    f451:	48 8b 85 18 f9 ff ff 	mov    -0x6e8(%rbp),%rax
    f458:	48 89 05 89 2c 01 00 	mov    %rax,0x12c89(%rip)        # 220e8 <g_880>
    f45f:	66 83 bd 56 f8 ff ff 	cmpw   $0x0,-0x7aa(%rbp)
    f466:	00 
    f467:	74 7c                	je     f4e5 <func_37+0x5b6>
    f469:	8b 95 c4 f8 ff ff    	mov    -0x73c(%rbp),%edx
    f46f:	c7 85 c0 f8 ff ff ca 	movl   $0x7c8624ca,-0x740(%rbp)
    f476:	24 86 7c 
    f479:	48 8b 85 50 f9 ff ff 	mov    -0x6b0(%rbp),%rax
    f480:	48 8b 08             	mov    (%rax),%rcx
    f483:	48 8b 05 16 2c 01 00 	mov    0x12c16(%rip),%rax        # 220a0 <g_447>
    f48a:	48 8b 00             	mov    (%rax),%rax
    f48d:	48 21 c1             	and    %rax,%rcx
    f490:	48 8b 85 50 f9 ff ff 	mov    -0x6b0(%rbp),%rax
    f497:	48 89 08             	mov    %rcx,(%rax)
    f49a:	48 8b 85 50 f9 ff ff 	mov    -0x6b0(%rbp),%rax
    f4a1:	48 8b 00             	mov    (%rax),%rax
    f4a4:	48 3d ca 24 86 7c    	cmp    $0x7c8624ca,%rax
    f4aa:	7f 07                	jg     f4b3 <func_37+0x584>
    f4ac:	b8 01 00 00 00       	mov    $0x1,%eax
    f4b1:	eb 05                	jmp    f4b8 <func_37+0x589>
    f4b3:	b8 00 00 00 00       	mov    $0x0,%eax
    f4b8:	98                   	cwtl   
    f4b9:	89 d6                	mov    %edx,%esi
    f4bb:	89 c7                	mov    %eax,%edi
    f4bd:	e8 a1 b0 ff ff       	callq  a563 <safe_rshift_func_int16_t_s_u>
    f4c2:	48 8b 85 68 fb ff ff 	mov    -0x498(%rbp),%rax
    f4c9:	48 8d 15 c8 f5 00 00 	lea    0xf5c8(%rip),%rdx        # 1ea98 <g_561+0x3b8>
    f4d0:	48 39 d0             	cmp    %rdx,%rax
    f4d3:	74 10                	je     f4e5 <func_37+0x5b6>
    f4d5:	80 bd 51 f8 ff ff 00 	cmpb   $0x0,-0x7af(%rbp)
    f4dc:	74 07                	je     f4e5 <func_37+0x5b6>
    f4de:	ba 01 00 00 00       	mov    $0x1,%edx
    f4e3:	eb 05                	jmp    f4ea <func_37+0x5bb>
    f4e5:	ba 00 00 00 00       	mov    $0x0,%edx
    f4ea:	48 8b 85 58 f9 ff ff 	mov    -0x6a8(%rbp),%rax
    f4f1:	8b 00                	mov    (%rax),%eax
    f4f3:	31 c2                	xor    %eax,%edx
    f4f5:	48 8b 85 58 f9 ff ff 	mov    -0x6a8(%rbp),%rax
    f4fc:	89 10                	mov    %edx,(%rax)
    f4fe:	48 8b 05 13 fc 00 00 	mov    0xfc13(%rip),%rax        # 1f118 <g_121>
    f505:	0f b6 c0             	movzbl %al,%eax
    f508:	be 05 00 00 00       	mov    $0x5,%esi
    f50d:	89 c7                	mov    %eax,%edi
    f50f:	e8 46 b6 ff ff       	callq  ab5a <safe_add_func_uint8_t_u_u>
    f514:	0f b6 c0             	movzbl %al,%eax
    f517:	48 89 05 fa fb 00 00 	mov    %rax,0xfbfa(%rip)        # 1f118 <g_121>
    f51e:	48 8b 05 f3 fb 00 00 	mov    0xfbf3(%rip),%rax        # 1f118 <g_121>
    f525:	48 83 f8 10          	cmp    $0x10,%rax
    f529:	0f 8f c3 fc ff ff    	jg     f1f2 <func_37+0x2c3>
    f52f:	eb 01                	jmp    f532 <func_37+0x603>
    f531:	90                   	nop
    f532:	48 8b 05 37 fc 00 00 	mov    0xfc37(%rip),%rax        # 1f170 <g_215>
    f539:	48 83 c0 01          	add    $0x1,%rax
    f53d:	48 89 05 2c fc 00 00 	mov    %rax,0xfc2c(%rip)        # 1f170 <g_215>
    f544:	48 8b 05 25 fc 00 00 	mov    0xfc25(%rip),%rax        # 1f170 <g_215>
    f54b:	48 83 f8 08          	cmp    $0x8,%rax
    f54f:	0f 84 7f fc ff ff    	je     f1d4 <func_37+0x2a5>
    f555:	e9 2e 04 00 00       	jmpq   f988 <func_37+0xa59>
    f55a:	c6 85 4f f8 ff ff fa 	movb   $0xfa,-0x7b1(%rbp)
    f561:	48 c7 85 e8 f8 ff ff 	movq   $0x0,-0x718(%rbp)
    f568:	00 00 00 00 
    f56c:	48 8d 85 e8 f8 ff ff 	lea    -0x718(%rbp),%rax
    f573:	48 89 85 28 f9 ff ff 	mov    %rax,-0x6d8(%rbp)
    f57a:	c7 85 90 f8 ff ff d9 	movl   $0x4d807ad9,-0x770(%rbp)
    f581:	7a 80 4d 
    f584:	c7 85 94 f8 ff ff 00 	movl   $0x0,-0x76c(%rbp)
    f58b:	00 00 00 
    f58e:	eb 49                	jmp    f5d9 <func_37+0x6aa>
    f590:	c7 85 98 f8 ff ff 00 	movl   $0x0,-0x768(%rbp)
    f597:	00 00 00 
    f59a:	eb 2d                	jmp    f5c9 <func_37+0x69a>
    f59c:	8b 85 98 f8 ff ff    	mov    -0x768(%rbp),%eax
    f5a2:	48 98                	cltq   
    f5a4:	8b 95 94 f8 ff ff    	mov    -0x76c(%rbp),%edx
    f5aa:	48 63 d2             	movslq %edx,%rdx
    f5ad:	48 01 d2             	add    %rdx,%rdx
    f5b0:	48 01 d0             	add    %rdx,%rax
    f5b3:	48 8d 15 e8 fb 00 00 	lea    0xfbe8(%rip),%rdx        # 1f1a2 <g_256+0x22>
    f5ba:	48 89 94 c5 20 fa ff 	mov    %rdx,-0x5e0(%rbp,%rax,8)
    f5c1:	ff 
    f5c2:	83 85 98 f8 ff ff 01 	addl   $0x1,-0x768(%rbp)
    f5c9:	83 bd 98 f8 ff ff 01 	cmpl   $0x1,-0x768(%rbp)
    f5d0:	7e ca                	jle    f59c <func_37+0x66d>
    f5d2:	83 85 94 f8 ff ff 01 	addl   $0x1,-0x76c(%rbp)
    f5d9:	83 bd 94 f8 ff ff 02 	cmpl   $0x2,-0x76c(%rbp)
    f5e0:	7e ae                	jle    f590 <func_37+0x661>
    f5e2:	66 c7 05 85 fe 00 00 	movw   $0xffea,0xfe85(%rip)        # 1f470 <g_874>
    f5e9:	ea ff 
    f5eb:	e9 87 03 00 00       	jmpq   f977 <func_37+0xa48>
    f5f0:	48 8d 05 01 fe 00 00 	lea    0xfe01(%rip),%rax        # 1f3f8 <g_623>
    f5f7:	48 89 85 30 f9 ff ff 	mov    %rax,-0x6d0(%rbp)
    f5fe:	c7 85 b8 f8 ff ff 01 	movl   $0x7723f101,-0x748(%rbp)
    f605:	f1 23 77 
    f608:	c7 85 10 fb ff ff 45 	movl   $0xbce67245,-0x4f0(%rbp)
    f60f:	72 e6 bc 
    f612:	c7 85 14 fb ff ff fe 	movl   $0xfffffffe,-0x4ec(%rbp)
    f619:	ff ff ff 
    f61c:	c7 85 18 fb ff ff 45 	movl   $0xbce67245,-0x4e8(%rbp)
    f623:	72 e6 bc 
    f626:	c7 85 1c fb ff ff fe 	movl   $0xfffffffe,-0x4e4(%rbp)
    f62d:	ff ff ff 
    f630:	c7 85 20 fb ff ff 45 	movl   $0xbce67245,-0x4e0(%rbp)
    f637:	72 e6 bc 
    f63a:	c7 85 24 fb ff ff fe 	movl   $0xfffffffe,-0x4dc(%rbp)
    f641:	ff ff ff 
    f644:	c7 85 28 fb ff ff 45 	movl   $0xbce67245,-0x4d8(%rbp)
    f64b:	72 e6 bc 
    f64e:	c7 85 2c fb ff ff fe 	movl   $0xfffffffe,-0x4d4(%rbp)
    f655:	ff ff ff 
    f658:	c7 85 30 fb ff ff 45 	movl   $0xbce67245,-0x4d0(%rbp)
    f65f:	72 e6 bc 
    f662:	c7 85 34 fb ff ff fe 	movl   $0xfffffffe,-0x4cc(%rbp)
    f669:	ff ff ff 
    f66c:	c7 85 38 fb ff ff 45 	movl   $0xbce67245,-0x4c8(%rbp)
    f673:	72 e6 bc 
    f676:	c7 85 3c fb ff ff fe 	movl   $0xfffffffe,-0x4c4(%rbp)
    f67d:	ff ff ff 
    f680:	c7 85 40 fb ff ff 45 	movl   $0xbce67245,-0x4c0(%rbp)
    f687:	72 e6 bc 
    f68a:	c7 85 44 fb ff ff fe 	movl   $0xfffffffe,-0x4bc(%rbp)
    f691:	ff ff ff 
    f694:	c7 85 48 fb ff ff 45 	movl   $0xbce67245,-0x4b8(%rbp)
    f69b:	72 e6 bc 
    f69e:	c7 85 4c fb ff ff fe 	movl   $0xfffffffe,-0x4b4(%rbp)
    f6a5:	ff ff ff 
    f6a8:	48 8b 85 30 f8 ff ff 	mov    -0x7d0(%rbp),%rax
    f6af:	0f b6 00             	movzbl (%rax),%eax
    f6b2:	0f be d8             	movsbl %al,%ebx
    f6b5:	80 bd 4f f8 ff ff 00 	cmpb   $0x0,-0x7b1(%rbp)
    f6bc:	75 25                	jne    f6e3 <func_37+0x7b4>
    f6be:	48 8b 85 00 fa ff ff 	mov    -0x600(%rbp),%rax
    f6c5:	48 39 85 f8 f8 ff ff 	cmp    %rax,-0x708(%rbp)
    f6cc:	0f 94 c0             	sete   %al
    f6cf:	0f b6 c0             	movzbl %al,%eax
    f6d2:	be 07 00 00 00       	mov    $0x7,%esi
    f6d7:	89 c7                	mov    %eax,%edi
    f6d9:	e8 9c b7 ff ff       	callq  ae7a <safe_rshift_func_uint16_t_u_u>
    f6de:	66 85 c0             	test   %ax,%ax
    f6e1:	74 07                	je     f6ea <func_37+0x7bb>
    f6e3:	b8 01 00 00 00       	mov    $0x1,%eax
    f6e8:	eb 05                	jmp    f6ef <func_37+0x7c0>
    f6ea:	b8 00 00 00 00       	mov    $0x0,%eax
    f6ef:	85 c0                	test   %eax,%eax
    f6f1:	0f 9e c0             	setle  %al
    f6f4:	44 0f b6 e0          	movzbl %al,%r12d
    f6f8:	8b 05 d2 f9 00 00    	mov    0xf9d2(%rip),%eax        # 1f0d0 <g_10>
    f6fe:	48 98                	cltq   
    f700:	be 00 00 00 00       	mov    $0x0,%esi
    f705:	48 89 c7             	mov    %rax,%rdi
    f708:	e8 21 b9 ff ff       	callq  b02e <safe_add_func_uint64_t_u_u>
    f70d:	49 39 c4             	cmp    %rax,%r12
    f710:	0f 96 c0             	setbe  %al
    f713:	f7 d0                	not    %eax
    f715:	89 c2                	mov    %eax,%edx
    f717:	8b 85 b8 f8 ff ff    	mov    -0x748(%rbp),%eax
    f71d:	09 d0                	or     %edx,%eax
    f71f:	0f be c0             	movsbl %al,%eax
    f722:	89 de                	mov    %ebx,%esi
    f724:	89 c7                	mov    %eax,%edi
    f726:	e8 a9 aa ff ff       	callq  a1d4 <safe_add_func_int8_t_s_s>
    f72b:	48 b8 b1 8e 86 15 c8 	movabs $0xb02116c815868eb1,%rax
    f732:	16 21 b0 
    f735:	89 c2                	mov    %eax,%edx
    f737:	8b 85 90 f8 ff ff    	mov    -0x770(%rbp),%eax
    f73d:	31 d0                	xor    %edx,%eax
    f73f:	89 85 90 f8 ff ff    	mov    %eax,-0x770(%rbp)
    f745:	48 c7 05 a8 f9 00 00 	movq   $0x0,0xf9a8(%rip)        # 1f0f8 <g_98>
    f74c:	00 00 00 00 
    f750:	e9 fd 01 00 00       	jmpq   f952 <func_37+0xa23>
    f755:	48 8d 05 10 fd 00 00 	lea    0xfd10(%rip),%rax        # 1f46c <g_799+0xc>
    f75c:	48 89 85 38 f9 ff ff 	mov    %rax,-0x6c8(%rbp)
    f763:	48 8d 05 a0 f9 00 00 	lea    0xf9a0(%rip),%rax        # 1f10a <g_114+0x2>
    f76a:	48 89 85 40 f9 ff ff 	mov    %rax,-0x6c0(%rbp)
    f771:	c6 85 50 f8 ff ff a4 	movb   $0xa4,-0x7b0(%rbp)
    f778:	48 8d 85 20 fa ff ff 	lea    -0x5e0(%rbp),%rax
    f77f:	48 83 c0 20          	add    $0x20,%rax
    f783:	48 89 85 48 f9 ff ff 	mov    %rax,-0x6b8(%rbp)
    f78a:	48 b8 78 51 21 e7 95 	movabs $0x8cc78f95e7215178,%rax
    f791:	8f c7 8c 
    f794:	89 85 2c f8 ff ff    	mov    %eax,-0x7d4(%rbp)
    f79a:	8b 85 b8 f8 ff ff    	mov    -0x748(%rbp),%eax
    f7a0:	0f be d8             	movsbl %al,%ebx
    f7a3:	8b 85 b8 f8 ff ff    	mov    -0x748(%rbp),%eax
    f7a9:	44 0f be e0          	movsbl %al,%r12d
    f7ad:	44 8b ad b8 f8 ff ff 	mov    -0x748(%rbp),%r13d
    f7b4:	8b 85 b8 f8 ff ff    	mov    -0x748(%rbp),%eax
    f7ba:	44 0f b7 f0          	movzwl %ax,%r14d
    f7be:	48 8b 85 38 f8 ff ff 	mov    -0x7c8(%rbp),%rax
    f7c5:	0f b6 00             	movzbl (%rax),%eax
    f7c8:	8d 50 ff             	lea    -0x1(%rax),%edx
    f7cb:	48 8b 85 38 f8 ff ff 	mov    -0x7c8(%rbp),%rax
    f7d2:	88 10                	mov    %dl,(%rax)
    f7d4:	48 8b 85 38 f8 ff ff 	mov    -0x7c8(%rbp),%rax
    f7db:	0f b6 00             	movzbl (%rax),%eax
    f7de:	0f b6 c0             	movzbl %al,%eax
    f7e1:	89 85 28 f8 ff ff    	mov    %eax,-0x7d8(%rbp)
    f7e7:	48 8b 85 38 f9 ff ff 	mov    -0x6c8(%rbp),%rax
    f7ee:	44 8b 38             	mov    (%rax),%r15d
    f7f1:	48 8b 85 00 f9 ff ff 	mov    -0x700(%rbp),%rax
    f7f8:	83 c8 01             	or     $0x1,%eax
    f7fb:	0f bf d0             	movswl %ax,%edx
    f7fe:	0f be 85 4f f8 ff ff 	movsbl -0x7b1(%rbp),%eax
    f805:	89 d6                	mov    %edx,%esi
    f807:	89 c7                	mov    %eax,%edi
    f809:	e8 c5 ab ff ff       	callq  a3d3 <safe_sub_func_int16_t_s_s>
    f80e:	98                   	cwtl   
    f80f:	44 89 fe             	mov    %r15d,%esi
    f812:	89 c7                	mov    %eax,%edi
    f814:	e8 79 ac ff ff       	callq  a492 <safe_lshift_func_int16_t_s_s>
    f819:	66 85 c0             	test   %ax,%ax
    f81c:	74 0c                	je     f82a <func_37+0x8fb>
    f81e:	0f b6 05 86 fa 00 00 	movzbl 0xfa86(%rip),%eax        # 1f2ab <g_578>
    f825:	83 e0 7f             	and    $0x7f,%eax
    f828:	84 c0                	test   %al,%al
    f82a:	48 8d 05 7f 28 01 00 	lea    0x1287f(%rip),%rax        # 220b0 <g_515>
    f831:	48 8b 00             	mov    (%rax),%rax
    f834:	0f b7 00             	movzwl (%rax),%eax
    f837:	66 85 c0             	test   %ax,%ax
    f83a:	0f 94 c0             	sete   %al
    f83d:	0f b6 d0             	movzbl %al,%edx
    f840:	0f b6 05 7c fa 00 00 	movzbl 0xfa7c(%rip),%eax        # 1f2c3 <g_587>
    f847:	83 e0 7f             	and    $0x7f,%eax
    f84a:	0f b6 c0             	movzbl %al,%eax
    f84d:	09 d0                	or     %edx,%eax
    f84f:	85 c0                	test   %eax,%eax
    f851:	75 0c                	jne    f85f <func_37+0x930>
    f853:	48 8b 05 9e f8 00 00 	mov    0xf89e(%rip),%rax        # 1f0f8 <g_98>
    f85a:	48 85 c0             	test   %rax,%rax
    f85d:	74 07                	je     f866 <func_37+0x937>
    f85f:	b8 01 00 00 00       	mov    $0x1,%eax
    f864:	eb 05                	jmp    f86b <func_37+0x93c>
    f866:	b8 00 00 00 00       	mov    $0x0,%eax
    f86b:	3b 85 28 f8 ff ff    	cmp    -0x7d8(%rbp),%eax
    f871:	7c 07                	jl     f87a <func_37+0x94b>
    f873:	b8 17 00 00 00       	mov    $0x17,%eax
    f878:	eb 05                	jmp    f87f <func_37+0x950>
    f87a:	b8 16 00 00 00       	mov    $0x16,%eax
    f87f:	44 89 f6             	mov    %r14d,%esi
    f882:	89 c7                	mov    %eax,%edi
    f884:	e8 05 b5 ff ff       	callq  ad8e <safe_div_func_uint16_t_u_u>
    f889:	0f b6 c0             	movzbl %al,%eax
    f88c:	44 89 ee             	mov    %r13d,%esi
    f88f:	89 c7                	mov    %eax,%edi
    f891:	e8 b6 b3 ff ff       	callq  ac4c <safe_lshift_func_uint8_t_u_u>
    f896:	0f be c0             	movsbl %al,%eax
    f899:	44 89 e6             	mov    %r12d,%esi
    f89c:	89 c7                	mov    %eax,%edi
    f89e:	e8 31 a9 ff ff       	callq  a1d4 <safe_add_func_int8_t_s_s>
    f8a3:	48 83 bd 38 f9 ff ff 	cmpq   $0x0,-0x6c8(%rbp)
    f8aa:	00 
    f8ab:	0f 94 c0             	sete   %al
    f8ae:	0f b6 d0             	movzbl %al,%edx
    f8b1:	80 bd 50 f8 ff ff 0c 	cmpb   $0xc,-0x7b0(%rbp)
    f8b8:	0f 96 c0             	setbe  %al
    f8bb:	0f b6 c0             	movzbl %al,%eax
    f8be:	39 c2                	cmp    %eax,%edx
    f8c0:	0f 9f c0             	setg   %al
    f8c3:	0f b6 c0             	movzbl %al,%eax
    f8c6:	89 de                	mov    %ebx,%esi
    f8c8:	89 c7                	mov    %eax,%edi
    f8ca:	e8 62 a9 ff ff       	callq  a231 <safe_mod_func_int8_t_s_s>
    f8cf:	be 01 00 00 00       	mov    $0x1,%esi
    f8d4:	48 bf 0c 8f 6b c4 77 	movabs $0x30de0877c46b8f0c,%rdi
    f8db:	08 de 30 
    f8de:	e8 9d b7 ff ff       	callq  b080 <safe_mod_func_uint64_t_u_u>
    f8e3:	8b 85 20 fb ff ff    	mov    -0x4e0(%rbp),%eax
    f8e9:	89 c6                	mov    %eax,%esi
    f8eb:	bf ff ff 00 00       	mov    $0xffff,%edi
    f8f0:	e8 53 b5 ff ff       	callq  ae48 <safe_rshift_func_uint16_t_u_s>
    f8f5:	0f b7 c0             	movzwl %ax,%eax
    f8f8:	8b b5 2c f8 ff ff    	mov    -0x7d4(%rbp),%esi
    f8fe:	89 c7                	mov    %eax,%edi
    f900:	e8 f8 b5 ff ff       	callq  aefd <safe_mod_func_uint32_t_u_u>
    f905:	8b 15 dd f7 00 00    	mov    0xf7dd(%rip),%edx        # 1f0e8 <g_65>
    f90b:	21 d0                	and    %edx,%eax
    f90d:	89 05 d5 f7 00 00    	mov    %eax,0xf7d5(%rip)        # 1f0e8 <g_65>
    f913:	48 8b 85 38 f9 ff ff 	mov    -0x6c8(%rbp),%rax
    f91a:	8b 00                	mov    (%rax),%eax
    f91c:	85 c0                	test   %eax,%eax
    f91e:	75 45                	jne    f965 <func_37+0xa36>
    f920:	48 8b 95 40 fa ff ff 	mov    -0x5c0(%rbp),%rdx
    f927:	48 8b 85 48 f9 ff ff 	mov    -0x6b8(%rbp),%rax
    f92e:	48 89 10             	mov    %rdx,(%rax)
    f931:	48 8b 05 c0 f7 00 00 	mov    0xf7c0(%rip),%rax        # 1f0f8 <g_98>
    f938:	0f be c0             	movsbl %al,%eax
    f93b:	be 01 00 00 00       	mov    $0x1,%esi
    f940:	89 c7                	mov    %eax,%edi
    f942:	e8 ab a8 ff ff       	callq  a1f2 <safe_sub_func_int8_t_s_s>
    f947:	48 0f be c0          	movsbq %al,%rax
    f94b:	48 89 05 a6 f7 00 00 	mov    %rax,0xf7a6(%rip)        # 1f0f8 <g_98>
    f952:	48 8b 05 9f f7 00 00 	mov    0xf79f(%rip),%rax        # 1f0f8 <g_98>
    f959:	48 83 f8 e7          	cmp    $0xffffffffffffffe7,%rax
    f95d:	0f 84 f2 fd ff ff    	je     f755 <func_37+0x826>
    f963:	eb 01                	jmp    f966 <func_37+0xa37>
    f965:	90                   	nop
    f966:	0f b7 05 03 fb 00 00 	movzwl 0xfb03(%rip),%eax        # 1f470 <g_874>
    f96d:	83 c0 01             	add    $0x1,%eax
    f970:	66 89 05 f9 fa 00 00 	mov    %ax,0xfaf9(%rip)        # 1f470 <g_874>
    f977:	0f b7 05 f2 fa 00 00 	movzwl 0xfaf2(%rip),%eax        # 1f470 <g_874>
    f97e:	66 83 f8 1e          	cmp    $0x1e,%ax
    f982:	0f 86 68 fc ff ff    	jbe    f5f0 <func_37+0x6c1>
    f988:	c7 05 4e f7 00 00 00 	movl   $0x0,0xf74e(%rip)        # 1f0e0 <g_59>
    f98f:	00 00 00 
    f992:	e9 4b 13 00 00       	jmpq   10ce2 <func_37+0x1db3>
    f997:	c7 85 74 f8 ff ff 09 	movl   $0x9,-0x78c(%rbp)
    f99e:	00 00 00 
    f9a1:	c7 85 78 f8 ff ff 8f 	movl   $0xa41d1d8f,-0x788(%rbp)
    f9a8:	1d 1d a4 
    f9ab:	48 8d 85 74 f8 ff ff 	lea    -0x78c(%rbp),%rax
    f9b2:	48 89 85 10 fb ff ff 	mov    %rax,-0x4f0(%rbp)
    f9b9:	48 8d 05 14 f7 00 00 	lea    0xf714(%rip),%rax        # 1f0d4 <g_11>
    f9c0:	48 89 85 18 fb ff ff 	mov    %rax,-0x4e8(%rbp)
    f9c7:	48 8d 85 60 f8 ff ff 	lea    -0x7a0(%rbp),%rax
    f9ce:	48 89 85 20 fb ff ff 	mov    %rax,-0x4e0(%rbp)
    f9d5:	48 8d 85 74 f8 ff ff 	lea    -0x78c(%rbp),%rax
    f9dc:	48 89 85 28 fb ff ff 	mov    %rax,-0x4d8(%rbp)
    f9e3:	48 8d 85 68 f8 ff ff 	lea    -0x798(%rbp),%rax
    f9ea:	48 89 85 30 fb ff ff 	mov    %rax,-0x4d0(%rbp)
    f9f1:	48 8d 05 f4 f6 00 00 	lea    0xf6f4(%rip),%rax        # 1f0ec <g_69>
    f9f8:	48 89 85 38 fb ff ff 	mov    %rax,-0x4c8(%rbp)
    f9ff:	48 8d 85 60 f8 ff ff 	lea    -0x7a0(%rbp),%rax
    fa06:	48 89 85 40 fb ff ff 	mov    %rax,-0x4c0(%rbp)
    fa0d:	48 8d 05 d4 f6 00 00 	lea    0xf6d4(%rip),%rax        # 1f0e8 <g_65>
    fa14:	48 89 85 48 fb ff ff 	mov    %rax,-0x4b8(%rbp)
    fa1b:	48 8d 05 ae f6 00 00 	lea    0xf6ae(%rip),%rax        # 1f0d0 <g_10>
    fa22:	48 89 85 50 fb ff ff 	mov    %rax,-0x4b0(%rbp)
    fa29:	48 8d 85 68 f8 ff ff 	lea    -0x798(%rbp),%rax
    fa30:	48 89 85 58 fb ff ff 	mov    %rax,-0x4a8(%rbp)
    fa37:	48 8d 05 22 fa 00 00 	lea    0xfa22(%rip),%rax        # 1f460 <g_799>
    fa3e:	48 89 85 60 fb ff ff 	mov    %rax,-0x4a0(%rbp)
    fa45:	48 8d 85 e0 f9 ff ff 	lea    -0x620(%rbp),%rax
    fa4c:	48 83 c0 04          	add    $0x4,%rax
    fa50:	48 89 85 68 fb ff ff 	mov    %rax,-0x498(%rbp)
    fa57:	48 8d 85 68 f8 ff ff 	lea    -0x798(%rbp),%rax
    fa5e:	48 89 85 70 fb ff ff 	mov    %rax,-0x490(%rbp)
    fa65:	48 8d 85 70 f8 ff ff 	lea    -0x790(%rbp),%rax
    fa6c:	48 89 85 78 fb ff ff 	mov    %rax,-0x488(%rbp)
    fa73:	48 8d 85 74 f8 ff ff 	lea    -0x78c(%rbp),%rax
    fa7a:	48 89 85 80 fb ff ff 	mov    %rax,-0x480(%rbp)
    fa81:	48 c7 85 88 fb ff ff 	movq   $0x0,-0x478(%rbp)
    fa88:	00 00 00 00 
    fa8c:	48 8d 85 64 f8 ff ff 	lea    -0x79c(%rbp),%rax
    fa93:	48 89 85 90 fb ff ff 	mov    %rax,-0x470(%rbp)
    fa9a:	48 8d 05 d7 38 01 00 	lea    0x138d7(%rip),%rax        # 23378 <g_507>
    faa1:	48 89 85 98 fb ff ff 	mov    %rax,-0x468(%rbp)
    faa8:	48 8d 85 e0 f9 ff ff 	lea    -0x620(%rbp),%rax
    faaf:	48 89 85 a0 fb ff ff 	mov    %rax,-0x460(%rbp)
    fab6:	48 8d 05 a3 f9 00 00 	lea    0xf9a3(%rip),%rax        # 1f460 <g_799>
    fabd:	48 89 85 a8 fb ff ff 	mov    %rax,-0x458(%rbp)
    fac4:	48 c7 85 b0 fb ff ff 	movq   $0x0,-0x450(%rbp)
    facb:	00 00 00 00 
    facf:	48 8d 85 74 f8 ff ff 	lea    -0x78c(%rbp),%rax
    fad6:	48 89 85 b8 fb ff ff 	mov    %rax,-0x448(%rbp)
    fadd:	48 8d 85 78 f8 ff ff 	lea    -0x788(%rbp),%rax
    fae4:	48 89 85 c0 fb ff ff 	mov    %rax,-0x440(%rbp)
    faeb:	48 8d 85 74 f8 ff ff 	lea    -0x78c(%rbp),%rax
    faf2:	48 89 85 c8 fb ff ff 	mov    %rax,-0x438(%rbp)
    faf9:	48 8d 05 d4 f5 00 00 	lea    0xf5d4(%rip),%rax        # 1f0d4 <g_11>
    fb00:	48 89 85 d0 fb ff ff 	mov    %rax,-0x430(%rbp)
    fb07:	48 8d 85 60 f8 ff ff 	lea    -0x7a0(%rbp),%rax
    fb0e:	48 89 85 d8 fb ff ff 	mov    %rax,-0x428(%rbp)
    fb15:	48 8d 85 74 f8 ff ff 	lea    -0x78c(%rbp),%rax
    fb1c:	48 89 85 e0 fb ff ff 	mov    %rax,-0x420(%rbp)
    fb23:	48 c7 85 e8 fb ff ff 	movq   $0x0,-0x418(%rbp)
    fb2a:	00 00 00 00 
    fb2e:	48 8d 85 6c f8 ff ff 	lea    -0x794(%rbp),%rax
    fb35:	48 89 85 f0 fb ff ff 	mov    %rax,-0x410(%rbp)
    fb3c:	48 8d 85 74 f8 ff ff 	lea    -0x78c(%rbp),%rax
    fb43:	48 89 85 f8 fb ff ff 	mov    %rax,-0x408(%rbp)
    fb4a:	48 c7 85 00 fc ff ff 	movq   $0x0,-0x400(%rbp)
    fb51:	00 00 00 00 
    fb55:	48 8d 85 6c f8 ff ff 	lea    -0x794(%rbp),%rax
    fb5c:	48 89 85 08 fc ff ff 	mov    %rax,-0x3f8(%rbp)
    fb63:	48 8d 05 0e 38 01 00 	lea    0x1380e(%rip),%rax        # 23378 <g_507>
    fb6a:	48 89 85 10 fc ff ff 	mov    %rax,-0x3f0(%rbp)
    fb71:	48 8d 85 70 f8 ff ff 	lea    -0x790(%rbp),%rax
    fb78:	48 89 85 18 fc ff ff 	mov    %rax,-0x3e8(%rbp)
    fb7f:	48 8d 85 60 f8 ff ff 	lea    -0x7a0(%rbp),%rax
    fb86:	48 89 85 20 fc ff ff 	mov    %rax,-0x3e0(%rbp)
    fb8d:	48 8d 85 70 f8 ff ff 	lea    -0x790(%rbp),%rax
    fb94:	48 89 85 28 fc ff ff 	mov    %rax,-0x3d8(%rbp)
    fb9b:	48 8d 85 74 f8 ff ff 	lea    -0x78c(%rbp),%rax
    fba2:	48 89 85 30 fc ff ff 	mov    %rax,-0x3d0(%rbp)
    fba9:	48 8d 85 78 f8 ff ff 	lea    -0x788(%rbp),%rax
    fbb0:	48 89 85 38 fc ff ff 	mov    %rax,-0x3c8(%rbp)
    fbb7:	48 8d 85 74 f8 ff ff 	lea    -0x78c(%rbp),%rax
    fbbe:	48 89 85 40 fc ff ff 	mov    %rax,-0x3c0(%rbp)
    fbc5:	48 c7 85 48 fc ff ff 	movq   $0x0,-0x3b8(%rbp)
    fbcc:	00 00 00 00 
    fbd0:	48 8d 05 89 f8 00 00 	lea    0xf889(%rip),%rax        # 1f460 <g_799>
    fbd7:	48 89 85 50 fc ff ff 	mov    %rax,-0x3b0(%rbp)
    fbde:	48 8d 05 ef f4 00 00 	lea    0xf4ef(%rip),%rax        # 1f0d4 <g_11>
    fbe5:	48 89 85 58 fc ff ff 	mov    %rax,-0x3a8(%rbp)
    fbec:	48 c7 85 60 fc ff ff 	movq   $0x0,-0x3a0(%rbp)
    fbf3:	00 00 00 00 
    fbf7:	48 8d 85 64 f8 ff ff 	lea    -0x79c(%rbp),%rax
    fbfe:	48 89 85 68 fc ff ff 	mov    %rax,-0x398(%rbp)
    fc05:	48 c7 85 70 fc ff ff 	movq   $0x0,-0x390(%rbp)
    fc0c:	00 00 00 00 
    fc10:	48 8d 85 e0 f9 ff ff 	lea    -0x620(%rbp),%rax
    fc17:	48 83 c0 04          	add    $0x4,%rax
    fc1b:	48 89 85 78 fc ff ff 	mov    %rax,-0x388(%rbp)
    fc22:	48 8d 85 70 f8 ff ff 	lea    -0x790(%rbp),%rax
    fc29:	48 89 85 80 fc ff ff 	mov    %rax,-0x380(%rbp)
    fc30:	48 8d 05 29 f8 00 00 	lea    0xf829(%rip),%rax        # 1f460 <g_799>
    fc37:	48 89 85 88 fc ff ff 	mov    %rax,-0x378(%rbp)
    fc3e:	48 8d 05 33 37 01 00 	lea    0x13733(%rip),%rax        # 23378 <g_507>
    fc45:	48 89 85 90 fc ff ff 	mov    %rax,-0x370(%rbp)
    fc4c:	48 8d 05 0d f8 00 00 	lea    0xf80d(%rip),%rax        # 1f460 <g_799>
    fc53:	48 89 85 98 fc ff ff 	mov    %rax,-0x368(%rbp)
    fc5a:	48 c7 85 a0 fc ff ff 	movq   $0x0,-0x360(%rbp)
    fc61:	00 00 00 00 
    fc65:	48 8d 85 64 f8 ff ff 	lea    -0x79c(%rbp),%rax
    fc6c:	48 89 85 a8 fc ff ff 	mov    %rax,-0x358(%rbp)
    fc73:	48 8d 05 6e f4 00 00 	lea    0xf46e(%rip),%rax        # 1f0e8 <g_65>
    fc7a:	48 89 85 b0 fc ff ff 	mov    %rax,-0x350(%rbp)
    fc81:	48 8d 85 70 f8 ff ff 	lea    -0x790(%rbp),%rax
    fc88:	48 89 85 b8 fc ff ff 	mov    %rax,-0x348(%rbp)
    fc8f:	48 8d 05 52 f4 00 00 	lea    0xf452(%rip),%rax        # 1f0e8 <g_65>
    fc96:	48 89 85 c0 fc ff ff 	mov    %rax,-0x340(%rbp)
    fc9d:	48 8d 85 68 f8 ff ff 	lea    -0x798(%rbp),%rax
    fca4:	48 89 85 c8 fc ff ff 	mov    %rax,-0x338(%rbp)
    fcab:	48 8d 05 36 f4 00 00 	lea    0xf436(%rip),%rax        # 1f0e8 <g_65>
    fcb2:	48 89 85 d0 fc ff ff 	mov    %rax,-0x330(%rbp)
    fcb9:	48 c7 85 d8 fc ff ff 	movq   $0x0,-0x328(%rbp)
    fcc0:	00 00 00 00 
    fcc4:	48 8d 05 09 f4 00 00 	lea    0xf409(%rip),%rax        # 1f0d4 <g_11>
    fccb:	48 89 85 e0 fc ff ff 	mov    %rax,-0x320(%rbp)
    fcd2:	48 8d 85 e0 f9 ff ff 	lea    -0x620(%rbp),%rax
    fcd9:	48 83 c0 04          	add    $0x4,%rax
    fcdd:	48 89 85 e8 fc ff ff 	mov    %rax,-0x318(%rbp)
    fce4:	48 8d 05 8d 36 01 00 	lea    0x1368d(%rip),%rax        # 23378 <g_507>
    fceb:	48 89 85 f0 fc ff ff 	mov    %rax,-0x310(%rbp)
    fcf2:	48 c7 85 f8 fc ff ff 	movq   $0x0,-0x308(%rbp)
    fcf9:	00 00 00 00 
    fcfd:	48 8d 05 cc f3 00 00 	lea    0xf3cc(%rip),%rax        # 1f0d0 <g_10>
    fd04:	48 89 85 00 fd ff ff 	mov    %rax,-0x300(%rbp)
    fd0b:	48 8d 05 c2 f3 00 00 	lea    0xf3c2(%rip),%rax        # 1f0d4 <g_11>
    fd12:	48 89 85 08 fd ff ff 	mov    %rax,-0x2f8(%rbp)
    fd19:	48 8d 85 74 f8 ff ff 	lea    -0x78c(%rbp),%rax
    fd20:	48 89 85 10 fd ff ff 	mov    %rax,-0x2f0(%rbp)
    fd27:	48 8d 85 e0 f9 ff ff 	lea    -0x620(%rbp),%rax
    fd2e:	48 83 c0 04          	add    $0x4,%rax
    fd32:	48 89 85 18 fd ff ff 	mov    %rax,-0x2e8(%rbp)
    fd39:	48 8d 85 78 f8 ff ff 	lea    -0x788(%rbp),%rax
    fd40:	48 89 85 20 fd ff ff 	mov    %rax,-0x2e0(%rbp)
    fd47:	48 8d 85 68 f8 ff ff 	lea    -0x798(%rbp),%rax
    fd4e:	48 89 85 28 fd ff ff 	mov    %rax,-0x2d8(%rbp)
    fd55:	48 8d 85 60 f8 ff ff 	lea    -0x7a0(%rbp),%rax
    fd5c:	48 89 85 30 fd ff ff 	mov    %rax,-0x2d0(%rbp)
    fd63:	48 8d 05 6a f3 00 00 	lea    0xf36a(%rip),%rax        # 1f0d4 <g_11>
    fd6a:	48 89 85 38 fd ff ff 	mov    %rax,-0x2c8(%rbp)
    fd71:	48 8d 85 68 f8 ff ff 	lea    -0x798(%rbp),%rax
    fd78:	48 89 85 40 fd ff ff 	mov    %rax,-0x2c0(%rbp)
    fd7f:	48 8d 85 68 f8 ff ff 	lea    -0x798(%rbp),%rax
    fd86:	48 89 85 48 fd ff ff 	mov    %rax,-0x2b8(%rbp)
    fd8d:	48 8d 05 e4 35 01 00 	lea    0x135e4(%rip),%rax        # 23378 <g_507>
    fd94:	48 89 85 50 fd ff ff 	mov    %rax,-0x2b0(%rbp)
    fd9b:	48 8d 05 d6 35 01 00 	lea    0x135d6(%rip),%rax        # 23378 <g_507>
    fda2:	48 89 85 58 fd ff ff 	mov    %rax,-0x2a8(%rbp)
    fda9:	48 8d 85 60 f8 ff ff 	lea    -0x7a0(%rbp),%rax
    fdb0:	48 89 85 60 fd ff ff 	mov    %rax,-0x2a0(%rbp)
    fdb7:	48 c7 85 68 fd ff ff 	movq   $0x0,-0x298(%rbp)
    fdbe:	00 00 00 00 
    fdc2:	48 8d 85 60 f8 ff ff 	lea    -0x7a0(%rbp),%rax
    fdc9:	48 89 85 70 fd ff ff 	mov    %rax,-0x290(%rbp)
    fdd0:	48 8d 05 89 f6 00 00 	lea    0xf689(%rip),%rax        # 1f460 <g_799>
    fdd7:	48 89 85 78 fd ff ff 	mov    %rax,-0x288(%rbp)
    fdde:	48 8d 05 03 f3 00 00 	lea    0xf303(%rip),%rax        # 1f0e8 <g_65>
    fde5:	48 89 85 80 fd ff ff 	mov    %rax,-0x280(%rbp)
    fdec:	48 8d 85 70 f8 ff ff 	lea    -0x790(%rbp),%rax
    fdf3:	48 89 85 88 fd ff ff 	mov    %rax,-0x278(%rbp)
    fdfa:	48 8d 85 64 f8 ff ff 	lea    -0x79c(%rbp),%rax
    fe01:	48 89 85 90 fd ff ff 	mov    %rax,-0x270(%rbp)
    fe08:	48 8d 85 64 f8 ff ff 	lea    -0x79c(%rbp),%rax
    fe0f:	48 89 85 98 fd ff ff 	mov    %rax,-0x268(%rbp)
    fe16:	48 c7 85 a0 fd ff ff 	movq   $0x0,-0x260(%rbp)
    fe1d:	00 00 00 00 
    fe21:	48 8d 85 e0 f9 ff ff 	lea    -0x620(%rbp),%rax
    fe28:	48 89 85 a8 fd ff ff 	mov    %rax,-0x258(%rbp)
    fe2f:	48 8d 05 42 35 01 00 	lea    0x13542(%rip),%rax        # 23378 <g_507>
    fe36:	48 89 85 b0 fd ff ff 	mov    %rax,-0x250(%rbp)
    fe3d:	48 c7 85 b8 fd ff ff 	movq   $0x0,-0x248(%rbp)
    fe44:	00 00 00 00 
    fe48:	48 8d 85 64 f8 ff ff 	lea    -0x79c(%rbp),%rax
    fe4f:	48 89 85 c0 fd ff ff 	mov    %rax,-0x240(%rbp)
    fe56:	48 8d 85 e0 f9 ff ff 	lea    -0x620(%rbp),%rax
    fe5d:	48 83 c0 04          	add    $0x4,%rax
    fe61:	48 89 85 c8 fd ff ff 	mov    %rax,-0x238(%rbp)
    fe68:	48 8d 85 70 f8 ff ff 	lea    -0x790(%rbp),%rax
    fe6f:	48 89 85 d0 fd ff ff 	mov    %rax,-0x230(%rbp)
    fe76:	48 8d 85 e0 f9 ff ff 	lea    -0x620(%rbp),%rax
    fe7d:	48 83 c0 04          	add    $0x4,%rax
    fe81:	48 89 85 d8 fd ff ff 	mov    %rax,-0x228(%rbp)
    fe88:	48 c7 85 e0 fd ff ff 	movq   $0x0,-0x220(%rbp)
    fe8f:	00 00 00 00 
    fe93:	48 8d 85 e0 f9 ff ff 	lea    -0x620(%rbp),%rax
    fe9a:	48 83 c0 04          	add    $0x4,%rax
    fe9e:	48 89 85 e8 fd ff ff 	mov    %rax,-0x218(%rbp)
    fea5:	48 8d 85 78 f8 ff ff 	lea    -0x788(%rbp),%rax
    feac:	48 89 85 f0 fd ff ff 	mov    %rax,-0x210(%rbp)
    feb3:	48 c7 85 f8 fd ff ff 	movq   $0x0,-0x208(%rbp)
    feba:	00 00 00 00 
    febe:	48 8d 05 0b f2 00 00 	lea    0xf20b(%rip),%rax        # 1f0d0 <g_10>
    fec5:	48 89 85 00 fe ff ff 	mov    %rax,-0x200(%rbp)
    fecc:	48 8d 05 01 f2 00 00 	lea    0xf201(%rip),%rax        # 1f0d4 <g_11>
    fed3:	48 89 85 08 fe ff ff 	mov    %rax,-0x1f8(%rbp)
    feda:	48 8d 85 74 f8 ff ff 	lea    -0x78c(%rbp),%rax
    fee1:	48 89 85 10 fe ff ff 	mov    %rax,-0x1f0(%rbp)
    fee8:	48 8d 05 e1 f1 00 00 	lea    0xf1e1(%rip),%rax        # 1f0d0 <g_10>
    feef:	48 89 85 18 fe ff ff 	mov    %rax,-0x1e8(%rbp)
    fef6:	48 8d 05 eb f1 00 00 	lea    0xf1eb(%rip),%rax        # 1f0e8 <g_65>
    fefd:	48 89 85 20 fe ff ff 	mov    %rax,-0x1e0(%rbp)
    ff04:	48 8d 85 60 f8 ff ff 	lea    -0x7a0(%rbp),%rax
    ff0b:	48 89 85 28 fe ff ff 	mov    %rax,-0x1d8(%rbp)
    ff12:	48 8d 05 b7 f1 00 00 	lea    0xf1b7(%rip),%rax        # 1f0d0 <g_10>
    ff19:	48 89 85 30 fe ff ff 	mov    %rax,-0x1d0(%rbp)
    ff20:	48 8d 85 68 f8 ff ff 	lea    -0x798(%rbp),%rax
    ff27:	48 89 85 38 fe ff ff 	mov    %rax,-0x1c8(%rbp)
    ff2e:	48 8d 85 60 f8 ff ff 	lea    -0x7a0(%rbp),%rax
    ff35:	48 89 85 40 fe ff ff 	mov    %rax,-0x1c0(%rbp)
    ff3c:	48 8d 85 70 f8 ff ff 	lea    -0x790(%rbp),%rax
    ff43:	48 89 85 48 fe ff ff 	mov    %rax,-0x1b8(%rbp)
    ff4a:	48 8d 85 68 f8 ff ff 	lea    -0x798(%rbp),%rax
    ff51:	48 89 85 50 fe ff ff 	mov    %rax,-0x1b0(%rbp)
    ff58:	48 8d 05 19 34 01 00 	lea    0x13419(%rip),%rax        # 23378 <g_507>
    ff5f:	48 89 85 58 fe ff ff 	mov    %rax,-0x1a8(%rbp)
    ff66:	48 8d 85 70 f8 ff ff 	lea    -0x790(%rbp),%rax
    ff6d:	48 89 85 60 fe ff ff 	mov    %rax,-0x1a0(%rbp)
    ff74:	48 8d 05 6d f1 00 00 	lea    0xf16d(%rip),%rax        # 1f0e8 <g_65>
    ff7b:	48 89 85 68 fe ff ff 	mov    %rax,-0x198(%rbp)
    ff82:	48 8d 85 78 f8 ff ff 	lea    -0x788(%rbp),%rax
    ff89:	48 89 85 70 fe ff ff 	mov    %rax,-0x190(%rbp)
    ff90:	48 c7 85 78 fe ff ff 	movq   $0x0,-0x188(%rbp)
    ff97:	00 00 00 00 
    ff9b:	48 8d 05 2e f1 00 00 	lea    0xf12e(%rip),%rax        # 1f0d0 <g_10>
    ffa2:	48 89 85 80 fe ff ff 	mov    %rax,-0x180(%rbp)
    ffa9:	48 8d 85 68 f8 ff ff 	lea    -0x798(%rbp),%rax
    ffb0:	48 89 85 88 fe ff ff 	mov    %rax,-0x178(%rbp)
    ffb7:	48 c7 85 90 fe ff ff 	movq   $0x0,-0x170(%rbp)
    ffbe:	00 00 00 00 
    ffc2:	48 8d 85 78 f8 ff ff 	lea    -0x788(%rbp),%rax
    ffc9:	48 89 85 98 fe ff ff 	mov    %rax,-0x168(%rbp)
    ffd0:	48 8d 05 fd f0 00 00 	lea    0xf0fd(%rip),%rax        # 1f0d4 <g_11>
    ffd7:	48 89 85 a0 fe ff ff 	mov    %rax,-0x160(%rbp)
    ffde:	48 8d 85 74 f8 ff ff 	lea    -0x78c(%rbp),%rax
    ffe5:	48 89 85 a8 fe ff ff 	mov    %rax,-0x158(%rbp)
    ffec:	48 c7 85 b0 fe ff ff 	movq   $0x0,-0x150(%rbp)
    fff3:	00 00 00 00 
    fff7:	48 8d 05 ea f0 00 00 	lea    0xf0ea(%rip),%rax        # 1f0e8 <g_65>
    fffe:	48 89 85 b8 fe ff ff 	mov    %rax,-0x148(%rbp)
   10005:	48 c7 85 c0 fe ff ff 	movq   $0x0,-0x140(%rbp)
   1000c:	00 00 00 00 
   10010:	48 8d 85 74 f8 ff ff 	lea    -0x78c(%rbp),%rax
   10017:	48 89 85 c8 fe ff ff 	mov    %rax,-0x138(%rbp)
   1001e:	48 8d 85 68 f8 ff ff 	lea    -0x798(%rbp),%rax
   10025:	48 89 85 d0 fe ff ff 	mov    %rax,-0x130(%rbp)
   1002c:	48 8d 85 64 f8 ff ff 	lea    -0x79c(%rbp),%rax
   10033:	48 89 85 d8 fe ff ff 	mov    %rax,-0x128(%rbp)
   1003a:	48 8d 05 93 f0 00 00 	lea    0xf093(%rip),%rax        # 1f0d4 <g_11>
   10041:	48 89 85 e0 fe ff ff 	mov    %rax,-0x120(%rbp)
   10048:	48 8d 85 6c f8 ff ff 	lea    -0x794(%rbp),%rax
   1004f:	48 89 85 e8 fe ff ff 	mov    %rax,-0x118(%rbp)
   10056:	48 8d 85 74 f8 ff ff 	lea    -0x78c(%rbp),%rax
   1005d:	48 89 85 f0 fe ff ff 	mov    %rax,-0x110(%rbp)
   10064:	48 8d 85 e0 f9 ff ff 	lea    -0x620(%rbp),%rax
   1006b:	48 83 c0 04          	add    $0x4,%rax
   1006f:	48 89 85 f8 fe ff ff 	mov    %rax,-0x108(%rbp)
   10076:	48 8d 85 60 f8 ff ff 	lea    -0x7a0(%rbp),%rax
   1007d:	48 89 85 00 ff ff ff 	mov    %rax,-0x100(%rbp)
   10084:	48 8d 05 45 f0 00 00 	lea    0xf045(%rip),%rax        # 1f0d0 <g_10>
   1008b:	48 89 85 08 ff ff ff 	mov    %rax,-0xf8(%rbp)
   10092:	48 8d 05 37 f0 00 00 	lea    0xf037(%rip),%rax        # 1f0d0 <g_10>
   10099:	48 89 85 10 ff ff ff 	mov    %rax,-0xf0(%rbp)
   100a0:	48 8d 85 74 f8 ff ff 	lea    -0x78c(%rbp),%rax
   100a7:	48 89 85 18 ff ff ff 	mov    %rax,-0xe8(%rbp)
   100ae:	48 8d 05 c3 32 01 00 	lea    0x132c3(%rip),%rax        # 23378 <g_507>
   100b5:	48 89 85 20 ff ff ff 	mov    %rax,-0xe0(%rbp)
   100bc:	48 8d 85 e0 f9 ff ff 	lea    -0x620(%rbp),%rax
   100c3:	48 83 c0 04          	add    $0x4,%rax
   100c7:	48 89 85 28 ff ff ff 	mov    %rax,-0xd8(%rbp)
   100ce:	48 c7 85 30 ff ff ff 	movq   $0x0,-0xd0(%rbp)
   100d5:	00 00 00 00 
   100d9:	48 8d 85 74 f8 ff ff 	lea    -0x78c(%rbp),%rax
   100e0:	48 89 85 38 ff ff ff 	mov    %rax,-0xc8(%rbp)
   100e7:	48 8d 85 68 f8 ff ff 	lea    -0x798(%rbp),%rax
   100ee:	48 89 85 40 ff ff ff 	mov    %rax,-0xc0(%rbp)
   100f5:	48 c7 85 48 ff ff ff 	movq   $0x0,-0xb8(%rbp)
   100fc:	00 00 00 00 
   10100:	48 8d 05 e1 ef 00 00 	lea    0xefe1(%rip),%rax        # 1f0e8 <g_65>
   10107:	48 89 85 50 ff ff ff 	mov    %rax,-0xb0(%rbp)
   1010e:	48 8d 85 74 f8 ff ff 	lea    -0x78c(%rbp),%rax
   10115:	48 89 85 58 ff ff ff 	mov    %rax,-0xa8(%rbp)
   1011c:	48 8d 05 c9 ef 00 00 	lea    0xefc9(%rip),%rax        # 1f0ec <g_69>
   10123:	48 89 85 60 ff ff ff 	mov    %rax,-0xa0(%rbp)
   1012a:	48 8d 85 e0 f9 ff ff 	lea    -0x620(%rbp),%rax
   10131:	48 83 c0 04          	add    $0x4,%rax
   10135:	48 89 85 68 ff ff ff 	mov    %rax,-0x98(%rbp)
   1013c:	48 c7 85 70 ff ff ff 	movq   $0x0,-0x90(%rbp)
   10143:	00 00 00 00 
   10147:	48 8d 85 e0 f9 ff ff 	lea    -0x620(%rbp),%rax
   1014e:	48 83 c0 04          	add    $0x4,%rax
   10152:	48 89 85 78 ff ff ff 	mov    %rax,-0x88(%rbp)
   10159:	48 8d 05 88 ef 00 00 	lea    0xef88(%rip),%rax        # 1f0e8 <g_65>
   10160:	48 89 45 80          	mov    %rax,-0x80(%rbp)
   10164:	48 c7 45 88 00 00 00 	movq   $0x0,-0x78(%rbp)
   1016b:	00 
   1016c:	48 8d 05 ed f2 00 00 	lea    0xf2ed(%rip),%rax        # 1f460 <g_799>
   10173:	48 89 45 90          	mov    %rax,-0x70(%rbp)
   10177:	48 8d 85 74 f8 ff ff 	lea    -0x78c(%rbp),%rax
   1017e:	48 89 45 98          	mov    %rax,-0x68(%rbp)
   10182:	48 c7 45 a0 00 00 00 	movq   $0x0,-0x60(%rbp)
   10189:	00 
   1018a:	48 8d 05 e7 31 01 00 	lea    0x131e7(%rip),%rax        # 23378 <g_507>
   10191:	48 89 45 a8          	mov    %rax,-0x58(%rbp)
   10195:	48 8d 05 dc 31 01 00 	lea    0x131dc(%rip),%rax        # 23378 <g_507>
   1019c:	48 89 45 b0          	mov    %rax,-0x50(%rbp)
   101a0:	48 8d 85 64 f8 ff ff 	lea    -0x79c(%rbp),%rax
   101a7:	48 89 45 b8          	mov    %rax,-0x48(%rbp)
   101ab:	c7 05 33 ef 00 00 00 	movl   $0x0,0xef33(%rip)        # 1f0e8 <g_65>
   101b2:	00 00 00 
   101b5:	e9 fe 09 00 00       	jmpq   10bb8 <func_37+0x1c89>
   101ba:	66 c7 85 e8 f8 ff ff 	movw   $0x5,-0x718(%rbp)
   101c1:	05 00 
   101c3:	48 8d 05 50 f0 00 00 	lea    0xf050(%rip),%rax        # 1f21a <g_381>
   101ca:	48 89 85 60 f9 ff ff 	mov    %rax,-0x6a0(%rbp)
   101d1:	66 c7 85 58 f8 ff ff 	movw   $0xfffa,-0x7a8(%rbp)
   101d8:	fa ff 
   101da:	48 8d 05 9f 31 01 00 	lea    0x1319f(%rip),%rax        # 23380 <g_825>
   101e1:	48 89 85 68 f9 ff ff 	mov    %rax,-0x698(%rbp)
   101e8:	c7 85 7c f8 ff ff 00 	movl   $0x0,-0x784(%rbp)
   101ef:	00 00 00 
   101f2:	eb 1a                	jmp    1020e <func_37+0x12df>
   101f4:	8b 85 7c f8 ff ff    	mov    -0x784(%rbp),%eax
   101fa:	48 98                	cltq   
   101fc:	c7 84 85 c4 f9 ff ff 	movl   $0x1b40d276,-0x63c(%rbp,%rax,4)
   10203:	76 d2 40 1b 
   10207:	83 85 7c f8 ff ff 01 	addl   $0x1,-0x784(%rbp)
   1020e:	83 bd 7c f8 ff ff 00 	cmpl   $0x0,-0x784(%rbp)
   10215:	7e dd                	jle    101f4 <func_37+0x12c5>
   10217:	c7 85 80 f8 ff ff 00 	movl   $0x0,-0x780(%rbp)
   1021e:	00 00 00 
   10221:	eb 1e                	jmp    10241 <func_37+0x1312>
   10223:	8b 85 80 f8 ff ff    	mov    -0x780(%rbp),%eax
   10229:	48 98                	cltq   
   1022b:	48 8d 15 0e 21 01 00 	lea    0x1210e(%rip),%rdx        # 22340 <g_1012>
   10232:	48 89 94 c5 20 fa ff 	mov    %rdx,-0x5e0(%rbp,%rax,8)
   10239:	ff 
   1023a:	83 85 80 f8 ff ff 01 	addl   $0x1,-0x780(%rbp)
   10241:	83 bd 80 f8 ff ff 03 	cmpl   $0x3,-0x780(%rbp)
   10248:	7e d9                	jle    10223 <func_37+0x12f4>
   1024a:	8b 05 90 ee 00 00    	mov    0xee90(%rip),%eax        # 1f0e0 <g_59>
   10250:	8d 50 02             	lea    0x2(%rax),%edx
   10253:	8b 05 87 ee 00 00    	mov    0xee87(%rip),%eax        # 1f0e0 <g_59>
   10259:	83 c0 03             	add    $0x3,%eax
   1025c:	48 63 c8             	movslq %eax,%rcx
   1025f:	48 63 d2             	movslq %edx,%rdx
   10262:	48 89 d0             	mov    %rdx,%rax
   10265:	48 c1 e0 02          	shl    $0x2,%rax
   10269:	48 01 d0             	add    %rdx,%rax
   1026c:	48 01 c8             	add    %rcx,%rax
   1026f:	48 8d 14 85 00 00 00 	lea    0x0(,%rax,4),%rdx
   10276:	00 
   10277:	48 8d 05 a2 f1 00 00 	lea    0xf1a2(%rip),%rax        # 1f420 <g_798>
   1027e:	8b 14 02             	mov    (%rdx,%rax,1),%edx
   10281:	48 8b 05 18 1e 01 00 	mov    0x11e18(%rip),%rax        # 220a0 <g_447>
   10288:	48 63 d2             	movslq %edx,%rdx
   1028b:	48 89 10             	mov    %rdx,(%rax)
   1028e:	48 8b 05 ab 20 01 00 	mov    0x120ab(%rip),%rax        # 22340 <g_1012>
   10295:	48 89 05 a4 20 01 00 	mov    %rax,0x120a4(%rip)        # 22340 <g_1012>
   1029c:	48 8b 05 ed bc 00 00 	mov    0xbced(%rip),%rax        # 1bf90 <l_1019.4636+0x10>
   102a3:	48 85 c0             	test   %rax,%rax
   102a6:	0f 84 39 03 00 00    	je     105e5 <func_37+0x16b6>
   102ac:	48 b8 8f 52 d4 f3 d2 	movabs $0x260c86d2f3d4528f,%rax
   102b3:	86 0c 26 
   102b6:	48 89 85 f0 f8 ff ff 	mov    %rax,-0x710(%rbp)
   102bd:	48 8d 05 c6 ee 00 00 	lea    0xeec6(%rip),%rax        # 1f18a <g_256+0xa>
   102c4:	48 89 85 70 f9 ff ff 	mov    %rax,-0x690(%rbp)
   102cb:	48 8d 05 8e f4 00 00 	lea    0xf48e(%rip),%rax        # 1f760 <g_1066>
   102d2:	48 89 85 78 f9 ff ff 	mov    %rax,-0x688(%rbp)
   102d9:	c7 85 84 f8 ff ff 00 	movl   $0x0,-0x77c(%rbp)
   102e0:	00 00 00 
   102e3:	eb 1a                	jmp    102ff <func_37+0x13d0>
   102e5:	8b 85 84 f8 ff ff    	mov    -0x77c(%rbp),%eax
   102eb:	48 98                	cltq   
   102ed:	c7 84 85 20 fa ff ff 	movl   $0xffffffff,-0x5e0(%rbp,%rax,4)
   102f4:	ff ff ff ff 
   102f8:	83 85 84 f8 ff ff 01 	addl   $0x1,-0x77c(%rbp)
   102ff:	83 bd 84 f8 ff ff 02 	cmpl   $0x2,-0x77c(%rbp)
   10306:	7e dd                	jle    102e5 <func_37+0x13b6>
   10308:	8b 85 74 f8 ff ff    	mov    -0x78c(%rbp),%eax
   1030e:	25 6c ec b5 a8       	and    $0xa8b5ec6c,%eax
   10313:	89 85 74 f8 ff ff    	mov    %eax,-0x78c(%rbp)
   10319:	c7 05 55 30 01 00 00 	movl   $0x0,0x13055(%rip)        # 23378 <g_507>
   10320:	00 00 00 
   10323:	e9 7a 02 00 00       	jmpq   105a2 <func_37+0x1673>
   10328:	48 c7 85 80 f9 ff ff 	movq   $0x1,-0x680(%rbp)
   1032f:	01 00 00 00 
   10333:	c7 85 c8 f8 ff ff 35 	movl   $0x9b389a35,-0x738(%rbp)
   1033a:	9a 38 9b 
   1033d:	48 8d 05 2c f1 00 00 	lea    0xf12c(%rip),%rax        # 1f470 <g_874>
   10344:	48 89 85 88 f9 ff ff 	mov    %rax,-0x678(%rbp)
   1034b:	48 8d 05 ee 20 01 00 	lea    0x120ee(%rip),%rax        # 22440 <g_1033>
   10352:	48 89 85 90 f9 ff ff 	mov    %rax,-0x670(%rbp)
   10359:	48 8d 85 d8 f9 ff ff 	lea    -0x628(%rbp),%rax
   10360:	48 89 85 98 f9 ff ff 	mov    %rax,-0x668(%rbp)
   10367:	48 8d 05 fa ed 00 00 	lea    0xedfa(%rip),%rax        # 1f168 <g_162+0x28>
   1036e:	48 89 85 a0 f9 ff ff 	mov    %rax,-0x660(%rbp)
   10375:	c7 85 88 f8 ff ff 00 	movl   $0x0,-0x778(%rbp)
   1037c:	00 00 00 
   1037f:	eb 1e                	jmp    1039f <func_37+0x1470>
   10381:	8b 85 88 f8 ff ff    	mov    -0x778(%rbp),%eax
   10387:	48 98                	cltq   
   10389:	48 8d 15 08 20 01 00 	lea    0x12008(%rip),%rdx        # 22398 <g_1034+0x38>
   10390:	48 89 94 c5 d8 f9 ff 	mov    %rdx,-0x628(%rbp,%rax,8)
   10397:	ff 
   10398:	83 85 88 f8 ff ff 01 	addl   $0x1,-0x778(%rbp)
   1039f:	83 bd 88 f8 ff ff 00 	cmpl   $0x0,-0x778(%rbp)
   103a6:	7e d9                	jle    10381 <func_37+0x1452>
   103a8:	48 83 85 f0 f8 ff ff 	addq   $0x1,-0x710(%rbp)
   103af:	01 
   103b0:	8b 85 74 f8 ff ff    	mov    -0x78c(%rbp),%eax
   103b6:	48 63 d8             	movslq %eax,%rbx
   103b9:	48 8b 15 80 20 01 00 	mov    0x12080(%rip),%rdx        # 22440 <g_1033>
   103c0:	48 8b 85 90 f9 ff ff 	mov    -0x670(%rbp),%rax
   103c7:	48 89 10             	mov    %rdx,(%rax)
   103ca:	48 8b 85 98 f9 ff ff 	mov    -0x668(%rbp),%rax
   103d1:	48 8d 15 f0 1f 01 00 	lea    0x11ff0(%rip),%rdx        # 223c8 <g_1034+0x68>
   103d8:	48 89 10             	mov    %rdx,(%rax)
   103db:	48 8b 85 30 f8 ff ff 	mov    -0x7d0(%rbp),%rax
   103e2:	0f b6 00             	movzbl (%rax),%eax
   103e5:	0f b6 c0             	movzbl %al,%eax
   103e8:	be 05 00 00 00       	mov    $0x5,%esi
   103ed:	89 c7                	mov    %eax,%edi
   103ef:	e8 ca a8 ff ff       	callq  acbe <safe_rshift_func_uint8_t_u_u>
   103f4:	84 c0                	test   %al,%al
   103f6:	0f 85 25 01 00 00    	jne    10521 <func_37+0x15f2>
   103fc:	48 8b 05 8d bb 00 00 	mov    0xbb8d(%rip),%rax        # 1bf90 <l_1019.4636+0x10>
   10403:	44 0f bf e0          	movswl %ax,%r12d
   10407:	48 8b 85 f0 f8 ff ff 	mov    -0x710(%rbp),%rax
   1040e:	48 83 f0 fc          	xor    $0xfffffffffffffffc,%rax
   10412:	49 89 c6             	mov    %rax,%r14
   10415:	44 8b 2d 5c 2f 01 00 	mov    0x12f5c(%rip),%r13d        # 23378 <g_507>
   1041c:	48 8b 85 f0 f8 ff ff 	mov    -0x710(%rbp),%rax
   10423:	0f b6 d0             	movzbl %al,%edx
   10426:	48 8b 05 03 bc 00 00 	mov    0xbc03(%rip),%rax        # 1c030 <l_1019.4636+0xb0>
   1042d:	48 85 c0             	test   %rax,%rax
   10430:	75 0a                	jne    1043c <func_37+0x150d>
   10432:	48 83 bd f0 f8 ff ff 	cmpq   $0x0,-0x710(%rbp)
   10439:	00 
   1043a:	74 07                	je     10443 <func_37+0x1514>
   1043c:	b8 01 00 00 00       	mov    $0x1,%eax
   10441:	eb 05                	jmp    10448 <func_37+0x1519>
   10443:	b8 00 00 00 00       	mov    $0x0,%eax
   10448:	0f b6 c0             	movzbl %al,%eax
   1044b:	89 d6                	mov    %edx,%esi
   1044d:	89 c7                	mov    %eax,%edi
   1044f:	e8 87 a7 ff ff       	callq  abdb <safe_div_func_uint8_t_u_u>
   10454:	0f be c0             	movsbl %al,%eax
   10457:	44 89 ee             	mov    %r13d,%esi
   1045a:	89 c7                	mov    %eax,%edi
   1045c:	e8 40 9e ff ff       	callq  a2a1 <safe_lshift_func_int8_t_s_s>
   10461:	0f be d0             	movsbl %al,%edx
   10464:	48 8b 85 38 f8 ff ff 	mov    -0x7c8(%rbp),%rax
   1046b:	0f b6 00             	movzbl (%rax),%eax
   1046e:	8d 70 ff             	lea    -0x1(%rax),%esi
   10471:	48 8b 8d 38 f8 ff ff 	mov    -0x7c8(%rbp),%rcx
   10478:	40 88 31             	mov    %sil,(%rcx)
   1047b:	0f b6 c0             	movzbl %al,%eax
   1047e:	89 d6                	mov    %edx,%esi
   10480:	89 c7                	mov    %eax,%edi
   10482:	e8 37 a8 ff ff       	callq  acbe <safe_rshift_func_uint8_t_u_u>
   10487:	0f b6 05 91 ee 00 00 	movzbl 0xee91(%rip),%eax        # 1f31f <g_600>
   1048e:	83 e0 7f             	and    $0x7f,%eax
   10491:	0f b6 c0             	movzbl %al,%eax
   10494:	89 85 c4 f9 ff ff    	mov    %eax,-0x63c(%rbp)
   1049a:	8b 85 c4 f9 ff ff    	mov    -0x63c(%rbp),%eax
   104a0:	48 98                	cltq   
   104a2:	83 e0 34             	and    $0x34,%eax
   104a5:	49 39 c6             	cmp    %rax,%r14
   104a8:	0f 96 c2             	setbe  %dl
   104ab:	48 8d 05 fe 1b 01 00 	lea    0x11bfe(%rip),%rax        # 220b0 <g_515>
   104b2:	48 8b 00             	mov    (%rax),%rax
   104b5:	0f b6 d2             	movzbl %dl,%edx
   104b8:	66 89 10             	mov    %dx,(%rax)
   104bb:	0f b7 00             	movzwl (%rax),%eax
   104be:	98                   	cwtl   
   104bf:	44 89 e6             	mov    %r12d,%esi
   104c2:	89 c7                	mov    %eax,%edi
   104c4:	e8 0a 9f ff ff       	callq  a3d3 <safe_sub_func_int16_t_s_s>
   104c9:	0f b6 c0             	movzbl %al,%eax
   104cc:	be 8e 00 00 00       	mov    $0x8e,%esi
   104d1:	89 c7                	mov    %eax,%edi
   104d3:	e8 03 a7 ff ff       	callq  abdb <safe_div_func_uint8_t_u_u>
   104d8:	0f b6 c0             	movzbl %al,%eax
   104db:	48 8b 95 f0 f8 ff ff 	mov    -0x710(%rbp),%rdx
   104e2:	48 89 15 27 ec 00 00 	mov    %rdx,0xec27(%rip)        # 1f110 <g_117>
   104e9:	48 8b 15 20 ec 00 00 	mov    0xec20(%rip),%rdx        # 1f110 <g_117>
   104f0:	48 f7 d2             	not    %rdx
   104f3:	48 89 c6             	mov    %rax,%rsi
   104f6:	48 89 d7             	mov    %rdx,%rdi
   104f9:	e8 aa a3 ff ff       	callq  a8a8 <safe_sub_func_int64_t_s_s>
   104fe:	0f b6 c0             	movzbl %al,%eax
   10501:	be ff 00 00 00       	mov    $0xff,%esi
   10506:	89 c7                	mov    %eax,%edi
   10508:	e8 a1 a6 ff ff       	callq  abae <safe_mod_func_uint8_t_u_u>
   1050d:	8b 85 74 f8 ff ff    	mov    -0x78c(%rbp),%eax
   10513:	48 98                	cltq   
   10515:	48 23 85 80 f9 ff ff 	and    -0x680(%rbp),%rax
   1051c:	48 85 c0             	test   %rax,%rax
   1051f:	74 07                	je     10528 <func_37+0x15f9>
   10521:	ba 01 00 00 00       	mov    $0x1,%edx
   10526:	eb 05                	jmp    1052d <func_37+0x15fe>
   10528:	ba 00 00 00 00       	mov    $0x0,%edx
   1052d:	8b 85 c8 f8 ff ff    	mov    -0x738(%rbp),%eax
   10533:	89 c6                	mov    %eax,%esi
   10535:	89 d7                	mov    %edx,%edi
   10537:	e8 90 a1 ff ff       	callq  a6cc <safe_mod_func_int32_t_s_s>
   1053c:	8b 95 24 fa ff ff    	mov    -0x5dc(%rbp),%edx
   10542:	09 d0                	or     %edx,%eax
   10544:	89 85 24 fa ff ff    	mov    %eax,-0x5dc(%rbp)
   1054a:	8b 85 24 fa ff ff    	mov    -0x5dc(%rbp),%eax
   10550:	48 98                	cltq   
   10552:	48 89 de             	mov    %rbx,%rsi
   10555:	48 89 c7             	mov    %rax,%rdi
   10558:	e8 52 ab ff ff       	callq  b0af <safe_div_func_uint64_t_u_u>
   1055d:	48 39 85 80 f9 ff ff 	cmp    %rax,-0x680(%rbp)
   10564:	0f 94 c0             	sete   %al
   10567:	0f b6 c0             	movzbl %al,%eax
   1056a:	48 8b 95 88 f9 ff ff 	mov    -0x678(%rbp),%rdx
   10571:	66 c7 02 87 e7       	movw   $0xe787,(%rdx)
   10576:	89 c6                	mov    %eax,%esi
   10578:	bf 87 e7 00 00       	mov    $0xe787,%edi
   1057d:	e8 7d a7 ff ff       	callq  acff <safe_add_func_uint16_t_u_u>
   10582:	8b 15 d8 ee 00 00    	mov    0xeed8(%rip),%edx        # 1f460 <g_799>
   10588:	0f b7 c0             	movzwl %ax,%eax
   1058b:	21 d0                	and    %edx,%eax
   1058d:	89 05 cd ee 00 00    	mov    %eax,0xeecd(%rip)        # 1f460 <g_799>
   10593:	8b 05 df 2d 01 00    	mov    0x12ddf(%rip),%eax        # 23378 <g_507>
   10599:	83 e8 01             	sub    $0x1,%eax
   1059c:	89 05 d6 2d 01 00    	mov    %eax,0x12dd6(%rip)        # 23378 <g_507>
   105a2:	8b 05 d0 2d 01 00    	mov    0x12dd0(%rip),%eax        # 23378 <g_507>
   105a8:	85 c0                	test   %eax,%eax
   105aa:	0f 89 78 fd ff ff    	jns    10328 <func_37+0x13f9>
   105b0:	48 8b 85 70 f9 ff ff 	mov    -0x690(%rbp),%rax
   105b7:	0f b7 15 1b eb 00 00 	movzwl 0xeb1b(%rip),%edx        # 1f0d9 <g_34>
   105be:	66 89 10             	mov    %dx,(%rax)
   105c1:	48 8b 85 70 f9 ff ff 	mov    -0x690(%rbp),%rax
   105c8:	0f b7 00             	movzwl (%rax),%eax
   105cb:	66 89 85 e8 f8 ff ff 	mov    %ax,-0x718(%rbp)
   105d2:	48 8b 85 78 f9 ff ff 	mov    -0x688(%rbp),%rax
   105d9:	0f b7 95 e8 f8 ff ff 	movzwl -0x718(%rbp),%edx
   105e0:	66 89 10             	mov    %dx,(%rax)
   105e3:	eb 11                	jmp    105f6 <func_37+0x16c7>
   105e5:	0f b7 85 52 f8 ff ff 	movzwl -0x7ae(%rbp),%eax
   105ec:	83 e8 01             	sub    $0x1,%eax
   105ef:	66 89 85 52 f8 ff ff 	mov    %ax,-0x7ae(%rbp)
   105f6:	80 bd 4d f8 ff ff 00 	cmpb   $0x0,-0x7b3(%rbp)
   105fd:	0f 84 b7 01 00 00    	je     107ba <func_37+0x188b>
   10603:	48 8d 05 56 ee 00 00 	lea    0xee56(%rip),%rax        # 1f460 <g_799>
   1060a:	48 89 85 20 fa ff ff 	mov    %rax,-0x5e0(%rbp)
   10611:	48 8d 05 48 ee 00 00 	lea    0xee48(%rip),%rax        # 1f460 <g_799>
   10618:	48 89 85 28 fa ff ff 	mov    %rax,-0x5d8(%rbp)
   1061f:	48 8d 85 74 f8 ff ff 	lea    -0x78c(%rbp),%rax
   10626:	48 89 85 30 fa ff ff 	mov    %rax,-0x5d0(%rbp)
   1062d:	48 8d 05 2c ee 00 00 	lea    0xee2c(%rip),%rax        # 1f460 <g_799>
   10634:	48 89 85 38 fa ff ff 	mov    %rax,-0x5c8(%rbp)
   1063b:	48 8d 05 1e ee 00 00 	lea    0xee1e(%rip),%rax        # 1f460 <g_799>
   10642:	48 89 85 40 fa ff ff 	mov    %rax,-0x5c0(%rbp)
   10649:	48 8d 85 74 f8 ff ff 	lea    -0x78c(%rbp),%rax
   10650:	48 89 85 48 fa ff ff 	mov    %rax,-0x5b8(%rbp)
   10657:	48 8d 05 02 ee 00 00 	lea    0xee02(%rip),%rax        # 1f460 <g_799>
   1065e:	48 89 85 50 fa ff ff 	mov    %rax,-0x5b0(%rbp)
   10665:	48 8d 05 f4 ed 00 00 	lea    0xedf4(%rip),%rax        # 1f460 <g_799>
   1066c:	48 89 85 58 fa ff ff 	mov    %rax,-0x5a8(%rbp)
   10673:	48 8d 85 74 f8 ff ff 	lea    -0x78c(%rbp),%rax
   1067a:	48 89 85 60 fa ff ff 	mov    %rax,-0x5a0(%rbp)
   10681:	48 8d 05 d8 ed 00 00 	lea    0xedd8(%rip),%rax        # 1f460 <g_799>
   10688:	48 89 85 68 fa ff ff 	mov    %rax,-0x598(%rbp)
   1068f:	48 8d 05 ca ed 00 00 	lea    0xedca(%rip),%rax        # 1f460 <g_799>
   10696:	48 89 85 70 fa ff ff 	mov    %rax,-0x590(%rbp)
   1069d:	48 8d 85 74 f8 ff ff 	lea    -0x78c(%rbp),%rax
   106a4:	48 89 85 78 fa ff ff 	mov    %rax,-0x588(%rbp)
   106ab:	48 8d 05 ae ed 00 00 	lea    0xedae(%rip),%rax        # 1f460 <g_799>
   106b2:	48 89 85 80 fa ff ff 	mov    %rax,-0x580(%rbp)
   106b9:	48 8d 05 a0 ed 00 00 	lea    0xeda0(%rip),%rax        # 1f460 <g_799>
   106c0:	48 89 85 88 fa ff ff 	mov    %rax,-0x578(%rbp)
   106c7:	48 8d 85 74 f8 ff ff 	lea    -0x78c(%rbp),%rax
   106ce:	48 89 85 90 fa ff ff 	mov    %rax,-0x570(%rbp)
   106d5:	48 8d 05 84 ed 00 00 	lea    0xed84(%rip),%rax        # 1f460 <g_799>
   106dc:	48 89 85 98 fa ff ff 	mov    %rax,-0x568(%rbp)
   106e3:	48 8d 05 76 ed 00 00 	lea    0xed76(%rip),%rax        # 1f460 <g_799>
   106ea:	48 89 85 a0 fa ff ff 	mov    %rax,-0x560(%rbp)
   106f1:	48 8d 85 74 f8 ff ff 	lea    -0x78c(%rbp),%rax
   106f8:	48 89 85 a8 fa ff ff 	mov    %rax,-0x558(%rbp)
   106ff:	48 8d 05 5a ed 00 00 	lea    0xed5a(%rip),%rax        # 1f460 <g_799>
   10706:	48 89 85 b0 fa ff ff 	mov    %rax,-0x550(%rbp)
   1070d:	48 8d 05 4c ed 00 00 	lea    0xed4c(%rip),%rax        # 1f460 <g_799>
   10714:	48 89 85 b8 fa ff ff 	mov    %rax,-0x548(%rbp)
   1071b:	48 8d 85 74 f8 ff ff 	lea    -0x78c(%rbp),%rax
   10722:	48 89 85 c0 fa ff ff 	mov    %rax,-0x540(%rbp)
   10729:	48 8d 05 30 ed 00 00 	lea    0xed30(%rip),%rax        # 1f460 <g_799>
   10730:	48 89 85 c8 fa ff ff 	mov    %rax,-0x538(%rbp)
   10737:	48 8d 05 22 ed 00 00 	lea    0xed22(%rip),%rax        # 1f460 <g_799>
   1073e:	48 89 85 d0 fa ff ff 	mov    %rax,-0x530(%rbp)
   10745:	48 8d 85 74 f8 ff ff 	lea    -0x78c(%rbp),%rax
   1074c:	48 89 85 d8 fa ff ff 	mov    %rax,-0x528(%rbp)
   10753:	48 8d 05 06 ed 00 00 	lea    0xed06(%rip),%rax        # 1f460 <g_799>
   1075a:	48 89 85 e0 fa ff ff 	mov    %rax,-0x520(%rbp)
   10761:	48 8d 05 f8 ec 00 00 	lea    0xecf8(%rip),%rax        # 1f460 <g_799>
   10768:	48 89 85 e8 fa ff ff 	mov    %rax,-0x518(%rbp)
   1076f:	48 8d 85 74 f8 ff ff 	lea    -0x78c(%rbp),%rax
   10776:	48 89 85 f0 fa ff ff 	mov    %rax,-0x510(%rbp)
   1077d:	48 8d 05 dc ec 00 00 	lea    0xecdc(%rip),%rax        # 1f460 <g_799>
   10784:	48 89 85 f8 fa ff ff 	mov    %rax,-0x508(%rbp)
   1078b:	48 8d 05 ce ec 00 00 	lea    0xecce(%rip),%rax        # 1f460 <g_799>
   10792:	48 89 85 00 fb ff ff 	mov    %rax,-0x500(%rbp)
   10799:	48 8d 85 74 f8 ff ff 	lea    -0x78c(%rbp),%rax
   107a0:	48 89 85 08 fb ff ff 	mov    %rax,-0x4f8(%rbp)
   107a7:	48 8d 85 74 f8 ff ff 	lea    -0x78c(%rbp),%rax
   107ae:	48 89 85 b8 fa ff ff 	mov    %rax,-0x548(%rbp)
   107b5:	e9 a1 00 00 00       	jmpq   1085b <func_37+0x192c>
   107ba:	c7 85 cc f8 ff ff 03 	movl   $0x3,-0x734(%rbp)
   107c1:	00 00 00 
   107c4:	48 8b 85 d8 f8 ff ff 	mov    -0x728(%rbp),%rax
   107cb:	89 c2                	mov    %eax,%edx
   107cd:	48 8b 85 38 f8 ff ff 	mov    -0x7c8(%rbp),%rax
   107d4:	88 10                	mov    %dl,(%rax)
   107d6:	0f b7 85 e8 f8 ff ff 	movzwl -0x718(%rbp),%eax
   107dd:	0f b7 d0             	movzwl %ax,%edx
   107e0:	0f b6 05 47 ea 00 00 	movzbl 0xea47(%rip),%eax        # 1f22e <g_556>
   107e7:	66 0f be c8          	movsbw %al,%cx
   107eb:	0f b6 05 3f eb 00 00 	movzbl 0xeb3f(%rip),%eax        # 1f331 <g_605>
   107f2:	83 e0 7f             	and    $0x7f,%eax
   107f5:	0f b6 c0             	movzbl %al,%eax
   107f8:	21 c8                	and    %ecx,%eax
   107fa:	0f b7 c0             	movzwl %ax,%eax
   107fd:	89 d6                	mov    %edx,%esi
   107ff:	89 c7                	mov    %eax,%edi
   10801:	e8 37 a5 ff ff       	callq  ad3d <safe_mul_func_uint16_t_u_u>
   10806:	66 85 c0             	test   %ax,%ax
   10809:	8b 85 cc f8 ff ff    	mov    -0x734(%rbp),%eax
   1080f:	89 c6                	mov    %eax,%esi
   10811:	bf 00 00 00 00       	mov    $0x0,%edi
   10816:	e8 5f a6 ff ff       	callq  ae7a <safe_rshift_func_uint16_t_u_u>
   1081b:	48 83 bd 08 f9 ff ff 	cmpq   $0x0,-0x6f8(%rbp)
   10822:	00 
   10823:	0f 94 c0             	sete   %al
   10826:	0f b6 d0             	movzbl %al,%edx
   10829:	8b 85 74 f8 ff ff    	mov    -0x78c(%rbp),%eax
   1082f:	85 c0                	test   %eax,%eax
   10831:	0f 95 c0             	setne  %al
   10834:	0f b6 c0             	movzbl %al,%eax
   10837:	39 c2                	cmp    %eax,%edx
   10839:	0f 9e c0             	setle  %al
   1083c:	0f b6 d0             	movzbl %al,%edx
   1083f:	8b 85 c4 f9 ff ff    	mov    -0x63c(%rbp),%eax
   10845:	21 d0                	and    %edx,%eax
   10847:	89 85 c4 f9 ff ff    	mov    %eax,-0x63c(%rbp)
   1084d:	8b 85 74 f8 ff ff    	mov    -0x78c(%rbp),%eax
   10853:	85 c0                	test   %eax,%eax
   10855:	0f 85 6d 03 00 00    	jne    10bc8 <func_37+0x1c99>
   1085b:	0f b6 05 b6 e9 00 00 	movzbl 0xe9b6(%rip),%eax        # 1f218 <g_376+0x4>
   10862:	44 0f b6 e0          	movzbl %al,%r12d
   10866:	8b 85 74 f8 ff ff    	mov    -0x78c(%rbp),%eax
   1086c:	0f b7 d8             	movzwl %ax,%ebx
   1086f:	48 8b 05 22 18 01 00 	mov    0x11822(%rip),%rax        # 22098 <g_375>
   10876:	0f b6 00             	movzbl (%rax),%eax
   10879:	0f b6 d0             	movzbl %al,%edx
   1087c:	48 8b 05 15 18 01 00 	mov    0x11815(%rip),%rax        # 22098 <g_375>
   10883:	0f b6 00             	movzbl (%rax),%eax
   10886:	0f b6 c0             	movzbl %al,%eax
   10889:	89 d6                	mov    %edx,%esi
   1088b:	89 c7                	mov    %eax,%edi
   1088d:	e8 2c a4 ff ff       	callq  acbe <safe_rshift_func_uint8_t_u_u>
   10892:	0f b6 c0             	movzbl %al,%eax
   10895:	89 de                	mov    %ebx,%esi
   10897:	89 c7                	mov    %eax,%edi
   10899:	e8 61 a4 ff ff       	callq  acff <safe_add_func_uint16_t_u_u>
   1089e:	66 85 c0             	test   %ax,%ax
   108a1:	74 11                	je     108b4 <func_37+0x1985>
   108a3:	8b 05 57 eb 00 00    	mov    0xeb57(%rip),%eax        # 1f400 <g_624>
   108a9:	85 c0                	test   %eax,%eax
   108ab:	74 07                	je     108b4 <func_37+0x1985>
   108ad:	b8 01 00 00 00       	mov    $0x1,%eax
   108b2:	eb 05                	jmp    108b9 <func_37+0x198a>
   108b4:	b8 00 00 00 00       	mov    $0x0,%eax
   108b9:	83 f8 ff             	cmp    $0xffffffff,%eax
   108bc:	74 11                	je     108cf <func_37+0x19a0>
   108be:	8b 05 6c e9 00 00    	mov    0xe96c(%rip),%eax        # 1f230 <g_557>
   108c4:	85 c0                	test   %eax,%eax
   108c6:	74 07                	je     108cf <func_37+0x19a0>
   108c8:	b8 01 00 00 00       	mov    $0x1,%eax
   108cd:	eb 05                	jmp    108d4 <func_37+0x19a5>
   108cf:	b8 00 00 00 00       	mov    $0x0,%eax
   108d4:	48 98                	cltq   
   108d6:	be 07 00 00 00       	mov    $0x7,%esi
   108db:	48 89 c7             	mov    %rax,%rdi
   108de:	e8 14 a1 ff ff       	callq  a9f7 <safe_div_func_int64_t_s_s>
   108e3:	4c 21 e0             	and    %r12,%rax
   108e6:	48 85 c0             	test   %rax,%rax
   108e9:	74 13                	je     108fe <func_37+0x19cf>
   108eb:	48 8b 05 26 e8 00 00 	mov    0xe826(%rip),%rax        # 1f118 <g_121>
   108f2:	48 85 c0             	test   %rax,%rax
   108f5:	74 07                	je     108fe <func_37+0x19cf>
   108f7:	b8 01 00 00 00       	mov    $0x1,%eax
   108fc:	eb 05                	jmp    10903 <func_37+0x19d4>
   108fe:	b8 00 00 00 00       	mov    $0x0,%eax
   10903:	83 f8 14             	cmp    $0x14,%eax
   10906:	0f 9f c0             	setg   %al
   10909:	0f b6 d0             	movzbl %al,%edx
   1090c:	8b 85 74 f8 ff ff    	mov    -0x78c(%rbp),%eax
   10912:	39 c2                	cmp    %eax,%edx
   10914:	0f 9d c0             	setge  %al
   10917:	0f b6 c8             	movzbl %al,%ecx
   1091a:	48 8d 05 8f 17 01 00 	lea    0x1178f(%rip),%rax        # 220b0 <g_515>
   10921:	48 8b 00             	mov    (%rax),%rax
   10924:	0f b7 10             	movzwl (%rax),%edx
   10927:	48 8d 05 82 17 01 00 	lea    0x11782(%rip),%rax        # 220b0 <g_515>
   1092e:	48 8b 00             	mov    (%rax),%rax
   10931:	31 ca                	xor    %ecx,%edx
   10933:	66 89 10             	mov    %dx,(%rax)
   10936:	c7 85 20 fa ff ff 65 	movl   $0x4cd8b865,-0x5e0(%rbp)
   1093d:	b8 d8 4c 
   10940:	c7 85 24 fa ff ff 65 	movl   $0x4cd8b865,-0x5dc(%rbp)
   10947:	b8 d8 4c 
   1094a:	c7 85 28 fa ff ff ff 	movl   $0xffffffff,-0x5d8(%rbp)
   10951:	ff ff ff 
   10954:	c7 85 2c fa ff ff 65 	movl   $0x4cd8b865,-0x5d4(%rbp)
   1095b:	b8 d8 4c 
   1095e:	c7 85 30 fa ff ff 65 	movl   $0x4cd8b865,-0x5d0(%rbp)
   10965:	b8 d8 4c 
   10968:	c7 85 34 fa ff ff ff 	movl   $0xffffffff,-0x5cc(%rbp)
   1096f:	ff ff ff 
   10972:	c7 85 38 fa ff ff cc 	movl   $0x30a1c1cc,-0x5c8(%rbp)
   10979:	c1 a1 30 
   1097c:	c7 85 3c fa ff ff ff 	movl   $0xffffffff,-0x5c4(%rbp)
   10983:	ff ff ff 
   10986:	c7 85 40 fa ff ff f9 	movl   $0xfffffff9,-0x5c0(%rbp)
   1098d:	ff ff ff 
   10990:	c7 85 44 fa ff ff f6 	movl   $0xfffffff6,-0x5bc(%rbp)
   10997:	ff ff ff 
   1099a:	c7 85 48 fa ff ff 65 	movl   $0x4cd8b865,-0x5b8(%rbp)
   109a1:	b8 d8 4c 
   109a4:	c7 85 4c fa ff ff 66 	movl   $0xa1cbfa66,-0x5b4(%rbp)
   109ab:	fa cb a1 
   109ae:	c7 85 50 fa ff ff 66 	movl   $0xa1cbfa66,-0x5b0(%rbp)
   109b5:	fa cb a1 
   109b8:	c7 85 54 fa ff ff 65 	movl   $0x4cd8b865,-0x5ac(%rbp)
   109bf:	b8 d8 4c 
   109c2:	c7 85 58 fa ff ff 66 	movl   $0xa1cbfa66,-0x5a8(%rbp)
   109c9:	fa cb a1 
   109cc:	c7 85 5c fa ff ff f6 	movl   $0xfffffff6,-0x5a4(%rbp)
   109d3:	ff ff ff 
   109d6:	c7 85 60 fa ff ff cc 	movl   $0x30a1c1cc,-0x5a0(%rbp)
   109dd:	c1 a1 30 
   109e0:	c7 85 64 fa ff ff f6 	movl   $0xfffffff6,-0x59c(%rbp)
   109e7:	ff ff ff 
   109ea:	c7 85 68 fa ff ff cc 	movl   $0x30a1c1cc,-0x598(%rbp)
   109f1:	c1 a1 30 
   109f4:	c7 85 6c fa ff ff f6 	movl   $0xfffffff6,-0x594(%rbp)
   109fb:	ff ff ff 
   109fe:	c7 85 70 fa ff ff 66 	movl   $0xa1cbfa66,-0x590(%rbp)
   10a05:	fa cb a1 
   10a08:	c7 85 74 fa ff ff 65 	movl   $0x4cd8b865,-0x58c(%rbp)
   10a0f:	b8 d8 4c 
   10a12:	c7 85 78 fa ff ff 66 	movl   $0xa1cbfa66,-0x588(%rbp)
   10a19:	fa cb a1 
   10a1c:	c7 85 7c fa ff ff 66 	movl   $0xa1cbfa66,-0x584(%rbp)
   10a23:	fa cb a1 
   10a26:	c7 85 80 fa ff ff 65 	movl   $0x4cd8b865,-0x580(%rbp)
   10a2d:	b8 d8 4c 
   10a30:	c7 85 84 fa ff ff f6 	movl   $0xfffffff6,-0x57c(%rbp)
   10a37:	ff ff ff 
   10a3a:	c7 85 88 fa ff ff f9 	movl   $0xfffffff9,-0x578(%rbp)
   10a41:	ff ff ff 
   10a44:	c7 85 8c fa ff ff ff 	movl   $0xffffffff,-0x574(%rbp)
   10a4b:	ff ff ff 
   10a4e:	c7 85 90 fa ff ff cc 	movl   $0x30a1c1cc,-0x570(%rbp)
   10a55:	c1 a1 30 
   10a58:	c7 85 94 fa ff ff ff 	movl   $0xffffffff,-0x56c(%rbp)
   10a5f:	ff ff ff 
   10a62:	c7 05 c4 e7 00 00 00 	movl   $0x0,0xe7c4(%rip)        # 1f230 <g_557>
   10a69:	00 00 00 
   10a6c:	e9 2a 01 00 00       	jmpq   10b9b <func_37+0x1c6c>
   10a71:	66 c7 85 5a f8 ff ff 	movw   $0xeb57,-0x7a6(%rbp)
   10a78:	57 eb 
   10a7a:	48 8d 05 4b e7 00 00 	lea    0xe74b(%rip),%rax        # 1f1cc <g_256+0x4c>
   10a81:	48 89 85 a8 f9 ff ff 	mov    %rax,-0x658(%rbp)
   10a88:	c7 85 d0 f8 ff ff 00 	movl   $0x0,-0x730(%rbp)
   10a8f:	00 00 00 
   10a92:	0f bf 9d 5a f8 ff ff 	movswl -0x7a6(%rbp),%ebx
   10a99:	48 8b 85 a8 f9 ff ff 	mov    -0x658(%rbp),%rax
   10aa0:	0f b7 95 5e f8 ff ff 	movzwl -0x7a2(%rbp),%edx
   10aa7:	66 89 10             	mov    %dx,(%rax)
   10aaa:	48 83 bd 60 f9 ff ff 	cmpq   $0x0,-0x6a0(%rbp)
   10ab1:	00 
   10ab2:	0f 95 c0             	setne  %al
   10ab5:	0f b6 c0             	movzbl %al,%eax
   10ab8:	f7 d0                	not    %eax
   10aba:	89 c2                	mov    %eax,%edx
   10abc:	48 8b 85 20 f9 ff ff 	mov    -0x6e0(%rbp),%rax
   10ac3:	25 b4 00 00 00       	and    $0xb4,%eax
   10ac8:	89 d6                	mov    %edx,%esi
   10aca:	89 c7                	mov    %eax,%edi
   10acc:	e8 fb 9b ff ff       	callq  a6cc <safe_mod_func_int32_t_s_s>
   10ad1:	0f be c0             	movsbl %al,%eax
   10ad4:	be 07 00 00 00       	mov    $0x7,%esi
   10ad9:	89 c7                	mov    %eax,%edi
   10adb:	e8 55 98 ff ff       	callq  a335 <safe_rshift_func_int8_t_s_s>
   10ae0:	0f be d0             	movsbl %al,%edx
   10ae3:	8b 05 7f e9 00 00    	mov    0xe97f(%rip),%eax        # 1f468 <g_799+0x8>
   10ae9:	39 c2                	cmp    %eax,%edx
   10aeb:	0f 94 c0             	sete   %al
   10aee:	0f b6 c0             	movzbl %al,%eax
   10af1:	be 04 00 00 00       	mov    $0x4,%esi
   10af6:	89 c7                	mov    %eax,%edi
   10af8:	e8 f1 97 ff ff       	callq  a2ee <safe_lshift_func_int8_t_s_u>
   10afd:	0f be c0             	movsbl %al,%eax
   10b00:	89 de                	mov    %ebx,%esi
   10b02:	89 c7                	mov    %eax,%edi
   10b04:	e8 ec 98 ff ff       	callq  a3f5 <safe_mul_func_int16_t_s_s>
   10b09:	f7 d0                	not    %eax
   10b0b:	66 c1 e8 0f          	shr    $0xf,%ax
   10b0f:	0f b6 c0             	movzbl %al,%eax
   10b12:	be 07 00 00 00       	mov    $0x7,%esi
   10b17:	89 c7                	mov    %eax,%edi
   10b19:	e8 70 a2 ff ff       	callq  ad8e <safe_div_func_uint16_t_u_u>
   10b1e:	0f b6 05 a1 e7 00 00 	movzbl 0xe7a1(%rip),%eax        # 1f2c6 <g_588>
   10b25:	83 e0 7f             	and    $0x7f,%eax
   10b28:	0f b6 c0             	movzbl %al,%eax
   10b2b:	be 0e 00 00 00       	mov    $0xe,%esi
   10b30:	89 c7                	mov    %eax,%edi
   10b32:	e8 11 a3 ff ff       	callq  ae48 <safe_rshift_func_uint16_t_u_s>
   10b37:	66 85 c0             	test   %ax,%ax
   10b3a:	0f bf 85 5a f8 ff ff 	movswl -0x7a6(%rbp),%eax
   10b41:	be 01 00 00 00       	mov    $0x1,%esi
   10b46:	89 c7                	mov    %eax,%edi
   10b48:	e8 83 a3 ff ff       	callq  aed0 <safe_sub_func_uint32_t_u_u>
   10b4d:	66 83 bd 5a f8 ff ff 	cmpw   $0x0,-0x7a6(%rbp)
   10b54:	00 
   10b55:	74 07                	je     10b5e <func_37+0x1c2f>
   10b57:	ba 01 00 00 00       	mov    $0x1,%edx
   10b5c:	eb 05                	jmp    10b63 <func_37+0x1c34>
   10b5e:	ba 00 00 00 00       	mov    $0x0,%edx
   10b63:	8b 85 c4 f9 ff ff    	mov    -0x63c(%rbp),%eax
   10b69:	09 d0                	or     %edx,%eax
   10b6b:	89 85 c4 f9 ff ff    	mov    %eax,-0x63c(%rbp)
   10b71:	8b 85 74 f8 ff ff    	mov    -0x78c(%rbp),%eax
   10b77:	09 85 d0 f8 ff ff    	or     %eax,-0x730(%rbp)
   10b7d:	8b 85 38 fa ff ff    	mov    -0x5c8(%rbp),%eax
   10b83:	83 c0 01             	add    $0x1,%eax
   10b86:	89 85 38 fa ff ff    	mov    %eax,-0x5c8(%rbp)
   10b8c:	8b 05 9e e6 00 00    	mov    0xe69e(%rip),%eax        # 1f230 <g_557>
   10b92:	83 c0 01             	add    $0x1,%eax
   10b95:	89 05 95 e6 00 00    	mov    %eax,0xe695(%rip)        # 1f230 <g_557>
   10b9b:	8b 05 8f e6 00 00    	mov    0xe68f(%rip),%eax        # 1f230 <g_557>
   10ba1:	85 c0                	test   %eax,%eax
   10ba3:	0f 84 c8 fe ff ff    	je     10a71 <func_37+0x1b42>
   10ba9:	8b 05 39 e5 00 00    	mov    0xe539(%rip),%eax        # 1f0e8 <g_65>
   10baf:	83 e8 01             	sub    $0x1,%eax
   10bb2:	89 05 30 e5 00 00    	mov    %eax,0xe530(%rip)        # 1f0e8 <g_65>
   10bb8:	8b 05 2a e5 00 00    	mov    0xe52a(%rip),%eax        # 1f0e8 <g_65>
   10bbe:	85 c0                	test   %eax,%eax
   10bc0:	0f 89 f4 f5 ff ff    	jns    101ba <func_37+0x128b>
   10bc6:	eb 01                	jmp    10bc9 <func_37+0x1c9a>
   10bc8:	90                   	nop
   10bc9:	80 bd 4d f8 ff ff 00 	cmpb   $0x0,-0x7b3(%rbp)
   10bd0:	75 0a                	jne    10bdc <func_37+0x1cad>
   10bd2:	8b 85 64 f8 ff ff    	mov    -0x79c(%rbp),%eax
   10bd8:	85 c0                	test   %eax,%eax
   10bda:	74 07                	je     10be3 <func_37+0x1cb4>
   10bdc:	b8 01 00 00 00       	mov    $0x1,%eax
   10be1:	eb 05                	jmp    10be8 <func_37+0x1cb9>
   10be3:	b8 00 00 00 00       	mov    $0x0,%eax
   10be8:	0f bf d0             	movswl %ax,%edx
   10beb:	8b 85 f8 f9 ff ff    	mov    -0x608(%rbp),%eax
   10bf1:	98                   	cwtl   
   10bf2:	89 d6                	mov    %edx,%esi
   10bf4:	89 c7                	mov    %eax,%edi
   10bf6:	e8 fa 97 ff ff       	callq  a3f5 <safe_mul_func_int16_t_s_s>
   10bfb:	0f bf d0             	movswl %ax,%edx
   10bfe:	48 8b 85 d8 fe ff ff 	mov    -0x128(%rbp),%rax
   10c05:	48 89 85 c8 f9 ff ff 	mov    %rax,-0x638(%rbp)
   10c0c:	48 8b 8d c8 f9 ff ff 	mov    -0x638(%rbp),%rcx
   10c13:	48 8d 85 60 f8 ff ff 	lea    -0x7a0(%rbp),%rax
   10c1a:	48 39 c1             	cmp    %rax,%rcx
   10c1d:	0f 94 c0             	sete   %al
   10c20:	0f b6 c0             	movzbl %al,%eax
   10c23:	89 d6                	mov    %edx,%esi
   10c25:	89 c7                	mov    %eax,%edi
   10c27:	e8 29 98 ff ff       	callq  a455 <safe_div_func_int16_t_s_s>
   10c2c:	66 85 c0             	test   %ax,%ax
   10c2f:	74 2f                	je     10c60 <func_37+0x1d31>
   10c31:	48 8d 85 68 f8 ff ff 	lea    -0x798(%rbp),%rax
   10c38:	48 89 85 e8 f8 ff ff 	mov    %rax,-0x718(%rbp)
   10c3f:	48 8d 85 e8 f8 ff ff 	lea    -0x718(%rbp),%rax
   10c46:	48 89 85 b8 f9 ff ff 	mov    %rax,-0x648(%rbp)
   10c4d:	48 8b 95 e8 f8 ff ff 	mov    -0x718(%rbp),%rdx
   10c54:	48 8b 85 b8 f9 ff ff 	mov    -0x648(%rbp),%rax
   10c5b:	48 89 10             	mov    %rdx,(%rax)
   10c5e:	eb 25                	jmp    10c85 <func_37+0x1d56>
   10c60:	48 8d 85 60 f8 ff ff 	lea    -0x7a0(%rbp),%rax
   10c67:	48 89 85 b0 f9 ff ff 	mov    %rax,-0x650(%rbp)
   10c6e:	48 8b 85 f8 f8 ff ff 	mov    -0x708(%rbp),%rax
   10c75:	48 8b 00             	mov    (%rax),%rax
   10c78:	48 8b 00             	mov    (%rax),%rax
   10c7b:	48 8b 95 b0 f9 ff ff 	mov    -0x650(%rbp),%rdx
   10c82:	48 89 10             	mov    %rdx,(%rax)
   10c85:	48 c7 05 80 e4 00 00 	movq   $0x0,0xe480(%rip)        # 1f110 <g_117>
   10c8c:	00 00 00 00 
   10c90:	eb 34                	jmp    10cc6 <func_37+0x1d97>
   10c92:	66 c7 85 5c f8 ff ff 	movw   $0xdc7,-0x7a4(%rbp)
   10c99:	c7 0d 
   10c9b:	0f b7 85 5c f8 ff ff 	movzwl -0x7a4(%rbp),%eax
   10ca2:	83 c0 01             	add    $0x1,%eax
   10ca5:	66 89 85 5c f8 ff ff 	mov    %ax,-0x7a4(%rbp)
   10cac:	66 83 bd 5c f8 ff ff 	cmpw   $0x0,-0x7a4(%rbp)
   10cb3:	00 
   10cb4:	48 8b 05 55 e4 00 00 	mov    0xe455(%rip),%rax        # 1f110 <g_117>
   10cbb:	48 83 c0 01          	add    $0x1,%rax
   10cbf:	48 89 05 4a e4 00 00 	mov    %rax,0xe44a(%rip)        # 1f110 <g_117>
   10cc6:	48 8b 05 43 e4 00 00 	mov    0xe443(%rip),%rax        # 1f110 <g_117>
   10ccd:	48 83 f8 02          	cmp    $0x2,%rax
   10cd1:	76 bf                	jbe    10c92 <func_37+0x1d63>
   10cd3:	8b 05 07 e4 00 00    	mov    0xe407(%rip),%eax        # 1f0e0 <g_59>
   10cd9:	83 c0 01             	add    $0x1,%eax
   10cdc:	89 05 fe e3 00 00    	mov    %eax,0xe3fe(%rip)        # 1f0e0 <g_59>
   10ce2:	8b 05 f8 e3 00 00    	mov    0xe3f8(%rip),%eax        # 1f0e0 <g_59>
   10ce8:	85 c0                	test   %eax,%eax
   10cea:	0f 8e a7 ec ff ff    	jle    f997 <func_37+0xa68>
   10cf0:	80 bd 4e f8 ff ff 00 	cmpb   $0x0,-0x7b2(%rbp)
   10cf7:	74 79                	je     10d72 <func_37+0x1e43>
   10cf9:	0f b6 05 d2 e5 00 00 	movzbl 0xe5d2(%rip),%eax        # 1f2d2 <g_591>
   10d00:	83 e0 7f             	and    $0x7f,%eax
   10d03:	0f b6 c0             	movzbl %al,%eax
   10d06:	48 89 05 5b e4 00 00 	mov    %rax,0xe45b(%rip)        # 1f168 <g_162+0x28>
   10d0d:	48 8b 15 54 e4 00 00 	mov    0xe454(%rip),%rdx        # 1f168 <g_162+0x28>
   10d14:	48 8b 85 10 f9 ff ff 	mov    -0x6f0(%rbp),%rax
   10d1b:	48 89 10             	mov    %rdx,(%rax)
   10d1e:	48 8b 85 10 f9 ff ff 	mov    -0x6f0(%rbp),%rax
   10d25:	48 8b 10             	mov    (%rax),%rdx
   10d28:	0f b6 05 fc e5 00 00 	movzbl 0xe5fc(%rip),%eax        # 1f32b <g_603+0x3>
   10d2f:	83 e0 7f             	and    $0x7f,%eax
   10d32:	0f b6 c0             	movzbl %al,%eax
   10d35:	48 89 d6             	mov    %rdx,%rsi
   10d38:	48 89 c7             	mov    %rax,%rdi
   10d3b:	e8 6f a3 ff ff       	callq  b0af <safe_div_func_uint64_t_u_u>
   10d40:	0f b6 d0             	movzbl %al,%edx
   10d43:	0f b6 05 fc e5 00 00 	movzbl 0xe5fc(%rip),%eax        # 1f346 <g_612>
   10d4a:	83 e0 7f             	and    $0x7f,%eax
   10d4d:	0f b6 c8             	movzbl %al,%ecx
   10d50:	8b 05 1a ea 00 00    	mov    0xea1a(%rip),%eax        # 1f770 <g_1170>
   10d56:	39 c1                	cmp    %eax,%ecx
   10d58:	0f 92 c0             	setb   %al
   10d5b:	0f b6 c0             	movzbl %al,%eax
   10d5e:	89 d6                	mov    %edx,%esi
   10d60:	89 c7                	mov    %eax,%edi
   10d62:	e8 2c 9e ff ff       	callq  ab93 <safe_mul_func_uint8_t_u_u>
   10d67:	84 c0                	test   %al,%al
   10d69:	74 07                	je     10d72 <func_37+0x1e43>
   10d6b:	b8 01 00 00 00       	mov    $0x1,%eax
   10d70:	eb 05                	jmp    10d77 <func_37+0x1e48>
   10d72:	b8 00 00 00 00       	mov    $0x0,%eax
   10d77:	48 63 d0             	movslq %eax,%rdx
   10d7a:	8b 85 ac f8 ff ff    	mov    -0x754(%rbp),%eax
   10d80:	48 89 d6             	mov    %rdx,%rsi
   10d83:	48 89 c7             	mov    %rax,%rdi
   10d86:	e8 1d 9b ff ff       	callq  a8a8 <safe_sub_func_int64_t_s_s>
   10d8b:	89 c2                	mov    %eax,%edx
   10d8d:	8b 05 59 e3 00 00    	mov    0xe359(%rip),%eax        # 1f0ec <g_69>
   10d93:	21 d0                	and    %edx,%eax
   10d95:	89 05 51 e3 00 00    	mov    %eax,0xe351(%rip)        # 1f0ec <g_69>
   10d9b:	8b 05 4b e3 00 00    	mov    0xe34b(%rip),%eax        # 1f0ec <g_69>
   10da1:	21 85 b0 f8 ff ff    	and    %eax,-0x750(%rbp)
   10da7:	0f b6 05 b1 e4 00 00 	movzbl 0xe4b1(%rip),%eax        # 1f25f <g_568+0xf>
   10dae:	83 e0 7f             	and    $0x7f,%eax
   10db1:	48 8b 5d c8          	mov    -0x38(%rbp),%rbx
   10db5:	64 48 33 1c 25 28 00 	xor    %fs:0x28,%rbx
   10dbc:	00 00 
   10dbe:	74 05                	je     10dc5 <func_37+0x1e96>
   10dc0:	e8 ab 92 ff ff       	callq  a070 <__stack_chk_fail@plt>
   10dc5:	48 81 c4 b8 07 00 00 	add    $0x7b8,%rsp
   10dcc:	5b                   	pop    %rbx
   10dcd:	41 5c                	pop    %r12
   10dcf:	41 5d                	pop    %r13
   10dd1:	41 5e                	pop    %r14
   10dd3:	41 5f                	pop    %r15
   10dd5:	5d                   	pop    %rbp
   10dd6:	c3                   	retq   

0000000000010dd7 <func_40>:
   10dd7:	f3 0f 1e fa          	endbr64 
   10ddb:	55                   	push   %rbp
   10ddc:	48 89 e5             	mov    %rsp,%rbp
   10ddf:	48 89 7d d8          	mov    %rdi,-0x28(%rbp)
   10de3:	66 c7 45 ee 00 00    	movw   $0x0,-0x12(%rbp)
   10de9:	c7 05 29 e4 00 00 f1 	movl   $0xfffffff1,0xe429(%rip)        # 1f21c <g_426>
   10df0:	ff ff ff 
   10df3:	e9 83 00 00 00       	jmpq   10e7b <func_40+0xa4>
   10df8:	48 8d 05 61 e6 00 00 	lea    0xe661(%rip),%rax        # 1f460 <g_799>
   10dff:	48 89 45 f8          	mov    %rax,-0x8(%rbp)
   10e03:	66 c7 05 20 e4 00 00 	movw   $0x0,0xe420(%rip)        # 1f22c <g_453>
   10e0a:	00 00 
   10e0c:	eb 43                	jmp    10e51 <func_40+0x7a>
   10e0e:	48 c7 45 f0 00 00 00 	movq   $0x0,-0x10(%rbp)
   10e15:	00 
   10e16:	c7 45 f0 8a ea 6a 02 	movl   $0x26aea8a,-0x10(%rbp)
   10e1d:	0f b7 05 08 e4 00 00 	movzwl 0xe408(%rip),%eax        # 1f22c <g_453>
   10e24:	0f b7 c0             	movzwl %ax,%eax
   10e27:	48 98                	cltq   
   10e29:	48 8d 0c c5 00 00 00 	lea    0x0(,%rax,8),%rcx
   10e30:	00 
   10e31:	48 8d 15 08 e3 00 00 	lea    0xe308(%rip),%rdx        # 1f140 <g_162>
   10e38:	48 8b 45 f0          	mov    -0x10(%rbp),%rax
   10e3c:	48 89 04 11          	mov    %rax,(%rcx,%rdx,1)
   10e40:	0f b7 05 e5 e3 00 00 	movzwl 0xe3e5(%rip),%eax        # 1f22c <g_453>
   10e47:	83 c0 01             	add    $0x1,%eax
   10e4a:	66 89 05 db e3 00 00 	mov    %ax,0xe3db(%rip)        # 1f22c <g_453>
   10e51:	0f b7 05 d4 e3 00 00 	movzwl 0xe3d4(%rip),%eax        # 1f22c <g_453>
   10e58:	66 83 f8 05          	cmp    $0x5,%ax
   10e5c:	76 b0                	jbe    10e0e <func_40+0x37>
   10e5e:	48 8b 05 23 12 01 00 	mov    0x11223(%rip),%rax        # 22088 <g_193>
   10e65:	48 8b 55 f8          	mov    -0x8(%rbp),%rdx
   10e69:	48 89 10             	mov    %rdx,(%rax)
   10e6c:	8b 05 aa e3 00 00    	mov    0xe3aa(%rip),%eax        # 1f21c <g_426>
   10e72:	83 c0 01             	add    $0x1,%eax
   10e75:	89 05 a1 e3 00 00    	mov    %eax,0xe3a1(%rip)        # 1f21c <g_426>
   10e7b:	8b 05 9b e3 00 00    	mov    0xe39b(%rip),%eax        # 1f21c <g_426>
   10e81:	83 f8 25             	cmp    $0x25,%eax
   10e84:	0f 86 6e ff ff ff    	jbe    10df8 <func_40+0x21>
   10e8a:	48 8d 05 87 e3 00 00 	lea    0xe387(%rip),%rax        # 1f218 <g_376+0x4>
   10e91:	5d                   	pop    %rbp
   10e92:	c3                   	retq   

0000000000010e93 <func_44>:
   10e93:	f3 0f 1e fa          	endbr64 
   10e97:	55                   	push   %rbp
   10e98:	48 89 e5             	mov    %rsp,%rbp
   10e9b:	41 57                	push   %r15
   10e9d:	41 56                	push   %r14
   10e9f:	41 55                	push   %r13
   10ea1:	41 54                	push   %r12
   10ea3:	53                   	push   %rbx
   10ea4:	48 81 ec 00 10 00 00 	sub    $0x1000,%rsp
   10eab:	48 83 0c 24 00       	orq    $0x0,(%rsp)
   10eb0:	48 81 ec c8 00 00 00 	sub    $0xc8,%rsp
   10eb7:	89 bd 2c ef ff ff    	mov    %edi,-0x10d4(%rbp)
   10ebd:	48 89 b5 20 ef ff ff 	mov    %rsi,-0x10e0(%rbp)
   10ec4:	64 48 8b 04 25 28 00 	mov    %fs:0x28,%rax
   10ecb:	00 00 
   10ecd:	48 89 45 c8          	mov    %rax,-0x38(%rbp)
   10ed1:	31 c0                	xor    %eax,%eax
   10ed3:	48 c7 85 c8 ef ff ff 	movq   $0x0,-0x1038(%rbp)
   10eda:	00 00 00 00 
   10ede:	c7 85 c8 ef ff ff f8 	movl   $0xfffffff8,-0x1038(%rbp)
   10ee5:	ff ff ff 
   10ee8:	48 c7 85 20 f0 ff ff 	movq   $0x0,-0xfe0(%rbp)
   10eef:	00 00 00 00 
   10ef3:	c7 85 50 f2 ff ff 4f 	movl   $0xdcc2c64f,-0xdb0(%rbp)
   10efa:	c6 c2 dc 
   10efd:	c7 85 54 f2 ff ff e2 	movl   $0x66aa79e2,-0xdac(%rbp)
   10f04:	79 aa 66 
   10f07:	c7 85 58 f2 ff ff 4f 	movl   $0xdcc2c64f,-0xda8(%rbp)
   10f0e:	c6 c2 dc 
   10f11:	c7 85 5c f2 ff ff 4f 	movl   $0xdcc2c64f,-0xda4(%rbp)
   10f18:	c6 c2 dc 
   10f1b:	c7 85 60 f2 ff ff e2 	movl   $0x66aa79e2,-0xda0(%rbp)
   10f22:	79 aa 66 
   10f25:	c7 85 64 f2 ff ff 4f 	movl   $0xdcc2c64f,-0xd9c(%rbp)
   10f2c:	c6 c2 dc 
   10f2f:	c7 85 68 f2 ff ff 4f 	movl   $0xdcc2c64f,-0xd98(%rbp)
   10f36:	c6 c2 dc 
   10f39:	c7 85 6c f2 ff ff e2 	movl   $0x66aa79e2,-0xd94(%rbp)
   10f40:	79 aa 66 
   10f43:	c7 85 70 f2 ff ff 4f 	movl   $0xdcc2c64f,-0xd90(%rbp)
   10f4a:	c6 c2 dc 
   10f4d:	c7 85 74 f2 ff ff 4f 	movl   $0xdcc2c64f,-0xd8c(%rbp)
   10f54:	c6 c2 dc 
   10f57:	66 c7 85 42 ef ff ff 	movw   $0x0,-0x10be(%rbp)
   10f5e:	00 00 
   10f60:	48 8d 05 c1 e2 00 00 	lea    0xe2c1(%rip),%rax        # 1f228 <g_450>
   10f67:	48 89 85 d0 ef ff ff 	mov    %rax,-0x1030(%rbp)
   10f6e:	48 8d 85 d0 ef ff ff 	lea    -0x1030(%rbp),%rax
   10f75:	48 89 85 d8 ef ff ff 	mov    %rax,-0x1028(%rbp)
   10f7c:	c7 85 6c ef ff ff 06 	movl   $0x6,-0x1094(%rbp)
   10f83:	00 00 00 
   10f86:	c7 85 4c ef ff ff f7 	movl   $0xdf3f4cf7,-0x10b4(%rbp)
   10f8d:	4c 3f df 
   10f90:	48 8d 05 b9 23 01 00 	lea    0x123b9(%rip),%rax        # 23350 <g_198>
   10f97:	48 89 85 28 f0 ff ff 	mov    %rax,-0xfd8(%rbp)
   10f9e:	66 c7 85 3e ef ff ff 	movw   $0x6327,-0x10c2(%rbp)
   10fa5:	27 63 
   10fa7:	48 c7 85 30 f0 ff ff 	movq   $0x0,-0xfd0(%rbp)
   10fae:	00 00 00 00 
   10fb2:	48 8d 05 2f e1 00 00 	lea    0xe12f(%rip),%rax        # 1f0e8 <g_65>
   10fb9:	48 89 85 38 f0 ff ff 	mov    %rax,-0xfc8(%rbp)
   10fc0:	c6 85 36 ef ff ff ff 	movb   $0xff,-0x10ca(%rbp)
   10fc7:	c6 85 35 ef ff ff fd 	movb   $0xfd,-0x10cb(%rbp)
   10fce:	48 8d 85 50 f2 ff ff 	lea    -0xdb0(%rbp),%rax
   10fd5:	48 83 c0 14          	add    $0x14,%rax
   10fd9:	48 89 85 40 f0 ff ff 	mov    %rax,-0xfc0(%rbp)
   10fe0:	48 8d 85 50 f2 ff ff 	lea    -0xdb0(%rbp),%rax
   10fe7:	48 83 c0 20          	add    $0x20,%rax
   10feb:	48 89 85 48 f0 ff ff 	mov    %rax,-0xfb8(%rbp)
   10ff2:	48 8d 05 7f 23 01 00 	lea    0x1237f(%rip),%rax        # 23378 <g_507>
   10ff9:	48 89 85 50 f0 ff ff 	mov    %rax,-0xfb0(%rbp)
   11000:	48 8d 85 4c ef ff ff 	lea    -0x10b4(%rbp),%rax
   11007:	48 89 85 58 f0 ff ff 	mov    %rax,-0xfa8(%rbp)
   1100e:	48 8d 05 d3 e0 00 00 	lea    0xe0d3(%rip),%rax        # 1f0e8 <g_65>
   11015:	48 89 85 60 f0 ff ff 	mov    %rax,-0xfa0(%rbp)
   1101c:	48 c7 85 68 f0 ff ff 	movq   $0x0,-0xf98(%rbp)
   11023:	00 00 00 00 
   11027:	c7 85 5c ef ff ff 00 	movl   $0x0,-0x10a4(%rbp)
   1102e:	00 00 00 
   11031:	eb 1e                	jmp    11051 <func_44+0x1be>
   11033:	8b 85 5c ef ff ff    	mov    -0x10a4(%rbp),%eax
   11039:	48 98                	cltq   
   1103b:	48 8d 15 aa e0 00 00 	lea    0xe0aa(%rip),%rdx        # 1f0ec <g_69>
   11042:	48 89 94 c5 b0 f2 ff 	mov    %rdx,-0xd50(%rbp,%rax,8)
   11049:	ff 
   1104a:	83 85 5c ef ff ff 01 	addl   $0x1,-0x10a4(%rbp)
   11051:	83 bd 5c ef ff ff 06 	cmpl   $0x6,-0x10a4(%rbp)
   11058:	7e d9                	jle    11033 <func_44+0x1a0>
   1105a:	90                   	nop
   1105b:	48 c7 85 20 ef ff ff 	movq   $0x0,-0x10e0(%rbp)
   11062:	00 00 00 00 
   11066:	eb 66                	jmp    110ce <func_44+0x23b>
   11068:	48 8d 05 b1 e1 00 00 	lea    0xe1b1(%rip),%rax        # 1f220 <g_436>
   1106f:	48 89 85 18 f0 ff ff 	mov    %rax,-0xfe8(%rbp)
   11076:	48 8d 85 18 f0 ff ff 	lea    -0xfe8(%rbp),%rax
   1107d:	48 89 85 10 f2 ff ff 	mov    %rax,-0xdf0(%rbp)
   11084:	48 8d 05 9d e1 00 00 	lea    0xe19d(%rip),%rax        # 1f228 <g_450>
   1108b:	48 89 85 18 f2 ff ff 	mov    %rax,-0xde8(%rbp)
   11092:	c7 85 c4 ef ff ff 09 	movl   $0x8290f09,-0x103c(%rbp)
   11099:	0f 29 08 
   1109c:	48 8d 85 50 f2 ff ff 	lea    -0xdb0(%rbp),%rax
   110a3:	48 83 c0 18          	add    $0x18,%rax
   110a7:	48 89 85 20 f2 ff ff 	mov    %rax,-0xde0(%rbp)
   110ae:	48 8b 85 20 ef ff ff 	mov    -0x10e0(%rbp),%rax
   110b5:	0f b6 c0             	movzbl %al,%eax
   110b8:	be 03 00 00 00       	mov    $0x3,%esi
   110bd:	89 c7                	mov    %eax,%edi
   110bf:	e8 96 9a ff ff       	callq  ab5a <safe_add_func_uint8_t_u_u>
   110c4:	0f b6 c0             	movzbl %al,%eax
   110c7:	48 89 85 20 ef ff ff 	mov    %rax,-0x10e0(%rbp)
   110ce:	48 8b 85 20 ef ff ff 	mov    -0x10e0(%rbp),%rax
   110d5:	48 83 f8 11          	cmp    $0x11,%rax
   110d9:	77 8d                	ja     11068 <func_44+0x1d5>
   110db:	83 bd 2c ef ff ff 00 	cmpl   $0x0,-0x10d4(%rbp)
   110e2:	0f 8e d5 3a 00 00    	jle    14bbd <func_44+0x3d2a>
   110e8:	c7 85 30 f2 ff ff 00 	movl   $0x0,-0xdd0(%rbp)
   110ef:	00 00 00 
   110f2:	c7 85 34 f2 ff ff 00 	movl   $0x0,-0xdcc(%rbp)
   110f9:	00 00 00 
   110fc:	c7 85 38 f2 ff ff 33 	movl   $0x824eb133,-0xdc8(%rbp)
   11103:	b1 4e 82 
   11106:	c7 85 3c f2 ff ff 00 	movl   $0x0,-0xdc4(%rbp)
   1110d:	00 00 00 
   11110:	c7 85 40 f2 ff ff 00 	movl   $0x0,-0xdc0(%rbp)
   11117:	00 00 00 
   1111a:	c7 85 44 f2 ff ff 33 	movl   $0x824eb133,-0xdbc(%rbp)
   11121:	b1 4e 82 
   11124:	c7 85 48 f2 ff ff 00 	movl   $0x0,-0xdb8(%rbp)
   1112b:	00 00 00 
   1112e:	48 8d 85 90 f5 ff ff 	lea    -0xa70(%rbp),%rax
   11135:	48 8d 15 e4 a4 00 00 	lea    0xa4e4(%rip),%rdx        # 1b620 <g_1906+0x540>
   1113c:	b9 28 00 00 00       	mov    $0x28,%ecx
   11141:	48 89 c7             	mov    %rax,%rdi
   11144:	48 89 d6             	mov    %rdx,%rsi
   11147:	f3 48 a5             	rep movsq %ds:(%rsi),%es:(%rdi)
   1114a:	48 b8 a7 67 02 e1 15 	movabs $0x1c37c15e10267a7,%rax
   11151:	7c c3 01 
   11154:	48 89 85 e0 ef ff ff 	mov    %rax,-0x1020(%rbp)
   1115b:	48 c7 85 e8 ef ff ff 	movq   $0x0,-0x1018(%rbp)
   11162:	00 00 00 00 
   11166:	48 8d 05 6c df 00 00 	lea    0xdf6c(%rip),%rax        # 1f0d9 <g_34>
   1116d:	48 89 85 70 f0 ff ff 	mov    %rax,-0xf90(%rbp)
   11174:	c6 85 37 ef ff ff fd 	movb   $0xfd,-0x10c9(%rbp)
   1117b:	c6 85 38 ef ff ff aa 	movb   $0xaa,-0x10c8(%rbp)
   11182:	48 c7 85 78 f0 ff ff 	movq   $0x0,-0xf88(%rbp)
   11189:	00 00 00 00 
   1118d:	48 c7 85 f0 ef ff ff 	movq   $0x0,-0x1010(%rbp)
   11194:	00 00 00 00 
   11198:	c7 85 f0 ef ff ff 02 	movl   $0x2,-0x1010(%rbp)
   1119f:	00 00 00 
   111a2:	c7 85 50 ef ff ff 00 	movl   $0x0,-0x10b0(%rbp)
   111a9:	00 00 00 
   111ac:	eb 1e                	jmp    111cc <func_44+0x339>
   111ae:	8b 85 50 ef ff ff    	mov    -0x10b0(%rbp),%eax
   111b4:	48 98                	cltq   
   111b6:	48 8d 15 53 e0 00 00 	lea    0xe053(%rip),%rdx        # 1f210 <g_263+0x8>
   111bd:	48 89 94 c5 28 f2 ff 	mov    %rdx,-0xdd8(%rbp,%rax,8)
   111c4:	ff 
   111c5:	83 85 50 ef ff ff 01 	addl   $0x1,-0x10b0(%rbp)
   111cc:	83 bd 50 ef ff ff 00 	cmpl   $0x0,-0x10b0(%rbp)
   111d3:	7e d9                	jle    111ae <func_44+0x31b>
   111d5:	8b 85 c8 ef ff ff    	mov    -0x1038(%rbp),%eax
   111db:	85 c0                	test   %eax,%eax
   111dd:	0f 84 84 0a 00 00    	je     11c67 <func_44+0xdd4>
   111e3:	48 8d 85 d8 ef ff ff 	lea    -0x1028(%rbp),%rax
   111ea:	48 89 85 b0 f4 ff ff 	mov    %rax,-0xb50(%rbp)
   111f1:	48 8d 85 d8 ef ff ff 	lea    -0x1028(%rbp),%rax
   111f8:	48 89 85 b8 f4 ff ff 	mov    %rax,-0xb48(%rbp)
   111ff:	48 8d 85 d8 ef ff ff 	lea    -0x1028(%rbp),%rax
   11206:	48 89 85 c0 f4 ff ff 	mov    %rax,-0xb40(%rbp)
   1120d:	48 8d 85 d8 ef ff ff 	lea    -0x1028(%rbp),%rax
   11214:	48 89 85 c8 f4 ff ff 	mov    %rax,-0xb38(%rbp)
   1121b:	48 8d 85 d8 ef ff ff 	lea    -0x1028(%rbp),%rax
   11222:	48 89 85 d0 f4 ff ff 	mov    %rax,-0xb30(%rbp)
   11229:	48 c7 85 d8 f4 ff ff 	movq   $0x0,-0xb28(%rbp)
   11230:	00 00 00 00 
   11234:	48 c7 85 e0 f4 ff ff 	movq   $0x0,-0xb20(%rbp)
   1123b:	00 00 00 00 
   1123f:	48 c7 85 e8 f4 ff ff 	movq   $0x0,-0xb18(%rbp)
   11246:	00 00 00 00 
   1124a:	48 c7 85 f0 f4 ff ff 	movq   $0x0,-0xb10(%rbp)
   11251:	00 00 00 00 
   11255:	48 c7 85 f8 f4 ff ff 	movq   $0x0,-0xb08(%rbp)
   1125c:	00 00 00 00 
   11260:	48 8d 85 b0 f8 ff ff 	lea    -0x750(%rbp),%rax
   11267:	48 8d 15 72 ff 00 00 	lea    0xff72(%rip),%rdx        # 211e0 <g_2057+0x1960>
   1126e:	b9 c8 00 00 00       	mov    $0xc8,%ecx
   11273:	48 89 c7             	mov    %rax,%rdi
   11276:	48 89 d6             	mov    %rdx,%rsi
   11279:	f3 48 a5             	rep movsq %ds:(%rsi),%es:(%rdi)
   1127c:	48 c7 85 b8 f0 ff ff 	movq   $0x0,-0xf48(%rbp)
   11283:	00 00 00 00 
   11287:	48 8d 05 ec de 00 00 	lea    0xdeec(%rip),%rax        # 1f17a <g_235>
   1128e:	48 89 85 f8 ef ff ff 	mov    %rax,-0x1008(%rbp)
   11295:	48 8d 05 30 df 00 00 	lea    0xdf30(%rip),%rax        # 1f1cc <g_256+0x4c>
   1129c:	48 89 85 c0 f0 ff ff 	mov    %rax,-0xf40(%rbp)
   112a3:	48 8d 05 4a de 00 00 	lea    0xde4a(%rip),%rax        # 1f0f4 <g_97>
   112aa:	48 89 85 c8 f0 ff ff 	mov    %rax,-0xf38(%rbp)
   112b1:	66 c7 85 44 ef ff ff 	movw   $0xba39,-0x10bc(%rbp)
   112b8:	39 ba 
   112ba:	48 c7 85 00 f0 ff ff 	movq   $0x0,-0x1000(%rbp)
   112c1:	00 00 00 00 
   112c5:	c7 85 00 f0 ff ff ff 	movl   $0xffffffff,-0x1000(%rbp)
   112cc:	ff ff ff 
   112cf:	48 8d 05 b2 0d 01 00 	lea    0x10db2(%rip),%rax        # 22088 <g_193>
   112d6:	48 89 85 d0 f0 ff ff 	mov    %rax,-0xf30(%rbp)
   112dd:	48 8d 85 f8 ef ff ff 	lea    -0x1008(%rbp),%rax
   112e4:	48 89 85 08 f0 ff ff 	mov    %rax,-0xff8(%rbp)
   112eb:	48 8d 85 08 f0 ff ff 	lea    -0xff8(%rbp),%rax
   112f2:	48 89 85 d8 f0 ff ff 	mov    %rax,-0xf28(%rbp)
   112f9:	c7 85 7c ef ff ff 01 	movl   $0x1,-0x1084(%rbp)
   11300:	00 00 00 
   11303:	66 c7 85 4a ef ff ff 	movw   $0x9ffc,-0x10b6(%rbp)
   1130a:	fc 9f 
   1130c:	c7 85 40 f2 ff ff cc 	movl   $0x506f65cc,-0xdc0(%rbp)
   11313:	65 6f 50 
   11316:	48 8b 85 d8 ef ff ff 	mov    -0x1028(%rbp),%rax
   1131d:	48 89 05 84 0d 01 00 	mov    %rax,0x10d84(%rip)        # 220a8 <g_462>
   11324:	c7 85 54 f2 ff ff 00 	movl   $0x0,-0xdac(%rbp)
   1132b:	00 00 00 
   1132e:	8b 95 54 f2 ff ff    	mov    -0xdac(%rbp),%edx
   11334:	8b 05 b2 dd 00 00    	mov    0xddb2(%rip),%eax        # 1f0ec <g_69>
   1133a:	09 d0                	or     %edx,%eax
   1133c:	89 05 aa dd 00 00    	mov    %eax,0xddaa(%rip)        # 1f0ec <g_69>
   11342:	8b 9d 2c ef ff ff    	mov    -0x10d4(%rbp),%ebx
   11348:	8b 05 9e dd 00 00    	mov    0xdd9e(%rip),%eax        # 1f0ec <g_69>
   1134e:	41 89 c7             	mov    %eax,%r15d
   11351:	48 8b 85 20 ef ff ff 	mov    -0x10e0(%rbp),%rax
   11358:	44 0f bf e0          	movswl %ax,%r12d
   1135c:	48 8b 85 20 ef ff ff 	mov    -0x10e0(%rbp),%rax
   11363:	48 85 c0             	test   %rax,%rax
   11366:	0f 84 ab 00 00 00    	je     11417 <func_44+0x584>
   1136c:	44 8b ad 30 f2 ff ff 	mov    -0xdd0(%rbp),%r13d
   11373:	0f b6 05 a0 de 00 00 	movzbl 0xdea0(%rip),%eax        # 1f21a <g_381>
   1137a:	44 0f b6 f0          	movzbl %al,%r14d
   1137e:	0f b6 05 6f dd 00 00 	movzbl 0xdd6f(%rip),%eax        # 1f0f4 <g_97>
   11385:	66 98                	cbtw   
   11387:	0f b7 c0             	movzwl %ax,%eax
   1138a:	89 c6                	mov    %eax,%esi
   1138c:	bf 53 f2 00 00       	mov    $0xf253,%edi
   11391:	e8 89 99 ff ff       	callq  ad1f <safe_sub_func_uint16_t_u_u>
   11396:	8b 85 2c ef ff ff    	mov    -0x10d4(%rbp),%eax
   1139c:	89 c2                	mov    %eax,%edx
   1139e:	48 8b 85 c0 f0 ff ff 	mov    -0xf40(%rbp),%rax
   113a5:	66 89 10             	mov    %dx,(%rax)
   113a8:	48 8b 85 c0 f0 ff ff 	mov    -0xf40(%rbp),%rax
   113af:	0f b7 00             	movzwl (%rax),%eax
   113b2:	66 3d 42 93          	cmp    $0x9342,%ax
   113b6:	0f 95 c0             	setne  %al
   113b9:	0f b6 c0             	movzbl %al,%eax
   113bc:	8b 95 2c ef ff ff    	mov    -0x10d4(%rbp),%edx
   113c2:	21 d0                	and    %edx,%eax
   113c4:	98                   	cwtl   
   113c5:	44 89 f6             	mov    %r14d,%esi
   113c8:	89 c7                	mov    %eax,%edi
   113ca:	e8 94 91 ff ff       	callq  a563 <safe_rshift_func_int16_t_s_u>
   113cf:	66 83 f8 06          	cmp    $0x6,%ax
   113d3:	0f 9e c0             	setle  %al
   113d6:	0f b6 c0             	movzbl %al,%eax
   113d9:	44 89 ee             	mov    %r13d,%esi
   113dc:	89 c7                	mov    %eax,%edi
   113de:	e8 42 9b ff ff       	callq  af25 <safe_div_func_uint32_t_u_u>
   113e3:	48 8b 05 96 0c 01 00 	mov    0x10c96(%rip),%rax        # 22080 <g_194>
   113ea:	8b 00                	mov    (%rax),%eax
   113ec:	be 01 00 00 00       	mov    $0x1,%esi
   113f1:	89 c7                	mov    %eax,%edi
   113f3:	e8 0d 92 ff ff       	callq  a605 <safe_sub_func_int32_t_s_s>
   113f8:	8b 15 5e dc 00 00    	mov    0xdc5e(%rip),%edx        # 1f05c <g_2+0x1c>
   113fe:	21 d0                	and    %edx,%eax
   11400:	be 01 00 00 00       	mov    $0x1,%esi
   11405:	89 c7                	mov    %eax,%edi
   11407:	e8 c4 9a ff ff       	callq  aed0 <safe_sub_func_uint32_t_u_u>
   1140c:	85 c0                	test   %eax,%eax
   1140e:	74 07                	je     11417 <func_44+0x584>
   11410:	b8 01 00 00 00       	mov    $0x1,%eax
   11415:	eb 05                	jmp    1141c <func_44+0x589>
   11417:	b8 00 00 00 00       	mov    $0x0,%eax
   1141c:	89 c2                	mov    %eax,%edx
   1141e:	8b 85 2c ef ff ff    	mov    -0x10d4(%rbp),%eax
   11424:	31 d0                	xor    %edx,%eax
   11426:	0f b7 c0             	movzwl %ax,%eax
   11429:	be 0a 00 00 00       	mov    $0xa,%esi
   1142e:	89 c7                	mov    %eax,%edi
   11430:	e8 89 99 ff ff       	callq  adbe <safe_lshift_func_uint16_t_u_s>
   11435:	0f b7 c0             	movzwl %ax,%eax
   11438:	48 89 c6             	mov    %rax,%rsi
   1143b:	bf 00 00 00 00       	mov    $0x0,%edi
   11440:	e8 6a 9c ff ff       	callq  b0af <safe_div_func_uint64_t_u_u>
   11445:	98                   	cwtl   
   11446:	44 89 e6             	mov    %r12d,%esi
   11449:	89 c7                	mov    %eax,%edi
   1144b:	e8 a5 8f ff ff       	callq  a3f5 <safe_mul_func_int16_t_s_s>
   11450:	48 8b 85 20 ef ff ff 	mov    -0x10e0(%rbp),%rax
   11457:	0f b6 c8             	movzbl %al,%ecx
   1145a:	48 8b 15 37 0c 01 00 	mov    0x10c37(%rip),%rdx        # 22098 <g_375>
   11461:	0f b6 02             	movzbl (%rdx),%eax
   11464:	8d 70 01             	lea    0x1(%rax),%esi
   11467:	40 88 32             	mov    %sil,(%rdx)
   1146a:	88 05 98 dc 00 00    	mov    %al,0xdc98(%rip)        # 1f108 <g_114>
   11470:	0f b6 05 91 dc 00 00 	movzbl 0xdc91(%rip),%eax        # 1f108 <g_114>
   11477:	0f b6 c0             	movzbl %al,%eax
   1147a:	89 ce                	mov    %ecx,%esi
   1147c:	89 c7                	mov    %eax,%edi
   1147e:	e8 10 97 ff ff       	callq  ab93 <safe_mul_func_uint8_t_u_u>
   11483:	48 8b 85 c8 f0 ff ff 	mov    -0xf38(%rbp),%rax
   1148a:	c6 00 01             	movb   $0x1,(%rax)
   1148d:	8b 85 2c ef ff ff    	mov    -0x10d4(%rbp),%eax
   11493:	89 c6                	mov    %eax,%esi
   11495:	bf 01 00 00 00       	mov    $0x1,%edi
   1149a:	e8 66 91 ff ff       	callq  a605 <safe_sub_func_int32_t_s_s>
   1149f:	0f b7 c0             	movzwl %ax,%eax
   114a2:	44 89 fe             	mov    %r15d,%esi
   114a5:	89 c7                	mov    %eax,%edi
   114a7:	e8 ce 99 ff ff       	callq  ae7a <safe_rshift_func_uint16_t_u_u>
   114ac:	48 8b 05 d5 0b 01 00 	mov    0x10bd5(%rip),%rax        # 22088 <g_193>
   114b3:	48 8b 00             	mov    (%rax),%rax
   114b6:	8b 00                	mov    (%rax),%eax
   114b8:	83 f8 01             	cmp    $0x1,%eax
   114bb:	be 03 00 00 00       	mov    $0x3,%esi
   114c0:	bf 01 00 00 00       	mov    $0x1,%edi
   114c5:	e8 02 92 ff ff       	callq  a6cc <safe_mod_func_int32_t_s_s>
   114ca:	85 c0                	test   %eax,%eax
   114cc:	74 10                	je     114de <func_44+0x64b>
   114ce:	83 bd 2c ef ff ff 00 	cmpl   $0x0,-0x10d4(%rbp)
   114d5:	74 07                	je     114de <func_44+0x64b>
   114d7:	b8 01 00 00 00       	mov    $0x1,%eax
   114dc:	eb 05                	jmp    114e3 <func_44+0x650>
   114de:	b8 00 00 00 00       	mov    $0x0,%eax
   114e3:	89 c2                	mov    %eax,%edx
   114e5:	48 8b 05 a4 0b 01 00 	mov    0x10ba4(%rip),%rax        # 22090 <g_192>
   114ec:	48 8b 00             	mov    (%rax),%rax
   114ef:	48 8b 00             	mov    (%rax),%rax
   114f2:	8b 00                	mov    (%rax),%eax
   114f4:	21 c2                	and    %eax,%edx
   114f6:	8b 85 2c ef ff ff    	mov    -0x10d4(%rbp),%eax
   114fc:	31 d0                	xor    %edx,%eax
   114fe:	98                   	cwtl   
   114ff:	48 8b 95 f8 ef ff ff 	mov    -0x1008(%rbp),%rdx
   11506:	66 c7 02 f9 ff       	movw   $0xfff9,(%rdx)
   1150b:	89 c6                	mov    %eax,%esi
   1150d:	bf f9 ff ff ff       	mov    $0xfffffff9,%edi
   11512:	e8 9c 8e ff ff       	callq  a3b3 <safe_add_func_int16_t_s_s>
   11517:	88 05 fd dc 00 00    	mov    %al,0xdcfd(%rip)        # 1f21a <g_381>
   1151d:	0f b6 05 f6 dc 00 00 	movzbl 0xdcf6(%rip),%eax        # 1f21a <g_381>
   11524:	84 c0                	test   %al,%al
   11526:	75 0c                	jne    11534 <func_44+0x6a1>
   11528:	48 8b 85 20 ef ff ff 	mov    -0x10e0(%rbp),%rax
   1152f:	48 85 c0             	test   %rax,%rax
   11532:	74 07                	je     1153b <func_44+0x6a8>
   11534:	b8 01 00 00 00       	mov    $0x1,%eax
   11539:	eb 05                	jmp    11540 <func_44+0x6ad>
   1153b:	b8 00 00 00 00       	mov    $0x0,%eax
   11540:	0f b6 c0             	movzbl %al,%eax
   11543:	89 de                	mov    %ebx,%esi
   11545:	89 c7                	mov    %eax,%edi
   11547:	e8 72 97 ff ff       	callq  acbe <safe_rshift_func_uint8_t_u_u>
   1154c:	84 c0                	test   %al,%al
   1154e:	75 0c                	jne    1155c <func_44+0x6c9>
   11550:	48 8b 85 20 ef ff ff 	mov    -0x10e0(%rbp),%rax
   11557:	48 85 c0             	test   %rax,%rax
   1155a:	74 07                	je     11563 <func_44+0x6d0>
   1155c:	b8 01 00 00 00       	mov    $0x1,%eax
   11561:	eb 05                	jmp    11568 <func_44+0x6d5>
   11563:	b8 00 00 00 00       	mov    $0x0,%eax
   11568:	83 f8 fb             	cmp    $0xfffffffb,%eax
   1156b:	0f 8c 05 01 00 00    	jl     11676 <func_44+0x7e3>
   11571:	c6 85 3c ef ff ff c0 	movb   $0xc0,-0x10c4(%rbp)
   11578:	48 8d 05 91 db 00 00 	lea    0xdb91(%rip),%rax        # 1f110 <g_117>
   1157f:	48 89 85 10 f0 ff ff 	mov    %rax,-0xff0(%rbp)
   11586:	48 8d 85 10 f0 ff ff 	lea    -0xff0(%rbp),%rax
   1158d:	48 89 85 00 f1 ff ff 	mov    %rax,-0xf00(%rbp)
   11594:	c7 85 80 ef ff ff 01 	movl   $0x1,-0x1080(%rbp)
   1159b:	00 00 00 
   1159e:	c7 05 78 db 00 00 fb 	movl   $0xfffffffb,0xdb78(%rip)        # 1f120 <g_122>
   115a5:	ff ff ff 
   115a8:	eb 24                	jmp    115ce <func_44+0x73b>
   115aa:	8b 95 6c f2 ff ff    	mov    -0xd94(%rbp),%edx
   115b0:	0f b6 85 3c ef ff ff 	movzbl -0x10c4(%rbp),%eax
   115b7:	09 d0                	or     %edx,%eax
   115b9:	89 85 6c f2 ff ff    	mov    %eax,-0xd94(%rbp)
   115bf:	8b 05 5b db 00 00    	mov    0xdb5b(%rip),%eax        # 1f120 <g_122>
   115c5:	83 c0 01             	add    $0x1,%eax
   115c8:	89 05 52 db 00 00    	mov    %eax,0xdb52(%rip)        # 1f120 <g_122>
   115ce:	8b 05 4c db 00 00    	mov    0xdb4c(%rip),%eax        # 1f120 <g_122>
   115d4:	83 f8 1e             	cmp    $0x1e,%eax
   115d7:	77 d1                	ja     115aa <func_44+0x717>
   115d9:	48 8b 85 00 f1 ff ff 	mov    -0xf00(%rbp),%rax
   115e0:	48 8d 15 29 db 00 00 	lea    0xdb29(%rip),%rdx        # 1f110 <g_117>
   115e7:	48 89 10             	mov    %rdx,(%rax)
   115ea:	48 8b 85 00 f1 ff ff 	mov    -0xf00(%rbp),%rax
   115f1:	48 8b 10             	mov    (%rax),%rdx
   115f4:	48 8d 85 20 ef ff ff 	lea    -0x10e0(%rbp),%rax
   115fb:	48 39 c2             	cmp    %rax,%rdx
   115fe:	0f 95 c0             	setne  %al
   11601:	0f b6 c0             	movzbl %al,%eax
   11604:	89 85 80 ef ff ff    	mov    %eax,-0x1080(%rbp)
   1160a:	0f b7 85 44 ef ff ff 	movzwl -0x10bc(%rbp),%eax
   11611:	83 c0 01             	add    $0x1,%eax
   11614:	66 89 85 44 ef ff ff 	mov    %ax,-0x10bc(%rbp)
   1161b:	66 c7 05 08 dc 00 00 	movw   $0x0,0xdc08(%rip)        # 1f22c <g_453>
   11622:	00 00 
   11624:	eb 3e                	jmp    11664 <func_44+0x7d1>
   11626:	48 8d 05 83 0a 01 00 	lea    0x10a83(%rip),%rax        # 220b0 <g_515>
   1162d:	48 89 85 18 f0 ff ff 	mov    %rax,-0xfe8(%rbp)
   11634:	48 8d 85 18 f0 ff ff 	lea    -0xfe8(%rbp),%rax
   1163b:	48 89 85 08 f1 ff ff 	mov    %rax,-0xef8(%rbp)
   11642:	48 8d 15 67 0a 01 00 	lea    0x10a67(%rip),%rdx        # 220b0 <g_515>
   11649:	48 8b 85 08 f1 ff ff 	mov    -0xef8(%rbp),%rax
   11650:	48 89 10             	mov    %rdx,(%rax)
   11653:	0f b7 05 d2 db 00 00 	movzwl 0xdbd2(%rip),%eax        # 1f22c <g_453>
   1165a:	83 c0 01             	add    $0x1,%eax
   1165d:	66 89 05 c8 db 00 00 	mov    %ax,0xdbc8(%rip)        # 1f22c <g_453>
   11664:	0f b7 05 c1 db 00 00 	movzwl 0xdbc1(%rip),%eax        # 1f22c <g_453>
   1166b:	66 83 f8 38          	cmp    $0x38,%ax
   1166f:	74 b5                	je     11626 <func_44+0x793>
   11671:	e9 a1 02 00 00       	jmpq   11917 <func_44+0xa84>
   11676:	48 8d 05 23 0a 01 00 	lea    0x10a23(%rip),%rax        # 220a0 <g_447>
   1167d:	48 89 85 d0 f6 ff ff 	mov    %rax,-0x930(%rbp)
   11684:	48 8d 05 15 0a 01 00 	lea    0x10a15(%rip),%rax        # 220a0 <g_447>
   1168b:	48 89 85 d8 f6 ff ff 	mov    %rax,-0x928(%rbp)
   11692:	48 8d 05 07 0a 01 00 	lea    0x10a07(%rip),%rax        # 220a0 <g_447>
   11699:	48 89 85 e0 f6 ff ff 	mov    %rax,-0x920(%rbp)
   116a0:	48 8d 05 f9 09 01 00 	lea    0x109f9(%rip),%rax        # 220a0 <g_447>
   116a7:	48 89 85 e8 f6 ff ff 	mov    %rax,-0x918(%rbp)
   116ae:	48 8d 05 eb 09 01 00 	lea    0x109eb(%rip),%rax        # 220a0 <g_447>
   116b5:	48 89 85 f0 f6 ff ff 	mov    %rax,-0x910(%rbp)
   116bc:	48 8d 05 dd 09 01 00 	lea    0x109dd(%rip),%rax        # 220a0 <g_447>
   116c3:	48 89 85 f8 f6 ff ff 	mov    %rax,-0x908(%rbp)
   116ca:	48 8d 05 cf 09 01 00 	lea    0x109cf(%rip),%rax        # 220a0 <g_447>
   116d1:	48 89 85 00 f7 ff ff 	mov    %rax,-0x900(%rbp)
   116d8:	48 8d 05 c1 09 01 00 	lea    0x109c1(%rip),%rax        # 220a0 <g_447>
   116df:	48 89 85 08 f7 ff ff 	mov    %rax,-0x8f8(%rbp)
   116e6:	48 8d 05 b3 09 01 00 	lea    0x109b3(%rip),%rax        # 220a0 <g_447>
   116ed:	48 89 85 10 f7 ff ff 	mov    %rax,-0x8f0(%rbp)
   116f4:	48 8d 05 a5 09 01 00 	lea    0x109a5(%rip),%rax        # 220a0 <g_447>
   116fb:	48 89 85 18 f7 ff ff 	mov    %rax,-0x8e8(%rbp)
   11702:	48 8d 85 d0 f6 ff ff 	lea    -0x930(%rbp),%rax
   11709:	48 83 c0 20          	add    $0x20,%rax
   1170d:	48 89 85 e0 f0 ff ff 	mov    %rax,-0xf20(%rbp)
   11714:	48 c7 85 18 f0 ff ff 	movq   $0x0,-0xfe8(%rbp)
   1171b:	00 00 00 00 
   1171f:	c7 85 18 f0 ff ff c1 	movl   $0xbb41e9c1,-0xfe8(%rbp)
   11726:	e9 41 bb 
   11729:	48 c7 85 e8 f0 ff ff 	movq   $0x0,-0xf18(%rbp)
   11730:	00 00 00 00 
   11734:	48 8d 05 15 1c 01 00 	lea    0x11c15(%rip),%rax        # 23350 <g_198>
   1173b:	48 89 85 f0 f0 ff ff 	mov    %rax,-0xf10(%rbp)
   11742:	48 8b 85 00 f0 ff ff 	mov    -0x1000(%rbp),%rax
   11749:	48 89 05 18 da 00 00 	mov    %rax,0xda18(%rip)        # 1f168 <g_162+0x28>
   11750:	48 8b 85 f0 f0 ff ff 	mov    -0xf10(%rbp),%rax
   11757:	48 8b 95 d0 f0 ff ff 	mov    -0xf30(%rbp),%rdx
   1175e:	48 89 10             	mov    %rdx,(%rax)
   11761:	48 8b 85 f0 f0 ff ff 	mov    -0xf10(%rbp),%rax
   11768:	48 8b 00             	mov    (%rax),%rax
   1176b:	48 8d 15 16 09 01 00 	lea    0x10916(%rip),%rdx        # 22088 <g_193>
   11772:	48 39 d0             	cmp    %rdx,%rax
   11775:	0f 95 c0             	setne  %al
   11778:	0f b6 d0             	movzbl %al,%edx
   1177b:	48 8b 85 e0 f0 ff ff 	mov    -0xf20(%rbp),%rax
   11782:	48 8d 0d 17 09 01 00 	lea    0x10917(%rip),%rcx        # 220a0 <g_447>
   11789:	48 89 08             	mov    %rcx,(%rax)
   1178c:	48 8b 85 e0 f0 ff ff 	mov    -0xf20(%rbp),%rax
   11793:	48 8b 00             	mov    (%rax),%rax
   11796:	48 8d 0d 03 09 01 00 	lea    0x10903(%rip),%rcx        # 220a0 <g_447>
   1179d:	48 39 c8             	cmp    %rcx,%rax
   117a0:	0f 95 c0             	setne  %al
   117a3:	0f b6 c0             	movzbl %al,%eax
   117a6:	89 d6                	mov    %edx,%esi
   117a8:	89 c7                	mov    %eax,%edi
   117aa:	e8 bd 8b ff ff       	callq  a36c <safe_rshift_func_int8_t_s_u>
   117af:	be 03 00 00 00       	mov    $0x3,%esi
   117b4:	bf ef 00 00 00       	mov    $0xef,%edi
   117b9:	e8 8e 94 ff ff       	callq  ac4c <safe_lshift_func_uint8_t_u_u>
   117be:	0f b6 c0             	movzbl %al,%eax
   117c1:	be 02 00 00 00       	mov    $0x2,%esi
   117c6:	89 c7                	mov    %eax,%edi
   117c8:	e8 c0 94 ff ff       	callq  ac8d <safe_rshift_func_uint8_t_u_s>
   117cd:	0f b6 c0             	movzbl %al,%eax
   117d0:	39 85 2c ef ff ff    	cmp    %eax,-0x10d4(%rbp)
   117d6:	0f 95 c0             	setne  %al
   117d9:	0f b6 c0             	movzbl %al,%eax
   117dc:	89 85 6c f2 ff ff    	mov    %eax,-0xd94(%rbp)
   117e2:	8b 85 6c f2 ff ff    	mov    -0xd94(%rbp),%eax
   117e8:	48 63 d0             	movslq %eax,%rdx
   117eb:	48 8b 85 e0 ef ff ff 	mov    -0x1020(%rbp),%rax
   117f2:	48 39 c2             	cmp    %rax,%rdx
   117f5:	b8 01 00 00 00       	mov    $0x1,%eax
   117fa:	09 85 7c ef ff ff    	or     %eax,-0x1084(%rbp)
   11800:	8b 85 7c ef ff ff    	mov    -0x1084(%rbp),%eax
   11806:	89 85 4c ef ff ff    	mov    %eax,-0x10b4(%rbp)
   1180c:	48 c7 05 01 d9 00 00 	movq   $0xfffffffffffffff6,0xd901(%rip)        # 1f118 <g_121>
   11813:	f6 ff ff ff 
   11817:	e9 ea 00 00 00       	jmpq   11906 <func_44+0xa73>
   1181c:	66 c7 85 40 ef ff ff 	movw   $0x0,-0x10c0(%rbp)
   11823:	00 00 
   11825:	48 8d 85 90 f5 ff ff 	lea    -0xa70(%rbp),%rax
   1182c:	48 05 0c 01 00 00    	add    $0x10c,%rax
   11832:	48 89 85 f8 f0 ff ff 	mov    %rax,-0xf08(%rbp)
   11839:	c7 05 35 1b 01 00 00 	movl   $0x0,0x11b35(%rip)        # 23378 <g_507>
   11840:	00 00 00 
   11843:	e9 80 00 00 00       	jmpq   118c8 <func_44+0xa35>
   11848:	c7 85 10 f4 ff ff e4 	movl   $0x3c2e7fe4,-0xbf0(%rbp)
   1184f:	7f 2e 3c 
   11852:	c7 85 14 f4 ff ff fd 	movl   $0xfffffffd,-0xbec(%rbp)
   11859:	ff ff ff 
   1185c:	c7 85 18 f4 ff ff fd 	movl   $0xfffffffd,-0xbe8(%rbp)
   11863:	ff ff ff 
   11866:	c7 85 1c f4 ff ff e4 	movl   $0x3c2e7fe4,-0xbe4(%rbp)
   1186d:	7f 2e 3c 
   11870:	c7 85 20 f4 ff ff fd 	movl   $0xfffffffd,-0xbe0(%rbp)
   11877:	ff ff ff 
   1187a:	c7 85 24 f4 ff ff fd 	movl   $0xfffffffd,-0xbdc(%rbp)
   11881:	ff ff ff 
   11884:	c7 85 28 f4 ff ff e4 	movl   $0x3c2e7fe4,-0xbd8(%rbp)
   1188b:	7f 2e 3c 
   1188e:	c7 85 2c f4 ff ff fd 	movl   $0xfffffffd,-0xbd4(%rbp)
   11895:	ff ff ff 
   11898:	8b 85 18 f4 ff ff    	mov    -0xbe8(%rbp),%eax
   1189e:	89 c2                	mov    %eax,%edx
   118a0:	0f b7 85 40 ef ff ff 	movzwl -0x10c0(%rbp),%eax
   118a7:	31 d0                	xor    %edx,%eax
   118a9:	66 89 85 40 ef ff ff 	mov    %ax,-0x10c0(%rbp)
   118b0:	8b 05 c2 1a 01 00    	mov    0x11ac2(%rip),%eax        # 23378 <g_507>
   118b6:	be 09 00 00 00       	mov    $0x9,%esi
   118bb:	89 c7                	mov    %eax,%edi
   118bd:	e8 f6 95 ff ff       	callq  aeb8 <safe_add_func_uint32_t_u_u>
   118c2:	89 05 b0 1a 01 00    	mov    %eax,0x11ab0(%rip)        # 23378 <g_507>
   118c8:	8b 05 aa 1a 01 00    	mov    0x11aaa(%rip),%eax        # 23378 <g_507>
   118ce:	83 f8 05             	cmp    $0x5,%eax
   118d1:	0f 8e 71 ff ff ff    	jle    11848 <func_44+0x9b5>
   118d7:	48 8b 05 72 1a 01 00 	mov    0x11a72(%rip),%rax        # 23350 <g_198>
   118de:	48 8b 00             	mov    (%rax),%rax
   118e1:	48 8b 00             	mov    (%rax),%rax
   118e4:	48 89 85 f8 f0 ff ff 	mov    %rax,-0xf08(%rbp)
   118eb:	48 8b 05 26 d8 00 00 	mov    0xd826(%rip),%rax        # 1f118 <g_121>
   118f2:	be 04 00 00 00       	mov    $0x4,%esi
   118f7:	48 89 c7             	mov    %rax,%rdi
   118fa:	e8 42 8f ff ff       	callq  a841 <safe_add_func_int64_t_s_s>
   118ff:	48 89 05 12 d8 00 00 	mov    %rax,0xd812(%rip)        # 1f118 <g_121>
   11906:	48 8b 05 0b d8 00 00 	mov    0xd80b(%rip),%rax        # 1f118 <g_121>
   1190d:	48 83 f8 02          	cmp    $0x2,%rax
   11911:	0f 8f 05 ff ff ff    	jg     1181c <func_44+0x989>
   11917:	8b 85 2c ef ff ff    	mov    -0x10d4(%rbp),%eax
   1191d:	48 98                	cltq   
   1191f:	be 00 00 00 00       	mov    $0x0,%esi
   11924:	48 89 c7             	mov    %rax,%rdi
   11927:	e8 54 97 ff ff       	callq  b080 <safe_mod_func_uint64_t_u_u>
   1192c:	48 83 bd 28 f0 ff ff 	cmpq   $0x0,-0xfd8(%rbp)
   11933:	00 
   11934:	0f 95 c0             	setne  %al
   11937:	0f b6 d0             	movzbl %al,%edx
   1193a:	48 8b 85 20 ef ff ff 	mov    -0x10e0(%rbp),%rax
   11941:	48 39 c2             	cmp    %rax,%rdx
   11944:	0f 93 c0             	setae  %al
   11947:	0f b6 c0             	movzbl %al,%eax
   1194a:	89 c6                	mov    %eax,%esi
   1194c:	bf fe ff ff ff       	mov    $0xfffffffe,%edi
   11951:	e8 bc 88 ff ff       	callq  a212 <safe_mul_func_int8_t_s_s>
   11956:	84 c0                	test   %al,%al
   11958:	74 07                	je     11961 <func_44+0xace>
   1195a:	83 bd 2c ef ff ff 00 	cmpl   $0x0,-0x10d4(%rbp)
   11961:	0f b6 05 a3 d7 00 00 	movzbl 0xd7a3(%rip),%eax        # 1f10b <g_114+0x3>
   11968:	0f be c0             	movsbl %al,%eax
   1196b:	be 02 00 00 00       	mov    $0x2,%esi
   11970:	89 c7                	mov    %eax,%edi
   11972:	e8 f5 89 ff ff       	callq  a36c <safe_rshift_func_int8_t_s_u>
   11977:	84 c0                	test   %al,%al
   11979:	0f 84 6b 01 00 00    	je     11aea <func_44+0xc57>
   1197f:	c7 85 88 ef ff ff 84 	movl   $0x28a78684,-0x1078(%rbp)
   11986:	86 a7 28 
   11989:	c7 85 8c ef ff ff a4 	movl   $0x6dccb5a4,-0x1074(%rbp)
   11990:	b5 cc 6d 
   11993:	48 b8 00 c3 08 01 ff 	movabs $0xc30801ff0108c300,%rax
   1199a:	01 08 c3 
   1199d:	48 89 85 d0 f6 ff ff 	mov    %rax,-0x930(%rbp)
   119a4:	c6 85 d8 f6 ff ff 00 	movb   $0x0,-0x928(%rbp)
   119ab:	48 b8 00 00 f9 ff 12 	movabs $0x650112fff90000,%rax
   119b2:	01 65 00 
   119b5:	48 89 85 d9 f6 ff ff 	mov    %rax,-0x927(%rbp)
   119bc:	c6 85 e1 f6 ff ff c3 	movb   $0xc3,-0x91f(%rbp)
   119c3:	48 b8 00 01 01 2d 2d 	movabs $0x1012d2d010100,%rax
   119ca:	01 01 00 
   119cd:	48 89 85 e2 f6 ff ff 	mov    %rax,-0x91e(%rbp)
   119d4:	c6 85 ea f6 ff ff e3 	movb   $0xe3,-0x916(%rbp)
   119db:	48 b8 00 12 65 2f 2d 	movabs $0xff4a432d2f651200,%rax
   119e2:	43 4a ff 
   119e5:	48 89 85 eb f6 ff ff 	mov    %rax,-0x915(%rbp)
   119ec:	c6 85 f3 f6 ff ff ff 	movb   $0xff,-0x90d(%rbp)
   119f3:	48 b8 00 f9 12 00 12 	movabs $0x4300f9120012f900,%rax
   119fa:	f9 00 43 
   119fd:	48 89 85 f4 f6 ff ff 	mov    %rax,-0x90c(%rbp)
   11a04:	c6 85 fc f6 ff ff e3 	movb   $0xe3,-0x904(%rbp)
   11a0b:	48 b8 43 00 00 00 ff 	movabs $0x12c32dff00000043,%rax
   11a12:	2d c3 12 
   11a15:	48 89 85 fd f6 ff ff 	mov    %rax,-0x903(%rbp)
   11a1c:	c6 85 05 f7 ff ff c3 	movb   $0xc3,-0x8fb(%rbp)
   11a23:	48 b8 c3 00 2f 2f 00 	movabs $0x43e3c3002f2f00c3,%rax
   11a2a:	c3 e3 43 
   11a2d:	48 89 85 06 f7 ff ff 	mov    %rax,-0x8fa(%rbp)
   11a34:	c6 85 0e f7 ff ff 00 	movb   $0x0,-0x8f2(%rbp)
   11a3b:	48 b8 12 65 2f 2d 43 	movabs $0xffff4a432d2f6512,%rax
   11a42:	4a ff ff 
   11a45:	48 89 85 0f f7 ff ff 	mov    %rax,-0x8f1(%rbp)
   11a4c:	c6 85 17 f7 ff ff 4a 	movb   $0x4a,-0x8e9(%rbp)
   11a53:	48 b8 2f ff 00 ff 2f 	movabs $0xe3122fff00ff2f,%rax
   11a5a:	12 e3 00 
   11a5d:	48 89 85 18 f7 ff ff 	mov    %rax,-0x8e8(%rbp)
   11a64:	c6 85 20 f7 ff ff 01 	movb   $0x1,-0x8e0(%rbp)
   11a6b:	48 b8 f9 ff 12 01 65 	movabs $0x1ff01650112fff9,%rax
   11a72:	01 ff 01 
   11a75:	48 89 85 21 f7 ff ff 	mov    %rax,-0x8df(%rbp)
   11a7c:	c6 85 29 f7 ff ff 08 	movb   $0x8,-0x8d7(%rbp)
   11a83:	48 8d 05 17 d9 00 00 	lea    0xd917(%rip),%rax        # 1f3a1 <g_620+0x21>
   11a8a:	48 89 85 18 f0 ff ff 	mov    %rax,-0xfe8(%rbp)
   11a91:	48 8d 85 18 f0 ff ff 	lea    -0xfe8(%rbp),%rax
   11a98:	48 89 85 18 f1 ff ff 	mov    %rax,-0xee8(%rbp)
   11a9f:	c7 85 90 ef ff ff 72 	movl   $0xb3ad6472,-0x1070(%rbp)
   11aa6:	64 ad b3 
   11aa9:	8b 05 81 d7 00 00    	mov    0xd781(%rip),%eax        # 1f230 <g_557>
   11aaf:	83 c0 01             	add    $0x1,%eax
   11ab2:	89 05 78 d7 00 00    	mov    %eax,0xd778(%rip)        # 1f230 <g_557>
   11ab8:	8b 05 62 d6 00 00    	mov    0xd662(%rip),%eax        # 1f120 <g_122>
   11abe:	85 c0                	test   %eax,%eax
   11ac0:	90                   	nop
   11ac1:	f3 0f 1e fa          	endbr64 
   11ac5:	48 8d 15 83 d8 00 00 	lea    0xd883(%rip),%rdx        # 1f34f <g_615>
   11acc:	48 8b 85 18 f1 ff ff 	mov    -0xee8(%rbp),%rax
   11ad3:	48 89 10             	mov    %rdx,(%rax)
   11ad6:	8b 05 24 d9 00 00    	mov    0xd924(%rip),%eax        # 1f400 <g_624>
   11adc:	83 e8 01             	sub    $0x1,%eax
   11adf:	89 05 1b d9 00 00    	mov    %eax,0xd91b(%rip)        # 1f400 <g_624>
   11ae5:	e9 5a 0c 00 00       	jmpq   12744 <func_44+0x18b1>
   11aea:	48 8d 05 13 d9 00 00 	lea    0xd913(%rip),%rax        # 1f404 <g_629>
   11af1:	48 89 85 18 f0 ff ff 	mov    %rax,-0xfe8(%rbp)
   11af8:	48 8d 85 18 f0 ff ff 	lea    -0xfe8(%rbp),%rax
   11aff:	48 89 85 10 f1 ff ff 	mov    %rax,-0xef0(%rbp)
   11b06:	c7 85 84 ef ff ff ff 	movl   $0xffffffff,-0x107c(%rbp)
   11b0d:	ff ff ff 
   11b10:	c7 85 54 ef ff ff 00 	movl   $0x0,-0x10ac(%rbp)
   11b17:	00 00 00 
   11b1a:	eb 1a                	jmp    11b36 <func_44+0xca3>
   11b1c:	8b 85 54 ef ff ff    	mov    -0x10ac(%rbp),%eax
   11b22:	48 98                	cltq   
   11b24:	c7 84 85 d0 f6 ff ff 	movl   $0x1,-0x930(%rbp,%rax,4)
   11b2b:	01 00 00 00 
   11b2f:	83 85 54 ef ff ff 01 	addl   $0x1,-0x10ac(%rbp)
   11b36:	83 bd 54 ef ff ff 00 	cmpl   $0x0,-0x10ac(%rbp)
   11b3d:	7e dd                	jle    11b1c <func_44+0xc89>
   11b3f:	48 8b 85 10 f1 ff ff 	mov    -0xef0(%rbp),%rax
   11b46:	48 c7 00 00 00 00 00 	movq   $0x0,(%rax)
   11b4d:	48 c7 85 00 f0 ff ff 	movq   $0x0,-0x1000(%rbp)
   11b54:	00 00 00 00 
   11b58:	90                   	nop
   11b59:	48 8b 85 00 f0 ff ff 	mov    -0x1000(%rbp),%rax
   11b60:	48 83 f8 17          	cmp    $0x17,%rax
   11b64:	0f 87 da 0b 00 00    	ja     12744 <func_44+0x18b1>
   11b6a:	48 b8 e6 f7 e6 f7 e6 	movabs $0xf7e6f7e6f7e6f7e6,%rax
   11b71:	f7 e6 f7 
   11b74:	48 89 45 bf          	mov    %rax,-0x41(%rbp)
   11b78:	c6 45 c7 e6          	movb   $0xe6,-0x39(%rbp)
   11b7c:	8b 05 7e d8 00 00    	mov    0xd87e(%rip),%eax        # 1f400 <g_624>
   11b82:	89 c2                	mov    %eax,%edx
   11b84:	48 8b 85 c8 f0 ff ff 	mov    -0xf38(%rbp),%rax
   11b8b:	88 10                	mov    %dl,(%rax)
   11b8d:	48 8b 85 c8 f0 ff ff 	mov    -0xf38(%rbp),%rax
   11b94:	0f b6 00             	movzbl (%rax),%eax
   11b97:	0f be c0             	movsbl %al,%eax
   11b9a:	be 08 00 00 00       	mov    $0x8,%esi
   11b9f:	89 c7                	mov    %eax,%edi
   11ba1:	e8 6c 86 ff ff       	callq  a212 <safe_mul_func_int8_t_s_s>
   11ba6:	0f be c0             	movsbl %al,%eax
   11ba9:	89 85 84 ef ff ff    	mov    %eax,-0x107c(%rbp)
   11baf:	48 8b 85 20 ef ff ff 	mov    -0x10e0(%rbp),%rax
   11bb6:	89 c7                	mov    %eax,%edi
   11bb8:	e8 d9 89 ff ff       	callq  a596 <safe_unary_minus_func_int32_t_s>
   11bbd:	48 63 d0             	movslq %eax,%rdx
   11bc0:	48 8b 05 d9 04 01 00 	mov    0x104d9(%rip),%rax        # 220a0 <g_447>
   11bc7:	48 8b 00             	mov    (%rax),%rax
   11bca:	48 39 c2             	cmp    %rax,%rdx
   11bcd:	0f 9e c0             	setle  %al
   11bd0:	0f b6 d0             	movzbl %al,%edx
   11bd3:	8b 85 d0 f6 ff ff    	mov    -0x930(%rbp),%eax
   11bd9:	98                   	cwtl   
   11bda:	89 d6                	mov    %edx,%esi
   11bdc:	89 c7                	mov    %eax,%edi
   11bde:	e8 af 88 ff ff       	callq  a492 <safe_lshift_func_int16_t_s_s>
   11be3:	66 85 c0             	test   %ax,%ax
   11be6:	75 07                	jne    11bef <func_44+0xd5c>
   11be8:	83 bd 2c ef ff ff 00 	cmpl   $0x0,-0x10d4(%rbp)
   11bef:	0f b7 85 3e ef ff ff 	movzwl -0x10c2(%rbp),%eax
   11bf6:	0f b7 d0             	movzwl %ax,%edx
   11bf9:	0f b6 45 c3          	movzbl -0x3d(%rbp),%eax
   11bfd:	3c 89                	cmp    $0x89,%al
   11bff:	0f 94 c0             	sete   %al
   11c02:	0f b6 c0             	movzbl %al,%eax
   11c05:	39 85 2c ef ff ff    	cmp    %eax,-0x10d4(%rbp)
   11c0b:	0f 94 c0             	sete   %al
   11c0e:	0f b6 c0             	movzbl %al,%eax
   11c11:	89 d6                	mov    %edx,%esi
   11c13:	89 c7                	mov    %eax,%edi
   11c15:	e8 e5 90 ff ff       	callq  acff <safe_add_func_uint16_t_u_u>
   11c1a:	0f b7 d0             	movzwl %ax,%edx
   11c1d:	48 8d 05 8c 04 01 00 	lea    0x1048c(%rip),%rax        # 220b0 <g_515>
   11c24:	48 8b 00             	mov    (%rax),%rax
   11c27:	0f b7 00             	movzwl (%rax),%eax
   11c2a:	98                   	cwtl   
   11c2b:	39 85 2c ef ff ff    	cmp    %eax,-0x10d4(%rbp)
   11c31:	0f 9f c0             	setg   %al
   11c34:	0f b6 c0             	movzbl %al,%eax
   11c37:	39 c2                	cmp    %eax,%edx
   11c39:	0f 95 c0             	setne  %al
   11c3c:	0f b6 c0             	movzbl %al,%eax
   11c3f:	be 00 00 00 00       	mov    $0x0,%esi
   11c44:	89 c7                	mov    %eax,%edi
   11c46:	e8 48 8f ff ff       	callq  ab93 <safe_mul_func_uint8_t_u_u>
   11c4b:	0f b6 d0             	movzbl %al,%edx
   11c4e:	8b 05 94 d4 00 00    	mov    0xd494(%rip),%eax        # 1f0e8 <g_65>
   11c54:	09 d0                	or     %edx,%eax
   11c56:	89 05 8c d4 00 00    	mov    %eax,0xd48c(%rip)        # 1f0e8 <g_65>
   11c5c:	8b 85 2c ef ff ff    	mov    -0x10d4(%rbp),%eax
   11c62:	e9 f9 2f 00 00       	jmpq   14c60 <func_44+0x3dcd>
   11c67:	c6 85 08 f0 ff ff 00 	movb   $0x0,-0xff8(%rbp)
   11c6e:	48 8d 05 7f d4 00 00 	lea    0xd47f(%rip),%rax        # 1f0f4 <g_97>
   11c75:	48 89 85 d0 f6 ff ff 	mov    %rax,-0x930(%rbp)
   11c7c:	48 8d 85 08 f0 ff ff 	lea    -0xff8(%rbp),%rax
   11c83:	48 89 85 d8 f6 ff ff 	mov    %rax,-0x928(%rbp)
   11c8a:	48 8d 85 08 f0 ff ff 	lea    -0xff8(%rbp),%rax
   11c91:	48 89 85 e0 f6 ff ff 	mov    %rax,-0x920(%rbp)
   11c98:	48 8d 05 55 d4 00 00 	lea    0xd455(%rip),%rax        # 1f0f4 <g_97>
   11c9f:	48 89 85 e8 f6 ff ff 	mov    %rax,-0x918(%rbp)
   11ca6:	48 8d 85 08 f0 ff ff 	lea    -0xff8(%rbp),%rax
   11cad:	48 89 85 f0 f6 ff ff 	mov    %rax,-0x910(%rbp)
   11cb4:	48 8d 05 39 d4 00 00 	lea    0xd439(%rip),%rax        # 1f0f4 <g_97>
   11cbb:	48 89 85 f8 f6 ff ff 	mov    %rax,-0x908(%rbp)
   11cc2:	48 8d 85 08 f0 ff ff 	lea    -0xff8(%rbp),%rax
   11cc9:	48 89 85 00 f7 ff ff 	mov    %rax,-0x900(%rbp)
   11cd0:	48 8d 05 29 d4 00 00 	lea    0xd429(%rip),%rax        # 1f100 <g_99>
   11cd7:	48 89 85 08 f7 ff ff 	mov    %rax,-0x8f8(%rbp)
   11cde:	48 8d 85 08 f0 ff ff 	lea    -0xff8(%rbp),%rax
   11ce5:	48 89 85 10 f7 ff ff 	mov    %rax,-0x8f0(%rbp)
   11cec:	48 8d 85 08 f0 ff ff 	lea    -0xff8(%rbp),%rax
   11cf3:	48 89 85 18 f7 ff ff 	mov    %rax,-0x8e8(%rbp)
   11cfa:	48 8d 85 08 f0 ff ff 	lea    -0xff8(%rbp),%rax
   11d01:	48 89 85 20 f7 ff ff 	mov    %rax,-0x8e0(%rbp)
   11d08:	48 8d 05 1f d5 00 00 	lea    0xd51f(%rip),%rax        # 1f22e <g_556>
   11d0f:	48 89 85 28 f7 ff ff 	mov    %rax,-0x8d8(%rbp)
   11d16:	48 8d 05 d7 d3 00 00 	lea    0xd3d7(%rip),%rax        # 1f0f4 <g_97>
   11d1d:	48 89 85 30 f7 ff ff 	mov    %rax,-0x8d0(%rbp)
   11d24:	48 8d 05 d5 d3 00 00 	lea    0xd3d5(%rip),%rax        # 1f100 <g_99>
   11d2b:	48 89 85 38 f7 ff ff 	mov    %rax,-0x8c8(%rbp)
   11d32:	48 8d 05 f5 d4 00 00 	lea    0xd4f5(%rip),%rax        # 1f22e <g_556>
   11d39:	48 89 85 40 f7 ff ff 	mov    %rax,-0x8c0(%rbp)
   11d40:	48 8d 05 e7 d4 00 00 	lea    0xd4e7(%rip),%rax        # 1f22e <g_556>
   11d47:	48 89 85 48 f7 ff ff 	mov    %rax,-0x8b8(%rbp)
   11d4e:	48 8d 85 08 f0 ff ff 	lea    -0xff8(%rbp),%rax
   11d55:	48 89 85 50 f7 ff ff 	mov    %rax,-0x8b0(%rbp)
   11d5c:	48 8d 85 08 f0 ff ff 	lea    -0xff8(%rbp),%rax
   11d63:	48 89 85 58 f7 ff ff 	mov    %rax,-0x8a8(%rbp)
   11d6a:	48 c7 85 60 f7 ff ff 	movq   $0x0,-0x8a0(%rbp)
   11d71:	00 00 00 00 
   11d75:	48 8d 05 84 d3 00 00 	lea    0xd384(%rip),%rax        # 1f100 <g_99>
   11d7c:	48 89 85 68 f7 ff ff 	mov    %rax,-0x898(%rbp)
   11d83:	48 8d 05 76 d3 00 00 	lea    0xd376(%rip),%rax        # 1f100 <g_99>
   11d8a:	48 89 85 70 f7 ff ff 	mov    %rax,-0x890(%rbp)
   11d91:	48 8d 05 5c d3 00 00 	lea    0xd35c(%rip),%rax        # 1f0f4 <g_97>
   11d98:	48 89 85 78 f7 ff ff 	mov    %rax,-0x888(%rbp)
   11d9f:	48 c7 85 80 f7 ff ff 	movq   $0x0,-0x880(%rbp)
   11da6:	00 00 00 00 
   11daa:	48 8d 05 43 d3 00 00 	lea    0xd343(%rip),%rax        # 1f0f4 <g_97>
   11db1:	48 89 85 88 f7 ff ff 	mov    %rax,-0x878(%rbp)
   11db8:	48 8d 85 08 f0 ff ff 	lea    -0xff8(%rbp),%rax
   11dbf:	48 89 85 90 f7 ff ff 	mov    %rax,-0x870(%rbp)
   11dc6:	48 8d 85 08 f0 ff ff 	lea    -0xff8(%rbp),%rax
   11dcd:	48 89 85 98 f7 ff ff 	mov    %rax,-0x868(%rbp)
   11dd4:	48 8d 05 53 d4 00 00 	lea    0xd453(%rip),%rax        # 1f22e <g_556>
   11ddb:	48 89 85 a0 f7 ff ff 	mov    %rax,-0x860(%rbp)
   11de2:	48 c7 85 a8 f7 ff ff 	movq   $0x0,-0x858(%rbp)
   11de9:	00 00 00 00 
   11ded:	c7 85 a0 f3 ff ff fc 	movl   $0xfffffffc,-0xc60(%rbp)
   11df4:	ff ff ff 
   11df7:	c7 85 a4 f3 ff ff fc 	movl   $0xfffffffc,-0xc5c(%rbp)
   11dfe:	ff ff ff 
   11e01:	c7 85 a8 f3 ff ff fc 	movl   $0xfffffffc,-0xc58(%rbp)
   11e08:	ff ff ff 
   11e0b:	c7 85 ac f3 ff ff fc 	movl   $0xfffffffc,-0xc54(%rbp)
   11e12:	ff ff ff 
   11e15:	c7 85 b0 f3 ff ff fc 	movl   $0xfffffffc,-0xc50(%rbp)
   11e1c:	ff ff ff 
   11e1f:	c7 85 b4 f3 ff ff fc 	movl   $0xfffffffc,-0xc4c(%rbp)
   11e26:	ff ff ff 
   11e29:	c7 85 b8 f3 ff ff fc 	movl   $0xfffffffc,-0xc48(%rbp)
   11e30:	ff ff ff 
   11e33:	c6 85 39 ef ff ff 09 	movb   $0x9,-0x10c7(%rbp)
   11e3a:	c7 85 58 ef ff ff 00 	movl   $0x0,-0x10a8(%rbp)
   11e41:	00 00 00 
   11e44:	eb 1e                	jmp    11e64 <func_44+0xfd1>
   11e46:	8b 85 58 ef ff ff    	mov    -0x10a8(%rbp),%eax
   11e4c:	48 98                	cltq   
   11e4e:	48 8d 15 b3 d2 00 00 	lea    0xd2b3(%rip),%rdx        # 1f108 <g_114>
   11e55:	48 89 94 c5 40 f3 ff 	mov    %rdx,-0xcc0(%rbp,%rax,8)
   11e5c:	ff 
   11e5d:	83 85 58 ef ff ff 01 	addl   $0x1,-0x10a8(%rbp)
   11e64:	83 bd 58 ef ff ff 01 	cmpl   $0x1,-0x10a8(%rbp)
   11e6b:	7e d9                	jle    11e46 <func_44+0xfb3>
   11e6d:	8b 05 79 d2 00 00    	mov    0xd279(%rip),%eax        # 1f0ec <g_69>
   11e73:	48 63 d8             	movslq %eax,%rbx
   11e76:	0f b6 85 08 f0 ff ff 	movzbl -0xff8(%rbp),%eax
   11e7d:	4c 0f be e0          	movsbq %al,%r12
   11e81:	44 8b ad 2c ef ff ff 	mov    -0x10d4(%rbp),%r13d
   11e88:	48 8b 85 20 ef ff ff 	mov    -0x10e0(%rbp),%rax
   11e8f:	0f be c0             	movsbl %al,%eax
   11e92:	be ce ff ff ff       	mov    $0xffffffce,%esi
   11e97:	89 c7                	mov    %eax,%edi
   11e99:	e8 36 83 ff ff       	callq  a1d4 <safe_add_func_int8_t_s_s>
   11e9e:	0f b6 95 08 f0 ff ff 	movzbl -0xff8(%rbp),%edx
   11ea5:	38 d0                	cmp    %dl,%al
   11ea7:	48 8b 05 ea 01 01 00 	mov    0x101ea(%rip),%rax        # 22098 <g_375>
   11eae:	0f b6 10             	movzbl (%rax),%edx
   11eb1:	0f b6 05 50 d2 00 00 	movzbl 0xd250(%rip),%eax        # 1f108 <g_114>
   11eb8:	09 d0                	or     %edx,%eax
   11eba:	88 05 48 d2 00 00    	mov    %al,0xd248(%rip)        # 1f108 <g_114>
   11ec0:	0f b6 05 41 d2 00 00 	movzbl 0xd241(%rip),%eax        # 1f108 <g_114>
   11ec7:	0f b6 d0             	movzbl %al,%edx
   11eca:	48 8b 05 c7 01 01 00 	mov    0x101c7(%rip),%rax        # 22098 <g_375>
   11ed1:	0f b6 00             	movzbl (%rax),%eax
   11ed4:	0f b6 c0             	movzbl %al,%eax
   11ed7:	0b 85 2c ef ff ff    	or     -0x10d4(%rbp),%eax
   11edd:	85 c0                	test   %eax,%eax
   11edf:	0f 94 c0             	sete   %al
   11ee2:	0f b6 c0             	movzbl %al,%eax
   11ee5:	89 d6                	mov    %edx,%esi
   11ee7:	89 c7                	mov    %eax,%edi
   11ee9:	e8 c0 8c ff ff       	callq  abae <safe_mod_func_uint8_t_u_u>
   11eee:	83 bd 2c ef ff ff 00 	cmpl   $0x0,-0x10d4(%rbp)
   11ef5:	75 0c                	jne    11f03 <func_44+0x1070>
   11ef7:	48 8b 85 20 ef ff ff 	mov    -0x10e0(%rbp),%rax
   11efe:	48 85 c0             	test   %rax,%rax
   11f01:	74 07                	je     11f0a <func_44+0x1077>
   11f03:	b8 01 00 00 00       	mov    $0x1,%eax
   11f08:	eb 05                	jmp    11f0f <func_44+0x107c>
   11f0a:	b8 00 00 00 00       	mov    $0x0,%eax
   11f0f:	88 05 19 d3 00 00    	mov    %al,0xd319(%rip)        # 1f22e <g_556>
   11f15:	0f b6 15 12 d3 00 00 	movzbl 0xd312(%rip),%edx        # 1f22e <g_556>
   11f1c:	0f b6 85 08 f0 ff ff 	movzbl -0xff8(%rbp),%eax
   11f23:	31 c2                	xor    %eax,%edx
   11f25:	48 8d 05 84 01 01 00 	lea    0x10184(%rip),%rax        # 220b0 <g_515>
   11f2c:	48 8b 00             	mov    (%rax),%rax
   11f2f:	66 0f be d2          	movsbw %dl,%dx
   11f33:	66 89 10             	mov    %dx,(%rax)
   11f36:	0f b7 00             	movzwl (%rax),%eax
   11f39:	98                   	cwtl   
   11f3a:	44 89 ee             	mov    %r13d,%esi
   11f3d:	89 c7                	mov    %eax,%edi
   11f3f:	e8 9d 85 ff ff       	callq  a4e1 <safe_lshift_func_int16_t_s_u>
   11f44:	48 8b 85 70 f0 ff ff 	mov    -0xf90(%rbp),%rax
   11f4b:	48 3b 85 30 f0 ff ff 	cmp    -0xfd0(%rbp),%rax
   11f52:	0f 95 c0             	setne  %al
   11f55:	0f b6 c0             	movzbl %al,%eax
   11f58:	39 85 2c ef ff ff    	cmp    %eax,-0x10d4(%rbp)
   11f5e:	0f 9e c0             	setle  %al
   11f61:	0f b6 c0             	movzbl %al,%eax
   11f64:	4c 89 e6             	mov    %r12,%rsi
   11f67:	48 89 c7             	mov    %rax,%rdi
   11f6a:	e8 11 91 ff ff       	callq  b080 <safe_mod_func_uint64_t_u_u>
   11f6f:	48 89 de             	mov    %rbx,%rsi
   11f72:	bf 01 00 00 00       	mov    $0x1,%edi
   11f77:	e8 04 91 ff ff       	callq  b080 <safe_mod_func_uint64_t_u_u>
   11f7c:	48 85 c0             	test   %rax,%rax
   11f7f:	0f 84 d9 00 00 00    	je     1205e <func_44+0x11cb>
   11f85:	48 c7 85 a8 f0 ff ff 	movq   $0x0,-0xf58(%rbp)
   11f8c:	00 00 00 00 
   11f90:	48 8d 05 55 d1 00 00 	lea    0xd155(%rip),%rax        # 1f0ec <g_69>
   11f97:	48 89 85 b0 f0 ff ff 	mov    %rax,-0xf50(%rbp)
   11f9e:	48 8b 85 20 ef ff ff 	mov    -0x10e0(%rbp),%rax
   11fa5:	89 c3                	mov    %eax,%ebx
   11fa7:	48 8b 85 20 ef ff ff 	mov    -0x10e0(%rbp),%rax
   11fae:	48 89 c6             	mov    %rax,%rsi
   11fb1:	48 bf a5 f3 f1 1d bf 	movabs $0xcda672bf1df1f3a5,%rdi
   11fb8:	72 a6 cd 
   11fbb:	e8 e8 88 ff ff       	callq  a8a8 <safe_sub_func_int64_t_s_s>
   11fc0:	89 de                	mov    %ebx,%esi
   11fc2:	89 c7                	mov    %eax,%edi
   11fc4:	e8 34 8f ff ff       	callq  aefd <safe_mod_func_uint32_t_u_u>
   11fc9:	48 8b 95 b0 f0 ff ff 	mov    -0xf50(%rbp),%rdx
   11fd0:	8b 12                	mov    (%rdx),%edx
   11fd2:	09 d0                	or     %edx,%eax
   11fd4:	89 c2                	mov    %eax,%edx
   11fd6:	48 8b 85 b0 f0 ff ff 	mov    -0xf50(%rbp),%rax
   11fdd:	89 10                	mov    %edx,(%rax)
   11fdf:	be 00 00 00 00       	mov    $0x0,%esi
   11fe4:	bf 01 00 00 00       	mov    $0x1,%edi
   11fe9:	e8 e5 83 ff ff       	callq  a3d3 <safe_sub_func_int16_t_s_s>
   11fee:	48 8d 05 bb 00 01 00 	lea    0x100bb(%rip),%rax        # 220b0 <g_515>
   11ff5:	48 8b 00             	mov    (%rax),%rax
   11ff8:	66 c7 00 01 00       	movw   $0x1,(%rax)
   11ffd:	0f b7 00             	movzwl (%rax),%eax
   12000:	0f bf d0             	movswl %ax,%edx
   12003:	48 8b 85 20 ef ff ff 	mov    -0x10e0(%rbp),%rax
   1200a:	98                   	cwtl   
   1200b:	89 d6                	mov    %edx,%esi
   1200d:	89 c7                	mov    %eax,%edi
   1200f:	e8 41 84 ff ff       	callq  a455 <safe_div_func_int16_t_s_s>
   12014:	48 0f bf c0          	movswq %ax,%rax
   12018:	48 c7 c6 f9 ff ff ff 	mov    $0xfffffffffffffff9,%rsi
   1201f:	48 89 c7             	mov    %rax,%rdi
   12022:	e8 24 90 ff ff       	callq  b04b <safe_sub_func_uint64_t_u_u>
   12027:	0f b7 c0             	movzwl %ax,%eax
   1202a:	89 c6                	mov    %eax,%esi
   1202c:	bf 07 00 00 00       	mov    $0x7,%edi
   12031:	e8 26 8d ff ff       	callq  ad5c <safe_mod_func_uint16_t_u_u>
   12036:	0f b6 c0             	movzbl %al,%eax
   12039:	be 04 00 00 00       	mov    $0x4,%esi
   1203e:	89 c7                	mov    %eax,%edi
   12040:	e8 79 8c ff ff       	callq  acbe <safe_rshift_func_uint8_t_u_u>
   12045:	48 83 bd b0 f0 ff ff 	cmpq   $0x0,-0xf50(%rbp)
   1204c:	00 
   1204d:	0f 94 c0             	sete   %al
   12050:	0f b6 c0             	movzbl %al,%eax
   12053:	89 85 b8 f3 ff ff    	mov    %eax,-0xc48(%rbp)
   12059:	e9 ba 06 00 00       	jmpq   12718 <func_44+0x1885>
   1205e:	48 8d 85 50 f2 ff ff 	lea    -0xdb0(%rbp),%rax
   12065:	48 83 c0 0c          	add    $0xc,%rax
   12069:	48 89 85 80 f0 ff ff 	mov    %rax,-0xf80(%rbp)
   12070:	48 8d 05 dd 8f 00 00 	lea    0x8fdd(%rip),%rax        # 1b054 <g_685>
   12077:	48 89 85 10 f0 ff ff 	mov    %rax,-0xff0(%rbp)
   1207e:	48 8d 85 10 f0 ff ff 	lea    -0xff0(%rbp),%rax
   12085:	48 89 85 88 f0 ff ff 	mov    %rax,-0xf78(%rbp)
   1208c:	48 8d 05 46 d0 00 00 	lea    0xd046(%rip),%rax        # 1f0d9 <g_34>
   12093:	48 89 85 18 f0 ff ff 	mov    %rax,-0xfe8(%rbp)
   1209a:	48 8d 85 18 f0 ff ff 	lea    -0xfe8(%rbp),%rax
   120a1:	48 89 85 90 f0 ff ff 	mov    %rax,-0xf70(%rbp)
   120a8:	c7 85 70 ef ff ff da 	movl   $0x26be51da,-0x1090(%rbp)
   120af:	51 be 26 
   120b2:	48 8d 85 b0 f8 ff ff 	lea    -0x750(%rbp),%rax
   120b9:	48 8d 15 60 f7 00 00 	lea    0xf760(%rip),%rdx        # 21820 <g_2057+0x1fa0>
   120c0:	b9 c4 00 00 00       	mov    $0xc4,%ecx
   120c5:	48 89 c7             	mov    %rax,%rdi
   120c8:	48 89 d6             	mov    %rdx,%rsi
   120cb:	f3 48 a5             	rep movsq %ds:(%rsi),%es:(%rdi)
   120ce:	48 8d 85 e0 ef ff ff 	lea    -0x1020(%rbp),%rax
   120d5:	48 89 85 98 f0 ff ff 	mov    %rax,-0xf68(%rbp)
   120dc:	c6 85 3a ef ff ff 00 	movb   $0x0,-0x10c6(%rbp)
   120e3:	c6 85 3b ef ff ff ee 	movb   $0xee,-0x10c5(%rbp)
   120ea:	c7 85 60 ef ff ff 00 	movl   $0x0,-0x10a0(%rbp)
   120f1:	00 00 00 
   120f4:	eb 51                	jmp    12147 <func_44+0x12b4>
   120f6:	c7 85 64 ef ff ff 00 	movl   $0x0,-0x109c(%rbp)
   120fd:	00 00 00 
   12100:	eb 35                	jmp    12137 <func_44+0x12a4>
   12102:	8b 85 64 ef ff ff    	mov    -0x109c(%rbp),%eax
   12108:	48 63 c8             	movslq %eax,%rcx
   1210b:	8b 85 60 ef ff ff    	mov    -0x10a0(%rbp),%eax
   12111:	48 63 d0             	movslq %eax,%rdx
   12114:	48 89 d0             	mov    %rdx,%rax
   12117:	48 c1 e0 02          	shl    $0x2,%rax
   1211b:	48 01 d0             	add    %rdx,%rax
   1211e:	48 01 c8             	add    %rcx,%rax
   12121:	48 8d 15 a4 d0 00 00 	lea    0xd0a4(%rip),%rdx        # 1f1cc <g_256+0x4c>
   12128:	48 89 94 c5 10 f4 ff 	mov    %rdx,-0xbf0(%rbp,%rax,8)
   1212f:	ff 
   12130:	83 85 64 ef ff ff 01 	addl   $0x1,-0x109c(%rbp)
   12137:	83 bd 64 ef ff ff 04 	cmpl   $0x4,-0x109c(%rbp)
   1213e:	7e c2                	jle    12102 <func_44+0x126f>
   12140:	83 85 60 ef ff ff 01 	addl   $0x1,-0x10a0(%rbp)
   12147:	83 bd 60 ef ff ff 00 	cmpl   $0x0,-0x10a0(%rbp)
   1214e:	7e a6                	jle    120f6 <func_44+0x1263>
   12150:	48 8b 85 d8 ef ff ff 	mov    -0x1028(%rbp),%rax
   12157:	48 8b 00             	mov    (%rax),%rax
   1215a:	8b 10                	mov    (%rax),%edx
   1215c:	8d 4a ff             	lea    -0x1(%rdx),%ecx
   1215f:	89 08                	mov    %ecx,(%rax)
   12161:	8b 85 2c ef ff ff    	mov    -0x10d4(%rbp),%eax
   12167:	21 c2                	and    %eax,%edx
   12169:	48 8b 85 80 f0 ff ff 	mov    -0xf80(%rbp),%rax
   12170:	8b 00                	mov    (%rax),%eax
   12172:	31 d0                	xor    %edx,%eax
   12174:	89 c2                	mov    %eax,%edx
   12176:	48 8b 85 80 f0 ff ff 	mov    -0xf80(%rbp),%rax
   1217d:	89 10                	mov    %edx,(%rax)
   1217f:	48 8b 85 80 f0 ff ff 	mov    -0xf80(%rbp),%rax
   12186:	8b 10                	mov    (%rax),%edx
   12188:	8b 85 b8 f3 ff ff    	mov    -0xc48(%rbp),%eax
   1218e:	31 d0                	xor    %edx,%eax
   12190:	89 85 b8 f3 ff ff    	mov    %eax,-0xc48(%rbp)
   12196:	48 8b 85 88 f0 ff ff 	mov    -0xf78(%rbp),%rax
   1219d:	48 8d 15 00 d0 00 00 	lea    0xd000(%rip),%rdx        # 1f1a4 <g_256+0x24>
   121a4:	48 89 10             	mov    %rdx,(%rax)
   121a7:	8b 9d 2c ef ff ff    	mov    -0x10d4(%rbp),%ebx
   121ad:	48 8d 85 3e ef ff ff 	lea    -0x10c2(%rbp),%rax
   121b4:	48 89 85 10 f4 ff ff 	mov    %rax,-0xbf0(%rbp)
   121bb:	48 8b 95 10 f4 ff ff 	mov    -0xbf0(%rbp),%rdx
   121c2:	48 8b 85 90 f0 ff ff 	mov    -0xf70(%rbp),%rax
   121c9:	48 c7 00 00 00 00 00 	movq   $0x0,(%rax)
   121d0:	48 8b 85 90 f0 ff ff 	mov    -0xf70(%rbp),%rax
   121d7:	48 8b 00             	mov    (%rax),%rax
   121da:	48 39 c2             	cmp    %rax,%rdx
   121dd:	0f 94 c0             	sete   %al
   121e0:	44 0f b6 e8          	movzbl %al,%r13d
   121e4:	8b 05 02 cf 00 00    	mov    0xcf02(%rip),%eax        # 1f0ec <g_69>
   121ea:	4c 63 e0             	movslq %eax,%r12
   121ed:	48 8b 85 20 ef ff ff 	mov    -0x10e0(%rbp),%rax
   121f4:	48 ba 33 78 f4 1b 34 	movabs $0x3fdd81341bf47833,%rdx
   121fb:	81 dd 3f 
   121fe:	48 39 d0             	cmp    %rdx,%rax
   12201:	0f 95 c2             	setne  %dl
   12204:	48 8b 05 8d fe 00 00 	mov    0xfe8d(%rip),%rax        # 22098 <g_375>
   1220b:	88 10                	mov    %dl,(%rax)
   1220d:	0f b6 00             	movzbl (%rax),%eax
   12210:	3c c0                	cmp    $0xc0,%al
   12212:	0f 96 c0             	setbe  %al
   12215:	0f b6 c0             	movzbl %al,%eax
   12218:	39 85 2c ef ff ff    	cmp    %eax,-0x10d4(%rbp)
   1221e:	0f 9d c0             	setge  %al
   12221:	0f b6 c0             	movzbl %al,%eax
   12224:	23 85 70 ef ff ff    	and    -0x1090(%rbp),%eax
   1222a:	3d 2a c2 94 7c       	cmp    $0x7c94c22a,%eax
   1222f:	0f 94 c0             	sete   %al
   12232:	0f b6 c0             	movzbl %al,%eax
   12235:	be 04 00 00 00       	mov    $0x4,%esi
   1223a:	89 c7                	mov    %eax,%edi
   1223c:	e8 ad 80 ff ff       	callq  a2ee <safe_lshift_func_int8_t_s_u>
   12241:	48 0f be c0          	movsbq %al,%rax
   12245:	4c 89 e6             	mov    %r12,%rsi
   12248:	48 89 c7             	mov    %rax,%rdi
   1224b:	e8 64 87 ff ff       	callq  a9b4 <safe_mod_func_int64_t_s_s>
   12250:	49 39 c5             	cmp    %rax,%r13
   12253:	0f 95 c0             	setne  %al
   12256:	0f b6 c0             	movzbl %al,%eax
   12259:	89 c2                	mov    %eax,%edx
   1225b:	0f b6 85 37 ef ff ff 	movzbl -0x10c9(%rbp),%eax
   12262:	31 d0                	xor    %edx,%eax
   12264:	88 85 37 ef ff ff    	mov    %al,-0x10c9(%rbp)
   1226a:	0f b6 85 37 ef ff ff 	movzbl -0x10c9(%rbp),%eax
   12271:	89 de                	mov    %ebx,%esi
   12273:	89 c7                	mov    %eax,%edi
   12275:	e8 44 8a ff ff       	callq  acbe <safe_rshift_func_uint8_t_u_u>
   1227a:	84 c0                	test   %al,%al
   1227c:	0f 94 c0             	sete   %al
   1227f:	0f b6 c0             	movzbl %al,%eax
   12282:	be 02 00 00 00       	mov    $0x2,%esi
   12287:	89 c7                	mov    %eax,%edi
   12289:	e8 de 80 ff ff       	callq  a36c <safe_rshift_func_int8_t_s_u>
   1228e:	f7 d0                	not    %eax
   12290:	0f b6 d0             	movzbl %al,%edx
   12293:	48 8b 85 80 f0 ff ff 	mov    -0xf80(%rbp),%rax
   1229a:	8b 00                	mov    (%rax),%eax
   1229c:	0f b6 c0             	movzbl %al,%eax
   1229f:	89 d6                	mov    %edx,%esi
   122a1:	89 c7                	mov    %eax,%edi
   122a3:	e8 eb 88 ff ff       	callq  ab93 <safe_mul_func_uint8_t_u_u>
   122a8:	8b 85 2c ef ff ff    	mov    -0x10d4(%rbp),%eax
   122ae:	83 c8 fb             	or     $0xfffffffb,%eax
   122b1:	89 c2                	mov    %eax,%edx
   122b3:	48 8b 85 80 f0 ff ff 	mov    -0xf80(%rbp),%rax
   122ba:	89 10                	mov    %edx,(%rax)
   122bc:	8b 05 4a d1 00 00    	mov    0xd14a(%rip),%eax        # 1f40c <g_704>
   122c2:	83 c0 01             	add    $0x1,%eax
   122c5:	89 05 41 d1 00 00    	mov    %eax,0xd141(%rip)        # 1f40c <g_704>
   122cb:	0f b6 85 3a ef ff ff 	movzbl -0x10c6(%rbp),%eax
   122d2:	0f b6 d8             	movzbl %al,%ebx
   122d5:	48 8b 85 a8 fa ff ff 	mov    -0x558(%rbp),%rax
   122dc:	48 85 c0             	test   %rax,%rax
   122df:	0f 94 c0             	sete   %al
   122e2:	44 0f b6 e8          	movzbl %al,%r13d
   122e6:	48 8b 05 b3 fd 00 00 	mov    0xfdb3(%rip),%rax        # 220a0 <g_447>
   122ed:	4c 8b 30             	mov    (%rax),%r14
   122f0:	48 8b 85 20 ef ff ff 	mov    -0x10e0(%rbp),%rax
   122f7:	44 0f b6 e0          	movzbl %al,%r12d
   122fb:	48 8b 85 80 f0 ff ff 	mov    -0xf80(%rbp),%rax
   12302:	8b 00                	mov    (%rax),%eax
   12304:	85 c0                	test   %eax,%eax
   12306:	0f 95 c0             	setne  %al
   12309:	88 05 f9 cd 00 00    	mov    %al,0xcdf9(%rip)        # 1f108 <g_114>
   1230f:	0f b6 05 f2 cd 00 00 	movzbl 0xcdf2(%rip),%eax        # 1f108 <g_114>
   12316:	0f b6 c0             	movzbl %al,%eax
   12319:	be 00 00 00 00       	mov    $0x0,%esi
   1231e:	89 c7                	mov    %eax,%edi
   12320:	e8 99 89 ff ff       	callq  acbe <safe_rshift_func_uint8_t_u_u>
   12325:	0f b6 c0             	movzbl %al,%eax
   12328:	44 89 e6             	mov    %r12d,%esi
   1232b:	89 c7                	mov    %eax,%edi
   1232d:	e8 61 88 ff ff       	callq  ab93 <safe_mul_func_uint8_t_u_u>
   12332:	3c 61                	cmp    $0x61,%al
   12334:	0f 97 c0             	seta   %al
   12337:	0f b6 d0             	movzbl %al,%edx
   1233a:	48 8b 05 57 fd 00 00 	mov    0xfd57(%rip),%rax        # 22098 <g_375>
   12341:	0f b6 00             	movzbl (%rax),%eax
   12344:	3c 01                	cmp    $0x1,%al
   12346:	0f 95 c1             	setne  %cl
   12349:	48 8b 05 48 fd 00 00 	mov    0xfd48(%rip),%rax        # 22098 <g_375>
   12350:	88 08                	mov    %cl,(%rax)
   12352:	0f b6 00             	movzbl (%rax),%eax
   12355:	0f b6 c0             	movzbl %al,%eax
   12358:	89 d6                	mov    %edx,%esi
   1235a:	89 c7                	mov    %eax,%edi
   1235c:	e8 32 88 ff ff       	callq  ab93 <safe_mul_func_uint8_t_u_u>
   12361:	0f b6 c0             	movzbl %al,%eax
   12364:	49 39 c6             	cmp    %rax,%r14
   12367:	0f 9f c0             	setg   %al
   1236a:	0f b6 d0             	movzbl %al,%edx
   1236d:	0f b6 85 39 ef ff ff 	movzbl -0x10c7(%rbp),%eax
   12374:	39 c2                	cmp    %eax,%edx
   12376:	0f 9c c0             	setl   %al
   12379:	0f b6 d0             	movzbl %al,%edx
   1237c:	48 8b 85 98 f0 ff ff 	mov    -0xf68(%rbp),%rax
   12383:	48 89 10             	mov    %rdx,(%rax)
   12386:	48 8b 85 98 f0 ff ff 	mov    -0xf68(%rbp),%rax
   1238d:	48 8b 00             	mov    (%rax),%rax
   12390:	49 39 c5             	cmp    %rax,%r13
   12393:	77 07                	ja     1239c <func_44+0x1509>
   12395:	ba 01 00 00 00       	mov    $0x1,%edx
   1239a:	eb 05                	jmp    123a1 <func_44+0x150e>
   1239c:	ba 00 00 00 00       	mov    $0x0,%edx
   123a1:	48 8b 85 20 ef ff ff 	mov    -0x10e0(%rbp),%rax
   123a8:	48 39 c2             	cmp    %rax,%rdx
   123ab:	0f 93 c0             	setae  %al
   123ae:	0f b6 c0             	movzbl %al,%eax
   123b1:	89 c2                	mov    %eax,%edx
   123b3:	0f b6 05 60 ce 00 00 	movzbl 0xce60(%rip),%eax        # 1f21a <g_381>
   123ba:	31 d0                	xor    %edx,%eax
   123bc:	88 05 58 ce 00 00    	mov    %al,0xce58(%rip)        # 1f21a <g_381>
   123c2:	0f b6 05 51 ce 00 00 	movzbl 0xce51(%rip),%eax        # 1f21a <g_381>
   123c9:	0f b6 c0             	movzbl %al,%eax
   123cc:	89 de                	mov    %ebx,%esi
   123ce:	89 c7                	mov    %eax,%edi
   123d0:	e8 06 88 ff ff       	callq  abdb <safe_div_func_uint8_t_u_u>
   123d5:	0f b6 c0             	movzbl %al,%eax
   123d8:	39 85 2c ef ff ff    	cmp    %eax,-0x10d4(%rbp)
   123de:	74 0f                	je     123ef <func_44+0x155c>
   123e0:	48 8b 05 b1 fc 00 00 	mov    0xfcb1(%rip),%rax        # 22098 <g_375>
   123e7:	0f b6 00             	movzbl (%rax),%eax
   123ea:	e9 71 28 00 00       	jmpq   14c60 <func_44+0x3dcd>
   123ef:	c7 85 74 ef ff ff 5c 	movl   $0xe8f5b15c,-0x108c(%rbp)
   123f6:	b1 f5 e8 
   123f9:	48 8d 95 b0 f4 ff ff 	lea    -0xb50(%rbp),%rdx
   12400:	b8 00 00 00 00       	mov    $0x0,%eax
   12405:	b9 14 00 00 00       	mov    $0x14,%ecx
   1240a:	48 89 d7             	mov    %rdx,%rdi
   1240d:	f3 48 ab             	rep stos %rax,%es:(%rdi)
   12410:	c7 85 b0 f4 ff ff c5 	movl   $0xe9c51bc5,-0xb50(%rbp)
   12417:	1b c5 e9 
   1241a:	c7 85 b8 f4 ff ff c5 	movl   $0xe9c51bc5,-0xb48(%rbp)
   12421:	1b c5 e9 
   12424:	c7 85 c0 f4 ff ff c5 	movl   $0xe9c51bc5,-0xb40(%rbp)
   1242b:	1b c5 e9 
   1242e:	c7 85 c8 f4 ff ff c5 	movl   $0xe9c51bc5,-0xb38(%rbp)
   12435:	1b c5 e9 
   12438:	c7 85 d0 f4 ff ff c5 	movl   $0xe9c51bc5,-0xb30(%rbp)
   1243f:	1b c5 e9 
   12442:	c7 85 d8 f4 ff ff c5 	movl   $0xe9c51bc5,-0xb28(%rbp)
   12449:	1b c5 e9 
   1244c:	c7 85 e0 f4 ff ff c5 	movl   $0xe9c51bc5,-0xb20(%rbp)
   12453:	1b c5 e9 
   12456:	c7 85 e8 f4 ff ff c5 	movl   $0xe9c51bc5,-0xb18(%rbp)
   1245d:	1b c5 e9 
   12460:	c7 85 f0 f4 ff ff c5 	movl   $0xe9c51bc5,-0xb10(%rbp)
   12467:	1b c5 e9 
   1246a:	c7 85 f8 f4 ff ff c5 	movl   $0xe9c51bc5,-0xb08(%rbp)
   12471:	1b c5 e9 
   12474:	c7 85 00 f5 ff ff c5 	movl   $0xe9c51bc5,-0xb00(%rbp)
   1247b:	1b c5 e9 
   1247e:	c7 85 08 f5 ff ff c5 	movl   $0xe9c51bc5,-0xaf8(%rbp)
   12485:	1b c5 e9 
   12488:	c7 85 10 f5 ff ff c5 	movl   $0xe9c51bc5,-0xaf0(%rbp)
   1248f:	1b c5 e9 
   12492:	c7 85 18 f5 ff ff c5 	movl   $0xe9c51bc5,-0xae8(%rbp)
   12499:	1b c5 e9 
   1249c:	c7 85 20 f5 ff ff c5 	movl   $0xe9c51bc5,-0xae0(%rbp)
   124a3:	1b c5 e9 
   124a6:	c7 85 28 f5 ff ff c5 	movl   $0xe9c51bc5,-0xad8(%rbp)
   124ad:	1b c5 e9 
   124b0:	c7 85 30 f5 ff ff c5 	movl   $0xe9c51bc5,-0xad0(%rbp)
   124b7:	1b c5 e9 
   124ba:	c7 85 38 f5 ff ff c5 	movl   $0xe9c51bc5,-0xac8(%rbp)
   124c1:	1b c5 e9 
   124c4:	c7 85 40 f5 ff ff c5 	movl   $0xe9c51bc5,-0xac0(%rbp)
   124cb:	1b c5 e9 
   124ce:	c7 85 48 f5 ff ff c5 	movl   $0xe9c51bc5,-0xab8(%rbp)
   124d5:	1b c5 e9 
   124d8:	48 8d 85 c8 ef ff ff 	lea    -0x1038(%rbp),%rax
   124df:	48 89 85 a0 f0 ff ff 	mov    %rax,-0xf60(%rbp)
   124e6:	c7 85 78 ef ff ff 01 	movl   $0x1,-0x1088(%rbp)
   124ed:	00 00 00 
   124f0:	48 8b 85 20 ef ff ff 	mov    -0x10e0(%rbp),%rax
   124f7:	0f be d8             	movsbl %al,%ebx
   124fa:	48 8b 95 20 ef ff ff 	mov    -0x10e0(%rbp),%rdx
   12501:	48 8b 05 98 fb 00 00 	mov    0xfb98(%rip),%rax        # 220a0 <g_447>
   12508:	48 89 10             	mov    %rdx,(%rax)
   1250b:	48 8b 85 a0 f0 ff ff 	mov    -0xf60(%rbp),%rax
   12512:	48 8b 95 20 f5 ff ff 	mov    -0xae0(%rbp),%rdx
   12519:	48 89 10             	mov    %rdx,(%rax)
   1251c:	8b 85 2c ef ff ff    	mov    -0x10d4(%rbp),%eax
   12522:	0f be c0             	movsbl %al,%eax
   12525:	c7 85 74 ef ff ff 00 	movl   $0x0,-0x108c(%rbp)
   1252c:	00 00 00 
   1252f:	89 c6                	mov    %eax,%esi
   12531:	bf 00 00 00 00       	mov    $0x0,%edi
   12536:	e8 f6 7c ff ff       	callq  a231 <safe_mod_func_int8_t_s_s>
   1253b:	0f b6 95 3b ef ff ff 	movzbl -0x10c5(%rbp),%edx
   12542:	48 8b 85 98 f0 ff ff 	mov    -0xf68(%rbp),%rax
   12549:	48 8b 00             	mov    (%rax),%rax
   1254c:	48 8d 48 01          	lea    0x1(%rax),%rcx
   12550:	48 8b 85 98 f0 ff ff 	mov    -0xf68(%rbp),%rax
   12557:	48 89 08             	mov    %rcx,(%rax)
   1255a:	48 8b 85 98 f0 ff ff 	mov    -0xf68(%rbp),%rax
   12561:	48 8b 08             	mov    (%rax),%rcx
   12564:	8b 85 a8 f3 ff ff    	mov    -0xc58(%rbp),%eax
   1256a:	48 98                	cltq   
   1256c:	48 39 c1             	cmp    %rax,%rcx
   1256f:	0f 97 c0             	seta   %al
   12572:	0f b6 c0             	movzbl %al,%eax
   12575:	39 85 2c ef ff ff    	cmp    %eax,-0x10d4(%rbp)
   1257b:	0f 95 c0             	setne  %al
   1257e:	0f b6 c0             	movzbl %al,%eax
   12581:	89 d6                	mov    %edx,%esi
   12583:	89 c7                	mov    %eax,%edi
   12585:	e8 c2 86 ff ff       	callq  ac4c <safe_lshift_func_uint8_t_u_u>
   1258a:	0f be c0             	movsbl %al,%eax
   1258d:	89 de                	mov    %ebx,%esi
   1258f:	89 c7                	mov    %eax,%edi
   12591:	e8 d4 7c ff ff       	callq  a26a <safe_div_func_int8_t_s_s>
   12596:	88 05 58 cb 00 00    	mov    %al,0xcb58(%rip)        # 1f0f4 <g_97>
   1259c:	0f b6 05 51 cb 00 00 	movzbl 0xcb51(%rip),%eax        # 1f0f4 <g_97>
   125a3:	0f be d0             	movsbl %al,%edx
   125a6:	48 8b 05 e3 fa 00 00 	mov    0xfae3(%rip),%rax        # 22090 <g_192>
   125ad:	48 8b 00             	mov    (%rax),%rax
   125b0:	48 85 c0             	test   %rax,%rax
   125b3:	0f 95 c0             	setne  %al
   125b6:	0f b6 c0             	movzbl %al,%eax
   125b9:	89 d6                	mov    %edx,%esi
   125bb:	89 c7                	mov    %eax,%edi
   125bd:	e8 43 86 ff ff       	callq  ac05 <safe_lshift_func_uint8_t_u_s>
   125c2:	89 c2                	mov    %eax,%edx
   125c4:	48 8d 05 e5 fa 00 00 	lea    0xfae5(%rip),%rax        # 220b0 <g_515>
   125cb:	48 8b 00             	mov    (%rax),%rax
   125ce:	0f b6 d2             	movzbl %dl,%edx
   125d1:	66 89 10             	mov    %dx,(%rax)
   125d4:	0f b7 00             	movzwl (%rax),%eax
   125d7:	98                   	cwtl   
   125d8:	39 85 2c ef ff ff    	cmp    %eax,-0x10d4(%rbp)
   125de:	48 be e3 d5 99 fa 10 	movabs $0xec812a10fa99d5e3,%rsi
   125e5:	2a 81 ec 
   125e8:	bf 07 00 00 00       	mov    $0x7,%edi
   125ed:	e8 59 8a ff ff       	callq  b04b <safe_sub_func_uint64_t_u_u>
   125f2:	83 bd 2c ef ff ff 00 	cmpl   $0x0,-0x10d4(%rbp)
   125f9:	48 8b 85 28 f2 ff ff 	mov    -0xdd8(%rbp),%rax
   12600:	48 85 c0             	test   %rax,%rax
   12603:	0f 94 c0             	sete   %al
   12606:	0f b6 d0             	movzbl %al,%edx
   12609:	48 8b 85 80 f0 ff ff 	mov    -0xf80(%rbp),%rax
   12610:	89 10                	mov    %edx,(%rax)
   12612:	48 8d 05 97 fa 00 00 	lea    0xfa97(%rip),%rax        # 220b0 <g_515>
   12619:	48 8b 00             	mov    (%rax),%rax
   1261c:	0f b7 00             	movzwl (%rax),%eax
   1261f:	66 85 c0             	test   %ax,%ax
   12622:	0f 85 e4 00 00 00    	jne    1270c <func_44+0x1879>
   12628:	8b 85 a8 f3 ff ff    	mov    -0xc58(%rbp),%eax
   1262e:	85 c0                	test   %eax,%eax
   12630:	0f 84 d6 00 00 00    	je     1270c <func_44+0x1879>
   12636:	be 00 00 00 00       	mov    $0x0,%esi
   1263b:	bf f7 ff ff ff       	mov    $0xfffffff7,%edi
   12640:	e8 5c 7c ff ff       	callq  a2a1 <safe_lshift_func_int8_t_s_s>
   12645:	44 0f be e8          	movsbl %al,%r13d
   12649:	8b 85 74 ef ff ff    	mov    -0x108c(%rbp),%eax
   1264f:	0f be d8             	movsbl %al,%ebx
   12652:	83 bd 74 ef ff ff 00 	cmpl   $0x0,-0x108c(%rbp)
   12659:	75 3a                	jne    12695 <func_44+0x1802>
   1265b:	8b 05 c7 cb 00 00    	mov    0xcbc7(%rip),%eax        # 1f228 <g_450>
   12661:	44 0f b6 e0          	movzbl %al,%r12d
   12665:	8b 05 a5 cb 00 00    	mov    0xcba5(%rip),%eax        # 1f210 <g_263+0x8>
   1266b:	48 8b 15 26 fa 00 00 	mov    0xfa26(%rip),%rdx        # 22098 <g_375>
   12672:	c6 02 00             	movb   $0x0,(%rdx)
   12675:	89 c6                	mov    %eax,%esi
   12677:	bf 00 00 00 00       	mov    $0x0,%edi
   1267c:	e8 cb 85 ff ff       	callq  ac4c <safe_lshift_func_uint8_t_u_u>
   12681:	b8 01 00 00 00       	mov    $0x1,%eax
   12686:	0f b6 c0             	movzbl %al,%eax
   12689:	44 89 e6             	mov    %r12d,%esi
   1268c:	89 c7                	mov    %eax,%edi
   1268e:	e8 e5 84 ff ff       	callq  ab78 <safe_sub_func_uint8_t_u_u>
   12693:	84 c0                	test   %al,%al
   12695:	81 bd 74 ef ff ff 13 	cmpl   $0xd413,-0x108c(%rbp)
   1269c:	d4 00 00 
   1269f:	0f 97 c0             	seta   %al
   126a2:	0f b6 c0             	movzbl %al,%eax
   126a5:	89 de                	mov    %ebx,%esi
   126a7:	89 c7                	mov    %eax,%edi
   126a9:	e8 64 7b ff ff       	callq  a212 <safe_mul_func_int8_t_s_s>
   126ae:	66 98                	cbtw   
   126b0:	66 89 05 95 0c 01 00 	mov    %ax,0x10c95(%rip)        # 2334c <g_100>
   126b7:	0f b7 05 8e 0c 01 00 	movzwl 0x10c8e(%rip),%eax        # 2334c <g_100>
   126be:	0f b7 c0             	movzwl %ax,%eax
   126c1:	41 39 c5             	cmp    %eax,%r13d
   126c4:	0f 9d c0             	setge  %al
   126c7:	0f b6 c0             	movzbl %al,%eax
   126ca:	0b 85 74 ef ff ff    	or     -0x108c(%rbp),%eax
   126d0:	3d 7c b5 00 00       	cmp    $0xb57c,%eax
   126d5:	77 11                	ja     126e8 <func_44+0x1855>
   126d7:	8b 85 20 f5 ff ff    	mov    -0xae0(%rbp),%eax
   126dd:	85 c0                	test   %eax,%eax
   126df:	74 07                	je     126e8 <func_44+0x1855>
   126e1:	ba 01 00 00 00       	mov    $0x1,%edx
   126e6:	eb 05                	jmp    126ed <func_44+0x185a>
   126e8:	ba 00 00 00 00       	mov    $0x0,%edx
   126ed:	48 8b 85 80 f0 ff ff 	mov    -0xf80(%rbp),%rax
   126f4:	8b 00                	mov    (%rax),%eax
   126f6:	21 c2                	and    %eax,%edx
   126f8:	48 8b 85 80 f0 ff ff 	mov    -0xf80(%rbp),%rax
   126ff:	89 10                	mov    %edx,(%rax)
   12701:	8b 85 2c ef ff ff    	mov    -0x10d4(%rbp),%eax
   12707:	e9 54 25 00 00       	jmpq   14c60 <func_44+0x3dcd>
   1270c:	8b 85 20 f5 ff ff    	mov    -0xae0(%rbp),%eax
   12712:	09 85 78 ef ff ff    	or     %eax,-0x1088(%rbp)
   12718:	48 8b 15 69 f9 00 00 	mov    0xf969(%rip),%rdx        # 22088 <g_193>
   1271f:	48 8b 05 62 f9 00 00 	mov    0xf962(%rip),%rax        # 22088 <g_193>
   12726:	48 8b 12             	mov    (%rdx),%rdx
   12729:	48 89 10             	mov    %rdx,(%rax)
   1272c:	48 8b 05 5d f9 00 00 	mov    0xf95d(%rip),%rax        # 22090 <g_192>
   12733:	48 8b 00             	mov    (%rax),%rax
   12736:	48 8d 95 50 f2 ff ff 	lea    -0xdb0(%rbp),%rdx
   1273d:	48 83 c2 18          	add    $0x18,%rdx
   12741:	48 89 10             	mov    %rdx,(%rax)
   12744:	48 8b 15 3d f9 00 00 	mov    0xf93d(%rip),%rdx        # 22088 <g_193>
   1274b:	48 8b 05 36 f9 00 00 	mov    0xf936(%rip),%rax        # 22088 <g_193>
   12752:	48 8b 12             	mov    (%rdx),%rdx
   12755:	48 89 10             	mov    %rdx,(%rax)
   12758:	48 8b 00             	mov    (%rax),%rax
   1275b:	48 89 85 38 f0 ff ff 	mov    %rax,-0xfc8(%rbp)
   12762:	8b 05 84 c9 00 00    	mov    0xc984(%rip),%eax        # 1f0ec <g_69>
   12768:	89 05 7e c9 00 00    	mov    %eax,0xc97e(%rip)        # 1f0ec <g_69>
   1276e:	8b 15 78 c9 00 00    	mov    0xc978(%rip),%edx        # 1f0ec <g_69>
   12774:	48 8b 85 38 f0 ff ff 	mov    -0xfc8(%rbp),%rax
   1277b:	8b 00                	mov    (%rax),%eax
   1277d:	39 c2                	cmp    %eax,%edx
   1277f:	0f 8d 79 23 00 00    	jge    14afe <func_44+0x3c6b>
   12785:	48 8d 05 a4 ca 00 00 	lea    0xcaa4(%rip),%rax        # 1f230 <g_557>
   1278c:	48 89 85 20 f1 ff ff 	mov    %rax,-0xee0(%rbp)
   12793:	c7 85 94 ef ff ff ff 	movl   $0xffffffff,-0x106c(%rbp)
   1279a:	ff ff ff 
   1279d:	48 8d 05 3c c9 00 00 	lea    0xc93c(%rip),%rax        # 1f0e0 <g_59>
   127a4:	48 89 85 28 f1 ff ff 	mov    %rax,-0xed8(%rbp)
   127ab:	48 8d 85 e0 ef ff ff 	lea    -0x1020(%rbp),%rax
   127b2:	48 89 85 d0 f6 ff ff 	mov    %rax,-0x930(%rbp)
   127b9:	48 8d 05 50 c9 00 00 	lea    0xc950(%rip),%rax        # 1f110 <g_117>
   127c0:	48 89 85 d8 f6 ff ff 	mov    %rax,-0x928(%rbp)
   127c7:	48 c7 85 e0 f6 ff ff 	movq   $0x0,-0x920(%rbp)
   127ce:	00 00 00 00 
   127d2:	48 8d 85 e0 ef ff ff 	lea    -0x1020(%rbp),%rax
   127d9:	48 89 85 e8 f6 ff ff 	mov    %rax,-0x918(%rbp)
   127e0:	48 8d 05 29 c9 00 00 	lea    0xc929(%rip),%rax        # 1f110 <g_117>
   127e7:	48 89 85 f0 f6 ff ff 	mov    %rax,-0x910(%rbp)
   127ee:	48 8d 05 1b c9 00 00 	lea    0xc91b(%rip),%rax        # 1f110 <g_117>
   127f5:	48 89 85 f8 f6 ff ff 	mov    %rax,-0x908(%rbp)
   127fc:	48 8d 05 0d c9 00 00 	lea    0xc90d(%rip),%rax        # 1f110 <g_117>
   12803:	48 89 85 00 f7 ff ff 	mov    %rax,-0x900(%rbp)
   1280a:	48 8d 05 ff c8 00 00 	lea    0xc8ff(%rip),%rax        # 1f110 <g_117>
   12811:	48 89 85 08 f7 ff ff 	mov    %rax,-0x8f8(%rbp)
   12818:	48 8d 85 e0 ef ff ff 	lea    -0x1020(%rbp),%rax
   1281f:	48 89 85 10 f7 ff ff 	mov    %rax,-0x8f0(%rbp)
   12826:	48 c7 85 18 f7 ff ff 	movq   $0x0,-0x8e8(%rbp)
   1282d:	00 00 00 00 
   12831:	48 8d 05 d8 c8 00 00 	lea    0xc8d8(%rip),%rax        # 1f110 <g_117>
   12838:	48 89 85 20 f7 ff ff 	mov    %rax,-0x8e0(%rbp)
   1283f:	48 8d 05 ca c8 00 00 	lea    0xc8ca(%rip),%rax        # 1f110 <g_117>
   12846:	48 89 85 28 f7 ff ff 	mov    %rax,-0x8d8(%rbp)
   1284d:	48 c7 85 30 f7 ff ff 	movq   $0x0,-0x8d0(%rbp)
   12854:	00 00 00 00 
   12858:	48 8d 85 e0 ef ff ff 	lea    -0x1020(%rbp),%rax
   1285f:	48 89 85 38 f7 ff ff 	mov    %rax,-0x8c8(%rbp)
   12866:	48 8d 85 e0 ef ff ff 	lea    -0x1020(%rbp),%rax
   1286d:	48 89 85 40 f7 ff ff 	mov    %rax,-0x8c0(%rbp)
   12874:	48 8d 05 95 c8 00 00 	lea    0xc895(%rip),%rax        # 1f110 <g_117>
   1287b:	48 89 85 48 f7 ff ff 	mov    %rax,-0x8b8(%rbp)
   12882:	48 8d 05 df c8 00 00 	lea    0xc8df(%rip),%rax        # 1f168 <g_162+0x28>
   12889:	48 89 85 50 f7 ff ff 	mov    %rax,-0x8b0(%rbp)
   12890:	48 8d 05 79 c8 00 00 	lea    0xc879(%rip),%rax        # 1f110 <g_117>
   12897:	48 89 85 58 f7 ff ff 	mov    %rax,-0x8a8(%rbp)
   1289e:	48 8d 85 e0 ef ff ff 	lea    -0x1020(%rbp),%rax
   128a5:	48 89 85 60 f7 ff ff 	mov    %rax,-0x8a0(%rbp)
   128ac:	48 8d 85 e0 ef ff ff 	lea    -0x1020(%rbp),%rax
   128b3:	48 89 85 68 f7 ff ff 	mov    %rax,-0x898(%rbp)
   128ba:	48 8d 85 e0 ef ff ff 	lea    -0x1020(%rbp),%rax
   128c1:	48 89 85 70 f7 ff ff 	mov    %rax,-0x890(%rbp)
   128c8:	48 8d 85 e0 ef ff ff 	lea    -0x1020(%rbp),%rax
   128cf:	48 89 85 78 f7 ff ff 	mov    %rax,-0x888(%rbp)
   128d6:	48 8d 85 e0 ef ff ff 	lea    -0x1020(%rbp),%rax
   128dd:	48 89 85 80 f7 ff ff 	mov    %rax,-0x880(%rbp)
   128e4:	48 8d 05 25 c8 00 00 	lea    0xc825(%rip),%rax        # 1f110 <g_117>
   128eb:	48 89 85 88 f7 ff ff 	mov    %rax,-0x878(%rbp)
   128f2:	48 8d 05 17 c8 00 00 	lea    0xc817(%rip),%rax        # 1f110 <g_117>
   128f9:	48 89 85 90 f7 ff ff 	mov    %rax,-0x870(%rbp)
   12900:	48 c7 85 98 f7 ff ff 	movq   $0x0,-0x868(%rbp)
   12907:	00 00 00 00 
   1290b:	48 8d 05 56 c8 00 00 	lea    0xc856(%rip),%rax        # 1f168 <g_162+0x28>
   12912:	48 89 85 a0 f7 ff ff 	mov    %rax,-0x860(%rbp)
   12919:	48 8d 05 48 c8 00 00 	lea    0xc848(%rip),%rax        # 1f168 <g_162+0x28>
   12920:	48 89 85 a8 f7 ff ff 	mov    %rax,-0x858(%rbp)
   12927:	48 c7 85 b0 f7 ff ff 	movq   $0x0,-0x850(%rbp)
   1292e:	00 00 00 00 
   12932:	48 8d 05 d7 c7 00 00 	lea    0xc7d7(%rip),%rax        # 1f110 <g_117>
   12939:	48 89 85 b8 f7 ff ff 	mov    %rax,-0x848(%rbp)
   12940:	48 c7 85 c0 f7 ff ff 	movq   $0x0,-0x840(%rbp)
   12947:	00 00 00 00 
   1294b:	48 8d 05 be c7 00 00 	lea    0xc7be(%rip),%rax        # 1f110 <g_117>
   12952:	48 89 85 c8 f7 ff ff 	mov    %rax,-0x838(%rbp)
   12959:	48 8d 05 b0 c7 00 00 	lea    0xc7b0(%rip),%rax        # 1f110 <g_117>
   12960:	48 89 85 d0 f7 ff ff 	mov    %rax,-0x830(%rbp)
   12967:	48 c7 85 d8 f7 ff ff 	movq   $0x0,-0x828(%rbp)
   1296e:	00 00 00 00 
   12972:	48 8d 85 e0 ef ff ff 	lea    -0x1020(%rbp),%rax
   12979:	48 89 85 e0 f7 ff ff 	mov    %rax,-0x820(%rbp)
   12980:	48 8d 85 e0 ef ff ff 	lea    -0x1020(%rbp),%rax
   12987:	48 89 85 e8 f7 ff ff 	mov    %rax,-0x818(%rbp)
   1298e:	48 8d 05 7b c7 00 00 	lea    0xc77b(%rip),%rax        # 1f110 <g_117>
   12995:	48 89 85 f0 f7 ff ff 	mov    %rax,-0x810(%rbp)
   1299c:	48 8d 05 c5 c7 00 00 	lea    0xc7c5(%rip),%rax        # 1f168 <g_162+0x28>
   129a3:	48 89 85 f8 f7 ff ff 	mov    %rax,-0x808(%rbp)
   129aa:	48 8d 05 5f c7 00 00 	lea    0xc75f(%rip),%rax        # 1f110 <g_117>
   129b1:	48 89 85 00 f8 ff ff 	mov    %rax,-0x800(%rbp)
   129b8:	48 8d 85 e0 ef ff ff 	lea    -0x1020(%rbp),%rax
   129bf:	48 89 85 08 f8 ff ff 	mov    %rax,-0x7f8(%rbp)
   129c6:	48 c7 85 10 f8 ff ff 	movq   $0x0,-0x7f0(%rbp)
   129cd:	00 00 00 00 
   129d1:	48 8d 05 38 c7 00 00 	lea    0xc738(%rip),%rax        # 1f110 <g_117>
   129d8:	48 89 85 18 f8 ff ff 	mov    %rax,-0x7e8(%rbp)
   129df:	48 8d 85 e0 ef ff ff 	lea    -0x1020(%rbp),%rax
   129e6:	48 89 85 20 f8 ff ff 	mov    %rax,-0x7e0(%rbp)
   129ed:	48 8d 05 1c c7 00 00 	lea    0xc71c(%rip),%rax        # 1f110 <g_117>
   129f4:	48 89 85 28 f8 ff ff 	mov    %rax,-0x7d8(%rbp)
   129fb:	48 c7 85 30 f8 ff ff 	movq   $0x0,-0x7d0(%rbp)
   12a02:	00 00 00 00 
   12a06:	48 8d 85 e0 ef ff ff 	lea    -0x1020(%rbp),%rax
   12a0d:	48 89 85 38 f8 ff ff 	mov    %rax,-0x7c8(%rbp)
   12a14:	48 8d 05 f5 c6 00 00 	lea    0xc6f5(%rip),%rax        # 1f110 <g_117>
   12a1b:	48 89 85 40 f8 ff ff 	mov    %rax,-0x7c0(%rbp)
   12a22:	48 8d 05 e7 c6 00 00 	lea    0xc6e7(%rip),%rax        # 1f110 <g_117>
   12a29:	48 89 85 48 f8 ff ff 	mov    %rax,-0x7b8(%rbp)
   12a30:	48 8d 05 d9 c6 00 00 	lea    0xc6d9(%rip),%rax        # 1f110 <g_117>
   12a37:	48 89 85 50 f8 ff ff 	mov    %rax,-0x7b0(%rbp)
   12a3e:	48 8d 05 cb c6 00 00 	lea    0xc6cb(%rip),%rax        # 1f110 <g_117>
   12a45:	48 89 85 58 f8 ff ff 	mov    %rax,-0x7a8(%rbp)
   12a4c:	48 8d 05 15 c7 00 00 	lea    0xc715(%rip),%rax        # 1f168 <g_162+0x28>
   12a53:	48 89 85 60 f8 ff ff 	mov    %rax,-0x7a0(%rbp)
   12a5a:	48 8d 85 e0 ef ff ff 	lea    -0x1020(%rbp),%rax
   12a61:	48 89 85 68 f8 ff ff 	mov    %rax,-0x798(%rbp)
   12a68:	48 c7 85 70 f8 ff ff 	movq   $0x0,-0x790(%rbp)
   12a6f:	00 00 00 00 
   12a73:	48 c7 85 78 f8 ff ff 	movq   $0x0,-0x788(%rbp)
   12a7a:	00 00 00 00 
   12a7e:	48 8d 85 e0 ef ff ff 	lea    -0x1020(%rbp),%rax
   12a85:	48 89 85 80 f8 ff ff 	mov    %rax,-0x780(%rbp)
   12a8c:	48 8d 05 d5 c6 00 00 	lea    0xc6d5(%rip),%rax        # 1f168 <g_162+0x28>
   12a93:	48 89 85 88 f8 ff ff 	mov    %rax,-0x778(%rbp)
   12a9a:	48 8d 05 6f c6 00 00 	lea    0xc66f(%rip),%rax        # 1f110 <g_117>
   12aa1:	48 89 85 90 f8 ff ff 	mov    %rax,-0x770(%rbp)
   12aa8:	48 8d 05 61 c6 00 00 	lea    0xc661(%rip),%rax        # 1f110 <g_117>
   12aaf:	48 89 85 98 f8 ff ff 	mov    %rax,-0x768(%rbp)
   12ab6:	48 c7 85 a0 f8 ff ff 	movq   $0x0,-0x760(%rbp)
   12abd:	00 00 00 00 
   12ac1:	48 8d 05 48 c6 00 00 	lea    0xc648(%rip),%rax        # 1f110 <g_117>
   12ac8:	48 89 85 a8 f8 ff ff 	mov    %rax,-0x758(%rbp)
   12acf:	48 8d 05 1e c6 00 00 	lea    0xc61e(%rip),%rax        # 1f0f4 <g_97>
   12ad6:	48 89 85 30 f1 ff ff 	mov    %rax,-0xed0(%rbp)
   12add:	48 8d 85 e8 ef ff ff 	lea    -0x1018(%rbp),%rax
   12ae4:	48 89 85 38 f1 ff ff 	mov    %rax,-0xec8(%rbp)
   12aeb:	c7 85 10 f0 ff ff 01 	movl   $0x1,-0xff0(%rbp)
   12af2:	00 00 00 
   12af5:	c7 85 80 f2 ff ff f7 	movl   $0xfffffff7,-0xd80(%rbp)
   12afc:	ff ff ff 
   12aff:	c7 85 84 f2 ff ff e1 	movl   $0x85abd7e1,-0xd7c(%rbp)
   12b06:	d7 ab 85 
   12b09:	c7 85 88 f2 ff ff f7 	movl   $0xfffffff7,-0xd78(%rbp)
   12b10:	ff ff ff 
   12b13:	c7 85 8c f2 ff ff e1 	movl   $0x85abd7e1,-0xd74(%rbp)
   12b1a:	d7 ab 85 
   12b1d:	c7 85 90 f2 ff ff f7 	movl   $0xfffffff7,-0xd70(%rbp)
   12b24:	ff ff ff 
   12b27:	c7 85 94 f2 ff ff e1 	movl   $0x85abd7e1,-0xd6c(%rbp)
   12b2e:	d7 ab 85 
   12b31:	c7 85 98 f2 ff ff f7 	movl   $0xfffffff7,-0xd68(%rbp)
   12b38:	ff ff ff 
   12b3b:	c7 85 9c f2 ff ff e1 	movl   $0x85abd7e1,-0xd64(%rbp)
   12b42:	d7 ab 85 
   12b45:	c7 85 a0 f2 ff ff f7 	movl   $0xfffffff7,-0xd60(%rbp)
   12b4c:	ff ff ff 
   12b4f:	c7 85 a4 f2 ff ff e1 	movl   $0x85abd7e1,-0xd5c(%rbp)
   12b56:	d7 ab 85 
   12b59:	48 8d 05 18 c6 00 00 	lea    0xc618(%rip),%rax        # 1f178 <g_229>
   12b60:	48 89 85 40 f1 ff ff 	mov    %rax,-0xec0(%rbp)
   12b67:	48 8d 85 10 f0 ff ff 	lea    -0xff0(%rbp),%rax
   12b6e:	48 89 85 48 f1 ff ff 	mov    %rax,-0xeb8(%rbp)
   12b75:	48 c7 85 50 f1 ff ff 	movq   $0x0,-0xeb0(%rbp)
   12b7c:	00 00 00 00 
   12b80:	48 8d 85 90 f5 ff ff 	lea    -0xa70(%rbp),%rax
   12b87:	48 83 c0 1c          	add    $0x1c,%rax
   12b8b:	48 89 85 58 f1 ff ff 	mov    %rax,-0xea8(%rbp)
   12b92:	48 8d 05 53 c5 00 00 	lea    0xc553(%rip),%rax        # 1f0ec <g_69>
   12b99:	48 89 85 f0 f2 ff ff 	mov    %rax,-0xd10(%rbp)
   12ba0:	48 8d 05 45 c5 00 00 	lea    0xc545(%rip),%rax        # 1f0ec <g_69>
   12ba7:	48 89 85 f8 f2 ff ff 	mov    %rax,-0xd08(%rbp)
   12bae:	48 c7 85 00 f3 ff ff 	movq   $0x0,-0xd00(%rbp)
   12bb5:	00 00 00 00 
   12bb9:	48 8d 05 2c c5 00 00 	lea    0xc52c(%rip),%rax        # 1f0ec <g_69>
   12bc0:	48 89 85 08 f3 ff ff 	mov    %rax,-0xcf8(%rbp)
   12bc7:	48 8d 05 1e c5 00 00 	lea    0xc51e(%rip),%rax        # 1f0ec <g_69>
   12bce:	48 89 85 10 f3 ff ff 	mov    %rax,-0xcf0(%rbp)
   12bd5:	48 c7 85 18 f3 ff ff 	movq   $0x0,-0xce8(%rbp)
   12bdc:	00 00 00 00 
   12be0:	48 8d 05 05 c5 00 00 	lea    0xc505(%rip),%rax        # 1f0ec <g_69>
   12be7:	48 89 85 20 f3 ff ff 	mov    %rax,-0xce0(%rbp)
   12bee:	48 8d 05 f7 c4 00 00 	lea    0xc4f7(%rip),%rax        # 1f0ec <g_69>
   12bf5:	48 89 85 28 f3 ff ff 	mov    %rax,-0xcd8(%rbp)
   12bfc:	48 c7 85 30 f3 ff ff 	movq   $0x0,-0xcd0(%rbp)
   12c03:	00 00 00 00 
   12c07:	48 8d 05 de c4 00 00 	lea    0xc4de(%rip),%rax        # 1f0ec <g_69>
   12c0e:	48 89 85 38 f3 ff ff 	mov    %rax,-0xcc8(%rbp)
   12c15:	c6 85 3d ef ff ff f7 	movb   $0xf7,-0x10c3(%rbp)
   12c1c:	66 c7 85 46 ef ff ff 	movw   $0xdbf7,-0x10ba(%rbp)
   12c23:	f7 db 
   12c25:	48 8b 85 38 f0 ff ff 	mov    -0xfc8(%rbp),%rax
   12c2c:	8b 10                	mov    (%rax),%edx
   12c2e:	48 8b 85 28 f0 ff ff 	mov    -0xfd8(%rbp),%rax
   12c35:	48 8b 00             	mov    (%rax),%rax
   12c38:	48 8d 0d 49 f4 00 00 	lea    0xf449(%rip),%rcx        # 22088 <g_193>
   12c3f:	48 39 c8             	cmp    %rcx,%rax
   12c42:	0f 94 c0             	sete   %al
   12c45:	0f b6 c0             	movzbl %al,%eax
   12c48:	39 c2                	cmp    %eax,%edx
   12c4a:	0f 94 c0             	sete   %al
   12c4d:	44 0f b6 e8          	movzbl %al,%r13d
   12c51:	48 83 bd 20 f1 ff ff 	cmpq   $0x0,-0xee0(%rbp)
   12c58:	00 
   12c59:	41 0f 95 c6          	setne  %r14b
   12c5d:	48 8b 05 2c f4 00 00 	mov    0xf42c(%rip),%rax        # 22090 <g_192>
   12c64:	48 8b 00             	mov    (%rax),%rax
   12c67:	48 8b 00             	mov    (%rax),%rax
   12c6a:	8b 10                	mov    (%rax),%edx
   12c6c:	8b 85 94 ef ff ff    	mov    -0x106c(%rbp),%eax
   12c72:	89 d6                	mov    %edx,%esi
   12c74:	89 c7                	mov    %eax,%edi
   12c76:	e8 8a 79 ff ff       	callq  a605 <safe_sub_func_int32_t_s_s>
   12c7b:	41 89 c4             	mov    %eax,%r12d
   12c7e:	48 8d 05 2b f4 00 00 	lea    0xf42b(%rip),%rax        # 220b0 <g_515>
   12c85:	48 8b 00             	mov    (%rax),%rax
   12c88:	0f b7 00             	movzwl (%rax),%eax
   12c8b:	0f b7 d8             	movzwl %ax,%ebx
   12c8e:	48 8b 85 20 ef ff ff 	mov    -0x10e0(%rbp),%rax
   12c95:	98                   	cwtl   
   12c96:	89 c7                	mov    %eax,%edi
   12c98:	e8 00 77 ff ff       	callq  a39d <safe_unary_minus_func_int16_t_s>
   12c9d:	0f b7 c0             	movzwl %ax,%eax
   12ca0:	89 de                	mov    %ebx,%esi
   12ca2:	89 c7                	mov    %eax,%edi
   12ca4:	e8 76 80 ff ff       	callq  ad1f <safe_sub_func_uint16_t_u_u>
   12ca9:	0f b7 c0             	movzwl %ax,%eax
   12cac:	41 39 c4             	cmp    %eax,%r12d
   12caf:	0f 9f c0             	setg   %al
   12cb2:	44 09 f0             	or     %r14d,%eax
   12cb5:	0f b6 c0             	movzbl %al,%eax
   12cb8:	44 89 ea             	mov    %r13d,%edx
   12cbb:	31 c2                	xor    %eax,%edx
   12cbd:	48 8b 85 d8 ef ff ff 	mov    -0x1028(%rbp),%rax
   12cc4:	48 8b 00             	mov    (%rax),%rax
   12cc7:	89 10                	mov    %edx,(%rax)
   12cc9:	8b 10                	mov    (%rax),%edx
   12ccb:	8b 85 2c ef ff ff    	mov    -0x10d4(%rbp),%eax
   12cd1:	39 c2                	cmp    %eax,%edx
   12cd3:	0f 96 c0             	setbe  %al
   12cd6:	0f b6 c0             	movzbl %al,%eax
   12cd9:	48 63 d0             	movslq %eax,%rdx
   12cdc:	48 8b 05 2d c4 00 00 	mov    0xc42d(%rip),%rax        # 1f110 <g_117>
   12ce3:	48 21 d0             	and    %rdx,%rax
   12ce6:	48 89 05 23 c4 00 00 	mov    %rax,0xc423(%rip)        # 1f110 <g_117>
   12ced:	48 8b 05 1c c4 00 00 	mov    0xc41c(%rip),%rax        # 1f110 <g_117>
   12cf4:	48 83 f8 fa          	cmp    $0xfffffffffffffffa,%rax
   12cf8:	76 07                	jbe    12d01 <func_44+0x1e6e>
   12cfa:	83 bd 2c ef ff ff 00 	cmpl   $0x0,-0x10d4(%rbp)
   12d01:	48 8b 85 30 f1 ff ff 	mov    -0xed0(%rbp),%rax
   12d08:	c6 00 00             	movb   $0x0,(%rax)
   12d0b:	48 8b 85 30 f1 ff ff 	mov    -0xed0(%rbp),%rax
   12d12:	0f b6 00             	movzbl (%rax),%eax
   12d15:	0f be c0             	movsbl %al,%eax
   12d18:	0b 85 94 ef ff ff    	or     -0x106c(%rbp),%eax
   12d1e:	85 c0                	test   %eax,%eax
   12d20:	0f 84 d6 00 00 00    	je     12dfc <func_44+0x1f69>
   12d26:	48 8d 85 e0 ef ff ff 	lea    -0x1020(%rbp),%rax
   12d2d:	48 89 85 e0 f1 ff ff 	mov    %rax,-0xe20(%rbp)
   12d34:	48 8d 05 f3 c4 00 00 	lea    0xc4f3(%rip),%rax        # 1f22e <g_556>
   12d3b:	48 89 85 e8 f1 ff ff 	mov    %rax,-0xe18(%rbp)
   12d42:	c7 85 98 ef ff ff 22 	movl   $0xe6bba822,-0x1068(%rbp)
   12d49:	a8 bb e6 
   12d4c:	c7 85 9c ef ff ff 00 	movl   $0x0,-0x1064(%rbp)
   12d53:	00 00 00 
   12d56:	48 8d 05 53 f3 00 00 	lea    0xf353(%rip),%rax        # 220b0 <g_515>
   12d5d:	48 8b 00             	mov    (%rax),%rax
   12d60:	0f b7 00             	movzwl (%rax),%eax
   12d63:	0f bf d8             	movswl %ax,%ebx
   12d66:	48 8b 85 30 f1 ff ff 	mov    -0xed0(%rbp),%rax
   12d6d:	c6 00 09             	movb   $0x9,(%rax)
   12d70:	48 8d 05 11 f3 00 00 	lea    0xf311(%rip),%rax        # 22088 <g_193>
   12d77:	48 39 85 38 f1 ff ff 	cmp    %rax,-0xec8(%rbp)
   12d7e:	0f 95 c0             	setne  %al
   12d81:	0f b6 d0             	movzbl %al,%edx
   12d84:	48 8b 85 e8 f1 ff ff 	mov    -0xe18(%rbp),%rax
   12d8b:	0f b6 00             	movzbl (%rax),%eax
   12d8e:	31 c2                	xor    %eax,%edx
   12d90:	48 8b 85 e8 f1 ff ff 	mov    -0xe18(%rbp),%rax
   12d97:	88 10                	mov    %dl,(%rax)
   12d99:	48 8b 85 e8 f1 ff ff 	mov    -0xe18(%rbp),%rax
   12da0:	0f b6 00             	movzbl (%rax),%eax
   12da3:	0f be c0             	movsbl %al,%eax
   12da6:	89 c6                	mov    %eax,%esi
   12da8:	bf 58 00 00 00       	mov    $0x58,%edi
   12dad:	e8 53 7e ff ff       	callq  ac05 <safe_lshift_func_uint8_t_u_s>
   12db2:	0f be d0             	movsbl %al,%edx
   12db5:	8b 05 39 c4 00 00    	mov    0xc439(%rip),%eax        # 1f1f4 <g_260+0x14>
   12dbb:	0f be c0             	movsbl %al,%eax
   12dbe:	89 d6                	mov    %edx,%esi
   12dc0:	89 c7                	mov    %eax,%edi
   12dc2:	e8 4b 74 ff ff       	callq  a212 <safe_mul_func_int8_t_s_s>
   12dc7:	0f be c0             	movsbl %al,%eax
   12dca:	89 de                	mov    %ebx,%esi
   12dcc:	89 c7                	mov    %eax,%edi
   12dce:	e8 bf 76 ff ff       	callq  a492 <safe_lshift_func_int16_t_s_s>
   12dd3:	83 bd 2c ef ff ff 00 	cmpl   $0x0,-0x10d4(%rbp)
   12dda:	75 09                	jne    12de5 <func_44+0x1f52>
   12ddc:	83 bd 98 ef ff ff 00 	cmpl   $0x0,-0x1068(%rbp)
   12de3:	74 07                	je     12dec <func_44+0x1f59>
   12de5:	b8 01 00 00 00       	mov    $0x1,%eax
   12dea:	eb 05                	jmp    12df1 <func_44+0x1f5e>
   12dec:	b8 00 00 00 00       	mov    $0x0,%eax
   12df1:	09 85 9c ef ff ff    	or     %eax,-0x1064(%rbp)
   12df7:	e9 c9 0d 00 00       	jmpq   13bc5 <func_44+0x2d32>
   12dfc:	48 8d 05 75 05 01 00 	lea    0x10575(%rip),%rax        # 23378 <g_507>
   12e03:	48 89 85 60 f1 ff ff 	mov    %rax,-0xea0(%rbp)
   12e0a:	48 8d 85 50 f2 ff ff 	lea    -0xdb0(%rbp),%rax
   12e11:	48 83 c0 24          	add    $0x24,%rax
   12e15:	48 89 85 68 f1 ff ff 	mov    %rax,-0xe98(%rbp)
   12e1c:	48 8d 05 55 05 01 00 	lea    0x10555(%rip),%rax        # 23378 <g_507>
   12e23:	48 89 85 70 f1 ff ff 	mov    %rax,-0xe90(%rbp)
   12e2a:	c7 85 18 f0 ff ff 00 	movl   $0x0,-0xfe8(%rbp)
   12e31:	00 00 00 
   12e34:	48 8d 85 90 f5 ff ff 	lea    -0xa70(%rbp),%rax
   12e3b:	48 05 0c 01 00 00    	add    $0x10c,%rax
   12e41:	48 89 85 78 f1 ff ff 	mov    %rax,-0xe88(%rbp)
   12e48:	48 c7 85 80 f1 ff ff 	movq   $0x0,-0xe80(%rbp)
   12e4f:	00 00 00 00 
   12e53:	48 8d 05 92 c2 00 00 	lea    0xc292(%rip),%rax        # 1f0ec <g_69>
   12e5a:	48 89 85 88 f1 ff ff 	mov    %rax,-0xe78(%rbp)
   12e61:	48 8d 85 90 f5 ff ff 	lea    -0xa70(%rbp),%rax
   12e68:	48 83 c0 58          	add    $0x58,%rax
   12e6c:	48 89 85 90 f1 ff ff 	mov    %rax,-0xe70(%rbp)
   12e73:	48 8d 85 18 f0 ff ff 	lea    -0xfe8(%rbp),%rax
   12e7a:	48 89 85 98 f1 ff ff 	mov    %rax,-0xe68(%rbp)
   12e81:	48 8d 85 50 f2 ff ff 	lea    -0xdb0(%rbp),%rax
   12e88:	48 83 c0 24          	add    $0x24,%rax
   12e8c:	48 89 85 a0 f1 ff ff 	mov    %rax,-0xe60(%rbp)
   12e93:	48 8d 85 18 f0 ff ff 	lea    -0xfe8(%rbp),%rax
   12e9a:	48 89 85 a8 f1 ff ff 	mov    %rax,-0xe58(%rbp)
   12ea1:	48 8d 85 50 f2 ff ff 	lea    -0xdb0(%rbp),%rax
   12ea8:	48 83 c0 14          	add    $0x14,%rax
   12eac:	48 89 85 b0 f1 ff ff 	mov    %rax,-0xe50(%rbp)
   12eb3:	48 8d 05 2e c2 00 00 	lea    0xc22e(%rip),%rax        # 1f0e8 <g_65>
   12eba:	48 89 85 b8 f1 ff ff 	mov    %rax,-0xe48(%rbp)
   12ec1:	48 c7 85 c0 f1 ff ff 	movq   $0x0,-0xe40(%rbp)
   12ec8:	00 00 00 00 
   12ecc:	48 8d 05 15 c2 00 00 	lea    0xc215(%rip),%rax        # 1f0e8 <g_65>
   12ed3:	48 89 85 c8 f1 ff ff 	mov    %rax,-0xe38(%rbp)
   12eda:	48 8d 85 10 f0 ff ff 	lea    -0xff0(%rbp),%rax
   12ee1:	48 89 85 d0 f1 ff ff 	mov    %rax,-0xe30(%rbp)
   12ee8:	48 c7 85 d8 f1 ff ff 	movq   $0x0,-0xe28(%rbp)
   12eef:	00 00 00 00 
   12ef3:	48 8d 85 18 f0 ff ff 	lea    -0xfe8(%rbp),%rax
   12efa:	48 89 85 b0 f8 ff ff 	mov    %rax,-0x750(%rbp)
   12f01:	48 8d 05 cc c1 00 00 	lea    0xc1cc(%rip),%rax        # 1f0d4 <g_11>
   12f08:	48 89 85 b8 f8 ff ff 	mov    %rax,-0x748(%rbp)
   12f0f:	48 8d 85 50 f2 ff ff 	lea    -0xdb0(%rbp),%rax
   12f16:	48 83 c0 14          	add    $0x14,%rax
   12f1a:	48 89 85 c0 f8 ff ff 	mov    %rax,-0x740(%rbp)
   12f21:	48 8d 05 ac c1 00 00 	lea    0xc1ac(%rip),%rax        # 1f0d4 <g_11>
   12f28:	48 89 85 c8 f8 ff ff 	mov    %rax,-0x738(%rbp)
   12f2f:	48 8d 85 80 f2 ff ff 	lea    -0xd80(%rbp),%rax
   12f36:	48 83 c0 04          	add    $0x4,%rax
   12f3a:	48 89 85 d0 f8 ff ff 	mov    %rax,-0x730(%rbp)
   12f41:	48 8d 85 90 f5 ff ff 	lea    -0xa70(%rbp),%rax
   12f48:	48 05 0c 01 00 00    	add    $0x10c,%rax
   12f4e:	48 89 85 d8 f8 ff ff 	mov    %rax,-0x728(%rbp)
   12f55:	48 c7 85 e0 f8 ff ff 	movq   $0x0,-0x720(%rbp)
   12f5c:	00 00 00 00 
   12f60:	48 8d 05 85 c1 00 00 	lea    0xc185(%rip),%rax        # 1f0ec <g_69>
   12f67:	48 89 85 e8 f8 ff ff 	mov    %rax,-0x718(%rbp)
   12f6e:	48 8d 85 80 f2 ff ff 	lea    -0xd80(%rbp),%rax
   12f75:	48 83 c0 14          	add    $0x14,%rax
   12f79:	48 89 85 f0 f8 ff ff 	mov    %rax,-0x710(%rbp)
   12f80:	48 8d 85 10 f0 ff ff 	lea    -0xff0(%rbp),%rax
   12f87:	48 89 85 f8 f8 ff ff 	mov    %rax,-0x708(%rbp)
   12f8e:	48 8d 85 90 f5 ff ff 	lea    -0xa70(%rbp),%rax
   12f95:	48 83 c0 4c          	add    $0x4c,%rax
   12f99:	48 89 85 00 f9 ff ff 	mov    %rax,-0x700(%rbp)
   12fa0:	48 8d 05 41 c1 00 00 	lea    0xc141(%rip),%rax        # 1f0e8 <g_65>
   12fa7:	48 89 85 08 f9 ff ff 	mov    %rax,-0x6f8(%rbp)
   12fae:	48 c7 85 10 f9 ff ff 	movq   $0x0,-0x6f0(%rbp)
   12fb5:	00 00 00 00 
   12fb9:	48 8d 85 4c ef ff ff 	lea    -0x10b4(%rbp),%rax
   12fc0:	48 89 85 18 f9 ff ff 	mov    %rax,-0x6e8(%rbp)
   12fc7:	48 c7 85 20 f9 ff ff 	movq   $0x0,-0x6e0(%rbp)
   12fce:	00 00 00 00 
   12fd2:	48 8d 85 80 f2 ff ff 	lea    -0xd80(%rbp),%rax
   12fd9:	48 83 c0 14          	add    $0x14,%rax
   12fdd:	48 89 85 28 f9 ff ff 	mov    %rax,-0x6d8(%rbp)
   12fe4:	48 8d 85 90 f5 ff ff 	lea    -0xa70(%rbp),%rax
   12feb:	48 05 0c 01 00 00    	add    $0x10c,%rax
   12ff1:	48 89 85 30 f9 ff ff 	mov    %rax,-0x6d0(%rbp)
   12ff8:	48 c7 85 38 f9 ff ff 	movq   $0x0,-0x6c8(%rbp)
   12fff:	00 00 00 00 
   13003:	48 c7 85 40 f9 ff ff 	movq   $0x0,-0x6c0(%rbp)
   1300a:	00 00 00 00 
   1300e:	48 c7 85 48 f9 ff ff 	movq   $0x0,-0x6b8(%rbp)
   13015:	00 00 00 00 
   13019:	48 8d 85 50 f2 ff ff 	lea    -0xdb0(%rbp),%rax
   13020:	48 83 c0 1c          	add    $0x1c,%rax
   13024:	48 89 85 50 f9 ff ff 	mov    %rax,-0x6b0(%rbp)
   1302b:	48 8d 05 a2 c0 00 00 	lea    0xc0a2(%rip),%rax        # 1f0d4 <g_11>
   13032:	48 89 85 58 f9 ff ff 	mov    %rax,-0x6a8(%rbp)
   13039:	48 8d 85 50 f2 ff ff 	lea    -0xdb0(%rbp),%rax
   13040:	48 83 c0 14          	add    $0x14,%rax
   13044:	48 89 85 60 f9 ff ff 	mov    %rax,-0x6a0(%rbp)
   1304b:	48 c7 85 68 f9 ff ff 	movq   $0x0,-0x698(%rbp)
   13052:	00 00 00 00 
   13056:	48 c7 85 70 f9 ff ff 	movq   $0x0,-0x690(%rbp)
   1305d:	00 00 00 00 
   13061:	48 c7 85 78 f9 ff ff 	movq   $0x0,-0x688(%rbp)
   13068:	00 00 00 00 
   1306c:	48 8d 85 90 f5 ff ff 	lea    -0xa70(%rbp),%rax
   13073:	48 05 0c 01 00 00    	add    $0x10c,%rax
   13079:	48 89 85 80 f9 ff ff 	mov    %rax,-0x680(%rbp)
   13080:	48 8d 85 10 f0 ff ff 	lea    -0xff0(%rbp),%rax
   13087:	48 89 85 88 f9 ff ff 	mov    %rax,-0x678(%rbp)
   1308e:	48 8d 85 18 f0 ff ff 	lea    -0xfe8(%rbp),%rax
   13095:	48 89 85 90 f9 ff ff 	mov    %rax,-0x670(%rbp)
   1309c:	48 c7 85 98 f9 ff ff 	movq   $0x0,-0x668(%rbp)
   130a3:	00 00 00 00 
   130a7:	48 c7 85 a0 f9 ff ff 	movq   $0x0,-0x660(%rbp)
   130ae:	00 00 00 00 
   130b2:	48 c7 85 a8 f9 ff ff 	movq   $0x0,-0x658(%rbp)
   130b9:	00 00 00 00 
   130bd:	48 c7 85 b0 f9 ff ff 	movq   $0x0,-0x650(%rbp)
   130c4:	00 00 00 00 
   130c8:	48 8d 85 80 f2 ff ff 	lea    -0xd80(%rbp),%rax
   130cf:	48 83 c0 1c          	add    $0x1c,%rax
   130d3:	48 89 85 b8 f9 ff ff 	mov    %rax,-0x648(%rbp)
   130da:	48 8d 85 80 f2 ff ff 	lea    -0xd80(%rbp),%rax
   130e1:	48 83 c0 1c          	add    $0x1c,%rax
   130e5:	48 89 85 c0 f9 ff ff 	mov    %rax,-0x640(%rbp)
   130ec:	48 c7 85 c8 f9 ff ff 	movq   $0x0,-0x638(%rbp)
   130f3:	00 00 00 00 
   130f7:	48 8d 85 18 f0 ff ff 	lea    -0xfe8(%rbp),%rax
   130fe:	48 89 85 d0 f9 ff ff 	mov    %rax,-0x630(%rbp)
   13105:	48 8d 85 90 f5 ff ff 	lea    -0xa70(%rbp),%rax
   1310c:	48 83 c0 60          	add    $0x60,%rax
   13110:	48 89 85 d8 f9 ff ff 	mov    %rax,-0x628(%rbp)
   13117:	48 8d 85 18 f0 ff ff 	lea    -0xfe8(%rbp),%rax
   1311e:	48 89 85 e0 f9 ff ff 	mov    %rax,-0x620(%rbp)
   13125:	48 8d 85 18 f0 ff ff 	lea    -0xfe8(%rbp),%rax
   1312c:	48 89 85 e8 f9 ff ff 	mov    %rax,-0x618(%rbp)
   13133:	48 8d 85 18 f0 ff ff 	lea    -0xfe8(%rbp),%rax
   1313a:	48 89 85 f0 f9 ff ff 	mov    %rax,-0x610(%rbp)
   13141:	48 8d 05 88 bf 00 00 	lea    0xbf88(%rip),%rax        # 1f0d0 <g_10>
   13148:	48 89 85 f8 f9 ff ff 	mov    %rax,-0x608(%rbp)
   1314f:	48 8d 85 10 f0 ff ff 	lea    -0xff0(%rbp),%rax
   13156:	48 89 85 00 fa ff ff 	mov    %rax,-0x600(%rbp)
   1315d:	48 c7 85 08 fa ff ff 	movq   $0x0,-0x5f8(%rbp)
   13164:	00 00 00 00 
   13168:	48 8d 85 10 f0 ff ff 	lea    -0xff0(%rbp),%rax
   1316f:	48 89 85 10 fa ff ff 	mov    %rax,-0x5f0(%rbp)
   13176:	48 c7 85 18 fa ff ff 	movq   $0x0,-0x5e8(%rbp)
   1317d:	00 00 00 00 
   13181:	48 8d 85 80 f2 ff ff 	lea    -0xd80(%rbp),%rax
   13188:	48 89 85 20 fa ff ff 	mov    %rax,-0x5e0(%rbp)
   1318f:	48 8d 85 18 f0 ff ff 	lea    -0xfe8(%rbp),%rax
   13196:	48 89 85 28 fa ff ff 	mov    %rax,-0x5d8(%rbp)
   1319d:	48 8d 85 4c ef ff ff 	lea    -0x10b4(%rbp),%rax
   131a4:	48 89 85 30 fa ff ff 	mov    %rax,-0x5d0(%rbp)
   131ab:	48 c7 85 38 fa ff ff 	movq   $0x0,-0x5c8(%rbp)
   131b2:	00 00 00 00 
   131b6:	48 8d 85 18 f0 ff ff 	lea    -0xfe8(%rbp),%rax
   131bd:	48 89 85 40 fa ff ff 	mov    %rax,-0x5c0(%rbp)
   131c4:	48 8d 05 09 bf 00 00 	lea    0xbf09(%rip),%rax        # 1f0d4 <g_11>
   131cb:	48 89 85 48 fa ff ff 	mov    %rax,-0x5b8(%rbp)
   131d2:	48 8d 85 4c ef ff ff 	lea    -0x10b4(%rbp),%rax
   131d9:	48 89 85 50 fa ff ff 	mov    %rax,-0x5b0(%rbp)
   131e0:	48 8d 85 90 f5 ff ff 	lea    -0xa70(%rbp),%rax
   131e7:	48 83 c0 14          	add    $0x14,%rax
   131eb:	48 89 85 58 fa ff ff 	mov    %rax,-0x5a8(%rbp)
   131f2:	48 c7 85 60 fa ff ff 	movq   $0x0,-0x5a0(%rbp)
   131f9:	00 00 00 00 
   131fd:	48 8d 85 50 f2 ff ff 	lea    -0xdb0(%rbp),%rax
   13204:	48 89 85 68 fa ff ff 	mov    %rax,-0x598(%rbp)
   1320b:	48 8d 85 10 f0 ff ff 	lea    -0xff0(%rbp),%rax
   13212:	48 89 85 70 fa ff ff 	mov    %rax,-0x590(%rbp)
   13219:	48 c7 85 78 fa ff ff 	movq   $0x0,-0x588(%rbp)
   13220:	00 00 00 00 
   13224:	48 8d 85 50 f2 ff ff 	lea    -0xdb0(%rbp),%rax
   1322b:	48 89 85 80 fa ff ff 	mov    %rax,-0x580(%rbp)
   13232:	48 c7 85 88 fa ff ff 	movq   $0x0,-0x578(%rbp)
   13239:	00 00 00 00 
   1323d:	48 c7 85 90 fa ff ff 	movq   $0x0,-0x570(%rbp)
   13244:	00 00 00 00 
   13248:	48 8d 85 80 f2 ff ff 	lea    -0xd80(%rbp),%rax
   1324f:	48 89 85 98 fa ff ff 	mov    %rax,-0x568(%rbp)
   13256:	48 c7 85 a0 fa ff ff 	movq   $0x0,-0x560(%rbp)
   1325d:	00 00 00 00 
   13261:	48 8d 85 18 f0 ff ff 	lea    -0xfe8(%rbp),%rax
   13268:	48 89 85 a8 fa ff ff 	mov    %rax,-0x558(%rbp)
   1326f:	48 8d 85 90 f5 ff ff 	lea    -0xa70(%rbp),%rax
   13276:	48 83 c0 14          	add    $0x14,%rax
   1327a:	48 89 85 b0 fa ff ff 	mov    %rax,-0x550(%rbp)
   13281:	48 8d 05 60 be 00 00 	lea    0xbe60(%rip),%rax        # 1f0e8 <g_65>
   13288:	48 89 85 b8 fa ff ff 	mov    %rax,-0x548(%rbp)
   1328f:	48 8d 85 4c ef ff ff 	lea    -0x10b4(%rbp),%rax
   13296:	48 89 85 c0 fa ff ff 	mov    %rax,-0x540(%rbp)
   1329d:	48 c7 85 c8 fa ff ff 	movq   $0x0,-0x538(%rbp)
   132a4:	00 00 00 00 
   132a8:	48 8d 85 90 f5 ff ff 	lea    -0xa70(%rbp),%rax
   132af:	48 05 0c 01 00 00    	add    $0x10c,%rax
   132b5:	48 89 85 d0 fa ff ff 	mov    %rax,-0x530(%rbp)
   132bc:	48 8d 85 90 f5 ff ff 	lea    -0xa70(%rbp),%rax
   132c3:	48 83 c0 60          	add    $0x60,%rax
   132c7:	48 89 85 d8 fa ff ff 	mov    %rax,-0x528(%rbp)
   132ce:	48 8d 85 90 f5 ff ff 	lea    -0xa70(%rbp),%rax
   132d5:	48 05 0c 01 00 00    	add    $0x10c,%rax
   132db:	48 89 85 e0 fa ff ff 	mov    %rax,-0x520(%rbp)
   132e2:	48 c7 85 e8 fa ff ff 	movq   $0x0,-0x518(%rbp)
   132e9:	00 00 00 00 
   132ed:	48 8d 85 80 f2 ff ff 	lea    -0xd80(%rbp),%rax
   132f4:	48 83 c0 0c          	add    $0xc,%rax
   132f8:	48 89 85 f0 fa ff ff 	mov    %rax,-0x510(%rbp)
   132ff:	48 c7 85 f8 fa ff ff 	movq   $0x0,-0x508(%rbp)
   13306:	00 00 00 00 
   1330a:	48 8d 05 db bd 00 00 	lea    0xbddb(%rip),%rax        # 1f0ec <g_69>
   13311:	48 89 85 00 fb ff ff 	mov    %rax,-0x500(%rbp)
   13318:	48 8d 85 10 f0 ff ff 	lea    -0xff0(%rbp),%rax
   1331f:	48 89 85 08 fb ff ff 	mov    %rax,-0x4f8(%rbp)
   13326:	48 c7 85 10 fb ff ff 	movq   $0x0,-0x4f0(%rbp)
   1332d:	00 00 00 00 
   13331:	48 8d 85 4c ef ff ff 	lea    -0x10b4(%rbp),%rax
   13338:	48 89 85 18 fb ff ff 	mov    %rax,-0x4e8(%rbp)
   1333f:	48 8d 85 50 f2 ff ff 	lea    -0xdb0(%rbp),%rax
   13346:	48 89 85 20 fb ff ff 	mov    %rax,-0x4e0(%rbp)
   1334d:	48 8d 85 80 f2 ff ff 	lea    -0xd80(%rbp),%rax
   13354:	48 89 85 28 fb ff ff 	mov    %rax,-0x4d8(%rbp)
   1335b:	48 8d 85 50 f2 ff ff 	lea    -0xdb0(%rbp),%rax
   13362:	48 83 c0 1c          	add    $0x1c,%rax
   13366:	48 89 85 30 fb ff ff 	mov    %rax,-0x4d0(%rbp)
   1336d:	48 8d 05 60 bd 00 00 	lea    0xbd60(%rip),%rax        # 1f0d4 <g_11>
   13374:	48 89 85 38 fb ff ff 	mov    %rax,-0x4c8(%rbp)
   1337b:	48 8d 85 50 f2 ff ff 	lea    -0xdb0(%rbp),%rax
   13382:	48 83 c0 14          	add    $0x14,%rax
   13386:	48 89 85 40 fb ff ff 	mov    %rax,-0x4c0(%rbp)
   1338d:	48 8d 85 90 f5 ff ff 	lea    -0xa70(%rbp),%rax
   13394:	48 05 0c 01 00 00    	add    $0x10c,%rax
   1339a:	48 89 85 48 fb ff ff 	mov    %rax,-0x4b8(%rbp)
   133a1:	48 8d 05 28 bd 00 00 	lea    0xbd28(%rip),%rax        # 1f0d0 <g_10>
   133a8:	48 89 85 50 fb ff ff 	mov    %rax,-0x4b0(%rbp)
   133af:	48 8d 85 50 f2 ff ff 	lea    -0xdb0(%rbp),%rax
   133b6:	48 83 c0 14          	add    $0x14,%rax
   133ba:	48 89 85 58 fb ff ff 	mov    %rax,-0x4a8(%rbp)
   133c1:	48 8d 85 80 f2 ff ff 	lea    -0xd80(%rbp),%rax
   133c8:	48 89 85 60 fb ff ff 	mov    %rax,-0x4a0(%rbp)
   133cf:	48 8d 85 90 f5 ff ff 	lea    -0xa70(%rbp),%rax
   133d6:	48 05 0c 01 00 00    	add    $0x10c,%rax
   133dc:	48 89 85 68 fb ff ff 	mov    %rax,-0x498(%rbp)
   133e3:	48 c7 85 70 fb ff ff 	movq   $0x0,-0x490(%rbp)
   133ea:	00 00 00 00 
   133ee:	48 8d 85 90 f5 ff ff 	lea    -0xa70(%rbp),%rax
   133f5:	48 05 0c 01 00 00    	add    $0x10c,%rax
   133fb:	48 89 85 78 fb ff ff 	mov    %rax,-0x488(%rbp)
   13402:	48 c7 85 80 fb ff ff 	movq   $0x0,-0x480(%rbp)
   13409:	00 00 00 00 
   1340d:	48 8d 85 18 f0 ff ff 	lea    -0xfe8(%rbp),%rax
   13414:	48 89 85 88 fb ff ff 	mov    %rax,-0x478(%rbp)
   1341b:	48 8d 85 50 f2 ff ff 	lea    -0xdb0(%rbp),%rax
   13422:	48 83 c0 24          	add    $0x24,%rax
   13426:	48 89 85 90 fb ff ff 	mov    %rax,-0x470(%rbp)
   1342d:	48 8d 85 80 f2 ff ff 	lea    -0xd80(%rbp),%rax
   13434:	48 83 c0 0c          	add    $0xc,%rax
   13438:	48 89 85 98 fb ff ff 	mov    %rax,-0x468(%rbp)
   1343f:	48 8d 85 90 f5 ff ff 	lea    -0xa70(%rbp),%rax
   13446:	48 05 0c 01 00 00    	add    $0x10c,%rax
   1344c:	48 89 85 a0 fb ff ff 	mov    %rax,-0x460(%rbp)
   13453:	48 8d 85 80 f2 ff ff 	lea    -0xd80(%rbp),%rax
   1345a:	48 89 85 a8 fb ff ff 	mov    %rax,-0x458(%rbp)
   13461:	48 8d 85 18 f0 ff ff 	lea    -0xfe8(%rbp),%rax
   13468:	48 89 85 b0 fb ff ff 	mov    %rax,-0x450(%rbp)
   1346f:	48 8d 05 5e bc 00 00 	lea    0xbc5e(%rip),%rax        # 1f0d4 <g_11>
   13476:	48 89 85 b8 fb ff ff 	mov    %rax,-0x448(%rbp)
   1347d:	48 8d 85 18 f0 ff ff 	lea    -0xfe8(%rbp),%rax
   13484:	48 89 85 c0 fb ff ff 	mov    %rax,-0x440(%rbp)
   1348b:	48 c7 85 c8 fb ff ff 	movq   $0x0,-0x438(%rbp)
   13492:	00 00 00 00 
   13496:	48 8d 05 4b bc 00 00 	lea    0xbc4b(%rip),%rax        # 1f0e8 <g_65>
   1349d:	48 89 85 d0 fb ff ff 	mov    %rax,-0x430(%rbp)
   134a4:	48 8d 85 4c ef ff ff 	lea    -0x10b4(%rbp),%rax
   134ab:	48 89 85 d8 fb ff ff 	mov    %rax,-0x428(%rbp)
   134b2:	48 c7 85 e0 fb ff ff 	movq   $0x0,-0x420(%rbp)
   134b9:	00 00 00 00 
   134bd:	48 8d 85 4c ef ff ff 	lea    -0x10b4(%rbp),%rax
   134c4:	48 89 85 e8 fb ff ff 	mov    %rax,-0x418(%rbp)
   134cb:	48 8d 05 16 bc 00 00 	lea    0xbc16(%rip),%rax        # 1f0e8 <g_65>
   134d2:	48 89 85 f0 fb ff ff 	mov    %rax,-0x410(%rbp)
   134d9:	48 c7 85 f8 fb ff ff 	movq   $0x0,-0x408(%rbp)
   134e0:	00 00 00 00 
   134e4:	48 c7 85 00 fc ff ff 	movq   $0x0,-0x400(%rbp)
   134eb:	00 00 00 00 
   134ef:	48 8d 85 50 f2 ff ff 	lea    -0xdb0(%rbp),%rax
   134f6:	48 89 85 08 fc ff ff 	mov    %rax,-0x3f8(%rbp)
   134fd:	48 8d 05 74 fe 00 00 	lea    0xfe74(%rip),%rax        # 23378 <g_507>
   13504:	48 89 85 10 fc ff ff 	mov    %rax,-0x3f0(%rbp)
   1350b:	48 8d 85 4c ef ff ff 	lea    -0x10b4(%rbp),%rax
   13512:	48 89 85 18 fc ff ff 	mov    %rax,-0x3e8(%rbp)
   13519:	48 8d 85 90 f5 ff ff 	lea    -0xa70(%rbp),%rax
   13520:	48 05 0c 01 00 00    	add    $0x10c,%rax
   13526:	48 89 85 20 fc ff ff 	mov    %rax,-0x3e0(%rbp)
   1352d:	48 8d 85 4c ef ff ff 	lea    -0x10b4(%rbp),%rax
   13534:	48 89 85 28 fc ff ff 	mov    %rax,-0x3d8(%rbp)
   1353b:	48 c7 85 30 fc ff ff 	movq   $0x0,-0x3d0(%rbp)
   13542:	00 00 00 00 
   13546:	48 8d 05 9f bb 00 00 	lea    0xbb9f(%rip),%rax        # 1f0ec <g_69>
   1354d:	48 89 85 38 fc ff ff 	mov    %rax,-0x3c8(%rbp)
   13554:	48 8d 05 79 bb 00 00 	lea    0xbb79(%rip),%rax        # 1f0d4 <g_11>
   1355b:	48 89 85 40 fc ff ff 	mov    %rax,-0x3c0(%rbp)
   13562:	48 8d 85 10 f0 ff ff 	lea    -0xff0(%rbp),%rax
   13569:	48 89 85 48 fc ff ff 	mov    %rax,-0x3b8(%rbp)
   13570:	48 8d 85 80 f2 ff ff 	lea    -0xd80(%rbp),%rax
   13577:	48 89 85 50 fc ff ff 	mov    %rax,-0x3b0(%rbp)
   1357e:	48 8d 85 90 f5 ff ff 	lea    -0xa70(%rbp),%rax
   13585:	48 83 c0 4c          	add    $0x4c,%rax
   13589:	48 89 85 58 fc ff ff 	mov    %rax,-0x3a8(%rbp)
   13590:	48 8d 85 4c ef ff ff 	lea    -0x10b4(%rbp),%rax
   13597:	48 89 85 60 fc ff ff 	mov    %rax,-0x3a0(%rbp)
   1359e:	48 c7 85 68 fc ff ff 	movq   $0x0,-0x398(%rbp)
   135a5:	00 00 00 00 
   135a9:	48 8d 85 80 f2 ff ff 	lea    -0xd80(%rbp),%rax
   135b0:	48 83 c0 0c          	add    $0xc,%rax
   135b4:	48 89 85 70 fc ff ff 	mov    %rax,-0x390(%rbp)
   135bb:	48 8d 85 10 f0 ff ff 	lea    -0xff0(%rbp),%rax
   135c2:	48 89 85 78 fc ff ff 	mov    %rax,-0x388(%rbp)
   135c9:	48 8d 85 80 f2 ff ff 	lea    -0xd80(%rbp),%rax
   135d0:	48 89 85 80 fc ff ff 	mov    %rax,-0x380(%rbp)
   135d7:	48 8d 85 4c ef ff ff 	lea    -0x10b4(%rbp),%rax
   135de:	48 89 85 88 fc ff ff 	mov    %rax,-0x378(%rbp)
   135e5:	48 8d 05 00 bb 00 00 	lea    0xbb00(%rip),%rax        # 1f0ec <g_69>
   135ec:	48 89 85 90 fc ff ff 	mov    %rax,-0x370(%rbp)
   135f3:	48 c7 85 98 fc ff ff 	movq   $0x0,-0x368(%rbp)
   135fa:	00 00 00 00 
   135fe:	48 8d 85 80 f2 ff ff 	lea    -0xd80(%rbp),%rax
   13605:	48 83 c0 08          	add    $0x8,%rax
   13609:	48 89 85 a0 fc ff ff 	mov    %rax,-0x360(%rbp)
   13610:	48 8d 85 50 f2 ff ff 	lea    -0xdb0(%rbp),%rax
   13617:	48 83 c0 14          	add    $0x14,%rax
   1361b:	48 89 85 a8 fc ff ff 	mov    %rax,-0x358(%rbp)
   13622:	48 c7 85 b0 fc ff ff 	movq   $0x0,-0x350(%rbp)
   13629:	00 00 00 00 
   1362d:	48 8d 85 80 f2 ff ff 	lea    -0xd80(%rbp),%rax
   13634:	48 83 c0 0c          	add    $0xc,%rax
   13638:	48 89 85 b8 fc ff ff 	mov    %rax,-0x348(%rbp)
   1363f:	48 c7 85 c0 fc ff ff 	movq   $0x0,-0x340(%rbp)
   13646:	00 00 00 00 
   1364a:	48 8d 85 90 f5 ff ff 	lea    -0xa70(%rbp),%rax
   13651:	48 83 c0 4c          	add    $0x4c,%rax
   13655:	48 89 85 c8 fc ff ff 	mov    %rax,-0x338(%rbp)
   1365c:	48 8d 85 80 f2 ff ff 	lea    -0xd80(%rbp),%rax
   13663:	48 83 c0 04          	add    $0x4,%rax
   13667:	48 89 85 d0 fc ff ff 	mov    %rax,-0x330(%rbp)
   1366e:	48 8d 85 50 f2 ff ff 	lea    -0xdb0(%rbp),%rax
   13675:	48 83 c0 04          	add    $0x4,%rax
   13679:	48 89 85 d8 fc ff ff 	mov    %rax,-0x328(%rbp)
   13680:	48 8d 85 80 f2 ff ff 	lea    -0xd80(%rbp),%rax
   13687:	48 83 c0 04          	add    $0x4,%rax
   1368b:	48 89 85 e0 fc ff ff 	mov    %rax,-0x320(%rbp)
   13692:	48 8d 85 10 f0 ff ff 	lea    -0xff0(%rbp),%rax
   13699:	48 89 85 e8 fc ff ff 	mov    %rax,-0x318(%rbp)
   136a0:	48 c7 85 f0 fc ff ff 	movq   $0x0,-0x310(%rbp)
   136a7:	00 00 00 00 
   136ab:	48 8d 85 80 f2 ff ff 	lea    -0xd80(%rbp),%rax
   136b2:	48 89 85 f8 fc ff ff 	mov    %rax,-0x308(%rbp)
   136b9:	48 8d 85 80 f2 ff ff 	lea    -0xd80(%rbp),%rax
   136c0:	48 89 85 00 fd ff ff 	mov    %rax,-0x300(%rbp)
   136c7:	48 8d 85 90 f5 ff ff 	lea    -0xa70(%rbp),%rax
   136ce:	48 83 c0 4c          	add    $0x4c,%rax
   136d2:	48 89 85 08 fd ff ff 	mov    %rax,-0x2f8(%rbp)
   136d9:	48 8d 85 50 f2 ff ff 	lea    -0xdb0(%rbp),%rax
   136e0:	48 83 c0 14          	add    $0x14,%rax
   136e4:	48 89 85 10 fd ff ff 	mov    %rax,-0x2f0(%rbp)
   136eb:	48 8d 85 90 f5 ff ff 	lea    -0xa70(%rbp),%rax
   136f2:	48 05 0c 01 00 00    	add    $0x10c,%rax
   136f8:	48 89 85 18 fd ff ff 	mov    %rax,-0x2e8(%rbp)
   136ff:	48 8d 85 90 f5 ff ff 	lea    -0xa70(%rbp),%rax
   13706:	48 05 0c 01 00 00    	add    $0x10c,%rax
   1370c:	48 89 85 20 fd ff ff 	mov    %rax,-0x2e0(%rbp)
   13713:	48 8d 85 50 f2 ff ff 	lea    -0xdb0(%rbp),%rax
   1371a:	48 83 c0 24          	add    $0x24,%rax
   1371e:	48 89 85 28 fd ff ff 	mov    %rax,-0x2d8(%rbp)
   13725:	48 c7 85 30 fd ff ff 	movq   $0x0,-0x2d0(%rbp)
   1372c:	00 00 00 00 
   13730:	48 c7 85 38 fd ff ff 	movq   $0x0,-0x2c8(%rbp)
   13737:	00 00 00 00 
   1373b:	48 8d 05 aa b9 00 00 	lea    0xb9aa(%rip),%rax        # 1f0ec <g_69>
   13742:	48 89 85 40 fd ff ff 	mov    %rax,-0x2c0(%rbp)
   13749:	48 8d 85 4c ef ff ff 	lea    -0x10b4(%rbp),%rax
   13750:	48 89 85 48 fd ff ff 	mov    %rax,-0x2b8(%rbp)
   13757:	48 8d 85 50 f2 ff ff 	lea    -0xdb0(%rbp),%rax
   1375e:	48 83 c0 14          	add    $0x14,%rax
   13762:	48 89 85 50 fd ff ff 	mov    %rax,-0x2b0(%rbp)
   13769:	48 8d 85 50 f2 ff ff 	lea    -0xdb0(%rbp),%rax
   13770:	48 83 c0 24          	add    $0x24,%rax
   13774:	48 89 85 58 fd ff ff 	mov    %rax,-0x2a8(%rbp)
   1377b:	48 8d 05 4e b9 00 00 	lea    0xb94e(%rip),%rax        # 1f0d0 <g_10>
   13782:	48 89 85 60 fd ff ff 	mov    %rax,-0x2a0(%rbp)
   13789:	48 8d 05 44 b9 00 00 	lea    0xb944(%rip),%rax        # 1f0d4 <g_11>
   13790:	48 89 85 68 fd ff ff 	mov    %rax,-0x298(%rbp)
   13797:	48 c7 85 70 fd ff ff 	movq   $0x0,-0x290(%rbp)
   1379e:	00 00 00 00 
   137a2:	48 8d 05 43 b9 00 00 	lea    0xb943(%rip),%rax        # 1f0ec <g_69>
   137a9:	48 89 85 78 fd ff ff 	mov    %rax,-0x288(%rbp)
   137b0:	48 8d 85 80 f2 ff ff 	lea    -0xd80(%rbp),%rax
   137b7:	48 83 c0 0c          	add    $0xc,%rax
   137bb:	48 89 85 80 fd ff ff 	mov    %rax,-0x280(%rbp)
   137c2:	48 8d 85 80 f2 ff ff 	lea    -0xd80(%rbp),%rax
   137c9:	48 89 85 88 fd ff ff 	mov    %rax,-0x278(%rbp)
   137d0:	48 c7 85 90 fd ff ff 	movq   $0x0,-0x270(%rbp)
   137d7:	00 00 00 00 
   137db:	48 8d 85 50 f2 ff ff 	lea    -0xdb0(%rbp),%rax
   137e2:	48 83 c0 14          	add    $0x14,%rax
   137e6:	48 89 85 98 fd ff ff 	mov    %rax,-0x268(%rbp)
   137ed:	48 8d 05 f8 b8 00 00 	lea    0xb8f8(%rip),%rax        # 1f0ec <g_69>
   137f4:	48 89 85 a0 fd ff ff 	mov    %rax,-0x260(%rbp)
   137fb:	48 c7 85 a8 fd ff ff 	movq   $0x0,-0x258(%rbp)
   13802:	00 00 00 00 
   13806:	48 8d 85 90 f5 ff ff 	lea    -0xa70(%rbp),%rax
   1380d:	48 83 c0 4c          	add    $0x4c,%rax
   13811:	48 89 85 b0 fd ff ff 	mov    %rax,-0x250(%rbp)
   13818:	48 8d 85 90 f5 ff ff 	lea    -0xa70(%rbp),%rax
   1381f:	48 83 c0 4c          	add    $0x4c,%rax
   13823:	48 89 85 b8 fd ff ff 	mov    %rax,-0x248(%rbp)
   1382a:	48 8d 85 80 f2 ff ff 	lea    -0xd80(%rbp),%rax
   13831:	48 83 c0 14          	add    $0x14,%rax
   13835:	48 89 85 c0 fd ff ff 	mov    %rax,-0x240(%rbp)
   1383c:	48 c7 85 c8 fd ff ff 	movq   $0x0,-0x238(%rbp)
   13843:	00 00 00 00 
   13847:	48 c7 85 d0 fd ff ff 	movq   $0x0,-0x230(%rbp)
   1384e:	00 00 00 00 
   13852:	48 c7 85 d8 fd ff ff 	movq   $0x0,-0x228(%rbp)
   13859:	00 00 00 00 
   1385d:	48 8d 85 80 f2 ff ff 	lea    -0xd80(%rbp),%rax
   13864:	48 83 c0 1c          	add    $0x1c,%rax
   13868:	48 89 85 e0 fd ff ff 	mov    %rax,-0x220(%rbp)
   1386f:	48 8d 85 80 f2 ff ff 	lea    -0xd80(%rbp),%rax
   13876:	48 83 c0 04          	add    $0x4,%rax
   1387a:	48 89 85 e8 fd ff ff 	mov    %rax,-0x218(%rbp)
   13881:	48 c7 85 f0 fd ff ff 	movq   $0x0,-0x210(%rbp)
   13888:	00 00 00 00 
   1388c:	48 c7 85 f8 fd ff ff 	movq   $0x0,-0x208(%rbp)
   13893:	00 00 00 00 
   13897:	48 8d 85 80 f2 ff ff 	lea    -0xd80(%rbp),%rax
   1389e:	48 83 c0 1c          	add    $0x1c,%rax
   138a2:	48 89 85 00 fe ff ff 	mov    %rax,-0x200(%rbp)
   138a9:	48 8d 85 80 f2 ff ff 	lea    -0xd80(%rbp),%rax
   138b0:	48 83 c0 1c          	add    $0x1c,%rax
   138b4:	48 89 85 08 fe ff ff 	mov    %rax,-0x1f8(%rbp)
   138bb:	48 c7 85 10 fe ff ff 	movq   $0x0,-0x1f0(%rbp)
   138c2:	00 00 00 00 
   138c6:	48 c7 85 18 fe ff ff 	movq   $0x0,-0x1e8(%rbp)
   138cd:	00 00 00 00 
   138d1:	48 c7 85 20 fe ff ff 	movq   $0x0,-0x1e0(%rbp)
   138d8:	00 00 00 00 
   138dc:	48 8d 85 10 f0 ff ff 	lea    -0xff0(%rbp),%rax
   138e3:	48 89 85 28 fe ff ff 	mov    %rax,-0x1d8(%rbp)
   138ea:	48 8d 85 10 f0 ff ff 	lea    -0xff0(%rbp),%rax
   138f1:	48 89 85 30 fe ff ff 	mov    %rax,-0x1d0(%rbp)
   138f8:	48 8d 05 d5 b7 00 00 	lea    0xb7d5(%rip),%rax        # 1f0d4 <g_11>
   138ff:	48 89 85 38 fe ff ff 	mov    %rax,-0x1c8(%rbp)
   13906:	48 8d 85 90 f5 ff ff 	lea    -0xa70(%rbp),%rax
   1390d:	48 05 0c 01 00 00    	add    $0x10c,%rax
   13913:	48 89 85 40 fe ff ff 	mov    %rax,-0x1c0(%rbp)
   1391a:	48 8d 85 90 f5 ff ff 	lea    -0xa70(%rbp),%rax
   13921:	48 83 c0 14          	add    $0x14,%rax
   13925:	48 89 85 48 fe ff ff 	mov    %rax,-0x1b8(%rbp)
   1392c:	48 c7 85 50 fe ff ff 	movq   $0x0,-0x1b0(%rbp)
   13933:	00 00 00 00 
   13937:	48 8d 85 4c ef ff ff 	lea    -0x10b4(%rbp),%rax
   1393e:	48 89 85 58 fe ff ff 	mov    %rax,-0x1a8(%rbp)
   13945:	48 8d 85 80 f2 ff ff 	lea    -0xd80(%rbp),%rax
   1394c:	48 89 85 60 fe ff ff 	mov    %rax,-0x1a0(%rbp)
   13953:	48 8d 85 50 f2 ff ff 	lea    -0xdb0(%rbp),%rax
   1395a:	48 83 c0 04          	add    $0x4,%rax
   1395e:	48 89 85 68 fe ff ff 	mov    %rax,-0x198(%rbp)
   13965:	48 8d 85 90 f5 ff ff 	lea    -0xa70(%rbp),%rax
   1396c:	48 83 c0 14          	add    $0x14,%rax
   13970:	48 89 85 70 fe ff ff 	mov    %rax,-0x190(%rbp)
   13977:	48 8d 85 80 f2 ff ff 	lea    -0xd80(%rbp),%rax
   1397e:	48 89 85 78 fe ff ff 	mov    %rax,-0x188(%rbp)
   13985:	48 8d 85 80 f2 ff ff 	lea    -0xd80(%rbp),%rax
   1398c:	48 89 85 80 fe ff ff 	mov    %rax,-0x180(%rbp)
   13993:	48 8d 05 3a b7 00 00 	lea    0xb73a(%rip),%rax        # 1f0d4 <g_11>
   1399a:	48 89 85 88 fe ff ff 	mov    %rax,-0x178(%rbp)
   139a1:	48 8d 85 4c ef ff ff 	lea    -0x10b4(%rbp),%rax
   139a8:	48 89 85 90 fe ff ff 	mov    %rax,-0x170(%rbp)
   139af:	48 c7 85 98 fe ff ff 	movq   $0x0,-0x168(%rbp)
   139b6:	00 00 00 00 
   139ba:	48 8d 85 10 f0 ff ff 	lea    -0xff0(%rbp),%rax
   139c1:	48 89 85 a0 fe ff ff 	mov    %rax,-0x160(%rbp)
   139c8:	48 8d 85 90 f5 ff ff 	lea    -0xa70(%rbp),%rax
   139cf:	48 05 c8 00 00 00    	add    $0xc8,%rax
   139d5:	48 89 85 a8 fe ff ff 	mov    %rax,-0x158(%rbp)
   139dc:	48 c7 85 b0 fe ff ff 	movq   $0x0,-0x150(%rbp)
   139e3:	00 00 00 00 
   139e7:	48 8d 85 18 f0 ff ff 	lea    -0xfe8(%rbp),%rax
   139ee:	48 89 85 b8 fe ff ff 	mov    %rax,-0x148(%rbp)
   139f5:	48 8d 85 90 f5 ff ff 	lea    -0xa70(%rbp),%rax
   139fc:	48 83 c0 14          	add    $0x14,%rax
   13a00:	48 89 85 c0 fe ff ff 	mov    %rax,-0x140(%rbp)
   13a07:	48 8d 05 da b6 00 00 	lea    0xb6da(%rip),%rax        # 1f0e8 <g_65>
   13a0e:	48 89 85 c8 fe ff ff 	mov    %rax,-0x138(%rbp)
   13a15:	48 c7 85 d0 fe ff ff 	movq   $0x0,-0x130(%rbp)
   13a1c:	00 00 00 00 
   13a20:	48 c7 85 d8 fe ff ff 	movq   $0x0,-0x128(%rbp)
   13a27:	00 00 00 00 
   13a2b:	48 8d 85 80 f2 ff ff 	lea    -0xd80(%rbp),%rax
   13a32:	48 89 85 e0 fe ff ff 	mov    %rax,-0x120(%rbp)
   13a39:	48 c7 85 e8 fe ff ff 	movq   $0x0,-0x118(%rbp)
   13a40:	00 00 00 00 
   13a44:	48 8d 85 90 f5 ff ff 	lea    -0xa70(%rbp),%rax
   13a4b:	48 05 0c 01 00 00    	add    $0x10c,%rax
   13a51:	48 89 85 f0 fe ff ff 	mov    %rax,-0x110(%rbp)
   13a58:	48 8d 85 4c ef ff ff 	lea    -0x10b4(%rbp),%rax
   13a5f:	48 89 85 f8 fe ff ff 	mov    %rax,-0x108(%rbp)
   13a66:	48 8d 05 67 b6 00 00 	lea    0xb667(%rip),%rax        # 1f0d4 <g_11>
   13a6d:	48 89 85 00 ff ff ff 	mov    %rax,-0x100(%rbp)
   13a74:	48 8d 85 80 f2 ff ff 	lea    -0xd80(%rbp),%rax
   13a7b:	48 83 c0 04          	add    $0x4,%rax
   13a7f:	48 89 85 08 ff ff ff 	mov    %rax,-0xf8(%rbp)
   13a86:	48 8d 85 80 f2 ff ff 	lea    -0xd80(%rbp),%rax
   13a8d:	48 83 c0 14          	add    $0x14,%rax
   13a91:	48 89 85 10 ff ff ff 	mov    %rax,-0xf0(%rbp)
   13a98:	48 8d 85 90 f5 ff ff 	lea    -0xa70(%rbp),%rax
   13a9f:	48 83 c0 4c          	add    $0x4c,%rax
   13aa3:	48 89 85 18 ff ff ff 	mov    %rax,-0xe8(%rbp)
   13aaa:	48 8d 85 18 f0 ff ff 	lea    -0xfe8(%rbp),%rax
   13ab1:	48 89 85 20 ff ff ff 	mov    %rax,-0xe0(%rbp)
   13ab8:	48 8d 85 10 f0 ff ff 	lea    -0xff0(%rbp),%rax
   13abf:	48 89 85 28 ff ff ff 	mov    %rax,-0xd8(%rbp)
   13ac6:	48 8d 05 07 b6 00 00 	lea    0xb607(%rip),%rax        # 1f0d4 <g_11>
   13acd:	48 89 85 30 ff ff ff 	mov    %rax,-0xd0(%rbp)
   13ad4:	48 c7 85 38 ff ff ff 	movq   $0x0,-0xc8(%rbp)
   13adb:	00 00 00 00 
   13adf:	48 8d 85 90 f5 ff ff 	lea    -0xa70(%rbp),%rax
   13ae6:	48 83 c0 4c          	add    $0x4c,%rax
   13aea:	48 89 85 40 ff ff ff 	mov    %rax,-0xc0(%rbp)
   13af1:	48 8d 85 80 f2 ff ff 	lea    -0xd80(%rbp),%rax
   13af8:	48 89 85 48 ff ff ff 	mov    %rax,-0xb8(%rbp)
   13aff:	48 c7 85 50 ff ff ff 	movq   $0x0,-0xb0(%rbp)
   13b06:	00 00 00 00 
   13b0a:	48 c7 85 58 ff ff ff 	movq   $0x0,-0xa8(%rbp)
   13b11:	00 00 00 00 
   13b15:	48 c7 85 60 ff ff ff 	movq   $0x0,-0xa0(%rbp)
   13b1c:	00 00 00 00 
   13b20:	48 8d 85 80 f2 ff ff 	lea    -0xd80(%rbp),%rax
   13b27:	48 83 c0 04          	add    $0x4,%rax
   13b2b:	48 89 85 68 ff ff ff 	mov    %rax,-0x98(%rbp)
   13b32:	48 8d 85 90 f5 ff ff 	lea    -0xa70(%rbp),%rax
   13b39:	48 05 0c 01 00 00    	add    $0x10c,%rax
   13b3f:	48 89 85 70 ff ff ff 	mov    %rax,-0x90(%rbp)
   13b46:	48 8d 85 90 f5 ff ff 	lea    -0xa70(%rbp),%rax
   13b4d:	48 05 0c 01 00 00    	add    $0x10c,%rax
   13b53:	48 89 85 78 ff ff ff 	mov    %rax,-0x88(%rbp)
   13b5a:	48 8d 85 50 f2 ff ff 	lea    -0xdb0(%rbp),%rax
   13b61:	48 83 c0 14          	add    $0x14,%rax
   13b65:	48 89 45 80          	mov    %rax,-0x80(%rbp)
   13b69:	48 c7 45 88 00 00 00 	movq   $0x0,-0x78(%rbp)
   13b70:	00 
   13b71:	48 c7 45 90 00 00 00 	movq   $0x0,-0x70(%rbp)
   13b78:	00 
   13b79:	48 8d 05 f8 f7 00 00 	lea    0xf7f8(%rip),%rax        # 23378 <g_507>
   13b80:	48 89 45 98          	mov    %rax,-0x68(%rbp)
   13b84:	48 8d 85 80 f2 ff ff 	lea    -0xd80(%rbp),%rax
   13b8b:	48 89 45 a0          	mov    %rax,-0x60(%rbp)
   13b8f:	48 c7 45 a8 00 00 00 	movq   $0x0,-0x58(%rbp)
   13b96:	00 
   13b97:	0f b6 05 10 b7 00 00 	movzbl 0xb710(%rip),%eax        # 1f2ae <g_579>
   13b9e:	83 e0 7f             	and    $0x7f,%eax
   13ba1:	84 c0                	test   %al,%al
   13ba3:	74 05                	je     13baa <func_44+0x2d17>
   13ba5:	e9 b1 d4 ff ff       	jmpq   1105b <func_44+0x1c8>
   13baa:	80 ad 36 ef ff ff 01 	subb   $0x1,-0x10ca(%rbp)
   13bb1:	48 8b 05 d8 e4 00 00 	mov    0xe4d8(%rip),%rax        # 22090 <g_192>
   13bb8:	48 8b 00             	mov    (%rax),%rax
   13bbb:	48 8d 95 18 f0 ff ff 	lea    -0xfe8(%rbp),%rdx
   13bc2:	48 89 10             	mov    %rdx,(%rax)
   13bc5:	bf 2c 08 00 00       	mov    $0x82c,%edi
   13bca:	e8 ce 67 ff ff       	callq  a39d <safe_unary_minus_func_int16_t_s>
   13bcf:	0f bf d8             	movswl %ax,%ebx
   13bd2:	48 8b 85 d0 ef ff ff 	mov    -0x1030(%rbp),%rax
   13bd9:	8b 10                	mov    (%rax),%edx
   13bdb:	83 ea 01             	sub    $0x1,%edx
   13bde:	89 10                	mov    %edx,(%rax)
   13be0:	8b 00                	mov    (%rax),%eax
   13be2:	83 f8 08             	cmp    $0x8,%eax
   13be5:	0f 97 c2             	seta   %dl
   13be8:	48 8d 05 c1 e4 00 00 	lea    0xe4c1(%rip),%rax        # 220b0 <g_515>
   13bef:	48 8b 00             	mov    (%rax),%rax
   13bf2:	0f b6 d2             	movzbl %dl,%edx
   13bf5:	66 89 10             	mov    %dx,(%rax)
   13bf8:	0f b7 10             	movzwl (%rax),%edx
   13bfb:	48 8b 85 40 f1 ff ff 	mov    -0xec0(%rbp),%rax
   13c02:	0f b7 00             	movzwl (%rax),%eax
   13c05:	09 c2                	or     %eax,%edx
   13c07:	48 8b 85 40 f1 ff ff 	mov    -0xec0(%rbp),%rax
   13c0e:	66 89 10             	mov    %dx,(%rax)
   13c11:	48 8b 85 40 f1 ff ff 	mov    -0xec0(%rbp),%rax
   13c18:	0f b7 00             	movzwl (%rax),%eax
   13c1b:	98                   	cwtl   
   13c1c:	89 c6                	mov    %eax,%esi
   13c1e:	bf 00 00 00 00       	mov    $0x0,%edi
   13c23:	e8 cd 67 ff ff       	callq  a3f5 <safe_mul_func_int16_t_s_s>
   13c28:	98                   	cwtl   
   13c29:	89 de                	mov    %ebx,%esi
   13c2b:	89 c7                	mov    %eax,%edi
   13c2d:	e8 e4 67 ff ff       	callq  a416 <safe_mod_func_int16_t_s_s>
   13c32:	98                   	cwtl   
   13c33:	89 85 80 f2 ff ff    	mov    %eax,-0xd80(%rbp)
   13c39:	0f b6 85 38 ef ff ff 	movzbl -0x10c8(%rbp),%eax
   13c40:	83 c0 01             	add    $0x1,%eax
   13c43:	88 85 38 ef ff ff    	mov    %al,-0x10c8(%rbp)
   13c49:	48 8b 85 20 ef ff ff 	mov    -0x10e0(%rbp),%rax
   13c50:	48 85 c0             	test   %rax,%rax
   13c53:	0f 84 26 0e 00 00    	je     14a7f <func_44+0x3bec>
   13c59:	66 c7 85 48 ef ff ff 	movw   $0x5a4c,-0x10b8(%rbp)
   13c60:	4c 5a 
   13c62:	c7 85 ac ef ff ff 4d 	movl   $0x4c055f4d,-0x1054(%rbp)
   13c69:	5f 05 4c 
   13c6c:	c7 85 68 ef ff ff ff 	movl   $0xffffffff,-0x1098(%rbp)
   13c73:	ff ff ff 
   13c76:	c7 85 b0 ef ff ff ff 	movl   $0xffffffff,-0x1050(%rbp)
   13c7d:	ff ff ff 
   13c80:	c7 85 b4 ef ff ff 5e 	movl   $0xe6b25b5e,-0x104c(%rbp)
   13c87:	5b b2 e6 
   13c8a:	c7 85 b8 ef ff ff 8a 	movl   $0x8432c98a,-0x1048(%rbp)
   13c91:	c9 32 84 
   13c94:	48 8d 05 85 b4 00 00 	lea    0xb485(%rip),%rax        # 1f120 <g_122>
   13c9b:	48 89 85 10 f4 ff ff 	mov    %rax,-0xbf0(%rbp)
   13ca2:	48 8d 05 5f b5 00 00 	lea    0xb55f(%rip),%rax        # 1f208 <g_263>
   13ca9:	48 89 85 18 f4 ff ff 	mov    %rax,-0xbe8(%rbp)
   13cb0:	48 8d 05 49 b7 00 00 	lea    0xb749(%rip),%rax        # 1f400 <g_624>
   13cb7:	48 89 85 20 f4 ff ff 	mov    %rax,-0xbe0(%rbp)
   13cbe:	48 8d 05 43 b5 00 00 	lea    0xb543(%rip),%rax        # 1f208 <g_263>
   13cc5:	48 89 85 28 f4 ff ff 	mov    %rax,-0xbd8(%rbp)
   13ccc:	48 8d 05 2d b7 00 00 	lea    0xb72d(%rip),%rax        # 1f400 <g_624>
   13cd3:	48 89 85 30 f4 ff ff 	mov    %rax,-0xbd0(%rbp)
   13cda:	48 8d 05 27 b5 00 00 	lea    0xb527(%rip),%rax        # 1f208 <g_263>
   13ce1:	48 89 85 38 f4 ff ff 	mov    %rax,-0xbc8(%rbp)
   13ce8:	48 8d 05 19 b5 00 00 	lea    0xb519(%rip),%rax        # 1f208 <g_263>
   13cef:	48 89 85 40 f4 ff ff 	mov    %rax,-0xbc0(%rbp)
   13cf6:	48 8d 05 03 b7 00 00 	lea    0xb703(%rip),%rax        # 1f400 <g_624>
   13cfd:	48 89 85 48 f4 ff ff 	mov    %rax,-0xbb8(%rbp)
   13d04:	48 8d 05 05 b5 00 00 	lea    0xb505(%rip),%rax        # 1f210 <g_263+0x8>
   13d0b:	48 89 85 50 f4 ff ff 	mov    %rax,-0xbb0(%rbp)
   13d12:	48 8d 05 ef b4 00 00 	lea    0xb4ef(%rip),%rax        # 1f208 <g_263>
   13d19:	48 89 85 58 f4 ff ff 	mov    %rax,-0xba8(%rbp)
   13d20:	48 8d 05 d9 b6 00 00 	lea    0xb6d9(%rip),%rax        # 1f400 <g_624>
   13d27:	48 89 85 60 f4 ff ff 	mov    %rax,-0xba0(%rbp)
   13d2e:	48 8d 05 cb b6 00 00 	lea    0xb6cb(%rip),%rax        # 1f400 <g_624>
   13d35:	48 89 85 68 f4 ff ff 	mov    %rax,-0xb98(%rbp)
   13d3c:	48 8d 05 bd b6 00 00 	lea    0xb6bd(%rip),%rax        # 1f400 <g_624>
   13d43:	48 89 85 70 f4 ff ff 	mov    %rax,-0xb90(%rbp)
   13d4a:	48 8d 05 af b6 00 00 	lea    0xb6af(%rip),%rax        # 1f400 <g_624>
   13d51:	48 89 85 78 f4 ff ff 	mov    %rax,-0xb88(%rbp)
   13d58:	48 8d 05 b1 b4 00 00 	lea    0xb4b1(%rip),%rax        # 1f210 <g_263+0x8>
   13d5f:	48 89 85 80 f4 ff ff 	mov    %rax,-0xb80(%rbp)
   13d66:	48 8d 05 93 b6 00 00 	lea    0xb693(%rip),%rax        # 1f400 <g_624>
   13d6d:	48 89 85 88 f4 ff ff 	mov    %rax,-0xb78(%rbp)
   13d74:	48 8d 05 85 b6 00 00 	lea    0xb685(%rip),%rax        # 1f400 <g_624>
   13d7b:	48 89 85 90 f4 ff ff 	mov    %rax,-0xb70(%rbp)
   13d82:	48 8d 05 a7 b4 00 00 	lea    0xb4a7(%rip),%rax        # 1f230 <g_557>
   13d89:	48 89 85 98 f4 ff ff 	mov    %rax,-0xb68(%rbp)
   13d90:	48 8d 05 71 b4 00 00 	lea    0xb471(%rip),%rax        # 1f208 <g_263>
   13d97:	48 89 85 a0 f4 ff ff 	mov    %rax,-0xb60(%rbp)
   13d9e:	48 8d 05 63 b4 00 00 	lea    0xb463(%rip),%rax        # 1f208 <g_263>
   13da5:	48 89 85 a8 f4 ff ff 	mov    %rax,-0xb58(%rbp)
   13dac:	c7 05 66 b4 00 00 19 	movl   $0x19,0xb466(%rip)        # 1f21c <g_426>
   13db3:	00 00 00 
   13db6:	e9 b1 02 00 00       	jmpq   1406c <func_44+0x31d9>
   13dbb:	66 c7 85 b0 f8 ff ff 	movw   $0x26c3,-0x750(%rbp)
   13dc2:	c3 26 
   13dc4:	66 c7 85 b2 f8 ff ff 	movw   $0xffff,-0x74e(%rbp)
   13dcb:	ff ff 
   13dcd:	66 c7 85 b4 f8 ff ff 	movw   $0x26c3,-0x74c(%rbp)
   13dd4:	c3 26 
   13dd6:	66 c7 85 b6 f8 ff ff 	movw   $0x26c3,-0x74a(%rbp)
   13ddd:	c3 26 
   13ddf:	66 c7 85 b8 f8 ff ff 	movw   $0xffff,-0x748(%rbp)
   13de6:	ff ff 
   13de8:	66 c7 85 ba f8 ff ff 	movw   $0x26c3,-0x746(%rbp)
   13def:	c3 26 
   13df1:	66 c7 85 bc f8 ff ff 	movw   $0x26c3,-0x744(%rbp)
   13df8:	c3 26 
   13dfa:	66 c7 85 be f8 ff ff 	movw   $0xffff,-0x742(%rbp)
   13e01:	ff ff 
   13e03:	66 c7 85 c0 f8 ff ff 	movw   $0x26c3,-0x740(%rbp)
   13e0a:	c3 26 
   13e0c:	66 c7 85 c2 f8 ff ff 	movw   $0x26c3,-0x73e(%rbp)
   13e13:	c3 26 
   13e15:	66 c7 85 c4 f8 ff ff 	movw   $0xffff,-0x73c(%rbp)
   13e1c:	ff ff 
   13e1e:	66 c7 85 c6 f8 ff ff 	movw   $0x26c3,-0x73a(%rbp)
   13e25:	c3 26 
   13e27:	48 8d 05 da b5 00 00 	lea    0xb5da(%rip),%rax        # 1f408 <g_678>
   13e2e:	48 89 85 f0 f1 ff ff 	mov    %rax,-0xe10(%rbp)
   13e35:	48 8d 85 3e ef ff ff 	lea    -0x10c2(%rbp),%rax
   13e3c:	48 89 85 f8 f1 ff ff 	mov    %rax,-0xe08(%rbp)
   13e43:	c7 85 c0 ef ff ff ff 	movl   $0xffffffff,-0x1040(%rbp)
   13e4a:	ff ff ff 
   13e4d:	48 8b 85 20 ef ff ff 	mov    -0x10e0(%rbp),%rax
   13e54:	48 89 85 18 ef ff ff 	mov    %rax,-0x10e8(%rbp)
   13e5b:	48 8b 85 78 f0 ff ff 	mov    -0xf88(%rbp),%rax
   13e62:	0f b7 d8             	movzwl %ax,%ebx
   13e65:	48 8b 05 2c e2 00 00 	mov    0xe22c(%rip),%rax        # 22098 <g_375>
   13e6c:	0f b6 00             	movzbl (%rax),%eax
   13e6f:	44 0f b6 e0          	movzbl %al,%r12d
   13e73:	48 8b 05 1e e2 00 00 	mov    0xe21e(%rip),%rax        # 22098 <g_375>
   13e7a:	0f b6 00             	movzbl (%rax),%eax
   13e7d:	44 0f be e8          	movsbl %al,%r13d
   13e81:	48 8b 05 10 e2 00 00 	mov    0xe210(%rip),%rax        # 22098 <g_375>
   13e88:	0f b6 00             	movzbl (%rax),%eax
   13e8b:	44 0f b6 f0          	movzbl %al,%r14d
   13e8f:	8b 85 2c ef ff ff    	mov    -0x10d4(%rbp),%eax
   13e95:	44 0f b7 f8          	movzwl %ax,%r15d
   13e99:	48 8b 85 f8 f1 ff ff 	mov    -0xe08(%rbp),%rax
   13ea0:	0f b7 00             	movzwl (%rax),%eax
   13ea3:	89 c2                	mov    %eax,%edx
   13ea5:	48 8b 85 38 f0 ff ff 	mov    -0xfc8(%rbp),%rax
   13eac:	8b 00                	mov    (%rax),%eax
   13eae:	21 d0                	and    %edx,%eax
   13eb0:	89 c2                	mov    %eax,%edx
   13eb2:	48 8b 85 f8 f1 ff ff 	mov    -0xe08(%rbp),%rax
   13eb9:	66 89 10             	mov    %dx,(%rax)
   13ebc:	48 8b 85 f8 f1 ff ff 	mov    -0xe08(%rbp),%rax
   13ec3:	0f b7 00             	movzwl (%rax),%eax
   13ec6:	0f b7 c0             	movzwl %ax,%eax
   13ec9:	be ec f2 00 00       	mov    $0xf2ec,%esi
   13ece:	89 c7                	mov    %eax,%edi
   13ed0:	e8 68 6e ff ff       	callq  ad3d <safe_mul_func_uint16_t_u_u>
   13ed5:	0f b7 c0             	movzwl %ax,%eax
   13ed8:	44 89 fe             	mov    %r15d,%esi
   13edb:	89 c7                	mov    %eax,%edi
   13edd:	e8 5b 6e ff ff       	callq  ad3d <safe_mul_func_uint16_t_u_u>
   13ee2:	0f be c0             	movsbl %al,%eax
   13ee5:	44 89 f6             	mov    %r14d,%esi
   13ee8:	89 c7                	mov    %eax,%edi
   13eea:	e8 ff 63 ff ff       	callq  a2ee <safe_lshift_func_int8_t_s_u>
   13eef:	0f be d0             	movsbl %al,%edx
   13ef2:	0f b7 05 53 f4 00 00 	movzwl 0xf453(%rip),%eax        # 2334c <g_100>
   13ef9:	83 c0 01             	add    $0x1,%eax
   13efc:	66 89 05 49 f4 00 00 	mov    %ax,0xf449(%rip)        # 2334c <g_100>
   13f03:	48 8b 85 30 f1 ff ff 	mov    -0xed0(%rbp),%rax
   13f0a:	c6 00 01             	movb   $0x1,(%rax)
   13f0d:	48 8b 85 30 f1 ff ff 	mov    -0xed0(%rbp),%rax
   13f14:	0f b6 00             	movzbl (%rax),%eax
   13f17:	0f be c0             	movsbl %al,%eax
   13f1a:	89 d6                	mov    %edx,%esi
   13f1c:	89 c7                	mov    %eax,%edi
   13f1e:	e8 47 63 ff ff       	callq  a26a <safe_div_func_int8_t_s_s>
   13f23:	66 98                	cbtw   
   13f25:	0f b7 c0             	movzwl %ax,%eax
   13f28:	be 0a 00 00 00       	mov    $0xa,%esi
   13f2d:	89 c7                	mov    %eax,%edi
   13f2f:	e8 46 6f ff ff       	callq  ae7a <safe_rshift_func_uint16_t_u_u>
   13f34:	0f be c0             	movsbl %al,%eax
   13f37:	44 89 ee             	mov    %r13d,%esi
   13f3a:	89 c7                	mov    %eax,%edi
   13f3c:	e8 93 62 ff ff       	callq  a1d4 <safe_add_func_int8_t_s_s>
   13f41:	0f b6 c0             	movzbl %al,%eax
   13f44:	44 89 e6             	mov    %r12d,%esi
   13f47:	89 c7                	mov    %eax,%edi
   13f49:	e8 45 6c ff ff       	callq  ab93 <safe_mul_func_uint8_t_u_u>
   13f4e:	0f b6 d0             	movzbl %al,%edx
   13f51:	48 8b 85 f0 f1 ff ff 	mov    -0xe10(%rbp),%rax
   13f58:	0f b7 00             	movzwl (%rax),%eax
   13f5b:	8d 48 ff             	lea    -0x1(%rax),%ecx
   13f5e:	48 8b 85 f0 f1 ff ff 	mov    -0xe10(%rbp),%rax
   13f65:	66 89 08             	mov    %cx,(%rax)
   13f68:	48 8b 85 f0 f1 ff ff 	mov    -0xe10(%rbp),%rax
   13f6f:	0f b7 00             	movzwl (%rax),%eax
   13f72:	0f b7 c0             	movzwl %ax,%eax
   13f75:	89 d6                	mov    %edx,%esi
   13f77:	89 c7                	mov    %eax,%edi
   13f79:	e8 fc 6e ff ff       	callq  ae7a <safe_rshift_func_uint16_t_u_u>
   13f7e:	66 85 c0             	test   %ax,%ax
   13f81:	75 09                	jne    13f8c <func_44+0x30f9>
   13f83:	83 bd c0 ef ff ff 00 	cmpl   $0x0,-0x1040(%rbp)
   13f8a:	74 07                	je     13f93 <func_44+0x3100>
   13f8c:	ba 01 00 00 00       	mov    $0x1,%edx
   13f91:	eb 05                	jmp    13f98 <func_44+0x3105>
   13f93:	ba 00 00 00 00       	mov    $0x0,%edx
   13f98:	0f bf 85 48 ef ff ff 	movswl -0x10b8(%rbp),%eax
   13f9f:	31 d0                	xor    %edx,%eax
   13fa1:	48 63 d0             	movslq %eax,%rdx
   13fa4:	48 8b 85 20 ef ff ff 	mov    -0x10e0(%rbp),%rax
   13fab:	48 31 c2             	xor    %rax,%rdx
   13fae:	0f b7 85 c2 f8 ff ff 	movzwl -0x73e(%rbp),%eax
   13fb5:	48 0f bf c0          	movswq %ax,%rax
   13fb9:	48 09 c2             	or     %rax,%rdx
   13fbc:	48 8b 85 20 ef ff ff 	mov    -0x10e0(%rbp),%rax
   13fc3:	48 39 c2             	cmp    %rax,%rdx
   13fc6:	0f 96 c0             	setbe  %al
   13fc9:	0f b6 c0             	movzbl %al,%eax
   13fcc:	89 de                	mov    %ebx,%esi
   13fce:	89 c7                	mov    %eax,%edi
   13fd0:	e8 b9 6d ff ff       	callq  ad8e <safe_div_func_uint16_t_u_u>
   13fd5:	0f b7 c0             	movzwl %ax,%eax
   13fd8:	89 85 ac ef ff ff    	mov    %eax,-0x1054(%rbp)
   13fde:	48 8b 85 38 f0 ff ff 	mov    -0xfc8(%rbp),%rax
   13fe5:	8b 00                	mov    (%rax),%eax
   13fe7:	33 85 ac ef ff ff    	xor    -0x1054(%rbp),%eax
   13fed:	48 98                	cltq   
   13fef:	48 8b b5 18 ef ff ff 	mov    -0x10e8(%rbp),%rsi
   13ff6:	48 89 c7             	mov    %rax,%rdi
   13ff9:	e8 43 68 ff ff       	callq  a841 <safe_add_func_int64_t_s_s>
   13ffe:	89 c2                	mov    %eax,%edx
   14000:	0f b7 85 c2 f8 ff ff 	movzwl -0x73e(%rbp),%eax
   14007:	0f b6 c0             	movzbl %al,%eax
   1400a:	89 d6                	mov    %edx,%esi
   1400c:	89 c7                	mov    %eax,%edi
   1400e:	e8 7a 6c ff ff       	callq  ac8d <safe_rshift_func_uint8_t_u_s>
   14013:	be 00 00 00 00       	mov    $0x0,%esi
   14018:	bf 01 00 00 00       	mov    $0x1,%edi
   1401d:	e8 9c 6c ff ff       	callq  acbe <safe_rshift_func_uint8_t_u_u>
   14022:	48 8d 05 87 e0 00 00 	lea    0xe087(%rip),%rax        # 220b0 <g_515>
   14029:	48 8b 00             	mov    (%rax),%rax
   1402c:	0f b7 00             	movzwl (%rax),%eax
   1402f:	98                   	cwtl   
   14030:	8b 95 2c ef ff ff    	mov    -0x10d4(%rbp),%edx
   14036:	89 d6                	mov    %edx,%esi
   14038:	89 c7                	mov    %eax,%edi
   1403a:	e8 eb 64 ff ff       	callq  a52a <safe_rshift_func_int16_t_s_s>
   1403f:	48 8b 95 48 f1 ff ff 	mov    -0xeb8(%rbp),%rdx
   14046:	8b 12                	mov    (%rdx),%edx
   14048:	98                   	cwtl   
   14049:	31 c2                	xor    %eax,%edx
   1404b:	48 8b 85 48 f1 ff ff 	mov    -0xeb8(%rbp),%rax
   14052:	89 10                	mov    %edx,(%rax)
   14054:	8b 05 c2 b1 00 00    	mov    0xb1c2(%rip),%eax        # 1f21c <g_426>
   1405a:	be 01 00 00 00       	mov    $0x1,%esi
   1405f:	89 c7                	mov    %eax,%edi
   14061:	e8 9f 65 ff ff       	callq  a605 <safe_sub_func_int32_t_s_s>
   14066:	89 05 b0 b1 00 00    	mov    %eax,0xb1b0(%rip)        # 1f21c <g_426>
   1406c:	8b 05 aa b1 00 00    	mov    0xb1aa(%rip),%eax        # 1f21c <g_426>
   14072:	83 f8 0e             	cmp    $0xe,%eax
   14075:	0f 86 40 fd ff ff    	jbe    13dbb <func_44+0x2f28>
   1407b:	48 8b 85 48 f1 ff ff 	mov    -0xeb8(%rbp),%rax
   14082:	8b 10                	mov    (%rax),%edx
   14084:	48 8b 85 48 f1 ff ff 	mov    -0xeb8(%rbp),%rax
   1408b:	89 10                	mov    %edx,(%rax)
   1408d:	0f b7 85 48 ef ff ff 	movzwl -0x10b8(%rbp),%eax
   14094:	89 c2                	mov    %eax,%edx
   14096:	48 8b 85 20 ef ff ff 	mov    -0x10e0(%rbp),%rax
   1409d:	31 d0                	xor    %edx,%eax
   1409f:	89 c2                	mov    %eax,%edx
   140a1:	48 8b 85 30 f1 ff ff 	mov    -0xed0(%rbp),%rax
   140a8:	88 10                	mov    %dl,(%rax)
   140aa:	48 8b 85 30 f1 ff ff 	mov    -0xed0(%rbp),%rax
   140b1:	0f b6 00             	movzbl (%rax),%eax
   140b4:	0f be d0             	movsbl %al,%edx
   140b7:	0f bf 8d 48 ef ff ff 	movswl -0x10b8(%rbp),%ecx
   140be:	48 8b 85 48 f1 ff ff 	mov    -0xeb8(%rbp),%rax
   140c5:	89 08                	mov    %ecx,(%rax)
   140c7:	48 8b 85 38 f0 ff ff 	mov    -0xfc8(%rbp),%rax
   140ce:	8b 08                	mov    (%rax),%ecx
   140d0:	48 8b 85 58 f1 ff ff 	mov    -0xea8(%rbp),%rax
   140d7:	89 08                	mov    %ecx,(%rax)
   140d9:	48 8b 85 58 f1 ff ff 	mov    -0xea8(%rbp),%rax
   140e0:	8b 00                	mov    (%rax),%eax
   140e2:	33 85 2c ef ff ff    	xor    -0x10d4(%rbp),%eax
   140e8:	83 f8 fd             	cmp    $0xfffffffd,%eax
   140eb:	0f 94 c0             	sete   %al
   140ee:	89 c1                	mov    %eax,%ecx
   140f0:	8b 85 2c ef ff ff    	mov    -0x10d4(%rbp),%eax
   140f6:	31 c8                	xor    %ecx,%eax
   140f8:	0f b6 c0             	movzbl %al,%eax
   140fb:	89 d6                	mov    %edx,%esi
   140fd:	89 c7                	mov    %eax,%edi
   140ff:	e8 01 6b ff ff       	callq  ac05 <safe_lshift_func_uint8_t_u_s>
   14104:	0f b7 05 21 b1 00 00 	movzwl 0xb121(%rip),%eax        # 1f22c <g_453>
   1410b:	0f be c0             	movsbl %al,%eax
   1410e:	89 c6                	mov    %eax,%esi
   14110:	bf 00 00 00 00       	mov    $0x0,%edi
   14115:	e8 17 61 ff ff       	callq  a231 <safe_mod_func_int8_t_s_s>
   1411a:	0f be d0             	movsbl %al,%edx
   1411d:	8b 85 4c ef ff ff    	mov    -0x10b4(%rbp),%eax
   14123:	31 d0                	xor    %edx,%eax
   14125:	89 85 4c ef ff ff    	mov    %eax,-0x10b4(%rbp)
   1412b:	48 c7 05 c2 af 00 00 	movq   $0x4,0xafc2(%rip)        # 1f0f8 <g_98>
   14132:	04 00 00 00 
   14136:	e9 2f 09 00 00       	jmpq   14a6a <func_44+0x3bd7>
   1413b:	66 c7 85 b0 f4 ff ff 	movw   $0x708,-0xb50(%rbp)
   14142:	08 07 
   14144:	c6 85 b2 f4 ff ff 03 	movb   $0x3,-0xb4e(%rbp)
   1414b:	66 c7 85 b3 f4 ff ff 	movw   $0x3707,-0xb4d(%rbp)
   14152:	07 37 
   14154:	c6 85 b5 f4 ff ff 0b 	movb   $0xb,-0xb4b(%rbp)
   1415b:	66 c7 85 b6 f4 ff ff 	movw   $0x107,-0xb4a(%rbp)
   14162:	07 01 
   14164:	c6 85 b8 f4 ff ff 61 	movb   $0x61,-0xb48(%rbp)
   1416b:	66 c7 85 b9 f4 ff ff 	movw   $0x808,-0xb47(%rbp)
   14172:	08 08 
   14174:	c6 85 bb f4 ff ff ff 	movb   $0xff,-0xb45(%rbp)
   1417b:	66 c7 85 bc f4 ff ff 	movw   $0x6d61,-0xb44(%rbp)
   14182:	61 6d 
   14184:	c6 85 be f4 ff ff 39 	movb   $0x39,-0xb42(%rbp)
   1418b:	66 c7 85 bf f4 ff ff 	movw   $0xa8fd,-0xb41(%rbp)
   14192:	fd a8 
   14194:	c6 85 c1 f4 ff ff fa 	movb   $0xfa,-0xb3f(%rbp)
   1419b:	66 c7 85 c2 f4 ff ff 	movw   $0xfa01,-0xb3e(%rbp)
   141a2:	01 fa 
   141a4:	c6 85 c4 f4 ff ff 60 	movb   $0x60,-0xb3c(%rbp)
   141ab:	66 c7 85 c5 f4 ff ff 	movw   $0xfdff,-0xb3b(%rbp)
   141b2:	ff fd 
   141b4:	c6 85 c7 f4 ff ff fa 	movb   $0xfa,-0xb39(%rbp)
   141bb:	66 c7 85 c8 f4 ff ff 	movw   $0xca63,-0xb38(%rbp)
   141c2:	63 ca 
   141c4:	c6 85 ca f4 ff ff 39 	movb   $0x39,-0xb36(%rbp)
   141cb:	66 c7 85 cb f4 ff ff 	movw   $0x139,-0xb35(%rbp)
   141d2:	39 01 
   141d4:	c6 85 cd f4 ff ff ff 	movb   $0xff,-0xb33(%rbp)
   141db:	66 c7 85 ce f4 ff ff 	movw   $0x3903,-0xb32(%rbp)
   141e2:	03 39 
   141e4:	c6 85 d0 f4 ff ff 61 	movb   $0x61,-0xb30(%rbp)
   141eb:	66 c7 85 d1 f4 ff ff 	movw   $0x8fc,-0xb2f(%rbp)
   141f2:	fc 08 
   141f4:	c6 85 d3 f4 ff ff 0b 	movb   $0xb,-0xb2d(%rbp)
   141fb:	66 c7 85 d4 f4 ff ff 	movw   $0x86d,-0xb2c(%rbp)
   14202:	6d 08 
   14204:	c6 85 d6 f4 ff ff 03 	movb   $0x3,-0xb2a(%rbp)
   1420b:	66 c7 85 d7 f4 ff ff 	movw   $0x39fb,-0xb29(%rbp)
   14212:	fb 39 
   14214:	c6 85 d9 f4 ff ff fb 	movb   $0xfb,-0xb27(%rbp)
   1421b:	66 c7 85 da f4 ff ff 	movw   $0x1ff,-0xb26(%rbp)
   14222:	ff 01 
   14224:	c6 85 dc f4 ff ff 08 	movb   $0x8,-0xb24(%rbp)
   1422b:	66 c7 85 dd f4 ff ff 	movw   $0xcaff,-0xb23(%rbp)
   14232:	ff ca 
   14234:	c6 85 df f4 ff ff 37 	movb   $0x37,-0xb21(%rbp)
   1423b:	66 c7 85 e0 f4 ff ff 	movw   $0xfdfa,-0xb20(%rbp)
   14242:	fa fd 
   14244:	c6 85 e2 f4 ff ff fc 	movb   $0xfc,-0xb1e(%rbp)
   1424b:	66 c7 85 e3 f4 ff ff 	movw   $0xfa08,-0xb1d(%rbp)
   14252:	08 fa 
   14254:	c6 85 e5 f4 ff ff 05 	movb   $0x5,-0xb1b(%rbp)
   1425b:	66 c7 85 e6 f4 ff ff 	movw   $0xa8fa,-0xb1a(%rbp)
   14262:	fa a8 
   14264:	c6 85 e8 f4 ff ff 03 	movb   $0x3,-0xb18(%rbp)
   1426b:	66 c7 85 e9 f4 ff ff 	movw   $0x6dff,-0xb17(%rbp)
   14272:	ff 6d 
   14274:	c6 85 eb f4 ff ff ca 	movb   $0xca,-0xb15(%rbp)
   1427b:	66 c7 85 ec f4 ff ff 	movw   $0x8ff,-0xb14(%rbp)
   14282:	ff 08 
   14284:	c6 85 ee f4 ff ff 07 	movb   $0x7,-0xb12(%rbp)
   1428b:	66 c7 85 ef f4 ff ff 	movw   $0x1fb,-0xb11(%rbp)
   14292:	fb 01 
   14294:	c6 85 f1 f4 ff ff 01 	movb   $0x1,-0xb0f(%rbp)
   1429b:	66 c7 85 f2 f4 ff ff 	movw   $0x376d,-0xb0e(%rbp)
   142a2:	6d 37 
   142a4:	c6 85 f4 f4 ff ff 01 	movb   $0x1,-0xb0c(%rbp)
   142ab:	66 c7 85 f5 f4 ff ff 	movw   $0x7fc,-0xb0b(%rbp)
   142b2:	fc 07 
   142b4:	c6 85 f7 f4 ff ff 07 	movb   $0x7,-0xb09(%rbp)
   142bb:	66 c7 85 f8 f4 ff ff 	movw   $0xfa03,-0xb08(%rbp)
   142c2:	03 fa 
   142c4:	c6 85 fa f4 ff ff ca 	movb   $0xca,-0xb06(%rbp)
   142cb:	66 c7 85 fb f4 ff ff 	movw   $0x139,-0xb05(%rbp)
   142d2:	39 01 
   142d4:	c6 85 fd f4 ff ff 03 	movb   $0x3,-0xb03(%rbp)
   142db:	66 c7 85 fe f4 ff ff 	movw   $0x9263,-0xb02(%rbp)
   142e2:	63 92 
   142e4:	c6 85 00 f5 ff ff 05 	movb   $0x5,-0xb00(%rbp)
   142eb:	66 c7 85 01 f5 ff ff 	movw   $0xbff,-0xaff(%rbp)
   142f2:	ff 0b 
   142f4:	c6 85 03 f5 ff ff fc 	movb   $0xfc,-0xafd(%rbp)
   142fb:	66 c7 85 04 f5 ff ff 	movw   $0x9201,-0xafc(%rbp)
   14302:	01 92 
   14304:	c6 85 06 f5 ff ff 37 	movb   $0x37,-0xafa(%rbp)
   1430b:	66 c7 85 07 f5 ff ff 	movw   $0x1fd,-0xaf9(%rbp)
   14312:	fd 01 
   14314:	c6 85 09 f5 ff ff 08 	movb   $0x8,-0xaf7(%rbp)
   1431b:	66 c7 85 0a f5 ff ff 	movw   $0xfa61,-0xaf6(%rbp)
   14322:	61 fa 
   14324:	c6 85 0c f5 ff ff fb 	movb   $0xfb,-0xaf4(%rbp)
   1432b:	66 c7 85 0d f5 ff ff 	movw   $0x708,-0xaf3(%rbp)
   14332:	08 07 
   14334:	c6 85 0f f5 ff ff 03 	movb   $0x3,-0xaf1(%rbp)
   1433b:	66 c7 85 10 f5 ff ff 	movw   $0x3707,-0xaf0(%rbp)
   14342:	07 37 
   14344:	c6 85 12 f5 ff ff 0b 	movb   $0xb,-0xaee(%rbp)
   1434b:	66 c7 85 13 f5 ff ff 	movw   $0x107,-0xaed(%rbp)
   14352:	07 01 
   14354:	c6 85 15 f5 ff ff 61 	movb   $0x61,-0xaeb(%rbp)
   1435b:	66 c7 85 16 f5 ff ff 	movw   $0x808,-0xaea(%rbp)
   14362:	08 08 
   14364:	c6 85 18 f5 ff ff ff 	movb   $0xff,-0xae8(%rbp)
   1436b:	66 c7 85 19 f5 ff ff 	movw   $0x6d61,-0xae7(%rbp)
   14372:	61 6d 
   14374:	c6 85 1b f5 ff ff 39 	movb   $0x39,-0xae5(%rbp)
   1437b:	66 c7 85 1c f5 ff ff 	movw   $0xa8fd,-0xae4(%rbp)
   14382:	fd a8 
   14384:	c6 85 1e f5 ff ff fa 	movb   $0xfa,-0xae2(%rbp)
   1438b:	66 c7 85 1f f5 ff ff 	movw   $0xfa01,-0xae1(%rbp)
   14392:	01 fa 
   14394:	c6 85 21 f5 ff ff 60 	movb   $0x60,-0xadf(%rbp)
   1439b:	66 c7 85 22 f5 ff ff 	movw   $0xfdff,-0xade(%rbp)
   143a2:	ff fd 
   143a4:	c6 85 24 f5 ff ff fa 	movb   $0xfa,-0xadc(%rbp)
   143ab:	66 c7 85 25 f5 ff ff 	movw   $0xca63,-0xadb(%rbp)
   143b2:	63 ca 
   143b4:	c6 85 27 f5 ff ff 39 	movb   $0x39,-0xad9(%rbp)
   143bb:	66 c7 85 28 f5 ff ff 	movw   $0x139,-0xad8(%rbp)
   143c2:	39 01 
   143c4:	c6 85 2a f5 ff ff ff 	movb   $0xff,-0xad6(%rbp)
   143cb:	66 c7 85 2b f5 ff ff 	movw   $0x3903,-0xad5(%rbp)
   143d2:	03 39 
   143d4:	c6 85 2d f5 ff ff 61 	movb   $0x61,-0xad3(%rbp)
   143db:	66 c7 85 2e f5 ff ff 	movw   $0x8fc,-0xad2(%rbp)
   143e2:	fc 08 
   143e4:	c6 85 30 f5 ff ff 0b 	movb   $0xb,-0xad0(%rbp)
   143eb:	66 c7 85 31 f5 ff ff 	movw   $0x86d,-0xacf(%rbp)
   143f2:	6d 08 
   143f4:	c6 85 33 f5 ff ff 03 	movb   $0x3,-0xacd(%rbp)
   143fb:	66 c7 85 34 f5 ff ff 	movw   $0x39fb,-0xacc(%rbp)
   14402:	fb 39 
   14404:	c6 85 36 f5 ff ff fb 	movb   $0xfb,-0xaca(%rbp)
   1440b:	66 c7 85 37 f5 ff ff 	movw   $0x1ff,-0xac9(%rbp)
   14412:	ff 01 
   14414:	c6 85 39 f5 ff ff 08 	movb   $0x8,-0xac7(%rbp)
   1441b:	66 c7 85 3a f5 ff ff 	movw   $0xcaff,-0xac6(%rbp)
   14422:	ff ca 
   14424:	c6 85 3c f5 ff ff 37 	movb   $0x37,-0xac4(%rbp)
   1442b:	66 c7 85 3d f5 ff ff 	movw   $0xfdfa,-0xac3(%rbp)
   14432:	fa fd 
   14434:	c6 85 3f f5 ff ff fc 	movb   $0xfc,-0xac1(%rbp)
   1443b:	66 c7 85 40 f5 ff ff 	movw   $0xfa08,-0xac0(%rbp)
   14442:	08 fa 
   14444:	c6 85 42 f5 ff ff 05 	movb   $0x5,-0xabe(%rbp)
   1444b:	66 c7 85 43 f5 ff ff 	movw   $0xa8fa,-0xabd(%rbp)
   14452:	fa a8 
   14454:	c6 85 45 f5 ff ff 03 	movb   $0x3,-0xabb(%rbp)
   1445b:	66 c7 85 46 f5 ff ff 	movw   $0x6dff,-0xaba(%rbp)
   14462:	ff 6d 
   14464:	c6 85 48 f5 ff ff ca 	movb   $0xca,-0xab8(%rbp)
   1446b:	66 c7 85 49 f5 ff ff 	movw   $0x8ff,-0xab7(%rbp)
   14472:	ff 08 
   14474:	c6 85 4b f5 ff ff 07 	movb   $0x7,-0xab5(%rbp)
   1447b:	66 c7 85 4c f5 ff ff 	movw   $0x1fb,-0xab4(%rbp)
   14482:	fb 01 
   14484:	c6 85 4e f5 ff ff 01 	movb   $0x1,-0xab2(%rbp)
   1448b:	66 c7 85 4f f5 ff ff 	movw   $0x376d,-0xab1(%rbp)
   14492:	6d 37 
   14494:	c6 85 51 f5 ff ff 01 	movb   $0x1,-0xaaf(%rbp)
   1449b:	66 c7 85 52 f5 ff ff 	movw   $0xa8fc,-0xaae(%rbp)
   144a2:	fc a8 
   144a4:	c6 85 54 f5 ff ff a8 	movb   $0xa8,-0xaac(%rbp)
   144ab:	66 c7 85 55 f5 ff ff 	movw   $0xff00,-0xaab(%rbp)
   144b2:	00 ff 
   144b4:	c6 85 57 f5 ff ff fc 	movb   $0xfc,-0xaa9(%rbp)
   144bb:	66 c7 85 58 f5 ff ff 	movw   $0xfafc,-0xaa8(%rbp)
   144c2:	fc fa 
   144c4:	c6 85 5a f5 ff ff 00 	movb   $0x0,-0xaa6(%rbp)
   144cb:	66 c7 85 5b f5 ff ff 	movw   $0x100,-0xaa5(%rbp)
   144d2:	00 01 
   144d4:	c6 85 5d f5 ff ff 60 	movb   $0x60,-0xaa3(%rbp)
   144db:	66 c7 85 5e f5 ff ff 	movw   $0x508,-0xaa2(%rbp)
   144e2:	08 05 
   144e4:	c6 85 60 f5 ff ff 07 	movb   $0x7,-0xaa0(%rbp)
   144eb:	66 c7 85 61 f5 ff ff 	movw   $0x108,-0xa9f(%rbp)
   144f2:	08 01 
   144f4:	c6 85 63 f5 ff ff fd 	movb   $0xfd,-0xa9d(%rbp)
   144fb:	66 c7 85 64 f5 ff ff 	movw   $0xfa0b,-0xa9c(%rbp)
   14502:	0b fa 
   14504:	c6 85 66 f5 ff ff 03 	movb   $0x3,-0xa9a(%rbp)
   1450b:	66 c7 85 67 f5 ff ff 	movw   $0xff37,-0xa99(%rbp)
   14512:	37 ff 
   14514:	c6 85 69 f5 ff ff 63 	movb   $0x63,-0xa97(%rbp)
   1451b:	66 c7 85 6a f5 ff ff 	movw   $0xa88c,-0xa96(%rbp)
   14522:	8c a8 
   14524:	c6 85 6c f5 ff ff 01 	movb   $0x1,-0xa94(%rbp)
   1452b:	66 c7 85 6d f5 ff ff 	movw   $0xfda8,-0xa93(%rbp)
   14532:	a8 fd 
   14534:	c6 85 6f f5 ff ff 05 	movb   $0x5,-0xa91(%rbp)
   1453b:	66 c7 85 70 f5 ff ff 	movw   $0x8a8,-0xa90(%rbp)
   14542:	a8 08 
   14544:	c6 85 72 f5 ff ff 37 	movb   $0x37,-0xa8e(%rbp)
   1454b:	66 c7 85 73 f5 ff ff 	movw   $0x8c8c,-0xa8d(%rbp)
   14552:	8c 8c 
   14554:	c6 85 75 f5 ff ff 08 	movb   $0x8,-0xa8b(%rbp)
   1455b:	66 c7 85 76 f5 ff ff 	movw   $0x137,-0xa8a(%rbp)
   14562:	37 01 
   14564:	c6 85 78 f5 ff ff fc 	movb   $0xfc,-0xa88(%rbp)
   1456b:	66 c7 85 79 f5 ff ff 	movw   $0x610b,-0xa87(%rbp)
   14572:	0b 61 
   14574:	c6 85 7b f5 ff ff 39 	movb   $0x39,-0xa85(%rbp)
   1457b:	66 c7 85 7c f5 ff ff 	movw   $0x3908,-0xa84(%rbp)
   14582:	08 39 
   14584:	c6 85 7e f5 ff ff fa 	movb   $0xfa,-0xa82(%rbp)
   1458b:	66 c7 85 7f f5 ff ff 	movw   $0xb08,-0xa81(%rbp)
   14592:	08 0b 
   14594:	c6 85 81 f5 ff ff 39 	movb   $0x39,-0xa7f(%rbp)
   1459b:	c7 85 bc ef ff ff 63 	movl   $0xc2634f63,-0x1044(%rbp)
   145a2:	4f 63 c2 
   145a5:	c7 85 a0 f3 ff ff ec 	movl   $0xedee1dec,-0xc60(%rbp)
   145ac:	1d ee ed 
   145af:	c7 85 a4 f3 ff ff 00 	movl   $0x0,-0xc5c(%rbp)
   145b6:	00 00 00 
   145b9:	c7 85 a8 f3 ff ff 05 	movl   $0x5,-0xc58(%rbp)
   145c0:	00 00 00 
   145c3:	c7 85 ac f3 ff ff 00 	movl   $0x0,-0xc54(%rbp)
   145ca:	00 00 00 
   145cd:	c7 85 b0 f3 ff ff ec 	movl   $0xedee1dec,-0xc50(%rbp)
   145d4:	1d ee ed 
   145d7:	c7 85 b4 f3 ff ff 27 	movl   $0x89b96e27,-0xc4c(%rbp)
   145de:	6e b9 89 
   145e1:	c7 85 b8 f3 ff ff 27 	movl   $0x89b96e27,-0xc48(%rbp)
   145e8:	6e b9 89 
   145eb:	c7 85 bc f3 ff ff ec 	movl   $0xedee1dec,-0xc44(%rbp)
   145f2:	1d ee ed 
   145f5:	c7 85 c0 f3 ff ff 00 	movl   $0x0,-0xc40(%rbp)
   145fc:	00 00 00 
   145ff:	c7 85 c4 f3 ff ff 01 	movl   $0x1,-0xc3c(%rbp)
   14606:	00 00 00 
   14609:	c7 85 c8 f3 ff ff 01 	movl   $0x1,-0xc38(%rbp)
   14610:	00 00 00 
   14613:	c7 85 cc f3 ff ff 01 	movl   $0x1,-0xc34(%rbp)
   1461a:	00 00 00 
   1461d:	c7 85 d0 f3 ff ff 27 	movl   $0x89b96e27,-0xc30(%rbp)
   14624:	6e b9 89 
   14627:	c7 85 d4 f3 ff ff 05 	movl   $0x5,-0xc2c(%rbp)
   1462e:	00 00 00 
   14631:	c7 85 d8 f3 ff ff 05 	movl   $0x5,-0xc28(%rbp)
   14638:	00 00 00 
   1463b:	c7 85 dc f3 ff ff 27 	movl   $0x89b96e27,-0xc24(%rbp)
   14642:	6e b9 89 
   14645:	c7 85 e0 f3 ff ff 01 	movl   $0x1,-0xc20(%rbp)
   1464c:	00 00 00 
   1464f:	c7 85 e4 f3 ff ff 01 	movl   $0x1,-0xc1c(%rbp)
   14656:	00 00 00 
   14659:	c7 85 e8 f3 ff ff 01 	movl   $0x1,-0xc18(%rbp)
   14660:	00 00 00 
   14663:	c7 85 ec f3 ff ff 01 	movl   $0x1,-0xc14(%rbp)
   1466a:	00 00 00 
   1466d:	c7 85 f0 f3 ff ff 27 	movl   $0x89b96e27,-0xc10(%rbp)
   14674:	6e b9 89 
   14677:	c7 85 f4 f3 ff ff 05 	movl   $0x5,-0xc0c(%rbp)
   1467e:	00 00 00 
   14681:	c7 85 f8 f3 ff ff 05 	movl   $0x5,-0xc08(%rbp)
   14688:	00 00 00 
   1468b:	c7 85 fc f3 ff ff 27 	movl   $0x89b96e27,-0xc04(%rbp)
   14692:	6e b9 89 
   14695:	c7 85 00 f4 ff ff 01 	movl   $0x1,-0xc00(%rbp)
   1469c:	00 00 00 
   1469f:	c7 85 04 f4 ff ff 01 	movl   $0x1,-0xbfc(%rbp)
   146a6:	00 00 00 
   146a9:	c7 85 08 f4 ff ff 01 	movl   $0x1,-0xbf8(%rbp)
   146b0:	00 00 00 
   146b3:	48 8d 05 36 aa 00 00 	lea    0xaa36(%rip),%rax        # 1f0f0 <g_74>
   146ba:	48 89 85 40 f3 ff ff 	mov    %rax,-0xcc0(%rbp)
   146c1:	48 8d 05 28 aa 00 00 	lea    0xaa28(%rip),%rax        # 1f0f0 <g_74>
   146c8:	48 89 85 48 f3 ff ff 	mov    %rax,-0xcb8(%rbp)
   146cf:	48 8d 05 1a aa 00 00 	lea    0xaa1a(%rip),%rax        # 1f0f0 <g_74>
   146d6:	48 89 85 50 f3 ff ff 	mov    %rax,-0xcb0(%rbp)
   146dd:	48 8d 05 0c aa 00 00 	lea    0xaa0c(%rip),%rax        # 1f0f0 <g_74>
   146e4:	48 89 85 58 f3 ff ff 	mov    %rax,-0xca8(%rbp)
   146eb:	48 8d 05 fe a9 00 00 	lea    0xa9fe(%rip),%rax        # 1f0f0 <g_74>
   146f2:	48 89 85 60 f3 ff ff 	mov    %rax,-0xca0(%rbp)
   146f9:	48 8d 05 f0 a9 00 00 	lea    0xa9f0(%rip),%rax        # 1f0f0 <g_74>
   14700:	48 89 85 68 f3 ff ff 	mov    %rax,-0xc98(%rbp)
   14707:	48 8d 05 e2 a9 00 00 	lea    0xa9e2(%rip),%rax        # 1f0f0 <g_74>
   1470e:	48 89 85 70 f3 ff ff 	mov    %rax,-0xc90(%rbp)
   14715:	48 8d 05 d4 a9 00 00 	lea    0xa9d4(%rip),%rax        # 1f0f0 <g_74>
   1471c:	48 89 85 78 f3 ff ff 	mov    %rax,-0xc88(%rbp)
   14723:	48 8d 05 c6 a9 00 00 	lea    0xa9c6(%rip),%rax        # 1f0f0 <g_74>
   1472a:	48 89 85 80 f3 ff ff 	mov    %rax,-0xc80(%rbp)
   14731:	48 8d 05 b8 a9 00 00 	lea    0xa9b8(%rip),%rax        # 1f0f0 <g_74>
   14738:	48 89 85 88 f3 ff ff 	mov    %rax,-0xc78(%rbp)
   1473f:	48 8d 05 aa a9 00 00 	lea    0xa9aa(%rip),%rax        # 1f0f0 <g_74>
   14746:	48 89 85 90 f3 ff ff 	mov    %rax,-0xc70(%rbp)
   1474d:	48 8d 05 9c a9 00 00 	lea    0xa99c(%rip),%rax        # 1f0f0 <g_74>
   14754:	48 89 85 98 f3 ff ff 	mov    %rax,-0xc68(%rbp)
   1475b:	0f b6 85 61 f5 ff ff 	movzbl -0xa9f(%rbp),%eax
   14762:	84 c0                	test   %al,%al
   14764:	0f 85 a3 03 00 00    	jne    14b0d <func_44+0x3c7a>
   1476a:	0f b7 05 ff ac 00 00 	movzwl 0xacff(%rip),%eax        # 1f470 <g_874>
   14771:	83 e8 01             	sub    $0x1,%eax
   14774:	66 89 05 f5 ac 00 00 	mov    %ax,0xacf5(%rip)        # 1f470 <g_874>
   1477b:	c7 85 68 ef ff ff 00 	movl   $0x0,-0x1098(%rbp)
   14782:	00 00 00 
   14785:	e9 9c 02 00 00       	jmpq   14a26 <func_44+0x3b93>
   1478a:	48 8d 05 e1 ac 00 00 	lea    0xace1(%rip),%rax        # 1f472 <g_879>
   14791:	48 89 85 18 f0 ff ff 	mov    %rax,-0xfe8(%rbp)
   14798:	48 8d 85 18 f0 ff ff 	lea    -0xfe8(%rbp),%rax
   1479f:	48 89 85 b0 f8 ff ff 	mov    %rax,-0x750(%rbp)
   147a6:	48 8d 85 18 f0 ff ff 	lea    -0xfe8(%rbp),%rax
   147ad:	48 89 85 b8 f8 ff ff 	mov    %rax,-0x748(%rbp)
   147b4:	48 8d 85 18 f0 ff ff 	lea    -0xfe8(%rbp),%rax
   147bb:	48 89 85 c0 f8 ff ff 	mov    %rax,-0x740(%rbp)
   147c2:	48 8d 85 18 f0 ff ff 	lea    -0xfe8(%rbp),%rax
   147c9:	48 89 85 c8 f8 ff ff 	mov    %rax,-0x738(%rbp)
   147d0:	48 8d 85 18 f0 ff ff 	lea    -0xfe8(%rbp),%rax
   147d7:	48 89 85 d0 f8 ff ff 	mov    %rax,-0x730(%rbp)
   147de:	48 c7 85 d8 f8 ff ff 	movq   $0x0,-0x728(%rbp)
   147e5:	00 00 00 00 
   147e9:	48 8d 85 18 f0 ff ff 	lea    -0xfe8(%rbp),%rax
   147f0:	48 89 85 e0 f8 ff ff 	mov    %rax,-0x720(%rbp)
   147f7:	48 8d 85 18 f0 ff ff 	lea    -0xfe8(%rbp),%rax
   147fe:	48 89 85 e8 f8 ff ff 	mov    %rax,-0x718(%rbp)
   14805:	48 8d 85 18 f0 ff ff 	lea    -0xfe8(%rbp),%rax
   1480c:	48 89 85 f0 f8 ff ff 	mov    %rax,-0x710(%rbp)
   14813:	48 8d 85 18 f0 ff ff 	lea    -0xfe8(%rbp),%rax
   1481a:	48 89 85 f8 f8 ff ff 	mov    %rax,-0x708(%rbp)
   14821:	48 8d 85 18 f0 ff ff 	lea    -0xfe8(%rbp),%rax
   14828:	48 89 85 00 f9 ff ff 	mov    %rax,-0x700(%rbp)
   1482f:	48 8d 85 18 f0 ff ff 	lea    -0xfe8(%rbp),%rax
   14836:	48 89 85 08 f9 ff ff 	mov    %rax,-0x6f8(%rbp)
   1483d:	48 c7 85 10 f9 ff ff 	movq   $0x0,-0x6f0(%rbp)
   14844:	00 00 00 00 
   14848:	48 8d 85 18 f0 ff ff 	lea    -0xfe8(%rbp),%rax
   1484f:	48 89 85 18 f9 ff ff 	mov    %rax,-0x6e8(%rbp)
   14856:	48 8d 85 18 f0 ff ff 	lea    -0xfe8(%rbp),%rax
   1485d:	48 89 85 20 f9 ff ff 	mov    %rax,-0x6e0(%rbp)
   14864:	48 c7 85 28 f9 ff ff 	movq   $0x0,-0x6d8(%rbp)
   1486b:	00 00 00 00 
   1486f:	48 8d 85 18 f0 ff ff 	lea    -0xfe8(%rbp),%rax
   14876:	48 89 85 30 f9 ff ff 	mov    %rax,-0x6d0(%rbp)
   1487d:	48 8d 85 18 f0 ff ff 	lea    -0xfe8(%rbp),%rax
   14884:	48 89 85 38 f9 ff ff 	mov    %rax,-0x6c8(%rbp)
   1488b:	48 8d 85 18 f0 ff ff 	lea    -0xfe8(%rbp),%rax
   14892:	48 89 85 40 f9 ff ff 	mov    %rax,-0x6c0(%rbp)
   14899:	48 c7 85 48 f9 ff ff 	movq   $0x0,-0x6b8(%rbp)
   148a0:	00 00 00 00 
   148a4:	48 8d 85 18 f0 ff ff 	lea    -0xfe8(%rbp),%rax
   148ab:	48 89 85 50 f9 ff ff 	mov    %rax,-0x6b0(%rbp)
   148b2:	48 8d 85 18 f0 ff ff 	lea    -0xfe8(%rbp),%rax
   148b9:	48 89 85 58 f9 ff ff 	mov    %rax,-0x6a8(%rbp)
   148c0:	48 8d 85 18 f0 ff ff 	lea    -0xfe8(%rbp),%rax
   148c7:	48 89 85 60 f9 ff ff 	mov    %rax,-0x6a0(%rbp)
   148ce:	48 c7 85 68 f9 ff ff 	movq   $0x0,-0x698(%rbp)
   148d5:	00 00 00 00 
   148d9:	48 8d 85 18 f0 ff ff 	lea    -0xfe8(%rbp),%rax
   148e0:	48 89 85 70 f9 ff ff 	mov    %rax,-0x690(%rbp)
   148e7:	48 8d 85 18 f0 ff ff 	lea    -0xfe8(%rbp),%rax
   148ee:	48 89 85 78 f9 ff ff 	mov    %rax,-0x688(%rbp)
   148f5:	48 8d 85 18 f0 ff ff 	lea    -0xfe8(%rbp),%rax
   148fc:	48 89 85 80 f9 ff ff 	mov    %rax,-0x680(%rbp)
   14903:	48 c7 85 88 f9 ff ff 	movq   $0x0,-0x678(%rbp)
   1490a:	00 00 00 00 
   1490e:	48 8d 85 18 f0 ff ff 	lea    -0xfe8(%rbp),%rax
   14915:	48 89 85 90 f9 ff ff 	mov    %rax,-0x670(%rbp)
   1491c:	48 8d 85 18 f0 ff ff 	lea    -0xfe8(%rbp),%rax
   14923:	48 89 85 98 f9 ff ff 	mov    %rax,-0x668(%rbp)
   1492a:	48 8d 85 18 f0 ff ff 	lea    -0xfe8(%rbp),%rax
   14931:	48 89 85 a0 f9 ff ff 	mov    %rax,-0x660(%rbp)
   14938:	48 c7 85 a8 f9 ff ff 	movq   $0x0,-0x658(%rbp)
   1493f:	00 00 00 00 
   14943:	48 8d 85 18 f0 ff ff 	lea    -0xfe8(%rbp),%rax
   1494a:	48 89 85 b0 f9 ff ff 	mov    %rax,-0x650(%rbp)
   14951:	48 8d 85 18 f0 ff ff 	lea    -0xfe8(%rbp),%rax
   14958:	48 89 85 b8 f9 ff ff 	mov    %rax,-0x648(%rbp)
   1495f:	48 8d 85 18 f0 ff ff 	lea    -0xfe8(%rbp),%rax
   14966:	48 89 85 c0 f9 ff ff 	mov    %rax,-0x640(%rbp)
   1496d:	48 8d 85 18 f0 ff ff 	lea    -0xfe8(%rbp),%rax
   14974:	48 89 85 c8 f9 ff ff 	mov    %rax,-0x638(%rbp)
   1497b:	48 8d 85 18 f0 ff ff 	lea    -0xfe8(%rbp),%rax
   14982:	48 89 85 d0 f9 ff ff 	mov    %rax,-0x630(%rbp)
   14989:	48 8d 85 18 f0 ff ff 	lea    -0xfe8(%rbp),%rax
   14990:	48 89 85 d8 f9 ff ff 	mov    %rax,-0x628(%rbp)
   14997:	48 8d 85 18 f0 ff ff 	lea    -0xfe8(%rbp),%rax
   1499e:	48 89 85 e0 f9 ff ff 	mov    %rax,-0x620(%rbp)
   149a5:	48 c7 85 e8 f9 ff ff 	movq   $0x0,-0x618(%rbp)
   149ac:	00 00 00 00 
   149b0:	48 c7 05 2d d7 00 00 	movq   $0x0,0xd72d(%rip)        # 220e8 <g_880>
   149b7:	00 00 00 00 
   149bb:	80 bd 35 ef ff ff 00 	cmpb   $0x0,-0x10cb(%rbp)
   149c2:	75 71                	jne    14a35 <func_44+0x3ba2>
   149c4:	8b 85 68 ef ff ff    	mov    -0x1098(%rbp),%eax
   149ca:	48 98                	cltq   
   149cc:	8b 94 85 50 f2 ff ff 	mov    -0xdb0(%rbp,%rax,4),%edx
   149d3:	48 8b 8d 60 f3 ff ff 	mov    -0xca0(%rbp),%rcx
   149da:	48 8b 85 10 f4 ff ff 	mov    -0xbf0(%rbp),%rax
   149e1:	48 39 c1             	cmp    %rax,%rcx
   149e4:	0f 94 c0             	sete   %al
   149e7:	0f b6 c0             	movzbl %al,%eax
   149ea:	31 c2                	xor    %eax,%edx
   149ec:	8b 85 68 ef ff ff    	mov    -0x1098(%rbp),%eax
   149f2:	48 98                	cltq   
   149f4:	89 94 85 50 f2 ff ff 	mov    %edx,-0xdb0(%rbp,%rax,4)
   149fb:	48 8b 05 8e d6 00 00 	mov    0xd68e(%rip),%rax        # 22090 <g_192>
   14a02:	48 8b 00             	mov    (%rax),%rax
   14a05:	48 8d 95 50 f2 ff ff 	lea    -0xdb0(%rbp),%rdx
   14a0c:	8b 8d 68 ef ff ff    	mov    -0x1098(%rbp),%ecx
   14a12:	48 63 c9             	movslq %ecx,%rcx
   14a15:	48 c1 e1 02          	shl    $0x2,%rcx
   14a19:	48 01 ca             	add    %rcx,%rdx
   14a1c:	48 89 10             	mov    %rdx,(%rax)
   14a1f:	83 85 68 ef ff ff 01 	addl   $0x1,-0x1098(%rbp)
   14a26:	83 bd 68 ef ff ff 09 	cmpl   $0x9,-0x1098(%rbp)
   14a2d:	0f 8e 57 fd ff ff    	jle    1478a <func_44+0x38f7>
   14a33:	eb 01                	jmp    14a36 <func_44+0x3ba3>
   14a35:	90                   	nop
   14a36:	c7 85 68 ef ff ff 01 	movl   $0x1,-0x1098(%rbp)
   14a3d:	00 00 00 
   14a40:	83 bd 68 ef ff ff 05 	cmpl   $0x5,-0x1098(%rbp)
   14a47:	7f 0f                	jg     14a58 <func_44+0x3bc5>
   14a49:	48 8b 05 48 d6 00 00 	mov    0xd648(%rip),%rax        # 22098 <g_375>
   14a50:	0f b6 00             	movzbl (%rax),%eax
   14a53:	e9 08 02 00 00       	jmpq   14c60 <func_44+0x3dcd>
   14a58:	48 8b 05 99 a6 00 00 	mov    0xa699(%rip),%rax        # 1f0f8 <g_98>
   14a5f:	48 83 e8 01          	sub    $0x1,%rax
   14a63:	48 89 05 8e a6 00 00 	mov    %rax,0xa68e(%rip)        # 1f0f8 <g_98>
   14a6a:	48 8b 05 87 a6 00 00 	mov    0xa687(%rip),%rax        # 1f0f8 <g_98>
   14a71:	48 85 c0             	test   %rax,%rax
   14a74:	0f 8f c1 f6 ff ff    	jg     1413b <func_44+0x32a8>
   14a7a:	e9 8f 00 00 00       	jmpq   14b0e <func_44+0x3c7b>
   14a7f:	c7 85 a0 ef ff ff fb 	movl   $0xfffffffb,-0x1060(%rbp)
   14a86:	ff ff ff 
   14a89:	c7 85 a4 ef ff ff ff 	movl   $0xffffffff,-0x105c(%rbp)
   14a90:	ff ff ff 
   14a93:	c7 85 a8 ef ff ff ff 	movl   $0xffffffff,-0x1058(%rbp)
   14a9a:	ff ff ff 
   14a9d:	c7 85 b0 f8 ff ff 09 	movl   $0x9,-0x750(%rbp)
   14aa4:	00 00 00 
   14aa7:	c7 85 b4 f8 ff ff 09 	movl   $0x9,-0x74c(%rbp)
   14aae:	00 00 00 
   14ab1:	c7 85 b8 f8 ff ff 09 	movl   $0x9,-0x748(%rbp)
   14ab8:	00 00 00 
   14abb:	c7 85 bc f8 ff ff 09 	movl   $0x9,-0x744(%rbp)
   14ac2:	00 00 00 
   14ac5:	c7 85 c0 f8 ff ff 09 	movl   $0x9,-0x740(%rbp)
   14acc:	00 00 00 
   14acf:	c7 85 c4 f8 ff ff 09 	movl   $0x9,-0x73c(%rbp)
   14ad6:	00 00 00 
   14ad9:	c7 85 c8 f8 ff ff 09 	movl   $0x9,-0x738(%rbp)
   14ae0:	00 00 00 
   14ae3:	c7 85 cc f8 ff ff 09 	movl   $0x9,-0x734(%rbp)
   14aea:	00 00 00 
   14aed:	83 ad a0 ef ff ff 01 	subl   $0x1,-0x1060(%rbp)
   14af4:	66 83 85 46 ef ff ff 	addw   $0x1,-0x10ba(%rbp)
   14afb:	01 
   14afc:	eb 10                	jmp    14b0e <func_44+0x3c7b>
   14afe:	48 8b 05 93 d5 00 00 	mov    0xd593(%rip),%rax        # 22098 <g_375>
   14b05:	0f b6 00             	movzbl (%rax),%eax
   14b08:	e9 53 01 00 00       	jmpq   14c60 <func_44+0x3dcd>
   14b0d:	90                   	nop
   14b0e:	48 c7 05 df a5 00 00 	movq   $0x0,0xa5df(%rip)        # 1f0f8 <g_98>
   14b15:	00 00 00 00 
   14b19:	e9 8c 00 00 00       	jmpq   14baa <func_44+0x3d17>
   14b1e:	48 c7 85 00 f2 ff ff 	movq   $0x0,-0xe00(%rbp)
   14b25:	00 00 00 00 
   14b29:	48 8d 85 4c ef ff ff 	lea    -0x10b4(%rbp),%rax
   14b30:	48 89 85 08 f2 ff ff 	mov    %rax,-0xdf8(%rbp)
   14b37:	48 8d 05 72 d5 00 00 	lea    0xd572(%rip),%rax        # 220b0 <g_515>
   14b3e:	48 8b 00             	mov    (%rax),%rax
   14b41:	0f b7 00             	movzwl (%rax),%eax
   14b44:	0f bf d8             	movswl %ax,%ebx
   14b47:	48 8b 05 4a d5 00 00 	mov    0xd54a(%rip),%rax        # 22098 <g_375>
   14b4e:	0f b6 00             	movzbl (%rax),%eax
   14b51:	44 0f b6 e0          	movzbl %al,%r12d
   14b55:	be 0f 00 00 00       	mov    $0xf,%esi
   14b5a:	bf 00 00 00 00       	mov    $0x0,%edi
   14b5f:	e8 5a 62 ff ff       	callq  adbe <safe_lshift_func_uint16_t_u_s>
   14b64:	66 41 39 c4          	cmp    %ax,%r12w
   14b68:	0f 96 c0             	setbe  %al
   14b6b:	0f b6 c0             	movzbl %al,%eax
   14b6e:	39 c3                	cmp    %eax,%ebx
   14b70:	0f 9e c0             	setle  %al
   14b73:	0f b6 d0             	movzbl %al,%edx
   14b76:	48 8b 85 08 f2 ff ff 	mov    -0xdf8(%rbp),%rax
   14b7d:	8b 00                	mov    (%rax),%eax
   14b7f:	09 c2                	or     %eax,%edx
   14b81:	48 8b 85 08 f2 ff ff 	mov    -0xdf8(%rbp),%rax
   14b88:	89 10                	mov    %edx,(%rax)
   14b8a:	48 8b 05 67 a5 00 00 	mov    0xa567(%rip),%rax        # 1f0f8 <g_98>
   14b91:	0f b7 c0             	movzwl %ax,%eax
   14b94:	be 02 00 00 00       	mov    $0x2,%esi
   14b99:	89 c7                	mov    %eax,%edi
   14b9b:	e8 7f 61 ff ff       	callq  ad1f <safe_sub_func_uint16_t_u_u>
   14ba0:	0f b7 c0             	movzwl %ax,%eax
   14ba3:	48 89 05 4e a5 00 00 	mov    %rax,0xa54e(%rip)        # 1f0f8 <g_98>
   14baa:	48 8b 05 47 a5 00 00 	mov    0xa547(%rip),%rax        # 1f0f8 <g_98>
   14bb1:	48 83 f8 f4          	cmp    $0xfffffffffffffff4,%rax
   14bb5:	0f 85 63 ff ff ff    	jne    14b1e <func_44+0x3c8b>
   14bbb:	eb 79                	jmp    14c36 <func_44+0x3da3>
   14bbd:	c6 85 35 ef ff ff 00 	movb   $0x0,-0x10cb(%rbp)
   14bc4:	eb 67                	jmp    14c2d <func_44+0x3d9a>
   14bc6:	48 c7 05 27 a5 00 00 	movq   $0x0,0xa527(%rip)        # 1f0f8 <g_98>
   14bcd:	00 00 00 00 
   14bd1:	eb 46                	jmp    14c19 <func_44+0x3d86>
   14bd3:	0f b6 85 35 ef ff ff 	movzbl -0x10cb(%rbp),%eax
   14bda:	48 8b 0d 17 a5 00 00 	mov    0xa517(%rip),%rcx        # 1f0f8 <g_98>
   14be1:	48 63 d0             	movslq %eax,%rdx
   14be4:	48 89 d0             	mov    %rdx,%rax
   14be7:	48 c1 e0 02          	shl    $0x2,%rax
   14beb:	48 01 d0             	add    %rdx,%rax
   14bee:	48 01 c8             	add    %rcx,%rax
   14bf1:	48 8d 14 85 00 00 00 	lea    0x0(,%rax,4),%rdx
   14bf8:	00 
   14bf9:	48 8d 05 20 a8 00 00 	lea    0xa820(%rip),%rax        # 1f420 <g_798>
   14c00:	c7 04 02 f9 ff ff ff 	movl   $0xfffffff9,(%rdx,%rax,1)
   14c07:	48 8b 05 ea a4 00 00 	mov    0xa4ea(%rip),%rax        # 1f0f8 <g_98>
   14c0e:	48 83 c0 01          	add    $0x1,%rax
   14c12:	48 89 05 df a4 00 00 	mov    %rax,0xa4df(%rip)        # 1f0f8 <g_98>
   14c19:	48 8b 05 d8 a4 00 00 	mov    0xa4d8(%rip),%rax        # 1f0f8 <g_98>
   14c20:	48 83 f8 04          	cmp    $0x4,%rax
   14c24:	7e ad                	jle    14bd3 <func_44+0x3d40>
   14c26:	80 85 35 ef ff ff 01 	addb   $0x1,-0x10cb(%rbp)
   14c2d:	80 bd 35 ef ff ff 02 	cmpb   $0x2,-0x10cb(%rbp)
   14c34:	76 90                	jbe    14bc6 <func_44+0x3d33>
   14c36:	48 8b 05 53 d4 00 00 	mov    0xd453(%rip),%rax        # 22090 <g_192>
   14c3d:	48 8b 00             	mov    (%rax),%rax
   14c40:	48 8d 95 50 f2 ff ff 	lea    -0xdb0(%rbp),%rdx
   14c47:	48 83 c2 14          	add    $0x14,%rdx
   14c4b:	48 89 10             	mov    %rdx,(%rax)
   14c4e:	48 83 ad 68 f0 ff ff 	subq   $0x1,-0xf98(%rbp)
   14c55:	01 
   14c56:	48 8b 05 3b d4 00 00 	mov    0xd43b(%rip),%rax        # 22098 <g_375>
   14c5d:	0f b6 00             	movzbl (%rax),%eax
   14c60:	48 8b 5d c8          	mov    -0x38(%rbp),%rbx
   14c64:	64 48 33 1c 25 28 00 	xor    %fs:0x28,%rbx
   14c6b:	00 00 
   14c6d:	74 05                	je     14c74 <func_44+0x3de1>
   14c6f:	e8 fc 53 ff ff       	callq  a070 <__stack_chk_fail@plt>
   14c74:	48 81 c4 c8 10 00 00 	add    $0x10c8,%rsp
   14c7b:	5b                   	pop    %rbx
   14c7c:	41 5c                	pop    %r12
   14c7e:	41 5d                	pop    %r13
   14c80:	41 5e                	pop    %r14
   14c82:	41 5f                	pop    %r15
   14c84:	5d                   	pop    %rbp
   14c85:	c3                   	retq   

0000000000014c86 <func_56>:
   14c86:	f3 0f 1e fa          	endbr64 
   14c8a:	55                   	push   %rbp
   14c8b:	48 89 e5             	mov    %rsp,%rbp
   14c8e:	41 57                	push   %r15
   14c90:	41 56                	push   %r14
   14c92:	41 55                	push   %r13
   14c94:	41 54                	push   %r12
   14c96:	53                   	push   %rbx
   14c97:	48 81 ec 88 0a 00 00 	sub    $0xa88,%rsp
   14c9e:	48 89 bd 68 f5 ff ff 	mov    %rdi,-0xa98(%rbp)
   14ca5:	64 48 8b 04 25 28 00 	mov    %fs:0x28,%rax
   14cac:	00 00 
   14cae:	48 89 45 c8          	mov    %rax,-0x38(%rbp)
   14cb2:	31 c0                	xor    %eax,%eax
   14cb4:	c7 85 80 f5 ff ff ff 	movl   $0xffffffff,-0xa80(%rbp)
   14cbb:	ff ff ff 
   14cbe:	c7 85 84 f5 ff ff da 	movl   $0x4b3bebda,-0xa7c(%rbp)
   14cc5:	eb 3b 4b 
   14cc8:	c7 85 88 f5 ff ff d7 	movl   $0x41b6add7,-0xa78(%rbp)
   14ccf:	ad b6 41 
   14cd2:	48 8d 05 2f a4 00 00 	lea    0xa42f(%rip),%rax        # 1f108 <g_114>
   14cd9:	48 89 85 c8 f5 ff ff 	mov    %rax,-0xa38(%rbp)
   14ce0:	c7 85 b0 f5 ff ff 76 	movl   $0x9c564776,-0xa50(%rbp)
   14ce7:	47 56 9c 
   14cea:	48 c7 85 d0 f5 ff ff 	movq   $0x0,-0xa30(%rbp)
   14cf1:	00 00 00 00 
   14cf5:	48 c7 85 d8 f5 ff ff 	movq   $0x0,-0xa28(%rbp)
   14cfc:	00 00 00 00 
   14d00:	c6 85 7e f5 ff ff eb 	movb   $0xeb,-0xa82(%rbp)
   14d07:	c7 85 a8 f5 ff ff 00 	movl   $0x0,-0xa58(%rbp)
   14d0e:	00 00 00 
   14d11:	eb 14                	jmp    14d27 <func_56+0xa1>
   14d13:	8b 85 a8 f5 ff ff    	mov    -0xa58(%rbp),%eax
   14d19:	48 98                	cltq   
   14d1b:	c6 44 05 c4 ff       	movb   $0xff,-0x3c(%rbp,%rax,1)
   14d20:	83 85 a8 f5 ff ff 01 	addl   $0x1,-0xa58(%rbp)
   14d27:	83 bd a8 f5 ff ff 03 	cmpl   $0x3,-0xa58(%rbp)
   14d2e:	7e e3                	jle    14d13 <func_56+0x8d>
   14d30:	48 c7 85 68 f5 ff ff 	movq   $0x0,-0xa98(%rbp)
   14d37:	00 00 00 00 
   14d3b:	90                   	nop
   14d3c:	48 8b 85 68 f5 ff ff 	mov    -0xa98(%rbp),%rax
   14d43:	48 83 f8 03          	cmp    $0x3,%rax
   14d47:	77 13                	ja     14d5c <func_56+0xd6>
   14d49:	48 8b 85 68 f5 ff ff 	mov    -0xa98(%rbp),%rax
   14d50:	0f b6 44 05 c4       	movzbl -0x3c(%rbp,%rax,1),%eax
   14d55:	66 98                	cbtw   
   14d57:	e9 68 1a 00 00       	jmpq   167c4 <func_56+0x1b3e>
   14d5c:	90                   	nop
   14d5d:	c7 05 79 a3 00 00 f1 	movl   $0xfffffff1,0xa379(%rip)        # 1f0e0 <g_59>
   14d64:	ff ff ff 
   14d67:	e9 0e 18 00 00       	jmpq   1657a <func_56+0x18f4>
   14d6c:	c7 85 b4 f5 ff ff 6f 	movl   $0x19afca6f,-0xa4c(%rbp)
   14d73:	ca af 19 
   14d76:	c7 85 8c f5 ff ff 00 	movl   $0x0,-0xa74(%rbp)
   14d7d:	00 00 00 
   14d80:	c7 85 90 f5 ff ff d7 	movl   $0xaf71e1d7,-0xa70(%rbp)
   14d87:	e1 71 af 
   14d8a:	c7 85 94 f5 ff ff 8a 	movl   $0xcfb7918a,-0xa6c(%rbp)
   14d91:	91 b7 cf 
   14d94:	c7 85 98 f5 ff ff 4d 	movl   $0x98a20b4d,-0xa68(%rbp)
   14d9b:	0b a2 98 
   14d9e:	48 8d 05 63 a3 00 00 	lea    0xa363(%rip),%rax        # 1f108 <g_114>
   14da5:	48 89 85 50 f7 ff ff 	mov    %rax,-0x8b0(%rbp)
   14dac:	48 8d 05 55 a3 00 00 	lea    0xa355(%rip),%rax        # 1f108 <g_114>
   14db3:	48 89 85 58 f7 ff ff 	mov    %rax,-0x8a8(%rbp)
   14dba:	48 c7 85 60 f7 ff ff 	movq   $0x0,-0x8a0(%rbp)
   14dc1:	00 00 00 00 
   14dc5:	48 8d 05 43 a3 00 00 	lea    0xa343(%rip),%rax        # 1f10f <g_114+0x7>
   14dcc:	48 89 85 68 f7 ff ff 	mov    %rax,-0x898(%rbp)
   14dd3:	48 8d 05 35 a3 00 00 	lea    0xa335(%rip),%rax        # 1f10f <g_114+0x7>
   14dda:	48 89 85 70 f7 ff ff 	mov    %rax,-0x890(%rbp)
   14de1:	48 8d 05 27 a3 00 00 	lea    0xa327(%rip),%rax        # 1f10f <g_114+0x7>
   14de8:	48 89 85 78 f7 ff ff 	mov    %rax,-0x888(%rbp)
   14def:	48 c7 85 80 f7 ff ff 	movq   $0x0,-0x880(%rbp)
   14df6:	00 00 00 00 
   14dfa:	48 8d 05 07 a3 00 00 	lea    0xa307(%rip),%rax        # 1f108 <g_114>
   14e01:	48 89 85 88 f7 ff ff 	mov    %rax,-0x878(%rbp)
   14e08:	48 8d 05 f9 a2 00 00 	lea    0xa2f9(%rip),%rax        # 1f108 <g_114>
   14e0f:	48 89 85 90 f7 ff ff 	mov    %rax,-0x870(%rbp)
   14e16:	48 c7 85 98 f7 ff ff 	movq   $0x0,-0x868(%rbp)
   14e1d:	00 00 00 00 
   14e21:	48 8d 05 e7 a2 00 00 	lea    0xa2e7(%rip),%rax        # 1f10f <g_114+0x7>
   14e28:	48 89 85 a0 f7 ff ff 	mov    %rax,-0x860(%rbp)
   14e2f:	48 8d 05 d9 a2 00 00 	lea    0xa2d9(%rip),%rax        # 1f10f <g_114+0x7>
   14e36:	48 89 85 a8 f7 ff ff 	mov    %rax,-0x858(%rbp)
   14e3d:	48 8d 05 cb a2 00 00 	lea    0xa2cb(%rip),%rax        # 1f10f <g_114+0x7>
   14e44:	48 89 85 b0 f7 ff ff 	mov    %rax,-0x850(%rbp)
   14e4b:	48 c7 85 b8 f7 ff ff 	movq   $0x0,-0x848(%rbp)
   14e52:	00 00 00 00 
   14e56:	48 8d 05 ab a2 00 00 	lea    0xa2ab(%rip),%rax        # 1f108 <g_114>
   14e5d:	48 89 85 c0 f7 ff ff 	mov    %rax,-0x840(%rbp)
   14e64:	48 8d 05 9d a2 00 00 	lea    0xa29d(%rip),%rax        # 1f108 <g_114>
   14e6b:	48 89 85 c8 f7 ff ff 	mov    %rax,-0x838(%rbp)
   14e72:	48 c7 85 d0 f7 ff ff 	movq   $0x0,-0x830(%rbp)
   14e79:	00 00 00 00 
   14e7d:	48 8d 05 8b a2 00 00 	lea    0xa28b(%rip),%rax        # 1f10f <g_114+0x7>
   14e84:	48 89 85 d8 f7 ff ff 	mov    %rax,-0x828(%rbp)
   14e8b:	48 8d 05 f6 d1 00 00 	lea    0xd1f6(%rip),%rax        # 22088 <g_193>
   14e92:	48 89 85 b8 f5 ff ff 	mov    %rax,-0xa48(%rbp)
   14e99:	48 c7 85 e0 f5 ff ff 	movq   $0x0,-0xa20(%rbp)
   14ea0:	00 00 00 00 
   14ea4:	48 8d 05 e5 a2 00 00 	lea    0xa2e5(%rip),%rax        # 1f190 <g_256+0x10>
   14eab:	48 89 85 c0 f5 ff ff 	mov    %rax,-0xa40(%rbp)
   14eb2:	48 8d 85 c0 f5 ff ff 	lea    -0xa40(%rbp),%rax
   14eb9:	48 89 85 e8 f5 ff ff 	mov    %rax,-0xa18(%rbp)
   14ec0:	c7 85 ac f5 ff ff 00 	movl   $0x0,-0xa54(%rbp)
   14ec7:	00 00 00 
   14eca:	eb 1e                	jmp    14eea <func_56+0x264>
   14ecc:	8b 85 ac f5 ff ff    	mov    -0xa54(%rbp),%eax
   14ed2:	48 98                	cltq   
   14ed4:	48 8d 15 35 a2 00 00 	lea    0xa235(%rip),%rdx        # 1f110 <g_117>
   14edb:	48 89 94 c5 88 f6 ff 	mov    %rdx,-0x978(%rbp,%rax,8)
   14ee2:	ff 
   14ee3:	83 85 ac f5 ff ff 01 	addl   $0x1,-0xa54(%rbp)
   14eea:	83 bd ac f5 ff ff 00 	cmpl   $0x0,-0xa54(%rbp)
   14ef1:	7e d9                	jle    14ecc <func_56+0x246>
   14ef3:	c7 85 68 f5 ff ff fc 	movl   $0xfffffffc,-0xa98(%rbp)
   14efa:	ff ff ff 
   14efd:	e9 e1 01 00 00       	jmpq   150e3 <func_56+0x45d>
   14f02:	48 8d 85 80 f5 ff ff 	lea    -0xa80(%rbp),%rax
   14f09:	48 89 85 18 f6 ff ff 	mov    %rax,-0x9e8(%rbp)
   14f10:	48 8d 05 d5 a1 00 00 	lea    0xa1d5(%rip),%rax        # 1f0ec <g_69>
   14f17:	48 89 85 20 f6 ff ff 	mov    %rax,-0x9e0(%rbp)
   14f1e:	48 8d 85 80 f5 ff ff 	lea    -0xa80(%rbp),%rax
   14f25:	48 89 85 28 f6 ff ff 	mov    %rax,-0x9d8(%rbp)
   14f2c:	48 8d 05 b9 a1 00 00 	lea    0xa1b9(%rip),%rax        # 1f0ec <g_69>
   14f33:	48 89 85 30 f6 ff ff 	mov    %rax,-0x9d0(%rbp)
   14f3a:	48 8d 05 a7 a1 00 00 	lea    0xa1a7(%rip),%rax        # 1f0e8 <g_65>
   14f41:	48 89 85 38 f6 ff ff 	mov    %rax,-0x9c8(%rbp)
   14f48:	48 8d 85 84 f5 ff ff 	lea    -0xa7c(%rbp),%rax
   14f4f:	48 89 85 40 f6 ff ff 	mov    %rax,-0x9c0(%rbp)
   14f56:	c7 85 9c f5 ff ff fc 	movl   $0xfffffffc,-0xa64(%rbp)
   14f5d:	ff ff ff 
   14f60:	48 c7 85 48 f6 ff ff 	movq   $0x0,-0x9b8(%rbp)
   14f67:	00 00 00 00 
   14f6b:	48 8d 85 9c f5 ff ff 	lea    -0xa64(%rbp),%rax
   14f72:	48 89 85 50 f6 ff ff 	mov    %rax,-0x9b0(%rbp)
   14f79:	c7 85 a0 f5 ff ff bb 	movl   $0x915d2bb,-0xa60(%rbp)
   14f80:	d2 15 09 
   14f83:	48 8d 85 a0 f5 ff ff 	lea    -0xa60(%rbp),%rax
   14f8a:	48 89 85 58 f6 ff ff 	mov    %rax,-0x9a8(%rbp)
   14f91:	48 8d 85 88 f5 ff ff 	lea    -0xa78(%rbp),%rax
   14f98:	48 89 85 60 f6 ff ff 	mov    %rax,-0x9a0(%rbp)
   14f9f:	48 8d 85 80 f5 ff ff 	lea    -0xa80(%rbp),%rax
   14fa6:	48 89 85 68 f6 ff ff 	mov    %rax,-0x998(%rbp)
   14fad:	48 8d 85 88 f5 ff ff 	lea    -0xa78(%rbp),%rax
   14fb4:	48 89 85 70 f6 ff ff 	mov    %rax,-0x990(%rbp)
   14fbb:	48 8d 05 12 a1 00 00 	lea    0xa112(%rip),%rax        # 1f0d4 <g_11>
   14fc2:	48 89 85 e0 f6 ff ff 	mov    %rax,-0x920(%rbp)
   14fc9:	48 8d 85 80 f5 ff ff 	lea    -0xa80(%rbp),%rax
   14fd0:	48 89 85 e8 f6 ff ff 	mov    %rax,-0x918(%rbp)
   14fd7:	48 8d 05 f6 a0 00 00 	lea    0xa0f6(%rip),%rax        # 1f0d4 <g_11>
   14fde:	48 89 85 f0 f6 ff ff 	mov    %rax,-0x910(%rbp)
   14fe5:	48 8d 05 e8 a0 00 00 	lea    0xa0e8(%rip),%rax        # 1f0d4 <g_11>
   14fec:	48 89 85 f8 f6 ff ff 	mov    %rax,-0x908(%rbp)
   14ff3:	48 8d 85 80 f5 ff ff 	lea    -0xa80(%rbp),%rax
   14ffa:	48 89 85 00 f7 ff ff 	mov    %rax,-0x900(%rbp)
   15001:	48 8d 05 cc a0 00 00 	lea    0xa0cc(%rip),%rax        # 1f0d4 <g_11>
   15008:	48 89 85 08 f7 ff ff 	mov    %rax,-0x8f8(%rbp)
   1500f:	48 8d 05 be a0 00 00 	lea    0xa0be(%rip),%rax        # 1f0d4 <g_11>
   15016:	48 89 85 10 f7 ff ff 	mov    %rax,-0x8f0(%rbp)
   1501d:	48 8d 85 80 f5 ff ff 	lea    -0xa80(%rbp),%rax
   15024:	48 89 85 18 f7 ff ff 	mov    %rax,-0x8e8(%rbp)
   1502b:	48 8d 05 a2 a0 00 00 	lea    0xa0a2(%rip),%rax        # 1f0d4 <g_11>
   15032:	48 89 85 20 f7 ff ff 	mov    %rax,-0x8e0(%rbp)
   15039:	c7 05 a5 a0 00 00 00 	movl   $0x0,0xa0a5(%rip)        # 1f0e8 <g_65>
   15040:	00 00 00 
   15043:	eb 64                	jmp    150a9 <func_56+0x423>
   15045:	48 8d 05 a0 a0 00 00 	lea    0xa0a0(%rip),%rax        # 1f0ec <g_69>
   1504c:	48 89 85 78 f6 ff ff 	mov    %rax,-0x988(%rbp)
   15053:	48 8d 85 e0 f7 ff ff 	lea    -0x820(%rbp),%rax
   1505a:	48 8d 15 df cd 00 00 	lea    0xcddf(%rip),%rdx        # 21e40 <g_2057+0x25c0>
   15061:	b9 48 00 00 00       	mov    $0x48,%ecx
   15066:	48 89 c7             	mov    %rax,%rdi
   15069:	48 89 d6             	mov    %rdx,%rsi
   1506c:	f3 48 a5             	rep movsq %ds:(%rsi),%es:(%rdi)
   1506f:	8b 05 7b a0 00 00    	mov    0xa07b(%rip),%eax        # 1f0f0 <g_74>
   15075:	83 e8 01             	sub    $0x1,%eax
   15078:	89 05 72 a0 00 00    	mov    %eax,0xa072(%rip)        # 1f0f0 <g_74>
   1507e:	48 8b 85 78 f6 ff ff 	mov    -0x988(%rbp),%rax
   15085:	8b 00                	mov    (%rax),%eax
   15087:	85 c0                	test   %eax,%eax
   15089:	75 2b                	jne    150b6 <func_56+0x430>
   1508b:	8b 05 57 a0 00 00    	mov    0xa057(%rip),%eax        # 1f0e8 <g_65>
   15091:	0f b6 c0             	movzbl %al,%eax
   15094:	be 08 00 00 00       	mov    $0x8,%esi
   15099:	89 c7                	mov    %eax,%edi
   1509b:	e8 ba 5a ff ff       	callq  ab5a <safe_add_func_uint8_t_u_u>
   150a0:	0f b6 c0             	movzbl %al,%eax
   150a3:	89 05 3f a0 00 00    	mov    %eax,0xa03f(%rip)        # 1f0e8 <g_65>
   150a9:	8b 05 39 a0 00 00    	mov    0xa039(%rip),%eax        # 1f0e8 <g_65>
   150af:	83 f8 06             	cmp    $0x6,%eax
   150b2:	7f 91                	jg     15045 <func_56+0x3bf>
   150b4:	eb 01                	jmp    150b7 <func_56+0x431>
   150b6:	90                   	nop
   150b7:	0f b7 05 8e e2 00 00 	movzwl 0xe28e(%rip),%eax        # 2334c <g_100>
   150be:	83 c0 01             	add    $0x1,%eax
   150c1:	66 89 05 84 e2 00 00 	mov    %ax,0xe284(%rip)        # 2334c <g_100>
   150c8:	8b 85 68 f5 ff ff    	mov    -0xa98(%rbp),%eax
   150ce:	48 98                	cltq   
   150d0:	be 03 00 00 00       	mov    $0x3,%esi
   150d5:	48 89 c7             	mov    %rax,%rdi
   150d8:	e8 6e 5f ff ff       	callq  b04b <safe_sub_func_uint64_t_u_u>
   150dd:	89 85 68 f5 ff ff    	mov    %eax,-0xa98(%rbp)
   150e3:	8b 85 68 f5 ff ff    	mov    -0xa98(%rbp),%eax
   150e9:	83 f8 e4             	cmp    $0xffffffe4,%eax
   150ec:	0f 85 10 fe ff ff    	jne    14f02 <func_56+0x27c>
   150f2:	0f b6 05 fb 9f 00 00 	movzbl 0x9ffb(%rip),%eax        # 1f0f4 <g_97>
   150f9:	0f be d8             	movsbl %al,%ebx
   150fc:	0f b6 45 c6          	movzbl -0x3a(%rbp),%eax
   15100:	4c 0f be e0          	movsbq %al,%r12
   15104:	8b 85 84 f5 ff ff    	mov    -0xa7c(%rbp),%eax
   1510a:	4c 63 e8             	movslq %eax,%r13
   1510d:	48 8b 85 78 f7 ff ff 	mov    -0x888(%rbp),%rax
   15114:	48 39 85 c8 f5 ff ff 	cmp    %rax,-0xa38(%rbp)
   1511b:	0f 94 c0             	sete   %al
   1511e:	0f b6 c0             	movzbl %al,%eax
   15121:	8b 95 80 f5 ff ff    	mov    -0xa80(%rbp),%edx
   15127:	89 c6                	mov    %eax,%esi
   15129:	89 d7                	mov    %edx,%edi
   1512b:	e8 a0 5d ff ff       	callq  aed0 <safe_sub_func_uint32_t_u_u>
   15130:	89 c0                	mov    %eax,%eax
   15132:	4c 89 ee             	mov    %r13,%rsi
   15135:	48 89 c7             	mov    %rax,%rdi
   15138:	e8 77 58 ff ff       	callq  a9b4 <safe_mod_func_int64_t_s_s>
   1513d:	48 89 05 cc 9f 00 00 	mov    %rax,0x9fcc(%rip)        # 1f110 <g_117>
   15144:	48 8b 15 c5 9f 00 00 	mov    0x9fc5(%rip),%rdx        # 1f110 <g_117>
   1514b:	0f b7 05 fa e1 00 00 	movzwl 0xe1fa(%rip),%eax        # 2334c <g_100>
   15152:	0f b7 c0             	movzwl %ax,%eax
   15155:	48 39 c2             	cmp    %rax,%rdx
   15158:	0f 95 c0             	setne  %al
   1515b:	0f b6 c0             	movzbl %al,%eax
   1515e:	4c 89 e6             	mov    %r12,%rsi
   15161:	48 89 c7             	mov    %rax,%rdi
   15164:	e8 46 5f ff ff       	callq  b0af <safe_div_func_uint64_t_u_u>
   15169:	0f b6 05 84 9f 00 00 	movzbl 0x9f84(%rip),%eax        # 1f0f4 <g_97>
   15170:	66 98                	cbtw   
   15172:	0f b7 c0             	movzwl %ax,%eax
   15175:	89 c6                	mov    %eax,%esi
   15177:	bf 02 00 00 00       	mov    $0x2,%edi
   1517c:	e8 bc 5b ff ff       	callq  ad3d <safe_mul_func_uint16_t_u_u>
   15181:	0f b7 c0             	movzwl %ax,%eax
   15184:	89 de                	mov    %ebx,%esi
   15186:	89 c7                	mov    %eax,%edi
   15188:	e8 2b 5d ff ff       	callq  aeb8 <safe_add_func_uint32_t_u_u>
   1518d:	8b 15 5d 9f 00 00    	mov    0x9f5d(%rip),%edx        # 1f0f0 <g_74>
   15193:	39 d0                	cmp    %edx,%eax
   15195:	0f 84 a4 04 00 00    	je     1563f <func_56+0x9b9>
   1519b:	48 8d 85 80 f5 ff ff 	lea    -0xa80(%rbp),%rax
   151a2:	48 89 85 e0 f7 ff ff 	mov    %rax,-0x820(%rbp)
   151a9:	48 8d 85 8c f5 ff ff 	lea    -0xa74(%rbp),%rax
   151b0:	48 89 85 e8 f7 ff ff 	mov    %rax,-0x818(%rbp)
   151b7:	48 8d 85 80 f5 ff ff 	lea    -0xa80(%rbp),%rax
   151be:	48 89 85 f0 f7 ff ff 	mov    %rax,-0x810(%rbp)
   151c5:	48 8d 85 8c f5 ff ff 	lea    -0xa74(%rbp),%rax
   151cc:	48 89 85 f8 f7 ff ff 	mov    %rax,-0x808(%rbp)
   151d3:	48 8d 85 80 f5 ff ff 	lea    -0xa80(%rbp),%rax
   151da:	48 89 85 00 f8 ff ff 	mov    %rax,-0x800(%rbp)
   151e1:	48 8d 85 8c f5 ff ff 	lea    -0xa74(%rbp),%rax
   151e8:	48 89 85 08 f8 ff ff 	mov    %rax,-0x7f8(%rbp)
   151ef:	48 8d 85 80 f5 ff ff 	lea    -0xa80(%rbp),%rax
   151f6:	48 89 85 10 f8 ff ff 	mov    %rax,-0x7f0(%rbp)
   151fd:	48 8d 85 8c f5 ff ff 	lea    -0xa74(%rbp),%rax
   15204:	48 89 85 18 f8 ff ff 	mov    %rax,-0x7e8(%rbp)
   1520b:	48 8d 85 80 f5 ff ff 	lea    -0xa80(%rbp),%rax
   15212:	48 89 85 20 f8 ff ff 	mov    %rax,-0x7e0(%rbp)
   15219:	48 8d 85 8c f5 ff ff 	lea    -0xa74(%rbp),%rax
   15220:	48 89 85 28 f8 ff ff 	mov    %rax,-0x7d8(%rbp)
   15227:	48 8d 85 94 f5 ff ff 	lea    -0xa6c(%rbp),%rax
   1522e:	48 89 85 30 f8 ff ff 	mov    %rax,-0x7d0(%rbp)
   15235:	48 8d 85 8c f5 ff ff 	lea    -0xa74(%rbp),%rax
   1523c:	48 89 85 38 f8 ff ff 	mov    %rax,-0x7c8(%rbp)
   15243:	48 8d 85 94 f5 ff ff 	lea    -0xa6c(%rbp),%rax
   1524a:	48 89 85 40 f8 ff ff 	mov    %rax,-0x7c0(%rbp)
   15251:	48 8d 85 8c f5 ff ff 	lea    -0xa74(%rbp),%rax
   15258:	48 89 85 48 f8 ff ff 	mov    %rax,-0x7b8(%rbp)
   1525f:	48 8d 85 94 f5 ff ff 	lea    -0xa6c(%rbp),%rax
   15266:	48 89 85 50 f8 ff ff 	mov    %rax,-0x7b0(%rbp)
   1526d:	48 8d 85 8c f5 ff ff 	lea    -0xa74(%rbp),%rax
   15274:	48 89 85 58 f8 ff ff 	mov    %rax,-0x7a8(%rbp)
   1527b:	48 8d 85 94 f5 ff ff 	lea    -0xa6c(%rbp),%rax
   15282:	48 89 85 60 f8 ff ff 	mov    %rax,-0x7a0(%rbp)
   15289:	48 8d 85 8c f5 ff ff 	lea    -0xa74(%rbp),%rax
   15290:	48 89 85 68 f8 ff ff 	mov    %rax,-0x798(%rbp)
   15297:	48 8d 85 94 f5 ff ff 	lea    -0xa6c(%rbp),%rax
   1529e:	48 89 85 70 f8 ff ff 	mov    %rax,-0x790(%rbp)
   152a5:	48 8d 85 8c f5 ff ff 	lea    -0xa74(%rbp),%rax
   152ac:	48 89 85 78 f8 ff ff 	mov    %rax,-0x788(%rbp)
   152b3:	48 8d 85 80 f5 ff ff 	lea    -0xa80(%rbp),%rax
   152ba:	48 89 85 80 f8 ff ff 	mov    %rax,-0x780(%rbp)
   152c1:	48 8d 85 8c f5 ff ff 	lea    -0xa74(%rbp),%rax
   152c8:	48 89 85 88 f8 ff ff 	mov    %rax,-0x778(%rbp)
   152cf:	48 8d 85 80 f5 ff ff 	lea    -0xa80(%rbp),%rax
   152d6:	48 89 85 90 f8 ff ff 	mov    %rax,-0x770(%rbp)
   152dd:	48 8d 85 8c f5 ff ff 	lea    -0xa74(%rbp),%rax
   152e4:	48 89 85 98 f8 ff ff 	mov    %rax,-0x768(%rbp)
   152eb:	48 8d 85 80 f5 ff ff 	lea    -0xa80(%rbp),%rax
   152f2:	48 89 85 a0 f8 ff ff 	mov    %rax,-0x760(%rbp)
   152f9:	48 8d 85 8c f5 ff ff 	lea    -0xa74(%rbp),%rax
   15300:	48 89 85 a8 f8 ff ff 	mov    %rax,-0x758(%rbp)
   15307:	48 8d 85 80 f5 ff ff 	lea    -0xa80(%rbp),%rax
   1530e:	48 89 85 b0 f8 ff ff 	mov    %rax,-0x750(%rbp)
   15315:	48 8d 85 8c f5 ff ff 	lea    -0xa74(%rbp),%rax
   1531c:	48 89 85 b8 f8 ff ff 	mov    %rax,-0x748(%rbp)
   15323:	48 8d 85 80 f5 ff ff 	lea    -0xa80(%rbp),%rax
   1532a:	48 89 85 c0 f8 ff ff 	mov    %rax,-0x740(%rbp)
   15331:	48 8d 85 8c f5 ff ff 	lea    -0xa74(%rbp),%rax
   15338:	48 89 85 c8 f8 ff ff 	mov    %rax,-0x738(%rbp)
   1533f:	48 8d 85 94 f5 ff ff 	lea    -0xa6c(%rbp),%rax
   15346:	48 89 85 d0 f8 ff ff 	mov    %rax,-0x730(%rbp)
   1534d:	48 8d 85 8c f5 ff ff 	lea    -0xa74(%rbp),%rax
   15354:	48 89 85 d8 f8 ff ff 	mov    %rax,-0x728(%rbp)
   1535b:	48 8d 85 94 f5 ff ff 	lea    -0xa6c(%rbp),%rax
   15362:	48 89 85 e0 f8 ff ff 	mov    %rax,-0x720(%rbp)
   15369:	48 8d 85 8c f5 ff ff 	lea    -0xa74(%rbp),%rax
   15370:	48 89 85 e8 f8 ff ff 	mov    %rax,-0x718(%rbp)
   15377:	48 8d 85 94 f5 ff ff 	lea    -0xa6c(%rbp),%rax
   1537e:	48 89 85 f0 f8 ff ff 	mov    %rax,-0x710(%rbp)
   15385:	48 8d 85 8c f5 ff ff 	lea    -0xa74(%rbp),%rax
   1538c:	48 89 85 f8 f8 ff ff 	mov    %rax,-0x708(%rbp)
   15393:	48 8d 85 94 f5 ff ff 	lea    -0xa6c(%rbp),%rax
   1539a:	48 89 85 00 f9 ff ff 	mov    %rax,-0x700(%rbp)
   153a1:	48 8d 85 8c f5 ff ff 	lea    -0xa74(%rbp),%rax
   153a8:	48 89 85 08 f9 ff ff 	mov    %rax,-0x6f8(%rbp)
   153af:	48 8d 85 94 f5 ff ff 	lea    -0xa6c(%rbp),%rax
   153b6:	48 89 85 10 f9 ff ff 	mov    %rax,-0x6f0(%rbp)
   153bd:	48 8d 85 8c f5 ff ff 	lea    -0xa74(%rbp),%rax
   153c4:	48 89 85 18 f9 ff ff 	mov    %rax,-0x6e8(%rbp)
   153cb:	48 8d 85 80 f5 ff ff 	lea    -0xa80(%rbp),%rax
   153d2:	48 89 85 20 f9 ff ff 	mov    %rax,-0x6e0(%rbp)
   153d9:	48 8d 85 8c f5 ff ff 	lea    -0xa74(%rbp),%rax
   153e0:	48 89 85 28 f9 ff ff 	mov    %rax,-0x6d8(%rbp)
   153e7:	48 8d 85 80 f5 ff ff 	lea    -0xa80(%rbp),%rax
   153ee:	48 89 85 30 f9 ff ff 	mov    %rax,-0x6d0(%rbp)
   153f5:	48 8d 85 8c f5 ff ff 	lea    -0xa74(%rbp),%rax
   153fc:	48 89 85 38 f9 ff ff 	mov    %rax,-0x6c8(%rbp)
   15403:	48 8d 85 80 f5 ff ff 	lea    -0xa80(%rbp),%rax
   1540a:	48 89 85 40 f9 ff ff 	mov    %rax,-0x6c0(%rbp)
   15411:	48 8d 85 8c f5 ff ff 	lea    -0xa74(%rbp),%rax
   15418:	48 89 85 48 f9 ff ff 	mov    %rax,-0x6b8(%rbp)
   1541f:	48 8d 85 80 f5 ff ff 	lea    -0xa80(%rbp),%rax
   15426:	48 89 85 50 f9 ff ff 	mov    %rax,-0x6b0(%rbp)
   1542d:	48 8d 85 8c f5 ff ff 	lea    -0xa74(%rbp),%rax
   15434:	48 89 85 58 f9 ff ff 	mov    %rax,-0x6a8(%rbp)
   1543b:	48 8d 85 80 f5 ff ff 	lea    -0xa80(%rbp),%rax
   15442:	48 89 85 60 f9 ff ff 	mov    %rax,-0x6a0(%rbp)
   15449:	48 8d 85 8c f5 ff ff 	lea    -0xa74(%rbp),%rax
   15450:	48 89 85 68 f9 ff ff 	mov    %rax,-0x698(%rbp)
   15457:	48 8d 85 94 f5 ff ff 	lea    -0xa6c(%rbp),%rax
   1545e:	48 89 85 70 f9 ff ff 	mov    %rax,-0x690(%rbp)
   15465:	48 8d 85 8c f5 ff ff 	lea    -0xa74(%rbp),%rax
   1546c:	48 89 85 78 f9 ff ff 	mov    %rax,-0x688(%rbp)
   15473:	48 8d 85 94 f5 ff ff 	lea    -0xa6c(%rbp),%rax
   1547a:	48 89 85 80 f9 ff ff 	mov    %rax,-0x680(%rbp)
   15481:	48 8d 85 8c f5 ff ff 	lea    -0xa74(%rbp),%rax
   15488:	48 89 85 88 f9 ff ff 	mov    %rax,-0x678(%rbp)
   1548f:	48 8d 85 94 f5 ff ff 	lea    -0xa6c(%rbp),%rax
   15496:	48 89 85 90 f9 ff ff 	mov    %rax,-0x670(%rbp)
   1549d:	48 8d 85 8c f5 ff ff 	lea    -0xa74(%rbp),%rax
   154a4:	48 89 85 98 f9 ff ff 	mov    %rax,-0x668(%rbp)
   154ab:	48 8d 85 94 f5 ff ff 	lea    -0xa6c(%rbp),%rax
   154b2:	48 89 85 a0 f9 ff ff 	mov    %rax,-0x660(%rbp)
   154b9:	48 8d 85 8c f5 ff ff 	lea    -0xa74(%rbp),%rax
   154c0:	48 89 85 a8 f9 ff ff 	mov    %rax,-0x658(%rbp)
   154c7:	48 8d 85 94 f5 ff ff 	lea    -0xa6c(%rbp),%rax
   154ce:	48 89 85 b0 f9 ff ff 	mov    %rax,-0x650(%rbp)
   154d5:	48 8d 85 8c f5 ff ff 	lea    -0xa74(%rbp),%rax
   154dc:	48 89 85 b8 f9 ff ff 	mov    %rax,-0x648(%rbp)
   154e3:	48 8d 85 80 f5 ff ff 	lea    -0xa80(%rbp),%rax
   154ea:	48 89 85 c0 f9 ff ff 	mov    %rax,-0x640(%rbp)
   154f1:	48 8d 85 8c f5 ff ff 	lea    -0xa74(%rbp),%rax
   154f8:	48 89 85 c8 f9 ff ff 	mov    %rax,-0x638(%rbp)
   154ff:	48 8d 85 80 f5 ff ff 	lea    -0xa80(%rbp),%rax
   15506:	48 89 85 d0 f9 ff ff 	mov    %rax,-0x630(%rbp)
   1550d:	48 8d 85 8c f5 ff ff 	lea    -0xa74(%rbp),%rax
   15514:	48 89 85 d8 f9 ff ff 	mov    %rax,-0x628(%rbp)
   1551b:	48 8d 85 80 f5 ff ff 	lea    -0xa80(%rbp),%rax
   15522:	48 89 85 e0 f9 ff ff 	mov    %rax,-0x620(%rbp)
   15529:	48 8d 85 8c f5 ff ff 	lea    -0xa74(%rbp),%rax
   15530:	48 89 85 e8 f9 ff ff 	mov    %rax,-0x618(%rbp)
   15537:	48 8d 85 80 f5 ff ff 	lea    -0xa80(%rbp),%rax
   1553e:	48 89 85 f0 f9 ff ff 	mov    %rax,-0x610(%rbp)
   15545:	48 8d 85 8c f5 ff ff 	lea    -0xa74(%rbp),%rax
   1554c:	48 89 85 f8 f9 ff ff 	mov    %rax,-0x608(%rbp)
   15553:	48 8d 85 80 f5 ff ff 	lea    -0xa80(%rbp),%rax
   1555a:	48 89 85 00 fa ff ff 	mov    %rax,-0x600(%rbp)
   15561:	48 8d 85 8c f5 ff ff 	lea    -0xa74(%rbp),%rax
   15568:	48 89 85 08 fa ff ff 	mov    %rax,-0x5f8(%rbp)
   1556f:	48 8d 85 94 f5 ff ff 	lea    -0xa6c(%rbp),%rax
   15576:	48 89 85 10 fa ff ff 	mov    %rax,-0x5f0(%rbp)
   1557d:	48 8d 85 8c f5 ff ff 	lea    -0xa74(%rbp),%rax
   15584:	48 89 85 18 fa ff ff 	mov    %rax,-0x5e8(%rbp)
   1558b:	48 8d 85 94 f5 ff ff 	lea    -0xa6c(%rbp),%rax
   15592:	48 89 85 20 fa ff ff 	mov    %rax,-0x5e0(%rbp)
   15599:	48 8d 85 8c f5 ff ff 	lea    -0xa74(%rbp),%rax
   155a0:	48 89 85 28 fa ff ff 	mov    %rax,-0x5d8(%rbp)
   155a7:	48 8d 85 94 f5 ff ff 	lea    -0xa6c(%rbp),%rax
   155ae:	48 89 85 30 fa ff ff 	mov    %rax,-0x5d0(%rbp)
   155b5:	48 8d 85 8c f5 ff ff 	lea    -0xa74(%rbp),%rax
   155bc:	48 89 85 38 fa ff ff 	mov    %rax,-0x5c8(%rbp)
   155c3:	48 8d 85 94 f5 ff ff 	lea    -0xa6c(%rbp),%rax
   155ca:	48 89 85 40 fa ff ff 	mov    %rax,-0x5c0(%rbp)
   155d1:	48 8d 85 8c f5 ff ff 	lea    -0xa74(%rbp),%rax
   155d8:	48 89 85 48 fa ff ff 	mov    %rax,-0x5b8(%rbp)
   155df:	48 8d 85 94 f5 ff ff 	lea    -0xa6c(%rbp),%rax
   155e6:	48 89 85 50 fa ff ff 	mov    %rax,-0x5b0(%rbp)
   155ed:	48 8d 85 8c f5 ff ff 	lea    -0xa74(%rbp),%rax
   155f4:	48 89 85 58 fa ff ff 	mov    %rax,-0x5a8(%rbp)
   155fb:	0f b6 05 f2 9a 00 00 	movzbl 0x9af2(%rip),%eax        # 1f0f4 <g_97>
   15602:	84 c0                	test   %al,%al
   15604:	0f 85 7f 0f 00 00    	jne    16589 <func_56+0x1903>
   1560a:	c7 85 94 f5 ff ff 05 	movl   $0x5,-0xa6c(%rbp)
   15611:	00 00 00 
   15614:	90                   	nop
   15615:	8b 85 94 f5 ff ff    	mov    -0xa6c(%rbp),%eax
   1561b:	83 f8 01             	cmp    $0x1,%eax
   1561e:	7f 0b                	jg     1562b <func_56+0x9a5>
   15620:	8b 05 ca 9a 00 00    	mov    0x9aca(%rip),%eax        # 1f0f0 <g_74>
   15626:	e9 99 11 00 00       	jmpq   167c4 <func_56+0x1b3e>
   1562b:	8b 05 ef 9a 00 00    	mov    0x9aef(%rip),%eax        # 1f120 <g_122>
   15631:	83 c0 01             	add    $0x1,%eax
   15634:	89 05 e6 9a 00 00    	mov    %eax,0x9ae6(%rip)        # 1f120 <g_122>
   1563a:	e9 1e 0f 00 00       	jmpq   1655d <func_56+0x18d7>
   1563f:	48 8d 85 50 f7 ff ff 	lea    -0x8b0(%rbp),%rax
   15646:	48 83 c0 28          	add    $0x28,%rax
   1564a:	48 89 85 f0 f5 ff ff 	mov    %rax,-0xa10(%rbp)
   15651:	66 c7 85 90 f6 ff ff 	movw   $0xdfee,-0x970(%rbp)
   15658:	ee df 
   1565a:	66 c7 85 92 f6 ff ff 	movw   $0xfffa,-0x96e(%rbp)
   15661:	fa ff 
   15663:	66 c7 85 94 f6 ff ff 	movw   $0xdfee,-0x96c(%rbp)
   1566a:	ee df 
   1566c:	66 c7 85 96 f6 ff ff 	movw   $0xfffa,-0x96a(%rbp)
   15673:	fa ff 
   15675:	66 c7 85 98 f6 ff ff 	movw   $0xdfee,-0x968(%rbp)
   1567c:	ee df 
   1567e:	66 c7 85 9a f6 ff ff 	movw   $0xfffa,-0x966(%rbp)
   15685:	fa ff 
   15687:	66 c7 85 9c f6 ff ff 	movw   $0xdfee,-0x964(%rbp)
   1568e:	ee df 
   15690:	66 c7 85 9e f6 ff ff 	movw   $0xfffa,-0x962(%rbp)
   15697:	fa ff 
   15699:	66 c7 85 a0 f6 ff ff 	movw   $0xdfee,-0x960(%rbp)
   156a0:	ee df 
   156a2:	48 8d 05 df c9 00 00 	lea    0xc9df(%rip),%rax        # 22088 <g_193>
   156a9:	48 89 85 f8 f5 ff ff 	mov    %rax,-0xa08(%rbp)
   156b0:	0f b6 45 c4          	movzbl -0x3c(%rbp),%eax
   156b4:	48 0f be d8          	movsbq %al,%rbx
   156b8:	8b 95 68 f5 ff ff    	mov    -0xa98(%rbp),%edx
   156be:	8b 85 68 f5 ff ff    	mov    -0xa98(%rbp),%eax
   156c4:	89 d6                	mov    %edx,%esi
   156c6:	89 c7                	mov    %eax,%edi
   156c8:	e8 ff 4f ff ff       	callq  a6cc <safe_mod_func_int32_t_s_s>
   156cd:	8b 85 88 f5 ff ff    	mov    -0xa78(%rbp),%eax
   156d3:	44 0f bf e0          	movswl %ax,%r12d
   156d7:	8b 85 90 f5 ff ff    	mov    -0xa70(%rbp),%eax
   156dd:	89 c7                	mov    %eax,%edi
   156df:	e8 51 17 00 00       	callq  16e35 <func_133>
   156e4:	0f b7 c0             	movzwl %ax,%eax
   156e7:	44 89 e6             	mov    %r12d,%esi
   156ea:	89 c7                	mov    %eax,%edi
   156ec:	e8 f9 10 00 00       	callq  167ea <func_130>
   156f1:	48 8b 95 f0 f5 ff ff 	mov    -0xa10(%rbp),%rdx
   156f8:	48 89 02             	mov    %rax,(%rdx)
   156fb:	48 8b 85 f0 f5 ff ff 	mov    -0xa10(%rbp),%rax
   15702:	48 8b 10             	mov    (%rax),%rdx
   15705:	48 8b 05 8c c9 00 00 	mov    0xc98c(%rip),%rax        # 22098 <g_375>
   1570c:	48 39 c2             	cmp    %rax,%rdx
   1570f:	be 96 ca b3 7f       	mov    $0x7fb3ca96,%esi
   15714:	bf 01 00 00 00       	mov    $0x1,%edi
   15719:	e8 ae 4f ff ff       	callq  a6cc <safe_mod_func_int32_t_s_s>
   1571e:	48 98                	cltq   
   15720:	48 89 de             	mov    %rbx,%rsi
   15723:	48 89 c7             	mov    %rax,%rdi
   15726:	e8 cc 52 ff ff       	callq  a9f7 <safe_div_func_int64_t_s_s>
   1572b:	8b 95 98 f5 ff ff    	mov    -0xa68(%rbp),%edx
   15731:	48 63 d2             	movslq %edx,%rdx
   15734:	48 39 d0             	cmp    %rdx,%rax
   15737:	7f 0a                	jg     15743 <func_56+0xabd>
   15739:	8b 85 68 f5 ff ff    	mov    -0xa98(%rbp),%eax
   1573f:	85 c0                	test   %eax,%eax
   15741:	74 07                	je     1574a <func_56+0xac4>
   15743:	b8 01 00 00 00       	mov    $0x1,%eax
   15748:	eb 05                	jmp    1574f <func_56+0xac9>
   1574a:	b8 00 00 00 00       	mov    $0x0,%eax
   1574f:	48 63 d0             	movslq %eax,%rdx
   15752:	48 8b 05 b7 99 00 00 	mov    0x99b7(%rip),%rax        # 1f110 <g_117>
   15759:	48 39 c2             	cmp    %rax,%rdx
   1575c:	72 0b                	jb     15769 <func_56+0xae3>
   1575e:	8b 05 80 9a 00 00    	mov    0x9a80(%rip),%eax        # 1f1e4 <g_260+0x4>
   15764:	e9 5b 10 00 00       	jmpq   167c4 <func_56+0x1b3e>
   15769:	48 8d 85 80 f5 ff ff 	lea    -0xa80(%rbp),%rax
   15770:	48 89 85 00 f6 ff ff 	mov    %rax,-0xa00(%rbp)
   15777:	48 c7 85 08 f6 ff ff 	movq   $0x0,-0x9f8(%rbp)
   1577e:	00 00 00 00 
   15782:	48 8d 85 84 f5 ff ff 	lea    -0xa7c(%rbp),%rax
   15789:	48 89 85 b0 f6 ff ff 	mov    %rax,-0x950(%rbp)
   15790:	48 8d 85 84 f5 ff ff 	lea    -0xa7c(%rbp),%rax
   15797:	48 89 85 b8 f6 ff ff 	mov    %rax,-0x948(%rbp)
   1579e:	48 8d 85 84 f5 ff ff 	lea    -0xa7c(%rbp),%rax
   157a5:	48 89 85 c0 f6 ff ff 	mov    %rax,-0x940(%rbp)
   157ac:	48 8d 85 84 f5 ff ff 	lea    -0xa7c(%rbp),%rax
   157b3:	48 89 85 c8 f6 ff ff 	mov    %rax,-0x938(%rbp)
   157ba:	48 8d 85 84 f5 ff ff 	lea    -0xa7c(%rbp),%rax
   157c1:	48 89 85 d0 f6 ff ff 	mov    %rax,-0x930(%rbp)
   157c8:	48 8d 85 84 f5 ff ff 	lea    -0xa7c(%rbp),%rax
   157cf:	48 89 85 d8 f6 ff ff 	mov    %rax,-0x928(%rbp)
   157d6:	48 c7 85 10 f6 ff ff 	movq   $0x0,-0x9f0(%rbp)
   157dd:	00 00 00 00 
   157e1:	48 8d 85 b8 f5 ff ff 	lea    -0xa48(%rbp),%rax
   157e8:	48 89 85 e0 f7 ff ff 	mov    %rax,-0x820(%rbp)
   157ef:	48 c7 85 e8 f7 ff ff 	movq   $0x0,-0x818(%rbp)
   157f6:	00 00 00 00 
   157fa:	48 8d 05 8f c8 00 00 	lea    0xc88f(%rip),%rax        # 22090 <g_192>
   15801:	48 89 85 f0 f7 ff ff 	mov    %rax,-0x810(%rbp)
   15808:	48 c7 85 f8 f7 ff ff 	movq   $0x0,-0x808(%rbp)
   1580f:	00 00 00 00 
   15813:	48 c7 85 00 f8 ff ff 	movq   $0x0,-0x800(%rbp)
   1581a:	00 00 00 00 
   1581e:	48 8d 05 6b c8 00 00 	lea    0xc86b(%rip),%rax        # 22090 <g_192>
   15825:	48 89 85 08 f8 ff ff 	mov    %rax,-0x7f8(%rbp)
   1582c:	48 c7 85 10 f8 ff ff 	movq   $0x0,-0x7f0(%rbp)
   15833:	00 00 00 00 
   15837:	48 8d 05 52 c8 00 00 	lea    0xc852(%rip),%rax        # 22090 <g_192>
   1583e:	48 89 85 18 f8 ff ff 	mov    %rax,-0x7e8(%rbp)
   15845:	48 c7 85 20 f8 ff ff 	movq   $0x0,-0x7e0(%rbp)
   1584c:	00 00 00 00 
   15850:	48 c7 85 28 f8 ff ff 	movq   $0x0,-0x7d8(%rbp)
   15857:	00 00 00 00 
   1585b:	48 c7 85 30 f8 ff ff 	movq   $0x0,-0x7d0(%rbp)
   15862:	00 00 00 00 
   15866:	48 8d 05 23 c8 00 00 	lea    0xc823(%rip),%rax        # 22090 <g_192>
   1586d:	48 89 85 38 f8 ff ff 	mov    %rax,-0x7c8(%rbp)
   15874:	48 c7 85 40 f8 ff ff 	movq   $0x0,-0x7c0(%rbp)
   1587b:	00 00 00 00 
   1587f:	48 c7 85 48 f8 ff ff 	movq   $0x0,-0x7b8(%rbp)
   15886:	00 00 00 00 
   1588a:	48 c7 85 50 f8 ff ff 	movq   $0x0,-0x7b0(%rbp)
   15891:	00 00 00 00 
   15895:	48 c7 85 58 f8 ff ff 	movq   $0x0,-0x7a8(%rbp)
   1589c:	00 00 00 00 
   158a0:	48 8d 05 e9 c7 00 00 	lea    0xc7e9(%rip),%rax        # 22090 <g_192>
   158a7:	48 89 85 60 f8 ff ff 	mov    %rax,-0x7a0(%rbp)
   158ae:	48 c7 85 68 f8 ff ff 	movq   $0x0,-0x798(%rbp)
   158b5:	00 00 00 00 
   158b9:	48 8d 85 b8 f5 ff ff 	lea    -0xa48(%rbp),%rax
   158c0:	48 89 85 70 f8 ff ff 	mov    %rax,-0x790(%rbp)
   158c7:	48 8d 85 b8 f5 ff ff 	lea    -0xa48(%rbp),%rax
   158ce:	48 89 85 78 f8 ff ff 	mov    %rax,-0x788(%rbp)
   158d5:	48 c7 85 80 f8 ff ff 	movq   $0x0,-0x780(%rbp)
   158dc:	00 00 00 00 
   158e0:	48 8d 05 a9 c7 00 00 	lea    0xc7a9(%rip),%rax        # 22090 <g_192>
   158e7:	48 89 85 88 f8 ff ff 	mov    %rax,-0x778(%rbp)
   158ee:	48 c7 85 90 f8 ff ff 	movq   $0x0,-0x770(%rbp)
   158f5:	00 00 00 00 
   158f9:	48 8d 05 90 c7 00 00 	lea    0xc790(%rip),%rax        # 22090 <g_192>
   15900:	48 89 85 98 f8 ff ff 	mov    %rax,-0x768(%rbp)
   15907:	48 c7 85 a0 f8 ff ff 	movq   $0x0,-0x760(%rbp)
   1590e:	00 00 00 00 
   15912:	48 8d 05 77 c7 00 00 	lea    0xc777(%rip),%rax        # 22090 <g_192>
   15919:	48 89 85 a8 f8 ff ff 	mov    %rax,-0x758(%rbp)
   15920:	48 c7 85 b0 f8 ff ff 	movq   $0x0,-0x750(%rbp)
   15927:	00 00 00 00 
   1592b:	48 8d 05 5e c7 00 00 	lea    0xc75e(%rip),%rax        # 22090 <g_192>
   15932:	48 89 85 b8 f8 ff ff 	mov    %rax,-0x748(%rbp)
   15939:	48 c7 85 c0 f8 ff ff 	movq   $0x0,-0x740(%rbp)
   15940:	00 00 00 00 
   15944:	48 c7 85 c8 f8 ff ff 	movq   $0x0,-0x738(%rbp)
   1594b:	00 00 00 00 
   1594f:	48 c7 85 d0 f8 ff ff 	movq   $0x0,-0x730(%rbp)
   15956:	00 00 00 00 
   1595a:	48 c7 85 d8 f8 ff ff 	movq   $0x0,-0x728(%rbp)
   15961:	00 00 00 00 
   15965:	48 8d 85 b8 f5 ff ff 	lea    -0xa48(%rbp),%rax
   1596c:	48 89 85 e0 f8 ff ff 	mov    %rax,-0x720(%rbp)
   15973:	48 8d 05 16 c7 00 00 	lea    0xc716(%rip),%rax        # 22090 <g_192>
   1597a:	48 89 85 e8 f8 ff ff 	mov    %rax,-0x718(%rbp)
   15981:	48 8d 05 08 c7 00 00 	lea    0xc708(%rip),%rax        # 22090 <g_192>
   15988:	48 89 85 f0 f8 ff ff 	mov    %rax,-0x710(%rbp)
   1598f:	48 8d 05 fa c6 00 00 	lea    0xc6fa(%rip),%rax        # 22090 <g_192>
   15996:	48 89 85 f8 f8 ff ff 	mov    %rax,-0x708(%rbp)
   1599d:	48 c7 85 00 f9 ff ff 	movq   $0x0,-0x700(%rbp)
   159a4:	00 00 00 00 
   159a8:	48 c7 85 08 f9 ff ff 	movq   $0x0,-0x6f8(%rbp)
   159af:	00 00 00 00 
   159b3:	48 c7 85 10 f9 ff ff 	movq   $0x0,-0x6f0(%rbp)
   159ba:	00 00 00 00 
   159be:	48 8d 05 cb c6 00 00 	lea    0xc6cb(%rip),%rax        # 22090 <g_192>
   159c5:	48 89 85 18 f9 ff ff 	mov    %rax,-0x6e8(%rbp)
   159cc:	48 c7 85 20 f9 ff ff 	movq   $0x0,-0x6e0(%rbp)
   159d3:	00 00 00 00 
   159d7:	48 c7 85 28 f9 ff ff 	movq   $0x0,-0x6d8(%rbp)
   159de:	00 00 00 00 
   159e2:	48 8d 85 b8 f5 ff ff 	lea    -0xa48(%rbp),%rax
   159e9:	48 89 85 30 f9 ff ff 	mov    %rax,-0x6d0(%rbp)
   159f0:	48 c7 85 38 f9 ff ff 	movq   $0x0,-0x6c8(%rbp)
   159f7:	00 00 00 00 
   159fb:	48 c7 85 40 f9 ff ff 	movq   $0x0,-0x6c0(%rbp)
   15a02:	00 00 00 00 
   15a06:	48 c7 85 48 f9 ff ff 	movq   $0x0,-0x6b8(%rbp)
   15a0d:	00 00 00 00 
   15a11:	48 c7 85 50 f9 ff ff 	movq   $0x0,-0x6b0(%rbp)
   15a18:	00 00 00 00 
   15a1c:	48 8d 85 b8 f5 ff ff 	lea    -0xa48(%rbp),%rax
   15a23:	48 89 85 58 f9 ff ff 	mov    %rax,-0x6a8(%rbp)
   15a2a:	48 8d 05 5f c6 00 00 	lea    0xc65f(%rip),%rax        # 22090 <g_192>
   15a31:	48 89 85 60 f9 ff ff 	mov    %rax,-0x6a0(%rbp)
   15a38:	48 8d 05 51 c6 00 00 	lea    0xc651(%rip),%rax        # 22090 <g_192>
   15a3f:	48 89 85 68 f9 ff ff 	mov    %rax,-0x698(%rbp)
   15a46:	48 c7 85 70 f9 ff ff 	movq   $0x0,-0x690(%rbp)
   15a4d:	00 00 00 00 
   15a51:	48 8d 05 38 c6 00 00 	lea    0xc638(%rip),%rax        # 22090 <g_192>
   15a58:	48 89 85 78 f9 ff ff 	mov    %rax,-0x688(%rbp)
   15a5f:	48 c7 85 80 f9 ff ff 	movq   $0x0,-0x680(%rbp)
   15a66:	00 00 00 00 
   15a6a:	48 8d 05 1f c6 00 00 	lea    0xc61f(%rip),%rax        # 22090 <g_192>
   15a71:	48 89 85 88 f9 ff ff 	mov    %rax,-0x678(%rbp)
   15a78:	48 c7 85 90 f9 ff ff 	movq   $0x0,-0x670(%rbp)
   15a7f:	00 00 00 00 
   15a83:	48 8d 05 06 c6 00 00 	lea    0xc606(%rip),%rax        # 22090 <g_192>
   15a8a:	48 89 85 98 f9 ff ff 	mov    %rax,-0x668(%rbp)
   15a91:	48 8d 85 b8 f5 ff ff 	lea    -0xa48(%rbp),%rax
   15a98:	48 89 85 a0 f9 ff ff 	mov    %rax,-0x660(%rbp)
   15a9f:	48 c7 85 a8 f9 ff ff 	movq   $0x0,-0x658(%rbp)
   15aa6:	00 00 00 00 
   15aaa:	48 8d 05 df c5 00 00 	lea    0xc5df(%rip),%rax        # 22090 <g_192>
   15ab1:	48 89 85 b0 f9 ff ff 	mov    %rax,-0x650(%rbp)
   15ab8:	48 c7 85 b8 f9 ff ff 	movq   $0x0,-0x648(%rbp)
   15abf:	00 00 00 00 
   15ac3:	48 c7 85 c0 f9 ff ff 	movq   $0x0,-0x640(%rbp)
   15aca:	00 00 00 00 
   15ace:	48 8d 05 bb c5 00 00 	lea    0xc5bb(%rip),%rax        # 22090 <g_192>
   15ad5:	48 89 85 c8 f9 ff ff 	mov    %rax,-0x638(%rbp)
   15adc:	48 c7 85 d0 f9 ff ff 	movq   $0x0,-0x630(%rbp)
   15ae3:	00 00 00 00 
   15ae7:	48 8d 05 a2 c5 00 00 	lea    0xc5a2(%rip),%rax        # 22090 <g_192>
   15aee:	48 89 85 d8 f9 ff ff 	mov    %rax,-0x628(%rbp)
   15af5:	48 c7 85 e0 f9 ff ff 	movq   $0x0,-0x620(%rbp)
   15afc:	00 00 00 00 
   15b00:	48 c7 85 e8 f9 ff ff 	movq   $0x0,-0x618(%rbp)
   15b07:	00 00 00 00 
   15b0b:	48 c7 85 f0 f9 ff ff 	movq   $0x0,-0x610(%rbp)
   15b12:	00 00 00 00 
   15b16:	48 8d 05 73 c5 00 00 	lea    0xc573(%rip),%rax        # 22090 <g_192>
   15b1d:	48 89 85 f8 f9 ff ff 	mov    %rax,-0x608(%rbp)
   15b24:	48 c7 85 00 fa ff ff 	movq   $0x0,-0x600(%rbp)
   15b2b:	00 00 00 00 
   15b2f:	48 c7 85 08 fa ff ff 	movq   $0x0,-0x5f8(%rbp)
   15b36:	00 00 00 00 
   15b3a:	48 c7 85 10 fa ff ff 	movq   $0x0,-0x5f0(%rbp)
   15b41:	00 00 00 00 
   15b45:	48 c7 85 18 fa ff ff 	movq   $0x0,-0x5e8(%rbp)
   15b4c:	00 00 00 00 
   15b50:	48 8d 05 39 c5 00 00 	lea    0xc539(%rip),%rax        # 22090 <g_192>
   15b57:	48 89 85 20 fa ff ff 	mov    %rax,-0x5e0(%rbp)
   15b5e:	48 c7 85 28 fa ff ff 	movq   $0x0,-0x5d8(%rbp)
   15b65:	00 00 00 00 
   15b69:	48 8d 85 b8 f5 ff ff 	lea    -0xa48(%rbp),%rax
   15b70:	48 89 85 30 fa ff ff 	mov    %rax,-0x5d0(%rbp)
   15b77:	48 8d 85 b8 f5 ff ff 	lea    -0xa48(%rbp),%rax
   15b7e:	48 89 85 38 fa ff ff 	mov    %rax,-0x5c8(%rbp)
   15b85:	48 c7 85 40 fa ff ff 	movq   $0x0,-0x5c0(%rbp)
   15b8c:	00 00 00 00 
   15b90:	48 8d 05 f9 c4 00 00 	lea    0xc4f9(%rip),%rax        # 22090 <g_192>
   15b97:	48 89 85 48 fa ff ff 	mov    %rax,-0x5b8(%rbp)
   15b9e:	48 c7 85 50 fa ff ff 	movq   $0x0,-0x5b0(%rbp)
   15ba5:	00 00 00 00 
   15ba9:	48 8d 05 e0 c4 00 00 	lea    0xc4e0(%rip),%rax        # 22090 <g_192>
   15bb0:	48 89 85 58 fa ff ff 	mov    %rax,-0x5a8(%rbp)
   15bb7:	48 c7 85 60 fa ff ff 	movq   $0x0,-0x5a0(%rbp)
   15bbe:	00 00 00 00 
   15bc2:	48 8d 05 c7 c4 00 00 	lea    0xc4c7(%rip),%rax        # 22090 <g_192>
   15bc9:	48 89 85 68 fa ff ff 	mov    %rax,-0x598(%rbp)
   15bd0:	48 c7 85 70 fa ff ff 	movq   $0x0,-0x590(%rbp)
   15bd7:	00 00 00 00 
   15bdb:	48 8d 05 ae c4 00 00 	lea    0xc4ae(%rip),%rax        # 22090 <g_192>
   15be2:	48 89 85 78 fa ff ff 	mov    %rax,-0x588(%rbp)
   15be9:	48 c7 85 80 fa ff ff 	movq   $0x0,-0x580(%rbp)
   15bf0:	00 00 00 00 
   15bf4:	48 c7 85 88 fa ff ff 	movq   $0x0,-0x578(%rbp)
   15bfb:	00 00 00 00 
   15bff:	48 c7 85 90 fa ff ff 	movq   $0x0,-0x570(%rbp)
   15c06:	00 00 00 00 
   15c0a:	48 c7 85 98 fa ff ff 	movq   $0x0,-0x568(%rbp)
   15c11:	00 00 00 00 
   15c15:	48 8d 85 b8 f5 ff ff 	lea    -0xa48(%rbp),%rax
   15c1c:	48 89 85 a0 fa ff ff 	mov    %rax,-0x560(%rbp)
   15c23:	48 8d 05 66 c4 00 00 	lea    0xc466(%rip),%rax        # 22090 <g_192>
   15c2a:	48 89 85 a8 fa ff ff 	mov    %rax,-0x558(%rbp)
   15c31:	48 8d 05 58 c4 00 00 	lea    0xc458(%rip),%rax        # 22090 <g_192>
   15c38:	48 89 85 b0 fa ff ff 	mov    %rax,-0x550(%rbp)
   15c3f:	48 8d 05 4a c4 00 00 	lea    0xc44a(%rip),%rax        # 22090 <g_192>
   15c46:	48 89 85 b8 fa ff ff 	mov    %rax,-0x548(%rbp)
   15c4d:	48 c7 85 c0 fa ff ff 	movq   $0x0,-0x540(%rbp)
   15c54:	00 00 00 00 
   15c58:	48 c7 85 c8 fa ff ff 	movq   $0x0,-0x538(%rbp)
   15c5f:	00 00 00 00 
   15c63:	48 c7 85 d0 fa ff ff 	movq   $0x0,-0x530(%rbp)
   15c6a:	00 00 00 00 
   15c6e:	48 8d 05 1b c4 00 00 	lea    0xc41b(%rip),%rax        # 22090 <g_192>
   15c75:	48 89 85 d8 fa ff ff 	mov    %rax,-0x528(%rbp)
   15c7c:	48 c7 85 e0 fa ff ff 	movq   $0x0,-0x520(%rbp)
   15c83:	00 00 00 00 
   15c87:	48 c7 85 e8 fa ff ff 	movq   $0x0,-0x518(%rbp)
   15c8e:	00 00 00 00 
   15c92:	48 8d 85 b8 f5 ff ff 	lea    -0xa48(%rbp),%rax
   15c99:	48 89 85 f0 fa ff ff 	mov    %rax,-0x510(%rbp)
   15ca0:	48 c7 85 f8 fa ff ff 	movq   $0x0,-0x508(%rbp)
   15ca7:	00 00 00 00 
   15cab:	48 c7 85 00 fb ff ff 	movq   $0x0,-0x500(%rbp)
   15cb2:	00 00 00 00 
   15cb6:	48 c7 85 08 fb ff ff 	movq   $0x0,-0x4f8(%rbp)
   15cbd:	00 00 00 00 
   15cc1:	48 c7 85 10 fb ff ff 	movq   $0x0,-0x4f0(%rbp)
   15cc8:	00 00 00 00 
   15ccc:	48 8d 85 b8 f5 ff ff 	lea    -0xa48(%rbp),%rax
   15cd3:	48 89 85 18 fb ff ff 	mov    %rax,-0x4e8(%rbp)
   15cda:	48 8d 05 af c3 00 00 	lea    0xc3af(%rip),%rax        # 22090 <g_192>
   15ce1:	48 89 85 20 fb ff ff 	mov    %rax,-0x4e0(%rbp)
   15ce8:	48 8d 05 a1 c3 00 00 	lea    0xc3a1(%rip),%rax        # 22090 <g_192>
   15cef:	48 89 85 28 fb ff ff 	mov    %rax,-0x4d8(%rbp)
   15cf6:	48 c7 85 30 fb ff ff 	movq   $0x0,-0x4d0(%rbp)
   15cfd:	00 00 00 00 
   15d01:	48 8d 05 88 c3 00 00 	lea    0xc388(%rip),%rax        # 22090 <g_192>
   15d08:	48 89 85 38 fb ff ff 	mov    %rax,-0x4c8(%rbp)
   15d0f:	48 c7 85 40 fb ff ff 	movq   $0x0,-0x4c0(%rbp)
   15d16:	00 00 00 00 
   15d1a:	48 8d 05 6f c3 00 00 	lea    0xc36f(%rip),%rax        # 22090 <g_192>
   15d21:	48 89 85 48 fb ff ff 	mov    %rax,-0x4b8(%rbp)
   15d28:	48 c7 85 50 fb ff ff 	movq   $0x0,-0x4b0(%rbp)
   15d2f:	00 00 00 00 
   15d33:	48 8d 05 56 c3 00 00 	lea    0xc356(%rip),%rax        # 22090 <g_192>
   15d3a:	48 89 85 58 fb ff ff 	mov    %rax,-0x4a8(%rbp)
   15d41:	48 8d 85 b8 f5 ff ff 	lea    -0xa48(%rbp),%rax
   15d48:	48 89 85 60 fb ff ff 	mov    %rax,-0x4a0(%rbp)
   15d4f:	48 c7 85 68 fb ff ff 	movq   $0x0,-0x498(%rbp)
   15d56:	00 00 00 00 
   15d5a:	48 8d 05 2f c3 00 00 	lea    0xc32f(%rip),%rax        # 22090 <g_192>
   15d61:	48 89 85 70 fb ff ff 	mov    %rax,-0x490(%rbp)
   15d68:	48 c7 85 78 fb ff ff 	movq   $0x0,-0x488(%rbp)
   15d6f:	00 00 00 00 
   15d73:	48 c7 85 80 fb ff ff 	movq   $0x0,-0x480(%rbp)
   15d7a:	00 00 00 00 
   15d7e:	48 8d 05 0b c3 00 00 	lea    0xc30b(%rip),%rax        # 22090 <g_192>
   15d85:	48 89 85 88 fb ff ff 	mov    %rax,-0x478(%rbp)
   15d8c:	48 c7 85 90 fb ff ff 	movq   $0x0,-0x470(%rbp)
   15d93:	00 00 00 00 
   15d97:	48 8d 05 f2 c2 00 00 	lea    0xc2f2(%rip),%rax        # 22090 <g_192>
   15d9e:	48 89 85 98 fb ff ff 	mov    %rax,-0x468(%rbp)
   15da5:	48 c7 85 a0 fb ff ff 	movq   $0x0,-0x460(%rbp)
   15dac:	00 00 00 00 
   15db0:	48 c7 85 a8 fb ff ff 	movq   $0x0,-0x458(%rbp)
   15db7:	00 00 00 00 
   15dbb:	48 c7 85 b0 fb ff ff 	movq   $0x0,-0x450(%rbp)
   15dc2:	00 00 00 00 
   15dc6:	48 8d 05 c3 c2 00 00 	lea    0xc2c3(%rip),%rax        # 22090 <g_192>
   15dcd:	48 89 85 b8 fb ff ff 	mov    %rax,-0x448(%rbp)
   15dd4:	48 c7 85 c0 fb ff ff 	movq   $0x0,-0x440(%rbp)
   15ddb:	00 00 00 00 
   15ddf:	48 c7 85 c8 fb ff ff 	movq   $0x0,-0x438(%rbp)
   15de6:	00 00 00 00 
   15dea:	48 c7 85 d0 fb ff ff 	movq   $0x0,-0x430(%rbp)
   15df1:	00 00 00 00 
   15df5:	48 c7 85 d8 fb ff ff 	movq   $0x0,-0x428(%rbp)
   15dfc:	00 00 00 00 
   15e00:	48 8d 05 89 c2 00 00 	lea    0xc289(%rip),%rax        # 22090 <g_192>
   15e07:	48 89 85 e0 fb ff ff 	mov    %rax,-0x420(%rbp)
   15e0e:	48 c7 85 e8 fb ff ff 	movq   $0x0,-0x418(%rbp)
   15e15:	00 00 00 00 
   15e19:	48 8d 85 b8 f5 ff ff 	lea    -0xa48(%rbp),%rax
   15e20:	48 89 85 f0 fb ff ff 	mov    %rax,-0x410(%rbp)
   15e27:	48 8d 85 b8 f5 ff ff 	lea    -0xa48(%rbp),%rax
   15e2e:	48 89 85 f8 fb ff ff 	mov    %rax,-0x408(%rbp)
   15e35:	48 c7 85 00 fc ff ff 	movq   $0x0,-0x400(%rbp)
   15e3c:	00 00 00 00 
   15e40:	48 8d 05 49 c2 00 00 	lea    0xc249(%rip),%rax        # 22090 <g_192>
   15e47:	48 89 85 08 fc ff ff 	mov    %rax,-0x3f8(%rbp)
   15e4e:	48 c7 85 10 fc ff ff 	movq   $0x0,-0x3f0(%rbp)
   15e55:	00 00 00 00 
   15e59:	48 8d 05 30 c2 00 00 	lea    0xc230(%rip),%rax        # 22090 <g_192>
   15e60:	48 89 85 18 fc ff ff 	mov    %rax,-0x3e8(%rbp)
   15e67:	48 c7 85 20 fc ff ff 	movq   $0x0,-0x3e0(%rbp)
   15e6e:	00 00 00 00 
   15e72:	48 8d 05 17 c2 00 00 	lea    0xc217(%rip),%rax        # 22090 <g_192>
   15e79:	48 89 85 28 fc ff ff 	mov    %rax,-0x3d8(%rbp)
   15e80:	48 c7 85 30 fc ff ff 	movq   $0x0,-0x3d0(%rbp)
   15e87:	00 00 00 00 
   15e8b:	48 8d 05 fe c1 00 00 	lea    0xc1fe(%rip),%rax        # 22090 <g_192>
   15e92:	48 89 85 38 fc ff ff 	mov    %rax,-0x3c8(%rbp)
   15e99:	48 c7 85 40 fc ff ff 	movq   $0x0,-0x3c0(%rbp)
   15ea0:	00 00 00 00 
   15ea4:	48 c7 85 48 fc ff ff 	movq   $0x0,-0x3b8(%rbp)
   15eab:	00 00 00 00 
   15eaf:	48 c7 85 50 fc ff ff 	movq   $0x0,-0x3b0(%rbp)
   15eb6:	00 00 00 00 
   15eba:	48 c7 85 58 fc ff ff 	movq   $0x0,-0x3a8(%rbp)
   15ec1:	00 00 00 00 
   15ec5:	48 8d 85 b8 f5 ff ff 	lea    -0xa48(%rbp),%rax
   15ecc:	48 89 85 60 fc ff ff 	mov    %rax,-0x3a0(%rbp)
   15ed3:	48 8d 05 b6 c1 00 00 	lea    0xc1b6(%rip),%rax        # 22090 <g_192>
   15eda:	48 89 85 68 fc ff ff 	mov    %rax,-0x398(%rbp)
   15ee1:	48 8d 05 a8 c1 00 00 	lea    0xc1a8(%rip),%rax        # 22090 <g_192>
   15ee8:	48 89 85 70 fc ff ff 	mov    %rax,-0x390(%rbp)
   15eef:	48 8d 05 9a c1 00 00 	lea    0xc19a(%rip),%rax        # 22090 <g_192>
   15ef6:	48 89 85 78 fc ff ff 	mov    %rax,-0x388(%rbp)
   15efd:	48 c7 85 80 fc ff ff 	movq   $0x0,-0x380(%rbp)
   15f04:	00 00 00 00 
   15f08:	48 c7 85 88 fc ff ff 	movq   $0x0,-0x378(%rbp)
   15f0f:	00 00 00 00 
   15f13:	48 c7 85 90 fc ff ff 	movq   $0x0,-0x370(%rbp)
   15f1a:	00 00 00 00 
   15f1e:	48 8d 05 6b c1 00 00 	lea    0xc16b(%rip),%rax        # 22090 <g_192>
   15f25:	48 89 85 98 fc ff ff 	mov    %rax,-0x368(%rbp)
   15f2c:	48 c7 85 a0 fc ff ff 	movq   $0x0,-0x360(%rbp)
   15f33:	00 00 00 00 
   15f37:	48 c7 85 a8 fc ff ff 	movq   $0x0,-0x358(%rbp)
   15f3e:	00 00 00 00 
   15f42:	48 8d 85 b8 f5 ff ff 	lea    -0xa48(%rbp),%rax
   15f49:	48 89 85 b0 fc ff ff 	mov    %rax,-0x350(%rbp)
   15f50:	48 c7 85 b8 fc ff ff 	movq   $0x0,-0x348(%rbp)
   15f57:	00 00 00 00 
   15f5b:	48 c7 85 c0 fc ff ff 	movq   $0x0,-0x340(%rbp)
   15f62:	00 00 00 00 
   15f66:	48 c7 85 c8 fc ff ff 	movq   $0x0,-0x338(%rbp)
   15f6d:	00 00 00 00 
   15f71:	48 c7 85 d0 fc ff ff 	movq   $0x0,-0x330(%rbp)
   15f78:	00 00 00 00 
   15f7c:	48 8d 85 b8 f5 ff ff 	lea    -0xa48(%rbp),%rax
   15f83:	48 89 85 d8 fc ff ff 	mov    %rax,-0x328(%rbp)
   15f8a:	48 8d 05 ff c0 00 00 	lea    0xc0ff(%rip),%rax        # 22090 <g_192>
   15f91:	48 89 85 e0 fc ff ff 	mov    %rax,-0x320(%rbp)
   15f98:	48 8d 05 f1 c0 00 00 	lea    0xc0f1(%rip),%rax        # 22090 <g_192>
   15f9f:	48 89 85 e8 fc ff ff 	mov    %rax,-0x318(%rbp)
   15fa6:	48 c7 85 f0 fc ff ff 	movq   $0x0,-0x310(%rbp)
   15fad:	00 00 00 00 
   15fb1:	48 8d 05 d8 c0 00 00 	lea    0xc0d8(%rip),%rax        # 22090 <g_192>
   15fb8:	48 89 85 f8 fc ff ff 	mov    %rax,-0x308(%rbp)
   15fbf:	48 c7 85 00 fd ff ff 	movq   $0x0,-0x300(%rbp)
   15fc6:	00 00 00 00 
   15fca:	48 8d 05 bf c0 00 00 	lea    0xc0bf(%rip),%rax        # 22090 <g_192>
   15fd1:	48 89 85 08 fd ff ff 	mov    %rax,-0x2f8(%rbp)
   15fd8:	48 c7 85 10 fd ff ff 	movq   $0x0,-0x2f0(%rbp)
   15fdf:	00 00 00 00 
   15fe3:	48 8d 05 a6 c0 00 00 	lea    0xc0a6(%rip),%rax        # 22090 <g_192>
   15fea:	48 89 85 18 fd ff ff 	mov    %rax,-0x2e8(%rbp)
   15ff1:	48 8d 85 b8 f5 ff ff 	lea    -0xa48(%rbp),%rax
   15ff8:	48 89 85 20 fd ff ff 	mov    %rax,-0x2e0(%rbp)
   15fff:	48 c7 85 28 fd ff ff 	movq   $0x0,-0x2d8(%rbp)
   16006:	00 00 00 00 
   1600a:	48 8d 05 7f c0 00 00 	lea    0xc07f(%rip),%rax        # 22090 <g_192>
   16011:	48 89 85 30 fd ff ff 	mov    %rax,-0x2d0(%rbp)
   16018:	48 c7 85 38 fd ff ff 	movq   $0x0,-0x2c8(%rbp)
   1601f:	00 00 00 00 
   16023:	48 c7 85 40 fd ff ff 	movq   $0x0,-0x2c0(%rbp)
   1602a:	00 00 00 00 
   1602e:	48 8d 05 5b c0 00 00 	lea    0xc05b(%rip),%rax        # 22090 <g_192>
   16035:	48 89 85 48 fd ff ff 	mov    %rax,-0x2b8(%rbp)
   1603c:	48 c7 85 50 fd ff ff 	movq   $0x0,-0x2b0(%rbp)
   16043:	00 00 00 00 
   16047:	48 8d 05 42 c0 00 00 	lea    0xc042(%rip),%rax        # 22090 <g_192>
   1604e:	48 89 85 58 fd ff ff 	mov    %rax,-0x2a8(%rbp)
   16055:	48 c7 85 60 fd ff ff 	movq   $0x0,-0x2a0(%rbp)
   1605c:	00 00 00 00 
   16060:	48 c7 85 68 fd ff ff 	movq   $0x0,-0x298(%rbp)
   16067:	00 00 00 00 
   1606b:	48 c7 85 70 fd ff ff 	movq   $0x0,-0x290(%rbp)
   16072:	00 00 00 00 
   16076:	48 8d 05 13 c0 00 00 	lea    0xc013(%rip),%rax        # 22090 <g_192>
   1607d:	48 89 85 78 fd ff ff 	mov    %rax,-0x288(%rbp)
   16084:	48 c7 85 80 fd ff ff 	movq   $0x0,-0x280(%rbp)
   1608b:	00 00 00 00 
   1608f:	48 c7 85 88 fd ff ff 	movq   $0x0,-0x278(%rbp)
   16096:	00 00 00 00 
   1609a:	48 c7 85 90 fd ff ff 	movq   $0x0,-0x270(%rbp)
   160a1:	00 00 00 00 
   160a5:	48 c7 85 98 fd ff ff 	movq   $0x0,-0x268(%rbp)
   160ac:	00 00 00 00 
   160b0:	48 8d 05 d9 bf 00 00 	lea    0xbfd9(%rip),%rax        # 22090 <g_192>
   160b7:	48 89 85 a0 fd ff ff 	mov    %rax,-0x260(%rbp)
   160be:	48 c7 85 a8 fd ff ff 	movq   $0x0,-0x258(%rbp)
   160c5:	00 00 00 00 
   160c9:	48 8d 85 b8 f5 ff ff 	lea    -0xa48(%rbp),%rax
   160d0:	48 89 85 b0 fd ff ff 	mov    %rax,-0x250(%rbp)
   160d7:	48 8d 85 b8 f5 ff ff 	lea    -0xa48(%rbp),%rax
   160de:	48 89 85 b8 fd ff ff 	mov    %rax,-0x248(%rbp)
   160e5:	48 c7 85 c0 fd ff ff 	movq   $0x0,-0x240(%rbp)
   160ec:	00 00 00 00 
   160f0:	48 8d 05 99 bf 00 00 	lea    0xbf99(%rip),%rax        # 22090 <g_192>
   160f7:	48 89 85 c8 fd ff ff 	mov    %rax,-0x238(%rbp)
   160fe:	48 c7 85 d0 fd ff ff 	movq   $0x0,-0x230(%rbp)
   16105:	00 00 00 00 
   16109:	48 8d 05 80 bf 00 00 	lea    0xbf80(%rip),%rax        # 22090 <g_192>
   16110:	48 89 85 d8 fd ff ff 	mov    %rax,-0x228(%rbp)
   16117:	48 c7 85 e0 fd ff ff 	movq   $0x0,-0x220(%rbp)
   1611e:	00 00 00 00 
   16122:	48 8d 05 67 bf 00 00 	lea    0xbf67(%rip),%rax        # 22090 <g_192>
   16129:	48 89 85 e8 fd ff ff 	mov    %rax,-0x218(%rbp)
   16130:	48 c7 85 f0 fd ff ff 	movq   $0x0,-0x210(%rbp)
   16137:	00 00 00 00 
   1613b:	48 8d 05 4e bf 00 00 	lea    0xbf4e(%rip),%rax        # 22090 <g_192>
   16142:	48 89 85 f8 fd ff ff 	mov    %rax,-0x208(%rbp)
   16149:	48 c7 85 00 fe ff ff 	movq   $0x0,-0x200(%rbp)
   16150:	00 00 00 00 
   16154:	48 c7 85 08 fe ff ff 	movq   $0x0,-0x1f8(%rbp)
   1615b:	00 00 00 00 
   1615f:	48 c7 85 10 fe ff ff 	movq   $0x0,-0x1f0(%rbp)
   16166:	00 00 00 00 
   1616a:	48 c7 85 18 fe ff ff 	movq   $0x0,-0x1e8(%rbp)
   16171:	00 00 00 00 
   16175:	48 8d 85 b8 f5 ff ff 	lea    -0xa48(%rbp),%rax
   1617c:	48 89 85 20 fe ff ff 	mov    %rax,-0x1e0(%rbp)
   16183:	48 8d 05 06 bf 00 00 	lea    0xbf06(%rip),%rax        # 22090 <g_192>
   1618a:	48 89 85 28 fe ff ff 	mov    %rax,-0x1d8(%rbp)
   16191:	48 8d 05 f8 be 00 00 	lea    0xbef8(%rip),%rax        # 22090 <g_192>
   16198:	48 89 85 30 fe ff ff 	mov    %rax,-0x1d0(%rbp)
   1619f:	48 8d 05 ea be 00 00 	lea    0xbeea(%rip),%rax        # 22090 <g_192>
   161a6:	48 89 85 38 fe ff ff 	mov    %rax,-0x1c8(%rbp)
   161ad:	48 c7 85 40 fe ff ff 	movq   $0x0,-0x1c0(%rbp)
   161b4:	00 00 00 00 
   161b8:	48 c7 85 48 fe ff ff 	movq   $0x0,-0x1b8(%rbp)
   161bf:	00 00 00 00 
   161c3:	48 c7 85 50 fe ff ff 	movq   $0x0,-0x1b0(%rbp)
   161ca:	00 00 00 00 
   161ce:	48 8d 05 bb be 00 00 	lea    0xbebb(%rip),%rax        # 22090 <g_192>
   161d5:	48 89 85 58 fe ff ff 	mov    %rax,-0x1a8(%rbp)
   161dc:	48 c7 85 60 fe ff ff 	movq   $0x0,-0x1a0(%rbp)
   161e3:	00 00 00 00 
   161e7:	48 c7 85 68 fe ff ff 	movq   $0x0,-0x198(%rbp)
   161ee:	00 00 00 00 
   161f2:	48 8d 85 b8 f5 ff ff 	lea    -0xa48(%rbp),%rax
   161f9:	48 89 85 70 fe ff ff 	mov    %rax,-0x190(%rbp)
   16200:	48 c7 85 78 fe ff ff 	movq   $0x0,-0x188(%rbp)
   16207:	00 00 00 00 
   1620b:	48 c7 85 80 fe ff ff 	movq   $0x0,-0x180(%rbp)
   16212:	00 00 00 00 
   16216:	48 c7 85 88 fe ff ff 	movq   $0x0,-0x178(%rbp)
   1621d:	00 00 00 00 
   16221:	48 c7 85 90 fe ff ff 	movq   $0x0,-0x170(%rbp)
   16228:	00 00 00 00 
   1622c:	48 8d 85 b8 f5 ff ff 	lea    -0xa48(%rbp),%rax
   16233:	48 89 85 98 fe ff ff 	mov    %rax,-0x168(%rbp)
   1623a:	48 8d 05 4f be 00 00 	lea    0xbe4f(%rip),%rax        # 22090 <g_192>
   16241:	48 89 85 a0 fe ff ff 	mov    %rax,-0x160(%rbp)
   16248:	48 8d 05 41 be 00 00 	lea    0xbe41(%rip),%rax        # 22090 <g_192>
   1624f:	48 89 85 a8 fe ff ff 	mov    %rax,-0x158(%rbp)
   16256:	48 c7 85 b0 fe ff ff 	movq   $0x0,-0x150(%rbp)
   1625d:	00 00 00 00 
   16261:	48 8d 05 28 be 00 00 	lea    0xbe28(%rip),%rax        # 22090 <g_192>
   16268:	48 89 85 b8 fe ff ff 	mov    %rax,-0x148(%rbp)
   1626f:	48 c7 85 c0 fe ff ff 	movq   $0x0,-0x140(%rbp)
   16276:	00 00 00 00 
   1627a:	48 8d 05 0f be 00 00 	lea    0xbe0f(%rip),%rax        # 22090 <g_192>
   16281:	48 89 85 c8 fe ff ff 	mov    %rax,-0x138(%rbp)
   16288:	48 c7 85 d0 fe ff ff 	movq   $0x0,-0x130(%rbp)
   1628f:	00 00 00 00 
   16293:	48 8d 05 f6 bd 00 00 	lea    0xbdf6(%rip),%rax        # 22090 <g_192>
   1629a:	48 89 85 d8 fe ff ff 	mov    %rax,-0x128(%rbp)
   162a1:	48 8d 85 b8 f5 ff ff 	lea    -0xa48(%rbp),%rax
   162a8:	48 89 85 e0 fe ff ff 	mov    %rax,-0x120(%rbp)
   162af:	48 c7 85 e8 fe ff ff 	movq   $0x0,-0x118(%rbp)
   162b6:	00 00 00 00 
   162ba:	48 8d 05 cf bd 00 00 	lea    0xbdcf(%rip),%rax        # 22090 <g_192>
   162c1:	48 89 85 f0 fe ff ff 	mov    %rax,-0x110(%rbp)
   162c8:	48 c7 85 f8 fe ff ff 	movq   $0x0,-0x108(%rbp)
   162cf:	00 00 00 00 
   162d3:	48 c7 85 00 ff ff ff 	movq   $0x0,-0x100(%rbp)
   162da:	00 00 00 00 
   162de:	48 8d 05 ab bd 00 00 	lea    0xbdab(%rip),%rax        # 22090 <g_192>
   162e5:	48 89 85 08 ff ff ff 	mov    %rax,-0xf8(%rbp)
   162ec:	48 c7 85 10 ff ff ff 	movq   $0x0,-0xf0(%rbp)
   162f3:	00 00 00 00 
   162f7:	48 8d 05 92 bd 00 00 	lea    0xbd92(%rip),%rax        # 22090 <g_192>
   162fe:	48 89 85 18 ff ff ff 	mov    %rax,-0xe8(%rbp)
   16305:	48 c7 85 20 ff ff ff 	movq   $0x0,-0xe0(%rbp)
   1630c:	00 00 00 00 
   16310:	48 c7 85 28 ff ff ff 	movq   $0x0,-0xd8(%rbp)
   16317:	00 00 00 00 
   1631b:	48 c7 85 30 ff ff ff 	movq   $0x0,-0xd0(%rbp)
   16322:	00 00 00 00 
   16326:	48 8d 05 63 bd 00 00 	lea    0xbd63(%rip),%rax        # 22090 <g_192>
   1632d:	48 89 85 38 ff ff ff 	mov    %rax,-0xc8(%rbp)
   16334:	48 c7 85 40 ff ff ff 	movq   $0x0,-0xc0(%rbp)
   1633b:	00 00 00 00 
   1633f:	48 c7 85 48 ff ff ff 	movq   $0x0,-0xb8(%rbp)
   16346:	00 00 00 00 
   1634a:	48 c7 85 50 ff ff ff 	movq   $0x0,-0xb0(%rbp)
   16351:	00 00 00 00 
   16355:	48 c7 85 58 ff ff ff 	movq   $0x0,-0xa8(%rbp)
   1635c:	00 00 00 00 
   16360:	48 8d 05 29 bd 00 00 	lea    0xbd29(%rip),%rax        # 22090 <g_192>
   16367:	48 89 85 60 ff ff ff 	mov    %rax,-0xa0(%rbp)
   1636e:	48 c7 85 68 ff ff ff 	movq   $0x0,-0x98(%rbp)
   16375:	00 00 00 00 
   16379:	48 8d 85 b8 f5 ff ff 	lea    -0xa48(%rbp),%rax
   16380:	48 89 85 70 ff ff ff 	mov    %rax,-0x90(%rbp)
   16387:	48 8d 85 b8 f5 ff ff 	lea    -0xa48(%rbp),%rax
   1638e:	48 89 85 78 ff ff ff 	mov    %rax,-0x88(%rbp)
   16395:	48 c7 45 80 00 00 00 	movq   $0x0,-0x80(%rbp)
   1639c:	00 
   1639d:	48 8d 05 ec bc 00 00 	lea    0xbcec(%rip),%rax        # 22090 <g_192>
   163a4:	48 89 45 88          	mov    %rax,-0x78(%rbp)
   163a8:	48 c7 45 90 00 00 00 	movq   $0x0,-0x70(%rbp)
   163af:	00 
   163b0:	48 8d 05 d9 bc 00 00 	lea    0xbcd9(%rip),%rax        # 22090 <g_192>
   163b7:	48 89 45 98          	mov    %rax,-0x68(%rbp)
   163bb:	48 c7 45 a0 00 00 00 	movq   $0x0,-0x60(%rbp)
   163c2:	00 
   163c3:	48 8d 05 c6 bc 00 00 	lea    0xbcc6(%rip),%rax        # 22090 <g_192>
   163ca:	48 89 45 a8          	mov    %rax,-0x58(%rbp)
   163ce:	48 c7 45 b0 00 00 00 	movq   $0x0,-0x50(%rbp)
   163d5:	00 
   163d6:	48 8d 05 b3 bc 00 00 	lea    0xbcb3(%rip),%rax        # 22090 <g_192>
   163dd:	48 89 45 b8          	mov    %rax,-0x48(%rbp)
   163e1:	48 8d 05 10 8d 00 00 	lea    0x8d10(%rip),%rax        # 1f0f8 <g_98>
   163e8:	48 89 85 e0 f6 ff ff 	mov    %rax,-0x920(%rbp)
   163ef:	48 8d 05 02 8d 00 00 	lea    0x8d02(%rip),%rax        # 1f0f8 <g_98>
   163f6:	48 89 85 e8 f6 ff ff 	mov    %rax,-0x918(%rbp)
   163fd:	48 8d 05 f4 8c 00 00 	lea    0x8cf4(%rip),%rax        # 1f0f8 <g_98>
   16404:	48 89 85 f0 f6 ff ff 	mov    %rax,-0x910(%rbp)
   1640b:	48 8d 05 e6 8c 00 00 	lea    0x8ce6(%rip),%rax        # 1f0f8 <g_98>
   16412:	48 89 85 f8 f6 ff ff 	mov    %rax,-0x908(%rbp)
   16419:	48 8d 05 d8 8c 00 00 	lea    0x8cd8(%rip),%rax        # 1f0f8 <g_98>
   16420:	48 89 85 00 f7 ff ff 	mov    %rax,-0x900(%rbp)
   16427:	48 8d 05 ca 8c 00 00 	lea    0x8cca(%rip),%rax        # 1f0f8 <g_98>
   1642e:	48 89 85 08 f7 ff ff 	mov    %rax,-0x8f8(%rbp)
   16435:	48 8d 05 bc 8c 00 00 	lea    0x8cbc(%rip),%rax        # 1f0f8 <g_98>
   1643c:	48 89 85 10 f7 ff ff 	mov    %rax,-0x8f0(%rbp)
   16443:	48 8d 05 ae 8c 00 00 	lea    0x8cae(%rip),%rax        # 1f0f8 <g_98>
   1644a:	48 89 85 18 f7 ff ff 	mov    %rax,-0x8e8(%rbp)
   16451:	48 8d 05 a0 8c 00 00 	lea    0x8ca0(%rip),%rax        # 1f0f8 <g_98>
   16458:	48 89 85 20 f7 ff ff 	mov    %rax,-0x8e0(%rbp)
   1645f:	48 8d 05 92 8c 00 00 	lea    0x8c92(%rip),%rax        # 1f0f8 <g_98>
   16466:	48 89 85 28 f7 ff ff 	mov    %rax,-0x8d8(%rbp)
   1646d:	48 8d 05 84 8c 00 00 	lea    0x8c84(%rip),%rax        # 1f0f8 <g_98>
   16474:	48 89 85 30 f7 ff ff 	mov    %rax,-0x8d0(%rbp)
   1647b:	48 8d 05 76 8c 00 00 	lea    0x8c76(%rip),%rax        # 1f0f8 <g_98>
   16482:	48 89 85 38 f7 ff ff 	mov    %rax,-0x8c8(%rbp)
   16489:	48 8d 05 68 8c 00 00 	lea    0x8c68(%rip),%rax        # 1f0f8 <g_98>
   16490:	48 89 85 40 f7 ff ff 	mov    %rax,-0x8c0(%rbp)
   16497:	48 8d 05 5a 8c 00 00 	lea    0x8c5a(%rip),%rax        # 1f0f8 <g_98>
   1649e:	48 89 85 48 f7 ff ff 	mov    %rax,-0x8b8(%rbp)
   164a5:	0f b6 05 6e 8d 00 00 	movzbl 0x8d6e(%rip),%eax        # 1f21a <g_381>
   164ac:	83 e8 01             	sub    $0x1,%eax
   164af:	88 05 65 8d 00 00    	mov    %al,0x8d65(%rip)        # 1f21a <g_381>
   164b5:	48 8b 85 b8 f5 ff ff 	mov    -0xa48(%rbp),%rax
   164bc:	48 89 85 b8 f5 ff ff 	mov    %rax,-0xa48(%rbp)
   164c3:	48 8b 85 b8 f5 ff ff 	mov    -0xa48(%rbp),%rax
   164ca:	48 89 85 f8 f5 ff ff 	mov    %rax,-0xa08(%rbp)
   164d1:	48 83 bd f8 f5 ff ff 	cmpq   $0x0,-0xa08(%rbp)
   164d8:	00 
   164d9:	0f 95 c0             	setne  %al
   164dc:	0f b6 d0             	movzbl %al,%edx
   164df:	8b 05 23 8d 00 00    	mov    0x8d23(%rip),%eax        # 1f208 <g_263>
   164e5:	39 c2                	cmp    %eax,%edx
   164e7:	75 07                	jne    164f0 <func_56+0x186a>
   164e9:	b8 2a 07 00 00       	mov    $0x72a,%eax
   164ee:	eb 05                	jmp    164f5 <func_56+0x186f>
   164f0:	b8 2b 07 00 00       	mov    $0x72b,%eax
   164f5:	be 06 00 00 00       	mov    $0x6,%esi
   164fa:	89 c7                	mov    %eax,%edi
   164fc:	e8 79 49 ff ff       	callq  ae7a <safe_rshift_func_uint16_t_u_u>
   16501:	0f be d0             	movsbl %al,%edx
   16504:	8b 85 84 f5 ff ff    	mov    -0xa7c(%rbp),%eax
   1650a:	0f be c0             	movsbl %al,%eax
   1650d:	89 d6                	mov    %edx,%esi
   1650f:	89 c7                	mov    %eax,%edi
   16511:	e8 dc 3c ff ff       	callq  a1f2 <safe_sub_func_int8_t_s_s>
   16516:	0f be c0             	movsbl %al,%eax
   16519:	31 85 b0 f5 ff ff    	xor    %eax,-0xa50(%rbp)
   1651f:	8b 85 b0 f5 ff ff    	mov    -0xa50(%rbp),%eax
   16525:	48 63 d0             	movslq %eax,%rdx
   16528:	48 8b 85 90 f7 ff ff 	mov    -0x870(%rbp),%rax
   1652f:	48 39 85 c8 f5 ff ff 	cmp    %rax,-0xa38(%rbp)
   16536:	0f 94 c0             	sete   %al
   16539:	0f b6 c0             	movzbl %al,%eax
   1653c:	48 89 d6             	mov    %rdx,%rsi
   1653f:	48 89 c7             	mov    %rax,%rdi
   16542:	e8 39 4b ff ff       	callq  b080 <safe_mod_func_uint64_t_u_u>
   16547:	89 c2                	mov    %eax,%edx
   16549:	48 8b 85 00 f6 ff ff 	mov    -0xa00(%rbp),%rax
   16550:	89 10                	mov    %edx,(%rax)
   16552:	8b 85 68 f5 ff ff    	mov    -0xa98(%rbp),%eax
   16558:	e9 67 02 00 00       	jmpq   167c4 <func_56+0x1b3e>
   1655d:	48 8b 85 e8 f5 ff ff 	mov    -0xa18(%rbp),%rax
   16564:	48 c7 00 00 00 00 00 	movq   $0x0,(%rax)
   1656b:	8b 05 6f 8b 00 00    	mov    0x8b6f(%rip),%eax        # 1f0e0 <g_59>
   16571:	83 c0 01             	add    $0x1,%eax
   16574:	89 05 66 8b 00 00    	mov    %eax,0x8b66(%rip)        # 1f0e0 <g_59>
   1657a:	8b 05 60 8b 00 00    	mov    0x8b60(%rip),%eax        # 1f0e0 <g_59>
   16580:	83 f8 10             	cmp    $0x10,%eax
   16583:	0f 85 e3 e7 ff ff    	jne    14d6c <func_56+0xe6>
   16589:	66 c7 05 e6 8b 00 00 	movw   $0x0,0x8be6(%rip)        # 1f178 <g_229>
   16590:	00 00 
   16592:	e9 15 02 00 00       	jmpq   167ac <func_56+0x1b26>
   16597:	48 c7 85 80 f6 ff ff 	movq   $0x0,-0x980(%rbp)
   1659e:	00 00 00 00 
   165a2:	c6 85 7f f5 ff ff 9b 	movb   $0x9b,-0xa81(%rbp)
   165a9:	c7 85 a4 f5 ff ff 00 	movl   $0x0,-0xa5c(%rbp)
   165b0:	00 00 00 
   165b3:	eb 1e                	jmp    165d3 <func_56+0x194d>
   165b5:	8b 85 a4 f5 ff ff    	mov    -0xa5c(%rbp),%eax
   165bb:	48 98                	cltq   
   165bd:	48 8d 15 28 8b 00 00 	lea    0x8b28(%rip),%rdx        # 1f0ec <g_69>
   165c4:	48 89 94 c5 e0 f7 ff 	mov    %rdx,-0x820(%rbp,%rax,8)
   165cb:	ff 
   165cc:	83 85 a4 f5 ff ff 01 	addl   $0x1,-0xa5c(%rbp)
   165d3:	83 bd a4 f5 ff ff 05 	cmpl   $0x5,-0xa5c(%rbp)
   165da:	7e d9                	jle    165b5 <func_56+0x192f>
   165dc:	8b 85 68 f5 ff ff    	mov    -0xa98(%rbp),%eax
   165e2:	0f bf d8             	movswl %ax,%ebx
   165e5:	8b 05 35 8b 00 00    	mov    0x8b35(%rip),%eax        # 1f120 <g_122>
   165eb:	44 0f bf e0          	movswl %ax,%r12d
   165ef:	8b 15 ab 5a 00 00    	mov    0x5aab(%rip),%edx        # 1c0a0 <l_405.5081>
   165f5:	48 83 bd d0 f5 ff ff 	cmpq   $0x0,-0xa30(%rbp)
   165fc:	00 
   165fd:	0f 95 c0             	setne  %al
   16600:	0f b6 c0             	movzbl %al,%eax
   16603:	39 c2                	cmp    %eax,%edx
   16605:	0f 86 12 01 00 00    	jbe    1671d <func_56+0x1a97>
   1660b:	48 8b 85 d8 f5 ff ff 	mov    -0xa28(%rbp),%rax
   16612:	48 3b 85 80 f6 ff ff 	cmp    -0x980(%rbp),%rax
   16619:	0f 95 85 67 f5 ff ff 	setne  -0xa99(%rbp)
   16620:	8b 85 68 f5 ff ff    	mov    -0xa98(%rbp),%eax
   16626:	41 89 c7             	mov    %eax,%r15d
   16629:	8b 05 ed 8b 00 00    	mov    0x8bed(%rip),%eax        # 1f21c <g_426>
   1662f:	89 85 60 f5 ff ff    	mov    %eax,-0xaa0(%rbp)
   16635:	48 8b 05 d4 8a 00 00 	mov    0x8ad4(%rip),%rax        # 1f110 <g_117>
   1663c:	89 85 5c f5 ff ff    	mov    %eax,-0xaa4(%rbp)
   16642:	8b 85 68 f5 ff ff    	mov    -0xa98(%rbp),%eax
   16648:	4c 63 e8             	movslq %eax,%r13
   1664b:	44 8b 35 b6 8b 00 00 	mov    0x8bb6(%rip),%r14d        # 1f208 <g_263>
   16652:	0f b6 05 9b 8a 00 00 	movzbl 0x8a9b(%rip),%eax        # 1f0f4 <g_97>
   16659:	0f be c0             	movsbl %al,%eax
   1665c:	89 c6                	mov    %eax,%esi
   1665e:	bf e0 ff ff ff       	mov    $0xffffffe0,%edi
   16663:	e8 6c 3b ff ff       	callq  a1d4 <safe_add_func_int8_t_s_s>
   16668:	0f be c0             	movsbl %al,%eax
   1666b:	41 39 c6             	cmp    %eax,%r14d
   1666e:	0f 95 c0             	setne  %al
   16671:	0f b6 d0             	movzbl %al,%edx
   16674:	8b 85 68 f5 ff ff    	mov    -0xa98(%rbp),%eax
   1667a:	39 c2                	cmp    %eax,%edx
   1667c:	0f 9d c0             	setge  %al
   1667f:	0f b6 c0             	movzbl %al,%eax
   16682:	4c 89 ee             	mov    %r13,%rsi
   16685:	48 89 c7             	mov    %rax,%rdi
   16688:	e8 1b 42 ff ff       	callq  a8a8 <safe_sub_func_int64_t_s_s>
   1668d:	89 c2                	mov    %eax,%edx
   1668f:	0f b6 05 84 8b 00 00 	movzbl 0x8b84(%rip),%eax        # 1f21a <g_381>
   16696:	0f b6 c0             	movzbl %al,%eax
   16699:	21 d0                	and    %edx,%eax
   1669b:	be f7 ff ff ff       	mov    $0xfffffff7,%esi
   166a0:	89 c7                	mov    %eax,%edi
   166a2:	e8 58 40 ff ff       	callq  a6ff <safe_div_func_int32_t_s_s>
   166a7:	98                   	cwtl   
   166a8:	be 09 00 00 00       	mov    $0x9,%esi
   166ad:	89 c7                	mov    %eax,%edi
   166af:	e8 62 3d ff ff       	callq  a416 <safe_mod_func_int16_t_s_s>
   166b4:	66 85 c0             	test   %ax,%ax
   166b7:	0f 94 c0             	sete   %al
   166ba:	0f b6 d0             	movzbl %al,%edx
   166bd:	8b 05 2d 8a 00 00    	mov    0x8a2d(%rip),%eax        # 1f0f0 <g_74>
   166c3:	21 d0                	and    %edx,%eax
   166c5:	8b b5 5c f5 ff ff    	mov    -0xaa4(%rbp),%esi
   166cb:	89 c7                	mov    %eax,%edi
   166cd:	e8 2b 48 ff ff       	callq  aefd <safe_mod_func_uint32_t_u_u>
   166d2:	0f b7 c0             	movzwl %ax,%eax
   166d5:	8b b5 60 f5 ff ff    	mov    -0xaa0(%rbp),%esi
   166db:	89 c7                	mov    %eax,%edi
   166dd:	e8 66 47 ff ff       	callq  ae48 <safe_rshift_func_uint16_t_u_s>
   166e2:	0f b7 c0             	movzwl %ax,%eax
   166e5:	48 be d6 b9 2e 3e 84 	movabs $0xac7e0e843e2eb9d6,%rsi
   166ec:	0e 7e ac 
   166ef:	48 89 c7             	mov    %rax,%rdi
   166f2:	e8 54 49 ff ff       	callq  b04b <safe_sub_func_uint64_t_u_u>
   166f7:	44 89 fe             	mov    %r15d,%esi
   166fa:	89 c7                	mov    %eax,%edi
   166fc:	e8 b7 47 ff ff       	callq  aeb8 <safe_add_func_uint32_t_u_u>
   16701:	8b 95 84 f5 ff ff    	mov    -0xa7c(%rbp),%edx
   16707:	39 d0                	cmp    %edx,%eax
   16709:	0f 94 c0             	sete   %al
   1670c:	32 85 67 f5 ff ff    	xor    -0xa99(%rbp),%al
   16712:	84 c0                	test   %al,%al
   16714:	74 07                	je     1671d <func_56+0x1a97>
   16716:	ba 01 00 00 00       	mov    $0x1,%edx
   1671b:	eb 05                	jmp    16722 <func_56+0x1a9c>
   1671d:	ba 00 00 00 00       	mov    $0x0,%edx
   16722:	0f b7 05 23 cc 00 00 	movzwl 0xcc23(%rip),%eax        # 2334c <g_100>
   16729:	0f b7 c0             	movzwl %ax,%eax
   1672c:	31 c2                	xor    %eax,%edx
   1672e:	0f be 85 7f f5 ff ff 	movsbl -0xa81(%rbp),%eax
   16735:	39 c2                	cmp    %eax,%edx
   16737:	0f 9d c0             	setge  %al
   1673a:	0f b6 c0             	movzbl %al,%eax
   1673d:	44 89 e6             	mov    %r12d,%esi
   16740:	89 c7                	mov    %eax,%edi
   16742:	e8 8c 3c ff ff       	callq  a3d3 <safe_sub_func_int16_t_s_s>
   16747:	98                   	cwtl   
   16748:	89 de                	mov    %ebx,%esi
   1674a:	89 c7                	mov    %eax,%edi
   1674c:	e8 82 3c ff ff       	callq  a3d3 <safe_sub_func_int16_t_s_s>
   16751:	0f b7 05 20 8a 00 00 	movzwl 0x8a20(%rip),%eax        # 1f178 <g_229>
   16758:	48 0f bf c0          	movswq %ax,%rax
   1675c:	48 3d 8b 0a 00 00    	cmp    $0xa8b,%rax
   16762:	0f 96 c0             	setbe  %al
   16765:	0f b6 d0             	movzbl %al,%edx
   16768:	48 8b 05 89 89 00 00 	mov    0x8989(%rip),%rax        # 1f0f8 <g_98>
   1676f:	48 39 c2             	cmp    %rax,%rdx
   16772:	0f 94 c0             	sete   %al
   16775:	0f b6 c0             	movzbl %al,%eax
   16778:	89 05 6a 89 00 00    	mov    %eax,0x896a(%rip)        # 1f0e8 <g_65>
   1677e:	0f b7 05 54 89 00 00 	movzwl 0x8954(%rip),%eax        # 1f0d9 <g_34>
   16785:	66 85 c0             	test   %ax,%ax
   16788:	74 05                	je     1678f <func_56+0x1b09>
   1678a:	e9 ce e5 ff ff       	jmpq   14d5d <func_56+0xd7>
   1678f:	0f b7 05 e2 89 00 00 	movzwl 0x89e2(%rip),%eax        # 1f178 <g_229>
   16796:	0f b7 c0             	movzwl %ax,%eax
   16799:	be 07 00 00 00       	mov    $0x7,%esi
   1679e:	89 c7                	mov    %eax,%edi
   167a0:	e8 7a 45 ff ff       	callq  ad1f <safe_sub_func_uint16_t_u_u>
   167a5:	66 89 05 cc 89 00 00 	mov    %ax,0x89cc(%rip)        # 1f178 <g_229>
   167ac:	0f b7 05 c5 89 00 00 	movzwl 0x89c5(%rip),%eax        # 1f178 <g_229>
   167b3:	66 83 f8 f3          	cmp    $0xfff3,%ax
   167b7:	0f 84 da fd ff ff    	je     16597 <func_56+0x1911>
   167bd:	0f b6 85 7e f5 ff ff 	movzbl -0xa82(%rbp),%eax
   167c4:	48 8b 4d c8          	mov    -0x38(%rbp),%rcx
   167c8:	64 48 33 0c 25 28 00 	xor    %fs:0x28,%rcx
   167cf:	00 00 
   167d1:	74 05                	je     167d8 <func_56+0x1b52>
   167d3:	e8 98 38 ff ff       	callq  a070 <__stack_chk_fail@plt>
   167d8:	48 81 c4 88 0a 00 00 	add    $0xa88,%rsp
   167df:	5b                   	pop    %rbx
   167e0:	41 5c                	pop    %r12
   167e2:	41 5d                	pop    %r13
   167e4:	41 5e                	pop    %r14
   167e6:	41 5f                	pop    %r15
   167e8:	5d                   	pop    %rbp
   167e9:	c3                   	retq   

00000000000167ea <func_130>:
   167ea:	f3 0f 1e fa          	endbr64 
   167ee:	55                   	push   %rbp
   167ef:	48 89 e5             	mov    %rsp,%rbp
   167f2:	41 57                	push   %r15
   167f4:	41 56                	push   %r14
   167f6:	41 55                	push   %r13
   167f8:	41 54                	push   %r12
   167fa:	53                   	push   %rbx
   167fb:	48 81 ec 48 01 00 00 	sub    $0x148,%rsp
   16802:	89 fa                	mov    %edi,%edx
   16804:	89 f0                	mov    %esi,%eax
   16806:	66 89 95 9c fe ff ff 	mov    %dx,-0x164(%rbp)
   1680d:	66 89 85 98 fe ff ff 	mov    %ax,-0x168(%rbp)
   16814:	64 48 8b 04 25 28 00 	mov    %fs:0x28,%rax
   1681b:	00 00 
   1681d:	48 89 45 c8          	mov    %rax,-0x38(%rbp)
   16821:	31 c0                	xor    %eax,%eax
   16823:	66 c7 85 00 ff ff ff 	movw   $0x4cc5,-0x100(%rbp)
   1682a:	c5 4c 
   1682c:	66 c7 85 02 ff ff ff 	movw   $0x4cc5,-0xfe(%rbp)
   16833:	c5 4c 
   16835:	66 c7 85 04 ff ff ff 	movw   $0x4cc5,-0xfc(%rbp)
   1683c:	c5 4c 
   1683e:	66 c7 85 06 ff ff ff 	movw   $0x4cc5,-0xfa(%rbp)
   16845:	c5 4c 
   16847:	48 8d 05 c2 88 00 00 	lea    0x88c2(%rip),%rax        # 1f110 <g_117>
   1684e:	48 89 85 c8 fe ff ff 	mov    %rax,-0x138(%rbp)
   16855:	c7 85 ac fe ff ff ff 	movl   $0xffffffff,-0x154(%rbp)
   1685c:	ff ff ff 
   1685f:	48 c7 85 b0 fe ff ff 	movq   $0x0,-0x150(%rbp)
   16866:	00 00 00 00 
   1686a:	48 8d 85 b0 fe ff ff 	lea    -0x150(%rbp),%rax
   16871:	48 89 85 b8 fe ff ff 	mov    %rax,-0x148(%rbp)
   16878:	48 8d 85 b8 fe ff ff 	lea    -0x148(%rbp),%rax
   1687f:	48 89 85 d0 fe ff ff 	mov    %rax,-0x130(%rbp)
   16886:	48 8d 05 5b 88 00 00 	lea    0x885b(%rip),%rax        # 1f0e8 <g_65>
   1688d:	48 89 85 d8 fe ff ff 	mov    %rax,-0x128(%rbp)
   16894:	48 8d 05 51 88 00 00 	lea    0x8851(%rip),%rax        # 1f0ec <g_69>
   1689b:	48 89 85 40 ff ff ff 	mov    %rax,-0xc0(%rbp)
   168a2:	48 c7 85 48 ff ff ff 	movq   $0x0,-0xb8(%rbp)
   168a9:	00 00 00 00 
   168ad:	48 c7 85 50 ff ff ff 	movq   $0x0,-0xb0(%rbp)
   168b4:	00 00 00 00 
   168b8:	48 8d 05 2d 88 00 00 	lea    0x882d(%rip),%rax        # 1f0ec <g_69>
   168bf:	48 89 85 58 ff ff ff 	mov    %rax,-0xa8(%rbp)
   168c6:	48 c7 85 60 ff ff ff 	movq   $0x0,-0xa0(%rbp)
   168cd:	00 00 00 00 
   168d1:	48 c7 85 68 ff ff ff 	movq   $0x0,-0x98(%rbp)
   168d8:	00 00 00 00 
   168dc:	48 8d 05 09 88 00 00 	lea    0x8809(%rip),%rax        # 1f0ec <g_69>
   168e3:	48 89 85 70 ff ff ff 	mov    %rax,-0x90(%rbp)
   168ea:	48 8d 05 fb 87 00 00 	lea    0x87fb(%rip),%rax        # 1f0ec <g_69>
   168f1:	48 89 85 c0 fe ff ff 	mov    %rax,-0x140(%rbp)
   168f8:	48 8d 85 c0 fe ff ff 	lea    -0x140(%rbp),%rax
   168ff:	48 89 85 e0 fe ff ff 	mov    %rax,-0x120(%rbp)
   16906:	c6 85 a7 fe ff ff 06 	movb   $0x6,-0x159(%rbp)
   1690d:	66 c7 85 98 fe ff ff 	movw   $0x19,-0x168(%rbp)
   16914:	19 00 
   16916:	66 83 bd 98 fe ff ff 	cmpw   $0xffed,-0x168(%rbp)
   1691d:	ed 
   1691e:	0f 8d 2f 03 00 00    	jge    16c53 <func_130+0x469>
   16924:	48 c7 45 80 00 00 00 	movq   $0x0,-0x80(%rbp)
   1692b:	00 
   1692c:	48 8d 05 b9 87 00 00 	lea    0x87b9(%rip),%rax        # 1f0ec <g_69>
   16933:	48 89 45 88          	mov    %rax,-0x78(%rbp)
   16937:	48 8d 05 ae 87 00 00 	lea    0x87ae(%rip),%rax        # 1f0ec <g_69>
   1693e:	48 89 45 90          	mov    %rax,-0x70(%rbp)
   16942:	48 c7 45 98 00 00 00 	movq   $0x0,-0x68(%rbp)
   16949:	00 
   1694a:	48 8d 05 9b 87 00 00 	lea    0x879b(%rip),%rax        # 1f0ec <g_69>
   16951:	48 89 45 a0          	mov    %rax,-0x60(%rbp)
   16955:	48 8d 05 90 87 00 00 	lea    0x8790(%rip),%rax        # 1f0ec <g_69>
   1695c:	48 89 45 a8          	mov    %rax,-0x58(%rbp)
   16960:	48 c7 45 b0 00 00 00 	movq   $0x0,-0x50(%rbp)
   16967:	00 
   16968:	48 8d 05 7d 87 00 00 	lea    0x877d(%rip),%rax        # 1f0ec <g_69>
   1696f:	48 89 45 b8          	mov    %rax,-0x48(%rbp)
   16973:	48 8d 05 72 87 00 00 	lea    0x8772(%rip),%rax        # 1f0ec <g_69>
   1697a:	48 89 45 c0          	mov    %rax,-0x40(%rbp)
   1697e:	48 8d 05 93 87 00 00 	lea    0x8793(%rip),%rax        # 1f118 <g_121>
   16985:	48 89 85 e8 fe ff ff 	mov    %rax,-0x118(%rbp)
   1698c:	c7 85 a8 fe ff ff 00 	movl   $0x0,-0x158(%rbp)
   16993:	00 00 00 
   16996:	eb 19                	jmp    169b1 <func_130+0x1c7>
   16998:	8b 85 a8 fe ff ff    	mov    -0x158(%rbp),%eax
   1699e:	48 98                	cltq   
   169a0:	66 c7 84 45 08 ff ff 	movw   $0x1,-0xf8(%rbp,%rax,2)
   169a7:	ff 01 00 
   169aa:	83 85 a8 fe ff ff 01 	addl   $0x1,-0x158(%rbp)
   169b1:	83 bd a8 fe ff ff 03 	cmpl   $0x3,-0x158(%rbp)
   169b8:	7e de                	jle    16998 <func_130+0x1ae>
   169ba:	c7 85 a8 fe ff ff 00 	movl   $0x0,-0x158(%rbp)
   169c1:	00 00 00 
   169c4:	eb 1b                	jmp    169e1 <func_130+0x1f7>
   169c6:	8b 85 a8 fe ff ff    	mov    -0x158(%rbp),%eax
   169cc:	48 98                	cltq   
   169ce:	48 c7 84 c5 10 ff ff 	movq   $0x0,-0xf0(%rbp,%rax,8)
   169d5:	ff 00 00 00 00 
   169da:	83 85 a8 fe ff ff 01 	addl   $0x1,-0x158(%rbp)
   169e1:	83 bd a8 fe ff ff 05 	cmpl   $0x5,-0x158(%rbp)
   169e8:	7e dc                	jle    169c6 <func_130+0x1dc>
   169ea:	0f b7 85 00 ff ff ff 	movzwl -0x100(%rbp),%eax
   169f1:	0f bf d0             	movswl %ax,%edx
   169f4:	48 8d 05 15 87 00 00 	lea    0x8715(%rip),%rax        # 1f110 <g_117>
   169fb:	48 39 85 c8 fe ff ff 	cmp    %rax,-0x138(%rbp)
   16a02:	0f 94 c0             	sete   %al
   16a05:	0f b6 c0             	movzbl %al,%eax
   16a08:	39 c2                	cmp    %eax,%edx
   16a0a:	0f 9c c0             	setl   %al
   16a0d:	0f b6 c0             	movzbl %al,%eax
   16a10:	89 05 d2 86 00 00    	mov    %eax,0x86d2(%rip)        # 1f0e8 <g_65>
   16a16:	8b 05 cc 86 00 00    	mov    0x86cc(%rip),%eax        # 1f0e8 <g_65>
   16a1c:	4c 63 f0             	movslq %eax,%r14
   16a1f:	8b 05 ab 86 00 00    	mov    0x86ab(%rip),%eax        # 1f0d0 <g_10>
   16a25:	48 63 d8             	movslq %eax,%rbx
   16a28:	0f b7 05 1d c9 00 00 	movzwl 0xc91d(%rip),%eax        # 2334c <g_100>
   16a2f:	44 0f b7 e0          	movzwl %ax,%r12d
   16a33:	0f b7 85 98 fe ff ff 	movzwl -0x168(%rbp),%eax
   16a3a:	44 0f b7 e8          	movzwl %ax,%r13d
   16a3e:	8b 05 dc 86 00 00    	mov    0x86dc(%rip),%eax        # 1f120 <g_122>
   16a44:	41 89 c7             	mov    %eax,%r15d
   16a47:	0f bf 85 98 fe ff ff 	movswl -0x168(%rbp),%eax
   16a4e:	89 c6                	mov    %eax,%esi
   16a50:	bf fc ff ff ff       	mov    $0xfffffffc,%edi
   16a55:	e8 76 44 ff ff       	callq  aed0 <safe_sub_func_uint32_t_u_u>
   16a5a:	0f b6 c0             	movzbl %al,%eax
   16a5d:	44 89 fe             	mov    %r15d,%esi
   16a60:	89 c7                	mov    %eax,%edi
   16a62:	e8 26 42 ff ff       	callq  ac8d <safe_rshift_func_uint8_t_u_s>
   16a67:	0f b6 c0             	movzbl %al,%eax
   16a6a:	39 85 ac fe ff ff    	cmp    %eax,-0x154(%rbp)
   16a70:	0f 96 c0             	setbe  %al
   16a73:	0f b6 d0             	movzbl %al,%edx
   16a76:	0f b7 85 00 ff ff ff 	movzwl -0x100(%rbp),%eax
   16a7d:	98                   	cwtl   
   16a7e:	39 c2                	cmp    %eax,%edx
   16a80:	0f 9c c0             	setl   %al
   16a83:	0f b6 c0             	movzbl %al,%eax
   16a86:	44 89 ee             	mov    %r13d,%esi
   16a89:	89 c7                	mov    %eax,%edi
   16a8b:	e8 fe 42 ff ff       	callq  ad8e <safe_div_func_uint16_t_u_u>
   16a90:	0f b6 c0             	movzbl %al,%eax
   16a93:	89 c6                	mov    %eax,%esi
   16a95:	bf 0f 00 00 00       	mov    $0xf,%edi
   16a9a:	e8 f4 40 ff ff       	callq  ab93 <safe_mul_func_uint8_t_u_u>
   16a9f:	0f b6 d0             	movzbl %al,%edx
   16aa2:	48 8b 05 e7 b5 00 00 	mov    0xb5e7(%rip),%rax        # 22090 <g_192>
   16aa9:	48 8b 00             	mov    (%rax),%rax
   16aac:	48 85 c0             	test   %rax,%rax
   16aaf:	0f 95 c0             	setne  %al
   16ab2:	0f b6 c0             	movzbl %al,%eax
   16ab5:	89 d6                	mov    %edx,%esi
   16ab7:	89 c7                	mov    %eax,%edi
   16ab9:	e8 8e 41 ff ff       	callq  ac4c <safe_lshift_func_uint8_t_u_u>
   16abe:	0f b6 d0             	movzbl %al,%edx
   16ac1:	0f b7 05 11 86 00 00 	movzwl 0x8611(%rip),%eax        # 1f0d9 <g_34>
   16ac8:	66 39 c2             	cmp    %ax,%dx
   16acb:	0f 96 c0             	setbe  %al
   16ace:	0f b6 c0             	movzbl %al,%eax
   16ad1:	44 89 e6             	mov    %r12d,%esi
   16ad4:	89 c7                	mov    %eax,%edi
   16ad6:	e8 62 42 ff ff       	callq  ad3d <safe_mul_func_uint16_t_u_u>
   16adb:	0f b7 d0             	movzwl %ax,%edx
   16ade:	0f bf 85 98 fe ff ff 	movswl -0x168(%rbp),%eax
   16ae5:	39 c2                	cmp    %eax,%edx
   16ae7:	0f 9c c0             	setl   %al
   16aea:	0f b6 d0             	movzbl %al,%edx
   16aed:	0f b7 85 0e ff ff ff 	movzwl -0xf2(%rbp),%eax
   16af4:	0f b7 c0             	movzwl %ax,%eax
   16af7:	89 d1                	mov    %edx,%ecx
   16af9:	31 c1                	xor    %eax,%ecx
   16afb:	48 8b 85 e8 fe ff ff 	mov    -0x118(%rbp),%rax
   16b02:	48 8b 10             	mov    (%rax),%rdx
   16b05:	48 63 c1             	movslq %ecx,%rax
   16b08:	48 09 c2             	or     %rax,%rdx
   16b0b:	48 8b 85 e8 fe ff ff 	mov    -0x118(%rbp),%rax
   16b12:	48 89 10             	mov    %rdx,(%rax)
   16b15:	48 8b 85 e8 fe ff ff 	mov    -0x118(%rbp),%rax
   16b1c:	48 8b 00             	mov    (%rax),%rax
   16b1f:	48 89 de             	mov    %rbx,%rsi
   16b22:	48 89 c7             	mov    %rax,%rdi
   16b25:	e8 7e 3d ff ff       	callq  a8a8 <safe_sub_func_int64_t_s_s>
   16b2a:	4c 09 f0             	or     %r14,%rax
   16b2d:	48 89 c2             	mov    %rax,%rdx
   16b30:	48 8b 85 20 ff ff ff 	mov    -0xe0(%rbp),%rax
   16b37:	48 39 c2             	cmp    %rax,%rdx
   16b3a:	73 1a                	jae    16b56 <func_130+0x36c>
   16b3c:	48 8d 05 ca 85 00 00 	lea    0x85ca(%rip),%rax        # 1f10d <g_114+0x5>
   16b43:	48 89 85 f8 fe ff ff 	mov    %rax,-0x108(%rbp)
   16b4a:	48 8b 85 f8 fe ff ff 	mov    -0x108(%rbp),%rax
   16b51:	e9 b9 02 00 00       	jmpq   16e0f <func_130+0x625>
   16b56:	66 83 bd 9c fe ff ff 	cmpw   $0x0,-0x164(%rbp)
   16b5d:	00 
   16b5e:	74 13                	je     16b73 <func_130+0x389>
   16b60:	66 83 bd 9c fe ff ff 	cmpw   $0x0,-0x164(%rbp)
   16b67:	00 
   16b68:	0f 84 d9 00 00 00    	je     16c47 <func_130+0x45d>
   16b6e:	e9 e0 00 00 00       	jmpq   16c53 <func_130+0x469>
   16b73:	48 8d 05 91 85 00 00 	lea    0x8591(%rip),%rax        # 1f10b <g_114+0x3>
   16b7a:	48 89 85 f0 fe ff ff 	mov    %rax,-0x110(%rbp)
   16b81:	0f b7 85 98 fe ff ff 	movzwl -0x168(%rbp),%eax
   16b88:	0f b6 d8             	movzbl %al,%ebx
   16b8b:	48 8b 85 f0 fe ff ff 	mov    -0x110(%rbp),%rax
   16b92:	0f b6 00             	movzbl (%rax),%eax
   16b95:	8d 48 01             	lea    0x1(%rax),%ecx
   16b98:	48 8b 95 f0 fe ff ff 	mov    -0x110(%rbp),%rdx
   16b9f:	88 0a                	mov    %cl,(%rdx)
   16ba1:	44 0f b6 e0          	movzbl %al,%r12d
   16ba5:	44 0f b7 ad 9c fe ff 	movzwl -0x164(%rbp),%r13d
   16bac:	ff 
   16bad:	0f b7 05 98 c7 00 00 	movzwl 0xc798(%rip),%eax        # 2334c <g_100>
   16bb4:	98                   	cwtl   
   16bb5:	89 c6                	mov    %eax,%esi
   16bb7:	bf 01 00 00 00       	mov    $0x1,%edi
   16bbc:	e8 34 38 ff ff       	callq  a3f5 <safe_mul_func_int16_t_s_s>
   16bc1:	98                   	cwtl   
   16bc2:	41 39 c5             	cmp    %eax,%r13d
   16bc5:	0f 9d c0             	setge  %al
   16bc8:	0f b6 c0             	movzbl %al,%eax
   16bcb:	41 39 c4             	cmp    %eax,%r12d
   16bce:	0f 94 c0             	sete   %al
   16bd1:	0f b6 d0             	movzbl %al,%edx
   16bd4:	0f b7 85 00 ff ff ff 	movzwl -0x100(%rbp),%eax
   16bdb:	0f bf c8             	movswl %ax,%ecx
   16bde:	8b 05 fc 84 00 00    	mov    0x84fc(%rip),%eax        # 1f0e0 <g_59>
   16be4:	09 c8                	or     %ecx,%eax
   16be6:	85 c0                	test   %eax,%eax
   16be8:	0f 94 c0             	sete   %al
   16beb:	0f b6 c0             	movzbl %al,%eax
   16bee:	89 d6                	mov    %edx,%esi
   16bf0:	89 c7                	mov    %eax,%edi
   16bf2:	e8 46 41 ff ff       	callq  ad3d <safe_mul_func_uint16_t_u_u>
   16bf7:	0f b7 c0             	movzwl %ax,%eax
   16bfa:	89 c6                	mov    %eax,%esi
   16bfc:	bf fc ff ff ff       	mov    $0xfffffffc,%edi
   16c01:	e8 ca 42 ff ff       	callq  aed0 <safe_sub_func_uint32_t_u_u>
   16c06:	0f b6 05 e7 84 00 00 	movzbl 0x84e7(%rip),%eax        # 1f0f4 <g_97>
   16c0d:	0f be d0             	movsbl %al,%edx
   16c10:	0f bf 85 98 fe ff ff 	movswl -0x168(%rbp),%eax
   16c17:	09 d0                	or     %edx,%eax
   16c19:	be 00 00 00 00       	mov    $0x0,%esi
   16c1e:	89 c7                	mov    %eax,%edi
   16c20:	e8 e0 39 ff ff       	callq  a605 <safe_sub_func_int32_t_s_s>
   16c25:	98                   	cwtl   
   16c26:	be f8 ff ff ff       	mov    $0xfffffff8,%esi
   16c2b:	89 c7                	mov    %eax,%edi
   16c2d:	e8 a1 37 ff ff       	callq  a3d3 <safe_sub_func_int16_t_s_s>
   16c32:	0f b6 c0             	movzbl %al,%eax
   16c35:	89 de                	mov    %ebx,%esi
   16c37:	89 c7                	mov    %eax,%edi
   16c39:	e8 9d 3f ff ff       	callq  abdb <safe_div_func_uint8_t_u_u>
   16c3e:	0f b6 c0             	movzbl %al,%eax
   16c41:	89 05 a1 84 00 00    	mov    %eax,0x84a1(%rip)        # 1f0e8 <g_65>
   16c47:	48 8d 05 ba 84 00 00 	lea    0x84ba(%rip),%rax        # 1f108 <g_114>
   16c4e:	e9 bc 01 00 00       	jmpq   16e0f <func_130+0x625>
   16c53:	48 0f bf 9d 98 fe ff 	movswq -0x168(%rbp),%rbx
   16c5a:	ff 
   16c5b:	44 0f bf a5 98 fe ff 	movswl -0x168(%rbp),%r12d
   16c62:	ff 
   16c63:	0f b7 05 6f 84 00 00 	movzwl 0x846f(%rip),%eax        # 1f0d9 <g_34>
   16c6a:	0f b7 d0             	movzwl %ax,%edx
   16c6d:	48 8b 05 84 84 00 00 	mov    0x8484(%rip),%rax        # 1f0f8 <g_98>
   16c74:	83 e0 03             	and    $0x3,%eax
   16c77:	48 89 05 7a 84 00 00 	mov    %rax,0x847a(%rip)        # 1f0f8 <g_98>
   16c7e:	48 8b 05 73 84 00 00 	mov    0x8473(%rip),%rax        # 1f0f8 <g_98>
   16c85:	48 85 c0             	test   %rax,%rax
   16c88:	74 11                	je     16c9b <func_130+0x4b1>
   16c8a:	66 83 bd 98 fe ff ff 	cmpw   $0x0,-0x168(%rbp)
   16c91:	00 
   16c92:	74 07                	je     16c9b <func_130+0x4b1>
   16c94:	b8 01 00 00 00       	mov    $0x1,%eax
   16c99:	eb 05                	jmp    16ca0 <func_130+0x4b6>
   16c9b:	b8 00 00 00 00       	mov    $0x0,%eax
   16ca0:	39 85 ac fe ff ff    	cmp    %eax,-0x154(%rbp)
   16ca6:	0f 95 c0             	setne  %al
   16ca9:	0f b6 c0             	movzbl %al,%eax
   16cac:	48 89 d6             	mov    %rdx,%rsi
   16caf:	48 89 c7             	mov    %rax,%rdi
   16cb2:	e8 fd 3c ff ff       	callq  a9b4 <safe_mod_func_int64_t_s_s>
   16cb7:	0f b6 05 36 84 00 00 	movzbl 0x8436(%rip),%eax        # 1f0f4 <g_97>
   16cbe:	0f be d0             	movsbl %al,%edx
   16cc1:	0f b7 85 00 ff ff ff 	movzwl -0x100(%rbp),%eax
   16cc8:	66 85 c0             	test   %ax,%ax
   16ccb:	75 0a                	jne    16cd7 <func_130+0x4ed>
   16ccd:	66 83 bd 98 fe ff ff 	cmpw   $0x0,-0x168(%rbp)
   16cd4:	00 
   16cd5:	74 07                	je     16cde <func_130+0x4f4>
   16cd7:	b8 01 00 00 00       	mov    $0x1,%eax
   16cdc:	eb 05                	jmp    16ce3 <func_130+0x4f9>
   16cde:	b8 00 00 00 00       	mov    $0x0,%eax
   16ce3:	98                   	cwtl   
   16ce4:	89 d6                	mov    %edx,%esi
   16ce6:	89 c7                	mov    %eax,%edi
   16ce8:	e8 e6 36 ff ff       	callq  a3d3 <safe_sub_func_int16_t_s_s>
   16ced:	66 85 c0             	test   %ax,%ax
   16cf0:	74 13                	je     16d05 <func_130+0x51b>
   16cf2:	0f b7 85 00 ff ff ff 	movzwl -0x100(%rbp),%eax
   16cf9:	66 85 c0             	test   %ax,%ax
   16cfc:	74 07                	je     16d05 <func_130+0x51b>
   16cfe:	b8 01 00 00 00       	mov    $0x1,%eax
   16d03:	eb 05                	jmp    16d0a <func_130+0x520>
   16d05:	b8 00 00 00 00       	mov    $0x0,%eax
   16d0a:	0f b7 c0             	movzwl %ax,%eax
   16d0d:	be 4d 92 00 00       	mov    $0x924d,%esi
   16d12:	89 c7                	mov    %eax,%edi
   16d14:	e8 24 40 ff ff       	callq  ad3d <safe_mul_func_uint16_t_u_u>
   16d19:	0f b7 85 00 ff ff ff 	movzwl -0x100(%rbp),%eax
   16d20:	66 85 c0             	test   %ax,%ax
   16d23:	0f bf 95 98 fe ff ff 	movswl -0x168(%rbp),%edx
   16d2a:	48 8b 85 d8 fe ff ff 	mov    -0x128(%rbp),%rax
   16d31:	89 10                	mov    %edx,(%rax)
   16d33:	48 8b 85 d8 fe ff ff 	mov    -0x128(%rbp),%rax
   16d3a:	8b 00                	mov    (%rax),%eax
   16d3c:	44 89 e6             	mov    %r12d,%esi
   16d3f:	89 c7                	mov    %eax,%edi
   16d41:	e8 b9 39 ff ff       	callq  a6ff <safe_div_func_int32_t_s_s>
   16d46:	48 98                	cltq   
   16d48:	48 89 de             	mov    %rbx,%rsi
   16d4b:	48 89 c7             	mov    %rax,%rdi
   16d4e:	e8 f8 42 ff ff       	callq  b04b <safe_sub_func_uint64_t_u_u>
   16d53:	0f b7 95 9c fe ff ff 	movzwl -0x164(%rbp),%edx
   16d5a:	48 39 d0             	cmp    %rdx,%rax
   16d5d:	0f 94 c0             	sete   %al
   16d60:	0f b6 d0             	movzbl %al,%edx
   16d63:	8b 05 83 83 00 00    	mov    0x8383(%rip),%eax        # 1f0ec <g_69>
   16d69:	31 d0                	xor    %edx,%eax
   16d6b:	89 05 7b 83 00 00    	mov    %eax,0x837b(%rip)        # 1f0ec <g_69>
   16d71:	0f b7 05 02 84 00 00 	movzwl 0x8402(%rip),%eax        # 1f17a <g_235>
   16d78:	0f b7 c0             	movzwl %ax,%eax
   16d7b:	be 01 00 00 00       	mov    $0x1,%esi
   16d80:	89 c7                	mov    %eax,%edi
   16d82:	e8 b6 3f ff ff       	callq  ad3d <safe_mul_func_uint16_t_u_u>
   16d87:	0f b7 d0             	movzwl %ax,%edx
   16d8a:	48 8b 05 67 83 00 00 	mov    0x8367(%rip),%rax        # 1f0f8 <g_98>
   16d91:	48 39 c2             	cmp    %rax,%rdx
   16d94:	0f 95 c0             	setne  %al
   16d97:	0f b6 c0             	movzbl %al,%eax
   16d9a:	48 89 c6             	mov    %rax,%rsi
   16d9d:	48 bf b0 b7 c2 ef 28 	movabs $0xfa9cbd28efc2b7b0,%rdi
   16da4:	bd 9c fa 
   16da7:	e8 fc 3a ff ff       	callq  a8a8 <safe_sub_func_int64_t_s_s>
   16dac:	0f b7 85 9c fe ff ff 	movzwl -0x164(%rbp),%eax
   16db3:	be 01 00 00 00       	mov    $0x1,%esi
   16db8:	89 c7                	mov    %eax,%edi
   16dba:	e8 60 3f ff ff       	callq  ad1f <safe_sub_func_uint16_t_u_u>
   16dbf:	0f b7 d0             	movzwl %ax,%edx
   16dc2:	0f b7 85 98 fe ff ff 	movzwl -0x168(%rbp),%eax
   16dc9:	0f b6 c0             	movzbl %al,%eax
   16dcc:	89 d6                	mov    %edx,%esi
   16dce:	89 c7                	mov    %eax,%edi
   16dd0:	e8 b8 3e ff ff       	callq  ac8d <safe_rshift_func_uint8_t_u_s>
   16dd5:	0f be c0             	movsbl %al,%eax
   16dd8:	be ff ff ff ff       	mov    $0xffffffff,%esi
   16ddd:	89 c7                	mov    %eax,%edi
   16ddf:	e8 f0 33 ff ff       	callq  a1d4 <safe_add_func_int8_t_s_s>
   16de4:	0f be d0             	movsbl %al,%edx
   16de7:	0f bf 85 98 fe ff ff 	movswl -0x168(%rbp),%eax
   16dee:	21 c2                	and    %eax,%edx
   16df0:	0f b6 85 a7 fe ff ff 	movzbl -0x159(%rbp),%eax
   16df7:	39 c2                	cmp    %eax,%edx
   16df9:	0f 94 c0             	sete   %al
   16dfc:	0f b6 d0             	movzbl %al,%edx
   16dff:	48 8b 85 d8 fe ff ff 	mov    -0x128(%rbp),%rax
   16e06:	89 10                	mov    %edx,(%rax)
   16e08:	48 8d 05 fb 82 00 00 	lea    0x82fb(%rip),%rax        # 1f10a <g_114+0x2>
   16e0f:	48 8b 5d c8          	mov    -0x38(%rbp),%rbx
   16e13:	64 48 33 1c 25 28 00 	xor    %fs:0x28,%rbx
   16e1a:	00 00 
   16e1c:	74 05                	je     16e23 <func_130+0x639>
   16e1e:	e8 4d 32 ff ff       	callq  a070 <__stack_chk_fail@plt>
   16e23:	48 81 c4 48 01 00 00 	add    $0x148,%rsp
   16e2a:	5b                   	pop    %rbx
   16e2b:	41 5c                	pop    %r12
   16e2d:	41 5d                	pop    %r13
   16e2f:	41 5e                	pop    %r14
   16e31:	41 5f                	pop    %r15
   16e33:	5d                   	pop    %rbp
   16e34:	c3                   	retq   

0000000000016e35 <func_133>:
   16e35:	f3 0f 1e fa          	endbr64 
   16e39:	55                   	push   %rbp
   16e3a:	48 89 e5             	mov    %rsp,%rbp
   16e3d:	41 57                	push   %r15
   16e3f:	41 56                	push   %r14
   16e41:	41 55                	push   %r13
   16e43:	41 54                	push   %r12
   16e45:	53                   	push   %rbx
   16e46:	48 81 ec 28 08 00 00 	sub    $0x828,%rsp
   16e4d:	89 bd bc f7 ff ff    	mov    %edi,-0x844(%rbp)
   16e53:	64 48 8b 04 25 28 00 	mov    %fs:0x28,%rax
   16e5a:	00 00 
   16e5c:	48 89 45 c8          	mov    %rax,-0x38(%rbp)
   16e60:	31 c0                	xor    %eax,%eax
   16e62:	48 8d 05 7f 82 00 00 	lea    0x827f(%rip),%rax        # 1f0e8 <g_65>
   16e69:	48 89 85 f8 f7 ff ff 	mov    %rax,-0x808(%rbp)
   16e70:	48 c7 85 30 f8 ff ff 	movq   $0x0,-0x7d0(%rbp)
   16e77:	00 00 00 00 
   16e7b:	c7 85 e8 f7 ff ff 53 	movl   $0x32f8c453,-0x818(%rbp)
   16e82:	c4 f8 32 
   16e85:	c7 85 d0 f7 ff ff 00 	movl   $0x0,-0x830(%rbp)
   16e8c:	00 00 00 
   16e8f:	48 8d 05 ca c4 00 00 	lea    0xc4ca(%rip),%rax        # 23360 <g_245>
   16e96:	48 89 85 50 f9 ff ff 	mov    %rax,-0x6b0(%rbp)
   16e9d:	48 8d 05 bc c4 00 00 	lea    0xc4bc(%rip),%rax        # 23360 <g_245>
   16ea4:	48 89 85 58 f9 ff ff 	mov    %rax,-0x6a8(%rbp)
   16eab:	48 8d 05 ae c4 00 00 	lea    0xc4ae(%rip),%rax        # 23360 <g_245>
   16eb2:	48 89 85 60 f9 ff ff 	mov    %rax,-0x6a0(%rbp)
   16eb9:	48 8d 05 a0 c4 00 00 	lea    0xc4a0(%rip),%rax        # 23360 <g_245>
   16ec0:	48 89 85 68 f9 ff ff 	mov    %rax,-0x698(%rbp)
   16ec7:	48 8d 05 92 c4 00 00 	lea    0xc492(%rip),%rax        # 23360 <g_245>
   16ece:	48 89 85 70 f9 ff ff 	mov    %rax,-0x690(%rbp)
   16ed5:	48 8d 05 84 c4 00 00 	lea    0xc484(%rip),%rax        # 23360 <g_245>
   16edc:	48 89 85 78 f9 ff ff 	mov    %rax,-0x688(%rbp)
   16ee3:	c7 85 e0 f7 ff ff 00 	movl   $0x0,-0x820(%rbp)
   16eea:	00 00 00 
   16eed:	eb 46                	jmp    16f35 <func_133+0x100>
   16eef:	c7 85 e4 f7 ff ff 00 	movl   $0x0,-0x81c(%rbp)
   16ef6:	00 00 00 
   16ef9:	eb 2a                	jmp    16f25 <func_133+0xf0>
   16efb:	8b 85 e4 f7 ff ff    	mov    -0x81c(%rbp),%eax
   16f01:	48 63 d0             	movslq %eax,%rdx
   16f04:	8b 85 e0 f7 ff ff    	mov    -0x820(%rbp),%eax
   16f0a:	48 98                	cltq   
   16f0c:	48 01 d0             	add    %rdx,%rax
   16f0f:	48 8d 15 f2 81 00 00 	lea    0x81f2(%rip),%rdx        # 1f108 <g_114>
   16f16:	48 89 94 c5 20 fa ff 	mov    %rdx,-0x5e0(%rbp,%rax,8)
   16f1d:	ff 
   16f1e:	83 85 e4 f7 ff ff 01 	addl   $0x1,-0x81c(%rbp)
   16f25:	83 bd e4 f7 ff ff 00 	cmpl   $0x0,-0x81c(%rbp)
   16f2c:	7e cd                	jle    16efb <func_133+0xc6>
   16f2e:	83 85 e0 f7 ff ff 01 	addl   $0x1,-0x820(%rbp)
   16f35:	83 bd e0 f7 ff ff 09 	cmpl   $0x9,-0x820(%rbp)
   16f3c:	7e b1                	jle    16eef <func_133+0xba>
   16f3e:	48 c7 05 cf 81 00 00 	movq   $0x0,0x81cf(%rip)        # 1f118 <g_121>
   16f45:	00 00 00 00 
   16f49:	90                   	nop
   16f4a:	48 8b 05 c7 81 00 00 	mov    0x81c7(%rip),%rax        # 1f118 <g_121>
   16f51:	48 85 c0             	test   %rax,%rax
   16f54:	0f 8f f6 18 00 00    	jg     18850 <func_133+0x1a1b>
   16f5a:	48 8d 05 a8 81 00 00 	lea    0x81a8(%rip),%rax        # 1f109 <g_114+0x1>
   16f61:	48 89 85 38 f8 ff ff 	mov    %rax,-0x7c8(%rbp)
   16f68:	c7 85 d0 fa ff ff 92 	movl   $0x71340892,-0x530(%rbp)
   16f6f:	08 34 71 
   16f72:	c7 85 d4 fa ff ff d5 	movl   $0x89647ed5,-0x52c(%rbp)
   16f79:	7e 64 89 
   16f7c:	c7 85 d8 fa ff ff ff 	movl   $0xffffffff,-0x528(%rbp)
   16f83:	ff ff ff 
   16f86:	c7 85 dc fa ff ff d4 	movl   $0x34743bd4,-0x524(%rbp)
   16f8d:	3b 74 34 
   16f90:	c7 85 e0 fa ff ff c9 	movl   $0x17d067c9,-0x520(%rbp)
   16f97:	67 d0 17 
   16f9a:	c7 85 e4 fa ff ff 79 	movl   $0x6427e379,-0x51c(%rbp)
   16fa1:	e3 27 64 
   16fa4:	c7 85 e8 fa ff ff fc 	movl   $0x5d5259fc,-0x518(%rbp)
   16fab:	59 52 5d 
   16fae:	c7 85 ec fa ff ff 92 	movl   $0x71340892,-0x514(%rbp)
   16fb5:	08 34 71 
   16fb8:	c7 85 f0 fa ff ff ff 	movl   $0xffffffff,-0x510(%rbp)
   16fbf:	ff ff ff 
   16fc2:	c7 85 f4 fa ff ff 09 	movl   $0x1ae72209,-0x50c(%rbp)
   16fc9:	22 e7 1a 
   16fcc:	c7 85 f8 fa ff ff 01 	movl   $0x1,-0x508(%rbp)
   16fd3:	00 00 00 
   16fd6:	c7 85 fc fa ff ff 93 	movl   $0xb521c193,-0x504(%rbp)
   16fdd:	c1 21 b5 
   16fe0:	c7 85 00 fb ff ff ff 	movl   $0xffffffff,-0x500(%rbp)
   16fe7:	ff ff ff 
   16fea:	c7 85 04 fb ff ff 09 	movl   $0x1ae72209,-0x4fc(%rbp)
   16ff1:	22 e7 1a 
   16ff4:	c7 85 08 fb ff ff 79 	movl   $0x6427e379,-0x4f8(%rbp)
   16ffb:	e3 27 64 
   16ffe:	c7 85 0c fb ff ff ff 	movl   $0xffffffff,-0x4f4(%rbp)
   17005:	ff ff ff 
   17008:	c7 85 10 fb ff ff 08 	movl   $0x8,-0x4f0(%rbp)
   1700f:	00 00 00 
   17012:	c7 85 14 fb ff ff d5 	movl   $0x89647ed5,-0x4ec(%rbp)
   17019:	7e 64 89 
   1701c:	c7 85 18 fb ff ff ff 	movl   $0xffffffff,-0x4e8(%rbp)
   17023:	ff ff ff 
   17026:	c7 85 1c fb ff ff 08 	movl   $0x8,-0x4e4(%rbp)
   1702d:	00 00 00 
   17030:	c7 85 20 fb ff ff d5 	movl   $0x89647ed5,-0x4e0(%rbp)
   17037:	7e 64 89 
   1703a:	c7 85 24 fb ff ff 16 	movl   $0x984b8f16,-0x4dc(%rbp)
   17041:	8f 4b 98 
   17044:	c7 85 28 fb ff ff d5 	movl   $0x89647ed5,-0x4d8(%rbp)
   1704b:	7e 64 89 
   1704e:	c7 85 2c fb ff ff 08 	movl   $0x8,-0x4d4(%rbp)
   17055:	00 00 00 
   17058:	c7 85 30 fb ff ff 00 	movl   $0x0,-0x4d0(%rbp)
   1705f:	00 00 00 
   17062:	c7 85 34 fb ff ff d4 	movl   $0x34743bd4,-0x4cc(%rbp)
   17069:	3b 74 34 
   1706c:	c7 85 38 fb ff ff fb 	movl   $0xfffffffb,-0x4c8(%rbp)
   17073:	ff ff ff 
   17076:	c7 85 3c fb ff ff d6 	movl   $0x5874c7d6,-0x4c4(%rbp)
   1707d:	c7 74 58 
   17080:	c7 85 40 fb ff ff 93 	movl   $0xb521c193,-0x4c0(%rbp)
   17087:	c1 21 b5 
   1708a:	c7 85 44 fb ff ff 01 	movl   $0x1,-0x4bc(%rbp)
   17091:	00 00 00 
   17094:	c7 85 48 fb ff ff 93 	movl   $0xb521c193,-0x4b8(%rbp)
   1709b:	c1 21 b5 
   1709e:	c7 85 4c fb ff ff fc 	movl   $0x5d5259fc,-0x4b4(%rbp)
   170a5:	59 52 5d 
   170a8:	c7 85 50 fb ff ff 06 	movl   $0x6,-0x4b0(%rbp)
   170af:	00 00 00 
   170b2:	c7 85 54 fb ff ff b6 	movl   $0x865e95b6,-0x4ac(%rbp)
   170b9:	95 5e 86 
   170bc:	c7 85 58 fb ff ff 79 	movl   $0x6427e379,-0x4a8(%rbp)
   170c3:	e3 27 64 
   170c6:	c7 85 5c fb ff ff c9 	movl   $0x17d067c9,-0x4a4(%rbp)
   170cd:	67 d0 17 
   170d0:	c7 85 60 fb ff ff 36 	movl   $0x50c21d36,-0x4a0(%rbp)
   170d7:	1d c2 50 
   170da:	c7 85 64 fb ff ff fc 	movl   $0x5d5259fc,-0x49c(%rbp)
   170e1:	59 52 5d 
   170e4:	c7 85 68 fb ff ff d6 	movl   $0x5874c7d6,-0x498(%rbp)
   170eb:	c7 74 58 
   170ee:	c7 85 6c fb ff ff 50 	movl   $0xd8db6a50,-0x494(%rbp)
   170f5:	6a db d8 
   170f8:	c7 85 70 fb ff ff 93 	movl   $0xb521c193,-0x490(%rbp)
   170ff:	c1 21 b5 
   17102:	c7 85 74 fb ff ff ff 	movl   $0xffffffff,-0x48c(%rbp)
   17109:	ff ff ff 
   1710c:	c7 85 78 fb ff ff 16 	movl   $0x984b8f16,-0x488(%rbp)
   17113:	8f 4b 98 
   17116:	c7 85 7c fb ff ff d4 	movl   $0x34743bd4,-0x484(%rbp)
   1711d:	3b 74 34 
   17120:	c7 85 80 fb ff ff 0d 	movl   $0xbf83720d,-0x480(%rbp)
   17127:	72 83 bf 
   1712a:	c7 85 84 fb ff ff 93 	movl   $0xb521c193,-0x47c(%rbp)
   17131:	c1 21 b5 
   17134:	c7 85 88 fb ff ff d5 	movl   $0x89647ed5,-0x478(%rbp)
   1713b:	7e 64 89 
   1713e:	c7 85 8c fb ff ff 36 	movl   $0x50c21d36,-0x474(%rbp)
   17145:	1d c2 50 
   17148:	c7 85 90 fb ff ff f6 	movl   $0xfffffff6,-0x470(%rbp)
   1714f:	ff ff ff 
   17152:	c7 85 94 fb ff ff 08 	movl   $0x8,-0x46c(%rbp)
   17159:	00 00 00 
   1715c:	c7 85 98 fb ff ff c9 	movl   $0x17d067c9,-0x468(%rbp)
   17163:	67 d0 17 
   17166:	c7 85 9c fb ff ff c9 	movl   $0x17d067c9,-0x464(%rbp)
   1716d:	67 d0 17 
   17170:	c7 85 a0 fb ff ff 08 	movl   $0x8,-0x460(%rbp)
   17177:	00 00 00 
   1717a:	c7 85 a4 fb ff ff f6 	movl   $0xfffffff6,-0x45c(%rbp)
   17181:	ff ff ff 
   17184:	c7 85 a8 fb ff ff fc 	movl   $0xfffffffc,-0x458(%rbp)
   1718b:	ff ff ff 
   1718e:	c7 85 ac fb ff ff 09 	movl   $0x1ae72209,-0x454(%rbp)
   17195:	22 e7 1a 
   17198:	c7 85 b0 fb ff ff 16 	movl   $0x984b8f16,-0x450(%rbp)
   1719f:	8f 4b 98 
   171a2:	c7 85 b4 fb ff ff ec 	movl   $0x142826ec,-0x44c(%rbp)
   171a9:	26 28 14 
   171ac:	c7 85 b8 fb ff ff 01 	movl   $0x1,-0x448(%rbp)
   171b3:	00 00 00 
   171b6:	c7 85 bc fb ff ff 92 	movl   $0x71340892,-0x444(%rbp)
   171bd:	08 34 71 
   171c0:	48 c7 85 00 f8 ff ff 	movq   $0x0,-0x800(%rbp)
   171c7:	00 00 00 00 
   171cb:	48 8d 85 00 f8 ff ff 	lea    -0x800(%rbp),%rax
   171d2:	48 89 85 40 f8 ff ff 	mov    %rax,-0x7c0(%rbp)
   171d9:	48 c7 85 08 f8 ff ff 	movq   $0x0,-0x7f8(%rbp)
   171e0:	00 00 00 00 
   171e4:	48 8d 85 08 f8 ff ff 	lea    -0x7f8(%rbp),%rax
   171eb:	48 89 85 80 f9 ff ff 	mov    %rax,-0x680(%rbp)
   171f2:	48 8d 85 08 f8 ff ff 	lea    -0x7f8(%rbp),%rax
   171f9:	48 89 85 88 f9 ff ff 	mov    %rax,-0x678(%rbp)
   17200:	48 8d 85 08 f8 ff ff 	lea    -0x7f8(%rbp),%rax
   17207:	48 89 85 90 f9 ff ff 	mov    %rax,-0x670(%rbp)
   1720e:	48 8d 85 08 f8 ff ff 	lea    -0x7f8(%rbp),%rax
   17215:	48 89 85 98 f9 ff ff 	mov    %rax,-0x668(%rbp)
   1721c:	48 8d 85 08 f8 ff ff 	lea    -0x7f8(%rbp),%rax
   17223:	48 89 85 a0 f9 ff ff 	mov    %rax,-0x660(%rbp)
   1722a:	48 8d 85 08 f8 ff ff 	lea    -0x7f8(%rbp),%rax
   17231:	48 89 85 a8 f9 ff ff 	mov    %rax,-0x658(%rbp)
   17238:	48 8d 85 08 f8 ff ff 	lea    -0x7f8(%rbp),%rax
   1723f:	48 89 85 b0 f9 ff ff 	mov    %rax,-0x650(%rbp)
   17246:	48 8d 85 08 f8 ff ff 	lea    -0x7f8(%rbp),%rax
   1724d:	48 89 85 b8 f9 ff ff 	mov    %rax,-0x648(%rbp)
   17254:	48 8d 85 08 f8 ff ff 	lea    -0x7f8(%rbp),%rax
   1725b:	48 89 85 c0 f9 ff ff 	mov    %rax,-0x640(%rbp)
   17262:	c6 85 c7 f7 ff ff fc 	movb   $0xfc,-0x839(%rbp)
   17269:	48 c7 85 48 f8 ff ff 	movq   $0x0,-0x7b8(%rbp)
   17270:	00 00 00 00 
   17274:	48 c7 85 10 f8 ff ff 	movq   $0x0,-0x7f0(%rbp)
   1727b:	00 00 00 00 
   1727f:	48 8d 05 9e 7e 00 00 	lea    0x7e9e(%rip),%rax        # 1f124 <g_153>
   17286:	48 89 85 50 f8 ff ff 	mov    %rax,-0x7b0(%rbp)
   1728d:	66 c7 85 c8 f7 ff ff 	movw   $0x0,-0x838(%rbp)
   17294:	00 00 
   17296:	48 c7 85 58 f8 ff ff 	movq   $0x0,-0x7a8(%rbp)
   1729d:	00 00 00 00 
   172a1:	48 8d 05 c0 7e 00 00 	lea    0x7ec0(%rip),%rax        # 1f168 <g_162+0x28>
   172a8:	48 89 85 60 f8 ff ff 	mov    %rax,-0x7a0(%rbp)
   172af:	c6 05 4a 7e 00 00 00 	movb   $0x0,0x7e4a(%rip)        # 1f100 <g_99>
   172b6:	e9 c9 14 00 00       	jmpq   18784 <func_133+0x194f>
   172bb:	48 8d 05 48 7e 00 00 	lea    0x7e48(%rip),%rax        # 1f10a <g_114+0x2>
   172c2:	48 89 85 18 f8 ff ff 	mov    %rax,-0x7e8(%rbp)
   172c9:	48 8d 85 18 f8 ff ff 	lea    -0x7e8(%rbp),%rax
   172d0:	48 89 85 68 f8 ff ff 	mov    %rax,-0x798(%rbp)
   172d7:	48 c7 85 70 f8 ff ff 	movq   $0x0,-0x790(%rbp)
   172de:	00 00 00 00 
   172e2:	48 c7 85 78 f8 ff ff 	movq   $0x0,-0x788(%rbp)
   172e9:	00 00 00 00 
   172ed:	48 8d 85 00 f8 ff ff 	lea    -0x800(%rbp),%rax
   172f4:	48 89 85 c0 fb ff ff 	mov    %rax,-0x440(%rbp)
   172fb:	48 8d 85 00 f8 ff ff 	lea    -0x800(%rbp),%rax
   17302:	48 89 85 c8 fb ff ff 	mov    %rax,-0x438(%rbp)
   17309:	48 8d 85 00 f8 ff ff 	lea    -0x800(%rbp),%rax
   17310:	48 89 85 d0 fb ff ff 	mov    %rax,-0x430(%rbp)
   17317:	48 c7 85 d8 fb ff ff 	movq   $0x0,-0x428(%rbp)
   1731e:	00 00 00 00 
   17322:	48 8d 85 00 f8 ff ff 	lea    -0x800(%rbp),%rax
   17329:	48 89 85 e0 fb ff ff 	mov    %rax,-0x420(%rbp)
   17330:	48 8d 85 00 f8 ff ff 	lea    -0x800(%rbp),%rax
   17337:	48 89 85 e8 fb ff ff 	mov    %rax,-0x418(%rbp)
   1733e:	48 8d 85 00 f8 ff ff 	lea    -0x800(%rbp),%rax
   17345:	48 89 85 f0 fb ff ff 	mov    %rax,-0x410(%rbp)
   1734c:	48 8d 85 00 f8 ff ff 	lea    -0x800(%rbp),%rax
   17353:	48 89 85 f8 fb ff ff 	mov    %rax,-0x408(%rbp)
   1735a:	48 8d 85 00 f8 ff ff 	lea    -0x800(%rbp),%rax
   17361:	48 89 85 00 fc ff ff 	mov    %rax,-0x400(%rbp)
   17368:	48 8d 85 00 f8 ff ff 	lea    -0x800(%rbp),%rax
   1736f:	48 89 85 08 fc ff ff 	mov    %rax,-0x3f8(%rbp)
   17376:	48 8d 85 00 f8 ff ff 	lea    -0x800(%rbp),%rax
   1737d:	48 89 85 10 fc ff ff 	mov    %rax,-0x3f0(%rbp)
   17384:	48 8d 85 00 f8 ff ff 	lea    -0x800(%rbp),%rax
   1738b:	48 89 85 18 fc ff ff 	mov    %rax,-0x3e8(%rbp)
   17392:	48 8d 85 00 f8 ff ff 	lea    -0x800(%rbp),%rax
   17399:	48 89 85 20 fc ff ff 	mov    %rax,-0x3e0(%rbp)
   173a0:	48 c7 85 28 fc ff ff 	movq   $0x0,-0x3d8(%rbp)
   173a7:	00 00 00 00 
   173ab:	48 8d 85 00 f8 ff ff 	lea    -0x800(%rbp),%rax
   173b2:	48 89 85 30 fc ff ff 	mov    %rax,-0x3d0(%rbp)
   173b9:	48 8d 85 00 f8 ff ff 	lea    -0x800(%rbp),%rax
   173c0:	48 89 85 38 fc ff ff 	mov    %rax,-0x3c8(%rbp)
   173c7:	48 8d 85 00 f8 ff ff 	lea    -0x800(%rbp),%rax
   173ce:	48 89 85 40 fc ff ff 	mov    %rax,-0x3c0(%rbp)
   173d5:	48 8d 85 00 f8 ff ff 	lea    -0x800(%rbp),%rax
   173dc:	48 89 85 48 fc ff ff 	mov    %rax,-0x3b8(%rbp)
   173e3:	48 c7 85 50 fc ff ff 	movq   $0x0,-0x3b0(%rbp)
   173ea:	00 00 00 00 
   173ee:	48 c7 85 58 fc ff ff 	movq   $0x0,-0x3a8(%rbp)
   173f5:	00 00 00 00 
   173f9:	48 8d 85 00 f8 ff ff 	lea    -0x800(%rbp),%rax
   17400:	48 89 85 60 fc ff ff 	mov    %rax,-0x3a0(%rbp)
   17407:	48 8d 85 00 f8 ff ff 	lea    -0x800(%rbp),%rax
   1740e:	48 89 85 68 fc ff ff 	mov    %rax,-0x398(%rbp)
   17415:	48 c7 85 70 fc ff ff 	movq   $0x0,-0x390(%rbp)
   1741c:	00 00 00 00 
   17420:	48 8d 85 00 f8 ff ff 	lea    -0x800(%rbp),%rax
   17427:	48 89 85 78 fc ff ff 	mov    %rax,-0x388(%rbp)
   1742e:	48 8d 85 00 f8 ff ff 	lea    -0x800(%rbp),%rax
   17435:	48 89 85 80 fc ff ff 	mov    %rax,-0x380(%rbp)
   1743c:	48 8d 85 00 f8 ff ff 	lea    -0x800(%rbp),%rax
   17443:	48 89 85 88 fc ff ff 	mov    %rax,-0x378(%rbp)
   1744a:	48 8d 85 00 f8 ff ff 	lea    -0x800(%rbp),%rax
   17451:	48 89 85 90 fc ff ff 	mov    %rax,-0x370(%rbp)
   17458:	48 8d 85 00 f8 ff ff 	lea    -0x800(%rbp),%rax
   1745f:	48 89 85 98 fc ff ff 	mov    %rax,-0x368(%rbp)
   17466:	48 8d 85 00 f8 ff ff 	lea    -0x800(%rbp),%rax
   1746d:	48 89 85 a0 fc ff ff 	mov    %rax,-0x360(%rbp)
   17474:	48 8d 85 00 f8 ff ff 	lea    -0x800(%rbp),%rax
   1747b:	48 89 85 a8 fc ff ff 	mov    %rax,-0x358(%rbp)
   17482:	48 8d 85 00 f8 ff ff 	lea    -0x800(%rbp),%rax
   17489:	48 89 85 b0 fc ff ff 	mov    %rax,-0x350(%rbp)
   17490:	48 8d 85 00 f8 ff ff 	lea    -0x800(%rbp),%rax
   17497:	48 89 85 b8 fc ff ff 	mov    %rax,-0x348(%rbp)
   1749e:	48 8d 85 00 f8 ff ff 	lea    -0x800(%rbp),%rax
   174a5:	48 89 85 c0 fc ff ff 	mov    %rax,-0x340(%rbp)
   174ac:	48 8d 85 00 f8 ff ff 	lea    -0x800(%rbp),%rax
   174b3:	48 89 85 c8 fc ff ff 	mov    %rax,-0x338(%rbp)
   174ba:	48 8d 85 00 f8 ff ff 	lea    -0x800(%rbp),%rax
   174c1:	48 89 85 d0 fc ff ff 	mov    %rax,-0x330(%rbp)
   174c8:	48 8d 85 00 f8 ff ff 	lea    -0x800(%rbp),%rax
   174cf:	48 89 85 d8 fc ff ff 	mov    %rax,-0x328(%rbp)
   174d6:	48 8d 85 00 f8 ff ff 	lea    -0x800(%rbp),%rax
   174dd:	48 89 85 e0 fc ff ff 	mov    %rax,-0x320(%rbp)
   174e4:	48 8d 85 00 f8 ff ff 	lea    -0x800(%rbp),%rax
   174eb:	48 89 85 e8 fc ff ff 	mov    %rax,-0x318(%rbp)
   174f2:	48 8d 85 00 f8 ff ff 	lea    -0x800(%rbp),%rax
   174f9:	48 89 85 f0 fc ff ff 	mov    %rax,-0x310(%rbp)
   17500:	48 8d 85 00 f8 ff ff 	lea    -0x800(%rbp),%rax
   17507:	48 89 85 f8 fc ff ff 	mov    %rax,-0x308(%rbp)
   1750e:	48 8d 85 00 f8 ff ff 	lea    -0x800(%rbp),%rax
   17515:	48 89 85 00 fd ff ff 	mov    %rax,-0x300(%rbp)
   1751c:	48 8d 85 00 f8 ff ff 	lea    -0x800(%rbp),%rax
   17523:	48 89 85 08 fd ff ff 	mov    %rax,-0x2f8(%rbp)
   1752a:	48 8d 85 00 f8 ff ff 	lea    -0x800(%rbp),%rax
   17531:	48 89 85 10 fd ff ff 	mov    %rax,-0x2f0(%rbp)
   17538:	48 c7 85 18 fd ff ff 	movq   $0x0,-0x2e8(%rbp)
   1753f:	00 00 00 00 
   17543:	48 8d 85 00 f8 ff ff 	lea    -0x800(%rbp),%rax
   1754a:	48 89 85 20 fd ff ff 	mov    %rax,-0x2e0(%rbp)
   17551:	48 8d 85 00 f8 ff ff 	lea    -0x800(%rbp),%rax
   17558:	48 89 85 28 fd ff ff 	mov    %rax,-0x2d8(%rbp)
   1755f:	48 c7 85 30 fd ff ff 	movq   $0x0,-0x2d0(%rbp)
   17566:	00 00 00 00 
   1756a:	48 c7 85 38 fd ff ff 	movq   $0x0,-0x2c8(%rbp)
   17571:	00 00 00 00 
   17575:	48 8d 85 00 f8 ff ff 	lea    -0x800(%rbp),%rax
   1757c:	48 89 85 40 fd ff ff 	mov    %rax,-0x2c0(%rbp)
   17583:	48 8d 85 00 f8 ff ff 	lea    -0x800(%rbp),%rax
   1758a:	48 89 85 48 fd ff ff 	mov    %rax,-0x2b8(%rbp)
   17591:	48 8d 85 00 f8 ff ff 	lea    -0x800(%rbp),%rax
   17598:	48 89 85 50 fd ff ff 	mov    %rax,-0x2b0(%rbp)
   1759f:	48 8d 85 00 f8 ff ff 	lea    -0x800(%rbp),%rax
   175a6:	48 89 85 58 fd ff ff 	mov    %rax,-0x2a8(%rbp)
   175ad:	48 8d 85 00 f8 ff ff 	lea    -0x800(%rbp),%rax
   175b4:	48 89 85 60 fd ff ff 	mov    %rax,-0x2a0(%rbp)
   175bb:	48 8d 85 00 f8 ff ff 	lea    -0x800(%rbp),%rax
   175c2:	48 89 85 68 fd ff ff 	mov    %rax,-0x298(%rbp)
   175c9:	48 8d 85 00 f8 ff ff 	lea    -0x800(%rbp),%rax
   175d0:	48 89 85 70 fd ff ff 	mov    %rax,-0x290(%rbp)
   175d7:	48 8d 85 00 f8 ff ff 	lea    -0x800(%rbp),%rax
   175de:	48 89 85 78 fd ff ff 	mov    %rax,-0x288(%rbp)
   175e5:	48 8d 85 00 f8 ff ff 	lea    -0x800(%rbp),%rax
   175ec:	48 89 85 80 fd ff ff 	mov    %rax,-0x280(%rbp)
   175f3:	48 8d 85 00 f8 ff ff 	lea    -0x800(%rbp),%rax
   175fa:	48 89 85 88 fd ff ff 	mov    %rax,-0x278(%rbp)
   17601:	48 8d 85 00 f8 ff ff 	lea    -0x800(%rbp),%rax
   17608:	48 89 85 90 fd ff ff 	mov    %rax,-0x270(%rbp)
   1760f:	48 8d 85 00 f8 ff ff 	lea    -0x800(%rbp),%rax
   17616:	48 89 85 98 fd ff ff 	mov    %rax,-0x268(%rbp)
   1761d:	48 8d 85 00 f8 ff ff 	lea    -0x800(%rbp),%rax
   17624:	48 89 85 a0 fd ff ff 	mov    %rax,-0x260(%rbp)
   1762b:	48 8d 85 00 f8 ff ff 	lea    -0x800(%rbp),%rax
   17632:	48 89 85 a8 fd ff ff 	mov    %rax,-0x258(%rbp)
   17639:	48 c7 85 b0 fd ff ff 	movq   $0x0,-0x250(%rbp)
   17640:	00 00 00 00 
   17644:	48 8d 85 00 f8 ff ff 	lea    -0x800(%rbp),%rax
   1764b:	48 89 85 b8 fd ff ff 	mov    %rax,-0x248(%rbp)
   17652:	48 8d 85 00 f8 ff ff 	lea    -0x800(%rbp),%rax
   17659:	48 89 85 c0 fd ff ff 	mov    %rax,-0x240(%rbp)
   17660:	48 8d 85 00 f8 ff ff 	lea    -0x800(%rbp),%rax
   17667:	48 89 85 c8 fd ff ff 	mov    %rax,-0x238(%rbp)
   1766e:	48 8d 85 00 f8 ff ff 	lea    -0x800(%rbp),%rax
   17675:	48 89 85 d0 fd ff ff 	mov    %rax,-0x230(%rbp)
   1767c:	48 8d 85 00 f8 ff ff 	lea    -0x800(%rbp),%rax
   17683:	48 89 85 d8 fd ff ff 	mov    %rax,-0x228(%rbp)
   1768a:	48 c7 85 e0 fd ff ff 	movq   $0x0,-0x220(%rbp)
   17691:	00 00 00 00 
   17695:	48 8d 85 00 f8 ff ff 	lea    -0x800(%rbp),%rax
   1769c:	48 89 85 e8 fd ff ff 	mov    %rax,-0x218(%rbp)
   176a3:	48 c7 85 f0 fd ff ff 	movq   $0x0,-0x210(%rbp)
   176aa:	00 00 00 00 
   176ae:	48 8d 85 00 f8 ff ff 	lea    -0x800(%rbp),%rax
   176b5:	48 89 85 f8 fd ff ff 	mov    %rax,-0x208(%rbp)
   176bc:	48 c7 85 00 fe ff ff 	movq   $0x0,-0x200(%rbp)
   176c3:	00 00 00 00 
   176c7:	48 8d 85 00 f8 ff ff 	lea    -0x800(%rbp),%rax
   176ce:	48 89 85 08 fe ff ff 	mov    %rax,-0x1f8(%rbp)
   176d5:	48 8d 85 00 f8 ff ff 	lea    -0x800(%rbp),%rax
   176dc:	48 89 85 10 fe ff ff 	mov    %rax,-0x1f0(%rbp)
   176e3:	48 c7 85 18 fe ff ff 	movq   $0x0,-0x1e8(%rbp)
   176ea:	00 00 00 00 
   176ee:	48 8d 85 00 f8 ff ff 	lea    -0x800(%rbp),%rax
   176f5:	48 89 85 20 fe ff ff 	mov    %rax,-0x1e0(%rbp)
   176fc:	48 8d 85 00 f8 ff ff 	lea    -0x800(%rbp),%rax
   17703:	48 89 85 28 fe ff ff 	mov    %rax,-0x1d8(%rbp)
   1770a:	48 8d 85 00 f8 ff ff 	lea    -0x800(%rbp),%rax
   17711:	48 89 85 30 fe ff ff 	mov    %rax,-0x1d0(%rbp)
   17718:	48 c7 85 38 fe ff ff 	movq   $0x0,-0x1c8(%rbp)
   1771f:	00 00 00 00 
   17723:	48 c7 85 40 fe ff ff 	movq   $0x0,-0x1c0(%rbp)
   1772a:	00 00 00 00 
   1772e:	48 8d 85 00 f8 ff ff 	lea    -0x800(%rbp),%rax
   17735:	48 89 85 48 fe ff ff 	mov    %rax,-0x1b8(%rbp)
   1773c:	48 8d 85 00 f8 ff ff 	lea    -0x800(%rbp),%rax
   17743:	48 89 85 50 fe ff ff 	mov    %rax,-0x1b0(%rbp)
   1774a:	48 8d 85 00 f8 ff ff 	lea    -0x800(%rbp),%rax
   17751:	48 89 85 58 fe ff ff 	mov    %rax,-0x1a8(%rbp)
   17758:	48 8d 85 00 f8 ff ff 	lea    -0x800(%rbp),%rax
   1775f:	48 89 85 60 fe ff ff 	mov    %rax,-0x1a0(%rbp)
   17766:	48 8d 85 00 f8 ff ff 	lea    -0x800(%rbp),%rax
   1776d:	48 89 85 68 fe ff ff 	mov    %rax,-0x198(%rbp)
   17774:	48 c7 85 70 fe ff ff 	movq   $0x0,-0x190(%rbp)
   1777b:	00 00 00 00 
   1777f:	48 8d 85 00 f8 ff ff 	lea    -0x800(%rbp),%rax
   17786:	48 89 85 78 fe ff ff 	mov    %rax,-0x188(%rbp)
   1778d:	48 8d 85 00 f8 ff ff 	lea    -0x800(%rbp),%rax
   17794:	48 89 85 80 fe ff ff 	mov    %rax,-0x180(%rbp)
   1779b:	48 8d 85 00 f8 ff ff 	lea    -0x800(%rbp),%rax
   177a2:	48 89 85 88 fe ff ff 	mov    %rax,-0x178(%rbp)
   177a9:	48 c7 85 90 fe ff ff 	movq   $0x0,-0x170(%rbp)
   177b0:	00 00 00 00 
   177b4:	48 8d 85 00 f8 ff ff 	lea    -0x800(%rbp),%rax
   177bb:	48 89 85 98 fe ff ff 	mov    %rax,-0x168(%rbp)
   177c2:	48 8d 85 00 f8 ff ff 	lea    -0x800(%rbp),%rax
   177c9:	48 89 85 a0 fe ff ff 	mov    %rax,-0x160(%rbp)
   177d0:	48 c7 85 a8 fe ff ff 	movq   $0x0,-0x158(%rbp)
   177d7:	00 00 00 00 
   177db:	48 8d 85 00 f8 ff ff 	lea    -0x800(%rbp),%rax
   177e2:	48 89 85 b0 fe ff ff 	mov    %rax,-0x150(%rbp)
   177e9:	48 c7 85 b8 fe ff ff 	movq   $0x0,-0x148(%rbp)
   177f0:	00 00 00 00 
   177f4:	48 8d 85 00 f8 ff ff 	lea    -0x800(%rbp),%rax
   177fb:	48 89 85 c0 fe ff ff 	mov    %rax,-0x140(%rbp)
   17802:	48 c7 85 c8 fe ff ff 	movq   $0x0,-0x138(%rbp)
   17809:	00 00 00 00 
   1780d:	48 8d 85 00 f8 ff ff 	lea    -0x800(%rbp),%rax
   17814:	48 89 85 d0 fe ff ff 	mov    %rax,-0x130(%rbp)
   1781b:	48 8d 85 00 f8 ff ff 	lea    -0x800(%rbp),%rax
   17822:	48 89 85 d8 fe ff ff 	mov    %rax,-0x128(%rbp)
   17829:	48 c7 85 e0 fe ff ff 	movq   $0x0,-0x120(%rbp)
   17830:	00 00 00 00 
   17834:	48 8d 85 00 f8 ff ff 	lea    -0x800(%rbp),%rax
   1783b:	48 89 85 e8 fe ff ff 	mov    %rax,-0x118(%rbp)
   17842:	48 8d 85 00 f8 ff ff 	lea    -0x800(%rbp),%rax
   17849:	48 89 85 f0 fe ff ff 	mov    %rax,-0x110(%rbp)
   17850:	48 8d 85 00 f8 ff ff 	lea    -0x800(%rbp),%rax
   17857:	48 89 85 f8 fe ff ff 	mov    %rax,-0x108(%rbp)
   1785e:	48 8d 85 00 f8 ff ff 	lea    -0x800(%rbp),%rax
   17865:	48 89 85 00 ff ff ff 	mov    %rax,-0x100(%rbp)
   1786c:	48 8d 85 00 f8 ff ff 	lea    -0x800(%rbp),%rax
   17873:	48 89 85 08 ff ff ff 	mov    %rax,-0xf8(%rbp)
   1787a:	48 8d 85 00 f8 ff ff 	lea    -0x800(%rbp),%rax
   17881:	48 89 85 10 ff ff ff 	mov    %rax,-0xf0(%rbp)
   17888:	48 8d 85 00 f8 ff ff 	lea    -0x800(%rbp),%rax
   1788f:	48 89 85 18 ff ff ff 	mov    %rax,-0xe8(%rbp)
   17896:	48 c7 85 20 ff ff ff 	movq   $0x0,-0xe0(%rbp)
   1789d:	00 00 00 00 
   178a1:	48 8d 85 00 f8 ff ff 	lea    -0x800(%rbp),%rax
   178a8:	48 89 85 28 ff ff ff 	mov    %rax,-0xd8(%rbp)
   178af:	48 c7 85 30 ff ff ff 	movq   $0x0,-0xd0(%rbp)
   178b6:	00 00 00 00 
   178ba:	48 c7 85 38 ff ff ff 	movq   $0x0,-0xc8(%rbp)
   178c1:	00 00 00 00 
   178c5:	48 8d 85 00 f8 ff ff 	lea    -0x800(%rbp),%rax
   178cc:	48 89 85 40 ff ff ff 	mov    %rax,-0xc0(%rbp)
   178d3:	48 8d 85 00 f8 ff ff 	lea    -0x800(%rbp),%rax
   178da:	48 89 85 48 ff ff ff 	mov    %rax,-0xb8(%rbp)
   178e1:	48 8d 85 00 f8 ff ff 	lea    -0x800(%rbp),%rax
   178e8:	48 89 85 50 ff ff ff 	mov    %rax,-0xb0(%rbp)
   178ef:	48 c7 85 58 ff ff ff 	movq   $0x0,-0xa8(%rbp)
   178f6:	00 00 00 00 
   178fa:	48 c7 85 60 ff ff ff 	movq   $0x0,-0xa0(%rbp)
   17901:	00 00 00 00 
   17905:	48 8d 85 00 f8 ff ff 	lea    -0x800(%rbp),%rax
   1790c:	48 89 85 68 ff ff ff 	mov    %rax,-0x98(%rbp)
   17913:	48 8d 85 00 f8 ff ff 	lea    -0x800(%rbp),%rax
   1791a:	48 89 85 70 ff ff ff 	mov    %rax,-0x90(%rbp)
   17921:	48 8d 85 00 f8 ff ff 	lea    -0x800(%rbp),%rax
   17928:	48 89 85 78 ff ff ff 	mov    %rax,-0x88(%rbp)
   1792f:	48 c7 45 80 00 00 00 	movq   $0x0,-0x80(%rbp)
   17936:	00 
   17937:	48 8d 85 00 f8 ff ff 	lea    -0x800(%rbp),%rax
   1793e:	48 89 45 88          	mov    %rax,-0x78(%rbp)
   17942:	48 8d 85 00 f8 ff ff 	lea    -0x800(%rbp),%rax
   17949:	48 89 45 90          	mov    %rax,-0x70(%rbp)
   1794d:	48 8d 85 00 f8 ff ff 	lea    -0x800(%rbp),%rax
   17954:	48 89 45 98          	mov    %rax,-0x68(%rbp)
   17958:	48 c7 45 a0 00 00 00 	movq   $0x0,-0x60(%rbp)
   1795f:	00 
   17960:	48 8d 85 00 f8 ff ff 	lea    -0x800(%rbp),%rax
   17967:	48 89 45 a8          	mov    %rax,-0x58(%rbp)
   1796b:	48 8d 85 00 f8 ff ff 	lea    -0x800(%rbp),%rax
   17972:	48 89 45 b0          	mov    %rax,-0x50(%rbp)
   17976:	48 8d 85 00 f8 ff ff 	lea    -0x800(%rbp),%rax
   1797d:	48 89 45 b8          	mov    %rax,-0x48(%rbp)
   17981:	48 8d 05 e0 77 00 00 	lea    0x77e0(%rip),%rax        # 1f168 <g_162+0x28>
   17988:	48 89 85 80 f8 ff ff 	mov    %rax,-0x780(%rbp)
   1798f:	c6 85 c6 f7 ff ff 28 	movb   $0x28,-0x83a(%rbp)
   17996:	48 8d 85 f8 f7 ff ff 	lea    -0x808(%rbp),%rax
   1799d:	48 89 85 88 f8 ff ff 	mov    %rax,-0x778(%rbp)
   179a4:	48 c7 85 90 f8 ff ff 	movq   $0xffffffffffffffff,-0x770(%rbp)
   179ab:	ff ff ff ff 
   179af:	48 c7 85 70 fa ff ff 	movq   $0x1,-0x590(%rbp)
   179b6:	01 00 00 00 
   179ba:	48 b8 7f b6 f0 eb 6b 	movabs $0x63ba376bebf0b67f,%rax
   179c1:	37 ba 63 
   179c4:	48 89 85 78 fa ff ff 	mov    %rax,-0x588(%rbp)
   179cb:	48 bb 3e 65 77 8b a3 	movabs $0xe6741fa38b77653e,%rbx
   179d2:	1f 74 e6 
   179d5:	48 89 9d 80 fa ff ff 	mov    %rbx,-0x580(%rbp)
   179dc:	48 89 85 88 fa ff ff 	mov    %rax,-0x578(%rbp)
   179e3:	48 c7 85 90 fa ff ff 	movq   $0x1,-0x570(%rbp)
   179ea:	01 00 00 00 
   179ee:	48 89 9d 98 fa ff ff 	mov    %rbx,-0x568(%rbp)
   179f5:	48 c7 85 a0 fa ff ff 	movq   $0xffffffffffffffff,-0x560(%rbp)
   179fc:	ff ff ff ff 
   17a00:	48 c7 85 a8 fa ff ff 	movq   $0xffffffffffffffff,-0x558(%rbp)
   17a07:	ff ff ff ff 
   17a0b:	48 c7 85 b0 fa ff ff 	movq   $0xffffffffffffffff,-0x550(%rbp)
   17a12:	ff ff ff ff 
   17a16:	48 89 9d b8 fa ff ff 	mov    %rbx,-0x548(%rbp)
   17a1d:	48 c7 85 c0 fa ff ff 	movq   $0x1,-0x540(%rbp)
   17a24:	01 00 00 00 
   17a28:	48 89 85 c8 fa ff ff 	mov    %rax,-0x538(%rbp)
   17a2f:	66 c7 85 ca f7 ff ff 	movw   $0x1,-0x836(%rbp)
   17a36:	01 00 
   17a38:	48 c7 85 98 f8 ff ff 	movq   $0x0,-0x768(%rbp)
   17a3f:	00 00 00 00 
   17a43:	48 c7 85 a0 f8 ff ff 	movq   $0x0,-0x760(%rbp)
   17a4a:	00 00 00 00 
   17a4e:	c7 85 ec f7 ff ff ff 	movl   $0xffffffff,-0x814(%rbp)
   17a55:	ff ff ff 
   17a58:	48 83 bd 38 f8 ff ff 	cmpq   $0x0,-0x7c8(%rbp)
   17a5f:	00 
   17a60:	83 bd bc f7 ff ff 00 	cmpl   $0x0,-0x844(%rbp)
   17a67:	0f 84 ae 00 00 00    	je     17b1b <func_133+0xce6>
   17a6d:	8b 85 78 fb ff ff    	mov    -0x488(%rbp),%eax
   17a73:	85 c0                	test   %eax,%eax
   17a75:	0f 84 a0 00 00 00    	je     17b1b <func_133+0xce6>
   17a7b:	8b 9d 78 fb ff ff    	mov    -0x488(%rbp),%ebx
   17a81:	8b 85 bc f7 ff ff    	mov    -0x844(%rbp),%eax
   17a87:	48 63 d0             	movslq %eax,%rdx
   17a8a:	0f b6 05 77 76 00 00 	movzbl 0x7677(%rip),%eax        # 1f108 <g_114>
   17a91:	0f b6 c0             	movzbl %al,%eax
   17a94:	48 89 d6             	mov    %rdx,%rsi
   17a97:	48 89 c7             	mov    %rax,%rdi
   17a9a:	e8 e1 35 ff ff       	callq  b080 <safe_mod_func_uint64_t_u_u>
   17a9f:	48 8b 85 68 f8 ff ff 	mov    -0x798(%rbp),%rax
   17aa6:	48 c7 00 00 00 00 00 	movq   $0x0,(%rax)
   17aad:	48 8b 85 68 f8 ff ff 	mov    -0x798(%rbp),%rax
   17ab4:	48 8b 10             	mov    (%rax),%rdx
   17ab7:	48 8b 85 40 fa ff ff 	mov    -0x5c0(%rbp),%rax
   17abe:	48 39 c2             	cmp    %rax,%rdx
   17ac1:	74 0c                	je     17acf <func_133+0xc9a>
   17ac3:	48 8b 05 2e 76 00 00 	mov    0x762e(%rip),%rax        # 1f0f8 <g_98>
   17aca:	48 85 c0             	test   %rax,%rax
   17acd:	75 0a                	jne    17ad9 <func_133+0xca4>
   17acf:	8b 05 ff 75 00 00    	mov    0x75ff(%rip),%eax        # 1f0d4 <g_11>
   17ad5:	85 c0                	test   %eax,%eax
   17ad7:	74 07                	je     17ae0 <func_133+0xcab>
   17ad9:	b8 01 00 00 00       	mov    $0x1,%eax
   17ade:	eb 05                	jmp    17ae5 <func_133+0xcb0>
   17ae0:	b8 00 00 00 00       	mov    $0x0,%eax
   17ae5:	39 d8                	cmp    %ebx,%eax
   17ae7:	0f 9f c0             	setg   %al
   17aea:	0f b6 d0             	movzbl %al,%edx
   17aed:	48 8b 05 24 76 00 00 	mov    0x7624(%rip),%rax        # 1f118 <g_121>
   17af4:	48 8d 0d f9 75 00 00 	lea    0x75f9(%rip),%rcx        # 1f0f4 <g_97>
   17afb:	0f b6 04 08          	movzbl (%rax,%rcx,1),%eax
   17aff:	0f be c0             	movsbl %al,%eax
   17b02:	39 c2                	cmp    %eax,%edx
   17b04:	0f 9f c0             	setg   %al
   17b07:	0f b6 c0             	movzbl %al,%eax
   17b0a:	48 89 05 e7 75 00 00 	mov    %rax,0x75e7(%rip)        # 1f0f8 <g_98>
   17b11:	48 8b 05 e0 75 00 00 	mov    0x75e0(%rip),%rax        # 1f0f8 <g_98>
   17b18:	48 85 c0             	test   %rax,%rax
   17b1b:	0f b7 05 2a b8 00 00 	movzwl 0xb82a(%rip),%eax        # 2334c <g_100>
   17b22:	98                   	cwtl   
   17b23:	be 3d 17 00 00       	mov    $0x173d,%esi
   17b28:	89 c7                	mov    %eax,%edi
   17b2a:	e8 a4 28 ff ff       	callq  a3d3 <safe_sub_func_int16_t_s_s>
   17b2f:	48 8b 15 e2 75 00 00 	mov    0x75e2(%rip),%rdx        # 1f118 <g_121>
   17b36:	48 8d 0d b7 75 00 00 	lea    0x75b7(%rip),%rcx        # 1f0f4 <g_97>
   17b3d:	0f b6 14 0a          	movzbl (%rdx,%rcx,1),%edx
   17b41:	66 0f be d2          	movsbw %dl,%dx
   17b45:	66 39 d0             	cmp    %dx,%ax
   17b48:	0f 95 c0             	setne  %al
   17b4b:	0f b6 c0             	movzbl %al,%eax
   17b4e:	48 be fd 4f 9c 10 cd 	movabs $0xb4d02dcd109c4ffd,%rsi
   17b55:	2d d0 b4 
   17b58:	48 89 c7             	mov    %rax,%rdi
   17b5b:	e8 eb 34 ff ff       	callq  b04b <safe_sub_func_uint64_t_u_u>
   17b60:	8b 95 bc f7 ff ff    	mov    -0x844(%rbp),%edx
   17b66:	48 63 d2             	movslq %edx,%rdx
   17b69:	48 09 d0             	or     %rdx,%rax
   17b6c:	48 85 c0             	test   %rax,%rax
   17b6f:	0f 84 71 02 00 00    	je     17de6 <func_133+0xfb1>
   17b75:	48 8d 05 a8 75 00 00 	lea    0x75a8(%rip),%rax        # 1f124 <g_153>
   17b7c:	48 89 85 e8 f8 ff ff 	mov    %rax,-0x718(%rbp)
   17b83:	c7 85 20 f8 ff ff 01 	movl   $0x1,-0x7e0(%rbp)
   17b8a:	00 00 00 
   17b8d:	48 8d 85 20 f8 ff ff 	lea    -0x7e0(%rbp),%rax
   17b94:	48 89 85 f0 f8 ff ff 	mov    %rax,-0x710(%rbp)
   17b9b:	8b 85 bc f7 ff ff    	mov    -0x844(%rbp),%eax
   17ba1:	0f b6 c0             	movzbl %al,%eax
   17ba4:	be 01 00 00 00       	mov    $0x1,%esi
   17ba9:	89 c7                	mov    %eax,%edi
   17bab:	e8 0e 31 ff ff       	callq  acbe <safe_rshift_func_uint8_t_u_u>
   17bb0:	48 8b 95 e8 f8 ff ff 	mov    -0x718(%rbp),%rdx
   17bb7:	8b 12                	mov    (%rdx),%edx
   17bb9:	0f b6 c0             	movzbl %al,%eax
   17bbc:	21 c2                	and    %eax,%edx
   17bbe:	48 8b 85 e8 f8 ff ff 	mov    -0x718(%rbp),%rax
   17bc5:	89 10                	mov    %edx,(%rax)
   17bc7:	48 8b 85 e8 f8 ff ff 	mov    -0x718(%rbp),%rax
   17bce:	8b 00                	mov    (%rax),%eax
   17bd0:	48 8b 95 68 f8 ff ff 	mov    -0x798(%rbp),%rdx
   17bd7:	48 8d 0d 2c 75 00 00 	lea    0x752c(%rip),%rcx        # 1f10a <g_114+0x2>
   17bde:	48 89 0a             	mov    %rcx,(%rdx)
   17be1:	89 c6                	mov    %eax,%esi
   17be3:	bf 00 00 00 00       	mov    $0x0,%edi
   17be8:	e8 cb 32 ff ff       	callq  aeb8 <safe_add_func_uint32_t_u_u>
   17bed:	8b 85 20 f8 ff ff    	mov    -0x7e0(%rbp),%eax
   17bf3:	85 c0                	test   %eax,%eax
   17bf5:	0f 84 6c 01 00 00    	je     17d67 <func_133+0xf32>
   17bfb:	c7 85 dc f7 ff ff 00 	movl   $0x0,-0x824(%rbp)
   17c02:	00 00 00 
   17c05:	eb 1b                	jmp    17c22 <func_133+0xded>
   17c07:	8b 85 dc f7 ff ff    	mov    -0x824(%rbp),%eax
   17c0d:	48 98                	cltq   
   17c0f:	48 c7 84 c5 d0 f9 ff 	movq   $0x0,-0x630(%rbp,%rax,8)
   17c16:	ff 00 00 00 00 
   17c1b:	83 85 dc f7 ff ff 01 	addl   $0x1,-0x824(%rbp)
   17c22:	83 bd dc f7 ff ff 01 	cmpl   $0x1,-0x824(%rbp)
   17c29:	7e dc                	jle    17c07 <func_133+0xdd2>
   17c2b:	c7 05 bb 74 00 00 00 	movl   $0x0,0x74bb(%rip)        # 1f0f0 <g_74>
   17c32:	00 00 00 
   17c35:	eb 67                	jmp    17c9e <func_133+0xe69>
   17c37:	48 8d 05 aa 74 00 00 	lea    0x74aa(%rip),%rax        # 1f0e8 <g_65>
   17c3e:	48 89 85 28 f8 ff ff 	mov    %rax,-0x7d8(%rbp)
   17c45:	48 8d 85 28 f8 ff ff 	lea    -0x7d8(%rbp),%rax
   17c4c:	48 89 85 10 f9 ff ff 	mov    %rax,-0x6f0(%rbp)
   17c53:	48 8b 85 28 f8 ff ff 	mov    -0x7d8(%rbp),%rax
   17c5a:	c7 00 ff ff ff ff    	movl   $0xffffffff,(%rax)
   17c60:	8b 10                	mov    (%rax),%edx
   17c62:	8b 05 84 74 00 00    	mov    0x7484(%rip),%eax        # 1f0ec <g_69>
   17c68:	31 d0                	xor    %edx,%eax
   17c6a:	89 05 7c 74 00 00    	mov    %eax,0x747c(%rip)        # 1f0ec <g_69>
   17c70:	48 8b 85 40 f8 ff ff 	mov    -0x7c0(%rbp),%rax
   17c77:	48 89 85 d0 fd ff ff 	mov    %rax,-0x230(%rbp)
   17c7e:	48 8b 85 10 f9 ff ff 	mov    -0x6f0(%rbp),%rax
   17c85:	48 8d 15 48 74 00 00 	lea    0x7448(%rip),%rdx        # 1f0d4 <g_11>
   17c8c:	48 89 10             	mov    %rdx,(%rax)
   17c8f:	8b 05 5b 74 00 00    	mov    0x745b(%rip),%eax        # 1f0f0 <g_74>
   17c95:	83 c0 01             	add    $0x1,%eax
   17c98:	89 05 52 74 00 00    	mov    %eax,0x7452(%rip)        # 1f0f0 <g_74>
   17c9e:	8b 05 4c 74 00 00    	mov    0x744c(%rip),%eax        # 1f0f0 <g_74>
   17ca4:	85 c0                	test   %eax,%eax
   17ca6:	74 8f                	je     17c37 <func_133+0xe02>
   17ca8:	48 c7 85 80 f8 ff ff 	movq   $0x0,-0x780(%rbp)
   17caf:	00 00 00 00 
   17cb3:	c7 05 67 74 00 00 00 	movl   $0x0,0x7467(%rip)        # 1f124 <g_153>
   17cba:	00 00 00 
   17cbd:	e9 88 00 00 00       	jmpq   17d4a <func_133+0xf15>
   17cc2:	48 8d 85 08 f8 ff ff 	lea    -0x7f8(%rbp),%rax
   17cc9:	48 89 85 28 f8 ff ff 	mov    %rax,-0x7d8(%rbp)
   17cd0:	48 8d 85 28 f8 ff ff 	lea    -0x7d8(%rbp),%rax
   17cd7:	48 89 85 f8 f8 ff ff 	mov    %rax,-0x708(%rbp)
   17cde:	48 c7 85 00 f9 ff ff 	movq   $0x0,-0x700(%rbp)
   17ce5:	00 00 00 00 
   17ce9:	48 8d 85 f8 f7 ff ff 	lea    -0x808(%rbp),%rax
   17cf0:	48 89 85 08 f9 ff ff 	mov    %rax,-0x6f8(%rbp)
   17cf7:	48 8b 95 b8 f9 ff ff 	mov    -0x648(%rbp),%rdx
   17cfe:	48 8b 85 f8 f8 ff ff 	mov    -0x708(%rbp),%rax
   17d05:	48 89 10             	mov    %rdx,(%rax)
   17d08:	48 8b 95 f8 f7 ff ff 	mov    -0x808(%rbp),%rdx
   17d0f:	48 8b 85 08 f9 ff ff 	mov    -0x6f8(%rbp),%rax
   17d16:	48 89 10             	mov    %rdx,(%rax)
   17d19:	48 8b 85 08 f9 ff ff 	mov    -0x6f8(%rbp),%rax
   17d20:	48 8b 00             	mov    (%rax),%rax
   17d23:	48 89 85 f0 f8 ff ff 	mov    %rax,-0x710(%rbp)
   17d2a:	48 8b 85 28 f8 ff ff 	mov    -0x7d8(%rbp),%rax
   17d31:	48 8b 95 f0 f8 ff ff 	mov    -0x710(%rbp),%rdx
   17d38:	48 89 10             	mov    %rdx,(%rax)
   17d3b:	8b 05 e3 73 00 00    	mov    0x73e3(%rip),%eax        # 1f124 <g_153>
   17d41:	83 c0 01             	add    $0x1,%eax
   17d44:	89 05 da 73 00 00    	mov    %eax,0x73da(%rip)        # 1f124 <g_153>
   17d4a:	8b 05 d4 73 00 00    	mov    0x73d4(%rip),%eax        # 1f124 <g_153>
   17d50:	85 c0                	test   %eax,%eax
   17d52:	0f 84 6a ff ff ff    	je     17cc2 <func_133+0xe8d>
   17d58:	8b 05 c2 73 00 00    	mov    0x73c2(%rip),%eax        # 1f120 <g_122>
   17d5e:	85 c0                	test   %eax,%eax
   17d60:	74 59                	je     17dbb <func_133+0xf86>
   17d62:	e9 0d 0a 00 00       	jmpq   18774 <func_133+0x193f>
   17d67:	66 c7 85 ce f7 ff ff 	movw   $0xffff,-0x832(%rbp)
   17d6e:	ff ff 
   17d70:	c7 05 aa 73 00 00 00 	movl   $0x0,0x73aa(%rip)        # 1f124 <g_153>
   17d77:	00 00 00 
   17d7a:	90                   	nop
   17d7b:	8b 05 a3 73 00 00    	mov    0x73a3(%rip),%eax        # 1f124 <g_153>
   17d81:	85 c0                	test   %eax,%eax
   17d83:	75 36                	jne    17dbb <func_133+0xf86>
   17d85:	0f b6 85 c6 f7 ff ff 	movzbl -0x83a(%rbp),%eax
   17d8c:	be 06 00 00 00       	mov    $0x6,%esi
   17d91:	89 c7                	mov    %eax,%edi
   17d93:	e8 f5 2e ff ff       	callq  ac8d <safe_rshift_func_uint8_t_u_s>
   17d98:	8b 85 bc f7 ff ff    	mov    -0x844(%rbp),%eax
   17d9e:	89 c2                	mov    %eax,%edx
   17da0:	0f b7 85 ce f7 ff ff 	movzwl -0x832(%rbp),%eax
   17da7:	31 d0                	xor    %edx,%eax
   17da9:	66 89 85 ce f7 ff ff 	mov    %ax,-0x832(%rbp)
   17db0:	8b 05 2a 73 00 00    	mov    0x732a(%rip),%eax        # 1f0e0 <g_59>
   17db6:	e9 9b 0a 00 00       	jmpq   18856 <func_133+0x1a21>
   17dbb:	c6 85 c6 f7 ff ff 00 	movb   $0x0,-0x83a(%rbp)
   17dc2:	eb 14                	jmp    17dd8 <func_133+0xfa3>
   17dc4:	83 bd bc f7 ff ff 00 	cmpl   $0x0,-0x844(%rbp)
   17dcb:	0f 85 2a 07 00 00    	jne    184fb <func_133+0x16c6>
   17dd1:	80 85 c6 f7 ff ff 01 	addb   $0x1,-0x83a(%rbp)
   17dd8:	80 bd c6 f7 ff ff 00 	cmpb   $0x0,-0x83a(%rbp)
   17ddf:	74 e3                	je     17dc4 <func_133+0xf8f>
   17de1:	e9 16 07 00 00       	jmpq   184fc <func_133+0x16c7>
   17de6:	48 c7 85 20 f8 ff ff 	movq   $0xffffffffffffffff,-0x7e0(%rbp)
   17ded:	ff ff ff ff 
   17df1:	48 8d 05 98 a2 00 00 	lea    0xa298(%rip),%rax        # 22090 <g_192>
   17df8:	48 89 85 a8 f8 ff ff 	mov    %rax,-0x758(%rbp)
   17dff:	48 c7 85 28 f8 ff ff 	movq   $0x0,-0x7d8(%rbp)
   17e06:	00 00 00 00 
   17e0a:	c7 85 f0 f7 ff ff 69 	movl   $0x8aaa1069,-0x810(%rbp)
   17e11:	10 aa 8a 
   17e14:	48 8d 05 4d 73 00 00 	lea    0x734d(%rip),%rax        # 1f168 <g_162+0x28>
   17e1b:	48 89 85 b0 f8 ff ff 	mov    %rax,-0x750(%rbp)
   17e22:	48 8d 85 20 f8 ff ff 	lea    -0x7e0(%rbp),%rax
   17e29:	48 89 85 b8 f8 ff ff 	mov    %rax,-0x748(%rbp)
   17e30:	48 8d 05 39 73 00 00 	lea    0x7339(%rip),%rax        # 1f170 <g_215>
   17e37:	48 89 85 c0 f8 ff ff 	mov    %rax,-0x740(%rbp)
   17e3e:	48 8d 05 a3 72 00 00 	lea    0x72a3(%rip),%rax        # 1f0e8 <g_65>
   17e45:	48 89 85 d0 f9 ff ff 	mov    %rax,-0x630(%rbp)
   17e4c:	48 8d 05 95 72 00 00 	lea    0x7295(%rip),%rax        # 1f0e8 <g_65>
   17e53:	48 89 85 d8 f9 ff ff 	mov    %rax,-0x628(%rbp)
   17e5a:	48 8d 05 87 72 00 00 	lea    0x7287(%rip),%rax        # 1f0e8 <g_65>
   17e61:	48 89 85 e0 f9 ff ff 	mov    %rax,-0x620(%rbp)
   17e68:	48 8d 05 79 72 00 00 	lea    0x7279(%rip),%rax        # 1f0e8 <g_65>
   17e6f:	48 89 85 e8 f9 ff ff 	mov    %rax,-0x618(%rbp)
   17e76:	48 8d 05 6b 72 00 00 	lea    0x726b(%rip),%rax        # 1f0e8 <g_65>
   17e7d:	48 89 85 f0 f9 ff ff 	mov    %rax,-0x610(%rbp)
   17e84:	c7 85 d4 f7 ff ff 00 	movl   $0x0,-0x82c(%rbp)
   17e8b:	00 00 00 
   17e8e:	eb 1e                	jmp    17eae <func_133+0x1079>
   17e90:	8b 85 d4 f7 ff ff    	mov    -0x82c(%rbp),%eax
   17e96:	48 98                	cltq   
   17e98:	48 8d 95 28 f8 ff ff 	lea    -0x7d8(%rbp),%rdx
   17e9f:	48 89 94 c5 40 f9 ff 	mov    %rdx,-0x6c0(%rbp,%rax,8)
   17ea6:	ff 
   17ea7:	83 85 d4 f7 ff ff 01 	addl   $0x1,-0x82c(%rbp)
   17eae:	83 bd d4 f7 ff ff 00 	cmpl   $0x0,-0x82c(%rbp)
   17eb5:	7e d9                	jle    17e90 <func_133+0x105b>
   17eb7:	8b 1d 67 72 00 00    	mov    0x7267(%rip),%ebx        # 1f124 <g_153>
   17ebd:	8b 85 bc f7 ff ff    	mov    -0x844(%rbp),%eax
   17ec3:	4c 63 e0             	movslq %eax,%r12
   17ec6:	8b 85 bc f7 ff ff    	mov    -0x844(%rbp),%eax
   17ecc:	0f be c0             	movsbl %al,%eax
   17ecf:	89 c6                	mov    %eax,%esi
   17ed1:	bf fe ff ff ff       	mov    $0xfffffffe,%edi
   17ed6:	e8 8f 23 ff ff       	callq  a26a <safe_div_func_int8_t_s_s>
   17edb:	84 c0                	test   %al,%al
   17edd:	75 09                	jne    17ee8 <func_133+0x10b3>
   17edf:	83 bd bc f7 ff ff 00 	cmpl   $0x0,-0x844(%rbp)
   17ee6:	74 07                	je     17eef <func_133+0x10ba>
   17ee8:	b8 01 00 00 00       	mov    $0x1,%eax
   17eed:	eb 05                	jmp    17ef4 <func_133+0x10bf>
   17eef:	b8 00 00 00 00       	mov    $0x0,%eax
   17ef4:	0f be c0             	movsbl %al,%eax
   17ef7:	be f6 ff ff ff       	mov    $0xfffffff6,%esi
   17efc:	89 c7                	mov    %eax,%edi
   17efe:	e8 0f 23 ff ff       	callq  a212 <safe_mul_func_int8_t_s_s>
   17f03:	48 83 bd 88 f8 ff ff 	cmpq   $0x0,-0x778(%rbp)
   17f0a:	00 
   17f0b:	0f 95 c0             	setne  %al
   17f0e:	0f b6 c0             	movzbl %al,%eax
   17f11:	be 00 00 00 00       	mov    $0x0,%esi
   17f16:	48 89 c7             	mov    %rax,%rdi
   17f19:	e8 8a 29 ff ff       	callq  a8a8 <safe_sub_func_int64_t_s_s>
   17f1e:	49 39 c4             	cmp    %rax,%r12
   17f21:	0f 9d c0             	setge  %al
   17f24:	0f b6 c0             	movzbl %al,%eax
   17f27:	be 01 00 00 00       	mov    $0x1,%esi
   17f2c:	89 c7                	mov    %eax,%edi
   17f2e:	e8 39 24 ff ff       	callq  a36c <safe_rshift_func_int8_t_s_u>
   17f33:	8b 85 bc f7 ff ff    	mov    -0x844(%rbp),%eax
   17f39:	48 63 d0             	movslq %eax,%rdx
   17f3c:	48 8b 85 20 f8 ff ff 	mov    -0x7e0(%rbp),%rax
   17f43:	48 39 c2             	cmp    %rax,%rdx
   17f46:	0f 92 c0             	setb   %al
   17f49:	0f b6 c0             	movzbl %al,%eax
   17f4c:	89 de                	mov    %ebx,%esi
   17f4e:	89 c7                	mov    %eax,%edi
   17f50:	e8 b1 2e ff ff       	callq  ae06 <safe_lshift_func_uint16_t_u_u>
   17f55:	0f b7 d0             	movzwl %ax,%edx
   17f58:	48 8b 85 20 f8 ff ff 	mov    -0x7e0(%rbp),%rax
   17f5f:	48 83 f8 08          	cmp    $0x8,%rax
   17f63:	0f 97 c0             	seta   %al
   17f66:	0f b6 c0             	movzbl %al,%eax
   17f69:	89 d6                	mov    %edx,%esi
   17f6b:	89 c7                	mov    %eax,%edi
   17f6d:	e8 cb 2d ff ff       	callq  ad3d <safe_mul_func_uint16_t_u_u>
   17f72:	89 c2                	mov    %eax,%edx
   17f74:	48 8b 85 f8 f7 ff ff 	mov    -0x808(%rbp),%rax
   17f7b:	0f b7 d2             	movzwl %dx,%edx
   17f7e:	89 10                	mov    %edx,(%rax)
   17f80:	8b 95 f0 f7 ff ff    	mov    -0x810(%rbp),%edx
   17f86:	48 8b 0d 03 a1 00 00 	mov    0xa103(%rip),%rcx        # 22090 <g_192>
   17f8d:	48 8b 85 a8 f8 ff ff 	mov    -0x758(%rbp),%rax
   17f94:	48 89 08             	mov    %rcx,(%rax)
   17f97:	48 8b 85 a8 f8 ff ff 	mov    -0x758(%rbp),%rax
   17f9e:	48 8b 00             	mov    (%rax),%rax
   17fa1:	48 89 05 a8 b3 00 00 	mov    %rax,0xb3a8(%rip)        # 23350 <g_198>
   17fa8:	48 8b 05 a1 b3 00 00 	mov    0xb3a1(%rip),%rax        # 23350 <g_198>
   17faf:	48 8d 0d d2 a0 00 00 	lea    0xa0d2(%rip),%rcx        # 22088 <g_193>
   17fb6:	48 39 c8             	cmp    %rcx,%rax
   17fb9:	0f 94 c0             	sete   %al
   17fbc:	0f b6 c0             	movzbl %al,%eax
   17fbf:	89 d6                	mov    %edx,%esi
   17fc1:	89 c7                	mov    %eax,%edi
   17fc3:	e8 3e 2e ff ff       	callq  ae06 <safe_lshift_func_uint16_t_u_u>
   17fc8:	0f b7 d0             	movzwl %ax,%edx
   17fcb:	48 8b 85 f8 f7 ff ff 	mov    -0x808(%rbp),%rax
   17fd2:	8b 00                	mov    (%rax),%eax
   17fd4:	39 c2                	cmp    %eax,%edx
   17fd6:	0f 9f c0             	setg   %al
   17fd9:	0f b6 d0             	movzbl %al,%edx
   17fdc:	48 83 bd 30 f8 ff ff 	cmpq   $0x0,-0x7d0(%rbp)
   17fe3:	00 
   17fe4:	0f 95 c0             	setne  %al
   17fe7:	0f b6 c0             	movzbl %al,%eax
   17fea:	39 c2                	cmp    %eax,%edx
   17fec:	7d 13                	jge    18001 <func_133+0x11cc>
   17fee:	48 8b 05 63 b3 00 00 	mov    0xb363(%rip),%rax        # 23358 <g_201>
   17ff5:	48 85 c0             	test   %rax,%rax
   17ff8:	75 07                	jne    18001 <func_133+0x11cc>
   17ffa:	b9 01 00 00 00       	mov    $0x1,%ecx
   17fff:	eb 05                	jmp    18006 <func_133+0x11d1>
   18001:	b9 00 00 00 00       	mov    $0x0,%ecx
   18006:	48 8b 85 b8 f8 ff ff 	mov    -0x748(%rbp),%rax
   1800d:	48 8b 10             	mov    (%rax),%rdx
   18010:	48 63 c1             	movslq %ecx,%rax
   18013:	48 09 c2             	or     %rax,%rdx
   18016:	48 8b 85 b8 f8 ff ff 	mov    -0x748(%rbp),%rax
   1801d:	48 89 10             	mov    %rdx,(%rax)
   18020:	48 8b 85 b8 f8 ff ff 	mov    -0x748(%rbp),%rax
   18027:	4c 8b 38             	mov    (%rax),%r15
   1802a:	8b 85 bc f7 ff ff    	mov    -0x844(%rbp),%eax
   18030:	0f b7 d8             	movzwl %ax,%ebx
   18033:	48 8b 05 be 70 00 00 	mov    0x70be(%rip),%rax        # 1f0f8 <g_98>
   1803a:	44 0f bf e0          	movswl %ax,%r12d
   1803e:	48 8b 85 f8 f7 ff ff 	mov    -0x808(%rbp),%rax
   18045:	8b 00                	mov    (%rax),%eax
   18047:	4c 63 e8             	movslq %eax,%r13
   1804a:	44 8b 35 d3 70 00 00 	mov    0x70d3(%rip),%r14d        # 1f124 <g_153>
   18051:	8b 85 bc f7 ff ff    	mov    -0x844(%rbp),%eax
   18057:	0f b6 d0             	movzbl %al,%edx
   1805a:	0f b7 05 78 70 00 00 	movzwl 0x7078(%rip),%eax        # 1f0d9 <g_34>
   18061:	88 05 a4 70 00 00    	mov    %al,0x70a4(%rip)        # 1f10b <g_114+0x3>
   18067:	0f b6 05 9d 70 00 00 	movzbl 0x709d(%rip),%eax        # 1f10b <g_114+0x3>
   1806e:	0f b6 c0             	movzbl %al,%eax
   18071:	89 d6                	mov    %edx,%esi
   18073:	89 c7                	mov    %eax,%edi
   18075:	e8 61 2b ff ff       	callq  abdb <safe_div_func_uint8_t_u_u>
   1807a:	84 c0                	test   %al,%al
   1807c:	74 12                	je     18090 <func_133+0x125b>
   1807e:	0f b6 05 87 70 00 00 	movzbl 0x7087(%rip),%eax        # 1f10c <g_114+0x4>
   18085:	84 c0                	test   %al,%al
   18087:	74 07                	je     18090 <func_133+0x125b>
   18089:	b8 01 00 00 00       	mov    $0x1,%eax
   1808e:	eb 05                	jmp    18095 <func_133+0x1260>
   18090:	b8 00 00 00 00       	mov    $0x0,%eax
   18095:	44 89 f6             	mov    %r14d,%esi
   18098:	89 c7                	mov    %eax,%edi
   1809a:	e8 31 2e ff ff       	callq  aed0 <safe_sub_func_uint32_t_u_u>
   1809f:	89 c0                	mov    %eax,%eax
   180a1:	4c 89 ee             	mov    %r13,%rsi
   180a4:	48 89 c7             	mov    %rax,%rdi
   180a7:	e8 9f 2f ff ff       	callq  b04b <safe_sub_func_uint64_t_u_u>
   180ac:	98                   	cwtl   
   180ad:	44 89 e6             	mov    %r12d,%esi
   180b0:	89 c7                	mov    %eax,%edi
   180b2:	e8 3e 23 ff ff       	callq  a3f5 <safe_mul_func_int16_t_s_s>
   180b7:	89 de                	mov    %ebx,%esi
   180b9:	bf 01 00 00 00       	mov    $0x1,%edi
   180be:	e8 7a 2c ff ff       	callq  ad3d <safe_mul_func_uint16_t_u_u>
   180c3:	48 8b 95 c0 f8 ff ff 	mov    -0x740(%rbp),%rdx
   180ca:	48 8b 12             	mov    (%rdx),%rdx
   180cd:	0f b7 c0             	movzwl %ax,%eax
   180d0:	48 09 c2             	or     %rax,%rdx
   180d3:	48 8b 85 c0 f8 ff ff 	mov    -0x740(%rbp),%rax
   180da:	48 89 10             	mov    %rdx,(%rax)
   180dd:	48 8b 85 c0 f8 ff ff 	mov    -0x740(%rbp),%rax
   180e4:	48 8b 00             	mov    (%rax),%rax
   180e7:	48 89 05 0a 70 00 00 	mov    %rax,0x700a(%rip)        # 1f0f8 <g_98>
   180ee:	48 8b 05 03 70 00 00 	mov    0x7003(%rip),%rax        # 1f0f8 <g_98>
   180f5:	4c 21 f8             	and    %r15,%rax
   180f8:	48 85 c0             	test   %rax,%rax
   180fb:	75 09                	jne    18106 <func_133+0x12d1>
   180fd:	83 bd bc f7 ff ff 00 	cmpl   $0x0,-0x844(%rbp)
   18104:	74 07                	je     1810d <func_133+0x12d8>
   18106:	ba 01 00 00 00       	mov    $0x1,%edx
   1810b:	eb 05                	jmp    18112 <func_133+0x12dd>
   1810d:	ba 00 00 00 00       	mov    $0x0,%edx
   18112:	48 8b 05 67 9f 00 00 	mov    0x9f67(%rip),%rax        # 22080 <g_194>
   18119:	8b 00                	mov    (%rax),%eax
   1811b:	39 c2                	cmp    %eax,%edx
   1811d:	0f 95 c0             	setne  %al
   18120:	0f b6 c0             	movzbl %al,%eax
   18123:	33 85 bc f7 ff ff    	xor    -0x844(%rbp),%eax
   18129:	0d 2b 1b 00 00       	or     $0x1b2b,%eax
   1812e:	3d ff 00 00 00       	cmp    $0xff,%eax
   18133:	0f 87 92 02 00 00    	ja     183cb <func_133+0x1596>
   18139:	48 8d 05 38 70 00 00 	lea    0x7038(%rip),%rax        # 1f178 <g_229>
   18140:	48 89 85 d0 f8 ff ff 	mov    %rax,-0x730(%rbp)
   18147:	48 8d 05 2c 70 00 00 	lea    0x702c(%rip),%rax        # 1f17a <g_235>
   1814e:	48 89 85 d8 f8 ff ff 	mov    %rax,-0x728(%rbp)
   18155:	48 8d 05 74 6f 00 00 	lea    0x6f74(%rip),%rax        # 1f0d0 <g_10>
   1815c:	48 89 85 e0 f8 ff ff 	mov    %rax,-0x720(%rbp)
   18163:	0f b7 05 e2 b1 00 00 	movzwl 0xb1e2(%rip),%eax        # 2334c <g_100>
   1816a:	0f b6 d8             	movzbl %al,%ebx
   1816d:	8b 95 bc f7 ff ff    	mov    -0x844(%rbp),%edx
   18173:	8b 85 bc f7 ff ff    	mov    -0x844(%rbp),%eax
   18179:	0f be c0             	movsbl %al,%eax
   1817c:	89 d6                	mov    %edx,%esi
   1817e:	89 c7                	mov    %eax,%edi
   18180:	e8 69 21 ff ff       	callq  a2ee <safe_lshift_func_int8_t_s_u>
   18185:	66 44 0f be e8       	movsbw %al,%r13w
   1818a:	8b 05 5c 6f 00 00    	mov    0x6f5c(%rip),%eax        # 1f0ec <g_69>
   18190:	85 c0                	test   %eax,%eax
   18192:	75 66                	jne    181fa <func_133+0x13c5>
   18194:	48 8b 85 f8 f7 ff ff 	mov    -0x808(%rbp),%rax
   1819b:	8b 00                	mov    (%rax),%eax
   1819d:	4c 63 e0             	movslq %eax,%r12
   181a0:	48 8b 85 88 f8 ff ff 	mov    -0x778(%rbp),%rax
   181a7:	48 8b 00             	mov    (%rax),%rax
   181aa:	8b 00                	mov    (%rax),%eax
   181ac:	89 c2                	mov    %eax,%edx
   181ae:	8b 85 bc f7 ff ff    	mov    -0x844(%rbp),%eax
   181b4:	89 d6                	mov    %edx,%esi
   181b6:	89 c7                	mov    %eax,%edi
   181b8:	e8 68 2d ff ff       	callq  af25 <safe_div_func_uint32_t_u_u>
   181bd:	89 c0                	mov    %eax,%eax
   181bf:	4c 89 e6             	mov    %r12,%rsi
   181c2:	48 89 c7             	mov    %rax,%rdi
   181c5:	e8 ea 27 ff ff       	callq  a9b4 <safe_mod_func_int64_t_s_s>
   181ca:	8b 05 18 6f 00 00    	mov    0x6f18(%rip),%eax        # 1f0e8 <g_65>
   181d0:	89 c2                	mov    %eax,%edx
   181d2:	48 8b 85 d0 f8 ff ff 	mov    -0x730(%rbp),%rax
   181d9:	66 89 10             	mov    %dx,(%rax)
   181dc:	48 8b 85 d0 f8 ff ff 	mov    -0x730(%rbp),%rax
   181e3:	0f b7 00             	movzwl (%rax),%eax
   181e6:	0f bf d0             	movswl %ax,%edx
   181e9:	83 bd bc f7 ff ff f7 	cmpl   $0xfffffff7,-0x844(%rbp)
   181f0:	0f 94 c0             	sete   %al
   181f3:	0f b6 c0             	movzbl %al,%eax
   181f6:	39 c2                	cmp    %eax,%edx
   181f8:	75 07                	jne    18201 <func_133+0x13cc>
   181fa:	b8 01 00 00 00       	mov    $0x1,%eax
   181ff:	eb 05                	jmp    18206 <func_133+0x13d1>
   18201:	b8 00 00 00 00       	mov    $0x0,%eax
   18206:	89 c2                	mov    %eax,%edx
   18208:	48 8b 85 d8 f8 ff ff 	mov    -0x728(%rbp),%rax
   1820f:	66 89 10             	mov    %dx,(%rax)
   18212:	48 8b 85 d8 f8 ff ff 	mov    -0x728(%rbp),%rax
   18219:	0f b7 00             	movzwl (%rax),%eax
   1821c:	66 85 c0             	test   %ax,%ax
   1821f:	75 16                	jne    18237 <func_133+0x1402>
   18221:	48 8b 85 a8 f8 ff ff 	mov    -0x758(%rbp),%rax
   18228:	48 8b 00             	mov    (%rax),%rax
   1822b:	48 8b 00             	mov    (%rax),%rax
   1822e:	48 8b 00             	mov    (%rax),%rax
   18231:	8b 00                	mov    (%rax),%eax
   18233:	85 c0                	test   %eax,%eax
   18235:	74 07                	je     1823e <func_133+0x1409>
   18237:	b8 01 00 00 00       	mov    $0x1,%eax
   1823c:	eb 05                	jmp    18243 <func_133+0x140e>
   1823e:	b8 00 00 00 00       	mov    $0x0,%eax
   18243:	48 63 d0             	movslq %eax,%rdx
   18246:	48 8b 85 b8 f8 ff ff 	mov    -0x748(%rbp),%rax
   1824d:	48 89 10             	mov    %rdx,(%rax)
   18250:	48 8b 85 b8 f8 ff ff 	mov    -0x748(%rbp),%rax
   18257:	48 8b 10             	mov    (%rax),%rdx
   1825a:	48 8b 85 b0 f8 ff ff 	mov    -0x750(%rbp),%rax
   18261:	48 89 10             	mov    %rdx,(%rax)
   18264:	48 8b 85 b0 f8 ff ff 	mov    -0x750(%rbp),%rax
   1826b:	48 8b 00             	mov    (%rax),%rax
   1826e:	f7 d0                	not    %eax
   18270:	8b 95 bc f7 ff ff    	mov    -0x844(%rbp),%edx
   18276:	21 d0                	and    %edx,%eax
   18278:	0f b6 d0             	movzbl %al,%edx
   1827b:	0f b6 05 72 6e 00 00 	movzbl 0x6e72(%rip),%eax        # 1f0f4 <g_97>
   18282:	0f b6 c0             	movzbl %al,%eax
   18285:	89 d6                	mov    %edx,%esi
   18287:	89 c7                	mov    %eax,%edi
   18289:	e8 20 29 ff ff       	callq  abae <safe_mod_func_uint8_t_u_u>
   1828e:	0f b6 c0             	movzbl %al,%eax
   18291:	be 07 00 00 00       	mov    $0x7,%esi
   18296:	89 c7                	mov    %eax,%edi
   18298:	e8 44 22 ff ff       	callq  a4e1 <safe_lshift_func_int16_t_s_u>
   1829d:	66 41 39 c5          	cmp    %ax,%r13w
   182a1:	0f 95 c0             	setne  %al
   182a4:	0f b6 c0             	movzbl %al,%eax
   182a7:	0b 85 bc f7 ff ff    	or     -0x844(%rbp),%eax
   182ad:	8b 95 bc f7 ff ff    	mov    -0x844(%rbp),%edx
   182b3:	89 d6                	mov    %edx,%esi
   182b5:	89 c7                	mov    %eax,%edi
   182b7:	e8 fa 22 ff ff       	callq  a5b6 <safe_add_func_int32_t_s_s>
   182bc:	0f b6 c0             	movzbl %al,%eax
   182bf:	89 de                	mov    %ebx,%esi
   182c1:	89 c7                	mov    %eax,%edi
   182c3:	e8 cb 28 ff ff       	callq  ab93 <safe_mul_func_uint8_t_u_u>
   182c8:	84 c0                	test   %al,%al
   182ca:	75 09                	jne    182d5 <func_133+0x14a0>
   182cc:	83 bd bc f7 ff ff 00 	cmpl   $0x0,-0x844(%rbp)
   182d3:	74 07                	je     182dc <func_133+0x14a7>
   182d5:	ba 01 00 00 00       	mov    $0x1,%edx
   182da:	eb 05                	jmp    182e1 <func_133+0x14ac>
   182dc:	ba 00 00 00 00       	mov    $0x0,%edx
   182e1:	48 8b 05 30 6e 00 00 	mov    0x6e30(%rip),%rax        # 1f118 <g_121>
   182e8:	89 d1                	mov    %edx,%ecx
   182ea:	48 8d 15 03 6e 00 00 	lea    0x6e03(%rip),%rdx        # 1f0f4 <g_97>
   182f1:	88 0c 10             	mov    %cl,(%rax,%rdx,1)
   182f4:	48 8d 15 f9 6d 00 00 	lea    0x6df9(%rip),%rdx        # 1f0f4 <g_97>
   182fb:	0f b6 04 10          	movzbl (%rax,%rdx,1),%eax
   182ff:	0f b6 c0             	movzbl %al,%eax
   18302:	89 c6                	mov    %eax,%esi
   18304:	bf 00 00 00 00       	mov    $0x0,%edi
   18309:	e8 6a 28 ff ff       	callq  ab78 <safe_sub_func_uint8_t_u_u>
   1830e:	84 c0                	test   %al,%al
   18310:	74 6c                	je     1837e <func_133+0x1549>
   18312:	48 8b 05 77 9d 00 00 	mov    0x9d77(%rip),%rax        # 22090 <g_192>
   18319:	48 8b 00             	mov    (%rax),%rax
   1831c:	48 8b 95 f8 f7 ff ff 	mov    -0x808(%rbp),%rdx
   18323:	48 89 10             	mov    %rdx,(%rax)
   18326:	48 8b 05 53 9d 00 00 	mov    0x9d53(%rip),%rax        # 22080 <g_194>
   1832d:	8b 00                	mov    (%rax),%eax
   1832f:	85 c0                	test   %eax,%eax
   18331:	0f 85 5e 04 00 00    	jne    18795 <func_133+0x1960>
   18337:	48 8b 85 88 f8 ff ff 	mov    -0x778(%rbp),%rax
   1833e:	48 8b 00             	mov    (%rax),%rax
   18341:	8b 00                	mov    (%rax),%eax
   18343:	85 c0                	test   %eax,%eax
   18345:	0f 85 4d 04 00 00    	jne    18798 <func_133+0x1963>
   1834b:	48 8b 05 c6 6d 00 00 	mov    0x6dc6(%rip),%rax        # 1f118 <g_121>
   18352:	48 8d 15 9b 6d 00 00 	lea    0x6d9b(%rip),%rdx        # 1f0f4 <g_97>
   18359:	0f b6 14 10          	movzbl (%rax,%rdx,1),%edx
   1835d:	48 8b 85 f8 f7 ff ff 	mov    -0x808(%rbp),%rax
   18364:	0f be d2             	movsbl %dl,%edx
   18367:	89 10                	mov    %edx,(%rax)
   18369:	48 8b 05 18 9d 00 00 	mov    0x9d18(%rip),%rax        # 22088 <g_193>
   18370:	48 8b 00             	mov    (%rax),%rax
   18373:	8b 00                	mov    (%rax),%eax
   18375:	85 c0                	test   %eax,%eax
   18377:	74 39                	je     183b2 <func_133+0x157d>
   18379:	e9 f6 03 00 00       	jmpq   18774 <func_133+0x193f>
   1837e:	48 83 bd 90 f8 ff ff 	cmpq   $0x0,-0x770(%rbp)
   18385:	00 
   18386:	0f 85 0f 04 00 00    	jne    1879b <func_133+0x1966>
   1838c:	83 bd bc f7 ff ff 00 	cmpl   $0x0,-0x844(%rbp)
   18393:	0f 85 05 04 00 00    	jne    1879e <func_133+0x1969>
   18399:	83 bd bc f7 ff ff 00 	cmpl   $0x0,-0x844(%rbp)
   183a0:	0f 85 fb 03 00 00    	jne    187a1 <func_133+0x196c>
   183a6:	48 8b 05 4b 6d 00 00 	mov    0x6d4b(%rip),%rax        # 1f0f8 <g_98>
   183ad:	e9 a4 04 00 00       	jmpq   18856 <func_133+0x1a21>
   183b2:	48 8b 85 e0 f8 ff ff 	mov    -0x720(%rbp),%rax
   183b9:	48 89 85 d0 f9 ff ff 	mov    %rax,-0x630(%rbp)
   183c0:	8b 85 bc f7 ff ff    	mov    -0x844(%rbp),%eax
   183c6:	e9 8b 04 00 00       	jmpq   18856 <func_133+0x1a21>
   183cb:	48 8d 05 76 6d 00 00 	lea    0x6d76(%rip),%rax        # 1f148 <g_162+0x8>
   183d2:	48 89 85 c8 f8 ff ff 	mov    %rax,-0x738(%rbp)
   183d9:	48 c7 85 20 f8 ff ff 	movq   $0x0,-0x7e0(%rbp)
   183e0:	00 00 00 00 
   183e4:	e9 9d 00 00 00       	jmpq   18486 <func_133+0x1651>
   183e9:	66 c7 85 cc f7 ff ff 	movw   $0x0,-0x834(%rbp)
   183f0:	00 00 
   183f2:	0f b6 85 c7 f7 ff ff 	movzbl -0x839(%rbp),%eax
   183f9:	83 bd bc f7 ff ff 00 	cmpl   $0x0,-0x844(%rbp)
   18400:	75 09                	jne    1840b <func_133+0x15d6>
   18402:	83 bd bc f7 ff ff 00 	cmpl   $0x0,-0x844(%rbp)
   18409:	74 07                	je     18412 <func_133+0x15dd>
   1840b:	ba 01 00 00 00       	mov    $0x1,%edx
   18410:	eb 05                	jmp    18417 <func_133+0x15e2>
   18412:	ba 00 00 00 00       	mov    $0x0,%edx
   18417:	39 c2                	cmp    %eax,%edx
   18419:	0f 9f c0             	setg   %al
   1841c:	0f b6 c0             	movzbl %al,%eax
   1841f:	48 8b 95 b8 fa ff ff 	mov    -0x548(%rbp),%rdx
   18426:	48 89 c6             	mov    %rax,%rsi
   18429:	48 89 d7             	mov    %rdx,%rdi
   1842c:	e8 fd 2b ff ff       	callq  b02e <safe_add_func_uint64_t_u_u>
   18431:	66 21 85 cc f7 ff ff 	and    %ax,-0x834(%rbp)
   18438:	48 8b 85 f8 f7 ff ff 	mov    -0x808(%rbp),%rax
   1843f:	0f b7 95 cc f7 ff ff 	movzwl -0x834(%rbp),%edx
   18446:	89 10                	mov    %edx,(%rax)
   18448:	8b 10                	mov    (%rax),%edx
   1844a:	8b 85 d4 fa ff ff    	mov    -0x52c(%rbp),%eax
   18450:	21 d0                	and    %edx,%eax
   18452:	89 85 d4 fa ff ff    	mov    %eax,-0x52c(%rbp)
   18458:	48 8d 05 09 6d 00 00 	lea    0x6d09(%rip),%rax        # 1f168 <g_162+0x28>
   1845f:	48 89 85 c8 f8 ff ff 	mov    %rax,-0x738(%rbp)
   18466:	48 8b 85 c8 f8 ff ff 	mov    -0x738(%rbp),%rax
   1846d:	48 89 05 ec ae 00 00 	mov    %rax,0xaeec(%rip)        # 23360 <g_245>
   18474:	48 8b 85 20 f8 ff ff 	mov    -0x7e0(%rbp),%rax
   1847b:	48 83 c0 01          	add    $0x1,%rax
   1847f:	48 89 85 20 f8 ff ff 	mov    %rax,-0x7e0(%rbp)
   18486:	48 8b 85 20 f8 ff ff 	mov    -0x7e0(%rbp),%rax
   1848d:	48 83 f8 01          	cmp    $0x1,%rax
   18491:	0f 86 52 ff ff ff    	jbe    183e9 <func_133+0x15b4>
   18497:	48 c7 85 90 f8 ff ff 	movq   $0x0,-0x770(%rbp)
   1849e:	00 00 00 00 
   184a2:	48 83 bd 90 f8 ff ff 	cmpq   $0x0,-0x770(%rbp)
   184a9:	00 
   184aa:	78 44                	js     184f0 <func_133+0x16bb>
   184ac:	66 83 ad ca f7 ff ff 	subw   $0x1,-0x836(%rbp)
   184b3:	01 
   184b4:	48 8b 05 5d 6c 00 00 	mov    0x6c5d(%rip),%rax        # 1f118 <g_121>
   184bb:	48 8d 70 08          	lea    0x8(%rax),%rsi
   184bf:	48 8b 05 52 6c 00 00 	mov    0x6c52(%rip),%rax        # 1f118 <g_121>
   184c6:	48 8b 95 90 f8 ff ff 	mov    -0x770(%rbp),%rdx
   184cd:	48 8d 4a 04          	lea    0x4(%rdx),%rcx
   184d1:	48 8d 14 06          	lea    (%rsi,%rax,1),%rdx
   184d5:	48 89 d0             	mov    %rdx,%rax
   184d8:	48 01 c0             	add    %rax,%rax
   184db:	48 01 d0             	add    %rdx,%rax
   184de:	48 01 c0             	add    %rax,%rax
   184e1:	48 01 c8             	add    %rcx,%rax
   184e4:	8b 84 85 d0 fa ff ff 	mov    -0x530(%rbp,%rax,4),%eax
   184eb:	e9 66 03 00 00       	jmpq   18856 <func_133+0x1a21>
   184f0:	8b 85 bc f7 ff ff    	mov    -0x844(%rbp),%eax
   184f6:	e9 5b 03 00 00       	jmpq   18856 <func_133+0x1a21>
   184fb:	90                   	nop
   184fc:	c7 05 e2 6b 00 00 00 	movl   $0x0,0x6be2(%rip)        # 1f0e8 <g_65>
   18503:	00 00 00 
   18506:	e9 3b 02 00 00       	jmpq   18746 <func_133+0x1911>
   1850b:	48 8d 05 d6 6b 00 00 	lea    0x6bd6(%rip),%rax        # 1f0e8 <g_65>
   18512:	48 89 85 18 f9 ff ff 	mov    %rax,-0x6e8(%rbp)
   18519:	66 c7 85 40 f9 ff ff 	movw   $0x8797,-0x6c0(%rbp)
   18520:	97 87 
   18522:	66 c7 85 42 f9 ff ff 	movw   $0x8797,-0x6be(%rbp)
   18529:	97 87 
   1852b:	66 c7 85 44 f9 ff ff 	movw   $0x8797,-0x6bc(%rbp)
   18532:	97 87 
   18534:	66 c7 85 46 f9 ff ff 	movw   $0x8797,-0x6ba(%rbp)
   1853b:	97 87 
   1853d:	66 c7 85 48 f9 ff ff 	movw   $0x8797,-0x6b8(%rbp)
   18544:	97 87 
   18546:	66 c7 85 4a f9 ff ff 	movw   $0x8797,-0x6b6(%rbp)
   1854d:	97 87 
   1854f:	48 8d 05 ce 6b 00 00 	lea    0x6bce(%rip),%rax        # 1f124 <g_153>
   18556:	48 89 85 20 f9 ff ff 	mov    %rax,-0x6e0(%rbp)
   1855d:	48 8d 05 90 6c 00 00 	lea    0x6c90(%rip),%rax        # 1f1f4 <g_260+0x14>
   18564:	48 89 85 28 f9 ff ff 	mov    %rax,-0x6d8(%rbp)
   1856b:	48 8d 85 40 f9 ff ff 	lea    -0x6c0(%rbp),%rax
   18572:	48 83 c0 0a          	add    $0xa,%rax
   18576:	48 89 85 30 f9 ff ff 	mov    %rax,-0x6d0(%rbp)
   1857d:	c7 85 f4 f7 ff ff 58 	movl   $0x96f88958,-0x80c(%rbp)
   18584:	89 f8 96 
   18587:	48 8b 85 88 f8 ff ff 	mov    -0x778(%rbp),%rax
   1858e:	48 8b 95 18 f9 ff ff 	mov    -0x6e8(%rbp),%rdx
   18595:	48 89 10             	mov    %rdx,(%rax)
   18598:	48 8b 85 88 f8 ff ff 	mov    -0x778(%rbp),%rax
   1859f:	48 8b 00             	mov    (%rax),%rax
   185a2:	48 8d 95 d0 fa ff ff 	lea    -0x530(%rbp),%rdx
   185a9:	48 83 c2 5c          	add    $0x5c,%rdx
   185ad:	48 89 95 98 f8 ff ff 	mov    %rdx,-0x768(%rbp)
   185b4:	48 39 85 98 f8 ff ff 	cmp    %rax,-0x768(%rbp)
   185bb:	0f 85 84 00 00 00    	jne    18645 <func_133+0x1810>
   185c1:	48 8d 05 28 6b 00 00 	lea    0x6b28(%rip),%rax        # 1f0f0 <g_74>
   185c8:	48 89 85 38 f9 ff ff 	mov    %rax,-0x6c8(%rbp)
   185cf:	c7 85 d8 f7 ff ff 00 	movl   $0x0,-0x828(%rbp)
   185d6:	00 00 00 
   185d9:	eb 22                	jmp    185fd <func_133+0x17c8>
   185db:	8b 85 d8 f7 ff ff    	mov    -0x828(%rbp),%eax
   185e1:	48 98                	cltq   
   185e3:	48 8d 95 40 f9 ff ff 	lea    -0x6c0(%rbp),%rdx
   185ea:	48 83 c2 04          	add    $0x4,%rdx
   185ee:	48 89 94 c5 d0 f9 ff 	mov    %rdx,-0x630(%rbp,%rax,8)
   185f5:	ff 
   185f6:	83 85 d8 f7 ff ff 01 	addl   $0x1,-0x828(%rbp)
   185fd:	83 bd d8 f7 ff ff 01 	cmpl   $0x1,-0x828(%rbp)
   18604:	7e d5                	jle    185db <func_133+0x17a6>
   18606:	48 8b 85 a0 f8 ff ff 	mov    -0x760(%rbp),%rax
   1860d:	48 3b 85 48 f8 ff ff 	cmp    -0x7b8(%rbp),%rax
   18614:	0f 94 c0             	sete   %al
   18617:	0f b6 d0             	movzbl %al,%edx
   1861a:	48 8b 85 38 f9 ff ff 	mov    -0x6c8(%rbp),%rax
   18621:	89 10                	mov    %edx,(%rax)
   18623:	0f b7 85 48 f9 ff ff 	movzwl -0x6b8(%rbp),%eax
   1862a:	66 89 05 9b 6b 00 00 	mov    %ax,0x6b9b(%rip)        # 1f1cc <g_256+0x4c>
   18631:	8b 05 b1 6a 00 00    	mov    0x6ab1(%rip),%eax        # 1f0e8 <g_65>
   18637:	83 c0 01             	add    $0x1,%eax
   1863a:	89 05 a8 6a 00 00    	mov    %eax,0x6aa8(%rip)        # 1f0e8 <g_65>
   18640:	e9 01 01 00 00       	jmpq   18746 <func_133+0x1911>
   18645:	48 c7 05 20 6b 00 00 	movq   $0x0,0x6b20(%rip)        # 1f170 <g_215>
   1864c:	00 00 00 00 
   18650:	e9 d3 00 00 00       	jmpq   18728 <func_133+0x18f3>
   18655:	48 8d 85 d0 f7 ff ff 	lea    -0x830(%rbp),%rax
   1865c:	48 89 85 d0 f9 ff ff 	mov    %rax,-0x630(%rbp)
   18663:	48 8d 85 d0 f7 ff ff 	lea    -0x830(%rbp),%rax
   1866a:	48 89 85 d8 f9 ff ff 	mov    %rax,-0x628(%rbp)
   18671:	48 8d 85 d0 f7 ff ff 	lea    -0x830(%rbp),%rax
   18678:	48 89 85 e0 f9 ff ff 	mov    %rax,-0x620(%rbp)
   1867f:	48 8d 85 d0 f7 ff ff 	lea    -0x830(%rbp),%rax
   18686:	48 89 85 e8 f9 ff ff 	mov    %rax,-0x618(%rbp)
   1868d:	48 8d 85 d0 f7 ff ff 	lea    -0x830(%rbp),%rax
   18694:	48 89 85 f0 f9 ff ff 	mov    %rax,-0x610(%rbp)
   1869b:	48 8d 85 d0 f7 ff ff 	lea    -0x830(%rbp),%rax
   186a2:	48 89 85 f8 f9 ff ff 	mov    %rax,-0x608(%rbp)
   186a9:	48 8d 85 d0 f7 ff ff 	lea    -0x830(%rbp),%rax
   186b0:	48 89 85 00 fa ff ff 	mov    %rax,-0x600(%rbp)
   186b7:	48 8d 85 d0 f7 ff ff 	lea    -0x830(%rbp),%rax
   186be:	48 89 85 08 fa ff ff 	mov    %rax,-0x5f8(%rbp)
   186c5:	48 8d 85 d0 f7 ff ff 	lea    -0x830(%rbp),%rax
   186cc:	48 89 85 10 fa ff ff 	mov    %rax,-0x5f0(%rbp)
   186d3:	48 8b 05 ae 99 00 00 	mov    0x99ae(%rip),%rax        # 22088 <g_193>
   186da:	48 8b 95 88 f8 ff ff 	mov    -0x778(%rbp),%rdx
   186e1:	48 8b 12             	mov    (%rdx),%rdx
   186e4:	48 89 10             	mov    %rdx,(%rax)
   186e7:	8b 05 07 6b 00 00    	mov    0x6b07(%rip),%eax        # 1f1f4 <g_260+0x14>
   186ed:	83 e8 01             	sub    $0x1,%eax
   186f0:	89 05 fe 6a 00 00    	mov    %eax,0x6afe(%rip)        # 1f1f4 <g_260+0x14>
   186f6:	48 8b 85 88 f8 ff ff 	mov    -0x778(%rbp),%rax
   186fd:	48 8d 95 d0 f7 ff ff 	lea    -0x830(%rbp),%rdx
   18704:	48 89 10             	mov    %rdx,(%rax)
   18707:	8b 05 fb 6a 00 00    	mov    0x6afb(%rip),%eax        # 1f208 <g_263>
   1870d:	83 e8 01             	sub    $0x1,%eax
   18710:	89 05 f2 6a 00 00    	mov    %eax,0x6af2(%rip)        # 1f208 <g_263>
   18716:	48 8b 05 53 6a 00 00 	mov    0x6a53(%rip),%rax        # 1f170 <g_215>
   1871d:	48 83 e8 01          	sub    $0x1,%rax
   18721:	48 89 05 48 6a 00 00 	mov    %rax,0x6a48(%rip)        # 1f170 <g_215>
   18728:	48 8b 05 41 6a 00 00 	mov    0x6a41(%rip),%rax        # 1f170 <g_215>
   1872f:	48 85 c0             	test   %rax,%rax
   18732:	0f 89 1d ff ff ff    	jns    18655 <func_133+0x1820>
   18738:	48 8b 85 18 f9 ff ff 	mov    -0x6e8(%rbp),%rax
   1873f:	8b 00                	mov    (%rax),%eax
   18741:	e9 10 01 00 00       	jmpq   18856 <func_133+0x1a21>
   18746:	8b 05 9c 69 00 00    	mov    0x699c(%rip),%eax        # 1f0e8 <g_65>
   1874c:	85 c0                	test   %eax,%eax
   1874e:	0f 8e b7 fd ff ff    	jle    1850b <func_133+0x16d6>
   18754:	c7 05 c6 69 00 00 00 	movl   $0x0,0x69c6(%rip)        # 1f124 <g_153>
   1875b:	00 00 00 
   1875e:	90                   	nop
   1875f:	8b 05 bf 69 00 00    	mov    0x69bf(%rip),%eax        # 1f124 <g_153>
   18765:	85 c0                	test   %eax,%eax
   18767:	75 0b                	jne    18774 <func_133+0x193f>
   18769:	8b 85 bc f7 ff ff    	mov    -0x844(%rbp),%eax
   1876f:	e9 e2 00 00 00       	jmpq   18856 <func_133+0x1a21>
   18774:	0f b6 05 85 69 00 00 	movzbl 0x6985(%rip),%eax        # 1f100 <g_99>
   1877b:	83 c0 01             	add    $0x1,%eax
   1877e:	88 05 7c 69 00 00    	mov    %al,0x697c(%rip)        # 1f100 <g_99>
   18784:	0f b6 05 75 69 00 00 	movzbl 0x6975(%rip),%eax        # 1f100 <g_99>
   1878b:	84 c0                	test   %al,%al
   1878d:	0f 8e 28 eb ff ff    	jle    172bb <func_133+0x486>
   18793:	eb 0d                	jmp    187a2 <func_133+0x196d>
   18795:	90                   	nop
   18796:	eb 0a                	jmp    187a2 <func_133+0x196d>
   18798:	90                   	nop
   18799:	eb 07                	jmp    187a2 <func_133+0x196d>
   1879b:	90                   	nop
   1879c:	eb 04                	jmp    187a2 <func_133+0x196d>
   1879e:	90                   	nop
   1879f:	eb 01                	jmp    187a2 <func_133+0x196d>
   187a1:	90                   	nop
   187a2:	8b 05 48 6a 00 00    	mov    0x6a48(%rip),%eax        # 1f1f0 <g_260+0x10>
   187a8:	0f be d8             	movsbl %al,%ebx
   187ab:	48 8b 05 66 69 00 00 	mov    0x6966(%rip),%rax        # 1f118 <g_121>
   187b2:	41 89 c5             	mov    %eax,%r13d
   187b5:	48 8b 85 60 f9 ff ff 	mov    -0x6a0(%rbp),%rax
   187bc:	48 8d 15 9d ab 00 00 	lea    0xab9d(%rip),%rdx        # 23360 <g_245>
   187c3:	48 39 d0             	cmp    %rdx,%rax
   187c6:	0f 95 c0             	setne  %al
   187c9:	0f b6 d0             	movzbl %al,%edx
   187cc:	48 8b 85 50 f8 ff ff 	mov    -0x7b0(%rbp),%rax
   187d3:	89 10                	mov    %edx,(%rax)
   187d5:	44 0f b7 a5 c8 f7 ff 	movzwl -0x838(%rbp),%r12d
   187dc:	ff 
   187dd:	8b 05 2d 6a 00 00    	mov    0x6a2d(%rip),%eax        # 1f210 <g_263+0x8>
   187e3:	89 c2                	mov    %eax,%edx
   187e5:	0f b7 05 e0 69 00 00 	movzwl 0x69e0(%rip),%eax        # 1f1cc <g_256+0x4c>
   187ec:	66 3d d8 00          	cmp    $0xd8,%ax
   187f0:	75 14                	jne    18806 <func_133+0x19d1>
   187f2:	48 8b 85 60 f8 ff ff 	mov    -0x7a0(%rbp),%rax
   187f9:	48 b9 b7 6b 61 7c ed 	movabs $0xbf896ed7c616bb7,%rcx
   18800:	96 f8 0b 
   18803:	48 89 08             	mov    %rcx,(%rax)
   18806:	48 89 d6             	mov    %rdx,%rsi
   18809:	bf 00 00 00 00       	mov    $0x0,%edi
   1880e:	e8 e4 21 ff ff       	callq  a9f7 <safe_div_func_int64_t_s_s>
   18813:	49 39 c4             	cmp    %rax,%r12
   18816:	0f 9f c0             	setg   %al
   18819:	0f b6 c0             	movzbl %al,%eax
   1881c:	44 89 ee             	mov    %r13d,%esi
   1881f:	89 c7                	mov    %eax,%edi
   18821:	e8 0f 1b ff ff       	callq  a335 <safe_rshift_func_int8_t_s_s>
   18826:	8b 05 bc 68 00 00    	mov    0x68bc(%rip),%eax        # 1f0e8 <g_65>
   1882c:	0f be c0             	movsbl %al,%eax
   1882f:	89 de                	mov    %ebx,%esi
   18831:	89 c7                	mov    %eax,%edi
   18833:	e8 9c 19 ff ff       	callq  a1d4 <safe_add_func_int8_t_s_s>
   18838:	48 8b 85 f8 f7 ff ff 	mov    -0x808(%rbp),%rax
   1883f:	c7 00 ff ff ff ff    	movl   $0xffffffff,(%rax)
   18845:	0f b6 05 a8 68 00 00 	movzbl 0x68a8(%rip),%eax        # 1f0f4 <g_97>
   1884c:	66 98                	cbtw   
   1884e:	eb 06                	jmp    18856 <func_133+0x1a21>
   18850:	8b 85 bc f7 ff ff    	mov    -0x844(%rbp),%eax
   18856:	48 8b 4d c8          	mov    -0x38(%rbp),%rcx
   1885a:	64 48 33 0c 25 28 00 	xor    %fs:0x28,%rcx
   18861:	00 00 
   18863:	74 05                	je     1886a <func_133+0x1a35>
   18865:	e8 06 18 ff ff       	callq  a070 <__stack_chk_fail@plt>
   1886a:	48 81 c4 28 08 00 00 	add    $0x828,%rsp
   18871:	5b                   	pop    %rbx
   18872:	41 5c                	pop    %r12
   18874:	41 5d                	pop    %r13
   18876:	41 5e                	pop    %r14
   18878:	41 5f                	pop    %r15
   1887a:	5d                   	pop    %rbp
   1887b:	c3                   	retq   

000000000001887c <main>:
   1887c:	f3 0f 1e fa          	endbr64 
   18880:	55                   	push   %rbp
   18881:	48 89 e5             	mov    %rsp,%rbp
   18884:	48 83 ec 20          	sub    $0x20,%rsp
   18888:	89 7d ec             	mov    %edi,-0x14(%rbp)
   1888b:	48 89 75 e0          	mov    %rsi,-0x20(%rbp)
   1888f:	c7 45 fc 00 00 00 00 	movl   $0x0,-0x4(%rbp)
   18896:	83 7d ec 02          	cmpl   $0x2,-0x14(%rbp)
   1889a:	75 25                	jne    188c1 <main+0x45>
   1889c:	48 8b 45 e0          	mov    -0x20(%rbp),%rax
   188a0:	48 83 c0 08          	add    $0x8,%rax
   188a4:	48 8b 00             	mov    (%rax),%rax
   188a7:	48 8d 35 b2 2e 00 00 	lea    0x2eb2(%rip),%rsi        # 1b760 <g_1906+0x680>
   188ae:	48 89 c7             	mov    %rax,%rdi
   188b1:	e8 da 17 ff ff       	callq  a090 <strcmp@plt>
   188b6:	85 c0                	test   %eax,%eax
   188b8:	75 07                	jne    188c1 <main+0x45>
   188ba:	c7 45 fc 01 00 00 00 	movl   $0x1,-0x4(%rbp)
   188c1:	e8 c3 18 ff ff       	callq  a189 <platform_main_begin>
   188c6:	e8 cd 2c ff ff       	callq  b598 <crc32_gentab>
   188cb:	e8 e5 2e ff ff       	callq  b7b5 <func_1>
   188d0:	c7 45 f0 00 00 00 00 	movl   $0x0,-0x10(%rbp)
   188d7:	eb 77                	jmp    18950 <main+0xd4>
   188d9:	c7 45 f4 00 00 00 00 	movl   $0x0,-0xc(%rbp)
   188e0:	eb 64                	jmp    18946 <main+0xca>
   188e2:	8b 45 f4             	mov    -0xc(%rbp),%eax
   188e5:	48 63 c8             	movslq %eax,%rcx
   188e8:	8b 45 f0             	mov    -0x10(%rbp),%eax
   188eb:	48 63 d0             	movslq %eax,%rdx
   188ee:	48 89 d0             	mov    %rdx,%rax
   188f1:	48 01 c0             	add    %rax,%rax
   188f4:	48 01 d0             	add    %rdx,%rax
   188f7:	48 01 c0             	add    %rax,%rax
   188fa:	48 01 c8             	add    %rcx,%rax
   188fd:	48 8d 14 85 00 00 00 	lea    0x0(,%rax,4),%rdx
   18904:	00 
   18905:	48 8d 05 34 67 00 00 	lea    0x6734(%rip),%rax        # 1f040 <g_2>
   1890c:	8b 04 02             	mov    (%rdx,%rax,1),%eax
   1890f:	48 98                	cltq   
   18911:	8b 55 fc             	mov    -0x4(%rbp),%edx
   18914:	48 8d 35 47 2e 00 00 	lea    0x2e47(%rip),%rsi        # 1b762 <g_1906+0x682>
   1891b:	48 89 c7             	mov    %rax,%rdi
   1891e:	e8 d0 2d ff ff       	callq  b6f3 <transparent_crc>
   18923:	83 7d fc 00          	cmpl   $0x0,-0x4(%rbp)
   18927:	74 19                	je     18942 <main+0xc6>
   18929:	8b 55 f4             	mov    -0xc(%rbp),%edx
   1892c:	8b 45 f0             	mov    -0x10(%rbp),%eax
   1892f:	89 c6                	mov    %eax,%esi
   18931:	48 8d 3d 34 2e 00 00 	lea    0x2e34(%rip),%rdi        # 1b76c <g_1906+0x68c>
   18938:	b8 00 00 00 00       	mov    $0x0,%eax
   1893d:	e8 3e 17 ff ff       	callq  a080 <printf@plt>
   18942:	83 45 f4 01          	addl   $0x1,-0xc(%rbp)
   18946:	83 7d f4 05          	cmpl   $0x5,-0xc(%rbp)
   1894a:	7e 96                	jle    188e2 <main+0x66>
   1894c:	83 45 f0 01          	addl   $0x1,-0x10(%rbp)
   18950:	83 7d f0 04          	cmpl   $0x4,-0x10(%rbp)
   18954:	7e 83                	jle    188d9 <main+0x5d>
   18956:	8b 05 5c 67 00 00    	mov    0x675c(%rip),%eax        # 1f0b8 <g_3>
   1895c:	48 98                	cltq   
   1895e:	8b 55 fc             	mov    -0x4(%rbp),%edx
   18961:	48 8d 35 16 2e 00 00 	lea    0x2e16(%rip),%rsi        # 1b77e <g_1906+0x69e>
   18968:	48 89 c7             	mov    %rax,%rdi
   1896b:	e8 83 2d ff ff       	callq  b6f3 <transparent_crc>
   18970:	8b 05 d2 a9 00 00    	mov    0xa9d2(%rip),%eax        # 23348 <g_4>
   18976:	48 98                	cltq   
   18978:	8b 55 fc             	mov    -0x4(%rbp),%edx
   1897b:	48 8d 35 00 2e 00 00 	lea    0x2e00(%rip),%rsi        # 1b782 <g_1906+0x6a2>
   18982:	48 89 c7             	mov    %rax,%rdi
   18985:	e8 69 2d ff ff       	callq  b6f3 <transparent_crc>
   1898a:	8b 05 2c 67 00 00    	mov    0x672c(%rip),%eax        # 1f0bc <g_5>
   18990:	48 98                	cltq   
   18992:	8b 55 fc             	mov    -0x4(%rbp),%edx
   18995:	48 8d 35 ea 2d 00 00 	lea    0x2dea(%rip),%rsi        # 1b786 <g_1906+0x6a6>
   1899c:	48 89 c7             	mov    %rax,%rdi
   1899f:	e8 4f 2d ff ff       	callq  b6f3 <transparent_crc>
   189a4:	8b 05 16 67 00 00    	mov    0x6716(%rip),%eax        # 1f0c0 <g_6>
   189aa:	48 98                	cltq   
   189ac:	8b 55 fc             	mov    -0x4(%rbp),%edx
   189af:	48 8d 35 d4 2d 00 00 	lea    0x2dd4(%rip),%rsi        # 1b78a <g_1906+0x6aa>
   189b6:	48 89 c7             	mov    %rax,%rdi
   189b9:	e8 35 2d ff ff       	callq  b6f3 <transparent_crc>
   189be:	8b 05 00 67 00 00    	mov    0x6700(%rip),%eax        # 1f0c4 <g_7>
   189c4:	48 98                	cltq   
   189c6:	8b 55 fc             	mov    -0x4(%rbp),%edx
   189c9:	48 8d 35 be 2d 00 00 	lea    0x2dbe(%rip),%rsi        # 1b78e <g_1906+0x6ae>
   189d0:	48 89 c7             	mov    %rax,%rdi
   189d3:	e8 1b 2d ff ff       	callq  b6f3 <transparent_crc>
   189d8:	8b 05 ea 66 00 00    	mov    0x66ea(%rip),%eax        # 1f0c8 <g_8>
   189de:	48 98                	cltq   
   189e0:	8b 55 fc             	mov    -0x4(%rbp),%edx
   189e3:	48 8d 35 a8 2d 00 00 	lea    0x2da8(%rip),%rsi        # 1b792 <g_1906+0x6b2>
   189ea:	48 89 c7             	mov    %rax,%rdi
   189ed:	e8 01 2d ff ff       	callq  b6f3 <transparent_crc>
   189f2:	8b 05 d4 66 00 00    	mov    0x66d4(%rip),%eax        # 1f0cc <g_9>
   189f8:	48 98                	cltq   
   189fa:	8b 55 fc             	mov    -0x4(%rbp),%edx
   189fd:	48 8d 35 92 2d 00 00 	lea    0x2d92(%rip),%rsi        # 1b796 <g_1906+0x6b6>
   18a04:	48 89 c7             	mov    %rax,%rdi
   18a07:	e8 e7 2c ff ff       	callq  b6f3 <transparent_crc>
   18a0c:	8b 05 be 66 00 00    	mov    0x66be(%rip),%eax        # 1f0d0 <g_10>
   18a12:	48 98                	cltq   
   18a14:	8b 55 fc             	mov    -0x4(%rbp),%edx
   18a17:	48 8d 35 7c 2d 00 00 	lea    0x2d7c(%rip),%rsi        # 1b79a <g_1906+0x6ba>
   18a1e:	48 89 c7             	mov    %rax,%rdi
   18a21:	e8 cd 2c ff ff       	callq  b6f3 <transparent_crc>
   18a26:	8b 05 a8 66 00 00    	mov    0x66a8(%rip),%eax        # 1f0d4 <g_11>
   18a2c:	48 98                	cltq   
   18a2e:	8b 55 fc             	mov    -0x4(%rbp),%edx
   18a31:	48 8d 35 67 2d 00 00 	lea    0x2d67(%rip),%rsi        # 1b79f <g_1906+0x6bf>
   18a38:	48 89 c7             	mov    %rax,%rdi
   18a3b:	e8 b3 2c ff ff       	callq  b6f3 <transparent_crc>
   18a40:	0f b6 05 91 66 00 00 	movzbl 0x6691(%rip),%eax        # 1f0d8 <g_31>
   18a47:	0f b6 c0             	movzbl %al,%eax
   18a4a:	8b 55 fc             	mov    -0x4(%rbp),%edx
   18a4d:	48 8d 35 50 2d 00 00 	lea    0x2d50(%rip),%rsi        # 1b7a4 <g_1906+0x6c4>
   18a54:	48 89 c7             	mov    %rax,%rdi
   18a57:	e8 97 2c ff ff       	callq  b6f3 <transparent_crc>
   18a5c:	0f b7 05 76 66 00 00 	movzwl 0x6676(%rip),%eax        # 1f0d9 <g_34>
   18a63:	0f b7 c0             	movzwl %ax,%eax
   18a66:	8b 55 fc             	mov    -0x4(%rbp),%edx
   18a69:	48 8d 35 39 2d 00 00 	lea    0x2d39(%rip),%rsi        # 1b7a9 <g_1906+0x6c9>
   18a70:	48 89 c7             	mov    %rax,%rdi
   18a73:	e8 7b 2c ff ff       	callq  b6f3 <transparent_crc>
   18a78:	8b 05 62 66 00 00    	mov    0x6662(%rip),%eax        # 1f0e0 <g_59>
   18a7e:	48 98                	cltq   
   18a80:	8b 55 fc             	mov    -0x4(%rbp),%edx
   18a83:	48 8d 35 27 2d 00 00 	lea    0x2d27(%rip),%rsi        # 1b7b1 <g_1906+0x6d1>
   18a8a:	48 89 c7             	mov    %rax,%rdi
   18a8d:	e8 61 2c ff ff       	callq  b6f3 <transparent_crc>
   18a92:	8b 05 50 66 00 00    	mov    0x6650(%rip),%eax        # 1f0e8 <g_65>
   18a98:	48 98                	cltq   
   18a9a:	8b 55 fc             	mov    -0x4(%rbp),%edx
   18a9d:	48 8d 35 15 2d 00 00 	lea    0x2d15(%rip),%rsi        # 1b7b9 <g_1906+0x6d9>
   18aa4:	48 89 c7             	mov    %rax,%rdi
   18aa7:	e8 47 2c ff ff       	callq  b6f3 <transparent_crc>
   18aac:	8b 05 3a 66 00 00    	mov    0x663a(%rip),%eax        # 1f0ec <g_69>
   18ab2:	48 98                	cltq   
   18ab4:	8b 55 fc             	mov    -0x4(%rbp),%edx
   18ab7:	48 8d 35 00 2d 00 00 	lea    0x2d00(%rip),%rsi        # 1b7be <g_1906+0x6de>
   18abe:	48 89 c7             	mov    %rax,%rdi
   18ac1:	e8 2d 2c ff ff       	callq  b6f3 <transparent_crc>
   18ac6:	8b 05 24 66 00 00    	mov    0x6624(%rip),%eax        # 1f0f0 <g_74>
   18acc:	89 c1                	mov    %eax,%ecx
   18ace:	8b 45 fc             	mov    -0x4(%rbp),%eax
   18ad1:	89 c2                	mov    %eax,%edx
   18ad3:	48 8d 35 e9 2c 00 00 	lea    0x2ce9(%rip),%rsi        # 1b7c3 <g_1906+0x6e3>
   18ada:	48 89 cf             	mov    %rcx,%rdi
   18add:	e8 11 2c ff ff       	callq  b6f3 <transparent_crc>
   18ae2:	c7 45 f0 00 00 00 00 	movl   $0x0,-0x10(%rbp)
   18ae9:	eb 46                	jmp    18b31 <main+0x2b5>
   18aeb:	8b 45 f0             	mov    -0x10(%rbp),%eax
   18aee:	48 98                	cltq   
   18af0:	48 8d 15 fd 65 00 00 	lea    0x65fd(%rip),%rdx        # 1f0f4 <g_97>
   18af7:	0f b6 04 10          	movzbl (%rax,%rdx,1),%eax
   18afb:	48 0f be c0          	movsbq %al,%rax
   18aff:	8b 55 fc             	mov    -0x4(%rbp),%edx
   18b02:	48 8d 35 bf 2c 00 00 	lea    0x2cbf(%rip),%rsi        # 1b7c8 <g_1906+0x6e8>
   18b09:	48 89 c7             	mov    %rax,%rdi
   18b0c:	e8 e2 2b ff ff       	callq  b6f3 <transparent_crc>
   18b11:	83 7d fc 00          	cmpl   $0x0,-0x4(%rbp)
   18b15:	74 16                	je     18b2d <main+0x2b1>
   18b17:	8b 45 f0             	mov    -0x10(%rbp),%eax
   18b1a:	89 c6                	mov    %eax,%esi
   18b1c:	48 8d 3d ad 2c 00 00 	lea    0x2cad(%rip),%rdi        # 1b7d0 <g_1906+0x6f0>
   18b23:	b8 00 00 00 00       	mov    $0x0,%eax
   18b28:	e8 53 15 ff ff       	callq  a080 <printf@plt>
   18b2d:	83 45 f0 01          	addl   $0x1,-0x10(%rbp)
   18b31:	83 7d f0 00          	cmpl   $0x0,-0x10(%rbp)
   18b35:	7e b4                	jle    18aeb <main+0x26f>
   18b37:	48 8b 05 ba 65 00 00 	mov    0x65ba(%rip),%rax        # 1f0f8 <g_98>
   18b3e:	48 89 c1             	mov    %rax,%rcx
   18b41:	8b 45 fc             	mov    -0x4(%rbp),%eax
   18b44:	89 c2                	mov    %eax,%edx
   18b46:	48 8d 35 91 2c 00 00 	lea    0x2c91(%rip),%rsi        # 1b7de <g_1906+0x6fe>
   18b4d:	48 89 cf             	mov    %rcx,%rdi
   18b50:	e8 9e 2b ff ff       	callq  b6f3 <transparent_crc>
   18b55:	0f b6 05 a4 65 00 00 	movzbl 0x65a4(%rip),%eax        # 1f100 <g_99>
   18b5c:	48 0f be c0          	movsbq %al,%rax
   18b60:	8b 55 fc             	mov    -0x4(%rbp),%edx
   18b63:	48 8d 35 79 2c 00 00 	lea    0x2c79(%rip),%rsi        # 1b7e3 <g_1906+0x703>
   18b6a:	48 89 c7             	mov    %rax,%rdi
   18b6d:	e8 81 2b ff ff       	callq  b6f3 <transparent_crc>
   18b72:	0f b7 05 d3 a7 00 00 	movzwl 0xa7d3(%rip),%eax        # 2334c <g_100>
   18b79:	0f b7 c0             	movzwl %ax,%eax
   18b7c:	8b 55 fc             	mov    -0x4(%rbp),%edx
   18b7f:	48 8d 35 62 2c 00 00 	lea    0x2c62(%rip),%rsi        # 1b7e8 <g_1906+0x708>
   18b86:	48 89 c7             	mov    %rax,%rdi
   18b89:	e8 65 2b ff ff       	callq  b6f3 <transparent_crc>
   18b8e:	c7 45 f0 00 00 00 00 	movl   $0x0,-0x10(%rbp)
   18b95:	eb 6a                	jmp    18c01 <main+0x385>
   18b97:	c7 45 f4 00 00 00 00 	movl   $0x0,-0xc(%rbp)
   18b9e:	eb 57                	jmp    18bf7 <main+0x37b>
   18ba0:	8b 45 f4             	mov    -0xc(%rbp),%eax
   18ba3:	48 98                	cltq   
   18ba5:	8b 55 f0             	mov    -0x10(%rbp),%edx
   18ba8:	48 63 d2             	movslq %edx,%rdx
   18bab:	48 c1 e2 02          	shl    $0x2,%rdx
   18baf:	48 01 c2             	add    %rax,%rdx
   18bb2:	48 8d 05 4f 65 00 00 	lea    0x654f(%rip),%rax        # 1f108 <g_114>
   18bb9:	48 01 d0             	add    %rdx,%rax
   18bbc:	0f b6 00             	movzbl (%rax),%eax
   18bbf:	0f b6 c0             	movzbl %al,%eax
   18bc2:	8b 55 fc             	mov    -0x4(%rbp),%edx
   18bc5:	48 8d 35 22 2c 00 00 	lea    0x2c22(%rip),%rsi        # 1b7ee <g_1906+0x70e>
   18bcc:	48 89 c7             	mov    %rax,%rdi
   18bcf:	e8 1f 2b ff ff       	callq  b6f3 <transparent_crc>
   18bd4:	83 7d fc 00          	cmpl   $0x0,-0x4(%rbp)
   18bd8:	74 19                	je     18bf3 <main+0x377>
   18bda:	8b 55 f4             	mov    -0xc(%rbp),%edx
   18bdd:	8b 45 f0             	mov    -0x10(%rbp),%eax
   18be0:	89 c6                	mov    %eax,%esi
   18be2:	48 8d 3d 83 2b 00 00 	lea    0x2b83(%rip),%rdi        # 1b76c <g_1906+0x68c>
   18be9:	b8 00 00 00 00       	mov    $0x0,%eax
   18bee:	e8 8d 14 ff ff       	callq  a080 <printf@plt>
   18bf3:	83 45 f4 01          	addl   $0x1,-0xc(%rbp)
   18bf7:	83 7d f4 03          	cmpl   $0x3,-0xc(%rbp)
   18bfb:	7e a3                	jle    18ba0 <main+0x324>
   18bfd:	83 45 f0 01          	addl   $0x1,-0x10(%rbp)
   18c01:	83 7d f0 01          	cmpl   $0x1,-0x10(%rbp)
   18c05:	7e 90                	jle    18b97 <main+0x31b>
   18c07:	48 8b 05 02 65 00 00 	mov    0x6502(%rip),%rax        # 1f110 <g_117>
   18c0e:	8b 55 fc             	mov    -0x4(%rbp),%edx
   18c11:	48 8d 35 e2 2b 00 00 	lea    0x2be2(%rip),%rsi        # 1b7fa <g_1906+0x71a>
   18c18:	48 89 c7             	mov    %rax,%rdi
   18c1b:	e8 d3 2a ff ff       	callq  b6f3 <transparent_crc>
   18c20:	48 8b 05 f1 64 00 00 	mov    0x64f1(%rip),%rax        # 1f118 <g_121>
   18c27:	48 89 c1             	mov    %rax,%rcx
   18c2a:	8b 45 fc             	mov    -0x4(%rbp),%eax
   18c2d:	89 c2                	mov    %eax,%edx
   18c2f:	48 8d 35 ca 2b 00 00 	lea    0x2bca(%rip),%rsi        # 1b800 <g_1906+0x720>
   18c36:	48 89 cf             	mov    %rcx,%rdi
   18c39:	e8 b5 2a ff ff       	callq  b6f3 <transparent_crc>
   18c3e:	8b 05 dc 64 00 00    	mov    0x64dc(%rip),%eax        # 1f120 <g_122>
   18c44:	89 c1                	mov    %eax,%ecx
   18c46:	8b 45 fc             	mov    -0x4(%rbp),%eax
   18c49:	89 c2                	mov    %eax,%edx
   18c4b:	48 8d 35 b4 2b 00 00 	lea    0x2bb4(%rip),%rsi        # 1b806 <g_1906+0x726>
   18c52:	48 89 cf             	mov    %rcx,%rdi
   18c55:	e8 99 2a ff ff       	callq  b6f3 <transparent_crc>
   18c5a:	8b 05 c4 64 00 00    	mov    0x64c4(%rip),%eax        # 1f124 <g_153>
   18c60:	89 c1                	mov    %eax,%ecx
   18c62:	8b 45 fc             	mov    -0x4(%rbp),%eax
   18c65:	89 c2                	mov    %eax,%edx
   18c67:	48 8d 35 9e 2b 00 00 	lea    0x2b9e(%rip),%rsi        # 1b80c <g_1906+0x72c>
   18c6e:	48 89 cf             	mov    %rcx,%rdi
   18c71:	e8 7d 2a ff ff       	callq  b6f3 <transparent_crc>
   18c76:	c7 45 f0 00 00 00 00 	movl   $0x0,-0x10(%rbp)
   18c7d:	eb 4b                	jmp    18cca <main+0x44e>
   18c7f:	8b 45 f0             	mov    -0x10(%rbp),%eax
   18c82:	48 98                	cltq   
   18c84:	48 8d 14 c5 00 00 00 	lea    0x0(,%rax,8),%rdx
   18c8b:	00 
   18c8c:	48 8d 05 ad 64 00 00 	lea    0x64ad(%rip),%rax        # 1f140 <g_162>
   18c93:	8b 04 02             	mov    (%rdx,%rax,1),%eax
   18c96:	48 98                	cltq   
   18c98:	8b 55 fc             	mov    -0x4(%rbp),%edx
   18c9b:	48 8d 35 70 2b 00 00 	lea    0x2b70(%rip),%rsi        # 1b812 <g_1906+0x732>
   18ca2:	48 89 c7             	mov    %rax,%rdi
   18ca5:	e8 49 2a ff ff       	callq  b6f3 <transparent_crc>
   18caa:	83 7d fc 00          	cmpl   $0x0,-0x4(%rbp)
   18cae:	74 16                	je     18cc6 <main+0x44a>
   18cb0:	8b 45 f0             	mov    -0x10(%rbp),%eax
   18cb3:	89 c6                	mov    %eax,%esi
   18cb5:	48 8d 3d 14 2b 00 00 	lea    0x2b14(%rip),%rdi        # 1b7d0 <g_1906+0x6f0>
   18cbc:	b8 00 00 00 00       	mov    $0x0,%eax
   18cc1:	e8 ba 13 ff ff       	callq  a080 <printf@plt>
   18cc6:	83 45 f0 01          	addl   $0x1,-0x10(%rbp)
   18cca:	83 7d f0 05          	cmpl   $0x5,-0x10(%rbp)
   18cce:	7e af                	jle    18c7f <main+0x403>
   18cd0:	48 8b 05 99 64 00 00 	mov    0x6499(%rip),%rax        # 1f170 <g_215>
   18cd7:	48 89 c1             	mov    %rax,%rcx
   18cda:	8b 45 fc             	mov    -0x4(%rbp),%eax
   18cdd:	89 c2                	mov    %eax,%edx
   18cdf:	48 8d 35 38 2b 00 00 	lea    0x2b38(%rip),%rsi        # 1b81e <g_1906+0x73e>
   18ce6:	48 89 cf             	mov    %rcx,%rdi
   18ce9:	e8 05 2a ff ff       	callq  b6f3 <transparent_crc>
   18cee:	0f b7 05 83 64 00 00 	movzwl 0x6483(%rip),%eax        # 1f178 <g_229>
   18cf5:	48 0f bf c0          	movswq %ax,%rax
   18cf9:	8b 55 fc             	mov    -0x4(%rbp),%edx
   18cfc:	48 8d 35 21 2b 00 00 	lea    0x2b21(%rip),%rsi        # 1b824 <g_1906+0x744>
   18d03:	48 89 c7             	mov    %rax,%rdi
   18d06:	e8 e8 29 ff ff       	callq  b6f3 <transparent_crc>
   18d0b:	0f b7 05 68 64 00 00 	movzwl 0x6468(%rip),%eax        # 1f17a <g_235>
   18d12:	48 0f bf c0          	movswq %ax,%rax
   18d16:	8b 55 fc             	mov    -0x4(%rbp),%edx
   18d19:	48 8d 35 0a 2b 00 00 	lea    0x2b0a(%rip),%rsi        # 1b82a <g_1906+0x74a>
   18d20:	48 89 c7             	mov    %rax,%rdi
   18d23:	e8 cb 29 ff ff       	callq  b6f3 <transparent_crc>
   18d28:	c7 45 f0 00 00 00 00 	movl   $0x0,-0x10(%rbp)
   18d2f:	eb 76                	jmp    18da7 <main+0x52b>
   18d31:	c7 45 f4 00 00 00 00 	movl   $0x0,-0xc(%rbp)
   18d38:	eb 63                	jmp    18d9d <main+0x521>
   18d3a:	8b 45 f4             	mov    -0xc(%rbp),%eax
   18d3d:	48 63 c8             	movslq %eax,%rcx
   18d40:	8b 45 f0             	mov    -0x10(%rbp),%eax
   18d43:	48 63 d0             	movslq %eax,%rdx
   18d46:	48 89 d0             	mov    %rdx,%rax
   18d49:	48 c1 e0 02          	shl    $0x2,%rax
   18d4d:	48 01 d0             	add    %rdx,%rax
   18d50:	48 01 c0             	add    %rax,%rax
   18d53:	48 01 c8             	add    %rcx,%rax
   18d56:	48 8d 14 00          	lea    (%rax,%rax,1),%rdx
   18d5a:	48 8d 05 1f 64 00 00 	lea    0x641f(%rip),%rax        # 1f180 <g_256>
   18d61:	0f b7 04 02          	movzwl (%rdx,%rax,1),%eax
   18d65:	0f b7 c0             	movzwl %ax,%eax
   18d68:	8b 55 fc             	mov    -0x4(%rbp),%edx
   18d6b:	48 8d 35 be 2a 00 00 	lea    0x2abe(%rip),%rsi        # 1b830 <g_1906+0x750>
   18d72:	48 89 c7             	mov    %rax,%rdi
   18d75:	e8 79 29 ff ff       	callq  b6f3 <transparent_crc>
   18d7a:	83 7d fc 00          	cmpl   $0x0,-0x4(%rbp)
   18d7e:	74 19                	je     18d99 <main+0x51d>
   18d80:	8b 55 f4             	mov    -0xc(%rbp),%edx
   18d83:	8b 45 f0             	mov    -0x10(%rbp),%eax
   18d86:	89 c6                	mov    %eax,%esi
   18d88:	48 8d 3d dd 29 00 00 	lea    0x29dd(%rip),%rdi        # 1b76c <g_1906+0x68c>
   18d8f:	b8 00 00 00 00       	mov    $0x0,%eax
   18d94:	e8 e7 12 ff ff       	callq  a080 <printf@plt>
   18d99:	83 45 f4 01          	addl   $0x1,-0xc(%rbp)
   18d9d:	83 7d f4 09          	cmpl   $0x9,-0xc(%rbp)
   18da1:	7e 97                	jle    18d3a <main+0x4be>
   18da3:	83 45 f0 01          	addl   $0x1,-0x10(%rbp)
   18da7:	83 7d f0 03          	cmpl   $0x3,-0x10(%rbp)
   18dab:	7e 84                	jle    18d31 <main+0x4b5>
   18dad:	c7 45 f0 00 00 00 00 	movl   $0x0,-0x10(%rbp)
   18db4:	eb 76                	jmp    18e2c <main+0x5b0>
   18db6:	c7 45 f4 00 00 00 00 	movl   $0x0,-0xc(%rbp)
   18dbd:	eb 63                	jmp    18e22 <main+0x5a6>
   18dbf:	8b 45 f4             	mov    -0xc(%rbp),%eax
   18dc2:	48 63 c8             	movslq %eax,%rcx
   18dc5:	8b 45 f0             	mov    -0x10(%rbp),%eax
   18dc8:	48 63 d0             	movslq %eax,%rdx
   18dcb:	48 89 d0             	mov    %rdx,%rax
   18dce:	48 01 c0             	add    %rax,%rax
   18dd1:	48 01 d0             	add    %rdx,%rax
   18dd4:	48 01 c8             	add    %rcx,%rax
   18dd7:	48 8d 14 85 00 00 00 	lea    0x0(,%rax,4),%rdx
   18dde:	00 
   18ddf:	48 8d 05 fa 63 00 00 	lea    0x63fa(%rip),%rax        # 1f1e0 <g_260>
   18de6:	8b 04 02             	mov    (%rdx,%rax,1),%eax
   18de9:	89 c1                	mov    %eax,%ecx
   18deb:	8b 45 fc             	mov    -0x4(%rbp),%eax
   18dee:	89 c2                	mov    %eax,%edx
   18df0:	48 8d 35 48 2a 00 00 	lea    0x2a48(%rip),%rsi        # 1b83f <g_1906+0x75f>
   18df7:	48 89 cf             	mov    %rcx,%rdi
   18dfa:	e8 f4 28 ff ff       	callq  b6f3 <transparent_crc>
   18dff:	83 7d fc 00          	cmpl   $0x0,-0x4(%rbp)
   18e03:	74 19                	je     18e1e <main+0x5a2>
   18e05:	8b 55 f4             	mov    -0xc(%rbp),%edx
   18e08:	8b 45 f0             	mov    -0x10(%rbp),%eax
   18e0b:	89 c6                	mov    %eax,%esi
   18e0d:	48 8d 3d 58 29 00 00 	lea    0x2958(%rip),%rdi        # 1b76c <g_1906+0x68c>
   18e14:	b8 00 00 00 00       	mov    $0x0,%eax
   18e19:	e8 62 12 ff ff       	callq  a080 <printf@plt>
   18e1e:	83 45 f4 01          	addl   $0x1,-0xc(%rbp)
   18e22:	83 7d f4 02          	cmpl   $0x2,-0xc(%rbp)
   18e26:	7e 97                	jle    18dbf <main+0x543>
   18e28:	83 45 f0 01          	addl   $0x1,-0x10(%rbp)
   18e2c:	83 7d f0 02          	cmpl   $0x2,-0x10(%rbp)
   18e30:	7e 84                	jle    18db6 <main+0x53a>
   18e32:	c7 45 f0 00 00 00 00 	movl   $0x0,-0x10(%rbp)
   18e39:	eb 4d                	jmp    18e88 <main+0x60c>
   18e3b:	8b 45 f0             	mov    -0x10(%rbp),%eax
   18e3e:	48 98                	cltq   
   18e40:	48 8d 14 85 00 00 00 	lea    0x0(,%rax,4),%rdx
   18e47:	00 
   18e48:	48 8d 05 b9 63 00 00 	lea    0x63b9(%rip),%rax        # 1f208 <g_263>
   18e4f:	8b 04 02             	mov    (%rdx,%rax,1),%eax
   18e52:	89 c1                	mov    %eax,%ecx
   18e54:	8b 45 fc             	mov    -0x4(%rbp),%eax
   18e57:	89 c2                	mov    %eax,%edx
   18e59:	48 8d 35 eb 29 00 00 	lea    0x29eb(%rip),%rsi        # 1b84b <g_1906+0x76b>
   18e60:	48 89 cf             	mov    %rcx,%rdi
   18e63:	e8 8b 28 ff ff       	callq  b6f3 <transparent_crc>
   18e68:	83 7d fc 00          	cmpl   $0x0,-0x4(%rbp)
   18e6c:	74 16                	je     18e84 <main+0x608>
   18e6e:	8b 45 f0             	mov    -0x10(%rbp),%eax
   18e71:	89 c6                	mov    %eax,%esi
   18e73:	48 8d 3d 56 29 00 00 	lea    0x2956(%rip),%rdi        # 1b7d0 <g_1906+0x6f0>
   18e7a:	b8 00 00 00 00       	mov    $0x0,%eax
   18e7f:	e8 fc 11 ff ff       	callq  a080 <printf@plt>
   18e84:	83 45 f0 01          	addl   $0x1,-0x10(%rbp)
   18e88:	83 7d f0 02          	cmpl   $0x2,-0x10(%rbp)
   18e8c:	7e ad                	jle    18e3b <main+0x5bf>
   18e8e:	c7 45 f0 00 00 00 00 	movl   $0x0,-0x10(%rbp)
   18e95:	eb 45                	jmp    18edc <main+0x660>
   18e97:	8b 45 f0             	mov    -0x10(%rbp),%eax
   18e9a:	48 98                	cltq   
   18e9c:	48 8d 15 71 63 00 00 	lea    0x6371(%rip),%rdx        # 1f214 <g_376>
   18ea3:	0f b6 04 10          	movzbl (%rax,%rdx,1),%eax
   18ea7:	0f b6 c0             	movzbl %al,%eax
   18eaa:	8b 55 fc             	mov    -0x4(%rbp),%edx
   18ead:	48 8d 35 a0 29 00 00 	lea    0x29a0(%rip),%rsi        # 1b854 <g_1906+0x774>
   18eb4:	48 89 c7             	mov    %rax,%rdi
   18eb7:	e8 37 28 ff ff       	callq  b6f3 <transparent_crc>
   18ebc:	83 7d fc 00          	cmpl   $0x0,-0x4(%rbp)
   18ec0:	74 16                	je     18ed8 <main+0x65c>
   18ec2:	8b 45 f0             	mov    -0x10(%rbp),%eax
   18ec5:	89 c6                	mov    %eax,%esi
   18ec7:	48 8d 3d 02 29 00 00 	lea    0x2902(%rip),%rdi        # 1b7d0 <g_1906+0x6f0>
   18ece:	b8 00 00 00 00       	mov    $0x0,%eax
   18ed3:	e8 a8 11 ff ff       	callq  a080 <printf@plt>
   18ed8:	83 45 f0 01          	addl   $0x1,-0x10(%rbp)
   18edc:	83 7d f0 05          	cmpl   $0x5,-0x10(%rbp)
   18ee0:	7e b5                	jle    18e97 <main+0x61b>
   18ee2:	0f b6 05 31 63 00 00 	movzbl 0x6331(%rip),%eax        # 1f21a <g_381>
   18ee9:	0f b6 c0             	movzbl %al,%eax
   18eec:	8b 55 fc             	mov    -0x4(%rbp),%edx
   18eef:	48 8d 35 67 29 00 00 	lea    0x2967(%rip),%rsi        # 1b85d <g_1906+0x77d>
   18ef6:	48 89 c7             	mov    %rax,%rdi
   18ef9:	e8 f5 27 ff ff       	callq  b6f3 <transparent_crc>
   18efe:	8b 05 18 63 00 00    	mov    0x6318(%rip),%eax        # 1f21c <g_426>
   18f04:	89 c1                	mov    %eax,%ecx
   18f06:	8b 45 fc             	mov    -0x4(%rbp),%eax
   18f09:	89 c2                	mov    %eax,%edx
   18f0b:	48 8d 35 51 29 00 00 	lea    0x2951(%rip),%rsi        # 1b863 <g_1906+0x783>
   18f12:	48 89 cf             	mov    %rcx,%rdi
   18f15:	e8 d9 27 ff ff       	callq  b6f3 <transparent_crc>
   18f1a:	48 8b 05 ff 62 00 00 	mov    0x62ff(%rip),%rax        # 1f220 <g_436>
   18f21:	48 89 c1             	mov    %rax,%rcx
   18f24:	8b 45 fc             	mov    -0x4(%rbp),%eax
   18f27:	89 c2                	mov    %eax,%edx
   18f29:	48 8d 35 39 29 00 00 	lea    0x2939(%rip),%rsi        # 1b869 <g_1906+0x789>
   18f30:	48 89 cf             	mov    %rcx,%rdi
   18f33:	e8 bb 27 ff ff       	callq  b6f3 <transparent_crc>
   18f38:	8b 05 ea 62 00 00    	mov    0x62ea(%rip),%eax        # 1f228 <g_450>
   18f3e:	89 c1                	mov    %eax,%ecx
   18f40:	8b 45 fc             	mov    -0x4(%rbp),%eax
   18f43:	89 c2                	mov    %eax,%edx
   18f45:	48 8d 35 23 29 00 00 	lea    0x2923(%rip),%rsi        # 1b86f <g_1906+0x78f>
   18f4c:	48 89 cf             	mov    %rcx,%rdi
   18f4f:	e8 9f 27 ff ff       	callq  b6f3 <transparent_crc>
   18f54:	0f b7 05 d1 62 00 00 	movzwl 0x62d1(%rip),%eax        # 1f22c <g_453>
   18f5b:	0f b7 c0             	movzwl %ax,%eax
   18f5e:	8b 55 fc             	mov    -0x4(%rbp),%edx
   18f61:	48 8d 35 0d 29 00 00 	lea    0x290d(%rip),%rsi        # 1b875 <g_1906+0x795>
   18f68:	48 89 c7             	mov    %rax,%rdi
   18f6b:	e8 83 27 ff ff       	callq  b6f3 <transparent_crc>
   18f70:	8b 05 02 a4 00 00    	mov    0xa402(%rip),%eax        # 23378 <g_507>
   18f76:	48 98                	cltq   
   18f78:	8b 55 fc             	mov    -0x4(%rbp),%edx
   18f7b:	48 8d 35 f9 28 00 00 	lea    0x28f9(%rip),%rsi        # 1b87b <g_1906+0x79b>
   18f82:	48 89 c7             	mov    %rax,%rdi
   18f85:	e8 69 27 ff ff       	callq  b6f3 <transparent_crc>
   18f8a:	0f b6 05 9d 62 00 00 	movzbl 0x629d(%rip),%eax        # 1f22e <g_556>
   18f91:	48 0f be c0          	movsbq %al,%rax
   18f95:	8b 55 fc             	mov    -0x4(%rbp),%edx
   18f98:	48 8d 35 e2 28 00 00 	lea    0x28e2(%rip),%rsi        # 1b881 <g_1906+0x7a1>
   18f9f:	48 89 c7             	mov    %rax,%rdi
   18fa2:	e8 4c 27 ff ff       	callq  b6f3 <transparent_crc>
   18fa7:	8b 05 83 62 00 00    	mov    0x6283(%rip),%eax        # 1f230 <g_557>
   18fad:	89 c1                	mov    %eax,%ecx
   18faf:	8b 45 fc             	mov    -0x4(%rbp),%eax
   18fb2:	89 c2                	mov    %eax,%edx
   18fb4:	48 8d 35 cc 28 00 00 	lea    0x28cc(%rip),%rsi        # 1b887 <g_1906+0x7a7>
   18fbb:	48 89 cf             	mov    %rcx,%rdi
   18fbe:	e8 30 27 ff ff       	callq  b6f3 <transparent_crc>
   18fc3:	0f b6 05 6a 62 00 00 	movzbl 0x626a(%rip),%eax        # 1f234 <g_562>
   18fca:	83 e0 7f             	and    $0x7f,%eax
   18fcd:	0f b6 c0             	movzbl %al,%eax
   18fd0:	8b 55 fc             	mov    -0x4(%rbp),%edx
   18fd3:	48 8d 35 b3 28 00 00 	lea    0x28b3(%rip),%rsi        # 1b88d <g_1906+0x7ad>
   18fda:	48 89 c7             	mov    %rax,%rdi
   18fdd:	e8 11 27 ff ff       	callq  b6f3 <transparent_crc>
   18fe2:	0f b7 05 4c 62 00 00 	movzwl 0x624c(%rip),%eax        # 1f235 <g_562+0x1>
   18fe9:	48 0f bf c0          	movswq %ax,%rax
   18fed:	8b 55 fc             	mov    -0x4(%rbp),%edx
   18ff0:	48 8d 35 9f 28 00 00 	lea    0x289f(%rip),%rsi        # 1b896 <g_1906+0x7b6>
   18ff7:	48 89 c7             	mov    %rax,%rdi
   18ffa:	e8 f4 26 ff ff       	callq  b6f3 <transparent_crc>
   18fff:	0f b6 05 31 62 00 00 	movzbl 0x6231(%rip),%eax        # 1f237 <g_563>
   19006:	83 e0 7f             	and    $0x7f,%eax
   19009:	0f b6 c0             	movzbl %al,%eax
   1900c:	8b 55 fc             	mov    -0x4(%rbp),%edx
   1900f:	48 8d 35 89 28 00 00 	lea    0x2889(%rip),%rsi        # 1b89f <g_1906+0x7bf>
   19016:	48 89 c7             	mov    %rax,%rdi
   19019:	e8 d5 26 ff ff       	callq  b6f3 <transparent_crc>
   1901e:	0f b7 05 13 62 00 00 	movzwl 0x6213(%rip),%eax        # 1f238 <g_563+0x1>
   19025:	48 0f bf c0          	movswq %ax,%rax
   19029:	8b 55 fc             	mov    -0x4(%rbp),%edx
   1902c:	48 8d 35 75 28 00 00 	lea    0x2875(%rip),%rsi        # 1b8a8 <g_1906+0x7c8>
   19033:	48 89 c7             	mov    %rax,%rdi
   19036:	e8 b8 26 ff ff       	callq  b6f3 <transparent_crc>
   1903b:	0f b6 05 f8 61 00 00 	movzbl 0x61f8(%rip),%eax        # 1f23a <g_564>
   19042:	83 e0 7f             	and    $0x7f,%eax
   19045:	0f b6 c0             	movzbl %al,%eax
   19048:	8b 55 fc             	mov    -0x4(%rbp),%edx
   1904b:	48 8d 35 5f 28 00 00 	lea    0x285f(%rip),%rsi        # 1b8b1 <g_1906+0x7d1>
   19052:	48 89 c7             	mov    %rax,%rdi
   19055:	e8 99 26 ff ff       	callq  b6f3 <transparent_crc>
   1905a:	0f b7 05 da 61 00 00 	movzwl 0x61da(%rip),%eax        # 1f23b <g_564+0x1>
   19061:	48 0f bf c0          	movswq %ax,%rax
   19065:	8b 55 fc             	mov    -0x4(%rbp),%edx
   19068:	48 8d 35 4b 28 00 00 	lea    0x284b(%rip),%rsi        # 1b8ba <g_1906+0x7da>
   1906f:	48 89 c7             	mov    %rax,%rdi
   19072:	e8 7c 26 ff ff       	callq  b6f3 <transparent_crc>
   19077:	0f b6 05 bf 61 00 00 	movzbl 0x61bf(%rip),%eax        # 1f23d <g_565>
   1907e:	83 e0 7f             	and    $0x7f,%eax
   19081:	0f b6 c0             	movzbl %al,%eax
   19084:	8b 55 fc             	mov    -0x4(%rbp),%edx
   19087:	48 8d 35 35 28 00 00 	lea    0x2835(%rip),%rsi        # 1b8c3 <g_1906+0x7e3>
   1908e:	48 89 c7             	mov    %rax,%rdi
   19091:	e8 5d 26 ff ff       	callq  b6f3 <transparent_crc>
   19096:	0f b7 05 a1 61 00 00 	movzwl 0x61a1(%rip),%eax        # 1f23e <g_565+0x1>
   1909d:	48 0f bf c0          	movswq %ax,%rax
   190a1:	8b 55 fc             	mov    -0x4(%rbp),%edx
   190a4:	48 8d 35 21 28 00 00 	lea    0x2821(%rip),%rsi        # 1b8cc <g_1906+0x7ec>
   190ab:	48 89 c7             	mov    %rax,%rdi
   190ae:	e8 40 26 ff ff       	callq  b6f3 <transparent_crc>
   190b3:	0f b6 05 86 61 00 00 	movzbl 0x6186(%rip),%eax        # 1f240 <g_566>
   190ba:	83 e0 7f             	and    $0x7f,%eax
   190bd:	0f b6 c0             	movzbl %al,%eax
   190c0:	8b 55 fc             	mov    -0x4(%rbp),%edx
   190c3:	48 8d 35 0b 28 00 00 	lea    0x280b(%rip),%rsi        # 1b8d5 <g_1906+0x7f5>
   190ca:	48 89 c7             	mov    %rax,%rdi
   190cd:	e8 21 26 ff ff       	callq  b6f3 <transparent_crc>
   190d2:	0f b7 05 68 61 00 00 	movzwl 0x6168(%rip),%eax        # 1f241 <g_566+0x1>
   190d9:	48 0f bf c0          	movswq %ax,%rax
   190dd:	8b 55 fc             	mov    -0x4(%rbp),%edx
   190e0:	48 8d 35 f7 27 00 00 	lea    0x27f7(%rip),%rsi        # 1b8de <g_1906+0x7fe>
   190e7:	48 89 c7             	mov    %rax,%rdi
   190ea:	e8 04 26 ff ff       	callq  b6f3 <transparent_crc>
   190ef:	0f b6 05 4d 61 00 00 	movzbl 0x614d(%rip),%eax        # 1f243 <g_567>
   190f6:	83 e0 7f             	and    $0x7f,%eax
   190f9:	0f b6 c0             	movzbl %al,%eax
   190fc:	8b 55 fc             	mov    -0x4(%rbp),%edx
   190ff:	48 8d 35 e1 27 00 00 	lea    0x27e1(%rip),%rsi        # 1b8e7 <g_1906+0x807>
   19106:	48 89 c7             	mov    %rax,%rdi
   19109:	e8 e5 25 ff ff       	callq  b6f3 <transparent_crc>
   1910e:	0f b7 05 2f 61 00 00 	movzwl 0x612f(%rip),%eax        # 1f244 <g_567+0x1>
   19115:	48 0f bf c0          	movswq %ax,%rax
   19119:	8b 55 fc             	mov    -0x4(%rbp),%edx
   1911c:	48 8d 35 cd 27 00 00 	lea    0x27cd(%rip),%rsi        # 1b8f0 <g_1906+0x810>
   19123:	48 89 c7             	mov    %rax,%rdi
   19126:	e8 c8 25 ff ff       	callq  b6f3 <transparent_crc>
   1912b:	c7 45 f0 00 00 00 00 	movl   $0x0,-0x10(%rbp)
   19132:	e9 83 00 00 00       	jmpq   191ba <main+0x93e>
   19137:	8b 45 f0             	mov    -0x10(%rbp),%eax
   1913a:	48 63 d0             	movslq %eax,%rdx
   1913d:	48 89 d0             	mov    %rdx,%rax
   19140:	48 01 c0             	add    %rax,%rax
   19143:	48 01 c2             	add    %rax,%rdx
   19146:	48 8d 05 03 61 00 00 	lea    0x6103(%rip),%rax        # 1f250 <g_568>
   1914d:	0f b6 04 02          	movzbl (%rdx,%rax,1),%eax
   19151:	83 e0 7f             	and    $0x7f,%eax
   19154:	0f b6 c0             	movzbl %al,%eax
   19157:	8b 55 fc             	mov    -0x4(%rbp),%edx
   1915a:	48 8d 35 98 27 00 00 	lea    0x2798(%rip),%rsi        # 1b8f9 <g_1906+0x819>
   19161:	48 89 c7             	mov    %rax,%rdi
   19164:	e8 8a 25 ff ff       	callq  b6f3 <transparent_crc>
   19169:	8b 45 f0             	mov    -0x10(%rbp),%eax
   1916c:	48 63 d0             	movslq %eax,%rdx
   1916f:	48 89 d0             	mov    %rdx,%rax
   19172:	48 01 c0             	add    %rax,%rax
   19175:	48 01 c2             	add    %rax,%rdx
   19178:	48 8d 05 d1 60 00 00 	lea    0x60d1(%rip),%rax        # 1f250 <g_568>
   1917f:	0f b7 44 02 01       	movzwl 0x1(%rdx,%rax,1),%eax
   19184:	48 0f bf c0          	movswq %ax,%rax
   19188:	8b 55 fc             	mov    -0x4(%rbp),%edx
   1918b:	48 8d 35 73 27 00 00 	lea    0x2773(%rip),%rsi        # 1b905 <g_1906+0x825>
   19192:	48 89 c7             	mov    %rax,%rdi
   19195:	e8 59 25 ff ff       	callq  b6f3 <transparent_crc>
   1919a:	83 7d fc 00          	cmpl   $0x0,-0x4(%rbp)
   1919e:	74 16                	je     191b6 <main+0x93a>
   191a0:	8b 45 f0             	mov    -0x10(%rbp),%eax
   191a3:	89 c6                	mov    %eax,%esi
   191a5:	48 8d 3d 24 26 00 00 	lea    0x2624(%rip),%rdi        # 1b7d0 <g_1906+0x6f0>
   191ac:	b8 00 00 00 00       	mov    $0x0,%eax
   191b1:	e8 ca 0e ff ff       	callq  a080 <printf@plt>
   191b6:	83 45 f0 01          	addl   $0x1,-0x10(%rbp)
   191ba:	83 7d f0 09          	cmpl   $0x9,-0x10(%rbp)
   191be:	0f 8e 73 ff ff ff    	jle    19137 <main+0x8bb>
   191c4:	0f b6 05 a3 60 00 00 	movzbl 0x60a3(%rip),%eax        # 1f26e <g_569>
   191cb:	83 e0 7f             	and    $0x7f,%eax
   191ce:	0f b6 c0             	movzbl %al,%eax
   191d1:	8b 55 fc             	mov    -0x4(%rbp),%edx
   191d4:	48 8d 35 36 27 00 00 	lea    0x2736(%rip),%rsi        # 1b911 <g_1906+0x831>
   191db:	48 89 c7             	mov    %rax,%rdi
   191de:	e8 10 25 ff ff       	callq  b6f3 <transparent_crc>
   191e3:	0f b7 05 85 60 00 00 	movzwl 0x6085(%rip),%eax        # 1f26f <g_569+0x1>
   191ea:	48 0f bf c0          	movswq %ax,%rax
   191ee:	8b 55 fc             	mov    -0x4(%rbp),%edx
   191f1:	48 8d 35 22 27 00 00 	lea    0x2722(%rip),%rsi        # 1b91a <g_1906+0x83a>
   191f8:	48 89 c7             	mov    %rax,%rdi
   191fb:	e8 f3 24 ff ff       	callq  b6f3 <transparent_crc>
   19200:	0f b6 05 6a 60 00 00 	movzbl 0x606a(%rip),%eax        # 1f271 <g_570>
   19207:	83 e0 7f             	and    $0x7f,%eax
   1920a:	0f b6 c0             	movzbl %al,%eax
   1920d:	8b 55 fc             	mov    -0x4(%rbp),%edx
   19210:	48 8d 35 0c 27 00 00 	lea    0x270c(%rip),%rsi        # 1b923 <g_1906+0x843>
   19217:	48 89 c7             	mov    %rax,%rdi
   1921a:	e8 d4 24 ff ff       	callq  b6f3 <transparent_crc>
   1921f:	0f b7 05 4c 60 00 00 	movzwl 0x604c(%rip),%eax        # 1f272 <g_570+0x1>
   19226:	48 0f bf c0          	movswq %ax,%rax
   1922a:	8b 55 fc             	mov    -0x4(%rbp),%edx
   1922d:	48 8d 35 f8 26 00 00 	lea    0x26f8(%rip),%rsi        # 1b92c <g_1906+0x84c>
   19234:	48 89 c7             	mov    %rax,%rdi
   19237:	e8 b7 24 ff ff       	callq  b6f3 <transparent_crc>
   1923c:	0f b6 05 31 60 00 00 	movzbl 0x6031(%rip),%eax        # 1f274 <g_571>
   19243:	83 e0 7f             	and    $0x7f,%eax
   19246:	0f b6 c0             	movzbl %al,%eax
   19249:	8b 55 fc             	mov    -0x4(%rbp),%edx
   1924c:	48 8d 35 e2 26 00 00 	lea    0x26e2(%rip),%rsi        # 1b935 <g_1906+0x855>
   19253:	48 89 c7             	mov    %rax,%rdi
   19256:	e8 98 24 ff ff       	callq  b6f3 <transparent_crc>
   1925b:	0f b7 05 13 60 00 00 	movzwl 0x6013(%rip),%eax        # 1f275 <g_571+0x1>
   19262:	48 0f bf c0          	movswq %ax,%rax
   19266:	8b 55 fc             	mov    -0x4(%rbp),%edx
   19269:	48 8d 35 ce 26 00 00 	lea    0x26ce(%rip),%rsi        # 1b93e <g_1906+0x85e>
   19270:	48 89 c7             	mov    %rax,%rdi
   19273:	e8 7b 24 ff ff       	callq  b6f3 <transparent_crc>
   19278:	0f b6 05 f8 5f 00 00 	movzbl 0x5ff8(%rip),%eax        # 1f277 <g_572>
   1927f:	83 e0 7f             	and    $0x7f,%eax
   19282:	0f b6 c0             	movzbl %al,%eax
   19285:	8b 55 fc             	mov    -0x4(%rbp),%edx
   19288:	48 8d 35 b8 26 00 00 	lea    0x26b8(%rip),%rsi        # 1b947 <g_1906+0x867>
   1928f:	48 89 c7             	mov    %rax,%rdi
   19292:	e8 5c 24 ff ff       	callq  b6f3 <transparent_crc>
   19297:	0f b7 05 da 5f 00 00 	movzwl 0x5fda(%rip),%eax        # 1f278 <g_572+0x1>
   1929e:	48 0f bf c0          	movswq %ax,%rax
   192a2:	8b 55 fc             	mov    -0x4(%rbp),%edx
   192a5:	48 8d 35 a4 26 00 00 	lea    0x26a4(%rip),%rsi        # 1b950 <g_1906+0x870>
   192ac:	48 89 c7             	mov    %rax,%rdi
   192af:	e8 3f 24 ff ff       	callq  b6f3 <transparent_crc>
   192b4:	0f b6 05 bf 5f 00 00 	movzbl 0x5fbf(%rip),%eax        # 1f27a <g_573>
   192bb:	83 e0 7f             	and    $0x7f,%eax
   192be:	0f b6 c0             	movzbl %al,%eax
   192c1:	8b 55 fc             	mov    -0x4(%rbp),%edx
   192c4:	48 8d 35 8e 26 00 00 	lea    0x268e(%rip),%rsi        # 1b959 <g_1906+0x879>
   192cb:	48 89 c7             	mov    %rax,%rdi
   192ce:	e8 20 24 ff ff       	callq  b6f3 <transparent_crc>
   192d3:	0f b7 05 a1 5f 00 00 	movzwl 0x5fa1(%rip),%eax        # 1f27b <g_573+0x1>
   192da:	48 0f bf c0          	movswq %ax,%rax
   192de:	8b 55 fc             	mov    -0x4(%rbp),%edx
   192e1:	48 8d 35 7a 26 00 00 	lea    0x267a(%rip),%rsi        # 1b962 <g_1906+0x882>
   192e8:	48 89 c7             	mov    %rax,%rdi
   192eb:	e8 03 24 ff ff       	callq  b6f3 <transparent_crc>
   192f0:	0f b6 05 86 5f 00 00 	movzbl 0x5f86(%rip),%eax        # 1f27d <g_574>
   192f7:	83 e0 7f             	and    $0x7f,%eax
   192fa:	0f b6 c0             	movzbl %al,%eax
   192fd:	8b 55 fc             	mov    -0x4(%rbp),%edx
   19300:	48 8d 35 64 26 00 00 	lea    0x2664(%rip),%rsi        # 1b96b <g_1906+0x88b>
   19307:	48 89 c7             	mov    %rax,%rdi
   1930a:	e8 e4 23 ff ff       	callq  b6f3 <transparent_crc>
   1930f:	0f b7 05 68 5f 00 00 	movzwl 0x5f68(%rip),%eax        # 1f27e <g_574+0x1>
   19316:	48 0f bf c0          	movswq %ax,%rax
   1931a:	8b 55 fc             	mov    -0x4(%rbp),%edx
   1931d:	48 8d 35 50 26 00 00 	lea    0x2650(%rip),%rsi        # 1b974 <g_1906+0x894>
   19324:	48 89 c7             	mov    %rax,%rdi
   19327:	e8 c7 23 ff ff       	callq  b6f3 <transparent_crc>
   1932c:	0f b6 05 4d 5f 00 00 	movzbl 0x5f4d(%rip),%eax        # 1f280 <g_575>
   19333:	83 e0 7f             	and    $0x7f,%eax
   19336:	0f b6 c0             	movzbl %al,%eax
   19339:	8b 55 fc             	mov    -0x4(%rbp),%edx
   1933c:	48 8d 35 3a 26 00 00 	lea    0x263a(%rip),%rsi        # 1b97d <g_1906+0x89d>
   19343:	48 89 c7             	mov    %rax,%rdi
   19346:	e8 a8 23 ff ff       	callq  b6f3 <transparent_crc>
   1934b:	0f b7 05 2f 5f 00 00 	movzwl 0x5f2f(%rip),%eax        # 1f281 <g_575+0x1>
   19352:	48 0f bf c0          	movswq %ax,%rax
   19356:	8b 55 fc             	mov    -0x4(%rbp),%edx
   19359:	48 8d 35 26 26 00 00 	lea    0x2626(%rip),%rsi        # 1b986 <g_1906+0x8a6>
   19360:	48 89 c7             	mov    %rax,%rdi
   19363:	e8 8b 23 ff ff       	callq  b6f3 <transparent_crc>
   19368:	0f b6 05 14 5f 00 00 	movzbl 0x5f14(%rip),%eax        # 1f283 <g_576>
   1936f:	83 e0 7f             	and    $0x7f,%eax
   19372:	0f b6 c0             	movzbl %al,%eax
   19375:	8b 55 fc             	mov    -0x4(%rbp),%edx
   19378:	48 8d 35 10 26 00 00 	lea    0x2610(%rip),%rsi        # 1b98f <g_1906+0x8af>
   1937f:	48 89 c7             	mov    %rax,%rdi
   19382:	e8 6c 23 ff ff       	callq  b6f3 <transparent_crc>
   19387:	0f b7 05 f6 5e 00 00 	movzwl 0x5ef6(%rip),%eax        # 1f284 <g_576+0x1>
   1938e:	48 0f bf c0          	movswq %ax,%rax
   19392:	8b 55 fc             	mov    -0x4(%rbp),%edx
   19395:	48 8d 35 fc 25 00 00 	lea    0x25fc(%rip),%rsi        # 1b998 <g_1906+0x8b8>
   1939c:	48 89 c7             	mov    %rax,%rdi
   1939f:	e8 4f 23 ff ff       	callq  b6f3 <transparent_crc>
   193a4:	c7 45 f0 00 00 00 00 	movl   $0x0,-0x10(%rbp)
   193ab:	e9 83 00 00 00       	jmpq   19433 <main+0xbb7>
   193b0:	8b 45 f0             	mov    -0x10(%rbp),%eax
   193b3:	48 63 d0             	movslq %eax,%rdx
   193b6:	48 89 d0             	mov    %rdx,%rax
   193b9:	48 01 c0             	add    %rax,%rax
   193bc:	48 01 c2             	add    %rax,%rdx
   193bf:	48 8d 05 ca 5e 00 00 	lea    0x5eca(%rip),%rax        # 1f290 <g_577>
   193c6:	0f b6 04 02          	movzbl (%rdx,%rax,1),%eax
   193ca:	83 e0 7f             	and    $0x7f,%eax
   193cd:	0f b6 c0             	movzbl %al,%eax
   193d0:	8b 55 fc             	mov    -0x4(%rbp),%edx
   193d3:	48 8d 35 c7 25 00 00 	lea    0x25c7(%rip),%rsi        # 1b9a1 <g_1906+0x8c1>
   193da:	48 89 c7             	mov    %rax,%rdi
   193dd:	e8 11 23 ff ff       	callq  b6f3 <transparent_crc>
   193e2:	8b 45 f0             	mov    -0x10(%rbp),%eax
   193e5:	48 63 d0             	movslq %eax,%rdx
   193e8:	48 89 d0             	mov    %rdx,%rax
   193eb:	48 01 c0             	add    %rax,%rax
   193ee:	48 01 c2             	add    %rax,%rdx
   193f1:	48 8d 05 98 5e 00 00 	lea    0x5e98(%rip),%rax        # 1f290 <g_577>
   193f8:	0f b7 44 02 01       	movzwl 0x1(%rdx,%rax,1),%eax
   193fd:	48 0f bf c0          	movswq %ax,%rax
   19401:	8b 55 fc             	mov    -0x4(%rbp),%edx
   19404:	48 8d 35 a2 25 00 00 	lea    0x25a2(%rip),%rsi        # 1b9ad <g_1906+0x8cd>
   1940b:	48 89 c7             	mov    %rax,%rdi
   1940e:	e8 e0 22 ff ff       	callq  b6f3 <transparent_crc>
   19413:	83 7d fc 00          	cmpl   $0x0,-0x4(%rbp)
   19417:	74 16                	je     1942f <main+0xbb3>
   19419:	8b 45 f0             	mov    -0x10(%rbp),%eax
   1941c:	89 c6                	mov    %eax,%esi
   1941e:	48 8d 3d ab 23 00 00 	lea    0x23ab(%rip),%rdi        # 1b7d0 <g_1906+0x6f0>
   19425:	b8 00 00 00 00       	mov    $0x0,%eax
   1942a:	e8 51 0c ff ff       	callq  a080 <printf@plt>
   1942f:	83 45 f0 01          	addl   $0x1,-0x10(%rbp)
   19433:	83 7d f0 08          	cmpl   $0x8,-0x10(%rbp)
   19437:	0f 8e 73 ff ff ff    	jle    193b0 <main+0xb34>
   1943d:	0f b6 05 67 5e 00 00 	movzbl 0x5e67(%rip),%eax        # 1f2ab <g_578>
   19444:	83 e0 7f             	and    $0x7f,%eax
   19447:	0f b6 c0             	movzbl %al,%eax
   1944a:	8b 55 fc             	mov    -0x4(%rbp),%edx
   1944d:	48 8d 35 65 25 00 00 	lea    0x2565(%rip),%rsi        # 1b9b9 <g_1906+0x8d9>
   19454:	48 89 c7             	mov    %rax,%rdi
   19457:	e8 97 22 ff ff       	callq  b6f3 <transparent_crc>
   1945c:	0f b7 05 49 5e 00 00 	movzwl 0x5e49(%rip),%eax        # 1f2ac <g_578+0x1>
   19463:	48 0f bf c0          	movswq %ax,%rax
   19467:	8b 55 fc             	mov    -0x4(%rbp),%edx
   1946a:	48 8d 35 51 25 00 00 	lea    0x2551(%rip),%rsi        # 1b9c2 <g_1906+0x8e2>
   19471:	48 89 c7             	mov    %rax,%rdi
   19474:	e8 7a 22 ff ff       	callq  b6f3 <transparent_crc>
   19479:	0f b6 05 2e 5e 00 00 	movzbl 0x5e2e(%rip),%eax        # 1f2ae <g_579>
   19480:	83 e0 7f             	and    $0x7f,%eax
   19483:	0f b6 c0             	movzbl %al,%eax
   19486:	8b 55 fc             	mov    -0x4(%rbp),%edx
   19489:	48 8d 35 3b 25 00 00 	lea    0x253b(%rip),%rsi        # 1b9cb <g_1906+0x8eb>
   19490:	48 89 c7             	mov    %rax,%rdi
   19493:	e8 5b 22 ff ff       	callq  b6f3 <transparent_crc>
   19498:	0f b7 05 10 5e 00 00 	movzwl 0x5e10(%rip),%eax        # 1f2af <g_579+0x1>
   1949f:	48 0f bf c0          	movswq %ax,%rax
   194a3:	8b 55 fc             	mov    -0x4(%rbp),%edx
   194a6:	48 8d 35 27 25 00 00 	lea    0x2527(%rip),%rsi        # 1b9d4 <g_1906+0x8f4>
   194ad:	48 89 c7             	mov    %rax,%rdi
   194b0:	e8 3e 22 ff ff       	callq  b6f3 <transparent_crc>
   194b5:	0f b6 05 f5 5d 00 00 	movzbl 0x5df5(%rip),%eax        # 1f2b1 <g_580>
   194bc:	83 e0 7f             	and    $0x7f,%eax
   194bf:	0f b6 c0             	movzbl %al,%eax
   194c2:	8b 55 fc             	mov    -0x4(%rbp),%edx
   194c5:	48 8d 35 11 25 00 00 	lea    0x2511(%rip),%rsi        # 1b9dd <g_1906+0x8fd>
   194cc:	48 89 c7             	mov    %rax,%rdi
   194cf:	e8 1f 22 ff ff       	callq  b6f3 <transparent_crc>
   194d4:	0f b7 05 d7 5d 00 00 	movzwl 0x5dd7(%rip),%eax        # 1f2b2 <g_580+0x1>
   194db:	48 0f bf c0          	movswq %ax,%rax
   194df:	8b 55 fc             	mov    -0x4(%rbp),%edx
   194e2:	48 8d 35 fd 24 00 00 	lea    0x24fd(%rip),%rsi        # 1b9e6 <g_1906+0x906>
   194e9:	48 89 c7             	mov    %rax,%rdi
   194ec:	e8 02 22 ff ff       	callq  b6f3 <transparent_crc>
   194f1:	0f b6 05 bc 5d 00 00 	movzbl 0x5dbc(%rip),%eax        # 1f2b4 <g_581>
   194f8:	83 e0 7f             	and    $0x7f,%eax
   194fb:	0f b6 c0             	movzbl %al,%eax
   194fe:	8b 55 fc             	mov    -0x4(%rbp),%edx
   19501:	48 8d 35 e7 24 00 00 	lea    0x24e7(%rip),%rsi        # 1b9ef <g_1906+0x90f>
   19508:	48 89 c7             	mov    %rax,%rdi
   1950b:	e8 e3 21 ff ff       	callq  b6f3 <transparent_crc>
   19510:	0f b7 05 9e 5d 00 00 	movzwl 0x5d9e(%rip),%eax        # 1f2b5 <g_581+0x1>
   19517:	48 0f bf c0          	movswq %ax,%rax
   1951b:	8b 55 fc             	mov    -0x4(%rbp),%edx
   1951e:	48 8d 35 d3 24 00 00 	lea    0x24d3(%rip),%rsi        # 1b9f8 <g_1906+0x918>
   19525:	48 89 c7             	mov    %rax,%rdi
   19528:	e8 c6 21 ff ff       	callq  b6f3 <transparent_crc>
   1952d:	0f b6 05 83 5d 00 00 	movzbl 0x5d83(%rip),%eax        # 1f2b7 <g_582>
   19534:	83 e0 7f             	and    $0x7f,%eax
   19537:	0f b6 c0             	movzbl %al,%eax
   1953a:	8b 55 fc             	mov    -0x4(%rbp),%edx
   1953d:	48 8d 35 bd 24 00 00 	lea    0x24bd(%rip),%rsi        # 1ba01 <g_1906+0x921>
   19544:	48 89 c7             	mov    %rax,%rdi
   19547:	e8 a7 21 ff ff       	callq  b6f3 <transparent_crc>
   1954c:	0f b7 05 65 5d 00 00 	movzwl 0x5d65(%rip),%eax        # 1f2b8 <g_582+0x1>
   19553:	48 0f bf c0          	movswq %ax,%rax
   19557:	8b 55 fc             	mov    -0x4(%rbp),%edx
   1955a:	48 8d 35 a9 24 00 00 	lea    0x24a9(%rip),%rsi        # 1ba0a <g_1906+0x92a>
   19561:	48 89 c7             	mov    %rax,%rdi
   19564:	e8 8a 21 ff ff       	callq  b6f3 <transparent_crc>
   19569:	0f b6 05 4a 5d 00 00 	movzbl 0x5d4a(%rip),%eax        # 1f2ba <g_583>
   19570:	83 e0 7f             	and    $0x7f,%eax
   19573:	0f b6 c0             	movzbl %al,%eax
   19576:	8b 55 fc             	mov    -0x4(%rbp),%edx
   19579:	48 8d 35 93 24 00 00 	lea    0x2493(%rip),%rsi        # 1ba13 <g_1906+0x933>
   19580:	48 89 c7             	mov    %rax,%rdi
   19583:	e8 6b 21 ff ff       	callq  b6f3 <transparent_crc>
   19588:	0f b7 05 2c 5d 00 00 	movzwl 0x5d2c(%rip),%eax        # 1f2bb <g_583+0x1>
   1958f:	48 0f bf c0          	movswq %ax,%rax
   19593:	8b 55 fc             	mov    -0x4(%rbp),%edx
   19596:	48 8d 35 7f 24 00 00 	lea    0x247f(%rip),%rsi        # 1ba1c <g_1906+0x93c>
   1959d:	48 89 c7             	mov    %rax,%rdi
   195a0:	e8 4e 21 ff ff       	callq  b6f3 <transparent_crc>
   195a5:	0f b6 05 11 5d 00 00 	movzbl 0x5d11(%rip),%eax        # 1f2bd <g_584>
   195ac:	83 e0 7f             	and    $0x7f,%eax
   195af:	0f b6 c0             	movzbl %al,%eax
   195b2:	8b 55 fc             	mov    -0x4(%rbp),%edx
   195b5:	48 8d 35 69 24 00 00 	lea    0x2469(%rip),%rsi        # 1ba25 <g_1906+0x945>
   195bc:	48 89 c7             	mov    %rax,%rdi
   195bf:	e8 2f 21 ff ff       	callq  b6f3 <transparent_crc>
   195c4:	0f b7 05 f3 5c 00 00 	movzwl 0x5cf3(%rip),%eax        # 1f2be <g_584+0x1>
   195cb:	48 0f bf c0          	movswq %ax,%rax
   195cf:	8b 55 fc             	mov    -0x4(%rbp),%edx
   195d2:	48 8d 35 55 24 00 00 	lea    0x2455(%rip),%rsi        # 1ba2e <g_1906+0x94e>
   195d9:	48 89 c7             	mov    %rax,%rdi
   195dc:	e8 12 21 ff ff       	callq  b6f3 <transparent_crc>
   195e1:	0f b6 05 94 9d 00 00 	movzbl 0x9d94(%rip),%eax        # 2337c <g_585>
   195e8:	83 e0 7f             	and    $0x7f,%eax
   195eb:	0f b6 c0             	movzbl %al,%eax
   195ee:	8b 55 fc             	mov    -0x4(%rbp),%edx
   195f1:	48 8d 35 3f 24 00 00 	lea    0x243f(%rip),%rsi        # 1ba37 <g_1906+0x957>
   195f8:	48 89 c7             	mov    %rax,%rdi
   195fb:	e8 f3 20 ff ff       	callq  b6f3 <transparent_crc>
   19600:	0f b7 05 76 9d 00 00 	movzwl 0x9d76(%rip),%eax        # 2337d <g_585+0x1>
   19607:	48 0f bf c0          	movswq %ax,%rax
   1960b:	8b 55 fc             	mov    -0x4(%rbp),%edx
   1960e:	48 8d 35 2b 24 00 00 	lea    0x242b(%rip),%rsi        # 1ba40 <g_1906+0x960>
   19615:	48 89 c7             	mov    %rax,%rdi
   19618:	e8 d6 20 ff ff       	callq  b6f3 <transparent_crc>
   1961d:	0f b6 05 9c 5c 00 00 	movzbl 0x5c9c(%rip),%eax        # 1f2c0 <g_586>
   19624:	83 e0 7f             	and    $0x7f,%eax
   19627:	0f b6 c0             	movzbl %al,%eax
   1962a:	8b 55 fc             	mov    -0x4(%rbp),%edx
   1962d:	48 8d 35 15 24 00 00 	lea    0x2415(%rip),%rsi        # 1ba49 <g_1906+0x969>
   19634:	48 89 c7             	mov    %rax,%rdi
   19637:	e8 b7 20 ff ff       	callq  b6f3 <transparent_crc>
   1963c:	0f b7 05 7e 5c 00 00 	movzwl 0x5c7e(%rip),%eax        # 1f2c1 <g_586+0x1>
   19643:	48 0f bf c0          	movswq %ax,%rax
   19647:	8b 55 fc             	mov    -0x4(%rbp),%edx
   1964a:	48 8d 35 01 24 00 00 	lea    0x2401(%rip),%rsi        # 1ba52 <g_1906+0x972>
   19651:	48 89 c7             	mov    %rax,%rdi
   19654:	e8 9a 20 ff ff       	callq  b6f3 <transparent_crc>
   19659:	0f b6 05 63 5c 00 00 	movzbl 0x5c63(%rip),%eax        # 1f2c3 <g_587>
   19660:	83 e0 7f             	and    $0x7f,%eax
   19663:	0f b6 c0             	movzbl %al,%eax
   19666:	8b 55 fc             	mov    -0x4(%rbp),%edx
   19669:	48 8d 35 eb 23 00 00 	lea    0x23eb(%rip),%rsi        # 1ba5b <g_1906+0x97b>
   19670:	48 89 c7             	mov    %rax,%rdi
   19673:	e8 7b 20 ff ff       	callq  b6f3 <transparent_crc>
   19678:	0f b7 05 45 5c 00 00 	movzwl 0x5c45(%rip),%eax        # 1f2c4 <g_587+0x1>
   1967f:	48 0f bf c0          	movswq %ax,%rax
   19683:	8b 55 fc             	mov    -0x4(%rbp),%edx
   19686:	48 8d 35 d7 23 00 00 	lea    0x23d7(%rip),%rsi        # 1ba64 <g_1906+0x984>
   1968d:	48 89 c7             	mov    %rax,%rdi
   19690:	e8 5e 20 ff ff       	callq  b6f3 <transparent_crc>
   19695:	0f b6 05 2a 5c 00 00 	movzbl 0x5c2a(%rip),%eax        # 1f2c6 <g_588>
   1969c:	83 e0 7f             	and    $0x7f,%eax
   1969f:	0f b6 c0             	movzbl %al,%eax
   196a2:	8b 55 fc             	mov    -0x4(%rbp),%edx
   196a5:	48 8d 35 c1 23 00 00 	lea    0x23c1(%rip),%rsi        # 1ba6d <g_1906+0x98d>
   196ac:	48 89 c7             	mov    %rax,%rdi
   196af:	e8 3f 20 ff ff       	callq  b6f3 <transparent_crc>
   196b4:	0f b7 05 0c 5c 00 00 	movzwl 0x5c0c(%rip),%eax        # 1f2c7 <g_588+0x1>
   196bb:	48 0f bf c0          	movswq %ax,%rax
   196bf:	8b 55 fc             	mov    -0x4(%rbp),%edx
   196c2:	48 8d 35 ad 23 00 00 	lea    0x23ad(%rip),%rsi        # 1ba76 <g_1906+0x996>
   196c9:	48 89 c7             	mov    %rax,%rdi
   196cc:	e8 22 20 ff ff       	callq  b6f3 <transparent_crc>
   196d1:	0f b6 05 f1 5b 00 00 	movzbl 0x5bf1(%rip),%eax        # 1f2c9 <g_589>
   196d8:	83 e0 7f             	and    $0x7f,%eax
   196db:	0f b6 c0             	movzbl %al,%eax
   196de:	8b 55 fc             	mov    -0x4(%rbp),%edx
   196e1:	48 8d 35 97 23 00 00 	lea    0x2397(%rip),%rsi        # 1ba7f <g_1906+0x99f>
   196e8:	48 89 c7             	mov    %rax,%rdi
   196eb:	e8 03 20 ff ff       	callq  b6f3 <transparent_crc>
   196f0:	0f b7 05 d3 5b 00 00 	movzwl 0x5bd3(%rip),%eax        # 1f2ca <g_589+0x1>
   196f7:	48 0f bf c0          	movswq %ax,%rax
   196fb:	8b 55 fc             	mov    -0x4(%rbp),%edx
   196fe:	48 8d 35 83 23 00 00 	lea    0x2383(%rip),%rsi        # 1ba88 <g_1906+0x9a8>
   19705:	48 89 c7             	mov    %rax,%rdi
   19708:	e8 e6 1f ff ff       	callq  b6f3 <transparent_crc>
   1970d:	c7 45 f0 00 00 00 00 	movl   $0x0,-0x10(%rbp)
   19714:	e9 83 00 00 00       	jmpq   1979c <main+0xf20>
   19719:	8b 45 f0             	mov    -0x10(%rbp),%eax
   1971c:	48 63 d0             	movslq %eax,%rdx
   1971f:	48 89 d0             	mov    %rdx,%rax
   19722:	48 01 c0             	add    %rax,%rax
   19725:	48 01 c2             	add    %rax,%rdx
   19728:	48 8d 05 9d 5b 00 00 	lea    0x5b9d(%rip),%rax        # 1f2cc <g_590>
   1972f:	0f b6 04 02          	movzbl (%rdx,%rax,1),%eax
   19733:	83 e0 7f             	and    $0x7f,%eax
   19736:	0f b6 c0             	movzbl %al,%eax
   19739:	8b 55 fc             	mov    -0x4(%rbp),%edx
   1973c:	48 8d 35 4e 23 00 00 	lea    0x234e(%rip),%rsi        # 1ba91 <g_1906+0x9b1>
   19743:	48 89 c7             	mov    %rax,%rdi
   19746:	e8 a8 1f ff ff       	callq  b6f3 <transparent_crc>
   1974b:	8b 45 f0             	mov    -0x10(%rbp),%eax
   1974e:	48 63 d0             	movslq %eax,%rdx
   19751:	48 89 d0             	mov    %rdx,%rax
   19754:	48 01 c0             	add    %rax,%rax
   19757:	48 01 c2             	add    %rax,%rdx
   1975a:	48 8d 05 6b 5b 00 00 	lea    0x5b6b(%rip),%rax        # 1f2cc <g_590>
   19761:	0f b7 44 02 01       	movzwl 0x1(%rdx,%rax,1),%eax
   19766:	48 0f bf c0          	movswq %ax,%rax
   1976a:	8b 55 fc             	mov    -0x4(%rbp),%edx
   1976d:	48 8d 35 29 23 00 00 	lea    0x2329(%rip),%rsi        # 1ba9d <g_1906+0x9bd>
   19774:	48 89 c7             	mov    %rax,%rdi
   19777:	e8 77 1f ff ff       	callq  b6f3 <transparent_crc>
   1977c:	83 7d fc 00          	cmpl   $0x0,-0x4(%rbp)
   19780:	74 16                	je     19798 <main+0xf1c>
   19782:	8b 45 f0             	mov    -0x10(%rbp),%eax
   19785:	89 c6                	mov    %eax,%esi
   19787:	48 8d 3d 42 20 00 00 	lea    0x2042(%rip),%rdi        # 1b7d0 <g_1906+0x6f0>
   1978e:	b8 00 00 00 00       	mov    $0x0,%eax
   19793:	e8 e8 08 ff ff       	callq  a080 <printf@plt>
   19798:	83 45 f0 01          	addl   $0x1,-0x10(%rbp)
   1979c:	83 7d f0 01          	cmpl   $0x1,-0x10(%rbp)
   197a0:	0f 8e 73 ff ff ff    	jle    19719 <main+0xe9d>
   197a6:	0f b6 05 25 5b 00 00 	movzbl 0x5b25(%rip),%eax        # 1f2d2 <g_591>
   197ad:	83 e0 7f             	and    $0x7f,%eax
   197b0:	0f b6 c0             	movzbl %al,%eax
   197b3:	8b 55 fc             	mov    -0x4(%rbp),%edx
   197b6:	48 8d 35 ec 22 00 00 	lea    0x22ec(%rip),%rsi        # 1baa9 <g_1906+0x9c9>
   197bd:	48 89 c7             	mov    %rax,%rdi
   197c0:	e8 2e 1f ff ff       	callq  b6f3 <transparent_crc>
   197c5:	0f b7 05 07 5b 00 00 	movzwl 0x5b07(%rip),%eax        # 1f2d3 <g_591+0x1>
   197cc:	48 0f bf c0          	movswq %ax,%rax
   197d0:	8b 55 fc             	mov    -0x4(%rbp),%edx
   197d3:	48 8d 35 d8 22 00 00 	lea    0x22d8(%rip),%rsi        # 1bab2 <g_1906+0x9d2>
   197da:	48 89 c7             	mov    %rax,%rdi
   197dd:	e8 11 1f ff ff       	callq  b6f3 <transparent_crc>
   197e2:	0f b6 05 ec 5a 00 00 	movzbl 0x5aec(%rip),%eax        # 1f2d5 <g_592>
   197e9:	83 e0 7f             	and    $0x7f,%eax
   197ec:	0f b6 c0             	movzbl %al,%eax
   197ef:	8b 55 fc             	mov    -0x4(%rbp),%edx
   197f2:	48 8d 35 c2 22 00 00 	lea    0x22c2(%rip),%rsi        # 1babb <g_1906+0x9db>
   197f9:	48 89 c7             	mov    %rax,%rdi
   197fc:	e8 f2 1e ff ff       	callq  b6f3 <transparent_crc>
   19801:	0f b7 05 ce 5a 00 00 	movzwl 0x5ace(%rip),%eax        # 1f2d6 <g_592+0x1>
   19808:	48 0f bf c0          	movswq %ax,%rax
   1980c:	8b 55 fc             	mov    -0x4(%rbp),%edx
   1980f:	48 8d 35 ae 22 00 00 	lea    0x22ae(%rip),%rsi        # 1bac4 <g_1906+0x9e4>
   19816:	48 89 c7             	mov    %rax,%rdi
   19819:	e8 d5 1e ff ff       	callq  b6f3 <transparent_crc>
   1981e:	c7 45 f0 00 00 00 00 	movl   $0x0,-0x10(%rbp)
   19825:	e9 83 00 00 00       	jmpq   198ad <main+0x1031>
   1982a:	8b 45 f0             	mov    -0x10(%rbp),%eax
   1982d:	48 63 d0             	movslq %eax,%rdx
   19830:	48 89 d0             	mov    %rdx,%rax
   19833:	48 01 c0             	add    %rax,%rax
   19836:	48 01 c2             	add    %rax,%rdx
   19839:	48 8d 05 a0 5a 00 00 	lea    0x5aa0(%rip),%rax        # 1f2e0 <g_593>
   19840:	0f b6 04 02          	movzbl (%rdx,%rax,1),%eax
   19844:	83 e0 7f             	and    $0x7f,%eax
   19847:	0f b6 c0             	movzbl %al,%eax
   1984a:	8b 55 fc             	mov    -0x4(%rbp),%edx
   1984d:	48 8d 35 79 22 00 00 	lea    0x2279(%rip),%rsi        # 1bacd <g_1906+0x9ed>
   19854:	48 89 c7             	mov    %rax,%rdi
   19857:	e8 97 1e ff ff       	callq  b6f3 <transparent_crc>
   1985c:	8b 45 f0             	mov    -0x10(%rbp),%eax
   1985f:	48 63 d0             	movslq %eax,%rdx
   19862:	48 89 d0             	mov    %rdx,%rax
   19865:	48 01 c0             	add    %rax,%rax
   19868:	48 01 c2             	add    %rax,%rdx
   1986b:	48 8d 05 6e 5a 00 00 	lea    0x5a6e(%rip),%rax        # 1f2e0 <g_593>
   19872:	0f b7 44 02 01       	movzwl 0x1(%rdx,%rax,1),%eax
   19877:	48 0f bf c0          	movswq %ax,%rax
   1987b:	8b 55 fc             	mov    -0x4(%rbp),%edx
   1987e:	48 8d 35 54 22 00 00 	lea    0x2254(%rip),%rsi        # 1bad9 <g_1906+0x9f9>
   19885:	48 89 c7             	mov    %rax,%rdi
   19888:	e8 66 1e ff ff       	callq  b6f3 <transparent_crc>
   1988d:	83 7d fc 00          	cmpl   $0x0,-0x4(%rbp)
   19891:	74 16                	je     198a9 <main+0x102d>
   19893:	8b 45 f0             	mov    -0x10(%rbp),%eax
   19896:	89 c6                	mov    %eax,%esi
   19898:	48 8d 3d 31 1f 00 00 	lea    0x1f31(%rip),%rdi        # 1b7d0 <g_1906+0x6f0>
   1989f:	b8 00 00 00 00       	mov    $0x0,%eax
   198a4:	e8 d7 07 ff ff       	callq  a080 <printf@plt>
   198a9:	83 45 f0 01          	addl   $0x1,-0x10(%rbp)
   198ad:	83 7d f0 06          	cmpl   $0x6,-0x10(%rbp)
   198b1:	0f 8e 73 ff ff ff    	jle    1982a <main+0xfae>
   198b7:	c7 45 f0 00 00 00 00 	movl   $0x0,-0x10(%rbp)
   198be:	e9 83 00 00 00       	jmpq   19946 <main+0x10ca>
   198c3:	8b 45 f0             	mov    -0x10(%rbp),%eax
   198c6:	48 63 d0             	movslq %eax,%rdx
   198c9:	48 89 d0             	mov    %rdx,%rax
   198cc:	48 01 c0             	add    %rax,%rax
   198cf:	48 01 c2             	add    %rax,%rdx
   198d2:	48 8d 05 1f 5a 00 00 	lea    0x5a1f(%rip),%rax        # 1f2f8 <g_594>
   198d9:	0f b6 04 02          	movzbl (%rdx,%rax,1),%eax
   198dd:	83 e0 7f             	and    $0x7f,%eax
   198e0:	0f b6 c0             	movzbl %al,%eax
   198e3:	8b 55 fc             	mov    -0x4(%rbp),%edx
   198e6:	48 8d 35 f8 21 00 00 	lea    0x21f8(%rip),%rsi        # 1bae5 <g_1906+0xa05>
   198ed:	48 89 c7             	mov    %rax,%rdi
   198f0:	e8 fe 1d ff ff       	callq  b6f3 <transparent_crc>
   198f5:	8b 45 f0             	mov    -0x10(%rbp),%eax
   198f8:	48 63 d0             	movslq %eax,%rdx
   198fb:	48 89 d0             	mov    %rdx,%rax
   198fe:	48 01 c0             	add    %rax,%rax
   19901:	48 01 c2             	add    %rax,%rdx
   19904:	48 8d 05 ed 59 00 00 	lea    0x59ed(%rip),%rax        # 1f2f8 <g_594>
   1990b:	0f b7 44 02 01       	movzwl 0x1(%rdx,%rax,1),%eax
   19910:	48 0f bf c0          	movswq %ax,%rax
   19914:	8b 55 fc             	mov    -0x4(%rbp),%edx
   19917:	48 8d 35 d3 21 00 00 	lea    0x21d3(%rip),%rsi        # 1baf1 <g_1906+0xa11>
   1991e:	48 89 c7             	mov    %rax,%rdi
   19921:	e8 cd 1d ff ff       	callq  b6f3 <transparent_crc>
   19926:	83 7d fc 00          	cmpl   $0x0,-0x4(%rbp)
   1992a:	74 16                	je     19942 <main+0x10c6>
   1992c:	8b 45 f0             	mov    -0x10(%rbp),%eax
   1992f:	89 c6                	mov    %eax,%esi
   19931:	48 8d 3d 98 1e 00 00 	lea    0x1e98(%rip),%rdi        # 1b7d0 <g_1906+0x6f0>
   19938:	b8 00 00 00 00       	mov    $0x0,%eax
   1993d:	e8 3e 07 ff ff       	callq  a080 <printf@plt>
   19942:	83 45 f0 01          	addl   $0x1,-0x10(%rbp)
   19946:	83 7d f0 02          	cmpl   $0x2,-0x10(%rbp)
   1994a:	0f 8e 73 ff ff ff    	jle    198c3 <main+0x1047>
   19950:	0f b6 05 aa 59 00 00 	movzbl 0x59aa(%rip),%eax        # 1f301 <g_595>
   19957:	83 e0 7f             	and    $0x7f,%eax
   1995a:	0f b6 c0             	movzbl %al,%eax
   1995d:	8b 55 fc             	mov    -0x4(%rbp),%edx
   19960:	48 8d 35 96 21 00 00 	lea    0x2196(%rip),%rsi        # 1bafd <g_1906+0xa1d>
   19967:	48 89 c7             	mov    %rax,%rdi
   1996a:	e8 84 1d ff ff       	callq  b6f3 <transparent_crc>
   1996f:	0f b7 05 8c 59 00 00 	movzwl 0x598c(%rip),%eax        # 1f302 <g_595+0x1>
   19976:	48 0f bf c0          	movswq %ax,%rax
   1997a:	8b 55 fc             	mov    -0x4(%rbp),%edx
   1997d:	48 8d 35 82 21 00 00 	lea    0x2182(%rip),%rsi        # 1bb06 <g_1906+0xa26>
   19984:	48 89 c7             	mov    %rax,%rdi
   19987:	e8 67 1d ff ff       	callq  b6f3 <transparent_crc>
   1998c:	0f b6 05 71 59 00 00 	movzbl 0x5971(%rip),%eax        # 1f304 <g_596>
   19993:	83 e0 7f             	and    $0x7f,%eax
   19996:	0f b6 c0             	movzbl %al,%eax
   19999:	8b 55 fc             	mov    -0x4(%rbp),%edx
   1999c:	48 8d 35 6c 21 00 00 	lea    0x216c(%rip),%rsi        # 1bb0f <g_1906+0xa2f>
   199a3:	48 89 c7             	mov    %rax,%rdi
   199a6:	e8 48 1d ff ff       	callq  b6f3 <transparent_crc>
   199ab:	0f b7 05 53 59 00 00 	movzwl 0x5953(%rip),%eax        # 1f305 <g_596+0x1>
   199b2:	48 0f bf c0          	movswq %ax,%rax
   199b6:	8b 55 fc             	mov    -0x4(%rbp),%edx
   199b9:	48 8d 35 58 21 00 00 	lea    0x2158(%rip),%rsi        # 1bb18 <g_1906+0xa38>
   199c0:	48 89 c7             	mov    %rax,%rdi
   199c3:	e8 2b 1d ff ff       	callq  b6f3 <transparent_crc>
   199c8:	0f b6 05 38 59 00 00 	movzbl 0x5938(%rip),%eax        # 1f307 <g_597>
   199cf:	83 e0 7f             	and    $0x7f,%eax
   199d2:	0f b6 c0             	movzbl %al,%eax
   199d5:	8b 55 fc             	mov    -0x4(%rbp),%edx
   199d8:	48 8d 35 42 21 00 00 	lea    0x2142(%rip),%rsi        # 1bb21 <g_1906+0xa41>
   199df:	48 89 c7             	mov    %rax,%rdi
   199e2:	e8 0c 1d ff ff       	callq  b6f3 <transparent_crc>
   199e7:	0f b7 05 1a 59 00 00 	movzwl 0x591a(%rip),%eax        # 1f308 <g_597+0x1>
   199ee:	48 0f bf c0          	movswq %ax,%rax
   199f2:	8b 55 fc             	mov    -0x4(%rbp),%edx
   199f5:	48 8d 35 2e 21 00 00 	lea    0x212e(%rip),%rsi        # 1bb2a <g_1906+0xa4a>
   199fc:	48 89 c7             	mov    %rax,%rdi
   199ff:	e8 ef 1c ff ff       	callq  b6f3 <transparent_crc>
   19a04:	c7 45 f0 00 00 00 00 	movl   $0x0,-0x10(%rbp)
   19a0b:	e9 83 00 00 00       	jmpq   19a93 <main+0x1217>
   19a10:	8b 45 f0             	mov    -0x10(%rbp),%eax
   19a13:	48 63 d0             	movslq %eax,%rdx
   19a16:	48 89 d0             	mov    %rdx,%rax
   19a19:	48 01 c0             	add    %rax,%rax
   19a1c:	48 01 c2             	add    %rax,%rdx
   19a1f:	48 8d 05 ea 58 00 00 	lea    0x58ea(%rip),%rax        # 1f310 <g_598>
   19a26:	0f b6 04 02          	movzbl (%rdx,%rax,1),%eax
   19a2a:	83 e0 7f             	and    $0x7f,%eax
   19a2d:	0f b6 c0             	movzbl %al,%eax
   19a30:	8b 55 fc             	mov    -0x4(%rbp),%edx
   19a33:	48 8d 35 f9 20 00 00 	lea    0x20f9(%rip),%rsi        # 1bb33 <g_1906+0xa53>
   19a3a:	48 89 c7             	mov    %rax,%rdi
   19a3d:	e8 b1 1c ff ff       	callq  b6f3 <transparent_crc>
   19a42:	8b 45 f0             	mov    -0x10(%rbp),%eax
   19a45:	48 63 d0             	movslq %eax,%rdx
   19a48:	48 89 d0             	mov    %rdx,%rax
   19a4b:	48 01 c0             	add    %rax,%rax
   19a4e:	48 01 c2             	add    %rax,%rdx
   19a51:	48 8d 05 b8 58 00 00 	lea    0x58b8(%rip),%rax        # 1f310 <g_598>
   19a58:	0f b7 44 02 01       	movzwl 0x1(%rdx,%rax,1),%eax
   19a5d:	48 0f bf c0          	movswq %ax,%rax
   19a61:	8b 55 fc             	mov    -0x4(%rbp),%edx
   19a64:	48 8d 35 d4 20 00 00 	lea    0x20d4(%rip),%rsi        # 1bb3f <g_1906+0xa5f>
   19a6b:	48 89 c7             	mov    %rax,%rdi
   19a6e:	e8 80 1c ff ff       	callq  b6f3 <transparent_crc>
   19a73:	83 7d fc 00          	cmpl   $0x0,-0x4(%rbp)
   19a77:	74 16                	je     19a8f <main+0x1213>
   19a79:	8b 45 f0             	mov    -0x10(%rbp),%eax
   19a7c:	89 c6                	mov    %eax,%esi
   19a7e:	48 8d 3d 4b 1d 00 00 	lea    0x1d4b(%rip),%rdi        # 1b7d0 <g_1906+0x6f0>
   19a85:	b8 00 00 00 00       	mov    $0x0,%eax
   19a8a:	e8 f1 05 ff ff       	callq  a080 <printf@plt>
   19a8f:	83 45 f0 01          	addl   $0x1,-0x10(%rbp)
   19a93:	83 7d f0 03          	cmpl   $0x3,-0x10(%rbp)
   19a97:	0f 8e 73 ff ff ff    	jle    19a10 <main+0x1194>
   19a9d:	0f b6 05 78 58 00 00 	movzbl 0x5878(%rip),%eax        # 1f31c <g_599>
   19aa4:	83 e0 7f             	and    $0x7f,%eax
   19aa7:	0f b6 c0             	movzbl %al,%eax
   19aaa:	8b 55 fc             	mov    -0x4(%rbp),%edx
   19aad:	48 8d 35 97 20 00 00 	lea    0x2097(%rip),%rsi        # 1bb4b <g_1906+0xa6b>
   19ab4:	48 89 c7             	mov    %rax,%rdi
   19ab7:	e8 37 1c ff ff       	callq  b6f3 <transparent_crc>
   19abc:	0f b7 05 5a 58 00 00 	movzwl 0x585a(%rip),%eax        # 1f31d <g_599+0x1>
   19ac3:	48 0f bf c0          	movswq %ax,%rax
   19ac7:	8b 55 fc             	mov    -0x4(%rbp),%edx
   19aca:	48 8d 35 83 20 00 00 	lea    0x2083(%rip),%rsi        # 1bb54 <g_1906+0xa74>
   19ad1:	48 89 c7             	mov    %rax,%rdi
   19ad4:	e8 1a 1c ff ff       	callq  b6f3 <transparent_crc>
   19ad9:	0f b6 05 3f 58 00 00 	movzbl 0x583f(%rip),%eax        # 1f31f <g_600>
   19ae0:	83 e0 7f             	and    $0x7f,%eax
   19ae3:	0f b6 c0             	movzbl %al,%eax
   19ae6:	8b 55 fc             	mov    -0x4(%rbp),%edx
   19ae9:	48 8d 35 6d 20 00 00 	lea    0x206d(%rip),%rsi        # 1bb5d <g_1906+0xa7d>
   19af0:	48 89 c7             	mov    %rax,%rdi
   19af3:	e8 fb 1b ff ff       	callq  b6f3 <transparent_crc>
   19af8:	0f b7 05 21 58 00 00 	movzwl 0x5821(%rip),%eax        # 1f320 <g_600+0x1>
   19aff:	48 0f bf c0          	movswq %ax,%rax
   19b03:	8b 55 fc             	mov    -0x4(%rbp),%edx
   19b06:	48 8d 35 59 20 00 00 	lea    0x2059(%rip),%rsi        # 1bb66 <g_1906+0xa86>
   19b0d:	48 89 c7             	mov    %rax,%rdi
   19b10:	e8 de 1b ff ff       	callq  b6f3 <transparent_crc>
   19b15:	0f b6 05 06 58 00 00 	movzbl 0x5806(%rip),%eax        # 1f322 <g_601>
   19b1c:	83 e0 7f             	and    $0x7f,%eax
   19b1f:	0f b6 c0             	movzbl %al,%eax
   19b22:	8b 55 fc             	mov    -0x4(%rbp),%edx
   19b25:	48 8d 35 43 20 00 00 	lea    0x2043(%rip),%rsi        # 1bb6f <g_1906+0xa8f>
   19b2c:	48 89 c7             	mov    %rax,%rdi
   19b2f:	e8 bf 1b ff ff       	callq  b6f3 <transparent_crc>
   19b34:	0f b7 05 e8 57 00 00 	movzwl 0x57e8(%rip),%eax        # 1f323 <g_601+0x1>
   19b3b:	48 0f bf c0          	movswq %ax,%rax
   19b3f:	8b 55 fc             	mov    -0x4(%rbp),%edx
   19b42:	48 8d 35 2f 20 00 00 	lea    0x202f(%rip),%rsi        # 1bb78 <g_1906+0xa98>
   19b49:	48 89 c7             	mov    %rax,%rdi
   19b4c:	e8 a2 1b ff ff       	callq  b6f3 <transparent_crc>
   19b51:	0f b6 05 cd 57 00 00 	movzbl 0x57cd(%rip),%eax        # 1f325 <g_602>
   19b58:	83 e0 7f             	and    $0x7f,%eax
   19b5b:	0f b6 c0             	movzbl %al,%eax
   19b5e:	8b 55 fc             	mov    -0x4(%rbp),%edx
   19b61:	48 8d 35 19 20 00 00 	lea    0x2019(%rip),%rsi        # 1bb81 <g_1906+0xaa1>
   19b68:	48 89 c7             	mov    %rax,%rdi
   19b6b:	e8 83 1b ff ff       	callq  b6f3 <transparent_crc>
   19b70:	0f b7 05 af 57 00 00 	movzwl 0x57af(%rip),%eax        # 1f326 <g_602+0x1>
   19b77:	48 0f bf c0          	movswq %ax,%rax
   19b7b:	8b 55 fc             	mov    -0x4(%rbp),%edx
   19b7e:	48 8d 35 05 20 00 00 	lea    0x2005(%rip),%rsi        # 1bb8a <g_1906+0xaaa>
   19b85:	48 89 c7             	mov    %rax,%rdi
   19b88:	e8 66 1b ff ff       	callq  b6f3 <transparent_crc>
   19b8d:	c7 45 f0 00 00 00 00 	movl   $0x0,-0x10(%rbp)
   19b94:	e9 83 00 00 00       	jmpq   19c1c <main+0x13a0>
   19b99:	8b 45 f0             	mov    -0x10(%rbp),%eax
   19b9c:	48 63 d0             	movslq %eax,%rdx
   19b9f:	48 89 d0             	mov    %rdx,%rax
   19ba2:	48 01 c0             	add    %rax,%rax
   19ba5:	48 01 c2             	add    %rax,%rdx
   19ba8:	48 8d 05 79 57 00 00 	lea    0x5779(%rip),%rax        # 1f328 <g_603>
   19baf:	0f b6 04 02          	movzbl (%rdx,%rax,1),%eax
   19bb3:	83 e0 7f             	and    $0x7f,%eax
   19bb6:	0f b6 c0             	movzbl %al,%eax
   19bb9:	8b 55 fc             	mov    -0x4(%rbp),%edx
   19bbc:	48 8d 35 d0 1f 00 00 	lea    0x1fd0(%rip),%rsi        # 1bb93 <g_1906+0xab3>
   19bc3:	48 89 c7             	mov    %rax,%rdi
   19bc6:	e8 28 1b ff ff       	callq  b6f3 <transparent_crc>
   19bcb:	8b 45 f0             	mov    -0x10(%rbp),%eax
   19bce:	48 63 d0             	movslq %eax,%rdx
   19bd1:	48 89 d0             	mov    %rdx,%rax
   19bd4:	48 01 c0             	add    %rax,%rax
   19bd7:	48 01 c2             	add    %rax,%rdx
   19bda:	48 8d 05 47 57 00 00 	lea    0x5747(%rip),%rax        # 1f328 <g_603>
   19be1:	0f b7 44 02 01       	movzwl 0x1(%rdx,%rax,1),%eax
   19be6:	48 0f bf c0          	movswq %ax,%rax
   19bea:	8b 55 fc             	mov    -0x4(%rbp),%edx
   19bed:	48 8d 35 ab 1f 00 00 	lea    0x1fab(%rip),%rsi        # 1bb9f <g_1906+0xabf>
   19bf4:	48 89 c7             	mov    %rax,%rdi
   19bf7:	e8 f7 1a ff ff       	callq  b6f3 <transparent_crc>
   19bfc:	83 7d fc 00          	cmpl   $0x0,-0x4(%rbp)
   19c00:	74 16                	je     19c18 <main+0x139c>
   19c02:	8b 45 f0             	mov    -0x10(%rbp),%eax
   19c05:	89 c6                	mov    %eax,%esi
   19c07:	48 8d 3d c2 1b 00 00 	lea    0x1bc2(%rip),%rdi        # 1b7d0 <g_1906+0x6f0>
   19c0e:	b8 00 00 00 00       	mov    $0x0,%eax
   19c13:	e8 68 04 ff ff       	callq  a080 <printf@plt>
   19c18:	83 45 f0 01          	addl   $0x1,-0x10(%rbp)
   19c1c:	83 7d f0 01          	cmpl   $0x1,-0x10(%rbp)
   19c20:	0f 8e 73 ff ff ff    	jle    19b99 <main+0x131d>
   19c26:	0f b6 05 01 57 00 00 	movzbl 0x5701(%rip),%eax        # 1f32e <g_604>
   19c2d:	83 e0 7f             	and    $0x7f,%eax
   19c30:	0f b6 c0             	movzbl %al,%eax
   19c33:	8b 55 fc             	mov    -0x4(%rbp),%edx
   19c36:	48 8d 35 6e 1f 00 00 	lea    0x1f6e(%rip),%rsi        # 1bbab <g_1906+0xacb>
   19c3d:	48 89 c7             	mov    %rax,%rdi
   19c40:	e8 ae 1a ff ff       	callq  b6f3 <transparent_crc>
   19c45:	0f b7 05 e3 56 00 00 	movzwl 0x56e3(%rip),%eax        # 1f32f <g_604+0x1>
   19c4c:	48 0f bf c0          	movswq %ax,%rax
   19c50:	8b 55 fc             	mov    -0x4(%rbp),%edx
   19c53:	48 8d 35 5a 1f 00 00 	lea    0x1f5a(%rip),%rsi        # 1bbb4 <g_1906+0xad4>
   19c5a:	48 89 c7             	mov    %rax,%rdi
   19c5d:	e8 91 1a ff ff       	callq  b6f3 <transparent_crc>
   19c62:	0f b6 05 c8 56 00 00 	movzbl 0x56c8(%rip),%eax        # 1f331 <g_605>
   19c69:	83 e0 7f             	and    $0x7f,%eax
   19c6c:	0f b6 c0             	movzbl %al,%eax
   19c6f:	8b 55 fc             	mov    -0x4(%rbp),%edx
   19c72:	48 8d 35 44 1f 00 00 	lea    0x1f44(%rip),%rsi        # 1bbbd <g_1906+0xadd>
   19c79:	48 89 c7             	mov    %rax,%rdi
   19c7c:	e8 72 1a ff ff       	callq  b6f3 <transparent_crc>
   19c81:	0f b7 05 aa 56 00 00 	movzwl 0x56aa(%rip),%eax        # 1f332 <g_605+0x1>
   19c88:	48 0f bf c0          	movswq %ax,%rax
   19c8c:	8b 55 fc             	mov    -0x4(%rbp),%edx
   19c8f:	48 8d 35 30 1f 00 00 	lea    0x1f30(%rip),%rsi        # 1bbc6 <g_1906+0xae6>
   19c96:	48 89 c7             	mov    %rax,%rdi
   19c99:	e8 55 1a ff ff       	callq  b6f3 <transparent_crc>
   19c9e:	0f b6 05 8f 56 00 00 	movzbl 0x568f(%rip),%eax        # 1f334 <g_606>
   19ca5:	83 e0 7f             	and    $0x7f,%eax
   19ca8:	0f b6 c0             	movzbl %al,%eax
   19cab:	8b 55 fc             	mov    -0x4(%rbp),%edx
   19cae:	48 8d 35 1a 1f 00 00 	lea    0x1f1a(%rip),%rsi        # 1bbcf <g_1906+0xaef>
   19cb5:	48 89 c7             	mov    %rax,%rdi
   19cb8:	e8 36 1a ff ff       	callq  b6f3 <transparent_crc>
   19cbd:	0f b7 05 71 56 00 00 	movzwl 0x5671(%rip),%eax        # 1f335 <g_606+0x1>
   19cc4:	48 0f bf c0          	movswq %ax,%rax
   19cc8:	8b 55 fc             	mov    -0x4(%rbp),%edx
   19ccb:	48 8d 35 06 1f 00 00 	lea    0x1f06(%rip),%rsi        # 1bbd8 <g_1906+0xaf8>
   19cd2:	48 89 c7             	mov    %rax,%rdi
   19cd5:	e8 19 1a ff ff       	callq  b6f3 <transparent_crc>
   19cda:	0f b6 05 56 56 00 00 	movzbl 0x5656(%rip),%eax        # 1f337 <g_607>
   19ce1:	83 e0 7f             	and    $0x7f,%eax
   19ce4:	0f b6 c0             	movzbl %al,%eax
   19ce7:	8b 55 fc             	mov    -0x4(%rbp),%edx
   19cea:	48 8d 35 f0 1e 00 00 	lea    0x1ef0(%rip),%rsi        # 1bbe1 <g_1906+0xb01>
   19cf1:	48 89 c7             	mov    %rax,%rdi
   19cf4:	e8 fa 19 ff ff       	callq  b6f3 <transparent_crc>
   19cf9:	0f b7 05 38 56 00 00 	movzwl 0x5638(%rip),%eax        # 1f338 <g_607+0x1>
   19d00:	48 0f bf c0          	movswq %ax,%rax
   19d04:	8b 55 fc             	mov    -0x4(%rbp),%edx
   19d07:	48 8d 35 dc 1e 00 00 	lea    0x1edc(%rip),%rsi        # 1bbea <g_1906+0xb0a>
   19d0e:	48 89 c7             	mov    %rax,%rdi
   19d11:	e8 dd 19 ff ff       	callq  b6f3 <transparent_crc>
   19d16:	0f b6 05 1d 56 00 00 	movzbl 0x561d(%rip),%eax        # 1f33a <g_608>
   19d1d:	83 e0 7f             	and    $0x7f,%eax
   19d20:	0f b6 c0             	movzbl %al,%eax
   19d23:	8b 55 fc             	mov    -0x4(%rbp),%edx
   19d26:	48 8d 35 c6 1e 00 00 	lea    0x1ec6(%rip),%rsi        # 1bbf3 <g_1906+0xb13>
   19d2d:	48 89 c7             	mov    %rax,%rdi
   19d30:	e8 be 19 ff ff       	callq  b6f3 <transparent_crc>
   19d35:	0f b7 05 ff 55 00 00 	movzwl 0x55ff(%rip),%eax        # 1f33b <g_608+0x1>
   19d3c:	48 0f bf c0          	movswq %ax,%rax
   19d40:	8b 55 fc             	mov    -0x4(%rbp),%edx
   19d43:	48 8d 35 b2 1e 00 00 	lea    0x1eb2(%rip),%rsi        # 1bbfc <g_1906+0xb1c>
   19d4a:	48 89 c7             	mov    %rax,%rdi
   19d4d:	e8 a1 19 ff ff       	callq  b6f3 <transparent_crc>
   19d52:	0f b6 05 e4 55 00 00 	movzbl 0x55e4(%rip),%eax        # 1f33d <g_609>
   19d59:	83 e0 7f             	and    $0x7f,%eax
   19d5c:	0f b6 c0             	movzbl %al,%eax
   19d5f:	8b 55 fc             	mov    -0x4(%rbp),%edx
   19d62:	48 8d 35 9c 1e 00 00 	lea    0x1e9c(%rip),%rsi        # 1bc05 <g_1906+0xb25>
   19d69:	48 89 c7             	mov    %rax,%rdi
   19d6c:	e8 82 19 ff ff       	callq  b6f3 <transparent_crc>
   19d71:	0f b7 05 c6 55 00 00 	movzwl 0x55c6(%rip),%eax        # 1f33e <g_609+0x1>
   19d78:	48 0f bf c0          	movswq %ax,%rax
   19d7c:	8b 55 fc             	mov    -0x4(%rbp),%edx
   19d7f:	48 8d 35 88 1e 00 00 	lea    0x1e88(%rip),%rsi        # 1bc0e <g_1906+0xb2e>
   19d86:	48 89 c7             	mov    %rax,%rdi
   19d89:	e8 65 19 ff ff       	callq  b6f3 <transparent_crc>
   19d8e:	0f b6 05 ab 55 00 00 	movzbl 0x55ab(%rip),%eax        # 1f340 <g_610>
   19d95:	83 e0 7f             	and    $0x7f,%eax
   19d98:	0f b6 c0             	movzbl %al,%eax
   19d9b:	8b 55 fc             	mov    -0x4(%rbp),%edx
   19d9e:	48 8d 35 72 1e 00 00 	lea    0x1e72(%rip),%rsi        # 1bc17 <g_1906+0xb37>
   19da5:	48 89 c7             	mov    %rax,%rdi
   19da8:	e8 46 19 ff ff       	callq  b6f3 <transparent_crc>
   19dad:	0f b7 05 8d 55 00 00 	movzwl 0x558d(%rip),%eax        # 1f341 <g_610+0x1>
   19db4:	48 0f bf c0          	movswq %ax,%rax
   19db8:	8b 55 fc             	mov    -0x4(%rbp),%edx
   19dbb:	48 8d 35 5e 1e 00 00 	lea    0x1e5e(%rip),%rsi        # 1bc20 <g_1906+0xb40>
   19dc2:	48 89 c7             	mov    %rax,%rdi
   19dc5:	e8 29 19 ff ff       	callq  b6f3 <transparent_crc>
   19dca:	0f b6 05 72 55 00 00 	movzbl 0x5572(%rip),%eax        # 1f343 <g_611>
   19dd1:	83 e0 7f             	and    $0x7f,%eax
   19dd4:	0f b6 c0             	movzbl %al,%eax
   19dd7:	8b 55 fc             	mov    -0x4(%rbp),%edx
   19dda:	48 8d 35 48 1e 00 00 	lea    0x1e48(%rip),%rsi        # 1bc29 <g_1906+0xb49>
   19de1:	48 89 c7             	mov    %rax,%rdi
   19de4:	e8 0a 19 ff ff       	callq  b6f3 <transparent_crc>
   19de9:	0f b7 05 54 55 00 00 	movzwl 0x5554(%rip),%eax        # 1f344 <g_611+0x1>
   19df0:	48 0f bf c0          	movswq %ax,%rax
   19df4:	8b 55 fc             	mov    -0x4(%rbp),%edx
   19df7:	48 8d 35 34 1e 00 00 	lea    0x1e34(%rip),%rsi        # 1bc32 <g_1906+0xb52>
   19dfe:	48 89 c7             	mov    %rax,%rdi
   19e01:	e8 ed 18 ff ff       	callq  b6f3 <transparent_crc>
   19e06:	0f b6 05 39 55 00 00 	movzbl 0x5539(%rip),%eax        # 1f346 <g_612>
   19e0d:	83 e0 7f             	and    $0x7f,%eax
   19e10:	0f b6 c0             	movzbl %al,%eax
   19e13:	8b 55 fc             	mov    -0x4(%rbp),%edx
   19e16:	48 8d 35 1e 1e 00 00 	lea    0x1e1e(%rip),%rsi        # 1bc3b <g_1906+0xb5b>
   19e1d:	48 89 c7             	mov    %rax,%rdi
   19e20:	e8 ce 18 ff ff       	callq  b6f3 <transparent_crc>
   19e25:	0f b7 05 1b 55 00 00 	movzwl 0x551b(%rip),%eax        # 1f347 <g_612+0x1>
   19e2c:	48 0f bf c0          	movswq %ax,%rax
   19e30:	8b 55 fc             	mov    -0x4(%rbp),%edx
   19e33:	48 8d 35 0a 1e 00 00 	lea    0x1e0a(%rip),%rsi        # 1bc44 <g_1906+0xb64>
   19e3a:	48 89 c7             	mov    %rax,%rdi
   19e3d:	e8 b1 18 ff ff       	callq  b6f3 <transparent_crc>
   19e42:	0f b6 05 00 55 00 00 	movzbl 0x5500(%rip),%eax        # 1f349 <g_613>
   19e49:	83 e0 7f             	and    $0x7f,%eax
   19e4c:	0f b6 c0             	movzbl %al,%eax
   19e4f:	8b 55 fc             	mov    -0x4(%rbp),%edx
   19e52:	48 8d 35 f4 1d 00 00 	lea    0x1df4(%rip),%rsi        # 1bc4d <g_1906+0xb6d>
   19e59:	48 89 c7             	mov    %rax,%rdi
   19e5c:	e8 92 18 ff ff       	callq  b6f3 <transparent_crc>
   19e61:	0f b7 05 e2 54 00 00 	movzwl 0x54e2(%rip),%eax        # 1f34a <g_613+0x1>
   19e68:	48 0f bf c0          	movswq %ax,%rax
   19e6c:	8b 55 fc             	mov    -0x4(%rbp),%edx
   19e6f:	48 8d 35 e0 1d 00 00 	lea    0x1de0(%rip),%rsi        # 1bc56 <g_1906+0xb76>
   19e76:	48 89 c7             	mov    %rax,%rdi
   19e79:	e8 75 18 ff ff       	callq  b6f3 <transparent_crc>
   19e7e:	0f b6 05 c7 54 00 00 	movzbl 0x54c7(%rip),%eax        # 1f34c <g_614>
   19e85:	83 e0 7f             	and    $0x7f,%eax
   19e88:	0f b6 c0             	movzbl %al,%eax
   19e8b:	8b 55 fc             	mov    -0x4(%rbp),%edx
   19e8e:	48 8d 35 ca 1d 00 00 	lea    0x1dca(%rip),%rsi        # 1bc5f <g_1906+0xb7f>
   19e95:	48 89 c7             	mov    %rax,%rdi
   19e98:	e8 56 18 ff ff       	callq  b6f3 <transparent_crc>
   19e9d:	0f b7 05 a9 54 00 00 	movzwl 0x54a9(%rip),%eax        # 1f34d <g_614+0x1>
   19ea4:	48 0f bf c0          	movswq %ax,%rax
   19ea8:	8b 55 fc             	mov    -0x4(%rbp),%edx
   19eab:	48 8d 35 b6 1d 00 00 	lea    0x1db6(%rip),%rsi        # 1bc68 <g_1906+0xb88>
   19eb2:	48 89 c7             	mov    %rax,%rdi
   19eb5:	e8 39 18 ff ff       	callq  b6f3 <transparent_crc>
   19eba:	0f b6 05 8e 54 00 00 	movzbl 0x548e(%rip),%eax        # 1f34f <g_615>
   19ec1:	83 e0 7f             	and    $0x7f,%eax
   19ec4:	0f b6 c0             	movzbl %al,%eax
   19ec7:	8b 55 fc             	mov    -0x4(%rbp),%edx
   19eca:	48 8d 35 a0 1d 00 00 	lea    0x1da0(%rip),%rsi        # 1bc71 <g_1906+0xb91>
   19ed1:	48 89 c7             	mov    %rax,%rdi
   19ed4:	e8 1a 18 ff ff       	callq  b6f3 <transparent_crc>
   19ed9:	0f b7 05 70 54 00 00 	movzwl 0x5470(%rip),%eax        # 1f350 <g_615+0x1>
   19ee0:	48 0f bf c0          	movswq %ax,%rax
   19ee4:	8b 55 fc             	mov    -0x4(%rbp),%edx
   19ee7:	48 8d 35 8c 1d 00 00 	lea    0x1d8c(%rip),%rsi        # 1bc7a <g_1906+0xb9a>
   19eee:	48 89 c7             	mov    %rax,%rdi
   19ef1:	e8 fd 17 ff ff       	callq  b6f3 <transparent_crc>
   19ef6:	c7 45 f0 00 00 00 00 	movl   $0x0,-0x10(%rbp)
   19efd:	e9 83 00 00 00       	jmpq   19f85 <main+0x1709>
   19f02:	8b 45 f0             	mov    -0x10(%rbp),%eax
   19f05:	48 63 d0             	movslq %eax,%rdx
   19f08:	48 89 d0             	mov    %rdx,%rax
   19f0b:	48 01 c0             	add    %rax,%rax
   19f0e:	48 01 c2             	add    %rax,%rdx
   19f11:	48 8d 05 48 54 00 00 	lea    0x5448(%rip),%rax        # 1f360 <g_616>
   19f18:	0f b6 04 02          	movzbl (%rdx,%rax,1),%eax
   19f1c:	83 e0 7f             	and    $0x7f,%eax
   19f1f:	0f b6 c0             	movzbl %al,%eax
   19f22:	8b 55 fc             	mov    -0x4(%rbp),%edx
   19f25:	48 8d 35 57 1d 00 00 	lea    0x1d57(%rip),%rsi        # 1bc83 <g_1906+0xba3>
   19f2c:	48 89 c7             	mov    %rax,%rdi
   19f2f:	e8 bf 17 ff ff       	callq  b6f3 <transparent_crc>
   19f34:	8b 45 f0             	mov    -0x10(%rbp),%eax
   19f37:	48 63 d0             	movslq %eax,%rdx
   19f3a:	48 89 d0             	mov    %rdx,%rax
   19f3d:	48 01 c0             	add    %rax,%rax
   19f40:	48 01 c2             	add    %rax,%rdx
   19f43:	48 8d 05 16 54 00 00 	lea    0x5416(%rip),%rax        # 1f360 <g_616>
   19f4a:	0f b7 44 02 01       	movzwl 0x1(%rdx,%rax,1),%eax
   19f4f:	48 0f bf c0          	movswq %ax,%rax
   19f53:	8b 55 fc             	mov    -0x4(%rbp),%edx
   19f56:	48 8d 35 32 1d 00 00 	lea    0x1d32(%rip),%rsi        # 1bc8f <g_1906+0xbaf>
   19f5d:	48 89 c7             	mov    %rax,%rdi
   19f60:	e8 8e 17 ff ff       	callq  b6f3 <transparent_crc>
   19f65:	83 7d fc 00          	cmpl   $0x0,-0x4(%rbp)
   19f69:	74 16                	je     19f81 <main+0x1705>
   19f6b:	8b 45 f0             	mov    -0x10(%rbp),%eax
   19f6e:	89 c6                	mov    %eax,%esi
   19f70:	48 8d 3d 59 18 00 00 	lea    0x1859(%rip),%rdi        # 1b7d0 <g_1906+0x6f0>
   19f77:	b8 00 00 00 00       	mov    $0x0,%eax
   19f7c:	e8 ff 00 ff ff       	callq  a080 <printf@plt>
   19f81:	83 45 f0 01          	addl   $0x1,-0x10(%rbp)
   19f85:	83 7d f0 05          	cmpl   $0x5,-0x10(%rbp)
   19f89:	0f 8e 73 ff ff ff    	jle    19f02 <main+0x1686>
   19f8f:	0f b6 05 dc 53 00 00 	movzbl 0x53dc(%rip),%eax        # 1f372 <g_617>
   19f96:	83 e0 7f             	and    $0x7f,%eax
   19f99:	0f b6 c0             	movzbl %al,%eax
   19f9c:	8b 55 fc             	mov    -0x4(%rbp),%edx
   19f9f:	48 8d 35 f5 1c 00 00 	lea    0x1cf5(%rip),%rsi        # 1bc9b <g_1906+0xbbb>
   19fa6:	48 89 c7             	mov    %rax,%rdi
   19fa9:	e8 45 17 ff ff       	callq  b6f3 <transparent_crc>
   19fae:	0f b7 05 be 53 00 00 	movzwl 0x53be(%rip),%eax        # 1f373 <g_617+0x1>
   19fb5:	48 0f bf c0          	movswq %ax,%rax
   19fb9:	8b 55 fc             	mov    -0x4(%rbp),%edx
   19fbc:	48 8d 35 e1 1c 00 00 	lea    0x1ce1(%rip),%rsi        # 1bca4 <g_1906+0xbc4>
   19fc3:	48 89 c7             	mov    %rax,%rdi
   19fc6:	e8 28 17 ff ff       	callq  b6f3 <transparent_crc>
   19fcb:	c7 45 f0 00 00 00 00 	movl   $0x0,-0x10(%rbp)
   19fd2:	e9 ce 00 00 00       	jmpq   1a0a5 <main+0x1829>
   19fd7:	c7 45 f4 00 00 00 00 	movl   $0x0,-0xc(%rbp)
   19fde:	e9 b4 00 00 00       	jmpq   1a097 <main+0x181b>
   19fe3:	8b 45 f4             	mov    -0xc(%rbp),%eax
   19fe6:	48 98                	cltq   
   19fe8:	8b 55 f0             	mov    -0x10(%rbp),%edx
   19feb:	48 63 ca             	movslq %edx,%rcx
   19fee:	48 89 c2             	mov    %rax,%rdx
   19ff1:	48 01 d2             	add    %rdx,%rdx
   19ff4:	48 01 c2             	add    %rax,%rdx
   19ff7:	48 89 c8             	mov    %rcx,%rax
   19ffa:	48 01 c0             	add    %rax,%rax
   19ffd:	48 01 c8             	add    %rcx,%rax
   1a000:	48 c1 e0 03          	shl    $0x3,%rax
   1a004:	48 01 c2             	add    %rax,%rdx
   1a007:	48 8d 05 72 53 00 00 	lea    0x5372(%rip),%rax        # 1f380 <g_620>
   1a00e:	48 01 d0             	add    %rdx,%rax
   1a011:	0f b6 00             	movzbl (%rax),%eax
   1a014:	83 e0 7f             	and    $0x7f,%eax
   1a017:	0f b6 c0             	movzbl %al,%eax
   1a01a:	8b 55 fc             	mov    -0x4(%rbp),%edx
   1a01d:	48 8d 35 89 1c 00 00 	lea    0x1c89(%rip),%rsi        # 1bcad <g_1906+0xbcd>
   1a024:	48 89 c7             	mov    %rax,%rdi
   1a027:	e8 c7 16 ff ff       	callq  b6f3 <transparent_crc>
   1a02c:	8b 45 f4             	mov    -0xc(%rbp),%eax
   1a02f:	48 98                	cltq   
   1a031:	8b 55 f0             	mov    -0x10(%rbp),%edx
   1a034:	48 63 ca             	movslq %edx,%rcx
   1a037:	48 89 c2             	mov    %rax,%rdx
   1a03a:	48 01 d2             	add    %rdx,%rdx
   1a03d:	48 01 c2             	add    %rax,%rdx
   1a040:	48 89 c8             	mov    %rcx,%rax
   1a043:	48 01 c0             	add    %rax,%rax
   1a046:	48 01 c8             	add    %rcx,%rax
   1a049:	48 c1 e0 03          	shl    $0x3,%rax
   1a04d:	48 01 c2             	add    %rax,%rdx
   1a050:	48 8d 05 29 53 00 00 	lea    0x5329(%rip),%rax        # 1f380 <g_620>
   1a057:	48 01 d0             	add    %rdx,%rax
   1a05a:	0f b7 40 01          	movzwl 0x1(%rax),%eax
   1a05e:	48 0f bf c0          	movswq %ax,%rax
   1a062:	8b 55 fc             	mov    -0x4(%rbp),%edx
   1a065:	48 8d 35 50 1c 00 00 	lea    0x1c50(%rip),%rsi        # 1bcbc <g_1906+0xbdc>
   1a06c:	48 89 c7             	mov    %rax,%rdi
   1a06f:	e8 7f 16 ff ff       	callq  b6f3 <transparent_crc>
   1a074:	83 7d fc 00          	cmpl   $0x0,-0x4(%rbp)
   1a078:	74 19                	je     1a093 <main+0x1817>
   1a07a:	8b 55 f4             	mov    -0xc(%rbp),%edx
   1a07d:	8b 45 f0             	mov    -0x10(%rbp),%eax
   1a080:	89 c6                	mov    %eax,%esi
   1a082:	48 8d 3d e3 16 00 00 	lea    0x16e3(%rip),%rdi        # 1b76c <g_1906+0x68c>
   1a089:	b8 00 00 00 00       	mov    $0x0,%eax
   1a08e:	e8 ed ff fe ff       	callq  a080 <printf@plt>
   1a093:	83 45 f4 01          	addl   $0x1,-0xc(%rbp)
   1a097:	83 7d f4 07          	cmpl   $0x7,-0xc(%rbp)
   1a09b:	0f 8e 42 ff ff ff    	jle    19fe3 <main+0x1767>
   1a0a1:	83 45 f0 01          	addl   $0x1,-0x10(%rbp)
   1a0a5:	83 7d f0 04          	cmpl   $0x4,-0x10(%rbp)
   1a0a9:	0f 8e 28 ff ff ff    	jle    19fd7 <main+0x175b>
   1a0af:	48 8b 05 42 53 00 00 	mov    0x5342(%rip),%rax        # 1f3f8 <g_623>
   1a0b6:	48 89 c1             	mov    %rax,%rcx
   1a0b9:	8b 45 fc             	mov    -0x4(%rbp),%eax
   1a0bc:	89 c2                	mov    %eax,%edx
   1a0be:	48 8d 35 06 1c 00 00 	lea    0x1c06(%rip),%rsi        # 1bccb <g_1906+0xbeb>
   1a0c5:	48 89 cf             	mov    %rcx,%rdi
   1a0c8:	e8 26 16 ff ff       	callq  b6f3 <transparent_crc>
   1a0cd:	8b 05 2d 53 00 00    	mov    0x532d(%rip),%eax        # 1f400 <g_624>
   1a0d3:	89 c1                	mov    %eax,%ecx
   1a0d5:	8b 45 fc             	mov    -0x4(%rbp),%eax
   1a0d8:	89 c2                	mov    %eax,%edx
   1a0da:	48 8d 35 f0 1b 00 00 	lea    0x1bf0(%rip),%rsi        # 1bcd1 <g_1906+0xbf1>
   1a0e1:	48 89 cf             	mov    %rcx,%rdi
   1a0e4:	e8 0a 16 ff ff       	callq  b6f3 <transparent_crc>
   1a0e9:	0f b6 05 14 53 00 00 	movzbl 0x5314(%rip),%eax        # 1f404 <g_629>
   1a0f0:	83 e0 7f             	and    $0x7f,%eax
   1a0f3:	0f b6 c0             	movzbl %al,%eax
   1a0f6:	8b 55 fc             	mov    -0x4(%rbp),%edx
   1a0f9:	48 8d 35 d7 1b 00 00 	lea    0x1bd7(%rip),%rsi        # 1bcd7 <g_1906+0xbf7>
   1a100:	48 89 c7             	mov    %rax,%rdi
   1a103:	e8 eb 15 ff ff       	callq  b6f3 <transparent_crc>
   1a108:	0f b7 05 f6 52 00 00 	movzwl 0x52f6(%rip),%eax        # 1f405 <g_629+0x1>
   1a10f:	48 0f bf c0          	movswq %ax,%rax
   1a113:	8b 55 fc             	mov    -0x4(%rbp),%edx
   1a116:	48 8d 35 c3 1b 00 00 	lea    0x1bc3(%rip),%rsi        # 1bce0 <g_1906+0xc00>
   1a11d:	48 89 c7             	mov    %rax,%rdi
   1a120:	e8 ce 15 ff ff       	callq  b6f3 <transparent_crc>
   1a125:	0f b7 05 dc 52 00 00 	movzwl 0x52dc(%rip),%eax        # 1f408 <g_678>
   1a12c:	0f b7 c0             	movzwl %ax,%eax
   1a12f:	8b 55 fc             	mov    -0x4(%rbp),%edx
   1a132:	48 8d 35 b0 1b 00 00 	lea    0x1bb0(%rip),%rsi        # 1bce9 <g_1906+0xc09>
   1a139:	48 89 c7             	mov    %rax,%rdi
   1a13c:	e8 b2 15 ff ff       	callq  b6f3 <transparent_crc>
   1a141:	b8 8e a0 ff ff       	mov    $0xffffa08e,%eax
   1a146:	0f b7 c0             	movzwl %ax,%eax
   1a149:	8b 55 fc             	mov    -0x4(%rbp),%edx
   1a14c:	48 8d 35 9c 1b 00 00 	lea    0x1b9c(%rip),%rsi        # 1bcef <g_1906+0xc0f>
   1a153:	48 89 c7             	mov    %rax,%rdi
   1a156:	e8 98 15 ff ff       	callq  b6f3 <transparent_crc>
   1a15b:	8b 05 ab 52 00 00    	mov    0x52ab(%rip),%eax        # 1f40c <g_704>
   1a161:	89 c1                	mov    %eax,%ecx
   1a163:	8b 45 fc             	mov    -0x4(%rbp),%eax
   1a166:	89 c2                	mov    %eax,%edx
   1a168:	48 8d 35 89 1b 00 00 	lea    0x1b89(%rip),%rsi        # 1bcf8 <g_1906+0xc18>
   1a16f:	48 89 cf             	mov    %rcx,%rdi
   1a172:	e8 7c 15 ff ff       	callq  b6f3 <transparent_crc>
   1a177:	0f b6 05 92 52 00 00 	movzbl 0x5292(%rip),%eax        # 1f410 <g_797>
   1a17e:	48 0f be c0          	movsbq %al,%rax
   1a182:	8b 55 fc             	mov    -0x4(%rbp),%edx
   1a185:	48 8d 35 72 1b 00 00 	lea    0x1b72(%rip),%rsi        # 1bcfe <g_1906+0xc1e>
   1a18c:	48 89 c7             	mov    %rax,%rdi
   1a18f:	e8 5f 15 ff ff       	callq  b6f3 <transparent_crc>
   1a194:	c7 45 f0 00 00 00 00 	movl   $0x0,-0x10(%rbp)
   1a19b:	eb 75                	jmp    1a212 <main+0x1996>
   1a19d:	c7 45 f4 00 00 00 00 	movl   $0x0,-0xc(%rbp)
   1a1a4:	eb 62                	jmp    1a208 <main+0x198c>
   1a1a6:	8b 45 f4             	mov    -0xc(%rbp),%eax
   1a1a9:	48 63 c8             	movslq %eax,%rcx
   1a1ac:	8b 45 f0             	mov    -0x10(%rbp),%eax
   1a1af:	48 63 d0             	movslq %eax,%rdx
   1a1b2:	48 89 d0             	mov    %rdx,%rax
   1a1b5:	48 c1 e0 02          	shl    $0x2,%rax
   1a1b9:	48 01 d0             	add    %rdx,%rax
   1a1bc:	48 01 c8             	add    %rcx,%rax
   1a1bf:	48 8d 14 85 00 00 00 	lea    0x0(,%rax,4),%rdx
   1a1c6:	00 
   1a1c7:	48 8d 05 52 52 00 00 	lea    0x5252(%rip),%rax        # 1f420 <g_798>
   1a1ce:	8b 04 02             	mov    (%rdx,%rax,1),%eax
   1a1d1:	48 98                	cltq   
   1a1d3:	8b 55 fc             	mov    -0x4(%rbp),%edx
   1a1d6:	48 8d 35 27 1b 00 00 	lea    0x1b27(%rip),%rsi        # 1bd04 <g_1906+0xc24>
   1a1dd:	48 89 c7             	mov    %rax,%rdi
   1a1e0:	e8 0e 15 ff ff       	callq  b6f3 <transparent_crc>
   1a1e5:	83 7d fc 00          	cmpl   $0x0,-0x4(%rbp)
   1a1e9:	74 19                	je     1a204 <main+0x1988>
   1a1eb:	8b 55 f4             	mov    -0xc(%rbp),%edx
   1a1ee:	8b 45 f0             	mov    -0x10(%rbp),%eax
   1a1f1:	89 c6                	mov    %eax,%esi
   1a1f3:	48 8d 3d 72 15 00 00 	lea    0x1572(%rip),%rdi        # 1b76c <g_1906+0x68c>
   1a1fa:	b8 00 00 00 00       	mov    $0x0,%eax
   1a1ff:	e8 7c fe fe ff       	callq  a080 <printf@plt>
   1a204:	83 45 f4 01          	addl   $0x1,-0xc(%rbp)
   1a208:	83 7d f4 04          	cmpl   $0x4,-0xc(%rbp)
   1a20c:	7e 98                	jle    1a1a6 <main+0x192a>
   1a20e:	83 45 f0 01          	addl   $0x1,-0x10(%rbp)
   1a212:	83 7d f0 02          	cmpl   $0x2,-0x10(%rbp)
   1a216:	7e 85                	jle    1a19d <main+0x1921>
   1a218:	c7 45 f0 00 00 00 00 	movl   $0x0,-0x10(%rbp)
   1a21f:	eb 4b                	jmp    1a26c <main+0x19f0>
   1a221:	8b 45 f0             	mov    -0x10(%rbp),%eax
   1a224:	48 98                	cltq   
   1a226:	48 8d 14 85 00 00 00 	lea    0x0(,%rax,4),%rdx
   1a22d:	00 
   1a22e:	48 8d 05 2b 52 00 00 	lea    0x522b(%rip),%rax        # 1f460 <g_799>
   1a235:	8b 04 02             	mov    (%rdx,%rax,1),%eax
   1a238:	48 98                	cltq   
   1a23a:	8b 55 fc             	mov    -0x4(%rbp),%edx
   1a23d:	48 8d 35 cc 1a 00 00 	lea    0x1acc(%rip),%rsi        # 1bd10 <g_1906+0xc30>
   1a244:	48 89 c7             	mov    %rax,%rdi
   1a247:	e8 a7 14 ff ff       	callq  b6f3 <transparent_crc>
   1a24c:	83 7d fc 00          	cmpl   $0x0,-0x4(%rbp)
   1a250:	74 16                	je     1a268 <main+0x19ec>
   1a252:	8b 45 f0             	mov    -0x10(%rbp),%eax
   1a255:	89 c6                	mov    %eax,%esi
   1a257:	48 8d 3d 72 15 00 00 	lea    0x1572(%rip),%rdi        # 1b7d0 <g_1906+0x6f0>
   1a25e:	b8 00 00 00 00       	mov    $0x0,%eax
   1a263:	e8 18 fe fe ff       	callq  a080 <printf@plt>
   1a268:	83 45 f0 01          	addl   $0x1,-0x10(%rbp)
   1a26c:	83 7d f0 03          	cmpl   $0x3,-0x10(%rbp)
   1a270:	7e af                	jle    1a221 <main+0x19a5>
   1a272:	0f b7 05 f7 51 00 00 	movzwl 0x51f7(%rip),%eax        # 1f470 <g_874>
   1a279:	0f b7 c0             	movzwl %ax,%eax
   1a27c:	8b 55 fc             	mov    -0x4(%rbp),%edx
   1a27f:	48 8d 35 93 1a 00 00 	lea    0x1a93(%rip),%rsi        # 1bd19 <g_1906+0xc39>
   1a286:	48 89 c7             	mov    %rax,%rdi
   1a289:	e8 65 14 ff ff       	callq  b6f3 <transparent_crc>
   1a28e:	0f b6 05 dd 51 00 00 	movzbl 0x51dd(%rip),%eax        # 1f472 <g_879>
   1a295:	83 e0 7f             	and    $0x7f,%eax
   1a298:	0f b6 c0             	movzbl %al,%eax
   1a29b:	8b 55 fc             	mov    -0x4(%rbp),%edx
   1a29e:	48 8d 35 7a 1a 00 00 	lea    0x1a7a(%rip),%rsi        # 1bd1f <g_1906+0xc3f>
   1a2a5:	48 89 c7             	mov    %rax,%rdi
   1a2a8:	e8 46 14 ff ff       	callq  b6f3 <transparent_crc>
   1a2ad:	0f b7 05 bf 51 00 00 	movzwl 0x51bf(%rip),%eax        # 1f473 <g_879+0x1>
   1a2b4:	48 0f bf c0          	movswq %ax,%rax
   1a2b8:	8b 55 fc             	mov    -0x4(%rbp),%edx
   1a2bb:	48 8d 35 66 1a 00 00 	lea    0x1a66(%rip),%rsi        # 1bd28 <g_1906+0xc48>
   1a2c2:	48 89 c7             	mov    %rax,%rdi
   1a2c5:	e8 29 14 ff ff       	callq  b6f3 <transparent_crc>
   1a2ca:	b8 01 00 00 00       	mov    $0x1,%eax
   1a2cf:	0f b6 c0             	movzbl %al,%eax
   1a2d2:	8b 55 fc             	mov    -0x4(%rbp),%edx
   1a2d5:	48 8d 35 55 1a 00 00 	lea    0x1a55(%rip),%rsi        # 1bd31 <g_1906+0xc51>
   1a2dc:	48 89 c7             	mov    %rax,%rdi
   1a2df:	e8 0f 14 ff ff       	callq  b6f3 <transparent_crc>
   1a2e4:	0f b7 05 6c 0d 00 00 	movzwl 0xd6c(%rip),%eax        # 1b057 <g_881+0x1>
   1a2eb:	48 0f bf c0          	movswq %ax,%rax
   1a2ef:	8b 55 fc             	mov    -0x4(%rbp),%edx
   1a2f2:	48 8d 35 41 1a 00 00 	lea    0x1a41(%rip),%rsi        # 1bd3a <g_1906+0xc5a>
   1a2f9:	48 89 c7             	mov    %rax,%rdi
   1a2fc:	e8 f2 13 ff ff       	callq  b6f3 <transparent_crc>
   1a301:	c7 45 f0 00 00 00 00 	movl   $0x0,-0x10(%rbp)
   1a308:	e9 83 00 00 00       	jmpq   1a390 <main+0x1b14>
   1a30d:	8b 45 f0             	mov    -0x10(%rbp),%eax
   1a310:	48 63 d0             	movslq %eax,%rdx
   1a313:	48 89 d0             	mov    %rdx,%rax
   1a316:	48 01 c0             	add    %rax,%rax
   1a319:	48 01 c2             	add    %rax,%rdx
   1a31c:	48 8d 05 55 51 00 00 	lea    0x5155(%rip),%rax        # 1f478 <g_932>
   1a323:	0f b6 04 02          	movzbl (%rdx,%rax,1),%eax
   1a327:	83 e0 7f             	and    $0x7f,%eax
   1a32a:	0f b6 c0             	movzbl %al,%eax
   1a32d:	8b 55 fc             	mov    -0x4(%rbp),%edx
   1a330:	48 8d 35 0c 1a 00 00 	lea    0x1a0c(%rip),%rsi        # 1bd43 <g_1906+0xc63>
   1a337:	48 89 c7             	mov    %rax,%rdi
   1a33a:	e8 b4 13 ff ff       	callq  b6f3 <transparent_crc>
   1a33f:	8b 45 f0             	mov    -0x10(%rbp),%eax
   1a342:	48 63 d0             	movslq %eax,%rdx
   1a345:	48 89 d0             	mov    %rdx,%rax
   1a348:	48 01 c0             	add    %rax,%rax
   1a34b:	48 01 c2             	add    %rax,%rdx
   1a34e:	48 8d 05 23 51 00 00 	lea    0x5123(%rip),%rax        # 1f478 <g_932>
   1a355:	0f b7 44 02 01       	movzwl 0x1(%rdx,%rax,1),%eax
   1a35a:	48 0f bf c0          	movswq %ax,%rax
   1a35e:	8b 55 fc             	mov    -0x4(%rbp),%edx
   1a361:	48 8d 35 e7 19 00 00 	lea    0x19e7(%rip),%rsi        # 1bd4f <g_1906+0xc6f>
   1a368:	48 89 c7             	mov    %rax,%rdi
   1a36b:	e8 83 13 ff ff       	callq  b6f3 <transparent_crc>
   1a370:	83 7d fc 00          	cmpl   $0x0,-0x4(%rbp)
   1a374:	74 16                	je     1a38c <main+0x1b10>
   1a376:	8b 45 f0             	mov    -0x10(%rbp),%eax
   1a379:	89 c6                	mov    %eax,%esi
   1a37b:	48 8d 3d 4e 14 00 00 	lea    0x144e(%rip),%rdi        # 1b7d0 <g_1906+0x6f0>
   1a382:	b8 00 00 00 00       	mov    $0x0,%eax
   1a387:	e8 f4 fc fe ff       	callq  a080 <printf@plt>
   1a38c:	83 45 f0 01          	addl   $0x1,-0x10(%rbp)
   1a390:	83 7d f0 04          	cmpl   $0x4,-0x10(%rbp)
   1a394:	0f 8e 73 ff ff ff    	jle    1a30d <main+0x1a91>
   1a39a:	c7 45 f0 00 00 00 00 	movl   $0x0,-0x10(%rbp)
   1a3a1:	e9 83 00 00 00       	jmpq   1a429 <main+0x1bad>
   1a3a6:	8b 45 f0             	mov    -0x10(%rbp),%eax
   1a3a9:	48 63 d0             	movslq %eax,%rdx
   1a3ac:	48 89 d0             	mov    %rdx,%rax
   1a3af:	48 01 c0             	add    %rax,%rax
   1a3b2:	48 01 c2             	add    %rax,%rdx
   1a3b5:	48 8d 05 d4 50 00 00 	lea    0x50d4(%rip),%rax        # 1f490 <g_935>
   1a3bc:	0f b6 04 02          	movzbl (%rdx,%rax,1),%eax
   1a3c0:	83 e0 7f             	and    $0x7f,%eax
   1a3c3:	0f b6 c0             	movzbl %al,%eax
   1a3c6:	8b 55 fc             	mov    -0x4(%rbp),%edx
   1a3c9:	48 8d 35 8b 19 00 00 	lea    0x198b(%rip),%rsi        # 1bd5b <g_1906+0xc7b>
   1a3d0:	48 89 c7             	mov    %rax,%rdi
   1a3d3:	e8 1b 13 ff ff       	callq  b6f3 <transparent_crc>
   1a3d8:	8b 45 f0             	mov    -0x10(%rbp),%eax
   1a3db:	48 63 d0             	movslq %eax,%rdx
   1a3de:	48 89 d0             	mov    %rdx,%rax
   1a3e1:	48 01 c0             	add    %rax,%rax
   1a3e4:	48 01 c2             	add    %rax,%rdx
   1a3e7:	48 8d 05 a2 50 00 00 	lea    0x50a2(%rip),%rax        # 1f490 <g_935>
   1a3ee:	0f b7 44 02 01       	movzwl 0x1(%rdx,%rax,1),%eax
   1a3f3:	48 0f bf c0          	movswq %ax,%rax
   1a3f7:	8b 55 fc             	mov    -0x4(%rbp),%edx
   1a3fa:	48 8d 35 66 19 00 00 	lea    0x1966(%rip),%rsi        # 1bd67 <g_1906+0xc87>
   1a401:	48 89 c7             	mov    %rax,%rdi
   1a404:	e8 ea 12 ff ff       	callq  b6f3 <transparent_crc>
   1a409:	83 7d fc 00          	cmpl   $0x0,-0x4(%rbp)
   1a40d:	74 16                	je     1a425 <main+0x1ba9>
   1a40f:	8b 45 f0             	mov    -0x10(%rbp),%eax
   1a412:	89 c6                	mov    %eax,%esi
   1a414:	48 8d 3d b5 13 00 00 	lea    0x13b5(%rip),%rdi        # 1b7d0 <g_1906+0x6f0>
   1a41b:	b8 00 00 00 00       	mov    $0x0,%eax
   1a420:	e8 5b fc fe ff       	callq  a080 <printf@plt>
   1a425:	83 45 f0 01          	addl   $0x1,-0x10(%rbp)
   1a429:	83 7d f0 05          	cmpl   $0x5,-0x10(%rbp)
   1a42d:	0f 8e 73 ff ff ff    	jle    1a3a6 <main+0x1b2a>
   1a433:	48 8b 05 6e 50 00 00 	mov    0x506e(%rip),%rax        # 1f4a8 <g_965>
   1a43a:	48 89 c1             	mov    %rax,%rcx
   1a43d:	8b 45 fc             	mov    -0x4(%rbp),%eax
   1a440:	89 c2                	mov    %eax,%edx
   1a442:	48 8d 35 2a 19 00 00 	lea    0x192a(%rip),%rsi        # 1bd73 <g_1906+0xc93>
   1a449:	48 89 cf             	mov    %rcx,%rdi
   1a44c:	e8 a2 12 ff ff       	callq  b6f3 <transparent_crc>
   1a451:	c7 45 f0 00 00 00 00 	movl   $0x0,-0x10(%rbp)
   1a458:	eb 79                	jmp    1a4d3 <main+0x1c57>
   1a45a:	c7 45 f4 00 00 00 00 	movl   $0x0,-0xc(%rbp)
   1a461:	eb 66                	jmp    1a4c9 <main+0x1c4d>
   1a463:	8b 45 f4             	mov    -0xc(%rbp),%eax
   1a466:	48 63 c8             	movslq %eax,%rcx
   1a469:	8b 45 f0             	mov    -0x10(%rbp),%eax
   1a46c:	48 63 d0             	movslq %eax,%rdx
   1a46f:	48 89 d0             	mov    %rdx,%rax
   1a472:	48 c1 e0 03          	shl    $0x3,%rax
   1a476:	48 01 d0             	add    %rdx,%rax
   1a479:	48 01 c8             	add    %rcx,%rax
   1a47c:	48 8d 14 c5 00 00 00 	lea    0x0(,%rax,8),%rdx
   1a483:	00 
   1a484:	48 8d 05 35 50 00 00 	lea    0x5035(%rip),%rax        # 1f4c0 <g_966>
   1a48b:	48 8b 04 02          	mov    (%rdx,%rax,1),%rax
   1a48f:	48 89 c1             	mov    %rax,%rcx
   1a492:	8b 45 fc             	mov    -0x4(%rbp),%eax
   1a495:	89 c2                	mov    %eax,%edx
   1a497:	48 8d 35 db 18 00 00 	lea    0x18db(%rip),%rsi        # 1bd79 <g_1906+0xc99>
   1a49e:	48 89 cf             	mov    %rcx,%rdi
   1a4a1:	e8 4d 12 ff ff       	callq  b6f3 <transparent_crc>
   1a4a6:	83 7d fc 00          	cmpl   $0x0,-0x4(%rbp)
   1a4aa:	74 19                	je     1a4c5 <main+0x1c49>
   1a4ac:	8b 55 f4             	mov    -0xc(%rbp),%edx
   1a4af:	8b 45 f0             	mov    -0x10(%rbp),%eax
   1a4b2:	89 c6                	mov    %eax,%esi
   1a4b4:	48 8d 3d b1 12 00 00 	lea    0x12b1(%rip),%rdi        # 1b76c <g_1906+0x68c>
   1a4bb:	b8 00 00 00 00       	mov    $0x0,%eax
   1a4c0:	e8 bb fb fe ff       	callq  a080 <printf@plt>
   1a4c5:	83 45 f4 01          	addl   $0x1,-0xc(%rbp)
   1a4c9:	83 7d f4 08          	cmpl   $0x8,-0xc(%rbp)
   1a4cd:	7e 94                	jle    1a463 <main+0x1be7>
   1a4cf:	83 45 f0 01          	addl   $0x1,-0x10(%rbp)
   1a4d3:	83 7d f0 08          	cmpl   $0x8,-0x10(%rbp)
   1a4d7:	7e 81                	jle    1a45a <main+0x1bde>
   1a4d9:	48 8b 05 68 52 00 00 	mov    0x5268(%rip),%rax        # 1f748 <g_967>
   1a4e0:	48 89 c1             	mov    %rax,%rcx
   1a4e3:	8b 45 fc             	mov    -0x4(%rbp),%eax
   1a4e6:	89 c2                	mov    %eax,%edx
   1a4e8:	48 8d 35 96 18 00 00 	lea    0x1896(%rip),%rsi        # 1bd85 <g_1906+0xca5>
   1a4ef:	48 89 cf             	mov    %rcx,%rdi
   1a4f2:	e8 fc 11 ff ff       	callq  b6f3 <transparent_crc>
   1a4f7:	48 8b 05 52 52 00 00 	mov    0x5252(%rip),%rax        # 1f750 <g_968>
   1a4fe:	48 89 c1             	mov    %rax,%rcx
   1a501:	8b 45 fc             	mov    -0x4(%rbp),%eax
   1a504:	89 c2                	mov    %eax,%edx
   1a506:	48 8d 35 7e 18 00 00 	lea    0x187e(%rip),%rsi        # 1bd8b <g_1906+0xcab>
   1a50d:	48 89 cf             	mov    %rcx,%rdi
   1a510:	e8 de 11 ff ff       	callq  b6f3 <transparent_crc>
   1a515:	c7 45 f0 00 00 00 00 	movl   $0x0,-0x10(%rbp)
   1a51c:	eb 73                	jmp    1a591 <main+0x1d15>
   1a51e:	c7 45 f4 00 00 00 00 	movl   $0x0,-0xc(%rbp)
   1a525:	eb 60                	jmp    1a587 <main+0x1d0b>
   1a527:	8b 45 f4             	mov    -0xc(%rbp),%eax
   1a52a:	48 63 c8             	movslq %eax,%rcx
   1a52d:	8b 45 f0             	mov    -0x10(%rbp),%eax
   1a530:	48 63 d0             	movslq %eax,%rdx
   1a533:	48 89 d0             	mov    %rdx,%rax
   1a536:	48 01 c0             	add    %rax,%rax
   1a539:	48 01 d0             	add    %rdx,%rax
   1a53c:	48 01 c8             	add    %rcx,%rax
   1a53f:	48 8d 14 c5 00 00 00 	lea    0x0(,%rax,8),%rdx
   1a546:	00 
   1a547:	48 8d 05 12 0b 00 00 	lea    0xb12(%rip),%rax        # 1b060 <g_1006>
   1a54e:	48 8b 04 02          	mov    (%rdx,%rax,1),%rax
   1a552:	8b 55 fc             	mov    -0x4(%rbp),%edx
   1a555:	48 8d 35 35 18 00 00 	lea    0x1835(%rip),%rsi        # 1bd91 <g_1906+0xcb1>
   1a55c:	48 89 c7             	mov    %rax,%rdi
   1a55f:	e8 8f 11 ff ff       	callq  b6f3 <transparent_crc>
   1a564:	83 7d fc 00          	cmpl   $0x0,-0x4(%rbp)
   1a568:	74 19                	je     1a583 <main+0x1d07>
   1a56a:	8b 55 f4             	mov    -0xc(%rbp),%edx
   1a56d:	8b 45 f0             	mov    -0x10(%rbp),%eax
   1a570:	89 c6                	mov    %eax,%esi
   1a572:	48 8d 3d f3 11 00 00 	lea    0x11f3(%rip),%rdi        # 1b76c <g_1906+0x68c>
   1a579:	b8 00 00 00 00       	mov    $0x0,%eax
   1a57e:	e8 fd fa fe ff       	callq  a080 <printf@plt>
   1a583:	83 45 f4 01          	addl   $0x1,-0xc(%rbp)
   1a587:	83 7d f4 02          	cmpl   $0x2,-0xc(%rbp)
   1a58b:	7e 9a                	jle    1a527 <main+0x1cab>
   1a58d:	83 45 f0 01          	addl   $0x1,-0x10(%rbp)
   1a591:	83 7d f0 02          	cmpl   $0x2,-0x10(%rbp)
   1a595:	7e 87                	jle    1a51e <main+0x1ca2>
   1a597:	48 8b 05 ba 51 00 00 	mov    0x51ba(%rip),%rax        # 1f758 <g_1011>
   1a59e:	8b 55 fc             	mov    -0x4(%rbp),%edx
   1a5a1:	48 8d 35 f6 17 00 00 	lea    0x17f6(%rip),%rsi        # 1bd9e <g_1906+0xcbe>
   1a5a8:	48 89 c7             	mov    %rax,%rdi
   1a5ab:	e8 43 11 ff ff       	callq  b6f3 <transparent_crc>
   1a5b0:	0f b7 05 d1 8d 00 00 	movzwl 0x8dd1(%rip),%eax        # 23388 <g_1016>
   1a5b7:	48 0f bf c0          	movswq %ax,%rax
   1a5bb:	8b 55 fc             	mov    -0x4(%rbp),%edx
   1a5be:	48 8d 35 e0 17 00 00 	lea    0x17e0(%rip),%rsi        # 1bda5 <g_1906+0xcc5>
   1a5c5:	48 89 c7             	mov    %rax,%rdi
   1a5c8:	e8 26 11 ff ff       	callq  b6f3 <transparent_crc>
   1a5cd:	0f b7 05 8c 51 00 00 	movzwl 0x518c(%rip),%eax        # 1f760 <g_1066>
   1a5d4:	0f b7 c0             	movzwl %ax,%eax
   1a5d7:	8b 55 fc             	mov    -0x4(%rbp),%edx
   1a5da:	48 8d 35 cb 17 00 00 	lea    0x17cb(%rip),%rsi        # 1bdac <g_1906+0xccc>
   1a5e1:	48 89 c7             	mov    %rax,%rdi
   1a5e4:	e8 0a 11 ff ff       	callq  b6f3 <transparent_crc>
   1a5e9:	48 8b 05 78 51 00 00 	mov    0x5178(%rip),%rax        # 1f768 <g_1149>
   1a5f0:	8b 55 fc             	mov    -0x4(%rbp),%edx
   1a5f3:	48 8d 35 bc 17 00 00 	lea    0x17bc(%rip),%rsi        # 1bdb6 <g_1906+0xcd6>
   1a5fa:	48 89 c7             	mov    %rax,%rdi
   1a5fd:	e8 f1 10 ff ff       	callq  b6f3 <transparent_crc>
   1a602:	8b 05 68 51 00 00    	mov    0x5168(%rip),%eax        # 1f770 <g_1170>
   1a608:	89 c1                	mov    %eax,%ecx
   1a60a:	8b 45 fc             	mov    -0x4(%rbp),%eax
   1a60d:	89 c2                	mov    %eax,%edx
   1a60f:	48 8d 35 a7 17 00 00 	lea    0x17a7(%rip),%rsi        # 1bdbd <g_1906+0xcdd>
   1a616:	48 89 cf             	mov    %rcx,%rdi
   1a619:	e8 d5 10 ff ff       	callq  b6f3 <transparent_crc>
   1a61e:	8b 05 50 51 00 00    	mov    0x5150(%rip),%eax        # 1f774 <g_1177>
   1a624:	48 98                	cltq   
   1a626:	8b 55 fc             	mov    -0x4(%rbp),%edx
   1a629:	48 8d 35 94 17 00 00 	lea    0x1794(%rip),%rsi        # 1bdc4 <g_1906+0xce4>
   1a630:	48 89 c7             	mov    %rax,%rdi
   1a633:	e8 bb 10 ff ff       	callq  b6f3 <transparent_crc>
   1a638:	0f b6 05 39 51 00 00 	movzbl 0x5139(%rip),%eax        # 1f778 <g_1206>
   1a63f:	83 e0 7f             	and    $0x7f,%eax
   1a642:	0f b6 c0             	movzbl %al,%eax
   1a645:	8b 55 fc             	mov    -0x4(%rbp),%edx
   1a648:	48 8d 35 7c 17 00 00 	lea    0x177c(%rip),%rsi        # 1bdcb <g_1906+0xceb>
   1a64f:	48 89 c7             	mov    %rax,%rdi
   1a652:	e8 9c 10 ff ff       	callq  b6f3 <transparent_crc>
   1a657:	0f b7 05 1b 51 00 00 	movzwl 0x511b(%rip),%eax        # 1f779 <g_1206+0x1>
   1a65e:	48 0f bf c0          	movswq %ax,%rax
   1a662:	8b 55 fc             	mov    -0x4(%rbp),%edx
   1a665:	48 8d 35 69 17 00 00 	lea    0x1769(%rip),%rsi        # 1bdd5 <g_1906+0xcf5>
   1a66c:	48 89 c7             	mov    %rax,%rdi
   1a66f:	e8 7f 10 ff ff       	callq  b6f3 <transparent_crc>
   1a674:	c7 45 f0 00 00 00 00 	movl   $0x0,-0x10(%rbp)
   1a67b:	e9 83 00 00 00       	jmpq   1a703 <main+0x1e87>
   1a680:	8b 45 f0             	mov    -0x10(%rbp),%eax
   1a683:	48 63 d0             	movslq %eax,%rdx
   1a686:	48 89 d0             	mov    %rdx,%rax
   1a689:	48 01 c0             	add    %rax,%rax
   1a68c:	48 01 c2             	add    %rax,%rdx
   1a68f:	48 8d 05 ea 50 00 00 	lea    0x50ea(%rip),%rax        # 1f780 <g_1232>
   1a696:	0f b6 04 02          	movzbl (%rdx,%rax,1),%eax
   1a69a:	83 e0 7f             	and    $0x7f,%eax
   1a69d:	0f b6 c0             	movzbl %al,%eax
   1a6a0:	8b 55 fc             	mov    -0x4(%rbp),%edx
   1a6a3:	48 8d 35 35 17 00 00 	lea    0x1735(%rip),%rsi        # 1bddf <g_1906+0xcff>
   1a6aa:	48 89 c7             	mov    %rax,%rdi
   1a6ad:	e8 41 10 ff ff       	callq  b6f3 <transparent_crc>
   1a6b2:	8b 45 f0             	mov    -0x10(%rbp),%eax
   1a6b5:	48 63 d0             	movslq %eax,%rdx
   1a6b8:	48 89 d0             	mov    %rdx,%rax
   1a6bb:	48 01 c0             	add    %rax,%rax
   1a6be:	48 01 c2             	add    %rax,%rdx
   1a6c1:	48 8d 05 b8 50 00 00 	lea    0x50b8(%rip),%rax        # 1f780 <g_1232>
   1a6c8:	0f b7 44 02 01       	movzwl 0x1(%rdx,%rax,1),%eax
   1a6cd:	48 0f bf c0          	movswq %ax,%rax
   1a6d1:	8b 55 fc             	mov    -0x4(%rbp),%edx
   1a6d4:	48 8d 35 11 17 00 00 	lea    0x1711(%rip),%rsi        # 1bdec <g_1906+0xd0c>
   1a6db:	48 89 c7             	mov    %rax,%rdi
   1a6de:	e8 10 10 ff ff       	callq  b6f3 <transparent_crc>
   1a6e3:	83 7d fc 00          	cmpl   $0x0,-0x4(%rbp)
   1a6e7:	74 16                	je     1a6ff <main+0x1e83>
   1a6e9:	8b 45 f0             	mov    -0x10(%rbp),%eax
   1a6ec:	89 c6                	mov    %eax,%esi
   1a6ee:	48 8d 3d db 10 00 00 	lea    0x10db(%rip),%rdi        # 1b7d0 <g_1906+0x6f0>
   1a6f5:	b8 00 00 00 00       	mov    $0x0,%eax
   1a6fa:	e8 81 f9 fe ff       	callq  a080 <printf@plt>
   1a6ff:	83 45 f0 01          	addl   $0x1,-0x10(%rbp)
   1a703:	83 7d f0 05          	cmpl   $0x5,-0x10(%rbp)
   1a707:	0f 8e 73 ff ff ff    	jle    1a680 <main+0x1e04>
   1a70d:	c7 45 f0 00 00 00 00 	movl   $0x0,-0x10(%rbp)
   1a714:	e9 95 00 00 00       	jmpq   1a7ae <main+0x1f32>
   1a719:	c7 45 f4 00 00 00 00 	movl   $0x0,-0xc(%rbp)
   1a720:	eb 7e                	jmp    1a7a0 <main+0x1f24>
   1a722:	c7 45 f8 00 00 00 00 	movl   $0x0,-0x8(%rbp)
   1a729:	eb 6b                	jmp    1a796 <main+0x1f1a>
   1a72b:	8b 45 f8             	mov    -0x8(%rbp),%eax
   1a72e:	48 63 f0             	movslq %eax,%rsi
   1a731:	8b 45 f4             	mov    -0xc(%rbp),%eax
   1a734:	48 63 c8             	movslq %eax,%rcx
   1a737:	8b 45 f0             	mov    -0x10(%rbp),%eax
   1a73a:	48 63 d0             	movslq %eax,%rdx
   1a73d:	48 89 d0             	mov    %rdx,%rax
   1a740:	48 01 c0             	add    %rax,%rax
   1a743:	48 01 d0             	add    %rdx,%rax
   1a746:	48 01 f0             	add    %rsi,%rax
   1a749:	48 8d 14 08          	lea    (%rax,%rcx,1),%rdx
   1a74d:	48 8d 05 4c 50 00 00 	lea    0x504c(%rip),%rax        # 1f7a0 <g_1268>
   1a754:	48 01 d0             	add    %rdx,%rax
   1a757:	0f b6 00             	movzbl (%rax),%eax
   1a75a:	48 0f be c0          	movsbq %al,%rax
   1a75e:	8b 55 fc             	mov    -0x4(%rbp),%edx
   1a761:	48 8d 35 91 16 00 00 	lea    0x1691(%rip),%rsi        # 1bdf9 <g_1906+0xd19>
   1a768:	48 89 c7             	mov    %rax,%rdi
   1a76b:	e8 83 0f ff ff       	callq  b6f3 <transparent_crc>
   1a770:	83 7d fc 00          	cmpl   $0x0,-0x4(%rbp)
   1a774:	74 1c                	je     1a792 <main+0x1f16>
   1a776:	8b 4d f8             	mov    -0x8(%rbp),%ecx
   1a779:	8b 55 f4             	mov    -0xc(%rbp),%edx
   1a77c:	8b 45 f0             	mov    -0x10(%rbp),%eax
   1a77f:	89 c6                	mov    %eax,%esi
   1a781:	48 8d 3d 81 16 00 00 	lea    0x1681(%rip),%rdi        # 1be09 <g_1906+0xd29>
   1a788:	b8 00 00 00 00       	mov    $0x0,%eax
   1a78d:	e8 ee f8 fe ff       	callq  a080 <printf@plt>
   1a792:	83 45 f8 01          	addl   $0x1,-0x8(%rbp)
   1a796:	83 7d f8 00          	cmpl   $0x0,-0x8(%rbp)
   1a79a:	7e 8f                	jle    1a72b <main+0x1eaf>
   1a79c:	83 45 f4 01          	addl   $0x1,-0xc(%rbp)
   1a7a0:	83 7d f4 02          	cmpl   $0x2,-0xc(%rbp)
   1a7a4:	0f 8e 78 ff ff ff    	jle    1a722 <main+0x1ea6>
   1a7aa:	83 45 f0 01          	addl   $0x1,-0x10(%rbp)
   1a7ae:	83 7d f0 08          	cmpl   $0x8,-0x10(%rbp)
   1a7b2:	0f 8e 61 ff ff ff    	jle    1a719 <main+0x1e9d>
   1a7b8:	c7 45 f0 00 00 00 00 	movl   $0x0,-0x10(%rbp)
   1a7bf:	e9 83 00 00 00       	jmpq   1a847 <main+0x1fcb>
   1a7c4:	8b 45 f0             	mov    -0x10(%rbp),%eax
   1a7c7:	48 63 d0             	movslq %eax,%rdx
   1a7ca:	48 89 d0             	mov    %rdx,%rax
   1a7cd:	48 01 c0             	add    %rax,%rax
   1a7d0:	48 01 c2             	add    %rax,%rdx
   1a7d3:	48 8d 05 e1 4f 00 00 	lea    0x4fe1(%rip),%rax        # 1f7bb <g_1375>
   1a7da:	0f b6 04 02          	movzbl (%rdx,%rax,1),%eax
   1a7de:	83 e0 7f             	and    $0x7f,%eax
   1a7e1:	0f b6 c0             	movzbl %al,%eax
   1a7e4:	8b 55 fc             	mov    -0x4(%rbp),%edx
   1a7e7:	48 8d 35 31 16 00 00 	lea    0x1631(%rip),%rsi        # 1be1f <g_1906+0xd3f>
   1a7ee:	48 89 c7             	mov    %rax,%rdi
   1a7f1:	e8 fd 0e ff ff       	callq  b6f3 <transparent_crc>
   1a7f6:	8b 45 f0             	mov    -0x10(%rbp),%eax
   1a7f9:	48 63 d0             	movslq %eax,%rdx
   1a7fc:	48 89 d0             	mov    %rdx,%rax
   1a7ff:	48 01 c0             	add    %rax,%rax
   1a802:	48 01 c2             	add    %rax,%rdx
   1a805:	48 8d 05 af 4f 00 00 	lea    0x4faf(%rip),%rax        # 1f7bb <g_1375>
   1a80c:	0f b7 44 02 01       	movzwl 0x1(%rdx,%rax,1),%eax
   1a811:	48 0f bf c0          	movswq %ax,%rax
   1a815:	8b 55 fc             	mov    -0x4(%rbp),%edx
   1a818:	48 8d 35 0d 16 00 00 	lea    0x160d(%rip),%rsi        # 1be2c <g_1906+0xd4c>
   1a81f:	48 89 c7             	mov    %rax,%rdi
   1a822:	e8 cc 0e ff ff       	callq  b6f3 <transparent_crc>
   1a827:	83 7d fc 00          	cmpl   $0x0,-0x4(%rbp)
   1a82b:	74 16                	je     1a843 <main+0x1fc7>
   1a82d:	8b 45 f0             	mov    -0x10(%rbp),%eax
   1a830:	89 c6                	mov    %eax,%esi
   1a832:	48 8d 3d 97 0f 00 00 	lea    0xf97(%rip),%rdi        # 1b7d0 <g_1906+0x6f0>
   1a839:	b8 00 00 00 00       	mov    $0x0,%eax
   1a83e:	e8 3d f8 fe ff       	callq  a080 <printf@plt>
   1a843:	83 45 f0 01          	addl   $0x1,-0x10(%rbp)
   1a847:	83 7d f0 00          	cmpl   $0x0,-0x10(%rbp)
   1a84b:	0f 8e 73 ff ff ff    	jle    1a7c4 <main+0x1f48>
   1a851:	0f b6 05 66 4f 00 00 	movzbl 0x4f66(%rip),%eax        # 1f7be <g_1400>
   1a858:	48 0f be c0          	movsbq %al,%rax
   1a85c:	8b 55 fc             	mov    -0x4(%rbp),%edx
   1a85f:	48 8d 35 d3 15 00 00 	lea    0x15d3(%rip),%rsi        # 1be39 <g_1906+0xd59>
   1a866:	48 89 c7             	mov    %rax,%rdi
   1a869:	e8 85 0e ff ff       	callq  b6f3 <transparent_crc>
   1a86e:	8b 05 2c 8b 00 00    	mov    0x8b2c(%rip),%eax        # 233a0 <g_1402>
   1a874:	48 98                	cltq   
   1a876:	8b 55 fc             	mov    -0x4(%rbp),%edx
   1a879:	48 8d 35 c0 15 00 00 	lea    0x15c0(%rip),%rsi        # 1be40 <g_1906+0xd60>
   1a880:	48 89 c7             	mov    %rax,%rdi
   1a883:	e8 6b 0e ff ff       	callq  b6f3 <transparent_crc>
   1a888:	0f b6 05 30 4f 00 00 	movzbl 0x4f30(%rip),%eax        # 1f7bf <g_1413>
   1a88f:	48 0f be c0          	movsbq %al,%rax
   1a893:	8b 55 fc             	mov    -0x4(%rbp),%edx
   1a896:	48 8d 35 aa 15 00 00 	lea    0x15aa(%rip),%rsi        # 1be47 <g_1906+0xd67>
   1a89d:	48 89 c7             	mov    %rax,%rdi
   1a8a0:	e8 4e 0e ff ff       	callq  b6f3 <transparent_crc>
   1a8a5:	c7 45 f0 00 00 00 00 	movl   $0x0,-0x10(%rbp)
   1a8ac:	e9 ce 00 00 00       	jmpq   1a97f <main+0x2103>
   1a8b1:	c7 45 f4 00 00 00 00 	movl   $0x0,-0xc(%rbp)
   1a8b8:	e9 b4 00 00 00       	jmpq   1a971 <main+0x20f5>
   1a8bd:	8b 45 f4             	mov    -0xc(%rbp),%eax
   1a8c0:	48 98                	cltq   
   1a8c2:	8b 55 f0             	mov    -0x10(%rbp),%edx
   1a8c5:	48 63 ca             	movslq %edx,%rcx
   1a8c8:	48 89 c2             	mov    %rax,%rdx
   1a8cb:	48 01 d2             	add    %rdx,%rdx
   1a8ce:	48 01 c2             	add    %rax,%rdx
   1a8d1:	48 89 c8             	mov    %rcx,%rax
   1a8d4:	48 c1 e0 03          	shl    $0x3,%rax
   1a8d8:	48 01 c8             	add    %rcx,%rax
   1a8db:	48 01 c0             	add    %rax,%rax
   1a8de:	48 01 c2             	add    %rax,%rdx
   1a8e1:	48 8d 05 d8 4e 00 00 	lea    0x4ed8(%rip),%rax        # 1f7c0 <g_1425>
   1a8e8:	48 01 d0             	add    %rdx,%rax
   1a8eb:	0f b6 00             	movzbl (%rax),%eax
   1a8ee:	83 e0 7f             	and    $0x7f,%eax
   1a8f1:	0f b6 c0             	movzbl %al,%eax
   1a8f4:	8b 55 fc             	mov    -0x4(%rbp),%edx
   1a8f7:	48 8d 35 50 15 00 00 	lea    0x1550(%rip),%rsi        # 1be4e <g_1906+0xd6e>
   1a8fe:	48 89 c7             	mov    %rax,%rdi
   1a901:	e8 ed 0d ff ff       	callq  b6f3 <transparent_crc>
   1a906:	8b 45 f4             	mov    -0xc(%rbp),%eax
   1a909:	48 98                	cltq   
   1a90b:	8b 55 f0             	mov    -0x10(%rbp),%edx
   1a90e:	48 63 ca             	movslq %edx,%rcx
   1a911:	48 89 c2             	mov    %rax,%rdx
   1a914:	48 01 d2             	add    %rdx,%rdx
   1a917:	48 01 c2             	add    %rax,%rdx
   1a91a:	48 89 c8             	mov    %rcx,%rax
   1a91d:	48 c1 e0 03          	shl    $0x3,%rax
   1a921:	48 01 c8             	add    %rcx,%rax
   1a924:	48 01 c0             	add    %rax,%rax
   1a927:	48 01 c2             	add    %rax,%rdx
   1a92a:	48 8d 05 8f 4e 00 00 	lea    0x4e8f(%rip),%rax        # 1f7c0 <g_1425>
   1a931:	48 01 d0             	add    %rdx,%rax
   1a934:	0f b7 40 01          	movzwl 0x1(%rax),%eax
   1a938:	48 0f bf c0          	movswq %ax,%rax
   1a93c:	8b 55 fc             	mov    -0x4(%rbp),%edx
   1a93f:	48 8d 35 18 15 00 00 	lea    0x1518(%rip),%rsi        # 1be5e <g_1906+0xd7e>
   1a946:	48 89 c7             	mov    %rax,%rdi
   1a949:	e8 a5 0d ff ff       	callq  b6f3 <transparent_crc>
   1a94e:	83 7d fc 00          	cmpl   $0x0,-0x4(%rbp)
   1a952:	74 19                	je     1a96d <main+0x20f1>
   1a954:	8b 55 f4             	mov    -0xc(%rbp),%edx
   1a957:	8b 45 f0             	mov    -0x10(%rbp),%eax
   1a95a:	89 c6                	mov    %eax,%esi
   1a95c:	48 8d 3d 09 0e 00 00 	lea    0xe09(%rip),%rdi        # 1b76c <g_1906+0x68c>
   1a963:	b8 00 00 00 00       	mov    $0x0,%eax
   1a968:	e8 13 f7 fe ff       	callq  a080 <printf@plt>
   1a96d:	83 45 f4 01          	addl   $0x1,-0xc(%rbp)
   1a971:	83 7d f4 05          	cmpl   $0x5,-0xc(%rbp)
   1a975:	0f 8e 42 ff ff ff    	jle    1a8bd <main+0x2041>
   1a97b:	83 45 f0 01          	addl   $0x1,-0x10(%rbp)
   1a97f:	83 7d f0 07          	cmpl   $0x7,-0x10(%rbp)
   1a983:	0f 8e 28 ff ff ff    	jle    1a8b1 <main+0x2035>
   1a989:	c7 45 f0 00 00 00 00 	movl   $0x0,-0x10(%rbp)
   1a990:	e9 83 00 00 00       	jmpq   1aa18 <main+0x219c>
   1a995:	8b 45 f0             	mov    -0x10(%rbp),%eax
   1a998:	48 63 d0             	movslq %eax,%rdx
   1a99b:	48 89 d0             	mov    %rdx,%rax
   1a99e:	48 01 c0             	add    %rax,%rax
   1a9a1:	48 01 c2             	add    %rax,%rdx
   1a9a4:	48 8d 05 05 07 00 00 	lea    0x705(%rip),%rax        # 1b0b0 <g_1473>
   1a9ab:	0f b6 04 02          	movzbl (%rdx,%rax,1),%eax
   1a9af:	83 e0 7f             	and    $0x7f,%eax
   1a9b2:	0f b6 c0             	movzbl %al,%eax
   1a9b5:	8b 55 fc             	mov    -0x4(%rbp),%edx
   1a9b8:	48 8d 35 af 14 00 00 	lea    0x14af(%rip),%rsi        # 1be6e <g_1906+0xd8e>
   1a9bf:	48 89 c7             	mov    %rax,%rdi
   1a9c2:	e8 2c 0d ff ff       	callq  b6f3 <transparent_crc>
   1a9c7:	8b 45 f0             	mov    -0x10(%rbp),%eax
   1a9ca:	48 63 d0             	movslq %eax,%rdx
   1a9cd:	48 89 d0             	mov    %rdx,%rax
   1a9d0:	48 01 c0             	add    %rax,%rax
   1a9d3:	48 01 c2             	add    %rax,%rdx
   1a9d6:	48 8d 05 d3 06 00 00 	lea    0x6d3(%rip),%rax        # 1b0b0 <g_1473>
   1a9dd:	0f b7 44 02 01       	movzwl 0x1(%rdx,%rax,1),%eax
   1a9e2:	48 0f bf c0          	movswq %ax,%rax
   1a9e6:	8b 55 fc             	mov    -0x4(%rbp),%edx
   1a9e9:	48 8d 35 8b 14 00 00 	lea    0x148b(%rip),%rsi        # 1be7b <g_1906+0xd9b>
   1a9f0:	48 89 c7             	mov    %rax,%rdi
   1a9f3:	e8 fb 0c ff ff       	callq  b6f3 <transparent_crc>
   1a9f8:	83 7d fc 00          	cmpl   $0x0,-0x4(%rbp)
   1a9fc:	74 16                	je     1aa14 <main+0x2198>
   1a9fe:	8b 45 f0             	mov    -0x10(%rbp),%eax
   1aa01:	89 c6                	mov    %eax,%esi
   1aa03:	48 8d 3d c6 0d 00 00 	lea    0xdc6(%rip),%rdi        # 1b7d0 <g_1906+0x6f0>
   1aa0a:	b8 00 00 00 00       	mov    $0x0,%eax
   1aa0f:	e8 6c f6 fe ff       	callq  a080 <printf@plt>
   1aa14:	83 45 f0 01          	addl   $0x1,-0x10(%rbp)
   1aa18:	83 7d f0 06          	cmpl   $0x6,-0x10(%rbp)
   1aa1c:	0f 8e 73 ff ff ff    	jle    1a995 <main+0x2119>
   1aa22:	0f b6 05 27 4e 00 00 	movzbl 0x4e27(%rip),%eax        # 1f850 <g_1514>
   1aa29:	48 0f be c0          	movsbq %al,%rax
   1aa2d:	8b 55 fc             	mov    -0x4(%rbp),%edx
   1aa30:	48 8d 35 51 14 00 00 	lea    0x1451(%rip),%rsi        # 1be88 <g_1906+0xda8>
   1aa37:	48 89 c7             	mov    %rax,%rdi
   1aa3a:	e8 b4 0c ff ff       	callq  b6f3 <transparent_crc>
   1aa3f:	b8 01 00 00 00       	mov    $0x1,%eax
   1aa44:	48 98                	cltq   
   1aa46:	8b 55 fc             	mov    -0x4(%rbp),%edx
   1aa49:	48 8d 35 3f 14 00 00 	lea    0x143f(%rip),%rsi        # 1be8f <g_1906+0xdaf>
   1aa50:	48 89 c7             	mov    %rax,%rdi
   1aa53:	e8 9b 0c ff ff       	callq  b6f3 <transparent_crc>
   1aa58:	0f b6 05 f2 4d 00 00 	movzbl 0x4df2(%rip),%eax        # 1f851 <g_1816>
   1aa5f:	83 e0 7f             	and    $0x7f,%eax
   1aa62:	0f b6 c0             	movzbl %al,%eax
   1aa65:	8b 55 fc             	mov    -0x4(%rbp),%edx
   1aa68:	48 8d 35 2a 14 00 00 	lea    0x142a(%rip),%rsi        # 1be99 <g_1906+0xdb9>
   1aa6f:	48 89 c7             	mov    %rax,%rdi
   1aa72:	e8 7c 0c ff ff       	callq  b6f3 <transparent_crc>
   1aa77:	0f b7 05 d4 4d 00 00 	movzwl 0x4dd4(%rip),%eax        # 1f852 <g_1816+0x1>
   1aa7e:	48 0f bf c0          	movswq %ax,%rax
   1aa82:	8b 55 fc             	mov    -0x4(%rbp),%edx
   1aa85:	48 8d 35 17 14 00 00 	lea    0x1417(%rip),%rsi        # 1bea3 <g_1906+0xdc3>
   1aa8c:	48 89 c7             	mov    %rax,%rdi
   1aa8f:	e8 5f 0c ff ff       	callq  b6f3 <transparent_crc>
   1aa94:	8b 05 ba 4d 00 00    	mov    0x4dba(%rip),%eax        # 1f854 <g_1819>
   1aa9a:	48 98                	cltq   
   1aa9c:	8b 55 fc             	mov    -0x4(%rbp),%edx
   1aa9f:	48 8d 35 07 14 00 00 	lea    0x1407(%rip),%rsi        # 1bead <g_1906+0xdcd>
   1aaa6:	48 89 c7             	mov    %rax,%rdi
   1aaa9:	e8 45 0c ff ff       	callq  b6f3 <transparent_crc>
   1aaae:	c7 45 f0 00 00 00 00 	movl   $0x0,-0x10(%rbp)
   1aab5:	e9 83 00 00 00       	jmpq   1ab3d <main+0x22c1>
   1aaba:	8b 45 f0             	mov    -0x10(%rbp),%eax
   1aabd:	48 63 d0             	movslq %eax,%rdx
   1aac0:	48 89 d0             	mov    %rdx,%rax
   1aac3:	48 01 c0             	add    %rax,%rax
   1aac6:	48 01 c2             	add    %rax,%rdx
   1aac9:	48 8d 05 88 4d 00 00 	lea    0x4d88(%rip),%rax        # 1f858 <g_1847>
   1aad0:	0f b6 04 02          	movzbl (%rdx,%rax,1),%eax
   1aad4:	83 e0 7f             	and    $0x7f,%eax
   1aad7:	0f b6 c0             	movzbl %al,%eax
   1aada:	8b 55 fc             	mov    -0x4(%rbp),%edx
   1aadd:	48 8d 35 d0 13 00 00 	lea    0x13d0(%rip),%rsi        # 1beb4 <g_1906+0xdd4>
   1aae4:	48 89 c7             	mov    %rax,%rdi
   1aae7:	e8 07 0c ff ff       	callq  b6f3 <transparent_crc>
   1aaec:	8b 45 f0             	mov    -0x10(%rbp),%eax
   1aaef:	48 63 d0             	movslq %eax,%rdx
   1aaf2:	48 89 d0             	mov    %rdx,%rax
   1aaf5:	48 01 c0             	add    %rax,%rax
   1aaf8:	48 01 c2             	add    %rax,%rdx
   1aafb:	48 8d 05 56 4d 00 00 	lea    0x4d56(%rip),%rax        # 1f858 <g_1847>
   1ab02:	0f b7 44 02 01       	movzwl 0x1(%rdx,%rax,1),%eax
   1ab07:	48 0f bf c0          	movswq %ax,%rax
   1ab0b:	8b 55 fc             	mov    -0x4(%rbp),%edx
   1ab0e:	48 8d 35 ac 13 00 00 	lea    0x13ac(%rip),%rsi        # 1bec1 <g_1906+0xde1>
   1ab15:	48 89 c7             	mov    %rax,%rdi
   1ab18:	e8 d6 0b ff ff       	callq  b6f3 <transparent_crc>
   1ab1d:	83 7d fc 00          	cmpl   $0x0,-0x4(%rbp)
   1ab21:	74 16                	je     1ab39 <main+0x22bd>
   1ab23:	8b 45 f0             	mov    -0x10(%rbp),%eax
   1ab26:	89 c6                	mov    %eax,%esi
   1ab28:	48 8d 3d a1 0c 00 00 	lea    0xca1(%rip),%rdi        # 1b7d0 <g_1906+0x6f0>
   1ab2f:	b8 00 00 00 00       	mov    $0x0,%eax
   1ab34:	e8 47 f5 fe ff       	callq  a080 <printf@plt>
   1ab39:	83 45 f0 01          	addl   $0x1,-0x10(%rbp)
   1ab3d:	83 7d f0 04          	cmpl   $0x4,-0x10(%rbp)
   1ab41:	0f 8e 73 ff ff ff    	jle    1aaba <main+0x223e>
   1ab47:	c7 45 f0 00 00 00 00 	movl   $0x0,-0x10(%rbp)
   1ab4e:	e9 95 00 00 00       	jmpq   1abe8 <main+0x236c>
   1ab53:	c7 45 f4 00 00 00 00 	movl   $0x0,-0xc(%rbp)
   1ab5a:	eb 7e                	jmp    1abda <main+0x235e>
   1ab5c:	c7 45 f8 00 00 00 00 	movl   $0x0,-0x8(%rbp)
   1ab63:	eb 6b                	jmp    1abd0 <main+0x2354>
   1ab65:	8b 45 f8             	mov    -0x8(%rbp),%eax
   1ab68:	48 98                	cltq   
   1ab6a:	8b 55 f0             	mov    -0x10(%rbp),%edx
   1ab6d:	48 63 ca             	movslq %edx,%rcx
   1ab70:	8b 55 f4             	mov    -0xc(%rbp),%edx
   1ab73:	48 63 d2             	movslq %edx,%rdx
   1ab76:	48 c1 e1 02          	shl    $0x2,%rcx
   1ab7a:	48 01 ca             	add    %rcx,%rdx
   1ab7d:	48 c1 e2 03          	shl    $0x3,%rdx
   1ab81:	48 01 d0             	add    %rdx,%rax
   1ab84:	48 8d 14 85 00 00 00 	lea    0x0(,%rax,4),%rdx
   1ab8b:	00 
   1ab8c:	48 8d 05 4d 05 00 00 	lea    0x54d(%rip),%rax        # 1b0e0 <g_1906>
   1ab93:	8b 04 02             	mov    (%rdx,%rax,1),%eax
   1ab96:	48 98                	cltq   
   1ab98:	8b 55 fc             	mov    -0x4(%rbp),%edx
   1ab9b:	48 8d 35 2c 13 00 00 	lea    0x132c(%rip),%rsi        # 1bece <g_1906+0xdee>
   1aba2:	48 89 c7             	mov    %rax,%rdi
   1aba5:	e8 49 0b ff ff       	callq  b6f3 <transparent_crc>
   1abaa:	83 7d fc 00          	cmpl   $0x0,-0x4(%rbp)
   1abae:	74 1c                	je     1abcc <main+0x2350>
   1abb0:	8b 4d f8             	mov    -0x8(%rbp),%ecx
   1abb3:	8b 55 f4             	mov    -0xc(%rbp),%edx
   1abb6:	8b 45 f0             	mov    -0x10(%rbp),%eax
   1abb9:	89 c6                	mov    %eax,%esi
   1abbb:	48 8d 3d 47 12 00 00 	lea    0x1247(%rip),%rdi        # 1be09 <g_1906+0xd29>
   1abc2:	b8 00 00 00 00       	mov    $0x0,%eax
   1abc7:	e8 b4 f4 fe ff       	callq  a080 <printf@plt>
   1abcc:	83 45 f8 01          	addl   $0x1,-0x8(%rbp)
   1abd0:	83 7d f8 07          	cmpl   $0x7,-0x8(%rbp)
   1abd4:	7e 8f                	jle    1ab65 <main+0x22e9>
   1abd6:	83 45 f4 01          	addl   $0x1,-0xc(%rbp)
   1abda:	83 7d f4 03          	cmpl   $0x3,-0xc(%rbp)
   1abde:	0f 8e 78 ff ff ff    	jle    1ab5c <main+0x22e0>
   1abe4:	83 45 f0 01          	addl   $0x1,-0x10(%rbp)
   1abe8:	83 7d f0 06          	cmpl   $0x6,-0x10(%rbp)
   1abec:	0f 8e 61 ff ff ff    	jle    1ab53 <main+0x22d7>
   1abf2:	0f b6 05 6e 4c 00 00 	movzbl 0x4c6e(%rip),%eax        # 1f867 <g_1959>
   1abf9:	83 e0 7f             	and    $0x7f,%eax
   1abfc:	0f b6 c0             	movzbl %al,%eax
   1abff:	8b 55 fc             	mov    -0x4(%rbp),%edx
   1ac02:	48 8d 35 d5 12 00 00 	lea    0x12d5(%rip),%rsi        # 1bede <g_1906+0xdfe>
   1ac09:	48 89 c7             	mov    %rax,%rdi
   1ac0c:	e8 e2 0a ff ff       	callq  b6f3 <transparent_crc>
   1ac11:	0f b7 05 50 4c 00 00 	movzwl 0x4c50(%rip),%eax        # 1f868 <g_1959+0x1>
   1ac18:	48 0f bf c0          	movswq %ax,%rax
   1ac1c:	8b 55 fc             	mov    -0x4(%rbp),%edx
   1ac1f:	48 8d 35 c2 12 00 00 	lea    0x12c2(%rip),%rsi        # 1bee8 <g_1906+0xe08>
   1ac26:	48 89 c7             	mov    %rax,%rdi
   1ac29:	e8 c5 0a ff ff       	callq  b6f3 <transparent_crc>
   1ac2e:	0f b6 05 35 4c 00 00 	movzbl 0x4c35(%rip),%eax        # 1f86a <g_2030>
   1ac35:	83 e0 7f             	and    $0x7f,%eax
   1ac38:	0f b6 c0             	movzbl %al,%eax
   1ac3b:	8b 55 fc             	mov    -0x4(%rbp),%edx
   1ac3e:	48 8d 35 ad 12 00 00 	lea    0x12ad(%rip),%rsi        # 1bef2 <g_1906+0xe12>
   1ac45:	48 89 c7             	mov    %rax,%rdi
   1ac48:	e8 a6 0a ff ff       	callq  b6f3 <transparent_crc>
   1ac4d:	0f b7 05 17 4c 00 00 	movzwl 0x4c17(%rip),%eax        # 1f86b <g_2030+0x1>
   1ac54:	48 0f bf c0          	movswq %ax,%rax
   1ac58:	8b 55 fc             	mov    -0x4(%rbp),%edx
   1ac5b:	48 8d 35 9a 12 00 00 	lea    0x129a(%rip),%rsi        # 1befc <g_1906+0xe1c>
   1ac62:	48 89 c7             	mov    %rax,%rdi
   1ac65:	e8 89 0a ff ff       	callq  b6f3 <transparent_crc>
   1ac6a:	0f b6 05 fc 4b 00 00 	movzbl 0x4bfc(%rip),%eax        # 1f86d <g_2033>
   1ac71:	83 e0 7f             	and    $0x7f,%eax
   1ac74:	0f b6 c0             	movzbl %al,%eax
   1ac77:	8b 55 fc             	mov    -0x4(%rbp),%edx
   1ac7a:	48 8d 35 85 12 00 00 	lea    0x1285(%rip),%rsi        # 1bf06 <g_1906+0xe26>
   1ac81:	48 89 c7             	mov    %rax,%rdi
   1ac84:	e8 6a 0a ff ff       	callq  b6f3 <transparent_crc>
   1ac89:	0f b7 05 de 4b 00 00 	movzwl 0x4bde(%rip),%eax        # 1f86e <g_2033+0x1>
   1ac90:	48 0f bf c0          	movswq %ax,%rax
   1ac94:	8b 55 fc             	mov    -0x4(%rbp),%edx
   1ac97:	48 8d 35 72 12 00 00 	lea    0x1272(%rip),%rsi        # 1bf10 <g_1906+0xe30>
   1ac9e:	48 89 c7             	mov    %rax,%rdi
   1aca1:	e8 4d 0a ff ff       	callq  b6f3 <transparent_crc>
   1aca6:	48 8b 05 c3 4b 00 00 	mov    0x4bc3(%rip),%rax        # 1f870 <g_2049>
   1acad:	8b 55 fc             	mov    -0x4(%rbp),%edx
   1acb0:	48 8d 35 63 12 00 00 	lea    0x1263(%rip),%rsi        # 1bf1a <g_1906+0xe3a>
   1acb7:	48 89 c7             	mov    %rax,%rdi
   1acba:	e8 34 0a ff ff       	callq  b6f3 <transparent_crc>
   1acbf:	c7 45 f0 00 00 00 00 	movl   $0x0,-0x10(%rbp)
   1acc6:	e9 01 01 00 00       	jmpq   1adcc <main+0x2550>
   1accb:	c7 45 f4 00 00 00 00 	movl   $0x0,-0xc(%rbp)
   1acd2:	e9 e7 00 00 00       	jmpq   1adbe <main+0x2542>
   1acd7:	c7 45 f8 00 00 00 00 	movl   $0x0,-0x8(%rbp)
   1acde:	e9 cd 00 00 00       	jmpq   1adb0 <main+0x2534>
   1ace3:	8b 45 f8             	mov    -0x8(%rbp),%eax
   1ace6:	48 63 d0             	movslq %eax,%rdx
   1ace9:	8b 45 f4             	mov    -0xc(%rbp),%eax
   1acec:	48 63 c8             	movslq %eax,%rcx
   1acef:	8b 45 f0             	mov    -0x10(%rbp),%eax
   1acf2:	48 63 f0             	movslq %eax,%rsi
   1acf5:	48 89 d0             	mov    %rdx,%rax
   1acf8:	48 01 c0             	add    %rax,%rax
   1acfb:	48 01 d0             	add    %rdx,%rax
   1acfe:	48 89 ca             	mov    %rcx,%rdx
   1ad01:	48 c1 e2 04          	shl    $0x4,%rdx
   1ad05:	48 29 ca             	sub    %rcx,%rdx
   1ad08:	48 01 c2             	add    %rax,%rdx
   1ad0b:	48 6b c6 5a          	imul   $0x5a,%rsi,%rax
   1ad0f:	48 01 c2             	add    %rax,%rdx
   1ad12:	48 8d 05 67 4b 00 00 	lea    0x4b67(%rip),%rax        # 1f880 <g_2057>
   1ad19:	48 01 d0             	add    %rdx,%rax
   1ad1c:	0f b6 00             	movzbl (%rax),%eax
   1ad1f:	83 e0 7f             	and    $0x7f,%eax
   1ad22:	0f b6 c0             	movzbl %al,%eax
   1ad25:	8b 55 fc             	mov    -0x4(%rbp),%edx
   1ad28:	48 8d 35 f2 11 00 00 	lea    0x11f2(%rip),%rsi        # 1bf21 <g_1906+0xe41>
   1ad2f:	48 89 c7             	mov    %rax,%rdi
   1ad32:	e8 bc 09 ff ff       	callq  b6f3 <transparent_crc>
   1ad37:	8b 45 f8             	mov    -0x8(%rbp),%eax
   1ad3a:	48 63 d0             	movslq %eax,%rdx
   1ad3d:	8b 45 f4             	mov    -0xc(%rbp),%eax
   1ad40:	48 63 c8             	movslq %eax,%rcx
   1ad43:	8b 45 f0             	mov    -0x10(%rbp),%eax
   1ad46:	48 63 f0             	movslq %eax,%rsi
   1ad49:	48 89 d0             	mov    %rdx,%rax
   1ad4c:	48 01 c0             	add    %rax,%rax
   1ad4f:	48 01 d0             	add    %rdx,%rax
   1ad52:	48 89 ca             	mov    %rcx,%rdx
   1ad55:	48 c1 e2 04          	shl    $0x4,%rdx
   1ad59:	48 29 ca             	sub    %rcx,%rdx
   1ad5c:	48 01 c2             	add    %rax,%rdx
   1ad5f:	48 6b c6 5a          	imul   $0x5a,%rsi,%rax
   1ad63:	48 01 c2             	add    %rax,%rdx
   1ad66:	48 8d 05 13 4b 00 00 	lea    0x4b13(%rip),%rax        # 1f880 <g_2057>
   1ad6d:	48 01 d0             	add    %rdx,%rax
   1ad70:	0f b7 40 01          	movzwl 0x1(%rax),%eax
   1ad74:	48 0f bf c0          	movswq %ax,%rax
   1ad78:	8b 55 fc             	mov    -0x4(%rbp),%edx
   1ad7b:	48 8d 35 b2 11 00 00 	lea    0x11b2(%rip),%rsi        # 1bf34 <g_1906+0xe54>
   1ad82:	48 89 c7             	mov    %rax,%rdi
   1ad85:	e8 69 09 ff ff       	callq  b6f3 <transparent_crc>
   1ad8a:	83 7d fc 00          	cmpl   $0x0,-0x4(%rbp)
   1ad8e:	74 1c                	je     1adac <main+0x2530>
   1ad90:	8b 4d f8             	mov    -0x8(%rbp),%ecx
   1ad93:	8b 55 f4             	mov    -0xc(%rbp),%edx
   1ad96:	8b 45 f0             	mov    -0x10(%rbp),%eax
   1ad99:	89 c6                	mov    %eax,%esi
   1ad9b:	48 8d 3d 67 10 00 00 	lea    0x1067(%rip),%rdi        # 1be09 <g_1906+0xd29>
   1ada2:	b8 00 00 00 00       	mov    $0x0,%eax
   1ada7:	e8 d4 f2 fe ff       	callq  a080 <printf@plt>
   1adac:	83 45 f8 01          	addl   $0x1,-0x8(%rbp)
   1adb0:	83 7d f8 04          	cmpl   $0x4,-0x8(%rbp)
   1adb4:	0f 8e 29 ff ff ff    	jle    1ace3 <main+0x2467>
   1adba:	83 45 f4 01          	addl   $0x1,-0xc(%rbp)
   1adbe:	83 7d f4 05          	cmpl   $0x5,-0xc(%rbp)
   1adc2:	0f 8e 0f ff ff ff    	jle    1acd7 <main+0x245b>
   1adc8:	83 45 f0 01          	addl   $0x1,-0x10(%rbp)
   1adcc:	83 7d f0 07          	cmpl   $0x7,-0x10(%rbp)
   1add0:	0f 8e f5 fe ff ff    	jle    1accb <main+0x244f>
   1add6:	8b 05 44 42 00 00    	mov    0x4244(%rip),%eax        # 1f020 <crc32_context>
   1addc:	f7 d0                	not    %eax
   1adde:	89 c2                	mov    %eax,%edx
   1ade0:	8b 45 fc             	mov    -0x4(%rbp),%eax
   1ade3:	89 c6                	mov    %eax,%esi
   1ade5:	89 d7                	mov    %edx,%edi
   1ade7:	e8 a8 f3 fe ff       	callq  a194 <platform_main_end>
   1adec:	b8 00 00 00 00       	mov    $0x0,%eax
   1adf1:	c9                   	leaveq 
   1adf2:	c3                   	retq   
   1adf3:	66 2e 0f 1f 84 00 00 	nopw   %cs:0x0(%rax,%rax,1)
   1adfa:	00 00 00 
   1adfd:	0f 1f 00             	nopl   (%rax)

000000000001ae00 <__libc_csu_init>:
   1ae00:	f3 0f 1e fa          	endbr64 
   1ae04:	41 57                	push   %r15
   1ae06:	4c 8d 3d a3 38 00 00 	lea    0x38a3(%rip),%r15        # 1e6b0 <__frame_dummy_init_array_entry>
   1ae0d:	41 56                	push   %r14
   1ae0f:	49 89 d6             	mov    %rdx,%r14
   1ae12:	41 55                	push   %r13
   1ae14:	49 89 f5             	mov    %rsi,%r13
   1ae17:	41 54                	push   %r12
   1ae19:	41 89 fc             	mov    %edi,%r12d
   1ae1c:	55                   	push   %rbp
   1ae1d:	48 8d 2d 94 38 00 00 	lea    0x3894(%rip),%rbp        # 1e6b8 <__do_global_dtors_aux_fini_array_entry>
   1ae24:	53                   	push   %rbx
   1ae25:	4c 29 fd             	sub    %r15,%rbp
   1ae28:	48 83 ec 08          	sub    $0x8,%rsp
   1ae2c:	e8 cf f1 fe ff       	callq  a000 <_init>
   1ae31:	48 c1 fd 03          	sar    $0x3,%rbp
   1ae35:	74 1f                	je     1ae56 <__libc_csu_init+0x56>
   1ae37:	31 db                	xor    %ebx,%ebx
   1ae39:	0f 1f 80 00 00 00 00 	nopl   0x0(%rax)
   1ae40:	4c 89 f2             	mov    %r14,%rdx
   1ae43:	4c 89 ee             	mov    %r13,%rsi
   1ae46:	44 89 e7             	mov    %r12d,%edi
   1ae49:	41 ff 14 df          	callq  *(%r15,%rbx,8)
   1ae4d:	48 83 c3 01          	add    $0x1,%rbx
   1ae51:	48 39 dd             	cmp    %rbx,%rbp
   1ae54:	75 ea                	jne    1ae40 <__libc_csu_init+0x40>
   1ae56:	48 83 c4 08          	add    $0x8,%rsp
   1ae5a:	5b                   	pop    %rbx
   1ae5b:	5d                   	pop    %rbp
   1ae5c:	41 5c                	pop    %r12
   1ae5e:	41 5d                	pop    %r13
   1ae60:	41 5e                	pop    %r14
   1ae62:	41 5f                	pop    %r15
   1ae64:	c3                   	retq   
   1ae65:	66 66 2e 0f 1f 84 00 	data16 nopw %cs:0x0(%rax,%rax,1)
   1ae6c:	00 00 00 00 

000000000001ae70 <__libc_csu_fini>:
   1ae70:	f3 0f 1e fa          	endbr64 
   1ae74:	c3                   	retq   
