


Disassembly of section .text:

00000000000040a0 <_start>:
    40a0:	f3 0f 1e fa          	endbr64 
    40a4:	31 ed                	xor    %ebp,%ebp
    40a6:	49 89 d1             	mov    %rdx,%r9
    40a9:	5e                   	pop    %rsi
    40aa:	48 89 e2             	mov    %rsp,%rdx
    40ad:	48 83 e4 f0          	and    $0xfffffffffffffff0,%rsp
    40b1:	50                   	push   %rax
    40b2:	54                   	push   %rsp
    40b3:	4c 8d 05 16 7b 00 00 	lea    0x7b16(%rip),%r8        # bbd0 <__libc_csu_fini>
    40ba:	48 8d 0d 9f 7a 00 00 	lea    0x7a9f(%rip),%rcx        # bb60 <__libc_csu_init>
    40c1:	48 8d 3d 39 62 00 00 	lea    0x6239(%rip),%rdi        # a301 <main>
    40c8:	ff 15 12 cf 00 00    	callq  *0xcf12(%rip)        # 10fe0 <__libc_start_main@GLIBC_2.2.5>
    40ce:	f4                   	hlt    
    40cf:	90                   	nop

00000000000040d0 <deregister_tm_clones>:
    40d0:	48 8d 3d 69 f0 00 00 	lea    0xf069(%rip),%rdi        # 13140 <__TMC_END__>
    40d7:	48 8d 05 62 f0 00 00 	lea    0xf062(%rip),%rax        # 13140 <__TMC_END__>
    40de:	48 39 f8             	cmp    %rdi,%rax
    40e1:	74 15                	je     40f8 <deregister_tm_clones+0x28>
    40e3:	48 8b 05 ee ce 00 00 	mov    0xceee(%rip),%rax        # 10fd8 <_ITM_deregisterTMCloneTable>
    40ea:	48 85 c0             	test   %rax,%rax
    40ed:	74 09                	je     40f8 <deregister_tm_clones+0x28>
    40ef:	ff e0                	jmpq   *%rax
    40f1:	0f 1f 80 00 00 00 00 	nopl   0x0(%rax)
    40f8:	c3                   	retq   
    40f9:	0f 1f 80 00 00 00 00 	nopl   0x0(%rax)

0000000000004100 <register_tm_clones>:
    4100:	48 8d 3d 39 f0 00 00 	lea    0xf039(%rip),%rdi        # 13140 <__TMC_END__>
    4107:	48 8d 35 32 f0 00 00 	lea    0xf032(%rip),%rsi        # 13140 <__TMC_END__>
    410e:	48 29 fe             	sub    %rdi,%rsi
    4111:	48 89 f0             	mov    %rsi,%rax
    4114:	48 c1 ee 3f          	shr    $0x3f,%rsi
    4118:	48 c1 f8 03          	sar    $0x3,%rax
    411c:	48 01 c6             	add    %rax,%rsi
    411f:	48 d1 fe             	sar    %rsi
    4122:	74 14                	je     4138 <register_tm_clones+0x38>
    4124:	48 8b 05 c5 ce 00 00 	mov    0xcec5(%rip),%rax        # 10ff0 <_ITM_registerTMCloneTable>
    412b:	48 85 c0             	test   %rax,%rax
    412e:	74 08                	je     4138 <register_tm_clones+0x38>
    4130:	ff e0                	jmpq   *%rax
    4132:	66 0f 1f 44 00 00    	nopw   0x0(%rax,%rax,1)
    4138:	c3                   	retq   
    4139:	0f 1f 80 00 00 00 00 	nopl   0x0(%rax)

0000000000004140 <__do_global_dtors_aux>:
    4140:	f3 0f 1e fa          	endbr64 
    4144:	80 3d f5 ef 00 00 00 	cmpb   $0x0,0xeff5(%rip)        # 13140 <__TMC_END__>
    414b:	75 2b                	jne    4178 <__do_global_dtors_aux+0x38>
    414d:	55                   	push   %rbp
    414e:	48 83 3d a2 ce 00 00 	cmpq   $0x0,0xcea2(%rip)        # 10ff8 <__cxa_finalize@GLIBC_2.2.5>
    4155:	00 
    4156:	48 89 e5             	mov    %rsp,%rbp
    4159:	74 0c                	je     4167 <__do_global_dtors_aux+0x27>
    415b:	48 8b 3d a6 ce 00 00 	mov    0xcea6(%rip),%rdi        # 11008 <__dso_handle>
    4162:	e8 f9 fe ff ff       	callq  4060 <__cxa_finalize@plt>
    4167:	e8 64 ff ff ff       	callq  40d0 <deregister_tm_clones>
    416c:	c6 05 cd ef 00 00 01 	movb   $0x1,0xefcd(%rip)        # 13140 <__TMC_END__>
    4173:	5d                   	pop    %rbp
    4174:	c3                   	retq   
    4175:	0f 1f 00             	nopl   (%rax)
    4178:	c3                   	retq   
    4179:	0f 1f 80 00 00 00 00 	nopl   0x0(%rax)

0000000000004180 <frame_dummy>:
    4180:	f3 0f 1e fa          	endbr64 
    4184:	e9 77 ff ff ff       	jmpq   4100 <register_tm_clones>

0000000000004189 <platform_main_begin>:
    4189:	f3 0f 1e fa          	endbr64 
    418d:	55                   	push   %rbp
    418e:	48 89 e5             	mov    %rsp,%rbp
    4191:	90                   	nop
    4192:	5d                   	pop    %rbp
    4193:	c3                   	retq   

0000000000004194 <platform_main_end>:
    4194:	f3 0f 1e fa          	endbr64 
    4198:	55                   	push   %rbp
    4199:	48 89 e5             	mov    %rsp,%rbp
    419c:	48 83 ec 10          	sub    $0x10,%rsp
    41a0:	89 7d fc             	mov    %edi,-0x4(%rbp)
    41a3:	89 75 f8             	mov    %esi,-0x8(%rbp)
    41a6:	8b 45 fc             	mov    -0x4(%rbp),%eax
    41a9:	89 c6                	mov    %eax,%esi
    41ab:	48 8d 3d 6e 7e 00 00 	lea    0x7e6e(%rip),%rdi        # c020 <_IO_stdin_used+0x20>
    41b2:	b8 00 00 00 00       	mov    $0x0,%eax
    41b7:	e8 c4 fe ff ff       	callq  4080 <printf@plt>
    41bc:	90                   	nop
    41bd:	c9                   	leaveq 
    41be:	c3                   	retq   

00000000000041bf <safe_unary_minus_func_int8_t_s>:
    41bf:	f3 0f 1e fa          	endbr64 
    41c3:	55                   	push   %rbp
    41c4:	48 89 e5             	mov    %rsp,%rbp
    41c7:	89 f8                	mov    %edi,%eax
    41c9:	88 45 fc             	mov    %al,-0x4(%rbp)
    41cc:	0f b6 45 fc          	movzbl -0x4(%rbp),%eax
    41d0:	f7 d8                	neg    %eax
    41d2:	5d                   	pop    %rbp
    41d3:	c3                   	retq   

00000000000041d4 <safe_add_func_int8_t_s_s>:
    41d4:	f3 0f 1e fa          	endbr64 
    41d8:	55                   	push   %rbp
    41d9:	48 89 e5             	mov    %rsp,%rbp
    41dc:	89 fa                	mov    %edi,%edx
    41de:	89 f0                	mov    %esi,%eax
    41e0:	88 55 fc             	mov    %dl,-0x4(%rbp)
    41e3:	88 45 f8             	mov    %al,-0x8(%rbp)
    41e6:	0f b6 55 fc          	movzbl -0x4(%rbp),%edx
    41ea:	0f b6 45 f8          	movzbl -0x8(%rbp),%eax
    41ee:	01 d0                	add    %edx,%eax
    41f0:	5d                   	pop    %rbp
    41f1:	c3                   	retq   

00000000000041f2 <safe_sub_func_int8_t_s_s>:
    41f2:	f3 0f 1e fa          	endbr64 
    41f6:	55                   	push   %rbp
    41f7:	48 89 e5             	mov    %rsp,%rbp
    41fa:	89 fa                	mov    %edi,%edx
    41fc:	89 f0                	mov    %esi,%eax
    41fe:	88 55 fc             	mov    %dl,-0x4(%rbp)
    4201:	88 45 f8             	mov    %al,-0x8(%rbp)
    4204:	0f b6 55 fc          	movzbl -0x4(%rbp),%edx
    4208:	0f b6 45 f8          	movzbl -0x8(%rbp),%eax
    420c:	29 c2                	sub    %eax,%edx
    420e:	89 d0                	mov    %edx,%eax
    4210:	5d                   	pop    %rbp
    4211:	c3                   	retq   

0000000000004212 <safe_mul_func_int8_t_s_s>:
    4212:	f3 0f 1e fa          	endbr64 
    4216:	55                   	push   %rbp
    4217:	48 89 e5             	mov    %rsp,%rbp
    421a:	89 fa                	mov    %edi,%edx
    421c:	89 f0                	mov    %esi,%eax
    421e:	88 55 fc             	mov    %dl,-0x4(%rbp)
    4221:	88 45 f8             	mov    %al,-0x8(%rbp)
    4224:	0f b6 45 fc          	movzbl -0x4(%rbp),%eax
    4228:	0f b6 55 f8          	movzbl -0x8(%rbp),%edx
    422c:	0f af c2             	imul   %edx,%eax
    422f:	5d                   	pop    %rbp
    4230:	c3                   	retq   

0000000000004231 <safe_mod_func_int8_t_s_s>:
    4231:	f3 0f 1e fa          	endbr64 
    4235:	55                   	push   %rbp
    4236:	48 89 e5             	mov    %rsp,%rbp
    4239:	89 fa                	mov    %edi,%edx
    423b:	89 f0                	mov    %esi,%eax
    423d:	88 55 fc             	mov    %dl,-0x4(%rbp)
    4240:	88 45 f8             	mov    %al,-0x8(%rbp)
    4243:	80 7d f8 00          	cmpb   $0x0,-0x8(%rbp)
    4247:	74 1b                	je     4264 <safe_mod_func_int8_t_s_s+0x33>
    4249:	80 7d fc 80          	cmpb   $0x80,-0x4(%rbp)
    424d:	75 06                	jne    4255 <safe_mod_func_int8_t_s_s+0x24>
    424f:	80 7d f8 ff          	cmpb   $0xff,-0x8(%rbp)
    4253:	74 0f                	je     4264 <safe_mod_func_int8_t_s_s+0x33>
    4255:	0f be 45 fc          	movsbl -0x4(%rbp),%eax
    4259:	0f be 4d f8          	movsbl -0x8(%rbp),%ecx
    425d:	99                   	cltd   
    425e:	f7 f9                	idiv   %ecx
    4260:	89 d0                	mov    %edx,%eax
    4262:	eb 04                	jmp    4268 <safe_mod_func_int8_t_s_s+0x37>
    4264:	0f b6 45 fc          	movzbl -0x4(%rbp),%eax
    4268:	5d                   	pop    %rbp
    4269:	c3                   	retq   

000000000000426a <safe_div_func_int8_t_s_s>:
    426a:	f3 0f 1e fa          	endbr64 
    426e:	55                   	push   %rbp
    426f:	48 89 e5             	mov    %rsp,%rbp
    4272:	89 fa                	mov    %edi,%edx
    4274:	89 f0                	mov    %esi,%eax
    4276:	88 55 fc             	mov    %dl,-0x4(%rbp)
    4279:	88 45 f8             	mov    %al,-0x8(%rbp)
    427c:	80 7d f8 00          	cmpb   $0x0,-0x8(%rbp)
    4280:	74 19                	je     429b <safe_div_func_int8_t_s_s+0x31>
    4282:	80 7d fc 80          	cmpb   $0x80,-0x4(%rbp)
    4286:	75 06                	jne    428e <safe_div_func_int8_t_s_s+0x24>
    4288:	80 7d f8 ff          	cmpb   $0xff,-0x8(%rbp)
    428c:	74 0d                	je     429b <safe_div_func_int8_t_s_s+0x31>
    428e:	0f be 45 fc          	movsbl -0x4(%rbp),%eax
    4292:	0f be 4d f8          	movsbl -0x8(%rbp),%ecx
    4296:	99                   	cltd   
    4297:	f7 f9                	idiv   %ecx
    4299:	eb 04                	jmp    429f <safe_div_func_int8_t_s_s+0x35>
    429b:	0f b6 45 fc          	movzbl -0x4(%rbp),%eax
    429f:	5d                   	pop    %rbp
    42a0:	c3                   	retq   

00000000000042a1 <safe_lshift_func_int8_t_s_s>:
    42a1:	f3 0f 1e fa          	endbr64 
    42a5:	55                   	push   %rbp
    42a6:	48 89 e5             	mov    %rsp,%rbp
    42a9:	89 f8                	mov    %edi,%eax
    42ab:	89 75 f8             	mov    %esi,-0x8(%rbp)
    42ae:	88 45 fc             	mov    %al,-0x4(%rbp)
    42b1:	80 7d fc 00          	cmpb   $0x0,-0x4(%rbp)
    42b5:	78 31                	js     42e8 <safe_lshift_func_int8_t_s_s+0x47>
    42b7:	83 7d f8 00          	cmpl   $0x0,-0x8(%rbp)
    42bb:	78 2b                	js     42e8 <safe_lshift_func_int8_t_s_s+0x47>
    42bd:	83 7d f8 1f          	cmpl   $0x1f,-0x8(%rbp)
    42c1:	7f 25                	jg     42e8 <safe_lshift_func_int8_t_s_s+0x47>
    42c3:	0f be 55 fc          	movsbl -0x4(%rbp),%edx
    42c7:	8b 45 f8             	mov    -0x8(%rbp),%eax
    42ca:	be 7f 00 00 00       	mov    $0x7f,%esi
    42cf:	89 c1                	mov    %eax,%ecx
    42d1:	d3 fe                	sar    %cl,%esi
    42d3:	89 f0                	mov    %esi,%eax
    42d5:	39 c2                	cmp    %eax,%edx
    42d7:	7f 0f                	jg     42e8 <safe_lshift_func_int8_t_s_s+0x47>
    42d9:	0f be 55 fc          	movsbl -0x4(%rbp),%edx
    42dd:	8b 45 f8             	mov    -0x8(%rbp),%eax
    42e0:	89 c1                	mov    %eax,%ecx
    42e2:	d3 e2                	shl    %cl,%edx
    42e4:	89 d0                	mov    %edx,%eax
    42e6:	eb 04                	jmp    42ec <safe_lshift_func_int8_t_s_s+0x4b>
    42e8:	0f b6 45 fc          	movzbl -0x4(%rbp),%eax
    42ec:	5d                   	pop    %rbp
    42ed:	c3                   	retq   

00000000000042ee <safe_lshift_func_int8_t_s_u>:
    42ee:	f3 0f 1e fa          	endbr64 
    42f2:	55                   	push   %rbp
    42f3:	48 89 e5             	mov    %rsp,%rbp
    42f6:	89 f8                	mov    %edi,%eax
    42f8:	89 75 f8             	mov    %esi,-0x8(%rbp)
    42fb:	88 45 fc             	mov    %al,-0x4(%rbp)
    42fe:	80 7d fc 00          	cmpb   $0x0,-0x4(%rbp)
    4302:	78 2b                	js     432f <safe_lshift_func_int8_t_s_u+0x41>
    4304:	83 7d f8 1f          	cmpl   $0x1f,-0x8(%rbp)
    4308:	77 25                	ja     432f <safe_lshift_func_int8_t_s_u+0x41>
    430a:	0f be 55 fc          	movsbl -0x4(%rbp),%edx
    430e:	8b 45 f8             	mov    -0x8(%rbp),%eax
    4311:	be 7f 00 00 00       	mov    $0x7f,%esi
    4316:	89 c1                	mov    %eax,%ecx
    4318:	d3 fe                	sar    %cl,%esi
    431a:	89 f0                	mov    %esi,%eax
    431c:	39 c2                	cmp    %eax,%edx
    431e:	7f 0f                	jg     432f <safe_lshift_func_int8_t_s_u+0x41>
    4320:	0f be 55 fc          	movsbl -0x4(%rbp),%edx
    4324:	8b 45 f8             	mov    -0x8(%rbp),%eax
    4327:	89 c1                	mov    %eax,%ecx
    4329:	d3 e2                	shl    %cl,%edx
    432b:	89 d0                	mov    %edx,%eax
    432d:	eb 04                	jmp    4333 <safe_lshift_func_int8_t_s_u+0x45>
    432f:	0f b6 45 fc          	movzbl -0x4(%rbp),%eax
    4333:	5d                   	pop    %rbp
    4334:	c3                   	retq   

0000000000004335 <safe_rshift_func_int8_t_s_s>:
    4335:	f3 0f 1e fa          	endbr64 
    4339:	55                   	push   %rbp
    433a:	48 89 e5             	mov    %rsp,%rbp
    433d:	89 f8                	mov    %edi,%eax
    433f:	89 75 f8             	mov    %esi,-0x8(%rbp)
    4342:	88 45 fc             	mov    %al,-0x4(%rbp)
    4345:	80 7d fc 00          	cmpb   $0x0,-0x4(%rbp)
    4349:	78 1b                	js     4366 <safe_rshift_func_int8_t_s_s+0x31>
    434b:	83 7d f8 00          	cmpl   $0x0,-0x8(%rbp)
    434f:	78 15                	js     4366 <safe_rshift_func_int8_t_s_s+0x31>
    4351:	83 7d f8 1f          	cmpl   $0x1f,-0x8(%rbp)
    4355:	7f 0f                	jg     4366 <safe_rshift_func_int8_t_s_s+0x31>
    4357:	0f be 55 fc          	movsbl -0x4(%rbp),%edx
    435b:	8b 45 f8             	mov    -0x8(%rbp),%eax
    435e:	89 c1                	mov    %eax,%ecx
    4360:	d3 fa                	sar    %cl,%edx
    4362:	89 d0                	mov    %edx,%eax
    4364:	eb 04                	jmp    436a <safe_rshift_func_int8_t_s_s+0x35>
    4366:	0f b6 45 fc          	movzbl -0x4(%rbp),%eax
    436a:	5d                   	pop    %rbp
    436b:	c3                   	retq   

000000000000436c <safe_rshift_func_int8_t_s_u>:
    436c:	f3 0f 1e fa          	endbr64 
    4370:	55                   	push   %rbp
    4371:	48 89 e5             	mov    %rsp,%rbp
    4374:	89 f8                	mov    %edi,%eax
    4376:	89 75 f8             	mov    %esi,-0x8(%rbp)
    4379:	88 45 fc             	mov    %al,-0x4(%rbp)
    437c:	80 7d fc 00          	cmpb   $0x0,-0x4(%rbp)
    4380:	78 15                	js     4397 <safe_rshift_func_int8_t_s_u+0x2b>
    4382:	83 7d f8 1f          	cmpl   $0x1f,-0x8(%rbp)
    4386:	77 0f                	ja     4397 <safe_rshift_func_int8_t_s_u+0x2b>
    4388:	0f be 55 fc          	movsbl -0x4(%rbp),%edx
    438c:	8b 45 f8             	mov    -0x8(%rbp),%eax
    438f:	89 c1                	mov    %eax,%ecx
    4391:	d3 fa                	sar    %cl,%edx
    4393:	89 d0                	mov    %edx,%eax
    4395:	eb 04                	jmp    439b <safe_rshift_func_int8_t_s_u+0x2f>
    4397:	0f b6 45 fc          	movzbl -0x4(%rbp),%eax
    439b:	5d                   	pop    %rbp
    439c:	c3                   	retq   

000000000000439d <safe_unary_minus_func_int16_t_s>:
    439d:	f3 0f 1e fa          	endbr64 
    43a1:	55                   	push   %rbp
    43a2:	48 89 e5             	mov    %rsp,%rbp
    43a5:	89 f8                	mov    %edi,%eax
    43a7:	66 89 45 fc          	mov    %ax,-0x4(%rbp)
    43ab:	0f b7 45 fc          	movzwl -0x4(%rbp),%eax
    43af:	f7 d8                	neg    %eax
    43b1:	5d                   	pop    %rbp
    43b2:	c3                   	retq   

00000000000043b3 <safe_add_func_int16_t_s_s>:
    43b3:	f3 0f 1e fa          	endbr64 
    43b7:	55                   	push   %rbp
    43b8:	48 89 e5             	mov    %rsp,%rbp
    43bb:	89 fa                	mov    %edi,%edx
    43bd:	89 f0                	mov    %esi,%eax
    43bf:	66 89 55 fc          	mov    %dx,-0x4(%rbp)
    43c3:	66 89 45 f8          	mov    %ax,-0x8(%rbp)
    43c7:	0f b7 55 fc          	movzwl -0x4(%rbp),%edx
    43cb:	0f b7 45 f8          	movzwl -0x8(%rbp),%eax
    43cf:	01 d0                	add    %edx,%eax
    43d1:	5d                   	pop    %rbp
    43d2:	c3                   	retq   

00000000000043d3 <safe_sub_func_int16_t_s_s>:
    43d3:	f3 0f 1e fa          	endbr64 
    43d7:	55                   	push   %rbp
    43d8:	48 89 e5             	mov    %rsp,%rbp
    43db:	89 fa                	mov    %edi,%edx
    43dd:	89 f0                	mov    %esi,%eax
    43df:	66 89 55 fc          	mov    %dx,-0x4(%rbp)
    43e3:	66 89 45 f8          	mov    %ax,-0x8(%rbp)
    43e7:	0f b7 55 fc          	movzwl -0x4(%rbp),%edx
    43eb:	0f b7 45 f8          	movzwl -0x8(%rbp),%eax
    43ef:	29 c2                	sub    %eax,%edx
    43f1:	89 d0                	mov    %edx,%eax
    43f3:	5d                   	pop    %rbp
    43f4:	c3                   	retq   

00000000000043f5 <safe_mul_func_int16_t_s_s>:
    43f5:	f3 0f 1e fa          	endbr64 
    43f9:	55                   	push   %rbp
    43fa:	48 89 e5             	mov    %rsp,%rbp
    43fd:	89 fa                	mov    %edi,%edx
    43ff:	89 f0                	mov    %esi,%eax
    4401:	66 89 55 fc          	mov    %dx,-0x4(%rbp)
    4405:	66 89 45 f8          	mov    %ax,-0x8(%rbp)
    4409:	0f b7 55 fc          	movzwl -0x4(%rbp),%edx
    440d:	0f b7 45 f8          	movzwl -0x8(%rbp),%eax
    4411:	0f af c2             	imul   %edx,%eax
    4414:	5d                   	pop    %rbp
    4415:	c3                   	retq   

0000000000004416 <safe_mod_func_int16_t_s_s>:
    4416:	f3 0f 1e fa          	endbr64 
    441a:	55                   	push   %rbp
    441b:	48 89 e5             	mov    %rsp,%rbp
    441e:	89 fa                	mov    %edi,%edx
    4420:	89 f0                	mov    %esi,%eax
    4422:	66 89 55 fc          	mov    %dx,-0x4(%rbp)
    4426:	66 89 45 f8          	mov    %ax,-0x8(%rbp)
    442a:	66 83 7d f8 00       	cmpw   $0x0,-0x8(%rbp)
    442f:	74 1e                	je     444f <safe_mod_func_int16_t_s_s+0x39>
    4431:	66 81 7d fc 00 80    	cmpw   $0x8000,-0x4(%rbp)
    4437:	75 07                	jne    4440 <safe_mod_func_int16_t_s_s+0x2a>
    4439:	66 83 7d f8 ff       	cmpw   $0xffff,-0x8(%rbp)
    443e:	74 0f                	je     444f <safe_mod_func_int16_t_s_s+0x39>
    4440:	0f bf 45 fc          	movswl -0x4(%rbp),%eax
    4444:	0f bf 4d f8          	movswl -0x8(%rbp),%ecx
    4448:	99                   	cltd   
    4449:	f7 f9                	idiv   %ecx
    444b:	89 d0                	mov    %edx,%eax
    444d:	eb 04                	jmp    4453 <safe_mod_func_int16_t_s_s+0x3d>
    444f:	0f b7 45 fc          	movzwl -0x4(%rbp),%eax
    4453:	5d                   	pop    %rbp
    4454:	c3                   	retq   

0000000000004455 <safe_div_func_int16_t_s_s>:
    4455:	f3 0f 1e fa          	endbr64 
    4459:	55                   	push   %rbp
    445a:	48 89 e5             	mov    %rsp,%rbp
    445d:	89 fa                	mov    %edi,%edx
    445f:	89 f0                	mov    %esi,%eax
    4461:	66 89 55 fc          	mov    %dx,-0x4(%rbp)
    4465:	66 89 45 f8          	mov    %ax,-0x8(%rbp)
    4469:	66 83 7d f8 00       	cmpw   $0x0,-0x8(%rbp)
    446e:	74 1c                	je     448c <safe_div_func_int16_t_s_s+0x37>
    4470:	66 81 7d fc 00 80    	cmpw   $0x8000,-0x4(%rbp)
    4476:	75 07                	jne    447f <safe_div_func_int16_t_s_s+0x2a>
    4478:	66 83 7d f8 ff       	cmpw   $0xffff,-0x8(%rbp)
    447d:	74 0d                	je     448c <safe_div_func_int16_t_s_s+0x37>
    447f:	0f bf 45 fc          	movswl -0x4(%rbp),%eax
    4483:	0f bf 4d f8          	movswl -0x8(%rbp),%ecx
    4487:	99                   	cltd   
    4488:	f7 f9                	idiv   %ecx
    448a:	eb 04                	jmp    4490 <safe_div_func_int16_t_s_s+0x3b>
    448c:	0f b7 45 fc          	movzwl -0x4(%rbp),%eax
    4490:	5d                   	pop    %rbp
    4491:	c3                   	retq   

0000000000004492 <safe_lshift_func_int16_t_s_s>:
    4492:	f3 0f 1e fa          	endbr64 
    4496:	55                   	push   %rbp
    4497:	48 89 e5             	mov    %rsp,%rbp
    449a:	89 f8                	mov    %edi,%eax
    449c:	89 75 f8             	mov    %esi,-0x8(%rbp)
    449f:	66 89 45 fc          	mov    %ax,-0x4(%rbp)
    44a3:	66 83 7d fc 00       	cmpw   $0x0,-0x4(%rbp)
    44a8:	78 31                	js     44db <safe_lshift_func_int16_t_s_s+0x49>
    44aa:	83 7d f8 00          	cmpl   $0x0,-0x8(%rbp)
    44ae:	78 2b                	js     44db <safe_lshift_func_int16_t_s_s+0x49>
    44b0:	83 7d f8 1f          	cmpl   $0x1f,-0x8(%rbp)
    44b4:	7f 25                	jg     44db <safe_lshift_func_int16_t_s_s+0x49>
    44b6:	0f bf 55 fc          	movswl -0x4(%rbp),%edx
    44ba:	8b 45 f8             	mov    -0x8(%rbp),%eax
    44bd:	be ff 7f 00 00       	mov    $0x7fff,%esi
    44c2:	89 c1                	mov    %eax,%ecx
    44c4:	d3 fe                	sar    %cl,%esi
    44c6:	89 f0                	mov    %esi,%eax
    44c8:	39 c2                	cmp    %eax,%edx
    44ca:	7f 0f                	jg     44db <safe_lshift_func_int16_t_s_s+0x49>
    44cc:	0f bf 55 fc          	movswl -0x4(%rbp),%edx
    44d0:	8b 45 f8             	mov    -0x8(%rbp),%eax
    44d3:	89 c1                	mov    %eax,%ecx
    44d5:	d3 e2                	shl    %cl,%edx
    44d7:	89 d0                	mov    %edx,%eax
    44d9:	eb 04                	jmp    44df <safe_lshift_func_int16_t_s_s+0x4d>
    44db:	0f b7 45 fc          	movzwl -0x4(%rbp),%eax
    44df:	5d                   	pop    %rbp
    44e0:	c3                   	retq   

00000000000044e1 <safe_lshift_func_int16_t_s_u>:
    44e1:	f3 0f 1e fa          	endbr64 
    44e5:	55                   	push   %rbp
    44e6:	48 89 e5             	mov    %rsp,%rbp
    44e9:	89 f8                	mov    %edi,%eax
    44eb:	89 75 f8             	mov    %esi,-0x8(%rbp)
    44ee:	66 89 45 fc          	mov    %ax,-0x4(%rbp)
    44f2:	66 83 7d fc 00       	cmpw   $0x0,-0x4(%rbp)
    44f7:	78 2b                	js     4524 <safe_lshift_func_int16_t_s_u+0x43>
    44f9:	83 7d f8 1f          	cmpl   $0x1f,-0x8(%rbp)
    44fd:	77 25                	ja     4524 <safe_lshift_func_int16_t_s_u+0x43>
    44ff:	0f bf 55 fc          	movswl -0x4(%rbp),%edx
    4503:	8b 45 f8             	mov    -0x8(%rbp),%eax
    4506:	be ff 7f 00 00       	mov    $0x7fff,%esi
    450b:	89 c1                	mov    %eax,%ecx
    450d:	d3 fe                	sar    %cl,%esi
    450f:	89 f0                	mov    %esi,%eax
    4511:	39 c2                	cmp    %eax,%edx
    4513:	7f 0f                	jg     4524 <safe_lshift_func_int16_t_s_u+0x43>
    4515:	0f bf 55 fc          	movswl -0x4(%rbp),%edx
    4519:	8b 45 f8             	mov    -0x8(%rbp),%eax
    451c:	89 c1                	mov    %eax,%ecx
    451e:	d3 e2                	shl    %cl,%edx
    4520:	89 d0                	mov    %edx,%eax
    4522:	eb 04                	jmp    4528 <safe_lshift_func_int16_t_s_u+0x47>
    4524:	0f b7 45 fc          	movzwl -0x4(%rbp),%eax
    4528:	5d                   	pop    %rbp
    4529:	c3                   	retq   

000000000000452a <safe_rshift_func_int16_t_s_s>:
    452a:	f3 0f 1e fa          	endbr64 
    452e:	55                   	push   %rbp
    452f:	48 89 e5             	mov    %rsp,%rbp
    4532:	89 f8                	mov    %edi,%eax
    4534:	89 75 f8             	mov    %esi,-0x8(%rbp)
    4537:	66 89 45 fc          	mov    %ax,-0x4(%rbp)
    453b:	66 83 7d fc 00       	cmpw   $0x0,-0x4(%rbp)
    4540:	78 1b                	js     455d <safe_rshift_func_int16_t_s_s+0x33>
    4542:	83 7d f8 00          	cmpl   $0x0,-0x8(%rbp)
    4546:	78 15                	js     455d <safe_rshift_func_int16_t_s_s+0x33>
    4548:	83 7d f8 1f          	cmpl   $0x1f,-0x8(%rbp)
    454c:	7f 0f                	jg     455d <safe_rshift_func_int16_t_s_s+0x33>
    454e:	0f bf 55 fc          	movswl -0x4(%rbp),%edx
    4552:	8b 45 f8             	mov    -0x8(%rbp),%eax
    4555:	89 c1                	mov    %eax,%ecx
    4557:	d3 fa                	sar    %cl,%edx
    4559:	89 d0                	mov    %edx,%eax
    455b:	eb 04                	jmp    4561 <safe_rshift_func_int16_t_s_s+0x37>
    455d:	0f b7 45 fc          	movzwl -0x4(%rbp),%eax
    4561:	5d                   	pop    %rbp
    4562:	c3                   	retq   

0000000000004563 <safe_rshift_func_int16_t_s_u>:
    4563:	f3 0f 1e fa          	endbr64 
    4567:	55                   	push   %rbp
    4568:	48 89 e5             	mov    %rsp,%rbp
    456b:	89 f8                	mov    %edi,%eax
    456d:	89 75 f8             	mov    %esi,-0x8(%rbp)
    4570:	66 89 45 fc          	mov    %ax,-0x4(%rbp)
    4574:	66 83 7d fc 00       	cmpw   $0x0,-0x4(%rbp)
    4579:	78 15                	js     4590 <safe_rshift_func_int16_t_s_u+0x2d>
    457b:	83 7d f8 1f          	cmpl   $0x1f,-0x8(%rbp)
    457f:	77 0f                	ja     4590 <safe_rshift_func_int16_t_s_u+0x2d>
    4581:	0f bf 55 fc          	movswl -0x4(%rbp),%edx
    4585:	8b 45 f8             	mov    -0x8(%rbp),%eax
    4588:	89 c1                	mov    %eax,%ecx
    458a:	d3 fa                	sar    %cl,%edx
    458c:	89 d0                	mov    %edx,%eax
    458e:	eb 04                	jmp    4594 <safe_rshift_func_int16_t_s_u+0x31>
    4590:	0f b7 45 fc          	movzwl -0x4(%rbp),%eax
    4594:	5d                   	pop    %rbp
    4595:	c3                   	retq   

0000000000004596 <safe_unary_minus_func_int32_t_s>:
    4596:	f3 0f 1e fa          	endbr64 
    459a:	55                   	push   %rbp
    459b:	48 89 e5             	mov    %rsp,%rbp
    459e:	89 7d fc             	mov    %edi,-0x4(%rbp)
    45a1:	81 7d fc 00 00 00 80 	cmpl   $0x80000000,-0x4(%rbp)
    45a8:	74 07                	je     45b1 <safe_unary_minus_func_int32_t_s+0x1b>
    45aa:	8b 45 fc             	mov    -0x4(%rbp),%eax
    45ad:	f7 d8                	neg    %eax
    45af:	eb 03                	jmp    45b4 <safe_unary_minus_func_int32_t_s+0x1e>
    45b1:	8b 45 fc             	mov    -0x4(%rbp),%eax
    45b4:	5d                   	pop    %rbp
    45b5:	c3                   	retq   

00000000000045b6 <safe_add_func_int32_t_s_s>:
    45b6:	f3 0f 1e fa          	endbr64 
    45ba:	55                   	push   %rbp
    45bb:	48 89 e5             	mov    %rsp,%rbp
    45be:	89 7d fc             	mov    %edi,-0x4(%rbp)
    45c1:	89 75 f8             	mov    %esi,-0x8(%rbp)
    45c4:	83 7d fc 00          	cmpl   $0x0,-0x4(%rbp)
    45c8:	7e 13                	jle    45dd <safe_add_func_int32_t_s_s+0x27>
    45ca:	83 7d f8 00          	cmpl   $0x0,-0x8(%rbp)
    45ce:	7e 0d                	jle    45dd <safe_add_func_int32_t_s_s+0x27>
    45d0:	b8 ff ff ff 7f       	mov    $0x7fffffff,%eax
    45d5:	2b 45 f8             	sub    -0x8(%rbp),%eax
    45d8:	39 45 fc             	cmp    %eax,-0x4(%rbp)
    45db:	7f 23                	jg     4600 <safe_add_func_int32_t_s_s+0x4a>
    45dd:	83 7d fc 00          	cmpl   $0x0,-0x4(%rbp)
    45e1:	79 13                	jns    45f6 <safe_add_func_int32_t_s_s+0x40>
    45e3:	83 7d f8 00          	cmpl   $0x0,-0x8(%rbp)
    45e7:	79 0d                	jns    45f6 <safe_add_func_int32_t_s_s+0x40>
    45e9:	b8 00 00 00 80       	mov    $0x80000000,%eax
    45ee:	2b 45 f8             	sub    -0x8(%rbp),%eax
    45f1:	39 45 fc             	cmp    %eax,-0x4(%rbp)
    45f4:	7c 0a                	jl     4600 <safe_add_func_int32_t_s_s+0x4a>
    45f6:	8b 55 fc             	mov    -0x4(%rbp),%edx
    45f9:	8b 45 f8             	mov    -0x8(%rbp),%eax
    45fc:	01 d0                	add    %edx,%eax
    45fe:	eb 03                	jmp    4603 <safe_add_func_int32_t_s_s+0x4d>
    4600:	8b 45 fc             	mov    -0x4(%rbp),%eax
    4603:	5d                   	pop    %rbp
    4604:	c3                   	retq   

0000000000004605 <safe_sub_func_int32_t_s_s>:
    4605:	f3 0f 1e fa          	endbr64 
    4609:	55                   	push   %rbp
    460a:	48 89 e5             	mov    %rsp,%rbp
    460d:	89 7d fc             	mov    %edi,-0x4(%rbp)
    4610:	89 75 f8             	mov    %esi,-0x8(%rbp)
    4613:	8b 45 fc             	mov    -0x4(%rbp),%eax
    4616:	33 45 f8             	xor    -0x8(%rbp),%eax
    4619:	89 c2                	mov    %eax,%edx
    461b:	8b 45 fc             	mov    -0x4(%rbp),%eax
    461e:	33 45 f8             	xor    -0x8(%rbp),%eax
    4621:	25 00 00 00 80       	and    $0x80000000,%eax
    4626:	33 45 fc             	xor    -0x4(%rbp),%eax
    4629:	2b 45 f8             	sub    -0x8(%rbp),%eax
    462c:	33 45 f8             	xor    -0x8(%rbp),%eax
    462f:	21 d0                	and    %edx,%eax
    4631:	85 c0                	test   %eax,%eax
    4633:	78 08                	js     463d <safe_sub_func_int32_t_s_s+0x38>
    4635:	8b 45 fc             	mov    -0x4(%rbp),%eax
    4638:	2b 45 f8             	sub    -0x8(%rbp),%eax
    463b:	eb 03                	jmp    4640 <safe_sub_func_int32_t_s_s+0x3b>
    463d:	8b 45 fc             	mov    -0x4(%rbp),%eax
    4640:	5d                   	pop    %rbp
    4641:	c3                   	retq   

0000000000004642 <safe_mul_func_int32_t_s_s>:
    4642:	f3 0f 1e fa          	endbr64 
    4646:	55                   	push   %rbp
    4647:	48 89 e5             	mov    %rsp,%rbp
    464a:	89 7d fc             	mov    %edi,-0x4(%rbp)
    464d:	89 75 f8             	mov    %esi,-0x8(%rbp)
    4650:	83 7d fc 00          	cmpl   $0x0,-0x4(%rbp)
    4654:	7e 14                	jle    466a <safe_mul_func_int32_t_s_s+0x28>
    4656:	83 7d f8 00          	cmpl   $0x0,-0x8(%rbp)
    465a:	7e 0e                	jle    466a <safe_mul_func_int32_t_s_s+0x28>
    465c:	b8 ff ff ff 7f       	mov    $0x7fffffff,%eax
    4661:	99                   	cltd   
    4662:	f7 7d f8             	idivl  -0x8(%rbp)
    4665:	39 45 fc             	cmp    %eax,-0x4(%rbp)
    4668:	7f 5d                	jg     46c7 <safe_mul_func_int32_t_s_s+0x85>
    466a:	83 7d fc 00          	cmpl   $0x0,-0x4(%rbp)
    466e:	7e 14                	jle    4684 <safe_mul_func_int32_t_s_s+0x42>
    4670:	83 7d f8 00          	cmpl   $0x0,-0x8(%rbp)
    4674:	7f 0e                	jg     4684 <safe_mul_func_int32_t_s_s+0x42>
    4676:	b8 00 00 00 80       	mov    $0x80000000,%eax
    467b:	99                   	cltd   
    467c:	f7 7d fc             	idivl  -0x4(%rbp)
    467f:	39 45 f8             	cmp    %eax,-0x8(%rbp)
    4682:	7c 43                	jl     46c7 <safe_mul_func_int32_t_s_s+0x85>
    4684:	83 7d fc 00          	cmpl   $0x0,-0x4(%rbp)
    4688:	7f 14                	jg     469e <safe_mul_func_int32_t_s_s+0x5c>
    468a:	83 7d f8 00          	cmpl   $0x0,-0x8(%rbp)
    468e:	7e 0e                	jle    469e <safe_mul_func_int32_t_s_s+0x5c>
    4690:	b8 00 00 00 80       	mov    $0x80000000,%eax
    4695:	99                   	cltd   
    4696:	f7 7d f8             	idivl  -0x8(%rbp)
    4699:	39 45 fc             	cmp    %eax,-0x4(%rbp)
    469c:	7c 29                	jl     46c7 <safe_mul_func_int32_t_s_s+0x85>
    469e:	83 7d fc 00          	cmpl   $0x0,-0x4(%rbp)
    46a2:	7f 1a                	jg     46be <safe_mul_func_int32_t_s_s+0x7c>
    46a4:	83 7d f8 00          	cmpl   $0x0,-0x8(%rbp)
    46a8:	7f 14                	jg     46be <safe_mul_func_int32_t_s_s+0x7c>
    46aa:	83 7d fc 00          	cmpl   $0x0,-0x4(%rbp)
    46ae:	74 0e                	je     46be <safe_mul_func_int32_t_s_s+0x7c>
    46b0:	b8 ff ff ff 7f       	mov    $0x7fffffff,%eax
    46b5:	99                   	cltd   
    46b6:	f7 7d fc             	idivl  -0x4(%rbp)
    46b9:	39 45 f8             	cmp    %eax,-0x8(%rbp)
    46bc:	7c 09                	jl     46c7 <safe_mul_func_int32_t_s_s+0x85>
    46be:	8b 45 fc             	mov    -0x4(%rbp),%eax
    46c1:	0f af 45 f8          	imul   -0x8(%rbp),%eax
    46c5:	eb 03                	jmp    46ca <safe_mul_func_int32_t_s_s+0x88>
    46c7:	8b 45 fc             	mov    -0x4(%rbp),%eax
    46ca:	5d                   	pop    %rbp
    46cb:	c3                   	retq   

00000000000046cc <safe_mod_func_int32_t_s_s>:
    46cc:	f3 0f 1e fa          	endbr64 
    46d0:	55                   	push   %rbp
    46d1:	48 89 e5             	mov    %rsp,%rbp
    46d4:	89 7d fc             	mov    %edi,-0x4(%rbp)
    46d7:	89 75 f8             	mov    %esi,-0x8(%rbp)
    46da:	83 7d f8 00          	cmpl   $0x0,-0x8(%rbp)
    46de:	74 1a                	je     46fa <safe_mod_func_int32_t_s_s+0x2e>
    46e0:	81 7d fc 00 00 00 80 	cmpl   $0x80000000,-0x4(%rbp)
    46e7:	75 06                	jne    46ef <safe_mod_func_int32_t_s_s+0x23>
    46e9:	83 7d f8 ff          	cmpl   $0xffffffff,-0x8(%rbp)
    46ed:	74 0b                	je     46fa <safe_mod_func_int32_t_s_s+0x2e>
    46ef:	8b 45 fc             	mov    -0x4(%rbp),%eax
    46f2:	99                   	cltd   
    46f3:	f7 7d f8             	idivl  -0x8(%rbp)
    46f6:	89 d0                	mov    %edx,%eax
    46f8:	eb 03                	jmp    46fd <safe_mod_func_int32_t_s_s+0x31>
    46fa:	8b 45 fc             	mov    -0x4(%rbp),%eax
    46fd:	5d                   	pop    %rbp
    46fe:	c3                   	retq   

00000000000046ff <safe_div_func_int32_t_s_s>:
    46ff:	f3 0f 1e fa          	endbr64 
    4703:	55                   	push   %rbp
    4704:	48 89 e5             	mov    %rsp,%rbp
    4707:	89 7d fc             	mov    %edi,-0x4(%rbp)
    470a:	89 75 f8             	mov    %esi,-0x8(%rbp)
    470d:	83 7d f8 00          	cmpl   $0x0,-0x8(%rbp)
    4711:	74 18                	je     472b <safe_div_func_int32_t_s_s+0x2c>
    4713:	81 7d fc 00 00 00 80 	cmpl   $0x80000000,-0x4(%rbp)
    471a:	75 06                	jne    4722 <safe_div_func_int32_t_s_s+0x23>
    471c:	83 7d f8 ff          	cmpl   $0xffffffff,-0x8(%rbp)
    4720:	74 09                	je     472b <safe_div_func_int32_t_s_s+0x2c>
    4722:	8b 45 fc             	mov    -0x4(%rbp),%eax
    4725:	99                   	cltd   
    4726:	f7 7d f8             	idivl  -0x8(%rbp)
    4729:	eb 03                	jmp    472e <safe_div_func_int32_t_s_s+0x2f>
    472b:	8b 45 fc             	mov    -0x4(%rbp),%eax
    472e:	5d                   	pop    %rbp
    472f:	c3                   	retq   

0000000000004730 <safe_lshift_func_int32_t_s_s>:
    4730:	f3 0f 1e fa          	endbr64 
    4734:	55                   	push   %rbp
    4735:	48 89 e5             	mov    %rsp,%rbp
    4738:	89 7d fc             	mov    %edi,-0x4(%rbp)
    473b:	89 75 f8             	mov    %esi,-0x8(%rbp)
    473e:	83 7d fc 00          	cmpl   $0x0,-0x4(%rbp)
    4742:	78 2d                	js     4771 <safe_lshift_func_int32_t_s_s+0x41>
    4744:	83 7d f8 00          	cmpl   $0x0,-0x8(%rbp)
    4748:	78 27                	js     4771 <safe_lshift_func_int32_t_s_s+0x41>
    474a:	83 7d f8 1f          	cmpl   $0x1f,-0x8(%rbp)
    474e:	7f 21                	jg     4771 <safe_lshift_func_int32_t_s_s+0x41>
    4750:	8b 45 f8             	mov    -0x8(%rbp),%eax
    4753:	ba ff ff ff 7f       	mov    $0x7fffffff,%edx
    4758:	89 c1                	mov    %eax,%ecx
    475a:	d3 fa                	sar    %cl,%edx
    475c:	89 d0                	mov    %edx,%eax
    475e:	39 45 fc             	cmp    %eax,-0x4(%rbp)
    4761:	7f 0e                	jg     4771 <safe_lshift_func_int32_t_s_s+0x41>
    4763:	8b 45 f8             	mov    -0x8(%rbp),%eax
    4766:	8b 55 fc             	mov    -0x4(%rbp),%edx
    4769:	89 c1                	mov    %eax,%ecx
    476b:	d3 e2                	shl    %cl,%edx
    476d:	89 d0                	mov    %edx,%eax
    476f:	eb 03                	jmp    4774 <safe_lshift_func_int32_t_s_s+0x44>
    4771:	8b 45 fc             	mov    -0x4(%rbp),%eax
    4774:	5d                   	pop    %rbp
    4775:	c3                   	retq   

0000000000004776 <safe_lshift_func_int32_t_s_u>:
    4776:	f3 0f 1e fa          	endbr64 
    477a:	55                   	push   %rbp
    477b:	48 89 e5             	mov    %rsp,%rbp
    477e:	89 7d fc             	mov    %edi,-0x4(%rbp)
    4781:	89 75 f8             	mov    %esi,-0x8(%rbp)
    4784:	83 7d fc 00          	cmpl   $0x0,-0x4(%rbp)
    4788:	78 27                	js     47b1 <safe_lshift_func_int32_t_s_u+0x3b>
    478a:	83 7d f8 1f          	cmpl   $0x1f,-0x8(%rbp)
    478e:	77 21                	ja     47b1 <safe_lshift_func_int32_t_s_u+0x3b>
    4790:	8b 45 f8             	mov    -0x8(%rbp),%eax
    4793:	ba ff ff ff 7f       	mov    $0x7fffffff,%edx
    4798:	89 c1                	mov    %eax,%ecx
    479a:	d3 fa                	sar    %cl,%edx
    479c:	89 d0                	mov    %edx,%eax
    479e:	39 45 fc             	cmp    %eax,-0x4(%rbp)
    47a1:	7f 0e                	jg     47b1 <safe_lshift_func_int32_t_s_u+0x3b>
    47a3:	8b 45 f8             	mov    -0x8(%rbp),%eax
    47a6:	8b 55 fc             	mov    -0x4(%rbp),%edx
    47a9:	89 c1                	mov    %eax,%ecx
    47ab:	d3 e2                	shl    %cl,%edx
    47ad:	89 d0                	mov    %edx,%eax
    47af:	eb 03                	jmp    47b4 <safe_lshift_func_int32_t_s_u+0x3e>
    47b1:	8b 45 fc             	mov    -0x4(%rbp),%eax
    47b4:	5d                   	pop    %rbp
    47b5:	c3                   	retq   

00000000000047b6 <safe_rshift_func_int32_t_s_s>:
    47b6:	f3 0f 1e fa          	endbr64 
    47ba:	55                   	push   %rbp
    47bb:	48 89 e5             	mov    %rsp,%rbp
    47be:	89 7d fc             	mov    %edi,-0x4(%rbp)
    47c1:	89 75 f8             	mov    %esi,-0x8(%rbp)
    47c4:	83 7d fc 00          	cmpl   $0x0,-0x4(%rbp)
    47c8:	78 1a                	js     47e4 <safe_rshift_func_int32_t_s_s+0x2e>
    47ca:	83 7d f8 00          	cmpl   $0x0,-0x8(%rbp)
    47ce:	78 14                	js     47e4 <safe_rshift_func_int32_t_s_s+0x2e>
    47d0:	83 7d f8 1f          	cmpl   $0x1f,-0x8(%rbp)
    47d4:	7f 0e                	jg     47e4 <safe_rshift_func_int32_t_s_s+0x2e>
    47d6:	8b 45 f8             	mov    -0x8(%rbp),%eax
    47d9:	8b 55 fc             	mov    -0x4(%rbp),%edx
    47dc:	89 c1                	mov    %eax,%ecx
    47de:	d3 fa                	sar    %cl,%edx
    47e0:	89 d0                	mov    %edx,%eax
    47e2:	eb 03                	jmp    47e7 <safe_rshift_func_int32_t_s_s+0x31>
    47e4:	8b 45 fc             	mov    -0x4(%rbp),%eax
    47e7:	5d                   	pop    %rbp
    47e8:	c3                   	retq   

00000000000047e9 <safe_rshift_func_int32_t_s_u>:
    47e9:	f3 0f 1e fa          	endbr64 
    47ed:	55                   	push   %rbp
    47ee:	48 89 e5             	mov    %rsp,%rbp
    47f1:	89 7d fc             	mov    %edi,-0x4(%rbp)
    47f4:	89 75 f8             	mov    %esi,-0x8(%rbp)
    47f7:	83 7d fc 00          	cmpl   $0x0,-0x4(%rbp)
    47fb:	78 14                	js     4811 <safe_rshift_func_int32_t_s_u+0x28>
    47fd:	83 7d f8 1f          	cmpl   $0x1f,-0x8(%rbp)
    4801:	77 0e                	ja     4811 <safe_rshift_func_int32_t_s_u+0x28>
    4803:	8b 45 f8             	mov    -0x8(%rbp),%eax
    4806:	8b 55 fc             	mov    -0x4(%rbp),%edx
    4809:	89 c1                	mov    %eax,%ecx
    480b:	d3 fa                	sar    %cl,%edx
    480d:	89 d0                	mov    %edx,%eax
    480f:	eb 03                	jmp    4814 <safe_rshift_func_int32_t_s_u+0x2b>
    4811:	8b 45 fc             	mov    -0x4(%rbp),%eax
    4814:	5d                   	pop    %rbp
    4815:	c3                   	retq   

0000000000004816 <safe_unary_minus_func_int64_t_s>:
    4816:	f3 0f 1e fa          	endbr64 
    481a:	55                   	push   %rbp
    481b:	48 89 e5             	mov    %rsp,%rbp
    481e:	48 89 7d f8          	mov    %rdi,-0x8(%rbp)
    4822:	48 b8 00 00 00 00 00 	movabs $0x8000000000000000,%rax
    4829:	00 00 80 
    482c:	48 39 45 f8          	cmp    %rax,-0x8(%rbp)
    4830:	74 09                	je     483b <safe_unary_minus_func_int64_t_s+0x25>
    4832:	48 8b 45 f8          	mov    -0x8(%rbp),%rax
    4836:	48 f7 d8             	neg    %rax
    4839:	eb 04                	jmp    483f <safe_unary_minus_func_int64_t_s+0x29>
    483b:	48 8b 45 f8          	mov    -0x8(%rbp),%rax
    483f:	5d                   	pop    %rbp
    4840:	c3                   	retq   

0000000000004841 <safe_add_func_int64_t_s_s>:
    4841:	f3 0f 1e fa          	endbr64 
    4845:	55                   	push   %rbp
    4846:	48 89 e5             	mov    %rsp,%rbp
    4849:	48 89 7d f8          	mov    %rdi,-0x8(%rbp)
    484d:	48 89 75 f0          	mov    %rsi,-0x10(%rbp)
    4851:	48 83 7d f8 00       	cmpq   $0x0,-0x8(%rbp)
    4856:	7e 1b                	jle    4873 <safe_add_func_int64_t_s_s+0x32>
    4858:	48 83 7d f0 00       	cmpq   $0x0,-0x10(%rbp)
    485d:	7e 14                	jle    4873 <safe_add_func_int64_t_s_s+0x32>
    485f:	48 b8 ff ff ff ff ff 	movabs $0x7fffffffffffffff,%rax
    4866:	ff ff 7f 
    4869:	48 2b 45 f0          	sub    -0x10(%rbp),%rax
    486d:	48 39 45 f8          	cmp    %rax,-0x8(%rbp)
    4871:	7f 2f                	jg     48a2 <safe_add_func_int64_t_s_s+0x61>
    4873:	48 83 7d f8 00       	cmpq   $0x0,-0x8(%rbp)
    4878:	79 1b                	jns    4895 <safe_add_func_int64_t_s_s+0x54>
    487a:	48 83 7d f0 00       	cmpq   $0x0,-0x10(%rbp)
    487f:	79 14                	jns    4895 <safe_add_func_int64_t_s_s+0x54>
    4881:	48 b8 00 00 00 00 00 	movabs $0x8000000000000000,%rax
    4888:	00 00 80 
    488b:	48 2b 45 f0          	sub    -0x10(%rbp),%rax
    488f:	48 39 45 f8          	cmp    %rax,-0x8(%rbp)
    4893:	7c 0d                	jl     48a2 <safe_add_func_int64_t_s_s+0x61>
    4895:	48 8b 55 f8          	mov    -0x8(%rbp),%rdx
    4899:	48 8b 45 f0          	mov    -0x10(%rbp),%rax
    489d:	48 01 d0             	add    %rdx,%rax
    48a0:	eb 04                	jmp    48a6 <safe_add_func_int64_t_s_s+0x65>
    48a2:	48 8b 45 f8          	mov    -0x8(%rbp),%rax
    48a6:	5d                   	pop    %rbp
    48a7:	c3                   	retq   

00000000000048a8 <safe_sub_func_int64_t_s_s>:
    48a8:	f3 0f 1e fa          	endbr64 
    48ac:	55                   	push   %rbp
    48ad:	48 89 e5             	mov    %rsp,%rbp
    48b0:	48 89 7d f8          	mov    %rdi,-0x8(%rbp)
    48b4:	48 89 75 f0          	mov    %rsi,-0x10(%rbp)
    48b8:	48 8b 45 f8          	mov    -0x8(%rbp),%rax
    48bc:	48 33 45 f0          	xor    -0x10(%rbp),%rax
    48c0:	48 89 c2             	mov    %rax,%rdx
    48c3:	48 8b 45 f8          	mov    -0x8(%rbp),%rax
    48c7:	48 33 45 f0          	xor    -0x10(%rbp),%rax
    48cb:	48 b9 00 00 00 00 00 	movabs $0x8000000000000000,%rcx
    48d2:	00 00 80 
    48d5:	48 21 c8             	and    %rcx,%rax
    48d8:	48 33 45 f8          	xor    -0x8(%rbp),%rax
    48dc:	48 2b 45 f0          	sub    -0x10(%rbp),%rax
    48e0:	48 33 45 f0          	xor    -0x10(%rbp),%rax
    48e4:	48 21 d0             	and    %rdx,%rax
    48e7:	48 85 c0             	test   %rax,%rax
    48ea:	78 0a                	js     48f6 <safe_sub_func_int64_t_s_s+0x4e>
    48ec:	48 8b 45 f8          	mov    -0x8(%rbp),%rax
    48f0:	48 2b 45 f0          	sub    -0x10(%rbp),%rax
    48f4:	eb 04                	jmp    48fa <safe_sub_func_int64_t_s_s+0x52>
    48f6:	48 8b 45 f8          	mov    -0x8(%rbp),%rax
    48fa:	5d                   	pop    %rbp
    48fb:	c3                   	retq   

00000000000048fc <safe_mul_func_int64_t_s_s>:
    48fc:	f3 0f 1e fa          	endbr64 
    4900:	55                   	push   %rbp
    4901:	48 89 e5             	mov    %rsp,%rbp
    4904:	48 89 7d f8          	mov    %rdi,-0x8(%rbp)
    4908:	48 89 75 f0          	mov    %rsi,-0x10(%rbp)
    490c:	48 83 7d f8 00       	cmpq   $0x0,-0x8(%rbp)
    4911:	7e 1d                	jle    4930 <safe_mul_func_int64_t_s_s+0x34>
    4913:	48 83 7d f0 00       	cmpq   $0x0,-0x10(%rbp)
    4918:	7e 16                	jle    4930 <safe_mul_func_int64_t_s_s+0x34>
    491a:	48 b8 ff ff ff ff ff 	movabs $0x7fffffffffffffff,%rax
    4921:	ff ff 7f 
    4924:	48 99                	cqto   
    4926:	48 f7 7d f0          	idivq  -0x10(%rbp)
    492a:	48 39 45 f8          	cmp    %rax,-0x8(%rbp)
    492e:	7f 7e                	jg     49ae <safe_mul_func_int64_t_s_s+0xb2>
    4930:	48 83 7d f8 00       	cmpq   $0x0,-0x8(%rbp)
    4935:	7e 1d                	jle    4954 <safe_mul_func_int64_t_s_s+0x58>
    4937:	48 83 7d f0 00       	cmpq   $0x0,-0x10(%rbp)
    493c:	7f 16                	jg     4954 <safe_mul_func_int64_t_s_s+0x58>
    493e:	48 b8 00 00 00 00 00 	movabs $0x8000000000000000,%rax
    4945:	00 00 80 
    4948:	48 99                	cqto   
    494a:	48 f7 7d f8          	idivq  -0x8(%rbp)
    494e:	48 39 45 f0          	cmp    %rax,-0x10(%rbp)
    4952:	7c 5a                	jl     49ae <safe_mul_func_int64_t_s_s+0xb2>
    4954:	48 83 7d f8 00       	cmpq   $0x0,-0x8(%rbp)
    4959:	7f 1d                	jg     4978 <safe_mul_func_int64_t_s_s+0x7c>
    495b:	48 83 7d f0 00       	cmpq   $0x0,-0x10(%rbp)
    4960:	7e 16                	jle    4978 <safe_mul_func_int64_t_s_s+0x7c>
    4962:	48 b8 00 00 00 00 00 	movabs $0x8000000000000000,%rax
    4969:	00 00 80 
    496c:	48 99                	cqto   
    496e:	48 f7 7d f0          	idivq  -0x10(%rbp)
    4972:	48 39 45 f8          	cmp    %rax,-0x8(%rbp)
    4976:	7c 36                	jl     49ae <safe_mul_func_int64_t_s_s+0xb2>
    4978:	48 83 7d f8 00       	cmpq   $0x0,-0x8(%rbp)
    497d:	7f 24                	jg     49a3 <safe_mul_func_int64_t_s_s+0xa7>
    497f:	48 83 7d f0 00       	cmpq   $0x0,-0x10(%rbp)
    4984:	7f 1d                	jg     49a3 <safe_mul_func_int64_t_s_s+0xa7>
    4986:	48 83 7d f8 00       	cmpq   $0x0,-0x8(%rbp)
    498b:	74 16                	je     49a3 <safe_mul_func_int64_t_s_s+0xa7>
    498d:	48 b8 ff ff ff ff ff 	movabs $0x7fffffffffffffff,%rax
    4994:	ff ff 7f 
    4997:	48 99                	cqto   
    4999:	48 f7 7d f8          	idivq  -0x8(%rbp)
    499d:	48 39 45 f0          	cmp    %rax,-0x10(%rbp)
    49a1:	7c 0b                	jl     49ae <safe_mul_func_int64_t_s_s+0xb2>
    49a3:	48 8b 45 f8          	mov    -0x8(%rbp),%rax
    49a7:	48 0f af 45 f0       	imul   -0x10(%rbp),%rax
    49ac:	eb 04                	jmp    49b2 <safe_mul_func_int64_t_s_s+0xb6>
    49ae:	48 8b 45 f8          	mov    -0x8(%rbp),%rax
    49b2:	5d                   	pop    %rbp
    49b3:	c3                   	retq   

00000000000049b4 <safe_mod_func_int64_t_s_s>:
    49b4:	f3 0f 1e fa          	endbr64 
    49b8:	55                   	push   %rbp
    49b9:	48 89 e5             	mov    %rsp,%rbp
    49bc:	48 89 7d f8          	mov    %rdi,-0x8(%rbp)
    49c0:	48 89 75 f0          	mov    %rsi,-0x10(%rbp)
    49c4:	48 83 7d f0 00       	cmpq   $0x0,-0x10(%rbp)
    49c9:	74 26                	je     49f1 <safe_mod_func_int64_t_s_s+0x3d>
    49cb:	48 b8 00 00 00 00 00 	movabs $0x8000000000000000,%rax
    49d2:	00 00 80 
    49d5:	48 39 45 f8          	cmp    %rax,-0x8(%rbp)
    49d9:	75 07                	jne    49e2 <safe_mod_func_int64_t_s_s+0x2e>
    49db:	48 83 7d f0 ff       	cmpq   $0xffffffffffffffff,-0x10(%rbp)
    49e0:	74 0f                	je     49f1 <safe_mod_func_int64_t_s_s+0x3d>
    49e2:	48 8b 45 f8          	mov    -0x8(%rbp),%rax
    49e6:	48 99                	cqto   
    49e8:	48 f7 7d f0          	idivq  -0x10(%rbp)
    49ec:	48 89 d0             	mov    %rdx,%rax
    49ef:	eb 04                	jmp    49f5 <safe_mod_func_int64_t_s_s+0x41>
    49f1:	48 8b 45 f8          	mov    -0x8(%rbp),%rax
    49f5:	5d                   	pop    %rbp
    49f6:	c3                   	retq   

00000000000049f7 <safe_div_func_int64_t_s_s>:
    49f7:	f3 0f 1e fa          	endbr64 
    49fb:	55                   	push   %rbp
    49fc:	48 89 e5             	mov    %rsp,%rbp
    49ff:	48 89 7d f8          	mov    %rdi,-0x8(%rbp)
    4a03:	48 89 75 f0          	mov    %rsi,-0x10(%rbp)
    4a07:	48 83 7d f0 00       	cmpq   $0x0,-0x10(%rbp)
    4a0c:	74 23                	je     4a31 <safe_div_func_int64_t_s_s+0x3a>
    4a0e:	48 b8 00 00 00 00 00 	movabs $0x8000000000000000,%rax
    4a15:	00 00 80 
    4a18:	48 39 45 f8          	cmp    %rax,-0x8(%rbp)
    4a1c:	75 07                	jne    4a25 <safe_div_func_int64_t_s_s+0x2e>
    4a1e:	48 83 7d f0 ff       	cmpq   $0xffffffffffffffff,-0x10(%rbp)
    4a23:	74 0c                	je     4a31 <safe_div_func_int64_t_s_s+0x3a>
    4a25:	48 8b 45 f8          	mov    -0x8(%rbp),%rax
    4a29:	48 99                	cqto   
    4a2b:	48 f7 7d f0          	idivq  -0x10(%rbp)
    4a2f:	eb 04                	jmp    4a35 <safe_div_func_int64_t_s_s+0x3e>
    4a31:	48 8b 45 f8          	mov    -0x8(%rbp),%rax
    4a35:	5d                   	pop    %rbp
    4a36:	c3                   	retq   

0000000000004a37 <safe_lshift_func_int64_t_s_s>:
    4a37:	f3 0f 1e fa          	endbr64 
    4a3b:	55                   	push   %rbp
    4a3c:	48 89 e5             	mov    %rsp,%rbp
    4a3f:	48 89 7d f8          	mov    %rdi,-0x8(%rbp)
    4a43:	89 75 f4             	mov    %esi,-0xc(%rbp)
    4a46:	48 83 7d f8 00       	cmpq   $0x0,-0x8(%rbp)
    4a4b:	78 38                	js     4a85 <safe_lshift_func_int64_t_s_s+0x4e>
    4a4d:	83 7d f4 00          	cmpl   $0x0,-0xc(%rbp)
    4a51:	78 32                	js     4a85 <safe_lshift_func_int64_t_s_s+0x4e>
    4a53:	83 7d f4 1f          	cmpl   $0x1f,-0xc(%rbp)
    4a57:	7f 2c                	jg     4a85 <safe_lshift_func_int64_t_s_s+0x4e>
    4a59:	8b 45 f4             	mov    -0xc(%rbp),%eax
    4a5c:	48 ba ff ff ff ff ff 	movabs $0x7fffffffffffffff,%rdx
    4a63:	ff ff 7f 
    4a66:	89 c1                	mov    %eax,%ecx
    4a68:	48 d3 fa             	sar    %cl,%rdx
    4a6b:	48 89 d0             	mov    %rdx,%rax
    4a6e:	48 39 45 f8          	cmp    %rax,-0x8(%rbp)
    4a72:	7f 11                	jg     4a85 <safe_lshift_func_int64_t_s_s+0x4e>
    4a74:	8b 45 f4             	mov    -0xc(%rbp),%eax
    4a77:	48 8b 55 f8          	mov    -0x8(%rbp),%rdx
    4a7b:	89 c1                	mov    %eax,%ecx
    4a7d:	48 d3 e2             	shl    %cl,%rdx
    4a80:	48 89 d0             	mov    %rdx,%rax
    4a83:	eb 04                	jmp    4a89 <safe_lshift_func_int64_t_s_s+0x52>
    4a85:	48 8b 45 f8          	mov    -0x8(%rbp),%rax
    4a89:	5d                   	pop    %rbp
    4a8a:	c3                   	retq   

0000000000004a8b <safe_lshift_func_int64_t_s_u>:
    4a8b:	f3 0f 1e fa          	endbr64 
    4a8f:	55                   	push   %rbp
    4a90:	48 89 e5             	mov    %rsp,%rbp
    4a93:	48 89 7d f8          	mov    %rdi,-0x8(%rbp)
    4a97:	89 75 f4             	mov    %esi,-0xc(%rbp)
    4a9a:	48 83 7d f8 00       	cmpq   $0x0,-0x8(%rbp)
    4a9f:	78 32                	js     4ad3 <safe_lshift_func_int64_t_s_u+0x48>
    4aa1:	83 7d f4 1f          	cmpl   $0x1f,-0xc(%rbp)
    4aa5:	77 2c                	ja     4ad3 <safe_lshift_func_int64_t_s_u+0x48>
    4aa7:	8b 45 f4             	mov    -0xc(%rbp),%eax
    4aaa:	48 ba ff ff ff ff ff 	movabs $0x7fffffffffffffff,%rdx
    4ab1:	ff ff 7f 
    4ab4:	89 c1                	mov    %eax,%ecx
    4ab6:	48 d3 fa             	sar    %cl,%rdx
    4ab9:	48 89 d0             	mov    %rdx,%rax
    4abc:	48 39 45 f8          	cmp    %rax,-0x8(%rbp)
    4ac0:	7f 11                	jg     4ad3 <safe_lshift_func_int64_t_s_u+0x48>
    4ac2:	8b 45 f4             	mov    -0xc(%rbp),%eax
    4ac5:	48 8b 55 f8          	mov    -0x8(%rbp),%rdx
    4ac9:	89 c1                	mov    %eax,%ecx
    4acb:	48 d3 e2             	shl    %cl,%rdx
    4ace:	48 89 d0             	mov    %rdx,%rax
    4ad1:	eb 04                	jmp    4ad7 <safe_lshift_func_int64_t_s_u+0x4c>
    4ad3:	48 8b 45 f8          	mov    -0x8(%rbp),%rax
    4ad7:	5d                   	pop    %rbp
    4ad8:	c3                   	retq   

0000000000004ad9 <safe_rshift_func_int64_t_s_s>:
    4ad9:	f3 0f 1e fa          	endbr64 
    4add:	55                   	push   %rbp
    4ade:	48 89 e5             	mov    %rsp,%rbp
    4ae1:	48 89 7d f8          	mov    %rdi,-0x8(%rbp)
    4ae5:	89 75 f4             	mov    %esi,-0xc(%rbp)
    4ae8:	48 83 7d f8 00       	cmpq   $0x0,-0x8(%rbp)
    4aed:	78 1d                	js     4b0c <safe_rshift_func_int64_t_s_s+0x33>
    4aef:	83 7d f4 00          	cmpl   $0x0,-0xc(%rbp)
    4af3:	78 17                	js     4b0c <safe_rshift_func_int64_t_s_s+0x33>
    4af5:	83 7d f4 1f          	cmpl   $0x1f,-0xc(%rbp)
    4af9:	7f 11                	jg     4b0c <safe_rshift_func_int64_t_s_s+0x33>
    4afb:	8b 45 f4             	mov    -0xc(%rbp),%eax
    4afe:	48 8b 55 f8          	mov    -0x8(%rbp),%rdx
    4b02:	89 c1                	mov    %eax,%ecx
    4b04:	48 d3 fa             	sar    %cl,%rdx
    4b07:	48 89 d0             	mov    %rdx,%rax
    4b0a:	eb 04                	jmp    4b10 <safe_rshift_func_int64_t_s_s+0x37>
    4b0c:	48 8b 45 f8          	mov    -0x8(%rbp),%rax
    4b10:	5d                   	pop    %rbp
    4b11:	c3                   	retq   

0000000000004b12 <safe_rshift_func_int64_t_s_u>:
    4b12:	f3 0f 1e fa          	endbr64 
    4b16:	55                   	push   %rbp
    4b17:	48 89 e5             	mov    %rsp,%rbp
    4b1a:	48 89 7d f8          	mov    %rdi,-0x8(%rbp)
    4b1e:	89 75 f4             	mov    %esi,-0xc(%rbp)
    4b21:	48 83 7d f8 00       	cmpq   $0x0,-0x8(%rbp)
    4b26:	78 17                	js     4b3f <safe_rshift_func_int64_t_s_u+0x2d>
    4b28:	83 7d f4 1f          	cmpl   $0x1f,-0xc(%rbp)
    4b2c:	77 11                	ja     4b3f <safe_rshift_func_int64_t_s_u+0x2d>
    4b2e:	8b 45 f4             	mov    -0xc(%rbp),%eax
    4b31:	48 8b 55 f8          	mov    -0x8(%rbp),%rdx
    4b35:	89 c1                	mov    %eax,%ecx
    4b37:	48 d3 fa             	sar    %cl,%rdx
    4b3a:	48 89 d0             	mov    %rdx,%rax
    4b3d:	eb 04                	jmp    4b43 <safe_rshift_func_int64_t_s_u+0x31>
    4b3f:	48 8b 45 f8          	mov    -0x8(%rbp),%rax
    4b43:	5d                   	pop    %rbp
    4b44:	c3                   	retq   

0000000000004b45 <safe_unary_minus_func_uint8_t_u>:
    4b45:	f3 0f 1e fa          	endbr64 
    4b49:	55                   	push   %rbp
    4b4a:	48 89 e5             	mov    %rsp,%rbp
    4b4d:	89 f8                	mov    %edi,%eax
    4b4f:	88 45 fc             	mov    %al,-0x4(%rbp)
    4b52:	0f b6 45 fc          	movzbl -0x4(%rbp),%eax
    4b56:	f7 d8                	neg    %eax
    4b58:	5d                   	pop    %rbp
    4b59:	c3                   	retq   

0000000000004b5a <safe_add_func_uint8_t_u_u>:
    4b5a:	f3 0f 1e fa          	endbr64 
    4b5e:	55                   	push   %rbp
    4b5f:	48 89 e5             	mov    %rsp,%rbp
    4b62:	89 fa                	mov    %edi,%edx
    4b64:	89 f0                	mov    %esi,%eax
    4b66:	88 55 fc             	mov    %dl,-0x4(%rbp)
    4b69:	88 45 f8             	mov    %al,-0x8(%rbp)
    4b6c:	0f b6 55 fc          	movzbl -0x4(%rbp),%edx
    4b70:	0f b6 45 f8          	movzbl -0x8(%rbp),%eax
    4b74:	01 d0                	add    %edx,%eax
    4b76:	5d                   	pop    %rbp
    4b77:	c3                   	retq   

0000000000004b78 <safe_sub_func_uint8_t_u_u>:
    4b78:	f3 0f 1e fa          	endbr64 
    4b7c:	55                   	push   %rbp
    4b7d:	48 89 e5             	mov    %rsp,%rbp
    4b80:	89 fa                	mov    %edi,%edx
    4b82:	89 f0                	mov    %esi,%eax
    4b84:	88 55 fc             	mov    %dl,-0x4(%rbp)
    4b87:	88 45 f8             	mov    %al,-0x8(%rbp)
    4b8a:	0f b6 45 fc          	movzbl -0x4(%rbp),%eax
    4b8e:	2a 45 f8             	sub    -0x8(%rbp),%al
    4b91:	5d                   	pop    %rbp
    4b92:	c3                   	retq   

0000000000004b93 <safe_mul_func_uint8_t_u_u>:
    4b93:	f3 0f 1e fa          	endbr64 
    4b97:	55                   	push   %rbp
    4b98:	48 89 e5             	mov    %rsp,%rbp
    4b9b:	89 fa                	mov    %edi,%edx
    4b9d:	89 f0                	mov    %esi,%eax
    4b9f:	88 55 fc             	mov    %dl,-0x4(%rbp)
    4ba2:	88 45 f8             	mov    %al,-0x8(%rbp)
    4ba5:	0f b6 45 fc          	movzbl -0x4(%rbp),%eax
    4ba9:	f6 65 f8             	mulb   -0x8(%rbp)
    4bac:	5d                   	pop    %rbp
    4bad:	c3                   	retq   

0000000000004bae <safe_mod_func_uint8_t_u_u>:
    4bae:	f3 0f 1e fa          	endbr64 
    4bb2:	55                   	push   %rbp
    4bb3:	48 89 e5             	mov    %rsp,%rbp
    4bb6:	89 fa                	mov    %edi,%edx
    4bb8:	89 f0                	mov    %esi,%eax
    4bba:	88 55 fc             	mov    %dl,-0x4(%rbp)
    4bbd:	88 45 f8             	mov    %al,-0x8(%rbp)
    4bc0:	80 7d f8 00          	cmpb   $0x0,-0x8(%rbp)
    4bc4:	74 0f                	je     4bd5 <safe_mod_func_uint8_t_u_u+0x27>
    4bc6:	0f b6 45 fc          	movzbl -0x4(%rbp),%eax
    4bca:	0f b6 c0             	movzbl %al,%eax
    4bcd:	f6 75 f8             	divb   -0x8(%rbp)
    4bd0:	0f b6 c4             	movzbl %ah,%eax
    4bd3:	eb 04                	jmp    4bd9 <safe_mod_func_uint8_t_u_u+0x2b>
    4bd5:	0f b6 45 fc          	movzbl -0x4(%rbp),%eax
    4bd9:	5d                   	pop    %rbp
    4bda:	c3                   	retq   

0000000000004bdb <safe_div_func_uint8_t_u_u>:
    4bdb:	f3 0f 1e fa          	endbr64 
    4bdf:	55                   	push   %rbp
    4be0:	48 89 e5             	mov    %rsp,%rbp
    4be3:	89 fa                	mov    %edi,%edx
    4be5:	89 f0                	mov    %esi,%eax
    4be7:	88 55 fc             	mov    %dl,-0x4(%rbp)
    4bea:	88 45 f8             	mov    %al,-0x8(%rbp)
    4bed:	80 7d f8 00          	cmpb   $0x0,-0x8(%rbp)
    4bf1:	74 0c                	je     4bff <safe_div_func_uint8_t_u_u+0x24>
    4bf3:	0f b6 45 fc          	movzbl -0x4(%rbp),%eax
    4bf7:	0f b6 c0             	movzbl %al,%eax
    4bfa:	f6 75 f8             	divb   -0x8(%rbp)
    4bfd:	eb 04                	jmp    4c03 <safe_div_func_uint8_t_u_u+0x28>
    4bff:	0f b6 45 fc          	movzbl -0x4(%rbp),%eax
    4c03:	5d                   	pop    %rbp
    4c04:	c3                   	retq   

0000000000004c05 <safe_lshift_func_uint8_t_u_s>:
    4c05:	f3 0f 1e fa          	endbr64 
    4c09:	55                   	push   %rbp
    4c0a:	48 89 e5             	mov    %rsp,%rbp
    4c0d:	89 f8                	mov    %edi,%eax
    4c0f:	89 75 f8             	mov    %esi,-0x8(%rbp)
    4c12:	88 45 fc             	mov    %al,-0x4(%rbp)
    4c15:	83 7d f8 00          	cmpl   $0x0,-0x8(%rbp)
    4c19:	78 2b                	js     4c46 <safe_lshift_func_uint8_t_u_s+0x41>
    4c1b:	83 7d f8 1f          	cmpl   $0x1f,-0x8(%rbp)
    4c1f:	7f 25                	jg     4c46 <safe_lshift_func_uint8_t_u_s+0x41>
    4c21:	0f b6 55 fc          	movzbl -0x4(%rbp),%edx
    4c25:	8b 45 f8             	mov    -0x8(%rbp),%eax
    4c28:	be ff 00 00 00       	mov    $0xff,%esi
    4c2d:	89 c1                	mov    %eax,%ecx
    4c2f:	d3 fe                	sar    %cl,%esi
    4c31:	89 f0                	mov    %esi,%eax
    4c33:	39 c2                	cmp    %eax,%edx
    4c35:	7f 0f                	jg     4c46 <safe_lshift_func_uint8_t_u_s+0x41>
    4c37:	0f b6 55 fc          	movzbl -0x4(%rbp),%edx
    4c3b:	8b 45 f8             	mov    -0x8(%rbp),%eax
    4c3e:	89 c1                	mov    %eax,%ecx
    4c40:	d3 e2                	shl    %cl,%edx
    4c42:	89 d0                	mov    %edx,%eax
    4c44:	eb 04                	jmp    4c4a <safe_lshift_func_uint8_t_u_s+0x45>
    4c46:	0f b6 45 fc          	movzbl -0x4(%rbp),%eax
    4c4a:	5d                   	pop    %rbp
    4c4b:	c3                   	retq   

0000000000004c4c <safe_lshift_func_uint8_t_u_u>:
    4c4c:	f3 0f 1e fa          	endbr64 
    4c50:	55                   	push   %rbp
    4c51:	48 89 e5             	mov    %rsp,%rbp
    4c54:	89 f8                	mov    %edi,%eax
    4c56:	89 75 f8             	mov    %esi,-0x8(%rbp)
    4c59:	88 45 fc             	mov    %al,-0x4(%rbp)
    4c5c:	83 7d f8 1f          	cmpl   $0x1f,-0x8(%rbp)
    4c60:	77 25                	ja     4c87 <safe_lshift_func_uint8_t_u_u+0x3b>
    4c62:	0f b6 55 fc          	movzbl -0x4(%rbp),%edx
    4c66:	8b 45 f8             	mov    -0x8(%rbp),%eax
    4c69:	be ff 00 00 00       	mov    $0xff,%esi
    4c6e:	89 c1                	mov    %eax,%ecx
    4c70:	d3 fe                	sar    %cl,%esi
    4c72:	89 f0                	mov    %esi,%eax
    4c74:	39 c2                	cmp    %eax,%edx
    4c76:	7f 0f                	jg     4c87 <safe_lshift_func_uint8_t_u_u+0x3b>
    4c78:	0f b6 55 fc          	movzbl -0x4(%rbp),%edx
    4c7c:	8b 45 f8             	mov    -0x8(%rbp),%eax
    4c7f:	89 c1                	mov    %eax,%ecx
    4c81:	d3 e2                	shl    %cl,%edx
    4c83:	89 d0                	mov    %edx,%eax
    4c85:	eb 04                	jmp    4c8b <safe_lshift_func_uint8_t_u_u+0x3f>
    4c87:	0f b6 45 fc          	movzbl -0x4(%rbp),%eax
    4c8b:	5d                   	pop    %rbp
    4c8c:	c3                   	retq   

0000000000004c8d <safe_rshift_func_uint8_t_u_s>:
    4c8d:	f3 0f 1e fa          	endbr64 
    4c91:	55                   	push   %rbp
    4c92:	48 89 e5             	mov    %rsp,%rbp
    4c95:	89 f8                	mov    %edi,%eax
    4c97:	89 75 f8             	mov    %esi,-0x8(%rbp)
    4c9a:	88 45 fc             	mov    %al,-0x4(%rbp)
    4c9d:	83 7d f8 00          	cmpl   $0x0,-0x8(%rbp)
    4ca1:	78 15                	js     4cb8 <safe_rshift_func_uint8_t_u_s+0x2b>
    4ca3:	83 7d f8 1f          	cmpl   $0x1f,-0x8(%rbp)
    4ca7:	7f 0f                	jg     4cb8 <safe_rshift_func_uint8_t_u_s+0x2b>
    4ca9:	0f b6 55 fc          	movzbl -0x4(%rbp),%edx
    4cad:	8b 45 f8             	mov    -0x8(%rbp),%eax
    4cb0:	89 c1                	mov    %eax,%ecx
    4cb2:	d3 fa                	sar    %cl,%edx
    4cb4:	89 d0                	mov    %edx,%eax
    4cb6:	eb 04                	jmp    4cbc <safe_rshift_func_uint8_t_u_s+0x2f>
    4cb8:	0f b6 45 fc          	movzbl -0x4(%rbp),%eax
    4cbc:	5d                   	pop    %rbp
    4cbd:	c3                   	retq   

0000000000004cbe <safe_rshift_func_uint8_t_u_u>:
    4cbe:	f3 0f 1e fa          	endbr64 
    4cc2:	55                   	push   %rbp
    4cc3:	48 89 e5             	mov    %rsp,%rbp
    4cc6:	89 f8                	mov    %edi,%eax
    4cc8:	89 75 f8             	mov    %esi,-0x8(%rbp)
    4ccb:	88 45 fc             	mov    %al,-0x4(%rbp)
    4cce:	83 7d f8 1f          	cmpl   $0x1f,-0x8(%rbp)
    4cd2:	77 0f                	ja     4ce3 <safe_rshift_func_uint8_t_u_u+0x25>
    4cd4:	0f b6 55 fc          	movzbl -0x4(%rbp),%edx
    4cd8:	8b 45 f8             	mov    -0x8(%rbp),%eax
    4cdb:	89 c1                	mov    %eax,%ecx
    4cdd:	d3 fa                	sar    %cl,%edx
    4cdf:	89 d0                	mov    %edx,%eax
    4ce1:	eb 04                	jmp    4ce7 <safe_rshift_func_uint8_t_u_u+0x29>
    4ce3:	0f b6 45 fc          	movzbl -0x4(%rbp),%eax
    4ce7:	5d                   	pop    %rbp
    4ce8:	c3                   	retq   

0000000000004ce9 <safe_unary_minus_func_uint16_t_u>:
    4ce9:	f3 0f 1e fa          	endbr64 
    4ced:	55                   	push   %rbp
    4cee:	48 89 e5             	mov    %rsp,%rbp
    4cf1:	89 f8                	mov    %edi,%eax
    4cf3:	66 89 45 fc          	mov    %ax,-0x4(%rbp)
    4cf7:	0f b7 45 fc          	movzwl -0x4(%rbp),%eax
    4cfb:	f7 d8                	neg    %eax
    4cfd:	5d                   	pop    %rbp
    4cfe:	c3                   	retq   

0000000000004cff <safe_add_func_uint16_t_u_u>:
    4cff:	f3 0f 1e fa          	endbr64 
    4d03:	55                   	push   %rbp
    4d04:	48 89 e5             	mov    %rsp,%rbp
    4d07:	89 fa                	mov    %edi,%edx
    4d09:	89 f0                	mov    %esi,%eax
    4d0b:	66 89 55 fc          	mov    %dx,-0x4(%rbp)
    4d0f:	66 89 45 f8          	mov    %ax,-0x8(%rbp)
    4d13:	0f b7 55 fc          	movzwl -0x4(%rbp),%edx
    4d17:	0f b7 45 f8          	movzwl -0x8(%rbp),%eax
    4d1b:	01 d0                	add    %edx,%eax
    4d1d:	5d                   	pop    %rbp
    4d1e:	c3                   	retq   

0000000000004d1f <safe_sub_func_uint16_t_u_u>:
    4d1f:	f3 0f 1e fa          	endbr64 
    4d23:	55                   	push   %rbp
    4d24:	48 89 e5             	mov    %rsp,%rbp
    4d27:	89 fa                	mov    %edi,%edx
    4d29:	89 f0                	mov    %esi,%eax
    4d2b:	66 89 55 fc          	mov    %dx,-0x4(%rbp)
    4d2f:	66 89 45 f8          	mov    %ax,-0x8(%rbp)
    4d33:	0f b7 45 fc          	movzwl -0x4(%rbp),%eax
    4d37:	66 2b 45 f8          	sub    -0x8(%rbp),%ax
    4d3b:	5d                   	pop    %rbp
    4d3c:	c3                   	retq   

0000000000004d3d <safe_mul_func_uint16_t_u_u>:
    4d3d:	f3 0f 1e fa          	endbr64 
    4d41:	55                   	push   %rbp
    4d42:	48 89 e5             	mov    %rsp,%rbp
    4d45:	89 fa                	mov    %edi,%edx
    4d47:	89 f0                	mov    %esi,%eax
    4d49:	66 89 55 fc          	mov    %dx,-0x4(%rbp)
    4d4d:	66 89 45 f8          	mov    %ax,-0x8(%rbp)
    4d51:	0f b7 45 fc          	movzwl -0x4(%rbp),%eax
    4d55:	66 0f af 45 f8       	imul   -0x8(%rbp),%ax
    4d5a:	5d                   	pop    %rbp
    4d5b:	c3                   	retq   

0000000000004d5c <safe_mod_func_uint16_t_u_u>:
    4d5c:	f3 0f 1e fa          	endbr64 
    4d60:	55                   	push   %rbp
    4d61:	48 89 e5             	mov    %rsp,%rbp
    4d64:	89 fa                	mov    %edi,%edx
    4d66:	89 f0                	mov    %esi,%eax
    4d68:	66 89 55 fc          	mov    %dx,-0x4(%rbp)
    4d6c:	66 89 45 f8          	mov    %ax,-0x8(%rbp)
    4d70:	66 83 7d f8 00       	cmpw   $0x0,-0x8(%rbp)
    4d75:	74 11                	je     4d88 <safe_mod_func_uint16_t_u_u+0x2c>
    4d77:	0f b7 45 fc          	movzwl -0x4(%rbp),%eax
    4d7b:	ba 00 00 00 00       	mov    $0x0,%edx
    4d80:	66 f7 75 f8          	divw   -0x8(%rbp)
    4d84:	89 d0                	mov    %edx,%eax
    4d86:	eb 04                	jmp    4d8c <safe_mod_func_uint16_t_u_u+0x30>
    4d88:	0f b7 45 fc          	movzwl -0x4(%rbp),%eax
    4d8c:	5d                   	pop    %rbp
    4d8d:	c3                   	retq   

0000000000004d8e <safe_div_func_uint16_t_u_u>:
    4d8e:	f3 0f 1e fa          	endbr64 
    4d92:	55                   	push   %rbp
    4d93:	48 89 e5             	mov    %rsp,%rbp
    4d96:	89 fa                	mov    %edi,%edx
    4d98:	89 f0                	mov    %esi,%eax
    4d9a:	66 89 55 fc          	mov    %dx,-0x4(%rbp)
    4d9e:	66 89 45 f8          	mov    %ax,-0x8(%rbp)
    4da2:	66 83 7d f8 00       	cmpw   $0x0,-0x8(%rbp)
    4da7:	74 0f                	je     4db8 <safe_div_func_uint16_t_u_u+0x2a>
    4da9:	0f b7 45 fc          	movzwl -0x4(%rbp),%eax
    4dad:	ba 00 00 00 00       	mov    $0x0,%edx
    4db2:	66 f7 75 f8          	divw   -0x8(%rbp)
    4db6:	eb 04                	jmp    4dbc <safe_div_func_uint16_t_u_u+0x2e>
    4db8:	0f b7 45 fc          	movzwl -0x4(%rbp),%eax
    4dbc:	5d                   	pop    %rbp
    4dbd:	c3                   	retq   

0000000000004dbe <safe_lshift_func_uint16_t_u_s>:
    4dbe:	f3 0f 1e fa          	endbr64 
    4dc2:	55                   	push   %rbp
    4dc3:	48 89 e5             	mov    %rsp,%rbp
    4dc6:	89 f8                	mov    %edi,%eax
    4dc8:	89 75 f8             	mov    %esi,-0x8(%rbp)
    4dcb:	66 89 45 fc          	mov    %ax,-0x4(%rbp)
    4dcf:	83 7d f8 00          	cmpl   $0x0,-0x8(%rbp)
    4dd3:	78 2b                	js     4e00 <safe_lshift_func_uint16_t_u_s+0x42>
    4dd5:	83 7d f8 1f          	cmpl   $0x1f,-0x8(%rbp)
    4dd9:	7f 25                	jg     4e00 <safe_lshift_func_uint16_t_u_s+0x42>
    4ddb:	0f b7 55 fc          	movzwl -0x4(%rbp),%edx
    4ddf:	8b 45 f8             	mov    -0x8(%rbp),%eax
    4de2:	be ff ff 00 00       	mov    $0xffff,%esi
    4de7:	89 c1                	mov    %eax,%ecx
    4de9:	d3 fe                	sar    %cl,%esi
    4deb:	89 f0                	mov    %esi,%eax
    4ded:	39 c2                	cmp    %eax,%edx
    4def:	7f 0f                	jg     4e00 <safe_lshift_func_uint16_t_u_s+0x42>
    4df1:	0f b7 55 fc          	movzwl -0x4(%rbp),%edx
    4df5:	8b 45 f8             	mov    -0x8(%rbp),%eax
    4df8:	89 c1                	mov    %eax,%ecx
    4dfa:	d3 e2                	shl    %cl,%edx
    4dfc:	89 d0                	mov    %edx,%eax
    4dfe:	eb 04                	jmp    4e04 <safe_lshift_func_uint16_t_u_s+0x46>
    4e00:	0f b7 45 fc          	movzwl -0x4(%rbp),%eax
    4e04:	5d                   	pop    %rbp
    4e05:	c3                   	retq   

0000000000004e06 <safe_lshift_func_uint16_t_u_u>:
    4e06:	f3 0f 1e fa          	endbr64 
    4e0a:	55                   	push   %rbp
    4e0b:	48 89 e5             	mov    %rsp,%rbp
    4e0e:	89 f8                	mov    %edi,%eax
    4e10:	89 75 f8             	mov    %esi,-0x8(%rbp)
    4e13:	66 89 45 fc          	mov    %ax,-0x4(%rbp)
    4e17:	83 7d f8 1f          	cmpl   $0x1f,-0x8(%rbp)
    4e1b:	77 25                	ja     4e42 <safe_lshift_func_uint16_t_u_u+0x3c>
    4e1d:	0f b7 55 fc          	movzwl -0x4(%rbp),%edx
    4e21:	8b 45 f8             	mov    -0x8(%rbp),%eax
    4e24:	be ff ff 00 00       	mov    $0xffff,%esi
    4e29:	89 c1                	mov    %eax,%ecx
    4e2b:	d3 fe                	sar    %cl,%esi
    4e2d:	89 f0                	mov    %esi,%eax
    4e2f:	39 c2                	cmp    %eax,%edx
    4e31:	7f 0f                	jg     4e42 <safe_lshift_func_uint16_t_u_u+0x3c>
    4e33:	0f b7 55 fc          	movzwl -0x4(%rbp),%edx
    4e37:	8b 45 f8             	mov    -0x8(%rbp),%eax
    4e3a:	89 c1                	mov    %eax,%ecx
    4e3c:	d3 e2                	shl    %cl,%edx
    4e3e:	89 d0                	mov    %edx,%eax
    4e40:	eb 04                	jmp    4e46 <safe_lshift_func_uint16_t_u_u+0x40>
    4e42:	0f b7 45 fc          	movzwl -0x4(%rbp),%eax
    4e46:	5d                   	pop    %rbp
    4e47:	c3                   	retq   

0000000000004e48 <safe_rshift_func_uint16_t_u_s>:
    4e48:	f3 0f 1e fa          	endbr64 
    4e4c:	55                   	push   %rbp
    4e4d:	48 89 e5             	mov    %rsp,%rbp
    4e50:	89 f8                	mov    %edi,%eax
    4e52:	89 75 f8             	mov    %esi,-0x8(%rbp)
    4e55:	66 89 45 fc          	mov    %ax,-0x4(%rbp)
    4e59:	83 7d f8 00          	cmpl   $0x0,-0x8(%rbp)
    4e5d:	78 15                	js     4e74 <safe_rshift_func_uint16_t_u_s+0x2c>
    4e5f:	83 7d f8 1f          	cmpl   $0x1f,-0x8(%rbp)
    4e63:	7f 0f                	jg     4e74 <safe_rshift_func_uint16_t_u_s+0x2c>
    4e65:	0f b7 55 fc          	movzwl -0x4(%rbp),%edx
    4e69:	8b 45 f8             	mov    -0x8(%rbp),%eax
    4e6c:	89 c1                	mov    %eax,%ecx
    4e6e:	d3 fa                	sar    %cl,%edx
    4e70:	89 d0                	mov    %edx,%eax
    4e72:	eb 04                	jmp    4e78 <safe_rshift_func_uint16_t_u_s+0x30>
    4e74:	0f b7 45 fc          	movzwl -0x4(%rbp),%eax
    4e78:	5d                   	pop    %rbp
    4e79:	c3                   	retq   

0000000000004e7a <safe_rshift_func_uint16_t_u_u>:
    4e7a:	f3 0f 1e fa          	endbr64 
    4e7e:	55                   	push   %rbp
    4e7f:	48 89 e5             	mov    %rsp,%rbp
    4e82:	89 f8                	mov    %edi,%eax
    4e84:	89 75 f8             	mov    %esi,-0x8(%rbp)
    4e87:	66 89 45 fc          	mov    %ax,-0x4(%rbp)
    4e8b:	83 7d f8 1f          	cmpl   $0x1f,-0x8(%rbp)
    4e8f:	77 0f                	ja     4ea0 <safe_rshift_func_uint16_t_u_u+0x26>
    4e91:	0f b7 55 fc          	movzwl -0x4(%rbp),%edx
    4e95:	8b 45 f8             	mov    -0x8(%rbp),%eax
    4e98:	89 c1                	mov    %eax,%ecx
    4e9a:	d3 fa                	sar    %cl,%edx
    4e9c:	89 d0                	mov    %edx,%eax
    4e9e:	eb 04                	jmp    4ea4 <safe_rshift_func_uint16_t_u_u+0x2a>
    4ea0:	0f b7 45 fc          	movzwl -0x4(%rbp),%eax
    4ea4:	5d                   	pop    %rbp
    4ea5:	c3                   	retq   

0000000000004ea6 <safe_unary_minus_func_uint32_t_u>:
    4ea6:	f3 0f 1e fa          	endbr64 
    4eaa:	55                   	push   %rbp
    4eab:	48 89 e5             	mov    %rsp,%rbp
    4eae:	89 7d fc             	mov    %edi,-0x4(%rbp)
    4eb1:	8b 45 fc             	mov    -0x4(%rbp),%eax
    4eb4:	f7 d8                	neg    %eax
    4eb6:	5d                   	pop    %rbp
    4eb7:	c3                   	retq   

0000000000004eb8 <safe_add_func_uint32_t_u_u>:
    4eb8:	f3 0f 1e fa          	endbr64 
    4ebc:	55                   	push   %rbp
    4ebd:	48 89 e5             	mov    %rsp,%rbp
    4ec0:	89 7d fc             	mov    %edi,-0x4(%rbp)
    4ec3:	89 75 f8             	mov    %esi,-0x8(%rbp)
    4ec6:	8b 55 fc             	mov    -0x4(%rbp),%edx
    4ec9:	8b 45 f8             	mov    -0x8(%rbp),%eax
    4ecc:	01 d0                	add    %edx,%eax
    4ece:	5d                   	pop    %rbp
    4ecf:	c3                   	retq   

0000000000004ed0 <safe_sub_func_uint32_t_u_u>:
    4ed0:	f3 0f 1e fa          	endbr64 
    4ed4:	55                   	push   %rbp
    4ed5:	48 89 e5             	mov    %rsp,%rbp
    4ed8:	89 7d fc             	mov    %edi,-0x4(%rbp)
    4edb:	89 75 f8             	mov    %esi,-0x8(%rbp)
    4ede:	8b 45 fc             	mov    -0x4(%rbp),%eax
    4ee1:	2b 45 f8             	sub    -0x8(%rbp),%eax
    4ee4:	5d                   	pop    %rbp
    4ee5:	c3                   	retq   

0000000000004ee6 <safe_mul_func_uint32_t_u_u>:
    4ee6:	f3 0f 1e fa          	endbr64 
    4eea:	55                   	push   %rbp
    4eeb:	48 89 e5             	mov    %rsp,%rbp
    4eee:	89 7d fc             	mov    %edi,-0x4(%rbp)
    4ef1:	89 75 f8             	mov    %esi,-0x8(%rbp)
    4ef4:	8b 45 fc             	mov    -0x4(%rbp),%eax
    4ef7:	0f af 45 f8          	imul   -0x8(%rbp),%eax
    4efb:	5d                   	pop    %rbp
    4efc:	c3                   	retq   

0000000000004efd <safe_mod_func_uint32_t_u_u>:
    4efd:	f3 0f 1e fa          	endbr64 
    4f01:	55                   	push   %rbp
    4f02:	48 89 e5             	mov    %rsp,%rbp
    4f05:	89 7d fc             	mov    %edi,-0x4(%rbp)
    4f08:	89 75 f8             	mov    %esi,-0x8(%rbp)
    4f0b:	83 7d f8 00          	cmpl   $0x0,-0x8(%rbp)
    4f0f:	74 0f                	je     4f20 <safe_mod_func_uint32_t_u_u+0x23>
    4f11:	8b 45 fc             	mov    -0x4(%rbp),%eax
    4f14:	ba 00 00 00 00       	mov    $0x0,%edx
    4f19:	f7 75 f8             	divl   -0x8(%rbp)
    4f1c:	89 d0                	mov    %edx,%eax
    4f1e:	eb 03                	jmp    4f23 <safe_mod_func_uint32_t_u_u+0x26>
    4f20:	8b 45 fc             	mov    -0x4(%rbp),%eax
    4f23:	5d                   	pop    %rbp
    4f24:	c3                   	retq   

0000000000004f25 <safe_div_func_uint32_t_u_u>:
    4f25:	f3 0f 1e fa          	endbr64 
    4f29:	55                   	push   %rbp
    4f2a:	48 89 e5             	mov    %rsp,%rbp
    4f2d:	89 7d fc             	mov    %edi,-0x4(%rbp)
    4f30:	89 75 f8             	mov    %esi,-0x8(%rbp)
    4f33:	83 7d f8 00          	cmpl   $0x0,-0x8(%rbp)
    4f37:	74 0d                	je     4f46 <safe_div_func_uint32_t_u_u+0x21>
    4f39:	8b 45 fc             	mov    -0x4(%rbp),%eax
    4f3c:	ba 00 00 00 00       	mov    $0x0,%edx
    4f41:	f7 75 f8             	divl   -0x8(%rbp)
    4f44:	eb 03                	jmp    4f49 <safe_div_func_uint32_t_u_u+0x24>
    4f46:	8b 45 fc             	mov    -0x4(%rbp),%eax
    4f49:	5d                   	pop    %rbp
    4f4a:	c3                   	retq   

0000000000004f4b <safe_lshift_func_uint32_t_u_s>:
    4f4b:	f3 0f 1e fa          	endbr64 
    4f4f:	55                   	push   %rbp
    4f50:	48 89 e5             	mov    %rsp,%rbp
    4f53:	89 7d fc             	mov    %edi,-0x4(%rbp)
    4f56:	89 75 f8             	mov    %esi,-0x8(%rbp)
    4f59:	83 7d f8 00          	cmpl   $0x0,-0x8(%rbp)
    4f5d:	78 27                	js     4f86 <safe_lshift_func_uint32_t_u_s+0x3b>
    4f5f:	83 7d f8 1f          	cmpl   $0x1f,-0x8(%rbp)
    4f63:	7f 21                	jg     4f86 <safe_lshift_func_uint32_t_u_s+0x3b>
    4f65:	8b 45 f8             	mov    -0x8(%rbp),%eax
    4f68:	ba ff ff ff ff       	mov    $0xffffffff,%edx
    4f6d:	89 c1                	mov    %eax,%ecx
    4f6f:	d3 ea                	shr    %cl,%edx
    4f71:	89 d0                	mov    %edx,%eax
    4f73:	39 45 fc             	cmp    %eax,-0x4(%rbp)
    4f76:	77 0e                	ja     4f86 <safe_lshift_func_uint32_t_u_s+0x3b>
    4f78:	8b 45 f8             	mov    -0x8(%rbp),%eax
    4f7b:	8b 55 fc             	mov    -0x4(%rbp),%edx
    4f7e:	89 c1                	mov    %eax,%ecx
    4f80:	d3 e2                	shl    %cl,%edx
    4f82:	89 d0                	mov    %edx,%eax
    4f84:	eb 03                	jmp    4f89 <safe_lshift_func_uint32_t_u_s+0x3e>
    4f86:	8b 45 fc             	mov    -0x4(%rbp),%eax
    4f89:	5d                   	pop    %rbp
    4f8a:	c3                   	retq   

0000000000004f8b <safe_lshift_func_uint32_t_u_u>:
    4f8b:	f3 0f 1e fa          	endbr64 
    4f8f:	55                   	push   %rbp
    4f90:	48 89 e5             	mov    %rsp,%rbp
    4f93:	89 7d fc             	mov    %edi,-0x4(%rbp)
    4f96:	89 75 f8             	mov    %esi,-0x8(%rbp)
    4f99:	83 7d f8 1f          	cmpl   $0x1f,-0x8(%rbp)
    4f9d:	77 21                	ja     4fc0 <safe_lshift_func_uint32_t_u_u+0x35>
    4f9f:	8b 45 f8             	mov    -0x8(%rbp),%eax
    4fa2:	ba ff ff ff ff       	mov    $0xffffffff,%edx
    4fa7:	89 c1                	mov    %eax,%ecx
    4fa9:	d3 ea                	shr    %cl,%edx
    4fab:	89 d0                	mov    %edx,%eax
    4fad:	39 45 fc             	cmp    %eax,-0x4(%rbp)
    4fb0:	77 0e                	ja     4fc0 <safe_lshift_func_uint32_t_u_u+0x35>
    4fb2:	8b 45 f8             	mov    -0x8(%rbp),%eax
    4fb5:	8b 55 fc             	mov    -0x4(%rbp),%edx
    4fb8:	89 c1                	mov    %eax,%ecx
    4fba:	d3 e2                	shl    %cl,%edx
    4fbc:	89 d0                	mov    %edx,%eax
    4fbe:	eb 03                	jmp    4fc3 <safe_lshift_func_uint32_t_u_u+0x38>
    4fc0:	8b 45 fc             	mov    -0x4(%rbp),%eax
    4fc3:	5d                   	pop    %rbp
    4fc4:	c3                   	retq   

0000000000004fc5 <safe_rshift_func_uint32_t_u_s>:
    4fc5:	f3 0f 1e fa          	endbr64 
    4fc9:	55                   	push   %rbp
    4fca:	48 89 e5             	mov    %rsp,%rbp
    4fcd:	89 7d fc             	mov    %edi,-0x4(%rbp)
    4fd0:	89 75 f8             	mov    %esi,-0x8(%rbp)
    4fd3:	83 7d f8 00          	cmpl   $0x0,-0x8(%rbp)
    4fd7:	78 14                	js     4fed <safe_rshift_func_uint32_t_u_s+0x28>
    4fd9:	83 7d f8 1f          	cmpl   $0x1f,-0x8(%rbp)
    4fdd:	7f 0e                	jg     4fed <safe_rshift_func_uint32_t_u_s+0x28>
    4fdf:	8b 45 f8             	mov    -0x8(%rbp),%eax
    4fe2:	8b 55 fc             	mov    -0x4(%rbp),%edx
    4fe5:	89 c1                	mov    %eax,%ecx
    4fe7:	d3 ea                	shr    %cl,%edx
    4fe9:	89 d0                	mov    %edx,%eax
    4feb:	eb 03                	jmp    4ff0 <safe_rshift_func_uint32_t_u_s+0x2b>
    4fed:	8b 45 fc             	mov    -0x4(%rbp),%eax
    4ff0:	5d                   	pop    %rbp
    4ff1:	c3                   	retq   

0000000000004ff2 <safe_rshift_func_uint32_t_u_u>:
    4ff2:	f3 0f 1e fa          	endbr64 
    4ff6:	55                   	push   %rbp
    4ff7:	48 89 e5             	mov    %rsp,%rbp
    4ffa:	89 7d fc             	mov    %edi,-0x4(%rbp)
    4ffd:	89 75 f8             	mov    %esi,-0x8(%rbp)
    5000:	83 7d f8 1f          	cmpl   $0x1f,-0x8(%rbp)
    5004:	77 0e                	ja     5014 <safe_rshift_func_uint32_t_u_u+0x22>
    5006:	8b 45 f8             	mov    -0x8(%rbp),%eax
    5009:	8b 55 fc             	mov    -0x4(%rbp),%edx
    500c:	89 c1                	mov    %eax,%ecx
    500e:	d3 ea                	shr    %cl,%edx
    5010:	89 d0                	mov    %edx,%eax
    5012:	eb 03                	jmp    5017 <safe_rshift_func_uint32_t_u_u+0x25>
    5014:	8b 45 fc             	mov    -0x4(%rbp),%eax
    5017:	5d                   	pop    %rbp
    5018:	c3                   	retq   

0000000000005019 <safe_unary_minus_func_uint64_t_u>:
    5019:	f3 0f 1e fa          	endbr64 
    501d:	55                   	push   %rbp
    501e:	48 89 e5             	mov    %rsp,%rbp
    5021:	48 89 7d f8          	mov    %rdi,-0x8(%rbp)
    5025:	48 8b 45 f8          	mov    -0x8(%rbp),%rax
    5029:	48 f7 d8             	neg    %rax
    502c:	5d                   	pop    %rbp
    502d:	c3                   	retq   

000000000000502e <safe_add_func_uint64_t_u_u>:
    502e:	f3 0f 1e fa          	endbr64 
    5032:	55                   	push   %rbp
    5033:	48 89 e5             	mov    %rsp,%rbp
    5036:	48 89 7d f8          	mov    %rdi,-0x8(%rbp)
    503a:	48 89 75 f0          	mov    %rsi,-0x10(%rbp)
    503e:	48 8b 55 f8          	mov    -0x8(%rbp),%rdx
    5042:	48 8b 45 f0          	mov    -0x10(%rbp),%rax
    5046:	48 01 d0             	add    %rdx,%rax
    5049:	5d                   	pop    %rbp
    504a:	c3                   	retq   

000000000000504b <safe_sub_func_uint64_t_u_u>:
    504b:	f3 0f 1e fa          	endbr64 
    504f:	55                   	push   %rbp
    5050:	48 89 e5             	mov    %rsp,%rbp
    5053:	48 89 7d f8          	mov    %rdi,-0x8(%rbp)
    5057:	48 89 75 f0          	mov    %rsi,-0x10(%rbp)
    505b:	48 8b 45 f8          	mov    -0x8(%rbp),%rax
    505f:	48 2b 45 f0          	sub    -0x10(%rbp),%rax
    5063:	5d                   	pop    %rbp
    5064:	c3                   	retq   

0000000000005065 <safe_mul_func_uint64_t_u_u>:
    5065:	f3 0f 1e fa          	endbr64 
    5069:	55                   	push   %rbp
    506a:	48 89 e5             	mov    %rsp,%rbp
    506d:	48 89 7d f8          	mov    %rdi,-0x8(%rbp)
    5071:	48 89 75 f0          	mov    %rsi,-0x10(%rbp)
    5075:	48 8b 45 f8          	mov    -0x8(%rbp),%rax
    5079:	48 0f af 45 f0       	imul   -0x10(%rbp),%rax
    507e:	5d                   	pop    %rbp
    507f:	c3                   	retq   

0000000000005080 <safe_mod_func_uint64_t_u_u>:
    5080:	f3 0f 1e fa          	endbr64 
    5084:	55                   	push   %rbp
    5085:	48 89 e5             	mov    %rsp,%rbp
    5088:	48 89 7d f8          	mov    %rdi,-0x8(%rbp)
    508c:	48 89 75 f0          	mov    %rsi,-0x10(%rbp)
    5090:	48 83 7d f0 00       	cmpq   $0x0,-0x10(%rbp)
    5095:	74 12                	je     50a9 <safe_mod_func_uint64_t_u_u+0x29>
    5097:	48 8b 45 f8          	mov    -0x8(%rbp),%rax
    509b:	ba 00 00 00 00       	mov    $0x0,%edx
    50a0:	48 f7 75 f0          	divq   -0x10(%rbp)
    50a4:	48 89 d0             	mov    %rdx,%rax
    50a7:	eb 04                	jmp    50ad <safe_mod_func_uint64_t_u_u+0x2d>
    50a9:	48 8b 45 f8          	mov    -0x8(%rbp),%rax
    50ad:	5d                   	pop    %rbp
    50ae:	c3                   	retq   

00000000000050af <safe_div_func_uint64_t_u_u>:
    50af:	f3 0f 1e fa          	endbr64 
    50b3:	55                   	push   %rbp
    50b4:	48 89 e5             	mov    %rsp,%rbp
    50b7:	48 89 7d f8          	mov    %rdi,-0x8(%rbp)
    50bb:	48 89 75 f0          	mov    %rsi,-0x10(%rbp)
    50bf:	48 83 7d f0 00       	cmpq   $0x0,-0x10(%rbp)
    50c4:	74 0f                	je     50d5 <safe_div_func_uint64_t_u_u+0x26>
    50c6:	48 8b 45 f8          	mov    -0x8(%rbp),%rax
    50ca:	ba 00 00 00 00       	mov    $0x0,%edx
    50cf:	48 f7 75 f0          	divq   -0x10(%rbp)
    50d3:	eb 04                	jmp    50d9 <safe_div_func_uint64_t_u_u+0x2a>
    50d5:	48 8b 45 f8          	mov    -0x8(%rbp),%rax
    50d9:	5d                   	pop    %rbp
    50da:	c3                   	retq   

00000000000050db <safe_lshift_func_uint64_t_u_s>:
    50db:	f3 0f 1e fa          	endbr64 
    50df:	55                   	push   %rbp
    50e0:	48 89 e5             	mov    %rsp,%rbp
    50e3:	48 89 7d f8          	mov    %rdi,-0x8(%rbp)
    50e7:	89 75 f4             	mov    %esi,-0xc(%rbp)
    50ea:	83 7d f4 00          	cmpl   $0x0,-0xc(%rbp)
    50ee:	78 2f                	js     511f <safe_lshift_func_uint64_t_u_s+0x44>
    50f0:	83 7d f4 1f          	cmpl   $0x1f,-0xc(%rbp)
    50f4:	7f 29                	jg     511f <safe_lshift_func_uint64_t_u_s+0x44>
    50f6:	8b 45 f4             	mov    -0xc(%rbp),%eax
    50f9:	48 c7 c2 ff ff ff ff 	mov    $0xffffffffffffffff,%rdx
    5100:	89 c1                	mov    %eax,%ecx
    5102:	48 d3 ea             	shr    %cl,%rdx
    5105:	48 89 d0             	mov    %rdx,%rax
    5108:	48 39 45 f8          	cmp    %rax,-0x8(%rbp)
    510c:	77 11                	ja     511f <safe_lshift_func_uint64_t_u_s+0x44>
    510e:	8b 45 f4             	mov    -0xc(%rbp),%eax
    5111:	48 8b 55 f8          	mov    -0x8(%rbp),%rdx
    5115:	89 c1                	mov    %eax,%ecx
    5117:	48 d3 e2             	shl    %cl,%rdx
    511a:	48 89 d0             	mov    %rdx,%rax
    511d:	eb 04                	jmp    5123 <safe_lshift_func_uint64_t_u_s+0x48>
    511f:	48 8b 45 f8          	mov    -0x8(%rbp),%rax
    5123:	5d                   	pop    %rbp
    5124:	c3                   	retq   

0000000000005125 <safe_lshift_func_uint64_t_u_u>:
    5125:	f3 0f 1e fa          	endbr64 
    5129:	55                   	push   %rbp
    512a:	48 89 e5             	mov    %rsp,%rbp
    512d:	48 89 7d f8          	mov    %rdi,-0x8(%rbp)
    5131:	89 75 f4             	mov    %esi,-0xc(%rbp)
    5134:	83 7d f4 1f          	cmpl   $0x1f,-0xc(%rbp)
    5138:	77 29                	ja     5163 <safe_lshift_func_uint64_t_u_u+0x3e>
    513a:	8b 45 f4             	mov    -0xc(%rbp),%eax
    513d:	48 c7 c2 ff ff ff ff 	mov    $0xffffffffffffffff,%rdx
    5144:	89 c1                	mov    %eax,%ecx
    5146:	48 d3 ea             	shr    %cl,%rdx
    5149:	48 89 d0             	mov    %rdx,%rax
    514c:	48 39 45 f8          	cmp    %rax,-0x8(%rbp)
    5150:	77 11                	ja     5163 <safe_lshift_func_uint64_t_u_u+0x3e>
    5152:	8b 45 f4             	mov    -0xc(%rbp),%eax
    5155:	48 8b 55 f8          	mov    -0x8(%rbp),%rdx
    5159:	89 c1                	mov    %eax,%ecx
    515b:	48 d3 e2             	shl    %cl,%rdx
    515e:	48 89 d0             	mov    %rdx,%rax
    5161:	eb 04                	jmp    5167 <safe_lshift_func_uint64_t_u_u+0x42>
    5163:	48 8b 45 f8          	mov    -0x8(%rbp),%rax
    5167:	5d                   	pop    %rbp
    5168:	c3                   	retq   

0000000000005169 <safe_rshift_func_uint64_t_u_s>:
    5169:	f3 0f 1e fa          	endbr64 
    516d:	55                   	push   %rbp
    516e:	48 89 e5             	mov    %rsp,%rbp
    5171:	48 89 7d f8          	mov    %rdi,-0x8(%rbp)
    5175:	89 75 f4             	mov    %esi,-0xc(%rbp)
    5178:	83 7d f4 00          	cmpl   $0x0,-0xc(%rbp)
    517c:	78 17                	js     5195 <safe_rshift_func_uint64_t_u_s+0x2c>
    517e:	83 7d f4 1f          	cmpl   $0x1f,-0xc(%rbp)
    5182:	7f 11                	jg     5195 <safe_rshift_func_uint64_t_u_s+0x2c>
    5184:	8b 45 f4             	mov    -0xc(%rbp),%eax
    5187:	48 8b 55 f8          	mov    -0x8(%rbp),%rdx
    518b:	89 c1                	mov    %eax,%ecx
    518d:	48 d3 ea             	shr    %cl,%rdx
    5190:	48 89 d0             	mov    %rdx,%rax
    5193:	eb 04                	jmp    5199 <safe_rshift_func_uint64_t_u_s+0x30>
    5195:	48 8b 45 f8          	mov    -0x8(%rbp),%rax
    5199:	5d                   	pop    %rbp
    519a:	c3                   	retq   

000000000000519b <safe_rshift_func_uint64_t_u_u>:
    519b:	f3 0f 1e fa          	endbr64 
    519f:	55                   	push   %rbp
    51a0:	48 89 e5             	mov    %rsp,%rbp
    51a3:	48 89 7d f8          	mov    %rdi,-0x8(%rbp)
    51a7:	89 75 f4             	mov    %esi,-0xc(%rbp)
    51aa:	83 7d f4 1f          	cmpl   $0x1f,-0xc(%rbp)
    51ae:	77 11                	ja     51c1 <safe_rshift_func_uint64_t_u_u+0x26>
    51b0:	8b 45 f4             	mov    -0xc(%rbp),%eax
    51b3:	48 8b 55 f8          	mov    -0x8(%rbp),%rdx
    51b7:	89 c1                	mov    %eax,%ecx
    51b9:	48 d3 ea             	shr    %cl,%rdx
    51bc:	48 89 d0             	mov    %rdx,%rax
    51bf:	eb 04                	jmp    51c5 <safe_rshift_func_uint64_t_u_u+0x2a>
    51c1:	48 8b 45 f8          	mov    -0x8(%rbp),%rax
    51c5:	5d                   	pop    %rbp
    51c6:	c3                   	retq   

00000000000051c7 <safe_add_func_float_f_f>:
    51c7:	f3 0f 1e fa          	endbr64 
    51cb:	55                   	push   %rbp
    51cc:	48 89 e5             	mov    %rsp,%rbp
    51cf:	f3 0f 11 45 fc       	movss  %xmm0,-0x4(%rbp)
    51d4:	f3 0f 11 4d f8       	movss  %xmm1,-0x8(%rbp)
    51d9:	f3 0f 10 4d fc       	movss  -0x4(%rbp),%xmm1
    51de:	f3 0f 10 05 9a 8a 00 	movss  0x8a9a(%rip),%xmm0        # dc80 <l_87.4513+0x100>
    51e5:	00 
    51e6:	f3 0f 59 c8          	mulss  %xmm0,%xmm1
    51ea:	f3 0f 10 55 f8       	movss  -0x8(%rbp),%xmm2
    51ef:	f3 0f 10 05 89 8a 00 	movss  0x8a89(%rip),%xmm0        # dc80 <l_87.4513+0x100>
    51f6:	00 
    51f7:	f3 0f 59 c2          	mulss  %xmm2,%xmm0
    51fb:	f3 0f 58 c1          	addss  %xmm1,%xmm0
    51ff:	f3 0f 10 0d 89 8a 00 	movss  0x8a89(%rip),%xmm1        # dc90 <l_87.4513+0x110>
    5206:	00 
    5207:	0f 54 c1             	andps  %xmm1,%xmm0
    520a:	0f 2f 05 8f 8a 00 00 	comiss 0x8a8f(%rip),%xmm0        # dca0 <l_87.4513+0x120>
    5211:	76 07                	jbe    521a <safe_add_func_float_f_f+0x53>
    5213:	f3 0f 10 45 fc       	movss  -0x4(%rbp),%xmm0
    5218:	eb 0a                	jmp    5224 <safe_add_func_float_f_f+0x5d>
    521a:	f3 0f 10 45 fc       	movss  -0x4(%rbp),%xmm0
    521f:	f3 0f 58 45 f8       	addss  -0x8(%rbp),%xmm0
    5224:	5d                   	pop    %rbp
    5225:	c3                   	retq   

0000000000005226 <safe_sub_func_float_f_f>:
    5226:	f3 0f 1e fa          	endbr64 
    522a:	55                   	push   %rbp
    522b:	48 89 e5             	mov    %rsp,%rbp
    522e:	f3 0f 11 45 fc       	movss  %xmm0,-0x4(%rbp)
    5233:	f3 0f 11 4d f8       	movss  %xmm1,-0x8(%rbp)
    5238:	f3 0f 10 4d fc       	movss  -0x4(%rbp),%xmm1
    523d:	f3 0f 10 05 3b 8a 00 	movss  0x8a3b(%rip),%xmm0        # dc80 <l_87.4513+0x100>
    5244:	00 
    5245:	f3 0f 59 c1          	mulss  %xmm1,%xmm0
    5249:	f3 0f 10 55 f8       	movss  -0x8(%rbp),%xmm2
    524e:	f3 0f 10 0d 2a 8a 00 	movss  0x8a2a(%rip),%xmm1        # dc80 <l_87.4513+0x100>
    5255:	00 
    5256:	f3 0f 59 ca          	mulss  %xmm2,%xmm1
    525a:	f3 0f 5c c1          	subss  %xmm1,%xmm0
    525e:	f3 0f 10 0d 2a 8a 00 	movss  0x8a2a(%rip),%xmm1        # dc90 <l_87.4513+0x110>
    5265:	00 
    5266:	0f 54 c1             	andps  %xmm1,%xmm0
    5269:	0f 2f 05 30 8a 00 00 	comiss 0x8a30(%rip),%xmm0        # dca0 <l_87.4513+0x120>
    5270:	76 07                	jbe    5279 <safe_sub_func_float_f_f+0x53>
    5272:	f3 0f 10 45 fc       	movss  -0x4(%rbp),%xmm0
    5277:	eb 0a                	jmp    5283 <safe_sub_func_float_f_f+0x5d>
    5279:	f3 0f 10 45 fc       	movss  -0x4(%rbp),%xmm0
    527e:	f3 0f 5c 45 f8       	subss  -0x8(%rbp),%xmm0
    5283:	5d                   	pop    %rbp
    5284:	c3                   	retq   

0000000000005285 <safe_mul_func_float_f_f>:
    5285:	f3 0f 1e fa          	endbr64 
    5289:	55                   	push   %rbp
    528a:	48 89 e5             	mov    %rsp,%rbp
    528d:	f3 0f 11 45 fc       	movss  %xmm0,-0x4(%rbp)
    5292:	f3 0f 11 4d f8       	movss  %xmm1,-0x8(%rbp)
    5297:	f3 0f 10 4d fc       	movss  -0x4(%rbp),%xmm1
    529c:	f3 0f 10 05 00 8a 00 	movss  0x8a00(%rip),%xmm0        # dca4 <l_87.4513+0x124>
    52a3:	00 
    52a4:	f3 0f 59 c8          	mulss  %xmm0,%xmm1
    52a8:	f3 0f 10 55 f8       	movss  -0x8(%rbp),%xmm2
    52ad:	f3 0f 10 05 f3 89 00 	movss  0x89f3(%rip),%xmm0        # dca8 <l_87.4513+0x128>
    52b4:	00 
    52b5:	f3 0f 59 c2          	mulss  %xmm2,%xmm0
    52b9:	f3 0f 59 c1          	mulss  %xmm1,%xmm0
    52bd:	f3 0f 10 0d cb 89 00 	movss  0x89cb(%rip),%xmm1        # dc90 <l_87.4513+0x110>
    52c4:	00 
    52c5:	0f 54 c1             	andps  %xmm1,%xmm0
    52c8:	0f 2f 05 dd 89 00 00 	comiss 0x89dd(%rip),%xmm0        # dcac <l_87.4513+0x12c>
    52cf:	76 07                	jbe    52d8 <safe_mul_func_float_f_f+0x53>
    52d1:	f3 0f 10 45 fc       	movss  -0x4(%rbp),%xmm0
    52d6:	eb 0a                	jmp    52e2 <safe_mul_func_float_f_f+0x5d>
    52d8:	f3 0f 10 45 fc       	movss  -0x4(%rbp),%xmm0
    52dd:	f3 0f 59 45 f8       	mulss  -0x8(%rbp),%xmm0
    52e2:	5d                   	pop    %rbp
    52e3:	c3                   	retq   

00000000000052e4 <safe_div_func_float_f_f>:
    52e4:	f3 0f 1e fa          	endbr64 
    52e8:	55                   	push   %rbp
    52e9:	48 89 e5             	mov    %rsp,%rbp
    52ec:	f3 0f 11 45 fc       	movss  %xmm0,-0x4(%rbp)
    52f1:	f3 0f 11 4d f8       	movss  %xmm1,-0x8(%rbp)
    52f6:	f3 0f 10 45 f8       	movss  -0x8(%rbp),%xmm0
    52fb:	f3 0f 10 0d 8d 89 00 	movss  0x898d(%rip),%xmm1        # dc90 <l_87.4513+0x110>
    5302:	00 
    5303:	0f 54 c8             	andps  %xmm0,%xmm1
    5306:	f3 0f 10 05 a2 89 00 	movss  0x89a2(%rip),%xmm0        # dcb0 <l_87.4513+0x130>
    530d:	00 
    530e:	0f 2f c1             	comiss %xmm1,%xmm0
    5311:	0f 97 c0             	seta   %al
    5314:	83 f0 01             	xor    $0x1,%eax
    5317:	84 c0                	test   %al,%al
    5319:	75 56                	jne    5371 <safe_div_func_float_f_f+0x8d>
    531b:	66 0f ef c0          	pxor   %xmm0,%xmm0
    531f:	0f 2e 45 f8          	ucomiss -0x8(%rbp),%xmm0
    5323:	7a 0a                	jp     532f <safe_div_func_float_f_f+0x4b>
    5325:	66 0f ef c0          	pxor   %xmm0,%xmm0
    5329:	0f 2e 45 f8          	ucomiss -0x8(%rbp),%xmm0
    532d:	74 4e                	je     537d <safe_div_func_float_f_f+0x99>
    532f:	f3 0f 10 4d fc       	movss  -0x4(%rbp),%xmm1
    5334:	f3 0f 10 05 78 89 00 	movss  0x8978(%rip),%xmm0        # dcb4 <l_87.4513+0x134>
    533b:	00 
    533c:	f3 0f 59 c1          	mulss  %xmm1,%xmm0
    5340:	f3 0f 10 55 f8       	movss  -0x8(%rbp),%xmm2
    5345:	f3 0f 10 0d 6b 89 00 	movss  0x896b(%rip),%xmm1        # dcb8 <l_87.4513+0x138>
    534c:	00 
    534d:	f3 0f 59 ca          	mulss  %xmm2,%xmm1
    5351:	f3 0f 5e c1          	divss  %xmm1,%xmm0
    5355:	f3 0f 10 0d 33 89 00 	movss  0x8933(%rip),%xmm1        # dc90 <l_87.4513+0x110>
    535c:	00 
    535d:	0f 54 c1             	andps  %xmm1,%xmm0
    5360:	0f 2f 05 55 89 00 00 	comiss 0x8955(%rip),%xmm0        # dcbc <l_87.4513+0x13c>
    5367:	0f 97 c0             	seta   %al
    536a:	83 f0 01             	xor    $0x1,%eax
    536d:	84 c0                	test   %al,%al
    536f:	74 0c                	je     537d <safe_div_func_float_f_f+0x99>
    5371:	f3 0f 10 45 fc       	movss  -0x4(%rbp),%xmm0
    5376:	f3 0f 5e 45 f8       	divss  -0x8(%rbp),%xmm0
    537b:	eb 05                	jmp    5382 <safe_div_func_float_f_f+0x9e>
    537d:	f3 0f 10 45 fc       	movss  -0x4(%rbp),%xmm0
    5382:	5d                   	pop    %rbp
    5383:	c3                   	retq   

0000000000005384 <safe_add_func_double_f_f>:
    5384:	f3 0f 1e fa          	endbr64 
    5388:	55                   	push   %rbp
    5389:	48 89 e5             	mov    %rsp,%rbp
    538c:	f2 0f 11 45 f8       	movsd  %xmm0,-0x8(%rbp)
    5391:	f2 0f 11 4d f0       	movsd  %xmm1,-0x10(%rbp)
    5396:	f2 0f 10 4d f8       	movsd  -0x8(%rbp),%xmm1
    539b:	f2 0f 10 05 1d 89 00 	movsd  0x891d(%rip),%xmm0        # dcc0 <l_87.4513+0x140>
    53a2:	00 
    53a3:	f2 0f 59 c8          	mulsd  %xmm0,%xmm1
    53a7:	f2 0f 10 55 f0       	movsd  -0x10(%rbp),%xmm2
    53ac:	f2 0f 10 05 0c 89 00 	movsd  0x890c(%rip),%xmm0        # dcc0 <l_87.4513+0x140>
    53b3:	00 
    53b4:	f2 0f 59 c2          	mulsd  %xmm2,%xmm0
    53b8:	f2 0f 58 c1          	addsd  %xmm1,%xmm0
    53bc:	f3 0f 7e 0d 0c 89 00 	movq   0x890c(%rip),%xmm1        # dcd0 <l_87.4513+0x150>
    53c3:	00 
    53c4:	66 0f 54 c1          	andpd  %xmm1,%xmm0
    53c8:	66 0f 2f 05 10 89 00 	comisd 0x8910(%rip),%xmm0        # dce0 <l_87.4513+0x160>
    53cf:	00 
    53d0:	76 07                	jbe    53d9 <safe_add_func_double_f_f+0x55>
    53d2:	f2 0f 10 45 f8       	movsd  -0x8(%rbp),%xmm0
    53d7:	eb 0a                	jmp    53e3 <safe_add_func_double_f_f+0x5f>
    53d9:	f2 0f 10 45 f8       	movsd  -0x8(%rbp),%xmm0
    53de:	f2 0f 58 45 f0       	addsd  -0x10(%rbp),%xmm0
    53e3:	5d                   	pop    %rbp
    53e4:	c3                   	retq   

00000000000053e5 <safe_sub_func_double_f_f>:
    53e5:	f3 0f 1e fa          	endbr64 
    53e9:	55                   	push   %rbp
    53ea:	48 89 e5             	mov    %rsp,%rbp
    53ed:	f2 0f 11 45 f8       	movsd  %xmm0,-0x8(%rbp)
    53f2:	f2 0f 11 4d f0       	movsd  %xmm1,-0x10(%rbp)
    53f7:	f2 0f 10 4d f8       	movsd  -0x8(%rbp),%xmm1
    53fc:	f2 0f 10 05 bc 88 00 	movsd  0x88bc(%rip),%xmm0        # dcc0 <l_87.4513+0x140>
    5403:	00 
    5404:	f2 0f 59 c1          	mulsd  %xmm1,%xmm0
    5408:	f2 0f 10 55 f0       	movsd  -0x10(%rbp),%xmm2
    540d:	f2 0f 10 0d ab 88 00 	movsd  0x88ab(%rip),%xmm1        # dcc0 <l_87.4513+0x140>
    5414:	00 
    5415:	f2 0f 59 ca          	mulsd  %xmm2,%xmm1
    5419:	f2 0f 5c c1          	subsd  %xmm1,%xmm0
    541d:	f3 0f 7e 0d ab 88 00 	movq   0x88ab(%rip),%xmm1        # dcd0 <l_87.4513+0x150>
    5424:	00 
    5425:	66 0f 54 c1          	andpd  %xmm1,%xmm0
    5429:	66 0f 2f 05 af 88 00 	comisd 0x88af(%rip),%xmm0        # dce0 <l_87.4513+0x160>
    5430:	00 
    5431:	76 07                	jbe    543a <safe_sub_func_double_f_f+0x55>
    5433:	f2 0f 10 45 f8       	movsd  -0x8(%rbp),%xmm0
    5438:	eb 0a                	jmp    5444 <safe_sub_func_double_f_f+0x5f>
    543a:	f2 0f 10 45 f8       	movsd  -0x8(%rbp),%xmm0
    543f:	f2 0f 5c 45 f0       	subsd  -0x10(%rbp),%xmm0
    5444:	5d                   	pop    %rbp
    5445:	c3                   	retq   

0000000000005446 <safe_mul_func_double_f_f>:
    5446:	f3 0f 1e fa          	endbr64 
    544a:	55                   	push   %rbp
    544b:	48 89 e5             	mov    %rsp,%rbp
    544e:	f2 0f 11 45 f8       	movsd  %xmm0,-0x8(%rbp)
    5453:	f2 0f 11 4d f0       	movsd  %xmm1,-0x10(%rbp)
    5458:	f2 0f 10 4d f8       	movsd  -0x8(%rbp),%xmm1
    545d:	f2 0f 10 05 83 88 00 	movsd  0x8883(%rip),%xmm0        # dce8 <l_87.4513+0x168>
    5464:	00 
    5465:	f2 0f 59 c8          	mulsd  %xmm0,%xmm1
    5469:	f2 0f 10 55 f0       	movsd  -0x10(%rbp),%xmm2
    546e:	f2 0f 10 05 7a 88 00 	movsd  0x887a(%rip),%xmm0        # dcf0 <l_87.4513+0x170>
    5475:	00 
    5476:	f2 0f 59 c2          	mulsd  %xmm2,%xmm0
    547a:	f2 0f 59 c1          	mulsd  %xmm1,%xmm0
    547e:	f3 0f 7e 0d 4a 88 00 	movq   0x884a(%rip),%xmm1        # dcd0 <l_87.4513+0x150>
    5485:	00 
    5486:	66 0f 54 c1          	andpd  %xmm1,%xmm0
    548a:	66 0f 2f 05 66 88 00 	comisd 0x8866(%rip),%xmm0        # dcf8 <l_87.4513+0x178>
    5491:	00 
    5492:	76 07                	jbe    549b <safe_mul_func_double_f_f+0x55>
    5494:	f2 0f 10 45 f8       	movsd  -0x8(%rbp),%xmm0
    5499:	eb 0a                	jmp    54a5 <safe_mul_func_double_f_f+0x5f>
    549b:	f2 0f 10 45 f8       	movsd  -0x8(%rbp),%xmm0
    54a0:	f2 0f 59 45 f0       	mulsd  -0x10(%rbp),%xmm0
    54a5:	5d                   	pop    %rbp
    54a6:	c3                   	retq   

00000000000054a7 <safe_div_func_double_f_f>:
    54a7:	f3 0f 1e fa          	endbr64 
    54ab:	55                   	push   %rbp
    54ac:	48 89 e5             	mov    %rsp,%rbp
    54af:	f2 0f 11 45 f8       	movsd  %xmm0,-0x8(%rbp)
    54b4:	f2 0f 11 4d f0       	movsd  %xmm1,-0x10(%rbp)
    54b9:	f2 0f 10 45 f0       	movsd  -0x10(%rbp),%xmm0
    54be:	f3 0f 7e 0d 0a 88 00 	movq   0x880a(%rip),%xmm1        # dcd0 <l_87.4513+0x150>
    54c5:	00 
    54c6:	66 0f 54 c8          	andpd  %xmm0,%xmm1
    54ca:	f2 0f 10 05 2e 88 00 	movsd  0x882e(%rip),%xmm0        # dd00 <l_87.4513+0x180>
    54d1:	00 
    54d2:	66 0f 2f c1          	comisd %xmm1,%xmm0
    54d6:	0f 97 c0             	seta   %al
    54d9:	83 f0 01             	xor    $0x1,%eax
    54dc:	84 c0                	test   %al,%al
    54de:	75 5a                	jne    553a <safe_div_func_double_f_f+0x93>
    54e0:	66 0f ef c0          	pxor   %xmm0,%xmm0
    54e4:	66 0f 2e 45 f0       	ucomisd -0x10(%rbp),%xmm0
    54e9:	7a 0b                	jp     54f6 <safe_div_func_double_f_f+0x4f>
    54eb:	66 0f ef c0          	pxor   %xmm0,%xmm0
    54ef:	66 0f 2e 45 f0       	ucomisd -0x10(%rbp),%xmm0
    54f4:	74 50                	je     5546 <safe_div_func_double_f_f+0x9f>
    54f6:	f2 0f 10 4d f8       	movsd  -0x8(%rbp),%xmm1
    54fb:	f2 0f 10 05 05 88 00 	movsd  0x8805(%rip),%xmm0        # dd08 <l_87.4513+0x188>
    5502:	00 
    5503:	f2 0f 59 c1          	mulsd  %xmm1,%xmm0
    5507:	f2 0f 10 55 f0       	movsd  -0x10(%rbp),%xmm2
    550c:	f2 0f 10 0d fc 87 00 	movsd  0x87fc(%rip),%xmm1        # dd10 <l_87.4513+0x190>
    5513:	00 
    5514:	f2 0f 59 ca          	mulsd  %xmm2,%xmm1
    5518:	f2 0f 5e c1          	divsd  %xmm1,%xmm0
    551c:	f3 0f 7e 0d ac 87 00 	movq   0x87ac(%rip),%xmm1        # dcd0 <l_87.4513+0x150>
    5523:	00 
    5524:	66 0f 54 c1          	andpd  %xmm1,%xmm0
    5528:	66 0f 2f 05 e8 87 00 	comisd 0x87e8(%rip),%xmm0        # dd18 <l_87.4513+0x198>
    552f:	00 
    5530:	0f 97 c0             	seta   %al
    5533:	83 f0 01             	xor    $0x1,%eax
    5536:	84 c0                	test   %al,%al
    5538:	74 0c                	je     5546 <safe_div_func_double_f_f+0x9f>
    553a:	f2 0f 10 45 f8       	movsd  -0x8(%rbp),%xmm0
    553f:	f2 0f 5e 45 f0       	divsd  -0x10(%rbp),%xmm0
    5544:	eb 05                	jmp    554b <safe_div_func_double_f_f+0xa4>
    5546:	f2 0f 10 45 f8       	movsd  -0x8(%rbp),%xmm0
    554b:	5d                   	pop    %rbp
    554c:	c3                   	retq   

000000000000554d <safe_convert_func_float_to_int32_t>:
    554d:	f3 0f 1e fa          	endbr64 
    5551:	55                   	push   %rbp
    5552:	48 89 e5             	mov    %rsp,%rbp
    5555:	f3 0f 11 45 fc       	movss  %xmm0,-0x4(%rbp)
    555a:	f3 0f 10 05 be 87 00 	movss  0x87be(%rip),%xmm0        # dd20 <l_87.4513+0x1a0>
    5561:	00 
    5562:	0f 2f 45 fc          	comiss -0x4(%rbp),%xmm0
    5566:	0f 93 c0             	setae  %al
    5569:	83 f0 01             	xor    $0x1,%eax
    556c:	84 c0                	test   %al,%al
    556e:	74 21                	je     5591 <safe_convert_func_float_to_int32_t+0x44>
    5570:	f3 0f 10 45 fc       	movss  -0x4(%rbp),%xmm0
    5575:	0f 2f 05 a8 87 00 00 	comiss 0x87a8(%rip),%xmm0        # dd24 <l_87.4513+0x1a4>
    557c:	0f 93 c0             	setae  %al
    557f:	83 f0 01             	xor    $0x1,%eax
    5582:	84 c0                	test   %al,%al
    5584:	74 0b                	je     5591 <safe_convert_func_float_to_int32_t+0x44>
    5586:	f3 0f 10 45 fc       	movss  -0x4(%rbp),%xmm0
    558b:	f3 0f 2c c0          	cvttss2si %xmm0,%eax
    558f:	eb 05                	jmp    5596 <safe_convert_func_float_to_int32_t+0x49>
    5591:	b8 ff ff ff 7f       	mov    $0x7fffffff,%eax
    5596:	5d                   	pop    %rbp
    5597:	c3                   	retq   

0000000000005598 <crc32_gentab>:
    5598:	f3 0f 1e fa          	endbr64 
    559c:	55                   	push   %rbp
    559d:	48 89 e5             	mov    %rsp,%rbp
    55a0:	c7 45 fc 20 83 b8 ed 	movl   $0xedb88320,-0x4(%rbp)
    55a7:	c7 45 f4 00 00 00 00 	movl   $0x0,-0xc(%rbp)
    55ae:	eb 51                	jmp    5601 <crc32_gentab+0x69>
    55b0:	8b 45 f4             	mov    -0xc(%rbp),%eax
    55b3:	89 45 f0             	mov    %eax,-0x10(%rbp)
    55b6:	c7 45 f8 08 00 00 00 	movl   $0x8,-0x8(%rbp)
    55bd:	eb 1e                	jmp    55dd <crc32_gentab+0x45>
    55bf:	8b 45 f0             	mov    -0x10(%rbp),%eax
    55c2:	83 e0 01             	and    $0x1,%eax
    55c5:	85 c0                	test   %eax,%eax
    55c7:	74 0d                	je     55d6 <crc32_gentab+0x3e>
    55c9:	8b 45 f0             	mov    -0x10(%rbp),%eax
    55cc:	d1 e8                	shr    %eax
    55ce:	33 45 fc             	xor    -0x4(%rbp),%eax
    55d1:	89 45 f0             	mov    %eax,-0x10(%rbp)
    55d4:	eb 03                	jmp    55d9 <crc32_gentab+0x41>
    55d6:	d1 6d f0             	shrl   -0x10(%rbp)
    55d9:	83 6d f8 01          	subl   $0x1,-0x8(%rbp)
    55dd:	83 7d f8 00          	cmpl   $0x0,-0x8(%rbp)
    55e1:	7f dc                	jg     55bf <crc32_gentab+0x27>
    55e3:	8b 45 f4             	mov    -0xc(%rbp),%eax
    55e6:	48 98                	cltq   
    55e8:	48 8d 0c 85 00 00 00 	lea    0x0(,%rax,4),%rcx
    55ef:	00 
    55f0:	48 8d 15 69 db 00 00 	lea    0xdb69(%rip),%rdx        # 13160 <crc32_tab>
    55f7:	8b 45 f0             	mov    -0x10(%rbp),%eax
    55fa:	89 04 11             	mov    %eax,(%rcx,%rdx,1)
    55fd:	83 45 f4 01          	addl   $0x1,-0xc(%rbp)
    5601:	81 7d f4 ff 00 00 00 	cmpl   $0xff,-0xc(%rbp)
    5608:	7e a6                	jle    55b0 <crc32_gentab+0x18>
    560a:	90                   	nop
    560b:	90                   	nop
    560c:	5d                   	pop    %rbp
    560d:	c3                   	retq   

000000000000560e <crc32_byte>:
    560e:	f3 0f 1e fa          	endbr64 
    5612:	55                   	push   %rbp
    5613:	48 89 e5             	mov    %rsp,%rbp
    5616:	89 f8                	mov    %edi,%eax
    5618:	88 45 fc             	mov    %al,-0x4(%rbp)
    561b:	8b 05 ff b9 00 00    	mov    0xb9ff(%rip),%eax        # 11020 <crc32_context>
    5621:	c1 e8 08             	shr    $0x8,%eax
    5624:	89 c1                	mov    %eax,%ecx
    5626:	0f b6 55 fc          	movzbl -0x4(%rbp),%edx
    562a:	8b 05 f0 b9 00 00    	mov    0xb9f0(%rip),%eax        # 11020 <crc32_context>
    5630:	31 d0                	xor    %edx,%eax
    5632:	0f b6 c0             	movzbl %al,%eax
    5635:	89 c0                	mov    %eax,%eax
    5637:	48 8d 14 85 00 00 00 	lea    0x0(,%rax,4),%rdx
    563e:	00 
    563f:	48 8d 05 1a db 00 00 	lea    0xdb1a(%rip),%rax        # 13160 <crc32_tab>
    5646:	8b 04 02             	mov    (%rdx,%rax,1),%eax
    5649:	31 c8                	xor    %ecx,%eax
    564b:	89 05 cf b9 00 00    	mov    %eax,0xb9cf(%rip)        # 11020 <crc32_context>
    5651:	90                   	nop
    5652:	5d                   	pop    %rbp
    5653:	c3                   	retq   

0000000000005654 <crc32_8bytes>:
    5654:	f3 0f 1e fa          	endbr64 
    5658:	55                   	push   %rbp
    5659:	48 89 e5             	mov    %rsp,%rbp
    565c:	48 83 ec 08          	sub    $0x8,%rsp
    5660:	48 89 7d f8          	mov    %rdi,-0x8(%rbp)
    5664:	48 8b 45 f8          	mov    -0x8(%rbp),%rax
    5668:	0f b6 c0             	movzbl %al,%eax
    566b:	89 c7                	mov    %eax,%edi
    566d:	e8 9c ff ff ff       	callq  560e <crc32_byte>
    5672:	48 8b 45 f8          	mov    -0x8(%rbp),%rax
    5676:	48 c1 e8 08          	shr    $0x8,%rax
    567a:	0f b6 c0             	movzbl %al,%eax
    567d:	89 c7                	mov    %eax,%edi
    567f:	e8 8a ff ff ff       	callq  560e <crc32_byte>
    5684:	48 8b 45 f8          	mov    -0x8(%rbp),%rax
    5688:	48 c1 e8 10          	shr    $0x10,%rax
    568c:	0f b6 c0             	movzbl %al,%eax
    568f:	89 c7                	mov    %eax,%edi
    5691:	e8 78 ff ff ff       	callq  560e <crc32_byte>
    5696:	48 8b 45 f8          	mov    -0x8(%rbp),%rax
    569a:	48 c1 e8 18          	shr    $0x18,%rax
    569e:	0f b6 c0             	movzbl %al,%eax
    56a1:	89 c7                	mov    %eax,%edi
    56a3:	e8 66 ff ff ff       	callq  560e <crc32_byte>
    56a8:	48 8b 45 f8          	mov    -0x8(%rbp),%rax
    56ac:	48 c1 e8 20          	shr    $0x20,%rax
    56b0:	0f b6 c0             	movzbl %al,%eax
    56b3:	89 c7                	mov    %eax,%edi
    56b5:	e8 54 ff ff ff       	callq  560e <crc32_byte>
    56ba:	48 8b 45 f8          	mov    -0x8(%rbp),%rax
    56be:	48 c1 e8 28          	shr    $0x28,%rax
    56c2:	0f b6 c0             	movzbl %al,%eax
    56c5:	89 c7                	mov    %eax,%edi
    56c7:	e8 42 ff ff ff       	callq  560e <crc32_byte>
    56cc:	48 8b 45 f8          	mov    -0x8(%rbp),%rax
    56d0:	48 c1 e8 30          	shr    $0x30,%rax
    56d4:	0f b6 c0             	movzbl %al,%eax
    56d7:	89 c7                	mov    %eax,%edi
    56d9:	e8 30 ff ff ff       	callq  560e <crc32_byte>
    56de:	48 8b 45 f8          	mov    -0x8(%rbp),%rax
    56e2:	48 c1 e8 38          	shr    $0x38,%rax
    56e6:	0f b6 c0             	movzbl %al,%eax
    56e9:	89 c7                	mov    %eax,%edi
    56eb:	e8 1e ff ff ff       	callq  560e <crc32_byte>
    56f0:	90                   	nop
    56f1:	c9                   	leaveq 
    56f2:	c3                   	retq   

00000000000056f3 <transparent_crc>:
    56f3:	f3 0f 1e fa          	endbr64 
    56f7:	55                   	push   %rbp
    56f8:	48 89 e5             	mov    %rsp,%rbp
    56fb:	48 83 ec 20          	sub    $0x20,%rsp
    56ff:	48 89 7d f8          	mov    %rdi,-0x8(%rbp)
    5703:	48 89 75 f0          	mov    %rsi,-0x10(%rbp)
    5707:	89 55 ec             	mov    %edx,-0x14(%rbp)
    570a:	48 8b 45 f8          	mov    -0x8(%rbp),%rax
    570e:	48 89 c7             	mov    %rax,%rdi
    5711:	e8 3e ff ff ff       	callq  5654 <crc32_8bytes>
    5716:	83 7d ec 00          	cmpl   $0x0,-0x14(%rbp)
    571a:	74 22                	je     573e <transparent_crc+0x4b>
    571c:	8b 05 fe b8 00 00    	mov    0xb8fe(%rip),%eax        # 11020 <crc32_context>
    5722:	f7 d0                	not    %eax
    5724:	89 c2                	mov    %eax,%edx
    5726:	48 8b 45 f0          	mov    -0x10(%rbp),%rax
    572a:	48 89 c6             	mov    %rax,%rsi
    572d:	48 8d 3d fc 68 00 00 	lea    0x68fc(%rip),%rdi        # c030 <_IO_stdin_used+0x30>
    5734:	b8 00 00 00 00       	mov    $0x0,%eax
    5739:	e8 42 e9 ff ff       	callq  4080 <printf@plt>
    573e:	90                   	nop
    573f:	c9                   	leaveq 
    5740:	c3                   	retq   

0000000000005741 <transparent_crc_bytes>:
    5741:	f3 0f 1e fa          	endbr64 
    5745:	55                   	push   %rbp
    5746:	48 89 e5             	mov    %rsp,%rbp
    5749:	48 83 ec 30          	sub    $0x30,%rsp
    574d:	48 89 7d e8          	mov    %rdi,-0x18(%rbp)
    5751:	89 75 e4             	mov    %esi,-0x1c(%rbp)
    5754:	48 89 55 d8          	mov    %rdx,-0x28(%rbp)
    5758:	89 4d e0             	mov    %ecx,-0x20(%rbp)
    575b:	c7 45 fc 00 00 00 00 	movl   $0x0,-0x4(%rbp)
    5762:	eb 1e                	jmp    5782 <transparent_crc_bytes+0x41>
    5764:	8b 45 fc             	mov    -0x4(%rbp),%eax
    5767:	48 63 d0             	movslq %eax,%rdx
    576a:	48 8b 45 e8          	mov    -0x18(%rbp),%rax
    576e:	48 01 d0             	add    %rdx,%rax
    5771:	0f b6 00             	movzbl (%rax),%eax
    5774:	0f b6 c0             	movzbl %al,%eax
    5777:	89 c7                	mov    %eax,%edi
    5779:	e8 90 fe ff ff       	callq  560e <crc32_byte>
    577e:	83 45 fc 01          	addl   $0x1,-0x4(%rbp)
    5782:	8b 45 fc             	mov    -0x4(%rbp),%eax
    5785:	3b 45 e4             	cmp    -0x1c(%rbp),%eax
    5788:	7c da                	jl     5764 <transparent_crc_bytes+0x23>
    578a:	83 7d e0 00          	cmpl   $0x0,-0x20(%rbp)
    578e:	74 22                	je     57b2 <transparent_crc_bytes+0x71>
    5790:	8b 05 8a b8 00 00    	mov    0xb88a(%rip),%eax        # 11020 <crc32_context>
    5796:	f7 d0                	not    %eax
    5798:	89 c2                	mov    %eax,%edx
    579a:	48 8b 45 d8          	mov    -0x28(%rbp),%rax
    579e:	48 89 c6             	mov    %rax,%rsi
    57a1:	48 8d 3d 88 68 00 00 	lea    0x6888(%rip),%rdi        # c030 <_IO_stdin_used+0x30>
    57a8:	b8 00 00 00 00       	mov    $0x0,%eax
    57ad:	e8 ce e8 ff ff       	callq  4080 <printf@plt>
    57b2:	90                   	nop
    57b3:	c9                   	leaveq 
    57b4:	c3                   	retq   

00000000000057b5 <func_1>:
    57b5:	f3 0f 1e fa          	endbr64 
    57b9:	55                   	push   %rbp
    57ba:	48 89 e5             	mov    %rsp,%rbp
    57bd:	41 55                	push   %r13
    57bf:	41 54                	push   %r12
    57c1:	53                   	push   %rbx
    57c2:	48 81 ec 00 10 00 00 	sub    $0x1000,%rsp
    57c9:	48 83 0c 24 00       	orq    $0x0,(%rsp)
    57ce:	48 81 ec 78 05 00 00 	sub    $0x578,%rsp
    57d5:	64 48 8b 04 25 28 00 	mov    %fs:0x28,%rax
    57dc:	00 00 
    57de:	48 89 45 d8          	mov    %rax,-0x28(%rbp)
    57e2:	31 c0                	xor    %eax,%eax
    57e4:	c6 85 77 ea ff ff ec 	movb   $0xec,-0x1589(%rbp)
    57eb:	c7 85 88 ea ff ff 66 	movl   $0x2028d766,-0x1578(%rbp)
    57f2:	d7 28 20 
    57f5:	48 c7 85 38 eb ff ff 	movq   $0x0,-0x14c8(%rbp)
    57fc:	00 00 00 00 
    5800:	48 8d 05 61 cd 00 00 	lea    0xcd61(%rip),%rax        # 12568 <g_461+0xc8>
    5807:	48 89 85 e0 ea ff ff 	mov    %rax,-0x1520(%rbp)
    580e:	48 8d 85 e0 ea ff ff 	lea    -0x1520(%rbp),%rax
    5815:	48 89 85 e8 ea ff ff 	mov    %rax,-0x1518(%rbp)
    581c:	48 c7 85 40 eb ff ff 	movq   $0x0,-0x14c0(%rbp)
    5823:	00 00 00 00 
    5827:	c7 85 9c ea ff ff 02 	movl   $0x2d684902,-0x1564(%rbp)
    582e:	49 68 2d 
    5831:	66 c7 85 7e ea ff ff 	movw   $0xfffa,-0x1582(%rbp)
    5838:	fa ff 
    583a:	48 c7 85 48 eb ff ff 	movq   $0x0,-0x14b8(%rbp)
    5841:	00 00 00 00 
    5845:	48 c7 85 f0 ea ff ff 	movq   $0x0,-0x1510(%rbp)
    584c:	00 00 00 00 
    5850:	48 8d 85 f0 ea ff ff 	lea    -0x1510(%rbp),%rax
    5857:	48 89 85 50 eb ff ff 	mov    %rax,-0x14b0(%rbp)
    585e:	c7 85 a0 ea ff ff a9 	movl   $0x92209ea9,-0x1560(%rbp)
    5865:	9e 20 92 
    5868:	c7 85 a4 ea ff ff a4 	movl   $0xf0b831a4,-0x155c(%rbp)
    586f:	31 b8 f0 
    5872:	c7 85 a8 ea ff ff 06 	movl   $0x6,-0x1558(%rbp)
    5879:	00 00 00 
    587c:	c7 85 ac ea ff ff 37 	movl   $0xc162db37,-0x1554(%rbp)
    5883:	db 62 c1 
    5886:	66 c7 85 80 ea ff ff 	movw   $0x2,-0x1580(%rbp)
    588d:	02 00 
    588f:	48 8d 05 fa dc 00 00 	lea    0xdcfa(%rip),%rax        # 13590 <g_344>
    5896:	48 89 85 58 eb ff ff 	mov    %rax,-0x14a8(%rbp)
    589d:	c6 85 78 ea ff ff ff 	movb   $0xff,-0x1588(%rbp)
    58a4:	48 8d 05 fd d7 00 00 	lea    0xd7fd(%rip),%rax        # 130a8 <g_1684>
    58ab:	48 89 85 f8 ea ff ff 	mov    %rax,-0x1508(%rbp)
    58b2:	48 8d 85 f8 ea ff ff 	lea    -0x1508(%rbp),%rax
    58b9:	48 89 85 60 eb ff ff 	mov    %rax,-0x14a0(%rbp)
    58c0:	48 8d 05 65 c3 00 00 	lea    0xc365(%rip),%rax        # 11c2c <g_2014>
    58c7:	48 89 85 68 eb ff ff 	mov    %rax,-0x1498(%rbp)
    58ce:	c7 85 b0 ea ff ff 16 	movl   $0x1974aa16,-0x1550(%rbp)
    58d5:	aa 74 19 
    58d8:	48 8d 05 a1 ce 00 00 	lea    0xcea1(%rip),%rax        # 12780 <g_597>
    58df:	48 89 85 70 eb ff ff 	mov    %rax,-0x1490(%rbp)
    58e6:	48 8d 05 3b d7 00 00 	lea    0xd73b(%rip),%rax        # 13028 <g_1342>
    58ed:	48 89 85 40 ec ff ff 	mov    %rax,-0x13c0(%rbp)
    58f4:	48 8d 05 2d d7 00 00 	lea    0xd72d(%rip),%rax        # 13028 <g_1342>
    58fb:	48 89 85 48 ec ff ff 	mov    %rax,-0x13b8(%rbp)
    5902:	48 8d 05 1f d7 00 00 	lea    0xd71f(%rip),%rax        # 13028 <g_1342>
    5909:	48 89 85 50 ec ff ff 	mov    %rax,-0x13b0(%rbp)
    5910:	48 8d 05 11 d7 00 00 	lea    0xd711(%rip),%rax        # 13028 <g_1342>
    5917:	48 89 85 58 ec ff ff 	mov    %rax,-0x13a8(%rbp)
    591e:	48 8d 05 03 d7 00 00 	lea    0xd703(%rip),%rax        # 13028 <g_1342>
    5925:	48 89 85 60 ec ff ff 	mov    %rax,-0x13a0(%rbp)
    592c:	48 8d 05 f5 d6 00 00 	lea    0xd6f5(%rip),%rax        # 13028 <g_1342>
    5933:	48 89 85 68 ec ff ff 	mov    %rax,-0x1398(%rbp)
    593a:	c7 85 b4 ea ff ff 01 	movl   $0x1,-0x154c(%rbp)
    5941:	00 00 00 
    5944:	c6 85 79 ea ff ff fc 	movb   $0xfc,-0x1587(%rbp)
    594b:	48 8d 05 36 b9 00 00 	lea    0xb936(%rip),%rax        # 11288 <g_269+0x8>
    5952:	48 89 85 78 eb ff ff 	mov    %rax,-0x1488(%rbp)
    5959:	48 8d 05 50 ba 00 00 	lea    0xba50(%rip),%rax        # 113b0 <g_416>
    5960:	48 89 85 80 eb ff ff 	mov    %rax,-0x1480(%rbp)
    5967:	c7 85 b8 ea ff ff 19 	movl   $0x50dd5d19,-0x1548(%rbp)
    596e:	5d dd 50 
    5971:	c7 85 bc ea ff ff 3d 	movl   $0x86086e3d,-0x1544(%rbp)
    5978:	6e 08 86 
    597b:	c7 85 c0 ea ff ff f5 	movl   $0xd3d46ef5,-0x1540(%rbp)
    5982:	6e d4 d3 
    5985:	48 8d 85 80 ed ff ff 	lea    -0x1280(%rbp),%rax
    598c:	48 8d 15 ed 66 00 00 	lea    0x66ed(%rip),%rdx        # c080 <g_2250+0xf>
    5993:	b9 6c 00 00 00       	mov    $0x6c,%ecx
    5998:	48 89 c7             	mov    %rax,%rdi
    599b:	48 89 d6             	mov    %rdx,%rsi
    599e:	f3 48 a5             	rep movsq %ds:(%rsi),%es:(%rdi)
    59a1:	48 c7 85 00 eb ff ff 	movq   $0x0,-0x1500(%rbp)
    59a8:	00 00 00 00 
    59ac:	48 8d 85 00 eb ff ff 	lea    -0x1500(%rbp),%rax
    59b3:	48 89 85 08 eb ff ff 	mov    %rax,-0x14f8(%rbp)
    59ba:	48 8d 85 08 eb ff ff 	lea    -0x14f8(%rbp),%rax
    59c1:	48 89 85 f0 f7 ff ff 	mov    %rax,-0x810(%rbp)
    59c8:	48 c7 85 f8 f7 ff ff 	movq   $0x0,-0x808(%rbp)
    59cf:	00 00 00 00 
    59d3:	48 8d 85 08 eb ff ff 	lea    -0x14f8(%rbp),%rax
    59da:	48 89 85 00 f8 ff ff 	mov    %rax,-0x800(%rbp)
    59e1:	48 c7 85 08 f8 ff ff 	movq   $0x0,-0x7f8(%rbp)
    59e8:	00 00 00 00 
    59ec:	48 8d 85 08 eb ff ff 	lea    -0x14f8(%rbp),%rax
    59f3:	48 89 85 10 f8 ff ff 	mov    %rax,-0x7f0(%rbp)
    59fa:	48 8d 85 08 eb ff ff 	lea    -0x14f8(%rbp),%rax
    5a01:	48 89 85 18 f8 ff ff 	mov    %rax,-0x7e8(%rbp)
    5a08:	48 8d 85 08 eb ff ff 	lea    -0x14f8(%rbp),%rax
    5a0f:	48 89 85 20 f8 ff ff 	mov    %rax,-0x7e0(%rbp)
    5a16:	48 c7 85 28 f8 ff ff 	movq   $0x0,-0x7d8(%rbp)
    5a1d:	00 00 00 00 
    5a21:	48 8d 85 08 eb ff ff 	lea    -0x14f8(%rbp),%rax
    5a28:	48 89 85 30 f8 ff ff 	mov    %rax,-0x7d0(%rbp)
    5a2f:	48 c7 85 38 f8 ff ff 	movq   $0x0,-0x7c8(%rbp)
    5a36:	00 00 00 00 
    5a3a:	48 8d 85 08 eb ff ff 	lea    -0x14f8(%rbp),%rax
    5a41:	48 89 85 40 f8 ff ff 	mov    %rax,-0x7c0(%rbp)
    5a48:	48 8d 85 08 eb ff ff 	lea    -0x14f8(%rbp),%rax
    5a4f:	48 89 85 48 f8 ff ff 	mov    %rax,-0x7b8(%rbp)
    5a56:	48 8d 85 08 eb ff ff 	lea    -0x14f8(%rbp),%rax
    5a5d:	48 89 85 50 f8 ff ff 	mov    %rax,-0x7b0(%rbp)
    5a64:	48 8d 85 08 eb ff ff 	lea    -0x14f8(%rbp),%rax
    5a6b:	48 89 85 58 f8 ff ff 	mov    %rax,-0x7a8(%rbp)
    5a72:	48 8d 85 08 eb ff ff 	lea    -0x14f8(%rbp),%rax
    5a79:	48 89 85 60 f8 ff ff 	mov    %rax,-0x7a0(%rbp)
    5a80:	48 c7 85 68 f8 ff ff 	movq   $0x0,-0x798(%rbp)
    5a87:	00 00 00 00 
    5a8b:	48 8d 85 08 eb ff ff 	lea    -0x14f8(%rbp),%rax
    5a92:	48 89 85 70 f8 ff ff 	mov    %rax,-0x790(%rbp)
    5a99:	48 8d 85 08 eb ff ff 	lea    -0x14f8(%rbp),%rax
    5aa0:	48 89 85 78 f8 ff ff 	mov    %rax,-0x788(%rbp)
    5aa7:	48 8d 85 08 eb ff ff 	lea    -0x14f8(%rbp),%rax
    5aae:	48 89 85 80 f8 ff ff 	mov    %rax,-0x780(%rbp)
    5ab5:	48 8d 85 08 eb ff ff 	lea    -0x14f8(%rbp),%rax
    5abc:	48 89 85 88 f8 ff ff 	mov    %rax,-0x778(%rbp)
    5ac3:	48 8d 85 08 eb ff ff 	lea    -0x14f8(%rbp),%rax
    5aca:	48 89 85 90 f8 ff ff 	mov    %rax,-0x770(%rbp)
    5ad1:	48 c7 85 98 f8 ff ff 	movq   $0x0,-0x768(%rbp)
    5ad8:	00 00 00 00 
    5adc:	48 8d 85 08 eb ff ff 	lea    -0x14f8(%rbp),%rax
    5ae3:	48 89 85 a0 f8 ff ff 	mov    %rax,-0x760(%rbp)
    5aea:	48 8d 85 08 eb ff ff 	lea    -0x14f8(%rbp),%rax
    5af1:	48 89 85 a8 f8 ff ff 	mov    %rax,-0x758(%rbp)
    5af8:	48 8d 85 08 eb ff ff 	lea    -0x14f8(%rbp),%rax
    5aff:	48 89 85 b0 f8 ff ff 	mov    %rax,-0x750(%rbp)
    5b06:	48 c7 85 b8 f8 ff ff 	movq   $0x0,-0x748(%rbp)
    5b0d:	00 00 00 00 
    5b11:	48 8d 85 08 eb ff ff 	lea    -0x14f8(%rbp),%rax
    5b18:	48 89 85 c0 f8 ff ff 	mov    %rax,-0x740(%rbp)
    5b1f:	48 8d 85 08 eb ff ff 	lea    -0x14f8(%rbp),%rax
    5b26:	48 89 85 c8 f8 ff ff 	mov    %rax,-0x738(%rbp)
    5b2d:	48 8d 85 08 eb ff ff 	lea    -0x14f8(%rbp),%rax
    5b34:	48 89 85 d0 f8 ff ff 	mov    %rax,-0x730(%rbp)
    5b3b:	48 8d 85 08 eb ff ff 	lea    -0x14f8(%rbp),%rax
    5b42:	48 89 85 d8 f8 ff ff 	mov    %rax,-0x728(%rbp)
    5b49:	48 8d 85 08 eb ff ff 	lea    -0x14f8(%rbp),%rax
    5b50:	48 89 85 e0 f8 ff ff 	mov    %rax,-0x720(%rbp)
    5b57:	48 c7 85 e8 f8 ff ff 	movq   $0x0,-0x718(%rbp)
    5b5e:	00 00 00 00 
    5b62:	48 8d 85 08 eb ff ff 	lea    -0x14f8(%rbp),%rax
    5b69:	48 89 85 f0 f8 ff ff 	mov    %rax,-0x710(%rbp)
    5b70:	48 8d 85 08 eb ff ff 	lea    -0x14f8(%rbp),%rax
    5b77:	48 89 85 f8 f8 ff ff 	mov    %rax,-0x708(%rbp)
    5b7e:	48 8d 85 08 eb ff ff 	lea    -0x14f8(%rbp),%rax
    5b85:	48 89 85 00 f9 ff ff 	mov    %rax,-0x700(%rbp)
    5b8c:	48 8d 85 08 eb ff ff 	lea    -0x14f8(%rbp),%rax
    5b93:	48 89 85 08 f9 ff ff 	mov    %rax,-0x6f8(%rbp)
    5b9a:	48 8d 85 08 eb ff ff 	lea    -0x14f8(%rbp),%rax
    5ba1:	48 89 85 10 f9 ff ff 	mov    %rax,-0x6f0(%rbp)
    5ba8:	48 c7 85 18 f9 ff ff 	movq   $0x0,-0x6e8(%rbp)
    5baf:	00 00 00 00 
    5bb3:	48 8d 85 08 eb ff ff 	lea    -0x14f8(%rbp),%rax
    5bba:	48 89 85 20 f9 ff ff 	mov    %rax,-0x6e0(%rbp)
    5bc1:	48 c7 85 28 f9 ff ff 	movq   $0x0,-0x6d8(%rbp)
    5bc8:	00 00 00 00 
    5bcc:	48 8d 85 08 eb ff ff 	lea    -0x14f8(%rbp),%rax
    5bd3:	48 89 85 30 f9 ff ff 	mov    %rax,-0x6d0(%rbp)
    5bda:	48 8d 85 08 eb ff ff 	lea    -0x14f8(%rbp),%rax
    5be1:	48 89 85 38 f9 ff ff 	mov    %rax,-0x6c8(%rbp)
    5be8:	48 8d 85 08 eb ff ff 	lea    -0x14f8(%rbp),%rax
    5bef:	48 89 85 40 f9 ff ff 	mov    %rax,-0x6c0(%rbp)
    5bf6:	48 c7 85 48 f9 ff ff 	movq   $0x0,-0x6b8(%rbp)
    5bfd:	00 00 00 00 
    5c01:	48 8d 85 08 eb ff ff 	lea    -0x14f8(%rbp),%rax
    5c08:	48 89 85 50 f9 ff ff 	mov    %rax,-0x6b0(%rbp)
    5c0f:	48 c7 85 58 f9 ff ff 	movq   $0x0,-0x6a8(%rbp)
    5c16:	00 00 00 00 
    5c1a:	48 8d 85 08 eb ff ff 	lea    -0x14f8(%rbp),%rax
    5c21:	48 89 85 60 f9 ff ff 	mov    %rax,-0x6a0(%rbp)
    5c28:	48 8d 85 08 eb ff ff 	lea    -0x14f8(%rbp),%rax
    5c2f:	48 89 85 68 f9 ff ff 	mov    %rax,-0x698(%rbp)
    5c36:	48 8d 85 08 eb ff ff 	lea    -0x14f8(%rbp),%rax
    5c3d:	48 89 85 70 f9 ff ff 	mov    %rax,-0x690(%rbp)
    5c44:	48 8d 85 08 eb ff ff 	lea    -0x14f8(%rbp),%rax
    5c4b:	48 89 85 78 f9 ff ff 	mov    %rax,-0x688(%rbp)
    5c52:	48 8d 85 08 eb ff ff 	lea    -0x14f8(%rbp),%rax
    5c59:	48 89 85 80 f9 ff ff 	mov    %rax,-0x680(%rbp)
    5c60:	48 c7 85 88 f9 ff ff 	movq   $0x0,-0x678(%rbp)
    5c67:	00 00 00 00 
    5c6b:	48 8d 85 08 eb ff ff 	lea    -0x14f8(%rbp),%rax
    5c72:	48 89 85 90 f9 ff ff 	mov    %rax,-0x670(%rbp)
    5c79:	48 8d 85 08 eb ff ff 	lea    -0x14f8(%rbp),%rax
    5c80:	48 89 85 98 f9 ff ff 	mov    %rax,-0x668(%rbp)
    5c87:	48 8d 85 08 eb ff ff 	lea    -0x14f8(%rbp),%rax
    5c8e:	48 89 85 a0 f9 ff ff 	mov    %rax,-0x660(%rbp)
    5c95:	48 8d 85 08 eb ff ff 	lea    -0x14f8(%rbp),%rax
    5c9c:	48 89 85 a8 f9 ff ff 	mov    %rax,-0x658(%rbp)
    5ca3:	48 8d 85 08 eb ff ff 	lea    -0x14f8(%rbp),%rax
    5caa:	48 89 85 b0 f9 ff ff 	mov    %rax,-0x650(%rbp)
    5cb1:	48 c7 85 b8 f9 ff ff 	movq   $0x0,-0x648(%rbp)
    5cb8:	00 00 00 00 
    5cbc:	48 8d 85 08 eb ff ff 	lea    -0x14f8(%rbp),%rax
    5cc3:	48 89 85 c0 f9 ff ff 	mov    %rax,-0x640(%rbp)
    5cca:	48 8d 85 08 eb ff ff 	lea    -0x14f8(%rbp),%rax
    5cd1:	48 89 85 c8 f9 ff ff 	mov    %rax,-0x638(%rbp)
    5cd8:	48 8d 85 08 eb ff ff 	lea    -0x14f8(%rbp),%rax
    5cdf:	48 89 85 d0 f9 ff ff 	mov    %rax,-0x630(%rbp)
    5ce6:	48 c7 85 d8 f9 ff ff 	movq   $0x0,-0x628(%rbp)
    5ced:	00 00 00 00 
    5cf1:	48 8d 85 08 eb ff ff 	lea    -0x14f8(%rbp),%rax
    5cf8:	48 89 85 e0 f9 ff ff 	mov    %rax,-0x620(%rbp)
    5cff:	48 8d 85 08 eb ff ff 	lea    -0x14f8(%rbp),%rax
    5d06:	48 89 85 e8 f9 ff ff 	mov    %rax,-0x618(%rbp)
    5d0d:	48 8d 85 08 eb ff ff 	lea    -0x14f8(%rbp),%rax
    5d14:	48 89 85 f0 f9 ff ff 	mov    %rax,-0x610(%rbp)
    5d1b:	48 8d 85 08 eb ff ff 	lea    -0x14f8(%rbp),%rax
    5d22:	48 89 85 f8 f9 ff ff 	mov    %rax,-0x608(%rbp)
    5d29:	48 8d 85 08 eb ff ff 	lea    -0x14f8(%rbp),%rax
    5d30:	48 89 85 00 fa ff ff 	mov    %rax,-0x600(%rbp)
    5d37:	48 c7 85 08 fa ff ff 	movq   $0x0,-0x5f8(%rbp)
    5d3e:	00 00 00 00 
    5d42:	48 8d 85 08 eb ff ff 	lea    -0x14f8(%rbp),%rax
    5d49:	48 89 85 10 fa ff ff 	mov    %rax,-0x5f0(%rbp)
    5d50:	48 8d 85 08 eb ff ff 	lea    -0x14f8(%rbp),%rax
    5d57:	48 89 85 18 fa ff ff 	mov    %rax,-0x5e8(%rbp)
    5d5e:	48 8d 85 08 eb ff ff 	lea    -0x14f8(%rbp),%rax
    5d65:	48 89 85 20 fa ff ff 	mov    %rax,-0x5e0(%rbp)
    5d6c:	48 8d 85 08 eb ff ff 	lea    -0x14f8(%rbp),%rax
    5d73:	48 89 85 28 fa ff ff 	mov    %rax,-0x5d8(%rbp)
    5d7a:	48 8d 85 08 eb ff ff 	lea    -0x14f8(%rbp),%rax
    5d81:	48 89 85 30 fa ff ff 	mov    %rax,-0x5d0(%rbp)
    5d88:	48 c7 85 38 fa ff ff 	movq   $0x0,-0x5c8(%rbp)
    5d8f:	00 00 00 00 
    5d93:	48 8d 85 08 eb ff ff 	lea    -0x14f8(%rbp),%rax
    5d9a:	48 89 85 40 fa ff ff 	mov    %rax,-0x5c0(%rbp)
    5da1:	48 c7 85 48 fa ff ff 	movq   $0x0,-0x5b8(%rbp)
    5da8:	00 00 00 00 
    5dac:	48 8d 85 08 eb ff ff 	lea    -0x14f8(%rbp),%rax
    5db3:	48 89 85 50 fa ff ff 	mov    %rax,-0x5b0(%rbp)
    5dba:	48 8d 85 08 eb ff ff 	lea    -0x14f8(%rbp),%rax
    5dc1:	48 89 85 58 fa ff ff 	mov    %rax,-0x5a8(%rbp)
    5dc8:	48 8d 85 08 eb ff ff 	lea    -0x14f8(%rbp),%rax
    5dcf:	48 89 85 60 fa ff ff 	mov    %rax,-0x5a0(%rbp)
    5dd6:	48 c7 85 68 fa ff ff 	movq   $0x0,-0x598(%rbp)
    5ddd:	00 00 00 00 
    5de1:	48 8d 85 08 eb ff ff 	lea    -0x14f8(%rbp),%rax
    5de8:	48 89 85 70 fa ff ff 	mov    %rax,-0x590(%rbp)
    5def:	48 c7 85 78 fa ff ff 	movq   $0x0,-0x588(%rbp)
    5df6:	00 00 00 00 
    5dfa:	48 8d 85 08 eb ff ff 	lea    -0x14f8(%rbp),%rax
    5e01:	48 89 85 80 fa ff ff 	mov    %rax,-0x580(%rbp)
    5e08:	48 8d 85 08 eb ff ff 	lea    -0x14f8(%rbp),%rax
    5e0f:	48 89 85 88 fa ff ff 	mov    %rax,-0x578(%rbp)
    5e16:	48 8d 85 08 eb ff ff 	lea    -0x14f8(%rbp),%rax
    5e1d:	48 89 85 90 fa ff ff 	mov    %rax,-0x570(%rbp)
    5e24:	48 8d 85 08 eb ff ff 	lea    -0x14f8(%rbp),%rax
    5e2b:	48 89 85 98 fa ff ff 	mov    %rax,-0x568(%rbp)
    5e32:	48 8d 85 08 eb ff ff 	lea    -0x14f8(%rbp),%rax
    5e39:	48 89 85 a0 fa ff ff 	mov    %rax,-0x560(%rbp)
    5e40:	48 c7 85 a8 fa ff ff 	movq   $0x0,-0x558(%rbp)
    5e47:	00 00 00 00 
    5e4b:	48 8d 85 08 eb ff ff 	lea    -0x14f8(%rbp),%rax
    5e52:	48 89 85 b0 fa ff ff 	mov    %rax,-0x550(%rbp)
    5e59:	48 8d 85 08 eb ff ff 	lea    -0x14f8(%rbp),%rax
    5e60:	48 89 85 b8 fa ff ff 	mov    %rax,-0x548(%rbp)
    5e67:	48 8d 85 08 eb ff ff 	lea    -0x14f8(%rbp),%rax
    5e6e:	48 89 85 c0 fa ff ff 	mov    %rax,-0x540(%rbp)
    5e75:	48 8d 85 08 eb ff ff 	lea    -0x14f8(%rbp),%rax
    5e7c:	48 89 85 c8 fa ff ff 	mov    %rax,-0x538(%rbp)
    5e83:	48 8d 85 08 eb ff ff 	lea    -0x14f8(%rbp),%rax
    5e8a:	48 89 85 d0 fa ff ff 	mov    %rax,-0x530(%rbp)
    5e91:	48 c7 85 d8 fa ff ff 	movq   $0x0,-0x528(%rbp)
    5e98:	00 00 00 00 
    5e9c:	48 8d 85 08 eb ff ff 	lea    -0x14f8(%rbp),%rax
    5ea3:	48 89 85 e0 fa ff ff 	mov    %rax,-0x520(%rbp)
    5eaa:	48 8d 85 08 eb ff ff 	lea    -0x14f8(%rbp),%rax
    5eb1:	48 89 85 e8 fa ff ff 	mov    %rax,-0x518(%rbp)
    5eb8:	48 8d 85 08 eb ff ff 	lea    -0x14f8(%rbp),%rax
    5ebf:	48 89 85 f0 fa ff ff 	mov    %rax,-0x510(%rbp)
    5ec6:	48 c7 85 f8 fa ff ff 	movq   $0x0,-0x508(%rbp)
    5ecd:	00 00 00 00 
    5ed1:	48 8d 85 08 eb ff ff 	lea    -0x14f8(%rbp),%rax
    5ed8:	48 89 85 00 fb ff ff 	mov    %rax,-0x500(%rbp)
    5edf:	48 8d 85 08 eb ff ff 	lea    -0x14f8(%rbp),%rax
    5ee6:	48 89 85 08 fb ff ff 	mov    %rax,-0x4f8(%rbp)
    5eed:	48 8d 85 08 eb ff ff 	lea    -0x14f8(%rbp),%rax
    5ef4:	48 89 85 10 fb ff ff 	mov    %rax,-0x4f0(%rbp)
    5efb:	48 8d 85 08 eb ff ff 	lea    -0x14f8(%rbp),%rax
    5f02:	48 89 85 18 fb ff ff 	mov    %rax,-0x4e8(%rbp)
    5f09:	48 8d 85 08 eb ff ff 	lea    -0x14f8(%rbp),%rax
    5f10:	48 89 85 20 fb ff ff 	mov    %rax,-0x4e0(%rbp)
    5f17:	48 c7 85 28 fb ff ff 	movq   $0x0,-0x4d8(%rbp)
    5f1e:	00 00 00 00 
    5f22:	48 8d 85 08 eb ff ff 	lea    -0x14f8(%rbp),%rax
    5f29:	48 89 85 30 fb ff ff 	mov    %rax,-0x4d0(%rbp)
    5f30:	48 8d 85 08 eb ff ff 	lea    -0x14f8(%rbp),%rax
    5f37:	48 89 85 38 fb ff ff 	mov    %rax,-0x4c8(%rbp)
    5f3e:	48 8d 85 08 eb ff ff 	lea    -0x14f8(%rbp),%rax
    5f45:	48 89 85 40 fb ff ff 	mov    %rax,-0x4c0(%rbp)
    5f4c:	48 8d 85 08 eb ff ff 	lea    -0x14f8(%rbp),%rax
    5f53:	48 89 85 48 fb ff ff 	mov    %rax,-0x4b8(%rbp)
    5f5a:	48 8d 85 08 eb ff ff 	lea    -0x14f8(%rbp),%rax
    5f61:	48 89 85 50 fb ff ff 	mov    %rax,-0x4b0(%rbp)
    5f68:	48 c7 85 58 fb ff ff 	movq   $0x0,-0x4a8(%rbp)
    5f6f:	00 00 00 00 
    5f73:	48 8d 85 08 eb ff ff 	lea    -0x14f8(%rbp),%rax
    5f7a:	48 89 85 60 fb ff ff 	mov    %rax,-0x4a0(%rbp)
    5f81:	48 c7 85 68 fb ff ff 	movq   $0x0,-0x498(%rbp)
    5f88:	00 00 00 00 
    5f8c:	48 8d 85 08 eb ff ff 	lea    -0x14f8(%rbp),%rax
    5f93:	48 89 85 70 fb ff ff 	mov    %rax,-0x490(%rbp)
    5f9a:	48 8d 85 08 eb ff ff 	lea    -0x14f8(%rbp),%rax
    5fa1:	48 89 85 78 fb ff ff 	mov    %rax,-0x488(%rbp)
    5fa8:	48 8d 85 08 eb ff ff 	lea    -0x14f8(%rbp),%rax
    5faf:	48 89 85 80 fb ff ff 	mov    %rax,-0x480(%rbp)
    5fb6:	48 c7 85 88 fb ff ff 	movq   $0x0,-0x478(%rbp)
    5fbd:	00 00 00 00 
    5fc1:	48 8d 85 08 eb ff ff 	lea    -0x14f8(%rbp),%rax
    5fc8:	48 89 85 90 fb ff ff 	mov    %rax,-0x470(%rbp)
    5fcf:	48 c7 85 98 fb ff ff 	movq   $0x0,-0x468(%rbp)
    5fd6:	00 00 00 00 
    5fda:	48 8d 85 08 eb ff ff 	lea    -0x14f8(%rbp),%rax
    5fe1:	48 89 85 a0 fb ff ff 	mov    %rax,-0x460(%rbp)
    5fe8:	48 8d 85 08 eb ff ff 	lea    -0x14f8(%rbp),%rax
    5fef:	48 89 85 a8 fb ff ff 	mov    %rax,-0x458(%rbp)
    5ff6:	48 8d 85 08 eb ff ff 	lea    -0x14f8(%rbp),%rax
    5ffd:	48 89 85 b0 fb ff ff 	mov    %rax,-0x450(%rbp)
    6004:	48 8d 85 08 eb ff ff 	lea    -0x14f8(%rbp),%rax
    600b:	48 89 85 b8 fb ff ff 	mov    %rax,-0x448(%rbp)
    6012:	48 8d 85 08 eb ff ff 	lea    -0x14f8(%rbp),%rax
    6019:	48 89 85 c0 fb ff ff 	mov    %rax,-0x440(%rbp)
    6020:	48 c7 85 c8 fb ff ff 	movq   $0x0,-0x438(%rbp)
    6027:	00 00 00 00 
    602b:	48 8d 85 08 eb ff ff 	lea    -0x14f8(%rbp),%rax
    6032:	48 89 85 d0 fb ff ff 	mov    %rax,-0x430(%rbp)
    6039:	48 8d 85 08 eb ff ff 	lea    -0x14f8(%rbp),%rax
    6040:	48 89 85 d8 fb ff ff 	mov    %rax,-0x428(%rbp)
    6047:	48 8d 85 08 eb ff ff 	lea    -0x14f8(%rbp),%rax
    604e:	48 89 85 e0 fb ff ff 	mov    %rax,-0x420(%rbp)
    6055:	48 8d 85 08 eb ff ff 	lea    -0x14f8(%rbp),%rax
    605c:	48 89 85 e8 fb ff ff 	mov    %rax,-0x418(%rbp)
    6063:	48 8d 85 08 eb ff ff 	lea    -0x14f8(%rbp),%rax
    606a:	48 89 85 f0 fb ff ff 	mov    %rax,-0x410(%rbp)
    6071:	48 c7 85 f8 fb ff ff 	movq   $0x0,-0x408(%rbp)
    6078:	00 00 00 00 
    607c:	48 8d 85 08 eb ff ff 	lea    -0x14f8(%rbp),%rax
    6083:	48 89 85 00 fc ff ff 	mov    %rax,-0x400(%rbp)
    608a:	48 8d 85 08 eb ff ff 	lea    -0x14f8(%rbp),%rax
    6091:	48 89 85 08 fc ff ff 	mov    %rax,-0x3f8(%rbp)
    6098:	48 8d 85 08 eb ff ff 	lea    -0x14f8(%rbp),%rax
    609f:	48 89 85 10 fc ff ff 	mov    %rax,-0x3f0(%rbp)
    60a6:	48 c7 85 18 fc ff ff 	movq   $0x0,-0x3e8(%rbp)
    60ad:	00 00 00 00 
    60b1:	48 8d 85 08 eb ff ff 	lea    -0x14f8(%rbp),%rax
    60b8:	48 89 85 20 fc ff ff 	mov    %rax,-0x3e0(%rbp)
    60bf:	48 8d 85 08 eb ff ff 	lea    -0x14f8(%rbp),%rax
    60c6:	48 89 85 28 fc ff ff 	mov    %rax,-0x3d8(%rbp)
    60cd:	48 8d 85 08 eb ff ff 	lea    -0x14f8(%rbp),%rax
    60d4:	48 89 85 30 fc ff ff 	mov    %rax,-0x3d0(%rbp)
    60db:	48 8d 85 08 eb ff ff 	lea    -0x14f8(%rbp),%rax
    60e2:	48 89 85 38 fc ff ff 	mov    %rax,-0x3c8(%rbp)
    60e9:	48 8d 85 08 eb ff ff 	lea    -0x14f8(%rbp),%rax
    60f0:	48 89 85 40 fc ff ff 	mov    %rax,-0x3c0(%rbp)
    60f7:	48 8d 85 08 eb ff ff 	lea    -0x14f8(%rbp),%rax
    60fe:	48 89 85 48 fc ff ff 	mov    %rax,-0x3b8(%rbp)
    6105:	48 8d 85 08 eb ff ff 	lea    -0x14f8(%rbp),%rax
    610c:	48 89 85 50 fc ff ff 	mov    %rax,-0x3b0(%rbp)
    6113:	48 c7 85 58 fc ff ff 	movq   $0x0,-0x3a8(%rbp)
    611a:	00 00 00 00 
    611e:	48 8d 85 08 eb ff ff 	lea    -0x14f8(%rbp),%rax
    6125:	48 89 85 60 fc ff ff 	mov    %rax,-0x3a0(%rbp)
    612c:	48 8d 85 08 eb ff ff 	lea    -0x14f8(%rbp),%rax
    6133:	48 89 85 68 fc ff ff 	mov    %rax,-0x398(%rbp)
    613a:	48 8d 85 08 eb ff ff 	lea    -0x14f8(%rbp),%rax
    6141:	48 89 85 70 fc ff ff 	mov    %rax,-0x390(%rbp)
    6148:	48 8d 85 08 eb ff ff 	lea    -0x14f8(%rbp),%rax
    614f:	48 89 85 78 fc ff ff 	mov    %rax,-0x388(%rbp)
    6156:	48 8d 85 08 eb ff ff 	lea    -0x14f8(%rbp),%rax
    615d:	48 89 85 80 fc ff ff 	mov    %rax,-0x380(%rbp)
    6164:	48 8d 85 08 eb ff ff 	lea    -0x14f8(%rbp),%rax
    616b:	48 89 85 88 fc ff ff 	mov    %rax,-0x378(%rbp)
    6172:	48 8d 85 08 eb ff ff 	lea    -0x14f8(%rbp),%rax
    6179:	48 89 85 90 fc ff ff 	mov    %rax,-0x370(%rbp)
    6180:	48 c7 85 98 fc ff ff 	movq   $0x0,-0x368(%rbp)
    6187:	00 00 00 00 
    618b:	48 8d 85 08 eb ff ff 	lea    -0x14f8(%rbp),%rax
    6192:	48 89 85 a0 fc ff ff 	mov    %rax,-0x360(%rbp)
    6199:	48 8d 85 08 eb ff ff 	lea    -0x14f8(%rbp),%rax
    61a0:	48 89 85 a8 fc ff ff 	mov    %rax,-0x358(%rbp)
    61a7:	48 8d 85 08 eb ff ff 	lea    -0x14f8(%rbp),%rax
    61ae:	48 89 85 b0 fc ff ff 	mov    %rax,-0x350(%rbp)
    61b5:	48 8d 85 08 eb ff ff 	lea    -0x14f8(%rbp),%rax
    61bc:	48 89 85 b8 fc ff ff 	mov    %rax,-0x348(%rbp)
    61c3:	48 8d 85 08 eb ff ff 	lea    -0x14f8(%rbp),%rax
    61ca:	48 89 85 c0 fc ff ff 	mov    %rax,-0x340(%rbp)
    61d1:	48 8d 85 08 eb ff ff 	lea    -0x14f8(%rbp),%rax
    61d8:	48 89 85 c8 fc ff ff 	mov    %rax,-0x338(%rbp)
    61df:	48 8d 85 08 eb ff ff 	lea    -0x14f8(%rbp),%rax
    61e6:	48 89 85 d0 fc ff ff 	mov    %rax,-0x330(%rbp)
    61ed:	48 c7 85 d8 fc ff ff 	movq   $0x0,-0x328(%rbp)
    61f4:	00 00 00 00 
    61f8:	48 8d 85 08 eb ff ff 	lea    -0x14f8(%rbp),%rax
    61ff:	48 89 85 e0 fc ff ff 	mov    %rax,-0x320(%rbp)
    6206:	48 8d 85 08 eb ff ff 	lea    -0x14f8(%rbp),%rax
    620d:	48 89 85 e8 fc ff ff 	mov    %rax,-0x318(%rbp)
    6214:	48 8d 85 08 eb ff ff 	lea    -0x14f8(%rbp),%rax
    621b:	48 89 85 f0 fc ff ff 	mov    %rax,-0x310(%rbp)
    6222:	48 c7 85 f8 fc ff ff 	movq   $0x0,-0x308(%rbp)
    6229:	00 00 00 00 
    622d:	48 8d 85 08 eb ff ff 	lea    -0x14f8(%rbp),%rax
    6234:	48 89 85 00 fd ff ff 	mov    %rax,-0x300(%rbp)
    623b:	48 c7 85 08 fd ff ff 	movq   $0x0,-0x2f8(%rbp)
    6242:	00 00 00 00 
    6246:	48 8d 85 08 eb ff ff 	lea    -0x14f8(%rbp),%rax
    624d:	48 89 85 10 fd ff ff 	mov    %rax,-0x2f0(%rbp)
    6254:	48 8d 85 08 eb ff ff 	lea    -0x14f8(%rbp),%rax
    625b:	48 89 85 18 fd ff ff 	mov    %rax,-0x2e8(%rbp)
    6262:	48 8d 85 08 eb ff ff 	lea    -0x14f8(%rbp),%rax
    6269:	48 89 85 20 fd ff ff 	mov    %rax,-0x2e0(%rbp)
    6270:	48 8d 85 08 eb ff ff 	lea    -0x14f8(%rbp),%rax
    6277:	48 89 85 28 fd ff ff 	mov    %rax,-0x2d8(%rbp)
    627e:	48 8d 85 08 eb ff ff 	lea    -0x14f8(%rbp),%rax
    6285:	48 89 85 30 fd ff ff 	mov    %rax,-0x2d0(%rbp)
    628c:	48 8d 85 08 eb ff ff 	lea    -0x14f8(%rbp),%rax
    6293:	48 89 85 38 fd ff ff 	mov    %rax,-0x2c8(%rbp)
    629a:	48 8d 85 08 eb ff ff 	lea    -0x14f8(%rbp),%rax
    62a1:	48 89 85 40 fd ff ff 	mov    %rax,-0x2c0(%rbp)
    62a8:	48 c7 85 48 fd ff ff 	movq   $0x0,-0x2b8(%rbp)
    62af:	00 00 00 00 
    62b3:	48 8d 85 08 eb ff ff 	lea    -0x14f8(%rbp),%rax
    62ba:	48 89 85 50 fd ff ff 	mov    %rax,-0x2b0(%rbp)
    62c1:	48 c7 85 58 fd ff ff 	movq   $0x0,-0x2a8(%rbp)
    62c8:	00 00 00 00 
    62cc:	48 8d 85 08 eb ff ff 	lea    -0x14f8(%rbp),%rax
    62d3:	48 89 85 60 fd ff ff 	mov    %rax,-0x2a0(%rbp)
    62da:	48 8d 85 08 eb ff ff 	lea    -0x14f8(%rbp),%rax
    62e1:	48 89 85 68 fd ff ff 	mov    %rax,-0x298(%rbp)
    62e8:	48 8d 85 08 eb ff ff 	lea    -0x14f8(%rbp),%rax
    62ef:	48 89 85 70 fd ff ff 	mov    %rax,-0x290(%rbp)
    62f6:	48 c7 85 78 fd ff ff 	movq   $0x0,-0x288(%rbp)
    62fd:	00 00 00 00 
    6301:	48 8d 85 08 eb ff ff 	lea    -0x14f8(%rbp),%rax
    6308:	48 89 85 80 fd ff ff 	mov    %rax,-0x280(%rbp)
    630f:	48 8d 85 08 eb ff ff 	lea    -0x14f8(%rbp),%rax
    6316:	48 89 85 88 fd ff ff 	mov    %rax,-0x278(%rbp)
    631d:	48 8d 85 08 eb ff ff 	lea    -0x14f8(%rbp),%rax
    6324:	48 89 85 90 fd ff ff 	mov    %rax,-0x270(%rbp)
    632b:	48 8d 85 08 eb ff ff 	lea    -0x14f8(%rbp),%rax
    6332:	48 89 85 98 fd ff ff 	mov    %rax,-0x268(%rbp)
    6339:	48 8d 85 08 eb ff ff 	lea    -0x14f8(%rbp),%rax
    6340:	48 89 85 a0 fd ff ff 	mov    %rax,-0x260(%rbp)
    6347:	48 8d 85 08 eb ff ff 	lea    -0x14f8(%rbp),%rax
    634e:	48 89 85 a8 fd ff ff 	mov    %rax,-0x258(%rbp)
    6355:	48 8d 85 08 eb ff ff 	lea    -0x14f8(%rbp),%rax
    635c:	48 89 85 b0 fd ff ff 	mov    %rax,-0x250(%rbp)
    6363:	48 c7 85 b8 fd ff ff 	movq   $0x0,-0x248(%rbp)
    636a:	00 00 00 00 
    636e:	48 8d 85 08 eb ff ff 	lea    -0x14f8(%rbp),%rax
    6375:	48 89 85 c0 fd ff ff 	mov    %rax,-0x240(%rbp)
    637c:	48 8d 85 08 eb ff ff 	lea    -0x14f8(%rbp),%rax
    6383:	48 89 85 c8 fd ff ff 	mov    %rax,-0x238(%rbp)
    638a:	48 8d 85 08 eb ff ff 	lea    -0x14f8(%rbp),%rax
    6391:	48 89 85 d0 fd ff ff 	mov    %rax,-0x230(%rbp)
    6398:	48 8d 85 08 eb ff ff 	lea    -0x14f8(%rbp),%rax
    639f:	48 89 85 d8 fd ff ff 	mov    %rax,-0x228(%rbp)
    63a6:	48 8d 85 08 eb ff ff 	lea    -0x14f8(%rbp),%rax
    63ad:	48 89 85 e0 fd ff ff 	mov    %rax,-0x220(%rbp)
    63b4:	48 8d 85 08 eb ff ff 	lea    -0x14f8(%rbp),%rax
    63bb:	48 89 85 e8 fd ff ff 	mov    %rax,-0x218(%rbp)
    63c2:	48 8d 85 08 eb ff ff 	lea    -0x14f8(%rbp),%rax
    63c9:	48 89 85 f0 fd ff ff 	mov    %rax,-0x210(%rbp)
    63d0:	48 c7 85 f8 fd ff ff 	movq   $0x0,-0x208(%rbp)
    63d7:	00 00 00 00 
    63db:	48 8d 85 08 eb ff ff 	lea    -0x14f8(%rbp),%rax
    63e2:	48 89 85 00 fe ff ff 	mov    %rax,-0x200(%rbp)
    63e9:	48 8d 85 08 eb ff ff 	lea    -0x14f8(%rbp),%rax
    63f0:	48 89 85 08 fe ff ff 	mov    %rax,-0x1f8(%rbp)
    63f7:	48 8d 85 08 eb ff ff 	lea    -0x14f8(%rbp),%rax
    63fe:	48 89 85 10 fe ff ff 	mov    %rax,-0x1f0(%rbp)
    6405:	48 c7 85 18 fe ff ff 	movq   $0x0,-0x1e8(%rbp)
    640c:	00 00 00 00 
    6410:	48 8d 85 08 eb ff ff 	lea    -0x14f8(%rbp),%rax
    6417:	48 89 85 20 fe ff ff 	mov    %rax,-0x1e0(%rbp)
    641e:	48 c7 85 28 fe ff ff 	movq   $0x0,-0x1d8(%rbp)
    6425:	00 00 00 00 
    6429:	48 8d 85 08 eb ff ff 	lea    -0x14f8(%rbp),%rax
    6430:	48 89 85 30 fe ff ff 	mov    %rax,-0x1d0(%rbp)
    6437:	48 8d 85 08 eb ff ff 	lea    -0x14f8(%rbp),%rax
    643e:	48 89 85 38 fe ff ff 	mov    %rax,-0x1c8(%rbp)
    6445:	48 8d 85 08 eb ff ff 	lea    -0x14f8(%rbp),%rax
    644c:	48 89 85 40 fe ff ff 	mov    %rax,-0x1c0(%rbp)
    6453:	48 8d 85 08 eb ff ff 	lea    -0x14f8(%rbp),%rax
    645a:	48 89 85 48 fe ff ff 	mov    %rax,-0x1b8(%rbp)
    6461:	48 8d 85 08 eb ff ff 	lea    -0x14f8(%rbp),%rax
    6468:	48 89 85 50 fe ff ff 	mov    %rax,-0x1b0(%rbp)
    646f:	48 8d 85 08 eb ff ff 	lea    -0x14f8(%rbp),%rax
    6476:	48 89 85 58 fe ff ff 	mov    %rax,-0x1a8(%rbp)
    647d:	48 8d 85 08 eb ff ff 	lea    -0x14f8(%rbp),%rax
    6484:	48 89 85 60 fe ff ff 	mov    %rax,-0x1a0(%rbp)
    648b:	48 c7 85 68 fe ff ff 	movq   $0x0,-0x198(%rbp)
    6492:	00 00 00 00 
    6496:	48 8d 85 08 eb ff ff 	lea    -0x14f8(%rbp),%rax
    649d:	48 89 85 70 fe ff ff 	mov    %rax,-0x190(%rbp)
    64a4:	48 c7 85 78 fe ff ff 	movq   $0x0,-0x188(%rbp)
    64ab:	00 00 00 00 
    64af:	48 8d 85 08 eb ff ff 	lea    -0x14f8(%rbp),%rax
    64b6:	48 89 85 80 fe ff ff 	mov    %rax,-0x180(%rbp)
    64bd:	48 8d 85 08 eb ff ff 	lea    -0x14f8(%rbp),%rax
    64c4:	48 89 85 88 fe ff ff 	mov    %rax,-0x178(%rbp)
    64cb:	48 8d 85 08 eb ff ff 	lea    -0x14f8(%rbp),%rax
    64d2:	48 89 85 90 fe ff ff 	mov    %rax,-0x170(%rbp)
    64d9:	48 c7 85 98 fe ff ff 	movq   $0x0,-0x168(%rbp)
    64e0:	00 00 00 00 
    64e4:	48 8d 85 08 eb ff ff 	lea    -0x14f8(%rbp),%rax
    64eb:	48 89 85 a0 fe ff ff 	mov    %rax,-0x160(%rbp)
    64f2:	48 8d 85 08 eb ff ff 	lea    -0x14f8(%rbp),%rax
    64f9:	48 89 85 a8 fe ff ff 	mov    %rax,-0x158(%rbp)
    6500:	48 8d 85 08 eb ff ff 	lea    -0x14f8(%rbp),%rax
    6507:	48 89 85 b0 fe ff ff 	mov    %rax,-0x150(%rbp)
    650e:	48 8d 85 08 eb ff ff 	lea    -0x14f8(%rbp),%rax
    6515:	48 89 85 b8 fe ff ff 	mov    %rax,-0x148(%rbp)
    651c:	48 8d 85 08 eb ff ff 	lea    -0x14f8(%rbp),%rax
    6523:	48 89 85 c0 fe ff ff 	mov    %rax,-0x140(%rbp)
    652a:	48 8d 85 08 eb ff ff 	lea    -0x14f8(%rbp),%rax
    6531:	48 89 85 c8 fe ff ff 	mov    %rax,-0x138(%rbp)
    6538:	48 8d 85 08 eb ff ff 	lea    -0x14f8(%rbp),%rax
    653f:	48 89 85 d0 fe ff ff 	mov    %rax,-0x130(%rbp)
    6546:	48 c7 85 d8 fe ff ff 	movq   $0x0,-0x128(%rbp)
    654d:	00 00 00 00 
    6551:	48 8d 85 08 eb ff ff 	lea    -0x14f8(%rbp),%rax
    6558:	48 89 85 e0 fe ff ff 	mov    %rax,-0x120(%rbp)
    655f:	48 8d 85 08 eb ff ff 	lea    -0x14f8(%rbp),%rax
    6566:	48 89 85 e8 fe ff ff 	mov    %rax,-0x118(%rbp)
    656d:	48 8d 85 08 eb ff ff 	lea    -0x14f8(%rbp),%rax
    6574:	48 89 85 f0 fe ff ff 	mov    %rax,-0x110(%rbp)
    657b:	48 8d 85 08 eb ff ff 	lea    -0x14f8(%rbp),%rax
    6582:	48 89 85 f8 fe ff ff 	mov    %rax,-0x108(%rbp)
    6589:	48 8d 85 08 eb ff ff 	lea    -0x14f8(%rbp),%rax
    6590:	48 89 85 00 ff ff ff 	mov    %rax,-0x100(%rbp)
    6597:	48 8d 85 08 eb ff ff 	lea    -0x14f8(%rbp),%rax
    659e:	48 89 85 08 ff ff ff 	mov    %rax,-0xf8(%rbp)
    65a5:	48 8d 85 08 eb ff ff 	lea    -0x14f8(%rbp),%rax
    65ac:	48 89 85 10 ff ff ff 	mov    %rax,-0xf0(%rbp)
    65b3:	48 c7 85 18 ff ff ff 	movq   $0x0,-0xe8(%rbp)
    65ba:	00 00 00 00 
    65be:	48 8d 85 08 eb ff ff 	lea    -0x14f8(%rbp),%rax
    65c5:	48 89 85 20 ff ff ff 	mov    %rax,-0xe0(%rbp)
    65cc:	48 8d 85 08 eb ff ff 	lea    -0x14f8(%rbp),%rax
    65d3:	48 89 85 28 ff ff ff 	mov    %rax,-0xd8(%rbp)
    65da:	48 8d 85 08 eb ff ff 	lea    -0x14f8(%rbp),%rax
    65e1:	48 89 85 30 ff ff ff 	mov    %rax,-0xd0(%rbp)
    65e8:	48 c7 85 38 ff ff ff 	movq   $0x0,-0xc8(%rbp)
    65ef:	00 00 00 00 
    65f3:	48 8d 85 08 eb ff ff 	lea    -0x14f8(%rbp),%rax
    65fa:	48 89 85 40 ff ff ff 	mov    %rax,-0xc0(%rbp)
    6601:	48 c7 85 48 ff ff ff 	movq   $0x0,-0xb8(%rbp)
    6608:	00 00 00 00 
    660c:	48 8d 85 08 eb ff ff 	lea    -0x14f8(%rbp),%rax
    6613:	48 89 85 50 ff ff ff 	mov    %rax,-0xb0(%rbp)
    661a:	48 8d 85 08 eb ff ff 	lea    -0x14f8(%rbp),%rax
    6621:	48 89 85 58 ff ff ff 	mov    %rax,-0xa8(%rbp)
    6628:	48 8d 85 08 eb ff ff 	lea    -0x14f8(%rbp),%rax
    662f:	48 89 85 60 ff ff ff 	mov    %rax,-0xa0(%rbp)
    6636:	48 8d 85 08 eb ff ff 	lea    -0x14f8(%rbp),%rax
    663d:	48 89 85 68 ff ff ff 	mov    %rax,-0x98(%rbp)
    6644:	48 8d 85 08 eb ff ff 	lea    -0x14f8(%rbp),%rax
    664b:	48 89 85 70 ff ff ff 	mov    %rax,-0x90(%rbp)
    6652:	48 8d 85 08 eb ff ff 	lea    -0x14f8(%rbp),%rax
    6659:	48 89 85 78 ff ff ff 	mov    %rax,-0x88(%rbp)
    6660:	48 8d 85 08 eb ff ff 	lea    -0x14f8(%rbp),%rax
    6667:	48 89 45 80          	mov    %rax,-0x80(%rbp)
    666b:	48 c7 45 88 00 00 00 	movq   $0x0,-0x78(%rbp)
    6672:	00 
    6673:	48 8d 85 08 eb ff ff 	lea    -0x14f8(%rbp),%rax
    667a:	48 89 45 90          	mov    %rax,-0x70(%rbp)
    667e:	48 c7 45 98 00 00 00 	movq   $0x0,-0x68(%rbp)
    6685:	00 
    6686:	48 8d 85 08 eb ff ff 	lea    -0x14f8(%rbp),%rax
    668d:	48 89 45 a0          	mov    %rax,-0x60(%rbp)
    6691:	48 8d 85 08 eb ff ff 	lea    -0x14f8(%rbp),%rax
    6698:	48 89 45 a8          	mov    %rax,-0x58(%rbp)
    669c:	48 8d 85 08 eb ff ff 	lea    -0x14f8(%rbp),%rax
    66a3:	48 89 45 b0          	mov    %rax,-0x50(%rbp)
    66a7:	48 c7 45 b8 00 00 00 	movq   $0x0,-0x48(%rbp)
    66ae:	00 
    66af:	48 8d 85 08 eb ff ff 	lea    -0x14f8(%rbp),%rax
    66b6:	48 89 45 c0          	mov    %rax,-0x40(%rbp)
    66ba:	48 8d 85 08 eb ff ff 	lea    -0x14f8(%rbp),%rax
    66c1:	48 89 45 c8          	mov    %rax,-0x38(%rbp)
    66c5:	c7 85 f0 ec ff ff 00 	movl   $0x0,-0x1310(%rbp)
    66cc:	00 00 00 
    66cf:	c7 85 f4 ec ff ff ff 	movl   $0xffffffff,-0x130c(%rbp)
    66d6:	ff ff ff 
    66d9:	c7 85 f8 ec ff ff 07 	movl   $0x41621907,-0x1308(%rbp)
    66e0:	19 62 41 
    66e3:	c7 85 fc ec ff ff ff 	movl   $0xffffffff,-0x1304(%rbp)
    66ea:	ff ff ff 
    66ed:	c7 85 00 ed ff ff 00 	movl   $0x0,-0x1300(%rbp)
    66f4:	00 00 00 
    66f7:	c7 85 04 ed ff ff ff 	movl   $0xffffffff,-0x12fc(%rbp)
    66fe:	ff ff ff 
    6701:	c7 85 08 ed ff ff 02 	movl   $0x2,-0x12f8(%rbp)
    6708:	00 00 00 
    670b:	c7 85 0c ed ff ff 00 	movl   $0x0,-0x12f4(%rbp)
    6712:	00 00 00 
    6715:	c7 85 10 ed ff ff 02 	movl   $0x2,-0x12f0(%rbp)
    671c:	00 00 00 
    671f:	c7 85 14 ed ff ff ff 	movl   $0xffffffff,-0x12ec(%rbp)
    6726:	ff ff ff 
    6729:	c7 85 18 ed ff ff 02 	movl   $0x2,-0x12e8(%rbp)
    6730:	00 00 00 
    6733:	c7 85 1c ed ff ff 00 	movl   $0x0,-0x12e4(%rbp)
    673a:	00 00 00 
    673d:	c7 85 20 ed ff ff 00 	movl   $0x0,-0x12e0(%rbp)
    6744:	00 00 00 
    6747:	c7 85 24 ed ff ff 00 	movl   $0x0,-0x12dc(%rbp)
    674e:	00 00 00 
    6751:	c7 85 28 ed ff ff 07 	movl   $0x41621907,-0x12d8(%rbp)
    6758:	19 62 41 
    675b:	c7 85 2c ed ff ff 00 	movl   $0x0,-0x12d4(%rbp)
    6762:	00 00 00 
    6765:	c7 85 30 ed ff ff 00 	movl   $0x0,-0x12d0(%rbp)
    676c:	00 00 00 
    676f:	c7 85 34 ed ff ff 00 	movl   $0x0,-0x12cc(%rbp)
    6776:	00 00 00 
    6779:	c7 85 38 ed ff ff 02 	movl   $0x2,-0x12c8(%rbp)
    6780:	00 00 00 
    6783:	c7 85 3c ed ff ff ff 	movl   $0xffffffff,-0x12c4(%rbp)
    678a:	ff ff ff 
    678d:	c7 85 40 ed ff ff 02 	movl   $0x2,-0x12c0(%rbp)
    6794:	00 00 00 
    6797:	c7 85 44 ed ff ff 00 	movl   $0x0,-0x12bc(%rbp)
    679e:	00 00 00 
    67a1:	c7 85 48 ed ff ff 02 	movl   $0x2,-0x12b8(%rbp)
    67a8:	00 00 00 
    67ab:	c7 85 4c ed ff ff ff 	movl   $0xffffffff,-0x12b4(%rbp)
    67b2:	ff ff ff 
    67b5:	c7 85 50 ed ff ff 00 	movl   $0x0,-0x12b0(%rbp)
    67bc:	00 00 00 
    67bf:	c7 85 54 ed ff ff ff 	movl   $0xffffffff,-0x12ac(%rbp)
    67c6:	ff ff ff 
    67c9:	c7 85 58 ed ff ff 07 	movl   $0x41621907,-0x12a8(%rbp)
    67d0:	19 62 41 
    67d3:	c7 85 5c ed ff ff ff 	movl   $0xffffffff,-0x12a4(%rbp)
    67da:	ff ff ff 
    67dd:	c7 85 60 ed ff ff 00 	movl   $0x0,-0x12a0(%rbp)
    67e4:	00 00 00 
    67e7:	c7 85 64 ed ff ff ff 	movl   $0xffffffff,-0x129c(%rbp)
    67ee:	ff ff ff 
    67f1:	c7 85 68 ed ff ff 02 	movl   $0x2,-0x1298(%rbp)
    67f8:	00 00 00 
    67fb:	c7 85 6c ed ff ff 00 	movl   $0x0,-0x1294(%rbp)
    6802:	00 00 00 
    6805:	c7 85 70 ed ff ff 02 	movl   $0x2,-0x1290(%rbp)
    680c:	00 00 00 
    680f:	c7 85 74 ed ff ff ff 	movl   $0xffffffff,-0x128c(%rbp)
    6816:	ff ff ff 
    6819:	c7 85 78 ed ff ff 02 	movl   $0x2,-0x1288(%rbp)
    6820:	00 00 00 
    6823:	c7 85 7c ed ff ff 00 	movl   $0x0,-0x1284(%rbp)
    682a:	00 00 00 
    682d:	66 c7 45 d6 09 09    	movw   $0x909,-0x2a(%rbp)
    6833:	c6 85 7a ea ff ff 05 	movb   $0x5,-0x1586(%rbp)
    683a:	c7 85 c4 ea ff ff ff 	movl   $0xffffffff,-0x153c(%rbp)
    6841:	ff ff ff 
    6844:	c7 85 c8 ea ff ff ff 	movl   $0xffffffff,-0x1538(%rbp)
    684b:	ff ff ff 
    684e:	48 8d 05 f3 b3 00 00 	lea    0xb3f3(%rip),%rax        # 11c48 <g_2194>
    6855:	48 89 85 88 eb ff ff 	mov    %rax,-0x1478(%rbp)
    685c:	48 8d 05 0e 58 00 00 	lea    0x580e(%rip),%rax        # c071 <g_2250>
    6863:	48 89 85 10 eb ff ff 	mov    %rax,-0x14f0(%rbp)
    686a:	48 8d 85 10 eb ff ff 	lea    -0x14f0(%rbp),%rax
    6871:	48 89 85 18 eb ff ff 	mov    %rax,-0x14e8(%rbp)
    6878:	48 8d 85 18 eb ff ff 	lea    -0x14e8(%rbp),%rax
    687f:	48 89 85 20 eb ff ff 	mov    %rax,-0x14e0(%rbp)
    6886:	48 8d 85 20 eb ff ff 	lea    -0x14e0(%rbp),%rax
    688d:	48 89 85 28 eb ff ff 	mov    %rax,-0x14d8(%rbp)
    6894:	48 8d 85 28 eb ff ff 	lea    -0x14d8(%rbp),%rax
    689b:	48 89 85 90 eb ff ff 	mov    %rax,-0x1470(%rbp)
    68a2:	c7 85 cc ea ff ff 3a 	movl   $0xd24de93a,-0x1534(%rbp)
    68a9:	e9 4d d2 
    68ac:	66 c7 85 82 ea ff ff 	movw   $0xffff,-0x157e(%rbp)
    68b3:	ff ff 
    68b5:	c6 85 7b ea ff ff 53 	movb   $0x53,-0x1585(%rbp)
    68bc:	c7 85 90 ea ff ff 00 	movl   $0x0,-0x1570(%rbp)
    68c3:	00 00 00 
    68c6:	eb 22                	jmp    68ea <func_1+0x1135>
    68c8:	8b 85 90 ea ff ff    	mov    -0x1570(%rbp),%eax
    68ce:	48 98                	cltq   
    68d0:	48 8d 95 40 ec ff ff 	lea    -0x13c0(%rbp),%rdx
    68d7:	48 83 c2 18          	add    $0x18,%rdx
    68db:	48 89 94 c5 e8 eb ff 	mov    %rdx,-0x1418(%rbp,%rax,8)
    68e2:	ff 
    68e3:	83 85 90 ea ff ff 01 	addl   $0x1,-0x1570(%rbp)
    68ea:	83 bd 90 ea ff ff 00 	cmpl   $0x0,-0x1570(%rbp)
    68f1:	7e d5                	jle    68c8 <func_1+0x1113>
    68f3:	80 bd 77 ea ff ff 00 	cmpb   $0x0,-0x1589(%rbp)
    68fa:	0f 84 4c 0c 00 00    	je     754c <func_1+0x1d97>
    6900:	48 8d 05 1d a7 00 00 	lea    0xa71d(%rip),%rax        # 11024 <g_7>
    6907:	48 89 85 30 eb ff ff 	mov    %rax,-0x14d0(%rbp)
    690e:	48 8d 85 30 eb ff ff 	lea    -0x14d0(%rbp),%rax
    6915:	48 89 85 e0 f0 ff ff 	mov    %rax,-0xf20(%rbp)
    691c:	48 c7 85 e8 f0 ff ff 	movq   $0x0,-0xf18(%rbp)
    6923:	00 00 00 00 
    6927:	48 8d 85 30 eb ff ff 	lea    -0x14d0(%rbp),%rax
    692e:	48 89 85 f0 f0 ff ff 	mov    %rax,-0xf10(%rbp)
    6935:	48 8d 85 30 eb ff ff 	lea    -0x14d0(%rbp),%rax
    693c:	48 89 85 f8 f0 ff ff 	mov    %rax,-0xf08(%rbp)
    6943:	48 8d 85 30 eb ff ff 	lea    -0x14d0(%rbp),%rax
    694a:	48 89 85 00 f1 ff ff 	mov    %rax,-0xf00(%rbp)
    6951:	48 c7 85 08 f1 ff ff 	movq   $0x0,-0xef8(%rbp)
    6958:	00 00 00 00 
    695c:	48 8d 85 30 eb ff ff 	lea    -0x14d0(%rbp),%rax
    6963:	48 89 85 10 f1 ff ff 	mov    %rax,-0xef0(%rbp)
    696a:	48 c7 85 18 f1 ff ff 	movq   $0x0,-0xee8(%rbp)
    6971:	00 00 00 00 
    6975:	48 8d 85 30 eb ff ff 	lea    -0x14d0(%rbp),%rax
    697c:	48 89 85 20 f1 ff ff 	mov    %rax,-0xee0(%rbp)
    6983:	48 8d 85 30 eb ff ff 	lea    -0x14d0(%rbp),%rax
    698a:	48 89 85 28 f1 ff ff 	mov    %rax,-0xed8(%rbp)
    6991:	48 8d 85 30 eb ff ff 	lea    -0x14d0(%rbp),%rax
    6998:	48 89 85 30 f1 ff ff 	mov    %rax,-0xed0(%rbp)
    699f:	48 8d 85 30 eb ff ff 	lea    -0x14d0(%rbp),%rax
    69a6:	48 89 85 38 f1 ff ff 	mov    %rax,-0xec8(%rbp)
    69ad:	48 8d 85 30 eb ff ff 	lea    -0x14d0(%rbp),%rax
    69b4:	48 89 85 40 f1 ff ff 	mov    %rax,-0xec0(%rbp)
    69bb:	48 8d 85 30 eb ff ff 	lea    -0x14d0(%rbp),%rax
    69c2:	48 89 85 48 f1 ff ff 	mov    %rax,-0xeb8(%rbp)
    69c9:	48 8d 85 30 eb ff ff 	lea    -0x14d0(%rbp),%rax
    69d0:	48 89 85 50 f1 ff ff 	mov    %rax,-0xeb0(%rbp)
    69d7:	48 8d 85 30 eb ff ff 	lea    -0x14d0(%rbp),%rax
    69de:	48 89 85 58 f1 ff ff 	mov    %rax,-0xea8(%rbp)
    69e5:	48 8d 85 30 eb ff ff 	lea    -0x14d0(%rbp),%rax
    69ec:	48 89 85 60 f1 ff ff 	mov    %rax,-0xea0(%rbp)
    69f3:	48 8d 85 30 eb ff ff 	lea    -0x14d0(%rbp),%rax
    69fa:	48 89 85 68 f1 ff ff 	mov    %rax,-0xe98(%rbp)
    6a01:	48 8d 85 30 eb ff ff 	lea    -0x14d0(%rbp),%rax
    6a08:	48 89 85 70 f1 ff ff 	mov    %rax,-0xe90(%rbp)
    6a0f:	48 8d 85 30 eb ff ff 	lea    -0x14d0(%rbp),%rax
    6a16:	48 89 85 78 f1 ff ff 	mov    %rax,-0xe88(%rbp)
    6a1d:	48 8d 85 30 eb ff ff 	lea    -0x14d0(%rbp),%rax
    6a24:	48 89 85 80 f1 ff ff 	mov    %rax,-0xe80(%rbp)
    6a2b:	48 8d 85 30 eb ff ff 	lea    -0x14d0(%rbp),%rax
    6a32:	48 89 85 88 f1 ff ff 	mov    %rax,-0xe78(%rbp)
    6a39:	48 8d 85 30 eb ff ff 	lea    -0x14d0(%rbp),%rax
    6a40:	48 89 85 90 f1 ff ff 	mov    %rax,-0xe70(%rbp)
    6a47:	48 8d 85 30 eb ff ff 	lea    -0x14d0(%rbp),%rax
    6a4e:	48 89 85 98 f1 ff ff 	mov    %rax,-0xe68(%rbp)
    6a55:	48 8d 85 30 eb ff ff 	lea    -0x14d0(%rbp),%rax
    6a5c:	48 89 85 a0 f1 ff ff 	mov    %rax,-0xe60(%rbp)
    6a63:	48 8d 85 30 eb ff ff 	lea    -0x14d0(%rbp),%rax
    6a6a:	48 89 85 a8 f1 ff ff 	mov    %rax,-0xe58(%rbp)
    6a71:	48 8d 85 30 eb ff ff 	lea    -0x14d0(%rbp),%rax
    6a78:	48 89 85 b0 f1 ff ff 	mov    %rax,-0xe50(%rbp)
    6a7f:	48 8d 85 30 eb ff ff 	lea    -0x14d0(%rbp),%rax
    6a86:	48 89 85 b8 f1 ff ff 	mov    %rax,-0xe48(%rbp)
    6a8d:	48 8d 85 30 eb ff ff 	lea    -0x14d0(%rbp),%rax
    6a94:	48 89 85 c0 f1 ff ff 	mov    %rax,-0xe40(%rbp)
    6a9b:	48 c7 85 c8 f1 ff ff 	movq   $0x0,-0xe38(%rbp)
    6aa2:	00 00 00 00 
    6aa6:	48 8d 85 30 eb ff ff 	lea    -0x14d0(%rbp),%rax
    6aad:	48 89 85 d0 f1 ff ff 	mov    %rax,-0xe30(%rbp)
    6ab4:	48 c7 85 d8 f1 ff ff 	movq   $0x0,-0xe28(%rbp)
    6abb:	00 00 00 00 
    6abf:	48 8d 85 30 eb ff ff 	lea    -0x14d0(%rbp),%rax
    6ac6:	48 89 85 e0 f1 ff ff 	mov    %rax,-0xe20(%rbp)
    6acd:	48 8d 85 30 eb ff ff 	lea    -0x14d0(%rbp),%rax
    6ad4:	48 89 85 e8 f1 ff ff 	mov    %rax,-0xe18(%rbp)
    6adb:	48 8d 85 30 eb ff ff 	lea    -0x14d0(%rbp),%rax
    6ae2:	48 89 85 f0 f1 ff ff 	mov    %rax,-0xe10(%rbp)
    6ae9:	48 c7 85 f8 f1 ff ff 	movq   $0x0,-0xe08(%rbp)
    6af0:	00 00 00 00 
    6af4:	48 8d 85 30 eb ff ff 	lea    -0x14d0(%rbp),%rax
    6afb:	48 89 85 00 f2 ff ff 	mov    %rax,-0xe00(%rbp)
    6b02:	48 8d 85 30 eb ff ff 	lea    -0x14d0(%rbp),%rax
    6b09:	48 89 85 08 f2 ff ff 	mov    %rax,-0xdf8(%rbp)
    6b10:	48 8d 85 30 eb ff ff 	lea    -0x14d0(%rbp),%rax
    6b17:	48 89 85 10 f2 ff ff 	mov    %rax,-0xdf0(%rbp)
    6b1e:	48 8d 85 30 eb ff ff 	lea    -0x14d0(%rbp),%rax
    6b25:	48 89 85 18 f2 ff ff 	mov    %rax,-0xde8(%rbp)
    6b2c:	48 8d 85 30 eb ff ff 	lea    -0x14d0(%rbp),%rax
    6b33:	48 89 85 20 f2 ff ff 	mov    %rax,-0xde0(%rbp)
    6b3a:	48 8d 85 30 eb ff ff 	lea    -0x14d0(%rbp),%rax
    6b41:	48 89 85 28 f2 ff ff 	mov    %rax,-0xdd8(%rbp)
    6b48:	48 8d 85 30 eb ff ff 	lea    -0x14d0(%rbp),%rax
    6b4f:	48 89 85 30 f2 ff ff 	mov    %rax,-0xdd0(%rbp)
    6b56:	48 c7 85 38 f2 ff ff 	movq   $0x0,-0xdc8(%rbp)
    6b5d:	00 00 00 00 
    6b61:	48 8d 85 30 eb ff ff 	lea    -0x14d0(%rbp),%rax
    6b68:	48 89 85 40 f2 ff ff 	mov    %rax,-0xdc0(%rbp)
    6b6f:	48 8d 85 30 eb ff ff 	lea    -0x14d0(%rbp),%rax
    6b76:	48 89 85 48 f2 ff ff 	mov    %rax,-0xdb8(%rbp)
    6b7d:	48 8d 85 30 eb ff ff 	lea    -0x14d0(%rbp),%rax
    6b84:	48 89 85 50 f2 ff ff 	mov    %rax,-0xdb0(%rbp)
    6b8b:	48 8d 85 30 eb ff ff 	lea    -0x14d0(%rbp),%rax
    6b92:	48 89 85 58 f2 ff ff 	mov    %rax,-0xda8(%rbp)
    6b99:	48 8d 85 30 eb ff ff 	lea    -0x14d0(%rbp),%rax
    6ba0:	48 89 85 60 f2 ff ff 	mov    %rax,-0xda0(%rbp)
    6ba7:	48 8d 85 30 eb ff ff 	lea    -0x14d0(%rbp),%rax
    6bae:	48 89 85 68 f2 ff ff 	mov    %rax,-0xd98(%rbp)
    6bb5:	48 8d 85 30 eb ff ff 	lea    -0x14d0(%rbp),%rax
    6bbc:	48 89 85 70 f2 ff ff 	mov    %rax,-0xd90(%rbp)
    6bc3:	48 8d 85 30 eb ff ff 	lea    -0x14d0(%rbp),%rax
    6bca:	48 89 85 78 f2 ff ff 	mov    %rax,-0xd88(%rbp)
    6bd1:	48 8d 85 30 eb ff ff 	lea    -0x14d0(%rbp),%rax
    6bd8:	48 89 85 80 f2 ff ff 	mov    %rax,-0xd80(%rbp)
    6bdf:	48 8d 85 30 eb ff ff 	lea    -0x14d0(%rbp),%rax
    6be6:	48 89 85 88 f2 ff ff 	mov    %rax,-0xd78(%rbp)
    6bed:	48 8d 85 30 eb ff ff 	lea    -0x14d0(%rbp),%rax
    6bf4:	48 89 85 90 f2 ff ff 	mov    %rax,-0xd70(%rbp)
    6bfb:	48 8d 85 30 eb ff ff 	lea    -0x14d0(%rbp),%rax
    6c02:	48 89 85 98 f2 ff ff 	mov    %rax,-0xd68(%rbp)
    6c09:	48 c7 85 a0 f2 ff ff 	movq   $0x0,-0xd60(%rbp)
    6c10:	00 00 00 00 
    6c14:	48 8d 85 30 eb ff ff 	lea    -0x14d0(%rbp),%rax
    6c1b:	48 89 85 a8 f2 ff ff 	mov    %rax,-0xd58(%rbp)
    6c22:	48 8d 85 30 eb ff ff 	lea    -0x14d0(%rbp),%rax
    6c29:	48 89 85 b0 f2 ff ff 	mov    %rax,-0xd50(%rbp)
    6c30:	48 c7 85 b8 f2 ff ff 	movq   $0x0,-0xd48(%rbp)
    6c37:	00 00 00 00 
    6c3b:	48 8d 85 30 eb ff ff 	lea    -0x14d0(%rbp),%rax
    6c42:	48 89 85 c0 f2 ff ff 	mov    %rax,-0xd40(%rbp)
    6c49:	48 8d 85 30 eb ff ff 	lea    -0x14d0(%rbp),%rax
    6c50:	48 89 85 c8 f2 ff ff 	mov    %rax,-0xd38(%rbp)
    6c57:	48 8d 85 30 eb ff ff 	lea    -0x14d0(%rbp),%rax
    6c5e:	48 89 85 d0 f2 ff ff 	mov    %rax,-0xd30(%rbp)
    6c65:	48 8d 85 30 eb ff ff 	lea    -0x14d0(%rbp),%rax
    6c6c:	48 89 85 d8 f2 ff ff 	mov    %rax,-0xd28(%rbp)
    6c73:	48 8d 85 30 eb ff ff 	lea    -0x14d0(%rbp),%rax
    6c7a:	48 89 85 e0 f2 ff ff 	mov    %rax,-0xd20(%rbp)
    6c81:	48 8d 85 30 eb ff ff 	lea    -0x14d0(%rbp),%rax
    6c88:	48 89 85 e8 f2 ff ff 	mov    %rax,-0xd18(%rbp)
    6c8f:	48 8d 85 30 eb ff ff 	lea    -0x14d0(%rbp),%rax
    6c96:	48 89 85 f0 f2 ff ff 	mov    %rax,-0xd10(%rbp)
    6c9d:	48 8d 85 30 eb ff ff 	lea    -0x14d0(%rbp),%rax
    6ca4:	48 89 85 f8 f2 ff ff 	mov    %rax,-0xd08(%rbp)
    6cab:	48 8d 85 30 eb ff ff 	lea    -0x14d0(%rbp),%rax
    6cb2:	48 89 85 00 f3 ff ff 	mov    %rax,-0xd00(%rbp)
    6cb9:	48 8d 85 30 eb ff ff 	lea    -0x14d0(%rbp),%rax
    6cc0:	48 89 85 08 f3 ff ff 	mov    %rax,-0xcf8(%rbp)
    6cc7:	48 8d 85 30 eb ff ff 	lea    -0x14d0(%rbp),%rax
    6cce:	48 89 85 10 f3 ff ff 	mov    %rax,-0xcf0(%rbp)
    6cd5:	48 8d 85 30 eb ff ff 	lea    -0x14d0(%rbp),%rax
    6cdc:	48 89 85 18 f3 ff ff 	mov    %rax,-0xce8(%rbp)
    6ce3:	48 8d 85 30 eb ff ff 	lea    -0x14d0(%rbp),%rax
    6cea:	48 89 85 20 f3 ff ff 	mov    %rax,-0xce0(%rbp)
    6cf1:	48 8d 85 30 eb ff ff 	lea    -0x14d0(%rbp),%rax
    6cf8:	48 89 85 28 f3 ff ff 	mov    %rax,-0xcd8(%rbp)
    6cff:	48 8d 85 30 eb ff ff 	lea    -0x14d0(%rbp),%rax
    6d06:	48 89 85 30 f3 ff ff 	mov    %rax,-0xcd0(%rbp)
    6d0d:	48 c7 85 38 f3 ff ff 	movq   $0x0,-0xcc8(%rbp)
    6d14:	00 00 00 00 
    6d18:	48 8d 85 30 eb ff ff 	lea    -0x14d0(%rbp),%rax
    6d1f:	48 89 85 40 f3 ff ff 	mov    %rax,-0xcc0(%rbp)
    6d26:	48 8d 85 30 eb ff ff 	lea    -0x14d0(%rbp),%rax
    6d2d:	48 89 85 48 f3 ff ff 	mov    %rax,-0xcb8(%rbp)
    6d34:	48 8d 85 30 eb ff ff 	lea    -0x14d0(%rbp),%rax
    6d3b:	48 89 85 50 f3 ff ff 	mov    %rax,-0xcb0(%rbp)
    6d42:	48 c7 85 58 f3 ff ff 	movq   $0x0,-0xca8(%rbp)
    6d49:	00 00 00 00 
    6d4d:	48 8d 85 30 eb ff ff 	lea    -0x14d0(%rbp),%rax
    6d54:	48 89 85 60 f3 ff ff 	mov    %rax,-0xca0(%rbp)
    6d5b:	48 8d 85 30 eb ff ff 	lea    -0x14d0(%rbp),%rax
    6d62:	48 89 85 68 f3 ff ff 	mov    %rax,-0xc98(%rbp)
    6d69:	48 8d 85 30 eb ff ff 	lea    -0x14d0(%rbp),%rax
    6d70:	48 89 85 70 f3 ff ff 	mov    %rax,-0xc90(%rbp)
    6d77:	48 c7 85 78 f3 ff ff 	movq   $0x0,-0xc88(%rbp)
    6d7e:	00 00 00 00 
    6d82:	48 8d 85 30 eb ff ff 	lea    -0x14d0(%rbp),%rax
    6d89:	48 89 85 80 f3 ff ff 	mov    %rax,-0xc80(%rbp)
    6d90:	48 8d 85 30 eb ff ff 	lea    -0x14d0(%rbp),%rax
    6d97:	48 89 85 88 f3 ff ff 	mov    %rax,-0xc78(%rbp)
    6d9e:	48 8d 85 30 eb ff ff 	lea    -0x14d0(%rbp),%rax
    6da5:	48 89 85 90 f3 ff ff 	mov    %rax,-0xc70(%rbp)
    6dac:	48 8d 85 30 eb ff ff 	lea    -0x14d0(%rbp),%rax
    6db3:	48 89 85 98 f3 ff ff 	mov    %rax,-0xc68(%rbp)
    6dba:	48 8d 85 30 eb ff ff 	lea    -0x14d0(%rbp),%rax
    6dc1:	48 89 85 a0 f3 ff ff 	mov    %rax,-0xc60(%rbp)
    6dc8:	48 c7 85 a8 f3 ff ff 	movq   $0x0,-0xc58(%rbp)
    6dcf:	00 00 00 00 
    6dd3:	48 8d 85 30 eb ff ff 	lea    -0x14d0(%rbp),%rax
    6dda:	48 89 85 b0 f3 ff ff 	mov    %rax,-0xc50(%rbp)
    6de1:	48 8d 85 30 eb ff ff 	lea    -0x14d0(%rbp),%rax
    6de8:	48 89 85 b8 f3 ff ff 	mov    %rax,-0xc48(%rbp)
    6def:	48 8d 85 30 eb ff ff 	lea    -0x14d0(%rbp),%rax
    6df6:	48 89 85 c0 f3 ff ff 	mov    %rax,-0xc40(%rbp)
    6dfd:	48 c7 85 c8 f3 ff ff 	movq   $0x0,-0xc38(%rbp)
    6e04:	00 00 00 00 
    6e08:	48 8d 85 30 eb ff ff 	lea    -0x14d0(%rbp),%rax
    6e0f:	48 89 85 d0 f3 ff ff 	mov    %rax,-0xc30(%rbp)
    6e16:	48 8d 85 30 eb ff ff 	lea    -0x14d0(%rbp),%rax
    6e1d:	48 89 85 d8 f3 ff ff 	mov    %rax,-0xc28(%rbp)
    6e24:	48 8d 85 30 eb ff ff 	lea    -0x14d0(%rbp),%rax
    6e2b:	48 89 85 e0 f3 ff ff 	mov    %rax,-0xc20(%rbp)
    6e32:	48 8d 85 30 eb ff ff 	lea    -0x14d0(%rbp),%rax
    6e39:	48 89 85 e8 f3 ff ff 	mov    %rax,-0xc18(%rbp)
    6e40:	48 8d 85 30 eb ff ff 	lea    -0x14d0(%rbp),%rax
    6e47:	48 89 85 f0 f3 ff ff 	mov    %rax,-0xc10(%rbp)
    6e4e:	48 8d 85 30 eb ff ff 	lea    -0x14d0(%rbp),%rax
    6e55:	48 89 85 f8 f3 ff ff 	mov    %rax,-0xc08(%rbp)
    6e5c:	48 8d 85 30 eb ff ff 	lea    -0x14d0(%rbp),%rax
    6e63:	48 89 85 00 f4 ff ff 	mov    %rax,-0xc00(%rbp)
    6e6a:	48 c7 85 08 f4 ff ff 	movq   $0x0,-0xbf8(%rbp)
    6e71:	00 00 00 00 
    6e75:	48 8d 85 30 eb ff ff 	lea    -0x14d0(%rbp),%rax
    6e7c:	48 89 85 10 f4 ff ff 	mov    %rax,-0xbf0(%rbp)
    6e83:	48 8d 85 30 eb ff ff 	lea    -0x14d0(%rbp),%rax
    6e8a:	48 89 85 18 f4 ff ff 	mov    %rax,-0xbe8(%rbp)
    6e91:	48 c7 85 20 f4 ff ff 	movq   $0x0,-0xbe0(%rbp)
    6e98:	00 00 00 00 
    6e9c:	48 c7 85 28 f4 ff ff 	movq   $0x0,-0xbd8(%rbp)
    6ea3:	00 00 00 00 
    6ea7:	48 8d 85 30 eb ff ff 	lea    -0x14d0(%rbp),%rax
    6eae:	48 89 85 30 f4 ff ff 	mov    %rax,-0xbd0(%rbp)
    6eb5:	48 8d 85 30 eb ff ff 	lea    -0x14d0(%rbp),%rax
    6ebc:	48 89 85 38 f4 ff ff 	mov    %rax,-0xbc8(%rbp)
    6ec3:	48 8d 85 30 eb ff ff 	lea    -0x14d0(%rbp),%rax
    6eca:	48 89 85 40 f4 ff ff 	mov    %rax,-0xbc0(%rbp)
    6ed1:	48 8d 85 30 eb ff ff 	lea    -0x14d0(%rbp),%rax
    6ed8:	48 89 85 48 f4 ff ff 	mov    %rax,-0xbb8(%rbp)
    6edf:	48 8d 85 30 eb ff ff 	lea    -0x14d0(%rbp),%rax
    6ee6:	48 89 85 50 f4 ff ff 	mov    %rax,-0xbb0(%rbp)
    6eed:	48 8d 85 30 eb ff ff 	lea    -0x14d0(%rbp),%rax
    6ef4:	48 89 85 58 f4 ff ff 	mov    %rax,-0xba8(%rbp)
    6efb:	48 8d 85 30 eb ff ff 	lea    -0x14d0(%rbp),%rax
    6f02:	48 89 85 60 f4 ff ff 	mov    %rax,-0xba0(%rbp)
    6f09:	48 8d 85 30 eb ff ff 	lea    -0x14d0(%rbp),%rax
    6f10:	48 89 85 68 f4 ff ff 	mov    %rax,-0xb98(%rbp)
    6f17:	48 8d 85 30 eb ff ff 	lea    -0x14d0(%rbp),%rax
    6f1e:	48 89 85 70 f4 ff ff 	mov    %rax,-0xb90(%rbp)
    6f25:	48 8d 85 30 eb ff ff 	lea    -0x14d0(%rbp),%rax
    6f2c:	48 89 85 78 f4 ff ff 	mov    %rax,-0xb88(%rbp)
    6f33:	48 8d 85 30 eb ff ff 	lea    -0x14d0(%rbp),%rax
    6f3a:	48 89 85 80 f4 ff ff 	mov    %rax,-0xb80(%rbp)
    6f41:	48 8d 85 30 eb ff ff 	lea    -0x14d0(%rbp),%rax
    6f48:	48 89 85 88 f4 ff ff 	mov    %rax,-0xb78(%rbp)
    6f4f:	48 8d 85 30 eb ff ff 	lea    -0x14d0(%rbp),%rax
    6f56:	48 89 85 90 f4 ff ff 	mov    %rax,-0xb70(%rbp)
    6f5d:	48 8d 85 30 eb ff ff 	lea    -0x14d0(%rbp),%rax
    6f64:	48 89 85 98 f4 ff ff 	mov    %rax,-0xb68(%rbp)
    6f6b:	48 8d 85 30 eb ff ff 	lea    -0x14d0(%rbp),%rax
    6f72:	48 89 85 a0 f4 ff ff 	mov    %rax,-0xb60(%rbp)
    6f79:	48 8d 85 30 eb ff ff 	lea    -0x14d0(%rbp),%rax
    6f80:	48 89 85 a8 f4 ff ff 	mov    %rax,-0xb58(%rbp)
    6f87:	48 8d 85 30 eb ff ff 	lea    -0x14d0(%rbp),%rax
    6f8e:	48 89 85 b0 f4 ff ff 	mov    %rax,-0xb50(%rbp)
    6f95:	48 8d 85 30 eb ff ff 	lea    -0x14d0(%rbp),%rax
    6f9c:	48 89 85 b8 f4 ff ff 	mov    %rax,-0xb48(%rbp)
    6fa3:	48 8d 85 30 eb ff ff 	lea    -0x14d0(%rbp),%rax
    6faa:	48 89 85 c0 f4 ff ff 	mov    %rax,-0xb40(%rbp)
    6fb1:	48 c7 85 c8 f4 ff ff 	movq   $0x0,-0xb38(%rbp)
    6fb8:	00 00 00 00 
    6fbc:	48 8d 85 30 eb ff ff 	lea    -0x14d0(%rbp),%rax
    6fc3:	48 89 85 d0 f4 ff ff 	mov    %rax,-0xb30(%rbp)
    6fca:	48 c7 85 d8 f4 ff ff 	movq   $0x0,-0xb28(%rbp)
    6fd1:	00 00 00 00 
    6fd5:	48 8d 85 30 eb ff ff 	lea    -0x14d0(%rbp),%rax
    6fdc:	48 89 85 e0 f4 ff ff 	mov    %rax,-0xb20(%rbp)
    6fe3:	48 8d 85 30 eb ff ff 	lea    -0x14d0(%rbp),%rax
    6fea:	48 89 85 e8 f4 ff ff 	mov    %rax,-0xb18(%rbp)
    6ff1:	48 8d 85 30 eb ff ff 	lea    -0x14d0(%rbp),%rax
    6ff8:	48 89 85 f0 f4 ff ff 	mov    %rax,-0xb10(%rbp)
    6fff:	48 8d 85 30 eb ff ff 	lea    -0x14d0(%rbp),%rax
    7006:	48 89 85 f8 f4 ff ff 	mov    %rax,-0xb08(%rbp)
    700d:	48 8d 85 30 eb ff ff 	lea    -0x14d0(%rbp),%rax
    7014:	48 89 85 00 f5 ff ff 	mov    %rax,-0xb00(%rbp)
    701b:	48 c7 85 08 f5 ff ff 	movq   $0x0,-0xaf8(%rbp)
    7022:	00 00 00 00 
    7026:	48 8d 85 30 eb ff ff 	lea    -0x14d0(%rbp),%rax
    702d:	48 89 85 10 f5 ff ff 	mov    %rax,-0xaf0(%rbp)
    7034:	48 8d 85 30 eb ff ff 	lea    -0x14d0(%rbp),%rax
    703b:	48 89 85 18 f5 ff ff 	mov    %rax,-0xae8(%rbp)
    7042:	48 c7 85 20 f5 ff ff 	movq   $0x0,-0xae0(%rbp)
    7049:	00 00 00 00 
    704d:	48 8d 85 30 eb ff ff 	lea    -0x14d0(%rbp),%rax
    7054:	48 89 85 28 f5 ff ff 	mov    %rax,-0xad8(%rbp)
    705b:	48 8d 85 30 eb ff ff 	lea    -0x14d0(%rbp),%rax
    7062:	48 89 85 30 f5 ff ff 	mov    %rax,-0xad0(%rbp)
    7069:	48 8d 85 30 eb ff ff 	lea    -0x14d0(%rbp),%rax
    7070:	48 89 85 38 f5 ff ff 	mov    %rax,-0xac8(%rbp)
    7077:	48 8d 85 30 eb ff ff 	lea    -0x14d0(%rbp),%rax
    707e:	48 89 85 40 f5 ff ff 	mov    %rax,-0xac0(%rbp)
    7085:	48 8d 85 30 eb ff ff 	lea    -0x14d0(%rbp),%rax
    708c:	48 89 85 48 f5 ff ff 	mov    %rax,-0xab8(%rbp)
    7093:	48 c7 85 50 f5 ff ff 	movq   $0x0,-0xab0(%rbp)
    709a:	00 00 00 00 
    709e:	48 8d 85 30 eb ff ff 	lea    -0x14d0(%rbp),%rax
    70a5:	48 89 85 58 f5 ff ff 	mov    %rax,-0xaa8(%rbp)
    70ac:	48 8d 85 30 eb ff ff 	lea    -0x14d0(%rbp),%rax
    70b3:	48 89 85 60 f5 ff ff 	mov    %rax,-0xaa0(%rbp)
    70ba:	48 8d 85 30 eb ff ff 	lea    -0x14d0(%rbp),%rax
    70c1:	48 89 85 68 f5 ff ff 	mov    %rax,-0xa98(%rbp)
    70c8:	48 8d 85 30 eb ff ff 	lea    -0x14d0(%rbp),%rax
    70cf:	48 89 85 70 f5 ff ff 	mov    %rax,-0xa90(%rbp)
    70d6:	48 8d 85 30 eb ff ff 	lea    -0x14d0(%rbp),%rax
    70dd:	48 89 85 78 f5 ff ff 	mov    %rax,-0xa88(%rbp)
    70e4:	48 8d 85 30 eb ff ff 	lea    -0x14d0(%rbp),%rax
    70eb:	48 89 85 80 f5 ff ff 	mov    %rax,-0xa80(%rbp)
    70f2:	48 8d 85 30 eb ff ff 	lea    -0x14d0(%rbp),%rax
    70f9:	48 89 85 88 f5 ff ff 	mov    %rax,-0xa78(%rbp)
    7100:	48 8d 85 30 eb ff ff 	lea    -0x14d0(%rbp),%rax
    7107:	48 89 85 90 f5 ff ff 	mov    %rax,-0xa70(%rbp)
    710e:	48 8d 85 30 eb ff ff 	lea    -0x14d0(%rbp),%rax
    7115:	48 89 85 98 f5 ff ff 	mov    %rax,-0xa68(%rbp)
    711c:	48 8d 85 30 eb ff ff 	lea    -0x14d0(%rbp),%rax
    7123:	48 89 85 a0 f5 ff ff 	mov    %rax,-0xa60(%rbp)
    712a:	48 8d 85 30 eb ff ff 	lea    -0x14d0(%rbp),%rax
    7131:	48 89 85 a8 f5 ff ff 	mov    %rax,-0xa58(%rbp)
    7138:	48 c7 85 b0 f5 ff ff 	movq   $0x0,-0xa50(%rbp)
    713f:	00 00 00 00 
    7143:	48 8d 85 30 eb ff ff 	lea    -0x14d0(%rbp),%rax
    714a:	48 89 85 b8 f5 ff ff 	mov    %rax,-0xa48(%rbp)
    7151:	48 8d 85 30 eb ff ff 	lea    -0x14d0(%rbp),%rax
    7158:	48 89 85 c0 f5 ff ff 	mov    %rax,-0xa40(%rbp)
    715f:	48 8d 85 30 eb ff ff 	lea    -0x14d0(%rbp),%rax
    7166:	48 89 85 c8 f5 ff ff 	mov    %rax,-0xa38(%rbp)
    716d:	48 8d 85 30 eb ff ff 	lea    -0x14d0(%rbp),%rax
    7174:	48 89 85 d0 f5 ff ff 	mov    %rax,-0xa30(%rbp)
    717b:	48 8d 85 30 eb ff ff 	lea    -0x14d0(%rbp),%rax
    7182:	48 89 85 d8 f5 ff ff 	mov    %rax,-0xa28(%rbp)
    7189:	48 8d 85 30 eb ff ff 	lea    -0x14d0(%rbp),%rax
    7190:	48 89 85 e0 f5 ff ff 	mov    %rax,-0xa20(%rbp)
    7197:	48 8d 85 30 eb ff ff 	lea    -0x14d0(%rbp),%rax
    719e:	48 89 85 e8 f5 ff ff 	mov    %rax,-0xa18(%rbp)
    71a5:	48 8d 85 30 eb ff ff 	lea    -0x14d0(%rbp),%rax
    71ac:	48 89 85 f0 f5 ff ff 	mov    %rax,-0xa10(%rbp)
    71b3:	48 8d 85 30 eb ff ff 	lea    -0x14d0(%rbp),%rax
    71ba:	48 89 85 f8 f5 ff ff 	mov    %rax,-0xa08(%rbp)
    71c1:	48 8d 85 30 eb ff ff 	lea    -0x14d0(%rbp),%rax
    71c8:	48 89 85 00 f6 ff ff 	mov    %rax,-0xa00(%rbp)
    71cf:	48 8d 85 30 eb ff ff 	lea    -0x14d0(%rbp),%rax
    71d6:	48 89 85 08 f6 ff ff 	mov    %rax,-0x9f8(%rbp)
    71dd:	48 8d 85 30 eb ff ff 	lea    -0x14d0(%rbp),%rax
    71e4:	48 89 85 10 f6 ff ff 	mov    %rax,-0x9f0(%rbp)
    71eb:	48 c7 85 18 f6 ff ff 	movq   $0x0,-0x9e8(%rbp)
    71f2:	00 00 00 00 
    71f6:	48 8d 85 30 eb ff ff 	lea    -0x14d0(%rbp),%rax
    71fd:	48 89 85 20 f6 ff ff 	mov    %rax,-0x9e0(%rbp)
    7204:	48 c7 85 28 f6 ff ff 	movq   $0x0,-0x9d8(%rbp)
    720b:	00 00 00 00 
    720f:	48 8d 85 30 eb ff ff 	lea    -0x14d0(%rbp),%rax
    7216:	48 89 85 30 f6 ff ff 	mov    %rax,-0x9d0(%rbp)
    721d:	48 8d 85 30 eb ff ff 	lea    -0x14d0(%rbp),%rax
    7224:	48 89 85 38 f6 ff ff 	mov    %rax,-0x9c8(%rbp)
    722b:	48 8d 85 30 eb ff ff 	lea    -0x14d0(%rbp),%rax
    7232:	48 89 85 40 f6 ff ff 	mov    %rax,-0x9c0(%rbp)
    7239:	48 8d 85 30 eb ff ff 	lea    -0x14d0(%rbp),%rax
    7240:	48 89 85 48 f6 ff ff 	mov    %rax,-0x9b8(%rbp)
    7247:	48 8d 85 30 eb ff ff 	lea    -0x14d0(%rbp),%rax
    724e:	48 89 85 50 f6 ff ff 	mov    %rax,-0x9b0(%rbp)
    7255:	48 8d 85 30 eb ff ff 	lea    -0x14d0(%rbp),%rax
    725c:	48 89 85 58 f6 ff ff 	mov    %rax,-0x9a8(%rbp)
    7263:	48 8d 85 30 eb ff ff 	lea    -0x14d0(%rbp),%rax
    726a:	48 89 85 60 f6 ff ff 	mov    %rax,-0x9a0(%rbp)
    7271:	48 c7 85 68 f6 ff ff 	movq   $0x0,-0x998(%rbp)
    7278:	00 00 00 00 
    727c:	48 8d 85 30 eb ff ff 	lea    -0x14d0(%rbp),%rax
    7283:	48 89 85 70 f6 ff ff 	mov    %rax,-0x990(%rbp)
    728a:	48 8d 85 30 eb ff ff 	lea    -0x14d0(%rbp),%rax
    7291:	48 89 85 78 f6 ff ff 	mov    %rax,-0x988(%rbp)
    7298:	48 8d 85 30 eb ff ff 	lea    -0x14d0(%rbp),%rax
    729f:	48 89 85 80 f6 ff ff 	mov    %rax,-0x980(%rbp)
    72a6:	48 8d 85 30 eb ff ff 	lea    -0x14d0(%rbp),%rax
    72ad:	48 89 85 88 f6 ff ff 	mov    %rax,-0x978(%rbp)
    72b4:	48 8d 85 30 eb ff ff 	lea    -0x14d0(%rbp),%rax
    72bb:	48 89 85 90 f6 ff ff 	mov    %rax,-0x970(%rbp)
    72c2:	48 8d 85 30 eb ff ff 	lea    -0x14d0(%rbp),%rax
    72c9:	48 89 85 98 f6 ff ff 	mov    %rax,-0x968(%rbp)
    72d0:	48 8d 85 30 eb ff ff 	lea    -0x14d0(%rbp),%rax
    72d7:	48 89 85 a0 f6 ff ff 	mov    %rax,-0x960(%rbp)
    72de:	48 c7 85 a8 f6 ff ff 	movq   $0x0,-0x958(%rbp)
    72e5:	00 00 00 00 
    72e9:	48 8d 85 30 eb ff ff 	lea    -0x14d0(%rbp),%rax
    72f0:	48 89 85 b0 f6 ff ff 	mov    %rax,-0x950(%rbp)
    72f7:	48 8d 85 30 eb ff ff 	lea    -0x14d0(%rbp),%rax
    72fe:	48 89 85 b8 f6 ff ff 	mov    %rax,-0x948(%rbp)
    7305:	48 c7 85 c0 f6 ff ff 	movq   $0x0,-0x940(%rbp)
    730c:	00 00 00 00 
    7310:	48 8d 85 30 eb ff ff 	lea    -0x14d0(%rbp),%rax
    7317:	48 89 85 c8 f6 ff ff 	mov    %rax,-0x938(%rbp)
    731e:	48 8d 85 30 eb ff ff 	lea    -0x14d0(%rbp),%rax
    7325:	48 89 85 d0 f6 ff ff 	mov    %rax,-0x930(%rbp)
    732c:	48 8d 85 30 eb ff ff 	lea    -0x14d0(%rbp),%rax
    7333:	48 89 85 d8 f6 ff ff 	mov    %rax,-0x928(%rbp)
    733a:	48 8d 85 30 eb ff ff 	lea    -0x14d0(%rbp),%rax
    7341:	48 89 85 e0 f6 ff ff 	mov    %rax,-0x920(%rbp)
    7348:	48 8d 85 30 eb ff ff 	lea    -0x14d0(%rbp),%rax
    734f:	48 89 85 e8 f6 ff ff 	mov    %rax,-0x918(%rbp)
    7356:	48 8d 85 30 eb ff ff 	lea    -0x14d0(%rbp),%rax
    735d:	48 89 85 f0 f6 ff ff 	mov    %rax,-0x910(%rbp)
    7364:	48 c7 85 f8 f6 ff ff 	movq   $0x0,-0x908(%rbp)
    736b:	00 00 00 00 
    736f:	48 8d 85 30 eb ff ff 	lea    -0x14d0(%rbp),%rax
    7376:	48 89 85 00 f7 ff ff 	mov    %rax,-0x900(%rbp)
    737d:	48 8d 85 30 eb ff ff 	lea    -0x14d0(%rbp),%rax
    7384:	48 89 85 08 f7 ff ff 	mov    %rax,-0x8f8(%rbp)
    738b:	48 8d 85 30 eb ff ff 	lea    -0x14d0(%rbp),%rax
    7392:	48 89 85 10 f7 ff ff 	mov    %rax,-0x8f0(%rbp)
    7399:	48 8d 85 30 eb ff ff 	lea    -0x14d0(%rbp),%rax
    73a0:	48 89 85 18 f7 ff ff 	mov    %rax,-0x8e8(%rbp)
    73a7:	48 8d 85 30 eb ff ff 	lea    -0x14d0(%rbp),%rax
    73ae:	48 89 85 20 f7 ff ff 	mov    %rax,-0x8e0(%rbp)
    73b5:	48 8d 85 30 eb ff ff 	lea    -0x14d0(%rbp),%rax
    73bc:	48 89 85 28 f7 ff ff 	mov    %rax,-0x8d8(%rbp)
    73c3:	48 8d 85 30 eb ff ff 	lea    -0x14d0(%rbp),%rax
    73ca:	48 89 85 30 f7 ff ff 	mov    %rax,-0x8d0(%rbp)
    73d1:	48 8d 85 30 eb ff ff 	lea    -0x14d0(%rbp),%rax
    73d8:	48 89 85 38 f7 ff ff 	mov    %rax,-0x8c8(%rbp)
    73df:	48 c7 85 40 f7 ff ff 	movq   $0x0,-0x8c0(%rbp)
    73e6:	00 00 00 00 
    73ea:	48 8d 85 30 eb ff ff 	lea    -0x14d0(%rbp),%rax
    73f1:	48 89 85 48 f7 ff ff 	mov    %rax,-0x8b8(%rbp)
    73f8:	48 c7 85 50 f7 ff ff 	movq   $0x0,-0x8b0(%rbp)
    73ff:	00 00 00 00 
    7403:	48 8d 85 30 eb ff ff 	lea    -0x14d0(%rbp),%rax
    740a:	48 89 85 58 f7 ff ff 	mov    %rax,-0x8a8(%rbp)
    7411:	48 8d 85 30 eb ff ff 	lea    -0x14d0(%rbp),%rax
    7418:	48 89 85 60 f7 ff ff 	mov    %rax,-0x8a0(%rbp)
    741f:	48 8d 85 30 eb ff ff 	lea    -0x14d0(%rbp),%rax
    7426:	48 89 85 68 f7 ff ff 	mov    %rax,-0x898(%rbp)
    742d:	48 8d 85 30 eb ff ff 	lea    -0x14d0(%rbp),%rax
    7434:	48 89 85 70 f7 ff ff 	mov    %rax,-0x890(%rbp)
    743b:	48 8d 85 30 eb ff ff 	lea    -0x14d0(%rbp),%rax
    7442:	48 89 85 78 f7 ff ff 	mov    %rax,-0x888(%rbp)
    7449:	48 8d 85 30 eb ff ff 	lea    -0x14d0(%rbp),%rax
    7450:	48 89 85 80 f7 ff ff 	mov    %rax,-0x880(%rbp)
    7457:	48 8d 85 30 eb ff ff 	lea    -0x14d0(%rbp),%rax
    745e:	48 89 85 88 f7 ff ff 	mov    %rax,-0x878(%rbp)
    7465:	48 8d 85 30 eb ff ff 	lea    -0x14d0(%rbp),%rax
    746c:	48 89 85 90 f7 ff ff 	mov    %rax,-0x870(%rbp)
    7473:	48 8d 85 30 eb ff ff 	lea    -0x14d0(%rbp),%rax
    747a:	48 89 85 98 f7 ff ff 	mov    %rax,-0x868(%rbp)
    7481:	48 8d 85 30 eb ff ff 	lea    -0x14d0(%rbp),%rax
    7488:	48 89 85 a0 f7 ff ff 	mov    %rax,-0x860(%rbp)
    748f:	48 8d 85 30 eb ff ff 	lea    -0x14d0(%rbp),%rax
    7496:	48 89 85 a8 f7 ff ff 	mov    %rax,-0x858(%rbp)
    749d:	48 8d 85 30 eb ff ff 	lea    -0x14d0(%rbp),%rax
    74a4:	48 89 85 b0 f7 ff ff 	mov    %rax,-0x850(%rbp)
    74ab:	48 8d 85 30 eb ff ff 	lea    -0x14d0(%rbp),%rax
    74b2:	48 89 85 b8 f7 ff ff 	mov    %rax,-0x848(%rbp)
    74b9:	48 8d 85 30 eb ff ff 	lea    -0x14d0(%rbp),%rax
    74c0:	48 89 85 c0 f7 ff ff 	mov    %rax,-0x840(%rbp)
    74c7:	48 8d 85 30 eb ff ff 	lea    -0x14d0(%rbp),%rax
    74ce:	48 89 85 c8 f7 ff ff 	mov    %rax,-0x838(%rbp)
    74d5:	48 8d 85 30 eb ff ff 	lea    -0x14d0(%rbp),%rax
    74dc:	48 89 85 d0 f7 ff ff 	mov    %rax,-0x830(%rbp)
    74e3:	48 8d 85 30 eb ff ff 	lea    -0x14d0(%rbp),%rax
    74ea:	48 89 85 d8 f7 ff ff 	mov    %rax,-0x828(%rbp)
    74f1:	48 8d 85 30 eb ff ff 	lea    -0x14d0(%rbp),%rax
    74f8:	48 89 85 e0 f7 ff ff 	mov    %rax,-0x820(%rbp)
    74ff:	48 8d 85 e0 f0 ff ff 	lea    -0xf20(%rbp),%rax
    7506:	48 05 40 02 00 00    	add    $0x240,%rax
    750c:	48 89 85 b8 eb ff ff 	mov    %rax,-0x1448(%rbp)
    7513:	48 8b 85 20 f3 ff ff 	mov    -0xce0(%rbp),%rax
    751a:	48 85 c0             	test   %rax,%rax
    751d:	0f 95 c0             	setne  %al
    7520:	0f b6 d0             	movzbl %al,%edx
    7523:	0f b6 05 fa 9a 00 00 	movzbl 0x9afa(%rip),%eax        # 11024 <g_7>
    752a:	0f be c0             	movsbl %al,%eax
    752d:	39 c2                	cmp    %eax,%edx
    752f:	0f 94 c0             	sete   %al
    7532:	0f b6 c0             	movzbl %al,%eax
    7535:	48 89 c7             	mov    %rax,%rdi
    7538:	e8 12 08 00 00       	callq  7d4f <func_3>
    753d:	48 8b 95 b8 eb ff ff 	mov    -0x1448(%rbp),%rdx
    7544:	48 89 02             	mov    %rax,(%rdx)
    7547:	e9 c4 03 00 00       	jmpq   7910 <func_1+0x215b>
    754c:	48 8d 05 e5 9c 00 00 	lea    0x9ce5(%rip),%rax        # 11238 <g_210>
    7553:	48 89 85 98 eb ff ff 	mov    %rax,-0x1468(%rbp)
    755a:	48 8d 05 c1 9c 00 00 	lea    0x9cc1(%rip),%rax        # 11222 <g_116>
    7561:	48 89 85 70 ec ff ff 	mov    %rax,-0x1390(%rbp)
    7568:	48 8d 05 b3 9c 00 00 	lea    0x9cb3(%rip),%rax        # 11222 <g_116>
    756f:	48 89 85 78 ec ff ff 	mov    %rax,-0x1388(%rbp)
    7576:	48 8d 05 a5 9c 00 00 	lea    0x9ca5(%rip),%rax        # 11222 <g_116>
    757d:	48 89 85 80 ec ff ff 	mov    %rax,-0x1380(%rbp)
    7584:	48 8d 05 97 9c 00 00 	lea    0x9c97(%rip),%rax        # 11222 <g_116>
    758b:	48 89 85 88 ec ff ff 	mov    %rax,-0x1378(%rbp)
    7592:	48 8d 05 89 9c 00 00 	lea    0x9c89(%rip),%rax        # 11222 <g_116>
    7599:	48 89 85 90 ec ff ff 	mov    %rax,-0x1370(%rbp)
    75a0:	48 8d 05 7b 9c 00 00 	lea    0x9c7b(%rip),%rax        # 11222 <g_116>
    75a7:	48 89 85 98 ec ff ff 	mov    %rax,-0x1368(%rbp)
    75ae:	48 8d 05 bb a4 00 00 	lea    0xa4bb(%rip),%rax        # 11a70 <g_745>
    75b5:	48 89 85 a0 eb ff ff 	mov    %rax,-0x1460(%rbp)
    75bc:	c7 85 e0 f0 ff ff 41 	movl   $0xe5f36a41,-0xf20(%rbp)
    75c3:	6a f3 e5 
    75c6:	c7 85 e4 f0 ff ff eb 	movl   $0x337b1feb,-0xf1c(%rbp)
    75cd:	1f 7b 33 
    75d0:	c7 85 e8 f0 ff ff e6 	movl   $0xc2685ee6,-0xf18(%rbp)
    75d7:	5e 68 c2 
    75da:	c7 85 ec f0 ff ff 50 	movl   $0x3861ab50,-0xf14(%rbp)
    75e1:	ab 61 38 
    75e4:	c7 85 f0 f0 ff ff 50 	movl   $0x3861ab50,-0xf10(%rbp)
    75eb:	ab 61 38 
    75ee:	c7 85 f4 f0 ff ff e6 	movl   $0xc2685ee6,-0xf0c(%rbp)
    75f5:	5e 68 c2 
    75f8:	c7 85 f8 f0 ff ff eb 	movl   $0x337b1feb,-0xf08(%rbp)
    75ff:	1f 7b 33 
    7602:	c7 85 fc f0 ff ff 41 	movl   $0xe5f36a41,-0xf04(%rbp)
    7609:	6a f3 e5 
    760c:	c7 85 00 f1 ff ff 41 	movl   $0xe5f36a41,-0xf00(%rbp)
    7613:	6a f3 e5 
    7616:	c7 85 04 f1 ff ff f3 	movl   $0x910cf9f3,-0xefc(%rbp)
    761d:	f9 0c 91 
    7620:	c7 85 08 f1 ff ff 7d 	movl   $0x6c37547d,-0xef8(%rbp)
    7627:	54 37 6c 
    762a:	c7 85 0c f1 ff ff f7 	movl   $0xfffffff7,-0xef4(%rbp)
    7631:	ff ff ff 
    7634:	c7 85 10 f1 ff ff eb 	movl   $0x337b1feb,-0xef0(%rbp)
    763b:	1f 7b 33 
    763e:	c7 85 14 f1 ff ff f8 	movl   $0xfffffff8,-0xeec(%rbp)
    7645:	ff ff ff 
    7648:	c7 85 18 f1 ff ff e6 	movl   $0xc2685ee6,-0xee8(%rbp)
    764f:	5e 68 c2 
    7652:	c7 85 1c f1 ff ff f8 	movl   $0xfffffff8,-0xee4(%rbp)
    7659:	ff ff ff 
    765c:	c7 85 20 f1 ff ff f7 	movl   $0xfffffff7,-0xee0(%rbp)
    7663:	ff ff ff 
    7666:	c7 85 24 f1 ff ff 21 	movl   $0xc521b721,-0xedc(%rbp)
    766d:	b7 21 c5 
    7670:	c7 85 28 f1 ff ff f8 	movl   $0xfffffff8,-0xed8(%rbp)
    7677:	ff ff ff 
    767a:	c7 85 2c f1 ff ff 21 	movl   $0xc521b721,-0xed4(%rbp)
    7681:	b7 21 c5 
    7684:	c7 85 30 f1 ff ff f7 	movl   $0xfffffff7,-0xed0(%rbp)
    768b:	ff ff ff 
    768e:	c7 85 34 f1 ff ff f8 	movl   $0xfffffff8,-0xecc(%rbp)
    7695:	ff ff ff 
    7698:	c7 85 38 f1 ff ff ff 	movl   $0xf34e38ff,-0xec8(%rbp)
    769f:	38 4e f3 
    76a2:	c7 85 3c f1 ff ff eb 	movl   $0x337b1feb,-0xec4(%rbp)
    76a9:	1f 7b 33 
    76ac:	c7 85 40 f1 ff ff 07 	movl   $0x7,-0xec0(%rbp)
    76b3:	00 00 00 
    76b6:	c7 85 44 f1 ff ff f3 	movl   $0x910cf9f3,-0xebc(%rbp)
    76bd:	f9 0c 91 
    76c0:	c7 85 48 f1 ff ff 21 	movl   $0xc521b721,-0xeb8(%rbp)
    76c7:	b7 21 c5 
    76ca:	c7 85 4c f1 ff ff f2 	movl   $0x21817af2,-0xeb4(%rbp)
    76d1:	7a 81 21 
    76d4:	c7 85 50 f1 ff ff e6 	movl   $0xc2685ee6,-0xeb0(%rbp)
    76db:	5e 68 c2 
    76de:	c7 85 54 f1 ff ff e6 	movl   $0xc2685ee6,-0xeac(%rbp)
    76e5:	5e 68 c2 
    76e8:	c7 85 58 f1 ff ff f2 	movl   $0x21817af2,-0xea8(%rbp)
    76ef:	7a 81 21 
    76f2:	c7 85 5c f1 ff ff 21 	movl   $0xc521b721,-0xea4(%rbp)
    76f9:	b7 21 c5 
    76fc:	c7 85 60 f1 ff ff eb 	movl   $0x337b1feb,-0xea0(%rbp)
    7703:	1f 7b 33 
    7706:	c7 85 64 f1 ff ff eb 	movl   $0x337b1feb,-0xe9c(%rbp)
    770d:	1f 7b 33 
    7710:	c7 85 68 f1 ff ff 21 	movl   $0xc521b721,-0xe98(%rbp)
    7717:	b7 21 c5 
    771a:	c7 85 6c f1 ff ff 41 	movl   $0xe5f36a41,-0xe94(%rbp)
    7721:	6a f3 e5 
    7724:	c7 85 70 f1 ff ff 7d 	movl   $0x6c37547d,-0xe90(%rbp)
    772b:	54 37 6c 
    772e:	c7 85 74 f1 ff ff 50 	movl   $0x3861ab50,-0xe8c(%rbp)
    7735:	ab 61 38 
    7738:	c7 85 78 f1 ff ff ff 	movl   $0xf34e38ff,-0xe88(%rbp)
    773f:	38 4e f3 
    7742:	c7 85 7c f1 ff ff 07 	movl   $0x7,-0xe84(%rbp)
    7749:	00 00 00 
    774c:	c7 85 80 f1 ff ff e6 	movl   $0xc2685ee6,-0xe80(%rbp)
    7753:	5e 68 c2 
    7756:	c7 85 84 f1 ff ff ff 	movl   $0xf34e38ff,-0xe7c(%rbp)
    775d:	38 4e f3 
    7760:	c7 85 88 f1 ff ff f8 	movl   $0xfffffff8,-0xe78(%rbp)
    7767:	ff ff ff 
    776a:	c7 85 8c f1 ff ff eb 	movl   $0x337b1feb,-0xe74(%rbp)
    7771:	1f 7b 33 
    7774:	c7 85 90 f1 ff ff f8 	movl   $0xfffffff8,-0xe70(%rbp)
    777b:	ff ff ff 
    777e:	c7 85 94 f1 ff ff ff 	movl   $0xf34e38ff,-0xe6c(%rbp)
    7785:	38 4e f3 
    7788:	c7 85 98 f1 ff ff e6 	movl   $0xc2685ee6,-0xe68(%rbp)
    778f:	5e 68 c2 
    7792:	c7 85 9c f1 ff ff 07 	movl   $0x7,-0xe64(%rbp)
    7799:	00 00 00 
    779c:	c7 85 d0 ea ff ff aa 	movl   $0x92f166aa,-0x1530(%rbp)
    77a3:	66 f1 92 
    77a6:	c7 85 d4 ea ff ff 01 	movl   $0x1,-0x152c(%rbp)
    77ad:	00 00 00 
    77b0:	48 8d 85 e0 ea ff ff 	lea    -0x1520(%rbp),%rax
    77b7:	48 89 85 a0 ec ff ff 	mov    %rax,-0x1360(%rbp)
    77be:	48 8d 85 e0 ea ff ff 	lea    -0x1520(%rbp),%rax
    77c5:	48 89 85 a8 ec ff ff 	mov    %rax,-0x1358(%rbp)
    77cc:	48 8d 85 e0 ea ff ff 	lea    -0x1520(%rbp),%rax
    77d3:	48 89 85 b0 ec ff ff 	mov    %rax,-0x1350(%rbp)
    77da:	48 8d 85 e0 ea ff ff 	lea    -0x1520(%rbp),%rax
    77e1:	48 89 85 b8 ec ff ff 	mov    %rax,-0x1348(%rbp)
    77e8:	48 8d 85 e0 ea ff ff 	lea    -0x1520(%rbp),%rax
    77ef:	48 89 85 c0 ec ff ff 	mov    %rax,-0x1340(%rbp)
    77f6:	48 8d 85 e0 ea ff ff 	lea    -0x1520(%rbp),%rax
    77fd:	48 89 85 c8 ec ff ff 	mov    %rax,-0x1338(%rbp)
    7804:	48 8d 85 e0 ea ff ff 	lea    -0x1520(%rbp),%rax
    780b:	48 89 85 d0 ec ff ff 	mov    %rax,-0x1330(%rbp)
    7812:	48 8d 85 e0 ea ff ff 	lea    -0x1520(%rbp),%rax
    7819:	48 89 85 d8 ec ff ff 	mov    %rax,-0x1328(%rbp)
    7820:	48 8d 85 e0 ea ff ff 	lea    -0x1520(%rbp),%rax
    7827:	48 89 85 e0 ec ff ff 	mov    %rax,-0x1320(%rbp)
    782e:	48 c7 85 a8 eb ff ff 	movq   $0x0,-0x1458(%rbp)
    7835:	00 00 00 00 
    7839:	48 c7 85 b0 eb ff ff 	movq   $0x0,-0x1450(%rbp)
    7840:	00 00 00 00 
    7844:	c7 85 10 ec ff ff 84 	movl   $0xf074f784,-0x13f0(%rbp)
    784b:	f7 74 f0 
    784e:	c7 85 14 ec ff ff 92 	movl   $0xa70fd492,-0x13ec(%rbp)
    7855:	d4 0f a7 
    7858:	c7 85 18 ec ff ff 84 	movl   $0xf074f784,-0x13e8(%rbp)
    785f:	f7 74 f0 
    7862:	c7 85 1c ec ff ff 84 	movl   $0xf074f784,-0x13e4(%rbp)
    7869:	f7 74 f0 
    786c:	c7 85 20 ec ff ff 92 	movl   $0xa70fd492,-0x13e0(%rbp)
    7873:	d4 0f a7 
    7876:	c7 85 24 ec ff ff 84 	movl   $0xf074f784,-0x13dc(%rbp)
    787d:	f7 74 f0 
    7880:	c7 85 28 ec ff ff 84 	movl   $0xf074f784,-0x13d8(%rbp)
    7887:	f7 74 f0 
    788a:	c7 85 2c ec ff ff 92 	movl   $0xa70fd492,-0x13d4(%rbp)
    7891:	d4 0f a7 
    7894:	c7 85 30 ec ff ff 84 	movl   $0xf074f784,-0x13d0(%rbp)
    789b:	f7 74 f0 
    789e:	c7 85 34 ec ff ff 84 	movl   $0xf074f784,-0x13cc(%rbp)
    78a5:	f7 74 f0 
    78a8:	66 c7 85 84 ea ff ff 	movw   $0x1d6f,-0x157c(%rbp)
    78af:	6f 1d 
    78b1:	c7 85 94 ea ff ff 00 	movl   $0x0,-0x156c(%rbp)
    78b8:	00 00 00 
    78bb:	eb 1a                	jmp    78d7 <func_1+0x2122>
    78bd:	8b 85 94 ea ff ff    	mov    -0x156c(%rbp),%eax
    78c3:	48 98                	cltq   
    78c5:	c7 84 85 f0 eb ff ff 	movl   $0x3,-0x1410(%rbp,%rax,4)
    78cc:	03 00 00 00 
    78d0:	83 85 94 ea ff ff 01 	addl   $0x1,-0x156c(%rbp)
    78d7:	83 bd 94 ea ff ff 03 	cmpl   $0x3,-0x156c(%rbp)
    78de:	7e dd                	jle    78bd <func_1+0x2108>
    78e0:	c7 85 94 ea ff ff 00 	movl   $0x0,-0x156c(%rbp)
    78e7:	00 00 00 
    78ea:	eb 1b                	jmp    7907 <func_1+0x2152>
    78ec:	8b 85 94 ea ff ff    	mov    -0x156c(%rbp),%eax
    78f2:	48 98                	cltq   
    78f4:	48 c7 84 c5 00 ec ff 	movq   $0x0,-0x1400(%rbp,%rax,8)
    78fb:	ff 00 00 00 00 
    7900:	83 85 94 ea ff ff 01 	addl   $0x1,-0x156c(%rbp)
    7907:	83 bd 94 ea ff ff 01 	cmpl   $0x1,-0x156c(%rbp)
    790e:	7e dc                	jle    78ec <func_1+0x2137>
    7910:	0f b6 85 79 ea ff ff 	movzbl -0x1587(%rbp),%eax
    7917:	0f b6 d8             	movzbl %al,%ebx
    791a:	8b 05 7c bc 00 00    	mov    0xbc7c(%rip),%eax        # 1359c <g_434>
    7920:	44 0f b7 e0          	movzwl %ax,%r12d
    7924:	48 8b 05 15 b7 00 00 	mov    0xb715(%rip),%rax        # 13040 <g_1390>
    792b:	48 8b 00             	mov    (%rax),%rax
    792e:	41 89 c5             	mov    %eax,%r13d
    7931:	48 8b 85 60 eb ff ff 	mov    -0x14a0(%rbp),%rax
    7938:	48 8b 00             	mov    (%rax),%rax
    793b:	48 8b 10             	mov    (%rax),%rdx
    793e:	48 8b 85 60 eb ff ff 	mov    -0x14a0(%rbp),%rax
    7945:	48 8b 00             	mov    (%rax),%rax
    7948:	48 8b 00             	mov    (%rax),%rax
    794b:	8b 12                	mov    (%rdx),%edx
    794d:	89 10                	mov    %edx,(%rax)
    794f:	0f b6 05 a6 a2 00 00 	movzbl 0xa2a6(%rip),%eax        # 11bfc <g_1502>
    7956:	48 0f be c0          	movsbq %al,%rax
    795a:	8b 95 b4 ea ff ff    	mov    -0x154c(%rbp),%edx
    7960:	48 83 e2 fc          	and    $0xfffffffffffffffc,%rdx
    7964:	48 39 d0             	cmp    %rdx,%rax
    7967:	0f 9c c0             	setl   %al
    796a:	0f b6 c0             	movzbl %al,%eax
    796d:	be 06 00 00 00       	mov    $0x6,%esi
    7972:	89 c7                	mov    %eax,%edi
    7974:	e8 45 d3 ff ff       	callq  4cbe <safe_rshift_func_uint8_t_u_u>
    7979:	48 8b 85 e8 ea ff ff 	mov    -0x1518(%rbp),%rax
    7980:	48 8b 00             	mov    (%rax),%rax
    7983:	48 8d 15 96 98 00 00 	lea    0x9896(%rip),%rdx        # 11220 <g_96>
    798a:	48 89 10             	mov    %rdx,(%rax)
    798d:	0f b6 85 79 ea ff ff 	movzbl -0x1587(%rbp),%eax
    7994:	0f be d0             	movsbl %al,%edx
    7997:	8b 05 87 98 00 00    	mov    0x9887(%rip),%eax        # 11224 <g_119>
    799d:	09 d0                	or     %edx,%eax
    799f:	89 05 7f 98 00 00    	mov    %eax,0x987f(%rip)        # 11224 <g_119>
    79a5:	8b 05 79 98 00 00    	mov    0x9879(%rip),%eax        # 11224 <g_119>
    79ab:	85 c0                	test   %eax,%eax
    79ad:	0f 95 c0             	setne  %al
    79b0:	0f b6 d0             	movzbl %al,%edx
    79b3:	48 8b 85 78 eb ff ff 	mov    -0x1488(%rbp),%rax
    79ba:	48 89 10             	mov    %rdx,(%rax)
    79bd:	48 8b 85 78 eb ff ff 	mov    -0x1488(%rbp),%rax
    79c4:	48 8b 00             	mov    (%rax),%rax
    79c7:	44 21 e8             	and    %r13d,%eax
    79ca:	0f b7 c0             	movzwl %ax,%eax
    79cd:	44 89 e6             	mov    %r12d,%esi
    79d0:	89 c7                	mov    %eax,%edi
    79d2:	e8 85 d3 ff ff       	callq  4d5c <safe_mod_func_uint16_t_u_u>
    79d7:	0f b7 d0             	movzwl %ax,%edx
    79da:	48 8b 05 f7 9f 00 00 	mov    0x9ff7(%rip),%rax        # 119d8 <g_535+0x158>
    79e1:	48 39 c2             	cmp    %rax,%rdx
    79e4:	0f 93 c0             	setae  %al
    79e7:	0f b6 c0             	movzbl %al,%eax
    79ea:	be 1e bf 00 00       	mov    $0xbf1e,%esi
    79ef:	89 c7                	mov    %eax,%edi
    79f1:	e8 66 d3 ff ff       	callq  4d5c <safe_mod_func_uint16_t_u_u>
    79f6:	0f b7 d0             	movzwl %ax,%edx
    79f9:	8b 05 a5 99 00 00    	mov    0x99a5(%rip),%eax        # 113a4 <g_413>
    79ff:	39 c2                	cmp    %eax,%edx
    7a01:	0f 9d c0             	setge  %al
    7a04:	0f b6 c0             	movzbl %al,%eax
    7a07:	89 de                	mov    %ebx,%esi
    7a09:	89 c7                	mov    %eax,%edi
    7a0b:	e8 4a d1 ff ff       	callq  4b5a <safe_add_func_uint8_t_u_u>
    7a10:	48 8b 95 80 eb ff ff 	mov    -0x1480(%rbp),%rdx
    7a17:	8b 12                	mov    (%rdx),%edx
    7a19:	0f b6 c0             	movzbl %al,%eax
    7a1c:	21 c2                	and    %eax,%edx
    7a1e:	48 8b 85 80 eb ff ff 	mov    -0x1480(%rbp),%rax
    7a25:	89 10                	mov    %edx,(%rax)
    7a27:	c6 05 fe a1 00 00 00 	movb   $0x0,0xa1fe(%rip)        # 11c2c <g_2014>
    7a2e:	e9 c9 02 00 00       	jmpq   7cfc <func_1+0x2547>
    7a33:	48 8d 05 a6 99 00 00 	lea    0x99a6(%rip),%rax        # 113e0 <g_419>
    7a3a:	48 89 85 c0 eb ff ff 	mov    %rax,-0x1440(%rbp)
    7a41:	c6 85 7c ea ff ff 85 	movb   $0x85,-0x1584(%rbp)
    7a48:	c6 85 7d ea ff ff 04 	movb   $0x4,-0x1583(%rbp)
    7a4f:	c7 85 d8 ea ff ff 01 	movl   $0x1,-0x1528(%rbp)
    7a56:	00 00 00 
    7a59:	c7 85 8c ea ff ff 01 	movl   $0x1,-0x1574(%rbp)
    7a60:	00 00 00 
    7a63:	48 8d 05 9e b5 00 00 	lea    0xb59e(%rip),%rax        # 13008 <g_1235>
    7a6a:	48 89 85 10 ec ff ff 	mov    %rax,-0x13f0(%rbp)
    7a71:	48 8d 05 90 b5 00 00 	lea    0xb590(%rip),%rax        # 13008 <g_1235>
    7a78:	48 89 85 18 ec ff ff 	mov    %rax,-0x13e8(%rbp)
    7a7f:	48 8d 05 82 b5 00 00 	lea    0xb582(%rip),%rax        # 13008 <g_1235>
    7a86:	48 89 85 20 ec ff ff 	mov    %rax,-0x13e0(%rbp)
    7a8d:	48 8d 05 74 b5 00 00 	lea    0xb574(%rip),%rax        # 13008 <g_1235>
    7a94:	48 89 85 28 ec ff ff 	mov    %rax,-0x13d8(%rbp)
    7a9b:	48 8d 85 10 ec ff ff 	lea    -0x13f0(%rbp),%rax
    7aa2:	48 83 c0 10          	add    $0x10,%rax
    7aa6:	48 89 85 e0 f0 ff ff 	mov    %rax,-0xf20(%rbp)
    7aad:	48 8d 85 10 ec ff ff 	lea    -0x13f0(%rbp),%rax
    7ab4:	48 83 c0 10          	add    $0x10,%rax
    7ab8:	48 89 85 e8 f0 ff ff 	mov    %rax,-0xf18(%rbp)
    7abf:	48 8d 85 10 ec ff ff 	lea    -0x13f0(%rbp),%rax
    7ac6:	48 83 c0 10          	add    $0x10,%rax
    7aca:	48 89 85 f0 f0 ff ff 	mov    %rax,-0xf10(%rbp)
    7ad1:	48 8d 85 10 ec ff ff 	lea    -0x13f0(%rbp),%rax
    7ad8:	48 83 c0 10          	add    $0x10,%rax
    7adc:	48 89 85 f8 f0 ff ff 	mov    %rax,-0xf08(%rbp)
    7ae3:	48 8d 85 10 ec ff ff 	lea    -0x13f0(%rbp),%rax
    7aea:	48 83 c0 10          	add    $0x10,%rax
    7aee:	48 89 85 00 f1 ff ff 	mov    %rax,-0xf00(%rbp)
    7af5:	48 8d 85 10 ec ff ff 	lea    -0x13f0(%rbp),%rax
    7afc:	48 83 c0 10          	add    $0x10,%rax
    7b00:	48 89 85 08 f1 ff ff 	mov    %rax,-0xef8(%rbp)
    7b07:	48 8d 85 10 ec ff ff 	lea    -0x13f0(%rbp),%rax
    7b0e:	48 83 c0 10          	add    $0x10,%rax
    7b12:	48 89 85 10 f1 ff ff 	mov    %rax,-0xef0(%rbp)
    7b19:	48 8d 85 10 ec ff ff 	lea    -0x13f0(%rbp),%rax
    7b20:	48 83 c0 10          	add    $0x10,%rax
    7b24:	48 89 85 18 f1 ff ff 	mov    %rax,-0xee8(%rbp)
    7b2b:	48 8d 85 10 ec ff ff 	lea    -0x13f0(%rbp),%rax
    7b32:	48 83 c0 10          	add    $0x10,%rax
    7b36:	48 89 85 20 f1 ff ff 	mov    %rax,-0xee0(%rbp)
    7b3d:	48 8d 85 10 ec ff ff 	lea    -0x13f0(%rbp),%rax
    7b44:	48 83 c0 10          	add    $0x10,%rax
    7b48:	48 89 85 28 f1 ff ff 	mov    %rax,-0xed8(%rbp)
    7b4f:	48 8d 85 e0 f0 ff ff 	lea    -0xf20(%rbp),%rax
    7b56:	48 89 85 c8 eb ff ff 	mov    %rax,-0x1438(%rbp)
    7b5d:	c7 85 dc ea ff ff 00 	movl   $0x0,-0x1524(%rbp)
    7b64:	00 00 00 
    7b67:	c7 85 a0 ec ff ff 06 	movl   $0xfc060606,-0x1360(%rbp)
    7b6e:	06 06 fc 
    7b71:	66 c7 85 a4 ec ff ff 	movw   $0xc945,-0x135c(%rbp)
    7b78:	45 c9 
    7b7a:	c6 85 a6 ec ff ff ff 	movb   $0xff,-0x135a(%rbp)
    7b81:	c7 85 a7 ec ff ff f6 	movl   $0xc27a06f6,-0x1359(%rbp)
    7b88:	06 7a c2 
    7b8b:	66 c7 85 ab ec ff ff 	movw   $0x4537,-0x1355(%rbp)
    7b92:	37 45 
    7b94:	c6 85 ad ec ff ff ff 	movb   $0xff,-0x1353(%rbp)
    7b9b:	c7 85 ae ec ff ff 06 	movl   $0xfff60006,-0x1352(%rbp)
    7ba2:	00 f6 ff 
    7ba5:	66 c7 85 b2 ec ff ff 	movw   $0xc937,-0x134e(%rbp)
    7bac:	37 c9 
    7bae:	c6 85 b4 ec ff ff fc 	movb   $0xfc,-0x134c(%rbp)
    7bb5:	c7 85 b5 ec ff ff 2e 	movl   $0xc2f6fd2e,-0x134b(%rbp)
    7bbc:	fd f6 c2 
    7bbf:	66 c7 85 b9 ec ff ff 	movw   $0x1945,-0x1347(%rbp)
    7bc6:	45 19 
    7bc8:	c6 85 bb ec ff ff 01 	movb   $0x1,-0x1345(%rbp)
    7bcf:	c7 85 bc ec ff ff 2e 	movl   $0xfc7a002e,-0x1344(%rbp)
    7bd6:	00 7a fc 
    7bd9:	66 c7 85 c0 ec ff ff 	movw   $0x1919,-0x1340(%rbp)
    7be0:	19 19 
    7be2:	c6 85 c2 ec ff ff fc 	movb   $0xfc,-0x133e(%rbp)
    7be9:	c7 85 c3 ec ff ff 06 	movl   $0xfc060606,-0x133d(%rbp)
    7bf0:	06 06 fc 
    7bf3:	66 c7 85 c7 ec ff ff 	movw   $0xc945,-0x1339(%rbp)
    7bfa:	45 c9 
    7bfc:	c6 85 c9 ec ff ff ff 	movb   $0xff,-0x1337(%rbp)
    7c03:	c7 85 ca ec ff ff f6 	movl   $0xc27a06f6,-0x1336(%rbp)
    7c0a:	06 7a c2 
    7c0d:	66 c7 85 ce ec ff ff 	movw   $0x4537,-0x1332(%rbp)
    7c14:	37 45 
    7c16:	c6 85 d0 ec ff ff ff 	movb   $0xff,-0x1330(%rbp)
    7c1d:	c7 85 d1 ec ff ff 06 	movl   $0xfff60006,-0x132f(%rbp)
    7c24:	00 f6 ff 
    7c27:	66 c7 85 d5 ec ff ff 	movw   $0xc937,-0x132b(%rbp)
    7c2e:	37 c9 
    7c30:	c6 85 d7 ec ff ff fc 	movb   $0xfc,-0x1329(%rbp)
    7c37:	c7 85 d8 ec ff ff 2e 	movl   $0xc2f6fd2e,-0x1328(%rbp)
    7c3e:	fd f6 c2 
    7c41:	66 c7 85 dc ec ff ff 	movw   $0x1945,-0x1324(%rbp)
    7c48:	45 19 
    7c4a:	c6 85 de ec ff ff 01 	movb   $0x1,-0x1322(%rbp)
    7c51:	c7 85 df ec ff ff 2e 	movl   $0xfc7a002e,-0x1321(%rbp)
    7c58:	00 7a fc 
    7c5b:	66 c7 85 e3 ec ff ff 	movw   $0x1919,-0x131d(%rbp)
    7c62:	19 19 
    7c64:	c6 85 e5 ec ff ff fc 	movb   $0xfc,-0x131b(%rbp)
    7c6b:	48 8d 85 e8 ea ff ff 	lea    -0x1518(%rbp),%rax
    7c72:	48 89 85 30 eb ff ff 	mov    %rax,-0x14d0(%rbp)
    7c79:	48 8d 85 30 eb ff ff 	lea    -0x14d0(%rbp),%rax
    7c80:	48 89 85 d0 eb ff ff 	mov    %rax,-0x1430(%rbp)
    7c87:	48 8d 05 c2 95 00 00 	lea    0x95c2(%rip),%rax        # 11250 <g_221+0x10>
    7c8e:	48 89 85 d8 eb ff ff 	mov    %rax,-0x1428(%rbp)
    7c95:	48 c7 85 e0 eb ff ff 	movq   $0x1,-0x1420(%rbp)
    7c9c:	01 00 00 00 
    7ca0:	66 c7 85 86 ea ff ff 	movw   $0x0,-0x157a(%rbp)
    7ca7:	00 00 
    7ca9:	c7 85 98 ea ff ff 00 	movl   $0x0,-0x1568(%rbp)
    7cb0:	00 00 00 
    7cb3:	eb 1e                	jmp    7cd3 <func_1+0x251e>
    7cb5:	8b 85 98 ea ff ff    	mov    -0x1568(%rbp),%eax
    7cbb:	48 98                	cltq   
    7cbd:	48 8d 95 88 ea ff ff 	lea    -0x1578(%rbp),%rdx
    7cc4:	48 89 94 c5 70 ec ff 	mov    %rdx,-0x1390(%rbp,%rax,8)
    7ccb:	ff 
    7ccc:	83 85 98 ea ff ff 01 	addl   $0x1,-0x1568(%rbp)
    7cd3:	83 bd 98 ea ff ff 05 	cmpl   $0x5,-0x1568(%rbp)
    7cda:	7e d9                	jle    7cb5 <func_1+0x2500>
    7cdc:	0f b6 85 7d ea ff ff 	movzbl -0x1583(%rbp),%eax
    7ce3:	83 c0 01             	add    $0x1,%eax
    7ce6:	88 85 7d ea ff ff    	mov    %al,-0x1583(%rbp)
    7cec:	0f b6 05 39 9f 00 00 	movzbl 0x9f39(%rip),%eax        # 11c2c <g_2014>
    7cf3:	83 c0 01             	add    $0x1,%eax
    7cf6:	88 05 30 9f 00 00    	mov    %al,0x9f30(%rip)        # 11c2c <g_2014>
    7cfc:	0f b6 05 29 9f 00 00 	movzbl 0x9f29(%rip),%eax        # 11c2c <g_2014>
    7d03:	3c 01                	cmp    $0x1,%al
    7d05:	0f 8e 28 fd ff ff    	jle    7a33 <func_1+0x227e>
    7d0b:	48 8b 15 86 aa 00 00 	mov    0xaa86(%rip),%rdx        # 12798 <g_771>
    7d12:	48 8b 05 6f aa 00 00 	mov    0xaa6f(%rip),%rax        # 12788 <g_596>
    7d19:	48 8b 00             	mov    (%rax),%rax
    7d1c:	48 8b 00             	mov    (%rax),%rax
    7d1f:	48 8b 12             	mov    (%rdx),%rdx
    7d22:	48 89 10             	mov    %rdx,(%rax)
    7d25:	48 0f be 85 7b ea ff 	movsbq -0x1585(%rbp),%rax
    7d2c:	ff 
    7d2d:	48 8b 4d d8          	mov    -0x28(%rbp),%rcx
    7d31:	64 48 33 0c 25 28 00 	xor    %fs:0x28,%rcx
    7d38:	00 00 
    7d3a:	74 05                	je     7d41 <func_1+0x258c>
    7d3c:	e8 2f c3 ff ff       	callq  4070 <__stack_chk_fail@plt>
    7d41:	48 81 c4 78 15 00 00 	add    $0x1578,%rsp
    7d48:	5b                   	pop    %rbx
    7d49:	41 5c                	pop    %r12
    7d4b:	41 5d                	pop    %r13
    7d4d:	5d                   	pop    %rbp
    7d4e:	c3                   	retq   

0000000000007d4f <func_3>:
    7d4f:	f3 0f 1e fa          	endbr64 
    7d53:	55                   	push   %rbp
    7d54:	48 89 e5             	mov    %rsp,%rbp
    7d57:	41 57                	push   %r15
    7d59:	41 56                	push   %r14
    7d5b:	41 55                	push   %r13
    7d5d:	41 54                	push   %r12
    7d5f:	53                   	push   %rbx
    7d60:	48 81 ec 98 01 00 00 	sub    $0x198,%rsp
    7d67:	48 89 bd 48 fe ff ff 	mov    %rdi,-0x1b8(%rbp)
    7d6e:	64 48 8b 04 25 28 00 	mov    %fs:0x28,%rax
    7d75:	00 00 
    7d77:	48 89 45 c8          	mov    %rax,-0x38(%rbp)
    7d7b:	31 c0                	xor    %eax,%eax
    7d7d:	48 c7 85 68 fe ff ff 	movq   $0x6,-0x198(%rbp)
    7d84:	06 00 00 00 
    7d88:	48 8d 05 95 92 00 00 	lea    0x9295(%rip),%rax        # 11024 <g_7>
    7d8f:	48 89 85 58 fe ff ff 	mov    %rax,-0x1a8(%rbp)
    7d96:	48 8d 05 a6 92 00 00 	lea    0x92a6(%rip),%rax        # 11043 <g_32+0x13>
    7d9d:	48 89 85 60 fe ff ff 	mov    %rax,-0x1a0(%rbp)
    7da4:	48 8d 05 35 96 00 00 	lea    0x9635(%rip),%rax        # 113e0 <g_419>
    7dab:	48 89 85 c0 fe ff ff 	mov    %rax,-0x140(%rbp)
    7db2:	48 8d 05 07 96 00 00 	lea    0x9607(%rip),%rax        # 113c0 <g_418>
    7db9:	48 89 85 c8 fe ff ff 	mov    %rax,-0x138(%rbp)
    7dc0:	48 8d 05 19 96 00 00 	lea    0x9619(%rip),%rax        # 113e0 <g_419>
    7dc7:	48 89 85 d0 fe ff ff 	mov    %rax,-0x130(%rbp)
    7dce:	48 8d 05 eb 95 00 00 	lea    0x95eb(%rip),%rax        # 113c0 <g_418>
    7dd5:	48 89 85 d8 fe ff ff 	mov    %rax,-0x128(%rbp)
    7ddc:	48 8d 05 fd 95 00 00 	lea    0x95fd(%rip),%rax        # 113e0 <g_419>
    7de3:	48 89 85 e0 fe ff ff 	mov    %rax,-0x120(%rbp)
    7dea:	48 8d 05 cf 95 00 00 	lea    0x95cf(%rip),%rax        # 113c0 <g_418>
    7df1:	48 89 85 e8 fe ff ff 	mov    %rax,-0x118(%rbp)
    7df8:	48 8d 05 e1 95 00 00 	lea    0x95e1(%rip),%rax        # 113e0 <g_419>
    7dff:	48 89 85 f0 fe ff ff 	mov    %rax,-0x110(%rbp)
    7e06:	48 8d 05 b3 95 00 00 	lea    0x95b3(%rip),%rax        # 113c0 <g_418>
    7e0d:	48 89 85 f8 fe ff ff 	mov    %rax,-0x108(%rbp)
    7e14:	48 8d 05 c5 95 00 00 	lea    0x95c5(%rip),%rax        # 113e0 <g_419>
    7e1b:	48 89 85 00 ff ff ff 	mov    %rax,-0x100(%rbp)
    7e22:	48 8d 05 97 95 00 00 	lea    0x9597(%rip),%rax        # 113c0 <g_418>
    7e29:	48 89 85 08 ff ff ff 	mov    %rax,-0xf8(%rbp)
    7e30:	48 8d 05 a9 95 00 00 	lea    0x95a9(%rip),%rax        # 113e0 <g_419>
    7e37:	48 89 85 10 ff ff ff 	mov    %rax,-0xf0(%rbp)
    7e3e:	48 8d 05 7b 95 00 00 	lea    0x957b(%rip),%rax        # 113c0 <g_418>
    7e45:	48 89 85 18 ff ff ff 	mov    %rax,-0xe8(%rbp)
    7e4c:	48 8d 05 8d 95 00 00 	lea    0x958d(%rip),%rax        # 113e0 <g_419>
    7e53:	48 89 85 20 ff ff ff 	mov    %rax,-0xe0(%rbp)
    7e5a:	48 8d 05 5f 95 00 00 	lea    0x955f(%rip),%rax        # 113c0 <g_418>
    7e61:	48 89 85 28 ff ff ff 	mov    %rax,-0xd8(%rbp)
    7e68:	48 8d 05 71 95 00 00 	lea    0x9571(%rip),%rax        # 113e0 <g_419>
    7e6f:	48 89 85 30 ff ff ff 	mov    %rax,-0xd0(%rbp)
    7e76:	48 8d 05 43 95 00 00 	lea    0x9543(%rip),%rax        # 113c0 <g_418>
    7e7d:	48 89 85 38 ff ff ff 	mov    %rax,-0xc8(%rbp)
    7e84:	48 8d 05 55 95 00 00 	lea    0x9555(%rip),%rax        # 113e0 <g_419>
    7e8b:	48 89 85 40 ff ff ff 	mov    %rax,-0xc0(%rbp)
    7e92:	48 8d 05 27 95 00 00 	lea    0x9527(%rip),%rax        # 113c0 <g_418>
    7e99:	48 89 85 48 ff ff ff 	mov    %rax,-0xb8(%rbp)
    7ea0:	48 8d 05 39 95 00 00 	lea    0x9539(%rip),%rax        # 113e0 <g_419>
    7ea7:	48 89 85 50 ff ff ff 	mov    %rax,-0xb0(%rbp)
    7eae:	48 8d 05 0b 95 00 00 	lea    0x950b(%rip),%rax        # 113c0 <g_418>
    7eb5:	48 89 85 58 ff ff ff 	mov    %rax,-0xa8(%rbp)
    7ebc:	48 8d 05 1d 95 00 00 	lea    0x951d(%rip),%rax        # 113e0 <g_419>
    7ec3:	48 89 85 60 ff ff ff 	mov    %rax,-0xa0(%rbp)
    7eca:	48 8d 05 ef 94 00 00 	lea    0x94ef(%rip),%rax        # 113c0 <g_418>
    7ed1:	48 89 85 68 ff ff ff 	mov    %rax,-0x98(%rbp)
    7ed8:	48 8d 05 01 95 00 00 	lea    0x9501(%rip),%rax        # 113e0 <g_419>
    7edf:	48 89 85 70 ff ff ff 	mov    %rax,-0x90(%rbp)
    7ee6:	48 8d 05 d3 94 00 00 	lea    0x94d3(%rip),%rax        # 113c0 <g_418>
    7eed:	48 89 85 78 ff ff ff 	mov    %rax,-0x88(%rbp)
    7ef4:	48 8d 05 e5 94 00 00 	lea    0x94e5(%rip),%rax        # 113e0 <g_419>
    7efb:	48 89 45 80          	mov    %rax,-0x80(%rbp)
    7eff:	48 8d 05 ba 94 00 00 	lea    0x94ba(%rip),%rax        # 113c0 <g_418>
    7f06:	48 89 45 88          	mov    %rax,-0x78(%rbp)
    7f0a:	48 8d 05 cf 94 00 00 	lea    0x94cf(%rip),%rax        # 113e0 <g_419>
    7f11:	48 89 45 90          	mov    %rax,-0x70(%rbp)
    7f15:	48 8d 05 a4 94 00 00 	lea    0x94a4(%rip),%rax        # 113c0 <g_418>
    7f1c:	48 89 45 98          	mov    %rax,-0x68(%rbp)
    7f20:	48 8d 05 b9 94 00 00 	lea    0x94b9(%rip),%rax        # 113e0 <g_419>
    7f27:	48 89 45 a0          	mov    %rax,-0x60(%rbp)
    7f2b:	48 8d 05 8e 94 00 00 	lea    0x948e(%rip),%rax        # 113c0 <g_418>
    7f32:	48 89 45 a8          	mov    %rax,-0x58(%rbp)
    7f36:	48 8d 05 a3 94 00 00 	lea    0x94a3(%rip),%rax        # 113e0 <g_419>
    7f3d:	48 89 45 b0          	mov    %rax,-0x50(%rbp)
    7f41:	48 8d 05 78 94 00 00 	lea    0x9478(%rip),%rax        # 113c0 <g_418>
    7f48:	48 89 45 b8          	mov    %rax,-0x48(%rbp)
    7f4c:	48 8d 85 60 fe ff ff 	lea    -0x1a0(%rbp),%rax
    7f53:	48 89 85 70 fe ff ff 	mov    %rax,-0x190(%rbp)
    7f5a:	48 8d 85 58 fe ff ff 	lea    -0x1a8(%rbp),%rax
    7f61:	48 89 85 78 fe ff ff 	mov    %rax,-0x188(%rbp)
    7f68:	48 8d 85 60 fe ff ff 	lea    -0x1a0(%rbp),%rax
    7f6f:	48 89 85 80 fe ff ff 	mov    %rax,-0x180(%rbp)
    7f76:	48 8d 85 60 fe ff ff 	lea    -0x1a0(%rbp),%rax
    7f7d:	48 89 85 88 fe ff ff 	mov    %rax,-0x178(%rbp)
    7f84:	48 c7 85 a0 fe ff ff 	movq   $0x0,-0x160(%rbp)
    7f8b:	00 00 00 00 
    7f8f:	48 c7 85 a8 fe ff ff 	movq   $0x0,-0x158(%rbp)
    7f96:	00 00 00 00 
    7f9a:	48 c7 85 b0 fe ff ff 	movq   $0x0,-0x150(%rbp)
    7fa1:	00 00 00 00 
    7fa5:	48 c7 85 b8 fe ff ff 	movq   $0x0,-0x148(%rbp)
    7fac:	00 00 00 00 
    7fb0:	48 8d 85 58 fe ff ff 	lea    -0x1a8(%rbp),%rax
    7fb7:	48 89 85 90 fe ff ff 	mov    %rax,-0x170(%rbp)
    7fbe:	48 c7 85 98 fe ff ff 	movq   $0x0,-0x168(%rbp)
    7fc5:	00 00 00 00 
    7fc9:	4c 8b a5 58 fe ff ff 	mov    -0x1a8(%rbp),%r12
    7fd0:	48 8b 05 81 b0 00 00 	mov    0xb081(%rip),%rax        # 13058 <g_1565>
    7fd7:	48 8b 00             	mov    (%rax),%rax
    7fda:	0f b6 00             	movzbl (%rax),%eax
    7fdd:	0f be d8             	movsbl %al,%ebx
    7fe0:	8b 05 b6 b5 00 00    	mov    0xb5b6(%rip),%eax        # 1359c <g_434>
    7fe6:	89 85 44 fe ff ff    	mov    %eax,-0x1bc(%rbp)
    7fec:	48 8b 85 68 fe ff ff 	mov    -0x198(%rbp),%rax
    7ff3:	89 c2                	mov    %eax,%edx
    7ff5:	48 83 bd 68 fe ff ff 	cmpq   $0x1,-0x198(%rbp)
    7ffc:	01 
    7ffd:	0f 9e c0             	setle  %al
    8000:	0f b6 c0             	movzbl %al,%eax
    8003:	89 d6                	mov    %edx,%esi
    8005:	89 c7                	mov    %eax,%edi
    8007:	e8 e2 c2 ff ff       	callq  42ee <safe_lshift_func_int8_t_s_u>
    800c:	4c 8b bd 58 fe ff ff 	mov    -0x1a8(%rbp),%r15
    8013:	4c 8b 35 3e b0 00 00 	mov    0xb03e(%rip),%r14        # 13058 <g_1565>
    801a:	4c 8b ad 58 ff ff ff 	mov    -0xa8(%rbp),%r13
    8021:	48 8b 85 60 fe ff ff 	mov    -0x1a0(%rbp),%rax
    8028:	0f b6 10             	movzbl (%rax),%edx
    802b:	48 8b 85 48 fe ff ff 	mov    -0x1b8(%rbp),%rax
    8032:	89 c1                	mov    %eax,%ecx
    8034:	48 8b 85 60 fe ff ff 	mov    -0x1a0(%rbp),%rax
    803b:	21 ca                	and    %ecx,%edx
    803d:	88 10                	mov    %dl,(%rax)
    803f:	0f b6 05 de 8f 00 00 	movzbl 0x8fde(%rip),%eax        # 11024 <g_7>
    8046:	3c 01                	cmp    $0x1,%al
    8048:	0f 9e c0             	setle  %al
    804b:	0f b6 c0             	movzbl %al,%eax
    804e:	be 7a 69 00 00       	mov    $0x697a,%esi
    8053:	89 c7                	mov    %eax,%edi
    8055:	e8 34 cd ff ff       	callq  4d8e <safe_div_func_uint16_t_u_u>
    805a:	0f b6 c0             	movzbl %al,%eax
    805d:	be 00 00 00 00       	mov    $0x0,%esi
    8062:	89 c7                	mov    %eax,%edi
    8064:	e8 9c cb ff ff       	callq  4c05 <safe_lshift_func_uint8_t_u_s>
    8069:	0f b6 c0             	movzbl %al,%eax
    806c:	83 e0 01             	and    $0x1,%eax
    806f:	89 c7                	mov    %eax,%edi
    8071:	e8 d1 0b 00 00       	callq  8c47 <func_29>
    8076:	48 89 c6             	mov    %rax,%rsi
    8079:	0f b6 05 a4 8f 00 00 	movzbl 0x8fa4(%rip),%eax        # 11024 <g_7>
    8080:	0f be c0             	movsbl %al,%eax
    8083:	4d 89 f8             	mov    %r15,%r8
    8086:	4c 89 f1             	mov    %r14,%rcx
    8089:	4c 89 ea             	mov    %r13,%rdx
    808c:	89 c7                	mov    %eax,%edi
    808e:	e8 fa 08 00 00       	callq  898d <func_23>
    8093:	98                   	cwtl   
    8094:	89 c6                	mov    %eax,%esi
    8096:	bf 01 00 00 00       	mov    $0x1,%edi
    809b:	e8 b5 c3 ff ff       	callq  4455 <safe_div_func_int16_t_s_s>
    80a0:	98                   	cwtl   
    80a1:	48 8d 95 58 fe ff ff 	lea    -0x1a8(%rbp),%rdx
    80a8:	49 89 d0             	mov    %rdx,%r8
    80ab:	4c 89 e1             	mov    %r12,%rcx
    80ae:	89 da                	mov    %ebx,%edx
    80b0:	8b b5 44 fe ff ff    	mov    -0x1bc(%rbp),%esi
    80b6:	89 c7                	mov    %eax,%edi
    80b8:	e8 a7 08 00 00       	callq  8964 <func_11>
    80bd:	89 c2                	mov    %eax,%edx
    80bf:	48 8b 05 ca a6 00 00 	mov    0xa6ca(%rip),%rax        # 12790 <g_595>
    80c6:	48 8b 00             	mov    (%rax),%rax
    80c9:	48 8b 00             	mov    (%rax),%rax
    80cc:	48 8b 18             	mov    (%rax),%rbx
    80cf:	48 8d 85 58 fe ff ff 	lea    -0x1a8(%rbp),%rax
    80d6:	48 89 c6             	mov    %rax,%rsi
    80d9:	89 d7                	mov    %edx,%edi
    80db:	e8 30 00 00 00       	callq  8110 <func_8>
    80e0:	48 89 03             	mov    %rax,(%rbx)
    80e3:	48 8b 85 98 fe ff ff 	mov    -0x168(%rbp),%rax
    80ea:	48 8b 4d c8          	mov    -0x38(%rbp),%rcx
    80ee:	64 48 33 0c 25 28 00 	xor    %fs:0x28,%rcx
    80f5:	00 00 
    80f7:	74 05                	je     80fe <func_3+0x3af>
    80f9:	e8 72 bf ff ff       	callq  4070 <__stack_chk_fail@plt>
    80fe:	48 81 c4 98 01 00 00 	add    $0x198,%rsp
    8105:	5b                   	pop    %rbx
    8106:	41 5c                	pop    %r12
    8108:	41 5d                	pop    %r13
    810a:	41 5e                	pop    %r14
    810c:	41 5f                	pop    %r15
    810e:	5d                   	pop    %rbp
    810f:	c3                   	retq   

0000000000008110 <func_8>:
    8110:	f3 0f 1e fa          	endbr64 
    8114:	55                   	push   %rbp
    8115:	48 89 e5             	mov    %rsp,%rbp
    8118:	53                   	push   %rbx
    8119:	48 81 ec 88 06 00 00 	sub    $0x688,%rsp
    8120:	89 bd 7c f9 ff ff    	mov    %edi,-0x684(%rbp)
    8126:	48 89 b5 70 f9 ff ff 	mov    %rsi,-0x690(%rbp)
    812d:	64 48 8b 04 25 28 00 	mov    %fs:0x28,%rax
    8134:	00 00 
    8136:	48 89 45 e8          	mov    %rax,-0x18(%rbp)
    813a:	31 c0                	xor    %eax,%eax
    813c:	c7 85 8c f9 ff ff f8 	movl   $0xfffffff8,-0x674(%rbp)
    8143:	ff ff ff 
    8146:	c7 85 90 f9 ff ff 03 	movl   $0x3,-0x670(%rbp)
    814d:	00 00 00 
    8150:	48 8d 05 85 91 00 00 	lea    0x9185(%rip),%rax        # 112dc <g_287>
    8157:	48 89 85 a8 f9 ff ff 	mov    %rax,-0x658(%rbp)
    815e:	48 8d 85 a8 f9 ff ff 	lea    -0x658(%rbp),%rax
    8165:	48 89 85 b8 f9 ff ff 	mov    %rax,-0x648(%rbp)
    816c:	c7 85 40 fa ff ff 45 	movl   $0x4c18b545,-0x5c0(%rbp)
    8173:	b5 18 4c 
    8176:	c7 85 44 fa ff ff 45 	movl   $0x4c18b545,-0x5bc(%rbp)
    817d:	b5 18 4c 
    8180:	c7 85 48 fa ff ff 45 	movl   $0x4c18b545,-0x5b8(%rbp)
    8187:	b5 18 4c 
    818a:	c7 85 4c fa ff ff 45 	movl   $0x4c18b545,-0x5b4(%rbp)
    8191:	b5 18 4c 
    8194:	48 c7 85 c0 f9 ff ff 	movq   $0x1,-0x640(%rbp)
    819b:	01 00 00 00 
    819f:	48 8d 05 06 92 00 00 	lea    0x9206(%rip),%rax        # 113ac <g_415>
    81a6:	48 89 85 c8 f9 ff ff 	mov    %rax,-0x638(%rbp)
    81ad:	48 8d 05 80 91 00 00 	lea    0x9180(%rip),%rax        # 11334 <g_411+0x34>
    81b4:	48 89 85 d0 f9 ff ff 	mov    %rax,-0x630(%rbp)
    81bb:	48 8d 05 ea 91 00 00 	lea    0x91ea(%rip),%rax        # 113ac <g_415>
    81c2:	48 89 85 d8 f9 ff ff 	mov    %rax,-0x628(%rbp)
    81c9:	48 8d 05 c8 91 00 00 	lea    0x91c8(%rip),%rax        # 11398 <g_412+0x18>
    81d0:	48 89 85 e0 f9 ff ff 	mov    %rax,-0x620(%rbp)
    81d7:	48 8d 05 8a b3 00 00 	lea    0xb38a(%rip),%rax        # 13568 <g_117>
    81de:	48 89 85 e8 f9 ff ff 	mov    %rax,-0x618(%rbp)
    81e5:	48 8d 05 b8 91 00 00 	lea    0x91b8(%rip),%rax        # 113a4 <g_413>
    81ec:	48 89 85 f0 f9 ff ff 	mov    %rax,-0x610(%rbp)
    81f3:	48 c7 85 60 fa ff ff 	movq   $0x0,-0x5a0(%rbp)
    81fa:	00 00 00 00 
    81fe:	48 c7 85 68 fa ff ff 	movq   $0x0,-0x598(%rbp)
    8205:	00 00 00 00 
    8209:	48 c7 85 70 fa ff ff 	movq   $0x0,-0x590(%rbp)
    8210:	00 00 00 00 
    8214:	48 c7 85 78 fa ff ff 	movq   $0x0,-0x588(%rbp)
    821b:	00 00 00 00 
    821f:	48 c7 85 80 fa ff ff 	movq   $0x0,-0x580(%rbp)
    8226:	00 00 00 00 
    822a:	48 c7 85 88 fa ff ff 	movq   $0x0,-0x578(%rbp)
    8231:	00 00 00 00 
    8235:	48 8d 85 c0 fc ff ff 	lea    -0x340(%rbp),%rax
    823c:	48 8d 15 9d 41 00 00 	lea    0x419d(%rip),%rdx        # c3e0 <g_2250+0x36f>
    8243:	b9 64 00 00 00       	mov    $0x64,%ecx
    8248:	48 89 c7             	mov    %rax,%rdi
    824b:	48 89 d6             	mov    %rdx,%rsi
    824e:	f3 48 a5             	rep movsq %ds:(%rsi),%es:(%rdi)
    8251:	48 c7 85 c0 fb ff ff 	movq   $0x9,-0x440(%rbp)
    8258:	09 00 00 00 
    825c:	48 bb d5 10 a7 9e 71 	movabs $0xd37541719ea710d5,%rbx
    8263:	41 75 d3 
    8266:	48 89 9d c8 fb ff ff 	mov    %rbx,-0x438(%rbp)
    826d:	48 b8 4f 69 f8 42 2f 	movabs $0x981d962f42f8694f,%rax
    8274:	96 1d 98 
    8277:	48 89 85 d0 fb ff ff 	mov    %rax,-0x430(%rbp)
    827e:	48 89 85 d8 fb ff ff 	mov    %rax,-0x428(%rbp)
    8285:	48 c7 85 e0 fb ff ff 	movq   $0xfffffffffffffffb,-0x420(%rbp)
    828c:	fb ff ff ff 
    8290:	48 c7 85 e8 fb ff ff 	movq   $0xfffffffffffffffb,-0x418(%rbp)
    8297:	fb ff ff ff 
    829b:	48 b9 35 bf a5 2a be 	movabs $0x2a0644be2aa5bf35,%rcx
    82a2:	44 06 2a 
    82a5:	48 89 8d f0 fb ff ff 	mov    %rcx,-0x410(%rbp)
    82ac:	48 c7 85 f8 fb ff ff 	movq   $0x2,-0x408(%rbp)
    82b3:	02 00 00 00 
    82b7:	48 c7 85 00 fc ff ff 	movq   $0xfffffffffffffffb,-0x400(%rbp)
    82be:	fb ff ff ff 
    82c2:	48 c7 85 08 fc ff ff 	movq   $0xffffffffffffffff,-0x3f8(%rbp)
    82c9:	ff ff ff ff 
    82cd:	48 89 85 10 fc ff ff 	mov    %rax,-0x3f0(%rbp)
    82d4:	48 c7 85 18 fc ff ff 	movq   $0xfffffffffffffffb,-0x3e8(%rbp)
    82db:	fb ff ff ff 
    82df:	48 c7 85 20 fc ff ff 	movq   $0x9,-0x3e0(%rbp)
    82e6:	09 00 00 00 
    82ea:	48 c7 85 28 fc ff ff 	movq   $0x2,-0x3d8(%rbp)
    82f1:	02 00 00 00 
    82f5:	48 c7 85 30 fc ff ff 	movq   $0x9,-0x3d0(%rbp)
    82fc:	09 00 00 00 
    8300:	48 89 85 38 fc ff ff 	mov    %rax,-0x3c8(%rbp)
    8307:	48 89 9d 40 fc ff ff 	mov    %rbx,-0x3c0(%rbp)
    830e:	48 c7 85 48 fc ff ff 	movq   $0x2,-0x3b8(%rbp)
    8315:	02 00 00 00 
    8319:	48 89 8d 50 fc ff ff 	mov    %rcx,-0x3b0(%rbp)
    8320:	48 c7 85 58 fc ff ff 	movq   $0xfffffffffffffffb,-0x3a8(%rbp)
    8327:	fb ff ff ff 
    832b:	48 c7 85 60 fc ff ff 	movq   $0x2,-0x3a0(%rbp)
    8332:	02 00 00 00 
    8336:	48 c7 85 68 fc ff ff 	movq   $0xffffffffffffffff,-0x398(%rbp)
    833d:	ff ff ff ff 
    8341:	48 c7 85 70 fc ff ff 	movq   $0xffffffffffffffff,-0x390(%rbp)
    8348:	ff ff ff ff 
    834c:	48 c7 85 78 fc ff ff 	movq   $0x2,-0x388(%rbp)
    8353:	02 00 00 00 
    8357:	48 c7 85 80 fc ff ff 	movq   $0x9,-0x380(%rbp)
    835e:	09 00 00 00 
    8362:	48 c7 85 88 fc ff ff 	movq   $0xfffffffffffffffb,-0x378(%rbp)
    8369:	fb ff ff ff 
    836d:	48 c7 85 90 fc ff ff 	movq   $0xffffffffffffffff,-0x370(%rbp)
    8374:	ff ff ff ff 
    8378:	48 89 85 98 fc ff ff 	mov    %rax,-0x368(%rbp)
    837f:	48 c7 85 a0 fc ff ff 	movq   $0x2,-0x360(%rbp)
    8386:	02 00 00 00 
    838a:	48 89 9d a8 fc ff ff 	mov    %rbx,-0x358(%rbp)
    8391:	48 89 8d b0 fc ff ff 	mov    %rcx,-0x350(%rbp)
    8398:	48 89 9d b8 fc ff ff 	mov    %rbx,-0x348(%rbp)
    839f:	48 8d 05 d2 ac 00 00 	lea    0xacd2(%rip),%rax        # 13078 <g_1633+0x18>
    83a6:	48 89 85 90 fa ff ff 	mov    %rax,-0x570(%rbp)
    83ad:	48 8d 05 c4 ac 00 00 	lea    0xacc4(%rip),%rax        # 13078 <g_1633+0x18>
    83b4:	48 89 85 98 fa ff ff 	mov    %rax,-0x568(%rbp)
    83bb:	48 8d 05 b6 ac 00 00 	lea    0xacb6(%rip),%rax        # 13078 <g_1633+0x18>
    83c2:	48 89 85 a0 fa ff ff 	mov    %rax,-0x560(%rbp)
    83c9:	48 8d 05 a8 ac 00 00 	lea    0xaca8(%rip),%rax        # 13078 <g_1633+0x18>
    83d0:	48 89 85 a8 fa ff ff 	mov    %rax,-0x558(%rbp)
    83d7:	48 8d 05 9a ac 00 00 	lea    0xac9a(%rip),%rax        # 13078 <g_1633+0x18>
    83de:	48 89 85 b0 fa ff ff 	mov    %rax,-0x550(%rbp)
    83e5:	48 8d 05 8c ac 00 00 	lea    0xac8c(%rip),%rax        # 13078 <g_1633+0x18>
    83ec:	48 89 85 b8 fa ff ff 	mov    %rax,-0x548(%rbp)
    83f3:	c7 85 94 f9 ff ff 00 	movl   $0x0,-0x66c(%rbp)
    83fa:	00 00 00 
    83fd:	eb 14                	jmp    8413 <func_8+0x303>
    83ff:	8b 85 94 f9 ff ff    	mov    -0x66c(%rbp),%eax
    8405:	48 98                	cltq   
    8407:	c6 44 05 e7 00       	movb   $0x0,-0x19(%rbp,%rax,1)
    840c:	83 85 94 f9 ff ff 01 	addl   $0x1,-0x66c(%rbp)
    8413:	83 bd 94 f9 ff ff 00 	cmpl   $0x0,-0x66c(%rbp)
    841a:	7e e3                	jle    83ff <func_8+0x2ef>
    841c:	c6 05 cd 8f 00 00 03 	movb   $0x3,0x8fcd(%rip)        # 113f0 <g_433>
    8423:	e9 e5 04 00 00       	jmpq   890d <func_8+0x7fd>
    8428:	c7 85 98 f9 ff ff 09 	movl   $0x9,-0x668(%rbp)
    842f:	00 00 00 
    8432:	c7 85 88 f9 ff ff 76 	movl   $0xd2e95976,-0x678(%rbp)
    8439:	59 e9 d2 
    843c:	48 8d 05 65 8f 00 00 	lea    0x8f65(%rip),%rax        # 113a8 <g_414>
    8443:	48 89 85 f8 f9 ff ff 	mov    %rax,-0x608(%rbp)
    844a:	c7 85 9c f9 ff ff 58 	movl   $0x9dee0d58,-0x664(%rbp)
    8451:	0d ee 9d 
    8454:	c7 85 a0 f9 ff ff 01 	movl   $0x1,-0x660(%rbp)
    845b:	00 00 00 
    845e:	c7 85 a4 f9 ff ff 01 	movl   $0x1,-0x65c(%rbp)
    8465:	00 00 00 
    8468:	48 c7 85 b0 f9 ff ff 	movq   $0x1,-0x650(%rbp)
    846f:	01 00 00 00 
    8473:	8b 05 8b 97 00 00    	mov    0x978b(%rip),%eax        # 11c04 <g_1602>
    8479:	48 8b 05 d0 ab 00 00 	mov    0xabd0(%rip),%rax        # 13050 <g_1566>
    8480:	0f b6 00             	movzbl (%rax),%eax
    8483:	0f be d8             	movsbl %al,%ebx
    8486:	8b 05 7c 97 00 00    	mov    0x977c(%rip),%eax        # 11c08 <g_1606>
    848c:	48 8b 85 70 f9 ff ff 	mov    -0x690(%rbp),%rax
    8493:	48 8b 00             	mov    (%rax),%rax
    8496:	0f b6 00             	movzbl (%rax),%eax
    8499:	ba b7 ff ff ff       	mov    $0xffffffb7,%edx
    849e:	38 d0                	cmp    %dl,%al
    84a0:	0f 9c c0             	setl   %al
    84a3:	0f b6 c0             	movzbl %al,%eax
    84a6:	39 85 7c f9 ff ff    	cmp    %eax,-0x684(%rbp)
    84ac:	0f 97 c0             	seta   %al
    84af:	0f b6 c0             	movzbl %al,%eax
    84b2:	21 85 90 f9 ff ff    	and    %eax,-0x670(%rbp)
    84b8:	8b 85 90 f9 ff ff    	mov    -0x670(%rbp),%eax
    84be:	48 98                	cltq   
    84c0:	48 be b0 67 1e df d1 	movabs $0x245255d1df1e67b0,%rsi
    84c7:	55 52 24 
    84ca:	48 89 c7             	mov    %rax,%rdi
    84cd:	e8 dd cb ff ff       	callq  50af <safe_div_func_uint64_t_u_u>
    84d2:	8b 95 98 f9 ff ff    	mov    -0x668(%rbp),%edx
    84d8:	48 39 d0             	cmp    %rdx,%rax
    84db:	0f 96 c0             	setbe  %al
    84de:	0f b6 d0             	movzbl %al,%edx
    84e1:	8b 85 88 f9 ff ff    	mov    -0x678(%rbp),%eax
    84e7:	09 d0                	or     %edx,%eax
    84e9:	89 85 88 f9 ff ff    	mov    %eax,-0x678(%rbp)
    84ef:	8b 85 88 f9 ff ff    	mov    -0x678(%rbp),%eax
    84f5:	85 c0                	test   %eax,%eax
    84f7:	74 07                	je     8500 <func_8+0x3f0>
    84f9:	83 bd 7c f9 ff ff 00 	cmpl   $0x0,-0x684(%rbp)
    8500:	8b 8d 88 f9 ff ff    	mov    -0x678(%rbp),%ecx
    8506:	48 8b 05 7b a2 00 00 	mov    0xa27b(%rip),%rax        # 12788 <g_596>
    850d:	48 8b 00             	mov    (%rax),%rax
    8510:	48 8b 00             	mov    (%rax),%rax
    8513:	48 8b 00             	mov    (%rax),%rax
    8516:	8b 10                	mov    (%rax),%edx
    8518:	48 8b 05 69 a2 00 00 	mov    0xa269(%rip),%rax        # 12788 <g_596>
    851f:	48 8b 00             	mov    (%rax),%rax
    8522:	48 8b 00             	mov    (%rax),%rax
    8525:	48 8b 00             	mov    (%rax),%rax
    8528:	31 ca                	xor    %ecx,%edx
    852a:	89 10                	mov    %edx,(%rax)
    852c:	8b 10                	mov    (%rax),%edx
    852e:	48 8b 85 f8 f9 ff ff 	mov    -0x608(%rbp),%rax
    8535:	89 10                	mov    %edx,(%rax)
    8537:	48 8b 85 f8 f9 ff ff 	mov    -0x608(%rbp),%rax
    853e:	8b 00                	mov    (%rax),%eax
    8540:	0b 85 7c f9 ff ff    	or     -0x684(%rbp),%eax
    8546:	39 c3                	cmp    %eax,%ebx
    8548:	73 5c                	jae    85a6 <func_8+0x496>
    854a:	c6 05 e7 8c 00 00 0c 	movb   $0xc,0x8ce7(%rip)        # 11238 <g_210>
    8551:	eb 28                	jmp    857b <func_8+0x46b>
    8553:	48 8b 05 36 a2 00 00 	mov    0xa236(%rip),%rax        # 12790 <g_595>
    855a:	48 8b 00             	mov    (%rax),%rax
    855d:	48 8b 00             	mov    (%rax),%rax
    8560:	48 8b 00             	mov    (%rax),%rax
    8563:	48 8b 00             	mov    (%rax),%rax
    8566:	8b 00                	mov    (%rax),%eax
    8568:	88 45 e7             	mov    %al,-0x19(%rbp)
    856b:	0f b6 05 c6 8c 00 00 	movzbl 0x8cc6(%rip),%eax        # 11238 <g_210>
    8572:	83 c0 01             	add    $0x1,%eax
    8575:	88 05 bd 8c 00 00    	mov    %al,0x8cbd(%rip)        # 11238 <g_210>
    857b:	0f b6 05 b6 8c 00 00 	movzbl 0x8cb6(%rip),%eax        # 11238 <g_210>
    8582:	3c 2b                	cmp    $0x2b,%al
    8584:	77 cd                	ja     8553 <func_8+0x443>
    8586:	83 bd 7c f9 ff ff 00 	cmpl   $0x0,-0x684(%rbp)
    858d:	0f 85 8b 03 00 00    	jne    891e <func_8+0x80e>
    8593:	48 8b 05 76 aa 00 00 	mov    0xaa76(%rip),%rax        # 13010 <g_1307>
    859a:	48 8b 00             	mov    (%rax),%rax
    859d:	8b 00                	mov    (%rax),%eax
    859f:	85 c0                	test   %eax,%eax
    85a1:	e9 57 03 00 00       	jmpq   88fd <func_8+0x7ed>
    85a6:	48 8d 05 7b 8c 00 00 	lea    0x8c7b(%rip),%rax        # 11228 <g_124>
    85ad:	48 89 85 00 fa ff ff 	mov    %rax,-0x600(%rbp)
    85b4:	48 8d 05 8d 94 00 00 	lea    0x948d(%rip),%rax        # 11a48 <g_672+0x28>
    85bb:	48 89 85 08 fa ff ff 	mov    %rax,-0x5f8(%rbp)
    85c2:	48 8d 05 0d 8d 00 00 	lea    0x8d0d(%rip),%rax        # 112d6 <g_282+0x6>
    85c9:	48 89 85 00 fb ff ff 	mov    %rax,-0x500(%rbp)
    85d0:	48 8d 05 fd 8c 00 00 	lea    0x8cfd(%rip),%rax        # 112d4 <g_282+0x4>
    85d7:	48 89 85 08 fb ff ff 	mov    %rax,-0x4f8(%rbp)
    85de:	48 8d 05 f1 8c 00 00 	lea    0x8cf1(%rip),%rax        # 112d6 <g_282+0x6>
    85e5:	48 89 85 10 fb ff ff 	mov    %rax,-0x4f0(%rbp)
    85ec:	48 8d 05 e3 8c 00 00 	lea    0x8ce3(%rip),%rax        # 112d6 <g_282+0x6>
    85f3:	48 89 85 18 fb ff ff 	mov    %rax,-0x4e8(%rbp)
    85fa:	48 8d 05 d5 8c 00 00 	lea    0x8cd5(%rip),%rax        # 112d6 <g_282+0x6>
    8601:	48 89 85 20 fb ff ff 	mov    %rax,-0x4e0(%rbp)
    8608:	48 8d 05 c5 8c 00 00 	lea    0x8cc5(%rip),%rax        # 112d4 <g_282+0x4>
    860f:	48 89 85 28 fb ff ff 	mov    %rax,-0x4d8(%rbp)
    8616:	48 8d 05 b9 8c 00 00 	lea    0x8cb9(%rip),%rax        # 112d6 <g_282+0x6>
    861d:	48 89 85 30 fb ff ff 	mov    %rax,-0x4d0(%rbp)
    8624:	48 8d 05 a9 8c 00 00 	lea    0x8ca9(%rip),%rax        # 112d4 <g_282+0x4>
    862b:	48 89 85 38 fb ff ff 	mov    %rax,-0x4c8(%rbp)
    8632:	48 8d 05 9d 8c 00 00 	lea    0x8c9d(%rip),%rax        # 112d6 <g_282+0x6>
    8639:	48 89 85 40 fb ff ff 	mov    %rax,-0x4c0(%rbp)
    8640:	48 8d 05 8f 8c 00 00 	lea    0x8c8f(%rip),%rax        # 112d6 <g_282+0x6>
    8647:	48 89 85 48 fb ff ff 	mov    %rax,-0x4b8(%rbp)
    864e:	48 8d 05 87 8c 00 00 	lea    0x8c87(%rip),%rax        # 112dc <g_287>
    8655:	48 89 85 50 fb ff ff 	mov    %rax,-0x4b0(%rbp)
    865c:	48 8d 05 73 8c 00 00 	lea    0x8c73(%rip),%rax        # 112d6 <g_282+0x6>
    8663:	48 89 85 58 fb ff ff 	mov    %rax,-0x4a8(%rbp)
    866a:	48 8d 05 65 8c 00 00 	lea    0x8c65(%rip),%rax        # 112d6 <g_282+0x6>
    8671:	48 89 85 60 fb ff ff 	mov    %rax,-0x4a0(%rbp)
    8678:	48 8d 05 5d 8c 00 00 	lea    0x8c5d(%rip),%rax        # 112dc <g_287>
    867f:	48 89 85 68 fb ff ff 	mov    %rax,-0x498(%rbp)
    8686:	48 8d 05 49 8c 00 00 	lea    0x8c49(%rip),%rax        # 112d6 <g_282+0x6>
    868d:	48 89 85 70 fb ff ff 	mov    %rax,-0x490(%rbp)
    8694:	48 8d 05 3b 8c 00 00 	lea    0x8c3b(%rip),%rax        # 112d6 <g_282+0x6>
    869b:	48 89 85 78 fb ff ff 	mov    %rax,-0x488(%rbp)
    86a2:	48 8d 05 2d 8c 00 00 	lea    0x8c2d(%rip),%rax        # 112d6 <g_282+0x6>
    86a9:	48 89 85 80 fb ff ff 	mov    %rax,-0x480(%rbp)
    86b0:	48 8d 05 1f 8c 00 00 	lea    0x8c1f(%rip),%rax        # 112d6 <g_282+0x6>
    86b7:	48 89 85 88 fb ff ff 	mov    %rax,-0x478(%rbp)
    86be:	48 8d 05 11 8c 00 00 	lea    0x8c11(%rip),%rax        # 112d6 <g_282+0x6>
    86c5:	48 89 85 90 fb ff ff 	mov    %rax,-0x470(%rbp)
    86cc:	48 8d 05 01 8c 00 00 	lea    0x8c01(%rip),%rax        # 112d4 <g_282+0x4>
    86d3:	48 89 85 98 fb ff ff 	mov    %rax,-0x468(%rbp)
    86da:	48 8d 05 f5 8b 00 00 	lea    0x8bf5(%rip),%rax        # 112d6 <g_282+0x6>
    86e1:	48 89 85 a0 fb ff ff 	mov    %rax,-0x460(%rbp)
    86e8:	48 8d 05 e5 8b 00 00 	lea    0x8be5(%rip),%rax        # 112d4 <g_282+0x4>
    86ef:	48 89 85 a8 fb ff ff 	mov    %rax,-0x458(%rbp)
    86f6:	48 8d 05 d9 8b 00 00 	lea    0x8bd9(%rip),%rax        # 112d6 <g_282+0x6>
    86fd:	48 89 85 b0 fb ff ff 	mov    %rax,-0x450(%rbp)
    8704:	48 8d 05 cb 8b 00 00 	lea    0x8bcb(%rip),%rax        # 112d6 <g_282+0x6>
    870b:	48 89 85 b8 fb ff ff 	mov    %rax,-0x448(%rbp)
    8712:	c7 85 50 fa ff ff 08 	movl   $0x8,-0x5b0(%rbp)
    8719:	00 00 00 
    871c:	c7 85 54 fa ff ff 08 	movl   $0x8,-0x5ac(%rbp)
    8723:	00 00 00 
    8726:	c7 85 58 fa ff ff 08 	movl   $0x8,-0x5a8(%rbp)
    872d:	00 00 00 
    8730:	c7 85 5c fa ff ff 08 	movl   $0x8,-0x5a4(%rbp)
    8737:	00 00 00 
    873a:	48 8d 05 f7 a8 00 00 	lea    0xa8f7(%rip),%rax        # 13038 <g_1340>
    8741:	48 89 85 10 fa ff ff 	mov    %rax,-0x5f0(%rbp)
    8748:	48 8d 85 40 fa ff ff 	lea    -0x5c0(%rbp),%rax
    874f:	48 83 c0 0c          	add    $0xc,%rax
    8753:	48 89 85 18 fa ff ff 	mov    %rax,-0x5e8(%rbp)
    875a:	0f b6 05 e3 8a 00 00 	movzbl 0x8ae3(%rip),%eax        # 11244 <g_221+0x4>
    8761:	66 98                	cbtw   
    8763:	0f b7 c0             	movzwl %ax,%eax
    8766:	be 00 00 00 00       	mov    $0x0,%esi
    876b:	89 c7                	mov    %eax,%edi
    876d:	e8 cb c5 ff ff       	callq  4d3d <safe_mul_func_uint16_t_u_u>
    8772:	48 8b 85 70 f9 ff ff 	mov    -0x690(%rbp),%rax
    8779:	48 8b 00             	mov    (%rax),%rax
    877c:	c6 00 09             	movb   $0x9,(%rax)
    877f:	0f b6 00             	movzbl (%rax),%eax
    8782:	0f b6 c0             	movzbl %al,%eax
    8785:	89 c6                	mov    %eax,%esi
    8787:	bf 04 00 00 00       	mov    $0x4,%edi
    878c:	e8 c9 c3 ff ff       	callq  4b5a <safe_add_func_uint8_t_u_u>
    8791:	8b 95 50 fa ff ff    	mov    -0x5b0(%rbp),%edx
    8797:	0f b6 c0             	movzbl %al,%eax
    879a:	09 d0                	or     %edx,%eax
    879c:	89 85 50 fa ff ff    	mov    %eax,-0x5b0(%rbp)
    87a2:	8b 85 50 fa ff ff    	mov    -0x5b0(%rbp),%eax
    87a8:	39 85 7c f9 ff ff    	cmp    %eax,-0x684(%rbp)
    87ae:	0f 92 c2             	setb   %dl
    87b1:	48 8b 05 c8 9f 00 00 	mov    0x9fc8(%rip),%rax        # 12780 <g_597>
    87b8:	48 8b 00             	mov    (%rax),%rax
    87bb:	48 8b 00             	mov    (%rax),%rax
    87be:	0f b6 d2             	movzbl %dl,%edx
    87c1:	89 10                	mov    %edx,(%rax)
    87c3:	c7 05 df 8b 00 00 00 	movl   $0x0,0x8bdf(%rip)        # 113ac <g_415>
    87ca:	00 00 00 
    87cd:	e9 1c 01 00 00       	jmpq   88ee <func_8+0x7de>
    87d2:	48 8d 85 88 f9 ff ff 	lea    -0x678(%rbp),%rax
    87d9:	48 89 85 20 fa ff ff 	mov    %rax,-0x5e0(%rbp)
    87e0:	48 8d 05 c1 8b 00 00 	lea    0x8bc1(%rip),%rax        # 113a8 <g_414>
    87e7:	48 89 85 28 fa ff ff 	mov    %rax,-0x5d8(%rbp)
    87ee:	48 8d 85 50 fa ff ff 	lea    -0x5b0(%rbp),%rax
    87f5:	48 83 c0 08          	add    $0x8,%rax
    87f9:	48 89 85 30 fa ff ff 	mov    %rax,-0x5d0(%rbp)
    8800:	48 8d 05 9d 8b 00 00 	lea    0x8b9d(%rip),%rax        # 113a4 <g_413>
    8807:	48 89 85 38 fa ff ff 	mov    %rax,-0x5c8(%rbp)
    880e:	48 8d 05 53 ad 00 00 	lea    0xad53(%rip),%rax        # 13568 <g_117>
    8815:	48 89 85 c0 fa ff ff 	mov    %rax,-0x540(%rbp)
    881c:	48 c7 85 c8 fa ff ff 	movq   $0x0,-0x538(%rbp)
    8823:	00 00 00 00 
    8827:	48 8d 05 3a ad 00 00 	lea    0xad3a(%rip),%rax        # 13568 <g_117>
    882e:	48 89 85 d0 fa ff ff 	mov    %rax,-0x530(%rbp)
    8835:	48 c7 85 d8 fa ff ff 	movq   $0x0,-0x528(%rbp)
    883c:	00 00 00 00 
    8840:	48 8d 05 21 ad 00 00 	lea    0xad21(%rip),%rax        # 13568 <g_117>
    8847:	48 89 85 e0 fa ff ff 	mov    %rax,-0x520(%rbp)
    884e:	48 c7 85 e8 fa ff ff 	movq   $0x0,-0x518(%rbp)
    8855:	00 00 00 00 
    8859:	48 8d 05 08 ad 00 00 	lea    0xad08(%rip),%rax        # 13568 <g_117>
    8860:	48 89 85 f0 fa ff ff 	mov    %rax,-0x510(%rbp)
    8867:	48 c7 85 f8 fa ff ff 	movq   $0x0,-0x508(%rbp)
    886e:	00 00 00 00 
    8872:	48 83 bd b8 f9 ff ff 	cmpq   $0x0,-0x648(%rbp)
    8879:	00 
    887a:	0f 94 c2             	sete   %dl
    887d:	48 8b 05 04 9f 00 00 	mov    0x9f04(%rip),%rax        # 12788 <g_596>
    8884:	48 8b 00             	mov    (%rax),%rax
    8887:	48 8b 00             	mov    (%rax),%rax
    888a:	48 8b 00             	mov    (%rax),%rax
    888d:	0f b6 d2             	movzbl %dl,%edx
    8890:	89 10                	mov    %edx,(%rax)
    8892:	48 8b 05 07 a8 00 00 	mov    0xa807(%rip),%rax        # 130a0 <g_1632>
    8899:	48 8b 95 10 fa ff ff 	mov    -0x5f0(%rbp),%rdx
    88a0:	48 89 10             	mov    %rdx,(%rax)
    88a3:	48 83 ad b0 f9 ff ff 	subq   $0x1,-0x650(%rbp)
    88aa:	01 
    88ab:	c7 85 8c f9 ff ff 0b 	movl   $0xb,-0x674(%rbp)
    88b2:	00 00 00 
    88b5:	eb 1f                	jmp    88d6 <func_8+0x7c6>
    88b7:	48 8b 85 f8 f9 ff ff 	mov    -0x608(%rbp),%rax
    88be:	c7 00 00 00 00 00    	movl   $0x0,(%rax)
    88c4:	48 c7 85 18 fa ff ff 	movq   $0x0,-0x5e8(%rbp)
    88cb:	00 00 00 00 
    88cf:	83 85 8c f9 ff ff 01 	addl   $0x1,-0x674(%rbp)
    88d6:	83 bd 8c f9 ff ff 10 	cmpl   $0x10,-0x674(%rbp)
    88dd:	77 d8                	ja     88b7 <func_8+0x7a7>
    88df:	8b 05 c7 8a 00 00    	mov    0x8ac7(%rip),%eax        # 113ac <g_415>
    88e5:	83 c0 01             	add    $0x1,%eax
    88e8:	89 05 be 8a 00 00    	mov    %eax,0x8abe(%rip)        # 113ac <g_415>
    88ee:	8b 05 b8 8a 00 00    	mov    0x8ab8(%rip),%eax        # 113ac <g_415>
    88f4:	83 f8 18             	cmp    $0x18,%eax
    88f7:	0f 8e d5 fe ff ff    	jle    87d2 <func_8+0x6c2>
    88fd:	0f b6 05 ec 8a 00 00 	movzbl 0x8aec(%rip),%eax        # 113f0 <g_433>
    8904:	83 e8 01             	sub    $0x1,%eax
    8907:	88 05 e3 8a 00 00    	mov    %al,0x8ae3(%rip)        # 113f0 <g_433>
    890d:	0f b6 05 dc 8a 00 00 	movzbl 0x8adc(%rip),%eax        # 113f0 <g_433>
    8914:	3c f2                	cmp    $0xf2,%al
    8916:	0f 85 0c fb ff ff    	jne    8428 <func_8+0x318>
    891c:	eb 01                	jmp    891f <func_8+0x80f>
    891e:	90                   	nop
    891f:	48 8b 85 d8 fb ff ff 	mov    -0x428(%rbp),%rax
    8926:	48 83 e8 01          	sub    $0x1,%rax
    892a:	48 89 85 d8 fb ff ff 	mov    %rax,-0x428(%rbp)
    8931:	48 c7 85 98 fa ff ff 	movq   $0x0,-0x568(%rbp)
    8938:	00 00 00 00 
    893c:	48 8b 05 bd a6 00 00 	mov    0xa6bd(%rip),%rax        # 13000 <g_1021>
    8943:	48 8b 00             	mov    (%rax),%rax
    8946:	48 8b 75 e8          	mov    -0x18(%rbp),%rsi
    894a:	64 48 33 34 25 28 00 	xor    %fs:0x28,%rsi
    8951:	00 00 
    8953:	74 05                	je     895a <func_8+0x84a>
    8955:	e8 16 b7 ff ff       	callq  4070 <__stack_chk_fail@plt>
    895a:	48 81 c4 88 06 00 00 	add    $0x688,%rsp
    8961:	5b                   	pop    %rbx
    8962:	5d                   	pop    %rbp
    8963:	c3                   	retq   

0000000000008964 <func_11>:
    8964:	f3 0f 1e fa          	endbr64 
    8968:	55                   	push   %rbp
    8969:	48 89 e5             	mov    %rsp,%rbp
    896c:	89 7d fc             	mov    %edi,-0x4(%rbp)
    896f:	89 75 f8             	mov    %esi,-0x8(%rbp)
    8972:	89 d0                	mov    %edx,%eax
    8974:	48 89 4d e8          	mov    %rcx,-0x18(%rbp)
    8978:	4c 89 45 e0          	mov    %r8,-0x20(%rbp)
    897c:	88 45 f4             	mov    %al,-0xc(%rbp)
    897f:	48 8b 05 9a a6 00 00 	mov    0xa69a(%rip),%rax        # 13020 <g_1318>
    8986:	48 8b 00             	mov    (%rax),%rax
    8989:	8b 00                	mov    (%rax),%eax
    898b:	5d                   	pop    %rbp
    898c:	c3                   	retq   

000000000000898d <func_23>:
    898d:	f3 0f 1e fa          	endbr64 
    8991:	55                   	push   %rbp
    8992:	48 89 e5             	mov    %rsp,%rbp
    8995:	41 57                	push   %r15
    8997:	41 56                	push   %r14
    8999:	41 55                	push   %r13
    899b:	41 54                	push   %r12
    899d:	53                   	push   %rbx
    899e:	48 81 ec 98 00 00 00 	sub    $0x98,%rsp
    89a5:	89 bd 6c ff ff ff    	mov    %edi,-0x94(%rbp)
    89ab:	48 89 b5 60 ff ff ff 	mov    %rsi,-0xa0(%rbp)
    89b2:	48 89 95 58 ff ff ff 	mov    %rdx,-0xa8(%rbp)
    89b9:	48 89 8d 50 ff ff ff 	mov    %rcx,-0xb0(%rbp)
    89c0:	4c 89 85 48 ff ff ff 	mov    %r8,-0xb8(%rbp)
    89c7:	64 48 8b 04 25 28 00 	mov    %fs:0x28,%rax
    89ce:	00 00 
    89d0:	48 89 45 c8          	mov    %rax,-0x38(%rbp)
    89d4:	31 c0                	xor    %eax,%eax
    89d6:	48 b8 ee 35 61 16 01 	movabs $0x38961401166135ee,%rax
    89dd:	14 96 38 
    89e0:	48 89 45 90          	mov    %rax,-0x70(%rbp)
    89e4:	66 c7 85 76 ff ff ff 	movw   $0xd705,-0x8a(%rbp)
    89eb:	05 d7 
    89ed:	48 8d 05 14 9a 00 00 	lea    0x9a14(%rip),%rax        # 12408 <g_126>
    89f4:	48 89 45 88          	mov    %rax,-0x78(%rbp)
    89f8:	48 8d 45 88          	lea    -0x78(%rbp),%rax
    89fc:	48 89 45 98          	mov    %rax,-0x68(%rbp)
    8a00:	48 c7 45 a0 00 00 00 	movq   $0x0,-0x60(%rbp)
    8a07:	00 
    8a08:	48 8d 05 13 88 00 00 	lea    0x8813(%rip),%rax        # 11222 <g_116>
    8a0f:	48 89 45 a8          	mov    %rax,-0x58(%rbp)
    8a13:	48 c7 45 b0 01 00 00 	movq   $0x1,-0x50(%rbp)
    8a1a:	00 
    8a1b:	c7 45 80 c8 2c 6e 3c 	movl   $0x3c6e2cc8,-0x80(%rbp)
    8a22:	c7 45 84 e9 63 eb 13 	movl   $0x13eb63e9,-0x7c(%rbp)
    8a29:	c7 85 78 ff ff ff 00 	movl   $0x0,-0x88(%rbp)
    8a30:	00 00 00 
    8a33:	eb 3f                	jmp    8a74 <func_23+0xe7>
    8a35:	c7 85 7c ff ff ff 00 	movl   $0x0,-0x84(%rbp)
    8a3c:	00 00 00 
    8a3f:	eb 23                	jmp    8a64 <func_23+0xd7>
    8a41:	8b 85 7c ff ff ff    	mov    -0x84(%rbp),%eax
    8a47:	48 63 d0             	movslq %eax,%rdx
    8a4a:	8b 85 78 ff ff ff    	mov    -0x88(%rbp),%eax
    8a50:	48 98                	cltq   
    8a52:	48 01 d0             	add    %rdx,%rax
    8a55:	c7 44 85 bc e0 da 2c 	movl   $0x892cdae0,-0x44(%rbp,%rax,4)
    8a5c:	89 
    8a5d:	83 85 7c ff ff ff 01 	addl   $0x1,-0x84(%rbp)
    8a64:	83 bd 7c ff ff ff 00 	cmpl   $0x0,-0x84(%rbp)
    8a6b:	7e d4                	jle    8a41 <func_23+0xb4>
    8a6d:	83 85 78 ff ff ff 01 	addl   $0x1,-0x88(%rbp)
    8a74:	83 bd 78 ff ff ff 02 	cmpl   $0x2,-0x88(%rbp)
    8a7b:	7e b8                	jle    8a35 <func_23+0xa8>
    8a7d:	48 83 6d 90 01       	subq   $0x1,-0x70(%rbp)
    8a82:	0f b7 9d 76 ff ff ff 	movzwl -0x8a(%rbp),%ebx
    8a89:	8b 85 6c ff ff ff    	mov    -0x94(%rbp),%eax
    8a8f:	0f bf d0             	movswl %ax,%edx
    8a92:	48 8b 45 90          	mov    -0x70(%rbp),%rax
    8a96:	89 45 c4             	mov    %eax,-0x3c(%rbp)
    8a99:	8b 45 c4             	mov    -0x3c(%rbp),%eax
    8a9c:	98                   	cwtl   
    8a9d:	89 d6                	mov    %edx,%esi
    8a9f:	89 c7                	mov    %eax,%edi
    8aa1:	e8 af b9 ff ff       	callq  4455 <safe_div_func_int16_t_s_s>
    8aa6:	98                   	cwtl   
    8aa7:	39 c3                	cmp    %eax,%ebx
    8aa9:	0f 94 c0             	sete   %al
    8aac:	0f b6 d8             	movzbl %al,%ebx
    8aaf:	8b 85 6c ff ff ff    	mov    -0x94(%rbp),%eax
    8ab5:	0f be c0             	movsbl %al,%eax
    8ab8:	89 c6                	mov    %eax,%esi
    8aba:	bf a9 ff ff ff       	mov    $0xffffffa9,%edi
    8abf:	e8 a6 b7 ff ff       	callq  426a <safe_div_func_int8_t_s_s>
    8ac4:	0f be c0             	movsbl %al,%eax
    8ac7:	89 de                	mov    %ebx,%esi
    8ac9:	89 c7                	mov    %eax,%edi
    8acb:	e8 03 b9 ff ff       	callq  43d3 <safe_sub_func_int16_t_s_s>
    8ad0:	98                   	cwtl   
    8ad1:	be 03 00 00 00       	mov    $0x3,%esi
    8ad6:	89 c7                	mov    %eax,%edi
    8ad8:	e8 4d ba ff ff       	callq  452a <safe_rshift_func_int16_t_s_s>
    8add:	41 89 c5             	mov    %eax,%r13d
    8ae0:	48 8b 45 90          	mov    -0x70(%rbp),%rax
    8ae4:	41 89 c6             	mov    %eax,%r14d
    8ae7:	48 8b 85 48 ff ff ff 	mov    -0xb8(%rbp),%rax
    8aee:	0f b6 00             	movzbl (%rax),%eax
    8af1:	44 0f be e0          	movsbl %al,%r12d
    8af5:	48 8b 45 90          	mov    -0x70(%rbp),%rax
    8af9:	41 89 c7             	mov    %eax,%r15d
    8afc:	48 8b 05 7d 9c 00 00 	mov    0x9c7d(%rip),%rax        # 12780 <g_597>
    8b03:	48 8b 00             	mov    (%rax),%rax
    8b06:	48 8b 00             	mov    (%rax),%rax
    8b09:	8b 00                	mov    (%rax),%eax
    8b0b:	48 8b 15 7e 9c 00 00 	mov    0x9c7e(%rip),%rdx        # 12790 <g_595>
    8b12:	48 8b 12             	mov    (%rdx),%rdx
    8b15:	48 8b 12             	mov    (%rdx),%rdx
    8b18:	48 8b 12             	mov    (%rdx),%rdx
    8b1b:	48 8b 1a             	mov    (%rdx),%rbx
    8b1e:	89 c7                	mov    %eax,%edi
    8b20:	e8 71 ba ff ff       	callq  4596 <safe_unary_minus_func_int32_t_s>
    8b25:	89 03                	mov    %eax,(%rbx)
    8b27:	8b 13                	mov    (%rbx),%edx
    8b29:	48 8b 85 58 ff ff ff 	mov    -0xa8(%rbp),%rax
    8b30:	8b 00                	mov    (%rax),%eax
    8b32:	21 c2                	and    %eax,%edx
    8b34:	48 8b 85 58 ff ff ff 	mov    -0xa8(%rbp),%rax
    8b3b:	89 10                	mov    %edx,(%rax)
    8b3d:	48 8b 85 58 ff ff ff 	mov    -0xa8(%rbp),%rax
    8b44:	8b 00                	mov    (%rax),%eax
    8b46:	85 c0                	test   %eax,%eax
    8b48:	74 0e                	je     8b58 <func_23+0x1cb>
    8b4a:	48 83 7d 90 00       	cmpq   $0x0,-0x70(%rbp)
    8b4f:	74 07                	je     8b58 <func_23+0x1cb>
    8b51:	ba 01 00 00 00       	mov    $0x1,%edx
    8b56:	eb 05                	jmp    8b5d <func_23+0x1d0>
    8b58:	ba 00 00 00 00       	mov    $0x0,%edx
    8b5d:	0f b7 85 76 ff ff ff 	movzwl -0x8a(%rbp),%eax
    8b64:	39 c2                	cmp    %eax,%edx
    8b66:	0f 9c c0             	setl   %al
    8b69:	0f b6 c0             	movzbl %al,%eax
    8b6c:	8b 95 6c ff ff ff    	mov    -0x94(%rbp),%edx
    8b72:	89 d6                	mov    %edx,%esi
    8b74:	89 c7                	mov    %eax,%edi
    8b76:	e8 cd c2 ff ff       	callq  4e48 <safe_rshift_func_uint16_t_u_s>
    8b7b:	66 33 85 76 ff ff ff 	xor    -0x8a(%rbp),%ax
    8b82:	0f b7 c0             	movzwl %ax,%eax
    8b85:	0b 85 6c ff ff ff    	or     -0x94(%rbp),%eax
    8b8b:	44 89 fe             	mov    %r15d,%esi
    8b8e:	89 c7                	mov    %eax,%edi
    8b90:	e8 21 ba ff ff       	callq  45b6 <safe_add_func_int32_t_s_s>
    8b95:	85 c0                	test   %eax,%eax
    8b97:	75 07                	jne    8ba0 <func_23+0x213>
    8b99:	48 83 7d b0 00       	cmpq   $0x0,-0x50(%rbp)
    8b9e:	74 07                	je     8ba7 <func_23+0x21a>
    8ba0:	b8 01 00 00 00       	mov    $0x1,%eax
    8ba5:	eb 05                	jmp    8bac <func_23+0x21f>
    8ba7:	b8 00 00 00 00       	mov    $0x0,%eax
    8bac:	0f b6 d0             	movzbl %al,%edx
    8baf:	48 83 7d 98 00       	cmpq   $0x0,-0x68(%rbp)
    8bb4:	0f 95 c0             	setne  %al
    8bb7:	89 c1                	mov    %eax,%ecx
    8bb9:	48 8b 45 a8          	mov    -0x58(%rbp),%rax
    8bbd:	88 08                	mov    %cl,(%rax)
    8bbf:	48 8b 45 a8          	mov    -0x58(%rbp),%rax
    8bc3:	0f b6 00             	movzbl (%rax),%eax
    8bc6:	88 05 6c 86 00 00    	mov    %al,0x866c(%rip)        # 11238 <g_210>
    8bcc:	0f b6 05 65 86 00 00 	movzbl 0x8665(%rip),%eax        # 11238 <g_210>
    8bd3:	0f b6 c0             	movzbl %al,%eax
    8bd6:	89 d6                	mov    %edx,%esi
    8bd8:	89 c7                	mov    %eax,%edi
    8bda:	e8 b4 bf ff ff       	callq  4b93 <safe_mul_func_uint8_t_u_u>
    8bdf:	0f b6 c0             	movzbl %al,%eax
    8be2:	44 89 e6             	mov    %r12d,%esi
    8be5:	89 c7                	mov    %eax,%edi
    8be7:	e8 a1 c0 ff ff       	callq  4c8d <safe_rshift_func_uint8_t_u_s>
    8bec:	84 c0                	test   %al,%al
    8bee:	75 0a                	jne    8bfa <func_23+0x26d>
    8bf0:	66 83 bd 76 ff ff ff 	cmpw   $0x0,-0x8a(%rbp)
    8bf7:	00 
    8bf8:	74 07                	je     8c01 <func_23+0x274>
    8bfa:	b8 01 00 00 00       	mov    $0x1,%eax
    8bff:	eb 05                	jmp    8c06 <func_23+0x279>
    8c01:	b8 00 00 00 00       	mov    $0x0,%eax
    8c06:	98                   	cwtl   
    8c07:	44 89 f6             	mov    %r14d,%esi
    8c0a:	89 c7                	mov    %eax,%edi
    8c0c:	e8 52 b9 ff ff       	callq  4563 <safe_rshift_func_int16_t_s_u>
    8c11:	66 41 39 c5          	cmp    %ax,%r13w
    8c15:	0f 9c c0             	setl   %al
    8c18:	0f b6 c0             	movzbl %al,%eax
    8c1b:	89 45 80             	mov    %eax,-0x80(%rbp)
    8c1e:	8b 45 84             	mov    -0x7c(%rbp),%eax
    8c21:	48 8b 4d c8          	mov    -0x38(%rbp),%rcx
    8c25:	64 48 33 0c 25 28 00 	xor    %fs:0x28,%rcx
    8c2c:	00 00 
    8c2e:	74 05                	je     8c35 <func_23+0x2a8>
    8c30:	e8 3b b4 ff ff       	callq  4070 <__stack_chk_fail@plt>
    8c35:	48 81 c4 98 00 00 00 	add    $0x98,%rsp
    8c3c:	5b                   	pop    %rbx
    8c3d:	41 5c                	pop    %r12
    8c3f:	41 5d                	pop    %r13
    8c41:	41 5e                	pop    %r14
    8c43:	41 5f                	pop    %r15
    8c45:	5d                   	pop    %rbp
    8c46:	c3                   	retq   

0000000000008c47 <func_29>:
    8c47:	f3 0f 1e fa          	endbr64 
    8c4b:	55                   	push   %rbp
    8c4c:	48 89 e5             	mov    %rsp,%rbp
    8c4f:	53                   	push   %rbx
    8c50:	48 81 ec 00 10 00 00 	sub    $0x1000,%rsp
    8c57:	48 83 0c 24 00       	orq    $0x0,(%rsp)
    8c5c:	48 81 ec 28 01 00 00 	sub    $0x128,%rsp
    8c63:	89 bd dc ee ff ff    	mov    %edi,-0x1124(%rbp)
    8c69:	64 48 8b 04 25 28 00 	mov    %fs:0x28,%rax
    8c70:	00 00 
    8c72:	48 89 45 e8          	mov    %rax,-0x18(%rbp)
    8c76:	31 c0                	xor    %eax,%eax
    8c78:	c7 85 90 f0 ff ff 01 	movl   $0x1,-0xf70(%rbp)
    8c7f:	00 00 00 
    8c82:	c7 85 94 f0 ff ff 7d 	movl   $0xe094bf7d,-0xf6c(%rbp)
    8c89:	bf 94 e0 
    8c8c:	c7 85 98 f0 ff ff 00 	movl   $0x0,-0xf68(%rbp)
    8c93:	00 00 00 
    8c96:	c7 85 9c f0 ff ff 7d 	movl   $0xe094bf7d,-0xf64(%rbp)
    8c9d:	bf 94 e0 
    8ca0:	c7 85 a0 f0 ff ff 01 	movl   $0x1,-0xf60(%rbp)
    8ca7:	00 00 00 
    8caa:	c7 85 a4 f0 ff ff 20 	movl   $0xb81fdf20,-0xf5c(%rbp)
    8cb1:	df 1f b8 
    8cb4:	c7 85 a8 f0 ff ff 20 	movl   $0xb81fdf20,-0xf58(%rbp)
    8cbb:	df 1f b8 
    8cbe:	c7 85 ac f0 ff ff 01 	movl   $0x1,-0xf54(%rbp)
    8cc5:	00 00 00 
    8cc8:	c7 85 b0 f0 ff ff 7d 	movl   $0xe094bf7d,-0xf50(%rbp)
    8ccf:	bf 94 e0 
    8cd2:	c7 85 b4 f0 ff ff 00 	movl   $0x0,-0xf4c(%rbp)
    8cd9:	00 00 00 
    8cdc:	c7 85 b8 f0 ff ff 01 	movl   $0x1,-0xf48(%rbp)
    8ce3:	00 00 00 
    8ce6:	c7 85 bc f0 ff ff 00 	movl   $0x0,-0xf44(%rbp)
    8ced:	00 00 00 
    8cf0:	c7 85 c0 f0 ff ff 01 	movl   $0x1,-0xf40(%rbp)
    8cf7:	00 00 00 
    8cfa:	c7 85 c4 f0 ff ff 01 	movl   $0x1,-0xf3c(%rbp)
    8d01:	00 00 00 
    8d04:	c7 85 c8 f0 ff ff 00 	movl   $0x0,-0xf38(%rbp)
    8d0b:	00 00 00 
    8d0e:	c7 85 cc f0 ff ff 01 	movl   $0x1,-0xf34(%rbp)
    8d15:	00 00 00 
    8d18:	c7 85 d0 f0 ff ff fd 	movl   $0xfffffffd,-0xf30(%rbp)
    8d1f:	ff ff ff 
    8d22:	c7 85 d4 f0 ff ff 01 	movl   $0x1,-0xf2c(%rbp)
    8d29:	00 00 00 
    8d2c:	48 8d 05 10 83 00 00 	lea    0x8310(%rip),%rax        # 11043 <g_32+0x13>
    8d33:	48 89 85 10 ef ff ff 	mov    %rax,-0x10f0(%rbp)
    8d3a:	48 c7 85 80 ef ff ff 	movq   $0x0,-0x1080(%rbp)
    8d41:	00 00 00 00 
    8d45:	48 8d 05 4c 83 00 00 	lea    0x834c(%rip),%rax        # 11098 <g_52+0x38>
    8d4c:	48 89 85 88 ef ff ff 	mov    %rax,-0x1078(%rbp)
    8d53:	48 8d 05 ae 83 00 00 	lea    0x83ae(%rip),%rax        # 11108 <g_54>
    8d5a:	48 89 85 90 ef ff ff 	mov    %rax,-0x1070(%rbp)
    8d61:	48 8d 05 a8 83 00 00 	lea    0x83a8(%rip),%rax        # 11110 <g_56>
    8d68:	48 89 85 98 ef ff ff 	mov    %rax,-0x1068(%rbp)
    8d6f:	48 c7 85 18 ef ff ff 	movq   $0x0,-0x10e8(%rbp)
    8d76:	00 00 00 00 
    8d7a:	48 8d 85 10 ef ff ff 	lea    -0x10f0(%rbp),%rax
    8d81:	48 89 85 20 ef ff ff 	mov    %rax,-0x10e0(%rbp)
    8d88:	48 8d 85 20 ef ff ff 	lea    -0x10e0(%rbp),%rax
    8d8f:	48 89 85 28 ef ff ff 	mov    %rax,-0x10d8(%rbp)
    8d96:	48 8d 05 13 86 00 00 	lea    0x8613(%rip),%rax        # 113b0 <g_416>
    8d9d:	48 89 85 a0 ef ff ff 	mov    %rax,-0x1060(%rbp)
    8da4:	48 c7 85 a8 ef ff ff 	movq   $0x0,-0x1058(%rbp)
    8dab:	00 00 00 00 
    8daf:	48 c7 85 50 f0 ff ff 	movq   $0x0,-0xfb0(%rbp)
    8db6:	00 00 00 00 
    8dba:	48 c7 85 58 f0 ff ff 	movq   $0x0,-0xfa8(%rbp)
    8dc1:	00 00 00 00 
    8dc5:	48 c7 85 60 f0 ff ff 	movq   $0x0,-0xfa0(%rbp)
    8dcc:	00 00 00 00 
    8dd0:	48 c7 85 68 f0 ff ff 	movq   $0x0,-0xf98(%rbp)
    8dd7:	00 00 00 00 
    8ddb:	48 c7 85 30 ef ff ff 	movq   $0x0,-0x10d0(%rbp)
    8de2:	00 00 00 00 
    8de6:	48 8d 85 30 ef ff ff 	lea    -0x10d0(%rbp),%rax
    8ded:	48 89 85 b0 ef ff ff 	mov    %rax,-0x1050(%rbp)
    8df4:	48 8d 85 60 f8 ff ff 	lea    -0x7a0(%rbp),%rax
    8dfb:	48 8d 15 fe 38 00 00 	lea    0x38fe(%rip),%rdx        # c700 <g_2250+0x68f>
    8e02:	b9 78 00 00 00       	mov    $0x78,%ecx
    8e07:	48 89 c7             	mov    %rax,%rdi
    8e0a:	48 89 d6             	mov    %rdx,%rsi
    8e0d:	f3 48 a5             	rep movsq %ds:(%rsi),%es:(%rdi)
    8e10:	66 c7 85 e2 ee ff ff 	movw   $0x8,-0x111e(%rbp)
    8e17:	08 00 
    8e19:	48 8d 05 28 84 00 00 	lea    0x8428(%rip),%rax        # 11248 <g_221+0x8>
    8e20:	48 89 85 b8 ef ff ff 	mov    %rax,-0x1048(%rbp)
    8e27:	48 8d 05 5a 99 00 00 	lea    0x995a(%rip),%rax        # 12788 <g_596>
    8e2e:	48 89 85 40 f2 ff ff 	mov    %rax,-0xdc0(%rbp)
    8e35:	48 8d 05 4c 99 00 00 	lea    0x994c(%rip),%rax        # 12788 <g_596>
    8e3c:	48 89 85 48 f2 ff ff 	mov    %rax,-0xdb8(%rbp)
    8e43:	48 8d 05 3e 99 00 00 	lea    0x993e(%rip),%rax        # 12788 <g_596>
    8e4a:	48 89 85 50 f2 ff ff 	mov    %rax,-0xdb0(%rbp)
    8e51:	48 c7 85 58 f2 ff ff 	movq   $0x0,-0xda8(%rbp)
    8e58:	00 00 00 00 
    8e5c:	48 8d 05 25 99 00 00 	lea    0x9925(%rip),%rax        # 12788 <g_596>
    8e63:	48 89 85 60 f2 ff ff 	mov    %rax,-0xda0(%rbp)
    8e6a:	48 8d 05 17 99 00 00 	lea    0x9917(%rip),%rax        # 12788 <g_596>
    8e71:	48 89 85 68 f2 ff ff 	mov    %rax,-0xd98(%rbp)
    8e78:	48 8d 05 09 99 00 00 	lea    0x9909(%rip),%rax        # 12788 <g_596>
    8e7f:	48 89 85 70 f2 ff ff 	mov    %rax,-0xd90(%rbp)
    8e86:	48 8d 05 fb 98 00 00 	lea    0x98fb(%rip),%rax        # 12788 <g_596>
    8e8d:	48 89 85 78 f2 ff ff 	mov    %rax,-0xd88(%rbp)
    8e94:	48 8d 05 ed 98 00 00 	lea    0x98ed(%rip),%rax        # 12788 <g_596>
    8e9b:	48 89 85 80 f2 ff ff 	mov    %rax,-0xd80(%rbp)
    8ea2:	48 c7 85 88 f2 ff ff 	movq   $0x0,-0xd78(%rbp)
    8ea9:	00 00 00 00 
    8ead:	48 c7 85 90 f2 ff ff 	movq   $0x0,-0xd70(%rbp)
    8eb4:	00 00 00 00 
    8eb8:	48 8d 05 c9 98 00 00 	lea    0x98c9(%rip),%rax        # 12788 <g_596>
    8ebf:	48 89 85 98 f2 ff ff 	mov    %rax,-0xd68(%rbp)
    8ec6:	48 8d 05 bb 98 00 00 	lea    0x98bb(%rip),%rax        # 12788 <g_596>
    8ecd:	48 89 85 a0 f2 ff ff 	mov    %rax,-0xd60(%rbp)
    8ed4:	48 8d 05 ad 98 00 00 	lea    0x98ad(%rip),%rax        # 12788 <g_596>
    8edb:	48 89 85 a8 f2 ff ff 	mov    %rax,-0xd58(%rbp)
    8ee2:	48 8d 05 9f 98 00 00 	lea    0x989f(%rip),%rax        # 12788 <g_596>
    8ee9:	48 89 85 b0 f2 ff ff 	mov    %rax,-0xd50(%rbp)
    8ef0:	48 c7 85 b8 f2 ff ff 	movq   $0x0,-0xd48(%rbp)
    8ef7:	00 00 00 00 
    8efb:	48 8d 05 86 98 00 00 	lea    0x9886(%rip),%rax        # 12788 <g_596>
    8f02:	48 89 85 c0 f2 ff ff 	mov    %rax,-0xd40(%rbp)
    8f09:	48 8d 05 78 98 00 00 	lea    0x9878(%rip),%rax        # 12788 <g_596>
    8f10:	48 89 85 c8 f2 ff ff 	mov    %rax,-0xd38(%rbp)
    8f17:	48 8d 05 6a 98 00 00 	lea    0x986a(%rip),%rax        # 12788 <g_596>
    8f1e:	48 89 85 d0 f2 ff ff 	mov    %rax,-0xd30(%rbp)
    8f25:	48 8d 05 5c 98 00 00 	lea    0x985c(%rip),%rax        # 12788 <g_596>
    8f2c:	48 89 85 d8 f2 ff ff 	mov    %rax,-0xd28(%rbp)
    8f33:	48 8d 05 4e 98 00 00 	lea    0x984e(%rip),%rax        # 12788 <g_596>
    8f3a:	48 89 85 e0 f2 ff ff 	mov    %rax,-0xd20(%rbp)
    8f41:	48 b8 14 24 5a 04 da 	movabs $0x730aabda045a2414,%rax
    8f48:	ab 0a 73 
    8f4b:	48 89 85 c0 ef ff ff 	mov    %rax,-0x1040(%rbp)
    8f52:	c7 85 f0 ee ff ff ff 	movl   $0xffffffff,-0x1110(%rbp)
    8f59:	ff ff ff 
    8f5c:	48 8d 05 b5 94 00 00 	lea    0x94b5(%rip),%rax        # 12418 <g_137>
    8f63:	48 89 85 38 ef ff ff 	mov    %rax,-0x10c8(%rbp)
    8f6a:	48 8d 85 30 f6 ff ff 	lea    -0x9d0(%rbp),%rax
    8f71:	48 8d 15 48 3b 00 00 	lea    0x3b48(%rip),%rdx        # cac0 <g_2250+0xa4f>
    8f78:	b9 46 00 00 00       	mov    $0x46,%ecx
    8f7d:	48 89 c7             	mov    %rax,%rdi
    8f80:	48 89 d6             	mov    %rdx,%rsi
    8f83:	f3 48 a5             	rep movsq %ds:(%rsi),%es:(%rdi)
    8f86:	48 8d 85 60 f8 ff ff 	lea    -0x7a0(%rbp),%rax
    8f8d:	48 05 04 03 00 00    	add    $0x304,%rax
    8f93:	48 89 85 e0 f0 ff ff 	mov    %rax,-0xf20(%rbp)
    8f9a:	48 c7 85 e8 f0 ff ff 	movq   $0x0,-0xf18(%rbp)
    8fa1:	00 00 00 00 
    8fa5:	48 c7 85 f0 f0 ff ff 	movq   $0x0,-0xf10(%rbp)
    8fac:	00 00 00 00 
    8fb0:	48 8d 85 60 f8 ff ff 	lea    -0x7a0(%rbp),%rax
    8fb7:	48 05 04 03 00 00    	add    $0x304,%rax
    8fbd:	48 89 85 f8 f0 ff ff 	mov    %rax,-0xf08(%rbp)
    8fc4:	48 8d 05 9d a5 00 00 	lea    0xa59d(%rip),%rax        # 13568 <g_117>
    8fcb:	48 89 85 00 f1 ff ff 	mov    %rax,-0xf00(%rbp)
    8fd2:	48 8d 85 60 f8 ff ff 	lea    -0x7a0(%rbp),%rax
    8fd9:	48 05 04 03 00 00    	add    $0x304,%rax
    8fdf:	48 89 85 08 f1 ff ff 	mov    %rax,-0xef8(%rbp)
    8fe6:	48 c7 85 10 f1 ff ff 	movq   $0x0,-0xef0(%rbp)
    8fed:	00 00 00 00 
    8ff1:	48 c7 85 18 f1 ff ff 	movq   $0x0,-0xee8(%rbp)
    8ff8:	00 00 00 00 
    8ffc:	48 8d 85 60 f8 ff ff 	lea    -0x7a0(%rbp),%rax
    9003:	48 05 04 03 00 00    	add    $0x304,%rax
    9009:	48 89 85 20 f1 ff ff 	mov    %rax,-0xee0(%rbp)
    9010:	48 8d 05 51 a5 00 00 	lea    0xa551(%rip),%rax        # 13568 <g_117>
    9017:	48 89 85 28 f1 ff ff 	mov    %rax,-0xed8(%rbp)
    901e:	66 c7 85 e4 ee ff ff 	movw   $0x0,-0x111c(%rbp)
    9025:	00 00 
    9027:	48 8d 05 12 94 00 00 	lea    0x9412(%rip),%rax        # 12440 <g_408>
    902e:	48 89 85 c8 ef ff ff 	mov    %rax,-0x1038(%rbp)
    9035:	48 8d 05 f4 9f 00 00 	lea    0x9ff4(%rip),%rax        # 13030 <g_1341>
    903c:	48 89 85 d0 ef ff ff 	mov    %rax,-0x1030(%rbp)
    9043:	48 c7 85 40 ef ff ff 	movq   $0x0,-0x10c0(%rbp)
    904a:	00 00 00 00 
    904e:	48 8d 85 40 ef ff ff 	lea    -0x10c0(%rbp),%rax
    9055:	48 89 85 48 ef ff ff 	mov    %rax,-0x10b8(%rbp)
    905c:	48 8d 85 48 ef ff ff 	lea    -0x10b8(%rbp),%rax
    9063:	48 89 85 d8 ef ff ff 	mov    %rax,-0x1028(%rbp)
    906a:	48 8d 85 90 f0 ff ff 	lea    -0xf70(%rbp),%rax
    9071:	48 83 c0 28          	add    $0x28,%rax
    9075:	48 89 85 50 ef ff ff 	mov    %rax,-0x10b0(%rbp)
    907c:	48 8d 85 50 ef ff ff 	lea    -0x10b0(%rbp),%rax
    9083:	48 89 85 58 ef ff ff 	mov    %rax,-0x10a8(%rbp)
    908a:	48 8d 85 58 ef ff ff 	lea    -0x10a8(%rbp),%rax
    9091:	48 89 85 e0 ef ff ff 	mov    %rax,-0x1020(%rbp)
    9098:	48 8d 95 30 f1 ff ff 	lea    -0xed0(%rbp),%rdx
    909f:	b8 00 00 00 00       	mov    $0x0,%eax
    90a4:	b9 0e 00 00 00       	mov    $0xe,%ecx
    90a9:	48 89 d7             	mov    %rdx,%rdi
    90ac:	f3 48 ab             	rep stos %rax,%es:(%rdi)
    90af:	48 b8 f4 44 bd 87 70 	movabs $0xdfc5c57087bd44f4,%rax
    90b6:	c5 c5 df 
    90b9:	48 89 85 e8 ef ff ff 	mov    %rax,-0x1018(%rbp)
    90c0:	c6 85 e0 ee ff ff 00 	movb   $0x0,-0x1120(%rbp)
    90c7:	c7 85 e8 ee ff ff 00 	movl   $0x0,-0x1118(%rbp)
    90ce:	00 00 00 
    90d1:	eb 1e                	jmp    90f1 <func_29+0x4aa>
    90d3:	8b 85 e8 ee ff ff    	mov    -0x1118(%rbp),%eax
    90d9:	48 98                	cltq   
    90db:	48 8d 95 38 ef ff ff 	lea    -0x10c8(%rbp),%rdx
    90e2:	48 89 94 c5 70 f0 ff 	mov    %rdx,-0xf90(%rbp,%rax,8)
    90e9:	ff 
    90ea:	83 85 e8 ee ff ff 01 	addl   $0x1,-0x1118(%rbp)
    90f1:	83 bd e8 ee ff ff 03 	cmpl   $0x3,-0x1118(%rbp)
    90f8:	7e d9                	jle    90d3 <func_29+0x48c>
    90fa:	48 8b 9d 18 ef ff ff 	mov    -0x10e8(%rbp),%rbx
    9101:	48 8b 85 90 ef ff ff 	mov    -0x1070(%rbp),%rax
    9108:	48 8b 00             	mov    (%rax),%rax
    910b:	48 89 c2             	mov    %rax,%rdx
    910e:	48 b8 d3 f0 37 44 d3 	movabs $0xe46ed4d34437f0d3,%rax
    9115:	d4 6e e4 
    9118:	48 31 d0             	xor    %rdx,%rax
    911b:	48 89 c2             	mov    %rax,%rdx
    911e:	48 8b 85 90 ef ff ff 	mov    -0x1070(%rbp),%rax
    9125:	48 89 10             	mov    %rdx,(%rax)
    9128:	48 8b 85 90 ef ff ff 	mov    -0x1070(%rbp),%rax
    912f:	48 8b 10             	mov    (%rax),%rdx
    9132:	48 8b 85 98 ef ff ff 	mov    -0x1068(%rbp),%rax
    9139:	48 8b 00             	mov    (%rax),%rax
    913c:	48 21 c2             	and    %rax,%rdx
    913f:	48 8b 85 98 ef ff ff 	mov    -0x1068(%rbp),%rax
    9146:	48 89 10             	mov    %rdx,(%rax)
    9149:	48 8b 85 98 ef ff ff 	mov    -0x1068(%rbp),%rax
    9150:	48 8b 00             	mov    (%rax),%rax
    9153:	48 89 c1             	mov    %rax,%rcx
    9156:	0f b6 85 90 f0 ff ff 	movzbl -0xf70(%rbp),%eax
    915d:	0f b6 d0             	movzbl %al,%edx
    9160:	48 8b 85 88 ef ff ff 	mov    -0x1078(%rbp),%rax
    9167:	48 89 10             	mov    %rdx,(%rax)
    916a:	48 8b 85 88 ef ff ff 	mov    -0x1078(%rbp),%rax
    9171:	48 8b 00             	mov    (%rax),%rax
    9174:	48 89 ce             	mov    %rcx,%rsi
    9177:	48 89 c7             	mov    %rax,%rdi
    917a:	e8 30 bf ff ff       	callq  50af <safe_div_func_uint64_t_u_u>
    917f:	0f bf d0             	movswl %ax,%edx
    9182:	48 8b 85 10 ef ff ff 	mov    -0x10f0(%rbp),%rax
    9189:	89 d6                	mov    %edx,%esi
    918b:	48 89 c7             	mov    %rax,%rdi
    918e:	e8 e2 05 00 00       	callq  9775 <func_44>
    9193:	48 89 c7             	mov    %rax,%rdi
    9196:	e8 31 05 00 00       	callq  96cc <func_42>
    919b:	48 89 c1             	mov    %rax,%rcx
    919e:	8b 85 90 f0 ff ff    	mov    -0xf70(%rbp),%eax
    91a4:	48 89 da             	mov    %rbx,%rdx
    91a7:	48 89 ce             	mov    %rcx,%rsi
    91aa:	89 c7                	mov    %eax,%edi
    91ac:	e8 b3 03 00 00       	callq  9564 <func_37>
    91b1:	0f b7 d0             	movzwl %ax,%edx
    91b4:	48 8b 85 28 ef ff ff 	mov    -0x10d8(%rbp),%rax
    91bb:	48 85 c0             	test   %rax,%rax
    91be:	0f 94 c0             	sete   %al
    91c1:	0f b6 c8             	movzbl %al,%ecx
    91c4:	0f b7 05 45 88 00 00 	movzwl 0x8845(%rip),%eax        # 11a10 <g_666>
    91cb:	0f b7 c0             	movzwl %ax,%eax
    91ce:	31 c8                	xor    %ecx,%eax
    91d0:	83 f8 3f             	cmp    $0x3f,%eax
    91d3:	0f 9f c0             	setg   %al
    91d6:	0f b6 c0             	movzbl %al,%eax
    91d9:	39 c2                	cmp    %eax,%edx
    91db:	0f 9f c0             	setg   %al
    91de:	0f b6 d0             	movzbl %al,%edx
    91e1:	48 8b 85 a0 ef ff ff 	mov    -0x1060(%rbp),%rax
    91e8:	89 10                	mov    %edx,(%rax)
    91ea:	8b 05 90 88 00 00    	mov    0x8890(%rip),%eax        # 11a80 <g_808>
    91f0:	8b 85 dc ee ff ff    	mov    -0x1124(%rbp),%eax
    91f6:	0f be d0             	movsbl %al,%edx
    91f9:	48 8b 85 a8 ef ff ff 	mov    -0x1058(%rbp),%rax
    9200:	48 89 85 b0 ef ff ff 	mov    %rax,-0x1050(%rbp)
    9207:	48 8d 05 8a 94 00 00 	lea    0x948a(%rip),%rax        # 12698 <g_460>
    920e:	48 39 85 b0 ef ff ff 	cmp    %rax,-0x1050(%rbp)
    9215:	0f 94 c0             	sete   %al
    9218:	0f b6 c0             	movzbl %al,%eax
    921b:	89 d6                	mov    %edx,%esi
    921d:	89 c7                	mov    %eax,%edi
    921f:	e8 ee af ff ff       	callq  4212 <safe_mul_func_int8_t_s_s>
    9224:	48 8b 85 a0 ef ff ff 	mov    -0x1060(%rbp),%rax
    922b:	8b 00                	mov    (%rax),%eax
    922d:	98                   	cwtl   
    922e:	89 c6                	mov    %eax,%esi
    9230:	bf 01 00 00 00       	mov    $0x1,%edi
    9235:	e8 bb b1 ff ff       	callq  43f5 <safe_mul_func_int16_t_s_s>
    923a:	48 8b 05 ff 91 00 00 	mov    0x91ff(%rip),%rax        # 12440 <g_408>
    9241:	48 8b 10             	mov    (%rax),%rdx
    9244:	48 8d 85 18 ef ff ff 	lea    -0x10e8(%rbp),%rax
    924b:	48 39 c2             	cmp    %rax,%rdx
    924e:	0f 94 c0             	sete   %al
    9251:	0f b6 c0             	movzbl %al,%eax
    9254:	48 8b 15 3d 87 00 00 	mov    0x873d(%rip),%rdx        # 11998 <g_535+0x118>
    925b:	48 89 c6             	mov    %rax,%rsi
    925e:	48 89 d7             	mov    %rdx,%rdi
    9261:	e8 42 b6 ff ff       	callq  48a8 <safe_sub_func_int64_t_s_s>
    9266:	8b 95 dc ee ff ff    	mov    -0x1124(%rbp),%edx
    926c:	48 8b 05 8d 91 00 00 	mov    0x918d(%rip),%rax        # 12400 <g_69>
    9273:	8b 00                	mov    (%rax),%eax
    9275:	31 c2                	xor    %eax,%edx
    9277:	48 8b 05 82 91 00 00 	mov    0x9182(%rip),%rax        # 12400 <g_69>
    927e:	89 10                	mov    %edx,(%rax)
    9280:	c6 05 9b 7f 00 00 f7 	movb   $0xf7,0x7f9b(%rip)        # 11222 <g_116>
    9287:	e9 a1 02 00 00       	jmpq   952d <func_29+0x8e6>
    928c:	48 c7 85 f0 ef ff ff 	movq   $0x3,-0x1010(%rbp)
    9293:	03 00 00 00 
    9297:	48 8d 05 ea 7f 00 00 	lea    0x7fea(%rip),%rax        # 11288 <g_269+0x8>
    929e:	48 89 85 f8 ef ff ff 	mov    %rax,-0x1008(%rbp)
    92a5:	c7 45 e1 07 07 fa 07 	movl   $0x7fa0707,-0x1f(%rbp)
    92ac:	66 c7 45 e5 07 fa    	movw   $0xfa07,-0x1b(%rbp)
    92b2:	c6 45 e7 07          	movb   $0x7,-0x19(%rbp)
    92b6:	c7 85 f4 ee ff ff 4b 	movl   $0x3c90244b,-0x110c(%rbp)
    92bd:	24 90 3c 
    92c0:	c7 85 30 f0 ff ff d4 	movl   $0x1bfe1cd4,-0xfd0(%rbp)
    92c7:	1c fe 1b 
    92ca:	c7 85 34 f0 ff ff d4 	movl   $0x1bfe1cd4,-0xfcc(%rbp)
    92d1:	1c fe 1b 
    92d4:	c7 85 38 f0 ff ff d4 	movl   $0x1bfe1cd4,-0xfc8(%rbp)
    92db:	1c fe 1b 
    92de:	c7 85 3c f0 ff ff d4 	movl   $0x1bfe1cd4,-0xfc4(%rbp)
    92e5:	1c fe 1b 
    92e8:	c7 85 40 f0 ff ff d4 	movl   $0x1bfe1cd4,-0xfc0(%rbp)
    92ef:	1c fe 1b 
    92f2:	c7 85 44 f0 ff ff d4 	movl   $0x1bfe1cd4,-0xfbc(%rbp)
    92f9:	1c fe 1b 
    92fc:	48 b8 ab e1 a5 b6 1d 	movabs $0xf335101db6a5e1ab,%rax
    9303:	10 35 f3 
    9306:	48 89 85 a0 f1 ff ff 	mov    %rax,-0xe60(%rbp)
    930d:	48 c7 85 a8 f1 ff ff 	movq   $0x3,-0xe58(%rbp)
    9314:	03 00 00 00 
    9318:	48 89 85 b0 f1 ff ff 	mov    %rax,-0xe50(%rbp)
    931f:	48 c7 85 b8 f1 ff ff 	movq   $0x1,-0xe48(%rbp)
    9326:	01 00 00 00 
    932a:	48 c7 85 c0 f1 ff ff 	movq   $0xffffffffffffffff,-0xe40(%rbp)
    9331:	ff ff ff ff 
    9335:	48 c7 85 c8 f1 ff ff 	movq   $0x1,-0xe38(%rbp)
    933c:	01 00 00 00 
    9340:	48 89 85 d0 f1 ff ff 	mov    %rax,-0xe30(%rbp)
    9347:	48 c7 85 d8 f1 ff ff 	movq   $0x3,-0xe28(%rbp)
    934e:	03 00 00 00 
    9352:	48 c7 85 e0 f1 ff ff 	movq   $0x3,-0xe20(%rbp)
    9359:	03 00 00 00 
    935d:	48 89 85 e8 f1 ff ff 	mov    %rax,-0xe18(%rbp)
    9364:	48 bb 23 5d fe 95 b0 	movabs $0xbb1524b095fe5d23,%rbx
    936b:	24 15 bb 
    936e:	48 89 9d f0 f1 ff ff 	mov    %rbx,-0xe10(%rbp)
    9375:	48 c7 85 f8 f1 ff ff 	movq   $0x1,-0xe08(%rbp)
    937c:	01 00 00 00 
    9380:	48 c7 85 00 f2 ff ff 	movq   $0xfffffffffffffffa,-0xe00(%rbp)
    9387:	fa ff ff ff 
    938b:	48 c7 85 08 f2 ff ff 	movq   $0xfffffffffffffffa,-0xdf8(%rbp)
    9392:	fa ff ff ff 
    9396:	48 c7 85 10 f2 ff ff 	movq   $0x1,-0xdf0(%rbp)
    939d:	01 00 00 00 
    93a1:	48 89 9d 18 f2 ff ff 	mov    %rbx,-0xde8(%rbp)
    93a8:	48 89 85 20 f2 ff ff 	mov    %rax,-0xde0(%rbp)
    93af:	48 89 9d 28 f2 ff ff 	mov    %rbx,-0xdd8(%rbp)
    93b6:	48 c7 85 30 f2 ff ff 	movq   $0x1,-0xdd0(%rbp)
    93bd:	01 00 00 00 
    93c1:	48 c7 85 38 f2 ff ff 	movq   $0xfffffffffffffffa,-0xdc8(%rbp)
    93c8:	fa ff ff ff 
    93cc:	48 8d 85 20 fc ff ff 	lea    -0x3e0(%rbp),%rax
    93d3:	48 8d 15 26 39 00 00 	lea    0x3926(%rip),%rdx        # cd00 <g_2250+0xc8f>
    93da:	b9 78 00 00 00       	mov    $0x78,%ecx
    93df:	48 89 c7             	mov    %rax,%rdi
    93e2:	48 89 d6             	mov    %rdx,%rsi
    93e5:	f3 48 a5             	rep movsq %ds:(%rsi),%es:(%rdi)
    93e8:	48 8d 05 01 80 00 00 	lea    0x8001(%rip),%rax        # 113f0 <g_433>
    93ef:	48 89 85 00 f0 ff ff 	mov    %rax,-0x1000(%rbp)
    93f6:	c6 85 e1 ee ff ff fe 	movb   $0xfe,-0x111f(%rbp)
    93fd:	48 8d 85 30 f4 ff ff 	lea    -0xbd0(%rbp),%rax
    9404:	48 8d 15 55 88 00 00 	lea    0x8855(%rip),%rdx        # 11c60 <g_2212+0x8>
    940b:	b9 40 00 00 00       	mov    $0x40,%ecx
    9410:	48 89 c7             	mov    %rax,%rdi
    9413:	48 89 d6             	mov    %rdx,%rsi
    9416:	f3 48 a5             	rep movsq %ds:(%rsi),%es:(%rdi)
    9419:	66 c7 85 e6 ee ff ff 	movw   $0xffff,-0x111a(%rbp)
    9420:	ff ff 
    9422:	c7 85 f8 ee ff ff c3 	movl   $0x831338c3,-0x1108(%rbp)
    9429:	38 13 83 
    942c:	48 c7 85 08 f0 ff ff 	movq   $0x0,-0xff8(%rbp)
    9433:	00 00 00 00 
    9437:	c7 85 fc ee ff ff 1b 	movl   $0x2729941b,-0x1104(%rbp)
    943e:	94 29 27 
    9441:	c7 85 00 ef ff ff ff 	movl   $0xffffffff,-0x1100(%rbp)
    9448:	ff ff ff 
    944b:	c7 85 04 ef ff ff ff 	movl   $0xffffffff,-0x10fc(%rbp)
    9452:	ff ff ff 
    9455:	48 8d 85 f0 f2 ff ff 	lea    -0xd10(%rbp),%rax
    945c:	48 8d 15 5d 3c 00 00 	lea    0x3c5d(%rip),%rdx        # d0c0 <g_2250+0x104f>
    9463:	b9 28 00 00 00       	mov    $0x28,%ecx
    9468:	48 89 c7             	mov    %rax,%rdi
    946b:	48 89 d6             	mov    %rdx,%rsi
    946e:	f3 48 a5             	rep movsq %ds:(%rsi),%es:(%rdi)
    9471:	c7 85 08 ef ff ff ea 	movl   $0x2ea469ea,-0x10f8(%rbp)
    9478:	69 a4 2e 
    947b:	48 c7 85 60 ef ff ff 	movq   $0x0,-0x10a0(%rbp)
    9482:	00 00 00 00 
    9486:	48 8d 85 60 ef ff ff 	lea    -0x10a0(%rbp),%rax
    948d:	48 89 85 10 f0 ff ff 	mov    %rax,-0xff0(%rbp)
    9494:	48 8d 05 3b 7e 00 00 	lea    0x7e3b(%rip),%rax        # 112d6 <g_282+0x6>
    949b:	48 89 85 68 ef ff ff 	mov    %rax,-0x1098(%rbp)
    94a2:	48 8d 85 68 ef ff ff 	lea    -0x1098(%rbp),%rax
    94a9:	48 89 85 70 ef ff ff 	mov    %rax,-0x1090(%rbp)
    94b0:	48 8d 85 70 ef ff ff 	lea    -0x1090(%rbp),%rax
    94b7:	48 89 85 78 ef ff ff 	mov    %rax,-0x1088(%rbp)
    94be:	48 8d 85 78 ef ff ff 	lea    -0x1088(%rbp),%rax
    94c5:	48 89 85 18 f0 ff ff 	mov    %rax,-0xfe8(%rbp)
    94cc:	48 c7 85 20 f0 ff ff 	movq   $0xffffffffffffffff,-0xfe0(%rbp)
    94d3:	ff ff ff ff 
    94d7:	c7 85 0c ef ff ff db 	movl   $0xd5f177db,-0x10f4(%rbp)
    94de:	77 f1 d5 
    94e1:	c7 85 ec ee ff ff 00 	movl   $0x0,-0x1114(%rbp)
    94e8:	00 00 00 
    94eb:	eb 1a                	jmp    9507 <func_29+0x8c0>
    94ed:	8b 85 ec ee ff ff    	mov    -0x1114(%rbp),%eax
    94f3:	48 98                	cltq   
    94f5:	c7 84 85 28 f0 ff ff 	movl   $0xe8bdd6ca,-0xfd8(%rbp,%rax,4)
    94fc:	ca d6 bd e8 
    9500:	83 85 ec ee ff ff 01 	addl   $0x1,-0x1114(%rbp)
    9507:	83 bd ec ee ff ff 01 	cmpl   $0x1,-0x1114(%rbp)
    950e:	7e dd                	jle    94ed <func_29+0x8a6>
    9510:	0f b6 05 0b 7d 00 00 	movzbl 0x7d0b(%rip),%eax        # 11222 <g_116>
    9517:	0f b6 c0             	movzbl %al,%eax
    951a:	be 06 00 00 00       	mov    $0x6,%esi
    951f:	48 89 c7             	mov    %rax,%rdi
    9522:	e8 1a b3 ff ff       	callq  4841 <safe_add_func_int64_t_s_s>
    9527:	88 05 f5 7c 00 00    	mov    %al,0x7cf5(%rip)        # 11222 <g_116>
    952d:	0f b6 05 ee 7c 00 00 	movzbl 0x7cee(%rip),%eax        # 11222 <g_116>
    9534:	3c 09                	cmp    $0x9,%al
    9536:	0f 85 50 fd ff ff    	jne    928c <func_29+0x645>
    953c:	48 8b 05 5d 91 00 00 	mov    0x915d(%rip),%rax        # 126a0 <g_569>
    9543:	48 8b 00             	mov    (%rax),%rax
    9546:	48 8b 5d e8          	mov    -0x18(%rbp),%rbx
    954a:	64 48 33 1c 25 28 00 	xor    %fs:0x28,%rbx
    9551:	00 00 
    9553:	74 05                	je     955a <func_29+0x913>
    9555:	e8 16 ab ff ff       	callq  4070 <__stack_chk_fail@plt>
    955a:	48 81 c4 28 11 00 00 	add    $0x1128,%rsp
    9561:	5b                   	pop    %rbx
    9562:	5d                   	pop    %rbp
    9563:	c3                   	retq   

0000000000009564 <func_37>:
    9564:	f3 0f 1e fa          	endbr64 
    9568:	55                   	push   %rbp
    9569:	48 89 e5             	mov    %rsp,%rbp
    956c:	48 81 ec 70 01 00 00 	sub    $0x170,%rsp
    9573:	89 bd ac fe ff ff    	mov    %edi,-0x154(%rbp)
    9579:	48 89 b5 a0 fe ff ff 	mov    %rsi,-0x160(%rbp)
    9580:	48 89 95 98 fe ff ff 	mov    %rdx,-0x168(%rbp)
    9587:	64 48 8b 04 25 28 00 	mov    %fs:0x28,%rax
    958e:	00 00 
    9590:	48 89 45 f8          	mov    %rax,-0x8(%rbp)
    9594:	31 c0                	xor    %eax,%eax
    9596:	48 b8 96 a6 a1 0f a7 	movabs $0x991f5aa70fa1a696,%rax
    959d:	5a 1f 99 
    95a0:	48 89 85 d8 fe ff ff 	mov    %rax,-0x128(%rbp)
    95a7:	c7 85 cc fe ff ff 59 	movl   $0xc62d1f59,-0x134(%rbp)
    95ae:	1f 2d c6 
    95b1:	c7 85 d0 fe ff ff f9 	movl   $0xfffffff9,-0x130(%rbp)
    95b8:	ff ff ff 
    95bb:	48 8d 05 e2 7d 00 00 	lea    0x7de2(%rip),%rax        # 113a4 <g_413>
    95c2:	48 89 85 e0 fe ff ff 	mov    %rax,-0x120(%rbp)
    95c9:	48 8d 05 48 7b 00 00 	lea    0x7b48(%rip),%rax        # 11118 <g_70>
    95d0:	48 89 85 e8 fe ff ff 	mov    %rax,-0x118(%rbp)
    95d7:	48 8d 05 c6 7d 00 00 	lea    0x7dc6(%rip),%rax        # 113a4 <g_413>
    95de:	48 89 85 f0 fe ff ff 	mov    %rax,-0x110(%rbp)
    95e5:	48 8d 05 48 7d 00 00 	lea    0x7d48(%rip),%rax        # 11334 <g_411+0x34>
    95ec:	48 89 85 f8 fe ff ff 	mov    %rax,-0x108(%rbp)
    95f3:	48 8d 05 b2 7d 00 00 	lea    0x7db2(%rip),%rax        # 113ac <g_415>
    95fa:	48 89 85 00 ff ff ff 	mov    %rax,-0x100(%rbp)
    9601:	c7 85 c0 fe ff ff ff 	movl   $0xffffffff,-0x140(%rbp)
    9608:	ff ff ff 
    960b:	48 c7 85 08 ff ff ff 	movq   $0x0,-0xf8(%rbp)
    9612:	00 00 00 00 
    9616:	c7 85 d4 fe ff ff b6 	movl   $0x447debb6,-0x12c(%rbp)
    961d:	eb 7d 44 
    9620:	c6 85 bf fe ff ff 00 	movb   $0x0,-0x141(%rbp)
    9627:	c7 85 c4 fe ff ff 00 	movl   $0x0,-0x13c(%rbp)
    962e:	00 00 00 
    9631:	eb 52                	jmp    9685 <func_37+0x121>
    9633:	c7 85 c8 fe ff ff 00 	movl   $0x0,-0x138(%rbp)
    963a:	00 00 00 
    963d:	eb 36                	jmp    9675 <func_37+0x111>
    963f:	8b 85 c8 fe ff ff    	mov    -0x138(%rbp),%eax
    9645:	48 63 c8             	movslq %eax,%rcx
    9648:	8b 85 c4 fe ff ff    	mov    -0x13c(%rbp),%eax
    964e:	48 63 d0             	movslq %eax,%rdx
    9651:	48 89 d0             	mov    %rdx,%rax
    9654:	48 c1 e0 03          	shl    $0x3,%rax
    9658:	48 29 d0             	sub    %rdx,%rax
    965b:	48 8d 14 08          	lea    (%rax,%rcx,1),%rdx
    965f:	48 8d 85 c0 fe ff ff 	lea    -0x140(%rbp),%rax
    9666:	48 89 84 d5 10 ff ff 	mov    %rax,-0xf0(%rbp,%rdx,8)
    966d:	ff 
    966e:	83 85 c8 fe ff ff 01 	addl   $0x1,-0x138(%rbp)
    9675:	83 bd c8 fe ff ff 06 	cmpl   $0x6,-0x138(%rbp)
    967c:	7e c1                	jle    963f <func_37+0xdb>
    967e:	83 85 c4 fe ff ff 01 	addl   $0x1,-0x13c(%rbp)
    9685:	83 bd c4 fe ff ff 03 	cmpl   $0x3,-0x13c(%rbp)
    968c:	7e a5                	jle    9633 <func_37+0xcf>
    968e:	c7 85 cc fe ff ff 01 	movl   $0x1,-0x134(%rbp)
    9695:	00 00 00 
    9698:	48 8b 05 61 8d 00 00 	mov    0x8d61(%rip),%rax        # 12400 <g_69>
    969f:	8b 00                	mov    (%rax),%eax
    96a1:	21 85 d0 fe ff ff    	and    %eax,-0x130(%rbp)
    96a7:	83 ad d4 fe ff ff 01 	subl   $0x1,-0x12c(%rbp)
    96ae:	66 0f be 85 bf fe ff 	movsbw -0x141(%rbp),%ax
    96b5:	ff 
    96b6:	48 8b 75 f8          	mov    -0x8(%rbp),%rsi
    96ba:	64 48 33 34 25 28 00 	xor    %fs:0x28,%rsi
    96c1:	00 00 
    96c3:	74 05                	je     96ca <func_37+0x166>
    96c5:	e8 a6 a9 ff ff       	callq  4070 <__stack_chk_fail@plt>
    96ca:	c9                   	leaveq 
    96cb:	c3                   	retq   

00000000000096cc <func_42>:
    96cc:	f3 0f 1e fa          	endbr64 
    96d0:	55                   	push   %rbp
    96d1:	48 89 e5             	mov    %rsp,%rbp
    96d4:	48 83 ec 30          	sub    $0x30,%rsp
    96d8:	48 89 7d d8          	mov    %rdi,-0x28(%rbp)
    96dc:	64 48 8b 04 25 28 00 	mov    %fs:0x28,%rax
    96e3:	00 00 
    96e5:	48 89 45 f8          	mov    %rax,-0x8(%rbp)
    96e9:	31 c0                	xor    %eax,%eax
    96eb:	48 8d 05 42 7c 00 00 	lea    0x7c42(%rip),%rax        # 11334 <g_411+0x34>
    96f2:	48 89 45 e0          	mov    %rax,-0x20(%rbp)
    96f6:	48 c7 45 e8 00 00 00 	movq   $0x0,-0x18(%rbp)
    96fd:	00 
    96fe:	c7 05 1c 7b 00 00 ef 	movl   $0xffffffef,0x7b1c(%rip)        # 11224 <g_119>
    9705:	ff ff ff 
    9708:	eb 46                	jmp    9750 <func_42+0x84>
    970a:	48 8d 45 e0          	lea    -0x20(%rbp),%rax
    970e:	48 89 45 f0          	mov    %rax,-0x10(%rbp)
    9712:	48 8b 05 6f 90 00 00 	mov    0x906f(%rip),%rax        # 12788 <g_596>
    9719:	48 8b 00             	mov    (%rax),%rax
    971c:	48 8b 00             	mov    (%rax),%rax
    971f:	48 c7 00 00 00 00 00 	movq   $0x0,(%rax)
    9726:	48 8b 05 53 90 00 00 	mov    0x9053(%rip),%rax        # 12780 <g_597>
    972d:	48 8b 00             	mov    (%rax),%rax
    9730:	48 8b 55 e0          	mov    -0x20(%rbp),%rdx
    9734:	48 89 10             	mov    %rdx,(%rax)
    9737:	48 8b 10             	mov    (%rax),%rdx
    973a:	48 8b 45 f0          	mov    -0x10(%rbp),%rax
    973e:	48 89 10             	mov    %rdx,(%rax)
    9741:	8b 05 dd 7a 00 00    	mov    0x7add(%rip),%eax        # 11224 <g_119>
    9747:	83 c0 01             	add    $0x1,%eax
    974a:	89 05 d4 7a 00 00    	mov    %eax,0x7ad4(%rip)        # 11224 <g_119>
    9750:	8b 05 ce 7a 00 00    	mov    0x7ace(%rip),%eax        # 11224 <g_119>
    9756:	83 f8 2e             	cmp    $0x2e,%eax
    9759:	77 af                	ja     970a <func_42+0x3e>
    975b:	48 8b 45 e8          	mov    -0x18(%rbp),%rax
    975f:	48 8b 4d f8          	mov    -0x8(%rbp),%rcx
    9763:	64 48 33 0c 25 28 00 	xor    %fs:0x28,%rcx
    976a:	00 00 
    976c:	74 05                	je     9773 <func_42+0xa7>
    976e:	e8 fd a8 ff ff       	callq  4070 <__stack_chk_fail@plt>
    9773:	c9                   	leaveq 
    9774:	c3                   	retq   

0000000000009775 <func_44>:
    9775:	f3 0f 1e fa          	endbr64 
    9779:	55                   	push   %rbp
    977a:	48 89 e5             	mov    %rsp,%rbp
    977d:	53                   	push   %rbx
    977e:	48 81 ec a8 0d 00 00 	sub    $0xda8,%rsp
    9785:	48 89 bd 58 f2 ff ff 	mov    %rdi,-0xda8(%rbp)
    978c:	89 f0                	mov    %esi,%eax
    978e:	66 89 85 54 f2 ff ff 	mov    %ax,-0xdac(%rbp)
    9795:	64 48 8b 04 25 28 00 	mov    %fs:0x28,%rax
    979c:	00 00 
    979e:	48 89 45 e8          	mov    %rax,-0x18(%rbp)
    97a2:	31 c0                	xor    %eax,%eax
    97a4:	66 c7 85 6c f2 ff ff 	movw   $0x25ef,-0xd94(%rbp)
    97ab:	ef 25 
    97ad:	c6 85 68 f2 ff ff e8 	movb   $0xe8,-0xd98(%rbp)
    97b4:	48 8d 85 80 f6 ff ff 	lea    -0x980(%rbp),%rax
    97bb:	48 8d 15 3e 3a 00 00 	lea    0x3a3e(%rip),%rdx        # d200 <g_2250+0x118f>
    97c2:	b9 78 00 00 00       	mov    $0x78,%ecx
    97c7:	48 89 c7             	mov    %rax,%rdi
    97ca:	48 89 d6             	mov    %rdx,%rsi
    97cd:	f3 48 a5             	rep movsq %ds:(%rsi),%es:(%rdi)
    97d0:	48 8d 05 63 78 00 00 	lea    0x7863(%rip),%rax        # 1103a <g_32+0xa>
    97d7:	48 89 85 90 f2 ff ff 	mov    %rax,-0xd70(%rbp)
    97de:	48 c7 85 e0 f2 ff ff 	movq   $0x0,-0xd20(%rbp)
    97e5:	00 00 00 00 
    97e9:	48 8d 05 10 8c 00 00 	lea    0x8c10(%rip),%rax        # 12400 <g_69>
    97f0:	48 89 85 e8 f2 ff ff 	mov    %rax,-0xd18(%rbp)
    97f7:	c7 85 80 f2 ff ff 38 	movl   $0xd638c038,-0xd80(%rbp)
    97fe:	c0 38 d6 
    9801:	48 8d 85 80 f6 ff ff 	lea    -0x980(%rbp),%rax
    9808:	48 05 a8 01 00 00    	add    $0x1a8,%rax
    980e:	48 89 85 f0 f2 ff ff 	mov    %rax,-0xd10(%rbp)
    9815:	48 8d 05 28 7a 00 00 	lea    0x7a28(%rip),%rax        # 11244 <g_221+0x4>
    981c:	48 89 85 f8 f2 ff ff 	mov    %rax,-0xd08(%rbp)
    9823:	48 c7 85 98 f2 ff ff 	movq   $0x0,-0xd68(%rbp)
    982a:	00 00 00 00 
    982e:	48 8d 85 98 f2 ff ff 	lea    -0xd68(%rbp),%rax
    9835:	48 89 85 00 f3 ff ff 	mov    %rax,-0xd00(%rbp)
    983c:	48 b8 a8 75 07 71 c5 	movabs $0x607df8c5710775a8,%rax
    9843:	f8 7d 60 
    9846:	48 89 85 08 f3 ff ff 	mov    %rax,-0xcf8(%rbp)
    984d:	48 b8 f8 a1 51 18 9a 	movabs $0x3788a09a1851a1f8,%rax
    9854:	a0 88 37 
    9857:	48 89 85 10 f3 ff ff 	mov    %rax,-0xcf0(%rbp)
    985e:	48 8d 05 9b 8b 00 00 	lea    0x8b9b(%rip),%rax        # 12400 <g_69>
    9865:	48 89 85 a0 f2 ff ff 	mov    %rax,-0xd60(%rbp)
    986c:	48 8d 85 a0 f2 ff ff 	lea    -0xd60(%rbp),%rax
    9873:	48 89 85 a8 f2 ff ff 	mov    %rax,-0xd58(%rbp)
    987a:	48 8d 85 a8 f2 ff ff 	lea    -0xd58(%rbp),%rax
    9881:	48 89 85 18 f3 ff ff 	mov    %rax,-0xce8(%rbp)
    9888:	48 8d 05 89 78 00 00 	lea    0x7889(%rip),%rax        # 11118 <g_70>
    988f:	48 89 85 20 f3 ff ff 	mov    %rax,-0xce0(%rbp)
    9896:	66 c7 85 6e f2 ff ff 	movw   $0xcec8,-0xd92(%rbp)
    989d:	c8 ce 
    989f:	48 8d 05 e2 79 00 00 	lea    0x79e2(%rip),%rax        # 11288 <g_269+0x8>
    98a6:	48 89 85 28 f3 ff ff 	mov    %rax,-0xcd8(%rbp)
    98ad:	48 c7 85 30 f3 ff ff 	movq   $0x0,-0xcd0(%rbp)
    98b4:	00 00 00 00 
    98b8:	48 8d 05 79 79 00 00 	lea    0x7979(%rip),%rax        # 11238 <g_210>
    98bf:	48 89 85 38 f3 ff ff 	mov    %rax,-0xcc8(%rbp)
    98c6:	48 8d 85 90 f2 ff ff 	lea    -0xd70(%rbp),%rax
    98cd:	48 89 85 c0 f3 ff ff 	mov    %rax,-0xc40(%rbp)
    98d4:	48 8d 85 90 f2 ff ff 	lea    -0xd70(%rbp),%rax
    98db:	48 89 85 c8 f3 ff ff 	mov    %rax,-0xc38(%rbp)
    98e2:	48 8d 85 90 f2 ff ff 	lea    -0xd70(%rbp),%rax
    98e9:	48 89 85 d0 f3 ff ff 	mov    %rax,-0xc30(%rbp)
    98f0:	48 8d 85 90 f2 ff ff 	lea    -0xd70(%rbp),%rax
    98f7:	48 89 85 d8 f3 ff ff 	mov    %rax,-0xc28(%rbp)
    98fe:	48 8d 85 90 f2 ff ff 	lea    -0xd70(%rbp),%rax
    9905:	48 89 85 e0 f3 ff ff 	mov    %rax,-0xc20(%rbp)
    990c:	48 8d 05 dd 7a 00 00 	lea    0x7add(%rip),%rax        # 113f0 <g_433>
    9913:	48 89 85 b0 f2 ff ff 	mov    %rax,-0xd50(%rbp)
    991a:	48 8d 85 b0 f2 ff ff 	lea    -0xd50(%rbp),%rax
    9921:	48 89 85 40 f3 ff ff 	mov    %rax,-0xcc0(%rbp)
    9928:	48 8d 05 a1 8c 00 00 	lea    0x8ca1(%rip),%rax        # 125d0 <g_461+0x130>
    992f:	48 89 85 70 f4 ff ff 	mov    %rax,-0xb90(%rbp)
    9936:	48 8d 05 13 8d 00 00 	lea    0x8d13(%rip),%rax        # 12650 <g_461+0x1b0>
    993d:	48 89 85 78 f4 ff ff 	mov    %rax,-0xb88(%rbp)
    9944:	48 8d 05 85 8c 00 00 	lea    0x8c85(%rip),%rax        # 125d0 <g_461+0x130>
    994b:	48 89 85 80 f4 ff ff 	mov    %rax,-0xb80(%rbp)
    9952:	48 8d 05 ff 8c 00 00 	lea    0x8cff(%rip),%rax        # 12658 <g_461+0x1b8>
    9959:	48 89 85 88 f4 ff ff 	mov    %rax,-0xb78(%rbp)
    9960:	48 8d 05 39 8c 00 00 	lea    0x8c39(%rip),%rax        # 125a0 <g_461+0x100>
    9967:	48 89 85 90 f4 ff ff 	mov    %rax,-0xb70(%rbp)
    996e:	48 8d 05 e3 8c 00 00 	lea    0x8ce3(%rip),%rax        # 12658 <g_461+0x1b8>
    9975:	48 89 85 98 f4 ff ff 	mov    %rax,-0xb68(%rbp)
    997c:	48 8d 05 d5 8c 00 00 	lea    0x8cd5(%rip),%rax        # 12658 <g_461+0x1b8>
    9983:	48 89 85 a0 f4 ff ff 	mov    %rax,-0xb60(%rbp)
    998a:	48 8d 05 0f 8c 00 00 	lea    0x8c0f(%rip),%rax        # 125a0 <g_461+0x100>
    9991:	48 89 85 a8 f4 ff ff 	mov    %rax,-0xb58(%rbp)
    9998:	48 8d 05 d1 8c 00 00 	lea    0x8cd1(%rip),%rax        # 12670 <g_461+0x1d0>
    999f:	48 89 85 b0 f4 ff ff 	mov    %rax,-0xb50(%rbp)
    99a6:	48 c7 85 b8 f4 ff ff 	movq   $0x0,-0xb48(%rbp)
    99ad:	00 00 00 00 
    99b1:	48 8d 05 98 8c 00 00 	lea    0x8c98(%rip),%rax        # 12650 <g_461+0x1b0>
    99b8:	48 89 85 c0 f4 ff ff 	mov    %rax,-0xb40(%rbp)
    99bf:	48 8d 05 92 8c 00 00 	lea    0x8c92(%rip),%rax        # 12658 <g_461+0x1b8>
    99c6:	48 89 85 c8 f4 ff ff 	mov    %rax,-0xb38(%rbp)
    99cd:	48 8d 05 84 8c 00 00 	lea    0x8c84(%rip),%rax        # 12658 <g_461+0x1b8>
    99d4:	48 89 85 d0 f4 ff ff 	mov    %rax,-0xb30(%rbp)
    99db:	48 c7 85 d8 f4 ff ff 	movq   $0x0,-0xb28(%rbp)
    99e2:	00 00 00 00 
    99e6:	48 c7 85 e0 f4 ff ff 	movq   $0x0,-0xb20(%rbp)
    99ed:	00 00 00 00 
    99f1:	48 c7 85 e8 f4 ff ff 	movq   $0x0,-0xb18(%rbp)
    99f8:	00 00 00 00 
    99fc:	48 8d 05 55 8c 00 00 	lea    0x8c55(%rip),%rax        # 12658 <g_461+0x1b8>
    9a03:	48 89 85 f0 f4 ff ff 	mov    %rax,-0xb10(%rbp)
    9a0a:	48 8d 05 47 8c 00 00 	lea    0x8c47(%rip),%rax        # 12658 <g_461+0x1b8>
    9a11:	48 89 85 f8 f4 ff ff 	mov    %rax,-0xb08(%rbp)
    9a18:	48 8d 05 39 8c 00 00 	lea    0x8c39(%rip),%rax        # 12658 <g_461+0x1b8>
    9a1f:	48 89 85 00 f5 ff ff 	mov    %rax,-0xb00(%rbp)
    9a26:	48 8d 05 33 8b 00 00 	lea    0x8b33(%rip),%rax        # 12560 <g_461+0xc0>
    9a2d:	48 89 85 08 f5 ff ff 	mov    %rax,-0xaf8(%rbp)
    9a34:	48 8d 05 1d 8c 00 00 	lea    0x8c1d(%rip),%rax        # 12658 <g_461+0x1b8>
    9a3b:	48 89 85 10 f5 ff ff 	mov    %rax,-0xaf0(%rbp)
    9a42:	48 8d 05 0f 8c 00 00 	lea    0x8c0f(%rip),%rax        # 12658 <g_461+0x1b8>
    9a49:	48 89 85 18 f5 ff ff 	mov    %rax,-0xae8(%rbp)
    9a50:	48 8d 05 01 8c 00 00 	lea    0x8c01(%rip),%rax        # 12658 <g_461+0x1b8>
    9a57:	48 89 85 20 f5 ff ff 	mov    %rax,-0xae0(%rbp)
    9a5e:	48 c7 85 28 f5 ff ff 	movq   $0x0,-0xad8(%rbp)
    9a65:	00 00 00 00 
    9a69:	48 8d 05 60 8b 00 00 	lea    0x8b60(%rip),%rax        # 125d0 <g_461+0x130>
    9a70:	48 89 85 30 f5 ff ff 	mov    %rax,-0xad0(%rbp)
    9a77:	48 8d 05 f2 8b 00 00 	lea    0x8bf2(%rip),%rax        # 12670 <g_461+0x1d0>
    9a7e:	48 89 85 38 f5 ff ff 	mov    %rax,-0xac8(%rbp)
    9a85:	48 8d 05 cc 8b 00 00 	lea    0x8bcc(%rip),%rax        # 12658 <g_461+0x1b8>
    9a8c:	48 89 85 40 f5 ff ff 	mov    %rax,-0xac0(%rbp)
    9a93:	48 8d 05 be 8b 00 00 	lea    0x8bbe(%rip),%rax        # 12658 <g_461+0x1b8>
    9a9a:	48 89 85 48 f5 ff ff 	mov    %rax,-0xab8(%rbp)
    9aa1:	48 8d 05 b0 8b 00 00 	lea    0x8bb0(%rip),%rax        # 12658 <g_461+0x1b8>
    9aa8:	48 89 85 50 f5 ff ff 	mov    %rax,-0xab0(%rbp)
    9aaf:	48 8d 05 ba 8b 00 00 	lea    0x8bba(%rip),%rax        # 12670 <g_461+0x1d0>
    9ab6:	48 89 85 58 f5 ff ff 	mov    %rax,-0xaa8(%rbp)
    9abd:	48 8d 85 70 f4 ff ff 	lea    -0xb90(%rbp),%rax
    9ac4:	48 83 c0 20          	add    $0x20,%rax
    9ac8:	48 89 85 60 f5 ff ff 	mov    %rax,-0xaa0(%rbp)
    9acf:	48 8d 85 70 f4 ff ff 	lea    -0xb90(%rbp),%rax
    9ad6:	48 83 c0 20          	add    $0x20,%rax
    9ada:	48 89 85 68 f5 ff ff 	mov    %rax,-0xa98(%rbp)
    9ae1:	48 8d 85 70 f4 ff ff 	lea    -0xb90(%rbp),%rax
    9ae8:	48 83 c0 08          	add    $0x8,%rax
    9aec:	48 89 85 70 f5 ff ff 	mov    %rax,-0xa90(%rbp)
    9af3:	48 8d 85 70 f4 ff ff 	lea    -0xb90(%rbp),%rax
    9afa:	48 83 c0 20          	add    $0x20,%rax
    9afe:	48 89 85 78 f5 ff ff 	mov    %rax,-0xa88(%rbp)
    9b05:	48 8d 85 70 f4 ff ff 	lea    -0xb90(%rbp),%rax
    9b0c:	48 83 c0 20          	add    $0x20,%rax
    9b10:	48 89 85 80 f5 ff ff 	mov    %rax,-0xa80(%rbp)
    9b17:	48 8d 85 70 f4 ff ff 	lea    -0xb90(%rbp),%rax
    9b1e:	48 83 c0 08          	add    $0x8,%rax
    9b22:	48 89 85 88 f5 ff ff 	mov    %rax,-0xa78(%rbp)
    9b29:	48 8d 85 70 f4 ff ff 	lea    -0xb90(%rbp),%rax
    9b30:	48 83 c0 20          	add    $0x20,%rax
    9b34:	48 89 85 90 f5 ff ff 	mov    %rax,-0xa70(%rbp)
    9b3b:	48 8d 85 70 f4 ff ff 	lea    -0xb90(%rbp),%rax
    9b42:	48 83 c0 20          	add    $0x20,%rax
    9b46:	48 89 85 98 f5 ff ff 	mov    %rax,-0xa68(%rbp)
    9b4d:	48 8d 85 70 f4 ff ff 	lea    -0xb90(%rbp),%rax
    9b54:	48 83 c0 08          	add    $0x8,%rax
    9b58:	48 89 85 a0 f5 ff ff 	mov    %rax,-0xa60(%rbp)
    9b5f:	48 8d 85 70 f4 ff ff 	lea    -0xb90(%rbp),%rax
    9b66:	48 83 c0 20          	add    $0x20,%rax
    9b6a:	48 89 85 a8 f5 ff ff 	mov    %rax,-0xa58(%rbp)
    9b71:	48 8d 85 70 f4 ff ff 	lea    -0xb90(%rbp),%rax
    9b78:	48 83 c0 20          	add    $0x20,%rax
    9b7c:	48 89 85 b0 f5 ff ff 	mov    %rax,-0xa50(%rbp)
    9b83:	48 8d 85 70 f4 ff ff 	lea    -0xb90(%rbp),%rax
    9b8a:	48 83 c0 08          	add    $0x8,%rax
    9b8e:	48 89 85 b8 f5 ff ff 	mov    %rax,-0xa48(%rbp)
    9b95:	48 8d 85 70 f4 ff ff 	lea    -0xb90(%rbp),%rax
    9b9c:	48 83 c0 20          	add    $0x20,%rax
    9ba0:	48 89 85 c0 f5 ff ff 	mov    %rax,-0xa40(%rbp)
    9ba7:	48 8d 85 70 f4 ff ff 	lea    -0xb90(%rbp),%rax
    9bae:	48 83 c0 20          	add    $0x20,%rax
    9bb2:	48 89 85 c8 f5 ff ff 	mov    %rax,-0xa38(%rbp)
    9bb9:	48 8d 85 70 f4 ff ff 	lea    -0xb90(%rbp),%rax
    9bc0:	48 83 c0 08          	add    $0x8,%rax
    9bc4:	48 89 85 d0 f5 ff ff 	mov    %rax,-0xa30(%rbp)
    9bcb:	48 8d 85 70 f4 ff ff 	lea    -0xb90(%rbp),%rax
    9bd2:	48 83 c0 20          	add    $0x20,%rax
    9bd6:	48 89 85 d8 f5 ff ff 	mov    %rax,-0xa28(%rbp)
    9bdd:	48 8d 85 70 f4 ff ff 	lea    -0xb90(%rbp),%rax
    9be4:	48 83 c0 20          	add    $0x20,%rax
    9be8:	48 89 85 e0 f5 ff ff 	mov    %rax,-0xa20(%rbp)
    9bef:	48 8d 85 70 f4 ff ff 	lea    -0xb90(%rbp),%rax
    9bf6:	48 83 c0 08          	add    $0x8,%rax
    9bfa:	48 89 85 e8 f5 ff ff 	mov    %rax,-0xa18(%rbp)
    9c01:	48 8d 85 70 f4 ff ff 	lea    -0xb90(%rbp),%rax
    9c08:	48 83 c0 20          	add    $0x20,%rax
    9c0c:	48 89 85 f0 f5 ff ff 	mov    %rax,-0xa10(%rbp)
    9c13:	48 8d 85 70 f4 ff ff 	lea    -0xb90(%rbp),%rax
    9c1a:	48 83 c0 20          	add    $0x20,%rax
    9c1e:	48 89 85 f8 f5 ff ff 	mov    %rax,-0xa08(%rbp)
    9c25:	48 8d 85 70 f4 ff ff 	lea    -0xb90(%rbp),%rax
    9c2c:	48 83 c0 08          	add    $0x8,%rax
    9c30:	48 89 85 00 f6 ff ff 	mov    %rax,-0xa00(%rbp)
    9c37:	48 8d 85 70 f4 ff ff 	lea    -0xb90(%rbp),%rax
    9c3e:	48 05 d8 00 00 00    	add    $0xd8,%rax
    9c44:	48 89 85 08 f6 ff ff 	mov    %rax,-0x9f8(%rbp)
    9c4b:	48 8d 85 70 f4 ff ff 	lea    -0xb90(%rbp),%rax
    9c52:	48 05 d8 00 00 00    	add    $0xd8,%rax
    9c58:	48 89 85 10 f6 ff ff 	mov    %rax,-0x9f0(%rbp)
    9c5f:	48 8d 85 70 f4 ff ff 	lea    -0xb90(%rbp),%rax
    9c66:	48 83 c0 20          	add    $0x20,%rax
    9c6a:	48 89 85 18 f6 ff ff 	mov    %rax,-0x9e8(%rbp)
    9c71:	48 8d 85 70 f4 ff ff 	lea    -0xb90(%rbp),%rax
    9c78:	48 05 d8 00 00 00    	add    $0xd8,%rax
    9c7e:	48 89 85 20 f6 ff ff 	mov    %rax,-0x9e0(%rbp)
    9c85:	48 8d 85 70 f4 ff ff 	lea    -0xb90(%rbp),%rax
    9c8c:	48 05 d8 00 00 00    	add    $0xd8,%rax
    9c92:	48 89 85 28 f6 ff ff 	mov    %rax,-0x9d8(%rbp)
    9c99:	48 8d 85 70 f4 ff ff 	lea    -0xb90(%rbp),%rax
    9ca0:	48 83 c0 20          	add    $0x20,%rax
    9ca4:	48 89 85 30 f6 ff ff 	mov    %rax,-0x9d0(%rbp)
    9cab:	48 8d 85 70 f4 ff ff 	lea    -0xb90(%rbp),%rax
    9cb2:	48 05 d8 00 00 00    	add    $0xd8,%rax
    9cb8:	48 89 85 38 f6 ff ff 	mov    %rax,-0x9c8(%rbp)
    9cbf:	48 8d 85 70 f4 ff ff 	lea    -0xb90(%rbp),%rax
    9cc6:	48 05 d8 00 00 00    	add    $0xd8,%rax
    9ccc:	48 89 85 40 f6 ff ff 	mov    %rax,-0x9c0(%rbp)
    9cd3:	48 8d 85 70 f4 ff ff 	lea    -0xb90(%rbp),%rax
    9cda:	48 83 c0 20          	add    $0x20,%rax
    9cde:	48 89 85 48 f6 ff ff 	mov    %rax,-0x9b8(%rbp)
    9ce5:	48 8d 85 70 f4 ff ff 	lea    -0xb90(%rbp),%rax
    9cec:	48 05 d8 00 00 00    	add    $0xd8,%rax
    9cf2:	48 89 85 50 f6 ff ff 	mov    %rax,-0x9b0(%rbp)
    9cf9:	48 8d 85 70 f4 ff ff 	lea    -0xb90(%rbp),%rax
    9d00:	48 05 d8 00 00 00    	add    $0xd8,%rax
    9d06:	48 89 85 58 f6 ff ff 	mov    %rax,-0x9a8(%rbp)
    9d0d:	48 8d 85 70 f4 ff ff 	lea    -0xb90(%rbp),%rax
    9d14:	48 83 c0 20          	add    $0x20,%rax
    9d18:	48 89 85 60 f6 ff ff 	mov    %rax,-0x9a0(%rbp)
    9d1f:	48 8d 85 70 f4 ff ff 	lea    -0xb90(%rbp),%rax
    9d26:	48 05 d8 00 00 00    	add    $0xd8,%rax
    9d2c:	48 89 85 68 f6 ff ff 	mov    %rax,-0x998(%rbp)
    9d33:	48 8d 85 70 f4 ff ff 	lea    -0xb90(%rbp),%rax
    9d3a:	48 05 d8 00 00 00    	add    $0xd8,%rax
    9d40:	48 89 85 70 f6 ff ff 	mov    %rax,-0x990(%rbp)
    9d47:	48 8d 85 70 f4 ff ff 	lea    -0xb90(%rbp),%rax
    9d4e:	48 83 c0 20          	add    $0x20,%rax
    9d52:	48 89 85 78 f6 ff ff 	mov    %rax,-0x988(%rbp)
    9d59:	48 8d 05 c0 86 00 00 	lea    0x86c0(%rip),%rax        # 12420 <g_181>
    9d60:	48 89 85 48 f3 ff ff 	mov    %rax,-0xcb8(%rbp)
    9d67:	c7 85 84 f2 ff ff e9 	movl   $0x24ebb3e9,-0xd7c(%rbp)
    9d6e:	b3 eb 24 
    9d71:	c6 85 69 f2 ff ff 00 	movb   $0x0,-0xd97(%rbp)
    9d78:	48 8d 05 95 7c 00 00 	lea    0x7c95(%rip),%rax        # 11a14 <g_671>
    9d7f:	48 89 85 b8 f2 ff ff 	mov    %rax,-0xd48(%rbp)
    9d86:	48 8d 85 b8 f2 ff ff 	lea    -0xd48(%rbp),%rax
    9d8d:	48 89 85 c0 f2 ff ff 	mov    %rax,-0xd40(%rbp)
    9d94:	48 8d 85 c0 f2 ff ff 	lea    -0xd40(%rbp),%rax
    9d9b:	48 89 85 50 f3 ff ff 	mov    %rax,-0xcb0(%rbp)
    9da2:	c7 85 78 f2 ff ff 00 	movl   $0x0,-0xd88(%rbp)
    9da9:	00 00 00 
    9dac:	eb 1e                	jmp    9dcc <func_44+0x657>
    9dae:	8b 85 78 f2 ff ff    	mov    -0xd88(%rbp),%eax
    9db4:	48 98                	cltq   
    9db6:	48 8d 15 fb 7a 00 00 	lea    0x7afb(%rip),%rdx        # 118b8 <g_535+0x38>
    9dbd:	48 89 94 c5 a0 f3 ff 	mov    %rdx,-0xc60(%rbp,%rax,8)
    9dc4:	ff 
    9dc5:	83 85 78 f2 ff ff 01 	addl   $0x1,-0xd88(%rbp)
    9dcc:	83 bd 78 f2 ff ff 02 	cmpl   $0x2,-0xd88(%rbp)
    9dd3:	7e d9                	jle    9dae <func_44+0x639>
    9dd5:	c7 85 78 f2 ff ff 00 	movl   $0x0,-0xd88(%rbp)
    9ddc:	00 00 00 
    9ddf:	eb 1b                	jmp    9dfc <func_44+0x687>
    9de1:	8b 85 78 f2 ff ff    	mov    -0xd88(%rbp),%eax
    9de7:	48 98                	cltq   
    9de9:	48 c7 84 c5 90 f3 ff 	movq   $0x0,-0xc70(%rbp,%rax,8)
    9df0:	ff 00 00 00 00 
    9df5:	83 85 78 f2 ff ff 01 	addl   $0x1,-0xd88(%rbp)
    9dfc:	83 bd 78 f2 ff ff 00 	cmpl   $0x0,-0xd88(%rbp)
    9e03:	7e dc                	jle    9de1 <func_44+0x66c>
    9e05:	48 83 bd 58 f2 ff ff 	cmpq   $0x0,-0xda8(%rbp)
    9e0c:	00 
    9e0d:	0f 94 c0             	sete   %al
    9e10:	0f b6 d8             	movzbl %al,%ebx
    9e13:	0f bf 85 54 f2 ff ff 	movswl -0xdac(%rbp),%eax
    9e1a:	48 8b 15 ef 72 00 00 	mov    0x72ef(%rip),%rdx        # 11110 <g_56>
    9e21:	89 c6                	mov    %eax,%esi
    9e23:	89 d7                	mov    %edx,%edi
    9e25:	e8 d5 a8 ff ff       	callq  46ff <safe_div_func_int32_t_s_s>
    9e2a:	0f b7 85 6c f2 ff ff 	movzwl -0xd94(%rbp),%eax
    9e31:	0f be c0             	movsbl %al,%eax
    9e34:	be 5a 00 00 00       	mov    $0x5a,%esi
    9e39:	89 c7                	mov    %eax,%edi
    9e3b:	e8 94 a3 ff ff       	callq  41d4 <safe_add_func_int8_t_s_s>
    9e40:	84 c0                	test   %al,%al
    9e42:	75 0e                	jne    9e52 <func_44+0x6dd>
    9e44:	48 8b 85 58 f2 ff ff 	mov    -0xda8(%rbp),%rax
    9e4b:	0f b6 00             	movzbl (%rax),%eax
    9e4e:	84 c0                	test   %al,%al
    9e50:	74 07                	je     9e59 <func_44+0x6e4>
    9e52:	b8 01 00 00 00       	mov    $0x1,%eax
    9e57:	eb 05                	jmp    9e5e <func_44+0x6e9>
    9e59:	b8 00 00 00 00       	mov    $0x0,%eax
    9e5e:	0f b7 d0             	movzwl %ax,%edx
    9e61:	0f bf 85 54 f2 ff ff 	movswl -0xdac(%rbp),%eax
    9e68:	89 d6                	mov    %edx,%esi
    9e6a:	89 c7                	mov    %eax,%edi
    9e6c:	e8 78 04 00 00       	callq  a2e9 <func_59>
    9e71:	48 39 c3             	cmp    %rax,%rbx
    9e74:	0f 97 c0             	seta   %al
    9e77:	0f b6 d0             	movzbl %al,%edx
    9e7a:	0f b6 05 bd 71 00 00 	movzbl 0x71bd(%rip),%eax        # 1103e <g_32+0xe>
    9e81:	0f be c0             	movsbl %al,%eax
    9e84:	39 c2                	cmp    %eax,%edx
    9e86:	0f 95 c0             	setne  %al
    9e89:	0f b6 c0             	movzbl %al,%eax
    9e8c:	89 c6                	mov    %eax,%esi
    9e8e:	bf f7 ff 00 00       	mov    $0xfff7,%edi
    9e93:	e8 87 ae ff ff       	callq  4d1f <safe_sub_func_uint16_t_u_u>
    9e98:	66 85 c0             	test   %ax,%ax
    9e9b:	74 62                	je     9eff <func_44+0x78a>
    9e9d:	48 8d 85 40 fa ff ff 	lea    -0x5c0(%rbp),%rax
    9ea4:	48 8d 15 b5 7f 00 00 	lea    0x7fb5(%rip),%rdx        # 11e60 <g_2212+0x208>
    9eab:	b9 b4 00 00 00       	mov    $0xb4,%ecx
    9eb0:	48 89 c7             	mov    %rax,%rdi
    9eb3:	48 89 d6             	mov    %rdx,%rsi
    9eb6:	f3 48 a5             	rep movsq %ds:(%rsi),%es:(%rdi)
    9eb9:	66 c7 85 54 f2 ff ff 	movw   $0xfffd,-0xdac(%rbp)
    9ec0:	fd ff 
    9ec2:	66 83 bd 54 f2 ff ff 	cmpw   $0xffe3,-0xdac(%rbp)
    9ec9:	e3 
    9eca:	7c 0c                	jl     9ed8 <func_44+0x763>
    9ecc:	48 8b 05 2d 85 00 00 	mov    0x852d(%rip),%rax        # 12400 <g_69>
    9ed3:	e9 f3 03 00 00       	jmpq   a2cb <func_44+0xb56>
    9ed8:	0f b6 85 68 f2 ff ff 	movzbl -0xd98(%rbp),%eax
    9edf:	83 e8 01             	sub    $0x1,%eax
    9ee2:	88 85 68 f2 ff ff    	mov    %al,-0xd98(%rbp)
    9ee8:	48 8b 15 11 85 00 00 	mov    0x8511(%rip),%rdx        # 12400 <g_69>
    9eef:	48 8b 05 0a 85 00 00 	mov    0x850a(%rip),%rax        # 12400 <g_69>
    9ef6:	8b 12                	mov    (%rdx),%edx
    9ef8:	89 10                	mov    %edx,(%rax)
    9efa:	e9 c2 03 00 00       	jmpq   a2c1 <func_44+0xb4c>
    9eff:	48 c7 85 c8 f2 ff ff 	movq   $0x0,-0xd38(%rbp)
    9f06:	00 00 00 00 
    9f0a:	48 8d 85 80 f6 ff ff 	lea    -0x980(%rbp),%rax
    9f11:	48 05 a8 01 00 00    	add    $0x1a8,%rax
    9f17:	48 89 85 40 fa ff ff 	mov    %rax,-0x5c0(%rbp)
    9f1e:	48 8d 85 80 f6 ff ff 	lea    -0x980(%rbp),%rax
    9f25:	48 05 a8 01 00 00    	add    $0x1a8,%rax
    9f2b:	48 89 85 48 fa ff ff 	mov    %rax,-0x5b8(%rbp)
    9f32:	48 8d 85 80 f6 ff ff 	lea    -0x980(%rbp),%rax
    9f39:	48 05 1c 01 00 00    	add    $0x11c,%rax
    9f3f:	48 89 85 50 fa ff ff 	mov    %rax,-0x5b0(%rbp)
    9f46:	48 8d 85 80 f6 ff ff 	lea    -0x980(%rbp),%rax
    9f4d:	48 05 a8 01 00 00    	add    $0x1a8,%rax
    9f53:	48 89 85 58 fa ff ff 	mov    %rax,-0x5a8(%rbp)
    9f5a:	48 8d 85 80 f6 ff ff 	lea    -0x980(%rbp),%rax
    9f61:	48 05 a8 01 00 00    	add    $0x1a8,%rax
    9f67:	48 89 85 60 fa ff ff 	mov    %rax,-0x5a0(%rbp)
    9f6e:	48 8d 85 80 f6 ff ff 	lea    -0x980(%rbp),%rax
    9f75:	48 05 1c 01 00 00    	add    $0x11c,%rax
    9f7b:	48 89 85 68 fa ff ff 	mov    %rax,-0x598(%rbp)
    9f82:	48 8d 85 80 f6 ff ff 	lea    -0x980(%rbp),%rax
    9f89:	48 05 a8 01 00 00    	add    $0x1a8,%rax
    9f8f:	48 89 85 70 fa ff ff 	mov    %rax,-0x590(%rbp)
    9f96:	48 8d 85 80 f6 ff ff 	lea    -0x980(%rbp),%rax
    9f9d:	48 05 a8 01 00 00    	add    $0x1a8,%rax
    9fa3:	48 89 85 78 fa ff ff 	mov    %rax,-0x588(%rbp)
    9faa:	48 8d 85 80 f6 ff ff 	lea    -0x980(%rbp),%rax
    9fb1:	48 05 1c 01 00 00    	add    $0x11c,%rax
    9fb7:	48 89 85 80 fa ff ff 	mov    %rax,-0x580(%rbp)
    9fbe:	48 8d 05 53 71 00 00 	lea    0x7153(%rip),%rax        # 11118 <g_70>
    9fc5:	48 89 85 88 fa ff ff 	mov    %rax,-0x578(%rbp)
    9fcc:	48 c7 85 90 fa ff ff 	movq   $0x0,-0x570(%rbp)
    9fd3:	00 00 00 00 
    9fd7:	48 c7 85 98 fa ff ff 	movq   $0x0,-0x568(%rbp)
    9fde:	00 00 00 00 
    9fe2:	48 c7 85 a0 fa ff ff 	movq   $0x0,-0x560(%rbp)
    9fe9:	00 00 00 00 
    9fed:	48 8d 05 24 71 00 00 	lea    0x7124(%rip),%rax        # 11118 <g_70>
    9ff4:	48 89 85 a8 fa ff ff 	mov    %rax,-0x558(%rbp)
    9ffb:	48 8d 85 80 f6 ff ff 	lea    -0x980(%rbp),%rax
    a002:	48 05 30 02 00 00    	add    $0x230,%rax
    a008:	48 89 85 b0 fa ff ff 	mov    %rax,-0x550(%rbp)
    a00f:	48 8d 05 02 71 00 00 	lea    0x7102(%rip),%rax        # 11118 <g_70>
    a016:	48 89 85 b8 fa ff ff 	mov    %rax,-0x548(%rbp)
    a01d:	48 c7 85 c0 fa ff ff 	movq   $0x0,-0x540(%rbp)
    a024:	00 00 00 00 
    a028:	48 c7 85 c8 fa ff ff 	movq   $0x0,-0x538(%rbp)
    a02f:	00 00 00 00 
    a033:	48 8d 85 80 f6 ff ff 	lea    -0x980(%rbp),%rax
    a03a:	48 05 a8 01 00 00    	add    $0x1a8,%rax
    a040:	48 89 85 d0 fa ff ff 	mov    %rax,-0x530(%rbp)
    a047:	48 8d 85 80 f6 ff ff 	lea    -0x980(%rbp),%rax
    a04e:	48 05 a8 01 00 00    	add    $0x1a8,%rax
    a054:	48 89 85 d8 fa ff ff 	mov    %rax,-0x528(%rbp)
    a05b:	48 8d 85 80 f6 ff ff 	lea    -0x980(%rbp),%rax
    a062:	48 05 1c 01 00 00    	add    $0x11c,%rax
    a068:	48 89 85 e0 fa ff ff 	mov    %rax,-0x520(%rbp)
    a06f:	48 8d 85 80 f6 ff ff 	lea    -0x980(%rbp),%rax
    a076:	48 05 a8 01 00 00    	add    $0x1a8,%rax
    a07c:	48 89 85 e8 fa ff ff 	mov    %rax,-0x518(%rbp)
    a083:	48 8d 85 80 f6 ff ff 	lea    -0x980(%rbp),%rax
    a08a:	48 05 a8 01 00 00    	add    $0x1a8,%rax
    a090:	48 89 85 f0 fa ff ff 	mov    %rax,-0x510(%rbp)
    a097:	48 8d 85 80 f6 ff ff 	lea    -0x980(%rbp),%rax
    a09e:	48 05 1c 01 00 00    	add    $0x11c,%rax
    a0a4:	48 89 85 f8 fa ff ff 	mov    %rax,-0x508(%rbp)
    a0ab:	48 8d 85 80 f6 ff ff 	lea    -0x980(%rbp),%rax
    a0b2:	48 05 a8 01 00 00    	add    $0x1a8,%rax
    a0b8:	48 89 85 00 fb ff ff 	mov    %rax,-0x500(%rbp)
    a0bf:	48 8d 85 80 f6 ff ff 	lea    -0x980(%rbp),%rax
    a0c6:	48 05 a8 01 00 00    	add    $0x1a8,%rax
    a0cc:	48 89 85 08 fb ff ff 	mov    %rax,-0x4f8(%rbp)
    a0d3:	48 8d 85 80 f6 ff ff 	lea    -0x980(%rbp),%rax
    a0da:	48 05 1c 01 00 00    	add    $0x11c,%rax
    a0e0:	48 89 85 10 fb ff ff 	mov    %rax,-0x4f0(%rbp)
    a0e7:	48 8d 05 2a 70 00 00 	lea    0x702a(%rip),%rax        # 11118 <g_70>
    a0ee:	48 89 85 18 fb ff ff 	mov    %rax,-0x4e8(%rbp)
    a0f5:	48 c7 85 20 fb ff ff 	movq   $0x0,-0x4e0(%rbp)
    a0fc:	00 00 00 00 
    a100:	48 c7 85 28 fb ff ff 	movq   $0x0,-0x4d8(%rbp)
    a107:	00 00 00 00 
    a10b:	48 c7 85 30 fb ff ff 	movq   $0x0,-0x4d0(%rbp)
    a112:	00 00 00 00 
    a116:	48 8d 05 fb 6f 00 00 	lea    0x6ffb(%rip),%rax        # 11118 <g_70>
    a11d:	48 89 85 38 fb ff ff 	mov    %rax,-0x4c8(%rbp)
    a124:	48 8d 85 80 f6 ff ff 	lea    -0x980(%rbp),%rax
    a12b:	48 05 30 02 00 00    	add    $0x230,%rax
    a131:	48 89 85 40 fb ff ff 	mov    %rax,-0x4c0(%rbp)
    a138:	48 8d 05 d9 6f 00 00 	lea    0x6fd9(%rip),%rax        # 11118 <g_70>
    a13f:	48 89 85 48 fb ff ff 	mov    %rax,-0x4b8(%rbp)
    a146:	48 c7 85 50 fb ff ff 	movq   $0x0,-0x4b0(%rbp)
    a14d:	00 00 00 00 
    a151:	48 c7 85 58 fb ff ff 	movq   $0x0,-0x4a8(%rbp)
    a158:	00 00 00 00 
    a15c:	c7 85 70 f2 ff ff 52 	movl   $0x4ff48d52,-0xd90(%rbp)
    a163:	8d f4 4f 
    a166:	c7 85 74 f2 ff ff 90 	movl   $0x5bb51090,-0xd8c(%rbp)
    a16d:	10 b5 5b 
    a170:	48 8d 85 f0 f3 ff ff 	lea    -0xc10(%rbp),%rax
    a177:	48 83 c0 18          	add    $0x18,%rax
    a17b:	48 89 85 d0 f2 ff ff 	mov    %rax,-0xd30(%rbp)
    a182:	48 8d 85 d0 f2 ff ff 	lea    -0xd30(%rbp),%rax
    a189:	48 89 85 58 f3 ff ff 	mov    %rax,-0xca8(%rbp)
    a190:	c7 85 88 f2 ff ff f3 	movl   $0xba7749f3,-0xd78(%rbp)
    a197:	49 77 ba 
    a19a:	48 8d 05 77 82 00 00 	lea    0x8277(%rip),%rax        # 12418 <g_137>
    a1a1:	48 89 85 d8 f2 ff ff 	mov    %rax,-0xd28(%rbp)
    a1a8:	48 8d 85 d8 f2 ff ff 	lea    -0xd28(%rbp),%rax
    a1af:	48 89 85 60 f3 ff ff 	mov    %rax,-0xca0(%rbp)
    a1b6:	48 8d 05 5b 6f 00 00 	lea    0x6f5b(%rip),%rax        # 11118 <g_70>
    a1bd:	48 89 85 68 f3 ff ff 	mov    %rax,-0xc98(%rbp)
    a1c4:	c7 45 e3 be be be be 	movl   $0xbebebebe,-0x1d(%rbp)
    a1cb:	c6 45 e7 be          	movb   $0xbe,-0x19(%rbp)
    a1cf:	c6 85 6a f2 ff ff 52 	movb   $0x52,-0xd96(%rbp)
    a1d6:	c6 85 6b f2 ff ff ff 	movb   $0xff,-0xd95(%rbp)
    a1dd:	c7 85 8c f2 ff ff 82 	movl   $0x1a384f82,-0xd74(%rbp)
    a1e4:	4f 38 1a 
    a1e7:	48 c7 85 70 f3 ff ff 	movq   $0x0,-0xc90(%rbp)
    a1ee:	00 00 00 00 
    a1f2:	48 8d 85 a8 f2 ff ff 	lea    -0xd58(%rbp),%rax
    a1f9:	48 89 85 78 f3 ff ff 	mov    %rax,-0xc88(%rbp)
    a200:	48 8d 05 5d 6f 00 00 	lea    0x6f5d(%rip),%rax        # 11164 <g_79+0x24>
    a207:	48 89 85 80 f3 ff ff 	mov    %rax,-0xc80(%rbp)
    a20e:	48 c7 85 88 f3 ff ff 	movq   $0x0,-0xc78(%rbp)
    a215:	00 00 00 00 
    a219:	c7 85 7c f2 ff ff 00 	movl   $0x0,-0xd84(%rbp)
    a220:	00 00 00 
    a223:	eb 1e                	jmp    a243 <func_44+0xace>
    a225:	8b 85 7c f2 ff ff    	mov    -0xd84(%rbp),%eax
    a22b:	48 98                	cltq   
    a22d:	48 8d 95 c8 f2 ff ff 	lea    -0xd38(%rbp),%rdx
    a234:	48 89 94 c5 98 f3 ff 	mov    %rdx,-0xc68(%rbp,%rax,8)
    a23b:	ff 
    a23c:	83 85 7c f2 ff ff 01 	addl   $0x1,-0xd84(%rbp)
    a243:	83 bd 7c f2 ff ff 00 	cmpl   $0x0,-0xd84(%rbp)
    a24a:	7e d9                	jle    a225 <func_44+0xab0>
    a24c:	c7 85 7c f2 ff ff 00 	movl   $0x0,-0xd84(%rbp)
    a253:	00 00 00 
    a256:	eb 1e                	jmp    a276 <func_44+0xb01>
    a258:	8b 85 7c f2 ff ff    	mov    -0xd84(%rbp),%eax
    a25e:	48 98                	cltq   
    a260:	48 8d 95 90 f2 ff ff 	lea    -0xd70(%rbp),%rdx
    a267:	48 89 94 c5 f0 f3 ff 	mov    %rdx,-0xc10(%rbp,%rax,8)
    a26e:	ff 
    a26f:	83 85 7c f2 ff ff 01 	addl   $0x1,-0xd84(%rbp)
    a276:	83 bd 7c f2 ff ff 04 	cmpl   $0x4,-0xd84(%rbp)
    a27d:	7e d9                	jle    a258 <func_44+0xae3>
    a27f:	c7 85 7c f2 ff ff 00 	movl   $0x0,-0xd84(%rbp)
    a286:	00 00 00 
    a289:	eb 1e                	jmp    a2a9 <func_44+0xb34>
    a28b:	8b 85 7c f2 ff ff    	mov    -0xd84(%rbp),%eax
    a291:	48 98                	cltq   
    a293:	48 8d 15 6e 81 00 00 	lea    0x816e(%rip),%rdx        # 12408 <g_126>
    a29a:	48 89 94 c5 20 f4 ff 	mov    %rdx,-0xbe0(%rbp,%rax,8)
    a2a1:	ff 
    a2a2:	83 85 7c f2 ff ff 01 	addl   $0x1,-0xd84(%rbp)
    a2a9:	83 bd 7c f2 ff ff 08 	cmpl   $0x8,-0xd84(%rbp)
    a2b0:	7e d9                	jle    a28b <func_44+0xb16>
    a2b2:	8b 05 a4 6e 00 00    	mov    0x6ea4(%rip),%eax        # 1115c <g_79+0x1c>
    a2b8:	83 e8 01             	sub    $0x1,%eax
    a2bb:	89 05 9b 6e 00 00    	mov    %eax,0x6e9b(%rip)        # 1115c <g_79+0x1c>
    a2c1:	48 8b 85 e8 f2 ff ff 	mov    -0xd18(%rbp),%rax
    a2c8:	48 8b 00             	mov    (%rax),%rax
    a2cb:	48 8b 5d e8          	mov    -0x18(%rbp),%rbx
    a2cf:	64 48 33 1c 25 28 00 	xor    %fs:0x28,%rbx
    a2d6:	00 00 
    a2d8:	74 05                	je     a2df <func_44+0xb6a>
    a2da:	e8 91 9d ff ff       	callq  4070 <__stack_chk_fail@plt>
    a2df:	48 81 c4 a8 0d 00 00 	add    $0xda8,%rsp
    a2e6:	5b                   	pop    %rbx
    a2e7:	5d                   	pop    %rbp
    a2e8:	c3                   	retq   

000000000000a2e9 <func_59>:
    a2e9:	f3 0f 1e fa          	endbr64 
    a2ed:	55                   	push   %rbp
    a2ee:	48 89 e5             	mov    %rsp,%rbp
    a2f1:	89 7d fc             	mov    %edi,-0x4(%rbp)
    a2f4:	89 f0                	mov    %esi,%eax
    a2f6:	66 89 45 f8          	mov    %ax,-0x8(%rbp)
    a2fa:	8b 45 fc             	mov    -0x4(%rbp),%eax
    a2fd:	48 98                	cltq   
    a2ff:	5d                   	pop    %rbp
    a300:	c3                   	retq   

000000000000a301 <main>:
    a301:	f3 0f 1e fa          	endbr64 
    a305:	55                   	push   %rbp
    a306:	48 89 e5             	mov    %rsp,%rbp
    a309:	48 83 ec 20          	sub    $0x20,%rsp
    a30d:	89 7d ec             	mov    %edi,-0x14(%rbp)
    a310:	48 89 75 e0          	mov    %rsi,-0x20(%rbp)
    a314:	c7 45 fc 00 00 00 00 	movl   $0x0,-0x4(%rbp)
    a31b:	83 7d ec 02          	cmpl   $0x2,-0x14(%rbp)
    a31f:	75 25                	jne    a346 <main+0x45>
    a321:	48 8b 45 e0          	mov    -0x20(%rbp),%rax
    a325:	48 83 c0 08          	add    $0x8,%rax
    a329:	48 8b 00             	mov    (%rax),%rax
    a32c:	48 8d 35 8d 32 00 00 	lea    0x328d(%rip),%rsi        # d5c0 <g_2250+0x154f>
    a333:	48 89 c7             	mov    %rax,%rdi
    a336:	e8 55 9d ff ff       	callq  4090 <strcmp@plt>
    a33b:	85 c0                	test   %eax,%eax
    a33d:	75 07                	jne    a346 <main+0x45>
    a33f:	c7 45 fc 01 00 00 00 	movl   $0x1,-0x4(%rbp)
    a346:	e8 3e 9e ff ff       	callq  4189 <platform_main_begin>
    a34b:	e8 48 b2 ff ff       	callq  5598 <crc32_gentab>
    a350:	e8 60 b4 ff ff       	callq  57b5 <func_1>
    a355:	0f b6 05 c8 6c 00 00 	movzbl 0x6cc8(%rip),%eax        # 11024 <g_7>
    a35c:	48 0f be c0          	movsbq %al,%rax
    a360:	8b 55 fc             	mov    -0x4(%rbp),%edx
    a363:	48 8d 35 58 32 00 00 	lea    0x3258(%rip),%rsi        # d5c2 <g_2250+0x1551>
    a36a:	48 89 c7             	mov    %rax,%rdi
    a36d:	e8 81 b3 ff ff       	callq  56f3 <transparent_crc>
    a372:	c7 45 f0 00 00 00 00 	movl   $0x0,-0x10(%rbp)
    a379:	eb 72                	jmp    a3ed <main+0xec>
    a37b:	c7 45 f4 00 00 00 00 	movl   $0x0,-0xc(%rbp)
    a382:	eb 5f                	jmp    a3e3 <main+0xe2>
    a384:	8b 45 f4             	mov    -0xc(%rbp),%eax
    a387:	48 63 c8             	movslq %eax,%rcx
    a38a:	8b 45 f0             	mov    -0x10(%rbp),%eax
    a38d:	48 63 d0             	movslq %eax,%rdx
    a390:	48 89 d0             	mov    %rdx,%rax
    a393:	48 01 c0             	add    %rax,%rax
    a396:	48 01 d0             	add    %rdx,%rax
    a399:	48 8d 14 08          	lea    (%rax,%rcx,1),%rdx
    a39d:	48 8d 05 8c 6c 00 00 	lea    0x6c8c(%rip),%rax        # 11030 <g_32>
    a3a4:	48 01 d0             	add    %rdx,%rax
    a3a7:	0f b6 00             	movzbl (%rax),%eax
    a3aa:	48 0f be c0          	movsbq %al,%rax
    a3ae:	8b 55 fc             	mov    -0x4(%rbp),%edx
    a3b1:	48 8d 35 0e 32 00 00 	lea    0x320e(%rip),%rsi        # d5c6 <g_2250+0x1555>
    a3b8:	48 89 c7             	mov    %rax,%rdi
    a3bb:	e8 33 b3 ff ff       	callq  56f3 <transparent_crc>
    a3c0:	83 7d fc 00          	cmpl   $0x0,-0x4(%rbp)
    a3c4:	74 19                	je     a3df <main+0xde>
    a3c6:	8b 55 f4             	mov    -0xc(%rbp),%edx
    a3c9:	8b 45 f0             	mov    -0x10(%rbp),%eax
    a3cc:	89 c6                	mov    %eax,%esi
    a3ce:	48 8d 3d fc 31 00 00 	lea    0x31fc(%rip),%rdi        # d5d1 <g_2250+0x1560>
    a3d5:	b8 00 00 00 00       	mov    $0x0,%eax
    a3da:	e8 a1 9c ff ff       	callq  4080 <printf@plt>
    a3df:	83 45 f4 01          	addl   $0x1,-0xc(%rbp)
    a3e3:	83 7d f4 02          	cmpl   $0x2,-0xc(%rbp)
    a3e7:	7e 9b                	jle    a384 <main+0x83>
    a3e9:	83 45 f0 01          	addl   $0x1,-0x10(%rbp)
    a3ed:	83 7d f0 06          	cmpl   $0x6,-0x10(%rbp)
    a3f1:	7e 88                	jle    a37b <main+0x7a>
    a3f3:	c7 45 f0 00 00 00 00 	movl   $0x0,-0x10(%rbp)
    a3fa:	e9 95 00 00 00       	jmpq   a494 <main+0x193>
    a3ff:	c7 45 f4 00 00 00 00 	movl   $0x0,-0xc(%rbp)
    a406:	eb 7e                	jmp    a486 <main+0x185>
    a408:	c7 45 f8 00 00 00 00 	movl   $0x0,-0x8(%rbp)
    a40f:	eb 6b                	jmp    a47c <main+0x17b>
    a411:	8b 45 f8             	mov    -0x8(%rbp),%eax
    a414:	48 63 c8             	movslq %eax,%rcx
    a417:	8b 45 f0             	mov    -0x10(%rbp),%eax
    a41a:	48 63 d0             	movslq %eax,%rdx
    a41d:	8b 45 f4             	mov    -0xc(%rbp),%eax
    a420:	48 98                	cltq   
    a422:	48 01 c2             	add    %rax,%rdx
    a425:	48 89 d0             	mov    %rdx,%rax
    a428:	48 01 c0             	add    %rax,%rax
    a42b:	48 01 d0             	add    %rdx,%rax
    a42e:	48 01 c8             	add    %rcx,%rax
    a431:	48 8d 14 c5 00 00 00 	lea    0x0(,%rax,8),%rdx
    a438:	00 
    a439:	48 8d 05 20 6c 00 00 	lea    0x6c20(%rip),%rax        # 11060 <g_52>
    a440:	48 8b 04 02          	mov    (%rdx,%rax,1),%rax
    a444:	8b 55 fc             	mov    -0x4(%rbp),%edx
    a447:	48 8d 35 95 31 00 00 	lea    0x3195(%rip),%rsi        # d5e3 <g_2250+0x1572>
    a44e:	48 89 c7             	mov    %rax,%rdi
    a451:	e8 9d b2 ff ff       	callq  56f3 <transparent_crc>
    a456:	83 7d fc 00          	cmpl   $0x0,-0x4(%rbp)
    a45a:	74 1c                	je     a478 <main+0x177>
    a45c:	8b 4d f8             	mov    -0x8(%rbp),%ecx
    a45f:	8b 55 f4             	mov    -0xc(%rbp),%edx
    a462:	8b 45 f0             	mov    -0x10(%rbp),%eax
    a465:	89 c6                	mov    %eax,%esi
    a467:	48 8d 3d 83 31 00 00 	lea    0x3183(%rip),%rdi        # d5f1 <g_2250+0x1580>
    a46e:	b8 00 00 00 00       	mov    $0x0,%eax
    a473:	e8 08 9c ff ff       	callq  4080 <printf@plt>
    a478:	83 45 f8 01          	addl   $0x1,-0x8(%rbp)
    a47c:	83 7d f8 02          	cmpl   $0x2,-0x8(%rbp)
    a480:	7e 8f                	jle    a411 <main+0x110>
    a482:	83 45 f4 01          	addl   $0x1,-0xc(%rbp)
    a486:	83 7d f4 00          	cmpl   $0x0,-0xc(%rbp)
    a48a:	0f 8e 78 ff ff ff    	jle    a408 <main+0x107>
    a490:	83 45 f0 01          	addl   $0x1,-0x10(%rbp)
    a494:	83 7d f0 06          	cmpl   $0x6,-0x10(%rbp)
    a498:	0f 8e 61 ff ff ff    	jle    a3ff <main+0xfe>
    a49e:	48 8b 05 63 6c 00 00 	mov    0x6c63(%rip),%rax        # 11108 <g_54>
    a4a5:	48 89 c1             	mov    %rax,%rcx
    a4a8:	8b 45 fc             	mov    -0x4(%rbp),%eax
    a4ab:	89 c2                	mov    %eax,%edx
    a4ad:	48 8d 35 53 31 00 00 	lea    0x3153(%rip),%rsi        # d607 <g_2250+0x1596>
    a4b4:	48 89 cf             	mov    %rcx,%rdi
    a4b7:	e8 37 b2 ff ff       	callq  56f3 <transparent_crc>
    a4bc:	48 8b 05 4d 6c 00 00 	mov    0x6c4d(%rip),%rax        # 11110 <g_56>
    a4c3:	48 89 c1             	mov    %rax,%rcx
    a4c6:	8b 45 fc             	mov    -0x4(%rbp),%eax
    a4c9:	89 c2                	mov    %eax,%edx
    a4cb:	48 8d 35 3a 31 00 00 	lea    0x313a(%rip),%rsi        # d60c <g_2250+0x159b>
    a4d2:	48 89 cf             	mov    %rcx,%rdi
    a4d5:	e8 19 b2 ff ff       	callq  56f3 <transparent_crc>
    a4da:	8b 05 38 6c 00 00    	mov    0x6c38(%rip),%eax        # 11118 <g_70>
    a4e0:	48 98                	cltq   
    a4e2:	8b 55 fc             	mov    -0x4(%rbp),%edx
    a4e5:	48 8d 35 25 31 00 00 	lea    0x3125(%rip),%rsi        # d611 <g_2250+0x15a0>
    a4ec:	48 89 c7             	mov    %rax,%rdi
    a4ef:	e8 ff b1 ff ff       	callq  56f3 <transparent_crc>
    a4f4:	48 8b 05 25 6c 00 00 	mov    0x6c25(%rip),%rax        # 11120 <g_72>
    a4fb:	48 89 c1             	mov    %rax,%rcx
    a4fe:	8b 45 fc             	mov    -0x4(%rbp),%eax
    a501:	89 c2                	mov    %eax,%edx
    a503:	48 8d 35 0c 31 00 00 	lea    0x310c(%rip),%rsi        # d616 <g_2250+0x15a5>
    a50a:	48 89 cf             	mov    %rcx,%rdi
    a50d:	e8 e1 b1 ff ff       	callq  56f3 <transparent_crc>
    a512:	c7 45 f0 00 00 00 00 	movl   $0x0,-0x10(%rbp)
    a519:	eb 77                	jmp    a592 <main+0x291>
    a51b:	c7 45 f4 00 00 00 00 	movl   $0x0,-0xc(%rbp)
    a522:	eb 64                	jmp    a588 <main+0x287>
    a524:	8b 45 f4             	mov    -0xc(%rbp),%eax
    a527:	48 63 c8             	movslq %eax,%rcx
    a52a:	8b 45 f0             	mov    -0x10(%rbp),%eax
    a52d:	48 63 d0             	movslq %eax,%rdx
    a530:	48 89 d0             	mov    %rdx,%rax
    a533:	48 c1 e0 03          	shl    $0x3,%rax
    a537:	48 29 d0             	sub    %rdx,%rax
    a53a:	48 01 c8             	add    %rcx,%rax
    a53d:	48 8d 14 85 00 00 00 	lea    0x0(,%rax,4),%rdx
    a544:	00 
    a545:	48 8d 05 f4 6b 00 00 	lea    0x6bf4(%rip),%rax        # 11140 <g_79>
    a54c:	8b 04 02             	mov    (%rdx,%rax,1),%eax
    a54f:	89 c1                	mov    %eax,%ecx
    a551:	8b 45 fc             	mov    -0x4(%rbp),%eax
    a554:	89 c2                	mov    %eax,%edx
    a556:	48 8d 35 be 30 00 00 	lea    0x30be(%rip),%rsi        # d61b <g_2250+0x15aa>
    a55d:	48 89 cf             	mov    %rcx,%rdi
    a560:	e8 8e b1 ff ff       	callq  56f3 <transparent_crc>
    a565:	83 7d fc 00          	cmpl   $0x0,-0x4(%rbp)
    a569:	74 19                	je     a584 <main+0x283>
    a56b:	8b 55 f4             	mov    -0xc(%rbp),%edx
    a56e:	8b 45 f0             	mov    -0x10(%rbp),%eax
    a571:	89 c6                	mov    %eax,%esi
    a573:	48 8d 3d 57 30 00 00 	lea    0x3057(%rip),%rdi        # d5d1 <g_2250+0x1560>
    a57a:	b8 00 00 00 00       	mov    $0x0,%eax
    a57f:	e8 fc 9a ff ff       	callq  4080 <printf@plt>
    a584:	83 45 f4 01          	addl   $0x1,-0xc(%rbp)
    a588:	83 7d f4 06          	cmpl   $0x6,-0xc(%rbp)
    a58c:	7e 96                	jle    a524 <main+0x223>
    a58e:	83 45 f0 01          	addl   $0x1,-0x10(%rbp)
    a592:	83 7d f0 07          	cmpl   $0x7,-0x10(%rbp)
    a596:	7e 83                	jle    a51b <main+0x21a>
    a598:	0f b7 05 81 6c 00 00 	movzwl 0x6c81(%rip),%eax        # 11220 <g_96>
    a59f:	48 0f bf c0          	movswq %ax,%rax
    a5a3:	8b 55 fc             	mov    -0x4(%rbp),%edx
    a5a6:	48 8d 35 79 30 00 00 	lea    0x3079(%rip),%rsi        # d626 <g_2250+0x15b5>
    a5ad:	48 89 c7             	mov    %rax,%rdi
    a5b0:	e8 3e b1 ff ff       	callq  56f3 <transparent_crc>
    a5b5:	0f b6 05 66 6c 00 00 	movzbl 0x6c66(%rip),%eax        # 11222 <g_116>
    a5bc:	0f b6 c0             	movzbl %al,%eax
    a5bf:	8b 55 fc             	mov    -0x4(%rbp),%edx
    a5c2:	48 8d 35 62 30 00 00 	lea    0x3062(%rip),%rsi        # d62b <g_2250+0x15ba>
    a5c9:	48 89 c7             	mov    %rax,%rdi
    a5cc:	e8 22 b1 ff ff       	callq  56f3 <transparent_crc>
    a5d1:	8b 05 91 8f 00 00    	mov    0x8f91(%rip),%eax        # 13568 <g_117>
    a5d7:	48 98                	cltq   
    a5d9:	8b 55 fc             	mov    -0x4(%rbp),%edx
    a5dc:	48 8d 35 4e 30 00 00 	lea    0x304e(%rip),%rsi        # d631 <g_2250+0x15c0>
    a5e3:	48 89 c7             	mov    %rax,%rdi
    a5e6:	e8 08 b1 ff ff       	callq  56f3 <transparent_crc>
    a5eb:	8b 05 33 6c 00 00    	mov    0x6c33(%rip),%eax        # 11224 <g_119>
    a5f1:	89 c1                	mov    %eax,%ecx
    a5f3:	8b 45 fc             	mov    -0x4(%rbp),%eax
    a5f6:	89 c2                	mov    %eax,%edx
    a5f8:	48 8d 35 38 30 00 00 	lea    0x3038(%rip),%rsi        # d637 <g_2250+0x15c6>
    a5ff:	48 89 cf             	mov    %rcx,%rdi
    a602:	e8 ec b0 ff ff       	callq  56f3 <transparent_crc>
    a607:	48 8b 05 1a 6c 00 00 	mov    0x6c1a(%rip),%rax        # 11228 <g_124>
    a60e:	25 ff ff 7f 00       	and    $0x7fffff,%eax
    a613:	89 c1                	mov    %eax,%ecx
    a615:	8b 45 fc             	mov    -0x4(%rbp),%eax
    a618:	89 c2                	mov    %eax,%edx
    a61a:	48 8d 35 1c 30 00 00 	lea    0x301c(%rip),%rsi        # d63d <g_2250+0x15cc>
    a621:	48 89 cf             	mov    %rcx,%rdi
    a624:	e8 ca b0 ff ff       	callq  56f3 <transparent_crc>
    a629:	48 8b 05 00 6c 00 00 	mov    0x6c00(%rip),%rax        # 11230 <g_159>
    a630:	25 ff ff 7f 00       	and    $0x7fffff,%eax
    a635:	89 c1                	mov    %eax,%ecx
    a637:	8b 45 fc             	mov    -0x4(%rbp),%eax
    a63a:	89 c2                	mov    %eax,%edx
    a63c:	48 8d 35 03 30 00 00 	lea    0x3003(%rip),%rsi        # d646 <g_2250+0x15d5>
    a643:	48 89 cf             	mov    %rcx,%rdi
    a646:	e8 a8 b0 ff ff       	callq  56f3 <transparent_crc>
    a64b:	b8 fb ff ff ff       	mov    $0xfffffffb,%eax
    a650:	89 c1                	mov    %eax,%ecx
    a652:	8b 45 fc             	mov    -0x4(%rbp),%eax
    a655:	89 c2                	mov    %eax,%edx
    a657:	48 8d 35 f1 2f 00 00 	lea    0x2ff1(%rip),%rsi        # d64f <g_2250+0x15de>
    a65e:	48 89 cf             	mov    %rcx,%rdi
    a661:	e8 8d b0 ff ff       	callq  56f3 <transparent_crc>
    a666:	0f b6 05 e7 19 00 00 	movzbl 0x19e7(%rip),%eax        # c054 <g_174>
    a66d:	0f b6 c0             	movzbl %al,%eax
    a670:	8b 55 fc             	mov    -0x4(%rbp),%edx
    a673:	48 8d 35 de 2f 00 00 	lea    0x2fde(%rip),%rsi        # d658 <g_2250+0x15e7>
    a67a:	48 89 c7             	mov    %rax,%rdi
    a67d:	e8 71 b0 ff ff       	callq  56f3 <transparent_crc>
    a682:	b8 fb ff ff ff       	mov    $0xfffffffb,%eax
    a687:	89 c1                	mov    %eax,%ecx
    a689:	8b 45 fc             	mov    -0x4(%rbp),%eax
    a68c:	89 c2                	mov    %eax,%edx
    a68e:	48 8d 35 cc 2f 00 00 	lea    0x2fcc(%rip),%rsi        # d661 <g_2250+0x15f0>
    a695:	48 89 cf             	mov    %rcx,%rdi
    a698:	e8 56 b0 ff ff       	callq  56f3 <transparent_crc>
    a69d:	b8 fb ff ff ff       	mov    $0xfffffffb,%eax
    a6a2:	48 0f be c0          	movsbq %al,%rax
    a6a6:	8b 55 fc             	mov    -0x4(%rbp),%edx
    a6a9:	48 8d 35 ba 2f 00 00 	lea    0x2fba(%rip),%rsi        # d66a <g_2250+0x15f9>
    a6b0:	48 89 c7             	mov    %rax,%rdi
    a6b3:	e8 3b b0 ff ff       	callq  56f3 <transparent_crc>
    a6b8:	b8 fb ff ff ff       	mov    $0xfffffffb,%eax
    a6bd:	0f b7 c0             	movzwl %ax,%eax
    a6c0:	8b 55 fc             	mov    -0x4(%rbp),%edx
    a6c3:	48 8d 35 a9 2f 00 00 	lea    0x2fa9(%rip),%rsi        # d673 <g_2250+0x1602>
    a6ca:	48 89 c7             	mov    %rax,%rdi
    a6cd:	e8 21 b0 ff ff       	callq  56f3 <transparent_crc>
    a6d2:	0f b6 05 5f 6b 00 00 	movzbl 0x6b5f(%rip),%eax        # 11238 <g_210>
    a6d9:	0f b6 c0             	movzbl %al,%eax
    a6dc:	8b 55 fc             	mov    -0x4(%rbp),%edx
    a6df:	48 8d 35 96 2f 00 00 	lea    0x2f96(%rip),%rsi        # d67c <g_2250+0x160b>
    a6e6:	48 89 c7             	mov    %rax,%rdi
    a6e9:	e8 05 b0 ff ff       	callq  56f3 <transparent_crc>
    a6ee:	c7 45 f0 00 00 00 00 	movl   $0x0,-0x10(%rbp)
    a6f5:	e9 60 01 00 00       	jmpq   a85a <main+0x559>
    a6fa:	c7 45 f4 00 00 00 00 	movl   $0x0,-0xc(%rbp)
    a701:	e9 46 01 00 00       	jmpq   a84c <main+0x54b>
    a706:	8b 45 f4             	mov    -0xc(%rbp),%eax
    a709:	48 98                	cltq   
    a70b:	8b 55 f0             	mov    -0x10(%rbp),%edx
    a70e:	48 63 d2             	movslq %edx,%rdx
    a711:	48 c1 e2 03          	shl    $0x3,%rdx
    a715:	48 01 d0             	add    %rdx,%rax
    a718:	48 8d 14 85 00 00 00 	lea    0x0(,%rax,4),%rdx
    a71f:	00 
    a720:	48 8d 05 19 6b 00 00 	lea    0x6b19(%rip),%rax        # 11240 <g_221>
    a727:	8b 04 02             	mov    (%rdx,%rax,1),%eax
    a72a:	89 c1                	mov    %eax,%ecx
    a72c:	8b 45 fc             	mov    -0x4(%rbp),%eax
    a72f:	89 c2                	mov    %eax,%edx
    a731:	48 8d 35 4d 2f 00 00 	lea    0x2f4d(%rip),%rsi        # d685 <g_2250+0x1614>
    a738:	48 89 cf             	mov    %rcx,%rdi
    a73b:	e8 b3 af ff ff       	callq  56f3 <transparent_crc>
    a740:	8b 45 f4             	mov    -0xc(%rbp),%eax
    a743:	48 98                	cltq   
    a745:	8b 55 f0             	mov    -0x10(%rbp),%edx
    a748:	48 63 d2             	movslq %edx,%rdx
    a74b:	48 c1 e2 03          	shl    $0x3,%rdx
    a74f:	48 01 d0             	add    %rdx,%rax
    a752:	48 8d 14 85 00 00 00 	lea    0x0(,%rax,4),%rdx
    a759:	00 
    a75a:	48 8d 05 df 6a 00 00 	lea    0x6adf(%rip),%rax        # 11240 <g_221>
    a761:	0f b6 04 02          	movzbl (%rdx,%rax,1),%eax
    a765:	0f b6 c0             	movzbl %al,%eax
    a768:	8b 55 fc             	mov    -0x4(%rbp),%edx
    a76b:	48 8d 35 22 2f 00 00 	lea    0x2f22(%rip),%rsi        # d694 <g_2250+0x1623>
    a772:	48 89 c7             	mov    %rax,%rdi
    a775:	e8 79 af ff ff       	callq  56f3 <transparent_crc>
    a77a:	8b 45 f4             	mov    -0xc(%rbp),%eax
    a77d:	48 98                	cltq   
    a77f:	8b 55 f0             	mov    -0x10(%rbp),%edx
    a782:	48 63 d2             	movslq %edx,%rdx
    a785:	48 c1 e2 03          	shl    $0x3,%rdx
    a789:	48 01 d0             	add    %rdx,%rax
    a78c:	48 8d 14 85 00 00 00 	lea    0x0(,%rax,4),%rdx
    a793:	00 
    a794:	48 8d 05 a5 6a 00 00 	lea    0x6aa5(%rip),%rax        # 11240 <g_221>
    a79b:	8b 04 02             	mov    (%rdx,%rax,1),%eax
    a79e:	89 c1                	mov    %eax,%ecx
    a7a0:	8b 45 fc             	mov    -0x4(%rbp),%eax
    a7a3:	89 c2                	mov    %eax,%edx
    a7a5:	48 8d 35 f7 2e 00 00 	lea    0x2ef7(%rip),%rsi        # d6a3 <g_2250+0x1632>
    a7ac:	48 89 cf             	mov    %rcx,%rdi
    a7af:	e8 3f af ff ff       	callq  56f3 <transparent_crc>
    a7b4:	8b 45 f4             	mov    -0xc(%rbp),%eax
    a7b7:	48 98                	cltq   
    a7b9:	8b 55 f0             	mov    -0x10(%rbp),%edx
    a7bc:	48 63 d2             	movslq %edx,%rdx
    a7bf:	48 c1 e2 03          	shl    $0x3,%rdx
    a7c3:	48 01 d0             	add    %rdx,%rax
    a7c6:	48 8d 14 85 00 00 00 	lea    0x0(,%rax,4),%rdx
    a7cd:	00 
    a7ce:	48 8d 05 6b 6a 00 00 	lea    0x6a6b(%rip),%rax        # 11240 <g_221>
    a7d5:	0f b6 04 02          	movzbl (%rdx,%rax,1),%eax
    a7d9:	48 0f be c0          	movsbq %al,%rax
    a7dd:	8b 55 fc             	mov    -0x4(%rbp),%edx
    a7e0:	48 8d 35 cb 2e 00 00 	lea    0x2ecb(%rip),%rsi        # d6b2 <g_2250+0x1641>
    a7e7:	48 89 c7             	mov    %rax,%rdi
    a7ea:	e8 04 af ff ff       	callq  56f3 <transparent_crc>
    a7ef:	8b 45 f4             	mov    -0xc(%rbp),%eax
    a7f2:	48 98                	cltq   
    a7f4:	8b 55 f0             	mov    -0x10(%rbp),%edx
    a7f7:	48 63 d2             	movslq %edx,%rdx
    a7fa:	48 c1 e2 03          	shl    $0x3,%rdx
    a7fe:	48 01 d0             	add    %rdx,%rax
    a801:	48 8d 14 85 00 00 00 	lea    0x0(,%rax,4),%rdx
    a808:	00 
    a809:	48 8d 05 30 6a 00 00 	lea    0x6a30(%rip),%rax        # 11240 <g_221>
    a810:	0f b7 04 02          	movzwl (%rdx,%rax,1),%eax
    a814:	0f b7 c0             	movzwl %ax,%eax
    a817:	8b 55 fc             	mov    -0x4(%rbp),%edx
    a81a:	48 8d 35 a0 2e 00 00 	lea    0x2ea0(%rip),%rsi        # d6c1 <g_2250+0x1650>
    a821:	48 89 c7             	mov    %rax,%rdi
    a824:	e8 ca ae ff ff       	callq  56f3 <transparent_crc>
    a829:	83 7d fc 00          	cmpl   $0x0,-0x4(%rbp)
    a82d:	74 19                	je     a848 <main+0x547>
    a82f:	8b 55 f4             	mov    -0xc(%rbp),%edx
    a832:	8b 45 f0             	mov    -0x10(%rbp),%eax
    a835:	89 c6                	mov    %eax,%esi
    a837:	48 8d 3d 93 2d 00 00 	lea    0x2d93(%rip),%rdi        # d5d1 <g_2250+0x1560>
    a83e:	b8 00 00 00 00       	mov    $0x0,%eax
    a843:	e8 38 98 ff ff       	callq  4080 <printf@plt>
    a848:	83 45 f4 01          	addl   $0x1,-0xc(%rbp)
    a84c:	83 7d f4 07          	cmpl   $0x7,-0xc(%rbp)
    a850:	0f 8e b0 fe ff ff    	jle    a706 <main+0x405>
    a856:	83 45 f0 01          	addl   $0x1,-0x10(%rbp)
    a85a:	83 7d f0 00          	cmpl   $0x0,-0x10(%rbp)
    a85e:	0f 8e 96 fe ff ff    	jle    a6fa <main+0x3f9>
    a864:	48 8b 05 f5 69 00 00 	mov    0x69f5(%rip),%rax        # 11260 <g_226>
    a86b:	48 89 c1             	mov    %rax,%rcx
    a86e:	8b 45 fc             	mov    -0x4(%rbp),%eax
    a871:	89 c2                	mov    %eax,%edx
    a873:	48 8d 35 56 2e 00 00 	lea    0x2e56(%rip),%rsi        # d6d0 <g_2250+0x165f>
    a87a:	48 89 cf             	mov    %rcx,%rdi
    a87d:	e8 71 ae ff ff       	callq  56f3 <transparent_crc>
    a882:	48 b9 94 84 8b a5 42 	movabs $0x20fdac42a58b8494,%rcx
    a889:	ac fd 20 
    a88c:	8b 45 fc             	mov    -0x4(%rbp),%eax
    a88f:	89 c2                	mov    %eax,%edx
    a891:	48 8d 35 3e 2e 00 00 	lea    0x2e3e(%rip),%rsi        # d6d6 <g_2250+0x1665>
    a898:	48 89 cf             	mov    %rcx,%rdi
    a89b:	e8 53 ae ff ff       	callq  56f3 <transparent_crc>
    a8a0:	c7 45 f0 00 00 00 00 	movl   $0x0,-0x10(%rbp)
    a8a7:	eb 53                	jmp    a8fc <main+0x5fb>
    a8a9:	8b 45 f0             	mov    -0x10(%rbp),%eax
    a8ac:	48 98                	cltq   
    a8ae:	48 8d 14 c5 00 00 00 	lea    0x0(,%rax,8),%rdx
    a8b5:	00 
    a8b6:	48 8d 05 c3 69 00 00 	lea    0x69c3(%rip),%rax        # 11280 <g_269>
    a8bd:	48 8b 04 02          	mov    (%rdx,%rax,1),%rax
    a8c1:	25 ff ff 7f 00       	and    $0x7fffff,%eax
    a8c6:	89 c1                	mov    %eax,%ecx
    a8c8:	8b 45 fc             	mov    -0x4(%rbp),%eax
    a8cb:	89 c2                	mov    %eax,%edx
    a8cd:	48 8d 35 08 2e 00 00 	lea    0x2e08(%rip),%rsi        # d6dc <g_2250+0x166b>
    a8d4:	48 89 cf             	mov    %rcx,%rdi
    a8d7:	e8 17 ae ff ff       	callq  56f3 <transparent_crc>
    a8dc:	83 7d fc 00          	cmpl   $0x0,-0x4(%rbp)
    a8e0:	74 16                	je     a8f8 <main+0x5f7>
    a8e2:	8b 45 f0             	mov    -0x10(%rbp),%eax
    a8e5:	89 c6                	mov    %eax,%esi
    a8e7:	48 8d 3d fa 2d 00 00 	lea    0x2dfa(%rip),%rdi        # d6e8 <g_2250+0x1677>
    a8ee:	b8 00 00 00 00       	mov    $0x0,%eax
    a8f3:	e8 88 97 ff ff       	callq  4080 <printf@plt>
    a8f8:	83 45 f0 01          	addl   $0x1,-0x10(%rbp)
    a8fc:	83 7d f0 09          	cmpl   $0x9,-0x10(%rbp)
    a900:	7e a7                	jle    a8a9 <main+0x5a8>
    a902:	c7 45 f0 00 00 00 00 	movl   $0x0,-0x10(%rbp)
    a909:	eb 4a                	jmp    a955 <main+0x654>
    a90b:	8b 45 f0             	mov    -0x10(%rbp),%eax
    a90e:	48 98                	cltq   
    a910:	48 8d 14 00          	lea    (%rax,%rax,1),%rdx
    a914:	48 8d 05 b5 69 00 00 	lea    0x69b5(%rip),%rax        # 112d0 <g_282>
    a91b:	0f b7 04 02          	movzwl (%rdx,%rax,1),%eax
    a91f:	48 0f bf c0          	movswq %ax,%rax
    a923:	8b 55 fc             	mov    -0x4(%rbp),%edx
    a926:	48 8d 35 c9 2d 00 00 	lea    0x2dc9(%rip),%rsi        # d6f6 <g_2250+0x1685>
    a92d:	48 89 c7             	mov    %rax,%rdi
    a930:	e8 be ad ff ff       	callq  56f3 <transparent_crc>
    a935:	83 7d fc 00          	cmpl   $0x0,-0x4(%rbp)
    a939:	74 16                	je     a951 <main+0x650>
    a93b:	8b 45 f0             	mov    -0x10(%rbp),%eax
    a93e:	89 c6                	mov    %eax,%esi
    a940:	48 8d 3d a1 2d 00 00 	lea    0x2da1(%rip),%rdi        # d6e8 <g_2250+0x1677>
    a947:	b8 00 00 00 00       	mov    $0x0,%eax
    a94c:	e8 2f 97 ff ff       	callq  4080 <printf@plt>
    a951:	83 45 f0 01          	addl   $0x1,-0x10(%rbp)
    a955:	83 7d f0 05          	cmpl   $0x5,-0x10(%rbp)
    a959:	7e b0                	jle    a90b <main+0x60a>
    a95b:	0f b7 05 7a 69 00 00 	movzwl 0x697a(%rip),%eax        # 112dc <g_287>
    a962:	48 0f bf c0          	movswq %ax,%rax
    a966:	8b 55 fc             	mov    -0x4(%rbp),%edx
    a969:	48 8d 35 8f 2d 00 00 	lea    0x2d8f(%rip),%rsi        # d6ff <g_2250+0x168e>
    a970:	48 89 c7             	mov    %rax,%rdi
    a973:	e8 7b ad ff ff       	callq  56f3 <transparent_crc>
    a978:	48 8b 05 61 69 00 00 	mov    0x6961(%rip),%rax        # 112e0 <g_312>
    a97f:	25 ff ff 7f 00       	and    $0x7fffff,%eax
    a984:	89 c1                	mov    %eax,%ecx
    a986:	8b 45 fc             	mov    -0x4(%rbp),%eax
    a989:	89 c2                	mov    %eax,%edx
    a98b:	48 8d 35 73 2d 00 00 	lea    0x2d73(%rip),%rsi        # d705 <g_2250+0x1694>
    a992:	48 89 cf             	mov    %rcx,%rdi
    a995:	e8 59 ad ff ff       	callq  56f3 <transparent_crc>
    a99a:	8b 05 48 69 00 00    	mov    0x6948(%rip),%eax        # 112e8 <g_316>
    a9a0:	89 c1                	mov    %eax,%ecx
    a9a2:	8b 45 fc             	mov    -0x4(%rbp),%eax
    a9a5:	89 c2                	mov    %eax,%edx
    a9a7:	48 8d 35 60 2d 00 00 	lea    0x2d60(%rip),%rsi        # d70e <g_2250+0x169d>
    a9ae:	48 89 cf             	mov    %rcx,%rdi
    a9b1:	e8 3d ad ff ff       	callq  56f3 <transparent_crc>
    a9b6:	48 8b 05 33 69 00 00 	mov    0x6933(%rip),%rax        # 112f0 <g_363>
    a9bd:	25 ff ff 7f 00       	and    $0x7fffff,%eax
    a9c2:	89 c1                	mov    %eax,%ecx
    a9c4:	8b 45 fc             	mov    -0x4(%rbp),%eax
    a9c7:	89 c2                	mov    %eax,%edx
    a9c9:	48 8d 35 44 2d 00 00 	lea    0x2d44(%rip),%rsi        # d714 <g_2250+0x16a3>
    a9d0:	48 89 cf             	mov    %rcx,%rdi
    a9d3:	e8 1b ad ff ff       	callq  56f3 <transparent_crc>
    a9d8:	c7 45 f0 00 00 00 00 	movl   $0x0,-0x10(%rbp)
    a9df:	e9 a7 00 00 00       	jmpq   aa8b <main+0x78a>
    a9e4:	c7 45 f4 00 00 00 00 	movl   $0x0,-0xc(%rbp)
    a9eb:	e9 8d 00 00 00       	jmpq   aa7d <main+0x77c>
    a9f0:	c7 45 f8 00 00 00 00 	movl   $0x0,-0x8(%rbp)
    a9f7:	eb 7a                	jmp    aa73 <main+0x772>
    a9f9:	8b 45 f8             	mov    -0x8(%rbp),%eax
    a9fc:	48 63 f0             	movslq %eax,%rsi
    a9ff:	8b 45 f0             	mov    -0x10(%rbp),%eax
    aa02:	48 63 d0             	movslq %eax,%rdx
    aa05:	8b 45 f4             	mov    -0xc(%rbp),%eax
    aa08:	48 63 c8             	movslq %eax,%rcx
    aa0b:	48 89 d0             	mov    %rdx,%rax
    aa0e:	48 c1 e0 04          	shl    $0x4,%rax
    aa12:	48 29 d0             	sub    %rdx,%rax
    aa15:	48 01 c0             	add    %rax,%rax
    aa18:	48 89 ca             	mov    %rcx,%rdx
    aa1b:	48 01 d2             	add    %rdx,%rdx
    aa1e:	48 01 ca             	add    %rcx,%rdx
    aa21:	48 01 d0             	add    %rdx,%rax
    aa24:	48 01 f0             	add    %rsi,%rax
    aa27:	48 8d 14 85 00 00 00 	lea    0x0(,%rax,4),%rdx
    aa2e:	00 
    aa2f:	48 8d 05 ca 68 00 00 	lea    0x68ca(%rip),%rax        # 11300 <g_411>
    aa36:	8b 04 02             	mov    (%rdx,%rax,1),%eax
    aa39:	48 98                	cltq   
    aa3b:	8b 55 fc             	mov    -0x4(%rbp),%edx
    aa3e:	48 8d 35 d8 2c 00 00 	lea    0x2cd8(%rip),%rsi        # d71d <g_2250+0x16ac>
    aa45:	48 89 c7             	mov    %rax,%rdi
    aa48:	e8 a6 ac ff ff       	callq  56f3 <transparent_crc>
    aa4d:	83 7d fc 00          	cmpl   $0x0,-0x4(%rbp)
    aa51:	74 1c                	je     aa6f <main+0x76e>
    aa53:	8b 4d f8             	mov    -0x8(%rbp),%ecx
    aa56:	8b 55 f4             	mov    -0xc(%rbp),%edx
    aa59:	8b 45 f0             	mov    -0x10(%rbp),%eax
    aa5c:	89 c6                	mov    %eax,%esi
    aa5e:	48 8d 3d 8c 2b 00 00 	lea    0x2b8c(%rip),%rdi        # d5f1 <g_2250+0x1580>
    aa65:	b8 00 00 00 00       	mov    $0x0,%eax
    aa6a:	e8 11 96 ff ff       	callq  4080 <printf@plt>
    aa6f:	83 45 f8 01          	addl   $0x1,-0x8(%rbp)
    aa73:	83 7d f8 02          	cmpl   $0x2,-0x8(%rbp)
    aa77:	7e 80                	jle    a9f9 <main+0x6f8>
    aa79:	83 45 f4 01          	addl   $0x1,-0xc(%rbp)
    aa7d:	83 7d f4 09          	cmpl   $0x9,-0xc(%rbp)
    aa81:	0f 8e 69 ff ff ff    	jle    a9f0 <main+0x6ef>
    aa87:	83 45 f0 01          	addl   $0x1,-0x10(%rbp)
    aa8b:	83 7d f0 00          	cmpl   $0x0,-0x10(%rbp)
    aa8f:	0f 8e 4f ff ff ff    	jle    a9e4 <main+0x6e3>
    aa95:	c7 45 f0 00 00 00 00 	movl   $0x0,-0x10(%rbp)
    aa9c:	eb 4b                	jmp    aae9 <main+0x7e8>
    aa9e:	8b 45 f0             	mov    -0x10(%rbp),%eax
    aaa1:	48 98                	cltq   
    aaa3:	48 8d 14 85 00 00 00 	lea    0x0(,%rax,4),%rdx
    aaaa:	00 
    aaab:	48 8d 05 ce 68 00 00 	lea    0x68ce(%rip),%rax        # 11380 <g_412>
    aab2:	8b 04 02             	mov    (%rdx,%rax,1),%eax
    aab5:	48 98                	cltq   
    aab7:	8b 55 fc             	mov    -0x4(%rbp),%edx
    aaba:	48 8d 35 6b 2c 00 00 	lea    0x2c6b(%rip),%rsi        # d72c <g_2250+0x16bb>
    aac1:	48 89 c7             	mov    %rax,%rdi
    aac4:	e8 2a ac ff ff       	callq  56f3 <transparent_crc>
    aac9:	83 7d fc 00          	cmpl   $0x0,-0x4(%rbp)
    aacd:	74 16                	je     aae5 <main+0x7e4>
    aacf:	8b 45 f0             	mov    -0x10(%rbp),%eax
    aad2:	89 c6                	mov    %eax,%esi
    aad4:	48 8d 3d 0d 2c 00 00 	lea    0x2c0d(%rip),%rdi        # d6e8 <g_2250+0x1677>
    aadb:	b8 00 00 00 00       	mov    $0x0,%eax
    aae0:	e8 9b 95 ff ff       	callq  4080 <printf@plt>
    aae5:	83 45 f0 01          	addl   $0x1,-0x10(%rbp)
    aae9:	83 7d f0 08          	cmpl   $0x8,-0x10(%rbp)
    aaed:	7e af                	jle    aa9e <main+0x79d>
    aaef:	8b 05 af 68 00 00    	mov    0x68af(%rip),%eax        # 113a4 <g_413>
    aaf5:	48 98                	cltq   
    aaf7:	8b 55 fc             	mov    -0x4(%rbp),%edx
    aafa:	48 8d 35 34 2c 00 00 	lea    0x2c34(%rip),%rsi        # d735 <g_2250+0x16c4>
    ab01:	48 89 c7             	mov    %rax,%rdi
    ab04:	e8 ea ab ff ff       	callq  56f3 <transparent_crc>
    ab09:	8b 05 99 68 00 00    	mov    0x6899(%rip),%eax        # 113a8 <g_414>
    ab0f:	48 98                	cltq   
    ab11:	8b 55 fc             	mov    -0x4(%rbp),%edx
    ab14:	48 8d 35 20 2c 00 00 	lea    0x2c20(%rip),%rsi        # d73b <g_2250+0x16ca>
    ab1b:	48 89 c7             	mov    %rax,%rdi
    ab1e:	e8 d0 ab ff ff       	callq  56f3 <transparent_crc>
    ab23:	8b 05 83 68 00 00    	mov    0x6883(%rip),%eax        # 113ac <g_415>
    ab29:	48 98                	cltq   
    ab2b:	8b 55 fc             	mov    -0x4(%rbp),%edx
    ab2e:	48 8d 35 0c 2c 00 00 	lea    0x2c0c(%rip),%rsi        # d741 <g_2250+0x16d0>
    ab35:	48 89 c7             	mov    %rax,%rdi
    ab38:	e8 b6 ab ff ff       	callq  56f3 <transparent_crc>
    ab3d:	8b 05 6d 68 00 00    	mov    0x686d(%rip),%eax        # 113b0 <g_416>
    ab43:	48 98                	cltq   
    ab45:	8b 55 fc             	mov    -0x4(%rbp),%edx
    ab48:	48 8d 35 f8 2b 00 00 	lea    0x2bf8(%rip),%rsi        # d747 <g_2250+0x16d6>
    ab4f:	48 89 c7             	mov    %rax,%rdi
    ab52:	e8 9c ab ff ff       	callq  56f3 <transparent_crc>
    ab57:	8b 05 3b 8a 00 00    	mov    0x8a3b(%rip),%eax        # 13598 <g_417>
    ab5d:	48 98                	cltq   
    ab5f:	8b 55 fc             	mov    -0x4(%rbp),%edx
    ab62:	48 8d 35 e4 2b 00 00 	lea    0x2be4(%rip),%rsi        # d74d <g_2250+0x16dc>
    ab69:	48 89 c7             	mov    %rax,%rdi
    ab6c:	e8 82 ab ff ff       	callq  56f3 <transparent_crc>
    ab71:	c7 45 f0 00 00 00 00 	movl   $0x0,-0x10(%rbp)
    ab78:	eb 4b                	jmp    abc5 <main+0x8c4>
    ab7a:	8b 45 f0             	mov    -0x10(%rbp),%eax
    ab7d:	48 98                	cltq   
    ab7f:	48 8d 14 85 00 00 00 	lea    0x0(,%rax,4),%rdx
    ab86:	00 
    ab87:	48 8d 05 32 68 00 00 	lea    0x6832(%rip),%rax        # 113c0 <g_418>
    ab8e:	8b 04 02             	mov    (%rdx,%rax,1),%eax
    ab91:	48 98                	cltq   
    ab93:	8b 55 fc             	mov    -0x4(%rbp),%edx
    ab96:	48 8d 35 b6 2b 00 00 	lea    0x2bb6(%rip),%rsi        # d753 <g_2250+0x16e2>
    ab9d:	48 89 c7             	mov    %rax,%rdi
    aba0:	e8 4e ab ff ff       	callq  56f3 <transparent_crc>
    aba5:	83 7d fc 00          	cmpl   $0x0,-0x4(%rbp)
    aba9:	74 16                	je     abc1 <main+0x8c0>
    abab:	8b 45 f0             	mov    -0x10(%rbp),%eax
    abae:	89 c6                	mov    %eax,%esi
    abb0:	48 8d 3d 31 2b 00 00 	lea    0x2b31(%rip),%rdi        # d6e8 <g_2250+0x1677>
    abb7:	b8 00 00 00 00       	mov    $0x0,%eax
    abbc:	e8 bf 94 ff ff       	callq  4080 <printf@plt>
    abc1:	83 45 f0 01          	addl   $0x1,-0x10(%rbp)
    abc5:	83 7d f0 07          	cmpl   $0x7,-0x10(%rbp)
    abc9:	7e af                	jle    ab7a <main+0x879>
    abcb:	8b 05 0f 68 00 00    	mov    0x680f(%rip),%eax        # 113e0 <g_419>
    abd1:	48 98                	cltq   
    abd3:	8b 55 fc             	mov    -0x4(%rbp),%edx
    abd6:	48 8d 35 7f 2b 00 00 	lea    0x2b7f(%rip),%rsi        # d75c <g_2250+0x16eb>
    abdd:	48 89 c7             	mov    %rax,%rdi
    abe0:	e8 0e ab ff ff       	callq  56f3 <transparent_crc>
    abe5:	48 8b 05 fc 67 00 00 	mov    0x67fc(%rip),%rax        # 113e8 <g_432>
    abec:	25 ff ff 7f 00       	and    $0x7fffff,%eax
    abf1:	89 c1                	mov    %eax,%ecx
    abf3:	8b 45 fc             	mov    -0x4(%rbp),%eax
    abf6:	89 c2                	mov    %eax,%edx
    abf8:	48 8d 35 63 2b 00 00 	lea    0x2b63(%rip),%rsi        # d762 <g_2250+0x16f1>
    abff:	48 89 cf             	mov    %rcx,%rdi
    ac02:	e8 ec aa ff ff       	callq  56f3 <transparent_crc>
    ac07:	0f b6 05 e2 67 00 00 	movzbl 0x67e2(%rip),%eax        # 113f0 <g_433>
    ac0e:	0f b6 c0             	movzbl %al,%eax
    ac11:	8b 55 fc             	mov    -0x4(%rbp),%edx
    ac14:	48 8d 35 50 2b 00 00 	lea    0x2b50(%rip),%rsi        # d76b <g_2250+0x16fa>
    ac1b:	48 89 c7             	mov    %rax,%rdi
    ac1e:	e8 d0 aa ff ff       	callq  56f3 <transparent_crc>
    ac23:	0f b6 05 c6 67 00 00 	movzbl 0x67c6(%rip),%eax        # 113f0 <g_433>
    ac2a:	48 0f be c0          	movsbq %al,%rax
    ac2e:	8b 55 fc             	mov    -0x4(%rbp),%edx
    ac31:	48 8d 35 3c 2b 00 00 	lea    0x2b3c(%rip),%rsi        # d774 <g_2250+0x1703>
    ac38:	48 89 c7             	mov    %rax,%rdi
    ac3b:	e8 b3 aa ff ff       	callq  56f3 <transparent_crc>
    ac40:	8b 05 56 89 00 00    	mov    0x8956(%rip),%eax        # 1359c <g_434>
    ac46:	89 c1                	mov    %eax,%ecx
    ac48:	8b 45 fc             	mov    -0x4(%rbp),%eax
    ac4b:	89 c2                	mov    %eax,%edx
    ac4d:	48 8d 35 29 2b 00 00 	lea    0x2b29(%rip),%rsi        # d77d <g_2250+0x170c>
    ac54:	48 89 cf             	mov    %rcx,%rdi
    ac57:	e8 97 aa ff ff       	callq  56f3 <transparent_crc>
    ac5c:	0f b6 05 39 89 00 00 	movzbl 0x8939(%rip),%eax        # 1359c <g_434>
    ac63:	0f b6 c0             	movzbl %al,%eax
    ac66:	8b 55 fc             	mov    -0x4(%rbp),%edx
    ac69:	48 8d 35 16 2b 00 00 	lea    0x2b16(%rip),%rsi        # d786 <g_2250+0x1715>
    ac70:	48 89 c7             	mov    %rax,%rdi
    ac73:	e8 7b aa ff ff       	callq  56f3 <transparent_crc>
    ac78:	8b 05 1e 89 00 00    	mov    0x891e(%rip),%eax        # 1359c <g_434>
    ac7e:	89 c1                	mov    %eax,%ecx
    ac80:	8b 45 fc             	mov    -0x4(%rbp),%eax
    ac83:	89 c2                	mov    %eax,%edx
    ac85:	48 8d 35 03 2b 00 00 	lea    0x2b03(%rip),%rsi        # d78f <g_2250+0x171e>
    ac8c:	48 89 cf             	mov    %rcx,%rdi
    ac8f:	e8 5f aa ff ff       	callq  56f3 <transparent_crc>
    ac94:	0f b6 05 01 89 00 00 	movzbl 0x8901(%rip),%eax        # 1359c <g_434>
    ac9b:	48 0f be c0          	movsbq %al,%rax
    ac9f:	8b 55 fc             	mov    -0x4(%rbp),%edx
    aca2:	48 8d 35 ef 2a 00 00 	lea    0x2aef(%rip),%rsi        # d798 <g_2250+0x1727>
    aca9:	48 89 c7             	mov    %rax,%rdi
    acac:	e8 42 aa ff ff       	callq  56f3 <transparent_crc>
    acb1:	0f b7 05 e4 88 00 00 	movzwl 0x88e4(%rip),%eax        # 1359c <g_434>
    acb8:	0f b7 c0             	movzwl %ax,%eax
    acbb:	8b 55 fc             	mov    -0x4(%rbp),%edx
    acbe:	48 8d 35 dc 2a 00 00 	lea    0x2adc(%rip),%rsi        # d7a1 <g_2250+0x1730>
    acc5:	48 89 c7             	mov    %rax,%rdi
    acc8:	e8 26 aa ff ff       	callq  56f3 <transparent_crc>
    accd:	c7 45 f0 00 00 00 00 	movl   $0x0,-0x10(%rbp)
    acd4:	e9 a0 00 00 00       	jmpq   ad79 <main+0xa78>
    acd9:	c7 45 f4 00 00 00 00 	movl   $0x0,-0xc(%rbp)
    ace0:	e9 86 00 00 00       	jmpq   ad6b <main+0xa6a>
    ace5:	c7 45 f8 00 00 00 00 	movl   $0x0,-0x8(%rbp)
    acec:	eb 73                	jmp    ad61 <main+0xa60>
    acee:	8b 45 f8             	mov    -0x8(%rbp),%eax
    acf1:	48 98                	cltq   
    acf3:	8b 55 f0             	mov    -0x10(%rbp),%edx
    acf6:	48 63 ca             	movslq %edx,%rcx
    acf9:	8b 55 f4             	mov    -0xc(%rbp),%edx
    acfc:	48 63 d2             	movslq %edx,%rdx
    acff:	48 c1 e1 03          	shl    $0x3,%rcx
    ad03:	48 01 ca             	add    %rcx,%rdx
    ad06:	48 c1 e2 03          	shl    $0x3,%rdx
    ad0a:	48 01 d0             	add    %rdx,%rax
    ad0d:	48 8d 14 c5 00 00 00 	lea    0x0(,%rax,8),%rdx
    ad14:	00 
    ad15:	48 8d 05 e4 66 00 00 	lea    0x66e4(%rip),%rax        # 11400 <g_463>
    ad1c:	48 8b 04 02          	mov    (%rdx,%rax,1),%rax
    ad20:	25 ff ff 7f 00       	and    $0x7fffff,%eax
    ad25:	89 c1                	mov    %eax,%ecx
    ad27:	8b 45 fc             	mov    -0x4(%rbp),%eax
    ad2a:	89 c2                	mov    %eax,%edx
    ad2c:	48 8d 35 77 2a 00 00 	lea    0x2a77(%rip),%rsi        # d7aa <g_2250+0x1739>
    ad33:	48 89 cf             	mov    %rcx,%rdi
    ad36:	e8 b8 a9 ff ff       	callq  56f3 <transparent_crc>
    ad3b:	83 7d fc 00          	cmpl   $0x0,-0x4(%rbp)
    ad3f:	74 1c                	je     ad5d <main+0xa5c>
    ad41:	8b 4d f8             	mov    -0x8(%rbp),%ecx
    ad44:	8b 55 f4             	mov    -0xc(%rbp),%edx
    ad47:	8b 45 f0             	mov    -0x10(%rbp),%eax
    ad4a:	89 c6                	mov    %eax,%esi
    ad4c:	48 8d 3d 9e 28 00 00 	lea    0x289e(%rip),%rdi        # d5f1 <g_2250+0x1580>
    ad53:	b8 00 00 00 00       	mov    $0x0,%eax
    ad58:	e8 23 93 ff ff       	callq  4080 <printf@plt>
    ad5d:	83 45 f8 01          	addl   $0x1,-0x8(%rbp)
    ad61:	83 7d f8 07          	cmpl   $0x7,-0x8(%rbp)
    ad65:	7e 87                	jle    acee <main+0x9ed>
    ad67:	83 45 f4 01          	addl   $0x1,-0xc(%rbp)
    ad6b:	83 7d f4 07          	cmpl   $0x7,-0xc(%rbp)
    ad6f:	0f 8e 70 ff ff ff    	jle    ace5 <main+0x9e4>
    ad75:	83 45 f0 01          	addl   $0x1,-0x10(%rbp)
    ad79:	83 7d f0 01          	cmpl   $0x1,-0x10(%rbp)
    ad7d:	0f 8e 56 ff ff ff    	jle    acd9 <main+0x9d8>
    ad83:	8b 05 17 88 00 00    	mov    0x8817(%rip),%eax        # 135a0 <g_504>
    ad89:	89 c1                	mov    %eax,%ecx
    ad8b:	8b 45 fc             	mov    -0x4(%rbp),%eax
    ad8e:	89 c2                	mov    %eax,%edx
    ad90:	48 8d 35 25 2a 00 00 	lea    0x2a25(%rip),%rsi        # d7bc <g_2250+0x174b>
    ad97:	48 89 cf             	mov    %rcx,%rdi
    ad9a:	e8 54 a9 ff ff       	callq  56f3 <transparent_crc>
    ad9f:	0f b6 05 fa 87 00 00 	movzbl 0x87fa(%rip),%eax        # 135a0 <g_504>
    ada6:	0f b6 c0             	movzbl %al,%eax
    ada9:	8b 55 fc             	mov    -0x4(%rbp),%edx
    adac:	48 8d 35 12 2a 00 00 	lea    0x2a12(%rip),%rsi        # d7c5 <g_2250+0x1754>
    adb3:	48 89 c7             	mov    %rax,%rdi
    adb6:	e8 38 a9 ff ff       	callq  56f3 <transparent_crc>
    adbb:	8b 05 df 87 00 00    	mov    0x87df(%rip),%eax        # 135a0 <g_504>
    adc1:	89 c1                	mov    %eax,%ecx
    adc3:	8b 45 fc             	mov    -0x4(%rbp),%eax
    adc6:	89 c2                	mov    %eax,%edx
    adc8:	48 8d 35 ff 29 00 00 	lea    0x29ff(%rip),%rsi        # d7ce <g_2250+0x175d>
    adcf:	48 89 cf             	mov    %rcx,%rdi
    add2:	e8 1c a9 ff ff       	callq  56f3 <transparent_crc>
    add7:	0f b6 05 c2 87 00 00 	movzbl 0x87c2(%rip),%eax        # 135a0 <g_504>
    adde:	48 0f be c0          	movsbq %al,%rax
    ade2:	8b 55 fc             	mov    -0x4(%rbp),%edx
    ade5:	48 8d 35 eb 29 00 00 	lea    0x29eb(%rip),%rsi        # d7d7 <g_2250+0x1766>
    adec:	48 89 c7             	mov    %rax,%rdi
    adef:	e8 ff a8 ff ff       	callq  56f3 <transparent_crc>
    adf4:	0f b7 05 a5 87 00 00 	movzwl 0x87a5(%rip),%eax        # 135a0 <g_504>
    adfb:	0f b7 c0             	movzwl %ax,%eax
    adfe:	8b 55 fc             	mov    -0x4(%rbp),%edx
    ae01:	48 8d 35 d8 29 00 00 	lea    0x29d8(%rip),%rsi        # d7e0 <g_2250+0x176f>
    ae08:	48 89 c7             	mov    %rax,%rdi
    ae0b:	e8 e3 a8 ff ff       	callq  56f3 <transparent_crc>
    ae10:	c7 45 f0 00 00 00 00 	movl   $0x0,-0x10(%rbp)
    ae17:	e9 f5 01 00 00       	jmpq   b011 <main+0xd10>
    ae1c:	c7 45 f4 00 00 00 00 	movl   $0x0,-0xc(%rbp)
    ae23:	e9 db 01 00 00       	jmpq   b003 <main+0xd02>
    ae28:	c7 45 f8 00 00 00 00 	movl   $0x0,-0x8(%rbp)
    ae2f:	e9 c1 01 00 00       	jmpq   aff5 <main+0xcf4>
    ae34:	8b 45 f8             	mov    -0x8(%rbp),%eax
    ae37:	48 63 f0             	movslq %eax,%rsi
    ae3a:	8b 45 f0             	mov    -0x10(%rbp),%eax
    ae3d:	48 98                	cltq   
    ae3f:	8b 55 f4             	mov    -0xc(%rbp),%edx
    ae42:	48 63 ca             	movslq %edx,%rcx
    ae45:	48 89 c2             	mov    %rax,%rdx
    ae48:	48 c1 e2 03          	shl    $0x3,%rdx
    ae4c:	48 01 c2             	add    %rax,%rdx
    ae4f:	48 89 c8             	mov    %rcx,%rax
    ae52:	48 01 c0             	add    %rax,%rax
    ae55:	48 01 c8             	add    %rcx,%rax
    ae58:	48 01 d0             	add    %rdx,%rax
    ae5b:	48 01 f0             	add    %rsi,%rax
    ae5e:	48 8d 14 85 00 00 00 	lea    0x0(,%rax,4),%rdx
    ae65:	00 
    ae66:	48 8d 05 93 69 00 00 	lea    0x6993(%rip),%rax        # 11800 <g_532>
    ae6d:	8b 04 02             	mov    (%rdx,%rax,1),%eax
    ae70:	89 c1                	mov    %eax,%ecx
    ae72:	8b 45 fc             	mov    -0x4(%rbp),%eax
    ae75:	89 c2                	mov    %eax,%edx
    ae77:	48 8d 35 6b 29 00 00 	lea    0x296b(%rip),%rsi        # d7e9 <g_2250+0x1778>
    ae7e:	48 89 cf             	mov    %rcx,%rdi
    ae81:	e8 6d a8 ff ff       	callq  56f3 <transparent_crc>
    ae86:	8b 45 f8             	mov    -0x8(%rbp),%eax
    ae89:	48 63 f0             	movslq %eax,%rsi
    ae8c:	8b 45 f0             	mov    -0x10(%rbp),%eax
    ae8f:	48 98                	cltq   
    ae91:	8b 55 f4             	mov    -0xc(%rbp),%edx
    ae94:	48 63 ca             	movslq %edx,%rcx
    ae97:	48 89 c2             	mov    %rax,%rdx
    ae9a:	48 c1 e2 03          	shl    $0x3,%rdx
    ae9e:	48 01 c2             	add    %rax,%rdx
    aea1:	48 89 c8             	mov    %rcx,%rax
    aea4:	48 01 c0             	add    %rax,%rax
    aea7:	48 01 c8             	add    %rcx,%rax
    aeaa:	48 01 d0             	add    %rdx,%rax
    aead:	48 01 f0             	add    %rsi,%rax
    aeb0:	48 8d 14 85 00 00 00 	lea    0x0(,%rax,4),%rdx
    aeb7:	00 
    aeb8:	48 8d 05 41 69 00 00 	lea    0x6941(%rip),%rax        # 11800 <g_532>
    aebf:	0f b6 04 02          	movzbl (%rdx,%rax,1),%eax
    aec3:	0f b6 c0             	movzbl %al,%eax
    aec6:	8b 55 fc             	mov    -0x4(%rbp),%edx
    aec9:	48 8d 35 2b 29 00 00 	lea    0x292b(%rip),%rsi        # d7fb <g_2250+0x178a>
    aed0:	48 89 c7             	mov    %rax,%rdi
    aed3:	e8 1b a8 ff ff       	callq  56f3 <transparent_crc>
    aed8:	8b 45 f8             	mov    -0x8(%rbp),%eax
    aedb:	48 63 f0             	movslq %eax,%rsi
    aede:	8b 45 f0             	mov    -0x10(%rbp),%eax
    aee1:	48 98                	cltq   
    aee3:	8b 55 f4             	mov    -0xc(%rbp),%edx
    aee6:	48 63 ca             	movslq %edx,%rcx
    aee9:	48 89 c2             	mov    %rax,%rdx
    aeec:	48 c1 e2 03          	shl    $0x3,%rdx
    aef0:	48 01 c2             	add    %rax,%rdx
    aef3:	48 89 c8             	mov    %rcx,%rax
    aef6:	48 01 c0             	add    %rax,%rax
    aef9:	48 01 c8             	add    %rcx,%rax
    aefc:	48 01 d0             	add    %rdx,%rax
    aeff:	48 01 f0             	add    %rsi,%rax
    af02:	48 8d 14 85 00 00 00 	lea    0x0(,%rax,4),%rdx
    af09:	00 
    af0a:	48 8d 05 ef 68 00 00 	lea    0x68ef(%rip),%rax        # 11800 <g_532>
    af11:	8b 04 02             	mov    (%rdx,%rax,1),%eax
    af14:	89 c1                	mov    %eax,%ecx
    af16:	8b 45 fc             	mov    -0x4(%rbp),%eax
    af19:	89 c2                	mov    %eax,%edx
    af1b:	48 8d 35 eb 28 00 00 	lea    0x28eb(%rip),%rsi        # d80d <g_2250+0x179c>
    af22:	48 89 cf             	mov    %rcx,%rdi
    af25:	e8 c9 a7 ff ff       	callq  56f3 <transparent_crc>
    af2a:	8b 45 f8             	mov    -0x8(%rbp),%eax
    af2d:	48 63 f0             	movslq %eax,%rsi
    af30:	8b 45 f0             	mov    -0x10(%rbp),%eax
    af33:	48 98                	cltq   
    af35:	8b 55 f4             	mov    -0xc(%rbp),%edx
    af38:	48 63 ca             	movslq %edx,%rcx
    af3b:	48 89 c2             	mov    %rax,%rdx
    af3e:	48 c1 e2 03          	shl    $0x3,%rdx
    af42:	48 01 c2             	add    %rax,%rdx
    af45:	48 89 c8             	mov    %rcx,%rax
    af48:	48 01 c0             	add    %rax,%rax
    af4b:	48 01 c8             	add    %rcx,%rax
    af4e:	48 01 d0             	add    %rdx,%rax
    af51:	48 01 f0             	add    %rsi,%rax
    af54:	48 8d 14 85 00 00 00 	lea    0x0(,%rax,4),%rdx
    af5b:	00 
    af5c:	48 8d 05 9d 68 00 00 	lea    0x689d(%rip),%rax        # 11800 <g_532>
    af63:	0f b6 04 02          	movzbl (%rdx,%rax,1),%eax
    af67:	48 0f be c0          	movsbq %al,%rax
    af6b:	8b 55 fc             	mov    -0x4(%rbp),%edx
    af6e:	48 8d 35 aa 28 00 00 	lea    0x28aa(%rip),%rsi        # d81f <g_2250+0x17ae>
    af75:	48 89 c7             	mov    %rax,%rdi
    af78:	e8 76 a7 ff ff       	callq  56f3 <transparent_crc>
    af7d:	8b 45 f8             	mov    -0x8(%rbp),%eax
    af80:	48 63 f0             	movslq %eax,%rsi
    af83:	8b 45 f0             	mov    -0x10(%rbp),%eax
    af86:	48 98                	cltq   
    af88:	8b 55 f4             	mov    -0xc(%rbp),%edx
    af8b:	48 63 ca             	movslq %edx,%rcx
    af8e:	48 89 c2             	mov    %rax,%rdx
    af91:	48 c1 e2 03          	shl    $0x3,%rdx
    af95:	48 01 c2             	add    %rax,%rdx
    af98:	48 89 c8             	mov    %rcx,%rax
    af9b:	48 01 c0             	add    %rax,%rax
    af9e:	48 01 c8             	add    %rcx,%rax
    afa1:	48 01 d0             	add    %rdx,%rax
    afa4:	48 01 f0             	add    %rsi,%rax
    afa7:	48 8d 14 85 00 00 00 	lea    0x0(,%rax,4),%rdx
    afae:	00 
    afaf:	48 8d 05 4a 68 00 00 	lea    0x684a(%rip),%rax        # 11800 <g_532>
    afb6:	0f b7 04 02          	movzwl (%rdx,%rax,1),%eax
    afba:	0f b7 c0             	movzwl %ax,%eax
    afbd:	8b 55 fc             	mov    -0x4(%rbp),%edx
    afc0:	48 8d 35 6a 28 00 00 	lea    0x286a(%rip),%rsi        # d831 <g_2250+0x17c0>
    afc7:	48 89 c7             	mov    %rax,%rdi
    afca:	e8 24 a7 ff ff       	callq  56f3 <transparent_crc>
    afcf:	83 7d fc 00          	cmpl   $0x0,-0x4(%rbp)
    afd3:	74 1c                	je     aff1 <main+0xcf0>
    afd5:	8b 4d f8             	mov    -0x8(%rbp),%ecx
    afd8:	8b 55 f4             	mov    -0xc(%rbp),%edx
    afdb:	8b 45 f0             	mov    -0x10(%rbp),%eax
    afde:	89 c6                	mov    %eax,%esi
    afe0:	48 8d 3d 0a 26 00 00 	lea    0x260a(%rip),%rdi        # d5f1 <g_2250+0x1580>
    afe7:	b8 00 00 00 00       	mov    $0x0,%eax
    afec:	e8 8f 90 ff ff       	callq  4080 <printf@plt>
    aff1:	83 45 f8 01          	addl   $0x1,-0x8(%rbp)
    aff5:	83 7d f8 02          	cmpl   $0x2,-0x8(%rbp)
    aff9:	0f 8e 35 fe ff ff    	jle    ae34 <main+0xb33>
    afff:	83 45 f4 01          	addl   $0x1,-0xc(%rbp)
    b003:	83 7d f4 02          	cmpl   $0x2,-0xc(%rbp)
    b007:	0f 8e 1b fe ff ff    	jle    ae28 <main+0xb27>
    b00d:	83 45 f0 01          	addl   $0x1,-0x10(%rbp)
    b011:	83 7d f0 02          	cmpl   $0x2,-0x10(%rbp)
    b015:	0f 8e 01 fe ff ff    	jle    ae1c <main+0xb1b>
    b01b:	c7 45 f0 00 00 00 00 	movl   $0x0,-0x10(%rbp)
    b022:	eb 77                	jmp    b09b <main+0xd9a>
    b024:	c7 45 f4 00 00 00 00 	movl   $0x0,-0xc(%rbp)
    b02b:	eb 64                	jmp    b091 <main+0xd90>
    b02d:	8b 45 f4             	mov    -0xc(%rbp),%eax
    b030:	48 63 c8             	movslq %eax,%rcx
    b033:	8b 45 f0             	mov    -0x10(%rbp),%eax
    b036:	48 63 d0             	movslq %eax,%rdx
    b039:	48 89 d0             	mov    %rdx,%rax
    b03c:	48 c1 e0 02          	shl    $0x2,%rax
    b040:	48 01 d0             	add    %rdx,%rax
    b043:	48 01 c0             	add    %rax,%rax
    b046:	48 01 c8             	add    %rcx,%rax
    b049:	48 8d 14 c5 00 00 00 	lea    0x0(,%rax,8),%rdx
    b050:	00 
    b051:	48 8d 05 28 68 00 00 	lea    0x6828(%rip),%rax        # 11880 <g_535>
    b058:	48 8b 04 02          	mov    (%rdx,%rax,1),%rax
    b05c:	8b 55 fc             	mov    -0x4(%rbp),%edx
    b05f:	48 8d 35 dd 27 00 00 	lea    0x27dd(%rip),%rsi        # d843 <g_2250+0x17d2>
    b066:	48 89 c7             	mov    %rax,%rdi
    b069:	e8 85 a6 ff ff       	callq  56f3 <transparent_crc>
    b06e:	83 7d fc 00          	cmpl   $0x0,-0x4(%rbp)
    b072:	74 19                	je     b08d <main+0xd8c>
    b074:	8b 55 f4             	mov    -0xc(%rbp),%edx
    b077:	8b 45 f0             	mov    -0x10(%rbp),%eax
    b07a:	89 c6                	mov    %eax,%esi
    b07c:	48 8d 3d 4e 25 00 00 	lea    0x254e(%rip),%rdi        # d5d1 <g_2250+0x1560>
    b083:	b8 00 00 00 00       	mov    $0x0,%eax
    b088:	e8 f3 8f ff ff       	callq  4080 <printf@plt>
    b08d:	83 45 f4 01          	addl   $0x1,-0xc(%rbp)
    b091:	83 7d f4 09          	cmpl   $0x9,-0xc(%rbp)
    b095:	7e 96                	jle    b02d <main+0xd2c>
    b097:	83 45 f0 01          	addl   $0x1,-0x10(%rbp)
    b09b:	83 7d f0 04          	cmpl   $0x4,-0x10(%rbp)
    b09f:	7e 83                	jle    b024 <main+0xd23>
    b0a1:	8b 05 69 69 00 00    	mov    0x6969(%rip),%eax        # 11a10 <g_666>
    b0a7:	89 c1                	mov    %eax,%ecx
    b0a9:	8b 45 fc             	mov    -0x4(%rbp),%eax
    b0ac:	89 c2                	mov    %eax,%edx
    b0ae:	48 8d 35 9a 27 00 00 	lea    0x279a(%rip),%rsi        # d84f <g_2250+0x17de>
    b0b5:	48 89 cf             	mov    %rcx,%rdi
    b0b8:	e8 36 a6 ff ff       	callq  56f3 <transparent_crc>
    b0bd:	0f b6 05 4c 69 00 00 	movzbl 0x694c(%rip),%eax        # 11a10 <g_666>
    b0c4:	0f b6 c0             	movzbl %al,%eax
    b0c7:	8b 55 fc             	mov    -0x4(%rbp),%edx
    b0ca:	48 8d 35 87 27 00 00 	lea    0x2787(%rip),%rsi        # d858 <g_2250+0x17e7>
    b0d1:	48 89 c7             	mov    %rax,%rdi
    b0d4:	e8 1a a6 ff ff       	callq  56f3 <transparent_crc>
    b0d9:	8b 05 31 69 00 00    	mov    0x6931(%rip),%eax        # 11a10 <g_666>
    b0df:	89 c1                	mov    %eax,%ecx
    b0e1:	8b 45 fc             	mov    -0x4(%rbp),%eax
    b0e4:	89 c2                	mov    %eax,%edx
    b0e6:	48 8d 35 74 27 00 00 	lea    0x2774(%rip),%rsi        # d861 <g_2250+0x17f0>
    b0ed:	48 89 cf             	mov    %rcx,%rdi
    b0f0:	e8 fe a5 ff ff       	callq  56f3 <transparent_crc>
    b0f5:	0f b6 05 14 69 00 00 	movzbl 0x6914(%rip),%eax        # 11a10 <g_666>
    b0fc:	48 0f be c0          	movsbq %al,%rax
    b100:	8b 55 fc             	mov    -0x4(%rbp),%edx
    b103:	48 8d 35 60 27 00 00 	lea    0x2760(%rip),%rsi        # d86a <g_2250+0x17f9>
    b10a:	48 89 c7             	mov    %rax,%rdi
    b10d:	e8 e1 a5 ff ff       	callq  56f3 <transparent_crc>
    b112:	0f b7 05 f7 68 00 00 	movzwl 0x68f7(%rip),%eax        # 11a10 <g_666>
    b119:	0f b7 c0             	movzwl %ax,%eax
    b11c:	8b 55 fc             	mov    -0x4(%rbp),%edx
    b11f:	48 8d 35 4d 27 00 00 	lea    0x274d(%rip),%rsi        # d873 <g_2250+0x1802>
    b126:	48 89 c7             	mov    %rax,%rdi
    b129:	e8 c5 a5 ff ff       	callq  56f3 <transparent_crc>
    b12e:	8b 05 e0 68 00 00    	mov    0x68e0(%rip),%eax        # 11a14 <g_671>
    b134:	89 c1                	mov    %eax,%ecx
    b136:	8b 45 fc             	mov    -0x4(%rbp),%eax
    b139:	89 c2                	mov    %eax,%edx
    b13b:	48 8d 35 3a 27 00 00 	lea    0x273a(%rip),%rsi        # d87c <g_2250+0x180b>
    b142:	48 89 cf             	mov    %rcx,%rdi
    b145:	e8 a9 a5 ff ff       	callq  56f3 <transparent_crc>
    b14a:	c7 45 f0 00 00 00 00 	movl   $0x0,-0x10(%rbp)
    b151:	eb 4a                	jmp    b19d <main+0xe9c>
    b153:	8b 45 f0             	mov    -0x10(%rbp),%eax
    b156:	48 98                	cltq   
    b158:	48 8d 14 c5 00 00 00 	lea    0x0(,%rax,8),%rdx
    b15f:	00 
    b160:	48 8d 05 b9 68 00 00 	lea    0x68b9(%rip),%rax        # 11a20 <g_672>
    b167:	48 8b 04 02          	mov    (%rdx,%rax,1),%rax
    b16b:	8b 55 fc             	mov    -0x4(%rbp),%edx
    b16e:	48 8d 35 0d 27 00 00 	lea    0x270d(%rip),%rsi        # d882 <g_2250+0x1811>
    b175:	48 89 c7             	mov    %rax,%rdi
    b178:	e8 76 a5 ff ff       	callq  56f3 <transparent_crc>
    b17d:	83 7d fc 00          	cmpl   $0x0,-0x4(%rbp)
    b181:	74 16                	je     b199 <main+0xe98>
    b183:	8b 45 f0             	mov    -0x10(%rbp),%eax
    b186:	89 c6                	mov    %eax,%esi
    b188:	48 8d 3d 59 25 00 00 	lea    0x2559(%rip),%rdi        # d6e8 <g_2250+0x1677>
    b18f:	b8 00 00 00 00       	mov    $0x0,%eax
    b194:	e8 e7 8e ff ff       	callq  4080 <printf@plt>
    b199:	83 45 f0 01          	addl   $0x1,-0x10(%rbp)
    b19d:	83 7d f0 09          	cmpl   $0x9,-0x10(%rbp)
    b1a1:	7e b0                	jle    b153 <main+0xe52>
    b1a3:	48 8b 05 c6 68 00 00 	mov    0x68c6(%rip),%rax        # 11a70 <g_745>
    b1aa:	25 ff ff 7f 00       	and    $0x7fffff,%eax
    b1af:	89 c1                	mov    %eax,%ecx
    b1b1:	8b 45 fc             	mov    -0x4(%rbp),%eax
    b1b4:	89 c2                	mov    %eax,%edx
    b1b6:	48 8d 35 ce 26 00 00 	lea    0x26ce(%rip),%rsi        # d88b <g_2250+0x181a>
    b1bd:	48 89 cf             	mov    %rcx,%rdi
    b1c0:	e8 2e a5 ff ff       	callq  56f3 <transparent_crc>
    b1c5:	8b 05 ad 68 00 00    	mov    0x68ad(%rip),%eax        # 11a78 <g_770>
    b1cb:	89 c1                	mov    %eax,%ecx
    b1cd:	8b 45 fc             	mov    -0x4(%rbp),%eax
    b1d0:	89 c2                	mov    %eax,%edx
    b1d2:	48 8d 35 bb 26 00 00 	lea    0x26bb(%rip),%rsi        # d894 <g_2250+0x1823>
    b1d9:	48 89 cf             	mov    %rcx,%rdi
    b1dc:	e8 12 a5 ff ff       	callq  56f3 <transparent_crc>
    b1e1:	c7 45 f0 00 00 00 00 	movl   $0x0,-0x10(%rbp)
    b1e8:	e9 02 01 00 00       	jmpq   b2ef <main+0xfee>
    b1ed:	8b 45 f0             	mov    -0x10(%rbp),%eax
    b1f0:	48 98                	cltq   
    b1f2:	48 8d 14 85 00 00 00 	lea    0x0(,%rax,4),%rdx
    b1f9:	00 
    b1fa:	48 8d 05 7f 68 00 00 	lea    0x687f(%rip),%rax        # 11a80 <g_808>
    b201:	8b 04 02             	mov    (%rdx,%rax,1),%eax
    b204:	89 c1                	mov    %eax,%ecx
    b206:	8b 45 fc             	mov    -0x4(%rbp),%eax
    b209:	89 c2                	mov    %eax,%edx
    b20b:	48 8d 35 88 26 00 00 	lea    0x2688(%rip),%rsi        # d89a <g_2250+0x1829>
    b212:	48 89 cf             	mov    %rcx,%rdi
    b215:	e8 d9 a4 ff ff       	callq  56f3 <transparent_crc>
    b21a:	8b 45 f0             	mov    -0x10(%rbp),%eax
    b21d:	48 98                	cltq   
    b21f:	48 8d 14 85 00 00 00 	lea    0x0(,%rax,4),%rdx
    b226:	00 
    b227:	48 8d 05 52 68 00 00 	lea    0x6852(%rip),%rax        # 11a80 <g_808>
    b22e:	0f b6 04 02          	movzbl (%rdx,%rax,1),%eax
    b232:	0f b6 c0             	movzbl %al,%eax
    b235:	8b 55 fc             	mov    -0x4(%rbp),%edx
    b238:	48 8d 35 67 26 00 00 	lea    0x2667(%rip),%rsi        # d8a6 <g_2250+0x1835>
    b23f:	48 89 c7             	mov    %rax,%rdi
    b242:	e8 ac a4 ff ff       	callq  56f3 <transparent_crc>
    b247:	8b 45 f0             	mov    -0x10(%rbp),%eax
    b24a:	48 98                	cltq   
    b24c:	48 8d 14 85 00 00 00 	lea    0x0(,%rax,4),%rdx
    b253:	00 
    b254:	48 8d 05 25 68 00 00 	lea    0x6825(%rip),%rax        # 11a80 <g_808>
    b25b:	8b 04 02             	mov    (%rdx,%rax,1),%eax
    b25e:	89 c1                	mov    %eax,%ecx
    b260:	8b 45 fc             	mov    -0x4(%rbp),%eax
    b263:	89 c2                	mov    %eax,%edx
    b265:	48 8d 35 46 26 00 00 	lea    0x2646(%rip),%rsi        # d8b2 <g_2250+0x1841>
    b26c:	48 89 cf             	mov    %rcx,%rdi
    b26f:	e8 7f a4 ff ff       	callq  56f3 <transparent_crc>
    b274:	8b 45 f0             	mov    -0x10(%rbp),%eax
    b277:	48 98                	cltq   
    b279:	48 8d 14 85 00 00 00 	lea    0x0(,%rax,4),%rdx
    b280:	00 
    b281:	48 8d 05 f8 67 00 00 	lea    0x67f8(%rip),%rax        # 11a80 <g_808>
    b288:	0f b6 04 02          	movzbl (%rdx,%rax,1),%eax
    b28c:	48 0f be c0          	movsbq %al,%rax
    b290:	8b 55 fc             	mov    -0x4(%rbp),%edx
    b293:	48 8d 35 24 26 00 00 	lea    0x2624(%rip),%rsi        # d8be <g_2250+0x184d>
    b29a:	48 89 c7             	mov    %rax,%rdi
    b29d:	e8 51 a4 ff ff       	callq  56f3 <transparent_crc>
    b2a2:	8b 45 f0             	mov    -0x10(%rbp),%eax
    b2a5:	48 98                	cltq   
    b2a7:	48 8d 14 85 00 00 00 	lea    0x0(,%rax,4),%rdx
    b2ae:	00 
    b2af:	48 8d 05 ca 67 00 00 	lea    0x67ca(%rip),%rax        # 11a80 <g_808>
    b2b6:	0f b7 04 02          	movzwl (%rdx,%rax,1),%eax
    b2ba:	0f b7 c0             	movzwl %ax,%eax
    b2bd:	8b 55 fc             	mov    -0x4(%rbp),%edx
    b2c0:	48 8d 35 03 26 00 00 	lea    0x2603(%rip),%rsi        # d8ca <g_2250+0x1859>
    b2c7:	48 89 c7             	mov    %rax,%rdi
    b2ca:	e8 24 a4 ff ff       	callq  56f3 <transparent_crc>
    b2cf:	83 7d fc 00          	cmpl   $0x0,-0x4(%rbp)
    b2d3:	74 16                	je     b2eb <main+0xfea>
    b2d5:	8b 45 f0             	mov    -0x10(%rbp),%eax
    b2d8:	89 c6                	mov    %eax,%esi
    b2da:	48 8d 3d 07 24 00 00 	lea    0x2407(%rip),%rdi        # d6e8 <g_2250+0x1677>
    b2e1:	b8 00 00 00 00       	mov    $0x0,%eax
    b2e6:	e8 95 8d ff ff       	callq  4080 <printf@plt>
    b2eb:	83 45 f0 01          	addl   $0x1,-0x10(%rbp)
    b2ef:	83 7d f0 08          	cmpl   $0x8,-0x10(%rbp)
    b2f3:	0f 8e f4 fe ff ff    	jle    b1ed <main+0xeec>
    b2f9:	0f b6 05 a4 67 00 00 	movzbl 0x67a4(%rip),%eax        # 11aa4 <g_860>
    b300:	48 0f be c0          	movsbq %al,%rax
    b304:	8b 55 fc             	mov    -0x4(%rbp),%edx
    b307:	48 8d 35 c8 25 00 00 	lea    0x25c8(%rip),%rsi        # d8d6 <g_2250+0x1865>
    b30e:	48 89 c7             	mov    %rax,%rdi
    b311:	e8 dd a3 ff ff       	callq  56f3 <transparent_crc>
    b316:	8b 05 8c 67 00 00    	mov    0x678c(%rip),%eax        # 11aa8 <g_868>
    b31c:	48 98                	cltq   
    b31e:	8b 55 fc             	mov    -0x4(%rbp),%edx
    b321:	48 8d 35 b4 25 00 00 	lea    0x25b4(%rip),%rsi        # d8dc <g_2250+0x186b>
    b328:	48 89 c7             	mov    %rax,%rdi
    b32b:	e8 c3 a3 ff ff       	callq  56f3 <transparent_crc>
    b330:	48 8b 05 79 67 00 00 	mov    0x6779(%rip),%rax        # 11ab0 <g_886>
    b337:	25 ff ff 7f 00       	and    $0x7fffff,%eax
    b33c:	89 c1                	mov    %eax,%ecx
    b33e:	8b 45 fc             	mov    -0x4(%rbp),%eax
    b341:	89 c2                	mov    %eax,%edx
    b343:	48 8d 35 98 25 00 00 	lea    0x2598(%rip),%rsi        # d8e2 <g_2250+0x1871>
    b34a:	48 89 cf             	mov    %rcx,%rdi
    b34d:	e8 a1 a3 ff ff       	callq  56f3 <transparent_crc>
    b352:	8b 05 60 67 00 00    	mov    0x6760(%rip),%eax        # 11ab8 <g_946>
    b358:	48 98                	cltq   
    b35a:	8b 55 fc             	mov    -0x4(%rbp),%edx
    b35d:	48 8d 35 87 25 00 00 	lea    0x2587(%rip),%rsi        # d8eb <g_2250+0x187a>
    b364:	48 89 c7             	mov    %rax,%rdi
    b367:	e8 87 a3 ff ff       	callq  56f3 <transparent_crc>
    b36c:	48 8b 05 4d 67 00 00 	mov    0x674d(%rip),%rax        # 11ac0 <g_957>
    b373:	8b 55 fc             	mov    -0x4(%rbp),%edx
    b376:	48 8d 35 74 25 00 00 	lea    0x2574(%rip),%rsi        # d8f1 <g_2250+0x1880>
    b37d:	48 89 c7             	mov    %rax,%rdi
    b380:	e8 6e a3 ff ff       	callq  56f3 <transparent_crc>
    b385:	48 8b 05 d4 0c 00 00 	mov    0xcd4(%rip),%rax        # c060 <g_963>
    b38c:	25 ff ff 7f 00       	and    $0x7fffff,%eax
    b391:	89 c1                	mov    %eax,%ecx
    b393:	8b 45 fc             	mov    -0x4(%rbp),%eax
    b396:	89 c2                	mov    %eax,%edx
    b398:	48 8d 35 58 25 00 00 	lea    0x2558(%rip),%rsi        # d8f7 <g_2250+0x1886>
    b39f:	48 89 cf             	mov    %rcx,%rdi
    b3a2:	e8 4c a3 ff ff       	callq  56f3 <transparent_crc>
    b3a7:	b8 ff ff ff ff       	mov    $0xffffffff,%eax
    b3ac:	89 c1                	mov    %eax,%ecx
    b3ae:	8b 45 fc             	mov    -0x4(%rbp),%eax
    b3b1:	89 c2                	mov    %eax,%edx
    b3b3:	48 8d 35 46 25 00 00 	lea    0x2546(%rip),%rsi        # d900 <g_2250+0x188f>
    b3ba:	48 89 cf             	mov    %rcx,%rdi
    b3bd:	e8 31 a3 ff ff       	callq  56f3 <transparent_crc>
    b3c2:	0f b6 05 9f 0c 00 00 	movzbl 0xc9f(%rip),%eax        # c068 <g_1069>
    b3c9:	0f b6 c0             	movzbl %al,%eax
    b3cc:	8b 55 fc             	mov    -0x4(%rbp),%edx
    b3cf:	48 8d 35 34 25 00 00 	lea    0x2534(%rip),%rsi        # d90a <g_2250+0x1899>
    b3d6:	48 89 c7             	mov    %rax,%rdi
    b3d9:	e8 15 a3 ff ff       	callq  56f3 <transparent_crc>
    b3de:	b8 ff ff ff ff       	mov    $0xffffffff,%eax
    b3e3:	89 c1                	mov    %eax,%ecx
    b3e5:	8b 45 fc             	mov    -0x4(%rbp),%eax
    b3e8:	89 c2                	mov    %eax,%edx
    b3ea:	48 8d 35 23 25 00 00 	lea    0x2523(%rip),%rsi        # d914 <g_2250+0x18a3>
    b3f1:	48 89 cf             	mov    %rcx,%rdi
    b3f4:	e8 fa a2 ff ff       	callq  56f3 <transparent_crc>
    b3f9:	b8 ff ff ff ff       	mov    $0xffffffff,%eax
    b3fe:	48 0f be c0          	movsbq %al,%rax
    b402:	8b 55 fc             	mov    -0x4(%rbp),%edx
    b405:	48 8d 35 12 25 00 00 	lea    0x2512(%rip),%rsi        # d91e <g_2250+0x18ad>
    b40c:	48 89 c7             	mov    %rax,%rdi
    b40f:	e8 df a2 ff ff       	callq  56f3 <transparent_crc>
    b414:	b8 ff ff ff ff       	mov    $0xffffffff,%eax
    b419:	0f b7 c0             	movzwl %ax,%eax
    b41c:	8b 55 fc             	mov    -0x4(%rbp),%edx
    b41f:	48 8d 35 02 25 00 00 	lea    0x2502(%rip),%rsi        # d928 <g_2250+0x18b7>
    b426:	48 89 c7             	mov    %rax,%rdi
    b429:	e8 c5 a2 ff ff       	callq  56f3 <transparent_crc>
    b42e:	8b 05 94 66 00 00    	mov    0x6694(%rip),%eax        # 11ac8 <g_1122>
    b434:	89 c1                	mov    %eax,%ecx
    b436:	8b 45 fc             	mov    -0x4(%rbp),%eax
    b439:	89 c2                	mov    %eax,%edx
    b43b:	48 8d 35 f0 24 00 00 	lea    0x24f0(%rip),%rsi        # d932 <g_2250+0x18c1>
    b442:	48 89 cf             	mov    %rcx,%rdi
    b445:	e8 a9 a2 ff ff       	callq  56f3 <transparent_crc>
    b44a:	0f b6 05 77 66 00 00 	movzbl 0x6677(%rip),%eax        # 11ac8 <g_1122>
    b451:	0f b6 c0             	movzbl %al,%eax
    b454:	8b 55 fc             	mov    -0x4(%rbp),%edx
    b457:	48 8d 35 de 24 00 00 	lea    0x24de(%rip),%rsi        # d93c <g_2250+0x18cb>
    b45e:	48 89 c7             	mov    %rax,%rdi
    b461:	e8 8d a2 ff ff       	callq  56f3 <transparent_crc>
    b466:	8b 05 5c 66 00 00    	mov    0x665c(%rip),%eax        # 11ac8 <g_1122>
    b46c:	89 c1                	mov    %eax,%ecx
    b46e:	8b 45 fc             	mov    -0x4(%rbp),%eax
    b471:	89 c2                	mov    %eax,%edx
    b473:	48 8d 35 cc 24 00 00 	lea    0x24cc(%rip),%rsi        # d946 <g_2250+0x18d5>
    b47a:	48 89 cf             	mov    %rcx,%rdi
    b47d:	e8 71 a2 ff ff       	callq  56f3 <transparent_crc>
    b482:	0f b6 05 3f 66 00 00 	movzbl 0x663f(%rip),%eax        # 11ac8 <g_1122>
    b489:	48 0f be c0          	movsbq %al,%rax
    b48d:	8b 55 fc             	mov    -0x4(%rbp),%edx
    b490:	48 8d 35 b9 24 00 00 	lea    0x24b9(%rip),%rsi        # d950 <g_2250+0x18df>
    b497:	48 89 c7             	mov    %rax,%rdi
    b49a:	e8 54 a2 ff ff       	callq  56f3 <transparent_crc>
    b49f:	0f b7 05 22 66 00 00 	movzwl 0x6622(%rip),%eax        # 11ac8 <g_1122>
    b4a6:	0f b7 c0             	movzwl %ax,%eax
    b4a9:	8b 55 fc             	mov    -0x4(%rbp),%edx
    b4ac:	48 8d 35 a7 24 00 00 	lea    0x24a7(%rip),%rsi        # d95a <g_2250+0x18e9>
    b4b3:	48 89 c7             	mov    %rax,%rdi
    b4b6:	e8 38 a2 ff ff       	callq  56f3 <transparent_crc>
    b4bb:	b8 07 00 00 00       	mov    $0x7,%eax
    b4c0:	48 98                	cltq   
    b4c2:	8b 55 fc             	mov    -0x4(%rbp),%edx
    b4c5:	48 8d 35 98 24 00 00 	lea    0x2498(%rip),%rsi        # d964 <g_2250+0x18f3>
    b4cc:	48 89 c7             	mov    %rax,%rdi
    b4cf:	e8 1f a2 ff ff       	callq  56f3 <transparent_crc>
    b4d4:	b8 07 00 00 00       	mov    $0x7,%eax
    b4d9:	0f b6 c0             	movzbl %al,%eax
    b4dc:	8b 55 fc             	mov    -0x4(%rbp),%edx
    b4df:	48 8d 35 88 24 00 00 	lea    0x2488(%rip),%rsi        # d96e <g_2250+0x18fd>
    b4e6:	48 89 c7             	mov    %rax,%rdi
    b4e9:	e8 05 a2 ff ff       	callq  56f3 <transparent_crc>
    b4ee:	0f b6 05 d7 65 00 00 	movzbl 0x65d7(%rip),%eax        # 11acc <g_1220>
    b4f5:	48 0f be c0          	movsbq %al,%rax
    b4f9:	8b 55 fc             	mov    -0x4(%rbp),%edx
    b4fc:	48 8d 35 75 24 00 00 	lea    0x2475(%rip),%rsi        # d978 <g_2250+0x1907>
    b503:	48 89 c7             	mov    %rax,%rdi
    b506:	e8 e8 a1 ff ff       	callq  56f3 <transparent_crc>
    b50b:	b8 b7 ff ff ff       	mov    $0xffffffb7,%eax
    b510:	48 0f be c0          	movsbq %al,%rax
    b514:	8b 55 fc             	mov    -0x4(%rbp),%edx
    b517:	48 8d 35 61 24 00 00 	lea    0x2461(%rip),%rsi        # d97f <g_2250+0x190e>
    b51e:	48 89 c7             	mov    %rax,%rdi
    b521:	e8 cd a1 ff ff       	callq  56f3 <transparent_crc>
    b526:	48 8b 05 a3 65 00 00 	mov    0x65a3(%rip),%rax        # 11ad0 <g_1269>
    b52d:	25 ff ff 7f 00       	and    $0x7fffff,%eax
    b532:	89 c1                	mov    %eax,%ecx
    b534:	8b 45 fc             	mov    -0x4(%rbp),%eax
    b537:	89 c2                	mov    %eax,%edx
    b539:	48 8d 35 46 24 00 00 	lea    0x2446(%rip),%rsi        # d986 <g_2250+0x1915>
    b540:	48 89 cf             	mov    %rcx,%rdi
    b543:	e8 ab a1 ff ff       	callq  56f3 <transparent_crc>
    b548:	c7 45 f0 00 00 00 00 	movl   $0x0,-0x10(%rbp)
    b54f:	eb 74                	jmp    b5c5 <main+0x12c4>
    b551:	c7 45 f4 00 00 00 00 	movl   $0x0,-0xc(%rbp)
    b558:	eb 61                	jmp    b5bb <main+0x12ba>
    b55a:	8b 45 f4             	mov    -0xc(%rbp),%eax
    b55d:	48 63 c8             	movslq %eax,%rcx
    b560:	8b 45 f0             	mov    -0x10(%rbp),%eax
    b563:	48 63 d0             	movslq %eax,%rdx
    b566:	48 89 d0             	mov    %rdx,%rax
    b569:	48 c1 e0 02          	shl    $0x2,%rax
    b56d:	48 01 d0             	add    %rdx,%rax
    b570:	48 01 c8             	add    %rcx,%rax
    b573:	48 8d 14 c5 00 00 00 	lea    0x0(,%rax,8),%rdx
    b57a:	00 
    b57b:	48 8d 05 5e 65 00 00 	lea    0x655e(%rip),%rax        # 11ae0 <g_1391>
    b582:	48 8b 04 02          	mov    (%rdx,%rax,1),%rax
    b586:	8b 55 fc             	mov    -0x4(%rbp),%edx
    b589:	48 8d 35 00 24 00 00 	lea    0x2400(%rip),%rsi        # d990 <g_2250+0x191f>
    b590:	48 89 c7             	mov    %rax,%rdi
    b593:	e8 5b a1 ff ff       	callq  56f3 <transparent_crc>
    b598:	83 7d fc 00          	cmpl   $0x0,-0x4(%rbp)
    b59c:	74 19                	je     b5b7 <main+0x12b6>
    b59e:	8b 55 f4             	mov    -0xc(%rbp),%edx
    b5a1:	8b 45 f0             	mov    -0x10(%rbp),%eax
    b5a4:	89 c6                	mov    %eax,%esi
    b5a6:	48 8d 3d 24 20 00 00 	lea    0x2024(%rip),%rdi        # d5d1 <g_2250+0x1560>
    b5ad:	b8 00 00 00 00       	mov    $0x0,%eax
    b5b2:	e8 c9 8a ff ff       	callq  4080 <printf@plt>
    b5b7:	83 45 f4 01          	addl   $0x1,-0xc(%rbp)
    b5bb:	83 7d f4 04          	cmpl   $0x4,-0xc(%rbp)
    b5bf:	7e 99                	jle    b55a <main+0x1259>
    b5c1:	83 45 f0 01          	addl   $0x1,-0x10(%rbp)
    b5c5:	83 7d f0 06          	cmpl   $0x6,-0x10(%rbp)
    b5c9:	7e 86                	jle    b551 <main+0x1250>
    b5cb:	8b 05 27 66 00 00    	mov    0x6627(%rip),%eax        # 11bf8 <g_1395>
    b5d1:	89 c1                	mov    %eax,%ecx
    b5d3:	8b 45 fc             	mov    -0x4(%rbp),%eax
    b5d6:	89 c2                	mov    %eax,%edx
    b5d8:	48 8d 35 be 23 00 00 	lea    0x23be(%rip),%rsi        # d99d <g_2250+0x192c>
    b5df:	48 89 cf             	mov    %rcx,%rdi
    b5e2:	e8 0c a1 ff ff       	callq  56f3 <transparent_crc>
    b5e7:	0f b6 05 0a 66 00 00 	movzbl 0x660a(%rip),%eax        # 11bf8 <g_1395>
    b5ee:	0f b6 c0             	movzbl %al,%eax
    b5f1:	8b 55 fc             	mov    -0x4(%rbp),%edx
    b5f4:	48 8d 35 ac 23 00 00 	lea    0x23ac(%rip),%rsi        # d9a7 <g_2250+0x1936>
    b5fb:	48 89 c7             	mov    %rax,%rdi
    b5fe:	e8 f0 a0 ff ff       	callq  56f3 <transparent_crc>
    b603:	8b 05 ef 65 00 00    	mov    0x65ef(%rip),%eax        # 11bf8 <g_1395>
    b609:	89 c1                	mov    %eax,%ecx
    b60b:	8b 45 fc             	mov    -0x4(%rbp),%eax
    b60e:	89 c2                	mov    %eax,%edx
    b610:	48 8d 35 9a 23 00 00 	lea    0x239a(%rip),%rsi        # d9b1 <g_2250+0x1940>
    b617:	48 89 cf             	mov    %rcx,%rdi
    b61a:	e8 d4 a0 ff ff       	callq  56f3 <transparent_crc>
    b61f:	0f b6 05 d2 65 00 00 	movzbl 0x65d2(%rip),%eax        # 11bf8 <g_1395>
    b626:	48 0f be c0          	movsbq %al,%rax
    b62a:	8b 55 fc             	mov    -0x4(%rbp),%edx
    b62d:	48 8d 35 87 23 00 00 	lea    0x2387(%rip),%rsi        # d9bb <g_2250+0x194a>
    b634:	48 89 c7             	mov    %rax,%rdi
    b637:	e8 b7 a0 ff ff       	callq  56f3 <transparent_crc>
    b63c:	0f b7 05 b5 65 00 00 	movzwl 0x65b5(%rip),%eax        # 11bf8 <g_1395>
    b643:	0f b7 c0             	movzwl %ax,%eax
    b646:	8b 55 fc             	mov    -0x4(%rbp),%edx
    b649:	48 8d 35 75 23 00 00 	lea    0x2375(%rip),%rsi        # d9c5 <g_2250+0x1954>
    b650:	48 89 c7             	mov    %rax,%rdi
    b653:	e8 9b a0 ff ff       	callq  56f3 <transparent_crc>
    b658:	0f b6 05 9d 65 00 00 	movzbl 0x659d(%rip),%eax        # 11bfc <g_1502>
    b65f:	48 0f be c0          	movsbq %al,%rax
    b663:	8b 55 fc             	mov    -0x4(%rbp),%edx
    b666:	48 8d 35 62 23 00 00 	lea    0x2362(%rip),%rsi        # d9cf <g_2250+0x195e>
    b66d:	48 89 c7             	mov    %rax,%rdi
    b670:	e8 7e a0 ff ff       	callq  56f3 <transparent_crc>
    b675:	8b 05 85 65 00 00    	mov    0x6585(%rip),%eax        # 11c00 <g_1538>
    b67b:	48 98                	cltq   
    b67d:	8b 55 fc             	mov    -0x4(%rbp),%edx
    b680:	48 8d 35 4f 23 00 00 	lea    0x234f(%rip),%rsi        # d9d6 <g_2250+0x1965>
    b687:	48 89 c7             	mov    %rax,%rdi
    b68a:	e8 64 a0 ff ff       	callq  56f3 <transparent_crc>
    b68f:	8b 05 6f 65 00 00    	mov    0x656f(%rip),%eax        # 11c04 <g_1602>
    b695:	89 c1                	mov    %eax,%ecx
    b697:	8b 45 fc             	mov    -0x4(%rbp),%eax
    b69a:	89 c2                	mov    %eax,%edx
    b69c:	48 8d 35 3a 23 00 00 	lea    0x233a(%rip),%rsi        # d9dd <g_2250+0x196c>
    b6a3:	48 89 cf             	mov    %rcx,%rdi
    b6a6:	e8 48 a0 ff ff       	callq  56f3 <transparent_crc>
    b6ab:	0f b6 05 52 65 00 00 	movzbl 0x6552(%rip),%eax        # 11c04 <g_1602>
    b6b2:	0f b6 c0             	movzbl %al,%eax
    b6b5:	8b 55 fc             	mov    -0x4(%rbp),%edx
    b6b8:	48 8d 35 28 23 00 00 	lea    0x2328(%rip),%rsi        # d9e7 <g_2250+0x1976>
    b6bf:	48 89 c7             	mov    %rax,%rdi
    b6c2:	e8 2c a0 ff ff       	callq  56f3 <transparent_crc>
    b6c7:	8b 05 37 65 00 00    	mov    0x6537(%rip),%eax        # 11c04 <g_1602>
    b6cd:	89 c1                	mov    %eax,%ecx
    b6cf:	8b 45 fc             	mov    -0x4(%rbp),%eax
    b6d2:	89 c2                	mov    %eax,%edx
    b6d4:	48 8d 35 16 23 00 00 	lea    0x2316(%rip),%rsi        # d9f1 <g_2250+0x1980>
    b6db:	48 89 cf             	mov    %rcx,%rdi
    b6de:	e8 10 a0 ff ff       	callq  56f3 <transparent_crc>
    b6e3:	0f b6 05 1a 65 00 00 	movzbl 0x651a(%rip),%eax        # 11c04 <g_1602>
    b6ea:	48 0f be c0          	movsbq %al,%rax
    b6ee:	8b 55 fc             	mov    -0x4(%rbp),%edx
    b6f1:	48 8d 35 03 23 00 00 	lea    0x2303(%rip),%rsi        # d9fb <g_2250+0x198a>
    b6f8:	48 89 c7             	mov    %rax,%rdi
    b6fb:	e8 f3 9f ff ff       	callq  56f3 <transparent_crc>
    b700:	0f b7 05 fd 64 00 00 	movzwl 0x64fd(%rip),%eax        # 11c04 <g_1602>
    b707:	0f b7 c0             	movzwl %ax,%eax
    b70a:	8b 55 fc             	mov    -0x4(%rbp),%edx
    b70d:	48 8d 35 f1 22 00 00 	lea    0x22f1(%rip),%rsi        # da05 <g_2250+0x1994>
    b714:	48 89 c7             	mov    %rax,%rdi
    b717:	e8 d7 9f ff ff       	callq  56f3 <transparent_crc>
    b71c:	8b 05 e6 64 00 00    	mov    0x64e6(%rip),%eax        # 11c08 <g_1606>
    b722:	89 c1                	mov    %eax,%ecx
    b724:	8b 45 fc             	mov    -0x4(%rbp),%eax
    b727:	89 c2                	mov    %eax,%edx
    b729:	48 8d 35 df 22 00 00 	lea    0x22df(%rip),%rsi        # da0f <g_2250+0x199e>
    b730:	48 89 cf             	mov    %rcx,%rdi
    b733:	e8 bb 9f ff ff       	callq  56f3 <transparent_crc>
    b738:	0f b6 05 c9 64 00 00 	movzbl 0x64c9(%rip),%eax        # 11c08 <g_1606>
    b73f:	0f b6 c0             	movzbl %al,%eax
    b742:	8b 55 fc             	mov    -0x4(%rbp),%edx
    b745:	48 8d 35 cd 22 00 00 	lea    0x22cd(%rip),%rsi        # da19 <g_2250+0x19a8>
    b74c:	48 89 c7             	mov    %rax,%rdi
    b74f:	e8 9f 9f ff ff       	callq  56f3 <transparent_crc>
    b754:	8b 05 ae 64 00 00    	mov    0x64ae(%rip),%eax        # 11c08 <g_1606>
    b75a:	89 c1                	mov    %eax,%ecx
    b75c:	8b 45 fc             	mov    -0x4(%rbp),%eax
    b75f:	89 c2                	mov    %eax,%edx
    b761:	48 8d 35 bb 22 00 00 	lea    0x22bb(%rip),%rsi        # da23 <g_2250+0x19b2>
    b768:	48 89 cf             	mov    %rcx,%rdi
    b76b:	e8 83 9f ff ff       	callq  56f3 <transparent_crc>
    b770:	0f b6 05 91 64 00 00 	movzbl 0x6491(%rip),%eax        # 11c08 <g_1606>
    b777:	48 0f be c0          	movsbq %al,%rax
    b77b:	8b 55 fc             	mov    -0x4(%rbp),%edx
    b77e:	48 8d 35 a8 22 00 00 	lea    0x22a8(%rip),%rsi        # da2d <g_2250+0x19bc>
    b785:	48 89 c7             	mov    %rax,%rdi
    b788:	e8 66 9f ff ff       	callq  56f3 <transparent_crc>
    b78d:	0f b7 05 74 64 00 00 	movzwl 0x6474(%rip),%eax        # 11c08 <g_1606>
    b794:	0f b7 c0             	movzwl %ax,%eax
    b797:	8b 55 fc             	mov    -0x4(%rbp),%edx
    b79a:	48 8d 35 96 22 00 00 	lea    0x2296(%rip),%rsi        # da37 <g_2250+0x19c6>
    b7a1:	48 89 c7             	mov    %rax,%rdi
    b7a4:	e8 4a 9f ff ff       	callq  56f3 <transparent_crc>
    b7a9:	48 8b 05 60 64 00 00 	mov    0x6460(%rip),%rax        # 11c10 <g_1777>
    b7b0:	25 ff ff 7f 00       	and    $0x7fffff,%eax
    b7b5:	89 c1                	mov    %eax,%ecx
    b7b7:	8b 45 fc             	mov    -0x4(%rbp),%eax
    b7ba:	89 c2                	mov    %eax,%edx
    b7bc:	48 8d 35 7e 22 00 00 	lea    0x227e(%rip),%rsi        # da41 <g_2250+0x19d0>
    b7c3:	48 89 cf             	mov    %rcx,%rdi
    b7c6:	e8 28 9f ff ff       	callq  56f3 <transparent_crc>
    b7cb:	8b 05 47 64 00 00    	mov    0x6447(%rip),%eax        # 11c18 <g_1822>
    b7d1:	89 c1                	mov    %eax,%ecx
    b7d3:	8b 45 fc             	mov    -0x4(%rbp),%eax
    b7d6:	89 c2                	mov    %eax,%edx
    b7d8:	48 8d 35 6c 22 00 00 	lea    0x226c(%rip),%rsi        # da4b <g_2250+0x19da>
    b7df:	48 89 cf             	mov    %rcx,%rdi
    b7e2:	e8 0c 9f ff ff       	callq  56f3 <transparent_crc>
    b7e7:	0f b6 05 2a 64 00 00 	movzbl 0x642a(%rip),%eax        # 11c18 <g_1822>
    b7ee:	0f b6 c0             	movzbl %al,%eax
    b7f1:	8b 55 fc             	mov    -0x4(%rbp),%edx
    b7f4:	48 8d 35 5a 22 00 00 	lea    0x225a(%rip),%rsi        # da55 <g_2250+0x19e4>
    b7fb:	48 89 c7             	mov    %rax,%rdi
    b7fe:	e8 f0 9e ff ff       	callq  56f3 <transparent_crc>
    b803:	8b 05 0f 64 00 00    	mov    0x640f(%rip),%eax        # 11c18 <g_1822>
    b809:	89 c1                	mov    %eax,%ecx
    b80b:	8b 45 fc             	mov    -0x4(%rbp),%eax
    b80e:	89 c2                	mov    %eax,%edx
    b810:	48 8d 35 48 22 00 00 	lea    0x2248(%rip),%rsi        # da5f <g_2250+0x19ee>
    b817:	48 89 cf             	mov    %rcx,%rdi
    b81a:	e8 d4 9e ff ff       	callq  56f3 <transparent_crc>
    b81f:	0f b6 05 f2 63 00 00 	movzbl 0x63f2(%rip),%eax        # 11c18 <g_1822>
    b826:	48 0f be c0          	movsbq %al,%rax
    b82a:	8b 55 fc             	mov    -0x4(%rbp),%edx
    b82d:	48 8d 35 35 22 00 00 	lea    0x2235(%rip),%rsi        # da69 <g_2250+0x19f8>
    b834:	48 89 c7             	mov    %rax,%rdi
    b837:	e8 b7 9e ff ff       	callq  56f3 <transparent_crc>
    b83c:	0f b7 05 d5 63 00 00 	movzwl 0x63d5(%rip),%eax        # 11c18 <g_1822>
    b843:	0f b7 c0             	movzwl %ax,%eax
    b846:	8b 55 fc             	mov    -0x4(%rbp),%edx
    b849:	48 8d 35 23 22 00 00 	lea    0x2223(%rip),%rsi        # da73 <g_2250+0x1a02>
    b850:	48 89 c7             	mov    %rax,%rdi
    b853:	e8 9b 9e ff ff       	callq  56f3 <transparent_crc>
    b858:	8b 05 6a 7d 00 00    	mov    0x7d6a(%rip),%eax        # 135c8 <g_1832>
    b85e:	48 98                	cltq   
    b860:	8b 55 fc             	mov    -0x4(%rbp),%edx
    b863:	48 8d 35 13 22 00 00 	lea    0x2213(%rip),%rsi        # da7d <g_2250+0x1a0c>
    b86a:	48 89 c7             	mov    %rax,%rdi
    b86d:	e8 81 9e ff ff       	callq  56f3 <transparent_crc>
    b872:	48 8b 05 a7 63 00 00 	mov    0x63a7(%rip),%rax        # 11c20 <g_1909>
    b879:	25 ff ff 7f 00       	and    $0x7fffff,%eax
    b87e:	89 c1                	mov    %eax,%ecx
    b880:	8b 45 fc             	mov    -0x4(%rbp),%eax
    b883:	89 c2                	mov    %eax,%edx
    b885:	48 8d 35 f8 21 00 00 	lea    0x21f8(%rip),%rsi        # da84 <g_2250+0x1a13>
    b88c:	48 89 cf             	mov    %rcx,%rdi
    b88f:	e8 5f 9e ff ff       	callq  56f3 <transparent_crc>
    b894:	0f b7 05 8d 63 00 00 	movzwl 0x638d(%rip),%eax        # 11c28 <g_1959>
    b89b:	0f b7 c0             	movzwl %ax,%eax
    b89e:	8b 55 fc             	mov    -0x4(%rbp),%edx
    b8a1:	48 8d 35 e6 21 00 00 	lea    0x21e6(%rip),%rsi        # da8e <g_2250+0x1a1d>
    b8a8:	48 89 c7             	mov    %rax,%rdi
    b8ab:	e8 43 9e ff ff       	callq  56f3 <transparent_crc>
    b8b0:	8b 05 22 7d 00 00    	mov    0x7d22(%rip),%eax        # 135d8 <g_1989>
    b8b6:	89 c1                	mov    %eax,%ecx
    b8b8:	8b 45 fc             	mov    -0x4(%rbp),%eax
    b8bb:	89 c2                	mov    %eax,%edx
    b8bd:	48 8d 35 d1 21 00 00 	lea    0x21d1(%rip),%rsi        # da95 <g_2250+0x1a24>
    b8c4:	48 89 cf             	mov    %rcx,%rdi
    b8c7:	e8 27 9e ff ff       	callq  56f3 <transparent_crc>
    b8cc:	0f b6 05 05 7d 00 00 	movzbl 0x7d05(%rip),%eax        # 135d8 <g_1989>
    b8d3:	0f b6 c0             	movzbl %al,%eax
    b8d6:	8b 55 fc             	mov    -0x4(%rbp),%edx
    b8d9:	48 8d 35 bf 21 00 00 	lea    0x21bf(%rip),%rsi        # da9f <g_2250+0x1a2e>
    b8e0:	48 89 c7             	mov    %rax,%rdi
    b8e3:	e8 0b 9e ff ff       	callq  56f3 <transparent_crc>
    b8e8:	8b 05 ea 7c 00 00    	mov    0x7cea(%rip),%eax        # 135d8 <g_1989>
    b8ee:	89 c1                	mov    %eax,%ecx
    b8f0:	8b 45 fc             	mov    -0x4(%rbp),%eax
    b8f3:	89 c2                	mov    %eax,%edx
    b8f5:	48 8d 35 ad 21 00 00 	lea    0x21ad(%rip),%rsi        # daa9 <g_2250+0x1a38>
    b8fc:	48 89 cf             	mov    %rcx,%rdi
    b8ff:	e8 ef 9d ff ff       	callq  56f3 <transparent_crc>
    b904:	0f b6 05 cd 7c 00 00 	movzbl 0x7ccd(%rip),%eax        # 135d8 <g_1989>
    b90b:	48 0f be c0          	movsbq %al,%rax
    b90f:	8b 55 fc             	mov    -0x4(%rbp),%edx
    b912:	48 8d 35 9a 21 00 00 	lea    0x219a(%rip),%rsi        # dab3 <g_2250+0x1a42>
    b919:	48 89 c7             	mov    %rax,%rdi
    b91c:	e8 d2 9d ff ff       	callq  56f3 <transparent_crc>
    b921:	0f b7 05 b0 7c 00 00 	movzwl 0x7cb0(%rip),%eax        # 135d8 <g_1989>
    b928:	0f b7 c0             	movzwl %ax,%eax
    b92b:	8b 55 fc             	mov    -0x4(%rbp),%edx
    b92e:	48 8d 35 88 21 00 00 	lea    0x2188(%rip),%rsi        # dabd <g_2250+0x1a4c>
    b935:	48 89 c7             	mov    %rax,%rdi
    b938:	e8 b6 9d ff ff       	callq  56f3 <transparent_crc>
    b93d:	0f b6 05 e8 62 00 00 	movzbl 0x62e8(%rip),%eax        # 11c2c <g_2014>
    b944:	0f b6 c0             	movzbl %al,%eax
    b947:	8b 55 fc             	mov    -0x4(%rbp),%edx
    b94a:	48 8d 35 76 21 00 00 	lea    0x2176(%rip),%rsi        # dac7 <g_2250+0x1a56>
    b951:	48 89 c7             	mov    %rax,%rdi
    b954:	e8 9a 9d ff ff       	callq  56f3 <transparent_crc>
    b959:	0f b6 05 cc 62 00 00 	movzbl 0x62cc(%rip),%eax        # 11c2c <g_2014>
    b960:	48 0f be c0          	movsbq %al,%rax
    b964:	8b 55 fc             	mov    -0x4(%rbp),%edx
    b967:	48 8d 35 63 21 00 00 	lea    0x2163(%rip),%rsi        # dad1 <g_2250+0x1a60>
    b96e:	48 89 c7             	mov    %rax,%rdi
    b971:	e8 7d 9d ff ff       	callq  56f3 <transparent_crc>
    b976:	8b 05 b4 62 00 00    	mov    0x62b4(%rip),%eax        # 11c30 <g_2017>
    b97c:	89 c1                	mov    %eax,%ecx
    b97e:	8b 45 fc             	mov    -0x4(%rbp),%eax
    b981:	89 c2                	mov    %eax,%edx
    b983:	48 8d 35 51 21 00 00 	lea    0x2151(%rip),%rsi        # dadb <g_2250+0x1a6a>
    b98a:	48 89 cf             	mov    %rcx,%rdi
    b98d:	e8 61 9d ff ff       	callq  56f3 <transparent_crc>
    b992:	0f b6 05 97 62 00 00 	movzbl 0x6297(%rip),%eax        # 11c30 <g_2017>
    b999:	0f b6 c0             	movzbl %al,%eax
    b99c:	8b 55 fc             	mov    -0x4(%rbp),%edx
    b99f:	48 8d 35 3f 21 00 00 	lea    0x213f(%rip),%rsi        # dae5 <g_2250+0x1a74>
    b9a6:	48 89 c7             	mov    %rax,%rdi
    b9a9:	e8 45 9d ff ff       	callq  56f3 <transparent_crc>
    b9ae:	8b 05 7c 62 00 00    	mov    0x627c(%rip),%eax        # 11c30 <g_2017>
    b9b4:	89 c1                	mov    %eax,%ecx
    b9b6:	8b 45 fc             	mov    -0x4(%rbp),%eax
    b9b9:	89 c2                	mov    %eax,%edx
    b9bb:	48 8d 35 2d 21 00 00 	lea    0x212d(%rip),%rsi        # daef <g_2250+0x1a7e>
    b9c2:	48 89 cf             	mov    %rcx,%rdi
    b9c5:	e8 29 9d ff ff       	callq  56f3 <transparent_crc>
    b9ca:	0f b6 05 5f 62 00 00 	movzbl 0x625f(%rip),%eax        # 11c30 <g_2017>
    b9d1:	48 0f be c0          	movsbq %al,%rax
    b9d5:	8b 55 fc             	mov    -0x4(%rbp),%edx
    b9d8:	48 8d 35 1a 21 00 00 	lea    0x211a(%rip),%rsi        # daf9 <g_2250+0x1a88>
    b9df:	48 89 c7             	mov    %rax,%rdi
    b9e2:	e8 0c 9d ff ff       	callq  56f3 <transparent_crc>
    b9e7:	0f b7 05 42 62 00 00 	movzwl 0x6242(%rip),%eax        # 11c30 <g_2017>
    b9ee:	0f b7 c0             	movzwl %ax,%eax
    b9f1:	8b 55 fc             	mov    -0x4(%rbp),%edx
    b9f4:	48 8d 35 08 21 00 00 	lea    0x2108(%rip),%rsi        # db03 <g_2250+0x1a92>
    b9fb:	48 89 c7             	mov    %rax,%rdi
    b9fe:	e8 f0 9c ff ff       	callq  56f3 <transparent_crc>
    ba03:	48 8b 05 2e 62 00 00 	mov    0x622e(%rip),%rax        # 11c38 <g_2071>
    ba0a:	8b 55 fc             	mov    -0x4(%rbp),%edx
    ba0d:	48 8d 35 f9 20 00 00 	lea    0x20f9(%rip),%rsi        # db0d <g_2250+0x1a9c>
    ba14:	48 89 c7             	mov    %rax,%rdi
    ba17:	e8 d7 9c ff ff       	callq  56f3 <transparent_crc>
    ba1c:	8b 05 1e 62 00 00    	mov    0x621e(%rip),%eax        # 11c40 <g_2182>
    ba22:	89 c1                	mov    %eax,%ecx
    ba24:	8b 45 fc             	mov    -0x4(%rbp),%eax
    ba27:	89 c2                	mov    %eax,%edx
    ba29:	48 8d 35 e4 20 00 00 	lea    0x20e4(%rip),%rsi        # db14 <g_2250+0x1aa3>
    ba30:	48 89 cf             	mov    %rcx,%rdi
    ba33:	e8 bb 9c ff ff       	callq  56f3 <transparent_crc>
    ba38:	0f b6 05 01 62 00 00 	movzbl 0x6201(%rip),%eax        # 11c40 <g_2182>
    ba3f:	0f b6 c0             	movzbl %al,%eax
    ba42:	8b 55 fc             	mov    -0x4(%rbp),%edx
    ba45:	48 8d 35 d2 20 00 00 	lea    0x20d2(%rip),%rsi        # db1e <g_2250+0x1aad>
    ba4c:	48 89 c7             	mov    %rax,%rdi
    ba4f:	e8 9f 9c ff ff       	callq  56f3 <transparent_crc>
    ba54:	8b 05 e6 61 00 00    	mov    0x61e6(%rip),%eax        # 11c40 <g_2182>
    ba5a:	89 c1                	mov    %eax,%ecx
    ba5c:	8b 45 fc             	mov    -0x4(%rbp),%eax
    ba5f:	89 c2                	mov    %eax,%edx
    ba61:	48 8d 35 c0 20 00 00 	lea    0x20c0(%rip),%rsi        # db28 <g_2250+0x1ab7>
    ba68:	48 89 cf             	mov    %rcx,%rdi
    ba6b:	e8 83 9c ff ff       	callq  56f3 <transparent_crc>
    ba70:	0f b6 05 c9 61 00 00 	movzbl 0x61c9(%rip),%eax        # 11c40 <g_2182>
    ba77:	48 0f be c0          	movsbq %al,%rax
    ba7b:	8b 55 fc             	mov    -0x4(%rbp),%edx
    ba7e:	48 8d 35 ad 20 00 00 	lea    0x20ad(%rip),%rsi        # db32 <g_2250+0x1ac1>
    ba85:	48 89 c7             	mov    %rax,%rdi
    ba88:	e8 66 9c ff ff       	callq  56f3 <transparent_crc>
    ba8d:	0f b7 05 ac 61 00 00 	movzwl 0x61ac(%rip),%eax        # 11c40 <g_2182>
    ba94:	0f b7 c0             	movzwl %ax,%eax
    ba97:	8b 55 fc             	mov    -0x4(%rbp),%edx
    ba9a:	48 8d 35 9b 20 00 00 	lea    0x209b(%rip),%rsi        # db3c <g_2250+0x1acb>
    baa1:	48 89 c7             	mov    %rax,%rdi
    baa4:	e8 4a 9c ff ff       	callq  56f3 <transparent_crc>
    baa9:	0f b6 05 94 61 00 00 	movzbl 0x6194(%rip),%eax        # 11c44 <g_2189>
    bab0:	48 0f be c0          	movsbq %al,%rax
    bab4:	8b 55 fc             	mov    -0x4(%rbp),%edx
    bab7:	48 8d 35 88 20 00 00 	lea    0x2088(%rip),%rsi        # db46 <g_2250+0x1ad5>
    babe:	48 89 c7             	mov    %rax,%rdi
    bac1:	e8 2d 9c ff ff       	callq  56f3 <transparent_crc>
    bac6:	48 8b 05 7b 61 00 00 	mov    0x617b(%rip),%rax        # 11c48 <g_2194>
    bacd:	25 ff ff 7f 00       	and    $0x7fffff,%eax
    bad2:	89 c1                	mov    %eax,%ecx
    bad4:	8b 45 fc             	mov    -0x4(%rbp),%eax
    bad7:	89 c2                	mov    %eax,%edx
    bad9:	48 8d 35 6d 20 00 00 	lea    0x206d(%rip),%rsi        # db4d <g_2250+0x1adc>
    bae0:	48 89 cf             	mov    %rcx,%rdi
    bae3:	e8 0b 9c ff ff       	callq  56f3 <transparent_crc>
    bae8:	48 8b 05 61 61 00 00 	mov    0x6161(%rip),%rax        # 11c50 <g_2196>
    baef:	25 ff ff 7f 00       	and    $0x7fffff,%eax
    baf4:	89 c1                	mov    %eax,%ecx
    baf6:	8b 45 fc             	mov    -0x4(%rbp),%eax
    baf9:	89 c2                	mov    %eax,%edx
    bafb:	48 8d 35 55 20 00 00 	lea    0x2055(%rip),%rsi        # db57 <g_2250+0x1ae6>
    bb02:	48 89 cf             	mov    %rcx,%rdi
    bb05:	e8 e9 9b ff ff       	callq  56f3 <transparent_crc>
    bb0a:	0f b6 05 47 61 00 00 	movzbl 0x6147(%rip),%eax        # 11c58 <g_2212>
    bb11:	0f b6 c0             	movzbl %al,%eax
    bb14:	8b 55 fc             	mov    -0x4(%rbp),%edx
    bb17:	48 8d 35 43 20 00 00 	lea    0x2043(%rip),%rsi        # db61 <g_2250+0x1af0>
    bb1e:	48 89 c7             	mov    %rax,%rdi
    bb21:	e8 cd 9b ff ff       	callq  56f3 <transparent_crc>
    bb26:	b8 c4 ff ff ff       	mov    $0xffffffc4,%eax
    bb2b:	48 0f be c0          	movsbq %al,%rax
    bb2f:	8b 55 fc             	mov    -0x4(%rbp),%edx
    bb32:	48 8d 35 2f 20 00 00 	lea    0x202f(%rip),%rsi        # db68 <g_2250+0x1af7>
    bb39:	48 89 c7             	mov    %rax,%rdi
    bb3c:	e8 b2 9b ff ff       	callq  56f3 <transparent_crc>
    bb41:	8b 05 d9 54 00 00    	mov    0x54d9(%rip),%eax        # 11020 <crc32_context>
    bb47:	f7 d0                	not    %eax
    bb49:	89 c2                	mov    %eax,%edx
    bb4b:	8b 45 fc             	mov    -0x4(%rbp),%eax
    bb4e:	89 c6                	mov    %eax,%esi
    bb50:	89 d7                	mov    %edx,%edi
    bb52:	e8 3d 86 ff ff       	callq  4194 <platform_main_end>
    bb57:	b8 00 00 00 00       	mov    $0x0,%eax
    bb5c:	c9                   	leaveq 
    bb5d:	c3                   	retq   
    bb5e:	66 90                	xchg   %ax,%ax

000000000000bb60 <__libc_csu_init>:
    bb60:	f3 0f 1e fa          	endbr64 
    bb64:	41 57                	push   %r15
    bb66:	4c 8d 3d 43 51 00 00 	lea    0x5143(%rip),%r15        # 10cb0 <__frame_dummy_init_array_entry>
    bb6d:	41 56                	push   %r14
    bb6f:	49 89 d6             	mov    %rdx,%r14
    bb72:	41 55                	push   %r13
    bb74:	49 89 f5             	mov    %rsi,%r13
    bb77:	41 54                	push   %r12
    bb79:	41 89 fc             	mov    %edi,%r12d
    bb7c:	55                   	push   %rbp
    bb7d:	48 8d 2d 34 51 00 00 	lea    0x5134(%rip),%rbp        # 10cb8 <__do_global_dtors_aux_fini_array_entry>
    bb84:	53                   	push   %rbx
    bb85:	4c 29 fd             	sub    %r15,%rbp
    bb88:	48 83 ec 08          	sub    $0x8,%rsp
    bb8c:	e8 6f 84 ff ff       	callq  4000 <_init>
    bb91:	48 c1 fd 03          	sar    $0x3,%rbp
    bb95:	74 1f                	je     bbb6 <__libc_csu_init+0x56>
    bb97:	31 db                	xor    %ebx,%ebx
    bb99:	0f 1f 80 00 00 00 00 	nopl   0x0(%rax)
    bba0:	4c 89 f2             	mov    %r14,%rdx
    bba3:	4c 89 ee             	mov    %r13,%rsi
    bba6:	44 89 e7             	mov    %r12d,%edi
    bba9:	41 ff 14 df          	callq  *(%r15,%rbx,8)
    bbad:	48 83 c3 01          	add    $0x1,%rbx
    bbb1:	48 39 dd             	cmp    %rbx,%rbp
    bbb4:	75 ea                	jne    bba0 <__libc_csu_init+0x40>
    bbb6:	48 83 c4 08          	add    $0x8,%rsp
    bbba:	5b                   	pop    %rbx
    bbbb:	5d                   	pop    %rbp
    bbbc:	41 5c                	pop    %r12
    bbbe:	41 5d                	pop    %r13
    bbc0:	41 5e                	pop    %r14
    bbc2:	41 5f                	pop    %r15
    bbc4:	c3                   	retq   
    bbc5:	66 66 2e 0f 1f 84 00 	data16 nopw %cs:0x0(%rax,%rax,1)
    bbcc:	00 00 00 00 

000000000000bbd0 <__libc_csu_fini>:
    bbd0:	f3 0f 1e fa          	endbr64 
    bbd4:	c3                   	retq   
