


Disassembly of section .text:

00000000000060a0 <_start>:
    60a0:	f3 0f 1e fa          	endbr64 
    60a4:	31 ed                	xor    %ebp,%ebp
    60a6:	49 89 d1             	mov    %rdx,%r9
    60a9:	5e                   	pop    %rsi
    60aa:	48 89 e2             	mov    %rsp,%rdx
    60ad:	48 83 e4 f0          	and    $0xfffffffffffffff0,%rsp
    60b1:	50                   	push   %rax
    60b2:	54                   	push   %rsp
    60b3:	4c 8d 05 36 1e 01 00 	lea    0x11e36(%rip),%r8        # 17ef0 <__libc_csu_fini>
    60ba:	48 8d 0d bf 1d 01 00 	lea    0x11dbf(%rip),%rcx        # 17e80 <__libc_csu_init>
    60c1:	48 8d 3d 42 bd 00 00 	lea    0xbd42(%rip),%rdi        # 11e0a <main>
    60c8:	ff 15 0a 7f 01 00    	callq  *0x17f0a(%rip)        # 1dfd8 <__libc_start_main@GLIBC_2.2.5>
    60ce:	f4                   	hlt    
    60cf:	90                   	nop

00000000000060d0 <deregister_tm_clones>:
    60d0:	48 8d 3d 51 c1 01 00 	lea    0x1c151(%rip),%rdi        # 22228 <__TMC_END__>
    60d7:	48 8d 05 4a c1 01 00 	lea    0x1c14a(%rip),%rax        # 22228 <__TMC_END__>
    60de:	48 39 f8             	cmp    %rdi,%rax
    60e1:	74 15                	je     60f8 <deregister_tm_clones+0x28>
    60e3:	48 8b 05 e6 7e 01 00 	mov    0x17ee6(%rip),%rax        # 1dfd0 <_ITM_deregisterTMCloneTable>
    60ea:	48 85 c0             	test   %rax,%rax
    60ed:	74 09                	je     60f8 <deregister_tm_clones+0x28>
    60ef:	ff e0                	jmpq   *%rax
    60f1:	0f 1f 80 00 00 00 00 	nopl   0x0(%rax)
    60f8:	c3                   	retq   
    60f9:	0f 1f 80 00 00 00 00 	nopl   0x0(%rax)

0000000000006100 <register_tm_clones>:
    6100:	48 8d 3d 21 c1 01 00 	lea    0x1c121(%rip),%rdi        # 22228 <__TMC_END__>
    6107:	48 8d 35 1a c1 01 00 	lea    0x1c11a(%rip),%rsi        # 22228 <__TMC_END__>
    610e:	48 29 fe             	sub    %rdi,%rsi
    6111:	48 89 f0             	mov    %rsi,%rax
    6114:	48 c1 ee 3f          	shr    $0x3f,%rsi
    6118:	48 c1 f8 03          	sar    $0x3,%rax
    611c:	48 01 c6             	add    %rax,%rsi
    611f:	48 d1 fe             	sar    %rsi
    6122:	74 14                	je     6138 <register_tm_clones+0x38>
    6124:	48 8b 05 bd 7e 01 00 	mov    0x17ebd(%rip),%rax        # 1dfe8 <_ITM_registerTMCloneTable>
    612b:	48 85 c0             	test   %rax,%rax
    612e:	74 08                	je     6138 <register_tm_clones+0x38>
    6130:	ff e0                	jmpq   *%rax
    6132:	66 0f 1f 44 00 00    	nopw   0x0(%rax,%rax,1)
    6138:	c3                   	retq   
    6139:	0f 1f 80 00 00 00 00 	nopl   0x0(%rax)

0000000000006140 <__do_global_dtors_aux>:
    6140:	f3 0f 1e fa          	endbr64 
    6144:	80 3d f5 c0 01 00 00 	cmpb   $0x0,0x1c0f5(%rip)        # 22240 <completed.8061>
    614b:	75 2b                	jne    6178 <__do_global_dtors_aux+0x38>
    614d:	55                   	push   %rbp
    614e:	48 83 3d 9a 7e 01 00 	cmpq   $0x0,0x17e9a(%rip)        # 1dff0 <__cxa_finalize@GLIBC_2.2.5>
    6155:	00 
    6156:	48 89 e5             	mov    %rsp,%rbp
    6159:	74 0c                	je     6167 <__do_global_dtors_aux+0x27>
    615b:	48 8b 3d a6 7e 01 00 	mov    0x17ea6(%rip),%rdi        # 1e008 <__dso_handle>
    6162:	e8 f9 fe ff ff       	callq  6060 <__cxa_finalize@plt>
    6167:	e8 64 ff ff ff       	callq  60d0 <deregister_tm_clones>
    616c:	c6 05 cd c0 01 00 01 	movb   $0x1,0x1c0cd(%rip)        # 22240 <completed.8061>
    6173:	5d                   	pop    %rbp
    6174:	c3                   	retq   
    6175:	0f 1f 00             	nopl   (%rax)
    6178:	c3                   	retq   
    6179:	0f 1f 80 00 00 00 00 	nopl   0x0(%rax)

0000000000006180 <frame_dummy>:
    6180:	f3 0f 1e fa          	endbr64 
    6184:	e9 77 ff ff ff       	jmpq   6100 <register_tm_clones>

0000000000006189 <platform_main_begin>:
    6189:	f3 0f 1e fa          	endbr64 
    618d:	55                   	push   %rbp
    618e:	48 89 e5             	mov    %rsp,%rbp
    6191:	90                   	nop
    6192:	5d                   	pop    %rbp
    6193:	c3                   	retq   

0000000000006194 <platform_main_end>:
    6194:	f3 0f 1e fa          	endbr64 
    6198:	55                   	push   %rbp
    6199:	48 89 e5             	mov    %rsp,%rbp
    619c:	48 83 ec 10          	sub    $0x10,%rsp
    61a0:	89 7d fc             	mov    %edi,-0x4(%rbp)
    61a3:	89 75 f8             	mov    %esi,-0x8(%rbp)
    61a6:	8b 45 fc             	mov    -0x4(%rbp),%eax
    61a9:	89 c6                	mov    %eax,%esi
    61ab:	48 8d 3d 6e 1e 01 00 	lea    0x11e6e(%rip),%rdi        # 18020 <_IO_stdin_used+0x20>
    61b2:	b8 00 00 00 00       	mov    $0x0,%eax
    61b7:	e8 c4 fe ff ff       	callq  6080 <printf@plt>
    61bc:	90                   	nop
    61bd:	c9                   	leaveq 
    61be:	c3                   	retq   

00000000000061bf <safe_unary_minus_func_int8_t_s>:
    61bf:	f3 0f 1e fa          	endbr64 
    61c3:	55                   	push   %rbp
    61c4:	48 89 e5             	mov    %rsp,%rbp
    61c7:	89 f8                	mov    %edi,%eax
    61c9:	88 45 fc             	mov    %al,-0x4(%rbp)
    61cc:	0f b6 45 fc          	movzbl -0x4(%rbp),%eax
    61d0:	f7 d8                	neg    %eax
    61d2:	5d                   	pop    %rbp
    61d3:	c3                   	retq   

00000000000061d4 <safe_add_func_int8_t_s_s>:
    61d4:	f3 0f 1e fa          	endbr64 
    61d8:	55                   	push   %rbp
    61d9:	48 89 e5             	mov    %rsp,%rbp
    61dc:	89 fa                	mov    %edi,%edx
    61de:	89 f0                	mov    %esi,%eax
    61e0:	88 55 fc             	mov    %dl,-0x4(%rbp)
    61e3:	88 45 f8             	mov    %al,-0x8(%rbp)
    61e6:	0f b6 55 fc          	movzbl -0x4(%rbp),%edx
    61ea:	0f b6 45 f8          	movzbl -0x8(%rbp),%eax
    61ee:	01 d0                	add    %edx,%eax
    61f0:	5d                   	pop    %rbp
    61f1:	c3                   	retq   

00000000000061f2 <safe_sub_func_int8_t_s_s>:
    61f2:	f3 0f 1e fa          	endbr64 
    61f6:	55                   	push   %rbp
    61f7:	48 89 e5             	mov    %rsp,%rbp
    61fa:	89 fa                	mov    %edi,%edx
    61fc:	89 f0                	mov    %esi,%eax
    61fe:	88 55 fc             	mov    %dl,-0x4(%rbp)
    6201:	88 45 f8             	mov    %al,-0x8(%rbp)
    6204:	0f b6 55 fc          	movzbl -0x4(%rbp),%edx
    6208:	0f b6 45 f8          	movzbl -0x8(%rbp),%eax
    620c:	29 c2                	sub    %eax,%edx
    620e:	89 d0                	mov    %edx,%eax
    6210:	5d                   	pop    %rbp
    6211:	c3                   	retq   

0000000000006212 <safe_mul_func_int8_t_s_s>:
    6212:	f3 0f 1e fa          	endbr64 
    6216:	55                   	push   %rbp
    6217:	48 89 e5             	mov    %rsp,%rbp
    621a:	89 fa                	mov    %edi,%edx
    621c:	89 f0                	mov    %esi,%eax
    621e:	88 55 fc             	mov    %dl,-0x4(%rbp)
    6221:	88 45 f8             	mov    %al,-0x8(%rbp)
    6224:	0f b6 45 fc          	movzbl -0x4(%rbp),%eax
    6228:	0f b6 55 f8          	movzbl -0x8(%rbp),%edx
    622c:	0f af c2             	imul   %edx,%eax
    622f:	5d                   	pop    %rbp
    6230:	c3                   	retq   

0000000000006231 <safe_mod_func_int8_t_s_s>:
    6231:	f3 0f 1e fa          	endbr64 
    6235:	55                   	push   %rbp
    6236:	48 89 e5             	mov    %rsp,%rbp
    6239:	89 fa                	mov    %edi,%edx
    623b:	89 f0                	mov    %esi,%eax
    623d:	88 55 fc             	mov    %dl,-0x4(%rbp)
    6240:	88 45 f8             	mov    %al,-0x8(%rbp)
    6243:	80 7d f8 00          	cmpb   $0x0,-0x8(%rbp)
    6247:	74 1b                	je     6264 <safe_mod_func_int8_t_s_s+0x33>
    6249:	80 7d fc 80          	cmpb   $0x80,-0x4(%rbp)
    624d:	75 06                	jne    6255 <safe_mod_func_int8_t_s_s+0x24>
    624f:	80 7d f8 ff          	cmpb   $0xff,-0x8(%rbp)
    6253:	74 0f                	je     6264 <safe_mod_func_int8_t_s_s+0x33>
    6255:	0f be 45 fc          	movsbl -0x4(%rbp),%eax
    6259:	0f be 4d f8          	movsbl -0x8(%rbp),%ecx
    625d:	99                   	cltd   
    625e:	f7 f9                	idiv   %ecx
    6260:	89 d0                	mov    %edx,%eax
    6262:	eb 04                	jmp    6268 <safe_mod_func_int8_t_s_s+0x37>
    6264:	0f b6 45 fc          	movzbl -0x4(%rbp),%eax
    6268:	5d                   	pop    %rbp
    6269:	c3                   	retq   

000000000000626a <safe_div_func_int8_t_s_s>:
    626a:	f3 0f 1e fa          	endbr64 
    626e:	55                   	push   %rbp
    626f:	48 89 e5             	mov    %rsp,%rbp
    6272:	89 fa                	mov    %edi,%edx
    6274:	89 f0                	mov    %esi,%eax
    6276:	88 55 fc             	mov    %dl,-0x4(%rbp)
    6279:	88 45 f8             	mov    %al,-0x8(%rbp)
    627c:	80 7d f8 00          	cmpb   $0x0,-0x8(%rbp)
    6280:	74 19                	je     629b <safe_div_func_int8_t_s_s+0x31>
    6282:	80 7d fc 80          	cmpb   $0x80,-0x4(%rbp)
    6286:	75 06                	jne    628e <safe_div_func_int8_t_s_s+0x24>
    6288:	80 7d f8 ff          	cmpb   $0xff,-0x8(%rbp)
    628c:	74 0d                	je     629b <safe_div_func_int8_t_s_s+0x31>
    628e:	0f be 45 fc          	movsbl -0x4(%rbp),%eax
    6292:	0f be 4d f8          	movsbl -0x8(%rbp),%ecx
    6296:	99                   	cltd   
    6297:	f7 f9                	idiv   %ecx
    6299:	eb 04                	jmp    629f <safe_div_func_int8_t_s_s+0x35>
    629b:	0f b6 45 fc          	movzbl -0x4(%rbp),%eax
    629f:	5d                   	pop    %rbp
    62a0:	c3                   	retq   

00000000000062a1 <safe_lshift_func_int8_t_s_s>:
    62a1:	f3 0f 1e fa          	endbr64 
    62a5:	55                   	push   %rbp
    62a6:	48 89 e5             	mov    %rsp,%rbp
    62a9:	89 f8                	mov    %edi,%eax
    62ab:	89 75 f8             	mov    %esi,-0x8(%rbp)
    62ae:	88 45 fc             	mov    %al,-0x4(%rbp)
    62b1:	80 7d fc 00          	cmpb   $0x0,-0x4(%rbp)
    62b5:	78 31                	js     62e8 <safe_lshift_func_int8_t_s_s+0x47>
    62b7:	83 7d f8 00          	cmpl   $0x0,-0x8(%rbp)
    62bb:	78 2b                	js     62e8 <safe_lshift_func_int8_t_s_s+0x47>
    62bd:	83 7d f8 1f          	cmpl   $0x1f,-0x8(%rbp)
    62c1:	7f 25                	jg     62e8 <safe_lshift_func_int8_t_s_s+0x47>
    62c3:	0f be 55 fc          	movsbl -0x4(%rbp),%edx
    62c7:	8b 45 f8             	mov    -0x8(%rbp),%eax
    62ca:	be 7f 00 00 00       	mov    $0x7f,%esi
    62cf:	89 c1                	mov    %eax,%ecx
    62d1:	d3 fe                	sar    %cl,%esi
    62d3:	89 f0                	mov    %esi,%eax
    62d5:	39 c2                	cmp    %eax,%edx
    62d7:	7f 0f                	jg     62e8 <safe_lshift_func_int8_t_s_s+0x47>
    62d9:	0f be 55 fc          	movsbl -0x4(%rbp),%edx
    62dd:	8b 45 f8             	mov    -0x8(%rbp),%eax
    62e0:	89 c1                	mov    %eax,%ecx
    62e2:	d3 e2                	shl    %cl,%edx
    62e4:	89 d0                	mov    %edx,%eax
    62e6:	eb 04                	jmp    62ec <safe_lshift_func_int8_t_s_s+0x4b>
    62e8:	0f b6 45 fc          	movzbl -0x4(%rbp),%eax
    62ec:	5d                   	pop    %rbp
    62ed:	c3                   	retq   

00000000000062ee <safe_lshift_func_int8_t_s_u>:
    62ee:	f3 0f 1e fa          	endbr64 
    62f2:	55                   	push   %rbp
    62f3:	48 89 e5             	mov    %rsp,%rbp
    62f6:	89 f8                	mov    %edi,%eax
    62f8:	89 75 f8             	mov    %esi,-0x8(%rbp)
    62fb:	88 45 fc             	mov    %al,-0x4(%rbp)
    62fe:	80 7d fc 00          	cmpb   $0x0,-0x4(%rbp)
    6302:	78 2b                	js     632f <safe_lshift_func_int8_t_s_u+0x41>
    6304:	83 7d f8 1f          	cmpl   $0x1f,-0x8(%rbp)
    6308:	77 25                	ja     632f <safe_lshift_func_int8_t_s_u+0x41>
    630a:	0f be 55 fc          	movsbl -0x4(%rbp),%edx
    630e:	8b 45 f8             	mov    -0x8(%rbp),%eax
    6311:	be 7f 00 00 00       	mov    $0x7f,%esi
    6316:	89 c1                	mov    %eax,%ecx
    6318:	d3 fe                	sar    %cl,%esi
    631a:	89 f0                	mov    %esi,%eax
    631c:	39 c2                	cmp    %eax,%edx
    631e:	7f 0f                	jg     632f <safe_lshift_func_int8_t_s_u+0x41>
    6320:	0f be 55 fc          	movsbl -0x4(%rbp),%edx
    6324:	8b 45 f8             	mov    -0x8(%rbp),%eax
    6327:	89 c1                	mov    %eax,%ecx
    6329:	d3 e2                	shl    %cl,%edx
    632b:	89 d0                	mov    %edx,%eax
    632d:	eb 04                	jmp    6333 <safe_lshift_func_int8_t_s_u+0x45>
    632f:	0f b6 45 fc          	movzbl -0x4(%rbp),%eax
    6333:	5d                   	pop    %rbp
    6334:	c3                   	retq   

0000000000006335 <safe_rshift_func_int8_t_s_s>:
    6335:	f3 0f 1e fa          	endbr64 
    6339:	55                   	push   %rbp
    633a:	48 89 e5             	mov    %rsp,%rbp
    633d:	89 f8                	mov    %edi,%eax
    633f:	89 75 f8             	mov    %esi,-0x8(%rbp)
    6342:	88 45 fc             	mov    %al,-0x4(%rbp)
    6345:	80 7d fc 00          	cmpb   $0x0,-0x4(%rbp)
    6349:	78 1b                	js     6366 <safe_rshift_func_int8_t_s_s+0x31>
    634b:	83 7d f8 00          	cmpl   $0x0,-0x8(%rbp)
    634f:	78 15                	js     6366 <safe_rshift_func_int8_t_s_s+0x31>
    6351:	83 7d f8 1f          	cmpl   $0x1f,-0x8(%rbp)
    6355:	7f 0f                	jg     6366 <safe_rshift_func_int8_t_s_s+0x31>
    6357:	0f be 55 fc          	movsbl -0x4(%rbp),%edx
    635b:	8b 45 f8             	mov    -0x8(%rbp),%eax
    635e:	89 c1                	mov    %eax,%ecx
    6360:	d3 fa                	sar    %cl,%edx
    6362:	89 d0                	mov    %edx,%eax
    6364:	eb 04                	jmp    636a <safe_rshift_func_int8_t_s_s+0x35>
    6366:	0f b6 45 fc          	movzbl -0x4(%rbp),%eax
    636a:	5d                   	pop    %rbp
    636b:	c3                   	retq   

000000000000636c <safe_rshift_func_int8_t_s_u>:
    636c:	f3 0f 1e fa          	endbr64 
    6370:	55                   	push   %rbp
    6371:	48 89 e5             	mov    %rsp,%rbp
    6374:	89 f8                	mov    %edi,%eax
    6376:	89 75 f8             	mov    %esi,-0x8(%rbp)
    6379:	88 45 fc             	mov    %al,-0x4(%rbp)
    637c:	80 7d fc 00          	cmpb   $0x0,-0x4(%rbp)
    6380:	78 15                	js     6397 <safe_rshift_func_int8_t_s_u+0x2b>
    6382:	83 7d f8 1f          	cmpl   $0x1f,-0x8(%rbp)
    6386:	77 0f                	ja     6397 <safe_rshift_func_int8_t_s_u+0x2b>
    6388:	0f be 55 fc          	movsbl -0x4(%rbp),%edx
    638c:	8b 45 f8             	mov    -0x8(%rbp),%eax
    638f:	89 c1                	mov    %eax,%ecx
    6391:	d3 fa                	sar    %cl,%edx
    6393:	89 d0                	mov    %edx,%eax
    6395:	eb 04                	jmp    639b <safe_rshift_func_int8_t_s_u+0x2f>
    6397:	0f b6 45 fc          	movzbl -0x4(%rbp),%eax
    639b:	5d                   	pop    %rbp
    639c:	c3                   	retq   

000000000000639d <safe_unary_minus_func_int16_t_s>:
    639d:	f3 0f 1e fa          	endbr64 
    63a1:	55                   	push   %rbp
    63a2:	48 89 e5             	mov    %rsp,%rbp
    63a5:	89 f8                	mov    %edi,%eax
    63a7:	66 89 45 fc          	mov    %ax,-0x4(%rbp)
    63ab:	0f b7 45 fc          	movzwl -0x4(%rbp),%eax
    63af:	f7 d8                	neg    %eax
    63b1:	5d                   	pop    %rbp
    63b2:	c3                   	retq   

00000000000063b3 <safe_add_func_int16_t_s_s>:
    63b3:	f3 0f 1e fa          	endbr64 
    63b7:	55                   	push   %rbp
    63b8:	48 89 e5             	mov    %rsp,%rbp
    63bb:	89 fa                	mov    %edi,%edx
    63bd:	89 f0                	mov    %esi,%eax
    63bf:	66 89 55 fc          	mov    %dx,-0x4(%rbp)
    63c3:	66 89 45 f8          	mov    %ax,-0x8(%rbp)
    63c7:	0f b7 55 fc          	movzwl -0x4(%rbp),%edx
    63cb:	0f b7 45 f8          	movzwl -0x8(%rbp),%eax
    63cf:	01 d0                	add    %edx,%eax
    63d1:	5d                   	pop    %rbp
    63d2:	c3                   	retq   

00000000000063d3 <safe_sub_func_int16_t_s_s>:
    63d3:	f3 0f 1e fa          	endbr64 
    63d7:	55                   	push   %rbp
    63d8:	48 89 e5             	mov    %rsp,%rbp
    63db:	89 fa                	mov    %edi,%edx
    63dd:	89 f0                	mov    %esi,%eax
    63df:	66 89 55 fc          	mov    %dx,-0x4(%rbp)
    63e3:	66 89 45 f8          	mov    %ax,-0x8(%rbp)
    63e7:	0f b7 55 fc          	movzwl -0x4(%rbp),%edx
    63eb:	0f b7 45 f8          	movzwl -0x8(%rbp),%eax
    63ef:	29 c2                	sub    %eax,%edx
    63f1:	89 d0                	mov    %edx,%eax
    63f3:	5d                   	pop    %rbp
    63f4:	c3                   	retq   

00000000000063f5 <safe_mul_func_int16_t_s_s>:
    63f5:	f3 0f 1e fa          	endbr64 
    63f9:	55                   	push   %rbp
    63fa:	48 89 e5             	mov    %rsp,%rbp
    63fd:	89 fa                	mov    %edi,%edx
    63ff:	89 f0                	mov    %esi,%eax
    6401:	66 89 55 fc          	mov    %dx,-0x4(%rbp)
    6405:	66 89 45 f8          	mov    %ax,-0x8(%rbp)
    6409:	0f b7 55 fc          	movzwl -0x4(%rbp),%edx
    640d:	0f b7 45 f8          	movzwl -0x8(%rbp),%eax
    6411:	0f af c2             	imul   %edx,%eax
    6414:	5d                   	pop    %rbp
    6415:	c3                   	retq   

0000000000006416 <safe_mod_func_int16_t_s_s>:
    6416:	f3 0f 1e fa          	endbr64 
    641a:	55                   	push   %rbp
    641b:	48 89 e5             	mov    %rsp,%rbp
    641e:	89 fa                	mov    %edi,%edx
    6420:	89 f0                	mov    %esi,%eax
    6422:	66 89 55 fc          	mov    %dx,-0x4(%rbp)
    6426:	66 89 45 f8          	mov    %ax,-0x8(%rbp)
    642a:	66 83 7d f8 00       	cmpw   $0x0,-0x8(%rbp)
    642f:	74 1e                	je     644f <safe_mod_func_int16_t_s_s+0x39>
    6431:	66 81 7d fc 00 80    	cmpw   $0x8000,-0x4(%rbp)
    6437:	75 07                	jne    6440 <safe_mod_func_int16_t_s_s+0x2a>
    6439:	66 83 7d f8 ff       	cmpw   $0xffff,-0x8(%rbp)
    643e:	74 0f                	je     644f <safe_mod_func_int16_t_s_s+0x39>
    6440:	0f bf 45 fc          	movswl -0x4(%rbp),%eax
    6444:	0f bf 4d f8          	movswl -0x8(%rbp),%ecx
    6448:	99                   	cltd   
    6449:	f7 f9                	idiv   %ecx
    644b:	89 d0                	mov    %edx,%eax
    644d:	eb 04                	jmp    6453 <safe_mod_func_int16_t_s_s+0x3d>
    644f:	0f b7 45 fc          	movzwl -0x4(%rbp),%eax
    6453:	5d                   	pop    %rbp
    6454:	c3                   	retq   

0000000000006455 <safe_div_func_int16_t_s_s>:
    6455:	f3 0f 1e fa          	endbr64 
    6459:	55                   	push   %rbp
    645a:	48 89 e5             	mov    %rsp,%rbp
    645d:	89 fa                	mov    %edi,%edx
    645f:	89 f0                	mov    %esi,%eax
    6461:	66 89 55 fc          	mov    %dx,-0x4(%rbp)
    6465:	66 89 45 f8          	mov    %ax,-0x8(%rbp)
    6469:	66 83 7d f8 00       	cmpw   $0x0,-0x8(%rbp)
    646e:	74 1c                	je     648c <safe_div_func_int16_t_s_s+0x37>
    6470:	66 81 7d fc 00 80    	cmpw   $0x8000,-0x4(%rbp)
    6476:	75 07                	jne    647f <safe_div_func_int16_t_s_s+0x2a>
    6478:	66 83 7d f8 ff       	cmpw   $0xffff,-0x8(%rbp)
    647d:	74 0d                	je     648c <safe_div_func_int16_t_s_s+0x37>
    647f:	0f bf 45 fc          	movswl -0x4(%rbp),%eax
    6483:	0f bf 4d f8          	movswl -0x8(%rbp),%ecx
    6487:	99                   	cltd   
    6488:	f7 f9                	idiv   %ecx
    648a:	eb 04                	jmp    6490 <safe_div_func_int16_t_s_s+0x3b>
    648c:	0f b7 45 fc          	movzwl -0x4(%rbp),%eax
    6490:	5d                   	pop    %rbp
    6491:	c3                   	retq   

0000000000006492 <safe_lshift_func_int16_t_s_s>:
    6492:	f3 0f 1e fa          	endbr64 
    6496:	55                   	push   %rbp
    6497:	48 89 e5             	mov    %rsp,%rbp
    649a:	89 f8                	mov    %edi,%eax
    649c:	89 75 f8             	mov    %esi,-0x8(%rbp)
    649f:	66 89 45 fc          	mov    %ax,-0x4(%rbp)
    64a3:	66 83 7d fc 00       	cmpw   $0x0,-0x4(%rbp)
    64a8:	78 31                	js     64db <safe_lshift_func_int16_t_s_s+0x49>
    64aa:	83 7d f8 00          	cmpl   $0x0,-0x8(%rbp)
    64ae:	78 2b                	js     64db <safe_lshift_func_int16_t_s_s+0x49>
    64b0:	83 7d f8 1f          	cmpl   $0x1f,-0x8(%rbp)
    64b4:	7f 25                	jg     64db <safe_lshift_func_int16_t_s_s+0x49>
    64b6:	0f bf 55 fc          	movswl -0x4(%rbp),%edx
    64ba:	8b 45 f8             	mov    -0x8(%rbp),%eax
    64bd:	be ff 7f 00 00       	mov    $0x7fff,%esi
    64c2:	89 c1                	mov    %eax,%ecx
    64c4:	d3 fe                	sar    %cl,%esi
    64c6:	89 f0                	mov    %esi,%eax
    64c8:	39 c2                	cmp    %eax,%edx
    64ca:	7f 0f                	jg     64db <safe_lshift_func_int16_t_s_s+0x49>
    64cc:	0f bf 55 fc          	movswl -0x4(%rbp),%edx
    64d0:	8b 45 f8             	mov    -0x8(%rbp),%eax
    64d3:	89 c1                	mov    %eax,%ecx
    64d5:	d3 e2                	shl    %cl,%edx
    64d7:	89 d0                	mov    %edx,%eax
    64d9:	eb 04                	jmp    64df <safe_lshift_func_int16_t_s_s+0x4d>
    64db:	0f b7 45 fc          	movzwl -0x4(%rbp),%eax
    64df:	5d                   	pop    %rbp
    64e0:	c3                   	retq   

00000000000064e1 <safe_lshift_func_int16_t_s_u>:
    64e1:	f3 0f 1e fa          	endbr64 
    64e5:	55                   	push   %rbp
    64e6:	48 89 e5             	mov    %rsp,%rbp
    64e9:	89 f8                	mov    %edi,%eax
    64eb:	89 75 f8             	mov    %esi,-0x8(%rbp)
    64ee:	66 89 45 fc          	mov    %ax,-0x4(%rbp)
    64f2:	66 83 7d fc 00       	cmpw   $0x0,-0x4(%rbp)
    64f7:	78 2b                	js     6524 <safe_lshift_func_int16_t_s_u+0x43>
    64f9:	83 7d f8 1f          	cmpl   $0x1f,-0x8(%rbp)
    64fd:	77 25                	ja     6524 <safe_lshift_func_int16_t_s_u+0x43>
    64ff:	0f bf 55 fc          	movswl -0x4(%rbp),%edx
    6503:	8b 45 f8             	mov    -0x8(%rbp),%eax
    6506:	be ff 7f 00 00       	mov    $0x7fff,%esi
    650b:	89 c1                	mov    %eax,%ecx
    650d:	d3 fe                	sar    %cl,%esi
    650f:	89 f0                	mov    %esi,%eax
    6511:	39 c2                	cmp    %eax,%edx
    6513:	7f 0f                	jg     6524 <safe_lshift_func_int16_t_s_u+0x43>
    6515:	0f bf 55 fc          	movswl -0x4(%rbp),%edx
    6519:	8b 45 f8             	mov    -0x8(%rbp),%eax
    651c:	89 c1                	mov    %eax,%ecx
    651e:	d3 e2                	shl    %cl,%edx
    6520:	89 d0                	mov    %edx,%eax
    6522:	eb 04                	jmp    6528 <safe_lshift_func_int16_t_s_u+0x47>
    6524:	0f b7 45 fc          	movzwl -0x4(%rbp),%eax
    6528:	5d                   	pop    %rbp
    6529:	c3                   	retq   

000000000000652a <safe_rshift_func_int16_t_s_s>:
    652a:	f3 0f 1e fa          	endbr64 
    652e:	55                   	push   %rbp
    652f:	48 89 e5             	mov    %rsp,%rbp
    6532:	89 f8                	mov    %edi,%eax
    6534:	89 75 f8             	mov    %esi,-0x8(%rbp)
    6537:	66 89 45 fc          	mov    %ax,-0x4(%rbp)
    653b:	66 83 7d fc 00       	cmpw   $0x0,-0x4(%rbp)
    6540:	78 1b                	js     655d <safe_rshift_func_int16_t_s_s+0x33>
    6542:	83 7d f8 00          	cmpl   $0x0,-0x8(%rbp)
    6546:	78 15                	js     655d <safe_rshift_func_int16_t_s_s+0x33>
    6548:	83 7d f8 1f          	cmpl   $0x1f,-0x8(%rbp)
    654c:	7f 0f                	jg     655d <safe_rshift_func_int16_t_s_s+0x33>
    654e:	0f bf 55 fc          	movswl -0x4(%rbp),%edx
    6552:	8b 45 f8             	mov    -0x8(%rbp),%eax
    6555:	89 c1                	mov    %eax,%ecx
    6557:	d3 fa                	sar    %cl,%edx
    6559:	89 d0                	mov    %edx,%eax
    655b:	eb 04                	jmp    6561 <safe_rshift_func_int16_t_s_s+0x37>
    655d:	0f b7 45 fc          	movzwl -0x4(%rbp),%eax
    6561:	5d                   	pop    %rbp
    6562:	c3                   	retq   

0000000000006563 <safe_rshift_func_int16_t_s_u>:
    6563:	f3 0f 1e fa          	endbr64 
    6567:	55                   	push   %rbp
    6568:	48 89 e5             	mov    %rsp,%rbp
    656b:	89 f8                	mov    %edi,%eax
    656d:	89 75 f8             	mov    %esi,-0x8(%rbp)
    6570:	66 89 45 fc          	mov    %ax,-0x4(%rbp)
    6574:	66 83 7d fc 00       	cmpw   $0x0,-0x4(%rbp)
    6579:	78 15                	js     6590 <safe_rshift_func_int16_t_s_u+0x2d>
    657b:	83 7d f8 1f          	cmpl   $0x1f,-0x8(%rbp)
    657f:	77 0f                	ja     6590 <safe_rshift_func_int16_t_s_u+0x2d>
    6581:	0f bf 55 fc          	movswl -0x4(%rbp),%edx
    6585:	8b 45 f8             	mov    -0x8(%rbp),%eax
    6588:	89 c1                	mov    %eax,%ecx
    658a:	d3 fa                	sar    %cl,%edx
    658c:	89 d0                	mov    %edx,%eax
    658e:	eb 04                	jmp    6594 <safe_rshift_func_int16_t_s_u+0x31>
    6590:	0f b7 45 fc          	movzwl -0x4(%rbp),%eax
    6594:	5d                   	pop    %rbp
    6595:	c3                   	retq   

0000000000006596 <safe_unary_minus_func_int32_t_s>:
    6596:	f3 0f 1e fa          	endbr64 
    659a:	55                   	push   %rbp
    659b:	48 89 e5             	mov    %rsp,%rbp
    659e:	89 7d fc             	mov    %edi,-0x4(%rbp)
    65a1:	81 7d fc 00 00 00 80 	cmpl   $0x80000000,-0x4(%rbp)
    65a8:	74 07                	je     65b1 <safe_unary_minus_func_int32_t_s+0x1b>
    65aa:	8b 45 fc             	mov    -0x4(%rbp),%eax
    65ad:	f7 d8                	neg    %eax
    65af:	eb 03                	jmp    65b4 <safe_unary_minus_func_int32_t_s+0x1e>
    65b1:	8b 45 fc             	mov    -0x4(%rbp),%eax
    65b4:	5d                   	pop    %rbp
    65b5:	c3                   	retq   

00000000000065b6 <safe_add_func_int32_t_s_s>:
    65b6:	f3 0f 1e fa          	endbr64 
    65ba:	55                   	push   %rbp
    65bb:	48 89 e5             	mov    %rsp,%rbp
    65be:	89 7d fc             	mov    %edi,-0x4(%rbp)
    65c1:	89 75 f8             	mov    %esi,-0x8(%rbp)
    65c4:	83 7d fc 00          	cmpl   $0x0,-0x4(%rbp)
    65c8:	7e 13                	jle    65dd <safe_add_func_int32_t_s_s+0x27>
    65ca:	83 7d f8 00          	cmpl   $0x0,-0x8(%rbp)
    65ce:	7e 0d                	jle    65dd <safe_add_func_int32_t_s_s+0x27>
    65d0:	b8 ff ff ff 7f       	mov    $0x7fffffff,%eax
    65d5:	2b 45 f8             	sub    -0x8(%rbp),%eax
    65d8:	39 45 fc             	cmp    %eax,-0x4(%rbp)
    65db:	7f 23                	jg     6600 <safe_add_func_int32_t_s_s+0x4a>
    65dd:	83 7d fc 00          	cmpl   $0x0,-0x4(%rbp)
    65e1:	79 13                	jns    65f6 <safe_add_func_int32_t_s_s+0x40>
    65e3:	83 7d f8 00          	cmpl   $0x0,-0x8(%rbp)
    65e7:	79 0d                	jns    65f6 <safe_add_func_int32_t_s_s+0x40>
    65e9:	b8 00 00 00 80       	mov    $0x80000000,%eax
    65ee:	2b 45 f8             	sub    -0x8(%rbp),%eax
    65f1:	39 45 fc             	cmp    %eax,-0x4(%rbp)
    65f4:	7c 0a                	jl     6600 <safe_add_func_int32_t_s_s+0x4a>
    65f6:	8b 55 fc             	mov    -0x4(%rbp),%edx
    65f9:	8b 45 f8             	mov    -0x8(%rbp),%eax
    65fc:	01 d0                	add    %edx,%eax
    65fe:	eb 03                	jmp    6603 <safe_add_func_int32_t_s_s+0x4d>
    6600:	8b 45 fc             	mov    -0x4(%rbp),%eax
    6603:	5d                   	pop    %rbp
    6604:	c3                   	retq   

0000000000006605 <safe_sub_func_int32_t_s_s>:
    6605:	f3 0f 1e fa          	endbr64 
    6609:	55                   	push   %rbp
    660a:	48 89 e5             	mov    %rsp,%rbp
    660d:	89 7d fc             	mov    %edi,-0x4(%rbp)
    6610:	89 75 f8             	mov    %esi,-0x8(%rbp)
    6613:	8b 45 fc             	mov    -0x4(%rbp),%eax
    6616:	33 45 f8             	xor    -0x8(%rbp),%eax
    6619:	89 c2                	mov    %eax,%edx
    661b:	8b 45 fc             	mov    -0x4(%rbp),%eax
    661e:	33 45 f8             	xor    -0x8(%rbp),%eax
    6621:	25 00 00 00 80       	and    $0x80000000,%eax
    6626:	33 45 fc             	xor    -0x4(%rbp),%eax
    6629:	2b 45 f8             	sub    -0x8(%rbp),%eax
    662c:	33 45 f8             	xor    -0x8(%rbp),%eax
    662f:	21 d0                	and    %edx,%eax
    6631:	85 c0                	test   %eax,%eax
    6633:	78 08                	js     663d <safe_sub_func_int32_t_s_s+0x38>
    6635:	8b 45 fc             	mov    -0x4(%rbp),%eax
    6638:	2b 45 f8             	sub    -0x8(%rbp),%eax
    663b:	eb 03                	jmp    6640 <safe_sub_func_int32_t_s_s+0x3b>
    663d:	8b 45 fc             	mov    -0x4(%rbp),%eax
    6640:	5d                   	pop    %rbp
    6641:	c3                   	retq   

0000000000006642 <safe_mul_func_int32_t_s_s>:
    6642:	f3 0f 1e fa          	endbr64 
    6646:	55                   	push   %rbp
    6647:	48 89 e5             	mov    %rsp,%rbp
    664a:	89 7d fc             	mov    %edi,-0x4(%rbp)
    664d:	89 75 f8             	mov    %esi,-0x8(%rbp)
    6650:	83 7d fc 00          	cmpl   $0x0,-0x4(%rbp)
    6654:	7e 14                	jle    666a <safe_mul_func_int32_t_s_s+0x28>
    6656:	83 7d f8 00          	cmpl   $0x0,-0x8(%rbp)
    665a:	7e 0e                	jle    666a <safe_mul_func_int32_t_s_s+0x28>
    665c:	b8 ff ff ff 7f       	mov    $0x7fffffff,%eax
    6661:	99                   	cltd   
    6662:	f7 7d f8             	idivl  -0x8(%rbp)
    6665:	39 45 fc             	cmp    %eax,-0x4(%rbp)
    6668:	7f 5d                	jg     66c7 <safe_mul_func_int32_t_s_s+0x85>
    666a:	83 7d fc 00          	cmpl   $0x0,-0x4(%rbp)
    666e:	7e 14                	jle    6684 <safe_mul_func_int32_t_s_s+0x42>
    6670:	83 7d f8 00          	cmpl   $0x0,-0x8(%rbp)
    6674:	7f 0e                	jg     6684 <safe_mul_func_int32_t_s_s+0x42>
    6676:	b8 00 00 00 80       	mov    $0x80000000,%eax
    667b:	99                   	cltd   
    667c:	f7 7d fc             	idivl  -0x4(%rbp)
    667f:	39 45 f8             	cmp    %eax,-0x8(%rbp)
    6682:	7c 43                	jl     66c7 <safe_mul_func_int32_t_s_s+0x85>
    6684:	83 7d fc 00          	cmpl   $0x0,-0x4(%rbp)
    6688:	7f 14                	jg     669e <safe_mul_func_int32_t_s_s+0x5c>
    668a:	83 7d f8 00          	cmpl   $0x0,-0x8(%rbp)
    668e:	7e 0e                	jle    669e <safe_mul_func_int32_t_s_s+0x5c>
    6690:	b8 00 00 00 80       	mov    $0x80000000,%eax
    6695:	99                   	cltd   
    6696:	f7 7d f8             	idivl  -0x8(%rbp)
    6699:	39 45 fc             	cmp    %eax,-0x4(%rbp)
    669c:	7c 29                	jl     66c7 <safe_mul_func_int32_t_s_s+0x85>
    669e:	83 7d fc 00          	cmpl   $0x0,-0x4(%rbp)
    66a2:	7f 1a                	jg     66be <safe_mul_func_int32_t_s_s+0x7c>
    66a4:	83 7d f8 00          	cmpl   $0x0,-0x8(%rbp)
    66a8:	7f 14                	jg     66be <safe_mul_func_int32_t_s_s+0x7c>
    66aa:	83 7d fc 00          	cmpl   $0x0,-0x4(%rbp)
    66ae:	74 0e                	je     66be <safe_mul_func_int32_t_s_s+0x7c>
    66b0:	b8 ff ff ff 7f       	mov    $0x7fffffff,%eax
    66b5:	99                   	cltd   
    66b6:	f7 7d fc             	idivl  -0x4(%rbp)
    66b9:	39 45 f8             	cmp    %eax,-0x8(%rbp)
    66bc:	7c 09                	jl     66c7 <safe_mul_func_int32_t_s_s+0x85>
    66be:	8b 45 fc             	mov    -0x4(%rbp),%eax
    66c1:	0f af 45 f8          	imul   -0x8(%rbp),%eax
    66c5:	eb 03                	jmp    66ca <safe_mul_func_int32_t_s_s+0x88>
    66c7:	8b 45 fc             	mov    -0x4(%rbp),%eax
    66ca:	5d                   	pop    %rbp
    66cb:	c3                   	retq   

00000000000066cc <safe_mod_func_int32_t_s_s>:
    66cc:	f3 0f 1e fa          	endbr64 
    66d0:	55                   	push   %rbp
    66d1:	48 89 e5             	mov    %rsp,%rbp
    66d4:	89 7d fc             	mov    %edi,-0x4(%rbp)
    66d7:	89 75 f8             	mov    %esi,-0x8(%rbp)
    66da:	83 7d f8 00          	cmpl   $0x0,-0x8(%rbp)
    66de:	74 1a                	je     66fa <safe_mod_func_int32_t_s_s+0x2e>
    66e0:	81 7d fc 00 00 00 80 	cmpl   $0x80000000,-0x4(%rbp)
    66e7:	75 06                	jne    66ef <safe_mod_func_int32_t_s_s+0x23>
    66e9:	83 7d f8 ff          	cmpl   $0xffffffff,-0x8(%rbp)
    66ed:	74 0b                	je     66fa <safe_mod_func_int32_t_s_s+0x2e>
    66ef:	8b 45 fc             	mov    -0x4(%rbp),%eax
    66f2:	99                   	cltd   
    66f3:	f7 7d f8             	idivl  -0x8(%rbp)
    66f6:	89 d0                	mov    %edx,%eax
    66f8:	eb 03                	jmp    66fd <safe_mod_func_int32_t_s_s+0x31>
    66fa:	8b 45 fc             	mov    -0x4(%rbp),%eax
    66fd:	5d                   	pop    %rbp
    66fe:	c3                   	retq   

00000000000066ff <safe_div_func_int32_t_s_s>:
    66ff:	f3 0f 1e fa          	endbr64 
    6703:	55                   	push   %rbp
    6704:	48 89 e5             	mov    %rsp,%rbp
    6707:	89 7d fc             	mov    %edi,-0x4(%rbp)
    670a:	89 75 f8             	mov    %esi,-0x8(%rbp)
    670d:	83 7d f8 00          	cmpl   $0x0,-0x8(%rbp)
    6711:	74 18                	je     672b <safe_div_func_int32_t_s_s+0x2c>
    6713:	81 7d fc 00 00 00 80 	cmpl   $0x80000000,-0x4(%rbp)
    671a:	75 06                	jne    6722 <safe_div_func_int32_t_s_s+0x23>
    671c:	83 7d f8 ff          	cmpl   $0xffffffff,-0x8(%rbp)
    6720:	74 09                	je     672b <safe_div_func_int32_t_s_s+0x2c>
    6722:	8b 45 fc             	mov    -0x4(%rbp),%eax
    6725:	99                   	cltd   
    6726:	f7 7d f8             	idivl  -0x8(%rbp)
    6729:	eb 03                	jmp    672e <safe_div_func_int32_t_s_s+0x2f>
    672b:	8b 45 fc             	mov    -0x4(%rbp),%eax
    672e:	5d                   	pop    %rbp
    672f:	c3                   	retq   

0000000000006730 <safe_lshift_func_int32_t_s_s>:
    6730:	f3 0f 1e fa          	endbr64 
    6734:	55                   	push   %rbp
    6735:	48 89 e5             	mov    %rsp,%rbp
    6738:	89 7d fc             	mov    %edi,-0x4(%rbp)
    673b:	89 75 f8             	mov    %esi,-0x8(%rbp)
    673e:	83 7d fc 00          	cmpl   $0x0,-0x4(%rbp)
    6742:	78 2d                	js     6771 <safe_lshift_func_int32_t_s_s+0x41>
    6744:	83 7d f8 00          	cmpl   $0x0,-0x8(%rbp)
    6748:	78 27                	js     6771 <safe_lshift_func_int32_t_s_s+0x41>
    674a:	83 7d f8 1f          	cmpl   $0x1f,-0x8(%rbp)
    674e:	7f 21                	jg     6771 <safe_lshift_func_int32_t_s_s+0x41>
    6750:	8b 45 f8             	mov    -0x8(%rbp),%eax
    6753:	ba ff ff ff 7f       	mov    $0x7fffffff,%edx
    6758:	89 c1                	mov    %eax,%ecx
    675a:	d3 fa                	sar    %cl,%edx
    675c:	89 d0                	mov    %edx,%eax
    675e:	39 45 fc             	cmp    %eax,-0x4(%rbp)
    6761:	7f 0e                	jg     6771 <safe_lshift_func_int32_t_s_s+0x41>
    6763:	8b 45 f8             	mov    -0x8(%rbp),%eax
    6766:	8b 55 fc             	mov    -0x4(%rbp),%edx
    6769:	89 c1                	mov    %eax,%ecx
    676b:	d3 e2                	shl    %cl,%edx
    676d:	89 d0                	mov    %edx,%eax
    676f:	eb 03                	jmp    6774 <safe_lshift_func_int32_t_s_s+0x44>
    6771:	8b 45 fc             	mov    -0x4(%rbp),%eax
    6774:	5d                   	pop    %rbp
    6775:	c3                   	retq   

0000000000006776 <safe_lshift_func_int32_t_s_u>:
    6776:	f3 0f 1e fa          	endbr64 
    677a:	55                   	push   %rbp
    677b:	48 89 e5             	mov    %rsp,%rbp
    677e:	89 7d fc             	mov    %edi,-0x4(%rbp)
    6781:	89 75 f8             	mov    %esi,-0x8(%rbp)
    6784:	83 7d fc 00          	cmpl   $0x0,-0x4(%rbp)
    6788:	78 27                	js     67b1 <safe_lshift_func_int32_t_s_u+0x3b>
    678a:	83 7d f8 1f          	cmpl   $0x1f,-0x8(%rbp)
    678e:	77 21                	ja     67b1 <safe_lshift_func_int32_t_s_u+0x3b>
    6790:	8b 45 f8             	mov    -0x8(%rbp),%eax
    6793:	ba ff ff ff 7f       	mov    $0x7fffffff,%edx
    6798:	89 c1                	mov    %eax,%ecx
    679a:	d3 fa                	sar    %cl,%edx
    679c:	89 d0                	mov    %edx,%eax
    679e:	39 45 fc             	cmp    %eax,-0x4(%rbp)
    67a1:	7f 0e                	jg     67b1 <safe_lshift_func_int32_t_s_u+0x3b>
    67a3:	8b 45 f8             	mov    -0x8(%rbp),%eax
    67a6:	8b 55 fc             	mov    -0x4(%rbp),%edx
    67a9:	89 c1                	mov    %eax,%ecx
    67ab:	d3 e2                	shl    %cl,%edx
    67ad:	89 d0                	mov    %edx,%eax
    67af:	eb 03                	jmp    67b4 <safe_lshift_func_int32_t_s_u+0x3e>
    67b1:	8b 45 fc             	mov    -0x4(%rbp),%eax
    67b4:	5d                   	pop    %rbp
    67b5:	c3                   	retq   

00000000000067b6 <safe_rshift_func_int32_t_s_s>:
    67b6:	f3 0f 1e fa          	endbr64 
    67ba:	55                   	push   %rbp
    67bb:	48 89 e5             	mov    %rsp,%rbp
    67be:	89 7d fc             	mov    %edi,-0x4(%rbp)
    67c1:	89 75 f8             	mov    %esi,-0x8(%rbp)
    67c4:	83 7d fc 00          	cmpl   $0x0,-0x4(%rbp)
    67c8:	78 1a                	js     67e4 <safe_rshift_func_int32_t_s_s+0x2e>
    67ca:	83 7d f8 00          	cmpl   $0x0,-0x8(%rbp)
    67ce:	78 14                	js     67e4 <safe_rshift_func_int32_t_s_s+0x2e>
    67d0:	83 7d f8 1f          	cmpl   $0x1f,-0x8(%rbp)
    67d4:	7f 0e                	jg     67e4 <safe_rshift_func_int32_t_s_s+0x2e>
    67d6:	8b 45 f8             	mov    -0x8(%rbp),%eax
    67d9:	8b 55 fc             	mov    -0x4(%rbp),%edx
    67dc:	89 c1                	mov    %eax,%ecx
    67de:	d3 fa                	sar    %cl,%edx
    67e0:	89 d0                	mov    %edx,%eax
    67e2:	eb 03                	jmp    67e7 <safe_rshift_func_int32_t_s_s+0x31>
    67e4:	8b 45 fc             	mov    -0x4(%rbp),%eax
    67e7:	5d                   	pop    %rbp
    67e8:	c3                   	retq   

00000000000067e9 <safe_rshift_func_int32_t_s_u>:
    67e9:	f3 0f 1e fa          	endbr64 
    67ed:	55                   	push   %rbp
    67ee:	48 89 e5             	mov    %rsp,%rbp
    67f1:	89 7d fc             	mov    %edi,-0x4(%rbp)
    67f4:	89 75 f8             	mov    %esi,-0x8(%rbp)
    67f7:	83 7d fc 00          	cmpl   $0x0,-0x4(%rbp)
    67fb:	78 14                	js     6811 <safe_rshift_func_int32_t_s_u+0x28>
    67fd:	83 7d f8 1f          	cmpl   $0x1f,-0x8(%rbp)
    6801:	77 0e                	ja     6811 <safe_rshift_func_int32_t_s_u+0x28>
    6803:	8b 45 f8             	mov    -0x8(%rbp),%eax
    6806:	8b 55 fc             	mov    -0x4(%rbp),%edx
    6809:	89 c1                	mov    %eax,%ecx
    680b:	d3 fa                	sar    %cl,%edx
    680d:	89 d0                	mov    %edx,%eax
    680f:	eb 03                	jmp    6814 <safe_rshift_func_int32_t_s_u+0x2b>
    6811:	8b 45 fc             	mov    -0x4(%rbp),%eax
    6814:	5d                   	pop    %rbp
    6815:	c3                   	retq   

0000000000006816 <safe_unary_minus_func_int64_t_s>:
    6816:	f3 0f 1e fa          	endbr64 
    681a:	55                   	push   %rbp
    681b:	48 89 e5             	mov    %rsp,%rbp
    681e:	48 89 7d f8          	mov    %rdi,-0x8(%rbp)
    6822:	48 b8 00 00 00 00 00 	movabs $0x8000000000000000,%rax
    6829:	00 00 80 
    682c:	48 39 45 f8          	cmp    %rax,-0x8(%rbp)
    6830:	74 09                	je     683b <safe_unary_minus_func_int64_t_s+0x25>
    6832:	48 8b 45 f8          	mov    -0x8(%rbp),%rax
    6836:	48 f7 d8             	neg    %rax
    6839:	eb 04                	jmp    683f <safe_unary_minus_func_int64_t_s+0x29>
    683b:	48 8b 45 f8          	mov    -0x8(%rbp),%rax
    683f:	5d                   	pop    %rbp
    6840:	c3                   	retq   

0000000000006841 <safe_add_func_int64_t_s_s>:
    6841:	f3 0f 1e fa          	endbr64 
    6845:	55                   	push   %rbp
    6846:	48 89 e5             	mov    %rsp,%rbp
    6849:	48 89 7d f8          	mov    %rdi,-0x8(%rbp)
    684d:	48 89 75 f0          	mov    %rsi,-0x10(%rbp)
    6851:	48 83 7d f8 00       	cmpq   $0x0,-0x8(%rbp)
    6856:	7e 1b                	jle    6873 <safe_add_func_int64_t_s_s+0x32>
    6858:	48 83 7d f0 00       	cmpq   $0x0,-0x10(%rbp)
    685d:	7e 14                	jle    6873 <safe_add_func_int64_t_s_s+0x32>
    685f:	48 b8 ff ff ff ff ff 	movabs $0x7fffffffffffffff,%rax
    6866:	ff ff 7f 
    6869:	48 2b 45 f0          	sub    -0x10(%rbp),%rax
    686d:	48 39 45 f8          	cmp    %rax,-0x8(%rbp)
    6871:	7f 2f                	jg     68a2 <safe_add_func_int64_t_s_s+0x61>
    6873:	48 83 7d f8 00       	cmpq   $0x0,-0x8(%rbp)
    6878:	79 1b                	jns    6895 <safe_add_func_int64_t_s_s+0x54>
    687a:	48 83 7d f0 00       	cmpq   $0x0,-0x10(%rbp)
    687f:	79 14                	jns    6895 <safe_add_func_int64_t_s_s+0x54>
    6881:	48 b8 00 00 00 00 00 	movabs $0x8000000000000000,%rax
    6888:	00 00 80 
    688b:	48 2b 45 f0          	sub    -0x10(%rbp),%rax
    688f:	48 39 45 f8          	cmp    %rax,-0x8(%rbp)
    6893:	7c 0d                	jl     68a2 <safe_add_func_int64_t_s_s+0x61>
    6895:	48 8b 55 f8          	mov    -0x8(%rbp),%rdx
    6899:	48 8b 45 f0          	mov    -0x10(%rbp),%rax
    689d:	48 01 d0             	add    %rdx,%rax
    68a0:	eb 04                	jmp    68a6 <safe_add_func_int64_t_s_s+0x65>
    68a2:	48 8b 45 f8          	mov    -0x8(%rbp),%rax
    68a6:	5d                   	pop    %rbp
    68a7:	c3                   	retq   

00000000000068a8 <safe_sub_func_int64_t_s_s>:
    68a8:	f3 0f 1e fa          	endbr64 
    68ac:	55                   	push   %rbp
    68ad:	48 89 e5             	mov    %rsp,%rbp
    68b0:	48 89 7d f8          	mov    %rdi,-0x8(%rbp)
    68b4:	48 89 75 f0          	mov    %rsi,-0x10(%rbp)
    68b8:	48 8b 45 f8          	mov    -0x8(%rbp),%rax
    68bc:	48 33 45 f0          	xor    -0x10(%rbp),%rax
    68c0:	48 89 c2             	mov    %rax,%rdx
    68c3:	48 8b 45 f8          	mov    -0x8(%rbp),%rax
    68c7:	48 33 45 f0          	xor    -0x10(%rbp),%rax
    68cb:	48 b9 00 00 00 00 00 	movabs $0x8000000000000000,%rcx
    68d2:	00 00 80 
    68d5:	48 21 c8             	and    %rcx,%rax
    68d8:	48 33 45 f8          	xor    -0x8(%rbp),%rax
    68dc:	48 2b 45 f0          	sub    -0x10(%rbp),%rax
    68e0:	48 33 45 f0          	xor    -0x10(%rbp),%rax
    68e4:	48 21 d0             	and    %rdx,%rax
    68e7:	48 85 c0             	test   %rax,%rax
    68ea:	78 0a                	js     68f6 <safe_sub_func_int64_t_s_s+0x4e>
    68ec:	48 8b 45 f8          	mov    -0x8(%rbp),%rax
    68f0:	48 2b 45 f0          	sub    -0x10(%rbp),%rax
    68f4:	eb 04                	jmp    68fa <safe_sub_func_int64_t_s_s+0x52>
    68f6:	48 8b 45 f8          	mov    -0x8(%rbp),%rax
    68fa:	5d                   	pop    %rbp
    68fb:	c3                   	retq   

00000000000068fc <safe_mul_func_int64_t_s_s>:
    68fc:	f3 0f 1e fa          	endbr64 
    6900:	55                   	push   %rbp
    6901:	48 89 e5             	mov    %rsp,%rbp
    6904:	48 89 7d f8          	mov    %rdi,-0x8(%rbp)
    6908:	48 89 75 f0          	mov    %rsi,-0x10(%rbp)
    690c:	48 83 7d f8 00       	cmpq   $0x0,-0x8(%rbp)
    6911:	7e 1d                	jle    6930 <safe_mul_func_int64_t_s_s+0x34>
    6913:	48 83 7d f0 00       	cmpq   $0x0,-0x10(%rbp)
    6918:	7e 16                	jle    6930 <safe_mul_func_int64_t_s_s+0x34>
    691a:	48 b8 ff ff ff ff ff 	movabs $0x7fffffffffffffff,%rax
    6921:	ff ff 7f 
    6924:	48 99                	cqto   
    6926:	48 f7 7d f0          	idivq  -0x10(%rbp)
    692a:	48 39 45 f8          	cmp    %rax,-0x8(%rbp)
    692e:	7f 7e                	jg     69ae <safe_mul_func_int64_t_s_s+0xb2>
    6930:	48 83 7d f8 00       	cmpq   $0x0,-0x8(%rbp)
    6935:	7e 1d                	jle    6954 <safe_mul_func_int64_t_s_s+0x58>
    6937:	48 83 7d f0 00       	cmpq   $0x0,-0x10(%rbp)
    693c:	7f 16                	jg     6954 <safe_mul_func_int64_t_s_s+0x58>
    693e:	48 b8 00 00 00 00 00 	movabs $0x8000000000000000,%rax
    6945:	00 00 80 
    6948:	48 99                	cqto   
    694a:	48 f7 7d f8          	idivq  -0x8(%rbp)
    694e:	48 39 45 f0          	cmp    %rax,-0x10(%rbp)
    6952:	7c 5a                	jl     69ae <safe_mul_func_int64_t_s_s+0xb2>
    6954:	48 83 7d f8 00       	cmpq   $0x0,-0x8(%rbp)
    6959:	7f 1d                	jg     6978 <safe_mul_func_int64_t_s_s+0x7c>
    695b:	48 83 7d f0 00       	cmpq   $0x0,-0x10(%rbp)
    6960:	7e 16                	jle    6978 <safe_mul_func_int64_t_s_s+0x7c>
    6962:	48 b8 00 00 00 00 00 	movabs $0x8000000000000000,%rax
    6969:	00 00 80 
    696c:	48 99                	cqto   
    696e:	48 f7 7d f0          	idivq  -0x10(%rbp)
    6972:	48 39 45 f8          	cmp    %rax,-0x8(%rbp)
    6976:	7c 36                	jl     69ae <safe_mul_func_int64_t_s_s+0xb2>
    6978:	48 83 7d f8 00       	cmpq   $0x0,-0x8(%rbp)
    697d:	7f 24                	jg     69a3 <safe_mul_func_int64_t_s_s+0xa7>
    697f:	48 83 7d f0 00       	cmpq   $0x0,-0x10(%rbp)
    6984:	7f 1d                	jg     69a3 <safe_mul_func_int64_t_s_s+0xa7>
    6986:	48 83 7d f8 00       	cmpq   $0x0,-0x8(%rbp)
    698b:	74 16                	je     69a3 <safe_mul_func_int64_t_s_s+0xa7>
    698d:	48 b8 ff ff ff ff ff 	movabs $0x7fffffffffffffff,%rax
    6994:	ff ff 7f 
    6997:	48 99                	cqto   
    6999:	48 f7 7d f8          	idivq  -0x8(%rbp)
    699d:	48 39 45 f0          	cmp    %rax,-0x10(%rbp)
    69a1:	7c 0b                	jl     69ae <safe_mul_func_int64_t_s_s+0xb2>
    69a3:	48 8b 45 f8          	mov    -0x8(%rbp),%rax
    69a7:	48 0f af 45 f0       	imul   -0x10(%rbp),%rax
    69ac:	eb 04                	jmp    69b2 <safe_mul_func_int64_t_s_s+0xb6>
    69ae:	48 8b 45 f8          	mov    -0x8(%rbp),%rax
    69b2:	5d                   	pop    %rbp
    69b3:	c3                   	retq   

00000000000069b4 <safe_mod_func_int64_t_s_s>:
    69b4:	f3 0f 1e fa          	endbr64 
    69b8:	55                   	push   %rbp
    69b9:	48 89 e5             	mov    %rsp,%rbp
    69bc:	48 89 7d f8          	mov    %rdi,-0x8(%rbp)
    69c0:	48 89 75 f0          	mov    %rsi,-0x10(%rbp)
    69c4:	48 83 7d f0 00       	cmpq   $0x0,-0x10(%rbp)
    69c9:	74 26                	je     69f1 <safe_mod_func_int64_t_s_s+0x3d>
    69cb:	48 b8 00 00 00 00 00 	movabs $0x8000000000000000,%rax
    69d2:	00 00 80 
    69d5:	48 39 45 f8          	cmp    %rax,-0x8(%rbp)
    69d9:	75 07                	jne    69e2 <safe_mod_func_int64_t_s_s+0x2e>
    69db:	48 83 7d f0 ff       	cmpq   $0xffffffffffffffff,-0x10(%rbp)
    69e0:	74 0f                	je     69f1 <safe_mod_func_int64_t_s_s+0x3d>
    69e2:	48 8b 45 f8          	mov    -0x8(%rbp),%rax
    69e6:	48 99                	cqto   
    69e8:	48 f7 7d f0          	idivq  -0x10(%rbp)
    69ec:	48 89 d0             	mov    %rdx,%rax
    69ef:	eb 04                	jmp    69f5 <safe_mod_func_int64_t_s_s+0x41>
    69f1:	48 8b 45 f8          	mov    -0x8(%rbp),%rax
    69f5:	5d                   	pop    %rbp
    69f6:	c3                   	retq   

00000000000069f7 <safe_div_func_int64_t_s_s>:
    69f7:	f3 0f 1e fa          	endbr64 
    69fb:	55                   	push   %rbp
    69fc:	48 89 e5             	mov    %rsp,%rbp
    69ff:	48 89 7d f8          	mov    %rdi,-0x8(%rbp)
    6a03:	48 89 75 f0          	mov    %rsi,-0x10(%rbp)
    6a07:	48 83 7d f0 00       	cmpq   $0x0,-0x10(%rbp)
    6a0c:	74 23                	je     6a31 <safe_div_func_int64_t_s_s+0x3a>
    6a0e:	48 b8 00 00 00 00 00 	movabs $0x8000000000000000,%rax
    6a15:	00 00 80 
    6a18:	48 39 45 f8          	cmp    %rax,-0x8(%rbp)
    6a1c:	75 07                	jne    6a25 <safe_div_func_int64_t_s_s+0x2e>
    6a1e:	48 83 7d f0 ff       	cmpq   $0xffffffffffffffff,-0x10(%rbp)
    6a23:	74 0c                	je     6a31 <safe_div_func_int64_t_s_s+0x3a>
    6a25:	48 8b 45 f8          	mov    -0x8(%rbp),%rax
    6a29:	48 99                	cqto   
    6a2b:	48 f7 7d f0          	idivq  -0x10(%rbp)
    6a2f:	eb 04                	jmp    6a35 <safe_div_func_int64_t_s_s+0x3e>
    6a31:	48 8b 45 f8          	mov    -0x8(%rbp),%rax
    6a35:	5d                   	pop    %rbp
    6a36:	c3                   	retq   

0000000000006a37 <safe_lshift_func_int64_t_s_s>:
    6a37:	f3 0f 1e fa          	endbr64 
    6a3b:	55                   	push   %rbp
    6a3c:	48 89 e5             	mov    %rsp,%rbp
    6a3f:	48 89 7d f8          	mov    %rdi,-0x8(%rbp)
    6a43:	89 75 f4             	mov    %esi,-0xc(%rbp)
    6a46:	48 83 7d f8 00       	cmpq   $0x0,-0x8(%rbp)
    6a4b:	78 38                	js     6a85 <safe_lshift_func_int64_t_s_s+0x4e>
    6a4d:	83 7d f4 00          	cmpl   $0x0,-0xc(%rbp)
    6a51:	78 32                	js     6a85 <safe_lshift_func_int64_t_s_s+0x4e>
    6a53:	83 7d f4 1f          	cmpl   $0x1f,-0xc(%rbp)
    6a57:	7f 2c                	jg     6a85 <safe_lshift_func_int64_t_s_s+0x4e>
    6a59:	8b 45 f4             	mov    -0xc(%rbp),%eax
    6a5c:	48 ba ff ff ff ff ff 	movabs $0x7fffffffffffffff,%rdx
    6a63:	ff ff 7f 
    6a66:	89 c1                	mov    %eax,%ecx
    6a68:	48 d3 fa             	sar    %cl,%rdx
    6a6b:	48 89 d0             	mov    %rdx,%rax
    6a6e:	48 39 45 f8          	cmp    %rax,-0x8(%rbp)
    6a72:	7f 11                	jg     6a85 <safe_lshift_func_int64_t_s_s+0x4e>
    6a74:	8b 45 f4             	mov    -0xc(%rbp),%eax
    6a77:	48 8b 55 f8          	mov    -0x8(%rbp),%rdx
    6a7b:	89 c1                	mov    %eax,%ecx
    6a7d:	48 d3 e2             	shl    %cl,%rdx
    6a80:	48 89 d0             	mov    %rdx,%rax
    6a83:	eb 04                	jmp    6a89 <safe_lshift_func_int64_t_s_s+0x52>
    6a85:	48 8b 45 f8          	mov    -0x8(%rbp),%rax
    6a89:	5d                   	pop    %rbp
    6a8a:	c3                   	retq   

0000000000006a8b <safe_lshift_func_int64_t_s_u>:
    6a8b:	f3 0f 1e fa          	endbr64 
    6a8f:	55                   	push   %rbp
    6a90:	48 89 e5             	mov    %rsp,%rbp
    6a93:	48 89 7d f8          	mov    %rdi,-0x8(%rbp)
    6a97:	89 75 f4             	mov    %esi,-0xc(%rbp)
    6a9a:	48 83 7d f8 00       	cmpq   $0x0,-0x8(%rbp)
    6a9f:	78 32                	js     6ad3 <safe_lshift_func_int64_t_s_u+0x48>
    6aa1:	83 7d f4 1f          	cmpl   $0x1f,-0xc(%rbp)
    6aa5:	77 2c                	ja     6ad3 <safe_lshift_func_int64_t_s_u+0x48>
    6aa7:	8b 45 f4             	mov    -0xc(%rbp),%eax
    6aaa:	48 ba ff ff ff ff ff 	movabs $0x7fffffffffffffff,%rdx
    6ab1:	ff ff 7f 
    6ab4:	89 c1                	mov    %eax,%ecx
    6ab6:	48 d3 fa             	sar    %cl,%rdx
    6ab9:	48 89 d0             	mov    %rdx,%rax
    6abc:	48 39 45 f8          	cmp    %rax,-0x8(%rbp)
    6ac0:	7f 11                	jg     6ad3 <safe_lshift_func_int64_t_s_u+0x48>
    6ac2:	8b 45 f4             	mov    -0xc(%rbp),%eax
    6ac5:	48 8b 55 f8          	mov    -0x8(%rbp),%rdx
    6ac9:	89 c1                	mov    %eax,%ecx
    6acb:	48 d3 e2             	shl    %cl,%rdx
    6ace:	48 89 d0             	mov    %rdx,%rax
    6ad1:	eb 04                	jmp    6ad7 <safe_lshift_func_int64_t_s_u+0x4c>
    6ad3:	48 8b 45 f8          	mov    -0x8(%rbp),%rax
    6ad7:	5d                   	pop    %rbp
    6ad8:	c3                   	retq   

0000000000006ad9 <safe_rshift_func_int64_t_s_s>:
    6ad9:	f3 0f 1e fa          	endbr64 
    6add:	55                   	push   %rbp
    6ade:	48 89 e5             	mov    %rsp,%rbp
    6ae1:	48 89 7d f8          	mov    %rdi,-0x8(%rbp)
    6ae5:	89 75 f4             	mov    %esi,-0xc(%rbp)
    6ae8:	48 83 7d f8 00       	cmpq   $0x0,-0x8(%rbp)
    6aed:	78 1d                	js     6b0c <safe_rshift_func_int64_t_s_s+0x33>
    6aef:	83 7d f4 00          	cmpl   $0x0,-0xc(%rbp)
    6af3:	78 17                	js     6b0c <safe_rshift_func_int64_t_s_s+0x33>
    6af5:	83 7d f4 1f          	cmpl   $0x1f,-0xc(%rbp)
    6af9:	7f 11                	jg     6b0c <safe_rshift_func_int64_t_s_s+0x33>
    6afb:	8b 45 f4             	mov    -0xc(%rbp),%eax
    6afe:	48 8b 55 f8          	mov    -0x8(%rbp),%rdx
    6b02:	89 c1                	mov    %eax,%ecx
    6b04:	48 d3 fa             	sar    %cl,%rdx
    6b07:	48 89 d0             	mov    %rdx,%rax
    6b0a:	eb 04                	jmp    6b10 <safe_rshift_func_int64_t_s_s+0x37>
    6b0c:	48 8b 45 f8          	mov    -0x8(%rbp),%rax
    6b10:	5d                   	pop    %rbp
    6b11:	c3                   	retq   

0000000000006b12 <safe_rshift_func_int64_t_s_u>:
    6b12:	f3 0f 1e fa          	endbr64 
    6b16:	55                   	push   %rbp
    6b17:	48 89 e5             	mov    %rsp,%rbp
    6b1a:	48 89 7d f8          	mov    %rdi,-0x8(%rbp)
    6b1e:	89 75 f4             	mov    %esi,-0xc(%rbp)
    6b21:	48 83 7d f8 00       	cmpq   $0x0,-0x8(%rbp)
    6b26:	78 17                	js     6b3f <safe_rshift_func_int64_t_s_u+0x2d>
    6b28:	83 7d f4 1f          	cmpl   $0x1f,-0xc(%rbp)
    6b2c:	77 11                	ja     6b3f <safe_rshift_func_int64_t_s_u+0x2d>
    6b2e:	8b 45 f4             	mov    -0xc(%rbp),%eax
    6b31:	48 8b 55 f8          	mov    -0x8(%rbp),%rdx
    6b35:	89 c1                	mov    %eax,%ecx
    6b37:	48 d3 fa             	sar    %cl,%rdx
    6b3a:	48 89 d0             	mov    %rdx,%rax
    6b3d:	eb 04                	jmp    6b43 <safe_rshift_func_int64_t_s_u+0x31>
    6b3f:	48 8b 45 f8          	mov    -0x8(%rbp),%rax
    6b43:	5d                   	pop    %rbp
    6b44:	c3                   	retq   

0000000000006b45 <safe_unary_minus_func_uint8_t_u>:
    6b45:	f3 0f 1e fa          	endbr64 
    6b49:	55                   	push   %rbp
    6b4a:	48 89 e5             	mov    %rsp,%rbp
    6b4d:	89 f8                	mov    %edi,%eax
    6b4f:	88 45 fc             	mov    %al,-0x4(%rbp)
    6b52:	0f b6 45 fc          	movzbl -0x4(%rbp),%eax
    6b56:	f7 d8                	neg    %eax
    6b58:	5d                   	pop    %rbp
    6b59:	c3                   	retq   

0000000000006b5a <safe_add_func_uint8_t_u_u>:
    6b5a:	f3 0f 1e fa          	endbr64 
    6b5e:	55                   	push   %rbp
    6b5f:	48 89 e5             	mov    %rsp,%rbp
    6b62:	89 fa                	mov    %edi,%edx
    6b64:	89 f0                	mov    %esi,%eax
    6b66:	88 55 fc             	mov    %dl,-0x4(%rbp)
    6b69:	88 45 f8             	mov    %al,-0x8(%rbp)
    6b6c:	0f b6 55 fc          	movzbl -0x4(%rbp),%edx
    6b70:	0f b6 45 f8          	movzbl -0x8(%rbp),%eax
    6b74:	01 d0                	add    %edx,%eax
    6b76:	5d                   	pop    %rbp
    6b77:	c3                   	retq   

0000000000006b78 <safe_sub_func_uint8_t_u_u>:
    6b78:	f3 0f 1e fa          	endbr64 
    6b7c:	55                   	push   %rbp
    6b7d:	48 89 e5             	mov    %rsp,%rbp
    6b80:	89 fa                	mov    %edi,%edx
    6b82:	89 f0                	mov    %esi,%eax
    6b84:	88 55 fc             	mov    %dl,-0x4(%rbp)
    6b87:	88 45 f8             	mov    %al,-0x8(%rbp)
    6b8a:	0f b6 45 fc          	movzbl -0x4(%rbp),%eax
    6b8e:	2a 45 f8             	sub    -0x8(%rbp),%al
    6b91:	5d                   	pop    %rbp
    6b92:	c3                   	retq   

0000000000006b93 <safe_mul_func_uint8_t_u_u>:
    6b93:	f3 0f 1e fa          	endbr64 
    6b97:	55                   	push   %rbp
    6b98:	48 89 e5             	mov    %rsp,%rbp
    6b9b:	89 fa                	mov    %edi,%edx
    6b9d:	89 f0                	mov    %esi,%eax
    6b9f:	88 55 fc             	mov    %dl,-0x4(%rbp)
    6ba2:	88 45 f8             	mov    %al,-0x8(%rbp)
    6ba5:	0f b6 45 fc          	movzbl -0x4(%rbp),%eax
    6ba9:	f6 65 f8             	mulb   -0x8(%rbp)
    6bac:	5d                   	pop    %rbp
    6bad:	c3                   	retq   

0000000000006bae <safe_mod_func_uint8_t_u_u>:
    6bae:	f3 0f 1e fa          	endbr64 
    6bb2:	55                   	push   %rbp
    6bb3:	48 89 e5             	mov    %rsp,%rbp
    6bb6:	89 fa                	mov    %edi,%edx
    6bb8:	89 f0                	mov    %esi,%eax
    6bba:	88 55 fc             	mov    %dl,-0x4(%rbp)
    6bbd:	88 45 f8             	mov    %al,-0x8(%rbp)
    6bc0:	80 7d f8 00          	cmpb   $0x0,-0x8(%rbp)
    6bc4:	74 0f                	je     6bd5 <safe_mod_func_uint8_t_u_u+0x27>
    6bc6:	0f b6 45 fc          	movzbl -0x4(%rbp),%eax
    6bca:	0f b6 c0             	movzbl %al,%eax
    6bcd:	f6 75 f8             	divb   -0x8(%rbp)
    6bd0:	0f b6 c4             	movzbl %ah,%eax
    6bd3:	eb 04                	jmp    6bd9 <safe_mod_func_uint8_t_u_u+0x2b>
    6bd5:	0f b6 45 fc          	movzbl -0x4(%rbp),%eax
    6bd9:	5d                   	pop    %rbp
    6bda:	c3                   	retq   

0000000000006bdb <safe_div_func_uint8_t_u_u>:
    6bdb:	f3 0f 1e fa          	endbr64 
    6bdf:	55                   	push   %rbp
    6be0:	48 89 e5             	mov    %rsp,%rbp
    6be3:	89 fa                	mov    %edi,%edx
    6be5:	89 f0                	mov    %esi,%eax
    6be7:	88 55 fc             	mov    %dl,-0x4(%rbp)
    6bea:	88 45 f8             	mov    %al,-0x8(%rbp)
    6bed:	80 7d f8 00          	cmpb   $0x0,-0x8(%rbp)
    6bf1:	74 0c                	je     6bff <safe_div_func_uint8_t_u_u+0x24>
    6bf3:	0f b6 45 fc          	movzbl -0x4(%rbp),%eax
    6bf7:	0f b6 c0             	movzbl %al,%eax
    6bfa:	f6 75 f8             	divb   -0x8(%rbp)
    6bfd:	eb 04                	jmp    6c03 <safe_div_func_uint8_t_u_u+0x28>
    6bff:	0f b6 45 fc          	movzbl -0x4(%rbp),%eax
    6c03:	5d                   	pop    %rbp
    6c04:	c3                   	retq   

0000000000006c05 <safe_lshift_func_uint8_t_u_s>:
    6c05:	f3 0f 1e fa          	endbr64 
    6c09:	55                   	push   %rbp
    6c0a:	48 89 e5             	mov    %rsp,%rbp
    6c0d:	89 f8                	mov    %edi,%eax
    6c0f:	89 75 f8             	mov    %esi,-0x8(%rbp)
    6c12:	88 45 fc             	mov    %al,-0x4(%rbp)
    6c15:	83 7d f8 00          	cmpl   $0x0,-0x8(%rbp)
    6c19:	78 2b                	js     6c46 <safe_lshift_func_uint8_t_u_s+0x41>
    6c1b:	83 7d f8 1f          	cmpl   $0x1f,-0x8(%rbp)
    6c1f:	7f 25                	jg     6c46 <safe_lshift_func_uint8_t_u_s+0x41>
    6c21:	0f b6 55 fc          	movzbl -0x4(%rbp),%edx
    6c25:	8b 45 f8             	mov    -0x8(%rbp),%eax
    6c28:	be ff 00 00 00       	mov    $0xff,%esi
    6c2d:	89 c1                	mov    %eax,%ecx
    6c2f:	d3 fe                	sar    %cl,%esi
    6c31:	89 f0                	mov    %esi,%eax
    6c33:	39 c2                	cmp    %eax,%edx
    6c35:	7f 0f                	jg     6c46 <safe_lshift_func_uint8_t_u_s+0x41>
    6c37:	0f b6 55 fc          	movzbl -0x4(%rbp),%edx
    6c3b:	8b 45 f8             	mov    -0x8(%rbp),%eax
    6c3e:	89 c1                	mov    %eax,%ecx
    6c40:	d3 e2                	shl    %cl,%edx
    6c42:	89 d0                	mov    %edx,%eax
    6c44:	eb 04                	jmp    6c4a <safe_lshift_func_uint8_t_u_s+0x45>
    6c46:	0f b6 45 fc          	movzbl -0x4(%rbp),%eax
    6c4a:	5d                   	pop    %rbp
    6c4b:	c3                   	retq   

0000000000006c4c <safe_lshift_func_uint8_t_u_u>:
    6c4c:	f3 0f 1e fa          	endbr64 
    6c50:	55                   	push   %rbp
    6c51:	48 89 e5             	mov    %rsp,%rbp
    6c54:	89 f8                	mov    %edi,%eax
    6c56:	89 75 f8             	mov    %esi,-0x8(%rbp)
    6c59:	88 45 fc             	mov    %al,-0x4(%rbp)
    6c5c:	83 7d f8 1f          	cmpl   $0x1f,-0x8(%rbp)
    6c60:	77 25                	ja     6c87 <safe_lshift_func_uint8_t_u_u+0x3b>
    6c62:	0f b6 55 fc          	movzbl -0x4(%rbp),%edx
    6c66:	8b 45 f8             	mov    -0x8(%rbp),%eax
    6c69:	be ff 00 00 00       	mov    $0xff,%esi
    6c6e:	89 c1                	mov    %eax,%ecx
    6c70:	d3 fe                	sar    %cl,%esi
    6c72:	89 f0                	mov    %esi,%eax
    6c74:	39 c2                	cmp    %eax,%edx
    6c76:	7f 0f                	jg     6c87 <safe_lshift_func_uint8_t_u_u+0x3b>
    6c78:	0f b6 55 fc          	movzbl -0x4(%rbp),%edx
    6c7c:	8b 45 f8             	mov    -0x8(%rbp),%eax
    6c7f:	89 c1                	mov    %eax,%ecx
    6c81:	d3 e2                	shl    %cl,%edx
    6c83:	89 d0                	mov    %edx,%eax
    6c85:	eb 04                	jmp    6c8b <safe_lshift_func_uint8_t_u_u+0x3f>
    6c87:	0f b6 45 fc          	movzbl -0x4(%rbp),%eax
    6c8b:	5d                   	pop    %rbp
    6c8c:	c3                   	retq   

0000000000006c8d <safe_rshift_func_uint8_t_u_s>:
    6c8d:	f3 0f 1e fa          	endbr64 
    6c91:	55                   	push   %rbp
    6c92:	48 89 e5             	mov    %rsp,%rbp
    6c95:	89 f8                	mov    %edi,%eax
    6c97:	89 75 f8             	mov    %esi,-0x8(%rbp)
    6c9a:	88 45 fc             	mov    %al,-0x4(%rbp)
    6c9d:	83 7d f8 00          	cmpl   $0x0,-0x8(%rbp)
    6ca1:	78 15                	js     6cb8 <safe_rshift_func_uint8_t_u_s+0x2b>
    6ca3:	83 7d f8 1f          	cmpl   $0x1f,-0x8(%rbp)
    6ca7:	7f 0f                	jg     6cb8 <safe_rshift_func_uint8_t_u_s+0x2b>
    6ca9:	0f b6 55 fc          	movzbl -0x4(%rbp),%edx
    6cad:	8b 45 f8             	mov    -0x8(%rbp),%eax
    6cb0:	89 c1                	mov    %eax,%ecx
    6cb2:	d3 fa                	sar    %cl,%edx
    6cb4:	89 d0                	mov    %edx,%eax
    6cb6:	eb 04                	jmp    6cbc <safe_rshift_func_uint8_t_u_s+0x2f>
    6cb8:	0f b6 45 fc          	movzbl -0x4(%rbp),%eax
    6cbc:	5d                   	pop    %rbp
    6cbd:	c3                   	retq   

0000000000006cbe <safe_rshift_func_uint8_t_u_u>:
    6cbe:	f3 0f 1e fa          	endbr64 
    6cc2:	55                   	push   %rbp
    6cc3:	48 89 e5             	mov    %rsp,%rbp
    6cc6:	89 f8                	mov    %edi,%eax
    6cc8:	89 75 f8             	mov    %esi,-0x8(%rbp)
    6ccb:	88 45 fc             	mov    %al,-0x4(%rbp)
    6cce:	83 7d f8 1f          	cmpl   $0x1f,-0x8(%rbp)
    6cd2:	77 0f                	ja     6ce3 <safe_rshift_func_uint8_t_u_u+0x25>
    6cd4:	0f b6 55 fc          	movzbl -0x4(%rbp),%edx
    6cd8:	8b 45 f8             	mov    -0x8(%rbp),%eax
    6cdb:	89 c1                	mov    %eax,%ecx
    6cdd:	d3 fa                	sar    %cl,%edx
    6cdf:	89 d0                	mov    %edx,%eax
    6ce1:	eb 04                	jmp    6ce7 <safe_rshift_func_uint8_t_u_u+0x29>
    6ce3:	0f b6 45 fc          	movzbl -0x4(%rbp),%eax
    6ce7:	5d                   	pop    %rbp
    6ce8:	c3                   	retq   

0000000000006ce9 <safe_unary_minus_func_uint16_t_u>:
    6ce9:	f3 0f 1e fa          	endbr64 
    6ced:	55                   	push   %rbp
    6cee:	48 89 e5             	mov    %rsp,%rbp
    6cf1:	89 f8                	mov    %edi,%eax
    6cf3:	66 89 45 fc          	mov    %ax,-0x4(%rbp)
    6cf7:	0f b7 45 fc          	movzwl -0x4(%rbp),%eax
    6cfb:	f7 d8                	neg    %eax
    6cfd:	5d                   	pop    %rbp
    6cfe:	c3                   	retq   

0000000000006cff <safe_add_func_uint16_t_u_u>:
    6cff:	f3 0f 1e fa          	endbr64 
    6d03:	55                   	push   %rbp
    6d04:	48 89 e5             	mov    %rsp,%rbp
    6d07:	89 fa                	mov    %edi,%edx
    6d09:	89 f0                	mov    %esi,%eax
    6d0b:	66 89 55 fc          	mov    %dx,-0x4(%rbp)
    6d0f:	66 89 45 f8          	mov    %ax,-0x8(%rbp)
    6d13:	0f b7 55 fc          	movzwl -0x4(%rbp),%edx
    6d17:	0f b7 45 f8          	movzwl -0x8(%rbp),%eax
    6d1b:	01 d0                	add    %edx,%eax
    6d1d:	5d                   	pop    %rbp
    6d1e:	c3                   	retq   

0000000000006d1f <safe_sub_func_uint16_t_u_u>:
    6d1f:	f3 0f 1e fa          	endbr64 
    6d23:	55                   	push   %rbp
    6d24:	48 89 e5             	mov    %rsp,%rbp
    6d27:	89 fa                	mov    %edi,%edx
    6d29:	89 f0                	mov    %esi,%eax
    6d2b:	66 89 55 fc          	mov    %dx,-0x4(%rbp)
    6d2f:	66 89 45 f8          	mov    %ax,-0x8(%rbp)
    6d33:	0f b7 45 fc          	movzwl -0x4(%rbp),%eax
    6d37:	66 2b 45 f8          	sub    -0x8(%rbp),%ax
    6d3b:	5d                   	pop    %rbp
    6d3c:	c3                   	retq   

0000000000006d3d <safe_mul_func_uint16_t_u_u>:
    6d3d:	f3 0f 1e fa          	endbr64 
    6d41:	55                   	push   %rbp
    6d42:	48 89 e5             	mov    %rsp,%rbp
    6d45:	89 fa                	mov    %edi,%edx
    6d47:	89 f0                	mov    %esi,%eax
    6d49:	66 89 55 fc          	mov    %dx,-0x4(%rbp)
    6d4d:	66 89 45 f8          	mov    %ax,-0x8(%rbp)
    6d51:	0f b7 45 fc          	movzwl -0x4(%rbp),%eax
    6d55:	66 0f af 45 f8       	imul   -0x8(%rbp),%ax
    6d5a:	5d                   	pop    %rbp
    6d5b:	c3                   	retq   

0000000000006d5c <safe_mod_func_uint16_t_u_u>:
    6d5c:	f3 0f 1e fa          	endbr64 
    6d60:	55                   	push   %rbp
    6d61:	48 89 e5             	mov    %rsp,%rbp
    6d64:	89 fa                	mov    %edi,%edx
    6d66:	89 f0                	mov    %esi,%eax
    6d68:	66 89 55 fc          	mov    %dx,-0x4(%rbp)
    6d6c:	66 89 45 f8          	mov    %ax,-0x8(%rbp)
    6d70:	66 83 7d f8 00       	cmpw   $0x0,-0x8(%rbp)
    6d75:	74 11                	je     6d88 <safe_mod_func_uint16_t_u_u+0x2c>
    6d77:	0f b7 45 fc          	movzwl -0x4(%rbp),%eax
    6d7b:	ba 00 00 00 00       	mov    $0x0,%edx
    6d80:	66 f7 75 f8          	divw   -0x8(%rbp)
    6d84:	89 d0                	mov    %edx,%eax
    6d86:	eb 04                	jmp    6d8c <safe_mod_func_uint16_t_u_u+0x30>
    6d88:	0f b7 45 fc          	movzwl -0x4(%rbp),%eax
    6d8c:	5d                   	pop    %rbp
    6d8d:	c3                   	retq   

0000000000006d8e <safe_div_func_uint16_t_u_u>:
    6d8e:	f3 0f 1e fa          	endbr64 
    6d92:	55                   	push   %rbp
    6d93:	48 89 e5             	mov    %rsp,%rbp
    6d96:	89 fa                	mov    %edi,%edx
    6d98:	89 f0                	mov    %esi,%eax
    6d9a:	66 89 55 fc          	mov    %dx,-0x4(%rbp)
    6d9e:	66 89 45 f8          	mov    %ax,-0x8(%rbp)
    6da2:	66 83 7d f8 00       	cmpw   $0x0,-0x8(%rbp)
    6da7:	74 0f                	je     6db8 <safe_div_func_uint16_t_u_u+0x2a>
    6da9:	0f b7 45 fc          	movzwl -0x4(%rbp),%eax
    6dad:	ba 00 00 00 00       	mov    $0x0,%edx
    6db2:	66 f7 75 f8          	divw   -0x8(%rbp)
    6db6:	eb 04                	jmp    6dbc <safe_div_func_uint16_t_u_u+0x2e>
    6db8:	0f b7 45 fc          	movzwl -0x4(%rbp),%eax
    6dbc:	5d                   	pop    %rbp
    6dbd:	c3                   	retq   

0000000000006dbe <safe_lshift_func_uint16_t_u_s>:
    6dbe:	f3 0f 1e fa          	endbr64 
    6dc2:	55                   	push   %rbp
    6dc3:	48 89 e5             	mov    %rsp,%rbp
    6dc6:	89 f8                	mov    %edi,%eax
    6dc8:	89 75 f8             	mov    %esi,-0x8(%rbp)
    6dcb:	66 89 45 fc          	mov    %ax,-0x4(%rbp)
    6dcf:	83 7d f8 00          	cmpl   $0x0,-0x8(%rbp)
    6dd3:	78 2b                	js     6e00 <safe_lshift_func_uint16_t_u_s+0x42>
    6dd5:	83 7d f8 1f          	cmpl   $0x1f,-0x8(%rbp)
    6dd9:	7f 25                	jg     6e00 <safe_lshift_func_uint16_t_u_s+0x42>
    6ddb:	0f b7 55 fc          	movzwl -0x4(%rbp),%edx
    6ddf:	8b 45 f8             	mov    -0x8(%rbp),%eax
    6de2:	be ff ff 00 00       	mov    $0xffff,%esi
    6de7:	89 c1                	mov    %eax,%ecx
    6de9:	d3 fe                	sar    %cl,%esi
    6deb:	89 f0                	mov    %esi,%eax
    6ded:	39 c2                	cmp    %eax,%edx
    6def:	7f 0f                	jg     6e00 <safe_lshift_func_uint16_t_u_s+0x42>
    6df1:	0f b7 55 fc          	movzwl -0x4(%rbp),%edx
    6df5:	8b 45 f8             	mov    -0x8(%rbp),%eax
    6df8:	89 c1                	mov    %eax,%ecx
    6dfa:	d3 e2                	shl    %cl,%edx
    6dfc:	89 d0                	mov    %edx,%eax
    6dfe:	eb 04                	jmp    6e04 <safe_lshift_func_uint16_t_u_s+0x46>
    6e00:	0f b7 45 fc          	movzwl -0x4(%rbp),%eax
    6e04:	5d                   	pop    %rbp
    6e05:	c3                   	retq   

0000000000006e06 <safe_lshift_func_uint16_t_u_u>:
    6e06:	f3 0f 1e fa          	endbr64 
    6e0a:	55                   	push   %rbp
    6e0b:	48 89 e5             	mov    %rsp,%rbp
    6e0e:	89 f8                	mov    %edi,%eax
    6e10:	89 75 f8             	mov    %esi,-0x8(%rbp)
    6e13:	66 89 45 fc          	mov    %ax,-0x4(%rbp)
    6e17:	83 7d f8 1f          	cmpl   $0x1f,-0x8(%rbp)
    6e1b:	77 25                	ja     6e42 <safe_lshift_func_uint16_t_u_u+0x3c>
    6e1d:	0f b7 55 fc          	movzwl -0x4(%rbp),%edx
    6e21:	8b 45 f8             	mov    -0x8(%rbp),%eax
    6e24:	be ff ff 00 00       	mov    $0xffff,%esi
    6e29:	89 c1                	mov    %eax,%ecx
    6e2b:	d3 fe                	sar    %cl,%esi
    6e2d:	89 f0                	mov    %esi,%eax
    6e2f:	39 c2                	cmp    %eax,%edx
    6e31:	7f 0f                	jg     6e42 <safe_lshift_func_uint16_t_u_u+0x3c>
    6e33:	0f b7 55 fc          	movzwl -0x4(%rbp),%edx
    6e37:	8b 45 f8             	mov    -0x8(%rbp),%eax
    6e3a:	89 c1                	mov    %eax,%ecx
    6e3c:	d3 e2                	shl    %cl,%edx
    6e3e:	89 d0                	mov    %edx,%eax
    6e40:	eb 04                	jmp    6e46 <safe_lshift_func_uint16_t_u_u+0x40>
    6e42:	0f b7 45 fc          	movzwl -0x4(%rbp),%eax
    6e46:	5d                   	pop    %rbp
    6e47:	c3                   	retq   

0000000000006e48 <safe_rshift_func_uint16_t_u_s>:
    6e48:	f3 0f 1e fa          	endbr64 
    6e4c:	55                   	push   %rbp
    6e4d:	48 89 e5             	mov    %rsp,%rbp
    6e50:	89 f8                	mov    %edi,%eax
    6e52:	89 75 f8             	mov    %esi,-0x8(%rbp)
    6e55:	66 89 45 fc          	mov    %ax,-0x4(%rbp)
    6e59:	83 7d f8 00          	cmpl   $0x0,-0x8(%rbp)
    6e5d:	78 15                	js     6e74 <safe_rshift_func_uint16_t_u_s+0x2c>
    6e5f:	83 7d f8 1f          	cmpl   $0x1f,-0x8(%rbp)
    6e63:	7f 0f                	jg     6e74 <safe_rshift_func_uint16_t_u_s+0x2c>
    6e65:	0f b7 55 fc          	movzwl -0x4(%rbp),%edx
    6e69:	8b 45 f8             	mov    -0x8(%rbp),%eax
    6e6c:	89 c1                	mov    %eax,%ecx
    6e6e:	d3 fa                	sar    %cl,%edx
    6e70:	89 d0                	mov    %edx,%eax
    6e72:	eb 04                	jmp    6e78 <safe_rshift_func_uint16_t_u_s+0x30>
    6e74:	0f b7 45 fc          	movzwl -0x4(%rbp),%eax
    6e78:	5d                   	pop    %rbp
    6e79:	c3                   	retq   

0000000000006e7a <safe_rshift_func_uint16_t_u_u>:
    6e7a:	f3 0f 1e fa          	endbr64 
    6e7e:	55                   	push   %rbp
    6e7f:	48 89 e5             	mov    %rsp,%rbp
    6e82:	89 f8                	mov    %edi,%eax
    6e84:	89 75 f8             	mov    %esi,-0x8(%rbp)
    6e87:	66 89 45 fc          	mov    %ax,-0x4(%rbp)
    6e8b:	83 7d f8 1f          	cmpl   $0x1f,-0x8(%rbp)
    6e8f:	77 0f                	ja     6ea0 <safe_rshift_func_uint16_t_u_u+0x26>
    6e91:	0f b7 55 fc          	movzwl -0x4(%rbp),%edx
    6e95:	8b 45 f8             	mov    -0x8(%rbp),%eax
    6e98:	89 c1                	mov    %eax,%ecx
    6e9a:	d3 fa                	sar    %cl,%edx
    6e9c:	89 d0                	mov    %edx,%eax
    6e9e:	eb 04                	jmp    6ea4 <safe_rshift_func_uint16_t_u_u+0x2a>
    6ea0:	0f b7 45 fc          	movzwl -0x4(%rbp),%eax
    6ea4:	5d                   	pop    %rbp
    6ea5:	c3                   	retq   

0000000000006ea6 <safe_unary_minus_func_uint32_t_u>:
    6ea6:	f3 0f 1e fa          	endbr64 
    6eaa:	55                   	push   %rbp
    6eab:	48 89 e5             	mov    %rsp,%rbp
    6eae:	89 7d fc             	mov    %edi,-0x4(%rbp)
    6eb1:	8b 45 fc             	mov    -0x4(%rbp),%eax
    6eb4:	f7 d8                	neg    %eax
    6eb6:	5d                   	pop    %rbp
    6eb7:	c3                   	retq   

0000000000006eb8 <safe_add_func_uint32_t_u_u>:
    6eb8:	f3 0f 1e fa          	endbr64 
    6ebc:	55                   	push   %rbp
    6ebd:	48 89 e5             	mov    %rsp,%rbp
    6ec0:	89 7d fc             	mov    %edi,-0x4(%rbp)
    6ec3:	89 75 f8             	mov    %esi,-0x8(%rbp)
    6ec6:	8b 55 fc             	mov    -0x4(%rbp),%edx
    6ec9:	8b 45 f8             	mov    -0x8(%rbp),%eax
    6ecc:	01 d0                	add    %edx,%eax
    6ece:	5d                   	pop    %rbp
    6ecf:	c3                   	retq   

0000000000006ed0 <safe_sub_func_uint32_t_u_u>:
    6ed0:	f3 0f 1e fa          	endbr64 
    6ed4:	55                   	push   %rbp
    6ed5:	48 89 e5             	mov    %rsp,%rbp
    6ed8:	89 7d fc             	mov    %edi,-0x4(%rbp)
    6edb:	89 75 f8             	mov    %esi,-0x8(%rbp)
    6ede:	8b 45 fc             	mov    -0x4(%rbp),%eax
    6ee1:	2b 45 f8             	sub    -0x8(%rbp),%eax
    6ee4:	5d                   	pop    %rbp
    6ee5:	c3                   	retq   

0000000000006ee6 <safe_mul_func_uint32_t_u_u>:
    6ee6:	f3 0f 1e fa          	endbr64 
    6eea:	55                   	push   %rbp
    6eeb:	48 89 e5             	mov    %rsp,%rbp
    6eee:	89 7d fc             	mov    %edi,-0x4(%rbp)
    6ef1:	89 75 f8             	mov    %esi,-0x8(%rbp)
    6ef4:	8b 45 fc             	mov    -0x4(%rbp),%eax
    6ef7:	0f af 45 f8          	imul   -0x8(%rbp),%eax
    6efb:	5d                   	pop    %rbp
    6efc:	c3                   	retq   

0000000000006efd <safe_mod_func_uint32_t_u_u>:
    6efd:	f3 0f 1e fa          	endbr64 
    6f01:	55                   	push   %rbp
    6f02:	48 89 e5             	mov    %rsp,%rbp
    6f05:	89 7d fc             	mov    %edi,-0x4(%rbp)
    6f08:	89 75 f8             	mov    %esi,-0x8(%rbp)
    6f0b:	83 7d f8 00          	cmpl   $0x0,-0x8(%rbp)
    6f0f:	74 0f                	je     6f20 <safe_mod_func_uint32_t_u_u+0x23>
    6f11:	8b 45 fc             	mov    -0x4(%rbp),%eax
    6f14:	ba 00 00 00 00       	mov    $0x0,%edx
    6f19:	f7 75 f8             	divl   -0x8(%rbp)
    6f1c:	89 d0                	mov    %edx,%eax
    6f1e:	eb 03                	jmp    6f23 <safe_mod_func_uint32_t_u_u+0x26>
    6f20:	8b 45 fc             	mov    -0x4(%rbp),%eax
    6f23:	5d                   	pop    %rbp
    6f24:	c3                   	retq   

0000000000006f25 <safe_div_func_uint32_t_u_u>:
    6f25:	f3 0f 1e fa          	endbr64 
    6f29:	55                   	push   %rbp
    6f2a:	48 89 e5             	mov    %rsp,%rbp
    6f2d:	89 7d fc             	mov    %edi,-0x4(%rbp)
    6f30:	89 75 f8             	mov    %esi,-0x8(%rbp)
    6f33:	83 7d f8 00          	cmpl   $0x0,-0x8(%rbp)
    6f37:	74 0d                	je     6f46 <safe_div_func_uint32_t_u_u+0x21>
    6f39:	8b 45 fc             	mov    -0x4(%rbp),%eax
    6f3c:	ba 00 00 00 00       	mov    $0x0,%edx
    6f41:	f7 75 f8             	divl   -0x8(%rbp)
    6f44:	eb 03                	jmp    6f49 <safe_div_func_uint32_t_u_u+0x24>
    6f46:	8b 45 fc             	mov    -0x4(%rbp),%eax
    6f49:	5d                   	pop    %rbp
    6f4a:	c3                   	retq   

0000000000006f4b <safe_lshift_func_uint32_t_u_s>:
    6f4b:	f3 0f 1e fa          	endbr64 
    6f4f:	55                   	push   %rbp
    6f50:	48 89 e5             	mov    %rsp,%rbp
    6f53:	89 7d fc             	mov    %edi,-0x4(%rbp)
    6f56:	89 75 f8             	mov    %esi,-0x8(%rbp)
    6f59:	83 7d f8 00          	cmpl   $0x0,-0x8(%rbp)
    6f5d:	78 27                	js     6f86 <safe_lshift_func_uint32_t_u_s+0x3b>
    6f5f:	83 7d f8 1f          	cmpl   $0x1f,-0x8(%rbp)
    6f63:	7f 21                	jg     6f86 <safe_lshift_func_uint32_t_u_s+0x3b>
    6f65:	8b 45 f8             	mov    -0x8(%rbp),%eax
    6f68:	ba ff ff ff ff       	mov    $0xffffffff,%edx
    6f6d:	89 c1                	mov    %eax,%ecx
    6f6f:	d3 ea                	shr    %cl,%edx
    6f71:	89 d0                	mov    %edx,%eax
    6f73:	39 45 fc             	cmp    %eax,-0x4(%rbp)
    6f76:	77 0e                	ja     6f86 <safe_lshift_func_uint32_t_u_s+0x3b>
    6f78:	8b 45 f8             	mov    -0x8(%rbp),%eax
    6f7b:	8b 55 fc             	mov    -0x4(%rbp),%edx
    6f7e:	89 c1                	mov    %eax,%ecx
    6f80:	d3 e2                	shl    %cl,%edx
    6f82:	89 d0                	mov    %edx,%eax
    6f84:	eb 03                	jmp    6f89 <safe_lshift_func_uint32_t_u_s+0x3e>
    6f86:	8b 45 fc             	mov    -0x4(%rbp),%eax
    6f89:	5d                   	pop    %rbp
    6f8a:	c3                   	retq   

0000000000006f8b <safe_lshift_func_uint32_t_u_u>:
    6f8b:	f3 0f 1e fa          	endbr64 
    6f8f:	55                   	push   %rbp
    6f90:	48 89 e5             	mov    %rsp,%rbp
    6f93:	89 7d fc             	mov    %edi,-0x4(%rbp)
    6f96:	89 75 f8             	mov    %esi,-0x8(%rbp)
    6f99:	83 7d f8 1f          	cmpl   $0x1f,-0x8(%rbp)
    6f9d:	77 21                	ja     6fc0 <safe_lshift_func_uint32_t_u_u+0x35>
    6f9f:	8b 45 f8             	mov    -0x8(%rbp),%eax
    6fa2:	ba ff ff ff ff       	mov    $0xffffffff,%edx
    6fa7:	89 c1                	mov    %eax,%ecx
    6fa9:	d3 ea                	shr    %cl,%edx
    6fab:	89 d0                	mov    %edx,%eax
    6fad:	39 45 fc             	cmp    %eax,-0x4(%rbp)
    6fb0:	77 0e                	ja     6fc0 <safe_lshift_func_uint32_t_u_u+0x35>
    6fb2:	8b 45 f8             	mov    -0x8(%rbp),%eax
    6fb5:	8b 55 fc             	mov    -0x4(%rbp),%edx
    6fb8:	89 c1                	mov    %eax,%ecx
    6fba:	d3 e2                	shl    %cl,%edx
    6fbc:	89 d0                	mov    %edx,%eax
    6fbe:	eb 03                	jmp    6fc3 <safe_lshift_func_uint32_t_u_u+0x38>
    6fc0:	8b 45 fc             	mov    -0x4(%rbp),%eax
    6fc3:	5d                   	pop    %rbp
    6fc4:	c3                   	retq   

0000000000006fc5 <safe_rshift_func_uint32_t_u_s>:
    6fc5:	f3 0f 1e fa          	endbr64 
    6fc9:	55                   	push   %rbp
    6fca:	48 89 e5             	mov    %rsp,%rbp
    6fcd:	89 7d fc             	mov    %edi,-0x4(%rbp)
    6fd0:	89 75 f8             	mov    %esi,-0x8(%rbp)
    6fd3:	83 7d f8 00          	cmpl   $0x0,-0x8(%rbp)
    6fd7:	78 14                	js     6fed <safe_rshift_func_uint32_t_u_s+0x28>
    6fd9:	83 7d f8 1f          	cmpl   $0x1f,-0x8(%rbp)
    6fdd:	7f 0e                	jg     6fed <safe_rshift_func_uint32_t_u_s+0x28>
    6fdf:	8b 45 f8             	mov    -0x8(%rbp),%eax
    6fe2:	8b 55 fc             	mov    -0x4(%rbp),%edx
    6fe5:	89 c1                	mov    %eax,%ecx
    6fe7:	d3 ea                	shr    %cl,%edx
    6fe9:	89 d0                	mov    %edx,%eax
    6feb:	eb 03                	jmp    6ff0 <safe_rshift_func_uint32_t_u_s+0x2b>
    6fed:	8b 45 fc             	mov    -0x4(%rbp),%eax
    6ff0:	5d                   	pop    %rbp
    6ff1:	c3                   	retq   

0000000000006ff2 <safe_rshift_func_uint32_t_u_u>:
    6ff2:	f3 0f 1e fa          	endbr64 
    6ff6:	55                   	push   %rbp
    6ff7:	48 89 e5             	mov    %rsp,%rbp
    6ffa:	89 7d fc             	mov    %edi,-0x4(%rbp)
    6ffd:	89 75 f8             	mov    %esi,-0x8(%rbp)
    7000:	83 7d f8 1f          	cmpl   $0x1f,-0x8(%rbp)
    7004:	77 0e                	ja     7014 <safe_rshift_func_uint32_t_u_u+0x22>
    7006:	8b 45 f8             	mov    -0x8(%rbp),%eax
    7009:	8b 55 fc             	mov    -0x4(%rbp),%edx
    700c:	89 c1                	mov    %eax,%ecx
    700e:	d3 ea                	shr    %cl,%edx
    7010:	89 d0                	mov    %edx,%eax
    7012:	eb 03                	jmp    7017 <safe_rshift_func_uint32_t_u_u+0x25>
    7014:	8b 45 fc             	mov    -0x4(%rbp),%eax
    7017:	5d                   	pop    %rbp
    7018:	c3                   	retq   

0000000000007019 <safe_unary_minus_func_uint64_t_u>:
    7019:	f3 0f 1e fa          	endbr64 
    701d:	55                   	push   %rbp
    701e:	48 89 e5             	mov    %rsp,%rbp
    7021:	48 89 7d f8          	mov    %rdi,-0x8(%rbp)
    7025:	48 8b 45 f8          	mov    -0x8(%rbp),%rax
    7029:	48 f7 d8             	neg    %rax
    702c:	5d                   	pop    %rbp
    702d:	c3                   	retq   

000000000000702e <safe_add_func_uint64_t_u_u>:
    702e:	f3 0f 1e fa          	endbr64 
    7032:	55                   	push   %rbp
    7033:	48 89 e5             	mov    %rsp,%rbp
    7036:	48 89 7d f8          	mov    %rdi,-0x8(%rbp)
    703a:	48 89 75 f0          	mov    %rsi,-0x10(%rbp)
    703e:	48 8b 55 f8          	mov    -0x8(%rbp),%rdx
    7042:	48 8b 45 f0          	mov    -0x10(%rbp),%rax
    7046:	48 01 d0             	add    %rdx,%rax
    7049:	5d                   	pop    %rbp
    704a:	c3                   	retq   

000000000000704b <safe_sub_func_uint64_t_u_u>:
    704b:	f3 0f 1e fa          	endbr64 
    704f:	55                   	push   %rbp
    7050:	48 89 e5             	mov    %rsp,%rbp
    7053:	48 89 7d f8          	mov    %rdi,-0x8(%rbp)
    7057:	48 89 75 f0          	mov    %rsi,-0x10(%rbp)
    705b:	48 8b 45 f8          	mov    -0x8(%rbp),%rax
    705f:	48 2b 45 f0          	sub    -0x10(%rbp),%rax
    7063:	5d                   	pop    %rbp
    7064:	c3                   	retq   

0000000000007065 <safe_mul_func_uint64_t_u_u>:
    7065:	f3 0f 1e fa          	endbr64 
    7069:	55                   	push   %rbp
    706a:	48 89 e5             	mov    %rsp,%rbp
    706d:	48 89 7d f8          	mov    %rdi,-0x8(%rbp)
    7071:	48 89 75 f0          	mov    %rsi,-0x10(%rbp)
    7075:	48 8b 45 f8          	mov    -0x8(%rbp),%rax
    7079:	48 0f af 45 f0       	imul   -0x10(%rbp),%rax
    707e:	5d                   	pop    %rbp
    707f:	c3                   	retq   

0000000000007080 <safe_mod_func_uint64_t_u_u>:
    7080:	f3 0f 1e fa          	endbr64 
    7084:	55                   	push   %rbp
    7085:	48 89 e5             	mov    %rsp,%rbp
    7088:	48 89 7d f8          	mov    %rdi,-0x8(%rbp)
    708c:	48 89 75 f0          	mov    %rsi,-0x10(%rbp)
    7090:	48 83 7d f0 00       	cmpq   $0x0,-0x10(%rbp)
    7095:	74 12                	je     70a9 <safe_mod_func_uint64_t_u_u+0x29>
    7097:	48 8b 45 f8          	mov    -0x8(%rbp),%rax
    709b:	ba 00 00 00 00       	mov    $0x0,%edx
    70a0:	48 f7 75 f0          	divq   -0x10(%rbp)
    70a4:	48 89 d0             	mov    %rdx,%rax
    70a7:	eb 04                	jmp    70ad <safe_mod_func_uint64_t_u_u+0x2d>
    70a9:	48 8b 45 f8          	mov    -0x8(%rbp),%rax
    70ad:	5d                   	pop    %rbp
    70ae:	c3                   	retq   

00000000000070af <safe_div_func_uint64_t_u_u>:
    70af:	f3 0f 1e fa          	endbr64 
    70b3:	55                   	push   %rbp
    70b4:	48 89 e5             	mov    %rsp,%rbp
    70b7:	48 89 7d f8          	mov    %rdi,-0x8(%rbp)
    70bb:	48 89 75 f0          	mov    %rsi,-0x10(%rbp)
    70bf:	48 83 7d f0 00       	cmpq   $0x0,-0x10(%rbp)
    70c4:	74 0f                	je     70d5 <safe_div_func_uint64_t_u_u+0x26>
    70c6:	48 8b 45 f8          	mov    -0x8(%rbp),%rax
    70ca:	ba 00 00 00 00       	mov    $0x0,%edx
    70cf:	48 f7 75 f0          	divq   -0x10(%rbp)
    70d3:	eb 04                	jmp    70d9 <safe_div_func_uint64_t_u_u+0x2a>
    70d5:	48 8b 45 f8          	mov    -0x8(%rbp),%rax
    70d9:	5d                   	pop    %rbp
    70da:	c3                   	retq   

00000000000070db <safe_lshift_func_uint64_t_u_s>:
    70db:	f3 0f 1e fa          	endbr64 
    70df:	55                   	push   %rbp
    70e0:	48 89 e5             	mov    %rsp,%rbp
    70e3:	48 89 7d f8          	mov    %rdi,-0x8(%rbp)
    70e7:	89 75 f4             	mov    %esi,-0xc(%rbp)
    70ea:	83 7d f4 00          	cmpl   $0x0,-0xc(%rbp)
    70ee:	78 2f                	js     711f <safe_lshift_func_uint64_t_u_s+0x44>
    70f0:	83 7d f4 1f          	cmpl   $0x1f,-0xc(%rbp)
    70f4:	7f 29                	jg     711f <safe_lshift_func_uint64_t_u_s+0x44>
    70f6:	8b 45 f4             	mov    -0xc(%rbp),%eax
    70f9:	48 c7 c2 ff ff ff ff 	mov    $0xffffffffffffffff,%rdx
    7100:	89 c1                	mov    %eax,%ecx
    7102:	48 d3 ea             	shr    %cl,%rdx
    7105:	48 89 d0             	mov    %rdx,%rax
    7108:	48 39 45 f8          	cmp    %rax,-0x8(%rbp)
    710c:	77 11                	ja     711f <safe_lshift_func_uint64_t_u_s+0x44>
    710e:	8b 45 f4             	mov    -0xc(%rbp),%eax
    7111:	48 8b 55 f8          	mov    -0x8(%rbp),%rdx
    7115:	89 c1                	mov    %eax,%ecx
    7117:	48 d3 e2             	shl    %cl,%rdx
    711a:	48 89 d0             	mov    %rdx,%rax
    711d:	eb 04                	jmp    7123 <safe_lshift_func_uint64_t_u_s+0x48>
    711f:	48 8b 45 f8          	mov    -0x8(%rbp),%rax
    7123:	5d                   	pop    %rbp
    7124:	c3                   	retq   

0000000000007125 <safe_lshift_func_uint64_t_u_u>:
    7125:	f3 0f 1e fa          	endbr64 
    7129:	55                   	push   %rbp
    712a:	48 89 e5             	mov    %rsp,%rbp
    712d:	48 89 7d f8          	mov    %rdi,-0x8(%rbp)
    7131:	89 75 f4             	mov    %esi,-0xc(%rbp)
    7134:	83 7d f4 1f          	cmpl   $0x1f,-0xc(%rbp)
    7138:	77 29                	ja     7163 <safe_lshift_func_uint64_t_u_u+0x3e>
    713a:	8b 45 f4             	mov    -0xc(%rbp),%eax
    713d:	48 c7 c2 ff ff ff ff 	mov    $0xffffffffffffffff,%rdx
    7144:	89 c1                	mov    %eax,%ecx
    7146:	48 d3 ea             	shr    %cl,%rdx
    7149:	48 89 d0             	mov    %rdx,%rax
    714c:	48 39 45 f8          	cmp    %rax,-0x8(%rbp)
    7150:	77 11                	ja     7163 <safe_lshift_func_uint64_t_u_u+0x3e>
    7152:	8b 45 f4             	mov    -0xc(%rbp),%eax
    7155:	48 8b 55 f8          	mov    -0x8(%rbp),%rdx
    7159:	89 c1                	mov    %eax,%ecx
    715b:	48 d3 e2             	shl    %cl,%rdx
    715e:	48 89 d0             	mov    %rdx,%rax
    7161:	eb 04                	jmp    7167 <safe_lshift_func_uint64_t_u_u+0x42>
    7163:	48 8b 45 f8          	mov    -0x8(%rbp),%rax
    7167:	5d                   	pop    %rbp
    7168:	c3                   	retq   

0000000000007169 <safe_rshift_func_uint64_t_u_s>:
    7169:	f3 0f 1e fa          	endbr64 
    716d:	55                   	push   %rbp
    716e:	48 89 e5             	mov    %rsp,%rbp
    7171:	48 89 7d f8          	mov    %rdi,-0x8(%rbp)
    7175:	89 75 f4             	mov    %esi,-0xc(%rbp)
    7178:	83 7d f4 00          	cmpl   $0x0,-0xc(%rbp)
    717c:	78 17                	js     7195 <safe_rshift_func_uint64_t_u_s+0x2c>
    717e:	83 7d f4 1f          	cmpl   $0x1f,-0xc(%rbp)
    7182:	7f 11                	jg     7195 <safe_rshift_func_uint64_t_u_s+0x2c>
    7184:	8b 45 f4             	mov    -0xc(%rbp),%eax
    7187:	48 8b 55 f8          	mov    -0x8(%rbp),%rdx
    718b:	89 c1                	mov    %eax,%ecx
    718d:	48 d3 ea             	shr    %cl,%rdx
    7190:	48 89 d0             	mov    %rdx,%rax
    7193:	eb 04                	jmp    7199 <safe_rshift_func_uint64_t_u_s+0x30>
    7195:	48 8b 45 f8          	mov    -0x8(%rbp),%rax
    7199:	5d                   	pop    %rbp
    719a:	c3                   	retq   

000000000000719b <safe_rshift_func_uint64_t_u_u>:
    719b:	f3 0f 1e fa          	endbr64 
    719f:	55                   	push   %rbp
    71a0:	48 89 e5             	mov    %rsp,%rbp
    71a3:	48 89 7d f8          	mov    %rdi,-0x8(%rbp)
    71a7:	89 75 f4             	mov    %esi,-0xc(%rbp)
    71aa:	83 7d f4 1f          	cmpl   $0x1f,-0xc(%rbp)
    71ae:	77 11                	ja     71c1 <safe_rshift_func_uint64_t_u_u+0x26>
    71b0:	8b 45 f4             	mov    -0xc(%rbp),%eax
    71b3:	48 8b 55 f8          	mov    -0x8(%rbp),%rdx
    71b7:	89 c1                	mov    %eax,%ecx
    71b9:	48 d3 ea             	shr    %cl,%rdx
    71bc:	48 89 d0             	mov    %rdx,%rax
    71bf:	eb 04                	jmp    71c5 <safe_rshift_func_uint64_t_u_u+0x2a>
    71c1:	48 8b 45 f8          	mov    -0x8(%rbp),%rax
    71c5:	5d                   	pop    %rbp
    71c6:	c3                   	retq   

00000000000071c7 <safe_add_func_float_f_f>:
    71c7:	f3 0f 1e fa          	endbr64 
    71cb:	55                   	push   %rbp
    71cc:	48 89 e5             	mov    %rsp,%rbp
    71cf:	f3 0f 11 45 fc       	movss  %xmm0,-0x4(%rbp)
    71d4:	f3 0f 11 4d f8       	movss  %xmm1,-0x8(%rbp)
    71d9:	f3 0f 10 4d fc       	movss  -0x4(%rbp),%xmm1
    71de:	f3 0f 10 05 0a 42 01 	movss  0x1420a(%rip),%xmm0        # 1b3f0 <l_2301.4616+0x8>
    71e5:	00 
    71e6:	f3 0f 59 c8          	mulss  %xmm0,%xmm1
    71ea:	f3 0f 10 55 f8       	movss  -0x8(%rbp),%xmm2
    71ef:	f3 0f 10 05 f9 41 01 	movss  0x141f9(%rip),%xmm0        # 1b3f0 <l_2301.4616+0x8>
    71f6:	00 
    71f7:	f3 0f 59 c2          	mulss  %xmm2,%xmm0
    71fb:	f3 0f 58 c1          	addss  %xmm1,%xmm0
    71ff:	f3 0f 10 0d f9 41 01 	movss  0x141f9(%rip),%xmm1        # 1b400 <l_2301.4616+0x18>
    7206:	00 
    7207:	0f 54 c1             	andps  %xmm1,%xmm0
    720a:	0f 2f 05 ff 41 01 00 	comiss 0x141ff(%rip),%xmm0        # 1b410 <l_2301.4616+0x28>
    7211:	76 07                	jbe    721a <safe_add_func_float_f_f+0x53>
    7213:	f3 0f 10 45 fc       	movss  -0x4(%rbp),%xmm0
    7218:	eb 0a                	jmp    7224 <safe_add_func_float_f_f+0x5d>
    721a:	f3 0f 10 45 fc       	movss  -0x4(%rbp),%xmm0
    721f:	f3 0f 58 45 f8       	addss  -0x8(%rbp),%xmm0
    7224:	5d                   	pop    %rbp
    7225:	c3                   	retq   

0000000000007226 <safe_sub_func_float_f_f>:
    7226:	f3 0f 1e fa          	endbr64 
    722a:	55                   	push   %rbp
    722b:	48 89 e5             	mov    %rsp,%rbp
    722e:	f3 0f 11 45 fc       	movss  %xmm0,-0x4(%rbp)
    7233:	f3 0f 11 4d f8       	movss  %xmm1,-0x8(%rbp)
    7238:	f3 0f 10 4d fc       	movss  -0x4(%rbp),%xmm1
    723d:	f3 0f 10 05 ab 41 01 	movss  0x141ab(%rip),%xmm0        # 1b3f0 <l_2301.4616+0x8>
    7244:	00 
    7245:	f3 0f 59 c1          	mulss  %xmm1,%xmm0
    7249:	f3 0f 10 55 f8       	movss  -0x8(%rbp),%xmm2
    724e:	f3 0f 10 0d 9a 41 01 	movss  0x1419a(%rip),%xmm1        # 1b3f0 <l_2301.4616+0x8>
    7255:	00 
    7256:	f3 0f 59 ca          	mulss  %xmm2,%xmm1
    725a:	f3 0f 5c c1          	subss  %xmm1,%xmm0
    725e:	f3 0f 10 0d 9a 41 01 	movss  0x1419a(%rip),%xmm1        # 1b400 <l_2301.4616+0x18>
    7265:	00 
    7266:	0f 54 c1             	andps  %xmm1,%xmm0
    7269:	0f 2f 05 a0 41 01 00 	comiss 0x141a0(%rip),%xmm0        # 1b410 <l_2301.4616+0x28>
    7270:	76 07                	jbe    7279 <safe_sub_func_float_f_f+0x53>
    7272:	f3 0f 10 45 fc       	movss  -0x4(%rbp),%xmm0
    7277:	eb 0a                	jmp    7283 <safe_sub_func_float_f_f+0x5d>
    7279:	f3 0f 10 45 fc       	movss  -0x4(%rbp),%xmm0
    727e:	f3 0f 5c 45 f8       	subss  -0x8(%rbp),%xmm0
    7283:	5d                   	pop    %rbp
    7284:	c3                   	retq   

0000000000007285 <safe_mul_func_float_f_f>:
    7285:	f3 0f 1e fa          	endbr64 
    7289:	55                   	push   %rbp
    728a:	48 89 e5             	mov    %rsp,%rbp
    728d:	f3 0f 11 45 fc       	movss  %xmm0,-0x4(%rbp)
    7292:	f3 0f 11 4d f8       	movss  %xmm1,-0x8(%rbp)
    7297:	f3 0f 10 4d fc       	movss  -0x4(%rbp),%xmm1
    729c:	f3 0f 10 05 70 41 01 	movss  0x14170(%rip),%xmm0        # 1b414 <l_2301.4616+0x2c>
    72a3:	00 
    72a4:	f3 0f 59 c8          	mulss  %xmm0,%xmm1
    72a8:	f3 0f 10 55 f8       	movss  -0x8(%rbp),%xmm2
    72ad:	f3 0f 10 05 63 41 01 	movss  0x14163(%rip),%xmm0        # 1b418 <l_2301.4616+0x30>
    72b4:	00 
    72b5:	f3 0f 59 c2          	mulss  %xmm2,%xmm0
    72b9:	f3 0f 59 c1          	mulss  %xmm1,%xmm0
    72bd:	f3 0f 10 0d 3b 41 01 	movss  0x1413b(%rip),%xmm1        # 1b400 <l_2301.4616+0x18>
    72c4:	00 
    72c5:	0f 54 c1             	andps  %xmm1,%xmm0
    72c8:	0f 2f 05 4d 41 01 00 	comiss 0x1414d(%rip),%xmm0        # 1b41c <l_2301.4616+0x34>
    72cf:	76 07                	jbe    72d8 <safe_mul_func_float_f_f+0x53>
    72d1:	f3 0f 10 45 fc       	movss  -0x4(%rbp),%xmm0
    72d6:	eb 0a                	jmp    72e2 <safe_mul_func_float_f_f+0x5d>
    72d8:	f3 0f 10 45 fc       	movss  -0x4(%rbp),%xmm0
    72dd:	f3 0f 59 45 f8       	mulss  -0x8(%rbp),%xmm0
    72e2:	5d                   	pop    %rbp
    72e3:	c3                   	retq   

00000000000072e4 <safe_div_func_float_f_f>:
    72e4:	f3 0f 1e fa          	endbr64 
    72e8:	55                   	push   %rbp
    72e9:	48 89 e5             	mov    %rsp,%rbp
    72ec:	f3 0f 11 45 fc       	movss  %xmm0,-0x4(%rbp)
    72f1:	f3 0f 11 4d f8       	movss  %xmm1,-0x8(%rbp)
    72f6:	f3 0f 10 45 f8       	movss  -0x8(%rbp),%xmm0
    72fb:	f3 0f 10 0d fd 40 01 	movss  0x140fd(%rip),%xmm1        # 1b400 <l_2301.4616+0x18>
    7302:	00 
    7303:	0f 54 c8             	andps  %xmm0,%xmm1
    7306:	f3 0f 10 05 12 41 01 	movss  0x14112(%rip),%xmm0        # 1b420 <l_2301.4616+0x38>
    730d:	00 
    730e:	0f 2f c1             	comiss %xmm1,%xmm0
    7311:	0f 97 c0             	seta   %al
    7314:	83 f0 01             	xor    $0x1,%eax
    7317:	84 c0                	test   %al,%al
    7319:	75 56                	jne    7371 <safe_div_func_float_f_f+0x8d>
    731b:	66 0f ef c0          	pxor   %xmm0,%xmm0
    731f:	0f 2e 45 f8          	ucomiss -0x8(%rbp),%xmm0
    7323:	7a 0a                	jp     732f <safe_div_func_float_f_f+0x4b>
    7325:	66 0f ef c0          	pxor   %xmm0,%xmm0
    7329:	0f 2e 45 f8          	ucomiss -0x8(%rbp),%xmm0
    732d:	74 4e                	je     737d <safe_div_func_float_f_f+0x99>
    732f:	f3 0f 10 4d fc       	movss  -0x4(%rbp),%xmm1
    7334:	f3 0f 10 05 e8 40 01 	movss  0x140e8(%rip),%xmm0        # 1b424 <l_2301.4616+0x3c>
    733b:	00 
    733c:	f3 0f 59 c1          	mulss  %xmm1,%xmm0
    7340:	f3 0f 10 55 f8       	movss  -0x8(%rbp),%xmm2
    7345:	f3 0f 10 0d db 40 01 	movss  0x140db(%rip),%xmm1        # 1b428 <l_2301.4616+0x40>
    734c:	00 
    734d:	f3 0f 59 ca          	mulss  %xmm2,%xmm1
    7351:	f3 0f 5e c1          	divss  %xmm1,%xmm0
    7355:	f3 0f 10 0d a3 40 01 	movss  0x140a3(%rip),%xmm1        # 1b400 <l_2301.4616+0x18>
    735c:	00 
    735d:	0f 54 c1             	andps  %xmm1,%xmm0
    7360:	0f 2f 05 c5 40 01 00 	comiss 0x140c5(%rip),%xmm0        # 1b42c <l_2301.4616+0x44>
    7367:	0f 97 c0             	seta   %al
    736a:	83 f0 01             	xor    $0x1,%eax
    736d:	84 c0                	test   %al,%al
    736f:	74 0c                	je     737d <safe_div_func_float_f_f+0x99>
    7371:	f3 0f 10 45 fc       	movss  -0x4(%rbp),%xmm0
    7376:	f3 0f 5e 45 f8       	divss  -0x8(%rbp),%xmm0
    737b:	eb 05                	jmp    7382 <safe_div_func_float_f_f+0x9e>
    737d:	f3 0f 10 45 fc       	movss  -0x4(%rbp),%xmm0
    7382:	5d                   	pop    %rbp
    7383:	c3                   	retq   

0000000000007384 <safe_add_func_double_f_f>:
    7384:	f3 0f 1e fa          	endbr64 
    7388:	55                   	push   %rbp
    7389:	48 89 e5             	mov    %rsp,%rbp
    738c:	f2 0f 11 45 f8       	movsd  %xmm0,-0x8(%rbp)
    7391:	f2 0f 11 4d f0       	movsd  %xmm1,-0x10(%rbp)
    7396:	f2 0f 10 4d f8       	movsd  -0x8(%rbp),%xmm1
    739b:	f2 0f 10 05 8d 40 01 	movsd  0x1408d(%rip),%xmm0        # 1b430 <l_2301.4616+0x48>
    73a2:	00 
    73a3:	f2 0f 59 c8          	mulsd  %xmm0,%xmm1
    73a7:	f2 0f 10 55 f0       	movsd  -0x10(%rbp),%xmm2
    73ac:	f2 0f 10 05 7c 40 01 	movsd  0x1407c(%rip),%xmm0        # 1b430 <l_2301.4616+0x48>
    73b3:	00 
    73b4:	f2 0f 59 c2          	mulsd  %xmm2,%xmm0
    73b8:	f2 0f 58 c1          	addsd  %xmm1,%xmm0
    73bc:	f3 0f 7e 0d 7c 40 01 	movq   0x1407c(%rip),%xmm1        # 1b440 <l_2301.4616+0x58>
    73c3:	00 
    73c4:	66 0f 54 c1          	andpd  %xmm1,%xmm0
    73c8:	66 0f 2f 05 80 40 01 	comisd 0x14080(%rip),%xmm0        # 1b450 <l_2301.4616+0x68>
    73cf:	00 
    73d0:	76 07                	jbe    73d9 <safe_add_func_double_f_f+0x55>
    73d2:	f2 0f 10 45 f8       	movsd  -0x8(%rbp),%xmm0
    73d7:	eb 0a                	jmp    73e3 <safe_add_func_double_f_f+0x5f>
    73d9:	f2 0f 10 45 f8       	movsd  -0x8(%rbp),%xmm0
    73de:	f2 0f 58 45 f0       	addsd  -0x10(%rbp),%xmm0
    73e3:	5d                   	pop    %rbp
    73e4:	c3                   	retq   

00000000000073e5 <safe_sub_func_double_f_f>:
    73e5:	f3 0f 1e fa          	endbr64 
    73e9:	55                   	push   %rbp
    73ea:	48 89 e5             	mov    %rsp,%rbp
    73ed:	f2 0f 11 45 f8       	movsd  %xmm0,-0x8(%rbp)
    73f2:	f2 0f 11 4d f0       	movsd  %xmm1,-0x10(%rbp)
    73f7:	f2 0f 10 4d f8       	movsd  -0x8(%rbp),%xmm1
    73fc:	f2 0f 10 05 2c 40 01 	movsd  0x1402c(%rip),%xmm0        # 1b430 <l_2301.4616+0x48>
    7403:	00 
    7404:	f2 0f 59 c1          	mulsd  %xmm1,%xmm0
    7408:	f2 0f 10 55 f0       	movsd  -0x10(%rbp),%xmm2
    740d:	f2 0f 10 0d 1b 40 01 	movsd  0x1401b(%rip),%xmm1        # 1b430 <l_2301.4616+0x48>
    7414:	00 
    7415:	f2 0f 59 ca          	mulsd  %xmm2,%xmm1
    7419:	f2 0f 5c c1          	subsd  %xmm1,%xmm0
    741d:	f3 0f 7e 0d 1b 40 01 	movq   0x1401b(%rip),%xmm1        # 1b440 <l_2301.4616+0x58>
    7424:	00 
    7425:	66 0f 54 c1          	andpd  %xmm1,%xmm0
    7429:	66 0f 2f 05 1f 40 01 	comisd 0x1401f(%rip),%xmm0        # 1b450 <l_2301.4616+0x68>
    7430:	00 
    7431:	76 07                	jbe    743a <safe_sub_func_double_f_f+0x55>
    7433:	f2 0f 10 45 f8       	movsd  -0x8(%rbp),%xmm0
    7438:	eb 0a                	jmp    7444 <safe_sub_func_double_f_f+0x5f>
    743a:	f2 0f 10 45 f8       	movsd  -0x8(%rbp),%xmm0
    743f:	f2 0f 5c 45 f0       	subsd  -0x10(%rbp),%xmm0
    7444:	5d                   	pop    %rbp
    7445:	c3                   	retq   

0000000000007446 <safe_mul_func_double_f_f>:
    7446:	f3 0f 1e fa          	endbr64 
    744a:	55                   	push   %rbp
    744b:	48 89 e5             	mov    %rsp,%rbp
    744e:	f2 0f 11 45 f8       	movsd  %xmm0,-0x8(%rbp)
    7453:	f2 0f 11 4d f0       	movsd  %xmm1,-0x10(%rbp)
    7458:	f2 0f 10 4d f8       	movsd  -0x8(%rbp),%xmm1
    745d:	f2 0f 10 05 f3 3f 01 	movsd  0x13ff3(%rip),%xmm0        # 1b458 <l_2301.4616+0x70>
    7464:	00 
    7465:	f2 0f 59 c8          	mulsd  %xmm0,%xmm1
    7469:	f2 0f 10 55 f0       	movsd  -0x10(%rbp),%xmm2
    746e:	f2 0f 10 05 ea 3f 01 	movsd  0x13fea(%rip),%xmm0        # 1b460 <l_2301.4616+0x78>
    7475:	00 
    7476:	f2 0f 59 c2          	mulsd  %xmm2,%xmm0
    747a:	f2 0f 59 c1          	mulsd  %xmm1,%xmm0
    747e:	f3 0f 7e 0d ba 3f 01 	movq   0x13fba(%rip),%xmm1        # 1b440 <l_2301.4616+0x58>
    7485:	00 
    7486:	66 0f 54 c1          	andpd  %xmm1,%xmm0
    748a:	66 0f 2f 05 d6 3f 01 	comisd 0x13fd6(%rip),%xmm0        # 1b468 <l_2301.4616+0x80>
    7491:	00 
    7492:	76 07                	jbe    749b <safe_mul_func_double_f_f+0x55>
    7494:	f2 0f 10 45 f8       	movsd  -0x8(%rbp),%xmm0
    7499:	eb 0a                	jmp    74a5 <safe_mul_func_double_f_f+0x5f>
    749b:	f2 0f 10 45 f8       	movsd  -0x8(%rbp),%xmm0
    74a0:	f2 0f 59 45 f0       	mulsd  -0x10(%rbp),%xmm0
    74a5:	5d                   	pop    %rbp
    74a6:	c3                   	retq   

00000000000074a7 <safe_div_func_double_f_f>:
    74a7:	f3 0f 1e fa          	endbr64 
    74ab:	55                   	push   %rbp
    74ac:	48 89 e5             	mov    %rsp,%rbp
    74af:	f2 0f 11 45 f8       	movsd  %xmm0,-0x8(%rbp)
    74b4:	f2 0f 11 4d f0       	movsd  %xmm1,-0x10(%rbp)
    74b9:	f2 0f 10 45 f0       	movsd  -0x10(%rbp),%xmm0
    74be:	f3 0f 7e 0d 7a 3f 01 	movq   0x13f7a(%rip),%xmm1        # 1b440 <l_2301.4616+0x58>
    74c5:	00 
    74c6:	66 0f 54 c8          	andpd  %xmm0,%xmm1
    74ca:	f2 0f 10 05 9e 3f 01 	movsd  0x13f9e(%rip),%xmm0        # 1b470 <l_2301.4616+0x88>
    74d1:	00 
    74d2:	66 0f 2f c1          	comisd %xmm1,%xmm0
    74d6:	0f 97 c0             	seta   %al
    74d9:	83 f0 01             	xor    $0x1,%eax
    74dc:	84 c0                	test   %al,%al
    74de:	75 5a                	jne    753a <safe_div_func_double_f_f+0x93>
    74e0:	66 0f ef c0          	pxor   %xmm0,%xmm0
    74e4:	66 0f 2e 45 f0       	ucomisd -0x10(%rbp),%xmm0
    74e9:	7a 0b                	jp     74f6 <safe_div_func_double_f_f+0x4f>
    74eb:	66 0f ef c0          	pxor   %xmm0,%xmm0
    74ef:	66 0f 2e 45 f0       	ucomisd -0x10(%rbp),%xmm0
    74f4:	74 50                	je     7546 <safe_div_func_double_f_f+0x9f>
    74f6:	f2 0f 10 4d f8       	movsd  -0x8(%rbp),%xmm1
    74fb:	f2 0f 10 05 75 3f 01 	movsd  0x13f75(%rip),%xmm0        # 1b478 <l_2301.4616+0x90>
    7502:	00 
    7503:	f2 0f 59 c1          	mulsd  %xmm1,%xmm0
    7507:	f2 0f 10 55 f0       	movsd  -0x10(%rbp),%xmm2
    750c:	f2 0f 10 0d 6c 3f 01 	movsd  0x13f6c(%rip),%xmm1        # 1b480 <l_2301.4616+0x98>
    7513:	00 
    7514:	f2 0f 59 ca          	mulsd  %xmm2,%xmm1
    7518:	f2 0f 5e c1          	divsd  %xmm1,%xmm0
    751c:	f3 0f 7e 0d 1c 3f 01 	movq   0x13f1c(%rip),%xmm1        # 1b440 <l_2301.4616+0x58>
    7523:	00 
    7524:	66 0f 54 c1          	andpd  %xmm1,%xmm0
    7528:	66 0f 2f 05 58 3f 01 	comisd 0x13f58(%rip),%xmm0        # 1b488 <l_2301.4616+0xa0>
    752f:	00 
    7530:	0f 97 c0             	seta   %al
    7533:	83 f0 01             	xor    $0x1,%eax
    7536:	84 c0                	test   %al,%al
    7538:	74 0c                	je     7546 <safe_div_func_double_f_f+0x9f>
    753a:	f2 0f 10 45 f8       	movsd  -0x8(%rbp),%xmm0
    753f:	f2 0f 5e 45 f0       	divsd  -0x10(%rbp),%xmm0
    7544:	eb 05                	jmp    754b <safe_div_func_double_f_f+0xa4>
    7546:	f2 0f 10 45 f8       	movsd  -0x8(%rbp),%xmm0
    754b:	5d                   	pop    %rbp
    754c:	c3                   	retq   

000000000000754d <safe_convert_func_float_to_int32_t>:
    754d:	f3 0f 1e fa          	endbr64 
    7551:	55                   	push   %rbp
    7552:	48 89 e5             	mov    %rsp,%rbp
    7555:	f3 0f 11 45 fc       	movss  %xmm0,-0x4(%rbp)
    755a:	f3 0f 10 05 2e 3f 01 	movss  0x13f2e(%rip),%xmm0        # 1b490 <l_2301.4616+0xa8>
    7561:	00 
    7562:	0f 2f 45 fc          	comiss -0x4(%rbp),%xmm0
    7566:	0f 93 c0             	setae  %al
    7569:	83 f0 01             	xor    $0x1,%eax
    756c:	84 c0                	test   %al,%al
    756e:	74 21                	je     7591 <safe_convert_func_float_to_int32_t+0x44>
    7570:	f3 0f 10 45 fc       	movss  -0x4(%rbp),%xmm0
    7575:	0f 2f 05 18 3f 01 00 	comiss 0x13f18(%rip),%xmm0        # 1b494 <l_2301.4616+0xac>
    757c:	0f 93 c0             	setae  %al
    757f:	83 f0 01             	xor    $0x1,%eax
    7582:	84 c0                	test   %al,%al
    7584:	74 0b                	je     7591 <safe_convert_func_float_to_int32_t+0x44>
    7586:	f3 0f 10 45 fc       	movss  -0x4(%rbp),%xmm0
    758b:	f3 0f 2c c0          	cvttss2si %xmm0,%eax
    758f:	eb 05                	jmp    7596 <safe_convert_func_float_to_int32_t+0x49>
    7591:	b8 ff ff ff 7f       	mov    $0x7fffffff,%eax
    7596:	5d                   	pop    %rbp
    7597:	c3                   	retq   

0000000000007598 <crc32_gentab>:
    7598:	f3 0f 1e fa          	endbr64 
    759c:	55                   	push   %rbp
    759d:	48 89 e5             	mov    %rsp,%rbp
    75a0:	c7 45 fc 20 83 b8 ed 	movl   $0xedb88320,-0x4(%rbp)
    75a7:	c7 45 f4 00 00 00 00 	movl   $0x0,-0xc(%rbp)
    75ae:	eb 51                	jmp    7601 <crc32_gentab+0x69>
    75b0:	8b 45 f4             	mov    -0xc(%rbp),%eax
    75b3:	89 45 f0             	mov    %eax,-0x10(%rbp)
    75b6:	c7 45 f8 08 00 00 00 	movl   $0x8,-0x8(%rbp)
    75bd:	eb 1e                	jmp    75dd <crc32_gentab+0x45>
    75bf:	8b 45 f0             	mov    -0x10(%rbp),%eax
    75c2:	83 e0 01             	and    $0x1,%eax
    75c5:	85 c0                	test   %eax,%eax
    75c7:	74 0d                	je     75d6 <crc32_gentab+0x3e>
    75c9:	8b 45 f0             	mov    -0x10(%rbp),%eax
    75cc:	d1 e8                	shr    %eax
    75ce:	33 45 fc             	xor    -0x4(%rbp),%eax
    75d1:	89 45 f0             	mov    %eax,-0x10(%rbp)
    75d4:	eb 03                	jmp    75d9 <crc32_gentab+0x41>
    75d6:	d1 6d f0             	shrl   -0x10(%rbp)
    75d9:	83 6d f8 01          	subl   $0x1,-0x8(%rbp)
    75dd:	83 7d f8 00          	cmpl   $0x0,-0x8(%rbp)
    75e1:	7f dc                	jg     75bf <crc32_gentab+0x27>
    75e3:	8b 45 f4             	mov    -0xc(%rbp),%eax
    75e6:	48 98                	cltq   
    75e8:	48 8d 0c 85 00 00 00 	lea    0x0(,%rax,4),%rcx
    75ef:	00 
    75f0:	48 8d 15 69 ac 01 00 	lea    0x1ac69(%rip),%rdx        # 22260 <crc32_tab>
    75f7:	8b 45 f0             	mov    -0x10(%rbp),%eax
    75fa:	89 04 11             	mov    %eax,(%rcx,%rdx,1)
    75fd:	83 45 f4 01          	addl   $0x1,-0xc(%rbp)
    7601:	81 7d f4 ff 00 00 00 	cmpl   $0xff,-0xc(%rbp)
    7608:	7e a6                	jle    75b0 <crc32_gentab+0x18>
    760a:	90                   	nop
    760b:	90                   	nop
    760c:	5d                   	pop    %rbp
    760d:	c3                   	retq   

000000000000760e <crc32_byte>:
    760e:	f3 0f 1e fa          	endbr64 
    7612:	55                   	push   %rbp
    7613:	48 89 e5             	mov    %rsp,%rbp
    7616:	89 f8                	mov    %edi,%eax
    7618:	88 45 fc             	mov    %al,-0x4(%rbp)
    761b:	8b 05 ff 69 01 00    	mov    0x169ff(%rip),%eax        # 1e020 <crc32_context>
    7621:	c1 e8 08             	shr    $0x8,%eax
    7624:	89 c1                	mov    %eax,%ecx
    7626:	0f b6 55 fc          	movzbl -0x4(%rbp),%edx
    762a:	8b 05 f0 69 01 00    	mov    0x169f0(%rip),%eax        # 1e020 <crc32_context>
    7630:	31 d0                	xor    %edx,%eax
    7632:	0f b6 c0             	movzbl %al,%eax
    7635:	89 c0                	mov    %eax,%eax
    7637:	48 8d 14 85 00 00 00 	lea    0x0(,%rax,4),%rdx
    763e:	00 
    763f:	48 8d 05 1a ac 01 00 	lea    0x1ac1a(%rip),%rax        # 22260 <crc32_tab>
    7646:	8b 04 02             	mov    (%rdx,%rax,1),%eax
    7649:	31 c8                	xor    %ecx,%eax
    764b:	89 05 cf 69 01 00    	mov    %eax,0x169cf(%rip)        # 1e020 <crc32_context>
    7651:	90                   	nop
    7652:	5d                   	pop    %rbp
    7653:	c3                   	retq   

0000000000007654 <crc32_8bytes>:
    7654:	f3 0f 1e fa          	endbr64 
    7658:	55                   	push   %rbp
    7659:	48 89 e5             	mov    %rsp,%rbp
    765c:	48 83 ec 08          	sub    $0x8,%rsp
    7660:	48 89 7d f8          	mov    %rdi,-0x8(%rbp)
    7664:	48 8b 45 f8          	mov    -0x8(%rbp),%rax
    7668:	0f b6 c0             	movzbl %al,%eax
    766b:	89 c7                	mov    %eax,%edi
    766d:	e8 9c ff ff ff       	callq  760e <crc32_byte>
    7672:	48 8b 45 f8          	mov    -0x8(%rbp),%rax
    7676:	48 c1 e8 08          	shr    $0x8,%rax
    767a:	0f b6 c0             	movzbl %al,%eax
    767d:	89 c7                	mov    %eax,%edi
    767f:	e8 8a ff ff ff       	callq  760e <crc32_byte>
    7684:	48 8b 45 f8          	mov    -0x8(%rbp),%rax
    7688:	48 c1 e8 10          	shr    $0x10,%rax
    768c:	0f b6 c0             	movzbl %al,%eax
    768f:	89 c7                	mov    %eax,%edi
    7691:	e8 78 ff ff ff       	callq  760e <crc32_byte>
    7696:	48 8b 45 f8          	mov    -0x8(%rbp),%rax
    769a:	48 c1 e8 18          	shr    $0x18,%rax
    769e:	0f b6 c0             	movzbl %al,%eax
    76a1:	89 c7                	mov    %eax,%edi
    76a3:	e8 66 ff ff ff       	callq  760e <crc32_byte>
    76a8:	48 8b 45 f8          	mov    -0x8(%rbp),%rax
    76ac:	48 c1 e8 20          	shr    $0x20,%rax
    76b0:	0f b6 c0             	movzbl %al,%eax
    76b3:	89 c7                	mov    %eax,%edi
    76b5:	e8 54 ff ff ff       	callq  760e <crc32_byte>
    76ba:	48 8b 45 f8          	mov    -0x8(%rbp),%rax
    76be:	48 c1 e8 28          	shr    $0x28,%rax
    76c2:	0f b6 c0             	movzbl %al,%eax
    76c5:	89 c7                	mov    %eax,%edi
    76c7:	e8 42 ff ff ff       	callq  760e <crc32_byte>
    76cc:	48 8b 45 f8          	mov    -0x8(%rbp),%rax
    76d0:	48 c1 e8 30          	shr    $0x30,%rax
    76d4:	0f b6 c0             	movzbl %al,%eax
    76d7:	89 c7                	mov    %eax,%edi
    76d9:	e8 30 ff ff ff       	callq  760e <crc32_byte>
    76de:	48 8b 45 f8          	mov    -0x8(%rbp),%rax
    76e2:	48 c1 e8 38          	shr    $0x38,%rax
    76e6:	0f b6 c0             	movzbl %al,%eax
    76e9:	89 c7                	mov    %eax,%edi
    76eb:	e8 1e ff ff ff       	callq  760e <crc32_byte>
    76f0:	90                   	nop
    76f1:	c9                   	leaveq 
    76f2:	c3                   	retq   

00000000000076f3 <transparent_crc>:
    76f3:	f3 0f 1e fa          	endbr64 
    76f7:	55                   	push   %rbp
    76f8:	48 89 e5             	mov    %rsp,%rbp
    76fb:	48 83 ec 20          	sub    $0x20,%rsp
    76ff:	48 89 7d f8          	mov    %rdi,-0x8(%rbp)
    7703:	48 89 75 f0          	mov    %rsi,-0x10(%rbp)
    7707:	89 55 ec             	mov    %edx,-0x14(%rbp)
    770a:	48 8b 45 f8          	mov    -0x8(%rbp),%rax
    770e:	48 89 c7             	mov    %rax,%rdi
    7711:	e8 3e ff ff ff       	callq  7654 <crc32_8bytes>
    7716:	83 7d ec 00          	cmpl   $0x0,-0x14(%rbp)
    771a:	74 22                	je     773e <transparent_crc+0x4b>
    771c:	8b 05 fe 68 01 00    	mov    0x168fe(%rip),%eax        # 1e020 <crc32_context>
    7722:	f7 d0                	not    %eax
    7724:	89 c2                	mov    %eax,%edx
    7726:	48 8b 45 f0          	mov    -0x10(%rbp),%rax
    772a:	48 89 c6             	mov    %rax,%rsi
    772d:	48 8d 3d fc 08 01 00 	lea    0x108fc(%rip),%rdi        # 18030 <_IO_stdin_used+0x30>
    7734:	b8 00 00 00 00       	mov    $0x0,%eax
    7739:	e8 42 e9 ff ff       	callq  6080 <printf@plt>
    773e:	90                   	nop
    773f:	c9                   	leaveq 
    7740:	c3                   	retq   

0000000000007741 <transparent_crc_bytes>:
    7741:	f3 0f 1e fa          	endbr64 
    7745:	55                   	push   %rbp
    7746:	48 89 e5             	mov    %rsp,%rbp
    7749:	48 83 ec 30          	sub    $0x30,%rsp
    774d:	48 89 7d e8          	mov    %rdi,-0x18(%rbp)
    7751:	89 75 e4             	mov    %esi,-0x1c(%rbp)
    7754:	48 89 55 d8          	mov    %rdx,-0x28(%rbp)
    7758:	89 4d e0             	mov    %ecx,-0x20(%rbp)
    775b:	c7 45 fc 00 00 00 00 	movl   $0x0,-0x4(%rbp)
    7762:	eb 1e                	jmp    7782 <transparent_crc_bytes+0x41>
    7764:	8b 45 fc             	mov    -0x4(%rbp),%eax
    7767:	48 63 d0             	movslq %eax,%rdx
    776a:	48 8b 45 e8          	mov    -0x18(%rbp),%rax
    776e:	48 01 d0             	add    %rdx,%rax
    7771:	0f b6 00             	movzbl (%rax),%eax
    7774:	0f b6 c0             	movzbl %al,%eax
    7777:	89 c7                	mov    %eax,%edi
    7779:	e8 90 fe ff ff       	callq  760e <crc32_byte>
    777e:	83 45 fc 01          	addl   $0x1,-0x4(%rbp)
    7782:	8b 45 fc             	mov    -0x4(%rbp),%eax
    7785:	3b 45 e4             	cmp    -0x1c(%rbp),%eax
    7788:	7c da                	jl     7764 <transparent_crc_bytes+0x23>
    778a:	83 7d e0 00          	cmpl   $0x0,-0x20(%rbp)
    778e:	74 22                	je     77b2 <transparent_crc_bytes+0x71>
    7790:	8b 05 8a 68 01 00    	mov    0x1688a(%rip),%eax        # 1e020 <crc32_context>
    7796:	f7 d0                	not    %eax
    7798:	89 c2                	mov    %eax,%edx
    779a:	48 8b 45 d8          	mov    -0x28(%rbp),%rax
    779e:	48 89 c6             	mov    %rax,%rsi
    77a1:	48 8d 3d 88 08 01 00 	lea    0x10888(%rip),%rdi        # 18030 <_IO_stdin_used+0x30>
    77a8:	b8 00 00 00 00       	mov    $0x0,%eax
    77ad:	e8 ce e8 ff ff       	callq  6080 <printf@plt>
    77b2:	90                   	nop
    77b3:	c9                   	leaveq 
    77b4:	c3                   	retq   

00000000000077b5 <func_1>:
    77b5:	f3 0f 1e fa          	endbr64 
    77b9:	55                   	push   %rbp
    77ba:	48 89 e5             	mov    %rsp,%rbp
    77bd:	53                   	push   %rbx
    77be:	48 83 ec 28          	sub    $0x28,%rsp
    77c2:	48 89 7d d8          	mov    %rdi,-0x28(%rbp)
    77c6:	48 8d 05 d3 68 01 00 	lea    0x168d3(%rip),%rax        # 1e0a0 <g_4+0x10>
    77cd:	48 89 45 e0          	mov    %rax,-0x20(%rbp)
    77d1:	48 8d 05 c0 ae 01 00 	lea    0x1aec0(%rip),%rax        # 22698 <g_622>
    77d8:	48 89 45 e8          	mov    %rax,-0x18(%rbp)
    77dc:	48 8b 15 5d 68 01 00 	mov    0x1685d(%rip),%rdx        # 1e040 <g_2>
    77e3:	48 8b 45 e0          	mov    -0x20(%rbp),%rax
    77e7:	8b 00                	mov    (%rax),%eax
    77e9:	89 c1                	mov    %eax,%ecx
    77eb:	89 d0                	mov    %edx,%eax
    77ed:	09 c8                	or     %ecx,%eax
    77ef:	89 c2                	mov    %eax,%edx
    77f1:	48 8b 45 e0          	mov    -0x20(%rbp),%rax
    77f5:	89 10                	mov    %edx,(%rax)
    77f7:	48 8b 45 e0          	mov    -0x20(%rbp),%rax
    77fb:	48 89 c7             	mov    %rax,%rdi
    77fe:	e8 3f 00 00 00       	callq  7842 <func_5>
    7803:	48 8b 55 e8          	mov    -0x18(%rbp),%rdx
    7807:	48 89 02             	mov    %rax,(%rdx)
    780a:	48 8b 45 d8          	mov    -0x28(%rbp),%rax
    780e:	48 8b 0d bb 87 01 00 	mov    0x187bb(%rip),%rcx        # 1ffd0 <g_3041>
    7815:	48 8b 1d bc 87 01 00 	mov    0x187bc(%rip),%rbx        # 1ffd8 <g_3041+0x8>
    781c:	48 89 08             	mov    %rcx,(%rax)
    781f:	48 89 58 08          	mov    %rbx,0x8(%rax)
    7823:	8b 15 b7 87 01 00    	mov    0x187b7(%rip),%edx        # 1ffe0 <g_3041+0x10>
    7829:	89 50 10             	mov    %edx,0x10(%rax)
    782c:	0f b7 15 b1 87 01 00 	movzwl 0x187b1(%rip),%edx        # 1ffe4 <g_3041+0x14>
    7833:	66 89 50 14          	mov    %dx,0x14(%rax)
    7837:	48 8b 45 d8          	mov    -0x28(%rbp),%rax
    783b:	48 83 c4 28          	add    $0x28,%rsp
    783f:	5b                   	pop    %rbx
    7840:	5d                   	pop    %rbp
    7841:	c3                   	retq   

0000000000007842 <func_5>:
    7842:	f3 0f 1e fa          	endbr64 
    7846:	55                   	push   %rbp
    7847:	48 89 e5             	mov    %rsp,%rbp
    784a:	41 57                	push   %r15
    784c:	41 56                	push   %r14
    784e:	41 55                	push   %r13
    7850:	41 54                	push   %r12
    7852:	53                   	push   %rbx
    7853:	48 81 ec 78 01 00 00 	sub    $0x178,%rsp
    785a:	48 89 bd 98 fe ff ff 	mov    %rdi,-0x168(%rbp)
    7861:	64 48 8b 04 25 28 00 	mov    %fs:0x28,%rax
    7868:	00 00 
    786a:	48 89 45 c8          	mov    %rax,-0x38(%rbp)
    786e:	31 c0                	xor    %eax,%eax
    7870:	48 8d 05 29 68 01 00 	lea    0x16829(%rip),%rax        # 1e0a0 <g_4+0x10>
    7877:	48 89 85 b0 fe ff ff 	mov    %rax,-0x150(%rbp)
    787e:	48 8d 05 27 68 01 00 	lea    0x16827(%rip),%rax        # 1e0ac <g_28>
    7885:	48 89 85 b8 fe ff ff 	mov    %rax,-0x148(%rbp)
    788c:	48 8d 05 1b 68 01 00 	lea    0x1681b(%rip),%rax        # 1e0ae <g_34>
    7893:	48 89 85 c0 fe ff ff 	mov    %rax,-0x140(%rbp)
    789a:	48 8d 05 0f 68 01 00 	lea    0x1680f(%rip),%rax        # 1e0b0 <g_49>
    78a1:	48 89 85 c8 fe ff ff 	mov    %rax,-0x138(%rbp)
    78a8:	c7 85 a4 fe ff ff f6 	movl   $0xfffffff6,-0x15c(%rbp)
    78af:	ff ff ff 
    78b2:	48 8d 05 bf 83 01 00 	lea    0x183bf(%rip),%rax        # 1fc78 <g_3009>
    78b9:	48 89 85 a8 fe ff ff 	mov    %rax,-0x158(%rbp)
    78c0:	66 c7 85 f8 fe ff ff 	movw   $0xffff,-0x108(%rbp)
    78c7:	ff ff 
    78c9:	66 c7 85 fa fe ff ff 	movw   $0xffff,-0x106(%rbp)
    78d0:	ff ff 
    78d2:	66 c7 85 fc fe ff ff 	movw   $0xffff,-0x104(%rbp)
    78d9:	ff ff 
    78db:	66 c7 85 fe fe ff ff 	movw   $0xffff,-0x102(%rbp)
    78e2:	ff ff 
    78e4:	48 8d 05 bd 6a 01 00 	lea    0x16abd(%rip),%rax        # 1e3a8 <g_290>
    78eb:	48 89 85 d0 fe ff ff 	mov    %rax,-0x130(%rbp)
    78f2:	48 8b 85 b0 fe ff ff 	mov    -0x150(%rbp),%rax
    78f9:	8b 00                	mov    (%rax),%eax
    78fb:	83 e0 01             	and    $0x1,%eax
    78fe:	89 c2                	mov    %eax,%edx
    7900:	48 8b 85 b0 fe ff ff 	mov    -0x150(%rbp),%rax
    7907:	89 10                	mov    %edx,(%rax)
    7909:	0f b6 05 41 79 01 00 	movzbl 0x17941(%rip),%eax        # 1f251 <g_1303+0x11>
    7910:	d0 e8                	shr    %al
    7912:	0f b6 c0             	movzbl %al,%eax
    7915:	89 85 6c fe ff ff    	mov    %eax,-0x194(%rbp)
    791b:	48 8b 85 b0 fe ff ff 	mov    -0x150(%rbp),%rax
    7922:	8b 00                	mov    (%rax),%eax
    7924:	0f bf d8             	movswl %ax,%ebx
    7927:	89 9d 68 fe ff ff    	mov    %ebx,-0x198(%rbp)
    792d:	48 8b 85 b0 fe ff ff 	mov    -0x150(%rbp),%rax
    7934:	8b 00                	mov    (%rax),%eax
    7936:	4c 63 e0             	movslq %eax,%r12
    7939:	8b 85 a4 fe ff ff    	mov    -0x15c(%rbp),%eax
    793f:	0f b7 d8             	movzwl %ax,%ebx
    7942:	be 05 00 00 00       	mov    $0x5,%esi
    7947:	bf 36 3f 00 00       	mov    $0x3f36,%edi
    794c:	e8 41 eb ff ff       	callq  6492 <safe_lshift_func_int16_t_s_s>
    7951:	44 0f bf e8          	movswl %ax,%r13d
    7955:	48 8b 85 b8 fe ff ff 	mov    -0x148(%rbp),%rax
    795c:	c6 00 62             	movb   $0x62,(%rax)
    795f:	be 03 00 00 00       	mov    $0x3,%esi
    7964:	bf 62 00 00 00       	mov    $0x62,%edi
    7969:	e8 97 f2 ff ff       	callq  6c05 <safe_lshift_func_uint8_t_u_s>
    796e:	0f b6 d0             	movzbl %al,%edx
    7971:	8b 05 21 67 01 00    	mov    0x16721(%rip),%eax        # 1e098 <g_4+0x8>
    7977:	39 c2                	cmp    %eax,%edx
    7979:	0f 95 c0             	setne  %al
    797c:	0f b6 c0             	movzbl %al,%eax
    797f:	41 31 c5             	xor    %eax,%r13d
    7982:	44 89 ad 64 fe ff ff 	mov    %r13d,-0x19c(%rbp)
    7989:	48 8b 85 b0 fe ff ff 	mov    -0x150(%rbp),%rax
    7990:	8b 00                	mov    (%rax),%eax
    7992:	44 0f be e8          	movsbl %al,%r13d
    7996:	48 8b 85 b0 fe ff ff 	mov    -0x150(%rbp),%rax
    799d:	8b 00                	mov    (%rax),%eax
    799f:	4c 63 f8             	movslq %eax,%r15
    79a2:	48 8b 85 b0 fe ff ff 	mov    -0x150(%rbp),%rax
    79a9:	8b 00                	mov    (%rax),%eax
    79ab:	44 0f be f0          	movsbl %al,%r14d
    79af:	48 8b 85 b0 fe ff ff 	mov    -0x150(%rbp),%rax
    79b6:	8b 00                	mov    (%rax),%eax
    79b8:	48 98                	cltq   
    79ba:	48 89 c6             	mov    %rax,%rsi
    79bd:	48 c7 c7 fc ff ff ff 	mov    $0xfffffffffffffffc,%rdi
    79c4:	e8 b7 f6 ff ff       	callq  7080 <safe_mod_func_uint64_t_u_u>
    79c9:	0f be f0             	movsbl %al,%esi
    79cc:	48 8b 85 b0 fe ff ff 	mov    -0x150(%rbp),%rax
    79d3:	8b 00                	mov    (%rax),%eax
    79d5:	89 c2                	mov    %eax,%edx
    79d7:	48 8b 85 c8 fe ff ff 	mov    -0x138(%rbp),%rax
    79de:	66 89 10             	mov    %dx,(%rax)
    79e1:	48 8b 05 80 66 01 00 	mov    0x16680(%rip),%rax        # 1e068 <g_2+0x28>
    79e8:	66 25 0c 1a          	and    $0x1a0c,%ax
    79ec:	f7 d0                	not    %eax
    79ee:	0f b7 c0             	movzwl %ax,%eax
    79f1:	4c 89 f9             	mov    %r15,%rcx
    79f4:	44 89 f2             	mov    %r14d,%edx
    79f7:	89 c7                	mov    %eax,%edi
    79f9:	e8 1f 75 00 00       	callq  ef1d <func_42>
    79fe:	48 8b 05 c3 a4 01 00 	mov    0x1a4c3(%rip),%rax        # 21ec8 <g_289>
    7a05:	48 8b 30             	mov    (%rax),%rsi
    7a08:	8b 05 96 66 01 00    	mov    0x16696(%rip),%eax        # 1e0a4 <g_4+0x14>
    7a0e:	48 98                	cltq   
    7a10:	48 8b 95 b8 fe ff ff 	mov    -0x148(%rbp),%rdx
    7a17:	44 89 e9             	mov    %r13d,%ecx
    7a1a:	48 89 c7             	mov    %rax,%rdi
    7a1d:	e8 3a 65 00 00       	callq  df5c <func_37>
    7a22:	48 89 c1             	mov    %rax,%rcx
    7a25:	48 8b 85 c0 fe ff ff 	mov    -0x140(%rbp),%rax
    7a2c:	0f b7 00             	movzwl (%rax),%eax
    7a2f:	8d 50 ff             	lea    -0x1(%rax),%edx
    7a32:	48 8b 85 c0 fe ff ff 	mov    -0x140(%rbp),%rax
    7a39:	66 89 10             	mov    %dx,(%rax)
    7a3c:	48 8b 85 c0 fe ff ff 	mov    -0x140(%rbp),%rax
    7a43:	0f b7 00             	movzwl (%rax),%eax
    7a46:	0f b7 c0             	movzwl %ax,%eax
    7a49:	48 8b 95 b0 fe ff ff 	mov    -0x150(%rbp),%rdx
    7a50:	48 89 ce             	mov    %rcx,%rsi
    7a53:	89 c7                	mov    %eax,%edi
    7a55:	e8 66 60 00 00       	callq  dac0 <func_29>
    7a5a:	48 8b 95 b0 fe ff ff 	mov    -0x150(%rbp),%rdx
    7a61:	8b 12                	mov    (%rdx),%edx
    7a63:	48 63 d2             	movslq %edx,%rdx
    7a66:	48 39 d0             	cmp    %rdx,%rax
    7a69:	0f 95 c0             	setne  %al
    7a6c:	0f b6 c0             	movzbl %al,%eax
    7a6f:	39 85 64 fe ff ff    	cmp    %eax,-0x19c(%rbp)
    7a75:	0f 9e c0             	setle  %al
    7a78:	0f b6 f0             	movzbl %al,%esi
    7a7b:	48 8d 85 70 fe ff ff 	lea    -0x190(%rbp),%rax
    7a82:	44 8b 85 68 fe ff ff 	mov    -0x198(%rbp),%r8d
    7a89:	4c 89 e1             	mov    %r12,%rcx
    7a8c:	89 da                	mov    %ebx,%edx
    7a8e:	48 89 c7             	mov    %rax,%rdi
    7a91:	e8 3d 5f 00 00       	callq  d9d3 <func_18>
    7a96:	be 02 00 00 00       	mov    $0x2,%esi
    7a9b:	bf 00 00 00 00       	mov    $0x0,%edi
    7aa0:	e8 85 ea ff ff       	callq  652a <safe_rshift_func_int16_t_s_s>
    7aa5:	98                   	cwtl   
    7aa6:	89 c7                	mov    %eax,%edi
    7aa8:	e8 67 03 00 00       	callq  7e14 <func_14>
    7aad:	48 8b 95 b0 fe ff ff 	mov    -0x150(%rbp),%rdx
    7ab4:	48 8b 85 b0 fe ff ff 	mov    -0x150(%rbp),%rax
    7abb:	44 8b 85 6c fe ff ff 	mov    -0x194(%rbp),%r8d
    7ac2:	48 8d 0d 17 69 01 00 	lea    0x16917(%rip),%rcx        # 1e3e0 <g_701>
    7ac9:	be 00 00 00 00       	mov    $0x0,%esi
    7ace:	48 89 c7             	mov    %rax,%rdi
    7ad1:	e8 b1 02 00 00       	callq  7d87 <func_8>
    7ad6:	89 c2                	mov    %eax,%edx
    7ad8:	48 8b 85 a8 fe ff ff 	mov    -0x158(%rbp),%rax
    7adf:	8b 08                	mov    (%rax),%ecx
    7ae1:	48 8b 85 a8 fe ff ff 	mov    -0x158(%rbp),%rax
    7ae8:	31 ca                	xor    %ecx,%edx
    7aea:	89 10                	mov    %edx,(%rax)
    7aec:	66 c7 85 00 ff ff ff 	movw   $0x9,-0x100(%rbp)
    7af3:	09 00 
    7af5:	66 c7 85 02 ff ff ff 	movw   $0x8794,-0xfe(%rbp)
    7afc:	94 87 
    7afe:	66 c7 85 04 ff ff ff 	movw   $0x8794,-0xfc(%rbp)
    7b05:	94 87 
    7b07:	66 c7 85 06 ff ff ff 	movw   $0xffff,-0xfa(%rbp)
    7b0e:	ff ff 
    7b10:	66 c7 85 08 ff ff ff 	movw   $0x8794,-0xf8(%rbp)
    7b17:	94 87 
    7b19:	66 c7 85 0a ff ff ff 	movw   $0x0,-0xf6(%rbp)
    7b20:	00 00 
    7b22:	66 c7 85 0c ff ff ff 	movw   $0x1e3c,-0xf4(%rbp)
    7b29:	3c 1e 
    7b2b:	66 c7 85 0e ff ff ff 	movw   $0x9,-0xf2(%rbp)
    7b32:	09 00 
    7b34:	66 c7 85 10 ff ff ff 	movw   $0x1083,-0xf0(%rbp)
    7b3b:	83 10 
    7b3d:	66 c7 85 12 ff ff ff 	movw   $0xffff,-0xee(%rbp)
    7b44:	ff ff 
    7b46:	66 c7 85 14 ff ff ff 	movw   $0xffff,-0xec(%rbp)
    7b4d:	ff ff 
    7b4f:	66 c7 85 16 ff ff ff 	movw   $0x1083,-0xea(%rbp)
    7b56:	83 10 
    7b58:	66 c7 85 18 ff ff ff 	movw   $0x9,-0xe8(%rbp)
    7b5f:	09 00 
    7b61:	66 c7 85 1a ff ff ff 	movw   $0x1e3c,-0xe6(%rbp)
    7b68:	3c 1e 
    7b6a:	66 c7 85 1c ff ff ff 	movw   $0x0,-0xe4(%rbp)
    7b71:	00 00 
    7b73:	48 c7 85 20 ff ff ff 	movq   $0x0,-0xe0(%rbp)
    7b7a:	00 00 00 00 
    7b7e:	48 c7 85 28 ff ff ff 	movq   $0x0,-0xd8(%rbp)
    7b85:	00 00 00 00 
    7b89:	48 c7 85 30 ff ff ff 	movq   $0x0,-0xd0(%rbp)
    7b90:	00 00 00 00 
    7b94:	48 c7 85 38 ff ff ff 	movq   $0x0,-0xc8(%rbp)
    7b9b:	00 00 00 00 
    7b9f:	48 c7 85 40 ff ff ff 	movq   $0x0,-0xc0(%rbp)
    7ba6:	00 00 00 00 
    7baa:	48 c7 85 48 ff ff ff 	movq   $0x0,-0xb8(%rbp)
    7bb1:	00 00 00 00 
    7bb5:	48 c7 85 50 ff ff ff 	movq   $0x0,-0xb0(%rbp)
    7bbc:	00 00 00 00 
    7bc0:	48 8d 85 20 ff ff ff 	lea    -0xe0(%rbp),%rax
    7bc7:	48 83 c0 20          	add    $0x20,%rax
    7bcb:	48 89 85 d8 fe ff ff 	mov    %rax,-0x128(%rbp)
    7bd2:	48 8d 85 a8 fe ff ff 	lea    -0x158(%rbp),%rax
    7bd9:	48 89 85 e0 fe ff ff 	mov    %rax,-0x120(%rbp)
    7be0:	48 8d 05 41 a3 01 00 	lea    0x1a341(%rip),%rax        # 21f28 <g_361>
    7be7:	48 89 85 e8 fe ff ff 	mov    %rax,-0x118(%rbp)
    7bee:	48 8d 05 1b a4 01 00 	lea    0x1a41b(%rip),%rax        # 22010 <g_1802>
    7bf5:	48 89 85 f0 fe ff ff 	mov    %rax,-0x110(%rbp)
    7bfc:	48 8d 05 9d aa 01 00 	lea    0x1aa9d(%rip),%rax        # 226a0 <g_900>
    7c03:	48 89 85 60 ff ff ff 	mov    %rax,-0xa0(%rbp)
    7c0a:	48 8d 05 a7 7f 01 00 	lea    0x17fa7(%rip),%rax        # 1fbb8 <g_1986>
    7c11:	48 89 85 68 ff ff ff 	mov    %rax,-0x98(%rbp)
    7c18:	48 8d 05 81 aa 01 00 	lea    0x1aa81(%rip),%rax        # 226a0 <g_900>
    7c1f:	48 89 85 70 ff ff ff 	mov    %rax,-0x90(%rbp)
    7c26:	48 8d 05 8b 7f 01 00 	lea    0x17f8b(%rip),%rax        # 1fbb8 <g_1986>
    7c2d:	48 89 85 78 ff ff ff 	mov    %rax,-0x88(%rbp)
    7c34:	48 8d 05 65 aa 01 00 	lea    0x1aa65(%rip),%rax        # 226a0 <g_900>
    7c3b:	48 89 45 80          	mov    %rax,-0x80(%rbp)
    7c3f:	48 8d 05 72 7f 01 00 	lea    0x17f72(%rip),%rax        # 1fbb8 <g_1986>
    7c46:	48 89 45 88          	mov    %rax,-0x78(%rbp)
    7c4a:	48 8d 05 4f aa 01 00 	lea    0x1aa4f(%rip),%rax        # 226a0 <g_900>
    7c51:	48 89 45 90          	mov    %rax,-0x70(%rbp)
    7c55:	48 8d 05 5c 7f 01 00 	lea    0x17f5c(%rip),%rax        # 1fbb8 <g_1986>
    7c5c:	48 89 45 98          	mov    %rax,-0x68(%rbp)
    7c60:	48 8d 05 39 aa 01 00 	lea    0x1aa39(%rip),%rax        # 226a0 <g_900>
    7c67:	48 89 45 a0          	mov    %rax,-0x60(%rbp)
    7c6b:	48 8d 05 46 7f 01 00 	lea    0x17f46(%rip),%rax        # 1fbb8 <g_1986>
    7c72:	48 89 45 a8          	mov    %rax,-0x58(%rbp)
    7c76:	0f b7 85 08 ff ff ff 	movzwl -0xf8(%rbp),%eax
    7c7d:	66 85 c0             	test   %ax,%ax
    7c80:	0f 84 c6 00 00 00    	je     7d4c <func_5+0x50a>
    7c86:	48 8b 95 40 ff ff ff 	mov    -0xc0(%rbp),%rdx
    7c8d:	48 8b 85 d8 fe ff ff 	mov    -0x128(%rbp),%rax
    7c94:	48 89 10             	mov    %rdx,(%rax)
    7c97:	48 8b 85 d8 fe ff ff 	mov    -0x128(%rbp),%rax
    7c9e:	48 8b 10             	mov    (%rax),%rdx
    7ca1:	48 8b 05 78 a5 01 00 	mov    0x1a578(%rip),%rax        # 22220 <g_3021>
    7ca8:	48 39 c2             	cmp    %rax,%rdx
    7cab:	0f 95 c0             	setne  %al
    7cae:	44 0f b6 e0          	movzbl %al,%r12d
    7cb2:	48 8b 85 a8 fe ff ff 	mov    -0x158(%rbp),%rax
    7cb9:	8b 00                	mov    (%rax),%eax
    7cbb:	48 63 d8             	movslq %eax,%rbx
    7cbe:	48 8b 85 b0 fe ff ff 	mov    -0x150(%rbp),%rax
    7cc5:	8b 00                	mov    (%rax),%eax
    7cc7:	0f b7 c0             	movzwl %ax,%eax
    7cca:	be 00 00 00 00       	mov    $0x0,%esi
    7ccf:	89 c7                	mov    %eax,%edi
    7cd1:	e8 67 f0 ff ff       	callq  6d3d <safe_mul_func_uint16_t_u_u>
    7cd6:	0f bf d0             	movswl %ax,%edx
    7cd9:	48 8b 05 28 a5 01 00 	mov    0x1a528(%rip),%rax        # 22208 <g_2684>
    7ce0:	48 8b 00             	mov    (%rax),%rax
    7ce3:	0f b7 00             	movzwl (%rax),%eax
    7ce6:	98                   	cwtl   
    7ce7:	89 d6                	mov    %edx,%esi
    7ce9:	89 c7                	mov    %eax,%edi
    7ceb:	e8 05 e7 ff ff       	callq  63f5 <safe_mul_func_int16_t_s_s>
    7cf0:	98                   	cwtl   
    7cf1:	be 05 00 00 00       	mov    $0x5,%esi
    7cf6:	89 c7                	mov    %eax,%edi
    7cf8:	e8 f8 e6 ff ff       	callq  63f5 <safe_mul_func_int16_t_s_s>
    7cfd:	48 0f bf c0          	movswq %ax,%rax
    7d01:	48 89 de             	mov    %rbx,%rsi
    7d04:	48 89 c7             	mov    %rax,%rdi
    7d07:	e8 a3 f3 ff ff       	callq  70af <safe_div_func_uint64_t_u_u>
    7d0c:	89 05 56 80 01 00    	mov    %eax,0x18056(%rip)        # 1fd68 <g_3038+0xe8>
    7d12:	8b 05 50 80 01 00    	mov    0x18050(%rip),%eax        # 1fd68 <g_3038+0xe8>
    7d18:	41 39 c4             	cmp    %eax,%r12d
    7d1b:	0f 96 c0             	setbe  %al
    7d1e:	0f b6 c0             	movzbl %al,%eax
    7d21:	be 00 00 00 00       	mov    $0x0,%esi
    7d26:	89 c7                	mov    %eax,%edi
    7d28:	e8 36 e8 ff ff       	callq  6563 <safe_rshift_func_int16_t_s_u>
    7d2d:	48 8d 05 6c a9 01 00 	lea    0x1a96c(%rip),%rax        # 226a0 <g_900>
    7d34:	48 89 45 80          	mov    %rax,-0x80(%rbp)
    7d38:	48 8b 45 80          	mov    -0x80(%rbp),%rax
    7d3c:	48 39 85 d0 fe ff ff 	cmp    %rax,-0x130(%rbp)
    7d43:	74 07                	je     7d4c <func_5+0x50a>
    7d45:	ba 01 00 00 00       	mov    $0x1,%edx
    7d4a:	eb 05                	jmp    7d51 <func_5+0x50f>
    7d4c:	ba 00 00 00 00       	mov    $0x0,%edx
    7d51:	48 8b 85 b0 fe ff ff 	mov    -0x150(%rbp),%rax
    7d58:	89 10                	mov    %edx,(%rax)
    7d5a:	48 8b 85 a8 fe ff ff 	mov    -0x158(%rbp),%rax
    7d61:	48 8b 5d c8          	mov    -0x38(%rbp),%rbx
    7d65:	64 48 33 1c 25 28 00 	xor    %fs:0x28,%rbx
    7d6c:	00 00 
    7d6e:	74 05                	je     7d75 <func_5+0x533>
    7d70:	e8 fb e2 ff ff       	callq  6070 <__stack_chk_fail@plt>
    7d75:	48 81 c4 78 01 00 00 	add    $0x178,%rsp
    7d7c:	5b                   	pop    %rbx
    7d7d:	41 5c                	pop    %r12
    7d7f:	41 5d                	pop    %r13
    7d81:	41 5e                	pop    %r14
    7d83:	41 5f                	pop    %r15
    7d85:	5d                   	pop    %rbp
    7d86:	c3                   	retq   

0000000000007d87 <func_8>:
    7d87:	f3 0f 1e fa          	endbr64 
    7d8b:	55                   	push   %rbp
    7d8c:	48 89 e5             	mov    %rsp,%rbp
    7d8f:	48 83 ec 50          	sub    $0x50,%rsp
    7d93:	48 89 7d d8          	mov    %rdi,-0x28(%rbp)
    7d97:	48 89 75 d0          	mov    %rsi,-0x30(%rbp)
    7d9b:	48 89 55 c8          	mov    %rdx,-0x38(%rbp)
    7d9f:	48 89 4d c0          	mov    %rcx,-0x40(%rbp)
    7da3:	44 89 c0             	mov    %r8d,%eax
    7da6:	88 45 bc             	mov    %al,-0x44(%rbp)
    7da9:	64 48 8b 04 25 28 00 	mov    %fs:0x28,%rax
    7db0:	00 00 
    7db2:	48 89 45 f8          	mov    %rax,-0x8(%rbp)
    7db6:	31 c0                	xor    %eax,%eax
    7db8:	c7 45 ec 00 00 00 00 	movl   $0x0,-0x14(%rbp)
    7dbf:	eb 12                	jmp    7dd3 <func_8+0x4c>
    7dc1:	8b 45 ec             	mov    -0x14(%rbp),%eax
    7dc4:	48 98                	cltq   
    7dc6:	48 c7 44 c5 f0 ff ff 	movq   $0xffffffffffffffff,-0x10(%rbp,%rax,8)
    7dcd:	ff ff 
    7dcf:	83 45 ec 01          	addl   $0x1,-0x14(%rbp)
    7dd3:	83 7d ec 00          	cmpl   $0x0,-0x14(%rbp)
    7dd7:	7e e8                	jle    7dc1 <func_8+0x3a>
    7dd9:	c6 05 e2 7d 01 00 00 	movb   $0x0,0x17de2(%rip)        # 1fbc2 <g_2248>
    7de0:	90                   	nop
    7de1:	0f b6 05 da 7d 01 00 	movzbl 0x17dda(%rip),%eax        # 1fbc2 <g_2248>
    7de8:	3c fa                	cmp    $0xfa,%al
    7dea:	7c 06                	jl     7df2 <func_8+0x6b>
    7dec:	48 8b 45 f0          	mov    -0x10(%rbp),%rax
    7df0:	eb 0c                	jmp    7dfe <func_8+0x77>
    7df2:	48 8b 05 b7 a3 01 00 	mov    0x1a3b7(%rip),%rax        # 221b0 <g_1856>
    7df9:	48 8b 00             	mov    (%rax),%rax
    7dfc:	8b 00                	mov    (%rax),%eax
    7dfe:	48 8b 55 f8          	mov    -0x8(%rbp),%rdx
    7e02:	64 48 33 14 25 28 00 	xor    %fs:0x28,%rdx
    7e09:	00 00 
    7e0b:	74 05                	je     7e12 <func_8+0x8b>
    7e0d:	e8 5e e2 ff ff       	callq  6070 <__stack_chk_fail@plt>
    7e12:	c9                   	leaveq 
    7e13:	c3                   	retq   

0000000000007e14 <func_14>:
    7e14:	f3 0f 1e fa          	endbr64 
    7e18:	55                   	push   %rbp
    7e19:	48 89 e5             	mov    %rsp,%rbp
    7e1c:	41 57                	push   %r15
    7e1e:	41 56                	push   %r14
    7e20:	41 55                	push   %r13
    7e22:	41 54                	push   %r12
    7e24:	53                   	push   %rbx
    7e25:	48 81 ec 00 10 00 00 	sub    $0x1000,%rsp
    7e2c:	48 83 0c 24 00       	orq    $0x0,(%rsp)
    7e31:	48 81 ec 00 10 00 00 	sub    $0x1000,%rsp
    7e38:	48 83 0c 24 00       	orq    $0x0,(%rsp)
    7e3d:	48 81 ec 88 00 00 00 	sub    $0x88,%rsp
    7e44:	89 bd 5c df ff ff    	mov    %edi,-0x20a4(%rbp)
    7e4a:	64 48 8b 04 25 28 00 	mov    %fs:0x28,%rax
    7e51:	00 00 
    7e53:	48 89 45 c8          	mov    %rax,-0x38(%rbp)
    7e57:	31 c0                	xor    %eax,%eax
    7e59:	66 c7 85 74 df ff ff 	movw   $0x770,-0x208c(%rbp)
    7e60:	70 07 
    7e62:	c7 85 84 df ff ff 6c 	movl   $0xabac436c,-0x207c(%rbp)
    7e69:	43 ac ab 
    7e6c:	48 8d 05 08 a8 01 00 	lea    0x1a808(%rip),%rax        # 2267b <g_293+0x3>
    7e73:	48 89 85 60 e1 ff ff 	mov    %rax,-0x1ea0(%rbp)
    7e7a:	48 c7 85 40 e4 ff ff 	movq   $0x0,-0x1bc0(%rbp)
    7e81:	00 00 00 00 
    7e85:	48 c7 85 48 e4 ff ff 	movq   $0x0,-0x1bb8(%rbp)
    7e8c:	00 00 00 00 
    7e90:	48 c7 85 50 e4 ff ff 	movq   $0x0,-0x1bb0(%rbp)
    7e97:	00 00 00 00 
    7e9b:	48 c7 85 58 e4 ff ff 	movq   $0x0,-0x1ba8(%rbp)
    7ea2:	00 00 00 00 
    7ea6:	48 c7 85 e0 e0 ff ff 	movq   $0xffffffffffffffff,-0x1f20(%rbp)
    7ead:	ff ff ff ff 
    7eb1:	66 c7 85 76 df ff ff 	movw   $0xd1ae,-0x208a(%rbp)
    7eb8:	ae d1 
    7eba:	48 8d 05 f3 61 01 00 	lea    0x161f3(%rip),%rax        # 1e0b4 <g_65>
    7ec1:	48 89 85 68 e1 ff ff 	mov    %rax,-0x1e98(%rbp)
    7ec8:	c7 85 88 df ff ff d4 	movl   $0x153634d4,-0x2078(%rbp)
    7ecf:	34 36 15 
    7ed2:	48 8d 05 d7 a0 01 00 	lea    0x1a0d7(%rip),%rax        # 21fb0 <g_1555>
    7ed9:	48 89 85 70 e1 ff ff 	mov    %rax,-0x1e90(%rbp)
    7ee0:	c7 85 8c df ff ff 8c 	movl   $0xd956c08c,-0x2074(%rbp)
    7ee7:	c0 56 d9 
    7eea:	c7 85 20 e0 ff ff 04 	movl   $0x4,-0x1fe0(%rbp)
    7ef1:	00 00 00 
    7ef4:	c7 85 a4 df ff ff 91 	movl   $0xa017ee91,-0x205c(%rbp)
    7efb:	ee 17 a0 
    7efe:	c7 85 a8 df ff ff 57 	movl   $0x46751e57,-0x2058(%rbp)
    7f05:	1e 75 46 
    7f08:	c7 85 ac df ff ff 3b 	movl   $0xcaae63b,-0x2054(%rbp)
    7f0f:	e6 aa 0c 
    7f12:	48 8d 85 20 ea ff ff 	lea    -0x15e0(%rbp),%rax
    7f19:	48 8d 15 e0 80 01 00 	lea    0x180e0(%rip),%rdx        # 20000 <g_3041+0x30>
    7f20:	b9 2a 00 00 00       	mov    $0x2a,%ecx
    7f25:	48 89 c7             	mov    %rax,%rdi
    7f28:	48 89 d6             	mov    %rdx,%rsi
    7f2b:	f3 48 a5             	rep movsq %ds:(%rsi),%es:(%rdi)
    7f2e:	48 c7 85 58 e1 ff ff 	movq   $0x1,-0x1ea8(%rbp)
    7f35:	01 00 00 00 
    7f39:	48 8d 05 e8 9f 01 00 	lea    0x19fe8(%rip),%rax        # 21f28 <g_361>
    7f40:	48 89 85 e8 e0 ff ff 	mov    %rax,-0x1f18(%rbp)
    7f47:	48 8d 85 e8 e0 ff ff 	lea    -0x1f18(%rbp),%rax
    7f4e:	48 89 85 20 f0 ff ff 	mov    %rax,-0xfe0(%rbp)
    7f55:	48 8d 85 e8 e0 ff ff 	lea    -0x1f18(%rbp),%rax
    7f5c:	48 89 85 28 f0 ff ff 	mov    %rax,-0xfd8(%rbp)
    7f63:	48 c7 85 30 f0 ff ff 	movq   $0x0,-0xfd0(%rbp)
    7f6a:	00 00 00 00 
    7f6e:	48 c7 85 38 f0 ff ff 	movq   $0x0,-0xfc8(%rbp)
    7f75:	00 00 00 00 
    7f79:	48 c7 85 40 f0 ff ff 	movq   $0x0,-0xfc0(%rbp)
    7f80:	00 00 00 00 
    7f84:	48 8d 85 e8 e0 ff ff 	lea    -0x1f18(%rbp),%rax
    7f8b:	48 89 85 48 f0 ff ff 	mov    %rax,-0xfb8(%rbp)
    7f92:	48 8d 85 e8 e0 ff ff 	lea    -0x1f18(%rbp),%rax
    7f99:	48 89 85 50 f0 ff ff 	mov    %rax,-0xfb0(%rbp)
    7fa0:	48 8d 85 e8 e0 ff ff 	lea    -0x1f18(%rbp),%rax
    7fa7:	48 89 85 58 f0 ff ff 	mov    %rax,-0xfa8(%rbp)
    7fae:	48 c7 85 60 f0 ff ff 	movq   $0x0,-0xfa0(%rbp)
    7fb5:	00 00 00 00 
    7fb9:	48 c7 85 68 f0 ff ff 	movq   $0x0,-0xf98(%rbp)
    7fc0:	00 00 00 00 
    7fc4:	48 8d 85 e8 e0 ff ff 	lea    -0x1f18(%rbp),%rax
    7fcb:	48 89 85 70 f0 ff ff 	mov    %rax,-0xf90(%rbp)
    7fd2:	48 c7 85 78 f0 ff ff 	movq   $0x0,-0xf88(%rbp)
    7fd9:	00 00 00 00 
    7fdd:	48 8d 85 e8 e0 ff ff 	lea    -0x1f18(%rbp),%rax
    7fe4:	48 89 85 80 f0 ff ff 	mov    %rax,-0xf80(%rbp)
    7feb:	48 c7 85 88 f0 ff ff 	movq   $0x0,-0xf78(%rbp)
    7ff2:	00 00 00 00 
    7ff6:	48 8d 85 e8 e0 ff ff 	lea    -0x1f18(%rbp),%rax
    7ffd:	48 89 85 90 f0 ff ff 	mov    %rax,-0xf70(%rbp)
    8004:	48 8d 85 e8 e0 ff ff 	lea    -0x1f18(%rbp),%rax
    800b:	48 89 85 98 f0 ff ff 	mov    %rax,-0xf68(%rbp)
    8012:	48 8d 85 e8 e0 ff ff 	lea    -0x1f18(%rbp),%rax
    8019:	48 89 85 a0 f0 ff ff 	mov    %rax,-0xf60(%rbp)
    8020:	48 8d 85 e8 e0 ff ff 	lea    -0x1f18(%rbp),%rax
    8027:	48 89 85 a8 f0 ff ff 	mov    %rax,-0xf58(%rbp)
    802e:	48 c7 85 b0 f0 ff ff 	movq   $0x0,-0xf50(%rbp)
    8035:	00 00 00 00 
    8039:	48 c7 85 b8 f0 ff ff 	movq   $0x0,-0xf48(%rbp)
    8040:	00 00 00 00 
    8044:	48 c7 85 c0 f0 ff ff 	movq   $0x0,-0xf40(%rbp)
    804b:	00 00 00 00 
    804f:	48 8d 85 e8 e0 ff ff 	lea    -0x1f18(%rbp),%rax
    8056:	48 89 85 c8 f0 ff ff 	mov    %rax,-0xf38(%rbp)
    805d:	48 8d 85 e8 e0 ff ff 	lea    -0x1f18(%rbp),%rax
    8064:	48 89 85 d0 f0 ff ff 	mov    %rax,-0xf30(%rbp)
    806b:	48 c7 85 d8 f0 ff ff 	movq   $0x0,-0xf28(%rbp)
    8072:	00 00 00 00 
    8076:	48 8d 85 e8 e0 ff ff 	lea    -0x1f18(%rbp),%rax
    807d:	48 89 85 e0 f0 ff ff 	mov    %rax,-0xf20(%rbp)
    8084:	48 8d 85 e8 e0 ff ff 	lea    -0x1f18(%rbp),%rax
    808b:	48 89 85 e8 f0 ff ff 	mov    %rax,-0xf18(%rbp)
    8092:	48 8d 85 e8 e0 ff ff 	lea    -0x1f18(%rbp),%rax
    8099:	48 89 85 f0 f0 ff ff 	mov    %rax,-0xf10(%rbp)
    80a0:	48 c7 85 f8 f0 ff ff 	movq   $0x0,-0xf08(%rbp)
    80a7:	00 00 00 00 
    80ab:	48 c7 85 00 f1 ff ff 	movq   $0x0,-0xf00(%rbp)
    80b2:	00 00 00 00 
    80b6:	48 8d 85 e8 e0 ff ff 	lea    -0x1f18(%rbp),%rax
    80bd:	48 89 85 08 f1 ff ff 	mov    %rax,-0xef8(%rbp)
    80c4:	48 8d 85 e8 e0 ff ff 	lea    -0x1f18(%rbp),%rax
    80cb:	48 89 85 10 f1 ff ff 	mov    %rax,-0xef0(%rbp)
    80d2:	48 8d 85 e8 e0 ff ff 	lea    -0x1f18(%rbp),%rax
    80d9:	48 89 85 18 f1 ff ff 	mov    %rax,-0xee8(%rbp)
    80e0:	48 8d 85 e8 e0 ff ff 	lea    -0x1f18(%rbp),%rax
    80e7:	48 89 85 20 f1 ff ff 	mov    %rax,-0xee0(%rbp)
    80ee:	48 c7 85 28 f1 ff ff 	movq   $0x0,-0xed8(%rbp)
    80f5:	00 00 00 00 
    80f9:	48 c7 85 30 f1 ff ff 	movq   $0x0,-0xed0(%rbp)
    8100:	00 00 00 00 
    8104:	48 8d 85 e8 e0 ff ff 	lea    -0x1f18(%rbp),%rax
    810b:	48 89 85 38 f1 ff ff 	mov    %rax,-0xec8(%rbp)
    8112:	48 8d 85 e8 e0 ff ff 	lea    -0x1f18(%rbp),%rax
    8119:	48 89 85 40 f1 ff ff 	mov    %rax,-0xec0(%rbp)
    8120:	48 8d 85 e8 e0 ff ff 	lea    -0x1f18(%rbp),%rax
    8127:	48 89 85 48 f1 ff ff 	mov    %rax,-0xeb8(%rbp)
    812e:	48 c7 85 50 f1 ff ff 	movq   $0x0,-0xeb0(%rbp)
    8135:	00 00 00 00 
    8139:	48 c7 85 58 f1 ff ff 	movq   $0x0,-0xea8(%rbp)
    8140:	00 00 00 00 
    8144:	48 c7 85 60 f1 ff ff 	movq   $0x0,-0xea0(%rbp)
    814b:	00 00 00 00 
    814f:	48 c7 85 68 f1 ff ff 	movq   $0x0,-0xe98(%rbp)
    8156:	00 00 00 00 
    815a:	48 8d 85 e8 e0 ff ff 	lea    -0x1f18(%rbp),%rax
    8161:	48 89 85 70 f1 ff ff 	mov    %rax,-0xe90(%rbp)
    8168:	48 8d 85 e8 e0 ff ff 	lea    -0x1f18(%rbp),%rax
    816f:	48 89 85 78 f1 ff ff 	mov    %rax,-0xe88(%rbp)
    8176:	48 8d 85 e8 e0 ff ff 	lea    -0x1f18(%rbp),%rax
    817d:	48 89 85 80 f1 ff ff 	mov    %rax,-0xe80(%rbp)
    8184:	48 8d 85 e8 e0 ff ff 	lea    -0x1f18(%rbp),%rax
    818b:	48 89 85 88 f1 ff ff 	mov    %rax,-0xe78(%rbp)
    8192:	48 8d 85 e8 e0 ff ff 	lea    -0x1f18(%rbp),%rax
    8199:	48 89 85 90 f1 ff ff 	mov    %rax,-0xe70(%rbp)
    81a0:	48 8d 85 e8 e0 ff ff 	lea    -0x1f18(%rbp),%rax
    81a7:	48 89 85 98 f1 ff ff 	mov    %rax,-0xe68(%rbp)
    81ae:	48 c7 85 a0 f1 ff ff 	movq   $0x0,-0xe60(%rbp)
    81b5:	00 00 00 00 
    81b9:	48 8d 85 e8 e0 ff ff 	lea    -0x1f18(%rbp),%rax
    81c0:	48 89 85 a8 f1 ff ff 	mov    %rax,-0xe58(%rbp)
    81c7:	48 8d 85 e8 e0 ff ff 	lea    -0x1f18(%rbp),%rax
    81ce:	48 89 85 b0 f1 ff ff 	mov    %rax,-0xe50(%rbp)
    81d5:	48 8d 85 e8 e0 ff ff 	lea    -0x1f18(%rbp),%rax
    81dc:	48 89 85 b8 f1 ff ff 	mov    %rax,-0xe48(%rbp)
    81e3:	48 8d 85 e8 e0 ff ff 	lea    -0x1f18(%rbp),%rax
    81ea:	48 89 85 c0 f1 ff ff 	mov    %rax,-0xe40(%rbp)
    81f1:	48 8d 85 e8 e0 ff ff 	lea    -0x1f18(%rbp),%rax
    81f8:	48 89 85 c8 f1 ff ff 	mov    %rax,-0xe38(%rbp)
    81ff:	48 c7 85 d0 f1 ff ff 	movq   $0x0,-0xe30(%rbp)
    8206:	00 00 00 00 
    820a:	48 8d 85 e8 e0 ff ff 	lea    -0x1f18(%rbp),%rax
    8211:	48 89 85 d8 f1 ff ff 	mov    %rax,-0xe28(%rbp)
    8218:	48 8d 85 e8 e0 ff ff 	lea    -0x1f18(%rbp),%rax
    821f:	48 89 85 e0 f1 ff ff 	mov    %rax,-0xe20(%rbp)
    8226:	48 8d 85 e8 e0 ff ff 	lea    -0x1f18(%rbp),%rax
    822d:	48 89 85 e8 f1 ff ff 	mov    %rax,-0xe18(%rbp)
    8234:	48 8d 85 e8 e0 ff ff 	lea    -0x1f18(%rbp),%rax
    823b:	48 89 85 f0 f1 ff ff 	mov    %rax,-0xe10(%rbp)
    8242:	48 8d 85 e8 e0 ff ff 	lea    -0x1f18(%rbp),%rax
    8249:	48 89 85 f8 f1 ff ff 	mov    %rax,-0xe08(%rbp)
    8250:	48 8d 85 e8 e0 ff ff 	lea    -0x1f18(%rbp),%rax
    8257:	48 89 85 00 f2 ff ff 	mov    %rax,-0xe00(%rbp)
    825e:	48 c7 85 08 f2 ff ff 	movq   $0x0,-0xdf8(%rbp)
    8265:	00 00 00 00 
    8269:	48 8d 85 e8 e0 ff ff 	lea    -0x1f18(%rbp),%rax
    8270:	48 89 85 10 f2 ff ff 	mov    %rax,-0xdf0(%rbp)
    8277:	48 c7 85 18 f2 ff ff 	movq   $0x0,-0xde8(%rbp)
    827e:	00 00 00 00 
    8282:	48 c7 85 20 f2 ff ff 	movq   $0x0,-0xde0(%rbp)
    8289:	00 00 00 00 
    828d:	48 8d 85 e8 e0 ff ff 	lea    -0x1f18(%rbp),%rax
    8294:	48 89 85 28 f2 ff ff 	mov    %rax,-0xdd8(%rbp)
    829b:	48 8d 85 e8 e0 ff ff 	lea    -0x1f18(%rbp),%rax
    82a2:	48 89 85 30 f2 ff ff 	mov    %rax,-0xdd0(%rbp)
    82a9:	48 c7 85 38 f2 ff ff 	movq   $0x0,-0xdc8(%rbp)
    82b0:	00 00 00 00 
    82b4:	48 8d 85 e8 e0 ff ff 	lea    -0x1f18(%rbp),%rax
    82bb:	48 89 85 40 f2 ff ff 	mov    %rax,-0xdc0(%rbp)
    82c2:	48 c7 85 48 f2 ff ff 	movq   $0x0,-0xdb8(%rbp)
    82c9:	00 00 00 00 
    82cd:	48 8d 85 e8 e0 ff ff 	lea    -0x1f18(%rbp),%rax
    82d4:	48 89 85 50 f2 ff ff 	mov    %rax,-0xdb0(%rbp)
    82db:	48 8d 85 e8 e0 ff ff 	lea    -0x1f18(%rbp),%rax
    82e2:	48 89 85 58 f2 ff ff 	mov    %rax,-0xda8(%rbp)
    82e9:	48 8d 85 e8 e0 ff ff 	lea    -0x1f18(%rbp),%rax
    82f0:	48 89 85 60 f2 ff ff 	mov    %rax,-0xda0(%rbp)
    82f7:	48 c7 85 68 f2 ff ff 	movq   $0x0,-0xd98(%rbp)
    82fe:	00 00 00 00 
    8302:	48 8d 85 e8 e0 ff ff 	lea    -0x1f18(%rbp),%rax
    8309:	48 89 85 70 f2 ff ff 	mov    %rax,-0xd90(%rbp)
    8310:	48 c7 85 78 f2 ff ff 	movq   $0x0,-0xd88(%rbp)
    8317:	00 00 00 00 
    831b:	48 8d 85 e8 e0 ff ff 	lea    -0x1f18(%rbp),%rax
    8322:	48 89 85 80 f2 ff ff 	mov    %rax,-0xd80(%rbp)
    8329:	48 8d 85 e8 e0 ff ff 	lea    -0x1f18(%rbp),%rax
    8330:	48 89 85 88 f2 ff ff 	mov    %rax,-0xd78(%rbp)
    8337:	48 8d 85 e8 e0 ff ff 	lea    -0x1f18(%rbp),%rax
    833e:	48 89 85 90 f2 ff ff 	mov    %rax,-0xd70(%rbp)
    8345:	48 c7 85 98 f2 ff ff 	movq   $0x0,-0xd68(%rbp)
    834c:	00 00 00 00 
    8350:	48 8d 85 e8 e0 ff ff 	lea    -0x1f18(%rbp),%rax
    8357:	48 89 85 a0 f2 ff ff 	mov    %rax,-0xd60(%rbp)
    835e:	48 8d 85 e8 e0 ff ff 	lea    -0x1f18(%rbp),%rax
    8365:	48 89 85 a8 f2 ff ff 	mov    %rax,-0xd58(%rbp)
    836c:	48 8d 85 e8 e0 ff ff 	lea    -0x1f18(%rbp),%rax
    8373:	48 89 85 b0 f2 ff ff 	mov    %rax,-0xd50(%rbp)
    837a:	48 8d 85 e8 e0 ff ff 	lea    -0x1f18(%rbp),%rax
    8381:	48 89 85 b8 f2 ff ff 	mov    %rax,-0xd48(%rbp)
    8388:	48 8d 85 e8 e0 ff ff 	lea    -0x1f18(%rbp),%rax
    838f:	48 89 85 c0 f2 ff ff 	mov    %rax,-0xd40(%rbp)
    8396:	48 8d 85 e8 e0 ff ff 	lea    -0x1f18(%rbp),%rax
    839d:	48 89 85 c8 f2 ff ff 	mov    %rax,-0xd38(%rbp)
    83a4:	48 8d 85 e8 e0 ff ff 	lea    -0x1f18(%rbp),%rax
    83ab:	48 89 85 d0 f2 ff ff 	mov    %rax,-0xd30(%rbp)
    83b2:	48 8d 85 e8 e0 ff ff 	lea    -0x1f18(%rbp),%rax
    83b9:	48 89 85 d8 f2 ff ff 	mov    %rax,-0xd28(%rbp)
    83c0:	48 c7 85 e0 f2 ff ff 	movq   $0x0,-0xd20(%rbp)
    83c7:	00 00 00 00 
    83cb:	48 8d 85 e8 e0 ff ff 	lea    -0x1f18(%rbp),%rax
    83d2:	48 89 85 e8 f2 ff ff 	mov    %rax,-0xd18(%rbp)
    83d9:	48 8d 85 e8 e0 ff ff 	lea    -0x1f18(%rbp),%rax
    83e0:	48 89 85 f0 f2 ff ff 	mov    %rax,-0xd10(%rbp)
    83e7:	48 8d 85 e8 e0 ff ff 	lea    -0x1f18(%rbp),%rax
    83ee:	48 89 85 f8 f2 ff ff 	mov    %rax,-0xd08(%rbp)
    83f5:	48 c7 85 00 f3 ff ff 	movq   $0x0,-0xd00(%rbp)
    83fc:	00 00 00 00 
    8400:	48 8d 85 e8 e0 ff ff 	lea    -0x1f18(%rbp),%rax
    8407:	48 89 85 08 f3 ff ff 	mov    %rax,-0xcf8(%rbp)
    840e:	48 8d 85 e8 e0 ff ff 	lea    -0x1f18(%rbp),%rax
    8415:	48 89 85 10 f3 ff ff 	mov    %rax,-0xcf0(%rbp)
    841c:	48 c7 85 18 f3 ff ff 	movq   $0x0,-0xce8(%rbp)
    8423:	00 00 00 00 
    8427:	48 c7 85 20 f3 ff ff 	movq   $0x0,-0xce0(%rbp)
    842e:	00 00 00 00 
    8432:	48 c7 85 28 f3 ff ff 	movq   $0x0,-0xcd8(%rbp)
    8439:	00 00 00 00 
    843d:	48 c7 85 30 f3 ff ff 	movq   $0x0,-0xcd0(%rbp)
    8444:	00 00 00 00 
    8448:	48 c7 85 38 f3 ff ff 	movq   $0x0,-0xcc8(%rbp)
    844f:	00 00 00 00 
    8453:	48 8d 85 e8 e0 ff ff 	lea    -0x1f18(%rbp),%rax
    845a:	48 89 85 40 f3 ff ff 	mov    %rax,-0xcc0(%rbp)
    8461:	48 8d 85 e8 e0 ff ff 	lea    -0x1f18(%rbp),%rax
    8468:	48 89 85 48 f3 ff ff 	mov    %rax,-0xcb8(%rbp)
    846f:	48 8d 85 e8 e0 ff ff 	lea    -0x1f18(%rbp),%rax
    8476:	48 89 85 50 f3 ff ff 	mov    %rax,-0xcb0(%rbp)
    847d:	48 8d 85 e8 e0 ff ff 	lea    -0x1f18(%rbp),%rax
    8484:	48 89 85 58 f3 ff ff 	mov    %rax,-0xca8(%rbp)
    848b:	48 8d 85 e8 e0 ff ff 	lea    -0x1f18(%rbp),%rax
    8492:	48 89 85 60 f3 ff ff 	mov    %rax,-0xca0(%rbp)
    8499:	48 8d 85 e8 e0 ff ff 	lea    -0x1f18(%rbp),%rax
    84a0:	48 89 85 68 f3 ff ff 	mov    %rax,-0xc98(%rbp)
    84a7:	48 8d 85 e8 e0 ff ff 	lea    -0x1f18(%rbp),%rax
    84ae:	48 89 85 70 f3 ff ff 	mov    %rax,-0xc90(%rbp)
    84b5:	48 c7 85 78 f3 ff ff 	movq   $0x0,-0xc88(%rbp)
    84bc:	00 00 00 00 
    84c0:	48 8d 85 e8 e0 ff ff 	lea    -0x1f18(%rbp),%rax
    84c7:	48 89 85 80 f3 ff ff 	mov    %rax,-0xc80(%rbp)
    84ce:	48 8d 85 e8 e0 ff ff 	lea    -0x1f18(%rbp),%rax
    84d5:	48 89 85 88 f3 ff ff 	mov    %rax,-0xc78(%rbp)
    84dc:	48 8d 85 e8 e0 ff ff 	lea    -0x1f18(%rbp),%rax
    84e3:	48 89 85 90 f3 ff ff 	mov    %rax,-0xc70(%rbp)
    84ea:	48 8d 85 e8 e0 ff ff 	lea    -0x1f18(%rbp),%rax
    84f1:	48 89 85 98 f3 ff ff 	mov    %rax,-0xc68(%rbp)
    84f8:	48 8d 85 e8 e0 ff ff 	lea    -0x1f18(%rbp),%rax
    84ff:	48 89 85 a0 f3 ff ff 	mov    %rax,-0xc60(%rbp)
    8506:	48 c7 85 a8 f3 ff ff 	movq   $0x0,-0xc58(%rbp)
    850d:	00 00 00 00 
    8511:	48 c7 85 b0 f3 ff ff 	movq   $0x0,-0xc50(%rbp)
    8518:	00 00 00 00 
    851c:	48 8d 85 e8 e0 ff ff 	lea    -0x1f18(%rbp),%rax
    8523:	48 89 85 b8 f3 ff ff 	mov    %rax,-0xc48(%rbp)
    852a:	48 c7 85 c0 f3 ff ff 	movq   $0x0,-0xc40(%rbp)
    8531:	00 00 00 00 
    8535:	48 8d 85 e8 e0 ff ff 	lea    -0x1f18(%rbp),%rax
    853c:	48 89 85 c8 f3 ff ff 	mov    %rax,-0xc38(%rbp)
    8543:	48 c7 85 d0 f3 ff ff 	movq   $0x0,-0xc30(%rbp)
    854a:	00 00 00 00 
    854e:	48 8d 85 e8 e0 ff ff 	lea    -0x1f18(%rbp),%rax
    8555:	48 89 85 d8 f3 ff ff 	mov    %rax,-0xc28(%rbp)
    855c:	48 8d 85 e8 e0 ff ff 	lea    -0x1f18(%rbp),%rax
    8563:	48 89 85 e0 f3 ff ff 	mov    %rax,-0xc20(%rbp)
    856a:	48 8d 85 e8 e0 ff ff 	lea    -0x1f18(%rbp),%rax
    8571:	48 89 85 e8 f3 ff ff 	mov    %rax,-0xc18(%rbp)
    8578:	48 8d 85 e8 e0 ff ff 	lea    -0x1f18(%rbp),%rax
    857f:	48 89 85 f0 f3 ff ff 	mov    %rax,-0xc10(%rbp)
    8586:	48 c7 85 f8 f3 ff ff 	movq   $0x0,-0xc08(%rbp)
    858d:	00 00 00 00 
    8591:	48 c7 85 00 f4 ff ff 	movq   $0x0,-0xc00(%rbp)
    8598:	00 00 00 00 
    859c:	48 c7 85 08 f4 ff ff 	movq   $0x0,-0xbf8(%rbp)
    85a3:	00 00 00 00 
    85a7:	48 8d 85 e8 e0 ff ff 	lea    -0x1f18(%rbp),%rax
    85ae:	48 89 85 10 f4 ff ff 	mov    %rax,-0xbf0(%rbp)
    85b5:	48 8d 85 e8 e0 ff ff 	lea    -0x1f18(%rbp),%rax
    85bc:	48 89 85 18 f4 ff ff 	mov    %rax,-0xbe8(%rbp)
    85c3:	48 c7 85 20 f4 ff ff 	movq   $0x0,-0xbe0(%rbp)
    85ca:	00 00 00 00 
    85ce:	48 8d 85 e8 e0 ff ff 	lea    -0x1f18(%rbp),%rax
    85d5:	48 89 85 28 f4 ff ff 	mov    %rax,-0xbd8(%rbp)
    85dc:	48 8d 85 e8 e0 ff ff 	lea    -0x1f18(%rbp),%rax
    85e3:	48 89 85 30 f4 ff ff 	mov    %rax,-0xbd0(%rbp)
    85ea:	48 8d 85 e8 e0 ff ff 	lea    -0x1f18(%rbp),%rax
    85f1:	48 89 85 38 f4 ff ff 	mov    %rax,-0xbc8(%rbp)
    85f8:	48 8d 85 e8 e0 ff ff 	lea    -0x1f18(%rbp),%rax
    85ff:	48 89 85 40 f4 ff ff 	mov    %rax,-0xbc0(%rbp)
    8606:	48 8d 85 e8 e0 ff ff 	lea    -0x1f18(%rbp),%rax
    860d:	48 89 85 48 f4 ff ff 	mov    %rax,-0xbb8(%rbp)
    8614:	48 8d 85 e8 e0 ff ff 	lea    -0x1f18(%rbp),%rax
    861b:	48 89 85 50 f4 ff ff 	mov    %rax,-0xbb0(%rbp)
    8622:	48 8d 85 e8 e0 ff ff 	lea    -0x1f18(%rbp),%rax
    8629:	48 89 85 58 f4 ff ff 	mov    %rax,-0xba8(%rbp)
    8630:	48 8d 85 e8 e0 ff ff 	lea    -0x1f18(%rbp),%rax
    8637:	48 89 85 60 f4 ff ff 	mov    %rax,-0xba0(%rbp)
    863e:	48 c7 85 68 f4 ff ff 	movq   $0x0,-0xb98(%rbp)
    8645:	00 00 00 00 
    8649:	48 8d 85 e8 e0 ff ff 	lea    -0x1f18(%rbp),%rax
    8650:	48 89 85 70 f4 ff ff 	mov    %rax,-0xb90(%rbp)
    8657:	48 8d 85 e8 e0 ff ff 	lea    -0x1f18(%rbp),%rax
    865e:	48 89 85 78 f4 ff ff 	mov    %rax,-0xb88(%rbp)
    8665:	48 8d 85 e8 e0 ff ff 	lea    -0x1f18(%rbp),%rax
    866c:	48 89 85 80 f4 ff ff 	mov    %rax,-0xb80(%rbp)
    8673:	48 8d 85 e8 e0 ff ff 	lea    -0x1f18(%rbp),%rax
    867a:	48 89 85 88 f4 ff ff 	mov    %rax,-0xb78(%rbp)
    8681:	48 8d 85 e8 e0 ff ff 	lea    -0x1f18(%rbp),%rax
    8688:	48 89 85 90 f4 ff ff 	mov    %rax,-0xb70(%rbp)
    868f:	48 8d 85 e8 e0 ff ff 	lea    -0x1f18(%rbp),%rax
    8696:	48 89 85 98 f4 ff ff 	mov    %rax,-0xb68(%rbp)
    869d:	48 8d 85 e8 e0 ff ff 	lea    -0x1f18(%rbp),%rax
    86a4:	48 89 85 a0 f4 ff ff 	mov    %rax,-0xb60(%rbp)
    86ab:	48 c7 85 a8 f4 ff ff 	movq   $0x0,-0xb58(%rbp)
    86b2:	00 00 00 00 
    86b6:	48 c7 85 b0 f4 ff ff 	movq   $0x0,-0xb50(%rbp)
    86bd:	00 00 00 00 
    86c1:	48 8d 85 e8 e0 ff ff 	lea    -0x1f18(%rbp),%rax
    86c8:	48 89 85 b8 f4 ff ff 	mov    %rax,-0xb48(%rbp)
    86cf:	48 8d 85 e8 e0 ff ff 	lea    -0x1f18(%rbp),%rax
    86d6:	48 89 85 c0 f4 ff ff 	mov    %rax,-0xb40(%rbp)
    86dd:	48 8d 85 e8 e0 ff ff 	lea    -0x1f18(%rbp),%rax
    86e4:	48 89 85 c8 f4 ff ff 	mov    %rax,-0xb38(%rbp)
    86eb:	48 8d 85 e8 e0 ff ff 	lea    -0x1f18(%rbp),%rax
    86f2:	48 89 85 d0 f4 ff ff 	mov    %rax,-0xb30(%rbp)
    86f9:	48 8d 85 e8 e0 ff ff 	lea    -0x1f18(%rbp),%rax
    8700:	48 89 85 d8 f4 ff ff 	mov    %rax,-0xb28(%rbp)
    8707:	48 c7 85 e0 f4 ff ff 	movq   $0x0,-0xb20(%rbp)
    870e:	00 00 00 00 
    8712:	48 c7 85 e8 f4 ff ff 	movq   $0x0,-0xb18(%rbp)
    8719:	00 00 00 00 
    871d:	48 8d 85 e8 e0 ff ff 	lea    -0x1f18(%rbp),%rax
    8724:	48 89 85 f0 f4 ff ff 	mov    %rax,-0xb10(%rbp)
    872b:	48 8d 85 e8 e0 ff ff 	lea    -0x1f18(%rbp),%rax
    8732:	48 89 85 f8 f4 ff ff 	mov    %rax,-0xb08(%rbp)
    8739:	48 8d 85 e8 e0 ff ff 	lea    -0x1f18(%rbp),%rax
    8740:	48 89 85 00 f5 ff ff 	mov    %rax,-0xb00(%rbp)
    8747:	48 8d 85 e8 e0 ff ff 	lea    -0x1f18(%rbp),%rax
    874e:	48 89 85 08 f5 ff ff 	mov    %rax,-0xaf8(%rbp)
    8755:	48 8d 85 e8 e0 ff ff 	lea    -0x1f18(%rbp),%rax
    875c:	48 89 85 10 f5 ff ff 	mov    %rax,-0xaf0(%rbp)
    8763:	48 c7 85 18 f5 ff ff 	movq   $0x0,-0xae8(%rbp)
    876a:	00 00 00 00 
    876e:	48 8d 85 e8 e0 ff ff 	lea    -0x1f18(%rbp),%rax
    8775:	48 89 85 20 f5 ff ff 	mov    %rax,-0xae0(%rbp)
    877c:	48 8d 85 e8 e0 ff ff 	lea    -0x1f18(%rbp),%rax
    8783:	48 89 85 28 f5 ff ff 	mov    %rax,-0xad8(%rbp)
    878a:	48 8d 85 e8 e0 ff ff 	lea    -0x1f18(%rbp),%rax
    8791:	48 89 85 30 f5 ff ff 	mov    %rax,-0xad0(%rbp)
    8798:	48 8d 85 e8 e0 ff ff 	lea    -0x1f18(%rbp),%rax
    879f:	48 89 85 38 f5 ff ff 	mov    %rax,-0xac8(%rbp)
    87a6:	48 8d 85 e8 e0 ff ff 	lea    -0x1f18(%rbp),%rax
    87ad:	48 89 85 40 f5 ff ff 	mov    %rax,-0xac0(%rbp)
    87b4:	48 8d 85 e8 e0 ff ff 	lea    -0x1f18(%rbp),%rax
    87bb:	48 89 85 48 f5 ff ff 	mov    %rax,-0xab8(%rbp)
    87c2:	48 c7 85 50 f5 ff ff 	movq   $0x0,-0xab0(%rbp)
    87c9:	00 00 00 00 
    87cd:	48 c7 85 58 f5 ff ff 	movq   $0x0,-0xaa8(%rbp)
    87d4:	00 00 00 00 
    87d8:	48 8d 85 e8 e0 ff ff 	lea    -0x1f18(%rbp),%rax
    87df:	48 89 85 60 f5 ff ff 	mov    %rax,-0xaa0(%rbp)
    87e6:	48 c7 85 68 f5 ff ff 	movq   $0x0,-0xa98(%rbp)
    87ed:	00 00 00 00 
    87f1:	48 8d 85 e8 e0 ff ff 	lea    -0x1f18(%rbp),%rax
    87f8:	48 89 85 70 f5 ff ff 	mov    %rax,-0xa90(%rbp)
    87ff:	48 8d 85 e8 e0 ff ff 	lea    -0x1f18(%rbp),%rax
    8806:	48 89 85 78 f5 ff ff 	mov    %rax,-0xa88(%rbp)
    880d:	48 8d 85 e8 e0 ff ff 	lea    -0x1f18(%rbp),%rax
    8814:	48 89 85 80 f5 ff ff 	mov    %rax,-0xa80(%rbp)
    881b:	48 8d 85 e8 e0 ff ff 	lea    -0x1f18(%rbp),%rax
    8822:	48 89 85 88 f5 ff ff 	mov    %rax,-0xa78(%rbp)
    8829:	48 8d 85 e8 e0 ff ff 	lea    -0x1f18(%rbp),%rax
    8830:	48 89 85 90 f5 ff ff 	mov    %rax,-0xa70(%rbp)
    8837:	48 8d 85 e8 e0 ff ff 	lea    -0x1f18(%rbp),%rax
    883e:	48 89 85 98 f5 ff ff 	mov    %rax,-0xa68(%rbp)
    8845:	48 8d 85 e8 e0 ff ff 	lea    -0x1f18(%rbp),%rax
    884c:	48 89 85 a0 f5 ff ff 	mov    %rax,-0xa60(%rbp)
    8853:	48 8d 85 e8 e0 ff ff 	lea    -0x1f18(%rbp),%rax
    885a:	48 89 85 a8 f5 ff ff 	mov    %rax,-0xa58(%rbp)
    8861:	48 8d 85 e8 e0 ff ff 	lea    -0x1f18(%rbp),%rax
    8868:	48 89 85 b0 f5 ff ff 	mov    %rax,-0xa50(%rbp)
    886f:	48 8d 85 e8 e0 ff ff 	lea    -0x1f18(%rbp),%rax
    8876:	48 89 85 b8 f5 ff ff 	mov    %rax,-0xa48(%rbp)
    887d:	48 c7 85 c0 f5 ff ff 	movq   $0x0,-0xa40(%rbp)
    8884:	00 00 00 00 
    8888:	48 8d 85 e8 e0 ff ff 	lea    -0x1f18(%rbp),%rax
    888f:	48 89 85 c8 f5 ff ff 	mov    %rax,-0xa38(%rbp)
    8896:	48 8d 85 e8 e0 ff ff 	lea    -0x1f18(%rbp),%rax
    889d:	48 89 85 d0 f5 ff ff 	mov    %rax,-0xa30(%rbp)
    88a4:	48 8d 85 e8 e0 ff ff 	lea    -0x1f18(%rbp),%rax
    88ab:	48 89 85 d8 f5 ff ff 	mov    %rax,-0xa28(%rbp)
    88b2:	48 c7 85 e0 f5 ff ff 	movq   $0x0,-0xa20(%rbp)
    88b9:	00 00 00 00 
    88bd:	48 8d 85 e8 e0 ff ff 	lea    -0x1f18(%rbp),%rax
    88c4:	48 89 85 e8 f5 ff ff 	mov    %rax,-0xa18(%rbp)
    88cb:	48 8d 85 e8 e0 ff ff 	lea    -0x1f18(%rbp),%rax
    88d2:	48 89 85 f0 f5 ff ff 	mov    %rax,-0xa10(%rbp)
    88d9:	48 8d 85 e8 e0 ff ff 	lea    -0x1f18(%rbp),%rax
    88e0:	48 89 85 f8 f5 ff ff 	mov    %rax,-0xa08(%rbp)
    88e7:	48 8d 85 e8 e0 ff ff 	lea    -0x1f18(%rbp),%rax
    88ee:	48 89 85 00 f6 ff ff 	mov    %rax,-0xa00(%rbp)
    88f5:	48 8d 85 e8 e0 ff ff 	lea    -0x1f18(%rbp),%rax
    88fc:	48 89 85 08 f6 ff ff 	mov    %rax,-0x9f8(%rbp)
    8903:	48 8d 85 e8 e0 ff ff 	lea    -0x1f18(%rbp),%rax
    890a:	48 89 85 10 f6 ff ff 	mov    %rax,-0x9f0(%rbp)
    8911:	48 8d 85 e8 e0 ff ff 	lea    -0x1f18(%rbp),%rax
    8918:	48 89 85 18 f6 ff ff 	mov    %rax,-0x9e8(%rbp)
    891f:	48 8d 85 e8 e0 ff ff 	lea    -0x1f18(%rbp),%rax
    8926:	48 89 85 20 f6 ff ff 	mov    %rax,-0x9e0(%rbp)
    892d:	48 c7 85 28 f6 ff ff 	movq   $0x0,-0x9d8(%rbp)
    8934:	00 00 00 00 
    8938:	48 8d 85 e8 e0 ff ff 	lea    -0x1f18(%rbp),%rax
    893f:	48 89 85 30 f6 ff ff 	mov    %rax,-0x9d0(%rbp)
    8946:	48 8d 85 e8 e0 ff ff 	lea    -0x1f18(%rbp),%rax
    894d:	48 89 85 38 f6 ff ff 	mov    %rax,-0x9c8(%rbp)
    8954:	48 8d 85 e8 e0 ff ff 	lea    -0x1f18(%rbp),%rax
    895b:	48 89 85 40 f6 ff ff 	mov    %rax,-0x9c0(%rbp)
    8962:	48 c7 85 48 f6 ff ff 	movq   $0x0,-0x9b8(%rbp)
    8969:	00 00 00 00 
    896d:	48 8d 85 e8 e0 ff ff 	lea    -0x1f18(%rbp),%rax
    8974:	48 89 85 50 f6 ff ff 	mov    %rax,-0x9b0(%rbp)
    897b:	48 8d 85 e8 e0 ff ff 	lea    -0x1f18(%rbp),%rax
    8982:	48 89 85 58 f6 ff ff 	mov    %rax,-0x9a8(%rbp)
    8989:	48 c7 85 60 f6 ff ff 	movq   $0x0,-0x9a0(%rbp)
    8990:	00 00 00 00 
    8994:	48 c7 85 68 f6 ff ff 	movq   $0x0,-0x998(%rbp)
    899b:	00 00 00 00 
    899f:	48 8d 85 e8 e0 ff ff 	lea    -0x1f18(%rbp),%rax
    89a6:	48 89 85 70 f6 ff ff 	mov    %rax,-0x990(%rbp)
    89ad:	48 8d 85 e8 e0 ff ff 	lea    -0x1f18(%rbp),%rax
    89b4:	48 89 85 78 f6 ff ff 	mov    %rax,-0x988(%rbp)
    89bb:	48 c7 85 80 f6 ff ff 	movq   $0x0,-0x980(%rbp)
    89c2:	00 00 00 00 
    89c6:	48 8d 85 e8 e0 ff ff 	lea    -0x1f18(%rbp),%rax
    89cd:	48 89 85 88 f6 ff ff 	mov    %rax,-0x978(%rbp)
    89d4:	48 8d 85 e8 e0 ff ff 	lea    -0x1f18(%rbp),%rax
    89db:	48 89 85 90 f6 ff ff 	mov    %rax,-0x970(%rbp)
    89e2:	48 8d 85 e8 e0 ff ff 	lea    -0x1f18(%rbp),%rax
    89e9:	48 89 85 98 f6 ff ff 	mov    %rax,-0x968(%rbp)
    89f0:	48 8d 85 e8 e0 ff ff 	lea    -0x1f18(%rbp),%rax
    89f7:	48 89 85 a0 f6 ff ff 	mov    %rax,-0x960(%rbp)
    89fe:	48 8d 85 e8 e0 ff ff 	lea    -0x1f18(%rbp),%rax
    8a05:	48 89 85 a8 f6 ff ff 	mov    %rax,-0x958(%rbp)
    8a0c:	48 8d 85 e8 e0 ff ff 	lea    -0x1f18(%rbp),%rax
    8a13:	48 89 85 b0 f6 ff ff 	mov    %rax,-0x950(%rbp)
    8a1a:	48 8d 85 e8 e0 ff ff 	lea    -0x1f18(%rbp),%rax
    8a21:	48 89 85 b8 f6 ff ff 	mov    %rax,-0x948(%rbp)
    8a28:	48 c7 85 c0 f6 ff ff 	movq   $0x0,-0x940(%rbp)
    8a2f:	00 00 00 00 
    8a33:	48 8d 85 e8 e0 ff ff 	lea    -0x1f18(%rbp),%rax
    8a3a:	48 89 85 c8 f6 ff ff 	mov    %rax,-0x938(%rbp)
    8a41:	48 8d 85 e8 e0 ff ff 	lea    -0x1f18(%rbp),%rax
    8a48:	48 89 85 d0 f6 ff ff 	mov    %rax,-0x930(%rbp)
    8a4f:	48 8d 85 e8 e0 ff ff 	lea    -0x1f18(%rbp),%rax
    8a56:	48 89 85 d8 f6 ff ff 	mov    %rax,-0x928(%rbp)
    8a5d:	48 8d 85 e8 e0 ff ff 	lea    -0x1f18(%rbp),%rax
    8a64:	48 89 85 e0 f6 ff ff 	mov    %rax,-0x920(%rbp)
    8a6b:	48 8d 85 e8 e0 ff ff 	lea    -0x1f18(%rbp),%rax
    8a72:	48 89 85 e8 f6 ff ff 	mov    %rax,-0x918(%rbp)
    8a79:	48 c7 85 f0 f6 ff ff 	movq   $0x0,-0x910(%rbp)
    8a80:	00 00 00 00 
    8a84:	48 c7 85 f8 f6 ff ff 	movq   $0x0,-0x908(%rbp)
    8a8b:	00 00 00 00 
    8a8f:	48 8d 85 e8 e0 ff ff 	lea    -0x1f18(%rbp),%rax
    8a96:	48 89 85 00 f7 ff ff 	mov    %rax,-0x900(%rbp)
    8a9d:	48 c7 85 08 f7 ff ff 	movq   $0x0,-0x8f8(%rbp)
    8aa4:	00 00 00 00 
    8aa8:	48 8d 85 e8 e0 ff ff 	lea    -0x1f18(%rbp),%rax
    8aaf:	48 89 85 10 f7 ff ff 	mov    %rax,-0x8f0(%rbp)
    8ab6:	48 c7 85 18 f7 ff ff 	movq   $0x0,-0x8e8(%rbp)
    8abd:	00 00 00 00 
    8ac1:	48 8d 85 e8 e0 ff ff 	lea    -0x1f18(%rbp),%rax
    8ac8:	48 89 85 20 f7 ff ff 	mov    %rax,-0x8e0(%rbp)
    8acf:	48 8d 85 e8 e0 ff ff 	lea    -0x1f18(%rbp),%rax
    8ad6:	48 89 85 28 f7 ff ff 	mov    %rax,-0x8d8(%rbp)
    8add:	48 8d 85 e8 e0 ff ff 	lea    -0x1f18(%rbp),%rax
    8ae4:	48 89 85 30 f7 ff ff 	mov    %rax,-0x8d0(%rbp)
    8aeb:	48 8d 85 e8 e0 ff ff 	lea    -0x1f18(%rbp),%rax
    8af2:	48 89 85 38 f7 ff ff 	mov    %rax,-0x8c8(%rbp)
    8af9:	48 c7 85 40 f7 ff ff 	movq   $0x0,-0x8c0(%rbp)
    8b00:	00 00 00 00 
    8b04:	48 c7 85 48 f7 ff ff 	movq   $0x0,-0x8b8(%rbp)
    8b0b:	00 00 00 00 
    8b0f:	48 c7 85 50 f7 ff ff 	movq   $0x0,-0x8b0(%rbp)
    8b16:	00 00 00 00 
    8b1a:	48 8d 85 e8 e0 ff ff 	lea    -0x1f18(%rbp),%rax
    8b21:	48 89 85 58 f7 ff ff 	mov    %rax,-0x8a8(%rbp)
    8b28:	48 8d 85 e8 e0 ff ff 	lea    -0x1f18(%rbp),%rax
    8b2f:	48 89 85 60 f7 ff ff 	mov    %rax,-0x8a0(%rbp)
    8b36:	48 c7 85 68 f7 ff ff 	movq   $0x0,-0x898(%rbp)
    8b3d:	00 00 00 00 
    8b41:	48 8d 85 e8 e0 ff ff 	lea    -0x1f18(%rbp),%rax
    8b48:	48 89 85 70 f7 ff ff 	mov    %rax,-0x890(%rbp)
    8b4f:	48 8d 85 e8 e0 ff ff 	lea    -0x1f18(%rbp),%rax
    8b56:	48 89 85 78 f7 ff ff 	mov    %rax,-0x888(%rbp)
    8b5d:	48 8d 85 e8 e0 ff ff 	lea    -0x1f18(%rbp),%rax
    8b64:	48 89 85 80 f7 ff ff 	mov    %rax,-0x880(%rbp)
    8b6b:	48 8d 85 e8 e0 ff ff 	lea    -0x1f18(%rbp),%rax
    8b72:	48 89 85 88 f7 ff ff 	mov    %rax,-0x878(%rbp)
    8b79:	48 8d 85 e8 e0 ff ff 	lea    -0x1f18(%rbp),%rax
    8b80:	48 89 85 90 f7 ff ff 	mov    %rax,-0x870(%rbp)
    8b87:	48 8d 85 e8 e0 ff ff 	lea    -0x1f18(%rbp),%rax
    8b8e:	48 89 85 98 f7 ff ff 	mov    %rax,-0x868(%rbp)
    8b95:	48 8d 85 e8 e0 ff ff 	lea    -0x1f18(%rbp),%rax
    8b9c:	48 89 85 a0 f7 ff ff 	mov    %rax,-0x860(%rbp)
    8ba3:	48 8d 85 e8 e0 ff ff 	lea    -0x1f18(%rbp),%rax
    8baa:	48 89 85 a8 f7 ff ff 	mov    %rax,-0x858(%rbp)
    8bb1:	48 c7 85 b0 f7 ff ff 	movq   $0x0,-0x850(%rbp)
    8bb8:	00 00 00 00 
    8bbc:	48 8d 85 e8 e0 ff ff 	lea    -0x1f18(%rbp),%rax
    8bc3:	48 89 85 b8 f7 ff ff 	mov    %rax,-0x848(%rbp)
    8bca:	48 8d 85 e8 e0 ff ff 	lea    -0x1f18(%rbp),%rax
    8bd1:	48 89 85 c0 f7 ff ff 	mov    %rax,-0x840(%rbp)
    8bd8:	48 8d 85 20 f0 ff ff 	lea    -0xfe0(%rbp),%rax
    8bdf:	48 83 c0 40          	add    $0x40,%rax
    8be3:	48 89 85 78 e1 ff ff 	mov    %rax,-0x1e88(%rbp)
    8bea:	c7 85 b0 df ff ff 05 	movl   $0x5,-0x2050(%rbp)
    8bf1:	00 00 00 
    8bf4:	48 c7 85 80 e1 ff ff 	movq   $0x1,-0x1e80(%rbp)
    8bfb:	01 00 00 00 
    8bff:	48 8d 85 e0 e0 ff ff 	lea    -0x1f20(%rbp),%rax
    8c06:	48 89 85 88 e1 ff ff 	mov    %rax,-0x1e78(%rbp)
    8c0d:	48 8d 05 b4 93 01 00 	lea    0x193b4(%rip),%rax        # 21fc8 <g_1780>
    8c14:	48 89 85 e0 e5 ff ff 	mov    %rax,-0x1a20(%rbp)
    8c1b:	48 8d 05 a6 93 01 00 	lea    0x193a6(%rip),%rax        # 21fc8 <g_1780>
    8c22:	48 89 85 e8 e5 ff ff 	mov    %rax,-0x1a18(%rbp)
    8c29:	48 8d 05 98 93 01 00 	lea    0x19398(%rip),%rax        # 21fc8 <g_1780>
    8c30:	48 89 85 f0 e5 ff ff 	mov    %rax,-0x1a10(%rbp)
    8c37:	48 8d 05 8a 93 01 00 	lea    0x1938a(%rip),%rax        # 21fc8 <g_1780>
    8c3e:	48 89 85 f8 e5 ff ff 	mov    %rax,-0x1a08(%rbp)
    8c45:	48 8d 05 7c 93 01 00 	lea    0x1937c(%rip),%rax        # 21fc8 <g_1780>
    8c4c:	48 89 85 00 e6 ff ff 	mov    %rax,-0x1a00(%rbp)
    8c53:	48 8d 05 6e 93 01 00 	lea    0x1936e(%rip),%rax        # 21fc8 <g_1780>
    8c5a:	48 89 85 08 e6 ff ff 	mov    %rax,-0x19f8(%rbp)
    8c61:	48 8d 05 60 93 01 00 	lea    0x19360(%rip),%rax        # 21fc8 <g_1780>
    8c68:	48 89 85 10 e6 ff ff 	mov    %rax,-0x19f0(%rbp)
    8c6f:	48 8d 05 52 93 01 00 	lea    0x19352(%rip),%rax        # 21fc8 <g_1780>
    8c76:	48 89 85 18 e6 ff ff 	mov    %rax,-0x19e8(%rbp)
    8c7d:	48 8d 05 44 93 01 00 	lea    0x19344(%rip),%rax        # 21fc8 <g_1780>
    8c84:	48 89 85 20 e6 ff ff 	mov    %rax,-0x19e0(%rbp)
    8c8b:	48 8d 05 36 93 01 00 	lea    0x19336(%rip),%rax        # 21fc8 <g_1780>
    8c92:	48 89 85 28 e6 ff ff 	mov    %rax,-0x19d8(%rbp)
    8c99:	48 c7 85 30 e6 ff ff 	movq   $0x0,-0x19d0(%rbp)
    8ca0:	00 00 00 00 
    8ca4:	48 8d 05 1d 93 01 00 	lea    0x1931d(%rip),%rax        # 21fc8 <g_1780>
    8cab:	48 89 85 38 e6 ff ff 	mov    %rax,-0x19c8(%rbp)
    8cb2:	c6 85 6b df ff ff 01 	movb   $0x1,-0x2095(%rbp)
    8cb9:	c7 85 24 e0 ff ff 11 	movl   $0xc96aae11,-0x1fdc(%rbp)
    8cc0:	ae 6a c9 
    8cc3:	c7 85 28 e0 ff ff 09 	movl   $0x9,-0x1fd8(%rbp)
    8cca:	00 00 00 
    8ccd:	c7 85 2c e0 ff ff 01 	movl   $0x1,-0x1fd4(%rbp)
    8cd4:	00 00 00 
    8cd7:	c6 85 aa e3 ff ff dc 	movb   $0xdc,-0x1c56(%rbp)
    8cde:	c6 85 ab e3 ff ff 49 	movb   $0x49,-0x1c55(%rbp)
    8ce5:	c6 85 ac e3 ff ff 49 	movb   $0x49,-0x1c54(%rbp)
    8cec:	c6 85 ad e3 ff ff dc 	movb   $0xdc,-0x1c53(%rbp)
    8cf3:	c6 85 ae e3 ff ff 49 	movb   $0x49,-0x1c52(%rbp)
    8cfa:	c6 85 af e3 ff ff 49 	movb   $0x49,-0x1c51(%rbp)
    8d01:	c6 85 b0 e3 ff ff dc 	movb   $0xdc,-0x1c50(%rbp)
    8d08:	c6 85 b1 e3 ff ff 49 	movb   $0x49,-0x1c4f(%rbp)
    8d0f:	c6 85 b2 e3 ff ff 49 	movb   $0x49,-0x1c4e(%rbp)
    8d16:	c6 85 b3 e3 ff ff dc 	movb   $0xdc,-0x1c4d(%rbp)
    8d1d:	c7 85 30 e0 ff ff 01 	movl   $0x1,-0x1fd0(%rbp)
    8d24:	00 00 00 
    8d27:	48 8d 85 c0 ed ff ff 	lea    -0x1240(%rbp),%rax
    8d2e:	48 8d 15 0b f8 00 00 	lea    0xf80b(%rip),%rdx        # 18540 <g_764+0x4e0>
    8d35:	b9 4b 00 00 00       	mov    $0x4b,%ecx
    8d3a:	48 89 c7             	mov    %rax,%rdi
    8d3d:	48 89 d6             	mov    %rdx,%rsi
    8d40:	f3 48 a5             	rep movsq %ds:(%rsi),%es:(%rdi)
    8d43:	48 c7 85 90 e1 ff ff 	movq   $0x0,-0x1e70(%rbp)
    8d4a:	00 00 00 00 
    8d4e:	66 c7 85 e0 e4 ff ff 	movw   $0xd85a,-0x1b20(%rbp)
    8d55:	5a d8 
    8d57:	66 c7 85 e2 e4 ff ff 	movw   $0x0,-0x1b1e(%rbp)
    8d5e:	00 00 
    8d60:	66 c7 85 e4 e4 ff ff 	movw   $0x3bf,-0x1b1c(%rbp)
    8d67:	bf 03 
    8d69:	66 c7 85 e6 e4 ff ff 	movw   $0x0,-0x1b1a(%rbp)
    8d70:	00 00 
    8d72:	66 c7 85 e8 e4 ff ff 	movw   $0xd85a,-0x1b18(%rbp)
    8d79:	5a d8 
    8d7b:	66 c7 85 ea e4 ff ff 	movw   $0x3bf,-0x1b16(%rbp)
    8d82:	bf 03 
    8d84:	66 c7 85 ec e4 ff ff 	movw   $0x1ea3,-0x1b14(%rbp)
    8d8b:	a3 1e 
    8d8d:	66 c7 85 ee e4 ff ff 	movw   $0x1ea3,-0x1b12(%rbp)
    8d94:	a3 1e 
    8d96:	66 c7 85 f0 e4 ff ff 	movw   $0x3bf,-0x1b10(%rbp)
    8d9d:	bf 03 
    8d9f:	66 c7 85 f2 e4 ff ff 	movw   $0xd85a,-0x1b0e(%rbp)
    8da6:	5a d8 
    8da8:	66 c7 85 f4 e4 ff ff 	movw   $0x0,-0x1b0c(%rbp)
    8daf:	00 00 
    8db1:	66 c7 85 f6 e4 ff ff 	movw   $0x3bf,-0x1b0a(%rbp)
    8db8:	bf 03 
    8dba:	66 c7 85 f8 e4 ff ff 	movw   $0x0,-0x1b08(%rbp)
    8dc1:	00 00 
    8dc3:	66 c7 85 fa e4 ff ff 	movw   $0xd85a,-0x1b06(%rbp)
    8dca:	5a d8 
    8dcc:	66 c7 85 fc e4 ff ff 	movw   $0x3bf,-0x1b04(%rbp)
    8dd3:	bf 03 
    8dd5:	66 c7 85 fe e4 ff ff 	movw   $0x1ea3,-0x1b02(%rbp)
    8ddc:	a3 1e 
    8dde:	66 c7 85 00 e5 ff ff 	movw   $0x1ea3,-0x1b00(%rbp)
    8de5:	a3 1e 
    8de7:	66 c7 85 02 e5 ff ff 	movw   $0x3bf,-0x1afe(%rbp)
    8dee:	bf 03 
    8df0:	66 c7 85 04 e5 ff ff 	movw   $0xd85a,-0x1afc(%rbp)
    8df7:	5a d8 
    8df9:	66 c7 85 06 e5 ff ff 	movw   $0x0,-0x1afa(%rbp)
    8e00:	00 00 
    8e02:	66 c7 85 08 e5 ff ff 	movw   $0x3bf,-0x1af8(%rbp)
    8e09:	bf 03 
    8e0b:	66 c7 85 0a e5 ff ff 	movw   $0x0,-0x1af6(%rbp)
    8e12:	00 00 
    8e14:	66 c7 85 0c e5 ff ff 	movw   $0xd85a,-0x1af4(%rbp)
    8e1b:	5a d8 
    8e1d:	66 c7 85 0e e5 ff ff 	movw   $0x3bf,-0x1af2(%rbp)
    8e24:	bf 03 
    8e26:	66 c7 85 10 e5 ff ff 	movw   $0x1ea3,-0x1af0(%rbp)
    8e2d:	a3 1e 
    8e2f:	66 c7 85 12 e5 ff ff 	movw   $0x1ea3,-0x1aee(%rbp)
    8e36:	a3 1e 
    8e38:	66 c7 85 14 e5 ff ff 	movw   $0x3bf,-0x1aec(%rbp)
    8e3f:	bf 03 
    8e41:	66 c7 85 16 e5 ff ff 	movw   $0xd85a,-0x1aea(%rbp)
    8e48:	5a d8 
    8e4a:	66 c7 85 18 e5 ff ff 	movw   $0x0,-0x1ae8(%rbp)
    8e51:	00 00 
    8e53:	66 c7 85 1a e5 ff ff 	movw   $0x3bf,-0x1ae6(%rbp)
    8e5a:	bf 03 
    8e5c:	66 c7 85 1c e5 ff ff 	movw   $0x0,-0x1ae4(%rbp)
    8e63:	00 00 
    8e65:	66 c7 85 1e e5 ff ff 	movw   $0xd85a,-0x1ae2(%rbp)
    8e6c:	5a d8 
    8e6e:	66 c7 85 20 e5 ff ff 	movw   $0x3bf,-0x1ae0(%rbp)
    8e75:	bf 03 
    8e77:	66 c7 85 22 e5 ff ff 	movw   $0x1ea3,-0x1ade(%rbp)
    8e7e:	a3 1e 
    8e80:	66 c7 85 24 e5 ff ff 	movw   $0x1ea3,-0x1adc(%rbp)
    8e87:	a3 1e 
    8e89:	66 c7 85 26 e5 ff ff 	movw   $0x3bf,-0x1ada(%rbp)
    8e90:	bf 03 
    8e92:	c7 85 00 e4 ff ff fa 	movl   $0xfffffffa,-0x1c00(%rbp)
    8e99:	ff ff ff 
    8e9c:	c7 85 04 e4 ff ff fa 	movl   $0xfffffffa,-0x1bfc(%rbp)
    8ea3:	ff ff ff 
    8ea6:	c7 85 08 e4 ff ff 05 	movl   $0x5,-0x1bf8(%rbp)
    8ead:	00 00 00 
    8eb0:	c7 85 0c e4 ff ff fa 	movl   $0xfffffffa,-0x1bf4(%rbp)
    8eb7:	ff ff ff 
    8eba:	c7 85 10 e4 ff ff fa 	movl   $0xfffffffa,-0x1bf0(%rbp)
    8ec1:	ff ff ff 
    8ec4:	c7 85 14 e4 ff ff 05 	movl   $0x5,-0x1bec(%rbp)
    8ecb:	00 00 00 
    8ece:	c7 85 c0 e3 ff ff 96 	movl   $0x526f1d96,-0x1c40(%rbp)
    8ed5:	1d 6f 52 
    8ed8:	c7 85 c4 e3 ff ff 96 	movl   $0x526f1d96,-0x1c3c(%rbp)
    8edf:	1d 6f 52 
    8ee2:	c7 85 c8 e3 ff ff 96 	movl   $0x526f1d96,-0x1c38(%rbp)
    8ee9:	1d 6f 52 
    8eec:	c7 85 cc e3 ff ff 96 	movl   $0x526f1d96,-0x1c34(%rbp)
    8ef3:	1d 6f 52 
    8ef6:	48 8d 05 ab 97 01 00 	lea    0x197ab(%rip),%rax        # 226a8 <g_913>
    8efd:	48 89 85 98 e1 ff ff 	mov    %rax,-0x1e68(%rbp)
    8f04:	66 c7 85 7c df ff ff 	movw   $0x1,-0x2084(%rbp)
    8f0b:	01 00 
    8f0d:	c7 85 34 e0 ff ff f1 	movl   $0x663467f1,-0x1fcc(%rbp)
    8f14:	67 34 66 
    8f17:	c6 85 80 e5 ff ff 03 	movb   $0x3,-0x1a80(%rbp)
    8f1e:	c6 85 81 e5 ff ff 01 	movb   $0x1,-0x1a7f(%rbp)
    8f25:	c6 85 82 e5 ff ff da 	movb   $0xda,-0x1a7e(%rbp)
    8f2c:	c6 85 83 e5 ff ff 3d 	movb   $0x3d,-0x1a7d(%rbp)
    8f33:	c6 85 84 e5 ff ff 55 	movb   $0x55,-0x1a7c(%rbp)
    8f3a:	c6 85 85 e5 ff ff 91 	movb   $0x91,-0x1a7b(%rbp)
    8f41:	c6 85 86 e5 ff ff b7 	movb   $0xb7,-0x1a7a(%rbp)
    8f48:	c6 85 87 e5 ff ff 00 	movb   $0x0,-0x1a79(%rbp)
    8f4f:	c6 85 88 e5 ff ff 01 	movb   $0x1,-0x1a78(%rbp)
    8f56:	c6 85 89 e5 ff ff b8 	movb   $0xb8,-0x1a77(%rbp)
    8f5d:	c6 85 8a e5 ff ff 03 	movb   $0x3,-0x1a76(%rbp)
    8f64:	c6 85 8b e5 ff ff b4 	movb   $0xb4,-0x1a75(%rbp)
    8f6b:	c6 85 8c e5 ff ff 04 	movb   $0x4,-0x1a74(%rbp)
    8f72:	c6 85 8d e5 ff ff 4d 	movb   $0x4d,-0x1a73(%rbp)
    8f79:	c6 85 8e e5 ff ff 26 	movb   $0x26,-0x1a72(%rbp)
    8f80:	c6 85 8f e5 ff ff 48 	movb   $0x48,-0x1a71(%rbp)
    8f87:	c6 85 90 e5 ff ff 28 	movb   $0x28,-0x1a70(%rbp)
    8f8e:	c6 85 91 e5 ff ff 00 	movb   $0x0,-0x1a6f(%rbp)
    8f95:	c6 85 92 e5 ff ff 00 	movb   $0x0,-0x1a6e(%rbp)
    8f9c:	c6 85 93 e5 ff ff 48 	movb   $0x48,-0x1a6d(%rbp)
    8fa3:	c6 85 94 e5 ff ff f9 	movb   $0xf9,-0x1a6c(%rbp)
    8faa:	c6 85 95 e5 ff ff fb 	movb   $0xfb,-0x1a6b(%rbp)
    8fb1:	c6 85 96 e5 ff ff 01 	movb   $0x1,-0x1a6a(%rbp)
    8fb8:	c6 85 97 e5 ff ff 01 	movb   $0x1,-0x1a69(%rbp)
    8fbf:	c6 85 98 e5 ff ff 3d 	movb   $0x3d,-0x1a68(%rbp)
    8fc6:	c6 85 99 e5 ff ff 03 	movb   $0x3,-0x1a67(%rbp)
    8fcd:	c6 85 9a e5 ff ff da 	movb   $0xda,-0x1a66(%rbp)
    8fd4:	c6 85 9b e5 ff ff 26 	movb   $0x26,-0x1a65(%rbp)
    8fdb:	c6 85 9c e5 ff ff 00 	movb   $0x0,-0x1a64(%rbp)
    8fe2:	c6 85 9d e5 ff ff 00 	movb   $0x0,-0x1a63(%rbp)
    8fe9:	c6 85 9e e5 ff ff 07 	movb   $0x7,-0x1a62(%rbp)
    8ff0:	c6 85 9f e5 ff ff 00 	movb   $0x0,-0x1a61(%rbp)
    8ff7:	c6 85 a0 e5 ff ff b7 	movb   $0xb7,-0x1a60(%rbp)
    8ffe:	c6 85 a1 e5 ff ff 00 	movb   $0x0,-0x1a5f(%rbp)
    9005:	c6 85 a2 e5 ff ff 04 	movb   $0x4,-0x1a5e(%rbp)
    900c:	c6 85 a3 e5 ff ff b7 	movb   $0xb7,-0x1a5d(%rbp)
    9013:	c6 85 a4 e5 ff ff 55 	movb   $0x55,-0x1a5c(%rbp)
    901a:	c6 85 a5 e5 ff ff 03 	movb   $0x3,-0x1a5b(%rbp)
    9021:	c6 85 a6 e5 ff ff 00 	movb   $0x0,-0x1a5a(%rbp)
    9028:	c6 85 a7 e5 ff ff 03 	movb   $0x3,-0x1a59(%rbp)
    902f:	c6 85 a8 e5 ff ff 55 	movb   $0x55,-0x1a58(%rbp)
    9036:	c6 85 a9 e5 ff ff b7 	movb   $0xb7,-0x1a57(%rbp)
    903d:	c6 85 aa e5 ff ff 04 	movb   $0x4,-0x1a56(%rbp)
    9044:	c6 85 ab e5 ff ff 00 	movb   $0x0,-0x1a55(%rbp)
    904b:	c6 85 ac e5 ff ff b7 	movb   $0xb7,-0x1a54(%rbp)
    9052:	c6 85 ad e5 ff ff 00 	movb   $0x0,-0x1a53(%rbp)
    9059:	c6 85 ae e5 ff ff 07 	movb   $0x7,-0x1a52(%rbp)
    9060:	c6 85 af e5 ff ff 00 	movb   $0x0,-0x1a51(%rbp)
    9067:	c6 85 b0 e5 ff ff 00 	movb   $0x0,-0x1a50(%rbp)
    906e:	c6 85 b1 e5 ff ff 26 	movb   $0x26,-0x1a4f(%rbp)
    9075:	c6 85 b2 e5 ff ff da 	movb   $0xda,-0x1a4e(%rbp)
    907c:	c6 85 b3 e5 ff ff 03 	movb   $0x3,-0x1a4d(%rbp)
    9083:	c6 85 b4 e5 ff ff 3d 	movb   $0x3d,-0x1a4c(%rbp)
    908a:	c6 85 b5 e5 ff ff 01 	movb   $0x1,-0x1a4b(%rbp)
    9091:	c6 85 b6 e5 ff ff 01 	movb   $0x1,-0x1a4a(%rbp)
    9098:	c6 85 b7 e5 ff ff fb 	movb   $0xfb,-0x1a49(%rbp)
    909f:	c6 85 b8 e5 ff ff f9 	movb   $0xf9,-0x1a48(%rbp)
    90a6:	c6 85 b9 e5 ff ff 48 	movb   $0x48,-0x1a47(%rbp)
    90ad:	c6 85 ba e5 ff ff 00 	movb   $0x0,-0x1a46(%rbp)
    90b4:	c6 85 bb e5 ff ff 00 	movb   $0x0,-0x1a45(%rbp)
    90bb:	c6 85 bc e5 ff ff 48 	movb   $0x48,-0x1a44(%rbp)
    90c2:	c6 85 bd e5 ff ff f9 	movb   $0xf9,-0x1a43(%rbp)
    90c9:	c6 85 be e5 ff ff fb 	movb   $0xfb,-0x1a42(%rbp)
    90d0:	c6 85 bf e5 ff ff 01 	movb   $0x1,-0x1a41(%rbp)
    90d7:	c6 85 c0 e5 ff ff 01 	movb   $0x1,-0x1a40(%rbp)
    90de:	c6 85 c1 e5 ff ff 3d 	movb   $0x3d,-0x1a3f(%rbp)
    90e5:	c6 85 c2 e5 ff ff 03 	movb   $0x3,-0x1a3e(%rbp)
    90ec:	c6 85 c3 e5 ff ff da 	movb   $0xda,-0x1a3d(%rbp)
    90f3:	c6 85 c4 e5 ff ff 26 	movb   $0x26,-0x1a3c(%rbp)
    90fa:	c6 85 c5 e5 ff ff 00 	movb   $0x0,-0x1a3b(%rbp)
    9101:	c6 85 c6 e5 ff ff 00 	movb   $0x0,-0x1a3a(%rbp)
    9108:	c6 85 c7 e5 ff ff 07 	movb   $0x7,-0x1a39(%rbp)
    910f:	c6 85 c8 e5 ff ff 00 	movb   $0x0,-0x1a38(%rbp)
    9116:	c6 85 c9 e5 ff ff b7 	movb   $0xb7,-0x1a37(%rbp)
    911d:	c6 85 ca e5 ff ff 00 	movb   $0x0,-0x1a36(%rbp)
    9124:	c6 85 cb e5 ff ff 04 	movb   $0x4,-0x1a35(%rbp)
    912b:	c6 85 cc e5 ff ff b7 	movb   $0xb7,-0x1a34(%rbp)
    9132:	c6 85 cd e5 ff ff 55 	movb   $0x55,-0x1a33(%rbp)
    9139:	c6 85 ce e5 ff ff 03 	movb   $0x3,-0x1a32(%rbp)
    9140:	c6 85 cf e5 ff ff 00 	movb   $0x0,-0x1a31(%rbp)
    9147:	c6 85 d0 e5 ff ff 03 	movb   $0x3,-0x1a30(%rbp)
    914e:	c6 85 d1 e5 ff ff 55 	movb   $0x55,-0x1a2f(%rbp)
    9155:	c6 85 d2 e5 ff ff b7 	movb   $0xb7,-0x1a2e(%rbp)
    915c:	c6 85 d3 e5 ff ff 04 	movb   $0x4,-0x1a2d(%rbp)
    9163:	c6 85 d4 e5 ff ff 00 	movb   $0x0,-0x1a2c(%rbp)
    916a:	c6 85 d5 e5 ff ff b7 	movb   $0xb7,-0x1a2b(%rbp)
    9171:	c6 85 d6 e5 ff ff 00 	movb   $0x0,-0x1a2a(%rbp)
    9178:	c6 85 d7 e5 ff ff 07 	movb   $0x7,-0x1a29(%rbp)
    917f:	c6 85 d8 e5 ff ff 00 	movb   $0x0,-0x1a28(%rbp)
    9186:	c6 85 d9 e5 ff ff 00 	movb   $0x0,-0x1a27(%rbp)
    918d:	48 b8 c0 eb 73 bd 2e 	movabs $0x7e120c2ebd73ebc0,%rax
    9194:	0c 12 7e 
    9197:	48 89 85 a0 e1 ff ff 	mov    %rax,-0x1e60(%rbp)
    919e:	48 c7 85 a8 e1 ff ff 	movq   $0x0,-0x1e58(%rbp)
    91a5:	00 00 00 00 
    91a9:	c7 85 38 e0 ff ff 00 	movl   $0x0,-0x1fc8(%rbp)
    91b0:	00 00 00 
    91b3:	c6 85 6c df ff ff 7c 	movb   $0x7c,-0x2094(%rbp)
    91ba:	c7 85 b4 df ff ff 00 	movl   $0x0,-0x204c(%rbp)
    91c1:	00 00 00 
    91c4:	eb 1e                	jmp    91e4 <func_14+0x13d0>
    91c6:	8b 85 b4 df ff ff    	mov    -0x204c(%rbp),%eax
    91cc:	48 98                	cltq   
    91ce:	48 8d 15 b3 94 01 00 	lea    0x194b3(%rip),%rdx        # 22688 <g_494>
    91d5:	48 89 94 c5 60 e4 ff 	mov    %rdx,-0x1ba0(%rbp,%rax,8)
    91dc:	ff 
    91dd:	83 85 b4 df ff ff 01 	addl   $0x1,-0x204c(%rbp)
    91e4:	83 bd b4 df ff ff 03 	cmpl   $0x3,-0x204c(%rbp)
    91eb:	7e d9                	jle    91c6 <func_14+0x13b2>
    91ed:	c7 85 b4 df ff ff 00 	movl   $0x0,-0x204c(%rbp)
    91f4:	00 00 00 
    91f7:	eb 1b                	jmp    9214 <func_14+0x1400>
    91f9:	8b 85 b4 df ff ff    	mov    -0x204c(%rbp),%eax
    91ff:	48 98                	cltq   
    9201:	48 c7 84 c5 d0 e3 ff 	movq   $0x8,-0x1c30(%rbp,%rax,8)
    9208:	ff 08 00 00 00 
    920d:	83 85 b4 df ff ff 01 	addl   $0x1,-0x204c(%rbp)
    9214:	83 bd b4 df ff ff 01 	cmpl   $0x1,-0x204c(%rbp)
    921b:	7e dc                	jle    91f9 <func_14+0x13e5>
    921d:	c6 05 5a 69 01 00 00 	movb   $0x0,0x1695a(%rip)        # 1fb7e <g_1659>
    9224:	e9 35 05 00 00       	jmpq   975e <func_14+0x194a>
    9229:	48 8d 05 80 50 01 00 	lea    0x15080(%rip),%rax        # 1e2b0 <g_86>
    9230:	48 89 85 68 e3 ff ff 	mov    %rax,-0x1c98(%rbp)
    9237:	48 8d 05 9e 51 01 00 	lea    0x1519e(%rip),%rax        # 1e3dc <g_687>
    923e:	48 89 85 70 e3 ff ff 	mov    %rax,-0x1c90(%rbp)
    9245:	48 8d 05 30 94 01 00 	lea    0x19430(%rip),%rax        # 2267c <g_293+0x4>
    924c:	48 89 85 78 e3 ff ff 	mov    %rax,-0x1c88(%rbp)
    9253:	c7 85 b8 df ff ff 5e 	movl   $0x690a235e,-0x2048(%rbp)
    925a:	23 0a 69 
    925d:	81 bd 5c df ff ff ff 	cmpl   $0xffff,-0x20a4(%rbp)
    9264:	ff 00 00 
    9267:	0f 97 c2             	seta   %dl
    926a:	48 8b 05 5f 8c 01 00 	mov    0x18c5f(%rip),%rax        # 21ed0 <g_313>
    9271:	0f b6 d2             	movzbl %dl,%edx
    9274:	89 10                	mov    %edx,(%rax)
    9276:	8b 00                	mov    (%rax),%eax
    9278:	66 89 85 74 df ff ff 	mov    %ax,-0x208c(%rbp)
    927f:	48 8b 1d a2 8c 01 00 	mov    0x18ca2(%rip),%rbx        # 21f28 <g_361>
    9286:	48 8b 85 68 e3 ff ff 	mov    -0x1c98(%rbp),%rax
    928d:	48 89 c7             	mov    %rax,%rdi
    9290:	e8 0d 64 00 00       	callq  f6a2 <func_55>
    9295:	48 89 03             	mov    %rax,(%rbx)
    9298:	48 8b 05 11 8f 01 00 	mov    0x18f11(%rip),%rax        # 221b0 <g_1856>
    929f:	48 8b 13             	mov    (%rbx),%rdx
    92a2:	48 89 10             	mov    %rdx,(%rax)
    92a5:	c6 05 00 4e 01 00 00 	movb   $0x0,0x14e00(%rip)        # 1e0ac <g_28>
    92ac:	e9 8b 04 00 00       	jmpq   973c <func_14+0x1928>
    92b1:	48 8d 05 4e 59 01 00 	lea    0x1594e(%rip),%rax        # 1ec06 <g_1242>
    92b8:	48 89 85 70 eb ff ff 	mov    %rax,-0x1490(%rbp)
    92bf:	48 8d 05 40 59 01 00 	lea    0x15940(%rip),%rax        # 1ec06 <g_1242>
    92c6:	48 89 85 78 eb ff ff 	mov    %rax,-0x1488(%rbp)
    92cd:	48 8d 05 94 93 01 00 	lea    0x19394(%rip),%rax        # 22668 <g_75>
    92d4:	48 89 85 80 eb ff ff 	mov    %rax,-0x1480(%rbp)
    92db:	48 8d 05 2a 59 01 00 	lea    0x1592a(%rip),%rax        # 1ec0c <g_1267>
    92e2:	48 89 85 88 eb ff ff 	mov    %rax,-0x1478(%rbp)
    92e9:	48 8d 05 1e 59 01 00 	lea    0x1591e(%rip),%rax        # 1ec0e <g_1267+0x2>
    92f0:	48 89 85 90 eb ff ff 	mov    %rax,-0x1470(%rbp)
    92f7:	48 8d 05 b0 4d 01 00 	lea    0x14db0(%rip),%rax        # 1e0ae <g_34>
    92fe:	48 89 85 98 eb ff ff 	mov    %rax,-0x1468(%rbp)
    9305:	48 8d 05 02 59 01 00 	lea    0x15902(%rip),%rax        # 1ec0e <g_1267+0x2>
    930c:	48 89 85 a0 eb ff ff 	mov    %rax,-0x1460(%rbp)
    9313:	48 8d 05 4e 93 01 00 	lea    0x1934e(%rip),%rax        # 22668 <g_75>
    931a:	48 89 85 a8 eb ff ff 	mov    %rax,-0x1458(%rbp)
    9321:	48 8d 05 e6 58 01 00 	lea    0x158e6(%rip),%rax        # 1ec0e <g_1267+0x2>
    9328:	48 89 85 b0 eb ff ff 	mov    %rax,-0x1450(%rbp)
    932f:	48 8d 05 32 93 01 00 	lea    0x19332(%rip),%rax        # 22668 <g_75>
    9336:	48 89 85 b8 eb ff ff 	mov    %rax,-0x1448(%rbp)
    933d:	48 8d 05 24 93 01 00 	lea    0x19324(%rip),%rax        # 22668 <g_75>
    9344:	48 89 85 c0 eb ff ff 	mov    %rax,-0x1440(%rbp)
    934b:	48 8d 05 bc 58 01 00 	lea    0x158bc(%rip),%rax        # 1ec0e <g_1267+0x2>
    9352:	48 89 85 c8 eb ff ff 	mov    %rax,-0x1438(%rbp)
    9359:	48 8d 05 a6 58 01 00 	lea    0x158a6(%rip),%rax        # 1ec06 <g_1242>
    9360:	48 89 85 d0 eb ff ff 	mov    %rax,-0x1430(%rbp)
    9367:	48 8d 05 fa 92 01 00 	lea    0x192fa(%rip),%rax        # 22668 <g_75>
    936e:	48 89 85 d8 eb ff ff 	mov    %rax,-0x1428(%rbp)
    9375:	48 8d 05 90 58 01 00 	lea    0x15890(%rip),%rax        # 1ec0c <g_1267>
    937c:	48 89 85 e0 eb ff ff 	mov    %rax,-0x1420(%rbp)
    9383:	48 8d 05 de 92 01 00 	lea    0x192de(%rip),%rax        # 22668 <g_75>
    938a:	48 89 85 e8 eb ff ff 	mov    %rax,-0x1418(%rbp)
    9391:	48 8d 05 28 93 01 00 	lea    0x19328(%rip),%rax        # 226c0 <g_1427>
    9398:	48 89 85 80 e3 ff ff 	mov    %rax,-0x1c80(%rbp)
    939f:	48 c7 85 88 e3 ff ff 	movq   $0x0,-0x1c78(%rbp)
    93a6:	00 00 00 00 
    93aa:	c7 85 dc e0 ff ff 06 	movl   $0x8f78e806,-0x1f24(%rbp)
    93b1:	e8 78 8f 
    93b4:	48 c7 85 90 e3 ff ff 	movq   $0x0,-0x1c70(%rbp)
    93bb:	00 00 00 00 
    93bf:	48 8d 05 fa 4c 01 00 	lea    0x14cfa(%rip),%rax        # 1e0c0 <g_67>
    93c6:	48 89 85 98 e3 ff ff 	mov    %rax,-0x1c68(%rbp)
    93cd:	48 8d 05 cc 4c 01 00 	lea    0x14ccc(%rip),%rax        # 1e0a0 <g_4+0x10>
    93d4:	48 89 85 d0 f7 ff ff 	mov    %rax,-0x830(%rbp)
    93db:	48 8d 05 c2 4c 01 00 	lea    0x14cc2(%rip),%rax        # 1e0a4 <g_4+0x14>
    93e2:	48 89 85 d8 f7 ff ff 	mov    %rax,-0x828(%rbp)
    93e9:	48 8d 05 b0 4c 01 00 	lea    0x14cb0(%rip),%rax        # 1e0a0 <g_4+0x10>
    93f0:	48 89 85 e0 f7 ff ff 	mov    %rax,-0x820(%rbp)
    93f7:	48 8d 05 a2 4c 01 00 	lea    0x14ca2(%rip),%rax        # 1e0a0 <g_4+0x10>
    93fe:	48 89 85 e8 f7 ff ff 	mov    %rax,-0x818(%rbp)
    9405:	48 8d 05 d4 4f 01 00 	lea    0x14fd4(%rip),%rax        # 1e3e0 <g_701>
    940c:	48 89 85 f0 f7 ff ff 	mov    %rax,-0x810(%rbp)
    9413:	48 8d 05 86 4c 01 00 	lea    0x14c86(%rip),%rax        # 1e0a0 <g_4+0x10>
    941a:	48 89 85 f8 f7 ff ff 	mov    %rax,-0x808(%rbp)
    9421:	48 8d 05 78 4c 01 00 	lea    0x14c78(%rip),%rax        # 1e0a0 <g_4+0x10>
    9428:	48 89 85 00 f8 ff ff 	mov    %rax,-0x800(%rbp)
    942f:	48 8d 05 6e 4c 01 00 	lea    0x14c6e(%rip),%rax        # 1e0a4 <g_4+0x14>
    9436:	48 89 85 08 f8 ff ff 	mov    %rax,-0x7f8(%rbp)
    943d:	48 8d 05 5c 4c 01 00 	lea    0x14c5c(%rip),%rax        # 1e0a0 <g_4+0x10>
    9444:	48 89 85 10 f8 ff ff 	mov    %rax,-0x7f0(%rbp)
    944b:	48 8d 05 4e 4c 01 00 	lea    0x14c4e(%rip),%rax        # 1e0a0 <g_4+0x10>
    9452:	48 89 85 18 f8 ff ff 	mov    %rax,-0x7e8(%rbp)
    9459:	48 8d 05 80 4f 01 00 	lea    0x14f80(%rip),%rax        # 1e3e0 <g_701>
    9460:	48 89 85 20 f8 ff ff 	mov    %rax,-0x7e0(%rbp)
    9467:	48 8d 05 32 4c 01 00 	lea    0x14c32(%rip),%rax        # 1e0a0 <g_4+0x10>
    946e:	48 89 85 28 f8 ff ff 	mov    %rax,-0x7d8(%rbp)
    9475:	48 8d 05 24 4c 01 00 	lea    0x14c24(%rip),%rax        # 1e0a0 <g_4+0x10>
    947c:	48 89 85 30 f8 ff ff 	mov    %rax,-0x7d0(%rbp)
    9483:	48 8d 05 1a 4c 01 00 	lea    0x14c1a(%rip),%rax        # 1e0a4 <g_4+0x14>
    948a:	48 89 85 38 f8 ff ff 	mov    %rax,-0x7c8(%rbp)
    9491:	48 8d 05 08 4c 01 00 	lea    0x14c08(%rip),%rax        # 1e0a0 <g_4+0x10>
    9498:	48 89 85 40 f8 ff ff 	mov    %rax,-0x7c0(%rbp)
    949f:	48 8d 05 fa 4b 01 00 	lea    0x14bfa(%rip),%rax        # 1e0a0 <g_4+0x10>
    94a6:	48 89 85 48 f8 ff ff 	mov    %rax,-0x7b8(%rbp)
    94ad:	48 8d 05 2c 4f 01 00 	lea    0x14f2c(%rip),%rax        # 1e3e0 <g_701>
    94b4:	48 89 85 50 f8 ff ff 	mov    %rax,-0x7b0(%rbp)
    94bb:	48 8d 05 de 4b 01 00 	lea    0x14bde(%rip),%rax        # 1e0a0 <g_4+0x10>
    94c2:	48 89 85 58 f8 ff ff 	mov    %rax,-0x7a8(%rbp)
    94c9:	48 8d 05 d0 4b 01 00 	lea    0x14bd0(%rip),%rax        # 1e0a0 <g_4+0x10>
    94d0:	48 89 85 60 f8 ff ff 	mov    %rax,-0x7a0(%rbp)
    94d7:	48 8d 05 c6 4b 01 00 	lea    0x14bc6(%rip),%rax        # 1e0a4 <g_4+0x14>
    94de:	48 89 85 68 f8 ff ff 	mov    %rax,-0x798(%rbp)
    94e5:	48 8d 05 b4 4b 01 00 	lea    0x14bb4(%rip),%rax        # 1e0a0 <g_4+0x10>
    94ec:	48 89 85 70 f8 ff ff 	mov    %rax,-0x790(%rbp)
    94f3:	48 8d 05 a6 4b 01 00 	lea    0x14ba6(%rip),%rax        # 1e0a0 <g_4+0x10>
    94fa:	48 89 85 78 f8 ff ff 	mov    %rax,-0x788(%rbp)
    9501:	48 8d 05 d8 4e 01 00 	lea    0x14ed8(%rip),%rax        # 1e3e0 <g_701>
    9508:	48 89 85 80 f8 ff ff 	mov    %rax,-0x780(%rbp)
    950f:	48 8d 05 8a 4b 01 00 	lea    0x14b8a(%rip),%rax        # 1e0a0 <g_4+0x10>
    9516:	48 89 85 88 f8 ff ff 	mov    %rax,-0x778(%rbp)
    951d:	c7 85 bc df ff ff 00 	movl   $0x0,-0x2044(%rbp)
    9524:	00 00 00 
    9527:	eb 1e                	jmp    9547 <func_14+0x1733>
    9529:	8b 85 bc df ff ff    	mov    -0x2044(%rbp),%eax
    952f:	48 98                	cltq   
    9531:	48 8d 15 43 91 01 00 	lea    0x19143(%rip),%rdx        # 2267b <g_293+0x3>
    9538:	48 89 94 c5 e0 e8 ff 	mov    %rdx,-0x1720(%rbp,%rax,8)
    953f:	ff 
    9540:	83 85 bc df ff ff 01 	addl   $0x1,-0x2044(%rbp)
    9547:	83 bd bc df ff ff 03 	cmpl   $0x3,-0x2044(%rbp)
    954e:	7e d9                	jle    9529 <func_14+0x1715>
    9550:	c7 85 bc df ff ff 00 	movl   $0x0,-0x2044(%rbp)
    9557:	00 00 00 
    955a:	eb 51                	jmp    95ad <func_14+0x1799>
    955c:	c7 85 c0 df ff ff 00 	movl   $0x0,-0x2040(%rbp)
    9563:	00 00 00 
    9566:	eb 35                	jmp    959d <func_14+0x1789>
    9568:	8b 85 c0 df ff ff    	mov    -0x2040(%rbp),%eax
    956e:	48 63 c8             	movslq %eax,%rcx
    9571:	8b 85 bc df ff ff    	mov    -0x2044(%rbp),%eax
    9577:	48 63 d0             	movslq %eax,%rdx
    957a:	48 89 d0             	mov    %rdx,%rax
    957d:	48 01 c0             	add    %rax,%rax
    9580:	48 01 d0             	add    %rdx,%rax
    9583:	48 8d 14 08          	lea    (%rax,%rcx,1),%rdx
    9587:	48 8d 85 e0 e8 ff ff 	lea    -0x1720(%rbp),%rax
    958e:	48 89 84 d5 e0 e7 ff 	mov    %rax,-0x1820(%rbp,%rdx,8)
    9595:	ff 
    9596:	83 85 c0 df ff ff 01 	addl   $0x1,-0x2040(%rbp)
    959d:	83 bd c0 df ff ff 02 	cmpl   $0x2,-0x2040(%rbp)
    95a4:	7e c2                	jle    9568 <func_14+0x1754>
    95a6:	83 85 bc df ff ff 01 	addl   $0x1,-0x2044(%rbp)
    95ad:	83 bd bc df ff ff 00 	cmpl   $0x0,-0x2044(%rbp)
    95b4:	7e a6                	jle    955c <func_14+0x1748>
    95b6:	0f b7 85 74 df ff ff 	movzwl -0x208c(%rbp),%eax
    95bd:	66 85 c0             	test   %ax,%ax
    95c0:	0f 85 87 01 00 00    	jne    974d <func_14+0x1939>
    95c6:	0f b7 85 76 df ff ff 	movzwl -0x208a(%rbp),%eax
    95cd:	0f bf d8             	movswl %ax,%ebx
    95d0:	48 8b 85 e0 e0 ff ff 	mov    -0x1f20(%rbp),%rax
    95d7:	44 0f be e0          	movsbl %al,%r12d
    95db:	48 8b 85 60 e1 ff ff 	mov    -0x1ea0(%rbp),%rax
    95e2:	48 89 85 40 e4 ff ff 	mov    %rax,-0x1bc0(%rbp)
    95e9:	48 8b 85 40 e4 ff ff 	mov    -0x1bc0(%rbp),%rax
    95f0:	48 89 85 70 e3 ff ff 	mov    %rax,-0x1c90(%rbp)
    95f7:	48 8b 85 70 e3 ff ff 	mov    -0x1c90(%rbp),%rax
    95fe:	48 3b 85 78 e3 ff ff 	cmp    -0x1c88(%rbp),%rax
    9605:	41 0f 95 c5          	setne  %r13b
    9609:	48 8b 05 a0 65 01 00 	mov    0x165a0(%rip),%rax        # 1fbb0 <g_1841+0x10>
    9610:	48 c1 e0 12          	shl    $0x12,%rax
    9614:	48 c1 f8 30          	sar    $0x30,%rax
    9618:	0f bf d0             	movswl %ax,%edx
    961b:	48 8b 85 68 e3 ff ff 	mov    -0x1c98(%rbp),%rax
    9622:	8b 00                	mov    (%rax),%eax
    9624:	39 85 5c df ff ff    	cmp    %eax,-0x20a4(%rbp)
    962a:	0f 97 c0             	seta   %al
    962d:	0f b6 c8             	movzbl %al,%ecx
    9630:	48 8b 85 68 e3 ff ff 	mov    -0x1c98(%rbp),%rax
    9637:	89 08                	mov    %ecx,(%rax)
    9639:	48 8b 85 68 e3 ff ff 	mov    -0x1c98(%rbp),%rax
    9640:	8b 00                	mov    (%rax),%eax
    9642:	89 c1                	mov    %eax,%ecx
    9644:	48 8b 85 80 e3 ff ff 	mov    -0x1c80(%rbp),%rax
    964b:	88 08                	mov    %cl,(%rax)
    964d:	48 8b 05 bc 89 01 00 	mov    0x189bc(%rip),%rax        # 22010 <g_1802>
    9654:	8b 8d 5c df ff ff    	mov    -0x20a4(%rbp),%ecx
    965a:	48 89 08             	mov    %rcx,(%rax)
    965d:	8b 85 5c df ff ff    	mov    -0x20a4(%rbp),%eax
    9663:	89 85 dc e0 ff ff    	mov    %eax,-0x1f24(%rbp)
    9669:	c7 85 84 df ff ff 00 	movl   $0x0,-0x207c(%rbp)
    9670:	00 00 00 
    9673:	8b 85 84 df ff ff    	mov    -0x207c(%rbp),%eax
    9679:	66 89 05 e8 8f 01 00 	mov    %ax,0x18fe8(%rip)        # 22668 <g_75>
    9680:	0f b7 05 e1 8f 01 00 	movzwl 0x18fe1(%rip),%eax        # 22668 <g_75>
    9687:	0f b7 c0             	movzwl %ax,%eax
    968a:	89 d6                	mov    %edx,%esi
    968c:	89 c7                	mov    %eax,%edi
    968e:	e8 2b d7 ff ff       	callq  6dbe <safe_lshift_func_uint16_t_u_s>
    9693:	0f b6 c0             	movzbl %al,%eax
    9696:	be 04 00 00 00       	mov    $0x4,%esi
    969b:	89 c7                	mov    %eax,%edi
    969d:	e8 1c d6 ff ff       	callq  6cbe <safe_rshift_func_uint8_t_u_u>
    96a2:	b8 01 00 00 00       	mov    $0x1,%eax
    96a7:	83 e0 01             	and    $0x1,%eax
    96aa:	44 09 e8             	or     %r13d,%eax
    96ad:	0f b6 c0             	movzbl %al,%eax
    96b0:	44 89 e6             	mov    %r12d,%esi
    96b3:	89 c7                	mov    %eax,%edi
    96b5:	e8 77 cb ff ff       	callq  6231 <safe_mod_func_int8_t_s_s>
    96ba:	0f b7 05 d3 4f 01 00 	movzwl 0x14fd3(%rip),%eax        # 1e694 <g_863>
    96c1:	8d 50 01             	lea    0x1(%rax),%edx
    96c4:	66 89 15 c9 4f 01 00 	mov    %dx,0x14fc9(%rip)        # 1e694 <g_863>
    96cb:	0f b7 d0             	movzwl %ax,%edx
    96ce:	48 8b 85 f0 e7 ff ff 	mov    -0x1810(%rbp),%rax
    96d5:	48 85 c0             	test   %rax,%rax
    96d8:	0f 95 c0             	setne  %al
    96db:	0f b6 c0             	movzbl %al,%eax
    96de:	39 c2                	cmp    %eax,%edx
    96e0:	0f 9d c0             	setge  %al
    96e3:	0f b6 d0             	movzbl %al,%edx
    96e6:	48 8b 85 98 e3 ff ff 	mov    -0x1c68(%rbp),%rax
    96ed:	48 89 10             	mov    %rdx,(%rax)
    96f0:	48 8b 85 98 e3 ff ff 	mov    -0x1c68(%rbp),%rax
    96f7:	48 8b 00             	mov    (%rax),%rax
    96fa:	48 ba 55 3f d3 07 24 	movabs $0x739ebf2407d33f55,%rdx
    9701:	bf 9e 73 
    9704:	48 39 d0             	cmp    %rdx,%rax
    9707:	0f 95 c0             	setne  %al
    970a:	0f b6 c0             	movzbl %al,%eax
    970d:	89 de                	mov    %ebx,%esi
    970f:	89 c7                	mov    %eax,%edi
    9711:	e8 a2 d7 ff ff       	callq  6eb8 <safe_add_func_uint32_t_u_u>
    9716:	0f b6 c0             	movzbl %al,%eax
    9719:	83 e0 05             	and    $0x5,%eax
    971c:	89 c7                	mov    %eax,%edi
    971e:	e8 22 d4 ff ff       	callq  6b45 <safe_unary_minus_func_uint8_t_u>
    9723:	0f b6 c0             	movzbl %al,%eax
    9726:	21 85 b8 df ff ff    	and    %eax,-0x2048(%rbp)
    972c:	0f b6 05 79 49 01 00 	movzbl 0x14979(%rip),%eax        # 1e0ac <g_28>
    9733:	83 c0 01             	add    $0x1,%eax
    9736:	88 05 70 49 01 00    	mov    %al,0x14970(%rip)        # 1e0ac <g_28>
    973c:	0f b6 05 69 49 01 00 	movzbl 0x14969(%rip),%eax        # 1e0ac <g_28>
    9743:	3c 16                	cmp    $0x16,%al
    9745:	0f 86 66 fb ff ff    	jbe    92b1 <func_14+0x149d>
    974b:	eb 01                	jmp    974e <func_14+0x193a>
    974d:	90                   	nop
    974e:	0f b6 05 29 64 01 00 	movzbl 0x16429(%rip),%eax        # 1fb7e <g_1659>
    9755:	83 e8 01             	sub    $0x1,%eax
    9758:	88 05 20 64 01 00    	mov    %al,0x16420(%rip)        # 1fb7e <g_1659>
    975e:	0f b6 05 19 64 01 00 	movzbl 0x16419(%rip),%eax        # 1fb7e <g_1659>
    9765:	3c ff                	cmp    $0xff,%al
    9767:	0f 85 bc fa ff ff    	jne    9229 <func_14+0x1415>
    976d:	48 8b 05 dc 87 01 00 	mov    0x187dc(%rip),%rax        # 21f50 <g_847>
    9774:	48 8b 00             	mov    (%rax),%rax
    9777:	48 39 85 68 e1 ff ff 	cmp    %rax,-0x1e98(%rbp)
    977e:	0f 95 c3             	setne  %bl
    9781:	48 8b 85 e0 e0 ff ff 	mov    -0x1f20(%rbp),%rax
    9788:	98                   	cwtl   
    9789:	be 01 00 00 00       	mov    $0x1,%esi
    978e:	89 c7                	mov    %eax,%edi
    9790:	e8 ce cd ff ff       	callq  6563 <safe_rshift_func_int16_t_s_u>
    9795:	48 0f bf d0          	movswq %ax,%rdx
    9799:	48 8b 05 c0 87 01 00 	mov    0x187c0(%rip),%rax        # 21f60 <g_849>
    97a0:	48 8b 00             	mov    (%rax),%rax
    97a3:	48 8b 00             	mov    (%rax),%rax
    97a6:	8b 00                	mov    (%rax),%eax
    97a8:	89 c0                	mov    %eax,%eax
    97aa:	48 39 c2             	cmp    %rax,%rdx
    97ad:	7e 11                	jle    97c0 <func_14+0x19ac>
    97af:	48 8b 05 ba 87 01 00 	mov    0x187ba(%rip),%rax        # 21f70 <g_984>
    97b6:	48 8b 00             	mov    (%rax),%rax
    97b9:	0f b6 00             	movzbl (%rax),%eax
    97bc:	84 c0                	test   %al,%al
    97be:	74 07                	je     97c7 <func_14+0x19b3>
    97c0:	b8 01 00 00 00       	mov    $0x1,%eax
    97c5:	eb 05                	jmp    97cc <func_14+0x19b8>
    97c7:	b8 00 00 00 00       	mov    $0x0,%eax
    97cc:	83 e0 01             	and    $0x1,%eax
    97cf:	09 d8                	or     %ebx,%eax
    97d1:	0f b6 c0             	movzbl %al,%eax
    97d4:	48 8b 1d ed 86 01 00 	mov    0x186ed(%rip),%rbx        # 21ec8 <g_289>
    97db:	48 89 c6             	mov    %rax,%rsi
    97de:	bf 04 00 00 00       	mov    $0x4,%edi
    97e3:	e8 63 d8 ff ff       	callq  704b <safe_sub_func_uint64_t_u_u>
    97e8:	48 89 03             	mov    %rax,(%rbx)
    97eb:	48 8b 85 e0 e0 ff ff 	mov    -0x1f20(%rbp),%rax
    97f2:	0f be d0             	movsbl %al,%edx
    97f5:	0f b7 85 74 df ff ff 	movzwl -0x208c(%rbp),%eax
    97fc:	0f be c0             	movsbl %al,%eax
    97ff:	89 d6                	mov    %edx,%esi
    9801:	89 c7                	mov    %eax,%edi
    9803:	e8 0a ca ff ff       	callq  6212 <safe_mul_func_int8_t_s_s>
    9808:	0f be c0             	movsbl %al,%eax
    980b:	8b 95 5c df ff ff    	mov    -0x20a4(%rbp),%edx
    9811:	89 d6                	mov    %edx,%esi
    9813:	89 c7                	mov    %eax,%edi
    9815:	e8 0b d7 ff ff       	callq  6f25 <safe_div_func_uint32_t_u_u>
    981a:	8b 95 84 df ff ff    	mov    -0x207c(%rbp),%edx
    9820:	09 d0                	or     %edx,%eax
    9822:	89 85 84 df ff ff    	mov    %eax,-0x207c(%rbp)
    9828:	83 bd 5c df ff ff 00 	cmpl   $0x0,-0x20a4(%rbp)
    982f:	0f 84 94 3c 00 00    	je     d4c9 <func_14+0x56b5>
    9835:	48 8d 05 84 8e 01 00 	lea    0x18e84(%rip),%rax        # 226c0 <g_1427>
    983c:	48 89 85 f0 e1 ff ff 	mov    %rax,-0x1e10(%rbp)
    9843:	c7 85 90 df ff ff 00 	movl   $0x0,-0x2070(%rbp)
    984a:	00 00 00 
    984d:	c7 85 80 e4 ff ff 48 	movl   $0x1fdddb48,-0x1b80(%rbp)
    9854:	db dd 1f 
    9857:	c7 85 84 e4 ff ff 48 	movl   $0x1fdddb48,-0x1b7c(%rbp)
    985e:	db dd 1f 
    9861:	c7 85 88 e4 ff ff 48 	movl   $0x1fdddb48,-0x1b78(%rbp)
    9868:	db dd 1f 
    986b:	c7 85 8c e4 ff ff 48 	movl   $0x1fdddb48,-0x1b74(%rbp)
    9872:	db dd 1f 
    9875:	c7 85 90 e4 ff ff 48 	movl   $0x1fdddb48,-0x1b70(%rbp)
    987c:	db dd 1f 
    987f:	c7 85 94 e4 ff ff 48 	movl   $0x1fdddb48,-0x1b6c(%rbp)
    9886:	db dd 1f 
    9889:	c7 85 98 e4 ff ff 48 	movl   $0x1fdddb48,-0x1b68(%rbp)
    9890:	db dd 1f 
    9893:	c7 85 9c e4 ff ff 48 	movl   $0x1fdddb48,-0x1b64(%rbp)
    989a:	db dd 1f 
    989d:	c7 85 a0 e4 ff ff 48 	movl   $0x1fdddb48,-0x1b60(%rbp)
    98a4:	db dd 1f 
    98a7:	c7 85 50 e0 ff ff d2 	movl   $0x5b7f02d2,-0x1fb0(%rbp)
    98ae:	02 7f 5b 
    98b1:	c7 85 94 df ff ff 2e 	movl   $0x3d217d2e,-0x206c(%rbp)
    98b8:	7d 21 3d 
    98bb:	c7 85 98 df ff ff ff 	movl   $0xffffffff,-0x2068(%rbp)
    98c2:	ff ff ff 
    98c5:	c7 85 c4 df ff ff b2 	movl   $0x803b27b2,-0x203c(%rbp)
    98cc:	27 3b 80 
    98cf:	c7 85 c8 df ff ff ba 	movl   $0x26163ba,-0x2038(%rbp)
    98d6:	63 61 02 
    98d9:	c7 85 cc df ff ff 07 	movl   $0x7,-0x2034(%rbp)
    98e0:	00 00 00 
    98e3:	c7 85 9c df ff ff 10 	movl   $0xd9f61f10,-0x2064(%rbp)
    98ea:	1f f6 d9 
    98ed:	48 8d 85 70 eb ff ff 	lea    -0x1490(%rbp),%rax
    98f4:	48 8d 15 a5 ee 00 00 	lea    0xeea5(%rip),%rdx        # 187a0 <g_764+0x740>
    98fb:	b9 49 00 00 00       	mov    $0x49,%ecx
    9900:	48 89 c7             	mov    %rax,%rdi
    9903:	48 89 d6             	mov    %rdx,%rsi
    9906:	f3 48 a5             	rep movsq %ds:(%rsi),%es:(%rdi)
    9909:	48 89 f2             	mov    %rsi,%rdx
    990c:	48 89 f8             	mov    %rdi,%rax
    990f:	8b 0a                	mov    (%rdx),%ecx
    9911:	89 08                	mov    %ecx,(%rax)
    9913:	48 8d 40 04          	lea    0x4(%rax),%rax
    9917:	48 8d 52 04          	lea    0x4(%rdx),%rdx
    991b:	48 8d 05 8e 86 01 00 	lea    0x1868e(%rip),%rax        # 21fb0 <g_1555>
    9922:	48 89 85 f8 e1 ff ff 	mov    %rax,-0x1e08(%rbp)
    9929:	c7 85 54 e0 ff ff a1 	movl   $0xcb17f9a1,-0x1fac(%rbp)
    9930:	f9 17 cb 
    9933:	48 c7 85 00 e2 ff ff 	movq   $0x1,-0x1e00(%rbp)
    993a:	01 00 00 00 
    993e:	66 c7 85 78 df ff ff 	movw   $0x2,-0x2088(%rbp)
    9945:	02 00 
    9947:	c7 85 58 e0 ff ff 39 	movl   $0x4afdb439,-0x1fa8(%rbp)
    994e:	b4 fd 4a 
    9951:	48 c7 85 08 e2 ff ff 	movq   $0xfffffffffffffff8,-0x1df8(%rbp)
    9958:	f8 ff ff ff 
    995c:	48 8d 85 78 df ff ff 	lea    -0x2088(%rbp),%rax
    9963:	48 89 85 f0 e0 ff ff 	mov    %rax,-0x1f10(%rbp)
    996a:	66 c7 85 7a df ff ff 	movw   $0x914,-0x2086(%rbp)
    9971:	14 09 
    9973:	c7 85 d0 df ff ff 00 	movl   $0x0,-0x2030(%rbp)
    997a:	00 00 00 
    997d:	48 8d 05 14 8d 01 00 	lea    0x18d14(%rip),%rax        # 22698 <g_622>
    9984:	48 89 85 f8 e0 ff ff 	mov    %rax,-0x1f08(%rbp)
    998b:	48 8d 85 f8 e0 ff ff 	lea    -0x1f08(%rbp),%rax
    9992:	48 89 85 00 e1 ff ff 	mov    %rax,-0x1f00(%rbp)
    9999:	48 8d 85 00 e1 ff ff 	lea    -0x1f00(%rbp),%rax
    99a0:	48 89 85 08 e1 ff ff 	mov    %rax,-0x1ef8(%rbp)
    99a7:	48 8d 85 08 e1 ff ff 	lea    -0x1ef8(%rbp),%rax
    99ae:	48 89 85 10 e2 ff ff 	mov    %rax,-0x1df0(%rbp)
    99b5:	48 8d 05 cc 8c 01 00 	lea    0x18ccc(%rip),%rax        # 22688 <g_494>
    99bc:	48 89 85 18 e2 ff ff 	mov    %rax,-0x1de8(%rbp)
    99c3:	c7 85 d4 df ff ff 00 	movl   $0x0,-0x202c(%rbp)
    99ca:	00 00 00 
    99cd:	eb 19                	jmp    99e8 <func_14+0x1bd4>
    99cf:	8b 85 d4 df ff ff    	mov    -0x202c(%rbp),%eax
    99d5:	48 98                	cltq   
    99d7:	66 c7 84 45 a4 e3 ff 	movw   $0xfff7,-0x1c5c(%rbp,%rax,2)
    99de:	ff f7 ff 
    99e1:	83 85 d4 df ff ff 01 	addl   $0x1,-0x202c(%rbp)
    99e8:	83 bd d4 df ff ff 02 	cmpl   $0x2,-0x202c(%rbp)
    99ef:	7e de                	jle    99cf <func_14+0x1bbb>
    99f1:	c7 85 d4 df ff ff 00 	movl   $0x0,-0x202c(%rbp)
    99f8:	00 00 00 
    99fb:	eb 14                	jmp    9a11 <func_14+0x1bfd>
    99fd:	8b 85 d4 df ff ff    	mov    -0x202c(%rbp),%eax
    9a03:	48 98                	cltq   
    9a05:	c6 44 05 b1 d7       	movb   $0xd7,-0x4f(%rbp,%rax,1)
    9a0a:	83 85 d4 df ff ff 01 	addl   $0x1,-0x202c(%rbp)
    9a11:	83 bd d4 df ff ff 05 	cmpl   $0x5,-0x202c(%rbp)
    9a18:	7e e3                	jle    99fd <func_14+0x1be9>
    9a1a:	48 8b 05 9f 4a 01 00 	mov    0x14a9f(%rip),%rax        # 1e4c0 <g_754+0xc0>
    9a21:	48 c1 e0 12          	shl    $0x12,%rax
    9a25:	48 c1 f8 30          	sar    $0x30,%rax
    9a29:	98                   	cwtl   
    9a2a:	8b 95 5c df ff ff    	mov    -0x20a4(%rbp),%edx
    9a30:	89 d6                	mov    %edx,%esi
    9a32:	89 c7                	mov    %eax,%edi
    9a34:	e8 a8 ca ff ff       	callq  64e1 <safe_lshift_func_int16_t_s_u>
    9a39:	0f bf d8             	movswl %ax,%ebx
    9a3c:	8b 95 5c df ff ff    	mov    -0x20a4(%rbp),%edx
    9a42:	8b 85 84 df ff ff    	mov    -0x207c(%rbp),%eax
    9a48:	48 63 c8             	movslq %eax,%rcx
    9a4b:	0f b7 05 16 8c 01 00 	movzwl 0x18c16(%rip),%eax        # 22668 <g_75>
    9a52:	0f b7 c0             	movzwl %ax,%eax
    9a55:	89 85 88 df ff ff    	mov    %eax,-0x2078(%rbp)
    9a5b:	8b 85 88 df ff ff    	mov    -0x2078(%rbp),%eax
    9a61:	48 98                	cltq   
    9a63:	83 e0 74             	and    $0x74,%eax
    9a66:	48 39 c1             	cmp    %rax,%rcx
    9a69:	0f 9f c0             	setg   %al
    9a6c:	0f b6 c0             	movzbl %al,%eax
    9a6f:	48 89 d6             	mov    %rdx,%rsi
    9a72:	48 89 c7             	mov    %rax,%rdi
    9a75:	e8 06 d6 ff ff       	callq  7080 <safe_mod_func_uint64_t_u_u>
    9a7a:	44 0f bf e0          	movswl %ax,%r12d
    9a7e:	48 8b 85 e0 e0 ff ff 	mov    -0x1f20(%rbp),%rax
    9a85:	89 c2                	mov    %eax,%edx
    9a87:	8b 85 5c df ff ff    	mov    -0x20a4(%rbp),%eax
    9a8d:	21 d0                	and    %edx,%eax
    9a8f:	f7 d0                	not    %eax
    9a91:	41 89 c5             	mov    %eax,%r13d
    9a94:	0f b7 85 74 df ff ff 	movzwl -0x208c(%rbp),%eax
    9a9b:	0f be d0             	movsbl %al,%edx
    9a9e:	0f b7 85 a6 e3 ff ff 	movzwl -0x1c5a(%rbp),%eax
    9aa5:	0f be c0             	movsbl %al,%eax
    9aa8:	89 d6                	mov    %edx,%esi
    9aaa:	89 c7                	mov    %eax,%edi
    9aac:	e8 80 c7 ff ff       	callq  6231 <safe_mod_func_int8_t_s_s>
    9ab1:	0f b6 c0             	movzbl %al,%eax
    9ab4:	44 89 ee             	mov    %r13d,%esi
    9ab7:	89 c7                	mov    %eax,%edi
    9ab9:	e8 47 d1 ff ff       	callq  6c05 <safe_lshift_func_uint8_t_u_s>
    9abe:	48 8b 95 f0 e1 ff ff 	mov    -0x1e10(%rbp),%rdx
    9ac5:	0f b6 12             	movzbl (%rdx),%edx
    9ac8:	8d 4a ff             	lea    -0x1(%rdx),%ecx
    9acb:	48 8b 95 f0 e1 ff ff 	mov    -0x1e10(%rbp),%rdx
    9ad2:	88 0a                	mov    %cl,(%rdx)
    9ad4:	48 8b 95 f0 e1 ff ff 	mov    -0x1e10(%rbp),%rdx
    9adb:	0f b6 12             	movzbl (%rdx),%edx
    9ade:	38 d0                	cmp    %dl,%al
    9ae0:	0f 93 c0             	setae  %al
    9ae3:	0f b6 c0             	movzbl %al,%eax
    9ae6:	44 89 e6             	mov    %r12d,%esi
    9ae9:	89 c7                	mov    %eax,%edi
    9aeb:	e8 c3 c8 ff ff       	callq  63b3 <safe_add_func_int16_t_s_s>
    9af0:	98                   	cwtl   
    9af1:	89 de                	mov    %ebx,%esi
    9af3:	89 c7                	mov    %eax,%edi
    9af5:	e8 fb c8 ff ff       	callq  63f5 <safe_mul_func_int16_t_s_s>
    9afa:	98                   	cwtl   
    9afb:	39 85 5c df ff ff    	cmp    %eax,-0x20a4(%rbp)
    9b01:	0f 84 98 17 00 00    	je     b29f <func_14+0x348b>
    9b07:	48 8d 85 a4 e3 ff ff 	lea    -0x1c5c(%rbp),%rax
    9b0e:	48 89 85 80 e2 ff ff 	mov    %rax,-0x1d80(%rbp)
    9b15:	c7 85 a0 df ff ff 9b 	movl   $0xcff3df9b,-0x2060(%rbp)
    9b1c:	df f3 cf 
    9b1f:	c7 85 88 e0 ff ff a1 	movl   $0xba9190a1,-0x1f78(%rbp)
    9b26:	90 91 ba 
    9b29:	c7 85 8c e0 ff ff 7d 	movl   $0xd64efb7d,-0x1f74(%rbp)
    9b30:	fb 4e d6 
    9b33:	c6 85 70 df ff ff 60 	movb   $0x60,-0x2090(%rbp)
    9b3a:	48 8d 05 ef 79 01 00 	lea    0x179ef(%rip),%rax        # 21530 <g_106+0x10>
    9b41:	48 89 85 10 e1 ff ff 	mov    %rax,-0x1ef0(%rbp)
    9b48:	48 8d 85 10 e1 ff ff 	lea    -0x1ef0(%rbp),%rax
    9b4f:	48 89 85 18 e1 ff ff 	mov    %rax,-0x1ee8(%rbp)
    9b56:	48 8d 85 30 e5 ff ff 	lea    -0x1ad0(%rbp),%rax
    9b5d:	48 83 c0 08          	add    $0x8,%rax
    9b61:	48 89 85 88 e2 ff ff 	mov    %rax,-0x1d78(%rbp)
    9b68:	c7 85 d8 df ff ff 00 	movl   $0x0,-0x2028(%rbp)
    9b6f:	00 00 00 
    9b72:	eb 1a                	jmp    9b8e <func_14+0x1d7a>
    9b74:	8b 85 d8 df ff ff    	mov    -0x2028(%rbp),%eax
    9b7a:	48 98                	cltq   
    9b7c:	c7 84 85 e0 e6 ff ff 	movl   $0x7feff3f3,-0x1920(%rbp,%rax,4)
    9b83:	f3 f3 ef 7f 
    9b87:	83 85 d8 df ff ff 01 	addl   $0x1,-0x2028(%rbp)
    9b8e:	83 bd d8 df ff ff 08 	cmpl   $0x8,-0x2028(%rbp)
    9b95:	7e dd                	jle    9b74 <func_14+0x1d60>
    9b97:	c7 85 d8 df ff ff 00 	movl   $0x0,-0x2028(%rbp)
    9b9e:	00 00 00 
    9ba1:	eb 1e                	jmp    9bc1 <func_14+0x1dad>
    9ba3:	8b 85 d8 df ff ff    	mov    -0x2028(%rbp),%eax
    9ba9:	48 98                	cltq   
    9bab:	48 8d 95 18 e1 ff ff 	lea    -0x1ee8(%rbp),%rdx
    9bb2:	48 89 94 c5 30 e5 ff 	mov    %rdx,-0x1ad0(%rbp,%rax,8)
    9bb9:	ff 
    9bba:	83 85 d8 df ff ff 01 	addl   $0x1,-0x2028(%rbp)
    9bc1:	83 bd d8 df ff ff 02 	cmpl   $0x2,-0x2028(%rbp)
    9bc8:	7e d9                	jle    9ba3 <func_14+0x1d8f>
    9bca:	c7 85 d8 df ff ff 00 	movl   $0x0,-0x2028(%rbp)
    9bd1:	00 00 00 
    9bd4:	eb 1b                	jmp    9bf1 <func_14+0x1ddd>
    9bd6:	8b 85 d8 df ff ff    	mov    -0x2028(%rbp),%eax
    9bdc:	48 98                	cltq   
    9bde:	48 c7 84 c5 e0 e8 ff 	movq   $0xfffffffffffffffb,-0x1720(%rbp,%rax,8)
    9be5:	ff fb ff ff ff 
    9bea:	83 85 d8 df ff ff 01 	addl   $0x1,-0x2028(%rbp)
    9bf1:	83 bd d8 df ff ff 08 	cmpl   $0x8,-0x2028(%rbp)
    9bf8:	7e dc                	jle    9bd6 <func_14+0x1dc2>
    9bfa:	0f b7 85 76 df ff ff 	movzwl -0x208a(%rbp),%eax
    9c01:	0f bf d0             	movswl %ax,%edx
    9c04:	48 8b 05 f5 78 01 00 	mov    0x178f5(%rip),%rax        # 21500 <g_72>
    9c0b:	0f b7 08             	movzwl (%rax),%ecx
    9c0e:	48 8b 85 80 e2 ff ff 	mov    -0x1d80(%rbp),%rax
    9c15:	0f b7 00             	movzwl (%rax),%eax
    9c18:	09 c1                	or     %eax,%ecx
    9c1a:	48 8b 85 80 e2 ff ff 	mov    -0x1d80(%rbp),%rax
    9c21:	66 89 08             	mov    %cx,(%rax)
    9c24:	48 8b 05 95 48 01 00 	mov    0x14895(%rip),%rax        # 1e4c0 <g_754+0xc0>
    9c2b:	48 c1 e8 09          	shr    $0x9,%rax
    9c2f:	83 e0 7f             	and    $0x7f,%eax
    9c32:	0f b6 c0             	movzbl %al,%eax
    9c35:	89 d6                	mov    %edx,%esi
    9c37:	89 c7                	mov    %eax,%edi
    9c39:	e8 c7 cf ff ff       	callq  6c05 <safe_lshift_func_uint8_t_u_s>
    9c3e:	0f b6 c0             	movzbl %al,%eax
    9c41:	48 89 c6             	mov    %rax,%rsi
    9c44:	bf 01 00 00 00       	mov    $0x1,%edi
    9c49:	e8 e0 d3 ff ff       	callq  702e <safe_add_func_uint64_t_u_u>
    9c4e:	89 c2                	mov    %eax,%edx
    9c50:	8b 85 90 df ff ff    	mov    -0x2070(%rbp),%eax
    9c56:	09 d0                	or     %edx,%eax
    9c58:	89 85 90 df ff ff    	mov    %eax,-0x2070(%rbp)
    9c5e:	c7 85 5c df ff ff 00 	movl   $0x0,-0x20a4(%rbp)
    9c65:	00 00 00 
    9c68:	e9 20 16 00 00       	jmpq   b28d <func_14+0x3479>
    9c6d:	66 c7 85 7e df ff ff 	movw   $0x69fc,-0x2082(%rbp)
    9c74:	fc 69 
    9c76:	48 c7 85 20 e1 ff ff 	movq   $0x0,-0x1ee0(%rbp)
    9c7d:	00 00 00 00 
    9c81:	48 8d 05 28 46 01 00 	lea    0x14628(%rip),%rax        # 1e2b0 <g_86>
    9c88:	48 89 85 90 e2 ff ff 	mov    %rax,-0x1d70(%rbp)
    9c8f:	48 8d 85 a0 df ff ff 	lea    -0x2060(%rbp),%rax
    9c96:	48 89 85 28 e1 ff ff 	mov    %rax,-0x1ed8(%rbp)
    9c9d:	48 8d 05 10 46 01 00 	lea    0x14610(%rip),%rax        # 1e2b4 <g_86+0x4>
    9ca4:	48 89 85 98 e2 ff ff 	mov    %rax,-0x1d68(%rbp)
    9cab:	48 8d 05 2e 47 01 00 	lea    0x1472e(%rip),%rax        # 1e3e0 <g_701>
    9cb2:	48 89 85 a0 e2 ff ff 	mov    %rax,-0x1d60(%rbp)
    9cb9:	48 8d 85 90 df ff ff 	lea    -0x2070(%rbp),%rax
    9cc0:	48 89 85 30 e1 ff ff 	mov    %rax,-0x1ed0(%rbp)
    9cc7:	48 8d 85 88 df ff ff 	lea    -0x2078(%rbp),%rax
    9cce:	48 89 85 a8 e2 ff ff 	mov    %rax,-0x1d58(%rbp)
    9cd5:	48 8d 05 d4 45 01 00 	lea    0x145d4(%rip),%rax        # 1e2b0 <g_86>
    9cdc:	48 89 85 b0 e2 ff ff 	mov    %rax,-0x1d50(%rbp)
    9ce3:	48 8d 05 f6 46 01 00 	lea    0x146f6(%rip),%rax        # 1e3e0 <g_701>
    9cea:	48 89 85 38 e1 ff ff 	mov    %rax,-0x1ec8(%rbp)
    9cf1:	48 c7 85 b8 e2 ff ff 	movq   $0x0,-0x1d48(%rbp)
    9cf8:	00 00 00 00 
    9cfc:	48 8d 85 88 df ff ff 	lea    -0x2078(%rbp),%rax
    9d03:	48 89 85 c0 e2 ff ff 	mov    %rax,-0x1d40(%rbp)
    9d0a:	48 8d 85 88 df ff ff 	lea    -0x2078(%rbp),%rax
    9d11:	48 89 85 c8 e2 ff ff 	mov    %rax,-0x1d38(%rbp)
    9d18:	48 c7 85 40 e1 ff ff 	movq   $0x0,-0x1ec0(%rbp)
    9d1f:	00 00 00 00 
    9d23:	48 8d 05 b6 46 01 00 	lea    0x146b6(%rip),%rax        # 1e3e0 <g_701>
    9d2a:	48 89 85 48 e1 ff ff 	mov    %rax,-0x1eb8(%rbp)
    9d31:	48 8d 05 a8 46 01 00 	lea    0x146a8(%rip),%rax        # 1e3e0 <g_701>
    9d38:	48 89 85 d0 e2 ff ff 	mov    %rax,-0x1d30(%rbp)
    9d3f:	48 8d 85 84 df ff ff 	lea    -0x207c(%rbp),%rax
    9d46:	48 89 85 50 e1 ff ff 	mov    %rax,-0x1eb0(%rbp)
    9d4d:	c7 85 90 e0 ff ff fb 	movl   $0xfffffffb,-0x1f70(%rbp)
    9d54:	ff ff ff 
    9d57:	c7 85 94 e0 ff ff cd 	movl   $0xba635ecd,-0x1f6c(%rbp)
    9d5e:	5e 63 ba 
    9d61:	48 8d 85 40 e6 ff ff 	lea    -0x19c0(%rbp),%rax
    9d68:	48 83 c0 08          	add    $0x8,%rax
    9d6c:	48 89 85 d8 e2 ff ff 	mov    %rax,-0x1d28(%rbp)
    9d73:	48 c7 85 e0 e2 ff ff 	movq   $0x0,-0x1d20(%rbp)
    9d7a:	00 00 00 00 
    9d7e:	c7 85 dc df ff ff 00 	movl   $0x0,-0x2024(%rbp)
    9d85:	00 00 00 
    9d88:	eb 1e                	jmp    9da8 <func_14+0x1f94>
    9d8a:	8b 85 dc df ff ff    	mov    -0x2024(%rbp),%eax
    9d90:	48 98                	cltq   
    9d92:	48 8d 15 07 43 01 00 	lea    0x14307(%rip),%rdx        # 1e0a0 <g_4+0x10>
    9d99:	48 89 94 c5 b0 e4 ff 	mov    %rdx,-0x1b50(%rbp,%rax,8)
    9da0:	ff 
    9da1:	83 85 dc df ff ff 01 	addl   $0x1,-0x2024(%rbp)
    9da8:	83 bd dc df ff ff 00 	cmpl   $0x0,-0x2024(%rbp)
    9daf:	7e d9                	jle    9d8a <func_14+0x1f76>
    9db1:	c7 85 dc df ff ff 00 	movl   $0x0,-0x2024(%rbp)
    9db8:	00 00 00 
    9dbb:	eb 1e                	jmp    9ddb <func_14+0x1fc7>
    9dbd:	8b 85 dc df ff ff    	mov    -0x2024(%rbp),%eax
    9dc3:	48 98                	cltq   
    9dc5:	48 8d 15 b4 5d 01 00 	lea    0x15db4(%rip),%rdx        # 1fb80 <g_1715>
    9dcc:	48 89 94 c5 40 e6 ff 	mov    %rdx,-0x19c0(%rbp,%rax,8)
    9dd3:	ff 
    9dd4:	83 85 dc df ff ff 01 	addl   $0x1,-0x2024(%rbp)
    9ddb:	83 bd dc df ff ff 02 	cmpl   $0x2,-0x2024(%rbp)
    9de2:	7e d9                	jle    9dbd <func_14+0x1fa9>
    9de4:	8b 9d 5c df ff ff    	mov    -0x20a4(%rbp),%ebx
    9dea:	8b 85 5c df ff ff    	mov    -0x20a4(%rbp),%eax
    9df0:	44 0f b7 e0          	movzwl %ax,%r12d
    9df4:	44 8b ad 5c df ff ff 	mov    -0x20a4(%rbp),%r13d
    9dfb:	0f b7 85 7e df ff ff 	movzwl -0x2082(%rbp),%eax
    9e02:	89 c6                	mov    %eax,%esi
    9e04:	bf ff 00 00 00       	mov    $0xff,%edi
    9e09:	e8 7f ce ff ff       	callq  6c8d <safe_rshift_func_uint8_t_u_s>
    9e0e:	84 c0                	test   %al,%al
    9e10:	0f 95 c0             	setne  %al
    9e13:	0f b6 c0             	movzbl %al,%eax
    9e16:	4c 89 ee             	mov    %r13,%rsi
    9e19:	48 89 c7             	mov    %rax,%rdi
    9e1c:	e8 d6 cb ff ff       	callq  69f7 <safe_div_func_int64_t_s_s>
    9e21:	8b 85 a0 df ff ff    	mov    -0x2060(%rbp),%eax
    9e27:	0f be d0             	movsbl %al,%edx
    9e2a:	8b 85 a0 df ff ff    	mov    -0x2060(%rbp),%eax
    9e30:	88 05 b1 44 01 00    	mov    %al,0x144b1(%rip)        # 1e2e7 <g_176+0x7>
    9e36:	0f b6 05 aa 44 01 00 	movzbl 0x144aa(%rip),%eax        # 1e2e7 <g_176+0x7>
    9e3d:	0f be c0             	movsbl %al,%eax
    9e40:	89 d6                	mov    %edx,%esi
    9e42:	89 c7                	mov    %eax,%edi
    9e44:	e8 a9 c3 ff ff       	callq  61f2 <safe_sub_func_int8_t_s_s>
    9e49:	0f be d0             	movsbl %al,%edx
    9e4c:	0f b7 85 7e df ff ff 	movzwl -0x2082(%rbp),%eax
    9e53:	31 c2                	xor    %eax,%edx
    9e55:	48 8b 05 74 45 01 00 	mov    0x14574(%rip),%rax        # 1e3d0 <g_438+0x10>
    9e5c:	48 c1 e8 09          	shr    $0x9,%rax
    9e60:	83 e0 7f             	and    $0x7f,%eax
    9e63:	0f b6 c0             	movzbl %al,%eax
    9e66:	89 d6                	mov    %edx,%esi
    9e68:	89 c7                	mov    %eax,%edi
    9e6a:	e8 4f ce ff ff       	callq  6cbe <safe_rshift_func_uint8_t_u_u>
    9e6f:	0f b6 c0             	movzbl %al,%eax
    9e72:	be 05 00 00 00       	mov    $0x5,%esi
    9e77:	89 c7                	mov    %eax,%edi
    9e79:	e8 52 d0 ff ff       	callq  6ed0 <safe_sub_func_uint32_t_u_u>
    9e7e:	89 c2                	mov    %eax,%edx
    9e80:	48 8b 05 41 80 01 00 	mov    0x18041(%rip),%rax        # 21ec8 <g_289>
    9e87:	89 d2                	mov    %edx,%edx
    9e89:	48 89 10             	mov    %rdx,(%rax)
    9e8c:	48 8b 00             	mov    (%rax),%rax
    9e8f:	48 85 c0             	test   %rax,%rax
    9e92:	74 07                	je     9e9b <func_14+0x2087>
    9e94:	83 bd 5c df ff ff 00 	cmpl   $0x0,-0x20a4(%rbp)
    9e9b:	48 83 bd 70 e1 ff ff 	cmpq   $0x0,-0x1e90(%rbp)
    9ea2:	00 
    9ea3:	0f 95 c0             	setne  %al
    9ea6:	44 0f b6 e8          	movzbl %al,%r13d
    9eaa:	8b 85 5c df ff ff    	mov    -0x20a4(%rbp),%eax
    9eb0:	0f be c0             	movsbl %al,%eax
    9eb3:	be 00 00 00 00       	mov    $0x0,%esi
    9eb8:	89 c7                	mov    %eax,%edi
    9eba:	e8 e2 c3 ff ff       	callq  62a1 <safe_lshift_func_int8_t_s_s>
    9ebf:	48 8b 85 f0 e1 ff ff 	mov    -0x1e10(%rbp),%rax
    9ec6:	0f b6 00             	movzbl (%rax),%eax
    9ec9:	8b 95 5c df ff ff    	mov    -0x20a4(%rbp),%edx
    9ecf:	21 c2                	and    %eax,%edx
    9ed1:	48 8b 85 f0 e1 ff ff 	mov    -0x1e10(%rbp),%rax
    9ed8:	88 10                	mov    %dl,(%rax)
    9eda:	48 8b 85 f0 e1 ff ff 	mov    -0x1e10(%rbp),%rax
    9ee1:	0f b6 00             	movzbl (%rax),%eax
    9ee4:	0f b6 d0             	movzbl %al,%edx
    9ee7:	0f b7 85 a8 e3 ff ff 	movzwl -0x1c58(%rbp),%eax
    9eee:	0f b7 c0             	movzwl %ax,%eax
    9ef1:	21 d0                	and    %edx,%eax
    9ef3:	3d 8e 00 00 00       	cmp    $0x8e,%eax
    9ef8:	0f 95 c0             	setne  %al
    9efb:	0f b6 c0             	movzbl %al,%eax
    9efe:	44 89 ee             	mov    %r13d,%esi
    9f01:	89 c7                	mov    %eax,%edi
    9f03:	e8 8b cc ff ff       	callq  6b93 <safe_mul_func_uint8_t_u_u>
    9f08:	0f b6 c0             	movzbl %al,%eax
    9f0b:	39 85 5c df ff ff    	cmp    %eax,-0x20a4(%rbp)
    9f11:	0f 97 c0             	seta   %al
    9f14:	0f b6 c0             	movzbl %al,%eax
    9f17:	44 89 e6             	mov    %r12d,%esi
    9f1a:	89 c7                	mov    %eax,%edi
    9f1c:	e8 1c ce ff ff       	callq  6d3d <safe_mul_func_uint16_t_u_u>
    9f21:	0f b7 c0             	movzwl %ax,%eax
    9f24:	89 de                	mov    %ebx,%esi
    9f26:	89 c7                	mov    %eax,%edi
    9f28:	e8 91 ce ff ff       	callq  6dbe <safe_lshift_func_uint16_t_u_s>
    9f2d:	0f b7 c0             	movzwl %ax,%eax
    9f30:	39 85 5c df ff ff    	cmp    %eax,-0x20a4(%rbp)
    9f36:	0f 96 c0             	setbe  %al
    9f39:	0f b6 c0             	movzbl %al,%eax
    9f3c:	89 85 88 df ff ff    	mov    %eax,-0x2078(%rbp)
    9f42:	0f b7 05 6d 5c 01 00 	movzwl 0x15c6d(%rip),%eax        # 1fbb6 <g_1976>
    9f49:	83 e8 01             	sub    $0x1,%eax
    9f4c:	66 89 05 63 5c 01 00 	mov    %ax,0x15c63(%rip)        # 1fbb6 <g_1976>
    9f53:	c6 05 82 44 01 00 03 	movb   $0x3,0x14482(%rip)        # 1e3dc <g_687>
    9f5a:	e9 69 04 00 00       	jmpq   a3c8 <func_14+0x25b4>
    9f5f:	48 8d 85 20 ea ff ff 	lea    -0x15e0(%rbp),%rax
    9f66:	48 05 08 01 00 00    	add    $0x108,%rax
    9f6c:	48 89 85 f0 e2 ff ff 	mov    %rax,-0x1d10(%rbp)
    9f73:	c6 85 71 df ff ff 31 	movb   $0x31,-0x208f(%rbp)
    9f7a:	c7 85 e0 df ff ff 00 	movl   $0x0,-0x2020(%rbp)
    9f81:	00 00 00 
    9f84:	e9 8a 00 00 00       	jmpq   a013 <func_14+0x21ff>
    9f89:	c7 85 e4 df ff ff 00 	movl   $0x0,-0x201c(%rbp)
    9f90:	00 00 00 
    9f93:	eb 6e                	jmp    a003 <func_14+0x21ef>
    9f95:	c7 85 e8 df ff ff 00 	movl   $0x0,-0x2018(%rbp)
    9f9c:	00 00 00 
    9f9f:	eb 52                	jmp    9ff3 <func_14+0x21df>
    9fa1:	8b 85 e8 df ff ff    	mov    -0x2018(%rbp),%eax
    9fa7:	48 63 f0             	movslq %eax,%rsi
    9faa:	8b 85 e0 df ff ff    	mov    -0x2020(%rbp),%eax
    9fb0:	48 63 d0             	movslq %eax,%rdx
    9fb3:	8b 85 e4 df ff ff    	mov    -0x201c(%rbp),%eax
    9fb9:	48 63 c8             	movslq %eax,%rcx
    9fbc:	48 89 d0             	mov    %rdx,%rax
    9fbf:	48 c1 e0 02          	shl    $0x2,%rax
    9fc3:	48 01 d0             	add    %rdx,%rax
    9fc6:	48 8d 14 85 00 00 00 	lea    0x0(,%rax,4),%rdx
    9fcd:	00 
    9fce:	48 01 d0             	add    %rdx,%rax
    9fd1:	48 89 ca             	mov    %rcx,%rdx
    9fd4:	48 c1 e2 02          	shl    $0x2,%rdx
    9fd8:	48 01 ca             	add    %rcx,%rdx
    9fdb:	48 01 d0             	add    %rdx,%rax
    9fde:	48 01 f0             	add    %rsi,%rax
    9fe1:	c7 84 85 d0 f7 ff ff 	movl   $0x0,-0x830(%rbp,%rax,4)
    9fe8:	00 00 00 00 
    9fec:	83 85 e8 df ff ff 01 	addl   $0x1,-0x2018(%rbp)
    9ff3:	83 bd e8 df ff ff 04 	cmpl   $0x4,-0x2018(%rbp)
    9ffa:	7e a5                	jle    9fa1 <func_14+0x218d>
    9ffc:	83 85 e4 df ff ff 01 	addl   $0x1,-0x201c(%rbp)
    a003:	83 bd e4 df ff ff 04 	cmpl   $0x4,-0x201c(%rbp)
    a00a:	7e 89                	jle    9f95 <func_14+0x2181>
    a00c:	83 85 e0 df ff ff 01 	addl   $0x1,-0x2020(%rbp)
    a013:	83 bd e0 df ff ff 04 	cmpl   $0x4,-0x2020(%rbp)
    a01a:	0f 8e 69 ff ff ff    	jle    9f89 <func_14+0x2175>
    a020:	48 8b 95 b8 ea ff ff 	mov    -0x1548(%rbp),%rdx
    a027:	48 8b 85 f0 e2 ff ff 	mov    -0x1d10(%rbp),%rax
    a02e:	48 89 10             	mov    %rdx,(%rax)
    a031:	48 8b 85 f0 e2 ff ff 	mov    -0x1d10(%rbp),%rax
    a038:	48 8b 00             	mov    (%rax),%rax
    a03b:	48 85 c0             	test   %rax,%rax
    a03e:	0f 94 c0             	sete   %al
    a041:	0f b6 d0             	movzbl %al,%edx
    a044:	0f b6 05 91 43 01 00 	movzbl 0x14391(%rip),%eax        # 1e3dc <g_687>
    a04b:	0f be c0             	movsbl %al,%eax
    a04e:	48 98                	cltq   
    a050:	8b 8d 5c df ff ff    	mov    -0x20a4(%rbp),%ecx
    a056:	48 c1 e1 02          	shl    $0x2,%rcx
    a05a:	48 01 c1             	add    %rax,%rcx
    a05d:	48 8d 05 7c 42 01 00 	lea    0x1427c(%rip),%rax        # 1e2e0 <g_176>
    a064:	48 01 c8             	add    %rcx,%rax
    a067:	0f b6 00             	movzbl (%rax),%eax
    a06a:	0f b6 c0             	movzbl %al,%eax
    a06d:	89 d6                	mov    %edx,%esi
    a06f:	89 c7                	mov    %eax,%edi
    a071:	e8 d6 cb ff ff       	callq  6c4c <safe_lshift_func_uint8_t_u_u>
    a076:	8b 85 a0 df ff ff    	mov    -0x2060(%rbp),%eax
    a07c:	85 c0                	test   %eax,%eax
    a07e:	74 13                	je     a093 <func_14+0x227f>
    a080:	c6 85 72 df ff ff 83 	movb   $0x83,-0x208e(%rbp)
    a087:	0f b6 85 72 df ff ff 	movzbl -0x208e(%rbp),%eax
    a08e:	e9 1a 39 00 00       	jmpq   d9ad <func_14+0x5b99>
    a093:	48 8b 05 1e 5b 01 00 	mov    0x15b1e(%rip),%rax        # 1fbb8 <g_1986>
    a09a:	48 89 05 17 5b 01 00 	mov    %rax,0x15b17(%rip)        # 1fbb8 <g_1986>
    a0a1:	48 8b 05 80 7e 01 00 	mov    0x17e80(%rip),%rax        # 21f28 <g_361>
    a0a8:	48 8d 95 a0 df ff ff 	lea    -0x2060(%rbp),%rdx
    a0af:	48 89 10             	mov    %rdx,(%rax)
    a0b2:	48 8d 85 e0 e6 ff ff 	lea    -0x1920(%rbp),%rax
    a0b9:	48 83 c0 14          	add    $0x14,%rax
    a0bd:	48 89 c7             	mov    %rax,%rdi
    a0c0:	e8 dd 55 00 00       	callq  f6a2 <func_55>
    a0c5:	48 8b 1d 74 7e 01 00 	mov    0x17e74(%rip),%rbx        # 21f40 <g_669>
    a0cc:	48 89 c7             	mov    %rax,%rdi
    a0cf:	e8 ce 55 00 00       	callq  f6a2 <func_55>
    a0d4:	48 89 03             	mov    %rax,(%rbx)
    a0d7:	48 83 85 58 e1 ff ff 	addq   $0x1,-0x1ea8(%rbp)
    a0de:	01 
    a0df:	48 8b 85 f8 e1 ff ff 	mov    -0x1e08(%rbp),%rax
    a0e6:	48 3b 85 d8 e2 ff ff 	cmp    -0x1d28(%rbp),%rax
    a0ed:	0f 84 a6 02 00 00    	je     a399 <func_14+0x2585>
    a0f3:	48 b8 3e 7f 44 e9 70 	movabs $0xd4f6dd70e9447f3e,%rax
    a0fa:	dd f6 d4 
    a0fd:	48 89 85 f8 e2 ff ff 	mov    %rax,-0x1d08(%rbp)
    a104:	48 8d 85 76 df ff ff 	lea    -0x208a(%rbp),%rax
    a10b:	48 89 85 00 e3 ff ff 	mov    %rax,-0x1d00(%rbp)
    a112:	48 8b 05 27 7e 01 00 	mov    0x17e27(%rip),%rax        # 21f40 <g_669>
    a119:	48 8d 95 98 df ff ff 	lea    -0x2068(%rbp),%rdx
    a120:	48 89 10             	mov    %rdx,(%rax)
    a123:	48 8b 05 26 7e 01 00 	mov    0x17e26(%rip),%rax        # 21f50 <g_847>
    a12a:	48 8b 00             	mov    (%rax),%rax
    a12d:	8b 00                	mov    (%rax),%eax
    a12f:	be 01 00 00 00       	mov    $0x1,%esi
    a134:	89 c7                	mov    %eax,%edi
    a136:	e8 7d cd ff ff       	callq  6eb8 <safe_add_func_uint32_t_u_u>
    a13b:	48 8b 95 30 e1 ff ff 	mov    -0x1ed0(%rbp),%rdx
    a142:	8b 12                	mov    (%rdx),%edx
    a144:	09 c2                	or     %eax,%edx
    a146:	48 8b 85 30 e1 ff ff 	mov    -0x1ed0(%rbp),%rax
    a14d:	89 10                	mov    %edx,(%rax)
    a14f:	8b 9d 5c df ff ff    	mov    -0x20a4(%rbp),%ebx
    a155:	48 8b 05 8c 4c 01 00 	mov    0x14c8c(%rip),%rax        # 1ede8 <g_1294+0x8>
    a15c:	48 c1 e0 04          	shl    $0x4,%rax
    a160:	48 c1 f8 22          	sar    $0x22,%rax
    a164:	41 89 c7             	mov    %eax,%r15d
    a167:	8b 05 8b 54 01 00    	mov    0x1548b(%rip),%eax        # 1f5f8 <g_1317+0x8>
    a16d:	c1 e0 04             	shl    $0x4,%eax
    a170:	c1 f8 04             	sar    $0x4,%eax
    a173:	44 0f b7 e0          	movzwl %ax,%r12d
    a177:	44 8b b5 e0 ec ff ff 	mov    -0x1320(%rbp),%r14d
    a17e:	48 8b 85 80 e2 ff ff 	mov    -0x1d80(%rbp),%rax
    a185:	66 c7 00 01 00       	movw   $0x1,(%rax)
    a18a:	8b 95 5c df ff ff    	mov    -0x20a4(%rbp),%edx
    a190:	48 8b 85 98 e2 ff ff 	mov    -0x1d68(%rbp),%rax
    a197:	89 10                	mov    %edx,(%rax)
    a199:	48 8b 85 38 e1 ff ff 	mov    -0x1ec8(%rbp),%rax
    a1a0:	8b 00                	mov    (%rax),%eax
    a1a2:	85 c0                	test   %eax,%eax
    a1a4:	74 4d                	je     a1f3 <func_14+0x23df>
    a1a6:	8b 85 5c df ff ff    	mov    -0x20a4(%rbp),%eax
    a1ac:	44 0f bf e8          	movswl %ax,%r13d
    a1b0:	48 8b 85 f8 e2 ff ff 	mov    -0x1d08(%rbp),%rax
    a1b7:	48 3d fe ff 00 00    	cmp    $0xfffe,%rax
    a1bd:	0f 96 c0             	setbe  %al
    a1c0:	0f b6 c0             	movzbl %al,%eax
    a1c3:	89 c7                	mov    %eax,%edi
    a1c5:	e8 7b c9 ff ff       	callq  6b45 <safe_unary_minus_func_uint8_t_u>
    a1ca:	0f b6 d0             	movzbl %al,%edx
    a1cd:	48 8b 05 8c 7d 01 00 	mov    0x17d8c(%rip),%rax        # 21f60 <g_849>
    a1d4:	48 8b 00             	mov    (%rax),%rax
    a1d7:	48 8b 00             	mov    (%rax),%rax
    a1da:	8b 00                	mov    (%rax),%eax
    a1dc:	89 d6                	mov    %edx,%esi
    a1de:	89 c7                	mov    %eax,%edi
    a1e0:	e8 18 cd ff ff       	callq  6efd <safe_mod_func_uint32_t_u_u>
    a1e5:	98                   	cwtl   
    a1e6:	44 89 ee             	mov    %r13d,%esi
    a1e9:	89 c7                	mov    %eax,%edi
    a1eb:	e8 c3 c1 ff ff       	callq  63b3 <safe_add_func_int16_t_s_s>
    a1f0:	66 85 c0             	test   %ax,%ax
    a1f3:	c6 05 f0 40 01 00 01 	movb   $0x1,0x140f0(%rip)        # 1e2ea <g_176+0xa>
    a1fa:	0f b6 05 e9 40 01 00 	movzbl 0x140e9(%rip),%eax        # 1e2ea <g_176+0xa>
    a201:	0f b6 c0             	movzbl %al,%eax
    a204:	41 39 c6             	cmp    %eax,%r14d
    a207:	0f 9f c0             	setg   %al
    a20a:	0f b6 c0             	movzbl %al,%eax
    a20d:	44 89 e6             	mov    %r12d,%esi
    a210:	89 c7                	mov    %eax,%edi
    a212:	e8 26 cb ff ff       	callq  6d3d <safe_mul_func_uint16_t_u_u>
    a217:	0f b6 c0             	movzbl %al,%eax
    a21a:	44 89 fe             	mov    %r15d,%esi
    a21d:	89 c7                	mov    %eax,%edi
    a21f:	e8 9a ca ff ff       	callq  6cbe <safe_rshift_func_uint8_t_u_u>
    a224:	0f b6 c0             	movzbl %al,%eax
    a227:	be 02 00 00 00       	mov    $0x2,%esi
    a22c:	89 c7                	mov    %eax,%edi
    a22e:	e8 22 c2 ff ff       	callq  6455 <safe_div_func_int16_t_s_s>
    a233:	89 c2                	mov    %eax,%edx
    a235:	8b 85 5c df ff ff    	mov    -0x20a4(%rbp),%eax
    a23b:	21 d0                	and    %edx,%eax
    a23d:	89 c2                	mov    %eax,%edx
    a23f:	48 8b 85 00 e3 ff ff 	mov    -0x1d00(%rbp),%rax
    a246:	66 89 10             	mov    %dx,(%rax)
    a249:	48 8b 85 00 e3 ff ff 	mov    -0x1d00(%rbp),%rax
    a250:	0f b7 00             	movzwl (%rax),%eax
    a253:	98                   	cwtl   
    a254:	89 de                	mov    %ebx,%esi
    a256:	89 c7                	mov    %eax,%edi
    a258:	e8 cd c2 ff ff       	callq  652a <safe_rshift_func_int16_t_s_s>
    a25d:	0f b6 d0             	movzbl %al,%edx
    a260:	8b 85 5c df ff ff    	mov    -0x20a4(%rbp),%eax
    a266:	0f b6 c0             	movzbl %al,%eax
    a269:	89 d6                	mov    %edx,%esi
    a26b:	89 c7                	mov    %eax,%edi
    a26d:	e8 3c c9 ff ff       	callq  6bae <safe_mod_func_uint8_t_u_u>
    a272:	89 c2                	mov    %eax,%edx
    a274:	48 8b 85 28 e1 ff ff 	mov    -0x1ed8(%rbp),%rax
    a27b:	0f b6 d2             	movzbl %dl,%edx
    a27e:	89 10                	mov    %edx,(%rax)
    a280:	48 8b 05 b1 51 01 00 	mov    0x151b1(%rip),%rax        # 1f438 <g_1311+0x8>
    a287:	48 c1 e0 04          	shl    $0x4,%rax
    a28b:	48 c1 f8 22          	sar    $0x22,%rax
    a28f:	0f b7 d8             	movzwl %ax,%ebx
    a292:	48 8b 05 cf 7c 01 00 	mov    0x17ccf(%rip),%rax        # 21f68 <g_985>
    a299:	0f b6 00             	movzbl (%rax),%eax
    a29c:	44 0f be e0          	movsbl %al,%r12d
    a2a0:	48 8b 85 f8 e2 ff ff 	mov    -0x1d08(%rbp),%rax
    a2a7:	44 0f be e8          	movsbl %al,%r13d
    a2ab:	48 8b 85 28 e1 ff ff 	mov    -0x1ed8(%rbp),%rax
    a2b2:	44 8b 30             	mov    (%rax),%r14d
    a2b5:	48 8b 85 f0 e1 ff ff 	mov    -0x1e10(%rbp),%rax
    a2bc:	0f b6 00             	movzbl (%rax),%eax
    a2bf:	8d 48 01             	lea    0x1(%rax),%ecx
    a2c2:	48 8b 95 f0 e1 ff ff 	mov    -0x1e10(%rbp),%rdx
    a2c9:	88 0a                	mov    %cl,(%rdx)
    a2cb:	0f b6 c0             	movzbl %al,%eax
    a2ce:	89 c7                	mov    %eax,%edi
    a2d0:	e8 70 c8 ff ff       	callq  6b45 <safe_unary_minus_func_uint8_t_u>
    a2d5:	0f b6 c0             	movzbl %al,%eax
    a2d8:	41 39 c6             	cmp    %eax,%r14d
    a2db:	7e 07                	jle    a2e4 <func_14+0x24d0>
    a2dd:	b8 ef ff ff ff       	mov    $0xffffffef,%eax
    a2e2:	eb 05                	jmp    a2e9 <func_14+0x24d5>
    a2e4:	b8 ee ff ff ff       	mov    $0xffffffee,%eax
    a2e9:	44 89 ee             	mov    %r13d,%esi
    a2ec:	89 c7                	mov    %eax,%edi
    a2ee:	e8 77 bf ff ff       	callq  626a <safe_div_func_int8_t_s_s>
    a2f3:	44 89 e6             	mov    %r12d,%esi
    a2f6:	bf 01 00 00 00       	mov    $0x1,%edi
    a2fb:	e8 12 bf ff ff       	callq  6212 <safe_mul_func_int8_t_s_s>
    a300:	48 8b 05 31 e1 00 00 	mov    0xe131(%rip),%rax        # 18438 <g_764+0x3d8>
    a307:	48 c1 e0 12          	shl    $0x12,%rax
    a30b:	48 c1 f8 30          	sar    $0x30,%rax
    a30f:	44 0f bf e8          	movswl %ax,%r13d
    a313:	44 8b a5 f4 e6 ff ff 	mov    -0x190c(%rbp),%r12d
    a31a:	8b 85 5c df ff ff    	mov    -0x20a4(%rbp),%eax
    a320:	0f b6 d0             	movzbl %al,%edx
    a323:	0f b6 05 56 83 01 00 	movzbl 0x18356(%rip),%eax        # 22680 <g_293+0x8>
    a32a:	0f b6 c0             	movzbl %al,%eax
    a32d:	89 d6                	mov    %edx,%esi
    a32f:	89 c7                	mov    %eax,%edi
    a331:	e8 5d c8 ff ff       	callq  6b93 <safe_mul_func_uint8_t_u_u>
    a336:	0f b6 c0             	movzbl %al,%eax
    a339:	44 89 e6             	mov    %r12d,%esi
    a33c:	89 c7                	mov    %eax,%edi
    a33e:	e8 bc c3 ff ff       	callq  66ff <safe_div_func_int32_t_s_s>
    a343:	44 09 e8             	or     %r13d,%eax
    a346:	39 85 5c df ff ff    	cmp    %eax,-0x20a4(%rbp)
    a34c:	0f 97 c0             	seta   %al
    a34f:	0f b6 c0             	movzbl %al,%eax
    a352:	be 39 4a e4 8c       	mov    $0x8ce44a39,%esi
    a357:	89 c7                	mov    %eax,%edi
    a359:	e8 6e c3 ff ff       	callq  66cc <safe_mod_func_int32_t_s_s>
    a35e:	83 f8 01             	cmp    $0x1,%eax
    a361:	89 de                	mov    %ebx,%esi
    a363:	bf 00 00 00 00       	mov    $0x0,%edi
    a368:	e8 ef c9 ff ff       	callq  6d5c <safe_mod_func_uint16_t_u_u>
    a36d:	48 8b 95 a8 e2 ff ff 	mov    -0x1d58(%rbp),%rdx
    a374:	8b 12                	mov    (%rdx),%edx
    a376:	0f b7 c0             	movzwl %ax,%eax
    a379:	09 c2                	or     %eax,%edx
    a37b:	48 8b 85 a8 e2 ff ff 	mov    -0x1d58(%rbp),%rax
    a382:	89 10                	mov    %edx,(%rax)
    a384:	c7 85 a8 df ff ff 00 	movl   $0x0,-0x2058(%rbp)
    a38b:	00 00 00 
    a38e:	83 bd a8 df ff ff 00 	cmpl   $0x0,-0x2058(%rbp)
    a395:	7f 21                	jg     a3b8 <func_14+0x25a4>
    a397:	eb 14                	jmp    a3ad <func_14+0x2599>
    a399:	48 8b 05 a8 57 01 00 	mov    0x157a8(%rip),%rax        # 1fb48 <g_1480+0x8>
    a3a0:	48 c1 e0 04          	shl    $0x4,%rax
    a3a4:	48 c1 f8 22          	sar    $0x22,%rax
    a3a8:	e9 00 36 00 00       	jmpq   d9ad <func_14+0x5b99>
    a3ad:	8b 85 5c df ff ff    	mov    -0x20a4(%rbp),%eax
    a3b3:	e9 f5 35 00 00       	jmpq   d9ad <func_14+0x5b99>
    a3b8:	0f b6 05 1d 40 01 00 	movzbl 0x1401d(%rip),%eax        # 1e3dc <g_687>
    a3bf:	83 e8 01             	sub    $0x1,%eax
    a3c2:	88 05 14 40 01 00    	mov    %al,0x14014(%rip)        # 1e3dc <g_687>
    a3c8:	0f b6 05 0d 40 01 00 	movzbl 0x1400d(%rip),%eax        # 1e3dc <g_687>
    a3cf:	84 c0                	test   %al,%al
    a3d1:	0f 89 88 fb ff ff    	jns    9f5f <func_14+0x214b>
    a3d7:	c7 05 cf 3f 01 00 00 	movl   $0x0,0x13fcf(%rip)        # 1e3b0 <g_312>
    a3de:	00 00 00 
    a3e1:	e9 92 0e 00 00       	jmpq   b278 <func_14+0x3464>
    a3e6:	48 8d 85 40 e1 ff ff 	lea    -0x1ec0(%rbp),%rax
    a3ed:	48 89 85 d0 f7 ff ff 	mov    %rax,-0x830(%rbp)
    a3f4:	48 8d 85 30 e1 ff ff 	lea    -0x1ed0(%rbp),%rax
    a3fb:	48 89 85 d8 f7 ff ff 	mov    %rax,-0x828(%rbp)
    a402:	48 8d 85 b0 e4 ff ff 	lea    -0x1b50(%rbp),%rax
    a409:	48 89 85 e0 f7 ff ff 	mov    %rax,-0x820(%rbp)
    a410:	48 8d 85 40 e1 ff ff 	lea    -0x1ec0(%rbp),%rax
    a417:	48 89 85 e8 f7 ff ff 	mov    %rax,-0x818(%rbp)
    a41e:	48 c7 85 f0 f7 ff ff 	movq   $0x0,-0x810(%rbp)
    a425:	00 00 00 00 
    a429:	48 8d 85 38 e1 ff ff 	lea    -0x1ec8(%rbp),%rax
    a430:	48 89 85 f8 f7 ff ff 	mov    %rax,-0x808(%rbp)
    a437:	48 8d 05 12 71 01 00 	lea    0x17112(%rip),%rax        # 21550 <g_106+0x30>
    a43e:	48 89 85 00 f8 ff ff 	mov    %rax,-0x800(%rbp)
    a445:	48 8d 05 04 7c 01 00 	lea    0x17c04(%rip),%rax        # 22050 <g_1855>
    a44c:	48 89 85 08 f8 ff ff 	mov    %rax,-0x7f8(%rbp)
    a453:	48 c7 85 10 f8 ff ff 	movq   $0x0,-0x7f0(%rbp)
    a45a:	00 00 00 00 
    a45e:	48 8d 85 48 e1 ff ff 	lea    -0x1eb8(%rbp),%rax
    a465:	48 89 85 18 f8 ff ff 	mov    %rax,-0x7e8(%rbp)
    a46c:	48 8d 85 b0 e4 ff ff 	lea    -0x1b50(%rbp),%rax
    a473:	48 89 85 20 f8 ff ff 	mov    %rax,-0x7e0(%rbp)
    a47a:	48 8d 85 50 e1 ff ff 	lea    -0x1eb0(%rbp),%rax
    a481:	48 89 85 28 f8 ff ff 	mov    %rax,-0x7d8(%rbp)
    a488:	48 8d 85 40 e1 ff ff 	lea    -0x1ec0(%rbp),%rax
    a48f:	48 89 85 30 f8 ff ff 	mov    %rax,-0x7d0(%rbp)
    a496:	48 8d 05 b3 70 01 00 	lea    0x170b3(%rip),%rax        # 21550 <g_106+0x30>
    a49d:	48 89 85 38 f8 ff ff 	mov    %rax,-0x7c8(%rbp)
    a4a4:	48 8d 85 48 e1 ff ff 	lea    -0x1eb8(%rbp),%rax
    a4ab:	48 89 85 40 f8 ff ff 	mov    %rax,-0x7c0(%rbp)
    a4b2:	48 8d 85 30 e1 ff ff 	lea    -0x1ed0(%rbp),%rax
    a4b9:	48 89 85 48 f8 ff ff 	mov    %rax,-0x7b8(%rbp)
    a4c0:	48 8d 05 89 7b 01 00 	lea    0x17b89(%rip),%rax        # 22050 <g_1855>
    a4c7:	48 89 85 50 f8 ff ff 	mov    %rax,-0x7b0(%rbp)
    a4ce:	48 8d 85 40 e1 ff ff 	lea    -0x1ec0(%rbp),%rax
    a4d5:	48 89 85 58 f8 ff ff 	mov    %rax,-0x7a8(%rbp)
    a4dc:	48 8d 85 28 e1 ff ff 	lea    -0x1ed8(%rbp),%rax
    a4e3:	48 89 85 60 f8 ff ff 	mov    %rax,-0x7a0(%rbp)
    a4ea:	48 c7 85 68 f8 ff ff 	movq   $0x0,-0x798(%rbp)
    a4f1:	00 00 00 00 
    a4f5:	48 8d 85 48 e1 ff ff 	lea    -0x1eb8(%rbp),%rax
    a4fc:	48 89 85 70 f8 ff ff 	mov    %rax,-0x790(%rbp)
    a503:	48 8d 85 40 e1 ff ff 	lea    -0x1ec0(%rbp),%rax
    a50a:	48 89 85 78 f8 ff ff 	mov    %rax,-0x788(%rbp)
    a511:	48 8d 85 48 e1 ff ff 	lea    -0x1eb8(%rbp),%rax
    a518:	48 89 85 80 f8 ff ff 	mov    %rax,-0x780(%rbp)
    a51f:	48 8d 85 30 e1 ff ff 	lea    -0x1ed0(%rbp),%rax
    a526:	48 89 85 88 f8 ff ff 	mov    %rax,-0x778(%rbp)
    a52d:	48 8d 85 38 e1 ff ff 	lea    -0x1ec8(%rbp),%rax
    a534:	48 89 85 90 f8 ff ff 	mov    %rax,-0x770(%rbp)
    a53b:	48 8d 05 0e 70 01 00 	lea    0x1700e(%rip),%rax        # 21550 <g_106+0x30>
    a542:	48 89 85 98 f8 ff ff 	mov    %rax,-0x768(%rbp)
    a549:	48 c7 85 a0 f8 ff ff 	movq   $0x0,-0x760(%rbp)
    a550:	00 00 00 00 
    a554:	48 8d 85 50 e1 ff ff 	lea    -0x1eb0(%rbp),%rax
    a55b:	48 89 85 a8 f8 ff ff 	mov    %rax,-0x758(%rbp)
    a562:	48 8d 85 50 e1 ff ff 	lea    -0x1eb0(%rbp),%rax
    a569:	48 89 85 b0 f8 ff ff 	mov    %rax,-0x750(%rbp)
    a570:	48 8d 85 48 e1 ff ff 	lea    -0x1eb8(%rbp),%rax
    a577:	48 89 85 b8 f8 ff ff 	mov    %rax,-0x748(%rbp)
    a57e:	48 8d 85 38 e1 ff ff 	lea    -0x1ec8(%rbp),%rax
    a585:	48 89 85 c0 f8 ff ff 	mov    %rax,-0x740(%rbp)
    a58c:	48 8d 05 bd 7a 01 00 	lea    0x17abd(%rip),%rax        # 22050 <g_1855>
    a593:	48 89 85 c8 f8 ff ff 	mov    %rax,-0x738(%rbp)
    a59a:	48 8d 85 40 e1 ff ff 	lea    -0x1ec0(%rbp),%rax
    a5a1:	48 89 85 d0 f8 ff ff 	mov    %rax,-0x730(%rbp)
    a5a8:	48 8d 85 38 e1 ff ff 	lea    -0x1ec8(%rbp),%rax
    a5af:	48 89 85 d8 f8 ff ff 	mov    %rax,-0x728(%rbp)
    a5b6:	48 8d 85 38 e1 ff ff 	lea    -0x1ec8(%rbp),%rax
    a5bd:	48 89 85 e0 f8 ff ff 	mov    %rax,-0x720(%rbp)
    a5c4:	48 8d 85 40 e1 ff ff 	lea    -0x1ec0(%rbp),%rax
    a5cb:	48 89 85 e8 f8 ff ff 	mov    %rax,-0x718(%rbp)
    a5d2:	48 8d 85 50 e1 ff ff 	lea    -0x1eb0(%rbp),%rax
    a5d9:	48 89 85 f0 f8 ff ff 	mov    %rax,-0x710(%rbp)
    a5e0:	48 8d 85 30 e1 ff ff 	lea    -0x1ed0(%rbp),%rax
    a5e7:	48 89 85 f8 f8 ff ff 	mov    %rax,-0x708(%rbp)
    a5ee:	48 c7 85 00 f9 ff ff 	movq   $0x0,-0x700(%rbp)
    a5f5:	00 00 00 00 
    a5f9:	48 8d 85 48 e1 ff ff 	lea    -0x1eb8(%rbp),%rax
    a600:	48 89 85 08 f9 ff ff 	mov    %rax,-0x6f8(%rbp)
    a607:	48 8d 85 38 e1 ff ff 	lea    -0x1ec8(%rbp),%rax
    a60e:	48 89 85 10 f9 ff ff 	mov    %rax,-0x6f0(%rbp)
    a615:	48 8d 05 34 6f 01 00 	lea    0x16f34(%rip),%rax        # 21550 <g_106+0x30>
    a61c:	48 89 85 18 f9 ff ff 	mov    %rax,-0x6e8(%rbp)
    a623:	48 8d 85 48 e1 ff ff 	lea    -0x1eb8(%rbp),%rax
    a62a:	48 89 85 20 f9 ff ff 	mov    %rax,-0x6e0(%rbp)
    a631:	48 8d 85 50 e1 ff ff 	lea    -0x1eb0(%rbp),%rax
    a638:	48 89 85 28 f9 ff ff 	mov    %rax,-0x6d8(%rbp)
    a63f:	48 8d 85 48 e1 ff ff 	lea    -0x1eb8(%rbp),%rax
    a646:	48 89 85 30 f9 ff ff 	mov    %rax,-0x6d0(%rbp)
    a64d:	48 8d 85 b0 e4 ff ff 	lea    -0x1b50(%rbp),%rax
    a654:	48 89 85 38 f9 ff ff 	mov    %rax,-0x6c8(%rbp)
    a65b:	48 8d 85 28 e1 ff ff 	lea    -0x1ed8(%rbp),%rax
    a662:	48 89 85 40 f9 ff ff 	mov    %rax,-0x6c0(%rbp)
    a669:	48 8d 85 50 e1 ff ff 	lea    -0x1eb0(%rbp),%rax
    a670:	48 89 85 48 f9 ff ff 	mov    %rax,-0x6b8(%rbp)
    a677:	48 8d 05 d2 79 01 00 	lea    0x179d2(%rip),%rax        # 22050 <g_1855>
    a67e:	48 89 85 50 f9 ff ff 	mov    %rax,-0x6b0(%rbp)
    a685:	48 8d 05 c4 6e 01 00 	lea    0x16ec4(%rip),%rax        # 21550 <g_106+0x30>
    a68c:	48 89 85 58 f9 ff ff 	mov    %rax,-0x6a8(%rbp)
    a693:	48 8d 85 48 e1 ff ff 	lea    -0x1eb8(%rbp),%rax
    a69a:	48 89 85 60 f9 ff ff 	mov    %rax,-0x6a0(%rbp)
    a6a1:	48 8d 85 48 e1 ff ff 	lea    -0x1eb8(%rbp),%rax
    a6a8:	48 89 85 68 f9 ff ff 	mov    %rax,-0x698(%rbp)
    a6af:	48 8d 85 40 e1 ff ff 	lea    -0x1ec0(%rbp),%rax
    a6b6:	48 89 85 70 f9 ff ff 	mov    %rax,-0x690(%rbp)
    a6bd:	48 8d 85 30 e1 ff ff 	lea    -0x1ed0(%rbp),%rax
    a6c4:	48 89 85 78 f9 ff ff 	mov    %rax,-0x688(%rbp)
    a6cb:	48 8d 85 b0 e4 ff ff 	lea    -0x1b50(%rbp),%rax
    a6d2:	48 89 85 80 f9 ff ff 	mov    %rax,-0x680(%rbp)
    a6d9:	48 8d 85 40 e1 ff ff 	lea    -0x1ec0(%rbp),%rax
    a6e0:	48 89 85 88 f9 ff ff 	mov    %rax,-0x678(%rbp)
    a6e7:	48 c7 85 90 f9 ff ff 	movq   $0x0,-0x670(%rbp)
    a6ee:	00 00 00 00 
    a6f2:	48 8d 85 38 e1 ff ff 	lea    -0x1ec8(%rbp),%rax
    a6f9:	48 89 85 98 f9 ff ff 	mov    %rax,-0x668(%rbp)
    a700:	48 8d 05 49 6e 01 00 	lea    0x16e49(%rip),%rax        # 21550 <g_106+0x30>
    a707:	48 89 85 a0 f9 ff ff 	mov    %rax,-0x660(%rbp)
    a70e:	48 8d 05 3b 79 01 00 	lea    0x1793b(%rip),%rax        # 22050 <g_1855>
    a715:	48 89 85 a8 f9 ff ff 	mov    %rax,-0x658(%rbp)
    a71c:	48 c7 85 b0 f9 ff ff 	movq   $0x0,-0x650(%rbp)
    a723:	00 00 00 00 
    a727:	48 8d 85 48 e1 ff ff 	lea    -0x1eb8(%rbp),%rax
    a72e:	48 89 85 b8 f9 ff ff 	mov    %rax,-0x648(%rbp)
    a735:	48 8d 85 b0 e4 ff ff 	lea    -0x1b50(%rbp),%rax
    a73c:	48 89 85 c0 f9 ff ff 	mov    %rax,-0x640(%rbp)
    a743:	48 8d 85 50 e1 ff ff 	lea    -0x1eb0(%rbp),%rax
    a74a:	48 89 85 c8 f9 ff ff 	mov    %rax,-0x638(%rbp)
    a751:	48 8d 85 40 e1 ff ff 	lea    -0x1ec0(%rbp),%rax
    a758:	48 89 85 d0 f9 ff ff 	mov    %rax,-0x630(%rbp)
    a75f:	48 8d 05 ea 6d 01 00 	lea    0x16dea(%rip),%rax        # 21550 <g_106+0x30>
    a766:	48 89 85 d8 f9 ff ff 	mov    %rax,-0x628(%rbp)
    a76d:	48 8d 85 48 e1 ff ff 	lea    -0x1eb8(%rbp),%rax
    a774:	48 89 85 e0 f9 ff ff 	mov    %rax,-0x620(%rbp)
    a77b:	48 8d 85 30 e1 ff ff 	lea    -0x1ed0(%rbp),%rax
    a782:	48 89 85 e8 f9 ff ff 	mov    %rax,-0x618(%rbp)
    a789:	48 8d 05 c0 78 01 00 	lea    0x178c0(%rip),%rax        # 22050 <g_1855>
    a790:	48 89 85 f0 f9 ff ff 	mov    %rax,-0x610(%rbp)
    a797:	48 8d 85 40 e1 ff ff 	lea    -0x1ec0(%rbp),%rax
    a79e:	48 89 85 f8 f9 ff ff 	mov    %rax,-0x608(%rbp)
    a7a5:	48 8d 85 28 e1 ff ff 	lea    -0x1ed8(%rbp),%rax
    a7ac:	48 89 85 00 fa ff ff 	mov    %rax,-0x600(%rbp)
    a7b3:	48 c7 85 08 fa ff ff 	movq   $0x0,-0x5f8(%rbp)
    a7ba:	00 00 00 00 
    a7be:	48 8d 85 48 e1 ff ff 	lea    -0x1eb8(%rbp),%rax
    a7c5:	48 89 85 10 fa ff ff 	mov    %rax,-0x5f0(%rbp)
    a7cc:	48 8d 85 40 e1 ff ff 	lea    -0x1ec0(%rbp),%rax
    a7d3:	48 89 85 18 fa ff ff 	mov    %rax,-0x5e8(%rbp)
    a7da:	48 8d 85 48 e1 ff ff 	lea    -0x1eb8(%rbp),%rax
    a7e1:	48 89 85 20 fa ff ff 	mov    %rax,-0x5e0(%rbp)
    a7e8:	48 8d 85 30 e1 ff ff 	lea    -0x1ed0(%rbp),%rax
    a7ef:	48 89 85 28 fa ff ff 	mov    %rax,-0x5d8(%rbp)
    a7f6:	48 8d 85 38 e1 ff ff 	lea    -0x1ec8(%rbp),%rax
    a7fd:	48 89 85 30 fa ff ff 	mov    %rax,-0x5d0(%rbp)
    a804:	48 8d 05 45 6d 01 00 	lea    0x16d45(%rip),%rax        # 21550 <g_106+0x30>
    a80b:	48 89 85 38 fa ff ff 	mov    %rax,-0x5c8(%rbp)
    a812:	48 c7 85 40 fa ff ff 	movq   $0x0,-0x5c0(%rbp)
    a819:	00 00 00 00 
    a81d:	48 8d 85 50 e1 ff ff 	lea    -0x1eb0(%rbp),%rax
    a824:	48 89 85 48 fa ff ff 	mov    %rax,-0x5b8(%rbp)
    a82b:	48 8d 85 50 e1 ff ff 	lea    -0x1eb0(%rbp),%rax
    a832:	48 89 85 50 fa ff ff 	mov    %rax,-0x5b0(%rbp)
    a839:	48 8d 85 48 e1 ff ff 	lea    -0x1eb8(%rbp),%rax
    a840:	48 89 85 58 fa ff ff 	mov    %rax,-0x5a8(%rbp)
    a847:	48 8d 85 38 e1 ff ff 	lea    -0x1ec8(%rbp),%rax
    a84e:	48 89 85 60 fa ff ff 	mov    %rax,-0x5a0(%rbp)
    a855:	48 8d 05 f4 77 01 00 	lea    0x177f4(%rip),%rax        # 22050 <g_1855>
    a85c:	48 89 85 68 fa ff ff 	mov    %rax,-0x598(%rbp)
    a863:	48 8d 85 40 e1 ff ff 	lea    -0x1ec0(%rbp),%rax
    a86a:	48 89 85 70 fa ff ff 	mov    %rax,-0x590(%rbp)
    a871:	48 8d 85 38 e1 ff ff 	lea    -0x1ec8(%rbp),%rax
    a878:	48 89 85 78 fa ff ff 	mov    %rax,-0x588(%rbp)
    a87f:	48 8d 85 38 e1 ff ff 	lea    -0x1ec8(%rbp),%rax
    a886:	48 89 85 80 fa ff ff 	mov    %rax,-0x580(%rbp)
    a88d:	48 8d 85 40 e1 ff ff 	lea    -0x1ec0(%rbp),%rax
    a894:	48 89 85 88 fa ff ff 	mov    %rax,-0x578(%rbp)
    a89b:	48 8d 85 50 e1 ff ff 	lea    -0x1eb0(%rbp),%rax
    a8a2:	48 89 85 90 fa ff ff 	mov    %rax,-0x570(%rbp)
    a8a9:	48 8d 85 30 e1 ff ff 	lea    -0x1ed0(%rbp),%rax
    a8b0:	48 89 85 98 fa ff ff 	mov    %rax,-0x568(%rbp)
    a8b7:	48 c7 85 a0 fa ff ff 	movq   $0x0,-0x560(%rbp)
    a8be:	00 00 00 00 
    a8c2:	48 8d 85 48 e1 ff ff 	lea    -0x1eb8(%rbp),%rax
    a8c9:	48 89 85 a8 fa ff ff 	mov    %rax,-0x558(%rbp)
    a8d0:	48 8d 85 38 e1 ff ff 	lea    -0x1ec8(%rbp),%rax
    a8d7:	48 89 85 b0 fa ff ff 	mov    %rax,-0x550(%rbp)
    a8de:	48 8d 05 6b 6c 01 00 	lea    0x16c6b(%rip),%rax        # 21550 <g_106+0x30>
    a8e5:	48 89 85 b8 fa ff ff 	mov    %rax,-0x548(%rbp)
    a8ec:	48 8d 85 48 e1 ff ff 	lea    -0x1eb8(%rbp),%rax
    a8f3:	48 89 85 c0 fa ff ff 	mov    %rax,-0x540(%rbp)
    a8fa:	48 8d 85 50 e1 ff ff 	lea    -0x1eb0(%rbp),%rax
    a901:	48 89 85 c8 fa ff ff 	mov    %rax,-0x538(%rbp)
    a908:	48 8d 85 48 e1 ff ff 	lea    -0x1eb8(%rbp),%rax
    a90f:	48 89 85 d0 fa ff ff 	mov    %rax,-0x530(%rbp)
    a916:	48 8d 85 b0 e4 ff ff 	lea    -0x1b50(%rbp),%rax
    a91d:	48 89 85 d8 fa ff ff 	mov    %rax,-0x528(%rbp)
    a924:	48 8d 85 28 e1 ff ff 	lea    -0x1ed8(%rbp),%rax
    a92b:	48 89 85 e0 fa ff ff 	mov    %rax,-0x520(%rbp)
    a932:	48 8d 85 50 e1 ff ff 	lea    -0x1eb0(%rbp),%rax
    a939:	48 89 85 e8 fa ff ff 	mov    %rax,-0x518(%rbp)
    a940:	48 8d 05 09 77 01 00 	lea    0x17709(%rip),%rax        # 22050 <g_1855>
    a947:	48 89 85 f0 fa ff ff 	mov    %rax,-0x510(%rbp)
    a94e:	48 8d 05 fb 6b 01 00 	lea    0x16bfb(%rip),%rax        # 21550 <g_106+0x30>
    a955:	48 89 85 f8 fa ff ff 	mov    %rax,-0x508(%rbp)
    a95c:	48 8d 85 48 e1 ff ff 	lea    -0x1eb8(%rbp),%rax
    a963:	48 89 85 00 fb ff ff 	mov    %rax,-0x500(%rbp)
    a96a:	48 8d 85 48 e1 ff ff 	lea    -0x1eb8(%rbp),%rax
    a971:	48 89 85 08 fb ff ff 	mov    %rax,-0x4f8(%rbp)
    a978:	48 8d 85 40 e1 ff ff 	lea    -0x1ec0(%rbp),%rax
    a97f:	48 89 85 10 fb ff ff 	mov    %rax,-0x4f0(%rbp)
    a986:	48 8d 85 30 e1 ff ff 	lea    -0x1ed0(%rbp),%rax
    a98d:	48 89 85 18 fb ff ff 	mov    %rax,-0x4e8(%rbp)
    a994:	48 8d 85 b0 e4 ff ff 	lea    -0x1b50(%rbp),%rax
    a99b:	48 89 85 20 fb ff ff 	mov    %rax,-0x4e0(%rbp)
    a9a2:	48 8d 85 40 e1 ff ff 	lea    -0x1ec0(%rbp),%rax
    a9a9:	48 89 85 28 fb ff ff 	mov    %rax,-0x4d8(%rbp)
    a9b0:	48 c7 85 30 fb ff ff 	movq   $0x0,-0x4d0(%rbp)
    a9b7:	00 00 00 00 
    a9bb:	48 8d 85 38 e1 ff ff 	lea    -0x1ec8(%rbp),%rax
    a9c2:	48 89 85 38 fb ff ff 	mov    %rax,-0x4c8(%rbp)
    a9c9:	48 8d 05 80 6b 01 00 	lea    0x16b80(%rip),%rax        # 21550 <g_106+0x30>
    a9d0:	48 89 85 40 fb ff ff 	mov    %rax,-0x4c0(%rbp)
    a9d7:	48 8d 05 72 76 01 00 	lea    0x17672(%rip),%rax        # 22050 <g_1855>
    a9de:	48 89 85 48 fb ff ff 	mov    %rax,-0x4b8(%rbp)
    a9e5:	48 c7 85 50 fb ff ff 	movq   $0x0,-0x4b0(%rbp)
    a9ec:	00 00 00 00 
    a9f0:	48 8d 85 48 e1 ff ff 	lea    -0x1eb8(%rbp),%rax
    a9f7:	48 89 85 58 fb ff ff 	mov    %rax,-0x4a8(%rbp)
    a9fe:	48 8d 85 40 e1 ff ff 	lea    -0x1ec0(%rbp),%rax
    aa05:	48 89 85 60 fb ff ff 	mov    %rax,-0x4a0(%rbp)
    aa0c:	48 8d 85 30 e1 ff ff 	lea    -0x1ed0(%rbp),%rax
    aa13:	48 89 85 68 fb ff ff 	mov    %rax,-0x498(%rbp)
    aa1a:	48 8d 85 48 e1 ff ff 	lea    -0x1eb8(%rbp),%rax
    aa21:	48 89 85 70 fb ff ff 	mov    %rax,-0x490(%rbp)
    aa28:	48 8d 85 38 e1 ff ff 	lea    -0x1ec8(%rbp),%rax
    aa2f:	48 89 85 78 fb ff ff 	mov    %rax,-0x488(%rbp)
    aa36:	48 8d 85 b0 e4 ff ff 	lea    -0x1b50(%rbp),%rax
    aa3d:	48 89 85 80 fb ff ff 	mov    %rax,-0x480(%rbp)
    aa44:	48 8d 85 b0 e4 ff ff 	lea    -0x1b50(%rbp),%rax
    aa4b:	48 89 85 88 fb ff ff 	mov    %rax,-0x478(%rbp)
    aa52:	48 8d 85 40 e1 ff ff 	lea    -0x1ec0(%rbp),%rax
    aa59:	48 89 85 90 fb ff ff 	mov    %rax,-0x470(%rbp)
    aa60:	48 8d 85 50 e1 ff ff 	lea    -0x1eb0(%rbp),%rax
    aa67:	48 89 85 98 fb ff ff 	mov    %rax,-0x468(%rbp)
    aa6e:	48 8d 85 20 e1 ff ff 	lea    -0x1ee0(%rbp),%rax
    aa75:	48 89 85 a0 fb ff ff 	mov    %rax,-0x460(%rbp)
    aa7c:	48 8d 85 50 e1 ff ff 	lea    -0x1eb0(%rbp),%rax
    aa83:	48 89 85 a8 fb ff ff 	mov    %rax,-0x458(%rbp)
    aa8a:	48 8d 05 bf 75 01 00 	lea    0x175bf(%rip),%rax        # 22050 <g_1855>
    aa91:	48 89 85 b0 fb ff ff 	mov    %rax,-0x450(%rbp)
    aa98:	48 8d 85 50 e1 ff ff 	lea    -0x1eb0(%rbp),%rax
    aa9f:	48 89 85 b8 fb ff ff 	mov    %rax,-0x448(%rbp)
    aaa6:	48 8d 05 a3 6a 01 00 	lea    0x16aa3(%rip),%rax        # 21550 <g_106+0x30>
    aaad:	48 89 85 c0 fb ff ff 	mov    %rax,-0x440(%rbp)
    aab4:	48 8d 85 b0 e4 ff ff 	lea    -0x1b50(%rbp),%rax
    aabb:	48 89 85 c8 fb ff ff 	mov    %rax,-0x438(%rbp)
    aac2:	48 8d 85 50 e1 ff ff 	lea    -0x1eb0(%rbp),%rax
    aac9:	48 89 85 d0 fb ff ff 	mov    %rax,-0x430(%rbp)
    aad0:	48 8d 85 38 e1 ff ff 	lea    -0x1ec8(%rbp),%rax
    aad7:	48 89 85 d8 fb ff ff 	mov    %rax,-0x428(%rbp)
    aade:	48 8d 85 28 e1 ff ff 	lea    -0x1ed8(%rbp),%rax
    aae5:	48 89 85 e0 fb ff ff 	mov    %rax,-0x420(%rbp)
    aaec:	48 8d 85 30 e1 ff ff 	lea    -0x1ed0(%rbp),%rax
    aaf3:	48 89 85 e8 fb ff ff 	mov    %rax,-0x418(%rbp)
    aafa:	48 8d 85 30 e1 ff ff 	lea    -0x1ed0(%rbp),%rax
    ab01:	48 89 85 f0 fb ff ff 	mov    %rax,-0x410(%rbp)
    ab08:	48 8d 85 b0 e4 ff ff 	lea    -0x1b50(%rbp),%rax
    ab0f:	48 89 85 f8 fb ff ff 	mov    %rax,-0x408(%rbp)
    ab16:	48 8d 05 33 75 01 00 	lea    0x17533(%rip),%rax        # 22050 <g_1855>
    ab1d:	48 89 85 00 fc ff ff 	mov    %rax,-0x400(%rbp)
    ab24:	48 8d 05 25 75 01 00 	lea    0x17525(%rip),%rax        # 22050 <g_1855>
    ab2b:	48 89 85 08 fc ff ff 	mov    %rax,-0x3f8(%rbp)
    ab32:	48 c7 85 10 fc ff ff 	movq   $0x0,-0x3f0(%rbp)
    ab39:	00 00 00 00 
    ab3d:	48 8d 05 0c 75 01 00 	lea    0x1750c(%rip),%rax        # 22050 <g_1855>
    ab44:	48 89 85 18 fc ff ff 	mov    %rax,-0x3e8(%rbp)
    ab4b:	48 8d 05 fe 74 01 00 	lea    0x174fe(%rip),%rax        # 22050 <g_1855>
    ab52:	48 89 85 20 fc ff ff 	mov    %rax,-0x3e0(%rbp)
    ab59:	48 c7 85 28 fc ff ff 	movq   $0x0,-0x3d8(%rbp)
    ab60:	00 00 00 00 
    ab64:	48 8d 85 30 e1 ff ff 	lea    -0x1ed0(%rbp),%rax
    ab6b:	48 89 85 30 fc ff ff 	mov    %rax,-0x3d0(%rbp)
    ab72:	48 8d 05 d7 69 01 00 	lea    0x169d7(%rip),%rax        # 21550 <g_106+0x30>
    ab79:	48 89 85 38 fc ff ff 	mov    %rax,-0x3c8(%rbp)
    ab80:	48 8d 85 28 e1 ff ff 	lea    -0x1ed8(%rbp),%rax
    ab87:	48 89 85 40 fc ff ff 	mov    %rax,-0x3c0(%rbp)
    ab8e:	48 8d 05 bb 74 01 00 	lea    0x174bb(%rip),%rax        # 22050 <g_1855>
    ab95:	48 89 85 48 fc ff ff 	mov    %rax,-0x3b8(%rbp)
    ab9c:	48 8d 85 50 e1 ff ff 	lea    -0x1eb0(%rbp),%rax
    aba3:	48 89 85 50 fc ff ff 	mov    %rax,-0x3b0(%rbp)
    abaa:	48 c7 85 58 fc ff ff 	movq   $0x0,-0x3a8(%rbp)
    abb1:	00 00 00 00 
    abb5:	48 8d 05 94 69 01 00 	lea    0x16994(%rip),%rax        # 21550 <g_106+0x30>
    abbc:	48 89 85 60 fc ff ff 	mov    %rax,-0x3a0(%rbp)
    abc3:	48 8d 85 38 e1 ff ff 	lea    -0x1ec8(%rbp),%rax
    abca:	48 89 85 68 fc ff ff 	mov    %rax,-0x398(%rbp)
    abd1:	48 8d 05 78 74 01 00 	lea    0x17478(%rip),%rax        # 22050 <g_1855>
    abd8:	48 89 85 70 fc ff ff 	mov    %rax,-0x390(%rbp)
    abdf:	48 8d 85 40 e1 ff ff 	lea    -0x1ec0(%rbp),%rax
    abe6:	48 89 85 78 fc ff ff 	mov    %rax,-0x388(%rbp)
    abed:	48 8d 85 20 e1 ff ff 	lea    -0x1ee0(%rbp),%rax
    abf4:	48 89 85 80 fc ff ff 	mov    %rax,-0x380(%rbp)
    abfb:	48 8d 85 38 e1 ff ff 	lea    -0x1ec8(%rbp),%rax
    ac02:	48 89 85 88 fc ff ff 	mov    %rax,-0x378(%rbp)
    ac09:	48 8d 85 40 e1 ff ff 	lea    -0x1ec0(%rbp),%rax
    ac10:	48 89 85 90 fc ff ff 	mov    %rax,-0x370(%rbp)
    ac17:	48 c7 85 98 fc ff ff 	movq   $0x0,-0x368(%rbp)
    ac1e:	00 00 00 00 
    ac22:	48 8d 85 b0 e4 ff ff 	lea    -0x1b50(%rbp),%rax
    ac29:	48 89 85 a0 fc ff ff 	mov    %rax,-0x360(%rbp)
    ac30:	48 8d 05 19 74 01 00 	lea    0x17419(%rip),%rax        # 22050 <g_1855>
    ac37:	48 89 85 a8 fc ff ff 	mov    %rax,-0x358(%rbp)
    ac3e:	48 8d 85 48 e1 ff ff 	lea    -0x1eb8(%rbp),%rax
    ac45:	48 89 85 b0 fc ff ff 	mov    %rax,-0x350(%rbp)
    ac4c:	48 8d 05 fd 68 01 00 	lea    0x168fd(%rip),%rax        # 21550 <g_106+0x30>
    ac53:	48 89 85 b8 fc ff ff 	mov    %rax,-0x348(%rbp)
    ac5a:	48 8d 85 40 e1 ff ff 	lea    -0x1ec0(%rbp),%rax
    ac61:	48 89 85 c0 fc ff ff 	mov    %rax,-0x340(%rbp)
    ac68:	48 c7 85 c8 fc ff ff 	movq   $0x0,-0x338(%rbp)
    ac6f:	00 00 00 00 
    ac73:	48 8d 85 50 e1 ff ff 	lea    -0x1eb0(%rbp),%rax
    ac7a:	48 89 85 d0 fc ff ff 	mov    %rax,-0x330(%rbp)
    ac81:	48 8d 05 c8 73 01 00 	lea    0x173c8(%rip),%rax        # 22050 <g_1855>
    ac88:	48 89 85 d8 fc ff ff 	mov    %rax,-0x328(%rbp)
    ac8f:	48 8d 85 38 e1 ff ff 	lea    -0x1ec8(%rbp),%rax
    ac96:	48 89 85 e0 fc ff ff 	mov    %rax,-0x320(%rbp)
    ac9d:	48 8d 05 ac 73 01 00 	lea    0x173ac(%rip),%rax        # 22050 <g_1855>
    aca4:	48 89 85 e8 fc ff ff 	mov    %rax,-0x318(%rbp)
    acab:	48 8d 85 50 e1 ff ff 	lea    -0x1eb0(%rbp),%rax
    acb2:	48 89 85 f0 fc ff ff 	mov    %rax,-0x310(%rbp)
    acb9:	48 8d 85 b0 e4 ff ff 	lea    -0x1b50(%rbp),%rax
    acc0:	48 89 85 f8 fc ff ff 	mov    %rax,-0x308(%rbp)
    acc7:	48 8d 85 40 e1 ff ff 	lea    -0x1ec0(%rbp),%rax
    acce:	48 89 85 00 fd ff ff 	mov    %rax,-0x300(%rbp)
    acd5:	48 8d 85 30 e1 ff ff 	lea    -0x1ed0(%rbp),%rax
    acdc:	48 89 85 08 fd ff ff 	mov    %rax,-0x2f8(%rbp)
    ace3:	48 8d 85 48 e1 ff ff 	lea    -0x1eb8(%rbp),%rax
    acea:	48 89 85 10 fd ff ff 	mov    %rax,-0x2f0(%rbp)
    acf1:	48 8d 85 38 e1 ff ff 	lea    -0x1ec8(%rbp),%rax
    acf8:	48 89 85 18 fd ff ff 	mov    %rax,-0x2e8(%rbp)
    acff:	48 8d 85 b0 e4 ff ff 	lea    -0x1b50(%rbp),%rax
    ad06:	48 89 85 20 fd ff ff 	mov    %rax,-0x2e0(%rbp)
    ad0d:	48 8d 85 b0 e4 ff ff 	lea    -0x1b50(%rbp),%rax
    ad14:	48 89 85 28 fd ff ff 	mov    %rax,-0x2d8(%rbp)
    ad1b:	48 8d 85 40 e1 ff ff 	lea    -0x1ec0(%rbp),%rax
    ad22:	48 89 85 30 fd ff ff 	mov    %rax,-0x2d0(%rbp)
    ad29:	48 8d 85 50 e1 ff ff 	lea    -0x1eb0(%rbp),%rax
    ad30:	48 89 85 38 fd ff ff 	mov    %rax,-0x2c8(%rbp)
    ad37:	48 8d 85 20 e1 ff ff 	lea    -0x1ee0(%rbp),%rax
    ad3e:	48 89 85 40 fd ff ff 	mov    %rax,-0x2c0(%rbp)
    ad45:	48 8d 85 50 e1 ff ff 	lea    -0x1eb0(%rbp),%rax
    ad4c:	48 89 85 48 fd ff ff 	mov    %rax,-0x2b8(%rbp)
    ad53:	48 8d 05 f6 72 01 00 	lea    0x172f6(%rip),%rax        # 22050 <g_1855>
    ad5a:	48 89 85 50 fd ff ff 	mov    %rax,-0x2b0(%rbp)
    ad61:	48 8d 85 50 e1 ff ff 	lea    -0x1eb0(%rbp),%rax
    ad68:	48 89 85 58 fd ff ff 	mov    %rax,-0x2a8(%rbp)
    ad6f:	48 8d 05 da 67 01 00 	lea    0x167da(%rip),%rax        # 21550 <g_106+0x30>
    ad76:	48 89 85 60 fd ff ff 	mov    %rax,-0x2a0(%rbp)
    ad7d:	48 8d 85 b0 e4 ff ff 	lea    -0x1b50(%rbp),%rax
    ad84:	48 89 85 68 fd ff ff 	mov    %rax,-0x298(%rbp)
    ad8b:	48 8d 85 50 e1 ff ff 	lea    -0x1eb0(%rbp),%rax
    ad92:	48 89 85 70 fd ff ff 	mov    %rax,-0x290(%rbp)
    ad99:	48 8d 85 38 e1 ff ff 	lea    -0x1ec8(%rbp),%rax
    ada0:	48 89 85 78 fd ff ff 	mov    %rax,-0x288(%rbp)
    ada7:	48 8d 85 28 e1 ff ff 	lea    -0x1ed8(%rbp),%rax
    adae:	48 89 85 80 fd ff ff 	mov    %rax,-0x280(%rbp)
    adb5:	48 8d 85 30 e1 ff ff 	lea    -0x1ed0(%rbp),%rax
    adbc:	48 89 85 88 fd ff ff 	mov    %rax,-0x278(%rbp)
    adc3:	48 8d 85 30 e1 ff ff 	lea    -0x1ed0(%rbp),%rax
    adca:	48 89 85 90 fd ff ff 	mov    %rax,-0x270(%rbp)
    add1:	48 8d 85 b0 e4 ff ff 	lea    -0x1b50(%rbp),%rax
    add8:	48 89 85 98 fd ff ff 	mov    %rax,-0x268(%rbp)
    addf:	48 8d 05 6a 72 01 00 	lea    0x1726a(%rip),%rax        # 22050 <g_1855>
    ade6:	48 89 85 a0 fd ff ff 	mov    %rax,-0x260(%rbp)
    aded:	48 8d 05 5c 72 01 00 	lea    0x1725c(%rip),%rax        # 22050 <g_1855>
    adf4:	48 89 85 a8 fd ff ff 	mov    %rax,-0x258(%rbp)
    adfb:	48 c7 85 b0 fd ff ff 	movq   $0x0,-0x250(%rbp)
    ae02:	00 00 00 00 
    ae06:	48 8d 05 43 72 01 00 	lea    0x17243(%rip),%rax        # 22050 <g_1855>
    ae0d:	48 89 85 b8 fd ff ff 	mov    %rax,-0x248(%rbp)
    ae14:	48 8d 05 35 72 01 00 	lea    0x17235(%rip),%rax        # 22050 <g_1855>
    ae1b:	48 89 85 c0 fd ff ff 	mov    %rax,-0x240(%rbp)
    ae22:	48 c7 85 c8 fd ff ff 	movq   $0x0,-0x238(%rbp)
    ae29:	00 00 00 00 
    ae2d:	48 8d 85 30 e1 ff ff 	lea    -0x1ed0(%rbp),%rax
    ae34:	48 89 85 d0 fd ff ff 	mov    %rax,-0x230(%rbp)
    ae3b:	48 8d 05 0e 67 01 00 	lea    0x1670e(%rip),%rax        # 21550 <g_106+0x30>
    ae42:	48 89 85 d8 fd ff ff 	mov    %rax,-0x228(%rbp)
    ae49:	48 8d 85 28 e1 ff ff 	lea    -0x1ed8(%rbp),%rax
    ae50:	48 89 85 e0 fd ff ff 	mov    %rax,-0x220(%rbp)
    ae57:	48 8d 05 f2 71 01 00 	lea    0x171f2(%rip),%rax        # 22050 <g_1855>
    ae5e:	48 89 85 e8 fd ff ff 	mov    %rax,-0x218(%rbp)
    ae65:	48 8d 85 50 e1 ff ff 	lea    -0x1eb0(%rbp),%rax
    ae6c:	48 89 85 f0 fd ff ff 	mov    %rax,-0x210(%rbp)
    ae73:	48 c7 85 f8 fd ff ff 	movq   $0x0,-0x208(%rbp)
    ae7a:	00 00 00 00 
    ae7e:	48 8d 05 cb 66 01 00 	lea    0x166cb(%rip),%rax        # 21550 <g_106+0x30>
    ae85:	48 89 85 00 fe ff ff 	mov    %rax,-0x200(%rbp)
    ae8c:	48 8d 85 38 e1 ff ff 	lea    -0x1ec8(%rbp),%rax
    ae93:	48 89 85 08 fe ff ff 	mov    %rax,-0x1f8(%rbp)
    ae9a:	48 8d 05 af 71 01 00 	lea    0x171af(%rip),%rax        # 22050 <g_1855>
    aea1:	48 89 85 10 fe ff ff 	mov    %rax,-0x1f0(%rbp)
    aea8:	48 8d 85 40 e1 ff ff 	lea    -0x1ec0(%rbp),%rax
    aeaf:	48 89 85 18 fe ff ff 	mov    %rax,-0x1e8(%rbp)
    aeb6:	48 8d 85 20 e1 ff ff 	lea    -0x1ee0(%rbp),%rax
    aebd:	48 89 85 20 fe ff ff 	mov    %rax,-0x1e0(%rbp)
    aec4:	48 8d 85 38 e1 ff ff 	lea    -0x1ec8(%rbp),%rax
    aecb:	48 89 85 28 fe ff ff 	mov    %rax,-0x1d8(%rbp)
    aed2:	48 8d 85 40 e1 ff ff 	lea    -0x1ec0(%rbp),%rax
    aed9:	48 89 85 30 fe ff ff 	mov    %rax,-0x1d0(%rbp)
    aee0:	48 c7 85 38 fe ff ff 	movq   $0x0,-0x1c8(%rbp)
    aee7:	00 00 00 00 
    aeeb:	48 8d 85 b0 e4 ff ff 	lea    -0x1b50(%rbp),%rax
    aef2:	48 89 85 40 fe ff ff 	mov    %rax,-0x1c0(%rbp)
    aef9:	48 8d 05 50 71 01 00 	lea    0x17150(%rip),%rax        # 22050 <g_1855>
    af00:	48 89 85 48 fe ff ff 	mov    %rax,-0x1b8(%rbp)
    af07:	48 8d 85 48 e1 ff ff 	lea    -0x1eb8(%rbp),%rax
    af0e:	48 89 85 50 fe ff ff 	mov    %rax,-0x1b0(%rbp)
    af15:	48 8d 05 34 66 01 00 	lea    0x16634(%rip),%rax        # 21550 <g_106+0x30>
    af1c:	48 89 85 58 fe ff ff 	mov    %rax,-0x1a8(%rbp)
    af23:	48 8d 85 40 e1 ff ff 	lea    -0x1ec0(%rbp),%rax
    af2a:	48 89 85 60 fe ff ff 	mov    %rax,-0x1a0(%rbp)
    af31:	48 c7 85 68 fe ff ff 	movq   $0x0,-0x198(%rbp)
    af38:	00 00 00 00 
    af3c:	48 8d 85 50 e1 ff ff 	lea    -0x1eb0(%rbp),%rax
    af43:	48 89 85 70 fe ff ff 	mov    %rax,-0x190(%rbp)
    af4a:	48 8d 05 ff 70 01 00 	lea    0x170ff(%rip),%rax        # 22050 <g_1855>
    af51:	48 89 85 78 fe ff ff 	mov    %rax,-0x188(%rbp)
    af58:	48 8d 85 38 e1 ff ff 	lea    -0x1ec8(%rbp),%rax
    af5f:	48 89 85 80 fe ff ff 	mov    %rax,-0x180(%rbp)
    af66:	48 8d 05 e3 70 01 00 	lea    0x170e3(%rip),%rax        # 22050 <g_1855>
    af6d:	48 89 85 88 fe ff ff 	mov    %rax,-0x178(%rbp)
    af74:	48 8d 85 50 e1 ff ff 	lea    -0x1eb0(%rbp),%rax
    af7b:	48 89 85 90 fe ff ff 	mov    %rax,-0x170(%rbp)
    af82:	48 8d 85 b0 e4 ff ff 	lea    -0x1b50(%rbp),%rax
    af89:	48 89 85 98 fe ff ff 	mov    %rax,-0x168(%rbp)
    af90:	48 8d 85 40 e1 ff ff 	lea    -0x1ec0(%rbp),%rax
    af97:	48 89 85 a0 fe ff ff 	mov    %rax,-0x160(%rbp)
    af9e:	48 8d 85 30 e1 ff ff 	lea    -0x1ed0(%rbp),%rax
    afa5:	48 89 85 a8 fe ff ff 	mov    %rax,-0x158(%rbp)
    afac:	48 8d 85 48 e1 ff ff 	lea    -0x1eb8(%rbp),%rax
    afb3:	48 89 85 b0 fe ff ff 	mov    %rax,-0x150(%rbp)
    afba:	48 8d 85 38 e1 ff ff 	lea    -0x1ec8(%rbp),%rax
    afc1:	48 89 85 b8 fe ff ff 	mov    %rax,-0x148(%rbp)
    afc8:	48 8d 85 b0 e4 ff ff 	lea    -0x1b50(%rbp),%rax
    afcf:	48 89 85 c0 fe ff ff 	mov    %rax,-0x140(%rbp)
    afd6:	48 8d 85 b0 e4 ff ff 	lea    -0x1b50(%rbp),%rax
    afdd:	48 89 85 c8 fe ff ff 	mov    %rax,-0x138(%rbp)
    afe4:	48 8d 85 40 e1 ff ff 	lea    -0x1ec0(%rbp),%rax
    afeb:	48 89 85 d0 fe ff ff 	mov    %rax,-0x130(%rbp)
    aff2:	48 8d 85 50 e1 ff ff 	lea    -0x1eb0(%rbp),%rax
    aff9:	48 89 85 d8 fe ff ff 	mov    %rax,-0x128(%rbp)
    b000:	48 8d 85 20 e1 ff ff 	lea    -0x1ee0(%rbp),%rax
    b007:	48 89 85 e0 fe ff ff 	mov    %rax,-0x120(%rbp)
    b00e:	48 8d 85 50 e1 ff ff 	lea    -0x1eb0(%rbp),%rax
    b015:	48 89 85 e8 fe ff ff 	mov    %rax,-0x118(%rbp)
    b01c:	48 8d 05 2d 70 01 00 	lea    0x1702d(%rip),%rax        # 22050 <g_1855>
    b023:	48 89 85 f0 fe ff ff 	mov    %rax,-0x110(%rbp)
    b02a:	48 8d 85 50 e1 ff ff 	lea    -0x1eb0(%rbp),%rax
    b031:	48 89 85 f8 fe ff ff 	mov    %rax,-0x108(%rbp)
    b038:	48 8d 05 11 65 01 00 	lea    0x16511(%rip),%rax        # 21550 <g_106+0x30>
    b03f:	48 89 85 00 ff ff ff 	mov    %rax,-0x100(%rbp)
    b046:	48 8d 85 b0 e4 ff ff 	lea    -0x1b50(%rbp),%rax
    b04d:	48 89 85 08 ff ff ff 	mov    %rax,-0xf8(%rbp)
    b054:	48 8d 85 50 e1 ff ff 	lea    -0x1eb0(%rbp),%rax
    b05b:	48 89 85 10 ff ff ff 	mov    %rax,-0xf0(%rbp)
    b062:	48 8d 85 38 e1 ff ff 	lea    -0x1ec8(%rbp),%rax
    b069:	48 89 85 18 ff ff ff 	mov    %rax,-0xe8(%rbp)
    b070:	48 8d 85 28 e1 ff ff 	lea    -0x1ed8(%rbp),%rax
    b077:	48 89 85 20 ff ff ff 	mov    %rax,-0xe0(%rbp)
    b07e:	48 8d 85 30 e1 ff ff 	lea    -0x1ed0(%rbp),%rax
    b085:	48 89 85 28 ff ff ff 	mov    %rax,-0xd8(%rbp)
    b08c:	48 8d 85 30 e1 ff ff 	lea    -0x1ed0(%rbp),%rax
    b093:	48 89 85 30 ff ff ff 	mov    %rax,-0xd0(%rbp)
    b09a:	48 8d 85 b0 e4 ff ff 	lea    -0x1b50(%rbp),%rax
    b0a1:	48 89 85 38 ff ff ff 	mov    %rax,-0xc8(%rbp)
    b0a8:	48 8d 05 a1 6f 01 00 	lea    0x16fa1(%rip),%rax        # 22050 <g_1855>
    b0af:	48 89 85 40 ff ff ff 	mov    %rax,-0xc0(%rbp)
    b0b6:	48 8d 05 93 6f 01 00 	lea    0x16f93(%rip),%rax        # 22050 <g_1855>
    b0bd:	48 89 85 48 ff ff ff 	mov    %rax,-0xb8(%rbp)
    b0c4:	48 c7 85 50 ff ff ff 	movq   $0x0,-0xb0(%rbp)
    b0cb:	00 00 00 00 
    b0cf:	48 8d 05 7a 6f 01 00 	lea    0x16f7a(%rip),%rax        # 22050 <g_1855>
    b0d6:	48 89 85 58 ff ff ff 	mov    %rax,-0xa8(%rbp)
    b0dd:	48 8d 05 6c 6f 01 00 	lea    0x16f6c(%rip),%rax        # 22050 <g_1855>
    b0e4:	48 89 85 60 ff ff ff 	mov    %rax,-0xa0(%rbp)
    b0eb:	48 c7 85 68 ff ff ff 	movq   $0x0,-0x98(%rbp)
    b0f2:	00 00 00 00 
    b0f6:	48 8d 85 30 e1 ff ff 	lea    -0x1ed0(%rbp),%rax
    b0fd:	48 89 85 70 ff ff ff 	mov    %rax,-0x90(%rbp)
    b104:	48 8d 05 45 64 01 00 	lea    0x16445(%rip),%rax        # 21550 <g_106+0x30>
    b10b:	48 89 85 78 ff ff ff 	mov    %rax,-0x88(%rbp)
    b112:	48 8d 85 28 e1 ff ff 	lea    -0x1ed8(%rbp),%rax
    b119:	48 89 45 80          	mov    %rax,-0x80(%rbp)
    b11d:	48 8d 05 2c 6f 01 00 	lea    0x16f2c(%rip),%rax        # 22050 <g_1855>
    b124:	48 89 45 88          	mov    %rax,-0x78(%rbp)
    b128:	48 8d 85 50 e1 ff ff 	lea    -0x1eb0(%rbp),%rax
    b12f:	48 89 45 90          	mov    %rax,-0x70(%rbp)
    b133:	48 c7 45 98 00 00 00 	movq   $0x0,-0x68(%rbp)
    b13a:	00 
    b13b:	48 8d 05 0e 64 01 00 	lea    0x1640e(%rip),%rax        # 21550 <g_106+0x30>
    b142:	48 89 45 a0          	mov    %rax,-0x60(%rbp)
    b146:	48 8d 85 38 e1 ff ff 	lea    -0x1ec8(%rbp),%rax
    b14d:	48 89 45 a8          	mov    %rax,-0x58(%rbp)
    b151:	48 8b 95 c8 fe ff ff 	mov    -0x138(%rbp),%rdx
    b158:	48 8b 85 b8 ea ff ff 	mov    -0x1548(%rbp),%rax
    b15f:	48 39 c2             	cmp    %rax,%rdx
    b162:	0f 95 c0             	setne  %al
    b165:	0f b6 d0             	movzbl %al,%edx
    b168:	48 8b 85 c8 e2 ff ff 	mov    -0x1d38(%rbp),%rax
    b16f:	89 10                	mov    %edx,(%rax)
    b171:	66 c7 05 34 2f 01 00 	movw   $0x0,0x12f34(%rip)        # 1e0ae <g_34>
    b178:	00 00 
    b17a:	e9 da 00 00 00       	jmpq   b259 <func_14+0x3445>
    b17f:	48 8d 85 30 e5 ff ff 	lea    -0x1ad0(%rbp),%rax
    b186:	48 89 85 e8 e2 ff ff 	mov    %rax,-0x1d18(%rbp)
    b18d:	c7 85 98 e0 ff ff 4b 	movl   $0x9c345b4b,-0x1f68(%rbp)
    b194:	5b 34 9c 
    b197:	48 b8 8f 12 db 62 28 	movabs $0x9515a02862db128f,%rax
    b19e:	a0 15 95 
    b1a1:	48 89 85 e0 e7 ff ff 	mov    %rax,-0x1820(%rbp)
    b1a8:	48 89 85 e8 e7 ff ff 	mov    %rax,-0x1818(%rbp)
    b1af:	48 89 85 f0 e7 ff ff 	mov    %rax,-0x1810(%rbp)
    b1b6:	48 89 85 f8 e7 ff ff 	mov    %rax,-0x1808(%rbp)
    b1bd:	48 89 85 00 e8 ff ff 	mov    %rax,-0x1800(%rbp)
    b1c4:	c7 85 ec df ff ff 00 	movl   $0x0,-0x2014(%rbp)
    b1cb:	00 00 00 
    b1ce:	eb 1a                	jmp    b1ea <func_14+0x33d6>
    b1d0:	8b 85 ec df ff ff    	mov    -0x2014(%rbp),%eax
    b1d6:	48 98                	cltq   
    b1d8:	c7 84 85 20 e4 ff ff 	movl   $0x1,-0x1be0(%rbp,%rax,4)
    b1df:	01 00 00 00 
    b1e3:	83 85 ec df ff ff 01 	addl   $0x1,-0x2014(%rbp)
    b1ea:	83 bd ec df ff ff 00 	cmpl   $0x0,-0x2014(%rbp)
    b1f1:	7e dd                	jle    b1d0 <func_14+0x33bc>
    b1f3:	48 8b 85 c8 e2 ff ff 	mov    -0x1d38(%rbp),%rax
    b1fa:	c7 00 ff ff ff ff    	movl   $0xffffffff,(%rax)
    b200:	48 8b 85 88 e2 ff ff 	mov    -0x1d78(%rbp),%rax
    b207:	48 89 85 e8 e2 ff ff 	mov    %rax,-0x1d18(%rbp)
    b20e:	48 8b 85 e8 e2 ff ff 	mov    -0x1d18(%rbp),%rax
    b215:	48 3b 85 78 e1 ff ff 	cmp    -0x1e88(%rbp),%rax
    b21c:	0f 95 c0             	setne  %al
    b21f:	0f b6 c8             	movzbl %al,%ecx
    b222:	48 8b 85 50 e1 ff ff 	mov    -0x1eb0(%rbp),%rax
    b229:	8b 10                	mov    (%rax),%edx
    b22b:	48 8b 85 50 e1 ff ff 	mov    -0x1eb0(%rbp),%rax
    b232:	21 ca                	and    %ecx,%edx
    b234:	89 10                	mov    %edx,(%rax)
    b236:	48 8b 85 f0 e7 ff ff 	mov    -0x1810(%rbp),%rax
    b23d:	48 83 e8 01          	sub    $0x1,%rax
    b241:	48 89 85 f0 e7 ff ff 	mov    %rax,-0x1810(%rbp)
    b248:	0f b7 05 5f 2e 01 00 	movzwl 0x12e5f(%rip),%eax        # 1e0ae <g_34>
    b24f:	83 c0 01             	add    $0x1,%eax
    b252:	66 89 05 55 2e 01 00 	mov    %ax,0x12e55(%rip)        # 1e0ae <g_34>
    b259:	0f b7 05 4e 2e 01 00 	movzwl 0x12e4e(%rip),%eax        # 1e0ae <g_34>
    b260:	66 85 c0             	test   %ax,%ax
    b263:	0f 84 16 ff ff ff    	je     b17f <func_14+0x336b>
    b269:	8b 05 41 31 01 00    	mov    0x13141(%rip),%eax        # 1e3b0 <g_312>
    b26f:	83 c0 01             	add    $0x1,%eax
    b272:	89 05 38 31 01 00    	mov    %eax,0x13138(%rip)        # 1e3b0 <g_312>
    b278:	8b 05 32 31 01 00    	mov    0x13132(%rip),%eax        # 1e3b0 <g_312>
    b27e:	85 c0                	test   %eax,%eax
    b280:	0f 84 60 f1 ff ff    	je     a3e6 <func_14+0x25d2>
    b286:	83 85 5c df ff ff 01 	addl   $0x1,-0x20a4(%rbp)
    b28d:	83 bd 5c df ff ff 03 	cmpl   $0x3,-0x20a4(%rbp)
    b294:	0f 86 d3 e9 ff ff    	jbe    9c6d <func_14+0x1e59>
    b29a:	e9 b6 08 00 00       	jmpq   bb55 <func_14+0x3d41>
    b29f:	c7 85 5c e0 ff ff 09 	movl   $0x9,-0x1fa4(%rbp)
    b2a6:	00 00 00 
    b2a9:	c7 85 50 e1 ff ff 0d 	movl   $0xe60ddc0d,-0x1eb0(%rbp)
    b2b0:	dc 0d e6 
    b2b3:	c7 85 f0 df ff ff 07 	movl   $0x7,-0x2010(%rbp)
    b2ba:	00 00 00 
    b2bd:	c7 85 60 e0 ff ff 01 	movl   $0x1,-0x1fa0(%rbp)
    b2c4:	00 00 00 
    b2c7:	48 8d 05 6a 6c 01 00 	lea    0x16c6a(%rip),%rax        # 21f38 <g_639>
    b2ce:	48 89 85 20 e2 ff ff 	mov    %rax,-0x1de0(%rbp)
    b2d5:	c7 85 64 e0 ff ff fb 	movl   $0xfffffffb,-0x1f9c(%rbp)
    b2dc:	ff ff ff 
    b2df:	c7 85 f4 df ff ff 00 	movl   $0x0,-0x200c(%rbp)
    b2e6:	00 00 00 
    b2e9:	eb 1a                	jmp    b305 <func_14+0x34f1>
    b2eb:	8b 85 f4 df ff ff    	mov    -0x200c(%rbp),%eax
    b2f1:	48 98                	cltq   
    b2f3:	c7 84 85 e0 e6 ff ff 	movl   $0xfffffffa,-0x1920(%rbp,%rax,4)
    b2fa:	fa ff ff ff 
    b2fe:	83 85 f4 df ff ff 01 	addl   $0x1,-0x200c(%rbp)
    b305:	83 bd f4 df ff ff 01 	cmpl   $0x1,-0x200c(%rbp)
    b30c:	7e dd                	jle    b2eb <func_14+0x34d7>
    b30e:	c7 85 88 df ff ff 18 	movl   $0x18,-0x2078(%rbp)
    b315:	00 00 00 
    b318:	e9 51 01 00 00       	jmpq   b46e <func_14+0x365a>
    b31d:	c6 85 6f df ff ff fc 	movb   $0xfc,-0x2091(%rbp)
    b324:	c7 85 d0 f7 ff ff 73 	movl   $0xb701b973,-0x830(%rbp)
    b32b:	b9 01 b7 
    b32e:	c7 85 d4 f7 ff ff 5f 	movl   $0x1e26985f,-0x82c(%rbp)
    b335:	98 26 1e 
    b338:	c7 85 d8 f7 ff ff 5f 	movl   $0x1e26985f,-0x828(%rbp)
    b33f:	98 26 1e 
    b342:	c7 85 dc f7 ff ff 73 	movl   $0xb701b973,-0x824(%rbp)
    b349:	b9 01 b7 
    b34c:	c7 85 e0 f7 ff ff 5f 	movl   $0x1e26985f,-0x820(%rbp)
    b353:	98 26 1e 
    b356:	c7 85 e4 f7 ff ff 5f 	movl   $0x1e26985f,-0x81c(%rbp)
    b35d:	98 26 1e 
    b360:	c7 85 e8 f7 ff ff 73 	movl   $0xb701b973,-0x818(%rbp)
    b367:	b9 01 b7 
    b36a:	c7 85 ec f7 ff ff 5f 	movl   $0x1e26985f,-0x814(%rbp)
    b371:	98 26 1e 
    b374:	c7 85 f0 f7 ff ff 5f 	movl   $0x1e26985f,-0x810(%rbp)
    b37b:	98 26 1e 
    b37e:	c7 85 f4 f7 ff ff 73 	movl   $0xb701b973,-0x80c(%rbp)
    b385:	b9 01 b7 
    b388:	83 ad b0 df ff ff 01 	subl   $0x1,-0x2050(%rbp)
    b38f:	bf 00 00 00 00       	mov    $0x0,%edi
    b394:	e8 26 ae ff ff       	callq  61bf <safe_unary_minus_func_int8_t_s>
    b399:	0f be c0             	movsbl %al,%eax
    b39c:	0b 85 5c df ff ff    	or     -0x20a4(%rbp),%eax
    b3a2:	89 c3                	mov    %eax,%ebx
    b3a4:	48 8b 05 65 6c 01 00 	mov    0x16c65(%rip),%rax        # 22010 <g_1802>
    b3ab:	48 c7 00 00 00 00 00 	movq   $0x0,(%rax)
    b3b2:	48 8b 05 97 6b 01 00 	mov    0x16b97(%rip),%rax        # 21f50 <g_847>
    b3b9:	48 8b 00             	mov    (%rax),%rax
    b3bc:	8b 95 f0 df ff ff    	mov    -0x2010(%rbp),%edx
    b3c2:	89 10                	mov    %edx,(%rax)
    b3c4:	8b 10                	mov    (%rax),%edx
    b3c6:	83 bd 5c df ff ff 09 	cmpl   $0x9,-0x20a4(%rbp)
    b3cd:	0f 97 c0             	seta   %al
    b3d0:	0f b6 c0             	movzbl %al,%eax
    b3d3:	21 d0                	and    %edx,%eax
    b3d5:	89 c0                	mov    %eax,%eax
    b3d7:	be 00 00 00 00       	mov    $0x0,%esi
    b3dc:	48 89 c7             	mov    %rax,%rdi
    b3df:	e8 81 bc ff ff       	callq  7065 <safe_mul_func_uint64_t_u_u>
    b3e4:	8b 95 60 e0 ff ff    	mov    -0x1fa0(%rbp),%edx
    b3ea:	48 31 d0             	xor    %rdx,%rax
    b3ed:	48 39 c3             	cmp    %rax,%rbx
    b3f0:	0f 95 c0             	setne  %al
    b3f3:	44 0f b6 e0          	movzbl %al,%r12d
    b3f7:	8b 85 9c df ff ff    	mov    -0x2064(%rbp),%eax
    b3fd:	0f bf d8             	movswl %ax,%ebx
    b400:	48 c7 85 80 e1 ff ff 	movq   $0x1,-0x1e80(%rbp)
    b407:	01 00 00 00 
    b40b:	8b 85 dc f7 ff ff    	mov    -0x824(%rbp),%eax
    b411:	83 e0 01             	and    $0x1,%eax
    b414:	89 85 90 df ff ff    	mov    %eax,-0x2070(%rbp)
    b41a:	8b 85 90 df ff ff    	mov    -0x2070(%rbp),%eax
    b420:	98                   	cwtl   
    b421:	be 03 00 00 00       	mov    $0x3,%esi
    b426:	89 c7                	mov    %eax,%edi
    b428:	e8 c8 af ff ff       	callq  63f5 <safe_mul_func_int16_t_s_s>
    b42d:	83 bd 5c e0 ff ff 01 	cmpl   $0x1,-0x1fa4(%rbp)
    b434:	0f 9f c0             	setg   %al
    b437:	0f b6 c0             	movzbl %al,%eax
    b43a:	89 de                	mov    %ebx,%esi
    b43c:	89 c7                	mov    %eax,%edi
    b43e:	e8 70 af ff ff       	callq  63b3 <safe_add_func_int16_t_s_s>
    b443:	98                   	cwtl   
    b444:	39 85 5c df ff ff    	cmp    %eax,-0x20a4(%rbp)
    b44a:	0f 92 c0             	setb   %al
    b44d:	0f b6 c0             	movzbl %al,%eax
    b450:	41 39 c4             	cmp    %eax,%r12d
    b453:	0f 9d c0             	setge  %al
    b456:	0f b6 c0             	movzbl %al,%eax
    b459:	89 85 e4 e6 ff ff    	mov    %eax,-0x191c(%rbp)
    b45f:	8b 85 88 df ff ff    	mov    -0x2078(%rbp),%eax
    b465:	83 e8 01             	sub    $0x1,%eax
    b468:	89 85 88 df ff ff    	mov    %eax,-0x2078(%rbp)
    b46e:	8b 85 88 df ff ff    	mov    -0x2078(%rbp),%eax
    b474:	83 f8 e5             	cmp    $0xffffffe5,%eax
    b477:	0f 8d a0 fe ff ff    	jge    b31d <func_14+0x3509>
    b47d:	83 bd 5c df ff ff 00 	cmpl   $0x0,-0x20a4(%rbp)
    b484:	74 15                	je     b49b <func_14+0x3687>
    b486:	48 8b 05 93 37 01 00 	mov    0x13793(%rip),%rax        # 1ec20 <g_1286+0x10>
    b48d:	48 c1 e0 12          	shl    $0x12,%rax
    b491:	48 c1 f8 30          	sar    $0x30,%rax
    b495:	98                   	cwtl   
    b496:	e9 12 25 00 00       	jmpq   d9ad <func_14+0x5b99>
    b49b:	48 8d 85 e0 e6 ff ff 	lea    -0x1920(%rbp),%rax
    b4a2:	48 89 85 d0 f7 ff ff 	mov    %rax,-0x830(%rbp)
    b4a9:	48 8d 85 e0 e6 ff ff 	lea    -0x1920(%rbp),%rax
    b4b0:	48 89 85 d8 f7 ff ff 	mov    %rax,-0x828(%rbp)
    b4b7:	48 8d 85 e0 e6 ff ff 	lea    -0x1920(%rbp),%rax
    b4be:	48 89 85 e0 f7 ff ff 	mov    %rax,-0x820(%rbp)
    b4c5:	48 8d 85 e0 e6 ff ff 	lea    -0x1920(%rbp),%rax
    b4cc:	48 89 85 e8 f7 ff ff 	mov    %rax,-0x818(%rbp)
    b4d3:	48 8d 85 e0 e6 ff ff 	lea    -0x1920(%rbp),%rax
    b4da:	48 89 85 f0 f7 ff ff 	mov    %rax,-0x810(%rbp)
    b4e1:	48 8d 85 e0 e6 ff ff 	lea    -0x1920(%rbp),%rax
    b4e8:	48 89 85 f8 f7 ff ff 	mov    %rax,-0x808(%rbp)
    b4ef:	48 8d 85 e0 e6 ff ff 	lea    -0x1920(%rbp),%rax
    b4f6:	48 89 85 00 f8 ff ff 	mov    %rax,-0x800(%rbp)
    b4fd:	48 8d 85 e0 e6 ff ff 	lea    -0x1920(%rbp),%rax
    b504:	48 89 85 08 f8 ff ff 	mov    %rax,-0x7f8(%rbp)
    b50b:	48 8d 85 e0 e6 ff ff 	lea    -0x1920(%rbp),%rax
    b512:	48 89 85 10 f8 ff ff 	mov    %rax,-0x7f0(%rbp)
    b519:	48 8d 05 c8 2b 01 00 	lea    0x12bc8(%rip),%rax        # 1e0e8 <g_67+0x28>
    b520:	48 89 85 28 e2 ff ff 	mov    %rax,-0x1dd8(%rbp)
    b527:	c7 85 68 e0 ff ff 6d 	movl   $0x46ec96d,-0x1f98(%rbp)
    b52e:	c9 6e 04 
    b531:	48 8d 85 90 df ff ff 	lea    -0x2070(%rbp),%rax
    b538:	48 89 85 e0 e8 ff ff 	mov    %rax,-0x1720(%rbp)
    b53f:	48 8d 85 90 df ff ff 	lea    -0x2070(%rbp),%rax
    b546:	48 89 85 e8 e8 ff ff 	mov    %rax,-0x1718(%rbp)
    b54d:	48 8d 85 90 df ff ff 	lea    -0x2070(%rbp),%rax
    b554:	48 89 85 f0 e8 ff ff 	mov    %rax,-0x1710(%rbp)
    b55b:	48 8d 85 90 df ff ff 	lea    -0x2070(%rbp),%rax
    b562:	48 89 85 f8 e8 ff ff 	mov    %rax,-0x1708(%rbp)
    b569:	48 8d 85 9c df ff ff 	lea    -0x2064(%rbp),%rax
    b570:	48 89 85 d8 f7 ff ff 	mov    %rax,-0x828(%rbp)
    b577:	83 bd f0 df ff ff 00 	cmpl   $0x0,-0x2010(%rbp)
    b57e:	0f 84 5f 03 00 00    	je     b8e3 <func_14+0x3acf>
    b584:	48 b8 c3 28 24 57 17 	movabs $0xe89f6217572428c3,%rax
    b58b:	62 9f e8 
    b58e:	48 89 85 60 e2 ff ff 	mov    %rax,-0x1da0(%rbp)
    b595:	48 8d 05 14 6a 01 00 	lea    0x16a14(%rip),%rax        # 21fb0 <g_1555>
    b59c:	48 89 85 68 e2 ff ff 	mov    %rax,-0x1d98(%rbp)
    b5a3:	c7 85 9c df ff ff 00 	movl   $0x0,-0x2064(%rbp)
    b5aa:	00 00 00 
    b5ad:	e9 1d 03 00 00       	jmpq   b8cf <func_14+0x3abb>
    b5b2:	c7 85 80 e0 ff ff c0 	movl   $0xd346a2c0,-0x1f80(%rbp)
    b5b9:	a2 46 d3 
    b5bc:	48 c7 85 70 e2 ff ff 	movq   $0x0,-0x1d90(%rbp)
    b5c3:	00 00 00 00 
    b5c7:	48 c7 85 78 e2 ff ff 	movq   $0x0,-0x1d88(%rbp)
    b5ce:	00 00 00 00 
    b5d2:	c7 85 84 e0 ff ff f8 	movl   $0xfffffff8,-0x1f7c(%rbp)
    b5d9:	ff ff ff 
    b5dc:	c7 85 f8 df ff ff 00 	movl   $0x0,-0x2008(%rbp)
    b5e3:	00 00 00 
    b5e6:	eb 1e                	jmp    b606 <func_14+0x37f2>
    b5e8:	8b 85 f8 df ff ff    	mov    -0x2008(%rbp),%eax
    b5ee:	48 98                	cltq   
    b5f0:	48 8d 15 b7 2a 01 00 	lea    0x12ab7(%rip),%rdx        # 1e0ae <g_34>
    b5f7:	48 89 94 c5 e0 e7 ff 	mov    %rdx,-0x1820(%rbp,%rax,8)
    b5fe:	ff 
    b5ff:	83 85 f8 df ff ff 01 	addl   $0x1,-0x2008(%rbp)
    b606:	83 bd f8 df ff ff 01 	cmpl   $0x1,-0x2008(%rbp)
    b60d:	7e d9                	jle    b5e8 <func_14+0x37d4>
    b60f:	8b 9d e4 e6 ff ff    	mov    -0x191c(%rbp),%ebx
    b615:	8b 85 5c df ff ff    	mov    -0x20a4(%rbp),%eax
    b61b:	f7 d0                	not    %eax
    b61d:	66 89 05 44 70 01 00 	mov    %ax,0x17044(%rip)        # 22668 <g_75>
    b624:	83 bd 5c df ff ff 00 	cmpl   $0x0,-0x20a4(%rbp)
    b62b:	74 07                	je     b634 <func_14+0x3820>
    b62d:	83 bd 5c df ff ff 00 	cmpl   $0x0,-0x20a4(%rbp)
    b634:	8b 95 5c df ff ff    	mov    -0x20a4(%rbp),%edx
    b63a:	8b 85 f0 df ff ff    	mov    -0x2010(%rbp),%eax
    b640:	31 d0                	xor    %edx,%eax
    b642:	89 85 f0 df ff ff    	mov    %eax,-0x2010(%rbp)
    b648:	81 bd f0 df ff ff 4d 	cmpl   $0xc04d,-0x2010(%rbp)
    b64f:	c0 00 00 
    b652:	0f 9f c0             	setg   %al
    b655:	44 0f b6 e0          	movzbl %al,%r12d
    b659:	8b 85 5c df ff ff    	mov    -0x20a4(%rbp),%eax
    b65f:	89 c6                	mov    %eax,%esi
    b661:	bf 06 00 00 00       	mov    $0x6,%edi
    b666:	e8 01 ad ff ff       	callq  636c <safe_rshift_func_int8_t_s_u>
    b66b:	0f b6 c0             	movzbl %al,%eax
    b66e:	44 89 e6             	mov    %r12d,%esi
    b671:	89 c7                	mov    %eax,%edi
    b673:	e8 1b b5 ff ff       	callq  6b93 <safe_mul_func_uint8_t_u_u>
    b678:	0f b6 c0             	movzbl %al,%eax
    b67b:	39 85 5c df ff ff    	cmp    %eax,-0x20a4(%rbp)
    b681:	0f 95 c0             	setne  %al
    b684:	0f b6 c0             	movzbl %al,%eax
    b687:	89 de                	mov    %ebx,%esi
    b689:	89 c7                	mov    %eax,%edi
    b68b:	e8 2e b7 ff ff       	callq  6dbe <safe_lshift_func_uint16_t_u_s>
    b690:	0f b7 c0             	movzwl %ax,%eax
    b693:	48 39 85 00 e2 ff ff 	cmp    %rax,-0x1e00(%rbp)
    b69a:	0f 95 c0             	setne  %al
    b69d:	0f b6 d0             	movzbl %al,%edx
    b6a0:	8b 85 5c df ff ff    	mov    -0x20a4(%rbp),%eax
    b6a6:	98                   	cwtl   
    b6a7:	89 d6                	mov    %edx,%esi
    b6a9:	89 c7                	mov    %eax,%edi
    b6ab:	e8 45 ad ff ff       	callq  63f5 <safe_mul_func_int16_t_s_s>
    b6b0:	89 c2                	mov    %eax,%edx
    b6b2:	48 8b 05 f7 6a 01 00 	mov    0x16af7(%rip),%rax        # 221b0 <g_1856>
    b6b9:	48 8b 00             	mov    (%rax),%rax
    b6bc:	8b 08                	mov    (%rax),%ecx
    b6be:	0f bf d2             	movswl %dx,%edx
    b6c1:	21 ca                	and    %ecx,%edx
    b6c3:	89 10                	mov    %edx,(%rax)
    b6c5:	8b 9d 5c df ff ff    	mov    -0x20a4(%rbp),%ebx
    b6cb:	44 8b a5 5c df ff ff 	mov    -0x20a4(%rbp),%r12d
    b6d2:	48 8b 85 88 e1 ff ff 	mov    -0x1e78(%rbp),%rax
    b6d9:	48 3b 85 28 e2 ff ff 	cmp    -0x1dd8(%rbp),%rax
    b6e0:	74 1c                	je     b6fe <func_14+0x38ea>
    b6e2:	48 8b 05 17 5e 01 00 	mov    0x15e17(%rip),%rax        # 21500 <g_72>
    b6e9:	0f b7 00             	movzwl (%rax),%eax
    b6ec:	0f b7 c0             	movzwl %ax,%eax
    b6ef:	be 0d 00 00 00       	mov    $0xd,%esi
    b6f4:	89 c7                	mov    %eax,%edi
    b6f6:	e8 4d b7 ff ff       	callq  6e48 <safe_rshift_func_uint16_t_u_s>
    b6fb:	66 85 c0             	test   %ax,%ax
    b6fe:	8b 85 5c df ff ff    	mov    -0x20a4(%rbp),%eax
    b704:	0f b6 c0             	movzbl %al,%eax
    b707:	89 c6                	mov    %eax,%esi
    b709:	bf 01 00 00 00       	mov    $0x1,%edi
    b70e:	e8 c8 b4 ff ff       	callq  6bdb <safe_div_func_uint8_t_u_u>
    b713:	0f b6 c0             	movzbl %al,%eax
    b716:	48 89 c7             	mov    %rax,%rdi
    b719:	e8 fb b8 ff ff       	callq  7019 <safe_unary_minus_func_uint64_t_u>
    b71e:	48 8b 05 ab 67 01 00 	mov    0x167ab(%rip),%rax        # 21ed0 <g_313>
    b725:	8b 00                	mov    (%rax),%eax
    b727:	89 c2                	mov    %eax,%edx
    b729:	48 8b 05 98 68 01 00 	mov    0x16898(%rip),%rax        # 21fc8 <g_1780>
    b730:	48 8b 00             	mov    (%rax),%rax
    b733:	48 8b 00             	mov    (%rax),%rax
    b736:	8b 00                	mov    (%rax),%eax
    b738:	21 d0                	and    %edx,%eax
    b73a:	85 c0                	test   %eax,%eax
    b73c:	74 24                	je     b762 <func_14+0x394e>
    b73e:	48 8b 05 b3 34 01 00 	mov    0x134b3(%rip),%rax        # 1ebf8 <g_1195+0x8>
    b745:	48 c1 e8 3c          	shr    $0x3c,%rax
    b749:	48 89 c2             	mov    %rax,%rdx
    b74c:	48 8b 05 ad 34 01 00 	mov    0x134ad(%rip),%rax        # 1ec00 <g_1195+0x10>
    b753:	25 ff 01 00 00       	and    $0x1ff,%eax
    b758:	48 c1 e0 04          	shl    $0x4,%rax
    b75c:	48 09 d0             	or     %rdx,%rax
    b75f:	66 85 c0             	test   %ax,%ax
    b762:	83 bd 5c df ff ff 00 	cmpl   $0x0,-0x20a4(%rbp)
    b769:	74 07                	je     b772 <func_14+0x395e>
    b76b:	b8 01 00 00 00       	mov    $0x1,%eax
    b770:	eb 05                	jmp    b777 <func_14+0x3963>
    b772:	b8 00 00 00 00       	mov    $0x0,%eax
    b777:	39 85 5c df ff ff    	cmp    %eax,-0x20a4(%rbp)
    b77d:	0f 95 c0             	setne  %al
    b780:	0f b6 d0             	movzbl %al,%edx
    b783:	8b 85 80 e0 ff ff    	mov    -0x1f80(%rbp),%eax
    b789:	83 f8 fa             	cmp    $0xfffffffa,%eax
    b78c:	0f 96 c0             	setbe  %al
    b78f:	0f b6 c0             	movzbl %al,%eax
    b792:	89 d6                	mov    %edx,%esi
    b794:	89 c7                	mov    %eax,%edi
    b796:	e8 f7 ac ff ff       	callq  6492 <safe_lshift_func_int16_t_s_s>
    b79b:	8b 85 c8 df ff ff    	mov    -0x2038(%rbp),%eax
    b7a1:	98                   	cwtl   
    b7a2:	44 89 e6             	mov    %r12d,%esi
    b7a5:	89 c7                	mov    %eax,%edi
    b7a7:	e8 7e ad ff ff       	callq  652a <safe_rshift_func_int16_t_s_s>
    b7ac:	48 0f bf c0          	movswq %ax,%rax
    b7b0:	48 39 85 60 e2 ff ff 	cmp    %rax,-0x1da0(%rbp)
    b7b7:	0f 95 c0             	setne  %al
    b7ba:	0f b6 c0             	movzbl %al,%eax
    b7bd:	39 85 80 e0 ff ff    	cmp    %eax,-0x1f80(%rbp)
    b7c3:	0f 9d c0             	setge  %al
    b7c6:	0f b6 c0             	movzbl %al,%eax
    b7c9:	48 89 de             	mov    %rbx,%rsi
    b7cc:	48 89 c7             	mov    %rax,%rdi
    b7cf:	e8 5a b8 ff ff       	callq  702e <safe_add_func_uint64_t_u_u>
    b7d4:	89 c2                	mov    %eax,%edx
    b7d6:	0f b7 85 78 df ff ff 	movzwl -0x2088(%rbp),%eax
    b7dd:	09 d0                	or     %edx,%eax
    b7df:	66 89 85 78 df ff ff 	mov    %ax,-0x2088(%rbp)
    b7e6:	83 bd 5c df ff ff 00 	cmpl   $0x0,-0x20a4(%rbp)
    b7ed:	0f 85 cc 00 00 00    	jne    b8bf <func_14+0x3aab>
    b7f3:	81 bd 5c df ff ff c5 	cmpl   $0x299206c5,-0x20a4(%rbp)
    b7fa:	06 92 29 
    b7fd:	0f 96 c0             	setbe  %al
    b800:	0f b6 c0             	movzbl %al,%eax
    b803:	0b 85 5c df ff ff    	or     -0x20a4(%rbp),%eax
    b809:	41 89 c5             	mov    %eax,%r13d
    b80c:	8b 9d f0 df ff ff    	mov    -0x2010(%rbp),%ebx
    b812:	83 bd 5c df ff ff 00 	cmpl   $0x0,-0x20a4(%rbp)
    b819:	74 3b                	je     b856 <func_14+0x3a42>
    b81b:	48 8b 05 de 5c 01 00 	mov    0x15cde(%rip),%rax        # 21500 <g_72>
    b822:	0f b7 00             	movzwl (%rax),%eax
    b825:	44 0f b7 e0          	movzwl %ax,%r12d
    b829:	c7 85 68 e0 ff ff fc 	movl   $0xfffffffc,-0x1f98(%rbp)
    b830:	ff ff ff 
    b833:	48 be 18 88 5d b3 8c 	movabs $0x18ee2f8cb35d8818,%rsi
    b83a:	2f ee 18 
    b83d:	48 c7 c7 fc ff ff ff 	mov    $0xfffffffffffffffc,%rdi
    b844:	e8 ae b1 ff ff       	callq  69f7 <safe_div_func_int64_t_s_s>
    b849:	0f b7 c0             	movzwl %ax,%eax
    b84c:	44 89 e6             	mov    %r12d,%esi
    b84f:	89 c7                	mov    %eax,%edi
    b851:	e8 c9 b4 ff ff       	callq  6d1f <safe_sub_func_uint16_t_u_u>
    b856:	b8 00 00 00 00       	mov    $0x0,%eax
    b85b:	be 00 00 00 00       	mov    $0x0,%esi
    b860:	89 c7                	mov    %eax,%edi
    b862:	e8 db ad ff ff       	callq  6642 <safe_mul_func_int32_t_s_s>
    b867:	48 8b 05 e2 66 01 00 	mov    0x166e2(%rip),%rax        # 21f50 <g_847>
    b86e:	48 8b 00             	mov    (%rax),%rax
    b871:	c7 00 01 00 00 00    	movl   $0x1,(%rax)
    b877:	8b 10                	mov    (%rax),%edx
    b879:	48 8b 85 00 e6 ff ff 	mov    -0x1a00(%rbp),%rax
    b880:	48 39 85 78 e2 ff ff 	cmp    %rax,-0x1d88(%rbp)
    b887:	0f 95 c0             	setne  %al
    b88a:	0f b6 c0             	movzbl %al,%eax
    b88d:	39 c2                	cmp    %eax,%edx
    b88f:	0f 92 c0             	setb   %al
    b892:	0f b6 c0             	movzbl %al,%eax
    b895:	89 de                	mov    %ebx,%esi
    b897:	89 c7                	mov    %eax,%edi
    b899:	e8 32 b6 ff ff       	callq  6ed0 <safe_sub_func_uint32_t_u_u>
    b89e:	0f be c0             	movsbl %al,%eax
    b8a1:	be ff ff ff ff       	mov    $0xffffffff,%esi
    b8a6:	89 c7                	mov    %eax,%edi
    b8a8:	e8 45 a9 ff ff       	callq  61f2 <safe_sub_func_int8_t_s_s>
    b8ad:	0f be c0             	movsbl %al,%eax
    b8b0:	41 39 c5             	cmp    %eax,%r13d
    b8b3:	c7 85 84 e0 ff ff ee 	movl   $0x8c902fee,-0x1f7c(%rbp)
    b8ba:	2f 90 8c 
    b8bd:	eb 01                	jmp    b8c0 <func_14+0x3aac>
    b8bf:	90                   	nop
    b8c0:	8b 85 9c df ff ff    	mov    -0x2064(%rbp),%eax
    b8c6:	83 e8 01             	sub    $0x1,%eax
    b8c9:	89 85 9c df ff ff    	mov    %eax,-0x2064(%rbp)
    b8cf:	8b 85 9c df ff ff    	mov    -0x2064(%rbp),%eax
    b8d5:	83 f8 f8             	cmp    $0xfffffff8,%eax
    b8d8:	0f 8d d4 fc ff ff    	jge    b5b2 <func_14+0x379e>
    b8de:	e9 72 02 00 00       	jmpq   bb55 <func_14+0x3d41>
    b8e3:	48 8d 85 50 e1 ff ff 	lea    -0x1eb0(%rbp),%rax
    b8ea:	48 89 85 30 e2 ff ff 	mov    %rax,-0x1dd0(%rbp)
    b8f1:	48 c7 85 38 e2 ff ff 	movq   $0x0,-0x1dc8(%rbp)
    b8f8:	00 00 00 00 
    b8fc:	48 8d 05 45 66 01 00 	lea    0x16645(%rip),%rax        # 21f48 <g_848>
    b903:	48 89 85 40 e2 ff ff 	mov    %rax,-0x1dc0(%rbp)
    b90a:	c7 85 6c e0 ff ff 40 	movl   $0x3a4d1b40,-0x1f94(%rbp)
    b911:	1b 4d 3a 
    b914:	c7 85 70 e0 ff ff f7 	movl   $0xfffffff7,-0x1f90(%rbp)
    b91b:	ff ff ff 
    b91e:	48 c7 05 8f 42 01 00 	movq   $0x0,0x1428f(%rip)        # 1fbb8 <g_1986>
    b925:	00 00 00 00 
    b929:	eb 53                	jmp    b97e <func_14+0x3b6a>
    b92b:	c7 85 74 e0 ff ff ff 	movl   $0xffffffff,-0x1f8c(%rbp)
    b932:	ff ff ff 
    b935:	83 bd 5c df ff ff 00 	cmpl   $0x0,-0x20a4(%rbp)
    b93c:	75 4f                	jne    b98d <func_14+0x3b79>
    b93e:	8b 85 84 df ff ff    	mov    -0x207c(%rbp),%eax
    b944:	85 c0                	test   %eax,%eax
    b946:	74 05                	je     b94d <func_14+0x3b39>
    b948:	e9 1c fc ff ff       	jmpq   b569 <func_14+0x3755>
    b94d:	48 8b 05 d4 65 01 00 	mov    0x165d4(%rip),%rax        # 21f28 <g_361>
    b954:	48 8b 95 30 e2 ff ff 	mov    -0x1dd0(%rbp),%rdx
    b95b:	48 89 10             	mov    %rdx,(%rax)
    b95e:	48 8d 85 50 e1 ff ff 	lea    -0x1eb0(%rbp),%rax
    b965:	48 89 85 f8 e8 ff ff 	mov    %rax,-0x1708(%rbp)
    b96c:	48 8b 05 45 42 01 00 	mov    0x14245(%rip),%rax        # 1fbb8 <g_1986>
    b973:	48 83 c0 01          	add    $0x1,%rax
    b977:	48 89 05 3a 42 01 00 	mov    %rax,0x1423a(%rip)        # 1fbb8 <g_1986>
    b97e:	48 8b 05 33 42 01 00 	mov    0x14233(%rip),%rax        # 1fbb8 <g_1986>
    b985:	48 83 f8 02          	cmp    $0x2,%rax
    b989:	76 a0                	jbe    b92b <func_14+0x3b17>
    b98b:	eb 01                	jmp    b98e <func_14+0x3b7a>
    b98d:	90                   	nop
    b98e:	66 c7 85 78 df ff ff 	movw   $0xfffb,-0x2088(%rbp)
    b995:	fb ff 
    b997:	90                   	nop
    b998:	0f b7 85 78 df ff ff 	movzwl -0x2088(%rbp),%eax
    b99f:	66 83 f8 ee          	cmp    $0xffee,%ax
    b9a3:	0f 84 24 01 00 00    	je     bacd <func_14+0x3cb9>
    b9a9:	48 c7 85 50 e2 ff ff 	movq   $0x0,-0x1db0(%rbp)
    b9b0:	00 00 00 00 
    b9b4:	48 8d 85 74 df ff ff 	lea    -0x208c(%rbp),%rax
    b9bb:	48 89 85 58 e2 ff ff 	mov    %rax,-0x1da8(%rbp)
    b9c2:	c7 85 78 e0 ff ff fc 	movl   $0x2077d3fc,-0x1f88(%rbp)
    b9c9:	d3 77 20 
    b9cc:	c7 85 7c e0 ff ff ff 	movl   $0xffffffff,-0x1f84(%rbp)
    b9d3:	ff ff ff 
    b9d6:	8b 9d 5c df ff ff    	mov    -0x20a4(%rbp),%ebx
    b9dc:	8b 95 5c df ff ff    	mov    -0x20a4(%rbp),%edx
    b9e2:	83 bd 5c df ff ff 00 	cmpl   $0x0,-0x20a4(%rbp)
    b9e9:	0f 95 c0             	setne  %al
    b9ec:	0f b6 c0             	movzbl %al,%eax
    b9ef:	48 89 d6             	mov    %rdx,%rsi
    b9f2:	48 89 c7             	mov    %rax,%rdi
    b9f5:	e8 ba af ff ff       	callq  69b4 <safe_mod_func_int64_t_s_s>
    b9fa:	48 39 c3             	cmp    %rax,%rbx
    b9fd:	0f 95 c0             	setne  %al
    ba00:	0f b6 c0             	movzbl %al,%eax
    ba03:	be 05 00 00 00       	mov    $0x5,%esi
    ba08:	89 c7                	mov    %eax,%edi
    ba0a:	e8 83 aa ff ff       	callq  6492 <safe_lshift_func_int16_t_s_s>
    ba0f:	98                   	cwtl   
    ba10:	23 85 78 e0 ff ff    	and    -0x1f88(%rbp),%eax
    ba16:	48 63 d0             	movslq %eax,%rdx
    ba19:	48 8b 05 f0 65 01 00 	mov    0x165f0(%rip),%rax        # 22010 <g_1802>
    ba20:	48 8b 00             	mov    (%rax),%rax
    ba23:	48 89 d6             	mov    %rdx,%rsi
    ba26:	48 89 c7             	mov    %rax,%rdi
    ba29:	e8 86 af ff ff       	callq  69b4 <safe_mod_func_int64_t_s_s>
    ba2e:	48 8b 05 8b 64 01 00 	mov    0x1648b(%rip),%rax        # 21ec0 <g_221>
    ba35:	81 bd 64 e0 ff ff 81 	cmpl   $0x81,-0x1f9c(%rbp)
    ba3c:	00 00 00 
    ba3f:	0f 96 c0             	setbe  %al
    ba42:	0f b6 d8             	movzbl %al,%ebx
    ba45:	8b 85 e4 e6 ff ff    	mov    -0x191c(%rbp),%eax
    ba4b:	39 85 5c df ff ff    	cmp    %eax,-0x20a4(%rbp)
    ba51:	0f 96 c0             	setbe  %al
    ba54:	41 89 c4             	mov    %eax,%r12d
    ba57:	48 8b 05 6a 64 01 00 	mov    0x1646a(%rip),%rax        # 21ec8 <g_289>
    ba5e:	48 8b 00             	mov    (%rax),%rax
    ba61:	48 89 c2             	mov    %rax,%rdx
    ba64:	48 8b 85 08 e2 ff ff 	mov    -0x1df8(%rbp),%rax
    ba6b:	48 89 d6             	mov    %rdx,%rsi
    ba6e:	48 89 c7             	mov    %rax,%rdi
    ba71:	e8 cb ad ff ff       	callq  6841 <safe_add_func_int64_t_s_s>
    ba76:	44 09 e0             	or     %r12d,%eax
    ba79:	0f b6 c0             	movzbl %al,%eax
    ba7c:	89 de                	mov    %ebx,%esi
    ba7e:	89 c7                	mov    %eax,%edi
    ba80:	e8 f3 b0 ff ff       	callq  6b78 <safe_sub_func_uint8_t_u_u>
    ba85:	0f b6 c0             	movzbl %al,%eax
    ba88:	33 85 5c df ff ff    	xor    -0x20a4(%rbp),%eax
    ba8e:	39 85 5c df ff ff    	cmp    %eax,-0x20a4(%rbp)
    ba94:	48 8b 85 58 e2 ff ff 	mov    -0x1da8(%rbp),%rax
    ba9b:	66 c7 00 35 1b       	movw   $0x1b35,(%rax)
    baa0:	bf 35 1b 00 00       	mov    $0x1b35,%edi
    baa5:	e8 f3 a8 ff ff       	callq  639d <safe_unary_minus_func_int16_t_s>
    baaa:	48 8b 85 30 e2 ff ff 	mov    -0x1dd0(%rbp),%rax
    bab1:	8b 00                	mov    (%rax),%eax
    bab3:	83 e0 01             	and    $0x1,%eax
    bab6:	09 85 7c e0 ff ff    	or     %eax,-0x1f84(%rbp)
    babc:	0f b6 05 4e 33 01 00 	movzbl 0x1334e(%rip),%eax        # 1ee11 <g_1295+0x11>
    bac3:	d0 e8                	shr    %al
    bac5:	0f b6 c0             	movzbl %al,%eax
    bac8:	e9 e0 1e 00 00       	jmpq   d9ad <func_14+0x5b99>
    bacd:	c7 85 a4 df ff ff 00 	movl   $0x0,-0x205c(%rbp)
    bad4:	00 00 00 
    bad7:	eb 73                	jmp    bb4c <func_14+0x3d38>
    bad9:	48 8d 05 e0 66 01 00 	lea    0x166e0(%rip),%rax        # 221c0 <g_2182>
    bae0:	48 89 85 48 e2 ff ff 	mov    %rax,-0x1db8(%rbp)
    bae7:	8b 85 90 df ff ff    	mov    -0x2070(%rbp),%eax
    baed:	85 c0                	test   %eax,%eax
    baef:	0f 9e c0             	setle  %al
    baf2:	0f b6 d0             	movzbl %al,%edx
    baf5:	48 8b 85 30 e2 ff ff 	mov    -0x1dd0(%rbp),%rax
    bafc:	89 10                	mov    %edx,(%rax)
    bafe:	0f b6 05 bb 40 01 00 	movzbl 0x140bb(%rip),%eax        # 1fbc0 <g_2177>
    bb05:	83 c0 01             	add    $0x1,%eax
    bb08:	88 05 b2 40 01 00    	mov    %al,0x140b2(%rip)        # 1fbc0 <g_2177>
    bb0e:	48 8b 15 a3 66 01 00 	mov    0x166a3(%rip),%rdx        # 221b8 <g_2180>
    bb15:	48 8b 85 48 e2 ff ff 	mov    -0x1db8(%rbp),%rax
    bb1c:	48 89 10             	mov    %rdx,(%rax)
    bb1f:	48 8b 85 30 e2 ff ff 	mov    -0x1dd0(%rbp),%rax
    bb26:	8b 95 58 e0 ff ff    	mov    -0x1fa8(%rbp),%edx
    bb2c:	89 10                	mov    %edx,(%rax)
    bb2e:	8b 85 a4 df ff ff    	mov    -0x205c(%rbp),%eax
    bb34:	0f b6 c0             	movzbl %al,%eax
    bb37:	be 07 00 00 00       	mov    $0x7,%esi
    bb3c:	89 c7                	mov    %eax,%edi
    bb3e:	e8 35 b0 ff ff       	callq  6b78 <safe_sub_func_uint8_t_u_u>
    bb43:	0f b6 c0             	movzbl %al,%eax
    bb46:	89 85 a4 df ff ff    	mov    %eax,-0x205c(%rbp)
    bb4c:	83 bd a4 df ff ff e4 	cmpl   $0xffffffe4,-0x205c(%rbp)
    bb53:	7d 84                	jge    bad9 <func_14+0x3cc5>
    bb55:	83 bd 5c df ff ff 00 	cmpl   $0x0,-0x20a4(%rbp)
    bb5c:	0f 85 70 01 00 00    	jne    bcd2 <func_14+0x3ebe>
    bb62:	48 8b 05 5f 64 01 00 	mov    0x1645f(%rip),%rax        # 21fc8 <g_1780>
    bb69:	48 8b 00             	mov    (%rax),%rax
    bb6c:	48 8b 00             	mov    (%rax),%rax
    bb6f:	8b 10                	mov    (%rax),%edx
    bb71:	48 8b 05 50 64 01 00 	mov    0x16450(%rip),%rax        # 21fc8 <g_1780>
    bb78:	48 8b 00             	mov    (%rax),%rax
    bb7b:	48 8b 00             	mov    (%rax),%rax
    bb7e:	83 ca 06             	or     $0x6,%edx
    bb81:	89 10                	mov    %edx,(%rax)
    bb83:	8b 10                	mov    (%rax),%edx
    bb85:	8b 85 cc df ff ff    	mov    -0x2034(%rbp),%eax
    bb8b:	89 d6                	mov    %edx,%esi
    bb8d:	89 c7                	mov    %eax,%edi
    bb8f:	e8 24 b3 ff ff       	callq  6eb8 <safe_add_func_uint32_t_u_u>
    bb94:	85 c0                	test   %eax,%eax
    bb96:	0f 85 36 01 00 00    	jne    bcd2 <func_14+0x3ebe>
    bb9c:	48 8b 05 cd 63 01 00 	mov    0x163cd(%rip),%rax        # 21f70 <g_984>
    bba3:	48 8b 00             	mov    (%rax),%rax
    bba6:	0f b6 00             	movzbl (%rax),%eax
    bba9:	0f b6 d8             	movzbl %al,%ebx
    bbac:	8b 85 24 e0 ff ff    	mov    -0x1fdc(%rbp),%eax
    bbb2:	44 0f be e0          	movsbl %al,%r12d
    bbb6:	83 bd 5c df ff ff 00 	cmpl   $0x0,-0x20a4(%rbp)
    bbbd:	0f 85 b4 00 00 00    	jne    bc77 <func_14+0x3e63>
    bbc3:	48 8b 85 f0 e1 ff ff 	mov    -0x1e10(%rbp),%rax
    bbca:	0f b6 00             	movzbl (%rax),%eax
    bbcd:	8d 48 ff             	lea    -0x1(%rax),%ecx
    bbd0:	48 8b 95 f0 e1 ff ff 	mov    -0x1e10(%rbp),%rdx
    bbd7:	88 0a                	mov    %cl,(%rdx)
    bbd9:	44 0f b6 e8          	movzbl %al,%r13d
    bbdd:	0f b6 05 f3 36 01 00 	movzbl 0x136f3(%rip),%eax        # 1f2d7 <g_1306+0x37>
    bbe4:	c1 e0 02             	shl    $0x2,%eax
    bbe7:	c0 f8 06             	sar    $0x6,%al
    bbea:	0f b6 c0             	movzbl %al,%eax
    bbed:	89 c6                	mov    %eax,%esi
    bbef:	bf 01 00 00 00       	mov    $0x1,%edi
    bbf4:	e8 9a af ff ff       	callq  6b93 <safe_mul_func_uint8_t_u_u>
    bbf9:	89 c2                	mov    %eax,%edx
    bbfb:	48 8b 85 f0 e0 ff ff 	mov    -0x1f10(%rbp),%rax
    bc02:	0f b6 d2             	movzbl %dl,%edx
    bc05:	66 89 10             	mov    %dx,(%rax)
    bc08:	0f b7 00             	movzwl (%rax),%eax
    bc0b:	66 35 f5 5d          	xor    $0x5df5,%ax
    bc0f:	48 0f bf c0          	movswq %ax,%rax
    bc13:	49 39 c5             	cmp    %rax,%r13
    bc16:	0f b6 05 a4 3f 01 00 	movzbl 0x13fa4(%rip),%eax        # 1fbc1 <g_2201>
    bc1d:	48 0f be c8          	movsbq %al,%rcx
    bc21:	48 8b 15 a0 62 01 00 	mov    0x162a0(%rip),%rdx        # 21ec8 <g_289>
    bc28:	48 8b 02             	mov    (%rdx),%rax
    bc2b:	48 8d 70 01          	lea    0x1(%rax),%rsi
    bc2f:	48 89 32             	mov    %rsi,(%rdx)
    bc32:	48 89 ce             	mov    %rcx,%rsi
    bc35:	48 89 c7             	mov    %rax,%rdi
    bc38:	e8 f1 b3 ff ff       	callq  702e <safe_add_func_uint64_t_u_u>
    bc3d:	89 85 50 e0 ff ff    	mov    %eax,-0x1fb0(%rbp)
    bc43:	48 8b 05 4e 39 01 00 	mov    0x1394e(%rip),%rax        # 1f598 <g_1314+0x8>
    bc4a:	48 c1 e0 04          	shl    $0x4,%rax
    bc4e:	48 c1 f8 22          	sar    $0x22,%rax
    bc52:	39 85 50 e0 ff ff    	cmp    %eax,-0x1fb0(%rbp)
    bc58:	0f 95 c2             	setne  %dl
    bc5b:	48 8b 05 6e 62 01 00 	mov    0x1626e(%rip),%rax        # 21ed0 <g_313>
    bc62:	0f b6 d2             	movzbl %dl,%edx
    bc65:	89 10                	mov    %edx,(%rax)
    bc67:	8b 00                	mov    (%rax),%eax
    bc69:	89 85 c4 df ff ff    	mov    %eax,-0x203c(%rbp)
    bc6f:	8b 85 90 df ff ff    	mov    -0x2070(%rbp),%eax
    bc75:	85 c0                	test   %eax,%eax
    bc77:	8b 85 54 e0 ff ff    	mov    -0x1fac(%rbp),%eax
    bc7d:	0f be c0             	movsbl %al,%eax
    bc80:	44 89 e6             	mov    %r12d,%esi
    bc83:	89 c7                	mov    %eax,%edi
    bc85:	e8 88 a5 ff ff       	callq  6212 <safe_mul_func_int8_t_s_s>
    bc8a:	48 0f be d0          	movsbq %al,%rdx
    bc8e:	8b 85 9c df ff ff    	mov    -0x2064(%rbp),%eax
    bc94:	48 98                	cltq   
    bc96:	48 89 d6             	mov    %rdx,%rsi
    bc99:	48 89 c7             	mov    %rax,%rdi
    bc9c:	e8 8d b3 ff ff       	callq  702e <safe_add_func_uint64_t_u_u>
    bca1:	89 c7                	mov    %eax,%edi
    bca3:	e8 ee a8 ff ff       	callq  6596 <safe_unary_minus_func_int32_t_s>
    bca8:	0f b6 c0             	movzbl %al,%eax
    bcab:	25 f9 00 00 00       	and    $0xf9,%eax
    bcb0:	89 de                	mov    %ebx,%esi
    bcb2:	89 c7                	mov    %eax,%edi
    bcb4:	e8 a1 ae ff ff       	callq  6b5a <safe_add_func_uint8_t_u_u>
    bcb9:	0f b6 c0             	movzbl %al,%eax
    bcbc:	39 85 5c df ff ff    	cmp    %eax,-0x20a4(%rbp)
    bcc2:	0f 93 c0             	setae  %al
    bcc5:	0f b6 c0             	movzbl %al,%eax
    bcc8:	23 85 5c df ff ff    	and    -0x20a4(%rbp),%eax
    bcce:	85 c0                	test   %eax,%eax
    bcd0:	74 07                	je     bcd9 <func_14+0x3ec5>
    bcd2:	b8 01 00 00 00       	mov    $0x1,%eax
    bcd7:	eb 05                	jmp    bcde <func_14+0x3eca>
    bcd9:	b8 00 00 00 00       	mov    $0x0,%eax
    bcde:	89 85 28 e0 ff ff    	mov    %eax,-0x1fd8(%rbp)
    bce4:	c7 05 ce 25 01 00 07 	movl   $0x7,0x125ce(%rip)        # 1e2bc <g_122>
    bceb:	00 00 00 
    bcee:	e9 c2 17 00 00       	jmpq   d4b5 <func_14+0x56a1>
    bcf3:	48 b8 54 54 54 54 54 	movabs $0x5454545454545454,%rax
    bcfa:	54 54 54 
    bcfd:	48 89 45 bf          	mov    %rax,-0x41(%rbp)
    bd01:	c6 45 c7 54          	movb   $0x54,-0x39(%rbp)
    bd05:	c7 85 fc df ff ff ec 	movl   $0xc381fec,-0x2004(%rbp)
    bd0c:	1f 38 0c 
    bd0f:	c7 85 00 e0 ff ff 01 	movl   $0x1,-0x2000(%rbp)
    bd16:	00 00 00 
    bd19:	48 8d 85 d0 f7 ff ff 	lea    -0x830(%rbp),%rax
    bd20:	48 8d 15 d9 cc 00 00 	lea    0xccd9(%rip),%rdx        # 18a00 <g_764+0x9a0>
    bd27:	b9 2a 00 00 00       	mov    $0x2a,%ecx
    bd2c:	48 89 c7             	mov    %rax,%rdi
    bd2f:	48 89 d6             	mov    %rdx,%rsi
    bd32:	f3 48 a5             	rep movsq %ds:(%rsi),%es:(%rdi)
    bd35:	48 b8 15 10 ce e8 40 	movabs $0x38f2240e8ce1015,%rax
    bd3c:	22 8f 03 
    bd3f:	48 89 85 08 e3 ff ff 	mov    %rax,-0x1cf8(%rbp)
    bd46:	48 c7 85 10 e3 ff ff 	movq   $0x0,-0x1cf0(%rbp)
    bd4d:	00 00 00 00 
    bd51:	48 8d 05 58 62 01 00 	lea    0x16258(%rip),%rax        # 21fb0 <g_1555>
    bd58:	48 89 85 18 e3 ff ff 	mov    %rax,-0x1ce8(%rbp)
    bd5f:	48 c7 85 20 e3 ff ff 	movq   $0x0,-0x1ce0(%rbp)
    bd66:	00 00 00 00 
    bd6a:	48 8d 85 f0 e0 ff ff 	lea    -0x1f10(%rbp),%rax
    bd71:	48 89 85 28 e3 ff ff 	mov    %rax,-0x1cd8(%rbp)
    bd78:	c7 85 04 e0 ff ff 00 	movl   $0x0,-0x1ffc(%rbp)
    bd7f:	00 00 00 
    bd82:	eb 22                	jmp    bda6 <func_14+0x3f92>
    bd84:	8b 85 04 e0 ff ff    	mov    -0x1ffc(%rbp),%eax
    bd8a:	48 98                	cltq   
    bd8c:	48 8d 95 e0 e5 ff ff 	lea    -0x1a20(%rbp),%rdx
    bd93:	48 83 c2 20          	add    $0x20,%rdx
    bd97:	48 89 94 c5 30 e5 ff 	mov    %rdx,-0x1ad0(%rbp,%rax,8)
    bd9e:	ff 
    bd9f:	83 85 04 e0 ff ff 01 	addl   $0x1,-0x1ffc(%rbp)
    bda6:	83 bd 04 e0 ff ff 08 	cmpl   $0x8,-0x1ffc(%rbp)
    bdad:	7e d5                	jle    bd84 <func_14+0x3f70>
    bdaf:	c7 85 04 e0 ff ff 00 	movl   $0x0,-0x1ffc(%rbp)
    bdb6:	00 00 00 
    bdb9:	eb 1e                	jmp    bdd9 <func_14+0x3fc5>
    bdbb:	8b 85 04 e0 ff ff    	mov    -0x1ffc(%rbp),%eax
    bdc1:	48 98                	cltq   
    bdc3:	48 8d 15 be 68 01 00 	lea    0x168be(%rip),%rdx        # 22688 <g_494>
    bdca:	48 89 94 c5 b0 e4 ff 	mov    %rdx,-0x1b50(%rbp,%rax,8)
    bdd1:	ff 
    bdd2:	83 85 04 e0 ff ff 01 	addl   $0x1,-0x1ffc(%rbp)
    bdd9:	83 bd 04 e0 ff ff 04 	cmpl   $0x4,-0x1ffc(%rbp)
    bde0:	7e d9                	jle    bdbb <func_14+0x3fa7>
    bde2:	48 8b 05 d7 60 01 00 	mov    0x160d7(%rip),%rax        # 21ec0 <g_221>
    bde9:	8b 10                	mov    (%rax),%edx
    bdeb:	0f b6 45 bf          	movzbl -0x41(%rbp),%eax
    bdef:	0f be c0             	movsbl %al,%eax
    bdf2:	39 85 5c df ff ff    	cmp    %eax,-0x20a4(%rbp)
    bdf8:	0f 93 c0             	setae  %al
    bdfb:	0f b6 c0             	movzbl %al,%eax
    bdfe:	39 c2                	cmp    %eax,%edx
    be00:	74 2c                	je     be2e <func_14+0x401a>
    be02:	48 c7 85 00 e2 ff ff 	movq   $0x0,-0x1e00(%rbp)
    be09:	00 00 00 00 
    be0d:	48 83 bd 00 e2 ff ff 	cmpq   $0x25,-0x1e00(%rbp)
    be14:	25 
    be15:	0f 86 04 07 00 00    	jbe    c51f <func_14+0x470b>
    be1b:	48 8b 05 9e 2e 01 00 	mov    0x12e9e(%rip),%rax        # 1ecc0 <g_1291+0x10>
    be22:	c1 e0 02             	shl    $0x2,%eax
    be25:	c1 f8 12             	sar    $0x12,%eax
    be28:	98                   	cwtl   
    be29:	e9 7f 1b 00 00       	jmpq   d9ad <func_14+0x5b99>
    be2e:	48 c7 85 40 e6 ff ff 	movq   $0xfffffffffffffff7,-0x19c0(%rbp)
    be35:	f7 ff ff ff 
    be39:	48 c7 85 48 e6 ff ff 	movq   $0xfffffffffffffff7,-0x19b8(%rbp)
    be40:	f7 ff ff ff 
    be44:	48 c7 85 50 e6 ff ff 	movq   $0xfffffffffffffff7,-0x19b0(%rbp)
    be4b:	f7 ff ff ff 
    be4f:	48 c7 85 58 e6 ff ff 	movq   $0xfffffffffffffff7,-0x19a8(%rbp)
    be56:	f7 ff ff ff 
    be5a:	48 c7 85 60 e6 ff ff 	movq   $0xfffffffffffffff7,-0x19a0(%rbp)
    be61:	f7 ff ff ff 
    be65:	48 c7 85 68 e6 ff ff 	movq   $0xfffffffffffffff7,-0x1998(%rbp)
    be6c:	f7 ff ff ff 
    be70:	48 c7 85 70 e6 ff ff 	movq   $0xfffffffffffffff7,-0x1990(%rbp)
    be77:	f7 ff ff ff 
    be7b:	48 c7 85 78 e6 ff ff 	movq   $0xfffffffffffffff7,-0x1988(%rbp)
    be82:	f7 ff ff ff 
    be86:	48 c7 85 80 e6 ff ff 	movq   $0xfffffffffffffff7,-0x1980(%rbp)
    be8d:	f7 ff ff ff 
    be91:	48 c7 85 88 e6 ff ff 	movq   $0xfffffffffffffff7,-0x1978(%rbp)
    be98:	f7 ff ff ff 
    be9c:	48 c7 85 90 e6 ff ff 	movq   $0xfffffffffffffff7,-0x1970(%rbp)
    bea3:	f7 ff ff ff 
    bea7:	48 c7 85 98 e6 ff ff 	movq   $0xfffffffffffffff7,-0x1968(%rbp)
    beae:	f7 ff ff ff 
    beb2:	48 c7 85 a0 e6 ff ff 	movq   $0xfffffffffffffff7,-0x1960(%rbp)
    beb9:	f7 ff ff ff 
    bebd:	48 c7 85 a8 e6 ff ff 	movq   $0xfffffffffffffff7,-0x1958(%rbp)
    bec4:	f7 ff ff ff 
    bec8:	48 c7 85 b0 e6 ff ff 	movq   $0xfffffffffffffff7,-0x1950(%rbp)
    becf:	f7 ff ff ff 
    bed3:	48 c7 85 b8 e6 ff ff 	movq   $0xfffffffffffffff7,-0x1948(%rbp)
    beda:	f7 ff ff ff 
    bede:	48 c7 85 c0 e6 ff ff 	movq   $0xfffffffffffffff7,-0x1940(%rbp)
    bee5:	f7 ff ff ff 
    bee9:	48 c7 85 c8 e6 ff ff 	movq   $0xfffffffffffffff7,-0x1938(%rbp)
    bef0:	f7 ff ff ff 
    bef4:	48 c7 85 d0 e6 ff ff 	movq   $0xfffffffffffffff7,-0x1930(%rbp)
    befb:	f7 ff ff ff 
    beff:	48 c7 85 d8 e6 ff ff 	movq   $0xfffffffffffffff7,-0x1928(%rbp)
    bf06:	f7 ff ff ff 
    bf0a:	48 8d 05 b7 5f 01 00 	lea    0x15fb7(%rip),%rax        # 21ec8 <g_289>
    bf11:	48 89 85 e0 e7 ff ff 	mov    %rax,-0x1820(%rbp)
    bf18:	48 8d 05 a9 5f 01 00 	lea    0x15fa9(%rip),%rax        # 21ec8 <g_289>
    bf1f:	48 89 85 e8 e7 ff ff 	mov    %rax,-0x1818(%rbp)
    bf26:	48 8d 05 9b 5f 01 00 	lea    0x15f9b(%rip),%rax        # 21ec8 <g_289>
    bf2d:	48 89 85 f0 e7 ff ff 	mov    %rax,-0x1810(%rbp)
    bf34:	48 8d 05 8d 5f 01 00 	lea    0x15f8d(%rip),%rax        # 21ec8 <g_289>
    bf3b:	48 89 85 f8 e7 ff ff 	mov    %rax,-0x1808(%rbp)
    bf42:	48 8d 05 7f 5f 01 00 	lea    0x15f7f(%rip),%rax        # 21ec8 <g_289>
    bf49:	48 89 85 00 e8 ff ff 	mov    %rax,-0x1800(%rbp)
    bf50:	48 8d 05 71 5f 01 00 	lea    0x15f71(%rip),%rax        # 21ec8 <g_289>
    bf57:	48 89 85 08 e8 ff ff 	mov    %rax,-0x17f8(%rbp)
    bf5e:	48 8d 05 63 5f 01 00 	lea    0x15f63(%rip),%rax        # 21ec8 <g_289>
    bf65:	48 89 85 10 e8 ff ff 	mov    %rax,-0x17f0(%rbp)
    bf6c:	48 8d 05 55 5f 01 00 	lea    0x15f55(%rip),%rax        # 21ec8 <g_289>
    bf73:	48 89 85 18 e8 ff ff 	mov    %rax,-0x17e8(%rbp)
    bf7a:	48 8d 05 47 5f 01 00 	lea    0x15f47(%rip),%rax        # 21ec8 <g_289>
    bf81:	48 89 85 20 e8 ff ff 	mov    %rax,-0x17e0(%rbp)
    bf88:	48 8d 05 39 5f 01 00 	lea    0x15f39(%rip),%rax        # 21ec8 <g_289>
    bf8f:	48 89 85 28 e8 ff ff 	mov    %rax,-0x17d8(%rbp)
    bf96:	48 8d 05 2b 5f 01 00 	lea    0x15f2b(%rip),%rax        # 21ec8 <g_289>
    bf9d:	48 89 85 30 e8 ff ff 	mov    %rax,-0x17d0(%rbp)
    bfa4:	48 8d 05 1d 5f 01 00 	lea    0x15f1d(%rip),%rax        # 21ec8 <g_289>
    bfab:	48 89 85 38 e8 ff ff 	mov    %rax,-0x17c8(%rbp)
    bfb2:	48 8d 05 0f 5f 01 00 	lea    0x15f0f(%rip),%rax        # 21ec8 <g_289>
    bfb9:	48 89 85 40 e8 ff ff 	mov    %rax,-0x17c0(%rbp)
    bfc0:	48 8d 05 01 5f 01 00 	lea    0x15f01(%rip),%rax        # 21ec8 <g_289>
    bfc7:	48 89 85 48 e8 ff ff 	mov    %rax,-0x17b8(%rbp)
    bfce:	48 8d 05 f3 5e 01 00 	lea    0x15ef3(%rip),%rax        # 21ec8 <g_289>
    bfd5:	48 89 85 50 e8 ff ff 	mov    %rax,-0x17b0(%rbp)
    bfdc:	48 8d 05 e5 5e 01 00 	lea    0x15ee5(%rip),%rax        # 21ec8 <g_289>
    bfe3:	48 89 85 58 e8 ff ff 	mov    %rax,-0x17a8(%rbp)
    bfea:	48 8d 05 d7 5e 01 00 	lea    0x15ed7(%rip),%rax        # 21ec8 <g_289>
    bff1:	48 89 85 60 e8 ff ff 	mov    %rax,-0x17a0(%rbp)
    bff8:	48 8d 05 c9 5e 01 00 	lea    0x15ec9(%rip),%rax        # 21ec8 <g_289>
    bfff:	48 89 85 68 e8 ff ff 	mov    %rax,-0x1798(%rbp)
    c006:	48 8d 05 bb 5e 01 00 	lea    0x15ebb(%rip),%rax        # 21ec8 <g_289>
    c00d:	48 89 85 70 e8 ff ff 	mov    %rax,-0x1790(%rbp)
    c014:	48 8d 05 ad 5e 01 00 	lea    0x15ead(%rip),%rax        # 21ec8 <g_289>
    c01b:	48 89 85 78 e8 ff ff 	mov    %rax,-0x1788(%rbp)
    c022:	48 8d 05 9f 5e 01 00 	lea    0x15e9f(%rip),%rax        # 21ec8 <g_289>
    c029:	48 89 85 80 e8 ff ff 	mov    %rax,-0x1780(%rbp)
    c030:	48 8d 05 91 5e 01 00 	lea    0x15e91(%rip),%rax        # 21ec8 <g_289>
    c037:	48 89 85 88 e8 ff ff 	mov    %rax,-0x1778(%rbp)
    c03e:	48 8d 05 83 5e 01 00 	lea    0x15e83(%rip),%rax        # 21ec8 <g_289>
    c045:	48 89 85 90 e8 ff ff 	mov    %rax,-0x1770(%rbp)
    c04c:	48 8d 05 75 5e 01 00 	lea    0x15e75(%rip),%rax        # 21ec8 <g_289>
    c053:	48 89 85 98 e8 ff ff 	mov    %rax,-0x1768(%rbp)
    c05a:	48 8d 05 67 5e 01 00 	lea    0x15e67(%rip),%rax        # 21ec8 <g_289>
    c061:	48 89 85 a0 e8 ff ff 	mov    %rax,-0x1760(%rbp)
    c068:	48 8d 05 59 5e 01 00 	lea    0x15e59(%rip),%rax        # 21ec8 <g_289>
    c06f:	48 89 85 a8 e8 ff ff 	mov    %rax,-0x1758(%rbp)
    c076:	48 8d 05 4b 5e 01 00 	lea    0x15e4b(%rip),%rax        # 21ec8 <g_289>
    c07d:	48 89 85 b0 e8 ff ff 	mov    %rax,-0x1750(%rbp)
    c084:	48 8d 05 3d 5e 01 00 	lea    0x15e3d(%rip),%rax        # 21ec8 <g_289>
    c08b:	48 89 85 b8 e8 ff ff 	mov    %rax,-0x1748(%rbp)
    c092:	48 8d 05 2f 5e 01 00 	lea    0x15e2f(%rip),%rax        # 21ec8 <g_289>
    c099:	48 89 85 c0 e8 ff ff 	mov    %rax,-0x1740(%rbp)
    c0a0:	48 8d 05 21 5e 01 00 	lea    0x15e21(%rip),%rax        # 21ec8 <g_289>
    c0a7:	48 89 85 c8 e8 ff ff 	mov    %rax,-0x1738(%rbp)
    c0ae:	48 8d 05 13 5e 01 00 	lea    0x15e13(%rip),%rax        # 21ec8 <g_289>
    c0b5:	48 89 85 d0 e8 ff ff 	mov    %rax,-0x1730(%rbp)
    c0bc:	48 8d 05 05 5e 01 00 	lea    0x15e05(%rip),%rax        # 21ec8 <g_289>
    c0c3:	48 89 85 d8 e8 ff ff 	mov    %rax,-0x1728(%rbp)
    c0ca:	c7 85 50 e1 ff ff ff 	movl   $0xffffffff,-0x1eb0(%rbp)
    c0d1:	ff ff ff 
    c0d4:	66 c7 85 e0 e3 ff ff 	movw   $0xffff,-0x1c20(%rbp)
    c0db:	ff ff 
    c0dd:	66 c7 85 e2 e3 ff ff 	movw   $0x7615,-0x1c1e(%rbp)
    c0e4:	15 76 
    c0e6:	66 c7 85 e4 e3 ff ff 	movw   $0x0,-0x1c1c(%rbp)
    c0ed:	00 00 
    c0ef:	66 c7 85 e6 e3 ff ff 	movw   $0x0,-0x1c1a(%rbp)
    c0f6:	00 00 
    c0f8:	66 c7 85 e8 e3 ff ff 	movw   $0x7615,-0x1c18(%rbp)
    c0ff:	15 76 
    c101:	66 c7 85 ea e3 ff ff 	movw   $0xffff,-0x1c16(%rbp)
    c108:	ff ff 
    c10a:	66 c7 85 ec e3 ff ff 	movw   $0x7615,-0x1c14(%rbp)
    c111:	15 76 
    c113:	66 c7 85 ee e3 ff ff 	movw   $0x0,-0x1c12(%rbp)
    c11a:	00 00 
    c11c:	66 c7 85 f0 e3 ff ff 	movw   $0x0,-0x1c10(%rbp)
    c123:	00 00 
    c125:	66 c7 85 f2 e3 ff ff 	movw   $0x7615,-0x1c0e(%rbp)
    c12c:	15 76 
    c12e:	c7 85 08 e0 ff ff 00 	movl   $0x0,-0x1ff8(%rbp)
    c135:	00 00 00 
    c138:	eb 1a                	jmp    c154 <func_14+0x4340>
    c13a:	8b 85 08 e0 ff ff    	mov    -0x1ff8(%rbp),%eax
    c140:	48 98                	cltq   
    c142:	c7 84 85 b4 e3 ff ff 	movl   $0x3,-0x1c4c(%rbp,%rax,4)
    c149:	03 00 00 00 
    c14d:	83 85 08 e0 ff ff 01 	addl   $0x1,-0x1ff8(%rbp)
    c154:	83 bd 08 e0 ff ff 02 	cmpl   $0x2,-0x1ff8(%rbp)
    c15b:	7e dd                	jle    c13a <func_14+0x4326>
    c15d:	48 8b 85 60 e6 ff ff 	mov    -0x19a0(%rbp),%rax
    c164:	48 f7 d0             	not    %rax
    c167:	48 89 85 60 e6 ff ff 	mov    %rax,-0x19a0(%rbp)
    c16e:	c7 05 80 25 01 00 f0 	movl   $0xfffffff0,0x12580(%rip)        # 1e6f8 <g_1095>
    c175:	ff ff ff 
    c178:	e9 15 02 00 00       	jmpq   c392 <func_14+0x457e>
    c17d:	c7 85 9c e0 ff ff b6 	movl   $0x1f5eddb6,-0x1f64(%rbp)
    c184:	dd 5e 1f 
    c187:	c7 85 a0 e0 ff ff 8e 	movl   $0xb442378e,-0x1f60(%rbp)
    c18e:	37 42 b4 
    c191:	c7 85 a4 e0 ff ff e1 	movl   $0xe6aabee1,-0x1f5c(%rbp)
    c198:	be aa e6 
    c19b:	c7 85 a8 e0 ff ff 03 	movl   $0x3,-0x1f58(%rbp)
    c1a2:	00 00 00 
    c1a5:	c7 85 ac e0 ff ff 13 	movl   $0xce7fd013,-0x1f54(%rbp)
    c1ac:	d0 7f ce 
    c1af:	c7 85 0c e0 ff ff 00 	movl   $0x0,-0x1ff4(%rbp)
    c1b6:	00 00 00 
    c1b9:	eb 1a                	jmp    c1d5 <func_14+0x43c1>
    c1bb:	8b 85 0c e0 ff ff    	mov    -0x1ff4(%rbp),%eax
    c1c1:	48 98                	cltq   
    c1c3:	c7 84 85 a0 e3 ff ff 	movl   $0xffffffff,-0x1c60(%rbp,%rax,4)
    c1ca:	ff ff ff ff 
    c1ce:	83 85 0c e0 ff ff 01 	addl   $0x1,-0x1ff4(%rbp)
    c1d5:	83 bd 0c e0 ff ff 00 	cmpl   $0x0,-0x1ff4(%rbp)
    c1dc:	7e dd                	jle    c1bb <func_14+0x43a7>
    c1de:	c7 85 0c e0 ff ff 00 	movl   $0x0,-0x1ff4(%rbp)
    c1e5:	00 00 00 
    c1e8:	eb 1b                	jmp    c205 <func_14+0x43f1>
    c1ea:	8b 85 0c e0 ff ff    	mov    -0x1ff4(%rbp),%eax
    c1f0:	48 98                	cltq   
    c1f2:	48 c7 84 c5 20 e4 ff 	movq   $0x0,-0x1be0(%rbp,%rax,8)
    c1f9:	ff 00 00 00 00 
    c1fe:	83 85 0c e0 ff ff 01 	addl   $0x1,-0x1ff4(%rbp)
    c205:	83 bd 0c e0 ff ff 02 	cmpl   $0x2,-0x1ff4(%rbp)
    c20c:	7e dc                	jle    c1ea <func_14+0x43d6>
    c20e:	8b 85 5c df ff ff    	mov    -0x20a4(%rbp),%eax
    c214:	0f b6 d0             	movzbl %al,%edx
    c217:	8b 05 b3 f1 00 00    	mov    0xf1b3(%rip),%eax        # 1b3d0 <l_2222.4577>
    c21d:	83 f8 01             	cmp    $0x1,%eax
    c220:	0f 95 c0             	setne  %al
    c223:	0f b6 c0             	movzbl %al,%eax
    c226:	89 d6                	mov    %edx,%esi
    c228:	89 c7                	mov    %eax,%edi
    c22a:	e8 64 a9 ff ff       	callq  6b93 <safe_mul_func_uint8_t_u_u>
    c22f:	0f b6 c0             	movzbl %al,%eax
    c232:	0f b6 15 b8 2b 01 00 	movzbl 0x12bb8(%rip),%edx        # 1edf1 <g_1294+0x11>
    c239:	d0 ea                	shr    %dl
    c23b:	0f b6 ca             	movzbl %dl,%ecx
    c23e:	0f b6 55 bf          	movzbl -0x41(%rbp),%edx
    c242:	0f be d2             	movsbl %dl,%edx
    c245:	09 ca                	or     %ecx,%edx
    c247:	89 c6                	mov    %eax,%esi
    c249:	89 d7                	mov    %edx,%edi
    c24b:	e8 68 ac ff ff       	callq  6eb8 <safe_add_func_uint32_t_u_u>
    c250:	89 c1                	mov    %eax,%ecx
    c252:	48 8b 85 10 e8 ff ff 	mov    -0x17f0(%rbp),%rax
    c259:	48 8d 15 68 5c 01 00 	lea    0x15c68(%rip),%rdx        # 21ec8 <g_289>
    c260:	48 39 d0             	cmp    %rdx,%rax
    c263:	0f 95 c0             	setne  %al
    c266:	0f b6 c0             	movzbl %al,%eax
    c269:	48 89 ce             	mov    %rcx,%rsi
    c26c:	48 89 c7             	mov    %rax,%rdi
    c26f:	e8 40 a7 ff ff       	callq  69b4 <safe_mod_func_int64_t_s_s>
    c274:	8b 95 5c df ff ff    	mov    -0x20a4(%rbp),%edx
    c27a:	48 39 d0             	cmp    %rdx,%rax
    c27d:	0f 95 c0             	setne  %al
    c280:	0f b6 d0             	movzbl %al,%edx
    c283:	48 8b 05 76 52 01 00 	mov    0x15276(%rip),%rax        # 21500 <g_72>
    c28a:	0f b7 00             	movzwl (%rax),%eax
    c28d:	0f b7 c0             	movzwl %ax,%eax
    c290:	89 d6                	mov    %edx,%esi
    c292:	89 c7                	mov    %eax,%edi
    c294:	e8 6d ab ff ff       	callq  6e06 <safe_lshift_func_uint16_t_u_u>
    c299:	66 85 c0             	test   %ax,%ax
    c29c:	75 0a                	jne    c2a8 <func_14+0x4494>
    c29e:	48 8b 85 b8 e6 ff ff 	mov    -0x1948(%rbp),%rax
    c2a5:	48 85 c0             	test   %rax,%rax
    c2a8:	8b 85 80 e4 ff ff    	mov    -0x1b80(%rbp),%eax
    c2ae:	85 c0                	test   %eax,%eax
    c2b0:	0f 95 c0             	setne  %al
    c2b3:	0f b6 d0             	movzbl %al,%edx
    c2b6:	8b 05 1c f1 00 00    	mov    0xf11c(%rip),%eax        # 1b3d8 <l_2222.4577+0x8>
    c2bc:	39 c2                	cmp    %eax,%edx
    c2be:	0f 95 c0             	setne  %al
    c2c1:	89 c2                	mov    %eax,%edx
    c2c3:	48 8b 85 f0 e1 ff ff 	mov    -0x1e10(%rbp),%rax
    c2ca:	88 10                	mov    %dl,(%rax)
    c2cc:	48 8b 85 f0 e1 ff ff 	mov    -0x1e10(%rbp),%rax
    c2d3:	0f b6 00             	movzbl (%rax),%eax
    c2d6:	3c 5f                	cmp    $0x5f,%al
    c2d8:	76 12                	jbe    c2ec <func_14+0x44d8>
    c2da:	83 bd 5c df ff ff 00 	cmpl   $0x0,-0x20a4(%rbp)
    c2e1:	0f 84 8e 00 00 00    	je     c375 <func_14+0x4561>
    c2e7:	e9 b5 00 00 00       	jmpq   c3a1 <func_14+0x458d>
    c2ec:	48 8d 85 e0 e6 ff ff 	lea    -0x1920(%rbp),%rax
    c2f3:	48 8d 15 66 c8 00 00 	lea    0xc866(%rip),%rdx        # 18b60 <g_764+0xb00>
    c2fa:	b9 1f 00 00 00       	mov    $0x1f,%ecx
    c2ff:	48 89 c7             	mov    %rax,%rdi
    c302:	48 89 d6             	mov    %rdx,%rsi
    c305:	f3 48 a5             	rep movsq %ds:(%rsi),%es:(%rdi)
    c308:	48 89 f2             	mov    %rsi,%rdx
    c30b:	48 89 f8             	mov    %rdi,%rax
    c30e:	8b 0a                	mov    (%rdx),%ecx
    c310:	89 08                	mov    %ecx,(%rax)
    c312:	48 8d 40 04          	lea    0x4(%rax),%rax
    c316:	48 8d 52 04          	lea    0x4(%rdx),%rdx
    c31a:	c7 85 b0 e0 ff ff 04 	movl   $0x4,-0x1f50(%rbp)
    c321:	00 00 00 
    c324:	48 8d 85 e0 e8 ff ff 	lea    -0x1720(%rbp),%rax
    c32b:	48 8d 15 2e c9 00 00 	lea    0xc92e(%rip),%rdx        # 18c60 <g_764+0xc00>
    c332:	b9 28 00 00 00       	mov    $0x28,%ecx
    c337:	48 89 c7             	mov    %rax,%rdi
    c33a:	48 89 d6             	mov    %rdx,%rsi
    c33d:	f3 48 a5             	rep movsq %ds:(%rsi),%es:(%rdi)
    c340:	8b 05 8a f0 00 00    	mov    0xf08a(%rip),%eax        # 1b3d0 <l_2222.4577>
    c346:	85 c0                	test   %eax,%eax
    c348:	74 03                	je     c34d <func_14+0x4539>
    c34a:	90                   	nop
    c34b:	eb 54                	jmp    c3a1 <func_14+0x458d>
    c34d:	0f b7 85 7a df ff ff 	movzwl -0x2086(%rbp),%eax
    c354:	83 e8 01             	sub    $0x1,%eax
    c357:	66 89 85 7a df ff ff 	mov    %ax,-0x2086(%rbp)
    c35e:	83 ad d0 df ff ff 01 	subl   $0x1,-0x2030(%rbp)
    c365:	0f b6 85 aa e3 ff ff 	movzbl -0x1c56(%rbp),%eax
    c36c:	83 c0 01             	add    $0x1,%eax
    c36f:	88 85 aa e3 ff ff    	mov    %al,-0x1c56(%rbp)
    c375:	48 8d 85 50 e1 ff ff 	lea    -0x1eb0(%rbp),%rax
    c37c:	48 89 85 28 e4 ff ff 	mov    %rax,-0x1bd8(%rbp)
    c383:	8b 05 6f 23 01 00    	mov    0x1236f(%rip),%eax        # 1e6f8 <g_1095>
    c389:	83 c0 01             	add    $0x1,%eax
    c38c:	89 05 66 23 01 00    	mov    %eax,0x12366(%rip)        # 1e6f8 <g_1095>
    c392:	8b 05 60 23 01 00    	mov    0x12360(%rip),%eax        # 1e6f8 <g_1095>
    c398:	83 f8 18             	cmp    $0x18,%eax
    c39b:	0f 86 dc fd ff ff    	jbe    c17d <func_14+0x4369>
    c3a1:	0f b7 85 ea e3 ff ff 	movzwl -0x1c16(%rbp),%eax
    c3a8:	83 e8 01             	sub    $0x1,%eax
    c3ab:	66 89 85 ea e3 ff ff 	mov    %ax,-0x1c16(%rbp)
    c3b2:	c7 85 a8 df ff ff 1c 	movl   $0x1c,-0x2058(%rbp)
    c3b9:	00 00 00 
    c3bc:	e9 51 01 00 00       	jmpq   c512 <func_14+0x46fe>
    c3c1:	48 8d 05 ec 1e 01 00 	lea    0x11eec(%rip),%rax        # 1e2b4 <g_86+0x4>
    c3c8:	48 89 85 30 e3 ff ff 	mov    %rax,-0x1cd0(%rbp)
    c3cf:	48 8b 85 30 e3 ff ff 	mov    -0x1cd0(%rbp),%rax
    c3d6:	48 89 c7             	mov    %rax,%rdi
    c3d9:	e8 c4 32 00 00       	callq  f6a2 <func_55>
    c3de:	48 8b 1d 5b 5b 01 00 	mov    0x15b5b(%rip),%rbx        # 21f40 <g_669>
    c3e5:	48 89 c7             	mov    %rax,%rdi
    c3e8:	e8 b5 32 00 00       	callq  f6a2 <func_55>
    c3ed:	48 89 03             	mov    %rax,(%rbx)
    c3f0:	83 bd 5c df ff ff 00 	cmpl   $0x0,-0x20a4(%rbp)
    c3f7:	0f 85 0d 01 00 00    	jne    c50a <func_14+0x46f6>
    c3fd:	48 8b 85 30 e3 ff ff 	mov    -0x1cd0(%rbp),%rax
    c404:	8b 10                	mov    (%rax),%edx
    c406:	48 8b 85 30 e3 ff ff 	mov    -0x1cd0(%rbp),%rax
    c40d:	8b 00                	mov    (%rax),%eax
    c40f:	0f b6 c0             	movzbl %al,%eax
    c412:	89 d6                	mov    %edx,%esi
    c414:	89 c7                	mov    %eax,%edi
    c416:	e8 ea a7 ff ff       	callq  6c05 <safe_lshift_func_uint8_t_u_s>
    c41b:	84 c0                	test   %al,%al
    c41d:	48 8b 05 a4 5a 01 00 	mov    0x15aa4(%rip),%rax        # 21ec8 <g_289>
    c424:	48 8b 18             	mov    (%rax),%rbx
    c427:	48 8b 05 8a 5d 01 00 	mov    0x15d8a(%rip),%rax        # 221b8 <g_2180>
    c42e:	8b 10                	mov    (%rax),%edx
    c430:	48 8b 85 30 e3 ff ff 	mov    -0x1cd0(%rbp),%rax
    c437:	8b 00                	mov    (%rax),%eax
    c439:	89 d6                	mov    %edx,%esi
    c43b:	89 c7                	mov    %eax,%edi
    c43d:	e8 c3 a1 ff ff       	callq  6605 <safe_sub_func_int32_t_s_s>
    c442:	8b 95 50 e1 ff ff    	mov    -0x1eb0(%rbp),%edx
    c448:	39 d0                	cmp    %edx,%eax
    c44a:	0f 9c c0             	setl   %al
    c44d:	0f b6 d0             	movzbl %al,%edx
    c450:	48 8b 85 30 e3 ff ff 	mov    -0x1cd0(%rbp),%rax
    c457:	8b 00                	mov    (%rax),%eax
    c459:	39 c2                	cmp    %eax,%edx
    c45b:	0f 9f c0             	setg   %al
    c45e:	0f b6 d0             	movzbl %al,%edx
    c461:	0f b7 05 48 1c 01 00 	movzwl 0x11c48(%rip),%eax        # 1e0b0 <g_49>
    c468:	0f b6 c0             	movzbl %al,%eax
    c46b:	89 d6                	mov    %edx,%esi
    c46d:	89 c7                	mov    %eax,%edi
    c46f:	e8 04 a7 ff ff       	callq  6b78 <safe_sub_func_uint8_t_u_u>
    c474:	84 c0                	test   %al,%al
    c476:	75 09                	jne    c481 <func_14+0x466d>
    c478:	83 bd 5c df ff ff 00 	cmpl   $0x0,-0x20a4(%rbp)
    c47f:	74 07                	je     c488 <func_14+0x4674>
    c481:	b8 01 00 00 00       	mov    $0x1,%eax
    c486:	eb 05                	jmp    c48d <func_14+0x4679>
    c488:	b8 00 00 00 00       	mov    $0x0,%eax
    c48d:	48 98                	cltq   
    c48f:	be 00 00 00 00       	mov    $0x0,%esi
    c494:	48 89 c7             	mov    %rax,%rdi
    c497:	e8 a5 a3 ff ff       	callq  6841 <safe_add_func_int64_t_s_s>
    c49c:	48 85 c0             	test   %rax,%rax
    c49f:	74 10                	je     c4b1 <func_14+0x469d>
    c4a1:	83 bd 5c df ff ff 00 	cmpl   $0x0,-0x20a4(%rbp)
    c4a8:	74 07                	je     c4b1 <func_14+0x469d>
    c4aa:	b8 01 00 00 00       	mov    $0x1,%eax
    c4af:	eb 05                	jmp    c4b6 <func_14+0x46a2>
    c4b1:	b8 00 00 00 00       	mov    $0x0,%eax
    c4b6:	0f b6 d0             	movzbl %al,%edx
    c4b9:	0f b6 05 db 27 01 00 	movzbl 0x127db(%rip),%eax        # 1ec9b <g_1290+0xb>
    c4c0:	c1 e0 02             	shl    $0x2,%eax
    c4c3:	c0 f8 06             	sar    $0x6,%al
    c4c6:	0f b6 c0             	movzbl %al,%eax
    c4c9:	89 d6                	mov    %edx,%esi
    c4cb:	89 c7                	mov    %eax,%edi
    c4cd:	e8 c1 a6 ff ff       	callq  6b93 <safe_mul_func_uint8_t_u_u>
    c4d2:	0f b6 c0             	movzbl %al,%eax
    c4d5:	8b 95 5c df ff ff    	mov    -0x20a4(%rbp),%edx
    c4db:	89 d6                	mov    %edx,%esi
    c4dd:	89 c7                	mov    %eax,%edi
    c4df:	e8 19 aa ff ff       	callq  6efd <safe_mod_func_uint32_t_u_u>
    c4e4:	89 c0                	mov    %eax,%eax
    c4e6:	48 21 d8             	and    %rbx,%rax
    c4e9:	48 85 c0             	test   %rax,%rax
    c4ec:	74 11                	je     c4ff <func_14+0x46eb>
    c4ee:	8b 95 5c df ff ff    	mov    -0x20a4(%rbp),%edx
    c4f4:	48 8b 85 30 e3 ff ff 	mov    -0x1cd0(%rbp),%rax
    c4fb:	89 10                	mov    %edx,(%rax)
    c4fd:	eb 0c                	jmp    c50b <func_14+0x46f7>
    c4ff:	8b 85 5c df ff ff    	mov    -0x20a4(%rbp),%eax
    c505:	e9 a3 14 00 00       	jmpq   d9ad <func_14+0x5b99>
    c50a:	90                   	nop
    c50b:	83 ad a8 df ff ff 01 	subl   $0x1,-0x2058(%rbp)
    c512:	83 bd a8 df ff ff f5 	cmpl   $0xfffffff5,-0x2058(%rbp)
    c519:	0f 85 a2 fe ff ff    	jne    c3c1 <func_14+0x45ad>
    c51f:	48 8b 05 aa 5c 01 00 	mov    0x15caa(%rip),%rax        # 221d0 <g_2270>
    c526:	48 8d 15 93 35 01 00 	lea    0x13593(%rip),%rdx        # 1fac0 <g_1322>
    c52d:	48 89 10             	mov    %rdx,(%rax)
    c530:	c7 85 c8 df ff ff 00 	movl   $0x0,-0x2038(%rbp)
    c537:	00 00 00 
    c53a:	e9 c8 0e 00 00       	jmpq   d407 <func_14+0x55f3>
    c53f:	c7 85 b4 e0 ff ff 00 	movl   $0x0,-0x1f4c(%rbp)
    c546:	00 00 00 
    c549:	c7 85 48 e1 ff ff 1d 	movl   $0xd8b1141d,-0x1eb8(%rbp)
    c550:	14 b1 d8 
    c553:	c7 85 b8 e0 ff ff 09 	movl   $0x9,-0x1f48(%rbp)
    c55a:	00 00 00 
    c55d:	48 8d 05 ac 5a 01 00 	lea    0x15aac(%rip),%rax        # 22010 <g_1802>
    c564:	48 89 85 38 e3 ff ff 	mov    %rax,-0x1cc8(%rbp)
    c56b:	48 8d 05 66 5c 01 00 	lea    0x15c66(%rip),%rax        # 221d8 <g_2279>
    c572:	48 89 85 50 e1 ff ff 	mov    %rax,-0x1eb0(%rbp)
    c579:	8b 95 24 f8 ff ff    	mov    -0x7dc(%rbp),%edx
    c57f:	48 8b 05 42 1e 01 00 	mov    0x11e42(%rip),%rax        # 1e3c8 <g_438+0x8>
    c586:	c1 e0 02             	shl    $0x2,%eax
    c589:	c1 f8 1e             	sar    $0x1e,%eax
    c58c:	3c 01                	cmp    $0x1,%al
    c58e:	0f 94 c0             	sete   %al
    c591:	0f b6 c0             	movzbl %al,%eax
    c594:	89 d6                	mov    %edx,%esi
    c596:	89 c7                	mov    %eax,%edi
    c598:	e8 f0 a6 ff ff       	callq  6c8d <safe_rshift_func_uint8_t_u_s>
    c59d:	84 c0                	test   %al,%al
    c59f:	0f 84 53 03 00 00    	je     c8f8 <func_14+0x4ae4>
    c5a5:	66 c7 85 80 df ff ff 	movw   $0xf469,-0x2080(%rbp)
    c5ac:	69 f4 
    c5ae:	c7 85 d0 e0 ff ff 00 	movl   $0x0,-0x1f30(%rbp)
    c5b5:	00 00 00 
    c5b8:	c7 85 d4 e0 ff ff 4d 	movl   $0xaf510d4d,-0x1f2c(%rbp)
    c5bf:	0d 51 af 
    c5c2:	48 8b 85 70 e4 ff ff 	mov    -0x1b90(%rbp),%rax
    c5c9:	48 89 05 08 5c 01 00 	mov    %rax,0x15c08(%rip)        # 221d8 <g_2279>
    c5d0:	48 8b 05 01 5c 01 00 	mov    0x15c01(%rip),%rax        # 221d8 <g_2279>
    c5d7:	48 85 c0             	test   %rax,%rax
    c5da:	0f 95 c0             	setne  %al
    c5dd:	0f b6 c0             	movzbl %al,%eax
    c5e0:	be d7 34 00 00       	mov    $0x34d7,%esi
    c5e5:	89 c7                	mov    %eax,%edi
    c5e7:	e8 09 9e ff ff       	callq  63f5 <safe_mul_func_int16_t_s_s>
    c5ec:	66 85 c0             	test   %ax,%ax
    c5ef:	0f 84 e4 01 00 00    	je     c7d9 <func_14+0x49c5>
    c5f5:	48 8d 05 0a 26 01 00 	lea    0x1260a(%rip),%rax        # 1ec06 <g_1242>
    c5fc:	48 89 85 e0 e8 ff ff 	mov    %rax,-0x1720(%rbp)
    c603:	48 8d 05 fc 25 01 00 	lea    0x125fc(%rip),%rax        # 1ec06 <g_1242>
    c60a:	48 89 85 e8 e8 ff ff 	mov    %rax,-0x1718(%rbp)
    c611:	48 8d 05 ee 25 01 00 	lea    0x125ee(%rip),%rax        # 1ec06 <g_1242>
    c618:	48 89 85 f0 e8 ff ff 	mov    %rax,-0x1710(%rbp)
    c61f:	48 8d 05 e0 25 01 00 	lea    0x125e0(%rip),%rax        # 1ec06 <g_1242>
    c626:	48 89 85 f8 e8 ff ff 	mov    %rax,-0x1708(%rbp)
    c62d:	48 8d 05 d2 25 01 00 	lea    0x125d2(%rip),%rax        # 1ec06 <g_1242>
    c634:	48 89 85 00 e9 ff ff 	mov    %rax,-0x1700(%rbp)
    c63b:	48 8d 05 c4 25 01 00 	lea    0x125c4(%rip),%rax        # 1ec06 <g_1242>
    c642:	48 89 85 08 e9 ff ff 	mov    %rax,-0x16f8(%rbp)
    c649:	48 8d 05 b6 25 01 00 	lea    0x125b6(%rip),%rax        # 1ec06 <g_1242>
    c650:	48 89 85 10 e9 ff ff 	mov    %rax,-0x16f0(%rbp)
    c657:	48 8b 05 6a 1d 01 00 	mov    0x11d6a(%rip),%rax        # 1e3c8 <g_438+0x8>
    c65e:	8b 85 5c df ff ff    	mov    -0x20a4(%rbp),%eax
    c664:	89 c2                	mov    %eax,%edx
    c666:	0f b7 05 27 20 01 00 	movzwl 0x12027(%rip),%eax        # 1e694 <g_863>
    c66d:	09 d0                	or     %edx,%eax
    c66f:	66 89 05 1e 20 01 00 	mov    %ax,0x1201e(%rip)        # 1e694 <g_863>
    c676:	48 8b 05 5b 58 01 00 	mov    0x1585b(%rip),%rax        # 21ed8 <g_346>
    c67d:	0f b6 00             	movzbl (%rax),%eax
    c680:	0f be d8             	movsbl %al,%ebx
    c683:	66 c7 05 f8 34 01 00 	movw   $0xaa68,0x134f8(%rip)        # 1fb84 <g_1716>
    c68a:	68 aa 
    c68c:	8b 85 48 e1 ff ff    	mov    -0x1eb8(%rbp),%eax
    c692:	4c 63 e0             	movslq %eax,%r12
    c695:	be 04 00 00 00       	mov    $0x4,%esi
    c69a:	bf c8 ff ff ff       	mov    $0xffffffc8,%edi
    c69f:	e8 fd 9b ff ff       	callq  62a1 <safe_lshift_func_int8_t_s_s>
    c6a4:	48 8b 05 65 59 01 00 	mov    0x15965(%rip),%rax        # 22010 <g_1802>
    c6ab:	48 8b 00             	mov    (%rax),%rax
    c6ae:	89 c2                	mov    %eax,%edx
    c6b0:	8b 85 5c df ff ff    	mov    -0x20a4(%rbp),%eax
    c6b6:	31 d0                	xor    %edx,%eax
    c6b8:	89 85 fc df ff ff    	mov    %eax,-0x2004(%rbp)
    c6be:	8b 85 fc df ff ff    	mov    -0x2004(%rbp),%eax
    c6c4:	89 85 b4 e0 ff ff    	mov    %eax,-0x1f4c(%rbp)
    c6ca:	8b 85 b4 e0 ff ff    	mov    -0x1f4c(%rbp),%eax
    c6d0:	0f b6 d0             	movzbl %al,%edx
    c6d3:	48 8b 85 f0 e1 ff ff 	mov    -0x1e10(%rbp),%rax
    c6da:	0f b6 00             	movzbl (%rax),%eax
    c6dd:	8d 70 ff             	lea    -0x1(%rax),%esi
    c6e0:	48 8b 8d f0 e1 ff ff 	mov    -0x1e10(%rbp),%rcx
    c6e7:	40 88 31             	mov    %sil,(%rcx)
    c6ea:	0f b6 c0             	movzbl %al,%eax
    c6ed:	89 d6                	mov    %edx,%esi
    c6ef:	89 c7                	mov    %eax,%edi
    c6f1:	e8 64 a4 ff ff       	callq  6b5a <safe_add_func_uint8_t_u_u>
    c6f6:	0f b6 d0             	movzbl %al,%edx
    c6f9:	0f bf 85 80 df ff ff 	movswl -0x2080(%rbp),%eax
    c700:	39 c2                	cmp    %eax,%edx
    c702:	4c 89 e6             	mov    %r12,%rsi
    c705:	48 c7 c7 ff ff ff ff 	mov    $0xffffffffffffffff,%rdi
    c70c:	e8 1d a9 ff ff       	callq  702e <safe_add_func_uint64_t_u_u>
    c711:	48 89 c2             	mov    %rax,%rdx
    c714:	48 8b 05 ad 58 01 00 	mov    0x158ad(%rip),%rax        # 21fc8 <g_1780>
    c71b:	48 8b 00             	mov    (%rax),%rax
    c71e:	48 8b 00             	mov    (%rax),%rax
    c721:	89 10                	mov    %edx,(%rax)
    c723:	8b 00                	mov    (%rax),%eax
    c725:	8b 95 5c df ff ff    	mov    -0x20a4(%rbp),%edx
    c72b:	89 d6                	mov    %edx,%esi
    c72d:	89 c7                	mov    %eax,%edi
    c72f:	e8 c9 a7 ff ff       	callq  6efd <safe_mod_func_uint32_t_u_u>
    c734:	3d 30 07 9f 2a       	cmp    $0x2a9f0730,%eax
    c739:	0f 96 c0             	setbe  %al
    c73c:	0f b6 c0             	movzbl %al,%eax
    c73f:	89 85 48 e1 ff ff    	mov    %eax,-0x1eb8(%rbp)
    c745:	8b 95 48 e1 ff ff    	mov    -0x1eb8(%rbp),%edx
    c74b:	8b 05 97 ec 00 00    	mov    0xec97(%rip),%eax        # 1b3e8 <l_2301.4616>
    c751:	39 c2                	cmp    %eax,%edx
    c753:	0f 9d c0             	setge  %al
    c756:	0f b6 c0             	movzbl %al,%eax
    c759:	8b 95 6c ed ff ff    	mov    -0x1294(%rbp),%edx
    c75f:	21 d0                	and    %edx,%eax
    c761:	98                   	cwtl   
    c762:	89 c6                	mov    %eax,%esi
    c764:	bf 00 00 00 00       	mov    $0x0,%edi
    c769:	e8 87 9c ff ff       	callq  63f5 <safe_mul_func_int16_t_s_s>
    c76e:	48 8b 85 08 e3 ff ff 	mov    -0x1cf8(%rbp),%rax
    c775:	83 e0 01             	and    $0x1,%eax
    c778:	48 85 c0             	test   %rax,%rax
    c77b:	75 0a                	jne    c787 <func_14+0x4973>
    c77d:	8b 05 65 ec 00 00    	mov    0xec65(%rip),%eax        # 1b3e8 <l_2301.4616>
    c783:	85 c0                	test   %eax,%eax
    c785:	74 07                	je     c78e <func_14+0x497a>
    c787:	b8 01 00 00 00       	mov    $0x1,%eax
    c78c:	eb 05                	jmp    c793 <func_14+0x497f>
    c78e:	b8 00 00 00 00       	mov    $0x0,%eax
    c793:	89 85 5c df ff ff    	mov    %eax,-0x20a4(%rbp)
    c799:	81 bd 5c df ff ff 2c 	cmpl   $0x94bc582c,-0x20a4(%rbp)
    c7a0:	58 bc 94 
    c7a3:	0f 97 c0             	seta   %al
    c7a6:	0f b6 c0             	movzbl %al,%eax
    c7a9:	89 de                	mov    %ebx,%esi
    c7ab:	89 c7                	mov    %eax,%edi
    c7ad:	e8 53 a4 ff ff       	callq  6c05 <safe_lshift_func_uint8_t_u_s>
    c7b2:	b8 50 ad 70 16       	mov    $0x1670ad50,%eax
    c7b7:	21 85 b8 e0 ff ff    	and    %eax,-0x1f48(%rbp)
    c7bd:	83 bd b8 e0 ff ff 00 	cmpl   $0x0,-0x1f48(%rbp)
    c7c4:	0f 85 1f 0c 00 00    	jne    d3e9 <func_14+0x55d5>
    c7ca:	8b 05 18 ec 00 00    	mov    0xec18(%rip),%eax        # 1b3e8 <l_2301.4616>
    c7d0:	85 c0                	test   %eax,%eax
    c7d2:	74 1f                	je     c7f3 <func_14+0x49df>
    c7d4:	e9 41 0c 00 00       	jmpq   d41a <func_14+0x5606>
    c7d9:	83 bd 5c df ff ff 00 	cmpl   $0x0,-0x20a4(%rbp)
    c7e0:	0f 85 30 0c 00 00    	jne    d416 <func_14+0x5602>
    c7e6:	83 bd 5c df ff ff 00 	cmpl   $0x0,-0x20a4(%rbp)
    c7ed:	0f 85 26 0c 00 00    	jne    d419 <func_14+0x5605>
    c7f3:	83 bd 5c df ff ff 00 	cmpl   $0x0,-0x20a4(%rbp)
    c7fa:	74 0b                	je     c807 <func_14+0x49f3>
    c7fc:	8b 85 5c df ff ff    	mov    -0x20a4(%rbp),%eax
    c802:	e9 dd 0b 00 00       	jmpq   d3e4 <func_14+0x55d0>
    c807:	8b 85 5c df ff ff    	mov    -0x20a4(%rbp),%eax
    c80d:	0f be d8             	movsbl %al,%ebx
    c810:	83 b5 d0 e0 ff ff f6 	xorl   $0xfffffff6,-0x1f30(%rbp)
    c817:	0f b6 05 c5 1a 01 00 	movzbl 0x11ac5(%rip),%eax        # 1e2e3 <g_176+0x3>
    c81e:	44 0f b6 e8          	movzbl %al,%r13d
    c822:	8b 85 5c df ff ff    	mov    -0x20a4(%rbp),%eax
    c828:	44 0f be e0          	movsbl %al,%r12d
    c82c:	8b 85 5c df ff ff    	mov    -0x20a4(%rbp),%eax
    c832:	98                   	cwtl   
    c833:	89 c6                	mov    %eax,%esi
    c835:	bf f8 ff ff ff       	mov    $0xfffffff8,%edi
    c83a:	e8 94 9b ff ff       	callq  63d3 <safe_sub_func_int16_t_s_s>
    c83f:	0f be c0             	movsbl %al,%eax
    c842:	44 89 e6             	mov    %r12d,%esi
    c845:	89 c7                	mov    %eax,%edi
    c847:	e8 c6 99 ff ff       	callq  6212 <safe_mul_func_int8_t_s_s>
    c84c:	48 8b 05 8d 5e 01 00 	mov    0x15e8d(%rip),%rax        # 226e0 <g_1840>
    c853:	48 89 85 90 e1 ff ff 	mov    %rax,-0x1e70(%rbp)
    c85a:	48 8b 85 38 e3 ff ff 	mov    -0x1cc8(%rbp),%rax
    c861:	48 3b 85 10 e3 ff ff 	cmp    -0x1cf0(%rbp),%rax
    c868:	0f 95 c0             	setne  %al
    c86b:	0f b6 c0             	movzbl %al,%eax
    c86e:	39 85 5c df ff ff    	cmp    %eax,-0x20a4(%rbp)
    c874:	0f 95 c0             	setne  %al
    c877:	0f b6 c0             	movzbl %al,%eax
    c87a:	39 85 5c df ff ff    	cmp    %eax,-0x20a4(%rbp)
    c880:	0f 97 c0             	seta   %al
    c883:	0f b6 c0             	movzbl %al,%eax
    c886:	89 c7                	mov    %eax,%edi
    c888:	e8 10 9b ff ff       	callq  639d <safe_unary_minus_func_int16_t_s>
    c88d:	98                   	cwtl   
    c88e:	39 85 5c df ff ff    	cmp    %eax,-0x20a4(%rbp)
    c894:	0f 92 c0             	setb   %al
    c897:	0f b6 c0             	movzbl %al,%eax
    c89a:	44 89 ea             	mov    %r13d,%edx
    c89d:	09 c2                	or     %eax,%edx
    c89f:	0f bf 85 80 df ff ff 	movswl -0x2080(%rbp),%eax
    c8a6:	39 c2                	cmp    %eax,%edx
    c8a8:	0f 9d c0             	setge  %al
    c8ab:	0f b6 c0             	movzbl %al,%eax
    c8ae:	be 00 00 00 00       	mov    $0x0,%esi
    c8b3:	89 c7                	mov    %eax,%edi
    c8b5:	e8 c0 a5 ff ff       	callq  6e7a <safe_rshift_func_uint16_t_u_u>
    c8ba:	0f be c0             	movsbl %al,%eax
    c8bd:	89 de                	mov    %ebx,%esi
    c8bf:	89 c7                	mov    %eax,%edi
    c8c1:	e8 4c 99 ff ff       	callq  6212 <safe_mul_func_int8_t_s_s>
    c8c6:	48 8b 05 fb 55 01 00 	mov    0x155fb(%rip),%rax        # 21ec8 <g_289>
    c8cd:	48 c7 00 00 00 00 00 	movq   $0x0,(%rax)
    c8d4:	48 8b 05 25 4c 01 00 	mov    0x14c25(%rip),%rax        # 21500 <g_72>
    c8db:	0f b7 00             	movzwl (%rax),%eax
    c8de:	66 85 c0             	test   %ax,%ax
    c8e1:	0f 94 c0             	sete   %al
    c8e4:	0f b6 c0             	movzbl %al,%eax
    c8e7:	21 85 d4 e0 ff ff    	and    %eax,-0x1f2c(%rbp)
    c8ed:	8b 85 c8 df ff ff    	mov    -0x2038(%rbp),%eax
    c8f3:	e9 ec 0a 00 00       	jmpq   d3e4 <func_14+0x55d0>
    c8f8:	c7 85 bc e0 ff ff 00 	movl   $0x0,-0x1f44(%rbp)
    c8ff:	00 00 00 
    c902:	c7 85 c0 e0 ff ff 61 	movl   $0x52e19161,-0x1f40(%rbp)
    c909:	91 e1 52 
    c90c:	c7 85 10 e0 ff ff 00 	movl   $0x0,-0x1ff0(%rbp)
    c913:	00 00 00 
    c916:	eb 1a                	jmp    c932 <func_14+0x4b1e>
    c918:	8b 85 10 e0 ff ff    	mov    -0x1ff0(%rbp),%eax
    c91e:	48 98                	cltq   
    c920:	c7 84 85 e0 e8 ff ff 	movl   $0x5a0e8362,-0x1720(%rbp,%rax,4)
    c927:	62 83 0e 5a 
    c92b:	83 85 10 e0 ff ff 01 	addl   $0x1,-0x1ff0(%rbp)
    c932:	83 bd 10 e0 ff ff 02 	cmpl   $0x2,-0x1ff0(%rbp)
    c939:	7e dd                	jle    c918 <func_14+0x4b04>
    c93b:	8b 9d 54 e0 ff ff    	mov    -0x1fac(%rbp),%ebx
    c941:	8b 85 5c df ff ff    	mov    -0x20a4(%rbp),%eax
    c947:	44 0f be e0          	movsbl %al,%r12d
    c94b:	48 8b 85 50 e1 ff ff 	mov    -0x1eb0(%rbp),%rax
    c952:	48 85 c0             	test   %rax,%rax
    c955:	0f 95 c0             	setne  %al
    c958:	44 0f b6 e8          	movzbl %al,%r13d
    c95c:	bf cb 00 00 00       	mov    $0xcb,%edi
    c961:	e8 df a1 ff ff       	callq  6b45 <safe_unary_minus_func_uint8_t_u>
    c966:	0f b6 c0             	movzbl %al,%eax
    c969:	44 89 ee             	mov    %r13d,%esi
    c96c:	89 c7                	mov    %eax,%edi
    c96e:	e8 43 9c ff ff       	callq  65b6 <safe_add_func_int32_t_s_s>
    c973:	4c 63 e8             	movslq %eax,%r13
    c976:	8b 85 80 ed ff ff    	mov    -0x1280(%rbp),%eax
    c97c:	48 98                	cltq   
    c97e:	8b 95 e4 e8 ff ff    	mov    -0x171c(%rbp),%edx
    c984:	89 d2                	mov    %edx,%edx
    c986:	48 89 c6             	mov    %rax,%rsi
    c989:	48 89 d7             	mov    %rdx,%rdi
    c98c:	e8 17 9f ff ff       	callq  68a8 <safe_sub_func_int64_t_s_s>
    c991:	49 39 c5             	cmp    %rax,%r13
    c994:	41 0f 9d c6          	setge  %r14b
    c998:	48 8b 05 61 4b 01 00 	mov    0x14b61(%rip),%rax        # 21500 <g_72>
    c99f:	0f b7 00             	movzwl (%rax),%eax
    c9a2:	0f bf d0             	movswl %ax,%edx
    c9a5:	0f b6 05 35 19 01 00 	movzbl 0x11935(%rip),%eax        # 1e2e1 <g_176+0x1>
    c9ac:	0f b6 c0             	movzbl %al,%eax
    c9af:	89 d6                	mov    %edx,%esi
    c9b1:	89 c7                	mov    %eax,%edi
    c9b3:	e8 3d 9a ff ff       	callq  63f5 <safe_mul_func_int16_t_s_s>
    c9b8:	0f b6 c0             	movzbl %al,%eax
    c9bb:	be 02 00 00 00       	mov    $0x2,%esi
    c9c0:	89 c7                	mov    %eax,%edi
    c9c2:	e8 f7 a2 ff ff       	callq  6cbe <safe_rshift_func_uint8_t_u_u>
    c9c7:	89 c2                	mov    %eax,%edx
    c9c9:	48 8b 85 f0 e0 ff ff 	mov    -0x1f10(%rbp),%rax
    c9d0:	0f b6 d2             	movzbl %dl,%edx
    c9d3:	66 89 10             	mov    %dx,(%rax)
    c9d6:	0f b7 00             	movzwl (%rax),%eax
    c9d9:	44 0f bf e8          	movswl %ax,%r13d
    c9dd:	8b 85 fc df ff ff    	mov    -0x2004(%rbp),%eax
    c9e3:	0f b7 c0             	movzwl %ax,%eax
    c9e6:	be 0c 00 00 00       	mov    $0xc,%esi
    c9eb:	89 c7                	mov    %eax,%edi
    c9ed:	e8 88 a4 ff ff       	callq  6e7a <safe_rshift_func_uint16_t_u_u>
    c9f2:	8b 85 b4 e0 ff ff    	mov    -0x1f4c(%rbp),%eax
    c9f8:	0f be c0             	movsbl %al,%eax
    c9fb:	be 03 00 00 00       	mov    $0x3,%esi
    ca00:	89 c7                	mov    %eax,%edi
    ca02:	e8 e7 98 ff ff       	callq  62ee <safe_lshift_func_int8_t_s_u>
    ca07:	0f be c0             	movsbl %al,%eax
    ca0a:	44 89 ee             	mov    %r13d,%esi
    ca0d:	89 c7                	mov    %eax,%edi
    ca0f:	e8 7e 9a ff ff       	callq  6492 <safe_lshift_func_int16_t_s_s>
    ca14:	0f bf d0             	movswl %ax,%edx
    ca17:	8b 85 e8 e8 ff ff    	mov    -0x1718(%rbp),%eax
    ca1d:	39 c2                	cmp    %eax,%edx
    ca1f:	0f 95 c0             	setne  %al
    ca22:	44 31 f0             	xor    %r14d,%eax
    ca25:	0f b6 c0             	movzbl %al,%eax
    ca28:	44 89 e6             	mov    %r12d,%esi
    ca2b:	89 c7                	mov    %eax,%edi
    ca2d:	e8 c0 97 ff ff       	callq  61f2 <safe_sub_func_int8_t_s_s>
    ca32:	8b 85 5c df ff ff    	mov    -0x20a4(%rbp),%eax
    ca38:	89 de                	mov    %ebx,%esi
    ca3a:	89 c7                	mov    %eax,%edi
    ca3c:	e8 e4 a4 ff ff       	callq  6f25 <safe_div_func_uint32_t_u_u>
    ca41:	85 c0                	test   %eax,%eax
    ca43:	74 11                	je     ca56 <func_14+0x4c42>
    ca45:	48 8b 05 74 54 01 00 	mov    0x15474(%rip),%rax        # 21ec0 <g_221>
    ca4c:	8b 95 5c df ff ff    	mov    -0x20a4(%rbp),%edx
    ca52:	89 10                	mov    %edx,(%rax)
    ca54:	eb 73                	jmp    cac9 <func_14+0x4cb5>
    ca56:	48 b8 01 01 7e 01 01 	movabs $0x1017e01017e0101,%rax
    ca5d:	7e 01 01 
    ca60:	48 89 45 b7          	mov    %rax,-0x49(%rbp)
    ca64:	48 8b 05 d5 54 01 00 	mov    0x154d5(%rip),%rax        # 21f40 <g_669>
    ca6b:	48 8d 95 94 df ff ff 	lea    -0x206c(%rbp),%rdx
    ca72:	48 89 10             	mov    %rdx,(%rax)
    ca75:	48 8b 85 f0 e0 ff ff 	mov    -0x1f10(%rbp),%rax
    ca7c:	0f b7 00             	movzwl (%rax),%eax
    ca7f:	89 c2                	mov    %eax,%edx
    ca81:	8b 85 e4 e8 ff ff    	mov    -0x171c(%rbp),%eax
    ca87:	09 c2                	or     %eax,%edx
    ca89:	48 8b 85 f0 e0 ff ff 	mov    -0x1f10(%rbp),%rax
    ca90:	66 89 10             	mov    %dx,(%rax)
    ca93:	0f b7 00             	movzwl (%rax),%eax
    ca96:	0f b7 d0             	movzwl %ax,%edx
    ca99:	0f b6 45 bb          	movzbl -0x45(%rbp),%eax
    ca9d:	66 98                	cbtw   
    ca9f:	0f b7 c0             	movzwl %ax,%eax
    caa2:	89 d6                	mov    %edx,%esi
    caa4:	89 c7                	mov    %eax,%edi
    caa6:	e8 92 a2 ff ff       	callq  6d3d <safe_mul_func_uint16_t_u_u>
    caab:	48 83 bd 10 e2 ff ff 	cmpq   $0x0,-0x1df0(%rbp)
    cab2:	00 
    cab3:	0f 95 c0             	setne  %al
    cab6:	0f b6 c0             	movzbl %al,%eax
    cab9:	0f b7 95 e0 e4 ff ff 	movzwl -0x1b20(%rbp),%edx
    cac0:	09 d0                	or     %edx,%eax
    cac2:	66 89 85 e0 e4 ff ff 	mov    %ax,-0x1b20(%rbp)
    cac9:	0f b6 45 bf          	movzbl -0x41(%rbp),%eax
    cacd:	48 0f be d8          	movsbq %al,%rbx
    cad1:	48 8b 05 98 54 01 00 	mov    0x15498(%rip),%rax        # 21f70 <g_984>
    cad8:	48 8b 00             	mov    (%rax),%rax
    cadb:	0f b6 00             	movzbl (%rax),%eax
    cade:	0f be c0             	movsbl %al,%eax
    cae1:	89 85 bc e0 ff ff    	mov    %eax,-0x1f44(%rbp)
    cae7:	8b 85 bc e0 ff ff    	mov    -0x1f44(%rbp),%eax
    caed:	44 0f b6 e0          	movzbl %al,%r12d
    caf1:	48 8b 05 28 54 01 00 	mov    0x15428(%rip),%rax        # 21f20 <g_343>
    caf8:	48 8b 00             	mov    (%rax),%rax
    cafb:	48 8b 00             	mov    (%rax),%rax
    cafe:	48 8b 00             	mov    (%rax),%rax
    cb01:	0f b6 00             	movzbl (%rax),%eax
    cb04:	0f be c0             	movsbl %al,%eax
    cb07:	89 c7                	mov    %eax,%edi
    cb09:	e8 b1 96 ff ff       	callq  61bf <safe_unary_minus_func_int8_t_s>
    cb0e:	0f be d0             	movsbl %al,%edx
    cb11:	48 8b 05 38 54 01 00 	mov    0x15438(%rip),%rax        # 21f50 <g_847>
    cb18:	48 8b 00             	mov    (%rax),%rax
    cb1b:	8b 08                	mov    (%rax),%ecx
    cb1d:	83 c1 01             	add    $0x1,%ecx
    cb20:	89 08                	mov    %ecx,(%rax)
    cb22:	8b 00                	mov    (%rax),%eax
    cb24:	39 c2                	cmp    %eax,%edx
    cb26:	0f 92 c0             	setb   %al
    cb29:	44 0f b6 e8          	movzbl %al,%r13d
    cb2d:	48 8b 05 34 54 01 00 	mov    0x15434(%rip),%rax        # 21f68 <g_985>
    cb34:	0f b6 00             	movzbl (%rax),%eax
    cb37:	44 0f be f0          	movsbl %al,%r14d
    cb3b:	be 08 00 00 00       	mov    $0x8,%esi
    cb40:	bf 02 00 00 00       	mov    $0x2,%edi
    cb45:	e8 bc a2 ff ff       	callq  6e06 <safe_lshift_func_uint16_t_u_u>
    cb4a:	0f b7 c0             	movzwl %ax,%eax
    cb4d:	44 09 f0             	or     %r14d,%eax
    cb50:	39 85 5c df ff ff    	cmp    %eax,-0x20a4(%rbp)
    cb56:	0f 92 c0             	setb   %al
    cb59:	0f b6 c0             	movzbl %al,%eax
    cb5c:	39 85 5c df ff ff    	cmp    %eax,-0x20a4(%rbp)
    cb62:	0f 97 c0             	seta   %al
    cb65:	0f b6 c0             	movzbl %al,%eax
    cb68:	44 89 ee             	mov    %r13d,%esi
    cb6b:	89 c7                	mov    %eax,%edi
    cb6d:	e8 5e a3 ff ff       	callq  6ed0 <safe_sub_func_uint32_t_u_u>
    cb72:	0f b6 c0             	movzbl %al,%eax
    cb75:	44 89 e6             	mov    %r12d,%esi
    cb78:	89 c7                	mov    %eax,%edi
    cb7a:	e8 db 9f ff ff       	callq  6b5a <safe_add_func_uint8_t_u_u>
    cb7f:	0f be c0             	movsbl %al,%eax
    cb82:	be 7b 00 00 00       	mov    $0x7b,%esi
    cb87:	89 c7                	mov    %eax,%edi
    cb89:	e8 84 96 ff ff       	callq  6212 <safe_mul_func_int8_t_s_s>
    cb8e:	84 c0                	test   %al,%al
    cb90:	75 12                	jne    cba4 <func_14+0x4d90>
    cb92:	83 bd 5c df ff ff 00 	cmpl   $0x0,-0x20a4(%rbp)
    cb99:	75 09                	jne    cba4 <func_14+0x4d90>
    cb9b:	83 bd 5c df ff ff 00 	cmpl   $0x0,-0x20a4(%rbp)
    cba2:	74 07                	je     cbab <func_14+0x4d97>
    cba4:	b8 01 00 00 00       	mov    $0x1,%eax
    cba9:	eb 05                	jmp    cbb0 <func_14+0x4d9c>
    cbab:	b8 00 00 00 00       	mov    $0x0,%eax
    cbb0:	0c dc                	or     $0xdc,%al
    cbb2:	0f b7 c0             	movzwl %ax,%eax
    cbb5:	be 0f 00 00 00       	mov    $0xf,%esi
    cbba:	89 c7                	mov    %eax,%edi
    cbbc:	e8 87 a2 ff ff       	callq  6e48 <safe_rshift_func_uint16_t_u_s>
    cbc1:	83 bd 5c df ff ff 00 	cmpl   $0x0,-0x20a4(%rbp)
    cbc8:	75 09                	jne    cbd3 <func_14+0x4dbf>
    cbca:	83 bd 5c df ff ff 00 	cmpl   $0x0,-0x20a4(%rbp)
    cbd1:	74 07                	je     cbda <func_14+0x4dc6>
    cbd3:	b8 01 00 00 00       	mov    $0x1,%eax
    cbd8:	eb 05                	jmp    cbdf <func_14+0x4dcb>
    cbda:	b8 00 00 00 00       	mov    $0x0,%eax
    cbdf:	48 98                	cltq   
    cbe1:	48 89 de             	mov    %rbx,%rsi
    cbe4:	48 89 c7             	mov    %rax,%rdi
    cbe7:	e8 94 a4 ff ff       	callq  7080 <safe_mod_func_uint64_t_u_u>
    cbec:	8b 95 5c df ff ff    	mov    -0x20a4(%rbp),%edx
    cbf2:	48 39 d0             	cmp    %rdx,%rax
    cbf5:	0f b6 45 b6          	movzbl -0x4a(%rbp),%eax
    cbf9:	0f b6 c0             	movzbl %al,%eax
    cbfc:	8b 95 b4 e0 ff ff    	mov    -0x1f4c(%rbp),%edx
    cc02:	31 d0                	xor    %edx,%eax
    cc04:	0f b7 c0             	movzwl %ax,%eax
    cc07:	be 03 00 00 00       	mov    $0x3,%esi
    cc0c:	89 c7                	mov    %eax,%edi
    cc0e:	e8 67 a2 ff ff       	callq  6e7a <safe_rshift_func_uint16_t_u_u>
    cc13:	0f b7 c0             	movzwl %ax,%eax
    cc16:	25 b1 b8 61 55       	and    $0x5561b8b1,%eax
    cc1b:	21 85 c0 e0 ff ff    	and    %eax,-0x1f40(%rbp)
    cc21:	8b 85 5c df ff ff    	mov    -0x20a4(%rbp),%eax
    cc27:	0f bf d0             	movswl %ax,%edx
    cc2a:	48 8b 05 97 53 01 00 	mov    0x15397(%rip),%rax        # 21fc8 <g_1780>
    cc31:	48 8b 00             	mov    (%rax),%rax
    cc34:	48 8b 00             	mov    (%rax),%rax
    cc37:	8b 08                	mov    (%rax),%ecx
    cc39:	83 c1 01             	add    $0x1,%ecx
    cc3c:	89 08                	mov    %ecx,(%rax)
    cc3e:	8b 00                	mov    (%rax),%eax
    cc40:	39 85 5c df ff ff    	cmp    %eax,-0x20a4(%rbp)
    cc46:	0f 92 c0             	setb   %al
    cc49:	0f b6 c0             	movzbl %al,%eax
    cc4c:	89 d6                	mov    %edx,%esi
    cc4e:	89 c7                	mov    %eax,%edi
    cc50:	e8 c1 97 ff ff       	callq  6416 <safe_mod_func_int16_t_s_s>
    cc55:	0f b6 c0             	movzbl %al,%eax
    cc58:	be 07 00 00 00       	mov    $0x7,%esi
    cc5d:	89 c7                	mov    %eax,%edi
    cc5f:	e8 5a a0 ff ff       	callq  6cbe <safe_rshift_func_uint8_t_u_u>
    cc64:	89 c2                	mov    %eax,%edx
    cc66:	48 8b 85 f0 e1 ff ff 	mov    -0x1e10(%rbp),%rax
    cc6d:	0f b6 00             	movzbl (%rax),%eax
    cc70:	8d 70 01             	lea    0x1(%rax),%esi
    cc73:	48 8b 8d f0 e1 ff ff 	mov    -0x1e10(%rbp),%rcx
    cc7a:	40 88 31             	mov    %sil,(%rcx)
    cc7d:	38 c2                	cmp    %al,%dl
    cc7f:	0f 93 c0             	setae  %al
    cc82:	0f b6 c0             	movzbl %al,%eax
    cc85:	89 85 48 e1 ff ff    	mov    %eax,-0x1eb8(%rbp)
    cc8b:	48 8b 85 08 e1 ff ff 	mov    -0x1ef8(%rbp),%rax
    cc92:	48 8b 00             	mov    (%rax),%rax
    cc95:	48 8b 18             	mov    (%rax),%rbx
    cc98:	48 8d 85 48 e1 ff ff 	lea    -0x1eb8(%rbp),%rax
    cc9f:	48 89 c7             	mov    %rax,%rdi
    cca2:	e8 fb 29 00 00       	callq  f6a2 <func_55>
    cca7:	48 89 03             	mov    %rax,(%rbx)
    ccaa:	c7 85 cc df ff ff 06 	movl   $0x6,-0x2034(%rbp)
    ccb1:	00 00 00 
    ccb4:	e9 40 01 00 00       	jmpq   cdf9 <func_14+0x4fe5>
    ccb9:	c7 85 c4 e0 ff ff 84 	movl   $0x16bee284,-0x1f3c(%rbp)
    ccc0:	e2 be 16 
    ccc3:	c7 85 c8 e0 ff ff 73 	movl   $0x7f9ac873,-0x1f38(%rbp)
    ccca:	c8 9a 7f 
    cccd:	81 bd 5c df ff ff fc 	cmpl   $0xfffc,-0x20a4(%rbp)
    ccd4:	ff 00 00 
    ccd7:	74 09                	je     cce2 <func_14+0x4ece>
    ccd9:	83 bd c4 e0 ff ff 00 	cmpl   $0x0,-0x1f3c(%rbp)
    cce0:	75 61                	jne    cd43 <func_14+0x4f2f>
    cce2:	8b 85 5c df ff ff    	mov    -0x20a4(%rbp),%eax
    cce8:	0f bf d8             	movswl %ax,%ebx
    cceb:	8b 85 5c df ff ff    	mov    -0x20a4(%rbp),%eax
    ccf1:	44 0f b7 e0          	movzwl %ax,%r12d
    ccf5:	44 8b ad 5c df ff ff 	mov    -0x20a4(%rbp),%r13d
    ccfc:	48 c7 c6 fe ff ff ff 	mov    $0xfffffffffffffffe,%rsi
    cd03:	bf 00 00 00 00       	mov    $0x0,%edi
    cd08:	e8 3e a3 ff ff       	callq  704b <safe_sub_func_uint64_t_u_u>
    cd0d:	4c 89 ee             	mov    %r13,%rsi
    cd10:	48 89 c7             	mov    %rax,%rdi
    cd13:	e8 9c 9c ff ff       	callq  69b4 <safe_mod_func_int64_t_s_s>
    cd18:	48 83 f8 01          	cmp    $0x1,%rax
    cd1c:	0f 97 c0             	seta   %al
    cd1f:	0f b6 c0             	movzbl %al,%eax
    cd22:	44 89 e6             	mov    %r12d,%esi
    cd25:	89 c7                	mov    %eax,%edi
    cd27:	e8 30 a0 ff ff       	callq  6d5c <safe_mod_func_uint16_t_u_u>
    cd2c:	98                   	cwtl   
    cd2d:	89 de                	mov    %ebx,%esi
    cd2f:	89 c7                	mov    %eax,%edi
    cd31:	e8 e0 96 ff ff       	callq  6416 <safe_mod_func_int16_t_s_s>
    cd36:	98                   	cwtl   
    cd37:	be 93 e5 ff ff       	mov    $0xffffe593,%esi
    cd3c:	89 c7                	mov    %eax,%edi
    cd3e:	e8 12 97 ff ff       	callq  6455 <safe_div_func_int16_t_s_s>
    cd43:	b8 01 00 00 00       	mov    $0x1,%eax
    cd48:	0f be c0             	movsbl %al,%eax
    cd4b:	be 07 00 00 00       	mov    $0x7,%esi
    cd50:	89 c7                	mov    %eax,%edi
    cd52:	e8 de 95 ff ff       	callq  6335 <safe_rshift_func_int8_t_s_s>
    cd57:	84 c0                	test   %al,%al
    cd59:	74 10                	je     cd6b <func_14+0x4f57>
    cd5b:	83 bd 5c df ff ff 00 	cmpl   $0x0,-0x20a4(%rbp)
    cd62:	74 07                	je     cd6b <func_14+0x4f57>
    cd64:	b8 01 00 00 00       	mov    $0x1,%eax
    cd69:	eb 05                	jmp    cd70 <func_14+0x4f5c>
    cd6b:	b8 00 00 00 00       	mov    $0x0,%eax
    cd70:	89 c2                	mov    %eax,%edx
    cd72:	0f b7 05 0b 2e 01 00 	movzwl 0x12e0b(%rip),%eax        # 1fb84 <g_1716>
    cd79:	09 d0                	or     %edx,%eax
    cd7b:	0f b6 c0             	movzbl %al,%eax
    cd7e:	89 c6                	mov    %eax,%esi
    cd80:	bf 2e 00 00 00       	mov    $0x2e,%edi
    cd85:	e8 ee 9d ff ff       	callq  6b78 <safe_sub_func_uint8_t_u_u>
    cd8a:	48 8b 05 27 26 01 00 	mov    0x12627(%rip),%rax        # 1f3b8 <g_1307+0x8>
    cd91:	48 c1 e8 3c          	shr    $0x3c,%rax
    cd95:	48 89 c2             	mov    %rax,%rdx
    cd98:	48 8b 05 21 26 01 00 	mov    0x12621(%rip),%rax        # 1f3c0 <g_1307+0x10>
    cd9f:	25 ff 01 00 00       	and    $0x1ff,%eax
    cda4:	48 c1 e0 04          	shl    $0x4,%rax
    cda8:	48 09 d0             	or     %rdx,%rax
    cdab:	0f b7 d0             	movzwl %ax,%edx
    cdae:	8b 85 cc df ff ff    	mov    -0x2034(%rbp),%eax
    cdb4:	48 98                	cltq   
    cdb6:	48 8d 0c c5 00 00 00 	lea    0x0(,%rax,8),%rcx
    cdbd:	00 
    cdbe:	48 8d 05 fb 12 01 00 	lea    0x112fb(%rip),%rax        # 1e0c0 <g_67>
    cdc5:	48 8b 04 01          	mov    (%rcx,%rax,1),%rax
    cdc9:	0f b7 c0             	movzwl %ax,%eax
    cdcc:	89 d6                	mov    %edx,%esi
    cdce:	89 c7                	mov    %eax,%edi
    cdd0:	e8 87 9f ff ff       	callq  6d5c <safe_mod_func_uint16_t_u_u>
    cdd5:	0f b7 c0             	movzwl %ax,%eax
    cdd8:	89 85 c8 e0 ff ff    	mov    %eax,-0x1f38(%rbp)
    cdde:	b8 cd fa a2 a6       	mov    $0xa6a2facd,%eax
    cde3:	09 85 c4 df ff ff    	or     %eax,-0x203c(%rbp)
    cde9:	83 bd 5c df ff ff 00 	cmpl   $0x0,-0x20a4(%rbp)
    cdf0:	75 16                	jne    ce08 <func_14+0x4ff4>
    cdf2:	83 ad cc df ff ff 01 	subl   $0x1,-0x2034(%rbp)
    cdf9:	83 bd cc df ff ff 00 	cmpl   $0x0,-0x2034(%rbp)
    ce00:	0f 89 b3 fe ff ff    	jns    ccb9 <func_14+0x4ea5>
    ce06:	eb 01                	jmp    ce09 <func_14+0x4ff5>
    ce08:	90                   	nop
    ce09:	8b 9d 00 e0 ff ff    	mov    -0x2000(%rbp),%ebx
    ce0f:	8b 85 5c df ff ff    	mov    -0x20a4(%rbp),%eax
    ce15:	44 0f bf e0          	movswl %ax,%r12d
    ce19:	48 8b 05 78 58 01 00 	mov    0x15878(%rip),%rax        # 22698 <g_622>
    ce20:	8b 00                	mov    (%rax),%eax
    ce22:	41 89 c7             	mov    %eax,%r15d
    ce25:	0f b6 05 8f 2b 01 00 	movzbl 0x12b8f(%rip),%eax        # 1f9bb <g_1320+0xb>
    ce2c:	c1 e0 02             	shl    $0x2,%eax
    ce2f:	c0 f8 06             	sar    $0x6,%al
    ce32:	66 98                	cbtw   
    ce34:	44 0f b7 e8          	movzwl %ax,%r13d
    ce38:	8b 85 5c df ff ff    	mov    -0x20a4(%rbp),%eax
    ce3e:	0f be d0             	movsbl %al,%edx
    ce41:	48 8b 85 00 e1 ff ff 	mov    -0x1f00(%rbp),%rax
    ce48:	48 8b 00             	mov    (%rax),%rax
    ce4b:	48 8b 00             	mov    (%rax),%rax
    ce4e:	8b 00                	mov    (%rax),%eax
    ce50:	89 85 58 e0 ff ff    	mov    %eax,-0x1fa8(%rbp)
    ce56:	8b 85 58 e0 ff ff    	mov    -0x1fa8(%rbp),%eax
    ce5c:	0f be c0             	movsbl %al,%eax
    ce5f:	89 d6                	mov    %edx,%esi
    ce61:	89 c7                	mov    %eax,%edi
    ce63:	e8 02 94 ff ff       	callq  626a <safe_div_func_int8_t_s_s>
    ce68:	66 98                	cbtw   
    ce6a:	0f b7 c0             	movzwl %ax,%eax
    ce6d:	44 89 ee             	mov    %r13d,%esi
    ce70:	89 c7                	mov    %eax,%edi
    ce72:	e8 c6 9e ff ff       	callq  6d3d <safe_mul_func_uint16_t_u_u>
    ce77:	66 85 c0             	test   %ax,%ax
    ce7a:	74 08                	je     ce84 <func_14+0x5070>
    ce7c:	41 be 01 00 00 00    	mov    $0x1,%r14d
    ce82:	eb 06                	jmp    ce8a <func_14+0x5076>
    ce84:	41 be 00 00 00 00    	mov    $0x0,%r14d
    ce8a:	48 8b 05 37 50 01 00 	mov    0x15037(%rip),%rax        # 21ec8 <g_289>
    ce91:	48 8b 10             	mov    (%rax),%rdx
    ce94:	48 83 ea 01          	sub    $0x1,%rdx
    ce98:	48 89 10             	mov    %rdx,(%rax)
    ce9b:	48 8b 85 70 e5 ff ff 	mov    -0x1a90(%rbp),%rax
    cea2:	48 89 05 47 53 01 00 	mov    %rax,0x15347(%rip)        # 221f0 <g_2444+0x10>
    cea9:	48 8b 05 40 53 01 00 	mov    0x15340(%rip),%rax        # 221f0 <g_2444+0x10>
    ceb0:	48 8d 15 19 51 01 00 	lea    0x15119(%rip),%rdx        # 21fd0 <g_1779>
    ceb7:	48 39 d0             	cmp    %rdx,%rax
    ceba:	0f 95 c0             	setne  %al
    cebd:	44 0f b6 e8          	movzbl %al,%r13d
    cec1:	48 8b 05 48 51 01 00 	mov    0x15148(%rip),%rax        # 22010 <g_1802>
    cec8:	48 8b 00             	mov    (%rax),%rax
    cecb:	48 c7 c6 f6 ff ff ff 	mov    $0xfffffffffffffff6,%rsi
    ced2:	48 89 c7             	mov    %rax,%rdi
    ced5:	e8 ce 99 ff ff       	callq  68a8 <safe_sub_func_int64_t_s_s>
    ceda:	49 39 c5             	cmp    %rax,%r13
    cedd:	0f 95 c0             	setne  %al
    cee0:	0f b6 c0             	movzbl %al,%eax
    cee3:	39 85 fc df ff ff    	cmp    %eax,-0x2004(%rbp)
    cee9:	0f 9d c0             	setge  %al
    ceec:	0f b6 c0             	movzbl %al,%eax
    ceef:	44 89 f6             	mov    %r14d,%esi
    cef2:	89 c7                	mov    %eax,%edi
    cef4:	e8 a8 93 ff ff       	callq  62a1 <safe_lshift_func_int8_t_s_s>
    cef9:	0f be c0             	movsbl %al,%eax
    cefc:	44 89 fe             	mov    %r15d,%esi
    ceff:	89 c7                	mov    %eax,%edi
    cf01:	e8 f7 9f ff ff       	callq  6efd <safe_mod_func_uint32_t_u_u>
    cf06:	48 8b 05 43 50 01 00 	mov    0x15043(%rip),%rax        # 21f50 <g_847>
    cf0d:	48 8b 00             	mov    (%rax),%rax
    cf10:	8b 00                	mov    (%rax),%eax
    cf12:	39 85 5c df ff ff    	cmp    %eax,-0x20a4(%rbp)
    cf18:	0f 95 c0             	setne  %al
    cf1b:	0f b6 c0             	movzbl %al,%eax
    cf1e:	8b 95 5c df ff ff    	mov    -0x20a4(%rbp),%edx
    cf24:	89 d6                	mov    %edx,%esi
    cf26:	89 c7                	mov    %eax,%edi
    cf28:	e8 c1 93 ff ff       	callq  62ee <safe_lshift_func_int8_t_s_u>
    cf2d:	84 c0                	test   %al,%al
    cf2f:	74 0c                	je     cf3d <func_14+0x5129>
    cf31:	48 8b 05 56 14 01 00 	mov    0x11456(%rip),%rax        # 1e38e <g_277+0x6e>
    cf38:	48 85 c0             	test   %rax,%rax
    cf3b:	75 09                	jne    cf46 <func_14+0x5132>
    cf3d:	83 bd 5c df ff ff 00 	cmpl   $0x0,-0x20a4(%rbp)
    cf44:	74 07                	je     cf4d <func_14+0x5139>
    cf46:	b8 01 00 00 00       	mov    $0x1,%eax
    cf4b:	eb 05                	jmp    cf52 <func_14+0x513e>
    cf4d:	b8 00 00 00 00       	mov    $0x0,%eax
    cf52:	39 85 5c df ff ff    	cmp    %eax,-0x20a4(%rbp)
    cf58:	0f 95 c0             	setne  %al
    cf5b:	0f b6 c0             	movzbl %al,%eax
    cf5e:	44 89 e6             	mov    %r12d,%esi
    cf61:	89 c7                	mov    %eax,%edi
    cf63:	e8 ae 94 ff ff       	callq  6416 <safe_mod_func_int16_t_s_s>
    cf68:	66 83 f8 01          	cmp    $0x1,%ax
    cf6c:	0f 95 c0             	setne  %al
    cf6f:	0f b6 c0             	movzbl %al,%eax
    cf72:	89 de                	mov    %ebx,%esi
    cf74:	89 c7                	mov    %eax,%edi
    cf76:	e8 55 9f ff ff       	callq  6ed0 <safe_sub_func_uint32_t_u_u>
    cf7b:	85 c0                	test   %eax,%eax
    cf7d:	0f 84 ee 02 00 00    	je     d271 <func_14+0x545d>
    cf83:	c7 85 cc e0 ff ff ff 	movl   $0xffffffff,-0x1f34(%rbp)
    cf8a:	ff ff ff 
    cf8d:	48 8d 05 34 4f 01 00 	lea    0x14f34(%rip),%rax        # 21ec8 <g_289>
    cf94:	48 89 85 50 e3 ff ff 	mov    %rax,-0x1cb0(%rbp)
    cf9b:	48 c7 05 42 14 01 00 	movq   $0x2,0x11442(%rip)        # 1e3e8 <g_703>
    cfa2:	02 00 00 00 
    cfa6:	e9 66 01 00 00       	jmpq   d111 <func_14+0x52fd>
    cfab:	c6 85 73 df ff ff 54 	movb   $0x54,-0x208d(%rbp)
    cfb2:	48 8b 05 b7 4f 01 00 	mov    0x14fb7(%rip),%rax        # 21f70 <g_984>
    cfb9:	48 8b 00             	mov    (%rax),%rax
    cfbc:	0f b6 00             	movzbl (%rax),%eax
    cfbf:	0f be d8             	movsbl %al,%ebx
    cfc2:	8b 85 48 e1 ff ff    	mov    -0x1eb8(%rbp),%eax
    cfc8:	4c 63 e0             	movslq %eax,%r12
    cfcb:	8b 85 b4 e0 ff ff    	mov    -0x1f4c(%rbp),%eax
    cfd1:	3b 85 5c df ff ff    	cmp    -0x20a4(%rbp),%eax
    cfd7:	0f 95 c0             	setne  %al
    cfda:	0f b6 d0             	movzbl %al,%edx
    cfdd:	48 8d 05 c4 56 01 00 	lea    0x156c4(%rip),%rax        # 226a8 <g_913>
    cfe4:	48 39 85 28 e3 ff ff 	cmp    %rax,-0x1cd8(%rbp)
    cfeb:	0f 95 c0             	setne  %al
    cfee:	0f b6 c0             	movzbl %al,%eax
    cff1:	48 39 c2             	cmp    %rax,%rdx
    cff4:	0f 93 c0             	setae  %al
    cff7:	44 0f b6 e8          	movzbl %al,%r13d
    cffb:	0f b6 95 73 df ff ff 	movzbl -0x208d(%rbp),%edx
    d002:	8b 8d 5c df ff ff    	mov    -0x20a4(%rbp),%ecx
    d008:	48 8b 05 f1 44 01 00 	mov    0x144f1(%rip),%rax        # 21500 <g_72>
    d00f:	0f b7 00             	movzwl (%rax),%eax
    d012:	0f b7 f0             	movzwl %ax,%esi
    d015:	83 bd 5c df ff ff 00 	cmpl   $0x0,-0x20a4(%rbp)
    d01c:	0f 94 c0             	sete   %al
    d01f:	0f b6 c0             	movzbl %al,%eax
    d022:	39 c6                	cmp    %eax,%esi
    d024:	7f 0c                	jg     d032 <func_14+0x521e>
    d026:	48 b8 3e 69 93 46 28 	movabs $0x7475a7284693693e,%rax
    d02d:	a7 75 74 
    d030:	eb 0a                	jmp    d03c <func_14+0x5228>
    d032:	48 b8 3f 69 93 46 28 	movabs $0x7475a7284693693f,%rax
    d039:	a7 75 74 
    d03c:	48 39 c8             	cmp    %rcx,%rax
    d03f:	0f 95 c0             	setne  %al
    d042:	0f b6 c0             	movzbl %al,%eax
    d045:	89 d6                	mov    %edx,%esi
    d047:	89 c7                	mov    %eax,%edi
    d049:	e8 1e 93 ff ff       	callq  636c <safe_rshift_func_int8_t_s_u>
    d04e:	48 8b 85 00 e1 ff ff 	mov    -0x1f00(%rbp),%rax
    d055:	48 8b 00             	mov    (%rax),%rax
    d058:	48 8b 00             	mov    (%rax),%rax
    d05b:	8b 00                	mov    (%rax),%eax
    d05d:	85 c0                	test   %eax,%eax
    d05f:	74 07                	je     d068 <func_14+0x5254>
    d061:	b8 01 00 00 00       	mov    $0x1,%eax
    d066:	eb 05                	jmp    d06d <func_14+0x5259>
    d068:	b8 00 00 00 00       	mov    $0x0,%eax
    d06d:	3b 85 b8 e0 ff ff    	cmp    -0x1f48(%rbp),%eax
    d073:	0f 9c c0             	setl   %al
    d076:	0f b6 c0             	movzbl %al,%eax
    d079:	41 39 c5             	cmp    %eax,%r13d
    d07c:	0f 9d c0             	setge  %al
    d07f:	0f b6 c0             	movzbl %al,%eax
    d082:	be 02 00 00 00       	mov    $0x2,%esi
    d087:	89 c7                	mov    %eax,%edi
    d089:	e8 30 9d ff ff       	callq  6dbe <safe_lshift_func_uint16_t_u_s>
    d08e:	be 00 00 00 00       	mov    $0x0,%esi
    d093:	bf 00 00 00 00       	mov    $0x0,%edi
    d098:	e8 36 93 ff ff       	callq  63d3 <safe_sub_func_int16_t_s_s>
    d09d:	98                   	cwtl   
    d09e:	0b 85 5c df ff ff    	or     -0x20a4(%rbp),%eax
    d0a4:	89 c0                	mov    %eax,%eax
    d0a6:	4c 89 e6             	mov    %r12,%rsi
    d0a9:	48 89 c7             	mov    %rax,%rdi
    d0ac:	e8 90 97 ff ff       	callq  6841 <safe_add_func_int64_t_s_s>
    d0b1:	98                   	cwtl   
    d0b2:	be 07 00 00 00       	mov    $0x7,%esi
    d0b7:	89 c7                	mov    %eax,%edi
    d0b9:	e8 23 94 ff ff       	callq  64e1 <safe_lshift_func_int16_t_s_u>
    d0be:	0f b6 c0             	movzbl %al,%eax
    d0c1:	89 de                	mov    %ebx,%esi
    d0c3:	89 c7                	mov    %eax,%edi
    d0c5:	e8 c3 9b ff ff       	callq  6c8d <safe_rshift_func_uint8_t_u_s>
    d0ca:	0f b6 c0             	movzbl %al,%eax
    d0cd:	39 85 cc e0 ff ff    	cmp    %eax,-0x1f34(%rbp)
    d0d3:	0f 95 c0             	setne  %al
    d0d6:	0f b6 c0             	movzbl %al,%eax
    d0d9:	8b 95 b8 e0 ff ff    	mov    -0x1f48(%rbp),%edx
    d0df:	89 d6                	mov    %edx,%esi
    d0e1:	89 c7                	mov    %eax,%edi
    d0e3:	e8 60 9d ff ff       	callq  6e48 <safe_rshift_func_uint16_t_u_s>
    d0e8:	0f b7 c0             	movzwl %ax,%eax
    d0eb:	89 85 98 df ff ff    	mov    %eax,-0x2068(%rbp)
    d0f1:	48 8b 05 f0 12 01 00 	mov    0x112f0(%rip),%rax        # 1e3e8 <g_703>
    d0f8:	0f b6 c0             	movzbl %al,%eax
    d0fb:	be 02 00 00 00       	mov    $0x2,%esi
    d100:	89 c7                	mov    %eax,%edi
    d102:	e8 71 9a ff ff       	callq  6b78 <safe_sub_func_uint8_t_u_u>
    d107:	0f b6 c0             	movzbl %al,%eax
    d10a:	48 89 05 d7 12 01 00 	mov    %rax,0x112d7(%rip)        # 1e3e8 <g_703>
    d111:	48 8b 05 d0 12 01 00 	mov    0x112d0(%rip),%rax        # 1e3e8 <g_703>
    d118:	48 83 f8 fc          	cmp    $0xfffffffffffffffc,%rax
    d11c:	0f 85 89 fe ff ff    	jne    cfab <func_14+0x5197>
    d122:	8b 9d 5c df ff ff    	mov    -0x20a4(%rbp),%ebx
    d128:	8b 85 cc e0 ff ff    	mov    -0x1f34(%rbp),%eax
    d12e:	44 0f bf e0          	movswl %ax,%r12d
    d132:	0f b6 05 b2 29 01 00 	movzbl 0x129b2(%rip),%eax        # 1faeb <g_1323+0xb>
    d139:	83 e0 30             	and    $0x30,%eax
    d13c:	84 c0                	test   %al,%al
    d13e:	0f 95 c0             	setne  %al
    d141:	0f b6 c0             	movzbl %al,%eax
    d144:	48 89 c6             	mov    %rax,%rsi
    d147:	48 c7 c7 ff ff ff ff 	mov    $0xffffffffffffffff,%rdi
    d14e:	e8 a4 98 ff ff       	callq  69f7 <safe_div_func_int64_t_s_s>
    d153:	8b 95 5c df ff ff    	mov    -0x20a4(%rbp),%edx
    d159:	48 39 d0             	cmp    %rdx,%rax
    d15c:	0f 95 c0             	setne  %al
    d15f:	0f b6 c0             	movzbl %al,%eax
    d162:	8b 15 bc 1e 01 00    	mov    0x11ebc(%rip),%edx        # 1f024 <g_1301+0xa4>
    d168:	c1 ea 0e             	shr    $0xe,%edx
    d16b:	89 d1                	mov    %edx,%ecx
    d16d:	0f b7 15 b4 1e 01 00 	movzwl 0x11eb4(%rip),%edx        # 1f028 <g_1301+0xa8>
    d174:	81 e2 ff 0f 00 00    	and    $0xfff,%edx
    d17a:	48 c1 e2 12          	shl    $0x12,%rdx
    d17e:	48 09 ca             	or     %rcx,%rdx
    d181:	48 c1 e2 22          	shl    $0x22,%rdx
    d185:	48 c1 fa 22          	sar    $0x22,%rdx
    d189:	39 d0                	cmp    %edx,%eax
    d18b:	0f 9d c0             	setge  %al
    d18e:	0f b6 c0             	movzbl %al,%eax
    d191:	44 89 e6             	mov    %r12d,%esi
    d194:	89 c7                	mov    %eax,%edi
    d196:	e8 5a 92 ff ff       	callq  63f5 <safe_mul_func_int16_t_s_s>
    d19b:	98                   	cwtl   
    d19c:	89 c6                	mov    %eax,%esi
    d19e:	bf 00 00 00 00       	mov    $0x0,%edi
    d1a3:	e8 7d 9d ff ff       	callq  6f25 <safe_div_func_uint32_t_u_u>
    d1a8:	83 bd 5c df ff ff 00 	cmpl   $0x0,-0x20a4(%rbp)
    d1af:	74 07                	je     d1b8 <func_14+0x53a4>
    d1b1:	83 bd 5c df ff ff 00 	cmpl   $0x0,-0x20a4(%rbp)
    d1b8:	89 de                	mov    %ebx,%esi
    d1ba:	bf 00 00 00 00       	mov    $0x0,%edi
    d1bf:	e8 66 93 ff ff       	callq  652a <safe_rshift_func_int16_t_s_s>
    d1c4:	48 0f bf c0          	movswq %ax,%rax
    d1c8:	25 13 60 00 00       	and    $0x6013,%eax
    d1cd:	48 89 c1             	mov    %rax,%rcx
    d1d0:	48 8b 85 f0 e0 ff ff 	mov    -0x1f10(%rbp),%rax
    d1d7:	0f b7 10             	movzwl (%rax),%edx
    d1da:	48 8b 85 f0 e0 ff ff 	mov    -0x1f10(%rbp),%rax
    d1e1:	31 ca                	xor    %ecx,%edx
    d1e3:	66 89 10             	mov    %dx,(%rax)
    d1e6:	0f b7 00             	movzwl (%rax),%eax
    d1e9:	8b 95 48 e1 ff ff    	mov    -0x1eb8(%rbp),%edx
    d1ef:	31 d0                	xor    %edx,%eax
    d1f1:	98                   	cwtl   
    d1f2:	be f9 ff ff ff       	mov    $0xfffffff9,%esi
    d1f7:	89 c7                	mov    %eax,%edi
    d1f9:	e8 d5 91 ff ff       	callq  63d3 <safe_sub_func_int16_t_s_s>
    d1fe:	0f be d0             	movsbl %al,%edx
    d201:	48 83 bd 50 e3 ff ff 	cmpq   $0x0,-0x1cb0(%rbp)
    d208:	00 
    d209:	0f 95 c0             	setne  %al
    d20c:	89 c1                	mov    %eax,%ecx
    d20e:	48 8b 05 ab 4f 01 00 	mov    0x14fab(%rip),%rax        # 221c0 <g_2182>
    d215:	8b 00                	mov    (%rax),%eax
    d217:	31 c8                	xor    %ecx,%eax
    d219:	0f be c0             	movsbl %al,%eax
    d21c:	89 d6                	mov    %edx,%esi
    d21e:	89 c7                	mov    %eax,%edi
    d220:	e8 ed 8f ff ff       	callq  6212 <safe_mul_func_int8_t_s_s>
    d225:	0f b6 d0             	movzbl %al,%edx
    d228:	8b 85 48 e1 ff ff    	mov    -0x1eb8(%rbp),%eax
    d22e:	0f b6 c0             	movzbl %al,%eax
    d231:	89 d6                	mov    %edx,%esi
    d233:	89 c7                	mov    %eax,%edi
    d235:	e8 a1 99 ff ff       	callq  6bdb <safe_div_func_uint8_t_u_u>
    d23a:	84 c0                	test   %al,%al
    d23c:	74 11                	je     d24f <func_14+0x543b>
    d23e:	48 8b 85 00 e1 ff ff 	mov    -0x1f00(%rbp),%rax
    d245:	48 8b 00             	mov    (%rax),%rax
    d248:	48 8b 00             	mov    (%rax),%rax
    d24b:	8b 00                	mov    (%rax),%eax
    d24d:	85 c0                	test   %eax,%eax
    d24f:	48 8b 85 10 e2 ff ff 	mov    -0x1df0(%rbp),%rax
    d256:	48 8b 00             	mov    (%rax),%rax
    d259:	48 8b 00             	mov    (%rax),%rax
    d25c:	48 8b 10             	mov    (%rax),%rdx
    d25f:	48 8b 85 f8 e0 ff ff 	mov    -0x1f08(%rbp),%rax
    d266:	48 8b 12             	mov    (%rdx),%rdx
    d269:	48 89 10             	mov    %rdx,(%rax)
    d26c:	e9 78 01 00 00       	jmpq   d3e9 <func_14+0x55d5>
    d271:	48 c7 85 40 e3 ff ff 	movq   $0xfffffffffffffff9,-0x1cc0(%rbp)
    d278:	f9 ff ff ff 
    d27c:	48 8d 05 89 19 01 00 	lea    0x11989(%rip),%rax        # 1ec0c <g_1267>
    d283:	48 89 85 48 e3 ff ff 	mov    %rax,-0x1cb8(%rbp)
    d28a:	81 b5 c4 df ff ff 96 	xorl   $0x866c0296,-0x203c(%rbp)
    d291:	02 6c 86 
    d294:	c7 85 ac df ff ff 1b 	movl   $0x1b,-0x2054(%rbp)
    d29b:	00 00 00 
    d29e:	eb 27                	jmp    d2c7 <func_14+0x54b3>
    d2a0:	83 bd 5c df ff ff 00 	cmpl   $0x0,-0x20a4(%rbp)
    d2a7:	75 29                	jne    d2d2 <func_14+0x54be>
    d2a9:	8b 85 ac df ff ff    	mov    -0x2054(%rbp),%eax
    d2af:	0f b7 c0             	movzwl %ax,%eax
    d2b2:	be 05 00 00 00       	mov    $0x5,%esi
    d2b7:	89 c7                	mov    %eax,%edi
    d2b9:	e8 61 9a ff ff       	callq  6d1f <safe_sub_func_uint16_t_u_u>
    d2be:	0f b7 c0             	movzwl %ax,%eax
    d2c1:	89 85 ac df ff ff    	mov    %eax,-0x2054(%rbp)
    d2c7:	83 bd ac df ff ff 0e 	cmpl   $0xe,-0x2054(%rbp)
    d2ce:	7e d0                	jle    d2a0 <func_14+0x548c>
    d2d0:	eb 01                	jmp    d2d3 <func_14+0x54bf>
    d2d2:	90                   	nop
    d2d3:	c7 85 00 e0 ff ff 00 	movl   $0x0,-0x2000(%rbp)
    d2da:	00 00 00 
    d2dd:	48 8b 85 40 e3 ff ff 	mov    -0x1cc0(%rbp),%rax
    d2e4:	0f b7 d8             	movzwl %ax,%ebx
    d2e7:	8b 85 5c df ff ff    	mov    -0x20a4(%rbp),%eax
    d2ed:	89 c7                	mov    %eax,%edi
    d2ef:	e8 a2 92 ff ff       	callq  6596 <safe_unary_minus_func_int32_t_s>
    d2f4:	8b 85 5c df ff ff    	mov    -0x20a4(%rbp),%eax
    d2fa:	98                   	cwtl   
    d2fb:	8b 95 5c df ff ff    	mov    -0x20a4(%rbp),%edx
    d301:	89 d6                	mov    %edx,%esi
    d303:	89 c7                	mov    %eax,%edi
    d305:	e8 59 92 ff ff       	callq  6563 <safe_rshift_func_int16_t_s_u>
    d30a:	48 8b 05 ef 41 01 00 	mov    0x141ef(%rip),%rax        # 21500 <g_72>
    d311:	0f b7 00             	movzwl (%rax),%eax
    d314:	83 bd b4 e0 ff ff 07 	cmpl   $0x7,-0x1f4c(%rbp)
    d31b:	0f 95 c2             	setne  %dl
    d31e:	48 8b 05 a3 4b 01 00 	mov    0x14ba3(%rip),%rax        # 21ec8 <g_289>
    d325:	0f b6 d2             	movzbl %dl,%edx
    d328:	48 89 10             	mov    %rdx,(%rax)
    d32b:	48 8b 10             	mov    (%rax),%rdx
    d32e:	8b 85 5c df ff ff    	mov    -0x20a4(%rbp),%eax
    d334:	48 39 c2             	cmp    %rax,%rdx
    d337:	0f 95 c0             	setne  %al
    d33a:	0f b6 c0             	movzbl %al,%eax
    d33d:	48 0b 85 40 e3 ff ff 	or     -0x1cc0(%rbp),%rax
    d344:	48 89 c2             	mov    %rax,%rdx
    d347:	8b 85 5c df ff ff    	mov    -0x20a4(%rbp),%eax
    d34d:	48 39 c2             	cmp    %rax,%rdx
    d350:	0f 95 c0             	setne  %al
    d353:	0f b6 d0             	movzbl %al,%edx
    d356:	48 8b 85 48 e3 ff ff 	mov    -0x1cb8(%rbp),%rax
    d35d:	66 89 10             	mov    %dx,(%rax)
    d360:	48 8b 85 48 e3 ff ff 	mov    -0x1cb8(%rbp),%rax
    d367:	0f b7 00             	movzwl (%rax),%eax
    d36a:	0f b7 c0             	movzwl %ax,%eax
    d36d:	89 de                	mov    %ebx,%esi
    d36f:	89 c7                	mov    %eax,%edi
    d371:	e8 e6 99 ff ff       	callq  6d5c <safe_mod_func_uint16_t_u_u>
    d376:	0f b7 d8             	movzwl %ax,%ebx
    d379:	48 8b 85 c0 e4 ff ff 	mov    -0x1b40(%rbp),%rax
    d380:	48 89 85 b8 e4 ff ff 	mov    %rax,-0x1b48(%rbp)
    d387:	48 8b 85 b8 e4 ff ff 	mov    -0x1b48(%rbp),%rax
    d38e:	48 39 85 18 e2 ff ff 	cmp    %rax,-0x1de8(%rbp)
    d395:	0f 94 c0             	sete   %al
    d398:	0f b6 c0             	movzbl %al,%eax
    d39b:	be 04 00 00 00       	mov    $0x4,%esi
    d3a0:	89 c7                	mov    %eax,%edi
    d3a2:	e8 47 8f ff ff       	callq  62ee <safe_lshift_func_int8_t_s_u>
    d3a7:	66 98                	cbtw   
    d3a9:	0f b7 c0             	movzwl %ax,%eax
    d3ac:	89 de                	mov    %ebx,%esi
    d3ae:	89 c7                	mov    %eax,%edi
    d3b0:	e8 88 99 ff ff       	callq  6d3d <safe_mul_func_uint16_t_u_u>
    d3b5:	48 8b 85 40 e3 ff ff 	mov    -0x1cc0(%rbp),%rax
    d3bc:	89 c2                	mov    %eax,%edx
    d3be:	8b 85 5c df ff ff    	mov    -0x20a4(%rbp),%eax
    d3c4:	89 d6                	mov    %edx,%esi
    d3c6:	89 c7                	mov    %eax,%edi
    d3c8:	e8 38 92 ff ff       	callq  6605 <safe_sub_func_int32_t_s_s>
    d3cd:	48 8b 15 94 4b 01 00 	mov    0x14b94(%rip),%rdx        # 21f68 <g_985>
    d3d4:	0f b6 12             	movzbl (%rdx),%edx
    d3d7:	0f be d2             	movsbl %dl,%edx
    d3da:	09 d0                	or     %edx,%eax
    d3dc:	89 85 94 df ff ff    	mov    %eax,-0x206c(%rbp)
    d3e2:	eb 05                	jmp    d3e9 <func_14+0x55d5>
    d3e4:	e9 c4 05 00 00       	jmpq   d9ad <func_14+0x5b99>
    d3e9:	8b 85 c8 df ff ff    	mov    -0x2038(%rbp),%eax
    d3ef:	0f be c0             	movsbl %al,%eax
    d3f2:	be 05 00 00 00       	mov    $0x5,%esi
    d3f7:	89 c7                	mov    %eax,%edi
    d3f9:	e8 d6 8d ff ff       	callq  61d4 <safe_add_func_int8_t_s_s>
    d3fe:	0f be c0             	movsbl %al,%eax
    d401:	89 85 c8 df ff ff    	mov    %eax,-0x2038(%rbp)
    d407:	83 bd c8 df ff ff 07 	cmpl   $0x7,-0x2038(%rbp)
    d40e:	0f 8f 2b f1 ff ff    	jg     c53f <func_14+0x472b>
    d414:	eb 04                	jmp    d41a <func_14+0x5606>
    d416:	90                   	nop
    d417:	eb 01                	jmp    d41a <func_14+0x5606>
    d419:	90                   	nop
    d41a:	8b 9d c0 e3 ff ff    	mov    -0x1c40(%rbp),%ebx
    d420:	8b 85 5c df ff ff    	mov    -0x20a4(%rbp),%eax
    d426:	44 0f be e0          	movsbl %al,%r12d
    d42a:	83 bd 5c df ff ff 00 	cmpl   $0x0,-0x20a4(%rbp)
    d431:	74 10                	je     d443 <func_14+0x562f>
    d433:	83 bd 5c df ff ff 00 	cmpl   $0x0,-0x20a4(%rbp)
    d43a:	74 07                	je     d443 <func_14+0x562f>
    d43c:	b8 01 00 00 00       	mov    $0x1,%eax
    d441:	eb 05                	jmp    d448 <func_14+0x5634>
    d443:	b8 00 00 00 00       	mov    $0x0,%eax
    d448:	0f b7 c0             	movzwl %ax,%eax
    d44b:	89 c6                	mov    %eax,%esi
    d44d:	bf 00 00 00 00       	mov    $0x0,%edi
    d452:	e8 e6 98 ff ff       	callq  6d3d <safe_mul_func_uint16_t_u_u>
    d457:	0f be c0             	movsbl %al,%eax
    d45a:	44 89 e6             	mov    %r12d,%esi
    d45d:	89 c7                	mov    %eax,%edi
    d45f:	e8 06 8e ff ff       	callq  626a <safe_div_func_int8_t_s_s>
    d464:	0f be c0             	movsbl %al,%eax
    d467:	89 de                	mov    %ebx,%esi
    d469:	89 c7                	mov    %eax,%edi
    d46b:	e8 5c 92 ff ff       	callq  66cc <safe_mod_func_int32_t_s_s>
    d470:	be 07 00 00 00       	mov    $0x7,%esi
    d475:	bf b9 00 00 00       	mov    $0xb9,%edi
    d47a:	e8 cd 97 ff ff       	callq  6c4c <safe_lshift_func_uint8_t_u_u>
    d47f:	0f b6 c0             	movzbl %al,%eax
    d482:	89 c6                	mov    %eax,%esi
    d484:	bf 08 00 00 00       	mov    $0x8,%edi
    d489:	e8 77 97 ff ff       	callq  6c05 <safe_lshift_func_uint8_t_u_s>
    d48e:	be 06 00 00 00       	mov    $0x6,%esi
    d493:	bf 01 00 00 00       	mov    $0x1,%edi
    d498:	e8 21 98 ff ff       	callq  6cbe <safe_rshift_func_uint8_t_u_u>
    d49d:	0f b6 c0             	movzbl %al,%eax
    d4a0:	89 85 f4 f7 ff ff    	mov    %eax,-0x80c(%rbp)
    d4a6:	8b 05 10 0e 01 00    	mov    0x10e10(%rip),%eax        # 1e2bc <g_122>
    d4ac:	83 c0 01             	add    $0x1,%eax
    d4af:	89 05 07 0e 01 00    	mov    %eax,0x10e07(%rip)        # 1e2bc <g_122>
    d4b5:	8b 05 01 0e 01 00    	mov    0x10e01(%rip),%eax        # 1e2bc <g_122>
    d4bb:	83 f8 1a             	cmp    $0x1a,%eax
    d4be:	0f 8f 2f e8 ff ff    	jg     bcf3 <func_14+0x3edf>
    d4c4:	e9 da 02 00 00       	jmpq   d7a3 <func_14+0x598f>
    d4c9:	48 8d 05 80 27 01 00 	lea    0x12780(%rip),%rax        # 1fc50 <g_2533>
    d4d0:	48 89 85 b0 e1 ff ff 	mov    %rax,-0x1e50(%rbp)
    d4d7:	c7 85 3c e0 ff ff d3 	movl   $0xbfeeb3d3,-0x1fc4(%rbp)
    d4de:	b3 ee bf 
    d4e1:	48 b8 56 6b 87 3e 63 	movabs $0x993f85633e876b56,%rax
    d4e8:	85 3f 99 
    d4eb:	48 89 85 b8 e1 ff ff 	mov    %rax,-0x1e48(%rbp)
    d4f2:	48 8d 05 6f 27 01 00 	lea    0x1276f(%rip),%rax        # 1fc68 <g_2559>
    d4f9:	48 89 85 50 e1 ff ff 	mov    %rax,-0x1eb0(%rbp)
    d500:	48 8d 85 50 e1 ff ff 	lea    -0x1eb0(%rbp),%rax
    d507:	48 89 85 70 eb ff ff 	mov    %rax,-0x1490(%rbp)
    d50e:	48 8d 85 50 e1 ff ff 	lea    -0x1eb0(%rbp),%rax
    d515:	48 89 85 78 eb ff ff 	mov    %rax,-0x1488(%rbp)
    d51c:	48 8d 85 50 e1 ff ff 	lea    -0x1eb0(%rbp),%rax
    d523:	48 89 85 80 eb ff ff 	mov    %rax,-0x1480(%rbp)
    d52a:	48 8d 85 50 e1 ff ff 	lea    -0x1eb0(%rbp),%rax
    d531:	48 89 85 88 eb ff ff 	mov    %rax,-0x1478(%rbp)
    d538:	48 8d 85 50 e1 ff ff 	lea    -0x1eb0(%rbp),%rax
    d53f:	48 89 85 90 eb ff ff 	mov    %rax,-0x1470(%rbp)
    d546:	48 8d 85 50 e1 ff ff 	lea    -0x1eb0(%rbp),%rax
    d54d:	48 89 85 98 eb ff ff 	mov    %rax,-0x1468(%rbp)
    d554:	48 8d 85 50 e1 ff ff 	lea    -0x1eb0(%rbp),%rax
    d55b:	48 89 85 a0 eb ff ff 	mov    %rax,-0x1460(%rbp)
    d562:	48 8d 85 50 e1 ff ff 	lea    -0x1eb0(%rbp),%rax
    d569:	48 89 85 a8 eb ff ff 	mov    %rax,-0x1458(%rbp)
    d570:	48 8d 85 50 e1 ff ff 	lea    -0x1eb0(%rbp),%rax
    d577:	48 89 85 b0 eb ff ff 	mov    %rax,-0x1450(%rbp)
    d57e:	48 c7 85 c0 e1 ff ff 	movq   $0xffffffffffffffff,-0x1e40(%rbp)
    d585:	ff ff ff ff 
    d589:	48 c7 85 c8 e1 ff ff 	movq   $0x6,-0x1e38(%rbp)
    d590:	06 00 00 00 
    d594:	c7 85 40 e0 ff ff 05 	movl   $0x5,-0x1fc0(%rbp)
    d59b:	00 00 00 
    d59e:	48 8d 05 0b 4a 01 00 	lea    0x14a0b(%rip),%rax        # 21fb0 <g_1555>
    d5a5:	48 89 85 d0 e1 ff ff 	mov    %rax,-0x1e30(%rbp)
    d5ac:	c7 85 44 e0 ff ff 7b 	movl   $0xcad25c7b,-0x1fbc(%rbp)
    d5b3:	5c d2 ca 
    d5b6:	48 8d 05 ad 50 01 00 	lea    0x150ad(%rip),%rax        # 2266a <g_146>
    d5bd:	48 89 85 d8 e1 ff ff 	mov    %rax,-0x1e28(%rbp)
    d5c4:	48 8d 05 1f 0d 01 00 	lea    0x10d1f(%rip),%rax        # 1e2ea <g_176+0xa>
    d5cb:	48 89 85 d0 f7 ff ff 	mov    %rax,-0x830(%rbp)
    d5d2:	48 8d 05 11 0d 01 00 	lea    0x10d11(%rip),%rax        # 1e2ea <g_176+0xa>
    d5d9:	48 89 85 d8 f7 ff ff 	mov    %rax,-0x828(%rbp)
    d5e0:	48 8d 05 03 0d 01 00 	lea    0x10d03(%rip),%rax        # 1e2ea <g_176+0xa>
    d5e7:	48 89 85 e0 f7 ff ff 	mov    %rax,-0x820(%rbp)
    d5ee:	48 8d 05 f5 0c 01 00 	lea    0x10cf5(%rip),%rax        # 1e2ea <g_176+0xa>
    d5f5:	48 89 85 e8 f7 ff ff 	mov    %rax,-0x818(%rbp)
    d5fc:	48 8d 05 e7 0c 01 00 	lea    0x10ce7(%rip),%rax        # 1e2ea <g_176+0xa>
    d603:	48 89 85 f0 f7 ff ff 	mov    %rax,-0x810(%rbp)
    d60a:	48 8d 05 d9 0c 01 00 	lea    0x10cd9(%rip),%rax        # 1e2ea <g_176+0xa>
    d611:	48 89 85 f8 f7 ff ff 	mov    %rax,-0x808(%rbp)
    d618:	48 8d 05 cb 0c 01 00 	lea    0x10ccb(%rip),%rax        # 1e2ea <g_176+0xa>
    d61f:	48 89 85 00 f8 ff ff 	mov    %rax,-0x800(%rbp)
    d626:	48 8d 05 bd 0c 01 00 	lea    0x10cbd(%rip),%rax        # 1e2ea <g_176+0xa>
    d62d:	48 89 85 08 f8 ff ff 	mov    %rax,-0x7f8(%rbp)
    d634:	48 8d 05 af 0c 01 00 	lea    0x10caf(%rip),%rax        # 1e2ea <g_176+0xa>
    d63b:	48 89 85 10 f8 ff ff 	mov    %rax,-0x7f0(%rbp)
    d642:	c6 85 6d df ff ff fd 	movb   $0xfd,-0x2093(%rbp)
    d649:	c7 85 48 e0 ff ff 00 	movl   $0x0,-0x1fb8(%rbp)
    d650:	00 00 00 
    d653:	c7 85 4c e0 ff ff 27 	movl   $0xdc67eb27,-0x1fb4(%rbp)
    d65a:	eb 67 dc 
    d65d:	48 8d 85 8c df ff ff 	lea    -0x2074(%rbp),%rax
    d664:	48 89 85 e0 e1 ff ff 	mov    %rax,-0x1e20(%rbp)
    d66b:	c7 85 e0 e8 ff ff 01 	movl   $0x1,-0x1720(%rbp)
    d672:	00 00 00 
    d675:	c7 85 e4 e8 ff ff cc 	movl   $0x576285cc,-0x171c(%rbp)
    d67c:	85 62 57 
    d67f:	c7 85 e8 e8 ff ff 01 	movl   $0x1,-0x1718(%rbp)
    d686:	00 00 00 
    d689:	c7 85 ec e8 ff ff 01 	movl   $0x1,-0x1714(%rbp)
    d690:	00 00 00 
    d693:	c7 85 f0 e8 ff ff cc 	movl   $0x576285cc,-0x1710(%rbp)
    d69a:	85 62 57 
    d69d:	c7 85 f4 e8 ff ff 01 	movl   $0x1,-0x170c(%rbp)
    d6a4:	00 00 00 
    d6a7:	c7 85 f8 e8 ff ff ff 	movl   $0xffffffff,-0x1708(%rbp)
    d6ae:	ff ff ff 
    d6b1:	c7 85 fc e8 ff ff 01 	movl   $0x1,-0x1704(%rbp)
    d6b8:	00 00 00 
    d6bb:	c7 85 00 e9 ff ff ff 	movl   $0xffffffff,-0x1700(%rbp)
    d6c2:	ff ff ff 
    d6c5:	c6 85 6e df ff ff 03 	movb   $0x3,-0x2092(%rbp)
    d6cc:	48 8d 05 f5 48 01 00 	lea    0x148f5(%rip),%rax        # 21fc8 <g_1780>
    d6d3:	48 89 85 e8 e1 ff ff 	mov    %rax,-0x1e18(%rbp)
    d6da:	66 c7 85 e0 e6 ff ff 	movw   $0x6505,-0x1920(%rbp)
    d6e1:	05 65 
    d6e3:	66 c7 85 e2 e6 ff ff 	movw   $0x6505,-0x191e(%rbp)
    d6ea:	05 65 
    d6ec:	66 c7 85 e4 e6 ff ff 	movw   $0x6505,-0x191c(%rbp)
    d6f3:	05 65 
    d6f5:	66 c7 85 e6 e6 ff ff 	movw   $0x6505,-0x191a(%rbp)
    d6fc:	05 65 
    d6fe:	66 c7 85 e8 e6 ff ff 	movw   $0x6505,-0x1918(%rbp)
    d705:	05 65 
    d707:	66 c7 85 ea e6 ff ff 	movw   $0x6505,-0x1916(%rbp)
    d70e:	05 65 
    d710:	66 c7 85 ec e6 ff ff 	movw   $0x6505,-0x1914(%rbp)
    d717:	05 65 
    d719:	c7 85 14 e0 ff ff 00 	movl   $0x0,-0x1fec(%rbp)
    d720:	00 00 00 
    d723:	eb 42                	jmp    d767 <func_14+0x5953>
    d725:	c7 85 18 e0 ff ff 00 	movl   $0x0,-0x1fe8(%rbp)
    d72c:	00 00 00 
    d72f:	eb 26                	jmp    d757 <func_14+0x5943>
    d731:	8b 85 18 e0 ff ff    	mov    -0x1fe8(%rbp),%eax
    d737:	48 63 d0             	movslq %eax,%rdx
    d73a:	8b 85 14 e0 ff ff    	mov    -0x1fec(%rbp),%eax
    d740:	48 98                	cltq   
    d742:	48 01 d0             	add    %rdx,%rax
    d745:	c7 84 85 40 e6 ff ff 	movl   $0x9,-0x19c0(%rbp,%rax,4)
    d74c:	09 00 00 00 
    d750:	83 85 18 e0 ff ff 01 	addl   $0x1,-0x1fe8(%rbp)
    d757:	83 bd 18 e0 ff ff 00 	cmpl   $0x0,-0x1fe8(%rbp)
    d75e:	7e d1                	jle    d731 <func_14+0x591d>
    d760:	83 85 14 e0 ff ff 01 	addl   $0x1,-0x1fec(%rbp)
    d767:	83 bd 14 e0 ff ff 00 	cmpl   $0x0,-0x1fec(%rbp)
    d76e:	7e b5                	jle    d725 <func_14+0x5911>
    d770:	c7 85 14 e0 ff ff 00 	movl   $0x0,-0x1fec(%rbp)
    d777:	00 00 00 
    d77a:	eb 1e                	jmp    d79a <func_14+0x5986>
    d77c:	8b 85 14 e0 ff ff    	mov    -0x1fec(%rbp),%eax
    d782:	48 98                	cltq   
    d784:	48 8d 15 25 48 01 00 	lea    0x14825(%rip),%rdx        # 21fb0 <g_1555>
    d78b:	48 89 94 c5 e0 e7 ff 	mov    %rdx,-0x1820(%rbp,%rax,8)
    d792:	ff 
    d793:	83 85 14 e0 ff ff 01 	addl   $0x1,-0x1fec(%rbp)
    d79a:	83 bd 14 e0 ff ff 03 	cmpl   $0x3,-0x1fec(%rbp)
    d7a1:	7e d9                	jle    d77c <func_14+0x5968>
    d7a3:	c7 85 a8 df ff ff 12 	movl   $0x12,-0x2058(%rbp)
    d7aa:	00 00 00 
    d7ad:	e9 e4 01 00 00       	jmpq   d996 <func_14+0x5b82>
    d7b2:	66 c7 85 82 df ff ff 	movw   $0xfff9,-0x207e(%rbp)
    d7b9:	f9 ff 
    d7bb:	48 8d 05 f6 47 01 00 	lea    0x147f6(%rip),%rax        # 21fb8 <g_1554>
    d7c2:	48 89 85 48 e1 ff ff 	mov    %rax,-0x1eb8(%rbp)
    d7c9:	48 8d 85 48 e1 ff ff 	lea    -0x1eb8(%rbp),%rax
    d7d0:	48 89 85 50 e1 ff ff 	mov    %rax,-0x1eb0(%rbp)
    d7d7:	48 8d 05 fa 49 01 00 	lea    0x149fa(%rip),%rax        # 221d8 <g_2279>
    d7de:	48 89 85 58 e3 ff ff 	mov    %rax,-0x1ca8(%rbp)
    d7e5:	48 8d 85 60 e4 ff ff 	lea    -0x1ba0(%rbp),%rax
    d7ec:	48 83 c0 10          	add    $0x10,%rax
    d7f0:	48 89 85 60 e3 ff ff 	mov    %rax,-0x1ca0(%rbp)
    d7f7:	c7 85 d8 e0 ff ff 9f 	movl   $0x1200939f,-0x1f28(%rbp)
    d7fe:	93 00 12 
    d801:	c7 85 1c e0 ff ff 00 	movl   $0x0,-0x1fe4(%rbp)
    d808:	00 00 00 
    d80b:	eb 1e                	jmp    d82b <func_14+0x5a17>
    d80d:	8b 85 1c e0 ff ff    	mov    -0x1fe4(%rbp),%eax
    d813:	48 98                	cltq   
    d815:	48 8d 95 50 e1 ff ff 	lea    -0x1eb0(%rbp),%rdx
    d81c:	48 89 94 c5 70 eb ff 	mov    %rdx,-0x1490(%rbp,%rax,8)
    d823:	ff 
    d824:	83 85 1c e0 ff ff 01 	addl   $0x1,-0x1fe4(%rbp)
    d82b:	83 bd 1c e0 ff ff 02 	cmpl   $0x2,-0x1fe4(%rbp)
    d832:	7e d9                	jle    d80d <func_14+0x59f9>
    d834:	c7 85 1c e0 ff ff 00 	movl   $0x0,-0x1fe4(%rbp)
    d83b:	00 00 00 
    d83e:	eb 1e                	jmp    d85e <func_14+0x5a4a>
    d840:	8b 85 1c e0 ff ff    	mov    -0x1fe4(%rbp),%eax
    d846:	48 98                	cltq   
    d848:	48 8d 15 5d 08 01 00 	lea    0x1085d(%rip),%rdx        # 1e0ac <g_28>
    d84f:	48 89 94 c5 d0 f7 ff 	mov    %rdx,-0x830(%rbp,%rax,8)
    d856:	ff 
    d857:	83 85 1c e0 ff ff 01 	addl   $0x1,-0x1fe4(%rbp)
    d85e:	83 bd 1c e0 ff ff 04 	cmpl   $0x4,-0x1fe4(%rbp)
    d865:	7e d9                	jle    d840 <func_14+0x5a2c>
    d867:	48 8b 05 92 3c 01 00 	mov    0x13c92(%rip),%rax        # 21500 <g_72>
    d86e:	0f b7 00             	movzwl (%rax),%eax
    d871:	0f bf 95 82 df ff ff 	movswl -0x207e(%rbp),%edx
    d878:	48 8b 85 50 e1 ff ff 	mov    -0x1eb0(%rbp),%rax
    d87f:	48 89 05 6a 4e 01 00 	mov    %rax,0x14e6a(%rip)        # 226f0 <g_2993>
    d886:	48 8b 05 63 4e 01 00 	mov    0x14e63(%rip),%rax        # 226f0 <g_2993>
    d88d:	48 85 c0             	test   %rax,%rax
    d890:	0f 95 c0             	setne  %al
    d893:	0f b6 c0             	movzbl %al,%eax
    d896:	39 c2                	cmp    %eax,%edx
    d898:	0f 9f c0             	setg   %al
    d89b:	0f b6 c0             	movzbl %al,%eax
    d89e:	39 85 5c df ff ff    	cmp    %eax,-0x20a4(%rbp)
    d8a4:	0f 95 c0             	setne  %al
    d8a7:	88 05 42 0a 01 00    	mov    %al,0x10a42(%rip)        # 1e2ef <g_176+0xf>
    d8ad:	66 83 bd 82 df ff ff 	cmpw   $0x0,-0x207e(%rbp)
    d8b4:	00 
    d8b5:	0f 85 8c 00 00 00    	jne    d947 <func_14+0x5b33>
    d8bb:	48 8b 05 06 46 01 00 	mov    0x14606(%rip),%rax        # 21ec8 <g_289>
    d8c2:	48 8b 00             	mov    (%rax),%rax
    d8c5:	48 be c0 da 96 23 ff 	movabs $0x1d4d8bff2396dac0,%rsi
    d8cc:	8b 4d 1d 
    d8cf:	48 89 c7             	mov    %rax,%rdi
    d8d2:	e8 57 97 ff ff       	callq  702e <safe_add_func_uint64_t_u_u>
    d8d7:	48 89 c2             	mov    %rax,%rdx
    d8da:	8b 05 78 23 01 00    	mov    0x12378(%rip),%eax        # 1fc58 <g_2533+0x8>
    d8e0:	c1 e0 04             	shl    $0x4,%eax
    d8e3:	c1 f8 04             	sar    $0x4,%eax
    d8e6:	48 98                	cltq   
    d8e8:	48 39 c2             	cmp    %rax,%rdx
    d8eb:	0f 93 c0             	setae  %al
    d8ee:	0f b6 c0             	movzbl %al,%eax
    d8f1:	89 c6                	mov    %eax,%esi
    d8f3:	bf 3d 00 00 00       	mov    $0x3d,%edi
    d8f8:	e8 15 89 ff ff       	callq  6212 <safe_mul_func_int8_t_s_s>
    d8fd:	0f be d0             	movsbl %al,%edx
    d900:	48 8b 05 41 46 01 00 	mov    0x14641(%rip),%rax        # 21f48 <g_848>
    d907:	8b 00                	mov    (%rax),%eax
    d909:	39 c2                	cmp    %eax,%edx
    d90b:	0f 96 c0             	setbe  %al
    d90e:	0f b6 c0             	movzbl %al,%eax
    d911:	be ff ff ff ff       	mov    $0xffffffff,%esi
    d916:	89 c7                	mov    %eax,%edi
    d918:	e8 9b 95 ff ff       	callq  6eb8 <safe_add_func_uint32_t_u_u>
    d91d:	39 85 5c df ff ff    	cmp    %eax,-0x20a4(%rbp)
    d923:	0f 95 c0             	setne  %al
    d926:	0f b6 c0             	movzbl %al,%eax
    d929:	48 89 c7             	mov    %rax,%rdi
    d92c:	e8 e5 8e ff ff       	callq  6816 <safe_unary_minus_func_int64_t_s>
    d931:	48 89 c2             	mov    %rax,%rdx
    d934:	8b 05 be 1c 01 00    	mov    0x11cbe(%rip),%eax        # 1f5f8 <g_1317+0x8>
    d93a:	c1 e0 04             	shl    $0x4,%eax
    d93d:	c1 f8 04             	sar    $0x4,%eax
    d940:	48 98                	cltq   
    d942:	48 39 c2             	cmp    %rax,%rdx
    d945:	7f 08                	jg     d94f <func_14+0x5b3b>
    d947:	66 83 bd 82 df ff ff 	cmpw   $0x0,-0x207e(%rbp)
    d94e:	00 
    d94f:	48 c7 85 58 e3 ff ff 	movq   $0x0,-0x1ca8(%rbp)
    d956:	00 00 00 00 
    d95a:	48 8b 85 58 e3 ff ff 	mov    -0x1ca8(%rbp),%rax
    d961:	48 3b 85 60 e3 ff ff 	cmp    -0x1ca0(%rbp),%rax
    d968:	75 07                	jne    d971 <func_14+0x5b5d>
    d96a:	83 bd 5c df ff ff 00 	cmpl   $0x0,-0x20a4(%rbp)
    d971:	48 8b 85 68 e1 ff ff 	mov    -0x1e98(%rbp),%rax
    d978:	c7 00 01 00 00 00    	movl   $0x1,(%rax)
    d97e:	48 8d 05 e9 22 01 00 	lea    0x122e9(%rip),%rax        # 1fc6e <g_2686>
    d985:	0f b7 00             	movzwl (%rax),%eax
    d988:	98                   	cwtl   
    d989:	89 85 d8 e0 ff ff    	mov    %eax,-0x1f28(%rbp)
    d98f:	83 ad a8 df ff ff 01 	subl   $0x1,-0x2058(%rbp)
    d996:	83 bd a8 df ff ff f4 	cmpl   $0xfffffff4,-0x2058(%rbp)
    d99d:	0f 85 0f fe ff ff    	jne    d7b2 <func_14+0x599e>
    d9a3:	0f b6 05 02 07 01 00 	movzbl 0x10702(%rip),%eax        # 1e0ac <g_28>
    d9aa:	0f b6 c0             	movzbl %al,%eax
    d9ad:	48 8b 5d c8          	mov    -0x38(%rbp),%rbx
    d9b1:	64 48 33 1c 25 28 00 	xor    %fs:0x28,%rbx
    d9b8:	00 00 
    d9ba:	74 05                	je     d9c1 <func_14+0x5bad>
    d9bc:	e8 af 86 ff ff       	callq  6070 <__stack_chk_fail@plt>
    d9c1:	48 81 c4 88 20 00 00 	add    $0x2088,%rsp
    d9c8:	5b                   	pop    %rbx
    d9c9:	41 5c                	pop    %r12
    d9cb:	41 5d                	pop    %r13
    d9cd:	41 5e                	pop    %r14
    d9cf:	41 5f                	pop    %r15
    d9d1:	5d                   	pop    %rbp
    d9d2:	c3                   	retq   

000000000000d9d3 <func_18>:
    d9d3:	f3 0f 1e fa          	endbr64 
    d9d7:	55                   	push   %rbp
    d9d8:	48 89 e5             	mov    %rsp,%rbp
    d9db:	53                   	push   %rbx
    d9dc:	48 83 ec 58          	sub    $0x58,%rsp
    d9e0:	48 89 7d b8          	mov    %rdi,-0x48(%rbp)
    d9e4:	89 d0                	mov    %edx,%eax
    d9e6:	48 89 4d a8          	mov    %rcx,-0x58(%rbp)
    d9ea:	44 89 c2             	mov    %r8d,%edx
    d9ed:	89 f1                	mov    %esi,%ecx
    d9ef:	66 89 4d b4          	mov    %cx,-0x4c(%rbp)
    d9f3:	66 89 45 b0          	mov    %ax,-0x50(%rbp)
    d9f7:	89 d0                	mov    %edx,%eax
    d9f9:	66 89 45 a4          	mov    %ax,-0x5c(%rbp)
    d9fd:	64 48 8b 04 25 28 00 	mov    %fs:0x28,%rax
    da04:	00 00 
    da06:	48 89 45 e8          	mov    %rax,-0x18(%rbp)
    da0a:	31 c0                	xor    %eax,%eax
    da0c:	48 c7 45 d8 00 00 00 	movq   $0x0,-0x28(%rbp)
    da13:	00 
    da14:	66 c7 45 ce 8f 47    	movw   $0x478f,-0x32(%rbp)
    da1a:	48 8d 05 df 13 01 00 	lea    0x113df(%rip),%rax        # 1ee00 <g_1295>
    da21:	48 89 45 d0          	mov    %rax,-0x30(%rbp)
    da25:	48 8d 45 d0          	lea    -0x30(%rbp),%rax
    da29:	48 89 45 e0          	mov    %rax,-0x20(%rbp)
    da2d:	48 8b 05 f4 44 01 00 	mov    0x144f4(%rip),%rax        # 21f28 <g_361>
    da34:	48 8b 55 d8          	mov    -0x28(%rbp),%rdx
    da38:	48 89 10             	mov    %rdx,(%rax)
    da3b:	48 8b 05 fe 44 01 00 	mov    0x144fe(%rip),%rax        # 21f40 <g_669>
    da42:	48 8b 55 d8          	mov    -0x28(%rbp),%rdx
    da46:	48 89 10             	mov    %rdx,(%rax)
    da49:	0f b7 45 ce          	movzwl -0x32(%rbp),%eax
    da4d:	66 3b 45 b0          	cmp    -0x50(%rbp),%ax
    da51:	0f 93 c0             	setae  %al
    da54:	0f b6 d0             	movzbl %al,%edx
    da57:	0f bf 45 b4          	movswl -0x4c(%rbp),%eax
    da5b:	39 c2                	cmp    %eax,%edx
    da5d:	0f 9d c2             	setge  %dl
    da60:	48 8b 05 69 44 01 00 	mov    0x14469(%rip),%rax        # 21ed0 <g_313>
    da67:	0f b6 d2             	movzbl %dl,%edx
    da6a:	89 10                	mov    %edx,(%rax)
    da6c:	48 8b 15 35 03 01 00 	mov    0x10335(%rip),%rdx        # 1dda8 <l_1846.4710+0x8>
    da73:	48 8b 45 e0          	mov    -0x20(%rbp),%rax
    da77:	48 89 10             	mov    %rdx,(%rax)
    da7a:	48 8b 45 e0          	mov    -0x20(%rbp),%rax
    da7e:	48 8b 10             	mov    (%rax),%rdx
    da81:	48 8b 45 b8          	mov    -0x48(%rbp),%rax
    da85:	48 8b 0a             	mov    (%rdx),%rcx
    da88:	48 8b 5a 08          	mov    0x8(%rdx),%rbx
    da8c:	48 89 08             	mov    %rcx,(%rax)
    da8f:	48 89 58 08          	mov    %rbx,0x8(%rax)
    da93:	8b 4a 10             	mov    0x10(%rdx),%ecx
    da96:	89 48 10             	mov    %ecx,0x10(%rax)
    da99:	0f b7 52 14          	movzwl 0x14(%rdx),%edx
    da9d:	66 89 50 14          	mov    %dx,0x14(%rax)
    daa1:	48 8b 45 e8          	mov    -0x18(%rbp),%rax
    daa5:	64 48 33 04 25 28 00 	xor    %fs:0x28,%rax
    daac:	00 00 
    daae:	74 05                	je     dab5 <func_18+0xe2>
    dab0:	e8 bb 85 ff ff       	callq  6070 <__stack_chk_fail@plt>
    dab5:	48 8b 45 b8          	mov    -0x48(%rbp),%rax
    dab9:	48 83 c4 58          	add    $0x58,%rsp
    dabd:	5b                   	pop    %rbx
    dabe:	5d                   	pop    %rbp
    dabf:	c3                   	retq   

000000000000dac0 <func_29>:
    dac0:	f3 0f 1e fa          	endbr64 
    dac4:	55                   	push   %rbp
    dac5:	48 89 e5             	mov    %rsp,%rbp
    dac8:	41 56                	push   %r14
    daca:	41 55                	push   %r13
    dacc:	41 54                	push   %r12
    dace:	53                   	push   %rbx
    dacf:	48 81 ec b0 0e 00 00 	sub    $0xeb0,%rsp
    dad6:	89 f8                	mov    %edi,%eax
    dad8:	48 89 b5 40 f1 ff ff 	mov    %rsi,-0xec0(%rbp)
    dadf:	48 89 95 38 f1 ff ff 	mov    %rdx,-0xec8(%rbp)
    dae6:	66 89 85 4c f1 ff ff 	mov    %ax,-0xeb4(%rbp)
    daed:	64 48 8b 04 25 28 00 	mov    %fs:0x28,%rax
    daf4:	00 00 
    daf6:	48 89 45 d8          	mov    %rax,-0x28(%rbp)
    dafa:	31 c0                	xor    %eax,%eax
    dafc:	66 c7 85 56 f1 ff ff 	movw   $0x3,-0xeaa(%rbp)
    db03:	03 00 
    db05:	48 8d 05 94 05 01 00 	lea    0x10594(%rip),%rax        # 1e0a0 <g_4+0x10>
    db0c:	48 89 85 68 f1 ff ff 	mov    %rax,-0xe98(%rbp)
    db13:	48 8d 85 40 f9 ff ff 	lea    -0x6c0(%rbp),%rax
    db1a:	48 8d 15 3f 26 01 00 	lea    0x1263f(%rip),%rdx        # 20160 <g_3041+0x190>
    db21:	b9 d2 00 00 00       	mov    $0xd2,%ecx
    db26:	48 89 c7             	mov    %rax,%rdi
    db29:	48 89 d6             	mov    %rdx,%rsi
    db2c:	f3 48 a5             	rep movsq %ds:(%rsi),%es:(%rdi)
    db2f:	c7 85 58 f1 ff ff ff 	movl   $0xffffffff,-0xea8(%rbp)
    db36:	ff ff ff 
    db39:	66 c7 05 6c 05 01 00 	movw   $0xffe2,0x1056c(%rip)        # 1e0ae <g_34>
    db40:	e2 ff 
    db42:	e9 d6 03 00 00       	jmpq   df1d <func_29+0x45d>
    db47:	48 8d 05 92 08 01 00 	lea    0x10892(%rip),%rax        # 1e3e0 <g_701>
    db4e:	48 89 85 70 f1 ff ff 	mov    %rax,-0xe90(%rbp)
    db55:	48 8d 05 54 07 01 00 	lea    0x10754(%rip),%rax        # 1e2b0 <g_86>
    db5c:	48 89 85 78 f1 ff ff 	mov    %rax,-0xe88(%rbp)
    db63:	48 8b 85 38 f1 ff ff 	mov    -0xec8(%rbp),%rax
    db6a:	48 89 85 70 f1 ff ff 	mov    %rax,-0xe90(%rbp)
    db71:	48 8b 85 78 f1 ff ff 	mov    -0xe88(%rbp),%rax
    db78:	8b 10                	mov    (%rax),%edx
    db7a:	48 8b 85 70 f1 ff ff 	mov    -0xe90(%rbp),%rax
    db81:	8b 00                	mov    (%rax),%eax
    db83:	09 c2                	or     %eax,%edx
    db85:	48 8b 85 78 f1 ff ff 	mov    -0xe88(%rbp),%rax
    db8c:	89 10                	mov    %edx,(%rax)
    db8e:	0f b7 9d 56 f1 ff ff 	movzwl -0xeaa(%rbp),%ebx
    db95:	48 8b 85 38 f1 ff ff 	mov    -0xec8(%rbp),%rax
    db9c:	44 8b 28             	mov    (%rax),%r13d
    db9f:	48 8b 85 70 f1 ff ff 	mov    -0xe90(%rbp),%rax
    dba6:	44 8b 30             	mov    (%rax),%r14d
    dba9:	0f b7 85 4c f1 ff ff 	movzwl -0xeb4(%rbp),%eax
    dbb0:	44 0f b6 e0          	movzbl %al,%r12d
    dbb4:	0f b7 85 4c f1 ff ff 	movzwl -0xeb4(%rbp),%eax
    dbbb:	0f b6 c0             	movzbl %al,%eax
    dbbe:	be 01 00 00 00       	mov    $0x1,%esi
    dbc3:	89 c7                	mov    %eax,%edi
    dbc5:	e8 90 8f ff ff       	callq  6b5a <safe_add_func_uint8_t_u_u>
    dbca:	0f b6 c0             	movzbl %al,%eax
    dbcd:	66 39 85 4c f1 ff ff 	cmp    %ax,-0xeb4(%rbp)
    dbd4:	0f 92 c0             	setb   %al
    dbd7:	0f b6 c0             	movzbl %al,%eax
    dbda:	44 89 e6             	mov    %r12d,%esi
    dbdd:	89 c7                	mov    %eax,%edi
    dbdf:	e8 af 8f ff ff       	callq  6b93 <safe_mul_func_uint8_t_u_u>
    dbe4:	0f b6 c0             	movzbl %al,%eax
    dbe7:	41 39 c6             	cmp    %eax,%r14d
    dbea:	0f 9e c0             	setle  %al
    dbed:	0f b6 c0             	movzbl %al,%eax
    dbf0:	41 39 c5             	cmp    %eax,%r13d
    dbf3:	0f 95 c0             	setne  %al
    dbf6:	0f b6 c0             	movzbl %al,%eax
    dbf9:	89 de                	mov    %ebx,%esi
    dbfb:	89 c7                	mov    %eax,%edi
    dbfd:	e8 23 93 ff ff       	callq  6f25 <safe_div_func_uint32_t_u_u>
    dc02:	89 c3                	mov    %eax,%ebx
    dc04:	0f b7 95 4c f1 ff ff 	movzwl -0xeb4(%rbp),%edx
    dc0b:	0f b7 85 56 f1 ff ff 	movzwl -0xeaa(%rbp),%eax
    dc12:	0f b6 c0             	movzbl %al,%eax
    dc15:	89 d6                	mov    %edx,%esi
    dc17:	89 c7                	mov    %eax,%edi
    dc19:	e8 6f 90 ff ff       	callq  6c8d <safe_rshift_func_uint8_t_u_s>
    dc1e:	48 8b 15 a3 42 01 00 	mov    0x142a3(%rip),%rdx        # 21ec8 <g_289>
    dc25:	48 8b 0a             	mov    (%rdx),%rcx
    dc28:	0f b6 d0             	movzbl %al,%edx
    dc2b:	48 8b 05 96 42 01 00 	mov    0x14296(%rip),%rax        # 21ec8 <g_289>
    dc32:	48 09 ca             	or     %rcx,%rdx
    dc35:	48 89 10             	mov    %rdx,(%rax)
    dc38:	48 8b 00             	mov    (%rax),%rax
    dc3b:	48 89 de             	mov    %rbx,%rsi
    dc3e:	48 89 c7             	mov    %rax,%rdi
    dc41:	e8 e8 93 ff ff       	callq  702e <safe_add_func_uint64_t_u_u>
    dc46:	0f b6 15 b4 19 01 00 	movzbl 0x119b4(%rip),%edx        # 1f601 <g_1317+0x11>
    dc4d:	d0 ea                	shr    %dl
    dc4f:	0f b6 d2             	movzbl %dl,%edx
    dc52:	48 39 d0             	cmp    %rdx,%rax
    dc55:	0f 84 fe 00 00 00    	je     dd59 <func_29+0x299>
    dc5b:	66 c7 85 56 f1 ff ff 	movw   $0x1,-0xeaa(%rbp)
    dc62:	01 00 
    dc64:	66 83 bd 56 f1 ff ff 	cmpw   $0x9,-0xeaa(%rbp)
    dc6b:	09 
    dc6c:	0f 87 d1 00 00 00    	ja     dd43 <func_29+0x283>
    dc72:	c6 05 63 07 01 00 09 	movb   $0x9,0x10763(%rip)        # 1e3dc <g_687>
    dc79:	e9 a7 00 00 00       	jmpq   dd25 <func_29+0x265>
    dc7e:	48 c7 85 60 f1 ff ff 	movq   $0x0,-0xea0(%rbp)
    dc85:	00 00 00 00 
    dc89:	c7 85 5c f1 ff ff 00 	movl   $0x0,-0xea4(%rbp)
    dc90:	00 00 00 
    dc93:	eb 1e                	jmp    dcb3 <func_29+0x1f3>
    dc95:	8b 85 5c f1 ff ff    	mov    -0xea4(%rbp),%eax
    dc9b:	48 98                	cltq   
    dc9d:	48 8d 95 60 f1 ff ff 	lea    -0xea0(%rbp),%rdx
    dca4:	48 89 94 c5 50 f5 ff 	mov    %rdx,-0xab0(%rbp,%rax,8)
    dcab:	ff 
    dcac:	83 85 5c f1 ff ff 01 	addl   $0x1,-0xea4(%rbp)
    dcb3:	83 bd 5c f1 ff ff 01 	cmpl   $0x1,-0xea4(%rbp)
    dcba:	7e d9                	jle    dc95 <func_29+0x1d5>
    dcbc:	c7 05 42 0f 01 00 00 	movl   $0x0,0x10f42(%rip)        # 1ec08 <g_1263>
    dcc3:	00 00 00 
    dcc6:	eb 31                	jmp    dcf9 <func_29+0x239>
    dcc8:	8b 05 3a 0f 01 00    	mov    0x10f3a(%rip),%eax        # 1ec08 <g_1263>
    dcce:	48 98                	cltq   
    dcd0:	48 8d 14 c5 00 00 00 	lea    0x0(,%rax,8),%rdx
    dcd7:	00 
    dcd8:	48 8d 05 01 43 01 00 	lea    0x14301(%rip),%rax        # 21fe0 <g_1784>
    dcdf:	48 8d 0d c2 03 01 00 	lea    0x103c2(%rip),%rcx        # 1e0a8 <g_4+0x18>
    dce6:	48 89 0c 02          	mov    %rcx,(%rdx,%rax,1)
    dcea:	8b 05 18 0f 01 00    	mov    0x10f18(%rip),%eax        # 1ec08 <g_1263>
    dcf0:	83 c0 01             	add    $0x1,%eax
    dcf3:	89 05 0f 0f 01 00    	mov    %eax,0x10f0f(%rip)        # 1ec08 <g_1263>
    dcf9:	8b 05 09 0f 01 00    	mov    0x10f09(%rip),%eax        # 1ec08 <g_1263>
    dcff:	83 f8 05             	cmp    $0x5,%eax
    dd02:	7e c4                	jle    dcc8 <func_29+0x208>
    dd04:	48 8b 05 35 43 01 00 	mov    0x14335(%rip),%rax        # 22040 <g_1799>
    dd0b:	48 8b 95 50 f5 ff ff 	mov    -0xab0(%rbp),%rdx
    dd12:	48 89 10             	mov    %rdx,(%rax)
    dd15:	0f b6 05 c0 06 01 00 	movzbl 0x106c0(%rip),%eax        # 1e3dc <g_687>
    dd1c:	83 e8 01             	sub    $0x1,%eax
    dd1f:	88 05 b7 06 01 00    	mov    %al,0x106b7(%rip)        # 1e3dc <g_687>
    dd25:	0f b6 05 b0 06 01 00 	movzbl 0x106b0(%rip),%eax        # 1e3dc <g_687>
    dd2c:	84 c0                	test   %al,%al
    dd2e:	0f 89 4a ff ff ff    	jns    dc7e <func_29+0x1be>
    dd34:	48 8b 05 8d 41 01 00 	mov    0x1418d(%rip),%rax        # 21ec8 <g_289>
    dd3b:	48 8b 00             	mov    (%rax),%rax
    dd3e:	e9 f5 01 00 00       	jmpq   df38 <func_29+0x478>
    dd43:	48 8b 05 fe 42 01 00 	mov    0x142fe(%rip),%rax        # 22048 <g_1805>
    dd4a:	48 8b 95 68 f1 ff ff 	mov    -0xe98(%rbp),%rdx
    dd51:	48 89 10             	mov    %rdx,(%rax)
    dd54:	e9 95 01 00 00       	jmpq   deee <func_29+0x42e>
    dd59:	c7 85 90 f1 ff ff e2 	movl   $0xfa003ce2,-0xe70(%rbp)
    dd60:	3c 00 fa 
    dd63:	c7 85 94 f1 ff ff 05 	movl   $0x5,-0xe6c(%rbp)
    dd6a:	00 00 00 
    dd6d:	c7 85 98 f1 ff ff e2 	movl   $0xfa003ce2,-0xe68(%rbp)
    dd74:	3c 00 fa 
    dd77:	c7 85 9c f1 ff ff 05 	movl   $0x5,-0xe64(%rbp)
    dd7e:	00 00 00 
    dd81:	c7 85 a0 f1 ff ff e2 	movl   $0xfa003ce2,-0xe60(%rbp)
    dd88:	3c 00 fa 
    dd8b:	48 8d 85 50 f5 ff ff 	lea    -0xab0(%rbp),%rax
    dd92:	48 8d 15 07 b0 00 00 	lea    0xb007(%rip),%rdx        # 18da0 <g_764+0xd40>
    dd99:	b9 7d 00 00 00       	mov    $0x7d,%ecx
    dd9e:	48 89 c7             	mov    %rax,%rdi
    dda1:	48 89 d6             	mov    %rdx,%rsi
    dda4:	f3 48 a5             	rep movsq %ds:(%rsi),%es:(%rdi)
    dda7:	c7 05 57 0e 01 00 00 	movl   $0x0,0x10e57(%rip)        # 1ec08 <g_1263>
    ddae:	00 00 00 
    ddb1:	e9 29 01 00 00       	jmpq   dedf <func_29+0x41f>
    ddb6:	48 8d 85 00 f2 ff ff 	lea    -0xe00(%rbp),%rax
    ddbd:	48 8d 15 dc b3 00 00 	lea    0xb3dc(%rip),%rdx        # 191a0 <g_764+0x1140>
    ddc4:	b9 69 00 00 00       	mov    $0x69,%ecx
    ddc9:	48 89 c7             	mov    %rax,%rdi
    ddcc:	48 89 d6             	mov    %rdx,%rsi
    ddcf:	f3 48 a5             	rep movsq %ds:(%rsi),%es:(%rdi)
    ddd2:	48 8d 05 1f 09 01 00 	lea    0x1091f(%rip),%rax        # 1e6f8 <g_1095>
    ddd9:	48 89 85 80 f1 ff ff 	mov    %rax,-0xe80(%rbp)
    dde0:	c7 85 b0 f1 ff ff 04 	movl   $0x4,-0xe50(%rbp)
    dde7:	00 00 00 
    ddea:	c7 85 b4 f1 ff ff 1c 	movl   $0x9f49f91c,-0xe4c(%rbp)
    ddf1:	f9 49 9f 
    ddf4:	c7 85 b8 f1 ff ff 04 	movl   $0x4,-0xe48(%rbp)
    ddfb:	00 00 00 
    ddfe:	c7 85 bc f1 ff ff 04 	movl   $0x4,-0xe44(%rbp)
    de05:	00 00 00 
    de08:	c7 85 c0 f1 ff ff 1c 	movl   $0x9f49f91c,-0xe40(%rbp)
    de0f:	f9 49 9f 
    de12:	c7 85 c4 f1 ff ff 1c 	movl   $0x9f49f91c,-0xe3c(%rbp)
    de19:	f9 49 9f 
    de1c:	c7 85 c8 f1 ff ff fb 	movl   $0xfffffffb,-0xe38(%rbp)
    de23:	ff ff ff 
    de26:	c7 85 cc f1 ff ff 1c 	movl   $0x9f49f91c,-0xe34(%rbp)
    de2d:	f9 49 9f 
    de30:	c7 85 d0 f1 ff ff 1c 	movl   $0x9f49f91c,-0xe30(%rbp)
    de37:	f9 49 9f 
    de3a:	c7 85 d4 f1 ff ff 04 	movl   $0x4,-0xe2c(%rbp)
    de41:	00 00 00 
    de44:	c7 85 d8 f1 ff ff 04 	movl   $0x4,-0xe28(%rbp)
    de4b:	00 00 00 
    de4e:	c7 85 dc f1 ff ff 1c 	movl   $0x9f49f91c,-0xe24(%rbp)
    de55:	f9 49 9f 
    de58:	c7 85 e0 f1 ff ff 04 	movl   $0x4,-0xe20(%rbp)
    de5f:	00 00 00 
    de62:	c7 85 e4 f1 ff ff 1c 	movl   $0x9f49f91c,-0xe1c(%rbp)
    de69:	f9 49 9f 
    de6c:	c7 85 e8 f1 ff ff 04 	movl   $0x4,-0xe18(%rbp)
    de73:	00 00 00 
    de76:	c7 85 ec f1 ff ff 04 	movl   $0x4,-0xe14(%rbp)
    de7d:	00 00 00 
    de80:	c7 85 f0 f1 ff ff 1c 	movl   $0x9f49f91c,-0xe10(%rbp)
    de87:	f9 49 9f 
    de8a:	c7 85 f4 f1 ff ff 1c 	movl   $0x9f49f91c,-0xe0c(%rbp)
    de91:	f9 49 9f 
    de94:	c7 85 f8 f1 ff ff fb 	movl   $0xfffffffb,-0xe08(%rbp)
    de9b:	ff ff ff 
    de9e:	c7 85 fc f1 ff ff 1c 	movl   $0x9f49f91c,-0xe04(%rbp)
    dea5:	f9 49 9f 
    dea8:	48 c7 85 60 f1 ff ff 	movq   $0x0,-0xea0(%rbp)
    deaf:	00 00 00 00 
    deb3:	48 8d 85 60 f1 ff ff 	lea    -0xea0(%rbp),%rax
    deba:	48 89 85 88 f1 ff ff 	mov    %rax,-0xe78(%rbp)
    dec1:	8b 05 41 0d 01 00    	mov    0x10d41(%rip),%eax        # 1ec08 <g_1263>
    dec7:	0f b6 c0             	movzbl %al,%eax
    deca:	be 05 00 00 00       	mov    $0x5,%esi
    decf:	89 c7                	mov    %eax,%edi
    ded1:	e8 84 8c ff ff       	callq  6b5a <safe_add_func_uint8_t_u_u>
    ded6:	0f b6 c0             	movzbl %al,%eax
    ded9:	89 05 29 0d 01 00    	mov    %eax,0x10d29(%rip)        # 1ec08 <g_1263>
    dedf:	8b 05 23 0d 01 00    	mov    0x10d23(%rip),%eax        # 1ec08 <g_1263>
    dee5:	83 f8 0e             	cmp    $0xe,%eax
    dee8:	0f 8e c8 fe ff ff    	jle    ddb6 <func_29+0x2f6>
    deee:	48 8b 05 cb 3f 01 00 	mov    0x13fcb(%rip),%rax        # 21ec0 <g_221>
    def5:	8b 00                	mov    (%rax),%eax
    def7:	31 85 58 f1 ff ff    	xor    %eax,-0xea8(%rbp)
    defd:	0f b7 05 aa 01 01 00 	movzwl 0x101aa(%rip),%eax        # 1e0ae <g_34>
    df04:	0f b6 c0             	movzbl %al,%eax
    df07:	be 05 00 00 00       	mov    $0x5,%esi
    df0c:	89 c7                	mov    %eax,%edi
    df0e:	e8 47 8c ff ff       	callq  6b5a <safe_add_func_uint8_t_u_u>
    df13:	0f b6 c0             	movzbl %al,%eax
    df16:	66 89 05 91 01 01 00 	mov    %ax,0x10191(%rip)        # 1e0ae <g_34>
    df1d:	0f b7 05 8a 01 01 00 	movzwl 0x1018a(%rip),%eax        # 1e0ae <g_34>
    df24:	66 83 f8 1b          	cmp    $0x1b,%ax
    df28:	0f 86 19 fc ff ff    	jbe    db47 <func_29+0x87>
    df2e:	48 8b 05 93 3f 01 00 	mov    0x13f93(%rip),%rax        # 21ec8 <g_289>
    df35:	48 8b 00             	mov    (%rax),%rax
    df38:	48 8b 5d d8          	mov    -0x28(%rbp),%rbx
    df3c:	64 48 33 1c 25 28 00 	xor    %fs:0x28,%rbx
    df43:	00 00 
    df45:	74 05                	je     df4c <func_29+0x48c>
    df47:	e8 24 81 ff ff       	callq  6070 <__stack_chk_fail@plt>
    df4c:	48 81 c4 b0 0e 00 00 	add    $0xeb0,%rsp
    df53:	5b                   	pop    %rbx
    df54:	41 5c                	pop    %r12
    df56:	41 5d                	pop    %r13
    df58:	41 5e                	pop    %r14
    df5a:	5d                   	pop    %rbp
    df5b:	c3                   	retq   

000000000000df5c <func_37>:
    df5c:	f3 0f 1e fa          	endbr64 
    df60:	55                   	push   %rbp
    df61:	48 89 e5             	mov    %rsp,%rbp
    df64:	41 57                	push   %r15
    df66:	41 56                	push   %r14
    df68:	41 55                	push   %r13
    df6a:	41 54                	push   %r12
    df6c:	53                   	push   %rbx
    df6d:	48 81 ec c8 05 00 00 	sub    $0x5c8,%rsp
    df74:	48 89 bd 28 fa ff ff 	mov    %rdi,-0x5d8(%rbp)
    df7b:	48 89 b5 20 fa ff ff 	mov    %rsi,-0x5e0(%rbp)
    df82:	48 89 95 18 fa ff ff 	mov    %rdx,-0x5e8(%rbp)
    df89:	89 c8                	mov    %ecx,%eax
    df8b:	88 85 14 fa ff ff    	mov    %al,-0x5ec(%rbp)
    df91:	64 48 8b 04 25 28 00 	mov    %fs:0x28,%rax
    df98:	00 00 
    df9a:	48 89 45 c8          	mov    %rax,-0x38(%rbp)
    df9e:	31 c0                	xor    %eax,%eax
    dfa0:	c7 85 50 fb ff ff fa 	movl   $0x1fafafa,-0x4b0(%rbp)
    dfa7:	fa fa 01 
    dfaa:	c7 85 54 fb ff ff 01 	movl   $0x63fa6301,-0x4ac(%rbp)
    dfb1:	63 fa 63 
    dfb4:	c7 85 58 fb ff ff fa 	movl   $0xfade01fa,-0x4a8(%rbp)
    dfbb:	01 de fa 
    dfbe:	c7 85 5c fb ff ff 63 	movl   $0x63010163,-0x4a4(%rbp)
    dfc5:	01 01 63 
    dfc8:	c7 85 60 fb ff ff 01 	movl   $0x1fa6301,-0x4a0(%rbp)
    dfcf:	63 fa 01 
    dfd2:	c7 85 64 fb ff ff 01 	movl   $0xde01fa01,-0x49c(%rbp)
    dfd9:	fa 01 de 
    dfdc:	c7 85 68 fb ff ff 63 	movl   $0xdede0163,-0x498(%rbp)
    dfe3:	01 de de 
    dfe6:	c7 85 6c fb ff ff fa 	movl   $0x1fafafa,-0x494(%rbp)
    dfed:	fa fa 01 
    dff0:	c7 85 70 fb ff ff 01 	movl   $0x63fa6301,-0x490(%rbp)
    dff7:	63 fa 63 
    dffa:	c7 85 74 fb ff ff fa 	movl   $0xfade01fa,-0x48c(%rbp)
    e001:	01 de fa 
    e004:	c7 85 40 fa ff ff ff 	movl   $0xffffffff,-0x5c0(%rbp)
    e00b:	ff ff ff 
    e00e:	48 c7 85 a0 fc ff ff 	movq   $0x0,-0x360(%rbp)
    e015:	00 00 00 00 
    e019:	48 8d 05 28 3f 01 00 	lea    0x13f28(%rip),%rax        # 21f48 <g_848>
    e020:	48 89 85 a8 fc ff ff 	mov    %rax,-0x358(%rbp)
    e027:	48 c7 85 b0 fc ff ff 	movq   $0x0,-0x350(%rbp)
    e02e:	00 00 00 00 
    e032:	48 c7 85 b8 fc ff ff 	movq   $0x0,-0x348(%rbp)
    e039:	00 00 00 00 
    e03d:	48 8d 05 04 3f 01 00 	lea    0x13f04(%rip),%rax        # 21f48 <g_848>
    e044:	48 89 85 c0 fc ff ff 	mov    %rax,-0x340(%rbp)
    e04b:	48 8d 05 f6 3e 01 00 	lea    0x13ef6(%rip),%rax        # 21f48 <g_848>
    e052:	48 89 85 c8 fc ff ff 	mov    %rax,-0x338(%rbp)
    e059:	48 c7 85 d0 fc ff ff 	movq   $0x0,-0x330(%rbp)
    e060:	00 00 00 00 
    e064:	48 8d 05 dd 3e 01 00 	lea    0x13edd(%rip),%rax        # 21f48 <g_848>
    e06b:	48 89 85 d8 fc ff ff 	mov    %rax,-0x328(%rbp)
    e072:	48 8d 05 cf 3e 01 00 	lea    0x13ecf(%rip),%rax        # 21f48 <g_848>
    e079:	48 89 85 e0 fc ff ff 	mov    %rax,-0x320(%rbp)
    e080:	48 c7 85 e8 fc ff ff 	movq   $0x0,-0x318(%rbp)
    e087:	00 00 00 00 
    e08b:	48 c7 85 f0 fc ff ff 	movq   $0x0,-0x310(%rbp)
    e092:	00 00 00 00 
    e096:	48 8d 05 ab 3e 01 00 	lea    0x13eab(%rip),%rax        # 21f48 <g_848>
    e09d:	48 89 85 f8 fc ff ff 	mov    %rax,-0x308(%rbp)
    e0a4:	48 c7 85 00 fd ff ff 	movq   $0x0,-0x300(%rbp)
    e0ab:	00 00 00 00 
    e0af:	48 8d 05 92 3e 01 00 	lea    0x13e92(%rip),%rax        # 21f48 <g_848>
    e0b6:	48 89 85 08 fd ff ff 	mov    %rax,-0x2f8(%rbp)
    e0bd:	48 c7 85 10 fd ff ff 	movq   $0x0,-0x2f0(%rbp)
    e0c4:	00 00 00 00 
    e0c8:	48 c7 85 18 fd ff ff 	movq   $0x0,-0x2e8(%rbp)
    e0cf:	00 00 00 00 
    e0d3:	48 c7 85 20 fd ff ff 	movq   $0x0,-0x2e0(%rbp)
    e0da:	00 00 00 00 
    e0de:	48 c7 85 28 fd ff ff 	movq   $0x0,-0x2d8(%rbp)
    e0e5:	00 00 00 00 
    e0e9:	48 8d 05 58 3e 01 00 	lea    0x13e58(%rip),%rax        # 21f48 <g_848>
    e0f0:	48 89 85 30 fd ff ff 	mov    %rax,-0x2d0(%rbp)
    e0f7:	48 c7 85 38 fd ff ff 	movq   $0x0,-0x2c8(%rbp)
    e0fe:	00 00 00 00 
    e102:	48 c7 85 40 fd ff ff 	movq   $0x0,-0x2c0(%rbp)
    e109:	00 00 00 00 
    e10d:	48 c7 85 48 fd ff ff 	movq   $0x0,-0x2b8(%rbp)
    e114:	00 00 00 00 
    e118:	48 c7 85 50 fd ff ff 	movq   $0x0,-0x2b0(%rbp)
    e11f:	00 00 00 00 
    e123:	48 c7 85 58 fd ff ff 	movq   $0x0,-0x2a8(%rbp)
    e12a:	00 00 00 00 
    e12e:	48 8d 05 53 45 01 00 	lea    0x14553(%rip),%rax        # 22688 <g_494>
    e135:	48 89 85 60 fa ff ff 	mov    %rax,-0x5a0(%rbp)
    e13c:	48 8d 05 fd 3d 01 00 	lea    0x13dfd(%rip),%rax        # 21f40 <g_669>
    e143:	48 89 85 80 fb ff ff 	mov    %rax,-0x480(%rbp)
    e14a:	48 8d 05 d7 3d 01 00 	lea    0x13dd7(%rip),%rax        # 21f28 <g_361>
    e151:	48 89 85 88 fb ff ff 	mov    %rax,-0x478(%rbp)
    e158:	48 8d 05 e1 3d 01 00 	lea    0x13de1(%rip),%rax        # 21f40 <g_669>
    e15f:	48 89 85 90 fb ff ff 	mov    %rax,-0x470(%rbp)
    e166:	48 8d 05 bb 3d 01 00 	lea    0x13dbb(%rip),%rax        # 21f28 <g_361>
    e16d:	48 89 85 98 fb ff ff 	mov    %rax,-0x468(%rbp)
    e174:	48 8d 05 c5 3d 01 00 	lea    0x13dc5(%rip),%rax        # 21f40 <g_669>
    e17b:	48 89 85 a0 fb ff ff 	mov    %rax,-0x460(%rbp)
    e182:	48 8d 85 80 fb ff ff 	lea    -0x480(%rbp),%rax
    e189:	48 83 c0 20          	add    $0x20,%rax
    e18d:	48 89 85 68 fa ff ff 	mov    %rax,-0x598(%rbp)
    e194:	48 8d 85 68 fa ff ff 	lea    -0x598(%rbp),%rax
    e19b:	48 89 85 88 fa ff ff 	mov    %rax,-0x578(%rbp)
    e1a2:	48 8d 05 97 19 01 00 	lea    0x11997(%rip),%rax        # 1fb40 <g_1480>
    e1a9:	48 89 85 70 fa ff ff 	mov    %rax,-0x590(%rbp)
    e1b0:	48 8d 05 e9 44 01 00 	lea    0x144e9(%rip),%rax        # 226a0 <g_900>
    e1b7:	48 89 85 90 fa ff ff 	mov    %rax,-0x570(%rbp)
    e1be:	48 8d 85 60 fd ff ff 	lea    -0x2a0(%rbp),%rax
    e1c5:	48 8d 15 34 b3 00 00 	lea    0xb334(%rip),%rdx        # 19500 <g_764+0x14a0>
    e1cc:	b9 23 00 00 00       	mov    $0x23,%ecx
    e1d1:	48 89 c7             	mov    %rax,%rdi
    e1d4:	48 89 d6             	mov    %rdx,%rsi
    e1d7:	f3 48 a5             	rep movsq %ds:(%rsi),%es:(%rdi)
    e1da:	c7 85 44 fa ff ff c4 	movl   $0xbf9e85c4,-0x5bc(%rbp)
    e1e1:	85 9e bf 
    e1e4:	c6 85 30 fa ff ff a7 	movb   $0xa7,-0x5d0(%rbp)
    e1eb:	66 c7 85 14 fb ff ff 	movw   $0x9,-0x4ec(%rbp)
    e1f2:	09 00 
    e1f4:	66 c7 85 16 fb ff ff 	movw   $0x9,-0x4ea(%rbp)
    e1fb:	09 00 
    e1fd:	66 c7 85 18 fb ff ff 	movw   $0x9,-0x4e8(%rbp)
    e204:	09 00 
    e206:	66 c7 85 1a fb ff ff 	movw   $0x9,-0x4e6(%rbp)
    e20d:	09 00 
    e20f:	66 c7 85 1c fb ff ff 	movw   $0x9,-0x4e4(%rbp)
    e216:	09 00 
    e218:	66 c7 85 1e fb ff ff 	movw   $0x9,-0x4e2(%rbp)
    e21f:	09 00 
    e221:	48 c7 85 98 fa ff ff 	movq   $0x0,-0x568(%rbp)
    e228:	00 00 00 00 
    e22c:	48 8d 05 bc 00 01 00 	lea    0x100bc(%rip),%rax        # 1e2ef <g_176+0xf>
    e233:	48 89 85 a0 fa ff ff 	mov    %rax,-0x560(%rbp)
    e23a:	c7 85 48 fa ff ff 06 	movl   $0x6,-0x5b8(%rbp)
    e241:	00 00 00 
    e244:	c7 85 34 fa ff ff 00 	movl   $0x0,-0x5cc(%rbp)
    e24b:	00 00 00 
    e24e:	eb 14                	jmp    e264 <func_37+0x308>
    e250:	8b 85 34 fa ff ff    	mov    -0x5cc(%rbp),%eax
    e256:	48 98                	cltq   
    e258:	c6 44 05 c0 1d       	movb   $0x1d,-0x40(%rbp,%rax,1)
    e25d:	83 85 34 fa ff ff 01 	addl   $0x1,-0x5cc(%rbp)
    e264:	83 bd 34 fa ff ff 07 	cmpl   $0x7,-0x5cc(%rbp)
    e26b:	7e e3                	jle    e250 <func_37+0x2f4>
    e26d:	c7 05 45 00 01 00 fc 	movl   $0xfffffffc,0x10045(%rip)        # 1e2bc <g_122>
    e274:	ff ff ff 
    e277:	e9 80 07 00 00       	jmpq   e9fc <func_37+0xaa0>
    e27c:	48 8d 05 3d 44 01 00 	lea    0x1443d(%rip),%rax        # 226c0 <g_1427>
    e283:	48 89 85 a8 fa ff ff 	mov    %rax,-0x558(%rbp)
    e28a:	48 b8 a1 89 07 9a ca 	movabs $0x2b3db7ca9a0789a1,%rax
    e291:	b7 3d 2b 
    e294:	48 89 85 b0 fa ff ff 	mov    %rax,-0x550(%rbp)
    e29b:	c7 85 4c fa ff ff fd 	movl   $0xfffffffd,-0x5b4(%rbp)
    e2a2:	ff ff ff 
    e2a5:	48 8d 05 74 3c 01 00 	lea    0x13c74(%rip),%rax        # 21f20 <g_343>
    e2ac:	48 89 85 80 fe ff ff 	mov    %rax,-0x180(%rbp)
    e2b3:	48 8d 05 66 3c 01 00 	lea    0x13c66(%rip),%rax        # 21f20 <g_343>
    e2ba:	48 89 85 88 fe ff ff 	mov    %rax,-0x178(%rbp)
    e2c1:	48 8d 05 58 3c 01 00 	lea    0x13c58(%rip),%rax        # 21f20 <g_343>
    e2c8:	48 89 85 90 fe ff ff 	mov    %rax,-0x170(%rbp)
    e2cf:	48 8d 05 4a 3c 01 00 	lea    0x13c4a(%rip),%rax        # 21f20 <g_343>
    e2d6:	48 89 85 98 fe ff ff 	mov    %rax,-0x168(%rbp)
    e2dd:	48 8d 05 3c 3c 01 00 	lea    0x13c3c(%rip),%rax        # 21f20 <g_343>
    e2e4:	48 89 85 a0 fe ff ff 	mov    %rax,-0x160(%rbp)
    e2eb:	48 8d 05 2e 3c 01 00 	lea    0x13c2e(%rip),%rax        # 21f20 <g_343>
    e2f2:	48 89 85 a8 fe ff ff 	mov    %rax,-0x158(%rbp)
    e2f9:	48 8d 05 20 3c 01 00 	lea    0x13c20(%rip),%rax        # 21f20 <g_343>
    e300:	48 89 85 b0 fe ff ff 	mov    %rax,-0x150(%rbp)
    e307:	48 8d 05 12 3c 01 00 	lea    0x13c12(%rip),%rax        # 21f20 <g_343>
    e30e:	48 89 85 b8 fe ff ff 	mov    %rax,-0x148(%rbp)
    e315:	48 8d 05 04 3c 01 00 	lea    0x13c04(%rip),%rax        # 21f20 <g_343>
    e31c:	48 89 85 c0 fe ff ff 	mov    %rax,-0x140(%rbp)
    e323:	48 8d 05 f6 3b 01 00 	lea    0x13bf6(%rip),%rax        # 21f20 <g_343>
    e32a:	48 89 85 c8 fe ff ff 	mov    %rax,-0x138(%rbp)
    e331:	48 8d 05 e8 3b 01 00 	lea    0x13be8(%rip),%rax        # 21f20 <g_343>
    e338:	48 89 85 d0 fe ff ff 	mov    %rax,-0x130(%rbp)
    e33f:	48 8d 05 da 3b 01 00 	lea    0x13bda(%rip),%rax        # 21f20 <g_343>
    e346:	48 89 85 d8 fe ff ff 	mov    %rax,-0x128(%rbp)
    e34d:	48 c7 85 e0 fe ff ff 	movq   $0x0,-0x120(%rbp)
    e354:	00 00 00 00 
    e358:	48 8d 05 c1 3b 01 00 	lea    0x13bc1(%rip),%rax        # 21f20 <g_343>
    e35f:	48 89 85 e8 fe ff ff 	mov    %rax,-0x118(%rbp)
    e366:	48 8d 05 b3 3b 01 00 	lea    0x13bb3(%rip),%rax        # 21f20 <g_343>
    e36d:	48 89 85 f0 fe ff ff 	mov    %rax,-0x110(%rbp)
    e374:	48 c7 85 f8 fe ff ff 	movq   $0x0,-0x108(%rbp)
    e37b:	00 00 00 00 
    e37f:	48 8d 05 9a 3b 01 00 	lea    0x13b9a(%rip),%rax        # 21f20 <g_343>
    e386:	48 89 85 00 ff ff ff 	mov    %rax,-0x100(%rbp)
    e38d:	48 8d 05 8c 3b 01 00 	lea    0x13b8c(%rip),%rax        # 21f20 <g_343>
    e394:	48 89 85 08 ff ff ff 	mov    %rax,-0xf8(%rbp)
    e39b:	48 8d 05 7e 3b 01 00 	lea    0x13b7e(%rip),%rax        # 21f20 <g_343>
    e3a2:	48 89 85 10 ff ff ff 	mov    %rax,-0xf0(%rbp)
    e3a9:	48 8d 05 70 3b 01 00 	lea    0x13b70(%rip),%rax        # 21f20 <g_343>
    e3b0:	48 89 85 18 ff ff ff 	mov    %rax,-0xe8(%rbp)
    e3b7:	48 8d 05 62 3b 01 00 	lea    0x13b62(%rip),%rax        # 21f20 <g_343>
    e3be:	48 89 85 20 ff ff ff 	mov    %rax,-0xe0(%rbp)
    e3c5:	48 8d 05 54 3b 01 00 	lea    0x13b54(%rip),%rax        # 21f20 <g_343>
    e3cc:	48 89 85 28 ff ff ff 	mov    %rax,-0xd8(%rbp)
    e3d3:	48 8d 05 46 3b 01 00 	lea    0x13b46(%rip),%rax        # 21f20 <g_343>
    e3da:	48 89 85 30 ff ff ff 	mov    %rax,-0xd0(%rbp)
    e3e1:	48 c7 85 38 ff ff ff 	movq   $0x0,-0xc8(%rbp)
    e3e8:	00 00 00 00 
    e3ec:	48 8d 05 7d 3b 01 00 	lea    0x13b7d(%rip),%rax        # 21f70 <g_984>
    e3f3:	48 89 85 b0 fb ff ff 	mov    %rax,-0x450(%rbp)
    e3fa:	48 8d 05 6f 3b 01 00 	lea    0x13b6f(%rip),%rax        # 21f70 <g_984>
    e401:	48 89 85 b8 fb ff ff 	mov    %rax,-0x448(%rbp)
    e408:	48 8d 05 61 3b 01 00 	lea    0x13b61(%rip),%rax        # 21f70 <g_984>
    e40f:	48 89 85 c0 fb ff ff 	mov    %rax,-0x440(%rbp)
    e416:	48 8d 05 53 3b 01 00 	lea    0x13b53(%rip),%rax        # 21f70 <g_984>
    e41d:	48 89 85 c8 fb ff ff 	mov    %rax,-0x438(%rbp)
    e424:	48 8d 05 45 3b 01 00 	lea    0x13b45(%rip),%rax        # 21f70 <g_984>
    e42b:	48 89 85 d0 fb ff ff 	mov    %rax,-0x430(%rbp)
    e432:	48 8d 05 37 3b 01 00 	lea    0x13b37(%rip),%rax        # 21f70 <g_984>
    e439:	48 89 85 d8 fb ff ff 	mov    %rax,-0x428(%rbp)
    e440:	48 8d 05 29 3b 01 00 	lea    0x13b29(%rip),%rax        # 21f70 <g_984>
    e447:	48 89 85 e0 fb ff ff 	mov    %rax,-0x420(%rbp)
    e44e:	48 8d 05 1b 3b 01 00 	lea    0x13b1b(%rip),%rax        # 21f70 <g_984>
    e455:	48 89 85 e8 fb ff ff 	mov    %rax,-0x418(%rbp)
    e45c:	48 8d 05 0d 3b 01 00 	lea    0x13b0d(%rip),%rax        # 21f70 <g_984>
    e463:	48 89 85 f0 fb ff ff 	mov    %rax,-0x410(%rbp)
    e46a:	48 8d 05 ff 3a 01 00 	lea    0x13aff(%rip),%rax        # 21f70 <g_984>
    e471:	48 89 85 f8 fb ff ff 	mov    %rax,-0x408(%rbp)
    e478:	48 8d 85 60 fa ff ff 	lea    -0x5a0(%rbp),%rax
    e47f:	48 89 85 78 fa ff ff 	mov    %rax,-0x588(%rbp)
    e486:	48 8d 85 78 fa ff ff 	lea    -0x588(%rbp),%rax
    e48d:	48 89 85 b8 fa ff ff 	mov    %rax,-0x548(%rbp)
    e494:	c7 85 20 fb ff ff 1d 	movl   $0xa7c5991d,-0x4e0(%rbp)
    e49b:	99 c5 a7 
    e49e:	c7 85 24 fb ff ff 1d 	movl   $0xa7c5991d,-0x4dc(%rbp)
    e4a5:	99 c5 a7 
    e4a8:	c7 85 28 fb ff ff 1d 	movl   $0xa7c5991d,-0x4d8(%rbp)
    e4af:	99 c5 a7 
    e4b2:	c7 85 2c fb ff ff 1d 	movl   $0xa7c5991d,-0x4d4(%rbp)
    e4b9:	99 c5 a7 
    e4bc:	48 8d 05 ed fd 00 00 	lea    0xfded(%rip),%rax        # 1e2b0 <g_86>
    e4c3:	48 89 85 c0 fa ff ff 	mov    %rax,-0x540(%rbp)
    e4ca:	48 c7 85 c8 fa ff ff 	movq   $0x0,-0x538(%rbp)
    e4d1:	00 00 00 00 
    e4d5:	48 c7 85 d0 fa ff ff 	movq   $0x0,-0x530(%rbp)
    e4dc:	00 00 00 00 
    e4e0:	48 8d 05 c9 fb 00 00 	lea    0xfbc9(%rip),%rax        # 1e0b0 <g_49>
    e4e7:	48 89 85 00 fc ff ff 	mov    %rax,-0x400(%rbp)
    e4ee:	48 8d 05 bb fb 00 00 	lea    0xfbbb(%rip),%rax        # 1e0b0 <g_49>
    e4f5:	48 89 85 08 fc ff ff 	mov    %rax,-0x3f8(%rbp)
    e4fc:	48 8d 05 ad fb 00 00 	lea    0xfbad(%rip),%rax        # 1e0b0 <g_49>
    e503:	48 89 85 10 fc ff ff 	mov    %rax,-0x3f0(%rbp)
    e50a:	48 8d 05 9f fb 00 00 	lea    0xfb9f(%rip),%rax        # 1e0b0 <g_49>
    e511:	48 89 85 18 fc ff ff 	mov    %rax,-0x3e8(%rbp)
    e518:	48 8d 05 91 fb 00 00 	lea    0xfb91(%rip),%rax        # 1e0b0 <g_49>
    e51f:	48 89 85 20 fc ff ff 	mov    %rax,-0x3e0(%rbp)
    e526:	48 8d 05 83 fb 00 00 	lea    0xfb83(%rip),%rax        # 1e0b0 <g_49>
    e52d:	48 89 85 28 fc ff ff 	mov    %rax,-0x3d8(%rbp)
    e534:	48 8d 05 75 fb 00 00 	lea    0xfb75(%rip),%rax        # 1e0b0 <g_49>
    e53b:	48 89 85 30 fc ff ff 	mov    %rax,-0x3d0(%rbp)
    e542:	48 8d 05 67 fb 00 00 	lea    0xfb67(%rip),%rax        # 1e0b0 <g_49>
    e549:	48 89 85 38 fc ff ff 	mov    %rax,-0x3c8(%rbp)
    e550:	48 8d 05 59 fb 00 00 	lea    0xfb59(%rip),%rax        # 1e0b0 <g_49>
    e557:	48 89 85 40 fc ff ff 	mov    %rax,-0x3c0(%rbp)
    e55e:	48 8d 05 4b fb 00 00 	lea    0xfb4b(%rip),%rax        # 1e0b0 <g_49>
    e565:	48 89 85 48 fc ff ff 	mov    %rax,-0x3b8(%rbp)
    e56c:	48 8d 05 3d fb 00 00 	lea    0xfb3d(%rip),%rax        # 1e0b0 <g_49>
    e573:	48 89 85 50 fc ff ff 	mov    %rax,-0x3b0(%rbp)
    e57a:	48 8d 05 2f fb 00 00 	lea    0xfb2f(%rip),%rax        # 1e0b0 <g_49>
    e581:	48 89 85 58 fc ff ff 	mov    %rax,-0x3a8(%rbp)
    e588:	48 8d 05 21 fb 00 00 	lea    0xfb21(%rip),%rax        # 1e0b0 <g_49>
    e58f:	48 89 85 60 fc ff ff 	mov    %rax,-0x3a0(%rbp)
    e596:	48 8d 05 13 fb 00 00 	lea    0xfb13(%rip),%rax        # 1e0b0 <g_49>
    e59d:	48 89 85 68 fc ff ff 	mov    %rax,-0x398(%rbp)
    e5a4:	48 8d 05 05 fb 00 00 	lea    0xfb05(%rip),%rax        # 1e0b0 <g_49>
    e5ab:	48 89 85 70 fc ff ff 	mov    %rax,-0x390(%rbp)
    e5b2:	48 8d 05 f7 fa 00 00 	lea    0xfaf7(%rip),%rax        # 1e0b0 <g_49>
    e5b9:	48 89 85 78 fc ff ff 	mov    %rax,-0x388(%rbp)
    e5c0:	48 8d 05 e9 fa 00 00 	lea    0xfae9(%rip),%rax        # 1e0b0 <g_49>
    e5c7:	48 89 85 80 fc ff ff 	mov    %rax,-0x380(%rbp)
    e5ce:	48 8d 05 db fa 00 00 	lea    0xfadb(%rip),%rax        # 1e0b0 <g_49>
    e5d5:	48 89 85 88 fc ff ff 	mov    %rax,-0x378(%rbp)
    e5dc:	48 8d 05 cd fa 00 00 	lea    0xfacd(%rip),%rax        # 1e0b0 <g_49>
    e5e3:	48 89 85 90 fc ff ff 	mov    %rax,-0x370(%rbp)
    e5ea:	48 8d 05 bf fa 00 00 	lea    0xfabf(%rip),%rax        # 1e0b0 <g_49>
    e5f1:	48 89 85 98 fc ff ff 	mov    %rax,-0x368(%rbp)
    e5f8:	c7 85 38 fa ff ff 00 	movl   $0x0,-0x5c8(%rbp)
    e5ff:	00 00 00 
    e602:	eb 1e                	jmp    e622 <func_37+0x6c6>
    e604:	8b 85 38 fa ff ff    	mov    -0x5c8(%rbp),%eax
    e60a:	48 98                	cltq   
    e60c:	48 8d 15 cd 07 01 00 	lea    0x107cd(%rip),%rdx        # 1ede0 <g_1294>
    e613:	48 89 94 c5 30 fb ff 	mov    %rdx,-0x4d0(%rbp,%rax,8)
    e61a:	ff 
    e61b:	83 85 38 fa ff ff 01 	addl   $0x1,-0x5c8(%rbp)
    e622:	83 bd 38 fa ff ff 02 	cmpl   $0x2,-0x5c8(%rbp)
    e629:	7e d9                	jle    e604 <func_37+0x6a8>
    e62b:	48 8b 85 20 fa ff ff 	mov    -0x5e0(%rbp),%rax
    e632:	0f be c0             	movsbl %al,%eax
    e635:	89 c7                	mov    %eax,%edi
    e637:	e8 83 7b ff ff       	callq  61bf <safe_unary_minus_func_int8_t_s>
    e63c:	48 8b 85 b0 fa ff ff 	mov    -0x550(%rbp),%rax
    e643:	89 85 40 fa ff ff    	mov    %eax,-0x5c0(%rbp)
    e649:	0f b6 85 55 fb ff ff 	movzbl -0x4ab(%rbp),%eax
    e650:	0f b6 d0             	movzbl %al,%edx
    e653:	48 8b 05 8e 00 01 00 	mov    0x1008e(%rip),%rax        # 1e6e8 <g_1065+0x8>
    e65a:	48 c1 e0 04          	shl    $0x4,%rax
    e65e:	48 c1 f8 22          	sar    $0x22,%rax
    e662:	88 05 87 fc 00 00    	mov    %al,0xfc87(%rip)        # 1e2ef <g_176+0xf>
    e668:	0f b6 0d 80 fc 00 00 	movzbl 0xfc80(%rip),%ecx        # 1e2ef <g_176+0xf>
    e66f:	48 8b 85 a8 fa ff ff 	mov    -0x558(%rbp),%rax
    e676:	0f b6 00             	movzbl (%rax),%eax
    e679:	09 c1                	or     %eax,%ecx
    e67b:	48 8b 85 a8 fa ff ff 	mov    -0x558(%rbp),%rax
    e682:	88 08                	mov    %cl,(%rax)
    e684:	0f b6 85 55 fb ff ff 	movzbl -0x4ab(%rbp),%eax
    e68b:	0f b6 c0             	movzbl %al,%eax
    e68e:	48 89 d6             	mov    %rdx,%rsi
    e691:	48 89 c7             	mov    %rax,%rdi
    e694:	e8 1b 83 ff ff       	callq  69b4 <safe_mod_func_int64_t_s_s>
    e699:	0f be 85 14 fa ff ff 	movsbl -0x5ec(%rbp),%eax
    e6a0:	8b 95 40 fa ff ff    	mov    -0x5c0(%rbp),%edx
    e6a6:	89 d6                	mov    %edx,%esi
    e6a8:	89 c7                	mov    %eax,%edi
    e6aa:	e8 1d 80 ff ff       	callq  66cc <safe_mod_func_int32_t_s_s>
    e6af:	88 05 b5 3f 01 00    	mov    %al,0x13fb5(%rip)        # 2266a <g_146>
    e6b5:	48 8b 85 30 fd ff ff 	mov    -0x2d0(%rbp),%rax
    e6bc:	48 8d 15 85 38 01 00 	lea    0x13885(%rip),%rdx        # 21f48 <g_848>
    e6c3:	48 39 d0             	cmp    %rdx,%rax
    e6c6:	0f be 95 14 fa ff ff 	movsbl -0x5ec(%rbp),%edx
    e6cd:	0f b6 85 55 fb ff ff 	movzbl -0x4ab(%rbp),%eax
    e6d4:	0f b6 c0             	movzbl %al,%eax
    e6d7:	39 c2                	cmp    %eax,%edx
    e6d9:	0f 95 c0             	setne  %al
    e6dc:	0f b6 c0             	movzbl %al,%eax
    e6df:	89 c7                	mov    %eax,%edi
    e6e1:	e8 c0 87 ff ff       	callq  6ea6 <safe_unary_minus_func_uint32_t_u>
    e6e6:	89 c0                	mov    %eax,%eax
    e6e8:	48 39 85 b0 fa ff ff 	cmp    %rax,-0x550(%rbp)
    e6ef:	0f 9d c0             	setge  %al
    e6f2:	0f b6 c0             	movzbl %al,%eax
    e6f5:	48 8b 95 20 fa ff ff 	mov    -0x5e0(%rbp),%rdx
    e6fc:	09 d0                	or     %edx,%eax
    e6fe:	98                   	cwtl   
    e6ff:	be e0 f9 ff ff       	mov    $0xfffff9e0,%esi
    e704:	89 c7                	mov    %eax,%edi
    e706:	e8 4a 7d ff ff       	callq  6455 <safe_div_func_int16_t_s_s>
    e70b:	66 85 c0             	test   %ax,%ax
    e70e:	75 0c                	jne    e71c <func_37+0x7c0>
    e710:	48 8b 85 28 fa ff ff 	mov    -0x5d8(%rbp),%rax
    e717:	48 85 c0             	test   %rax,%rax
    e71a:	74 07                	je     e723 <func_37+0x7c7>
    e71c:	b8 01 00 00 00       	mov    $0x1,%eax
    e721:	eb 05                	jmp    e728 <func_37+0x7cc>
    e723:	b8 00 00 00 00       	mov    $0x0,%eax
    e728:	0f b6 c0             	movzbl %al,%eax
    e72b:	be 07 00 00 00       	mov    $0x7,%esi
    e730:	89 c7                	mov    %eax,%edi
    e732:	e8 87 85 ff ff       	callq  6cbe <safe_rshift_func_uint8_t_u_u>
    e737:	b8 01 00 00 00       	mov    $0x1,%eax
    e73c:	31 85 4c fa ff ff    	xor    %eax,-0x5b4(%rbp)
    e742:	8b 85 4c fa ff ff    	mov    -0x5b4(%rbp),%eax
    e748:	98                   	cwtl   
    e749:	be 03 00 00 00       	mov    $0x3,%esi
    e74e:	89 c7                	mov    %eax,%edi
    e750:	e8 0e 7e ff ff       	callq  6563 <safe_rshift_func_int16_t_s_u>
    e755:	48 8b 05 a4 2d 01 00 	mov    0x12da4(%rip),%rax        # 21500 <g_72>
    e75c:	0f b7 00             	movzwl (%rax),%eax
    e75f:	0f b7 d0             	movzwl %ax,%edx
    e762:	0f b6 05 b2 04 01 00 	movzbl 0x104b2(%rip),%eax        # 1ec1b <g_1286+0xb>
    e769:	c1 e0 02             	shl    $0x2,%eax
    e76c:	c0 f8 06             	sar    $0x6,%al
    e76f:	0f be c0             	movsbl %al,%eax
    e772:	39 c2                	cmp    %eax,%edx
    e774:	74 12                	je     e788 <func_37+0x82c>
    e776:	80 bd 14 fa ff ff 00 	cmpb   $0x0,-0x5ec(%rbp)
    e77d:	0f 84 5e 02 00 00    	je     e9e1 <func_37+0xa85>
    e783:	e9 84 02 00 00       	jmpq   ea0c <func_37+0xab0>
    e788:	48 8d 05 21 f9 00 00 	lea    0xf921(%rip),%rax        # 1e0b0 <g_49>
    e78f:	48 89 85 d8 fa ff ff 	mov    %rax,-0x528(%rbp)
    e796:	48 8d 05 eb 3e 01 00 	lea    0x13eeb(%rip),%rax        # 22688 <g_494>
    e79d:	48 89 85 e0 fa ff ff 	mov    %rax,-0x520(%rbp)
    e7a4:	c7 85 50 fa ff ff f7 	movl   $0xfffffff7,-0x5b0(%rbp)
    e7ab:	ff ff ff 
    e7ae:	48 8d 05 ff fa 00 00 	lea    0xfaff(%rip),%rax        # 1e2b4 <g_86+0x4>
    e7b5:	48 89 85 e8 fa ff ff 	mov    %rax,-0x518(%rbp)
    e7bc:	48 8d 05 5d 37 01 00 	lea    0x1375d(%rip),%rax        # 21f20 <g_343>
    e7c3:	48 89 85 18 ff ff ff 	mov    %rax,-0xe8(%rbp)
    e7ca:	0f b6 85 55 fb ff ff 	movzbl -0x4ab(%rbp),%eax
    e7d1:	0f b6 c0             	movzbl %al,%eax
    e7d4:	be 01 00 00 00       	mov    $0x1,%esi
    e7d9:	89 c7                	mov    %eax,%edi
    e7db:	e8 de 84 ff ff       	callq  6cbe <safe_rshift_func_uint8_t_u_u>
    e7e0:	0f b6 95 73 fb ff ff 	movzbl -0x48d(%rbp),%edx
    e7e7:	38 d0                	cmp    %dl,%al
    e7e9:	0f 95 c0             	setne  %al
    e7ec:	0f b6 d0             	movzbl %al,%edx
    e7ef:	48 8b 85 d8 fa ff ff 	mov    -0x528(%rbp),%rax
    e7f6:	66 89 10             	mov    %dx,(%rax)
    e7f9:	48 8b 85 d8 fa ff ff 	mov    -0x528(%rbp),%rax
    e800:	0f b7 00             	movzwl (%rax),%eax
    e803:	98                   	cwtl   
    e804:	89 c7                	mov    %eax,%edi
    e806:	e8 92 7b ff ff       	callq  639d <safe_unary_minus_func_int16_t_s>
    e80b:	66 85 c0             	test   %ax,%ax
    e80e:	0f 84 03 01 00 00    	je     e917 <func_37+0x9bb>
    e814:	8b 85 4c fa ff ff    	mov    -0x5b4(%rbp),%eax
    e81a:	0f be d8             	movsbl %al,%ebx
    e81d:	48 8b 85 28 fa ff ff 	mov    -0x5d8(%rbp),%rax
    e824:	41 89 c6             	mov    %eax,%r14d
    e827:	0f b6 85 74 fb ff ff 	movzbl -0x48c(%rbp),%eax
    e82e:	44 0f b6 e8          	movzbl %al,%r13d
    e832:	44 0f be a5 14 fa ff 	movsbl -0x5ec(%rbp),%r12d
    e839:	ff 
    e83a:	8b 85 40 fa ff ff    	mov    -0x5c0(%rbp),%eax
    e840:	98                   	cwtl   
    e841:	be 07 00 00 00       	mov    $0x7,%esi
    e846:	89 c7                	mov    %eax,%edi
    e848:	e8 94 7c ff ff       	callq  64e1 <safe_lshift_func_int16_t_s_u>
    e84d:	0f b7 c0             	movzwl %ax,%eax
    e850:	44 89 e6             	mov    %r12d,%esi
    e853:	89 c7                	mov    %eax,%edi
    e855:	e8 64 85 ff ff       	callq  6dbe <safe_lshift_func_uint16_t_u_s>
    e85a:	66 41 39 c5          	cmp    %ax,%r13w
    e85e:	0f 96 c0             	setbe  %al
    e861:	0f b6 c0             	movzbl %al,%eax
    e864:	be 03 00 00 00       	mov    $0x3,%esi
    e869:	89 c7                	mov    %eax,%edi
    e86b:	e8 fc 7a ff ff       	callq  636c <safe_rshift_func_int8_t_s_u>
    e870:	89 c2                	mov    %eax,%edx
    e872:	48 8b 05 d7 36 01 00 	mov    0x136d7(%rip),%rax        # 21f50 <g_847>
    e879:	48 8b 00             	mov    (%rax),%rax
    e87c:	0f be d2             	movsbl %dl,%edx
    e87f:	89 10                	mov    %edx,(%rax)
    e881:	8b 00                	mov    (%rax),%eax
    e883:	89 c6                	mov    %eax,%esi
    e885:	bf ff ff ff ff       	mov    $0xffffffff,%edi
    e88a:	e8 76 7d ff ff       	callq  6605 <safe_sub_func_int32_t_s_s>
    e88f:	48 81 bd 20 fa ff ff 	cmpq   $0xf8,-0x5e0(%rbp)
    e896:	f8 00 00 00 
    e89a:	0f 97 c0             	seta   %al
    e89d:	0f b6 d0             	movzbl %al,%edx
    e8a0:	48 8b 05 79 36 01 00 	mov    0x13679(%rip),%rax        # 21f20 <g_343>
    e8a7:	48 8b 00             	mov    (%rax),%rax
    e8aa:	48 8b 00             	mov    (%rax),%rax
    e8ad:	48 8b 00             	mov    (%rax),%rax
    e8b0:	0f b6 00             	movzbl (%rax),%eax
    e8b3:	0f be c0             	movsbl %al,%eax
    e8b6:	89 d6                	mov    %edx,%esi
    e8b8:	89 c7                	mov    %eax,%edi
    e8ba:	e8 53 79 ff ff       	callq  6212 <safe_mul_func_int8_t_s_s>
    e8bf:	80 bd 14 fa ff ff 00 	cmpb   $0x0,-0x5ec(%rbp)
    e8c6:	75 09                	jne    e8d1 <func_37+0x975>
    e8c8:	80 bd 14 fa ff ff 00 	cmpb   $0x0,-0x5ec(%rbp)
    e8cf:	74 07                	je     e8d8 <func_37+0x97c>
    e8d1:	b8 01 00 00 00       	mov    $0x1,%eax
    e8d6:	eb 05                	jmp    e8dd <func_37+0x981>
    e8d8:	b8 00 00 00 00       	mov    $0x0,%eax
    e8dd:	0f b7 c0             	movzwl %ax,%eax
    e8e0:	44 89 f6             	mov    %r14d,%esi
    e8e3:	89 c7                	mov    %eax,%edi
    e8e5:	e8 d4 84 ff ff       	callq  6dbe <safe_lshift_func_uint16_t_u_s>
    e8ea:	48 83 bd 20 fa ff ff 	cmpq   $0x8,-0x5e0(%rbp)
    e8f1:	08 
    e8f2:	0f 97 c0             	seta   %al
    e8f5:	0f b6 c0             	movzbl %al,%eax
    e8f8:	89 de                	mov    %ebx,%esi
    e8fa:	89 c7                	mov    %eax,%edi
    e8fc:	e8 d3 78 ff ff       	callq  61d4 <safe_add_func_int8_t_s_s>
    e901:	48 8b 05 c0 35 01 00 	mov    0x135c0(%rip),%rax        # 21ec8 <g_289>
    e908:	48 8b 00             	mov    (%rax),%rax
    e90b:	48 85 c0             	test   %rax,%rax
    e90e:	74 07                	je     e917 <func_37+0x9bb>
    e910:	b8 01 00 00 00       	mov    $0x1,%eax
    e915:	eb 05                	jmp    e91c <func_37+0x9c0>
    e917:	b8 00 00 00 00       	mov    $0x0,%eax
    e91c:	48 98                	cltq   
    e91e:	48 23 85 20 fa ff ff 	and    -0x5e0(%rbp),%rax
    e925:	48 89 c2             	mov    %rax,%rdx
    e928:	48 8b 85 e8 fa ff ff 	mov    -0x518(%rbp),%rax
    e92f:	8b 00                	mov    (%rax),%eax
    e931:	89 c1                	mov    %eax,%ecx
    e933:	89 d0                	mov    %edx,%eax
    e935:	31 c8                	xor    %ecx,%eax
    e937:	89 c2                	mov    %eax,%edx
    e939:	48 8b 85 e8 fa ff ff 	mov    -0x518(%rbp),%rax
    e940:	89 10                	mov    %edx,(%rax)
    e942:	c7 05 bc 02 01 00 00 	movl   $0x0,0x102bc(%rip)        # 1ec08 <g_1263>
    e949:	00 00 00 
    e94c:	eb 7a                	jmp    e9c8 <func_37+0xa6c>
    e94e:	c7 05 a0 fd 00 00 00 	movl   $0x0,0xfda0(%rip)        # 1e6f8 <g_1095>
    e955:	00 00 00 
    e958:	eb 54                	jmp    e9ae <func_37+0xa52>
    e95a:	c7 05 98 fd 00 00 00 	movl   $0x0,0xfd98(%rip)        # 1e6fc <g_1125>
    e961:	00 00 00 
    e964:	eb 2e                	jmp    e994 <func_37+0xa38>
    e966:	8b 05 90 fd 00 00    	mov    0xfd90(%rip),%eax        # 1e6fc <g_1125>
    e96c:	48 98                	cltq   
    e96e:	48 8d 14 c5 00 00 00 	lea    0x0(,%rax,8),%rdx
    e975:	00 
    e976:	48 8d 05 43 f7 00 00 	lea    0xf743(%rip),%rax        # 1e0c0 <g_67>
    e97d:	48 c7 04 02 00 00 00 	movq   $0x0,(%rdx,%rax,1)
    e984:	00 
    e985:	8b 05 71 fd 00 00    	mov    0xfd71(%rip),%eax        # 1e6fc <g_1125>
    e98b:	83 c0 01             	add    $0x1,%eax
    e98e:	89 05 68 fd 00 00    	mov    %eax,0xfd68(%rip)        # 1e6fc <g_1125>
    e994:	8b 05 62 fd 00 00    	mov    0xfd62(%rip),%eax        # 1e6fc <g_1125>
    e99a:	83 f8 06             	cmp    $0x6,%eax
    e99d:	7e c7                	jle    e966 <func_37+0xa0a>
    e99f:	8b 05 53 fd 00 00    	mov    0xfd53(%rip),%eax        # 1e6f8 <g_1095>
    e9a5:	83 c0 01             	add    $0x1,%eax
    e9a8:	89 05 4a fd 00 00    	mov    %eax,0xfd4a(%rip)        # 1e6f8 <g_1095>
    e9ae:	8b 05 44 fd 00 00    	mov    0xfd44(%rip),%eax        # 1e6f8 <g_1095>
    e9b4:	83 f8 02             	cmp    $0x2,%eax
    e9b7:	76 a1                	jbe    e95a <func_37+0x9fe>
    e9b9:	8b 05 49 02 01 00    	mov    0x10249(%rip),%eax        # 1ec08 <g_1263>
    e9bf:	83 c0 01             	add    $0x1,%eax
    e9c2:	89 05 40 02 01 00    	mov    %eax,0x10240(%rip)        # 1ec08 <g_1263>
    e9c8:	8b 05 3a 02 01 00    	mov    0x1023a(%rip),%eax        # 1ec08 <g_1263>
    e9ce:	83 f8 0a             	cmp    $0xa,%eax
    e9d1:	0f 85 77 ff ff ff    	jne    e94e <func_37+0x9f2>
    e9d7:	c7 85 40 fa ff ff ff 	movl   $0xffffffff,-0x5c0(%rbp)
    e9de:	ff ff ff 
    e9e1:	8b 05 d5 f8 00 00    	mov    0xf8d5(%rip),%eax        # 1e2bc <g_122>
    e9e7:	48 98                	cltq   
    e9e9:	be 04 00 00 00       	mov    $0x4,%esi
    e9ee:	48 89 c7             	mov    %rax,%rdi
    e9f1:	e8 38 86 ff ff       	callq  702e <safe_add_func_uint64_t_u_u>
    e9f6:	89 05 c0 f8 00 00    	mov    %eax,0xf8c0(%rip)        # 1e2bc <g_122>
    e9fc:	8b 05 ba f8 00 00    	mov    0xf8ba(%rip),%eax        # 1e2bc <g_122>
    ea02:	83 f8 fe             	cmp    $0xfffffffe,%eax
    ea05:	0f 8d 71 f8 ff ff    	jge    e27c <func_37+0x320>
    ea0b:	90                   	nop
    ea0c:	66 0f be 85 14 fa ff 	movsbw -0x5ec(%rbp),%ax
    ea13:	ff 
    ea14:	0f b7 d0             	movzwl %ax,%edx
    ea17:	48 8b 05 aa 34 01 00 	mov    0x134aa(%rip),%rax        # 21ec8 <g_289>
    ea1e:	48 8b 08             	mov    (%rax),%rcx
    ea21:	0f b6 05 89 fc 00 00 	movzbl 0xfc89(%rip),%eax        # 1e6b1 <g_934+0x11>
    ea28:	d0 e8                	shr    %al
    ea2a:	0f b6 c0             	movzbl %al,%eax
    ea2d:	48 39 c1             	cmp    %rax,%rcx
    ea30:	0f 92 c0             	setb   %al
    ea33:	0f b6 c0             	movzbl %al,%eax
    ea36:	89 d6                	mov    %edx,%esi
    ea38:	89 c7                	mov    %eax,%edi
    ea3a:	e8 c0 82 ff ff       	callq  6cff <safe_add_func_uint16_t_u_u>
    ea3f:	0f b7 c0             	movzwl %ax,%eax
    ea42:	89 85 48 fa ff ff    	mov    %eax,-0x5b8(%rbp)
    ea48:	66 c7 05 43 fc 00 00 	movw   $0x0,0xfc43(%rip)        # 1e694 <g_863>
    ea4f:	00 00 
    ea51:	e9 8a 04 00 00       	jmpq   eee0 <func_37+0xf84>
    ea56:	66 c7 85 30 fb ff ff 	movw   $0x1,-0x4d0(%rbp)
    ea5d:	01 00 
    ea5f:	66 c7 85 32 fb ff ff 	movw   $0x1,-0x4ce(%rbp)
    ea66:	01 00 
    ea68:	66 c7 85 34 fb ff ff 	movw   $0xfff9,-0x4cc(%rbp)
    ea6f:	f9 ff 
    ea71:	66 c7 85 36 fb ff ff 	movw   $0x1,-0x4ca(%rbp)
    ea78:	01 00 
    ea7a:	66 c7 85 38 fb ff ff 	movw   $0x1,-0x4c8(%rbp)
    ea81:	01 00 
    ea83:	66 c7 85 3a fb ff ff 	movw   $0xfff9,-0x4c6(%rbp)
    ea8a:	f9 ff 
    ea8c:	66 c7 85 3c fb ff ff 	movw   $0x1,-0x4c4(%rbp)
    ea93:	01 00 
    ea95:	48 8d 85 80 fe ff ff 	lea    -0x180(%rbp),%rax
    ea9c:	48 8d 15 7d ab 00 00 	lea    0xab7d(%rip),%rdx        # 19620 <g_764+0x15c0>
    eaa3:	b9 28 00 00 00       	mov    $0x28,%ecx
    eaa8:	48 89 c7             	mov    %rax,%rdi
    eaab:	48 89 d6             	mov    %rdx,%rsi
    eaae:	f3 48 a5             	rep movsq %ds:(%rsi),%es:(%rdi)
    eab1:	c6 85 31 fa ff ff 04 	movb   $0x4,-0x5cf(%rbp)
    eab8:	48 c7 85 80 fa ff ff 	movq   $0xfffffffffffffffd,-0x580(%rbp)
    eabf:	fd ff ff ff 
    eac3:	48 8d 85 a0 fc ff ff 	lea    -0x360(%rbp),%rax
    eaca:	48 05 a0 00 00 00    	add    $0xa0,%rax
    ead0:	48 89 85 78 fa ff ff 	mov    %rax,-0x588(%rbp)
    ead7:	48 8d 85 78 fa ff ff 	lea    -0x588(%rbp),%rax
    eade:	48 89 85 00 fc ff ff 	mov    %rax,-0x400(%rbp)
    eae5:	48 8d 85 78 fa ff ff 	lea    -0x588(%rbp),%rax
    eaec:	48 89 85 08 fc ff ff 	mov    %rax,-0x3f8(%rbp)
    eaf3:	48 8d 85 78 fa ff ff 	lea    -0x588(%rbp),%rax
    eafa:	48 89 85 10 fc ff ff 	mov    %rax,-0x3f0(%rbp)
    eb01:	48 8d 85 78 fa ff ff 	lea    -0x588(%rbp),%rax
    eb08:	48 89 85 18 fc ff ff 	mov    %rax,-0x3e8(%rbp)
    eb0f:	48 8d 85 78 fa ff ff 	lea    -0x588(%rbp),%rax
    eb16:	48 89 85 20 fc ff ff 	mov    %rax,-0x3e0(%rbp)
    eb1d:	48 8d 85 78 fa ff ff 	lea    -0x588(%rbp),%rax
    eb24:	48 89 85 28 fc ff ff 	mov    %rax,-0x3d8(%rbp)
    eb2b:	48 8d 85 78 fa ff ff 	lea    -0x588(%rbp),%rax
    eb32:	48 89 85 30 fc ff ff 	mov    %rax,-0x3d0(%rbp)
    eb39:	c7 85 3c fa ff ff 00 	movl   $0x0,-0x5c4(%rbp)
    eb40:	00 00 00 
    eb43:	eb 1e                	jmp    eb63 <func_37+0xc07>
    eb45:	8b 85 3c fa ff ff    	mov    -0x5c4(%rbp),%eax
    eb4b:	48 98                	cltq   
    eb4d:	48 8d 15 6c f5 00 00 	lea    0xf56c(%rip),%rdx        # 1e0c0 <g_67>
    eb54:	48 89 94 c5 b0 fb ff 	mov    %rdx,-0x450(%rbp,%rax,8)
    eb5b:	ff 
    eb5c:	83 85 3c fa ff ff 01 	addl   $0x1,-0x5c4(%rbp)
    eb63:	83 bd 3c fa ff ff 06 	cmpl   $0x6,-0x5c4(%rbp)
    eb6a:	7e d9                	jle    eb45 <func_37+0xbe9>
    eb6c:	0f b7 85 3a fb ff ff 	movzwl -0x4c6(%rbp),%eax
    eb73:	89 c2                	mov    %eax,%edx
    eb75:	48 8b 85 68 fa ff ff 	mov    -0x598(%rbp),%rax
    eb7c:	48 8b 00             	mov    (%rax),%rax
    eb7f:	48 8b 00             	mov    (%rax),%rax
    eb82:	48 8b 00             	mov    (%rax),%rax
    eb85:	8b 00                	mov    (%rax),%eax
    eb87:	21 d0                	and    %edx,%eax
    eb89:	66 89 85 3a fb ff ff 	mov    %ax,-0x4c6(%rbp)
    eb90:	0f b6 85 31 fa ff ff 	movzbl -0x5cf(%rbp),%eax
    eb97:	83 c0 01             	add    $0x1,%eax
    eb9a:	88 85 31 fa ff ff    	mov    %al,-0x5cf(%rbp)
    eba0:	c7 05 0a f5 00 00 00 	movl   $0x0,0xf50a(%rip)        # 1e0b4 <g_65>
    eba7:	00 00 00 
    ebaa:	e9 11 03 00 00       	jmpq   eec0 <func_37+0xf64>
    ebaf:	66 c7 85 32 fa ff ff 	movw   $0x1549,-0x5ce(%rbp)
    ebb6:	49 15 
    ebb8:	48 8d 85 b0 fb ff ff 	lea    -0x450(%rbp),%rax
    ebbf:	48 83 c0 30          	add    $0x30,%rax
    ebc3:	48 89 85 f0 fa ff ff 	mov    %rax,-0x510(%rbp)
    ebca:	48 8d 45 c0          	lea    -0x40(%rbp),%rax
    ebce:	48 89 85 f8 fa ff ff 	mov    %rax,-0x508(%rbp)
    ebd5:	48 c7 85 00 fb ff ff 	movq   $0x0,-0x500(%rbp)
    ebdc:	00 00 00 00 
    ebe0:	48 8d 05 01 f5 00 00 	lea    0xf501(%rip),%rax        # 1e0e8 <g_67+0x28>
    ebe7:	48 89 85 08 fb ff ff 	mov    %rax,-0x4f8(%rbp)
    ebee:	c7 85 54 fa ff ff 05 	movl   $0x5,-0x5ac(%rbp)
    ebf5:	00 00 00 
    ebf8:	c7 85 58 fa ff ff 00 	movl   $0x0,-0x5a8(%rbp)
    ebff:	00 00 00 
    ec02:	0f b7 85 32 fa ff ff 	movzwl -0x5ce(%rbp),%eax
    ec09:	83 e8 01             	sub    $0x1,%eax
    ec0c:	66 89 85 32 fa ff ff 	mov    %ax,-0x5ce(%rbp)
    ec13:	48 8b 05 fe 32 01 00 	mov    0x132fe(%rip),%rax        # 21f18 <g_344>
    ec1a:	48 8b 00             	mov    (%rax),%rax
    ec1d:	48 8b 00             	mov    (%rax),%rax
    ec20:	0f b6 00             	movzbl (%rax),%eax
    ec23:	44 0f be bd 14 fa ff 	movsbl -0x5ec(%rbp),%r15d
    ec2a:	ff 
    ec2b:	0f b7 9d 32 fa ff ff 	movzwl -0x5ce(%rbp),%ebx
    ec32:	0f b7 85 32 fa ff ff 	movzwl -0x5ce(%rbp),%eax
    ec39:	44 0f b6 e0          	movzbl %al,%r12d
    ec3d:	44 0f b7 ad 32 fa ff 	movzwl -0x5ce(%rbp),%r13d
    ec44:	ff 
    ec45:	48 8b 95 e0 fb ff ff 	mov    -0x420(%rbp),%rdx
    ec4c:	48 8b 85 f0 fa ff ff 	mov    -0x510(%rbp),%rax
    ec53:	48 89 10             	mov    %rdx,(%rax)
    ec56:	48 8b 85 f0 fa ff ff 	mov    -0x510(%rbp),%rax
    ec5d:	48 8b 10             	mov    (%rax),%rdx
    ec60:	48 8d 85 28 fa ff ff 	lea    -0x5d8(%rbp),%rax
    ec67:	48 39 c2             	cmp    %rax,%rdx
    ec6a:	48 8b 85 28 fa ff ff 	mov    -0x5d8(%rbp),%rax
    ec71:	89 85 10 fa ff ff    	mov    %eax,-0x5f0(%rbp)
    ec77:	48 8b 85 28 fa ff ff 	mov    -0x5d8(%rbp),%rax
    ec7e:	48 85 c0             	test   %rax,%rax
    ec81:	74 14                	je     ec97 <func_37+0xd3b>
    ec83:	48 8b 05 be 32 01 00 	mov    0x132be(%rip),%rax        # 21f48 <g_848>
    ec8a:	8b 00                	mov    (%rax),%eax
    ec8c:	85 c0                	test   %eax,%eax
    ec8e:	74 07                	je     ec97 <func_37+0xd3b>
    ec90:	b8 01 00 00 00       	mov    $0x1,%eax
    ec95:	eb 05                	jmp    ec9c <func_37+0xd40>
    ec97:	b8 00 00 00 00       	mov    $0x0,%eax
    ec9c:	98                   	cwtl   
    ec9d:	be 0b 00 00 00       	mov    $0xb,%esi
    eca2:	89 c7                	mov    %eax,%edi
    eca4:	e8 ba 78 ff ff       	callq  6563 <safe_rshift_func_int16_t_s_u>
    eca9:	44 0f be f0          	movsbl %al,%r14d
    ecad:	48 8b 85 20 fa ff ff 	mov    -0x5e0(%rbp),%rax
    ecb4:	89 c2                	mov    %eax,%edx
    ecb6:	48 8b 85 f8 fa ff ff 	mov    -0x508(%rbp),%rax
    ecbd:	88 10                	mov    %dl,(%rax)
    ecbf:	48 8b 85 f8 fa ff ff 	mov    -0x508(%rbp),%rax
    ecc6:	0f b6 00             	movzbl (%rax),%eax
    ecc9:	0f be c0             	movsbl %al,%eax
    eccc:	be 02 00 00 00       	mov    $0x2,%esi
    ecd1:	89 c7                	mov    %eax,%edi
    ecd3:	e8 5d 76 ff ff       	callq  6335 <safe_rshift_func_int8_t_s_s>
    ecd8:	f7 d0                	not    %eax
    ecda:	0f be c0             	movsbl %al,%eax
    ecdd:	44 89 f6             	mov    %r14d,%esi
    ece0:	89 c7                	mov    %eax,%edi
    ece2:	e8 0b 75 ff ff       	callq  61f2 <safe_sub_func_int8_t_s_s>
    ece7:	0f be c0             	movsbl %al,%eax
    ecea:	48 8b 95 20 fa ff ff 	mov    -0x5e0(%rbp),%rdx
    ecf1:	21 c2                	and    %eax,%edx
    ecf3:	48 8b 05 c6 31 01 00 	mov    0x131c6(%rip),%rax        # 21ec0 <g_221>
    ecfa:	89 10                	mov    %edx,(%rax)
    ecfc:	48 8b 05 c5 31 01 00 	mov    0x131c5(%rip),%rax        # 21ec8 <g_289>
    ed03:	48 8b 10             	mov    (%rax),%rdx
    ed06:	0f b7 85 3c fb ff ff 	movzwl -0x4c4(%rbp),%eax
    ed0d:	0f b7 c0             	movzwl %ax,%eax
    ed10:	48 39 c2             	cmp    %rax,%rdx
    ed13:	0f 95 c0             	setne  %al
    ed16:	0f b6 c0             	movzbl %al,%eax
    ed19:	8b b5 10 fa ff ff    	mov    -0x5f0(%rbp),%esi
    ed1f:	89 c7                	mov    %eax,%edi
    ed21:	e8 54 81 ff ff       	callq  6e7a <safe_rshift_func_uint16_t_u_u>
    ed26:	48 8b 95 28 fa ff ff 	mov    -0x5d8(%rbp),%rdx
    ed2d:	48 8b 85 08 fb ff ff 	mov    -0x4f8(%rbp),%rax
    ed34:	48 89 10             	mov    %rdx,(%rax)
    ed37:	48 8b 05 c2 27 01 00 	mov    0x127c2(%rip),%rax        # 21500 <g_72>
    ed3e:	0f b7 00             	movzwl (%rax),%eax
    ed41:	0f b7 c0             	movzwl %ax,%eax
    ed44:	44 89 ee             	mov    %r13d,%esi
    ed47:	89 c7                	mov    %eax,%edi
    ed49:	e8 d1 7f ff ff       	callq  6d1f <safe_sub_func_uint16_t_u_u>
    ed4e:	0f b6 c0             	movzbl %al,%eax
    ed51:	44 89 e6             	mov    %r12d,%esi
    ed54:	89 c7                	mov    %eax,%edi
    ed56:	e8 ff 7d ff ff       	callq  6b5a <safe_add_func_uint8_t_u_u>
    ed5b:	84 c0                	test   %al,%al
    ed5d:	74 07                	je     ed66 <func_37+0xe0a>
    ed5f:	b8 01 00 00 00       	mov    $0x1,%eax
    ed64:	eb 05                	jmp    ed6b <func_37+0xe0f>
    ed66:	b8 00 00 00 00       	mov    $0x0,%eax
    ed6b:	0f be c0             	movsbl %al,%eax
    ed6e:	89 de                	mov    %ebx,%esi
    ed70:	89 c7                	mov    %eax,%edi
    ed72:	e8 2a 75 ff ff       	callq  62a1 <safe_lshift_func_int8_t_s_s>
    ed77:	0f be c0             	movsbl %al,%eax
    ed7a:	48 8b 15 57 fe 00 00 	mov    0xfe57(%rip),%rdx        # 1ebd8 <g_1153+0x8>
    ed81:	48 c1 e2 04          	shl    $0x4,%rdx
    ed85:	48 c1 fa 22          	sar    $0x22,%rdx
    ed89:	31 d0                	xor    %edx,%eax
    ed8b:	83 f0 03             	xor    $0x3,%eax
    ed8e:	41 39 c7             	cmp    %eax,%r15d
    ed91:	0f 96 c0             	setbe  %al
    ed94:	0f b6 c0             	movzbl %al,%eax
    ed97:	48 39 85 20 fa ff ff 	cmp    %rax,-0x5e0(%rbp)
    ed9e:	73 16                	jae    edb6 <func_37+0xe5a>
    eda0:	48 8b 05 59 27 01 00 	mov    0x12759(%rip),%rax        # 21500 <g_72>
    eda7:	0f b7 00             	movzwl (%rax),%eax
    edaa:	66 85 c0             	test   %ax,%ax
    edad:	74 07                	je     edb6 <func_37+0xe5a>
    edaf:	b8 01 00 00 00       	mov    $0x1,%eax
    edb4:	eb 05                	jmp    edbb <func_37+0xe5f>
    edb6:	b8 00 00 00 00       	mov    $0x0,%eax
    edbb:	48 98                	cltq   
    edbd:	48 09 85 80 fa ff ff 	or     %rax,-0x580(%rbp)
    edc4:	0f b6 85 31 fa ff ff 	movzbl -0x5cf(%rbp),%eax
    edcb:	f7 d0                	not    %eax
    edcd:	89 85 54 fa ff ff    	mov    %eax,-0x5ac(%rbp)
    edd3:	66 c7 05 d4 f2 00 00 	movw   $0x3,0xf2d4(%rip)        # 1e0b0 <g_49>
    edda:	03 00 
    eddc:	e9 c0 00 00 00       	jmpq   eea1 <func_37+0xf45>
    ede1:	c7 85 5c fa ff ff 2e 	movl   $0x35739e2e,-0x5a4(%rbp)
    ede8:	9e 73 35 
    edeb:	0f b7 05 be f2 00 00 	movzwl 0xf2be(%rip),%eax        # 1e0b0 <g_49>
    edf2:	66 85 c0             	test   %ax,%ax
    edf5:	74 05                	je     edfc <func_37+0xea0>
    edf7:	e9 10 fc ff ff       	jmpq   ea0c <func_37+0xab0>
    edfc:	48 8b 85 20 fa ff ff 	mov    -0x5e0(%rbp),%rax
    ee03:	89 85 5c fa ff ff    	mov    %eax,-0x5a4(%rbp)
    ee09:	48 8b 85 68 fa ff ff 	mov    -0x598(%rbp),%rax
    ee10:	48 8b 00             	mov    (%rax),%rax
    ee13:	48 8b 00             	mov    (%rax),%rax
    ee16:	48 8b 00             	mov    (%rax),%rax
    ee19:	8b 00                	mov    (%rax),%eax
    ee1b:	0f bf d8             	movswl %ax,%ebx
    ee1e:	8b 95 5c fa ff ff    	mov    -0x5a4(%rbp),%edx
    ee24:	0f be 85 14 fa ff ff 	movsbl -0x5ec(%rbp),%eax
    ee2b:	89 d6                	mov    %edx,%esi
    ee2d:	89 c7                	mov    %eax,%edi
    ee2f:	e8 01 75 ff ff       	callq  6335 <safe_rshift_func_int8_t_s_s>
    ee34:	84 c0                	test   %al,%al
    ee36:	74 11                	je     ee49 <func_37+0xeed>
    ee38:	48 83 bd 20 fa ff ff 	cmpq   $0x0,-0x5e0(%rbp)
    ee3f:	00 
    ee40:	74 07                	je     ee49 <func_37+0xeed>
    ee42:	b8 01 00 00 00       	mov    $0x1,%eax
    ee47:	eb 05                	jmp    ee4e <func_37+0xef2>
    ee49:	b8 00 00 00 00       	mov    $0x0,%eax
    ee4e:	98                   	cwtl   
    ee4f:	89 de                	mov    %ebx,%esi
    ee51:	89 c7                	mov    %eax,%edi
    ee53:	e8 7b 75 ff ff       	callq  63d3 <safe_sub_func_int16_t_s_s>
    ee58:	0f bf d0             	movswl %ax,%edx
    ee5b:	48 8b 05 66 30 01 00 	mov    0x13066(%rip),%rax        # 21ec8 <g_289>
    ee62:	48 8b 08             	mov    (%rax),%rcx
    ee65:	8b 85 58 fa ff ff    	mov    -0x5a8(%rbp),%eax
    ee6b:	48 39 c1             	cmp    %rax,%rcx
    ee6e:	0f 96 c0             	setbe  %al
    ee71:	0f b6 c0             	movzbl %al,%eax
    ee74:	39 c2                	cmp    %eax,%edx
    ee76:	0f 9d c0             	setge  %al
    ee79:	0f b6 c0             	movzbl %al,%eax
    ee7c:	89 85 54 fa ff ff    	mov    %eax,-0x5ac(%rbp)
    ee82:	48 8b 85 08 fc ff ff 	mov    -0x3f8(%rbp),%rax
    ee89:	48 89 05 40 31 01 00 	mov    %rax,0x13140(%rip)        # 21fd0 <g_1779>
    ee90:	0f b7 05 19 f2 00 00 	movzwl 0xf219(%rip),%eax        # 1e0b0 <g_49>
    ee97:	83 e8 01             	sub    $0x1,%eax
    ee9a:	66 89 05 0f f2 00 00 	mov    %ax,0xf20f(%rip)        # 1e0b0 <g_49>
    eea1:	0f b7 05 08 f2 00 00 	movzwl 0xf208(%rip),%eax        # 1e0b0 <g_49>
    eea8:	66 85 c0             	test   %ax,%ax
    eeab:	0f 89 30 ff ff ff    	jns    ede1 <func_37+0xe85>
    eeb1:	8b 05 fd f1 00 00    	mov    0xf1fd(%rip),%eax        # 1e0b4 <g_65>
    eeb7:	83 c0 01             	add    $0x1,%eax
    eeba:	89 05 f4 f1 00 00    	mov    %eax,0xf1f4(%rip)        # 1e0b4 <g_65>
    eec0:	8b 05 ee f1 00 00    	mov    0xf1ee(%rip),%eax        # 1e0b4 <g_65>
    eec6:	83 f8 03             	cmp    $0x3,%eax
    eec9:	0f 86 e0 fc ff ff    	jbe    ebaf <func_37+0xc53>
    eecf:	0f b7 05 be f7 00 00 	movzwl 0xf7be(%rip),%eax        # 1e694 <g_863>
    eed6:	83 c0 01             	add    $0x1,%eax
    eed9:	66 89 05 b4 f7 00 00 	mov    %ax,0xf7b4(%rip)        # 1e694 <g_863>
    eee0:	0f b7 05 ad f7 00 00 	movzwl 0xf7ad(%rip),%eax        # 1e694 <g_863>
    eee7:	66 85 c0             	test   %ax,%ax
    eeea:	0f 84 66 fb ff ff    	je     ea56 <func_37+0xafa>
    eef0:	48 8b 85 18 fa ff ff 	mov    -0x5e8(%rbp),%rax
    eef7:	48 8b 5d c8          	mov    -0x38(%rbp),%rbx
    eefb:	64 48 33 1c 25 28 00 	xor    %fs:0x28,%rbx
    ef02:	00 00 
    ef04:	74 05                	je     ef0b <func_37+0xfaf>
    ef06:	e8 65 71 ff ff       	callq  6070 <__stack_chk_fail@plt>
    ef0b:	48 81 c4 c8 05 00 00 	add    $0x5c8,%rsp
    ef12:	5b                   	pop    %rbx
    ef13:	41 5c                	pop    %r12
    ef15:	41 5d                	pop    %r13
    ef17:	41 5e                	pop    %r14
    ef19:	41 5f                	pop    %r15
    ef1b:	5d                   	pop    %rbp
    ef1c:	c3                   	retq   

000000000000ef1d <func_42>:
    ef1d:	f3 0f 1e fa          	endbr64 
    ef21:	55                   	push   %rbp
    ef22:	48 89 e5             	mov    %rsp,%rbp
    ef25:	48 81 ec d0 08 00 00 	sub    $0x8d0,%rsp
    ef2c:	89 f8                	mov    %edi,%eax
    ef2e:	48 89 8d 38 f7 ff ff 	mov    %rcx,-0x8c8(%rbp)
    ef35:	66 89 85 4c f7 ff ff 	mov    %ax,-0x8b4(%rbp)
    ef3c:	89 f0                	mov    %esi,%eax
    ef3e:	88 85 48 f7 ff ff    	mov    %al,-0x8b8(%rbp)
    ef44:	89 d0                	mov    %edx,%eax
    ef46:	88 85 44 f7 ff ff    	mov    %al,-0x8bc(%rbp)
    ef4c:	64 48 8b 04 25 28 00 	mov    %fs:0x28,%rax
    ef53:	00 00 
    ef55:	48 89 45 f8          	mov    %rax,-0x8(%rbp)
    ef59:	31 c0                	xor    %eax,%eax
    ef5b:	48 b8 05 04 c0 04 05 	movabs $0xc001450504c00405,%rax
    ef62:	45 01 c0 
    ef65:	48 89 85 e0 f7 ff ff 	mov    %rax,-0x820(%rbp)
    ef6c:	c6 85 e8 f7 ff ff 00 	movb   $0x0,-0x818(%rbp)
    ef73:	48 b8 03 ff 26 fe 83 	movabs $0xfc000383fe26ff03,%rax
    ef7a:	03 00 fc 
    ef7d:	48 89 85 e9 f7 ff ff 	mov    %rax,-0x817(%rbp)
    ef84:	c6 85 f1 f7 ff ff 0b 	movb   $0xb,-0x80f(%rbp)
    ef8b:	48 b8 ce 05 00 fc 00 	movabs $0x454500fc0005ce,%rax
    ef92:	45 45 00 
    ef95:	48 89 85 f2 f7 ff ff 	mov    %rax,-0x80e(%rbp)
    ef9c:	c6 85 fa f7 ff ff fc 	movb   $0xfc,-0x806(%rbp)
    efa3:	48 b8 f6 ff f6 03 00 	movabs $0x1ffff0003f6fff6,%rax
    efaa:	ff ff 01 
    efad:	48 89 85 fb f7 ff ff 	mov    %rax,-0x805(%rbp)
    efb4:	c6 85 03 f8 ff ff 04 	movb   $0x4,-0x7fd(%rbp)
    efbb:	48 b8 50 03 01 f6 83 	movabs $0x43f83f6010350,%rax
    efc2:	3f 04 00 
    efc5:	48 89 85 04 f8 ff ff 	mov    %rax,-0x7fc(%rbp)
    efcc:	c6 85 0c f8 ff ff ff 	movb   $0xff,-0x7f4(%rbp)
    efd3:	48 b8 af 01 0b 03 05 	movabs $0xb030505030b01af,%rax
    efda:	05 03 0b 
    efdd:	48 89 85 0d f8 ff ff 	mov    %rax,-0x7f3(%rbp)
    efe4:	c6 85 15 f8 ff ff 01 	movb   $0x1,-0x7eb(%rbp)
    efeb:	48 b8 03 ff 0b fc 00 	movabs $0xfe830300fc0bff03,%rax
    eff2:	03 83 fe 
    eff5:	48 89 85 16 f8 ff ff 	mov    %rax,-0x7ea(%rbp)
    effc:	c6 85 1e f8 ff ff 26 	movb   $0x26,-0x7e2(%rbp)
    f003:	c7 85 a0 f7 ff ff dd 	movl   $0xdb4db8dd,-0x860(%rbp)
    f00a:	b8 4d db 
    f00d:	c7 85 a4 f7 ff ff dd 	movl   $0xdb4db8dd,-0x85c(%rbp)
    f014:	b8 4d db 
    f017:	c7 85 a8 f7 ff ff dd 	movl   $0xdb4db8dd,-0x858(%rbp)
    f01e:	b8 4d db 
    f021:	c7 85 ac f7 ff ff dd 	movl   $0xdb4db8dd,-0x854(%rbp)
    f028:	b8 4d db 
    f02b:	c7 85 b0 f7 ff ff dd 	movl   $0xdb4db8dd,-0x850(%rbp)
    f032:	b8 4d db 
    f035:	c7 85 b4 f7 ff ff dd 	movl   $0xdb4db8dd,-0x84c(%rbp)
    f03c:	b8 4d db 
    f03f:	48 8d 85 e0 fa ff ff 	lea    -0x520(%rbp),%rax
    f046:	48 8d 15 b3 17 01 00 	lea    0x117b3(%rip),%rdx        # 20800 <g_3041+0x830>
    f04d:	b9 a2 00 00 00       	mov    $0xa2,%ecx
    f052:	48 89 c7             	mov    %rax,%rdi
    f055:	48 89 d6             	mov    %rdx,%rsi
    f058:	f3 48 a5             	rep movsq %ds:(%rsi),%es:(%rdi)
    f05b:	66 c7 85 56 f7 ff ff 	movw   $0x63ea,-0x8aa(%rbp)
    f062:	ea 63 
    f064:	c7 85 5c f7 ff ff 00 	movl   $0x0,-0x8a4(%rbp)
    f06b:	00 00 00 
    f06e:	48 8d 05 13 36 01 00 	lea    0x13613(%rip),%rax        # 22688 <g_494>
    f075:	48 89 85 60 f7 ff ff 	mov    %rax,-0x8a0(%rbp)
    f07c:	48 8d 85 60 f7 ff ff 	lea    -0x8a0(%rbp),%rax
    f083:	48 89 85 68 f7 ff ff 	mov    %rax,-0x898(%rbp)
    f08a:	48 8d 85 68 f7 ff ff 	lea    -0x898(%rbp),%rax
    f091:	48 89 85 70 f7 ff ff 	mov    %rax,-0x890(%rbp)
    f098:	48 8d 85 c0 f7 ff ff 	lea    -0x840(%rbp),%rax
    f09f:	48 83 c0 18          	add    $0x18,%rax
    f0a3:	48 89 85 78 f7 ff ff 	mov    %rax,-0x888(%rbp)
    f0aa:	48 c7 85 80 f7 ff ff 	movq   $0x0,-0x880(%rbp)
    f0b1:	00 00 00 00 
    f0b5:	48 8d 05 e4 2e 01 00 	lea    0x12ee4(%rip),%rax        # 21fa0 <g_1093>
    f0bc:	48 89 85 88 f7 ff ff 	mov    %rax,-0x878(%rbp)
    f0c3:	c7 85 58 f7 ff ff 00 	movl   $0x0,-0x8a8(%rbp)
    f0ca:	00 00 00 
    f0cd:	eb 1a                	jmp    f0e9 <func_42+0x1cc>
    f0cf:	8b 85 58 f7 ff ff    	mov    -0x8a8(%rbp),%eax
    f0d5:	48 98                	cltq   
    f0d7:	c7 84 85 c0 f7 ff ff 	movl   $0xfffffffc,-0x840(%rbp,%rax,4)
    f0de:	fc ff ff ff 
    f0e2:	83 85 58 f7 ff ff 01 	addl   $0x1,-0x8a8(%rbp)
    f0e9:	83 bd 58 f7 ff ff 06 	cmpl   $0x6,-0x8a8(%rbp)
    f0f0:	7e dd                	jle    f0cf <func_42+0x1b2>
    f0f2:	66 c7 85 4c f7 ff ff 	movw   $0x0,-0x8b4(%rbp)
    f0f9:	00 00 
    f0fb:	e9 77 05 00 00       	jmpq   f677 <func_42+0x75a>
    f100:	48 8d 05 99 ef 00 00 	lea    0xef99(%rip),%rax        # 1e0a0 <g_4+0x10>
    f107:	48 89 85 90 f7 ff ff 	mov    %rax,-0x870(%rbp)
    f10e:	48 8d 05 9f ef 00 00 	lea    0xef9f(%rip),%rax        # 1e0b4 <g_65>
    f115:	48 89 85 98 f7 ff ff 	mov    %rax,-0x868(%rbp)
    f11c:	48 8d 05 c5 ef 00 00 	lea    0xefc5(%rip),%rax        # 1e0e8 <g_67+0x28>
    f123:	48 89 85 20 f8 ff ff 	mov    %rax,-0x7e0(%rbp)
    f12a:	48 8d 05 b7 ef 00 00 	lea    0xefb7(%rip),%rax        # 1e0e8 <g_67+0x28>
    f131:	48 89 85 28 f8 ff ff 	mov    %rax,-0x7d8(%rbp)
    f138:	48 8d 05 a9 ef 00 00 	lea    0xefa9(%rip),%rax        # 1e0e8 <g_67+0x28>
    f13f:	48 89 85 30 f8 ff ff 	mov    %rax,-0x7d0(%rbp)
    f146:	48 8d 05 9b ef 00 00 	lea    0xef9b(%rip),%rax        # 1e0e8 <g_67+0x28>
    f14d:	48 89 85 38 f8 ff ff 	mov    %rax,-0x7c8(%rbp)
    f154:	48 8d 05 75 ef 00 00 	lea    0xef75(%rip),%rax        # 1e0d0 <g_67+0x10>
    f15b:	48 89 85 40 f8 ff ff 	mov    %rax,-0x7c0(%rbp)
    f162:	48 8d 05 67 ef 00 00 	lea    0xef67(%rip),%rax        # 1e0d0 <g_67+0x10>
    f169:	48 89 85 48 f8 ff ff 	mov    %rax,-0x7b8(%rbp)
    f170:	48 8d 05 71 ef 00 00 	lea    0xef71(%rip),%rax        # 1e0e8 <g_67+0x28>
    f177:	48 89 85 50 f8 ff ff 	mov    %rax,-0x7b0(%rbp)
    f17e:	48 8d 05 63 ef 00 00 	lea    0xef63(%rip),%rax        # 1e0e8 <g_67+0x28>
    f185:	48 89 85 58 f8 ff ff 	mov    %rax,-0x7a8(%rbp)
    f18c:	48 8d 05 55 ef 00 00 	lea    0xef55(%rip),%rax        # 1e0e8 <g_67+0x28>
    f193:	48 89 85 60 f8 ff ff 	mov    %rax,-0x7a0(%rbp)
    f19a:	48 8d 05 47 ef 00 00 	lea    0xef47(%rip),%rax        # 1e0e8 <g_67+0x28>
    f1a1:	48 89 85 68 f8 ff ff 	mov    %rax,-0x798(%rbp)
    f1a8:	48 c7 85 70 f8 ff ff 	movq   $0x0,-0x790(%rbp)
    f1af:	00 00 00 00 
    f1b3:	48 8d 05 2e ef 00 00 	lea    0xef2e(%rip),%rax        # 1e0e8 <g_67+0x28>
    f1ba:	48 89 85 78 f8 ff ff 	mov    %rax,-0x788(%rbp)
    f1c1:	48 8d 05 20 ef 00 00 	lea    0xef20(%rip),%rax        # 1e0e8 <g_67+0x28>
    f1c8:	48 89 85 80 f8 ff ff 	mov    %rax,-0x780(%rbp)
    f1cf:	48 c7 85 88 f8 ff ff 	movq   $0x0,-0x778(%rbp)
    f1d6:	00 00 00 00 
    f1da:	48 8d 05 07 ef 00 00 	lea    0xef07(%rip),%rax        # 1e0e8 <g_67+0x28>
    f1e1:	48 89 85 90 f8 ff ff 	mov    %rax,-0x770(%rbp)
    f1e8:	48 8d 05 f9 ee 00 00 	lea    0xeef9(%rip),%rax        # 1e0e8 <g_67+0x28>
    f1ef:	48 89 85 98 f8 ff ff 	mov    %rax,-0x768(%rbp)
    f1f6:	48 8d 05 eb ee 00 00 	lea    0xeeeb(%rip),%rax        # 1e0e8 <g_67+0x28>
    f1fd:	48 89 85 a0 f8 ff ff 	mov    %rax,-0x760(%rbp)
    f204:	48 8d 05 dd ee 00 00 	lea    0xeedd(%rip),%rax        # 1e0e8 <g_67+0x28>
    f20b:	48 89 85 a8 f8 ff ff 	mov    %rax,-0x758(%rbp)
    f212:	48 8d 05 cf ee 00 00 	lea    0xeecf(%rip),%rax        # 1e0e8 <g_67+0x28>
    f219:	48 89 85 b0 f8 ff ff 	mov    %rax,-0x750(%rbp)
    f220:	48 8d 05 a9 ee 00 00 	lea    0xeea9(%rip),%rax        # 1e0d0 <g_67+0x10>
    f227:	48 89 85 b8 f8 ff ff 	mov    %rax,-0x748(%rbp)
    f22e:	48 8d 05 b3 ee 00 00 	lea    0xeeb3(%rip),%rax        # 1e0e8 <g_67+0x28>
    f235:	48 89 85 c0 f8 ff ff 	mov    %rax,-0x740(%rbp)
    f23c:	48 8d 05 a5 ee 00 00 	lea    0xeea5(%rip),%rax        # 1e0e8 <g_67+0x28>
    f243:	48 89 85 c8 f8 ff ff 	mov    %rax,-0x738(%rbp)
    f24a:	48 8d 05 97 ee 00 00 	lea    0xee97(%rip),%rax        # 1e0e8 <g_67+0x28>
    f251:	48 89 85 d0 f8 ff ff 	mov    %rax,-0x730(%rbp)
    f258:	48 8d 05 89 ee 00 00 	lea    0xee89(%rip),%rax        # 1e0e8 <g_67+0x28>
    f25f:	48 89 85 d8 f8 ff ff 	mov    %rax,-0x728(%rbp)
    f266:	48 8d 05 7b ee 00 00 	lea    0xee7b(%rip),%rax        # 1e0e8 <g_67+0x28>
    f26d:	48 89 85 e0 f8 ff ff 	mov    %rax,-0x720(%rbp)
    f274:	48 8d 05 6d ee 00 00 	lea    0xee6d(%rip),%rax        # 1e0e8 <g_67+0x28>
    f27b:	48 89 85 e8 f8 ff ff 	mov    %rax,-0x718(%rbp)
    f282:	48 8d 05 5f ee 00 00 	lea    0xee5f(%rip),%rax        # 1e0e8 <g_67+0x28>
    f289:	48 89 85 f0 f8 ff ff 	mov    %rax,-0x710(%rbp)
    f290:	48 8d 05 51 ee 00 00 	lea    0xee51(%rip),%rax        # 1e0e8 <g_67+0x28>
    f297:	48 89 85 f8 f8 ff ff 	mov    %rax,-0x708(%rbp)
    f29e:	48 8d 05 2b ee 00 00 	lea    0xee2b(%rip),%rax        # 1e0d0 <g_67+0x10>
    f2a5:	48 89 85 00 f9 ff ff 	mov    %rax,-0x700(%rbp)
    f2ac:	48 8d 05 35 ee 00 00 	lea    0xee35(%rip),%rax        # 1e0e8 <g_67+0x28>
    f2b3:	48 89 85 08 f9 ff ff 	mov    %rax,-0x6f8(%rbp)
    f2ba:	48 8d 05 27 ee 00 00 	lea    0xee27(%rip),%rax        # 1e0e8 <g_67+0x28>
    f2c1:	48 89 85 10 f9 ff ff 	mov    %rax,-0x6f0(%rbp)
    f2c8:	48 8d 05 19 ee 00 00 	lea    0xee19(%rip),%rax        # 1e0e8 <g_67+0x28>
    f2cf:	48 89 85 18 f9 ff ff 	mov    %rax,-0x6e8(%rbp)
    f2d6:	48 8d 85 e0 f7 ff ff 	lea    -0x820(%rbp),%rax
    f2dd:	48 83 c0 0a          	add    $0xa,%rax
    f2e1:	48 89 85 20 f9 ff ff 	mov    %rax,-0x6e0(%rbp)
    f2e8:	48 8d 85 e0 f7 ff ff 	lea    -0x820(%rbp),%rax
    f2ef:	48 83 c0 0a          	add    $0xa,%rax
    f2f3:	48 89 85 28 f9 ff ff 	mov    %rax,-0x6d8(%rbp)
    f2fa:	48 8d 85 e0 f7 ff ff 	lea    -0x820(%rbp),%rax
    f301:	48 83 c0 02          	add    $0x2,%rax
    f305:	48 89 85 30 f9 ff ff 	mov    %rax,-0x6d0(%rbp)
    f30c:	48 c7 85 38 f9 ff ff 	movq   $0x0,-0x6c8(%rbp)
    f313:	00 00 00 00 
    f317:	48 8d 85 e0 f7 ff ff 	lea    -0x820(%rbp),%rax
    f31e:	48 83 c0 0a          	add    $0xa,%rax
    f322:	48 89 85 40 f9 ff ff 	mov    %rax,-0x6c0(%rbp)
    f329:	48 8d 85 e0 f7 ff ff 	lea    -0x820(%rbp),%rax
    f330:	48 83 c0 38          	add    $0x38,%rax
    f334:	48 89 85 48 f9 ff ff 	mov    %rax,-0x6b8(%rbp)
    f33b:	48 c7 85 50 f9 ff ff 	movq   $0x0,-0x6b0(%rbp)
    f342:	00 00 00 00 
    f346:	48 c7 85 58 f9 ff ff 	movq   $0x0,-0x6a8(%rbp)
    f34d:	00 00 00 00 
    f351:	48 8d 85 e0 f7 ff ff 	lea    -0x820(%rbp),%rax
    f358:	48 83 c0 38          	add    $0x38,%rax
    f35c:	48 89 85 60 f9 ff ff 	mov    %rax,-0x6a0(%rbp)
    f363:	48 8d 85 e0 f7 ff ff 	lea    -0x820(%rbp),%rax
    f36a:	48 83 c0 0a          	add    $0xa,%rax
    f36e:	48 89 85 68 f9 ff ff 	mov    %rax,-0x698(%rbp)
    f375:	48 8d 85 e0 f7 ff ff 	lea    -0x820(%rbp),%rax
    f37c:	48 83 c0 38          	add    $0x38,%rax
    f380:	48 89 85 70 f9 ff ff 	mov    %rax,-0x690(%rbp)
    f387:	48 8d 85 e0 f7 ff ff 	lea    -0x820(%rbp),%rax
    f38e:	48 83 c0 38          	add    $0x38,%rax
    f392:	48 89 85 78 f9 ff ff 	mov    %rax,-0x688(%rbp)
    f399:	48 8d 85 e0 f7 ff ff 	lea    -0x820(%rbp),%rax
    f3a0:	48 83 c0 0a          	add    $0xa,%rax
    f3a4:	48 89 85 80 f9 ff ff 	mov    %rax,-0x680(%rbp)
    f3ab:	48 8d 85 e0 f7 ff ff 	lea    -0x820(%rbp),%rax
    f3b2:	48 83 c0 38          	add    $0x38,%rax
    f3b6:	48 89 85 88 f9 ff ff 	mov    %rax,-0x678(%rbp)
    f3bd:	48 8d 85 e0 f7 ff ff 	lea    -0x820(%rbp),%rax
    f3c4:	48 83 c0 38          	add    $0x38,%rax
    f3c8:	48 89 85 90 f9 ff ff 	mov    %rax,-0x670(%rbp)
    f3cf:	48 c7 85 98 f9 ff ff 	movq   $0x0,-0x668(%rbp)
    f3d6:	00 00 00 00 
    f3da:	48 8d 85 e0 f7 ff ff 	lea    -0x820(%rbp),%rax
    f3e1:	48 83 c0 0a          	add    $0xa,%rax
    f3e5:	48 89 85 a0 f9 ff ff 	mov    %rax,-0x660(%rbp)
    f3ec:	48 8d 85 e0 f7 ff ff 	lea    -0x820(%rbp),%rax
    f3f3:	48 83 c0 38          	add    $0x38,%rax
    f3f7:	48 89 85 a8 f9 ff ff 	mov    %rax,-0x658(%rbp)
    f3fe:	48 8d 85 e0 f7 ff ff 	lea    -0x820(%rbp),%rax
    f405:	48 83 c0 38          	add    $0x38,%rax
    f409:	48 89 85 b0 f9 ff ff 	mov    %rax,-0x650(%rbp)
    f410:	48 c7 85 b8 f9 ff ff 	movq   $0x0,-0x648(%rbp)
    f417:	00 00 00 00 
    f41b:	48 8d 85 e0 f7 ff ff 	lea    -0x820(%rbp),%rax
    f422:	48 83 c0 38          	add    $0x38,%rax
    f426:	48 89 85 c0 f9 ff ff 	mov    %rax,-0x640(%rbp)
    f42d:	48 8d 85 e0 f7 ff ff 	lea    -0x820(%rbp),%rax
    f434:	48 83 c0 38          	add    $0x38,%rax
    f438:	48 89 85 c8 f9 ff ff 	mov    %rax,-0x638(%rbp)
    f43f:	48 c7 85 d0 f9 ff ff 	movq   $0x0,-0x630(%rbp)
    f446:	00 00 00 00 
    f44a:	48 8d 85 e0 f7 ff ff 	lea    -0x820(%rbp),%rax
    f451:	48 83 c0 38          	add    $0x38,%rax
    f455:	48 89 85 d8 f9 ff ff 	mov    %rax,-0x628(%rbp)
    f45c:	48 8d 85 e0 f7 ff ff 	lea    -0x820(%rbp),%rax
    f463:	48 83 c0 0a          	add    $0xa,%rax
    f467:	48 89 85 e0 f9 ff ff 	mov    %rax,-0x620(%rbp)
    f46e:	48 8d 85 e0 f7 ff ff 	lea    -0x820(%rbp),%rax
    f475:	48 83 c0 0a          	add    $0xa,%rax
    f479:	48 89 85 e8 f9 ff ff 	mov    %rax,-0x618(%rbp)
    f480:	48 8d 85 e0 f7 ff ff 	lea    -0x820(%rbp),%rax
    f487:	48 83 c0 02          	add    $0x2,%rax
    f48b:	48 89 85 f0 f9 ff ff 	mov    %rax,-0x610(%rbp)
    f492:	48 c7 85 f8 f9 ff ff 	movq   $0x0,-0x608(%rbp)
    f499:	00 00 00 00 
    f49d:	48 8d 85 e0 f7 ff ff 	lea    -0x820(%rbp),%rax
    f4a4:	48 83 c0 0a          	add    $0xa,%rax
    f4a8:	48 89 85 00 fa ff ff 	mov    %rax,-0x600(%rbp)
    f4af:	48 8d 85 e0 f7 ff ff 	lea    -0x820(%rbp),%rax
    f4b6:	48 83 c0 38          	add    $0x38,%rax
    f4ba:	48 89 85 08 fa ff ff 	mov    %rax,-0x5f8(%rbp)
    f4c1:	48 c7 85 10 fa ff ff 	movq   $0x0,-0x5f0(%rbp)
    f4c8:	00 00 00 00 
    f4cc:	48 c7 85 18 fa ff ff 	movq   $0x0,-0x5e8(%rbp)
    f4d3:	00 00 00 00 
    f4d7:	48 8d 85 e0 f7 ff ff 	lea    -0x820(%rbp),%rax
    f4de:	48 83 c0 38          	add    $0x38,%rax
    f4e2:	48 89 85 20 fa ff ff 	mov    %rax,-0x5e0(%rbp)
    f4e9:	48 8d 85 e0 f7 ff ff 	lea    -0x820(%rbp),%rax
    f4f0:	48 83 c0 0a          	add    $0xa,%rax
    f4f4:	48 89 85 28 fa ff ff 	mov    %rax,-0x5d8(%rbp)
    f4fb:	48 8d 85 e0 f7 ff ff 	lea    -0x820(%rbp),%rax
    f502:	48 83 c0 38          	add    $0x38,%rax
    f506:	48 89 85 30 fa ff ff 	mov    %rax,-0x5d0(%rbp)
    f50d:	48 8d 85 e0 f7 ff ff 	lea    -0x820(%rbp),%rax
    f514:	48 83 c0 38          	add    $0x38,%rax
    f518:	48 89 85 38 fa ff ff 	mov    %rax,-0x5c8(%rbp)
    f51f:	48 8d 85 e0 f7 ff ff 	lea    -0x820(%rbp),%rax
    f526:	48 83 c0 0a          	add    $0xa,%rax
    f52a:	48 89 85 40 fa ff ff 	mov    %rax,-0x5c0(%rbp)
    f531:	48 8d 85 e0 f7 ff ff 	lea    -0x820(%rbp),%rax
    f538:	48 83 c0 38          	add    $0x38,%rax
    f53c:	48 89 85 48 fa ff ff 	mov    %rax,-0x5b8(%rbp)
    f543:	48 8d 85 e0 f7 ff ff 	lea    -0x820(%rbp),%rax
    f54a:	48 83 c0 38          	add    $0x38,%rax
    f54e:	48 89 85 50 fa ff ff 	mov    %rax,-0x5b0(%rbp)
    f555:	48 c7 85 58 fa ff ff 	movq   $0x0,-0x5a8(%rbp)
    f55c:	00 00 00 00 
    f560:	48 8d 85 e0 f7 ff ff 	lea    -0x820(%rbp),%rax
    f567:	48 83 c0 0a          	add    $0xa,%rax
    f56b:	48 89 85 60 fa ff ff 	mov    %rax,-0x5a0(%rbp)
    f572:	48 8d 85 e0 f7 ff ff 	lea    -0x820(%rbp),%rax
    f579:	48 83 c0 38          	add    $0x38,%rax
    f57d:	48 89 85 68 fa ff ff 	mov    %rax,-0x598(%rbp)
    f584:	48 8d 85 e0 f7 ff ff 	lea    -0x820(%rbp),%rax
    f58b:	48 83 c0 38          	add    $0x38,%rax
    f58f:	48 89 85 70 fa ff ff 	mov    %rax,-0x590(%rbp)
    f596:	48 c7 85 78 fa ff ff 	movq   $0x0,-0x588(%rbp)
    f59d:	00 00 00 00 
    f5a1:	48 8d 85 e0 f7 ff ff 	lea    -0x820(%rbp),%rax
    f5a8:	48 83 c0 38          	add    $0x38,%rax
    f5ac:	48 89 85 80 fa ff ff 	mov    %rax,-0x580(%rbp)
    f5b3:	48 8d 85 e0 f7 ff ff 	lea    -0x820(%rbp),%rax
    f5ba:	48 83 c0 38          	add    $0x38,%rax
    f5be:	48 89 85 88 fa ff ff 	mov    %rax,-0x578(%rbp)
    f5c5:	48 c7 85 90 fa ff ff 	movq   $0x0,-0x570(%rbp)
    f5cc:	00 00 00 00 
    f5d0:	48 8d 85 e0 f7 ff ff 	lea    -0x820(%rbp),%rax
    f5d7:	48 83 c0 38          	add    $0x38,%rax
    f5db:	48 89 85 98 fa ff ff 	mov    %rax,-0x568(%rbp)
    f5e2:	48 8d 85 e0 f7 ff ff 	lea    -0x820(%rbp),%rax
    f5e9:	48 83 c0 0a          	add    $0xa,%rax
    f5ed:	48 89 85 a0 fa ff ff 	mov    %rax,-0x560(%rbp)
    f5f4:	48 8d 85 e0 f7 ff ff 	lea    -0x820(%rbp),%rax
    f5fb:	48 83 c0 0a          	add    $0xa,%rax
    f5ff:	48 89 85 a8 fa ff ff 	mov    %rax,-0x558(%rbp)
    f606:	48 8d 85 e0 f7 ff ff 	lea    -0x820(%rbp),%rax
    f60d:	48 83 c0 02          	add    $0x2,%rax
    f611:	48 89 85 b0 fa ff ff 	mov    %rax,-0x550(%rbp)
    f618:	48 c7 85 b8 fa ff ff 	movq   $0x0,-0x548(%rbp)
    f61f:	00 00 00 00 
    f623:	48 8d 85 e0 f7 ff ff 	lea    -0x820(%rbp),%rax
    f62a:	48 83 c0 0a          	add    $0xa,%rax
    f62e:	48 89 85 c0 fa ff ff 	mov    %rax,-0x540(%rbp)
    f635:	48 8d 85 e0 f7 ff ff 	lea    -0x820(%rbp),%rax
    f63c:	48 83 c0 38          	add    $0x38,%rax
    f640:	48 89 85 c8 fa ff ff 	mov    %rax,-0x538(%rbp)
    f647:	48 c7 85 d0 fa ff ff 	movq   $0x0,-0x530(%rbp)
    f64e:	00 00 00 00 
    f652:	48 c7 85 d8 fa ff ff 	movq   $0x0,-0x528(%rbp)
    f659:	00 00 00 00 
    f65d:	0f b7 85 4c f7 ff ff 	movzwl -0x8b4(%rbp),%eax
    f664:	be 07 00 00 00       	mov    $0x7,%esi
    f669:	89 c7                	mov    %eax,%edi
    f66b:	e8 8f 76 ff ff       	callq  6cff <safe_add_func_uint16_t_u_u>
    f670:	66 89 85 4c f7 ff ff 	mov    %ax,-0x8b4(%rbp)
    f677:	66 83 bd 4c f7 ff ff 	cmpw   $0x14,-0x8b4(%rbp)
    f67e:	14 
    f67f:	0f 85 7b fa ff ff    	jne    f100 <func_42+0x1e3>
    f685:	0f b7 85 4c f7 ff ff 	movzwl -0x8b4(%rbp),%eax
    f68c:	48 8b 4d f8          	mov    -0x8(%rbp),%rcx
    f690:	64 48 33 0c 25 28 00 	xor    %fs:0x28,%rcx
    f697:	00 00 
    f699:	74 05                	je     f6a0 <func_42+0x783>
    f69b:	e8 d0 69 ff ff       	callq  6070 <__stack_chk_fail@plt>
    f6a0:	c9                   	leaveq 
    f6a1:	c3                   	retq   

000000000000f6a2 <func_55>:
    f6a2:	f3 0f 1e fa          	endbr64 
    f6a6:	55                   	push   %rbp
    f6a7:	48 89 e5             	mov    %rsp,%rbp
    f6aa:	48 83 ec 60          	sub    $0x60,%rsp
    f6ae:	48 89 7d a8          	mov    %rdi,-0x58(%rbp)
    f6b2:	64 48 8b 04 25 28 00 	mov    %fs:0x28,%rax
    f6b9:	00 00 
    f6bb:	48 89 45 f8          	mov    %rax,-0x8(%rbp)
    f6bf:	31 c0                	xor    %eax,%eax
    f6c1:	c7 45 bc fa ff ff ff 	movl   $0xfffffffa,-0x44(%rbp)
    f6c8:	48 8d 05 e9 eb 00 00 	lea    0xebe9(%rip),%rax        # 1e2b8 <g_86+0x8>
    f6cf:	48 89 45 c0          	mov    %rax,-0x40(%rbp)
    f6d3:	48 8d 05 da eb 00 00 	lea    0xebda(%rip),%rax        # 1e2b4 <g_86+0x4>
    f6da:	48 89 45 c8          	mov    %rax,-0x38(%rbp)
    f6de:	48 8d 05 d3 eb 00 00 	lea    0xebd3(%rip),%rax        # 1e2b8 <g_86+0x8>
    f6e5:	48 89 45 d0          	mov    %rax,-0x30(%rbp)
    f6e9:	48 8d 05 c4 eb 00 00 	lea    0xebc4(%rip),%rax        # 1e2b4 <g_86+0x4>
    f6f0:	48 89 45 d8          	mov    %rax,-0x28(%rbp)
    f6f4:	48 8d 05 bd eb 00 00 	lea    0xebbd(%rip),%rax        # 1e2b8 <g_86+0x8>
    f6fb:	48 89 45 e0          	mov    %rax,-0x20(%rbp)
    f6ff:	48 8d 05 ae eb 00 00 	lea    0xebae(%rip),%rax        # 1e2b4 <g_86+0x4>
    f706:	48 89 45 e8          	mov    %rax,-0x18(%rbp)
    f70a:	48 8d 05 a7 eb 00 00 	lea    0xeba7(%rip),%rax        # 1e2b8 <g_86+0x8>
    f711:	48 89 45 f0          	mov    %rax,-0x10(%rbp)
    f715:	8b 45 bc             	mov    -0x44(%rbp),%eax
    f718:	48 63 d0             	movslq %eax,%rdx
    f71b:	48 8b 05 a6 27 01 00 	mov    0x127a6(%rip),%rax        # 21ec8 <g_289>
    f722:	48 8b 00             	mov    (%rax),%rax
    f725:	48 39 c2             	cmp    %rax,%rdx
    f728:	0f 92 c2             	setb   %dl
    f72b:	48 8b 05 8e 27 01 00 	mov    0x1278e(%rip),%rax        # 21ec0 <g_221>
    f732:	0f b6 d2             	movzbl %dl,%edx
    f735:	89 10                	mov    %edx,(%rax)
    f737:	48 8b 05 02 28 01 00 	mov    0x12802(%rip),%rax        # 21f40 <g_669>
    f73e:	48 8b 55 a8          	mov    -0x58(%rbp),%rdx
    f742:	48 89 10             	mov    %rdx,(%rax)
    f745:	48 8b 45 a8          	mov    -0x58(%rbp),%rax
    f749:	48 8b 4d f8          	mov    -0x8(%rbp),%rcx
    f74d:	64 48 33 0c 25 28 00 	xor    %fs:0x28,%rcx
    f754:	00 00 
    f756:	74 05                	je     f75d <func_55+0xbb>
    f758:	e8 13 69 ff ff       	callq  6070 <__stack_chk_fail@plt>
    f75d:	c9                   	leaveq 
    f75e:	c3                   	retq   

000000000000f75f <func_57>:
    f75f:	f3 0f 1e fa          	endbr64 
    f763:	55                   	push   %rbp
    f764:	48 89 e5             	mov    %rsp,%rbp
    f767:	41 57                	push   %r15
    f769:	41 56                	push   %r14
    f76b:	41 55                	push   %r13
    f76d:	41 54                	push   %r12
    f76f:	53                   	push   %rbx
    f770:	48 81 ec 00 10 00 00 	sub    $0x1000,%rsp
    f777:	48 83 0c 24 00       	orq    $0x0,(%rsp)
    f77c:	48 81 ec 98 01 00 00 	sub    $0x198,%rsp
    f783:	48 89 bd 58 ee ff ff 	mov    %rdi,-0x11a8(%rbp)
    f78a:	89 b5 54 ee ff ff    	mov    %esi,-0x11ac(%rbp)
    f790:	48 89 95 48 ee ff ff 	mov    %rdx,-0x11b8(%rbp)
    f797:	89 c8                	mov    %ecx,%eax
    f799:	44 89 85 44 ee ff ff 	mov    %r8d,-0x11bc(%rbp)
    f7a0:	88 85 50 ee ff ff    	mov    %al,-0x11b0(%rbp)
    f7a6:	64 48 8b 04 25 28 00 	mov    %fs:0x28,%rax
    f7ad:	00 00 
    f7af:	48 89 45 c8          	mov    %rax,-0x38(%rbp)
    f7b3:	31 c0                	xor    %eax,%eax
    f7b5:	c7 85 74 ee ff ff 01 	movl   $0x1,-0x118c(%rbp)
    f7bc:	00 00 00 
    f7bf:	c7 85 78 ee ff ff 00 	movl   $0x0,-0x1188(%rbp)
    f7c6:	00 00 00 
    f7c9:	c7 85 7c ee ff ff 02 	movl   $0x2,-0x1184(%rbp)
    f7d0:	00 00 00 
    f7d3:	c7 85 50 f1 ff ff 56 	movl   $0xeed7d256,-0xeb0(%rbp)
    f7da:	d2 d7 ee 
    f7dd:	c7 85 54 f1 ff ff 56 	movl   $0xeed7d256,-0xeac(%rbp)
    f7e4:	d2 d7 ee 
    f7e7:	c7 85 58 f1 ff ff 6f 	movl   $0x2fd70e6f,-0xea8(%rbp)
    f7ee:	0e d7 2f 
    f7f1:	c7 85 5c f1 ff ff 56 	movl   $0xeed7d256,-0xea4(%rbp)
    f7f8:	d2 d7 ee 
    f7fb:	c7 85 60 f1 ff ff 01 	movl   $0x1,-0xea0(%rbp)
    f802:	00 00 00 
    f805:	c7 85 64 f1 ff ff 56 	movl   $0xeed7d256,-0xe9c(%rbp)
    f80c:	d2 d7 ee 
    f80f:	c7 85 68 f1 ff ff 01 	movl   $0x1,-0xe98(%rbp)
    f816:	00 00 00 
    f819:	c7 85 6c f1 ff ff 01 	movl   $0x1,-0xe94(%rbp)
    f820:	00 00 00 
    f823:	c7 85 70 f1 ff ff 56 	movl   $0xeed7d256,-0xe90(%rbp)
    f82a:	d2 d7 ee 
    f82d:	66 c7 85 66 ee ff ff 	movw   $0x8,-0x119a(%rbp)
    f834:	08 00 
    f836:	48 8d 05 73 ea 00 00 	lea    0xea73(%rip),%rax        # 1e2b0 <g_86>
    f83d:	48 89 85 40 ef ff ff 	mov    %rax,-0x10c0(%rbp)
    f844:	48 8d 05 65 e8 00 00 	lea    0xe865(%rip),%rax        # 1e0b0 <g_49>
    f84b:	48 89 85 48 ef ff ff 	mov    %rax,-0x10b8(%rbp)
    f852:	48 8d 05 96 ea 00 00 	lea    0xea96(%rip),%rax        # 1e2ef <g_176+0xf>
    f859:	48 89 85 08 f0 ff ff 	mov    %rax,-0xff8(%rbp)
    f860:	66 c7 85 68 ee ff ff 	movw   $0xfff9,-0x1198(%rbp)
    f867:	f9 ff 
    f869:	48 8d 05 38 eb 00 00 	lea    0xeb38(%rip),%rax        # 1e3a8 <g_290>
    f870:	48 89 85 10 f0 ff ff 	mov    %rax,-0xff0(%rbp)
    f877:	c7 85 80 ee ff ff fa 	movl   $0xfffffffa,-0x1180(%rbp)
    f87e:	ff ff ff 
    f881:	48 b8 4c a9 6a 68 ee 	movabs $0xe9956cee686aa94c,%rax
    f888:	6c 95 e9 
    f88b:	48 89 85 80 f1 ff ff 	mov    %rax,-0xe80(%rbp)
    f892:	48 89 85 88 f1 ff ff 	mov    %rax,-0xe78(%rbp)
    f899:	48 89 85 90 f1 ff ff 	mov    %rax,-0xe70(%rbp)
    f8a0:	48 89 85 98 f1 ff ff 	mov    %rax,-0xe68(%rbp)
    f8a7:	48 89 85 a0 f1 ff ff 	mov    %rax,-0xe60(%rbp)
    f8ae:	48 89 85 a8 f1 ff ff 	mov    %rax,-0xe58(%rbp)
    f8b5:	48 89 85 b0 f1 ff ff 	mov    %rax,-0xe50(%rbp)
    f8bc:	48 89 85 b8 f1 ff ff 	mov    %rax,-0xe48(%rbp)
    f8c3:	48 89 85 c0 f1 ff ff 	mov    %rax,-0xe40(%rbp)
    f8ca:	66 c7 85 6a ee ff ff 	movw   $0x7f44,-0x1196(%rbp)
    f8d1:	44 7f 
    f8d3:	48 8d 05 a1 2d 01 00 	lea    0x12da1(%rip),%rax        # 2267b <g_293+0x3>
    f8da:	48 89 85 50 ef ff ff 	mov    %rax,-0x10b0(%rbp)
    f8e1:	48 8d 85 50 ef ff ff 	lea    -0x10b0(%rbp),%rax
    f8e8:	48 89 85 58 ef ff ff 	mov    %rax,-0x10a8(%rbp)
    f8ef:	48 8d 85 58 ef ff ff 	lea    -0x10a8(%rbp),%rax
    f8f6:	48 89 85 60 ef ff ff 	mov    %rax,-0x10a0(%rbp)
    f8fd:	48 8d 05 ac e9 00 00 	lea    0xe9ac(%rip),%rax        # 1e2b0 <g_86>
    f904:	48 89 85 18 f0 ff ff 	mov    %rax,-0xfe8(%rbp)
    f90b:	c7 85 84 ee ff ff 7b 	movl   $0xb229a7b,-0x117c(%rbp)
    f912:	9a 22 0b 
    f915:	66 c7 85 70 ee ff ff 	movw   $0xfff6,-0x1190(%rbp)
    f91c:	f6 ff 
    f91e:	c7 85 1c ef ff ff f8 	movl   $0x1f75faf8,-0x10e4(%rbp)
    f925:	fa 75 1f 
    f928:	48 8d 85 80 f1 ff ff 	lea    -0xe80(%rbp),%rax
    f92f:	48 83 c0 40          	add    $0x40,%rax
    f933:	48 89 85 f0 ef ff ff 	mov    %rax,-0x1010(%rbp)
    f93a:	48 8d 05 0f 1c 01 00 	lea    0x11c0f(%rip),%rax        # 21550 <g_106+0x30>
    f941:	48 89 85 68 ef ff ff 	mov    %rax,-0x1098(%rbp)
    f948:	48 8d 05 19 2d 01 00 	lea    0x12d19(%rip),%rax        # 22668 <g_75>
    f94f:	48 89 85 f8 ef ff ff 	mov    %rax,-0x1008(%rbp)
    f956:	c7 85 20 ef ff ff 03 	movl   $0x3,-0x10e0(%rbp)
    f95d:	00 00 00 
    f960:	c7 85 88 ee ff ff e8 	movl   $0xfb70dde8,-0x1178(%rbp)
    f967:	dd 70 fb 
    f96a:	48 8d 05 43 e7 00 00 	lea    0xe743(%rip),%rax        # 1e0b4 <g_65>
    f971:	48 89 85 70 ef ff ff 	mov    %rax,-0x1090(%rbp)
    f978:	48 8d 85 70 ef ff ff 	lea    -0x1090(%rbp),%rax
    f97f:	48 89 85 00 f0 ff ff 	mov    %rax,-0x1000(%rbp)
    f986:	c7 85 24 ef ff ff db 	movl   $0xe444b4db,-0x10dc(%rbp)
    f98d:	b4 44 e4 
    f990:	c6 85 64 ee ff ff f6 	movb   $0xf6,-0x119c(%rbp)
    f997:	48 8d 85 48 ef ff ff 	lea    -0x10b8(%rbp),%rax
    f99e:	48 89 85 e0 ef ff ff 	mov    %rax,-0x1020(%rbp)
    f9a5:	48 8d 05 ec 2c 01 00 	lea    0x12cec(%rip),%rax        # 22698 <g_622>
    f9ac:	48 89 85 e8 ef ff ff 	mov    %rax,-0x1018(%rbp)
    f9b3:	c7 85 18 ef ff ff bd 	movl   $0xa31cdbd,-0x10e8(%rbp)
    f9ba:	cd 31 0a 
    f9bd:	48 8d 85 7c ee ff ff 	lea    -0x1184(%rbp),%rax
    f9c4:	48 89 85 20 f2 ff ff 	mov    %rax,-0xde0(%rbp)
    f9cb:	48 8d 05 de e8 00 00 	lea    0xe8de(%rip),%rax        # 1e2b0 <g_86>
    f9d2:	48 89 85 28 f2 ff ff 	mov    %rax,-0xdd8(%rbp)
    f9d9:	48 8d 85 7c ee ff ff 	lea    -0x1184(%rbp),%rax
    f9e0:	48 89 85 30 f2 ff ff 	mov    %rax,-0xdd0(%rbp)
    f9e7:	48 c7 85 38 f2 ff ff 	movq   $0x0,-0xdc8(%rbp)
    f9ee:	00 00 00 00 
    f9f2:	48 c7 85 40 f2 ff ff 	movq   $0x0,-0xdc0(%rbp)
    f9f9:	00 00 00 00 
    f9fd:	48 c7 85 48 f2 ff ff 	movq   $0x0,-0xdb8(%rbp)
    fa04:	00 00 00 00 
    fa08:	48 8d 85 7c ee ff ff 	lea    -0x1184(%rbp),%rax
    fa0f:	48 89 85 50 f2 ff ff 	mov    %rax,-0xdb0(%rbp)
    fa16:	48 8d 05 93 e8 00 00 	lea    0xe893(%rip),%rax        # 1e2b0 <g_86>
    fa1d:	48 89 85 58 f2 ff ff 	mov    %rax,-0xda8(%rbp)
    fa24:	48 8d 85 7c ee ff ff 	lea    -0x1184(%rbp),%rax
    fa2b:	48 89 85 60 f2 ff ff 	mov    %rax,-0xda0(%rbp)
    fa32:	48 c7 85 68 f2 ff ff 	movq   $0x0,-0xd98(%rbp)
    fa39:	00 00 00 00 
    fa3d:	48 c7 85 70 f2 ff ff 	movq   $0x0,-0xd90(%rbp)
    fa44:	00 00 00 00 
    fa48:	48 c7 85 78 f2 ff ff 	movq   $0x0,-0xd88(%rbp)
    fa4f:	00 00 00 00 
    fa53:	48 c7 85 d8 ef ff ff 	movq   $0x0,-0x1028(%rbp)
    fa5a:	00 00 00 00 
    fa5e:	c7 85 14 ef ff ff 00 	movl   $0x0,-0x10ec(%rbp)
    fa65:	00 00 00 
    fa68:	eb 21                	jmp    fa8b <func_57+0x32c>
    fa6a:	8b 85 14 ef ff ff    	mov    -0x10ec(%rbp),%eax
    fa70:	48 98                	cltq   
    fa72:	48 bb da 55 13 98 cf 	movabs $0xf785d6cf981355da,%rbx
    fa79:	d6 85 f7 
    fa7c:	48 89 9c c5 b0 f0 ff 	mov    %rbx,-0xf50(%rbp,%rax,8)
    fa83:	ff 
    fa84:	83 85 14 ef ff ff 01 	addl   $0x1,-0x10ec(%rbp)
    fa8b:	83 bd 14 ef ff ff 01 	cmpl   $0x1,-0x10ec(%rbp)
    fa92:	7e d6                	jle    fa6a <func_57+0x30b>
    fa94:	c7 85 14 ef ff ff 00 	movl   $0x0,-0x10ec(%rbp)
    fa9b:	00 00 00 
    fa9e:	eb 1e                	jmp    fabe <func_57+0x35f>
    faa0:	8b 85 14 ef ff ff    	mov    -0x10ec(%rbp),%eax
    faa6:	48 98                	cltq   
    faa8:	48 8d 15 79 24 01 00 	lea    0x12479(%rip),%rdx        # 21f28 <g_361>
    faaf:	48 89 94 c5 c0 f0 ff 	mov    %rdx,-0xf40(%rbp,%rax,8)
    fab6:	ff 
    fab7:	83 85 14 ef ff ff 01 	addl   $0x1,-0x10ec(%rbp)
    fabe:	83 bd 14 ef ff ff 01 	cmpl   $0x1,-0x10ec(%rbp)
    fac5:	7e d9                	jle    faa0 <func_57+0x341>
    fac7:	48 8b 85 b8 f0 ff ff 	mov    -0xf48(%rbp),%rax
    face:	48 85 c0             	test   %rax,%rax
    fad1:	0f 84 ea 11 00 00    	je     10cc1 <func_57+0x1562>
    fad7:	c7 85 ac ee ff ff 01 	movl   $0x1,-0x1154(%rbp)
    fade:	00 00 00 
    fae1:	c7 85 8c ee ff ff ff 	movl   $0xffffffff,-0x1174(%rbp)
    fae8:	ff ff ff 
    faeb:	c7 85 04 ef ff ff 28 	movl   $0x79b81428,-0x10fc(%rbp)
    faf2:	14 b8 79 
    faf5:	c7 85 80 ef ff ff b8 	movl   $0xb66984b8,-0x1080(%rbp)
    fafc:	84 69 b6 
    faff:	c7 85 08 ef ff ff ff 	movl   $0xffffffff,-0x10f8(%rbp)
    fb06:	ff ff ff 
    fb09:	c7 85 0c ef ff ff 09 	movl   $0x9,-0x10f4(%rbp)
    fb10:	00 00 00 
    fb13:	c7 85 10 ef ff ff fe 	movl   $0xfffffffe,-0x10f0(%rbp)
    fb1a:	ff ff ff 
    fb1d:	48 8d 85 70 f4 ff ff 	lea    -0xb90(%rbp),%rax
    fb24:	48 8d 15 35 9c 00 00 	lea    0x9c35(%rip),%rdx        # 19760 <g_764+0x1700>
    fb2b:	b9 32 00 00 00       	mov    $0x32,%ecx
    fb30:	48 89 c7             	mov    %rax,%rdi
    fb33:	48 89 d6             	mov    %rdx,%rsi
    fb36:	f3 48 a5             	rep movsq %ds:(%rsi),%es:(%rdi)
    fb39:	48 8d 05 2a 2b 01 00 	lea    0x12b2a(%rip),%rax        # 2266a <g_146>
    fb40:	48 89 85 c0 ef ff ff 	mov    %rax,-0x1040(%rbp)
    fb47:	66 c7 85 6e ee ff ff 	movw   $0x8,-0x1192(%rbp)
    fb4e:	08 00 
    fb50:	c7 85 80 f2 ff ff 24 	movl   $0x1f30124,-0xd80(%rbp)
    fb57:	01 f3 01 
    fb5a:	c7 85 84 f2 ff ff 01 	movl   $0x101f201,-0xd7c(%rbp)
    fb61:	f2 01 01 
    fb64:	c7 85 88 f2 ff ff f3 	movl   $0xf82401f3,-0xd78(%rbp)
    fb6b:	01 24 f8 
    fb6e:	c7 85 8c f2 ff ff f8 	movl   $0x1dd09f8,-0xd74(%rbp)
    fb75:	09 dd 01 
    fb78:	c7 85 90 f2 ff ff df 	movl   $0x50dd36df,-0xd70(%rbp)
    fb7f:	36 dd 50 
    fb82:	c7 85 94 f2 ff ff f8 	movl   $0x92416f8,-0xd6c(%rbp)
    fb89:	16 24 09 
    fb8c:	c7 85 98 f2 ff ff f3 	movl   $0x810181f3,-0xd68(%rbp)
    fb93:	81 01 81 
    fb96:	c7 85 9c f2 ff ff 01 	movl   $0x9f38101,-0xd64(%rbp)
    fb9d:	81 f3 09 
    fba0:	c7 85 a0 f2 ff ff 24 	movl   $0x50f81624,-0xd60(%rbp)
    fba7:	16 f8 50 
    fbaa:	c7 85 a4 f2 ff ff dd 	movl   $0x1df36dd,-0xd5c(%rbp)
    fbb1:	36 df 01 
    fbb4:	c7 85 a8 f2 ff ff dd 	movl   $0xf8f809dd,-0xd58(%rbp)
    fbbb:	09 f8 f8 
    fbbe:	c7 85 ac f2 ff ff 24 	movl   $0x1f30124,-0xd54(%rbp)
    fbc5:	01 f3 01 
    fbc8:	c7 85 b0 f2 ff ff 01 	movl   $0x101f201,-0xd50(%rbp)
    fbcf:	f2 01 01 
    fbd2:	c7 85 b4 f2 ff ff f3 	movl   $0xf82401f3,-0xd4c(%rbp)
    fbd9:	01 24 f8 
    fbdc:	c7 85 b8 f2 ff ff f8 	movl   $0x1dd09f8,-0xd48(%rbp)
    fbe3:	09 dd 01 
    fbe6:	c7 85 bc f2 ff ff df 	movl   $0x50dd36df,-0xd44(%rbp)
    fbed:	36 dd 50 
    fbf0:	c7 85 c0 f2 ff ff f8 	movl   $0x1c3def8,-0xd40(%rbp)
    fbf7:	de c3 01 
    fbfa:	c7 85 c4 f2 ff ff f8 	movl   $0xf200f2f8,-0xd3c(%rbp)
    fc01:	f2 00 f2 
    fc04:	c7 85 c8 f2 ff ff 00 	movl   $0x1f8f200,-0xd38(%rbp)
    fc0b:	f2 f8 01 
    fc0e:	c7 85 cc f2 ff ff c3 	movl   $0x901dec3,-0xd34(%rbp)
    fc15:	de 01 09 
    fc18:	c7 85 d0 f2 ff ff df 	movl   $0x360101df,-0xd30(%rbp)
    fc1f:	01 01 36 
    fc22:	c7 85 d4 f2 ff ff df 	movl   $0x160101df,-0xd2c(%rbp)
    fc29:	01 01 16 
    fc2c:	c7 85 d8 f2 ff ff c3 	movl   $0x81f836c3,-0xd28(%rbp)
    fc33:	36 f8 81 
    fc36:	c7 85 dc f2 ff ff 00 	movl   $0x8100f800,-0xd24(%rbp)
    fc3d:	f8 00 81 
    fc40:	48 8d 85 40 ef ff ff 	lea    -0x10c0(%rbp),%rax
    fc47:	48 89 85 a8 ef ff ff 	mov    %rax,-0x1058(%rbp)
    fc4e:	48 c7 85 78 ef ff ff 	movq   $0x0,-0x1088(%rbp)
    fc55:	00 00 00 00 
    fc59:	c7 85 f4 ee ff ff 12 	movl   $0x282cd812,-0x110c(%rbp)
    fc60:	d8 2c 28 
    fc63:	48 8d 85 00 f6 ff ff 	lea    -0xa00(%rbp),%rax
    fc6a:	48 8d 15 8f 9c 00 00 	lea    0x9c8f(%rip),%rdx        # 19900 <g_764+0x18a0>
    fc71:	b9 78 00 00 00       	mov    $0x78,%ecx
    fc76:	48 89 c7             	mov    %rax,%rdi
    fc79:	48 89 d6             	mov    %rdx,%rsi
    fc7c:	f3 48 a5             	rep movsq %ds:(%rsi),%es:(%rdi)
    fc7f:	48 8d 85 50 ef ff ff 	lea    -0x10b0(%rbp),%rax
    fc86:	48 89 85 b0 ef ff ff 	mov    %rax,-0x1050(%rbp)
    fc8d:	48 8d 85 50 ef ff ff 	lea    -0x10b0(%rbp),%rax
    fc94:	48 89 85 b8 ef ff ff 	mov    %rax,-0x1048(%rbp)
    fc9b:	c7 85 f8 ee ff ff 00 	movl   $0x0,-0x1108(%rbp)
    fca2:	00 00 00 
    fca5:	c7 85 f0 ee ff ff 06 	movl   $0x6,-0x1110(%rbp)
    fcac:	00 00 00 
    fcaf:	c7 85 dc ee ff ff ff 	movl   $0x47d624ff,-0x1124(%rbp)
    fcb6:	24 d6 47 
    fcb9:	c7 85 e0 ee ff ff 00 	movl   $0x0,-0x1120(%rbp)
    fcc0:	00 00 00 
    fcc3:	eb 19                	jmp    fcde <func_57+0x57f>
    fcc5:	8b 85 e0 ee ff ff    	mov    -0x1120(%rbp),%eax
    fccb:	48 98                	cltq   
    fccd:	66 c7 84 45 ac f0 ff 	movw   $0xb407,-0xf54(%rbp,%rax,2)
    fcd4:	ff 07 b4 
    fcd7:	83 85 e0 ee ff ff 01 	addl   $0x1,-0x1120(%rbp)
    fcde:	83 bd e0 ee ff ff 01 	cmpl   $0x1,-0x1120(%rbp)
    fce5:	7e de                	jle    fcc5 <func_57+0x566>
    fce7:	c7 85 54 ee ff ff 00 	movl   $0x0,-0x11ac(%rbp)
    fcee:	00 00 00 
    fcf1:	e9 b8 0f 00 00       	jmpq   10cae <func_57+0x154f>
    fcf6:	c6 85 62 ee ff ff eb 	movb   $0xeb,-0x119e(%rbp)
    fcfd:	c7 85 88 ef ff ff f9 	movl   $0xfffffff9,-0x1078(%rbp)
    fd04:	ff ff ff 
    fd07:	c7 85 e4 ee ff ff 01 	movl   $0x1,-0x111c(%rbp)
    fd0e:	00 00 00 
    fd11:	c7 85 a0 ee ff ff 00 	movl   $0x0,-0x1160(%rbp)
    fd18:	00 00 00 
    fd1b:	c7 85 e8 ee ff ff f8 	movl   $0xfffffff8,-0x1118(%rbp)
    fd22:	ff ff ff 
    fd25:	c7 85 ec ee ff ff 90 	movl   $0xa232d690,-0x1114(%rbp)
    fd2c:	d6 32 a2 
    fd2f:	c7 85 d4 ee ff ff da 	movl   $0xfed21ada,-0x112c(%rbp)
    fd36:	1a d2 fe 
    fd39:	c7 85 cc ee ff ff fe 	movl   $0xfffffffe,-0x1134(%rbp)
    fd40:	ff ff ff 
    fd43:	c7 85 e0 f2 ff ff 01 	movl   $0x1,-0xd20(%rbp)
    fd4a:	00 00 00 
    fd4d:	c7 85 e4 f2 ff ff ff 	movl   $0xffffffff,-0xd1c(%rbp)
    fd54:	ff ff ff 
    fd57:	c7 85 e8 f2 ff ff ff 	movl   $0xffffffff,-0xd18(%rbp)
    fd5e:	ff ff ff 
    fd61:	c7 85 ec f2 ff ff 00 	movl   $0x0,-0xd14(%rbp)
    fd68:	00 00 00 
    fd6b:	c7 85 f0 f2 ff ff ff 	movl   $0xffffffff,-0xd10(%rbp)
    fd72:	ff ff ff 
    fd75:	c7 85 f4 f2 ff ff ff 	movl   $0xffffffff,-0xd0c(%rbp)
    fd7c:	ff ff ff 
    fd7f:	c7 85 f8 f2 ff ff 01 	movl   $0x1,-0xd08(%rbp)
    fd86:	00 00 00 
    fd89:	c7 85 fc f2 ff ff ff 	movl   $0xffffffff,-0xd04(%rbp)
    fd90:	ff ff ff 
    fd93:	c7 85 00 f3 ff ff ff 	movl   $0xffffffff,-0xd00(%rbp)
    fd9a:	ff ff ff 
    fd9d:	c7 85 04 f3 ff ff 00 	movl   $0x0,-0xcfc(%rbp)
    fda4:	00 00 00 
    fda7:	c7 85 08 f3 ff ff ff 	movl   $0xffffffff,-0xcf8(%rbp)
    fdae:	ff ff ff 
    fdb1:	c7 85 0c f3 ff ff 00 	movl   $0x0,-0xcf4(%rbp)
    fdb8:	00 00 00 
    fdbb:	c7 85 10 f3 ff ff ff 	movl   $0xffffffff,-0xcf0(%rbp)
    fdc2:	ff ff ff 
    fdc5:	c7 85 14 f3 ff ff ff 	movl   $0xffffffff,-0xcec(%rbp)
    fdcc:	ff ff ff 
    fdcf:	c7 85 18 f3 ff ff 01 	movl   $0x1,-0xce8(%rbp)
    fdd6:	00 00 00 
    fdd9:	c7 85 1c f3 ff ff ff 	movl   $0xffffffff,-0xce4(%rbp)
    fde0:	ff ff ff 
    fde3:	c7 85 20 f3 ff ff ff 	movl   $0xffffffff,-0xce0(%rbp)
    fdea:	ff ff ff 
    fded:	c7 85 24 f3 ff ff 00 	movl   $0x0,-0xcdc(%rbp)
    fdf4:	00 00 00 
    fdf7:	c7 85 28 f3 ff ff ff 	movl   $0xffffffff,-0xcd8(%rbp)
    fdfe:	ff ff ff 
    fe01:	c7 85 2c f3 ff ff ff 	movl   $0xffffffff,-0xcd4(%rbp)
    fe08:	ff ff ff 
    fe0b:	c7 85 30 f3 ff ff 01 	movl   $0x1,-0xcd0(%rbp)
    fe12:	00 00 00 
    fe15:	c7 85 34 f3 ff ff 00 	movl   $0x0,-0xccc(%rbp)
    fe1c:	00 00 00 
    fe1f:	c7 85 38 f3 ff ff fc 	movl   $0xa40b4fc,-0xcc8(%rbp)
    fe26:	b4 40 0a 
    fe29:	c7 85 3c f3 ff ff 00 	movl   $0x0,-0xcc4(%rbp)
    fe30:	00 00 00 
    fe33:	c7 85 40 f3 ff ff 01 	movl   $0x1,-0xcc0(%rbp)
    fe3a:	00 00 00 
    fe3d:	c7 85 44 f3 ff ff fd 	movl   $0xfffffffd,-0xcbc(%rbp)
    fe44:	ff ff ff 
    fe47:	c7 85 48 f3 ff ff 01 	movl   $0x1,-0xcb8(%rbp)
    fe4e:	00 00 00 
    fe51:	c7 85 4c f3 ff ff 00 	movl   $0x0,-0xcb4(%rbp)
    fe58:	00 00 00 
    fe5b:	c7 85 50 f3 ff ff fc 	movl   $0xa40b4fc,-0xcb0(%rbp)
    fe62:	b4 40 0a 
    fe65:	c7 85 54 f3 ff ff 00 	movl   $0x0,-0xcac(%rbp)
    fe6c:	00 00 00 
    fe6f:	c7 85 58 f3 ff ff 01 	movl   $0x1,-0xca8(%rbp)
    fe76:	00 00 00 
    fe79:	c7 85 5c f3 ff ff ff 	movl   $0xffffffff,-0xca4(%rbp)
    fe80:	ff ff ff 
    fe83:	c7 85 60 f3 ff ff ff 	movl   $0xffffffff,-0xca0(%rbp)
    fe8a:	ff ff ff 
    fe8d:	c7 85 64 f3 ff ff 00 	movl   $0x0,-0xc9c(%rbp)
    fe94:	00 00 00 
    fe97:	c7 85 68 f3 ff ff ff 	movl   $0xffffffff,-0xc98(%rbp)
    fe9e:	ff ff ff 
    fea1:	c7 85 6c f3 ff ff ff 	movl   $0xffffffff,-0xc94(%rbp)
    fea8:	ff ff ff 
    feab:	c7 85 70 f3 ff ff 01 	movl   $0x1,-0xc90(%rbp)
    feb2:	00 00 00 
    feb5:	c7 85 74 f3 ff ff ff 	movl   $0xffffffff,-0xc8c(%rbp)
    febc:	ff ff ff 
    febf:	c7 85 78 f3 ff ff ff 	movl   $0xffffffff,-0xc88(%rbp)
    fec6:	ff ff ff 
    fec9:	c7 85 7c f3 ff ff 00 	movl   $0x0,-0xc84(%rbp)
    fed0:	00 00 00 
    fed3:	48 c7 85 d0 f1 ff ff 	movq   $0xfffffffffffffffe,-0xe30(%rbp)
    feda:	fe ff ff ff 
    fede:	48 c7 85 d8 f1 ff ff 	movq   $0xfffffffffffffffe,-0xe28(%rbp)
    fee5:	fe ff ff ff 
    fee9:	48 c7 85 e0 f1 ff ff 	movq   $0xfffffffffffffffe,-0xe20(%rbp)
    fef0:	fe ff ff ff 
    fef4:	48 c7 85 e8 f1 ff ff 	movq   $0xfffffffffffffffe,-0xe18(%rbp)
    fefb:	fe ff ff ff 
    feff:	48 c7 85 f0 f1 ff ff 	movq   $0xfffffffffffffffe,-0xe10(%rbp)
    ff06:	fe ff ff ff 
    ff0a:	48 c7 85 f8 f1 ff ff 	movq   $0xfffffffffffffffe,-0xe08(%rbp)
    ff11:	fe ff ff ff 
    ff15:	48 c7 85 00 f2 ff ff 	movq   $0xfffffffffffffffe,-0xe00(%rbp)
    ff1c:	fe ff ff ff 
    ff20:	48 c7 85 08 f2 ff ff 	movq   $0xfffffffffffffffe,-0xdf8(%rbp)
    ff27:	fe ff ff ff 
    ff2b:	48 c7 85 10 f2 ff ff 	movq   $0xfffffffffffffffe,-0xdf0(%rbp)
    ff32:	fe ff ff ff 
    ff36:	48 c7 85 18 f2 ff ff 	movq   $0xfffffffffffffffe,-0xde8(%rbp)
    ff3d:	fe ff ff ff 
    ff41:	c7 85 90 ee ff ff 01 	movl   $0x1,-0x1170(%rbp)
    ff48:	00 00 00 
    ff4b:	66 c7 85 6c ee ff ff 	movw   $0x0,-0x1194(%rbp)
    ff52:	00 00 
    ff54:	c7 85 d8 ee ff ff 00 	movl   $0x0,-0x1128(%rbp)
    ff5b:	00 00 00 
    ff5e:	eb 21                	jmp    ff81 <func_57+0x822>
    ff60:	8b 85 d8 ee ff ff    	mov    -0x1128(%rbp),%eax
    ff66:	48 98                	cltq   
    ff68:	48 bb c2 a3 1a b8 8d 	movabs $0xe8490d8db81aa3c2,%rbx
    ff6f:	0d 49 e8 
    ff72:	48 89 9c c5 f0 f0 ff 	mov    %rbx,-0xf10(%rbp,%rax,8)
    ff79:	ff 
    ff7a:	83 85 d8 ee ff ff 01 	addl   $0x1,-0x1128(%rbp)
    ff81:	83 bd d8 ee ff ff 02 	cmpl   $0x2,-0x1128(%rbp)
    ff88:	7e d6                	jle    ff60 <func_57+0x801>
    ff8a:	66 c7 05 1d e1 00 00 	movw   $0x3,0xe11d(%rip)        # 1e0b0 <g_49>
    ff91:	03 00 
    ff93:	e9 b3 06 00 00       	jmpq   1064b <func_57+0xeec>
    ff98:	c7 85 a4 ee ff ff 05 	movl   $0x5,-0x115c(%rbp)
    ff9f:	00 00 00 
    ffa2:	c7 85 a8 ee ff ff ff 	movl   $0xffffffff,-0x1158(%rbp)
    ffa9:	ff ff ff 
    ffac:	c7 85 d0 f0 ff ff ff 	movl   $0xffffffff,-0xf30(%rbp)
    ffb3:	ff ff ff 
    ffb6:	c7 85 d4 f0 ff ff ff 	movl   $0xffffffff,-0xf2c(%rbp)
    ffbd:	ff ff ff 
    ffc0:	c7 85 d8 f0 ff ff ff 	movl   $0xffffffff,-0xf28(%rbp)
    ffc7:	ff ff ff 
    ffca:	c7 85 dc f0 ff ff ff 	movl   $0xffffffff,-0xf24(%rbp)
    ffd1:	ff ff ff 
    ffd4:	c7 85 e0 f0 ff ff ff 	movl   $0xffffffff,-0xf20(%rbp)
    ffdb:	ff ff ff 
    ffde:	c6 85 63 ee ff ff 13 	movb   $0x13,-0x119d(%rbp)
    ffe5:	48 8d 05 7e 26 01 00 	lea    0x1267e(%rip),%rax        # 2266a <g_146>
    ffec:	48 89 85 90 ef ff ff 	mov    %rax,-0x1070(%rbp)
    fff3:	c7 85 44 ee ff ff 00 	movl   $0x0,-0x11bc(%rbp)
    fffa:	00 00 00 
    fffd:	e9 9a 00 00 00       	jmpq   1009c <func_57+0x93d>
   10002:	48 8d 05 a7 e2 00 00 	lea    0xe2a7(%rip),%rax        # 1e2b0 <g_86>
   10009:	48 89 85 40 f0 ff ff 	mov    %rax,-0xfc0(%rbp)
   10010:	48 8d 05 99 e2 00 00 	lea    0xe299(%rip),%rax        # 1e2b0 <g_86>
   10017:	48 89 85 c0 f9 ff ff 	mov    %rax,-0x640(%rbp)
   1001e:	48 8d 05 6b e0 00 00 	lea    0xe06b(%rip),%rax        # 1e090 <g_4>
   10025:	48 89 85 c8 f9 ff ff 	mov    %rax,-0x638(%rbp)
   1002c:	48 8d 05 7d e2 00 00 	lea    0xe27d(%rip),%rax        # 1e2b0 <g_86>
   10033:	48 89 85 d0 f9 ff ff 	mov    %rax,-0x630(%rbp)
   1003a:	48 8d 05 6f e2 00 00 	lea    0xe26f(%rip),%rax        # 1e2b0 <g_86>
   10041:	48 89 85 d8 f9 ff ff 	mov    %rax,-0x628(%rbp)
   10048:	48 8d 05 41 e0 00 00 	lea    0xe041(%rip),%rax        # 1e090 <g_4>
   1004f:	48 89 85 e0 f9 ff ff 	mov    %rax,-0x620(%rbp)
   10056:	48 8d 05 53 e2 00 00 	lea    0xe253(%rip),%rax        # 1e2b0 <g_86>
   1005d:	48 89 85 e8 f9 ff ff 	mov    %rax,-0x618(%rbp)
   10064:	48 8d 05 45 e2 00 00 	lea    0xe245(%rip),%rax        # 1e2b0 <g_86>
   1006b:	48 89 85 f0 f9 ff ff 	mov    %rax,-0x610(%rbp)
   10072:	48 8d 05 17 e0 00 00 	lea    0xe017(%rip),%rax        # 1e090 <g_4>
   10079:	48 89 85 f8 f9 ff ff 	mov    %rax,-0x608(%rbp)
   10080:	48 8d 05 29 e2 00 00 	lea    0xe229(%rip),%rax        # 1e2b0 <g_86>
   10087:	48 89 85 00 fa ff ff 	mov    %rax,-0x600(%rbp)
   1008e:	83 ad ac ee ff ff 01 	subl   $0x1,-0x1154(%rbp)
   10095:	83 85 44 ee ff ff 01 	addl   $0x1,-0x11bc(%rbp)
   1009c:	83 bd 44 ee ff ff 00 	cmpl   $0x0,-0x11bc(%rbp)
   100a3:	0f 84 59 ff ff ff    	je     10002 <func_57+0x8a3>
   100a9:	c7 85 ac ee ff ff 00 	movl   $0x0,-0x1154(%rbp)
   100b0:	00 00 00 
   100b3:	83 bd ac ee ff ff 00 	cmpl   $0x0,-0x1154(%rbp)
   100ba:	0f 85 7a 05 00 00    	jne    1063a <func_57+0xedb>
   100c0:	c7 85 b0 ee ff ff 01 	movl   $0x1,-0x1150(%rbp)
   100c7:	00 00 00 
   100ca:	c7 85 b4 ee ff ff 00 	movl   $0x0,-0x114c(%rbp)
   100d1:	00 00 00 
   100d4:	c7 85 b8 ee ff ff c4 	movl   $0x492ae4c4,-0x1148(%rbp)
   100db:	e4 2a 49 
   100de:	c7 85 bc ee ff ff 02 	movl   $0x2,-0x1144(%rbp)
   100e5:	00 00 00 
   100e8:	c7 85 c0 ee ff ff f7 	movl   $0xfffffff7,-0x1140(%rbp)
   100ef:	ff ff ff 
   100f2:	c7 85 c4 ee ff ff 72 	movl   $0x77c23372,-0x113c(%rbp)
   100f9:	33 c2 77 
   100fc:	c7 85 c8 ee ff ff fb 	movl   $0xfffffffb,-0x1138(%rbp)
   10103:	ff ff ff 
   10106:	c7 85 80 f3 ff ff d2 	movl   $0x2bbba2d2,-0xc80(%rbp)
   1010d:	a2 bb 2b 
   10110:	c7 85 84 f3 ff ff f6 	movl   $0x3afa29f6,-0xc7c(%rbp)
   10117:	29 fa 3a 
   1011a:	c7 85 88 f3 ff ff ba 	movl   $0xc58fc3ba,-0xc78(%rbp)
   10121:	c3 8f c5 
   10124:	c7 85 8c f3 ff ff ff 	movl   $0xffffffff,-0xc74(%rbp)
   1012b:	ff ff ff 
   1012e:	c7 85 90 f3 ff ff ba 	movl   $0xc58fc3ba,-0xc70(%rbp)
   10135:	c3 8f c5 
   10138:	c7 85 94 f3 ff ff f6 	movl   $0x3afa29f6,-0xc6c(%rbp)
   1013f:	29 fa 3a 
   10142:	c7 85 98 f3 ff ff ff 	movl   $0xffffffff,-0xc68(%rbp)
   10149:	ff ff ff 
   1014c:	c7 85 9c f3 ff ff ba 	movl   $0xc58fc3ba,-0xc64(%rbp)
   10153:	c3 8f c5 
   10156:	c7 85 a0 f3 ff ff f6 	movl   $0x3afa29f6,-0xc60(%rbp)
   1015d:	29 fa 3a 
   10160:	c7 85 a4 f3 ff ff d2 	movl   $0x2bbba2d2,-0xc5c(%rbp)
   10167:	a2 bb 2b 
   1016a:	c7 85 a8 f3 ff ff 14 	movl   $0xa5237f14,-0xc58(%rbp)
   10171:	7f 23 a5 
   10174:	c7 85 ac f3 ff ff 8e 	movl   $0xe0e0e78e,-0xc54(%rbp)
   1017b:	e7 e0 e0 
   1017e:	c7 85 b0 f3 ff ff f6 	movl   $0x3afa29f6,-0xc50(%rbp)
   10185:	29 fa 3a 
   10188:	c7 85 b4 f3 ff ff 07 	movl   $0x7,-0xc4c(%rbp)
   1018f:	00 00 00 
   10192:	c7 85 b8 f3 ff ff 00 	movl   $0x0,-0xc48(%rbp)
   10199:	00 00 00 
   1019c:	c7 85 bc f3 ff ff 54 	movl   $0xf0fed554,-0xc44(%rbp)
   101a3:	d5 fe f0 
   101a6:	c7 85 c0 f3 ff ff 2f 	movl   $0x6814382f,-0xc40(%rbp)
   101ad:	38 14 68 
   101b0:	c7 85 c4 f3 ff ff f9 	movl   $0xfffffff9,-0xc3c(%rbp)
   101b7:	ff ff ff 
   101ba:	c7 85 c8 f3 ff ff 2f 	movl   $0x6814382f,-0xc38(%rbp)
   101c1:	38 14 68 
   101c4:	c7 85 cc f3 ff ff 07 	movl   $0x7,-0xc34(%rbp)
   101cb:	00 00 00 
   101ce:	c7 85 d0 f3 ff ff 73 	movl   $0x9c2a3573,-0xc30(%rbp)
   101d5:	35 2a 9c 
   101d8:	c7 85 d4 f3 ff ff 00 	movl   $0x0,-0xc2c(%rbp)
   101df:	00 00 00 
   101e2:	c7 85 d8 f3 ff ff 14 	movl   $0xa5237f14,-0xc28(%rbp)
   101e9:	7f 23 a5 
   101ec:	c7 85 dc f3 ff ff 01 	movl   $0x1,-0xc24(%rbp)
   101f3:	00 00 00 
   101f6:	c7 85 e0 f3 ff ff d8 	movl   $0xb02fedd8,-0xc20(%rbp)
   101fd:	ed 2f b0 
   10200:	c7 85 e4 f3 ff ff ba 	movl   $0xc58fc3ba,-0xc1c(%rbp)
   10207:	c3 8f c5 
   1020a:	c7 85 e8 f3 ff ff ff 	movl   $0xffffffff,-0xc18(%rbp)
   10211:	ff ff ff 
   10214:	c7 85 ec f3 ff ff ff 	movl   $0xffffffff,-0xc14(%rbp)
   1021b:	ff ff ff 
   1021e:	c7 85 f0 f3 ff ff ba 	movl   $0xc58fc3ba,-0xc10(%rbp)
   10225:	c3 8f c5 
   10228:	c7 85 f4 f3 ff ff d8 	movl   $0xb02fedd8,-0xc0c(%rbp)
   1022f:	ed 2f b0 
   10232:	c7 85 f8 f3 ff ff 8e 	movl   $0xe0e0e78e,-0xc08(%rbp)
   10239:	e7 e0 e0 
   1023c:	c7 85 fc f3 ff ff f6 	movl   $0x3afa29f6,-0xc04(%rbp)
   10243:	29 fa 3a 
   10246:	c7 85 00 f4 ff ff 54 	movl   $0xf0fed554,-0xc00(%rbp)
   1024d:	d5 fe f0 
   10250:	c7 85 04 f4 ff ff 01 	movl   $0x1,-0xbfc(%rbp)
   10257:	00 00 00 
   1025a:	c7 85 08 f4 ff ff ff 	movl   $0xffffffff,-0xbf8(%rbp)
   10261:	ff ff ff 
   10264:	c7 85 0c f4 ff ff d2 	movl   $0x2bbba2d2,-0xbf4(%rbp)
   1026b:	a2 bb 2b 
   1026e:	c7 85 10 f4 ff ff 00 	movl   $0x0,-0xbf0(%rbp)
   10275:	00 00 00 
   10278:	c7 85 14 f4 ff ff 00 	movl   $0x0,-0xbec(%rbp)
   1027f:	00 00 00 
   10282:	c7 85 18 f4 ff ff ec 	movl   $0x4089b8ec,-0xbe8(%rbp)
   10289:	b8 89 40 
   1028c:	c7 85 1c f4 ff ff e2 	movl   $0xbd4afbe2,-0xbe4(%rbp)
   10293:	fb 4a bd 
   10296:	c7 85 20 f4 ff ff ff 	movl   $0x8a259dff,-0xbe0(%rbp)
   1029d:	9d 25 8a 
   102a0:	c7 85 24 f4 ff ff 73 	movl   $0x9c2a3573,-0xbdc(%rbp)
   102a7:	35 2a 9c 
   102aa:	c7 85 28 f4 ff ff 00 	movl   $0x0,-0xbd8(%rbp)
   102b1:	00 00 00 
   102b4:	c7 85 2c f4 ff ff 73 	movl   $0x9c2a3573,-0xbd4(%rbp)
   102bb:	35 2a 9c 
   102be:	c7 85 30 f4 ff ff e2 	movl   $0xbd4afbe2,-0xbd0(%rbp)
   102c5:	fb 4a bd 
   102c8:	c7 85 34 f4 ff ff 01 	movl   $0x1,-0xbcc(%rbp)
   102cf:	00 00 00 
   102d2:	c7 85 38 f4 ff ff d8 	movl   $0xb02fedd8,-0xbc8(%rbp)
   102d9:	ed 2f b0 
   102dc:	c7 85 3c f4 ff ff f6 	movl   $0x3afa29f6,-0xbc4(%rbp)
   102e3:	29 fa 3a 
   102e6:	c7 85 40 f4 ff ff e2 	movl   $0xbd4afbe2,-0xbc0(%rbp)
   102ed:	fb 4a bd 
   102f0:	c7 85 44 f4 ff ff 14 	movl   $0xa5237f14,-0xbbc(%rbp)
   102f7:	7f 23 a5 
   102fa:	c7 85 48 f4 ff ff 6b 	movl   $0x2c680c6b,-0xbb8(%rbp)
   10301:	0c 68 2c 
   10304:	c7 85 4c f4 ff ff 14 	movl   $0xa5237f14,-0xbb4(%rbp)
   1030b:	7f 23 a5 
   1030e:	c7 85 50 f4 ff ff e2 	movl   $0xbd4afbe2,-0xbb0(%rbp)
   10315:	fb 4a bd 
   10318:	c7 85 54 f4 ff ff ba 	movl   $0xc58fc3ba,-0xbac(%rbp)
   1031f:	c3 8f c5 
   10322:	c7 85 58 f4 ff ff ff 	movl   $0xffffffff,-0xba8(%rbp)
   10329:	ff ff ff 
   1032c:	c7 85 5c f4 ff ff 8e 	movl   $0xe0e0e78e,-0xba4(%rbp)
   10333:	e7 e0 e0 
   10336:	c7 85 60 f4 ff ff ec 	movl   $0x4089b8ec,-0xba0(%rbp)
   1033d:	b8 89 40 
   10340:	c7 85 64 f4 ff ff 01 	movl   $0x1,-0xb9c(%rbp)
   10347:	00 00 00 
   1034a:	c7 85 68 f4 ff ff ff 	movl   $0xffffffff,-0xb98(%rbp)
   10351:	ff ff ff 
   10354:	c7 85 6c f4 ff ff 07 	movl   $0x7,-0xb94(%rbp)
   1035b:	00 00 00 
   1035e:	c7 85 10 f1 ff ff 55 	movl   $0xcf2d1555,-0xef0(%rbp)
   10365:	15 2d cf 
   10368:	c7 85 14 f1 ff ff 55 	movl   $0xcf2d1555,-0xeec(%rbp)
   1036f:	15 2d cf 
   10372:	c7 85 18 f1 ff ff 55 	movl   $0xcf2d1555,-0xee8(%rbp)
   10379:	15 2d cf 
   1037c:	c7 85 1c f1 ff ff 55 	movl   $0xcf2d1555,-0xee4(%rbp)
   10383:	15 2d cf 
   10386:	c7 85 20 f1 ff ff 55 	movl   $0xcf2d1555,-0xee0(%rbp)
   1038d:	15 2d cf 
   10390:	c7 85 24 f1 ff ff 55 	movl   $0xcf2d1555,-0xedc(%rbp)
   10397:	15 2d cf 
   1039a:	c7 85 28 f1 ff ff 55 	movl   $0xcf2d1555,-0xed8(%rbp)
   103a1:	15 2d cf 
   103a4:	0f b7 05 05 dd 00 00 	movzwl 0xdd05(%rip),%eax        # 1e0b0 <g_49>
   103ab:	0f bf d0             	movswl %ax,%edx
   103ae:	0f b7 05 fb dc 00 00 	movzwl 0xdcfb(%rip),%eax        # 1e0b0 <g_49>
   103b5:	98                   	cwtl   
   103b6:	8b 8d ac ee ff ff    	mov    -0x1154(%rbp),%ecx
   103bc:	83 c1 02             	add    $0x2,%ecx
   103bf:	89 ce                	mov    %ecx,%esi
   103c1:	48 63 d2             	movslq %edx,%rdx
   103c4:	48 63 c8             	movslq %eax,%rcx
   103c7:	48 89 d0             	mov    %rdx,%rax
   103ca:	48 c1 e0 03          	shl    $0x3,%rax
   103ce:	48 01 d0             	add    %rdx,%rax
   103d1:	48 01 c8             	add    %rcx,%rax
   103d4:	48 c1 e0 02          	shl    $0x2,%rax
   103d8:	48 01 f0             	add    %rsi,%rax
   103db:	48 8d 14 00          	lea    (%rax,%rax,1),%rdx
   103df:	48 8d 05 1a dd 00 00 	lea    0xdd1a(%rip),%rax        # 1e100 <g_73>
   103e6:	0f b7 04 02          	movzwl (%rdx,%rax,1),%eax
   103ea:	66 85 c0             	test   %ax,%ax
   103ed:	74 47                	je     10436 <func_57+0xcd7>
   103ef:	48 8d 05 be de 00 00 	lea    0xdebe(%rip),%rax        # 1e2b4 <g_86+0x4>
   103f6:	48 89 85 38 f0 ff ff 	mov    %rax,-0xfc8(%rbp)
   103fd:	48 8d 85 c0 f9 ff ff 	lea    -0x640(%rbp),%rax
   10404:	48 8d 15 15 09 01 00 	lea    0x10915(%rip),%rdx        # 20d20 <g_3041+0xd50>
   1040b:	b9 c0 00 00 00       	mov    $0xc0,%ecx
   10410:	48 89 c7             	mov    %rax,%rdi
   10413:	48 89 d6             	mov    %rdx,%rsi
   10416:	f3 48 a5             	rep movsq %ds:(%rsi),%es:(%rdi)
   10419:	80 ad 63 ee ff ff 01 	subb   $0x1,-0x119d(%rbp)
   10420:	48 8b 05 41 11 01 00 	mov    0x11141(%rip),%rax        # 21568 <g_105>
   10427:	48 8d 15 72 dc 00 00 	lea    0xdc72(%rip),%rdx        # 1e0a0 <g_4+0x10>
   1042e:	48 89 10             	mov    %rdx,(%rax)
   10431:	e9 f5 01 00 00       	jmpq   1062b <func_57+0xecc>
   10436:	c7 85 30 f1 ff ff fd 	movl   $0xfffffffd,-0xed0(%rbp)
   1043d:	ff ff ff 
   10440:	c7 85 34 f1 ff ff fd 	movl   $0xfffffffd,-0xecc(%rbp)
   10447:	ff ff ff 
   1044a:	c7 85 38 f1 ff ff fd 	movl   $0xfffffffd,-0xec8(%rbp)
   10451:	ff ff ff 
   10454:	c7 85 3c f1 ff ff fd 	movl   $0xfffffffd,-0xec4(%rbp)
   1045b:	ff ff ff 
   1045e:	c7 85 40 f1 ff ff fd 	movl   $0xfffffffd,-0xec0(%rbp)
   10465:	ff ff ff 
   10468:	c7 85 44 f1 ff ff fd 	movl   $0xfffffffd,-0xebc(%rbp)
   1046f:	ff ff ff 
   10472:	c7 85 48 f1 ff ff fd 	movl   $0xfffffffd,-0xeb8(%rbp)
   10479:	ff ff ff 
   1047c:	48 8d 85 80 ef ff ff 	lea    -0x1080(%rbp),%rax
   10483:	48 89 85 20 f0 ff ff 	mov    %rax,-0xfe0(%rbp)
   1048a:	48 8d 85 80 ef ff ff 	lea    -0x1080(%rbp),%rax
   10491:	48 89 85 28 f0 ff ff 	mov    %rax,-0xfd8(%rbp)
   10498:	48 8d 85 74 ee ff ff 	lea    -0x118c(%rbp),%rax
   1049f:	48 89 85 c0 f9 ff ff 	mov    %rax,-0x640(%rbp)
   104a6:	48 8d 85 8c ee ff ff 	lea    -0x1174(%rbp),%rax
   104ad:	48 89 85 c8 f9 ff ff 	mov    %rax,-0x638(%rbp)
   104b4:	48 8d 85 8c ee ff ff 	lea    -0x1174(%rbp),%rax
   104bb:	48 89 85 d0 f9 ff ff 	mov    %rax,-0x630(%rbp)
   104c2:	48 8d 85 74 ee ff ff 	lea    -0x118c(%rbp),%rax
   104c9:	48 89 85 d8 f9 ff ff 	mov    %rax,-0x628(%rbp)
   104d0:	48 8d 85 8c ee ff ff 	lea    -0x1174(%rbp),%rax
   104d7:	48 89 85 e0 f9 ff ff 	mov    %rax,-0x620(%rbp)
   104de:	48 8d 85 8c ee ff ff 	lea    -0x1174(%rbp),%rax
   104e5:	48 89 85 e8 f9 ff ff 	mov    %rax,-0x618(%rbp)
   104ec:	48 8d 85 74 ee ff ff 	lea    -0x118c(%rbp),%rax
   104f3:	48 89 85 f0 f9 ff ff 	mov    %rax,-0x610(%rbp)
   104fa:	48 8d 85 8c ee ff ff 	lea    -0x1174(%rbp),%rax
   10501:	48 89 85 f8 f9 ff ff 	mov    %rax,-0x608(%rbp)
   10508:	48 8d 85 8c ee ff ff 	lea    -0x1174(%rbp),%rax
   1050f:	48 89 85 00 fa ff ff 	mov    %rax,-0x600(%rbp)
   10516:	48 8d 85 74 ee ff ff 	lea    -0x118c(%rbp),%rax
   1051d:	48 89 85 08 fa ff ff 	mov    %rax,-0x5f8(%rbp)
   10524:	48 8d 85 90 ef ff ff 	lea    -0x1070(%rbp),%rax
   1052b:	48 89 85 30 f0 ff ff 	mov    %rax,-0xfd0(%rbp)
   10532:	8b 85 48 f1 ff ff    	mov    -0xeb8(%rbp),%eax
   10538:	3d 5a 7d 45 43       	cmp    $0x43457d5a,%eax
   1053d:	0f 9e c0             	setle  %al
   10540:	0f b6 d0             	movzbl %al,%edx
   10543:	48 8b 85 20 f0 ff ff 	mov    -0xfe0(%rbp),%rax
   1054a:	89 10                	mov    %edx,(%rax)
   1054c:	0f b7 85 66 ee ff ff 	movzwl -0x119a(%rbp),%eax
   10553:	83 e8 01             	sub    $0x1,%eax
   10556:	66 89 85 66 ee ff ff 	mov    %ax,-0x119a(%rbp)
   1055d:	8b 85 20 f1 ff ff    	mov    -0xee0(%rbp),%eax
   10563:	83 e8 01             	sub    $0x1,%eax
   10566:	89 85 20 f1 ff ff    	mov    %eax,-0xee0(%rbp)
   1056c:	8b 85 54 ee ff ff    	mov    -0x11ac(%rbp),%eax
   10572:	48 63 d8             	movslq %eax,%rbx
   10575:	0f b7 05 34 db 00 00 	movzwl 0xdb34(%rip),%eax        # 1e0b0 <g_49>
   1057c:	0f bf d0             	movswl %ax,%edx
   1057f:	8b 85 54 ee ff ff    	mov    -0x11ac(%rbp),%eax
   10585:	21 c2                	and    %eax,%edx
   10587:	41 89 d6             	mov    %edx,%r14d
   1058a:	0f b7 05 1f db 00 00 	movzwl 0xdb1f(%rip),%eax        # 1e0b0 <g_49>
   10591:	44 0f bf e8          	movswl %ax,%r13d
   10595:	48 8b 05 cc 0f 01 00 	mov    0x10fcc(%rip),%rax        # 21568 <g_105>
   1059c:	48 8b 00             	mov    (%rax),%rax
   1059f:	48 85 c0             	test   %rax,%rax
   105a2:	0f 95 c0             	setne  %al
   105a5:	0f b6 c0             	movzbl %al,%eax
   105a8:	89 85 10 ef ff ff    	mov    %eax,-0x10f0(%rbp)
   105ae:	8b 85 10 ef ff ff    	mov    -0x10f0(%rbp),%eax
   105b4:	83 f8 fa             	cmp    $0xfffffffa,%eax
   105b7:	0f 97 c0             	seta   %al
   105ba:	44 0f b6 e0          	movzbl %al,%r12d
   105be:	48 8b 95 90 ef ff ff 	mov    -0x1070(%rbp),%rdx
   105c5:	48 8b 85 30 f0 ff ff 	mov    -0xfd0(%rbp),%rax
   105cc:	48 89 10             	mov    %rdx,(%rax)
   105cf:	8b 85 b4 ee ff ff    	mov    -0x114c(%rbp),%eax
   105d5:	98                   	cwtl   
   105d6:	be 0d 00 00 00       	mov    $0xd,%esi
   105db:	89 c7                	mov    %eax,%edi
   105dd:	e8 81 5f ff ff       	callq  6563 <safe_rshift_func_int16_t_s_u>
   105e2:	66 0d 39 66          	or     $0x6639,%ax
   105e6:	98                   	cwtl   
   105e7:	44 89 e6             	mov    %r12d,%esi
   105ea:	89 c7                	mov    %eax,%edi
   105ec:	e8 c2 5d ff ff       	callq  63b3 <safe_add_func_int16_t_s_s>
   105f1:	8b 05 c5 dc 00 00    	mov    0xdcc5(%rip),%eax        # 1e2bc <g_122>
   105f7:	89 85 54 f4 ff ff    	mov    %eax,-0xbac(%rbp)
   105fd:	8b 85 54 f4 ff ff    	mov    -0xbac(%rbp),%eax
   10603:	41 39 c5             	cmp    %eax,%r13d
   10606:	0f 9f c0             	setg   %al
   10609:	0f b6 c0             	movzbl %al,%eax
   1060c:	41 39 c6             	cmp    %eax,%r14d
   1060f:	0f 9f c0             	setg   %al
   10612:	0f b6 c0             	movzbl %al,%eax
   10615:	48 89 de             	mov    %rbx,%rsi
   10618:	48 89 c7             	mov    %rax,%rdi
   1061b:	e8 88 62 ff ff       	callq  68a8 <safe_sub_func_int64_t_s_s>
   10620:	89 c2                	mov    %eax,%edx
   10622:	48 8b 85 20 f0 ff ff 	mov    -0xfe0(%rbp),%rax
   10629:	89 10                	mov    %edx,(%rax)
   1062b:	48 8b 05 36 0f 01 00 	mov    0x10f36(%rip),%rax        # 21568 <g_105>
   10632:	48 8b 00             	mov    (%rax),%rax
   10635:	e9 aa 17 00 00       	jmpq   11de4 <func_57+0x2685>
   1063a:	0f b7 05 6f da 00 00 	movzwl 0xda6f(%rip),%eax        # 1e0b0 <g_49>
   10641:	83 e8 01             	sub    $0x1,%eax
   10644:	66 89 05 65 da 00 00 	mov    %ax,0xda65(%rip)        # 1e0b0 <g_49>
   1064b:	0f b7 05 5e da 00 00 	movzwl 0xda5e(%rip),%eax        # 1e0b0 <g_49>
   10652:	66 85 c0             	test   %ax,%ax
   10655:	0f 89 3d f9 ff ff    	jns    ff98 <func_57+0x839>
   1065b:	48 8d 85 70 f4 ff ff 	lea    -0xb90(%rbp),%rax
   10662:	48 05 fc 00 00 00    	add    $0xfc,%rax
   10668:	48 89 85 58 ee ff ff 	mov    %rax,-0x11a8(%rbp)
   1066f:	48 8b 85 58 ee ff ff 	mov    -0x11a8(%rbp),%rax
   10676:	48 89 85 40 ef ff ff 	mov    %rax,-0x10c0(%rbp)
   1067d:	c7 85 a0 ee ff ff 00 	movl   $0x0,-0x1160(%rbp)
   10684:	00 00 00 
   10687:	e9 a6 00 00 00       	jmpq   10732 <func_57+0xfd3>
   1068c:	c7 85 94 ee ff ff 01 	movl   $0x1,-0x116c(%rbp)
   10693:	00 00 00 
   10696:	c7 85 98 ee ff ff 09 	movl   $0x9,-0x1168(%rbp)
   1069d:	00 00 00 
   106a0:	48 8d 85 62 ee ff ff 	lea    -0x119e(%rbp),%rax
   106a7:	48 89 85 90 ef ff ff 	mov    %rax,-0x1070(%rbp)
   106ae:	48 8d 85 90 ef ff ff 	lea    -0x1070(%rbp),%rax
   106b5:	48 89 85 98 ef ff ff 	mov    %rax,-0x1068(%rbp)
   106bc:	c7 85 9c ee ff ff 00 	movl   $0x0,-0x1164(%rbp)
   106c3:	00 00 00 
   106c6:	eb 1a                	jmp    106e2 <func_57+0xf83>
   106c8:	8b 85 9c ee ff ff    	mov    -0x1164(%rbp),%eax
   106ce:	48 98                	cltq   
   106d0:	c7 84 85 c0 f9 ff ff 	movl   $0x66d69ce9,-0x640(%rbp,%rax,4)
   106d7:	e9 9c d6 66 
   106db:	83 85 9c ee ff ff 01 	addl   $0x1,-0x1164(%rbp)
   106e2:	83 bd 9c ee ff ff 04 	cmpl   $0x4,-0x1164(%rbp)
   106e9:	7e dd                	jle    106c8 <func_57+0xf69>
   106eb:	c7 85 9c ee ff ff 00 	movl   $0x0,-0x1164(%rbp)
   106f2:	00 00 00 
   106f5:	eb 1a                	jmp    10711 <func_57+0xfb2>
   106f7:	8b 85 9c ee ff ff    	mov    -0x1164(%rbp),%eax
   106fd:	48 98                	cltq   
   106ff:	c7 84 85 80 f3 ff ff 	movl   $0x8acbb8f6,-0xc80(%rbp,%rax,4)
   10706:	f6 b8 cb 8a 
   1070a:	83 85 9c ee ff ff 01 	addl   $0x1,-0x1164(%rbp)
   10711:	83 bd 9c ee ff ff 00 	cmpl   $0x0,-0x1164(%rbp)
   10718:	7e dd                	jle    106f7 <func_57+0xf98>
   1071a:	8b 85 a0 ee ff ff    	mov    -0x1160(%rbp),%eax
   10720:	be 01 00 00 00       	mov    $0x1,%esi
   10725:	89 c7                	mov    %eax,%edi
   10727:	e8 d9 5e ff ff       	callq  6605 <safe_sub_func_int32_t_s_s>
   1072c:	89 85 a0 ee ff ff    	mov    %eax,-0x1160(%rbp)
   10732:	83 bd a0 ee ff ff ec 	cmpl   $0xffffffec,-0x1160(%rbp)
   10739:	0f 8d 4d ff ff ff    	jge    1068c <func_57+0xf2d>
   1073f:	c7 85 90 ee ff ff f1 	movl   $0xfffffff1,-0x1170(%rbp)
   10746:	ff ff ff 
   10749:	e9 41 05 00 00       	jmpq   10c8f <func_57+0x1530>
   1074e:	48 8d 85 78 ee ff ff 	lea    -0x1188(%rbp),%rax
   10755:	48 89 85 a0 ef ff ff 	mov    %rax,-0x1060(%rbp)
   1075c:	0f b6 85 8c f2 ff ff 	movzbl -0xd74(%rbp),%eax
   10763:	84 c0                	test   %al,%al
   10765:	0f 85 33 05 00 00    	jne    10c9e <func_57+0x153f>
   1076b:	48 8b 05 56 17 01 00 	mov    0x11756(%rip),%rax        # 21ec8 <g_289>
   10772:	48 8b 00             	mov    (%rax),%rax
   10775:	49 89 c4             	mov    %rax,%r12
   10778:	48 8b 05 29 dc 00 00 	mov    0xdc29(%rip),%rax        # 1e3a8 <g_290>
   1077f:	0f b7 d8             	movzwl %ax,%ebx
   10782:	0f b6 05 f2 1e 01 00 	movzbl 0x11ef2(%rip),%eax        # 2267b <g_293+0x3>
   10789:	66 98                	cbtw   
   1078b:	0f b7 d0             	movzwl %ax,%edx
   1078e:	80 bd 50 ee ff ff 00 	cmpb   $0x0,-0x11b0(%rbp)
   10795:	0f 94 c0             	sete   %al
   10798:	0f b6 c0             	movzbl %al,%eax
   1079b:	89 d6                	mov    %edx,%esi
   1079d:	89 c7                	mov    %eax,%edi
   1079f:	e8 7b 65 ff ff       	callq  6d1f <safe_sub_func_uint16_t_u_u>
   107a4:	8b 85 e8 ee ff ff    	mov    -0x1118(%rbp),%eax
   107aa:	48 63 d0             	movslq %eax,%rdx
   107ad:	0f b7 85 ae f0 ff ff 	movzwl -0xf52(%rbp),%eax
   107b4:	48 0f bf c0          	movswq %ax,%rax
   107b8:	48 89 d6             	mov    %rdx,%rsi
   107bb:	48 89 c7             	mov    %rax,%rdi
   107be:	e8 7e 60 ff ff       	callq  6841 <safe_add_func_int64_t_s_s>
   107c3:	8b 95 e4 ee ff ff    	mov    -0x111c(%rbp),%edx
   107c9:	48 63 d2             	movslq %edx,%rdx
   107cc:	48 09 c2             	or     %rax,%rdx
   107cf:	0f b7 05 da d8 00 00 	movzwl 0xd8da(%rip),%eax        # 1e0b0 <g_49>
   107d6:	48 0f bf c0          	movswq %ax,%rax
   107da:	48 31 c2             	xor    %rax,%rdx
   107dd:	8b 05 bd d8 00 00    	mov    0xd8bd(%rip),%eax        # 1e0a0 <g_4+0x10>
   107e3:	48 98                	cltq   
   107e5:	48 39 c2             	cmp    %rax,%rdx
   107e8:	0f 9c c2             	setl   %dl
   107eb:	48 8b 85 48 ef ff ff 	mov    -0x10b8(%rbp),%rax
   107f2:	0f b6 d2             	movzbl %dl,%edx
   107f5:	66 89 10             	mov    %dx,(%rax)
   107f8:	0f b7 00             	movzwl (%rax),%eax
   107fb:	66 85 c0             	test   %ax,%ax
   107fe:	0f 94 c0             	sete   %al
   10801:	0f b6 c0             	movzbl %al,%eax
   10804:	be 05 00 00 00       	mov    $0x5,%esi
   10809:	89 c7                	mov    %eax,%edi
   1080b:	e8 de 5a ff ff       	callq  62ee <safe_lshift_func_int8_t_s_u>
   10810:	22 85 50 ee ff ff    	and    -0x11b0(%rbp),%al
   10816:	0f be c8             	movsbl %al,%ecx
   10819:	8b 15 91 da 00 00    	mov    0xda91(%rip),%edx        # 1e2b0 <g_86>
   1081f:	48 8b 85 08 f0 ff ff 	mov    -0xff8(%rbp),%rax
   10826:	0f b6 00             	movzbl (%rax),%eax
   10829:	89 c6                	mov    %eax,%esi
   1082b:	89 c8                	mov    %ecx,%eax
   1082d:	21 f0                	and    %esi,%eax
   1082f:	89 c1                	mov    %eax,%ecx
   10831:	48 8b 85 08 f0 ff ff 	mov    -0xff8(%rbp),%rax
   10838:	88 08                	mov    %cl,(%rax)
   1083a:	48 8b 85 08 f0 ff ff 	mov    -0xff8(%rbp),%rax
   10841:	0f b6 00             	movzbl (%rax),%eax
   10844:	0f b6 c0             	movzbl %al,%eax
   10847:	39 c2                	cmp    %eax,%edx
   10849:	0f 9c c0             	setl   %al
   1084c:	0f b6 d0             	movzbl %al,%edx
   1084f:	8b 05 67 da 00 00    	mov    0xda67(%rip),%eax        # 1e2bc <g_122>
   10855:	39 c2                	cmp    %eax,%edx
   10857:	0f 95 c0             	setne  %al
   1085a:	0f b6 d0             	movzbl %al,%edx
   1085d:	48 8b 05 5c 16 01 00 	mov    0x1165c(%rip),%rax        # 21ec0 <g_221>
   10864:	8b 08                	mov    (%rax),%ecx
   10866:	48 8b 85 58 ee ff ff 	mov    -0x11a8(%rbp),%rax
   1086d:	8b 00                	mov    (%rax),%eax
   1086f:	39 c1                	cmp    %eax,%ecx
   10871:	0f 9d c0             	setge  %al
   10874:	0f b6 c0             	movzbl %al,%eax
   10877:	89 d6                	mov    %edx,%esi
   10879:	89 c7                	mov    %eax,%edi
   1087b:	e8 54 59 ff ff       	callq  61d4 <safe_add_func_int8_t_s_s>
   10880:	66 98                	cbtw   
   10882:	f7 d0                	not    %eax
   10884:	0f b7 c0             	movzwl %ax,%eax
   10887:	89 de                	mov    %ebx,%esi
   10889:	89 c7                	mov    %eax,%edi
   1088b:	e8 6f 64 ff ff       	callq  6cff <safe_add_func_uint16_t_u_u>
   10890:	8b 05 1e da 00 00    	mov    0xda1e(%rip),%eax        # 1e2b4 <g_86+0x4>
   10896:	85 c0                	test   %eax,%eax
   10898:	0f 95 c0             	setne  %al
   1089b:	0f b6 c0             	movzbl %al,%eax
   1089e:	4c 89 e6             	mov    %r12,%rsi
   108a1:	48 89 c7             	mov    %rax,%rdi
   108a4:	e8 4e 61 ff ff       	callq  69f7 <safe_div_func_int64_t_s_s>
   108a9:	48 85 c0             	test   %rax,%rax
   108ac:	0f 84 ba 03 00 00    	je     10c6c <func_57+0x150d>
   108b2:	48 8d 85 66 ee ff ff 	lea    -0x119a(%rbp),%rax
   108b9:	48 89 85 c0 f9 ff ff 	mov    %rax,-0x640(%rbp)
   108c0:	48 8d 85 66 ee ff ff 	lea    -0x119a(%rbp),%rax
   108c7:	48 89 85 c8 f9 ff ff 	mov    %rax,-0x638(%rbp)
   108ce:	48 8d 85 66 ee ff ff 	lea    -0x119a(%rbp),%rax
   108d5:	48 89 85 d0 f9 ff ff 	mov    %rax,-0x630(%rbp)
   108dc:	48 8d 85 66 ee ff ff 	lea    -0x119a(%rbp),%rax
   108e3:	48 89 85 d8 f9 ff ff 	mov    %rax,-0x628(%rbp)
   108ea:	48 8d 85 66 ee ff ff 	lea    -0x119a(%rbp),%rax
   108f1:	48 89 85 e0 f9 ff ff 	mov    %rax,-0x620(%rbp)
   108f8:	48 8d 85 66 ee ff ff 	lea    -0x119a(%rbp),%rax
   108ff:	48 89 85 e8 f9 ff ff 	mov    %rax,-0x618(%rbp)
   10906:	48 8d 85 66 ee ff ff 	lea    -0x119a(%rbp),%rax
   1090d:	48 89 85 f0 f9 ff ff 	mov    %rax,-0x610(%rbp)
   10914:	48 8d 85 66 ee ff ff 	lea    -0x119a(%rbp),%rax
   1091b:	48 89 85 f8 f9 ff ff 	mov    %rax,-0x608(%rbp)
   10922:	48 8d 85 66 ee ff ff 	lea    -0x119a(%rbp),%rax
   10929:	48 89 85 00 fa ff ff 	mov    %rax,-0x600(%rbp)
   10930:	48 8d 85 66 ee ff ff 	lea    -0x119a(%rbp),%rax
   10937:	48 89 85 08 fa ff ff 	mov    %rax,-0x5f8(%rbp)
   1093e:	c7 85 d0 ee ff ff b3 	movl   $0x6f9413b3,-0x1130(%rbp)
   10945:	13 94 6f 
   10948:	48 8d 05 55 d7 00 00 	lea    0xd755(%rip),%rax        # 1e0a4 <g_4+0x14>
   1094f:	48 89 85 80 f3 ff ff 	mov    %rax,-0xc80(%rbp)
   10956:	48 8d 85 88 ef ff ff 	lea    -0x1078(%rbp),%rax
   1095d:	48 89 85 88 f3 ff ff 	mov    %rax,-0xc78(%rbp)
   10964:	48 8d 05 39 d7 00 00 	lea    0xd739(%rip),%rax        # 1e0a4 <g_4+0x14>
   1096b:	48 89 85 90 f3 ff ff 	mov    %rax,-0xc70(%rbp)
   10972:	48 8d 85 88 ef ff ff 	lea    -0x1078(%rbp),%rax
   10979:	48 89 85 98 f3 ff ff 	mov    %rax,-0xc68(%rbp)
   10980:	48 8d 05 1d d7 00 00 	lea    0xd71d(%rip),%rax        # 1e0a4 <g_4+0x14>
   10987:	48 89 85 a0 f3 ff ff 	mov    %rax,-0xc60(%rbp)
   1098e:	48 8d 85 88 ef ff ff 	lea    -0x1078(%rbp),%rax
   10995:	48 89 85 a8 f3 ff ff 	mov    %rax,-0xc58(%rbp)
   1099c:	48 8d 05 01 d7 00 00 	lea    0xd701(%rip),%rax        # 1e0a4 <g_4+0x14>
   109a3:	48 89 85 b0 f3 ff ff 	mov    %rax,-0xc50(%rbp)
   109aa:	48 8d 85 88 ef ff ff 	lea    -0x1078(%rbp),%rax
   109b1:	48 89 85 b8 f3 ff ff 	mov    %rax,-0xc48(%rbp)
   109b8:	48 8d 05 e5 d6 00 00 	lea    0xd6e5(%rip),%rax        # 1e0a4 <g_4+0x14>
   109bf:	48 89 85 c0 f3 ff ff 	mov    %rax,-0xc40(%rbp)
   109c6:	8b 05 e4 d9 00 00    	mov    0xd9e4(%rip),%eax        # 1e3b0 <g_312>
   109cc:	0f bf d8             	movswl %ax,%ebx
   109cf:	0f be 85 50 ee ff ff 	movsbl -0x11b0(%rbp),%eax
   109d6:	89 c6                	mov    %eax,%esi
   109d8:	bf 96 ff ff ff       	mov    $0xffffff96,%edi
   109dd:	e8 30 58 ff ff       	callq  6212 <safe_mul_func_int8_t_s_s>
   109e2:	c7 85 d4 ee ff ff 01 	movl   $0x1,-0x112c(%rbp)
   109e9:	00 00 00 
   109ec:	48 8b 05 b5 d9 00 00 	mov    0xd9b5(%rip),%rax        # 1e3a8 <g_290>
   109f3:	41 89 c7             	mov    %eax,%r15d
   109f6:	0f b6 05 04 d9 00 00 	movzbl 0xd904(%rip),%eax        # 1e301 <g_248+0x11>
   109fd:	d0 e8                	shr    %al
   109ff:	44 0f b6 e0          	movzbl %al,%r12d
   10a03:	48 8b 05 be d8 00 00 	mov    0xd8be(%rip),%rax        # 1e2c8 <g_155+0x8>
   10a0a:	48 8b 05 af 14 01 00 	mov    0x114af(%rip),%rax        # 21ec0 <g_221>
   10a11:	44 8b 28             	mov    (%rax),%r13d
   10a14:	8b 85 d0 ee ff ff    	mov    -0x1130(%rbp),%eax
   10a1a:	44 0f bf f0          	movswl %ax,%r14d
   10a1e:	8b 85 40 f3 ff ff    	mov    -0xcc0(%rbp),%eax
   10a24:	0f be c0             	movsbl %al,%eax
   10a27:	be 05 00 00 00       	mov    $0x5,%esi
   10a2c:	89 c7                	mov    %eax,%edi
   10a2e:	e8 6e 58 ff ff       	callq  62a1 <safe_lshift_func_int8_t_s_s>
   10a33:	44 89 f6             	mov    %r14d,%esi
   10a36:	bf 00 00 00 00       	mov    $0x0,%edi
   10a3b:	e8 93 59 ff ff       	callq  63d3 <safe_sub_func_int16_t_s_s>
   10a40:	89 c2                	mov    %eax,%edx
   10a42:	48 8b 85 58 ee ff ff 	mov    -0x11a8(%rbp),%rax
   10a49:	0f bf d2             	movswl %dx,%edx
   10a4c:	89 10                	mov    %edx,(%rax)
   10a4e:	8b 00                	mov    (%rax),%eax
   10a50:	44 89 ee             	mov    %r13d,%esi
   10a53:	89 c7                	mov    %eax,%edi
   10a55:	e8 a5 5c ff ff       	callq  66ff <safe_div_func_int32_t_s_s>
   10a5a:	66 89 05 4f d6 00 00 	mov    %ax,0xd64f(%rip)        # 1e0b0 <g_49>
   10a61:	0f b7 05 48 d6 00 00 	movzwl 0xd648(%rip),%eax        # 1e0b0 <g_49>
   10a68:	98                   	cwtl   
   10a69:	44 89 e6             	mov    %r12d,%esi
   10a6c:	89 c7                	mov    %eax,%edi
   10a6e:	e8 f0 5a ff ff       	callq  6563 <safe_rshift_func_int16_t_s_u>
   10a73:	44 89 fe             	mov    %r15d,%esi
   10a76:	bf fb ff ff ff       	mov    $0xfffffffb,%edi
   10a7b:	e8 ec 58 ff ff       	callq  636c <safe_rshift_func_int8_t_s_u>
   10a80:	0f be 85 50 ee ff ff 	movsbl -0x11b0(%rbp),%eax
   10a87:	89 de                	mov    %ebx,%esi
   10a89:	89 c7                	mov    %eax,%edi
   10a8b:	e8 23 59 ff ff       	callq  63b3 <safe_add_func_int16_t_s_s>
   10a90:	89 c2                	mov    %eax,%edx
   10a92:	48 8b 05 37 14 01 00 	mov    0x11437(%rip),%rax        # 21ed0 <g_313>
   10a99:	0f bf d2             	movswl %dx,%edx
   10a9c:	89 10                	mov    %edx,(%rax)
   10a9e:	48 8b 05 2b d8 00 00 	mov    0xd82b(%rip),%rax        # 1e2d0 <g_155+0x10>
   10aa5:	48 8b 85 a0 ef ff ff 	mov    -0x1060(%rbp),%rax
   10aac:	8b 00                	mov    (%rax),%eax
   10aae:	0f be d0             	movsbl %al,%edx
   10ab1:	48 83 bd a8 ef ff ff 	cmpq   $0x0,-0x1058(%rbp)
   10ab8:	00 
   10ab9:	0f 95 c0             	setne  %al
   10abc:	0f b6 c8             	movzbl %al,%ecx
   10abf:	48 8b 85 a0 ef ff ff 	mov    -0x1060(%rbp),%rax
   10ac6:	8b 00                	mov    (%rax),%eax
   10ac8:	39 c1                	cmp    %eax,%ecx
   10aca:	0f 9d c0             	setge  %al
   10acd:	0f b6 c0             	movzbl %al,%eax
   10ad0:	39 85 44 ee ff ff    	cmp    %eax,-0x11bc(%rbp)
   10ad6:	0f 95 c0             	setne  %al
   10ad9:	0f b6 c0             	movzbl %al,%eax
   10adc:	89 d6                	mov    %edx,%esi
   10ade:	89 c7                	mov    %eax,%edi
   10ae0:	e8 ef 56 ff ff       	callq  61d4 <safe_add_func_int8_t_s_s>
   10ae5:	0f be d8             	movsbl %al,%ebx
   10ae8:	48 8b 05 d9 13 01 00 	mov    0x113d9(%rip),%rax        # 21ec8 <g_289>
   10aef:	48 8b 10             	mov    (%rax),%rdx
   10af2:	48 8d 85 54 ee ff ff 	lea    -0x11ac(%rbp),%rax
   10af9:	48 39 85 a0 ef ff ff 	cmp    %rax,-0x1060(%rbp)
   10b00:	0f 95 c0             	setne  %al
   10b03:	0f b6 c0             	movzbl %al,%eax
   10b06:	48 39 c2             	cmp    %rax,%rdx
   10b09:	0f 93 c0             	setae  %al
   10b0c:	44 0f b6 e0          	movzbl %al,%r12d
   10b10:	8b 85 54 ee ff ff    	mov    -0x11ac(%rbp),%eax
   10b16:	0f b7 c0             	movzwl %ax,%eax
   10b19:	be 04 00 00 00       	mov    $0x4,%esi
   10b1e:	89 c7                	mov    %eax,%edi
   10b20:	e8 23 63 ff ff       	callq  6e48 <safe_rshift_func_uint16_t_u_s>
   10b25:	0f b7 c0             	movzwl %ax,%eax
   10b28:	4c 89 e6             	mov    %r12,%rsi
   10b2b:	48 89 c7             	mov    %rax,%rdi
   10b2e:	e8 fb 64 ff ff       	callq  702e <safe_add_func_uint64_t_u_u>
   10b33:	0f be c0             	movsbl %al,%eax
   10b36:	89 de                	mov    %ebx,%esi
   10b38:	89 c7                	mov    %eax,%edi
   10b3a:	e8 2b 57 ff ff       	callq  626a <safe_div_func_int8_t_s_s>
   10b3f:	8b 8d d0 ee ff ff    	mov    -0x1130(%rbp),%ecx
   10b45:	48 8b 85 a8 ef ff ff 	mov    -0x1058(%rbp),%rax
   10b4c:	48 8b 00             	mov    (%rax),%rax
   10b4f:	8b 10                	mov    (%rax),%edx
   10b51:	48 8b 85 a8 ef ff ff 	mov    -0x1058(%rbp),%rax
   10b58:	48 8b 00             	mov    (%rax),%rax
   10b5b:	31 ca                	xor    %ecx,%edx
   10b5d:	89 10                	mov    %edx,(%rax)
   10b5f:	8b 85 80 ee ff ff    	mov    -0x1180(%rbp),%eax
   10b65:	85 c0                	test   %eax,%eax
   10b67:	74 0c                	je     10b75 <func_57+0x1416>
   10b69:	83 85 90 ee ff ff 01 	addl   $0x1,-0x1170(%rbp)
   10b70:	e9 1a 01 00 00       	jmpq   10c8f <func_57+0x1530>
   10b75:	0f b6 05 38 d8 00 00 	movzbl 0xd838(%rip),%eax        # 1e3b4 <g_329>
   10b7c:	48 8b 05 7d 09 01 00 	mov    0x1097d(%rip),%rax        # 21500 <g_72>
   10b83:	0f b7 00             	movzwl (%rax),%eax
   10b86:	66 85 c0             	test   %ax,%ax
   10b89:	75 24                	jne    10baf <func_57+0x1450>
   10b8b:	48 8b 05 6e 09 01 00 	mov    0x1096e(%rip),%rax        # 21500 <g_72>
   10b92:	0f b7 10             	movzwl (%rax),%edx
   10b95:	0f b7 05 cc 1a 01 00 	movzwl 0x11acc(%rip),%eax        # 22668 <g_75>
   10b9c:	21 d0                	and    %edx,%eax
   10b9e:	66 89 05 c3 1a 01 00 	mov    %ax,0x11ac3(%rip)        # 22668 <g_75>
   10ba5:	0f b7 05 bc 1a 01 00 	movzwl 0x11abc(%rip),%eax        # 22668 <g_75>
   10bac:	66 85 c0             	test   %ax,%ax
   10baf:	0f b7 05 b2 1a 01 00 	movzwl 0x11ab2(%rip),%eax        # 22668 <g_75>
   10bb6:	0f b7 c0             	movzwl %ax,%eax
   10bb9:	0b 85 44 ee ff ff    	or     -0x11bc(%rbp),%eax
   10bbf:	89 c2                	mov    %eax,%edx
   10bc1:	0f b6 05 27 d7 00 00 	movzbl 0xd727(%rip),%eax        # 1e2ef <g_176+0xf>
   10bc8:	0f b6 c0             	movzbl %al,%eax
   10bcb:	39 c2                	cmp    %eax,%edx
   10bcd:	0f 95 c0             	setne  %al
   10bd0:	0f b6 d0             	movzbl %al,%edx
   10bd3:	0f be 85 50 ee ff ff 	movsbl -0x11b0(%rbp),%eax
   10bda:	39 c2                	cmp    %eax,%edx
   10bdc:	0f 95 c0             	setne  %al
   10bdf:	0f b6 d0             	movzbl %al,%edx
   10be2:	0f b6 05 cb d7 00 00 	movzbl 0xd7cb(%rip),%eax        # 1e3b4 <g_329>
   10be9:	0f b6 c0             	movzbl %al,%eax
   10bec:	39 c2                	cmp    %eax,%edx
   10bee:	7e 07                	jle    10bf7 <func_57+0x1498>
   10bf0:	ba 01 00 00 00       	mov    $0x1,%edx
   10bf5:	eb 05                	jmp    10bfc <func_57+0x149d>
   10bf7:	ba 00 00 00 00       	mov    $0x0,%edx
   10bfc:	48 8b 85 40 ef ff ff 	mov    -0x10c0(%rbp),%rax
   10c03:	8b 00                	mov    (%rax),%eax
   10c05:	31 c2                	xor    %eax,%edx
   10c07:	8b 05 a7 d6 00 00    	mov    0xd6a7(%rip),%eax        # 1e2b4 <g_86+0x4>
   10c0d:	39 c2                	cmp    %eax,%edx
   10c0f:	48 8b 85 a0 ef ff ff 	mov    -0x1060(%rbp),%rax
   10c16:	8b 10                	mov    (%rax),%edx
   10c18:	8b 85 40 f3 ff ff    	mov    -0xcc0(%rbp),%eax
   10c1e:	09 d0                	or     %edx,%eax
   10c20:	89 85 40 f3 ff ff    	mov    %eax,-0xcc0(%rbp)
   10c26:	8b 85 40 f3 ff ff    	mov    -0xcc0(%rbp),%eax
   10c2c:	39 85 44 ee ff ff    	cmp    %eax,-0x11bc(%rbp)
   10c32:	0f 96 c0             	setbe  %al
   10c35:	0f b6 c0             	movzbl %al,%eax
   10c38:	be dd 83 ff ff       	mov    $0xffff83dd,%esi
   10c3d:	89 c7                	mov    %eax,%edi
   10c3f:	e8 b1 57 ff ff       	callq  63f5 <safe_mul_func_int16_t_s_s>
   10c44:	66 85 c0             	test   %ax,%ax
   10c47:	74 16                	je     10c5f <func_57+0x1500>
   10c49:	48 8b 05 78 12 01 00 	mov    0x11278(%rip),%rax        # 21ec8 <g_289>
   10c50:	48 8b 00             	mov    (%rax),%rax
   10c53:	48 85 c0             	test   %rax,%rax
   10c56:	74 07                	je     10c5f <func_57+0x1500>
   10c58:	b8 01 00 00 00       	mov    $0x1,%eax
   10c5d:	eb 05                	jmp    10c64 <func_57+0x1505>
   10c5f:	b8 00 00 00 00       	mov    $0x0,%eax
   10c64:	09 85 cc ee ff ff    	or     %eax,-0x1134(%rbp)
   10c6a:	eb 14                	jmp    10c80 <func_57+0x1521>
   10c6c:	48 8b 05 f5 08 01 00 	mov    0x108f5(%rip),%rax        # 21568 <g_105>
   10c73:	48 8b 10             	mov    (%rax),%rdx
   10c76:	48 8b 85 a8 ef ff ff 	mov    -0x1058(%rbp),%rax
   10c7d:	48 89 10             	mov    %rdx,(%rax)
   10c80:	48 8b 05 e1 08 01 00 	mov    0x108e1(%rip),%rax        # 21568 <g_105>
   10c87:	48 8b 00             	mov    (%rax),%rax
   10c8a:	e9 55 11 00 00       	jmpq   11de4 <func_57+0x2685>
   10c8f:	83 bd 90 ee ff ff 05 	cmpl   $0x5,-0x1170(%rbp)
   10c96:	0f 8f b2 fa ff ff    	jg     1074e <func_57+0xfef>
   10c9c:	eb 01                	jmp    10c9f <func_57+0x1540>
   10c9e:	90                   	nop
   10c9f:	8b 85 54 ee ff ff    	mov    -0x11ac(%rbp),%eax
   10ca5:	83 c0 01             	add    $0x1,%eax
   10ca8:	89 85 54 ee ff ff    	mov    %eax,-0x11ac(%rbp)
   10cae:	8b 85 54 ee ff ff    	mov    -0x11ac(%rbp),%eax
   10cb4:	85 c0                	test   %eax,%eax
   10cb6:	0f 8f 3a f0 ff ff    	jg     fcf6 <func_57+0x597>
   10cbc:	e9 25 07 00 00       	jmpq   113e6 <func_57+0x1c87>
   10cc1:	48 c7 85 c0 f9 ff ff 	movq   $0x0,-0x640(%rbp)
   10cc8:	00 00 00 00 
   10ccc:	48 c7 85 c8 f9 ff ff 	movq   $0x0,-0x638(%rbp)
   10cd3:	00 00 00 00 
   10cd7:	48 8d 85 50 ef ff ff 	lea    -0x10b0(%rbp),%rax
   10cde:	48 89 85 d0 f9 ff ff 	mov    %rax,-0x630(%rbp)
   10ce5:	48 8d 85 50 ef ff ff 	lea    -0x10b0(%rbp),%rax
   10cec:	48 89 85 d8 f9 ff ff 	mov    %rax,-0x628(%rbp)
   10cf3:	48 c7 85 e0 f9 ff ff 	movq   $0x0,-0x620(%rbp)
   10cfa:	00 00 00 00 
   10cfe:	48 c7 85 e8 f9 ff ff 	movq   $0x0,-0x618(%rbp)
   10d05:	00 00 00 00 
   10d09:	48 8d 85 50 ef ff ff 	lea    -0x10b0(%rbp),%rax
   10d10:	48 89 85 f0 f9 ff ff 	mov    %rax,-0x610(%rbp)
   10d17:	48 8d 85 50 ef ff ff 	lea    -0x10b0(%rbp),%rax
   10d1e:	48 89 85 f8 f9 ff ff 	mov    %rax,-0x608(%rbp)
   10d25:	48 c7 85 00 fa ff ff 	movq   $0x0,-0x600(%rbp)
   10d2c:	00 00 00 00 
   10d30:	48 c7 85 08 fa ff ff 	movq   $0x0,-0x5f8(%rbp)
   10d37:	00 00 00 00 
   10d3b:	48 c7 85 10 fa ff ff 	movq   $0x0,-0x5f0(%rbp)
   10d42:	00 00 00 00 
   10d46:	48 8d 85 50 ef ff ff 	lea    -0x10b0(%rbp),%rax
   10d4d:	48 89 85 18 fa ff ff 	mov    %rax,-0x5e8(%rbp)
   10d54:	48 8d 85 50 ef ff ff 	lea    -0x10b0(%rbp),%rax
   10d5b:	48 89 85 20 fa ff ff 	mov    %rax,-0x5e0(%rbp)
   10d62:	48 c7 85 28 fa ff ff 	movq   $0x0,-0x5d8(%rbp)
   10d69:	00 00 00 00 
   10d6d:	48 c7 85 30 fa ff ff 	movq   $0x0,-0x5d0(%rbp)
   10d74:	00 00 00 00 
   10d78:	48 8d 85 50 ef ff ff 	lea    -0x10b0(%rbp),%rax
   10d7f:	48 89 85 38 fa ff ff 	mov    %rax,-0x5c8(%rbp)
   10d86:	48 8d 85 50 ef ff ff 	lea    -0x10b0(%rbp),%rax
   10d8d:	48 89 85 40 fa ff ff 	mov    %rax,-0x5c0(%rbp)
   10d94:	48 c7 85 48 fa ff ff 	movq   $0x0,-0x5b8(%rbp)
   10d9b:	00 00 00 00 
   10d9f:	48 c7 85 50 fa ff ff 	movq   $0x0,-0x5b0(%rbp)
   10da6:	00 00 00 00 
   10daa:	48 8d 85 50 ef ff ff 	lea    -0x10b0(%rbp),%rax
   10db1:	48 89 85 58 fa ff ff 	mov    %rax,-0x5a8(%rbp)
   10db8:	48 c7 85 60 fa ff ff 	movq   $0x0,-0x5a0(%rbp)
   10dbf:	00 00 00 00 
   10dc3:	48 c7 85 68 fa ff ff 	movq   $0x0,-0x598(%rbp)
   10dca:	00 00 00 00 
   10dce:	48 8d 85 50 ef ff ff 	lea    -0x10b0(%rbp),%rax
   10dd5:	48 89 85 70 fa ff ff 	mov    %rax,-0x590(%rbp)
   10ddc:	48 8d 85 50 ef ff ff 	lea    -0x10b0(%rbp),%rax
   10de3:	48 89 85 78 fa ff ff 	mov    %rax,-0x588(%rbp)
   10dea:	48 c7 85 80 fa ff ff 	movq   $0x0,-0x580(%rbp)
   10df1:	00 00 00 00 
   10df5:	48 c7 85 88 fa ff ff 	movq   $0x0,-0x578(%rbp)
   10dfc:	00 00 00 00 
   10e00:	48 8d 85 50 ef ff ff 	lea    -0x10b0(%rbp),%rax
   10e07:	48 89 85 90 fa ff ff 	mov    %rax,-0x570(%rbp)
   10e0e:	48 8d 85 50 ef ff ff 	lea    -0x10b0(%rbp),%rax
   10e15:	48 89 85 98 fa ff ff 	mov    %rax,-0x568(%rbp)
   10e1c:	48 c7 85 a0 fa ff ff 	movq   $0x0,-0x560(%rbp)
   10e23:	00 00 00 00 
   10e27:	48 c7 85 a8 fa ff ff 	movq   $0x0,-0x558(%rbp)
   10e2e:	00 00 00 00 
   10e32:	48 c7 85 b0 fa ff ff 	movq   $0x0,-0x550(%rbp)
   10e39:	00 00 00 00 
   10e3d:	48 8d 85 50 ef ff ff 	lea    -0x10b0(%rbp),%rax
   10e44:	48 89 85 b8 fa ff ff 	mov    %rax,-0x548(%rbp)
   10e4b:	48 8d 85 50 ef ff ff 	lea    -0x10b0(%rbp),%rax
   10e52:	48 89 85 c0 fa ff ff 	mov    %rax,-0x540(%rbp)
   10e59:	48 c7 85 c8 fa ff ff 	movq   $0x0,-0x538(%rbp)
   10e60:	00 00 00 00 
   10e64:	48 c7 85 d0 fa ff ff 	movq   $0x0,-0x530(%rbp)
   10e6b:	00 00 00 00 
   10e6f:	48 8d 85 50 ef ff ff 	lea    -0x10b0(%rbp),%rax
   10e76:	48 89 85 d8 fa ff ff 	mov    %rax,-0x528(%rbp)
   10e7d:	48 8d 85 50 ef ff ff 	lea    -0x10b0(%rbp),%rax
   10e84:	48 89 85 e0 fa ff ff 	mov    %rax,-0x520(%rbp)
   10e8b:	48 c7 85 e8 fa ff ff 	movq   $0x0,-0x518(%rbp)
   10e92:	00 00 00 00 
   10e96:	48 c7 85 f0 fa ff ff 	movq   $0x0,-0x510(%rbp)
   10e9d:	00 00 00 00 
   10ea1:	48 8d 85 50 ef ff ff 	lea    -0x10b0(%rbp),%rax
   10ea8:	48 89 85 f8 fa ff ff 	mov    %rax,-0x508(%rbp)
   10eaf:	48 c7 85 00 fb ff ff 	movq   $0x0,-0x500(%rbp)
   10eb6:	00 00 00 00 
   10eba:	48 c7 85 08 fb ff ff 	movq   $0x0,-0x4f8(%rbp)
   10ec1:	00 00 00 00 
   10ec5:	48 8d 85 50 ef ff ff 	lea    -0x10b0(%rbp),%rax
   10ecc:	48 89 85 10 fb ff ff 	mov    %rax,-0x4f0(%rbp)
   10ed3:	48 8d 85 50 ef ff ff 	lea    -0x10b0(%rbp),%rax
   10eda:	48 89 85 18 fb ff ff 	mov    %rax,-0x4e8(%rbp)
   10ee1:	48 c7 85 20 fb ff ff 	movq   $0x0,-0x4e0(%rbp)
   10ee8:	00 00 00 00 
   10eec:	48 c7 85 28 fb ff ff 	movq   $0x0,-0x4d8(%rbp)
   10ef3:	00 00 00 00 
   10ef7:	48 8d 85 50 ef ff ff 	lea    -0x10b0(%rbp),%rax
   10efe:	48 89 85 30 fb ff ff 	mov    %rax,-0x4d0(%rbp)
   10f05:	48 8d 85 50 ef ff ff 	lea    -0x10b0(%rbp),%rax
   10f0c:	48 89 85 38 fb ff ff 	mov    %rax,-0x4c8(%rbp)
   10f13:	48 c7 85 40 fb ff ff 	movq   $0x0,-0x4c0(%rbp)
   10f1a:	00 00 00 00 
   10f1e:	48 c7 85 48 fb ff ff 	movq   $0x0,-0x4b8(%rbp)
   10f25:	00 00 00 00 
   10f29:	48 c7 85 50 fb ff ff 	movq   $0x0,-0x4b0(%rbp)
   10f30:	00 00 00 00 
   10f34:	48 8d 85 50 ef ff ff 	lea    -0x10b0(%rbp),%rax
   10f3b:	48 89 85 58 fb ff ff 	mov    %rax,-0x4a8(%rbp)
   10f42:	48 8d 85 50 ef ff ff 	lea    -0x10b0(%rbp),%rax
   10f49:	48 89 85 60 fb ff ff 	mov    %rax,-0x4a0(%rbp)
   10f50:	48 c7 85 68 fb ff ff 	movq   $0x0,-0x498(%rbp)
   10f57:	00 00 00 00 
   10f5b:	48 c7 85 70 fb ff ff 	movq   $0x0,-0x490(%rbp)
   10f62:	00 00 00 00 
   10f66:	48 8d 85 50 ef ff ff 	lea    -0x10b0(%rbp),%rax
   10f6d:	48 89 85 78 fb ff ff 	mov    %rax,-0x488(%rbp)
   10f74:	48 8d 85 50 ef ff ff 	lea    -0x10b0(%rbp),%rax
   10f7b:	48 89 85 80 fb ff ff 	mov    %rax,-0x480(%rbp)
   10f82:	48 c7 85 88 fb ff ff 	movq   $0x0,-0x478(%rbp)
   10f89:	00 00 00 00 
   10f8d:	48 c7 85 90 fb ff ff 	movq   $0x0,-0x470(%rbp)
   10f94:	00 00 00 00 
   10f98:	48 8d 85 50 ef ff ff 	lea    -0x10b0(%rbp),%rax
   10f9f:	48 89 85 98 fb ff ff 	mov    %rax,-0x468(%rbp)
   10fa6:	48 c7 85 a0 fb ff ff 	movq   $0x0,-0x460(%rbp)
   10fad:	00 00 00 00 
   10fb1:	48 c7 85 a8 fb ff ff 	movq   $0x0,-0x458(%rbp)
   10fb8:	00 00 00 00 
   10fbc:	48 8d 85 50 ef ff ff 	lea    -0x10b0(%rbp),%rax
   10fc3:	48 89 85 b0 fb ff ff 	mov    %rax,-0x450(%rbp)
   10fca:	48 8d 85 50 ef ff ff 	lea    -0x10b0(%rbp),%rax
   10fd1:	48 89 85 b8 fb ff ff 	mov    %rax,-0x448(%rbp)
   10fd8:	48 c7 85 c0 fb ff ff 	movq   $0x0,-0x440(%rbp)
   10fdf:	00 00 00 00 
   10fe3:	48 c7 85 c8 fb ff ff 	movq   $0x0,-0x438(%rbp)
   10fea:	00 00 00 00 
   10fee:	48 8d 85 50 ef ff ff 	lea    -0x10b0(%rbp),%rax
   10ff5:	48 89 85 d0 fb ff ff 	mov    %rax,-0x430(%rbp)
   10ffc:	48 8d 85 50 ef ff ff 	lea    -0x10b0(%rbp),%rax
   11003:	48 89 85 d8 fb ff ff 	mov    %rax,-0x428(%rbp)
   1100a:	48 c7 85 e0 fb ff ff 	movq   $0x0,-0x420(%rbp)
   11011:	00 00 00 00 
   11015:	48 c7 85 e8 fb ff ff 	movq   $0x0,-0x418(%rbp)
   1101c:	00 00 00 00 
   11020:	48 c7 85 f0 fb ff ff 	movq   $0x0,-0x410(%rbp)
   11027:	00 00 00 00 
   1102b:	48 8d 85 50 ef ff ff 	lea    -0x10b0(%rbp),%rax
   11032:	48 89 85 f8 fb ff ff 	mov    %rax,-0x408(%rbp)
   11039:	48 8d 85 50 ef ff ff 	lea    -0x10b0(%rbp),%rax
   11040:	48 89 85 00 fc ff ff 	mov    %rax,-0x400(%rbp)
   11047:	48 c7 85 08 fc ff ff 	movq   $0x0,-0x3f8(%rbp)
   1104e:	00 00 00 00 
   11052:	48 c7 85 10 fc ff ff 	movq   $0x0,-0x3f0(%rbp)
   11059:	00 00 00 00 
   1105d:	48 8d 85 50 ef ff ff 	lea    -0x10b0(%rbp),%rax
   11064:	48 89 85 18 fc ff ff 	mov    %rax,-0x3e8(%rbp)
   1106b:	48 8d 85 50 ef ff ff 	lea    -0x10b0(%rbp),%rax
   11072:	48 89 85 20 fc ff ff 	mov    %rax,-0x3e0(%rbp)
   11079:	48 c7 85 28 fc ff ff 	movq   $0x0,-0x3d8(%rbp)
   11080:	00 00 00 00 
   11084:	48 c7 85 30 fc ff ff 	movq   $0x0,-0x3d0(%rbp)
   1108b:	00 00 00 00 
   1108f:	48 8d 85 50 ef ff ff 	lea    -0x10b0(%rbp),%rax
   11096:	48 89 85 38 fc ff ff 	mov    %rax,-0x3c8(%rbp)
   1109d:	48 c7 85 40 fc ff ff 	movq   $0x0,-0x3c0(%rbp)
   110a4:	00 00 00 00 
   110a8:	48 c7 85 48 fc ff ff 	movq   $0x0,-0x3b8(%rbp)
   110af:	00 00 00 00 
   110b3:	48 8d 85 50 ef ff ff 	lea    -0x10b0(%rbp),%rax
   110ba:	48 89 85 50 fc ff ff 	mov    %rax,-0x3b0(%rbp)
   110c1:	48 8d 85 50 ef ff ff 	lea    -0x10b0(%rbp),%rax
   110c8:	48 89 85 58 fc ff ff 	mov    %rax,-0x3a8(%rbp)
   110cf:	48 c7 85 60 fc ff ff 	movq   $0x0,-0x3a0(%rbp)
   110d6:	00 00 00 00 
   110da:	48 c7 85 68 fc ff ff 	movq   $0x0,-0x398(%rbp)
   110e1:	00 00 00 00 
   110e5:	48 8d 85 50 ef ff ff 	lea    -0x10b0(%rbp),%rax
   110ec:	48 89 85 70 fc ff ff 	mov    %rax,-0x390(%rbp)
   110f3:	48 8d 85 50 ef ff ff 	lea    -0x10b0(%rbp),%rax
   110fa:	48 89 85 78 fc ff ff 	mov    %rax,-0x388(%rbp)
   11101:	48 c7 85 80 fc ff ff 	movq   $0x0,-0x380(%rbp)
   11108:	00 00 00 00 
   1110c:	48 c7 85 88 fc ff ff 	movq   $0x0,-0x378(%rbp)
   11113:	00 00 00 00 
   11117:	c7 85 fc ee ff ff ff 	movl   $0xffffffff,-0x1104(%rbp)
   1111e:	ff ff ff 
   11121:	48 c7 85 90 ef ff ff 	movq   $0x0,-0x1070(%rbp)
   11128:	00 00 00 00 
   1112c:	48 8d 85 90 ef ff ff 	lea    -0x1070(%rbp),%rax
   11133:	48 89 85 70 f4 ff ff 	mov    %rax,-0xb90(%rbp)
   1113a:	48 8d 85 90 ef ff ff 	lea    -0x1070(%rbp),%rax
   11141:	48 89 85 78 f4 ff ff 	mov    %rax,-0xb88(%rbp)
   11148:	48 8d 85 90 ef ff ff 	lea    -0x1070(%rbp),%rax
   1114f:	48 89 85 80 f4 ff ff 	mov    %rax,-0xb80(%rbp)
   11156:	48 8d 85 90 ef ff ff 	lea    -0x1070(%rbp),%rax
   1115d:	48 89 85 88 f4 ff ff 	mov    %rax,-0xb78(%rbp)
   11164:	48 8d 85 90 ef ff ff 	lea    -0x1070(%rbp),%rax
   1116b:	48 89 85 90 f4 ff ff 	mov    %rax,-0xb70(%rbp)
   11172:	48 8d 85 90 ef ff ff 	lea    -0x1070(%rbp),%rax
   11179:	48 89 85 98 f4 ff ff 	mov    %rax,-0xb68(%rbp)
   11180:	48 8d 85 90 ef ff ff 	lea    -0x1070(%rbp),%rax
   11187:	48 89 85 a0 f4 ff ff 	mov    %rax,-0xb60(%rbp)
   1118e:	48 8d 85 90 ef ff ff 	lea    -0x1070(%rbp),%rax
   11195:	48 89 85 a8 f4 ff ff 	mov    %rax,-0xb58(%rbp)
   1119c:	48 8d 85 90 ef ff ff 	lea    -0x1070(%rbp),%rax
   111a3:	48 89 85 b0 f4 ff ff 	mov    %rax,-0xb50(%rbp)
   111aa:	48 8d 05 f7 d1 00 00 	lea    0xd1f7(%rip),%rax        # 1e3a8 <g_290>
   111b1:	48 89 85 00 f6 ff ff 	mov    %rax,-0xa00(%rbp)
   111b8:	48 c7 85 08 f6 ff ff 	movq   $0x0,-0x9f8(%rbp)
   111bf:	00 00 00 00 
   111c3:	48 8d 05 de d1 00 00 	lea    0xd1de(%rip),%rax        # 1e3a8 <g_290>
   111ca:	48 89 85 10 f6 ff ff 	mov    %rax,-0x9f0(%rbp)
   111d1:	48 c7 85 18 f6 ff ff 	movq   $0x0,-0x9e8(%rbp)
   111d8:	00 00 00 00 
   111dc:	48 8d 05 c5 d1 00 00 	lea    0xd1c5(%rip),%rax        # 1e3a8 <g_290>
   111e3:	48 89 85 20 f6 ff ff 	mov    %rax,-0x9e0(%rbp)
   111ea:	48 c7 85 28 f6 ff ff 	movq   $0x0,-0x9d8(%rbp)
   111f1:	00 00 00 00 
   111f5:	48 8d 05 ac d1 00 00 	lea    0xd1ac(%rip),%rax        # 1e3a8 <g_290>
   111fc:	48 89 85 30 f6 ff ff 	mov    %rax,-0x9d0(%rbp)
   11203:	48 c7 85 38 f6 ff ff 	movq   $0x0,-0x9c8(%rbp)
   1120a:	00 00 00 00 
   1120e:	48 8d 05 93 d1 00 00 	lea    0xd193(%rip),%rax        # 1e3a8 <g_290>
   11215:	48 89 85 40 f6 ff ff 	mov    %rax,-0x9c0(%rbp)
   1121c:	48 c7 85 48 f6 ff ff 	movq   $0x0,-0x9b8(%rbp)
   11223:	00 00 00 00 
   11227:	48 8d 05 7a d1 00 00 	lea    0xd17a(%rip),%rax        # 1e3a8 <g_290>
   1122e:	48 89 85 50 f6 ff ff 	mov    %rax,-0x9b0(%rbp)
   11235:	48 c7 85 58 f6 ff ff 	movq   $0x0,-0x9a8(%rbp)
   1123c:	00 00 00 00 
   11240:	48 8d 85 b0 f0 ff ff 	lea    -0xf50(%rbp),%rax
   11247:	48 83 c0 08          	add    $0x8,%rax
   1124b:	48 89 85 c8 ef ff ff 	mov    %rax,-0x1038(%rbp)
   11252:	c7 85 00 ef ff ff 01 	movl   $0x1,-0x1100(%rbp)
   11259:	00 00 00 
   1125c:	48 8d 05 05 14 01 00 	lea    0x11405(%rip),%rax        # 22668 <g_75>
   11263:	48 89 85 d0 ef ff ff 	mov    %rax,-0x1030(%rbp)
   1126a:	48 8b 05 57 0c 01 00 	mov    0x10c57(%rip),%rax        # 21ec8 <g_289>
   11271:	48 8b 00             	mov    (%rax),%rax
   11274:	48 89 c6             	mov    %rax,%rsi
   11277:	bf 00 00 00 00       	mov    $0x0,%edi
   1127c:	e8 ff 5d ff ff       	callq  7080 <safe_mod_func_uint64_t_u_u>
   11281:	48 8b 05 00 14 01 00 	mov    0x11400(%rip),%rax        # 22688 <g_494>
   11288:	48 89 05 a9 0c 01 00 	mov    %rax,0x10ca9(%rip)        # 21f38 <g_639>
   1128f:	48 8b 05 32 0c 01 00 	mov    0x10c32(%rip),%rax        # 21ec8 <g_289>
   11296:	4c 8b 28             	mov    (%rax),%r13
   11299:	8b 85 44 ee ff ff    	mov    -0x11bc(%rbp),%eax
   1129f:	0f be d8             	movsbl %al,%ebx
   112a2:	8b 05 14 d0 00 00    	mov    0xd014(%rip),%eax        # 1e2bc <g_122>
   112a8:	41 89 c6             	mov    %eax,%r14d
   112ab:	8b 85 fc ee ff ff    	mov    -0x1104(%rbp),%eax
   112b1:	44 0f b6 e0          	movzbl %al,%r12d
   112b5:	0f b7 05 f8 ce 00 00 	movzwl 0xcef8(%rip),%eax        # 1e1b4 <g_73+0xb4>
   112bc:	48 8b 85 48 f6 ff ff 	mov    -0x9b8(%rbp),%rax
   112c3:	48 39 85 f0 ef ff ff 	cmp    %rax,-0x1010(%rbp)
   112ca:	0f 95 c0             	setne  %al
   112cd:	0f b6 d0             	movzbl %al,%edx
   112d0:	8b 85 54 ee ff ff    	mov    -0x11ac(%rbp),%eax
   112d6:	48 98                	cltq   
   112d8:	48 89 d6             	mov    %rdx,%rsi
   112db:	48 89 c7             	mov    %rax,%rdi
   112de:	e8 68 5d ff ff       	callq  704b <safe_sub_func_uint64_t_u_u>
   112e3:	0f b6 c0             	movzbl %al,%eax
   112e6:	44 89 e6             	mov    %r12d,%esi
   112e9:	89 c7                	mov    %eax,%edi
   112eb:	e8 6a 58 ff ff       	callq  6b5a <safe_add_func_uint8_t_u_u>
   112f0:	be 01 00 00 00       	mov    $0x1,%esi
   112f5:	bf 01 00 00 00       	mov    $0x1,%edi
   112fa:	e8 32 4f ff ff       	callq  6231 <safe_mod_func_int8_t_s_s>
   112ff:	0f be c0             	movsbl %al,%eax
   11302:	be 03 00 00 00       	mov    $0x3,%esi
   11307:	89 c7                	mov    %eax,%edi
   11309:	e8 93 4f ff ff       	callq  62a1 <safe_lshift_func_int8_t_s_s>
   1130e:	0f be c0             	movsbl %al,%eax
   11311:	44 89 f6             	mov    %r14d,%esi
   11314:	89 c7                	mov    %eax,%edi
   11316:	e8 b5 5b ff ff       	callq  6ed0 <safe_sub_func_uint32_t_u_u>
   1131b:	0f be c0             	movsbl %al,%eax
   1131e:	89 de                	mov    %ebx,%esi
   11320:	89 c7                	mov    %eax,%edi
   11322:	e8 43 4f ff ff       	callq  626a <safe_div_func_int8_t_s_s>
   11327:	84 c0                	test   %al,%al
   11329:	0f 94 c0             	sete   %al
   1132c:	0f b6 c0             	movzbl %al,%eax
   1132f:	48 f7 d0             	not    %rax
   11332:	48 89 c2             	mov    %rax,%rdx
   11335:	48 8b 85 c8 ef ff ff 	mov    -0x1038(%rbp),%rax
   1133c:	48 89 10             	mov    %rdx,(%rax)
   1133f:	48 8b 85 c8 ef ff ff 	mov    -0x1038(%rbp),%rax
   11346:	48 8b 00             	mov    (%rax),%rax
   11349:	49 39 c5             	cmp    %rax,%r13
   1134c:	48 8b 85 40 ef ff ff 	mov    -0x10c0(%rbp),%rax
   11353:	c7 00 00 00 00 00    	movl   $0x0,(%rax)
   11359:	8b 00                	mov    (%rax),%eax
   1135b:	85 c0                	test   %eax,%eax
   1135d:	75 0d                	jne    1136c <func_57+0x1c0d>
   1135f:	48 8b 05 62 0b 01 00 	mov    0x10b62(%rip),%rax        # 21ec8 <g_289>
   11366:	48 8b 00             	mov    (%rax),%rax
   11369:	48 85 c0             	test   %rax,%rax
   1136c:	48 8b 85 58 ef ff ff 	mov    -0x10a8(%rbp),%rax
   11373:	48 8b 00             	mov    (%rax),%rax
   11376:	c6 00 43             	movb   $0x43,(%rax)
   11379:	0f b6 00             	movzbl (%rax),%eax
   1137c:	0f be c0             	movsbl %al,%eax
   1137f:	89 85 fc ee ff ff    	mov    %eax,-0x1104(%rbp)
   11385:	83 bd 44 ee ff ff 00 	cmpl   $0x0,-0x11bc(%rbp)
   1138c:	74 07                	je     11395 <func_57+0x1c36>
   1138e:	b8 01 00 00 00       	mov    $0x1,%eax
   11393:	eb 05                	jmp    1139a <func_57+0x1c3b>
   11395:	b8 00 00 00 00       	mov    $0x0,%eax
   1139a:	21 85 00 ef ff ff    	and    %eax,-0x1100(%rbp)
   113a0:	8b 85 54 ee ff ff    	mov    -0x11ac(%rbp),%eax
   113a6:	c1 e8 1f             	shr    $0x1f,%eax
   113a9:	0f b6 d0             	movzbl %al,%edx
   113ac:	8b 05 ee cc 00 00    	mov    0xccee(%rip),%eax        # 1e0a0 <g_4+0x10>
   113b2:	39 c2                	cmp    %eax,%edx
   113b4:	0f 9f c0             	setg   %al
   113b7:	0f b6 d0             	movzbl %al,%edx
   113ba:	0f b6 05 bc 12 01 00 	movzbl 0x112bc(%rip),%eax        # 2267d <g_293+0x5>
   113c1:	0f be c0             	movsbl %al,%eax
   113c4:	39 c2                	cmp    %eax,%edx
   113c6:	0f 9c c0             	setl   %al
   113c9:	0f b6 d0             	movzbl %al,%edx
   113cc:	48 8b 85 18 f0 ff ff 	mov    -0xfe8(%rbp),%rax
   113d3:	89 10                	mov    %edx,(%rax)
   113d5:	48 8b 05 4c 0b 01 00 	mov    0x10b4c(%rip),%rax        # 21f28 <g_361>
   113dc:	48 8d 95 54 ee ff ff 	lea    -0x11ac(%rbp),%rdx
   113e3:	48 89 10             	mov    %rdx,(%rax)
   113e6:	48 8b 05 ab cf 00 00 	mov    0xcfab(%rip),%rax        # 1e398 <g_277+0x78>
   113ed:	48 c7 05 30 0b 01 00 	movq   $0x0,0x10b30(%rip)        # 21f28 <g_361>
   113f4:	00 00 00 00 
   113f8:	48 8b 05 29 0b 01 00 	mov    0x10b29(%rip),%rax        # 21f28 <g_361>
   113ff:	48 89 85 68 ef ff ff 	mov    %rax,-0x1098(%rbp)
   11406:	48 8b 95 68 ef ff ff 	mov    -0x1098(%rbp),%rdx
   1140d:	48 8d 05 4c 01 01 00 	lea    0x1014c(%rip),%rax        # 21560 <g_106+0x40>
   11414:	48 89 05 25 0b 01 00 	mov    %rax,0x10b25(%rip)        # 21f40 <g_669>
   1141b:	48 8b 05 1e 0b 01 00 	mov    0x10b1e(%rip),%rax        # 21f40 <g_669>
   11422:	48 39 c2             	cmp    %rax,%rdx
   11425:	0f 95 c0             	setne  %al
   11428:	0f b6 d0             	movzbl %al,%edx
   1142b:	8b 85 54 ee ff ff    	mov    -0x11ac(%rbp),%eax
   11431:	09 d0                	or     %edx,%eax
   11433:	89 85 54 ee ff ff    	mov    %eax,-0x11ac(%rbp)
   11439:	48 8b 05 80 0a 01 00 	mov    0x10a80(%rip),%rax        # 21ec0 <g_221>
   11440:	8b 18                	mov    (%rax),%ebx
   11442:	0f be 85 50 ee ff ff 	movsbl -0x11b0(%rbp),%eax
   11449:	89 c6                	mov    %eax,%esi
   1144b:	bf 4f 23 f8 5c       	mov    $0x5cf8234f,%edi
   11450:	e8 b0 51 ff ff       	callq  6605 <safe_sub_func_int32_t_s_s>
   11455:	39 c3                	cmp    %eax,%ebx
   11457:	0f 95 c0             	setne  %al
   1145a:	44 0f b6 e0          	movzbl %al,%r12d
   1145e:	8b 85 54 ee ff ff    	mov    -0x11ac(%rbp),%eax
   11464:	0f b6 d8             	movzbl %al,%ebx
   11467:	48 8b 85 f8 ef ff ff 	mov    -0x1008(%rbp),%rax
   1146e:	0f b7 00             	movzwl (%rax),%eax
   11471:	8d 48 01             	lea    0x1(%rax),%ecx
   11474:	48 8b 95 f8 ef ff ff 	mov    -0x1008(%rbp),%rdx
   1147b:	66 89 0a             	mov    %cx,(%rdx)
   1147e:	44 0f b7 e8          	movzwl %ax,%r13d
   11482:	48 8b 85 08 f0 ff ff 	mov    -0xff8(%rbp),%rax
   11489:	0f b6 00             	movzbl (%rax),%eax
   1148c:	8d 50 01             	lea    0x1(%rax),%edx
   1148f:	48 8b 85 08 f0 ff ff 	mov    -0xff8(%rbp),%rax
   11496:	88 10                	mov    %dl,(%rax)
   11498:	48 8b 85 08 f0 ff ff 	mov    -0xff8(%rbp),%rax
   1149f:	0f b6 00             	movzbl (%rax),%eax
   114a2:	88 05 34 cf 00 00    	mov    %al,0xcf34(%rip)        # 1e3dc <g_687>
   114a8:	0f b6 05 2d cf 00 00 	movzbl 0xcf2d(%rip),%eax        # 1e3dc <g_687>
   114af:	0f be d0             	movsbl %al,%edx
   114b2:	8b 85 20 ef ff ff    	mov    -0x10e0(%rbp),%eax
   114b8:	98                   	cwtl   
   114b9:	89 d6                	mov    %edx,%esi
   114bb:	89 c7                	mov    %eax,%edi
   114bd:	e8 54 4f ff ff       	callq  6416 <safe_mod_func_int16_t_s_s>
   114c2:	98                   	cwtl   
   114c3:	41 39 c5             	cmp    %eax,%r13d
   114c6:	0f 9f c0             	setg   %al
   114c9:	0f b6 c8             	movzbl %al,%ecx
   114cc:	48 8b 85 50 ef ff ff 	mov    -0x10b0(%rbp),%rax
   114d3:	0f b6 10             	movzbl (%rax),%edx
   114d6:	48 8b 85 50 ef ff ff 	mov    -0x10b0(%rbp),%rax
   114dd:	31 ca                	xor    %ecx,%edx
   114df:	88 10                	mov    %dl,(%rax)
   114e1:	8b 85 54 ee ff ff    	mov    -0x11ac(%rbp),%eax
   114e7:	39 85 44 ee ff ff    	cmp    %eax,-0x11bc(%rbp)
   114ed:	0f 97 c2             	seta   %dl
   114f0:	48 8b 85 48 ef ff ff 	mov    -0x10b8(%rbp),%rax
   114f7:	0f b6 d2             	movzbl %dl,%edx
   114fa:	66 89 10             	mov    %dx,(%rax)
   114fd:	0f b7 00             	movzwl (%rax),%eax
   11500:	0f b7 d0             	movzwl %ax,%edx
   11503:	0f b6 85 50 ee ff ff 	movzbl -0x11b0(%rbp),%eax
   1150a:	83 f0 01             	xor    $0x1,%eax
   1150d:	66 98                	cbtw   
   1150f:	0f b7 c0             	movzwl %ax,%eax
   11512:	89 d6                	mov    %edx,%esi
   11514:	89 c7                	mov    %eax,%edi
   11516:	e8 22 58 ff ff       	callq  6d3d <safe_mul_func_uint16_t_u_u>
   1151b:	83 c8 60             	or     $0x60,%eax
   1151e:	0f b6 c0             	movzbl %al,%eax
   11521:	be f1 00 00 00       	mov    $0xf1,%esi
   11526:	89 c7                	mov    %eax,%edi
   11528:	e8 81 56 ff ff       	callq  6bae <safe_mod_func_uint8_t_u_u>
   1152d:	48 8b 95 08 f0 ff ff 	mov    -0xff8(%rbp),%rdx
   11534:	88 02                	mov    %al,(%rdx)
   11536:	48 8b 85 08 f0 ff ff 	mov    -0xff8(%rbp),%rax
   1153d:	0f b6 00             	movzbl (%rax),%eax
   11540:	0f b6 c0             	movzbl %al,%eax
   11543:	89 de                	mov    %ebx,%esi
   11545:	89 c7                	mov    %eax,%edi
   11547:	e8 2c 56 ff ff       	callq  6b78 <safe_sub_func_uint8_t_u_u>
   1154c:	84 c0                	test   %al,%al
   1154e:	75 0a                	jne    1155a <func_57+0x1dfb>
   11550:	8b 05 62 cd 00 00    	mov    0xcd62(%rip),%eax        # 1e2b8 <g_86+0x8>
   11556:	85 c0                	test   %eax,%eax
   11558:	74 07                	je     11561 <func_57+0x1e02>
   1155a:	b8 01 00 00 00       	mov    $0x1,%eax
   1155f:	eb 05                	jmp    11566 <func_57+0x1e07>
   11561:	b8 00 00 00 00       	mov    $0x0,%eax
   11566:	0f b7 c0             	movzwl %ax,%eax
   11569:	be 05 00 00 00       	mov    $0x5,%esi
   1156e:	89 c7                	mov    %eax,%edi
   11570:	e8 05 59 ff ff       	callq  6e7a <safe_rshift_func_uint16_t_u_u>
   11575:	0f b7 d0             	movzwl %ax,%edx
   11578:	8b 85 54 ee ff ff    	mov    -0x11ac(%rbp),%eax
   1157e:	39 c2                	cmp    %eax,%edx
   11580:	7f 07                	jg     11589 <func_57+0x1e2a>
   11582:	b8 56 84 be 9e       	mov    $0x9ebe8456,%eax
   11587:	eb 05                	jmp    1158e <func_57+0x1e2f>
   11589:	b8 57 84 be 9e       	mov    $0x9ebe8457,%eax
   1158e:	4c 39 e0             	cmp    %r12,%rax
   11591:	0f 9d c0             	setge  %al
   11594:	0f b6 c0             	movzbl %al,%eax
   11597:	be 05 00 00 00       	mov    $0x5,%esi
   1159c:	89 c7                	mov    %eax,%edi
   1159e:	e8 87 4f ff ff       	callq  652a <safe_rshift_func_int16_t_s_s>
   115a3:	c7 85 38 ef ff ff 06 	movl   $0x6,-0x10c8(%rbp)
   115aa:	00 00 00 
   115ad:	48 8d 85 00 f6 ff ff 	lea    -0xa00(%rbp),%rax
   115b4:	48 8d 15 65 fd 00 00 	lea    0xfd65(%rip),%rdx        # 21320 <g_3041+0x1350>
   115bb:	b9 3c 00 00 00       	mov    $0x3c,%ecx
   115c0:	48 89 c7             	mov    %rax,%rdi
   115c3:	48 89 d6             	mov    %rdx,%rsi
   115c6:	f3 48 a5             	rep movsq %ds:(%rsi),%es:(%rdi)
   115c9:	48 c7 85 48 f0 ff ff 	movq   $0x0,-0xfb8(%rbp)
   115d0:	00 00 00 00 
   115d4:	48 8d 05 d9 ca 00 00 	lea    0xcad9(%rip),%rax        # 1e0b4 <g_65>
   115db:	48 89 85 50 f0 ff ff 	mov    %rax,-0xfb0(%rbp)
   115e2:	48 8d 85 68 ef ff ff 	lea    -0x1098(%rbp),%rax
   115e9:	48 89 85 80 f3 ff ff 	mov    %rax,-0xc80(%rbp)
   115f0:	48 8d 05 49 09 01 00 	lea    0x10949(%rip),%rax        # 21f40 <g_669>
   115f7:	48 89 85 88 f3 ff ff 	mov    %rax,-0xc78(%rbp)
   115fe:	48 8d 85 68 ef ff ff 	lea    -0x1098(%rbp),%rax
   11605:	48 89 85 90 f3 ff ff 	mov    %rax,-0xc70(%rbp)
   1160c:	48 8d 85 68 ef ff ff 	lea    -0x1098(%rbp),%rax
   11613:	48 89 85 98 f3 ff ff 	mov    %rax,-0xc68(%rbp)
   1161a:	48 8d 85 68 ef ff ff 	lea    -0x1098(%rbp),%rax
   11621:	48 89 85 a0 f3 ff ff 	mov    %rax,-0xc60(%rbp)
   11628:	48 8d 85 68 ef ff ff 	lea    -0x1098(%rbp),%rax
   1162f:	48 89 85 a8 f3 ff ff 	mov    %rax,-0xc58(%rbp)
   11636:	48 8d 05 03 09 01 00 	lea    0x10903(%rip),%rax        # 21f40 <g_669>
   1163d:	48 89 85 b0 f3 ff ff 	mov    %rax,-0xc50(%rbp)
   11644:	48 8d 85 68 ef ff ff 	lea    -0x1098(%rbp),%rax
   1164b:	48 89 85 b8 f3 ff ff 	mov    %rax,-0xc48(%rbp)
   11652:	48 8d 85 68 ef ff ff 	lea    -0x1098(%rbp),%rax
   11659:	48 89 85 c0 f3 ff ff 	mov    %rax,-0xc40(%rbp)
   11660:	48 8d 85 68 ef ff ff 	lea    -0x1098(%rbp),%rax
   11667:	48 89 85 c8 f3 ff ff 	mov    %rax,-0xc38(%rbp)
   1166e:	c6 85 65 ee ff ff 32 	movb   $0x32,-0x119b(%rbp)
   11675:	48 8d 85 c0 f9 ff ff 	lea    -0x640(%rbp),%rax
   1167c:	48 8d 15 3d 86 00 00 	lea    0x863d(%rip),%rdx        # 19cc0 <g_764+0x1c60>
   11683:	b9 4b 00 00 00       	mov    $0x4b,%ecx
   11688:	48 89 c7             	mov    %rax,%rdi
   1168b:	48 89 d6             	mov    %rdx,%rsi
   1168e:	f3 48 a5             	rep movsq %ds:(%rsi),%es:(%rdi)
   11691:	66 c7 85 72 ee ff ff 	movw   $0x41e1,-0x118e(%rbp)
   11698:	e1 41 
   1169a:	c7 85 34 ef ff ff 00 	movl   $0x0,-0x10cc(%rbp)
   116a1:	00 00 00 
   116a4:	eb 1a                	jmp    116c0 <func_57+0x1f61>
   116a6:	8b 85 34 ef ff ff    	mov    -0x10cc(%rbp),%eax
   116ac:	48 98                	cltq   
   116ae:	c7 84 85 e0 f2 ff ff 	movl   $0x1,-0xd20(%rbp,%rax,4)
   116b5:	01 00 00 00 
   116b9:	83 85 34 ef ff ff 01 	addl   $0x1,-0x10cc(%rbp)
   116c0:	83 bd 34 ef ff ff 06 	cmpl   $0x6,-0x10cc(%rbp)
   116c7:	7e dd                	jle    116a6 <func_57+0x1f47>
   116c9:	c6 05 9a 0f 01 00 e2 	movb   $0xe2,0x10f9a(%rip)        # 2266a <g_146>
   116d0:	e9 3a 01 00 00       	jmpq   1180f <func_57+0x20b0>
   116d5:	48 8d 05 c0 c9 00 00 	lea    0xc9c0(%rip),%rax        # 1e09c <g_4+0xc>
   116dc:	48 89 85 58 f0 ff ff 	mov    %rax,-0xfa8(%rbp)
   116e3:	48 8d 05 f6 cc 00 00 	lea    0xccf6(%rip),%rax        # 1e3e0 <g_701>
   116ea:	48 89 85 80 ef ff ff 	mov    %rax,-0x1080(%rbp)
   116f1:	48 8d 85 80 ef ff ff 	lea    -0x1080(%rbp),%rax
   116f8:	48 89 85 88 ef ff ff 	mov    %rax,-0x1078(%rbp)
   116ff:	48 8d 85 88 ef ff ff 	lea    -0x1078(%rbp),%rax
   11706:	48 89 85 90 ef ff ff 	mov    %rax,-0x1070(%rbp)
   1170d:	48 8d 85 90 ef ff ff 	lea    -0x1070(%rbp),%rax
   11714:	48 89 85 60 f0 ff ff 	mov    %rax,-0xfa0(%rbp)
   1171b:	48 c7 85 68 f0 ff ff 	movq   $0x0,-0xf98(%rbp)
   11722:	00 00 00 00 
   11726:	48 8d 05 af cc 00 00 	lea    0xccaf(%rip),%rax        # 1e3dc <g_687>
   1172d:	48 89 85 70 f0 ff ff 	mov    %rax,-0xf90(%rbp)
   11734:	48 8d 85 80 f1 ff ff 	lea    -0xe80(%rbp),%rax
   1173b:	48 83 c0 40          	add    $0x40,%rax
   1173f:	48 89 85 78 f0 ff ff 	mov    %rax,-0xf88(%rbp)
   11746:	c7 85 28 ef ff ff 00 	movl   $0x0,-0x10d8(%rbp)
   1174d:	00 00 00 
   11750:	eb 71                	jmp    117c3 <func_57+0x2064>
   11752:	c7 85 2c ef ff ff 00 	movl   $0x0,-0x10d4(%rbp)
   11759:	00 00 00 
   1175c:	eb 55                	jmp    117b3 <func_57+0x2054>
   1175e:	c7 85 30 ef ff ff 00 	movl   $0x0,-0x10d0(%rbp)
   11765:	00 00 00 
   11768:	eb 39                	jmp    117a3 <func_57+0x2044>
   1176a:	8b 85 30 ef ff ff    	mov    -0x10d0(%rbp),%eax
   11770:	48 98                	cltq   
   11772:	8b 95 28 ef ff ff    	mov    -0x10d8(%rbp),%edx
   11778:	48 63 ca             	movslq %edx,%rcx
   1177b:	8b 95 2c ef ff ff    	mov    -0x10d4(%rbp),%edx
   11781:	48 63 d2             	movslq %edx,%rdx
   11784:	48 01 c9             	add    %rcx,%rcx
   11787:	48 01 ca             	add    %rcx,%rdx
   1178a:	48 c1 e2 02          	shl    $0x2,%rdx
   1178e:	48 01 d0             	add    %rdx,%rax
   11791:	c7 84 85 70 f4 ff ff 	movl   $0xcde6542a,-0xb90(%rbp,%rax,4)
   11798:	2a 54 e6 cd 
   1179c:	83 85 30 ef ff ff 01 	addl   $0x1,-0x10d0(%rbp)
   117a3:	83 bd 30 ef ff ff 03 	cmpl   $0x3,-0x10d0(%rbp)
   117aa:	7e be                	jle    1176a <func_57+0x200b>
   117ac:	83 85 2c ef ff ff 01 	addl   $0x1,-0x10d4(%rbp)
   117b3:	83 bd 2c ef ff ff 01 	cmpl   $0x1,-0x10d4(%rbp)
   117ba:	7e a2                	jle    1175e <func_57+0x1fff>
   117bc:	83 85 28 ef ff ff 01 	addl   $0x1,-0x10d8(%rbp)
   117c3:	83 bd 28 ef ff ff 03 	cmpl   $0x3,-0x10d8(%rbp)
   117ca:	7e 86                	jle    11752 <func_57+0x1ff3>
   117cc:	80 bd 50 ee ff ff 00 	cmpb   $0x0,-0x11b0(%rbp)
   117d3:	74 12                	je     117e7 <func_57+0x2088>
   117d5:	48 8b 05 8c fd 00 00 	mov    0xfd8c(%rip),%rax        # 21568 <g_105>
   117dc:	48 8b 00             	mov    (%rax),%rax
   117df:	8b 00                	mov    (%rax),%eax
   117e1:	85 c0                	test   %eax,%eax
   117e3:	74 0e                	je     117f3 <func_57+0x2094>
   117e5:	eb 37                	jmp    1181e <func_57+0x20bf>
   117e7:	48 8b 85 58 f0 ff ff 	mov    -0xfa8(%rbp),%rax
   117ee:	e9 f1 05 00 00       	jmpq   11de4 <func_57+0x2685>
   117f3:	0f b6 05 70 0e 01 00 	movzbl 0x10e70(%rip),%eax        # 2266a <g_146>
   117fa:	0f be c0             	movsbl %al,%eax
   117fd:	be 08 00 00 00       	mov    $0x8,%esi
   11802:	89 c7                	mov    %eax,%edi
   11804:	e8 aa 4b ff ff       	callq  63b3 <safe_add_func_int16_t_s_s>
   11809:	88 05 5b 0e 01 00    	mov    %al,0x10e5b(%rip)        # 2266a <g_146>
   1180f:	0f b6 05 54 0e 01 00 	movzbl 0x10e54(%rip),%eax        # 2266a <g_146>
   11816:	3c e7                	cmp    $0xe7,%al
   11818:	0f 8c b7 fe ff ff    	jl     116d5 <func_57+0x1f76>
   1181e:	8b 85 54 ee ff ff    	mov    -0x11ac(%rbp),%eax
   11824:	85 c0                	test   %eax,%eax
   11826:	74 72                	je     1189a <func_57+0x213b>
   11828:	48 8b 85 50 ef ff ff 	mov    -0x10b0(%rbp),%rax
   1182f:	48 89 85 70 f6 ff ff 	mov    %rax,-0x990(%rbp)
   11836:	48 8b 85 70 f6 ff ff 	mov    -0x990(%rbp),%rax
   1183d:	48 85 c0             	test   %rax,%rax
   11840:	74 58                	je     1189a <func_57+0x213b>
   11842:	48 8b 85 18 f0 ff ff 	mov    -0xfe8(%rbp),%rax
   11849:	8b 10                	mov    (%rax),%edx
   1184b:	83 bd 44 ee ff ff 01 	cmpl   $0x1,-0x11bc(%rbp)
   11852:	0f 97 c0             	seta   %al
   11855:	0f b6 c0             	movzbl %al,%eax
   11858:	31 c2                	xor    %eax,%edx
   1185a:	48 8b 85 18 f0 ff ff 	mov    -0xfe8(%rbp),%rax
   11861:	89 10                	mov    %edx,(%rax)
   11863:	8b 9d 44 ee ff ff    	mov    -0x11bc(%rbp),%ebx
   11869:	44 8b a5 88 ee ff ff 	mov    -0x1178(%rbp),%r12d
   11870:	48 8b 05 71 c8 00 00 	mov    0xc871(%rip),%rax        # 1e0e8 <g_67+0x28>
   11877:	44 0f b7 e8          	movzwl %ax,%r13d
   1187b:	48 8b 05 be 06 01 00 	mov    0x106be(%rip),%rax        # 21f40 <g_669>
   11882:	48 8b 00             	mov    (%rax),%rax
   11885:	8b 10                	mov    (%rax),%edx
   11887:	8b 85 54 ee ff ff    	mov    -0x11ac(%rbp),%eax
   1188d:	39 c2                	cmp    %eax,%edx
   1188f:	0f 8f 20 02 00 00    	jg     11ab5 <func_57+0x2356>
   11895:	e9 f6 01 00 00       	jmpq   11a90 <func_57+0x2331>
   1189a:	48 8d 05 27 c8 00 00 	lea    0xc827(%rip),%rax        # 1e0c8 <g_67+0x8>
   118a1:	48 89 85 90 f0 ff ff 	mov    %rax,-0xf70(%rbp)
   118a8:	c7 85 3c ef ff ff ff 	movl   $0xffffffff,-0x10c4(%rbp)
   118af:	ff ff ff 
   118b2:	48 8d 85 7c ee ff ff 	lea    -0x1184(%rbp),%rax
   118b9:	48 89 85 98 f0 ff ff 	mov    %rax,-0xf68(%rbp)
   118c0:	48 c7 85 a0 f0 ff ff 	movq   $0x0,-0xf60(%rbp)
   118c7:	00 00 00 00 
   118cb:	48 8b 85 f8 ef ff ff 	mov    -0x1008(%rbp),%rax
   118d2:	0f b7 00             	movzwl (%rax),%eax
   118d5:	8d 50 ff             	lea    -0x1(%rax),%edx
   118d8:	48 8b 85 f8 ef ff ff 	mov    -0x1008(%rbp),%rax
   118df:	66 89 10             	mov    %dx,(%rax)
   118e2:	48 8b 85 f8 ef ff ff 	mov    -0x1008(%rbp),%rax
   118e9:	0f b7 00             	movzwl (%rax),%eax
   118ec:	44 0f b7 e8          	movzwl %ax,%r13d
   118f0:	8b 85 44 ee ff ff    	mov    -0x11bc(%rbp),%eax
   118f6:	48 89 c6             	mov    %rax,%rsi
   118f9:	48 c7 c7 ff ff ff ff 	mov    $0xffffffffffffffff,%rdi
   11900:	e8 3c 4f ff ff       	callq  6841 <safe_add_func_int64_t_s_s>
   11905:	49 89 c4             	mov    %rax,%r12
   11908:	8b 9d 44 ee ff ff    	mov    -0x11bc(%rbp),%ebx
   1190e:	48 8b 05 c3 05 01 00 	mov    0x105c3(%rip),%rax        # 21ed8 <g_346>
   11915:	0f b6 00             	movzbl (%rax),%eax
   11918:	44 0f be f0          	movsbl %al,%r14d
   1191c:	48 c7 c0 ff ff ff ff 	mov    $0xffffffffffffffff,%rax
   11923:	0f b7 c0             	movzwl %ax,%eax
   11926:	8b 95 44 ee ff ff    	mov    -0x11bc(%rbp),%edx
   1192c:	89 d6                	mov    %edx,%esi
   1192e:	89 c7                	mov    %eax,%edi
   11930:	e8 d1 54 ff ff       	callq  6e06 <safe_lshift_func_uint16_t_u_u>
   11935:	0f b7 c0             	movzwl %ax,%eax
   11938:	41 39 c6             	cmp    %eax,%r14d
   1193b:	0f 9c c0             	setl   %al
   1193e:	0f b6 c0             	movzbl %al,%eax
   11941:	39 85 3c ef ff ff    	cmp    %eax,-0x10c4(%rbp)
   11947:	0f 95 c0             	setne  %al
   1194a:	0f b6 c0             	movzbl %al,%eax
   1194d:	8b 95 3c ef ff ff    	mov    -0x10c4(%rbp),%edx
   11953:	89 d6                	mov    %edx,%esi
   11955:	89 c7                	mov    %eax,%edi
   11957:	e8 a9 52 ff ff       	callq  6c05 <safe_lshift_func_uint8_t_u_s>
   1195c:	0f b6 d0             	movzbl %al,%edx
   1195f:	8b 85 f0 f2 ff ff    	mov    -0xd10(%rbp),%eax
   11965:	21 d0                	and    %edx,%eax
   11967:	48 98                	cltq   
   11969:	48 ba 8a d7 fd ad 22 	movabs $0xb49ac222adfdd78a,%rdx
   11970:	c2 9a b4 
   11973:	48 21 d0             	and    %rdx,%rax
   11976:	48 89 de             	mov    %rbx,%rsi
   11979:	48 89 c7             	mov    %rax,%rdi
   1197c:	e8 ca 56 ff ff       	callq  704b <safe_sub_func_uint64_t_u_u>
   11981:	0f be c0             	movsbl %al,%eax
   11984:	be de ff ff ff       	mov    $0xffffffde,%esi
   11989:	89 c7                	mov    %eax,%edi
   1198b:	e8 a1 48 ff ff       	callq  6231 <safe_mod_func_int8_t_s_s>
   11990:	3c 01                	cmp    $0x1,%al
   11992:	0f 95 c0             	setne  %al
   11995:	0f b6 c0             	movzbl %al,%eax
   11998:	49 39 c4             	cmp    %rax,%r12
   1199b:	0f 9c c0             	setl   %al
   1199e:	0f b6 c0             	movzbl %al,%eax
   119a1:	41 39 c5             	cmp    %eax,%r13d
   119a4:	0f 9c c0             	setl   %al
   119a7:	0f b6 c0             	movzbl %al,%eax
   119aa:	be 02 00 00 00       	mov    $0x2,%esi
   119af:	89 c7                	mov    %eax,%edi
   119b1:	e8 9f 4a ff ff       	callq  6455 <safe_div_func_int16_t_s_s>
   119b6:	f7 d0                	not    %eax
   119b8:	0f be d0             	movsbl %al,%edx
   119bb:	48 8b 85 50 ef ff ff 	mov    -0x10b0(%rbp),%rax
   119c2:	0f b6 08             	movzbl (%rax),%ecx
   119c5:	48 8d 05 1c ca 00 00 	lea    0xca1c(%rip),%rax        # 1e3e8 <g_703>
   119cc:	48 39 85 90 f0 ff ff 	cmp    %rax,-0xf70(%rbp)
   119d3:	0f 95 c0             	setne  %al
   119d6:	89 c6                	mov    %eax,%esi
   119d8:	48 8b 85 50 ef ff ff 	mov    -0x10b0(%rbp),%rax
   119df:	31 f1                	xor    %esi,%ecx
   119e1:	88 08                	mov    %cl,(%rax)
   119e3:	0f b6 00             	movzbl (%rax),%eax
   119e6:	0f be c0             	movsbl %al,%eax
   119e9:	89 d6                	mov    %edx,%esi
   119eb:	89 c7                	mov    %eax,%edi
   119ed:	e8 00 48 ff ff       	callq  61f2 <safe_sub_func_int8_t_s_s>
   119f2:	0f be c0             	movsbl %al,%eax
   119f5:	89 c6                	mov    %eax,%esi
   119f7:	bf ff ff ff ff       	mov    $0xffffffff,%edi
   119fc:	e8 29 4b ff ff       	callq  652a <safe_rshift_func_int16_t_s_s>
   11a01:	98                   	cwtl   
   11a02:	be ff ff ff ff       	mov    $0xffffffff,%esi
   11a07:	89 c7                	mov    %eax,%edi
   11a09:	e8 f7 4b ff ff       	callq  6605 <safe_sub_func_int32_t_s_s>
   11a0e:	89 c2                	mov    %eax,%edx
   11a10:	8b 05 e2 c8 00 00    	mov    0xc8e2(%rip),%eax        # 1e2f8 <g_248+0x8>
   11a16:	c1 e0 04             	shl    $0x4,%eax
   11a19:	c1 f8 04             	sar    $0x4,%eax
   11a1c:	39 c2                	cmp    %eax,%edx
   11a1e:	0f 9e c0             	setle  %al
   11a21:	0f b6 d0             	movzbl %al,%edx
   11a24:	48 8b 85 10 f0 ff ff 	mov    -0xff0(%rbp),%rax
   11a2b:	48 89 10             	mov    %rdx,(%rax)
   11a2e:	48 8b 85 10 f0 ff ff 	mov    -0xff0(%rbp),%rax
   11a35:	48 8b 00             	mov    (%rax),%rax
   11a38:	48 be 91 40 66 db 6f 	movabs $0x307f9f6fdb664091,%rsi
   11a3f:	9f 7f 30 
   11a42:	48 89 c7             	mov    %rax,%rdi
   11a45:	e8 36 56 ff ff       	callq  7080 <safe_mod_func_uint64_t_u_u>
   11a4a:	0f b7 c0             	movzwl %ax,%eax
   11a4d:	be 00 00 00 00       	mov    $0x0,%esi
   11a52:	89 c7                	mov    %eax,%edi
   11a54:	e8 c6 52 ff ff       	callq  6d1f <safe_sub_func_uint16_t_u_u>
   11a59:	0f b7 d0             	movzwl %ax,%edx
   11a5c:	8b 85 f8 f2 ff ff    	mov    -0xd08(%rbp),%eax
   11a62:	39 c2                	cmp    %eax,%edx
   11a64:	0f 95 c0             	setne  %al
   11a67:	0f b6 c0             	movzbl %al,%eax
   11a6a:	89 85 e8 f2 ff ff    	mov    %eax,-0xd18(%rbp)
   11a70:	48 8b 15 c9 04 01 00 	mov    0x104c9(%rip),%rdx        # 21f40 <g_669>
   11a77:	48 8b 05 c2 04 01 00 	mov    0x104c2(%rip),%rax        # 21f40 <g_669>
   11a7e:	48 8b 12             	mov    (%rdx),%rdx
   11a81:	48 89 10             	mov    %rdx,(%rax)
   11a84:	48 8b 85 a0 f0 ff ff 	mov    -0xf60(%rbp),%rax
   11a8b:	e9 54 03 00 00       	jmpq   11de4 <func_57+0x2685>
   11a90:	0f b6 05 d3 0b 01 00 	movzbl 0x10bd3(%rip),%eax        # 2266a <g_146>
   11a97:	48 0f be c0          	movsbq %al,%rax
   11a9b:	48 89 c6             	mov    %rax,%rsi
   11a9e:	bf 01 00 00 00       	mov    $0x1,%edi
   11aa3:	e8 0c 4f ff ff       	callq  69b4 <safe_mod_func_int64_t_s_s>
   11aa8:	8b 85 54 ee ff ff    	mov    -0x11ac(%rbp),%eax
   11aae:	3d 78 cc 00 00       	cmp    $0xcc78,%eax
   11ab3:	74 07                	je     11abc <func_57+0x235d>
   11ab5:	b8 01 00 00 00       	mov    $0x1,%eax
   11aba:	eb 05                	jmp    11ac1 <func_57+0x2362>
   11abc:	b8 00 00 00 00       	mov    $0x0,%eax
   11ac1:	0f b7 c0             	movzwl %ax,%eax
   11ac4:	44 89 ee             	mov    %r13d,%esi
   11ac7:	89 c7                	mov    %eax,%edi
   11ac9:	e8 31 52 ff ff       	callq  6cff <safe_add_func_uint16_t_u_u>
   11ace:	0f b7 c0             	movzwl %ax,%eax
   11ad1:	f7 d0                	not    %eax
   11ad3:	89 c2                	mov    %eax,%edx
   11ad5:	8b 85 f0 f2 ff ff    	mov    -0xd10(%rbp),%eax
   11adb:	21 d0                	and    %edx,%eax
   11add:	ba 36 ce ff ff       	mov    $0xffffce36,%edx
   11ae2:	39 d0                	cmp    %edx,%eax
   11ae4:	74 16                	je     11afc <func_57+0x239d>
   11ae6:	48 8b 05 db 03 01 00 	mov    0x103db(%rip),%rax        # 21ec8 <g_289>
   11aed:	48 8b 00             	mov    (%rax),%rax
   11af0:	48 85 c0             	test   %rax,%rax
   11af3:	74 07                	je     11afc <func_57+0x239d>
   11af5:	b8 01 00 00 00       	mov    $0x1,%eax
   11afa:	eb 05                	jmp    11b01 <func_57+0x23a2>
   11afc:	b8 00 00 00 00       	mov    $0x0,%eax
   11b01:	48 98                	cltq   
   11b03:	48 8b 15 b6 c8 00 00 	mov    0xc8b6(%rip),%rdx        # 1e3c0 <g_438>
   11b0a:	48 89 c6             	mov    %rax,%rsi
   11b0d:	48 89 d7             	mov    %rdx,%rdi
   11b10:	e8 93 4d ff ff       	callq  68a8 <safe_sub_func_int64_t_s_s>
   11b15:	89 c2                	mov    %eax,%edx
   11b17:	8b 85 44 ee ff ff    	mov    -0x11bc(%rbp),%eax
   11b1d:	89 c6                	mov    %eax,%esi
   11b1f:	89 d7                	mov    %edx,%edi
   11b21:	e8 aa 53 ff ff       	callq  6ed0 <safe_sub_func_uint32_t_u_u>
   11b26:	83 e0 f9             	and    $0xfffffff9,%eax
   11b29:	89 c2                	mov    %eax,%edx
   11b2b:	48 8b 85 50 f0 ff ff 	mov    -0xfb0(%rbp),%rax
   11b32:	89 10                	mov    %edx,(%rax)
   11b34:	48 8b 85 50 f0 ff ff 	mov    -0xfb0(%rbp),%rax
   11b3b:	8b 00                	mov    (%rax),%eax
   11b3d:	8b 15 5d c5 00 00    	mov    0xc55d(%rip),%edx        # 1e0a0 <g_4+0x10>
   11b43:	39 d0                	cmp    %edx,%eax
   11b45:	0f 96 c0             	setbe  %al
   11b48:	0f b6 c0             	movzbl %al,%eax
   11b4b:	be 0f 00 00 00       	mov    $0xf,%esi
   11b50:	89 c7                	mov    %eax,%edi
   11b52:	e8 8a 49 ff ff       	callq  64e1 <safe_lshift_func_int16_t_s_u>
   11b57:	48 8b 85 88 f3 ff ff 	mov    -0xc78(%rbp),%rax
   11b5e:	48 85 c0             	test   %rax,%rax
   11b61:	0f 95 c0             	setne  %al
   11b64:	0f b6 c0             	movzbl %al,%eax
   11b67:	44 89 e6             	mov    %r12d,%esi
   11b6a:	89 c7                	mov    %eax,%edi
   11b6c:	e8 94 4a ff ff       	callq  6605 <safe_sub_func_int32_t_s_s>
   11b71:	48 8b 85 18 f0 ff ff 	mov    -0xfe8(%rbp),%rax
   11b78:	8b 10                	mov    (%rax),%edx
   11b7a:	48 8b 85 48 ef ff ff 	mov    -0x10b8(%rbp),%rax
   11b81:	66 89 10             	mov    %dx,(%rax)
   11b84:	0f b7 00             	movzwl (%rax),%eax
   11b87:	98                   	cwtl   
   11b88:	33 85 44 ee ff ff    	xor    -0x11bc(%rbp),%eax
   11b8e:	89 c2                	mov    %eax,%edx
   11b90:	48 8b 05 31 03 01 00 	mov    0x10331(%rip),%rax        # 21ec8 <g_289>
   11b97:	48 8b 00             	mov    (%rax),%rax
   11b9a:	48 21 c2             	and    %rax,%rdx
   11b9d:	0f b6 05 5d c7 00 00 	movzbl 0xc75d(%rip),%eax        # 1e301 <g_248+0x11>
   11ba4:	d0 e8                	shr    %al
   11ba6:	0f b6 c0             	movzbl %al,%eax
   11ba9:	48 31 d0             	xor    %rdx,%rax
   11bac:	48 83 c8 02          	or     $0x2,%rax
   11bb0:	48 89 c2             	mov    %rax,%rdx
   11bb3:	0f b6 05 b0 0a 01 00 	movzbl 0x10ab0(%rip),%eax        # 2266a <g_146>
   11bba:	48 0f be c0          	movsbq %al,%rax
   11bbe:	48 39 c2             	cmp    %rax,%rdx
   11bc1:	0f 92 c0             	setb   %al
   11bc4:	0f b6 c0             	movzbl %al,%eax
   11bc7:	be a5 37 8c f1       	mov    $0xf18c37a5,%esi
   11bcc:	89 c7                	mov    %eax,%edi
   11bce:	e8 2a 53 ff ff       	callq  6efd <safe_mod_func_uint32_t_u_u>
   11bd3:	8b 95 54 ee ff ff    	mov    -0x11ac(%rbp),%edx
   11bd9:	39 d0                	cmp    %edx,%eax
   11bdb:	0f 97 c0             	seta   %al
   11bde:	0f b6 c0             	movzbl %al,%eax
   11be1:	08 85 65 ee ff ff    	or     %al,-0x119b(%rbp)
   11be7:	48 0f be 85 65 ee ff 	movsbq -0x119b(%rbp),%rax
   11bee:	ff 
   11bef:	48 35 08 1c 8f 60    	xor    $0x608f1c08,%rax
   11bf5:	48 89 c2             	mov    %rax,%rdx
   11bf8:	8b 85 04 fb ff ff    	mov    -0x4fc(%rbp),%eax
   11bfe:	48 98                	cltq   
   11c00:	48 39 c2             	cmp    %rax,%rdx
   11c03:	0f 95 c0             	setne  %al
   11c06:	0f b6 c0             	movzbl %al,%eax
   11c09:	66 89 85 72 ee ff ff 	mov    %ax,-0x118e(%rbp)
   11c10:	89 de                	mov    %ebx,%esi
   11c12:	bf 01 00 00 00       	mov    $0x1,%edi
   11c17:	e8 e3 4a ff ff       	callq  66ff <safe_div_func_int32_t_s_s>
   11c1c:	89 c2                	mov    %eax,%edx
   11c1e:	48 8b 85 18 f0 ff ff 	mov    -0xfe8(%rbp),%rax
   11c25:	8b 00                	mov    (%rax),%eax
   11c27:	89 d6                	mov    %edx,%esi
   11c29:	89 c7                	mov    %eax,%edi
   11c2b:	e8 a0 52 ff ff       	callq  6ed0 <safe_sub_func_uint32_t_u_u>
   11c30:	83 f8 01             	cmp    $0x1,%eax
   11c33:	80 bd 50 ee ff ff 00 	cmpb   $0x0,-0x11b0(%rbp)
   11c3a:	74 66                	je     11ca2 <func_57+0x2543>
   11c3c:	c7 85 54 ee ff ff 1c 	movl   $0x1c,-0x11ac(%rbp)
   11c43:	00 00 00 
   11c46:	90                   	nop
   11c47:	8b 85 54 ee ff ff    	mov    -0x11ac(%rbp),%eax
   11c4d:	83 f8 10             	cmp    $0x10,%eax
   11c50:	74 1a                	je     11c6c <func_57+0x250d>
   11c52:	48 8d 05 57 c6 00 00 	lea    0xc657(%rip),%rax        # 1e2b0 <g_86>
   11c59:	48 89 85 88 f0 ff ff 	mov    %rax,-0xf78(%rbp)
   11c60:	48 8b 85 88 f0 ff ff 	mov    -0xf78(%rbp),%rax
   11c67:	e9 78 01 00 00       	jmpq   11de4 <func_57+0x2685>
   11c6c:	48 8b 85 60 ef ff ff 	mov    -0x10a0(%rbp),%rax
   11c73:	48 8b 00             	mov    (%rax),%rax
   11c76:	48 85 c0             	test   %rax,%rax
   11c79:	0f 95 c0             	setne  %al
   11c7c:	0f b6 c0             	movzbl %al,%eax
   11c7f:	f7 d0                	not    %eax
   11c81:	89 c2                	mov    %eax,%edx
   11c83:	48 8b 85 18 f0 ff ff 	mov    -0xfe8(%rbp),%rax
   11c8a:	89 10                	mov    %edx,(%rax)
   11c8c:	48 8b 05 cd 02 01 00 	mov    0x102cd(%rip),%rax        # 21f60 <g_849>
   11c93:	48 8b 95 00 f0 ff ff 	mov    -0x1000(%rbp),%rdx
   11c9a:	48 89 10             	mov    %rdx,(%rax)
   11c9d:	e9 ed 00 00 00       	jmpq   11d8f <func_57+0x2630>
   11ca2:	48 c7 85 80 f0 ff ff 	movq   $0x0,-0xf80(%rbp)
   11ca9:	00 00 00 00 
   11cad:	48 8b 05 9c 02 01 00 	mov    0x1029c(%rip),%rax        # 21f50 <g_847>
   11cb4:	48 8b 00             	mov    (%rax),%rax
   11cb7:	8b 18                	mov    (%rax),%ebx
   11cb9:	be 06 00 00 00       	mov    $0x6,%esi
   11cbe:	bf 03 00 00 00       	mov    $0x3,%edi
   11cc3:	e8 08 52 ff ff       	callq  6ed0 <safe_sub_func_uint32_t_u_u>
   11cc8:	85 c0                	test   %eax,%eax
   11cca:	74 0a                	je     11cd6 <func_57+0x2577>
   11ccc:	0f b7 05 dd c3 00 00 	movzwl 0xc3dd(%rip),%eax        # 1e0b0 <g_49>
   11cd3:	66 85 c0             	test   %ax,%ax
   11cd6:	89 de                	mov    %ebx,%esi
   11cd8:	bf 01 00 00 00       	mov    $0x1,%edi
   11cdd:	e8 d6 51 ff ff       	callq  6eb8 <safe_add_func_uint32_t_u_u>
   11ce2:	0f be d0             	movsbl %al,%edx
   11ce5:	48 8b 05 14 f8 00 00 	mov    0xf814(%rip),%rax        # 21500 <g_72>
   11cec:	0f b7 00             	movzwl (%rax),%eax
   11cef:	48 8b 05 4a 02 01 00 	mov    0x1024a(%rip),%rax        # 21f40 <g_669>
   11cf6:	48 8d 8d 54 ee ff ff 	lea    -0x11ac(%rbp),%rcx
   11cfd:	48 89 08             	mov    %rcx,(%rax)
   11d00:	48 8b 08             	mov    (%rax),%rcx
   11d03:	48 8d 85 54 ee ff ff 	lea    -0x11ac(%rbp),%rax
   11d0a:	48 39 c1             	cmp    %rax,%rcx
   11d0d:	0f 94 c0             	sete   %al
   11d10:	0f b6 c0             	movzbl %al,%eax
   11d13:	89 d6                	mov    %edx,%esi
   11d15:	89 c7                	mov    %eax,%edi
   11d17:	e8 f6 44 ff ff       	callq  6212 <safe_mul_func_int8_t_s_s>
   11d1c:	89 c2                	mov    %eax,%edx
   11d1e:	48 8b 85 48 ef ff ff 	mov    -0x10b8(%rbp),%rax
   11d25:	66 0f be d2          	movsbw %dl,%dx
   11d29:	66 89 10             	mov    %dx,(%rax)
   11d2c:	0f b7 00             	movzwl (%rax),%eax
   11d2f:	0f bf d0             	movswl %ax,%edx
   11d32:	8b 05 78 c6 00 00    	mov    0xc678(%rip),%eax        # 1e3b0 <g_312>
   11d38:	98                   	cwtl   
   11d39:	89 d6                	mov    %edx,%esi
   11d3b:	89 c7                	mov    %eax,%edi
   11d3d:	e8 91 46 ff ff       	callq  63d3 <safe_sub_func_int16_t_s_s>
   11d42:	48 0f bf d0          	movswq %ax,%rdx
   11d46:	48 0f be 85 50 ee ff 	movsbq -0x11b0(%rbp),%rax
   11d4d:	ff 
   11d4e:	48 89 d6             	mov    %rdx,%rsi
   11d51:	48 89 c7             	mov    %rax,%rdi
   11d54:	e8 f2 52 ff ff       	callq  704b <safe_sub_func_uint64_t_u_u>
   11d59:	66 89 05 34 c9 00 00 	mov    %ax,0xc934(%rip)        # 1e694 <g_863>
   11d60:	0f b7 05 2d c9 00 00 	movzwl 0xc92d(%rip),%eax        # 1e694 <g_863>
   11d67:	0f b7 d0             	movzwl %ax,%edx
   11d6a:	8b 05 44 c3 00 00    	mov    0xc344(%rip),%eax        # 1e0b4 <g_65>
   11d70:	39 c2                	cmp    %eax,%edx
   11d72:	0f 95 c0             	setne  %al
   11d75:	0f b6 d0             	movzbl %al,%edx
   11d78:	8b 05 36 c5 00 00    	mov    0xc536(%rip),%eax        # 1e2b4 <g_86+0x4>
   11d7e:	39 c2                	cmp    %eax,%edx
   11d80:	0f 9f c0             	setg   %al
   11d83:	0f b6 d0             	movzbl %al,%edx
   11d86:	48 8b 85 18 f0 ff ff 	mov    -0xfe8(%rbp),%rax
   11d8d:	89 10                	mov    %edx,(%rax)
   11d8f:	c7 05 17 c6 00 00 00 	movl   $0x0,0xc617(%rip)        # 1e3b0 <g_312>
   11d96:	00 00 00 
   11d99:	eb 37                	jmp    11dd2 <func_57+0x2673>
   11d9b:	48 8d 85 54 ee ff ff 	lea    -0x11ac(%rbp),%rax
   11da2:	48 89 85 58 ee ff ff 	mov    %rax,-0x11a8(%rbp)
   11da9:	48 8b 05 90 01 01 00 	mov    0x10190(%rip),%rax        # 21f40 <g_669>
   11db0:	48 8b 95 58 ee ff ff 	mov    -0x11a8(%rbp),%rdx
   11db7:	48 89 10             	mov    %rdx,(%rax)
   11dba:	8b 05 f0 c5 00 00    	mov    0xc5f0(%rip),%eax        # 1e3b0 <g_312>
   11dc0:	be 01 00 00 00       	mov    $0x1,%esi
   11dc5:	89 c7                	mov    %eax,%edi
   11dc7:	e8 ec 50 ff ff       	callq  6eb8 <safe_add_func_uint32_t_u_u>
   11dcc:	89 05 de c5 00 00    	mov    %eax,0xc5de(%rip)        # 1e3b0 <g_312>
   11dd2:	8b 05 d8 c5 00 00    	mov    0xc5d8(%rip),%eax        # 1e3b0 <g_312>
   11dd8:	83 f8 11             	cmp    $0x11,%eax
   11ddb:	77 be                	ja     11d9b <func_57+0x263c>
   11ddd:	48 8b 85 d8 ef ff ff 	mov    -0x1028(%rbp),%rax
   11de4:	48 8b 5d c8          	mov    -0x38(%rbp),%rbx
   11de8:	64 48 33 1c 25 28 00 	xor    %fs:0x28,%rbx
   11def:	00 00 
   11df1:	74 05                	je     11df8 <func_57+0x2699>
   11df3:	e8 78 42 ff ff       	callq  6070 <__stack_chk_fail@plt>
   11df8:	48 81 c4 98 11 00 00 	add    $0x1198,%rsp
   11dff:	5b                   	pop    %rbx
   11e00:	41 5c                	pop    %r12
   11e02:	41 5d                	pop    %r13
   11e04:	41 5e                	pop    %r14
   11e06:	41 5f                	pop    %r15
   11e08:	5d                   	pop    %rbp
   11e09:	c3                   	retq   

0000000000011e0a <main>:
   11e0a:	f3 0f 1e fa          	endbr64 
   11e0e:	55                   	push   %rbp
   11e0f:	48 89 e5             	mov    %rsp,%rbp
   11e12:	48 83 ec 50          	sub    $0x50,%rsp
   11e16:	89 7d dc             	mov    %edi,-0x24(%rbp)
   11e19:	48 89 75 d0          	mov    %rsi,-0x30(%rbp)
   11e1d:	64 48 8b 04 25 28 00 	mov    %fs:0x28,%rax
   11e24:	00 00 
   11e26:	48 89 45 f8          	mov    %rax,-0x8(%rbp)
   11e2a:	31 c0                	xor    %eax,%eax
   11e2c:	c7 45 f4 00 00 00 00 	movl   $0x0,-0xc(%rbp)
   11e33:	83 7d dc 02          	cmpl   $0x2,-0x24(%rbp)
   11e37:	74 25                	je     11e5e <main+0x54>
   11e39:	48 8b 45 d0          	mov    -0x30(%rbp),%rax
   11e3d:	48 83 c0 08          	add    $0x8,%rax
   11e41:	48 8b 00             	mov    (%rax),%rax
   11e44:	48 8d 35 cd 80 00 00 	lea    0x80cd(%rip),%rsi        # 19f18 <g_764+0x1eb8>
   11e4b:	48 89 c7             	mov    %rax,%rdi
   11e4e:	e8 3d 42 ff ff       	callq  6090 <strcmp@plt>
   11e53:	85 c0                	test   %eax,%eax
   11e55:	74 07                	je     11e5e <main+0x54>
   11e57:	c7 45 f4 01 00 00 00 	movl   $0x1,-0xc(%rbp)
   11e5e:	e8 26 43 ff ff       	callq  6189 <platform_main_begin>
   11e63:	e8 30 57 ff ff       	callq  7598 <crc32_gentab>
   11e68:	48 8d 45 b0          	lea    -0x50(%rbp),%rax
   11e6c:	48 89 c7             	mov    %rax,%rdi
   11e6f:	e8 41 59 ff ff       	callq  77b5 <func_1>
   11e74:	c7 45 e8 00 00 00 00 	movl   $0x0,-0x18(%rbp)
   11e7b:	eb 4a                	jmp    11ec7 <main+0xbd>
   11e7d:	8b 45 e8             	mov    -0x18(%rbp),%eax
   11e80:	48 98                	cltq   
   11e82:	48 8d 14 c5 00 00 00 	lea    0x0(,%rax,8),%rdx
   11e89:	00 
   11e8a:	48 8d 05 af c1 00 00 	lea    0xc1af(%rip),%rax        # 1e040 <g_2>
   11e91:	48 8b 04 02          	mov    (%rdx,%rax,1),%rax
   11e95:	8b 55 f4             	mov    -0xc(%rbp),%edx
   11e98:	48 8d 35 7b 80 00 00 	lea    0x807b(%rip),%rsi        # 19f1a <g_764+0x1eba>
   11e9f:	48 89 c7             	mov    %rax,%rdi
   11ea2:	e8 4c 58 ff ff       	callq  76f3 <transparent_crc>
   11ea7:	83 7d f4 00          	cmpl   $0x0,-0xc(%rbp)
   11eab:	74 16                	je     11ec3 <main+0xb9>
   11ead:	8b 45 e8             	mov    -0x18(%rbp),%eax
   11eb0:	89 c6                	mov    %eax,%esi
   11eb2:	48 8d 3d 68 80 00 00 	lea    0x8068(%rip),%rdi        # 19f21 <g_764+0x1ec1>
   11eb9:	b8 00 00 00 00       	mov    $0x0,%eax
   11ebe:	e8 bd 41 ff ff       	callq  6080 <printf@plt>
   11ec3:	83 45 e8 01          	addl   $0x1,-0x18(%rbp)
   11ec7:	83 7d e8 08          	cmpl   $0x8,-0x18(%rbp)
   11ecb:	7e b0                	jle    11e7d <main+0x73>
   11ecd:	c7 45 e8 00 00 00 00 	movl   $0x0,-0x18(%rbp)
   11ed4:	eb 4b                	jmp    11f21 <main+0x117>
   11ed6:	8b 45 e8             	mov    -0x18(%rbp),%eax
   11ed9:	48 98                	cltq   
   11edb:	48 8d 14 85 00 00 00 	lea    0x0(,%rax,4),%rdx
   11ee2:	00 
   11ee3:	48 8d 05 a6 c1 00 00 	lea    0xc1a6(%rip),%rax        # 1e090 <g_4>
   11eea:	8b 04 02             	mov    (%rdx,%rax,1),%eax
   11eed:	48 98                	cltq   
   11eef:	8b 55 f4             	mov    -0xc(%rbp),%edx
   11ef2:	48 8d 35 36 80 00 00 	lea    0x8036(%rip),%rsi        # 19f2f <g_764+0x1ecf>
   11ef9:	48 89 c7             	mov    %rax,%rdi
   11efc:	e8 f2 57 ff ff       	callq  76f3 <transparent_crc>
   11f01:	83 7d f4 00          	cmpl   $0x0,-0xc(%rbp)
   11f05:	74 16                	je     11f1d <main+0x113>
   11f07:	8b 45 e8             	mov    -0x18(%rbp),%eax
   11f0a:	89 c6                	mov    %eax,%esi
   11f0c:	48 8d 3d 0e 80 00 00 	lea    0x800e(%rip),%rdi        # 19f21 <g_764+0x1ec1>
   11f13:	b8 00 00 00 00       	mov    $0x0,%eax
   11f18:	e8 63 41 ff ff       	callq  6080 <printf@plt>
   11f1d:	83 45 e8 01          	addl   $0x1,-0x18(%rbp)
   11f21:	83 7d e8 06          	cmpl   $0x6,-0x18(%rbp)
   11f25:	7e af                	jle    11ed6 <main+0xcc>
   11f27:	0f b6 05 7e c1 00 00 	movzbl 0xc17e(%rip),%eax        # 1e0ac <g_28>
   11f2e:	0f b6 c0             	movzbl %al,%eax
   11f31:	8b 55 f4             	mov    -0xc(%rbp),%edx
   11f34:	48 8d 35 fb 7f 00 00 	lea    0x7ffb(%rip),%rsi        # 19f36 <g_764+0x1ed6>
   11f3b:	48 89 c7             	mov    %rax,%rdi
   11f3e:	e8 b0 57 ff ff       	callq  76f3 <transparent_crc>
   11f43:	0f b7 05 64 c1 00 00 	movzwl 0xc164(%rip),%eax        # 1e0ae <g_34>
   11f4a:	0f b7 c0             	movzwl %ax,%eax
   11f4d:	8b 55 f4             	mov    -0xc(%rbp),%edx
   11f50:	48 8d 35 e4 7f 00 00 	lea    0x7fe4(%rip),%rsi        # 19f3b <g_764+0x1edb>
   11f57:	48 89 c7             	mov    %rax,%rdi
   11f5a:	e8 94 57 ff ff       	callq  76f3 <transparent_crc>
   11f5f:	0f b7 05 4a c1 00 00 	movzwl 0xc14a(%rip),%eax        # 1e0b0 <g_49>
   11f66:	48 0f bf c0          	movswq %ax,%rax
   11f6a:	8b 55 f4             	mov    -0xc(%rbp),%edx
   11f6d:	48 8d 35 cc 7f 00 00 	lea    0x7fcc(%rip),%rsi        # 19f40 <g_764+0x1ee0>
   11f74:	48 89 c7             	mov    %rax,%rdi
   11f77:	e8 77 57 ff ff       	callq  76f3 <transparent_crc>
   11f7c:	8b 05 32 c1 00 00    	mov    0xc132(%rip),%eax        # 1e0b4 <g_65>
   11f82:	89 c1                	mov    %eax,%ecx
   11f84:	8b 45 f4             	mov    -0xc(%rbp),%eax
   11f87:	89 c2                	mov    %eax,%edx
   11f89:	48 8d 35 b5 7f 00 00 	lea    0x7fb5(%rip),%rsi        # 19f45 <g_764+0x1ee5>
   11f90:	48 89 cf             	mov    %rcx,%rdi
   11f93:	e8 5b 57 ff ff       	callq  76f3 <transparent_crc>
   11f98:	c7 45 e8 00 00 00 00 	movl   $0x0,-0x18(%rbp)
   11f9f:	eb 4f                	jmp    11ff0 <main+0x1e6>
   11fa1:	8b 45 e8             	mov    -0x18(%rbp),%eax
   11fa4:	48 98                	cltq   
   11fa6:	48 8d 14 c5 00 00 00 	lea    0x0(,%rax,8),%rdx
   11fad:	00 
   11fae:	48 8d 05 0b c1 00 00 	lea    0xc10b(%rip),%rax        # 1e0c0 <g_67>
   11fb5:	48 8b 04 02          	mov    (%rdx,%rax,1),%rax
   11fb9:	48 89 c1             	mov    %rax,%rcx
   11fbc:	8b 45 f4             	mov    -0xc(%rbp),%eax
   11fbf:	89 c2                	mov    %eax,%edx
   11fc1:	48 8d 35 82 7f 00 00 	lea    0x7f82(%rip),%rsi        # 19f4a <g_764+0x1eea>
   11fc8:	48 89 cf             	mov    %rcx,%rdi
   11fcb:	e8 23 57 ff ff       	callq  76f3 <transparent_crc>
   11fd0:	83 7d f4 00          	cmpl   $0x0,-0xc(%rbp)
   11fd4:	74 16                	je     11fec <main+0x1e2>
   11fd6:	8b 45 e8             	mov    -0x18(%rbp),%eax
   11fd9:	89 c6                	mov    %eax,%esi
   11fdb:	48 8d 3d 3f 7f 00 00 	lea    0x7f3f(%rip),%rdi        # 19f21 <g_764+0x1ec1>
   11fe2:	b8 00 00 00 00       	mov    $0x0,%eax
   11fe7:	e8 94 40 ff ff       	callq  6080 <printf@plt>
   11fec:	83 45 e8 01          	addl   $0x1,-0x18(%rbp)
   11ff0:	83 7d e8 06          	cmpl   $0x6,-0x18(%rbp)
   11ff4:	7e ab                	jle    11fa1 <main+0x197>
   11ff6:	c7 45 e8 00 00 00 00 	movl   $0x0,-0x18(%rbp)
   11ffd:	e9 9d 00 00 00       	jmpq   1209f <main+0x295>
   12002:	c7 45 ec 00 00 00 00 	movl   $0x0,-0x14(%rbp)
   12009:	e9 83 00 00 00       	jmpq   12091 <main+0x287>
   1200e:	c7 45 f0 00 00 00 00 	movl   $0x0,-0x10(%rbp)
   12015:	eb 70                	jmp    12087 <main+0x27d>
   12017:	8b 45 f0             	mov    -0x10(%rbp),%eax
   1201a:	48 63 c8             	movslq %eax,%rcx
   1201d:	8b 45 e8             	mov    -0x18(%rbp),%eax
   12020:	48 63 d0             	movslq %eax,%rdx
   12023:	8b 45 ec             	mov    -0x14(%rbp),%eax
   12026:	48 63 f0             	movslq %eax,%rsi
   12029:	48 89 d0             	mov    %rdx,%rax
   1202c:	48 c1 e0 03          	shl    $0x3,%rax
   12030:	48 01 d0             	add    %rdx,%rax
   12033:	48 01 f0             	add    %rsi,%rax
   12036:	48 c1 e0 02          	shl    $0x2,%rax
   1203a:	48 01 c8             	add    %rcx,%rax
   1203d:	48 8d 14 00          	lea    (%rax,%rax,1),%rdx
   12041:	48 8d 05 b8 c0 00 00 	lea    0xc0b8(%rip),%rax        # 1e100 <g_73>
   12048:	0f b7 04 02          	movzwl (%rdx,%rax,1),%eax
   1204c:	0f b7 c0             	movzwl %ax,%eax
   1204f:	8b 55 f4             	mov    -0xc(%rbp),%edx
   12052:	48 8d 35 f9 7e 00 00 	lea    0x7ef9(%rip),%rsi        # 19f52 <g_764+0x1ef2>
   12059:	48 89 c7             	mov    %rax,%rdi
   1205c:	e8 92 56 ff ff       	callq  76f3 <transparent_crc>
   12061:	83 7d f4 00          	cmpl   $0x0,-0xc(%rbp)
   12065:	74 1c                	je     12083 <main+0x279>
   12067:	8b 4d f0             	mov    -0x10(%rbp),%ecx
   1206a:	8b 55 ec             	mov    -0x14(%rbp),%edx
   1206d:	8b 45 e8             	mov    -0x18(%rbp),%eax
   12070:	89 c6                	mov    %eax,%esi
   12072:	48 8d 3d e7 7e 00 00 	lea    0x7ee7(%rip),%rdi        # 19f60 <g_764+0x1f00>
   12079:	b8 00 00 00 00       	mov    $0x0,%eax
   1207e:	e8 fd 3f ff ff       	callq  6080 <printf@plt>
   12083:	83 45 f0 01          	addl   $0x1,-0x10(%rbp)
   12087:	83 7d f0 03          	cmpl   $0x3,-0x10(%rbp)
   1208b:	7e 8a                	jle    12017 <main+0x20d>
   1208d:	83 45 ec 01          	addl   $0x1,-0x14(%rbp)
   12091:	83 7d ec 08          	cmpl   $0x8,-0x14(%rbp)
   12095:	0f 8e 73 ff ff ff    	jle    1200e <main+0x204>
   1209b:	83 45 e8 01          	addl   $0x1,-0x18(%rbp)
   1209f:	83 7d e8 05          	cmpl   $0x5,-0x18(%rbp)
   120a3:	0f 8e 59 ff ff ff    	jle    12002 <main+0x1f8>
   120a9:	c7 45 e8 00 00 00 00 	movl   $0x0,-0x18(%rbp)
   120b0:	eb 49                	jmp    120fb <main+0x2f1>
   120b2:	8b 45 e8             	mov    -0x18(%rbp),%eax
   120b5:	48 98                	cltq   
   120b7:	48 8d 14 00          	lea    (%rax,%rax,1),%rdx
   120bb:	48 8d 05 a6 05 01 00 	lea    0x105a6(%rip),%rax        # 22668 <g_75>
   120c2:	0f b7 04 02          	movzwl (%rdx,%rax,1),%eax
   120c6:	0f b7 c0             	movzwl %ax,%eax
   120c9:	8b 55 f4             	mov    -0xc(%rbp),%edx
   120cc:	48 8d 35 a3 7e 00 00 	lea    0x7ea3(%rip),%rsi        # 19f76 <g_764+0x1f16>
   120d3:	48 89 c7             	mov    %rax,%rdi
   120d6:	e8 18 56 ff ff       	callq  76f3 <transparent_crc>
   120db:	83 7d f4 00          	cmpl   $0x0,-0xc(%rbp)
   120df:	74 16                	je     120f7 <main+0x2ed>
   120e1:	8b 45 e8             	mov    -0x18(%rbp),%eax
   120e4:	89 c6                	mov    %eax,%esi
   120e6:	48 8d 3d 34 7e 00 00 	lea    0x7e34(%rip),%rdi        # 19f21 <g_764+0x1ec1>
   120ed:	b8 00 00 00 00       	mov    $0x0,%eax
   120f2:	e8 89 3f ff ff       	callq  6080 <printf@plt>
   120f7:	83 45 e8 01          	addl   $0x1,-0x18(%rbp)
   120fb:	83 7d e8 00          	cmpl   $0x0,-0x18(%rbp)
   120ff:	7e b1                	jle    120b2 <main+0x2a8>
   12101:	c7 45 e8 00 00 00 00 	movl   $0x0,-0x18(%rbp)
   12108:	eb 4b                	jmp    12155 <main+0x34b>
   1210a:	8b 45 e8             	mov    -0x18(%rbp),%eax
   1210d:	48 98                	cltq   
   1210f:	48 8d 14 85 00 00 00 	lea    0x0(,%rax,4),%rdx
   12116:	00 
   12117:	48 8d 05 92 c1 00 00 	lea    0xc192(%rip),%rax        # 1e2b0 <g_86>
   1211e:	8b 04 02             	mov    (%rdx,%rax,1),%eax
   12121:	48 98                	cltq   
   12123:	8b 55 f4             	mov    -0xc(%rbp),%edx
   12126:	48 8d 35 51 7e 00 00 	lea    0x7e51(%rip),%rsi        # 19f7e <g_764+0x1f1e>
   1212d:	48 89 c7             	mov    %rax,%rdi
   12130:	e8 be 55 ff ff       	callq  76f3 <transparent_crc>
   12135:	83 7d f4 00          	cmpl   $0x0,-0xc(%rbp)
   12139:	74 16                	je     12151 <main+0x347>
   1213b:	8b 45 e8             	mov    -0x18(%rbp),%eax
   1213e:	89 c6                	mov    %eax,%esi
   12140:	48 8d 3d da 7d 00 00 	lea    0x7dda(%rip),%rdi        # 19f21 <g_764+0x1ec1>
   12147:	b8 00 00 00 00       	mov    $0x0,%eax
   1214c:	e8 2f 3f ff ff       	callq  6080 <printf@plt>
   12151:	83 45 e8 01          	addl   $0x1,-0x18(%rbp)
   12155:	83 7d e8 02          	cmpl   $0x2,-0x18(%rbp)
   12159:	7e af                	jle    1210a <main+0x300>
   1215b:	8b 05 5b c1 00 00    	mov    0xc15b(%rip),%eax        # 1e2bc <g_122>
   12161:	48 98                	cltq   
   12163:	8b 55 f4             	mov    -0xc(%rbp),%edx
   12166:	48 8d 35 19 7e 00 00 	lea    0x7e19(%rip),%rsi        # 19f86 <g_764+0x1f26>
   1216d:	48 89 c7             	mov    %rax,%rdi
   12170:	e8 7e 55 ff ff       	callq  76f3 <transparent_crc>
   12175:	0f b6 05 ee 04 01 00 	movzbl 0x104ee(%rip),%eax        # 2266a <g_146>
   1217c:	48 0f be c0          	movsbq %al,%rax
   12180:	8b 55 f4             	mov    -0xc(%rbp),%edx
   12183:	48 8d 35 02 7e 00 00 	lea    0x7e02(%rip),%rsi        # 19f8c <g_764+0x1f2c>
   1218a:	48 89 c7             	mov    %rax,%rdi
   1218d:	e8 61 55 ff ff       	callq  76f3 <transparent_crc>
   12192:	48 8b 05 27 c1 00 00 	mov    0xc127(%rip),%rax        # 1e2c0 <g_155>
   12199:	8b 55 f4             	mov    -0xc(%rbp),%edx
   1219c:	48 8d 35 ef 7d 00 00 	lea    0x7def(%rip),%rsi        # 19f92 <g_764+0x1f32>
   121a3:	48 89 c7             	mov    %rax,%rdi
   121a6:	e8 48 55 ff ff       	callq  76f3 <transparent_crc>
   121ab:	48 8b 05 16 c1 00 00 	mov    0xc116(%rip),%rax        # 1e2c8 <g_155+0x8>
   121b2:	c1 e0 04             	shl    $0x4,%eax
   121b5:	c1 f8 04             	sar    $0x4,%eax
   121b8:	48 98                	cltq   
   121ba:	8b 55 f4             	mov    -0xc(%rbp),%edx
   121bd:	48 8d 35 d7 7d 00 00 	lea    0x7dd7(%rip),%rsi        # 19f9b <g_764+0x1f3b>
   121c4:	48 89 c7             	mov    %rax,%rdi
   121c7:	e8 27 55 ff ff       	callq  76f3 <transparent_crc>
   121cc:	48 8b 05 f5 c0 00 00 	mov    0xc0f5(%rip),%rax        # 1e2c8 <g_155+0x8>
   121d3:	c1 e0 02             	shl    $0x2,%eax
   121d6:	c1 f8 1e             	sar    $0x1e,%eax
   121d9:	48 0f be c0          	movsbq %al,%rax
   121dd:	8b 55 f4             	mov    -0xc(%rbp),%edx
   121e0:	48 8d 35 bd 7d 00 00 	lea    0x7dbd(%rip),%rsi        # 19fa4 <g_764+0x1f44>
   121e7:	48 89 c7             	mov    %rax,%rdi
   121ea:	e8 04 55 ff ff       	callq  76f3 <transparent_crc>
   121ef:	48 8b 05 d2 c0 00 00 	mov    0xc0d2(%rip),%rax        # 1e2c8 <g_155+0x8>
   121f6:	48 c1 e0 04          	shl    $0x4,%rax
   121fa:	48 c1 f8 22          	sar    $0x22,%rax
   121fe:	48 98                	cltq   
   12200:	8b 55 f4             	mov    -0xc(%rbp),%edx
   12203:	48 8d 35 a3 7d 00 00 	lea    0x7da3(%rip),%rsi        # 19fad <g_764+0x1f4d>
   1220a:	48 89 c7             	mov    %rax,%rdi
   1220d:	e8 e1 54 ff ff       	callq  76f3 <transparent_crc>
   12212:	48 8b 05 af c0 00 00 	mov    0xc0af(%rip),%rax        # 1e2c8 <g_155+0x8>
   12219:	48 c1 e8 3c          	shr    $0x3c,%rax
   1221d:	48 89 c2             	mov    %rax,%rdx
   12220:	48 8b 05 a9 c0 00 00 	mov    0xc0a9(%rip),%rax        # 1e2d0 <g_155+0x10>
   12227:	25 ff 01 00 00       	and    $0x1ff,%eax
   1222c:	48 c1 e0 04          	shl    $0x4,%rax
   12230:	48 09 d0             	or     %rdx,%rax
   12233:	0f b7 c0             	movzwl %ax,%eax
   12236:	8b 55 f4             	mov    -0xc(%rbp),%edx
   12239:	48 8d 35 76 7d 00 00 	lea    0x7d76(%rip),%rsi        # 19fb6 <g_764+0x1f56>
   12240:	48 89 c7             	mov    %rax,%rdi
   12243:	e8 ab 54 ff ff       	callq  76f3 <transparent_crc>
   12248:	48 8b 05 81 c0 00 00 	mov    0xc081(%rip),%rax        # 1e2d0 <g_155+0x10>
   1224f:	48 c1 e8 09          	shr    $0x9,%rax
   12253:	83 e0 7f             	and    $0x7f,%eax
   12256:	0f b6 c0             	movzbl %al,%eax
   12259:	8b 55 f4             	mov    -0xc(%rbp),%edx
   1225c:	48 8d 35 5c 7d 00 00 	lea    0x7d5c(%rip),%rsi        # 19fbf <g_764+0x1f5f>
   12263:	48 89 c7             	mov    %rax,%rdi
   12266:	e8 88 54 ff ff       	callq  76f3 <transparent_crc>
   1226b:	48 8b 05 5e c0 00 00 	mov    0xc05e(%rip),%rax        # 1e2d0 <g_155+0x10>
   12272:	c1 e0 02             	shl    $0x2,%eax
   12275:	c1 f8 12             	sar    $0x12,%eax
   12278:	48 0f bf c0          	movswq %ax,%rax
   1227c:	8b 55 f4             	mov    -0xc(%rbp),%edx
   1227f:	48 8d 35 42 7d 00 00 	lea    0x7d42(%rip),%rsi        # 19fc8 <g_764+0x1f68>
   12286:	48 89 c7             	mov    %rax,%rdi
   12289:	e8 65 54 ff ff       	callq  76f3 <transparent_crc>
   1228e:	48 8b 05 3b c0 00 00 	mov    0xc03b(%rip),%rax        # 1e2d0 <g_155+0x10>
   12295:	48 c1 e0 12          	shl    $0x12,%rax
   12299:	48 c1 f8 30          	sar    $0x30,%rax
   1229d:	48 0f bf c0          	movswq %ax,%rax
   122a1:	8b 55 f4             	mov    -0xc(%rbp),%edx
   122a4:	48 8d 35 26 7d 00 00 	lea    0x7d26(%rip),%rsi        # 19fd1 <g_764+0x1f71>
   122ab:	48 89 c7             	mov    %rax,%rdi
   122ae:	e8 40 54 ff ff       	callq  76f3 <transparent_crc>
   122b3:	c7 45 e8 00 00 00 00 	movl   $0x0,-0x18(%rbp)
   122ba:	eb 6a                	jmp    12326 <main+0x51c>
   122bc:	c7 45 ec 00 00 00 00 	movl   $0x0,-0x14(%rbp)
   122c3:	eb 57                	jmp    1231c <main+0x512>
   122c5:	8b 45 ec             	mov    -0x14(%rbp),%eax
   122c8:	48 98                	cltq   
   122ca:	8b 55 e8             	mov    -0x18(%rbp),%edx
   122cd:	48 63 d2             	movslq %edx,%rdx
   122d0:	48 c1 e2 02          	shl    $0x2,%rdx
   122d4:	48 01 c2             	add    %rax,%rdx
   122d7:	48 8d 05 02 c0 00 00 	lea    0xc002(%rip),%rax        # 1e2e0 <g_176>
   122de:	48 01 d0             	add    %rdx,%rax
   122e1:	0f b6 00             	movzbl (%rax),%eax
   122e4:	0f b6 c0             	movzbl %al,%eax
   122e7:	8b 55 f4             	mov    -0xc(%rbp),%edx
   122ea:	48 8d 35 e9 7c 00 00 	lea    0x7ce9(%rip),%rsi        # 19fda <g_764+0x1f7a>
   122f1:	48 89 c7             	mov    %rax,%rdi
   122f4:	e8 fa 53 ff ff       	callq  76f3 <transparent_crc>
   122f9:	83 7d f4 00          	cmpl   $0x0,-0xc(%rbp)
   122fd:	74 19                	je     12318 <main+0x50e>
   122ff:	8b 55 ec             	mov    -0x14(%rbp),%edx
   12302:	8b 45 e8             	mov    -0x18(%rbp),%eax
   12305:	89 c6                	mov    %eax,%esi
   12307:	48 8d 3d d8 7c 00 00 	lea    0x7cd8(%rip),%rdi        # 19fe6 <g_764+0x1f86>
   1230e:	b8 00 00 00 00       	mov    $0x0,%eax
   12313:	e8 68 3d ff ff       	callq  6080 <printf@plt>
   12318:	83 45 ec 01          	addl   $0x1,-0x14(%rbp)
   1231c:	83 7d ec 03          	cmpl   $0x3,-0x14(%rbp)
   12320:	7e a3                	jle    122c5 <main+0x4bb>
   12322:	83 45 e8 01          	addl   $0x1,-0x18(%rbp)
   12326:	83 7d e8 03          	cmpl   $0x3,-0x18(%rbp)
   1232a:	7e 90                	jle    122bc <main+0x4b2>
   1232c:	48 8b 05 bd bf 00 00 	mov    0xbfbd(%rip),%rax        # 1e2f0 <g_248>
   12333:	8b 55 f4             	mov    -0xc(%rbp),%edx
   12336:	48 8d 35 bb 7c 00 00 	lea    0x7cbb(%rip),%rsi        # 19ff8 <g_764+0x1f98>
   1233d:	48 89 c7             	mov    %rax,%rdi
   12340:	e8 ae 53 ff ff       	callq  76f3 <transparent_crc>
   12345:	8b 05 ad bf 00 00    	mov    0xbfad(%rip),%eax        # 1e2f8 <g_248+0x8>
   1234b:	c1 e0 04             	shl    $0x4,%eax
   1234e:	c1 f8 04             	sar    $0x4,%eax
   12351:	48 98                	cltq   
   12353:	8b 55 f4             	mov    -0xc(%rbp),%edx
   12356:	48 8d 35 a4 7c 00 00 	lea    0x7ca4(%rip),%rsi        # 1a001 <g_764+0x1fa1>
   1235d:	48 89 c7             	mov    %rax,%rdi
   12360:	e8 8e 53 ff ff       	callq  76f3 <transparent_crc>
   12365:	0f b6 05 8f bf 00 00 	movzbl 0xbf8f(%rip),%eax        # 1e2fb <g_248+0xb>
   1236c:	c1 e0 02             	shl    $0x2,%eax
   1236f:	c0 f8 06             	sar    $0x6,%al
   12372:	48 0f be c0          	movsbq %al,%rax
   12376:	8b 55 f4             	mov    -0xc(%rbp),%edx
   12379:	48 8d 35 8a 7c 00 00 	lea    0x7c8a(%rip),%rsi        # 1a00a <g_764+0x1faa>
   12380:	48 89 c7             	mov    %rax,%rdi
   12383:	e8 6b 53 ff ff       	callq  76f3 <transparent_crc>
   12388:	48 8b 05 69 bf 00 00 	mov    0xbf69(%rip),%rax        # 1e2f8 <g_248+0x8>
   1238f:	48 c1 e0 04          	shl    $0x4,%rax
   12393:	48 c1 f8 22          	sar    $0x22,%rax
   12397:	48 98                	cltq   
   12399:	8b 55 f4             	mov    -0xc(%rbp),%edx
   1239c:	48 8d 35 70 7c 00 00 	lea    0x7c70(%rip),%rsi        # 1a013 <g_764+0x1fb3>
   123a3:	48 89 c7             	mov    %rax,%rdi
   123a6:	e8 48 53 ff ff       	callq  76f3 <transparent_crc>
   123ab:	48 8b 05 46 bf 00 00 	mov    0xbf46(%rip),%rax        # 1e2f8 <g_248+0x8>
   123b2:	48 c1 e8 3c          	shr    $0x3c,%rax
   123b6:	48 89 c2             	mov    %rax,%rdx
   123b9:	48 8b 05 40 bf 00 00 	mov    0xbf40(%rip),%rax        # 1e300 <g_248+0x10>
   123c0:	25 ff 01 00 00       	and    $0x1ff,%eax
   123c5:	48 c1 e0 04          	shl    $0x4,%rax
   123c9:	48 09 d0             	or     %rdx,%rax
   123cc:	0f b7 c0             	movzwl %ax,%eax
   123cf:	8b 55 f4             	mov    -0xc(%rbp),%edx
   123d2:	48 8d 35 43 7c 00 00 	lea    0x7c43(%rip),%rsi        # 1a01c <g_764+0x1fbc>
   123d9:	48 89 c7             	mov    %rax,%rdi
   123dc:	e8 12 53 ff ff       	callq  76f3 <transparent_crc>
   123e1:	0f b6 05 19 bf 00 00 	movzbl 0xbf19(%rip),%eax        # 1e301 <g_248+0x11>
   123e8:	d0 e8                	shr    %al
   123ea:	0f b6 c0             	movzbl %al,%eax
   123ed:	8b 55 f4             	mov    -0xc(%rbp),%edx
   123f0:	48 8d 35 2e 7c 00 00 	lea    0x7c2e(%rip),%rsi        # 1a025 <g_764+0x1fc5>
   123f7:	48 89 c7             	mov    %rax,%rdi
   123fa:	e8 f4 52 ff ff       	callq  76f3 <transparent_crc>
   123ff:	48 8b 05 fa be 00 00 	mov    0xbefa(%rip),%rax        # 1e300 <g_248+0x10>
   12406:	c1 e0 02             	shl    $0x2,%eax
   12409:	c1 f8 12             	sar    $0x12,%eax
   1240c:	48 0f bf c0          	movswq %ax,%rax
   12410:	8b 55 f4             	mov    -0xc(%rbp),%edx
   12413:	48 8d 35 14 7c 00 00 	lea    0x7c14(%rip),%rsi        # 1a02e <g_764+0x1fce>
   1241a:	48 89 c7             	mov    %rax,%rdi
   1241d:	e8 d1 52 ff ff       	callq  76f3 <transparent_crc>
   12422:	48 8b 05 d7 be 00 00 	mov    0xbed7(%rip),%rax        # 1e300 <g_248+0x10>
   12429:	48 c1 e0 12          	shl    $0x12,%rax
   1242d:	48 c1 f8 30          	sar    $0x30,%rax
   12431:	48 0f bf c0          	movswq %ax,%rax
   12435:	8b 55 f4             	mov    -0xc(%rbp),%edx
   12438:	48 8d 35 f8 7b 00 00 	lea    0x7bf8(%rip),%rsi        # 1a037 <g_764+0x1fd7>
   1243f:	48 89 c7             	mov    %rax,%rdi
   12442:	e8 ac 52 ff ff       	callq  76f3 <transparent_crc>
   12447:	c7 45 e8 00 00 00 00 	movl   $0x0,-0x18(%rbp)
   1244e:	e9 a5 02 00 00       	jmpq   126f8 <main+0x8ee>
   12453:	8b 45 e8             	mov    -0x18(%rbp),%eax
   12456:	48 63 d0             	movslq %eax,%rdx
   12459:	48 89 d0             	mov    %rdx,%rax
   1245c:	48 c1 e0 02          	shl    $0x2,%rax
   12460:	48 01 d0             	add    %rdx,%rax
   12463:	48 01 c0             	add    %rax,%rax
   12466:	48 01 d0             	add    %rdx,%rax
   12469:	48 01 c0             	add    %rax,%rax
   1246c:	48 89 c2             	mov    %rax,%rdx
   1246f:	48 8d 05 aa be 00 00 	lea    0xbeaa(%rip),%rax        # 1e320 <g_277>
   12476:	48 8b 04 02          	mov    (%rdx,%rax,1),%rax
   1247a:	8b 55 f4             	mov    -0xc(%rbp),%edx
   1247d:	48 8d 35 bc 7b 00 00 	lea    0x7bbc(%rip),%rsi        # 1a040 <g_764+0x1fe0>
   12484:	48 89 c7             	mov    %rax,%rdi
   12487:	e8 67 52 ff ff       	callq  76f3 <transparent_crc>
   1248c:	8b 45 e8             	mov    -0x18(%rbp),%eax
   1248f:	48 63 d0             	movslq %eax,%rdx
   12492:	48 89 d0             	mov    %rdx,%rax
   12495:	48 c1 e0 02          	shl    $0x2,%rax
   12499:	48 01 d0             	add    %rdx,%rax
   1249c:	48 01 c0             	add    %rax,%rax
   1249f:	48 01 d0             	add    %rdx,%rax
   124a2:	48 01 c0             	add    %rax,%rax
   124a5:	48 89 c2             	mov    %rax,%rdx
   124a8:	48 8d 05 71 be 00 00 	lea    0xbe71(%rip),%rax        # 1e320 <g_277>
   124af:	0f b7 4c 02 08       	movzwl 0x8(%rdx,%rax,1),%ecx
   124b4:	0f b7 c9             	movzwl %cx,%ecx
   124b7:	0f b7 44 02 0a       	movzwl 0xa(%rdx,%rax,1),%eax
   124bc:	0f b7 c0             	movzwl %ax,%eax
   124bf:	25 ff 0f 00 00       	and    $0xfff,%eax
   124c4:	48 c1 e0 10          	shl    $0x10,%rax
   124c8:	48 09 c8             	or     %rcx,%rax
   124cb:	48 c1 e0 24          	shl    $0x24,%rax
   124cf:	48 c1 f8 24          	sar    $0x24,%rax
   124d3:	48 98                	cltq   
   124d5:	8b 55 f4             	mov    -0xc(%rbp),%edx
   124d8:	48 8d 35 6d 7b 00 00 	lea    0x7b6d(%rip),%rsi        # 1a04c <g_764+0x1fec>
   124df:	48 89 c7             	mov    %rax,%rdi
   124e2:	e8 0c 52 ff ff       	callq  76f3 <transparent_crc>
   124e7:	8b 45 e8             	mov    -0x18(%rbp),%eax
   124ea:	48 63 d0             	movslq %eax,%rdx
   124ed:	48 89 d0             	mov    %rdx,%rax
   124f0:	48 c1 e0 02          	shl    $0x2,%rax
   124f4:	48 01 d0             	add    %rdx,%rax
   124f7:	48 01 c0             	add    %rax,%rax
   124fa:	48 01 d0             	add    %rdx,%rax
   124fd:	48 01 c0             	add    %rax,%rax
   12500:	48 89 c2             	mov    %rax,%rdx
   12503:	48 8d 05 16 be 00 00 	lea    0xbe16(%rip),%rax        # 1e320 <g_277>
   1250a:	0f b7 44 02 0a       	movzwl 0xa(%rdx,%rax,1),%eax
   1250f:	c1 e0 02             	shl    $0x2,%eax
   12512:	66 c1 f8 0e          	sar    $0xe,%ax
   12516:	48 0f be c0          	movsbq %al,%rax
   1251a:	8b 55 f4             	mov    -0xc(%rbp),%edx
   1251d:	48 8d 35 34 7b 00 00 	lea    0x7b34(%rip),%rsi        # 1a058 <g_764+0x1ff8>
   12524:	48 89 c7             	mov    %rax,%rdi
   12527:	e8 c7 51 ff ff       	callq  76f3 <transparent_crc>
   1252c:	8b 45 e8             	mov    -0x18(%rbp),%eax
   1252f:	48 63 d0             	movslq %eax,%rdx
   12532:	48 89 d0             	mov    %rdx,%rax
   12535:	48 c1 e0 02          	shl    $0x2,%rax
   12539:	48 01 d0             	add    %rdx,%rax
   1253c:	48 01 c0             	add    %rax,%rax
   1253f:	48 01 d0             	add    %rdx,%rax
   12542:	48 01 c0             	add    %rax,%rax
   12545:	48 89 c2             	mov    %rax,%rdx
   12548:	48 8d 05 d1 bd 00 00 	lea    0xbdd1(%rip),%rax        # 1e320 <g_277>
   1254f:	0f b7 4c 02 0a       	movzwl 0xa(%rdx,%rax,1),%ecx
   12554:	66 c1 e9 0e          	shr    $0xe,%cx
   12558:	0f b7 c9             	movzwl %cx,%ecx
   1255b:	0f b7 74 02 0c       	movzwl 0xc(%rdx,%rax,1),%esi
   12560:	0f b7 f6             	movzwl %si,%esi
   12563:	48 c1 e6 02          	shl    $0x2,%rsi
   12567:	48 09 f1             	or     %rsi,%rcx
   1256a:	0f b7 44 02 0e       	movzwl 0xe(%rdx,%rax,1),%eax
   1256f:	0f b7 c0             	movzwl %ax,%eax
   12572:	25 ff 0f 00 00       	and    $0xfff,%eax
   12577:	48 c1 e0 12          	shl    $0x12,%rax
   1257b:	48 09 c8             	or     %rcx,%rax
   1257e:	48 c1 e0 22          	shl    $0x22,%rax
   12582:	48 c1 f8 22          	sar    $0x22,%rax
   12586:	48 98                	cltq   
   12588:	8b 55 f4             	mov    -0xc(%rbp),%edx
   1258b:	48 8d 35 d2 7a 00 00 	lea    0x7ad2(%rip),%rsi        # 1a064 <g_764+0x2004>
   12592:	48 89 c7             	mov    %rax,%rdi
   12595:	e8 59 51 ff ff       	callq  76f3 <transparent_crc>
   1259a:	8b 45 e8             	mov    -0x18(%rbp),%eax
   1259d:	48 63 d0             	movslq %eax,%rdx
   125a0:	48 89 d0             	mov    %rdx,%rax
   125a3:	48 c1 e0 02          	shl    $0x2,%rax
   125a7:	48 01 d0             	add    %rdx,%rax
   125aa:	48 01 c0             	add    %rax,%rax
   125ad:	48 01 d0             	add    %rdx,%rax
   125b0:	48 01 c0             	add    %rax,%rax
   125b3:	48 89 c2             	mov    %rax,%rdx
   125b6:	48 8d 05 63 bd 00 00 	lea    0xbd63(%rip),%rax        # 1e320 <g_277>
   125bd:	0f b7 4c 02 0e       	movzwl 0xe(%rdx,%rax,1),%ecx
   125c2:	66 c1 e9 0c          	shr    $0xc,%cx
   125c6:	0f b7 c9             	movzwl %cx,%ecx
   125c9:	0f b7 44 02 10       	movzwl 0x10(%rdx,%rax,1),%eax
   125ce:	0f b7 c0             	movzwl %ax,%eax
   125d1:	25 ff 01 00 00       	and    $0x1ff,%eax
   125d6:	48 c1 e0 04          	shl    $0x4,%rax
   125da:	48 09 c8             	or     %rcx,%rax
   125dd:	0f b7 c0             	movzwl %ax,%eax
   125e0:	8b 55 f4             	mov    -0xc(%rbp),%edx
   125e3:	48 8d 35 86 7a 00 00 	lea    0x7a86(%rip),%rsi        # 1a070 <g_764+0x2010>
   125ea:	48 89 c7             	mov    %rax,%rdi
   125ed:	e8 01 51 ff ff       	callq  76f3 <transparent_crc>
   125f2:	8b 45 e8             	mov    -0x18(%rbp),%eax
   125f5:	48 63 d0             	movslq %eax,%rdx
   125f8:	48 89 d0             	mov    %rdx,%rax
   125fb:	48 c1 e0 02          	shl    $0x2,%rax
   125ff:	48 01 d0             	add    %rdx,%rax
   12602:	48 01 c0             	add    %rax,%rax
   12605:	48 01 d0             	add    %rdx,%rax
   12608:	48 01 c0             	add    %rax,%rax
   1260b:	48 89 c2             	mov    %rax,%rdx
   1260e:	48 8d 05 1b bd 00 00 	lea    0xbd1b(%rip),%rax        # 1e330 <g_277+0x10>
   12615:	0f b7 04 02          	movzwl (%rdx,%rax,1),%eax
   12619:	66 c1 e8 09          	shr    $0x9,%ax
   1261d:	0f b6 c0             	movzbl %al,%eax
   12620:	8b 55 f4             	mov    -0xc(%rbp),%edx
   12623:	48 8d 35 52 7a 00 00 	lea    0x7a52(%rip),%rsi        # 1a07c <g_764+0x201c>
   1262a:	48 89 c7             	mov    %rax,%rdi
   1262d:	e8 c1 50 ff ff       	callq  76f3 <transparent_crc>
   12632:	8b 45 e8             	mov    -0x18(%rbp),%eax
   12635:	48 63 d0             	movslq %eax,%rdx
   12638:	48 89 d0             	mov    %rdx,%rax
   1263b:	48 c1 e0 02          	shl    $0x2,%rax
   1263f:	48 01 d0             	add    %rdx,%rax
   12642:	48 01 c0             	add    %rax,%rax
   12645:	48 01 d0             	add    %rdx,%rax
   12648:	48 01 c0             	add    %rax,%rax
   1264b:	48 89 c2             	mov    %rax,%rdx
   1264e:	48 8d 05 db bc 00 00 	lea    0xbcdb(%rip),%rax        # 1e330 <g_277+0x10>
   12655:	0f b7 44 02 02       	movzwl 0x2(%rdx,%rax,1),%eax
   1265a:	c1 e0 02             	shl    $0x2,%eax
   1265d:	66 c1 f8 02          	sar    $0x2,%ax
   12661:	48 0f bf c0          	movswq %ax,%rax
   12665:	8b 55 f4             	mov    -0xc(%rbp),%edx
   12668:	48 8d 35 19 7a 00 00 	lea    0x7a19(%rip),%rsi        # 1a088 <g_764+0x2028>
   1266f:	48 89 c7             	mov    %rax,%rdi
   12672:	e8 7c 50 ff ff       	callq  76f3 <transparent_crc>
   12677:	8b 45 e8             	mov    -0x18(%rbp),%eax
   1267a:	48 63 d0             	movslq %eax,%rdx
   1267d:	48 89 d0             	mov    %rdx,%rax
   12680:	48 c1 e0 02          	shl    $0x2,%rax
   12684:	48 01 d0             	add    %rdx,%rax
   12687:	48 01 c0             	add    %rax,%rax
   1268a:	48 01 d0             	add    %rdx,%rax
   1268d:	48 01 c0             	add    %rax,%rax
   12690:	48 89 c2             	mov    %rax,%rdx
   12693:	48 8d 05 96 bc 00 00 	lea    0xbc96(%rip),%rax        # 1e330 <g_277+0x10>
   1269a:	0f b7 4c 02 02       	movzwl 0x2(%rdx,%rax,1),%ecx
   1269f:	66 c1 e9 0e          	shr    $0xe,%cx
   126a3:	0f b7 c9             	movzwl %cx,%ecx
   126a6:	0f b7 44 02 04       	movzwl 0x4(%rdx,%rax,1),%eax
   126ab:	0f b7 c0             	movzwl %ax,%eax
   126ae:	25 ff 3f 00 00       	and    $0x3fff,%eax
   126b3:	48 c1 e0 02          	shl    $0x2,%rax
   126b7:	48 09 c8             	or     %rcx,%rax
   126ba:	48 c1 e0 30          	shl    $0x30,%rax
   126be:	48 c1 f8 30          	sar    $0x30,%rax
   126c2:	48 0f bf c0          	movswq %ax,%rax
   126c6:	8b 55 f4             	mov    -0xc(%rbp),%edx
   126c9:	48 8d 35 c4 79 00 00 	lea    0x79c4(%rip),%rsi        # 1a094 <g_764+0x2034>
   126d0:	48 89 c7             	mov    %rax,%rdi
   126d3:	e8 1b 50 ff ff       	callq  76f3 <transparent_crc>
   126d8:	83 7d f4 00          	cmpl   $0x0,-0xc(%rbp)
   126dc:	74 16                	je     126f4 <main+0x8ea>
   126de:	8b 45 e8             	mov    -0x18(%rbp),%eax
   126e1:	89 c6                	mov    %eax,%esi
   126e3:	48 8d 3d 37 78 00 00 	lea    0x7837(%rip),%rdi        # 19f21 <g_764+0x1ec1>
   126ea:	b8 00 00 00 00       	mov    $0x0,%eax
   126ef:	e8 8c 39 ff ff       	callq  6080 <printf@plt>
   126f4:	83 45 e8 01          	addl   $0x1,-0x18(%rbp)
   126f8:	83 7d e8 05          	cmpl   $0x5,-0x18(%rbp)
   126fc:	0f 8e 51 fd ff ff    	jle    12453 <main+0x649>
   12702:	48 8b 05 9f bc 00 00 	mov    0xbc9f(%rip),%rax        # 1e3a8 <g_290>
   12709:	8b 55 f4             	mov    -0xc(%rbp),%edx
   1270c:	48 8d 35 8d 79 00 00 	lea    0x798d(%rip),%rsi        # 1a0a0 <g_764+0x2040>
   12713:	48 89 c7             	mov    %rax,%rdi
   12716:	e8 d8 4f ff ff       	callq  76f3 <transparent_crc>
   1271b:	c7 45 e8 00 00 00 00 	movl   $0x0,-0x18(%rbp)
   12722:	eb 46                	jmp    1276a <main+0x960>
   12724:	8b 45 e8             	mov    -0x18(%rbp),%eax
   12727:	48 98                	cltq   
   12729:	48 8d 15 48 ff 00 00 	lea    0xff48(%rip),%rdx        # 22678 <g_293>
   12730:	0f b6 04 10          	movzbl (%rax,%rdx,1),%eax
   12734:	48 0f be c0          	movsbq %al,%rax
   12738:	8b 55 f4             	mov    -0xc(%rbp),%edx
   1273b:	48 8d 35 64 79 00 00 	lea    0x7964(%rip),%rsi        # 1a0a6 <g_764+0x2046>
   12742:	48 89 c7             	mov    %rax,%rdi
   12745:	e8 a9 4f ff ff       	callq  76f3 <transparent_crc>
   1274a:	83 7d f4 00          	cmpl   $0x0,-0xc(%rbp)
   1274e:	74 16                	je     12766 <main+0x95c>
   12750:	8b 45 e8             	mov    -0x18(%rbp),%eax
   12753:	89 c6                	mov    %eax,%esi
   12755:	48 8d 3d c5 77 00 00 	lea    0x77c5(%rip),%rdi        # 19f21 <g_764+0x1ec1>
   1275c:	b8 00 00 00 00       	mov    $0x0,%eax
   12761:	e8 1a 39 ff ff       	callq  6080 <printf@plt>
   12766:	83 45 e8 01          	addl   $0x1,-0x18(%rbp)
   1276a:	83 7d e8 09          	cmpl   $0x9,-0x18(%rbp)
   1276e:	7e b4                	jle    12724 <main+0x91a>
   12770:	8b 05 3a bc 00 00    	mov    0xbc3a(%rip),%eax        # 1e3b0 <g_312>
   12776:	89 c1                	mov    %eax,%ecx
   12778:	8b 45 f4             	mov    -0xc(%rbp),%eax
   1277b:	89 c2                	mov    %eax,%edx
   1277d:	48 8d 35 2b 79 00 00 	lea    0x792b(%rip),%rsi        # 1a0af <g_764+0x204f>
   12784:	48 89 cf             	mov    %rcx,%rdi
   12787:	e8 67 4f ff ff       	callq  76f3 <transparent_crc>
   1278c:	0f b6 05 21 bc 00 00 	movzbl 0xbc21(%rip),%eax        # 1e3b4 <g_329>
   12793:	0f b6 c0             	movzbl %al,%eax
   12796:	8b 55 f4             	mov    -0xc(%rbp),%edx
   12799:	48 8d 35 15 79 00 00 	lea    0x7915(%rip),%rsi        # 1a0b5 <g_764+0x2055>
   127a0:	48 89 c7             	mov    %rax,%rdi
   127a3:	e8 4b 4f ff ff       	callq  76f3 <transparent_crc>
   127a8:	0f b6 05 06 bc 00 00 	movzbl 0xbc06(%rip),%eax        # 1e3b5 <g_347>
   127af:	48 0f be c0          	movsbq %al,%rax
   127b3:	8b 55 f4             	mov    -0xc(%rbp),%edx
   127b6:	48 8d 35 fe 78 00 00 	lea    0x78fe(%rip),%rsi        # 1a0bb <g_764+0x205b>
   127bd:	48 89 c7             	mov    %rax,%rdi
   127c0:	e8 2e 4f ff ff       	callq  76f3 <transparent_crc>
   127c5:	48 8b 05 f4 bb 00 00 	mov    0xbbf4(%rip),%rax        # 1e3c0 <g_438>
   127cc:	8b 55 f4             	mov    -0xc(%rbp),%edx
   127cf:	48 8d 35 eb 78 00 00 	lea    0x78eb(%rip),%rsi        # 1a0c1 <g_764+0x2061>
   127d6:	48 89 c7             	mov    %rax,%rdi
   127d9:	e8 15 4f ff ff       	callq  76f3 <transparent_crc>
   127de:	48 8b 05 e3 bb 00 00 	mov    0xbbe3(%rip),%rax        # 1e3c8 <g_438+0x8>
   127e5:	c1 e0 04             	shl    $0x4,%eax
   127e8:	c1 f8 04             	sar    $0x4,%eax
   127eb:	48 98                	cltq   
   127ed:	8b 55 f4             	mov    -0xc(%rbp),%edx
   127f0:	48 8d 35 d3 78 00 00 	lea    0x78d3(%rip),%rsi        # 1a0ca <g_764+0x206a>
   127f7:	48 89 c7             	mov    %rax,%rdi
   127fa:	e8 f4 4e ff ff       	callq  76f3 <transparent_crc>
   127ff:	48 8b 05 c2 bb 00 00 	mov    0xbbc2(%rip),%rax        # 1e3c8 <g_438+0x8>
   12806:	c1 e0 02             	shl    $0x2,%eax
   12809:	c1 f8 1e             	sar    $0x1e,%eax
   1280c:	48 0f be c0          	movsbq %al,%rax
   12810:	8b 55 f4             	mov    -0xc(%rbp),%edx
   12813:	48 8d 35 b9 78 00 00 	lea    0x78b9(%rip),%rsi        # 1a0d3 <g_764+0x2073>
   1281a:	48 89 c7             	mov    %rax,%rdi
   1281d:	e8 d1 4e ff ff       	callq  76f3 <transparent_crc>
   12822:	48 8b 05 9f bb 00 00 	mov    0xbb9f(%rip),%rax        # 1e3c8 <g_438+0x8>
   12829:	48 c1 e0 04          	shl    $0x4,%rax
   1282d:	48 c1 f8 22          	sar    $0x22,%rax
   12831:	48 98                	cltq   
   12833:	8b 55 f4             	mov    -0xc(%rbp),%edx
   12836:	48 8d 35 9f 78 00 00 	lea    0x789f(%rip),%rsi        # 1a0dc <g_764+0x207c>
   1283d:	48 89 c7             	mov    %rax,%rdi
   12840:	e8 ae 4e ff ff       	callq  76f3 <transparent_crc>
   12845:	48 8b 05 7c bb 00 00 	mov    0xbb7c(%rip),%rax        # 1e3c8 <g_438+0x8>
   1284c:	48 c1 e8 3c          	shr    $0x3c,%rax
   12850:	48 89 c2             	mov    %rax,%rdx
   12853:	48 8b 05 76 bb 00 00 	mov    0xbb76(%rip),%rax        # 1e3d0 <g_438+0x10>
   1285a:	25 ff 01 00 00       	and    $0x1ff,%eax
   1285f:	48 c1 e0 04          	shl    $0x4,%rax
   12863:	48 09 d0             	or     %rdx,%rax
   12866:	0f b7 c0             	movzwl %ax,%eax
   12869:	8b 55 f4             	mov    -0xc(%rbp),%edx
   1286c:	48 8d 35 72 78 00 00 	lea    0x7872(%rip),%rsi        # 1a0e5 <g_764+0x2085>
   12873:	48 89 c7             	mov    %rax,%rdi
   12876:	e8 78 4e ff ff       	callq  76f3 <transparent_crc>
   1287b:	48 8b 05 4e bb 00 00 	mov    0xbb4e(%rip),%rax        # 1e3d0 <g_438+0x10>
   12882:	48 c1 e8 09          	shr    $0x9,%rax
   12886:	83 e0 7f             	and    $0x7f,%eax
   12889:	0f b6 c0             	movzbl %al,%eax
   1288c:	8b 55 f4             	mov    -0xc(%rbp),%edx
   1288f:	48 8d 35 58 78 00 00 	lea    0x7858(%rip),%rsi        # 1a0ee <g_764+0x208e>
   12896:	48 89 c7             	mov    %rax,%rdi
   12899:	e8 55 4e ff ff       	callq  76f3 <transparent_crc>
   1289e:	48 8b 05 2b bb 00 00 	mov    0xbb2b(%rip),%rax        # 1e3d0 <g_438+0x10>
   128a5:	c1 e0 02             	shl    $0x2,%eax
   128a8:	c1 f8 12             	sar    $0x12,%eax
   128ab:	48 0f bf c0          	movswq %ax,%rax
   128af:	8b 55 f4             	mov    -0xc(%rbp),%edx
   128b2:	48 8d 35 3e 78 00 00 	lea    0x783e(%rip),%rsi        # 1a0f7 <g_764+0x2097>
   128b9:	48 89 c7             	mov    %rax,%rdi
   128bc:	e8 32 4e ff ff       	callq  76f3 <transparent_crc>
   128c1:	48 8b 05 08 bb 00 00 	mov    0xbb08(%rip),%rax        # 1e3d0 <g_438+0x10>
   128c8:	48 c1 e0 12          	shl    $0x12,%rax
   128cc:	48 c1 f8 30          	sar    $0x30,%rax
   128d0:	48 0f bf c0          	movswq %ax,%rax
   128d4:	8b 55 f4             	mov    -0xc(%rbp),%edx
   128d7:	48 8d 35 22 78 00 00 	lea    0x7822(%rip),%rsi        # 1a100 <g_764+0x20a0>
   128de:	48 89 c7             	mov    %rax,%rdi
   128e1:	e8 0d 4e ff ff       	callq  76f3 <transparent_crc>
   128e6:	8b 05 ec ba 00 00    	mov    0xbaec(%rip),%eax        # 1e3d8 <g_516>
   128ec:	89 c1                	mov    %eax,%ecx
   128ee:	8b 45 f4             	mov    -0xc(%rbp),%eax
   128f1:	89 c2                	mov    %eax,%edx
   128f3:	48 8d 35 0f 78 00 00 	lea    0x780f(%rip),%rsi        # 1a109 <g_764+0x20a9>
   128fa:	48 89 cf             	mov    %rcx,%rdi
   128fd:	e8 f1 4d ff ff       	callq  76f3 <transparent_crc>
   12902:	0f b6 05 d3 ba 00 00 	movzbl 0xbad3(%rip),%eax        # 1e3dc <g_687>
   12909:	48 0f be c0          	movsbq %al,%rax
   1290d:	8b 55 f4             	mov    -0xc(%rbp),%edx
   12910:	48 8d 35 f8 77 00 00 	lea    0x77f8(%rip),%rsi        # 1a10f <g_764+0x20af>
   12917:	48 89 c7             	mov    %rax,%rdi
   1291a:	e8 d4 4d ff ff       	callq  76f3 <transparent_crc>
   1291f:	8b 05 bb ba 00 00    	mov    0xbabb(%rip),%eax        # 1e3e0 <g_701>
   12925:	48 98                	cltq   
   12927:	8b 55 f4             	mov    -0xc(%rbp),%edx
   1292a:	48 8d 35 e4 77 00 00 	lea    0x77e4(%rip),%rsi        # 1a115 <g_764+0x20b5>
   12931:	48 89 c7             	mov    %rax,%rdi
   12934:	e8 ba 4d ff ff       	callq  76f3 <transparent_crc>
   12939:	48 8b 05 a8 ba 00 00 	mov    0xbaa8(%rip),%rax        # 1e3e8 <g_703>
   12940:	48 89 c1             	mov    %rax,%rcx
   12943:	8b 45 f4             	mov    -0xc(%rbp),%eax
   12946:	89 c2                	mov    %eax,%edx
   12948:	48 8d 35 cc 77 00 00 	lea    0x77cc(%rip),%rsi        # 1a11b <g_764+0x20bb>
   1294f:	48 89 cf             	mov    %rcx,%rdi
   12952:	e8 9c 4d ff ff       	callq  76f3 <transparent_crc>
   12957:	c7 45 e8 00 00 00 00 	movl   $0x0,-0x18(%rbp)
   1295e:	e9 35 03 00 00       	jmpq   12c98 <main+0xe8e>
   12963:	c7 45 ec 00 00 00 00 	movl   $0x0,-0x14(%rbp)
   1296a:	e9 1b 03 00 00       	jmpq   12c8a <main+0xe80>
   1296f:	8b 45 ec             	mov    -0x14(%rbp),%eax
   12972:	48 63 d0             	movslq %eax,%rdx
   12975:	8b 45 e8             	mov    -0x18(%rbp),%eax
   12978:	48 63 c8             	movslq %eax,%rcx
   1297b:	48 89 d0             	mov    %rdx,%rax
   1297e:	48 c1 e0 02          	shl    $0x2,%rax
   12982:	48 01 d0             	add    %rdx,%rax
   12985:	48 01 c0             	add    %rax,%rax
   12988:	48 01 d0             	add    %rdx,%rax
   1298b:	48 01 c0             	add    %rax,%rax
   1298e:	48 69 d1 dc 00 00 00 	imul   $0xdc,%rcx,%rdx
   12995:	48 01 c2             	add    %rax,%rdx
   12998:	48 8d 05 61 ba 00 00 	lea    0xba61(%rip),%rax        # 1e400 <g_754>
   1299f:	48 01 d0             	add    %rdx,%rax
   129a2:	48 8b 00             	mov    (%rax),%rax
   129a5:	8b 55 f4             	mov    -0xc(%rbp),%edx
   129a8:	48 8d 35 72 77 00 00 	lea    0x7772(%rip),%rsi        # 1a121 <g_764+0x20c1>
   129af:	48 89 c7             	mov    %rax,%rdi
   129b2:	e8 3c 4d ff ff       	callq  76f3 <transparent_crc>
   129b7:	8b 45 ec             	mov    -0x14(%rbp),%eax
   129ba:	48 63 d0             	movslq %eax,%rdx
   129bd:	8b 45 e8             	mov    -0x18(%rbp),%eax
   129c0:	48 63 c8             	movslq %eax,%rcx
   129c3:	48 89 d0             	mov    %rdx,%rax
   129c6:	48 c1 e0 02          	shl    $0x2,%rax
   129ca:	48 01 d0             	add    %rdx,%rax
   129cd:	48 01 c0             	add    %rax,%rax
   129d0:	48 01 d0             	add    %rdx,%rax
   129d3:	48 01 c0             	add    %rax,%rax
   129d6:	48 69 d1 dc 00 00 00 	imul   $0xdc,%rcx,%rdx
   129dd:	48 01 c2             	add    %rax,%rdx
   129e0:	48 8d 05 19 ba 00 00 	lea    0xba19(%rip),%rax        # 1e400 <g_754>
   129e7:	48 01 d0             	add    %rdx,%rax
   129ea:	0f b7 50 08          	movzwl 0x8(%rax),%edx
   129ee:	0f b7 d2             	movzwl %dx,%edx
   129f1:	0f b7 40 0a          	movzwl 0xa(%rax),%eax
   129f5:	0f b7 c0             	movzwl %ax,%eax
   129f8:	25 ff 0f 00 00       	and    $0xfff,%eax
   129fd:	48 c1 e0 10          	shl    $0x10,%rax
   12a01:	48 09 d0             	or     %rdx,%rax
   12a04:	48 c1 e0 24          	shl    $0x24,%rax
   12a08:	48 c1 f8 24          	sar    $0x24,%rax
   12a0c:	48 98                	cltq   
   12a0e:	8b 55 f4             	mov    -0xc(%rbp),%edx
   12a11:	48 8d 35 18 77 00 00 	lea    0x7718(%rip),%rsi        # 1a130 <g_764+0x20d0>
   12a18:	48 89 c7             	mov    %rax,%rdi
   12a1b:	e8 d3 4c ff ff       	callq  76f3 <transparent_crc>
   12a20:	8b 45 ec             	mov    -0x14(%rbp),%eax
   12a23:	48 63 d0             	movslq %eax,%rdx
   12a26:	8b 45 e8             	mov    -0x18(%rbp),%eax
   12a29:	48 63 c8             	movslq %eax,%rcx
   12a2c:	48 89 d0             	mov    %rdx,%rax
   12a2f:	48 c1 e0 02          	shl    $0x2,%rax
   12a33:	48 01 d0             	add    %rdx,%rax
   12a36:	48 01 c0             	add    %rax,%rax
   12a39:	48 01 d0             	add    %rdx,%rax
   12a3c:	48 01 c0             	add    %rax,%rax
   12a3f:	48 69 d1 dc 00 00 00 	imul   $0xdc,%rcx,%rdx
   12a46:	48 01 c2             	add    %rax,%rdx
   12a49:	48 8d 05 b0 b9 00 00 	lea    0xb9b0(%rip),%rax        # 1e400 <g_754>
   12a50:	48 01 d0             	add    %rdx,%rax
   12a53:	0f b7 40 0a          	movzwl 0xa(%rax),%eax
   12a57:	c1 e0 02             	shl    $0x2,%eax
   12a5a:	66 c1 f8 0e          	sar    $0xe,%ax
   12a5e:	48 0f be c0          	movsbq %al,%rax
   12a62:	8b 55 f4             	mov    -0xc(%rbp),%edx
   12a65:	48 8d 35 d3 76 00 00 	lea    0x76d3(%rip),%rsi        # 1a13f <g_764+0x20df>
   12a6c:	48 89 c7             	mov    %rax,%rdi
   12a6f:	e8 7f 4c ff ff       	callq  76f3 <transparent_crc>
   12a74:	8b 45 ec             	mov    -0x14(%rbp),%eax
   12a77:	48 63 d0             	movslq %eax,%rdx
   12a7a:	8b 45 e8             	mov    -0x18(%rbp),%eax
   12a7d:	48 63 c8             	movslq %eax,%rcx
   12a80:	48 89 d0             	mov    %rdx,%rax
   12a83:	48 c1 e0 02          	shl    $0x2,%rax
   12a87:	48 01 d0             	add    %rdx,%rax
   12a8a:	48 01 c0             	add    %rax,%rax
   12a8d:	48 01 d0             	add    %rdx,%rax
   12a90:	48 01 c0             	add    %rax,%rax
   12a93:	48 69 d1 dc 00 00 00 	imul   $0xdc,%rcx,%rdx
   12a9a:	48 01 c2             	add    %rax,%rdx
   12a9d:	48 8d 05 5c b9 00 00 	lea    0xb95c(%rip),%rax        # 1e400 <g_754>
   12aa4:	48 01 d0             	add    %rdx,%rax
   12aa7:	0f b7 50 0a          	movzwl 0xa(%rax),%edx
   12aab:	66 c1 ea 0e          	shr    $0xe,%dx
   12aaf:	0f b7 d2             	movzwl %dx,%edx
   12ab2:	0f b7 48 0c          	movzwl 0xc(%rax),%ecx
   12ab6:	0f b7 c9             	movzwl %cx,%ecx
   12ab9:	48 c1 e1 02          	shl    $0x2,%rcx
   12abd:	48 09 ca             	or     %rcx,%rdx
   12ac0:	0f b7 40 0e          	movzwl 0xe(%rax),%eax
   12ac4:	0f b7 c0             	movzwl %ax,%eax
   12ac7:	25 ff 0f 00 00       	and    $0xfff,%eax
   12acc:	48 c1 e0 12          	shl    $0x12,%rax
   12ad0:	48 09 d0             	or     %rdx,%rax
   12ad3:	48 c1 e0 22          	shl    $0x22,%rax
   12ad7:	48 c1 f8 22          	sar    $0x22,%rax
   12adb:	48 98                	cltq   
   12add:	8b 55 f4             	mov    -0xc(%rbp),%edx
   12ae0:	48 8d 35 67 76 00 00 	lea    0x7667(%rip),%rsi        # 1a14e <g_764+0x20ee>
   12ae7:	48 89 c7             	mov    %rax,%rdi
   12aea:	e8 04 4c ff ff       	callq  76f3 <transparent_crc>
   12aef:	8b 45 ec             	mov    -0x14(%rbp),%eax
   12af2:	48 63 d0             	movslq %eax,%rdx
   12af5:	8b 45 e8             	mov    -0x18(%rbp),%eax
   12af8:	48 63 c8             	movslq %eax,%rcx
   12afb:	48 89 d0             	mov    %rdx,%rax
   12afe:	48 c1 e0 02          	shl    $0x2,%rax
   12b02:	48 01 d0             	add    %rdx,%rax
   12b05:	48 01 c0             	add    %rax,%rax
   12b08:	48 01 d0             	add    %rdx,%rax
   12b0b:	48 01 c0             	add    %rax,%rax
   12b0e:	48 69 d1 dc 00 00 00 	imul   $0xdc,%rcx,%rdx
   12b15:	48 01 c2             	add    %rax,%rdx
   12b18:	48 8d 05 e1 b8 00 00 	lea    0xb8e1(%rip),%rax        # 1e400 <g_754>
   12b1f:	48 01 d0             	add    %rdx,%rax
   12b22:	0f b7 50 0e          	movzwl 0xe(%rax),%edx
   12b26:	66 c1 ea 0c          	shr    $0xc,%dx
   12b2a:	0f b7 d2             	movzwl %dx,%edx
   12b2d:	0f b7 40 10          	movzwl 0x10(%rax),%eax
   12b31:	0f b7 c0             	movzwl %ax,%eax
   12b34:	25 ff 01 00 00       	and    $0x1ff,%eax
   12b39:	48 c1 e0 04          	shl    $0x4,%rax
   12b3d:	48 09 d0             	or     %rdx,%rax
   12b40:	0f b7 c0             	movzwl %ax,%eax
   12b43:	8b 55 f4             	mov    -0xc(%rbp),%edx
   12b46:	48 8d 35 10 76 00 00 	lea    0x7610(%rip),%rsi        # 1a15d <g_764+0x20fd>
   12b4d:	48 89 c7             	mov    %rax,%rdi
   12b50:	e8 9e 4b ff ff       	callq  76f3 <transparent_crc>
   12b55:	8b 45 ec             	mov    -0x14(%rbp),%eax
   12b58:	48 63 d0             	movslq %eax,%rdx
   12b5b:	8b 45 e8             	mov    -0x18(%rbp),%eax
   12b5e:	48 63 c8             	movslq %eax,%rcx
   12b61:	48 89 d0             	mov    %rdx,%rax
   12b64:	48 c1 e0 02          	shl    $0x2,%rax
   12b68:	48 01 d0             	add    %rdx,%rax
   12b6b:	48 01 c0             	add    %rax,%rax
   12b6e:	48 01 d0             	add    %rdx,%rax
   12b71:	48 01 c0             	add    %rax,%rax
   12b74:	48 69 d1 dc 00 00 00 	imul   $0xdc,%rcx,%rdx
   12b7b:	48 01 c2             	add    %rax,%rdx
   12b7e:	48 8d 05 8b b8 00 00 	lea    0xb88b(%rip),%rax        # 1e410 <g_754+0x10>
   12b85:	48 01 d0             	add    %rdx,%rax
   12b88:	0f b7 00             	movzwl (%rax),%eax
   12b8b:	66 c1 e8 09          	shr    $0x9,%ax
   12b8f:	0f b6 c0             	movzbl %al,%eax
   12b92:	8b 55 f4             	mov    -0xc(%rbp),%edx
   12b95:	48 8d 35 d0 75 00 00 	lea    0x75d0(%rip),%rsi        # 1a16c <g_764+0x210c>
   12b9c:	48 89 c7             	mov    %rax,%rdi
   12b9f:	e8 4f 4b ff ff       	callq  76f3 <transparent_crc>
   12ba4:	8b 45 ec             	mov    -0x14(%rbp),%eax
   12ba7:	48 63 d0             	movslq %eax,%rdx
   12baa:	8b 45 e8             	mov    -0x18(%rbp),%eax
   12bad:	48 63 c8             	movslq %eax,%rcx
   12bb0:	48 89 d0             	mov    %rdx,%rax
   12bb3:	48 c1 e0 02          	shl    $0x2,%rax
   12bb7:	48 01 d0             	add    %rdx,%rax
   12bba:	48 01 c0             	add    %rax,%rax
   12bbd:	48 01 d0             	add    %rdx,%rax
   12bc0:	48 01 c0             	add    %rax,%rax
   12bc3:	48 69 d1 dc 00 00 00 	imul   $0xdc,%rcx,%rdx
   12bca:	48 01 c2             	add    %rax,%rdx
   12bcd:	48 8d 05 3c b8 00 00 	lea    0xb83c(%rip),%rax        # 1e410 <g_754+0x10>
   12bd4:	48 01 d0             	add    %rdx,%rax
   12bd7:	0f b7 40 02          	movzwl 0x2(%rax),%eax
   12bdb:	c1 e0 02             	shl    $0x2,%eax
   12bde:	66 c1 f8 02          	sar    $0x2,%ax
   12be2:	48 0f bf c0          	movswq %ax,%rax
   12be6:	8b 55 f4             	mov    -0xc(%rbp),%edx
   12be9:	48 8d 35 8b 75 00 00 	lea    0x758b(%rip),%rsi        # 1a17b <g_764+0x211b>
   12bf0:	48 89 c7             	mov    %rax,%rdi
   12bf3:	e8 fb 4a ff ff       	callq  76f3 <transparent_crc>
   12bf8:	8b 45 ec             	mov    -0x14(%rbp),%eax
   12bfb:	48 63 d0             	movslq %eax,%rdx
   12bfe:	8b 45 e8             	mov    -0x18(%rbp),%eax
   12c01:	48 63 c8             	movslq %eax,%rcx
   12c04:	48 89 d0             	mov    %rdx,%rax
   12c07:	48 c1 e0 02          	shl    $0x2,%rax
   12c0b:	48 01 d0             	add    %rdx,%rax
   12c0e:	48 01 c0             	add    %rax,%rax
   12c11:	48 01 d0             	add    %rdx,%rax
   12c14:	48 01 c0             	add    %rax,%rax
   12c17:	48 69 d1 dc 00 00 00 	imul   $0xdc,%rcx,%rdx
   12c1e:	48 01 c2             	add    %rax,%rdx
   12c21:	48 8d 05 e8 b7 00 00 	lea    0xb7e8(%rip),%rax        # 1e410 <g_754+0x10>
   12c28:	48 01 d0             	add    %rdx,%rax
   12c2b:	0f b7 50 02          	movzwl 0x2(%rax),%edx
   12c2f:	66 c1 ea 0e          	shr    $0xe,%dx
   12c33:	0f b7 d2             	movzwl %dx,%edx
   12c36:	0f b7 40 04          	movzwl 0x4(%rax),%eax
   12c3a:	0f b7 c0             	movzwl %ax,%eax
   12c3d:	25 ff 3f 00 00       	and    $0x3fff,%eax
   12c42:	48 c1 e0 02          	shl    $0x2,%rax
   12c46:	48 09 d0             	or     %rdx,%rax
   12c49:	48 c1 e0 30          	shl    $0x30,%rax
   12c4d:	48 c1 f8 30          	sar    $0x30,%rax
   12c51:	48 0f bf c0          	movswq %ax,%rax
   12c55:	8b 55 f4             	mov    -0xc(%rbp),%edx
   12c58:	48 8d 35 2b 75 00 00 	lea    0x752b(%rip),%rsi        # 1a18a <g_764+0x212a>
   12c5f:	48 89 c7             	mov    %rax,%rdi
   12c62:	e8 8c 4a ff ff       	callq  76f3 <transparent_crc>
   12c67:	83 7d f4 00          	cmpl   $0x0,-0xc(%rbp)
   12c6b:	74 19                	je     12c86 <main+0xe7c>
   12c6d:	8b 55 ec             	mov    -0x14(%rbp),%edx
   12c70:	8b 45 e8             	mov    -0x18(%rbp),%eax
   12c73:	89 c6                	mov    %eax,%esi
   12c75:	48 8d 3d 6a 73 00 00 	lea    0x736a(%rip),%rdi        # 19fe6 <g_764+0x1f86>
   12c7c:	b8 00 00 00 00       	mov    $0x0,%eax
   12c81:	e8 fa 33 ff ff       	callq  6080 <printf@plt>
   12c86:	83 45 ec 01          	addl   $0x1,-0x14(%rbp)
   12c8a:	83 7d ec 09          	cmpl   $0x9,-0x14(%rbp)
   12c8e:	0f 8e db fc ff ff    	jle    1296f <main+0xb65>
   12c94:	83 45 e8 01          	addl   $0x1,-0x18(%rbp)
   12c98:	83 7d e8 02          	cmpl   $0x2,-0x18(%rbp)
   12c9c:	0f 8e c1 fc ff ff    	jle    12963 <main+0xb59>
   12ca2:	c7 45 e8 00 00 00 00 	movl   $0x0,-0x18(%rbp)
   12ca9:	e9 a6 03 00 00       	jmpq   13054 <main+0x124a>
   12cae:	c7 45 ec 00 00 00 00 	movl   $0x0,-0x14(%rbp)
   12cb5:	e9 8c 03 00 00       	jmpq   13046 <main+0x123c>
   12cba:	8b 45 ec             	mov    -0x14(%rbp),%eax
   12cbd:	48 98                	cltq   
   12cbf:	8b 55 e8             	mov    -0x18(%rbp),%edx
   12cc2:	48 63 ca             	movslq %edx,%rcx
   12cc5:	48 89 c2             	mov    %rax,%rdx
   12cc8:	48 c1 e2 02          	shl    $0x2,%rdx
   12ccc:	48 01 c2             	add    %rax,%rdx
   12ccf:	48 01 d2             	add    %rdx,%rdx
   12cd2:	48 01 c2             	add    %rax,%rdx
   12cd5:	48 8d 04 12          	lea    (%rdx,%rdx,1),%rax
   12cd9:	48 89 c2             	mov    %rax,%rdx
   12cdc:	48 89 c8             	mov    %rcx,%rax
   12cdf:	48 c1 e0 02          	shl    $0x2,%rax
   12ce3:	48 01 c8             	add    %rcx,%rax
   12ce6:	48 01 c0             	add    %rax,%rax
   12ce9:	48 01 c8             	add    %rcx,%rax
   12cec:	48 c1 e0 04          	shl    $0x4,%rax
   12cf0:	48 01 c2             	add    %rax,%rdx
   12cf3:	48 8d 05 66 53 00 00 	lea    0x5366(%rip),%rax        # 18060 <g_764>
   12cfa:	48 01 d0             	add    %rdx,%rax
   12cfd:	48 8b 00             	mov    (%rax),%rax
   12d00:	8b 55 f4             	mov    -0xc(%rbp),%edx
   12d03:	48 8d 35 8f 74 00 00 	lea    0x748f(%rip),%rsi        # 1a199 <g_764+0x2139>
   12d0a:	48 89 c7             	mov    %rax,%rdi
   12d0d:	e8 e1 49 ff ff       	callq  76f3 <transparent_crc>
   12d12:	8b 45 ec             	mov    -0x14(%rbp),%eax
   12d15:	48 98                	cltq   
   12d17:	8b 55 e8             	mov    -0x18(%rbp),%edx
   12d1a:	48 63 ca             	movslq %edx,%rcx
   12d1d:	48 89 c2             	mov    %rax,%rdx
   12d20:	48 c1 e2 02          	shl    $0x2,%rdx
   12d24:	48 01 c2             	add    %rax,%rdx
   12d27:	48 01 d2             	add    %rdx,%rdx
   12d2a:	48 01 c2             	add    %rax,%rdx
   12d2d:	48 8d 04 12          	lea    (%rdx,%rdx,1),%rax
   12d31:	48 89 c2             	mov    %rax,%rdx
   12d34:	48 89 c8             	mov    %rcx,%rax
   12d37:	48 c1 e0 02          	shl    $0x2,%rax
   12d3b:	48 01 c8             	add    %rcx,%rax
   12d3e:	48 01 c0             	add    %rax,%rax
   12d41:	48 01 c8             	add    %rcx,%rax
   12d44:	48 c1 e0 04          	shl    $0x4,%rax
   12d48:	48 01 c2             	add    %rax,%rdx
   12d4b:	48 8d 05 0e 53 00 00 	lea    0x530e(%rip),%rax        # 18060 <g_764>
   12d52:	48 01 d0             	add    %rdx,%rax
   12d55:	0f b7 50 08          	movzwl 0x8(%rax),%edx
   12d59:	0f b7 40 0a          	movzwl 0xa(%rax),%eax
   12d5d:	25 ff 0f 00 00       	and    $0xfff,%eax
   12d62:	48 c1 e0 10          	shl    $0x10,%rax
   12d66:	48 09 d0             	or     %rdx,%rax
   12d69:	48 c1 e0 24          	shl    $0x24,%rax
   12d6d:	48 c1 f8 24          	sar    $0x24,%rax
   12d71:	48 98                	cltq   
   12d73:	8b 55 f4             	mov    -0xc(%rbp),%edx
   12d76:	48 8d 35 2b 74 00 00 	lea    0x742b(%rip),%rsi        # 1a1a8 <g_764+0x2148>
   12d7d:	48 89 c7             	mov    %rax,%rdi
   12d80:	e8 6e 49 ff ff       	callq  76f3 <transparent_crc>
   12d85:	8b 45 ec             	mov    -0x14(%rbp),%eax
   12d88:	48 98                	cltq   
   12d8a:	8b 55 e8             	mov    -0x18(%rbp),%edx
   12d8d:	48 63 ca             	movslq %edx,%rcx
   12d90:	48 89 c2             	mov    %rax,%rdx
   12d93:	48 c1 e2 02          	shl    $0x2,%rdx
   12d97:	48 01 c2             	add    %rax,%rdx
   12d9a:	48 01 d2             	add    %rdx,%rdx
   12d9d:	48 01 c2             	add    %rax,%rdx
   12da0:	48 8d 04 12          	lea    (%rdx,%rdx,1),%rax
   12da4:	48 89 c2             	mov    %rax,%rdx
   12da7:	48 89 c8             	mov    %rcx,%rax
   12daa:	48 c1 e0 02          	shl    $0x2,%rax
   12dae:	48 01 c8             	add    %rcx,%rax
   12db1:	48 01 c0             	add    %rax,%rax
   12db4:	48 01 c8             	add    %rcx,%rax
   12db7:	48 c1 e0 04          	shl    $0x4,%rax
   12dbb:	48 01 c2             	add    %rax,%rdx
   12dbe:	48 8d 05 9b 52 00 00 	lea    0x529b(%rip),%rax        # 18060 <g_764>
   12dc5:	48 01 d0             	add    %rdx,%rax
   12dc8:	0f b6 40 0b          	movzbl 0xb(%rax),%eax
   12dcc:	c1 e0 02             	shl    $0x2,%eax
   12dcf:	c0 f8 06             	sar    $0x6,%al
   12dd2:	48 0f be c0          	movsbq %al,%rax
   12dd6:	8b 55 f4             	mov    -0xc(%rbp),%edx
   12dd9:	48 8d 35 d7 73 00 00 	lea    0x73d7(%rip),%rsi        # 1a1b7 <g_764+0x2157>
   12de0:	48 89 c7             	mov    %rax,%rdi
   12de3:	e8 0b 49 ff ff       	callq  76f3 <transparent_crc>
   12de8:	8b 45 ec             	mov    -0x14(%rbp),%eax
   12deb:	48 98                	cltq   
   12ded:	8b 55 e8             	mov    -0x18(%rbp),%edx
   12df0:	48 63 ca             	movslq %edx,%rcx
   12df3:	48 89 c2             	mov    %rax,%rdx
   12df6:	48 c1 e2 02          	shl    $0x2,%rdx
   12dfa:	48 01 c2             	add    %rax,%rdx
   12dfd:	48 01 d2             	add    %rdx,%rdx
   12e00:	48 01 c2             	add    %rax,%rdx
   12e03:	48 8d 04 12          	lea    (%rdx,%rdx,1),%rax
   12e07:	48 89 c2             	mov    %rax,%rdx
   12e0a:	48 89 c8             	mov    %rcx,%rax
   12e0d:	48 c1 e0 02          	shl    $0x2,%rax
   12e11:	48 01 c8             	add    %rcx,%rax
   12e14:	48 01 c0             	add    %rax,%rax
   12e17:	48 01 c8             	add    %rcx,%rax
   12e1a:	48 c1 e0 04          	shl    $0x4,%rax
   12e1e:	48 01 c2             	add    %rax,%rdx
   12e21:	48 8d 05 38 52 00 00 	lea    0x5238(%rip),%rax        # 18060 <g_764>
   12e28:	48 01 d0             	add    %rdx,%rax
   12e2b:	0f b6 50 0b          	movzbl 0xb(%rax),%edx
   12e2f:	c0 ea 06             	shr    $0x6,%dl
   12e32:	0f b6 d2             	movzbl %dl,%edx
   12e35:	0f b7 48 0c          	movzwl 0xc(%rax),%ecx
   12e39:	48 c1 e1 02          	shl    $0x2,%rcx
   12e3d:	48 09 ca             	or     %rcx,%rdx
   12e40:	0f b7 40 0e          	movzwl 0xe(%rax),%eax
   12e44:	25 ff 0f 00 00       	and    $0xfff,%eax
   12e49:	48 c1 e0 12          	shl    $0x12,%rax
   12e4d:	48 09 d0             	or     %rdx,%rax
   12e50:	48 c1 e0 22          	shl    $0x22,%rax
   12e54:	48 c1 f8 22          	sar    $0x22,%rax
   12e58:	48 98                	cltq   
   12e5a:	8b 55 f4             	mov    -0xc(%rbp),%edx
   12e5d:	48 8d 35 62 73 00 00 	lea    0x7362(%rip),%rsi        # 1a1c6 <g_764+0x2166>
   12e64:	48 89 c7             	mov    %rax,%rdi
   12e67:	e8 87 48 ff ff       	callq  76f3 <transparent_crc>
   12e6c:	8b 45 ec             	mov    -0x14(%rbp),%eax
   12e6f:	48 98                	cltq   
   12e71:	8b 55 e8             	mov    -0x18(%rbp),%edx
   12e74:	48 63 ca             	movslq %edx,%rcx
   12e77:	48 89 c2             	mov    %rax,%rdx
   12e7a:	48 c1 e2 02          	shl    $0x2,%rdx
   12e7e:	48 01 c2             	add    %rax,%rdx
   12e81:	48 01 d2             	add    %rdx,%rdx
   12e84:	48 01 c2             	add    %rax,%rdx
   12e87:	48 8d 04 12          	lea    (%rdx,%rdx,1),%rax
   12e8b:	48 89 c2             	mov    %rax,%rdx
   12e8e:	48 89 c8             	mov    %rcx,%rax
   12e91:	48 c1 e0 02          	shl    $0x2,%rax
   12e95:	48 01 c8             	add    %rcx,%rax
   12e98:	48 01 c0             	add    %rax,%rax
   12e9b:	48 01 c8             	add    %rcx,%rax
   12e9e:	48 c1 e0 04          	shl    $0x4,%rax
   12ea2:	48 01 c2             	add    %rax,%rdx
   12ea5:	48 8d 05 b4 51 00 00 	lea    0x51b4(%rip),%rax        # 18060 <g_764>
   12eac:	48 01 d0             	add    %rdx,%rax
   12eaf:	0f b7 50 0e          	movzwl 0xe(%rax),%edx
   12eb3:	66 c1 ea 0c          	shr    $0xc,%dx
   12eb7:	0f b7 d2             	movzwl %dx,%edx
   12eba:	0f b7 40 10          	movzwl 0x10(%rax),%eax
   12ebe:	0f b7 c0             	movzwl %ax,%eax
   12ec1:	25 ff 01 00 00       	and    $0x1ff,%eax
   12ec6:	48 c1 e0 04          	shl    $0x4,%rax
   12eca:	48 09 d0             	or     %rdx,%rax
   12ecd:	0f b7 c0             	movzwl %ax,%eax
   12ed0:	8b 55 f4             	mov    -0xc(%rbp),%edx
   12ed3:	48 8d 35 fb 72 00 00 	lea    0x72fb(%rip),%rsi        # 1a1d5 <g_764+0x2175>
   12eda:	48 89 c7             	mov    %rax,%rdi
   12edd:	e8 11 48 ff ff       	callq  76f3 <transparent_crc>
   12ee2:	8b 45 ec             	mov    -0x14(%rbp),%eax
   12ee5:	48 98                	cltq   
   12ee7:	8b 55 e8             	mov    -0x18(%rbp),%edx
   12eea:	48 63 ca             	movslq %edx,%rcx
   12eed:	48 89 c2             	mov    %rax,%rdx
   12ef0:	48 c1 e2 02          	shl    $0x2,%rdx
   12ef4:	48 01 c2             	add    %rax,%rdx
   12ef7:	48 01 d2             	add    %rdx,%rdx
   12efa:	48 01 c2             	add    %rax,%rdx
   12efd:	48 8d 04 12          	lea    (%rdx,%rdx,1),%rax
   12f01:	48 89 c2             	mov    %rax,%rdx
   12f04:	48 89 c8             	mov    %rcx,%rax
   12f07:	48 c1 e0 02          	shl    $0x2,%rax
   12f0b:	48 01 c8             	add    %rcx,%rax
   12f0e:	48 01 c0             	add    %rax,%rax
   12f11:	48 01 c8             	add    %rcx,%rax
   12f14:	48 c1 e0 04          	shl    $0x4,%rax
   12f18:	48 01 c2             	add    %rax,%rdx
   12f1b:	48 8d 05 4e 51 00 00 	lea    0x514e(%rip),%rax        # 18070 <g_764+0x10>
   12f22:	48 01 d0             	add    %rdx,%rax
   12f25:	0f b6 40 01          	movzbl 0x1(%rax),%eax
   12f29:	d0 e8                	shr    %al
   12f2b:	0f b6 c0             	movzbl %al,%eax
   12f2e:	8b 55 f4             	mov    -0xc(%rbp),%edx
   12f31:	48 8d 35 ac 72 00 00 	lea    0x72ac(%rip),%rsi        # 1a1e4 <g_764+0x2184>
   12f38:	48 89 c7             	mov    %rax,%rdi
   12f3b:	e8 b3 47 ff ff       	callq  76f3 <transparent_crc>
   12f40:	8b 45 ec             	mov    -0x14(%rbp),%eax
   12f43:	48 98                	cltq   
   12f45:	8b 55 e8             	mov    -0x18(%rbp),%edx
   12f48:	48 63 ca             	movslq %edx,%rcx
   12f4b:	48 89 c2             	mov    %rax,%rdx
   12f4e:	48 c1 e2 02          	shl    $0x2,%rdx
   12f52:	48 01 c2             	add    %rax,%rdx
   12f55:	48 01 d2             	add    %rdx,%rdx
   12f58:	48 01 c2             	add    %rax,%rdx
   12f5b:	48 8d 04 12          	lea    (%rdx,%rdx,1),%rax
   12f5f:	48 89 c2             	mov    %rax,%rdx
   12f62:	48 89 c8             	mov    %rcx,%rax
   12f65:	48 c1 e0 02          	shl    $0x2,%rax
   12f69:	48 01 c8             	add    %rcx,%rax
   12f6c:	48 01 c0             	add    %rax,%rax
   12f6f:	48 01 c8             	add    %rcx,%rax
   12f72:	48 c1 e0 04          	shl    $0x4,%rax
   12f76:	48 01 c2             	add    %rax,%rdx
   12f79:	48 8d 05 f0 50 00 00 	lea    0x50f0(%rip),%rax        # 18070 <g_764+0x10>
   12f80:	48 01 d0             	add    %rdx,%rax
   12f83:	0f b7 40 02          	movzwl 0x2(%rax),%eax
   12f87:	c1 e0 02             	shl    $0x2,%eax
   12f8a:	66 c1 f8 02          	sar    $0x2,%ax
   12f8e:	48 0f bf c0          	movswq %ax,%rax
   12f92:	8b 55 f4             	mov    -0xc(%rbp),%edx
   12f95:	48 8d 35 57 72 00 00 	lea    0x7257(%rip),%rsi        # 1a1f3 <g_764+0x2193>
   12f9c:	48 89 c7             	mov    %rax,%rdi
   12f9f:	e8 4f 47 ff ff       	callq  76f3 <transparent_crc>
   12fa4:	8b 45 ec             	mov    -0x14(%rbp),%eax
   12fa7:	48 98                	cltq   
   12fa9:	8b 55 e8             	mov    -0x18(%rbp),%edx
   12fac:	48 63 ca             	movslq %edx,%rcx
   12faf:	48 89 c2             	mov    %rax,%rdx
   12fb2:	48 c1 e2 02          	shl    $0x2,%rdx
   12fb6:	48 01 c2             	add    %rax,%rdx
   12fb9:	48 01 d2             	add    %rdx,%rdx
   12fbc:	48 01 c2             	add    %rax,%rdx
   12fbf:	48 8d 04 12          	lea    (%rdx,%rdx,1),%rax
   12fc3:	48 89 c2             	mov    %rax,%rdx
   12fc6:	48 89 c8             	mov    %rcx,%rax
   12fc9:	48 c1 e0 02          	shl    $0x2,%rax
   12fcd:	48 01 c8             	add    %rcx,%rax
   12fd0:	48 01 c0             	add    %rax,%rax
   12fd3:	48 01 c8             	add    %rcx,%rax
   12fd6:	48 c1 e0 04          	shl    $0x4,%rax
   12fda:	48 01 c2             	add    %rax,%rdx
   12fdd:	48 8d 05 8c 50 00 00 	lea    0x508c(%rip),%rax        # 18070 <g_764+0x10>
   12fe4:	48 01 d0             	add    %rdx,%rax
   12fe7:	0f b7 50 02          	movzwl 0x2(%rax),%edx
   12feb:	66 c1 ea 0e          	shr    $0xe,%dx
   12fef:	0f b7 d2             	movzwl %dx,%edx
   12ff2:	0f b7 40 04          	movzwl 0x4(%rax),%eax
   12ff6:	0f b7 c0             	movzwl %ax,%eax
   12ff9:	25 ff 3f 00 00       	and    $0x3fff,%eax
   12ffe:	48 c1 e0 02          	shl    $0x2,%rax
   13002:	48 09 d0             	or     %rdx,%rax
   13005:	48 c1 e0 30          	shl    $0x30,%rax
   13009:	48 c1 f8 30          	sar    $0x30,%rax
   1300d:	48 0f bf c0          	movswq %ax,%rax
   13011:	8b 55 f4             	mov    -0xc(%rbp),%edx
   13014:	48 8d 35 e7 71 00 00 	lea    0x71e7(%rip),%rsi        # 1a202 <g_764+0x21a2>
   1301b:	48 89 c7             	mov    %rax,%rdi
   1301e:	e8 d0 46 ff ff       	callq  76f3 <transparent_crc>
   13023:	83 7d f4 00          	cmpl   $0x0,-0xc(%rbp)
   13027:	74 19                	je     13042 <main+0x1238>
   13029:	8b 55 ec             	mov    -0x14(%rbp),%edx
   1302c:	8b 45 e8             	mov    -0x18(%rbp),%eax
   1302f:	89 c6                	mov    %eax,%esi
   13031:	48 8d 3d ae 6f 00 00 	lea    0x6fae(%rip),%rdi        # 19fe6 <g_764+0x1f86>
   13038:	b8 00 00 00 00       	mov    $0x0,%eax
   1303d:	e8 3e 30 ff ff       	callq  6080 <printf@plt>
   13042:	83 45 ec 01          	addl   $0x1,-0x14(%rbp)
   13046:	83 7d ec 07          	cmpl   $0x7,-0x14(%rbp)
   1304a:	0f 8e 6a fc ff ff    	jle    12cba <main+0xeb0>
   13050:	83 45 e8 01          	addl   $0x1,-0x18(%rbp)
   13054:	83 7d e8 06          	cmpl   $0x6,-0x18(%rbp)
   13058:	0f 8e 50 fc ff ff    	jle    12cae <main+0xea4>
   1305e:	0f b7 05 2f b6 00 00 	movzwl 0xb62f(%rip),%eax        # 1e694 <g_863>
   13065:	0f b7 c0             	movzwl %ax,%eax
   13068:	8b 55 f4             	mov    -0xc(%rbp),%edx
   1306b:	48 8d 35 9f 71 00 00 	lea    0x719f(%rip),%rsi        # 1a211 <g_764+0x21b1>
   13072:	48 89 c7             	mov    %rax,%rdi
   13075:	e8 79 46 ff ff       	callq  76f3 <transparent_crc>
   1307a:	48 8b 05 1f f6 00 00 	mov    0xf61f(%rip),%rax        # 226a0 <g_900>
   13081:	8b 55 f4             	mov    -0xc(%rbp),%edx
   13084:	48 8d 35 8c 71 00 00 	lea    0x718c(%rip),%rsi        # 1a217 <g_764+0x21b7>
   1308b:	48 89 c7             	mov    %rax,%rdi
   1308e:	e8 60 46 ff ff       	callq  76f3 <transparent_crc>
   13093:	48 8b 05 06 b6 00 00 	mov    0xb606(%rip),%rax        # 1e6a0 <g_934>
   1309a:	8b 55 f4             	mov    -0xc(%rbp),%edx
   1309d:	48 8d 35 79 71 00 00 	lea    0x7179(%rip),%rsi        # 1a21d <g_764+0x21bd>
   130a4:	48 89 c7             	mov    %rax,%rdi
   130a7:	e8 47 46 ff ff       	callq  76f3 <transparent_crc>
   130ac:	8b 05 f6 b5 00 00    	mov    0xb5f6(%rip),%eax        # 1e6a8 <g_934+0x8>
   130b2:	c1 e0 04             	shl    $0x4,%eax
   130b5:	c1 f8 04             	sar    $0x4,%eax
   130b8:	48 98                	cltq   
   130ba:	8b 55 f4             	mov    -0xc(%rbp),%edx
   130bd:	48 8d 35 62 71 00 00 	lea    0x7162(%rip),%rsi        # 1a226 <g_764+0x21c6>
   130c4:	48 89 c7             	mov    %rax,%rdi
   130c7:	e8 27 46 ff ff       	callq  76f3 <transparent_crc>
   130cc:	0f b6 05 d8 b5 00 00 	movzbl 0xb5d8(%rip),%eax        # 1e6ab <g_934+0xb>
   130d3:	c1 e0 02             	shl    $0x2,%eax
   130d6:	c0 f8 06             	sar    $0x6,%al
   130d9:	48 0f be c0          	movsbq %al,%rax
   130dd:	8b 55 f4             	mov    -0xc(%rbp),%edx
   130e0:	48 8d 35 48 71 00 00 	lea    0x7148(%rip),%rsi        # 1a22f <g_764+0x21cf>
   130e7:	48 89 c7             	mov    %rax,%rdi
   130ea:	e8 04 46 ff ff       	callq  76f3 <transparent_crc>
   130ef:	48 8b 05 b2 b5 00 00 	mov    0xb5b2(%rip),%rax        # 1e6a8 <g_934+0x8>
   130f6:	48 c1 e0 04          	shl    $0x4,%rax
   130fa:	48 c1 f8 22          	sar    $0x22,%rax
   130fe:	48 98                	cltq   
   13100:	8b 55 f4             	mov    -0xc(%rbp),%edx
   13103:	48 8d 35 2e 71 00 00 	lea    0x712e(%rip),%rsi        # 1a238 <g_764+0x21d8>
   1310a:	48 89 c7             	mov    %rax,%rdi
   1310d:	e8 e1 45 ff ff       	callq  76f3 <transparent_crc>
   13112:	48 8b 05 8f b5 00 00 	mov    0xb58f(%rip),%rax        # 1e6a8 <g_934+0x8>
   13119:	48 c1 e8 3c          	shr    $0x3c,%rax
   1311d:	48 89 c2             	mov    %rax,%rdx
   13120:	48 8b 05 89 b5 00 00 	mov    0xb589(%rip),%rax        # 1e6b0 <g_934+0x10>
   13127:	25 ff 01 00 00       	and    $0x1ff,%eax
   1312c:	48 c1 e0 04          	shl    $0x4,%rax
   13130:	48 09 d0             	or     %rdx,%rax
   13133:	0f b7 c0             	movzwl %ax,%eax
   13136:	8b 55 f4             	mov    -0xc(%rbp),%edx
   13139:	48 8d 35 01 71 00 00 	lea    0x7101(%rip),%rsi        # 1a241 <g_764+0x21e1>
   13140:	48 89 c7             	mov    %rax,%rdi
   13143:	e8 ab 45 ff ff       	callq  76f3 <transparent_crc>
   13148:	0f b6 05 62 b5 00 00 	movzbl 0xb562(%rip),%eax        # 1e6b1 <g_934+0x11>
   1314f:	d0 e8                	shr    %al
   13151:	0f b6 c0             	movzbl %al,%eax
   13154:	8b 55 f4             	mov    -0xc(%rbp),%edx
   13157:	48 8d 35 ec 70 00 00 	lea    0x70ec(%rip),%rsi        # 1a24a <g_764+0x21ea>
   1315e:	48 89 c7             	mov    %rax,%rdi
   13161:	e8 8d 45 ff ff       	callq  76f3 <transparent_crc>
   13166:	48 8b 05 43 b5 00 00 	mov    0xb543(%rip),%rax        # 1e6b0 <g_934+0x10>
   1316d:	c1 e0 02             	shl    $0x2,%eax
   13170:	c1 f8 12             	sar    $0x12,%eax
   13173:	48 0f bf c0          	movswq %ax,%rax
   13177:	8b 55 f4             	mov    -0xc(%rbp),%edx
   1317a:	48 8d 35 d2 70 00 00 	lea    0x70d2(%rip),%rsi        # 1a253 <g_764+0x21f3>
   13181:	48 89 c7             	mov    %rax,%rdi
   13184:	e8 6a 45 ff ff       	callq  76f3 <transparent_crc>
   13189:	48 8b 05 20 b5 00 00 	mov    0xb520(%rip),%rax        # 1e6b0 <g_934+0x10>
   13190:	48 c1 e0 12          	shl    $0x12,%rax
   13194:	48 c1 f8 30          	sar    $0x30,%rax
   13198:	48 0f bf c0          	movswq %ax,%rax
   1319c:	8b 55 f4             	mov    -0xc(%rbp),%edx
   1319f:	48 8d 35 b6 70 00 00 	lea    0x70b6(%rip),%rsi        # 1a25c <g_764+0x21fc>
   131a6:	48 89 c7             	mov    %rax,%rdi
   131a9:	e8 45 45 ff ff       	callq  76f3 <transparent_crc>
   131ae:	48 8b 05 0b b5 00 00 	mov    0xb50b(%rip),%rax        # 1e6c0 <g_1032>
   131b5:	8b 55 f4             	mov    -0xc(%rbp),%edx
   131b8:	48 8d 35 a6 70 00 00 	lea    0x70a6(%rip),%rsi        # 1a265 <g_764+0x2205>
   131bf:	48 89 c7             	mov    %rax,%rdi
   131c2:	e8 2c 45 ff ff       	callq  76f3 <transparent_crc>
   131c7:	8b 05 fb b4 00 00    	mov    0xb4fb(%rip),%eax        # 1e6c8 <g_1032+0x8>
   131cd:	c1 e0 04             	shl    $0x4,%eax
   131d0:	c1 f8 04             	sar    $0x4,%eax
   131d3:	48 98                	cltq   
   131d5:	8b 55 f4             	mov    -0xc(%rbp),%edx
   131d8:	48 8d 35 90 70 00 00 	lea    0x7090(%rip),%rsi        # 1a26f <g_764+0x220f>
   131df:	48 89 c7             	mov    %rax,%rdi
   131e2:	e8 0c 45 ff ff       	callq  76f3 <transparent_crc>
   131e7:	0f b6 05 dd b4 00 00 	movzbl 0xb4dd(%rip),%eax        # 1e6cb <g_1032+0xb>
   131ee:	c1 e0 02             	shl    $0x2,%eax
   131f1:	c0 f8 06             	sar    $0x6,%al
   131f4:	48 0f be c0          	movsbq %al,%rax
   131f8:	8b 55 f4             	mov    -0xc(%rbp),%edx
   131fb:	48 8d 35 77 70 00 00 	lea    0x7077(%rip),%rsi        # 1a279 <g_764+0x2219>
   13202:	48 89 c7             	mov    %rax,%rdi
   13205:	e8 e9 44 ff ff       	callq  76f3 <transparent_crc>
   1320a:	48 8b 05 b7 b4 00 00 	mov    0xb4b7(%rip),%rax        # 1e6c8 <g_1032+0x8>
   13211:	48 c1 e0 04          	shl    $0x4,%rax
   13215:	48 c1 f8 22          	sar    $0x22,%rax
   13219:	48 98                	cltq   
   1321b:	8b 55 f4             	mov    -0xc(%rbp),%edx
   1321e:	48 8d 35 5e 70 00 00 	lea    0x705e(%rip),%rsi        # 1a283 <g_764+0x2223>
   13225:	48 89 c7             	mov    %rax,%rdi
   13228:	e8 c6 44 ff ff       	callq  76f3 <transparent_crc>
   1322d:	48 8b 05 94 b4 00 00 	mov    0xb494(%rip),%rax        # 1e6c8 <g_1032+0x8>
   13234:	48 c1 e8 3c          	shr    $0x3c,%rax
   13238:	48 89 c2             	mov    %rax,%rdx
   1323b:	48 8b 05 8e b4 00 00 	mov    0xb48e(%rip),%rax        # 1e6d0 <g_1032+0x10>
   13242:	25 ff 01 00 00       	and    $0x1ff,%eax
   13247:	48 c1 e0 04          	shl    $0x4,%rax
   1324b:	48 09 d0             	or     %rdx,%rax
   1324e:	0f b7 c0             	movzwl %ax,%eax
   13251:	8b 55 f4             	mov    -0xc(%rbp),%edx
   13254:	48 8d 35 32 70 00 00 	lea    0x7032(%rip),%rsi        # 1a28d <g_764+0x222d>
   1325b:	48 89 c7             	mov    %rax,%rdi
   1325e:	e8 90 44 ff ff       	callq  76f3 <transparent_crc>
   13263:	0f b6 05 67 b4 00 00 	movzbl 0xb467(%rip),%eax        # 1e6d1 <g_1032+0x11>
   1326a:	d0 e8                	shr    %al
   1326c:	0f b6 c0             	movzbl %al,%eax
   1326f:	8b 55 f4             	mov    -0xc(%rbp),%edx
   13272:	48 8d 35 1e 70 00 00 	lea    0x701e(%rip),%rsi        # 1a297 <g_764+0x2237>
   13279:	48 89 c7             	mov    %rax,%rdi
   1327c:	e8 72 44 ff ff       	callq  76f3 <transparent_crc>
   13281:	48 8b 05 48 b4 00 00 	mov    0xb448(%rip),%rax        # 1e6d0 <g_1032+0x10>
   13288:	c1 e0 02             	shl    $0x2,%eax
   1328b:	c1 f8 12             	sar    $0x12,%eax
   1328e:	48 0f bf c0          	movswq %ax,%rax
   13292:	8b 55 f4             	mov    -0xc(%rbp),%edx
   13295:	48 8d 35 05 70 00 00 	lea    0x7005(%rip),%rsi        # 1a2a1 <g_764+0x2241>
   1329c:	48 89 c7             	mov    %rax,%rdi
   1329f:	e8 4f 44 ff ff       	callq  76f3 <transparent_crc>
   132a4:	48 8b 05 25 b4 00 00 	mov    0xb425(%rip),%rax        # 1e6d0 <g_1032+0x10>
   132ab:	48 c1 e0 12          	shl    $0x12,%rax
   132af:	48 c1 f8 30          	sar    $0x30,%rax
   132b3:	48 0f bf c0          	movswq %ax,%rax
   132b7:	8b 55 f4             	mov    -0xc(%rbp),%edx
   132ba:	48 8d 35 ea 6f 00 00 	lea    0x6fea(%rip),%rsi        # 1a2ab <g_764+0x224b>
   132c1:	48 89 c7             	mov    %rax,%rdi
   132c4:	e8 2a 44 ff ff       	callq  76f3 <transparent_crc>
   132c9:	48 8b 05 10 b4 00 00 	mov    0xb410(%rip),%rax        # 1e6e0 <g_1065>
   132d0:	8b 55 f4             	mov    -0xc(%rbp),%edx
   132d3:	48 8d 35 db 6f 00 00 	lea    0x6fdb(%rip),%rsi        # 1a2b5 <g_764+0x2255>
   132da:	48 89 c7             	mov    %rax,%rdi
   132dd:	e8 11 44 ff ff       	callq  76f3 <transparent_crc>
   132e2:	48 8b 05 ff b3 00 00 	mov    0xb3ff(%rip),%rax        # 1e6e8 <g_1065+0x8>
   132e9:	c1 e0 04             	shl    $0x4,%eax
   132ec:	c1 f8 04             	sar    $0x4,%eax
   132ef:	48 98                	cltq   
   132f1:	8b 55 f4             	mov    -0xc(%rbp),%edx
   132f4:	48 8d 35 c4 6f 00 00 	lea    0x6fc4(%rip),%rsi        # 1a2bf <g_764+0x225f>
   132fb:	48 89 c7             	mov    %rax,%rdi
   132fe:	e8 f0 43 ff ff       	callq  76f3 <transparent_crc>
   13303:	48 8b 05 de b3 00 00 	mov    0xb3de(%rip),%rax        # 1e6e8 <g_1065+0x8>
   1330a:	c1 e0 02             	shl    $0x2,%eax
   1330d:	c1 f8 1e             	sar    $0x1e,%eax
   13310:	48 0f be c0          	movsbq %al,%rax
   13314:	8b 55 f4             	mov    -0xc(%rbp),%edx
   13317:	48 8d 35 ab 6f 00 00 	lea    0x6fab(%rip),%rsi        # 1a2c9 <g_764+0x2269>
   1331e:	48 89 c7             	mov    %rax,%rdi
   13321:	e8 cd 43 ff ff       	callq  76f3 <transparent_crc>
   13326:	48 8b 05 bb b3 00 00 	mov    0xb3bb(%rip),%rax        # 1e6e8 <g_1065+0x8>
   1332d:	48 c1 e0 04          	shl    $0x4,%rax
   13331:	48 c1 f8 22          	sar    $0x22,%rax
   13335:	48 98                	cltq   
   13337:	8b 55 f4             	mov    -0xc(%rbp),%edx
   1333a:	48 8d 35 92 6f 00 00 	lea    0x6f92(%rip),%rsi        # 1a2d3 <g_764+0x2273>
   13341:	48 89 c7             	mov    %rax,%rdi
   13344:	e8 aa 43 ff ff       	callq  76f3 <transparent_crc>
   13349:	48 8b 05 98 b3 00 00 	mov    0xb398(%rip),%rax        # 1e6e8 <g_1065+0x8>
   13350:	48 c1 e8 3c          	shr    $0x3c,%rax
   13354:	48 89 c2             	mov    %rax,%rdx
   13357:	48 8b 05 92 b3 00 00 	mov    0xb392(%rip),%rax        # 1e6f0 <g_1065+0x10>
   1335e:	25 ff 01 00 00       	and    $0x1ff,%eax
   13363:	48 c1 e0 04          	shl    $0x4,%rax
   13367:	48 09 d0             	or     %rdx,%rax
   1336a:	0f b7 c0             	movzwl %ax,%eax
   1336d:	8b 55 f4             	mov    -0xc(%rbp),%edx
   13370:	48 8d 35 66 6f 00 00 	lea    0x6f66(%rip),%rsi        # 1a2dd <g_764+0x227d>
   13377:	48 89 c7             	mov    %rax,%rdi
   1337a:	e8 74 43 ff ff       	callq  76f3 <transparent_crc>
   1337f:	48 8b 05 6a b3 00 00 	mov    0xb36a(%rip),%rax        # 1e6f0 <g_1065+0x10>
   13386:	48 c1 e8 09          	shr    $0x9,%rax
   1338a:	83 e0 7f             	and    $0x7f,%eax
   1338d:	0f b6 c0             	movzbl %al,%eax
   13390:	8b 55 f4             	mov    -0xc(%rbp),%edx
   13393:	48 8d 35 4d 6f 00 00 	lea    0x6f4d(%rip),%rsi        # 1a2e7 <g_764+0x2287>
   1339a:	48 89 c7             	mov    %rax,%rdi
   1339d:	e8 51 43 ff ff       	callq  76f3 <transparent_crc>
   133a2:	48 8b 05 47 b3 00 00 	mov    0xb347(%rip),%rax        # 1e6f0 <g_1065+0x10>
   133a9:	c1 e0 02             	shl    $0x2,%eax
   133ac:	c1 f8 12             	sar    $0x12,%eax
   133af:	48 0f bf c0          	movswq %ax,%rax
   133b3:	8b 55 f4             	mov    -0xc(%rbp),%edx
   133b6:	48 8d 35 34 6f 00 00 	lea    0x6f34(%rip),%rsi        # 1a2f1 <g_764+0x2291>
   133bd:	48 89 c7             	mov    %rax,%rdi
   133c0:	e8 2e 43 ff ff       	callq  76f3 <transparent_crc>
   133c5:	48 8b 05 24 b3 00 00 	mov    0xb324(%rip),%rax        # 1e6f0 <g_1065+0x10>
   133cc:	48 c1 e0 12          	shl    $0x12,%rax
   133d0:	48 c1 f8 30          	sar    $0x30,%rax
   133d4:	48 0f bf c0          	movswq %ax,%rax
   133d8:	8b 55 f4             	mov    -0xc(%rbp),%edx
   133db:	48 8d 35 19 6f 00 00 	lea    0x6f19(%rip),%rsi        # 1a2fb <g_764+0x229b>
   133e2:	48 89 c7             	mov    %rax,%rdi
   133e5:	e8 09 43 ff ff       	callq  76f3 <transparent_crc>
   133ea:	8b 05 08 b3 00 00    	mov    0xb308(%rip),%eax        # 1e6f8 <g_1095>
   133f0:	89 c1                	mov    %eax,%ecx
   133f2:	8b 45 f4             	mov    -0xc(%rbp),%eax
   133f5:	89 c2                	mov    %eax,%edx
   133f7:	48 8d 35 07 6f 00 00 	lea    0x6f07(%rip),%rsi        # 1a305 <g_764+0x22a5>
   133fe:	48 89 cf             	mov    %rcx,%rdi
   13401:	e8 ed 42 ff ff       	callq  76f3 <transparent_crc>
   13406:	8b 05 f0 b2 00 00    	mov    0xb2f0(%rip),%eax        # 1e6fc <g_1125>
   1340c:	48 98                	cltq   
   1340e:	8b 55 f4             	mov    -0xc(%rbp),%edx
   13411:	48 8d 35 f4 6e 00 00 	lea    0x6ef4(%rip),%rsi        # 1a30c <g_764+0x22ac>
   13418:	48 89 c7             	mov    %rax,%rdi
   1341b:	e8 d3 42 ff ff       	callq  76f3 <transparent_crc>
   13420:	c7 45 e8 00 00 00 00 	movl   $0x0,-0x18(%rbp)
   13427:	e9 9b 00 00 00       	jmpq   134c7 <main+0x16bd>
   1342c:	c7 45 ec 00 00 00 00 	movl   $0x0,-0x14(%rbp)
   13433:	e9 81 00 00 00       	jmpq   134b9 <main+0x16af>
   13438:	c7 45 f0 00 00 00 00 	movl   $0x0,-0x10(%rbp)
   1343f:	eb 6e                	jmp    134af <main+0x16a5>
   13441:	8b 45 f0             	mov    -0x10(%rbp),%eax
   13444:	48 63 f0             	movslq %eax,%rsi
   13447:	8b 45 ec             	mov    -0x14(%rbp),%eax
   1344a:	48 63 c8             	movslq %eax,%rcx
   1344d:	8b 45 e8             	mov    -0x18(%rbp),%eax
   13450:	48 63 d0             	movslq %eax,%rdx
   13453:	48 89 d0             	mov    %rdx,%rax
   13456:	48 c1 e0 03          	shl    $0x3,%rax
   1345a:	48 01 d0             	add    %rdx,%rax
   1345d:	48 01 f0             	add    %rsi,%rax
   13460:	48 01 c8             	add    %rcx,%rax
   13463:	48 8d 14 85 00 00 00 	lea    0x0(,%rax,4),%rdx
   1346a:	00 
   1346b:	48 8d 05 8e b2 00 00 	lea    0xb28e(%rip),%rax        # 1e700 <g_1126>
   13472:	8b 04 02             	mov    (%rdx,%rax,1),%eax
   13475:	48 98                	cltq   
   13477:	8b 55 f4             	mov    -0xc(%rbp),%edx
   1347a:	48 8d 35 92 6e 00 00 	lea    0x6e92(%rip),%rsi        # 1a313 <g_764+0x22b3>
   13481:	48 89 c7             	mov    %rax,%rdi
   13484:	e8 6a 42 ff ff       	callq  76f3 <transparent_crc>
   13489:	83 7d f4 00          	cmpl   $0x0,-0xc(%rbp)
   1348d:	74 1c                	je     134ab <main+0x16a1>
   1348f:	8b 4d f0             	mov    -0x10(%rbp),%ecx
   13492:	8b 55 ec             	mov    -0x14(%rbp),%edx
   13495:	8b 45 e8             	mov    -0x18(%rbp),%eax
   13498:	89 c6                	mov    %eax,%esi
   1349a:	48 8d 3d bf 6a 00 00 	lea    0x6abf(%rip),%rdi        # 19f60 <g_764+0x1f00>
   134a1:	b8 00 00 00 00       	mov    $0x0,%eax
   134a6:	e8 d5 2b ff ff       	callq  6080 <printf@plt>
   134ab:	83 45 f0 01          	addl   $0x1,-0x10(%rbp)
   134af:	83 7d f0 00          	cmpl   $0x0,-0x10(%rbp)
   134b3:	7e 8c                	jle    13441 <main+0x1637>
   134b5:	83 45 ec 01          	addl   $0x1,-0x14(%rbp)
   134b9:	83 7d ec 08          	cmpl   $0x8,-0x14(%rbp)
   134bd:	0f 8e 75 ff ff ff    	jle    13438 <main+0x162e>
   134c3:	83 45 e8 01          	addl   $0x1,-0x18(%rbp)
   134c7:	83 7d e8 09          	cmpl   $0x9,-0x18(%rbp)
   134cb:	0f 8e 5b ff ff ff    	jle    1342c <main+0x1622>
   134d1:	c7 45 e8 00 00 00 00 	movl   $0x0,-0x18(%rbp)
   134d8:	e9 af 00 00 00       	jmpq   1358c <main+0x1782>
   134dd:	c7 45 ec 00 00 00 00 	movl   $0x0,-0x14(%rbp)
   134e4:	e9 95 00 00 00       	jmpq   1357e <main+0x1774>
   134e9:	c7 45 f0 00 00 00 00 	movl   $0x0,-0x10(%rbp)
   134f0:	eb 7e                	jmp    13570 <main+0x1766>
   134f2:	8b 45 f0             	mov    -0x10(%rbp),%eax
   134f5:	48 63 f0             	movslq %eax,%rsi
   134f8:	8b 45 e8             	mov    -0x18(%rbp),%eax
   134fb:	48 63 d0             	movslq %eax,%rdx
   134fe:	8b 45 ec             	mov    -0x14(%rbp),%eax
   13501:	48 63 c8             	movslq %eax,%rcx
   13504:	48 89 d0             	mov    %rdx,%rax
   13507:	48 c1 e0 02          	shl    $0x2,%rax
   1350b:	48 01 d0             	add    %rdx,%rax
   1350e:	48 c1 e0 02          	shl    $0x2,%rax
   13512:	48 01 d0             	add    %rdx,%rax
   13515:	48 89 ca             	mov    %rcx,%rdx
   13518:	48 01 d2             	add    %rdx,%rdx
   1351b:	48 01 ca             	add    %rcx,%rdx
   1351e:	48 01 d0             	add    %rdx,%rax
   13521:	48 01 f0             	add    %rsi,%rax
   13524:	48 8d 14 85 00 00 00 	lea    0x0(,%rax,4),%rdx
   1352b:	00 
   1352c:	48 8d 05 4d b3 00 00 	lea    0xb34d(%rip),%rax        # 1e880 <g_1135>
   13533:	8b 04 02             	mov    (%rdx,%rax,1),%eax
   13536:	48 98                	cltq   
   13538:	8b 55 f4             	mov    -0xc(%rbp),%edx
   1353b:	48 8d 35 e1 6d 00 00 	lea    0x6de1(%rip),%rsi        # 1a323 <g_764+0x22c3>
   13542:	48 89 c7             	mov    %rax,%rdi
   13545:	e8 a9 41 ff ff       	callq  76f3 <transparent_crc>
   1354a:	83 7d f4 00          	cmpl   $0x0,-0xc(%rbp)
   1354e:	74 1c                	je     1356c <main+0x1762>
   13550:	8b 4d f0             	mov    -0x10(%rbp),%ecx
   13553:	8b 55 ec             	mov    -0x14(%rbp),%edx
   13556:	8b 45 e8             	mov    -0x18(%rbp),%eax
   13559:	89 c6                	mov    %eax,%esi
   1355b:	48 8d 3d fe 69 00 00 	lea    0x69fe(%rip),%rdi        # 19f60 <g_764+0x1f00>
   13562:	b8 00 00 00 00       	mov    $0x0,%eax
   13567:	e8 14 2b ff ff       	callq  6080 <printf@plt>
   1356c:	83 45 f0 01          	addl   $0x1,-0x10(%rbp)
   13570:	83 7d f0 02          	cmpl   $0x2,-0x10(%rbp)
   13574:	0f 8e 78 ff ff ff    	jle    134f2 <main+0x16e8>
   1357a:	83 45 ec 01          	addl   $0x1,-0x14(%rbp)
   1357e:	83 7d ec 06          	cmpl   $0x6,-0x14(%rbp)
   13582:	0f 8e 61 ff ff ff    	jle    134e9 <main+0x16df>
   13588:	83 45 e8 01          	addl   $0x1,-0x18(%rbp)
   1358c:	83 7d e8 09          	cmpl   $0x9,-0x18(%rbp)
   13590:	0f 8e 47 ff ff ff    	jle    134dd <main+0x16d3>
   13596:	48 8b 05 33 b6 00 00 	mov    0xb633(%rip),%rax        # 1ebd0 <g_1153>
   1359d:	8b 55 f4             	mov    -0xc(%rbp),%edx
   135a0:	48 8d 35 8c 6d 00 00 	lea    0x6d8c(%rip),%rsi        # 1a333 <g_764+0x22d3>
   135a7:	48 89 c7             	mov    %rax,%rdi
   135aa:	e8 44 41 ff ff       	callq  76f3 <transparent_crc>
   135af:	8b 05 23 b6 00 00    	mov    0xb623(%rip),%eax        # 1ebd8 <g_1153+0x8>
   135b5:	c1 e0 04             	shl    $0x4,%eax
   135b8:	c1 f8 04             	sar    $0x4,%eax
   135bb:	48 98                	cltq   
   135bd:	8b 55 f4             	mov    -0xc(%rbp),%edx
   135c0:	48 8d 35 76 6d 00 00 	lea    0x6d76(%rip),%rsi        # 1a33d <g_764+0x22dd>
   135c7:	48 89 c7             	mov    %rax,%rdi
   135ca:	e8 24 41 ff ff       	callq  76f3 <transparent_crc>
   135cf:	0f b6 05 05 b6 00 00 	movzbl 0xb605(%rip),%eax        # 1ebdb <g_1153+0xb>
   135d6:	c1 e0 02             	shl    $0x2,%eax
   135d9:	c0 f8 06             	sar    $0x6,%al
   135dc:	48 0f be c0          	movsbq %al,%rax
   135e0:	8b 55 f4             	mov    -0xc(%rbp),%edx
   135e3:	48 8d 35 5d 6d 00 00 	lea    0x6d5d(%rip),%rsi        # 1a347 <g_764+0x22e7>
   135ea:	48 89 c7             	mov    %rax,%rdi
   135ed:	e8 01 41 ff ff       	callq  76f3 <transparent_crc>
   135f2:	48 8b 05 df b5 00 00 	mov    0xb5df(%rip),%rax        # 1ebd8 <g_1153+0x8>
   135f9:	48 c1 e0 04          	shl    $0x4,%rax
   135fd:	48 c1 f8 22          	sar    $0x22,%rax
   13601:	48 98                	cltq   
   13603:	8b 55 f4             	mov    -0xc(%rbp),%edx
   13606:	48 8d 35 44 6d 00 00 	lea    0x6d44(%rip),%rsi        # 1a351 <g_764+0x22f1>
   1360d:	48 89 c7             	mov    %rax,%rdi
   13610:	e8 de 40 ff ff       	callq  76f3 <transparent_crc>
   13615:	48 8b 05 bc b5 00 00 	mov    0xb5bc(%rip),%rax        # 1ebd8 <g_1153+0x8>
   1361c:	48 c1 e8 3c          	shr    $0x3c,%rax
   13620:	48 89 c2             	mov    %rax,%rdx
   13623:	48 8b 05 b6 b5 00 00 	mov    0xb5b6(%rip),%rax        # 1ebe0 <g_1153+0x10>
   1362a:	25 ff 01 00 00       	and    $0x1ff,%eax
   1362f:	48 c1 e0 04          	shl    $0x4,%rax
   13633:	48 09 d0             	or     %rdx,%rax
   13636:	0f b7 c0             	movzwl %ax,%eax
   13639:	8b 55 f4             	mov    -0xc(%rbp),%edx
   1363c:	48 8d 35 18 6d 00 00 	lea    0x6d18(%rip),%rsi        # 1a35b <g_764+0x22fb>
   13643:	48 89 c7             	mov    %rax,%rdi
   13646:	e8 a8 40 ff ff       	callq  76f3 <transparent_crc>
   1364b:	0f b6 05 8f b5 00 00 	movzbl 0xb58f(%rip),%eax        # 1ebe1 <g_1153+0x11>
   13652:	d0 e8                	shr    %al
   13654:	0f b6 c0             	movzbl %al,%eax
   13657:	8b 55 f4             	mov    -0xc(%rbp),%edx
   1365a:	48 8d 35 04 6d 00 00 	lea    0x6d04(%rip),%rsi        # 1a365 <g_764+0x2305>
   13661:	48 89 c7             	mov    %rax,%rdi
   13664:	e8 8a 40 ff ff       	callq  76f3 <transparent_crc>
   13669:	48 8b 05 70 b5 00 00 	mov    0xb570(%rip),%rax        # 1ebe0 <g_1153+0x10>
   13670:	c1 e0 02             	shl    $0x2,%eax
   13673:	c1 f8 12             	sar    $0x12,%eax
   13676:	48 0f bf c0          	movswq %ax,%rax
   1367a:	8b 55 f4             	mov    -0xc(%rbp),%edx
   1367d:	48 8d 35 eb 6c 00 00 	lea    0x6ceb(%rip),%rsi        # 1a36f <g_764+0x230f>
   13684:	48 89 c7             	mov    %rax,%rdi
   13687:	e8 67 40 ff ff       	callq  76f3 <transparent_crc>
   1368c:	48 8b 05 4d b5 00 00 	mov    0xb54d(%rip),%rax        # 1ebe0 <g_1153+0x10>
   13693:	48 c1 e0 12          	shl    $0x12,%rax
   13697:	48 c1 f8 30          	sar    $0x30,%rax
   1369b:	48 0f bf c0          	movswq %ax,%rax
   1369f:	8b 55 f4             	mov    -0xc(%rbp),%edx
   136a2:	48 8d 35 d0 6c 00 00 	lea    0x6cd0(%rip),%rsi        # 1a379 <g_764+0x2319>
   136a9:	48 89 c7             	mov    %rax,%rdi
   136ac:	e8 42 40 ff ff       	callq  76f3 <transparent_crc>
   136b1:	48 8b 05 38 b5 00 00 	mov    0xb538(%rip),%rax        # 1ebf0 <g_1195>
   136b8:	8b 55 f4             	mov    -0xc(%rbp),%edx
   136bb:	48 8d 35 c1 6c 00 00 	lea    0x6cc1(%rip),%rsi        # 1a383 <g_764+0x2323>
   136c2:	48 89 c7             	mov    %rax,%rdi
   136c5:	e8 29 40 ff ff       	callq  76f3 <transparent_crc>
   136ca:	48 8b 05 27 b5 00 00 	mov    0xb527(%rip),%rax        # 1ebf8 <g_1195+0x8>
   136d1:	c1 e0 04             	shl    $0x4,%eax
   136d4:	c1 f8 04             	sar    $0x4,%eax
   136d7:	48 98                	cltq   
   136d9:	8b 55 f4             	mov    -0xc(%rbp),%edx
   136dc:	48 8d 35 aa 6c 00 00 	lea    0x6caa(%rip),%rsi        # 1a38d <g_764+0x232d>
   136e3:	48 89 c7             	mov    %rax,%rdi
   136e6:	e8 08 40 ff ff       	callq  76f3 <transparent_crc>
   136eb:	48 8b 05 06 b5 00 00 	mov    0xb506(%rip),%rax        # 1ebf8 <g_1195+0x8>
   136f2:	c1 e0 02             	shl    $0x2,%eax
   136f5:	c1 f8 1e             	sar    $0x1e,%eax
   136f8:	48 0f be c0          	movsbq %al,%rax
   136fc:	8b 55 f4             	mov    -0xc(%rbp),%edx
   136ff:	48 8d 35 91 6c 00 00 	lea    0x6c91(%rip),%rsi        # 1a397 <g_764+0x2337>
   13706:	48 89 c7             	mov    %rax,%rdi
   13709:	e8 e5 3f ff ff       	callq  76f3 <transparent_crc>
   1370e:	48 8b 05 e3 b4 00 00 	mov    0xb4e3(%rip),%rax        # 1ebf8 <g_1195+0x8>
   13715:	48 c1 e0 04          	shl    $0x4,%rax
   13719:	48 c1 f8 22          	sar    $0x22,%rax
   1371d:	48 98                	cltq   
   1371f:	8b 55 f4             	mov    -0xc(%rbp),%edx
   13722:	48 8d 35 78 6c 00 00 	lea    0x6c78(%rip),%rsi        # 1a3a1 <g_764+0x2341>
   13729:	48 89 c7             	mov    %rax,%rdi
   1372c:	e8 c2 3f ff ff       	callq  76f3 <transparent_crc>
   13731:	48 8b 05 c0 b4 00 00 	mov    0xb4c0(%rip),%rax        # 1ebf8 <g_1195+0x8>
   13738:	48 c1 e8 3c          	shr    $0x3c,%rax
   1373c:	48 89 c2             	mov    %rax,%rdx
   1373f:	48 8b 05 ba b4 00 00 	mov    0xb4ba(%rip),%rax        # 1ec00 <g_1195+0x10>
   13746:	25 ff 01 00 00       	and    $0x1ff,%eax
   1374b:	48 c1 e0 04          	shl    $0x4,%rax
   1374f:	48 09 d0             	or     %rdx,%rax
   13752:	0f b7 c0             	movzwl %ax,%eax
   13755:	8b 55 f4             	mov    -0xc(%rbp),%edx
   13758:	48 8d 35 4c 6c 00 00 	lea    0x6c4c(%rip),%rsi        # 1a3ab <g_764+0x234b>
   1375f:	48 89 c7             	mov    %rax,%rdi
   13762:	e8 8c 3f ff ff       	callq  76f3 <transparent_crc>
   13767:	48 8b 05 92 b4 00 00 	mov    0xb492(%rip),%rax        # 1ec00 <g_1195+0x10>
   1376e:	48 c1 e8 09          	shr    $0x9,%rax
   13772:	83 e0 7f             	and    $0x7f,%eax
   13775:	0f b6 c0             	movzbl %al,%eax
   13778:	8b 55 f4             	mov    -0xc(%rbp),%edx
   1377b:	48 8d 35 33 6c 00 00 	lea    0x6c33(%rip),%rsi        # 1a3b5 <g_764+0x2355>
   13782:	48 89 c7             	mov    %rax,%rdi
   13785:	e8 69 3f ff ff       	callq  76f3 <transparent_crc>
   1378a:	48 8b 05 6f b4 00 00 	mov    0xb46f(%rip),%rax        # 1ec00 <g_1195+0x10>
   13791:	c1 e0 02             	shl    $0x2,%eax
   13794:	c1 f8 12             	sar    $0x12,%eax
   13797:	48 0f bf c0          	movswq %ax,%rax
   1379b:	8b 55 f4             	mov    -0xc(%rbp),%edx
   1379e:	48 8d 35 1a 6c 00 00 	lea    0x6c1a(%rip),%rsi        # 1a3bf <g_764+0x235f>
   137a5:	48 89 c7             	mov    %rax,%rdi
   137a8:	e8 46 3f ff ff       	callq  76f3 <transparent_crc>
   137ad:	48 8b 05 4c b4 00 00 	mov    0xb44c(%rip),%rax        # 1ec00 <g_1195+0x10>
   137b4:	48 c1 e0 12          	shl    $0x12,%rax
   137b8:	48 c1 f8 30          	sar    $0x30,%rax
   137bc:	48 0f bf c0          	movswq %ax,%rax
   137c0:	8b 55 f4             	mov    -0xc(%rbp),%edx
   137c3:	48 8d 35 ff 6b 00 00 	lea    0x6bff(%rip),%rsi        # 1a3c9 <g_764+0x2369>
   137ca:	48 89 c7             	mov    %rax,%rdi
   137cd:	e8 21 3f ff ff       	callq  76f3 <transparent_crc>
   137d2:	0f b7 05 2d b4 00 00 	movzwl 0xb42d(%rip),%eax        # 1ec06 <g_1242>
   137d9:	0f b7 c0             	movzwl %ax,%eax
   137dc:	8b 55 f4             	mov    -0xc(%rbp),%edx
   137df:	48 8d 35 ed 6b 00 00 	lea    0x6bed(%rip),%rsi        # 1a3d3 <g_764+0x2373>
   137e6:	48 89 c7             	mov    %rax,%rdi
   137e9:	e8 05 3f ff ff       	callq  76f3 <transparent_crc>
   137ee:	8b 05 14 b4 00 00    	mov    0xb414(%rip),%eax        # 1ec08 <g_1263>
   137f4:	48 98                	cltq   
   137f6:	8b 55 f4             	mov    -0xc(%rbp),%edx
   137f9:	48 8d 35 da 6b 00 00 	lea    0x6bda(%rip),%rsi        # 1a3da <g_764+0x237a>
   13800:	48 89 c7             	mov    %rax,%rdi
   13803:	e8 eb 3e ff ff       	callq  76f3 <transparent_crc>
   13808:	c7 45 e8 00 00 00 00 	movl   $0x0,-0x18(%rbp)
   1380f:	eb 49                	jmp    1385a <main+0x1a50>
   13811:	8b 45 e8             	mov    -0x18(%rbp),%eax
   13814:	48 98                	cltq   
   13816:	48 8d 14 00          	lea    (%rax,%rax,1),%rdx
   1381a:	48 8d 05 eb b3 00 00 	lea    0xb3eb(%rip),%rax        # 1ec0c <g_1267>
   13821:	0f b7 04 02          	movzwl (%rdx,%rax,1),%eax
   13825:	0f b7 c0             	movzwl %ax,%eax
   13828:	8b 55 f4             	mov    -0xc(%rbp),%edx
   1382b:	48 8d 35 af 6b 00 00 	lea    0x6baf(%rip),%rsi        # 1a3e1 <g_764+0x2381>
   13832:	48 89 c7             	mov    %rax,%rdi
   13835:	e8 b9 3e ff ff       	callq  76f3 <transparent_crc>
   1383a:	83 7d f4 00          	cmpl   $0x0,-0xc(%rbp)
   1383e:	74 16                	je     13856 <main+0x1a4c>
   13840:	8b 45 e8             	mov    -0x18(%rbp),%eax
   13843:	89 c6                	mov    %eax,%esi
   13845:	48 8d 3d d5 66 00 00 	lea    0x66d5(%rip),%rdi        # 19f21 <g_764+0x1ec1>
   1384c:	b8 00 00 00 00       	mov    $0x0,%eax
   13851:	e8 2a 28 ff ff       	callq  6080 <printf@plt>
   13856:	83 45 e8 01          	addl   $0x1,-0x18(%rbp)
   1385a:	83 7d e8 01          	cmpl   $0x1,-0x18(%rbp)
   1385e:	7e b1                	jle    13811 <main+0x1a07>
   13860:	48 8b 05 a9 b3 00 00 	mov    0xb3a9(%rip),%rax        # 1ec10 <g_1286>
   13867:	8b 55 f4             	mov    -0xc(%rbp),%edx
   1386a:	48 8d 35 7a 6b 00 00 	lea    0x6b7a(%rip),%rsi        # 1a3eb <g_764+0x238b>
   13871:	48 89 c7             	mov    %rax,%rdi
   13874:	e8 7a 3e ff ff       	callq  76f3 <transparent_crc>
   13879:	8b 05 99 b3 00 00    	mov    0xb399(%rip),%eax        # 1ec18 <g_1286+0x8>
   1387f:	c1 e0 04             	shl    $0x4,%eax
   13882:	c1 f8 04             	sar    $0x4,%eax
   13885:	48 98                	cltq   
   13887:	8b 55 f4             	mov    -0xc(%rbp),%edx
   1388a:	48 8d 35 64 6b 00 00 	lea    0x6b64(%rip),%rsi        # 1a3f5 <g_764+0x2395>
   13891:	48 89 c7             	mov    %rax,%rdi
   13894:	e8 5a 3e ff ff       	callq  76f3 <transparent_crc>
   13899:	0f b6 05 7b b3 00 00 	movzbl 0xb37b(%rip),%eax        # 1ec1b <g_1286+0xb>
   138a0:	c1 e0 02             	shl    $0x2,%eax
   138a3:	c0 f8 06             	sar    $0x6,%al
   138a6:	48 0f be c0          	movsbq %al,%rax
   138aa:	8b 55 f4             	mov    -0xc(%rbp),%edx
   138ad:	48 8d 35 4b 6b 00 00 	lea    0x6b4b(%rip),%rsi        # 1a3ff <g_764+0x239f>
   138b4:	48 89 c7             	mov    %rax,%rdi
   138b7:	e8 37 3e ff ff       	callq  76f3 <transparent_crc>
   138bc:	48 8b 05 55 b3 00 00 	mov    0xb355(%rip),%rax        # 1ec18 <g_1286+0x8>
   138c3:	48 c1 e0 04          	shl    $0x4,%rax
   138c7:	48 c1 f8 22          	sar    $0x22,%rax
   138cb:	48 98                	cltq   
   138cd:	8b 55 f4             	mov    -0xc(%rbp),%edx
   138d0:	48 8d 35 32 6b 00 00 	lea    0x6b32(%rip),%rsi        # 1a409 <g_764+0x23a9>
   138d7:	48 89 c7             	mov    %rax,%rdi
   138da:	e8 14 3e ff ff       	callq  76f3 <transparent_crc>
   138df:	48 8b 05 32 b3 00 00 	mov    0xb332(%rip),%rax        # 1ec18 <g_1286+0x8>
   138e6:	48 c1 e8 3c          	shr    $0x3c,%rax
   138ea:	48 89 c2             	mov    %rax,%rdx
   138ed:	48 8b 05 2c b3 00 00 	mov    0xb32c(%rip),%rax        # 1ec20 <g_1286+0x10>
   138f4:	25 ff 01 00 00       	and    $0x1ff,%eax
   138f9:	48 c1 e0 04          	shl    $0x4,%rax
   138fd:	48 09 d0             	or     %rdx,%rax
   13900:	0f b7 c0             	movzwl %ax,%eax
   13903:	8b 55 f4             	mov    -0xc(%rbp),%edx
   13906:	48 8d 35 06 6b 00 00 	lea    0x6b06(%rip),%rsi        # 1a413 <g_764+0x23b3>
   1390d:	48 89 c7             	mov    %rax,%rdi
   13910:	e8 de 3d ff ff       	callq  76f3 <transparent_crc>
   13915:	0f b6 05 05 b3 00 00 	movzbl 0xb305(%rip),%eax        # 1ec21 <g_1286+0x11>
   1391c:	d0 e8                	shr    %al
   1391e:	0f b6 c0             	movzbl %al,%eax
   13921:	8b 55 f4             	mov    -0xc(%rbp),%edx
   13924:	48 8d 35 f2 6a 00 00 	lea    0x6af2(%rip),%rsi        # 1a41d <g_764+0x23bd>
   1392b:	48 89 c7             	mov    %rax,%rdi
   1392e:	e8 c0 3d ff ff       	callq  76f3 <transparent_crc>
   13933:	48 8b 05 e6 b2 00 00 	mov    0xb2e6(%rip),%rax        # 1ec20 <g_1286+0x10>
   1393a:	c1 e0 02             	shl    $0x2,%eax
   1393d:	c1 f8 12             	sar    $0x12,%eax
   13940:	48 0f bf c0          	movswq %ax,%rax
   13944:	8b 55 f4             	mov    -0xc(%rbp),%edx
   13947:	48 8d 35 d9 6a 00 00 	lea    0x6ad9(%rip),%rsi        # 1a427 <g_764+0x23c7>
   1394e:	48 89 c7             	mov    %rax,%rdi
   13951:	e8 9d 3d ff ff       	callq  76f3 <transparent_crc>
   13956:	48 8b 05 c3 b2 00 00 	mov    0xb2c3(%rip),%rax        # 1ec20 <g_1286+0x10>
   1395d:	48 c1 e0 12          	shl    $0x12,%rax
   13961:	48 c1 f8 30          	sar    $0x30,%rax
   13965:	48 0f bf c0          	movswq %ax,%rax
   13969:	8b 55 f4             	mov    -0xc(%rbp),%edx
   1396c:	48 8d 35 be 6a 00 00 	lea    0x6abe(%rip),%rsi        # 1a431 <g_764+0x23d1>
   13973:	48 89 c7             	mov    %rax,%rdi
   13976:	e8 78 3d ff ff       	callq  76f3 <transparent_crc>
   1397b:	48 8b 05 ae b2 00 00 	mov    0xb2ae(%rip),%rax        # 1ec30 <g_1287>
   13982:	8b 55 f4             	mov    -0xc(%rbp),%edx
   13985:	48 8d 35 af 6a 00 00 	lea    0x6aaf(%rip),%rsi        # 1a43b <g_764+0x23db>
   1398c:	48 89 c7             	mov    %rax,%rdi
   1398f:	e8 5f 3d ff ff       	callq  76f3 <transparent_crc>
   13994:	8b 05 9e b2 00 00    	mov    0xb29e(%rip),%eax        # 1ec38 <g_1287+0x8>
   1399a:	c1 e0 04             	shl    $0x4,%eax
   1399d:	c1 f8 04             	sar    $0x4,%eax
   139a0:	48 98                	cltq   
   139a2:	8b 55 f4             	mov    -0xc(%rbp),%edx
   139a5:	48 8d 35 99 6a 00 00 	lea    0x6a99(%rip),%rsi        # 1a445 <g_764+0x23e5>
   139ac:	48 89 c7             	mov    %rax,%rdi
   139af:	e8 3f 3d ff ff       	callq  76f3 <transparent_crc>
   139b4:	0f b6 05 80 b2 00 00 	movzbl 0xb280(%rip),%eax        # 1ec3b <g_1287+0xb>
   139bb:	c1 e0 02             	shl    $0x2,%eax
   139be:	c0 f8 06             	sar    $0x6,%al
   139c1:	48 0f be c0          	movsbq %al,%rax
   139c5:	8b 55 f4             	mov    -0xc(%rbp),%edx
   139c8:	48 8d 35 80 6a 00 00 	lea    0x6a80(%rip),%rsi        # 1a44f <g_764+0x23ef>
   139cf:	48 89 c7             	mov    %rax,%rdi
   139d2:	e8 1c 3d ff ff       	callq  76f3 <transparent_crc>
   139d7:	48 8b 05 5a b2 00 00 	mov    0xb25a(%rip),%rax        # 1ec38 <g_1287+0x8>
   139de:	48 c1 e0 04          	shl    $0x4,%rax
   139e2:	48 c1 f8 22          	sar    $0x22,%rax
   139e6:	48 98                	cltq   
   139e8:	8b 55 f4             	mov    -0xc(%rbp),%edx
   139eb:	48 8d 35 67 6a 00 00 	lea    0x6a67(%rip),%rsi        # 1a459 <g_764+0x23f9>
   139f2:	48 89 c7             	mov    %rax,%rdi
   139f5:	e8 f9 3c ff ff       	callq  76f3 <transparent_crc>
   139fa:	48 8b 05 37 b2 00 00 	mov    0xb237(%rip),%rax        # 1ec38 <g_1287+0x8>
   13a01:	48 c1 e8 3c          	shr    $0x3c,%rax
   13a05:	48 89 c2             	mov    %rax,%rdx
   13a08:	48 8b 05 31 b2 00 00 	mov    0xb231(%rip),%rax        # 1ec40 <g_1287+0x10>
   13a0f:	25 ff 01 00 00       	and    $0x1ff,%eax
   13a14:	48 c1 e0 04          	shl    $0x4,%rax
   13a18:	48 09 d0             	or     %rdx,%rax
   13a1b:	0f b7 c0             	movzwl %ax,%eax
   13a1e:	8b 55 f4             	mov    -0xc(%rbp),%edx
   13a21:	48 8d 35 3b 6a 00 00 	lea    0x6a3b(%rip),%rsi        # 1a463 <g_764+0x2403>
   13a28:	48 89 c7             	mov    %rax,%rdi
   13a2b:	e8 c3 3c ff ff       	callq  76f3 <transparent_crc>
   13a30:	0f b6 05 0a b2 00 00 	movzbl 0xb20a(%rip),%eax        # 1ec41 <g_1287+0x11>
   13a37:	d0 e8                	shr    %al
   13a39:	0f b6 c0             	movzbl %al,%eax
   13a3c:	8b 55 f4             	mov    -0xc(%rbp),%edx
   13a3f:	48 8d 35 27 6a 00 00 	lea    0x6a27(%rip),%rsi        # 1a46d <g_764+0x240d>
   13a46:	48 89 c7             	mov    %rax,%rdi
   13a49:	e8 a5 3c ff ff       	callq  76f3 <transparent_crc>
   13a4e:	48 8b 05 eb b1 00 00 	mov    0xb1eb(%rip),%rax        # 1ec40 <g_1287+0x10>
   13a55:	c1 e0 02             	shl    $0x2,%eax
   13a58:	c1 f8 12             	sar    $0x12,%eax
   13a5b:	48 0f bf c0          	movswq %ax,%rax
   13a5f:	8b 55 f4             	mov    -0xc(%rbp),%edx
   13a62:	48 8d 35 0e 6a 00 00 	lea    0x6a0e(%rip),%rsi        # 1a477 <g_764+0x2417>
   13a69:	48 89 c7             	mov    %rax,%rdi
   13a6c:	e8 82 3c ff ff       	callq  76f3 <transparent_crc>
   13a71:	48 8b 05 c8 b1 00 00 	mov    0xb1c8(%rip),%rax        # 1ec40 <g_1287+0x10>
   13a78:	48 c1 e0 12          	shl    $0x12,%rax
   13a7c:	48 c1 f8 30          	sar    $0x30,%rax
   13a80:	48 0f bf c0          	movswq %ax,%rax
   13a84:	8b 55 f4             	mov    -0xc(%rbp),%edx
   13a87:	48 8d 35 f3 69 00 00 	lea    0x69f3(%rip),%rsi        # 1a481 <g_764+0x2421>
   13a8e:	48 89 c7             	mov    %rax,%rdi
   13a91:	e8 5d 3c ff ff       	callq  76f3 <transparent_crc>
   13a96:	48 8b 05 b3 b1 00 00 	mov    0xb1b3(%rip),%rax        # 1ec50 <g_1288>
   13a9d:	8b 55 f4             	mov    -0xc(%rbp),%edx
   13aa0:	48 8d 35 e4 69 00 00 	lea    0x69e4(%rip),%rsi        # 1a48b <g_764+0x242b>
   13aa7:	48 89 c7             	mov    %rax,%rdi
   13aaa:	e8 44 3c ff ff       	callq  76f3 <transparent_crc>
   13aaf:	8b 05 a3 b1 00 00    	mov    0xb1a3(%rip),%eax        # 1ec58 <g_1288+0x8>
   13ab5:	c1 e0 04             	shl    $0x4,%eax
   13ab8:	c1 f8 04             	sar    $0x4,%eax
   13abb:	48 98                	cltq   
   13abd:	8b 55 f4             	mov    -0xc(%rbp),%edx
   13ac0:	48 8d 35 ce 69 00 00 	lea    0x69ce(%rip),%rsi        # 1a495 <g_764+0x2435>
   13ac7:	48 89 c7             	mov    %rax,%rdi
   13aca:	e8 24 3c ff ff       	callq  76f3 <transparent_crc>
   13acf:	0f b6 05 85 b1 00 00 	movzbl 0xb185(%rip),%eax        # 1ec5b <g_1288+0xb>
   13ad6:	c1 e0 02             	shl    $0x2,%eax
   13ad9:	c0 f8 06             	sar    $0x6,%al
   13adc:	48 0f be c0          	movsbq %al,%rax
   13ae0:	8b 55 f4             	mov    -0xc(%rbp),%edx
   13ae3:	48 8d 35 b5 69 00 00 	lea    0x69b5(%rip),%rsi        # 1a49f <g_764+0x243f>
   13aea:	48 89 c7             	mov    %rax,%rdi
   13aed:	e8 01 3c ff ff       	callq  76f3 <transparent_crc>
   13af2:	48 8b 05 5f b1 00 00 	mov    0xb15f(%rip),%rax        # 1ec58 <g_1288+0x8>
   13af9:	48 c1 e0 04          	shl    $0x4,%rax
   13afd:	48 c1 f8 22          	sar    $0x22,%rax
   13b01:	48 98                	cltq   
   13b03:	8b 55 f4             	mov    -0xc(%rbp),%edx
   13b06:	48 8d 35 9c 69 00 00 	lea    0x699c(%rip),%rsi        # 1a4a9 <g_764+0x2449>
   13b0d:	48 89 c7             	mov    %rax,%rdi
   13b10:	e8 de 3b ff ff       	callq  76f3 <transparent_crc>
   13b15:	48 8b 05 3c b1 00 00 	mov    0xb13c(%rip),%rax        # 1ec58 <g_1288+0x8>
   13b1c:	48 c1 e8 3c          	shr    $0x3c,%rax
   13b20:	48 89 c2             	mov    %rax,%rdx
   13b23:	48 8b 05 36 b1 00 00 	mov    0xb136(%rip),%rax        # 1ec60 <g_1288+0x10>
   13b2a:	25 ff 01 00 00       	and    $0x1ff,%eax
   13b2f:	48 c1 e0 04          	shl    $0x4,%rax
   13b33:	48 09 d0             	or     %rdx,%rax
   13b36:	0f b7 c0             	movzwl %ax,%eax
   13b39:	8b 55 f4             	mov    -0xc(%rbp),%edx
   13b3c:	48 8d 35 70 69 00 00 	lea    0x6970(%rip),%rsi        # 1a4b3 <g_764+0x2453>
   13b43:	48 89 c7             	mov    %rax,%rdi
   13b46:	e8 a8 3b ff ff       	callq  76f3 <transparent_crc>
   13b4b:	0f b6 05 0f b1 00 00 	movzbl 0xb10f(%rip),%eax        # 1ec61 <g_1288+0x11>
   13b52:	d0 e8                	shr    %al
   13b54:	0f b6 c0             	movzbl %al,%eax
   13b57:	8b 55 f4             	mov    -0xc(%rbp),%edx
   13b5a:	48 8d 35 5c 69 00 00 	lea    0x695c(%rip),%rsi        # 1a4bd <g_764+0x245d>
   13b61:	48 89 c7             	mov    %rax,%rdi
   13b64:	e8 8a 3b ff ff       	callq  76f3 <transparent_crc>
   13b69:	48 8b 05 f0 b0 00 00 	mov    0xb0f0(%rip),%rax        # 1ec60 <g_1288+0x10>
   13b70:	c1 e0 02             	shl    $0x2,%eax
   13b73:	c1 f8 12             	sar    $0x12,%eax
   13b76:	48 0f bf c0          	movswq %ax,%rax
   13b7a:	8b 55 f4             	mov    -0xc(%rbp),%edx
   13b7d:	48 8d 35 43 69 00 00 	lea    0x6943(%rip),%rsi        # 1a4c7 <g_764+0x2467>
   13b84:	48 89 c7             	mov    %rax,%rdi
   13b87:	e8 67 3b ff ff       	callq  76f3 <transparent_crc>
   13b8c:	48 8b 05 cd b0 00 00 	mov    0xb0cd(%rip),%rax        # 1ec60 <g_1288+0x10>
   13b93:	48 c1 e0 12          	shl    $0x12,%rax
   13b97:	48 c1 f8 30          	sar    $0x30,%rax
   13b9b:	48 0f bf c0          	movswq %ax,%rax
   13b9f:	8b 55 f4             	mov    -0xc(%rbp),%edx
   13ba2:	48 8d 35 28 69 00 00 	lea    0x6928(%rip),%rsi        # 1a4d1 <g_764+0x2471>
   13ba9:	48 89 c7             	mov    %rax,%rdi
   13bac:	e8 42 3b ff ff       	callq  76f3 <transparent_crc>
   13bb1:	48 8b 05 b8 b0 00 00 	mov    0xb0b8(%rip),%rax        # 1ec70 <g_1289>
   13bb8:	8b 55 f4             	mov    -0xc(%rbp),%edx
   13bbb:	48 8d 35 19 69 00 00 	lea    0x6919(%rip),%rsi        # 1a4db <g_764+0x247b>
   13bc2:	48 89 c7             	mov    %rax,%rdi
   13bc5:	e8 29 3b ff ff       	callq  76f3 <transparent_crc>
   13bca:	8b 05 a8 b0 00 00    	mov    0xb0a8(%rip),%eax        # 1ec78 <g_1289+0x8>
   13bd0:	c1 e0 04             	shl    $0x4,%eax
   13bd3:	c1 f8 04             	sar    $0x4,%eax
   13bd6:	48 98                	cltq   
   13bd8:	8b 55 f4             	mov    -0xc(%rbp),%edx
   13bdb:	48 8d 35 03 69 00 00 	lea    0x6903(%rip),%rsi        # 1a4e5 <g_764+0x2485>
   13be2:	48 89 c7             	mov    %rax,%rdi
   13be5:	e8 09 3b ff ff       	callq  76f3 <transparent_crc>
   13bea:	0f b6 05 8a b0 00 00 	movzbl 0xb08a(%rip),%eax        # 1ec7b <g_1289+0xb>
   13bf1:	c1 e0 02             	shl    $0x2,%eax
   13bf4:	c0 f8 06             	sar    $0x6,%al
   13bf7:	48 0f be c0          	movsbq %al,%rax
   13bfb:	8b 55 f4             	mov    -0xc(%rbp),%edx
   13bfe:	48 8d 35 ea 68 00 00 	lea    0x68ea(%rip),%rsi        # 1a4ef <g_764+0x248f>
   13c05:	48 89 c7             	mov    %rax,%rdi
   13c08:	e8 e6 3a ff ff       	callq  76f3 <transparent_crc>
   13c0d:	48 8b 05 64 b0 00 00 	mov    0xb064(%rip),%rax        # 1ec78 <g_1289+0x8>
   13c14:	48 c1 e0 04          	shl    $0x4,%rax
   13c18:	48 c1 f8 22          	sar    $0x22,%rax
   13c1c:	48 98                	cltq   
   13c1e:	8b 55 f4             	mov    -0xc(%rbp),%edx
   13c21:	48 8d 35 d1 68 00 00 	lea    0x68d1(%rip),%rsi        # 1a4f9 <g_764+0x2499>
   13c28:	48 89 c7             	mov    %rax,%rdi
   13c2b:	e8 c3 3a ff ff       	callq  76f3 <transparent_crc>
   13c30:	48 8b 05 41 b0 00 00 	mov    0xb041(%rip),%rax        # 1ec78 <g_1289+0x8>
   13c37:	48 c1 e8 3c          	shr    $0x3c,%rax
   13c3b:	48 89 c2             	mov    %rax,%rdx
   13c3e:	48 8b 05 3b b0 00 00 	mov    0xb03b(%rip),%rax        # 1ec80 <g_1289+0x10>
   13c45:	25 ff 01 00 00       	and    $0x1ff,%eax
   13c4a:	48 c1 e0 04          	shl    $0x4,%rax
   13c4e:	48 09 d0             	or     %rdx,%rax
   13c51:	0f b7 c0             	movzwl %ax,%eax
   13c54:	8b 55 f4             	mov    -0xc(%rbp),%edx
   13c57:	48 8d 35 a5 68 00 00 	lea    0x68a5(%rip),%rsi        # 1a503 <g_764+0x24a3>
   13c5e:	48 89 c7             	mov    %rax,%rdi
   13c61:	e8 8d 3a ff ff       	callq  76f3 <transparent_crc>
   13c66:	0f b6 05 14 b0 00 00 	movzbl 0xb014(%rip),%eax        # 1ec81 <g_1289+0x11>
   13c6d:	d0 e8                	shr    %al
   13c6f:	0f b6 c0             	movzbl %al,%eax
   13c72:	8b 55 f4             	mov    -0xc(%rbp),%edx
   13c75:	48 8d 35 91 68 00 00 	lea    0x6891(%rip),%rsi        # 1a50d <g_764+0x24ad>
   13c7c:	48 89 c7             	mov    %rax,%rdi
   13c7f:	e8 6f 3a ff ff       	callq  76f3 <transparent_crc>
   13c84:	48 8b 05 f5 af 00 00 	mov    0xaff5(%rip),%rax        # 1ec80 <g_1289+0x10>
   13c8b:	c1 e0 02             	shl    $0x2,%eax
   13c8e:	c1 f8 12             	sar    $0x12,%eax
   13c91:	48 0f bf c0          	movswq %ax,%rax
   13c95:	8b 55 f4             	mov    -0xc(%rbp),%edx
   13c98:	48 8d 35 78 68 00 00 	lea    0x6878(%rip),%rsi        # 1a517 <g_764+0x24b7>
   13c9f:	48 89 c7             	mov    %rax,%rdi
   13ca2:	e8 4c 3a ff ff       	callq  76f3 <transparent_crc>
   13ca7:	48 8b 05 d2 af 00 00 	mov    0xafd2(%rip),%rax        # 1ec80 <g_1289+0x10>
   13cae:	48 c1 e0 12          	shl    $0x12,%rax
   13cb2:	48 c1 f8 30          	sar    $0x30,%rax
   13cb6:	48 0f bf c0          	movswq %ax,%rax
   13cba:	8b 55 f4             	mov    -0xc(%rbp),%edx
   13cbd:	48 8d 35 5d 68 00 00 	lea    0x685d(%rip),%rsi        # 1a521 <g_764+0x24c1>
   13cc4:	48 89 c7             	mov    %rax,%rdi
   13cc7:	e8 27 3a ff ff       	callq  76f3 <transparent_crc>
   13ccc:	48 8b 05 bd af 00 00 	mov    0xafbd(%rip),%rax        # 1ec90 <g_1290>
   13cd3:	8b 55 f4             	mov    -0xc(%rbp),%edx
   13cd6:	48 8d 35 4e 68 00 00 	lea    0x684e(%rip),%rsi        # 1a52b <g_764+0x24cb>
   13cdd:	48 89 c7             	mov    %rax,%rdi
   13ce0:	e8 0e 3a ff ff       	callq  76f3 <transparent_crc>
   13ce5:	8b 05 ad af 00 00    	mov    0xafad(%rip),%eax        # 1ec98 <g_1290+0x8>
   13ceb:	c1 e0 04             	shl    $0x4,%eax
   13cee:	c1 f8 04             	sar    $0x4,%eax
   13cf1:	48 98                	cltq   
   13cf3:	8b 55 f4             	mov    -0xc(%rbp),%edx
   13cf6:	48 8d 35 38 68 00 00 	lea    0x6838(%rip),%rsi        # 1a535 <g_764+0x24d5>
   13cfd:	48 89 c7             	mov    %rax,%rdi
   13d00:	e8 ee 39 ff ff       	callq  76f3 <transparent_crc>
   13d05:	0f b6 05 8f af 00 00 	movzbl 0xaf8f(%rip),%eax        # 1ec9b <g_1290+0xb>
   13d0c:	c1 e0 02             	shl    $0x2,%eax
   13d0f:	c0 f8 06             	sar    $0x6,%al
   13d12:	48 0f be c0          	movsbq %al,%rax
   13d16:	8b 55 f4             	mov    -0xc(%rbp),%edx
   13d19:	48 8d 35 1f 68 00 00 	lea    0x681f(%rip),%rsi        # 1a53f <g_764+0x24df>
   13d20:	48 89 c7             	mov    %rax,%rdi
   13d23:	e8 cb 39 ff ff       	callq  76f3 <transparent_crc>
   13d28:	48 8b 05 69 af 00 00 	mov    0xaf69(%rip),%rax        # 1ec98 <g_1290+0x8>
   13d2f:	48 c1 e0 04          	shl    $0x4,%rax
   13d33:	48 c1 f8 22          	sar    $0x22,%rax
   13d37:	48 98                	cltq   
   13d39:	8b 55 f4             	mov    -0xc(%rbp),%edx
   13d3c:	48 8d 35 06 68 00 00 	lea    0x6806(%rip),%rsi        # 1a549 <g_764+0x24e9>
   13d43:	48 89 c7             	mov    %rax,%rdi
   13d46:	e8 a8 39 ff ff       	callq  76f3 <transparent_crc>
   13d4b:	48 8b 05 46 af 00 00 	mov    0xaf46(%rip),%rax        # 1ec98 <g_1290+0x8>
   13d52:	48 c1 e8 3c          	shr    $0x3c,%rax
   13d56:	48 89 c2             	mov    %rax,%rdx
   13d59:	48 8b 05 40 af 00 00 	mov    0xaf40(%rip),%rax        # 1eca0 <g_1290+0x10>
   13d60:	25 ff 01 00 00       	and    $0x1ff,%eax
   13d65:	48 c1 e0 04          	shl    $0x4,%rax
   13d69:	48 09 d0             	or     %rdx,%rax
   13d6c:	0f b7 c0             	movzwl %ax,%eax
   13d6f:	8b 55 f4             	mov    -0xc(%rbp),%edx
   13d72:	48 8d 35 da 67 00 00 	lea    0x67da(%rip),%rsi        # 1a553 <g_764+0x24f3>
   13d79:	48 89 c7             	mov    %rax,%rdi
   13d7c:	e8 72 39 ff ff       	callq  76f3 <transparent_crc>
   13d81:	0f b6 05 19 af 00 00 	movzbl 0xaf19(%rip),%eax        # 1eca1 <g_1290+0x11>
   13d88:	d0 e8                	shr    %al
   13d8a:	0f b6 c0             	movzbl %al,%eax
   13d8d:	8b 55 f4             	mov    -0xc(%rbp),%edx
   13d90:	48 8d 35 c6 67 00 00 	lea    0x67c6(%rip),%rsi        # 1a55d <g_764+0x24fd>
   13d97:	48 89 c7             	mov    %rax,%rdi
   13d9a:	e8 54 39 ff ff       	callq  76f3 <transparent_crc>
   13d9f:	48 8b 05 fa ae 00 00 	mov    0xaefa(%rip),%rax        # 1eca0 <g_1290+0x10>
   13da6:	c1 e0 02             	shl    $0x2,%eax
   13da9:	c1 f8 12             	sar    $0x12,%eax
   13dac:	48 0f bf c0          	movswq %ax,%rax
   13db0:	8b 55 f4             	mov    -0xc(%rbp),%edx
   13db3:	48 8d 35 ad 67 00 00 	lea    0x67ad(%rip),%rsi        # 1a567 <g_764+0x2507>
   13dba:	48 89 c7             	mov    %rax,%rdi
   13dbd:	e8 31 39 ff ff       	callq  76f3 <transparent_crc>
   13dc2:	48 8b 05 d7 ae 00 00 	mov    0xaed7(%rip),%rax        # 1eca0 <g_1290+0x10>
   13dc9:	48 c1 e0 12          	shl    $0x12,%rax
   13dcd:	48 c1 f8 30          	sar    $0x30,%rax
   13dd1:	48 0f bf c0          	movswq %ax,%rax
   13dd5:	8b 55 f4             	mov    -0xc(%rbp),%edx
   13dd8:	48 8d 35 92 67 00 00 	lea    0x6792(%rip),%rsi        # 1a571 <g_764+0x2511>
   13ddf:	48 89 c7             	mov    %rax,%rdi
   13de2:	e8 0c 39 ff ff       	callq  76f3 <transparent_crc>
   13de7:	48 8b 05 c2 ae 00 00 	mov    0xaec2(%rip),%rax        # 1ecb0 <g_1291>
   13dee:	8b 55 f4             	mov    -0xc(%rbp),%edx
   13df1:	48 8d 35 83 67 00 00 	lea    0x6783(%rip),%rsi        # 1a57b <g_764+0x251b>
   13df8:	48 89 c7             	mov    %rax,%rdi
   13dfb:	e8 f3 38 ff ff       	callq  76f3 <transparent_crc>
   13e00:	8b 05 b2 ae 00 00    	mov    0xaeb2(%rip),%eax        # 1ecb8 <g_1291+0x8>
   13e06:	c1 e0 04             	shl    $0x4,%eax
   13e09:	c1 f8 04             	sar    $0x4,%eax
   13e0c:	48 98                	cltq   
   13e0e:	8b 55 f4             	mov    -0xc(%rbp),%edx
   13e11:	48 8d 35 6d 67 00 00 	lea    0x676d(%rip),%rsi        # 1a585 <g_764+0x2525>
   13e18:	48 89 c7             	mov    %rax,%rdi
   13e1b:	e8 d3 38 ff ff       	callq  76f3 <transparent_crc>
   13e20:	0f b6 05 94 ae 00 00 	movzbl 0xae94(%rip),%eax        # 1ecbb <g_1291+0xb>
   13e27:	c1 e0 02             	shl    $0x2,%eax
   13e2a:	c0 f8 06             	sar    $0x6,%al
   13e2d:	48 0f be c0          	movsbq %al,%rax
   13e31:	8b 55 f4             	mov    -0xc(%rbp),%edx
   13e34:	48 8d 35 54 67 00 00 	lea    0x6754(%rip),%rsi        # 1a58f <g_764+0x252f>
   13e3b:	48 89 c7             	mov    %rax,%rdi
   13e3e:	e8 b0 38 ff ff       	callq  76f3 <transparent_crc>
   13e43:	48 8b 05 6e ae 00 00 	mov    0xae6e(%rip),%rax        # 1ecb8 <g_1291+0x8>
   13e4a:	48 c1 e0 04          	shl    $0x4,%rax
   13e4e:	48 c1 f8 22          	sar    $0x22,%rax
   13e52:	48 98                	cltq   
   13e54:	8b 55 f4             	mov    -0xc(%rbp),%edx
   13e57:	48 8d 35 3b 67 00 00 	lea    0x673b(%rip),%rsi        # 1a599 <g_764+0x2539>
   13e5e:	48 89 c7             	mov    %rax,%rdi
   13e61:	e8 8d 38 ff ff       	callq  76f3 <transparent_crc>
   13e66:	48 8b 05 4b ae 00 00 	mov    0xae4b(%rip),%rax        # 1ecb8 <g_1291+0x8>
   13e6d:	48 c1 e8 3c          	shr    $0x3c,%rax
   13e71:	48 89 c2             	mov    %rax,%rdx
   13e74:	48 8b 05 45 ae 00 00 	mov    0xae45(%rip),%rax        # 1ecc0 <g_1291+0x10>
   13e7b:	25 ff 01 00 00       	and    $0x1ff,%eax
   13e80:	48 c1 e0 04          	shl    $0x4,%rax
   13e84:	48 09 d0             	or     %rdx,%rax
   13e87:	0f b7 c0             	movzwl %ax,%eax
   13e8a:	8b 55 f4             	mov    -0xc(%rbp),%edx
   13e8d:	48 8d 35 0f 67 00 00 	lea    0x670f(%rip),%rsi        # 1a5a3 <g_764+0x2543>
   13e94:	48 89 c7             	mov    %rax,%rdi
   13e97:	e8 57 38 ff ff       	callq  76f3 <transparent_crc>
   13e9c:	0f b6 05 1e ae 00 00 	movzbl 0xae1e(%rip),%eax        # 1ecc1 <g_1291+0x11>
   13ea3:	d0 e8                	shr    %al
   13ea5:	0f b6 c0             	movzbl %al,%eax
   13ea8:	8b 55 f4             	mov    -0xc(%rbp),%edx
   13eab:	48 8d 35 fb 66 00 00 	lea    0x66fb(%rip),%rsi        # 1a5ad <g_764+0x254d>
   13eb2:	48 89 c7             	mov    %rax,%rdi
   13eb5:	e8 39 38 ff ff       	callq  76f3 <transparent_crc>
   13eba:	48 8b 05 ff ad 00 00 	mov    0xadff(%rip),%rax        # 1ecc0 <g_1291+0x10>
   13ec1:	c1 e0 02             	shl    $0x2,%eax
   13ec4:	c1 f8 12             	sar    $0x12,%eax
   13ec7:	48 0f bf c0          	movswq %ax,%rax
   13ecb:	8b 55 f4             	mov    -0xc(%rbp),%edx
   13ece:	48 8d 35 e2 66 00 00 	lea    0x66e2(%rip),%rsi        # 1a5b7 <g_764+0x2557>
   13ed5:	48 89 c7             	mov    %rax,%rdi
   13ed8:	e8 16 38 ff ff       	callq  76f3 <transparent_crc>
   13edd:	48 8b 05 dc ad 00 00 	mov    0xaddc(%rip),%rax        # 1ecc0 <g_1291+0x10>
   13ee4:	48 c1 e0 12          	shl    $0x12,%rax
   13ee8:	48 c1 f8 30          	sar    $0x30,%rax
   13eec:	48 0f bf c0          	movswq %ax,%rax
   13ef0:	8b 55 f4             	mov    -0xc(%rbp),%edx
   13ef3:	48 8d 35 c7 66 00 00 	lea    0x66c7(%rip),%rsi        # 1a5c1 <g_764+0x2561>
   13efa:	48 89 c7             	mov    %rax,%rdi
   13efd:	e8 f1 37 ff ff       	callq  76f3 <transparent_crc>
   13f02:	48 8b 05 c7 ad 00 00 	mov    0xadc7(%rip),%rax        # 1ecd0 <g_1292>
   13f09:	8b 55 f4             	mov    -0xc(%rbp),%edx
   13f0c:	48 8d 35 b8 66 00 00 	lea    0x66b8(%rip),%rsi        # 1a5cb <g_764+0x256b>
   13f13:	48 89 c7             	mov    %rax,%rdi
   13f16:	e8 d8 37 ff ff       	callq  76f3 <transparent_crc>
   13f1b:	8b 05 b7 ad 00 00    	mov    0xadb7(%rip),%eax        # 1ecd8 <g_1292+0x8>
   13f21:	c1 e0 04             	shl    $0x4,%eax
   13f24:	c1 f8 04             	sar    $0x4,%eax
   13f27:	48 98                	cltq   
   13f29:	8b 55 f4             	mov    -0xc(%rbp),%edx
   13f2c:	48 8d 35 a2 66 00 00 	lea    0x66a2(%rip),%rsi        # 1a5d5 <g_764+0x2575>
   13f33:	48 89 c7             	mov    %rax,%rdi
   13f36:	e8 b8 37 ff ff       	callq  76f3 <transparent_crc>
   13f3b:	0f b6 05 99 ad 00 00 	movzbl 0xad99(%rip),%eax        # 1ecdb <g_1292+0xb>
   13f42:	c1 e0 02             	shl    $0x2,%eax
   13f45:	c0 f8 06             	sar    $0x6,%al
   13f48:	48 0f be c0          	movsbq %al,%rax
   13f4c:	8b 55 f4             	mov    -0xc(%rbp),%edx
   13f4f:	48 8d 35 89 66 00 00 	lea    0x6689(%rip),%rsi        # 1a5df <g_764+0x257f>
   13f56:	48 89 c7             	mov    %rax,%rdi
   13f59:	e8 95 37 ff ff       	callq  76f3 <transparent_crc>
   13f5e:	48 8b 05 73 ad 00 00 	mov    0xad73(%rip),%rax        # 1ecd8 <g_1292+0x8>
   13f65:	48 c1 e0 04          	shl    $0x4,%rax
   13f69:	48 c1 f8 22          	sar    $0x22,%rax
   13f6d:	48 98                	cltq   
   13f6f:	8b 55 f4             	mov    -0xc(%rbp),%edx
   13f72:	48 8d 35 70 66 00 00 	lea    0x6670(%rip),%rsi        # 1a5e9 <g_764+0x2589>
   13f79:	48 89 c7             	mov    %rax,%rdi
   13f7c:	e8 72 37 ff ff       	callq  76f3 <transparent_crc>
   13f81:	48 8b 05 50 ad 00 00 	mov    0xad50(%rip),%rax        # 1ecd8 <g_1292+0x8>
   13f88:	48 c1 e8 3c          	shr    $0x3c,%rax
   13f8c:	48 89 c2             	mov    %rax,%rdx
   13f8f:	48 8b 05 4a ad 00 00 	mov    0xad4a(%rip),%rax        # 1ece0 <g_1292+0x10>
   13f96:	25 ff 01 00 00       	and    $0x1ff,%eax
   13f9b:	48 c1 e0 04          	shl    $0x4,%rax
   13f9f:	48 09 d0             	or     %rdx,%rax
   13fa2:	0f b7 c0             	movzwl %ax,%eax
   13fa5:	8b 55 f4             	mov    -0xc(%rbp),%edx
   13fa8:	48 8d 35 44 66 00 00 	lea    0x6644(%rip),%rsi        # 1a5f3 <g_764+0x2593>
   13faf:	48 89 c7             	mov    %rax,%rdi
   13fb2:	e8 3c 37 ff ff       	callq  76f3 <transparent_crc>
   13fb7:	0f b6 05 23 ad 00 00 	movzbl 0xad23(%rip),%eax        # 1ece1 <g_1292+0x11>
   13fbe:	d0 e8                	shr    %al
   13fc0:	0f b6 c0             	movzbl %al,%eax
   13fc3:	8b 55 f4             	mov    -0xc(%rbp),%edx
   13fc6:	48 8d 35 30 66 00 00 	lea    0x6630(%rip),%rsi        # 1a5fd <g_764+0x259d>
   13fcd:	48 89 c7             	mov    %rax,%rdi
   13fd0:	e8 1e 37 ff ff       	callq  76f3 <transparent_crc>
   13fd5:	48 8b 05 04 ad 00 00 	mov    0xad04(%rip),%rax        # 1ece0 <g_1292+0x10>
   13fdc:	c1 e0 02             	shl    $0x2,%eax
   13fdf:	c1 f8 12             	sar    $0x12,%eax
   13fe2:	48 0f bf c0          	movswq %ax,%rax
   13fe6:	8b 55 f4             	mov    -0xc(%rbp),%edx
   13fe9:	48 8d 35 17 66 00 00 	lea    0x6617(%rip),%rsi        # 1a607 <g_764+0x25a7>
   13ff0:	48 89 c7             	mov    %rax,%rdi
   13ff3:	e8 fb 36 ff ff       	callq  76f3 <transparent_crc>
   13ff8:	48 8b 05 e1 ac 00 00 	mov    0xace1(%rip),%rax        # 1ece0 <g_1292+0x10>
   13fff:	48 c1 e0 12          	shl    $0x12,%rax
   14003:	48 c1 f8 30          	sar    $0x30,%rax
   14007:	48 0f bf c0          	movswq %ax,%rax
   1400b:	8b 55 f4             	mov    -0xc(%rbp),%edx
   1400e:	48 8d 35 fc 65 00 00 	lea    0x65fc(%rip),%rsi        # 1a611 <g_764+0x25b1>
   14015:	48 89 c7             	mov    %rax,%rdi
   14018:	e8 d6 36 ff ff       	callq  76f3 <transparent_crc>
   1401d:	c7 45 e8 00 00 00 00 	movl   $0x0,-0x18(%rbp)
   14024:	e9 96 02 00 00       	jmpq   142bf <main+0x24b5>
   14029:	8b 45 e8             	mov    -0x18(%rbp),%eax
   1402c:	48 63 d0             	movslq %eax,%rdx
   1402f:	48 89 d0             	mov    %rdx,%rax
   14032:	48 c1 e0 02          	shl    $0x2,%rax
   14036:	48 01 d0             	add    %rdx,%rax
   14039:	48 01 c0             	add    %rax,%rax
   1403c:	48 01 d0             	add    %rdx,%rax
   1403f:	48 01 c0             	add    %rax,%rax
   14042:	48 89 c2             	mov    %rax,%rdx
   14045:	48 8d 05 b4 ac 00 00 	lea    0xacb4(%rip),%rax        # 1ed00 <g_1293>
   1404c:	48 8b 04 02          	mov    (%rdx,%rax,1),%rax
   14050:	8b 55 f4             	mov    -0xc(%rbp),%edx
   14053:	48 8d 35 c1 65 00 00 	lea    0x65c1(%rip),%rsi        # 1a61b <g_764+0x25bb>
   1405a:	48 89 c7             	mov    %rax,%rdi
   1405d:	e8 91 36 ff ff       	callq  76f3 <transparent_crc>
   14062:	8b 45 e8             	mov    -0x18(%rbp),%eax
   14065:	48 63 d0             	movslq %eax,%rdx
   14068:	48 89 d0             	mov    %rdx,%rax
   1406b:	48 c1 e0 02          	shl    $0x2,%rax
   1406f:	48 01 d0             	add    %rdx,%rax
   14072:	48 01 c0             	add    %rax,%rax
   14075:	48 01 d0             	add    %rdx,%rax
   14078:	48 01 c0             	add    %rax,%rax
   1407b:	48 89 c2             	mov    %rax,%rdx
   1407e:	48 8d 05 7b ac 00 00 	lea    0xac7b(%rip),%rax        # 1ed00 <g_1293>
   14085:	0f b7 4c 02 08       	movzwl 0x8(%rdx,%rax,1),%ecx
   1408a:	0f b7 44 02 0a       	movzwl 0xa(%rdx,%rax,1),%eax
   1408f:	25 ff 0f 00 00       	and    $0xfff,%eax
   14094:	48 c1 e0 10          	shl    $0x10,%rax
   14098:	48 09 c8             	or     %rcx,%rax
   1409b:	48 c1 e0 24          	shl    $0x24,%rax
   1409f:	48 c1 f8 24          	sar    $0x24,%rax
   140a3:	48 98                	cltq   
   140a5:	8b 55 f4             	mov    -0xc(%rbp),%edx
   140a8:	48 8d 35 79 65 00 00 	lea    0x6579(%rip),%rsi        # 1a628 <g_764+0x25c8>
   140af:	48 89 c7             	mov    %rax,%rdi
   140b2:	e8 3c 36 ff ff       	callq  76f3 <transparent_crc>
   140b7:	8b 45 e8             	mov    -0x18(%rbp),%eax
   140ba:	48 63 d0             	movslq %eax,%rdx
   140bd:	48 89 d0             	mov    %rdx,%rax
   140c0:	48 c1 e0 02          	shl    $0x2,%rax
   140c4:	48 01 d0             	add    %rdx,%rax
   140c7:	48 01 c0             	add    %rax,%rax
   140ca:	48 01 d0             	add    %rdx,%rax
   140cd:	48 01 c0             	add    %rax,%rax
   140d0:	48 89 c2             	mov    %rax,%rdx
   140d3:	48 8d 05 26 ac 00 00 	lea    0xac26(%rip),%rax        # 1ed00 <g_1293>
   140da:	0f b6 44 02 0b       	movzbl 0xb(%rdx,%rax,1),%eax
   140df:	c1 e0 02             	shl    $0x2,%eax
   140e2:	c0 f8 06             	sar    $0x6,%al
   140e5:	48 0f be c0          	movsbq %al,%rax
   140e9:	8b 55 f4             	mov    -0xc(%rbp),%edx
   140ec:	48 8d 35 42 65 00 00 	lea    0x6542(%rip),%rsi        # 1a635 <g_764+0x25d5>
   140f3:	48 89 c7             	mov    %rax,%rdi
   140f6:	e8 f8 35 ff ff       	callq  76f3 <transparent_crc>
   140fb:	8b 45 e8             	mov    -0x18(%rbp),%eax
   140fe:	48 63 d0             	movslq %eax,%rdx
   14101:	48 89 d0             	mov    %rdx,%rax
   14104:	48 c1 e0 02          	shl    $0x2,%rax
   14108:	48 01 d0             	add    %rdx,%rax
   1410b:	48 01 c0             	add    %rax,%rax
   1410e:	48 01 d0             	add    %rdx,%rax
   14111:	48 01 c0             	add    %rax,%rax
   14114:	48 89 c2             	mov    %rax,%rdx
   14117:	48 8d 05 e2 ab 00 00 	lea    0xabe2(%rip),%rax        # 1ed00 <g_1293>
   1411e:	0f b6 4c 02 0b       	movzbl 0xb(%rdx,%rax,1),%ecx
   14123:	c0 e9 06             	shr    $0x6,%cl
   14126:	0f b6 c9             	movzbl %cl,%ecx
   14129:	0f b7 74 02 0c       	movzwl 0xc(%rdx,%rax,1),%esi
   1412e:	48 c1 e6 02          	shl    $0x2,%rsi
   14132:	48 09 f1             	or     %rsi,%rcx
   14135:	0f b7 44 02 0e       	movzwl 0xe(%rdx,%rax,1),%eax
   1413a:	25 ff 0f 00 00       	and    $0xfff,%eax
   1413f:	48 c1 e0 12          	shl    $0x12,%rax
   14143:	48 09 c8             	or     %rcx,%rax
   14146:	48 c1 e0 22          	shl    $0x22,%rax
   1414a:	48 c1 f8 22          	sar    $0x22,%rax
   1414e:	48 98                	cltq   
   14150:	8b 55 f4             	mov    -0xc(%rbp),%edx
   14153:	48 8d 35 e8 64 00 00 	lea    0x64e8(%rip),%rsi        # 1a642 <g_764+0x25e2>
   1415a:	48 89 c7             	mov    %rax,%rdi
   1415d:	e8 91 35 ff ff       	callq  76f3 <transparent_crc>
   14162:	8b 45 e8             	mov    -0x18(%rbp),%eax
   14165:	48 63 d0             	movslq %eax,%rdx
   14168:	48 89 d0             	mov    %rdx,%rax
   1416b:	48 c1 e0 02          	shl    $0x2,%rax
   1416f:	48 01 d0             	add    %rdx,%rax
   14172:	48 01 c0             	add    %rax,%rax
   14175:	48 01 d0             	add    %rdx,%rax
   14178:	48 01 c0             	add    %rax,%rax
   1417b:	48 89 c2             	mov    %rax,%rdx
   1417e:	48 8d 05 7b ab 00 00 	lea    0xab7b(%rip),%rax        # 1ed00 <g_1293>
   14185:	0f b7 4c 02 0e       	movzwl 0xe(%rdx,%rax,1),%ecx
   1418a:	66 c1 e9 0c          	shr    $0xc,%cx
   1418e:	0f b7 c9             	movzwl %cx,%ecx
   14191:	0f b7 44 02 10       	movzwl 0x10(%rdx,%rax,1),%eax
   14196:	0f b7 c0             	movzwl %ax,%eax
   14199:	25 ff 01 00 00       	and    $0x1ff,%eax
   1419e:	48 c1 e0 04          	shl    $0x4,%rax
   141a2:	48 09 c8             	or     %rcx,%rax
   141a5:	0f b7 c0             	movzwl %ax,%eax
   141a8:	8b 55 f4             	mov    -0xc(%rbp),%edx
   141ab:	48 8d 35 9d 64 00 00 	lea    0x649d(%rip),%rsi        # 1a64f <g_764+0x25ef>
   141b2:	48 89 c7             	mov    %rax,%rdi
   141b5:	e8 39 35 ff ff       	callq  76f3 <transparent_crc>
   141ba:	8b 45 e8             	mov    -0x18(%rbp),%eax
   141bd:	48 63 d0             	movslq %eax,%rdx
   141c0:	48 89 d0             	mov    %rdx,%rax
   141c3:	48 c1 e0 02          	shl    $0x2,%rax
   141c7:	48 01 d0             	add    %rdx,%rax
   141ca:	48 01 c0             	add    %rax,%rax
   141cd:	48 01 d0             	add    %rdx,%rax
   141d0:	48 01 c0             	add    %rax,%rax
   141d3:	48 89 c2             	mov    %rax,%rdx
   141d6:	48 8d 05 33 ab 00 00 	lea    0xab33(%rip),%rax        # 1ed10 <g_1293+0x10>
   141dd:	0f b6 44 02 01       	movzbl 0x1(%rdx,%rax,1),%eax
   141e2:	d0 e8                	shr    %al
   141e4:	0f b6 c0             	movzbl %al,%eax
   141e7:	8b 55 f4             	mov    -0xc(%rbp),%edx
   141ea:	48 8d 35 6b 64 00 00 	lea    0x646b(%rip),%rsi        # 1a65c <g_764+0x25fc>
   141f1:	48 89 c7             	mov    %rax,%rdi
   141f4:	e8 fa 34 ff ff       	callq  76f3 <transparent_crc>
   141f9:	8b 45 e8             	mov    -0x18(%rbp),%eax
   141fc:	48 63 d0             	movslq %eax,%rdx
   141ff:	48 89 d0             	mov    %rdx,%rax
   14202:	48 c1 e0 02          	shl    $0x2,%rax
   14206:	48 01 d0             	add    %rdx,%rax
   14209:	48 01 c0             	add    %rax,%rax
   1420c:	48 01 d0             	add    %rdx,%rax
   1420f:	48 01 c0             	add    %rax,%rax
   14212:	48 89 c2             	mov    %rax,%rdx
   14215:	48 8d 05 f4 aa 00 00 	lea    0xaaf4(%rip),%rax        # 1ed10 <g_1293+0x10>
   1421c:	0f b7 44 02 02       	movzwl 0x2(%rdx,%rax,1),%eax
   14221:	c1 e0 02             	shl    $0x2,%eax
   14224:	66 c1 f8 02          	sar    $0x2,%ax
   14228:	48 0f bf c0          	movswq %ax,%rax
   1422c:	8b 55 f4             	mov    -0xc(%rbp),%edx
   1422f:	48 8d 35 33 64 00 00 	lea    0x6433(%rip),%rsi        # 1a669 <g_764+0x2609>
   14236:	48 89 c7             	mov    %rax,%rdi
   14239:	e8 b5 34 ff ff       	callq  76f3 <transparent_crc>
   1423e:	8b 45 e8             	mov    -0x18(%rbp),%eax
   14241:	48 63 d0             	movslq %eax,%rdx
   14244:	48 89 d0             	mov    %rdx,%rax
   14247:	48 c1 e0 02          	shl    $0x2,%rax
   1424b:	48 01 d0             	add    %rdx,%rax
   1424e:	48 01 c0             	add    %rax,%rax
   14251:	48 01 d0             	add    %rdx,%rax
   14254:	48 01 c0             	add    %rax,%rax
   14257:	48 89 c2             	mov    %rax,%rdx
   1425a:	48 8d 05 af aa 00 00 	lea    0xaaaf(%rip),%rax        # 1ed10 <g_1293+0x10>
   14261:	0f b7 4c 02 02       	movzwl 0x2(%rdx,%rax,1),%ecx
   14266:	66 c1 e9 0e          	shr    $0xe,%cx
   1426a:	0f b7 c9             	movzwl %cx,%ecx
   1426d:	0f b7 44 02 04       	movzwl 0x4(%rdx,%rax,1),%eax
   14272:	0f b7 c0             	movzwl %ax,%eax
   14275:	25 ff 3f 00 00       	and    $0x3fff,%eax
   1427a:	48 c1 e0 02          	shl    $0x2,%rax
   1427e:	48 09 c8             	or     %rcx,%rax
   14281:	48 c1 e0 30          	shl    $0x30,%rax
   14285:	48 c1 f8 30          	sar    $0x30,%rax
   14289:	48 0f bf c0          	movswq %ax,%rax
   1428d:	8b 55 f4             	mov    -0xc(%rbp),%edx
   14290:	48 8d 35 df 63 00 00 	lea    0x63df(%rip),%rsi        # 1a676 <g_764+0x2616>
   14297:	48 89 c7             	mov    %rax,%rdi
   1429a:	e8 54 34 ff ff       	callq  76f3 <transparent_crc>
   1429f:	83 7d f4 00          	cmpl   $0x0,-0xc(%rbp)
   142a3:	74 16                	je     142bb <main+0x24b1>
   142a5:	8b 45 e8             	mov    -0x18(%rbp),%eax
   142a8:	89 c6                	mov    %eax,%esi
   142aa:	48 8d 3d 70 5c 00 00 	lea    0x5c70(%rip),%rdi        # 19f21 <g_764+0x1ec1>
   142b1:	b8 00 00 00 00       	mov    $0x0,%eax
   142b6:	e8 c5 1d ff ff       	callq  6080 <printf@plt>
   142bb:	83 45 e8 01          	addl   $0x1,-0x18(%rbp)
   142bf:	83 7d e8 09          	cmpl   $0x9,-0x18(%rbp)
   142c3:	0f 8e 60 fd ff ff    	jle    14029 <main+0x221f>
   142c9:	48 8b 05 10 ab 00 00 	mov    0xab10(%rip),%rax        # 1ede0 <g_1294>
   142d0:	8b 55 f4             	mov    -0xc(%rbp),%edx
   142d3:	48 8d 35 a9 63 00 00 	lea    0x63a9(%rip),%rsi        # 1a683 <g_764+0x2623>
   142da:	48 89 c7             	mov    %rax,%rdi
   142dd:	e8 11 34 ff ff       	callq  76f3 <transparent_crc>
   142e2:	8b 05 00 ab 00 00    	mov    0xab00(%rip),%eax        # 1ede8 <g_1294+0x8>
   142e8:	c1 e0 04             	shl    $0x4,%eax
   142eb:	c1 f8 04             	sar    $0x4,%eax
   142ee:	48 98                	cltq   
   142f0:	8b 55 f4             	mov    -0xc(%rbp),%edx
   142f3:	48 8d 35 93 63 00 00 	lea    0x6393(%rip),%rsi        # 1a68d <g_764+0x262d>
   142fa:	48 89 c7             	mov    %rax,%rdi
   142fd:	e8 f1 33 ff ff       	callq  76f3 <transparent_crc>
   14302:	0f b6 05 e2 aa 00 00 	movzbl 0xaae2(%rip),%eax        # 1edeb <g_1294+0xb>
   14309:	c1 e0 02             	shl    $0x2,%eax
   1430c:	c0 f8 06             	sar    $0x6,%al
   1430f:	48 0f be c0          	movsbq %al,%rax
   14313:	8b 55 f4             	mov    -0xc(%rbp),%edx
   14316:	48 8d 35 7a 63 00 00 	lea    0x637a(%rip),%rsi        # 1a697 <g_764+0x2637>
   1431d:	48 89 c7             	mov    %rax,%rdi
   14320:	e8 ce 33 ff ff       	callq  76f3 <transparent_crc>
   14325:	48 8b 05 bc aa 00 00 	mov    0xaabc(%rip),%rax        # 1ede8 <g_1294+0x8>
   1432c:	48 c1 e0 04          	shl    $0x4,%rax
   14330:	48 c1 f8 22          	sar    $0x22,%rax
   14334:	48 98                	cltq   
   14336:	8b 55 f4             	mov    -0xc(%rbp),%edx
   14339:	48 8d 35 61 63 00 00 	lea    0x6361(%rip),%rsi        # 1a6a1 <g_764+0x2641>
   14340:	48 89 c7             	mov    %rax,%rdi
   14343:	e8 ab 33 ff ff       	callq  76f3 <transparent_crc>
   14348:	48 8b 05 99 aa 00 00 	mov    0xaa99(%rip),%rax        # 1ede8 <g_1294+0x8>
   1434f:	48 c1 e8 3c          	shr    $0x3c,%rax
   14353:	48 89 c2             	mov    %rax,%rdx
   14356:	48 8b 05 93 aa 00 00 	mov    0xaa93(%rip),%rax        # 1edf0 <g_1294+0x10>
   1435d:	25 ff 01 00 00       	and    $0x1ff,%eax
   14362:	48 c1 e0 04          	shl    $0x4,%rax
   14366:	48 09 d0             	or     %rdx,%rax
   14369:	0f b7 c0             	movzwl %ax,%eax
   1436c:	8b 55 f4             	mov    -0xc(%rbp),%edx
   1436f:	48 8d 35 35 63 00 00 	lea    0x6335(%rip),%rsi        # 1a6ab <g_764+0x264b>
   14376:	48 89 c7             	mov    %rax,%rdi
   14379:	e8 75 33 ff ff       	callq  76f3 <transparent_crc>
   1437e:	0f b6 05 6c aa 00 00 	movzbl 0xaa6c(%rip),%eax        # 1edf1 <g_1294+0x11>
   14385:	d0 e8                	shr    %al
   14387:	0f b6 c0             	movzbl %al,%eax
   1438a:	8b 55 f4             	mov    -0xc(%rbp),%edx
   1438d:	48 8d 35 21 63 00 00 	lea    0x6321(%rip),%rsi        # 1a6b5 <g_764+0x2655>
   14394:	48 89 c7             	mov    %rax,%rdi
   14397:	e8 57 33 ff ff       	callq  76f3 <transparent_crc>
   1439c:	48 8b 05 4d aa 00 00 	mov    0xaa4d(%rip),%rax        # 1edf0 <g_1294+0x10>
   143a3:	c1 e0 02             	shl    $0x2,%eax
   143a6:	c1 f8 12             	sar    $0x12,%eax
   143a9:	48 0f bf c0          	movswq %ax,%rax
   143ad:	8b 55 f4             	mov    -0xc(%rbp),%edx
   143b0:	48 8d 35 08 63 00 00 	lea    0x6308(%rip),%rsi        # 1a6bf <g_764+0x265f>
   143b7:	48 89 c7             	mov    %rax,%rdi
   143ba:	e8 34 33 ff ff       	callq  76f3 <transparent_crc>
   143bf:	48 8b 05 2a aa 00 00 	mov    0xaa2a(%rip),%rax        # 1edf0 <g_1294+0x10>
   143c6:	48 c1 e0 12          	shl    $0x12,%rax
   143ca:	48 c1 f8 30          	sar    $0x30,%rax
   143ce:	48 0f bf c0          	movswq %ax,%rax
   143d2:	8b 55 f4             	mov    -0xc(%rbp),%edx
   143d5:	48 8d 35 ed 62 00 00 	lea    0x62ed(%rip),%rsi        # 1a6c9 <g_764+0x2669>
   143dc:	48 89 c7             	mov    %rax,%rdi
   143df:	e8 0f 33 ff ff       	callq  76f3 <transparent_crc>
   143e4:	48 8b 05 15 aa 00 00 	mov    0xaa15(%rip),%rax        # 1ee00 <g_1295>
   143eb:	8b 55 f4             	mov    -0xc(%rbp),%edx
   143ee:	48 8d 35 de 62 00 00 	lea    0x62de(%rip),%rsi        # 1a6d3 <g_764+0x2673>
   143f5:	48 89 c7             	mov    %rax,%rdi
   143f8:	e8 f6 32 ff ff       	callq  76f3 <transparent_crc>
   143fd:	8b 05 05 aa 00 00    	mov    0xaa05(%rip),%eax        # 1ee08 <g_1295+0x8>
   14403:	c1 e0 04             	shl    $0x4,%eax
   14406:	c1 f8 04             	sar    $0x4,%eax
   14409:	48 98                	cltq   
   1440b:	8b 55 f4             	mov    -0xc(%rbp),%edx
   1440e:	48 8d 35 c8 62 00 00 	lea    0x62c8(%rip),%rsi        # 1a6dd <g_764+0x267d>
   14415:	48 89 c7             	mov    %rax,%rdi
   14418:	e8 d6 32 ff ff       	callq  76f3 <transparent_crc>
   1441d:	0f b6 05 e7 a9 00 00 	movzbl 0xa9e7(%rip),%eax        # 1ee0b <g_1295+0xb>
   14424:	c1 e0 02             	shl    $0x2,%eax
   14427:	c0 f8 06             	sar    $0x6,%al
   1442a:	48 0f be c0          	movsbq %al,%rax
   1442e:	8b 55 f4             	mov    -0xc(%rbp),%edx
   14431:	48 8d 35 af 62 00 00 	lea    0x62af(%rip),%rsi        # 1a6e7 <g_764+0x2687>
   14438:	48 89 c7             	mov    %rax,%rdi
   1443b:	e8 b3 32 ff ff       	callq  76f3 <transparent_crc>
   14440:	48 8b 05 c1 a9 00 00 	mov    0xa9c1(%rip),%rax        # 1ee08 <g_1295+0x8>
   14447:	48 c1 e0 04          	shl    $0x4,%rax
   1444b:	48 c1 f8 22          	sar    $0x22,%rax
   1444f:	48 98                	cltq   
   14451:	8b 55 f4             	mov    -0xc(%rbp),%edx
   14454:	48 8d 35 96 62 00 00 	lea    0x6296(%rip),%rsi        # 1a6f1 <g_764+0x2691>
   1445b:	48 89 c7             	mov    %rax,%rdi
   1445e:	e8 90 32 ff ff       	callq  76f3 <transparent_crc>
   14463:	48 8b 05 9e a9 00 00 	mov    0xa99e(%rip),%rax        # 1ee08 <g_1295+0x8>
   1446a:	48 c1 e8 3c          	shr    $0x3c,%rax
   1446e:	48 89 c2             	mov    %rax,%rdx
   14471:	48 8b 05 98 a9 00 00 	mov    0xa998(%rip),%rax        # 1ee10 <g_1295+0x10>
   14478:	25 ff 01 00 00       	and    $0x1ff,%eax
   1447d:	48 c1 e0 04          	shl    $0x4,%rax
   14481:	48 09 d0             	or     %rdx,%rax
   14484:	0f b7 c0             	movzwl %ax,%eax
   14487:	8b 55 f4             	mov    -0xc(%rbp),%edx
   1448a:	48 8d 35 6a 62 00 00 	lea    0x626a(%rip),%rsi        # 1a6fb <g_764+0x269b>
   14491:	48 89 c7             	mov    %rax,%rdi
   14494:	e8 5a 32 ff ff       	callq  76f3 <transparent_crc>
   14499:	0f b6 05 71 a9 00 00 	movzbl 0xa971(%rip),%eax        # 1ee11 <g_1295+0x11>
   144a0:	d0 e8                	shr    %al
   144a2:	0f b6 c0             	movzbl %al,%eax
   144a5:	8b 55 f4             	mov    -0xc(%rbp),%edx
   144a8:	48 8d 35 56 62 00 00 	lea    0x6256(%rip),%rsi        # 1a705 <g_764+0x26a5>
   144af:	48 89 c7             	mov    %rax,%rdi
   144b2:	e8 3c 32 ff ff       	callq  76f3 <transparent_crc>
   144b7:	48 8b 05 52 a9 00 00 	mov    0xa952(%rip),%rax        # 1ee10 <g_1295+0x10>
   144be:	c1 e0 02             	shl    $0x2,%eax
   144c1:	c1 f8 12             	sar    $0x12,%eax
   144c4:	48 0f bf c0          	movswq %ax,%rax
   144c8:	8b 55 f4             	mov    -0xc(%rbp),%edx
   144cb:	48 8d 35 3d 62 00 00 	lea    0x623d(%rip),%rsi        # 1a70f <g_764+0x26af>
   144d2:	48 89 c7             	mov    %rax,%rdi
   144d5:	e8 19 32 ff ff       	callq  76f3 <transparent_crc>
   144da:	48 8b 05 2f a9 00 00 	mov    0xa92f(%rip),%rax        # 1ee10 <g_1295+0x10>
   144e1:	48 c1 e0 12          	shl    $0x12,%rax
   144e5:	48 c1 f8 30          	sar    $0x30,%rax
   144e9:	48 0f bf c0          	movswq %ax,%rax
   144ed:	8b 55 f4             	mov    -0xc(%rbp),%edx
   144f0:	48 8d 35 22 62 00 00 	lea    0x6222(%rip),%rsi        # 1a719 <g_764+0x26b9>
   144f7:	48 89 c7             	mov    %rax,%rdi
   144fa:	e8 f4 31 ff ff       	callq  76f3 <transparent_crc>
   144ff:	48 8b 05 1a a9 00 00 	mov    0xa91a(%rip),%rax        # 1ee20 <g_1296>
   14506:	8b 55 f4             	mov    -0xc(%rbp),%edx
   14509:	48 8d 35 13 62 00 00 	lea    0x6213(%rip),%rsi        # 1a723 <g_764+0x26c3>
   14510:	48 89 c7             	mov    %rax,%rdi
   14513:	e8 db 31 ff ff       	callq  76f3 <transparent_crc>
   14518:	8b 05 0a a9 00 00    	mov    0xa90a(%rip),%eax        # 1ee28 <g_1296+0x8>
   1451e:	c1 e0 04             	shl    $0x4,%eax
   14521:	c1 f8 04             	sar    $0x4,%eax
   14524:	48 98                	cltq   
   14526:	8b 55 f4             	mov    -0xc(%rbp),%edx
   14529:	48 8d 35 fd 61 00 00 	lea    0x61fd(%rip),%rsi        # 1a72d <g_764+0x26cd>
   14530:	48 89 c7             	mov    %rax,%rdi
   14533:	e8 bb 31 ff ff       	callq  76f3 <transparent_crc>
   14538:	0f b6 05 ec a8 00 00 	movzbl 0xa8ec(%rip),%eax        # 1ee2b <g_1296+0xb>
   1453f:	c1 e0 02             	shl    $0x2,%eax
   14542:	c0 f8 06             	sar    $0x6,%al
   14545:	48 0f be c0          	movsbq %al,%rax
   14549:	8b 55 f4             	mov    -0xc(%rbp),%edx
   1454c:	48 8d 35 e4 61 00 00 	lea    0x61e4(%rip),%rsi        # 1a737 <g_764+0x26d7>
   14553:	48 89 c7             	mov    %rax,%rdi
   14556:	e8 98 31 ff ff       	callq  76f3 <transparent_crc>
   1455b:	48 8b 05 c6 a8 00 00 	mov    0xa8c6(%rip),%rax        # 1ee28 <g_1296+0x8>
   14562:	48 c1 e0 04          	shl    $0x4,%rax
   14566:	48 c1 f8 22          	sar    $0x22,%rax
   1456a:	48 98                	cltq   
   1456c:	8b 55 f4             	mov    -0xc(%rbp),%edx
   1456f:	48 8d 35 cb 61 00 00 	lea    0x61cb(%rip),%rsi        # 1a741 <g_764+0x26e1>
   14576:	48 89 c7             	mov    %rax,%rdi
   14579:	e8 75 31 ff ff       	callq  76f3 <transparent_crc>
   1457e:	48 8b 05 a3 a8 00 00 	mov    0xa8a3(%rip),%rax        # 1ee28 <g_1296+0x8>
   14585:	48 c1 e8 3c          	shr    $0x3c,%rax
   14589:	48 89 c2             	mov    %rax,%rdx
   1458c:	48 8b 05 9d a8 00 00 	mov    0xa89d(%rip),%rax        # 1ee30 <g_1296+0x10>
   14593:	25 ff 01 00 00       	and    $0x1ff,%eax
   14598:	48 c1 e0 04          	shl    $0x4,%rax
   1459c:	48 09 d0             	or     %rdx,%rax
   1459f:	0f b7 c0             	movzwl %ax,%eax
   145a2:	8b 55 f4             	mov    -0xc(%rbp),%edx
   145a5:	48 8d 35 9f 61 00 00 	lea    0x619f(%rip),%rsi        # 1a74b <g_764+0x26eb>
   145ac:	48 89 c7             	mov    %rax,%rdi
   145af:	e8 3f 31 ff ff       	callq  76f3 <transparent_crc>
   145b4:	0f b6 05 76 a8 00 00 	movzbl 0xa876(%rip),%eax        # 1ee31 <g_1296+0x11>
   145bb:	d0 e8                	shr    %al
   145bd:	0f b6 c0             	movzbl %al,%eax
   145c0:	8b 55 f4             	mov    -0xc(%rbp),%edx
   145c3:	48 8d 35 8b 61 00 00 	lea    0x618b(%rip),%rsi        # 1a755 <g_764+0x26f5>
   145ca:	48 89 c7             	mov    %rax,%rdi
   145cd:	e8 21 31 ff ff       	callq  76f3 <transparent_crc>
   145d2:	48 8b 05 57 a8 00 00 	mov    0xa857(%rip),%rax        # 1ee30 <g_1296+0x10>
   145d9:	c1 e0 02             	shl    $0x2,%eax
   145dc:	c1 f8 12             	sar    $0x12,%eax
   145df:	48 0f bf c0          	movswq %ax,%rax
   145e3:	8b 55 f4             	mov    -0xc(%rbp),%edx
   145e6:	48 8d 35 72 61 00 00 	lea    0x6172(%rip),%rsi        # 1a75f <g_764+0x26ff>
   145ed:	48 89 c7             	mov    %rax,%rdi
   145f0:	e8 fe 30 ff ff       	callq  76f3 <transparent_crc>
   145f5:	48 8b 05 34 a8 00 00 	mov    0xa834(%rip),%rax        # 1ee30 <g_1296+0x10>
   145fc:	48 c1 e0 12          	shl    $0x12,%rax
   14600:	48 c1 f8 30          	sar    $0x30,%rax
   14604:	48 0f bf c0          	movswq %ax,%rax
   14608:	8b 55 f4             	mov    -0xc(%rbp),%edx
   1460b:	48 8d 35 57 61 00 00 	lea    0x6157(%rip),%rsi        # 1a769 <g_764+0x2709>
   14612:	48 89 c7             	mov    %rax,%rdi
   14615:	e8 d9 30 ff ff       	callq  76f3 <transparent_crc>
   1461a:	48 8b 05 1f a8 00 00 	mov    0xa81f(%rip),%rax        # 1ee40 <g_1297>
   14621:	8b 55 f4             	mov    -0xc(%rbp),%edx
   14624:	48 8d 35 48 61 00 00 	lea    0x6148(%rip),%rsi        # 1a773 <g_764+0x2713>
   1462b:	48 89 c7             	mov    %rax,%rdi
   1462e:	e8 c0 30 ff ff       	callq  76f3 <transparent_crc>
   14633:	8b 05 0f a8 00 00    	mov    0xa80f(%rip),%eax        # 1ee48 <g_1297+0x8>
   14639:	c1 e0 04             	shl    $0x4,%eax
   1463c:	c1 f8 04             	sar    $0x4,%eax
   1463f:	48 98                	cltq   
   14641:	8b 55 f4             	mov    -0xc(%rbp),%edx
   14644:	48 8d 35 32 61 00 00 	lea    0x6132(%rip),%rsi        # 1a77d <g_764+0x271d>
   1464b:	48 89 c7             	mov    %rax,%rdi
   1464e:	e8 a0 30 ff ff       	callq  76f3 <transparent_crc>
   14653:	0f b6 05 f1 a7 00 00 	movzbl 0xa7f1(%rip),%eax        # 1ee4b <g_1297+0xb>
   1465a:	c1 e0 02             	shl    $0x2,%eax
   1465d:	c0 f8 06             	sar    $0x6,%al
   14660:	48 0f be c0          	movsbq %al,%rax
   14664:	8b 55 f4             	mov    -0xc(%rbp),%edx
   14667:	48 8d 35 19 61 00 00 	lea    0x6119(%rip),%rsi        # 1a787 <g_764+0x2727>
   1466e:	48 89 c7             	mov    %rax,%rdi
   14671:	e8 7d 30 ff ff       	callq  76f3 <transparent_crc>
   14676:	48 8b 05 cb a7 00 00 	mov    0xa7cb(%rip),%rax        # 1ee48 <g_1297+0x8>
   1467d:	48 c1 e0 04          	shl    $0x4,%rax
   14681:	48 c1 f8 22          	sar    $0x22,%rax
   14685:	48 98                	cltq   
   14687:	8b 55 f4             	mov    -0xc(%rbp),%edx
   1468a:	48 8d 35 00 61 00 00 	lea    0x6100(%rip),%rsi        # 1a791 <g_764+0x2731>
   14691:	48 89 c7             	mov    %rax,%rdi
   14694:	e8 5a 30 ff ff       	callq  76f3 <transparent_crc>
   14699:	48 8b 05 a8 a7 00 00 	mov    0xa7a8(%rip),%rax        # 1ee48 <g_1297+0x8>
   146a0:	48 c1 e8 3c          	shr    $0x3c,%rax
   146a4:	48 89 c2             	mov    %rax,%rdx
   146a7:	48 8b 05 a2 a7 00 00 	mov    0xa7a2(%rip),%rax        # 1ee50 <g_1297+0x10>
   146ae:	25 ff 01 00 00       	and    $0x1ff,%eax
   146b3:	48 c1 e0 04          	shl    $0x4,%rax
   146b7:	48 09 d0             	or     %rdx,%rax
   146ba:	0f b7 c0             	movzwl %ax,%eax
   146bd:	8b 55 f4             	mov    -0xc(%rbp),%edx
   146c0:	48 8d 35 d4 60 00 00 	lea    0x60d4(%rip),%rsi        # 1a79b <g_764+0x273b>
   146c7:	48 89 c7             	mov    %rax,%rdi
   146ca:	e8 24 30 ff ff       	callq  76f3 <transparent_crc>
   146cf:	0f b6 05 7b a7 00 00 	movzbl 0xa77b(%rip),%eax        # 1ee51 <g_1297+0x11>
   146d6:	d0 e8                	shr    %al
   146d8:	0f b6 c0             	movzbl %al,%eax
   146db:	8b 55 f4             	mov    -0xc(%rbp),%edx
   146de:	48 8d 35 c0 60 00 00 	lea    0x60c0(%rip),%rsi        # 1a7a5 <g_764+0x2745>
   146e5:	48 89 c7             	mov    %rax,%rdi
   146e8:	e8 06 30 ff ff       	callq  76f3 <transparent_crc>
   146ed:	48 8b 05 5c a7 00 00 	mov    0xa75c(%rip),%rax        # 1ee50 <g_1297+0x10>
   146f4:	c1 e0 02             	shl    $0x2,%eax
   146f7:	c1 f8 12             	sar    $0x12,%eax
   146fa:	48 0f bf c0          	movswq %ax,%rax
   146fe:	8b 55 f4             	mov    -0xc(%rbp),%edx
   14701:	48 8d 35 a7 60 00 00 	lea    0x60a7(%rip),%rsi        # 1a7af <g_764+0x274f>
   14708:	48 89 c7             	mov    %rax,%rdi
   1470b:	e8 e3 2f ff ff       	callq  76f3 <transparent_crc>
   14710:	48 8b 05 39 a7 00 00 	mov    0xa739(%rip),%rax        # 1ee50 <g_1297+0x10>
   14717:	48 c1 e0 12          	shl    $0x12,%rax
   1471b:	48 c1 f8 30          	sar    $0x30,%rax
   1471f:	48 0f bf c0          	movswq %ax,%rax
   14723:	8b 55 f4             	mov    -0xc(%rbp),%edx
   14726:	48 8d 35 8c 60 00 00 	lea    0x608c(%rip),%rsi        # 1a7b9 <g_764+0x2759>
   1472d:	48 89 c7             	mov    %rax,%rdi
   14730:	e8 be 2f ff ff       	callq  76f3 <transparent_crc>
   14735:	c7 45 e8 00 00 00 00 	movl   $0x0,-0x18(%rbp)
   1473c:	e9 96 02 00 00       	jmpq   149d7 <main+0x2bcd>
   14741:	8b 45 e8             	mov    -0x18(%rbp),%eax
   14744:	48 63 d0             	movslq %eax,%rdx
   14747:	48 89 d0             	mov    %rdx,%rax
   1474a:	48 c1 e0 02          	shl    $0x2,%rax
   1474e:	48 01 d0             	add    %rdx,%rax
   14751:	48 01 c0             	add    %rax,%rax
   14754:	48 01 d0             	add    %rdx,%rax
   14757:	48 01 c0             	add    %rax,%rax
   1475a:	48 89 c2             	mov    %rax,%rdx
   1475d:	48 8d 05 fc a6 00 00 	lea    0xa6fc(%rip),%rax        # 1ee60 <g_1298>
   14764:	48 8b 04 02          	mov    (%rdx,%rax,1),%rax
   14768:	8b 55 f4             	mov    -0xc(%rbp),%edx
   1476b:	48 8d 35 51 60 00 00 	lea    0x6051(%rip),%rsi        # 1a7c3 <g_764+0x2763>
   14772:	48 89 c7             	mov    %rax,%rdi
   14775:	e8 79 2f ff ff       	callq  76f3 <transparent_crc>
   1477a:	8b 45 e8             	mov    -0x18(%rbp),%eax
   1477d:	48 63 d0             	movslq %eax,%rdx
   14780:	48 89 d0             	mov    %rdx,%rax
   14783:	48 c1 e0 02          	shl    $0x2,%rax
   14787:	48 01 d0             	add    %rdx,%rax
   1478a:	48 01 c0             	add    %rax,%rax
   1478d:	48 01 d0             	add    %rdx,%rax
   14790:	48 01 c0             	add    %rax,%rax
   14793:	48 89 c2             	mov    %rax,%rdx
   14796:	48 8d 05 c3 a6 00 00 	lea    0xa6c3(%rip),%rax        # 1ee60 <g_1298>
   1479d:	0f b7 4c 02 08       	movzwl 0x8(%rdx,%rax,1),%ecx
   147a2:	0f b7 44 02 0a       	movzwl 0xa(%rdx,%rax,1),%eax
   147a7:	25 ff 0f 00 00       	and    $0xfff,%eax
   147ac:	48 c1 e0 10          	shl    $0x10,%rax
   147b0:	48 09 c8             	or     %rcx,%rax
   147b3:	48 c1 e0 24          	shl    $0x24,%rax
   147b7:	48 c1 f8 24          	sar    $0x24,%rax
   147bb:	48 98                	cltq   
   147bd:	8b 55 f4             	mov    -0xc(%rbp),%edx
   147c0:	48 8d 35 09 60 00 00 	lea    0x6009(%rip),%rsi        # 1a7d0 <g_764+0x2770>
   147c7:	48 89 c7             	mov    %rax,%rdi
   147ca:	e8 24 2f ff ff       	callq  76f3 <transparent_crc>
   147cf:	8b 45 e8             	mov    -0x18(%rbp),%eax
   147d2:	48 63 d0             	movslq %eax,%rdx
   147d5:	48 89 d0             	mov    %rdx,%rax
   147d8:	48 c1 e0 02          	shl    $0x2,%rax
   147dc:	48 01 d0             	add    %rdx,%rax
   147df:	48 01 c0             	add    %rax,%rax
   147e2:	48 01 d0             	add    %rdx,%rax
   147e5:	48 01 c0             	add    %rax,%rax
   147e8:	48 89 c2             	mov    %rax,%rdx
   147eb:	48 8d 05 6e a6 00 00 	lea    0xa66e(%rip),%rax        # 1ee60 <g_1298>
   147f2:	0f b6 44 02 0b       	movzbl 0xb(%rdx,%rax,1),%eax
   147f7:	c1 e0 02             	shl    $0x2,%eax
   147fa:	c0 f8 06             	sar    $0x6,%al
   147fd:	48 0f be c0          	movsbq %al,%rax
   14801:	8b 55 f4             	mov    -0xc(%rbp),%edx
   14804:	48 8d 35 d2 5f 00 00 	lea    0x5fd2(%rip),%rsi        # 1a7dd <g_764+0x277d>
   1480b:	48 89 c7             	mov    %rax,%rdi
   1480e:	e8 e0 2e ff ff       	callq  76f3 <transparent_crc>
   14813:	8b 45 e8             	mov    -0x18(%rbp),%eax
   14816:	48 63 d0             	movslq %eax,%rdx
   14819:	48 89 d0             	mov    %rdx,%rax
   1481c:	48 c1 e0 02          	shl    $0x2,%rax
   14820:	48 01 d0             	add    %rdx,%rax
   14823:	48 01 c0             	add    %rax,%rax
   14826:	48 01 d0             	add    %rdx,%rax
   14829:	48 01 c0             	add    %rax,%rax
   1482c:	48 89 c2             	mov    %rax,%rdx
   1482f:	48 8d 05 2a a6 00 00 	lea    0xa62a(%rip),%rax        # 1ee60 <g_1298>
   14836:	0f b6 4c 02 0b       	movzbl 0xb(%rdx,%rax,1),%ecx
   1483b:	c0 e9 06             	shr    $0x6,%cl
   1483e:	0f b6 c9             	movzbl %cl,%ecx
   14841:	0f b7 74 02 0c       	movzwl 0xc(%rdx,%rax,1),%esi
   14846:	48 c1 e6 02          	shl    $0x2,%rsi
   1484a:	48 09 f1             	or     %rsi,%rcx
   1484d:	0f b7 44 02 0e       	movzwl 0xe(%rdx,%rax,1),%eax
   14852:	25 ff 0f 00 00       	and    $0xfff,%eax
   14857:	48 c1 e0 12          	shl    $0x12,%rax
   1485b:	48 09 c8             	or     %rcx,%rax
   1485e:	48 c1 e0 22          	shl    $0x22,%rax
   14862:	48 c1 f8 22          	sar    $0x22,%rax
   14866:	48 98                	cltq   
   14868:	8b 55 f4             	mov    -0xc(%rbp),%edx
   1486b:	48 8d 35 78 5f 00 00 	lea    0x5f78(%rip),%rsi        # 1a7ea <g_764+0x278a>
   14872:	48 89 c7             	mov    %rax,%rdi
   14875:	e8 79 2e ff ff       	callq  76f3 <transparent_crc>
   1487a:	8b 45 e8             	mov    -0x18(%rbp),%eax
   1487d:	48 63 d0             	movslq %eax,%rdx
   14880:	48 89 d0             	mov    %rdx,%rax
   14883:	48 c1 e0 02          	shl    $0x2,%rax
   14887:	48 01 d0             	add    %rdx,%rax
   1488a:	48 01 c0             	add    %rax,%rax
   1488d:	48 01 d0             	add    %rdx,%rax
   14890:	48 01 c0             	add    %rax,%rax
   14893:	48 89 c2             	mov    %rax,%rdx
   14896:	48 8d 05 c3 a5 00 00 	lea    0xa5c3(%rip),%rax        # 1ee60 <g_1298>
   1489d:	0f b7 4c 02 0e       	movzwl 0xe(%rdx,%rax,1),%ecx
   148a2:	66 c1 e9 0c          	shr    $0xc,%cx
   148a6:	0f b7 c9             	movzwl %cx,%ecx
   148a9:	0f b7 44 02 10       	movzwl 0x10(%rdx,%rax,1),%eax
   148ae:	0f b7 c0             	movzwl %ax,%eax
   148b1:	25 ff 01 00 00       	and    $0x1ff,%eax
   148b6:	48 c1 e0 04          	shl    $0x4,%rax
   148ba:	48 09 c8             	or     %rcx,%rax
   148bd:	0f b7 c0             	movzwl %ax,%eax
   148c0:	8b 55 f4             	mov    -0xc(%rbp),%edx
   148c3:	48 8d 35 2d 5f 00 00 	lea    0x5f2d(%rip),%rsi        # 1a7f7 <g_764+0x2797>
   148ca:	48 89 c7             	mov    %rax,%rdi
   148cd:	e8 21 2e ff ff       	callq  76f3 <transparent_crc>
   148d2:	8b 45 e8             	mov    -0x18(%rbp),%eax
   148d5:	48 63 d0             	movslq %eax,%rdx
   148d8:	48 89 d0             	mov    %rdx,%rax
   148db:	48 c1 e0 02          	shl    $0x2,%rax
   148df:	48 01 d0             	add    %rdx,%rax
   148e2:	48 01 c0             	add    %rax,%rax
   148e5:	48 01 d0             	add    %rdx,%rax
   148e8:	48 01 c0             	add    %rax,%rax
   148eb:	48 89 c2             	mov    %rax,%rdx
   148ee:	48 8d 05 7b a5 00 00 	lea    0xa57b(%rip),%rax        # 1ee70 <g_1298+0x10>
   148f5:	0f b6 44 02 01       	movzbl 0x1(%rdx,%rax,1),%eax
   148fa:	d0 e8                	shr    %al
   148fc:	0f b6 c0             	movzbl %al,%eax
   148ff:	8b 55 f4             	mov    -0xc(%rbp),%edx
   14902:	48 8d 35 fb 5e 00 00 	lea    0x5efb(%rip),%rsi        # 1a804 <g_764+0x27a4>
   14909:	48 89 c7             	mov    %rax,%rdi
   1490c:	e8 e2 2d ff ff       	callq  76f3 <transparent_crc>
   14911:	8b 45 e8             	mov    -0x18(%rbp),%eax
   14914:	48 63 d0             	movslq %eax,%rdx
   14917:	48 89 d0             	mov    %rdx,%rax
   1491a:	48 c1 e0 02          	shl    $0x2,%rax
   1491e:	48 01 d0             	add    %rdx,%rax
   14921:	48 01 c0             	add    %rax,%rax
   14924:	48 01 d0             	add    %rdx,%rax
   14927:	48 01 c0             	add    %rax,%rax
   1492a:	48 89 c2             	mov    %rax,%rdx
   1492d:	48 8d 05 3c a5 00 00 	lea    0xa53c(%rip),%rax        # 1ee70 <g_1298+0x10>
   14934:	0f b7 44 02 02       	movzwl 0x2(%rdx,%rax,1),%eax
   14939:	c1 e0 02             	shl    $0x2,%eax
   1493c:	66 c1 f8 02          	sar    $0x2,%ax
   14940:	48 0f bf c0          	movswq %ax,%rax
   14944:	8b 55 f4             	mov    -0xc(%rbp),%edx
   14947:	48 8d 35 c3 5e 00 00 	lea    0x5ec3(%rip),%rsi        # 1a811 <g_764+0x27b1>
   1494e:	48 89 c7             	mov    %rax,%rdi
   14951:	e8 9d 2d ff ff       	callq  76f3 <transparent_crc>
   14956:	8b 45 e8             	mov    -0x18(%rbp),%eax
   14959:	48 63 d0             	movslq %eax,%rdx
   1495c:	48 89 d0             	mov    %rdx,%rax
   1495f:	48 c1 e0 02          	shl    $0x2,%rax
   14963:	48 01 d0             	add    %rdx,%rax
   14966:	48 01 c0             	add    %rax,%rax
   14969:	48 01 d0             	add    %rdx,%rax
   1496c:	48 01 c0             	add    %rax,%rax
   1496f:	48 89 c2             	mov    %rax,%rdx
   14972:	48 8d 05 f7 a4 00 00 	lea    0xa4f7(%rip),%rax        # 1ee70 <g_1298+0x10>
   14979:	0f b7 4c 02 02       	movzwl 0x2(%rdx,%rax,1),%ecx
   1497e:	66 c1 e9 0e          	shr    $0xe,%cx
   14982:	0f b7 c9             	movzwl %cx,%ecx
   14985:	0f b7 44 02 04       	movzwl 0x4(%rdx,%rax,1),%eax
   1498a:	0f b7 c0             	movzwl %ax,%eax
   1498d:	25 ff 3f 00 00       	and    $0x3fff,%eax
   14992:	48 c1 e0 02          	shl    $0x2,%rax
   14996:	48 09 c8             	or     %rcx,%rax
   14999:	48 c1 e0 30          	shl    $0x30,%rax
   1499d:	48 c1 f8 30          	sar    $0x30,%rax
   149a1:	48 0f bf c0          	movswq %ax,%rax
   149a5:	8b 55 f4             	mov    -0xc(%rbp),%edx
   149a8:	48 8d 35 6f 5e 00 00 	lea    0x5e6f(%rip),%rsi        # 1a81e <g_764+0x27be>
   149af:	48 89 c7             	mov    %rax,%rdi
   149b2:	e8 3c 2d ff ff       	callq  76f3 <transparent_crc>
   149b7:	83 7d f4 00          	cmpl   $0x0,-0xc(%rbp)
   149bb:	74 16                	je     149d3 <main+0x2bc9>
   149bd:	8b 45 e8             	mov    -0x18(%rbp),%eax
   149c0:	89 c6                	mov    %eax,%esi
   149c2:	48 8d 3d 58 55 00 00 	lea    0x5558(%rip),%rdi        # 19f21 <g_764+0x1ec1>
   149c9:	b8 00 00 00 00       	mov    $0x0,%eax
   149ce:	e8 ad 16 ff ff       	callq  6080 <printf@plt>
   149d3:	83 45 e8 01          	addl   $0x1,-0x18(%rbp)
   149d7:	83 7d e8 09          	cmpl   $0x9,-0x18(%rbp)
   149db:	0f 8e 60 fd ff ff    	jle    14741 <main+0x2937>
   149e1:	48 8b 05 58 a5 00 00 	mov    0xa558(%rip),%rax        # 1ef40 <g_1299>
   149e8:	8b 55 f4             	mov    -0xc(%rbp),%edx
   149eb:	48 8d 35 39 5e 00 00 	lea    0x5e39(%rip),%rsi        # 1a82b <g_764+0x27cb>
   149f2:	48 89 c7             	mov    %rax,%rdi
   149f5:	e8 f9 2c ff ff       	callq  76f3 <transparent_crc>
   149fa:	8b 05 48 a5 00 00    	mov    0xa548(%rip),%eax        # 1ef48 <g_1299+0x8>
   14a00:	c1 e0 04             	shl    $0x4,%eax
   14a03:	c1 f8 04             	sar    $0x4,%eax
   14a06:	48 98                	cltq   
   14a08:	8b 55 f4             	mov    -0xc(%rbp),%edx
   14a0b:	48 8d 35 23 5e 00 00 	lea    0x5e23(%rip),%rsi        # 1a835 <g_764+0x27d5>
   14a12:	48 89 c7             	mov    %rax,%rdi
   14a15:	e8 d9 2c ff ff       	callq  76f3 <transparent_crc>
   14a1a:	0f b6 05 2a a5 00 00 	movzbl 0xa52a(%rip),%eax        # 1ef4b <g_1299+0xb>
   14a21:	c1 e0 02             	shl    $0x2,%eax
   14a24:	c0 f8 06             	sar    $0x6,%al
   14a27:	48 0f be c0          	movsbq %al,%rax
   14a2b:	8b 55 f4             	mov    -0xc(%rbp),%edx
   14a2e:	48 8d 35 0a 5e 00 00 	lea    0x5e0a(%rip),%rsi        # 1a83f <g_764+0x27df>
   14a35:	48 89 c7             	mov    %rax,%rdi
   14a38:	e8 b6 2c ff ff       	callq  76f3 <transparent_crc>
   14a3d:	48 8b 05 04 a5 00 00 	mov    0xa504(%rip),%rax        # 1ef48 <g_1299+0x8>
   14a44:	48 c1 e0 04          	shl    $0x4,%rax
   14a48:	48 c1 f8 22          	sar    $0x22,%rax
   14a4c:	48 98                	cltq   
   14a4e:	8b 55 f4             	mov    -0xc(%rbp),%edx
   14a51:	48 8d 35 f1 5d 00 00 	lea    0x5df1(%rip),%rsi        # 1a849 <g_764+0x27e9>
   14a58:	48 89 c7             	mov    %rax,%rdi
   14a5b:	e8 93 2c ff ff       	callq  76f3 <transparent_crc>
   14a60:	48 8b 05 e1 a4 00 00 	mov    0xa4e1(%rip),%rax        # 1ef48 <g_1299+0x8>
   14a67:	48 c1 e8 3c          	shr    $0x3c,%rax
   14a6b:	48 89 c2             	mov    %rax,%rdx
   14a6e:	48 8b 05 db a4 00 00 	mov    0xa4db(%rip),%rax        # 1ef50 <g_1299+0x10>
   14a75:	25 ff 01 00 00       	and    $0x1ff,%eax
   14a7a:	48 c1 e0 04          	shl    $0x4,%rax
   14a7e:	48 09 d0             	or     %rdx,%rax
   14a81:	0f b7 c0             	movzwl %ax,%eax
   14a84:	8b 55 f4             	mov    -0xc(%rbp),%edx
   14a87:	48 8d 35 c5 5d 00 00 	lea    0x5dc5(%rip),%rsi        # 1a853 <g_764+0x27f3>
   14a8e:	48 89 c7             	mov    %rax,%rdi
   14a91:	e8 5d 2c ff ff       	callq  76f3 <transparent_crc>
   14a96:	0f b6 05 b4 a4 00 00 	movzbl 0xa4b4(%rip),%eax        # 1ef51 <g_1299+0x11>
   14a9d:	d0 e8                	shr    %al
   14a9f:	0f b6 c0             	movzbl %al,%eax
   14aa2:	8b 55 f4             	mov    -0xc(%rbp),%edx
   14aa5:	48 8d 35 b1 5d 00 00 	lea    0x5db1(%rip),%rsi        # 1a85d <g_764+0x27fd>
   14aac:	48 89 c7             	mov    %rax,%rdi
   14aaf:	e8 3f 2c ff ff       	callq  76f3 <transparent_crc>
   14ab4:	48 8b 05 95 a4 00 00 	mov    0xa495(%rip),%rax        # 1ef50 <g_1299+0x10>
   14abb:	c1 e0 02             	shl    $0x2,%eax
   14abe:	c1 f8 12             	sar    $0x12,%eax
   14ac1:	48 0f bf c0          	movswq %ax,%rax
   14ac5:	8b 55 f4             	mov    -0xc(%rbp),%edx
   14ac8:	48 8d 35 98 5d 00 00 	lea    0x5d98(%rip),%rsi        # 1a867 <g_764+0x2807>
   14acf:	48 89 c7             	mov    %rax,%rdi
   14ad2:	e8 1c 2c ff ff       	callq  76f3 <transparent_crc>
   14ad7:	48 8b 05 72 a4 00 00 	mov    0xa472(%rip),%rax        # 1ef50 <g_1299+0x10>
   14ade:	48 c1 e0 12          	shl    $0x12,%rax
   14ae2:	48 c1 f8 30          	sar    $0x30,%rax
   14ae6:	48 0f bf c0          	movswq %ax,%rax
   14aea:	8b 55 f4             	mov    -0xc(%rbp),%edx
   14aed:	48 8d 35 7d 5d 00 00 	lea    0x5d7d(%rip),%rsi        # 1a871 <g_764+0x2811>
   14af4:	48 89 c7             	mov    %rax,%rdi
   14af7:	e8 f7 2b ff ff       	callq  76f3 <transparent_crc>
   14afc:	48 8b 05 5d a4 00 00 	mov    0xa45d(%rip),%rax        # 1ef60 <g_1300>
   14b03:	8b 55 f4             	mov    -0xc(%rbp),%edx
   14b06:	48 8d 35 6e 5d 00 00 	lea    0x5d6e(%rip),%rsi        # 1a87b <g_764+0x281b>
   14b0d:	48 89 c7             	mov    %rax,%rdi
   14b10:	e8 de 2b ff ff       	callq  76f3 <transparent_crc>
   14b15:	8b 05 4d a4 00 00    	mov    0xa44d(%rip),%eax        # 1ef68 <g_1300+0x8>
   14b1b:	c1 e0 04             	shl    $0x4,%eax
   14b1e:	c1 f8 04             	sar    $0x4,%eax
   14b21:	48 98                	cltq   
   14b23:	8b 55 f4             	mov    -0xc(%rbp),%edx
   14b26:	48 8d 35 58 5d 00 00 	lea    0x5d58(%rip),%rsi        # 1a885 <g_764+0x2825>
   14b2d:	48 89 c7             	mov    %rax,%rdi
   14b30:	e8 be 2b ff ff       	callq  76f3 <transparent_crc>
   14b35:	0f b6 05 2f a4 00 00 	movzbl 0xa42f(%rip),%eax        # 1ef6b <g_1300+0xb>
   14b3c:	c1 e0 02             	shl    $0x2,%eax
   14b3f:	c0 f8 06             	sar    $0x6,%al
   14b42:	48 0f be c0          	movsbq %al,%rax
   14b46:	8b 55 f4             	mov    -0xc(%rbp),%edx
   14b49:	48 8d 35 3f 5d 00 00 	lea    0x5d3f(%rip),%rsi        # 1a88f <g_764+0x282f>
   14b50:	48 89 c7             	mov    %rax,%rdi
   14b53:	e8 9b 2b ff ff       	callq  76f3 <transparent_crc>
   14b58:	48 8b 05 09 a4 00 00 	mov    0xa409(%rip),%rax        # 1ef68 <g_1300+0x8>
   14b5f:	48 c1 e0 04          	shl    $0x4,%rax
   14b63:	48 c1 f8 22          	sar    $0x22,%rax
   14b67:	48 98                	cltq   
   14b69:	8b 55 f4             	mov    -0xc(%rbp),%edx
   14b6c:	48 8d 35 26 5d 00 00 	lea    0x5d26(%rip),%rsi        # 1a899 <g_764+0x2839>
   14b73:	48 89 c7             	mov    %rax,%rdi
   14b76:	e8 78 2b ff ff       	callq  76f3 <transparent_crc>
   14b7b:	48 8b 05 e6 a3 00 00 	mov    0xa3e6(%rip),%rax        # 1ef68 <g_1300+0x8>
   14b82:	48 c1 e8 3c          	shr    $0x3c,%rax
   14b86:	48 89 c2             	mov    %rax,%rdx
   14b89:	48 8b 05 e0 a3 00 00 	mov    0xa3e0(%rip),%rax        # 1ef70 <g_1300+0x10>
   14b90:	25 ff 01 00 00       	and    $0x1ff,%eax
   14b95:	48 c1 e0 04          	shl    $0x4,%rax
   14b99:	48 09 d0             	or     %rdx,%rax
   14b9c:	0f b7 c0             	movzwl %ax,%eax
   14b9f:	8b 55 f4             	mov    -0xc(%rbp),%edx
   14ba2:	48 8d 35 fa 5c 00 00 	lea    0x5cfa(%rip),%rsi        # 1a8a3 <g_764+0x2843>
   14ba9:	48 89 c7             	mov    %rax,%rdi
   14bac:	e8 42 2b ff ff       	callq  76f3 <transparent_crc>
   14bb1:	0f b6 05 b9 a3 00 00 	movzbl 0xa3b9(%rip),%eax        # 1ef71 <g_1300+0x11>
   14bb8:	d0 e8                	shr    %al
   14bba:	0f b6 c0             	movzbl %al,%eax
   14bbd:	8b 55 f4             	mov    -0xc(%rbp),%edx
   14bc0:	48 8d 35 e6 5c 00 00 	lea    0x5ce6(%rip),%rsi        # 1a8ad <g_764+0x284d>
   14bc7:	48 89 c7             	mov    %rax,%rdi
   14bca:	e8 24 2b ff ff       	callq  76f3 <transparent_crc>
   14bcf:	48 8b 05 9a a3 00 00 	mov    0xa39a(%rip),%rax        # 1ef70 <g_1300+0x10>
   14bd6:	c1 e0 02             	shl    $0x2,%eax
   14bd9:	c1 f8 12             	sar    $0x12,%eax
   14bdc:	48 0f bf c0          	movswq %ax,%rax
   14be0:	8b 55 f4             	mov    -0xc(%rbp),%edx
   14be3:	48 8d 35 cd 5c 00 00 	lea    0x5ccd(%rip),%rsi        # 1a8b7 <g_764+0x2857>
   14bea:	48 89 c7             	mov    %rax,%rdi
   14bed:	e8 01 2b ff ff       	callq  76f3 <transparent_crc>
   14bf2:	48 8b 05 77 a3 00 00 	mov    0xa377(%rip),%rax        # 1ef70 <g_1300+0x10>
   14bf9:	48 c1 e0 12          	shl    $0x12,%rax
   14bfd:	48 c1 f8 30          	sar    $0x30,%rax
   14c01:	48 0f bf c0          	movswq %ax,%rax
   14c05:	8b 55 f4             	mov    -0xc(%rbp),%edx
   14c08:	48 8d 35 b2 5c 00 00 	lea    0x5cb2(%rip),%rsi        # 1a8c1 <g_764+0x2861>
   14c0f:	48 89 c7             	mov    %rax,%rdi
   14c12:	e8 dc 2a ff ff       	callq  76f3 <transparent_crc>
   14c17:	c7 45 e8 00 00 00 00 	movl   $0x0,-0x18(%rbp)
   14c1e:	e9 5e 03 00 00       	jmpq   14f81 <main+0x3177>
   14c23:	c7 45 ec 00 00 00 00 	movl   $0x0,-0x14(%rbp)
   14c2a:	e9 44 03 00 00       	jmpq   14f73 <main+0x3169>
   14c2f:	8b 45 ec             	mov    -0x14(%rbp),%eax
   14c32:	48 63 d0             	movslq %eax,%rdx
   14c35:	8b 45 e8             	mov    -0x18(%rbp),%eax
   14c38:	48 63 c8             	movslq %eax,%rcx
   14c3b:	48 89 d0             	mov    %rdx,%rax
   14c3e:	48 c1 e0 02          	shl    $0x2,%rax
   14c42:	48 01 d0             	add    %rdx,%rax
   14c45:	48 01 c0             	add    %rax,%rax
   14c48:	48 01 d0             	add    %rdx,%rax
   14c4b:	48 01 c0             	add    %rax,%rax
   14c4e:	48 89 ca             	mov    %rcx,%rdx
   14c51:	48 c1 e2 05          	shl    $0x5,%rdx
   14c55:	48 01 ca             	add    %rcx,%rdx
   14c58:	48 c1 e2 02          	shl    $0x2,%rdx
   14c5c:	48 01 c2             	add    %rax,%rdx
   14c5f:	48 8d 05 1a a3 00 00 	lea    0xa31a(%rip),%rax        # 1ef80 <g_1301>
   14c66:	48 01 d0             	add    %rdx,%rax
   14c69:	48 8b 00             	mov    (%rax),%rax
   14c6c:	8b 55 f4             	mov    -0xc(%rbp),%edx
   14c6f:	48 8d 35 55 5c 00 00 	lea    0x5c55(%rip),%rsi        # 1a8cb <g_764+0x286b>
   14c76:	48 89 c7             	mov    %rax,%rdi
   14c79:	e8 75 2a ff ff       	callq  76f3 <transparent_crc>
   14c7e:	8b 45 ec             	mov    -0x14(%rbp),%eax
   14c81:	48 63 d0             	movslq %eax,%rdx
   14c84:	8b 45 e8             	mov    -0x18(%rbp),%eax
   14c87:	48 63 c8             	movslq %eax,%rcx
   14c8a:	48 89 d0             	mov    %rdx,%rax
   14c8d:	48 c1 e0 02          	shl    $0x2,%rax
   14c91:	48 01 d0             	add    %rdx,%rax
   14c94:	48 01 c0             	add    %rax,%rax
   14c97:	48 01 d0             	add    %rdx,%rax
   14c9a:	48 01 c0             	add    %rax,%rax
   14c9d:	48 89 ca             	mov    %rcx,%rdx
   14ca0:	48 c1 e2 05          	shl    $0x5,%rdx
   14ca4:	48 01 ca             	add    %rcx,%rdx
   14ca7:	48 c1 e2 02          	shl    $0x2,%rdx
   14cab:	48 01 c2             	add    %rax,%rdx
   14cae:	48 8d 05 cb a2 00 00 	lea    0xa2cb(%rip),%rax        # 1ef80 <g_1301>
   14cb5:	48 01 d0             	add    %rdx,%rax
   14cb8:	0f b7 50 08          	movzwl 0x8(%rax),%edx
   14cbc:	0f b7 40 0a          	movzwl 0xa(%rax),%eax
   14cc0:	25 ff 0f 00 00       	and    $0xfff,%eax
   14cc5:	48 c1 e0 10          	shl    $0x10,%rax
   14cc9:	48 09 d0             	or     %rdx,%rax
   14ccc:	48 c1 e0 24          	shl    $0x24,%rax
   14cd0:	48 c1 f8 24          	sar    $0x24,%rax
   14cd4:	48 98                	cltq   
   14cd6:	8b 55 f4             	mov    -0xc(%rbp),%edx
   14cd9:	48 8d 35 fb 5b 00 00 	lea    0x5bfb(%rip),%rsi        # 1a8db <g_764+0x287b>
   14ce0:	48 89 c7             	mov    %rax,%rdi
   14ce3:	e8 0b 2a ff ff       	callq  76f3 <transparent_crc>
   14ce8:	8b 45 ec             	mov    -0x14(%rbp),%eax
   14ceb:	48 63 d0             	movslq %eax,%rdx
   14cee:	8b 45 e8             	mov    -0x18(%rbp),%eax
   14cf1:	48 63 c8             	movslq %eax,%rcx
   14cf4:	48 89 d0             	mov    %rdx,%rax
   14cf7:	48 c1 e0 02          	shl    $0x2,%rax
   14cfb:	48 01 d0             	add    %rdx,%rax
   14cfe:	48 01 c0             	add    %rax,%rax
   14d01:	48 01 d0             	add    %rdx,%rax
   14d04:	48 01 c0             	add    %rax,%rax
   14d07:	48 89 ca             	mov    %rcx,%rdx
   14d0a:	48 c1 e2 05          	shl    $0x5,%rdx
   14d0e:	48 01 ca             	add    %rcx,%rdx
   14d11:	48 c1 e2 02          	shl    $0x2,%rdx
   14d15:	48 01 c2             	add    %rax,%rdx
   14d18:	48 8d 05 61 a2 00 00 	lea    0xa261(%rip),%rax        # 1ef80 <g_1301>
   14d1f:	48 01 d0             	add    %rdx,%rax
   14d22:	0f b6 40 0b          	movzbl 0xb(%rax),%eax
   14d26:	c1 e0 02             	shl    $0x2,%eax
   14d29:	c0 f8 06             	sar    $0x6,%al
   14d2c:	48 0f be c0          	movsbq %al,%rax
   14d30:	8b 55 f4             	mov    -0xc(%rbp),%edx
   14d33:	48 8d 35 b1 5b 00 00 	lea    0x5bb1(%rip),%rsi        # 1a8eb <g_764+0x288b>
   14d3a:	48 89 c7             	mov    %rax,%rdi
   14d3d:	e8 b1 29 ff ff       	callq  76f3 <transparent_crc>
   14d42:	8b 45 ec             	mov    -0x14(%rbp),%eax
   14d45:	48 63 d0             	movslq %eax,%rdx
   14d48:	8b 45 e8             	mov    -0x18(%rbp),%eax
   14d4b:	48 63 c8             	movslq %eax,%rcx
   14d4e:	48 89 d0             	mov    %rdx,%rax
   14d51:	48 c1 e0 02          	shl    $0x2,%rax
   14d55:	48 01 d0             	add    %rdx,%rax
   14d58:	48 01 c0             	add    %rax,%rax
   14d5b:	48 01 d0             	add    %rdx,%rax
   14d5e:	48 01 c0             	add    %rax,%rax
   14d61:	48 89 ca             	mov    %rcx,%rdx
   14d64:	48 c1 e2 05          	shl    $0x5,%rdx
   14d68:	48 01 ca             	add    %rcx,%rdx
   14d6b:	48 c1 e2 02          	shl    $0x2,%rdx
   14d6f:	48 01 c2             	add    %rax,%rdx
   14d72:	48 8d 05 07 a2 00 00 	lea    0xa207(%rip),%rax        # 1ef80 <g_1301>
   14d79:	48 01 d0             	add    %rdx,%rax
   14d7c:	0f b6 50 0b          	movzbl 0xb(%rax),%edx
   14d80:	c0 ea 06             	shr    $0x6,%dl
   14d83:	0f b6 d2             	movzbl %dl,%edx
   14d86:	0f b7 48 0c          	movzwl 0xc(%rax),%ecx
   14d8a:	48 c1 e1 02          	shl    $0x2,%rcx
   14d8e:	48 09 ca             	or     %rcx,%rdx
   14d91:	0f b7 40 0e          	movzwl 0xe(%rax),%eax
   14d95:	25 ff 0f 00 00       	and    $0xfff,%eax
   14d9a:	48 c1 e0 12          	shl    $0x12,%rax
   14d9e:	48 09 d0             	or     %rdx,%rax
   14da1:	48 c1 e0 22          	shl    $0x22,%rax
   14da5:	48 c1 f8 22          	sar    $0x22,%rax
   14da9:	48 98                	cltq   
   14dab:	8b 55 f4             	mov    -0xc(%rbp),%edx
   14dae:	48 8d 35 46 5b 00 00 	lea    0x5b46(%rip),%rsi        # 1a8fb <g_764+0x289b>
   14db5:	48 89 c7             	mov    %rax,%rdi
   14db8:	e8 36 29 ff ff       	callq  76f3 <transparent_crc>
   14dbd:	8b 45 ec             	mov    -0x14(%rbp),%eax
   14dc0:	48 63 d0             	movslq %eax,%rdx
   14dc3:	8b 45 e8             	mov    -0x18(%rbp),%eax
   14dc6:	48 63 c8             	movslq %eax,%rcx
   14dc9:	48 89 d0             	mov    %rdx,%rax
   14dcc:	48 c1 e0 02          	shl    $0x2,%rax
   14dd0:	48 01 d0             	add    %rdx,%rax
   14dd3:	48 01 c0             	add    %rax,%rax
   14dd6:	48 01 d0             	add    %rdx,%rax
   14dd9:	48 01 c0             	add    %rax,%rax
   14ddc:	48 89 ca             	mov    %rcx,%rdx
   14ddf:	48 c1 e2 05          	shl    $0x5,%rdx
   14de3:	48 01 ca             	add    %rcx,%rdx
   14de6:	48 c1 e2 02          	shl    $0x2,%rdx
   14dea:	48 01 c2             	add    %rax,%rdx
   14ded:	48 8d 05 8c a1 00 00 	lea    0xa18c(%rip),%rax        # 1ef80 <g_1301>
   14df4:	48 01 d0             	add    %rdx,%rax
   14df7:	0f b7 50 0e          	movzwl 0xe(%rax),%edx
   14dfb:	66 c1 ea 0c          	shr    $0xc,%dx
   14dff:	0f b7 d2             	movzwl %dx,%edx
   14e02:	0f b7 40 10          	movzwl 0x10(%rax),%eax
   14e06:	0f b7 c0             	movzwl %ax,%eax
   14e09:	25 ff 01 00 00       	and    $0x1ff,%eax
   14e0e:	48 c1 e0 04          	shl    $0x4,%rax
   14e12:	48 09 d0             	or     %rdx,%rax
   14e15:	0f b7 c0             	movzwl %ax,%eax
   14e18:	8b 55 f4             	mov    -0xc(%rbp),%edx
   14e1b:	48 8d 35 e9 5a 00 00 	lea    0x5ae9(%rip),%rsi        # 1a90b <g_764+0x28ab>
   14e22:	48 89 c7             	mov    %rax,%rdi
   14e25:	e8 c9 28 ff ff       	callq  76f3 <transparent_crc>
   14e2a:	8b 45 ec             	mov    -0x14(%rbp),%eax
   14e2d:	48 63 d0             	movslq %eax,%rdx
   14e30:	8b 45 e8             	mov    -0x18(%rbp),%eax
   14e33:	48 63 c8             	movslq %eax,%rcx
   14e36:	48 89 d0             	mov    %rdx,%rax
   14e39:	48 c1 e0 02          	shl    $0x2,%rax
   14e3d:	48 01 d0             	add    %rdx,%rax
   14e40:	48 01 c0             	add    %rax,%rax
   14e43:	48 01 d0             	add    %rdx,%rax
   14e46:	48 01 c0             	add    %rax,%rax
   14e49:	48 89 ca             	mov    %rcx,%rdx
   14e4c:	48 c1 e2 05          	shl    $0x5,%rdx
   14e50:	48 01 ca             	add    %rcx,%rdx
   14e53:	48 c1 e2 02          	shl    $0x2,%rdx
   14e57:	48 01 c2             	add    %rax,%rdx
   14e5a:	48 8d 05 2f a1 00 00 	lea    0xa12f(%rip),%rax        # 1ef90 <g_1301+0x10>
   14e61:	48 01 d0             	add    %rdx,%rax
   14e64:	0f b6 40 01          	movzbl 0x1(%rax),%eax
   14e68:	d0 e8                	shr    %al
   14e6a:	0f b6 c0             	movzbl %al,%eax
   14e6d:	8b 55 f4             	mov    -0xc(%rbp),%edx
   14e70:	48 8d 35 a4 5a 00 00 	lea    0x5aa4(%rip),%rsi        # 1a91b <g_764+0x28bb>
   14e77:	48 89 c7             	mov    %rax,%rdi
   14e7a:	e8 74 28 ff ff       	callq  76f3 <transparent_crc>
   14e7f:	8b 45 ec             	mov    -0x14(%rbp),%eax
   14e82:	48 63 d0             	movslq %eax,%rdx
   14e85:	8b 45 e8             	mov    -0x18(%rbp),%eax
   14e88:	48 63 c8             	movslq %eax,%rcx
   14e8b:	48 89 d0             	mov    %rdx,%rax
   14e8e:	48 c1 e0 02          	shl    $0x2,%rax
   14e92:	48 01 d0             	add    %rdx,%rax
   14e95:	48 01 c0             	add    %rax,%rax
   14e98:	48 01 d0             	add    %rdx,%rax
   14e9b:	48 01 c0             	add    %rax,%rax
   14e9e:	48 89 ca             	mov    %rcx,%rdx
   14ea1:	48 c1 e2 05          	shl    $0x5,%rdx
   14ea5:	48 01 ca             	add    %rcx,%rdx
   14ea8:	48 c1 e2 02          	shl    $0x2,%rdx
   14eac:	48 01 c2             	add    %rax,%rdx
   14eaf:	48 8d 05 da a0 00 00 	lea    0xa0da(%rip),%rax        # 1ef90 <g_1301+0x10>
   14eb6:	48 01 d0             	add    %rdx,%rax
   14eb9:	0f b7 40 02          	movzwl 0x2(%rax),%eax
   14ebd:	c1 e0 02             	shl    $0x2,%eax
   14ec0:	66 c1 f8 02          	sar    $0x2,%ax
   14ec4:	48 0f bf c0          	movswq %ax,%rax
   14ec8:	8b 55 f4             	mov    -0xc(%rbp),%edx
   14ecb:	48 8d 35 59 5a 00 00 	lea    0x5a59(%rip),%rsi        # 1a92b <g_764+0x28cb>
   14ed2:	48 89 c7             	mov    %rax,%rdi
   14ed5:	e8 19 28 ff ff       	callq  76f3 <transparent_crc>
   14eda:	8b 45 ec             	mov    -0x14(%rbp),%eax
   14edd:	48 63 d0             	movslq %eax,%rdx
   14ee0:	8b 45 e8             	mov    -0x18(%rbp),%eax
   14ee3:	48 63 c8             	movslq %eax,%rcx
   14ee6:	48 89 d0             	mov    %rdx,%rax
   14ee9:	48 c1 e0 02          	shl    $0x2,%rax
   14eed:	48 01 d0             	add    %rdx,%rax
   14ef0:	48 01 c0             	add    %rax,%rax
   14ef3:	48 01 d0             	add    %rdx,%rax
   14ef6:	48 01 c0             	add    %rax,%rax
   14ef9:	48 89 ca             	mov    %rcx,%rdx
   14efc:	48 c1 e2 05          	shl    $0x5,%rdx
   14f00:	48 01 ca             	add    %rcx,%rdx
   14f03:	48 c1 e2 02          	shl    $0x2,%rdx
   14f07:	48 01 c2             	add    %rax,%rdx
   14f0a:	48 8d 05 7f a0 00 00 	lea    0xa07f(%rip),%rax        # 1ef90 <g_1301+0x10>
   14f11:	48 01 d0             	add    %rdx,%rax
   14f14:	0f b7 50 02          	movzwl 0x2(%rax),%edx
   14f18:	66 c1 ea 0e          	shr    $0xe,%dx
   14f1c:	0f b7 d2             	movzwl %dx,%edx
   14f1f:	0f b7 40 04          	movzwl 0x4(%rax),%eax
   14f23:	0f b7 c0             	movzwl %ax,%eax
   14f26:	25 ff 3f 00 00       	and    $0x3fff,%eax
   14f2b:	48 c1 e0 02          	shl    $0x2,%rax
   14f2f:	48 09 d0             	or     %rdx,%rax
   14f32:	48 c1 e0 30          	shl    $0x30,%rax
   14f36:	48 c1 f8 30          	sar    $0x30,%rax
   14f3a:	48 0f bf c0          	movswq %ax,%rax
   14f3e:	8b 55 f4             	mov    -0xc(%rbp),%edx
   14f41:	48 8d 35 f3 59 00 00 	lea    0x59f3(%rip),%rsi        # 1a93b <g_764+0x28db>
   14f48:	48 89 c7             	mov    %rax,%rdi
   14f4b:	e8 a3 27 ff ff       	callq  76f3 <transparent_crc>
   14f50:	83 7d f4 00          	cmpl   $0x0,-0xc(%rbp)
   14f54:	74 19                	je     14f6f <main+0x3165>
   14f56:	8b 55 ec             	mov    -0x14(%rbp),%edx
   14f59:	8b 45 e8             	mov    -0x18(%rbp),%eax
   14f5c:	89 c6                	mov    %eax,%esi
   14f5e:	48 8d 3d 81 50 00 00 	lea    0x5081(%rip),%rdi        # 19fe6 <g_764+0x1f86>
   14f65:	b8 00 00 00 00       	mov    $0x0,%eax
   14f6a:	e8 11 11 ff ff       	callq  6080 <printf@plt>
   14f6f:	83 45 ec 01          	addl   $0x1,-0x14(%rbp)
   14f73:	83 7d ec 05          	cmpl   $0x5,-0x14(%rbp)
   14f77:	0f 8e b2 fc ff ff    	jle    14c2f <main+0x2e25>
   14f7d:	83 45 e8 01          	addl   $0x1,-0x18(%rbp)
   14f81:	83 7d e8 04          	cmpl   $0x4,-0x18(%rbp)
   14f85:	0f 8e 98 fc ff ff    	jle    14c23 <main+0x2e19>
   14f8b:	48 8b 05 8e a2 00 00 	mov    0xa28e(%rip),%rax        # 1f220 <g_1302>
   14f92:	8b 55 f4             	mov    -0xc(%rbp),%edx
   14f95:	48 8d 35 af 59 00 00 	lea    0x59af(%rip),%rsi        # 1a94b <g_764+0x28eb>
   14f9c:	48 89 c7             	mov    %rax,%rdi
   14f9f:	e8 4f 27 ff ff       	callq  76f3 <transparent_crc>
   14fa4:	8b 05 7e a2 00 00    	mov    0xa27e(%rip),%eax        # 1f228 <g_1302+0x8>
   14faa:	c1 e0 04             	shl    $0x4,%eax
   14fad:	c1 f8 04             	sar    $0x4,%eax
   14fb0:	48 98                	cltq   
   14fb2:	8b 55 f4             	mov    -0xc(%rbp),%edx
   14fb5:	48 8d 35 99 59 00 00 	lea    0x5999(%rip),%rsi        # 1a955 <g_764+0x28f5>
   14fbc:	48 89 c7             	mov    %rax,%rdi
   14fbf:	e8 2f 27 ff ff       	callq  76f3 <transparent_crc>
   14fc4:	0f b6 05 60 a2 00 00 	movzbl 0xa260(%rip),%eax        # 1f22b <g_1302+0xb>
   14fcb:	c1 e0 02             	shl    $0x2,%eax
   14fce:	c0 f8 06             	sar    $0x6,%al
   14fd1:	48 0f be c0          	movsbq %al,%rax
   14fd5:	8b 55 f4             	mov    -0xc(%rbp),%edx
   14fd8:	48 8d 35 80 59 00 00 	lea    0x5980(%rip),%rsi        # 1a95f <g_764+0x28ff>
   14fdf:	48 89 c7             	mov    %rax,%rdi
   14fe2:	e8 0c 27 ff ff       	callq  76f3 <transparent_crc>
   14fe7:	48 8b 05 3a a2 00 00 	mov    0xa23a(%rip),%rax        # 1f228 <g_1302+0x8>
   14fee:	48 c1 e0 04          	shl    $0x4,%rax
   14ff2:	48 c1 f8 22          	sar    $0x22,%rax
   14ff6:	48 98                	cltq   
   14ff8:	8b 55 f4             	mov    -0xc(%rbp),%edx
   14ffb:	48 8d 35 67 59 00 00 	lea    0x5967(%rip),%rsi        # 1a969 <g_764+0x2909>
   15002:	48 89 c7             	mov    %rax,%rdi
   15005:	e8 e9 26 ff ff       	callq  76f3 <transparent_crc>
   1500a:	48 8b 05 17 a2 00 00 	mov    0xa217(%rip),%rax        # 1f228 <g_1302+0x8>
   15011:	48 c1 e8 3c          	shr    $0x3c,%rax
   15015:	48 89 c2             	mov    %rax,%rdx
   15018:	48 8b 05 11 a2 00 00 	mov    0xa211(%rip),%rax        # 1f230 <g_1302+0x10>
   1501f:	25 ff 01 00 00       	and    $0x1ff,%eax
   15024:	48 c1 e0 04          	shl    $0x4,%rax
   15028:	48 09 d0             	or     %rdx,%rax
   1502b:	0f b7 c0             	movzwl %ax,%eax
   1502e:	8b 55 f4             	mov    -0xc(%rbp),%edx
   15031:	48 8d 35 3b 59 00 00 	lea    0x593b(%rip),%rsi        # 1a973 <g_764+0x2913>
   15038:	48 89 c7             	mov    %rax,%rdi
   1503b:	e8 b3 26 ff ff       	callq  76f3 <transparent_crc>
   15040:	0f b6 05 ea a1 00 00 	movzbl 0xa1ea(%rip),%eax        # 1f231 <g_1302+0x11>
   15047:	d0 e8                	shr    %al
   15049:	0f b6 c0             	movzbl %al,%eax
   1504c:	8b 55 f4             	mov    -0xc(%rbp),%edx
   1504f:	48 8d 35 27 59 00 00 	lea    0x5927(%rip),%rsi        # 1a97d <g_764+0x291d>
   15056:	48 89 c7             	mov    %rax,%rdi
   15059:	e8 95 26 ff ff       	callq  76f3 <transparent_crc>
   1505e:	48 8b 05 cb a1 00 00 	mov    0xa1cb(%rip),%rax        # 1f230 <g_1302+0x10>
   15065:	c1 e0 02             	shl    $0x2,%eax
   15068:	c1 f8 12             	sar    $0x12,%eax
   1506b:	48 0f bf c0          	movswq %ax,%rax
   1506f:	8b 55 f4             	mov    -0xc(%rbp),%edx
   15072:	48 8d 35 0e 59 00 00 	lea    0x590e(%rip),%rsi        # 1a987 <g_764+0x2927>
   15079:	48 89 c7             	mov    %rax,%rdi
   1507c:	e8 72 26 ff ff       	callq  76f3 <transparent_crc>
   15081:	48 8b 05 a8 a1 00 00 	mov    0xa1a8(%rip),%rax        # 1f230 <g_1302+0x10>
   15088:	48 c1 e0 12          	shl    $0x12,%rax
   1508c:	48 c1 f8 30          	sar    $0x30,%rax
   15090:	48 0f bf c0          	movswq %ax,%rax
   15094:	8b 55 f4             	mov    -0xc(%rbp),%edx
   15097:	48 8d 35 f3 58 00 00 	lea    0x58f3(%rip),%rsi        # 1a991 <g_764+0x2931>
   1509e:	48 89 c7             	mov    %rax,%rdi
   150a1:	e8 4d 26 ff ff       	callq  76f3 <transparent_crc>
   150a6:	48 8b 05 93 a1 00 00 	mov    0xa193(%rip),%rax        # 1f240 <g_1303>
   150ad:	8b 55 f4             	mov    -0xc(%rbp),%edx
   150b0:	48 8d 35 e4 58 00 00 	lea    0x58e4(%rip),%rsi        # 1a99b <g_764+0x293b>
   150b7:	48 89 c7             	mov    %rax,%rdi
   150ba:	e8 34 26 ff ff       	callq  76f3 <transparent_crc>
   150bf:	8b 05 83 a1 00 00    	mov    0xa183(%rip),%eax        # 1f248 <g_1303+0x8>
   150c5:	c1 e0 04             	shl    $0x4,%eax
   150c8:	c1 f8 04             	sar    $0x4,%eax
   150cb:	48 98                	cltq   
   150cd:	8b 55 f4             	mov    -0xc(%rbp),%edx
   150d0:	48 8d 35 ce 58 00 00 	lea    0x58ce(%rip),%rsi        # 1a9a5 <g_764+0x2945>
   150d7:	48 89 c7             	mov    %rax,%rdi
   150da:	e8 14 26 ff ff       	callq  76f3 <transparent_crc>
   150df:	0f b6 05 65 a1 00 00 	movzbl 0xa165(%rip),%eax        # 1f24b <g_1303+0xb>
   150e6:	c1 e0 02             	shl    $0x2,%eax
   150e9:	c0 f8 06             	sar    $0x6,%al
   150ec:	48 0f be c0          	movsbq %al,%rax
   150f0:	8b 55 f4             	mov    -0xc(%rbp),%edx
   150f3:	48 8d 35 b5 58 00 00 	lea    0x58b5(%rip),%rsi        # 1a9af <g_764+0x294f>
   150fa:	48 89 c7             	mov    %rax,%rdi
   150fd:	e8 f1 25 ff ff       	callq  76f3 <transparent_crc>
   15102:	48 8b 05 3f a1 00 00 	mov    0xa13f(%rip),%rax        # 1f248 <g_1303+0x8>
   15109:	48 c1 e0 04          	shl    $0x4,%rax
   1510d:	48 c1 f8 22          	sar    $0x22,%rax
   15111:	48 98                	cltq   
   15113:	8b 55 f4             	mov    -0xc(%rbp),%edx
   15116:	48 8d 35 9c 58 00 00 	lea    0x589c(%rip),%rsi        # 1a9b9 <g_764+0x2959>
   1511d:	48 89 c7             	mov    %rax,%rdi
   15120:	e8 ce 25 ff ff       	callq  76f3 <transparent_crc>
   15125:	48 8b 05 1c a1 00 00 	mov    0xa11c(%rip),%rax        # 1f248 <g_1303+0x8>
   1512c:	48 c1 e8 3c          	shr    $0x3c,%rax
   15130:	48 89 c2             	mov    %rax,%rdx
   15133:	48 8b 05 16 a1 00 00 	mov    0xa116(%rip),%rax        # 1f250 <g_1303+0x10>
   1513a:	25 ff 01 00 00       	and    $0x1ff,%eax
   1513f:	48 c1 e0 04          	shl    $0x4,%rax
   15143:	48 09 d0             	or     %rdx,%rax
   15146:	0f b7 c0             	movzwl %ax,%eax
   15149:	8b 55 f4             	mov    -0xc(%rbp),%edx
   1514c:	48 8d 35 70 58 00 00 	lea    0x5870(%rip),%rsi        # 1a9c3 <g_764+0x2963>
   15153:	48 89 c7             	mov    %rax,%rdi
   15156:	e8 98 25 ff ff       	callq  76f3 <transparent_crc>
   1515b:	0f b6 05 ef a0 00 00 	movzbl 0xa0ef(%rip),%eax        # 1f251 <g_1303+0x11>
   15162:	d0 e8                	shr    %al
   15164:	0f b6 c0             	movzbl %al,%eax
   15167:	8b 55 f4             	mov    -0xc(%rbp),%edx
   1516a:	48 8d 35 5c 58 00 00 	lea    0x585c(%rip),%rsi        # 1a9cd <g_764+0x296d>
   15171:	48 89 c7             	mov    %rax,%rdi
   15174:	e8 7a 25 ff ff       	callq  76f3 <transparent_crc>
   15179:	48 8b 05 d0 a0 00 00 	mov    0xa0d0(%rip),%rax        # 1f250 <g_1303+0x10>
   15180:	c1 e0 02             	shl    $0x2,%eax
   15183:	c1 f8 12             	sar    $0x12,%eax
   15186:	48 0f bf c0          	movswq %ax,%rax
   1518a:	8b 55 f4             	mov    -0xc(%rbp),%edx
   1518d:	48 8d 35 43 58 00 00 	lea    0x5843(%rip),%rsi        # 1a9d7 <g_764+0x2977>
   15194:	48 89 c7             	mov    %rax,%rdi
   15197:	e8 57 25 ff ff       	callq  76f3 <transparent_crc>
   1519c:	48 8b 05 ad a0 00 00 	mov    0xa0ad(%rip),%rax        # 1f250 <g_1303+0x10>
   151a3:	48 c1 e0 12          	shl    $0x12,%rax
   151a7:	48 c1 f8 30          	sar    $0x30,%rax
   151ab:	48 0f bf c0          	movswq %ax,%rax
   151af:	8b 55 f4             	mov    -0xc(%rbp),%edx
   151b2:	48 8d 35 28 58 00 00 	lea    0x5828(%rip),%rsi        # 1a9e1 <g_764+0x2981>
   151b9:	48 89 c7             	mov    %rax,%rdi
   151bc:	e8 32 25 ff ff       	callq  76f3 <transparent_crc>
   151c1:	48 8b 05 98 a0 00 00 	mov    0xa098(%rip),%rax        # 1f260 <g_1304>
   151c8:	8b 55 f4             	mov    -0xc(%rbp),%edx
   151cb:	48 8d 35 19 58 00 00 	lea    0x5819(%rip),%rsi        # 1a9eb <g_764+0x298b>
   151d2:	48 89 c7             	mov    %rax,%rdi
   151d5:	e8 19 25 ff ff       	callq  76f3 <transparent_crc>
   151da:	8b 05 88 a0 00 00    	mov    0xa088(%rip),%eax        # 1f268 <g_1304+0x8>
   151e0:	c1 e0 04             	shl    $0x4,%eax
   151e3:	c1 f8 04             	sar    $0x4,%eax
   151e6:	48 98                	cltq   
   151e8:	8b 55 f4             	mov    -0xc(%rbp),%edx
   151eb:	48 8d 35 03 58 00 00 	lea    0x5803(%rip),%rsi        # 1a9f5 <g_764+0x2995>
   151f2:	48 89 c7             	mov    %rax,%rdi
   151f5:	e8 f9 24 ff ff       	callq  76f3 <transparent_crc>
   151fa:	0f b6 05 6a a0 00 00 	movzbl 0xa06a(%rip),%eax        # 1f26b <g_1304+0xb>
   15201:	c1 e0 02             	shl    $0x2,%eax
   15204:	c0 f8 06             	sar    $0x6,%al
   15207:	48 0f be c0          	movsbq %al,%rax
   1520b:	8b 55 f4             	mov    -0xc(%rbp),%edx
   1520e:	48 8d 35 ea 57 00 00 	lea    0x57ea(%rip),%rsi        # 1a9ff <g_764+0x299f>
   15215:	48 89 c7             	mov    %rax,%rdi
   15218:	e8 d6 24 ff ff       	callq  76f3 <transparent_crc>
   1521d:	48 8b 05 44 a0 00 00 	mov    0xa044(%rip),%rax        # 1f268 <g_1304+0x8>
   15224:	48 c1 e0 04          	shl    $0x4,%rax
   15228:	48 c1 f8 22          	sar    $0x22,%rax
   1522c:	48 98                	cltq   
   1522e:	8b 55 f4             	mov    -0xc(%rbp),%edx
   15231:	48 8d 35 d1 57 00 00 	lea    0x57d1(%rip),%rsi        # 1aa09 <g_764+0x29a9>
   15238:	48 89 c7             	mov    %rax,%rdi
   1523b:	e8 b3 24 ff ff       	callq  76f3 <transparent_crc>
   15240:	48 8b 05 21 a0 00 00 	mov    0xa021(%rip),%rax        # 1f268 <g_1304+0x8>
   15247:	48 c1 e8 3c          	shr    $0x3c,%rax
   1524b:	48 89 c2             	mov    %rax,%rdx
   1524e:	48 8b 05 1b a0 00 00 	mov    0xa01b(%rip),%rax        # 1f270 <g_1304+0x10>
   15255:	25 ff 01 00 00       	and    $0x1ff,%eax
   1525a:	48 c1 e0 04          	shl    $0x4,%rax
   1525e:	48 09 d0             	or     %rdx,%rax
   15261:	0f b7 c0             	movzwl %ax,%eax
   15264:	8b 55 f4             	mov    -0xc(%rbp),%edx
   15267:	48 8d 35 a5 57 00 00 	lea    0x57a5(%rip),%rsi        # 1aa13 <g_764+0x29b3>
   1526e:	48 89 c7             	mov    %rax,%rdi
   15271:	e8 7d 24 ff ff       	callq  76f3 <transparent_crc>
   15276:	0f b6 05 f4 9f 00 00 	movzbl 0x9ff4(%rip),%eax        # 1f271 <g_1304+0x11>
   1527d:	d0 e8                	shr    %al
   1527f:	0f b6 c0             	movzbl %al,%eax
   15282:	8b 55 f4             	mov    -0xc(%rbp),%edx
   15285:	48 8d 35 91 57 00 00 	lea    0x5791(%rip),%rsi        # 1aa1d <g_764+0x29bd>
   1528c:	48 89 c7             	mov    %rax,%rdi
   1528f:	e8 5f 24 ff ff       	callq  76f3 <transparent_crc>
   15294:	48 8b 05 d5 9f 00 00 	mov    0x9fd5(%rip),%rax        # 1f270 <g_1304+0x10>
   1529b:	c1 e0 02             	shl    $0x2,%eax
   1529e:	c1 f8 12             	sar    $0x12,%eax
   152a1:	48 0f bf c0          	movswq %ax,%rax
   152a5:	8b 55 f4             	mov    -0xc(%rbp),%edx
   152a8:	48 8d 35 78 57 00 00 	lea    0x5778(%rip),%rsi        # 1aa27 <g_764+0x29c7>
   152af:	48 89 c7             	mov    %rax,%rdi
   152b2:	e8 3c 24 ff ff       	callq  76f3 <transparent_crc>
   152b7:	48 8b 05 b2 9f 00 00 	mov    0x9fb2(%rip),%rax        # 1f270 <g_1304+0x10>
   152be:	48 c1 e0 12          	shl    $0x12,%rax
   152c2:	48 c1 f8 30          	sar    $0x30,%rax
   152c6:	48 0f bf c0          	movswq %ax,%rax
   152ca:	8b 55 f4             	mov    -0xc(%rbp),%edx
   152cd:	48 8d 35 5d 57 00 00 	lea    0x575d(%rip),%rsi        # 1aa31 <g_764+0x29d1>
   152d4:	48 89 c7             	mov    %rax,%rdi
   152d7:	e8 17 24 ff ff       	callq  76f3 <transparent_crc>
   152dc:	48 8b 05 9d 9f 00 00 	mov    0x9f9d(%rip),%rax        # 1f280 <g_1305>
   152e3:	8b 55 f4             	mov    -0xc(%rbp),%edx
   152e6:	48 8d 35 4e 57 00 00 	lea    0x574e(%rip),%rsi        # 1aa3b <g_764+0x29db>
   152ed:	48 89 c7             	mov    %rax,%rdi
   152f0:	e8 fe 23 ff ff       	callq  76f3 <transparent_crc>
   152f5:	8b 05 8d 9f 00 00    	mov    0x9f8d(%rip),%eax        # 1f288 <g_1305+0x8>
   152fb:	c1 e0 04             	shl    $0x4,%eax
   152fe:	c1 f8 04             	sar    $0x4,%eax
   15301:	48 98                	cltq   
   15303:	8b 55 f4             	mov    -0xc(%rbp),%edx
   15306:	48 8d 35 38 57 00 00 	lea    0x5738(%rip),%rsi        # 1aa45 <g_764+0x29e5>
   1530d:	48 89 c7             	mov    %rax,%rdi
   15310:	e8 de 23 ff ff       	callq  76f3 <transparent_crc>
   15315:	0f b6 05 6f 9f 00 00 	movzbl 0x9f6f(%rip),%eax        # 1f28b <g_1305+0xb>
   1531c:	c1 e0 02             	shl    $0x2,%eax
   1531f:	c0 f8 06             	sar    $0x6,%al
   15322:	48 0f be c0          	movsbq %al,%rax
   15326:	8b 55 f4             	mov    -0xc(%rbp),%edx
   15329:	48 8d 35 1f 57 00 00 	lea    0x571f(%rip),%rsi        # 1aa4f <g_764+0x29ef>
   15330:	48 89 c7             	mov    %rax,%rdi
   15333:	e8 bb 23 ff ff       	callq  76f3 <transparent_crc>
   15338:	48 8b 05 49 9f 00 00 	mov    0x9f49(%rip),%rax        # 1f288 <g_1305+0x8>
   1533f:	48 c1 e0 04          	shl    $0x4,%rax
   15343:	48 c1 f8 22          	sar    $0x22,%rax
   15347:	48 98                	cltq   
   15349:	8b 55 f4             	mov    -0xc(%rbp),%edx
   1534c:	48 8d 35 06 57 00 00 	lea    0x5706(%rip),%rsi        # 1aa59 <g_764+0x29f9>
   15353:	48 89 c7             	mov    %rax,%rdi
   15356:	e8 98 23 ff ff       	callq  76f3 <transparent_crc>
   1535b:	48 8b 05 26 9f 00 00 	mov    0x9f26(%rip),%rax        # 1f288 <g_1305+0x8>
   15362:	48 c1 e8 3c          	shr    $0x3c,%rax
   15366:	48 89 c2             	mov    %rax,%rdx
   15369:	48 8b 05 20 9f 00 00 	mov    0x9f20(%rip),%rax        # 1f290 <g_1305+0x10>
   15370:	25 ff 01 00 00       	and    $0x1ff,%eax
   15375:	48 c1 e0 04          	shl    $0x4,%rax
   15379:	48 09 d0             	or     %rdx,%rax
   1537c:	0f b7 c0             	movzwl %ax,%eax
   1537f:	8b 55 f4             	mov    -0xc(%rbp),%edx
   15382:	48 8d 35 da 56 00 00 	lea    0x56da(%rip),%rsi        # 1aa63 <g_764+0x2a03>
   15389:	48 89 c7             	mov    %rax,%rdi
   1538c:	e8 62 23 ff ff       	callq  76f3 <transparent_crc>
   15391:	0f b6 05 f9 9e 00 00 	movzbl 0x9ef9(%rip),%eax        # 1f291 <g_1305+0x11>
   15398:	d0 e8                	shr    %al
   1539a:	0f b6 c0             	movzbl %al,%eax
   1539d:	8b 55 f4             	mov    -0xc(%rbp),%edx
   153a0:	48 8d 35 c6 56 00 00 	lea    0x56c6(%rip),%rsi        # 1aa6d <g_764+0x2a0d>
   153a7:	48 89 c7             	mov    %rax,%rdi
   153aa:	e8 44 23 ff ff       	callq  76f3 <transparent_crc>
   153af:	48 8b 05 da 9e 00 00 	mov    0x9eda(%rip),%rax        # 1f290 <g_1305+0x10>
   153b6:	c1 e0 02             	shl    $0x2,%eax
   153b9:	c1 f8 12             	sar    $0x12,%eax
   153bc:	48 0f bf c0          	movswq %ax,%rax
   153c0:	8b 55 f4             	mov    -0xc(%rbp),%edx
   153c3:	48 8d 35 ad 56 00 00 	lea    0x56ad(%rip),%rsi        # 1aa77 <g_764+0x2a17>
   153ca:	48 89 c7             	mov    %rax,%rdi
   153cd:	e8 21 23 ff ff       	callq  76f3 <transparent_crc>
   153d2:	48 8b 05 b7 9e 00 00 	mov    0x9eb7(%rip),%rax        # 1f290 <g_1305+0x10>
   153d9:	48 c1 e0 12          	shl    $0x12,%rax
   153dd:	48 c1 f8 30          	sar    $0x30,%rax
   153e1:	48 0f bf c0          	movswq %ax,%rax
   153e5:	8b 55 f4             	mov    -0xc(%rbp),%edx
   153e8:	48 8d 35 92 56 00 00 	lea    0x5692(%rip),%rsi        # 1aa81 <g_764+0x2a21>
   153ef:	48 89 c7             	mov    %rax,%rdi
   153f2:	e8 fc 22 ff ff       	callq  76f3 <transparent_crc>
   153f7:	c7 45 e8 00 00 00 00 	movl   $0x0,-0x18(%rbp)
   153fe:	e9 a6 03 00 00       	jmpq   157a9 <main+0x399f>
   15403:	c7 45 ec 00 00 00 00 	movl   $0x0,-0x14(%rbp)
   1540a:	e9 8c 03 00 00       	jmpq   1579b <main+0x3991>
   1540f:	8b 45 ec             	mov    -0x14(%rbp),%eax
   15412:	48 98                	cltq   
   15414:	8b 55 e8             	mov    -0x18(%rbp),%edx
   15417:	48 63 ca             	movslq %edx,%rcx
   1541a:	48 89 c2             	mov    %rax,%rdx
   1541d:	48 c1 e2 02          	shl    $0x2,%rdx
   15421:	48 01 c2             	add    %rax,%rdx
   15424:	48 01 d2             	add    %rdx,%rdx
   15427:	48 01 c2             	add    %rax,%rdx
   1542a:	48 8d 04 12          	lea    (%rdx,%rdx,1),%rax
   1542e:	48 89 c2             	mov    %rax,%rdx
   15431:	48 89 c8             	mov    %rcx,%rax
   15434:	48 c1 e0 02          	shl    $0x2,%rax
   15438:	48 01 c8             	add    %rcx,%rax
   1543b:	48 01 c0             	add    %rax,%rax
   1543e:	48 01 c8             	add    %rcx,%rax
   15441:	48 c1 e0 02          	shl    $0x2,%rax
   15445:	48 01 c2             	add    %rax,%rdx
   15448:	48 8d 05 51 9e 00 00 	lea    0x9e51(%rip),%rax        # 1f2a0 <g_1306>
   1544f:	48 01 d0             	add    %rdx,%rax
   15452:	48 8b 00             	mov    (%rax),%rax
   15455:	8b 55 f4             	mov    -0xc(%rbp),%edx
   15458:	48 8d 35 2c 56 00 00 	lea    0x562c(%rip),%rsi        # 1aa8b <g_764+0x2a2b>
   1545f:	48 89 c7             	mov    %rax,%rdi
   15462:	e8 8c 22 ff ff       	callq  76f3 <transparent_crc>
   15467:	8b 45 ec             	mov    -0x14(%rbp),%eax
   1546a:	48 98                	cltq   
   1546c:	8b 55 e8             	mov    -0x18(%rbp),%edx
   1546f:	48 63 ca             	movslq %edx,%rcx
   15472:	48 89 c2             	mov    %rax,%rdx
   15475:	48 c1 e2 02          	shl    $0x2,%rdx
   15479:	48 01 c2             	add    %rax,%rdx
   1547c:	48 01 d2             	add    %rdx,%rdx
   1547f:	48 01 c2             	add    %rax,%rdx
   15482:	48 8d 04 12          	lea    (%rdx,%rdx,1),%rax
   15486:	48 89 c2             	mov    %rax,%rdx
   15489:	48 89 c8             	mov    %rcx,%rax
   1548c:	48 c1 e0 02          	shl    $0x2,%rax
   15490:	48 01 c8             	add    %rcx,%rax
   15493:	48 01 c0             	add    %rax,%rax
   15496:	48 01 c8             	add    %rcx,%rax
   15499:	48 c1 e0 02          	shl    $0x2,%rax
   1549d:	48 01 c2             	add    %rax,%rdx
   154a0:	48 8d 05 f9 9d 00 00 	lea    0x9df9(%rip),%rax        # 1f2a0 <g_1306>
   154a7:	48 01 d0             	add    %rdx,%rax
   154aa:	0f b7 50 08          	movzwl 0x8(%rax),%edx
   154ae:	0f b7 40 0a          	movzwl 0xa(%rax),%eax
   154b2:	25 ff 0f 00 00       	and    $0xfff,%eax
   154b7:	48 c1 e0 10          	shl    $0x10,%rax
   154bb:	48 09 d0             	or     %rdx,%rax
   154be:	48 c1 e0 24          	shl    $0x24,%rax
   154c2:	48 c1 f8 24          	sar    $0x24,%rax
   154c6:	48 98                	cltq   
   154c8:	8b 55 f4             	mov    -0xc(%rbp),%edx
   154cb:	48 8d 35 c9 55 00 00 	lea    0x55c9(%rip),%rsi        # 1aa9b <g_764+0x2a3b>
   154d2:	48 89 c7             	mov    %rax,%rdi
   154d5:	e8 19 22 ff ff       	callq  76f3 <transparent_crc>
   154da:	8b 45 ec             	mov    -0x14(%rbp),%eax
   154dd:	48 98                	cltq   
   154df:	8b 55 e8             	mov    -0x18(%rbp),%edx
   154e2:	48 63 ca             	movslq %edx,%rcx
   154e5:	48 89 c2             	mov    %rax,%rdx
   154e8:	48 c1 e2 02          	shl    $0x2,%rdx
   154ec:	48 01 c2             	add    %rax,%rdx
   154ef:	48 01 d2             	add    %rdx,%rdx
   154f2:	48 01 c2             	add    %rax,%rdx
   154f5:	48 8d 04 12          	lea    (%rdx,%rdx,1),%rax
   154f9:	48 89 c2             	mov    %rax,%rdx
   154fc:	48 89 c8             	mov    %rcx,%rax
   154ff:	48 c1 e0 02          	shl    $0x2,%rax
   15503:	48 01 c8             	add    %rcx,%rax
   15506:	48 01 c0             	add    %rax,%rax
   15509:	48 01 c8             	add    %rcx,%rax
   1550c:	48 c1 e0 02          	shl    $0x2,%rax
   15510:	48 01 c2             	add    %rax,%rdx
   15513:	48 8d 05 86 9d 00 00 	lea    0x9d86(%rip),%rax        # 1f2a0 <g_1306>
   1551a:	48 01 d0             	add    %rdx,%rax
   1551d:	0f b6 40 0b          	movzbl 0xb(%rax),%eax
   15521:	c1 e0 02             	shl    $0x2,%eax
   15524:	c0 f8 06             	sar    $0x6,%al
   15527:	48 0f be c0          	movsbq %al,%rax
   1552b:	8b 55 f4             	mov    -0xc(%rbp),%edx
   1552e:	48 8d 35 76 55 00 00 	lea    0x5576(%rip),%rsi        # 1aaab <g_764+0x2a4b>
   15535:	48 89 c7             	mov    %rax,%rdi
   15538:	e8 b6 21 ff ff       	callq  76f3 <transparent_crc>
   1553d:	8b 45 ec             	mov    -0x14(%rbp),%eax
   15540:	48 98                	cltq   
   15542:	8b 55 e8             	mov    -0x18(%rbp),%edx
   15545:	48 63 ca             	movslq %edx,%rcx
   15548:	48 89 c2             	mov    %rax,%rdx
   1554b:	48 c1 e2 02          	shl    $0x2,%rdx
   1554f:	48 01 c2             	add    %rax,%rdx
   15552:	48 01 d2             	add    %rdx,%rdx
   15555:	48 01 c2             	add    %rax,%rdx
   15558:	48 8d 04 12          	lea    (%rdx,%rdx,1),%rax
   1555c:	48 89 c2             	mov    %rax,%rdx
   1555f:	48 89 c8             	mov    %rcx,%rax
   15562:	48 c1 e0 02          	shl    $0x2,%rax
   15566:	48 01 c8             	add    %rcx,%rax
   15569:	48 01 c0             	add    %rax,%rax
   1556c:	48 01 c8             	add    %rcx,%rax
   1556f:	48 c1 e0 02          	shl    $0x2,%rax
   15573:	48 01 c2             	add    %rax,%rdx
   15576:	48 8d 05 23 9d 00 00 	lea    0x9d23(%rip),%rax        # 1f2a0 <g_1306>
   1557d:	48 01 d0             	add    %rdx,%rax
   15580:	0f b6 50 0b          	movzbl 0xb(%rax),%edx
   15584:	c0 ea 06             	shr    $0x6,%dl
   15587:	0f b6 d2             	movzbl %dl,%edx
   1558a:	0f b7 48 0c          	movzwl 0xc(%rax),%ecx
   1558e:	48 c1 e1 02          	shl    $0x2,%rcx
   15592:	48 09 ca             	or     %rcx,%rdx
   15595:	0f b7 40 0e          	movzwl 0xe(%rax),%eax
   15599:	25 ff 0f 00 00       	and    $0xfff,%eax
   1559e:	48 c1 e0 12          	shl    $0x12,%rax
   155a2:	48 09 d0             	or     %rdx,%rax
   155a5:	48 c1 e0 22          	shl    $0x22,%rax
   155a9:	48 c1 f8 22          	sar    $0x22,%rax
   155ad:	48 98                	cltq   
   155af:	8b 55 f4             	mov    -0xc(%rbp),%edx
   155b2:	48 8d 35 02 55 00 00 	lea    0x5502(%rip),%rsi        # 1aabb <g_764+0x2a5b>
   155b9:	48 89 c7             	mov    %rax,%rdi
   155bc:	e8 32 21 ff ff       	callq  76f3 <transparent_crc>
   155c1:	8b 45 ec             	mov    -0x14(%rbp),%eax
   155c4:	48 98                	cltq   
   155c6:	8b 55 e8             	mov    -0x18(%rbp),%edx
   155c9:	48 63 ca             	movslq %edx,%rcx
   155cc:	48 89 c2             	mov    %rax,%rdx
   155cf:	48 c1 e2 02          	shl    $0x2,%rdx
   155d3:	48 01 c2             	add    %rax,%rdx
   155d6:	48 01 d2             	add    %rdx,%rdx
   155d9:	48 01 c2             	add    %rax,%rdx
   155dc:	48 8d 04 12          	lea    (%rdx,%rdx,1),%rax
   155e0:	48 89 c2             	mov    %rax,%rdx
   155e3:	48 89 c8             	mov    %rcx,%rax
   155e6:	48 c1 e0 02          	shl    $0x2,%rax
   155ea:	48 01 c8             	add    %rcx,%rax
   155ed:	48 01 c0             	add    %rax,%rax
   155f0:	48 01 c8             	add    %rcx,%rax
   155f3:	48 c1 e0 02          	shl    $0x2,%rax
   155f7:	48 01 c2             	add    %rax,%rdx
   155fa:	48 8d 05 9f 9c 00 00 	lea    0x9c9f(%rip),%rax        # 1f2a0 <g_1306>
   15601:	48 01 d0             	add    %rdx,%rax
   15604:	0f b7 50 0e          	movzwl 0xe(%rax),%edx
   15608:	66 c1 ea 0c          	shr    $0xc,%dx
   1560c:	0f b7 d2             	movzwl %dx,%edx
   1560f:	0f b7 40 10          	movzwl 0x10(%rax),%eax
   15613:	0f b7 c0             	movzwl %ax,%eax
   15616:	25 ff 01 00 00       	and    $0x1ff,%eax
   1561b:	48 c1 e0 04          	shl    $0x4,%rax
   1561f:	48 09 d0             	or     %rdx,%rax
   15622:	0f b7 c0             	movzwl %ax,%eax
   15625:	8b 55 f4             	mov    -0xc(%rbp),%edx
   15628:	48 8d 35 9c 54 00 00 	lea    0x549c(%rip),%rsi        # 1aacb <g_764+0x2a6b>
   1562f:	48 89 c7             	mov    %rax,%rdi
   15632:	e8 bc 20 ff ff       	callq  76f3 <transparent_crc>
   15637:	8b 45 ec             	mov    -0x14(%rbp),%eax
   1563a:	48 98                	cltq   
   1563c:	8b 55 e8             	mov    -0x18(%rbp),%edx
   1563f:	48 63 ca             	movslq %edx,%rcx
   15642:	48 89 c2             	mov    %rax,%rdx
   15645:	48 c1 e2 02          	shl    $0x2,%rdx
   15649:	48 01 c2             	add    %rax,%rdx
   1564c:	48 01 d2             	add    %rdx,%rdx
   1564f:	48 01 c2             	add    %rax,%rdx
   15652:	48 8d 04 12          	lea    (%rdx,%rdx,1),%rax
   15656:	48 89 c2             	mov    %rax,%rdx
   15659:	48 89 c8             	mov    %rcx,%rax
   1565c:	48 c1 e0 02          	shl    $0x2,%rax
   15660:	48 01 c8             	add    %rcx,%rax
   15663:	48 01 c0             	add    %rax,%rax
   15666:	48 01 c8             	add    %rcx,%rax
   15669:	48 c1 e0 02          	shl    $0x2,%rax
   1566d:	48 01 c2             	add    %rax,%rdx
   15670:	48 8d 05 39 9c 00 00 	lea    0x9c39(%rip),%rax        # 1f2b0 <g_1306+0x10>
   15677:	48 01 d0             	add    %rdx,%rax
   1567a:	0f b6 40 01          	movzbl 0x1(%rax),%eax
   1567e:	d0 e8                	shr    %al
   15680:	0f b6 c0             	movzbl %al,%eax
   15683:	8b 55 f4             	mov    -0xc(%rbp),%edx
   15686:	48 8d 35 4e 54 00 00 	lea    0x544e(%rip),%rsi        # 1aadb <g_764+0x2a7b>
   1568d:	48 89 c7             	mov    %rax,%rdi
   15690:	e8 5e 20 ff ff       	callq  76f3 <transparent_crc>
   15695:	8b 45 ec             	mov    -0x14(%rbp),%eax
   15698:	48 98                	cltq   
   1569a:	8b 55 e8             	mov    -0x18(%rbp),%edx
   1569d:	48 63 ca             	movslq %edx,%rcx
   156a0:	48 89 c2             	mov    %rax,%rdx
   156a3:	48 c1 e2 02          	shl    $0x2,%rdx
   156a7:	48 01 c2             	add    %rax,%rdx
   156aa:	48 01 d2             	add    %rdx,%rdx
   156ad:	48 01 c2             	add    %rax,%rdx
   156b0:	48 8d 04 12          	lea    (%rdx,%rdx,1),%rax
   156b4:	48 89 c2             	mov    %rax,%rdx
   156b7:	48 89 c8             	mov    %rcx,%rax
   156ba:	48 c1 e0 02          	shl    $0x2,%rax
   156be:	48 01 c8             	add    %rcx,%rax
   156c1:	48 01 c0             	add    %rax,%rax
   156c4:	48 01 c8             	add    %rcx,%rax
   156c7:	48 c1 e0 02          	shl    $0x2,%rax
   156cb:	48 01 c2             	add    %rax,%rdx
   156ce:	48 8d 05 db 9b 00 00 	lea    0x9bdb(%rip),%rax        # 1f2b0 <g_1306+0x10>
   156d5:	48 01 d0             	add    %rdx,%rax
   156d8:	0f b7 40 02          	movzwl 0x2(%rax),%eax
   156dc:	c1 e0 02             	shl    $0x2,%eax
   156df:	66 c1 f8 02          	sar    $0x2,%ax
   156e3:	48 0f bf c0          	movswq %ax,%rax
   156e7:	8b 55 f4             	mov    -0xc(%rbp),%edx
   156ea:	48 8d 35 fa 53 00 00 	lea    0x53fa(%rip),%rsi        # 1aaeb <g_764+0x2a8b>
   156f1:	48 89 c7             	mov    %rax,%rdi
   156f4:	e8 fa 1f ff ff       	callq  76f3 <transparent_crc>
   156f9:	8b 45 ec             	mov    -0x14(%rbp),%eax
   156fc:	48 98                	cltq   
   156fe:	8b 55 e8             	mov    -0x18(%rbp),%edx
   15701:	48 63 ca             	movslq %edx,%rcx
   15704:	48 89 c2             	mov    %rax,%rdx
   15707:	48 c1 e2 02          	shl    $0x2,%rdx
   1570b:	48 01 c2             	add    %rax,%rdx
   1570e:	48 01 d2             	add    %rdx,%rdx
   15711:	48 01 c2             	add    %rax,%rdx
   15714:	48 8d 04 12          	lea    (%rdx,%rdx,1),%rax
   15718:	48 89 c2             	mov    %rax,%rdx
   1571b:	48 89 c8             	mov    %rcx,%rax
   1571e:	48 c1 e0 02          	shl    $0x2,%rax
   15722:	48 01 c8             	add    %rcx,%rax
   15725:	48 01 c0             	add    %rax,%rax
   15728:	48 01 c8             	add    %rcx,%rax
   1572b:	48 c1 e0 02          	shl    $0x2,%rax
   1572f:	48 01 c2             	add    %rax,%rdx
   15732:	48 8d 05 77 9b 00 00 	lea    0x9b77(%rip),%rax        # 1f2b0 <g_1306+0x10>
   15739:	48 01 d0             	add    %rdx,%rax
   1573c:	0f b7 50 02          	movzwl 0x2(%rax),%edx
   15740:	66 c1 ea 0e          	shr    $0xe,%dx
   15744:	0f b7 d2             	movzwl %dx,%edx
   15747:	0f b7 40 04          	movzwl 0x4(%rax),%eax
   1574b:	0f b7 c0             	movzwl %ax,%eax
   1574e:	25 ff 3f 00 00       	and    $0x3fff,%eax
   15753:	48 c1 e0 02          	shl    $0x2,%rax
   15757:	48 09 d0             	or     %rdx,%rax
   1575a:	48 c1 e0 30          	shl    $0x30,%rax
   1575e:	48 c1 f8 30          	sar    $0x30,%rax
   15762:	48 0f bf c0          	movswq %ax,%rax
   15766:	8b 55 f4             	mov    -0xc(%rbp),%edx
   15769:	48 8d 35 8b 53 00 00 	lea    0x538b(%rip),%rsi        # 1aafb <g_764+0x2a9b>
   15770:	48 89 c7             	mov    %rax,%rdi
   15773:	e8 7b 1f ff ff       	callq  76f3 <transparent_crc>
   15778:	83 7d f4 00          	cmpl   $0x0,-0xc(%rbp)
   1577c:	74 19                	je     15797 <main+0x398d>
   1577e:	8b 55 ec             	mov    -0x14(%rbp),%edx
   15781:	8b 45 e8             	mov    -0x18(%rbp),%eax
   15784:	89 c6                	mov    %eax,%esi
   15786:	48 8d 3d 59 48 00 00 	lea    0x4859(%rip),%rdi        # 19fe6 <g_764+0x1f86>
   1578d:	b8 00 00 00 00       	mov    $0x0,%eax
   15792:	e8 e9 08 ff ff       	callq  6080 <printf@plt>
   15797:	83 45 ec 01          	addl   $0x1,-0x14(%rbp)
   1579b:	83 7d ec 01          	cmpl   $0x1,-0x14(%rbp)
   1579f:	0f 8e 6a fc ff ff    	jle    1540f <main+0x3605>
   157a5:	83 45 e8 01          	addl   $0x1,-0x18(%rbp)
   157a9:	83 7d e8 05          	cmpl   $0x5,-0x18(%rbp)
   157ad:	0f 8e 50 fc ff ff    	jle    15403 <main+0x35f9>
   157b3:	48 8b 05 f6 9b 00 00 	mov    0x9bf6(%rip),%rax        # 1f3b0 <g_1307>
   157ba:	8b 55 f4             	mov    -0xc(%rbp),%edx
   157bd:	48 8d 35 47 53 00 00 	lea    0x5347(%rip),%rsi        # 1ab0b <g_764+0x2aab>
   157c4:	48 89 c7             	mov    %rax,%rdi
   157c7:	e8 27 1f ff ff       	callq  76f3 <transparent_crc>
   157cc:	8b 05 e6 9b 00 00    	mov    0x9be6(%rip),%eax        # 1f3b8 <g_1307+0x8>
   157d2:	c1 e0 04             	shl    $0x4,%eax
   157d5:	c1 f8 04             	sar    $0x4,%eax
   157d8:	48 98                	cltq   
   157da:	8b 55 f4             	mov    -0xc(%rbp),%edx
   157dd:	48 8d 35 31 53 00 00 	lea    0x5331(%rip),%rsi        # 1ab15 <g_764+0x2ab5>
   157e4:	48 89 c7             	mov    %rax,%rdi
   157e7:	e8 07 1f ff ff       	callq  76f3 <transparent_crc>
   157ec:	0f b6 05 c8 9b 00 00 	movzbl 0x9bc8(%rip),%eax        # 1f3bb <g_1307+0xb>
   157f3:	c1 e0 02             	shl    $0x2,%eax
   157f6:	c0 f8 06             	sar    $0x6,%al
   157f9:	48 0f be c0          	movsbq %al,%rax
   157fd:	8b 55 f4             	mov    -0xc(%rbp),%edx
   15800:	48 8d 35 18 53 00 00 	lea    0x5318(%rip),%rsi        # 1ab1f <g_764+0x2abf>
   15807:	48 89 c7             	mov    %rax,%rdi
   1580a:	e8 e4 1e ff ff       	callq  76f3 <transparent_crc>
   1580f:	48 8b 05 a2 9b 00 00 	mov    0x9ba2(%rip),%rax        # 1f3b8 <g_1307+0x8>
   15816:	48 c1 e0 04          	shl    $0x4,%rax
   1581a:	48 c1 f8 22          	sar    $0x22,%rax
   1581e:	48 98                	cltq   
   15820:	8b 55 f4             	mov    -0xc(%rbp),%edx
   15823:	48 8d 35 ff 52 00 00 	lea    0x52ff(%rip),%rsi        # 1ab29 <g_764+0x2ac9>
   1582a:	48 89 c7             	mov    %rax,%rdi
   1582d:	e8 c1 1e ff ff       	callq  76f3 <transparent_crc>
   15832:	48 8b 05 7f 9b 00 00 	mov    0x9b7f(%rip),%rax        # 1f3b8 <g_1307+0x8>
   15839:	48 c1 e8 3c          	shr    $0x3c,%rax
   1583d:	48 89 c2             	mov    %rax,%rdx
   15840:	48 8b 05 79 9b 00 00 	mov    0x9b79(%rip),%rax        # 1f3c0 <g_1307+0x10>
   15847:	25 ff 01 00 00       	and    $0x1ff,%eax
   1584c:	48 c1 e0 04          	shl    $0x4,%rax
   15850:	48 09 d0             	or     %rdx,%rax
   15853:	0f b7 c0             	movzwl %ax,%eax
   15856:	8b 55 f4             	mov    -0xc(%rbp),%edx
   15859:	48 8d 35 d3 52 00 00 	lea    0x52d3(%rip),%rsi        # 1ab33 <g_764+0x2ad3>
   15860:	48 89 c7             	mov    %rax,%rdi
   15863:	e8 8b 1e ff ff       	callq  76f3 <transparent_crc>
   15868:	0f b6 05 52 9b 00 00 	movzbl 0x9b52(%rip),%eax        # 1f3c1 <g_1307+0x11>
   1586f:	d0 e8                	shr    %al
   15871:	0f b6 c0             	movzbl %al,%eax
   15874:	8b 55 f4             	mov    -0xc(%rbp),%edx
   15877:	48 8d 35 bf 52 00 00 	lea    0x52bf(%rip),%rsi        # 1ab3d <g_764+0x2add>
   1587e:	48 89 c7             	mov    %rax,%rdi
   15881:	e8 6d 1e ff ff       	callq  76f3 <transparent_crc>
   15886:	48 8b 05 33 9b 00 00 	mov    0x9b33(%rip),%rax        # 1f3c0 <g_1307+0x10>
   1588d:	c1 e0 02             	shl    $0x2,%eax
   15890:	c1 f8 12             	sar    $0x12,%eax
   15893:	48 0f bf c0          	movswq %ax,%rax
   15897:	8b 55 f4             	mov    -0xc(%rbp),%edx
   1589a:	48 8d 35 a6 52 00 00 	lea    0x52a6(%rip),%rsi        # 1ab47 <g_764+0x2ae7>
   158a1:	48 89 c7             	mov    %rax,%rdi
   158a4:	e8 4a 1e ff ff       	callq  76f3 <transparent_crc>
   158a9:	48 8b 05 10 9b 00 00 	mov    0x9b10(%rip),%rax        # 1f3c0 <g_1307+0x10>
   158b0:	48 c1 e0 12          	shl    $0x12,%rax
   158b4:	48 c1 f8 30          	sar    $0x30,%rax
   158b8:	48 0f bf c0          	movswq %ax,%rax
   158bc:	8b 55 f4             	mov    -0xc(%rbp),%edx
   158bf:	48 8d 35 8b 52 00 00 	lea    0x528b(%rip),%rsi        # 1ab51 <g_764+0x2af1>
   158c6:	48 89 c7             	mov    %rax,%rdi
   158c9:	e8 25 1e ff ff       	callq  76f3 <transparent_crc>
   158ce:	48 8b 05 fb 9a 00 00 	mov    0x9afb(%rip),%rax        # 1f3d0 <g_1308>
   158d5:	8b 55 f4             	mov    -0xc(%rbp),%edx
   158d8:	48 8d 35 7c 52 00 00 	lea    0x527c(%rip),%rsi        # 1ab5b <g_764+0x2afb>
   158df:	48 89 c7             	mov    %rax,%rdi
   158e2:	e8 0c 1e ff ff       	callq  76f3 <transparent_crc>
   158e7:	8b 05 eb 9a 00 00    	mov    0x9aeb(%rip),%eax        # 1f3d8 <g_1308+0x8>
   158ed:	c1 e0 04             	shl    $0x4,%eax
   158f0:	c1 f8 04             	sar    $0x4,%eax
   158f3:	48 98                	cltq   
   158f5:	8b 55 f4             	mov    -0xc(%rbp),%edx
   158f8:	48 8d 35 66 52 00 00 	lea    0x5266(%rip),%rsi        # 1ab65 <g_764+0x2b05>
   158ff:	48 89 c7             	mov    %rax,%rdi
   15902:	e8 ec 1d ff ff       	callq  76f3 <transparent_crc>
   15907:	0f b6 05 cd 9a 00 00 	movzbl 0x9acd(%rip),%eax        # 1f3db <g_1308+0xb>
   1590e:	c1 e0 02             	shl    $0x2,%eax
   15911:	c0 f8 06             	sar    $0x6,%al
   15914:	48 0f be c0          	movsbq %al,%rax
   15918:	8b 55 f4             	mov    -0xc(%rbp),%edx
   1591b:	48 8d 35 4d 52 00 00 	lea    0x524d(%rip),%rsi        # 1ab6f <g_764+0x2b0f>
   15922:	48 89 c7             	mov    %rax,%rdi
   15925:	e8 c9 1d ff ff       	callq  76f3 <transparent_crc>
   1592a:	48 8b 05 a7 9a 00 00 	mov    0x9aa7(%rip),%rax        # 1f3d8 <g_1308+0x8>
   15931:	48 c1 e0 04          	shl    $0x4,%rax
   15935:	48 c1 f8 22          	sar    $0x22,%rax
   15939:	48 98                	cltq   
   1593b:	8b 55 f4             	mov    -0xc(%rbp),%edx
   1593e:	48 8d 35 34 52 00 00 	lea    0x5234(%rip),%rsi        # 1ab79 <g_764+0x2b19>
   15945:	48 89 c7             	mov    %rax,%rdi
   15948:	e8 a6 1d ff ff       	callq  76f3 <transparent_crc>
   1594d:	48 8b 05 84 9a 00 00 	mov    0x9a84(%rip),%rax        # 1f3d8 <g_1308+0x8>
   15954:	48 c1 e8 3c          	shr    $0x3c,%rax
   15958:	48 89 c2             	mov    %rax,%rdx
   1595b:	48 8b 05 7e 9a 00 00 	mov    0x9a7e(%rip),%rax        # 1f3e0 <g_1308+0x10>
   15962:	25 ff 01 00 00       	and    $0x1ff,%eax
   15967:	48 c1 e0 04          	shl    $0x4,%rax
   1596b:	48 09 d0             	or     %rdx,%rax
   1596e:	0f b7 c0             	movzwl %ax,%eax
   15971:	8b 55 f4             	mov    -0xc(%rbp),%edx
   15974:	48 8d 35 08 52 00 00 	lea    0x5208(%rip),%rsi        # 1ab83 <g_764+0x2b23>
   1597b:	48 89 c7             	mov    %rax,%rdi
   1597e:	e8 70 1d ff ff       	callq  76f3 <transparent_crc>
   15983:	0f b6 05 57 9a 00 00 	movzbl 0x9a57(%rip),%eax        # 1f3e1 <g_1308+0x11>
   1598a:	d0 e8                	shr    %al
   1598c:	0f b6 c0             	movzbl %al,%eax
   1598f:	8b 55 f4             	mov    -0xc(%rbp),%edx
   15992:	48 8d 35 f4 51 00 00 	lea    0x51f4(%rip),%rsi        # 1ab8d <g_764+0x2b2d>
   15999:	48 89 c7             	mov    %rax,%rdi
   1599c:	e8 52 1d ff ff       	callq  76f3 <transparent_crc>
   159a1:	48 8b 05 38 9a 00 00 	mov    0x9a38(%rip),%rax        # 1f3e0 <g_1308+0x10>
   159a8:	c1 e0 02             	shl    $0x2,%eax
   159ab:	c1 f8 12             	sar    $0x12,%eax
   159ae:	48 0f bf c0          	movswq %ax,%rax
   159b2:	8b 55 f4             	mov    -0xc(%rbp),%edx
   159b5:	48 8d 35 db 51 00 00 	lea    0x51db(%rip),%rsi        # 1ab97 <g_764+0x2b37>
   159bc:	48 89 c7             	mov    %rax,%rdi
   159bf:	e8 2f 1d ff ff       	callq  76f3 <transparent_crc>
   159c4:	48 8b 05 15 9a 00 00 	mov    0x9a15(%rip),%rax        # 1f3e0 <g_1308+0x10>
   159cb:	48 c1 e0 12          	shl    $0x12,%rax
   159cf:	48 c1 f8 30          	sar    $0x30,%rax
   159d3:	48 0f bf c0          	movswq %ax,%rax
   159d7:	8b 55 f4             	mov    -0xc(%rbp),%edx
   159da:	48 8d 35 c0 51 00 00 	lea    0x51c0(%rip),%rsi        # 1aba1 <g_764+0x2b41>
   159e1:	48 89 c7             	mov    %rax,%rdi
   159e4:	e8 0a 1d ff ff       	callq  76f3 <transparent_crc>
   159e9:	48 8b 05 00 9a 00 00 	mov    0x9a00(%rip),%rax        # 1f3f0 <g_1309>
   159f0:	8b 55 f4             	mov    -0xc(%rbp),%edx
   159f3:	48 8d 35 b1 51 00 00 	lea    0x51b1(%rip),%rsi        # 1abab <g_764+0x2b4b>
   159fa:	48 89 c7             	mov    %rax,%rdi
   159fd:	e8 f1 1c ff ff       	callq  76f3 <transparent_crc>
   15a02:	8b 05 f0 99 00 00    	mov    0x99f0(%rip),%eax        # 1f3f8 <g_1309+0x8>
   15a08:	c1 e0 04             	shl    $0x4,%eax
   15a0b:	c1 f8 04             	sar    $0x4,%eax
   15a0e:	48 98                	cltq   
   15a10:	8b 55 f4             	mov    -0xc(%rbp),%edx
   15a13:	48 8d 35 9b 51 00 00 	lea    0x519b(%rip),%rsi        # 1abb5 <g_764+0x2b55>
   15a1a:	48 89 c7             	mov    %rax,%rdi
   15a1d:	e8 d1 1c ff ff       	callq  76f3 <transparent_crc>
   15a22:	0f b6 05 d2 99 00 00 	movzbl 0x99d2(%rip),%eax        # 1f3fb <g_1309+0xb>
   15a29:	c1 e0 02             	shl    $0x2,%eax
   15a2c:	c0 f8 06             	sar    $0x6,%al
   15a2f:	48 0f be c0          	movsbq %al,%rax
   15a33:	8b 55 f4             	mov    -0xc(%rbp),%edx
   15a36:	48 8d 35 82 51 00 00 	lea    0x5182(%rip),%rsi        # 1abbf <g_764+0x2b5f>
   15a3d:	48 89 c7             	mov    %rax,%rdi
   15a40:	e8 ae 1c ff ff       	callq  76f3 <transparent_crc>
   15a45:	48 8b 05 ac 99 00 00 	mov    0x99ac(%rip),%rax        # 1f3f8 <g_1309+0x8>
   15a4c:	48 c1 e0 04          	shl    $0x4,%rax
   15a50:	48 c1 f8 22          	sar    $0x22,%rax
   15a54:	48 98                	cltq   
   15a56:	8b 55 f4             	mov    -0xc(%rbp),%edx
   15a59:	48 8d 35 69 51 00 00 	lea    0x5169(%rip),%rsi        # 1abc9 <g_764+0x2b69>
   15a60:	48 89 c7             	mov    %rax,%rdi
   15a63:	e8 8b 1c ff ff       	callq  76f3 <transparent_crc>
   15a68:	48 8b 05 89 99 00 00 	mov    0x9989(%rip),%rax        # 1f3f8 <g_1309+0x8>
   15a6f:	48 c1 e8 3c          	shr    $0x3c,%rax
   15a73:	48 89 c2             	mov    %rax,%rdx
   15a76:	48 8b 05 83 99 00 00 	mov    0x9983(%rip),%rax        # 1f400 <g_1309+0x10>
   15a7d:	25 ff 01 00 00       	and    $0x1ff,%eax
   15a82:	48 c1 e0 04          	shl    $0x4,%rax
   15a86:	48 09 d0             	or     %rdx,%rax
   15a89:	0f b7 c0             	movzwl %ax,%eax
   15a8c:	8b 55 f4             	mov    -0xc(%rbp),%edx
   15a8f:	48 8d 35 3d 51 00 00 	lea    0x513d(%rip),%rsi        # 1abd3 <g_764+0x2b73>
   15a96:	48 89 c7             	mov    %rax,%rdi
   15a99:	e8 55 1c ff ff       	callq  76f3 <transparent_crc>
   15a9e:	0f b6 05 5c 99 00 00 	movzbl 0x995c(%rip),%eax        # 1f401 <g_1309+0x11>
   15aa5:	d0 e8                	shr    %al
   15aa7:	0f b6 c0             	movzbl %al,%eax
   15aaa:	8b 55 f4             	mov    -0xc(%rbp),%edx
   15aad:	48 8d 35 29 51 00 00 	lea    0x5129(%rip),%rsi        # 1abdd <g_764+0x2b7d>
   15ab4:	48 89 c7             	mov    %rax,%rdi
   15ab7:	e8 37 1c ff ff       	callq  76f3 <transparent_crc>
   15abc:	48 8b 05 3d 99 00 00 	mov    0x993d(%rip),%rax        # 1f400 <g_1309+0x10>
   15ac3:	c1 e0 02             	shl    $0x2,%eax
   15ac6:	c1 f8 12             	sar    $0x12,%eax
   15ac9:	48 0f bf c0          	movswq %ax,%rax
   15acd:	8b 55 f4             	mov    -0xc(%rbp),%edx
   15ad0:	48 8d 35 10 51 00 00 	lea    0x5110(%rip),%rsi        # 1abe7 <g_764+0x2b87>
   15ad7:	48 89 c7             	mov    %rax,%rdi
   15ada:	e8 14 1c ff ff       	callq  76f3 <transparent_crc>
   15adf:	48 8b 05 1a 99 00 00 	mov    0x991a(%rip),%rax        # 1f400 <g_1309+0x10>
   15ae6:	48 c1 e0 12          	shl    $0x12,%rax
   15aea:	48 c1 f8 30          	sar    $0x30,%rax
   15aee:	48 0f bf c0          	movswq %ax,%rax
   15af2:	8b 55 f4             	mov    -0xc(%rbp),%edx
   15af5:	48 8d 35 f5 50 00 00 	lea    0x50f5(%rip),%rsi        # 1abf1 <g_764+0x2b91>
   15afc:	48 89 c7             	mov    %rax,%rdi
   15aff:	e8 ef 1b ff ff       	callq  76f3 <transparent_crc>
   15b04:	48 8b 05 05 99 00 00 	mov    0x9905(%rip),%rax        # 1f410 <g_1310>
   15b0b:	8b 55 f4             	mov    -0xc(%rbp),%edx
   15b0e:	48 8d 35 e6 50 00 00 	lea    0x50e6(%rip),%rsi        # 1abfb <g_764+0x2b9b>
   15b15:	48 89 c7             	mov    %rax,%rdi
   15b18:	e8 d6 1b ff ff       	callq  76f3 <transparent_crc>
   15b1d:	8b 05 f5 98 00 00    	mov    0x98f5(%rip),%eax        # 1f418 <g_1310+0x8>
   15b23:	c1 e0 04             	shl    $0x4,%eax
   15b26:	c1 f8 04             	sar    $0x4,%eax
   15b29:	48 98                	cltq   
   15b2b:	8b 55 f4             	mov    -0xc(%rbp),%edx
   15b2e:	48 8d 35 d0 50 00 00 	lea    0x50d0(%rip),%rsi        # 1ac05 <g_764+0x2ba5>
   15b35:	48 89 c7             	mov    %rax,%rdi
   15b38:	e8 b6 1b ff ff       	callq  76f3 <transparent_crc>
   15b3d:	0f b6 05 d7 98 00 00 	movzbl 0x98d7(%rip),%eax        # 1f41b <g_1310+0xb>
   15b44:	c1 e0 02             	shl    $0x2,%eax
   15b47:	c0 f8 06             	sar    $0x6,%al
   15b4a:	48 0f be c0          	movsbq %al,%rax
   15b4e:	8b 55 f4             	mov    -0xc(%rbp),%edx
   15b51:	48 8d 35 b7 50 00 00 	lea    0x50b7(%rip),%rsi        # 1ac0f <g_764+0x2baf>
   15b58:	48 89 c7             	mov    %rax,%rdi
   15b5b:	e8 93 1b ff ff       	callq  76f3 <transparent_crc>
   15b60:	48 8b 05 b1 98 00 00 	mov    0x98b1(%rip),%rax        # 1f418 <g_1310+0x8>
   15b67:	48 c1 e0 04          	shl    $0x4,%rax
   15b6b:	48 c1 f8 22          	sar    $0x22,%rax
   15b6f:	48 98                	cltq   
   15b71:	8b 55 f4             	mov    -0xc(%rbp),%edx
   15b74:	48 8d 35 9e 50 00 00 	lea    0x509e(%rip),%rsi        # 1ac19 <g_764+0x2bb9>
   15b7b:	48 89 c7             	mov    %rax,%rdi
   15b7e:	e8 70 1b ff ff       	callq  76f3 <transparent_crc>
   15b83:	48 8b 05 8e 98 00 00 	mov    0x988e(%rip),%rax        # 1f418 <g_1310+0x8>
   15b8a:	48 c1 e8 3c          	shr    $0x3c,%rax
   15b8e:	48 89 c2             	mov    %rax,%rdx
   15b91:	48 8b 05 88 98 00 00 	mov    0x9888(%rip),%rax        # 1f420 <g_1310+0x10>
   15b98:	25 ff 01 00 00       	and    $0x1ff,%eax
   15b9d:	48 c1 e0 04          	shl    $0x4,%rax
   15ba1:	48 09 d0             	or     %rdx,%rax
   15ba4:	0f b7 c0             	movzwl %ax,%eax
   15ba7:	8b 55 f4             	mov    -0xc(%rbp),%edx
   15baa:	48 8d 35 72 50 00 00 	lea    0x5072(%rip),%rsi        # 1ac23 <g_764+0x2bc3>
   15bb1:	48 89 c7             	mov    %rax,%rdi
   15bb4:	e8 3a 1b ff ff       	callq  76f3 <transparent_crc>
   15bb9:	0f b6 05 61 98 00 00 	movzbl 0x9861(%rip),%eax        # 1f421 <g_1310+0x11>
   15bc0:	d0 e8                	shr    %al
   15bc2:	0f b6 c0             	movzbl %al,%eax
   15bc5:	8b 55 f4             	mov    -0xc(%rbp),%edx
   15bc8:	48 8d 35 5e 50 00 00 	lea    0x505e(%rip),%rsi        # 1ac2d <g_764+0x2bcd>
   15bcf:	48 89 c7             	mov    %rax,%rdi
   15bd2:	e8 1c 1b ff ff       	callq  76f3 <transparent_crc>
   15bd7:	48 8b 05 42 98 00 00 	mov    0x9842(%rip),%rax        # 1f420 <g_1310+0x10>
   15bde:	c1 e0 02             	shl    $0x2,%eax
   15be1:	c1 f8 12             	sar    $0x12,%eax
   15be4:	48 0f bf c0          	movswq %ax,%rax
   15be8:	8b 55 f4             	mov    -0xc(%rbp),%edx
   15beb:	48 8d 35 45 50 00 00 	lea    0x5045(%rip),%rsi        # 1ac37 <g_764+0x2bd7>
   15bf2:	48 89 c7             	mov    %rax,%rdi
   15bf5:	e8 f9 1a ff ff       	callq  76f3 <transparent_crc>
   15bfa:	48 8b 05 1f 98 00 00 	mov    0x981f(%rip),%rax        # 1f420 <g_1310+0x10>
   15c01:	48 c1 e0 12          	shl    $0x12,%rax
   15c05:	48 c1 f8 30          	sar    $0x30,%rax
   15c09:	48 0f bf c0          	movswq %ax,%rax
   15c0d:	8b 55 f4             	mov    -0xc(%rbp),%edx
   15c10:	48 8d 35 2a 50 00 00 	lea    0x502a(%rip),%rsi        # 1ac41 <g_764+0x2be1>
   15c17:	48 89 c7             	mov    %rax,%rdi
   15c1a:	e8 d4 1a ff ff       	callq  76f3 <transparent_crc>
   15c1f:	48 8b 05 0a 98 00 00 	mov    0x980a(%rip),%rax        # 1f430 <g_1311>
   15c26:	8b 55 f4             	mov    -0xc(%rbp),%edx
   15c29:	48 8d 35 1b 50 00 00 	lea    0x501b(%rip),%rsi        # 1ac4b <g_764+0x2beb>
   15c30:	48 89 c7             	mov    %rax,%rdi
   15c33:	e8 bb 1a ff ff       	callq  76f3 <transparent_crc>
   15c38:	8b 05 fa 97 00 00    	mov    0x97fa(%rip),%eax        # 1f438 <g_1311+0x8>
   15c3e:	c1 e0 04             	shl    $0x4,%eax
   15c41:	c1 f8 04             	sar    $0x4,%eax
   15c44:	48 98                	cltq   
   15c46:	8b 55 f4             	mov    -0xc(%rbp),%edx
   15c49:	48 8d 35 05 50 00 00 	lea    0x5005(%rip),%rsi        # 1ac55 <g_764+0x2bf5>
   15c50:	48 89 c7             	mov    %rax,%rdi
   15c53:	e8 9b 1a ff ff       	callq  76f3 <transparent_crc>
   15c58:	0f b6 05 dc 97 00 00 	movzbl 0x97dc(%rip),%eax        # 1f43b <g_1311+0xb>
   15c5f:	c1 e0 02             	shl    $0x2,%eax
   15c62:	c0 f8 06             	sar    $0x6,%al
   15c65:	48 0f be c0          	movsbq %al,%rax
   15c69:	8b 55 f4             	mov    -0xc(%rbp),%edx
   15c6c:	48 8d 35 ec 4f 00 00 	lea    0x4fec(%rip),%rsi        # 1ac5f <g_764+0x2bff>
   15c73:	48 89 c7             	mov    %rax,%rdi
   15c76:	e8 78 1a ff ff       	callq  76f3 <transparent_crc>
   15c7b:	48 8b 05 b6 97 00 00 	mov    0x97b6(%rip),%rax        # 1f438 <g_1311+0x8>
   15c82:	48 c1 e0 04          	shl    $0x4,%rax
   15c86:	48 c1 f8 22          	sar    $0x22,%rax
   15c8a:	48 98                	cltq   
   15c8c:	8b 55 f4             	mov    -0xc(%rbp),%edx
   15c8f:	48 8d 35 d3 4f 00 00 	lea    0x4fd3(%rip),%rsi        # 1ac69 <g_764+0x2c09>
   15c96:	48 89 c7             	mov    %rax,%rdi
   15c99:	e8 55 1a ff ff       	callq  76f3 <transparent_crc>
   15c9e:	48 8b 05 93 97 00 00 	mov    0x9793(%rip),%rax        # 1f438 <g_1311+0x8>
   15ca5:	48 c1 e8 3c          	shr    $0x3c,%rax
   15ca9:	48 89 c2             	mov    %rax,%rdx
   15cac:	48 8b 05 8d 97 00 00 	mov    0x978d(%rip),%rax        # 1f440 <g_1311+0x10>
   15cb3:	25 ff 01 00 00       	and    $0x1ff,%eax
   15cb8:	48 c1 e0 04          	shl    $0x4,%rax
   15cbc:	48 09 d0             	or     %rdx,%rax
   15cbf:	0f b7 c0             	movzwl %ax,%eax
   15cc2:	8b 55 f4             	mov    -0xc(%rbp),%edx
   15cc5:	48 8d 35 a7 4f 00 00 	lea    0x4fa7(%rip),%rsi        # 1ac73 <g_764+0x2c13>
   15ccc:	48 89 c7             	mov    %rax,%rdi
   15ccf:	e8 1f 1a ff ff       	callq  76f3 <transparent_crc>
   15cd4:	0f b6 05 66 97 00 00 	movzbl 0x9766(%rip),%eax        # 1f441 <g_1311+0x11>
   15cdb:	d0 e8                	shr    %al
   15cdd:	0f b6 c0             	movzbl %al,%eax
   15ce0:	8b 55 f4             	mov    -0xc(%rbp),%edx
   15ce3:	48 8d 35 93 4f 00 00 	lea    0x4f93(%rip),%rsi        # 1ac7d <g_764+0x2c1d>
   15cea:	48 89 c7             	mov    %rax,%rdi
   15ced:	e8 01 1a ff ff       	callq  76f3 <transparent_crc>
   15cf2:	48 8b 05 47 97 00 00 	mov    0x9747(%rip),%rax        # 1f440 <g_1311+0x10>
   15cf9:	c1 e0 02             	shl    $0x2,%eax
   15cfc:	c1 f8 12             	sar    $0x12,%eax
   15cff:	48 0f bf c0          	movswq %ax,%rax
   15d03:	8b 55 f4             	mov    -0xc(%rbp),%edx
   15d06:	48 8d 35 7a 4f 00 00 	lea    0x4f7a(%rip),%rsi        # 1ac87 <g_764+0x2c27>
   15d0d:	48 89 c7             	mov    %rax,%rdi
   15d10:	e8 de 19 ff ff       	callq  76f3 <transparent_crc>
   15d15:	48 8b 05 24 97 00 00 	mov    0x9724(%rip),%rax        # 1f440 <g_1311+0x10>
   15d1c:	48 c1 e0 12          	shl    $0x12,%rax
   15d20:	48 c1 f8 30          	sar    $0x30,%rax
   15d24:	48 0f bf c0          	movswq %ax,%rax
   15d28:	8b 55 f4             	mov    -0xc(%rbp),%edx
   15d2b:	48 8d 35 5f 4f 00 00 	lea    0x4f5f(%rip),%rsi        # 1ac91 <g_764+0x2c31>
   15d32:	48 89 c7             	mov    %rax,%rdi
   15d35:	e8 b9 19 ff ff       	callq  76f3 <transparent_crc>
   15d3a:	c7 45 e8 00 00 00 00 	movl   $0x0,-0x18(%rbp)
   15d41:	e9 a6 03 00 00       	jmpq   160ec <main+0x42e2>
   15d46:	c7 45 ec 00 00 00 00 	movl   $0x0,-0x14(%rbp)
   15d4d:	e9 8c 03 00 00       	jmpq   160de <main+0x42d4>
   15d52:	8b 45 ec             	mov    -0x14(%rbp),%eax
   15d55:	48 98                	cltq   
   15d57:	8b 55 e8             	mov    -0x18(%rbp),%edx
   15d5a:	48 63 ca             	movslq %edx,%rcx
   15d5d:	48 89 c2             	mov    %rax,%rdx
   15d60:	48 c1 e2 02          	shl    $0x2,%rdx
   15d64:	48 01 c2             	add    %rax,%rdx
   15d67:	48 01 d2             	add    %rdx,%rdx
   15d6a:	48 01 c2             	add    %rax,%rdx
   15d6d:	48 8d 04 12          	lea    (%rdx,%rdx,1),%rax
   15d71:	48 89 c2             	mov    %rax,%rdx
   15d74:	48 89 c8             	mov    %rcx,%rax
   15d77:	48 c1 e0 02          	shl    $0x2,%rax
   15d7b:	48 01 c8             	add    %rcx,%rax
   15d7e:	48 01 c0             	add    %rax,%rax
   15d81:	48 01 c8             	add    %rcx,%rax
   15d84:	48 c1 e0 03          	shl    $0x3,%rax
   15d88:	48 01 c2             	add    %rax,%rdx
   15d8b:	48 8d 05 ce 96 00 00 	lea    0x96ce(%rip),%rax        # 1f460 <g_1312>
   15d92:	48 01 d0             	add    %rdx,%rax
   15d95:	48 8b 00             	mov    (%rax),%rax
   15d98:	8b 55 f4             	mov    -0xc(%rbp),%edx
   15d9b:	48 8d 35 f9 4e 00 00 	lea    0x4ef9(%rip),%rsi        # 1ac9b <g_764+0x2c3b>
   15da2:	48 89 c7             	mov    %rax,%rdi
   15da5:	e8 49 19 ff ff       	callq  76f3 <transparent_crc>
   15daa:	8b 45 ec             	mov    -0x14(%rbp),%eax
   15dad:	48 98                	cltq   
   15daf:	8b 55 e8             	mov    -0x18(%rbp),%edx
   15db2:	48 63 ca             	movslq %edx,%rcx
   15db5:	48 89 c2             	mov    %rax,%rdx
   15db8:	48 c1 e2 02          	shl    $0x2,%rdx
   15dbc:	48 01 c2             	add    %rax,%rdx
   15dbf:	48 01 d2             	add    %rdx,%rdx
   15dc2:	48 01 c2             	add    %rax,%rdx
   15dc5:	48 8d 04 12          	lea    (%rdx,%rdx,1),%rax
   15dc9:	48 89 c2             	mov    %rax,%rdx
   15dcc:	48 89 c8             	mov    %rcx,%rax
   15dcf:	48 c1 e0 02          	shl    $0x2,%rax
   15dd3:	48 01 c8             	add    %rcx,%rax
   15dd6:	48 01 c0             	add    %rax,%rax
   15dd9:	48 01 c8             	add    %rcx,%rax
   15ddc:	48 c1 e0 03          	shl    $0x3,%rax
   15de0:	48 01 c2             	add    %rax,%rdx
   15de3:	48 8d 05 76 96 00 00 	lea    0x9676(%rip),%rax        # 1f460 <g_1312>
   15dea:	48 01 d0             	add    %rdx,%rax
   15ded:	0f b7 50 08          	movzwl 0x8(%rax),%edx
   15df1:	0f b7 40 0a          	movzwl 0xa(%rax),%eax
   15df5:	25 ff 0f 00 00       	and    $0xfff,%eax
   15dfa:	48 c1 e0 10          	shl    $0x10,%rax
   15dfe:	48 09 d0             	or     %rdx,%rax
   15e01:	48 c1 e0 24          	shl    $0x24,%rax
   15e05:	48 c1 f8 24          	sar    $0x24,%rax
   15e09:	48 98                	cltq   
   15e0b:	8b 55 f4             	mov    -0xc(%rbp),%edx
   15e0e:	48 8d 35 96 4e 00 00 	lea    0x4e96(%rip),%rsi        # 1acab <g_764+0x2c4b>
   15e15:	48 89 c7             	mov    %rax,%rdi
   15e18:	e8 d6 18 ff ff       	callq  76f3 <transparent_crc>
   15e1d:	8b 45 ec             	mov    -0x14(%rbp),%eax
   15e20:	48 98                	cltq   
   15e22:	8b 55 e8             	mov    -0x18(%rbp),%edx
   15e25:	48 63 ca             	movslq %edx,%rcx
   15e28:	48 89 c2             	mov    %rax,%rdx
   15e2b:	48 c1 e2 02          	shl    $0x2,%rdx
   15e2f:	48 01 c2             	add    %rax,%rdx
   15e32:	48 01 d2             	add    %rdx,%rdx
   15e35:	48 01 c2             	add    %rax,%rdx
   15e38:	48 8d 04 12          	lea    (%rdx,%rdx,1),%rax
   15e3c:	48 89 c2             	mov    %rax,%rdx
   15e3f:	48 89 c8             	mov    %rcx,%rax
   15e42:	48 c1 e0 02          	shl    $0x2,%rax
   15e46:	48 01 c8             	add    %rcx,%rax
   15e49:	48 01 c0             	add    %rax,%rax
   15e4c:	48 01 c8             	add    %rcx,%rax
   15e4f:	48 c1 e0 03          	shl    $0x3,%rax
   15e53:	48 01 c2             	add    %rax,%rdx
   15e56:	48 8d 05 03 96 00 00 	lea    0x9603(%rip),%rax        # 1f460 <g_1312>
   15e5d:	48 01 d0             	add    %rdx,%rax
   15e60:	0f b6 40 0b          	movzbl 0xb(%rax),%eax
   15e64:	c1 e0 02             	shl    $0x2,%eax
   15e67:	c0 f8 06             	sar    $0x6,%al
   15e6a:	48 0f be c0          	movsbq %al,%rax
   15e6e:	8b 55 f4             	mov    -0xc(%rbp),%edx
   15e71:	48 8d 35 43 4e 00 00 	lea    0x4e43(%rip),%rsi        # 1acbb <g_764+0x2c5b>
   15e78:	48 89 c7             	mov    %rax,%rdi
   15e7b:	e8 73 18 ff ff       	callq  76f3 <transparent_crc>
   15e80:	8b 45 ec             	mov    -0x14(%rbp),%eax
   15e83:	48 98                	cltq   
   15e85:	8b 55 e8             	mov    -0x18(%rbp),%edx
   15e88:	48 63 ca             	movslq %edx,%rcx
   15e8b:	48 89 c2             	mov    %rax,%rdx
   15e8e:	48 c1 e2 02          	shl    $0x2,%rdx
   15e92:	48 01 c2             	add    %rax,%rdx
   15e95:	48 01 d2             	add    %rdx,%rdx
   15e98:	48 01 c2             	add    %rax,%rdx
   15e9b:	48 8d 04 12          	lea    (%rdx,%rdx,1),%rax
   15e9f:	48 89 c2             	mov    %rax,%rdx
   15ea2:	48 89 c8             	mov    %rcx,%rax
   15ea5:	48 c1 e0 02          	shl    $0x2,%rax
   15ea9:	48 01 c8             	add    %rcx,%rax
   15eac:	48 01 c0             	add    %rax,%rax
   15eaf:	48 01 c8             	add    %rcx,%rax
   15eb2:	48 c1 e0 03          	shl    $0x3,%rax
   15eb6:	48 01 c2             	add    %rax,%rdx
   15eb9:	48 8d 05 a0 95 00 00 	lea    0x95a0(%rip),%rax        # 1f460 <g_1312>
   15ec0:	48 01 d0             	add    %rdx,%rax
   15ec3:	0f b6 50 0b          	movzbl 0xb(%rax),%edx
   15ec7:	c0 ea 06             	shr    $0x6,%dl
   15eca:	0f b6 d2             	movzbl %dl,%edx
   15ecd:	0f b7 48 0c          	movzwl 0xc(%rax),%ecx
   15ed1:	48 c1 e1 02          	shl    $0x2,%rcx
   15ed5:	48 09 ca             	or     %rcx,%rdx
   15ed8:	0f b7 40 0e          	movzwl 0xe(%rax),%eax
   15edc:	25 ff 0f 00 00       	and    $0xfff,%eax
   15ee1:	48 c1 e0 12          	shl    $0x12,%rax
   15ee5:	48 09 d0             	or     %rdx,%rax
   15ee8:	48 c1 e0 22          	shl    $0x22,%rax
   15eec:	48 c1 f8 22          	sar    $0x22,%rax
   15ef0:	48 98                	cltq   
   15ef2:	8b 55 f4             	mov    -0xc(%rbp),%edx
   15ef5:	48 8d 35 cf 4d 00 00 	lea    0x4dcf(%rip),%rsi        # 1accb <g_764+0x2c6b>
   15efc:	48 89 c7             	mov    %rax,%rdi
   15eff:	e8 ef 17 ff ff       	callq  76f3 <transparent_crc>
   15f04:	8b 45 ec             	mov    -0x14(%rbp),%eax
   15f07:	48 98                	cltq   
   15f09:	8b 55 e8             	mov    -0x18(%rbp),%edx
   15f0c:	48 63 ca             	movslq %edx,%rcx
   15f0f:	48 89 c2             	mov    %rax,%rdx
   15f12:	48 c1 e2 02          	shl    $0x2,%rdx
   15f16:	48 01 c2             	add    %rax,%rdx
   15f19:	48 01 d2             	add    %rdx,%rdx
   15f1c:	48 01 c2             	add    %rax,%rdx
   15f1f:	48 8d 04 12          	lea    (%rdx,%rdx,1),%rax
   15f23:	48 89 c2             	mov    %rax,%rdx
   15f26:	48 89 c8             	mov    %rcx,%rax
   15f29:	48 c1 e0 02          	shl    $0x2,%rax
   15f2d:	48 01 c8             	add    %rcx,%rax
   15f30:	48 01 c0             	add    %rax,%rax
   15f33:	48 01 c8             	add    %rcx,%rax
   15f36:	48 c1 e0 03          	shl    $0x3,%rax
   15f3a:	48 01 c2             	add    %rax,%rdx
   15f3d:	48 8d 05 1c 95 00 00 	lea    0x951c(%rip),%rax        # 1f460 <g_1312>
   15f44:	48 01 d0             	add    %rdx,%rax
   15f47:	0f b7 50 0e          	movzwl 0xe(%rax),%edx
   15f4b:	66 c1 ea 0c          	shr    $0xc,%dx
   15f4f:	0f b7 d2             	movzwl %dx,%edx
   15f52:	0f b7 40 10          	movzwl 0x10(%rax),%eax
   15f56:	0f b7 c0             	movzwl %ax,%eax
   15f59:	25 ff 01 00 00       	and    $0x1ff,%eax
   15f5e:	48 c1 e0 04          	shl    $0x4,%rax
   15f62:	48 09 d0             	or     %rdx,%rax
   15f65:	0f b7 c0             	movzwl %ax,%eax
   15f68:	8b 55 f4             	mov    -0xc(%rbp),%edx
   15f6b:	48 8d 35 69 4d 00 00 	lea    0x4d69(%rip),%rsi        # 1acdb <g_764+0x2c7b>
   15f72:	48 89 c7             	mov    %rax,%rdi
   15f75:	e8 79 17 ff ff       	callq  76f3 <transparent_crc>
   15f7a:	8b 45 ec             	mov    -0x14(%rbp),%eax
   15f7d:	48 98                	cltq   
   15f7f:	8b 55 e8             	mov    -0x18(%rbp),%edx
   15f82:	48 63 ca             	movslq %edx,%rcx
   15f85:	48 89 c2             	mov    %rax,%rdx
   15f88:	48 c1 e2 02          	shl    $0x2,%rdx
   15f8c:	48 01 c2             	add    %rax,%rdx
   15f8f:	48 01 d2             	add    %rdx,%rdx
   15f92:	48 01 c2             	add    %rax,%rdx
   15f95:	48 8d 04 12          	lea    (%rdx,%rdx,1),%rax
   15f99:	48 89 c2             	mov    %rax,%rdx
   15f9c:	48 89 c8             	mov    %rcx,%rax
   15f9f:	48 c1 e0 02          	shl    $0x2,%rax
   15fa3:	48 01 c8             	add    %rcx,%rax
   15fa6:	48 01 c0             	add    %rax,%rax
   15fa9:	48 01 c8             	add    %rcx,%rax
   15fac:	48 c1 e0 03          	shl    $0x3,%rax
   15fb0:	48 01 c2             	add    %rax,%rdx
   15fb3:	48 8d 05 b6 94 00 00 	lea    0x94b6(%rip),%rax        # 1f470 <g_1312+0x10>
   15fba:	48 01 d0             	add    %rdx,%rax
   15fbd:	0f b6 40 01          	movzbl 0x1(%rax),%eax
   15fc1:	d0 e8                	shr    %al
   15fc3:	0f b6 c0             	movzbl %al,%eax
   15fc6:	8b 55 f4             	mov    -0xc(%rbp),%edx
   15fc9:	48 8d 35 1b 4d 00 00 	lea    0x4d1b(%rip),%rsi        # 1aceb <g_764+0x2c8b>
   15fd0:	48 89 c7             	mov    %rax,%rdi
   15fd3:	e8 1b 17 ff ff       	callq  76f3 <transparent_crc>
   15fd8:	8b 45 ec             	mov    -0x14(%rbp),%eax
   15fdb:	48 98                	cltq   
   15fdd:	8b 55 e8             	mov    -0x18(%rbp),%edx
   15fe0:	48 63 ca             	movslq %edx,%rcx
   15fe3:	48 89 c2             	mov    %rax,%rdx
   15fe6:	48 c1 e2 02          	shl    $0x2,%rdx
   15fea:	48 01 c2             	add    %rax,%rdx
   15fed:	48 01 d2             	add    %rdx,%rdx
   15ff0:	48 01 c2             	add    %rax,%rdx
   15ff3:	48 8d 04 12          	lea    (%rdx,%rdx,1),%rax
   15ff7:	48 89 c2             	mov    %rax,%rdx
   15ffa:	48 89 c8             	mov    %rcx,%rax
   15ffd:	48 c1 e0 02          	shl    $0x2,%rax
   16001:	48 01 c8             	add    %rcx,%rax
   16004:	48 01 c0             	add    %rax,%rax
   16007:	48 01 c8             	add    %rcx,%rax
   1600a:	48 c1 e0 03          	shl    $0x3,%rax
   1600e:	48 01 c2             	add    %rax,%rdx
   16011:	48 8d 05 58 94 00 00 	lea    0x9458(%rip),%rax        # 1f470 <g_1312+0x10>
   16018:	48 01 d0             	add    %rdx,%rax
   1601b:	0f b7 40 02          	movzwl 0x2(%rax),%eax
   1601f:	c1 e0 02             	shl    $0x2,%eax
   16022:	66 c1 f8 02          	sar    $0x2,%ax
   16026:	48 0f bf c0          	movswq %ax,%rax
   1602a:	8b 55 f4             	mov    -0xc(%rbp),%edx
   1602d:	48 8d 35 c7 4c 00 00 	lea    0x4cc7(%rip),%rsi        # 1acfb <g_764+0x2c9b>
   16034:	48 89 c7             	mov    %rax,%rdi
   16037:	e8 b7 16 ff ff       	callq  76f3 <transparent_crc>
   1603c:	8b 45 ec             	mov    -0x14(%rbp),%eax
   1603f:	48 98                	cltq   
   16041:	8b 55 e8             	mov    -0x18(%rbp),%edx
   16044:	48 63 ca             	movslq %edx,%rcx
   16047:	48 89 c2             	mov    %rax,%rdx
   1604a:	48 c1 e2 02          	shl    $0x2,%rdx
   1604e:	48 01 c2             	add    %rax,%rdx
   16051:	48 01 d2             	add    %rdx,%rdx
   16054:	48 01 c2             	add    %rax,%rdx
   16057:	48 8d 04 12          	lea    (%rdx,%rdx,1),%rax
   1605b:	48 89 c2             	mov    %rax,%rdx
   1605e:	48 89 c8             	mov    %rcx,%rax
   16061:	48 c1 e0 02          	shl    $0x2,%rax
   16065:	48 01 c8             	add    %rcx,%rax
   16068:	48 01 c0             	add    %rax,%rax
   1606b:	48 01 c8             	add    %rcx,%rax
   1606e:	48 c1 e0 03          	shl    $0x3,%rax
   16072:	48 01 c2             	add    %rax,%rdx
   16075:	48 8d 05 f4 93 00 00 	lea    0x93f4(%rip),%rax        # 1f470 <g_1312+0x10>
   1607c:	48 01 d0             	add    %rdx,%rax
   1607f:	0f b7 50 02          	movzwl 0x2(%rax),%edx
   16083:	66 c1 ea 0e          	shr    $0xe,%dx
   16087:	0f b7 d2             	movzwl %dx,%edx
   1608a:	0f b7 40 04          	movzwl 0x4(%rax),%eax
   1608e:	0f b7 c0             	movzwl %ax,%eax
   16091:	25 ff 3f 00 00       	and    $0x3fff,%eax
   16096:	48 c1 e0 02          	shl    $0x2,%rax
   1609a:	48 09 d0             	or     %rdx,%rax
   1609d:	48 c1 e0 30          	shl    $0x30,%rax
   160a1:	48 c1 f8 30          	sar    $0x30,%rax
   160a5:	48 0f bf c0          	movswq %ax,%rax
   160a9:	8b 55 f4             	mov    -0xc(%rbp),%edx
   160ac:	48 8d 35 58 4c 00 00 	lea    0x4c58(%rip),%rsi        # 1ad0b <g_764+0x2cab>
   160b3:	48 89 c7             	mov    %rax,%rdi
   160b6:	e8 38 16 ff ff       	callq  76f3 <transparent_crc>
   160bb:	83 7d f4 00          	cmpl   $0x0,-0xc(%rbp)
   160bf:	74 19                	je     160da <main+0x42d0>
   160c1:	8b 55 ec             	mov    -0x14(%rbp),%edx
   160c4:	8b 45 e8             	mov    -0x18(%rbp),%eax
   160c7:	89 c6                	mov    %eax,%esi
   160c9:	48 8d 3d 16 3f 00 00 	lea    0x3f16(%rip),%rdi        # 19fe6 <g_764+0x1f86>
   160d0:	b8 00 00 00 00       	mov    $0x0,%eax
   160d5:	e8 a6 ff fe ff       	callq  6080 <printf@plt>
   160da:	83 45 ec 01          	addl   $0x1,-0x14(%rbp)
   160de:	83 7d ec 03          	cmpl   $0x3,-0x14(%rbp)
   160e2:	0f 8e 6a fc ff ff    	jle    15d52 <main+0x3f48>
   160e8:	83 45 e8 01          	addl   $0x1,-0x18(%rbp)
   160ec:	83 7d e8 02          	cmpl   $0x2,-0x18(%rbp)
   160f0:	0f 8e 50 fc ff ff    	jle    15d46 <main+0x3f3c>
   160f6:	48 8b 05 73 94 00 00 	mov    0x9473(%rip),%rax        # 1f570 <g_1313>
   160fd:	8b 55 f4             	mov    -0xc(%rbp),%edx
   16100:	48 8d 35 14 4c 00 00 	lea    0x4c14(%rip),%rsi        # 1ad1b <g_764+0x2cbb>
   16107:	48 89 c7             	mov    %rax,%rdi
   1610a:	e8 e4 15 ff ff       	callq  76f3 <transparent_crc>
   1610f:	8b 05 63 94 00 00    	mov    0x9463(%rip),%eax        # 1f578 <g_1313+0x8>
   16115:	c1 e0 04             	shl    $0x4,%eax
   16118:	c1 f8 04             	sar    $0x4,%eax
   1611b:	48 98                	cltq   
   1611d:	8b 55 f4             	mov    -0xc(%rbp),%edx
   16120:	48 8d 35 fe 4b 00 00 	lea    0x4bfe(%rip),%rsi        # 1ad25 <g_764+0x2cc5>
   16127:	48 89 c7             	mov    %rax,%rdi
   1612a:	e8 c4 15 ff ff       	callq  76f3 <transparent_crc>
   1612f:	0f b6 05 45 94 00 00 	movzbl 0x9445(%rip),%eax        # 1f57b <g_1313+0xb>
   16136:	c1 e0 02             	shl    $0x2,%eax
   16139:	c0 f8 06             	sar    $0x6,%al
   1613c:	48 0f be c0          	movsbq %al,%rax
   16140:	8b 55 f4             	mov    -0xc(%rbp),%edx
   16143:	48 8d 35 e5 4b 00 00 	lea    0x4be5(%rip),%rsi        # 1ad2f <g_764+0x2ccf>
   1614a:	48 89 c7             	mov    %rax,%rdi
   1614d:	e8 a1 15 ff ff       	callq  76f3 <transparent_crc>
   16152:	48 8b 05 1f 94 00 00 	mov    0x941f(%rip),%rax        # 1f578 <g_1313+0x8>
   16159:	48 c1 e0 04          	shl    $0x4,%rax
   1615d:	48 c1 f8 22          	sar    $0x22,%rax
   16161:	48 98                	cltq   
   16163:	8b 55 f4             	mov    -0xc(%rbp),%edx
   16166:	48 8d 35 cc 4b 00 00 	lea    0x4bcc(%rip),%rsi        # 1ad39 <g_764+0x2cd9>
   1616d:	48 89 c7             	mov    %rax,%rdi
   16170:	e8 7e 15 ff ff       	callq  76f3 <transparent_crc>
   16175:	48 8b 05 fc 93 00 00 	mov    0x93fc(%rip),%rax        # 1f578 <g_1313+0x8>
   1617c:	48 c1 e8 3c          	shr    $0x3c,%rax
   16180:	48 89 c2             	mov    %rax,%rdx
   16183:	48 8b 05 f6 93 00 00 	mov    0x93f6(%rip),%rax        # 1f580 <g_1313+0x10>
   1618a:	25 ff 01 00 00       	and    $0x1ff,%eax
   1618f:	48 c1 e0 04          	shl    $0x4,%rax
   16193:	48 09 d0             	or     %rdx,%rax
   16196:	0f b7 c0             	movzwl %ax,%eax
   16199:	8b 55 f4             	mov    -0xc(%rbp),%edx
   1619c:	48 8d 35 a0 4b 00 00 	lea    0x4ba0(%rip),%rsi        # 1ad43 <g_764+0x2ce3>
   161a3:	48 89 c7             	mov    %rax,%rdi
   161a6:	e8 48 15 ff ff       	callq  76f3 <transparent_crc>
   161ab:	0f b6 05 cf 93 00 00 	movzbl 0x93cf(%rip),%eax        # 1f581 <g_1313+0x11>
   161b2:	d0 e8                	shr    %al
   161b4:	0f b6 c0             	movzbl %al,%eax
   161b7:	8b 55 f4             	mov    -0xc(%rbp),%edx
   161ba:	48 8d 35 8c 4b 00 00 	lea    0x4b8c(%rip),%rsi        # 1ad4d <g_764+0x2ced>
   161c1:	48 89 c7             	mov    %rax,%rdi
   161c4:	e8 2a 15 ff ff       	callq  76f3 <transparent_crc>
   161c9:	48 8b 05 b0 93 00 00 	mov    0x93b0(%rip),%rax        # 1f580 <g_1313+0x10>
   161d0:	c1 e0 02             	shl    $0x2,%eax
   161d3:	c1 f8 12             	sar    $0x12,%eax
   161d6:	48 0f bf c0          	movswq %ax,%rax
   161da:	8b 55 f4             	mov    -0xc(%rbp),%edx
   161dd:	48 8d 35 73 4b 00 00 	lea    0x4b73(%rip),%rsi        # 1ad57 <g_764+0x2cf7>
   161e4:	48 89 c7             	mov    %rax,%rdi
   161e7:	e8 07 15 ff ff       	callq  76f3 <transparent_crc>
   161ec:	48 8b 05 8d 93 00 00 	mov    0x938d(%rip),%rax        # 1f580 <g_1313+0x10>
   161f3:	48 c1 e0 12          	shl    $0x12,%rax
   161f7:	48 c1 f8 30          	sar    $0x30,%rax
   161fb:	48 0f bf c0          	movswq %ax,%rax
   161ff:	8b 55 f4             	mov    -0xc(%rbp),%edx
   16202:	48 8d 35 58 4b 00 00 	lea    0x4b58(%rip),%rsi        # 1ad61 <g_764+0x2d01>
   16209:	48 89 c7             	mov    %rax,%rdi
   1620c:	e8 e2 14 ff ff       	callq  76f3 <transparent_crc>
   16211:	48 8b 05 78 93 00 00 	mov    0x9378(%rip),%rax        # 1f590 <g_1314>
   16218:	8b 55 f4             	mov    -0xc(%rbp),%edx
   1621b:	48 8d 35 49 4b 00 00 	lea    0x4b49(%rip),%rsi        # 1ad6b <g_764+0x2d0b>
   16222:	48 89 c7             	mov    %rax,%rdi
   16225:	e8 c9 14 ff ff       	callq  76f3 <transparent_crc>
   1622a:	8b 05 68 93 00 00    	mov    0x9368(%rip),%eax        # 1f598 <g_1314+0x8>
   16230:	c1 e0 04             	shl    $0x4,%eax
   16233:	c1 f8 04             	sar    $0x4,%eax
   16236:	48 98                	cltq   
   16238:	8b 55 f4             	mov    -0xc(%rbp),%edx
   1623b:	48 8d 35 33 4b 00 00 	lea    0x4b33(%rip),%rsi        # 1ad75 <g_764+0x2d15>
   16242:	48 89 c7             	mov    %rax,%rdi
   16245:	e8 a9 14 ff ff       	callq  76f3 <transparent_crc>
   1624a:	0f b6 05 4a 93 00 00 	movzbl 0x934a(%rip),%eax        # 1f59b <g_1314+0xb>
   16251:	c1 e0 02             	shl    $0x2,%eax
   16254:	c0 f8 06             	sar    $0x6,%al
   16257:	48 0f be c0          	movsbq %al,%rax
   1625b:	8b 55 f4             	mov    -0xc(%rbp),%edx
   1625e:	48 8d 35 1a 4b 00 00 	lea    0x4b1a(%rip),%rsi        # 1ad7f <g_764+0x2d1f>
   16265:	48 89 c7             	mov    %rax,%rdi
   16268:	e8 86 14 ff ff       	callq  76f3 <transparent_crc>
   1626d:	48 8b 05 24 93 00 00 	mov    0x9324(%rip),%rax        # 1f598 <g_1314+0x8>
   16274:	48 c1 e0 04          	shl    $0x4,%rax
   16278:	48 c1 f8 22          	sar    $0x22,%rax
   1627c:	48 98                	cltq   
   1627e:	8b 55 f4             	mov    -0xc(%rbp),%edx
   16281:	48 8d 35 01 4b 00 00 	lea    0x4b01(%rip),%rsi        # 1ad89 <g_764+0x2d29>
   16288:	48 89 c7             	mov    %rax,%rdi
   1628b:	e8 63 14 ff ff       	callq  76f3 <transparent_crc>
   16290:	48 8b 05 01 93 00 00 	mov    0x9301(%rip),%rax        # 1f598 <g_1314+0x8>
   16297:	48 c1 e8 3c          	shr    $0x3c,%rax
   1629b:	48 89 c2             	mov    %rax,%rdx
   1629e:	48 8b 05 fb 92 00 00 	mov    0x92fb(%rip),%rax        # 1f5a0 <g_1314+0x10>
   162a5:	25 ff 01 00 00       	and    $0x1ff,%eax
   162aa:	48 c1 e0 04          	shl    $0x4,%rax
   162ae:	48 09 d0             	or     %rdx,%rax
   162b1:	0f b7 c0             	movzwl %ax,%eax
   162b4:	8b 55 f4             	mov    -0xc(%rbp),%edx
   162b7:	48 8d 35 d5 4a 00 00 	lea    0x4ad5(%rip),%rsi        # 1ad93 <g_764+0x2d33>
   162be:	48 89 c7             	mov    %rax,%rdi
   162c1:	e8 2d 14 ff ff       	callq  76f3 <transparent_crc>
   162c6:	0f b6 05 d4 92 00 00 	movzbl 0x92d4(%rip),%eax        # 1f5a1 <g_1314+0x11>
   162cd:	d0 e8                	shr    %al
   162cf:	0f b6 c0             	movzbl %al,%eax
   162d2:	8b 55 f4             	mov    -0xc(%rbp),%edx
   162d5:	48 8d 35 c1 4a 00 00 	lea    0x4ac1(%rip),%rsi        # 1ad9d <g_764+0x2d3d>
   162dc:	48 89 c7             	mov    %rax,%rdi
   162df:	e8 0f 14 ff ff       	callq  76f3 <transparent_crc>
   162e4:	48 8b 05 b5 92 00 00 	mov    0x92b5(%rip),%rax        # 1f5a0 <g_1314+0x10>
   162eb:	c1 e0 02             	shl    $0x2,%eax
   162ee:	c1 f8 12             	sar    $0x12,%eax
   162f1:	48 0f bf c0          	movswq %ax,%rax
   162f5:	8b 55 f4             	mov    -0xc(%rbp),%edx
   162f8:	48 8d 35 a8 4a 00 00 	lea    0x4aa8(%rip),%rsi        # 1ada7 <g_764+0x2d47>
   162ff:	48 89 c7             	mov    %rax,%rdi
   16302:	e8 ec 13 ff ff       	callq  76f3 <transparent_crc>
   16307:	48 8b 05 92 92 00 00 	mov    0x9292(%rip),%rax        # 1f5a0 <g_1314+0x10>
   1630e:	48 c1 e0 12          	shl    $0x12,%rax
   16312:	48 c1 f8 30          	sar    $0x30,%rax
   16316:	48 0f bf c0          	movswq %ax,%rax
   1631a:	8b 55 f4             	mov    -0xc(%rbp),%edx
   1631d:	48 8d 35 8d 4a 00 00 	lea    0x4a8d(%rip),%rsi        # 1adb1 <g_764+0x2d51>
   16324:	48 89 c7             	mov    %rax,%rdi
   16327:	e8 c7 13 ff ff       	callq  76f3 <transparent_crc>
   1632c:	48 8b 05 7d 92 00 00 	mov    0x927d(%rip),%rax        # 1f5b0 <g_1315>
   16333:	8b 55 f4             	mov    -0xc(%rbp),%edx
   16336:	48 8d 35 7e 4a 00 00 	lea    0x4a7e(%rip),%rsi        # 1adbb <g_764+0x2d5b>
   1633d:	48 89 c7             	mov    %rax,%rdi
   16340:	e8 ae 13 ff ff       	callq  76f3 <transparent_crc>
   16345:	8b 05 6d 92 00 00    	mov    0x926d(%rip),%eax        # 1f5b8 <g_1315+0x8>
   1634b:	c1 e0 04             	shl    $0x4,%eax
   1634e:	c1 f8 04             	sar    $0x4,%eax
   16351:	48 98                	cltq   
   16353:	8b 55 f4             	mov    -0xc(%rbp),%edx
   16356:	48 8d 35 68 4a 00 00 	lea    0x4a68(%rip),%rsi        # 1adc5 <g_764+0x2d65>
   1635d:	48 89 c7             	mov    %rax,%rdi
   16360:	e8 8e 13 ff ff       	callq  76f3 <transparent_crc>
   16365:	0f b6 05 4f 92 00 00 	movzbl 0x924f(%rip),%eax        # 1f5bb <g_1315+0xb>
   1636c:	c1 e0 02             	shl    $0x2,%eax
   1636f:	c0 f8 06             	sar    $0x6,%al
   16372:	48 0f be c0          	movsbq %al,%rax
   16376:	8b 55 f4             	mov    -0xc(%rbp),%edx
   16379:	48 8d 35 4f 4a 00 00 	lea    0x4a4f(%rip),%rsi        # 1adcf <g_764+0x2d6f>
   16380:	48 89 c7             	mov    %rax,%rdi
   16383:	e8 6b 13 ff ff       	callq  76f3 <transparent_crc>
   16388:	48 8b 05 29 92 00 00 	mov    0x9229(%rip),%rax        # 1f5b8 <g_1315+0x8>
   1638f:	48 c1 e0 04          	shl    $0x4,%rax
   16393:	48 c1 f8 22          	sar    $0x22,%rax
   16397:	48 98                	cltq   
   16399:	8b 55 f4             	mov    -0xc(%rbp),%edx
   1639c:	48 8d 35 36 4a 00 00 	lea    0x4a36(%rip),%rsi        # 1add9 <g_764+0x2d79>
   163a3:	48 89 c7             	mov    %rax,%rdi
   163a6:	e8 48 13 ff ff       	callq  76f3 <transparent_crc>
   163ab:	48 8b 05 06 92 00 00 	mov    0x9206(%rip),%rax        # 1f5b8 <g_1315+0x8>
   163b2:	48 c1 e8 3c          	shr    $0x3c,%rax
   163b6:	48 89 c2             	mov    %rax,%rdx
   163b9:	48 8b 05 00 92 00 00 	mov    0x9200(%rip),%rax        # 1f5c0 <g_1315+0x10>
   163c0:	25 ff 01 00 00       	and    $0x1ff,%eax
   163c5:	48 c1 e0 04          	shl    $0x4,%rax
   163c9:	48 09 d0             	or     %rdx,%rax
   163cc:	0f b7 c0             	movzwl %ax,%eax
   163cf:	8b 55 f4             	mov    -0xc(%rbp),%edx
   163d2:	48 8d 35 0a 4a 00 00 	lea    0x4a0a(%rip),%rsi        # 1ade3 <g_764+0x2d83>
   163d9:	48 89 c7             	mov    %rax,%rdi
   163dc:	e8 12 13 ff ff       	callq  76f3 <transparent_crc>
   163e1:	0f b6 05 d9 91 00 00 	movzbl 0x91d9(%rip),%eax        # 1f5c1 <g_1315+0x11>
   163e8:	d0 e8                	shr    %al
   163ea:	0f b6 c0             	movzbl %al,%eax
   163ed:	8b 55 f4             	mov    -0xc(%rbp),%edx
   163f0:	48 8d 35 f6 49 00 00 	lea    0x49f6(%rip),%rsi        # 1aded <g_764+0x2d8d>
   163f7:	48 89 c7             	mov    %rax,%rdi
   163fa:	e8 f4 12 ff ff       	callq  76f3 <transparent_crc>
   163ff:	48 8b 05 ba 91 00 00 	mov    0x91ba(%rip),%rax        # 1f5c0 <g_1315+0x10>
   16406:	c1 e0 02             	shl    $0x2,%eax
   16409:	c1 f8 12             	sar    $0x12,%eax
   1640c:	48 0f bf c0          	movswq %ax,%rax
   16410:	8b 55 f4             	mov    -0xc(%rbp),%edx
   16413:	48 8d 35 dd 49 00 00 	lea    0x49dd(%rip),%rsi        # 1adf7 <g_764+0x2d97>
   1641a:	48 89 c7             	mov    %rax,%rdi
   1641d:	e8 d1 12 ff ff       	callq  76f3 <transparent_crc>
   16422:	48 8b 05 97 91 00 00 	mov    0x9197(%rip),%rax        # 1f5c0 <g_1315+0x10>
   16429:	48 c1 e0 12          	shl    $0x12,%rax
   1642d:	48 c1 f8 30          	sar    $0x30,%rax
   16431:	48 0f bf c0          	movswq %ax,%rax
   16435:	8b 55 f4             	mov    -0xc(%rbp),%edx
   16438:	48 8d 35 c2 49 00 00 	lea    0x49c2(%rip),%rsi        # 1ae01 <g_764+0x2da1>
   1643f:	48 89 c7             	mov    %rax,%rdi
   16442:	e8 ac 12 ff ff       	callq  76f3 <transparent_crc>
   16447:	48 8b 05 82 91 00 00 	mov    0x9182(%rip),%rax        # 1f5d0 <g_1316>
   1644e:	8b 55 f4             	mov    -0xc(%rbp),%edx
   16451:	48 8d 35 b3 49 00 00 	lea    0x49b3(%rip),%rsi        # 1ae0b <g_764+0x2dab>
   16458:	48 89 c7             	mov    %rax,%rdi
   1645b:	e8 93 12 ff ff       	callq  76f3 <transparent_crc>
   16460:	8b 05 72 91 00 00    	mov    0x9172(%rip),%eax        # 1f5d8 <g_1316+0x8>
   16466:	c1 e0 04             	shl    $0x4,%eax
   16469:	c1 f8 04             	sar    $0x4,%eax
   1646c:	48 98                	cltq   
   1646e:	8b 55 f4             	mov    -0xc(%rbp),%edx
   16471:	48 8d 35 9d 49 00 00 	lea    0x499d(%rip),%rsi        # 1ae15 <g_764+0x2db5>
   16478:	48 89 c7             	mov    %rax,%rdi
   1647b:	e8 73 12 ff ff       	callq  76f3 <transparent_crc>
   16480:	0f b6 05 54 91 00 00 	movzbl 0x9154(%rip),%eax        # 1f5db <g_1316+0xb>
   16487:	c1 e0 02             	shl    $0x2,%eax
   1648a:	c0 f8 06             	sar    $0x6,%al
   1648d:	48 0f be c0          	movsbq %al,%rax
   16491:	8b 55 f4             	mov    -0xc(%rbp),%edx
   16494:	48 8d 35 84 49 00 00 	lea    0x4984(%rip),%rsi        # 1ae1f <g_764+0x2dbf>
   1649b:	48 89 c7             	mov    %rax,%rdi
   1649e:	e8 50 12 ff ff       	callq  76f3 <transparent_crc>
   164a3:	48 8b 05 2e 91 00 00 	mov    0x912e(%rip),%rax        # 1f5d8 <g_1316+0x8>
   164aa:	48 c1 e0 04          	shl    $0x4,%rax
   164ae:	48 c1 f8 22          	sar    $0x22,%rax
   164b2:	48 98                	cltq   
   164b4:	8b 55 f4             	mov    -0xc(%rbp),%edx
   164b7:	48 8d 35 6b 49 00 00 	lea    0x496b(%rip),%rsi        # 1ae29 <g_764+0x2dc9>
   164be:	48 89 c7             	mov    %rax,%rdi
   164c1:	e8 2d 12 ff ff       	callq  76f3 <transparent_crc>
   164c6:	48 8b 05 0b 91 00 00 	mov    0x910b(%rip),%rax        # 1f5d8 <g_1316+0x8>
   164cd:	48 c1 e8 3c          	shr    $0x3c,%rax
   164d1:	48 89 c2             	mov    %rax,%rdx
   164d4:	48 8b 05 05 91 00 00 	mov    0x9105(%rip),%rax        # 1f5e0 <g_1316+0x10>
   164db:	25 ff 01 00 00       	and    $0x1ff,%eax
   164e0:	48 c1 e0 04          	shl    $0x4,%rax
   164e4:	48 09 d0             	or     %rdx,%rax
   164e7:	0f b7 c0             	movzwl %ax,%eax
   164ea:	8b 55 f4             	mov    -0xc(%rbp),%edx
   164ed:	48 8d 35 3f 49 00 00 	lea    0x493f(%rip),%rsi        # 1ae33 <g_764+0x2dd3>
   164f4:	48 89 c7             	mov    %rax,%rdi
   164f7:	e8 f7 11 ff ff       	callq  76f3 <transparent_crc>
   164fc:	0f b6 05 de 90 00 00 	movzbl 0x90de(%rip),%eax        # 1f5e1 <g_1316+0x11>
   16503:	d0 e8                	shr    %al
   16505:	0f b6 c0             	movzbl %al,%eax
   16508:	8b 55 f4             	mov    -0xc(%rbp),%edx
   1650b:	48 8d 35 2b 49 00 00 	lea    0x492b(%rip),%rsi        # 1ae3d <g_764+0x2ddd>
   16512:	48 89 c7             	mov    %rax,%rdi
   16515:	e8 d9 11 ff ff       	callq  76f3 <transparent_crc>
   1651a:	48 8b 05 bf 90 00 00 	mov    0x90bf(%rip),%rax        # 1f5e0 <g_1316+0x10>
   16521:	c1 e0 02             	shl    $0x2,%eax
   16524:	c1 f8 12             	sar    $0x12,%eax
   16527:	48 0f bf c0          	movswq %ax,%rax
   1652b:	8b 55 f4             	mov    -0xc(%rbp),%edx
   1652e:	48 8d 35 12 49 00 00 	lea    0x4912(%rip),%rsi        # 1ae47 <g_764+0x2de7>
   16535:	48 89 c7             	mov    %rax,%rdi
   16538:	e8 b6 11 ff ff       	callq  76f3 <transparent_crc>
   1653d:	48 8b 05 9c 90 00 00 	mov    0x909c(%rip),%rax        # 1f5e0 <g_1316+0x10>
   16544:	48 c1 e0 12          	shl    $0x12,%rax
   16548:	48 c1 f8 30          	sar    $0x30,%rax
   1654c:	48 0f bf c0          	movswq %ax,%rax
   16550:	8b 55 f4             	mov    -0xc(%rbp),%edx
   16553:	48 8d 35 f7 48 00 00 	lea    0x48f7(%rip),%rsi        # 1ae51 <g_764+0x2df1>
   1655a:	48 89 c7             	mov    %rax,%rdi
   1655d:	e8 91 11 ff ff       	callq  76f3 <transparent_crc>
   16562:	48 8b 05 87 90 00 00 	mov    0x9087(%rip),%rax        # 1f5f0 <g_1317>
   16569:	8b 55 f4             	mov    -0xc(%rbp),%edx
   1656c:	48 8d 35 e8 48 00 00 	lea    0x48e8(%rip),%rsi        # 1ae5b <g_764+0x2dfb>
   16573:	48 89 c7             	mov    %rax,%rdi
   16576:	e8 78 11 ff ff       	callq  76f3 <transparent_crc>
   1657b:	8b 05 77 90 00 00    	mov    0x9077(%rip),%eax        # 1f5f8 <g_1317+0x8>
   16581:	c1 e0 04             	shl    $0x4,%eax
   16584:	c1 f8 04             	sar    $0x4,%eax
   16587:	48 98                	cltq   
   16589:	8b 55 f4             	mov    -0xc(%rbp),%edx
   1658c:	48 8d 35 d2 48 00 00 	lea    0x48d2(%rip),%rsi        # 1ae65 <g_764+0x2e05>
   16593:	48 89 c7             	mov    %rax,%rdi
   16596:	e8 58 11 ff ff       	callq  76f3 <transparent_crc>
   1659b:	0f b6 05 59 90 00 00 	movzbl 0x9059(%rip),%eax        # 1f5fb <g_1317+0xb>
   165a2:	c1 e0 02             	shl    $0x2,%eax
   165a5:	c0 f8 06             	sar    $0x6,%al
   165a8:	48 0f be c0          	movsbq %al,%rax
   165ac:	8b 55 f4             	mov    -0xc(%rbp),%edx
   165af:	48 8d 35 b9 48 00 00 	lea    0x48b9(%rip),%rsi        # 1ae6f <g_764+0x2e0f>
   165b6:	48 89 c7             	mov    %rax,%rdi
   165b9:	e8 35 11 ff ff       	callq  76f3 <transparent_crc>
   165be:	48 8b 05 33 90 00 00 	mov    0x9033(%rip),%rax        # 1f5f8 <g_1317+0x8>
   165c5:	48 c1 e0 04          	shl    $0x4,%rax
   165c9:	48 c1 f8 22          	sar    $0x22,%rax
   165cd:	48 98                	cltq   
   165cf:	8b 55 f4             	mov    -0xc(%rbp),%edx
   165d2:	48 8d 35 a0 48 00 00 	lea    0x48a0(%rip),%rsi        # 1ae79 <g_764+0x2e19>
   165d9:	48 89 c7             	mov    %rax,%rdi
   165dc:	e8 12 11 ff ff       	callq  76f3 <transparent_crc>
   165e1:	48 8b 05 10 90 00 00 	mov    0x9010(%rip),%rax        # 1f5f8 <g_1317+0x8>
   165e8:	48 c1 e8 3c          	shr    $0x3c,%rax
   165ec:	48 89 c2             	mov    %rax,%rdx
   165ef:	48 8b 05 0a 90 00 00 	mov    0x900a(%rip),%rax        # 1f600 <g_1317+0x10>
   165f6:	25 ff 01 00 00       	and    $0x1ff,%eax
   165fb:	48 c1 e0 04          	shl    $0x4,%rax
   165ff:	48 09 d0             	or     %rdx,%rax
   16602:	0f b7 c0             	movzwl %ax,%eax
   16605:	8b 55 f4             	mov    -0xc(%rbp),%edx
   16608:	48 8d 35 74 48 00 00 	lea    0x4874(%rip),%rsi        # 1ae83 <g_764+0x2e23>
   1660f:	48 89 c7             	mov    %rax,%rdi
   16612:	e8 dc 10 ff ff       	callq  76f3 <transparent_crc>
   16617:	0f b6 05 e3 8f 00 00 	movzbl 0x8fe3(%rip),%eax        # 1f601 <g_1317+0x11>
   1661e:	d0 e8                	shr    %al
   16620:	0f b6 c0             	movzbl %al,%eax
   16623:	8b 55 f4             	mov    -0xc(%rbp),%edx
   16626:	48 8d 35 60 48 00 00 	lea    0x4860(%rip),%rsi        # 1ae8d <g_764+0x2e2d>
   1662d:	48 89 c7             	mov    %rax,%rdi
   16630:	e8 be 10 ff ff       	callq  76f3 <transparent_crc>
   16635:	48 8b 05 c4 8f 00 00 	mov    0x8fc4(%rip),%rax        # 1f600 <g_1317+0x10>
   1663c:	c1 e0 02             	shl    $0x2,%eax
   1663f:	c1 f8 12             	sar    $0x12,%eax
   16642:	48 0f bf c0          	movswq %ax,%rax
   16646:	8b 55 f4             	mov    -0xc(%rbp),%edx
   16649:	48 8d 35 47 48 00 00 	lea    0x4847(%rip),%rsi        # 1ae97 <g_764+0x2e37>
   16650:	48 89 c7             	mov    %rax,%rdi
   16653:	e8 9b 10 ff ff       	callq  76f3 <transparent_crc>
   16658:	48 8b 05 a1 8f 00 00 	mov    0x8fa1(%rip),%rax        # 1f600 <g_1317+0x10>
   1665f:	48 c1 e0 12          	shl    $0x12,%rax
   16663:	48 c1 f8 30          	sar    $0x30,%rax
   16667:	48 0f bf c0          	movswq %ax,%rax
   1666b:	8b 55 f4             	mov    -0xc(%rbp),%edx
   1666e:	48 8d 35 2c 48 00 00 	lea    0x482c(%rip),%rsi        # 1aea1 <g_764+0x2e41>
   16675:	48 89 c7             	mov    %rax,%rdi
   16678:	e8 76 10 ff ff       	callq  76f3 <transparent_crc>
   1667d:	c7 45 e8 00 00 00 00 	movl   $0x0,-0x18(%rbp)
   16684:	e9 26 03 00 00       	jmpq   169af <main+0x4ba5>
   16689:	c7 45 ec 00 00 00 00 	movl   $0x0,-0x14(%rbp)
   16690:	e9 0c 03 00 00       	jmpq   169a1 <main+0x4b97>
   16695:	8b 45 ec             	mov    -0x14(%rbp),%eax
   16698:	48 63 d0             	movslq %eax,%rdx
   1669b:	8b 45 e8             	mov    -0x18(%rbp),%eax
   1669e:	48 63 c8             	movslq %eax,%rcx
   166a1:	48 89 d0             	mov    %rdx,%rax
   166a4:	48 c1 e0 02          	shl    $0x2,%rax
   166a8:	48 01 d0             	add    %rdx,%rax
   166ab:	48 01 c0             	add    %rax,%rax
   166ae:	48 01 d0             	add    %rdx,%rax
   166b1:	48 01 c0             	add    %rax,%rax
   166b4:	48 69 d1 dc 00 00 00 	imul   $0xdc,%rcx,%rdx
   166bb:	48 01 c2             	add    %rax,%rdx
   166be:	48 8d 05 5b 8f 00 00 	lea    0x8f5b(%rip),%rax        # 1f620 <g_1318>
   166c5:	48 01 d0             	add    %rdx,%rax
   166c8:	48 8b 00             	mov    (%rax),%rax
   166cb:	8b 55 f4             	mov    -0xc(%rbp),%edx
   166ce:	48 8d 35 d6 47 00 00 	lea    0x47d6(%rip),%rsi        # 1aeab <g_764+0x2e4b>
   166d5:	48 89 c7             	mov    %rax,%rdi
   166d8:	e8 16 10 ff ff       	callq  76f3 <transparent_crc>
   166dd:	8b 45 ec             	mov    -0x14(%rbp),%eax
   166e0:	48 63 d0             	movslq %eax,%rdx
   166e3:	8b 45 e8             	mov    -0x18(%rbp),%eax
   166e6:	48 63 c8             	movslq %eax,%rcx
   166e9:	48 89 d0             	mov    %rdx,%rax
   166ec:	48 c1 e0 02          	shl    $0x2,%rax
   166f0:	48 01 d0             	add    %rdx,%rax
   166f3:	48 01 c0             	add    %rax,%rax
   166f6:	48 01 d0             	add    %rdx,%rax
   166f9:	48 01 c0             	add    %rax,%rax
   166fc:	48 69 d1 dc 00 00 00 	imul   $0xdc,%rcx,%rdx
   16703:	48 01 c2             	add    %rax,%rdx
   16706:	48 8d 05 13 8f 00 00 	lea    0x8f13(%rip),%rax        # 1f620 <g_1318>
   1670d:	48 01 d0             	add    %rdx,%rax
   16710:	0f b7 50 08          	movzwl 0x8(%rax),%edx
   16714:	0f b7 40 0a          	movzwl 0xa(%rax),%eax
   16718:	25 ff 0f 00 00       	and    $0xfff,%eax
   1671d:	48 c1 e0 10          	shl    $0x10,%rax
   16721:	48 09 d0             	or     %rdx,%rax
   16724:	48 c1 e0 24          	shl    $0x24,%rax
   16728:	48 c1 f8 24          	sar    $0x24,%rax
   1672c:	48 98                	cltq   
   1672e:	8b 55 f4             	mov    -0xc(%rbp),%edx
   16731:	48 8d 35 83 47 00 00 	lea    0x4783(%rip),%rsi        # 1aebb <g_764+0x2e5b>
   16738:	48 89 c7             	mov    %rax,%rdi
   1673b:	e8 b3 0f ff ff       	callq  76f3 <transparent_crc>
   16740:	8b 45 ec             	mov    -0x14(%rbp),%eax
   16743:	48 63 d0             	movslq %eax,%rdx
   16746:	8b 45 e8             	mov    -0x18(%rbp),%eax
   16749:	48 63 c8             	movslq %eax,%rcx
   1674c:	48 89 d0             	mov    %rdx,%rax
   1674f:	48 c1 e0 02          	shl    $0x2,%rax
   16753:	48 01 d0             	add    %rdx,%rax
   16756:	48 01 c0             	add    %rax,%rax
   16759:	48 01 d0             	add    %rdx,%rax
   1675c:	48 01 c0             	add    %rax,%rax
   1675f:	48 69 d1 dc 00 00 00 	imul   $0xdc,%rcx,%rdx
   16766:	48 01 c2             	add    %rax,%rdx
   16769:	48 8d 05 b0 8e 00 00 	lea    0x8eb0(%rip),%rax        # 1f620 <g_1318>
   16770:	48 01 d0             	add    %rdx,%rax
   16773:	0f b6 40 0b          	movzbl 0xb(%rax),%eax
   16777:	c1 e0 02             	shl    $0x2,%eax
   1677a:	c0 f8 06             	sar    $0x6,%al
   1677d:	48 0f be c0          	movsbq %al,%rax
   16781:	8b 55 f4             	mov    -0xc(%rbp),%edx
   16784:	48 8d 35 40 47 00 00 	lea    0x4740(%rip),%rsi        # 1aecb <g_764+0x2e6b>
   1678b:	48 89 c7             	mov    %rax,%rdi
   1678e:	e8 60 0f ff ff       	callq  76f3 <transparent_crc>
   16793:	8b 45 ec             	mov    -0x14(%rbp),%eax
   16796:	48 63 d0             	movslq %eax,%rdx
   16799:	8b 45 e8             	mov    -0x18(%rbp),%eax
   1679c:	48 63 c8             	movslq %eax,%rcx
   1679f:	48 89 d0             	mov    %rdx,%rax
   167a2:	48 c1 e0 02          	shl    $0x2,%rax
   167a6:	48 01 d0             	add    %rdx,%rax
   167a9:	48 01 c0             	add    %rax,%rax
   167ac:	48 01 d0             	add    %rdx,%rax
   167af:	48 01 c0             	add    %rax,%rax
   167b2:	48 69 d1 dc 00 00 00 	imul   $0xdc,%rcx,%rdx
   167b9:	48 01 c2             	add    %rax,%rdx
   167bc:	48 8d 05 5d 8e 00 00 	lea    0x8e5d(%rip),%rax        # 1f620 <g_1318>
   167c3:	48 01 d0             	add    %rdx,%rax
   167c6:	0f b6 50 0b          	movzbl 0xb(%rax),%edx
   167ca:	c0 ea 06             	shr    $0x6,%dl
   167cd:	0f b6 d2             	movzbl %dl,%edx
   167d0:	0f b7 48 0c          	movzwl 0xc(%rax),%ecx
   167d4:	48 c1 e1 02          	shl    $0x2,%rcx
   167d8:	48 09 ca             	or     %rcx,%rdx
   167db:	0f b7 40 0e          	movzwl 0xe(%rax),%eax
   167df:	25 ff 0f 00 00       	and    $0xfff,%eax
   167e4:	48 c1 e0 12          	shl    $0x12,%rax
   167e8:	48 09 d0             	or     %rdx,%rax
   167eb:	48 c1 e0 22          	shl    $0x22,%rax
   167ef:	48 c1 f8 22          	sar    $0x22,%rax
   167f3:	48 98                	cltq   
   167f5:	8b 55 f4             	mov    -0xc(%rbp),%edx
   167f8:	48 8d 35 dc 46 00 00 	lea    0x46dc(%rip),%rsi        # 1aedb <g_764+0x2e7b>
   167ff:	48 89 c7             	mov    %rax,%rdi
   16802:	e8 ec 0e ff ff       	callq  76f3 <transparent_crc>
   16807:	8b 45 ec             	mov    -0x14(%rbp),%eax
   1680a:	48 63 d0             	movslq %eax,%rdx
   1680d:	8b 45 e8             	mov    -0x18(%rbp),%eax
   16810:	48 63 c8             	movslq %eax,%rcx
   16813:	48 89 d0             	mov    %rdx,%rax
   16816:	48 c1 e0 02          	shl    $0x2,%rax
   1681a:	48 01 d0             	add    %rdx,%rax
   1681d:	48 01 c0             	add    %rax,%rax
   16820:	48 01 d0             	add    %rdx,%rax
   16823:	48 01 c0             	add    %rax,%rax
   16826:	48 69 d1 dc 00 00 00 	imul   $0xdc,%rcx,%rdx
   1682d:	48 01 c2             	add    %rax,%rdx
   16830:	48 8d 05 e9 8d 00 00 	lea    0x8de9(%rip),%rax        # 1f620 <g_1318>
   16837:	48 01 d0             	add    %rdx,%rax
   1683a:	0f b7 50 0e          	movzwl 0xe(%rax),%edx
   1683e:	66 c1 ea 0c          	shr    $0xc,%dx
   16842:	0f b7 d2             	movzwl %dx,%edx
   16845:	0f b7 40 10          	movzwl 0x10(%rax),%eax
   16849:	0f b7 c0             	movzwl %ax,%eax
   1684c:	25 ff 01 00 00       	and    $0x1ff,%eax
   16851:	48 c1 e0 04          	shl    $0x4,%rax
   16855:	48 09 d0             	or     %rdx,%rax
   16858:	0f b7 c0             	movzwl %ax,%eax
   1685b:	8b 55 f4             	mov    -0xc(%rbp),%edx
   1685e:	48 8d 35 86 46 00 00 	lea    0x4686(%rip),%rsi        # 1aeeb <g_764+0x2e8b>
   16865:	48 89 c7             	mov    %rax,%rdi
   16868:	e8 86 0e ff ff       	callq  76f3 <transparent_crc>
   1686d:	8b 45 ec             	mov    -0x14(%rbp),%eax
   16870:	48 63 d0             	movslq %eax,%rdx
   16873:	8b 45 e8             	mov    -0x18(%rbp),%eax
   16876:	48 63 c8             	movslq %eax,%rcx
   16879:	48 89 d0             	mov    %rdx,%rax
   1687c:	48 c1 e0 02          	shl    $0x2,%rax
   16880:	48 01 d0             	add    %rdx,%rax
   16883:	48 01 c0             	add    %rax,%rax
   16886:	48 01 d0             	add    %rdx,%rax
   16889:	48 01 c0             	add    %rax,%rax
   1688c:	48 69 d1 dc 00 00 00 	imul   $0xdc,%rcx,%rdx
   16893:	48 01 c2             	add    %rax,%rdx
   16896:	48 8d 05 93 8d 00 00 	lea    0x8d93(%rip),%rax        # 1f630 <g_1318+0x10>
   1689d:	48 01 d0             	add    %rdx,%rax
   168a0:	0f b6 40 01          	movzbl 0x1(%rax),%eax
   168a4:	d0 e8                	shr    %al
   168a6:	0f b6 c0             	movzbl %al,%eax
   168a9:	8b 55 f4             	mov    -0xc(%rbp),%edx
   168ac:	48 8d 35 48 46 00 00 	lea    0x4648(%rip),%rsi        # 1aefb <g_764+0x2e9b>
   168b3:	48 89 c7             	mov    %rax,%rdi
   168b6:	e8 38 0e ff ff       	callq  76f3 <transparent_crc>
   168bb:	8b 45 ec             	mov    -0x14(%rbp),%eax
   168be:	48 63 d0             	movslq %eax,%rdx
   168c1:	8b 45 e8             	mov    -0x18(%rbp),%eax
   168c4:	48 63 c8             	movslq %eax,%rcx
   168c7:	48 89 d0             	mov    %rdx,%rax
   168ca:	48 c1 e0 02          	shl    $0x2,%rax
   168ce:	48 01 d0             	add    %rdx,%rax
   168d1:	48 01 c0             	add    %rax,%rax
   168d4:	48 01 d0             	add    %rdx,%rax
   168d7:	48 01 c0             	add    %rax,%rax
   168da:	48 69 d1 dc 00 00 00 	imul   $0xdc,%rcx,%rdx
   168e1:	48 01 c2             	add    %rax,%rdx
   168e4:	48 8d 05 45 8d 00 00 	lea    0x8d45(%rip),%rax        # 1f630 <g_1318+0x10>
   168eb:	48 01 d0             	add    %rdx,%rax
   168ee:	0f b7 40 02          	movzwl 0x2(%rax),%eax
   168f2:	c1 e0 02             	shl    $0x2,%eax
   168f5:	66 c1 f8 02          	sar    $0x2,%ax
   168f9:	48 0f bf c0          	movswq %ax,%rax
   168fd:	8b 55 f4             	mov    -0xc(%rbp),%edx
   16900:	48 8d 35 04 46 00 00 	lea    0x4604(%rip),%rsi        # 1af0b <g_764+0x2eab>
   16907:	48 89 c7             	mov    %rax,%rdi
   1690a:	e8 e4 0d ff ff       	callq  76f3 <transparent_crc>
   1690f:	8b 45 ec             	mov    -0x14(%rbp),%eax
   16912:	48 63 d0             	movslq %eax,%rdx
   16915:	8b 45 e8             	mov    -0x18(%rbp),%eax
   16918:	48 63 c8             	movslq %eax,%rcx
   1691b:	48 89 d0             	mov    %rdx,%rax
   1691e:	48 c1 e0 02          	shl    $0x2,%rax
   16922:	48 01 d0             	add    %rdx,%rax
   16925:	48 01 c0             	add    %rax,%rax
   16928:	48 01 d0             	add    %rdx,%rax
   1692b:	48 01 c0             	add    %rax,%rax
   1692e:	48 69 d1 dc 00 00 00 	imul   $0xdc,%rcx,%rdx
   16935:	48 01 c2             	add    %rax,%rdx
   16938:	48 8d 05 f1 8c 00 00 	lea    0x8cf1(%rip),%rax        # 1f630 <g_1318+0x10>
   1693f:	48 01 d0             	add    %rdx,%rax
   16942:	0f b7 50 02          	movzwl 0x2(%rax),%edx
   16946:	66 c1 ea 0e          	shr    $0xe,%dx
   1694a:	0f b7 d2             	movzwl %dx,%edx
   1694d:	0f b7 40 04          	movzwl 0x4(%rax),%eax
   16951:	0f b7 c0             	movzwl %ax,%eax
   16954:	25 ff 3f 00 00       	and    $0x3fff,%eax
   16959:	48 c1 e0 02          	shl    $0x2,%rax
   1695d:	48 09 d0             	or     %rdx,%rax
   16960:	48 c1 e0 30          	shl    $0x30,%rax
   16964:	48 c1 f8 30          	sar    $0x30,%rax
   16968:	48 0f bf c0          	movswq %ax,%rax
   1696c:	8b 55 f4             	mov    -0xc(%rbp),%edx
   1696f:	48 8d 35 a5 45 00 00 	lea    0x45a5(%rip),%rsi        # 1af1b <g_764+0x2ebb>
   16976:	48 89 c7             	mov    %rax,%rdi
   16979:	e8 75 0d ff ff       	callq  76f3 <transparent_crc>
   1697e:	83 7d f4 00          	cmpl   $0x0,-0xc(%rbp)
   16982:	74 19                	je     1699d <main+0x4b93>
   16984:	8b 55 ec             	mov    -0x14(%rbp),%edx
   16987:	8b 45 e8             	mov    -0x18(%rbp),%eax
   1698a:	89 c6                	mov    %eax,%esi
   1698c:	48 8d 3d 53 36 00 00 	lea    0x3653(%rip),%rdi        # 19fe6 <g_764+0x1f86>
   16993:	b8 00 00 00 00       	mov    $0x0,%eax
   16998:	e8 e3 f6 fe ff       	callq  6080 <printf@plt>
   1699d:	83 45 ec 01          	addl   $0x1,-0x14(%rbp)
   169a1:	83 7d ec 09          	cmpl   $0x9,-0x14(%rbp)
   169a5:	0f 8e ea fc ff ff    	jle    16695 <main+0x488b>
   169ab:	83 45 e8 01          	addl   $0x1,-0x18(%rbp)
   169af:	83 7d e8 03          	cmpl   $0x3,-0x18(%rbp)
   169b3:	0f 8e d0 fc ff ff    	jle    16689 <main+0x487f>
   169b9:	48 8b 05 d0 8f 00 00 	mov    0x8fd0(%rip),%rax        # 1f990 <g_1319>
   169c0:	8b 55 f4             	mov    -0xc(%rbp),%edx
   169c3:	48 8d 35 61 45 00 00 	lea    0x4561(%rip),%rsi        # 1af2b <g_764+0x2ecb>
   169ca:	48 89 c7             	mov    %rax,%rdi
   169cd:	e8 21 0d ff ff       	callq  76f3 <transparent_crc>
   169d2:	8b 05 c0 8f 00 00    	mov    0x8fc0(%rip),%eax        # 1f998 <g_1319+0x8>
   169d8:	c1 e0 04             	shl    $0x4,%eax
   169db:	c1 f8 04             	sar    $0x4,%eax
   169de:	48 98                	cltq   
   169e0:	8b 55 f4             	mov    -0xc(%rbp),%edx
   169e3:	48 8d 35 4b 45 00 00 	lea    0x454b(%rip),%rsi        # 1af35 <g_764+0x2ed5>
   169ea:	48 89 c7             	mov    %rax,%rdi
   169ed:	e8 01 0d ff ff       	callq  76f3 <transparent_crc>
   169f2:	0f b6 05 a2 8f 00 00 	movzbl 0x8fa2(%rip),%eax        # 1f99b <g_1319+0xb>
   169f9:	c1 e0 02             	shl    $0x2,%eax
   169fc:	c0 f8 06             	sar    $0x6,%al
   169ff:	48 0f be c0          	movsbq %al,%rax
   16a03:	8b 55 f4             	mov    -0xc(%rbp),%edx
   16a06:	48 8d 35 32 45 00 00 	lea    0x4532(%rip),%rsi        # 1af3f <g_764+0x2edf>
   16a0d:	48 89 c7             	mov    %rax,%rdi
   16a10:	e8 de 0c ff ff       	callq  76f3 <transparent_crc>
   16a15:	48 8b 05 7c 8f 00 00 	mov    0x8f7c(%rip),%rax        # 1f998 <g_1319+0x8>
   16a1c:	48 c1 e0 04          	shl    $0x4,%rax
   16a20:	48 c1 f8 22          	sar    $0x22,%rax
   16a24:	48 98                	cltq   
   16a26:	8b 55 f4             	mov    -0xc(%rbp),%edx
   16a29:	48 8d 35 19 45 00 00 	lea    0x4519(%rip),%rsi        # 1af49 <g_764+0x2ee9>
   16a30:	48 89 c7             	mov    %rax,%rdi
   16a33:	e8 bb 0c ff ff       	callq  76f3 <transparent_crc>
   16a38:	48 8b 05 59 8f 00 00 	mov    0x8f59(%rip),%rax        # 1f998 <g_1319+0x8>
   16a3f:	48 c1 e8 3c          	shr    $0x3c,%rax
   16a43:	48 89 c2             	mov    %rax,%rdx
   16a46:	48 8b 05 53 8f 00 00 	mov    0x8f53(%rip),%rax        # 1f9a0 <g_1319+0x10>
   16a4d:	25 ff 01 00 00       	and    $0x1ff,%eax
   16a52:	48 c1 e0 04          	shl    $0x4,%rax
   16a56:	48 09 d0             	or     %rdx,%rax
   16a59:	0f b7 c0             	movzwl %ax,%eax
   16a5c:	8b 55 f4             	mov    -0xc(%rbp),%edx
   16a5f:	48 8d 35 ed 44 00 00 	lea    0x44ed(%rip),%rsi        # 1af53 <g_764+0x2ef3>
   16a66:	48 89 c7             	mov    %rax,%rdi
   16a69:	e8 85 0c ff ff       	callq  76f3 <transparent_crc>
   16a6e:	0f b6 05 2c 8f 00 00 	movzbl 0x8f2c(%rip),%eax        # 1f9a1 <g_1319+0x11>
   16a75:	d0 e8                	shr    %al
   16a77:	0f b6 c0             	movzbl %al,%eax
   16a7a:	8b 55 f4             	mov    -0xc(%rbp),%edx
   16a7d:	48 8d 35 d9 44 00 00 	lea    0x44d9(%rip),%rsi        # 1af5d <g_764+0x2efd>
   16a84:	48 89 c7             	mov    %rax,%rdi
   16a87:	e8 67 0c ff ff       	callq  76f3 <transparent_crc>
   16a8c:	48 8b 05 0d 8f 00 00 	mov    0x8f0d(%rip),%rax        # 1f9a0 <g_1319+0x10>
   16a93:	c1 e0 02             	shl    $0x2,%eax
   16a96:	c1 f8 12             	sar    $0x12,%eax
   16a99:	48 0f bf c0          	movswq %ax,%rax
   16a9d:	8b 55 f4             	mov    -0xc(%rbp),%edx
   16aa0:	48 8d 35 c0 44 00 00 	lea    0x44c0(%rip),%rsi        # 1af67 <g_764+0x2f07>
   16aa7:	48 89 c7             	mov    %rax,%rdi
   16aaa:	e8 44 0c ff ff       	callq  76f3 <transparent_crc>
   16aaf:	48 8b 05 ea 8e 00 00 	mov    0x8eea(%rip),%rax        # 1f9a0 <g_1319+0x10>
   16ab6:	48 c1 e0 12          	shl    $0x12,%rax
   16aba:	48 c1 f8 30          	sar    $0x30,%rax
   16abe:	48 0f bf c0          	movswq %ax,%rax
   16ac2:	8b 55 f4             	mov    -0xc(%rbp),%edx
   16ac5:	48 8d 35 a5 44 00 00 	lea    0x44a5(%rip),%rsi        # 1af71 <g_764+0x2f11>
   16acc:	48 89 c7             	mov    %rax,%rdi
   16acf:	e8 1f 0c ff ff       	callq  76f3 <transparent_crc>
   16ad4:	48 8b 05 d5 8e 00 00 	mov    0x8ed5(%rip),%rax        # 1f9b0 <g_1320>
   16adb:	8b 55 f4             	mov    -0xc(%rbp),%edx
   16ade:	48 8d 35 96 44 00 00 	lea    0x4496(%rip),%rsi        # 1af7b <g_764+0x2f1b>
   16ae5:	48 89 c7             	mov    %rax,%rdi
   16ae8:	e8 06 0c ff ff       	callq  76f3 <transparent_crc>
   16aed:	8b 05 c5 8e 00 00    	mov    0x8ec5(%rip),%eax        # 1f9b8 <g_1320+0x8>
   16af3:	c1 e0 04             	shl    $0x4,%eax
   16af6:	c1 f8 04             	sar    $0x4,%eax
   16af9:	48 98                	cltq   
   16afb:	8b 55 f4             	mov    -0xc(%rbp),%edx
   16afe:	48 8d 35 80 44 00 00 	lea    0x4480(%rip),%rsi        # 1af85 <g_764+0x2f25>
   16b05:	48 89 c7             	mov    %rax,%rdi
   16b08:	e8 e6 0b ff ff       	callq  76f3 <transparent_crc>
   16b0d:	0f b6 05 a7 8e 00 00 	movzbl 0x8ea7(%rip),%eax        # 1f9bb <g_1320+0xb>
   16b14:	c1 e0 02             	shl    $0x2,%eax
   16b17:	c0 f8 06             	sar    $0x6,%al
   16b1a:	48 0f be c0          	movsbq %al,%rax
   16b1e:	8b 55 f4             	mov    -0xc(%rbp),%edx
   16b21:	48 8d 35 67 44 00 00 	lea    0x4467(%rip),%rsi        # 1af8f <g_764+0x2f2f>
   16b28:	48 89 c7             	mov    %rax,%rdi
   16b2b:	e8 c3 0b ff ff       	callq  76f3 <transparent_crc>
   16b30:	48 8b 05 81 8e 00 00 	mov    0x8e81(%rip),%rax        # 1f9b8 <g_1320+0x8>
   16b37:	48 c1 e0 04          	shl    $0x4,%rax
   16b3b:	48 c1 f8 22          	sar    $0x22,%rax
   16b3f:	48 98                	cltq   
   16b41:	8b 55 f4             	mov    -0xc(%rbp),%edx
   16b44:	48 8d 35 4e 44 00 00 	lea    0x444e(%rip),%rsi        # 1af99 <g_764+0x2f39>
   16b4b:	48 89 c7             	mov    %rax,%rdi
   16b4e:	e8 a0 0b ff ff       	callq  76f3 <transparent_crc>
   16b53:	48 8b 05 5e 8e 00 00 	mov    0x8e5e(%rip),%rax        # 1f9b8 <g_1320+0x8>
   16b5a:	48 c1 e8 3c          	shr    $0x3c,%rax
   16b5e:	48 89 c2             	mov    %rax,%rdx
   16b61:	48 8b 05 58 8e 00 00 	mov    0x8e58(%rip),%rax        # 1f9c0 <g_1320+0x10>
   16b68:	25 ff 01 00 00       	and    $0x1ff,%eax
   16b6d:	48 c1 e0 04          	shl    $0x4,%rax
   16b71:	48 09 d0             	or     %rdx,%rax
   16b74:	0f b7 c0             	movzwl %ax,%eax
   16b77:	8b 55 f4             	mov    -0xc(%rbp),%edx
   16b7a:	48 8d 35 22 44 00 00 	lea    0x4422(%rip),%rsi        # 1afa3 <g_764+0x2f43>
   16b81:	48 89 c7             	mov    %rax,%rdi
   16b84:	e8 6a 0b ff ff       	callq  76f3 <transparent_crc>
   16b89:	0f b6 05 31 8e 00 00 	movzbl 0x8e31(%rip),%eax        # 1f9c1 <g_1320+0x11>
   16b90:	d0 e8                	shr    %al
   16b92:	0f b6 c0             	movzbl %al,%eax
   16b95:	8b 55 f4             	mov    -0xc(%rbp),%edx
   16b98:	48 8d 35 0e 44 00 00 	lea    0x440e(%rip),%rsi        # 1afad <g_764+0x2f4d>
   16b9f:	48 89 c7             	mov    %rax,%rdi
   16ba2:	e8 4c 0b ff ff       	callq  76f3 <transparent_crc>
   16ba7:	48 8b 05 12 8e 00 00 	mov    0x8e12(%rip),%rax        # 1f9c0 <g_1320+0x10>
   16bae:	c1 e0 02             	shl    $0x2,%eax
   16bb1:	c1 f8 12             	sar    $0x12,%eax
   16bb4:	48 0f bf c0          	movswq %ax,%rax
   16bb8:	8b 55 f4             	mov    -0xc(%rbp),%edx
   16bbb:	48 8d 35 f5 43 00 00 	lea    0x43f5(%rip),%rsi        # 1afb7 <g_764+0x2f57>
   16bc2:	48 89 c7             	mov    %rax,%rdi
   16bc5:	e8 29 0b ff ff       	callq  76f3 <transparent_crc>
   16bca:	48 8b 05 ef 8d 00 00 	mov    0x8def(%rip),%rax        # 1f9c0 <g_1320+0x10>
   16bd1:	48 c1 e0 12          	shl    $0x12,%rax
   16bd5:	48 c1 f8 30          	sar    $0x30,%rax
   16bd9:	48 0f bf c0          	movswq %ax,%rax
   16bdd:	8b 55 f4             	mov    -0xc(%rbp),%edx
   16be0:	48 8d 35 da 43 00 00 	lea    0x43da(%rip),%rsi        # 1afc1 <g_764+0x2f61>
   16be7:	48 89 c7             	mov    %rax,%rdi
   16bea:	e8 04 0b ff ff       	callq  76f3 <transparent_crc>
   16bef:	c7 45 e8 00 00 00 00 	movl   $0x0,-0x18(%rbp)
   16bf6:	e9 96 02 00 00       	jmpq   16e91 <main+0x5087>
   16bfb:	8b 45 e8             	mov    -0x18(%rbp),%eax
   16bfe:	48 63 d0             	movslq %eax,%rdx
   16c01:	48 89 d0             	mov    %rdx,%rax
   16c04:	48 c1 e0 02          	shl    $0x2,%rax
   16c08:	48 01 d0             	add    %rdx,%rax
   16c0b:	48 01 c0             	add    %rax,%rax
   16c0e:	48 01 d0             	add    %rdx,%rax
   16c11:	48 01 c0             	add    %rax,%rax
   16c14:	48 89 c2             	mov    %rax,%rdx
   16c17:	48 8d 05 c2 8d 00 00 	lea    0x8dc2(%rip),%rax        # 1f9e0 <g_1321>
   16c1e:	48 8b 04 02          	mov    (%rdx,%rax,1),%rax
   16c22:	8b 55 f4             	mov    -0xc(%rbp),%edx
   16c25:	48 8d 35 9f 43 00 00 	lea    0x439f(%rip),%rsi        # 1afcb <g_764+0x2f6b>
   16c2c:	48 89 c7             	mov    %rax,%rdi
   16c2f:	e8 bf 0a ff ff       	callq  76f3 <transparent_crc>
   16c34:	8b 45 e8             	mov    -0x18(%rbp),%eax
   16c37:	48 63 d0             	movslq %eax,%rdx
   16c3a:	48 89 d0             	mov    %rdx,%rax
   16c3d:	48 c1 e0 02          	shl    $0x2,%rax
   16c41:	48 01 d0             	add    %rdx,%rax
   16c44:	48 01 c0             	add    %rax,%rax
   16c47:	48 01 d0             	add    %rdx,%rax
   16c4a:	48 01 c0             	add    %rax,%rax
   16c4d:	48 89 c2             	mov    %rax,%rdx
   16c50:	48 8d 05 89 8d 00 00 	lea    0x8d89(%rip),%rax        # 1f9e0 <g_1321>
   16c57:	0f b7 4c 02 08       	movzwl 0x8(%rdx,%rax,1),%ecx
   16c5c:	0f b7 44 02 0a       	movzwl 0xa(%rdx,%rax,1),%eax
   16c61:	25 ff 0f 00 00       	and    $0xfff,%eax
   16c66:	48 c1 e0 10          	shl    $0x10,%rax
   16c6a:	48 09 c8             	or     %rcx,%rax
   16c6d:	48 c1 e0 24          	shl    $0x24,%rax
   16c71:	48 c1 f8 24          	sar    $0x24,%rax
   16c75:	48 98                	cltq   
   16c77:	8b 55 f4             	mov    -0xc(%rbp),%edx
   16c7a:	48 8d 35 57 43 00 00 	lea    0x4357(%rip),%rsi        # 1afd8 <g_764+0x2f78>
   16c81:	48 89 c7             	mov    %rax,%rdi
   16c84:	e8 6a 0a ff ff       	callq  76f3 <transparent_crc>
   16c89:	8b 45 e8             	mov    -0x18(%rbp),%eax
   16c8c:	48 63 d0             	movslq %eax,%rdx
   16c8f:	48 89 d0             	mov    %rdx,%rax
   16c92:	48 c1 e0 02          	shl    $0x2,%rax
   16c96:	48 01 d0             	add    %rdx,%rax
   16c99:	48 01 c0             	add    %rax,%rax
   16c9c:	48 01 d0             	add    %rdx,%rax
   16c9f:	48 01 c0             	add    %rax,%rax
   16ca2:	48 89 c2             	mov    %rax,%rdx
   16ca5:	48 8d 05 34 8d 00 00 	lea    0x8d34(%rip),%rax        # 1f9e0 <g_1321>
   16cac:	0f b6 44 02 0b       	movzbl 0xb(%rdx,%rax,1),%eax
   16cb1:	c1 e0 02             	shl    $0x2,%eax
   16cb4:	c0 f8 06             	sar    $0x6,%al
   16cb7:	48 0f be c0          	movsbq %al,%rax
   16cbb:	8b 55 f4             	mov    -0xc(%rbp),%edx
   16cbe:	48 8d 35 20 43 00 00 	lea    0x4320(%rip),%rsi        # 1afe5 <g_764+0x2f85>
   16cc5:	48 89 c7             	mov    %rax,%rdi
   16cc8:	e8 26 0a ff ff       	callq  76f3 <transparent_crc>
   16ccd:	8b 45 e8             	mov    -0x18(%rbp),%eax
   16cd0:	48 63 d0             	movslq %eax,%rdx
   16cd3:	48 89 d0             	mov    %rdx,%rax
   16cd6:	48 c1 e0 02          	shl    $0x2,%rax
   16cda:	48 01 d0             	add    %rdx,%rax
   16cdd:	48 01 c0             	add    %rax,%rax
   16ce0:	48 01 d0             	add    %rdx,%rax
   16ce3:	48 01 c0             	add    %rax,%rax
   16ce6:	48 89 c2             	mov    %rax,%rdx
   16ce9:	48 8d 05 f0 8c 00 00 	lea    0x8cf0(%rip),%rax        # 1f9e0 <g_1321>
   16cf0:	0f b6 4c 02 0b       	movzbl 0xb(%rdx,%rax,1),%ecx
   16cf5:	c0 e9 06             	shr    $0x6,%cl
   16cf8:	0f b6 c9             	movzbl %cl,%ecx
   16cfb:	0f b7 74 02 0c       	movzwl 0xc(%rdx,%rax,1),%esi
   16d00:	48 c1 e6 02          	shl    $0x2,%rsi
   16d04:	48 09 f1             	or     %rsi,%rcx
   16d07:	0f b7 44 02 0e       	movzwl 0xe(%rdx,%rax,1),%eax
   16d0c:	25 ff 0f 00 00       	and    $0xfff,%eax
   16d11:	48 c1 e0 12          	shl    $0x12,%rax
   16d15:	48 09 c8             	or     %rcx,%rax
   16d18:	48 c1 e0 22          	shl    $0x22,%rax
   16d1c:	48 c1 f8 22          	sar    $0x22,%rax
   16d20:	48 98                	cltq   
   16d22:	8b 55 f4             	mov    -0xc(%rbp),%edx
   16d25:	48 8d 35 c6 42 00 00 	lea    0x42c6(%rip),%rsi        # 1aff2 <g_764+0x2f92>
   16d2c:	48 89 c7             	mov    %rax,%rdi
   16d2f:	e8 bf 09 ff ff       	callq  76f3 <transparent_crc>
   16d34:	8b 45 e8             	mov    -0x18(%rbp),%eax
   16d37:	48 63 d0             	movslq %eax,%rdx
   16d3a:	48 89 d0             	mov    %rdx,%rax
   16d3d:	48 c1 e0 02          	shl    $0x2,%rax
   16d41:	48 01 d0             	add    %rdx,%rax
   16d44:	48 01 c0             	add    %rax,%rax
   16d47:	48 01 d0             	add    %rdx,%rax
   16d4a:	48 01 c0             	add    %rax,%rax
   16d4d:	48 89 c2             	mov    %rax,%rdx
   16d50:	48 8d 05 89 8c 00 00 	lea    0x8c89(%rip),%rax        # 1f9e0 <g_1321>
   16d57:	0f b7 4c 02 0e       	movzwl 0xe(%rdx,%rax,1),%ecx
   16d5c:	66 c1 e9 0c          	shr    $0xc,%cx
   16d60:	0f b7 c9             	movzwl %cx,%ecx
   16d63:	0f b7 44 02 10       	movzwl 0x10(%rdx,%rax,1),%eax
   16d68:	0f b7 c0             	movzwl %ax,%eax
   16d6b:	25 ff 01 00 00       	and    $0x1ff,%eax
   16d70:	48 c1 e0 04          	shl    $0x4,%rax
   16d74:	48 09 c8             	or     %rcx,%rax
   16d77:	0f b7 c0             	movzwl %ax,%eax
   16d7a:	8b 55 f4             	mov    -0xc(%rbp),%edx
   16d7d:	48 8d 35 7b 42 00 00 	lea    0x427b(%rip),%rsi        # 1afff <g_764+0x2f9f>
   16d84:	48 89 c7             	mov    %rax,%rdi
   16d87:	e8 67 09 ff ff       	callq  76f3 <transparent_crc>
   16d8c:	8b 45 e8             	mov    -0x18(%rbp),%eax
   16d8f:	48 63 d0             	movslq %eax,%rdx
   16d92:	48 89 d0             	mov    %rdx,%rax
   16d95:	48 c1 e0 02          	shl    $0x2,%rax
   16d99:	48 01 d0             	add    %rdx,%rax
   16d9c:	48 01 c0             	add    %rax,%rax
   16d9f:	48 01 d0             	add    %rdx,%rax
   16da2:	48 01 c0             	add    %rax,%rax
   16da5:	48 89 c2             	mov    %rax,%rdx
   16da8:	48 8d 05 41 8c 00 00 	lea    0x8c41(%rip),%rax        # 1f9f0 <g_1321+0x10>
   16daf:	0f b6 44 02 01       	movzbl 0x1(%rdx,%rax,1),%eax
   16db4:	d0 e8                	shr    %al
   16db6:	0f b6 c0             	movzbl %al,%eax
   16db9:	8b 55 f4             	mov    -0xc(%rbp),%edx
   16dbc:	48 8d 35 49 42 00 00 	lea    0x4249(%rip),%rsi        # 1b00c <g_764+0x2fac>
   16dc3:	48 89 c7             	mov    %rax,%rdi
   16dc6:	e8 28 09 ff ff       	callq  76f3 <transparent_crc>
   16dcb:	8b 45 e8             	mov    -0x18(%rbp),%eax
   16dce:	48 63 d0             	movslq %eax,%rdx
   16dd1:	48 89 d0             	mov    %rdx,%rax
   16dd4:	48 c1 e0 02          	shl    $0x2,%rax
   16dd8:	48 01 d0             	add    %rdx,%rax
   16ddb:	48 01 c0             	add    %rax,%rax
   16dde:	48 01 d0             	add    %rdx,%rax
   16de1:	48 01 c0             	add    %rax,%rax
   16de4:	48 89 c2             	mov    %rax,%rdx
   16de7:	48 8d 05 02 8c 00 00 	lea    0x8c02(%rip),%rax        # 1f9f0 <g_1321+0x10>
   16dee:	0f b7 44 02 02       	movzwl 0x2(%rdx,%rax,1),%eax
   16df3:	c1 e0 02             	shl    $0x2,%eax
   16df6:	66 c1 f8 02          	sar    $0x2,%ax
   16dfa:	48 0f bf c0          	movswq %ax,%rax
   16dfe:	8b 55 f4             	mov    -0xc(%rbp),%edx
   16e01:	48 8d 35 11 42 00 00 	lea    0x4211(%rip),%rsi        # 1b019 <g_764+0x2fb9>
   16e08:	48 89 c7             	mov    %rax,%rdi
   16e0b:	e8 e3 08 ff ff       	callq  76f3 <transparent_crc>
   16e10:	8b 45 e8             	mov    -0x18(%rbp),%eax
   16e13:	48 63 d0             	movslq %eax,%rdx
   16e16:	48 89 d0             	mov    %rdx,%rax
   16e19:	48 c1 e0 02          	shl    $0x2,%rax
   16e1d:	48 01 d0             	add    %rdx,%rax
   16e20:	48 01 c0             	add    %rax,%rax
   16e23:	48 01 d0             	add    %rdx,%rax
   16e26:	48 01 c0             	add    %rax,%rax
   16e29:	48 89 c2             	mov    %rax,%rdx
   16e2c:	48 8d 05 bd 8b 00 00 	lea    0x8bbd(%rip),%rax        # 1f9f0 <g_1321+0x10>
   16e33:	0f b7 4c 02 02       	movzwl 0x2(%rdx,%rax,1),%ecx
   16e38:	66 c1 e9 0e          	shr    $0xe,%cx
   16e3c:	0f b7 c9             	movzwl %cx,%ecx
   16e3f:	0f b7 44 02 04       	movzwl 0x4(%rdx,%rax,1),%eax
   16e44:	0f b7 c0             	movzwl %ax,%eax
   16e47:	25 ff 3f 00 00       	and    $0x3fff,%eax
   16e4c:	48 c1 e0 02          	shl    $0x2,%rax
   16e50:	48 09 c8             	or     %rcx,%rax
   16e53:	48 c1 e0 30          	shl    $0x30,%rax
   16e57:	48 c1 f8 30          	sar    $0x30,%rax
   16e5b:	48 0f bf c0          	movswq %ax,%rax
   16e5f:	8b 55 f4             	mov    -0xc(%rbp),%edx
   16e62:	48 8d 35 bd 41 00 00 	lea    0x41bd(%rip),%rsi        # 1b026 <g_764+0x2fc6>
   16e69:	48 89 c7             	mov    %rax,%rdi
   16e6c:	e8 82 08 ff ff       	callq  76f3 <transparent_crc>
   16e71:	83 7d f4 00          	cmpl   $0x0,-0xc(%rbp)
   16e75:	74 16                	je     16e8d <main+0x5083>
   16e77:	8b 45 e8             	mov    -0x18(%rbp),%eax
   16e7a:	89 c6                	mov    %eax,%esi
   16e7c:	48 8d 3d 9e 30 00 00 	lea    0x309e(%rip),%rdi        # 19f21 <g_764+0x1ec1>
   16e83:	b8 00 00 00 00       	mov    $0x0,%eax
   16e88:	e8 f3 f1 fe ff       	callq  6080 <printf@plt>
   16e8d:	83 45 e8 01          	addl   $0x1,-0x18(%rbp)
   16e91:	83 7d e8 09          	cmpl   $0x9,-0x18(%rbp)
   16e95:	0f 8e 60 fd ff ff    	jle    16bfb <main+0x4df1>
   16e9b:	48 8b 05 1e 8c 00 00 	mov    0x8c1e(%rip),%rax        # 1fac0 <g_1322>
   16ea2:	8b 55 f4             	mov    -0xc(%rbp),%edx
   16ea5:	48 8d 35 87 41 00 00 	lea    0x4187(%rip),%rsi        # 1b033 <g_764+0x2fd3>
   16eac:	48 89 c7             	mov    %rax,%rdi
   16eaf:	e8 3f 08 ff ff       	callq  76f3 <transparent_crc>
   16eb4:	8b 05 0e 8c 00 00    	mov    0x8c0e(%rip),%eax        # 1fac8 <g_1322+0x8>
   16eba:	c1 e0 04             	shl    $0x4,%eax
   16ebd:	c1 f8 04             	sar    $0x4,%eax
   16ec0:	48 98                	cltq   
   16ec2:	8b 55 f4             	mov    -0xc(%rbp),%edx
   16ec5:	48 8d 35 71 41 00 00 	lea    0x4171(%rip),%rsi        # 1b03d <g_764+0x2fdd>
   16ecc:	48 89 c7             	mov    %rax,%rdi
   16ecf:	e8 1f 08 ff ff       	callq  76f3 <transparent_crc>
   16ed4:	0f b6 05 f0 8b 00 00 	movzbl 0x8bf0(%rip),%eax        # 1facb <g_1322+0xb>
   16edb:	c1 e0 02             	shl    $0x2,%eax
   16ede:	c0 f8 06             	sar    $0x6,%al
   16ee1:	48 0f be c0          	movsbq %al,%rax
   16ee5:	8b 55 f4             	mov    -0xc(%rbp),%edx
   16ee8:	48 8d 35 58 41 00 00 	lea    0x4158(%rip),%rsi        # 1b047 <g_764+0x2fe7>
   16eef:	48 89 c7             	mov    %rax,%rdi
   16ef2:	e8 fc 07 ff ff       	callq  76f3 <transparent_crc>
   16ef7:	48 8b 05 ca 8b 00 00 	mov    0x8bca(%rip),%rax        # 1fac8 <g_1322+0x8>
   16efe:	48 c1 e0 04          	shl    $0x4,%rax
   16f02:	48 c1 f8 22          	sar    $0x22,%rax
   16f06:	48 98                	cltq   
   16f08:	8b 55 f4             	mov    -0xc(%rbp),%edx
   16f0b:	48 8d 35 3f 41 00 00 	lea    0x413f(%rip),%rsi        # 1b051 <g_764+0x2ff1>
   16f12:	48 89 c7             	mov    %rax,%rdi
   16f15:	e8 d9 07 ff ff       	callq  76f3 <transparent_crc>
   16f1a:	48 8b 05 a7 8b 00 00 	mov    0x8ba7(%rip),%rax        # 1fac8 <g_1322+0x8>
   16f21:	48 c1 e8 3c          	shr    $0x3c,%rax
   16f25:	48 89 c2             	mov    %rax,%rdx
   16f28:	48 8b 05 a1 8b 00 00 	mov    0x8ba1(%rip),%rax        # 1fad0 <g_1322+0x10>
   16f2f:	25 ff 01 00 00       	and    $0x1ff,%eax
   16f34:	48 c1 e0 04          	shl    $0x4,%rax
   16f38:	48 09 d0             	or     %rdx,%rax
   16f3b:	0f b7 c0             	movzwl %ax,%eax
   16f3e:	8b 55 f4             	mov    -0xc(%rbp),%edx
   16f41:	48 8d 35 13 41 00 00 	lea    0x4113(%rip),%rsi        # 1b05b <g_764+0x2ffb>
   16f48:	48 89 c7             	mov    %rax,%rdi
   16f4b:	e8 a3 07 ff ff       	callq  76f3 <transparent_crc>
   16f50:	0f b6 05 7a 8b 00 00 	movzbl 0x8b7a(%rip),%eax        # 1fad1 <g_1322+0x11>
   16f57:	d0 e8                	shr    %al
   16f59:	0f b6 c0             	movzbl %al,%eax
   16f5c:	8b 55 f4             	mov    -0xc(%rbp),%edx
   16f5f:	48 8d 35 ff 40 00 00 	lea    0x40ff(%rip),%rsi        # 1b065 <g_764+0x3005>
   16f66:	48 89 c7             	mov    %rax,%rdi
   16f69:	e8 85 07 ff ff       	callq  76f3 <transparent_crc>
   16f6e:	48 8b 05 5b 8b 00 00 	mov    0x8b5b(%rip),%rax        # 1fad0 <g_1322+0x10>
   16f75:	c1 e0 02             	shl    $0x2,%eax
   16f78:	c1 f8 12             	sar    $0x12,%eax
   16f7b:	48 0f bf c0          	movswq %ax,%rax
   16f7f:	8b 55 f4             	mov    -0xc(%rbp),%edx
   16f82:	48 8d 35 e6 40 00 00 	lea    0x40e6(%rip),%rsi        # 1b06f <g_764+0x300f>
   16f89:	48 89 c7             	mov    %rax,%rdi
   16f8c:	e8 62 07 ff ff       	callq  76f3 <transparent_crc>
   16f91:	48 8b 05 38 8b 00 00 	mov    0x8b38(%rip),%rax        # 1fad0 <g_1322+0x10>
   16f98:	48 c1 e0 12          	shl    $0x12,%rax
   16f9c:	48 c1 f8 30          	sar    $0x30,%rax
   16fa0:	48 0f bf c0          	movswq %ax,%rax
   16fa4:	8b 55 f4             	mov    -0xc(%rbp),%edx
   16fa7:	48 8d 35 cb 40 00 00 	lea    0x40cb(%rip),%rsi        # 1b079 <g_764+0x3019>
   16fae:	48 89 c7             	mov    %rax,%rdi
   16fb1:	e8 3d 07 ff ff       	callq  76f3 <transparent_crc>
   16fb6:	48 8b 05 23 8b 00 00 	mov    0x8b23(%rip),%rax        # 1fae0 <g_1323>
   16fbd:	8b 55 f4             	mov    -0xc(%rbp),%edx
   16fc0:	48 8d 35 bc 40 00 00 	lea    0x40bc(%rip),%rsi        # 1b083 <g_764+0x3023>
   16fc7:	48 89 c7             	mov    %rax,%rdi
   16fca:	e8 24 07 ff ff       	callq  76f3 <transparent_crc>
   16fcf:	8b 05 13 8b 00 00    	mov    0x8b13(%rip),%eax        # 1fae8 <g_1323+0x8>
   16fd5:	c1 e0 04             	shl    $0x4,%eax
   16fd8:	c1 f8 04             	sar    $0x4,%eax
   16fdb:	48 98                	cltq   
   16fdd:	8b 55 f4             	mov    -0xc(%rbp),%edx
   16fe0:	48 8d 35 a6 40 00 00 	lea    0x40a6(%rip),%rsi        # 1b08d <g_764+0x302d>
   16fe7:	48 89 c7             	mov    %rax,%rdi
   16fea:	e8 04 07 ff ff       	callq  76f3 <transparent_crc>
   16fef:	0f b6 05 f5 8a 00 00 	movzbl 0x8af5(%rip),%eax        # 1faeb <g_1323+0xb>
   16ff6:	c1 e0 02             	shl    $0x2,%eax
   16ff9:	c0 f8 06             	sar    $0x6,%al
   16ffc:	48 0f be c0          	movsbq %al,%rax
   17000:	8b 55 f4             	mov    -0xc(%rbp),%edx
   17003:	48 8d 35 8d 40 00 00 	lea    0x408d(%rip),%rsi        # 1b097 <g_764+0x3037>
   1700a:	48 89 c7             	mov    %rax,%rdi
   1700d:	e8 e1 06 ff ff       	callq  76f3 <transparent_crc>
   17012:	48 8b 05 cf 8a 00 00 	mov    0x8acf(%rip),%rax        # 1fae8 <g_1323+0x8>
   17019:	48 c1 e0 04          	shl    $0x4,%rax
   1701d:	48 c1 f8 22          	sar    $0x22,%rax
   17021:	48 98                	cltq   
   17023:	8b 55 f4             	mov    -0xc(%rbp),%edx
   17026:	48 8d 35 74 40 00 00 	lea    0x4074(%rip),%rsi        # 1b0a1 <g_764+0x3041>
   1702d:	48 89 c7             	mov    %rax,%rdi
   17030:	e8 be 06 ff ff       	callq  76f3 <transparent_crc>
   17035:	48 8b 05 ac 8a 00 00 	mov    0x8aac(%rip),%rax        # 1fae8 <g_1323+0x8>
   1703c:	48 c1 e8 3c          	shr    $0x3c,%rax
   17040:	48 89 c2             	mov    %rax,%rdx
   17043:	48 8b 05 a6 8a 00 00 	mov    0x8aa6(%rip),%rax        # 1faf0 <g_1323+0x10>
   1704a:	25 ff 01 00 00       	and    $0x1ff,%eax
   1704f:	48 c1 e0 04          	shl    $0x4,%rax
   17053:	48 09 d0             	or     %rdx,%rax
   17056:	0f b7 c0             	movzwl %ax,%eax
   17059:	8b 55 f4             	mov    -0xc(%rbp),%edx
   1705c:	48 8d 35 48 40 00 00 	lea    0x4048(%rip),%rsi        # 1b0ab <g_764+0x304b>
   17063:	48 89 c7             	mov    %rax,%rdi
   17066:	e8 88 06 ff ff       	callq  76f3 <transparent_crc>
   1706b:	0f b6 05 7f 8a 00 00 	movzbl 0x8a7f(%rip),%eax        # 1faf1 <g_1323+0x11>
   17072:	d0 e8                	shr    %al
   17074:	0f b6 c0             	movzbl %al,%eax
   17077:	8b 55 f4             	mov    -0xc(%rbp),%edx
   1707a:	48 8d 35 34 40 00 00 	lea    0x4034(%rip),%rsi        # 1b0b5 <g_764+0x3055>
   17081:	48 89 c7             	mov    %rax,%rdi
   17084:	e8 6a 06 ff ff       	callq  76f3 <transparent_crc>
   17089:	48 8b 05 60 8a 00 00 	mov    0x8a60(%rip),%rax        # 1faf0 <g_1323+0x10>
   17090:	c1 e0 02             	shl    $0x2,%eax
   17093:	c1 f8 12             	sar    $0x12,%eax
   17096:	48 0f bf c0          	movswq %ax,%rax
   1709a:	8b 55 f4             	mov    -0xc(%rbp),%edx
   1709d:	48 8d 35 1b 40 00 00 	lea    0x401b(%rip),%rsi        # 1b0bf <g_764+0x305f>
   170a4:	48 89 c7             	mov    %rax,%rdi
   170a7:	e8 47 06 ff ff       	callq  76f3 <transparent_crc>
   170ac:	48 8b 05 3d 8a 00 00 	mov    0x8a3d(%rip),%rax        # 1faf0 <g_1323+0x10>
   170b3:	48 c1 e0 12          	shl    $0x12,%rax
   170b7:	48 c1 f8 30          	sar    $0x30,%rax
   170bb:	48 0f bf c0          	movswq %ax,%rax
   170bf:	8b 55 f4             	mov    -0xc(%rbp),%edx
   170c2:	48 8d 35 00 40 00 00 	lea    0x4000(%rip),%rsi        # 1b0c9 <g_764+0x3069>
   170c9:	48 89 c7             	mov    %rax,%rdi
   170cc:	e8 22 06 ff ff       	callq  76f3 <transparent_crc>
   170d1:	c7 45 e8 00 00 00 00 	movl   $0x0,-0x18(%rbp)
   170d8:	eb 75                	jmp    1714f <main+0x5345>
   170da:	c7 45 ec 00 00 00 00 	movl   $0x0,-0x14(%rbp)
   170e1:	eb 62                	jmp    17145 <main+0x533b>
   170e3:	8b 45 ec             	mov    -0x14(%rbp),%eax
   170e6:	48 63 c8             	movslq %eax,%rcx
   170e9:	8b 45 e8             	mov    -0x18(%rbp),%eax
   170ec:	48 63 d0             	movslq %eax,%rdx
   170ef:	48 89 d0             	mov    %rdx,%rax
   170f2:	48 c1 e0 03          	shl    $0x3,%rax
   170f6:	48 29 d0             	sub    %rdx,%rax
   170f9:	48 01 c8             	add    %rcx,%rax
   170fc:	48 8d 14 85 00 00 00 	lea    0x0(,%rax,4),%rdx
   17103:	00 
   17104:	48 8d 05 f5 89 00 00 	lea    0x89f5(%rip),%rax        # 1fb00 <g_1349>
   1710b:	8b 04 02             	mov    (%rdx,%rax,1),%eax
   1710e:	48 98                	cltq   
   17110:	8b 55 f4             	mov    -0xc(%rbp),%edx
   17113:	48 8d 35 b9 3f 00 00 	lea    0x3fb9(%rip),%rsi        # 1b0d3 <g_764+0x3073>
   1711a:	48 89 c7             	mov    %rax,%rdi
   1711d:	e8 d1 05 ff ff       	callq  76f3 <transparent_crc>
   17122:	83 7d f4 00          	cmpl   $0x0,-0xc(%rbp)
   17126:	74 19                	je     17141 <main+0x5337>
   17128:	8b 55 ec             	mov    -0x14(%rbp),%edx
   1712b:	8b 45 e8             	mov    -0x18(%rbp),%eax
   1712e:	89 c6                	mov    %eax,%esi
   17130:	48 8d 3d af 2e 00 00 	lea    0x2eaf(%rip),%rdi        # 19fe6 <g_764+0x1f86>
   17137:	b8 00 00 00 00       	mov    $0x0,%eax
   1713c:	e8 3f ef fe ff       	callq  6080 <printf@plt>
   17141:	83 45 ec 01          	addl   $0x1,-0x14(%rbp)
   17145:	83 7d ec 06          	cmpl   $0x6,-0x14(%rbp)
   17149:	7e 98                	jle    170e3 <main+0x52d9>
   1714b:	83 45 e8 01          	addl   $0x1,-0x18(%rbp)
   1714f:	83 7d e8 00          	cmpl   $0x0,-0x18(%rbp)
   17153:	7e 85                	jle    170da <main+0x52d0>
   17155:	c7 45 e8 00 00 00 00 	movl   $0x0,-0x18(%rbp)
   1715c:	e9 a5 02 00 00       	jmpq   17406 <main+0x55fc>
   17161:	8b 45 e8             	mov    -0x18(%rbp),%eax
   17164:	48 63 d0             	movslq %eax,%rdx
   17167:	48 89 d0             	mov    %rdx,%rax
   1716a:	48 c1 e0 02          	shl    $0x2,%rax
   1716e:	48 01 d0             	add    %rdx,%rax
   17171:	48 01 c0             	add    %rax,%rax
   17174:	48 01 d0             	add    %rdx,%rax
   17177:	48 01 c0             	add    %rax,%rax
   1717a:	48 89 c2             	mov    %rax,%rdx
   1717d:	48 8d 05 9c 89 00 00 	lea    0x899c(%rip),%rax        # 1fb20 <g_1390>
   17184:	48 8b 04 02          	mov    (%rdx,%rax,1),%rax
   17188:	8b 55 f4             	mov    -0xc(%rbp),%edx
   1718b:	48 8d 35 4e 3f 00 00 	lea    0x3f4e(%rip),%rsi        # 1b0e0 <g_764+0x3080>
   17192:	48 89 c7             	mov    %rax,%rdi
   17195:	e8 59 05 ff ff       	callq  76f3 <transparent_crc>
   1719a:	8b 45 e8             	mov    -0x18(%rbp),%eax
   1719d:	48 63 d0             	movslq %eax,%rdx
   171a0:	48 89 d0             	mov    %rdx,%rax
   171a3:	48 c1 e0 02          	shl    $0x2,%rax
   171a7:	48 01 d0             	add    %rdx,%rax
   171aa:	48 01 c0             	add    %rax,%rax
   171ad:	48 01 d0             	add    %rdx,%rax
   171b0:	48 01 c0             	add    %rax,%rax
   171b3:	48 89 c2             	mov    %rax,%rdx
   171b6:	48 8d 05 63 89 00 00 	lea    0x8963(%rip),%rax        # 1fb20 <g_1390>
   171bd:	0f b7 4c 02 08       	movzwl 0x8(%rdx,%rax,1),%ecx
   171c2:	0f b7 c9             	movzwl %cx,%ecx
   171c5:	0f b7 44 02 0a       	movzwl 0xa(%rdx,%rax,1),%eax
   171ca:	0f b7 c0             	movzwl %ax,%eax
   171cd:	25 ff 0f 00 00       	and    $0xfff,%eax
   171d2:	48 c1 e0 10          	shl    $0x10,%rax
   171d6:	48 09 c8             	or     %rcx,%rax
   171d9:	48 c1 e0 24          	shl    $0x24,%rax
   171dd:	48 c1 f8 24          	sar    $0x24,%rax
   171e1:	48 98                	cltq   
   171e3:	8b 55 f4             	mov    -0xc(%rbp),%edx
   171e6:	48 8d 35 00 3f 00 00 	lea    0x3f00(%rip),%rsi        # 1b0ed <g_764+0x308d>
   171ed:	48 89 c7             	mov    %rax,%rdi
   171f0:	e8 fe 04 ff ff       	callq  76f3 <transparent_crc>
   171f5:	8b 45 e8             	mov    -0x18(%rbp),%eax
   171f8:	48 63 d0             	movslq %eax,%rdx
   171fb:	48 89 d0             	mov    %rdx,%rax
   171fe:	48 c1 e0 02          	shl    $0x2,%rax
   17202:	48 01 d0             	add    %rdx,%rax
   17205:	48 01 c0             	add    %rax,%rax
   17208:	48 01 d0             	add    %rdx,%rax
   1720b:	48 01 c0             	add    %rax,%rax
   1720e:	48 89 c2             	mov    %rax,%rdx
   17211:	48 8d 05 08 89 00 00 	lea    0x8908(%rip),%rax        # 1fb20 <g_1390>
   17218:	0f b7 44 02 0a       	movzwl 0xa(%rdx,%rax,1),%eax
   1721d:	c1 e0 02             	shl    $0x2,%eax
   17220:	66 c1 f8 0e          	sar    $0xe,%ax
   17224:	48 0f be c0          	movsbq %al,%rax
   17228:	8b 55 f4             	mov    -0xc(%rbp),%edx
   1722b:	48 8d 35 c8 3e 00 00 	lea    0x3ec8(%rip),%rsi        # 1b0fa <g_764+0x309a>
   17232:	48 89 c7             	mov    %rax,%rdi
   17235:	e8 b9 04 ff ff       	callq  76f3 <transparent_crc>
   1723a:	8b 45 e8             	mov    -0x18(%rbp),%eax
   1723d:	48 63 d0             	movslq %eax,%rdx
   17240:	48 89 d0             	mov    %rdx,%rax
   17243:	48 c1 e0 02          	shl    $0x2,%rax
   17247:	48 01 d0             	add    %rdx,%rax
   1724a:	48 01 c0             	add    %rax,%rax
   1724d:	48 01 d0             	add    %rdx,%rax
   17250:	48 01 c0             	add    %rax,%rax
   17253:	48 89 c2             	mov    %rax,%rdx
   17256:	48 8d 05 c3 88 00 00 	lea    0x88c3(%rip),%rax        # 1fb20 <g_1390>
   1725d:	0f b7 4c 02 0a       	movzwl 0xa(%rdx,%rax,1),%ecx
   17262:	66 c1 e9 0e          	shr    $0xe,%cx
   17266:	0f b7 c9             	movzwl %cx,%ecx
   17269:	0f b7 74 02 0c       	movzwl 0xc(%rdx,%rax,1),%esi
   1726e:	0f b7 f6             	movzwl %si,%esi
   17271:	48 c1 e6 02          	shl    $0x2,%rsi
   17275:	48 09 f1             	or     %rsi,%rcx
   17278:	0f b7 44 02 0e       	movzwl 0xe(%rdx,%rax,1),%eax
   1727d:	0f b7 c0             	movzwl %ax,%eax
   17280:	25 ff 0f 00 00       	and    $0xfff,%eax
   17285:	48 c1 e0 12          	shl    $0x12,%rax
   17289:	48 09 c8             	or     %rcx,%rax
   1728c:	48 c1 e0 22          	shl    $0x22,%rax
   17290:	48 c1 f8 22          	sar    $0x22,%rax
   17294:	48 98                	cltq   
   17296:	8b 55 f4             	mov    -0xc(%rbp),%edx
   17299:	48 8d 35 67 3e 00 00 	lea    0x3e67(%rip),%rsi        # 1b107 <g_764+0x30a7>
   172a0:	48 89 c7             	mov    %rax,%rdi
   172a3:	e8 4b 04 ff ff       	callq  76f3 <transparent_crc>
   172a8:	8b 45 e8             	mov    -0x18(%rbp),%eax
   172ab:	48 63 d0             	movslq %eax,%rdx
   172ae:	48 89 d0             	mov    %rdx,%rax
   172b1:	48 c1 e0 02          	shl    $0x2,%rax
   172b5:	48 01 d0             	add    %rdx,%rax
   172b8:	48 01 c0             	add    %rax,%rax
   172bb:	48 01 d0             	add    %rdx,%rax
   172be:	48 01 c0             	add    %rax,%rax
   172c1:	48 89 c2             	mov    %rax,%rdx
   172c4:	48 8d 05 55 88 00 00 	lea    0x8855(%rip),%rax        # 1fb20 <g_1390>
   172cb:	0f b7 4c 02 0e       	movzwl 0xe(%rdx,%rax,1),%ecx
   172d0:	66 c1 e9 0c          	shr    $0xc,%cx
   172d4:	0f b7 c9             	movzwl %cx,%ecx
   172d7:	0f b7 44 02 10       	movzwl 0x10(%rdx,%rax,1),%eax
   172dc:	0f b7 c0             	movzwl %ax,%eax
   172df:	25 ff 01 00 00       	and    $0x1ff,%eax
   172e4:	48 c1 e0 04          	shl    $0x4,%rax
   172e8:	48 09 c8             	or     %rcx,%rax
   172eb:	0f b7 c0             	movzwl %ax,%eax
   172ee:	8b 55 f4             	mov    -0xc(%rbp),%edx
   172f1:	48 8d 35 1c 3e 00 00 	lea    0x3e1c(%rip),%rsi        # 1b114 <g_764+0x30b4>
   172f8:	48 89 c7             	mov    %rax,%rdi
   172fb:	e8 f3 03 ff ff       	callq  76f3 <transparent_crc>
   17300:	8b 45 e8             	mov    -0x18(%rbp),%eax
   17303:	48 63 d0             	movslq %eax,%rdx
   17306:	48 89 d0             	mov    %rdx,%rax
   17309:	48 c1 e0 02          	shl    $0x2,%rax
   1730d:	48 01 d0             	add    %rdx,%rax
   17310:	48 01 c0             	add    %rax,%rax
   17313:	48 01 d0             	add    %rdx,%rax
   17316:	48 01 c0             	add    %rax,%rax
   17319:	48 89 c2             	mov    %rax,%rdx
   1731c:	48 8d 05 0d 88 00 00 	lea    0x880d(%rip),%rax        # 1fb30 <g_1390+0x10>
   17323:	0f b7 04 02          	movzwl (%rdx,%rax,1),%eax
   17327:	66 c1 e8 09          	shr    $0x9,%ax
   1732b:	0f b6 c0             	movzbl %al,%eax
   1732e:	8b 55 f4             	mov    -0xc(%rbp),%edx
   17331:	48 8d 35 e9 3d 00 00 	lea    0x3de9(%rip),%rsi        # 1b121 <g_764+0x30c1>
   17338:	48 89 c7             	mov    %rax,%rdi
   1733b:	e8 b3 03 ff ff       	callq  76f3 <transparent_crc>
   17340:	8b 45 e8             	mov    -0x18(%rbp),%eax
   17343:	48 63 d0             	movslq %eax,%rdx
   17346:	48 89 d0             	mov    %rdx,%rax
   17349:	48 c1 e0 02          	shl    $0x2,%rax
   1734d:	48 01 d0             	add    %rdx,%rax
   17350:	48 01 c0             	add    %rax,%rax
   17353:	48 01 d0             	add    %rdx,%rax
   17356:	48 01 c0             	add    %rax,%rax
   17359:	48 89 c2             	mov    %rax,%rdx
   1735c:	48 8d 05 cd 87 00 00 	lea    0x87cd(%rip),%rax        # 1fb30 <g_1390+0x10>
   17363:	0f b7 44 02 02       	movzwl 0x2(%rdx,%rax,1),%eax
   17368:	c1 e0 02             	shl    $0x2,%eax
   1736b:	66 c1 f8 02          	sar    $0x2,%ax
   1736f:	48 0f bf c0          	movswq %ax,%rax
   17373:	8b 55 f4             	mov    -0xc(%rbp),%edx
   17376:	48 8d 35 b1 3d 00 00 	lea    0x3db1(%rip),%rsi        # 1b12e <g_764+0x30ce>
   1737d:	48 89 c7             	mov    %rax,%rdi
   17380:	e8 6e 03 ff ff       	callq  76f3 <transparent_crc>
   17385:	8b 45 e8             	mov    -0x18(%rbp),%eax
   17388:	48 63 d0             	movslq %eax,%rdx
   1738b:	48 89 d0             	mov    %rdx,%rax
   1738e:	48 c1 e0 02          	shl    $0x2,%rax
   17392:	48 01 d0             	add    %rdx,%rax
   17395:	48 01 c0             	add    %rax,%rax
   17398:	48 01 d0             	add    %rdx,%rax
   1739b:	48 01 c0             	add    %rax,%rax
   1739e:	48 89 c2             	mov    %rax,%rdx
   173a1:	48 8d 05 88 87 00 00 	lea    0x8788(%rip),%rax        # 1fb30 <g_1390+0x10>
   173a8:	0f b7 4c 02 02       	movzwl 0x2(%rdx,%rax,1),%ecx
   173ad:	66 c1 e9 0e          	shr    $0xe,%cx
   173b1:	0f b7 c9             	movzwl %cx,%ecx
   173b4:	0f b7 44 02 04       	movzwl 0x4(%rdx,%rax,1),%eax
   173b9:	0f b7 c0             	movzwl %ax,%eax
   173bc:	25 ff 3f 00 00       	and    $0x3fff,%eax
   173c1:	48 c1 e0 02          	shl    $0x2,%rax
   173c5:	48 09 c8             	or     %rcx,%rax
   173c8:	48 c1 e0 30          	shl    $0x30,%rax
   173cc:	48 c1 f8 30          	sar    $0x30,%rax
   173d0:	48 0f bf c0          	movswq %ax,%rax
   173d4:	8b 55 f4             	mov    -0xc(%rbp),%edx
   173d7:	48 8d 35 5d 3d 00 00 	lea    0x3d5d(%rip),%rsi        # 1b13b <g_764+0x30db>
   173de:	48 89 c7             	mov    %rax,%rdi
   173e1:	e8 0d 03 ff ff       	callq  76f3 <transparent_crc>
   173e6:	83 7d f4 00          	cmpl   $0x0,-0xc(%rbp)
   173ea:	74 16                	je     17402 <main+0x55f8>
   173ec:	8b 45 e8             	mov    -0x18(%rbp),%eax
   173ef:	89 c6                	mov    %eax,%esi
   173f1:	48 8d 3d 29 2b 00 00 	lea    0x2b29(%rip),%rdi        # 19f21 <g_764+0x1ec1>
   173f8:	b8 00 00 00 00       	mov    $0x0,%eax
   173fd:	e8 7e ec fe ff       	callq  6080 <printf@plt>
   17402:	83 45 e8 01          	addl   $0x1,-0x18(%rbp)
   17406:	83 7d e8 00          	cmpl   $0x0,-0x18(%rbp)
   1740a:	0f 8e 51 fd ff ff    	jle    17161 <main+0x5357>
   17410:	0f b6 05 a9 b2 00 00 	movzbl 0xb2a9(%rip),%eax        # 226c0 <g_1427>
   17417:	0f b6 c0             	movzbl %al,%eax
   1741a:	8b 55 f4             	mov    -0xc(%rbp),%edx
   1741d:	48 8d 35 24 3d 00 00 	lea    0x3d24(%rip),%rsi        # 1b148 <g_764+0x30e8>
   17424:	48 89 c7             	mov    %rax,%rdi
   17427:	e8 c7 02 ff ff       	callq  76f3 <transparent_crc>
   1742c:	48 8b 05 0d 87 00 00 	mov    0x870d(%rip),%rax        # 1fb40 <g_1480>
   17433:	8b 55 f4             	mov    -0xc(%rbp),%edx
   17436:	48 8d 35 12 3d 00 00 	lea    0x3d12(%rip),%rsi        # 1b14f <g_764+0x30ef>
   1743d:	48 89 c7             	mov    %rax,%rdi
   17440:	e8 ae 02 ff ff       	callq  76f3 <transparent_crc>
   17445:	8b 05 fd 86 00 00    	mov    0x86fd(%rip),%eax        # 1fb48 <g_1480+0x8>
   1744b:	c1 e0 04             	shl    $0x4,%eax
   1744e:	c1 f8 04             	sar    $0x4,%eax
   17451:	48 98                	cltq   
   17453:	8b 55 f4             	mov    -0xc(%rbp),%edx
   17456:	48 8d 35 fc 3c 00 00 	lea    0x3cfc(%rip),%rsi        # 1b159 <g_764+0x30f9>
   1745d:	48 89 c7             	mov    %rax,%rdi
   17460:	e8 8e 02 ff ff       	callq  76f3 <transparent_crc>
   17465:	0f b6 05 df 86 00 00 	movzbl 0x86df(%rip),%eax        # 1fb4b <g_1480+0xb>
   1746c:	c1 e0 02             	shl    $0x2,%eax
   1746f:	c0 f8 06             	sar    $0x6,%al
   17472:	48 0f be c0          	movsbq %al,%rax
   17476:	8b 55 f4             	mov    -0xc(%rbp),%edx
   17479:	48 8d 35 e3 3c 00 00 	lea    0x3ce3(%rip),%rsi        # 1b163 <g_764+0x3103>
   17480:	48 89 c7             	mov    %rax,%rdi
   17483:	e8 6b 02 ff ff       	callq  76f3 <transparent_crc>
   17488:	48 8b 05 b9 86 00 00 	mov    0x86b9(%rip),%rax        # 1fb48 <g_1480+0x8>
   1748f:	48 c1 e0 04          	shl    $0x4,%rax
   17493:	48 c1 f8 22          	sar    $0x22,%rax
   17497:	48 98                	cltq   
   17499:	8b 55 f4             	mov    -0xc(%rbp),%edx
   1749c:	48 8d 35 ca 3c 00 00 	lea    0x3cca(%rip),%rsi        # 1b16d <g_764+0x310d>
   174a3:	48 89 c7             	mov    %rax,%rdi
   174a6:	e8 48 02 ff ff       	callq  76f3 <transparent_crc>
   174ab:	48 8b 05 96 86 00 00 	mov    0x8696(%rip),%rax        # 1fb48 <g_1480+0x8>
   174b2:	48 c1 e8 3c          	shr    $0x3c,%rax
   174b6:	48 89 c2             	mov    %rax,%rdx
   174b9:	48 8b 05 90 86 00 00 	mov    0x8690(%rip),%rax        # 1fb50 <g_1480+0x10>
   174c0:	25 ff 01 00 00       	and    $0x1ff,%eax
   174c5:	48 c1 e0 04          	shl    $0x4,%rax
   174c9:	48 09 d0             	or     %rdx,%rax
   174cc:	0f b7 c0             	movzwl %ax,%eax
   174cf:	8b 55 f4             	mov    -0xc(%rbp),%edx
   174d2:	48 8d 35 9e 3c 00 00 	lea    0x3c9e(%rip),%rsi        # 1b177 <g_764+0x3117>
   174d9:	48 89 c7             	mov    %rax,%rdi
   174dc:	e8 12 02 ff ff       	callq  76f3 <transparent_crc>
   174e1:	0f b6 05 69 86 00 00 	movzbl 0x8669(%rip),%eax        # 1fb51 <g_1480+0x11>
   174e8:	d0 e8                	shr    %al
   174ea:	0f b6 c0             	movzbl %al,%eax
   174ed:	8b 55 f4             	mov    -0xc(%rbp),%edx
   174f0:	48 8d 35 8a 3c 00 00 	lea    0x3c8a(%rip),%rsi        # 1b181 <g_764+0x3121>
   174f7:	48 89 c7             	mov    %rax,%rdi
   174fa:	e8 f4 01 ff ff       	callq  76f3 <transparent_crc>
   174ff:	48 8b 05 4a 86 00 00 	mov    0x864a(%rip),%rax        # 1fb50 <g_1480+0x10>
   17506:	c1 e0 02             	shl    $0x2,%eax
   17509:	c1 f8 12             	sar    $0x12,%eax
   1750c:	48 0f bf c0          	movswq %ax,%rax
   17510:	8b 55 f4             	mov    -0xc(%rbp),%edx
   17513:	48 8d 35 71 3c 00 00 	lea    0x3c71(%rip),%rsi        # 1b18b <g_764+0x312b>
   1751a:	48 89 c7             	mov    %rax,%rdi
   1751d:	e8 d1 01 ff ff       	callq  76f3 <transparent_crc>
   17522:	48 8b 05 27 86 00 00 	mov    0x8627(%rip),%rax        # 1fb50 <g_1480+0x10>
   17529:	48 c1 e0 12          	shl    $0x12,%rax
   1752d:	48 c1 f8 30          	sar    $0x30,%rax
   17531:	48 0f bf c0          	movswq %ax,%rax
   17535:	8b 55 f4             	mov    -0xc(%rbp),%edx
   17538:	48 8d 35 56 3c 00 00 	lea    0x3c56(%rip),%rsi        # 1b195 <g_764+0x3135>
   1753f:	48 89 c7             	mov    %rax,%rdi
   17542:	e8 ac 01 ff ff       	callq  76f3 <transparent_crc>
   17547:	48 8b 05 12 86 00 00 	mov    0x8612(%rip),%rax        # 1fb60 <g_1567>
   1754e:	8b 55 f4             	mov    -0xc(%rbp),%edx
   17551:	48 8d 35 47 3c 00 00 	lea    0x3c47(%rip),%rsi        # 1b19f <g_764+0x313f>
   17558:	48 89 c7             	mov    %rax,%rdi
   1755b:	e8 93 01 ff ff       	callq  76f3 <transparent_crc>
   17560:	8b 05 02 86 00 00    	mov    0x8602(%rip),%eax        # 1fb68 <g_1567+0x8>
   17566:	c1 e0 04             	shl    $0x4,%eax
   17569:	c1 f8 04             	sar    $0x4,%eax
   1756c:	48 98                	cltq   
   1756e:	8b 55 f4             	mov    -0xc(%rbp),%edx
   17571:	48 8d 35 31 3c 00 00 	lea    0x3c31(%rip),%rsi        # 1b1a9 <g_764+0x3149>
   17578:	48 89 c7             	mov    %rax,%rdi
   1757b:	e8 73 01 ff ff       	callq  76f3 <transparent_crc>
   17580:	0f b6 05 e4 85 00 00 	movzbl 0x85e4(%rip),%eax        # 1fb6b <g_1567+0xb>
   17587:	c1 e0 02             	shl    $0x2,%eax
   1758a:	c0 f8 06             	sar    $0x6,%al
   1758d:	48 0f be c0          	movsbq %al,%rax
   17591:	8b 55 f4             	mov    -0xc(%rbp),%edx
   17594:	48 8d 35 18 3c 00 00 	lea    0x3c18(%rip),%rsi        # 1b1b3 <g_764+0x3153>
   1759b:	48 89 c7             	mov    %rax,%rdi
   1759e:	e8 50 01 ff ff       	callq  76f3 <transparent_crc>
   175a3:	48 8b 05 be 85 00 00 	mov    0x85be(%rip),%rax        # 1fb68 <g_1567+0x8>
   175aa:	48 c1 e0 04          	shl    $0x4,%rax
   175ae:	48 c1 f8 22          	sar    $0x22,%rax
   175b2:	48 98                	cltq   
   175b4:	8b 55 f4             	mov    -0xc(%rbp),%edx
   175b7:	48 8d 35 ff 3b 00 00 	lea    0x3bff(%rip),%rsi        # 1b1bd <g_764+0x315d>
   175be:	48 89 c7             	mov    %rax,%rdi
   175c1:	e8 2d 01 ff ff       	callq  76f3 <transparent_crc>
   175c6:	48 8b 05 9b 85 00 00 	mov    0x859b(%rip),%rax        # 1fb68 <g_1567+0x8>
   175cd:	48 c1 e8 3c          	shr    $0x3c,%rax
   175d1:	48 89 c2             	mov    %rax,%rdx
   175d4:	48 8b 05 95 85 00 00 	mov    0x8595(%rip),%rax        # 1fb70 <g_1567+0x10>
   175db:	25 ff 01 00 00       	and    $0x1ff,%eax
   175e0:	48 c1 e0 04          	shl    $0x4,%rax
   175e4:	48 09 d0             	or     %rdx,%rax
   175e7:	0f b7 c0             	movzwl %ax,%eax
   175ea:	8b 55 f4             	mov    -0xc(%rbp),%edx
   175ed:	48 8d 35 d3 3b 00 00 	lea    0x3bd3(%rip),%rsi        # 1b1c7 <g_764+0x3167>
   175f4:	48 89 c7             	mov    %rax,%rdi
   175f7:	e8 f7 00 ff ff       	callq  76f3 <transparent_crc>
   175fc:	0f b6 05 6e 85 00 00 	movzbl 0x856e(%rip),%eax        # 1fb71 <g_1567+0x11>
   17603:	d0 e8                	shr    %al
   17605:	0f b6 c0             	movzbl %al,%eax
   17608:	8b 55 f4             	mov    -0xc(%rbp),%edx
   1760b:	48 8d 35 bf 3b 00 00 	lea    0x3bbf(%rip),%rsi        # 1b1d1 <g_764+0x3171>
   17612:	48 89 c7             	mov    %rax,%rdi
   17615:	e8 d9 00 ff ff       	callq  76f3 <transparent_crc>
   1761a:	48 8b 05 4f 85 00 00 	mov    0x854f(%rip),%rax        # 1fb70 <g_1567+0x10>
   17621:	c1 e0 02             	shl    $0x2,%eax
   17624:	c1 f8 12             	sar    $0x12,%eax
   17627:	48 0f bf c0          	movswq %ax,%rax
   1762b:	8b 55 f4             	mov    -0xc(%rbp),%edx
   1762e:	48 8d 35 a6 3b 00 00 	lea    0x3ba6(%rip),%rsi        # 1b1db <g_764+0x317b>
   17635:	48 89 c7             	mov    %rax,%rdi
   17638:	e8 b6 00 ff ff       	callq  76f3 <transparent_crc>
   1763d:	48 8b 05 2c 85 00 00 	mov    0x852c(%rip),%rax        # 1fb70 <g_1567+0x10>
   17644:	48 c1 e0 12          	shl    $0x12,%rax
   17648:	48 c1 f8 30          	sar    $0x30,%rax
   1764c:	48 0f bf c0          	movswq %ax,%rax
   17650:	8b 55 f4             	mov    -0xc(%rbp),%edx
   17653:	48 8d 35 8b 3b 00 00 	lea    0x3b8b(%rip),%rsi        # 1b1e5 <g_764+0x3185>
   1765a:	48 89 c7             	mov    %rax,%rdi
   1765d:	e8 91 00 ff ff       	callq  76f3 <transparent_crc>
   17662:	8b 05 68 b0 00 00    	mov    0xb068(%rip),%eax        # 226d0 <g_1594>
   17668:	89 c1                	mov    %eax,%ecx
   1766a:	8b 45 f4             	mov    -0xc(%rbp),%eax
   1766d:	89 c2                	mov    %eax,%edx
   1766f:	48 8d 35 79 3b 00 00 	lea    0x3b79(%rip),%rsi        # 1b1ef <g_764+0x318f>
   17676:	48 89 cf             	mov    %rcx,%rdi
   17679:	e8 75 00 ff ff       	callq  76f3 <transparent_crc>
   1767e:	8b 05 f4 84 00 00    	mov    0x84f4(%rip),%eax        # 1fb78 <g_1636>
   17684:	48 98                	cltq   
   17686:	8b 55 f4             	mov    -0xc(%rbp),%edx
   17689:	48 8d 35 66 3b 00 00 	lea    0x3b66(%rip),%rsi        # 1b1f6 <g_764+0x3196>
   17690:	48 89 c7             	mov    %rax,%rdi
   17693:	e8 5b 00 ff ff       	callq  76f3 <transparent_crc>
   17698:	0f b7 05 dd 84 00 00 	movzwl 0x84dd(%rip),%eax        # 1fb7c <g_1641>
   1769f:	48 0f bf c0          	movswq %ax,%rax
   176a3:	8b 55 f4             	mov    -0xc(%rbp),%edx
   176a6:	48 8d 35 50 3b 00 00 	lea    0x3b50(%rip),%rsi        # 1b1fd <g_764+0x319d>
   176ad:	48 89 c7             	mov    %rax,%rdi
   176b0:	e8 3e 00 ff ff       	callq  76f3 <transparent_crc>
   176b5:	0f b6 05 c2 84 00 00 	movzbl 0x84c2(%rip),%eax        # 1fb7e <g_1659>
   176bc:	48 0f be c0          	movsbq %al,%rax
   176c0:	8b 55 f4             	mov    -0xc(%rbp),%edx
   176c3:	48 8d 35 3a 3b 00 00 	lea    0x3b3a(%rip),%rsi        # 1b204 <g_764+0x31a4>
   176ca:	48 89 c7             	mov    %rax,%rdi
   176cd:	e8 21 00 ff ff       	callq  76f3 <transparent_crc>
   176d2:	8b 05 a8 84 00 00    	mov    0x84a8(%rip),%eax        # 1fb80 <g_1715>
   176d8:	89 c1                	mov    %eax,%ecx
   176da:	8b 45 f4             	mov    -0xc(%rbp),%eax
   176dd:	89 c2                	mov    %eax,%edx
   176df:	48 8d 35 25 3b 00 00 	lea    0x3b25(%rip),%rsi        # 1b20b <g_764+0x31ab>
   176e6:	48 89 cf             	mov    %rcx,%rdi
   176e9:	e8 05 00 ff ff       	callq  76f3 <transparent_crc>
   176ee:	0f b7 05 8f 84 00 00 	movzwl 0x848f(%rip),%eax        # 1fb84 <g_1716>
   176f5:	0f b7 c0             	movzwl %ax,%eax
   176f8:	8b 55 f4             	mov    -0xc(%rbp),%edx
   176fb:	48 8d 35 10 3b 00 00 	lea    0x3b10(%rip),%rsi        # 1b212 <g_764+0x31b2>
   17702:	48 89 c7             	mov    %rax,%rdi
   17705:	e8 e9 ff fe ff       	callq  76f3 <transparent_crc>
   1770a:	8b 05 80 84 00 00    	mov    0x8480(%rip),%eax        # 1fb90 <g_1837>
   17710:	89 c1                	mov    %eax,%ecx
   17712:	8b 45 f4             	mov    -0xc(%rbp),%eax
   17715:	89 c2                	mov    %eax,%edx
   17717:	48 8d 35 fb 3a 00 00 	lea    0x3afb(%rip),%rsi        # 1b219 <g_764+0x31b9>
   1771e:	48 89 cf             	mov    %rcx,%rdi
   17721:	e8 cd ff fe ff       	callq  76f3 <transparent_crc>
   17726:	48 8b 05 73 84 00 00 	mov    0x8473(%rip),%rax        # 1fba0 <g_1841>
   1772d:	8b 55 f4             	mov    -0xc(%rbp),%edx
   17730:	48 8d 35 e9 3a 00 00 	lea    0x3ae9(%rip),%rsi        # 1b220 <g_764+0x31c0>
   17737:	48 89 c7             	mov    %rax,%rdi
   1773a:	e8 b4 ff fe ff       	callq  76f3 <transparent_crc>
   1773f:	48 8b 05 62 84 00 00 	mov    0x8462(%rip),%rax        # 1fba8 <g_1841+0x8>
   17746:	c1 e0 04             	shl    $0x4,%eax
   17749:	c1 f8 04             	sar    $0x4,%eax
   1774c:	48 98                	cltq   
   1774e:	8b 55 f4             	mov    -0xc(%rbp),%edx
   17751:	48 8d 35 d2 3a 00 00 	lea    0x3ad2(%rip),%rsi        # 1b22a <g_764+0x31ca>
   17758:	48 89 c7             	mov    %rax,%rdi
   1775b:	e8 93 ff fe ff       	callq  76f3 <transparent_crc>
   17760:	48 8b 05 41 84 00 00 	mov    0x8441(%rip),%rax        # 1fba8 <g_1841+0x8>
   17767:	c1 e0 02             	shl    $0x2,%eax
   1776a:	c1 f8 1e             	sar    $0x1e,%eax
   1776d:	48 0f be c0          	movsbq %al,%rax
   17771:	8b 55 f4             	mov    -0xc(%rbp),%edx
   17774:	48 8d 35 b9 3a 00 00 	lea    0x3ab9(%rip),%rsi        # 1b234 <g_764+0x31d4>
   1777b:	48 89 c7             	mov    %rax,%rdi
   1777e:	e8 70 ff fe ff       	callq  76f3 <transparent_crc>
   17783:	48 8b 05 1e 84 00 00 	mov    0x841e(%rip),%rax        # 1fba8 <g_1841+0x8>
   1778a:	48 c1 e0 04          	shl    $0x4,%rax
   1778e:	48 c1 f8 22          	sar    $0x22,%rax
   17792:	48 98                	cltq   
   17794:	8b 55 f4             	mov    -0xc(%rbp),%edx
   17797:	48 8d 35 a0 3a 00 00 	lea    0x3aa0(%rip),%rsi        # 1b23e <g_764+0x31de>
   1779e:	48 89 c7             	mov    %rax,%rdi
   177a1:	e8 4d ff fe ff       	callq  76f3 <transparent_crc>
   177a6:	48 8b 05 fb 83 00 00 	mov    0x83fb(%rip),%rax        # 1fba8 <g_1841+0x8>
   177ad:	48 c1 e8 3c          	shr    $0x3c,%rax
   177b1:	48 89 c2             	mov    %rax,%rdx
   177b4:	48 8b 05 f5 83 00 00 	mov    0x83f5(%rip),%rax        # 1fbb0 <g_1841+0x10>
   177bb:	25 ff 01 00 00       	and    $0x1ff,%eax
   177c0:	48 c1 e0 04          	shl    $0x4,%rax
   177c4:	48 09 d0             	or     %rdx,%rax
   177c7:	0f b7 c0             	movzwl %ax,%eax
   177ca:	8b 55 f4             	mov    -0xc(%rbp),%edx
   177cd:	48 8d 35 74 3a 00 00 	lea    0x3a74(%rip),%rsi        # 1b248 <g_764+0x31e8>
   177d4:	48 89 c7             	mov    %rax,%rdi
   177d7:	e8 17 ff fe ff       	callq  76f3 <transparent_crc>
   177dc:	48 8b 05 cd 83 00 00 	mov    0x83cd(%rip),%rax        # 1fbb0 <g_1841+0x10>
   177e3:	48 c1 e8 09          	shr    $0x9,%rax
   177e7:	83 e0 7f             	and    $0x7f,%eax
   177ea:	0f b6 c0             	movzbl %al,%eax
   177ed:	8b 55 f4             	mov    -0xc(%rbp),%edx
   177f0:	48 8d 35 5b 3a 00 00 	lea    0x3a5b(%rip),%rsi        # 1b252 <g_764+0x31f2>
   177f7:	48 89 c7             	mov    %rax,%rdi
   177fa:	e8 f4 fe fe ff       	callq  76f3 <transparent_crc>
   177ff:	48 8b 05 aa 83 00 00 	mov    0x83aa(%rip),%rax        # 1fbb0 <g_1841+0x10>
   17806:	c1 e0 02             	shl    $0x2,%eax
   17809:	c1 f8 12             	sar    $0x12,%eax
   1780c:	48 0f bf c0          	movswq %ax,%rax
   17810:	8b 55 f4             	mov    -0xc(%rbp),%edx
   17813:	48 8d 35 42 3a 00 00 	lea    0x3a42(%rip),%rsi        # 1b25c <g_764+0x31fc>
   1781a:	48 89 c7             	mov    %rax,%rdi
   1781d:	e8 d1 fe fe ff       	callq  76f3 <transparent_crc>
   17822:	48 8b 05 87 83 00 00 	mov    0x8387(%rip),%rax        # 1fbb0 <g_1841+0x10>
   17829:	48 c1 e0 12          	shl    $0x12,%rax
   1782d:	48 c1 f8 30          	sar    $0x30,%rax
   17831:	48 0f bf c0          	movswq %ax,%rax
   17835:	8b 55 f4             	mov    -0xc(%rbp),%edx
   17838:	48 8d 35 27 3a 00 00 	lea    0x3a27(%rip),%rsi        # 1b266 <g_764+0x3206>
   1783f:	48 89 c7             	mov    %rax,%rdi
   17842:	e8 ac fe fe ff       	callq  76f3 <transparent_crc>
   17847:	0f b7 05 68 83 00 00 	movzwl 0x8368(%rip),%eax        # 1fbb6 <g_1976>
   1784e:	0f b7 c0             	movzwl %ax,%eax
   17851:	8b 55 f4             	mov    -0xc(%rbp),%edx
   17854:	48 8d 35 15 3a 00 00 	lea    0x3a15(%rip),%rsi        # 1b270 <g_764+0x3210>
   1785b:	48 89 c7             	mov    %rax,%rdi
   1785e:	e8 90 fe fe ff       	callq  76f3 <transparent_crc>
   17863:	48 8b 05 4e 83 00 00 	mov    0x834e(%rip),%rax        # 1fbb8 <g_1986>
   1786a:	8b 55 f4             	mov    -0xc(%rbp),%edx
   1786d:	48 8d 35 03 3a 00 00 	lea    0x3a03(%rip),%rsi        # 1b277 <g_764+0x3217>
   17874:	48 89 c7             	mov    %rax,%rdi
   17877:	e8 77 fe fe ff       	callq  76f3 <transparent_crc>
   1787c:	0f b6 05 3d 83 00 00 	movzbl 0x833d(%rip),%eax        # 1fbc0 <g_2177>
   17883:	0f b6 c0             	movzbl %al,%eax
   17886:	8b 55 f4             	mov    -0xc(%rbp),%edx
   17889:	48 8d 35 ee 39 00 00 	lea    0x39ee(%rip),%rsi        # 1b27e <g_764+0x321e>
   17890:	48 89 c7             	mov    %rax,%rdi
   17893:	e8 5b fe fe ff       	callq  76f3 <transparent_crc>
   17898:	0f b6 05 22 83 00 00 	movzbl 0x8322(%rip),%eax        # 1fbc1 <g_2201>
   1789f:	48 0f be c0          	movsbq %al,%rax
   178a3:	8b 55 f4             	mov    -0xc(%rbp),%edx
   178a6:	48 8d 35 d8 39 00 00 	lea    0x39d8(%rip),%rsi        # 1b285 <g_764+0x3225>
   178ad:	48 89 c7             	mov    %rax,%rdi
   178b0:	e8 3e fe fe ff       	callq  76f3 <transparent_crc>
   178b5:	0f b6 05 06 83 00 00 	movzbl 0x8306(%rip),%eax        # 1fbc2 <g_2248>
   178bc:	48 0f be c0          	movsbq %al,%rax
   178c0:	8b 55 f4             	mov    -0xc(%rbp),%edx
   178c3:	48 8d 35 c2 39 00 00 	lea    0x39c2(%rip),%rsi        # 1b28c <g_764+0x322c>
   178ca:	48 89 c7             	mov    %rax,%rdi
   178cd:	e8 21 fe fe ff       	callq  76f3 <transparent_crc>
   178d2:	c7 45 e8 00 00 00 00 	movl   $0x0,-0x18(%rbp)
   178d9:	e9 9f 00 00 00       	jmpq   1797d <main+0x5b73>
   178de:	c7 45 ec 00 00 00 00 	movl   $0x0,-0x14(%rbp)
   178e5:	e9 85 00 00 00       	jmpq   1796f <main+0x5b65>
   178ea:	c7 45 f0 00 00 00 00 	movl   $0x0,-0x10(%rbp)
   178f1:	eb 72                	jmp    17965 <main+0x5b5b>
   178f3:	8b 45 f0             	mov    -0x10(%rbp),%eax
   178f6:	48 63 f0             	movslq %eax,%rsi
   178f9:	8b 45 ec             	mov    -0x14(%rbp),%eax
   178fc:	48 63 c8             	movslq %eax,%rcx
   178ff:	8b 45 e8             	mov    -0x18(%rbp),%eax
   17902:	48 63 d0             	movslq %eax,%rdx
   17905:	48 89 d0             	mov    %rdx,%rax
   17908:	48 c1 e0 02          	shl    $0x2,%rax
   1790c:	48 01 d0             	add    %rdx,%rax
   1790f:	48 01 f0             	add    %rsi,%rax
   17912:	48 01 c8             	add    %rcx,%rax
   17915:	48 8d 14 c5 00 00 00 	lea    0x0(,%rax,8),%rdx
   1791c:	00 
   1791d:	48 8d 05 bc 82 00 00 	lea    0x82bc(%rip),%rax        # 1fbe0 <g_2250>
   17924:	48 8b 04 02          	mov    (%rdx,%rax,1),%rax
   17928:	48 89 c1             	mov    %rax,%rcx
   1792b:	8b 45 f4             	mov    -0xc(%rbp),%eax
   1792e:	89 c2                	mov    %eax,%edx
   17930:	48 8d 35 5c 39 00 00 	lea    0x395c(%rip),%rsi        # 1b293 <g_764+0x3233>
   17937:	48 89 cf             	mov    %rcx,%rdi
   1793a:	e8 b4 fd fe ff       	callq  76f3 <transparent_crc>
   1793f:	83 7d f4 00          	cmpl   $0x0,-0xc(%rbp)
   17943:	74 1c                	je     17961 <main+0x5b57>
   17945:	8b 4d f0             	mov    -0x10(%rbp),%ecx
   17948:	8b 55 ec             	mov    -0x14(%rbp),%edx
   1794b:	8b 45 e8             	mov    -0x18(%rbp),%eax
   1794e:	89 c6                	mov    %eax,%esi
   17950:	48 8d 3d 09 26 00 00 	lea    0x2609(%rip),%rdi        # 19f60 <g_764+0x1f00>
   17957:	b8 00 00 00 00       	mov    $0x0,%eax
   1795c:	e8 1f e7 fe ff       	callq  6080 <printf@plt>
   17961:	83 45 f0 01          	addl   $0x1,-0x10(%rbp)
   17965:	83 7d f0 00          	cmpl   $0x0,-0x10(%rbp)
   17969:	7e 88                	jle    178f3 <main+0x5ae9>
   1796b:	83 45 ec 01          	addl   $0x1,-0x14(%rbp)
   1796f:	83 7d ec 04          	cmpl   $0x4,-0x14(%rbp)
   17973:	0f 8e 71 ff ff ff    	jle    178ea <main+0x5ae0>
   17979:	83 45 e8 01          	addl   $0x1,-0x18(%rbp)
   1797d:	83 7d e8 01          	cmpl   $0x1,-0x18(%rbp)
   17981:	0f 8e 57 ff ff ff    	jle    178de <main+0x5ad4>
   17987:	48 8b 05 a2 82 00 00 	mov    0x82a2(%rip),%rax        # 1fc30 <g_2445>
   1798e:	8b 55 f4             	mov    -0xc(%rbp),%edx
   17991:	48 8d 35 0b 39 00 00 	lea    0x390b(%rip),%rsi        # 1b2a3 <g_764+0x3243>
   17998:	48 89 c7             	mov    %rax,%rdi
   1799b:	e8 53 fd fe ff       	callq  76f3 <transparent_crc>
   179a0:	48 8b 05 91 82 00 00 	mov    0x8291(%rip),%rax        # 1fc38 <g_2445+0x8>
   179a7:	c1 e0 04             	shl    $0x4,%eax
   179aa:	c1 f8 04             	sar    $0x4,%eax
   179ad:	48 98                	cltq   
   179af:	8b 55 f4             	mov    -0xc(%rbp),%edx
   179b2:	48 8d 35 f4 38 00 00 	lea    0x38f4(%rip),%rsi        # 1b2ad <g_764+0x324d>
   179b9:	48 89 c7             	mov    %rax,%rdi
   179bc:	e8 32 fd fe ff       	callq  76f3 <transparent_crc>
   179c1:	48 8b 05 70 82 00 00 	mov    0x8270(%rip),%rax        # 1fc38 <g_2445+0x8>
   179c8:	c1 e0 02             	shl    $0x2,%eax
   179cb:	c1 f8 1e             	sar    $0x1e,%eax
   179ce:	48 0f be c0          	movsbq %al,%rax
   179d2:	8b 55 f4             	mov    -0xc(%rbp),%edx
   179d5:	48 8d 35 db 38 00 00 	lea    0x38db(%rip),%rsi        # 1b2b7 <g_764+0x3257>
   179dc:	48 89 c7             	mov    %rax,%rdi
   179df:	e8 0f fd fe ff       	callq  76f3 <transparent_crc>
   179e4:	48 8b 05 4d 82 00 00 	mov    0x824d(%rip),%rax        # 1fc38 <g_2445+0x8>
   179eb:	48 c1 e0 04          	shl    $0x4,%rax
   179ef:	48 c1 f8 22          	sar    $0x22,%rax
   179f3:	48 98                	cltq   
   179f5:	8b 55 f4             	mov    -0xc(%rbp),%edx
   179f8:	48 8d 35 c2 38 00 00 	lea    0x38c2(%rip),%rsi        # 1b2c1 <g_764+0x3261>
   179ff:	48 89 c7             	mov    %rax,%rdi
   17a02:	e8 ec fc fe ff       	callq  76f3 <transparent_crc>
   17a07:	48 8b 05 2a 82 00 00 	mov    0x822a(%rip),%rax        # 1fc38 <g_2445+0x8>
   17a0e:	48 c1 e8 3c          	shr    $0x3c,%rax
   17a12:	48 89 c2             	mov    %rax,%rdx
   17a15:	48 8b 05 24 82 00 00 	mov    0x8224(%rip),%rax        # 1fc40 <g_2445+0x10>
   17a1c:	25 ff 01 00 00       	and    $0x1ff,%eax
   17a21:	48 c1 e0 04          	shl    $0x4,%rax
   17a25:	48 09 d0             	or     %rdx,%rax
   17a28:	0f b7 c0             	movzwl %ax,%eax
   17a2b:	8b 55 f4             	mov    -0xc(%rbp),%edx
   17a2e:	48 8d 35 96 38 00 00 	lea    0x3896(%rip),%rsi        # 1b2cb <g_764+0x326b>
   17a35:	48 89 c7             	mov    %rax,%rdi
   17a38:	e8 b6 fc fe ff       	callq  76f3 <transparent_crc>
   17a3d:	48 8b 05 fc 81 00 00 	mov    0x81fc(%rip),%rax        # 1fc40 <g_2445+0x10>
   17a44:	48 c1 e8 09          	shr    $0x9,%rax
   17a48:	83 e0 7f             	and    $0x7f,%eax
   17a4b:	0f b6 c0             	movzbl %al,%eax
   17a4e:	8b 55 f4             	mov    -0xc(%rbp),%edx
   17a51:	48 8d 35 7d 38 00 00 	lea    0x387d(%rip),%rsi        # 1b2d5 <g_764+0x3275>
   17a58:	48 89 c7             	mov    %rax,%rdi
   17a5b:	e8 93 fc fe ff       	callq  76f3 <transparent_crc>
   17a60:	48 8b 05 d9 81 00 00 	mov    0x81d9(%rip),%rax        # 1fc40 <g_2445+0x10>
   17a67:	c1 e0 02             	shl    $0x2,%eax
   17a6a:	c1 f8 12             	sar    $0x12,%eax
   17a6d:	48 0f bf c0          	movswq %ax,%rax
   17a71:	8b 55 f4             	mov    -0xc(%rbp),%edx
   17a74:	48 8d 35 64 38 00 00 	lea    0x3864(%rip),%rsi        # 1b2df <g_764+0x327f>
   17a7b:	48 89 c7             	mov    %rax,%rdi
   17a7e:	e8 70 fc fe ff       	callq  76f3 <transparent_crc>
   17a83:	48 8b 05 b6 81 00 00 	mov    0x81b6(%rip),%rax        # 1fc40 <g_2445+0x10>
   17a8a:	48 c1 e0 12          	shl    $0x12,%rax
   17a8e:	48 c1 f8 30          	sar    $0x30,%rax
   17a92:	48 0f bf c0          	movswq %ax,%rax
   17a96:	8b 55 f4             	mov    -0xc(%rbp),%edx
   17a99:	48 8d 35 49 38 00 00 	lea    0x3849(%rip),%rsi        # 1b2e9 <g_764+0x3289>
   17aa0:	48 89 c7             	mov    %rax,%rdi
   17aa3:	e8 4b fc fe ff       	callq  76f3 <transparent_crc>
   17aa8:	48 8b 05 a1 81 00 00 	mov    0x81a1(%rip),%rax        # 1fc50 <g_2533>
   17aaf:	8b 55 f4             	mov    -0xc(%rbp),%edx
   17ab2:	48 8d 35 3a 38 00 00 	lea    0x383a(%rip),%rsi        # 1b2f3 <g_764+0x3293>
   17ab9:	48 89 c7             	mov    %rax,%rdi
   17abc:	e8 32 fc fe ff       	callq  76f3 <transparent_crc>
   17ac1:	8b 05 91 81 00 00    	mov    0x8191(%rip),%eax        # 1fc58 <g_2533+0x8>
   17ac7:	c1 e0 04             	shl    $0x4,%eax
   17aca:	c1 f8 04             	sar    $0x4,%eax
   17acd:	48 98                	cltq   
   17acf:	8b 55 f4             	mov    -0xc(%rbp),%edx
   17ad2:	48 8d 35 24 38 00 00 	lea    0x3824(%rip),%rsi        # 1b2fd <g_764+0x329d>
   17ad9:	48 89 c7             	mov    %rax,%rdi
   17adc:	e8 12 fc fe ff       	callq  76f3 <transparent_crc>
   17ae1:	0f b6 05 73 81 00 00 	movzbl 0x8173(%rip),%eax        # 1fc5b <g_2533+0xb>
   17ae8:	c1 e0 02             	shl    $0x2,%eax
   17aeb:	c0 f8 06             	sar    $0x6,%al
   17aee:	48 0f be c0          	movsbq %al,%rax
   17af2:	8b 55 f4             	mov    -0xc(%rbp),%edx
   17af5:	48 8d 35 0b 38 00 00 	lea    0x380b(%rip),%rsi        # 1b307 <g_764+0x32a7>
   17afc:	48 89 c7             	mov    %rax,%rdi
   17aff:	e8 ef fb fe ff       	callq  76f3 <transparent_crc>
   17b04:	48 8b 05 4d 81 00 00 	mov    0x814d(%rip),%rax        # 1fc58 <g_2533+0x8>
   17b0b:	48 c1 e0 04          	shl    $0x4,%rax
   17b0f:	48 c1 f8 22          	sar    $0x22,%rax
   17b13:	48 98                	cltq   
   17b15:	8b 55 f4             	mov    -0xc(%rbp),%edx
   17b18:	48 8d 35 f2 37 00 00 	lea    0x37f2(%rip),%rsi        # 1b311 <g_764+0x32b1>
   17b1f:	48 89 c7             	mov    %rax,%rdi
   17b22:	e8 cc fb fe ff       	callq  76f3 <transparent_crc>
   17b27:	48 8b 05 2a 81 00 00 	mov    0x812a(%rip),%rax        # 1fc58 <g_2533+0x8>
   17b2e:	48 c1 e8 3c          	shr    $0x3c,%rax
   17b32:	48 89 c2             	mov    %rax,%rdx
   17b35:	48 8b 05 24 81 00 00 	mov    0x8124(%rip),%rax        # 1fc60 <g_2533+0x10>
   17b3c:	25 ff 01 00 00       	and    $0x1ff,%eax
   17b41:	48 c1 e0 04          	shl    $0x4,%rax
   17b45:	48 09 d0             	or     %rdx,%rax
   17b48:	0f b7 c0             	movzwl %ax,%eax
   17b4b:	8b 55 f4             	mov    -0xc(%rbp),%edx
   17b4e:	48 8d 35 c6 37 00 00 	lea    0x37c6(%rip),%rsi        # 1b31b <g_764+0x32bb>
   17b55:	48 89 c7             	mov    %rax,%rdi
   17b58:	e8 96 fb fe ff       	callq  76f3 <transparent_crc>
   17b5d:	0f b6 05 fd 80 00 00 	movzbl 0x80fd(%rip),%eax        # 1fc61 <g_2533+0x11>
   17b64:	d0 e8                	shr    %al
   17b66:	0f b6 c0             	movzbl %al,%eax
   17b69:	8b 55 f4             	mov    -0xc(%rbp),%edx
   17b6c:	48 8d 35 b2 37 00 00 	lea    0x37b2(%rip),%rsi        # 1b325 <g_764+0x32c5>
   17b73:	48 89 c7             	mov    %rax,%rdi
   17b76:	e8 78 fb fe ff       	callq  76f3 <transparent_crc>
   17b7b:	48 8b 05 de 80 00 00 	mov    0x80de(%rip),%rax        # 1fc60 <g_2533+0x10>
   17b82:	c1 e0 02             	shl    $0x2,%eax
   17b85:	c1 f8 12             	sar    $0x12,%eax
   17b88:	48 0f bf c0          	movswq %ax,%rax
   17b8c:	8b 55 f4             	mov    -0xc(%rbp),%edx
   17b8f:	48 8d 35 99 37 00 00 	lea    0x3799(%rip),%rsi        # 1b32f <g_764+0x32cf>
   17b96:	48 89 c7             	mov    %rax,%rdi
   17b99:	e8 55 fb fe ff       	callq  76f3 <transparent_crc>
   17b9e:	48 8b 05 bb 80 00 00 	mov    0x80bb(%rip),%rax        # 1fc60 <g_2533+0x10>
   17ba5:	48 c1 e0 12          	shl    $0x12,%rax
   17ba9:	48 c1 f8 30          	sar    $0x30,%rax
   17bad:	48 0f bf c0          	movswq %ax,%rax
   17bb1:	8b 55 f4             	mov    -0xc(%rbp),%edx
   17bb4:	48 8d 35 7e 37 00 00 	lea    0x377e(%rip),%rsi        # 1b339 <g_764+0x32d9>
   17bbb:	48 89 c7             	mov    %rax,%rdi
   17bbe:	e8 30 fb fe ff       	callq  76f3 <transparent_crc>
   17bc3:	8b 05 9f 80 00 00    	mov    0x809f(%rip),%eax        # 1fc68 <g_2559>
   17bc9:	89 c1                	mov    %eax,%ecx
   17bcb:	8b 45 f4             	mov    -0xc(%rbp),%eax
   17bce:	89 c2                	mov    %eax,%edx
   17bd0:	48 8d 35 6c 37 00 00 	lea    0x376c(%rip),%rsi        # 1b343 <g_764+0x32e3>
   17bd7:	48 89 cf             	mov    %rcx,%rdi
   17bda:	e8 14 fb fe ff       	callq  76f3 <transparent_crc>
   17bdf:	0f b7 05 86 80 00 00 	movzwl 0x8086(%rip),%eax        # 1fc6c <g_2683>
   17be6:	48 0f bf c0          	movswq %ax,%rax
   17bea:	8b 55 f4             	mov    -0xc(%rbp),%edx
   17bed:	48 8d 35 56 37 00 00 	lea    0x3756(%rip),%rsi        # 1b34a <g_764+0x32ea>
   17bf4:	48 89 c7             	mov    %rax,%rdi
   17bf7:	e8 f7 fa fe ff       	callq  76f3 <transparent_crc>
   17bfc:	0f b7 05 6b 80 00 00 	movzwl 0x806b(%rip),%eax        # 1fc6e <g_2686>
   17c03:	48 0f bf c0          	movswq %ax,%rax
   17c07:	8b 55 f4             	mov    -0xc(%rbp),%edx
   17c0a:	48 8d 35 40 37 00 00 	lea    0x3740(%rip),%rsi        # 1b351 <g_764+0x32f1>
   17c11:	48 89 c7             	mov    %rax,%rdi
   17c14:	e8 da fa fe ff       	callq  76f3 <transparent_crc>
   17c19:	0f b6 05 50 80 00 00 	movzbl 0x8050(%rip),%eax        # 1fc70 <g_2716>
   17c20:	0f b6 c0             	movzbl %al,%eax
   17c23:	8b 55 f4             	mov    -0xc(%rbp),%edx
   17c26:	48 8d 35 2b 37 00 00 	lea    0x372b(%rip),%rsi        # 1b358 <g_764+0x32f8>
   17c2d:	48 89 c7             	mov    %rax,%rdi
   17c30:	e8 be fa fe ff       	callq  76f3 <transparent_crc>
   17c35:	8b 05 39 80 00 00    	mov    0x8039(%rip),%eax        # 1fc74 <g_2874>
   17c3b:	89 c1                	mov    %eax,%ecx
   17c3d:	8b 45 f4             	mov    -0xc(%rbp),%eax
   17c40:	89 c2                	mov    %eax,%edx
   17c42:	48 8d 35 16 37 00 00 	lea    0x3716(%rip),%rsi        # 1b35f <g_764+0x32ff>
   17c49:	48 89 cf             	mov    %rcx,%rdi
   17c4c:	e8 a2 fa fe ff       	callq  76f3 <transparent_crc>
   17c51:	8b 05 21 80 00 00    	mov    0x8021(%rip),%eax        # 1fc78 <g_3009>
   17c57:	48 98                	cltq   
   17c59:	8b 55 f4             	mov    -0xc(%rbp),%edx
   17c5c:	48 8d 35 03 37 00 00 	lea    0x3703(%rip),%rsi        # 1b366 <g_764+0x3306>
   17c63:	48 89 c7             	mov    %rax,%rdi
   17c66:	e8 88 fa fe ff       	callq  76f3 <transparent_crc>
   17c6b:	c7 45 e8 00 00 00 00 	movl   $0x0,-0x18(%rbp)
   17c72:	e9 ad 00 00 00       	jmpq   17d24 <main+0x5f1a>
   17c77:	c7 45 ec 00 00 00 00 	movl   $0x0,-0x14(%rbp)
   17c7e:	e9 93 00 00 00       	jmpq   17d16 <main+0x5f0c>
   17c83:	c7 45 f0 00 00 00 00 	movl   $0x0,-0x10(%rbp)
   17c8a:	eb 7c                	jmp    17d08 <main+0x5efe>
   17c8c:	8b 45 f0             	mov    -0x10(%rbp),%eax
   17c8f:	48 63 f0             	movslq %eax,%rsi
   17c92:	8b 45 e8             	mov    -0x18(%rbp),%eax
   17c95:	48 63 d0             	movslq %eax,%rdx
   17c98:	8b 45 ec             	mov    -0x14(%rbp),%eax
   17c9b:	48 63 c8             	movslq %eax,%rcx
   17c9e:	48 89 d0             	mov    %rdx,%rax
   17ca1:	48 c1 e0 04          	shl    $0x4,%rax
   17ca5:	48 29 d0             	sub    %rdx,%rax
   17ca8:	48 01 c0             	add    %rax,%rax
   17cab:	48 89 ca             	mov    %rcx,%rdx
   17cae:	48 01 d2             	add    %rdx,%rdx
   17cb1:	48 01 ca             	add    %rcx,%rdx
   17cb4:	48 01 d0             	add    %rdx,%rax
   17cb7:	48 01 f0             	add    %rsi,%rax
   17cba:	48 8d 14 85 00 00 00 	lea    0x0(,%rax,4),%rdx
   17cc1:	00 
   17cc2:	48 8d 05 b7 7f 00 00 	lea    0x7fb7(%rip),%rax        # 1fc80 <g_3038>
   17cc9:	8b 04 02             	mov    (%rdx,%rax,1),%eax
   17ccc:	89 c1                	mov    %eax,%ecx
   17cce:	8b 45 f4             	mov    -0xc(%rbp),%eax
   17cd1:	89 c2                	mov    %eax,%edx
   17cd3:	48 8d 35 93 36 00 00 	lea    0x3693(%rip),%rsi        # 1b36d <g_764+0x330d>
   17cda:	48 89 cf             	mov    %rcx,%rdi
   17cdd:	e8 11 fa fe ff       	callq  76f3 <transparent_crc>
   17ce2:	83 7d f4 00          	cmpl   $0x0,-0xc(%rbp)
   17ce6:	74 1c                	je     17d04 <main+0x5efa>
   17ce8:	8b 4d f0             	mov    -0x10(%rbp),%ecx
   17ceb:	8b 55 ec             	mov    -0x14(%rbp),%edx
   17cee:	8b 45 e8             	mov    -0x18(%rbp),%eax
   17cf1:	89 c6                	mov    %eax,%esi
   17cf3:	48 8d 3d 66 22 00 00 	lea    0x2266(%rip),%rdi        # 19f60 <g_764+0x1f00>
   17cfa:	b8 00 00 00 00       	mov    $0x0,%eax
   17cff:	e8 7c e3 fe ff       	callq  6080 <printf@plt>
   17d04:	83 45 f0 01          	addl   $0x1,-0x10(%rbp)
   17d08:	83 7d f0 02          	cmpl   $0x2,-0x10(%rbp)
   17d0c:	0f 8e 7a ff ff ff    	jle    17c8c <main+0x5e82>
   17d12:	83 45 ec 01          	addl   $0x1,-0x14(%rbp)
   17d16:	83 7d ec 09          	cmpl   $0x9,-0x14(%rbp)
   17d1a:	0f 8e 63 ff ff ff    	jle    17c83 <main+0x5e79>
   17d20:	83 45 e8 01          	addl   $0x1,-0x18(%rbp)
   17d24:	83 7d e8 06          	cmpl   $0x6,-0x18(%rbp)
   17d28:	0f 8e 49 ff ff ff    	jle    17c77 <main+0x5e6d>
   17d2e:	48 8b 05 9b 82 00 00 	mov    0x829b(%rip),%rax        # 1ffd0 <g_3041>
   17d35:	8b 55 f4             	mov    -0xc(%rbp),%edx
   17d38:	48 8d 35 3e 36 00 00 	lea    0x363e(%rip),%rsi        # 1b37d <g_764+0x331d>
   17d3f:	48 89 c7             	mov    %rax,%rdi
   17d42:	e8 ac f9 fe ff       	callq  76f3 <transparent_crc>
   17d47:	8b 05 8b 82 00 00    	mov    0x828b(%rip),%eax        # 1ffd8 <g_3041+0x8>
   17d4d:	c1 e0 04             	shl    $0x4,%eax
   17d50:	c1 f8 04             	sar    $0x4,%eax
   17d53:	48 98                	cltq   
   17d55:	8b 55 f4             	mov    -0xc(%rbp),%edx
   17d58:	48 8d 35 28 36 00 00 	lea    0x3628(%rip),%rsi        # 1b387 <g_764+0x3327>
   17d5f:	48 89 c7             	mov    %rax,%rdi
   17d62:	e8 8c f9 fe ff       	callq  76f3 <transparent_crc>
   17d67:	0f b6 05 6d 82 00 00 	movzbl 0x826d(%rip),%eax        # 1ffdb <g_3041+0xb>
   17d6e:	c1 e0 02             	shl    $0x2,%eax
   17d71:	c0 f8 06             	sar    $0x6,%al
   17d74:	48 0f be c0          	movsbq %al,%rax
   17d78:	8b 55 f4             	mov    -0xc(%rbp),%edx
   17d7b:	48 8d 35 0f 36 00 00 	lea    0x360f(%rip),%rsi        # 1b391 <g_764+0x3331>
   17d82:	48 89 c7             	mov    %rax,%rdi
   17d85:	e8 69 f9 fe ff       	callq  76f3 <transparent_crc>
   17d8a:	48 8b 05 47 82 00 00 	mov    0x8247(%rip),%rax        # 1ffd8 <g_3041+0x8>
   17d91:	48 c1 e0 04          	shl    $0x4,%rax
   17d95:	48 c1 f8 22          	sar    $0x22,%rax
   17d99:	48 98                	cltq   
   17d9b:	8b 55 f4             	mov    -0xc(%rbp),%edx
   17d9e:	48 8d 35 f6 35 00 00 	lea    0x35f6(%rip),%rsi        # 1b39b <g_764+0x333b>
   17da5:	48 89 c7             	mov    %rax,%rdi
   17da8:	e8 46 f9 fe ff       	callq  76f3 <transparent_crc>
   17dad:	48 8b 05 24 82 00 00 	mov    0x8224(%rip),%rax        # 1ffd8 <g_3041+0x8>
   17db4:	48 c1 e8 3c          	shr    $0x3c,%rax
   17db8:	48 89 c2             	mov    %rax,%rdx
   17dbb:	48 8b 05 1e 82 00 00 	mov    0x821e(%rip),%rax        # 1ffe0 <g_3041+0x10>
   17dc2:	25 ff 01 00 00       	and    $0x1ff,%eax
   17dc7:	48 c1 e0 04          	shl    $0x4,%rax
   17dcb:	48 09 d0             	or     %rdx,%rax
   17dce:	0f b7 c0             	movzwl %ax,%eax
   17dd1:	8b 55 f4             	mov    -0xc(%rbp),%edx
   17dd4:	48 8d 35 ca 35 00 00 	lea    0x35ca(%rip),%rsi        # 1b3a5 <g_764+0x3345>
   17ddb:	48 89 c7             	mov    %rax,%rdi
   17dde:	e8 10 f9 fe ff       	callq  76f3 <transparent_crc>
   17de3:	0f b6 05 f7 81 00 00 	movzbl 0x81f7(%rip),%eax        # 1ffe1 <g_3041+0x11>
   17dea:	d0 e8                	shr    %al
   17dec:	0f b6 c0             	movzbl %al,%eax
   17def:	8b 55 f4             	mov    -0xc(%rbp),%edx
   17df2:	48 8d 35 b6 35 00 00 	lea    0x35b6(%rip),%rsi        # 1b3af <g_764+0x334f>
   17df9:	48 89 c7             	mov    %rax,%rdi
   17dfc:	e8 f2 f8 fe ff       	callq  76f3 <transparent_crc>
   17e01:	48 8b 05 d8 81 00 00 	mov    0x81d8(%rip),%rax        # 1ffe0 <g_3041+0x10>
   17e08:	c1 e0 02             	shl    $0x2,%eax
   17e0b:	c1 f8 12             	sar    $0x12,%eax
   17e0e:	48 0f bf c0          	movswq %ax,%rax
   17e12:	8b 55 f4             	mov    -0xc(%rbp),%edx
   17e15:	48 8d 35 9d 35 00 00 	lea    0x359d(%rip),%rsi        # 1b3b9 <g_764+0x3359>
   17e1c:	48 89 c7             	mov    %rax,%rdi
   17e1f:	e8 cf f8 fe ff       	callq  76f3 <transparent_crc>
   17e24:	48 8b 05 b5 81 00 00 	mov    0x81b5(%rip),%rax        # 1ffe0 <g_3041+0x10>
   17e2b:	48 c1 e0 12          	shl    $0x12,%rax
   17e2f:	48 c1 f8 30          	sar    $0x30,%rax
   17e33:	48 0f bf c0          	movswq %ax,%rax
   17e37:	8b 55 f4             	mov    -0xc(%rbp),%edx
   17e3a:	48 8d 35 82 35 00 00 	lea    0x3582(%rip),%rsi        # 1b3c3 <g_764+0x3363>
   17e41:	48 89 c7             	mov    %rax,%rdi
   17e44:	e8 aa f8 fe ff       	callq  76f3 <transparent_crc>
   17e49:	8b 05 d1 61 00 00    	mov    0x61d1(%rip),%eax        # 1e020 <crc32_context>
   17e4f:	f7 d0                	not    %eax
   17e51:	89 c2                	mov    %eax,%edx
   17e53:	8b 45 f4             	mov    -0xc(%rbp),%eax
   17e56:	89 c6                	mov    %eax,%esi
   17e58:	89 d7                	mov    %edx,%edi
   17e5a:	e8 35 e3 fe ff       	callq  6194 <platform_main_end>
   17e5f:	b8 00 00 00 00       	mov    $0x0,%eax
   17e64:	48 8b 4d f8          	mov    -0x8(%rbp),%rcx
   17e68:	64 48 33 0c 25 28 00 	xor    %fs:0x28,%rcx
   17e6f:	00 00 
   17e71:	74 05                	je     17e78 <main+0x606e>
   17e73:	e8 f8 e1 fe ff       	callq  6070 <__stack_chk_fail@plt>
   17e78:	c9                   	leaveq 
   17e79:	c3                   	retq   
   17e7a:	66 0f 1f 44 00 00    	nopw   0x0(%rax,%rax,1)

0000000000017e80 <__libc_csu_init>:
   17e80:	f3 0f 1e fa          	endbr64 
   17e84:	41 57                	push   %r15
   17e86:	4c 8d 3d f3 5e 00 00 	lea    0x5ef3(%rip),%r15        # 1dd80 <__frame_dummy_init_array_entry>
   17e8d:	41 56                	push   %r14
   17e8f:	49 89 d6             	mov    %rdx,%r14
   17e92:	41 55                	push   %r13
   17e94:	49 89 f5             	mov    %rsi,%r13
   17e97:	41 54                	push   %r12
   17e99:	41 89 fc             	mov    %edi,%r12d
   17e9c:	55                   	push   %rbp
   17e9d:	48 8d 2d e4 5e 00 00 	lea    0x5ee4(%rip),%rbp        # 1dd88 <__do_global_dtors_aux_fini_array_entry>
   17ea4:	53                   	push   %rbx
   17ea5:	4c 29 fd             	sub    %r15,%rbp
   17ea8:	48 83 ec 08          	sub    $0x8,%rsp
   17eac:	e8 4f e1 fe ff       	callq  6000 <_init>
   17eb1:	48 c1 fd 03          	sar    $0x3,%rbp
   17eb5:	74 1f                	je     17ed6 <__libc_csu_init+0x56>
   17eb7:	31 db                	xor    %ebx,%ebx
   17eb9:	0f 1f 80 00 00 00 00 	nopl   0x0(%rax)
   17ec0:	4c 89 f2             	mov    %r14,%rdx
   17ec3:	4c 89 ee             	mov    %r13,%rsi
   17ec6:	44 89 e7             	mov    %r12d,%edi
   17ec9:	41 ff 14 df          	callq  *(%r15,%rbx,8)
   17ecd:	48 83 c3 01          	add    $0x1,%rbx
   17ed1:	48 39 dd             	cmp    %rbx,%rbp
   17ed4:	75 ea                	jne    17ec0 <__libc_csu_init+0x40>
   17ed6:	48 83 c4 08          	add    $0x8,%rsp
   17eda:	5b                   	pop    %rbx
   17edb:	5d                   	pop    %rbp
   17edc:	41 5c                	pop    %r12
   17ede:	41 5d                	pop    %r13
   17ee0:	41 5e                	pop    %r14
   17ee2:	41 5f                	pop    %r15
   17ee4:	c3                   	retq   
   17ee5:	66 66 2e 0f 1f 84 00 	data16 nopw %cs:0x0(%rax,%rax,1)
   17eec:	00 00 00 00 

0000000000017ef0 <__libc_csu_fini>:
   17ef0:	f3 0f 1e fa          	endbr64 
   17ef4:	c3                   	retq   
