


Disassembly of section .text:

000000000000a0a0 <_start>:
    a0a0:	f3 0f 1e fa          	endbr64 
    a0a4:	31 ed                	xor    %ebp,%ebp
    a0a6:	49 89 d1             	mov    %rdx,%r9
    a0a9:	5e                   	pop    %rsi
    a0aa:	48 89 e2             	mov    %rsp,%rdx
    a0ad:	48 83 e4 f0          	and    $0xfffffffffffffff0,%rsp
    a0b1:	50                   	push   %rax
    a0b2:	54                   	push   %rsp
    a0b3:	4c 8d 05 e6 ed 00 00 	lea    0xede6(%rip),%r8        # 18ea0 <__libc_csu_fini>
    a0ba:	48 8d 0d 6f ed 00 00 	lea    0xed6f(%rip),%rcx        # 18e30 <__libc_csu_init>
    a0c1:	48 8d 3d cf ce 00 00 	lea    0xcecf(%rip),%rdi        # 16f97 <main>
    a0c8:	ff 15 12 4f 01 00    	callq  *0x14f12(%rip)        # 1efe0 <__libc_start_main@GLIBC_2.2.5>
    a0ce:	f4                   	hlt    
    a0cf:	90                   	nop

000000000000a0d0 <deregister_tm_clones>:
    a0d0:	48 8d 3d b9 9d 01 00 	lea    0x19db9(%rip),%rdi        # 23e90 <__TMC_END__>
    a0d7:	48 8d 05 b2 9d 01 00 	lea    0x19db2(%rip),%rax        # 23e90 <__TMC_END__>
    a0de:	48 39 f8             	cmp    %rdi,%rax
    a0e1:	74 15                	je     a0f8 <deregister_tm_clones+0x28>
    a0e3:	48 8b 05 ee 4e 01 00 	mov    0x14eee(%rip),%rax        # 1efd8 <_ITM_deregisterTMCloneTable>
    a0ea:	48 85 c0             	test   %rax,%rax
    a0ed:	74 09                	je     a0f8 <deregister_tm_clones+0x28>
    a0ef:	ff e0                	jmpq   *%rax
    a0f1:	0f 1f 80 00 00 00 00 	nopl   0x0(%rax)
    a0f8:	c3                   	retq   
    a0f9:	0f 1f 80 00 00 00 00 	nopl   0x0(%rax)

000000000000a100 <register_tm_clones>:
    a100:	48 8d 3d 89 9d 01 00 	lea    0x19d89(%rip),%rdi        # 23e90 <__TMC_END__>
    a107:	48 8d 35 82 9d 01 00 	lea    0x19d82(%rip),%rsi        # 23e90 <__TMC_END__>
    a10e:	48 29 fe             	sub    %rdi,%rsi
    a111:	48 89 f0             	mov    %rsi,%rax
    a114:	48 c1 ee 3f          	shr    $0x3f,%rsi
    a118:	48 c1 f8 03          	sar    $0x3,%rax
    a11c:	48 01 c6             	add    %rax,%rsi
    a11f:	48 d1 fe             	sar    %rsi
    a122:	74 14                	je     a138 <register_tm_clones+0x38>
    a124:	48 8b 05 c5 4e 01 00 	mov    0x14ec5(%rip),%rax        # 1eff0 <_ITM_registerTMCloneTable>
    a12b:	48 85 c0             	test   %rax,%rax
    a12e:	74 08                	je     a138 <register_tm_clones+0x38>
    a130:	ff e0                	jmpq   *%rax
    a132:	66 0f 1f 44 00 00    	nopw   0x0(%rax,%rax,1)
    a138:	c3                   	retq   
    a139:	0f 1f 80 00 00 00 00 	nopl   0x0(%rax)

000000000000a140 <__do_global_dtors_aux>:
    a140:	f3 0f 1e fa          	endbr64 
    a144:	80 3d 55 9d 01 00 00 	cmpb   $0x0,0x19d55(%rip)        # 23ea0 <completed.8061>
    a14b:	75 2b                	jne    a178 <__do_global_dtors_aux+0x38>
    a14d:	55                   	push   %rbp
    a14e:	48 83 3d a2 4e 01 00 	cmpq   $0x0,0x14ea2(%rip)        # 1eff8 <__cxa_finalize@GLIBC_2.2.5>
    a155:	00 
    a156:	48 89 e5             	mov    %rsp,%rbp
    a159:	74 0c                	je     a167 <__do_global_dtors_aux+0x27>
    a15b:	48 8b 3d a6 4e 01 00 	mov    0x14ea6(%rip),%rdi        # 1f008 <__dso_handle>
    a162:	e8 f9 fe ff ff       	callq  a060 <__cxa_finalize@plt>
    a167:	e8 64 ff ff ff       	callq  a0d0 <deregister_tm_clones>
    a16c:	c6 05 2d 9d 01 00 01 	movb   $0x1,0x19d2d(%rip)        # 23ea0 <completed.8061>
    a173:	5d                   	pop    %rbp
    a174:	c3                   	retq   
    a175:	0f 1f 00             	nopl   (%rax)
    a178:	c3                   	retq   
    a179:	0f 1f 80 00 00 00 00 	nopl   0x0(%rax)

000000000000a180 <frame_dummy>:
    a180:	f3 0f 1e fa          	endbr64 
    a184:	e9 77 ff ff ff       	jmpq   a100 <register_tm_clones>

000000000000a189 <platform_main_begin>:
    a189:	f3 0f 1e fa          	endbr64 
    a18d:	55                   	push   %rbp
    a18e:	48 89 e5             	mov    %rsp,%rbp
    a191:	90                   	nop
    a192:	5d                   	pop    %rbp
    a193:	c3                   	retq   

000000000000a194 <platform_main_end>:
    a194:	f3 0f 1e fa          	endbr64 
    a198:	55                   	push   %rbp
    a199:	48 89 e5             	mov    %rsp,%rbp
    a19c:	48 83 ec 10          	sub    $0x10,%rsp
    a1a0:	89 7d fc             	mov    %edi,-0x4(%rbp)
    a1a3:	89 75 f8             	mov    %esi,-0x8(%rbp)
    a1a6:	8b 45 fc             	mov    -0x4(%rbp),%eax
    a1a9:	89 c6                	mov    %eax,%esi
    a1ab:	48 8d 3d 6e ee 00 00 	lea    0xee6e(%rip),%rdi        # 19020 <_IO_stdin_used+0x20>
    a1b2:	b8 00 00 00 00       	mov    $0x0,%eax
    a1b7:	e8 c4 fe ff ff       	callq  a080 <printf@plt>
    a1bc:	90                   	nop
    a1bd:	c9                   	leaveq 
    a1be:	c3                   	retq   

000000000000a1bf <safe_unary_minus_func_int8_t_s>:
    a1bf:	f3 0f 1e fa          	endbr64 
    a1c3:	55                   	push   %rbp
    a1c4:	48 89 e5             	mov    %rsp,%rbp
    a1c7:	89 f8                	mov    %edi,%eax
    a1c9:	88 45 fc             	mov    %al,-0x4(%rbp)
    a1cc:	0f b6 45 fc          	movzbl -0x4(%rbp),%eax
    a1d0:	f7 d8                	neg    %eax
    a1d2:	5d                   	pop    %rbp
    a1d3:	c3                   	retq   

000000000000a1d4 <safe_add_func_int8_t_s_s>:
    a1d4:	f3 0f 1e fa          	endbr64 
    a1d8:	55                   	push   %rbp
    a1d9:	48 89 e5             	mov    %rsp,%rbp
    a1dc:	89 fa                	mov    %edi,%edx
    a1de:	89 f0                	mov    %esi,%eax
    a1e0:	88 55 fc             	mov    %dl,-0x4(%rbp)
    a1e3:	88 45 f8             	mov    %al,-0x8(%rbp)
    a1e6:	0f b6 55 fc          	movzbl -0x4(%rbp),%edx
    a1ea:	0f b6 45 f8          	movzbl -0x8(%rbp),%eax
    a1ee:	01 d0                	add    %edx,%eax
    a1f0:	5d                   	pop    %rbp
    a1f1:	c3                   	retq   

000000000000a1f2 <safe_sub_func_int8_t_s_s>:
    a1f2:	f3 0f 1e fa          	endbr64 
    a1f6:	55                   	push   %rbp
    a1f7:	48 89 e5             	mov    %rsp,%rbp
    a1fa:	89 fa                	mov    %edi,%edx
    a1fc:	89 f0                	mov    %esi,%eax
    a1fe:	88 55 fc             	mov    %dl,-0x4(%rbp)
    a201:	88 45 f8             	mov    %al,-0x8(%rbp)
    a204:	0f b6 55 fc          	movzbl -0x4(%rbp),%edx
    a208:	0f b6 45 f8          	movzbl -0x8(%rbp),%eax
    a20c:	29 c2                	sub    %eax,%edx
    a20e:	89 d0                	mov    %edx,%eax
    a210:	5d                   	pop    %rbp
    a211:	c3                   	retq   

000000000000a212 <safe_mul_func_int8_t_s_s>:
    a212:	f3 0f 1e fa          	endbr64 
    a216:	55                   	push   %rbp
    a217:	48 89 e5             	mov    %rsp,%rbp
    a21a:	89 fa                	mov    %edi,%edx
    a21c:	89 f0                	mov    %esi,%eax
    a21e:	88 55 fc             	mov    %dl,-0x4(%rbp)
    a221:	88 45 f8             	mov    %al,-0x8(%rbp)
    a224:	0f b6 45 fc          	movzbl -0x4(%rbp),%eax
    a228:	0f b6 55 f8          	movzbl -0x8(%rbp),%edx
    a22c:	0f af c2             	imul   %edx,%eax
    a22f:	5d                   	pop    %rbp
    a230:	c3                   	retq   

000000000000a231 <safe_mod_func_int8_t_s_s>:
    a231:	f3 0f 1e fa          	endbr64 
    a235:	55                   	push   %rbp
    a236:	48 89 e5             	mov    %rsp,%rbp
    a239:	89 fa                	mov    %edi,%edx
    a23b:	89 f0                	mov    %esi,%eax
    a23d:	88 55 fc             	mov    %dl,-0x4(%rbp)
    a240:	88 45 f8             	mov    %al,-0x8(%rbp)
    a243:	80 7d f8 00          	cmpb   $0x0,-0x8(%rbp)
    a247:	74 1b                	je     a264 <safe_mod_func_int8_t_s_s+0x33>
    a249:	80 7d fc 80          	cmpb   $0x80,-0x4(%rbp)
    a24d:	75 06                	jne    a255 <safe_mod_func_int8_t_s_s+0x24>
    a24f:	80 7d f8 ff          	cmpb   $0xff,-0x8(%rbp)
    a253:	74 0f                	je     a264 <safe_mod_func_int8_t_s_s+0x33>
    a255:	0f be 45 fc          	movsbl -0x4(%rbp),%eax
    a259:	0f be 4d f8          	movsbl -0x8(%rbp),%ecx
    a25d:	99                   	cltd   
    a25e:	f7 f9                	idiv   %ecx
    a260:	89 d0                	mov    %edx,%eax
    a262:	eb 04                	jmp    a268 <safe_mod_func_int8_t_s_s+0x37>
    a264:	0f b6 45 fc          	movzbl -0x4(%rbp),%eax
    a268:	5d                   	pop    %rbp
    a269:	c3                   	retq   

000000000000a26a <safe_div_func_int8_t_s_s>:
    a26a:	f3 0f 1e fa          	endbr64 
    a26e:	55                   	push   %rbp
    a26f:	48 89 e5             	mov    %rsp,%rbp
    a272:	89 fa                	mov    %edi,%edx
    a274:	89 f0                	mov    %esi,%eax
    a276:	88 55 fc             	mov    %dl,-0x4(%rbp)
    a279:	88 45 f8             	mov    %al,-0x8(%rbp)
    a27c:	80 7d f8 00          	cmpb   $0x0,-0x8(%rbp)
    a280:	74 19                	je     a29b <safe_div_func_int8_t_s_s+0x31>
    a282:	80 7d fc 80          	cmpb   $0x80,-0x4(%rbp)
    a286:	75 06                	jne    a28e <safe_div_func_int8_t_s_s+0x24>
    a288:	80 7d f8 ff          	cmpb   $0xff,-0x8(%rbp)
    a28c:	74 0d                	je     a29b <safe_div_func_int8_t_s_s+0x31>
    a28e:	0f be 45 fc          	movsbl -0x4(%rbp),%eax
    a292:	0f be 4d f8          	movsbl -0x8(%rbp),%ecx
    a296:	99                   	cltd   
    a297:	f7 f9                	idiv   %ecx
    a299:	eb 04                	jmp    a29f <safe_div_func_int8_t_s_s+0x35>
    a29b:	0f b6 45 fc          	movzbl -0x4(%rbp),%eax
    a29f:	5d                   	pop    %rbp
    a2a0:	c3                   	retq   

000000000000a2a1 <safe_lshift_func_int8_t_s_s>:
    a2a1:	f3 0f 1e fa          	endbr64 
    a2a5:	55                   	push   %rbp
    a2a6:	48 89 e5             	mov    %rsp,%rbp
    a2a9:	89 f8                	mov    %edi,%eax
    a2ab:	89 75 f8             	mov    %esi,-0x8(%rbp)
    a2ae:	88 45 fc             	mov    %al,-0x4(%rbp)
    a2b1:	80 7d fc 00          	cmpb   $0x0,-0x4(%rbp)
    a2b5:	78 31                	js     a2e8 <safe_lshift_func_int8_t_s_s+0x47>
    a2b7:	83 7d f8 00          	cmpl   $0x0,-0x8(%rbp)
    a2bb:	78 2b                	js     a2e8 <safe_lshift_func_int8_t_s_s+0x47>
    a2bd:	83 7d f8 1f          	cmpl   $0x1f,-0x8(%rbp)
    a2c1:	7f 25                	jg     a2e8 <safe_lshift_func_int8_t_s_s+0x47>
    a2c3:	0f be 55 fc          	movsbl -0x4(%rbp),%edx
    a2c7:	8b 45 f8             	mov    -0x8(%rbp),%eax
    a2ca:	be 7f 00 00 00       	mov    $0x7f,%esi
    a2cf:	89 c1                	mov    %eax,%ecx
    a2d1:	d3 fe                	sar    %cl,%esi
    a2d3:	89 f0                	mov    %esi,%eax
    a2d5:	39 c2                	cmp    %eax,%edx
    a2d7:	7f 0f                	jg     a2e8 <safe_lshift_func_int8_t_s_s+0x47>
    a2d9:	0f be 55 fc          	movsbl -0x4(%rbp),%edx
    a2dd:	8b 45 f8             	mov    -0x8(%rbp),%eax
    a2e0:	89 c1                	mov    %eax,%ecx
    a2e2:	d3 e2                	shl    %cl,%edx
    a2e4:	89 d0                	mov    %edx,%eax
    a2e6:	eb 04                	jmp    a2ec <safe_lshift_func_int8_t_s_s+0x4b>
    a2e8:	0f b6 45 fc          	movzbl -0x4(%rbp),%eax
    a2ec:	5d                   	pop    %rbp
    a2ed:	c3                   	retq   

000000000000a2ee <safe_lshift_func_int8_t_s_u>:
    a2ee:	f3 0f 1e fa          	endbr64 
    a2f2:	55                   	push   %rbp
    a2f3:	48 89 e5             	mov    %rsp,%rbp
    a2f6:	89 f8                	mov    %edi,%eax
    a2f8:	89 75 f8             	mov    %esi,-0x8(%rbp)
    a2fb:	88 45 fc             	mov    %al,-0x4(%rbp)
    a2fe:	80 7d fc 00          	cmpb   $0x0,-0x4(%rbp)
    a302:	78 2b                	js     a32f <safe_lshift_func_int8_t_s_u+0x41>
    a304:	83 7d f8 1f          	cmpl   $0x1f,-0x8(%rbp)
    a308:	77 25                	ja     a32f <safe_lshift_func_int8_t_s_u+0x41>
    a30a:	0f be 55 fc          	movsbl -0x4(%rbp),%edx
    a30e:	8b 45 f8             	mov    -0x8(%rbp),%eax
    a311:	be 7f 00 00 00       	mov    $0x7f,%esi
    a316:	89 c1                	mov    %eax,%ecx
    a318:	d3 fe                	sar    %cl,%esi
    a31a:	89 f0                	mov    %esi,%eax
    a31c:	39 c2                	cmp    %eax,%edx
    a31e:	7f 0f                	jg     a32f <safe_lshift_func_int8_t_s_u+0x41>
    a320:	0f be 55 fc          	movsbl -0x4(%rbp),%edx
    a324:	8b 45 f8             	mov    -0x8(%rbp),%eax
    a327:	89 c1                	mov    %eax,%ecx
    a329:	d3 e2                	shl    %cl,%edx
    a32b:	89 d0                	mov    %edx,%eax
    a32d:	eb 04                	jmp    a333 <safe_lshift_func_int8_t_s_u+0x45>
    a32f:	0f b6 45 fc          	movzbl -0x4(%rbp),%eax
    a333:	5d                   	pop    %rbp
    a334:	c3                   	retq   

000000000000a335 <safe_rshift_func_int8_t_s_s>:
    a335:	f3 0f 1e fa          	endbr64 
    a339:	55                   	push   %rbp
    a33a:	48 89 e5             	mov    %rsp,%rbp
    a33d:	89 f8                	mov    %edi,%eax
    a33f:	89 75 f8             	mov    %esi,-0x8(%rbp)
    a342:	88 45 fc             	mov    %al,-0x4(%rbp)
    a345:	80 7d fc 00          	cmpb   $0x0,-0x4(%rbp)
    a349:	78 1b                	js     a366 <safe_rshift_func_int8_t_s_s+0x31>
    a34b:	83 7d f8 00          	cmpl   $0x0,-0x8(%rbp)
    a34f:	78 15                	js     a366 <safe_rshift_func_int8_t_s_s+0x31>
    a351:	83 7d f8 1f          	cmpl   $0x1f,-0x8(%rbp)
    a355:	7f 0f                	jg     a366 <safe_rshift_func_int8_t_s_s+0x31>
    a357:	0f be 55 fc          	movsbl -0x4(%rbp),%edx
    a35b:	8b 45 f8             	mov    -0x8(%rbp),%eax
    a35e:	89 c1                	mov    %eax,%ecx
    a360:	d3 fa                	sar    %cl,%edx
    a362:	89 d0                	mov    %edx,%eax
    a364:	eb 04                	jmp    a36a <safe_rshift_func_int8_t_s_s+0x35>
    a366:	0f b6 45 fc          	movzbl -0x4(%rbp),%eax
    a36a:	5d                   	pop    %rbp
    a36b:	c3                   	retq   

000000000000a36c <safe_rshift_func_int8_t_s_u>:
    a36c:	f3 0f 1e fa          	endbr64 
    a370:	55                   	push   %rbp
    a371:	48 89 e5             	mov    %rsp,%rbp
    a374:	89 f8                	mov    %edi,%eax
    a376:	89 75 f8             	mov    %esi,-0x8(%rbp)
    a379:	88 45 fc             	mov    %al,-0x4(%rbp)
    a37c:	80 7d fc 00          	cmpb   $0x0,-0x4(%rbp)
    a380:	78 15                	js     a397 <safe_rshift_func_int8_t_s_u+0x2b>
    a382:	83 7d f8 1f          	cmpl   $0x1f,-0x8(%rbp)
    a386:	77 0f                	ja     a397 <safe_rshift_func_int8_t_s_u+0x2b>
    a388:	0f be 55 fc          	movsbl -0x4(%rbp),%edx
    a38c:	8b 45 f8             	mov    -0x8(%rbp),%eax
    a38f:	89 c1                	mov    %eax,%ecx
    a391:	d3 fa                	sar    %cl,%edx
    a393:	89 d0                	mov    %edx,%eax
    a395:	eb 04                	jmp    a39b <safe_rshift_func_int8_t_s_u+0x2f>
    a397:	0f b6 45 fc          	movzbl -0x4(%rbp),%eax
    a39b:	5d                   	pop    %rbp
    a39c:	c3                   	retq   

000000000000a39d <safe_unary_minus_func_int16_t_s>:
    a39d:	f3 0f 1e fa          	endbr64 
    a3a1:	55                   	push   %rbp
    a3a2:	48 89 e5             	mov    %rsp,%rbp
    a3a5:	89 f8                	mov    %edi,%eax
    a3a7:	66 89 45 fc          	mov    %ax,-0x4(%rbp)
    a3ab:	0f b7 45 fc          	movzwl -0x4(%rbp),%eax
    a3af:	f7 d8                	neg    %eax
    a3b1:	5d                   	pop    %rbp
    a3b2:	c3                   	retq   

000000000000a3b3 <safe_add_func_int16_t_s_s>:
    a3b3:	f3 0f 1e fa          	endbr64 
    a3b7:	55                   	push   %rbp
    a3b8:	48 89 e5             	mov    %rsp,%rbp
    a3bb:	89 fa                	mov    %edi,%edx
    a3bd:	89 f0                	mov    %esi,%eax
    a3bf:	66 89 55 fc          	mov    %dx,-0x4(%rbp)
    a3c3:	66 89 45 f8          	mov    %ax,-0x8(%rbp)
    a3c7:	0f b7 55 fc          	movzwl -0x4(%rbp),%edx
    a3cb:	0f b7 45 f8          	movzwl -0x8(%rbp),%eax
    a3cf:	01 d0                	add    %edx,%eax
    a3d1:	5d                   	pop    %rbp
    a3d2:	c3                   	retq   

000000000000a3d3 <safe_sub_func_int16_t_s_s>:
    a3d3:	f3 0f 1e fa          	endbr64 
    a3d7:	55                   	push   %rbp
    a3d8:	48 89 e5             	mov    %rsp,%rbp
    a3db:	89 fa                	mov    %edi,%edx
    a3dd:	89 f0                	mov    %esi,%eax
    a3df:	66 89 55 fc          	mov    %dx,-0x4(%rbp)
    a3e3:	66 89 45 f8          	mov    %ax,-0x8(%rbp)
    a3e7:	0f b7 55 fc          	movzwl -0x4(%rbp),%edx
    a3eb:	0f b7 45 f8          	movzwl -0x8(%rbp),%eax
    a3ef:	29 c2                	sub    %eax,%edx
    a3f1:	89 d0                	mov    %edx,%eax
    a3f3:	5d                   	pop    %rbp
    a3f4:	c3                   	retq   

000000000000a3f5 <safe_mul_func_int16_t_s_s>:
    a3f5:	f3 0f 1e fa          	endbr64 
    a3f9:	55                   	push   %rbp
    a3fa:	48 89 e5             	mov    %rsp,%rbp
    a3fd:	89 fa                	mov    %edi,%edx
    a3ff:	89 f0                	mov    %esi,%eax
    a401:	66 89 55 fc          	mov    %dx,-0x4(%rbp)
    a405:	66 89 45 f8          	mov    %ax,-0x8(%rbp)
    a409:	0f b7 55 fc          	movzwl -0x4(%rbp),%edx
    a40d:	0f b7 45 f8          	movzwl -0x8(%rbp),%eax
    a411:	0f af c2             	imul   %edx,%eax
    a414:	5d                   	pop    %rbp
    a415:	c3                   	retq   

000000000000a416 <safe_mod_func_int16_t_s_s>:
    a416:	f3 0f 1e fa          	endbr64 
    a41a:	55                   	push   %rbp
    a41b:	48 89 e5             	mov    %rsp,%rbp
    a41e:	89 fa                	mov    %edi,%edx
    a420:	89 f0                	mov    %esi,%eax
    a422:	66 89 55 fc          	mov    %dx,-0x4(%rbp)
    a426:	66 89 45 f8          	mov    %ax,-0x8(%rbp)
    a42a:	66 83 7d f8 00       	cmpw   $0x0,-0x8(%rbp)
    a42f:	74 1e                	je     a44f <safe_mod_func_int16_t_s_s+0x39>
    a431:	66 81 7d fc 00 80    	cmpw   $0x8000,-0x4(%rbp)
    a437:	75 07                	jne    a440 <safe_mod_func_int16_t_s_s+0x2a>
    a439:	66 83 7d f8 ff       	cmpw   $0xffff,-0x8(%rbp)
    a43e:	74 0f                	je     a44f <safe_mod_func_int16_t_s_s+0x39>
    a440:	0f bf 45 fc          	movswl -0x4(%rbp),%eax
    a444:	0f bf 4d f8          	movswl -0x8(%rbp),%ecx
    a448:	99                   	cltd   
    a449:	f7 f9                	idiv   %ecx
    a44b:	89 d0                	mov    %edx,%eax
    a44d:	eb 04                	jmp    a453 <safe_mod_func_int16_t_s_s+0x3d>
    a44f:	0f b7 45 fc          	movzwl -0x4(%rbp),%eax
    a453:	5d                   	pop    %rbp
    a454:	c3                   	retq   

000000000000a455 <safe_div_func_int16_t_s_s>:
    a455:	f3 0f 1e fa          	endbr64 
    a459:	55                   	push   %rbp
    a45a:	48 89 e5             	mov    %rsp,%rbp
    a45d:	89 fa                	mov    %edi,%edx
    a45f:	89 f0                	mov    %esi,%eax
    a461:	66 89 55 fc          	mov    %dx,-0x4(%rbp)
    a465:	66 89 45 f8          	mov    %ax,-0x8(%rbp)
    a469:	66 83 7d f8 00       	cmpw   $0x0,-0x8(%rbp)
    a46e:	74 1c                	je     a48c <safe_div_func_int16_t_s_s+0x37>
    a470:	66 81 7d fc 00 80    	cmpw   $0x8000,-0x4(%rbp)
    a476:	75 07                	jne    a47f <safe_div_func_int16_t_s_s+0x2a>
    a478:	66 83 7d f8 ff       	cmpw   $0xffff,-0x8(%rbp)
    a47d:	74 0d                	je     a48c <safe_div_func_int16_t_s_s+0x37>
    a47f:	0f bf 45 fc          	movswl -0x4(%rbp),%eax
    a483:	0f bf 4d f8          	movswl -0x8(%rbp),%ecx
    a487:	99                   	cltd   
    a488:	f7 f9                	idiv   %ecx
    a48a:	eb 04                	jmp    a490 <safe_div_func_int16_t_s_s+0x3b>
    a48c:	0f b7 45 fc          	movzwl -0x4(%rbp),%eax
    a490:	5d                   	pop    %rbp
    a491:	c3                   	retq   

000000000000a492 <safe_lshift_func_int16_t_s_s>:
    a492:	f3 0f 1e fa          	endbr64 
    a496:	55                   	push   %rbp
    a497:	48 89 e5             	mov    %rsp,%rbp
    a49a:	89 f8                	mov    %edi,%eax
    a49c:	89 75 f8             	mov    %esi,-0x8(%rbp)
    a49f:	66 89 45 fc          	mov    %ax,-0x4(%rbp)
    a4a3:	66 83 7d fc 00       	cmpw   $0x0,-0x4(%rbp)
    a4a8:	78 31                	js     a4db <safe_lshift_func_int16_t_s_s+0x49>
    a4aa:	83 7d f8 00          	cmpl   $0x0,-0x8(%rbp)
    a4ae:	78 2b                	js     a4db <safe_lshift_func_int16_t_s_s+0x49>
    a4b0:	83 7d f8 1f          	cmpl   $0x1f,-0x8(%rbp)
    a4b4:	7f 25                	jg     a4db <safe_lshift_func_int16_t_s_s+0x49>
    a4b6:	0f bf 55 fc          	movswl -0x4(%rbp),%edx
    a4ba:	8b 45 f8             	mov    -0x8(%rbp),%eax
    a4bd:	be ff 7f 00 00       	mov    $0x7fff,%esi
    a4c2:	89 c1                	mov    %eax,%ecx
    a4c4:	d3 fe                	sar    %cl,%esi
    a4c6:	89 f0                	mov    %esi,%eax
    a4c8:	39 c2                	cmp    %eax,%edx
    a4ca:	7f 0f                	jg     a4db <safe_lshift_func_int16_t_s_s+0x49>
    a4cc:	0f bf 55 fc          	movswl -0x4(%rbp),%edx
    a4d0:	8b 45 f8             	mov    -0x8(%rbp),%eax
    a4d3:	89 c1                	mov    %eax,%ecx
    a4d5:	d3 e2                	shl    %cl,%edx
    a4d7:	89 d0                	mov    %edx,%eax
    a4d9:	eb 04                	jmp    a4df <safe_lshift_func_int16_t_s_s+0x4d>
    a4db:	0f b7 45 fc          	movzwl -0x4(%rbp),%eax
    a4df:	5d                   	pop    %rbp
    a4e0:	c3                   	retq   

000000000000a4e1 <safe_lshift_func_int16_t_s_u>:
    a4e1:	f3 0f 1e fa          	endbr64 
    a4e5:	55                   	push   %rbp
    a4e6:	48 89 e5             	mov    %rsp,%rbp
    a4e9:	89 f8                	mov    %edi,%eax
    a4eb:	89 75 f8             	mov    %esi,-0x8(%rbp)
    a4ee:	66 89 45 fc          	mov    %ax,-0x4(%rbp)
    a4f2:	66 83 7d fc 00       	cmpw   $0x0,-0x4(%rbp)
    a4f7:	78 2b                	js     a524 <safe_lshift_func_int16_t_s_u+0x43>
    a4f9:	83 7d f8 1f          	cmpl   $0x1f,-0x8(%rbp)
    a4fd:	77 25                	ja     a524 <safe_lshift_func_int16_t_s_u+0x43>
    a4ff:	0f bf 55 fc          	movswl -0x4(%rbp),%edx
    a503:	8b 45 f8             	mov    -0x8(%rbp),%eax
    a506:	be ff 7f 00 00       	mov    $0x7fff,%esi
    a50b:	89 c1                	mov    %eax,%ecx
    a50d:	d3 fe                	sar    %cl,%esi
    a50f:	89 f0                	mov    %esi,%eax
    a511:	39 c2                	cmp    %eax,%edx
    a513:	7f 0f                	jg     a524 <safe_lshift_func_int16_t_s_u+0x43>
    a515:	0f bf 55 fc          	movswl -0x4(%rbp),%edx
    a519:	8b 45 f8             	mov    -0x8(%rbp),%eax
    a51c:	89 c1                	mov    %eax,%ecx
    a51e:	d3 e2                	shl    %cl,%edx
    a520:	89 d0                	mov    %edx,%eax
    a522:	eb 04                	jmp    a528 <safe_lshift_func_int16_t_s_u+0x47>
    a524:	0f b7 45 fc          	movzwl -0x4(%rbp),%eax
    a528:	5d                   	pop    %rbp
    a529:	c3                   	retq   

000000000000a52a <safe_rshift_func_int16_t_s_s>:
    a52a:	f3 0f 1e fa          	endbr64 
    a52e:	55                   	push   %rbp
    a52f:	48 89 e5             	mov    %rsp,%rbp
    a532:	89 f8                	mov    %edi,%eax
    a534:	89 75 f8             	mov    %esi,-0x8(%rbp)
    a537:	66 89 45 fc          	mov    %ax,-0x4(%rbp)
    a53b:	66 83 7d fc 00       	cmpw   $0x0,-0x4(%rbp)
    a540:	78 1b                	js     a55d <safe_rshift_func_int16_t_s_s+0x33>
    a542:	83 7d f8 00          	cmpl   $0x0,-0x8(%rbp)
    a546:	78 15                	js     a55d <safe_rshift_func_int16_t_s_s+0x33>
    a548:	83 7d f8 1f          	cmpl   $0x1f,-0x8(%rbp)
    a54c:	7f 0f                	jg     a55d <safe_rshift_func_int16_t_s_s+0x33>
    a54e:	0f bf 55 fc          	movswl -0x4(%rbp),%edx
    a552:	8b 45 f8             	mov    -0x8(%rbp),%eax
    a555:	89 c1                	mov    %eax,%ecx
    a557:	d3 fa                	sar    %cl,%edx
    a559:	89 d0                	mov    %edx,%eax
    a55b:	eb 04                	jmp    a561 <safe_rshift_func_int16_t_s_s+0x37>
    a55d:	0f b7 45 fc          	movzwl -0x4(%rbp),%eax
    a561:	5d                   	pop    %rbp
    a562:	c3                   	retq   

000000000000a563 <safe_rshift_func_int16_t_s_u>:
    a563:	f3 0f 1e fa          	endbr64 
    a567:	55                   	push   %rbp
    a568:	48 89 e5             	mov    %rsp,%rbp
    a56b:	89 f8                	mov    %edi,%eax
    a56d:	89 75 f8             	mov    %esi,-0x8(%rbp)
    a570:	66 89 45 fc          	mov    %ax,-0x4(%rbp)
    a574:	66 83 7d fc 00       	cmpw   $0x0,-0x4(%rbp)
    a579:	78 15                	js     a590 <safe_rshift_func_int16_t_s_u+0x2d>
    a57b:	83 7d f8 1f          	cmpl   $0x1f,-0x8(%rbp)
    a57f:	77 0f                	ja     a590 <safe_rshift_func_int16_t_s_u+0x2d>
    a581:	0f bf 55 fc          	movswl -0x4(%rbp),%edx
    a585:	8b 45 f8             	mov    -0x8(%rbp),%eax
    a588:	89 c1                	mov    %eax,%ecx
    a58a:	d3 fa                	sar    %cl,%edx
    a58c:	89 d0                	mov    %edx,%eax
    a58e:	eb 04                	jmp    a594 <safe_rshift_func_int16_t_s_u+0x31>
    a590:	0f b7 45 fc          	movzwl -0x4(%rbp),%eax
    a594:	5d                   	pop    %rbp
    a595:	c3                   	retq   

000000000000a596 <safe_unary_minus_func_int32_t_s>:
    a596:	f3 0f 1e fa          	endbr64 
    a59a:	55                   	push   %rbp
    a59b:	48 89 e5             	mov    %rsp,%rbp
    a59e:	89 7d fc             	mov    %edi,-0x4(%rbp)
    a5a1:	81 7d fc 00 00 00 80 	cmpl   $0x80000000,-0x4(%rbp)
    a5a8:	74 07                	je     a5b1 <safe_unary_minus_func_int32_t_s+0x1b>
    a5aa:	8b 45 fc             	mov    -0x4(%rbp),%eax
    a5ad:	f7 d8                	neg    %eax
    a5af:	eb 03                	jmp    a5b4 <safe_unary_minus_func_int32_t_s+0x1e>
    a5b1:	8b 45 fc             	mov    -0x4(%rbp),%eax
    a5b4:	5d                   	pop    %rbp
    a5b5:	c3                   	retq   

000000000000a5b6 <safe_add_func_int32_t_s_s>:
    a5b6:	f3 0f 1e fa          	endbr64 
    a5ba:	55                   	push   %rbp
    a5bb:	48 89 e5             	mov    %rsp,%rbp
    a5be:	89 7d fc             	mov    %edi,-0x4(%rbp)
    a5c1:	89 75 f8             	mov    %esi,-0x8(%rbp)
    a5c4:	83 7d fc 00          	cmpl   $0x0,-0x4(%rbp)
    a5c8:	7e 13                	jle    a5dd <safe_add_func_int32_t_s_s+0x27>
    a5ca:	83 7d f8 00          	cmpl   $0x0,-0x8(%rbp)
    a5ce:	7e 0d                	jle    a5dd <safe_add_func_int32_t_s_s+0x27>
    a5d0:	b8 ff ff ff 7f       	mov    $0x7fffffff,%eax
    a5d5:	2b 45 f8             	sub    -0x8(%rbp),%eax
    a5d8:	39 45 fc             	cmp    %eax,-0x4(%rbp)
    a5db:	7f 23                	jg     a600 <safe_add_func_int32_t_s_s+0x4a>
    a5dd:	83 7d fc 00          	cmpl   $0x0,-0x4(%rbp)
    a5e1:	79 13                	jns    a5f6 <safe_add_func_int32_t_s_s+0x40>
    a5e3:	83 7d f8 00          	cmpl   $0x0,-0x8(%rbp)
    a5e7:	79 0d                	jns    a5f6 <safe_add_func_int32_t_s_s+0x40>
    a5e9:	b8 00 00 00 80       	mov    $0x80000000,%eax
    a5ee:	2b 45 f8             	sub    -0x8(%rbp),%eax
    a5f1:	39 45 fc             	cmp    %eax,-0x4(%rbp)
    a5f4:	7c 0a                	jl     a600 <safe_add_func_int32_t_s_s+0x4a>
    a5f6:	8b 55 fc             	mov    -0x4(%rbp),%edx
    a5f9:	8b 45 f8             	mov    -0x8(%rbp),%eax
    a5fc:	01 d0                	add    %edx,%eax
    a5fe:	eb 03                	jmp    a603 <safe_add_func_int32_t_s_s+0x4d>
    a600:	8b 45 fc             	mov    -0x4(%rbp),%eax
    a603:	5d                   	pop    %rbp
    a604:	c3                   	retq   

000000000000a605 <safe_sub_func_int32_t_s_s>:
    a605:	f3 0f 1e fa          	endbr64 
    a609:	55                   	push   %rbp
    a60a:	48 89 e5             	mov    %rsp,%rbp
    a60d:	89 7d fc             	mov    %edi,-0x4(%rbp)
    a610:	89 75 f8             	mov    %esi,-0x8(%rbp)
    a613:	8b 45 fc             	mov    -0x4(%rbp),%eax
    a616:	33 45 f8             	xor    -0x8(%rbp),%eax
    a619:	89 c2                	mov    %eax,%edx
    a61b:	8b 45 fc             	mov    -0x4(%rbp),%eax
    a61e:	33 45 f8             	xor    -0x8(%rbp),%eax
    a621:	25 00 00 00 80       	and    $0x80000000,%eax
    a626:	33 45 fc             	xor    -0x4(%rbp),%eax
    a629:	2b 45 f8             	sub    -0x8(%rbp),%eax
    a62c:	33 45 f8             	xor    -0x8(%rbp),%eax
    a62f:	21 d0                	and    %edx,%eax
    a631:	85 c0                	test   %eax,%eax
    a633:	78 08                	js     a63d <safe_sub_func_int32_t_s_s+0x38>
    a635:	8b 45 fc             	mov    -0x4(%rbp),%eax
    a638:	2b 45 f8             	sub    -0x8(%rbp),%eax
    a63b:	eb 03                	jmp    a640 <safe_sub_func_int32_t_s_s+0x3b>
    a63d:	8b 45 fc             	mov    -0x4(%rbp),%eax
    a640:	5d                   	pop    %rbp
    a641:	c3                   	retq   

000000000000a642 <safe_mul_func_int32_t_s_s>:
    a642:	f3 0f 1e fa          	endbr64 
    a646:	55                   	push   %rbp
    a647:	48 89 e5             	mov    %rsp,%rbp
    a64a:	89 7d fc             	mov    %edi,-0x4(%rbp)
    a64d:	89 75 f8             	mov    %esi,-0x8(%rbp)
    a650:	83 7d fc 00          	cmpl   $0x0,-0x4(%rbp)
    a654:	7e 14                	jle    a66a <safe_mul_func_int32_t_s_s+0x28>
    a656:	83 7d f8 00          	cmpl   $0x0,-0x8(%rbp)
    a65a:	7e 0e                	jle    a66a <safe_mul_func_int32_t_s_s+0x28>
    a65c:	b8 ff ff ff 7f       	mov    $0x7fffffff,%eax
    a661:	99                   	cltd   
    a662:	f7 7d f8             	idivl  -0x8(%rbp)
    a665:	39 45 fc             	cmp    %eax,-0x4(%rbp)
    a668:	7f 5d                	jg     a6c7 <safe_mul_func_int32_t_s_s+0x85>
    a66a:	83 7d fc 00          	cmpl   $0x0,-0x4(%rbp)
    a66e:	7e 14                	jle    a684 <safe_mul_func_int32_t_s_s+0x42>
    a670:	83 7d f8 00          	cmpl   $0x0,-0x8(%rbp)
    a674:	7f 0e                	jg     a684 <safe_mul_func_int32_t_s_s+0x42>
    a676:	b8 00 00 00 80       	mov    $0x80000000,%eax
    a67b:	99                   	cltd   
    a67c:	f7 7d fc             	idivl  -0x4(%rbp)
    a67f:	39 45 f8             	cmp    %eax,-0x8(%rbp)
    a682:	7c 43                	jl     a6c7 <safe_mul_func_int32_t_s_s+0x85>
    a684:	83 7d fc 00          	cmpl   $0x0,-0x4(%rbp)
    a688:	7f 14                	jg     a69e <safe_mul_func_int32_t_s_s+0x5c>
    a68a:	83 7d f8 00          	cmpl   $0x0,-0x8(%rbp)
    a68e:	7e 0e                	jle    a69e <safe_mul_func_int32_t_s_s+0x5c>
    a690:	b8 00 00 00 80       	mov    $0x80000000,%eax
    a695:	99                   	cltd   
    a696:	f7 7d f8             	idivl  -0x8(%rbp)
    a699:	39 45 fc             	cmp    %eax,-0x4(%rbp)
    a69c:	7c 29                	jl     a6c7 <safe_mul_func_int32_t_s_s+0x85>
    a69e:	83 7d fc 00          	cmpl   $0x0,-0x4(%rbp)
    a6a2:	7f 1a                	jg     a6be <safe_mul_func_int32_t_s_s+0x7c>
    a6a4:	83 7d f8 00          	cmpl   $0x0,-0x8(%rbp)
    a6a8:	7f 14                	jg     a6be <safe_mul_func_int32_t_s_s+0x7c>
    a6aa:	83 7d fc 00          	cmpl   $0x0,-0x4(%rbp)
    a6ae:	74 0e                	je     a6be <safe_mul_func_int32_t_s_s+0x7c>
    a6b0:	b8 ff ff ff 7f       	mov    $0x7fffffff,%eax
    a6b5:	99                   	cltd   
    a6b6:	f7 7d fc             	idivl  -0x4(%rbp)
    a6b9:	39 45 f8             	cmp    %eax,-0x8(%rbp)
    a6bc:	7c 09                	jl     a6c7 <safe_mul_func_int32_t_s_s+0x85>
    a6be:	8b 45 fc             	mov    -0x4(%rbp),%eax
    a6c1:	0f af 45 f8          	imul   -0x8(%rbp),%eax
    a6c5:	eb 03                	jmp    a6ca <safe_mul_func_int32_t_s_s+0x88>
    a6c7:	8b 45 fc             	mov    -0x4(%rbp),%eax
    a6ca:	5d                   	pop    %rbp
    a6cb:	c3                   	retq   

000000000000a6cc <safe_mod_func_int32_t_s_s>:
    a6cc:	f3 0f 1e fa          	endbr64 
    a6d0:	55                   	push   %rbp
    a6d1:	48 89 e5             	mov    %rsp,%rbp
    a6d4:	89 7d fc             	mov    %edi,-0x4(%rbp)
    a6d7:	89 75 f8             	mov    %esi,-0x8(%rbp)
    a6da:	83 7d f8 00          	cmpl   $0x0,-0x8(%rbp)
    a6de:	74 1a                	je     a6fa <safe_mod_func_int32_t_s_s+0x2e>
    a6e0:	81 7d fc 00 00 00 80 	cmpl   $0x80000000,-0x4(%rbp)
    a6e7:	75 06                	jne    a6ef <safe_mod_func_int32_t_s_s+0x23>
    a6e9:	83 7d f8 ff          	cmpl   $0xffffffff,-0x8(%rbp)
    a6ed:	74 0b                	je     a6fa <safe_mod_func_int32_t_s_s+0x2e>
    a6ef:	8b 45 fc             	mov    -0x4(%rbp),%eax
    a6f2:	99                   	cltd   
    a6f3:	f7 7d f8             	idivl  -0x8(%rbp)
    a6f6:	89 d0                	mov    %edx,%eax
    a6f8:	eb 03                	jmp    a6fd <safe_mod_func_int32_t_s_s+0x31>
    a6fa:	8b 45 fc             	mov    -0x4(%rbp),%eax
    a6fd:	5d                   	pop    %rbp
    a6fe:	c3                   	retq   

000000000000a6ff <safe_div_func_int32_t_s_s>:
    a6ff:	f3 0f 1e fa          	endbr64 
    a703:	55                   	push   %rbp
    a704:	48 89 e5             	mov    %rsp,%rbp
    a707:	89 7d fc             	mov    %edi,-0x4(%rbp)
    a70a:	89 75 f8             	mov    %esi,-0x8(%rbp)
    a70d:	83 7d f8 00          	cmpl   $0x0,-0x8(%rbp)
    a711:	74 18                	je     a72b <safe_div_func_int32_t_s_s+0x2c>
    a713:	81 7d fc 00 00 00 80 	cmpl   $0x80000000,-0x4(%rbp)
    a71a:	75 06                	jne    a722 <safe_div_func_int32_t_s_s+0x23>
    a71c:	83 7d f8 ff          	cmpl   $0xffffffff,-0x8(%rbp)
    a720:	74 09                	je     a72b <safe_div_func_int32_t_s_s+0x2c>
    a722:	8b 45 fc             	mov    -0x4(%rbp),%eax
    a725:	99                   	cltd   
    a726:	f7 7d f8             	idivl  -0x8(%rbp)
    a729:	eb 03                	jmp    a72e <safe_div_func_int32_t_s_s+0x2f>
    a72b:	8b 45 fc             	mov    -0x4(%rbp),%eax
    a72e:	5d                   	pop    %rbp
    a72f:	c3                   	retq   

000000000000a730 <safe_lshift_func_int32_t_s_s>:
    a730:	f3 0f 1e fa          	endbr64 
    a734:	55                   	push   %rbp
    a735:	48 89 e5             	mov    %rsp,%rbp
    a738:	89 7d fc             	mov    %edi,-0x4(%rbp)
    a73b:	89 75 f8             	mov    %esi,-0x8(%rbp)
    a73e:	83 7d fc 00          	cmpl   $0x0,-0x4(%rbp)
    a742:	78 2d                	js     a771 <safe_lshift_func_int32_t_s_s+0x41>
    a744:	83 7d f8 00          	cmpl   $0x0,-0x8(%rbp)
    a748:	78 27                	js     a771 <safe_lshift_func_int32_t_s_s+0x41>
    a74a:	83 7d f8 1f          	cmpl   $0x1f,-0x8(%rbp)
    a74e:	7f 21                	jg     a771 <safe_lshift_func_int32_t_s_s+0x41>
    a750:	8b 45 f8             	mov    -0x8(%rbp),%eax
    a753:	ba ff ff ff 7f       	mov    $0x7fffffff,%edx
    a758:	89 c1                	mov    %eax,%ecx
    a75a:	d3 fa                	sar    %cl,%edx
    a75c:	89 d0                	mov    %edx,%eax
    a75e:	39 45 fc             	cmp    %eax,-0x4(%rbp)
    a761:	7f 0e                	jg     a771 <safe_lshift_func_int32_t_s_s+0x41>
    a763:	8b 45 f8             	mov    -0x8(%rbp),%eax
    a766:	8b 55 fc             	mov    -0x4(%rbp),%edx
    a769:	89 c1                	mov    %eax,%ecx
    a76b:	d3 e2                	shl    %cl,%edx
    a76d:	89 d0                	mov    %edx,%eax
    a76f:	eb 03                	jmp    a774 <safe_lshift_func_int32_t_s_s+0x44>
    a771:	8b 45 fc             	mov    -0x4(%rbp),%eax
    a774:	5d                   	pop    %rbp
    a775:	c3                   	retq   

000000000000a776 <safe_lshift_func_int32_t_s_u>:
    a776:	f3 0f 1e fa          	endbr64 
    a77a:	55                   	push   %rbp
    a77b:	48 89 e5             	mov    %rsp,%rbp
    a77e:	89 7d fc             	mov    %edi,-0x4(%rbp)
    a781:	89 75 f8             	mov    %esi,-0x8(%rbp)
    a784:	83 7d fc 00          	cmpl   $0x0,-0x4(%rbp)
    a788:	78 27                	js     a7b1 <safe_lshift_func_int32_t_s_u+0x3b>
    a78a:	83 7d f8 1f          	cmpl   $0x1f,-0x8(%rbp)
    a78e:	77 21                	ja     a7b1 <safe_lshift_func_int32_t_s_u+0x3b>
    a790:	8b 45 f8             	mov    -0x8(%rbp),%eax
    a793:	ba ff ff ff 7f       	mov    $0x7fffffff,%edx
    a798:	89 c1                	mov    %eax,%ecx
    a79a:	d3 fa                	sar    %cl,%edx
    a79c:	89 d0                	mov    %edx,%eax
    a79e:	39 45 fc             	cmp    %eax,-0x4(%rbp)
    a7a1:	7f 0e                	jg     a7b1 <safe_lshift_func_int32_t_s_u+0x3b>
    a7a3:	8b 45 f8             	mov    -0x8(%rbp),%eax
    a7a6:	8b 55 fc             	mov    -0x4(%rbp),%edx
    a7a9:	89 c1                	mov    %eax,%ecx
    a7ab:	d3 e2                	shl    %cl,%edx
    a7ad:	89 d0                	mov    %edx,%eax
    a7af:	eb 03                	jmp    a7b4 <safe_lshift_func_int32_t_s_u+0x3e>
    a7b1:	8b 45 fc             	mov    -0x4(%rbp),%eax
    a7b4:	5d                   	pop    %rbp
    a7b5:	c3                   	retq   

000000000000a7b6 <safe_rshift_func_int32_t_s_s>:
    a7b6:	f3 0f 1e fa          	endbr64 
    a7ba:	55                   	push   %rbp
    a7bb:	48 89 e5             	mov    %rsp,%rbp
    a7be:	89 7d fc             	mov    %edi,-0x4(%rbp)
    a7c1:	89 75 f8             	mov    %esi,-0x8(%rbp)
    a7c4:	83 7d fc 00          	cmpl   $0x0,-0x4(%rbp)
    a7c8:	78 1a                	js     a7e4 <safe_rshift_func_int32_t_s_s+0x2e>
    a7ca:	83 7d f8 00          	cmpl   $0x0,-0x8(%rbp)
    a7ce:	78 14                	js     a7e4 <safe_rshift_func_int32_t_s_s+0x2e>
    a7d0:	83 7d f8 1f          	cmpl   $0x1f,-0x8(%rbp)
    a7d4:	7f 0e                	jg     a7e4 <safe_rshift_func_int32_t_s_s+0x2e>
    a7d6:	8b 45 f8             	mov    -0x8(%rbp),%eax
    a7d9:	8b 55 fc             	mov    -0x4(%rbp),%edx
    a7dc:	89 c1                	mov    %eax,%ecx
    a7de:	d3 fa                	sar    %cl,%edx
    a7e0:	89 d0                	mov    %edx,%eax
    a7e2:	eb 03                	jmp    a7e7 <safe_rshift_func_int32_t_s_s+0x31>
    a7e4:	8b 45 fc             	mov    -0x4(%rbp),%eax
    a7e7:	5d                   	pop    %rbp
    a7e8:	c3                   	retq   

000000000000a7e9 <safe_rshift_func_int32_t_s_u>:
    a7e9:	f3 0f 1e fa          	endbr64 
    a7ed:	55                   	push   %rbp
    a7ee:	48 89 e5             	mov    %rsp,%rbp
    a7f1:	89 7d fc             	mov    %edi,-0x4(%rbp)
    a7f4:	89 75 f8             	mov    %esi,-0x8(%rbp)
    a7f7:	83 7d fc 00          	cmpl   $0x0,-0x4(%rbp)
    a7fb:	78 14                	js     a811 <safe_rshift_func_int32_t_s_u+0x28>
    a7fd:	83 7d f8 1f          	cmpl   $0x1f,-0x8(%rbp)
    a801:	77 0e                	ja     a811 <safe_rshift_func_int32_t_s_u+0x28>
    a803:	8b 45 f8             	mov    -0x8(%rbp),%eax
    a806:	8b 55 fc             	mov    -0x4(%rbp),%edx
    a809:	89 c1                	mov    %eax,%ecx
    a80b:	d3 fa                	sar    %cl,%edx
    a80d:	89 d0                	mov    %edx,%eax
    a80f:	eb 03                	jmp    a814 <safe_rshift_func_int32_t_s_u+0x2b>
    a811:	8b 45 fc             	mov    -0x4(%rbp),%eax
    a814:	5d                   	pop    %rbp
    a815:	c3                   	retq   

000000000000a816 <safe_unary_minus_func_int64_t_s>:
    a816:	f3 0f 1e fa          	endbr64 
    a81a:	55                   	push   %rbp
    a81b:	48 89 e5             	mov    %rsp,%rbp
    a81e:	48 89 7d f8          	mov    %rdi,-0x8(%rbp)
    a822:	48 b8 00 00 00 00 00 	movabs $0x8000000000000000,%rax
    a829:	00 00 80 
    a82c:	48 39 45 f8          	cmp    %rax,-0x8(%rbp)
    a830:	74 09                	je     a83b <safe_unary_minus_func_int64_t_s+0x25>
    a832:	48 8b 45 f8          	mov    -0x8(%rbp),%rax
    a836:	48 f7 d8             	neg    %rax
    a839:	eb 04                	jmp    a83f <safe_unary_minus_func_int64_t_s+0x29>
    a83b:	48 8b 45 f8          	mov    -0x8(%rbp),%rax
    a83f:	5d                   	pop    %rbp
    a840:	c3                   	retq   

000000000000a841 <safe_add_func_int64_t_s_s>:
    a841:	f3 0f 1e fa          	endbr64 
    a845:	55                   	push   %rbp
    a846:	48 89 e5             	mov    %rsp,%rbp
    a849:	48 89 7d f8          	mov    %rdi,-0x8(%rbp)
    a84d:	48 89 75 f0          	mov    %rsi,-0x10(%rbp)
    a851:	48 83 7d f8 00       	cmpq   $0x0,-0x8(%rbp)
    a856:	7e 1b                	jle    a873 <safe_add_func_int64_t_s_s+0x32>
    a858:	48 83 7d f0 00       	cmpq   $0x0,-0x10(%rbp)
    a85d:	7e 14                	jle    a873 <safe_add_func_int64_t_s_s+0x32>
    a85f:	48 b8 ff ff ff ff ff 	movabs $0x7fffffffffffffff,%rax
    a866:	ff ff 7f 
    a869:	48 2b 45 f0          	sub    -0x10(%rbp),%rax
    a86d:	48 39 45 f8          	cmp    %rax,-0x8(%rbp)
    a871:	7f 2f                	jg     a8a2 <safe_add_func_int64_t_s_s+0x61>
    a873:	48 83 7d f8 00       	cmpq   $0x0,-0x8(%rbp)
    a878:	79 1b                	jns    a895 <safe_add_func_int64_t_s_s+0x54>
    a87a:	48 83 7d f0 00       	cmpq   $0x0,-0x10(%rbp)
    a87f:	79 14                	jns    a895 <safe_add_func_int64_t_s_s+0x54>
    a881:	48 b8 00 00 00 00 00 	movabs $0x8000000000000000,%rax
    a888:	00 00 80 
    a88b:	48 2b 45 f0          	sub    -0x10(%rbp),%rax
    a88f:	48 39 45 f8          	cmp    %rax,-0x8(%rbp)
    a893:	7c 0d                	jl     a8a2 <safe_add_func_int64_t_s_s+0x61>
    a895:	48 8b 55 f8          	mov    -0x8(%rbp),%rdx
    a899:	48 8b 45 f0          	mov    -0x10(%rbp),%rax
    a89d:	48 01 d0             	add    %rdx,%rax
    a8a0:	eb 04                	jmp    a8a6 <safe_add_func_int64_t_s_s+0x65>
    a8a2:	48 8b 45 f8          	mov    -0x8(%rbp),%rax
    a8a6:	5d                   	pop    %rbp
    a8a7:	c3                   	retq   

000000000000a8a8 <safe_sub_func_int64_t_s_s>:
    a8a8:	f3 0f 1e fa          	endbr64 
    a8ac:	55                   	push   %rbp
    a8ad:	48 89 e5             	mov    %rsp,%rbp
    a8b0:	48 89 7d f8          	mov    %rdi,-0x8(%rbp)
    a8b4:	48 89 75 f0          	mov    %rsi,-0x10(%rbp)
    a8b8:	48 8b 45 f8          	mov    -0x8(%rbp),%rax
    a8bc:	48 33 45 f0          	xor    -0x10(%rbp),%rax
    a8c0:	48 89 c2             	mov    %rax,%rdx
    a8c3:	48 8b 45 f8          	mov    -0x8(%rbp),%rax
    a8c7:	48 33 45 f0          	xor    -0x10(%rbp),%rax
    a8cb:	48 b9 00 00 00 00 00 	movabs $0x8000000000000000,%rcx
    a8d2:	00 00 80 
    a8d5:	48 21 c8             	and    %rcx,%rax
    a8d8:	48 33 45 f8          	xor    -0x8(%rbp),%rax
    a8dc:	48 2b 45 f0          	sub    -0x10(%rbp),%rax
    a8e0:	48 33 45 f0          	xor    -0x10(%rbp),%rax
    a8e4:	48 21 d0             	and    %rdx,%rax
    a8e7:	48 85 c0             	test   %rax,%rax
    a8ea:	78 0a                	js     a8f6 <safe_sub_func_int64_t_s_s+0x4e>
    a8ec:	48 8b 45 f8          	mov    -0x8(%rbp),%rax
    a8f0:	48 2b 45 f0          	sub    -0x10(%rbp),%rax
    a8f4:	eb 04                	jmp    a8fa <safe_sub_func_int64_t_s_s+0x52>
    a8f6:	48 8b 45 f8          	mov    -0x8(%rbp),%rax
    a8fa:	5d                   	pop    %rbp
    a8fb:	c3                   	retq   

000000000000a8fc <safe_mul_func_int64_t_s_s>:
    a8fc:	f3 0f 1e fa          	endbr64 
    a900:	55                   	push   %rbp
    a901:	48 89 e5             	mov    %rsp,%rbp
    a904:	48 89 7d f8          	mov    %rdi,-0x8(%rbp)
    a908:	48 89 75 f0          	mov    %rsi,-0x10(%rbp)
    a90c:	48 83 7d f8 00       	cmpq   $0x0,-0x8(%rbp)
    a911:	7e 1d                	jle    a930 <safe_mul_func_int64_t_s_s+0x34>
    a913:	48 83 7d f0 00       	cmpq   $0x0,-0x10(%rbp)
    a918:	7e 16                	jle    a930 <safe_mul_func_int64_t_s_s+0x34>
    a91a:	48 b8 ff ff ff ff ff 	movabs $0x7fffffffffffffff,%rax
    a921:	ff ff 7f 
    a924:	48 99                	cqto   
    a926:	48 f7 7d f0          	idivq  -0x10(%rbp)
    a92a:	48 39 45 f8          	cmp    %rax,-0x8(%rbp)
    a92e:	7f 7e                	jg     a9ae <safe_mul_func_int64_t_s_s+0xb2>
    a930:	48 83 7d f8 00       	cmpq   $0x0,-0x8(%rbp)
    a935:	7e 1d                	jle    a954 <safe_mul_func_int64_t_s_s+0x58>
    a937:	48 83 7d f0 00       	cmpq   $0x0,-0x10(%rbp)
    a93c:	7f 16                	jg     a954 <safe_mul_func_int64_t_s_s+0x58>
    a93e:	48 b8 00 00 00 00 00 	movabs $0x8000000000000000,%rax
    a945:	00 00 80 
    a948:	48 99                	cqto   
    a94a:	48 f7 7d f8          	idivq  -0x8(%rbp)
    a94e:	48 39 45 f0          	cmp    %rax,-0x10(%rbp)
    a952:	7c 5a                	jl     a9ae <safe_mul_func_int64_t_s_s+0xb2>
    a954:	48 83 7d f8 00       	cmpq   $0x0,-0x8(%rbp)
    a959:	7f 1d                	jg     a978 <safe_mul_func_int64_t_s_s+0x7c>
    a95b:	48 83 7d f0 00       	cmpq   $0x0,-0x10(%rbp)
    a960:	7e 16                	jle    a978 <safe_mul_func_int64_t_s_s+0x7c>
    a962:	48 b8 00 00 00 00 00 	movabs $0x8000000000000000,%rax
    a969:	00 00 80 
    a96c:	48 99                	cqto   
    a96e:	48 f7 7d f0          	idivq  -0x10(%rbp)
    a972:	48 39 45 f8          	cmp    %rax,-0x8(%rbp)
    a976:	7c 36                	jl     a9ae <safe_mul_func_int64_t_s_s+0xb2>
    a978:	48 83 7d f8 00       	cmpq   $0x0,-0x8(%rbp)
    a97d:	7f 24                	jg     a9a3 <safe_mul_func_int64_t_s_s+0xa7>
    a97f:	48 83 7d f0 00       	cmpq   $0x0,-0x10(%rbp)
    a984:	7f 1d                	jg     a9a3 <safe_mul_func_int64_t_s_s+0xa7>
    a986:	48 83 7d f8 00       	cmpq   $0x0,-0x8(%rbp)
    a98b:	74 16                	je     a9a3 <safe_mul_func_int64_t_s_s+0xa7>
    a98d:	48 b8 ff ff ff ff ff 	movabs $0x7fffffffffffffff,%rax
    a994:	ff ff 7f 
    a997:	48 99                	cqto   
    a999:	48 f7 7d f8          	idivq  -0x8(%rbp)
    a99d:	48 39 45 f0          	cmp    %rax,-0x10(%rbp)
    a9a1:	7c 0b                	jl     a9ae <safe_mul_func_int64_t_s_s+0xb2>
    a9a3:	48 8b 45 f8          	mov    -0x8(%rbp),%rax
    a9a7:	48 0f af 45 f0       	imul   -0x10(%rbp),%rax
    a9ac:	eb 04                	jmp    a9b2 <safe_mul_func_int64_t_s_s+0xb6>
    a9ae:	48 8b 45 f8          	mov    -0x8(%rbp),%rax
    a9b2:	5d                   	pop    %rbp
    a9b3:	c3                   	retq   

000000000000a9b4 <safe_mod_func_int64_t_s_s>:
    a9b4:	f3 0f 1e fa          	endbr64 
    a9b8:	55                   	push   %rbp
    a9b9:	48 89 e5             	mov    %rsp,%rbp
    a9bc:	48 89 7d f8          	mov    %rdi,-0x8(%rbp)
    a9c0:	48 89 75 f0          	mov    %rsi,-0x10(%rbp)
    a9c4:	48 83 7d f0 00       	cmpq   $0x0,-0x10(%rbp)
    a9c9:	74 26                	je     a9f1 <safe_mod_func_int64_t_s_s+0x3d>
    a9cb:	48 b8 00 00 00 00 00 	movabs $0x8000000000000000,%rax
    a9d2:	00 00 80 
    a9d5:	48 39 45 f8          	cmp    %rax,-0x8(%rbp)
    a9d9:	75 07                	jne    a9e2 <safe_mod_func_int64_t_s_s+0x2e>
    a9db:	48 83 7d f0 ff       	cmpq   $0xffffffffffffffff,-0x10(%rbp)
    a9e0:	74 0f                	je     a9f1 <safe_mod_func_int64_t_s_s+0x3d>
    a9e2:	48 8b 45 f8          	mov    -0x8(%rbp),%rax
    a9e6:	48 99                	cqto   
    a9e8:	48 f7 7d f0          	idivq  -0x10(%rbp)
    a9ec:	48 89 d0             	mov    %rdx,%rax
    a9ef:	eb 04                	jmp    a9f5 <safe_mod_func_int64_t_s_s+0x41>
    a9f1:	48 8b 45 f8          	mov    -0x8(%rbp),%rax
    a9f5:	5d                   	pop    %rbp
    a9f6:	c3                   	retq   

000000000000a9f7 <safe_div_func_int64_t_s_s>:
    a9f7:	f3 0f 1e fa          	endbr64 
    a9fb:	55                   	push   %rbp
    a9fc:	48 89 e5             	mov    %rsp,%rbp
    a9ff:	48 89 7d f8          	mov    %rdi,-0x8(%rbp)
    aa03:	48 89 75 f0          	mov    %rsi,-0x10(%rbp)
    aa07:	48 83 7d f0 00       	cmpq   $0x0,-0x10(%rbp)
    aa0c:	74 23                	je     aa31 <safe_div_func_int64_t_s_s+0x3a>
    aa0e:	48 b8 00 00 00 00 00 	movabs $0x8000000000000000,%rax
    aa15:	00 00 80 
    aa18:	48 39 45 f8          	cmp    %rax,-0x8(%rbp)
    aa1c:	75 07                	jne    aa25 <safe_div_func_int64_t_s_s+0x2e>
    aa1e:	48 83 7d f0 ff       	cmpq   $0xffffffffffffffff,-0x10(%rbp)
    aa23:	74 0c                	je     aa31 <safe_div_func_int64_t_s_s+0x3a>
    aa25:	48 8b 45 f8          	mov    -0x8(%rbp),%rax
    aa29:	48 99                	cqto   
    aa2b:	48 f7 7d f0          	idivq  -0x10(%rbp)
    aa2f:	eb 04                	jmp    aa35 <safe_div_func_int64_t_s_s+0x3e>
    aa31:	48 8b 45 f8          	mov    -0x8(%rbp),%rax
    aa35:	5d                   	pop    %rbp
    aa36:	c3                   	retq   

000000000000aa37 <safe_lshift_func_int64_t_s_s>:
    aa37:	f3 0f 1e fa          	endbr64 
    aa3b:	55                   	push   %rbp
    aa3c:	48 89 e5             	mov    %rsp,%rbp
    aa3f:	48 89 7d f8          	mov    %rdi,-0x8(%rbp)
    aa43:	89 75 f4             	mov    %esi,-0xc(%rbp)
    aa46:	48 83 7d f8 00       	cmpq   $0x0,-0x8(%rbp)
    aa4b:	78 38                	js     aa85 <safe_lshift_func_int64_t_s_s+0x4e>
    aa4d:	83 7d f4 00          	cmpl   $0x0,-0xc(%rbp)
    aa51:	78 32                	js     aa85 <safe_lshift_func_int64_t_s_s+0x4e>
    aa53:	83 7d f4 1f          	cmpl   $0x1f,-0xc(%rbp)
    aa57:	7f 2c                	jg     aa85 <safe_lshift_func_int64_t_s_s+0x4e>
    aa59:	8b 45 f4             	mov    -0xc(%rbp),%eax
    aa5c:	48 ba ff ff ff ff ff 	movabs $0x7fffffffffffffff,%rdx
    aa63:	ff ff 7f 
    aa66:	89 c1                	mov    %eax,%ecx
    aa68:	48 d3 fa             	sar    %cl,%rdx
    aa6b:	48 89 d0             	mov    %rdx,%rax
    aa6e:	48 39 45 f8          	cmp    %rax,-0x8(%rbp)
    aa72:	7f 11                	jg     aa85 <safe_lshift_func_int64_t_s_s+0x4e>
    aa74:	8b 45 f4             	mov    -0xc(%rbp),%eax
    aa77:	48 8b 55 f8          	mov    -0x8(%rbp),%rdx
    aa7b:	89 c1                	mov    %eax,%ecx
    aa7d:	48 d3 e2             	shl    %cl,%rdx
    aa80:	48 89 d0             	mov    %rdx,%rax
    aa83:	eb 04                	jmp    aa89 <safe_lshift_func_int64_t_s_s+0x52>
    aa85:	48 8b 45 f8          	mov    -0x8(%rbp),%rax
    aa89:	5d                   	pop    %rbp
    aa8a:	c3                   	retq   

000000000000aa8b <safe_lshift_func_int64_t_s_u>:
    aa8b:	f3 0f 1e fa          	endbr64 
    aa8f:	55                   	push   %rbp
    aa90:	48 89 e5             	mov    %rsp,%rbp
    aa93:	48 89 7d f8          	mov    %rdi,-0x8(%rbp)
    aa97:	89 75 f4             	mov    %esi,-0xc(%rbp)
    aa9a:	48 83 7d f8 00       	cmpq   $0x0,-0x8(%rbp)
    aa9f:	78 32                	js     aad3 <safe_lshift_func_int64_t_s_u+0x48>
    aaa1:	83 7d f4 1f          	cmpl   $0x1f,-0xc(%rbp)
    aaa5:	77 2c                	ja     aad3 <safe_lshift_func_int64_t_s_u+0x48>
    aaa7:	8b 45 f4             	mov    -0xc(%rbp),%eax
    aaaa:	48 ba ff ff ff ff ff 	movabs $0x7fffffffffffffff,%rdx
    aab1:	ff ff 7f 
    aab4:	89 c1                	mov    %eax,%ecx
    aab6:	48 d3 fa             	sar    %cl,%rdx
    aab9:	48 89 d0             	mov    %rdx,%rax
    aabc:	48 39 45 f8          	cmp    %rax,-0x8(%rbp)
    aac0:	7f 11                	jg     aad3 <safe_lshift_func_int64_t_s_u+0x48>
    aac2:	8b 45 f4             	mov    -0xc(%rbp),%eax
    aac5:	48 8b 55 f8          	mov    -0x8(%rbp),%rdx
    aac9:	89 c1                	mov    %eax,%ecx
    aacb:	48 d3 e2             	shl    %cl,%rdx
    aace:	48 89 d0             	mov    %rdx,%rax
    aad1:	eb 04                	jmp    aad7 <safe_lshift_func_int64_t_s_u+0x4c>
    aad3:	48 8b 45 f8          	mov    -0x8(%rbp),%rax
    aad7:	5d                   	pop    %rbp
    aad8:	c3                   	retq   

000000000000aad9 <safe_rshift_func_int64_t_s_s>:
    aad9:	f3 0f 1e fa          	endbr64 
    aadd:	55                   	push   %rbp
    aade:	48 89 e5             	mov    %rsp,%rbp
    aae1:	48 89 7d f8          	mov    %rdi,-0x8(%rbp)
    aae5:	89 75 f4             	mov    %esi,-0xc(%rbp)
    aae8:	48 83 7d f8 00       	cmpq   $0x0,-0x8(%rbp)
    aaed:	78 1d                	js     ab0c <safe_rshift_func_int64_t_s_s+0x33>
    aaef:	83 7d f4 00          	cmpl   $0x0,-0xc(%rbp)
    aaf3:	78 17                	js     ab0c <safe_rshift_func_int64_t_s_s+0x33>
    aaf5:	83 7d f4 1f          	cmpl   $0x1f,-0xc(%rbp)
    aaf9:	7f 11                	jg     ab0c <safe_rshift_func_int64_t_s_s+0x33>
    aafb:	8b 45 f4             	mov    -0xc(%rbp),%eax
    aafe:	48 8b 55 f8          	mov    -0x8(%rbp),%rdx
    ab02:	89 c1                	mov    %eax,%ecx
    ab04:	48 d3 fa             	sar    %cl,%rdx
    ab07:	48 89 d0             	mov    %rdx,%rax
    ab0a:	eb 04                	jmp    ab10 <safe_rshift_func_int64_t_s_s+0x37>
    ab0c:	48 8b 45 f8          	mov    -0x8(%rbp),%rax
    ab10:	5d                   	pop    %rbp
    ab11:	c3                   	retq   

000000000000ab12 <safe_rshift_func_int64_t_s_u>:
    ab12:	f3 0f 1e fa          	endbr64 
    ab16:	55                   	push   %rbp
    ab17:	48 89 e5             	mov    %rsp,%rbp
    ab1a:	48 89 7d f8          	mov    %rdi,-0x8(%rbp)
    ab1e:	89 75 f4             	mov    %esi,-0xc(%rbp)
    ab21:	48 83 7d f8 00       	cmpq   $0x0,-0x8(%rbp)
    ab26:	78 17                	js     ab3f <safe_rshift_func_int64_t_s_u+0x2d>
    ab28:	83 7d f4 1f          	cmpl   $0x1f,-0xc(%rbp)
    ab2c:	77 11                	ja     ab3f <safe_rshift_func_int64_t_s_u+0x2d>
    ab2e:	8b 45 f4             	mov    -0xc(%rbp),%eax
    ab31:	48 8b 55 f8          	mov    -0x8(%rbp),%rdx
    ab35:	89 c1                	mov    %eax,%ecx
    ab37:	48 d3 fa             	sar    %cl,%rdx
    ab3a:	48 89 d0             	mov    %rdx,%rax
    ab3d:	eb 04                	jmp    ab43 <safe_rshift_func_int64_t_s_u+0x31>
    ab3f:	48 8b 45 f8          	mov    -0x8(%rbp),%rax
    ab43:	5d                   	pop    %rbp
    ab44:	c3                   	retq   

000000000000ab45 <safe_unary_minus_func_uint8_t_u>:
    ab45:	f3 0f 1e fa          	endbr64 
    ab49:	55                   	push   %rbp
    ab4a:	48 89 e5             	mov    %rsp,%rbp
    ab4d:	89 f8                	mov    %edi,%eax
    ab4f:	88 45 fc             	mov    %al,-0x4(%rbp)
    ab52:	0f b6 45 fc          	movzbl -0x4(%rbp),%eax
    ab56:	f7 d8                	neg    %eax
    ab58:	5d                   	pop    %rbp
    ab59:	c3                   	retq   

000000000000ab5a <safe_add_func_uint8_t_u_u>:
    ab5a:	f3 0f 1e fa          	endbr64 
    ab5e:	55                   	push   %rbp
    ab5f:	48 89 e5             	mov    %rsp,%rbp
    ab62:	89 fa                	mov    %edi,%edx
    ab64:	89 f0                	mov    %esi,%eax
    ab66:	88 55 fc             	mov    %dl,-0x4(%rbp)
    ab69:	88 45 f8             	mov    %al,-0x8(%rbp)
    ab6c:	0f b6 55 fc          	movzbl -0x4(%rbp),%edx
    ab70:	0f b6 45 f8          	movzbl -0x8(%rbp),%eax
    ab74:	01 d0                	add    %edx,%eax
    ab76:	5d                   	pop    %rbp
    ab77:	c3                   	retq   

000000000000ab78 <safe_sub_func_uint8_t_u_u>:
    ab78:	f3 0f 1e fa          	endbr64 
    ab7c:	55                   	push   %rbp
    ab7d:	48 89 e5             	mov    %rsp,%rbp
    ab80:	89 fa                	mov    %edi,%edx
    ab82:	89 f0                	mov    %esi,%eax
    ab84:	88 55 fc             	mov    %dl,-0x4(%rbp)
    ab87:	88 45 f8             	mov    %al,-0x8(%rbp)
    ab8a:	0f b6 45 fc          	movzbl -0x4(%rbp),%eax
    ab8e:	2a 45 f8             	sub    -0x8(%rbp),%al
    ab91:	5d                   	pop    %rbp
    ab92:	c3                   	retq   

000000000000ab93 <safe_mul_func_uint8_t_u_u>:
    ab93:	f3 0f 1e fa          	endbr64 
    ab97:	55                   	push   %rbp
    ab98:	48 89 e5             	mov    %rsp,%rbp
    ab9b:	89 fa                	mov    %edi,%edx
    ab9d:	89 f0                	mov    %esi,%eax
    ab9f:	88 55 fc             	mov    %dl,-0x4(%rbp)
    aba2:	88 45 f8             	mov    %al,-0x8(%rbp)
    aba5:	0f b6 45 fc          	movzbl -0x4(%rbp),%eax
    aba9:	f6 65 f8             	mulb   -0x8(%rbp)
    abac:	5d                   	pop    %rbp
    abad:	c3                   	retq   

000000000000abae <safe_mod_func_uint8_t_u_u>:
    abae:	f3 0f 1e fa          	endbr64 
    abb2:	55                   	push   %rbp
    abb3:	48 89 e5             	mov    %rsp,%rbp
    abb6:	89 fa                	mov    %edi,%edx
    abb8:	89 f0                	mov    %esi,%eax
    abba:	88 55 fc             	mov    %dl,-0x4(%rbp)
    abbd:	88 45 f8             	mov    %al,-0x8(%rbp)
    abc0:	80 7d f8 00          	cmpb   $0x0,-0x8(%rbp)
    abc4:	74 0f                	je     abd5 <safe_mod_func_uint8_t_u_u+0x27>
    abc6:	0f b6 45 fc          	movzbl -0x4(%rbp),%eax
    abca:	0f b6 c0             	movzbl %al,%eax
    abcd:	f6 75 f8             	divb   -0x8(%rbp)
    abd0:	0f b6 c4             	movzbl %ah,%eax
    abd3:	eb 04                	jmp    abd9 <safe_mod_func_uint8_t_u_u+0x2b>
    abd5:	0f b6 45 fc          	movzbl -0x4(%rbp),%eax
    abd9:	5d                   	pop    %rbp
    abda:	c3                   	retq   

000000000000abdb <safe_div_func_uint8_t_u_u>:
    abdb:	f3 0f 1e fa          	endbr64 
    abdf:	55                   	push   %rbp
    abe0:	48 89 e5             	mov    %rsp,%rbp
    abe3:	89 fa                	mov    %edi,%edx
    abe5:	89 f0                	mov    %esi,%eax
    abe7:	88 55 fc             	mov    %dl,-0x4(%rbp)
    abea:	88 45 f8             	mov    %al,-0x8(%rbp)
    abed:	80 7d f8 00          	cmpb   $0x0,-0x8(%rbp)
    abf1:	74 0c                	je     abff <safe_div_func_uint8_t_u_u+0x24>
    abf3:	0f b6 45 fc          	movzbl -0x4(%rbp),%eax
    abf7:	0f b6 c0             	movzbl %al,%eax
    abfa:	f6 75 f8             	divb   -0x8(%rbp)
    abfd:	eb 04                	jmp    ac03 <safe_div_func_uint8_t_u_u+0x28>
    abff:	0f b6 45 fc          	movzbl -0x4(%rbp),%eax
    ac03:	5d                   	pop    %rbp
    ac04:	c3                   	retq   

000000000000ac05 <safe_lshift_func_uint8_t_u_s>:
    ac05:	f3 0f 1e fa          	endbr64 
    ac09:	55                   	push   %rbp
    ac0a:	48 89 e5             	mov    %rsp,%rbp
    ac0d:	89 f8                	mov    %edi,%eax
    ac0f:	89 75 f8             	mov    %esi,-0x8(%rbp)
    ac12:	88 45 fc             	mov    %al,-0x4(%rbp)
    ac15:	83 7d f8 00          	cmpl   $0x0,-0x8(%rbp)
    ac19:	78 2b                	js     ac46 <safe_lshift_func_uint8_t_u_s+0x41>
    ac1b:	83 7d f8 1f          	cmpl   $0x1f,-0x8(%rbp)
    ac1f:	7f 25                	jg     ac46 <safe_lshift_func_uint8_t_u_s+0x41>
    ac21:	0f b6 55 fc          	movzbl -0x4(%rbp),%edx
    ac25:	8b 45 f8             	mov    -0x8(%rbp),%eax
    ac28:	be ff 00 00 00       	mov    $0xff,%esi
    ac2d:	89 c1                	mov    %eax,%ecx
    ac2f:	d3 fe                	sar    %cl,%esi
    ac31:	89 f0                	mov    %esi,%eax
    ac33:	39 c2                	cmp    %eax,%edx
    ac35:	7f 0f                	jg     ac46 <safe_lshift_func_uint8_t_u_s+0x41>
    ac37:	0f b6 55 fc          	movzbl -0x4(%rbp),%edx
    ac3b:	8b 45 f8             	mov    -0x8(%rbp),%eax
    ac3e:	89 c1                	mov    %eax,%ecx
    ac40:	d3 e2                	shl    %cl,%edx
    ac42:	89 d0                	mov    %edx,%eax
    ac44:	eb 04                	jmp    ac4a <safe_lshift_func_uint8_t_u_s+0x45>
    ac46:	0f b6 45 fc          	movzbl -0x4(%rbp),%eax
    ac4a:	5d                   	pop    %rbp
    ac4b:	c3                   	retq   

000000000000ac4c <safe_lshift_func_uint8_t_u_u>:
    ac4c:	f3 0f 1e fa          	endbr64 
    ac50:	55                   	push   %rbp
    ac51:	48 89 e5             	mov    %rsp,%rbp
    ac54:	89 f8                	mov    %edi,%eax
    ac56:	89 75 f8             	mov    %esi,-0x8(%rbp)
    ac59:	88 45 fc             	mov    %al,-0x4(%rbp)
    ac5c:	83 7d f8 1f          	cmpl   $0x1f,-0x8(%rbp)
    ac60:	77 25                	ja     ac87 <safe_lshift_func_uint8_t_u_u+0x3b>
    ac62:	0f b6 55 fc          	movzbl -0x4(%rbp),%edx
    ac66:	8b 45 f8             	mov    -0x8(%rbp),%eax
    ac69:	be ff 00 00 00       	mov    $0xff,%esi
    ac6e:	89 c1                	mov    %eax,%ecx
    ac70:	d3 fe                	sar    %cl,%esi
    ac72:	89 f0                	mov    %esi,%eax
    ac74:	39 c2                	cmp    %eax,%edx
    ac76:	7f 0f                	jg     ac87 <safe_lshift_func_uint8_t_u_u+0x3b>
    ac78:	0f b6 55 fc          	movzbl -0x4(%rbp),%edx
    ac7c:	8b 45 f8             	mov    -0x8(%rbp),%eax
    ac7f:	89 c1                	mov    %eax,%ecx
    ac81:	d3 e2                	shl    %cl,%edx
    ac83:	89 d0                	mov    %edx,%eax
    ac85:	eb 04                	jmp    ac8b <safe_lshift_func_uint8_t_u_u+0x3f>
    ac87:	0f b6 45 fc          	movzbl -0x4(%rbp),%eax
    ac8b:	5d                   	pop    %rbp
    ac8c:	c3                   	retq   

000000000000ac8d <safe_rshift_func_uint8_t_u_s>:
    ac8d:	f3 0f 1e fa          	endbr64 
    ac91:	55                   	push   %rbp
    ac92:	48 89 e5             	mov    %rsp,%rbp
    ac95:	89 f8                	mov    %edi,%eax
    ac97:	89 75 f8             	mov    %esi,-0x8(%rbp)
    ac9a:	88 45 fc             	mov    %al,-0x4(%rbp)
    ac9d:	83 7d f8 00          	cmpl   $0x0,-0x8(%rbp)
    aca1:	78 15                	js     acb8 <safe_rshift_func_uint8_t_u_s+0x2b>
    aca3:	83 7d f8 1f          	cmpl   $0x1f,-0x8(%rbp)
    aca7:	7f 0f                	jg     acb8 <safe_rshift_func_uint8_t_u_s+0x2b>
    aca9:	0f b6 55 fc          	movzbl -0x4(%rbp),%edx
    acad:	8b 45 f8             	mov    -0x8(%rbp),%eax
    acb0:	89 c1                	mov    %eax,%ecx
    acb2:	d3 fa                	sar    %cl,%edx
    acb4:	89 d0                	mov    %edx,%eax
    acb6:	eb 04                	jmp    acbc <safe_rshift_func_uint8_t_u_s+0x2f>
    acb8:	0f b6 45 fc          	movzbl -0x4(%rbp),%eax
    acbc:	5d                   	pop    %rbp
    acbd:	c3                   	retq   

000000000000acbe <safe_rshift_func_uint8_t_u_u>:
    acbe:	f3 0f 1e fa          	endbr64 
    acc2:	55                   	push   %rbp
    acc3:	48 89 e5             	mov    %rsp,%rbp
    acc6:	89 f8                	mov    %edi,%eax
    acc8:	89 75 f8             	mov    %esi,-0x8(%rbp)
    accb:	88 45 fc             	mov    %al,-0x4(%rbp)
    acce:	83 7d f8 1f          	cmpl   $0x1f,-0x8(%rbp)
    acd2:	77 0f                	ja     ace3 <safe_rshift_func_uint8_t_u_u+0x25>
    acd4:	0f b6 55 fc          	movzbl -0x4(%rbp),%edx
    acd8:	8b 45 f8             	mov    -0x8(%rbp),%eax
    acdb:	89 c1                	mov    %eax,%ecx
    acdd:	d3 fa                	sar    %cl,%edx
    acdf:	89 d0                	mov    %edx,%eax
    ace1:	eb 04                	jmp    ace7 <safe_rshift_func_uint8_t_u_u+0x29>
    ace3:	0f b6 45 fc          	movzbl -0x4(%rbp),%eax
    ace7:	5d                   	pop    %rbp
    ace8:	c3                   	retq   

000000000000ace9 <safe_unary_minus_func_uint16_t_u>:
    ace9:	f3 0f 1e fa          	endbr64 
    aced:	55                   	push   %rbp
    acee:	48 89 e5             	mov    %rsp,%rbp
    acf1:	89 f8                	mov    %edi,%eax
    acf3:	66 89 45 fc          	mov    %ax,-0x4(%rbp)
    acf7:	0f b7 45 fc          	movzwl -0x4(%rbp),%eax
    acfb:	f7 d8                	neg    %eax
    acfd:	5d                   	pop    %rbp
    acfe:	c3                   	retq   

000000000000acff <safe_add_func_uint16_t_u_u>:
    acff:	f3 0f 1e fa          	endbr64 
    ad03:	55                   	push   %rbp
    ad04:	48 89 e5             	mov    %rsp,%rbp
    ad07:	89 fa                	mov    %edi,%edx
    ad09:	89 f0                	mov    %esi,%eax
    ad0b:	66 89 55 fc          	mov    %dx,-0x4(%rbp)
    ad0f:	66 89 45 f8          	mov    %ax,-0x8(%rbp)
    ad13:	0f b7 55 fc          	movzwl -0x4(%rbp),%edx
    ad17:	0f b7 45 f8          	movzwl -0x8(%rbp),%eax
    ad1b:	01 d0                	add    %edx,%eax
    ad1d:	5d                   	pop    %rbp
    ad1e:	c3                   	retq   

000000000000ad1f <safe_sub_func_uint16_t_u_u>:
    ad1f:	f3 0f 1e fa          	endbr64 
    ad23:	55                   	push   %rbp
    ad24:	48 89 e5             	mov    %rsp,%rbp
    ad27:	89 fa                	mov    %edi,%edx
    ad29:	89 f0                	mov    %esi,%eax
    ad2b:	66 89 55 fc          	mov    %dx,-0x4(%rbp)
    ad2f:	66 89 45 f8          	mov    %ax,-0x8(%rbp)
    ad33:	0f b7 45 fc          	movzwl -0x4(%rbp),%eax
    ad37:	66 2b 45 f8          	sub    -0x8(%rbp),%ax
    ad3b:	5d                   	pop    %rbp
    ad3c:	c3                   	retq   

000000000000ad3d <safe_mul_func_uint16_t_u_u>:
    ad3d:	f3 0f 1e fa          	endbr64 
    ad41:	55                   	push   %rbp
    ad42:	48 89 e5             	mov    %rsp,%rbp
    ad45:	89 fa                	mov    %edi,%edx
    ad47:	89 f0                	mov    %esi,%eax
    ad49:	66 89 55 fc          	mov    %dx,-0x4(%rbp)
    ad4d:	66 89 45 f8          	mov    %ax,-0x8(%rbp)
    ad51:	0f b7 45 fc          	movzwl -0x4(%rbp),%eax
    ad55:	66 0f af 45 f8       	imul   -0x8(%rbp),%ax
    ad5a:	5d                   	pop    %rbp
    ad5b:	c3                   	retq   

000000000000ad5c <safe_mod_func_uint16_t_u_u>:
    ad5c:	f3 0f 1e fa          	endbr64 
    ad60:	55                   	push   %rbp
    ad61:	48 89 e5             	mov    %rsp,%rbp
    ad64:	89 fa                	mov    %edi,%edx
    ad66:	89 f0                	mov    %esi,%eax
    ad68:	66 89 55 fc          	mov    %dx,-0x4(%rbp)
    ad6c:	66 89 45 f8          	mov    %ax,-0x8(%rbp)
    ad70:	66 83 7d f8 00       	cmpw   $0x0,-0x8(%rbp)
    ad75:	74 11                	je     ad88 <safe_mod_func_uint16_t_u_u+0x2c>
    ad77:	0f b7 45 fc          	movzwl -0x4(%rbp),%eax
    ad7b:	ba 00 00 00 00       	mov    $0x0,%edx
    ad80:	66 f7 75 f8          	divw   -0x8(%rbp)
    ad84:	89 d0                	mov    %edx,%eax
    ad86:	eb 04                	jmp    ad8c <safe_mod_func_uint16_t_u_u+0x30>
    ad88:	0f b7 45 fc          	movzwl -0x4(%rbp),%eax
    ad8c:	5d                   	pop    %rbp
    ad8d:	c3                   	retq   

000000000000ad8e <safe_div_func_uint16_t_u_u>:
    ad8e:	f3 0f 1e fa          	endbr64 
    ad92:	55                   	push   %rbp
    ad93:	48 89 e5             	mov    %rsp,%rbp
    ad96:	89 fa                	mov    %edi,%edx
    ad98:	89 f0                	mov    %esi,%eax
    ad9a:	66 89 55 fc          	mov    %dx,-0x4(%rbp)
    ad9e:	66 89 45 f8          	mov    %ax,-0x8(%rbp)
    ada2:	66 83 7d f8 00       	cmpw   $0x0,-0x8(%rbp)
    ada7:	74 0f                	je     adb8 <safe_div_func_uint16_t_u_u+0x2a>
    ada9:	0f b7 45 fc          	movzwl -0x4(%rbp),%eax
    adad:	ba 00 00 00 00       	mov    $0x0,%edx
    adb2:	66 f7 75 f8          	divw   -0x8(%rbp)
    adb6:	eb 04                	jmp    adbc <safe_div_func_uint16_t_u_u+0x2e>
    adb8:	0f b7 45 fc          	movzwl -0x4(%rbp),%eax
    adbc:	5d                   	pop    %rbp
    adbd:	c3                   	retq   

000000000000adbe <safe_lshift_func_uint16_t_u_s>:
    adbe:	f3 0f 1e fa          	endbr64 
    adc2:	55                   	push   %rbp
    adc3:	48 89 e5             	mov    %rsp,%rbp
    adc6:	89 f8                	mov    %edi,%eax
    adc8:	89 75 f8             	mov    %esi,-0x8(%rbp)
    adcb:	66 89 45 fc          	mov    %ax,-0x4(%rbp)
    adcf:	83 7d f8 00          	cmpl   $0x0,-0x8(%rbp)
    add3:	78 2b                	js     ae00 <safe_lshift_func_uint16_t_u_s+0x42>
    add5:	83 7d f8 1f          	cmpl   $0x1f,-0x8(%rbp)
    add9:	7f 25                	jg     ae00 <safe_lshift_func_uint16_t_u_s+0x42>
    addb:	0f b7 55 fc          	movzwl -0x4(%rbp),%edx
    addf:	8b 45 f8             	mov    -0x8(%rbp),%eax
    ade2:	be ff ff 00 00       	mov    $0xffff,%esi
    ade7:	89 c1                	mov    %eax,%ecx
    ade9:	d3 fe                	sar    %cl,%esi
    adeb:	89 f0                	mov    %esi,%eax
    aded:	39 c2                	cmp    %eax,%edx
    adef:	7f 0f                	jg     ae00 <safe_lshift_func_uint16_t_u_s+0x42>
    adf1:	0f b7 55 fc          	movzwl -0x4(%rbp),%edx
    adf5:	8b 45 f8             	mov    -0x8(%rbp),%eax
    adf8:	89 c1                	mov    %eax,%ecx
    adfa:	d3 e2                	shl    %cl,%edx
    adfc:	89 d0                	mov    %edx,%eax
    adfe:	eb 04                	jmp    ae04 <safe_lshift_func_uint16_t_u_s+0x46>
    ae00:	0f b7 45 fc          	movzwl -0x4(%rbp),%eax
    ae04:	5d                   	pop    %rbp
    ae05:	c3                   	retq   

000000000000ae06 <safe_lshift_func_uint16_t_u_u>:
    ae06:	f3 0f 1e fa          	endbr64 
    ae0a:	55                   	push   %rbp
    ae0b:	48 89 e5             	mov    %rsp,%rbp
    ae0e:	89 f8                	mov    %edi,%eax
    ae10:	89 75 f8             	mov    %esi,-0x8(%rbp)
    ae13:	66 89 45 fc          	mov    %ax,-0x4(%rbp)
    ae17:	83 7d f8 1f          	cmpl   $0x1f,-0x8(%rbp)
    ae1b:	77 25                	ja     ae42 <safe_lshift_func_uint16_t_u_u+0x3c>
    ae1d:	0f b7 55 fc          	movzwl -0x4(%rbp),%edx
    ae21:	8b 45 f8             	mov    -0x8(%rbp),%eax
    ae24:	be ff ff 00 00       	mov    $0xffff,%esi
    ae29:	89 c1                	mov    %eax,%ecx
    ae2b:	d3 fe                	sar    %cl,%esi
    ae2d:	89 f0                	mov    %esi,%eax
    ae2f:	39 c2                	cmp    %eax,%edx
    ae31:	7f 0f                	jg     ae42 <safe_lshift_func_uint16_t_u_u+0x3c>
    ae33:	0f b7 55 fc          	movzwl -0x4(%rbp),%edx
    ae37:	8b 45 f8             	mov    -0x8(%rbp),%eax
    ae3a:	89 c1                	mov    %eax,%ecx
    ae3c:	d3 e2                	shl    %cl,%edx
    ae3e:	89 d0                	mov    %edx,%eax
    ae40:	eb 04                	jmp    ae46 <safe_lshift_func_uint16_t_u_u+0x40>
    ae42:	0f b7 45 fc          	movzwl -0x4(%rbp),%eax
    ae46:	5d                   	pop    %rbp
    ae47:	c3                   	retq   

000000000000ae48 <safe_rshift_func_uint16_t_u_s>:
    ae48:	f3 0f 1e fa          	endbr64 
    ae4c:	55                   	push   %rbp
    ae4d:	48 89 e5             	mov    %rsp,%rbp
    ae50:	89 f8                	mov    %edi,%eax
    ae52:	89 75 f8             	mov    %esi,-0x8(%rbp)
    ae55:	66 89 45 fc          	mov    %ax,-0x4(%rbp)
    ae59:	83 7d f8 00          	cmpl   $0x0,-0x8(%rbp)
    ae5d:	78 15                	js     ae74 <safe_rshift_func_uint16_t_u_s+0x2c>
    ae5f:	83 7d f8 1f          	cmpl   $0x1f,-0x8(%rbp)
    ae63:	7f 0f                	jg     ae74 <safe_rshift_func_uint16_t_u_s+0x2c>
    ae65:	0f b7 55 fc          	movzwl -0x4(%rbp),%edx
    ae69:	8b 45 f8             	mov    -0x8(%rbp),%eax
    ae6c:	89 c1                	mov    %eax,%ecx
    ae6e:	d3 fa                	sar    %cl,%edx
    ae70:	89 d0                	mov    %edx,%eax
    ae72:	eb 04                	jmp    ae78 <safe_rshift_func_uint16_t_u_s+0x30>
    ae74:	0f b7 45 fc          	movzwl -0x4(%rbp),%eax
    ae78:	5d                   	pop    %rbp
    ae79:	c3                   	retq   

000000000000ae7a <safe_rshift_func_uint16_t_u_u>:
    ae7a:	f3 0f 1e fa          	endbr64 
    ae7e:	55                   	push   %rbp
    ae7f:	48 89 e5             	mov    %rsp,%rbp
    ae82:	89 f8                	mov    %edi,%eax
    ae84:	89 75 f8             	mov    %esi,-0x8(%rbp)
    ae87:	66 89 45 fc          	mov    %ax,-0x4(%rbp)
    ae8b:	83 7d f8 1f          	cmpl   $0x1f,-0x8(%rbp)
    ae8f:	77 0f                	ja     aea0 <safe_rshift_func_uint16_t_u_u+0x26>
    ae91:	0f b7 55 fc          	movzwl -0x4(%rbp),%edx
    ae95:	8b 45 f8             	mov    -0x8(%rbp),%eax
    ae98:	89 c1                	mov    %eax,%ecx
    ae9a:	d3 fa                	sar    %cl,%edx
    ae9c:	89 d0                	mov    %edx,%eax
    ae9e:	eb 04                	jmp    aea4 <safe_rshift_func_uint16_t_u_u+0x2a>
    aea0:	0f b7 45 fc          	movzwl -0x4(%rbp),%eax
    aea4:	5d                   	pop    %rbp
    aea5:	c3                   	retq   

000000000000aea6 <safe_unary_minus_func_uint32_t_u>:
    aea6:	f3 0f 1e fa          	endbr64 
    aeaa:	55                   	push   %rbp
    aeab:	48 89 e5             	mov    %rsp,%rbp
    aeae:	89 7d fc             	mov    %edi,-0x4(%rbp)
    aeb1:	8b 45 fc             	mov    -0x4(%rbp),%eax
    aeb4:	f7 d8                	neg    %eax
    aeb6:	5d                   	pop    %rbp
    aeb7:	c3                   	retq   

000000000000aeb8 <safe_add_func_uint32_t_u_u>:
    aeb8:	f3 0f 1e fa          	endbr64 
    aebc:	55                   	push   %rbp
    aebd:	48 89 e5             	mov    %rsp,%rbp
    aec0:	89 7d fc             	mov    %edi,-0x4(%rbp)
    aec3:	89 75 f8             	mov    %esi,-0x8(%rbp)
    aec6:	8b 55 fc             	mov    -0x4(%rbp),%edx
    aec9:	8b 45 f8             	mov    -0x8(%rbp),%eax
    aecc:	01 d0                	add    %edx,%eax
    aece:	5d                   	pop    %rbp
    aecf:	c3                   	retq   

000000000000aed0 <safe_sub_func_uint32_t_u_u>:
    aed0:	f3 0f 1e fa          	endbr64 
    aed4:	55                   	push   %rbp
    aed5:	48 89 e5             	mov    %rsp,%rbp
    aed8:	89 7d fc             	mov    %edi,-0x4(%rbp)
    aedb:	89 75 f8             	mov    %esi,-0x8(%rbp)
    aede:	8b 45 fc             	mov    -0x4(%rbp),%eax
    aee1:	2b 45 f8             	sub    -0x8(%rbp),%eax
    aee4:	5d                   	pop    %rbp
    aee5:	c3                   	retq   

000000000000aee6 <safe_mul_func_uint32_t_u_u>:
    aee6:	f3 0f 1e fa          	endbr64 
    aeea:	55                   	push   %rbp
    aeeb:	48 89 e5             	mov    %rsp,%rbp
    aeee:	89 7d fc             	mov    %edi,-0x4(%rbp)
    aef1:	89 75 f8             	mov    %esi,-0x8(%rbp)
    aef4:	8b 45 fc             	mov    -0x4(%rbp),%eax
    aef7:	0f af 45 f8          	imul   -0x8(%rbp),%eax
    aefb:	5d                   	pop    %rbp
    aefc:	c3                   	retq   

000000000000aefd <safe_mod_func_uint32_t_u_u>:
    aefd:	f3 0f 1e fa          	endbr64 
    af01:	55                   	push   %rbp
    af02:	48 89 e5             	mov    %rsp,%rbp
    af05:	89 7d fc             	mov    %edi,-0x4(%rbp)
    af08:	89 75 f8             	mov    %esi,-0x8(%rbp)
    af0b:	83 7d f8 00          	cmpl   $0x0,-0x8(%rbp)
    af0f:	74 0f                	je     af20 <safe_mod_func_uint32_t_u_u+0x23>
    af11:	8b 45 fc             	mov    -0x4(%rbp),%eax
    af14:	ba 00 00 00 00       	mov    $0x0,%edx
    af19:	f7 75 f8             	divl   -0x8(%rbp)
    af1c:	89 d0                	mov    %edx,%eax
    af1e:	eb 03                	jmp    af23 <safe_mod_func_uint32_t_u_u+0x26>
    af20:	8b 45 fc             	mov    -0x4(%rbp),%eax
    af23:	5d                   	pop    %rbp
    af24:	c3                   	retq   

000000000000af25 <safe_div_func_uint32_t_u_u>:
    af25:	f3 0f 1e fa          	endbr64 
    af29:	55                   	push   %rbp
    af2a:	48 89 e5             	mov    %rsp,%rbp
    af2d:	89 7d fc             	mov    %edi,-0x4(%rbp)
    af30:	89 75 f8             	mov    %esi,-0x8(%rbp)
    af33:	83 7d f8 00          	cmpl   $0x0,-0x8(%rbp)
    af37:	74 0d                	je     af46 <safe_div_func_uint32_t_u_u+0x21>
    af39:	8b 45 fc             	mov    -0x4(%rbp),%eax
    af3c:	ba 00 00 00 00       	mov    $0x0,%edx
    af41:	f7 75 f8             	divl   -0x8(%rbp)
    af44:	eb 03                	jmp    af49 <safe_div_func_uint32_t_u_u+0x24>
    af46:	8b 45 fc             	mov    -0x4(%rbp),%eax
    af49:	5d                   	pop    %rbp
    af4a:	c3                   	retq   

000000000000af4b <safe_lshift_func_uint32_t_u_s>:
    af4b:	f3 0f 1e fa          	endbr64 
    af4f:	55                   	push   %rbp
    af50:	48 89 e5             	mov    %rsp,%rbp
    af53:	89 7d fc             	mov    %edi,-0x4(%rbp)
    af56:	89 75 f8             	mov    %esi,-0x8(%rbp)
    af59:	83 7d f8 00          	cmpl   $0x0,-0x8(%rbp)
    af5d:	78 27                	js     af86 <safe_lshift_func_uint32_t_u_s+0x3b>
    af5f:	83 7d f8 1f          	cmpl   $0x1f,-0x8(%rbp)
    af63:	7f 21                	jg     af86 <safe_lshift_func_uint32_t_u_s+0x3b>
    af65:	8b 45 f8             	mov    -0x8(%rbp),%eax
    af68:	ba ff ff ff ff       	mov    $0xffffffff,%edx
    af6d:	89 c1                	mov    %eax,%ecx
    af6f:	d3 ea                	shr    %cl,%edx
    af71:	89 d0                	mov    %edx,%eax
    af73:	39 45 fc             	cmp    %eax,-0x4(%rbp)
    af76:	77 0e                	ja     af86 <safe_lshift_func_uint32_t_u_s+0x3b>
    af78:	8b 45 f8             	mov    -0x8(%rbp),%eax
    af7b:	8b 55 fc             	mov    -0x4(%rbp),%edx
    af7e:	89 c1                	mov    %eax,%ecx
    af80:	d3 e2                	shl    %cl,%edx
    af82:	89 d0                	mov    %edx,%eax
    af84:	eb 03                	jmp    af89 <safe_lshift_func_uint32_t_u_s+0x3e>
    af86:	8b 45 fc             	mov    -0x4(%rbp),%eax
    af89:	5d                   	pop    %rbp
    af8a:	c3                   	retq   

000000000000af8b <safe_lshift_func_uint32_t_u_u>:
    af8b:	f3 0f 1e fa          	endbr64 
    af8f:	55                   	push   %rbp
    af90:	48 89 e5             	mov    %rsp,%rbp
    af93:	89 7d fc             	mov    %edi,-0x4(%rbp)
    af96:	89 75 f8             	mov    %esi,-0x8(%rbp)
    af99:	83 7d f8 1f          	cmpl   $0x1f,-0x8(%rbp)
    af9d:	77 21                	ja     afc0 <safe_lshift_func_uint32_t_u_u+0x35>
    af9f:	8b 45 f8             	mov    -0x8(%rbp),%eax
    afa2:	ba ff ff ff ff       	mov    $0xffffffff,%edx
    afa7:	89 c1                	mov    %eax,%ecx
    afa9:	d3 ea                	shr    %cl,%edx
    afab:	89 d0                	mov    %edx,%eax
    afad:	39 45 fc             	cmp    %eax,-0x4(%rbp)
    afb0:	77 0e                	ja     afc0 <safe_lshift_func_uint32_t_u_u+0x35>
    afb2:	8b 45 f8             	mov    -0x8(%rbp),%eax
    afb5:	8b 55 fc             	mov    -0x4(%rbp),%edx
    afb8:	89 c1                	mov    %eax,%ecx
    afba:	d3 e2                	shl    %cl,%edx
    afbc:	89 d0                	mov    %edx,%eax
    afbe:	eb 03                	jmp    afc3 <safe_lshift_func_uint32_t_u_u+0x38>
    afc0:	8b 45 fc             	mov    -0x4(%rbp),%eax
    afc3:	5d                   	pop    %rbp
    afc4:	c3                   	retq   

000000000000afc5 <safe_rshift_func_uint32_t_u_s>:
    afc5:	f3 0f 1e fa          	endbr64 
    afc9:	55                   	push   %rbp
    afca:	48 89 e5             	mov    %rsp,%rbp
    afcd:	89 7d fc             	mov    %edi,-0x4(%rbp)
    afd0:	89 75 f8             	mov    %esi,-0x8(%rbp)
    afd3:	83 7d f8 00          	cmpl   $0x0,-0x8(%rbp)
    afd7:	78 14                	js     afed <safe_rshift_func_uint32_t_u_s+0x28>
    afd9:	83 7d f8 1f          	cmpl   $0x1f,-0x8(%rbp)
    afdd:	7f 0e                	jg     afed <safe_rshift_func_uint32_t_u_s+0x28>
    afdf:	8b 45 f8             	mov    -0x8(%rbp),%eax
    afe2:	8b 55 fc             	mov    -0x4(%rbp),%edx
    afe5:	89 c1                	mov    %eax,%ecx
    afe7:	d3 ea                	shr    %cl,%edx
    afe9:	89 d0                	mov    %edx,%eax
    afeb:	eb 03                	jmp    aff0 <safe_rshift_func_uint32_t_u_s+0x2b>
    afed:	8b 45 fc             	mov    -0x4(%rbp),%eax
    aff0:	5d                   	pop    %rbp
    aff1:	c3                   	retq   

000000000000aff2 <safe_rshift_func_uint32_t_u_u>:
    aff2:	f3 0f 1e fa          	endbr64 
    aff6:	55                   	push   %rbp
    aff7:	48 89 e5             	mov    %rsp,%rbp
    affa:	89 7d fc             	mov    %edi,-0x4(%rbp)
    affd:	89 75 f8             	mov    %esi,-0x8(%rbp)
    b000:	83 7d f8 1f          	cmpl   $0x1f,-0x8(%rbp)
    b004:	77 0e                	ja     b014 <safe_rshift_func_uint32_t_u_u+0x22>
    b006:	8b 45 f8             	mov    -0x8(%rbp),%eax
    b009:	8b 55 fc             	mov    -0x4(%rbp),%edx
    b00c:	89 c1                	mov    %eax,%ecx
    b00e:	d3 ea                	shr    %cl,%edx
    b010:	89 d0                	mov    %edx,%eax
    b012:	eb 03                	jmp    b017 <safe_rshift_func_uint32_t_u_u+0x25>
    b014:	8b 45 fc             	mov    -0x4(%rbp),%eax
    b017:	5d                   	pop    %rbp
    b018:	c3                   	retq   

000000000000b019 <safe_unary_minus_func_uint64_t_u>:
    b019:	f3 0f 1e fa          	endbr64 
    b01d:	55                   	push   %rbp
    b01e:	48 89 e5             	mov    %rsp,%rbp
    b021:	48 89 7d f8          	mov    %rdi,-0x8(%rbp)
    b025:	48 8b 45 f8          	mov    -0x8(%rbp),%rax
    b029:	48 f7 d8             	neg    %rax
    b02c:	5d                   	pop    %rbp
    b02d:	c3                   	retq   

000000000000b02e <safe_add_func_uint64_t_u_u>:
    b02e:	f3 0f 1e fa          	endbr64 
    b032:	55                   	push   %rbp
    b033:	48 89 e5             	mov    %rsp,%rbp
    b036:	48 89 7d f8          	mov    %rdi,-0x8(%rbp)
    b03a:	48 89 75 f0          	mov    %rsi,-0x10(%rbp)
    b03e:	48 8b 55 f8          	mov    -0x8(%rbp),%rdx
    b042:	48 8b 45 f0          	mov    -0x10(%rbp),%rax
    b046:	48 01 d0             	add    %rdx,%rax
    b049:	5d                   	pop    %rbp
    b04a:	c3                   	retq   

000000000000b04b <safe_sub_func_uint64_t_u_u>:
    b04b:	f3 0f 1e fa          	endbr64 
    b04f:	55                   	push   %rbp
    b050:	48 89 e5             	mov    %rsp,%rbp
    b053:	48 89 7d f8          	mov    %rdi,-0x8(%rbp)
    b057:	48 89 75 f0          	mov    %rsi,-0x10(%rbp)
    b05b:	48 8b 45 f8          	mov    -0x8(%rbp),%rax
    b05f:	48 2b 45 f0          	sub    -0x10(%rbp),%rax
    b063:	5d                   	pop    %rbp
    b064:	c3                   	retq   

000000000000b065 <safe_mul_func_uint64_t_u_u>:
    b065:	f3 0f 1e fa          	endbr64 
    b069:	55                   	push   %rbp
    b06a:	48 89 e5             	mov    %rsp,%rbp
    b06d:	48 89 7d f8          	mov    %rdi,-0x8(%rbp)
    b071:	48 89 75 f0          	mov    %rsi,-0x10(%rbp)
    b075:	48 8b 45 f8          	mov    -0x8(%rbp),%rax
    b079:	48 0f af 45 f0       	imul   -0x10(%rbp),%rax
    b07e:	5d                   	pop    %rbp
    b07f:	c3                   	retq   

000000000000b080 <safe_mod_func_uint64_t_u_u>:
    b080:	f3 0f 1e fa          	endbr64 
    b084:	55                   	push   %rbp
    b085:	48 89 e5             	mov    %rsp,%rbp
    b088:	48 89 7d f8          	mov    %rdi,-0x8(%rbp)
    b08c:	48 89 75 f0          	mov    %rsi,-0x10(%rbp)
    b090:	48 83 7d f0 00       	cmpq   $0x0,-0x10(%rbp)
    b095:	74 12                	je     b0a9 <safe_mod_func_uint64_t_u_u+0x29>
    b097:	48 8b 45 f8          	mov    -0x8(%rbp),%rax
    b09b:	ba 00 00 00 00       	mov    $0x0,%edx
    b0a0:	48 f7 75 f0          	divq   -0x10(%rbp)
    b0a4:	48 89 d0             	mov    %rdx,%rax
    b0a7:	eb 04                	jmp    b0ad <safe_mod_func_uint64_t_u_u+0x2d>
    b0a9:	48 8b 45 f8          	mov    -0x8(%rbp),%rax
    b0ad:	5d                   	pop    %rbp
    b0ae:	c3                   	retq   

000000000000b0af <safe_div_func_uint64_t_u_u>:
    b0af:	f3 0f 1e fa          	endbr64 
    b0b3:	55                   	push   %rbp
    b0b4:	48 89 e5             	mov    %rsp,%rbp
    b0b7:	48 89 7d f8          	mov    %rdi,-0x8(%rbp)
    b0bb:	48 89 75 f0          	mov    %rsi,-0x10(%rbp)
    b0bf:	48 83 7d f0 00       	cmpq   $0x0,-0x10(%rbp)
    b0c4:	74 0f                	je     b0d5 <safe_div_func_uint64_t_u_u+0x26>
    b0c6:	48 8b 45 f8          	mov    -0x8(%rbp),%rax
    b0ca:	ba 00 00 00 00       	mov    $0x0,%edx
    b0cf:	48 f7 75 f0          	divq   -0x10(%rbp)
    b0d3:	eb 04                	jmp    b0d9 <safe_div_func_uint64_t_u_u+0x2a>
    b0d5:	48 8b 45 f8          	mov    -0x8(%rbp),%rax
    b0d9:	5d                   	pop    %rbp
    b0da:	c3                   	retq   

000000000000b0db <safe_lshift_func_uint64_t_u_s>:
    b0db:	f3 0f 1e fa          	endbr64 
    b0df:	55                   	push   %rbp
    b0e0:	48 89 e5             	mov    %rsp,%rbp
    b0e3:	48 89 7d f8          	mov    %rdi,-0x8(%rbp)
    b0e7:	89 75 f4             	mov    %esi,-0xc(%rbp)
    b0ea:	83 7d f4 00          	cmpl   $0x0,-0xc(%rbp)
    b0ee:	78 2f                	js     b11f <safe_lshift_func_uint64_t_u_s+0x44>
    b0f0:	83 7d f4 1f          	cmpl   $0x1f,-0xc(%rbp)
    b0f4:	7f 29                	jg     b11f <safe_lshift_func_uint64_t_u_s+0x44>
    b0f6:	8b 45 f4             	mov    -0xc(%rbp),%eax
    b0f9:	48 c7 c2 ff ff ff ff 	mov    $0xffffffffffffffff,%rdx
    b100:	89 c1                	mov    %eax,%ecx
    b102:	48 d3 ea             	shr    %cl,%rdx
    b105:	48 89 d0             	mov    %rdx,%rax
    b108:	48 39 45 f8          	cmp    %rax,-0x8(%rbp)
    b10c:	77 11                	ja     b11f <safe_lshift_func_uint64_t_u_s+0x44>
    b10e:	8b 45 f4             	mov    -0xc(%rbp),%eax
    b111:	48 8b 55 f8          	mov    -0x8(%rbp),%rdx
    b115:	89 c1                	mov    %eax,%ecx
    b117:	48 d3 e2             	shl    %cl,%rdx
    b11a:	48 89 d0             	mov    %rdx,%rax
    b11d:	eb 04                	jmp    b123 <safe_lshift_func_uint64_t_u_s+0x48>
    b11f:	48 8b 45 f8          	mov    -0x8(%rbp),%rax
    b123:	5d                   	pop    %rbp
    b124:	c3                   	retq   

000000000000b125 <safe_lshift_func_uint64_t_u_u>:
    b125:	f3 0f 1e fa          	endbr64 
    b129:	55                   	push   %rbp
    b12a:	48 89 e5             	mov    %rsp,%rbp
    b12d:	48 89 7d f8          	mov    %rdi,-0x8(%rbp)
    b131:	89 75 f4             	mov    %esi,-0xc(%rbp)
    b134:	83 7d f4 1f          	cmpl   $0x1f,-0xc(%rbp)
    b138:	77 29                	ja     b163 <safe_lshift_func_uint64_t_u_u+0x3e>
    b13a:	8b 45 f4             	mov    -0xc(%rbp),%eax
    b13d:	48 c7 c2 ff ff ff ff 	mov    $0xffffffffffffffff,%rdx
    b144:	89 c1                	mov    %eax,%ecx
    b146:	48 d3 ea             	shr    %cl,%rdx
    b149:	48 89 d0             	mov    %rdx,%rax
    b14c:	48 39 45 f8          	cmp    %rax,-0x8(%rbp)
    b150:	77 11                	ja     b163 <safe_lshift_func_uint64_t_u_u+0x3e>
    b152:	8b 45 f4             	mov    -0xc(%rbp),%eax
    b155:	48 8b 55 f8          	mov    -0x8(%rbp),%rdx
    b159:	89 c1                	mov    %eax,%ecx
    b15b:	48 d3 e2             	shl    %cl,%rdx
    b15e:	48 89 d0             	mov    %rdx,%rax
    b161:	eb 04                	jmp    b167 <safe_lshift_func_uint64_t_u_u+0x42>
    b163:	48 8b 45 f8          	mov    -0x8(%rbp),%rax
    b167:	5d                   	pop    %rbp
    b168:	c3                   	retq   

000000000000b169 <safe_rshift_func_uint64_t_u_s>:
    b169:	f3 0f 1e fa          	endbr64 
    b16d:	55                   	push   %rbp
    b16e:	48 89 e5             	mov    %rsp,%rbp
    b171:	48 89 7d f8          	mov    %rdi,-0x8(%rbp)
    b175:	89 75 f4             	mov    %esi,-0xc(%rbp)
    b178:	83 7d f4 00          	cmpl   $0x0,-0xc(%rbp)
    b17c:	78 17                	js     b195 <safe_rshift_func_uint64_t_u_s+0x2c>
    b17e:	83 7d f4 1f          	cmpl   $0x1f,-0xc(%rbp)
    b182:	7f 11                	jg     b195 <safe_rshift_func_uint64_t_u_s+0x2c>
    b184:	8b 45 f4             	mov    -0xc(%rbp),%eax
    b187:	48 8b 55 f8          	mov    -0x8(%rbp),%rdx
    b18b:	89 c1                	mov    %eax,%ecx
    b18d:	48 d3 ea             	shr    %cl,%rdx
    b190:	48 89 d0             	mov    %rdx,%rax
    b193:	eb 04                	jmp    b199 <safe_rshift_func_uint64_t_u_s+0x30>
    b195:	48 8b 45 f8          	mov    -0x8(%rbp),%rax
    b199:	5d                   	pop    %rbp
    b19a:	c3                   	retq   

000000000000b19b <safe_rshift_func_uint64_t_u_u>:
    b19b:	f3 0f 1e fa          	endbr64 
    b19f:	55                   	push   %rbp
    b1a0:	48 89 e5             	mov    %rsp,%rbp
    b1a3:	48 89 7d f8          	mov    %rdi,-0x8(%rbp)
    b1a7:	89 75 f4             	mov    %esi,-0xc(%rbp)
    b1aa:	83 7d f4 1f          	cmpl   $0x1f,-0xc(%rbp)
    b1ae:	77 11                	ja     b1c1 <safe_rshift_func_uint64_t_u_u+0x26>
    b1b0:	8b 45 f4             	mov    -0xc(%rbp),%eax
    b1b3:	48 8b 55 f8          	mov    -0x8(%rbp),%rdx
    b1b7:	89 c1                	mov    %eax,%ecx
    b1b9:	48 d3 ea             	shr    %cl,%rdx
    b1bc:	48 89 d0             	mov    %rdx,%rax
    b1bf:	eb 04                	jmp    b1c5 <safe_rshift_func_uint64_t_u_u+0x2a>
    b1c1:	48 8b 45 f8          	mov    -0x8(%rbp),%rax
    b1c5:	5d                   	pop    %rbp
    b1c6:	c3                   	retq   

000000000000b1c7 <safe_add_func_float_f_f>:
    b1c7:	f3 0f 1e fa          	endbr64 
    b1cb:	55                   	push   %rbp
    b1cc:	48 89 e5             	mov    %rsp,%rbp
    b1cf:	f3 0f 11 45 fc       	movss  %xmm0,-0x4(%rbp)
    b1d4:	f3 0f 11 4d f8       	movss  %xmm1,-0x8(%rbp)
    b1d9:	f3 0f 10 4d fc       	movss  -0x4(%rbp),%xmm1
    b1de:	f3 0f 10 05 7a 0a 01 	movss  0x10a7a(%rip),%xmm0        # 1bc60 <l_390.5039+0x20>
    b1e5:	00 
    b1e6:	f3 0f 59 c8          	mulss  %xmm0,%xmm1
    b1ea:	f3 0f 10 55 f8       	movss  -0x8(%rbp),%xmm2
    b1ef:	f3 0f 10 05 69 0a 01 	movss  0x10a69(%rip),%xmm0        # 1bc60 <l_390.5039+0x20>
    b1f6:	00 
    b1f7:	f3 0f 59 c2          	mulss  %xmm2,%xmm0
    b1fb:	f3 0f 58 c1          	addss  %xmm1,%xmm0
    b1ff:	f3 0f 10 0d 69 0a 01 	movss  0x10a69(%rip),%xmm1        # 1bc70 <l_390.5039+0x30>
    b206:	00 
    b207:	0f 54 c1             	andps  %xmm1,%xmm0
    b20a:	0f 2f 05 6f 0a 01 00 	comiss 0x10a6f(%rip),%xmm0        # 1bc80 <l_390.5039+0x40>
    b211:	76 07                	jbe    b21a <safe_add_func_float_f_f+0x53>
    b213:	f3 0f 10 45 fc       	movss  -0x4(%rbp),%xmm0
    b218:	eb 0a                	jmp    b224 <safe_add_func_float_f_f+0x5d>
    b21a:	f3 0f 10 45 fc       	movss  -0x4(%rbp),%xmm0
    b21f:	f3 0f 58 45 f8       	addss  -0x8(%rbp),%xmm0
    b224:	5d                   	pop    %rbp
    b225:	c3                   	retq   

000000000000b226 <safe_sub_func_float_f_f>:
    b226:	f3 0f 1e fa          	endbr64 
    b22a:	55                   	push   %rbp
    b22b:	48 89 e5             	mov    %rsp,%rbp
    b22e:	f3 0f 11 45 fc       	movss  %xmm0,-0x4(%rbp)
    b233:	f3 0f 11 4d f8       	movss  %xmm1,-0x8(%rbp)
    b238:	f3 0f 10 4d fc       	movss  -0x4(%rbp),%xmm1
    b23d:	f3 0f 10 05 1b 0a 01 	movss  0x10a1b(%rip),%xmm0        # 1bc60 <l_390.5039+0x20>
    b244:	00 
    b245:	f3 0f 59 c1          	mulss  %xmm1,%xmm0
    b249:	f3 0f 10 55 f8       	movss  -0x8(%rbp),%xmm2
    b24e:	f3 0f 10 0d 0a 0a 01 	movss  0x10a0a(%rip),%xmm1        # 1bc60 <l_390.5039+0x20>
    b255:	00 
    b256:	f3 0f 59 ca          	mulss  %xmm2,%xmm1
    b25a:	f3 0f 5c c1          	subss  %xmm1,%xmm0
    b25e:	f3 0f 10 0d 0a 0a 01 	movss  0x10a0a(%rip),%xmm1        # 1bc70 <l_390.5039+0x30>
    b265:	00 
    b266:	0f 54 c1             	andps  %xmm1,%xmm0
    b269:	0f 2f 05 10 0a 01 00 	comiss 0x10a10(%rip),%xmm0        # 1bc80 <l_390.5039+0x40>
    b270:	76 07                	jbe    b279 <safe_sub_func_float_f_f+0x53>
    b272:	f3 0f 10 45 fc       	movss  -0x4(%rbp),%xmm0
    b277:	eb 0a                	jmp    b283 <safe_sub_func_float_f_f+0x5d>
    b279:	f3 0f 10 45 fc       	movss  -0x4(%rbp),%xmm0
    b27e:	f3 0f 5c 45 f8       	subss  -0x8(%rbp),%xmm0
    b283:	5d                   	pop    %rbp
    b284:	c3                   	retq   

000000000000b285 <safe_mul_func_float_f_f>:
    b285:	f3 0f 1e fa          	endbr64 
    b289:	55                   	push   %rbp
    b28a:	48 89 e5             	mov    %rsp,%rbp
    b28d:	f3 0f 11 45 fc       	movss  %xmm0,-0x4(%rbp)
    b292:	f3 0f 11 4d f8       	movss  %xmm1,-0x8(%rbp)
    b297:	f3 0f 10 4d fc       	movss  -0x4(%rbp),%xmm1
    b29c:	f3 0f 10 05 e0 09 01 	movss  0x109e0(%rip),%xmm0        # 1bc84 <l_390.5039+0x44>
    b2a3:	00 
    b2a4:	f3 0f 59 c8          	mulss  %xmm0,%xmm1
    b2a8:	f3 0f 10 55 f8       	movss  -0x8(%rbp),%xmm2
    b2ad:	f3 0f 10 05 d3 09 01 	movss  0x109d3(%rip),%xmm0        # 1bc88 <l_390.5039+0x48>
    b2b4:	00 
    b2b5:	f3 0f 59 c2          	mulss  %xmm2,%xmm0
    b2b9:	f3 0f 59 c1          	mulss  %xmm1,%xmm0
    b2bd:	f3 0f 10 0d ab 09 01 	movss  0x109ab(%rip),%xmm1        # 1bc70 <l_390.5039+0x30>
    b2c4:	00 
    b2c5:	0f 54 c1             	andps  %xmm1,%xmm0
    b2c8:	0f 2f 05 bd 09 01 00 	comiss 0x109bd(%rip),%xmm0        # 1bc8c <l_390.5039+0x4c>
    b2cf:	76 07                	jbe    b2d8 <safe_mul_func_float_f_f+0x53>
    b2d1:	f3 0f 10 45 fc       	movss  -0x4(%rbp),%xmm0
    b2d6:	eb 0a                	jmp    b2e2 <safe_mul_func_float_f_f+0x5d>
    b2d8:	f3 0f 10 45 fc       	movss  -0x4(%rbp),%xmm0
    b2dd:	f3 0f 59 45 f8       	mulss  -0x8(%rbp),%xmm0
    b2e2:	5d                   	pop    %rbp
    b2e3:	c3                   	retq   

000000000000b2e4 <safe_div_func_float_f_f>:
    b2e4:	f3 0f 1e fa          	endbr64 
    b2e8:	55                   	push   %rbp
    b2e9:	48 89 e5             	mov    %rsp,%rbp
    b2ec:	f3 0f 11 45 fc       	movss  %xmm0,-0x4(%rbp)
    b2f1:	f3 0f 11 4d f8       	movss  %xmm1,-0x8(%rbp)
    b2f6:	f3 0f 10 45 f8       	movss  -0x8(%rbp),%xmm0
    b2fb:	f3 0f 10 0d 6d 09 01 	movss  0x1096d(%rip),%xmm1        # 1bc70 <l_390.5039+0x30>
    b302:	00 
    b303:	0f 54 c8             	andps  %xmm0,%xmm1
    b306:	f3 0f 10 05 82 09 01 	movss  0x10982(%rip),%xmm0        # 1bc90 <l_390.5039+0x50>
    b30d:	00 
    b30e:	0f 2f c1             	comiss %xmm1,%xmm0
    b311:	0f 97 c0             	seta   %al
    b314:	83 f0 01             	xor    $0x1,%eax
    b317:	84 c0                	test   %al,%al
    b319:	75 56                	jne    b371 <safe_div_func_float_f_f+0x8d>
    b31b:	66 0f ef c0          	pxor   %xmm0,%xmm0
    b31f:	0f 2e 45 f8          	ucomiss -0x8(%rbp),%xmm0
    b323:	7a 0a                	jp     b32f <safe_div_func_float_f_f+0x4b>
    b325:	66 0f ef c0          	pxor   %xmm0,%xmm0
    b329:	0f 2e 45 f8          	ucomiss -0x8(%rbp),%xmm0
    b32d:	74 4e                	je     b37d <safe_div_func_float_f_f+0x99>
    b32f:	f3 0f 10 4d fc       	movss  -0x4(%rbp),%xmm1
    b334:	f3 0f 10 05 58 09 01 	movss  0x10958(%rip),%xmm0        # 1bc94 <l_390.5039+0x54>
    b33b:	00 
    b33c:	f3 0f 59 c1          	mulss  %xmm1,%xmm0
    b340:	f3 0f 10 55 f8       	movss  -0x8(%rbp),%xmm2
    b345:	f3 0f 10 0d 4b 09 01 	movss  0x1094b(%rip),%xmm1        # 1bc98 <l_390.5039+0x58>
    b34c:	00 
    b34d:	f3 0f 59 ca          	mulss  %xmm2,%xmm1
    b351:	f3 0f 5e c1          	divss  %xmm1,%xmm0
    b355:	f3 0f 10 0d 13 09 01 	movss  0x10913(%rip),%xmm1        # 1bc70 <l_390.5039+0x30>
    b35c:	00 
    b35d:	0f 54 c1             	andps  %xmm1,%xmm0
    b360:	0f 2f 05 35 09 01 00 	comiss 0x10935(%rip),%xmm0        # 1bc9c <l_390.5039+0x5c>
    b367:	0f 97 c0             	seta   %al
    b36a:	83 f0 01             	xor    $0x1,%eax
    b36d:	84 c0                	test   %al,%al
    b36f:	74 0c                	je     b37d <safe_div_func_float_f_f+0x99>
    b371:	f3 0f 10 45 fc       	movss  -0x4(%rbp),%xmm0
    b376:	f3 0f 5e 45 f8       	divss  -0x8(%rbp),%xmm0
    b37b:	eb 05                	jmp    b382 <safe_div_func_float_f_f+0x9e>
    b37d:	f3 0f 10 45 fc       	movss  -0x4(%rbp),%xmm0
    b382:	5d                   	pop    %rbp
    b383:	c3                   	retq   

000000000000b384 <safe_add_func_double_f_f>:
    b384:	f3 0f 1e fa          	endbr64 
    b388:	55                   	push   %rbp
    b389:	48 89 e5             	mov    %rsp,%rbp
    b38c:	f2 0f 11 45 f8       	movsd  %xmm0,-0x8(%rbp)
    b391:	f2 0f 11 4d f0       	movsd  %xmm1,-0x10(%rbp)
    b396:	f2 0f 10 4d f8       	movsd  -0x8(%rbp),%xmm1
    b39b:	f2 0f 10 05 fd 08 01 	movsd  0x108fd(%rip),%xmm0        # 1bca0 <l_390.5039+0x60>
    b3a2:	00 
    b3a3:	f2 0f 59 c8          	mulsd  %xmm0,%xmm1
    b3a7:	f2 0f 10 55 f0       	movsd  -0x10(%rbp),%xmm2
    b3ac:	f2 0f 10 05 ec 08 01 	movsd  0x108ec(%rip),%xmm0        # 1bca0 <l_390.5039+0x60>
    b3b3:	00 
    b3b4:	f2 0f 59 c2          	mulsd  %xmm2,%xmm0
    b3b8:	f2 0f 58 c1          	addsd  %xmm1,%xmm0
    b3bc:	f3 0f 7e 0d ec 08 01 	movq   0x108ec(%rip),%xmm1        # 1bcb0 <l_390.5039+0x70>
    b3c3:	00 
    b3c4:	66 0f 54 c1          	andpd  %xmm1,%xmm0
    b3c8:	66 0f 2f 05 f0 08 01 	comisd 0x108f0(%rip),%xmm0        # 1bcc0 <l_390.5039+0x80>
    b3cf:	00 
    b3d0:	76 07                	jbe    b3d9 <safe_add_func_double_f_f+0x55>
    b3d2:	f2 0f 10 45 f8       	movsd  -0x8(%rbp),%xmm0
    b3d7:	eb 0a                	jmp    b3e3 <safe_add_func_double_f_f+0x5f>
    b3d9:	f2 0f 10 45 f8       	movsd  -0x8(%rbp),%xmm0
    b3de:	f2 0f 58 45 f0       	addsd  -0x10(%rbp),%xmm0
    b3e3:	5d                   	pop    %rbp
    b3e4:	c3                   	retq   

000000000000b3e5 <safe_sub_func_double_f_f>:
    b3e5:	f3 0f 1e fa          	endbr64 
    b3e9:	55                   	push   %rbp
    b3ea:	48 89 e5             	mov    %rsp,%rbp
    b3ed:	f2 0f 11 45 f8       	movsd  %xmm0,-0x8(%rbp)
    b3f2:	f2 0f 11 4d f0       	movsd  %xmm1,-0x10(%rbp)
    b3f7:	f2 0f 10 4d f8       	movsd  -0x8(%rbp),%xmm1
    b3fc:	f2 0f 10 05 9c 08 01 	movsd  0x1089c(%rip),%xmm0        # 1bca0 <l_390.5039+0x60>
    b403:	00 
    b404:	f2 0f 59 c1          	mulsd  %xmm1,%xmm0
    b408:	f2 0f 10 55 f0       	movsd  -0x10(%rbp),%xmm2
    b40d:	f2 0f 10 0d 8b 08 01 	movsd  0x1088b(%rip),%xmm1        # 1bca0 <l_390.5039+0x60>
    b414:	00 
    b415:	f2 0f 59 ca          	mulsd  %xmm2,%xmm1
    b419:	f2 0f 5c c1          	subsd  %xmm1,%xmm0
    b41d:	f3 0f 7e 0d 8b 08 01 	movq   0x1088b(%rip),%xmm1        # 1bcb0 <l_390.5039+0x70>
    b424:	00 
    b425:	66 0f 54 c1          	andpd  %xmm1,%xmm0
    b429:	66 0f 2f 05 8f 08 01 	comisd 0x1088f(%rip),%xmm0        # 1bcc0 <l_390.5039+0x80>
    b430:	00 
    b431:	76 07                	jbe    b43a <safe_sub_func_double_f_f+0x55>
    b433:	f2 0f 10 45 f8       	movsd  -0x8(%rbp),%xmm0
    b438:	eb 0a                	jmp    b444 <safe_sub_func_double_f_f+0x5f>
    b43a:	f2 0f 10 45 f8       	movsd  -0x8(%rbp),%xmm0
    b43f:	f2 0f 5c 45 f0       	subsd  -0x10(%rbp),%xmm0
    b444:	5d                   	pop    %rbp
    b445:	c3                   	retq   

000000000000b446 <safe_mul_func_double_f_f>:
    b446:	f3 0f 1e fa          	endbr64 
    b44a:	55                   	push   %rbp
    b44b:	48 89 e5             	mov    %rsp,%rbp
    b44e:	f2 0f 11 45 f8       	movsd  %xmm0,-0x8(%rbp)
    b453:	f2 0f 11 4d f0       	movsd  %xmm1,-0x10(%rbp)
    b458:	f2 0f 10 4d f8       	movsd  -0x8(%rbp),%xmm1
    b45d:	f2 0f 10 05 63 08 01 	movsd  0x10863(%rip),%xmm0        # 1bcc8 <l_390.5039+0x88>
    b464:	00 
    b465:	f2 0f 59 c8          	mulsd  %xmm0,%xmm1
    b469:	f2 0f 10 55 f0       	movsd  -0x10(%rbp),%xmm2
    b46e:	f2 0f 10 05 5a 08 01 	movsd  0x1085a(%rip),%xmm0        # 1bcd0 <l_390.5039+0x90>
    b475:	00 
    b476:	f2 0f 59 c2          	mulsd  %xmm2,%xmm0
    b47a:	f2 0f 59 c1          	mulsd  %xmm1,%xmm0
    b47e:	f3 0f 7e 0d 2a 08 01 	movq   0x1082a(%rip),%xmm1        # 1bcb0 <l_390.5039+0x70>
    b485:	00 
    b486:	66 0f 54 c1          	andpd  %xmm1,%xmm0
    b48a:	66 0f 2f 05 46 08 01 	comisd 0x10846(%rip),%xmm0        # 1bcd8 <l_390.5039+0x98>
    b491:	00 
    b492:	76 07                	jbe    b49b <safe_mul_func_double_f_f+0x55>
    b494:	f2 0f 10 45 f8       	movsd  -0x8(%rbp),%xmm0
    b499:	eb 0a                	jmp    b4a5 <safe_mul_func_double_f_f+0x5f>
    b49b:	f2 0f 10 45 f8       	movsd  -0x8(%rbp),%xmm0
    b4a0:	f2 0f 59 45 f0       	mulsd  -0x10(%rbp),%xmm0
    b4a5:	5d                   	pop    %rbp
    b4a6:	c3                   	retq   

000000000000b4a7 <safe_div_func_double_f_f>:
    b4a7:	f3 0f 1e fa          	endbr64 
    b4ab:	55                   	push   %rbp
    b4ac:	48 89 e5             	mov    %rsp,%rbp
    b4af:	f2 0f 11 45 f8       	movsd  %xmm0,-0x8(%rbp)
    b4b4:	f2 0f 11 4d f0       	movsd  %xmm1,-0x10(%rbp)
    b4b9:	f2 0f 10 45 f0       	movsd  -0x10(%rbp),%xmm0
    b4be:	f3 0f 7e 0d ea 07 01 	movq   0x107ea(%rip),%xmm1        # 1bcb0 <l_390.5039+0x70>
    b4c5:	00 
    b4c6:	66 0f 54 c8          	andpd  %xmm0,%xmm1
    b4ca:	f2 0f 10 05 0e 08 01 	movsd  0x1080e(%rip),%xmm0        # 1bce0 <l_390.5039+0xa0>
    b4d1:	00 
    b4d2:	66 0f 2f c1          	comisd %xmm1,%xmm0
    b4d6:	0f 97 c0             	seta   %al
    b4d9:	83 f0 01             	xor    $0x1,%eax
    b4dc:	84 c0                	test   %al,%al
    b4de:	75 5a                	jne    b53a <safe_div_func_double_f_f+0x93>
    b4e0:	66 0f ef c0          	pxor   %xmm0,%xmm0
    b4e4:	66 0f 2e 45 f0       	ucomisd -0x10(%rbp),%xmm0
    b4e9:	7a 0b                	jp     b4f6 <safe_div_func_double_f_f+0x4f>
    b4eb:	66 0f ef c0          	pxor   %xmm0,%xmm0
    b4ef:	66 0f 2e 45 f0       	ucomisd -0x10(%rbp),%xmm0
    b4f4:	74 50                	je     b546 <safe_div_func_double_f_f+0x9f>
    b4f6:	f2 0f 10 4d f8       	movsd  -0x8(%rbp),%xmm1
    b4fb:	f2 0f 10 05 e5 07 01 	movsd  0x107e5(%rip),%xmm0        # 1bce8 <l_390.5039+0xa8>
    b502:	00 
    b503:	f2 0f 59 c1          	mulsd  %xmm1,%xmm0
    b507:	f2 0f 10 55 f0       	movsd  -0x10(%rbp),%xmm2
    b50c:	f2 0f 10 0d dc 07 01 	movsd  0x107dc(%rip),%xmm1        # 1bcf0 <l_390.5039+0xb0>
    b513:	00 
    b514:	f2 0f 59 ca          	mulsd  %xmm2,%xmm1
    b518:	f2 0f 5e c1          	divsd  %xmm1,%xmm0
    b51c:	f3 0f 7e 0d 8c 07 01 	movq   0x1078c(%rip),%xmm1        # 1bcb0 <l_390.5039+0x70>
    b523:	00 
    b524:	66 0f 54 c1          	andpd  %xmm1,%xmm0
    b528:	66 0f 2f 05 c8 07 01 	comisd 0x107c8(%rip),%xmm0        # 1bcf8 <l_390.5039+0xb8>
    b52f:	00 
    b530:	0f 97 c0             	seta   %al
    b533:	83 f0 01             	xor    $0x1,%eax
    b536:	84 c0                	test   %al,%al
    b538:	74 0c                	je     b546 <safe_div_func_double_f_f+0x9f>
    b53a:	f2 0f 10 45 f8       	movsd  -0x8(%rbp),%xmm0
    b53f:	f2 0f 5e 45 f0       	divsd  -0x10(%rbp),%xmm0
    b544:	eb 05                	jmp    b54b <safe_div_func_double_f_f+0xa4>
    b546:	f2 0f 10 45 f8       	movsd  -0x8(%rbp),%xmm0
    b54b:	5d                   	pop    %rbp
    b54c:	c3                   	retq   

000000000000b54d <safe_convert_func_float_to_int32_t>:
    b54d:	f3 0f 1e fa          	endbr64 
    b551:	55                   	push   %rbp
    b552:	48 89 e5             	mov    %rsp,%rbp
    b555:	f3 0f 11 45 fc       	movss  %xmm0,-0x4(%rbp)
    b55a:	f3 0f 10 05 9e 07 01 	movss  0x1079e(%rip),%xmm0        # 1bd00 <l_390.5039+0xc0>
    b561:	00 
    b562:	0f 2f 45 fc          	comiss -0x4(%rbp),%xmm0
    b566:	0f 93 c0             	setae  %al
    b569:	83 f0 01             	xor    $0x1,%eax
    b56c:	84 c0                	test   %al,%al
    b56e:	74 21                	je     b591 <safe_convert_func_float_to_int32_t+0x44>
    b570:	f3 0f 10 45 fc       	movss  -0x4(%rbp),%xmm0
    b575:	0f 2f 05 88 07 01 00 	comiss 0x10788(%rip),%xmm0        # 1bd04 <l_390.5039+0xc4>
    b57c:	0f 93 c0             	setae  %al
    b57f:	83 f0 01             	xor    $0x1,%eax
    b582:	84 c0                	test   %al,%al
    b584:	74 0b                	je     b591 <safe_convert_func_float_to_int32_t+0x44>
    b586:	f3 0f 10 45 fc       	movss  -0x4(%rbp),%xmm0
    b58b:	f3 0f 2c c0          	cvttss2si %xmm0,%eax
    b58f:	eb 05                	jmp    b596 <safe_convert_func_float_to_int32_t+0x49>
    b591:	b8 ff ff ff 7f       	mov    $0x7fffffff,%eax
    b596:	5d                   	pop    %rbp
    b597:	c3                   	retq   

000000000000b598 <crc32_gentab>:
    b598:	f3 0f 1e fa          	endbr64 
    b59c:	55                   	push   %rbp
    b59d:	48 89 e5             	mov    %rsp,%rbp
    b5a0:	c7 45 fc 20 83 b8 ed 	movl   $0xedb88320,-0x4(%rbp)
    b5a7:	c7 45 f4 00 00 00 00 	movl   $0x0,-0xc(%rbp)
    b5ae:	eb 51                	jmp    b601 <crc32_gentab+0x69>
    b5b0:	8b 45 f4             	mov    -0xc(%rbp),%eax
    b5b3:	89 45 f0             	mov    %eax,-0x10(%rbp)
    b5b6:	c7 45 f8 08 00 00 00 	movl   $0x8,-0x8(%rbp)
    b5bd:	eb 1e                	jmp    b5dd <crc32_gentab+0x45>
    b5bf:	8b 45 f0             	mov    -0x10(%rbp),%eax
    b5c2:	83 e0 01             	and    $0x1,%eax
    b5c5:	85 c0                	test   %eax,%eax
    b5c7:	74 0d                	je     b5d6 <crc32_gentab+0x3e>
    b5c9:	8b 45 f0             	mov    -0x10(%rbp),%eax
    b5cc:	d1 e8                	shr    %eax
    b5ce:	33 45 fc             	xor    -0x4(%rbp),%eax
    b5d1:	89 45 f0             	mov    %eax,-0x10(%rbp)
    b5d4:	eb 03                	jmp    b5d9 <crc32_gentab+0x41>
    b5d6:	d1 6d f0             	shrl   -0x10(%rbp)
    b5d9:	83 6d f8 01          	subl   $0x1,-0x8(%rbp)
    b5dd:	83 7d f8 00          	cmpl   $0x0,-0x8(%rbp)
    b5e1:	7f dc                	jg     b5bf <crc32_gentab+0x27>
    b5e3:	8b 45 f4             	mov    -0xc(%rbp),%eax
    b5e6:	48 98                	cltq   
    b5e8:	48 8d 0c 85 00 00 00 	lea    0x0(,%rax,4),%rcx
    b5ef:	00 
    b5f0:	48 8d 15 c9 88 01 00 	lea    0x188c9(%rip),%rdx        # 23ec0 <crc32_tab>
    b5f7:	8b 45 f0             	mov    -0x10(%rbp),%eax
    b5fa:	89 04 11             	mov    %eax,(%rcx,%rdx,1)
    b5fd:	83 45 f4 01          	addl   $0x1,-0xc(%rbp)
    b601:	81 7d f4 ff 00 00 00 	cmpl   $0xff,-0xc(%rbp)
    b608:	7e a6                	jle    b5b0 <crc32_gentab+0x18>
    b60a:	90                   	nop
    b60b:	90                   	nop
    b60c:	5d                   	pop    %rbp
    b60d:	c3                   	retq   

000000000000b60e <crc32_byte>:
    b60e:	f3 0f 1e fa          	endbr64 
    b612:	55                   	push   %rbp
    b613:	48 89 e5             	mov    %rsp,%rbp
    b616:	89 f8                	mov    %edi,%eax
    b618:	88 45 fc             	mov    %al,-0x4(%rbp)
    b61b:	8b 05 ff 39 01 00    	mov    0x139ff(%rip),%eax        # 1f020 <crc32_context>
    b621:	c1 e8 08             	shr    $0x8,%eax
    b624:	89 c1                	mov    %eax,%ecx
    b626:	0f b6 55 fc          	movzbl -0x4(%rbp),%edx
    b62a:	8b 05 f0 39 01 00    	mov    0x139f0(%rip),%eax        # 1f020 <crc32_context>
    b630:	31 d0                	xor    %edx,%eax
    b632:	0f b6 c0             	movzbl %al,%eax
    b635:	89 c0                	mov    %eax,%eax
    b637:	48 8d 14 85 00 00 00 	lea    0x0(,%rax,4),%rdx
    b63e:	00 
    b63f:	48 8d 05 7a 88 01 00 	lea    0x1887a(%rip),%rax        # 23ec0 <crc32_tab>
    b646:	8b 04 02             	mov    (%rdx,%rax,1),%eax
    b649:	31 c8                	xor    %ecx,%eax
    b64b:	89 05 cf 39 01 00    	mov    %eax,0x139cf(%rip)        # 1f020 <crc32_context>
    b651:	90                   	nop
    b652:	5d                   	pop    %rbp
    b653:	c3                   	retq   

000000000000b654 <crc32_8bytes>:
    b654:	f3 0f 1e fa          	endbr64 
    b658:	55                   	push   %rbp
    b659:	48 89 e5             	mov    %rsp,%rbp
    b65c:	48 83 ec 08          	sub    $0x8,%rsp
    b660:	48 89 7d f8          	mov    %rdi,-0x8(%rbp)
    b664:	48 8b 45 f8          	mov    -0x8(%rbp),%rax
    b668:	0f b6 c0             	movzbl %al,%eax
    b66b:	89 c7                	mov    %eax,%edi
    b66d:	e8 9c ff ff ff       	callq  b60e <crc32_byte>
    b672:	48 8b 45 f8          	mov    -0x8(%rbp),%rax
    b676:	48 c1 e8 08          	shr    $0x8,%rax
    b67a:	0f b6 c0             	movzbl %al,%eax
    b67d:	89 c7                	mov    %eax,%edi
    b67f:	e8 8a ff ff ff       	callq  b60e <crc32_byte>
    b684:	48 8b 45 f8          	mov    -0x8(%rbp),%rax
    b688:	48 c1 e8 10          	shr    $0x10,%rax
    b68c:	0f b6 c0             	movzbl %al,%eax
    b68f:	89 c7                	mov    %eax,%edi
    b691:	e8 78 ff ff ff       	callq  b60e <crc32_byte>
    b696:	48 8b 45 f8          	mov    -0x8(%rbp),%rax
    b69a:	48 c1 e8 18          	shr    $0x18,%rax
    b69e:	0f b6 c0             	movzbl %al,%eax
    b6a1:	89 c7                	mov    %eax,%edi
    b6a3:	e8 66 ff ff ff       	callq  b60e <crc32_byte>
    b6a8:	48 8b 45 f8          	mov    -0x8(%rbp),%rax
    b6ac:	48 c1 e8 20          	shr    $0x20,%rax
    b6b0:	0f b6 c0             	movzbl %al,%eax
    b6b3:	89 c7                	mov    %eax,%edi
    b6b5:	e8 54 ff ff ff       	callq  b60e <crc32_byte>
    b6ba:	48 8b 45 f8          	mov    -0x8(%rbp),%rax
    b6be:	48 c1 e8 28          	shr    $0x28,%rax
    b6c2:	0f b6 c0             	movzbl %al,%eax
    b6c5:	89 c7                	mov    %eax,%edi
    b6c7:	e8 42 ff ff ff       	callq  b60e <crc32_byte>
    b6cc:	48 8b 45 f8          	mov    -0x8(%rbp),%rax
    b6d0:	48 c1 e8 30          	shr    $0x30,%rax
    b6d4:	0f b6 c0             	movzbl %al,%eax
    b6d7:	89 c7                	mov    %eax,%edi
    b6d9:	e8 30 ff ff ff       	callq  b60e <crc32_byte>
    b6de:	48 8b 45 f8          	mov    -0x8(%rbp),%rax
    b6e2:	48 c1 e8 38          	shr    $0x38,%rax
    b6e6:	0f b6 c0             	movzbl %al,%eax
    b6e9:	89 c7                	mov    %eax,%edi
    b6eb:	e8 1e ff ff ff       	callq  b60e <crc32_byte>
    b6f0:	90                   	nop
    b6f1:	c9                   	leaveq 
    b6f2:	c3                   	retq   

000000000000b6f3 <transparent_crc>:
    b6f3:	f3 0f 1e fa          	endbr64 
    b6f7:	55                   	push   %rbp
    b6f8:	48 89 e5             	mov    %rsp,%rbp
    b6fb:	48 83 ec 20          	sub    $0x20,%rsp
    b6ff:	48 89 7d f8          	mov    %rdi,-0x8(%rbp)
    b703:	48 89 75 f0          	mov    %rsi,-0x10(%rbp)
    b707:	89 55 ec             	mov    %edx,-0x14(%rbp)
    b70a:	48 8b 45 f8          	mov    -0x8(%rbp),%rax
    b70e:	48 89 c7             	mov    %rax,%rdi
    b711:	e8 3e ff ff ff       	callq  b654 <crc32_8bytes>
    b716:	83 7d ec 00          	cmpl   $0x0,-0x14(%rbp)
    b71a:	74 22                	je     b73e <transparent_crc+0x4b>
    b71c:	8b 05 fe 38 01 00    	mov    0x138fe(%rip),%eax        # 1f020 <crc32_context>
    b722:	f7 d0                	not    %eax
    b724:	89 c2                	mov    %eax,%edx
    b726:	48 8b 45 f0          	mov    -0x10(%rbp),%rax
    b72a:	48 89 c6             	mov    %rax,%rsi
    b72d:	48 8d 3d fc d8 00 00 	lea    0xd8fc(%rip),%rdi        # 19030 <_IO_stdin_used+0x30>
    b734:	b8 00 00 00 00       	mov    $0x0,%eax
    b739:	e8 42 e9 ff ff       	callq  a080 <printf@plt>
    b73e:	90                   	nop
    b73f:	c9                   	leaveq 
    b740:	c3                   	retq   

000000000000b741 <transparent_crc_bytes>:
    b741:	f3 0f 1e fa          	endbr64 
    b745:	55                   	push   %rbp
    b746:	48 89 e5             	mov    %rsp,%rbp
    b749:	48 83 ec 30          	sub    $0x30,%rsp
    b74d:	48 89 7d e8          	mov    %rdi,-0x18(%rbp)
    b751:	89 75 e4             	mov    %esi,-0x1c(%rbp)
    b754:	48 89 55 d8          	mov    %rdx,-0x28(%rbp)
    b758:	89 4d e0             	mov    %ecx,-0x20(%rbp)
    b75b:	c7 45 fc 00 00 00 00 	movl   $0x0,-0x4(%rbp)
    b762:	eb 1e                	jmp    b782 <transparent_crc_bytes+0x41>
    b764:	8b 45 fc             	mov    -0x4(%rbp),%eax
    b767:	48 63 d0             	movslq %eax,%rdx
    b76a:	48 8b 45 e8          	mov    -0x18(%rbp),%rax
    b76e:	48 01 d0             	add    %rdx,%rax
    b771:	0f b6 00             	movzbl (%rax),%eax
    b774:	0f b6 c0             	movzbl %al,%eax
    b777:	89 c7                	mov    %eax,%edi
    b779:	e8 90 fe ff ff       	callq  b60e <crc32_byte>
    b77e:	83 45 fc 01          	addl   $0x1,-0x4(%rbp)
    b782:	8b 45 fc             	mov    -0x4(%rbp),%eax
    b785:	3b 45 e4             	cmp    -0x1c(%rbp),%eax
    b788:	7c da                	jl     b764 <transparent_crc_bytes+0x23>
    b78a:	83 7d e0 00          	cmpl   $0x0,-0x20(%rbp)
    b78e:	74 22                	je     b7b2 <transparent_crc_bytes+0x71>
    b790:	8b 05 8a 38 01 00    	mov    0x1388a(%rip),%eax        # 1f020 <crc32_context>
    b796:	f7 d0                	not    %eax
    b798:	89 c2                	mov    %eax,%edx
    b79a:	48 8b 45 d8          	mov    -0x28(%rbp),%rax
    b79e:	48 89 c6             	mov    %rax,%rsi
    b7a1:	48 8d 3d 88 d8 00 00 	lea    0xd888(%rip),%rdi        # 19030 <_IO_stdin_used+0x30>
    b7a8:	b8 00 00 00 00       	mov    $0x0,%eax
    b7ad:	e8 ce e8 ff ff       	callq  a080 <printf@plt>
    b7b2:	90                   	nop
    b7b3:	c9                   	leaveq 
    b7b4:	c3                   	retq   

000000000000b7b5 <func_1>:
    b7b5:	f3 0f 1e fa          	endbr64 
    b7b9:	55                   	push   %rbp
    b7ba:	48 89 e5             	mov    %rsp,%rbp
    b7bd:	48 81 ec c0 00 00 00 	sub    $0xc0,%rsp
    b7c4:	64 48 8b 04 25 28 00 	mov    %fs:0x28,%rax
    b7cb:	00 00 
    b7cd:	48 89 45 f8          	mov    %rax,-0x8(%rbp)
    b7d1:	31 c0                	xor    %eax,%eax
    b7d3:	48 8d 05 4a 3f 01 00 	lea    0x13f4a(%rip),%rax        # 1f724 <g_386>
    b7da:	48 89 85 58 ff ff ff 	mov    %rax,-0xa8(%rbp)
    b7e1:	c7 85 4c ff ff ff 52 	movl   $0x91ee5052,-0xb4(%rbp)
    b7e8:	50 ee 91 
    b7eb:	c7 85 44 ff ff ff 00 	movl   $0x0,-0xbc(%rbp)
    b7f2:	00 00 00 
    b7f5:	eb 1b                	jmp    b812 <func_1+0x5d>
    b7f7:	8b 85 44 ff ff ff    	mov    -0xbc(%rbp),%eax
    b7fd:	48 98                	cltq   
    b7ff:	48 c7 84 c5 70 ff ff 	movq   $0x9,-0x90(%rbp,%rax,8)
    b806:	ff 09 00 00 00 
    b80b:	83 85 44 ff ff ff 01 	addl   $0x1,-0xbc(%rbp)
    b812:	83 bd 44 ff ff ff 01 	cmpl   $0x1,-0xbc(%rbp)
    b819:	7e dc                	jle    b7f7 <func_1+0x42>
    b81b:	c7 85 44 ff ff ff 00 	movl   $0x0,-0xbc(%rbp)
    b822:	00 00 00 
    b825:	eb 3f                	jmp    b866 <func_1+0xb1>
    b827:	c7 85 48 ff ff ff 00 	movl   $0x0,-0xb8(%rbp)
    b82e:	00 00 00 
    b831:	eb 23                	jmp    b856 <func_1+0xa1>
    b833:	8b 85 48 ff ff ff    	mov    -0xb8(%rbp),%eax
    b839:	48 63 d0             	movslq %eax,%rdx
    b83c:	8b 85 44 ff ff ff    	mov    -0xbc(%rbp),%eax
    b842:	48 98                	cltq   
    b844:	48 01 d0             	add    %rdx,%rax
    b847:	c7 44 85 a0 ff ff ff 	movl   $0xffffffff,-0x60(%rbp,%rax,4)
    b84e:	ff 
    b84f:	83 85 48 ff ff ff 01 	addl   $0x1,-0xb8(%rbp)
    b856:	83 bd 48 ff ff ff 00 	cmpl   $0x0,-0xb8(%rbp)
    b85d:	7e d4                	jle    b833 <func_1+0x7e>
    b85f:	83 85 44 ff ff ff 01 	addl   $0x1,-0xbc(%rbp)
    b866:	83 bd 44 ff ff ff 09 	cmpl   $0x9,-0xbc(%rbp)
    b86d:	7e b8                	jle    b827 <func_1+0x72>
    b86f:	c7 85 44 ff ff ff 00 	movl   $0x0,-0xbc(%rbp)
    b876:	00 00 00 
    b879:	eb 1b                	jmp    b896 <func_1+0xe1>
    b87b:	8b 85 44 ff ff ff    	mov    -0xbc(%rbp),%eax
    b881:	48 98                	cltq   
    b883:	48 8d 15 3e 8a 01 00 	lea    0x18a3e(%rip),%rdx        # 242c8 <g_3>
    b88a:	48 89 54 c5 80       	mov    %rdx,-0x80(%rbp,%rax,8)
    b88f:	83 85 44 ff ff ff 01 	addl   $0x1,-0xbc(%rbp)
    b896:	83 bd 44 ff ff ff 03 	cmpl   $0x3,-0xbc(%rbp)
    b89d:	7e dc                	jle    b87b <func_1+0xc6>
    b89f:	c7 05 1f 8a 01 00 eb 	movl   $0xffffffeb,0x18a1f(%rip)        # 242c8 <g_3>
    b8a6:	ff ff ff 
    b8a9:	eb 60                	jmp    b90b <func_1+0x156>
    b8ab:	48 8d 05 16 8a 01 00 	lea    0x18a16(%rip),%rax        # 242c8 <g_3>
    b8b2:	48 89 45 d0          	mov    %rax,-0x30(%rbp)
    b8b6:	48 8d 05 0b 8a 01 00 	lea    0x18a0b(%rip),%rax        # 242c8 <g_3>
    b8bd:	48 89 45 d8          	mov    %rax,-0x28(%rbp)
    b8c1:	48 8d 05 00 8a 01 00 	lea    0x18a00(%rip),%rax        # 242c8 <g_3>
    b8c8:	48 89 45 e0          	mov    %rax,-0x20(%rbp)
    b8cc:	48 8d 05 f5 89 01 00 	lea    0x189f5(%rip),%rax        # 242c8 <g_3>
    b8d3:	48 89 45 e8          	mov    %rax,-0x18(%rbp)
    b8d7:	48 8d 05 ea 89 01 00 	lea    0x189ea(%rip),%rax        # 242c8 <g_3>
    b8de:	48 89 45 f0          	mov    %rax,-0x10(%rbp)
    b8e2:	66 c7 85 42 ff ff ff 	movw   $0x39f3,-0xbe(%rbp)
    b8e9:	f3 39 
    b8eb:	0f b7 85 42 ff ff ff 	movzwl -0xbe(%rbp),%eax
    b8f2:	83 e8 01             	sub    $0x1,%eax
    b8f5:	66 89 85 42 ff ff ff 	mov    %ax,-0xbe(%rbp)
    b8fc:	8b 05 c6 89 01 00    	mov    0x189c6(%rip),%eax        # 242c8 <g_3>
    b902:	83 c0 01             	add    $0x1,%eax
    b905:	89 05 bd 89 01 00    	mov    %eax,0x189bd(%rip)        # 242c8 <g_3>
    b90b:	8b 05 b7 89 01 00    	mov    0x189b7(%rip),%eax        # 242c8 <g_3>
    b911:	83 f8 f8             	cmp    $0xfffffff8,%eax
    b914:	74 95                	je     b8ab <func_1+0xf6>
    b916:	c7 05 a8 89 01 00 14 	movl   $0x14,0x189a8(%rip)        # 242c8 <g_3>
    b91d:	00 00 00 
    b920:	eb 43                	jmp    b965 <func_1+0x1b0>
    b922:	c6 85 41 ff ff ff ff 	movb   $0xff,-0xbf(%rbp)
    b929:	48 8d 05 48 42 01 00 	lea    0x14248(%rip),%rax        # 1fb78 <g_987+0x8>
    b930:	48 89 85 60 ff ff ff 	mov    %rax,-0xa0(%rbp)
    b937:	48 c7 85 68 ff ff ff 	movq   $0x0,-0x98(%rbp)
    b93e:	00 00 00 00 
    b942:	c7 85 50 ff ff ff 01 	movl   $0x1,-0xb0(%rbp)
    b949:	00 00 00 
    b94c:	c7 85 54 ff ff ff ba 	movl   $0x3c4a2fba,-0xac(%rbp)
    b953:	2f 4a 3c 
    b956:	8b 05 6c 89 01 00    	mov    0x1896c(%rip),%eax        # 242c8 <g_3>
    b95c:	83 e8 01             	sub    $0x1,%eax
    b95f:	89 05 63 89 01 00    	mov    %eax,0x18963(%rip)        # 242c8 <g_3>
    b965:	8b 05 5d 89 01 00    	mov    0x1895d(%rip),%eax        # 242c8 <g_3>
    b96b:	83 f8 fe             	cmp    $0xfffffffe,%eax
    b96e:	75 b2                	jne    b922 <func_1+0x16d>
    b970:	48 8b 85 58 ff ff ff 	mov    -0xa8(%rbp),%rax
    b977:	8b 00                	mov    (%rax),%eax
    b979:	83 c8 01             	or     $0x1,%eax
    b97c:	89 c2                	mov    %eax,%edx
    b97e:	48 8b 85 58 ff ff ff 	mov    -0xa8(%rbp),%rax
    b985:	89 10                	mov    %edx,(%rax)
    b987:	48 8b 85 70 ff ff ff 	mov    -0x90(%rbp),%rax
    b98e:	48 83 f8 1c          	cmp    $0x1c,%rax
    b992:	0f 95 c2             	setne  %dl
    b995:	48 8b 05 24 7c 01 00 	mov    0x17c24(%rip),%rax        # 235c0 <g_1622>
    b99c:	48 8b 00             	mov    (%rax),%rax
    b99f:	0f b6 d2             	movzbl %dl,%edx
    b9a2:	89 10                	mov    %edx,(%rax)
    b9a4:	c7 85 4c ff ff ff fc 	movl   $0xfa1f81fc,-0xb4(%rbp)
    b9ab:	81 1f fa 
    b9ae:	48 8b 05 13 82 01 00 	mov    0x18213(%rip),%rax        # 23bc8 <g_1823>
    b9b5:	48 8b 00             	mov    (%rax),%rax
    b9b8:	8b 00                	mov    (%rax),%eax
    b9ba:	48 8b 4d f8          	mov    -0x8(%rbp),%rcx
    b9be:	64 48 33 0c 25 28 00 	xor    %fs:0x28,%rcx
    b9c5:	00 00 
    b9c7:	74 05                	je     b9ce <func_1+0x219>
    b9c9:	e8 a2 e6 ff ff       	callq  a070 <__stack_chk_fail@plt>
    b9ce:	c9                   	leaveq 
    b9cf:	c3                   	retq   

000000000000b9d0 <func_15>:
    b9d0:	f3 0f 1e fa          	endbr64 
    b9d4:	55                   	push   %rbp
    b9d5:	48 89 e5             	mov    %rsp,%rbp
    b9d8:	41 57                	push   %r15
    b9da:	41 56                	push   %r14
    b9dc:	41 55                	push   %r13
    b9de:	41 54                	push   %r12
    b9e0:	53                   	push   %rbx
    b9e1:	48 81 ec 88 00 00 00 	sub    $0x88,%rsp
    b9e8:	89 b5 68 ff ff ff    	mov    %esi,-0x98(%rbp)
    b9ee:	89 d0                	mov    %edx,%eax
    b9f0:	44 89 c2             	mov    %r8d,%edx
    b9f3:	89 fe                	mov    %edi,%esi
    b9f5:	40 88 b5 6c ff ff ff 	mov    %sil,-0x94(%rbp)
    b9fc:	66 89 85 64 ff ff ff 	mov    %ax,-0x9c(%rbp)
    ba03:	89 c8                	mov    %ecx,%eax
    ba05:	88 85 60 ff ff ff    	mov    %al,-0xa0(%rbp)
    ba0b:	89 d0                	mov    %edx,%eax
    ba0d:	66 89 85 5c ff ff ff 	mov    %ax,-0xa4(%rbp)
    ba14:	64 48 8b 04 25 28 00 	mov    %fs:0x28,%rax
    ba1b:	00 00 
    ba1d:	48 89 45 c8          	mov    %rax,-0x38(%rbp)
    ba21:	31 c0                	xor    %eax,%eax
    ba23:	48 8d 05 a2 36 01 00 	lea    0x136a2(%rip),%rax        # 1f0cc <g_7>
    ba2a:	48 89 85 70 ff ff ff 	mov    %rax,-0x90(%rbp)
    ba31:	c7 45 80 12 85 4c 2a 	movl   $0x2a4c8512,-0x80(%rbp)
    ba38:	c7 45 84 fb 8b c5 8c 	movl   $0x8cc58bfb,-0x7c(%rbp)
    ba3f:	c7 45 88 12 85 4c 2a 	movl   $0x2a4c8512,-0x78(%rbp)
    ba46:	c7 45 8c 31 59 ce b8 	movl   $0xb8ce5931,-0x74(%rbp)
    ba4d:	c7 45 90 39 78 11 73 	movl   $0x73117839,-0x70(%rbp)
    ba54:	c7 45 94 12 85 4c 2a 	movl   $0x2a4c8512,-0x6c(%rbp)
    ba5b:	c7 45 98 31 59 ce b8 	movl   $0xb8ce5931,-0x68(%rbp)
    ba62:	c7 45 9c fb 8b c5 8c 	movl   $0x8cc58bfb,-0x64(%rbp)
    ba69:	c7 45 a0 03 00 00 00 	movl   $0x3,-0x60(%rbp)
    ba70:	c7 45 a4 03 00 00 00 	movl   $0x3,-0x5c(%rbp)
    ba77:	c7 45 a8 39 78 11 73 	movl   $0x73117839,-0x58(%rbp)
    ba7e:	c7 45 ac 03 00 00 00 	movl   $0x3,-0x54(%rbp)
    ba85:	c7 45 b0 03 00 00 00 	movl   $0x3,-0x50(%rbp)
    ba8c:	c7 45 b4 fb 8b c5 8c 	movl   $0x8cc58bfb,-0x4c(%rbp)
    ba93:	c7 45 b8 31 59 ce b8 	movl   $0xb8ce5931,-0x48(%rbp)
    ba9a:	c7 45 bc 12 85 4c 2a 	movl   $0x2a4c8512,-0x44(%rbp)
    baa1:	c7 45 c0 39 78 11 73 	movl   $0x73117839,-0x40(%rbp)
    baa8:	c7 45 c4 31 59 ce b8 	movl   $0xb8ce5931,-0x3c(%rbp)
    baaf:	48 8d 05 1a 89 01 00 	lea    0x1891a(%rip),%rax        # 243d0 <g_2153>
    bab6:	48 89 85 78 ff ff ff 	mov    %rax,-0x88(%rbp)
    babd:	4c 8b 35 2c 70 01 00 	mov    0x1702c(%rip),%r14        # 22af0 <g_1339>
    bac4:	8b 05 06 36 01 00    	mov    0x13606(%rip),%eax        # 1f0d0 <g_28>
    baca:	25 d3 00 00 00       	and    $0xd3,%eax
    bacf:	89 05 fb 35 01 00    	mov    %eax,0x135fb(%rip)        # 1f0d0 <g_28>
    bad5:	0f b6 05 04 88 01 00 	movzbl 0x18804(%rip),%eax        # 242e0 <g_316>
    badc:	66 98                	cbtw   
    bade:	44 0f b7 e0          	movzwl %ax,%r12d
    bae2:	8b 45 94             	mov    -0x6c(%rbp),%eax
    bae5:	48 63 d8             	movslq %eax,%rbx
    bae8:	44 0f b7 ad 64 ff ff 	movzwl -0x9c(%rbp),%r13d
    baef:	ff 
    baf0:	8b 05 d2 87 01 00    	mov    0x187d2(%rip),%eax        # 242c8 <g_3>
    baf6:	41 89 c7             	mov    %eax,%r15d
    baf9:	0f be 85 6c ff ff ff 	movsbl -0x94(%rbp),%eax
    bb00:	89 c7                	mov    %eax,%edi
    bb02:	e8 a1 89 00 00       	callq  144a8 <func_46>
    bb07:	48 8d 95 70 ff ff ff 	lea    -0x90(%rbp),%rdx
    bb0e:	49 89 d0             	mov    %rdx,%r8
    bb11:	44 89 e9             	mov    %r13d,%ecx
    bb14:	44 89 fa             	mov    %r15d,%edx
    bb17:	48 8d 35 aa 87 01 00 	lea    0x187aa(%rip),%rsi        # 242c8 <g_3>
    bb1e:	89 c7                	mov    %eax,%edi
    bb20:	e8 4d 89 00 00       	callq  14472 <func_40>
    bb25:	48 89 c7             	mov    %rax,%rdi
    bb28:	e8 60 85 00 00       	callq  1408d <func_38>
    bb2d:	48 89 c6             	mov    %rax,%rsi
    bb30:	48 8b 85 70 ff ff ff 	mov    -0x90(%rbp),%rax
    bb37:	44 89 e1             	mov    %r12d,%ecx
    bb3a:	48 89 da             	mov    %rbx,%rdx
    bb3d:	48 89 c7             	mov    %rax,%rdi
    bb40:	e8 c3 80 00 00       	callq  13c08 <func_32>
    bb45:	48 89 c6             	mov    %rax,%rsi
    bb48:	48 8d 3d 7d 35 01 00 	lea    0x1357d(%rip),%rdi        # 1f0cc <g_7>
    bb4f:	e8 3a 7b 00 00       	callq  1368e <func_29>
    bb54:	0f b7 d0             	movzwl %ax,%edx
    bb57:	0f b7 05 c2 87 01 00 	movzwl 0x187c2(%rip),%eax        # 24320 <g_1370>
    bb5e:	98                   	cwtl   
    bb5f:	39 c2                	cmp    %eax,%edx
    bb61:	0f 9f c0             	setg   %al
    bb64:	0f b6 c8             	movzbl %al,%ecx
    bb67:	0f b7 95 64 ff ff ff 	movzwl -0x9c(%rbp),%edx
    bb6e:	8b 05 fc 34 01 00    	mov    0x134fc(%rip),%eax        # 1f070 <g_2+0x30>
    bb74:	4d 89 f0             	mov    %r14,%r8
    bb77:	89 c6                	mov    %eax,%esi
    bb79:	48 8d 3d 4c 35 01 00 	lea    0x1354c(%rip),%rdi        # 1f0cc <g_7>
    bb80:	e8 47 00 00 00       	callq  bbcc <func_22>
    bb85:	48 8b 95 78 ff ff ff 	mov    -0x88(%rbp),%rdx
    bb8c:	8b 12                	mov    (%rdx),%edx
    bb8e:	09 c2                	or     %eax,%edx
    bb90:	48 8b 85 78 ff ff ff 	mov    -0x88(%rbp),%rax
    bb97:	89 10                	mov    %edx,(%rax)
    bb99:	48 8b 05 08 7a 01 00 	mov    0x17a08(%rip),%rax        # 235a8 <g_1360>
    bba0:	48 8b 00             	mov    (%rax),%rax
    bba3:	48 8b 00             	mov    (%rax),%rax
    bba6:	48 8b 5d c8          	mov    -0x38(%rbp),%rbx
    bbaa:	64 48 33 1c 25 28 00 	xor    %fs:0x28,%rbx
    bbb1:	00 00 
    bbb3:	74 05                	je     bbba <func_15+0x1ea>
    bbb5:	e8 b6 e4 ff ff       	callq  a070 <__stack_chk_fail@plt>
    bbba:	48 81 c4 88 00 00 00 	add    $0x88,%rsp
    bbc1:	5b                   	pop    %rbx
    bbc2:	41 5c                	pop    %r12
    bbc4:	41 5d                	pop    %r13
    bbc6:	41 5e                	pop    %r14
    bbc8:	41 5f                	pop    %r15
    bbca:	5d                   	pop    %rbp
    bbcb:	c3                   	retq   

000000000000bbcc <func_22>:
    bbcc:	f3 0f 1e fa          	endbr64 
    bbd0:	55                   	push   %rbp
    bbd1:	48 89 e5             	mov    %rsp,%rbp
    bbd4:	41 57                	push   %r15
    bbd6:	41 56                	push   %r14
    bbd8:	41 55                	push   %r13
    bbda:	41 54                	push   %r12
    bbdc:	53                   	push   %rbx
    bbdd:	48 81 ec 00 10 00 00 	sub    $0x1000,%rsp
    bbe4:	48 83 0c 24 00       	orq    $0x0,(%rsp)
    bbe9:	48 81 ec 00 10 00 00 	sub    $0x1000,%rsp
    bbf0:	48 83 0c 24 00       	orq    $0x0,(%rsp)
    bbf5:	48 81 ec 00 10 00 00 	sub    $0x1000,%rsp
    bbfc:	48 83 0c 24 00       	orq    $0x0,(%rsp)
    bc01:	48 81 ec b8 06 00 00 	sub    $0x6b8,%rsp
    bc08:	48 89 bd 58 c9 ff ff 	mov    %rdi,-0x36a8(%rbp)
    bc0f:	89 b5 54 c9 ff ff    	mov    %esi,-0x36ac(%rbp)
    bc15:	48 89 95 48 c9 ff ff 	mov    %rdx,-0x36b8(%rbp)
    bc1c:	48 89 8d 40 c9 ff ff 	mov    %rcx,-0x36c0(%rbp)
    bc23:	4c 89 85 38 c9 ff ff 	mov    %r8,-0x36c8(%rbp)
    bc2a:	64 48 8b 04 25 28 00 	mov    %fs:0x28,%rax
    bc31:	00 00 
    bc33:	48 89 45 c8          	mov    %rax,-0x38(%rbp)
    bc37:	31 c0                	xor    %eax,%eax
    bc39:	48 c7 85 80 ca ff ff 	movq   $0x5,-0x3580(%rbp)
    bc40:	05 00 00 00 
    bc44:	48 b8 97 fb 3b e3 b6 	movabs $0x38fe5bb6e33bfb97,%rax
    bc4b:	5b fe 38 
    bc4e:	48 89 85 88 ca ff ff 	mov    %rax,-0x3578(%rbp)
    bc55:	48 8d 05 e4 3a 01 00 	lea    0x13ae4(%rip),%rax        # 1f740 <g_523>
    bc5c:	48 89 85 20 cb ff ff 	mov    %rax,-0x34e0(%rbp)
    bc63:	c7 85 74 c9 ff ff ac 	movl   $0xd45de1ac,-0x368c(%rbp)
    bc6a:	e1 5d d4 
    bc6d:	c7 85 30 ce ff ff ff 	movl   $0xffffffff,-0x31d0(%rbp)
    bc74:	ff ff ff 
    bc77:	c7 85 34 ce ff ff ff 	movl   $0xffffffff,-0x31cc(%rbp)
    bc7e:	ff ff ff 
    bc81:	c7 85 38 ce ff ff ff 	movl   $0xffffffff,-0x31c8(%rbp)
    bc88:	ff ff ff 
    bc8b:	c7 85 3c ce ff ff ff 	movl   $0xffffffff,-0x31c4(%rbp)
    bc92:	ff ff ff 
    bc95:	c7 85 40 ce ff ff ff 	movl   $0xffffffff,-0x31c0(%rbp)
    bc9c:	ff ff ff 
    bc9f:	c7 85 44 ce ff ff ff 	movl   $0xffffffff,-0x31bc(%rbp)
    bca6:	ff ff ff 
    bca9:	c7 85 48 ce ff ff ff 	movl   $0xffffffff,-0x31b8(%rbp)
    bcb0:	ff ff ff 
    bcb3:	c7 85 4c ce ff ff ff 	movl   $0xffffffff,-0x31b4(%rbp)
    bcba:	ff ff ff 
    bcbd:	c7 85 50 ce ff ff ff 	movl   $0xffffffff,-0x31b0(%rbp)
    bcc4:	ff ff ff 
    bcc7:	48 8d 85 a8 cd ff ff 	lea    -0x3258(%rbp),%rax
    bcce:	48 89 85 90 ca ff ff 	mov    %rax,-0x3570(%rbp)
    bcd5:	48 8d 85 90 ca ff ff 	lea    -0x3570(%rbp),%rax
    bcdc:	48 89 85 b0 cd ff ff 	mov    %rax,-0x3250(%rbp)
    bce3:	48 8d 85 b0 cd ff ff 	lea    -0x3250(%rbp),%rax
    bcea:	48 89 85 98 ca ff ff 	mov    %rax,-0x3568(%rbp)
    bcf1:	66 c7 85 6e c9 ff ff 	movw   $0x449a,-0x3692(%rbp)
    bcf8:	9a 44 
    bcfa:	48 8d 05 63 3a 01 00 	lea    0x13a63(%rip),%rax        # 1f764 <g_543+0x4>
    bd01:	48 89 85 a0 ca ff ff 	mov    %rax,-0x3560(%rbp)
    bd08:	48 8d 85 a0 ca ff ff 	lea    -0x3560(%rbp),%rax
    bd0f:	48 89 85 a8 ca ff ff 	mov    %rax,-0x3558(%rbp)
    bd16:	48 8d 85 a8 ca ff ff 	lea    -0x3558(%rbp),%rax
    bd1d:	48 89 85 00 cf ff ff 	mov    %rax,-0x3100(%rbp)
    bd24:	48 8d 85 a8 ca ff ff 	lea    -0x3558(%rbp),%rax
    bd2b:	48 89 85 08 cf ff ff 	mov    %rax,-0x30f8(%rbp)
    bd32:	48 8d 85 a8 ca ff ff 	lea    -0x3558(%rbp),%rax
    bd39:	48 89 85 10 cf ff ff 	mov    %rax,-0x30f0(%rbp)
    bd40:	48 8d 85 a8 ca ff ff 	lea    -0x3558(%rbp),%rax
    bd47:	48 89 85 18 cf ff ff 	mov    %rax,-0x30e8(%rbp)
    bd4e:	48 8d 85 a8 ca ff ff 	lea    -0x3558(%rbp),%rax
    bd55:	48 89 85 20 cf ff ff 	mov    %rax,-0x30e0(%rbp)
    bd5c:	48 8d 85 a8 ca ff ff 	lea    -0x3558(%rbp),%rax
    bd63:	48 89 85 28 cf ff ff 	mov    %rax,-0x30d8(%rbp)
    bd6a:	48 8d 85 a8 ca ff ff 	lea    -0x3558(%rbp),%rax
    bd71:	48 89 85 30 cf ff ff 	mov    %rax,-0x30d0(%rbp)
    bd78:	48 8d 85 a8 ca ff ff 	lea    -0x3558(%rbp),%rax
    bd7f:	48 89 85 38 cf ff ff 	mov    %rax,-0x30c8(%rbp)
    bd86:	48 8d 85 a8 ca ff ff 	lea    -0x3558(%rbp),%rax
    bd8d:	48 89 85 40 cf ff ff 	mov    %rax,-0x30c0(%rbp)
    bd94:	48 8d 85 a8 ca ff ff 	lea    -0x3558(%rbp),%rax
    bd9b:	48 89 85 48 cf ff ff 	mov    %rax,-0x30b8(%rbp)
    bda2:	48 8d 05 67 85 01 00 	lea    0x18567(%rip),%rax        # 24310 <g_1165>
    bda9:	48 89 85 b0 ca ff ff 	mov    %rax,-0x3550(%rbp)
    bdb0:	48 8d 85 b0 ca ff ff 	lea    -0x3550(%rbp),%rax
    bdb7:	48 89 85 28 cb ff ff 	mov    %rax,-0x34d8(%rbp)
    bdbe:	c7 85 78 c9 ff ff 01 	movl   $0x1,-0x3688(%rbp)
    bdc5:	00 00 00 
    bdc8:	48 8d 05 41 39 01 00 	lea    0x13941(%rip),%rax        # 1f710 <g_319>
    bdcf:	48 89 85 b8 ca ff ff 	mov    %rax,-0x3548(%rbp)
    bdd6:	48 8d 85 c0 cd ff ff 	lea    -0x3240(%rbp),%rax
    bddd:	48 89 85 50 d0 ff ff 	mov    %rax,-0x2fb0(%rbp)
    bde4:	48 8d 85 c0 cd ff ff 	lea    -0x3240(%rbp),%rax
    bdeb:	48 89 85 58 d0 ff ff 	mov    %rax,-0x2fa8(%rbp)
    bdf2:	48 c7 85 60 d0 ff ff 	movq   $0x0,-0x2fa0(%rbp)
    bdf9:	00 00 00 00 
    bdfd:	48 8d 85 c0 cd ff ff 	lea    -0x3240(%rbp),%rax
    be04:	48 89 85 68 d0 ff ff 	mov    %rax,-0x2f98(%rbp)
    be0b:	48 c7 85 70 d0 ff ff 	movq   $0x0,-0x2f90(%rbp)
    be12:	00 00 00 00 
    be16:	48 c7 85 78 d0 ff ff 	movq   $0x0,-0x2f88(%rbp)
    be1d:	00 00 00 00 
    be21:	48 c7 85 80 d0 ff ff 	movq   $0x0,-0x2f80(%rbp)
    be28:	00 00 00 00 
    be2c:	48 8d 85 c0 cd ff ff 	lea    -0x3240(%rbp),%rax
    be33:	48 89 85 88 d0 ff ff 	mov    %rax,-0x2f78(%rbp)
    be3a:	48 c7 85 90 d0 ff ff 	movq   $0x0,-0x2f70(%rbp)
    be41:	00 00 00 00 
    be45:	48 8d 85 c0 cd ff ff 	lea    -0x3240(%rbp),%rax
    be4c:	48 83 c0 08          	add    $0x8,%rax
    be50:	48 89 85 98 d0 ff ff 	mov    %rax,-0x2f68(%rbp)
    be57:	48 8d 85 c0 cd ff ff 	lea    -0x3240(%rbp),%rax
    be5e:	48 89 85 a0 d0 ff ff 	mov    %rax,-0x2f60(%rbp)
    be65:	48 8d 85 c0 cd ff ff 	lea    -0x3240(%rbp),%rax
    be6c:	48 89 85 a8 d0 ff ff 	mov    %rax,-0x2f58(%rbp)
    be73:	48 8d 85 c0 cd ff ff 	lea    -0x3240(%rbp),%rax
    be7a:	48 89 85 b0 d0 ff ff 	mov    %rax,-0x2f50(%rbp)
    be81:	48 8d 85 c0 cd ff ff 	lea    -0x3240(%rbp),%rax
    be88:	48 89 85 b8 d0 ff ff 	mov    %rax,-0x2f48(%rbp)
    be8f:	48 8d 85 c0 cd ff ff 	lea    -0x3240(%rbp),%rax
    be96:	48 83 c0 08          	add    $0x8,%rax
    be9a:	48 89 85 c0 d0 ff ff 	mov    %rax,-0x2f40(%rbp)
    bea1:	48 c7 85 c8 d0 ff ff 	movq   $0x0,-0x2f38(%rbp)
    bea8:	00 00 00 00 
    beac:	48 8d 85 c0 cd ff ff 	lea    -0x3240(%rbp),%rax
    beb3:	48 89 85 d0 d0 ff ff 	mov    %rax,-0x2f30(%rbp)
    beba:	48 c7 85 d8 d0 ff ff 	movq   $0x0,-0x2f28(%rbp)
    bec1:	00 00 00 00 
    bec5:	48 c7 85 e0 d0 ff ff 	movq   $0x0,-0x2f20(%rbp)
    becc:	00 00 00 00 
    bed0:	48 8d 85 c0 cd ff ff 	lea    -0x3240(%rbp),%rax
    bed7:	48 89 85 e8 d0 ff ff 	mov    %rax,-0x2f18(%rbp)
    bede:	48 c7 85 f0 d0 ff ff 	movq   $0x0,-0x2f10(%rbp)
    bee5:	00 00 00 00 
    bee9:	48 c7 85 f8 d0 ff ff 	movq   $0x0,-0x2f08(%rbp)
    bef0:	00 00 00 00 
    bef4:	48 8d 85 c0 cd ff ff 	lea    -0x3240(%rbp),%rax
    befb:	48 89 85 00 d1 ff ff 	mov    %rax,-0x2f00(%rbp)
    bf02:	48 c7 85 08 d1 ff ff 	movq   $0x0,-0x2ef8(%rbp)
    bf09:	00 00 00 00 
    bf0d:	48 8d 85 c0 cd ff ff 	lea    -0x3240(%rbp),%rax
    bf14:	48 83 c0 08          	add    $0x8,%rax
    bf18:	48 89 85 10 d1 ff ff 	mov    %rax,-0x2ef0(%rbp)
    bf1f:	48 8d 85 c0 cd ff ff 	lea    -0x3240(%rbp),%rax
    bf26:	48 83 c0 08          	add    $0x8,%rax
    bf2a:	48 89 85 18 d1 ff ff 	mov    %rax,-0x2ee8(%rbp)
    bf31:	48 c7 85 20 d1 ff ff 	movq   $0x0,-0x2ee0(%rbp)
    bf38:	00 00 00 00 
    bf3c:	48 c7 85 28 d1 ff ff 	movq   $0x0,-0x2ed8(%rbp)
    bf43:	00 00 00 00 
    bf47:	48 c7 85 30 d1 ff ff 	movq   $0x0,-0x2ed0(%rbp)
    bf4e:	00 00 00 00 
    bf52:	48 c7 85 38 d1 ff ff 	movq   $0x0,-0x2ec8(%rbp)
    bf59:	00 00 00 00 
    bf5d:	48 8d 85 c0 cd ff ff 	lea    -0x3240(%rbp),%rax
    bf64:	48 89 85 40 d1 ff ff 	mov    %rax,-0x2ec0(%rbp)
    bf6b:	48 8d 85 c0 cd ff ff 	lea    -0x3240(%rbp),%rax
    bf72:	48 89 85 48 d1 ff ff 	mov    %rax,-0x2eb8(%rbp)
    bf79:	48 c7 85 50 d1 ff ff 	movq   $0x0,-0x2eb0(%rbp)
    bf80:	00 00 00 00 
    bf84:	48 8d 85 c0 cd ff ff 	lea    -0x3240(%rbp),%rax
    bf8b:	48 89 85 58 d1 ff ff 	mov    %rax,-0x2ea8(%rbp)
    bf92:	48 c7 85 60 d1 ff ff 	movq   $0x0,-0x2ea0(%rbp)
    bf99:	00 00 00 00 
    bf9d:	48 c7 85 68 d1 ff ff 	movq   $0x0,-0x2e98(%rbp)
    bfa4:	00 00 00 00 
    bfa8:	48 c7 85 70 d1 ff ff 	movq   $0x0,-0x2e90(%rbp)
    bfaf:	00 00 00 00 
    bfb3:	48 c7 85 78 d1 ff ff 	movq   $0x0,-0x2e88(%rbp)
    bfba:	00 00 00 00 
    bfbe:	48 8d 85 c0 cd ff ff 	lea    -0x3240(%rbp),%rax
    bfc5:	48 89 85 80 d1 ff ff 	mov    %rax,-0x2e80(%rbp)
    bfcc:	48 c7 85 88 d1 ff ff 	movq   $0x0,-0x2e78(%rbp)
    bfd3:	00 00 00 00 
    bfd7:	48 8d 85 c0 cd ff ff 	lea    -0x3240(%rbp),%rax
    bfde:	48 89 85 90 d1 ff ff 	mov    %rax,-0x2e70(%rbp)
    bfe5:	48 c7 85 98 d1 ff ff 	movq   $0x0,-0x2e68(%rbp)
    bfec:	00 00 00 00 
    bff0:	48 c7 85 a0 d1 ff ff 	movq   $0x0,-0x2e60(%rbp)
    bff7:	00 00 00 00 
    bffb:	48 c7 85 a8 d1 ff ff 	movq   $0x0,-0x2e58(%rbp)
    c002:	00 00 00 00 
    c006:	48 8d 85 c0 cd ff ff 	lea    -0x3240(%rbp),%rax
    c00d:	48 89 85 b0 d1 ff ff 	mov    %rax,-0x2e50(%rbp)
    c014:	48 8d 85 c0 cd ff ff 	lea    -0x3240(%rbp),%rax
    c01b:	48 89 85 b8 d1 ff ff 	mov    %rax,-0x2e48(%rbp)
    c022:	48 8d 85 c0 cd ff ff 	lea    -0x3240(%rbp),%rax
    c029:	48 89 85 c0 d1 ff ff 	mov    %rax,-0x2e40(%rbp)
    c030:	48 8d 85 c0 cd ff ff 	lea    -0x3240(%rbp),%rax
    c037:	48 89 85 c8 d1 ff ff 	mov    %rax,-0x2e38(%rbp)
    c03e:	48 8d 85 c0 cd ff ff 	lea    -0x3240(%rbp),%rax
    c045:	48 83 c0 08          	add    $0x8,%rax
    c049:	48 89 85 d0 d1 ff ff 	mov    %rax,-0x2e30(%rbp)
    c050:	48 8d 85 c0 cd ff ff 	lea    -0x3240(%rbp),%rax
    c057:	48 89 85 d8 d1 ff ff 	mov    %rax,-0x2e28(%rbp)
    c05e:	c7 85 c8 c9 ff ff cb 	movl   $0x5e14f2cb,-0x3638(%rbp)
    c065:	f2 14 5e 
    c068:	48 8d 85 f0 ef ff ff 	lea    -0x1010(%rbp),%rax
    c06f:	48 8d 15 2a 40 01 00 	lea    0x1402a(%rip),%rdx        # 200a0 <g_2181+0xe0>
    c076:	b9 fc 00 00 00       	mov    $0xfc,%ecx
    c07b:	48 89 c7             	mov    %rax,%rdi
    c07e:	48 89 d6             	mov    %rdx,%rsi
    c081:	f3 48 a5             	rep movsq %ds:(%rsi),%es:(%rdi)
    c084:	c6 85 65 c9 ff ff f7 	movb   $0xf7,-0x369b(%rbp)
    c08b:	c7 85 cc c9 ff ff 00 	movl   $0x0,-0x3634(%rbp)
    c092:	00 00 00 
    c095:	c6 85 66 c9 ff ff 33 	movb   $0x33,-0x369a(%rbp)
    c09c:	48 8d 85 60 ce ff ff 	lea    -0x31a0(%rbp),%rax
    c0a3:	48 83 c0 08          	add    $0x8,%rax
    c0a7:	48 89 85 c0 ca ff ff 	mov    %rax,-0x3540(%rbp)
    c0ae:	48 8d 85 c0 ca ff ff 	lea    -0x3540(%rbp),%rax
    c0b5:	48 89 85 c8 ca ff ff 	mov    %rax,-0x3538(%rbp)
    c0bc:	48 8d 85 c8 ca ff ff 	lea    -0x3538(%rbp),%rax
    c0c3:	48 89 85 40 cb ff ff 	mov    %rax,-0x34c0(%rbp)
    c0ca:	48 8d 85 88 ca ff ff 	lea    -0x3578(%rbp),%rax
    c0d1:	48 89 85 48 cb ff ff 	mov    %rax,-0x34b8(%rbp)
    c0d8:	c6 85 67 c9 ff ff 02 	movb   $0x2,-0x3699(%rbp)
    c0df:	48 c7 85 50 cb ff ff 	movq   $0xfffffffffffffffe,-0x34b0(%rbp)
    c0e6:	fe ff ff ff 
    c0ea:	48 8d 05 e7 81 01 00 	lea    0x181e7(%rip),%rax        # 242d8 <g_290>
    c0f1:	48 89 85 58 cb ff ff 	mov    %rax,-0x34a8(%rbp)
    c0f8:	48 8d 85 e0 d1 ff ff 	lea    -0x2e20(%rbp),%rax
    c0ff:	48 8d 15 fa e3 00 00 	lea    0xe3fa(%rip),%rdx        # 1a500 <g_2156+0x20>
    c106:	b9 6c 00 00 00       	mov    $0x6c,%ecx
    c10b:	48 89 c7             	mov    %rax,%rdi
    c10e:	48 89 d6             	mov    %rdx,%rsi
    c111:	f3 48 a5             	rep movsq %ds:(%rsi),%es:(%rdi)
    c114:	48 8d 05 dd 81 01 00 	lea    0x181dd(%rip),%rax        # 242f8 <g_926>
    c11b:	48 89 85 60 cb ff ff 	mov    %rax,-0x34a0(%rbp)
    c122:	c6 85 68 c9 ff ff 07 	movb   $0x7,-0x3698(%rbp)
    c129:	48 c7 85 d0 ca ff ff 	movq   $0x0,-0x3530(%rbp)
    c130:	00 00 00 00 
    c134:	c7 85 c0 c9 ff ff 00 	movl   $0x0,-0x3640(%rbp)
    c13b:	00 00 00 
    c13e:	eb 6b                	jmp    c1ab <func_22+0x5df>
    c140:	c7 85 c4 c9 ff ff 00 	movl   $0x0,-0x363c(%rbp)
    c147:	00 00 00 
    c14a:	eb 4f                	jmp    c19b <func_22+0x5cf>
    c14c:	c7 85 bc c9 ff ff 00 	movl   $0x0,-0x3644(%rbp)
    c153:	00 00 00 
    c156:	eb 33                	jmp    c18b <func_22+0x5bf>
    c158:	8b 85 bc c9 ff ff    	mov    -0x3644(%rbp),%eax
    c15e:	48 63 c8             	movslq %eax,%rcx
    c161:	8b 85 c4 c9 ff ff    	mov    -0x363c(%rbp),%eax
    c167:	48 63 d0             	movslq %eax,%rdx
    c16a:	8b 85 c0 c9 ff ff    	mov    -0x3640(%rbp),%eax
    c170:	48 98                	cltq   
    c172:	48 01 ca             	add    %rcx,%rdx
    c175:	48 01 d0             	add    %rdx,%rax
    c178:	48 c7 84 c5 a8 cd ff 	movq   $0x0,-0x3258(%rbp,%rax,8)
    c17f:	ff 00 00 00 00 
    c184:	83 85 bc c9 ff ff 01 	addl   $0x1,-0x3644(%rbp)
    c18b:	83 bd bc c9 ff ff 00 	cmpl   $0x0,-0x3644(%rbp)
    c192:	7e c4                	jle    c158 <func_22+0x58c>
    c194:	83 85 c4 c9 ff ff 01 	addl   $0x1,-0x363c(%rbp)
    c19b:	83 bd c4 c9 ff ff 00 	cmpl   $0x0,-0x363c(%rbp)
    c1a2:	7e a8                	jle    c14c <func_22+0x580>
    c1a4:	83 85 c0 c9 ff ff 01 	addl   $0x1,-0x3640(%rbp)
    c1ab:	83 bd c0 c9 ff ff 00 	cmpl   $0x0,-0x3640(%rbp)
    c1b2:	7e 8c                	jle    c140 <func_22+0x574>
    c1b4:	c7 85 c0 c9 ff ff 00 	movl   $0x0,-0x3640(%rbp)
    c1bb:	00 00 00 
    c1be:	eb 1e                	jmp    c1de <func_22+0x612>
    c1c0:	8b 85 c0 c9 ff ff    	mov    -0x3640(%rbp),%eax
    c1c6:	48 98                	cltq   
    c1c8:	48 8d 95 b8 ca ff ff 	lea    -0x3548(%rbp),%rdx
    c1cf:	48 89 94 c5 c0 cd ff 	mov    %rdx,-0x3240(%rbp,%rax,8)
    c1d6:	ff 
    c1d7:	83 85 c0 c9 ff ff 01 	addl   $0x1,-0x3640(%rbp)
    c1de:	83 bd c0 c9 ff ff 01 	cmpl   $0x1,-0x3640(%rbp)
    c1e5:	7e d9                	jle    c1c0 <func_22+0x5f4>
    c1e7:	c7 85 c0 c9 ff ff 00 	movl   $0x0,-0x3640(%rbp)
    c1ee:	00 00 00 
    c1f1:	eb 1e                	jmp    c211 <func_22+0x645>
    c1f3:	8b 85 c0 c9 ff ff    	mov    -0x3640(%rbp),%eax
    c1f9:	48 98                	cltq   
    c1fb:	48 8d 95 78 c9 ff ff 	lea    -0x3688(%rbp),%rdx
    c202:	48 89 94 c5 60 ce ff 	mov    %rdx,-0x31a0(%rbp,%rax,8)
    c209:	ff 
    c20a:	83 85 c0 c9 ff ff 01 	addl   $0x1,-0x3640(%rbp)
    c211:	83 bd c0 c9 ff ff 04 	cmpl   $0x4,-0x3640(%rbp)
    c218:	7e d9                	jle    c1f3 <func_22+0x627>
    c21a:	c7 85 c0 c9 ff ff 00 	movl   $0x0,-0x3640(%rbp)
    c221:	00 00 00 
    c224:	eb 1e                	jmp    c244 <func_22+0x678>
    c226:	8b 85 c0 c9 ff ff    	mov    -0x3640(%rbp),%eax
    c22c:	48 98                	cltq   
    c22e:	48 8d 15 a3 80 01 00 	lea    0x180a3(%rip),%rdx        # 242d8 <g_290>
    c235:	48 89 94 c5 d0 cd ff 	mov    %rdx,-0x3230(%rbp,%rax,8)
    c23c:	ff 
    c23d:	83 85 c0 c9 ff ff 01 	addl   $0x1,-0x3640(%rbp)
    c244:	83 bd c0 c9 ff ff 02 	cmpl   $0x2,-0x3640(%rbp)
    c24b:	7e d9                	jle    c226 <func_22+0x65a>
    c24d:	c7 05 a9 34 01 00 00 	movl   $0x0,0x134a9(%rip)        # 1f700 <g_264>
    c254:	00 00 00 
    c257:	e9 ce 6a 00 00       	jmpq   12d2a <func_22+0x715e>
    c25c:	c6 85 69 c9 ff ff ff 	movb   $0xff,-0x3697(%rbp)
    c263:	c7 85 7c c9 ff ff 2e 	movl   $0xe0af1b2e,-0x3684(%rbp)
    c26a:	1b af e0 
    c26d:	c7 85 80 c9 ff ff 09 	movl   $0x9,-0x3680(%rbp)
    c274:	00 00 00 
    c277:	c7 85 84 c9 ff ff fe 	movl   $0x991145fe,-0x367c(%rbp)
    c27e:	45 11 99 
    c281:	48 8d 85 70 e8 ff ff 	lea    -0x1790(%rbp),%rax
    c288:	48 8d 15 f1 45 01 00 	lea    0x145f1(%rip),%rdx        # 20880 <g_2181+0x8c0>
    c28f:	b9 f0 00 00 00       	mov    $0xf0,%ecx
    c294:	48 89 c7             	mov    %rax,%rdi
    c297:	48 89 d6             	mov    %rdx,%rsi
    c29a:	f3 48 a5             	rep movsq %ds:(%rsi),%es:(%rdi)
    c29d:	48 c7 85 d8 ca ff ff 	movq   $0x0,-0x3528(%rbp)
    c2a4:	00 00 00 00 
    c2a8:	48 c7 85 68 cb ff ff 	movq   $0x0,-0x3498(%rbp)
    c2af:	00 00 00 00 
    c2b3:	48 8d 05 56 80 01 00 	lea    0x18056(%rip),%rax        # 24310 <g_1165>
    c2ba:	48 89 85 70 cb ff ff 	mov    %rax,-0x3490(%rbp)
    c2c1:	48 8d 05 ac 34 01 00 	lea    0x134ac(%rip),%rax        # 1f774 <g_545+0x4>
    c2c8:	48 89 85 e0 ca ff ff 	mov    %rax,-0x3520(%rbp)
    c2cf:	48 8d 85 e0 ca ff ff 	lea    -0x3520(%rbp),%rax
    c2d6:	48 89 85 e8 ca ff ff 	mov    %rax,-0x3518(%rbp)
    c2dd:	48 8d 05 84 3b 01 00 	lea    0x13b84(%rip),%rax        # 1fe68 <g_1451>
    c2e4:	48 89 85 78 cb ff ff 	mov    %rax,-0x3488(%rbp)
    c2eb:	48 c7 85 80 cb ff ff 	movq   $0x0,-0x3480(%rbp)
    c2f2:	00 00 00 00 
    c2f6:	c7 85 d0 c9 ff ff 00 	movl   $0x0,-0x3630(%rbp)
    c2fd:	00 00 00 
    c300:	c7 85 b8 c9 ff ff fb 	movl   $0xfffffffb,-0x3648(%rbp)
    c307:	ff ff ff 
    c30a:	48 8d 05 0f 80 01 00 	lea    0x1800f(%rip),%rax        # 24320 <g_1370>
    c311:	48 89 85 88 cb ff ff 	mov    %rax,-0x3478(%rbp)
    c318:	48 8d 05 c1 61 01 00 	lea    0x161c1(%rip),%rax        # 224e0 <g_802>
    c31f:	48 89 85 90 cb ff ff 	mov    %rax,-0x3470(%rbp)
    c326:	c7 85 b4 c9 ff ff 03 	movl   $0x7540be03,-0x364c(%rbp)
    c32d:	be 40 75 
    c330:	48 c7 85 98 cb ff ff 	movq   $0x0,-0x3468(%rbp)
    c337:	00 00 00 00 
    c33b:	48 8d 85 84 c9 ff ff 	lea    -0x367c(%rbp),%rax
    c342:	48 89 85 a0 cb ff ff 	mov    %rax,-0x3460(%rbp)
    c349:	c7 85 90 c9 ff ff 00 	movl   $0x0,-0x3670(%rbp)
    c350:	00 00 00 
    c353:	eb 1a                	jmp    c36f <func_22+0x7a3>
    c355:	8b 85 90 c9 ff ff    	mov    -0x3670(%rbp),%eax
    c35b:	48 98                	cltq   
    c35d:	c7 84 85 b8 cd ff ff 	movl   $0xffffffff,-0x3248(%rbp,%rax,4)
    c364:	ff ff ff ff 
    c368:	83 85 90 c9 ff ff 01 	addl   $0x1,-0x3670(%rbp)
    c36f:	83 bd 90 c9 ff ff 01 	cmpl   $0x1,-0x3670(%rbp)
    c376:	7e dd                	jle    c355 <func_22+0x789>
    c378:	80 bd 69 c9 ff ff 00 	cmpb   $0x0,-0x3697(%rbp)
    c37f:	0f 85 b6 69 00 00    	jne    12d3b <func_22+0x716f>
    c385:	c7 05 75 33 01 00 00 	movl   $0x0,0x13375(%rip)        # 1f704 <g_264+0x4>
    c38c:	00 00 00 
    c38f:	e9 08 28 00 00       	jmpq   eb9c <func_22+0x2fd0>
    c394:	48 8d 05 15 37 01 00 	lea    0x13715(%rip),%rax        # 1fab0 <g_893+0x190>
    c39b:	48 89 85 a8 cb ff ff 	mov    %rax,-0x3458(%rbp)
    c3a2:	c7 85 88 c9 ff ff 01 	movl   $0x1,-0x3678(%rbp)
    c3a9:	00 00 00 
    c3ac:	c7 85 8c c9 ff ff 00 	movl   $0x0,-0x3674(%rbp)
    c3b3:	00 00 00 
    c3b6:	c7 85 f0 ca ff ff f4 	movl   $0xfcbd43f4,-0x3510(%rbp)
    c3bd:	43 bd fc 
    c3c0:	c7 85 d4 c9 ff ff 4a 	movl   $0xb6f9914a,-0x362c(%rbp)
    c3c7:	91 f9 b6 
    c3ca:	c7 85 f8 ca ff ff 08 	movl   $0x8,-0x3508(%rbp)
    c3d1:	00 00 00 
    c3d4:	c7 85 00 cb ff ff 72 	movl   $0xec784a72,-0x3500(%rbp)
    c3db:	4a 78 ec 
    c3de:	c7 85 d8 c9 ff ff fa 	movl   $0xfffffffa,-0x3628(%rbp)
    c3e5:	ff ff ff 
    c3e8:	c7 85 dc c9 ff ff 8d 	movl   $0x2479aa8d,-0x3624(%rbp)
    c3ef:	aa 79 24 
    c3f2:	c7 85 08 cb ff ff 0c 	movl   $0x84fa430c,-0x34f8(%rbp)
    c3f9:	43 fa 84 
    c3fc:	48 8d 05 4d 3a 01 00 	lea    0x13a4d(%rip),%rax        # 1fe50 <g_1152>
    c403:	48 89 85 b0 cb ff ff 	mov    %rax,-0x3450(%rbp)
    c40a:	48 8d 05 1f 37 01 00 	lea    0x1371f(%rip),%rax        # 1fb30 <g_893+0x210>
    c411:	48 89 85 b8 cb ff ff 	mov    %rax,-0x3448(%rbp)
    c418:	48 c7 85 50 cf ff ff 	movq   $0xffffffffffffffff,-0x30b0(%rbp)
    c41f:	ff ff ff ff 
    c423:	48 c7 85 58 cf ff ff 	movq   $0xffffffffffffffff,-0x30a8(%rbp)
    c42a:	ff ff ff ff 
    c42e:	48 c7 85 60 cf ff ff 	movq   $0xffffffffffffffff,-0x30a0(%rbp)
    c435:	ff ff ff ff 
    c439:	48 c7 85 68 cf ff ff 	movq   $0x7,-0x3098(%rbp)
    c440:	07 00 00 00 
    c444:	48 c7 85 70 cf ff ff 	movq   $0x7,-0x3090(%rbp)
    c44b:	07 00 00 00 
    c44f:	48 c7 85 78 cf ff ff 	movq   $0x7,-0x3088(%rbp)
    c456:	07 00 00 00 
    c45a:	48 c7 85 80 cf ff ff 	movq   $0xffffffffffffffff,-0x3080(%rbp)
    c461:	ff ff ff ff 
    c465:	48 c7 85 88 cf ff ff 	movq   $0xffffffffffffffff,-0x3078(%rbp)
    c46c:	ff ff ff ff 
    c470:	48 c7 85 90 cf ff ff 	movq   $0xffffffffffffffff,-0x3070(%rbp)
    c477:	ff ff ff ff 
    c47b:	48 c7 85 98 cf ff ff 	movq   $0x7,-0x3068(%rbp)
    c482:	07 00 00 00 
    c486:	48 c7 85 a0 cf ff ff 	movq   $0x7,-0x3060(%rbp)
    c48d:	07 00 00 00 
    c491:	48 c7 85 a8 cf ff ff 	movq   $0x7,-0x3058(%rbp)
    c498:	07 00 00 00 
    c49c:	48 c7 85 b0 cf ff ff 	movq   $0xffffffffffffffff,-0x3050(%rbp)
    c4a3:	ff ff ff ff 
    c4a7:	48 c7 85 b8 cf ff ff 	movq   $0xffffffffffffffff,-0x3048(%rbp)
    c4ae:	ff ff ff ff 
    c4b2:	48 c7 85 c0 cf ff ff 	movq   $0xffffffffffffffff,-0x3040(%rbp)
    c4b9:	ff ff ff ff 
    c4bd:	48 c7 85 e0 da ff ff 	movq   $0x0,-0x2520(%rbp)
    c4c4:	00 00 00 00 
    c4c8:	48 c7 85 e8 da ff ff 	movq   $0x0,-0x2518(%rbp)
    c4cf:	00 00 00 00 
    c4d3:	48 8d 05 f6 60 01 00 	lea    0x160f6(%rip),%rax        # 225d0 <g_925>
    c4da:	48 89 85 f0 da ff ff 	mov    %rax,-0x2510(%rbp)
    c4e1:	48 8d 05 e8 60 01 00 	lea    0x160e8(%rip),%rax        # 225d0 <g_925>
    c4e8:	48 89 85 f8 da ff ff 	mov    %rax,-0x2508(%rbp)
    c4ef:	48 8d 05 da 60 01 00 	lea    0x160da(%rip),%rax        # 225d0 <g_925>
    c4f6:	48 89 85 00 db ff ff 	mov    %rax,-0x2500(%rbp)
    c4fd:	48 c7 85 08 db ff ff 	movq   $0x0,-0x24f8(%rbp)
    c504:	00 00 00 00 
    c508:	48 c7 85 10 db ff ff 	movq   $0x0,-0x24f0(%rbp)
    c50f:	00 00 00 00 
    c513:	48 8d 05 b6 60 01 00 	lea    0x160b6(%rip),%rax        # 225d0 <g_925>
    c51a:	48 89 85 18 db ff ff 	mov    %rax,-0x24e8(%rbp)
    c521:	48 8d 05 a8 60 01 00 	lea    0x160a8(%rip),%rax        # 225d0 <g_925>
    c528:	48 89 85 20 db ff ff 	mov    %rax,-0x24e0(%rbp)
    c52f:	48 8d 05 9a 60 01 00 	lea    0x1609a(%rip),%rax        # 225d0 <g_925>
    c536:	48 89 85 28 db ff ff 	mov    %rax,-0x24d8(%rbp)
    c53d:	48 8d 05 8c 60 01 00 	lea    0x1608c(%rip),%rax        # 225d0 <g_925>
    c544:	48 89 85 30 db ff ff 	mov    %rax,-0x24d0(%rbp)
    c54b:	48 8d 05 7e 60 01 00 	lea    0x1607e(%rip),%rax        # 225d0 <g_925>
    c552:	48 89 85 38 db ff ff 	mov    %rax,-0x24c8(%rbp)
    c559:	48 8d 05 70 60 01 00 	lea    0x16070(%rip),%rax        # 225d0 <g_925>
    c560:	48 89 85 40 db ff ff 	mov    %rax,-0x24c0(%rbp)
    c567:	48 8d 05 62 60 01 00 	lea    0x16062(%rip),%rax        # 225d0 <g_925>
    c56e:	48 89 85 48 db ff ff 	mov    %rax,-0x24b8(%rbp)
    c575:	48 c7 85 50 db ff ff 	movq   $0x0,-0x24b0(%rbp)
    c57c:	00 00 00 00 
    c580:	48 8d 05 49 60 01 00 	lea    0x16049(%rip),%rax        # 225d0 <g_925>
    c587:	48 89 85 58 db ff ff 	mov    %rax,-0x24a8(%rbp)
    c58e:	48 8d 05 3b 60 01 00 	lea    0x1603b(%rip),%rax        # 225d0 <g_925>
    c595:	48 89 85 60 db ff ff 	mov    %rax,-0x24a0(%rbp)
    c59c:	48 8d 05 2d 60 01 00 	lea    0x1602d(%rip),%rax        # 225d0 <g_925>
    c5a3:	48 89 85 68 db ff ff 	mov    %rax,-0x2498(%rbp)
    c5aa:	48 8d 05 1f 60 01 00 	lea    0x1601f(%rip),%rax        # 225d0 <g_925>
    c5b1:	48 89 85 70 db ff ff 	mov    %rax,-0x2490(%rbp)
    c5b8:	48 c7 85 78 db ff ff 	movq   $0x0,-0x2488(%rbp)
    c5bf:	00 00 00 00 
    c5c3:	48 8d 05 06 60 01 00 	lea    0x16006(%rip),%rax        # 225d0 <g_925>
    c5ca:	48 89 85 80 db ff ff 	mov    %rax,-0x2480(%rbp)
    c5d1:	48 8d 05 f8 5f 01 00 	lea    0x15ff8(%rip),%rax        # 225d0 <g_925>
    c5d8:	48 89 85 88 db ff ff 	mov    %rax,-0x2478(%rbp)
    c5df:	48 8d 05 ea 5f 01 00 	lea    0x15fea(%rip),%rax        # 225d0 <g_925>
    c5e6:	48 89 85 90 db ff ff 	mov    %rax,-0x2470(%rbp)
    c5ed:	48 8d 05 dc 5f 01 00 	lea    0x15fdc(%rip),%rax        # 225d0 <g_925>
    c5f4:	48 89 85 98 db ff ff 	mov    %rax,-0x2468(%rbp)
    c5fb:	48 8d 05 ce 5f 01 00 	lea    0x15fce(%rip),%rax        # 225d0 <g_925>
    c602:	48 89 85 a0 db ff ff 	mov    %rax,-0x2460(%rbp)
    c609:	48 8d 05 c0 5f 01 00 	lea    0x15fc0(%rip),%rax        # 225d0 <g_925>
    c610:	48 89 85 a8 db ff ff 	mov    %rax,-0x2458(%rbp)
    c617:	48 8d 05 b2 5f 01 00 	lea    0x15fb2(%rip),%rax        # 225d0 <g_925>
    c61e:	48 89 85 b0 db ff ff 	mov    %rax,-0x2450(%rbp)
    c625:	48 8d 05 a4 5f 01 00 	lea    0x15fa4(%rip),%rax        # 225d0 <g_925>
    c62c:	48 89 85 b8 db ff ff 	mov    %rax,-0x2448(%rbp)
    c633:	48 8d 05 96 5f 01 00 	lea    0x15f96(%rip),%rax        # 225d0 <g_925>
    c63a:	48 89 85 c0 db ff ff 	mov    %rax,-0x2440(%rbp)
    c641:	48 c7 85 c8 db ff ff 	movq   $0x0,-0x2438(%rbp)
    c648:	00 00 00 00 
    c64c:	48 8d 05 95 5f 01 00 	lea    0x15f95(%rip),%rax        # 225e8 <g_948+0x8>
    c653:	48 89 85 c0 cb ff ff 	mov    %rax,-0x3440(%rbp)
    c65a:	c7 85 e0 c9 ff ff ff 	movl   $0xffffffff,-0x3620(%rbp)
    c661:	ff ff ff 
    c664:	c7 85 e4 c9 ff ff 7c 	movl   $0x6be0cf7c,-0x361c(%rbp)
    c66b:	cf e0 6b 
    c66e:	c7 85 94 c9 ff ff 00 	movl   $0x0,-0x366c(%rbp)
    c675:	00 00 00 
    c678:	eb 1e                	jmp    c698 <func_22+0xacc>
    c67a:	8b 85 94 c9 ff ff    	mov    -0x366c(%rbp),%eax
    c680:	48 98                	cltq   
    c682:	48 8d 95 80 ca ff ff 	lea    -0x3580(%rbp),%rdx
    c689:	48 89 94 c5 f0 cd ff 	mov    %rdx,-0x3210(%rbp,%rax,8)
    c690:	ff 
    c691:	83 85 94 c9 ff ff 01 	addl   $0x1,-0x366c(%rbp)
    c698:	83 bd 94 c9 ff ff 03 	cmpl   $0x3,-0x366c(%rbp)
    c69f:	7e d9                	jle    c67a <func_22+0xaae>
    c6a1:	48 8b 85 40 c9 ff ff 	mov    -0x36c0(%rbp),%rax
    c6a8:	89 c6                	mov    %eax,%esi
    c6aa:	bf 01 00 00 00       	mov    $0x1,%edi
    c6af:	e8 b8 dc ff ff       	callq  a36c <safe_rshift_func_int8_t_s_u>
    c6b4:	0f be c0             	movsbl %al,%eax
    c6b7:	89 85 7c c9 ff ff    	mov    %eax,-0x3684(%rbp)
    c6bd:	c7 05 a9 30 01 00 00 	movl   $0x0,0x130a9(%rip)        # 1f770 <g_545>
    c6c4:	00 00 00 
    c6c7:	90                   	nop
    c6c8:	8b 05 a2 30 01 00    	mov    0x130a2(%rip),%eax        # 1f770 <g_545>
    c6ce:	83 f8 01             	cmp    $0x1,%eax
    c6d1:	0f 87 2c 0b 00 00    	ja     d203 <func_22+0x1637>
    c6d7:	48 b8 25 b7 4d 55 d3 	movabs $0x77027cd3554db725,%rax
    c6de:	7c 02 77 
    c6e1:	48 89 85 30 cb ff ff 	mov    %rax,-0x34d0(%rbp)
    c6e8:	c7 85 0c ca ff ff 03 	movl   $0x3,-0x35f4(%rbp)
    c6ef:	00 00 00 
    c6f2:	c7 85 10 ca ff ff ff 	movl   $0xffffffff,-0x35f0(%rbp)
    c6f9:	ff ff ff 
    c6fc:	c7 85 14 ca ff ff 6d 	movl   $0x6f5f5d6d,-0x35ec(%rbp)
    c703:	5d 5f 6f 
    c706:	c7 85 18 ca ff ff 94 	movl   $0xb4f18194,-0x35e8(%rbp)
    c70d:	81 f1 b4 
    c710:	c7 85 1c ca ff ff ff 	movl   $0xffffffff,-0x35e4(%rbp)
    c717:	ff ff ff 
    c71a:	c7 85 20 ca ff ff ff 	movl   $0xffffffff,-0x35e0(%rbp)
    c721:	ff ff ff 
    c724:	c7 85 24 ca ff ff 01 	movl   $0x1,-0x35dc(%rbp)
    c72b:	00 00 00 
    c72e:	c7 85 98 c9 ff ff 00 	movl   $0x0,-0x3668(%rbp)
    c735:	00 00 00 
    c738:	eb 1a                	jmp    c754 <func_22+0xb88>
    c73a:	8b 85 98 c9 ff ff    	mov    -0x3668(%rbp),%eax
    c740:	48 98                	cltq   
    c742:	c7 84 85 10 ce ff ff 	movl   $0x2,-0x31f0(%rbp,%rax,4)
    c749:	02 00 00 00 
    c74d:	83 85 98 c9 ff ff 01 	addl   $0x1,-0x3668(%rbp)
    c754:	83 bd 98 c9 ff ff 07 	cmpl   $0x7,-0x3668(%rbp)
    c75b:	7e dd                	jle    c73a <func_22+0xb6e>
    c75d:	c7 05 69 29 01 00 00 	movl   $0x0,0x12969(%rip)        # 1f0d0 <g_28>
    c764:	00 00 00 
    c767:	e9 7a 0a 00 00       	jmpq   d1e6 <func_22+0x161a>
    c76c:	48 c7 85 90 ce ff ff 	movq   $0x0,-0x3170(%rbp)
    c773:	00 00 00 00 
    c777:	48 c7 85 98 ce ff ff 	movq   $0x0,-0x3168(%rbp)
    c77e:	00 00 00 00 
    c782:	48 c7 85 a0 ce ff ff 	movq   $0x0,-0x3160(%rbp)
    c789:	00 00 00 00 
    c78d:	48 c7 85 a8 ce ff ff 	movq   $0x0,-0x3158(%rbp)
    c794:	00 00 00 00 
    c798:	48 c7 85 b0 ce ff ff 	movq   $0x0,-0x3150(%rbp)
    c79f:	00 00 00 00 
    c7a3:	c7 85 c0 ce ff ff 4d 	movl   $0xc9628a4d,-0x3140(%rbp)
    c7aa:	8a 62 c9 
    c7ad:	c7 85 c4 ce ff ff 01 	movl   $0x1,-0x313c(%rbp)
    c7b4:	00 00 00 
    c7b7:	c7 85 c8 ce ff ff 4d 	movl   $0xc9628a4d,-0x3138(%rbp)
    c7be:	8a 62 c9 
    c7c1:	c7 85 cc ce ff ff 3d 	movl   $0xc3d56c3d,-0x3134(%rbp)
    c7c8:	6c d5 c3 
    c7cb:	c7 85 d0 ce ff ff 3d 	movl   $0xc3d56c3d,-0x3130(%rbp)
    c7d2:	6c d5 c3 
    c7d5:	c7 85 d4 ce ff ff 4d 	movl   $0xc9628a4d,-0x312c(%rbp)
    c7dc:	8a 62 c9 
    c7df:	c7 85 d8 ce ff ff 01 	movl   $0x1,-0x3128(%rbp)
    c7e6:	00 00 00 
    c7e9:	c7 85 dc ce ff ff 4d 	movl   $0xc9628a4d,-0x3124(%rbp)
    c7f0:	8a 62 c9 
    c7f3:	c7 85 e0 ce ff ff 3d 	movl   $0xc3d56c3d,-0x3120(%rbp)
    c7fa:	6c d5 c3 
    c7fd:	c7 85 e4 ce ff ff 3d 	movl   $0xc3d56c3d,-0x311c(%rbp)
    c804:	6c d5 c3 
    c807:	c7 85 e8 ce ff ff 4d 	movl   $0xc9628a4d,-0x3118(%rbp)
    c80e:	8a 62 c9 
    c811:	c7 85 ec ce ff ff 01 	movl   $0x1,-0x3114(%rbp)
    c818:	00 00 00 
    c81b:	c7 85 f0 ce ff ff 4d 	movl   $0xc9628a4d,-0x3110(%rbp)
    c822:	8a 62 c9 
    c825:	c7 85 f4 ce ff ff 3d 	movl   $0xc3d56c3d,-0x310c(%rbp)
    c82c:	6c d5 c3 
    c82f:	48 8d 05 82 5b 01 00 	lea    0x15b82(%rip),%rax        # 223b8 <g_115+0x18>
    c836:	48 89 85 58 cc ff ff 	mov    %rax,-0x33a8(%rbp)
    c83d:	48 8d 05 e4 2e 01 00 	lea    0x12ee4(%rip),%rax        # 1f728 <g_417>
    c844:	48 89 85 60 cc ff ff 	mov    %rax,-0x33a0(%rbp)
    c84b:	48 b8 1f 39 60 5f 81 	movabs $0xbc0e9c815f60391f,%rax
    c852:	9c 0e bc 
    c855:	48 89 85 38 cb ff ff 	mov    %rax,-0x34c8(%rbp)
    c85c:	48 8b 85 a8 cb ff ff 	mov    -0x3458(%rbp),%rax
    c863:	48 89 05 76 5c 01 00 	mov    %rax,0x15c76(%rip)        # 224e0 <g_802>
    c86a:	66 c7 05 fd 35 01 00 	movw   $0x0,0x135fd(%rip)        # 1fe70 <g_1495>
    c871:	00 00 
    c873:	e9 49 05 00 00       	jmpq   cdc1 <func_22+0x11f5>
    c878:	48 8d 85 7c c9 ff ff 	lea    -0x3684(%rbp),%rax
    c87f:	48 89 85 a0 cc ff ff 	mov    %rax,-0x3360(%rbp)
    c886:	48 8d 85 7c c9 ff ff 	lea    -0x3684(%rbp),%rax
    c88d:	48 89 85 a8 cc ff ff 	mov    %rax,-0x3358(%rbp)
    c894:	48 8d 05 31 28 01 00 	lea    0x12831(%rip),%rax        # 1f0cc <g_7>
    c89b:	48 89 85 b0 cc ff ff 	mov    %rax,-0x3350(%rbp)
    c8a2:	48 8d 85 7c c9 ff ff 	lea    -0x3684(%rbp),%rax
    c8a9:	48 89 85 b8 cc ff ff 	mov    %rax,-0x3348(%rbp)
    c8b0:	48 8d 05 89 2e 01 00 	lea    0x12e89(%rip),%rax        # 1f740 <g_523>
    c8b7:	48 89 85 c0 cc ff ff 	mov    %rax,-0x3340(%rbp)
    c8be:	48 8d 85 7c c9 ff ff 	lea    -0x3684(%rbp),%rax
    c8c5:	48 89 85 c8 cc ff ff 	mov    %rax,-0x3338(%rbp)
    c8cc:	48 8d 05 f5 79 01 00 	lea    0x179f5(%rip),%rax        # 242c8 <g_3>
    c8d3:	48 89 85 d0 f7 ff ff 	mov    %rax,-0x830(%rbp)
    c8da:	48 8d 05 5f 2e 01 00 	lea    0x12e5f(%rip),%rax        # 1f740 <g_523>
    c8e1:	48 89 85 d8 f7 ff ff 	mov    %rax,-0x828(%rbp)
    c8e8:	48 c7 85 e0 f7 ff ff 	movq   $0x0,-0x820(%rbp)
    c8ef:	00 00 00 00 
    c8f3:	48 8d 05 d2 27 01 00 	lea    0x127d2(%rip),%rax        # 1f0cc <g_7>
    c8fa:	48 89 85 e8 f7 ff ff 	mov    %rax,-0x818(%rbp)
    c901:	48 8d 05 c4 27 01 00 	lea    0x127c4(%rip),%rax        # 1f0cc <g_7>
    c908:	48 89 85 f0 f7 ff ff 	mov    %rax,-0x810(%rbp)
    c90f:	48 8d 05 2a 2e 01 00 	lea    0x12e2a(%rip),%rax        # 1f740 <g_523>
    c916:	48 89 85 f8 f7 ff ff 	mov    %rax,-0x808(%rbp)
    c91d:	48 8d 05 1c 2e 01 00 	lea    0x12e1c(%rip),%rax        # 1f740 <g_523>
    c924:	48 89 85 00 f8 ff ff 	mov    %rax,-0x800(%rbp)
    c92b:	48 8d 05 9a 27 01 00 	lea    0x1279a(%rip),%rax        # 1f0cc <g_7>
    c932:	48 89 85 08 f8 ff ff 	mov    %rax,-0x7f8(%rbp)
    c939:	48 8d 05 88 79 01 00 	lea    0x17988(%rip),%rax        # 242c8 <g_3>
    c940:	48 89 85 10 f8 ff ff 	mov    %rax,-0x7f0(%rbp)
    c947:	48 8d 05 f2 2d 01 00 	lea    0x12df2(%rip),%rax        # 1f740 <g_523>
    c94e:	48 89 85 18 f8 ff ff 	mov    %rax,-0x7e8(%rbp)
    c955:	48 c7 85 20 f8 ff ff 	movq   $0x0,-0x7e0(%rbp)
    c95c:	00 00 00 00 
    c960:	48 8d 05 65 27 01 00 	lea    0x12765(%rip),%rax        # 1f0cc <g_7>
    c967:	48 89 85 28 f8 ff ff 	mov    %rax,-0x7d8(%rbp)
    c96e:	48 8d 05 57 27 01 00 	lea    0x12757(%rip),%rax        # 1f0cc <g_7>
    c975:	48 89 85 30 f8 ff ff 	mov    %rax,-0x7d0(%rbp)
    c97c:	48 8d 05 bd 2d 01 00 	lea    0x12dbd(%rip),%rax        # 1f740 <g_523>
    c983:	48 89 85 38 f8 ff ff 	mov    %rax,-0x7c8(%rbp)
    c98a:	48 8d 05 af 2d 01 00 	lea    0x12daf(%rip),%rax        # 1f740 <g_523>
    c991:	48 89 85 40 f8 ff ff 	mov    %rax,-0x7c0(%rbp)
    c998:	48 8d 05 2d 27 01 00 	lea    0x1272d(%rip),%rax        # 1f0cc <g_7>
    c99f:	48 89 85 48 f8 ff ff 	mov    %rax,-0x7b8(%rbp)
    c9a6:	48 8d 05 1b 79 01 00 	lea    0x1791b(%rip),%rax        # 242c8 <g_3>
    c9ad:	48 89 85 50 f8 ff ff 	mov    %rax,-0x7b0(%rbp)
    c9b4:	48 8d 05 85 2d 01 00 	lea    0x12d85(%rip),%rax        # 1f740 <g_523>
    c9bb:	48 89 85 58 f8 ff ff 	mov    %rax,-0x7a8(%rbp)
    c9c2:	48 c7 85 60 f8 ff ff 	movq   $0x0,-0x7a0(%rbp)
    c9c9:	00 00 00 00 
    c9cd:	48 8d 05 f8 26 01 00 	lea    0x126f8(%rip),%rax        # 1f0cc <g_7>
    c9d4:	48 89 85 68 f8 ff ff 	mov    %rax,-0x798(%rbp)
    c9db:	48 8d 05 ea 26 01 00 	lea    0x126ea(%rip),%rax        # 1f0cc <g_7>
    c9e2:	48 89 85 70 f8 ff ff 	mov    %rax,-0x790(%rbp)
    c9e9:	48 8d 05 50 2d 01 00 	lea    0x12d50(%rip),%rax        # 1f740 <g_523>
    c9f0:	48 89 85 78 f8 ff ff 	mov    %rax,-0x788(%rbp)
    c9f7:	48 8d 05 42 2d 01 00 	lea    0x12d42(%rip),%rax        # 1f740 <g_523>
    c9fe:	48 89 85 80 f8 ff ff 	mov    %rax,-0x780(%rbp)
    ca05:	48 8d 05 c0 26 01 00 	lea    0x126c0(%rip),%rax        # 1f0cc <g_7>
    ca0c:	48 89 85 88 f8 ff ff 	mov    %rax,-0x778(%rbp)
    ca13:	48 8d 05 ae 78 01 00 	lea    0x178ae(%rip),%rax        # 242c8 <g_3>
    ca1a:	48 89 85 90 f8 ff ff 	mov    %rax,-0x770(%rbp)
    ca21:	48 8d 05 18 2d 01 00 	lea    0x12d18(%rip),%rax        # 1f740 <g_523>
    ca28:	48 89 85 98 f8 ff ff 	mov    %rax,-0x768(%rbp)
    ca2f:	48 c7 85 a0 f8 ff ff 	movq   $0x0,-0x760(%rbp)
    ca36:	00 00 00 00 
    ca3a:	48 8d 05 8b 26 01 00 	lea    0x1268b(%rip),%rax        # 1f0cc <g_7>
    ca41:	48 89 85 a8 f8 ff ff 	mov    %rax,-0x758(%rbp)
    ca48:	48 8d 05 7d 26 01 00 	lea    0x1267d(%rip),%rax        # 1f0cc <g_7>
    ca4f:	48 89 85 b0 f8 ff ff 	mov    %rax,-0x750(%rbp)
    ca56:	48 8d 05 e3 2c 01 00 	lea    0x12ce3(%rip),%rax        # 1f740 <g_523>
    ca5d:	48 89 85 b8 f8 ff ff 	mov    %rax,-0x748(%rbp)
    ca64:	48 8d 05 d5 2c 01 00 	lea    0x12cd5(%rip),%rax        # 1f740 <g_523>
    ca6b:	48 89 85 c0 f8 ff ff 	mov    %rax,-0x740(%rbp)
    ca72:	48 8d 05 53 26 01 00 	lea    0x12653(%rip),%rax        # 1f0cc <g_7>
    ca79:	48 89 85 c8 f8 ff ff 	mov    %rax,-0x738(%rbp)
    ca80:	c6 85 6c c9 ff ff 01 	movb   $0x1,-0x3694(%rbp)
    ca87:	48 8d 05 42 26 01 00 	lea    0x12642(%rip),%rax        # 1f0d0 <g_28>
    ca8e:	48 89 85 70 e1 ff ff 	mov    %rax,-0x1e90(%rbp)
    ca95:	48 8d 05 88 2c 01 00 	lea    0x12c88(%rip),%rax        # 1f724 <g_386>
    ca9c:	48 89 85 78 e1 ff ff 	mov    %rax,-0x1e88(%rbp)
    caa3:	48 8d 05 7a 2c 01 00 	lea    0x12c7a(%rip),%rax        # 1f724 <g_386>
    caaa:	48 89 85 80 e1 ff ff 	mov    %rax,-0x1e80(%rbp)
    cab1:	48 8d 05 18 26 01 00 	lea    0x12618(%rip),%rax        # 1f0d0 <g_28>
    cab8:	48 89 85 88 e1 ff ff 	mov    %rax,-0x1e78(%rbp)
    cabf:	48 8d 05 5e 2c 01 00 	lea    0x12c5e(%rip),%rax        # 1f724 <g_386>
    cac6:	48 89 85 90 e1 ff ff 	mov    %rax,-0x1e70(%rbp)
    cacd:	48 8d 05 50 2c 01 00 	lea    0x12c50(%rip),%rax        # 1f724 <g_386>
    cad4:	48 89 85 98 e1 ff ff 	mov    %rax,-0x1e68(%rbp)
    cadb:	48 8d 05 ee 25 01 00 	lea    0x125ee(%rip),%rax        # 1f0d0 <g_28>
    cae2:	48 89 85 a0 e1 ff ff 	mov    %rax,-0x1e60(%rbp)
    cae9:	48 8d 05 34 2c 01 00 	lea    0x12c34(%rip),%rax        # 1f724 <g_386>
    caf0:	48 89 85 a8 e1 ff ff 	mov    %rax,-0x1e58(%rbp)
    caf7:	48 8d 05 26 2c 01 00 	lea    0x12c26(%rip),%rax        # 1f724 <g_386>
    cafe:	48 89 85 b0 e1 ff ff 	mov    %rax,-0x1e50(%rbp)
    cb05:	48 8d 05 c4 25 01 00 	lea    0x125c4(%rip),%rax        # 1f0d0 <g_28>
    cb0c:	48 89 85 b8 e1 ff ff 	mov    %rax,-0x1e48(%rbp)
    cb13:	48 8d 05 0a 2c 01 00 	lea    0x12c0a(%rip),%rax        # 1f724 <g_386>
    cb1a:	48 89 85 c0 e1 ff ff 	mov    %rax,-0x1e40(%rbp)
    cb21:	48 8d 05 fc 2b 01 00 	lea    0x12bfc(%rip),%rax        # 1f724 <g_386>
    cb28:	48 89 85 c8 e1 ff ff 	mov    %rax,-0x1e38(%rbp)
    cb2f:	48 8d 05 9a 25 01 00 	lea    0x1259a(%rip),%rax        # 1f0d0 <g_28>
    cb36:	48 89 85 d0 e1 ff ff 	mov    %rax,-0x1e30(%rbp)
    cb3d:	48 8d 05 e0 2b 01 00 	lea    0x12be0(%rip),%rax        # 1f724 <g_386>
    cb44:	48 89 85 d8 e1 ff ff 	mov    %rax,-0x1e28(%rbp)
    cb4b:	48 8d 05 d2 2b 01 00 	lea    0x12bd2(%rip),%rax        # 1f724 <g_386>
    cb52:	48 89 85 e0 e1 ff ff 	mov    %rax,-0x1e20(%rbp)
    cb59:	48 8d 05 70 25 01 00 	lea    0x12570(%rip),%rax        # 1f0d0 <g_28>
    cb60:	48 89 85 e8 e1 ff ff 	mov    %rax,-0x1e18(%rbp)
    cb67:	48 8d 05 b6 2b 01 00 	lea    0x12bb6(%rip),%rax        # 1f724 <g_386>
    cb6e:	48 89 85 f0 e1 ff ff 	mov    %rax,-0x1e10(%rbp)
    cb75:	48 8d 05 a8 2b 01 00 	lea    0x12ba8(%rip),%rax        # 1f724 <g_386>
    cb7c:	48 89 85 f8 e1 ff ff 	mov    %rax,-0x1e08(%rbp)
    cb83:	48 8d 05 42 77 01 00 	lea    0x17742(%rip),%rax        # 242cc <g_49>
    cb8a:	48 89 85 40 d5 ff ff 	mov    %rax,-0x2ac0(%rbp)
    cb91:	48 c7 85 48 d5 ff ff 	movq   $0x0,-0x2ab8(%rbp)
    cb98:	00 00 00 00 
    cb9c:	48 c7 85 50 d5 ff ff 	movq   $0x0,-0x2ab0(%rbp)
    cba3:	00 00 00 00 
    cba7:	48 8d 05 1e 77 01 00 	lea    0x1771e(%rip),%rax        # 242cc <g_49>
    cbae:	48 89 85 58 d5 ff ff 	mov    %rax,-0x2aa8(%rbp)
    cbb5:	48 c7 85 60 d5 ff ff 	movq   $0x0,-0x2aa0(%rbp)
    cbbc:	00 00 00 00 
    cbc0:	48 c7 85 68 d5 ff ff 	movq   $0x0,-0x2a98(%rbp)
    cbc7:	00 00 00 00 
    cbcb:	48 8d 05 fa 76 01 00 	lea    0x176fa(%rip),%rax        # 242cc <g_49>
    cbd2:	48 89 85 70 d5 ff ff 	mov    %rax,-0x2a90(%rbp)
    cbd9:	48 c7 85 78 d5 ff ff 	movq   $0x0,-0x2a88(%rbp)
    cbe0:	00 00 00 00 
    cbe4:	48 c7 85 80 d5 ff ff 	movq   $0x0,-0x2a80(%rbp)
    cbeb:	00 00 00 00 
    cbef:	48 8d 05 d6 76 01 00 	lea    0x176d6(%rip),%rax        # 242cc <g_49>
    cbf6:	48 89 85 88 d5 ff ff 	mov    %rax,-0x2a78(%rbp)
    cbfd:	48 c7 85 90 d5 ff ff 	movq   $0x0,-0x2a70(%rbp)
    cc04:	00 00 00 00 
    cc08:	48 c7 85 98 d5 ff ff 	movq   $0x0,-0x2a68(%rbp)
    cc0f:	00 00 00 00 
    cc13:	48 8d 05 b2 76 01 00 	lea    0x176b2(%rip),%rax        # 242cc <g_49>
    cc1a:	48 89 85 a0 d5 ff ff 	mov    %rax,-0x2a60(%rbp)
    cc21:	48 c7 85 a8 d5 ff ff 	movq   $0x0,-0x2a58(%rbp)
    cc28:	00 00 00 00 
    cc2c:	48 8b 85 80 ca ff ff 	mov    -0x3580(%rbp),%rax
    cc33:	48 83 e8 01          	sub    $0x1,%rax
    cc37:	48 89 85 80 ca ff ff 	mov    %rax,-0x3580(%rbp)
    cc3e:	0f b6 05 eb 2e 01 00 	movzbl 0x12eeb(%rip),%eax        # 1fb30 <g_893+0x210>
    cc45:	48 0f be d8          	movsbq %al,%rbx
    cc49:	48 8b 85 38 c9 ff ff 	mov    -0x36c8(%rbp),%rax
    cc50:	0f b6 00             	movzbl (%rax),%eax
    cc53:	44 0f be e0          	movsbl %al,%r12d
    cc57:	44 8b ad 54 c9 ff ff 	mov    -0x36ac(%rbp),%r13d
    cc5e:	48 8b 85 48 c9 ff ff 	mov    -0x36b8(%rbp),%rax
    cc65:	44 0f b7 f0          	movzwl %ax,%r14d
    cc69:	48 8b 85 80 ca ff ff 	mov    -0x3580(%rbp),%rax
    cc70:	44 0f bf f8          	movswl %ax,%r15d
    cc74:	48 8b 85 80 ca ff ff 	mov    -0x3580(%rbp),%rax
    cc7b:	0f be c0             	movsbl %al,%eax
    cc7e:	c7 85 f4 ce ff ff ff 	movl   $0xffffffff,-0x310c(%rbp)
    cc85:	ff ff ff 
    cc88:	89 c6                	mov    %eax,%esi
    cc8a:	bf 00 00 00 00       	mov    $0x0,%edi
    cc8f:	e8 5e d5 ff ff       	callq  a1f2 <safe_sub_func_int8_t_s_s>
    cc94:	48 8b 95 a0 cc ff ff 	mov    -0x3360(%rbp),%rdx
    cc9b:	8b 12                	mov    (%rdx),%edx
    cc9d:	0f be c0             	movsbl %al,%eax
    cca0:	21 c2                	and    %eax,%edx
    cca2:	48 8b 85 a0 cc ff ff 	mov    -0x3360(%rbp),%rax
    cca9:	89 10                	mov    %edx,(%rax)
    ccab:	0f b6 05 7e 2e 01 00 	movzbl 0x12e7e(%rip),%eax        # 1fb30 <g_893+0x210>
    ccb2:	0f be c0             	movsbl %al,%eax
    ccb5:	44 89 fe             	mov    %r15d,%esi
    ccb8:	89 c7                	mov    %eax,%edi
    ccba:	e8 57 d7 ff ff       	callq  a416 <safe_mod_func_int16_t_s_s>
    ccbf:	48 8b 95 58 c9 ff ff 	mov    -0x36a8(%rbp),%rdx
    ccc6:	8b 12                	mov    (%rdx),%edx
    ccc8:	21 d0                	and    %edx,%eax
    ccca:	0f b7 c0             	movzwl %ax,%eax
    cccd:	44 89 f6             	mov    %r14d,%esi
    ccd0:	89 c7                	mov    %eax,%edi
    ccd2:	e8 48 e0 ff ff       	callq  ad1f <safe_sub_func_uint16_t_u_u>
    ccd7:	0f b7 c0             	movzwl %ax,%eax
    ccda:	89 05 44 2a 01 00    	mov    %eax,0x12a44(%rip)        # 1f724 <g_386>
    cce0:	8b 85 54 c9 ff ff    	mov    -0x36ac(%rbp),%eax
    cce6:	0f bf d0             	movswl %ax,%edx
    cce9:	8b 85 54 c9 ff ff    	mov    -0x36ac(%rbp),%eax
    ccef:	48 98                	cltq   
    ccf1:	48 21 85 30 cb ff ff 	and    %rax,-0x34d0(%rbp)
    ccf8:	0f b7 05 c1 c7 00 00 	movzwl 0xc7c1(%rip),%eax        # 194c0 <g_1019+0x60>
    ccff:	48 0f bf c0          	movswq %ax,%rax
    cd03:	48 39 85 30 cb ff ff 	cmp    %rax,-0x34d0(%rbp)
    cd0a:	0f 93 c0             	setae  %al
    cd0d:	0f b6 c0             	movzbl %al,%eax
    cd10:	89 d6                	mov    %edx,%esi
    cd12:	89 c7                	mov    %eax,%edi
    cd14:	e8 ba d6 ff ff       	callq  a3d3 <safe_sub_func_int16_t_s_s>
    cd19:	48 8b 85 38 c9 ff ff 	mov    -0x36c8(%rbp),%rax
    cd20:	0f b6 00             	movzbl (%rax),%eax
    cd23:	0f be c0             	movsbl %al,%eax
    cd26:	44 89 ee             	mov    %r13d,%esi
    cd29:	89 c7                	mov    %eax,%edi
    cd2b:	e8 be d5 ff ff       	callq  a2ee <safe_lshift_func_int8_t_s_u>
    cd30:	0f b6 c0             	movzbl %al,%eax
    cd33:	be fc 00 00 00       	mov    $0xfc,%esi
    cd38:	89 c7                	mov    %eax,%edi
    cd3a:	e8 39 de ff ff       	callq  ab78 <safe_sub_func_uint8_t_u_u>
    cd3f:	0f be d0             	movsbl %al,%edx
    cd42:	48 8b 85 58 c9 ff ff 	mov    -0x36a8(%rbp),%rax
    cd49:	8b 00                	mov    (%rax),%eax
    cd4b:	85 c0                	test   %eax,%eax
    cd4d:	74 10                	je     cd5f <func_22+0x1193>
    cd4f:	80 bd 6c c9 ff ff 00 	cmpb   $0x0,-0x3694(%rbp)
    cd56:	74 07                	je     cd5f <func_22+0x1193>
    cd58:	b8 01 00 00 00       	mov    $0x1,%eax
    cd5d:	eb 05                	jmp    cd64 <func_22+0x1198>
    cd5f:	b8 00 00 00 00       	mov    $0x0,%eax
    cd64:	0f be c0             	movsbl %al,%eax
    cd67:	89 d6                	mov    %edx,%esi
    cd69:	89 c7                	mov    %eax,%edi
    cd6b:	e8 82 d4 ff ff       	callq  a1f2 <safe_sub_func_int8_t_s_s>
    cd70:	83 f0 fe             	xor    $0xfffffffe,%eax
    cd73:	0f be c0             	movsbl %al,%eax
    cd76:	44 89 e6             	mov    %r12d,%esi
    cd79:	89 c7                	mov    %eax,%edi
    cd7b:	e8 54 d4 ff ff       	callq  a1d4 <safe_add_func_int8_t_s_s>
    cd80:	0f be d0             	movsbl %al,%edx
    cd83:	8b 85 88 c9 ff ff    	mov    -0x3678(%rbp),%eax
    cd89:	39 c2                	cmp    %eax,%edx
    cd8b:	0f 9d c0             	setge  %al
    cd8e:	0f b6 c0             	movzbl %al,%eax
    cd91:	48 89 de             	mov    %rbx,%rsi
    cd94:	48 89 c7             	mov    %rax,%rdi
    cd97:	e8 18 dc ff ff       	callq  a9b4 <safe_mod_func_int64_t_s_s>
    cd9c:	48 89 c2             	mov    %rax,%rdx
    cd9f:	48 8b 85 88 ca ff ff 	mov    -0x3578(%rbp),%rax
    cda6:	48 21 d0             	and    %rdx,%rax
    cda9:	48 89 85 88 ca ff ff 	mov    %rax,-0x3578(%rbp)
    cdb0:	0f b7 05 b9 30 01 00 	movzwl 0x130b9(%rip),%eax        # 1fe70 <g_1495>
    cdb7:	83 c0 01             	add    $0x1,%eax
    cdba:	66 89 05 af 30 01 00 	mov    %ax,0x130af(%rip)        # 1fe70 <g_1495>
    cdc1:	0f b7 05 a8 30 01 00 	movzwl 0x130a8(%rip),%eax        # 1fe70 <g_1495>
    cdc8:	66 83 f8 03          	cmp    $0x3,%ax
    cdcc:	0f 8e a6 fa ff ff    	jle    c878 <func_22+0xcac>
    cdd2:	48 8b 85 58 cc ff ff 	mov    -0x33a8(%rbp),%rax
    cdd9:	48 8b 95 20 cb ff ff 	mov    -0x34e0(%rbp),%rdx
    cde0:	48 89 10             	mov    %rdx,(%rax)
    cde3:	48 8b 05 ce 67 01 00 	mov    0x167ce(%rip),%rax        # 235b8 <g_1550>
    cdea:	48 8b 95 58 cc ff ff 	mov    -0x33a8(%rbp),%rdx
    cdf1:	48 8b 12             	mov    (%rdx),%rdx
    cdf4:	48 89 10             	mov    %rdx,(%rax)
    cdf7:	c7 05 2f 29 01 00 00 	movl   $0x0,0x1292f(%rip)        # 1f730 <g_482>
    cdfe:	00 00 00 
    ce01:	e9 bf 03 00 00       	jmpq   d1c5 <func_22+0x15f9>
    ce06:	48 c7 85 68 cc ff ff 	movq   $0x0,-0x3398(%rbp)
    ce0d:	00 00 00 00 
    ce11:	48 8d 85 d0 f7 ff ff 	lea    -0x830(%rbp),%rax
    ce18:	48 8d 15 e1 41 01 00 	lea    0x141e1(%rip),%rdx        # 21000 <g_2181+0x1040>
    ce1f:	b9 f0 00 00 00       	mov    $0xf0,%ecx
    ce24:	48 89 c7             	mov    %rax,%rdi
    ce27:	48 89 d6             	mov    %rdx,%rsi
    ce2a:	f3 48 a5             	rep movsq %ds:(%rsi),%es:(%rdi)
    ce2d:	48 8d 85 d0 f7 ff ff 	lea    -0x830(%rbp),%rax
    ce34:	48 05 50 02 00 00    	add    $0x250,%rax
    ce3a:	48 89 85 70 e1 ff ff 	mov    %rax,-0x1e90(%rbp)
    ce41:	48 8d 85 d0 f7 ff ff 	lea    -0x830(%rbp),%rax
    ce48:	48 05 28 07 00 00    	add    $0x728,%rax
    ce4e:	48 89 85 78 e1 ff ff 	mov    %rax,-0x1e88(%rbp)
    ce55:	48 8d 85 d0 f7 ff ff 	lea    -0x830(%rbp),%rax
    ce5c:	48 05 28 07 00 00    	add    $0x728,%rax
    ce62:	48 89 85 80 e1 ff ff 	mov    %rax,-0x1e80(%rbp)
    ce69:	48 8d 85 d0 f7 ff ff 	lea    -0x830(%rbp),%rax
    ce70:	48 05 50 02 00 00    	add    $0x250,%rax
    ce76:	48 89 85 88 e1 ff ff 	mov    %rax,-0x1e78(%rbp)
    ce7d:	48 c7 85 90 e1 ff ff 	movq   $0x0,-0x1e70(%rbp)
    ce84:	00 00 00 00 
    ce88:	48 8d 85 d0 f7 ff ff 	lea    -0x830(%rbp),%rax
    ce8f:	48 05 50 02 00 00    	add    $0x250,%rax
    ce95:	48 89 85 98 e1 ff ff 	mov    %rax,-0x1e68(%rbp)
    ce9c:	48 8d 85 d0 f7 ff ff 	lea    -0x830(%rbp),%rax
    cea3:	48 05 28 07 00 00    	add    $0x728,%rax
    cea9:	48 89 85 a0 e1 ff ff 	mov    %rax,-0x1e60(%rbp)
    ceb0:	48 8d 85 d0 f7 ff ff 	lea    -0x830(%rbp),%rax
    ceb7:	48 05 28 07 00 00    	add    $0x728,%rax
    cebd:	48 89 85 a8 e1 ff ff 	mov    %rax,-0x1e58(%rbp)
    cec4:	48 8d 85 d0 f7 ff ff 	lea    -0x830(%rbp),%rax
    cecb:	48 05 50 02 00 00    	add    $0x250,%rax
    ced1:	48 89 85 b0 e1 ff ff 	mov    %rax,-0x1e50(%rbp)
    ced8:	48 c7 85 b8 e1 ff ff 	movq   $0x0,-0x1e48(%rbp)
    cedf:	00 00 00 00 
    cee3:	48 8d 85 d0 f7 ff ff 	lea    -0x830(%rbp),%rax
    ceea:	48 05 50 02 00 00    	add    $0x250,%rax
    cef0:	48 89 85 c0 e1 ff ff 	mov    %rax,-0x1e40(%rbp)
    cef7:	48 8d 85 d0 f7 ff ff 	lea    -0x830(%rbp),%rax
    cefe:	48 05 28 07 00 00    	add    $0x728,%rax
    cf04:	48 89 85 c8 e1 ff ff 	mov    %rax,-0x1e38(%rbp)
    cf0b:	48 8d 85 d0 f7 ff ff 	lea    -0x830(%rbp),%rax
    cf12:	48 05 28 07 00 00    	add    $0x728,%rax
    cf18:	48 89 85 d0 e1 ff ff 	mov    %rax,-0x1e30(%rbp)
    cf1f:	48 8d 85 d0 f7 ff ff 	lea    -0x830(%rbp),%rax
    cf26:	48 05 50 02 00 00    	add    $0x250,%rax
    cf2c:	48 89 85 d8 e1 ff ff 	mov    %rax,-0x1e28(%rbp)
    cf33:	48 c7 85 e0 e1 ff ff 	movq   $0x0,-0x1e20(%rbp)
    cf3a:	00 00 00 00 
    cf3e:	48 8d 85 d0 f7 ff ff 	lea    -0x830(%rbp),%rax
    cf45:	48 05 50 02 00 00    	add    $0x250,%rax
    cf4b:	48 89 85 e8 e1 ff ff 	mov    %rax,-0x1e18(%rbp)
    cf52:	48 8d 85 d0 f7 ff ff 	lea    -0x830(%rbp),%rax
    cf59:	48 05 28 07 00 00    	add    $0x728,%rax
    cf5f:	48 89 85 f0 e1 ff ff 	mov    %rax,-0x1e10(%rbp)
    cf66:	48 8d 85 d0 f7 ff ff 	lea    -0x830(%rbp),%rax
    cf6d:	48 05 28 07 00 00    	add    $0x728,%rax
    cf73:	48 89 85 f8 e1 ff ff 	mov    %rax,-0x1e08(%rbp)
    cf7a:	48 8d 85 d0 f7 ff ff 	lea    -0x830(%rbp),%rax
    cf81:	48 05 50 02 00 00    	add    $0x250,%rax
    cf87:	48 89 85 00 e2 ff ff 	mov    %rax,-0x1e00(%rbp)
    cf8e:	48 c7 85 08 e2 ff ff 	movq   $0x0,-0x1df8(%rbp)
    cf95:	00 00 00 00 
    cf99:	48 8d 85 c0 ce ff ff 	lea    -0x3140(%rbp),%rax
    cfa0:	48 83 c0 34          	add    $0x34,%rax
    cfa4:	48 89 85 70 cc ff ff 	mov    %rax,-0x3390(%rbp)
    cfab:	48 8d 05 1a 21 01 00 	lea    0x1211a(%rip),%rax        # 1f0cc <g_7>
    cfb2:	48 89 85 78 cc ff ff 	mov    %rax,-0x3388(%rbp)
    cfb9:	48 8d 05 80 27 01 00 	lea    0x12780(%rip),%rax        # 1f740 <g_523>
    cfc0:	48 89 85 80 cc ff ff 	mov    %rax,-0x3380(%rbp)
    cfc7:	48 c7 85 88 cc ff ff 	movq   $0x0,-0x3378(%rbp)
    cfce:	00 00 00 00 
    cfd2:	48 c7 85 90 cc ff ff 	movq   $0x0,-0x3370(%rbp)
    cfd9:	00 00 00 00 
    cfdd:	48 c7 85 98 cc ff ff 	movq   $0x0,-0x3368(%rbp)
    cfe4:	00 00 00 00 
    cfe8:	48 8d 05 dd 20 01 00 	lea    0x120dd(%rip),%rax        # 1f0cc <g_7>
    cfef:	48 89 85 40 d5 ff ff 	mov    %rax,-0x2ac0(%rbp)
    cff6:	48 8d 05 cf 20 01 00 	lea    0x120cf(%rip),%rax        # 1f0cc <g_7>
    cffd:	48 89 85 48 d5 ff ff 	mov    %rax,-0x2ab8(%rbp)
    d004:	48 8d 05 c1 20 01 00 	lea    0x120c1(%rip),%rax        # 1f0cc <g_7>
    d00b:	48 89 85 50 d5 ff ff 	mov    %rax,-0x2ab0(%rbp)
    d012:	48 8d 05 b3 20 01 00 	lea    0x120b3(%rip),%rax        # 1f0cc <g_7>
    d019:	48 89 85 58 d5 ff ff 	mov    %rax,-0x2aa8(%rbp)
    d020:	48 8b 85 00 ce ff ff 	mov    -0x3200(%rbp),%rax
    d027:	48 89 85 00 ce ff ff 	mov    %rax,-0x3200(%rbp)
    d02e:	48 8b 85 00 ce ff ff 	mov    -0x3200(%rbp),%rax
    d035:	48 85 c0             	test   %rax,%rax
    d038:	0f 95 c0             	setne  %al
    d03b:	0f b6 c0             	movzbl %al,%eax
    d03e:	c6 05 43 27 01 00 62 	movb   $0x62,0x12743(%rip)        # 1f788 <g_595>
    d045:	89 c6                	mov    %eax,%esi
    d047:	bf 62 00 00 00       	mov    $0x62,%edi
    d04c:	e8 c1 d1 ff ff       	callq  a212 <safe_mul_func_int8_t_s_s>
    d051:	66 98                	cbtw   
    d053:	0f b7 d0             	movzwl %ax,%edx
    d056:	48 8b 85 40 c9 ff ff 	mov    -0x36c0(%rbp),%rax
    d05d:	89 c1                	mov    %eax,%ecx
    d05f:	48 8b 85 30 cb ff ff 	mov    -0x34d0(%rbp),%rax
    d066:	21 c1                	and    %eax,%ecx
    d068:	48 83 bd 60 cc ff ff 	cmpq   $0x0,-0x33a0(%rbp)
    d06f:	00 
    d070:	0f 95 c0             	setne  %al
    d073:	0f b6 c0             	movzbl %al,%eax
    d076:	31 c8                	xor    %ecx,%eax
    d078:	0f b7 c0             	movzwl %ax,%eax
    d07b:	89 d6                	mov    %edx,%esi
    d07d:	89 c7                	mov    %eax,%edi
    d07f:	e8 b9 dc ff ff       	callq  ad3d <safe_mul_func_uint16_t_u_u>
    d084:	66 85 c0             	test   %ax,%ax
    d087:	74 13                	je     d09c <func_22+0x14d0>
    d089:	48 8b 85 40 c9 ff ff 	mov    -0x36c0(%rbp),%rax
    d090:	48 85 c0             	test   %rax,%rax
    d093:	74 07                	je     d09c <func_22+0x14d0>
    d095:	b8 01 00 00 00       	mov    $0x1,%eax
    d09a:	eb 05                	jmp    d0a1 <func_22+0x14d5>
    d09c:	b8 00 00 00 00       	mov    $0x0,%eax
    d0a1:	3d 90 63 00 00       	cmp    $0x6390,%eax
    d0a6:	0f 94 c0             	sete   %al
    d0a9:	0f b6 d0             	movzbl %al,%edx
    d0ac:	48 8b 85 20 cb ff ff 	mov    -0x34e0(%rbp),%rax
    d0b3:	89 10                	mov    %edx,(%rax)
    d0b5:	83 bd 0c ca ff ff 00 	cmpl   $0x0,-0x35f4(%rbp)
    d0bc:	0f 85 14 01 00 00    	jne    d1d6 <func_22+0x160a>
    d0c2:	48 8b 05 af 2d 01 00 	mov    0x12daf(%rip),%rax        # 1fe78 <g_1576>
    d0c9:	0f b7 05 fc 71 01 00 	movzwl 0x171fc(%rip),%eax        # 242cc <g_49>
    d0d0:	8d 50 ff             	lea    -0x1(%rax),%edx
    d0d3:	66 89 15 f2 71 01 00 	mov    %dx,0x171f2(%rip)        # 242cc <g_49>
    d0da:	89 c2                	mov    %eax,%edx
    d0dc:	48 8d 05 dd 53 01 00 	lea    0x153dd(%rip),%rax        # 224c0 <g_416>
    d0e3:	48 8b 00             	mov    (%rax),%rax
    d0e6:	48 8b 00             	mov    (%rax),%rax
    d0e9:	48 83 f8 04          	cmp    $0x4,%rax
    d0ed:	0f 96 c0             	setbe  %al
    d0f0:	0f b6 c0             	movzbl %al,%eax
    d0f3:	21 d0                	and    %edx,%eax
    d0f5:	0f b7 c0             	movzwl %ax,%eax
    d0f8:	be 2b 3f 00 00       	mov    $0x3f2b,%esi
    d0fd:	89 c7                	mov    %eax,%edi
    d0ff:	e8 8a dc ff ff       	callq  ad8e <safe_div_func_uint16_t_u_u>
    d104:	0f b7 d0             	movzwl %ax,%edx
    d107:	8b 85 7c c9 ff ff    	mov    -0x3684(%rbp),%eax
    d10d:	89 d6                	mov    %edx,%esi
    d10f:	89 c7                	mov    %eax,%edi
    d111:	e8 e9 d5 ff ff       	callq  a6ff <safe_div_func_int32_t_s_s>
    d116:	48 63 d8             	movslq %eax,%rbx
    d119:	8b 85 54 c9 ff ff    	mov    -0x36ac(%rbp),%eax
    d11f:	89 c6                	mov    %eax,%esi
    d121:	bf 71 b3 00 00       	mov    $0xb371,%edi
    d126:	e8 db dc ff ff       	callq  ae06 <safe_lshift_func_uint16_t_u_u>
    d12b:	0f b7 c0             	movzwl %ax,%eax
    d12e:	48 89 de             	mov    %rbx,%rsi
    d131:	48 89 c7             	mov    %rax,%rdi
    d134:	e8 7b d8 ff ff       	callq  a9b4 <safe_mod_func_int64_t_s_s>
    d139:	48 8b 95 58 c9 ff ff 	mov    -0x36a8(%rbp),%rdx
    d140:	8b 12                	mov    (%rdx),%edx
    d142:	48 63 d2             	movslq %edx,%rdx
    d145:	48 21 d0             	and    %rdx,%rax
    d148:	48 89 c2             	mov    %rax,%rdx
    d14b:	48 8b 85 40 c9 ff ff 	mov    -0x36c0(%rbp),%rax
    d152:	48 39 c2             	cmp    %rax,%rdx
    d155:	77 07                	ja     d15e <func_22+0x1592>
    d157:	b8 01 00 00 00       	mov    $0x1,%eax
    d15c:	eb 05                	jmp    d163 <func_22+0x1597>
    d15e:	b8 00 00 00 00       	mov    $0x0,%eax
    d163:	0f be d0             	movsbl %al,%edx
    d166:	48 8b 85 38 c9 ff ff 	mov    -0x36c8(%rbp),%rax
    d16d:	0f b6 00             	movzbl (%rax),%eax
    d170:	0f be c0             	movsbl %al,%eax
    d173:	89 d6                	mov    %edx,%esi
    d175:	89 c7                	mov    %eax,%edi
    d177:	e8 ee d0 ff ff       	callq  a26a <safe_div_func_int8_t_s_s>
    d17c:	48 0f be c0          	movsbq %al,%rax
    d180:	48 c7 05 d5 71 01 00 	movq   $0x0,0x171d5(%rip)        # 24360 <g_1565+0x20>
    d187:	00 00 00 00 
    d18b:	48 89 c6             	mov    %rax,%rsi
    d18e:	bf 01 00 00 00       	mov    $0x1,%edi
    d193:	e8 b3 de ff ff       	callq  b04b <safe_sub_func_uint64_t_u_u>
    d198:	48 8b 95 20 cb ff ff 	mov    -0x34e0(%rbp),%rdx
    d19f:	8b 12                	mov    (%rdx),%edx
    d1a1:	09 d0                	or     %edx,%eax
    d1a3:	89 c2                	mov    %eax,%edx
    d1a5:	48 8b 85 20 cb ff ff 	mov    -0x34e0(%rbp),%rax
    d1ac:	89 10                	mov    %edx,(%rax)
    d1ae:	48 83 85 38 cb ff ff 	addq   $0x1,-0x34c8(%rbp)
    d1b5:	01 
    d1b6:	8b 05 74 25 01 00    	mov    0x12574(%rip),%eax        # 1f730 <g_482>
    d1bc:	83 c0 01             	add    $0x1,%eax
    d1bf:	89 05 6b 25 01 00    	mov    %eax,0x1256b(%rip)        # 1f730 <g_482>
    d1c5:	8b 05 65 25 01 00    	mov    0x12565(%rip),%eax        # 1f730 <g_482>
    d1cb:	83 f8 03             	cmp    $0x3,%eax
    d1ce:	0f 8e 32 fc ff ff    	jle    ce06 <func_22+0x123a>
    d1d4:	eb 01                	jmp    d1d7 <func_22+0x160b>
    d1d6:	90                   	nop
    d1d7:	8b 05 f3 1e 01 00    	mov    0x11ef3(%rip),%eax        # 1f0d0 <g_28>
    d1dd:	83 c0 01             	add    $0x1,%eax
    d1e0:	89 05 ea 1e 01 00    	mov    %eax,0x11eea(%rip)        # 1f0d0 <g_28>
    d1e6:	8b 05 e4 1e 01 00    	mov    0x11ee4(%rip),%eax        # 1f0d0 <g_28>
    d1ec:	83 f8 01             	cmp    $0x1,%eax
    d1ef:	0f 86 77 f5 ff ff    	jbe    c76c <func_22+0xba0>
    d1f5:	48 8b 85 58 c9 ff ff 	mov    -0x36a8(%rbp),%rax
    d1fc:	8b 00                	mov    (%rax),%eax
    d1fe:	e9 65 64 00 00       	jmpq   13668 <func_22+0x7a9c>
    d203:	0f b7 05 90 c0 00 00 	movzwl 0xc090(%rip),%eax        # 1929a <g_1010>
    d20a:	0f bf d8             	movswl %ax,%ebx
    d20d:	48 8b 85 48 c9 ff ff 	mov    -0x36b8(%rbp),%rax
    d214:	48 83 f0 fe          	xor    $0xfffffffffffffffe,%rax
    d218:	48 83 f8 05          	cmp    $0x5,%rax
    d21c:	0f 9f c0             	setg   %al
    d21f:	44 0f b6 e8          	movzbl %al,%r13d
    d223:	48 8b 05 ce 58 01 00 	mov    0x158ce(%rip),%rax        # 22af8 <g_1338>
    d22a:	48 8b 00             	mov    (%rax),%rax
    d22d:	0f b6 10             	movzbl (%rax),%edx
    d230:	8d 4a ff             	lea    -0x1(%rdx),%ecx
    d233:	88 08                	mov    %cl,(%rax)
    d235:	80 fa 02             	cmp    $0x2,%dl
    d238:	0f 96 c0             	setbe  %al
    d23b:	44 0f b6 f0          	movzbl %al,%r14d
    d23f:	8b 85 7c c9 ff ff    	mov    -0x3684(%rbp),%eax
    d245:	44 0f b7 e0          	movzwl %ax,%r12d
    d249:	8b 85 7c c9 ff ff    	mov    -0x3684(%rbp),%eax
    d24f:	0f b6 d0             	movzbl %al,%edx
    d252:	8b 85 f8 ca ff ff    	mov    -0x3508(%rbp),%eax
    d258:	89 c1                	mov    %eax,%ecx
    d25a:	48 8b 85 b0 cb ff ff 	mov    -0x3450(%rbp),%rax
    d261:	66 89 08             	mov    %cx,(%rax)
    d264:	48 8b 85 b0 cb ff ff 	mov    -0x3450(%rbp),%rax
    d26b:	0f b7 00             	movzwl (%rax),%eax
    d26e:	66 85 c0             	test   %ax,%ax
    d271:	74 08                	je     d27b <func_22+0x16af>
    d273:	8b 05 eb 2b 01 00    	mov    0x12beb(%rip),%eax        # 1fe64 <g_1443>
    d279:	85 c0                	test   %eax,%eax
    d27b:	48 8b 85 58 c9 ff ff 	mov    -0x36a8(%rbp),%rax
    d282:	8b 00                	mov    (%rax),%eax
    d284:	89 c1                	mov    %eax,%ecx
    d286:	0f b7 05 c5 2b 01 00 	movzwl 0x12bc5(%rip),%eax        # 1fe52 <g_1228>
    d28d:	09 c8                	or     %ecx,%eax
    d28f:	0f b6 c0             	movzbl %al,%eax
    d292:	89 d6                	mov    %edx,%esi
    d294:	89 c7                	mov    %eax,%edi
    d296:	e8 13 d9 ff ff       	callq  abae <safe_mod_func_uint8_t_u_u>
    d29b:	89 c2                	mov    %eax,%edx
    d29d:	48 8b 85 b8 cb ff ff 	mov    -0x3448(%rbp),%rax
    d2a4:	88 10                	mov    %dl,(%rax)
    d2a6:	48 8b 85 b8 cb ff ff 	mov    -0x3448(%rbp),%rax
    d2ad:	0f b6 10             	movzbl (%rax),%edx
    d2b0:	0f b6 05 a1 2b 01 00 	movzbl 0x12ba1(%rip),%eax        # 1fe58 <g_1306>
    d2b7:	09 d0                	or     %edx,%eax
    d2b9:	88 05 99 2b 01 00    	mov    %al,0x12b99(%rip)        # 1fe58 <g_1306>
    d2bf:	8b 85 08 cb ff ff    	mov    -0x34f8(%rbp),%eax
    d2c5:	0f b7 c0             	movzwl %ax,%eax
    d2c8:	83 e0 01             	and    $0x1,%eax
    d2cb:	44 89 e6             	mov    %r12d,%esi
    d2ce:	89 c7                	mov    %eax,%edi
    d2d0:	e8 4a da ff ff       	callq  ad1f <safe_sub_func_uint16_t_u_u>
    d2d5:	0f b7 c0             	movzwl %ax,%eax
    d2d8:	89 c6                	mov    %eax,%esi
    d2da:	bf 00 00 00 00       	mov    $0x0,%edi
    d2df:	e8 51 d0 ff ff       	callq  a335 <safe_rshift_func_int8_t_s_s>
    d2e4:	0f be c0             	movsbl %al,%eax
    d2e7:	89 c6                	mov    %eax,%esi
    d2e9:	bf 01 00 00 00       	mov    $0x1,%edi
    d2ee:	e8 42 d0 ff ff       	callq  a335 <safe_rshift_func_int8_t_s_s>
    d2f3:	0f be c0             	movsbl %al,%eax
    d2f6:	41 39 c6             	cmp    %eax,%r14d
    d2f9:	0f 9f c0             	setg   %al
    d2fc:	0f b6 c0             	movzbl %al,%eax
    d2ff:	41 39 c5             	cmp    %eax,%r13d
    d302:	0f 9d c0             	setge  %al
    d305:	0f b6 d0             	movzbl %al,%edx
    d308:	48 8b 85 58 c9 ff ff 	mov    -0x36a8(%rbp),%rax
    d30f:	8b 00                	mov    (%rax),%eax
    d311:	39 c2                	cmp    %eax,%edx
    d313:	0f 94 c0             	sete   %al
    d316:	0f b6 d0             	movzbl %al,%edx
    d319:	48 8b 85 20 cb ff ff 	mov    -0x34e0(%rbp),%rax
    d320:	8b 00                	mov    (%rax),%eax
    d322:	21 d0                	and    %edx,%eax
    d324:	f7 d0                	not    %eax
    d326:	c1 e8 1f             	shr    $0x1f,%eax
    d329:	0f b6 c0             	movzbl %al,%eax
    d32c:	89 85 88 c9 ff ff    	mov    %eax,-0x3678(%rbp)
    d332:	8b 85 88 c9 ff ff    	mov    -0x3678(%rbp),%eax
    d338:	98                   	cwtl   
    d339:	89 de                	mov    %ebx,%esi
    d33b:	89 c7                	mov    %eax,%edi
    d33d:	e8 e8 d1 ff ff       	callq  a52a <safe_rshift_func_int16_t_s_s>
    d342:	0f bf d0             	movswl %ax,%edx
    d345:	48 8b 85 20 cb ff ff 	mov    -0x34e0(%rbp),%rax
    d34c:	89 10                	mov    %edx,(%rax)
    d34e:	48 8b 85 20 cb ff ff 	mov    -0x34e0(%rbp),%rax
    d355:	8b 10                	mov    (%rax),%edx
    d357:	8b 85 f0 ca ff ff    	mov    -0x3510(%rbp),%eax
    d35d:	09 d0                	or     %edx,%eax
    d35f:	89 85 f0 ca ff ff    	mov    %eax,-0x3510(%rbp)
    d365:	8b 85 f0 ca ff ff    	mov    -0x3510(%rbp),%eax
    d36b:	85 c0                	test   %eax,%eax
    d36d:	74 16                	je     d385 <func_22+0x17b9>
    d36f:	48 8b 05 4a 62 01 00 	mov    0x1624a(%rip),%rax        # 235c0 <g_1622>
    d376:	48 8d 95 74 c9 ff ff 	lea    -0x368c(%rbp),%rdx
    d37d:	48 89 10             	mov    %rdx,(%rax)
    d380:	e9 5d 17 00 00       	jmpq   eae2 <func_22+0x2f16>
    d385:	48 8d 85 70 e1 ff ff 	lea    -0x1e90(%rbp),%rax
    d38c:	48 8d 15 ed 43 01 00 	lea    0x143ed(%rip),%rdx        # 21780 <g_2181+0x17c0>
    d393:	b9 28 00 00 00       	mov    $0x28,%ecx
    d398:	48 89 c7             	mov    %rax,%rdi
    d39b:	48 89 d6             	mov    %rdx,%rsi
    d39e:	f3 48 a5             	rep movsq %ds:(%rsi),%es:(%rdi)
    d3a1:	48 8d 85 d8 ca ff ff 	lea    -0x3528(%rbp),%rax
    d3a8:	48 89 85 c8 cb ff ff 	mov    %rax,-0x3438(%rbp)
    d3af:	48 8d 05 72 23 01 00 	lea    0x12372(%rip),%rax        # 1f728 <g_417>
    d3b6:	48 89 85 d0 cb ff ff 	mov    %rax,-0x3430(%rbp)
    d3bd:	c7 85 10 cb ff ff 01 	movl   $0x1,-0x34f0(%rbp)
    d3c4:	00 00 00 
    d3c7:	48 8d 05 02 52 01 00 	lea    0x15202(%rip),%rax        # 225d0 <g_925>
    d3ce:	48 89 85 c0 ce ff ff 	mov    %rax,-0x3140(%rbp)
    d3d5:	48 8d 05 f4 51 01 00 	lea    0x151f4(%rip),%rax        # 225d0 <g_925>
    d3dc:	48 89 85 c8 ce ff ff 	mov    %rax,-0x3138(%rbp)
    d3e3:	48 8d 05 e6 51 01 00 	lea    0x151e6(%rip),%rax        # 225d0 <g_925>
    d3ea:	48 89 85 d0 ce ff ff 	mov    %rax,-0x3130(%rbp)
    d3f1:	48 8d 05 d8 51 01 00 	lea    0x151d8(%rip),%rax        # 225d0 <g_925>
    d3f8:	48 89 85 d8 ce ff ff 	mov    %rax,-0x3128(%rbp)
    d3ff:	48 8d 05 ca 51 01 00 	lea    0x151ca(%rip),%rax        # 225d0 <g_925>
    d406:	48 89 85 e0 ce ff ff 	mov    %rax,-0x3120(%rbp)
    d40d:	c7 85 40 d5 ff ff 01 	movl   $0x1,-0x2ac0(%rbp)
    d414:	00 00 00 
    d417:	c7 85 44 d5 ff ff ff 	movl   $0xffffffff,-0x2abc(%rbp)
    d41e:	ff ff ff 
    d421:	c7 85 48 d5 ff ff 1d 	movl   $0x7dc40d1d,-0x2ab8(%rbp)
    d428:	0d c4 7d 
    d42b:	c7 85 4c d5 ff ff 84 	movl   $0x3433a484,-0x2ab4(%rbp)
    d432:	a4 33 34 
    d435:	c7 85 50 d5 ff ff 5d 	movl   $0xa06fb5d,-0x2ab0(%rbp)
    d43c:	fb 06 0a 
    d43f:	c7 85 54 d5 ff ff 5d 	movl   $0xa06fb5d,-0x2aac(%rbp)
    d446:	fb 06 0a 
    d449:	c7 85 58 d5 ff ff 84 	movl   $0x3433a484,-0x2aa8(%rbp)
    d450:	a4 33 34 
    d453:	c7 85 5c d5 ff ff 1d 	movl   $0x7dc40d1d,-0x2aa4(%rbp)
    d45a:	0d c4 7d 
    d45d:	c7 85 60 d5 ff ff 01 	movl   $0x1,-0x2aa0(%rbp)
    d464:	00 00 00 
    d467:	c7 85 64 d5 ff ff 01 	movl   $0x1,-0x2a9c(%rbp)
    d46e:	00 00 00 
    d471:	c7 85 68 d5 ff ff 00 	movl   $0x0,-0x2a98(%rbp)
    d478:	00 00 00 
    d47b:	c7 85 6c d5 ff ff 98 	movl   $0x45fdc298,-0x2a94(%rbp)
    d482:	c2 fd 45 
    d485:	c7 85 70 d5 ff ff 84 	movl   $0x3433a484,-0x2a90(%rbp)
    d48c:	a4 33 34 
    d48f:	c7 85 74 d5 ff ff 39 	movl   $0xe11e139,-0x2a8c(%rbp)
    d496:	e1 11 0e 
    d499:	c7 85 78 d5 ff ff 01 	movl   $0x1,-0x2a88(%rbp)
    d4a0:	00 00 00 
    d4a3:	c7 85 7c d5 ff ff 84 	movl   $0x3433a484,-0x2a84(%rbp)
    d4aa:	a4 33 34 
    d4ad:	c7 85 80 d5 ff ff 00 	movl   $0x0,-0x2a80(%rbp)
    d4b4:	00 00 00 
    d4b7:	c7 85 84 d5 ff ff 84 	movl   $0x3433a484,-0x2a7c(%rbp)
    d4be:	a4 33 34 
    d4c1:	c7 85 88 d5 ff ff ff 	movl   $0xffffffff,-0x2a78(%rbp)
    d4c8:	ff ff ff 
    d4cb:	c7 85 8c d5 ff ff 00 	movl   $0x0,-0x2a74(%rbp)
    d4d2:	00 00 00 
    d4d5:	c7 85 90 d5 ff ff fc 	movl   $0xfffffffc,-0x2a70(%rbp)
    d4dc:	ff ff ff 
    d4df:	c7 85 94 d5 ff ff 00 	movl   $0x0,-0x2a6c(%rbp)
    d4e6:	00 00 00 
    d4e9:	c7 85 98 d5 ff ff ff 	movl   $0xffffffff,-0x2a68(%rbp)
    d4f0:	ff ff ff 
    d4f3:	c7 85 9c d5 ff ff 84 	movl   $0x3433a484,-0x2a64(%rbp)
    d4fa:	a4 33 34 
    d4fd:	c7 85 a0 d5 ff ff 84 	movl   $0x3433a484,-0x2a60(%rbp)
    d504:	a4 33 34 
    d507:	c7 85 a4 d5 ff ff 03 	movl   $0x3,-0x2a5c(%rbp)
    d50e:	00 00 00 
    d511:	c7 85 a8 d5 ff ff 1d 	movl   $0x7dc40d1d,-0x2a58(%rbp)
    d518:	0d c4 7d 
    d51b:	c7 85 ac d5 ff ff 98 	movl   $0x45fdc298,-0x2a54(%rbp)
    d522:	c2 fd 45 
    d525:	c7 85 b0 d5 ff ff 03 	movl   $0x3,-0x2a50(%rbp)
    d52c:	00 00 00 
    d52f:	c7 85 b4 d5 ff ff ff 	movl   $0xffffffff,-0x2a4c(%rbp)
    d536:	ff ff ff 
    d539:	c7 85 b8 d5 ff ff fc 	movl   $0xfffffffc,-0x2a48(%rbp)
    d540:	ff ff ff 
    d543:	c7 85 bc d5 ff ff 1d 	movl   $0x7dc40d1d,-0x2a44(%rbp)
    d54a:	0d c4 7d 
    d54d:	c7 85 c0 d5 ff ff 06 	movl   $0x6,-0x2a40(%rbp)
    d554:	00 00 00 
    d557:	c7 85 c4 d5 ff ff fc 	movl   $0xfffffffc,-0x2a3c(%rbp)
    d55e:	ff ff ff 
    d561:	c7 85 c8 d5 ff ff fe 	movl   $0xfffffffe,-0x2a38(%rbp)
    d568:	ff ff ff 
    d56b:	c7 85 cc d5 ff ff 84 	movl   $0x3433a484,-0x2a34(%rbp)
    d572:	a4 33 34 
    d575:	c7 85 d0 d5 ff ff 84 	movl   $0x3433a484,-0x2a30(%rbp)
    d57c:	a4 33 34 
    d57f:	c7 85 d4 d5 ff ff fe 	movl   $0xfffffffe,-0x2a2c(%rbp)
    d586:	ff ff ff 
    d589:	c7 85 d8 d5 ff ff fc 	movl   $0xfffffffc,-0x2a28(%rbp)
    d590:	ff ff ff 
    d593:	c7 85 dc d5 ff ff 06 	movl   $0x6,-0x2a24(%rbp)
    d59a:	00 00 00 
    d59d:	c7 85 e0 d5 ff ff 5d 	movl   $0xa06fb5d,-0x2a20(%rbp)
    d5a4:	fb 06 0a 
    d5a7:	c7 85 e4 d5 ff ff 84 	movl   $0x3433a484,-0x2a1c(%rbp)
    d5ae:	a4 33 34 
    d5b1:	c7 85 e8 d5 ff ff 1d 	movl   $0x7dc40d1d,-0x2a18(%rbp)
    d5b8:	0d c4 7d 
    d5bb:	c7 85 ec d5 ff ff ff 	movl   $0xffffffff,-0x2a14(%rbp)
    d5c2:	ff ff ff 
    d5c5:	c7 85 f0 d5 ff ff 01 	movl   $0x1,-0x2a10(%rbp)
    d5cc:	00 00 00 
    d5cf:	c7 85 f4 d5 ff ff 5d 	movl   $0xa06fb5d,-0x2a0c(%rbp)
    d5d6:	fb 06 0a 
    d5d9:	c7 85 f8 d5 ff ff ff 	movl   $0xffffffff,-0x2a08(%rbp)
    d5e0:	ff ff ff 
    d5e3:	c7 85 fc d5 ff ff 98 	movl   $0x45fdc298,-0x2a04(%rbp)
    d5ea:	c2 fd 45 
    d5ed:	48 8d 05 d4 28 01 00 	lea    0x128d4(%rip),%rax        # 1fec8 <g_1795>
    d5f4:	48 89 85 d8 cb ff ff 	mov    %rax,-0x3428(%rbp)
    d5fb:	8b 05 ff 20 01 00    	mov    0x120ff(%rip),%eax        # 1f700 <g_264>
    d601:	41 89 c4             	mov    %eax,%r12d
    d604:	48 8b 85 48 c9 ff ff 	mov    -0x36b8(%rbp),%rax
    d60b:	0f b7 d8             	movzwl %ax,%ebx
    d60e:	48 8b 85 d0 cb ff ff 	mov    -0x3430(%rbp),%rax
    d615:	48 b9 6e 0c 1c e8 52 	movabs $0xe05c1f52e81c0c6e,%rcx
    d61c:	1f 5c e0 
    d61f:	48 89 08             	mov    %rcx,(%rax)
    d622:	48 8b 05 7f 5f 01 00 	mov    0x15f7f(%rip),%rax        # 235a8 <g_1360>
    d629:	48 8b 00             	mov    (%rax),%rax
    d62c:	48 8b 00             	mov    (%rax),%rax
    d62f:	48 39 85 68 cb ff ff 	cmp    %rax,-0x3498(%rbp)
    d636:	0f 94 c0             	sete   %al
    d639:	0f b6 c0             	movzbl %al,%eax
    d63c:	39 85 54 c9 ff ff    	cmp    %eax,-0x36ac(%rbp)
    d642:	0f 9d c0             	setge  %al
    d645:	0f b6 d0             	movzbl %al,%edx
    d648:	8b 85 08 cb ff ff    	mov    -0x34f8(%rbp),%eax
    d64e:	39 c2                	cmp    %eax,%edx
    d650:	0f 94 c0             	sete   %al
    d653:	0f b6 c0             	movzbl %al,%eax
    d656:	be 33 e2 ff ff       	mov    $0xffffe233,%esi
    d65b:	89 c7                	mov    %eax,%edi
    d65d:	e8 51 cd ff ff       	callq  a3b3 <safe_add_func_int16_t_s_s>
    d662:	0f b7 c0             	movzwl %ax,%eax
    d665:	48 8b 8d d8 ca ff ff 	mov    -0x3528(%rbp),%rcx
    d66c:	48 8b 95 c8 cb ff ff 	mov    -0x3438(%rbp),%rdx
    d673:	48 89 0a             	mov    %rcx,(%rdx)
    d676:	89 c6                	mov    %eax,%esi
    d678:	bf 01 00 00 00       	mov    $0x1,%edi
    d67d:	e8 7d d6 ff ff       	callq  acff <safe_add_func_uint16_t_u_u>
    d682:	0f b7 c0             	movzwl %ax,%eax
    d685:	89 85 dc c9 ff ff    	mov    %eax,-0x3624(%rbp)
    d68b:	8b 85 dc c9 ff ff    	mov    -0x3624(%rbp),%eax
    d691:	0f b7 c0             	movzwl %ax,%eax
    d694:	89 de                	mov    %ebx,%esi
    d696:	89 c7                	mov    %eax,%edi
    d698:	e8 62 d6 ff ff       	callq  acff <safe_add_func_uint16_t_u_u>
    d69d:	0f b7 d0             	movzwl %ax,%edx
    d6a0:	8b 85 88 c9 ff ff    	mov    -0x3678(%rbp),%eax
    d6a6:	39 c2                	cmp    %eax,%edx
    d6a8:	0f 9d c0             	setge  %al
    d6ab:	0f b6 c0             	movzbl %al,%eax
    d6ae:	44 89 e6             	mov    %r12d,%esi
    d6b1:	89 c7                	mov    %eax,%edi
    d6b3:	e8 72 ce ff ff       	callq  a52a <safe_rshift_func_int16_t_s_s>
    d6b8:	89 c3                	mov    %eax,%ebx
    d6ba:	48 8b 95 d8 e9 ff ff 	mov    -0x1628(%rbp),%rdx
    d6c1:	48 8b 85 30 e2 ff ff 	mov    -0x1dd0(%rbp),%rax
    d6c8:	48 39 c2             	cmp    %rax,%rdx
    d6cb:	0f 94 c0             	sete   %al
    d6ce:	0f b6 d0             	movzbl %al,%edx
    d6d1:	0f b6 05 11 20 01 00 	movzbl 0x12011(%rip),%eax        # 1f6e9 <g_169>
    d6d8:	0f b6 c0             	movzbl %al,%eax
    d6db:	89 d6                	mov    %edx,%esi
    d6dd:	89 c7                	mov    %eax,%edi
    d6df:	e8 59 d6 ff ff       	callq  ad3d <safe_mul_func_uint16_t_u_u>
    d6e4:	0f b7 d0             	movzwl %ax,%edx
    d6e7:	0f bf cb             	movswl %bx,%ecx
    d6ea:	8b 85 00 cb ff ff    	mov    -0x3500(%rbp),%eax
    d6f0:	21 c8                	and    %ecx,%eax
    d6f2:	89 85 00 cb ff ff    	mov    %eax,-0x3500(%rbp)
    d6f8:	8b 85 00 cb ff ff    	mov    -0x3500(%rbp),%eax
    d6fe:	89 d1                	mov    %edx,%ecx
    d700:	21 c1                	and    %eax,%ecx
    d702:	48 8b 85 58 c9 ff ff 	mov    -0x36a8(%rbp),%rax
    d709:	8b 10                	mov    (%rax),%edx
    d70b:	48 8b 85 58 c9 ff ff 	mov    -0x36a8(%rbp),%rax
    d712:	21 ca                	and    %ecx,%edx
    d714:	89 10                	mov    %edx,(%rax)
    d716:	0f b7 05 6b 27 01 00 	movzwl 0x1276b(%rip),%eax        # 1fe88 <g_1641+0x8>
    d71d:	8b 85 10 cb ff ff    	mov    -0x34f0(%rbp),%eax
    d723:	85 c0                	test   %eax,%eax
    d725:	0f 84 cc 02 00 00    	je     d9f7 <func_22+0x1e2b>
    d72b:	48 c7 85 18 cb ff ff 	movq   $0x0,-0x34e8(%rbp)
    d732:	00 00 00 00 
    d736:	48 8d 85 18 cb ff ff 	lea    -0x34e8(%rbp),%rax
    d73d:	48 89 85 18 cc ff ff 	mov    %rax,-0x33e8(%rbp)
    d744:	48 c7 85 20 cc ff ff 	movq   $0xfffffffffffffff7,-0x33e0(%rbp)
    d74b:	f7 ff ff ff 
    d74f:	c7 85 9c c9 ff ff 00 	movl   $0x0,-0x3664(%rbp)
    d756:	00 00 00 
    d759:	eb 1a                	jmp    d775 <func_22+0x1ba9>
    d75b:	8b 85 9c c9 ff ff    	mov    -0x3664(%rbp),%eax
    d761:	48 98                	cltq   
    d763:	c7 84 85 d0 f7 ff ff 	movl   $0xb56225d8,-0x830(%rbp,%rax,4)
    d76a:	d8 25 62 b5 
    d76e:	83 85 9c c9 ff ff 01 	addl   $0x1,-0x3664(%rbp)
    d775:	83 bd 9c c9 ff ff 01 	cmpl   $0x1,-0x3664(%rbp)
    d77c:	7e dd                	jle    d75b <func_22+0x1b8f>
    d77e:	66 c7 05 45 6b 01 00 	movw   $0x0,0x16b45(%rip)        # 242cc <g_49>
    d785:	00 00 
    d787:	e9 1b 02 00 00       	jmpq   d9a7 <func_22+0x1ddb>
    d78c:	48 8d 85 e8 ca ff ff 	lea    -0x3518(%rbp),%rax
    d793:	48 89 85 28 cc ff ff 	mov    %rax,-0x33d8(%rbp)
    d79a:	48 8d 05 ff 26 01 00 	lea    0x126ff(%rip),%rax        # 1fea0 <g_1666>
    d7a1:	48 89 85 30 cc ff ff 	mov    %rax,-0x33d0(%rbp)
    d7a8:	48 8b 85 58 c9 ff ff 	mov    -0x36a8(%rbp),%rax
    d7af:	8b 00                	mov    (%rax),%eax
    d7b1:	85 c0                	test   %eax,%eax
    d7b3:	0f 85 01 02 00 00    	jne    d9ba <func_22+0x1dee>
    d7b9:	48 8b 05 c0 63 01 00 	mov    0x163c0(%rip),%rax        # 23b80 <g_1644>
    d7c0:	48 8d 15 99 1f 01 00 	lea    0x11f99(%rip),%rdx        # 1f760 <g_543>
    d7c7:	48 89 10             	mov    %rdx,(%rax)
    d7ca:	48 8b 85 48 c9 ff ff 	mov    -0x36b8(%rbp),%rax
    d7d1:	0f b6 d8             	movzbl %al,%ebx
    d7d4:	48 8b 05 b5 26 01 00 	mov    0x126b5(%rip),%rax        # 1fe90 <g_1650>
    d7db:	48 8b 15 b6 26 01 00 	mov    0x126b6(%rip),%rdx        # 1fe98 <g_1650+0x8>
    d7e2:	48 8b 85 40 c9 ff ff 	mov    -0x36c0(%rbp),%rax
    d7e9:	44 0f bf e0          	movswl %ax,%r12d
    d7ed:	48 8b 95 e8 ca ff ff 	mov    -0x3518(%rbp),%rdx
    d7f4:	48 8b 85 28 cc ff ff 	mov    -0x33d8(%rbp),%rax
    d7fb:	48 89 10             	mov    %rdx,(%rax)
    d7fe:	48 8b 85 28 cc ff ff 	mov    -0x33d8(%rbp),%rax
    d805:	48 8b 00             	mov    (%rax),%rax
    d808:	48 39 85 18 cc ff ff 	cmp    %rax,-0x33e8(%rbp)
    d80f:	0f 94 c0             	sete   %al
    d812:	44 0f b6 f0          	movzbl %al,%r14d
    d816:	4c 8b ad 40 c9 ff ff 	mov    -0x36c0(%rbp),%r13
    d81d:	0f b7 05 a8 6a 01 00 	movzwl 0x16aa8(%rip),%eax        # 242cc <g_49>
    d824:	0f b7 c0             	movzwl %ax,%eax
    d827:	8d 50 02             	lea    0x2(%rax),%edx
    d82a:	8b 05 d4 1e 01 00    	mov    0x11ed4(%rip),%eax        # 1f704 <g_264+0x4>
    d830:	8d 48 02             	lea    0x2(%rax),%ecx
    d833:	8b 05 c7 1e 01 00    	mov    0x11ec7(%rip),%eax        # 1f700 <g_264>
    d839:	83 c0 01             	add    $0x1,%eax
    d83c:	89 c6                	mov    %eax,%esi
    d83e:	48 63 d2             	movslq %edx,%rdx
    d841:	48 63 c9             	movslq %ecx,%rcx
    d844:	48 89 d0             	mov    %rdx,%rax
    d847:	48 01 c0             	add    %rax,%rax
    d84a:	48 01 d0             	add    %rdx,%rax
    d84d:	48 01 c0             	add    %rax,%rax
    d850:	48 01 c8             	add    %rcx,%rax
    d853:	48 c1 e0 02          	shl    $0x2,%rax
    d857:	48 01 f0             	add    %rsi,%rax
    d85a:	48 8d 14 00          	lea    (%rax,%rax,1),%rdx
    d85e:	48 8d 05 fb 23 01 00 	lea    0x123fb(%rip),%rax        # 1fc60 <g_1099>
    d865:	0f b7 04 02          	movzwl (%rdx,%rax,1),%eax
    d869:	8b 85 7c c9 ff ff    	mov    -0x3684(%rbp),%eax
    d86f:	0f be d0             	movsbl %al,%edx
    d872:	48 8b 85 38 c9 ff ff 	mov    -0x36c8(%rbp),%rax
    d879:	0f b6 00             	movzbl (%rax),%eax
    d87c:	48 8b 8d 48 c9 ff ff 	mov    -0x36b8(%rbp),%rcx
    d883:	48 83 f9 05          	cmp    $0x5,%rcx
    d887:	0f 9e c1             	setle  %cl
    d88a:	21 c1                	and    %eax,%ecx
    d88c:	48 8b 85 38 c9 ff ff 	mov    -0x36c8(%rbp),%rax
    d893:	88 08                	mov    %cl,(%rax)
    d895:	48 8b 85 38 c9 ff ff 	mov    -0x36c8(%rbp),%rax
    d89c:	0f b6 00             	movzbl (%rax),%eax
    d89f:	0f be c0             	movsbl %al,%eax
    d8a2:	89 d6                	mov    %edx,%esi
    d8a4:	89 c7                	mov    %eax,%edi
    d8a6:	e8 67 c9 ff ff       	callq  a212 <safe_mul_func_int8_t_s_s>
    d8ab:	66 0f be d0          	movsbw %al,%dx
    d8af:	48 8b 85 30 cc ff ff 	mov    -0x33d0(%rbp),%rax
    d8b6:	66 89 10             	mov    %dx,(%rax)
    d8b9:	48 8b 85 30 cc ff ff 	mov    -0x33d0(%rbp),%rax
    d8c0:	0f b7 00             	movzwl (%rax),%eax
    d8c3:	0f b7 c0             	movzwl %ax,%eax
    d8c6:	be ff ff 00 00       	mov    $0xffff,%esi
    d8cb:	89 c7                	mov    %eax,%edi
    d8cd:	e8 2d d4 ff ff       	callq  acff <safe_add_func_uint16_t_u_u>
    d8d2:	89 c2                	mov    %eax,%edx
    d8d4:	48 8b 85 b8 cb ff ff 	mov    -0x3448(%rbp),%rax
    d8db:	0f b6 00             	movzbl (%rax),%eax
    d8de:	09 c2                	or     %eax,%edx
    d8e0:	48 8b 85 b8 cb ff ff 	mov    -0x3448(%rbp),%rax
    d8e7:	88 10                	mov    %dl,(%rax)
    d8e9:	48 8b 85 b8 cb ff ff 	mov    -0x3448(%rbp),%rax
    d8f0:	0f b6 00             	movzbl (%rax),%eax
    d8f3:	0f be d0             	movsbl %al,%edx
    d8f6:	8b 85 08 cb ff ff    	mov    -0x34f8(%rbp),%eax
    d8fc:	21 d0                	and    %edx,%eax
    d8fe:	48 98                	cltq   
    d900:	48 39 85 20 cc ff ff 	cmp    %rax,-0x33e0(%rbp)
    d907:	0f 9e c0             	setle  %al
    d90a:	0f b6 c0             	movzbl %al,%eax
    d90d:	39 85 54 c9 ff ff    	cmp    %eax,-0x36ac(%rbp)
    d913:	0f 9d c0             	setge  %al
    d916:	0f b6 d0             	movzbl %al,%edx
    d919:	48 8b 85 b0 cb ff ff 	mov    -0x3450(%rbp),%rax
    d920:	66 89 10             	mov    %dx,(%rax)
    d923:	4c 89 ee             	mov    %r13,%rsi
    d926:	bf 00 00 00 00       	mov    $0x0,%edi
    d92b:	e8 1b d7 ff ff       	callq  b04b <safe_sub_func_uint64_t_u_u>
    d930:	4c 31 f0             	xor    %r14,%rax
    d933:	48 89 c2             	mov    %rax,%rdx
    d936:	48 8b 85 d0 cb ff ff 	mov    -0x3430(%rbp),%rax
    d93d:	48 89 10             	mov    %rdx,(%rax)
    d940:	44 89 e6             	mov    %r12d,%esi
    d943:	bf 00 00 00 00       	mov    $0x0,%edi
    d948:	e8 86 ca ff ff       	callq  a3d3 <safe_sub_func_int16_t_s_s>
    d94d:	0f b6 c0             	movzbl %al,%eax
    d950:	89 de                	mov    %ebx,%esi
    d952:	89 c7                	mov    %eax,%edi
    d954:	e8 01 d2 ff ff       	callq  ab5a <safe_add_func_uint8_t_u_u>
    d959:	0f b6 d0             	movzbl %al,%edx
    d95c:	48 83 bd 70 cb ff ff 	cmpq   $0x0,-0x3490(%rbp)
    d963:	00 
    d964:	0f 95 c0             	setne  %al
    d967:	0f b6 c8             	movzbl %al,%ecx
    d96a:	48 8b 85 20 cb ff ff 	mov    -0x34e0(%rbp),%rax
    d971:	89 08                	mov    %ecx,(%rax)
    d973:	48 8b 85 20 cb ff ff 	mov    -0x34e0(%rbp),%rax
    d97a:	8b 00                	mov    (%rax),%eax
    d97c:	0f b7 c0             	movzwl %ax,%eax
    d97f:	89 d6                	mov    %edx,%esi
    d981:	89 c7                	mov    %eax,%edi
    d983:	e8 b5 d3 ff ff       	callq  ad3d <safe_mul_func_uint16_t_u_u>
    d988:	89 c2                	mov    %eax,%edx
    d98a:	48 8b 85 58 c9 ff ff 	mov    -0x36a8(%rbp),%rax
    d991:	0f b7 d2             	movzwl %dx,%edx
    d994:	89 10                	mov    %edx,(%rax)
    d996:	0f b7 05 2f 69 01 00 	movzwl 0x1692f(%rip),%eax        # 242cc <g_49>
    d99d:	83 c0 01             	add    $0x1,%eax
    d9a0:	66 89 05 25 69 01 00 	mov    %ax,0x16925(%rip)        # 242cc <g_49>
    d9a7:	0f b7 05 1e 69 01 00 	movzwl 0x1691e(%rip),%eax        # 242cc <g_49>
    d9ae:	66 83 f8 03          	cmp    $0x3,%ax
    d9b2:	0f 86 d4 fd ff ff    	jbe    d78c <func_22+0x1bc0>
    d9b8:	eb 01                	jmp    d9bb <func_22+0x1def>
    d9ba:	90                   	nop
    d9bb:	c7 05 9b 1d 01 00 00 	movl   $0x0,0x11d9b(%rip)        # 1f760 <g_543>
    d9c2:	00 00 00 
    d9c5:	eb 20                	jmp    d9e7 <func_22+0x1e1b>
    d9c7:	48 8b 85 58 c9 ff ff 	mov    -0x36a8(%rbp),%rax
    d9ce:	8b 00                	mov    (%rax),%eax
    d9d0:	85 c0                	test   %eax,%eax
    d9d2:	0f 85 8d 03 00 00    	jne    dd65 <func_22+0x2199>
    d9d8:	8b 05 82 1d 01 00    	mov    0x11d82(%rip),%eax        # 1f760 <g_543>
    d9de:	83 c0 01             	add    $0x1,%eax
    d9e1:	89 05 79 1d 01 00    	mov    %eax,0x11d79(%rip)        # 1f760 <g_543>
    d9e7:	8b 05 73 1d 01 00    	mov    0x11d73(%rip),%eax        # 1f760 <g_543>
    d9ed:	83 f8 02             	cmp    $0x2,%eax
    d9f0:	76 d5                	jbe    d9c7 <func_22+0x1dfb>
    d9f2:	e9 6f 03 00 00       	jmpq   dd66 <func_22+0x219a>
    d9f7:	48 8d 05 ba bb 00 00 	lea    0xbbba(%rip),%rax        # 195b8 <g_1670>
    d9fe:	48 89 85 e0 cb ff ff 	mov    %rax,-0x3420(%rbp)
    da05:	c7 85 e8 c9 ff ff 41 	movl   $0x9894e241,-0x3618(%rbp)
    da0c:	e2 94 98 
    da0f:	48 c7 85 e8 cb ff ff 	movq   $0x0,-0x3418(%rbp)
    da16:	00 00 00 00 
    da1a:	48 8d 85 8c c9 ff ff 	lea    -0x3674(%rbp),%rax
    da21:	48 89 85 f0 cb ff ff 	mov    %rax,-0x3410(%rbp)
    da28:	48 8d 05 9d 16 01 00 	lea    0x1169d(%rip),%rax        # 1f0cc <g_7>
    da2f:	48 89 85 f8 cb ff ff 	mov    %rax,-0x3408(%rbp)
    da36:	48 8d 85 10 cb ff ff 	lea    -0x34f0(%rbp),%rax
    da3d:	48 89 85 00 cc ff ff 	mov    %rax,-0x3400(%rbp)
    da44:	48 8d 85 f0 ca ff ff 	lea    -0x3510(%rbp),%rax
    da4b:	48 89 85 08 cc ff ff 	mov    %rax,-0x33f8(%rbp)
    da52:	c6 85 6a c9 ff ff 07 	movb   $0x7,-0x3696(%rbp)
    da59:	48 8d 85 98 ca ff ff 	lea    -0x3568(%rbp),%rax
    da60:	48 89 85 10 cc ff ff 	mov    %rax,-0x33f0(%rbp)
    da67:	48 8b 85 78 cb ff ff 	mov    -0x3488(%rbp),%rax
    da6e:	48 89 85 e0 cb ff ff 	mov    %rax,-0x3420(%rbp)
    da75:	48 8b 85 38 c9 ff ff 	mov    -0x36c8(%rbp),%rax
    da7c:	0f b6 00             	movzbl (%rax),%eax
    da7f:	0f be d8             	movsbl %al,%ebx
    da82:	48 8b 85 58 c9 ff ff 	mov    -0x36a8(%rbp),%rax
    da89:	44 8b 20             	mov    (%rax),%r12d
    da8c:	8b 05 c2 23 01 00    	mov    0x123c2(%rip),%eax        # 1fe54 <g_1249>
    da92:	98                   	cwtl   
    da93:	be 0c 00 00 00       	mov    $0xc,%esi
    da98:	89 c7                	mov    %eax,%edi
    da9a:	e8 8b ca ff ff       	callq  a52a <safe_rshift_func_int16_t_s_s>
    da9f:	66 89 85 30 c9 ff ff 	mov    %ax,-0x36d0(%rbp)
    daa6:	48 8b 85 40 c9 ff ff 	mov    -0x36c0(%rbp),%rax
    daad:	44 0f be e8          	movsbl %al,%r13d
    dab1:	48 8b 85 20 cb ff ff 	mov    -0x34e0(%rbp),%rax
    dab8:	8b 00                	mov    (%rax),%eax
    daba:	44 0f b7 f0          	movzwl %ax,%r14d
    dabe:	48 8b 85 38 c9 ff ff 	mov    -0x36c8(%rbp),%rax
    dac5:	0f b6 00             	movzbl (%rax),%eax
    dac8:	44 0f be f8          	movsbl %al,%r15d
    dacc:	48 8b 85 20 cb ff ff 	mov    -0x34e0(%rbp),%rax
    dad3:	8b 00                	mov    (%rax),%eax
    dad5:	89 85 50 c9 ff ff    	mov    %eax,-0x36b0(%rbp)
    dadb:	48 8b 85 38 c9 ff ff 	mov    -0x36c8(%rbp),%rax
    dae2:	0f b6 00             	movzbl (%rax),%eax
    dae5:	0f b6 c0             	movzbl %al,%eax
    dae8:	be f7 00 00 00       	mov    $0xf7,%esi
    daed:	89 c7                	mov    %eax,%edi
    daef:	e8 84 d0 ff ff       	callq  ab78 <safe_sub_func_uint8_t_u_u>
    daf4:	0f b6 d0             	movzbl %al,%edx
    daf7:	8b 05 77 1c 01 00    	mov    0x11c77(%rip),%eax        # 1f774 <g_545+0x4>
    dafd:	39 c2                	cmp    %eax,%edx
    daff:	0f 9e c0             	setle  %al
    db02:	0f b6 c0             	movzbl %al,%eax
    db05:	be 05 00 00 00       	mov    $0x5,%esi
    db0a:	89 c7                	mov    %eax,%edi
    db0c:	e8 3b d1 ff ff       	callq  ac4c <safe_lshift_func_uint8_t_u_u>
    db11:	0f b7 05 58 23 01 00 	movzwl 0x12358(%rip),%eax        # 1fe70 <g_1495>
    db18:	48 0f bf c0          	movswq %ax,%rax
    db1c:	48 89 c2             	mov    %rax,%rdx
    db1f:	81 e2 a0 c3 1e f4    	and    $0xf41ec3a0,%edx
    db25:	48 8b 85 38 c9 ff ff 	mov    -0x36c8(%rbp),%rax
    db2c:	0f b6 00             	movzbl (%rax),%eax
    db2f:	48 0f be c0          	movsbq %al,%rax
    db33:	48 39 c2             	cmp    %rax,%rdx
    db36:	0f 9e c0             	setle  %al
    db39:	0f b6 c0             	movzbl %al,%eax
    db3c:	89 c7                	mov    %eax,%edi
    db3e:	e8 53 ca ff ff       	callq  a596 <safe_unary_minus_func_int32_t_s>
    db43:	8b 95 10 cb ff ff    	mov    -0x34f0(%rbp),%edx
    db49:	39 d0                	cmp    %edx,%eax
    db4b:	0f 9e c0             	setle  %al
    db4e:	0f b6 d0             	movzbl %al,%edx
    db51:	0f b7 05 f8 22 01 00 	movzwl 0x122f8(%rip),%eax        # 1fe50 <g_1152>
    db58:	98                   	cwtl   
    db59:	39 c2                	cmp    %eax,%edx
    db5b:	0f 9c c0             	setl   %al
    db5e:	0f b6 c0             	movzbl %al,%eax
    db61:	48 8b 15 a0 1b 01 00 	mov    0x11ba0(%rip),%rdx        # 1f708 <g_264+0x8>
    db68:	21 c2                	and    %eax,%edx
    db6a:	8b 85 dc c9 ff ff    	mov    -0x3624(%rbp),%eax
    db70:	89 c6                	mov    %eax,%esi
    db72:	89 d7                	mov    %edx,%edi
    db74:	e8 8c ca ff ff       	callq  a605 <safe_sub_func_int32_t_s_s>
    db79:	0f b6 c0             	movzbl %al,%eax
    db7c:	8b b5 50 c9 ff ff    	mov    -0x36b0(%rbp),%esi
    db82:	89 c7                	mov    %eax,%edi
    db84:	e8 c3 d0 ff ff       	callq  ac4c <safe_lshift_func_uint8_t_u_u>
    db89:	0f be c0             	movsbl %al,%eax
    db8c:	44 89 fe             	mov    %r15d,%esi
    db8f:	89 c7                	mov    %eax,%edi
    db91:	e8 7c c6 ff ff       	callq  a212 <safe_mul_func_int8_t_s_s>
    db96:	0f be d0             	movsbl %al,%edx
    db99:	8b 85 10 cb ff ff    	mov    -0x34f0(%rbp),%eax
    db9f:	39 c2                	cmp    %eax,%edx
    dba1:	0f 9f c0             	setg   %al
    dba4:	0f b6 d0             	movzbl %al,%edx
    dba7:	48 8b 85 b0 cb ff ff 	mov    -0x3450(%rbp),%rax
    dbae:	66 89 10             	mov    %dx,(%rax)
    dbb1:	44 89 f6             	mov    %r14d,%esi
    dbb4:	bf 00 00 00 00       	mov    $0x0,%edi
    dbb9:	e8 61 d1 ff ff       	callq  ad1f <safe_sub_func_uint16_t_u_u>
    dbbe:	0f be c0             	movsbl %al,%eax
    dbc1:	44 89 ee             	mov    %r13d,%esi
    dbc4:	89 c7                	mov    %eax,%edi
    dbc6:	e8 47 c6 ff ff       	callq  a212 <safe_mul_func_int8_t_s_s>
    dbcb:	66 98                	cbtw   
    dbcd:	0f b7 95 30 c9 ff ff 	movzwl -0x36d0(%rbp),%edx
    dbd4:	21 c2                	and    %eax,%edx
    dbd6:	48 8b 85 20 cb ff ff 	mov    -0x34e0(%rbp),%rax
    dbdd:	8b 00                	mov    (%rax),%eax
    dbdf:	21 d0                	and    %edx,%eax
    dbe1:	98                   	cwtl   
    dbe2:	be 05 00 00 00       	mov    $0x5,%esi
    dbe7:	89 c7                	mov    %eax,%edi
    dbe9:	e8 a4 c8 ff ff       	callq  a492 <safe_lshift_func_int16_t_s_s>
    dbee:	0f be c0             	movsbl %al,%eax
    dbf1:	be 05 00 00 00       	mov    $0x5,%esi
    dbf6:	89 c7                	mov    %eax,%edi
    dbf8:	e8 f1 c6 ff ff       	callq  a2ee <safe_lshift_func_int8_t_s_u>
    dbfd:	0f be c0             	movsbl %al,%eax
    dc00:	44 89 e6             	mov    %r12d,%esi
    dc03:	89 c7                	mov    %eax,%edi
    dc05:	e8 c2 ca ff ff       	callq  a6cc <safe_mod_func_int32_t_s_s>
    dc0a:	0f be c0             	movsbl %al,%eax
    dc0d:	89 de                	mov    %ebx,%esi
    dc0f:	89 c7                	mov    %eax,%edi
    dc11:	e8 1b c6 ff ff       	callq  a231 <safe_mod_func_int8_t_s_s>
    dc16:	89 c2                	mov    %eax,%edx
    dc18:	48 8b 85 58 c9 ff ff 	mov    -0x36a8(%rbp),%rax
    dc1f:	0f be d2             	movsbl %dl,%edx
    dc22:	89 10                	mov    %edx,(%rax)
    dc24:	8b 00                	mov    (%rax),%eax
    dc26:	89 85 e8 c9 ff ff    	mov    %eax,-0x3618(%rbp)
    dc2c:	0f b6 85 6a c9 ff ff 	movzbl -0x3696(%rbp),%eax
    dc33:	83 e8 01             	sub    $0x1,%eax
    dc36:	88 85 6a c9 ff ff    	mov    %al,-0x3696(%rbp)
    dc3c:	48 8b 85 a8 cf ff ff 	mov    -0x3058(%rbp),%rax
    dc43:	0f b6 d8             	movzbl %al,%ebx
    dc46:	44 0f bf a5 6e c9 ff 	movswl -0x3692(%rbp),%r12d
    dc4d:	ff 
    dc4e:	8b 05 d0 1a 01 00    	mov    0x11ad0(%rip),%eax        # 1f724 <g_386>
    dc54:	41 89 c6             	mov    %eax,%r14d
    dc57:	44 8b ad 54 c9 ff ff 	mov    -0x36ac(%rbp),%r13d
    dc5e:	48 8b 85 b8 cb ff ff 	mov    -0x3448(%rbp),%rax
    dc65:	c6 00 ff             	movb   $0xff,(%rax)
    dc68:	48 8b 85 48 c9 ff ff 	mov    -0x36b8(%rbp),%rax
    dc6f:	83 c8 01             	or     $0x1,%eax
    dc72:	0f bf d0             	movswl %ax,%edx
    dc75:	0f b7 05 34 1f 01 00 	movzwl 0x11f34(%rip),%eax        # 1fbb0 <g_1003>
    dc7c:	98                   	cwtl   
    dc7d:	89 d6                	mov    %edx,%esi
    dc7f:	89 c7                	mov    %eax,%edi
    dc81:	e8 cf c7 ff ff       	callq  a455 <safe_div_func_int16_t_s_s>
    dc86:	8b 05 c8 21 01 00    	mov    0x121c8(%rip),%eax        # 1fe54 <g_1249>
    dc8c:	83 f8 01             	cmp    $0x1,%eax
    dc8f:	0f 96 c0             	setbe  %al
    dc92:	0f b6 c0             	movzbl %al,%eax
    dc95:	44 89 ee             	mov    %r13d,%esi
    dc98:	89 c7                	mov    %eax,%edi
    dc9a:	e8 5e d2 ff ff       	callq  aefd <safe_mod_func_uint32_t_u_u>
    dc9f:	0f b6 c0             	movzbl %al,%eax
    dca2:	be ff 00 00 00       	mov    $0xff,%esi
    dca7:	89 c7                	mov    %eax,%edi
    dca9:	e8 ca ce ff ff       	callq  ab78 <safe_sub_func_uint8_t_u_u>
    dcae:	84 c0                	test   %al,%al
    dcb0:	0f 94 c0             	sete   %al
    dcb3:	0f b6 c0             	movzbl %al,%eax
    dcb6:	be c3 00 00 00       	mov    $0xc3,%esi
    dcbb:	89 c7                	mov    %eax,%edi
    dcbd:	e8 d1 ce ff ff       	callq  ab93 <safe_mul_func_uint8_t_u_u>
    dcc2:	0f b6 d0             	movzbl %al,%edx
    dcc5:	0f b7 05 00 66 01 00 	movzwl 0x16600(%rip),%eax        # 242cc <g_49>
    dccc:	66 39 c2             	cmp    %ax,%dx
    dccf:	48 8b 85 20 cb ff ff 	mov    -0x34e0(%rbp),%rax
    dcd6:	c7 00 01 00 00 00    	movl   $0x1,(%rax)
    dcdc:	48 8b 85 20 cb ff ff 	mov    -0x34e0(%rbp),%rax
    dce3:	8b 10                	mov    (%rax),%edx
    dce5:	48 8b 8d 98 ca ff ff 	mov    -0x3568(%rbp),%rcx
    dcec:	48 8b 85 10 cc ff ff 	mov    -0x33f0(%rbp),%rax
    dcf3:	48 89 08             	mov    %rcx,(%rax)
    dcf6:	48 8b 85 10 cc ff ff 	mov    -0x33f0(%rbp),%rax
    dcfd:	48 8b 00             	mov    (%rax),%rax
    dd00:	48 85 c0             	test   %rax,%rax
    dd03:	0f 95 c0             	setne  %al
    dd06:	0f b6 c0             	movzbl %al,%eax
    dd09:	89 d6                	mov    %edx,%esi
    dd0b:	89 c7                	mov    %eax,%edi
    dd0d:	e8 a4 c8 ff ff       	callq  a5b6 <safe_add_func_int32_t_s_s>
    dd12:	44 89 f6             	mov    %r14d,%esi
    dd15:	89 c7                	mov    %eax,%edi
    dd17:	e8 9a c8 ff ff       	callq  a5b6 <safe_add_func_int32_t_s_s>
    dd1c:	85 c0                	test   %eax,%eax
    dd1e:	0f 95 c0             	setne  %al
    dd21:	0f b6 c0             	movzbl %al,%eax
    dd24:	44 89 e6             	mov    %r12d,%esi
    dd27:	89 c7                	mov    %eax,%edi
    dd29:	e8 a2 d1 ff ff       	callq  aed0 <safe_sub_func_uint32_t_u_u>
    dd2e:	0f b6 c0             	movzbl %al,%eax
    dd31:	89 de                	mov    %ebx,%esi
    dd33:	89 c7                	mov    %eax,%edi
    dd35:	e8 3e ce ff ff       	callq  ab78 <safe_sub_func_uint8_t_u_u>
    dd3a:	0f b6 d0             	movzbl %al,%edx
    dd3d:	48 8b 85 40 c9 ff ff 	mov    -0x36c0(%rbp),%rax
    dd44:	98                   	cwtl   
    dd45:	89 d6                	mov    %edx,%esi
    dd47:	89 c7                	mov    %eax,%edi
    dd49:	e8 85 c6 ff ff       	callq  a3d3 <safe_sub_func_int16_t_s_s>
    dd4e:	48 8b 95 08 cc ff ff 	mov    -0x33f8(%rbp),%rdx
    dd55:	8b 12                	mov    (%rdx),%edx
    dd57:	98                   	cwtl   
    dd58:	09 c2                	or     %eax,%edx
    dd5a:	48 8b 85 08 cc ff ff 	mov    -0x33f8(%rbp),%rax
    dd61:	89 10                	mov    %edx,(%rax)
    dd63:	eb 01                	jmp    dd66 <func_22+0x219a>
    dd65:	90                   	nop
    dd66:	48 8b 85 58 c9 ff ff 	mov    -0x36a8(%rbp),%rax
    dd6d:	8b 00                	mov    (%rax),%eax
    dd6f:	85 c0                	test   %eax,%eax
    dd71:	0f 84 50 01 00 00    	je     dec7 <func_22+0x22fb>
    dd77:	c7 85 ec c9 ff ff 8e 	movl   $0x1366218e,-0x3614(%rbp)
    dd7e:	21 66 13 
    dd81:	c7 85 a0 c9 ff ff 00 	movl   $0x0,-0x3660(%rbp)
    dd88:	00 00 00 
    dd8b:	eb 1e                	jmp    ddab <func_22+0x21df>
    dd8d:	8b 85 a0 c9 ff ff    	mov    -0x3660(%rbp),%eax
    dd93:	48 98                	cltq   
    dd95:	48 8d 15 34 48 01 00 	lea    0x14834(%rip),%rdx        # 225d0 <g_925>
    dd9c:	48 89 94 c5 d0 f7 ff 	mov    %rdx,-0x830(%rbp,%rax,8)
    dda3:	ff 
    dda4:	83 85 a0 c9 ff ff 01 	addl   $0x1,-0x3660(%rbp)
    ddab:	83 bd a0 c9 ff ff 06 	cmpl   $0x6,-0x3660(%rbp)
    ddb2:	7e d9                	jle    dd8d <func_22+0x21c1>
    ddb4:	c7 05 0e 13 01 00 00 	movl   $0x0,0x1130e(%rip)        # 1f0cc <g_7>
    ddbb:	00 00 00 
    ddbe:	90                   	nop
    ddbf:	8b 05 07 13 01 00    	mov    0x11307(%rip),%eax        # 1f0cc <g_7>
    ddc5:	85 c0                	test   %eax,%eax
    ddc7:	78 41                	js     de0a <func_22+0x223e>
    ddc9:	48 8b 05 e8 5d 01 00 	mov    0x15de8(%rip),%rax        # 23bb8 <g_1735>
    ddd0:	48 85 c0             	test   %rax,%rax
    ddd3:	0f 94 c0             	sete   %al
    ddd6:	0f b6 d0             	movzbl %al,%edx
    ddd9:	48 8b 85 20 cb ff ff 	mov    -0x34e0(%rbp),%rax
    dde0:	89 10                	mov    %edx,(%rax)
    dde2:	48 c7 85 80 cb ff ff 	movq   $0x0,-0x3480(%rbp)
    dde9:	00 00 00 00 
    dded:	8b 05 11 19 01 00    	mov    0x11911(%rip),%eax        # 1f704 <g_264+0x4>
    ddf3:	48 98                	cltq   
    ddf5:	48 8d 14 00          	lea    (%rax,%rax,1),%rdx
    ddf9:	48 8d 05 18 19 01 00 	lea    0x11918(%rip),%rax        # 1f718 <g_332>
    de00:	0f b7 04 02          	movzwl (%rdx,%rax,1),%eax
    de04:	98                   	cwtl   
    de05:	e9 5e 58 00 00       	jmpq   13668 <func_22+0x7a9c>
    de0a:	8b 85 54 c9 ff ff    	mov    -0x36ac(%rbp),%eax
    de10:	0f b6 d0             	movzbl %al,%edx
    de13:	8b 05 eb 18 01 00    	mov    0x118eb(%rip),%eax        # 1f704 <g_264+0x4>
    de19:	0f b6 c0             	movzbl %al,%eax
    de1c:	89 d6                	mov    %edx,%esi
    de1e:	89 c7                	mov    %eax,%edi
    de20:	e8 6e cd ff ff       	callq  ab93 <safe_mul_func_uint8_t_u_u>
    de25:	48 8d 05 94 46 01 00 	lea    0x14694(%rip),%rax        # 224c0 <g_416>
    de2c:	48 8b 00             	mov    (%rax),%rax
    de2f:	48 8b 00             	mov    (%rax),%rax
    de32:	48 89 85 48 c9 ff ff 	mov    %rax,-0x36b8(%rbp)
    de39:	48 8b 85 48 c9 ff ff 	mov    -0x36b8(%rbp),%rax
    de40:	48 85 c0             	test   %rax,%rax
    de43:	74 2f                	je     de74 <func_22+0x22a8>
    de45:	48 8b 85 d8 f7 ff ff 	mov    -0x828(%rbp),%rax
    de4c:	48 89 85 d0 ce ff ff 	mov    %rax,-0x3130(%rbp)
    de53:	0f b7 05 56 b7 00 00 	movzwl 0xb756(%rip),%eax        # 195b0 <g_1030>
    de5a:	66 85 c0             	test   %ax,%ax
    de5d:	0f 9e c0             	setle  %al
    de60:	0f b6 d0             	movzbl %al,%edx
    de63:	8b 85 10 cb ff ff    	mov    -0x34f0(%rbp),%eax
    de69:	39 c2                	cmp    %eax,%edx
    de6b:	74 07                	je     de74 <func_22+0x22a8>
    de6d:	ba 01 00 00 00       	mov    $0x1,%edx
    de72:	eb 05                	jmp    de79 <func_22+0x22ad>
    de74:	ba 00 00 00 00       	mov    $0x0,%edx
    de79:	48 8b 05 78 4c 01 00 	mov    0x14c78(%rip),%rax        # 22af8 <g_1338>
    de80:	48 8b 00             	mov    (%rax),%rax
    de83:	88 10                	mov    %dl,(%rax)
    de85:	0f b6 00             	movzbl (%rax),%eax
    de88:	3c 01                	cmp    $0x1,%al
    de8a:	0f 96 c2             	setbe  %dl
    de8d:	48 8b 85 58 c9 ff ff 	mov    -0x36a8(%rbp),%rax
    de94:	0f b6 d2             	movzbl %dl,%edx
    de97:	89 10                	mov    %edx,(%rax)
    de99:	48 8b 85 20 cb ff ff 	mov    -0x34e0(%rbp),%rax
    dea0:	c7 00 09 00 00 00    	movl   $0x9,(%rax)
    dea6:	48 8b 85 58 c9 ff ff 	mov    -0x36a8(%rbp),%rax
    dead:	48 8b 95 20 cb ff ff 	mov    -0x34e0(%rbp),%rdx
    deb4:	8b 12                	mov    (%rdx),%edx
    deb6:	89 10                	mov    %edx,(%rax)
    deb8:	c7 85 80 c9 ff ff 00 	movl   $0x0,-0x3680(%rbp)
    debf:	00 00 00 
    dec2:	e9 0c 0c 00 00       	jmpq   ead3 <func_22+0x2f07>
    dec7:	48 b8 0c 8b a3 8b 56 	movabs $0x6e89fe568ba38b0c,%rax
    dece:	fe 89 6e 
    ded1:	48 89 85 38 cc ff ff 	mov    %rax,-0x33c8(%rbp)
    ded8:	48 8b 05 d1 1f 01 00 	mov    0x11fd1(%rip),%rax        # 1feb0 <g_1748>
    dedf:	48 8b 15 d2 1f 01 00 	mov    0x11fd2(%rip),%rdx        # 1feb8 <g_1748+0x8>
    dee6:	8b 85 54 c9 ff ff    	mov    -0x36ac(%rbp),%eax
    deec:	0f b7 d8             	movzwl %ax,%ebx
    deef:	83 bd 54 c9 ff ff 00 	cmpl   $0x0,-0x36ac(%rbp)
    def6:	74 6a                	je     df62 <func_22+0x2396>
    def8:	8b 95 10 cb ff ff    	mov    -0x34f0(%rbp),%edx
    defe:	8b 85 10 cb ff ff    	mov    -0x34f0(%rbp),%eax
    df04:	0f b6 c0             	movzbl %al,%eax
    df07:	89 d6                	mov    %edx,%esi
    df09:	89 c7                	mov    %eax,%edi
    df0b:	e8 7d cd ff ff       	callq  ac8d <safe_rshift_func_uint8_t_u_s>
    df10:	0f b6 d0             	movzbl %al,%edx
    df13:	48 8b 85 20 cb ff ff 	mov    -0x34e0(%rbp),%rax
    df1a:	8b 00                	mov    (%rax),%eax
    df1c:	39 c2                	cmp    %eax,%edx
    df1e:	0f 94 c0             	sete   %al
    df21:	0f b6 d0             	movzbl %al,%edx
    df24:	48 8b 85 40 c9 ff ff 	mov    -0x36c0(%rbp),%rax
    df2b:	48 21 c2             	and    %rax,%rdx
    df2e:	48 8b 85 20 cb ff ff 	mov    -0x34e0(%rbp),%rax
    df35:	8b 00                	mov    (%rax),%eax
    df37:	48 98                	cltq   
    df39:	48 39 c2             	cmp    %rax,%rdx
    df3c:	0f 96 c0             	setbe  %al
    df3f:	0f b6 d0             	movzbl %al,%edx
    df42:	48 8b 85 d0 cb ff ff 	mov    -0x3430(%rbp),%rax
    df49:	48 89 10             	mov    %rdx,(%rax)
    df4c:	48 8b 85 d0 cb ff ff 	mov    -0x3430(%rbp),%rax
    df53:	48 8b 00             	mov    (%rax),%rax
    df56:	48 85 c0             	test   %rax,%rax
    df59:	74 07                	je     df62 <func_22+0x2396>
    df5b:	b8 01 00 00 00       	mov    $0x1,%eax
    df60:	eb 05                	jmp    df67 <func_22+0x239b>
    df62:	b8 00 00 00 00       	mov    $0x0,%eax
    df67:	0f b7 c0             	movzwl %ax,%eax
    df6a:	89 de                	mov    %ebx,%esi
    df6c:	89 c7                	mov    %eax,%edi
    df6e:	e8 1b ce ff ff       	callq  ad8e <safe_div_func_uint16_t_u_u>
    df73:	48 8b 85 40 c9 ff ff 	mov    -0x36c0(%rbp),%rax
    df7a:	48 83 f8 01          	cmp    $0x1,%rax
    df7e:	0f 94 c0             	sete   %al
    df81:	0f b6 c0             	movzbl %al,%eax
    df84:	48 39 85 38 cc ff ff 	cmp    %rax,-0x33c8(%rbp)
    df8b:	0f 96 c0             	setbe  %al
    df8e:	0f b6 d0             	movzbl %al,%edx
    df91:	48 8b 85 b0 cb ff ff 	mov    -0x3450(%rbp),%rax
    df98:	0f b7 00             	movzwl (%rax),%eax
    df9b:	31 c2                	xor    %eax,%edx
    df9d:	48 8b 85 b0 cb ff ff 	mov    -0x3450(%rbp),%rax
    dfa4:	66 89 10             	mov    %dx,(%rax)
    dfa7:	48 8b 85 b0 cb ff ff 	mov    -0x3450(%rbp),%rax
    dfae:	0f b7 00             	movzwl (%rax),%eax
    dfb1:	48 0f bf d0          	movswq %ax,%rdx
    dfb5:	48 8b 85 80 cf ff ff 	mov    -0x3080(%rbp),%rax
    dfbc:	48 39 c2             	cmp    %rax,%rdx
    dfbf:	0f 9d c0             	setge  %al
    dfc2:	0f b6 c0             	movzbl %al,%eax
    dfc5:	48 8b 95 48 c9 ff ff 	mov    -0x36b8(%rbp),%rdx
    dfcc:	21 d0                	and    %edx,%eax
    dfce:	0f bf d0             	movswl %ax,%edx
    dfd1:	48 8b 85 48 c9 ff ff 	mov    -0x36b8(%rbp),%rax
    dfd8:	98                   	cwtl   
    dfd9:	89 d6                	mov    %edx,%esi
    dfdb:	89 c7                	mov    %eax,%edi
    dfdd:	e8 13 c4 ff ff       	callq  a3f5 <safe_mul_func_int16_t_s_s>
    dfe2:	48 8d 05 ff 62 01 00 	lea    0x162ff(%rip),%rax        # 242e8 <g_328>
    dfe9:	48 89 85 40 cc ff ff 	mov    %rax,-0x33c0(%rbp)
    dff0:	48 8b 05 c9 1e 01 00 	mov    0x11ec9(%rip),%rax        # 1fec0 <g_1756>
    dff7:	48 8b 85 28 cf ff ff 	mov    -0x30d8(%rbp),%rax
    dffe:	48 85 c0             	test   %rax,%rax
    e001:	0f 95 c2             	setne  %dl
    e004:	48 8b 85 d8 ca ff ff 	mov    -0x3528(%rbp),%rax
    e00b:	48 85 c0             	test   %rax,%rax
    e00e:	0f 95 c0             	setne  %al
    e011:	31 d0                	xor    %edx,%eax
    e013:	0f b6 d0             	movzbl %al,%edx
    e016:	48 8b 85 20 cb ff ff 	mov    -0x34e0(%rbp),%rax
    e01d:	8b 00                	mov    (%rax),%eax
    e01f:	31 c2                	xor    %eax,%edx
    e021:	48 8b 85 20 cb ff ff 	mov    -0x34e0(%rbp),%rax
    e028:	89 10                	mov    %edx,(%rax)
    e02a:	48 8b 85 40 cc ff ff 	mov    -0x33c0(%rbp),%rax
    e031:	48 c7 00 00 00 00 00 	movq   $0x0,(%rax)
    e038:	48 8b 85 20 cb ff ff 	mov    -0x34e0(%rbp),%rax
    e03f:	8b 00                	mov    (%rax),%eax
    e041:	e9 22 56 00 00       	jmpq   13668 <func_22+0x7a9c>
    e046:	c7 85 f0 c9 ff ff 6b 	movl   $0x79b61d6b,-0x3610(%rbp)
    e04d:	1d b6 79 
    e050:	c6 85 6b c9 ff ff ff 	movb   $0xff,-0x3695(%rbp)
    e057:	c7 85 f4 c9 ff ff fc 	movl   $0xfffffffc,-0x360c(%rbp)
    e05e:	ff ff ff 
    e061:	c7 85 f8 c9 ff ff 00 	movl   $0x0,-0x3608(%rbp)
    e068:	00 00 00 
    e06b:	c7 85 fc c9 ff ff 7d 	movl   $0x23ac6e7d,-0x3604(%rbp)
    e072:	6e ac 23 
    e075:	c7 85 00 ca ff ff ff 	movl   $0xffffffff,-0x3600(%rbp)
    e07c:	ff ff ff 
    e07f:	c7 85 04 ca ff ff 41 	movl   $0xda15c741,-0x35fc(%rbp)
    e086:	c7 15 da 
    e089:	48 8d 85 74 c9 ff ff 	lea    -0x368c(%rbp),%rax
    e090:	48 89 85 48 cc ff ff 	mov    %rax,-0x33b8(%rbp)
    e097:	66 c7 05 d0 1d 01 00 	movw   $0x0,0x11dd0(%rip)        # 1fe70 <g_1495>
    e09e:	00 00 
    e0a0:	e9 ed 08 00 00       	jmpq   e992 <func_22+0x2dc6>
    e0a5:	48 8d 05 3d 16 01 00 	lea    0x1163d(%rip),%rax        # 1f6e9 <g_169>
    e0ac:	48 89 85 50 cc ff ff 	mov    %rax,-0x33b0(%rbp)
    e0b3:	c7 85 18 cb ff ff 94 	movl   $0x11b07a94,-0x34e8(%rbp)
    e0ba:	7a b0 11 
    e0bd:	48 8d 85 84 c9 ff ff 	lea    -0x367c(%rbp),%rax
    e0c4:	48 89 85 d0 f7 ff ff 	mov    %rax,-0x830(%rbp)
    e0cb:	48 8d 85 30 ce ff ff 	lea    -0x31d0(%rbp),%rax
    e0d2:	48 89 85 d8 f7 ff ff 	mov    %rax,-0x828(%rbp)
    e0d9:	48 8d 85 08 cb ff ff 	lea    -0x34f8(%rbp),%rax
    e0e0:	48 89 85 e0 f7 ff ff 	mov    %rax,-0x820(%rbp)
    e0e7:	48 c7 85 e8 f7 ff ff 	movq   $0x0,-0x818(%rbp)
    e0ee:	00 00 00 00 
    e0f2:	48 c7 85 f0 f7 ff ff 	movq   $0x0,-0x810(%rbp)
    e0f9:	00 00 00 00 
    e0fd:	48 8d 85 18 cb ff ff 	lea    -0x34e8(%rbp),%rax
    e104:	48 89 85 f8 f7 ff ff 	mov    %rax,-0x808(%rbp)
    e10b:	48 c7 85 00 f8 ff ff 	movq   $0x0,-0x800(%rbp)
    e112:	00 00 00 00 
    e116:	48 c7 85 08 f8 ff ff 	movq   $0x0,-0x7f8(%rbp)
    e11d:	00 00 00 00 
    e121:	48 8d 05 a4 0f 01 00 	lea    0x10fa4(%rip),%rax        # 1f0cc <g_7>
    e128:	48 89 85 10 f8 ff ff 	mov    %rax,-0x7f0(%rbp)
    e12f:	48 8d 85 7c c9 ff ff 	lea    -0x3684(%rbp),%rax
    e136:	48 89 85 18 f8 ff ff 	mov    %rax,-0x7e8(%rbp)
    e13d:	48 8d 85 88 c9 ff ff 	lea    -0x3678(%rbp),%rax
    e144:	48 89 85 20 f8 ff ff 	mov    %rax,-0x7e0(%rbp)
    e14b:	48 8d 85 18 cb ff ff 	lea    -0x34e8(%rbp),%rax
    e152:	48 89 85 28 f8 ff ff 	mov    %rax,-0x7d8(%rbp)
    e159:	48 8d 85 08 cb ff ff 	lea    -0x34f8(%rbp),%rax
    e160:	48 89 85 30 f8 ff ff 	mov    %rax,-0x7d0(%rbp)
    e167:	48 8d 85 84 c9 ff ff 	lea    -0x367c(%rbp),%rax
    e16e:	48 89 85 38 f8 ff ff 	mov    %rax,-0x7c8(%rbp)
    e175:	48 8d 85 30 ce ff ff 	lea    -0x31d0(%rbp),%rax
    e17c:	48 83 c0 20          	add    $0x20,%rax
    e180:	48 89 85 40 f8 ff ff 	mov    %rax,-0x7c0(%rbp)
    e187:	48 8d 85 88 c9 ff ff 	lea    -0x3678(%rbp),%rax
    e18e:	48 89 85 48 f8 ff ff 	mov    %rax,-0x7b8(%rbp)
    e195:	48 8d 85 80 c9 ff ff 	lea    -0x3680(%rbp),%rax
    e19c:	48 89 85 50 f8 ff ff 	mov    %rax,-0x7b0(%rbp)
    e1a3:	48 8d 85 7c c9 ff ff 	lea    -0x3684(%rbp),%rax
    e1aa:	48 89 85 58 f8 ff ff 	mov    %rax,-0x7a8(%rbp)
    e1b1:	48 8d 85 8c c9 ff ff 	lea    -0x3674(%rbp),%rax
    e1b8:	48 89 85 60 f8 ff ff 	mov    %rax,-0x7a0(%rbp)
    e1bf:	48 8d 05 02 61 01 00 	lea    0x16102(%rip),%rax        # 242c8 <g_3>
    e1c6:	48 89 85 68 f8 ff ff 	mov    %rax,-0x798(%rbp)
    e1cd:	48 8d 85 18 cb ff ff 	lea    -0x34e8(%rbp),%rax
    e1d4:	48 89 85 70 f8 ff ff 	mov    %rax,-0x790(%rbp)
    e1db:	48 8d 05 e6 60 01 00 	lea    0x160e6(%rip),%rax        # 242c8 <g_3>
    e1e2:	48 89 85 78 f8 ff ff 	mov    %rax,-0x788(%rbp)
    e1e9:	48 c7 85 80 f8 ff ff 	movq   $0x0,-0x780(%rbp)
    e1f0:	00 00 00 00 
    e1f4:	48 8d 85 84 c9 ff ff 	lea    -0x367c(%rbp),%rax
    e1fb:	48 89 85 88 f8 ff ff 	mov    %rax,-0x778(%rbp)
    e202:	48 c7 85 90 f8 ff ff 	movq   $0x0,-0x770(%rbp)
    e209:	00 00 00 00 
    e20d:	48 8d 85 84 c9 ff ff 	lea    -0x367c(%rbp),%rax
    e214:	48 89 85 98 f8 ff ff 	mov    %rax,-0x768(%rbp)
    e21b:	48 8d 05 a6 60 01 00 	lea    0x160a6(%rip),%rax        # 242c8 <g_3>
    e222:	48 89 85 a0 f8 ff ff 	mov    %rax,-0x760(%rbp)
    e229:	48 c7 85 a8 f8 ff ff 	movq   $0x0,-0x758(%rbp)
    e230:	00 00 00 00 
    e234:	48 8d 05 91 0e 01 00 	lea    0x10e91(%rip),%rax        # 1f0cc <g_7>
    e23b:	48 89 85 b0 f8 ff ff 	mov    %rax,-0x750(%rbp)
    e242:	48 8d 85 7c c9 ff ff 	lea    -0x3684(%rbp),%rax
    e249:	48 89 85 b8 f8 ff ff 	mov    %rax,-0x748(%rbp)
    e250:	48 8d 85 18 cb ff ff 	lea    -0x34e8(%rbp),%rax
    e257:	48 89 85 c0 f8 ff ff 	mov    %rax,-0x740(%rbp)
    e25e:	48 8d 85 80 c9 ff ff 	lea    -0x3680(%rbp),%rax
    e265:	48 89 85 c8 f8 ff ff 	mov    %rax,-0x738(%rbp)
    e26c:	48 8d 05 55 60 01 00 	lea    0x16055(%rip),%rax        # 242c8 <g_3>
    e273:	48 89 85 d0 f8 ff ff 	mov    %rax,-0x730(%rbp)
    e27a:	48 c7 85 d8 f8 ff ff 	movq   $0x0,-0x728(%rbp)
    e281:	00 00 00 00 
    e285:	48 c7 85 e0 f8 ff ff 	movq   $0x0,-0x720(%rbp)
    e28c:	00 00 00 00 
    e290:	48 8d 85 80 c9 ff ff 	lea    -0x3680(%rbp),%rax
    e297:	48 89 85 e8 f8 ff ff 	mov    %rax,-0x718(%rbp)
    e29e:	48 8d 85 18 cb ff ff 	lea    -0x34e8(%rbp),%rax
    e2a5:	48 89 85 f0 f8 ff ff 	mov    %rax,-0x710(%rbp)
    e2ac:	48 8d 05 15 60 01 00 	lea    0x16015(%rip),%rax        # 242c8 <g_3>
    e2b3:	48 89 85 f8 f8 ff ff 	mov    %rax,-0x708(%rbp)
    e2ba:	48 8d 85 10 cb ff ff 	lea    -0x34f0(%rbp),%rax
    e2c1:	48 89 85 00 f9 ff ff 	mov    %rax,-0x700(%rbp)
    e2c8:	48 8d 05 f9 5f 01 00 	lea    0x15ff9(%rip),%rax        # 242c8 <g_3>
    e2cf:	48 89 85 08 f9 ff ff 	mov    %rax,-0x6f8(%rbp)
    e2d6:	48 c7 85 10 f9 ff ff 	movq   $0x0,-0x6f0(%rbp)
    e2dd:	00 00 00 00 
    e2e1:	48 c7 85 18 f9 ff ff 	movq   $0x0,-0x6e8(%rbp)
    e2e8:	00 00 00 00 
    e2ec:	48 c7 85 20 f9 ff ff 	movq   $0x0,-0x6e0(%rbp)
    e2f3:	00 00 00 00 
    e2f7:	48 c7 85 28 f9 ff ff 	movq   $0x0,-0x6d8(%rbp)
    e2fe:	00 00 00 00 
    e302:	48 8d 85 30 ce ff ff 	lea    -0x31d0(%rbp),%rax
    e309:	48 83 c0 20          	add    $0x20,%rax
    e30d:	48 89 85 30 f9 ff ff 	mov    %rax,-0x6d0(%rbp)
    e314:	48 8d 85 80 c9 ff ff 	lea    -0x3680(%rbp),%rax
    e31b:	48 89 85 38 f9 ff ff 	mov    %rax,-0x6c8(%rbp)
    e322:	48 8d 85 30 ce ff ff 	lea    -0x31d0(%rbp),%rax
    e329:	48 89 85 40 f9 ff ff 	mov    %rax,-0x6c0(%rbp)
    e330:	48 c7 85 48 f9 ff ff 	movq   $0x0,-0x6b8(%rbp)
    e337:	00 00 00 00 
    e33b:	48 c7 85 50 f9 ff ff 	movq   $0x0,-0x6b0(%rbp)
    e342:	00 00 00 00 
    e346:	48 8d 85 7c c9 ff ff 	lea    -0x3684(%rbp),%rax
    e34d:	48 89 85 58 f9 ff ff 	mov    %rax,-0x6a8(%rbp)
    e354:	48 8d 85 18 cb ff ff 	lea    -0x34e8(%rbp),%rax
    e35b:	48 89 85 60 f9 ff ff 	mov    %rax,-0x6a0(%rbp)
    e362:	48 8d 85 74 c9 ff ff 	lea    -0x368c(%rbp),%rax
    e369:	48 89 85 68 f9 ff ff 	mov    %rax,-0x698(%rbp)
    e370:	48 8d 85 7c c9 ff ff 	lea    -0x3684(%rbp),%rax
    e377:	48 89 85 70 f9 ff ff 	mov    %rax,-0x690(%rbp)
    e37e:	48 8d 85 10 cb ff ff 	lea    -0x34f0(%rbp),%rax
    e385:	48 89 85 78 f9 ff ff 	mov    %rax,-0x688(%rbp)
    e38c:	48 c7 85 80 f9 ff ff 	movq   $0x0,-0x680(%rbp)
    e393:	00 00 00 00 
    e397:	48 8d 85 84 c9 ff ff 	lea    -0x367c(%rbp),%rax
    e39e:	48 89 85 88 f9 ff ff 	mov    %rax,-0x678(%rbp)
    e3a5:	48 8d 85 30 ce ff ff 	lea    -0x31d0(%rbp),%rax
    e3ac:	48 89 85 90 f9 ff ff 	mov    %rax,-0x670(%rbp)
    e3b3:	48 8d 85 08 cb ff ff 	lea    -0x34f8(%rbp),%rax
    e3ba:	48 89 85 98 f9 ff ff 	mov    %rax,-0x668(%rbp)
    e3c1:	48 c7 85 a0 f9 ff ff 	movq   $0x0,-0x660(%rbp)
    e3c8:	00 00 00 00 
    e3cc:	48 c7 85 a8 f9 ff ff 	movq   $0x0,-0x658(%rbp)
    e3d3:	00 00 00 00 
    e3d7:	48 8d 85 18 cb ff ff 	lea    -0x34e8(%rbp),%rax
    e3de:	48 89 85 b0 f9 ff ff 	mov    %rax,-0x650(%rbp)
    e3e5:	48 c7 85 b8 f9 ff ff 	movq   $0x0,-0x648(%rbp)
    e3ec:	00 00 00 00 
    e3f0:	48 c7 85 c0 f9 ff ff 	movq   $0x0,-0x640(%rbp)
    e3f7:	00 00 00 00 
    e3fb:	48 8d 05 ca 0c 01 00 	lea    0x10cca(%rip),%rax        # 1f0cc <g_7>
    e402:	48 89 85 c8 f9 ff ff 	mov    %rax,-0x638(%rbp)
    e409:	48 8d 85 7c c9 ff ff 	lea    -0x3684(%rbp),%rax
    e410:	48 89 85 d0 f9 ff ff 	mov    %rax,-0x630(%rbp)
    e417:	48 8d 85 88 c9 ff ff 	lea    -0x3678(%rbp),%rax
    e41e:	48 89 85 d8 f9 ff ff 	mov    %rax,-0x628(%rbp)
    e425:	48 8d 85 18 cb ff ff 	lea    -0x34e8(%rbp),%rax
    e42c:	48 89 85 e0 f9 ff ff 	mov    %rax,-0x620(%rbp)
    e433:	48 8d 85 08 cb ff ff 	lea    -0x34f8(%rbp),%rax
    e43a:	48 89 85 e8 f9 ff ff 	mov    %rax,-0x618(%rbp)
    e441:	48 8d 85 84 c9 ff ff 	lea    -0x367c(%rbp),%rax
    e448:	48 89 85 f0 f9 ff ff 	mov    %rax,-0x610(%rbp)
    e44f:	48 8d 85 30 ce ff ff 	lea    -0x31d0(%rbp),%rax
    e456:	48 83 c0 20          	add    $0x20,%rax
    e45a:	48 89 85 f8 f9 ff ff 	mov    %rax,-0x608(%rbp)
    e461:	48 8d 85 88 c9 ff ff 	lea    -0x3678(%rbp),%rax
    e468:	48 89 85 00 fa ff ff 	mov    %rax,-0x600(%rbp)
    e46f:	48 8d 85 80 c9 ff ff 	lea    -0x3680(%rbp),%rax
    e476:	48 89 85 08 fa ff ff 	mov    %rax,-0x5f8(%rbp)
    e47d:	48 8d 85 7c c9 ff ff 	lea    -0x3684(%rbp),%rax
    e484:	48 89 85 10 fa ff ff 	mov    %rax,-0x5f0(%rbp)
    e48b:	48 8d 85 8c c9 ff ff 	lea    -0x3674(%rbp),%rax
    e492:	48 89 85 18 fa ff ff 	mov    %rax,-0x5e8(%rbp)
    e499:	48 8d 05 28 5e 01 00 	lea    0x15e28(%rip),%rax        # 242c8 <g_3>
    e4a0:	48 89 85 20 fa ff ff 	mov    %rax,-0x5e0(%rbp)
    e4a7:	48 8d 85 18 cb ff ff 	lea    -0x34e8(%rbp),%rax
    e4ae:	48 89 85 28 fa ff ff 	mov    %rax,-0x5d8(%rbp)
    e4b5:	48 8d 05 0c 5e 01 00 	lea    0x15e0c(%rip),%rax        # 242c8 <g_3>
    e4bc:	48 89 85 30 fa ff ff 	mov    %rax,-0x5d0(%rbp)
    e4c3:	48 c7 85 38 fa ff ff 	movq   $0x0,-0x5c8(%rbp)
    e4ca:	00 00 00 00 
    e4ce:	48 8d 85 84 c9 ff ff 	lea    -0x367c(%rbp),%rax
    e4d5:	48 89 85 40 fa ff ff 	mov    %rax,-0x5c0(%rbp)
    e4dc:	48 c7 85 48 fa ff ff 	movq   $0x0,-0x5b8(%rbp)
    e4e3:	00 00 00 00 
    e4e7:	48 8d 85 84 c9 ff ff 	lea    -0x367c(%rbp),%rax
    e4ee:	48 89 85 50 fa ff ff 	mov    %rax,-0x5b0(%rbp)
    e4f5:	48 8d 05 cc 5d 01 00 	lea    0x15dcc(%rip),%rax        # 242c8 <g_3>
    e4fc:	48 89 85 58 fa ff ff 	mov    %rax,-0x5a8(%rbp)
    e503:	48 c7 85 60 fa ff ff 	movq   $0x0,-0x5a0(%rbp)
    e50a:	00 00 00 00 
    e50e:	48 8d 05 b7 0b 01 00 	lea    0x10bb7(%rip),%rax        # 1f0cc <g_7>
    e515:	48 89 85 68 fa ff ff 	mov    %rax,-0x598(%rbp)
    e51c:	48 8d 85 7c c9 ff ff 	lea    -0x3684(%rbp),%rax
    e523:	48 89 85 70 fa ff ff 	mov    %rax,-0x590(%rbp)
    e52a:	48 8d 85 18 cb ff ff 	lea    -0x34e8(%rbp),%rax
    e531:	48 89 85 78 fa ff ff 	mov    %rax,-0x588(%rbp)
    e538:	48 8d 85 80 c9 ff ff 	lea    -0x3680(%rbp),%rax
    e53f:	48 89 85 80 fa ff ff 	mov    %rax,-0x580(%rbp)
    e546:	48 8d 05 7b 5d 01 00 	lea    0x15d7b(%rip),%rax        # 242c8 <g_3>
    e54d:	48 89 85 88 fa ff ff 	mov    %rax,-0x578(%rbp)
    e554:	48 c7 85 90 fa ff ff 	movq   $0x0,-0x570(%rbp)
    e55b:	00 00 00 00 
    e55f:	48 c7 85 98 fa ff ff 	movq   $0x0,-0x568(%rbp)
    e566:	00 00 00 00 
    e56a:	48 8d 85 80 c9 ff ff 	lea    -0x3680(%rbp),%rax
    e571:	48 89 85 a0 fa ff ff 	mov    %rax,-0x560(%rbp)
    e578:	48 8d 85 18 cb ff ff 	lea    -0x34e8(%rbp),%rax
    e57f:	48 89 85 a8 fa ff ff 	mov    %rax,-0x558(%rbp)
    e586:	48 8d 05 3b 5d 01 00 	lea    0x15d3b(%rip),%rax        # 242c8 <g_3>
    e58d:	48 89 85 b0 fa ff ff 	mov    %rax,-0x550(%rbp)
    e594:	48 8d 85 10 cb ff ff 	lea    -0x34f0(%rbp),%rax
    e59b:	48 89 85 b8 fa ff ff 	mov    %rax,-0x548(%rbp)
    e5a2:	48 8d 05 1f 5d 01 00 	lea    0x15d1f(%rip),%rax        # 242c8 <g_3>
    e5a9:	48 89 85 c0 fa ff ff 	mov    %rax,-0x540(%rbp)
    e5b0:	48 c7 85 c8 fa ff ff 	movq   $0x0,-0x538(%rbp)
    e5b7:	00 00 00 00 
    e5bb:	48 c7 85 d0 fa ff ff 	movq   $0x0,-0x530(%rbp)
    e5c2:	00 00 00 00 
    e5c6:	48 c7 85 d8 fa ff ff 	movq   $0x0,-0x528(%rbp)
    e5cd:	00 00 00 00 
    e5d1:	48 c7 85 e0 fa ff ff 	movq   $0x0,-0x520(%rbp)
    e5d8:	00 00 00 00 
    e5dc:	48 8d 85 30 ce ff ff 	lea    -0x31d0(%rbp),%rax
    e5e3:	48 83 c0 20          	add    $0x20,%rax
    e5e7:	48 89 85 e8 fa ff ff 	mov    %rax,-0x518(%rbp)
    e5ee:	48 8d 85 80 c9 ff ff 	lea    -0x3680(%rbp),%rax
    e5f5:	48 89 85 f0 fa ff ff 	mov    %rax,-0x510(%rbp)
    e5fc:	48 8d 85 30 ce ff ff 	lea    -0x31d0(%rbp),%rax
    e603:	48 89 85 f8 fa ff ff 	mov    %rax,-0x508(%rbp)
    e60a:	48 c7 85 00 fb ff ff 	movq   $0x0,-0x500(%rbp)
    e611:	00 00 00 00 
    e615:	48 c7 85 08 fb ff ff 	movq   $0x0,-0x4f8(%rbp)
    e61c:	00 00 00 00 
    e620:	48 8d 85 7c c9 ff ff 	lea    -0x3684(%rbp),%rax
    e627:	48 89 85 10 fb ff ff 	mov    %rax,-0x4f0(%rbp)
    e62e:	48 8d 85 18 cb ff ff 	lea    -0x34e8(%rbp),%rax
    e635:	48 89 85 18 fb ff ff 	mov    %rax,-0x4e8(%rbp)
    e63c:	48 8d 85 74 c9 ff ff 	lea    -0x368c(%rbp),%rax
    e643:	48 89 85 20 fb ff ff 	mov    %rax,-0x4e0(%rbp)
    e64a:	48 8d 85 7c c9 ff ff 	lea    -0x3684(%rbp),%rax
    e651:	48 89 85 28 fb ff ff 	mov    %rax,-0x4d8(%rbp)
    e658:	48 8d 85 10 cb ff ff 	lea    -0x34f0(%rbp),%rax
    e65f:	48 89 85 30 fb ff ff 	mov    %rax,-0x4d0(%rbp)
    e666:	48 c7 85 38 fb ff ff 	movq   $0x0,-0x4c8(%rbp)
    e66d:	00 00 00 00 
    e671:	48 8d 85 84 c9 ff ff 	lea    -0x367c(%rbp),%rax
    e678:	48 89 85 40 fb ff ff 	mov    %rax,-0x4c0(%rbp)
    e67f:	48 8d 05 42 5c 01 00 	lea    0x15c42(%rip),%rax        # 242c8 <g_3>
    e686:	48 89 85 48 fb ff ff 	mov    %rax,-0x4b8(%rbp)
    e68d:	48 8d 85 08 cb ff ff 	lea    -0x34f8(%rbp),%rax
    e694:	48 89 85 50 fb ff ff 	mov    %rax,-0x4b0(%rbp)
    e69b:	48 c7 85 58 fb ff ff 	movq   $0x0,-0x4a8(%rbp)
    e6a2:	00 00 00 00 
    e6a6:	48 8d 85 00 cb ff ff 	lea    -0x3500(%rbp),%rax
    e6ad:	48 89 85 60 fb ff ff 	mov    %rax,-0x4a0(%rbp)
    e6b4:	48 c7 85 68 fb ff ff 	movq   $0x0,-0x498(%rbp)
    e6bb:	00 00 00 00 
    e6bf:	48 c7 85 70 fb ff ff 	movq   $0x0,-0x490(%rbp)
    e6c6:	00 00 00 00 
    e6ca:	48 8d 85 30 ce ff ff 	lea    -0x31d0(%rbp),%rax
    e6d1:	48 89 85 78 fb ff ff 	mov    %rax,-0x488(%rbp)
    e6d8:	48 c7 85 80 fb ff ff 	movq   $0x0,-0x480(%rbp)
    e6df:	00 00 00 00 
    e6e3:	48 8d 85 08 cb ff ff 	lea    -0x34f8(%rbp),%rax
    e6ea:	48 89 85 88 fb ff ff 	mov    %rax,-0x478(%rbp)
    e6f1:	48 c7 85 90 fb ff ff 	movq   $0x0,-0x470(%rbp)
    e6f8:	00 00 00 00 
    e6fc:	48 c7 85 98 fb ff ff 	movq   $0x0,-0x468(%rbp)
    e703:	00 00 00 00 
    e707:	48 8d 85 08 cb ff ff 	lea    -0x34f8(%rbp),%rax
    e70e:	48 89 85 a0 fb ff ff 	mov    %rax,-0x460(%rbp)
    e715:	48 8d 05 b0 09 01 00 	lea    0x109b0(%rip),%rax        # 1f0cc <g_7>
    e71c:	48 89 85 a8 fb ff ff 	mov    %rax,-0x458(%rbp)
    e723:	48 8d 85 84 c9 ff ff 	lea    -0x367c(%rbp),%rax
    e72a:	48 89 85 b0 fb ff ff 	mov    %rax,-0x450(%rbp)
    e731:	48 c7 85 b8 fb ff ff 	movq   $0x0,-0x448(%rbp)
    e738:	00 00 00 00 
    e73c:	48 8d 85 f8 ca ff ff 	lea    -0x3508(%rbp),%rax
    e743:	48 89 85 c0 fb ff ff 	mov    %rax,-0x440(%rbp)
    e74a:	48 8d 85 08 cb ff ff 	lea    -0x34f8(%rbp),%rax
    e751:	48 89 85 c8 fb ff ff 	mov    %rax,-0x438(%rbp)
    e758:	48 c7 85 d0 fb ff ff 	movq   $0x0,-0x430(%rbp)
    e75f:	00 00 00 00 
    e763:	48 8d 85 00 cb ff ff 	lea    -0x3500(%rbp),%rax
    e76a:	48 89 85 d8 fb ff ff 	mov    %rax,-0x428(%rbp)
    e771:	48 c7 85 e0 fb ff ff 	movq   $0x0,-0x420(%rbp)
    e778:	00 00 00 00 
    e77c:	48 c7 85 e8 fb ff ff 	movq   $0x0,-0x418(%rbp)
    e783:	00 00 00 00 
    e787:	48 c7 85 f0 fb ff ff 	movq   $0x0,-0x410(%rbp)
    e78e:	00 00 00 00 
    e792:	48 8d 05 33 09 01 00 	lea    0x10933(%rip),%rax        # 1f0cc <g_7>
    e799:	48 89 85 f8 fb ff ff 	mov    %rax,-0x408(%rbp)
    e7a0:	48 8d 85 30 ce ff ff 	lea    -0x31d0(%rbp),%rax
    e7a7:	48 89 85 00 fc ff ff 	mov    %rax,-0x400(%rbp)
    e7ae:	48 8d 85 7c c9 ff ff 	lea    -0x3684(%rbp),%rax
    e7b5:	48 89 85 08 fc ff ff 	mov    %rax,-0x3f8(%rbp)
    e7bc:	48 c7 85 10 fc ff ff 	movq   $0x0,-0x3f0(%rbp)
    e7c3:	00 00 00 00 
    e7c7:	48 8d 85 10 cb ff ff 	lea    -0x34f0(%rbp),%rax
    e7ce:	48 89 85 18 fc ff ff 	mov    %rax,-0x3e8(%rbp)
    e7d5:	48 c7 85 20 fc ff ff 	movq   $0x0,-0x3e0(%rbp)
    e7dc:	00 00 00 00 
    e7e0:	48 8d 85 10 cb ff ff 	lea    -0x34f0(%rbp),%rax
    e7e7:	48 89 85 28 fc ff ff 	mov    %rax,-0x3d8(%rbp)
    e7ee:	48 8d 85 7c c9 ff ff 	lea    -0x3684(%rbp),%rax
    e7f5:	48 89 85 30 fc ff ff 	mov    %rax,-0x3d0(%rbp)
    e7fc:	48 8d 85 f8 ca ff ff 	lea    -0x3508(%rbp),%rax
    e803:	48 89 85 38 fc ff ff 	mov    %rax,-0x3c8(%rbp)
    e80a:	48 8d 85 00 cb ff ff 	lea    -0x3500(%rbp),%rax
    e811:	48 89 85 40 fc ff ff 	mov    %rax,-0x3c0(%rbp)
    e818:	48 c7 85 48 fc ff ff 	movq   $0x0,-0x3b8(%rbp)
    e81f:	00 00 00 00 
    e823:	48 8d 85 30 ce ff ff 	lea    -0x31d0(%rbp),%rax
    e82a:	48 89 85 50 fc ff ff 	mov    %rax,-0x3b0(%rbp)
    e831:	48 8d 85 f8 ca ff ff 	lea    -0x3508(%rbp),%rax
    e838:	48 89 85 58 fc ff ff 	mov    %rax,-0x3a8(%rbp)
    e83f:	48 c7 85 60 fc ff ff 	movq   $0x0,-0x3a0(%rbp)
    e846:	00 00 00 00 
    e84a:	48 8d 85 00 cb ff ff 	lea    -0x3500(%rbp),%rax
    e851:	48 89 85 68 fc ff ff 	mov    %rax,-0x398(%rbp)
    e858:	48 c7 85 70 fc ff ff 	movq   $0x0,-0x390(%rbp)
    e85f:	00 00 00 00 
    e863:	48 8d 85 00 cb ff ff 	lea    -0x3500(%rbp),%rax
    e86a:	48 89 85 78 fc ff ff 	mov    %rax,-0x388(%rbp)
    e871:	48 8b 85 20 cb ff ff 	mov    -0x34e0(%rbp),%rax
    e878:	8b 95 f0 c9 ff ff    	mov    -0x3610(%rbp),%edx
    e87e:	89 10                	mov    %edx,(%rax)
    e880:	8b 85 f0 c9 ff ff    	mov    -0x3610(%rbp),%eax
    e886:	0f bf d8             	movswl %ax,%ebx
    e889:	48 8b 85 20 cb ff ff 	mov    -0x34e0(%rbp),%rax
    e890:	8b 00                	mov    (%rax),%eax
    e892:	41 89 c4             	mov    %eax,%r12d
    e895:	be 0c 00 00 00       	mov    $0xc,%esi
    e89a:	bf 04 00 00 00       	mov    $0x4,%edi
    e89f:	e8 a4 c5 ff ff       	callq  ae48 <safe_rshift_func_uint16_t_u_s>
    e8a4:	0f b7 c0             	movzwl %ax,%eax
    e8a7:	44 89 e6             	mov    %r12d,%esi
    e8aa:	89 c7                	mov    %eax,%edi
    e8ac:	e8 55 c5 ff ff       	callq  ae06 <safe_lshift_func_uint16_t_u_u>
    e8b1:	48 83 bd c0 cb ff ff 	cmpq   $0x0,-0x3440(%rbp)
    e8b8:	00 
    e8b9:	74 0c                	je     e8c7 <func_22+0x2cfb>
    e8bb:	48 8b 85 40 c9 ff ff 	mov    -0x36c0(%rbp),%rax
    e8c2:	48 85 c0             	test   %rax,%rax
    e8c5:	74 07                	je     e8ce <func_22+0x2d02>
    e8c7:	b8 01 00 00 00       	mov    $0x1,%eax
    e8cc:	eb 05                	jmp    e8d3 <func_22+0x2d07>
    e8ce:	b8 00 00 00 00       	mov    $0x0,%eax
    e8d3:	0f b6 c0             	movzbl %al,%eax
    e8d6:	be 6d 00 00 00       	mov    $0x6d,%esi
    e8db:	89 c7                	mov    %eax,%edi
    e8dd:	e8 f9 c2 ff ff       	callq  abdb <safe_div_func_uint8_t_u_u>
    e8e2:	0f b6 d0             	movzbl %al,%edx
    e8e5:	48 8b 85 48 c9 ff ff 	mov    -0x36b8(%rbp),%rax
    e8ec:	48 39 c2             	cmp    %rax,%rdx
    e8ef:	0f 9e c0             	setle  %al
    e8f2:	0f b6 d0             	movzbl %al,%edx
    e8f5:	48 8b 85 d0 cb ff ff 	mov    -0x3430(%rbp),%rax
    e8fc:	48 89 10             	mov    %rdx,(%rax)
    e8ff:	48 8b 85 d0 cb ff ff 	mov    -0x3430(%rbp),%rax
    e906:	48 8b 10             	mov    (%rax),%rdx
    e909:	48 0f be 85 6b c9 ff 	movsbq -0x3695(%rbp),%rax
    e910:	ff 
    e911:	48 39 c2             	cmp    %rax,%rdx
    e914:	0f 9c c0             	setl   %al
    e917:	0f b6 c0             	movzbl %al,%eax
    e91a:	be 65 bc ff ff       	mov    $0xffffbc65,%esi
    e91f:	89 c7                	mov    %eax,%edi
    e921:	e8 2f bb ff ff       	callq  a455 <safe_div_func_int16_t_s_s>
    e926:	bf 00 00 00 00       	mov    $0x0,%edi
    e92b:	e8 6d ba ff ff       	callq  a39d <safe_unary_minus_func_int16_t_s>
    e930:	48 8b 95 38 c9 ff ff 	mov    -0x36c8(%rbp),%rdx
    e937:	0f b6 12             	movzbl (%rdx),%edx
    e93a:	66 0f be d2          	movsbw %dl,%dx
    e93e:	66 39 d0             	cmp    %dx,%ax
    e941:	0f 9c c0             	setl   %al
    e944:	0f b6 c0             	movzbl %al,%eax
    e947:	89 de                	mov    %ebx,%esi
    e949:	89 c7                	mov    %eax,%edi
    e94b:	e8 05 bb ff ff       	callq  a455 <safe_div_func_int16_t_s_s>
    e950:	0f bf d0             	movswl %ax,%edx
    e953:	8b 85 18 cb ff ff    	mov    -0x34e8(%rbp),%eax
    e959:	39 c2                	cmp    %eax,%edx
    e95b:	0f 9c c0             	setl   %al
    e95e:	0f b6 d0             	movzbl %al,%edx
    e961:	48 8b 05 10 08 01 00 	mov    0x10810(%rip),%rax        # 1f178 <g_94+0x98>
    e968:	48 39 c2             	cmp    %rax,%rdx
    e96b:	0f 97 c2             	seta   %dl
    e96e:	48 8b 85 58 c9 ff ff 	mov    -0x36a8(%rbp),%rax
    e975:	0f b6 d2             	movzbl %dl,%edx
    e978:	89 10                	mov    %edx,(%rax)
    e97a:	83 85 b8 c9 ff ff 01 	addl   $0x1,-0x3648(%rbp)
    e981:	0f b7 05 e8 14 01 00 	movzwl 0x114e8(%rip),%eax        # 1fe70 <g_1495>
    e988:	83 c0 01             	add    $0x1,%eax
    e98b:	66 89 05 de 14 01 00 	mov    %ax,0x114de(%rip)        # 1fe70 <g_1495>
    e992:	0f b7 05 d7 14 01 00 	movzwl 0x114d7(%rip),%eax        # 1fe70 <g_1495>
    e999:	66 83 f8 03          	cmp    $0x3,%ax
    e99d:	0f 8e 02 f7 ff ff    	jle    e0a5 <func_22+0x24d9>
    e9a3:	0f b7 05 d0 a8 00 00 	movzwl 0xa8d0(%rip),%eax        # 1927a <g_995>
    e9aa:	44 0f bf e8          	movswl %ax,%r13d
    e9ae:	48 8b 85 38 c9 ff ff 	mov    -0x36c8(%rbp),%rax
    e9b5:	0f b6 00             	movzbl (%rax),%eax
    e9b8:	0f be d8             	movsbl %al,%ebx
    e9bb:	48 8b 85 38 c9 ff ff 	mov    -0x36c8(%rbp),%rax
    e9c2:	0f b6 00             	movzbl (%rax),%eax
    e9c5:	44 0f be e0          	movsbl %al,%r12d
    e9c9:	48 8b 85 58 c9 ff ff 	mov    -0x36a8(%rbp),%rax
    e9d0:	8b 00                	mov    (%rax),%eax
    e9d2:	4c 63 f0             	movslq %eax,%r14
    e9d5:	48 c7 c6 ff ff ff ff 	mov    $0xffffffffffffffff,%rsi
    e9dc:	bf 00 00 00 00       	mov    $0x0,%edi
    e9e1:	e8 9a c6 ff ff       	callq  b080 <safe_mod_func_uint64_t_u_u>
    e9e6:	49 39 c6             	cmp    %rax,%r14
    e9e9:	0f 97 c0             	seta   %al
    e9ec:	0f b6 c0             	movzbl %al,%eax
    e9ef:	39 85 54 c9 ff ff    	cmp    %eax,-0x36ac(%rbp)
    e9f5:	0f 9d c0             	setge  %al
    e9f8:	0f b6 c8             	movzbl %al,%ecx
    e9fb:	48 8d 05 ae 4b 01 00 	lea    0x14bae(%rip),%rax        # 235b0 <g_1441>
    ea02:	48 39 85 28 cb ff ff 	cmp    %rax,-0x34d8(%rbp)
    ea09:	0f 94 c0             	sete   %al
    ea0c:	0f b6 c0             	movzbl %al,%eax
    ea0f:	0b 85 f0 c9 ff ff    	or     -0x3610(%rbp),%eax
    ea15:	89 c2                	mov    %eax,%edx
    ea17:	48 8b 85 20 cb ff ff 	mov    -0x34e0(%rbp),%rax
    ea1e:	8b 00                	mov    (%rax),%eax
    ea20:	31 c1                	xor    %eax,%ecx
    ea22:	48 8b 85 20 cb ff ff 	mov    -0x34e0(%rbp),%rax
    ea29:	89 08                	mov    %ecx,(%rax)
    ea2b:	48 8b 85 20 cb ff ff 	mov    -0x34e0(%rbp),%rax
    ea32:	8b 00                	mov    (%rax),%eax
    ea34:	39 c2                	cmp    %eax,%edx
    ea36:	0f 9f c0             	setg   %al
    ea39:	0f b6 c0             	movzbl %al,%eax
    ea3c:	44 89 e6             	mov    %r12d,%esi
    ea3f:	89 c7                	mov    %eax,%edi
    ea41:	e8 47 c2 ff ff       	callq  ac8d <safe_rshift_func_uint8_t_u_s>
    ea46:	0f be c0             	movsbl %al,%eax
    ea49:	89 de                	mov    %ebx,%esi
    ea4b:	89 c7                	mov    %eax,%edi
    ea4d:	e8 c0 b7 ff ff       	callq  a212 <safe_mul_func_int8_t_s_s>
    ea52:	66 98                	cbtw   
    ea54:	0f b7 d0             	movzwl %ax,%edx
    ea57:	48 8b 05 6a 3b 01 00 	mov    0x13b6a(%rip),%rax        # 225c8 <g_840>
    ea5e:	48 39 85 d8 cb ff ff 	cmp    %rax,-0x3428(%rbp)
    ea65:	0f 94 c0             	sete   %al
    ea68:	0f b6 c8             	movzbl %al,%ecx
    ea6b:	48 8b 85 38 c9 ff ff 	mov    -0x36c8(%rbp),%rax
    ea72:	0f b6 00             	movzbl (%rax),%eax
    ea75:	0f be c0             	movsbl %al,%eax
    ea78:	39 c1                	cmp    %eax,%ecx
    ea7a:	0f 9d c0             	setge  %al
    ea7d:	0f b6 c0             	movzbl %al,%eax
    ea80:	89 d6                	mov    %edx,%esi
    ea82:	89 c7                	mov    %eax,%edi
    ea84:	e8 96 c2 ff ff       	callq  ad1f <safe_sub_func_uint16_t_u_u>
    ea89:	0f b7 c0             	movzwl %ax,%eax
    ea8c:	39 85 dc c9 ff ff    	cmp    %eax,-0x3624(%rbp)
    ea92:	0f 9e c0             	setle  %al
    ea95:	0f b6 c0             	movzbl %al,%eax
    ea98:	44 31 e8             	xor    %r13d,%eax
    ea9b:	3d 09 73 00 00       	cmp    $0x7309,%eax
    eaa0:	0f 9e c0             	setle  %al
    eaa3:	0f b6 c0             	movzbl %al,%eax
    eaa6:	48 89 c7             	mov    %rax,%rdi
    eaa9:	e8 6b c5 ff ff       	callq  b019 <safe_unary_minus_func_uint64_t_u>
    eaae:	48 8b 95 48 cc ff ff 	mov    -0x33b8(%rbp),%rdx
    eab5:	8b 12                	mov    (%rdx),%edx
    eab7:	21 d0                	and    %edx,%eax
    eab9:	89 c2                	mov    %eax,%edx
    eabb:	48 8b 85 48 cc ff ff 	mov    -0x33b8(%rbp),%rax
    eac2:	89 10                	mov    %edx,(%rax)
    eac4:	8b 85 80 c9 ff ff    	mov    -0x3680(%rbp),%eax
    eaca:	83 c0 01             	add    $0x1,%eax
    eacd:	89 85 80 c9 ff ff    	mov    %eax,-0x3680(%rbp)
    ead3:	8b 85 80 c9 ff ff    	mov    -0x3680(%rbp),%eax
    ead9:	83 f8 02             	cmp    $0x2,%eax
    eadc:	0f 8e 64 f5 ff ff    	jle    e046 <func_22+0x247a>
    eae2:	48 8b 85 58 c9 ff ff 	mov    -0x36a8(%rbp),%rax
    eae9:	8b 00                	mov    (%rax),%eax
    eaeb:	85 c0                	test   %eax,%eax
    eaed:	0f 85 ba 00 00 00    	jne    ebad <func_22+0x2fe1>
    eaf3:	c6 05 86 0c 01 00 02 	movb   $0x2,0x10c86(%rip)        # 1f780 <g_587>
    eafa:	90                   	nop
    eafb:	0f b6 05 7e 0c 01 00 	movzbl 0x10c7e(%rip),%eax        # 1f780 <g_587>
    eb02:	84 c0                	test   %al,%al
    eb04:	0f 88 83 00 00 00    	js     eb8d <func_22+0x2fc1>
    eb0a:	c7 85 08 ca ff ff 71 	movl   $0x284c8a71,-0x35f8(%rbp)
    eb11:	8a 4c 28 
    eb14:	c7 05 b6 0c 01 00 06 	movl   $0x6,0x10cb6(%rip)        # 1f7d4 <g_833+0x4>
    eb1b:	00 00 00 
    eb1e:	eb 58                	jmp    eb78 <func_22+0x2fac>
    eb20:	8b 95 54 c9 ff ff    	mov    -0x36ac(%rbp),%edx
    eb26:	48 8b 85 58 c9 ff ff 	mov    -0x36a8(%rbp),%rax
    eb2d:	8b 00                	mov    (%rax),%eax
    eb2f:	0f be c0             	movsbl %al,%eax
    eb32:	89 d6                	mov    %edx,%esi
    eb34:	89 c7                	mov    %eax,%edi
    eb36:	e8 31 b8 ff ff       	callq  a36c <safe_rshift_func_int8_t_s_u>
    eb3b:	0f be d0             	movsbl %al,%edx
    eb3e:	48 8b 85 20 cb ff ff 	mov    -0x34e0(%rbp),%rax
    eb45:	89 10                	mov    %edx,(%rax)
    eb47:	48 8b 85 58 c9 ff ff 	mov    -0x36a8(%rbp),%rax
    eb4e:	8b 00                	mov    (%rax),%eax
    eb50:	85 c0                	test   %eax,%eax
    eb52:	75 14                	jne    eb68 <func_22+0x2f9c>
    eb54:	48 8b 95 58 c9 ff ff 	mov    -0x36a8(%rbp),%rdx
    eb5b:	48 8b 85 58 c9 ff ff 	mov    -0x36a8(%rbp),%rax
    eb62:	8b 12                	mov    (%rdx),%edx
    eb64:	89 10                	mov    %edx,(%rax)
    eb66:	eb 01                	jmp    eb69 <func_22+0x2f9d>
    eb68:	90                   	nop
    eb69:	8b 05 65 0c 01 00    	mov    0x10c65(%rip),%eax        # 1f7d4 <g_833+0x4>
    eb6f:	83 e8 01             	sub    $0x1,%eax
    eb72:	89 05 5c 0c 01 00    	mov    %eax,0x10c5c(%rip)        # 1f7d4 <g_833+0x4>
    eb78:	8b 05 56 0c 01 00    	mov    0x10c56(%rip),%eax        # 1f7d4 <g_833+0x4>
    eb7e:	85 c0                	test   %eax,%eax
    eb80:	79 9e                	jns    eb20 <func_22+0x2f54>
    eb82:	8b 85 08 ca ff ff    	mov    -0x35f8(%rbp),%eax
    eb88:	e9 db 4a 00 00       	jmpq   13668 <func_22+0x7a9c>
    eb8d:	8b 05 71 0b 01 00    	mov    0x10b71(%rip),%eax        # 1f704 <g_264+0x4>
    eb93:	83 c0 01             	add    $0x1,%eax
    eb96:	89 05 68 0b 01 00    	mov    %eax,0x10b68(%rip)        # 1f704 <g_264+0x4>
    eb9c:	8b 05 62 0b 01 00    	mov    0x10b62(%rip),%eax        # 1f704 <g_264+0x4>
    eba2:	83 f8 02             	cmp    $0x2,%eax
    eba5:	0f 8e e9 d7 ff ff    	jle    c394 <func_22+0x7c8>
    ebab:	eb 01                	jmp    ebae <func_22+0x2fe2>
    ebad:	90                   	nop
    ebae:	48 c7 05 cf 0b 01 00 	movq   $0x0,0x10bcf(%rip)        # 1f788 <g_595>
    ebb5:	00 00 00 00 
    ebb9:	90                   	nop
    ebba:	48 8b 05 c7 0b 01 00 	mov    0x10bc7(%rip),%rax        # 1f788 <g_595>
    ebc1:	48 83 f8 01          	cmp    $0x1,%rax
    ebc5:	77 0e                	ja     ebd5 <func_22+0x3009>
    ebc7:	48 8b 85 58 c9 ff ff 	mov    -0x36a8(%rbp),%rax
    ebce:	8b 00                	mov    (%rax),%eax
    ebd0:	e9 93 4a 00 00       	jmpq   13668 <func_22+0x7a9c>
    ebd5:	66 c7 05 42 57 01 00 	movw   $0x3,0x15742(%rip)        # 24320 <g_1370>
    ebdc:	03 00 
    ebde:	e9 28 41 00 00       	jmpq   12d0b <func_22+0x713f>
    ebe3:	c7 85 88 c9 ff ff ff 	movl   $0xffffffff,-0x3678(%rbp)
    ebea:	ff ff ff 
    ebed:	48 8d 05 74 3d 01 00 	lea    0x13d74(%rip),%rax        # 22968 <g_978+0x308>
    ebf4:	48 89 85 d0 cc ff ff 	mov    %rax,-0x3330(%rbp)
    ebfb:	c7 85 28 ca ff ff 42 	movl   $0x7a44ef42,-0x35d8(%rbp)
    ec02:	ef 44 7a 
    ec05:	c7 85 2c ca ff ff 06 	movl   $0x6,-0x35d4(%rbp)
    ec0c:	00 00 00 
    ec0f:	c7 85 30 ca ff ff f7 	movl   $0xfffffff7,-0x35d0(%rbp)
    ec16:	ff ff ff 
    ec19:	c7 85 34 ca ff ff 54 	movl   $0x5bb07e54,-0x35cc(%rbp)
    ec20:	7e b0 5b 
    ec23:	c7 85 38 ca ff ff 27 	movl   $0x55f23427,-0x35c8(%rbp)
    ec2a:	34 f2 55 
    ec2d:	c6 05 a0 04 01 00 08 	movb   $0x8,0x104a0(%rip)        # 1f0d4 <g_93>
    ec34:	eb 68                	jmp    ec9e <func_22+0x30d2>
    ec36:	c7 85 64 ca ff ff 02 	movl   $0x2,-0x359c(%rbp)
    ec3d:	00 00 00 
    ec40:	c7 05 ba 0a 01 00 00 	movl   $0x0,0x10aba(%rip)        # 1f704 <g_264+0x4>
    ec47:	00 00 00 
    ec4a:	eb 2d                	jmp    ec79 <func_22+0x30ad>
    ec4c:	48 8b 85 20 cb ff ff 	mov    -0x34e0(%rbp),%rax
    ec53:	8b 10                	mov    (%rax),%edx
    ec55:	0f b6 05 9c cf 00 00 	movzbl 0xcf9c(%rip),%eax        # 1bbf8 <l_1809.4541+0xb8>
    ec5c:	0f be c0             	movsbl %al,%eax
    ec5f:	31 c2                	xor    %eax,%edx
    ec61:	48 8b 85 20 cb ff ff 	mov    -0x34e0(%rbp),%rax
    ec68:	89 10                	mov    %edx,(%rax)
    ec6a:	8b 05 94 0a 01 00    	mov    0x10a94(%rip),%eax        # 1f704 <g_264+0x4>
    ec70:	83 c0 01             	add    $0x1,%eax
    ec73:	89 05 8b 0a 01 00    	mov    %eax,0x10a8b(%rip)        # 1f704 <g_264+0x4>
    ec79:	8b 05 85 0a 01 00    	mov    0x10a85(%rip),%eax        # 1f704 <g_264+0x4>
    ec7f:	83 f8 08             	cmp    $0x8,%eax
    ec82:	7e c8                	jle    ec4c <func_22+0x3080>
    ec84:	81 a5 64 ca ff ff 4a 	andl   $0x5e77384a,-0x359c(%rbp)
    ec8b:	38 77 5e 
    ec8e:	0f b6 05 3f 04 01 00 	movzbl 0x1043f(%rip),%eax        # 1f0d4 <g_93>
    ec95:	83 e8 01             	sub    $0x1,%eax
    ec98:	88 05 36 04 01 00    	mov    %al,0x10436(%rip)        # 1f0d4 <g_93>
    ec9e:	0f b6 05 2f 04 01 00 	movzbl 0x1042f(%rip),%eax        # 1f0d4 <g_93>
    eca5:	84 c0                	test   %al,%al
    eca7:	79 8d                	jns    ec36 <func_22+0x306a>
    eca9:	48 c7 85 48 c9 ff ff 	movq   $0x0,-0x36b8(%rbp)
    ecb0:	00 00 00 00 
    ecb4:	e9 30 40 00 00       	jmpq   12ce9 <func_22+0x711d>
    ecb9:	48 8d 05 68 0a 01 00 	lea    0x10a68(%rip),%rax        # 1f728 <g_417>
    ecc0:	48 89 85 d8 cc ff ff 	mov    %rax,-0x3328(%rbp)
    ecc7:	48 8d 85 50 d0 ff ff 	lea    -0x2fb0(%rbp),%rax
    ecce:	48 05 60 01 00 00    	add    $0x160,%rax
    ecd4:	48 89 85 50 cf ff ff 	mov    %rax,-0x30b0(%rbp)
    ecdb:	48 8d 85 50 d0 ff ff 	lea    -0x2fb0(%rbp),%rax
    ece2:	48 05 60 01 00 00    	add    $0x160,%rax
    ece8:	48 89 85 58 cf ff ff 	mov    %rax,-0x30a8(%rbp)
    ecef:	48 8d 85 50 d0 ff ff 	lea    -0x2fb0(%rbp),%rax
    ecf6:	48 83 c0 40          	add    $0x40,%rax
    ecfa:	48 89 85 60 cf ff ff 	mov    %rax,-0x30a0(%rbp)
    ed01:	48 8d 85 50 d0 ff ff 	lea    -0x2fb0(%rbp),%rax
    ed08:	48 05 60 01 00 00    	add    $0x160,%rax
    ed0e:	48 89 85 68 cf ff ff 	mov    %rax,-0x3098(%rbp)
    ed15:	48 8d 85 50 d0 ff ff 	lea    -0x2fb0(%rbp),%rax
    ed1c:	48 05 40 01 00 00    	add    $0x140,%rax
    ed22:	48 89 85 70 cf ff ff 	mov    %rax,-0x3090(%rbp)
    ed29:	48 8d 85 50 d0 ff ff 	lea    -0x2fb0(%rbp),%rax
    ed30:	48 05 c0 00 00 00    	add    $0xc0,%rax
    ed36:	48 89 85 78 cf ff ff 	mov    %rax,-0x3088(%rbp)
    ed3d:	48 c7 85 80 cf ff ff 	movq   $0x0,-0x3080(%rbp)
    ed44:	00 00 00 00 
    ed48:	48 8d 85 50 d0 ff ff 	lea    -0x2fb0(%rbp),%rax
    ed4f:	48 05 60 01 00 00    	add    $0x160,%rax
    ed55:	48 89 85 88 cf ff ff 	mov    %rax,-0x3078(%rbp)
    ed5c:	48 c7 85 90 cf ff ff 	movq   $0x0,-0x3070(%rbp)
    ed63:	00 00 00 00 
    ed67:	48 8d 85 50 d0 ff ff 	lea    -0x2fb0(%rbp),%rax
    ed6e:	48 05 60 01 00 00    	add    $0x160,%rax
    ed74:	48 89 85 98 cf ff ff 	mov    %rax,-0x3068(%rbp)
    ed7b:	48 8d 85 50 d0 ff ff 	lea    -0x2fb0(%rbp),%rax
    ed82:	48 83 c0 30          	add    $0x30,%rax
    ed86:	48 89 85 a0 cf ff ff 	mov    %rax,-0x3060(%rbp)
    ed8d:	48 c7 85 a8 cf ff ff 	movq   $0x0,-0x3058(%rbp)
    ed94:	00 00 00 00 
    ed98:	48 8d 85 50 d0 ff ff 	lea    -0x2fb0(%rbp),%rax
    ed9f:	48 05 60 01 00 00    	add    $0x160,%rax
    eda5:	48 89 85 b0 cf ff ff 	mov    %rax,-0x3050(%rbp)
    edac:	48 8d 85 50 d0 ff ff 	lea    -0x2fb0(%rbp),%rax
    edb3:	48 05 60 01 00 00    	add    $0x160,%rax
    edb9:	48 89 85 b8 cf ff ff 	mov    %rax,-0x3048(%rbp)
    edc0:	48 8d 85 50 d0 ff ff 	lea    -0x2fb0(%rbp),%rax
    edc7:	48 05 60 01 00 00    	add    $0x160,%rax
    edcd:	48 89 85 c0 cf ff ff 	mov    %rax,-0x3040(%rbp)
    edd4:	48 8d 85 50 d0 ff ff 	lea    -0x2fb0(%rbp),%rax
    eddb:	48 05 60 01 00 00    	add    $0x160,%rax
    ede1:	48 89 85 c8 cf ff ff 	mov    %rax,-0x3038(%rbp)
    ede8:	48 8d 85 50 d0 ff ff 	lea    -0x2fb0(%rbp),%rax
    edef:	48 05 60 01 00 00    	add    $0x160,%rax
    edf5:	48 89 85 d0 cf ff ff 	mov    %rax,-0x3030(%rbp)
    edfc:	48 8d 85 50 d0 ff ff 	lea    -0x2fb0(%rbp),%rax
    ee03:	48 05 c0 00 00 00    	add    $0xc0,%rax
    ee09:	48 89 85 d8 cf ff ff 	mov    %rax,-0x3028(%rbp)
    ee10:	48 8d 85 50 d0 ff ff 	lea    -0x2fb0(%rbp),%rax
    ee17:	48 05 d8 00 00 00    	add    $0xd8,%rax
    ee1d:	48 89 85 e0 cf ff ff 	mov    %rax,-0x3020(%rbp)
    ee24:	48 8d 85 50 d0 ff ff 	lea    -0x2fb0(%rbp),%rax
    ee2b:	48 05 60 01 00 00    	add    $0x160,%rax
    ee31:	48 89 85 e8 cf ff ff 	mov    %rax,-0x3018(%rbp)
    ee38:	48 8d 85 50 d0 ff ff 	lea    -0x2fb0(%rbp),%rax
    ee3f:	48 83 c0 78          	add    $0x78,%rax
    ee43:	48 89 85 f0 cf ff ff 	mov    %rax,-0x3010(%rbp)
    ee4a:	48 8d 85 50 d0 ff ff 	lea    -0x2fb0(%rbp),%rax
    ee51:	48 05 60 01 00 00    	add    $0x160,%rax
    ee57:	48 89 85 f8 cf ff ff 	mov    %rax,-0x3008(%rbp)
    ee5e:	48 8d 85 50 d0 ff ff 	lea    -0x2fb0(%rbp),%rax
    ee65:	48 83 c0 30          	add    $0x30,%rax
    ee69:	48 89 85 00 d0 ff ff 	mov    %rax,-0x3000(%rbp)
    ee70:	48 8d 85 50 d0 ff ff 	lea    -0x2fb0(%rbp),%rax
    ee77:	48 05 d8 00 00 00    	add    $0xd8,%rax
    ee7d:	48 89 85 08 d0 ff ff 	mov    %rax,-0x2ff8(%rbp)
    ee84:	48 8d 85 50 d0 ff ff 	lea    -0x2fb0(%rbp),%rax
    ee8b:	48 05 40 01 00 00    	add    $0x140,%rax
    ee91:	48 89 85 10 d0 ff ff 	mov    %rax,-0x2ff0(%rbp)
    ee98:	48 8d 85 50 d0 ff ff 	lea    -0x2fb0(%rbp),%rax
    ee9f:	48 05 a0 00 00 00    	add    $0xa0,%rax
    eea5:	48 89 85 18 d0 ff ff 	mov    %rax,-0x2fe8(%rbp)
    eeac:	48 8d 85 50 d0 ff ff 	lea    -0x2fb0(%rbp),%rax
    eeb3:	48 05 60 01 00 00    	add    $0x160,%rax
    eeb9:	48 89 85 20 d0 ff ff 	mov    %rax,-0x2fe0(%rbp)
    eec0:	48 8d 85 50 d0 ff ff 	lea    -0x2fb0(%rbp),%rax
    eec7:	48 05 60 01 00 00    	add    $0x160,%rax
    eecd:	48 89 85 28 d0 ff ff 	mov    %rax,-0x2fd8(%rbp)
    eed4:	48 8d 85 50 d0 ff ff 	lea    -0x2fb0(%rbp),%rax
    eedb:	48 05 40 01 00 00    	add    $0x140,%rax
    eee1:	48 89 85 30 d0 ff ff 	mov    %rax,-0x2fd0(%rbp)
    eee8:	48 8d 85 50 d0 ff ff 	lea    -0x2fb0(%rbp),%rax
    eeef:	48 83 c0 30          	add    $0x30,%rax
    eef3:	48 89 85 38 d0 ff ff 	mov    %rax,-0x2fc8(%rbp)
    eefa:	48 8d 85 50 d0 ff ff 	lea    -0x2fb0(%rbp),%rax
    ef01:	48 83 c0 30          	add    $0x30,%rax
    ef05:	48 89 85 40 d0 ff ff 	mov    %rax,-0x2fc0(%rbp)
    ef0c:	48 8d 85 50 d0 ff ff 	lea    -0x2fb0(%rbp),%rax
    ef13:	48 05 40 01 00 00    	add    $0x140,%rax
    ef19:	48 89 85 48 d0 ff ff 	mov    %rax,-0x2fb8(%rbp)
    ef20:	c7 85 8c c9 ff ff 46 	movl   $0x87103146,-0x3674(%rbp)
    ef27:	31 10 87 
    ef2a:	48 8d 05 6f 0f 01 00 	lea    0x10f6f(%rip),%rax        # 1fea0 <g_1666>
    ef31:	48 89 85 f0 ca ff ff 	mov    %rax,-0x3510(%rbp)
    ef38:	66 c7 85 70 c9 ff ff 	movw   $0x1,-0x3690(%rbp)
    ef3f:	01 00 
    ef41:	48 8d 05 58 46 01 00 	lea    0x14658(%rip),%rax        # 235a0 <g_1361>
    ef48:	48 89 85 e0 cc ff ff 	mov    %rax,-0x3320(%rbp)
    ef4f:	48 8d 05 72 53 01 00 	lea    0x15372(%rip),%rax        # 242c8 <g_3>
    ef56:	48 89 85 d0 f7 ff ff 	mov    %rax,-0x830(%rbp)
    ef5d:	48 8d 85 c0 ce ff ff 	lea    -0x3140(%rbp),%rax
    ef64:	48 83 c0 10          	add    $0x10,%rax
    ef68:	48 89 85 d8 f7 ff ff 	mov    %rax,-0x828(%rbp)
    ef6f:	48 c7 85 e0 f7 ff ff 	movq   $0x0,-0x820(%rbp)
    ef76:	00 00 00 00 
    ef7a:	48 8d 85 c0 ce ff ff 	lea    -0x3140(%rbp),%rax
    ef81:	48 83 c0 10          	add    $0x10,%rax
    ef85:	48 89 85 e8 f7 ff ff 	mov    %rax,-0x818(%rbp)
    ef8c:	48 8d 05 35 53 01 00 	lea    0x15335(%rip),%rax        # 242c8 <g_3>
    ef93:	48 89 85 f0 f7 ff ff 	mov    %rax,-0x810(%rbp)
    ef9a:	48 8d 05 27 53 01 00 	lea    0x15327(%rip),%rax        # 242c8 <g_3>
    efa1:	48 89 85 f8 f7 ff ff 	mov    %rax,-0x808(%rbp)
    efa8:	48 8d 85 c0 ce ff ff 	lea    -0x3140(%rbp),%rax
    efaf:	48 83 c0 10          	add    $0x10,%rax
    efb3:	48 89 85 00 f8 ff ff 	mov    %rax,-0x800(%rbp)
    efba:	48 8d 05 7f 07 01 00 	lea    0x1077f(%rip),%rax        # 1f740 <g_523>
    efc1:	48 89 85 08 f8 ff ff 	mov    %rax,-0x7f8(%rbp)
    efc8:	48 8d 85 8c c9 ff ff 	lea    -0x3674(%rbp),%rax
    efcf:	48 89 85 10 f8 ff ff 	mov    %rax,-0x7f0(%rbp)
    efd6:	48 8d 05 63 07 01 00 	lea    0x10763(%rip),%rax        # 1f740 <g_523>
    efdd:	48 89 85 18 f8 ff ff 	mov    %rax,-0x7e8(%rbp)
    efe4:	48 8d 85 c0 ce ff ff 	lea    -0x3140(%rbp),%rax
    efeb:	48 83 c0 0c          	add    $0xc,%rax
    efef:	48 89 85 20 f8 ff ff 	mov    %rax,-0x7e0(%rbp)
    eff6:	48 8d 85 88 c9 ff ff 	lea    -0x3678(%rbp),%rax
    effd:	48 89 85 28 f8 ff ff 	mov    %rax,-0x7d8(%rbp)
    f004:	48 8d 85 30 ce ff ff 	lea    -0x31d0(%rbp),%rax
    f00b:	48 83 c0 04          	add    $0x4,%rax
    f00f:	48 89 85 30 f8 ff ff 	mov    %rax,-0x7d0(%rbp)
    f016:	48 8d 85 8c c9 ff ff 	lea    -0x3674(%rbp),%rax
    f01d:	48 89 85 38 f8 ff ff 	mov    %rax,-0x7c8(%rbp)
    f024:	48 8d 85 c0 ce ff ff 	lea    -0x3140(%rbp),%rax
    f02b:	48 83 c0 10          	add    $0x10,%rax
    f02f:	48 89 85 40 f8 ff ff 	mov    %rax,-0x7c0(%rbp)
    f036:	48 c7 85 48 f8 ff ff 	movq   $0x0,-0x7b8(%rbp)
    f03d:	00 00 00 00 
    f041:	48 c7 85 50 f8 ff ff 	movq   $0x0,-0x7b0(%rbp)
    f048:	00 00 00 00 
    f04c:	48 c7 85 58 f8 ff ff 	movq   $0x0,-0x7a8(%rbp)
    f053:	00 00 00 00 
    f057:	48 c7 85 60 f8 ff ff 	movq   $0x0,-0x7a0(%rbp)
    f05e:	00 00 00 00 
    f062:	48 8d 85 c0 ce ff ff 	lea    -0x3140(%rbp),%rax
    f069:	48 83 c0 10          	add    $0x10,%rax
    f06d:	48 89 85 68 f8 ff ff 	mov    %rax,-0x798(%rbp)
    f074:	48 c7 85 70 f8 ff ff 	movq   $0x0,-0x790(%rbp)
    f07b:	00 00 00 00 
    f07f:	48 8d 05 ba 06 01 00 	lea    0x106ba(%rip),%rax        # 1f740 <g_523>
    f086:	48 89 85 78 f8 ff ff 	mov    %rax,-0x788(%rbp)
    f08d:	48 8d 85 c0 ce ff ff 	lea    -0x3140(%rbp),%rax
    f094:	48 83 c0 0c          	add    $0xc,%rax
    f098:	48 89 85 80 f8 ff ff 	mov    %rax,-0x780(%rbp)
    f09f:	48 8d 85 88 c9 ff ff 	lea    -0x3678(%rbp),%rax
    f0a6:	48 89 85 88 f8 ff ff 	mov    %rax,-0x778(%rbp)
    f0ad:	48 8d 85 30 ce ff ff 	lea    -0x31d0(%rbp),%rax
    f0b4:	48 83 c0 04          	add    $0x4,%rax
    f0b8:	48 89 85 90 f8 ff ff 	mov    %rax,-0x770(%rbp)
    f0bf:	48 8d 85 8c c9 ff ff 	lea    -0x3674(%rbp),%rax
    f0c6:	48 89 85 98 f8 ff ff 	mov    %rax,-0x768(%rbp)
    f0cd:	48 8d 85 30 ce ff ff 	lea    -0x31d0(%rbp),%rax
    f0d4:	48 83 c0 04          	add    $0x4,%rax
    f0d8:	48 89 85 a0 f8 ff ff 	mov    %rax,-0x760(%rbp)
    f0df:	48 8d 85 88 c9 ff ff 	lea    -0x3678(%rbp),%rax
    f0e6:	48 89 85 a8 f8 ff ff 	mov    %rax,-0x758(%rbp)
    f0ed:	48 8d 05 d4 51 01 00 	lea    0x151d4(%rip),%rax        # 242c8 <g_3>
    f0f4:	48 89 85 b0 f8 ff ff 	mov    %rax,-0x750(%rbp)
    f0fb:	48 8d 05 c6 51 01 00 	lea    0x151c6(%rip),%rax        # 242c8 <g_3>
    f102:	48 89 85 b8 f8 ff ff 	mov    %rax,-0x748(%rbp)
    f109:	48 8d 85 c0 ce ff ff 	lea    -0x3140(%rbp),%rax
    f110:	48 83 c0 10          	add    $0x10,%rax
    f114:	48 89 85 c0 f8 ff ff 	mov    %rax,-0x740(%rbp)
    f11b:	48 c7 85 c8 f8 ff ff 	movq   $0x0,-0x738(%rbp)
    f122:	00 00 00 00 
    f126:	48 8d 85 c0 ce ff ff 	lea    -0x3140(%rbp),%rax
    f12d:	48 83 c0 10          	add    $0x10,%rax
    f131:	48 89 85 d0 f8 ff ff 	mov    %rax,-0x730(%rbp)
    f138:	48 8d 05 89 51 01 00 	lea    0x15189(%rip),%rax        # 242c8 <g_3>
    f13f:	48 89 85 d8 f8 ff ff 	mov    %rax,-0x728(%rbp)
    f146:	48 8d 05 7b 51 01 00 	lea    0x1517b(%rip),%rax        # 242c8 <g_3>
    f14d:	48 89 85 e0 f8 ff ff 	mov    %rax,-0x720(%rbp)
    f154:	48 8d 05 71 ff 00 00 	lea    0xff71(%rip),%rax        # 1f0cc <g_7>
    f15b:	48 89 85 e8 f8 ff ff 	mov    %rax,-0x718(%rbp)
    f162:	48 8d 85 c0 ce ff ff 	lea    -0x3140(%rbp),%rax
    f169:	48 83 c0 0c          	add    $0xc,%rax
    f16d:	48 89 85 f0 f8 ff ff 	mov    %rax,-0x710(%rbp)
    f174:	48 8d 85 b8 cd ff ff 	lea    -0x3248(%rbp),%rax
    f17b:	48 89 85 f8 f8 ff ff 	mov    %rax,-0x708(%rbp)
    f182:	48 8d 85 c0 ce ff ff 	lea    -0x3140(%rbp),%rax
    f189:	48 83 c0 0c          	add    $0xc,%rax
    f18d:	48 89 85 00 f9 ff ff 	mov    %rax,-0x700(%rbp)
    f194:	48 8d 05 31 ff 00 00 	lea    0xff31(%rip),%rax        # 1f0cc <g_7>
    f19b:	48 89 85 08 f9 ff ff 	mov    %rax,-0x6f8(%rbp)
    f1a2:	48 8d 85 74 c9 ff ff 	lea    -0x368c(%rbp),%rax
    f1a9:	48 89 85 10 f9 ff ff 	mov    %rax,-0x6f0(%rbp)
    f1b0:	48 8d 85 88 c9 ff ff 	lea    -0x3678(%rbp),%rax
    f1b7:	48 89 85 18 f9 ff ff 	mov    %rax,-0x6e8(%rbp)
    f1be:	48 8d 85 88 c9 ff ff 	lea    -0x3678(%rbp),%rax
    f1c5:	48 89 85 20 f9 ff ff 	mov    %rax,-0x6e0(%rbp)
    f1cc:	48 c7 85 28 f9 ff ff 	movq   $0x0,-0x6d8(%rbp)
    f1d3:	00 00 00 00 
    f1d7:	48 8d 85 88 c9 ff ff 	lea    -0x3678(%rbp),%rax
    f1de:	48 89 85 30 f9 ff ff 	mov    %rax,-0x6d0(%rbp)
    f1e5:	48 8d 85 c0 ce ff ff 	lea    -0x3140(%rbp),%rax
    f1ec:	48 83 c0 10          	add    $0x10,%rax
    f1f0:	48 89 85 38 f9 ff ff 	mov    %rax,-0x6c8(%rbp)
    f1f7:	48 8d 85 c0 ce ff ff 	lea    -0x3140(%rbp),%rax
    f1fe:	48 83 c0 10          	add    $0x10,%rax
    f202:	48 89 85 40 f9 ff ff 	mov    %rax,-0x6c0(%rbp)
    f209:	48 8d 85 88 c9 ff ff 	lea    -0x3678(%rbp),%rax
    f210:	48 89 85 48 f9 ff ff 	mov    %rax,-0x6b8(%rbp)
    f217:	48 c7 85 50 f9 ff ff 	movq   $0x0,-0x6b0(%rbp)
    f21e:	00 00 00 00 
    f222:	48 8d 85 88 c9 ff ff 	lea    -0x3678(%rbp),%rax
    f229:	48 89 85 58 f9 ff ff 	mov    %rax,-0x6a8(%rbp)
    f230:	48 8d 85 8c c9 ff ff 	lea    -0x3674(%rbp),%rax
    f237:	48 89 85 60 f9 ff ff 	mov    %rax,-0x6a0(%rbp)
    f23e:	48 8d 85 b8 cd ff ff 	lea    -0x3248(%rbp),%rax
    f245:	48 89 85 68 f9 ff ff 	mov    %rax,-0x698(%rbp)
    f24c:	48 8d 85 7c c9 ff ff 	lea    -0x3684(%rbp),%rax
    f253:	48 89 85 70 f9 ff ff 	mov    %rax,-0x690(%rbp)
    f25a:	48 8d 85 8c c9 ff ff 	lea    -0x3674(%rbp),%rax
    f261:	48 89 85 78 f9 ff ff 	mov    %rax,-0x688(%rbp)
    f268:	48 8d 85 c0 ce ff ff 	lea    -0x3140(%rbp),%rax
    f26f:	48 83 c0 0c          	add    $0xc,%rax
    f273:	48 89 85 80 f9 ff ff 	mov    %rax,-0x680(%rbp)
    f27a:	48 8d 85 8c c9 ff ff 	lea    -0x3674(%rbp),%rax
    f281:	48 89 85 88 f9 ff ff 	mov    %rax,-0x678(%rbp)
    f288:	48 8d 85 88 c9 ff ff 	lea    -0x3678(%rbp),%rax
    f28f:	48 89 85 90 f9 ff ff 	mov    %rax,-0x670(%rbp)
    f296:	48 8d 85 c0 ce ff ff 	lea    -0x3140(%rbp),%rax
    f29d:	48 83 c0 10          	add    $0x10,%rax
    f2a1:	48 89 85 98 f9 ff ff 	mov    %rax,-0x668(%rbp)
    f2a8:	48 8d 85 c0 ce ff ff 	lea    -0x3140(%rbp),%rax
    f2af:	48 83 c0 10          	add    $0x10,%rax
    f2b3:	48 89 85 a0 f9 ff ff 	mov    %rax,-0x660(%rbp)
    f2ba:	48 8d 85 88 c9 ff ff 	lea    -0x3678(%rbp),%rax
    f2c1:	48 89 85 a8 f9 ff ff 	mov    %rax,-0x658(%rbp)
    f2c8:	48 c7 85 b0 f9 ff ff 	movq   $0x0,-0x650(%rbp)
    f2cf:	00 00 00 00 
    f2d3:	48 8d 85 88 c9 ff ff 	lea    -0x3678(%rbp),%rax
    f2da:	48 89 85 b8 f9 ff ff 	mov    %rax,-0x648(%rbp)
    f2e1:	48 8d 85 c0 ce ff ff 	lea    -0x3140(%rbp),%rax
    f2e8:	48 83 c0 10          	add    $0x10,%rax
    f2ec:	48 89 85 c0 f9 ff ff 	mov    %rax,-0x640(%rbp)
    f2f3:	48 8d 05 d2 fd 00 00 	lea    0xfdd2(%rip),%rax        # 1f0cc <g_7>
    f2fa:	48 89 85 c8 f9 ff ff 	mov    %rax,-0x638(%rbp)
    f301:	48 8d 85 74 c9 ff ff 	lea    -0x368c(%rbp),%rax
    f308:	48 89 85 d0 f9 ff ff 	mov    %rax,-0x630(%rbp)
    f30f:	48 8d 05 2a 04 01 00 	lea    0x1042a(%rip),%rax        # 1f740 <g_523>
    f316:	48 89 85 d8 f9 ff ff 	mov    %rax,-0x628(%rbp)
    f31d:	48 8d 85 8c c9 ff ff 	lea    -0x3674(%rbp),%rax
    f324:	48 89 85 e0 f9 ff ff 	mov    %rax,-0x620(%rbp)
    f32b:	48 8d 05 0e 04 01 00 	lea    0x1040e(%rip),%rax        # 1f740 <g_523>
    f332:	48 89 85 e8 f9 ff ff 	mov    %rax,-0x618(%rbp)
    f339:	48 8d 85 c0 ce ff ff 	lea    -0x3140(%rbp),%rax
    f340:	48 83 c0 0c          	add    $0xc,%rax
    f344:	48 89 85 f0 f9 ff ff 	mov    %rax,-0x610(%rbp)
    f34b:	48 8d 85 88 c9 ff ff 	lea    -0x3678(%rbp),%rax
    f352:	48 89 85 f8 f9 ff ff 	mov    %rax,-0x608(%rbp)
    f359:	48 8d 85 c0 ce ff ff 	lea    -0x3140(%rbp),%rax
    f360:	48 83 c0 10          	add    $0x10,%rax
    f364:	48 89 85 00 fa ff ff 	mov    %rax,-0x600(%rbp)
    f36b:	48 8d 85 88 c9 ff ff 	lea    -0x3678(%rbp),%rax
    f372:	48 89 85 08 fa ff ff 	mov    %rax,-0x5f8(%rbp)
    f379:	48 c7 85 10 fa ff ff 	movq   $0x0,-0x5f0(%rbp)
    f380:	00 00 00 00 
    f384:	48 8d 85 88 c9 ff ff 	lea    -0x3678(%rbp),%rax
    f38b:	48 89 85 18 fa ff ff 	mov    %rax,-0x5e8(%rbp)
    f392:	48 8d 85 c0 ce ff ff 	lea    -0x3140(%rbp),%rax
    f399:	48 83 c0 10          	add    $0x10,%rax
    f39d:	48 89 85 20 fa ff ff 	mov    %rax,-0x5e0(%rbp)
    f3a4:	48 8d 85 c0 ce ff ff 	lea    -0x3140(%rbp),%rax
    f3ab:	48 83 c0 10          	add    $0x10,%rax
    f3af:	48 89 85 28 fa ff ff 	mov    %rax,-0x5d8(%rbp)
    f3b6:	48 8d 85 88 c9 ff ff 	lea    -0x3678(%rbp),%rax
    f3bd:	48 89 85 30 fa ff ff 	mov    %rax,-0x5d0(%rbp)
    f3c4:	48 8d 85 b8 cd ff ff 	lea    -0x3248(%rbp),%rax
    f3cb:	48 89 85 38 fa ff ff 	mov    %rax,-0x5c8(%rbp)
    f3d2:	48 8d 85 74 c9 ff ff 	lea    -0x368c(%rbp),%rax
    f3d9:	48 89 85 40 fa ff ff 	mov    %rax,-0x5c0(%rbp)
    f3e0:	48 8d 85 b8 cd ff ff 	lea    -0x3248(%rbp),%rax
    f3e7:	48 89 85 48 fa ff ff 	mov    %rax,-0x5b8(%rbp)
    f3ee:	48 8d 85 30 ce ff ff 	lea    -0x31d0(%rbp),%rax
    f3f5:	48 83 c0 04          	add    $0x4,%rax
    f3f9:	48 89 85 50 fa ff ff 	mov    %rax,-0x5b0(%rbp)
    f400:	48 8d 05 39 03 01 00 	lea    0x10339(%rip),%rax        # 1f740 <g_523>
    f407:	48 89 85 58 fa ff ff 	mov    %rax,-0x5a8(%rbp)
    f40e:	48 8d 85 7c c9 ff ff 	lea    -0x3684(%rbp),%rax
    f415:	48 89 85 60 fa ff ff 	mov    %rax,-0x5a0(%rbp)
    f41c:	48 8d 05 a9 fc 00 00 	lea    0xfca9(%rip),%rax        # 1f0cc <g_7>
    f423:	48 89 85 68 fa ff ff 	mov    %rax,-0x598(%rbp)
    f42a:	48 8d 85 88 c9 ff ff 	lea    -0x3678(%rbp),%rax
    f431:	48 89 85 70 fa ff ff 	mov    %rax,-0x590(%rbp)
    f438:	48 8d 05 89 4e 01 00 	lea    0x14e89(%rip),%rax        # 242c8 <g_3>
    f43f:	48 89 85 78 fa ff ff 	mov    %rax,-0x588(%rbp)
    f446:	48 c7 85 80 fa ff ff 	movq   $0x0,-0x580(%rbp)
    f44d:	00 00 00 00 
    f451:	48 c7 85 88 fa ff ff 	movq   $0x0,-0x578(%rbp)
    f458:	00 00 00 00 
    f45c:	48 8d 05 65 4e 01 00 	lea    0x14e65(%rip),%rax        # 242c8 <g_3>
    f463:	48 89 85 90 fa ff ff 	mov    %rax,-0x570(%rbp)
    f46a:	48 8d 85 88 c9 ff ff 	lea    -0x3678(%rbp),%rax
    f471:	48 89 85 98 fa ff ff 	mov    %rax,-0x568(%rbp)
    f478:	48 8d 05 49 4e 01 00 	lea    0x14e49(%rip),%rax        # 242c8 <g_3>
    f47f:	48 89 85 a0 fa ff ff 	mov    %rax,-0x560(%rbp)
    f486:	48 8d 85 b8 cd ff ff 	lea    -0x3248(%rbp),%rax
    f48d:	48 89 85 a8 fa ff ff 	mov    %rax,-0x558(%rbp)
    f494:	48 8d 85 30 ce ff ff 	lea    -0x31d0(%rbp),%rax
    f49b:	48 83 c0 04          	add    $0x4,%rax
    f49f:	48 89 85 b0 fa ff ff 	mov    %rax,-0x550(%rbp)
    f4a6:	48 8d 05 93 02 01 00 	lea    0x10293(%rip),%rax        # 1f740 <g_523>
    f4ad:	48 89 85 b8 fa ff ff 	mov    %rax,-0x548(%rbp)
    f4b4:	48 8d 85 7c c9 ff ff 	lea    -0x3684(%rbp),%rax
    f4bb:	48 89 85 c0 fa ff ff 	mov    %rax,-0x540(%rbp)
    f4c2:	48 8d 05 03 fc 00 00 	lea    0xfc03(%rip),%rax        # 1f0cc <g_7>
    f4c9:	48 89 85 c8 fa ff ff 	mov    %rax,-0x538(%rbp)
    f4d0:	48 8d 85 7c c9 ff ff 	lea    -0x3684(%rbp),%rax
    f4d7:	48 89 85 d0 fa ff ff 	mov    %rax,-0x530(%rbp)
    f4de:	48 8d 05 5b 02 01 00 	lea    0x1025b(%rip),%rax        # 1f740 <g_523>
    f4e5:	48 89 85 d8 fa ff ff 	mov    %rax,-0x528(%rbp)
    f4ec:	48 8d 85 c0 ce ff ff 	lea    -0x3140(%rbp),%rax
    f4f3:	48 83 c0 10          	add    $0x10,%rax
    f4f7:	48 89 85 e0 fa ff ff 	mov    %rax,-0x520(%rbp)
    f4fe:	48 8d 85 c0 ce ff ff 	lea    -0x3140(%rbp),%rax
    f505:	48 83 c0 10          	add    $0x10,%rax
    f509:	48 89 85 e8 fa ff ff 	mov    %rax,-0x518(%rbp)
    f510:	48 8d 85 88 c9 ff ff 	lea    -0x3678(%rbp),%rax
    f517:	48 89 85 f0 fa ff ff 	mov    %rax,-0x510(%rbp)
    f51e:	48 c7 85 f8 fa ff ff 	movq   $0x0,-0x508(%rbp)
    f525:	00 00 00 00 
    f529:	48 8d 85 88 c9 ff ff 	lea    -0x3678(%rbp),%rax
    f530:	48 89 85 00 fb ff ff 	mov    %rax,-0x500(%rbp)
    f537:	48 8d 85 c0 ce ff ff 	lea    -0x3140(%rbp),%rax
    f53e:	48 83 c0 10          	add    $0x10,%rax
    f542:	48 89 85 08 fb ff ff 	mov    %rax,-0x4f8(%rbp)
    f549:	48 8d 85 c0 ce ff ff 	lea    -0x3140(%rbp),%rax
    f550:	48 83 c0 10          	add    $0x10,%rax
    f554:	48 89 85 10 fb ff ff 	mov    %rax,-0x4f0(%rbp)
    f55b:	48 8d 85 88 c9 ff ff 	lea    -0x3678(%rbp),%rax
    f562:	48 89 85 18 fb ff ff 	mov    %rax,-0x4e8(%rbp)
    f569:	48 8d 85 30 ce ff ff 	lea    -0x31d0(%rbp),%rax
    f570:	48 83 c0 04          	add    $0x4,%rax
    f574:	48 89 85 20 fb ff ff 	mov    %rax,-0x4e0(%rbp)
    f57b:	48 8d 85 8c c9 ff ff 	lea    -0x3674(%rbp),%rax
    f582:	48 89 85 28 fb ff ff 	mov    %rax,-0x4d8(%rbp)
    f589:	48 8d 85 30 ce ff ff 	lea    -0x31d0(%rbp),%rax
    f590:	48 83 c0 04          	add    $0x4,%rax
    f594:	48 89 85 30 fb ff ff 	mov    %rax,-0x4d0(%rbp)
    f59b:	48 8d 85 88 c9 ff ff 	lea    -0x3678(%rbp),%rax
    f5a2:	48 89 85 38 fb ff ff 	mov    %rax,-0x4c8(%rbp)
    f5a9:	48 8d 85 c0 ce ff ff 	lea    -0x3140(%rbp),%rax
    f5b0:	48 83 c0 0c          	add    $0xc,%rax
    f5b4:	48 89 85 40 fb ff ff 	mov    %rax,-0x4c0(%rbp)
    f5bb:	48 8d 05 7e 01 01 00 	lea    0x1017e(%rip),%rax        # 1f740 <g_523>
    f5c2:	48 89 85 48 fb ff ff 	mov    %rax,-0x4b8(%rbp)
    f5c9:	48 c7 85 50 fb ff ff 	movq   $0x0,-0x4b0(%rbp)
    f5d0:	00 00 00 00 
    f5d4:	48 8d 05 ed 4c 01 00 	lea    0x14ced(%rip),%rax        # 242c8 <g_3>
    f5db:	48 89 85 58 fb ff ff 	mov    %rax,-0x4a8(%rbp)
    f5e2:	48 c7 85 60 fb ff ff 	movq   $0x0,-0x4a0(%rbp)
    f5e9:	00 00 00 00 
    f5ed:	48 8d 85 88 c9 ff ff 	lea    -0x3678(%rbp),%rax
    f5f4:	48 89 85 68 fb ff ff 	mov    %rax,-0x498(%rbp)
    f5fb:	48 8d 85 88 c9 ff ff 	lea    -0x3678(%rbp),%rax
    f602:	48 89 85 70 fb ff ff 	mov    %rax,-0x490(%rbp)
    f609:	48 c7 85 78 fb ff ff 	movq   $0x0,-0x488(%rbp)
    f610:	00 00 00 00 
    f614:	48 8d 05 ad 4c 01 00 	lea    0x14cad(%rip),%rax        # 242c8 <g_3>
    f61b:	48 89 85 80 fb ff ff 	mov    %rax,-0x480(%rbp)
    f622:	48 8d 05 17 01 01 00 	lea    0x10117(%rip),%rax        # 1f740 <g_523>
    f629:	48 89 85 88 fb ff ff 	mov    %rax,-0x478(%rbp)
    f630:	48 8d 85 74 c9 ff ff 	lea    -0x368c(%rbp),%rax
    f637:	48 89 85 90 fb ff ff 	mov    %rax,-0x470(%rbp)
    f63e:	48 8d 85 8c c9 ff ff 	lea    -0x3674(%rbp),%rax
    f645:	48 89 85 98 fb ff ff 	mov    %rax,-0x468(%rbp)
    f64c:	48 8d 85 8c c9 ff ff 	lea    -0x3674(%rbp),%rax
    f653:	48 89 85 a0 fb ff ff 	mov    %rax,-0x460(%rbp)
    f65a:	48 8d 05 6b fa 00 00 	lea    0xfa6b(%rip),%rax        # 1f0cc <g_7>
    f661:	48 89 85 a8 fb ff ff 	mov    %rax,-0x458(%rbp)
    f668:	48 8d 85 30 ce ff ff 	lea    -0x31d0(%rbp),%rax
    f66f:	48 83 c0 04          	add    $0x4,%rax
    f673:	48 89 85 b0 fb ff ff 	mov    %rax,-0x450(%rbp)
    f67a:	48 8d 05 4b fa 00 00 	lea    0xfa4b(%rip),%rax        # 1f0cc <g_7>
    f681:	48 89 85 b8 fb ff ff 	mov    %rax,-0x448(%rbp)
    f688:	48 c7 85 c0 fb ff ff 	movq   $0x0,-0x440(%rbp)
    f68f:	00 00 00 00 
    f693:	48 8d 85 88 c9 ff ff 	lea    -0x3678(%rbp),%rax
    f69a:	48 89 85 c8 fb ff ff 	mov    %rax,-0x438(%rbp)
    f6a1:	48 8d 85 88 c9 ff ff 	lea    -0x3678(%rbp),%rax
    f6a8:	48 89 85 d0 fb ff ff 	mov    %rax,-0x430(%rbp)
    f6af:	48 c7 85 d8 fb ff ff 	movq   $0x0,-0x428(%rbp)
    f6b6:	00 00 00 00 
    f6ba:	48 8d 05 07 4c 01 00 	lea    0x14c07(%rip),%rax        # 242c8 <g_3>
    f6c1:	48 89 85 e0 fb ff ff 	mov    %rax,-0x420(%rbp)
    f6c8:	48 c7 85 e8 fb ff ff 	movq   $0x0,-0x418(%rbp)
    f6cf:	00 00 00 00 
    f6d3:	48 8d 85 88 c9 ff ff 	lea    -0x3678(%rbp),%rax
    f6da:	48 89 85 f0 fb ff ff 	mov    %rax,-0x410(%rbp)
    f6e1:	48 8d 85 88 c9 ff ff 	lea    -0x3678(%rbp),%rax
    f6e8:	48 89 85 f8 fb ff ff 	mov    %rax,-0x408(%rbp)
    f6ef:	48 8d 85 c0 ce ff ff 	lea    -0x3140(%rbp),%rax
    f6f6:	48 83 c0 0c          	add    $0xc,%rax
    f6fa:	48 89 85 00 fc ff ff 	mov    %rax,-0x400(%rbp)
    f701:	48 8d 05 38 00 01 00 	lea    0x10038(%rip),%rax        # 1f740 <g_523>
    f708:	48 89 85 08 fc ff ff 	mov    %rax,-0x3f8(%rbp)
    f70f:	48 8d 85 8c c9 ff ff 	lea    -0x3674(%rbp),%rax
    f716:	48 89 85 10 fc ff ff 	mov    %rax,-0x3f0(%rbp)
    f71d:	48 8d 05 1c 00 01 00 	lea    0x1001c(%rip),%rax        # 1f740 <g_523>
    f724:	48 89 85 18 fc ff ff 	mov    %rax,-0x3e8(%rbp)
    f72b:	48 8d 85 c0 ce ff ff 	lea    -0x3140(%rbp),%rax
    f732:	48 83 c0 0c          	add    $0xc,%rax
    f736:	48 89 85 20 fc ff ff 	mov    %rax,-0x3e0(%rbp)
    f73d:	48 8d 85 88 c9 ff ff 	lea    -0x3678(%rbp),%rax
    f744:	48 89 85 28 fc ff ff 	mov    %rax,-0x3d8(%rbp)
    f74b:	48 8d 85 c0 ce ff ff 	lea    -0x3140(%rbp),%rax
    f752:	48 83 c0 10          	add    $0x10,%rax
    f756:	48 89 85 30 fc ff ff 	mov    %rax,-0x3d0(%rbp)
    f75d:	48 8d 85 88 c9 ff ff 	lea    -0x3678(%rbp),%rax
    f764:	48 89 85 38 fc ff ff 	mov    %rax,-0x3c8(%rbp)
    f76b:	48 c7 85 40 fc ff ff 	movq   $0x0,-0x3c0(%rbp)
    f772:	00 00 00 00 
    f776:	48 8d 85 88 c9 ff ff 	lea    -0x3678(%rbp),%rax
    f77d:	48 89 85 48 fc ff ff 	mov    %rax,-0x3b8(%rbp)
    f784:	48 8d 85 c0 ce ff ff 	lea    -0x3140(%rbp),%rax
    f78b:	48 83 c0 10          	add    $0x10,%rax
    f78f:	48 89 85 50 fc ff ff 	mov    %rax,-0x3b0(%rbp)
    f796:	48 8d 85 c0 ce ff ff 	lea    -0x3140(%rbp),%rax
    f79d:	48 83 c0 10          	add    $0x10,%rax
    f7a1:	48 89 85 58 fc ff ff 	mov    %rax,-0x3a8(%rbp)
    f7a8:	48 8d 85 88 c9 ff ff 	lea    -0x3678(%rbp),%rax
    f7af:	48 89 85 60 fc ff ff 	mov    %rax,-0x3a0(%rbp)
    f7b6:	48 8d 85 b8 cd ff ff 	lea    -0x3248(%rbp),%rax
    f7bd:	48 89 85 68 fc ff ff 	mov    %rax,-0x398(%rbp)
    f7c4:	48 8d 85 74 c9 ff ff 	lea    -0x368c(%rbp),%rax
    f7cb:	48 89 85 70 fc ff ff 	mov    %rax,-0x390(%rbp)
    f7d2:	48 8d 85 b8 cd ff ff 	lea    -0x3248(%rbp),%rax
    f7d9:	48 89 85 78 fc ff ff 	mov    %rax,-0x388(%rbp)
    f7e0:	48 8d 85 30 ce ff ff 	lea    -0x31d0(%rbp),%rax
    f7e7:	48 83 c0 04          	add    $0x4,%rax
    f7eb:	48 89 85 80 fc ff ff 	mov    %rax,-0x380(%rbp)
    f7f2:	48 8d 05 47 ff 00 00 	lea    0xff47(%rip),%rax        # 1f740 <g_523>
    f7f9:	48 89 85 88 fc ff ff 	mov    %rax,-0x378(%rbp)
    f800:	48 8d 85 7c c9 ff ff 	lea    -0x3684(%rbp),%rax
    f807:	48 89 85 90 fc ff ff 	mov    %rax,-0x370(%rbp)
    f80e:	48 8d 05 b7 f8 00 00 	lea    0xf8b7(%rip),%rax        # 1f0cc <g_7>
    f815:	48 89 85 98 fc ff ff 	mov    %rax,-0x368(%rbp)
    f81c:	48 8d 85 88 c9 ff ff 	lea    -0x3678(%rbp),%rax
    f823:	48 89 85 a0 fc ff ff 	mov    %rax,-0x360(%rbp)
    f82a:	48 8d 05 97 4a 01 00 	lea    0x14a97(%rip),%rax        # 242c8 <g_3>
    f831:	48 89 85 a8 fc ff ff 	mov    %rax,-0x358(%rbp)
    f838:	48 c7 85 b0 fc ff ff 	movq   $0x0,-0x350(%rbp)
    f83f:	00 00 00 00 
    f843:	48 c7 85 b8 fc ff ff 	movq   $0x0,-0x348(%rbp)
    f84a:	00 00 00 00 
    f84e:	48 8d 05 73 4a 01 00 	lea    0x14a73(%rip),%rax        # 242c8 <g_3>
    f855:	48 89 85 c0 fc ff ff 	mov    %rax,-0x340(%rbp)
    f85c:	48 8d 85 88 c9 ff ff 	lea    -0x3678(%rbp),%rax
    f863:	48 89 85 c8 fc ff ff 	mov    %rax,-0x338(%rbp)
    f86a:	48 8d 05 57 4a 01 00 	lea    0x14a57(%rip),%rax        # 242c8 <g_3>
    f871:	48 89 85 d0 fc ff ff 	mov    %rax,-0x330(%rbp)
    f878:	48 8d 85 b8 cd ff ff 	lea    -0x3248(%rbp),%rax
    f87f:	48 89 85 d8 fc ff ff 	mov    %rax,-0x328(%rbp)
    f886:	48 8d 85 30 ce ff ff 	lea    -0x31d0(%rbp),%rax
    f88d:	48 83 c0 04          	add    $0x4,%rax
    f891:	48 89 85 e0 fc ff ff 	mov    %rax,-0x320(%rbp)
    f898:	48 8d 05 a1 fe 00 00 	lea    0xfea1(%rip),%rax        # 1f740 <g_523>
    f89f:	48 89 85 e8 fc ff ff 	mov    %rax,-0x318(%rbp)
    f8a6:	48 8d 85 7c c9 ff ff 	lea    -0x3684(%rbp),%rax
    f8ad:	48 89 85 f0 fc ff ff 	mov    %rax,-0x310(%rbp)
    f8b4:	48 8d 05 11 f8 00 00 	lea    0xf811(%rip),%rax        # 1f0cc <g_7>
    f8bb:	48 89 85 f8 fc ff ff 	mov    %rax,-0x308(%rbp)
    f8c2:	48 8d 85 7c c9 ff ff 	lea    -0x3684(%rbp),%rax
    f8c9:	48 89 85 00 fd ff ff 	mov    %rax,-0x300(%rbp)
    f8d0:	48 8d 05 69 fe 00 00 	lea    0xfe69(%rip),%rax        # 1f740 <g_523>
    f8d7:	48 89 85 08 fd ff ff 	mov    %rax,-0x2f8(%rbp)
    f8de:	48 8d 85 c0 ce ff ff 	lea    -0x3140(%rbp),%rax
    f8e5:	48 83 c0 10          	add    $0x10,%rax
    f8e9:	48 89 85 10 fd ff ff 	mov    %rax,-0x2f0(%rbp)
    f8f0:	48 8d 85 c0 ce ff ff 	lea    -0x3140(%rbp),%rax
    f8f7:	48 83 c0 10          	add    $0x10,%rax
    f8fb:	48 89 85 18 fd ff ff 	mov    %rax,-0x2e8(%rbp)
    f902:	48 8d 85 88 c9 ff ff 	lea    -0x3678(%rbp),%rax
    f909:	48 89 85 20 fd ff ff 	mov    %rax,-0x2e0(%rbp)
    f910:	48 c7 85 28 fd ff ff 	movq   $0x0,-0x2d8(%rbp)
    f917:	00 00 00 00 
    f91b:	48 8d 85 88 c9 ff ff 	lea    -0x3678(%rbp),%rax
    f922:	48 89 85 30 fd ff ff 	mov    %rax,-0x2d0(%rbp)
    f929:	48 8d 85 c0 ce ff ff 	lea    -0x3140(%rbp),%rax
    f930:	48 83 c0 10          	add    $0x10,%rax
    f934:	48 89 85 38 fd ff ff 	mov    %rax,-0x2c8(%rbp)
    f93b:	48 8d 85 c0 ce ff ff 	lea    -0x3140(%rbp),%rax
    f942:	48 83 c0 10          	add    $0x10,%rax
    f946:	48 89 85 40 fd ff ff 	mov    %rax,-0x2c0(%rbp)
    f94d:	48 8d 85 88 c9 ff ff 	lea    -0x3678(%rbp),%rax
    f954:	48 89 85 48 fd ff ff 	mov    %rax,-0x2b8(%rbp)
    f95b:	48 8d 85 30 ce ff ff 	lea    -0x31d0(%rbp),%rax
    f962:	48 83 c0 04          	add    $0x4,%rax
    f966:	48 89 85 50 fd ff ff 	mov    %rax,-0x2b0(%rbp)
    f96d:	48 8d 85 8c c9 ff ff 	lea    -0x3674(%rbp),%rax
    f974:	48 89 85 58 fd ff ff 	mov    %rax,-0x2a8(%rbp)
    f97b:	48 8d 85 30 ce ff ff 	lea    -0x31d0(%rbp),%rax
    f982:	48 83 c0 04          	add    $0x4,%rax
    f986:	48 89 85 60 fd ff ff 	mov    %rax,-0x2a0(%rbp)
    f98d:	48 8d 85 88 c9 ff ff 	lea    -0x3678(%rbp),%rax
    f994:	48 89 85 68 fd ff ff 	mov    %rax,-0x298(%rbp)
    f99b:	48 8d 85 c0 ce ff ff 	lea    -0x3140(%rbp),%rax
    f9a2:	48 83 c0 0c          	add    $0xc,%rax
    f9a6:	48 89 85 70 fd ff ff 	mov    %rax,-0x290(%rbp)
    f9ad:	48 8d 05 8c fd 00 00 	lea    0xfd8c(%rip),%rax        # 1f740 <g_523>
    f9b4:	48 89 85 78 fd ff ff 	mov    %rax,-0x288(%rbp)
    f9bb:	48 c7 85 80 fd ff ff 	movq   $0x0,-0x280(%rbp)
    f9c2:	00 00 00 00 
    f9c6:	48 8d 05 fb 48 01 00 	lea    0x148fb(%rip),%rax        # 242c8 <g_3>
    f9cd:	48 89 85 88 fd ff ff 	mov    %rax,-0x278(%rbp)
    f9d4:	48 c7 85 90 fd ff ff 	movq   $0x0,-0x270(%rbp)
    f9db:	00 00 00 00 
    f9df:	48 8d 85 88 c9 ff ff 	lea    -0x3678(%rbp),%rax
    f9e6:	48 89 85 98 fd ff ff 	mov    %rax,-0x268(%rbp)
    f9ed:	48 8d 85 88 c9 ff ff 	lea    -0x3678(%rbp),%rax
    f9f4:	48 89 85 a0 fd ff ff 	mov    %rax,-0x260(%rbp)
    f9fb:	48 c7 85 a8 fd ff ff 	movq   $0x0,-0x258(%rbp)
    fa02:	00 00 00 00 
    fa06:	48 8d 05 bb 48 01 00 	lea    0x148bb(%rip),%rax        # 242c8 <g_3>
    fa0d:	48 89 85 b0 fd ff ff 	mov    %rax,-0x250(%rbp)
    fa14:	48 8d 05 25 fd 00 00 	lea    0xfd25(%rip),%rax        # 1f740 <g_523>
    fa1b:	48 89 85 b8 fd ff ff 	mov    %rax,-0x248(%rbp)
    fa22:	48 8d 85 74 c9 ff ff 	lea    -0x368c(%rbp),%rax
    fa29:	48 89 85 c0 fd ff ff 	mov    %rax,-0x240(%rbp)
    fa30:	48 8d 85 8c c9 ff ff 	lea    -0x3674(%rbp),%rax
    fa37:	48 89 85 c8 fd ff ff 	mov    %rax,-0x238(%rbp)
    fa3e:	48 8d 85 8c c9 ff ff 	lea    -0x3674(%rbp),%rax
    fa45:	48 89 85 d0 fd ff ff 	mov    %rax,-0x230(%rbp)
    fa4c:	48 8d 05 79 f6 00 00 	lea    0xf679(%rip),%rax        # 1f0cc <g_7>
    fa53:	48 89 85 d8 fd ff ff 	mov    %rax,-0x228(%rbp)
    fa5a:	48 8d 85 30 ce ff ff 	lea    -0x31d0(%rbp),%rax
    fa61:	48 83 c0 04          	add    $0x4,%rax
    fa65:	48 89 85 e0 fd ff ff 	mov    %rax,-0x220(%rbp)
    fa6c:	48 8d 05 59 f6 00 00 	lea    0xf659(%rip),%rax        # 1f0cc <g_7>
    fa73:	48 89 85 e8 fd ff ff 	mov    %rax,-0x218(%rbp)
    fa7a:	48 c7 85 f0 fd ff ff 	movq   $0x0,-0x210(%rbp)
    fa81:	00 00 00 00 
    fa85:	48 8d 85 88 c9 ff ff 	lea    -0x3678(%rbp),%rax
    fa8c:	48 89 85 f8 fd ff ff 	mov    %rax,-0x208(%rbp)
    fa93:	48 8d 85 88 c9 ff ff 	lea    -0x3678(%rbp),%rax
    fa9a:	48 89 85 00 fe ff ff 	mov    %rax,-0x200(%rbp)
    faa1:	48 c7 85 08 fe ff ff 	movq   $0x0,-0x1f8(%rbp)
    faa8:	00 00 00 00 
    faac:	48 8d 05 15 48 01 00 	lea    0x14815(%rip),%rax        # 242c8 <g_3>
    fab3:	48 89 85 10 fe ff ff 	mov    %rax,-0x1f0(%rbp)
    faba:	48 c7 85 18 fe ff ff 	movq   $0x0,-0x1e8(%rbp)
    fac1:	00 00 00 00 
    fac5:	48 8d 85 88 c9 ff ff 	lea    -0x3678(%rbp),%rax
    facc:	48 89 85 20 fe ff ff 	mov    %rax,-0x1e0(%rbp)
    fad3:	48 8d 85 88 c9 ff ff 	lea    -0x3678(%rbp),%rax
    fada:	48 89 85 28 fe ff ff 	mov    %rax,-0x1d8(%rbp)
    fae1:	48 8d 85 c0 ce ff ff 	lea    -0x3140(%rbp),%rax
    fae8:	48 83 c0 0c          	add    $0xc,%rax
    faec:	48 89 85 30 fe ff ff 	mov    %rax,-0x1d0(%rbp)
    faf3:	48 8d 05 46 fc 00 00 	lea    0xfc46(%rip),%rax        # 1f740 <g_523>
    fafa:	48 89 85 38 fe ff ff 	mov    %rax,-0x1c8(%rbp)
    fb01:	48 8d 85 8c c9 ff ff 	lea    -0x3674(%rbp),%rax
    fb08:	48 89 85 40 fe ff ff 	mov    %rax,-0x1c0(%rbp)
    fb0f:	48 8d 05 2a fc 00 00 	lea    0xfc2a(%rip),%rax        # 1f740 <g_523>
    fb16:	48 89 85 48 fe ff ff 	mov    %rax,-0x1b8(%rbp)
    fb1d:	48 8d 85 c0 ce ff ff 	lea    -0x3140(%rbp),%rax
    fb24:	48 83 c0 0c          	add    $0xc,%rax
    fb28:	48 89 85 50 fe ff ff 	mov    %rax,-0x1b0(%rbp)
    fb2f:	48 8d 85 88 c9 ff ff 	lea    -0x3678(%rbp),%rax
    fb36:	48 89 85 58 fe ff ff 	mov    %rax,-0x1a8(%rbp)
    fb3d:	48 8d 85 c0 ce ff ff 	lea    -0x3140(%rbp),%rax
    fb44:	48 83 c0 10          	add    $0x10,%rax
    fb48:	48 89 85 60 fe ff ff 	mov    %rax,-0x1a0(%rbp)
    fb4f:	48 8d 85 88 c9 ff ff 	lea    -0x3678(%rbp),%rax
    fb56:	48 89 85 68 fe ff ff 	mov    %rax,-0x198(%rbp)
    fb5d:	48 c7 85 70 fe ff ff 	movq   $0x0,-0x190(%rbp)
    fb64:	00 00 00 00 
    fb68:	48 8d 85 88 c9 ff ff 	lea    -0x3678(%rbp),%rax
    fb6f:	48 89 85 78 fe ff ff 	mov    %rax,-0x188(%rbp)
    fb76:	48 8d 85 c0 ce ff ff 	lea    -0x3140(%rbp),%rax
    fb7d:	48 83 c0 10          	add    $0x10,%rax
    fb81:	48 89 85 80 fe ff ff 	mov    %rax,-0x180(%rbp)
    fb88:	48 8d 85 c0 ce ff ff 	lea    -0x3140(%rbp),%rax
    fb8f:	48 83 c0 10          	add    $0x10,%rax
    fb93:	48 89 85 88 fe ff ff 	mov    %rax,-0x178(%rbp)
    fb9a:	48 8d 85 88 c9 ff ff 	lea    -0x3678(%rbp),%rax
    fba1:	48 89 85 90 fe ff ff 	mov    %rax,-0x170(%rbp)
    fba8:	48 8d 85 b8 cd ff ff 	lea    -0x3248(%rbp),%rax
    fbaf:	48 89 85 98 fe ff ff 	mov    %rax,-0x168(%rbp)
    fbb6:	48 8d 85 74 c9 ff ff 	lea    -0x368c(%rbp),%rax
    fbbd:	48 89 85 a0 fe ff ff 	mov    %rax,-0x160(%rbp)
    fbc4:	48 8d 85 b8 cd ff ff 	lea    -0x3248(%rbp),%rax
    fbcb:	48 89 85 a8 fe ff ff 	mov    %rax,-0x158(%rbp)
    fbd2:	48 8d 85 30 ce ff ff 	lea    -0x31d0(%rbp),%rax
    fbd9:	48 83 c0 04          	add    $0x4,%rax
    fbdd:	48 89 85 b0 fe ff ff 	mov    %rax,-0x150(%rbp)
    fbe4:	48 8d 05 55 fb 00 00 	lea    0xfb55(%rip),%rax        # 1f740 <g_523>
    fbeb:	48 89 85 b8 fe ff ff 	mov    %rax,-0x148(%rbp)
    fbf2:	48 8d 85 7c c9 ff ff 	lea    -0x3684(%rbp),%rax
    fbf9:	48 89 85 c0 fe ff ff 	mov    %rax,-0x140(%rbp)
    fc00:	48 8d 05 c5 f4 00 00 	lea    0xf4c5(%rip),%rax        # 1f0cc <g_7>
    fc07:	48 89 85 c8 fe ff ff 	mov    %rax,-0x138(%rbp)
    fc0e:	48 8d 85 88 c9 ff ff 	lea    -0x3678(%rbp),%rax
    fc15:	48 89 85 d0 fe ff ff 	mov    %rax,-0x130(%rbp)
    fc1c:	48 8d 05 a5 46 01 00 	lea    0x146a5(%rip),%rax        # 242c8 <g_3>
    fc23:	48 89 85 d8 fe ff ff 	mov    %rax,-0x128(%rbp)
    fc2a:	48 c7 85 e0 fe ff ff 	movq   $0x0,-0x120(%rbp)
    fc31:	00 00 00 00 
    fc35:	48 c7 85 e8 fe ff ff 	movq   $0x0,-0x118(%rbp)
    fc3c:	00 00 00 00 
    fc40:	48 8d 05 81 46 01 00 	lea    0x14681(%rip),%rax        # 242c8 <g_3>
    fc47:	48 89 85 f0 fe ff ff 	mov    %rax,-0x110(%rbp)
    fc4e:	48 8d 85 88 c9 ff ff 	lea    -0x3678(%rbp),%rax
    fc55:	48 89 85 f8 fe ff ff 	mov    %rax,-0x108(%rbp)
    fc5c:	48 8d 05 65 46 01 00 	lea    0x14665(%rip),%rax        # 242c8 <g_3>
    fc63:	48 89 85 00 ff ff ff 	mov    %rax,-0x100(%rbp)
    fc6a:	48 8d 85 b8 cd ff ff 	lea    -0x3248(%rbp),%rax
    fc71:	48 89 85 08 ff ff ff 	mov    %rax,-0xf8(%rbp)
    fc78:	48 8d 85 30 ce ff ff 	lea    -0x31d0(%rbp),%rax
    fc7f:	48 83 c0 04          	add    $0x4,%rax
    fc83:	48 89 85 10 ff ff ff 	mov    %rax,-0xf0(%rbp)
    fc8a:	48 8d 05 af fa 00 00 	lea    0xfaaf(%rip),%rax        # 1f740 <g_523>
    fc91:	48 89 85 18 ff ff ff 	mov    %rax,-0xe8(%rbp)
    fc98:	48 8d 85 7c c9 ff ff 	lea    -0x3684(%rbp),%rax
    fc9f:	48 89 85 20 ff ff ff 	mov    %rax,-0xe0(%rbp)
    fca6:	48 8d 05 1f f4 00 00 	lea    0xf41f(%rip),%rax        # 1f0cc <g_7>
    fcad:	48 89 85 28 ff ff ff 	mov    %rax,-0xd8(%rbp)
    fcb4:	48 8d 85 7c c9 ff ff 	lea    -0x3684(%rbp),%rax
    fcbb:	48 89 85 30 ff ff ff 	mov    %rax,-0xd0(%rbp)
    fcc2:	48 8d 05 77 fa 00 00 	lea    0xfa77(%rip),%rax        # 1f740 <g_523>
    fcc9:	48 89 85 38 ff ff ff 	mov    %rax,-0xc8(%rbp)
    fcd0:	48 8d 85 c0 ce ff ff 	lea    -0x3140(%rbp),%rax
    fcd7:	48 83 c0 10          	add    $0x10,%rax
    fcdb:	48 89 85 40 ff ff ff 	mov    %rax,-0xc0(%rbp)
    fce2:	48 8d 85 c0 ce ff ff 	lea    -0x3140(%rbp),%rax
    fce9:	48 83 c0 10          	add    $0x10,%rax
    fced:	48 89 85 48 ff ff ff 	mov    %rax,-0xb8(%rbp)
    fcf4:	48 8d 85 88 c9 ff ff 	lea    -0x3678(%rbp),%rax
    fcfb:	48 89 85 50 ff ff ff 	mov    %rax,-0xb0(%rbp)
    fd02:	48 c7 85 58 ff ff ff 	movq   $0x0,-0xa8(%rbp)
    fd09:	00 00 00 00 
    fd0d:	48 8d 85 88 c9 ff ff 	lea    -0x3678(%rbp),%rax
    fd14:	48 89 85 60 ff ff ff 	mov    %rax,-0xa0(%rbp)
    fd1b:	48 8d 85 c0 ce ff ff 	lea    -0x3140(%rbp),%rax
    fd22:	48 83 c0 10          	add    $0x10,%rax
    fd26:	48 89 85 68 ff ff ff 	mov    %rax,-0x98(%rbp)
    fd2d:	48 8d 85 c0 ce ff ff 	lea    -0x3140(%rbp),%rax
    fd34:	48 83 c0 10          	add    $0x10,%rax
    fd38:	48 89 85 70 ff ff ff 	mov    %rax,-0x90(%rbp)
    fd3f:	48 8d 85 88 c9 ff ff 	lea    -0x3678(%rbp),%rax
    fd46:	48 89 85 78 ff ff ff 	mov    %rax,-0x88(%rbp)
    fd4d:	48 8d 85 30 ce ff ff 	lea    -0x31d0(%rbp),%rax
    fd54:	48 83 c0 04          	add    $0x4,%rax
    fd58:	48 89 45 80          	mov    %rax,-0x80(%rbp)
    fd5c:	48 8d 85 8c c9 ff ff 	lea    -0x3674(%rbp),%rax
    fd63:	48 89 45 88          	mov    %rax,-0x78(%rbp)
    fd67:	48 8d 85 30 ce ff ff 	lea    -0x31d0(%rbp),%rax
    fd6e:	48 83 c0 04          	add    $0x4,%rax
    fd72:	48 89 45 90          	mov    %rax,-0x70(%rbp)
    fd76:	48 8d 85 88 c9 ff ff 	lea    -0x3678(%rbp),%rax
    fd7d:	48 89 45 98          	mov    %rax,-0x68(%rbp)
    fd81:	48 8d 85 c0 ce ff ff 	lea    -0x3140(%rbp),%rax
    fd88:	48 83 c0 0c          	add    $0xc,%rax
    fd8c:	48 89 45 a0          	mov    %rax,-0x60(%rbp)
    fd90:	48 8d 05 a9 f9 00 00 	lea    0xf9a9(%rip),%rax        # 1f740 <g_523>
    fd97:	48 89 45 a8          	mov    %rax,-0x58(%rbp)
    fd9b:	48 8d 85 d0 f7 ff ff 	lea    -0x830(%rbp),%rax
    fda2:	48 83 c0 28          	add    $0x28,%rax
    fda6:	48 89 85 40 d5 ff ff 	mov    %rax,-0x2ac0(%rbp)
    fdad:	48 c7 85 48 d5 ff ff 	movq   $0x0,-0x2ab8(%rbp)
    fdb4:	00 00 00 00 
    fdb8:	48 8d 85 d0 f7 ff ff 	lea    -0x830(%rbp),%rax
    fdbf:	48 05 b0 04 00 00    	add    $0x4b0,%rax
    fdc5:	48 89 85 50 d5 ff ff 	mov    %rax,-0x2ab0(%rbp)
    fdcc:	48 c7 85 58 d5 ff ff 	movq   $0x0,-0x2aa8(%rbp)
    fdd3:	00 00 00 00 
    fdd7:	48 8d 85 d0 f7 ff ff 	lea    -0x830(%rbp),%rax
    fdde:	48 83 c0 28          	add    $0x28,%rax
    fde2:	48 89 85 60 d5 ff ff 	mov    %rax,-0x2aa0(%rbp)
    fde9:	48 8d 85 d0 f7 ff ff 	lea    -0x830(%rbp),%rax
    fdf0:	48 05 d0 04 00 00    	add    $0x4d0,%rax
    fdf6:	48 89 85 68 d5 ff ff 	mov    %rax,-0x2a98(%rbp)
    fdfd:	48 8d 85 d0 f7 ff ff 	lea    -0x830(%rbp),%rax
    fe04:	48 05 58 05 00 00    	add    $0x558,%rax
    fe0a:	48 89 85 70 d5 ff ff 	mov    %rax,-0x2a90(%rbp)
    fe11:	48 8d 85 d0 f7 ff ff 	lea    -0x830(%rbp),%rax
    fe18:	48 83 c0 28          	add    $0x28,%rax
    fe1c:	48 89 85 78 d5 ff ff 	mov    %rax,-0x2a88(%rbp)
    fe23:	48 8d 85 d0 f7 ff ff 	lea    -0x830(%rbp),%rax
    fe2a:	48 83 c0 28          	add    $0x28,%rax
    fe2e:	48 89 85 80 d5 ff ff 	mov    %rax,-0x2a80(%rbp)
    fe35:	48 8d 85 d0 f7 ff ff 	lea    -0x830(%rbp),%rax
    fe3c:	48 05 f0 04 00 00    	add    $0x4f0,%rax
    fe42:	48 89 85 88 d5 ff ff 	mov    %rax,-0x2a78(%rbp)
    fe49:	48 c7 85 90 d5 ff ff 	movq   $0x0,-0x2a70(%rbp)
    fe50:	00 00 00 00 
    fe54:	48 8d 85 d0 f7 ff ff 	lea    -0x830(%rbp),%rax
    fe5b:	48 05 f0 04 00 00    	add    $0x4f0,%rax
    fe61:	48 89 85 98 d5 ff ff 	mov    %rax,-0x2a68(%rbp)
    fe68:	48 8d 85 d0 f7 ff ff 	lea    -0x830(%rbp),%rax
    fe6f:	48 83 c0 28          	add    $0x28,%rax
    fe73:	48 89 85 a0 d5 ff ff 	mov    %rax,-0x2a60(%rbp)
    fe7a:	48 8d 85 d0 f7 ff ff 	lea    -0x830(%rbp),%rax
    fe81:	48 83 c0 28          	add    $0x28,%rax
    fe85:	48 89 85 a8 d5 ff ff 	mov    %rax,-0x2a58(%rbp)
    fe8c:	48 8d 85 d0 f7 ff ff 	lea    -0x830(%rbp),%rax
    fe93:	48 05 58 05 00 00    	add    $0x558,%rax
    fe99:	48 89 85 b0 d5 ff ff 	mov    %rax,-0x2a50(%rbp)
    fea0:	48 8d 85 d0 f7 ff ff 	lea    -0x830(%rbp),%rax
    fea7:	48 05 d0 04 00 00    	add    $0x4d0,%rax
    fead:	48 89 85 b8 d5 ff ff 	mov    %rax,-0x2a48(%rbp)
    feb4:	48 8d 85 d0 f7 ff ff 	lea    -0x830(%rbp),%rax
    febb:	48 83 c0 28          	add    $0x28,%rax
    febf:	48 89 85 c0 d5 ff ff 	mov    %rax,-0x2a40(%rbp)
    fec6:	48 8d 85 d0 f7 ff ff 	lea    -0x830(%rbp),%rax
    fecd:	48 05 f8 06 00 00    	add    $0x6f8,%rax
    fed3:	48 89 85 c8 d5 ff ff 	mov    %rax,-0x2a38(%rbp)
    feda:	48 8d 85 d0 f7 ff ff 	lea    -0x830(%rbp),%rax
    fee1:	48 05 c8 03 00 00    	add    $0x3c8,%rax
    fee7:	48 89 85 d0 d5 ff ff 	mov    %rax,-0x2a30(%rbp)
    feee:	48 8d 85 d0 f7 ff ff 	lea    -0x830(%rbp),%rax
    fef5:	48 83 c0 28          	add    $0x28,%rax
    fef9:	48 89 85 d8 d5 ff ff 	mov    %rax,-0x2a28(%rbp)
    ff00:	48 8d 85 d0 f7 ff ff 	lea    -0x830(%rbp),%rax
    ff07:	48 05 10 06 00 00    	add    $0x610,%rax
    ff0d:	48 89 85 e0 d5 ff ff 	mov    %rax,-0x2a20(%rbp)
    ff14:	48 8d 85 d0 f7 ff ff 	lea    -0x830(%rbp),%rax
    ff1b:	48 83 c0 28          	add    $0x28,%rax
    ff1f:	48 89 85 e8 d5 ff ff 	mov    %rax,-0x2a18(%rbp)
    ff26:	48 8d 85 d0 f7 ff ff 	lea    -0x830(%rbp),%rax
    ff2d:	48 05 a0 04 00 00    	add    $0x4a0,%rax
    ff33:	48 89 85 f0 d5 ff ff 	mov    %rax,-0x2a10(%rbp)
    ff3a:	48 8d 85 d0 f7 ff ff 	lea    -0x830(%rbp),%rax
    ff41:	48 05 b8 06 00 00    	add    $0x6b8,%rax
    ff47:	48 89 85 f8 d5 ff ff 	mov    %rax,-0x2a08(%rbp)
    ff4e:	48 8d 85 d0 f7 ff ff 	lea    -0x830(%rbp),%rax
    ff55:	48 05 c8 03 00 00    	add    $0x3c8,%rax
    ff5b:	48 89 85 00 d6 ff ff 	mov    %rax,-0x2a00(%rbp)
    ff62:	48 c7 85 08 d6 ff ff 	movq   $0x0,-0x29f8(%rbp)
    ff69:	00 00 00 00 
    ff6d:	48 8d 85 d0 f7 ff ff 	lea    -0x830(%rbp),%rax
    ff74:	48 05 68 06 00 00    	add    $0x668,%rax
    ff7a:	48 89 85 10 d6 ff ff 	mov    %rax,-0x29f0(%rbp)
    ff81:	48 8d 85 d0 f7 ff ff 	lea    -0x830(%rbp),%rax
    ff88:	48 05 d0 04 00 00    	add    $0x4d0,%rax
    ff8e:	48 89 85 18 d6 ff ff 	mov    %rax,-0x29e8(%rbp)
    ff95:	48 8d 85 d0 f7 ff ff 	lea    -0x830(%rbp),%rax
    ff9c:	48 05 30 06 00 00    	add    $0x630,%rax
    ffa2:	48 89 85 20 d6 ff ff 	mov    %rax,-0x29e0(%rbp)
    ffa9:	48 c7 85 28 d6 ff ff 	movq   $0x0,-0x29d8(%rbp)
    ffb0:	00 00 00 00 
    ffb4:	48 8d 85 d0 f7 ff ff 	lea    -0x830(%rbp),%rax
    ffbb:	48 83 c0 28          	add    $0x28,%rax
    ffbf:	48 89 85 30 d6 ff ff 	mov    %rax,-0x29d0(%rbp)
    ffc6:	48 8d 85 d0 f7 ff ff 	lea    -0x830(%rbp),%rax
    ffcd:	48 83 c0 28          	add    $0x28,%rax
    ffd1:	48 89 85 38 d6 ff ff 	mov    %rax,-0x29c8(%rbp)
    ffd8:	48 8d 85 d0 f7 ff ff 	lea    -0x830(%rbp),%rax
    ffdf:	48 05 18 01 00 00    	add    $0x118,%rax
    ffe5:	48 89 85 40 d6 ff ff 	mov    %rax,-0x29c0(%rbp)
    ffec:	48 8d 85 d0 f7 ff ff 	lea    -0x830(%rbp),%rax
    fff3:	48 05 f0 04 00 00    	add    $0x4f0,%rax
    fff9:	48 89 85 48 d6 ff ff 	mov    %rax,-0x29b8(%rbp)
   10000:	48 8d 85 d0 f7 ff ff 	lea    -0x830(%rbp),%rax
   10007:	48 83 c0 28          	add    $0x28,%rax
   1000b:	48 89 85 50 d6 ff ff 	mov    %rax,-0x29b0(%rbp)
   10012:	48 c7 85 58 d6 ff ff 	movq   $0x0,-0x29a8(%rbp)
   10019:	00 00 00 00 
   1001d:	48 8d 85 d0 f7 ff ff 	lea    -0x830(%rbp),%rax
   10024:	48 05 58 05 00 00    	add    $0x558,%rax
   1002a:	48 89 85 60 d6 ff ff 	mov    %rax,-0x29a0(%rbp)
   10031:	48 8d 85 d0 f7 ff ff 	lea    -0x830(%rbp),%rax
   10038:	48 05 b0 04 00 00    	add    $0x4b0,%rax
   1003e:	48 89 85 68 d6 ff ff 	mov    %rax,-0x2998(%rbp)
   10045:	48 8d 85 d0 f7 ff ff 	lea    -0x830(%rbp),%rax
   1004c:	48 05 68 06 00 00    	add    $0x668,%rax
   10052:	48 89 85 70 d6 ff ff 	mov    %rax,-0x2990(%rbp)
   10059:	48 8d 85 d0 f7 ff ff 	lea    -0x830(%rbp),%rax
   10060:	48 05 f8 06 00 00    	add    $0x6f8,%rax
   10066:	48 89 85 78 d6 ff ff 	mov    %rax,-0x2988(%rbp)
   1006d:	48 8d 85 d0 f7 ff ff 	lea    -0x830(%rbp),%rax
   10074:	48 83 c0 28          	add    $0x28,%rax
   10078:	48 89 85 80 d6 ff ff 	mov    %rax,-0x2980(%rbp)
   1007f:	48 8d 85 d0 f7 ff ff 	lea    -0x830(%rbp),%rax
   10086:	48 05 b8 06 00 00    	add    $0x6b8,%rax
   1008c:	48 89 85 88 d6 ff ff 	mov    %rax,-0x2978(%rbp)
   10093:	48 8d 85 d0 f7 ff ff 	lea    -0x830(%rbp),%rax
   1009a:	48 05 10 06 00 00    	add    $0x610,%rax
   100a0:	48 89 85 90 d6 ff ff 	mov    %rax,-0x2970(%rbp)
   100a7:	48 8d 85 d0 f7 ff ff 	lea    -0x830(%rbp),%rax
   100ae:	48 05 18 07 00 00    	add    $0x718,%rax
   100b4:	48 89 85 98 d6 ff ff 	mov    %rax,-0x2968(%rbp)
   100bb:	48 8d 85 d0 f7 ff ff 	lea    -0x830(%rbp),%rax
   100c2:	48 05 10 06 00 00    	add    $0x610,%rax
   100c8:	48 89 85 a0 d6 ff ff 	mov    %rax,-0x2960(%rbp)
   100cf:	48 8d 85 d0 f7 ff ff 	lea    -0x830(%rbp),%rax
   100d6:	48 05 b8 06 00 00    	add    $0x6b8,%rax
   100dc:	48 89 85 a8 d6 ff ff 	mov    %rax,-0x2958(%rbp)
   100e3:	48 8d 85 d0 f7 ff ff 	lea    -0x830(%rbp),%rax
   100ea:	48 83 c0 28          	add    $0x28,%rax
   100ee:	48 89 85 b0 d6 ff ff 	mov    %rax,-0x2950(%rbp)
   100f5:	48 8d 85 d0 f7 ff ff 	lea    -0x830(%rbp),%rax
   100fc:	48 05 f8 06 00 00    	add    $0x6f8,%rax
   10102:	48 89 85 b8 d6 ff ff 	mov    %rax,-0x2948(%rbp)
   10109:	48 8d 85 d0 f7 ff ff 	lea    -0x830(%rbp),%rax
   10110:	48 05 68 06 00 00    	add    $0x668,%rax
   10116:	48 89 85 c0 d6 ff ff 	mov    %rax,-0x2940(%rbp)
   1011d:	48 8d 85 d0 f7 ff ff 	lea    -0x830(%rbp),%rax
   10124:	48 05 b0 04 00 00    	add    $0x4b0,%rax
   1012a:	48 89 85 c8 d6 ff ff 	mov    %rax,-0x2938(%rbp)
   10131:	48 8d 85 d0 f7 ff ff 	lea    -0x830(%rbp),%rax
   10138:	48 05 58 05 00 00    	add    $0x558,%rax
   1013e:	48 89 85 d0 d6 ff ff 	mov    %rax,-0x2930(%rbp)
   10145:	48 c7 85 d8 d6 ff ff 	movq   $0x0,-0x2928(%rbp)
   1014c:	00 00 00 00 
   10150:	48 8d 85 d0 f7 ff ff 	lea    -0x830(%rbp),%rax
   10157:	48 83 c0 28          	add    $0x28,%rax
   1015b:	48 89 85 e0 d6 ff ff 	mov    %rax,-0x2920(%rbp)
   10162:	48 8d 85 d0 f7 ff ff 	lea    -0x830(%rbp),%rax
   10169:	48 05 f0 04 00 00    	add    $0x4f0,%rax
   1016f:	48 89 85 e8 d6 ff ff 	mov    %rax,-0x2918(%rbp)
   10176:	48 8d 85 d0 f7 ff ff 	lea    -0x830(%rbp),%rax
   1017d:	48 05 18 01 00 00    	add    $0x118,%rax
   10183:	48 89 85 f0 d6 ff ff 	mov    %rax,-0x2910(%rbp)
   1018a:	48 8d 85 d0 f7 ff ff 	lea    -0x830(%rbp),%rax
   10191:	48 83 c0 28          	add    $0x28,%rax
   10195:	48 89 85 f8 d6 ff ff 	mov    %rax,-0x2908(%rbp)
   1019c:	48 8d 85 d0 f7 ff ff 	lea    -0x830(%rbp),%rax
   101a3:	48 83 c0 28          	add    $0x28,%rax
   101a7:	48 89 85 00 d7 ff ff 	mov    %rax,-0x2900(%rbp)
   101ae:	48 c7 85 08 d7 ff ff 	movq   $0x0,-0x28f8(%rbp)
   101b5:	00 00 00 00 
   101b9:	48 8d 85 d0 f7 ff ff 	lea    -0x830(%rbp),%rax
   101c0:	48 05 30 06 00 00    	add    $0x630,%rax
   101c6:	48 89 85 10 d7 ff ff 	mov    %rax,-0x28f0(%rbp)
   101cd:	48 8d 85 d0 f7 ff ff 	lea    -0x830(%rbp),%rax
   101d4:	48 05 d0 04 00 00    	add    $0x4d0,%rax
   101da:	48 89 85 18 d7 ff ff 	mov    %rax,-0x28e8(%rbp)
   101e1:	48 8d 85 d0 f7 ff ff 	lea    -0x830(%rbp),%rax
   101e8:	48 05 68 06 00 00    	add    $0x668,%rax
   101ee:	48 89 85 20 d7 ff ff 	mov    %rax,-0x28e0(%rbp)
   101f5:	48 c7 85 28 d7 ff ff 	movq   $0x0,-0x28d8(%rbp)
   101fc:	00 00 00 00 
   10200:	48 8d 85 d0 f7 ff ff 	lea    -0x830(%rbp),%rax
   10207:	48 05 c8 03 00 00    	add    $0x3c8,%rax
   1020d:	48 89 85 30 d7 ff ff 	mov    %rax,-0x28d0(%rbp)
   10214:	48 8d 85 d0 f7 ff ff 	lea    -0x830(%rbp),%rax
   1021b:	48 05 b8 06 00 00    	add    $0x6b8,%rax
   10221:	48 89 85 38 d7 ff ff 	mov    %rax,-0x28c8(%rbp)
   10228:	48 8d 85 d0 f7 ff ff 	lea    -0x830(%rbp),%rax
   1022f:	48 05 a0 04 00 00    	add    $0x4a0,%rax
   10235:	48 89 85 40 d7 ff ff 	mov    %rax,-0x28c0(%rbp)
   1023c:	48 8d 85 d0 f7 ff ff 	lea    -0x830(%rbp),%rax
   10243:	48 83 c0 28          	add    $0x28,%rax
   10247:	48 89 85 48 d7 ff ff 	mov    %rax,-0x28b8(%rbp)
   1024e:	48 8d 85 d0 f7 ff ff 	lea    -0x830(%rbp),%rax
   10255:	48 05 10 06 00 00    	add    $0x610,%rax
   1025b:	48 89 85 50 d7 ff ff 	mov    %rax,-0x28b0(%rbp)
   10262:	48 8d 85 d0 f7 ff ff 	lea    -0x830(%rbp),%rax
   10269:	48 83 c0 28          	add    $0x28,%rax
   1026d:	48 89 85 58 d7 ff ff 	mov    %rax,-0x28a8(%rbp)
   10274:	48 8d 85 d0 f7 ff ff 	lea    -0x830(%rbp),%rax
   1027b:	48 05 c8 03 00 00    	add    $0x3c8,%rax
   10281:	48 89 85 60 d7 ff ff 	mov    %rax,-0x28a0(%rbp)
   10288:	48 8d 85 d0 f7 ff ff 	lea    -0x830(%rbp),%rax
   1028f:	48 05 f8 06 00 00    	add    $0x6f8,%rax
   10295:	48 89 85 68 d7 ff ff 	mov    %rax,-0x2898(%rbp)
   1029c:	48 8d 85 d0 f7 ff ff 	lea    -0x830(%rbp),%rax
   102a3:	48 83 c0 28          	add    $0x28,%rax
   102a7:	48 89 85 70 d7 ff ff 	mov    %rax,-0x2890(%rbp)
   102ae:	48 8d 85 d0 f7 ff ff 	lea    -0x830(%rbp),%rax
   102b5:	48 05 d0 04 00 00    	add    $0x4d0,%rax
   102bb:	48 89 85 78 d7 ff ff 	mov    %rax,-0x2888(%rbp)
   102c2:	48 8d 85 d0 f7 ff ff 	lea    -0x830(%rbp),%rax
   102c9:	48 05 58 05 00 00    	add    $0x558,%rax
   102cf:	48 89 85 80 d7 ff ff 	mov    %rax,-0x2880(%rbp)
   102d6:	48 8d 85 d0 f7 ff ff 	lea    -0x830(%rbp),%rax
   102dd:	48 83 c0 28          	add    $0x28,%rax
   102e1:	48 89 85 88 d7 ff ff 	mov    %rax,-0x2878(%rbp)
   102e8:	48 8d 85 d0 f7 ff ff 	lea    -0x830(%rbp),%rax
   102ef:	48 83 c0 28          	add    $0x28,%rax
   102f3:	48 89 85 90 d7 ff ff 	mov    %rax,-0x2870(%rbp)
   102fa:	48 8d 85 d0 f7 ff ff 	lea    -0x830(%rbp),%rax
   10301:	48 05 f0 04 00 00    	add    $0x4f0,%rax
   10307:	48 89 85 98 d7 ff ff 	mov    %rax,-0x2868(%rbp)
   1030e:	48 c7 85 a0 d7 ff ff 	movq   $0x0,-0x2860(%rbp)
   10315:	00 00 00 00 
   10319:	48 8d 85 d0 f7 ff ff 	lea    -0x830(%rbp),%rax
   10320:	48 05 f0 04 00 00    	add    $0x4f0,%rax
   10326:	48 89 85 a8 d7 ff ff 	mov    %rax,-0x2858(%rbp)
   1032d:	48 8d 85 d0 f7 ff ff 	lea    -0x830(%rbp),%rax
   10334:	48 83 c0 28          	add    $0x28,%rax
   10338:	48 89 85 b0 d7 ff ff 	mov    %rax,-0x2850(%rbp)
   1033f:	48 8d 85 d0 f7 ff ff 	lea    -0x830(%rbp),%rax
   10346:	48 83 c0 28          	add    $0x28,%rax
   1034a:	48 89 85 b8 d7 ff ff 	mov    %rax,-0x2848(%rbp)
   10351:	48 8d 85 d0 f7 ff ff 	lea    -0x830(%rbp),%rax
   10358:	48 05 58 05 00 00    	add    $0x558,%rax
   1035e:	48 89 85 c0 d7 ff ff 	mov    %rax,-0x2840(%rbp)
   10365:	48 8d 85 d0 f7 ff ff 	lea    -0x830(%rbp),%rax
   1036c:	48 05 d0 04 00 00    	add    $0x4d0,%rax
   10372:	48 89 85 c8 d7 ff ff 	mov    %rax,-0x2838(%rbp)
   10379:	48 8d 85 d0 f7 ff ff 	lea    -0x830(%rbp),%rax
   10380:	48 83 c0 28          	add    $0x28,%rax
   10384:	48 89 85 d0 d7 ff ff 	mov    %rax,-0x2830(%rbp)
   1038b:	48 8d 85 d0 f7 ff ff 	lea    -0x830(%rbp),%rax
   10392:	48 05 f8 06 00 00    	add    $0x6f8,%rax
   10398:	48 89 85 d8 d7 ff ff 	mov    %rax,-0x2828(%rbp)
   1039f:	48 8d 85 d0 f7 ff ff 	lea    -0x830(%rbp),%rax
   103a6:	48 05 c8 03 00 00    	add    $0x3c8,%rax
   103ac:	48 89 85 e0 d7 ff ff 	mov    %rax,-0x2820(%rbp)
   103b3:	48 8d 85 d0 f7 ff ff 	lea    -0x830(%rbp),%rax
   103ba:	48 83 c0 28          	add    $0x28,%rax
   103be:	48 89 85 e8 d7 ff ff 	mov    %rax,-0x2818(%rbp)
   103c5:	48 8d 85 d0 f7 ff ff 	lea    -0x830(%rbp),%rax
   103cc:	48 05 10 06 00 00    	add    $0x610,%rax
   103d2:	48 89 85 f0 d7 ff ff 	mov    %rax,-0x2810(%rbp)
   103d9:	48 8d 85 d0 f7 ff ff 	lea    -0x830(%rbp),%rax
   103e0:	48 83 c0 28          	add    $0x28,%rax
   103e4:	48 89 85 f8 d7 ff ff 	mov    %rax,-0x2808(%rbp)
   103eb:	48 8d 85 d0 f7 ff ff 	lea    -0x830(%rbp),%rax
   103f2:	48 05 a0 04 00 00    	add    $0x4a0,%rax
   103f8:	48 89 85 00 d8 ff ff 	mov    %rax,-0x2800(%rbp)
   103ff:	48 8d 85 d0 f7 ff ff 	lea    -0x830(%rbp),%rax
   10406:	48 05 b8 06 00 00    	add    $0x6b8,%rax
   1040c:	48 89 85 08 d8 ff ff 	mov    %rax,-0x27f8(%rbp)
   10413:	48 8d 85 d0 f7 ff ff 	lea    -0x830(%rbp),%rax
   1041a:	48 05 c8 03 00 00    	add    $0x3c8,%rax
   10420:	48 89 85 10 d8 ff ff 	mov    %rax,-0x27f0(%rbp)
   10427:	48 c7 85 18 d8 ff ff 	movq   $0x0,-0x27e8(%rbp)
   1042e:	00 00 00 00 
   10432:	48 8d 85 d0 f7 ff ff 	lea    -0x830(%rbp),%rax
   10439:	48 05 68 06 00 00    	add    $0x668,%rax
   1043f:	48 89 85 20 d8 ff ff 	mov    %rax,-0x27e0(%rbp)
   10446:	48 8d 85 d0 f7 ff ff 	lea    -0x830(%rbp),%rax
   1044d:	48 05 d0 04 00 00    	add    $0x4d0,%rax
   10453:	48 89 85 28 d8 ff ff 	mov    %rax,-0x27d8(%rbp)
   1045a:	48 8d 85 d0 f7 ff ff 	lea    -0x830(%rbp),%rax
   10461:	48 05 30 06 00 00    	add    $0x630,%rax
   10467:	48 89 85 30 d8 ff ff 	mov    %rax,-0x27d0(%rbp)
   1046e:	48 c7 85 38 d8 ff ff 	movq   $0x0,-0x27c8(%rbp)
   10475:	00 00 00 00 
   10479:	48 8d 85 d0 f7 ff ff 	lea    -0x830(%rbp),%rax
   10480:	48 83 c0 28          	add    $0x28,%rax
   10484:	48 89 85 40 d8 ff ff 	mov    %rax,-0x27c0(%rbp)
   1048b:	48 8d 85 d0 f7 ff ff 	lea    -0x830(%rbp),%rax
   10492:	48 83 c0 28          	add    $0x28,%rax
   10496:	48 89 85 48 d8 ff ff 	mov    %rax,-0x27b8(%rbp)
   1049d:	48 8d 85 d0 f7 ff ff 	lea    -0x830(%rbp),%rax
   104a4:	48 05 18 01 00 00    	add    $0x118,%rax
   104aa:	48 89 85 50 d8 ff ff 	mov    %rax,-0x27b0(%rbp)
   104b1:	48 8d 85 d0 f7 ff ff 	lea    -0x830(%rbp),%rax
   104b8:	48 05 f0 04 00 00    	add    $0x4f0,%rax
   104be:	48 89 85 58 d8 ff ff 	mov    %rax,-0x27a8(%rbp)
   104c5:	48 8d 85 d0 f7 ff ff 	lea    -0x830(%rbp),%rax
   104cc:	48 83 c0 28          	add    $0x28,%rax
   104d0:	48 89 85 60 d8 ff ff 	mov    %rax,-0x27a0(%rbp)
   104d7:	48 c7 85 68 d8 ff ff 	movq   $0x0,-0x2798(%rbp)
   104de:	00 00 00 00 
   104e2:	48 8d 85 d0 f7 ff ff 	lea    -0x830(%rbp),%rax
   104e9:	48 05 58 05 00 00    	add    $0x558,%rax
   104ef:	48 89 85 70 d8 ff ff 	mov    %rax,-0x2790(%rbp)
   104f6:	48 8d 85 d0 f7 ff ff 	lea    -0x830(%rbp),%rax
   104fd:	48 05 b0 04 00 00    	add    $0x4b0,%rax
   10503:	48 89 85 78 d8 ff ff 	mov    %rax,-0x2788(%rbp)
   1050a:	48 8d 85 d0 f7 ff ff 	lea    -0x830(%rbp),%rax
   10511:	48 05 68 06 00 00    	add    $0x668,%rax
   10517:	48 89 85 80 d8 ff ff 	mov    %rax,-0x2780(%rbp)
   1051e:	48 8d 85 d0 f7 ff ff 	lea    -0x830(%rbp),%rax
   10525:	48 05 f8 06 00 00    	add    $0x6f8,%rax
   1052b:	48 89 85 88 d8 ff ff 	mov    %rax,-0x2778(%rbp)
   10532:	48 8d 85 d0 f7 ff ff 	lea    -0x830(%rbp),%rax
   10539:	48 83 c0 28          	add    $0x28,%rax
   1053d:	48 89 85 90 d8 ff ff 	mov    %rax,-0x2770(%rbp)
   10544:	48 8d 85 d0 f7 ff ff 	lea    -0x830(%rbp),%rax
   1054b:	48 05 b8 06 00 00    	add    $0x6b8,%rax
   10551:	48 89 85 98 d8 ff ff 	mov    %rax,-0x2768(%rbp)
   10558:	48 8d 85 d0 f7 ff ff 	lea    -0x830(%rbp),%rax
   1055f:	48 05 10 06 00 00    	add    $0x610,%rax
   10565:	48 89 85 a0 d8 ff ff 	mov    %rax,-0x2760(%rbp)
   1056c:	48 8d 85 d0 f7 ff ff 	lea    -0x830(%rbp),%rax
   10573:	48 05 18 07 00 00    	add    $0x718,%rax
   10579:	48 89 85 a8 d8 ff ff 	mov    %rax,-0x2758(%rbp)
   10580:	48 8d 85 d0 f7 ff ff 	lea    -0x830(%rbp),%rax
   10587:	48 05 10 06 00 00    	add    $0x610,%rax
   1058d:	48 89 85 b0 d8 ff ff 	mov    %rax,-0x2750(%rbp)
   10594:	48 8d 85 d0 f7 ff ff 	lea    -0x830(%rbp),%rax
   1059b:	48 05 b8 06 00 00    	add    $0x6b8,%rax
   105a1:	48 89 85 b8 d8 ff ff 	mov    %rax,-0x2748(%rbp)
   105a8:	48 8d 85 d0 f7 ff ff 	lea    -0x830(%rbp),%rax
   105af:	48 83 c0 28          	add    $0x28,%rax
   105b3:	48 89 85 c0 d8 ff ff 	mov    %rax,-0x2740(%rbp)
   105ba:	48 8d 85 d0 f7 ff ff 	lea    -0x830(%rbp),%rax
   105c1:	48 05 f8 06 00 00    	add    $0x6f8,%rax
   105c7:	48 89 85 c8 d8 ff ff 	mov    %rax,-0x2738(%rbp)
   105ce:	48 8d 85 d0 f7 ff ff 	lea    -0x830(%rbp),%rax
   105d5:	48 05 68 06 00 00    	add    $0x668,%rax
   105db:	48 89 85 d0 d8 ff ff 	mov    %rax,-0x2730(%rbp)
   105e2:	48 8d 85 d0 f7 ff ff 	lea    -0x830(%rbp),%rax
   105e9:	48 05 b0 04 00 00    	add    $0x4b0,%rax
   105ef:	48 89 85 d8 d8 ff ff 	mov    %rax,-0x2728(%rbp)
   105f6:	48 8d 85 d0 f7 ff ff 	lea    -0x830(%rbp),%rax
   105fd:	48 05 58 05 00 00    	add    $0x558,%rax
   10603:	48 89 85 e0 d8 ff ff 	mov    %rax,-0x2720(%rbp)
   1060a:	48 c7 85 e8 d8 ff ff 	movq   $0x0,-0x2718(%rbp)
   10611:	00 00 00 00 
   10615:	48 8d 85 d0 f7 ff ff 	lea    -0x830(%rbp),%rax
   1061c:	48 83 c0 28          	add    $0x28,%rax
   10620:	48 89 85 f0 d8 ff ff 	mov    %rax,-0x2710(%rbp)
   10627:	48 8d 85 d0 f7 ff ff 	lea    -0x830(%rbp),%rax
   1062e:	48 05 f0 04 00 00    	add    $0x4f0,%rax
   10634:	48 89 85 f8 d8 ff ff 	mov    %rax,-0x2708(%rbp)
   1063b:	48 8d 85 d0 f7 ff ff 	lea    -0x830(%rbp),%rax
   10642:	48 05 18 01 00 00    	add    $0x118,%rax
   10648:	48 89 85 00 d9 ff ff 	mov    %rax,-0x2700(%rbp)
   1064f:	48 8d 85 d0 f7 ff ff 	lea    -0x830(%rbp),%rax
   10656:	48 83 c0 28          	add    $0x28,%rax
   1065a:	48 89 85 08 d9 ff ff 	mov    %rax,-0x26f8(%rbp)
   10661:	48 8d 85 d0 f7 ff ff 	lea    -0x830(%rbp),%rax
   10668:	48 83 c0 28          	add    $0x28,%rax
   1066c:	48 89 85 10 d9 ff ff 	mov    %rax,-0x26f0(%rbp)
   10673:	48 c7 85 18 d9 ff ff 	movq   $0x0,-0x26e8(%rbp)
   1067a:	00 00 00 00 
   1067e:	48 8d 85 d0 f7 ff ff 	lea    -0x830(%rbp),%rax
   10685:	48 05 30 06 00 00    	add    $0x630,%rax
   1068b:	48 89 85 20 d9 ff ff 	mov    %rax,-0x26e0(%rbp)
   10692:	48 8d 85 d0 f7 ff ff 	lea    -0x830(%rbp),%rax
   10699:	48 05 d0 04 00 00    	add    $0x4d0,%rax
   1069f:	48 89 85 28 d9 ff ff 	mov    %rax,-0x26d8(%rbp)
   106a6:	48 8d 85 d0 f7 ff ff 	lea    -0x830(%rbp),%rax
   106ad:	48 05 68 06 00 00    	add    $0x668,%rax
   106b3:	48 89 85 30 d9 ff ff 	mov    %rax,-0x26d0(%rbp)
   106ba:	48 c7 85 38 d9 ff ff 	movq   $0x0,-0x26c8(%rbp)
   106c1:	00 00 00 00 
   106c5:	48 8d 85 d0 f7 ff ff 	lea    -0x830(%rbp),%rax
   106cc:	48 05 c8 03 00 00    	add    $0x3c8,%rax
   106d2:	48 89 85 40 d9 ff ff 	mov    %rax,-0x26c0(%rbp)
   106d9:	48 8d 85 d0 f7 ff ff 	lea    -0x830(%rbp),%rax
   106e0:	48 05 b8 06 00 00    	add    $0x6b8,%rax
   106e6:	48 89 85 48 d9 ff ff 	mov    %rax,-0x26b8(%rbp)
   106ed:	48 8d 85 d0 f7 ff ff 	lea    -0x830(%rbp),%rax
   106f4:	48 05 a0 04 00 00    	add    $0x4a0,%rax
   106fa:	48 89 85 50 d9 ff ff 	mov    %rax,-0x26b0(%rbp)
   10701:	48 8d 85 d0 f7 ff ff 	lea    -0x830(%rbp),%rax
   10708:	48 83 c0 28          	add    $0x28,%rax
   1070c:	48 89 85 58 d9 ff ff 	mov    %rax,-0x26a8(%rbp)
   10713:	48 8d 85 d0 f7 ff ff 	lea    -0x830(%rbp),%rax
   1071a:	48 05 10 06 00 00    	add    $0x610,%rax
   10720:	48 89 85 60 d9 ff ff 	mov    %rax,-0x26a0(%rbp)
   10727:	48 8d 85 d0 f7 ff ff 	lea    -0x830(%rbp),%rax
   1072e:	48 83 c0 28          	add    $0x28,%rax
   10732:	48 89 85 68 d9 ff ff 	mov    %rax,-0x2698(%rbp)
   10739:	48 8d 85 d0 f7 ff ff 	lea    -0x830(%rbp),%rax
   10740:	48 05 c8 03 00 00    	add    $0x3c8,%rax
   10746:	48 89 85 70 d9 ff ff 	mov    %rax,-0x2690(%rbp)
   1074d:	48 8d 85 d0 f7 ff ff 	lea    -0x830(%rbp),%rax
   10754:	48 05 f8 06 00 00    	add    $0x6f8,%rax
   1075a:	48 89 85 78 d9 ff ff 	mov    %rax,-0x2688(%rbp)
   10761:	48 8d 85 d0 f7 ff ff 	lea    -0x830(%rbp),%rax
   10768:	48 83 c0 28          	add    $0x28,%rax
   1076c:	48 89 85 80 d9 ff ff 	mov    %rax,-0x2680(%rbp)
   10773:	48 8d 85 d0 f7 ff ff 	lea    -0x830(%rbp),%rax
   1077a:	48 05 d0 04 00 00    	add    $0x4d0,%rax
   10780:	48 89 85 88 d9 ff ff 	mov    %rax,-0x2678(%rbp)
   10787:	48 8d 85 d0 f7 ff ff 	lea    -0x830(%rbp),%rax
   1078e:	48 05 58 05 00 00    	add    $0x558,%rax
   10794:	48 89 85 90 d9 ff ff 	mov    %rax,-0x2670(%rbp)
   1079b:	48 8d 85 d0 f7 ff ff 	lea    -0x830(%rbp),%rax
   107a2:	48 83 c0 28          	add    $0x28,%rax
   107a6:	48 89 85 98 d9 ff ff 	mov    %rax,-0x2668(%rbp)
   107ad:	48 8d 85 d0 f7 ff ff 	lea    -0x830(%rbp),%rax
   107b4:	48 83 c0 28          	add    $0x28,%rax
   107b8:	48 89 85 a0 d9 ff ff 	mov    %rax,-0x2660(%rbp)
   107bf:	48 8d 85 d0 f7 ff ff 	lea    -0x830(%rbp),%rax
   107c6:	48 05 f0 04 00 00    	add    $0x4f0,%rax
   107cc:	48 89 85 a8 d9 ff ff 	mov    %rax,-0x2658(%rbp)
   107d3:	48 c7 85 b0 d9 ff ff 	movq   $0x0,-0x2650(%rbp)
   107da:	00 00 00 00 
   107de:	48 8d 85 d0 f7 ff ff 	lea    -0x830(%rbp),%rax
   107e5:	48 05 f0 04 00 00    	add    $0x4f0,%rax
   107eb:	48 89 85 b8 d9 ff ff 	mov    %rax,-0x2648(%rbp)
   107f2:	48 8d 85 d0 f7 ff ff 	lea    -0x830(%rbp),%rax
   107f9:	48 83 c0 28          	add    $0x28,%rax
   107fd:	48 89 85 c0 d9 ff ff 	mov    %rax,-0x2640(%rbp)
   10804:	48 8d 85 d0 f7 ff ff 	lea    -0x830(%rbp),%rax
   1080b:	48 83 c0 28          	add    $0x28,%rax
   1080f:	48 89 85 c8 d9 ff ff 	mov    %rax,-0x2638(%rbp)
   10816:	48 8d 85 d0 f7 ff ff 	lea    -0x830(%rbp),%rax
   1081d:	48 05 58 05 00 00    	add    $0x558,%rax
   10823:	48 89 85 d0 d9 ff ff 	mov    %rax,-0x2630(%rbp)
   1082a:	48 8d 85 d0 f7 ff ff 	lea    -0x830(%rbp),%rax
   10831:	48 05 d0 04 00 00    	add    $0x4d0,%rax
   10837:	48 89 85 d8 d9 ff ff 	mov    %rax,-0x2628(%rbp)
   1083e:	48 8d 85 d0 f7 ff ff 	lea    -0x830(%rbp),%rax
   10845:	48 83 c0 28          	add    $0x28,%rax
   10849:	48 89 85 e0 d9 ff ff 	mov    %rax,-0x2620(%rbp)
   10850:	48 8d 85 d0 f7 ff ff 	lea    -0x830(%rbp),%rax
   10857:	48 05 f8 06 00 00    	add    $0x6f8,%rax
   1085d:	48 89 85 e8 d9 ff ff 	mov    %rax,-0x2618(%rbp)
   10864:	48 8d 85 d0 f7 ff ff 	lea    -0x830(%rbp),%rax
   1086b:	48 05 c8 03 00 00    	add    $0x3c8,%rax
   10871:	48 89 85 f0 d9 ff ff 	mov    %rax,-0x2610(%rbp)
   10878:	48 8d 85 d0 f7 ff ff 	lea    -0x830(%rbp),%rax
   1087f:	48 83 c0 28          	add    $0x28,%rax
   10883:	48 89 85 f8 d9 ff ff 	mov    %rax,-0x2608(%rbp)
   1088a:	48 8d 85 d0 f7 ff ff 	lea    -0x830(%rbp),%rax
   10891:	48 05 10 06 00 00    	add    $0x610,%rax
   10897:	48 89 85 00 da ff ff 	mov    %rax,-0x2600(%rbp)
   1089e:	48 8d 85 d0 f7 ff ff 	lea    -0x830(%rbp),%rax
   108a5:	48 83 c0 28          	add    $0x28,%rax
   108a9:	48 89 85 08 da ff ff 	mov    %rax,-0x25f8(%rbp)
   108b0:	48 8d 85 d0 f7 ff ff 	lea    -0x830(%rbp),%rax
   108b7:	48 05 a0 04 00 00    	add    $0x4a0,%rax
   108bd:	48 89 85 10 da ff ff 	mov    %rax,-0x25f0(%rbp)
   108c4:	48 8d 85 d0 f7 ff ff 	lea    -0x830(%rbp),%rax
   108cb:	48 05 b8 06 00 00    	add    $0x6b8,%rax
   108d1:	48 89 85 18 da ff ff 	mov    %rax,-0x25e8(%rbp)
   108d8:	48 8d 85 d0 f7 ff ff 	lea    -0x830(%rbp),%rax
   108df:	48 05 c8 03 00 00    	add    $0x3c8,%rax
   108e5:	48 89 85 20 da ff ff 	mov    %rax,-0x25e0(%rbp)
   108ec:	48 c7 85 28 da ff ff 	movq   $0x0,-0x25d8(%rbp)
   108f3:	00 00 00 00 
   108f7:	48 8d 85 d0 f7 ff ff 	lea    -0x830(%rbp),%rax
   108fe:	48 05 68 06 00 00    	add    $0x668,%rax
   10904:	48 89 85 30 da ff ff 	mov    %rax,-0x25d0(%rbp)
   1090b:	48 8d 85 d0 f7 ff ff 	lea    -0x830(%rbp),%rax
   10912:	48 05 d0 04 00 00    	add    $0x4d0,%rax
   10918:	48 89 85 38 da ff ff 	mov    %rax,-0x25c8(%rbp)
   1091f:	48 8d 85 d0 f7 ff ff 	lea    -0x830(%rbp),%rax
   10926:	48 05 30 06 00 00    	add    $0x630,%rax
   1092c:	48 89 85 40 da ff ff 	mov    %rax,-0x25c0(%rbp)
   10933:	48 c7 85 48 da ff ff 	movq   $0x0,-0x25b8(%rbp)
   1093a:	00 00 00 00 
   1093e:	48 8d 85 d0 f7 ff ff 	lea    -0x830(%rbp),%rax
   10945:	48 83 c0 28          	add    $0x28,%rax
   10949:	48 89 85 50 da ff ff 	mov    %rax,-0x25b0(%rbp)
   10950:	48 8d 85 d0 f7 ff ff 	lea    -0x830(%rbp),%rax
   10957:	48 83 c0 28          	add    $0x28,%rax
   1095b:	48 89 85 58 da ff ff 	mov    %rax,-0x25a8(%rbp)
   10962:	48 8d 85 d0 f7 ff ff 	lea    -0x830(%rbp),%rax
   10969:	48 05 18 01 00 00    	add    $0x118,%rax
   1096f:	48 89 85 60 da ff ff 	mov    %rax,-0x25a0(%rbp)
   10976:	48 8d 85 d0 f7 ff ff 	lea    -0x830(%rbp),%rax
   1097d:	48 05 f0 04 00 00    	add    $0x4f0,%rax
   10983:	48 89 85 68 da ff ff 	mov    %rax,-0x2598(%rbp)
   1098a:	48 8d 85 d0 f7 ff ff 	lea    -0x830(%rbp),%rax
   10991:	48 83 c0 28          	add    $0x28,%rax
   10995:	48 89 85 70 da ff ff 	mov    %rax,-0x2590(%rbp)
   1099c:	48 c7 85 78 da ff ff 	movq   $0x0,-0x2588(%rbp)
   109a3:	00 00 00 00 
   109a7:	48 8d 85 d0 f7 ff ff 	lea    -0x830(%rbp),%rax
   109ae:	48 05 58 05 00 00    	add    $0x558,%rax
   109b4:	48 89 85 80 da ff ff 	mov    %rax,-0x2580(%rbp)
   109bb:	48 8d 85 d0 f7 ff ff 	lea    -0x830(%rbp),%rax
   109c2:	48 05 b0 04 00 00    	add    $0x4b0,%rax
   109c8:	48 89 85 88 da ff ff 	mov    %rax,-0x2578(%rbp)
   109cf:	48 8d 85 d0 f7 ff ff 	lea    -0x830(%rbp),%rax
   109d6:	48 05 68 06 00 00    	add    $0x668,%rax
   109dc:	48 89 85 90 da ff ff 	mov    %rax,-0x2570(%rbp)
   109e3:	48 8d 85 d0 f7 ff ff 	lea    -0x830(%rbp),%rax
   109ea:	48 05 f8 06 00 00    	add    $0x6f8,%rax
   109f0:	48 89 85 98 da ff ff 	mov    %rax,-0x2568(%rbp)
   109f7:	48 8d 85 d0 f7 ff ff 	lea    -0x830(%rbp),%rax
   109fe:	48 83 c0 28          	add    $0x28,%rax
   10a02:	48 89 85 a0 da ff ff 	mov    %rax,-0x2560(%rbp)
   10a09:	48 8d 85 d0 f7 ff ff 	lea    -0x830(%rbp),%rax
   10a10:	48 05 b8 06 00 00    	add    $0x6b8,%rax
   10a16:	48 89 85 a8 da ff ff 	mov    %rax,-0x2558(%rbp)
   10a1d:	48 8d 85 d0 f7 ff ff 	lea    -0x830(%rbp),%rax
   10a24:	48 05 10 06 00 00    	add    $0x610,%rax
   10a2a:	48 89 85 b0 da ff ff 	mov    %rax,-0x2550(%rbp)
   10a31:	48 8d 85 d0 f7 ff ff 	lea    -0x830(%rbp),%rax
   10a38:	48 05 18 07 00 00    	add    $0x718,%rax
   10a3e:	48 89 85 b8 da ff ff 	mov    %rax,-0x2548(%rbp)
   10a45:	48 8d 85 d0 f7 ff ff 	lea    -0x830(%rbp),%rax
   10a4c:	48 05 10 06 00 00    	add    $0x610,%rax
   10a52:	48 89 85 c0 da ff ff 	mov    %rax,-0x2540(%rbp)
   10a59:	48 8d 85 d0 f7 ff ff 	lea    -0x830(%rbp),%rax
   10a60:	48 05 b8 06 00 00    	add    $0x6b8,%rax
   10a66:	48 89 85 c8 da ff ff 	mov    %rax,-0x2538(%rbp)
   10a6d:	48 8d 85 d0 f7 ff ff 	lea    -0x830(%rbp),%rax
   10a74:	48 83 c0 28          	add    $0x28,%rax
   10a78:	48 89 85 d0 da ff ff 	mov    %rax,-0x2530(%rbp)
   10a7f:	48 8d 85 d0 f7 ff ff 	lea    -0x830(%rbp),%rax
   10a86:	48 05 f8 06 00 00    	add    $0x6f8,%rax
   10a8c:	48 89 85 d8 da ff ff 	mov    %rax,-0x2528(%rbp)
   10a93:	48 8d 85 40 d5 ff ff 	lea    -0x2ac0(%rbp),%rax
   10a9a:	48 05 c0 03 00 00    	add    $0x3c0,%rax
   10aa0:	48 89 85 f8 ca ff ff 	mov    %rax,-0x3508(%rbp)
   10aa7:	48 8d 85 f8 ca ff ff 	lea    -0x3508(%rbp),%rax
   10aae:	48 89 85 00 cb ff ff 	mov    %rax,-0x3500(%rbp)
   10ab5:	c7 85 a4 c9 ff ff 00 	movl   $0x0,-0x365c(%rbp)
   10abc:	00 00 00 
   10abf:	eb 42                	jmp    10b03 <func_22+0x4f37>
   10ac1:	c7 85 a8 c9 ff ff 00 	movl   $0x0,-0x3658(%rbp)
   10ac8:	00 00 00 
   10acb:	eb 26                	jmp    10af3 <func_22+0x4f27>
   10acd:	8b 85 a8 c9 ff ff    	mov    -0x3658(%rbp),%eax
   10ad3:	48 63 d0             	movslq %eax,%rdx
   10ad6:	8b 85 a4 c9 ff ff    	mov    -0x365c(%rbp),%eax
   10adc:	48 98                	cltq   
   10ade:	48 01 d0             	add    %rdx,%rax
   10ae1:	c7 84 85 c0 ce ff ff 	movl   $0xc0cd94,-0x3140(%rbp,%rax,4)
   10ae8:	94 cd c0 00 
   10aec:	83 85 a8 c9 ff ff 01 	addl   $0x1,-0x3658(%rbp)
   10af3:	83 bd a8 c9 ff ff 00 	cmpl   $0x0,-0x3658(%rbp)
   10afa:	7e d1                	jle    10acd <func_22+0x4f01>
   10afc:	83 85 a4 c9 ff ff 01 	addl   $0x1,-0x365c(%rbp)
   10b03:	83 bd a4 c9 ff ff 07 	cmpl   $0x7,-0x365c(%rbp)
   10b0a:	7e b5                	jle    10ac1 <func_22+0x4ef5>
   10b0c:	8b 85 54 c9 ff ff    	mov    -0x36ac(%rbp),%eax
   10b12:	44 0f b7 e0          	movzwl %ax,%r12d
   10b16:	8b 85 54 c9 ff ff    	mov    -0x36ac(%rbp),%eax
   10b1c:	44 0f be e8          	movsbl %al,%r13d
   10b20:	48 8b 85 40 c9 ff ff 	mov    -0x36c0(%rbp),%rax
   10b27:	48 89 c2             	mov    %rax,%rdx
   10b2a:	48 8b 85 d8 cc ff ff 	mov    -0x3328(%rbp),%rax
   10b31:	48 89 10             	mov    %rdx,(%rax)
   10b34:	48 8b 85 b0 d1 ff ff 	mov    -0x2e50(%rbp),%rax
   10b3b:	48 89 05 7e 31 01 00 	mov    %rax,0x1317e(%rip)        # 23cc0 <g_1822+0xe0>
   10b42:	48 8b 15 77 31 01 00 	mov    0x13177(%rip),%rdx        # 23cc0 <g_1822+0xe0>
   10b49:	48 8d 85 a8 ca ff ff 	lea    -0x3558(%rbp),%rax
   10b50:	48 39 c2             	cmp    %rax,%rdx
   10b53:	0f 94 c0             	sete   %al
   10b56:	0f b6 c0             	movzbl %al,%eax
   10b59:	be 0f 00 00 00       	mov    $0xf,%esi
   10b5e:	89 c7                	mov    %eax,%edi
   10b60:	e8 e3 a2 ff ff       	callq  ae48 <safe_rshift_func_uint16_t_u_s>
   10b65:	44 0f b7 f8          	movzwl %ax,%r15d
   10b69:	0f b6 05 88 b0 00 00 	movzbl 0xb088(%rip),%eax        # 1bbf8 <l_1809.4541+0xb8>
   10b70:	44 0f be f0          	movsbl %al,%r14d
   10b74:	48 8b 85 20 cb ff ff 	mov    -0x34e0(%rbp),%rax
   10b7b:	8b 00                	mov    (%rax),%eax
   10b7d:	89 c2                	mov    %eax,%edx
   10b7f:	8b 85 8c c9 ff ff    	mov    -0x3674(%rbp),%eax
   10b85:	31 d0                	xor    %edx,%eax
   10b87:	66 25 80 b7          	and    $0xb780,%ax
   10b8b:	98                   	cwtl   
   10b8c:	be 04 00 00 00       	mov    $0x4,%esi
   10b91:	89 c7                	mov    %eax,%edi
   10b93:	e8 fa 98 ff ff       	callq  a492 <safe_lshift_func_int16_t_s_s>
   10b98:	0f bf d0             	movswl %ax,%edx
   10b9b:	48 8b 85 48 c9 ff ff 	mov    -0x36b8(%rbp),%rax
   10ba2:	89 85 88 c9 ff ff    	mov    %eax,-0x3678(%rbp)
   10ba8:	8b 85 88 c9 ff ff    	mov    -0x3678(%rbp),%eax
   10bae:	48 63 c8             	movslq %eax,%rcx
   10bb1:	48 8b 85 40 c9 ff ff 	mov    -0x36c0(%rbp),%rax
   10bb8:	48 39 c1             	cmp    %rax,%rcx
   10bbb:	0f 97 c0             	seta   %al
   10bbe:	0f b6 c0             	movzbl %al,%eax
   10bc1:	48 8b 9d f0 ca ff ff 	mov    -0x3510(%rbp),%rbx
   10bc8:	89 d6                	mov    %edx,%esi
   10bca:	89 c7                	mov    %eax,%edi
   10bcc:	e8 a9 a2 ff ff       	callq  ae7a <safe_rshift_func_uint16_t_u_u>
   10bd1:	66 89 03             	mov    %ax,(%rbx)
   10bd4:	0f b7 03             	movzwl (%rbx),%eax
   10bd7:	66 3d 0d 6d          	cmp    $0x6d0d,%ax
   10bdb:	0f 97 c0             	seta   %al
   10bde:	0f b6 c0             	movzbl %al,%eax
   10be1:	44 89 f6             	mov    %r14d,%esi
   10be4:	89 c7                	mov    %eax,%edi
   10be6:	e8 5d a2 ff ff       	callq  ae48 <safe_rshift_func_uint16_t_u_s>
   10beb:	83 f0 71             	xor    $0x71,%eax
   10bee:	0f b7 d0             	movzwl %ax,%edx
   10bf1:	48 8b 85 40 c9 ff ff 	mov    -0x36c0(%rbp),%rax
   10bf8:	48 39 c2             	cmp    %rax,%rdx
   10bfb:	0f 92 c0             	setb   %al
   10bfe:	0f b6 c0             	movzbl %al,%eax
   10c01:	41 39 c7             	cmp    %eax,%r15d
   10c04:	0f 94 c0             	sete   %al
   10c07:	0f b6 c0             	movzbl %al,%eax
   10c0a:	44 89 ee             	mov    %r13d,%esi
   10c0d:	89 c7                	mov    %eax,%edi
   10c0f:	e8 c0 95 ff ff       	callq  a1d4 <safe_add_func_int8_t_s_s>
   10c14:	44 89 e6             	mov    %r12d,%esi
   10c17:	bf 00 00 00 00       	mov    $0x0,%edi
   10c1c:	e8 6d a1 ff ff       	callq  ad8e <safe_div_func_uint16_t_u_u>
   10c21:	66 85 c0             	test   %ax,%ax
   10c24:	0f 84 b1 1d 00 00    	je     129db <func_22+0x6e0f>
   10c2a:	c7 85 58 ca ff ff f8 	movl   $0xfffffff8,-0x35a8(%rbp)
   10c31:	ff ff ff 
   10c34:	48 8d 05 65 29 01 00 	lea    0x12965(%rip),%rax        # 235a0 <g_1361>
   10c3b:	48 89 85 00 cd ff ff 	mov    %rax,-0x3300(%rbp)
   10c42:	48 8d 05 8f 36 01 00 	lea    0x1368f(%rip),%rax        # 242d8 <g_290>
   10c49:	48 89 85 08 cd ff ff 	mov    %rax,-0x32f8(%rbp)
   10c50:	48 c7 85 10 cd ff ff 	movq   $0xfffffffffffffffb,-0x32f0(%rbp)
   10c57:	fb ff ff ff 
   10c5b:	48 8d 85 00 cb ff ff 	lea    -0x3500(%rbp),%rax
   10c62:	48 89 85 e0 da ff ff 	mov    %rax,-0x2520(%rbp)
   10c69:	48 c7 85 e8 da ff ff 	movq   $0x0,-0x2518(%rbp)
   10c70:	00 00 00 00 
   10c74:	48 8d 85 00 cb ff ff 	lea    -0x3500(%rbp),%rax
   10c7b:	48 89 85 f0 da ff ff 	mov    %rax,-0x2510(%rbp)
   10c82:	48 8d 85 00 cb ff ff 	lea    -0x3500(%rbp),%rax
   10c89:	48 89 85 f8 da ff ff 	mov    %rax,-0x2508(%rbp)
   10c90:	48 c7 85 00 db ff ff 	movq   $0x0,-0x2500(%rbp)
   10c97:	00 00 00 00 
   10c9b:	48 8d 85 00 cb ff ff 	lea    -0x3500(%rbp),%rax
   10ca2:	48 89 85 08 db ff ff 	mov    %rax,-0x24f8(%rbp)
   10ca9:	48 8d 85 00 cb ff ff 	lea    -0x3500(%rbp),%rax
   10cb0:	48 89 85 10 db ff ff 	mov    %rax,-0x24f0(%rbp)
   10cb7:	48 8d 85 00 cb ff ff 	lea    -0x3500(%rbp),%rax
   10cbe:	48 89 85 18 db ff ff 	mov    %rax,-0x24e8(%rbp)
   10cc5:	48 8d 85 00 cb ff ff 	lea    -0x3500(%rbp),%rax
   10ccc:	48 89 85 20 db ff ff 	mov    %rax,-0x24e0(%rbp)
   10cd3:	48 8d 85 00 cb ff ff 	lea    -0x3500(%rbp),%rax
   10cda:	48 89 85 28 db ff ff 	mov    %rax,-0x24d8(%rbp)
   10ce1:	48 c7 85 30 db ff ff 	movq   $0x0,-0x24d0(%rbp)
   10ce8:	00 00 00 00 
   10cec:	48 8d 85 00 cb ff ff 	lea    -0x3500(%rbp),%rax
   10cf3:	48 89 85 38 db ff ff 	mov    %rax,-0x24c8(%rbp)
   10cfa:	48 8d 85 00 cb ff ff 	lea    -0x3500(%rbp),%rax
   10d01:	48 89 85 40 db ff ff 	mov    %rax,-0x24c0(%rbp)
   10d08:	48 c7 85 48 db ff ff 	movq   $0x0,-0x24b8(%rbp)
   10d0f:	00 00 00 00 
   10d13:	48 8d 85 00 cb ff ff 	lea    -0x3500(%rbp),%rax
   10d1a:	48 89 85 50 db ff ff 	mov    %rax,-0x24b0(%rbp)
   10d21:	48 c7 85 58 db ff ff 	movq   $0x0,-0x24a8(%rbp)
   10d28:	00 00 00 00 
   10d2c:	48 8d 85 00 cb ff ff 	lea    -0x3500(%rbp),%rax
   10d33:	48 89 85 60 db ff ff 	mov    %rax,-0x24a0(%rbp)
   10d3a:	48 8d 85 00 cb ff ff 	lea    -0x3500(%rbp),%rax
   10d41:	48 89 85 68 db ff ff 	mov    %rax,-0x2498(%rbp)
   10d48:	48 c7 85 70 db ff ff 	movq   $0x0,-0x2490(%rbp)
   10d4f:	00 00 00 00 
   10d53:	48 8d 85 00 cb ff ff 	lea    -0x3500(%rbp),%rax
   10d5a:	48 89 85 78 db ff ff 	mov    %rax,-0x2488(%rbp)
   10d61:	48 c7 85 80 db ff ff 	movq   $0x0,-0x2480(%rbp)
   10d68:	00 00 00 00 
   10d6c:	48 c7 85 88 db ff ff 	movq   $0x0,-0x2478(%rbp)
   10d73:	00 00 00 00 
   10d77:	48 8d 85 00 cb ff ff 	lea    -0x3500(%rbp),%rax
   10d7e:	48 89 85 90 db ff ff 	mov    %rax,-0x2470(%rbp)
   10d85:	48 c7 85 98 db ff ff 	movq   $0x0,-0x2468(%rbp)
   10d8c:	00 00 00 00 
   10d90:	48 c7 85 a0 db ff ff 	movq   $0x0,-0x2460(%rbp)
   10d97:	00 00 00 00 
   10d9b:	48 8d 85 00 cb ff ff 	lea    -0x3500(%rbp),%rax
   10da2:	48 89 85 a8 db ff ff 	mov    %rax,-0x2458(%rbp)
   10da9:	48 8d 85 00 cb ff ff 	lea    -0x3500(%rbp),%rax
   10db0:	48 89 85 b0 db ff ff 	mov    %rax,-0x2450(%rbp)
   10db7:	48 c7 85 b8 db ff ff 	movq   $0x0,-0x2448(%rbp)
   10dbe:	00 00 00 00 
   10dc2:	48 8d 85 00 cb ff ff 	lea    -0x3500(%rbp),%rax
   10dc9:	48 89 85 c0 db ff ff 	mov    %rax,-0x2440(%rbp)
   10dd0:	48 c7 85 c8 db ff ff 	movq   $0x0,-0x2438(%rbp)
   10dd7:	00 00 00 00 
   10ddb:	48 c7 85 d0 db ff ff 	movq   $0x0,-0x2430(%rbp)
   10de2:	00 00 00 00 
   10de6:	48 8d 85 00 cb ff ff 	lea    -0x3500(%rbp),%rax
   10ded:	48 89 85 d8 db ff ff 	mov    %rax,-0x2428(%rbp)
   10df4:	48 c7 85 e0 db ff ff 	movq   $0x0,-0x2420(%rbp)
   10dfb:	00 00 00 00 
   10dff:	48 c7 85 e8 db ff ff 	movq   $0x0,-0x2418(%rbp)
   10e06:	00 00 00 00 
   10e0a:	48 8d 85 00 cb ff ff 	lea    -0x3500(%rbp),%rax
   10e11:	48 89 85 f0 db ff ff 	mov    %rax,-0x2410(%rbp)
   10e18:	48 8d 85 00 cb ff ff 	lea    -0x3500(%rbp),%rax
   10e1f:	48 89 85 f8 db ff ff 	mov    %rax,-0x2408(%rbp)
   10e26:	48 c7 85 00 dc ff ff 	movq   $0x0,-0x2400(%rbp)
   10e2d:	00 00 00 00 
   10e31:	48 8d 85 00 cb ff ff 	lea    -0x3500(%rbp),%rax
   10e38:	48 89 85 08 dc ff ff 	mov    %rax,-0x23f8(%rbp)
   10e3f:	48 c7 85 10 dc ff ff 	movq   $0x0,-0x23f0(%rbp)
   10e46:	00 00 00 00 
   10e4a:	48 c7 85 18 dc ff ff 	movq   $0x0,-0x23e8(%rbp)
   10e51:	00 00 00 00 
   10e55:	48 8d 85 00 cb ff ff 	lea    -0x3500(%rbp),%rax
   10e5c:	48 89 85 20 dc ff ff 	mov    %rax,-0x23e0(%rbp)
   10e63:	48 c7 85 28 dc ff ff 	movq   $0x0,-0x23d8(%rbp)
   10e6a:	00 00 00 00 
   10e6e:	48 c7 85 30 dc ff ff 	movq   $0x0,-0x23d0(%rbp)
   10e75:	00 00 00 00 
   10e79:	48 8d 85 00 cb ff ff 	lea    -0x3500(%rbp),%rax
   10e80:	48 89 85 38 dc ff ff 	mov    %rax,-0x23c8(%rbp)
   10e87:	48 8d 85 00 cb ff ff 	lea    -0x3500(%rbp),%rax
   10e8e:	48 89 85 40 dc ff ff 	mov    %rax,-0x23c0(%rbp)
   10e95:	48 c7 85 48 dc ff ff 	movq   $0x0,-0x23b8(%rbp)
   10e9c:	00 00 00 00 
   10ea0:	48 8d 85 00 cb ff ff 	lea    -0x3500(%rbp),%rax
   10ea7:	48 89 85 50 dc ff ff 	mov    %rax,-0x23b0(%rbp)
   10eae:	48 c7 85 58 dc ff ff 	movq   $0x0,-0x23a8(%rbp)
   10eb5:	00 00 00 00 
   10eb9:	48 c7 85 60 dc ff ff 	movq   $0x0,-0x23a0(%rbp)
   10ec0:	00 00 00 00 
   10ec4:	48 8d 85 00 cb ff ff 	lea    -0x3500(%rbp),%rax
   10ecb:	48 89 85 68 dc ff ff 	mov    %rax,-0x2398(%rbp)
   10ed2:	48 c7 85 70 dc ff ff 	movq   $0x0,-0x2390(%rbp)
   10ed9:	00 00 00 00 
   10edd:	48 c7 85 78 dc ff ff 	movq   $0x0,-0x2388(%rbp)
   10ee4:	00 00 00 00 
   10ee8:	48 8d 85 00 cb ff ff 	lea    -0x3500(%rbp),%rax
   10eef:	48 89 85 80 dc ff ff 	mov    %rax,-0x2380(%rbp)
   10ef6:	48 8d 85 00 cb ff ff 	lea    -0x3500(%rbp),%rax
   10efd:	48 89 85 88 dc ff ff 	mov    %rax,-0x2378(%rbp)
   10f04:	48 c7 85 90 dc ff ff 	movq   $0x0,-0x2370(%rbp)
   10f0b:	00 00 00 00 
   10f0f:	48 8d 85 00 cb ff ff 	lea    -0x3500(%rbp),%rax
   10f16:	48 89 85 98 dc ff ff 	mov    %rax,-0x2368(%rbp)
   10f1d:	48 c7 85 a0 dc ff ff 	movq   $0x0,-0x2360(%rbp)
   10f24:	00 00 00 00 
   10f28:	48 c7 85 a8 dc ff ff 	movq   $0x0,-0x2358(%rbp)
   10f2f:	00 00 00 00 
   10f33:	48 8d 85 00 cb ff ff 	lea    -0x3500(%rbp),%rax
   10f3a:	48 89 85 b0 dc ff ff 	mov    %rax,-0x2350(%rbp)
   10f41:	48 c7 85 b8 dc ff ff 	movq   $0x0,-0x2348(%rbp)
   10f48:	00 00 00 00 
   10f4c:	48 c7 85 c0 dc ff ff 	movq   $0x0,-0x2340(%rbp)
   10f53:	00 00 00 00 
   10f57:	48 8d 85 00 cb ff ff 	lea    -0x3500(%rbp),%rax
   10f5e:	48 89 85 c8 dc ff ff 	mov    %rax,-0x2338(%rbp)
   10f65:	48 8d 85 00 cb ff ff 	lea    -0x3500(%rbp),%rax
   10f6c:	48 89 85 d0 dc ff ff 	mov    %rax,-0x2330(%rbp)
   10f73:	48 c7 85 d8 dc ff ff 	movq   $0x0,-0x2328(%rbp)
   10f7a:	00 00 00 00 
   10f7e:	48 8d 85 00 cb ff ff 	lea    -0x3500(%rbp),%rax
   10f85:	48 89 85 e0 dc ff ff 	mov    %rax,-0x2320(%rbp)
   10f8c:	48 c7 85 e8 dc ff ff 	movq   $0x0,-0x2318(%rbp)
   10f93:	00 00 00 00 
   10f97:	48 c7 85 f0 dc ff ff 	movq   $0x0,-0x2310(%rbp)
   10f9e:	00 00 00 00 
   10fa2:	48 8d 85 00 cb ff ff 	lea    -0x3500(%rbp),%rax
   10fa9:	48 89 85 f8 dc ff ff 	mov    %rax,-0x2308(%rbp)
   10fb0:	48 c7 85 00 dd ff ff 	movq   $0x0,-0x2300(%rbp)
   10fb7:	00 00 00 00 
   10fbb:	48 c7 85 08 dd ff ff 	movq   $0x0,-0x22f8(%rbp)
   10fc2:	00 00 00 00 
   10fc6:	48 8d 85 00 cb ff ff 	lea    -0x3500(%rbp),%rax
   10fcd:	48 89 85 10 dd ff ff 	mov    %rax,-0x22f0(%rbp)
   10fd4:	48 8d 85 00 cb ff ff 	lea    -0x3500(%rbp),%rax
   10fdb:	48 89 85 18 dd ff ff 	mov    %rax,-0x22e8(%rbp)
   10fe2:	48 c7 85 20 dd ff ff 	movq   $0x0,-0x22e0(%rbp)
   10fe9:	00 00 00 00 
   10fed:	48 8d 85 00 cb ff ff 	lea    -0x3500(%rbp),%rax
   10ff4:	48 89 85 28 dd ff ff 	mov    %rax,-0x22d8(%rbp)
   10ffb:	48 c7 85 30 dd ff ff 	movq   $0x0,-0x22d0(%rbp)
   11002:	00 00 00 00 
   11006:	48 c7 85 38 dd ff ff 	movq   $0x0,-0x22c8(%rbp)
   1100d:	00 00 00 00 
   11011:	48 8d 85 00 cb ff ff 	lea    -0x3500(%rbp),%rax
   11018:	48 89 85 40 dd ff ff 	mov    %rax,-0x22c0(%rbp)
   1101f:	48 c7 85 48 dd ff ff 	movq   $0x0,-0x22b8(%rbp)
   11026:	00 00 00 00 
   1102a:	48 c7 85 50 dd ff ff 	movq   $0x0,-0x22b0(%rbp)
   11031:	00 00 00 00 
   11035:	48 8d 85 00 cb ff ff 	lea    -0x3500(%rbp),%rax
   1103c:	48 89 85 58 dd ff ff 	mov    %rax,-0x22a8(%rbp)
   11043:	48 8d 85 00 cb ff ff 	lea    -0x3500(%rbp),%rax
   1104a:	48 89 85 60 dd ff ff 	mov    %rax,-0x22a0(%rbp)
   11051:	48 c7 85 68 dd ff ff 	movq   $0x0,-0x2298(%rbp)
   11058:	00 00 00 00 
   1105c:	48 8d 85 00 cb ff ff 	lea    -0x3500(%rbp),%rax
   11063:	48 89 85 70 dd ff ff 	mov    %rax,-0x2290(%rbp)
   1106a:	48 c7 85 78 dd ff ff 	movq   $0x0,-0x2288(%rbp)
   11071:	00 00 00 00 
   11075:	48 c7 85 80 dd ff ff 	movq   $0x0,-0x2280(%rbp)
   1107c:	00 00 00 00 
   11080:	48 8d 85 00 cb ff ff 	lea    -0x3500(%rbp),%rax
   11087:	48 89 85 88 dd ff ff 	mov    %rax,-0x2278(%rbp)
   1108e:	48 c7 85 90 dd ff ff 	movq   $0x0,-0x2270(%rbp)
   11095:	00 00 00 00 
   11099:	48 c7 85 98 dd ff ff 	movq   $0x0,-0x2268(%rbp)
   110a0:	00 00 00 00 
   110a4:	48 8d 85 00 cb ff ff 	lea    -0x3500(%rbp),%rax
   110ab:	48 89 85 a0 dd ff ff 	mov    %rax,-0x2260(%rbp)
   110b2:	48 8d 85 00 cb ff ff 	lea    -0x3500(%rbp),%rax
   110b9:	48 89 85 a8 dd ff ff 	mov    %rax,-0x2258(%rbp)
   110c0:	48 c7 85 b0 dd ff ff 	movq   $0x0,-0x2250(%rbp)
   110c7:	00 00 00 00 
   110cb:	48 8d 85 00 cb ff ff 	lea    -0x3500(%rbp),%rax
   110d2:	48 89 85 b8 dd ff ff 	mov    %rax,-0x2248(%rbp)
   110d9:	48 c7 85 c0 dd ff ff 	movq   $0x0,-0x2240(%rbp)
   110e0:	00 00 00 00 
   110e4:	48 c7 85 c8 dd ff ff 	movq   $0x0,-0x2238(%rbp)
   110eb:	00 00 00 00 
   110ef:	48 8d 85 00 cb ff ff 	lea    -0x3500(%rbp),%rax
   110f6:	48 89 85 d0 dd ff ff 	mov    %rax,-0x2230(%rbp)
   110fd:	48 c7 85 d8 dd ff ff 	movq   $0x0,-0x2228(%rbp)
   11104:	00 00 00 00 
   11108:	48 c7 85 e0 dd ff ff 	movq   $0x0,-0x2220(%rbp)
   1110f:	00 00 00 00 
   11113:	48 8d 85 00 cb ff ff 	lea    -0x3500(%rbp),%rax
   1111a:	48 89 85 e8 dd ff ff 	mov    %rax,-0x2218(%rbp)
   11121:	48 8d 85 00 cb ff ff 	lea    -0x3500(%rbp),%rax
   11128:	48 89 85 f0 dd ff ff 	mov    %rax,-0x2210(%rbp)
   1112f:	48 c7 85 f8 dd ff ff 	movq   $0x0,-0x2208(%rbp)
   11136:	00 00 00 00 
   1113a:	48 8d 85 00 cb ff ff 	lea    -0x3500(%rbp),%rax
   11141:	48 89 85 00 de ff ff 	mov    %rax,-0x2200(%rbp)
   11148:	48 c7 85 08 de ff ff 	movq   $0x0,-0x21f8(%rbp)
   1114f:	00 00 00 00 
   11153:	48 c7 85 10 de ff ff 	movq   $0x0,-0x21f0(%rbp)
   1115a:	00 00 00 00 
   1115e:	48 8d 85 00 cb ff ff 	lea    -0x3500(%rbp),%rax
   11165:	48 89 85 18 de ff ff 	mov    %rax,-0x21e8(%rbp)
   1116c:	48 c7 85 20 de ff ff 	movq   $0x0,-0x21e0(%rbp)
   11173:	00 00 00 00 
   11177:	48 c7 85 28 de ff ff 	movq   $0x0,-0x21d8(%rbp)
   1117e:	00 00 00 00 
   11182:	48 8d 85 00 cb ff ff 	lea    -0x3500(%rbp),%rax
   11189:	48 89 85 30 de ff ff 	mov    %rax,-0x21d0(%rbp)
   11190:	48 8d 85 00 cb ff ff 	lea    -0x3500(%rbp),%rax
   11197:	48 89 85 38 de ff ff 	mov    %rax,-0x21c8(%rbp)
   1119e:	48 c7 85 40 de ff ff 	movq   $0x0,-0x21c0(%rbp)
   111a5:	00 00 00 00 
   111a9:	48 8d 85 00 cb ff ff 	lea    -0x3500(%rbp),%rax
   111b0:	48 89 85 48 de ff ff 	mov    %rax,-0x21b8(%rbp)
   111b7:	48 c7 85 50 de ff ff 	movq   $0x0,-0x21b0(%rbp)
   111be:	00 00 00 00 
   111c2:	48 c7 85 58 de ff ff 	movq   $0x0,-0x21a8(%rbp)
   111c9:	00 00 00 00 
   111cd:	48 8d 85 00 cb ff ff 	lea    -0x3500(%rbp),%rax
   111d4:	48 89 85 60 de ff ff 	mov    %rax,-0x21a0(%rbp)
   111db:	48 c7 85 68 de ff ff 	movq   $0x0,-0x2198(%rbp)
   111e2:	00 00 00 00 
   111e6:	48 c7 85 70 de ff ff 	movq   $0x0,-0x2190(%rbp)
   111ed:	00 00 00 00 
   111f1:	48 8d 85 00 cb ff ff 	lea    -0x3500(%rbp),%rax
   111f8:	48 89 85 78 de ff ff 	mov    %rax,-0x2188(%rbp)
   111ff:	48 8d 85 00 cb ff ff 	lea    -0x3500(%rbp),%rax
   11206:	48 89 85 80 de ff ff 	mov    %rax,-0x2180(%rbp)
   1120d:	48 c7 85 88 de ff ff 	movq   $0x0,-0x2178(%rbp)
   11214:	00 00 00 00 
   11218:	48 8d 85 00 cb ff ff 	lea    -0x3500(%rbp),%rax
   1121f:	48 89 85 90 de ff ff 	mov    %rax,-0x2170(%rbp)
   11226:	48 c7 85 98 de ff ff 	movq   $0x0,-0x2168(%rbp)
   1122d:	00 00 00 00 
   11231:	48 c7 85 a0 de ff ff 	movq   $0x0,-0x2160(%rbp)
   11238:	00 00 00 00 
   1123c:	48 8d 85 00 cb ff ff 	lea    -0x3500(%rbp),%rax
   11243:	48 89 85 a8 de ff ff 	mov    %rax,-0x2158(%rbp)
   1124a:	48 c7 85 b0 de ff ff 	movq   $0x0,-0x2150(%rbp)
   11251:	00 00 00 00 
   11255:	48 c7 85 b8 de ff ff 	movq   $0x0,-0x2148(%rbp)
   1125c:	00 00 00 00 
   11260:	48 8d 85 00 cb ff ff 	lea    -0x3500(%rbp),%rax
   11267:	48 89 85 c0 de ff ff 	mov    %rax,-0x2140(%rbp)
   1126e:	48 8d 85 00 cb ff ff 	lea    -0x3500(%rbp),%rax
   11275:	48 89 85 c8 de ff ff 	mov    %rax,-0x2138(%rbp)
   1127c:	48 c7 85 d0 de ff ff 	movq   $0x0,-0x2130(%rbp)
   11283:	00 00 00 00 
   11287:	48 8d 85 00 cb ff ff 	lea    -0x3500(%rbp),%rax
   1128e:	48 89 85 d8 de ff ff 	mov    %rax,-0x2128(%rbp)
   11295:	48 c7 85 e0 de ff ff 	movq   $0x0,-0x2120(%rbp)
   1129c:	00 00 00 00 
   112a0:	48 c7 85 e8 de ff ff 	movq   $0x0,-0x2118(%rbp)
   112a7:	00 00 00 00 
   112ab:	48 8d 85 00 cb ff ff 	lea    -0x3500(%rbp),%rax
   112b2:	48 89 85 f0 de ff ff 	mov    %rax,-0x2110(%rbp)
   112b9:	48 c7 85 f8 de ff ff 	movq   $0x0,-0x2108(%rbp)
   112c0:	00 00 00 00 
   112c4:	48 c7 85 00 df ff ff 	movq   $0x0,-0x2100(%rbp)
   112cb:	00 00 00 00 
   112cf:	48 8d 85 00 cb ff ff 	lea    -0x3500(%rbp),%rax
   112d6:	48 89 85 08 df ff ff 	mov    %rax,-0x20f8(%rbp)
   112dd:	48 8d 85 00 cb ff ff 	lea    -0x3500(%rbp),%rax
   112e4:	48 89 85 10 df ff ff 	mov    %rax,-0x20f0(%rbp)
   112eb:	48 c7 85 18 df ff ff 	movq   $0x0,-0x20e8(%rbp)
   112f2:	00 00 00 00 
   112f6:	48 8d 85 00 cb ff ff 	lea    -0x3500(%rbp),%rax
   112fd:	48 89 85 20 df ff ff 	mov    %rax,-0x20e0(%rbp)
   11304:	48 c7 85 28 df ff ff 	movq   $0x0,-0x20d8(%rbp)
   1130b:	00 00 00 00 
   1130f:	48 c7 85 30 df ff ff 	movq   $0x0,-0x20d0(%rbp)
   11316:	00 00 00 00 
   1131a:	48 8d 85 00 cb ff ff 	lea    -0x3500(%rbp),%rax
   11321:	48 89 85 38 df ff ff 	mov    %rax,-0x20c8(%rbp)
   11328:	48 c7 85 40 df ff ff 	movq   $0x0,-0x20c0(%rbp)
   1132f:	00 00 00 00 
   11333:	48 c7 85 48 df ff ff 	movq   $0x0,-0x20b8(%rbp)
   1133a:	00 00 00 00 
   1133e:	48 8d 85 00 cb ff ff 	lea    -0x3500(%rbp),%rax
   11345:	48 89 85 50 df ff ff 	mov    %rax,-0x20b0(%rbp)
   1134c:	48 8d 85 00 cb ff ff 	lea    -0x3500(%rbp),%rax
   11353:	48 89 85 58 df ff ff 	mov    %rax,-0x20a8(%rbp)
   1135a:	48 c7 85 60 df ff ff 	movq   $0x0,-0x20a0(%rbp)
   11361:	00 00 00 00 
   11365:	48 8d 85 00 cb ff ff 	lea    -0x3500(%rbp),%rax
   1136c:	48 89 85 68 df ff ff 	mov    %rax,-0x2098(%rbp)
   11373:	48 c7 85 70 df ff ff 	movq   $0x0,-0x2090(%rbp)
   1137a:	00 00 00 00 
   1137e:	48 c7 85 78 df ff ff 	movq   $0x0,-0x2088(%rbp)
   11385:	00 00 00 00 
   11389:	48 8d 85 00 cb ff ff 	lea    -0x3500(%rbp),%rax
   11390:	48 89 85 80 df ff ff 	mov    %rax,-0x2080(%rbp)
   11397:	48 c7 85 88 df ff ff 	movq   $0x0,-0x2078(%rbp)
   1139e:	00 00 00 00 
   113a2:	48 c7 85 90 df ff ff 	movq   $0x0,-0x2070(%rbp)
   113a9:	00 00 00 00 
   113ad:	48 8d 85 00 cb ff ff 	lea    -0x3500(%rbp),%rax
   113b4:	48 89 85 98 df ff ff 	mov    %rax,-0x2068(%rbp)
   113bb:	48 8d 85 00 cb ff ff 	lea    -0x3500(%rbp),%rax
   113c2:	48 89 85 a0 df ff ff 	mov    %rax,-0x2060(%rbp)
   113c9:	48 c7 85 a8 df ff ff 	movq   $0x0,-0x2058(%rbp)
   113d0:	00 00 00 00 
   113d4:	48 8d 85 00 cb ff ff 	lea    -0x3500(%rbp),%rax
   113db:	48 89 85 b0 df ff ff 	mov    %rax,-0x2050(%rbp)
   113e2:	48 c7 85 b8 df ff ff 	movq   $0x0,-0x2048(%rbp)
   113e9:	00 00 00 00 
   113ed:	48 c7 85 c0 df ff ff 	movq   $0x0,-0x2040(%rbp)
   113f4:	00 00 00 00 
   113f8:	48 8d 85 00 cb ff ff 	lea    -0x3500(%rbp),%rax
   113ff:	48 89 85 c8 df ff ff 	mov    %rax,-0x2038(%rbp)
   11406:	48 c7 85 d0 df ff ff 	movq   $0x0,-0x2030(%rbp)
   1140d:	00 00 00 00 
   11411:	48 c7 85 d8 df ff ff 	movq   $0x0,-0x2028(%rbp)
   11418:	00 00 00 00 
   1141c:	48 8d 85 00 cb ff ff 	lea    -0x3500(%rbp),%rax
   11423:	48 89 85 e0 df ff ff 	mov    %rax,-0x2020(%rbp)
   1142a:	48 8d 85 00 cb ff ff 	lea    -0x3500(%rbp),%rax
   11431:	48 89 85 e8 df ff ff 	mov    %rax,-0x2018(%rbp)
   11438:	48 c7 85 f0 df ff ff 	movq   $0x0,-0x2010(%rbp)
   1143f:	00 00 00 00 
   11443:	48 8d 85 00 cb ff ff 	lea    -0x3500(%rbp),%rax
   1144a:	48 89 85 f8 df ff ff 	mov    %rax,-0x2008(%rbp)
   11451:	48 c7 85 00 e0 ff ff 	movq   $0x0,-0x2000(%rbp)
   11458:	00 00 00 00 
   1145c:	48 c7 85 08 e0 ff ff 	movq   $0x0,-0x1ff8(%rbp)
   11463:	00 00 00 00 
   11467:	48 8d 85 00 cb ff ff 	lea    -0x3500(%rbp),%rax
   1146e:	48 89 85 10 e0 ff ff 	mov    %rax,-0x1ff0(%rbp)
   11475:	48 c7 85 18 e0 ff ff 	movq   $0x0,-0x1fe8(%rbp)
   1147c:	00 00 00 00 
   11480:	48 c7 85 20 e0 ff ff 	movq   $0x0,-0x1fe0(%rbp)
   11487:	00 00 00 00 
   1148b:	48 8d 85 00 cb ff ff 	lea    -0x3500(%rbp),%rax
   11492:	48 89 85 28 e0 ff ff 	mov    %rax,-0x1fd8(%rbp)
   11499:	48 8d 85 00 cb ff ff 	lea    -0x3500(%rbp),%rax
   114a0:	48 89 85 30 e0 ff ff 	mov    %rax,-0x1fd0(%rbp)
   114a7:	48 c7 85 38 e0 ff ff 	movq   $0x0,-0x1fc8(%rbp)
   114ae:	00 00 00 00 
   114b2:	48 8d 85 00 cb ff ff 	lea    -0x3500(%rbp),%rax
   114b9:	48 89 85 40 e0 ff ff 	mov    %rax,-0x1fc0(%rbp)
   114c0:	48 c7 85 48 e0 ff ff 	movq   $0x0,-0x1fb8(%rbp)
   114c7:	00 00 00 00 
   114cb:	48 c7 85 50 e0 ff ff 	movq   $0x0,-0x1fb0(%rbp)
   114d2:	00 00 00 00 
   114d6:	48 8d 85 00 cb ff ff 	lea    -0x3500(%rbp),%rax
   114dd:	48 89 85 58 e0 ff ff 	mov    %rax,-0x1fa8(%rbp)
   114e4:	48 c7 85 60 e0 ff ff 	movq   $0x0,-0x1fa0(%rbp)
   114eb:	00 00 00 00 
   114ef:	48 c7 85 68 e0 ff ff 	movq   $0x0,-0x1f98(%rbp)
   114f6:	00 00 00 00 
   114fa:	48 8d 85 00 cb ff ff 	lea    -0x3500(%rbp),%rax
   11501:	48 89 85 70 e0 ff ff 	mov    %rax,-0x1f90(%rbp)
   11508:	48 8d 85 00 cb ff ff 	lea    -0x3500(%rbp),%rax
   1150f:	48 89 85 78 e0 ff ff 	mov    %rax,-0x1f88(%rbp)
   11516:	48 c7 85 80 e0 ff ff 	movq   $0x0,-0x1f80(%rbp)
   1151d:	00 00 00 00 
   11521:	48 8d 85 00 cb ff ff 	lea    -0x3500(%rbp),%rax
   11528:	48 89 85 88 e0 ff ff 	mov    %rax,-0x1f78(%rbp)
   1152f:	48 c7 85 90 e0 ff ff 	movq   $0x0,-0x1f70(%rbp)
   11536:	00 00 00 00 
   1153a:	48 c7 85 98 e0 ff ff 	movq   $0x0,-0x1f68(%rbp)
   11541:	00 00 00 00 
   11545:	48 8d 85 00 cb ff ff 	lea    -0x3500(%rbp),%rax
   1154c:	48 89 85 a0 e0 ff ff 	mov    %rax,-0x1f60(%rbp)
   11553:	48 c7 85 a8 e0 ff ff 	movq   $0x0,-0x1f58(%rbp)
   1155a:	00 00 00 00 
   1155e:	48 c7 85 b0 e0 ff ff 	movq   $0x0,-0x1f50(%rbp)
   11565:	00 00 00 00 
   11569:	48 8d 85 00 cb ff ff 	lea    -0x3500(%rbp),%rax
   11570:	48 89 85 b8 e0 ff ff 	mov    %rax,-0x1f48(%rbp)
   11577:	48 8d 85 00 cb ff ff 	lea    -0x3500(%rbp),%rax
   1157e:	48 89 85 c0 e0 ff ff 	mov    %rax,-0x1f40(%rbp)
   11585:	48 c7 85 c8 e0 ff ff 	movq   $0x0,-0x1f38(%rbp)
   1158c:	00 00 00 00 
   11590:	48 8d 85 00 cb ff ff 	lea    -0x3500(%rbp),%rax
   11597:	48 89 85 d0 e0 ff ff 	mov    %rax,-0x1f30(%rbp)
   1159e:	48 c7 85 d8 e0 ff ff 	movq   $0x0,-0x1f28(%rbp)
   115a5:	00 00 00 00 
   115a9:	48 c7 85 e0 e0 ff ff 	movq   $0x0,-0x1f20(%rbp)
   115b0:	00 00 00 00 
   115b4:	48 8d 85 00 cb ff ff 	lea    -0x3500(%rbp),%rax
   115bb:	48 89 85 e8 e0 ff ff 	mov    %rax,-0x1f18(%rbp)
   115c2:	48 c7 85 f0 e0 ff ff 	movq   $0x0,-0x1f10(%rbp)
   115c9:	00 00 00 00 
   115cd:	48 c7 85 f8 e0 ff ff 	movq   $0x0,-0x1f08(%rbp)
   115d4:	00 00 00 00 
   115d8:	48 8d 85 00 cb ff ff 	lea    -0x3500(%rbp),%rax
   115df:	48 89 85 00 e1 ff ff 	mov    %rax,-0x1f00(%rbp)
   115e6:	48 8d 85 00 cb ff ff 	lea    -0x3500(%rbp),%rax
   115ed:	48 89 85 08 e1 ff ff 	mov    %rax,-0x1ef8(%rbp)
   115f4:	48 c7 85 10 e1 ff ff 	movq   $0x0,-0x1ef0(%rbp)
   115fb:	00 00 00 00 
   115ff:	48 8d 85 00 cb ff ff 	lea    -0x3500(%rbp),%rax
   11606:	48 89 85 18 e1 ff ff 	mov    %rax,-0x1ee8(%rbp)
   1160d:	48 c7 85 20 e1 ff ff 	movq   $0x0,-0x1ee0(%rbp)
   11614:	00 00 00 00 
   11618:	48 c7 85 28 e1 ff ff 	movq   $0x0,-0x1ed8(%rbp)
   1161f:	00 00 00 00 
   11623:	48 8d 85 00 cb ff ff 	lea    -0x3500(%rbp),%rax
   1162a:	48 89 85 30 e1 ff ff 	mov    %rax,-0x1ed0(%rbp)
   11631:	48 c7 85 38 e1 ff ff 	movq   $0x0,-0x1ec8(%rbp)
   11638:	00 00 00 00 
   1163c:	48 c7 85 40 e1 ff ff 	movq   $0x0,-0x1ec0(%rbp)
   11643:	00 00 00 00 
   11647:	48 8d 85 00 cb ff ff 	lea    -0x3500(%rbp),%rax
   1164e:	48 89 85 48 e1 ff ff 	mov    %rax,-0x1eb8(%rbp)
   11655:	48 c7 85 50 e1 ff ff 	movq   $0x0,-0x1eb0(%rbp)
   1165c:	00 00 00 00 
   11660:	48 8d 85 00 cb ff ff 	lea    -0x3500(%rbp),%rax
   11667:	48 89 85 58 e1 ff ff 	mov    %rax,-0x1ea8(%rbp)
   1166e:	48 c7 85 60 e1 ff ff 	movq   $0x0,-0x1ea0(%rbp)
   11675:	00 00 00 00 
   11679:	48 8d 85 00 cb ff ff 	lea    -0x3500(%rbp),%rax
   11680:	48 89 85 68 e1 ff ff 	mov    %rax,-0x1e98(%rbp)
   11687:	0f b7 05 7a e8 00 00 	movzwl 0xe87a(%rip),%eax        # 1ff08 <g_1836>
   1168e:	8b 85 58 ca ff ff    	mov    -0x35a8(%rbp),%eax
   11694:	48 98                	cltq   
   11696:	48 ba b9 03 84 9c 02 	movabs $0xd95630029c8403b9,%rdx
   1169d:	30 56 d9 
   116a0:	48 39 d0             	cmp    %rdx,%rax
   116a3:	0f 86 dc 02 00 00    	jbe    11985 <func_22+0x5db9>
   116a9:	48 c7 85 38 cd ff ff 	movq   $0x8,-0x32c8(%rbp)
   116b0:	08 00 00 00 
   116b4:	c7 85 60 ca ff ff c6 	movl   $0xe9668c6,-0x35a0(%rbp)
   116bb:	68 96 0e 
   116be:	48 8b 85 38 c9 ff ff 	mov    -0x36c8(%rbp),%rax
   116c5:	0f b6 00             	movzbl (%rax),%eax
   116c8:	0f b6 d8             	movzbl %al,%ebx
   116cb:	48 8b 85 38 cd ff ff 	mov    -0x32c8(%rbp),%rax
   116d2:	44 0f b6 e0          	movzbl %al,%r12d
   116d6:	48 8b 85 40 f5 ff ff 	mov    -0xac0(%rbp),%rax
   116dd:	48 39 85 00 cd ff ff 	cmp    %rax,-0x3300(%rbp)
   116e4:	0f 95 c0             	setne  %al
   116e7:	0f b6 d0             	movzbl %al,%edx
   116ea:	48 8b 85 20 cb ff ff 	mov    -0x34e0(%rbp),%rax
   116f1:	89 10                	mov    %edx,(%rax)
   116f3:	48 8b 85 20 cb ff ff 	mov    -0x34e0(%rbp),%rax
   116fa:	44 8b 30             	mov    (%rax),%r14d
   116fd:	48 8b 85 f0 ca ff ff 	mov    -0x3510(%rbp),%rax
   11704:	0f b7 10             	movzwl (%rax),%edx
   11707:	8d 4a 01             	lea    0x1(%rdx),%ecx
   1170a:	66 89 08             	mov    %cx,(%rax)
   1170d:	44 0f b7 fa          	movzwl %dx,%r15d
   11711:	0f b7 05 d8 e5 00 00 	movzwl 0xe5d8(%rip),%eax        # 1fcf0 <g_1099+0x90>
   11718:	98                   	cwtl   
   11719:	89 85 30 c9 ff ff    	mov    %eax,-0x36d0(%rbp)
   1171f:	0f b7 05 22 e7 00 00 	movzwl 0xe722(%rip),%eax        # 1fe48 <g_1151>
   11726:	44 0f bf e8          	movswl %ax,%r13d
   1172a:	48 8d 05 a7 2b 01 00 	lea    0x12ba7(%rip),%rax        # 242d8 <g_290>
   11731:	48 39 85 08 cd ff ff 	cmp    %rax,-0x32f8(%rbp)
   11738:	0f 94 c0             	sete   %al
   1173b:	0f b6 c0             	movzbl %al,%eax
   1173e:	be 3f 9f 96 3d       	mov    $0x3d969f3f,%esi
   11743:	89 c7                	mov    %eax,%edi
   11745:	e8 b5 8f ff ff       	callq  a6ff <safe_div_func_int32_t_s_s>
   1174a:	89 c2                	mov    %eax,%edx
   1174c:	0f b6 05 45 e0 00 00 	movzbl 0xe045(%rip),%eax        # 1f798 <g_801>
   11753:	66 98                	cbtw   
   11755:	09 d0                	or     %edx,%eax
   11757:	98                   	cwtl   
   11758:	44 89 ee             	mov    %r13d,%esi
   1175b:	89 c7                	mov    %eax,%edi
   1175d:	e8 01 8e ff ff       	callq  a563 <safe_rshift_func_int16_t_s_u>
   11762:	0f bf d0             	movswl %ax,%edx
   11765:	0f b6 05 1c e0 00 00 	movzbl 0xe01c(%rip),%eax        # 1f788 <g_595>
   1176c:	0f be c0             	movsbl %al,%eax
   1176f:	89 d6                	mov    %edx,%esi
   11771:	89 c7                	mov    %eax,%edi
   11773:	e8 b2 8d ff ff       	callq  a52a <safe_rshift_func_int16_t_s_s>
   11778:	48 0f bf d0          	movswq %ax,%rdx
   1177c:	48 8b 85 40 c9 ff ff 	mov    -0x36c0(%rbp),%rax
   11783:	48 39 c2             	cmp    %rax,%rdx
   11786:	0f 94 c0             	sete   %al
   11789:	0f b6 c0             	movzbl %al,%eax
   1178c:	39 85 30 c9 ff ff    	cmp    %eax,-0x36d0(%rbp)
   11792:	0f 9d c0             	setge  %al
   11795:	0f b6 c8             	movzbl %al,%ecx
   11798:	48 8b 85 58 c9 ff ff 	mov    -0x36a8(%rbp),%rax
   1179f:	8b 10                	mov    (%rax),%edx
   117a1:	48 8b 85 58 c9 ff ff 	mov    -0x36a8(%rbp),%rax
   117a8:	21 ca                	and    %ecx,%edx
   117aa:	89 10                	mov    %edx,(%rax)
   117ac:	8b 10                	mov    (%rax),%edx
   117ae:	8b 85 8c c9 ff ff    	mov    -0x3674(%rbp),%eax
   117b4:	39 c2                	cmp    %eax,%edx
   117b6:	7e 0a                	jle    117c2 <func_22+0x5bf6>
   117b8:	8b 05 d2 e6 00 00    	mov    0xe6d2(%rip),%eax        # 1fe90 <g_1650>
   117be:	85 c0                	test   %eax,%eax
   117c0:	74 07                	je     117c9 <func_22+0x5bfd>
   117c2:	b8 01 00 00 00       	mov    $0x1,%eax
   117c7:	eb 05                	jmp    117ce <func_22+0x5c02>
   117c9:	b8 00 00 00 00       	mov    $0x0,%eax
   117ce:	48 98                	cltq   
   117d0:	48 39 85 38 cd ff ff 	cmp    %rax,-0x32c8(%rbp)
   117d7:	0f 96 c0             	setbe  %al
   117da:	0f b6 c0             	movzbl %al,%eax
   117dd:	89 85 88 c9 ff ff    	mov    %eax,-0x3678(%rbp)
   117e3:	8b 85 88 c9 ff ff    	mov    -0x3678(%rbp),%eax
   117e9:	48 63 d0             	movslq %eax,%rdx
   117ec:	48 8b 85 40 c9 ff ff 	mov    -0x36c0(%rbp),%rax
   117f3:	48 21 d0             	and    %rdx,%rax
   117f6:	48 3d b9 b4 00 00    	cmp    $0xb4b9,%rax
   117fc:	0f 97 c0             	seta   %al
   117ff:	0f b6 c0             	movzbl %al,%eax
   11802:	41 39 c7             	cmp    %eax,%r15d
   11805:	0f 9c c0             	setl   %al
   11808:	0f b6 d0             	movzbl %al,%edx
   1180b:	48 8b 85 48 c9 ff ff 	mov    -0x36b8(%rbp),%rax
   11812:	48 39 c2             	cmp    %rax,%rdx
   11815:	0f 95 c0             	setne  %al
   11818:	0f b6 c0             	movzbl %al,%eax
   1181b:	41 39 c6             	cmp    %eax,%r14d
   1181e:	0f 94 c0             	sete   %al
   11821:	0f b6 c0             	movzbl %al,%eax
   11824:	be 00 00 00 00       	mov    $0x0,%esi
   11829:	89 c7                	mov    %eax,%edi
   1182b:	e8 63 93 ff ff       	callq  ab93 <safe_mul_func_uint8_t_u_u>
   11830:	0f b6 c0             	movzbl %al,%eax
   11833:	66 89 85 70 c9 ff ff 	mov    %ax,-0x3690(%rbp)
   1183a:	0f bf 85 70 c9 ff ff 	movswl -0x3690(%rbp),%eax
   11841:	39 85 c8 c9 ff ff    	cmp    %eax,-0x3638(%rbp)
   11847:	0f 93 c0             	setae  %al
   1184a:	0f b6 c0             	movzbl %al,%eax
   1184d:	44 89 e6             	mov    %r12d,%esi
   11850:	89 c7                	mov    %eax,%edi
   11852:	e8 3c 93 ff ff       	callq  ab93 <safe_mul_func_uint8_t_u_u>
   11857:	89 de                	mov    %ebx,%esi
   11859:	bf 00 00 00 00       	mov    $0x0,%edi
   1185e:	e8 78 93 ff ff       	callq  abdb <safe_div_func_uint8_t_u_u>
   11863:	0f b6 c0             	movzbl %al,%eax
   11866:	be 05 00 00 00       	mov    $0x5,%esi
   1186b:	89 c7                	mov    %eax,%edi
   1186d:	e8 ea 94 ff ff       	callq  ad5c <safe_mod_func_uint16_t_u_u>
   11872:	0f b7 d0             	movzwl %ax,%edx
   11875:	48 8b 85 40 c9 ff ff 	mov    -0x36c0(%rbp),%rax
   1187c:	48 39 c2             	cmp    %rax,%rdx
   1187f:	0f 92 c0             	setb   %al
   11882:	0f b6 c0             	movzbl %al,%eax
   11885:	be 09 00 00 00       	mov    $0x9,%esi
   1188a:	89 c7                	mov    %eax,%edi
   1188c:	e8 e7 92 ff ff       	callq  ab78 <safe_sub_func_uint8_t_u_u>
   11891:	0f b6 c0             	movzbl %al,%eax
   11894:	39 85 54 c9 ff ff    	cmp    %eax,-0x36ac(%rbp)
   1189a:	75 07                	jne    118a3 <func_22+0x5cd7>
   1189c:	b8 fe ff 00 00       	mov    $0xfffe,%eax
   118a1:	eb 05                	jmp    118a8 <func_22+0x5cdc>
   118a3:	b8 ff ff 00 00       	mov    $0xffff,%eax
   118a8:	89 85 60 ca ff ff    	mov    %eax,-0x35a0(%rbp)
   118ae:	0f b6 05 43 a3 00 00 	movzbl 0xa343(%rip),%eax        # 1bbf8 <l_1809.4541+0xb8>
   118b5:	48 0f be d0          	movsbq %al,%rdx
   118b9:	48 83 bd d0 cc ff ff 	cmpq   $0x0,-0x3330(%rbp)
   118c0:	00 
   118c1:	0f 94 c1             	sete   %cl
   118c4:	48 83 bd 88 cb ff ff 	cmpq   $0x0,-0x3478(%rbp)
   118cb:	00 
   118cc:	0f 95 c0             	setne  %al
   118cf:	31 c8                	xor    %ecx,%eax
   118d1:	0f b6 c8             	movzbl %al,%ecx
   118d4:	48 8b 85 58 c9 ff ff 	mov    -0x36a8(%rbp),%rax
   118db:	8b 00                	mov    (%rax),%eax
   118dd:	31 c8                	xor    %ecx,%eax
   118df:	48 98                	cltq   
   118e1:	48 89 d6             	mov    %rdx,%rsi
   118e4:	48 89 c7             	mov    %rax,%rdi
   118e7:	e8 bc 8f ff ff       	callq  a8a8 <safe_sub_func_int64_t_s_s>
   118ec:	48 85 c0             	test   %rax,%rax
   118ef:	75 23                	jne    11914 <func_22+0x5d48>
   118f1:	48 8b 85 48 c9 ff ff 	mov    -0x36b8(%rbp),%rax
   118f8:	98                   	cwtl   
   118f9:	89 c7                	mov    %eax,%edi
   118fb:	e8 9d 8a ff ff       	callq  a39d <safe_unary_minus_func_int16_t_s>
   11900:	89 c2                	mov    %eax,%edx
   11902:	48 8b 85 f0 ca ff ff 	mov    -0x3510(%rbp),%rax
   11909:	66 89 10             	mov    %dx,(%rax)
   1190c:	0f b7 00             	movzwl (%rax),%eax
   1190f:	66 85 c0             	test   %ax,%ax
   11912:	74 07                	je     1191b <func_22+0x5d4f>
   11914:	ba 01 00 00 00       	mov    $0x1,%edx
   11919:	eb 05                	jmp    11920 <func_22+0x5d54>
   1191b:	ba 00 00 00 00       	mov    $0x0,%edx
   11920:	48 8d 05 b9 0b 01 00 	lea    0x10bb9(%rip),%rax        # 224e0 <g_802>
   11927:	48 39 85 90 cb ff ff 	cmp    %rax,-0x3470(%rbp)
   1192e:	0f 94 c0             	sete   %al
   11931:	0f b6 c0             	movzbl %al,%eax
   11934:	39 c2                	cmp    %eax,%edx
   11936:	7d 08                	jge    11940 <func_22+0x5d74>
   11938:	8b 85 88 c9 ff ff    	mov    -0x3678(%rbp),%eax
   1193e:	85 c0                	test   %eax,%eax
   11940:	80 bd 65 c9 ff ff 00 	cmpb   $0x0,-0x369b(%rbp)
   11947:	0f 95 c0             	setne  %al
   1194a:	0f b6 d0             	movzbl %al,%edx
   1194d:	48 8b 85 20 cb ff ff 	mov    -0x34e0(%rbp),%rax
   11954:	89 10                	mov    %edx,(%rax)
   11956:	48 8b 85 58 c9 ff ff 	mov    -0x36a8(%rbp),%rax
   1195d:	48 8b 95 20 cb ff ff 	mov    -0x34e0(%rbp),%rdx
   11964:	8b 12                	mov    (%rdx),%edx
   11966:	89 10                	mov    %edx,(%rax)
   11968:	48 8b 05 d9 23 01 00 	mov    0x123d9(%rip),%rax        # 23d48 <g_1876>
   1196f:	48 8b 95 58 c9 ff ff 	mov    -0x36a8(%rbp),%rdx
   11976:	48 89 10             	mov    %rdx,(%rax)
   11979:	83 ad b4 c9 ff ff 01 	subl   $0x1,-0x364c(%rbp)
   11980:	e9 a2 0f 00 00       	jmpq   12927 <func_22+0x6d5b>
   11985:	48 c7 85 18 cd ff ff 	movq   $0x0,-0x32e8(%rbp)
   1198c:	00 00 00 00 
   11990:	48 8d 05 31 0b 01 00 	lea    0x10b31(%rip),%rax        # 224c8 <g_539>
   11997:	48 89 85 08 cb ff ff 	mov    %rax,-0x34f8(%rbp)
   1199e:	48 8d 85 08 cb ff ff 	lea    -0x34f8(%rbp),%rax
   119a5:	48 89 85 20 cd ff ff 	mov    %rax,-0x32e0(%rbp)
   119ac:	c7 85 5c ca ff ff fc 	movl   $0xfffffffc,-0x35a4(%rbp)
   119b3:	ff ff ff 
   119b6:	48 8d 85 f0 ca ff ff 	lea    -0x3510(%rbp),%rax
   119bd:	48 89 85 10 cb ff ff 	mov    %rax,-0x34f0(%rbp)
   119c4:	48 8d 85 10 cb ff ff 	lea    -0x34f0(%rbp),%rax
   119cb:	48 89 85 18 cb ff ff 	mov    %rax,-0x34e8(%rbp)
   119d2:	48 8d 05 ff 28 01 00 	lea    0x128ff(%rip),%rax        # 242d8 <g_290>
   119d9:	48 89 85 70 e1 ff ff 	mov    %rax,-0x1e90(%rbp)
   119e0:	48 8d 05 f1 28 01 00 	lea    0x128f1(%rip),%rax        # 242d8 <g_290>
   119e7:	48 89 85 78 e1 ff ff 	mov    %rax,-0x1e88(%rbp)
   119ee:	48 c7 85 80 e1 ff ff 	movq   $0x0,-0x1e80(%rbp)
   119f5:	00 00 00 00 
   119f9:	48 8d 85 18 cb ff ff 	lea    -0x34e8(%rbp),%rax
   11a00:	48 89 85 88 e1 ff ff 	mov    %rax,-0x1e78(%rbp)
   11a07:	48 8d 05 ca 28 01 00 	lea    0x128ca(%rip),%rax        # 242d8 <g_290>
   11a0e:	48 89 85 90 e1 ff ff 	mov    %rax,-0x1e70(%rbp)
   11a15:	48 8d 85 18 cb ff ff 	lea    -0x34e8(%rbp),%rax
   11a1c:	48 89 85 98 e1 ff ff 	mov    %rax,-0x1e68(%rbp)
   11a23:	48 c7 85 a0 e1 ff ff 	movq   $0x0,-0x1e60(%rbp)
   11a2a:	00 00 00 00 
   11a2e:	48 8d 85 18 cb ff ff 	lea    -0x34e8(%rbp),%rax
   11a35:	48 89 85 a8 e1 ff ff 	mov    %rax,-0x1e58(%rbp)
   11a3c:	48 8d 05 95 28 01 00 	lea    0x12895(%rip),%rax        # 242d8 <g_290>
   11a43:	48 89 85 b0 e1 ff ff 	mov    %rax,-0x1e50(%rbp)
   11a4a:	48 8d 85 18 cb ff ff 	lea    -0x34e8(%rbp),%rax
   11a51:	48 89 85 b8 e1 ff ff 	mov    %rax,-0x1e48(%rbp)
   11a58:	48 8d 05 79 28 01 00 	lea    0x12879(%rip),%rax        # 242d8 <g_290>
   11a5f:	48 89 85 c0 e1 ff ff 	mov    %rax,-0x1e40(%rbp)
   11a66:	48 8d 85 18 cb ff ff 	lea    -0x34e8(%rbp),%rax
   11a6d:	48 89 85 c8 e1 ff ff 	mov    %rax,-0x1e38(%rbp)
   11a74:	48 8d 05 5d 28 01 00 	lea    0x1285d(%rip),%rax        # 242d8 <g_290>
   11a7b:	48 89 85 d0 e1 ff ff 	mov    %rax,-0x1e30(%rbp)
   11a82:	48 c7 85 d8 e1 ff ff 	movq   $0x0,-0x1e28(%rbp)
   11a89:	00 00 00 00 
   11a8d:	48 8d 85 18 cb ff ff 	lea    -0x34e8(%rbp),%rax
   11a94:	48 89 85 e0 e1 ff ff 	mov    %rax,-0x1e20(%rbp)
   11a9b:	48 8d 05 36 28 01 00 	lea    0x12836(%rip),%rax        # 242d8 <g_290>
   11aa2:	48 89 85 e8 e1 ff ff 	mov    %rax,-0x1e18(%rbp)
   11aa9:	48 8d 85 18 cb ff ff 	lea    -0x34e8(%rbp),%rax
   11ab0:	48 89 85 f0 e1 ff ff 	mov    %rax,-0x1e10(%rbp)
   11ab7:	48 8d 05 1a 28 01 00 	lea    0x1281a(%rip),%rax        # 242d8 <g_290>
   11abe:	48 89 85 f8 e1 ff ff 	mov    %rax,-0x1e08(%rbp)
   11ac5:	48 8d 05 0c 28 01 00 	lea    0x1280c(%rip),%rax        # 242d8 <g_290>
   11acc:	48 89 85 00 e2 ff ff 	mov    %rax,-0x1e00(%rbp)
   11ad3:	48 8d 85 18 cb ff ff 	lea    -0x34e8(%rbp),%rax
   11ada:	48 89 85 08 e2 ff ff 	mov    %rax,-0x1df8(%rbp)
   11ae1:	48 8d 85 18 cb ff ff 	lea    -0x34e8(%rbp),%rax
   11ae8:	48 89 85 10 e2 ff ff 	mov    %rax,-0x1df0(%rbp)
   11aef:	48 8d 05 e2 27 01 00 	lea    0x127e2(%rip),%rax        # 242d8 <g_290>
   11af6:	48 89 85 18 e2 ff ff 	mov    %rax,-0x1de8(%rbp)
   11afd:	48 8d 05 d4 27 01 00 	lea    0x127d4(%rip),%rax        # 242d8 <g_290>
   11b04:	48 89 85 20 e2 ff ff 	mov    %rax,-0x1de0(%rbp)
   11b0b:	48 8d 85 18 cb ff ff 	lea    -0x34e8(%rbp),%rax
   11b12:	48 89 85 28 e2 ff ff 	mov    %rax,-0x1dd8(%rbp)
   11b19:	48 8d 05 b8 27 01 00 	lea    0x127b8(%rip),%rax        # 242d8 <g_290>
   11b20:	48 89 85 30 e2 ff ff 	mov    %rax,-0x1dd0(%rbp)
   11b27:	48 8d 85 18 cb ff ff 	lea    -0x34e8(%rbp),%rax
   11b2e:	48 89 85 38 e2 ff ff 	mov    %rax,-0x1dc8(%rbp)
   11b35:	48 8d 85 18 cb ff ff 	lea    -0x34e8(%rbp),%rax
   11b3c:	48 89 85 40 e2 ff ff 	mov    %rax,-0x1dc0(%rbp)
   11b43:	48 8d 85 18 cb ff ff 	lea    -0x34e8(%rbp),%rax
   11b4a:	48 89 85 48 e2 ff ff 	mov    %rax,-0x1db8(%rbp)
   11b51:	48 8d 85 18 cb ff ff 	lea    -0x34e8(%rbp),%rax
   11b58:	48 89 85 50 e2 ff ff 	mov    %rax,-0x1db0(%rbp)
   11b5f:	48 8d 85 18 cb ff ff 	lea    -0x34e8(%rbp),%rax
   11b66:	48 89 85 58 e2 ff ff 	mov    %rax,-0x1da8(%rbp)
   11b6d:	48 8d 85 18 cb ff ff 	lea    -0x34e8(%rbp),%rax
   11b74:	48 89 85 60 e2 ff ff 	mov    %rax,-0x1da0(%rbp)
   11b7b:	48 8d 85 18 cb ff ff 	lea    -0x34e8(%rbp),%rax
   11b82:	48 89 85 68 e2 ff ff 	mov    %rax,-0x1d98(%rbp)
   11b89:	48 8d 85 18 cb ff ff 	lea    -0x34e8(%rbp),%rax
   11b90:	48 89 85 70 e2 ff ff 	mov    %rax,-0x1d90(%rbp)
   11b97:	48 8d 85 18 cb ff ff 	lea    -0x34e8(%rbp),%rax
   11b9e:	48 89 85 78 e2 ff ff 	mov    %rax,-0x1d88(%rbp)
   11ba5:	48 8d 05 2c 27 01 00 	lea    0x1272c(%rip),%rax        # 242d8 <g_290>
   11bac:	48 89 85 80 e2 ff ff 	mov    %rax,-0x1d80(%rbp)
   11bb3:	48 8d 85 18 cb ff ff 	lea    -0x34e8(%rbp),%rax
   11bba:	48 89 85 88 e2 ff ff 	mov    %rax,-0x1d78(%rbp)
   11bc1:	48 8d 85 18 cb ff ff 	lea    -0x34e8(%rbp),%rax
   11bc8:	48 89 85 90 e2 ff ff 	mov    %rax,-0x1d70(%rbp)
   11bcf:	48 8d 05 02 27 01 00 	lea    0x12702(%rip),%rax        # 242d8 <g_290>
   11bd6:	48 89 85 98 e2 ff ff 	mov    %rax,-0x1d68(%rbp)
   11bdd:	48 8d 85 18 cb ff ff 	lea    -0x34e8(%rbp),%rax
   11be4:	48 89 85 a0 e2 ff ff 	mov    %rax,-0x1d60(%rbp)
   11beb:	48 8d 85 18 cb ff ff 	lea    -0x34e8(%rbp),%rax
   11bf2:	48 89 85 a8 e2 ff ff 	mov    %rax,-0x1d58(%rbp)
   11bf9:	48 8d 05 d8 26 01 00 	lea    0x126d8(%rip),%rax        # 242d8 <g_290>
   11c00:	48 89 85 b0 e2 ff ff 	mov    %rax,-0x1d50(%rbp)
   11c07:	48 8d 05 ca 26 01 00 	lea    0x126ca(%rip),%rax        # 242d8 <g_290>
   11c0e:	48 89 85 b8 e2 ff ff 	mov    %rax,-0x1d48(%rbp)
   11c15:	48 8d 85 18 cb ff ff 	lea    -0x34e8(%rbp),%rax
   11c1c:	48 89 85 c0 e2 ff ff 	mov    %rax,-0x1d40(%rbp)
   11c23:	48 8d 05 ae 26 01 00 	lea    0x126ae(%rip),%rax        # 242d8 <g_290>
   11c2a:	48 89 85 c8 e2 ff ff 	mov    %rax,-0x1d38(%rbp)
   11c31:	48 8d 85 18 cb ff ff 	lea    -0x34e8(%rbp),%rax
   11c38:	48 89 85 d0 e2 ff ff 	mov    %rax,-0x1d30(%rbp)
   11c3f:	48 c7 85 d8 e2 ff ff 	movq   $0x0,-0x1d28(%rbp)
   11c46:	00 00 00 00 
   11c4a:	48 8d 05 87 26 01 00 	lea    0x12687(%rip),%rax        # 242d8 <g_290>
   11c51:	48 89 85 e0 e2 ff ff 	mov    %rax,-0x1d20(%rbp)
   11c58:	48 8d 85 18 cb ff ff 	lea    -0x34e8(%rbp),%rax
   11c5f:	48 89 85 e8 e2 ff ff 	mov    %rax,-0x1d18(%rbp)
   11c66:	48 8d 05 6b 26 01 00 	lea    0x1266b(%rip),%rax        # 242d8 <g_290>
   11c6d:	48 89 85 f0 e2 ff ff 	mov    %rax,-0x1d10(%rbp)
   11c74:	48 8d 85 18 cb ff ff 	lea    -0x34e8(%rbp),%rax
   11c7b:	48 89 85 f8 e2 ff ff 	mov    %rax,-0x1d08(%rbp)
   11c82:	48 8d 05 4f 26 01 00 	lea    0x1264f(%rip),%rax        # 242d8 <g_290>
   11c89:	48 89 85 00 e3 ff ff 	mov    %rax,-0x1d00(%rbp)
   11c90:	48 8d 85 18 cb ff ff 	lea    -0x34e8(%rbp),%rax
   11c97:	48 89 85 08 e3 ff ff 	mov    %rax,-0x1cf8(%rbp)
   11c9e:	48 8d 05 33 26 01 00 	lea    0x12633(%rip),%rax        # 242d8 <g_290>
   11ca5:	48 89 85 10 e3 ff ff 	mov    %rax,-0x1cf0(%rbp)
   11cac:	48 8d 85 18 cb ff ff 	lea    -0x34e8(%rbp),%rax
   11cb3:	48 89 85 18 e3 ff ff 	mov    %rax,-0x1ce8(%rbp)
   11cba:	48 8d 85 18 cb ff ff 	lea    -0x34e8(%rbp),%rax
   11cc1:	48 89 85 20 e3 ff ff 	mov    %rax,-0x1ce0(%rbp)
   11cc8:	48 8d 85 18 cb ff ff 	lea    -0x34e8(%rbp),%rax
   11ccf:	48 89 85 28 e3 ff ff 	mov    %rax,-0x1cd8(%rbp)
   11cd6:	48 8d 85 18 cb ff ff 	lea    -0x34e8(%rbp),%rax
   11cdd:	48 89 85 30 e3 ff ff 	mov    %rax,-0x1cd0(%rbp)
   11ce4:	48 8d 05 ed 25 01 00 	lea    0x125ed(%rip),%rax        # 242d8 <g_290>
   11ceb:	48 89 85 38 e3 ff ff 	mov    %rax,-0x1cc8(%rbp)
   11cf2:	48 8d 05 df 25 01 00 	lea    0x125df(%rip),%rax        # 242d8 <g_290>
   11cf9:	48 89 85 40 e3 ff ff 	mov    %rax,-0x1cc0(%rbp)
   11d00:	48 8d 85 18 cb ff ff 	lea    -0x34e8(%rbp),%rax
   11d07:	48 89 85 48 e3 ff ff 	mov    %rax,-0x1cb8(%rbp)
   11d0e:	48 8d 05 c3 25 01 00 	lea    0x125c3(%rip),%rax        # 242d8 <g_290>
   11d15:	48 89 85 50 e3 ff ff 	mov    %rax,-0x1cb0(%rbp)
   11d1c:	48 8d 85 18 cb ff ff 	lea    -0x34e8(%rbp),%rax
   11d23:	48 89 85 58 e3 ff ff 	mov    %rax,-0x1ca8(%rbp)
   11d2a:	48 8d 05 a7 25 01 00 	lea    0x125a7(%rip),%rax        # 242d8 <g_290>
   11d31:	48 89 85 60 e3 ff ff 	mov    %rax,-0x1ca0(%rbp)
   11d38:	48 8d 85 18 cb ff ff 	lea    -0x34e8(%rbp),%rax
   11d3f:	48 89 85 68 e3 ff ff 	mov    %rax,-0x1c98(%rbp)
   11d46:	48 8d 85 18 cb ff ff 	lea    -0x34e8(%rbp),%rax
   11d4d:	48 89 85 70 e3 ff ff 	mov    %rax,-0x1c90(%rbp)
   11d54:	48 c7 85 78 e3 ff ff 	movq   $0x0,-0x1c88(%rbp)
   11d5b:	00 00 00 00 
   11d5f:	48 8d 85 18 cb ff ff 	lea    -0x34e8(%rbp),%rax
   11d66:	48 89 85 80 e3 ff ff 	mov    %rax,-0x1c80(%rbp)
   11d6d:	48 8d 05 64 25 01 00 	lea    0x12564(%rip),%rax        # 242d8 <g_290>
   11d74:	48 89 85 88 e3 ff ff 	mov    %rax,-0x1c78(%rbp)
   11d7b:	48 8d 05 56 25 01 00 	lea    0x12556(%rip),%rax        # 242d8 <g_290>
   11d82:	48 89 85 90 e3 ff ff 	mov    %rax,-0x1c70(%rbp)
   11d89:	48 8d 85 18 cb ff ff 	lea    -0x34e8(%rbp),%rax
   11d90:	48 89 85 98 e3 ff ff 	mov    %rax,-0x1c68(%rbp)
   11d97:	48 8d 05 3a 25 01 00 	lea    0x1253a(%rip),%rax        # 242d8 <g_290>
   11d9e:	48 89 85 a0 e3 ff ff 	mov    %rax,-0x1c60(%rbp)
   11da5:	48 8d 05 2c 25 01 00 	lea    0x1252c(%rip),%rax        # 242d8 <g_290>
   11dac:	48 89 85 a8 e3 ff ff 	mov    %rax,-0x1c58(%rbp)
   11db3:	48 8d 05 1e 25 01 00 	lea    0x1251e(%rip),%rax        # 242d8 <g_290>
   11dba:	48 89 85 b0 e3 ff ff 	mov    %rax,-0x1c50(%rbp)
   11dc1:	48 8d 05 10 25 01 00 	lea    0x12510(%rip),%rax        # 242d8 <g_290>
   11dc8:	48 89 85 b8 e3 ff ff 	mov    %rax,-0x1c48(%rbp)
   11dcf:	48 8d 05 02 25 01 00 	lea    0x12502(%rip),%rax        # 242d8 <g_290>
   11dd6:	48 89 85 c0 e3 ff ff 	mov    %rax,-0x1c40(%rbp)
   11ddd:	48 c7 85 c8 e3 ff ff 	movq   $0x0,-0x1c38(%rbp)
   11de4:	00 00 00 00 
   11de8:	48 8d 85 18 cb ff ff 	lea    -0x34e8(%rbp),%rax
   11def:	48 89 85 d0 e3 ff ff 	mov    %rax,-0x1c30(%rbp)
   11df6:	48 8d 05 db 24 01 00 	lea    0x124db(%rip),%rax        # 242d8 <g_290>
   11dfd:	48 89 85 d8 e3 ff ff 	mov    %rax,-0x1c28(%rbp)
   11e04:	48 8d 85 18 cb ff ff 	lea    -0x34e8(%rbp),%rax
   11e0b:	48 89 85 e0 e3 ff ff 	mov    %rax,-0x1c20(%rbp)
   11e12:	48 8d 85 18 cb ff ff 	lea    -0x34e8(%rbp),%rax
   11e19:	48 89 85 e8 e3 ff ff 	mov    %rax,-0x1c18(%rbp)
   11e20:	48 8d 05 b1 24 01 00 	lea    0x124b1(%rip),%rax        # 242d8 <g_290>
   11e27:	48 89 85 f0 e3 ff ff 	mov    %rax,-0x1c10(%rbp)
   11e2e:	48 8d 05 a3 24 01 00 	lea    0x124a3(%rip),%rax        # 242d8 <g_290>
   11e35:	48 89 85 f8 e3 ff ff 	mov    %rax,-0x1c08(%rbp)
   11e3c:	48 8d 85 18 cb ff ff 	lea    -0x34e8(%rbp),%rax
   11e43:	48 89 85 00 e4 ff ff 	mov    %rax,-0x1c00(%rbp)
   11e4a:	48 8d 85 18 cb ff ff 	lea    -0x34e8(%rbp),%rax
   11e51:	48 89 85 08 e4 ff ff 	mov    %rax,-0x1bf8(%rbp)
   11e58:	48 8d 85 18 cb ff ff 	lea    -0x34e8(%rbp),%rax
   11e5f:	48 89 85 10 e4 ff ff 	mov    %rax,-0x1bf0(%rbp)
   11e66:	48 8d 85 18 cb ff ff 	lea    -0x34e8(%rbp),%rax
   11e6d:	48 89 85 18 e4 ff ff 	mov    %rax,-0x1be8(%rbp)
   11e74:	48 8d 05 5d 24 01 00 	lea    0x1245d(%rip),%rax        # 242d8 <g_290>
   11e7b:	48 89 85 20 e4 ff ff 	mov    %rax,-0x1be0(%rbp)
   11e82:	48 8d 05 4f 24 01 00 	lea    0x1244f(%rip),%rax        # 242d8 <g_290>
   11e89:	48 89 85 28 e4 ff ff 	mov    %rax,-0x1bd8(%rbp)
   11e90:	48 8d 85 18 cb ff ff 	lea    -0x34e8(%rbp),%rax
   11e97:	48 89 85 30 e4 ff ff 	mov    %rax,-0x1bd0(%rbp)
   11e9e:	48 8d 05 33 24 01 00 	lea    0x12433(%rip),%rax        # 242d8 <g_290>
   11ea5:	48 89 85 38 e4 ff ff 	mov    %rax,-0x1bc8(%rbp)
   11eac:	48 8d 85 18 cb ff ff 	lea    -0x34e8(%rbp),%rax
   11eb3:	48 89 85 40 e4 ff ff 	mov    %rax,-0x1bc0(%rbp)
   11eba:	48 8d 05 17 24 01 00 	lea    0x12417(%rip),%rax        # 242d8 <g_290>
   11ec1:	48 89 85 48 e4 ff ff 	mov    %rax,-0x1bb8(%rbp)
   11ec8:	48 8d 85 18 cb ff ff 	lea    -0x34e8(%rbp),%rax
   11ecf:	48 89 85 50 e4 ff ff 	mov    %rax,-0x1bb0(%rbp)
   11ed6:	48 8d 05 fb 23 01 00 	lea    0x123fb(%rip),%rax        # 242d8 <g_290>
   11edd:	48 89 85 58 e4 ff ff 	mov    %rax,-0x1ba8(%rbp)
   11ee4:	48 8d 85 18 cb ff ff 	lea    -0x34e8(%rbp),%rax
   11eeb:	48 89 85 60 e4 ff ff 	mov    %rax,-0x1ba0(%rbp)
   11ef2:	48 8d 05 df 23 01 00 	lea    0x123df(%rip),%rax        # 242d8 <g_290>
   11ef9:	48 89 85 68 e4 ff ff 	mov    %rax,-0x1b98(%rbp)
   11f00:	48 8d 05 d1 23 01 00 	lea    0x123d1(%rip),%rax        # 242d8 <g_290>
   11f07:	48 89 85 70 e4 ff ff 	mov    %rax,-0x1b90(%rbp)
   11f0e:	48 8d 85 18 cb ff ff 	lea    -0x34e8(%rbp),%rax
   11f15:	48 89 85 78 e4 ff ff 	mov    %rax,-0x1b88(%rbp)
   11f1c:	48 8d 05 b5 23 01 00 	lea    0x123b5(%rip),%rax        # 242d8 <g_290>
   11f23:	48 89 85 80 e4 ff ff 	mov    %rax,-0x1b80(%rbp)
   11f2a:	48 8d 85 18 cb ff ff 	lea    -0x34e8(%rbp),%rax
   11f31:	48 89 85 88 e4 ff ff 	mov    %rax,-0x1b78(%rbp)
   11f38:	48 8d 85 18 cb ff ff 	lea    -0x34e8(%rbp),%rax
   11f3f:	48 89 85 90 e4 ff ff 	mov    %rax,-0x1b70(%rbp)
   11f46:	48 8d 05 8b 23 01 00 	lea    0x1238b(%rip),%rax        # 242d8 <g_290>
   11f4d:	48 89 85 98 e4 ff ff 	mov    %rax,-0x1b68(%rbp)
   11f54:	48 8d 05 7d 23 01 00 	lea    0x1237d(%rip),%rax        # 242d8 <g_290>
   11f5b:	48 89 85 a0 e4 ff ff 	mov    %rax,-0x1b60(%rbp)
   11f62:	48 8d 85 18 cb ff ff 	lea    -0x34e8(%rbp),%rax
   11f69:	48 89 85 a8 e4 ff ff 	mov    %rax,-0x1b58(%rbp)
   11f70:	48 8d 85 18 cb ff ff 	lea    -0x34e8(%rbp),%rax
   11f77:	48 89 85 b0 e4 ff ff 	mov    %rax,-0x1b50(%rbp)
   11f7e:	48 8d 05 53 23 01 00 	lea    0x12353(%rip),%rax        # 242d8 <g_290>
   11f85:	48 89 85 b8 e4 ff ff 	mov    %rax,-0x1b48(%rbp)
   11f8c:	48 8d 85 18 cb ff ff 	lea    -0x34e8(%rbp),%rax
   11f93:	48 89 85 c0 e4 ff ff 	mov    %rax,-0x1b40(%rbp)
   11f9a:	48 c7 85 c8 e4 ff ff 	movq   $0x0,-0x1b38(%rbp)
   11fa1:	00 00 00 00 
   11fa5:	48 8d 05 2c 23 01 00 	lea    0x1232c(%rip),%rax        # 242d8 <g_290>
   11fac:	48 89 85 d0 e4 ff ff 	mov    %rax,-0x1b30(%rbp)
   11fb3:	48 8d 05 1e 23 01 00 	lea    0x1231e(%rip),%rax        # 242d8 <g_290>
   11fba:	48 89 85 d8 e4 ff ff 	mov    %rax,-0x1b28(%rbp)
   11fc1:	48 8d 05 10 23 01 00 	lea    0x12310(%rip),%rax        # 242d8 <g_290>
   11fc8:	48 89 85 e0 e4 ff ff 	mov    %rax,-0x1b20(%rbp)
   11fcf:	48 8d 05 02 23 01 00 	lea    0x12302(%rip),%rax        # 242d8 <g_290>
   11fd6:	48 89 85 e8 e4 ff ff 	mov    %rax,-0x1b18(%rbp)
   11fdd:	48 8d 05 f4 22 01 00 	lea    0x122f4(%rip),%rax        # 242d8 <g_290>
   11fe4:	48 89 85 f0 e4 ff ff 	mov    %rax,-0x1b10(%rbp)
   11feb:	48 8d 85 18 cb ff ff 	lea    -0x34e8(%rbp),%rax
   11ff2:	48 89 85 f8 e4 ff ff 	mov    %rax,-0x1b08(%rbp)
   11ff9:	48 c7 85 00 e5 ff ff 	movq   $0x0,-0x1b00(%rbp)
   12000:	00 00 00 00 
   12004:	48 8d 05 cd 22 01 00 	lea    0x122cd(%rip),%rax        # 242d8 <g_290>
   1200b:	48 89 85 08 e5 ff ff 	mov    %rax,-0x1af8(%rbp)
   12012:	48 8d 05 bf 22 01 00 	lea    0x122bf(%rip),%rax        # 242d8 <g_290>
   12019:	48 89 85 10 e5 ff ff 	mov    %rax,-0x1af0(%rbp)
   12020:	48 c7 85 18 e5 ff ff 	movq   $0x0,-0x1ae8(%rbp)
   12027:	00 00 00 00 
   1202b:	48 c7 85 20 e5 ff ff 	movq   $0x0,-0x1ae0(%rbp)
   12032:	00 00 00 00 
   12036:	48 8d 85 18 cb ff ff 	lea    -0x34e8(%rbp),%rax
   1203d:	48 89 85 28 e5 ff ff 	mov    %rax,-0x1ad8(%rbp)
   12044:	48 8d 05 8d 22 01 00 	lea    0x1228d(%rip),%rax        # 242d8 <g_290>
   1204b:	48 89 85 30 e5 ff ff 	mov    %rax,-0x1ad0(%rbp)
   12052:	48 8d 85 18 cb ff ff 	lea    -0x34e8(%rbp),%rax
   12059:	48 89 85 38 e5 ff ff 	mov    %rax,-0x1ac8(%rbp)
   12060:	48 c7 85 40 e5 ff ff 	movq   $0x0,-0x1ac0(%rbp)
   12067:	00 00 00 00 
   1206b:	48 8d 85 18 cb ff ff 	lea    -0x34e8(%rbp),%rax
   12072:	48 89 85 48 e5 ff ff 	mov    %rax,-0x1ab8(%rbp)
   12079:	48 8d 05 58 22 01 00 	lea    0x12258(%rip),%rax        # 242d8 <g_290>
   12080:	48 89 85 50 e5 ff ff 	mov    %rax,-0x1ab0(%rbp)
   12087:	48 8d 05 4a 22 01 00 	lea    0x1224a(%rip),%rax        # 242d8 <g_290>
   1208e:	48 89 85 58 e5 ff ff 	mov    %rax,-0x1aa8(%rbp)
   12095:	48 c7 85 60 e5 ff ff 	movq   $0x0,-0x1aa0(%rbp)
   1209c:	00 00 00 00 
   120a0:	48 8d 85 18 cb ff ff 	lea    -0x34e8(%rbp),%rax
   120a7:	48 89 85 68 e5 ff ff 	mov    %rax,-0x1a98(%rbp)
   120ae:	48 8d 05 23 22 01 00 	lea    0x12223(%rip),%rax        # 242d8 <g_290>
   120b5:	48 89 85 70 e5 ff ff 	mov    %rax,-0x1a90(%rbp)
   120bc:	48 8d 85 18 cb ff ff 	lea    -0x34e8(%rbp),%rax
   120c3:	48 89 85 78 e5 ff ff 	mov    %rax,-0x1a88(%rbp)
   120ca:	48 c7 85 80 e5 ff ff 	movq   $0x0,-0x1a80(%rbp)
   120d1:	00 00 00 00 
   120d5:	48 8d 85 18 cb ff ff 	lea    -0x34e8(%rbp),%rax
   120dc:	48 89 85 88 e5 ff ff 	mov    %rax,-0x1a78(%rbp)
   120e3:	48 8d 05 ee 21 01 00 	lea    0x121ee(%rip),%rax        # 242d8 <g_290>
   120ea:	48 89 85 90 e5 ff ff 	mov    %rax,-0x1a70(%rbp)
   120f1:	48 8d 85 18 cb ff ff 	lea    -0x34e8(%rbp),%rax
   120f8:	48 89 85 98 e5 ff ff 	mov    %rax,-0x1a68(%rbp)
   120ff:	48 8d 05 d2 21 01 00 	lea    0x121d2(%rip),%rax        # 242d8 <g_290>
   12106:	48 89 85 a0 e5 ff ff 	mov    %rax,-0x1a60(%rbp)
   1210d:	48 8d 85 18 cb ff ff 	lea    -0x34e8(%rbp),%rax
   12114:	48 89 85 a8 e5 ff ff 	mov    %rax,-0x1a58(%rbp)
   1211b:	48 8d 05 b6 21 01 00 	lea    0x121b6(%rip),%rax        # 242d8 <g_290>
   12122:	48 89 85 b0 e5 ff ff 	mov    %rax,-0x1a50(%rbp)
   12129:	48 c7 85 b8 e5 ff ff 	movq   $0x0,-0x1a48(%rbp)
   12130:	00 00 00 00 
   12134:	48 8d 85 18 cb ff ff 	lea    -0x34e8(%rbp),%rax
   1213b:	48 89 85 c0 e5 ff ff 	mov    %rax,-0x1a40(%rbp)
   12142:	48 8d 05 8f 21 01 00 	lea    0x1218f(%rip),%rax        # 242d8 <g_290>
   12149:	48 89 85 c8 e5 ff ff 	mov    %rax,-0x1a38(%rbp)
   12150:	48 8d 85 18 cb ff ff 	lea    -0x34e8(%rbp),%rax
   12157:	48 89 85 d0 e5 ff ff 	mov    %rax,-0x1a30(%rbp)
   1215e:	48 8d 05 73 21 01 00 	lea    0x12173(%rip),%rax        # 242d8 <g_290>
   12165:	48 89 85 d8 e5 ff ff 	mov    %rax,-0x1a28(%rbp)
   1216c:	48 8d 05 65 21 01 00 	lea    0x12165(%rip),%rax        # 242d8 <g_290>
   12173:	48 89 85 e0 e5 ff ff 	mov    %rax,-0x1a20(%rbp)
   1217a:	48 8d 85 18 cb ff ff 	lea    -0x34e8(%rbp),%rax
   12181:	48 89 85 e8 e5 ff ff 	mov    %rax,-0x1a18(%rbp)
   12188:	48 8d 85 18 cb ff ff 	lea    -0x34e8(%rbp),%rax
   1218f:	48 89 85 f0 e5 ff ff 	mov    %rax,-0x1a10(%rbp)
   12196:	48 8d 05 3b 21 01 00 	lea    0x1213b(%rip),%rax        # 242d8 <g_290>
   1219d:	48 89 85 f8 e5 ff ff 	mov    %rax,-0x1a08(%rbp)
   121a4:	48 8d 05 2d 21 01 00 	lea    0x1212d(%rip),%rax        # 242d8 <g_290>
   121ab:	48 89 85 00 e6 ff ff 	mov    %rax,-0x1a00(%rbp)
   121b2:	48 8d 85 18 cb ff ff 	lea    -0x34e8(%rbp),%rax
   121b9:	48 89 85 08 e6 ff ff 	mov    %rax,-0x19f8(%rbp)
   121c0:	48 8d 05 11 21 01 00 	lea    0x12111(%rip),%rax        # 242d8 <g_290>
   121c7:	48 89 85 10 e6 ff ff 	mov    %rax,-0x19f0(%rbp)
   121ce:	48 8d 85 18 cb ff ff 	lea    -0x34e8(%rbp),%rax
   121d5:	48 89 85 18 e6 ff ff 	mov    %rax,-0x19e8(%rbp)
   121dc:	48 8d 85 18 cb ff ff 	lea    -0x34e8(%rbp),%rax
   121e3:	48 89 85 20 e6 ff ff 	mov    %rax,-0x19e0(%rbp)
   121ea:	48 8d 85 18 cb ff ff 	lea    -0x34e8(%rbp),%rax
   121f1:	48 89 85 28 e6 ff ff 	mov    %rax,-0x19d8(%rbp)
   121f8:	48 8d 85 18 cb ff ff 	lea    -0x34e8(%rbp),%rax
   121ff:	48 89 85 30 e6 ff ff 	mov    %rax,-0x19d0(%rbp)
   12206:	48 8d 85 18 cb ff ff 	lea    -0x34e8(%rbp),%rax
   1220d:	48 89 85 38 e6 ff ff 	mov    %rax,-0x19c8(%rbp)
   12214:	48 8d 85 18 cb ff ff 	lea    -0x34e8(%rbp),%rax
   1221b:	48 89 85 40 e6 ff ff 	mov    %rax,-0x19c0(%rbp)
   12222:	48 8d 85 18 cb ff ff 	lea    -0x34e8(%rbp),%rax
   12229:	48 89 85 48 e6 ff ff 	mov    %rax,-0x19b8(%rbp)
   12230:	48 8d 85 18 cb ff ff 	lea    -0x34e8(%rbp),%rax
   12237:	48 89 85 50 e6 ff ff 	mov    %rax,-0x19b0(%rbp)
   1223e:	48 8d 85 18 cb ff ff 	lea    -0x34e8(%rbp),%rax
   12245:	48 89 85 58 e6 ff ff 	mov    %rax,-0x19a8(%rbp)
   1224c:	48 8d 05 85 20 01 00 	lea    0x12085(%rip),%rax        # 242d8 <g_290>
   12253:	48 89 85 60 e6 ff ff 	mov    %rax,-0x19a0(%rbp)
   1225a:	48 8d 85 18 cb ff ff 	lea    -0x34e8(%rbp),%rax
   12261:	48 89 85 68 e6 ff ff 	mov    %rax,-0x1998(%rbp)
   12268:	48 8d 85 18 cb ff ff 	lea    -0x34e8(%rbp),%rax
   1226f:	48 89 85 70 e6 ff ff 	mov    %rax,-0x1990(%rbp)
   12276:	48 8d 05 5b 20 01 00 	lea    0x1205b(%rip),%rax        # 242d8 <g_290>
   1227d:	48 89 85 78 e6 ff ff 	mov    %rax,-0x1988(%rbp)
   12284:	48 8d 85 18 cb ff ff 	lea    -0x34e8(%rbp),%rax
   1228b:	48 89 85 80 e6 ff ff 	mov    %rax,-0x1980(%rbp)
   12292:	48 8d 85 18 cb ff ff 	lea    -0x34e8(%rbp),%rax
   12299:	48 89 85 88 e6 ff ff 	mov    %rax,-0x1978(%rbp)
   122a0:	48 8d 05 31 20 01 00 	lea    0x12031(%rip),%rax        # 242d8 <g_290>
   122a7:	48 89 85 90 e6 ff ff 	mov    %rax,-0x1970(%rbp)
   122ae:	48 8d 05 23 20 01 00 	lea    0x12023(%rip),%rax        # 242d8 <g_290>
   122b5:	48 89 85 98 e6 ff ff 	mov    %rax,-0x1968(%rbp)
   122bc:	48 8d 85 18 cb ff ff 	lea    -0x34e8(%rbp),%rax
   122c3:	48 89 85 a0 e6 ff ff 	mov    %rax,-0x1960(%rbp)
   122ca:	48 8d 05 07 20 01 00 	lea    0x12007(%rip),%rax        # 242d8 <g_290>
   122d1:	48 89 85 a8 e6 ff ff 	mov    %rax,-0x1958(%rbp)
   122d8:	48 8d 85 18 cb ff ff 	lea    -0x34e8(%rbp),%rax
   122df:	48 89 85 b0 e6 ff ff 	mov    %rax,-0x1950(%rbp)
   122e6:	48 c7 85 b8 e6 ff ff 	movq   $0x0,-0x1948(%rbp)
   122ed:	00 00 00 00 
   122f1:	48 8d 05 e0 1f 01 00 	lea    0x11fe0(%rip),%rax        # 242d8 <g_290>
   122f8:	48 89 85 c0 e6 ff ff 	mov    %rax,-0x1940(%rbp)
   122ff:	48 8d 85 18 cb ff ff 	lea    -0x34e8(%rbp),%rax
   12306:	48 89 85 c8 e6 ff ff 	mov    %rax,-0x1938(%rbp)
   1230d:	48 8d 05 c4 1f 01 00 	lea    0x11fc4(%rip),%rax        # 242d8 <g_290>
   12314:	48 89 85 d0 e6 ff ff 	mov    %rax,-0x1930(%rbp)
   1231b:	48 8d 85 18 cb ff ff 	lea    -0x34e8(%rbp),%rax
   12322:	48 89 85 d8 e6 ff ff 	mov    %rax,-0x1928(%rbp)
   12329:	48 8d 05 a8 1f 01 00 	lea    0x11fa8(%rip),%rax        # 242d8 <g_290>
   12330:	48 89 85 e0 e6 ff ff 	mov    %rax,-0x1920(%rbp)
   12337:	48 8d 85 18 cb ff ff 	lea    -0x34e8(%rbp),%rax
   1233e:	48 89 85 e8 e6 ff ff 	mov    %rax,-0x1918(%rbp)
   12345:	48 8d 05 8c 1f 01 00 	lea    0x11f8c(%rip),%rax        # 242d8 <g_290>
   1234c:	48 89 85 f0 e6 ff ff 	mov    %rax,-0x1910(%rbp)
   12353:	48 8d 85 18 cb ff ff 	lea    -0x34e8(%rbp),%rax
   1235a:	48 89 85 f8 e6 ff ff 	mov    %rax,-0x1908(%rbp)
   12361:	48 8d 85 18 cb ff ff 	lea    -0x34e8(%rbp),%rax
   12368:	48 89 85 00 e7 ff ff 	mov    %rax,-0x1900(%rbp)
   1236f:	48 8d 85 18 cb ff ff 	lea    -0x34e8(%rbp),%rax
   12376:	48 89 85 08 e7 ff ff 	mov    %rax,-0x18f8(%rbp)
   1237d:	48 8d 85 18 cb ff ff 	lea    -0x34e8(%rbp),%rax
   12384:	48 89 85 10 e7 ff ff 	mov    %rax,-0x18f0(%rbp)
   1238b:	48 8d 05 46 1f 01 00 	lea    0x11f46(%rip),%rax        # 242d8 <g_290>
   12392:	48 89 85 18 e7 ff ff 	mov    %rax,-0x18e8(%rbp)
   12399:	48 8d 05 38 1f 01 00 	lea    0x11f38(%rip),%rax        # 242d8 <g_290>
   123a0:	48 89 85 20 e7 ff ff 	mov    %rax,-0x18e0(%rbp)
   123a7:	48 8d 85 18 cb ff ff 	lea    -0x34e8(%rbp),%rax
   123ae:	48 89 85 28 e7 ff ff 	mov    %rax,-0x18d8(%rbp)
   123b5:	48 8d 05 1c 1f 01 00 	lea    0x11f1c(%rip),%rax        # 242d8 <g_290>
   123bc:	48 89 85 30 e7 ff ff 	mov    %rax,-0x18d0(%rbp)
   123c3:	48 8d 85 18 cb ff ff 	lea    -0x34e8(%rbp),%rax
   123ca:	48 89 85 38 e7 ff ff 	mov    %rax,-0x18c8(%rbp)
   123d1:	48 c7 85 40 e7 ff ff 	movq   $0x0,-0x18c0(%rbp)
   123d8:	00 00 00 00 
   123dc:	48 8d 85 18 cb ff ff 	lea    -0x34e8(%rbp),%rax
   123e3:	48 89 85 48 e7 ff ff 	mov    %rax,-0x18b8(%rbp)
   123ea:	48 8d 85 18 cb ff ff 	lea    -0x34e8(%rbp),%rax
   123f1:	48 89 85 50 e7 ff ff 	mov    %rax,-0x18b0(%rbp)
   123f8:	48 8d 85 18 cb ff ff 	lea    -0x34e8(%rbp),%rax
   123ff:	48 89 85 58 e7 ff ff 	mov    %rax,-0x18a8(%rbp)
   12406:	48 8d 85 18 cb ff ff 	lea    -0x34e8(%rbp),%rax
   1240d:	48 89 85 60 e7 ff ff 	mov    %rax,-0x18a0(%rbp)
   12414:	48 8d 85 18 cb ff ff 	lea    -0x34e8(%rbp),%rax
   1241b:	48 89 85 68 e7 ff ff 	mov    %rax,-0x1898(%rbp)
   12422:	48 c7 85 70 e7 ff ff 	movq   $0x0,-0x1890(%rbp)
   12429:	00 00 00 00 
   1242d:	48 8d 05 a4 1e 01 00 	lea    0x11ea4(%rip),%rax        # 242d8 <g_290>
   12434:	48 89 85 78 e7 ff ff 	mov    %rax,-0x1888(%rbp)
   1243b:	48 8d 85 18 cb ff ff 	lea    -0x34e8(%rbp),%rax
   12442:	48 89 85 80 e7 ff ff 	mov    %rax,-0x1880(%rbp)
   12449:	48 8d 05 88 1e 01 00 	lea    0x11e88(%rip),%rax        # 242d8 <g_290>
   12450:	48 89 85 88 e7 ff ff 	mov    %rax,-0x1878(%rbp)
   12457:	48 8d 85 18 cb ff ff 	lea    -0x34e8(%rbp),%rax
   1245e:	48 89 85 90 e7 ff ff 	mov    %rax,-0x1870(%rbp)
   12465:	48 8d 05 6c 1e 01 00 	lea    0x11e6c(%rip),%rax        # 242d8 <g_290>
   1246c:	48 89 85 98 e7 ff ff 	mov    %rax,-0x1868(%rbp)
   12473:	48 8d 85 18 cb ff ff 	lea    -0x34e8(%rbp),%rax
   1247a:	48 89 85 a0 e7 ff ff 	mov    %rax,-0x1860(%rbp)
   12481:	48 8d 85 18 cb ff ff 	lea    -0x34e8(%rbp),%rax
   12488:	48 89 85 a8 e7 ff ff 	mov    %rax,-0x1858(%rbp)
   1248f:	48 8d 05 42 1e 01 00 	lea    0x11e42(%rip),%rax        # 242d8 <g_290>
   12496:	48 89 85 b0 e7 ff ff 	mov    %rax,-0x1850(%rbp)
   1249d:	48 8d 85 18 cb ff ff 	lea    -0x34e8(%rbp),%rax
   124a4:	48 89 85 b8 e7 ff ff 	mov    %rax,-0x1848(%rbp)
   124ab:	48 8d 05 26 1e 01 00 	lea    0x11e26(%rip),%rax        # 242d8 <g_290>
   124b2:	48 89 85 c0 e7 ff ff 	mov    %rax,-0x1840(%rbp)
   124b9:	48 8d 05 18 1e 01 00 	lea    0x11e18(%rip),%rax        # 242d8 <g_290>
   124c0:	48 89 85 c8 e7 ff ff 	mov    %rax,-0x1838(%rbp)
   124c7:	48 8d 05 0a 1e 01 00 	lea    0x11e0a(%rip),%rax        # 242d8 <g_290>
   124ce:	48 89 85 d0 e7 ff ff 	mov    %rax,-0x1830(%rbp)
   124d5:	48 8d 05 fc 1d 01 00 	lea    0x11dfc(%rip),%rax        # 242d8 <g_290>
   124dc:	48 89 85 d8 e7 ff ff 	mov    %rax,-0x1828(%rbp)
   124e3:	48 8d 05 ee 1d 01 00 	lea    0x11dee(%rip),%rax        # 242d8 <g_290>
   124ea:	48 89 85 e0 e7 ff ff 	mov    %rax,-0x1820(%rbp)
   124f1:	48 8d 05 e0 1d 01 00 	lea    0x11de0(%rip),%rax        # 242d8 <g_290>
   124f8:	48 89 85 e8 e7 ff ff 	mov    %rax,-0x1818(%rbp)
   124ff:	48 8d 85 18 cb ff ff 	lea    -0x34e8(%rbp),%rax
   12506:	48 89 85 f0 e7 ff ff 	mov    %rax,-0x1810(%rbp)
   1250d:	48 8d 85 18 cb ff ff 	lea    -0x34e8(%rbp),%rax
   12514:	48 89 85 f8 e7 ff ff 	mov    %rax,-0x1808(%rbp)
   1251b:	48 8d 05 b6 1d 01 00 	lea    0x11db6(%rip),%rax        # 242d8 <g_290>
   12522:	48 89 85 00 e8 ff ff 	mov    %rax,-0x1800(%rbp)
   12529:	48 8d 85 18 cb ff ff 	lea    -0x34e8(%rbp),%rax
   12530:	48 89 85 08 e8 ff ff 	mov    %rax,-0x17f8(%rbp)
   12537:	48 8d 05 9a 1d 01 00 	lea    0x11d9a(%rip),%rax        # 242d8 <g_290>
   1253e:	48 89 85 10 e8 ff ff 	mov    %rax,-0x17f0(%rbp)
   12545:	48 8d 85 18 cb ff ff 	lea    -0x34e8(%rbp),%rax
   1254c:	48 89 85 18 e8 ff ff 	mov    %rax,-0x17e8(%rbp)
   12553:	48 8d 05 7e 1d 01 00 	lea    0x11d7e(%rip),%rax        # 242d8 <g_290>
   1255a:	48 89 85 20 e8 ff ff 	mov    %rax,-0x17e0(%rbp)
   12561:	48 8d 05 70 1d 01 00 	lea    0x11d70(%rip),%rax        # 242d8 <g_290>
   12568:	48 89 85 28 e8 ff ff 	mov    %rax,-0x17d8(%rbp)
   1256f:	48 8d 05 62 1d 01 00 	lea    0x11d62(%rip),%rax        # 242d8 <g_290>
   12576:	48 89 85 30 e8 ff ff 	mov    %rax,-0x17d0(%rbp)
   1257d:	48 8d 85 18 cb ff ff 	lea    -0x34e8(%rbp),%rax
   12584:	48 89 85 38 e8 ff ff 	mov    %rax,-0x17c8(%rbp)
   1258b:	48 8d 85 18 cb ff ff 	lea    -0x34e8(%rbp),%rax
   12592:	48 89 85 40 e8 ff ff 	mov    %rax,-0x17c0(%rbp)
   12599:	48 8d 85 18 cb ff ff 	lea    -0x34e8(%rbp),%rax
   125a0:	48 89 85 48 e8 ff ff 	mov    %rax,-0x17b8(%rbp)
   125a7:	48 8d 85 18 cb ff ff 	lea    -0x34e8(%rbp),%rax
   125ae:	48 89 85 50 e8 ff ff 	mov    %rax,-0x17b0(%rbp)
   125b5:	48 8d 85 18 cb ff ff 	lea    -0x34e8(%rbp),%rax
   125bc:	48 89 85 58 e8 ff ff 	mov    %rax,-0x17a8(%rbp)
   125c3:	48 8d 85 18 cb ff ff 	lea    -0x34e8(%rbp),%rax
   125ca:	48 89 85 60 e8 ff ff 	mov    %rax,-0x17a0(%rbp)
   125d1:	48 8d 05 00 1d 01 00 	lea    0x11d00(%rip),%rax        # 242d8 <g_290>
   125d8:	48 89 85 68 e8 ff ff 	mov    %rax,-0x1798(%rbp)
   125df:	48 8d 05 ea ca 00 00 	lea    0xcaea(%rip),%rax        # 1f0d0 <g_28>
   125e6:	48 89 85 28 cd ff ff 	mov    %rax,-0x32d8(%rbp)
   125ed:	48 c7 85 30 cd ff ff 	movq   $0x0,-0x32d0(%rbp)
   125f4:	00 00 00 00 
   125f8:	48 8b 85 18 cb ff ff 	mov    -0x34e8(%rbp),%rax
   125ff:	48 89 85 98 cb ff ff 	mov    %rax,-0x3468(%rbp)
   12606:	48 8b 05 ab 1d 01 00 	mov    0x11dab(%rip),%rax        # 243b8 <g_1897>
   1260d:	48 39 85 98 cb ff ff 	cmp    %rax,-0x3468(%rbp)
   12614:	48 8b 05 dd 04 01 00 	mov    0x104dd(%rip),%rax        # 22af8 <g_1338>
   1261b:	48 8b 00             	mov    (%rax),%rax
   1261e:	8b 95 5c ca ff ff    	mov    -0x35a4(%rbp),%edx
   12624:	88 10                	mov    %dl,(%rax)
   12626:	0f b6 00             	movzbl (%rax),%eax
   12629:	0f b6 d0             	movzbl %al,%edx
   1262c:	48 8d 05 9d ca 00 00 	lea    0xca9d(%rip),%rax        # 1f0d0 <g_28>
   12633:	48 39 85 28 cd ff ff 	cmp    %rax,-0x32d8(%rbp)
   1263a:	0f 94 c0             	sete   %al
   1263d:	0f b6 c0             	movzbl %al,%eax
   12640:	39 c2                	cmp    %eax,%edx
   12642:	0f 9e c0             	setle  %al
   12645:	0f b6 c0             	movzbl %al,%eax
   12648:	89 85 88 c9 ff ff    	mov    %eax,-0x3678(%rbp)
   1264e:	8b 85 88 c9 ff ff    	mov    -0x3678(%rbp),%eax
   12654:	0f bf d8             	movswl %ax,%ebx
   12657:	48 8b 85 f0 ca ff ff 	mov    -0x3510(%rbp),%rax
   1265e:	0f b7 10             	movzwl (%rax),%edx
   12661:	8d 4a ff             	lea    -0x1(%rdx),%ecx
   12664:	66 89 08             	mov    %cx,(%rax)
   12667:	0f b7 d2             	movzwl %dx,%edx
   1266a:	48 8b 85 20 cd ff ff 	mov    -0x32e0(%rbp),%rax
   12671:	48 8d 0d 58 fe 00 00 	lea    0xfe58(%rip),%rcx        # 224d0 <g_544>
   12678:	48 89 08             	mov    %rcx,(%rax)
   1267b:	48 8b 85 20 cd ff ff 	mov    -0x32e0(%rbp),%rax
   12682:	48 8b 00             	mov    (%rax),%rax
   12685:	48 8d 0d 44 fe 00 00 	lea    0xfe44(%rip),%rcx        # 224d0 <g_544>
   1268c:	48 39 c8             	cmp    %rcx,%rax
   1268f:	0f 95 c0             	setne  %al
   12692:	0f b6 c0             	movzbl %al,%eax
   12695:	89 d6                	mov    %edx,%esi
   12697:	89 c7                	mov    %eax,%edi
   12699:	e8 43 7e ff ff       	callq  a4e1 <safe_lshift_func_int16_t_s_u>
   1269e:	98                   	cwtl   
   1269f:	89 de                	mov    %ebx,%esi
   126a1:	89 c7                	mov    %eax,%edi
   126a3:	e8 4d 7d ff ff       	callq  a3f5 <safe_mul_func_int16_t_s_s>
   126a8:	be 06 00 00 00       	mov    $0x6,%esi
   126ad:	bf 00 00 00 00       	mov    $0x0,%edi
   126b2:	e8 db 7d ff ff       	callq  a492 <safe_lshift_func_int16_t_s_s>
   126b7:	48 8b 95 20 cb ff ff 	mov    -0x34e0(%rbp),%rdx
   126be:	8b 12                	mov    (%rdx),%edx
   126c0:	98                   	cwtl   
   126c1:	09 c2                	or     %eax,%edx
   126c3:	48 8b 85 20 cb ff ff 	mov    -0x34e0(%rbp),%rax
   126ca:	89 10                	mov    %edx,(%rax)
   126cc:	48 8b 85 58 c9 ff ff 	mov    -0x36a8(%rbp),%rax
   126d3:	c7 00 00 00 00 00    	movl   $0x0,(%rax)
   126d9:	48 8b 9d 48 c9 ff ff 	mov    -0x36b8(%rbp),%rbx
   126e0:	48 8b 05 d9 fd 00 00 	mov    0xfdd9(%rip),%rax        # 224c0 <g_416>
   126e7:	48 8b 10             	mov    (%rax),%rdx
   126ea:	48 8b 85 d8 cc ff ff 	mov    -0x3328(%rbp),%rax
   126f1:	48 89 10             	mov    %rdx,(%rax)
   126f4:	48 8b 85 d8 cc ff ff 	mov    -0x3328(%rbp),%rax
   126fb:	48 8b 00             	mov    (%rax),%rax
   126fe:	48 89 85 30 c9 ff ff 	mov    %rax,-0x36d0(%rbp)
   12705:	48 8b 85 38 c9 ff ff 	mov    -0x36c8(%rbp),%rax
   1270c:	0f b6 00             	movzbl (%rax),%eax
   1270f:	44 0f be e0          	movsbl %al,%r12d
   12713:	8b 85 5c ca ff ff    	mov    -0x35a4(%rbp),%eax
   12719:	44 0f b7 e8          	movzwl %ax,%r13d
   1271d:	48 8b 85 58 c9 ff ff 	mov    -0x36a8(%rbp),%rax
   12724:	8b 00                	mov    (%rax),%eax
   12726:	89 85 50 c9 ff ff    	mov    %eax,-0x36b0(%rbp)
   1272c:	48 8b 05 c5 03 01 00 	mov    0x103c5(%rip),%rax        # 22af8 <g_1338>
   12733:	48 8b 00             	mov    (%rax),%rax
   12736:	0f b6 00             	movzbl (%rax),%eax
   12739:	44 0f b6 f0          	movzbl %al,%r14d
   1273d:	8b 85 5c ca ff ff    	mov    -0x35a4(%rbp),%eax
   12743:	44 0f bf f8          	movswl %ax,%r15d
   12747:	48 8b 85 40 c9 ff ff 	mov    -0x36c0(%rbp),%rax
   1274e:	66 89 05 fb d6 00 00 	mov    %ax,0xd6fb(%rip)        # 1fe50 <g_1152>
   12755:	0f b7 05 f4 d6 00 00 	movzwl 0xd6f4(%rip),%eax        # 1fe50 <g_1152>
   1275c:	66 89 85 2e c9 ff ff 	mov    %ax,-0x36d2(%rbp)
   12763:	8b 85 54 c9 ff ff    	mov    -0x36ac(%rbp),%eax
   12769:	48 98                	cltq   
   1276b:	48 89 85 20 c9 ff ff 	mov    %rax,-0x36e0(%rbp)
   12772:	48 8b 05 17 d8 00 00 	mov    0xd817(%rip),%rax        # 1ff90 <g_1925>
   12779:	48 8b 15 18 d8 00 00 	mov    0xd818(%rip),%rdx        # 1ff98 <g_1925+0x8>
   12780:	48 8b 85 40 c9 ff ff 	mov    -0x36c0(%rbp),%rax
   12787:	48 3d f7 00 00 00    	cmp    $0xf7,%rax
   1278d:	77 56                	ja     127e5 <func_22+0x6c19>
   1278f:	48 8b 95 48 c9 ff ff 	mov    -0x36b8(%rbp),%rdx
   12796:	48 8b 85 f0 ca ff ff 	mov    -0x3510(%rbp),%rax
   1279d:	66 89 10             	mov    %dx,(%rax)
   127a0:	0f b7 00             	movzwl (%rax),%eax
   127a3:	0f b7 c0             	movzwl %ax,%eax
   127a6:	89 85 28 c9 ff ff    	mov    %eax,-0x36d8(%rbp)
   127ac:	8b 95 54 c9 ff ff    	mov    -0x36ac(%rbp),%edx
   127b2:	8b 85 54 c9 ff ff    	mov    -0x36ac(%rbp),%eax
   127b8:	89 d6                	mov    %edx,%esi
   127ba:	89 c7                	mov    %eax,%edi
   127bc:	e8 3c 87 ff ff       	callq  aefd <safe_mod_func_uint32_t_u_u>
   127c1:	39 85 28 c9 ff ff    	cmp    %eax,-0x36d8(%rbp)
   127c7:	0f 94 c2             	sete   %dl
   127ca:	48 8b 05 df 13 01 00 	mov    0x113df(%rip),%rax        # 23bb0 <g_1736>
   127d1:	48 8b 00             	mov    (%rax),%rax
   127d4:	48 8b 00             	mov    (%rax),%rax
   127d7:	0f b6 d2             	movzbl %dl,%edx
   127da:	48 89 10             	mov    %rdx,(%rax)
   127dd:	48 8b 00             	mov    (%rax),%rax
   127e0:	48 85 c0             	test   %rax,%rax
   127e3:	74 07                	je     127ec <func_22+0x6c20>
   127e5:	b8 01 00 00 00       	mov    $0x1,%eax
   127ea:	eb 05                	jmp    127f1 <func_22+0x6c25>
   127ec:	b8 00 00 00 00       	mov    $0x0,%eax
   127f1:	48 98                	cltq   
   127f3:	48 8b b5 20 c9 ff ff 	mov    -0x36e0(%rbp),%rsi
   127fa:	48 89 c7             	mov    %rax,%rdi
   127fd:	e8 3f 80 ff ff       	callq  a841 <safe_add_func_int64_t_s_s>
   12802:	66 89 05 49 d6 00 00 	mov    %ax,0xd649(%rip)        # 1fe52 <g_1228>
   12809:	0f b7 05 42 d6 00 00 	movzwl 0xd642(%rip),%eax        # 1fe52 <g_1228>
   12810:	66 0b 85 2e c9 ff ff 	or     -0x36d2(%rbp),%ax
   12817:	48 0f bf c0          	movswq %ax,%rax
   1281b:	83 e0 01             	and    $0x1,%eax
   1281e:	48 89 c2             	mov    %rax,%rdx
   12821:	48 8b 85 58 c9 ff ff 	mov    -0x36a8(%rbp),%rax
   12828:	8b 00                	mov    (%rax),%eax
   1282a:	48 98                	cltq   
   1282c:	48 39 c2             	cmp    %rax,%rdx
   1282f:	0f 97 c0             	seta   %al
   12832:	0f b6 c0             	movzbl %al,%eax
   12835:	39 85 cc c9 ff ff    	cmp    %eax,-0x3634(%rbp)
   1283b:	0f 95 c0             	setne  %al
   1283e:	0f b6 c0             	movzbl %al,%eax
   12841:	be 00 00 00 00       	mov    $0x0,%esi
   12846:	89 c7                	mov    %eax,%edi
   12848:	e8 a5 79 ff ff       	callq  a1f2 <safe_sub_func_int8_t_s_s>
   1284d:	0f be c0             	movsbl %al,%eax
   12850:	44 89 fe             	mov    %r15d,%esi
   12853:	89 c7                	mov    %eax,%edi
   12855:	e8 9b 7b ff ff       	callq  a3f5 <safe_mul_func_int16_t_s_s>
   1285a:	98                   	cwtl   
   1285b:	39 85 5c ca ff ff    	cmp    %eax,-0x35a4(%rbp)
   12861:	0f 9e c0             	setle  %al
   12864:	0f b6 c0             	movzbl %al,%eax
   12867:	44 89 f6             	mov    %r14d,%esi
   1286a:	89 c7                	mov    %eax,%edi
   1286c:	e8 22 83 ff ff       	callq  ab93 <safe_mul_func_uint8_t_u_u>
   12871:	48 83 bd 38 c9 ff ff 	cmpq   $0x0,-0x36c8(%rbp)
   12878:	00 
   12879:	0f 94 c0             	sete   %al
   1287c:	0f b6 d0             	movzbl %al,%edx
   1287f:	0f be 85 66 c9 ff ff 	movsbl -0x369a(%rbp),%eax
   12886:	39 c2                	cmp    %eax,%edx
   12888:	0f 9c c0             	setl   %al
   1288b:	0f b6 c0             	movzbl %al,%eax
   1288e:	8b b5 50 c9 ff ff    	mov    -0x36b0(%rbp),%esi
   12894:	89 c7                	mov    %eax,%edi
   12896:	e8 8a 86 ff ff       	callq  af25 <safe_div_func_uint32_t_u_u>
   1289b:	8b 95 54 c9 ff ff    	mov    -0x36ac(%rbp),%edx
   128a1:	39 d0                	cmp    %edx,%eax
   128a3:	0f 95 c0             	setne  %al
   128a6:	0f b6 c0             	movzbl %al,%eax
   128a9:	44 89 ee             	mov    %r13d,%esi
   128ac:	89 c7                	mov    %eax,%edi
   128ae:	e8 6c 84 ff ff       	callq  ad1f <safe_sub_func_uint16_t_u_u>
   128b3:	98                   	cwtl   
   128b4:	be 0e 00 00 00       	mov    $0xe,%esi
   128b9:	89 c7                	mov    %eax,%edi
   128bb:	e8 6a 7c ff ff       	callq  a52a <safe_rshift_func_int16_t_s_s>
   128c0:	0f bf d0             	movswl %ax,%edx
   128c3:	48 8b 85 a0 cb ff ff 	mov    -0x3460(%rbp),%rax
   128ca:	8b 00                	mov    (%rax),%eax
   128cc:	39 c2                	cmp    %eax,%edx
   128ce:	0f 9e c0             	setle  %al
   128d1:	0f b6 c0             	movzbl %al,%eax
   128d4:	8b 95 5c ca ff ff    	mov    -0x35a4(%rbp),%edx
   128da:	89 d6                	mov    %edx,%esi
   128dc:	89 c7                	mov    %eax,%edi
   128de:	e8 22 83 ff ff       	callq  ac05 <safe_lshift_func_uint8_t_u_s>
   128e3:	0f b6 c0             	movzbl %al,%eax
   128e6:	44 89 e6             	mov    %r12d,%esi
   128e9:	89 c7                	mov    %eax,%edi
   128eb:	e8 9d 83 ff ff       	callq  ac8d <safe_rshift_func_uint8_t_u_s>
   128f0:	0f b6 d0             	movzbl %al,%edx
   128f3:	48 8b 85 20 cb ff ff 	mov    -0x34e0(%rbp),%rax
   128fa:	89 10                	mov    %edx,(%rax)
   128fc:	48 8b 85 20 cb ff ff 	mov    -0x34e0(%rbp),%rax
   12903:	8b 00                	mov    (%rax),%eax
   12905:	f7 d0                	not    %eax
   12907:	48 98                	cltq   
   12909:	48 39 85 30 c9 ff ff 	cmp    %rax,-0x36d0(%rbp)
   12910:	0f 94 c0             	sete   %al
   12913:	0f b6 c0             	movzbl %al,%eax
   12916:	48 89 de             	mov    %rbx,%rsi
   12919:	48 89 c7             	mov    %rax,%rdi
   1291c:	e8 87 7f ff ff       	callq  a8a8 <safe_sub_func_int64_t_s_s>
   12921:	09 85 58 ca ff ff    	or     %eax,-0x35a8(%rbp)
   12927:	48 8b 05 b2 01 01 00 	mov    0x101b2(%rip),%rax        # 22ae0 <g_977>
   1292e:	8b 15 cc cd 00 00    	mov    0xcdcc(%rip),%edx        # 1f700 <g_264>
   12934:	8d 72 03             	lea    0x3(%rdx),%esi
   12937:	0f b7 15 e2 19 01 00 	movzwl 0x119e2(%rip),%edx        # 24320 <g_1370>
   1293e:	0f bf d2             	movswl %dx,%edx
   12941:	48 8b 8d 48 c9 ff ff 	mov    -0x36b8(%rbp),%rcx
   12948:	48 8d 79 04          	lea    0x4(%rcx),%rdi
   1294c:	48 8b 08             	mov    (%rax),%rcx
   1294f:	48 63 c2             	movslq %edx,%rax
   12952:	89 f6                	mov    %esi,%esi
   12954:	48 89 c2             	mov    %rax,%rdx
   12957:	48 01 d2             	add    %rdx,%rdx
   1295a:	48 01 c2             	add    %rax,%rdx
   1295d:	48 8d 04 12          	lea    (%rdx,%rdx,1),%rax
   12961:	48 89 c2             	mov    %rax,%rdx
   12964:	48 89 f0             	mov    %rsi,%rax
   12967:	48 01 c0             	add    %rax,%rax
   1296a:	48 01 f0             	add    %rsi,%rax
   1296d:	48 c1 e0 03          	shl    $0x3,%rax
   12971:	48 01 d0             	add    %rdx,%rax
   12974:	48 01 f8             	add    %rdi,%rax
   12977:	48 8d 14 c5 00 00 00 	lea    0x0(,%rax,8),%rdx
   1297e:	00 
   1297f:	48 8d 05 da fc 00 00 	lea    0xfcda(%rip),%rax        # 22660 <g_978>
   12986:	48 89 0c 02          	mov    %rcx,(%rdx,%rax,1)
   1298a:	8b 85 d0 ce ff ff    	mov    -0x3130(%rbp),%eax
   12990:	85 c0                	test   %eax,%eax
   12992:	74 17                	je     129ab <func_22+0x6ddf>
   12994:	48 8b 85 48 c9 ff ff 	mov    -0x36b8(%rbp),%rax
   1299b:	48 83 c0 01          	add    $0x1,%rax
   1299f:	48 89 85 48 c9 ff ff 	mov    %rax,-0x36b8(%rbp)
   129a6:	e9 3e 03 00 00       	jmpq   12ce9 <func_22+0x711d>
   129ab:	48 8b 85 00 cb ff ff 	mov    -0x3500(%rbp),%rax
   129b2:	48 89 85 40 cb ff ff 	mov    %rax,-0x34c0(%rbp)
   129b9:	48 8b 85 40 cb ff ff 	mov    -0x34c0(%rbp),%rax
   129c0:	48 3b 85 e0 cc ff ff 	cmp    -0x3320(%rbp),%rax
   129c7:	0f 94 c2             	sete   %dl
   129ca:	48 8b 85 58 c9 ff ff 	mov    -0x36a8(%rbp),%rax
   129d1:	0f b6 d2             	movzbl %dl,%edx
   129d4:	89 10                	mov    %edx,(%rax)
   129d6:	e9 00 03 00 00       	jmpq   12cdb <func_22+0x710f>
   129db:	c7 85 e0 da ff ff 33 	movl   $0x2cd14b33,-0x2520(%rbp)
   129e2:	4b d1 2c 
   129e5:	c7 85 e4 da ff ff 24 	movl   $0x2785a924,-0x251c(%rbp)
   129ec:	a9 85 27 
   129ef:	c7 85 e8 da ff ff 24 	movl   $0x2785a924,-0x2518(%rbp)
   129f6:	a9 85 27 
   129f9:	c7 85 ec da ff ff 33 	movl   $0x2cd14b33,-0x2514(%rbp)
   12a00:	4b d1 2c 
   12a03:	c7 85 f0 da ff ff 24 	movl   $0x2785a924,-0x2510(%rbp)
   12a0a:	a9 85 27 
   12a0d:	c7 85 f4 da ff ff 24 	movl   $0x2785a924,-0x250c(%rbp)
   12a14:	a9 85 27 
   12a17:	c7 85 f8 da ff ff 33 	movl   $0x2cd14b33,-0x2508(%rbp)
   12a1e:	4b d1 2c 
   12a21:	48 8d 05 28 13 01 00 	lea    0x11328(%rip),%rax        # 23d50 <g_1951>
   12a28:	48 89 85 e8 cc ff ff 	mov    %rax,-0x3318(%rbp)
   12a2f:	c7 85 70 e1 ff ff 61 	movl   $0xc1813561,-0x1e90(%rbp)
   12a36:	35 81 c1 
   12a39:	c7 85 74 e1 ff ff 40 	movl   $0xd91b7940,-0x1e8c(%rbp)
   12a40:	79 1b d9 
   12a43:	c7 85 78 e1 ff ff 61 	movl   $0xc1813561,-0x1e88(%rbp)
   12a4a:	35 81 c1 
   12a4d:	c7 85 7c e1 ff ff 61 	movl   $0xc1813561,-0x1e84(%rbp)
   12a54:	35 81 c1 
   12a57:	c7 85 80 e1 ff ff 01 	movl   $0x1,-0x1e80(%rbp)
   12a5e:	00 00 00 
   12a61:	c7 85 84 e1 ff ff f7 	movl   $0xfffffff7,-0x1e7c(%rbp)
   12a68:	ff ff ff 
   12a6b:	c7 85 88 e1 ff ff 61 	movl   $0xc1813561,-0x1e78(%rbp)
   12a72:	35 81 c1 
   12a75:	c7 85 8c e1 ff ff 8a 	movl   $0xa91de88a,-0x1e74(%rbp)
   12a7c:	e8 1d a9 
   12a7f:	c7 85 90 e1 ff ff 04 	movl   $0x4,-0x1e70(%rbp)
   12a86:	00 00 00 
   12a89:	c7 85 94 e1 ff ff 61 	movl   $0xc1813561,-0x1e6c(%rbp)
   12a90:	35 81 c1 
   12a93:	c7 85 98 e1 ff ff 40 	movl   $0xd91b7940,-0x1e68(%rbp)
   12a9a:	79 1b d9 
   12a9d:	c7 85 9c e1 ff ff 61 	movl   $0xc1813561,-0x1e64(%rbp)
   12aa4:	35 81 c1 
   12aa7:	c7 85 a0 e1 ff ff 61 	movl   $0xc1813561,-0x1e60(%rbp)
   12aae:	35 81 c1 
   12ab1:	c7 85 a4 e1 ff ff 01 	movl   $0x1,-0x1e5c(%rbp)
   12ab8:	00 00 00 
   12abb:	c7 85 a8 e1 ff ff f7 	movl   $0xfffffff7,-0x1e58(%rbp)
   12ac2:	ff ff ff 
   12ac5:	c7 85 ac e1 ff ff 61 	movl   $0xc1813561,-0x1e54(%rbp)
   12acc:	35 81 c1 
   12acf:	c7 85 b0 e1 ff ff 8a 	movl   $0xa91de88a,-0x1e50(%rbp)
   12ad6:	e8 1d a9 
   12ad9:	c7 85 b4 e1 ff ff 04 	movl   $0x4,-0x1e4c(%rbp)
   12ae0:	00 00 00 
   12ae3:	c7 85 b8 e1 ff ff 61 	movl   $0xc1813561,-0x1e48(%rbp)
   12aea:	35 81 c1 
   12aed:	c7 85 bc e1 ff ff 40 	movl   $0xd91b7940,-0x1e44(%rbp)
   12af4:	79 1b d9 
   12af7:	c7 85 c0 e1 ff ff 61 	movl   $0xc1813561,-0x1e40(%rbp)
   12afe:	35 81 c1 
   12b01:	c7 85 c4 e1 ff ff 61 	movl   $0xc1813561,-0x1e3c(%rbp)
   12b08:	35 81 c1 
   12b0b:	c7 85 c8 e1 ff ff 01 	movl   $0x1,-0x1e38(%rbp)
   12b12:	00 00 00 
   12b15:	c7 85 cc e1 ff ff f7 	movl   $0xfffffff7,-0x1e34(%rbp)
   12b1c:	ff ff ff 
   12b1f:	c7 85 d0 e1 ff ff 61 	movl   $0xc1813561,-0x1e30(%rbp)
   12b26:	35 81 c1 
   12b29:	c7 85 d4 e1 ff ff 8a 	movl   $0xa91de88a,-0x1e2c(%rbp)
   12b30:	e8 1d a9 
   12b33:	c7 85 d8 e1 ff ff 04 	movl   $0x4,-0x1e28(%rbp)
   12b3a:	00 00 00 
   12b3d:	c6 85 6d c9 ff ff 1f 	movb   $0x1f,-0x3693(%rbp)
   12b44:	48 c7 85 80 ca ff ff 	movq   $0x0,-0x3580(%rbp)
   12b4b:	00 00 00 00 
   12b4f:	90                   	nop
   12b50:	48 8b 85 80 ca ff ff 	mov    -0x3580(%rbp),%rax
   12b57:	48 85 c0             	test   %rax,%rax
   12b5a:	0f 85 71 01 00 00    	jne    12cd1 <func_22+0x7105>
   12b60:	48 c7 85 f0 cc ff ff 	movq   $0x0,-0x3310(%rbp)
   12b67:	00 00 00 00 
   12b6b:	48 8d 05 5e d3 00 00 	lea    0xd35e(%rip),%rax        # 1fed0 <g_1827>
   12b72:	48 89 85 f8 cc ff ff 	mov    %rax,-0x3308(%rbp)
   12b79:	c7 85 3c ca ff ff c9 	movl   $0x20116ec9,-0x35c4(%rbp)
   12b80:	6e 11 20 
   12b83:	c7 85 40 ca ff ff 65 	movl   $0xfd4dd565,-0x35c0(%rbp)
   12b8a:	d5 4d fd 
   12b8d:	c7 85 44 ca ff ff 00 	movl   $0x0,-0x35bc(%rbp)
   12b94:	00 00 00 
   12b97:	c7 85 48 ca ff ff fe 	movl   $0xfffffffe,-0x35b8(%rbp)
   12b9e:	ff ff ff 
   12ba1:	c7 85 4c ca ff ff fe 	movl   $0xfffffffe,-0x35b4(%rbp)
   12ba8:	ff ff ff 
   12bab:	c7 85 50 ca ff ff 01 	movl   $0x1,-0x35b0(%rbp)
   12bb2:	00 00 00 
   12bb5:	c7 85 54 ca ff ff 87 	movl   $0x7667c287,-0x35ac(%rbp)
   12bbc:	c2 67 76 
   12bbf:	8b 9d f8 da ff ff    	mov    -0x2508(%rbp),%ebx
   12bc5:	48 8b 05 dc 0f 01 00 	mov    0x10fdc(%rip),%rax        # 23ba8 <g_1737>
   12bcc:	48 8b 00             	mov    (%rax),%rax
   12bcf:	48 8b 10             	mov    (%rax),%rdx
   12bd2:	8b 85 54 c9 ff ff    	mov    -0x36ac(%rbp),%eax
   12bd8:	48 98                	cltq   
   12bda:	48 21 d0             	and    %rdx,%rax
   12bdd:	48 85 c0             	test   %rax,%rax
   12be0:	0f 94 c0             	sete   %al
   12be3:	44 0f b6 e0          	movzbl %al,%r12d
   12be7:	48 8b 05 6a 11 01 00 	mov    0x1116a(%rip),%rax        # 23d58 <g_1950>
   12bee:	48 39 85 e8 cc ff ff 	cmp    %rax,-0x3318(%rbp)
   12bf5:	74 0c                	je     12c03 <func_22+0x7037>
   12bf7:	48 8b 85 40 c9 ff ff 	mov    -0x36c0(%rbp),%rax
   12bfe:	48 85 c0             	test   %rax,%rax
   12c01:	74 08                	je     12c0b <func_22+0x703f>
   12c03:	41 bd 01 00 00 00    	mov    $0x1,%r13d
   12c09:	eb 06                	jmp    12c11 <func_22+0x7045>
   12c0b:	41 bd 00 00 00 00    	mov    $0x0,%r13d
   12c11:	48 8b 85 38 c9 ff ff 	mov    -0x36c8(%rbp),%rax
   12c18:	0f b6 00             	movzbl (%rax),%eax
   12c1b:	0f be c0             	movsbl %al,%eax
   12c1e:	be 04 00 00 00       	mov    $0x4,%esi
   12c23:	89 c7                	mov    %eax,%edi
   12c25:	e8 0b 77 ff ff       	callq  a335 <safe_rshift_func_int8_t_s_s>
   12c2a:	66 98                	cbtw   
   12c2c:	0f b7 c0             	movzwl %ax,%eax
   12c2f:	44 89 ee             	mov    %r13d,%esi
   12c32:	89 c7                	mov    %eax,%edi
   12c34:	e8 85 81 ff ff       	callq  adbe <safe_lshift_func_uint16_t_u_s>
   12c39:	ba 9c 00 00 00       	mov    $0x9c,%edx
   12c3e:	48 8b 85 f8 cc ff ff 	mov    -0x3308(%rbp),%rax
   12c45:	0f b6 00             	movzbl (%rax),%eax
   12c48:	31 c2                	xor    %eax,%edx
   12c4a:	48 8b 85 f8 cc ff ff 	mov    -0x3308(%rbp),%rax
   12c51:	88 10                	mov    %dl,(%rax)
   12c53:	48 8b 85 f8 cc ff ff 	mov    -0x3308(%rbp),%rax
   12c5a:	0f b6 00             	movzbl (%rax),%eax
   12c5d:	0f be c0             	movsbl %al,%eax
   12c60:	89 c6                	mov    %eax,%esi
   12c62:	bf 35 00 00 00       	mov    $0x35,%edi
   12c67:	e8 a6 75 ff ff       	callq  a212 <safe_mul_func_int8_t_s_s>
   12c6c:	0f be c0             	movsbl %al,%eax
   12c6f:	41 39 c4             	cmp    %eax,%r12d
   12c72:	0f 9e c0             	setle  %al
   12c75:	0f b6 c0             	movzbl %al,%eax
   12c78:	be ad c6 ff ff       	mov    $0xffffc6ad,%esi
   12c7d:	89 c7                	mov    %eax,%edi
   12c7f:	e8 71 77 ff ff       	callq  a3f5 <safe_mul_func_int16_t_s_s>
   12c84:	88 05 a6 ce 00 00    	mov    %al,0xcea6(%rip)        # 1fb30 <g_893+0x210>
   12c8a:	0f b6 05 9f ce 00 00 	movzbl 0xce9f(%rip),%eax        # 1fb30 <g_893+0x210>
   12c91:	0f be d0             	movsbl %al,%edx
   12c94:	8b 85 f8 da ff ff    	mov    -0x2508(%rbp),%eax
   12c9a:	39 c2                	cmp    %eax,%edx
   12c9c:	0f 9f c0             	setg   %al
   12c9f:	0f b6 c0             	movzbl %al,%eax
   12ca2:	39 c3                	cmp    %eax,%ebx
   12ca4:	0f 9c c2             	setl   %dl
   12ca7:	48 8b 85 58 c9 ff ff 	mov    -0x36a8(%rbp),%rax
   12cae:	0f b6 d2             	movzbl %dl,%edx
   12cb1:	89 10                	mov    %edx,(%rax)
   12cb3:	0f b6 85 6d c9 ff ff 	movzbl -0x3693(%rbp),%eax
   12cba:	83 c0 01             	add    $0x1,%eax
   12cbd:	88 85 6d c9 ff ff    	mov    %al,-0x3693(%rbp)
   12cc3:	48 8b 85 58 c9 ff ff 	mov    -0x36a8(%rbp),%rax
   12cca:	8b 00                	mov    (%rax),%eax
   12ccc:	e9 97 09 00 00       	jmpq   13668 <func_22+0x7a9c>
   12cd1:	8b 85 88 c9 ff ff    	mov    -0x3678(%rbp),%eax
   12cd7:	85 c0                	test   %eax,%eax
   12cd9:	75 1f                	jne    12cfa <func_22+0x712e>
   12cdb:	48 8b 85 58 c9 ff ff 	mov    -0x36a8(%rbp),%rax
   12ce2:	8b 00                	mov    (%rax),%eax
   12ce4:	e9 7f 09 00 00       	jmpq   13668 <func_22+0x7a9c>
   12ce9:	48 8b 85 48 c9 ff ff 	mov    -0x36b8(%rbp),%rax
   12cf0:	48 83 f8 01          	cmp    $0x1,%rax
   12cf4:	0f 8e bf bf ff ff    	jle    ecb9 <func_22+0x30ed>
   12cfa:	0f b7 05 1f 16 01 00 	movzwl 0x1161f(%rip),%eax        # 24320 <g_1370>
   12d01:	83 e8 01             	sub    $0x1,%eax
   12d04:	66 89 05 15 16 01 00 	mov    %ax,0x11615(%rip)        # 24320 <g_1370>
   12d0b:	0f b7 05 0e 16 01 00 	movzwl 0x1160e(%rip),%eax        # 24320 <g_1370>
   12d12:	66 85 c0             	test   %ax,%ax
   12d15:	0f 89 c8 be ff ff    	jns    ebe3 <func_22+0x3017>
   12d1b:	8b 05 df c9 00 00    	mov    0xc9df(%rip),%eax        # 1f700 <g_264>
   12d21:	83 c0 01             	add    $0x1,%eax
   12d24:	89 05 d6 c9 00 00    	mov    %eax,0xc9d6(%rip)        # 1f700 <g_264>
   12d2a:	8b 05 d0 c9 00 00    	mov    0xc9d0(%rip),%eax        # 1f700 <g_264>
   12d30:	83 f8 01             	cmp    $0x1,%eax
   12d33:	0f 86 23 95 ff ff    	jbe    c25c <func_22+0x690>
   12d39:	eb 01                	jmp    12d3c <func_22+0x7170>
   12d3b:	90                   	nop
   12d3c:	0f b7 05 5d d2 00 00 	movzwl 0xd25d(%rip),%eax        # 1ffa0 <g_1975>
   12d43:	48 8b 05 6e 0e 01 00 	mov    0x10e6e(%rip),%rax        # 23bb8 <g_1735>
   12d4a:	48 8b 00             	mov    (%rax),%rax
   12d4d:	48 8b 00             	mov    (%rax),%rax
   12d50:	48 8b 10             	mov    (%rax),%rdx
   12d53:	48 8d 85 40 c9 ff ff 	lea    -0x36c0(%rbp),%rax
   12d5a:	48 39 c2             	cmp    %rax,%rdx
   12d5d:	0f 95 c0             	setne  %al
   12d60:	0f b6 d0             	movzbl %al,%edx
   12d63:	48 8b 8d 90 ca ff ff 	mov    -0x3570(%rbp),%rcx
   12d6a:	48 8b 85 98 ca ff ff 	mov    -0x3568(%rbp),%rax
   12d71:	48 8b 00             	mov    (%rax),%rax
   12d74:	48 8b 00             	mov    (%rax),%rax
   12d77:	48 8b 09             	mov    (%rcx),%rcx
   12d7a:	48 89 08             	mov    %rcx,(%rax)
   12d7d:	48 8b 00             	mov    (%rax),%rax
   12d80:	48 39 85 48 cb ff ff 	cmp    %rax,-0x34b8(%rbp)
   12d87:	74 10                	je     12d99 <func_22+0x71cd>
   12d89:	83 bd 54 c9 ff ff 00 	cmpl   $0x0,-0x36ac(%rbp)
   12d90:	74 07                	je     12d99 <func_22+0x71cd>
   12d92:	b8 01 00 00 00       	mov    $0x1,%eax
   12d97:	eb 05                	jmp    12d9e <func_22+0x71d2>
   12d99:	b8 00 00 00 00       	mov    $0x0,%eax
   12d9e:	89 d6                	mov    %edx,%esi
   12da0:	89 c7                	mov    %eax,%edi
   12da2:	e8 29 81 ff ff       	callq  aed0 <safe_sub_func_uint32_t_u_u>
   12da7:	85 c0                	test   %eax,%eax
   12da9:	75 0e                	jne    12db9 <func_22+0x71ed>
   12dab:	48 8b 85 38 c9 ff ff 	mov    -0x36c8(%rbp),%rax
   12db2:	0f b6 00             	movzbl (%rax),%eax
   12db5:	3c 06                	cmp    $0x6,%al
   12db7:	74 07                	je     12dc0 <func_22+0x71f4>
   12db9:	b8 01 00 00 00       	mov    $0x1,%eax
   12dbe:	eb 05                	jmp    12dc5 <func_22+0x71f9>
   12dc0:	b8 00 00 00 00       	mov    $0x0,%eax
   12dc5:	89 c6                	mov    %eax,%esi
   12dc7:	bf ff ff ff ff       	mov    $0xffffffff,%edi
   12dcc:	e8 2e 79 ff ff       	callq  a6ff <safe_div_func_int32_t_s_s>
   12dd1:	48 8b 85 58 c9 ff ff 	mov    -0x36a8(%rbp),%rax
   12dd8:	8b 00                	mov    (%rax),%eax
   12dda:	85 c0                	test   %eax,%eax
   12ddc:	0f 84 1d 02 00 00    	je     12fff <func_22+0x7433>
   12de2:	48 8d 85 d0 f7 ff ff 	lea    -0x830(%rbp),%rax
   12de9:	48 8d 15 70 7a 00 00 	lea    0x7a70(%rip),%rdx        # 1a860 <g_2156+0x380>
   12df0:	b9 78 00 00 00       	mov    $0x78,%ecx
   12df5:	48 89 c7             	mov    %rax,%rdi
   12df8:	48 89 d6             	mov    %rdx,%rsi
   12dfb:	f3 48 a5             	rep movsq %ds:(%rsi),%es:(%rdi)
   12dfe:	c7 05 7c d1 00 00 00 	movl   $0x0,0xd17c(%rip)        # 1ff84 <g_1900+0x4>
   12e05:	00 00 00 
   12e08:	e9 de 01 00 00       	jmpq   12feb <func_22+0x741f>
   12e0d:	48 8d 85 74 c9 ff ff 	lea    -0x368c(%rbp),%rax
   12e14:	48 89 85 70 e8 ff ff 	mov    %rax,-0x1790(%rbp)
   12e1b:	48 8d 85 74 c9 ff ff 	lea    -0x368c(%rbp),%rax
   12e22:	48 89 85 78 e8 ff ff 	mov    %rax,-0x1788(%rbp)
   12e29:	48 8d 85 74 c9 ff ff 	lea    -0x368c(%rbp),%rax
   12e30:	48 89 85 80 e8 ff ff 	mov    %rax,-0x1780(%rbp)
   12e37:	48 8d 85 74 c9 ff ff 	lea    -0x368c(%rbp),%rax
   12e3e:	48 89 85 88 e8 ff ff 	mov    %rax,-0x1778(%rbp)
   12e45:	48 8d 85 74 c9 ff ff 	lea    -0x368c(%rbp),%rax
   12e4c:	48 89 85 90 e8 ff ff 	mov    %rax,-0x1770(%rbp)
   12e53:	48 8d 85 74 c9 ff ff 	lea    -0x368c(%rbp),%rax
   12e5a:	48 89 85 98 e8 ff ff 	mov    %rax,-0x1768(%rbp)
   12e61:	48 8d 85 74 c9 ff ff 	lea    -0x368c(%rbp),%rax
   12e68:	48 89 85 a0 e8 ff ff 	mov    %rax,-0x1760(%rbp)
   12e6f:	48 8d 85 74 c9 ff ff 	lea    -0x368c(%rbp),%rax
   12e76:	48 89 85 a8 e8 ff ff 	mov    %rax,-0x1758(%rbp)
   12e7d:	48 8d 85 74 c9 ff ff 	lea    -0x368c(%rbp),%rax
   12e84:	48 89 85 b0 e8 ff ff 	mov    %rax,-0x1750(%rbp)
   12e8b:	48 8d 85 74 c9 ff ff 	lea    -0x368c(%rbp),%rax
   12e92:	48 89 85 b8 e8 ff ff 	mov    %rax,-0x1748(%rbp)
   12e99:	48 8d 85 74 c9 ff ff 	lea    -0x368c(%rbp),%rax
   12ea0:	48 89 85 c0 e8 ff ff 	mov    %rax,-0x1740(%rbp)
   12ea7:	48 8d 85 74 c9 ff ff 	lea    -0x368c(%rbp),%rax
   12eae:	48 89 85 c8 e8 ff ff 	mov    %rax,-0x1738(%rbp)
   12eb5:	48 8d 85 74 c9 ff ff 	lea    -0x368c(%rbp),%rax
   12ebc:	48 89 85 d0 e8 ff ff 	mov    %rax,-0x1730(%rbp)
   12ec3:	48 8d 85 74 c9 ff ff 	lea    -0x368c(%rbp),%rax
   12eca:	48 89 85 d8 e8 ff ff 	mov    %rax,-0x1728(%rbp)
   12ed1:	48 8d 85 74 c9 ff ff 	lea    -0x368c(%rbp),%rax
   12ed8:	48 89 85 e0 e8 ff ff 	mov    %rax,-0x1720(%rbp)
   12edf:	48 8d 85 74 c9 ff ff 	lea    -0x368c(%rbp),%rax
   12ee6:	48 89 85 e8 e8 ff ff 	mov    %rax,-0x1718(%rbp)
   12eed:	48 8d 85 74 c9 ff ff 	lea    -0x368c(%rbp),%rax
   12ef4:	48 89 85 f0 e8 ff ff 	mov    %rax,-0x1710(%rbp)
   12efb:	48 8d 85 74 c9 ff ff 	lea    -0x368c(%rbp),%rax
   12f02:	48 89 85 f8 e8 ff ff 	mov    %rax,-0x1708(%rbp)
   12f09:	48 8d 85 74 c9 ff ff 	lea    -0x368c(%rbp),%rax
   12f10:	48 89 85 00 e9 ff ff 	mov    %rax,-0x1700(%rbp)
   12f17:	48 8d 85 74 c9 ff ff 	lea    -0x368c(%rbp),%rax
   12f1e:	48 89 85 08 e9 ff ff 	mov    %rax,-0x16f8(%rbp)
   12f25:	48 8d 85 74 c9 ff ff 	lea    -0x368c(%rbp),%rax
   12f2c:	48 89 85 10 e9 ff ff 	mov    %rax,-0x16f0(%rbp)
   12f33:	48 8d 85 74 c9 ff ff 	lea    -0x368c(%rbp),%rax
   12f3a:	48 89 85 18 e9 ff ff 	mov    %rax,-0x16e8(%rbp)
   12f41:	48 8d 85 74 c9 ff ff 	lea    -0x368c(%rbp),%rax
   12f48:	48 89 85 20 e9 ff ff 	mov    %rax,-0x16e0(%rbp)
   12f4f:	48 8d 85 74 c9 ff ff 	lea    -0x368c(%rbp),%rax
   12f56:	48 89 85 28 e9 ff ff 	mov    %rax,-0x16d8(%rbp)
   12f5d:	48 8d 85 74 c9 ff ff 	lea    -0x368c(%rbp),%rax
   12f64:	48 89 85 30 e9 ff ff 	mov    %rax,-0x16d0(%rbp)
   12f6b:	48 8d 85 74 c9 ff ff 	lea    -0x368c(%rbp),%rax
   12f72:	48 89 85 38 e9 ff ff 	mov    %rax,-0x16c8(%rbp)
   12f79:	48 8d 85 74 c9 ff ff 	lea    -0x368c(%rbp),%rax
   12f80:	48 89 85 40 e9 ff ff 	mov    %rax,-0x16c0(%rbp)
   12f87:	48 8d 85 74 c9 ff ff 	lea    -0x368c(%rbp),%rax
   12f8e:	48 89 85 48 e9 ff ff 	mov    %rax,-0x16b8(%rbp)
   12f95:	48 8d 85 74 c9 ff ff 	lea    -0x368c(%rbp),%rax
   12f9c:	48 89 85 50 e9 ff ff 	mov    %rax,-0x16b0(%rbp)
   12fa3:	48 8d 85 74 c9 ff ff 	lea    -0x368c(%rbp),%rax
   12faa:	48 89 85 58 e9 ff ff 	mov    %rax,-0x16a8(%rbp)
   12fb1:	48 8d 05 30 13 01 00 	lea    0x11330(%rip),%rax        # 242e8 <g_328>
   12fb8:	48 89 85 a0 cd ff ff 	mov    %rax,-0x3260(%rbp)
   12fbf:	48 8b 95 58 c9 ff ff 	mov    -0x36a8(%rbp),%rdx
   12fc6:	48 8b 85 a0 cd ff ff 	mov    -0x3260(%rbp),%rax
   12fcd:	48 89 10             	mov    %rdx,(%rax)
   12fd0:	8b 05 ae cf 00 00    	mov    0xcfae(%rip),%eax        # 1ff84 <g_1900+0x4>
   12fd6:	48 98                	cltq   
   12fd8:	be 03 00 00 00       	mov    $0x3,%esi
   12fdd:	48 89 c7             	mov    %rax,%rdi
   12fe0:	e8 66 80 ff ff       	callq  b04b <safe_sub_func_uint64_t_u_u>
   12fe5:	89 05 99 cf 00 00    	mov    %eax,0xcf99(%rip)        # 1ff84 <g_1900+0x4>
   12feb:	8b 05 93 cf 00 00    	mov    0xcf93(%rip),%eax        # 1ff84 <g_1900+0x4>
   12ff1:	83 f8 fd             	cmp    $0xfffffffd,%eax
   12ff4:	0f 8d 13 fe ff ff    	jge    12e0d <func_22+0x7241>
   12ffa:	e9 c4 04 00 00       	jmpq   134c3 <func_22+0x78f7>
   12fff:	c7 85 68 ca ff ff f6 	movl   $0xfffffff6,-0x3598(%rbp)
   13006:	ff ff ff 
   13009:	48 8d 85 d0 f7 ff ff 	lea    -0x830(%rbp),%rax
   13010:	48 8d 15 09 7c 00 00 	lea    0x7c09(%rip),%rdx        # 1ac20 <g_2156+0x740>
   13017:	b9 6c 00 00 00       	mov    $0x6c,%ecx
   1301c:	48 89 c7             	mov    %rax,%rdi
   1301f:	48 89 d6             	mov    %rdx,%rsi
   13022:	f3 48 a5             	rep movsq %ds:(%rsi),%es:(%rdi)
   13025:	c7 85 6c ca ff ff 00 	movl   $0x0,-0x3594(%rbp)
   1302c:	00 00 00 
   1302f:	48 b8 ae 6d 75 f6 6c 	movabs $0xa7b41f6cf6756dae,%rax
   13036:	1f b4 a7 
   13039:	48 89 85 40 cd ff ff 	mov    %rax,-0x32c0(%rbp)
   13040:	48 8d 05 1d cb 00 00 	lea    0xcb1d(%rip),%rax        # 1fb64 <g_981>
   13047:	48 89 85 48 cd ff ff 	mov    %rax,-0x32b8(%rbp)
   1304e:	48 8d 05 4b ce 00 00 	lea    0xce4b(%rip),%rax        # 1fea0 <g_1666>
   13055:	48 89 85 50 cd ff ff 	mov    %rax,-0x32b0(%rbp)
   1305c:	48 b8 7f 9c 87 a3 c5 	movabs $0xf087f8c5a3879c7f,%rax
   13063:	f8 87 f0 
   13066:	48 89 85 58 cd ff ff 	mov    %rax,-0x32a8(%rbp)
   1306d:	48 c7 85 60 cd ff ff 	movq   $0x0,-0x32a0(%rbp)
   13074:	00 00 00 00 
   13078:	48 8d 85 a0 ca ff ff 	lea    -0x3560(%rbp),%rax
   1307f:	48 89 85 68 cd ff ff 	mov    %rax,-0x3298(%rbp)
   13086:	c7 85 ac c9 ff ff 00 	movl   $0x0,-0x3654(%rbp)
   1308d:	00 00 00 
   13090:	eb 42                	jmp    130d4 <func_22+0x7508>
   13092:	c7 85 b0 c9 ff ff 00 	movl   $0x0,-0x3650(%rbp)
   13099:	00 00 00 
   1309c:	eb 26                	jmp    130c4 <func_22+0x74f8>
   1309e:	8b 85 b0 c9 ff ff    	mov    -0x3650(%rbp),%eax
   130a4:	48 63 d0             	movslq %eax,%rdx
   130a7:	8b 85 ac c9 ff ff    	mov    -0x3654(%rbp),%eax
   130ad:	48 98                	cltq   
   130af:	48 01 d0             	add    %rdx,%rax
   130b2:	c7 84 85 70 e8 ff ff 	movl   $0xfffffff7,-0x1790(%rbp,%rax,4)
   130b9:	f7 ff ff ff 
   130bd:	83 85 b0 c9 ff ff 01 	addl   $0x1,-0x3650(%rbp)
   130c4:	83 bd b0 c9 ff ff 00 	cmpl   $0x0,-0x3650(%rbp)
   130cb:	7e d1                	jle    1309e <func_22+0x74d2>
   130cd:	83 85 ac c9 ff ff 01 	addl   $0x1,-0x3654(%rbp)
   130d4:	83 bd ac c9 ff ff 09 	cmpl   $0x9,-0x3654(%rbp)
   130db:	7e b5                	jle    13092 <func_22+0x74c6>
   130dd:	48 8b 85 20 cb ff ff 	mov    -0x34e0(%rbp),%rax
   130e4:	8b 00                	mov    (%rax),%eax
   130e6:	88 85 67 c9 ff ff    	mov    %al,-0x3699(%rbp)
   130ec:	48 83 ad 40 cd ff ff 	subq   $0x1,-0x32c0(%rbp)
   130f3:	01 
   130f4:	48 8b 85 58 c9 ff ff 	mov    -0x36a8(%rbp),%rax
   130fb:	c7 00 01 00 00 00    	movl   $0x1,(%rax)
   13101:	48 8b 05 98 04 01 00 	mov    0x10498(%rip),%rax        # 235a0 <g_1361>
   13108:	48 c7 00 00 00 00 00 	movq   $0x0,(%rax)
   1310f:	be ba 5a 00 00       	mov    $0x5aba,%esi
   13114:	bf 01 00 00 00       	mov    $0x1,%edi
   13119:	e8 01 7c ff ff       	callq  ad1f <safe_sub_func_uint16_t_u_u>
   1311e:	48 8b 95 50 cd ff ff 	mov    -0x32b0(%rbp),%rdx
   13125:	66 89 02             	mov    %ax,(%rdx)
   13128:	48 8b 85 58 c9 ff ff 	mov    -0x36a8(%rbp),%rax
   1312f:	8b 00                	mov    (%rax),%eax
   13131:	85 c0                	test   %eax,%eax
   13133:	74 15                	je     1314a <func_22+0x757e>
   13135:	66 c7 85 72 c9 ff ff 	movw   $0xffff,-0x368e(%rbp)
   1313c:	ff ff 
   1313e:	0f b7 85 72 c9 ff ff 	movzwl -0x368e(%rbp),%eax
   13145:	e9 1e 05 00 00       	jmpq   13668 <func_22+0x7a9c>
   1314a:	48 b8 64 64 64 64 64 	movabs $0x6464646464646464,%rax
   13151:	64 64 64 
   13154:	48 89 45 bf          	mov    %rax,-0x41(%rbp)
   13158:	c6 45 c7 64          	movb   $0x64,-0x39(%rbp)
   1315c:	48 8d 85 74 c9 ff ff 	lea    -0x368c(%rbp),%rax
   13163:	48 89 85 70 cd ff ff 	mov    %rax,-0x3290(%rbp)
   1316a:	48 8b 85 58 c9 ff ff 	mov    -0x36a8(%rbp),%rax
   13171:	8b 00                	mov    (%rax),%eax
   13173:	85 c0                	test   %eax,%eax
   13175:	0f 84 af 01 00 00    	je     1332a <func_22+0x775e>
   1317b:	c7 85 78 ca ff ff 63 	movl   $0xc8dfff63,-0x3588(%rbp)
   13182:	ff df c8 
   13185:	48 8b 85 58 c9 ff ff 	mov    -0x36a8(%rbp),%rax
   1318c:	8b 00                	mov    (%rax),%eax
   1318e:	85 c0                	test   %eax,%eax
   13190:	0f 84 67 01 00 00    	je     132fd <func_22+0x7731>
   13196:	48 8d 05 87 c5 00 00 	lea    0xc587(%rip),%rax        # 1f724 <g_386>
   1319d:	48 89 85 90 cd ff ff 	mov    %rax,-0x3270(%rbp)
   131a4:	48 8d 05 8d c5 00 00 	lea    0xc58d(%rip),%rax        # 1f738 <g_512>
   131ab:	48 89 85 98 cd ff ff 	mov    %rax,-0x3268(%rbp)
   131b2:	48 8b 85 48 c9 ff ff 	mov    -0x36b8(%rbp),%rax
   131b9:	0f be d8             	movsbl %al,%ebx
   131bc:	8b 85 78 ca ff ff    	mov    -0x3588(%rbp),%eax
   131c2:	44 0f bf e0          	movswl %ax,%r12d
   131c6:	44 8b ad 78 ca ff ff 	mov    -0x3588(%rbp),%r13d
   131cd:	48 c7 c7 f8 ff ff ff 	mov    $0xfffffffffffffff8,%rdi
   131d4:	e8 40 7e ff ff       	callq  b019 <safe_unary_minus_func_uint64_t_u>
   131d9:	48 8b 95 98 cd ff ff 	mov    -0x3268(%rbp),%rdx
   131e0:	48 8b 12             	mov    (%rdx),%rdx
   131e3:	48 09 d0             	or     %rdx,%rax
   131e6:	48 89 c2             	mov    %rax,%rdx
   131e9:	48 8b 85 98 cd ff ff 	mov    -0x3268(%rbp),%rax
   131f0:	48 89 10             	mov    %rdx,(%rax)
   131f3:	48 83 bd 70 cd ff ff 	cmpq   $0x0,-0x3290(%rbp)
   131fa:	00 
   131fb:	0f 94 c0             	sete   %al
   131fe:	44 0f b6 f0          	movzbl %al,%r14d
   13202:	0f b7 05 d7 c5 00 00 	movzwl 0xc5d7(%rip),%eax        # 1f7e0 <g_839>
   13209:	0f bf d0             	movswl %ax,%edx
   1320c:	48 8b 85 90 cd ff ff 	mov    -0x3270(%rbp),%rax
   13213:	89 10                	mov    %edx,(%rax)
   13215:	48 8b 85 90 cd ff ff 	mov    -0x3270(%rbp),%rax
   1321c:	8b 10                	mov    (%rax),%edx
   1321e:	0f b6 45 c1          	movzbl -0x3f(%rbp),%eax
   13222:	0f be c0             	movsbl %al,%eax
   13225:	39 c2                	cmp    %eax,%edx
   13227:	0f 97 c0             	seta   %al
   1322a:	0f b6 d0             	movzbl %al,%edx
   1322d:	48 8b 05 ac c4 00 00 	mov    0xc4ac(%rip),%rax        # 1f6e0 <g_112>
   13234:	48 39 c2             	cmp    %rax,%rdx
   13237:	0f 92 c0             	setb   %al
   1323a:	0f b6 d0             	movzbl %al,%edx
   1323d:	0f b7 05 64 63 00 00 	movzwl 0x6364(%rip),%eax        # 195a8 <g_1029>
   13244:	98                   	cwtl   
   13245:	89 d6                	mov    %edx,%esi
   13247:	89 c7                	mov    %eax,%edi
   13249:	e8 6a 7c ff ff       	callq  aeb8 <safe_add_func_uint32_t_u_u>
   1324e:	0f b6 c0             	movzbl %al,%eax
   13251:	44 89 f6             	mov    %r14d,%esi
   13254:	89 c7                	mov    %eax,%edi
   13256:	e8 38 79 ff ff       	callq  ab93 <safe_mul_func_uint8_t_u_u>
   1325b:	0f b6 c0             	movzbl %al,%eax
   1325e:	44 89 ee             	mov    %r13d,%esi
   13261:	89 c7                	mov    %eax,%edi
   13263:	e8 2a 72 ff ff       	callq  a492 <safe_lshift_func_int16_t_s_s>
   13268:	48 0f bf c0          	movswq %ax,%rax
   1326c:	ba 17 68 84 fd       	mov    $0xfd846817,%edx
   13271:	48 31 c2             	xor    %rax,%rdx
   13274:	48 8b 05 7d f8 00 00 	mov    0xf87d(%rip),%rax        # 22af8 <g_1338>
   1327b:	48 8b 00             	mov    (%rax),%rax
   1327e:	0f b6 00             	movzbl (%rax),%eax
   13281:	89 c1                	mov    %eax,%ecx
   13283:	89 d0                	mov    %edx,%eax
   13285:	09 c1                	or     %eax,%ecx
   13287:	89 ca                	mov    %ecx,%edx
   13289:	48 8b 05 68 f8 00 00 	mov    0xf868(%rip),%rax        # 22af8 <g_1338>
   13290:	48 8b 00             	mov    (%rax),%rax
   13293:	88 10                	mov    %dl,(%rax)
   13295:	0f b6 00             	movzbl (%rax),%eax
   13298:	0f b6 c0             	movzbl %al,%eax
   1329b:	89 c6                	mov    %eax,%esi
   1329d:	bf 01 00 00 00       	mov    $0x1,%edi
   132a2:	e8 34 79 ff ff       	callq  abdb <safe_div_func_uint8_t_u_u>
   132a7:	0f b6 c0             	movzbl %al,%eax
   132aa:	44 89 e6             	mov    %r12d,%esi
   132ad:	89 c7                	mov    %eax,%edi
   132af:	e8 41 71 ff ff       	callq  a3f5 <safe_mul_func_int16_t_s_s>
   132b4:	66 3d fd 00          	cmp    $0xfd,%ax
   132b8:	0f 95 c0             	setne  %al
   132bb:	0f b6 c0             	movzbl %al,%eax
   132be:	89 de                	mov    %ebx,%esi
   132c0:	89 c7                	mov    %eax,%edi
   132c2:	e8 2b 6f ff ff       	callq  a1f2 <safe_sub_func_int8_t_s_s>
   132c7:	48 0f be c0          	movsbq %al,%rax
   132cb:	48 ba 21 15 45 d0 7f 	movabs $0xe3e5f7fd0451521,%rdx
   132d2:	5f 3e 0e 
   132d5:	48 31 d0             	xor    %rdx,%rax
   132d8:	48 89 c1             	mov    %rax,%rcx
   132db:	48 8b 85 58 c9 ff ff 	mov    -0x36a8(%rbp),%rax
   132e2:	8b 10                	mov    (%rax),%edx
   132e4:	48 8b 85 58 c9 ff ff 	mov    -0x36a8(%rbp),%rax
   132eb:	09 ca                	or     %ecx,%edx
   132ed:	89 10                	mov    %edx,(%rax)
   132ef:	48 8b 85 58 c9 ff ff 	mov    -0x36a8(%rbp),%rax
   132f6:	8b 00                	mov    (%rax),%eax
   132f8:	e9 6b 03 00 00       	jmpq   13668 <func_22+0x7a9c>
   132fd:	48 8d 05 b4 f0 00 00 	lea    0xf0b4(%rip),%rax        # 223b8 <g_115+0x18>
   13304:	48 89 85 88 cd ff ff 	mov    %rax,-0x3278(%rbp)
   1330b:	48 8b 95 58 c9 ff ff 	mov    -0x36a8(%rbp),%rdx
   13312:	48 8b 85 88 cd ff ff 	mov    -0x3278(%rbp),%rax
   13319:	48 89 10             	mov    %rdx,(%rax)
   1331c:	48 8b 85 58 c9 ff ff 	mov    -0x36a8(%rbp),%rax
   13323:	8b 00                	mov    (%rax),%eax
   13325:	e9 3e 03 00 00       	jmpq   13668 <func_22+0x7a9c>
   1332a:	48 8d 05 cf c3 00 00 	lea    0xc3cf(%rip),%rax        # 1f700 <g_264>
   13331:	48 89 85 78 cd ff ff 	mov    %rax,-0x3288(%rbp)
   13338:	c7 85 70 ca ff ff 30 	movl   $0x82291e30,-0x3590(%rbp)
   1333f:	1e 29 82 
   13342:	c7 05 08 cb 00 00 00 	movl   $0x0,0xcb08(%rip)        # 1fe54 <g_1249>
   13349:	00 00 00 
   1334c:	e9 55 01 00 00       	jmpq   134a6 <func_22+0x78da>
   13351:	48 8d 05 78 bd 00 00 	lea    0xbd78(%rip),%rax        # 1f0d0 <g_28>
   13358:	48 89 85 80 cd ff ff 	mov    %rax,-0x3280(%rbp)
   1335f:	c7 85 74 ca ff ff 75 	movl   $0xe1cc5475,-0x358c(%rbp)
   13366:	54 cc e1 
   13369:	48 8b 85 40 cd ff ff 	mov    -0x32c0(%rbp),%rax
   13370:	0f b7 d8             	movzwl %ax,%ebx
   13373:	48 8b 95 58 c9 ff ff 	mov    -0x36a8(%rbp),%rdx
   1337a:	48 8b 85 58 c9 ff ff 	mov    -0x36a8(%rbp),%rax
   13381:	8b 12                	mov    (%rdx),%edx
   13383:	89 10                	mov    %edx,(%rax)
   13385:	8b 00                	mov    (%rax),%eax
   13387:	8b 95 70 ca ff ff    	mov    -0x3590(%rbp),%edx
   1338d:	89 d6                	mov    %edx,%esi
   1338f:	89 c7                	mov    %eax,%edi
   13391:	e8 20 72 ff ff       	callq  a5b6 <safe_add_func_int32_t_s_s>
   13396:	48 8b 05 5b f7 00 00 	mov    0xf75b(%rip),%rax        # 22af8 <g_1338>
   1339d:	48 8b 00             	mov    (%rax),%rax
   133a0:	0f b6 00             	movzbl (%rax),%eax
   133a3:	44 0f b6 e0          	movzbl %al,%r12d
   133a7:	44 8b ad 74 ca ff ff 	mov    -0x358c(%rbp),%r13d
   133ae:	48 8b 85 40 c9 ff ff 	mov    -0x36c0(%rbp),%rax
   133b5:	48 ba ce 5f 71 22 e6 	movabs $0x1edfa0e622715fce,%rdx
   133bc:	a0 df 1e 
   133bf:	48 09 d0             	or     %rdx,%rax
   133c2:	48 3d fc 00 00 00    	cmp    $0xfc,%rax
   133c8:	0f 97 c0             	seta   %al
   133cb:	0f b6 d0             	movzbl %al,%edx
   133ce:	48 8b 85 80 cd ff ff 	mov    -0x3280(%rbp),%rax
   133d5:	89 10                	mov    %edx,(%rax)
   133d7:	48 8b 85 80 cd ff ff 	mov    -0x3280(%rbp),%rax
   133de:	8b 00                	mov    (%rax),%eax
   133e0:	89 c6                	mov    %eax,%esi
   133e2:	bf 4b 03 ec 96       	mov    $0x96ec034b,%edi
   133e7:	e8 ca 71 ff ff       	callq  a5b6 <safe_add_func_int32_t_s_s>
   133ec:	0b 85 70 ca ff ff    	or     -0x3590(%rbp),%eax
   133f2:	34 b8                	xor    $0xb8,%al
   133f4:	44 89 ee             	mov    %r13d,%esi
   133f7:	89 c7                	mov    %eax,%edi
   133f9:	e8 ba 7a ff ff       	callq  aeb8 <safe_add_func_uint32_t_u_u>
   133fe:	be 04 00 00 00       	mov    $0x4,%esi
   13403:	bf 01 00 00 00       	mov    $0x1,%edi
   13408:	e8 80 78 ff ff       	callq  ac8d <safe_rshift_func_uint8_t_u_s>
   1340d:	0f b6 c0             	movzbl %al,%eax
   13410:	be 03 00 00 00       	mov    $0x3,%esi
   13415:	89 c7                	mov    %eax,%edi
   13417:	e8 47 71 ff ff       	callq  a563 <safe_rshift_func_int16_t_s_u>
   1341c:	44 89 e6             	mov    %r12d,%esi
   1341f:	bf 9a 00 00 00       	mov    $0x9a,%edi
   13424:	e8 6a 77 ff ff       	callq  ab93 <safe_mul_func_uint8_t_u_u>
   13429:	48 8b 85 40 c9 ff ff 	mov    -0x36c0(%rbp),%rax
   13430:	0f b7 c0             	movzwl %ax,%eax
   13433:	89 de                	mov    %ebx,%esi
   13435:	89 c7                	mov    %eax,%edi
   13437:	e8 52 79 ff ff       	callq  ad8e <safe_div_func_uint16_t_u_u>
   1343c:	66 85 c0             	test   %ax,%ax
   1343f:	74 14                	je     13455 <func_22+0x7889>
   13441:	48 8b 85 70 cd ff ff 	mov    -0x3290(%rbp),%rax
   13448:	8b 00                	mov    (%rax),%eax
   1344a:	85 c0                	test   %eax,%eax
   1344c:	74 07                	je     13455 <func_22+0x7889>
   1344e:	b8 01 00 00 00       	mov    $0x1,%eax
   13453:	eb 05                	jmp    1345a <func_22+0x788e>
   13455:	b8 00 00 00 00       	mov    $0x0,%eax
   1345a:	0f be c0             	movsbl %al,%eax
   1345d:	89 c6                	mov    %eax,%esi
   1345f:	bf fd ff ff ff       	mov    $0xfffffffd,%edi
   13464:	e8 a9 6d ff ff       	callq  a212 <safe_mul_func_int8_t_s_s>
   13469:	48 8b 85 20 cb ff ff 	mov    -0x34e0(%rbp),%rax
   13470:	c7 00 01 00 00 00    	movl   $0x1,(%rax)
   13476:	48 8b 85 20 cb ff ff 	mov    -0x34e0(%rbp),%rax
   1347d:	8b 10                	mov    (%rax),%edx
   1347f:	48 8b 85 20 cb ff ff 	mov    -0x34e0(%rbp),%rax
   13486:	89 10                	mov    %edx,(%rax)
   13488:	8b 05 c6 c9 00 00    	mov    0xc9c6(%rip),%eax        # 1fe54 <g_1249>
   1348e:	0f b6 c0             	movzbl %al,%eax
   13491:	be 08 00 00 00       	mov    $0x8,%esi
   13496:	89 c7                	mov    %eax,%edi
   13498:	e8 bd 76 ff ff       	callq  ab5a <safe_add_func_uint8_t_u_u>
   1349d:	0f b6 c0             	movzbl %al,%eax
   134a0:	89 05 ae c9 00 00    	mov    %eax,0xc9ae(%rip)        # 1fe54 <g_1249>
   134a6:	8b 05 a8 c9 00 00    	mov    0xc9a8(%rip),%eax        # 1fe54 <g_1249>
   134ac:	83 f8 10             	cmp    $0x10,%eax
   134af:	0f 84 9c fe ff ff    	je     13351 <func_22+0x7785>
   134b5:	48 8b 85 58 c9 ff ff 	mov    -0x36a8(%rbp),%rax
   134bc:	8b 00                	mov    (%rax),%eax
   134be:	e9 a5 01 00 00       	jmpq   13668 <func_22+0x7a9c>
   134c3:	66 c7 05 d4 c9 00 00 	movw   $0xffe5,0xc9d4(%rip)        # 1fea0 <g_1666>
   134ca:	e5 ff 
   134cc:	e9 7d 01 00 00       	jmpq   1364e <func_22+0x7a82>
   134d1:	c7 85 7c ca ff ff 01 	movl   $0x1,-0x3584(%rbp)
   134d8:	00 00 00 
   134db:	8b 9d 54 c9 ff ff    	mov    -0x36ac(%rbp),%ebx
   134e1:	48 8b 85 38 c9 ff ff 	mov    -0x36c8(%rbp),%rax
   134e8:	0f b6 00             	movzbl (%rax),%eax
   134eb:	0f be c0             	movsbl %al,%eax
   134ee:	be 02 00 00 00       	mov    $0x2,%esi
   134f3:	89 c7                	mov    %eax,%edi
   134f5:	e8 37 6d ff ff       	callq  a231 <safe_mod_func_int8_t_s_s>
   134fa:	0f be c0             	movsbl %al,%eax
   134fd:	89 c6                	mov    %eax,%esi
   134ff:	bf aa 5f 28 c2       	mov    $0xc2285faa,%edi
   13504:	e8 ad 70 ff ff       	callq  a5b6 <safe_add_func_int32_t_s_s>
   13509:	8b 85 7c ca ff ff    	mov    -0x3584(%rbp),%eax
   1350f:	98                   	cwtl   
   13510:	be 0c 00 00 00       	mov    $0xc,%esi
   13515:	89 c7                	mov    %eax,%edi
   13517:	e8 c5 6f ff ff       	callq  a4e1 <safe_lshift_func_int16_t_s_u>
   1351c:	89 c2                	mov    %eax,%edx
   1351e:	8b 85 54 c9 ff ff    	mov    -0x36ac(%rbp),%eax
   13524:	31 c2                	xor    %eax,%edx
   13526:	48 8b 05 c3 f5 00 00 	mov    0xf5c3(%rip),%rax        # 22af0 <g_1339>
   1352d:	88 10                	mov    %dl,(%rax)
   1352f:	48 b8 46 96 8e db 62 	movabs $0xc13fe662db8e9646,%rax
   13536:	e6 3f c1 
   13539:	48 89 85 48 c9 ff ff 	mov    %rax,-0x36b8(%rbp)
   13540:	48 8b 95 48 c9 ff ff 	mov    -0x36b8(%rbp),%rdx
   13547:	48 8b 85 c0 ca ff ff 	mov    -0x3540(%rbp),%rax
   1354e:	48 8b 00             	mov    (%rax),%rax
   13551:	8b 00                	mov    (%rax),%eax
   13553:	48 98                	cltq   
   13555:	48 39 c2             	cmp    %rax,%rdx
   13558:	0f 9e c0             	setle  %al
   1355b:	44 0f b6 e0          	movzbl %al,%r12d
   1355f:	8b 85 7c ca ff ff    	mov    -0x3584(%rbp),%eax
   13565:	0f b6 c0             	movzbl %al,%eax
   13568:	89 c6                	mov    %eax,%esi
   1356a:	bf df 00 00 00       	mov    $0xdf,%edi
   1356f:	e8 04 76 ff ff       	callq  ab78 <safe_sub_func_uint8_t_u_u>
   13574:	0f b6 c0             	movzbl %al,%eax
   13577:	44 89 e6             	mov    %r12d,%esi
   1357a:	89 c7                	mov    %eax,%edi
   1357c:	e8 74 6e ff ff       	callq  a3f5 <safe_mul_func_int16_t_s_s>
   13581:	be 00 00 00 00       	mov    $0x0,%esi
   13586:	bf 9c ff ff ff       	mov    $0xffffff9c,%edi
   1358b:	e8 62 6c ff ff       	callq  a1f2 <safe_sub_func_int8_t_s_s>
   13590:	48 0f be c0          	movsbq %al,%rax
   13594:	48 89 c7             	mov    %rax,%rdi
   13597:	e8 7d 7a ff ff       	callq  b019 <safe_unary_minus_func_uint64_t_u>
   1359c:	0f b6 c0             	movzbl %al,%eax
   1359f:	be 72 00 00 00       	mov    $0x72,%esi
   135a4:	89 c7                	mov    %eax,%edi
   135a6:	e8 cd 75 ff ff       	callq  ab78 <safe_sub_func_uint8_t_u_u>
   135ab:	0f b6 c0             	movzbl %al,%eax
   135ae:	be 01 00 00 00       	mov    $0x1,%esi
   135b3:	89 c7                	mov    %eax,%edi
   135b5:	e8 4b 76 ff ff       	callq  ac05 <safe_lshift_func_uint8_t_u_s>
   135ba:	48 8b 85 40 c9 ff ff 	mov    -0x36c0(%rbp),%rax
   135c1:	0f b6 c0             	movzbl %al,%eax
   135c4:	89 de                	mov    %ebx,%esi
   135c6:	89 c7                	mov    %eax,%edi
   135c8:	e8 7f 76 ff ff       	callq  ac4c <safe_lshift_func_uint8_t_u_u>
   135cd:	0f b6 d0             	movzbl %al,%edx
   135d0:	48 8b 85 58 c9 ff ff 	mov    -0x36a8(%rbp),%rax
   135d7:	8b 00                	mov    (%rax),%eax
   135d9:	39 c2                	cmp    %eax,%edx
   135db:	0f 94 c0             	sete   %al
   135de:	0f b6 c0             	movzbl %al,%eax
   135e1:	23 85 7c ca ff ff    	and    -0x3584(%rbp),%eax
   135e7:	f7 d0                	not    %eax
   135e9:	39 85 7c ca ff ff    	cmp    %eax,-0x3584(%rbp)
   135ef:	0f 96 c0             	setbe  %al
   135f2:	0f b6 c0             	movzbl %al,%eax
   135f5:	48 89 85 40 c9 ff ff 	mov    %rax,-0x36c0(%rbp)
   135fc:	48 8b 85 40 c9 ff ff 	mov    -0x36c0(%rbp),%rax
   13603:	48 be 30 55 4c a1 4e 	movabs $0xcb6a7f4ea14c5530,%rsi
   1360a:	7f 6a cb 
   1360d:	48 89 c7             	mov    %rax,%rdi
   13610:	e8 6b 7a ff ff       	callq  b080 <safe_mod_func_uint64_t_u_u>
   13615:	48 89 c2             	mov    %rax,%rdx
   13618:	48 8b 85 58 c9 ff ff 	mov    -0x36a8(%rbp),%rax
   1361f:	89 10                	mov    %edx,(%rax)
   13621:	48 8b 85 58 c9 ff ff 	mov    -0x36a8(%rbp),%rax
   13628:	8b 10                	mov    (%rax),%edx
   1362a:	48 8b 85 20 cb ff ff 	mov    -0x34e0(%rbp),%rax
   13631:	89 10                	mov    %edx,(%rax)
   13633:	0f b7 05 66 c8 00 00 	movzwl 0xc866(%rip),%eax        # 1fea0 <g_1666>
   1363a:	98                   	cwtl   
   1363b:	be 08 00 00 00       	mov    $0x8,%esi
   13640:	89 c7                	mov    %eax,%edi
   13642:	e8 6c 6d ff ff       	callq  a3b3 <safe_add_func_int16_t_s_s>
   13647:	66 89 05 52 c8 00 00 	mov    %ax,0xc852(%rip)        # 1fea0 <g_1666>
   1364e:	0f b7 05 4b c8 00 00 	movzwl 0xc84b(%rip),%eax        # 1fea0 <g_1666>
   13655:	66 83 f8 0a          	cmp    $0xa,%ax
   13659:	0f 84 72 fe ff ff    	je     134d1 <func_22+0x7905>
   1365f:	48 8b 85 58 c9 ff ff 	mov    -0x36a8(%rbp),%rax
   13666:	8b 00                	mov    (%rax),%eax
   13668:	48 8b 5d c8          	mov    -0x38(%rbp),%rbx
   1366c:	64 48 33 1c 25 28 00 	xor    %fs:0x28,%rbx
   13673:	00 00 
   13675:	74 05                	je     1367c <func_22+0x7ab0>
   13677:	e8 f4 69 ff ff       	callq  a070 <__stack_chk_fail@plt>
   1367c:	48 81 c4 b8 36 00 00 	add    $0x36b8,%rsp
   13683:	5b                   	pop    %rbx
   13684:	41 5c                	pop    %r12
   13686:	41 5d                	pop    %r13
   13688:	41 5e                	pop    %r14
   1368a:	41 5f                	pop    %r15
   1368c:	5d                   	pop    %rbp
   1368d:	c3                   	retq   

000000000001368e <func_29>:
   1368e:	f3 0f 1e fa          	endbr64 
   13692:	55                   	push   %rbp
   13693:	48 89 e5             	mov    %rsp,%rbp
   13696:	48 81 ec c0 09 00 00 	sub    $0x9c0,%rsp
   1369d:	48 89 bd 48 f6 ff ff 	mov    %rdi,-0x9b8(%rbp)
   136a4:	48 89 b5 40 f6 ff ff 	mov    %rsi,-0x9c0(%rbp)
   136ab:	64 48 8b 04 25 28 00 	mov    %fs:0x28,%rax
   136b2:	00 00 
   136b4:	48 89 45 f8          	mov    %rax,-0x8(%rbp)
   136b8:	31 c0                	xor    %eax,%eax
   136ba:	48 8d 05 17 ee 00 00 	lea    0xee17(%rip),%rax        # 224d8 <g_611>
   136c1:	48 89 85 88 f6 ff ff 	mov    %rax,-0x978(%rbp)
   136c8:	48 c7 85 78 f6 ff ff 	movq   $0x0,-0x988(%rbp)
   136cf:	00 00 00 00 
   136d3:	48 8d 85 78 f6 ff ff 	lea    -0x988(%rbp),%rax
   136da:	48 89 85 80 f7 ff ff 	mov    %rax,-0x880(%rbp)
   136e1:	48 c7 85 88 f7 ff ff 	movq   $0x0,-0x878(%rbp)
   136e8:	00 00 00 00 
   136ec:	48 8d 85 78 f6 ff ff 	lea    -0x988(%rbp),%rax
   136f3:	48 89 85 90 f7 ff ff 	mov    %rax,-0x870(%rbp)
   136fa:	48 c7 85 98 f7 ff ff 	movq   $0x0,-0x868(%rbp)
   13701:	00 00 00 00 
   13705:	48 8d 85 78 f6 ff ff 	lea    -0x988(%rbp),%rax
   1370c:	48 89 85 a0 f7 ff ff 	mov    %rax,-0x860(%rbp)
   13713:	48 8d 85 78 f6 ff ff 	lea    -0x988(%rbp),%rax
   1371a:	48 89 85 a8 f7 ff ff 	mov    %rax,-0x858(%rbp)
   13721:	48 8d 85 78 f6 ff ff 	lea    -0x988(%rbp),%rax
   13728:	48 89 85 b0 f7 ff ff 	mov    %rax,-0x850(%rbp)
   1372f:	48 8d 85 78 f6 ff ff 	lea    -0x988(%rbp),%rax
   13736:	48 89 85 b8 f7 ff ff 	mov    %rax,-0x848(%rbp)
   1373d:	48 8d 85 78 f6 ff ff 	lea    -0x988(%rbp),%rax
   13744:	48 89 85 c0 f7 ff ff 	mov    %rax,-0x840(%rbp)
   1374b:	48 8d 85 78 f6 ff ff 	lea    -0x988(%rbp),%rax
   13752:	48 89 85 c8 f7 ff ff 	mov    %rax,-0x838(%rbp)
   13759:	48 8d 85 78 f6 ff ff 	lea    -0x988(%rbp),%rax
   13760:	48 89 85 d0 f7 ff ff 	mov    %rax,-0x830(%rbp)
   13767:	48 8d 85 78 f6 ff ff 	lea    -0x988(%rbp),%rax
   1376e:	48 89 85 d8 f7 ff ff 	mov    %rax,-0x828(%rbp)
   13775:	48 8d 85 78 f6 ff ff 	lea    -0x988(%rbp),%rax
   1377c:	48 89 85 e0 f7 ff ff 	mov    %rax,-0x820(%rbp)
   13783:	48 8d 85 78 f6 ff ff 	lea    -0x988(%rbp),%rax
   1378a:	48 89 85 e8 f7 ff ff 	mov    %rax,-0x818(%rbp)
   13791:	48 8d 85 78 f6 ff ff 	lea    -0x988(%rbp),%rax
   13798:	48 89 85 f0 f7 ff ff 	mov    %rax,-0x810(%rbp)
   1379f:	48 8d 85 78 f6 ff ff 	lea    -0x988(%rbp),%rax
   137a6:	48 89 85 f8 f7 ff ff 	mov    %rax,-0x808(%rbp)
   137ad:	48 8d 85 78 f6 ff ff 	lea    -0x988(%rbp),%rax
   137b4:	48 89 85 00 f8 ff ff 	mov    %rax,-0x800(%rbp)
   137bb:	48 8d 85 78 f6 ff ff 	lea    -0x988(%rbp),%rax
   137c2:	48 89 85 08 f8 ff ff 	mov    %rax,-0x7f8(%rbp)
   137c9:	48 8d 85 78 f6 ff ff 	lea    -0x988(%rbp),%rax
   137d0:	48 89 85 10 f8 ff ff 	mov    %rax,-0x7f0(%rbp)
   137d7:	48 c7 85 18 f8 ff ff 	movq   $0x0,-0x7e8(%rbp)
   137de:	00 00 00 00 
   137e2:	48 8d 85 78 f6 ff ff 	lea    -0x988(%rbp),%rax
   137e9:	48 89 85 20 f8 ff ff 	mov    %rax,-0x7e0(%rbp)
   137f0:	48 c7 85 28 f8 ff ff 	movq   $0x0,-0x7d8(%rbp)
   137f7:	00 00 00 00 
   137fb:	48 8d 85 78 f6 ff ff 	lea    -0x988(%rbp),%rax
   13802:	48 89 85 30 f8 ff ff 	mov    %rax,-0x7d0(%rbp)
   13809:	48 8d 85 78 f6 ff ff 	lea    -0x988(%rbp),%rax
   13810:	48 89 85 38 f8 ff ff 	mov    %rax,-0x7c8(%rbp)
   13817:	48 8d 85 78 f6 ff ff 	lea    -0x988(%rbp),%rax
   1381e:	48 89 85 40 f8 ff ff 	mov    %rax,-0x7c0(%rbp)
   13825:	48 8d 85 78 f6 ff ff 	lea    -0x988(%rbp),%rax
   1382c:	48 89 85 48 f8 ff ff 	mov    %rax,-0x7b8(%rbp)
   13833:	48 8d 85 78 f6 ff ff 	lea    -0x988(%rbp),%rax
   1383a:	48 89 85 50 f8 ff ff 	mov    %rax,-0x7b0(%rbp)
   13841:	48 8d 85 78 f6 ff ff 	lea    -0x988(%rbp),%rax
   13848:	48 89 85 58 f8 ff ff 	mov    %rax,-0x7a8(%rbp)
   1384f:	48 8d 85 78 f6 ff ff 	lea    -0x988(%rbp),%rax
   13856:	48 89 85 60 f8 ff ff 	mov    %rax,-0x7a0(%rbp)
   1385d:	48 8d 85 78 f6 ff ff 	lea    -0x988(%rbp),%rax
   13864:	48 89 85 68 f8 ff ff 	mov    %rax,-0x798(%rbp)
   1386b:	48 8d 85 78 f6 ff ff 	lea    -0x988(%rbp),%rax
   13872:	48 89 85 70 f8 ff ff 	mov    %rax,-0x790(%rbp)
   13879:	48 8d 85 78 f6 ff ff 	lea    -0x988(%rbp),%rax
   13880:	48 89 85 78 f8 ff ff 	mov    %rax,-0x788(%rbp)
   13887:	48 8d 85 78 f6 ff ff 	lea    -0x988(%rbp),%rax
   1388e:	48 89 85 80 f8 ff ff 	mov    %rax,-0x780(%rbp)
   13895:	48 8d 85 78 f6 ff ff 	lea    -0x988(%rbp),%rax
   1389c:	48 89 85 88 f8 ff ff 	mov    %rax,-0x778(%rbp)
   138a3:	48 8d 85 78 f6 ff ff 	lea    -0x988(%rbp),%rax
   138aa:	48 89 85 90 f8 ff ff 	mov    %rax,-0x770(%rbp)
   138b1:	48 8d 85 78 f6 ff ff 	lea    -0x988(%rbp),%rax
   138b8:	48 89 85 98 f8 ff ff 	mov    %rax,-0x768(%rbp)
   138bf:	48 8d 85 78 f6 ff ff 	lea    -0x988(%rbp),%rax
   138c6:	48 89 85 a0 f8 ff ff 	mov    %rax,-0x760(%rbp)
   138cd:	48 c7 85 a8 f8 ff ff 	movq   $0x0,-0x758(%rbp)
   138d4:	00 00 00 00 
   138d8:	48 8d 85 78 f6 ff ff 	lea    -0x988(%rbp),%rax
   138df:	48 89 85 b0 f8 ff ff 	mov    %rax,-0x750(%rbp)
   138e6:	48 c7 85 b8 f8 ff ff 	movq   $0x0,-0x748(%rbp)
   138ed:	00 00 00 00 
   138f1:	48 8d 85 78 f6 ff ff 	lea    -0x988(%rbp),%rax
   138f8:	48 89 85 c0 f8 ff ff 	mov    %rax,-0x740(%rbp)
   138ff:	48 8d 85 78 f6 ff ff 	lea    -0x988(%rbp),%rax
   13906:	48 89 85 c8 f8 ff ff 	mov    %rax,-0x738(%rbp)
   1390d:	48 8d 85 78 f6 ff ff 	lea    -0x988(%rbp),%rax
   13914:	48 89 85 d0 f8 ff ff 	mov    %rax,-0x730(%rbp)
   1391b:	48 8d 85 78 f6 ff ff 	lea    -0x988(%rbp),%rax
   13922:	48 89 85 d8 f8 ff ff 	mov    %rax,-0x728(%rbp)
   13929:	48 8d 85 78 f6 ff ff 	lea    -0x988(%rbp),%rax
   13930:	48 89 85 e0 f8 ff ff 	mov    %rax,-0x720(%rbp)
   13937:	48 8d 85 78 f6 ff ff 	lea    -0x988(%rbp),%rax
   1393e:	48 89 85 e8 f8 ff ff 	mov    %rax,-0x718(%rbp)
   13945:	48 8d 85 78 f6 ff ff 	lea    -0x988(%rbp),%rax
   1394c:	48 89 85 f0 f8 ff ff 	mov    %rax,-0x710(%rbp)
   13953:	48 8d 85 78 f6 ff ff 	lea    -0x988(%rbp),%rax
   1395a:	48 89 85 f8 f8 ff ff 	mov    %rax,-0x708(%rbp)
   13961:	48 8d 85 78 f6 ff ff 	lea    -0x988(%rbp),%rax
   13968:	48 89 85 00 f9 ff ff 	mov    %rax,-0x700(%rbp)
   1396f:	48 8d 85 78 f6 ff ff 	lea    -0x988(%rbp),%rax
   13976:	48 89 85 08 f9 ff ff 	mov    %rax,-0x6f8(%rbp)
   1397d:	48 8d 85 78 f6 ff ff 	lea    -0x988(%rbp),%rax
   13984:	48 89 85 10 f9 ff ff 	mov    %rax,-0x6f0(%rbp)
   1398b:	48 8d 85 78 f6 ff ff 	lea    -0x988(%rbp),%rax
   13992:	48 89 85 18 f9 ff ff 	mov    %rax,-0x6e8(%rbp)
   13999:	48 8d 85 78 f6 ff ff 	lea    -0x988(%rbp),%rax
   139a0:	48 89 85 20 f9 ff ff 	mov    %rax,-0x6e0(%rbp)
   139a7:	48 8d 85 78 f6 ff ff 	lea    -0x988(%rbp),%rax
   139ae:	48 89 85 28 f9 ff ff 	mov    %rax,-0x6d8(%rbp)
   139b5:	c7 85 c0 f6 ff ff 63 	movl   $0xd7ecd363,-0x940(%rbp)
   139bc:	d3 ec d7 
   139bf:	c7 85 c4 f6 ff ff 63 	movl   $0xd7ecd363,-0x93c(%rbp)
   139c6:	d3 ec d7 
   139c9:	c7 85 c8 f6 ff ff 63 	movl   $0xd7ecd363,-0x938(%rbp)
   139d0:	d3 ec d7 
   139d3:	c7 85 cc f6 ff ff 63 	movl   $0xd7ecd363,-0x934(%rbp)
   139da:	d3 ec d7 
   139dd:	c7 85 d0 f6 ff ff 63 	movl   $0xd7ecd363,-0x930(%rbp)
   139e4:	d3 ec d7 
   139e7:	c7 85 d4 f6 ff ff 63 	movl   $0xd7ecd363,-0x92c(%rbp)
   139ee:	d3 ec d7 
   139f1:	c7 85 d8 f6 ff ff 63 	movl   $0xd7ecd363,-0x928(%rbp)
   139f8:	d3 ec d7 
   139fb:	66 c7 85 60 f6 ff ff 	movw   $0x3745,-0x9a0(%rbp)
   13a02:	45 37 
   13a04:	48 c7 85 90 f6 ff ff 	movq   $0x0,-0x970(%rbp)
   13a0b:	00 00 00 00 
   13a0f:	48 8d 85 30 f9 ff ff 	lea    -0x6d0(%rbp),%rax
   13a16:	48 8d 15 a3 de 00 00 	lea    0xdea3(%rip),%rdx        # 218c0 <g_2181+0x1900>
   13a1d:	b9 d8 00 00 00       	mov    $0xd8,%ecx
   13a22:	48 89 c7             	mov    %rax,%rdi
   13a25:	48 89 d6             	mov    %rdx,%rsi
   13a28:	f3 48 a5             	rep movsq %ds:(%rsi),%es:(%rdi)
   13a2b:	48 8d 05 36 c4 00 00 	lea    0xc436(%rip),%rax        # 1fe68 <g_1451>
   13a32:	48 89 85 98 f6 ff ff 	mov    %rax,-0x968(%rbp)
   13a39:	48 8d 05 f8 bc 00 00 	lea    0xbcf8(%rip),%rax        # 1f738 <g_512>
   13a40:	48 89 85 a0 f6 ff ff 	mov    %rax,-0x960(%rbp)
   13a47:	c6 85 5d f6 ff ff ff 	movb   $0xff,-0x9a3(%rbp)
   13a4e:	48 c7 85 80 f6 ff ff 	movq   $0x0,-0x980(%rbp)
   13a55:	00 00 00 00 
   13a59:	48 8d 85 80 f6 ff ff 	lea    -0x980(%rbp),%rax
   13a60:	48 89 85 10 f7 ff ff 	mov    %rax,-0x8f0(%rbp)
   13a67:	48 8d 85 80 f6 ff ff 	lea    -0x980(%rbp),%rax
   13a6e:	48 89 85 18 f7 ff ff 	mov    %rax,-0x8e8(%rbp)
   13a75:	48 8d 85 80 f6 ff ff 	lea    -0x980(%rbp),%rax
   13a7c:	48 89 85 20 f7 ff ff 	mov    %rax,-0x8e0(%rbp)
   13a83:	48 8d 85 80 f6 ff ff 	lea    -0x980(%rbp),%rax
   13a8a:	48 89 85 28 f7 ff ff 	mov    %rax,-0x8d8(%rbp)
   13a91:	48 8d 85 80 f6 ff ff 	lea    -0x980(%rbp),%rax
   13a98:	48 89 85 30 f7 ff ff 	mov    %rax,-0x8d0(%rbp)
   13a9f:	48 8d 85 80 f6 ff ff 	lea    -0x980(%rbp),%rax
   13aa6:	48 89 85 38 f7 ff ff 	mov    %rax,-0x8c8(%rbp)
   13aad:	48 8b 15 24 ea 00 00 	mov    0xea24(%rip),%rdx        # 224d8 <g_611>
   13ab4:	48 8b 85 88 f6 ff ff 	mov    -0x978(%rbp),%rax
   13abb:	48 89 10             	mov    %rdx,(%rax)
   13abe:	c7 05 68 bc 00 00 00 	movl   $0x0,0xbc68(%rip)        # 1f730 <g_482>
   13ac5:	00 00 00 
   13ac8:	e9 10 01 00 00       	jmpq   13bdd <func_29+0x54f>
   13acd:	c6 85 5e f6 ff ff 01 	movb   $0x1,-0x9a2(%rbp)
   13ad4:	c7 85 6c f6 ff ff 01 	movl   $0x1,-0x994(%rbp)
   13adb:	00 00 00 
   13ade:	48 c7 85 40 f7 ff ff 	movq   $0x0,-0x8c0(%rbp)
   13ae5:	00 00 00 00 
   13ae9:	48 c7 85 48 f7 ff ff 	movq   $0x0,-0x8b8(%rbp)
   13af0:	00 00 00 00 
   13af4:	48 c7 85 50 f7 ff ff 	movq   $0x0,-0x8b0(%rbp)
   13afb:	00 00 00 00 
   13aff:	48 c7 85 58 f7 ff ff 	movq   $0x0,-0x8a8(%rbp)
   13b06:	00 00 00 00 
   13b0a:	48 c7 85 60 f7 ff ff 	movq   $0x0,-0x8a0(%rbp)
   13b11:	00 00 00 00 
   13b15:	48 c7 85 68 f7 ff ff 	movq   $0x0,-0x898(%rbp)
   13b1c:	00 00 00 00 
   13b20:	48 c7 85 70 f7 ff ff 	movq   $0x0,-0x890(%rbp)
   13b27:	00 00 00 00 
   13b2b:	48 c7 85 78 f7 ff ff 	movq   $0x0,-0x888(%rbp)
   13b32:	00 00 00 00 
   13b36:	c7 85 64 f6 ff ff 00 	movl   $0x0,-0x99c(%rbp)
   13b3d:	00 00 00 
   13b40:	c7 85 70 f6 ff ff c6 	movl   $0xa0b28dc6,-0x990(%rbp)
   13b47:	8d b2 a0 
   13b4a:	48 8d 05 37 bc 00 00 	lea    0xbc37(%rip),%rax        # 1f788 <g_595>
   13b51:	48 89 85 a8 f6 ff ff 	mov    %rax,-0x958(%rbp)
   13b58:	48 8d 05 49 e8 00 00 	lea    0xe849(%rip),%rax        # 223a8 <g_115+0x8>
   13b5f:	48 89 85 b0 f6 ff ff 	mov    %rax,-0x950(%rbp)
   13b66:	66 c7 85 62 f6 ff ff 	movw   $0x0,-0x99e(%rbp)
   13b6d:	00 00 
   13b6f:	c6 85 5f f6 ff ff ff 	movb   $0xff,-0x9a1(%rbp)
   13b76:	c7 85 74 f6 ff ff ff 	movl   $0xffffffff,-0x98c(%rbp)
   13b7d:	ff ff ff 
   13b80:	48 b8 87 8a 26 31 94 	movabs $0x99fbc59431268a87,%rax
   13b87:	c5 fb 99 
   13b8a:	48 89 85 b8 f6 ff ff 	mov    %rax,-0x948(%rbp)
   13b91:	c7 85 68 f6 ff ff 00 	movl   $0x0,-0x998(%rbp)
   13b98:	00 00 00 
   13b9b:	eb 1a                	jmp    13bb7 <func_29+0x529>
   13b9d:	8b 85 68 f6 ff ff    	mov    -0x998(%rbp),%eax
   13ba3:	48 98                	cltq   
   13ba5:	c7 84 85 e0 f6 ff ff 	movl   $0xffffffff,-0x920(%rbp,%rax,4)
   13bac:	ff ff ff ff 
   13bb0:	83 85 68 f6 ff ff 01 	addl   $0x1,-0x998(%rbp)
   13bb7:	83 bd 68 f6 ff ff 08 	cmpl   $0x8,-0x998(%rbp)
   13bbe:	7e dd                	jle    13b9d <func_29+0x50f>
   13bc0:	48 8d 85 64 f6 ff ff 	lea    -0x99c(%rbp),%rax
   13bc7:	48 89 85 90 f6 ff ff 	mov    %rax,-0x970(%rbp)
   13bce:	8b 05 5c bb 00 00    	mov    0xbb5c(%rip),%eax        # 1f730 <g_482>
   13bd4:	83 c0 01             	add    $0x1,%eax
   13bd7:	89 05 53 bb 00 00    	mov    %eax,0xbb53(%rip)        # 1f730 <g_482>
   13bdd:	8b 05 4d bb 00 00    	mov    0xbb4d(%rip),%eax        # 1f730 <g_482>
   13be3:	83 f8 04             	cmp    $0x4,%eax
   13be6:	0f 8e e1 fe ff ff    	jle    13acd <func_29+0x43f>
   13bec:	8b 85 d4 f6 ff ff    	mov    -0x92c(%rbp),%eax
   13bf2:	48 8b 4d f8          	mov    -0x8(%rbp),%rcx
   13bf6:	64 48 33 0c 25 28 00 	xor    %fs:0x28,%rcx
   13bfd:	00 00 
   13bff:	74 05                	je     13c06 <func_29+0x578>
   13c01:	e8 6a 64 ff ff       	callq  a070 <__stack_chk_fail@plt>
   13c06:	c9                   	leaveq 
   13c07:	c3                   	retq   

0000000000013c08 <func_32>:
   13c08:	f3 0f 1e fa          	endbr64 
   13c0c:	55                   	push   %rbp
   13c0d:	48 89 e5             	mov    %rsp,%rbp
   13c10:	48 81 ec a0 03 00 00 	sub    $0x3a0,%rsp
   13c17:	48 89 bd 78 fc ff ff 	mov    %rdi,-0x388(%rbp)
   13c1e:	48 89 b5 70 fc ff ff 	mov    %rsi,-0x390(%rbp)
   13c25:	48 89 95 68 fc ff ff 	mov    %rdx,-0x398(%rbp)
   13c2c:	89 c8                	mov    %ecx,%eax
   13c2e:	66 89 85 64 fc ff ff 	mov    %ax,-0x39c(%rbp)
   13c35:	64 48 8b 04 25 28 00 	mov    %fs:0x28,%rax
   13c3c:	00 00 
   13c3e:	48 89 45 f8          	mov    %rax,-0x8(%rbp)
   13c42:	31 c0                	xor    %eax,%eax
   13c44:	c7 85 8c fc ff ff 01 	movl   $0x1,-0x374(%rbp)
   13c4b:	00 00 00 
   13c4e:	48 c7 85 c8 fc ff ff 	movq   $0x0,-0x338(%rbp)
   13c55:	00 00 00 00 
   13c59:	48 c7 85 d0 fc ff ff 	movq   $0x0,-0x330(%rbp)
   13c60:	00 00 00 00 
   13c64:	48 8d 05 7e ba 00 00 	lea    0xba7e(%rip),%rax        # 1f6e9 <g_169>
   13c6b:	48 89 85 a0 fc ff ff 	mov    %rax,-0x360(%rbp)
   13c72:	48 c7 85 d8 fc ff ff 	movq   $0x0,-0x328(%rbp)
   13c79:	00 00 00 00 
   13c7d:	48 8d 05 5c 06 01 00 	lea    0x1065c(%rip),%rax        # 242e0 <g_316>
   13c84:	48 89 85 e0 fc ff ff 	mov    %rax,-0x320(%rbp)
   13c8b:	48 8d 05 ae ba 00 00 	lea    0xbaae(%rip),%rax        # 1f740 <g_523>
   13c92:	48 89 85 e8 fc ff ff 	mov    %rax,-0x318(%rbp)
   13c99:	48 8d 05 a0 ba 00 00 	lea    0xbaa0(%rip),%rax        # 1f740 <g_523>
   13ca0:	48 89 85 f0 fc ff ff 	mov    %rax,-0x310(%rbp)
   13ca7:	48 8d 05 1e b4 00 00 	lea    0xb41e(%rip),%rax        # 1f0cc <g_7>
   13cae:	48 89 85 f8 fc ff ff 	mov    %rax,-0x308(%rbp)
   13cb5:	48 8d 05 10 b4 00 00 	lea    0xb410(%rip),%rax        # 1f0cc <g_7>
   13cbc:	48 89 85 00 fd ff ff 	mov    %rax,-0x300(%rbp)
   13cc3:	48 c7 85 08 fd ff ff 	movq   $0x0,-0x2f8(%rbp)
   13cca:	00 00 00 00 
   13cce:	48 8d 85 70 fe ff ff 	lea    -0x190(%rbp),%rax
   13cd5:	48 8d 15 a4 e2 00 00 	lea    0xe2a4(%rip),%rdx        # 21f80 <g_2181+0x1fc0>
   13cdc:	b9 31 00 00 00       	mov    $0x31,%ecx
   13ce1:	48 89 c7             	mov    %rax,%rdi
   13ce4:	48 89 d6             	mov    %rdx,%rsi
   13ce7:	f3 48 a5             	rep movsq %ds:(%rsi),%es:(%rdi)
   13cea:	c7 85 20 fe ff ff fb 	movl   $0xfffffffb,-0x1e0(%rbp)
   13cf1:	ff ff ff 
   13cf4:	c7 85 24 fe ff ff f8 	movl   $0xfffffff8,-0x1dc(%rbp)
   13cfb:	ff ff ff 
   13cfe:	c7 85 28 fe ff ff f8 	movl   $0xfffffff8,-0x1d8(%rbp)
   13d05:	ff ff ff 
   13d08:	c7 85 2c fe ff ff fb 	movl   $0xfffffffb,-0x1d4(%rbp)
   13d0f:	ff ff ff 
   13d12:	c7 85 30 fe ff ff f8 	movl   $0xfffffff8,-0x1d0(%rbp)
   13d19:	ff ff ff 
   13d1c:	c7 85 34 fe ff ff f8 	movl   $0xfffffff8,-0x1cc(%rbp)
   13d23:	ff ff ff 
   13d26:	c7 85 38 fe ff ff fb 	movl   $0xfffffffb,-0x1c8(%rbp)
   13d2d:	ff ff ff 
   13d30:	c7 85 3c fe ff ff f8 	movl   $0xfffffff8,-0x1c4(%rbp)
   13d37:	ff ff ff 
   13d3a:	c7 85 40 fe ff ff f8 	movl   $0xfffffff8,-0x1c0(%rbp)
   13d41:	ff ff ff 
   13d44:	c7 85 44 fe ff ff fb 	movl   $0xfffffffb,-0x1bc(%rbp)
   13d4b:	ff ff ff 
   13d4e:	c7 85 48 fe ff ff f8 	movl   $0xfffffff8,-0x1b8(%rbp)
   13d55:	ff ff ff 
   13d58:	c7 85 4c fe ff ff f8 	movl   $0xfffffff8,-0x1b4(%rbp)
   13d5f:	ff ff ff 
   13d62:	c7 85 50 fe ff ff fb 	movl   $0xfffffffb,-0x1b0(%rbp)
   13d69:	ff ff ff 
   13d6c:	c7 85 54 fe ff ff f8 	movl   $0xfffffff8,-0x1ac(%rbp)
   13d73:	ff ff ff 
   13d76:	c7 85 58 fe ff ff f8 	movl   $0xfffffff8,-0x1a8(%rbp)
   13d7d:	ff ff ff 
   13d80:	c7 85 5c fe ff ff fb 	movl   $0xfffffffb,-0x1a4(%rbp)
   13d87:	ff ff ff 
   13d8a:	c7 85 60 fe ff ff f8 	movl   $0xfffffff8,-0x1a0(%rbp)
   13d91:	ff ff ff 
   13d94:	c7 85 64 fe ff ff f8 	movl   $0xfffffff8,-0x19c(%rbp)
   13d9b:	ff ff ff 
   13d9e:	48 8d 05 23 e7 00 00 	lea    0xe723(%rip),%rax        # 224c8 <g_539>
   13da5:	48 89 85 10 fd ff ff 	mov    %rax,-0x2f0(%rbp)
   13dac:	48 8d 05 ad b9 00 00 	lea    0xb9ad(%rip),%rax        # 1f760 <g_543>
   13db3:	48 89 85 18 fd ff ff 	mov    %rax,-0x2e8(%rbp)
   13dba:	48 c7 85 a8 fc ff ff 	movq   $0x0,-0x358(%rbp)
   13dc1:	00 00 00 00 
   13dc5:	48 8d 85 a8 fc ff ff 	lea    -0x358(%rbp),%rax
   13dcc:	48 89 85 20 fd ff ff 	mov    %rax,-0x2e0(%rbp)
   13dd3:	c7 85 90 fc ff ff c2 	movl   $0x5606e9c2,-0x370(%rbp)
   13dda:	e9 06 56 
   13ddd:	48 c7 85 b0 fc ff ff 	movq   $0x0,-0x350(%rbp)
   13de4:	00 00 00 00 
   13de8:	48 8d 85 b0 fc ff ff 	lea    -0x350(%rbp),%rax
   13def:	48 89 85 28 fd ff ff 	mov    %rax,-0x2d8(%rbp)
   13df6:	66 c7 85 82 fc ff ff 	movw   $0x0,-0x37e(%rbp)
   13dfd:	00 00 
   13dff:	48 8d 05 92 b9 00 00 	lea    0xb992(%rip),%rax        # 1f798 <g_801>
   13e06:	48 89 85 30 fd ff ff 	mov    %rax,-0x2d0(%rbp)
   13e0d:	c7 85 94 fc ff ff ff 	movl   $0xffffffff,-0x36c(%rbp)
   13e14:	ff ff ff 
   13e17:	66 c7 85 84 fc ff ff 	movw   $0xbd4c,-0x37c(%rbp)
   13e1e:	4c bd 
   13e20:	48 8d 05 39 ec 00 00 	lea    0xec39(%rip),%rax        # 22a60 <g_978+0x400>
   13e27:	48 89 85 38 fd ff ff 	mov    %rax,-0x2c8(%rbp)
   13e2e:	48 8d 05 1b e9 00 00 	lea    0xe91b(%rip),%rax        # 22750 <g_978+0xf0>
   13e35:	48 89 85 40 fd ff ff 	mov    %rax,-0x2c0(%rbp)
   13e3c:	66 c7 85 86 fc ff ff 	movw   $0xffff,-0x37a(%rbp)
   13e43:	ff ff 
   13e45:	48 8d 05 a4 be 00 00 	lea    0xbea4(%rip),%rax        # 1fcf0 <g_1099+0x90>
   13e4c:	48 89 85 a0 fd ff ff 	mov    %rax,-0x260(%rbp)
   13e53:	48 8d 05 e8 bf 00 00 	lea    0xbfe8(%rip),%rax        # 1fe42 <g_1101>
   13e5a:	48 89 85 a8 fd ff ff 	mov    %rax,-0x258(%rbp)
   13e61:	48 8d 05 da bf 00 00 	lea    0xbfda(%rip),%rax        # 1fe42 <g_1101>
   13e68:	48 89 85 b0 fd ff ff 	mov    %rax,-0x250(%rbp)
   13e6f:	48 8d 05 7a be 00 00 	lea    0xbe7a(%rip),%rax        # 1fcf0 <g_1099+0x90>
   13e76:	48 89 85 b8 fd ff ff 	mov    %rax,-0x248(%rbp)
   13e7d:	48 8d 05 be bf 00 00 	lea    0xbfbe(%rip),%rax        # 1fe42 <g_1101>
   13e84:	48 89 85 c0 fd ff ff 	mov    %rax,-0x240(%rbp)
   13e8b:	48 8d 05 b0 bf 00 00 	lea    0xbfb0(%rip),%rax        # 1fe42 <g_1101>
   13e92:	48 89 85 c8 fd ff ff 	mov    %rax,-0x238(%rbp)
   13e99:	48 8d 05 50 be 00 00 	lea    0xbe50(%rip),%rax        # 1fcf0 <g_1099+0x90>
   13ea0:	48 89 85 d0 fd ff ff 	mov    %rax,-0x230(%rbp)
   13ea7:	48 c7 85 48 fd ff ff 	movq   $0x0,-0x2b8(%rbp)
   13eae:	00 00 00 00 
   13eb2:	c6 85 80 fc ff ff 6e 	movb   $0x6e,-0x380(%rbp)
   13eb9:	48 8d 85 a0 fc ff ff 	lea    -0x360(%rbp),%rax
   13ec0:	48 89 85 b8 fc ff ff 	mov    %rax,-0x348(%rbp)
   13ec7:	48 8d 85 b8 fc ff ff 	lea    -0x348(%rbp),%rax
   13ece:	48 89 85 50 fd ff ff 	mov    %rax,-0x2b0(%rbp)
   13ed5:	c6 85 81 fc ff ff ff 	movb   $0xff,-0x37f(%rbp)
   13edc:	c7 85 98 fc ff ff 0f 	movl   $0x565a3a0f,-0x368(%rbp)
   13ee3:	3a 5a 56 
   13ee6:	66 c7 85 70 fd ff ff 	movw   $0x7220,-0x290(%rbp)
   13eed:	20 72 
   13eef:	66 c7 85 72 fd ff ff 	movw   $0x0,-0x28e(%rbp)
   13ef6:	00 00 
   13ef8:	66 c7 85 74 fd ff ff 	movw   $0x7220,-0x28c(%rbp)
   13eff:	20 72 
   13f01:	66 c7 85 76 fd ff ff 	movw   $0x7220,-0x28a(%rbp)
   13f08:	20 72 
   13f0a:	66 c7 85 78 fd ff ff 	movw   $0x0,-0x288(%rbp)
   13f11:	00 00 
   13f13:	66 c7 85 7a fd ff ff 	movw   $0x7220,-0x286(%rbp)
   13f1a:	20 72 
   13f1c:	66 c7 85 7c fd ff ff 	movw   $0x7220,-0x284(%rbp)
   13f23:	20 72 
   13f25:	66 c7 85 7e fd ff ff 	movw   $0x0,-0x282(%rbp)
   13f2c:	00 00 
   13f2e:	66 c7 85 80 fd ff ff 	movw   $0x0,-0x280(%rbp)
   13f35:	00 00 
   13f37:	66 c7 85 82 fd ff ff 	movw   $0x2,-0x27e(%rbp)
   13f3e:	02 00 
   13f40:	66 c7 85 84 fd ff ff 	movw   $0x0,-0x27c(%rbp)
   13f47:	00 00 
   13f49:	66 c7 85 86 fd ff ff 	movw   $0x0,-0x27a(%rbp)
   13f50:	00 00 
   13f52:	66 c7 85 88 fd ff ff 	movw   $0x2,-0x278(%rbp)
   13f59:	02 00 
   13f5b:	66 c7 85 8a fd ff ff 	movw   $0x0,-0x276(%rbp)
   13f62:	00 00 
   13f64:	66 c7 85 8c fd ff ff 	movw   $0x0,-0x274(%rbp)
   13f6b:	00 00 
   13f6d:	66 c7 85 8e fd ff ff 	movw   $0x7220,-0x272(%rbp)
   13f74:	20 72 
   13f76:	66 c7 85 90 fd ff ff 	movw   $0x7220,-0x270(%rbp)
   13f7d:	20 72 
   13f7f:	66 c7 85 92 fd ff ff 	movw   $0x0,-0x26e(%rbp)
   13f86:	00 00 
   13f88:	66 c7 85 94 fd ff ff 	movw   $0x7220,-0x26c(%rbp)
   13f8f:	20 72 
   13f91:	66 c7 85 96 fd ff ff 	movw   $0x7220,-0x26a(%rbp)
   13f98:	20 72 
   13f9a:	66 c7 85 98 fd ff ff 	movw   $0x0,-0x268(%rbp)
   13fa1:	00 00 
   13fa3:	48 c7 85 c0 fc ff ff 	movq   $0x0,-0x340(%rbp)
   13faa:	00 00 00 00 
   13fae:	48 8d 85 c0 fc ff ff 	lea    -0x340(%rbp),%rax
   13fb5:	48 89 85 e0 fd ff ff 	mov    %rax,-0x220(%rbp)
   13fbc:	48 8d 85 c0 fc ff ff 	lea    -0x340(%rbp),%rax
   13fc3:	48 89 85 e8 fd ff ff 	mov    %rax,-0x218(%rbp)
   13fca:	48 8d 85 c0 fc ff ff 	lea    -0x340(%rbp),%rax
   13fd1:	48 89 85 f0 fd ff ff 	mov    %rax,-0x210(%rbp)
   13fd8:	48 8d 85 c0 fc ff ff 	lea    -0x340(%rbp),%rax
   13fdf:	48 89 85 f8 fd ff ff 	mov    %rax,-0x208(%rbp)
   13fe6:	48 8d 85 c0 fc ff ff 	lea    -0x340(%rbp),%rax
   13fed:	48 89 85 00 fe ff ff 	mov    %rax,-0x200(%rbp)
   13ff4:	48 8d 85 c0 fc ff ff 	lea    -0x340(%rbp),%rax
   13ffb:	48 89 85 08 fe ff ff 	mov    %rax,-0x1f8(%rbp)
   14002:	48 8d 85 c0 fc ff ff 	lea    -0x340(%rbp),%rax
   14009:	48 89 85 10 fe ff ff 	mov    %rax,-0x1f0(%rbp)
   14010:	48 8d 85 c0 fc ff ff 	lea    -0x340(%rbp),%rax
   14017:	48 89 85 18 fe ff ff 	mov    %rax,-0x1e8(%rbp)
   1401e:	48 8d 85 e0 fd ff ff 	lea    -0x220(%rbp),%rax
   14025:	48 83 c0 38          	add    $0x38,%rax
   14029:	48 89 85 58 fd ff ff 	mov    %rax,-0x2a8(%rbp)
   14030:	c7 85 9c fc ff ff 05 	movl   $0xef09705,-0x364(%rbp)
   14037:	97 f0 0e 
   1403a:	c7 85 88 fc ff ff 00 	movl   $0x0,-0x378(%rbp)
   14041:	00 00 00 
   14044:	eb 1e                	jmp    14064 <func_32+0x45c>
   14046:	8b 85 88 fc ff ff    	mov    -0x378(%rbp),%eax
   1404c:	48 98                	cltq   
   1404e:	48 8d 15 33 b7 00 00 	lea    0xb733(%rip),%rdx        # 1f788 <g_595>
   14055:	48 89 94 c5 60 fd ff 	mov    %rdx,-0x2a0(%rbp,%rax,8)
   1405c:	ff 
   1405d:	83 85 88 fc ff ff 01 	addl   $0x1,-0x378(%rbp)
   14064:	83 bd 88 fc ff ff 01 	cmpl   $0x1,-0x378(%rbp)
   1406b:	7e d9                	jle    14046 <func_32+0x43e>
   1406d:	48 8b 05 2c f5 00 00 	mov    0xf52c(%rip),%rax        # 235a0 <g_1361>
   14074:	48 8b 00             	mov    (%rax),%rax
   14077:	48 8b 4d f8          	mov    -0x8(%rbp),%rcx
   1407b:	64 48 33 0c 25 28 00 	xor    %fs:0x28,%rcx
   14082:	00 00 
   14084:	74 05                	je     1408b <func_32+0x483>
   14086:	e8 e5 5f ff ff       	callq  a070 <__stack_chk_fail@plt>
   1408b:	c9                   	leaveq 
   1408c:	c3                   	retq   

000000000001408d <func_38>:
   1408d:	f3 0f 1e fa          	endbr64 
   14091:	55                   	push   %rbp
   14092:	48 89 e5             	mov    %rsp,%rbp
   14095:	41 57                	push   %r15
   14097:	41 56                	push   %r14
   14099:	41 55                	push   %r13
   1409b:	41 54                	push   %r12
   1409d:	53                   	push   %rbx
   1409e:	48 81 ec f8 00 00 00 	sub    $0xf8,%rsp
   140a5:	48 89 bd e8 fe ff ff 	mov    %rdi,-0x118(%rbp)
   140ac:	64 48 8b 04 25 28 00 	mov    %fs:0x28,%rax
   140b3:	00 00 
   140b5:	48 89 45 c8          	mov    %rax,-0x38(%rbp)
   140b9:	31 c0                	xor    %eax,%eax
   140bb:	c7 85 fc fe ff ff ff 	movl   $0xffffffff,-0x104(%rbp)
   140c2:	ff ff ff 
   140c5:	48 8d 05 fc 01 01 00 	lea    0x101fc(%rip),%rax        # 242c8 <g_3>
   140cc:	48 89 85 10 ff ff ff 	mov    %rax,-0xf0(%rbp)
   140d3:	48 b9 2d 85 34 54 38 	movabs $0xc78bef385434852d,%rcx
   140da:	ef 8b c7 
   140dd:	48 89 8d 50 ff ff ff 	mov    %rcx,-0xb0(%rbp)
   140e4:	48 b8 c4 c2 be 24 6a 	movabs $0x74d7a56a24bec2c4,%rax
   140eb:	a5 d7 74 
   140ee:	48 89 85 58 ff ff ff 	mov    %rax,-0xa8(%rbp)
   140f5:	48 89 85 60 ff ff ff 	mov    %rax,-0xa0(%rbp)
   140fc:	48 89 8d 68 ff ff ff 	mov    %rcx,-0x98(%rbp)
   14103:	48 89 85 70 ff ff ff 	mov    %rax,-0x90(%rbp)
   1410a:	48 89 85 78 ff ff ff 	mov    %rax,-0x88(%rbp)
   14111:	48 c7 85 08 ff ff ff 	movq   $0x1,-0xf8(%rbp)
   14118:	01 00 00 00 
   1411c:	48 b8 80 8e 19 18 3f 	movabs $0x3613173f18198e80,%rax
   14123:	17 13 36 
   14126:	48 89 85 18 ff ff ff 	mov    %rax,-0xe8(%rbp)
   1412d:	48 c7 85 20 ff ff ff 	movq   $0x0,-0xe0(%rbp)
   14134:	00 00 00 00 
   14138:	c7 85 00 ff ff ff 4c 	movl   $0xe9aa004c,-0x100(%rbp)
   1413f:	00 aa e9 
   14142:	48 8d 05 83 af 00 00 	lea    0xaf83(%rip),%rax        # 1f0cc <g_7>
   14149:	48 89 85 28 ff ff ff 	mov    %rax,-0xd8(%rbp)
   14150:	48 c7 85 30 ff ff ff 	movq   $0x0,-0xd0(%rbp)
   14157:	00 00 00 00 
   1415b:	48 c7 85 38 ff ff ff 	movq   $0x0,-0xc8(%rbp)
   14162:	00 00 00 00 
   14166:	48 b8 a0 8c 8d 32 cf 	movabs $0xcbeef1cf328d8ca0,%rax
   1416d:	f1 ee cb 
   14170:	48 89 85 40 ff ff ff 	mov    %rax,-0xc0(%rbp)
   14177:	c7 85 f4 fe ff ff 00 	movl   $0x0,-0x10c(%rbp)
   1417e:	00 00 00 
   14181:	eb 40                	jmp    141c3 <func_38+0x136>
   14183:	c7 85 f8 fe ff ff 00 	movl   $0x0,-0x108(%rbp)
   1418a:	00 00 00 
   1418d:	eb 24                	jmp    141b3 <func_38+0x126>
   1418f:	8b 85 f8 fe ff ff    	mov    -0x108(%rbp),%eax
   14195:	48 63 d0             	movslq %eax,%rdx
   14198:	8b 85 f4 fe ff ff    	mov    -0x10c(%rbp),%eax
   1419e:	48 98                	cltq   
   141a0:	48 01 d0             	add    %rdx,%rax
   141a3:	48 c7 44 c5 80 00 00 	movq   $0x0,-0x80(%rbp,%rax,8)
   141aa:	00 00 
   141ac:	83 85 f8 fe ff ff 01 	addl   $0x1,-0x108(%rbp)
   141b3:	83 bd f8 fe ff ff 00 	cmpl   $0x0,-0x108(%rbp)
   141ba:	7e d3                	jle    1418f <func_38+0x102>
   141bc:	83 85 f4 fe ff ff 01 	addl   $0x1,-0x10c(%rbp)
   141c3:	83 bd f4 fe ff ff 08 	cmpl   $0x8,-0x10c(%rbp)
   141ca:	7e b7                	jle    14183 <func_38+0xf6>
   141cc:	8b 05 fe ae 00 00    	mov    0xaefe(%rip),%eax        # 1f0d0 <g_28>
   141d2:	41 89 c7             	mov    %eax,%r15d
   141d5:	48 8b 85 08 ff ff ff 	mov    -0xf8(%rbp),%rax
   141dc:	41 89 c5             	mov    %eax,%r13d
   141df:	48 8b 85 68 ff ff ff 	mov    -0x98(%rbp),%rax
   141e6:	49 89 c6             	mov    %rax,%r14
   141e9:	48 8b 85 10 ff ff ff 	mov    -0xf0(%rbp),%rax
   141f0:	8b 00                	mov    (%rax),%eax
   141f2:	89 85 e4 fe ff ff    	mov    %eax,-0x11c(%rbp)
   141f8:	8b 85 fc fe ff ff    	mov    -0x104(%rbp),%eax
   141fe:	0f b7 d8             	movzwl %ax,%ebx
   14201:	48 8b 05 c8 00 01 00 	mov    0x100c8(%rip),%rax        # 242d0 <g_86>
   14208:	48 85 c0             	test   %rax,%rax
   1420b:	0f 95 c0             	setne  %al
   1420e:	0f b6 d0             	movzbl %al,%edx
   14211:	8b 05 b1 00 01 00    	mov    0x100b1(%rip),%eax        # 242c8 <g_3>
   14217:	39 c2                	cmp    %eax,%edx
   14219:	0f 9f c0             	setg   %al
   1421c:	44 0f b6 e0          	movzbl %al,%r12d
   14220:	0f b7 05 a5 00 01 00 	movzwl 0x100a5(%rip),%eax        # 242cc <g_49>
   14227:	0f b7 c0             	movzwl %ax,%eax
   1422a:	be 02 00 00 00       	mov    $0x2,%esi
   1422f:	89 c7                	mov    %eax,%edi
   14231:	e8 12 6c ff ff       	callq  ae48 <safe_rshift_func_uint16_t_u_s>
   14236:	0f b7 c0             	movzwl %ax,%eax
   14239:	39 85 fc fe ff ff    	cmp    %eax,-0x104(%rbp)
   1423f:	0f 93 c0             	setae  %al
   14242:	0f b6 c0             	movzbl %al,%eax
   14245:	41 39 c4             	cmp    %eax,%r12d
   14248:	7d 0a                	jge    14254 <func_38+0x1c7>
   1424a:	8b 05 7c ae 00 00    	mov    0xae7c(%rip),%eax        # 1f0cc <g_7>
   14250:	85 c0                	test   %eax,%eax
   14252:	74 07                	je     1425b <func_38+0x1ce>
   14254:	b8 01 00 00 00       	mov    $0x1,%eax
   14259:	eb 05                	jmp    14260 <func_38+0x1d3>
   1425b:	b8 00 00 00 00       	mov    $0x0,%eax
   14260:	98                   	cwtl   
   14261:	be 06 00 00 00       	mov    $0x6,%esi
   14266:	89 c7                	mov    %eax,%edi
   14268:	e8 bd 62 ff ff       	callq  a52a <safe_rshift_func_int16_t_s_s>
   1426d:	66 85 c0             	test   %ax,%ax
   14270:	48 c7 c6 fd ff ff ff 	mov    $0xfffffffffffffffd,%rsi
   14277:	bf 00 00 00 00       	mov    $0x0,%edi
   1427c:	e8 ca 6d ff ff       	callq  b04b <safe_sub_func_uint64_t_u_u>
   14281:	66 0d e7 90          	or     $0x90e7,%ax
   14285:	98                   	cwtl   
   14286:	be 0f 00 00 00       	mov    $0xf,%esi
   1428b:	89 c7                	mov    %eax,%edi
   1428d:	e8 d1 62 ff ff       	callq  a563 <safe_rshift_func_int16_t_s_u>
   14292:	4c 0f bf e0          	movswq %ax,%r12
   14296:	8b 85 fc fe ff ff    	mov    -0x104(%rbp),%eax
   1429c:	0f b7 c0             	movzwl %ax,%eax
   1429f:	be 00 00 00 00       	mov    $0x0,%esi
   142a4:	89 c7                	mov    %eax,%edi
   142a6:	e8 9d 6b ff ff       	callq  ae48 <safe_rshift_func_uint16_t_u_s>
   142ab:	0f b7 c0             	movzwl %ax,%eax
   142ae:	4c 89 e6             	mov    %r12,%rsi
   142b1:	48 89 c7             	mov    %rax,%rdi
   142b4:	e8 ef 65 ff ff       	callq  a8a8 <safe_sub_func_int64_t_s_s>
   142b9:	89 c7                	mov    %eax,%edi
   142bb:	48 8b 95 10 ff ff ff 	mov    -0xf0(%rbp),%rdx
   142c2:	8b 85 fc fe ff ff    	mov    -0x104(%rbp),%eax
   142c8:	44 8b 85 e4 fe ff ff 	mov    -0x11c(%rbp),%r8d
   142cf:	48 89 d1             	mov    %rdx,%rcx
   142d2:	89 c2                	mov    %eax,%edx
   142d4:	89 de                	mov    %ebx,%esi
   142d6:	e8 a7 24 00 00       	callq  16782 <func_69>
   142db:	0f b6 d0             	movzbl %al,%edx
   142de:	48 8b 85 10 ff ff ff 	mov    -0xf0(%rbp),%rax
   142e5:	8b 00                	mov    (%rax),%eax
   142e7:	39 c2                	cmp    %eax,%edx
   142e9:	0f 9e c0             	setle  %al
   142ec:	0f b6 c0             	movzbl %al,%eax
   142ef:	be 00 00 00 00       	mov    $0x0,%esi
   142f4:	89 c7                	mov    %eax,%edi
   142f6:	e8 71 60 ff ff       	callq  a36c <safe_rshift_func_int8_t_s_u>
   142fb:	0f be d0             	movsbl %al,%edx
   142fe:	8b 05 cc ad 00 00    	mov    0xadcc(%rip),%eax        # 1f0d0 <g_28>
   14304:	31 c2                	xor    %eax,%edx
   14306:	8b 05 bc ff 00 00    	mov    0xffbc(%rip),%eax        # 242c8 <g_3>
   1430c:	39 c2                	cmp    %eax,%edx
   1430e:	0f 94 c0             	sete   %al
   14311:	0f b6 c0             	movzbl %al,%eax
   14314:	39 85 fc fe ff ff    	cmp    %eax,-0x104(%rbp)
   1431a:	0f 92 c0             	setb   %al
   1431d:	0f b6 c0             	movzbl %al,%eax
   14320:	4c 89 f6             	mov    %r14,%rsi
   14323:	48 89 c7             	mov    %rax,%rdi
   14326:	e8 03 6d ff ff       	callq  b02e <safe_add_func_uint64_t_u_u>
   1432b:	0f be c0             	movsbl %al,%eax
   1432e:	be 4f 00 00 00       	mov    $0x4f,%esi
   14333:	89 c7                	mov    %eax,%edi
   14335:	e8 30 5f ff ff       	callq  a26a <safe_div_func_int8_t_s_s>
   1433a:	48 8b 05 0f e1 00 00 	mov    0xe10f(%rip),%rax        # 22450 <g_189+0x90>
   14341:	48 85 c0             	test   %rax,%rax
   14344:	0f 94 c0             	sete   %al
   14347:	0f b6 c0             	movzbl %al,%eax
   1434a:	be 05 00 00 00       	mov    $0x5,%esi
   1434f:	89 c7                	mov    %eax,%edi
   14351:	e8 16 60 ff ff       	callq  a36c <safe_rshift_func_int8_t_s_u>
   14356:	0f be d8             	movsbl %al,%ebx
   14359:	be 04 00 00 00       	mov    $0x4,%esi
   1435e:	bf c5 ff ff ff       	mov    $0xffffffc5,%edi
   14363:	e8 86 5f ff ff       	callq  a2ee <safe_lshift_func_int8_t_s_u>
   14368:	66 98                	cbtw   
   1436a:	0f b7 c0             	movzwl %ax,%eax
   1436d:	48 8b 95 18 ff ff ff 	mov    -0xe8(%rbp),%rdx
   14374:	4d 89 f8             	mov    %r15,%r8
   14377:	48 89 d1             	mov    %rdx,%rcx
   1437a:	44 89 ea             	mov    %r13d,%edx
   1437d:	89 de                	mov    %ebx,%esi
   1437f:	89 c7                	mov    %eax,%edi
   14381:	e8 55 01 00 00       	callq  144db <func_52>
   14386:	48 8b 95 e8 fe ff ff 	mov    -0x118(%rbp),%rdx
   1438d:	89 02                	mov    %eax,(%rdx)
   1438f:	48 c7 85 08 ff ff ff 	movq   $0x0,-0xf8(%rbp)
   14396:	00 00 00 00 
   1439a:	eb 33                	jmp    143cf <func_38+0x342>
   1439c:	48 8b 85 e8 fe ff ff 	mov    -0x118(%rbp),%rax
   143a3:	8b 10                	mov    (%rax),%edx
   143a5:	48 8b 85 08 ff ff ff 	mov    -0xf8(%rbp),%rax
   143ac:	48 8d 0c 00          	lea    (%rax,%rax,1),%rcx
   143b0:	48 8d 05 61 b3 00 00 	lea    0xb361(%rip),%rax        # 1f718 <g_332>
   143b7:	0f b7 04 01          	movzwl (%rcx,%rax,1),%eax
   143bb:	98                   	cwtl   
   143bc:	09 c2                	or     %eax,%edx
   143be:	48 8b 85 e8 fe ff ff 	mov    -0x118(%rbp),%rax
   143c5:	89 10                	mov    %edx,(%rax)
   143c7:	48 83 85 08 ff ff ff 	addq   $0x1,-0xf8(%rbp)
   143ce:	01 
   143cf:	48 83 bd 08 ff ff ff 	cmpq   $0x4,-0xf8(%rbp)
   143d6:	04 
   143d7:	7e c3                	jle    1439c <func_38+0x30f>
   143d9:	c6 05 08 b3 00 00 00 	movb   $0x0,0xb308(%rip)        # 1f6e8 <g_167>
   143e0:	eb 50                	jmp    14432 <func_38+0x3a5>
   143e2:	c7 85 04 ff ff ff 01 	movl   $0x1,-0xfc(%rbp)
   143e9:	00 00 00 
   143ec:	48 8d 05 f5 fe 00 00 	lea    0xfef5(%rip),%rax        # 242e8 <g_328>
   143f3:	48 89 85 48 ff ff ff 	mov    %rax,-0xb8(%rbp)
   143fa:	48 8b 85 48 ff ff ff 	mov    -0xb8(%rbp),%rax
   14401:	48 8b 95 10 ff ff ff 	mov    -0xf0(%rbp),%rdx
   14408:	48 89 10             	mov    %rdx,(%rax)
   1440b:	48 8b 85 e8 fe ff ff 	mov    -0x118(%rbp),%rax
   14412:	8b 00                	mov    (%rax),%eax
   14414:	85 c0                	test   %eax,%eax
   14416:	0f b6 05 cb b2 00 00 	movzbl 0xb2cb(%rip),%eax        # 1f6e8 <g_167>
   1441d:	0f b6 c0             	movzbl %al,%eax
   14420:	be 04 00 00 00       	mov    $0x4,%esi
   14425:	89 c7                	mov    %eax,%edi
   14427:	e8 8a 61 ff ff       	callq  a5b6 <safe_add_func_int32_t_s_s>
   1442c:	88 05 b6 b2 00 00    	mov    %al,0xb2b6(%rip)        # 1f6e8 <g_167>
   14432:	0f b6 05 af b2 00 00 	movzbl 0xb2af(%rip),%eax        # 1f6e8 <g_167>
   14439:	3c 07                	cmp    $0x7,%al
   1443b:	77 a5                	ja     143e2 <func_38+0x355>
   1443d:	48 83 85 40 ff ff ff 	addq   $0x1,-0xc0(%rbp)
   14444:	01 
   14445:	48 8d 05 9c fe 00 00 	lea    0xfe9c(%rip),%rax        # 242e8 <g_328>
   1444c:	48 8b 5d c8          	mov    -0x38(%rbp),%rbx
   14450:	64 48 33 1c 25 28 00 	xor    %fs:0x28,%rbx
   14457:	00 00 
   14459:	74 05                	je     14460 <func_38+0x3d3>
   1445b:	e8 10 5c ff ff       	callq  a070 <__stack_chk_fail@plt>
   14460:	48 81 c4 f8 00 00 00 	add    $0xf8,%rsp
   14467:	5b                   	pop    %rbx
   14468:	41 5c                	pop    %r12
   1446a:	41 5d                	pop    %r13
   1446c:	41 5e                	pop    %r14
   1446e:	41 5f                	pop    %r15
   14470:	5d                   	pop    %rbp
   14471:	c3                   	retq   

0000000000014472 <func_40>:
   14472:	f3 0f 1e fa          	endbr64 
   14476:	55                   	push   %rbp
   14477:	48 89 e5             	mov    %rsp,%rbp
   1447a:	89 7d fc             	mov    %edi,-0x4(%rbp)
   1447d:	48 89 75 f0          	mov    %rsi,-0x10(%rbp)
   14481:	89 55 f8             	mov    %edx,-0x8(%rbp)
   14484:	89 c8                	mov    %ecx,%eax
   14486:	4c 89 45 e0          	mov    %r8,-0x20(%rbp)
   1448a:	66 89 45 ec          	mov    %ax,-0x14(%rbp)
   1448e:	0f b7 05 37 fe 00 00 	movzwl 0xfe37(%rip),%eax        # 242cc <g_49>
   14495:	83 e8 01             	sub    $0x1,%eax
   14498:	66 89 05 2d fe 00 00 	mov    %ax,0xfe2d(%rip)        # 242cc <g_49>
   1449f:	48 8b 45 e0          	mov    -0x20(%rbp),%rax
   144a3:	48 8b 00             	mov    (%rax),%rax
   144a6:	5d                   	pop    %rbp
   144a7:	c3                   	retq   

00000000000144a8 <func_46>:
   144a8:	f3 0f 1e fa          	endbr64 
   144ac:	55                   	push   %rbp
   144ad:	48 89 e5             	mov    %rsp,%rbp
   144b0:	89 7d ec             	mov    %edi,-0x14(%rbp)
   144b3:	48 8d 05 12 ac 00 00 	lea    0xac12(%rip),%rax        # 1f0cc <g_7>
   144ba:	48 89 45 f8          	mov    %rax,-0x8(%rbp)
   144be:	48 8b 45 f8          	mov    -0x8(%rbp),%rax
   144c2:	8b 00                	mov    (%rax),%eax
   144c4:	89 c2                	mov    %eax,%edx
   144c6:	8b 05 04 ac 00 00    	mov    0xac04(%rip),%eax        # 1f0d0 <g_28>
   144cc:	31 d0                	xor    %edx,%eax
   144ce:	89 c2                	mov    %eax,%edx
   144d0:	48 8b 45 f8          	mov    -0x8(%rbp),%rax
   144d4:	89 10                	mov    %edx,(%rax)
   144d6:	8b 45 ec             	mov    -0x14(%rbp),%eax
   144d9:	5d                   	pop    %rbp
   144da:	c3                   	retq   

00000000000144db <func_52>:
   144db:	f3 0f 1e fa          	endbr64 
   144df:	55                   	push   %rbp
   144e0:	48 89 e5             	mov    %rsp,%rbp
   144e3:	41 57                	push   %r15
   144e5:	41 56                	push   %r14
   144e7:	41 55                	push   %r13
   144e9:	41 54                	push   %r12
   144eb:	53                   	push   %rbx
   144ec:	48 81 ec 38 0d 00 00 	sub    $0xd38,%rsp
   144f3:	89 f0                	mov    %esi,%eax
   144f5:	89 95 c4 f2 ff ff    	mov    %edx,-0xd3c(%rbp)
   144fb:	48 89 8d b8 f2 ff ff 	mov    %rcx,-0xd48(%rbp)
   14502:	4c 89 85 b0 f2 ff ff 	mov    %r8,-0xd50(%rbp)
   14509:	89 fa                	mov    %edi,%edx
   1450b:	66 89 95 cc f2 ff ff 	mov    %dx,-0xd34(%rbp)
   14512:	66 89 85 c8 f2 ff ff 	mov    %ax,-0xd38(%rbp)
   14519:	64 48 8b 04 25 28 00 	mov    %fs:0x28,%rax
   14520:	00 00 
   14522:	48 89 45 c8          	mov    %rax,-0x38(%rbp)
   14526:	31 c0                	xor    %eax,%eax
   14528:	c6 85 dd f2 ff ff ec 	movb   $0xec,-0xd23(%rbp)
   1452f:	48 c7 85 a0 f3 ff ff 	movq   $0x0,-0xc60(%rbp)
   14536:	00 00 00 00 
   1453a:	48 8d 05 a7 b1 00 00 	lea    0xb1a7(%rip),%rax        # 1f6e8 <g_167>
   14541:	48 89 85 a8 f3 ff ff 	mov    %rax,-0xc58(%rbp)
   14548:	48 8d 05 85 ab 00 00 	lea    0xab85(%rip),%rax        # 1f0d4 <g_93>
   1454f:	48 89 85 d8 f3 ff ff 	mov    %rax,-0xc28(%rbp)
   14556:	c7 85 e8 f2 ff ff 00 	movl   $0x0,-0xd18(%rbp)
   1455d:	00 00 00 
   14560:	c7 85 fc f2 ff ff 00 	movl   $0x0,-0xd04(%rbp)
   14567:	00 00 00 
   1456a:	c7 85 24 f3 ff ff 51 	movl   $0x533b4751,-0xcdc(%rbp)
   14571:	47 3b 53 
   14574:	c7 85 ec f2 ff ff 01 	movl   $0x1,-0xd14(%rbp)
   1457b:	00 00 00 
   1457e:	c7 85 28 f3 ff ff 92 	movl   $0xa408d92,-0xcd8(%rbp)
   14585:	8d 40 0a 
   14588:	c7 85 2c f3 ff ff ee 	movl   $0x73d293ee,-0xcd4(%rbp)
   1458f:	93 d2 73 
   14592:	c7 85 f0 f2 ff ff ff 	movl   $0xffffffff,-0xd10(%rbp)
   14599:	ff ff ff 
   1459c:	c7 85 f4 f2 ff ff 74 	movl   $0xc6d8fc74,-0xd0c(%rbp)
   145a3:	fc d8 c6 
   145a6:	48 8d 85 c0 fb ff ff 	lea    -0x440(%rbp),%rax
   145ad:	48 8d 15 cc 69 00 00 	lea    0x69cc(%rip),%rdx        # 1af80 <g_2156+0xaa0>
   145b4:	b9 7e 00 00 00       	mov    $0x7e,%ecx
   145b9:	48 89 c7             	mov    %rax,%rdi
   145bc:	48 89 d6             	mov    %rdx,%rsi
   145bf:	f3 48 a5             	rep movsq %ds:(%rsi),%es:(%rdi)
   145c2:	48 8d 85 b0 f7 ff ff 	lea    -0x850(%rbp),%rax
   145c9:	48 8d 15 b0 6d 00 00 	lea    0x6db0(%rip),%rdx        # 1b380 <g_2156+0xea0>
   145d0:	b9 28 00 00 00       	mov    $0x28,%ecx
   145d5:	48 89 c7             	mov    %rax,%rdi
   145d8:	48 89 d6             	mov    %rdx,%rsi
   145db:	f3 48 a5             	rep movsq %ds:(%rsi),%es:(%rdi)
   145de:	48 8d 85 b0 f5 ff ff 	lea    -0xa50(%rbp),%rax
   145e5:	48 83 c0 10          	add    $0x10,%rax
   145e9:	48 89 85 b0 f3 ff ff 	mov    %rax,-0xc50(%rbp)
   145f0:	48 8d 05 e9 fc 00 00 	lea    0xfce9(%rip),%rax        # 242e0 <g_316>
   145f7:	48 89 85 e0 f3 ff ff 	mov    %rax,-0xc20(%rbp)
   145fe:	48 8d 85 ec f2 ff ff 	lea    -0xd14(%rbp),%rax
   14605:	48 89 85 e8 f3 ff ff 	mov    %rax,-0xc18(%rbp)
   1460c:	c7 85 30 f3 ff ff 00 	movl   $0x0,-0xcd0(%rbp)
   14613:	00 00 00 
   14616:	48 8d 05 0b b1 00 00 	lea    0xb10b(%rip),%rax        # 1f728 <g_417>
   1461d:	48 89 85 d0 f5 ff ff 	mov    %rax,-0xa30(%rbp)
   14624:	48 8d 05 fd b0 00 00 	lea    0xb0fd(%rip),%rax        # 1f728 <g_417>
   1462b:	48 89 85 d8 f5 ff ff 	mov    %rax,-0xa28(%rbp)
   14632:	48 8d 05 ef b0 00 00 	lea    0xb0ef(%rip),%rax        # 1f728 <g_417>
   14639:	48 89 85 e0 f5 ff ff 	mov    %rax,-0xa20(%rbp)
   14640:	48 8d 05 e1 b0 00 00 	lea    0xb0e1(%rip),%rax        # 1f728 <g_417>
   14647:	48 89 85 e8 f5 ff ff 	mov    %rax,-0xa18(%rbp)
   1464e:	48 8d 85 d0 f5 ff ff 	lea    -0xa30(%rbp),%rax
   14655:	48 83 c0 18          	add    $0x18,%rax
   14659:	48 89 85 b8 f3 ff ff 	mov    %rax,-0xc48(%rbp)
   14660:	48 8d 85 b8 f3 ff ff 	lea    -0xc48(%rbp),%rax
   14667:	48 89 85 f0 f3 ff ff 	mov    %rax,-0xc10(%rbp)
   1466e:	c6 85 de f2 ff ff 47 	movb   $0x47,-0xd22(%rbp)
   14675:	48 b8 9c 39 49 be 6b 	movabs $0x1fee466bbe49399c,%rax
   1467c:	46 ee 1f 
   1467f:	48 89 85 f8 f3 ff ff 	mov    %rax,-0xc08(%rbp)
   14686:	48 b8 65 65 fa 65 65 	movabs $0x6565fa6565fa6565,%rax
   1468d:	fa 65 65 
   14690:	48 89 45 bf          	mov    %rax,-0x41(%rbp)
   14694:	c6 45 c7 fa          	movb   $0xfa,-0x39(%rbp)
   14698:	c7 85 34 f3 ff ff f5 	movl   $0x14510ef5,-0xccc(%rbp)
   1469f:	0e 51 14 
   146a2:	c7 85 00 f3 ff ff 00 	movl   $0x0,-0xd00(%rbp)
   146a9:	00 00 00 
   146ac:	eb 1e                	jmp    146cc <func_52+0x1f1>
   146ae:	8b 85 00 f3 ff ff    	mov    -0xd00(%rbp),%eax
   146b4:	48 98                	cltq   
   146b6:	48 8d 15 0f fc 00 00 	lea    0xfc0f(%rip),%rdx        # 242cc <g_49>
   146bd:	48 89 94 c5 b0 f5 ff 	mov    %rdx,-0xa50(%rbp,%rax,8)
   146c4:	ff 
   146c5:	83 85 00 f3 ff ff 01 	addl   $0x1,-0xd00(%rbp)
   146cc:	83 bd 00 f3 ff ff 02 	cmpl   $0x2,-0xd00(%rbp)
   146d3:	7e d9                	jle    146ae <func_52+0x1d3>
   146d5:	0f b6 05 0d b0 00 00 	movzbl 0xb00d(%rip),%eax        # 1f6e9 <g_169>
   146dc:	84 c0                	test   %al,%al
   146de:	0f 95 c0             	setne  %al
   146e1:	0f b6 d0             	movzbl %al,%edx
   146e4:	0f b6 85 dd f2 ff ff 	movzbl -0xd23(%rbp),%eax
   146eb:	0f b6 c0             	movzbl %al,%eax
   146ee:	89 d6                	mov    %edx,%esi
   146f0:	89 c7                	mov    %eax,%edi
   146f2:	e8 0e 5f ff ff       	callq  a605 <safe_sub_func_int32_t_s_s>
   146f7:	89 c2                	mov    %eax,%edx
   146f9:	48 8b 85 a8 f3 ff ff 	mov    -0xc58(%rbp),%rax
   14700:	0f b6 00             	movzbl (%rax),%eax
   14703:	89 c1                	mov    %eax,%ecx
   14705:	89 d0                	mov    %edx,%eax
   14707:	21 c1                	and    %eax,%ecx
   14709:	89 ca                	mov    %ecx,%edx
   1470b:	48 8b 85 a8 f3 ff ff 	mov    -0xc58(%rbp),%rax
   14712:	88 10                	mov    %dl,(%rax)
   14714:	0f b6 00             	movzbl (%rax),%eax
   14717:	84 c0                	test   %al,%al
   14719:	0f 94 c0             	sete   %al
   1471c:	89 c2                	mov    %eax,%edx
   1471e:	48 8b 85 d8 f3 ff ff 	mov    -0xc28(%rbp),%rax
   14725:	88 10                	mov    %dl,(%rax)
   14727:	48 8b 85 d8 f3 ff ff 	mov    -0xc28(%rbp),%rax
   1472e:	0f b6 00             	movzbl (%rax),%eax
   14731:	0f be d0             	movsbl %al,%edx
   14734:	8b 85 e8 f2 ff ff    	mov    -0xd18(%rbp),%eax
   1473a:	31 d0                	xor    %edx,%eax
   1473c:	89 85 e8 f2 ff ff    	mov    %eax,-0xd18(%rbp)
   14742:	8b 95 e8 f2 ff ff    	mov    -0xd18(%rbp),%edx
   14748:	0f b7 05 7d fb 00 00 	movzwl 0xfb7d(%rip),%eax        # 242cc <g_49>
   1474f:	0f b7 c0             	movzwl %ax,%eax
   14752:	39 c2                	cmp    %eax,%edx
   14754:	0f 85 b3 0f 00 00    	jne    1570d <func_52+0x1232>
   1475a:	48 8d 05 88 af 00 00 	lea    0xaf88(%rip),%rax        # 1f6e9 <g_169>
   14761:	48 89 85 88 f4 ff ff 	mov    %rax,-0xb78(%rbp)
   14768:	c7 85 f8 f2 ff ff 33 	movl   $0xf372e633,-0xd08(%rbp)
   1476f:	e6 72 f3 
   14772:	c7 85 10 f7 ff ff 01 	movl   $0x1,-0x8f0(%rbp)
   14779:	00 00 00 
   1477c:	c7 85 14 f7 ff ff 01 	movl   $0x1,-0x8ec(%rbp)
   14783:	00 00 00 
   14786:	c7 85 18 f7 ff ff 99 	movl   $0x61ed4099,-0x8e8(%rbp)
   1478d:	40 ed 61 
   14790:	c7 85 1c f7 ff ff 99 	movl   $0x61ed4099,-0x8e4(%rbp)
   14797:	40 ed 61 
   1479a:	c7 85 20 f7 ff ff 01 	movl   $0x1,-0x8e0(%rbp)
   147a1:	00 00 00 
   147a4:	c7 85 24 f7 ff ff 01 	movl   $0x1,-0x8dc(%rbp)
   147ab:	00 00 00 
   147ae:	c7 85 28 f7 ff ff 99 	movl   $0x61ed4099,-0x8d8(%rbp)
   147b5:	40 ed 61 
   147b8:	c7 85 2c f7 ff ff 99 	movl   $0x61ed4099,-0x8d4(%rbp)
   147bf:	40 ed 61 
   147c2:	c7 85 30 f7 ff ff 01 	movl   $0x1,-0x8d0(%rbp)
   147c9:	00 00 00 
   147cc:	c7 85 34 f7 ff ff 01 	movl   $0x1,-0x8cc(%rbp)
   147d3:	00 00 00 
   147d6:	c7 85 38 f7 ff ff 99 	movl   $0x61ed4099,-0x8c8(%rbp)
   147dd:	40 ed 61 
   147e0:	c7 85 3c f7 ff ff 99 	movl   $0x61ed4099,-0x8c4(%rbp)
   147e7:	40 ed 61 
   147ea:	c7 85 40 f7 ff ff 01 	movl   $0x1,-0x8c0(%rbp)
   147f1:	00 00 00 
   147f4:	c7 85 44 f7 ff ff 01 	movl   $0x1,-0x8bc(%rbp)
   147fb:	00 00 00 
   147fe:	c7 85 48 f7 ff ff 99 	movl   $0x61ed4099,-0x8b8(%rbp)
   14805:	40 ed 61 
   14808:	c7 85 4c f7 ff ff 99 	movl   $0x61ed4099,-0x8b4(%rbp)
   1480f:	40 ed 61 
   14812:	c7 85 50 f7 ff ff 01 	movl   $0x1,-0x8b0(%rbp)
   14819:	00 00 00 
   1481c:	c7 85 54 f7 ff ff 01 	movl   $0x1,-0x8ac(%rbp)
   14823:	00 00 00 
   14826:	c7 85 58 f7 ff ff 99 	movl   $0x61ed4099,-0x8a8(%rbp)
   1482d:	40 ed 61 
   14830:	c7 85 5c f7 ff ff 99 	movl   $0x61ed4099,-0x8a4(%rbp)
   14837:	40 ed 61 
   1483a:	c7 85 60 f7 ff ff 01 	movl   $0x1,-0x8a0(%rbp)
   14841:	00 00 00 
   14844:	c7 85 64 f7 ff ff 01 	movl   $0x1,-0x89c(%rbp)
   1484b:	00 00 00 
   1484e:	c7 85 68 f7 ff ff 99 	movl   $0x61ed4099,-0x898(%rbp)
   14855:	40 ed 61 
   14858:	c7 85 6c f7 ff ff 99 	movl   $0x61ed4099,-0x894(%rbp)
   1485f:	40 ed 61 
   14862:	c7 85 70 f7 ff ff 01 	movl   $0x1,-0x890(%rbp)
   14869:	00 00 00 
   1486c:	c7 85 74 f7 ff ff 01 	movl   $0x1,-0x88c(%rbp)
   14873:	00 00 00 
   14876:	c7 85 78 f7 ff ff 99 	movl   $0x61ed4099,-0x888(%rbp)
   1487d:	40 ed 61 
   14880:	c7 85 7c f7 ff ff 99 	movl   $0x61ed4099,-0x884(%rbp)
   14887:	40 ed 61 
   1488a:	c7 85 80 f7 ff ff 01 	movl   $0x1,-0x880(%rbp)
   14891:	00 00 00 
   14894:	c7 85 84 f7 ff ff 01 	movl   $0x1,-0x87c(%rbp)
   1489b:	00 00 00 
   1489e:	c7 85 88 f7 ff ff 99 	movl   $0x61ed4099,-0x878(%rbp)
   148a5:	40 ed 61 
   148a8:	c7 85 8c f7 ff ff 99 	movl   $0x61ed4099,-0x874(%rbp)
   148af:	40 ed 61 
   148b2:	c7 85 90 f7 ff ff 01 	movl   $0x1,-0x870(%rbp)
   148b9:	00 00 00 
   148bc:	c7 85 94 f7 ff ff 01 	movl   $0x1,-0x86c(%rbp)
   148c3:	00 00 00 
   148c6:	c7 85 98 f7 ff ff 99 	movl   $0x61ed4099,-0x868(%rbp)
   148cd:	40 ed 61 
   148d0:	c7 85 9c f7 ff ff 99 	movl   $0x61ed4099,-0x864(%rbp)
   148d7:	40 ed 61 
   148da:	c7 85 a0 f7 ff ff 01 	movl   $0x1,-0x860(%rbp)
   148e1:	00 00 00 
   148e4:	c7 85 a4 f7 ff ff 01 	movl   $0x1,-0x85c(%rbp)
   148eb:	00 00 00 
   148ee:	c7 85 a8 f7 ff ff 99 	movl   $0x61ed4099,-0x858(%rbp)
   148f5:	40 ed 61 
   148f8:	c7 85 ac f7 ff ff 99 	movl   $0x61ed4099,-0x854(%rbp)
   148ff:	40 ed 61 
   14902:	48 8d 85 b0 f3 ff ff 	lea    -0xc50(%rbp),%rax
   14909:	48 89 85 c0 f3 ff ff 	mov    %rax,-0xc40(%rbp)
   14910:	66 c7 05 b3 f9 00 00 	movw   $0xffe8,0xf9b3(%rip)        # 242cc <g_49>
   14917:	e8 ff 
   14919:	e9 d9 0d 00 00       	jmpq   156f7 <func_52+0x121c>
   1491e:	48 8d 85 a0 f3 ff ff 	lea    -0xc60(%rbp),%rax
   14925:	48 89 85 c0 f6 ff ff 	mov    %rax,-0x940(%rbp)
   1492c:	48 c7 85 c8 f6 ff ff 	movq   $0x0,-0x938(%rbp)
   14933:	00 00 00 00 
   14937:	48 8d 85 a8 f3 ff ff 	lea    -0xc58(%rbp),%rax
   1493e:	48 89 85 d0 f6 ff ff 	mov    %rax,-0x930(%rbp)
   14945:	48 c7 85 d8 f6 ff ff 	movq   $0x0,-0x928(%rbp)
   1494c:	00 00 00 00 
   14950:	48 8d 85 a0 f3 ff ff 	lea    -0xc60(%rbp),%rax
   14957:	48 89 85 e0 f6 ff ff 	mov    %rax,-0x920(%rbp)
   1495e:	48 8d 85 a0 f3 ff ff 	lea    -0xc60(%rbp),%rax
   14965:	48 89 85 e8 f6 ff ff 	mov    %rax,-0x918(%rbp)
   1496c:	48 c7 85 f0 f6 ff ff 	movq   $0x0,-0x910(%rbp)
   14973:	00 00 00 00 
   14977:	48 8d 85 a8 f3 ff ff 	lea    -0xc58(%rbp),%rax
   1497e:	48 89 85 f8 f6 ff ff 	mov    %rax,-0x908(%rbp)
   14985:	48 c7 85 00 f7 ff ff 	movq   $0x0,-0x900(%rbp)
   1498c:	00 00 00 00 
   14990:	48 8d 85 a0 f3 ff ff 	lea    -0xc60(%rbp),%rax
   14997:	48 89 85 08 f7 ff ff 	mov    %rax,-0x8f8(%rbp)
   1499e:	48 8d 05 27 a7 00 00 	lea    0xa727(%rip),%rax        # 1f0cc <g_7>
   149a5:	48 89 85 90 f4 ff ff 	mov    %rax,-0xb70(%rbp)
   149ac:	48 c7 85 c8 f3 ff ff 	movq   $0x0,-0xc38(%rbp)
   149b3:	00 00 00 00 
   149b7:	c7 85 78 f3 ff ff ff 	movl   $0xffffffff,-0xc88(%rbp)
   149be:	ff ff ff 
   149c1:	c7 85 04 f3 ff ff 59 	movl   $0x5c54ac59,-0xcfc(%rbp)
   149c8:	ac 54 5c 
   149cb:	c7 85 7c f3 ff ff 01 	movl   $0x1,-0xc84(%rbp)
   149d2:	00 00 00 
   149d5:	c7 85 80 f3 ff ff 8d 	movl   $0x7ad8558d,-0xc80(%rbp)
   149dc:	55 d8 7a 
   149df:	c7 85 84 f3 ff ff ab 	movl   $0xfc5627ab,-0xc7c(%rbp)
   149e6:	27 56 fc 
   149e9:	c7 85 88 f3 ff ff 06 	movl   $0x6,-0xc78(%rbp)
   149f0:	00 00 00 
   149f3:	c7 85 8c f3 ff ff fb 	movl   $0xfffffffb,-0xc74(%rbp)
   149fa:	ff ff ff 
   149fd:	c7 85 90 f3 ff ff ff 	movl   $0xffffffff,-0xc70(%rbp)
   14a04:	ff ff ff 
   14a07:	66 c7 85 e2 f2 ff ff 	movw   $0x2ad4,-0xd1e(%rbp)
   14a0e:	d4 2a 
   14a10:	8b 85 f8 f2 ff ff    	mov    -0xd08(%rbp),%eax
   14a16:	48 8b 95 b8 f2 ff ff 	mov    -0xd48(%rbp),%rdx
   14a1d:	89 c6                	mov    %eax,%esi
   14a1f:	89 d7                	mov    %edx,%edi
   14a21:	e8 d9 5c ff ff       	callq  a6ff <safe_div_func_int32_t_s_s>
   14a26:	89 c2                	mov    %eax,%edx
   14a28:	48 8b 85 88 f4 ff ff 	mov    -0xb78(%rbp),%rax
   14a2f:	48 89 85 a0 f3 ff ff 	mov    %rax,-0xc60(%rbp)
   14a36:	48 8b 8d a0 f3 ff ff 	mov    -0xc60(%rbp),%rcx
   14a3d:	48 8d 85 dd f2 ff ff 	lea    -0xd23(%rbp),%rax
   14a44:	48 39 c1             	cmp    %rax,%rcx
   14a47:	0f 95 c0             	setne  %al
   14a4a:	0f b6 c8             	movzbl %al,%ecx
   14a4d:	0f b7 05 78 f8 00 00 	movzwl 0xf878(%rip),%eax        # 242cc <g_49>
   14a54:	0f b7 c0             	movzwl %ax,%eax
   14a57:	39 c1                	cmp    %eax,%ecx
   14a59:	0f 9c c0             	setl   %al
   14a5c:	0f b6 c0             	movzbl %al,%eax
   14a5f:	89 d6                	mov    %edx,%esi
   14a61:	89 c7                	mov    %eax,%edi
   14a63:	e8 e0 63 ff ff       	callq  ae48 <safe_rshift_func_uint16_t_u_s>
   14a68:	0f b7 d0             	movzwl %ax,%edx
   14a6b:	48 8b 85 90 f4 ff ff 	mov    -0xb70(%rbp),%rax
   14a72:	89 10                	mov    %edx,(%rax)
   14a74:	48 8b 85 90 f4 ff ff 	mov    -0xb70(%rbp),%rax
   14a7b:	8b 00                	mov    (%rax),%eax
   14a7d:	85 c0                	test   %eax,%eax
   14a7f:	0f 84 be 04 00 00    	je     14f43 <func_52+0xa68>
   14a85:	66 c7 85 e6 f2 ff ff 	movw   $0x1b2d,-0xd1a(%rbp)
   14a8c:	2d 1b 
   14a8e:	48 8d 85 e8 f2 ff ff 	lea    -0xd18(%rbp),%rax
   14a95:	48 89 85 d0 f4 ff ff 	mov    %rax,-0xb30(%rbp)
   14a9c:	48 c7 85 d8 f4 ff ff 	movq   $0xfffffffffffffff6,-0xb28(%rbp)
   14aa3:	f6 ff ff ff 
   14aa7:	48 8d 85 e8 f2 ff ff 	lea    -0xd18(%rbp),%rax
   14aae:	48 89 85 e0 f4 ff ff 	mov    %rax,-0xb20(%rbp)
   14ab5:	48 8d 05 10 a6 00 00 	lea    0xa610(%rip),%rax        # 1f0cc <g_7>
   14abc:	48 89 85 e8 f4 ff ff 	mov    %rax,-0xb18(%rbp)
   14ac3:	48 c7 85 f0 f4 ff ff 	movq   $0x0,-0xb10(%rbp)
   14aca:	00 00 00 00 
   14ace:	48 8d 85 e8 f2 ff ff 	lea    -0xd18(%rbp),%rax
   14ad5:	48 89 85 f8 f4 ff ff 	mov    %rax,-0xb08(%rbp)
   14adc:	48 8d 85 e8 f2 ff ff 	lea    -0xd18(%rbp),%rax
   14ae3:	48 89 85 00 f5 ff ff 	mov    %rax,-0xb00(%rbp)
   14aea:	48 8d 85 e8 f2 ff ff 	lea    -0xd18(%rbp),%rax
   14af1:	48 89 85 08 f5 ff ff 	mov    %rax,-0xaf8(%rbp)
   14af8:	48 8d 05 cd a5 00 00 	lea    0xa5cd(%rip),%rax        # 1f0cc <g_7>
   14aff:	48 89 85 10 f5 ff ff 	mov    %rax,-0xaf0(%rbp)
   14b06:	48 8d 05 bf a5 00 00 	lea    0xa5bf(%rip),%rax        # 1f0cc <g_7>
   14b0d:	48 89 85 18 f5 ff ff 	mov    %rax,-0xae8(%rbp)
   14b14:	48 8d 85 e8 f2 ff ff 	lea    -0xd18(%rbp),%rax
   14b1b:	48 89 85 20 f5 ff ff 	mov    %rax,-0xae0(%rbp)
   14b22:	48 8d 85 e8 f2 ff ff 	lea    -0xd18(%rbp),%rax
   14b29:	48 89 85 28 f5 ff ff 	mov    %rax,-0xad8(%rbp)
   14b30:	48 8d 05 95 a5 00 00 	lea    0xa595(%rip),%rax        # 1f0cc <g_7>
   14b37:	48 89 85 30 f5 ff ff 	mov    %rax,-0xad0(%rbp)
   14b3e:	48 c7 85 38 f5 ff ff 	movq   $0x0,-0xac8(%rbp)
   14b45:	00 00 00 00 
   14b49:	48 8d 05 7c a5 00 00 	lea    0xa57c(%rip),%rax        # 1f0cc <g_7>
   14b50:	48 89 85 40 f5 ff ff 	mov    %rax,-0xac0(%rbp)
   14b57:	48 8d 85 e8 f2 ff ff 	lea    -0xd18(%rbp),%rax
   14b5e:	48 89 85 48 f5 ff ff 	mov    %rax,-0xab8(%rbp)
   14b65:	48 8d 05 60 a5 00 00 	lea    0xa560(%rip),%rax        # 1f0cc <g_7>
   14b6c:	48 89 85 50 f5 ff ff 	mov    %rax,-0xab0(%rbp)
   14b73:	48 8d 85 e8 f2 ff ff 	lea    -0xd18(%rbp),%rax
   14b7a:	48 89 85 58 f5 ff ff 	mov    %rax,-0xaa8(%rbp)
   14b81:	48 8d 85 e8 f2 ff ff 	lea    -0xd18(%rbp),%rax
   14b88:	48 89 85 60 f5 ff ff 	mov    %rax,-0xaa0(%rbp)
   14b8f:	48 c7 85 68 f5 ff ff 	movq   $0x0,-0xa98(%rbp)
   14b96:	00 00 00 00 
   14b9a:	48 8d 05 2b a5 00 00 	lea    0xa52b(%rip),%rax        # 1f0cc <g_7>
   14ba1:	48 89 85 70 f5 ff ff 	mov    %rax,-0xa90(%rbp)
   14ba8:	48 c7 85 f0 f8 ff ff 	movq   $0x0,-0x710(%rbp)
   14baf:	00 00 00 00 
   14bb3:	48 8d 85 e8 f2 ff ff 	lea    -0xd18(%rbp),%rax
   14bba:	48 89 85 f8 f8 ff ff 	mov    %rax,-0x708(%rbp)
   14bc1:	48 8d 85 e8 f2 ff ff 	lea    -0xd18(%rbp),%rax
   14bc8:	48 89 85 00 f9 ff ff 	mov    %rax,-0x700(%rbp)
   14bcf:	48 c7 85 08 f9 ff ff 	movq   $0x0,-0x6f8(%rbp)
   14bd6:	00 00 00 00 
   14bda:	48 8d 85 e8 f2 ff ff 	lea    -0xd18(%rbp),%rax
   14be1:	48 89 85 10 f9 ff ff 	mov    %rax,-0x6f0(%rbp)
   14be8:	48 c7 85 18 f9 ff ff 	movq   $0x0,-0x6e8(%rbp)
   14bef:	00 00 00 00 
   14bf3:	48 8d 85 e8 f2 ff ff 	lea    -0xd18(%rbp),%rax
   14bfa:	48 89 85 20 f9 ff ff 	mov    %rax,-0x6e0(%rbp)
   14c01:	48 c7 85 28 f9 ff ff 	movq   $0x0,-0x6d8(%rbp)
   14c08:	00 00 00 00 
   14c0c:	48 8d 85 e8 f2 ff ff 	lea    -0xd18(%rbp),%rax
   14c13:	48 89 85 30 f9 ff ff 	mov    %rax,-0x6d0(%rbp)
   14c1a:	48 8d 85 e8 f2 ff ff 	lea    -0xd18(%rbp),%rax
   14c21:	48 89 85 38 f9 ff ff 	mov    %rax,-0x6c8(%rbp)
   14c28:	48 8d 85 e8 f2 ff ff 	lea    -0xd18(%rbp),%rax
   14c2f:	48 89 85 40 f9 ff ff 	mov    %rax,-0x6c0(%rbp)
   14c36:	48 8d 85 e8 f2 ff ff 	lea    -0xd18(%rbp),%rax
   14c3d:	48 89 85 48 f9 ff ff 	mov    %rax,-0x6b8(%rbp)
   14c44:	48 8d 05 81 a4 00 00 	lea    0xa481(%rip),%rax        # 1f0cc <g_7>
   14c4b:	48 89 85 50 f9 ff ff 	mov    %rax,-0x6b0(%rbp)
   14c52:	48 8d 85 e8 f2 ff ff 	lea    -0xd18(%rbp),%rax
   14c59:	48 89 85 58 f9 ff ff 	mov    %rax,-0x6a8(%rbp)
   14c60:	48 c7 85 60 f9 ff ff 	movq   $0x0,-0x6a0(%rbp)
   14c67:	00 00 00 00 
   14c6b:	48 8d 05 56 f6 00 00 	lea    0xf656(%rip),%rax        # 242c8 <g_3>
   14c72:	48 89 85 68 f9 ff ff 	mov    %rax,-0x698(%rbp)
   14c79:	48 8d 85 e8 f2 ff ff 	lea    -0xd18(%rbp),%rax
   14c80:	48 89 85 70 f9 ff ff 	mov    %rax,-0x690(%rbp)
   14c87:	48 8d 85 e8 f2 ff ff 	lea    -0xd18(%rbp),%rax
   14c8e:	48 89 85 78 f9 ff ff 	mov    %rax,-0x688(%rbp)
   14c95:	48 8d 85 e8 f2 ff ff 	lea    -0xd18(%rbp),%rax
   14c9c:	48 89 85 80 f9 ff ff 	mov    %rax,-0x680(%rbp)
   14ca3:	48 8d 85 e8 f2 ff ff 	lea    -0xd18(%rbp),%rax
   14caa:	48 89 85 88 f9 ff ff 	mov    %rax,-0x678(%rbp)
   14cb1:	48 8d 85 e8 f2 ff ff 	lea    -0xd18(%rbp),%rax
   14cb8:	48 89 85 90 f9 ff ff 	mov    %rax,-0x670(%rbp)
   14cbf:	48 8d 85 e8 f2 ff ff 	lea    -0xd18(%rbp),%rax
   14cc6:	48 89 85 98 f9 ff ff 	mov    %rax,-0x668(%rbp)
   14ccd:	48 c7 85 a0 f9 ff ff 	movq   $0x0,-0x660(%rbp)
   14cd4:	00 00 00 00 
   14cd8:	48 8d 05 ed a3 00 00 	lea    0xa3ed(%rip),%rax        # 1f0cc <g_7>
   14cdf:	48 89 85 a8 f9 ff ff 	mov    %rax,-0x658(%rbp)
   14ce6:	48 8d 05 df a3 00 00 	lea    0xa3df(%rip),%rax        # 1f0cc <g_7>
   14ced:	48 89 85 b0 f9 ff ff 	mov    %rax,-0x650(%rbp)
   14cf4:	48 8d 85 e8 f2 ff ff 	lea    -0xd18(%rbp),%rax
   14cfb:	48 89 85 b8 f9 ff ff 	mov    %rax,-0x648(%rbp)
   14d02:	48 8d 85 e8 f2 ff ff 	lea    -0xd18(%rbp),%rax
   14d09:	48 89 85 c0 f9 ff ff 	mov    %rax,-0x640(%rbp)
   14d10:	48 8d 85 e8 f2 ff ff 	lea    -0xd18(%rbp),%rax
   14d17:	48 89 85 c8 f9 ff ff 	mov    %rax,-0x638(%rbp)
   14d1e:	48 8d 85 e8 f2 ff ff 	lea    -0xd18(%rbp),%rax
   14d25:	48 89 85 d0 f9 ff ff 	mov    %rax,-0x630(%rbp)
   14d2c:	48 c7 85 d8 f9 ff ff 	movq   $0x0,-0x628(%rbp)
   14d33:	00 00 00 00 
   14d37:	48 8d 85 e8 f2 ff ff 	lea    -0xd18(%rbp),%rax
   14d3e:	48 89 85 e0 f9 ff ff 	mov    %rax,-0x620(%rbp)
   14d45:	48 8d 85 e8 f2 ff ff 	lea    -0xd18(%rbp),%rax
   14d4c:	48 89 85 e8 f9 ff ff 	mov    %rax,-0x618(%rbp)
   14d53:	48 8d 85 e8 f2 ff ff 	lea    -0xd18(%rbp),%rax
   14d5a:	48 89 85 f0 f9 ff ff 	mov    %rax,-0x610(%rbp)
   14d61:	48 c7 85 f8 f9 ff ff 	movq   $0x0,-0x608(%rbp)
   14d68:	00 00 00 00 
   14d6c:	48 8d 85 e8 f2 ff ff 	lea    -0xd18(%rbp),%rax
   14d73:	48 89 85 00 fa ff ff 	mov    %rax,-0x600(%rbp)
   14d7a:	48 8d 85 e8 f2 ff ff 	lea    -0xd18(%rbp),%rax
   14d81:	48 89 85 08 fa ff ff 	mov    %rax,-0x5f8(%rbp)
   14d88:	48 c7 85 10 fa ff ff 	movq   $0x0,-0x5f0(%rbp)
   14d8f:	00 00 00 00 
   14d93:	48 8d 85 e8 f2 ff ff 	lea    -0xd18(%rbp),%rax
   14d9a:	48 89 85 18 fa ff ff 	mov    %rax,-0x5e8(%rbp)
   14da1:	48 8d 05 24 a3 00 00 	lea    0xa324(%rip),%rax        # 1f0cc <g_7>
   14da8:	48 89 85 20 fa ff ff 	mov    %rax,-0x5e0(%rbp)
   14daf:	48 8d 05 16 a3 00 00 	lea    0xa316(%rip),%rax        # 1f0cc <g_7>
   14db6:	48 89 85 28 fa ff ff 	mov    %rax,-0x5d8(%rbp)
   14dbd:	48 8d 05 08 a3 00 00 	lea    0xa308(%rip),%rax        # 1f0cc <g_7>
   14dc4:	48 89 85 30 fa ff ff 	mov    %rax,-0x5d0(%rbp)
   14dcb:	48 8d 85 e8 f2 ff ff 	lea    -0xd18(%rbp),%rax
   14dd2:	48 89 85 38 fa ff ff 	mov    %rax,-0x5c8(%rbp)
   14dd9:	48 8d 85 e8 f2 ff ff 	lea    -0xd18(%rbp),%rax
   14de0:	48 89 85 40 fa ff ff 	mov    %rax,-0x5c0(%rbp)
   14de7:	48 8d 85 e8 f2 ff ff 	lea    -0xd18(%rbp),%rax
   14dee:	48 89 85 48 fa ff ff 	mov    %rax,-0x5b8(%rbp)
   14df5:	48 8d 05 cc f4 00 00 	lea    0xf4cc(%rip),%rax        # 242c8 <g_3>
   14dfc:	48 89 85 50 fa ff ff 	mov    %rax,-0x5b0(%rbp)
   14e03:	48 8d 85 e8 f2 ff ff 	lea    -0xd18(%rbp),%rax
   14e0a:	48 89 85 58 fa ff ff 	mov    %rax,-0x5a8(%rbp)
   14e11:	48 8d 85 e8 f2 ff ff 	lea    -0xd18(%rbp),%rax
   14e18:	48 89 85 60 fa ff ff 	mov    %rax,-0x5a0(%rbp)
   14e1f:	48 8d 05 a2 f4 00 00 	lea    0xf4a2(%rip),%rax        # 242c8 <g_3>
   14e26:	48 89 85 68 fa ff ff 	mov    %rax,-0x598(%rbp)
   14e2d:	48 8d 05 98 a2 00 00 	lea    0xa298(%rip),%rax        # 1f0cc <g_7>
   14e34:	48 89 85 70 fa ff ff 	mov    %rax,-0x590(%rbp)
   14e3b:	48 8d 85 e8 f2 ff ff 	lea    -0xd18(%rbp),%rax
   14e42:	48 89 85 78 fa ff ff 	mov    %rax,-0x588(%rbp)
   14e49:	48 8d 05 7c a2 00 00 	lea    0xa27c(%rip),%rax        # 1f0cc <g_7>
   14e50:	48 89 85 80 fa ff ff 	mov    %rax,-0x580(%rbp)
   14e57:	48 8d 85 e8 f2 ff ff 	lea    -0xd18(%rbp),%rax
   14e5e:	48 89 85 88 fa ff ff 	mov    %rax,-0x578(%rbp)
   14e65:	48 c7 85 90 fa ff ff 	movq   $0x0,-0x570(%rbp)
   14e6c:	00 00 00 00 
   14e70:	48 8d 85 e8 f2 ff ff 	lea    -0xd18(%rbp),%rax
   14e77:	48 89 85 98 fa ff ff 	mov    %rax,-0x568(%rbp)
   14e7e:	48 8d 85 e8 f2 ff ff 	lea    -0xd18(%rbp),%rax
   14e85:	48 89 85 a0 fa ff ff 	mov    %rax,-0x560(%rbp)
   14e8c:	48 c7 85 a8 fa ff ff 	movq   $0x0,-0x558(%rbp)
   14e93:	00 00 00 00 
   14e97:	48 b8 91 88 df e2 86 	movabs $0x964ae886e2df8891,%rax
   14e9e:	e8 4a 96 
   14ea1:	48 89 85 78 f5 ff ff 	mov    %rax,-0xa88(%rbp)
   14ea8:	c7 85 9c f3 ff ff ef 	movl   $0xf028b2ef,-0xc64(%rbp)
   14eaf:	b2 28 f0 
   14eb2:	48 8d 05 47 a8 00 00 	lea    0xa847(%rip),%rax        # 1f700 <g_264>
   14eb9:	48 89 85 d0 f3 ff ff 	mov    %rax,-0xc30(%rbp)
   14ec0:	48 8d 85 d0 f3 ff ff 	lea    -0xc30(%rbp),%rax
   14ec7:	48 89 85 80 f5 ff ff 	mov    %rax,-0xa80(%rbp)
   14ece:	c6 05 14 a8 00 00 00 	movb   $0x0,0xa814(%rip)        # 1f6e9 <g_169>
   14ed5:	eb 3c                	jmp    14f13 <func_52+0xa38>
   14ed7:	48 8d 85 c8 f3 ff ff 	lea    -0xc38(%rbp),%rax
   14ede:	48 89 85 88 f5 ff ff 	mov    %rax,-0xa78(%rbp)
   14ee5:	48 8b 95 c8 f3 ff ff 	mov    -0xc38(%rbp),%rdx
   14eec:	48 8b 85 88 f5 ff ff 	mov    -0xa78(%rbp),%rax
   14ef3:	48 89 10             	mov    %rdx,(%rax)
   14ef6:	0f b6 05 ec a7 00 00 	movzbl 0xa7ec(%rip),%eax        # 1f6e9 <g_169>
   14efd:	0f b6 c0             	movzbl %al,%eax
   14f00:	be 01 00 00 00       	mov    $0x1,%esi
   14f05:	48 89 c7             	mov    %rax,%rdi
   14f08:	e8 34 59 ff ff       	callq  a841 <safe_add_func_int64_t_s_s>
   14f0d:	88 05 d6 a7 00 00    	mov    %al,0xa7d6(%rip)        # 1f6e9 <g_169>
   14f13:	0f b6 05 cf a7 00 00 	movzbl 0xa7cf(%rip),%eax        # 1f6e9 <g_169>
   14f1a:	3c 19                	cmp    $0x19,%al
   14f1c:	77 b9                	ja     14ed7 <func_52+0x9fc>
   14f1e:	0f b7 85 e2 f2 ff ff 	movzwl -0xd1e(%rbp),%eax
   14f25:	83 c0 01             	add    $0x1,%eax
   14f28:	66 89 85 e2 f2 ff ff 	mov    %ax,-0xd1e(%rbp)
   14f2f:	ba 00 00 00 00       	mov    $0x0,%edx
   14f34:	48 8b 85 80 f5 ff ff 	mov    -0xa80(%rbp),%rax
   14f3b:	48 89 10             	mov    %rdx,(%rax)
   14f3e:	e9 97 07 00 00       	jmpq   156da <func_52+0x11ff>
   14f43:	c7 85 94 f3 ff ff fe 	movl   $0xfffffffe,-0xc6c(%rbp)
   14f4a:	ff ff ff 
   14f4d:	48 8d 85 e2 f2 ff ff 	lea    -0xd1e(%rbp),%rax
   14f54:	48 89 85 98 f4 ff ff 	mov    %rax,-0xb68(%rbp)
   14f5b:	c7 85 98 f3 ff ff 8e 	movl   $0x113f8e,-0xc68(%rbp)
   14f62:	3f 11 00 
   14f65:	48 8d 85 90 f6 ff ff 	lea    -0x970(%rbp),%rax
   14f6c:	48 89 85 f0 f8 ff ff 	mov    %rax,-0x710(%rbp)
   14f73:	48 8d 85 c0 f3 ff ff 	lea    -0xc40(%rbp),%rax
   14f7a:	48 89 85 f8 f8 ff ff 	mov    %rax,-0x708(%rbp)
   14f81:	48 c7 85 00 f9 ff ff 	movq   $0x0,-0x700(%rbp)
   14f88:	00 00 00 00 
   14f8c:	48 8d 85 90 f6 ff ff 	lea    -0x970(%rbp),%rax
   14f93:	48 89 85 08 f9 ff ff 	mov    %rax,-0x6f8(%rbp)
   14f9a:	48 8d 85 c0 f3 ff ff 	lea    -0xc40(%rbp),%rax
   14fa1:	48 89 85 10 f9 ff ff 	mov    %rax,-0x6f0(%rbp)
   14fa8:	48 8d 85 90 f6 ff ff 	lea    -0x970(%rbp),%rax
   14faf:	48 89 85 18 f9 ff ff 	mov    %rax,-0x6e8(%rbp)
   14fb6:	48 8d 85 90 f6 ff ff 	lea    -0x970(%rbp),%rax
   14fbd:	48 89 85 20 f9 ff ff 	mov    %rax,-0x6e0(%rbp)
   14fc4:	48 8d 85 90 f6 ff ff 	lea    -0x970(%rbp),%rax
   14fcb:	48 89 85 28 f9 ff ff 	mov    %rax,-0x6d8(%rbp)
   14fd2:	48 8d 85 90 f6 ff ff 	lea    -0x970(%rbp),%rax
   14fd9:	48 89 85 30 f9 ff ff 	mov    %rax,-0x6d0(%rbp)
   14fe0:	48 8d 85 c0 f3 ff ff 	lea    -0xc40(%rbp),%rax
   14fe7:	48 89 85 38 f9 ff ff 	mov    %rax,-0x6c8(%rbp)
   14fee:	48 8d 85 c0 f3 ff ff 	lea    -0xc40(%rbp),%rax
   14ff5:	48 89 85 40 f9 ff ff 	mov    %rax,-0x6c0(%rbp)
   14ffc:	48 8d 85 c0 f3 ff ff 	lea    -0xc40(%rbp),%rax
   15003:	48 89 85 48 f9 ff ff 	mov    %rax,-0x6b8(%rbp)
   1500a:	48 8d 85 c0 f3 ff ff 	lea    -0xc40(%rbp),%rax
   15011:	48 89 85 50 f9 ff ff 	mov    %rax,-0x6b0(%rbp)
   15018:	48 8d 85 c0 f3 ff ff 	lea    -0xc40(%rbp),%rax
   1501f:	48 89 85 58 f9 ff ff 	mov    %rax,-0x6a8(%rbp)
   15026:	48 8d 85 c0 f3 ff ff 	lea    -0xc40(%rbp),%rax
   1502d:	48 89 85 60 f9 ff ff 	mov    %rax,-0x6a0(%rbp)
   15034:	48 8d 85 c0 f3 ff ff 	lea    -0xc40(%rbp),%rax
   1503b:	48 89 85 68 f9 ff ff 	mov    %rax,-0x698(%rbp)
   15042:	48 8d 85 90 f6 ff ff 	lea    -0x970(%rbp),%rax
   15049:	48 89 85 70 f9 ff ff 	mov    %rax,-0x690(%rbp)
   15050:	48 8d 85 90 f6 ff ff 	lea    -0x970(%rbp),%rax
   15057:	48 89 85 78 f9 ff ff 	mov    %rax,-0x688(%rbp)
   1505e:	48 8d 85 c0 f3 ff ff 	lea    -0xc40(%rbp),%rax
   15065:	48 89 85 80 f9 ff ff 	mov    %rax,-0x680(%rbp)
   1506c:	48 8d 85 c0 f3 ff ff 	lea    -0xc40(%rbp),%rax
   15073:	48 89 85 88 f9 ff ff 	mov    %rax,-0x678(%rbp)
   1507a:	48 8d 85 c0 f3 ff ff 	lea    -0xc40(%rbp),%rax
   15081:	48 89 85 90 f9 ff ff 	mov    %rax,-0x670(%rbp)
   15088:	48 c7 85 98 f9 ff ff 	movq   $0x0,-0x668(%rbp)
   1508f:	00 00 00 00 
   15093:	48 8d 85 c0 f3 ff ff 	lea    -0xc40(%rbp),%rax
   1509a:	48 89 85 a0 f9 ff ff 	mov    %rax,-0x660(%rbp)
   150a1:	48 8d 85 90 f6 ff ff 	lea    -0x970(%rbp),%rax
   150a8:	48 89 85 a8 f9 ff ff 	mov    %rax,-0x658(%rbp)
   150af:	48 8d 85 c0 f3 ff ff 	lea    -0xc40(%rbp),%rax
   150b6:	48 89 85 b0 f9 ff ff 	mov    %rax,-0x650(%rbp)
   150bd:	48 8d 85 c0 f3 ff ff 	lea    -0xc40(%rbp),%rax
   150c4:	48 89 85 b8 f9 ff ff 	mov    %rax,-0x648(%rbp)
   150cb:	48 8d 85 c0 f3 ff ff 	lea    -0xc40(%rbp),%rax
   150d2:	48 89 85 c0 f9 ff ff 	mov    %rax,-0x640(%rbp)
   150d9:	48 8d 85 90 f6 ff ff 	lea    -0x970(%rbp),%rax
   150e0:	48 89 85 c8 f9 ff ff 	mov    %rax,-0x638(%rbp)
   150e7:	48 8d 85 c0 f3 ff ff 	lea    -0xc40(%rbp),%rax
   150ee:	48 89 85 d0 f9 ff ff 	mov    %rax,-0x630(%rbp)
   150f5:	48 8d 85 90 f6 ff ff 	lea    -0x970(%rbp),%rax
   150fc:	48 89 85 d8 f9 ff ff 	mov    %rax,-0x628(%rbp)
   15103:	48 8d 85 c0 f3 ff ff 	lea    -0xc40(%rbp),%rax
   1510a:	48 89 85 e0 f9 ff ff 	mov    %rax,-0x620(%rbp)
   15111:	48 8d 85 c0 f3 ff ff 	lea    -0xc40(%rbp),%rax
   15118:	48 89 85 e8 f9 ff ff 	mov    %rax,-0x618(%rbp)
   1511f:	48 c7 85 f0 f9 ff ff 	movq   $0x0,-0x610(%rbp)
   15126:	00 00 00 00 
   1512a:	48 c7 85 f8 f9 ff ff 	movq   $0x0,-0x608(%rbp)
   15131:	00 00 00 00 
   15135:	48 8d 85 90 f6 ff ff 	lea    -0x970(%rbp),%rax
   1513c:	48 89 85 00 fa ff ff 	mov    %rax,-0x600(%rbp)
   15143:	48 8d 85 c0 f3 ff ff 	lea    -0xc40(%rbp),%rax
   1514a:	48 89 85 08 fa ff ff 	mov    %rax,-0x5f8(%rbp)
   15151:	48 8d 85 c0 f3 ff ff 	lea    -0xc40(%rbp),%rax
   15158:	48 89 85 10 fa ff ff 	mov    %rax,-0x5f0(%rbp)
   1515f:	48 8d 85 c0 f3 ff ff 	lea    -0xc40(%rbp),%rax
   15166:	48 89 85 18 fa ff ff 	mov    %rax,-0x5e8(%rbp)
   1516d:	48 8d 85 c0 f3 ff ff 	lea    -0xc40(%rbp),%rax
   15174:	48 89 85 20 fa ff ff 	mov    %rax,-0x5e0(%rbp)
   1517b:	48 8d 85 c0 f3 ff ff 	lea    -0xc40(%rbp),%rax
   15182:	48 89 85 28 fa ff ff 	mov    %rax,-0x5d8(%rbp)
   15189:	48 8d 85 c0 f3 ff ff 	lea    -0xc40(%rbp),%rax
   15190:	48 89 85 30 fa ff ff 	mov    %rax,-0x5d0(%rbp)
   15197:	48 8d 85 c0 f3 ff ff 	lea    -0xc40(%rbp),%rax
   1519e:	48 89 85 38 fa ff ff 	mov    %rax,-0x5c8(%rbp)
   151a5:	48 8d 85 90 f6 ff ff 	lea    -0x970(%rbp),%rax
   151ac:	48 89 85 40 fa ff ff 	mov    %rax,-0x5c0(%rbp)
   151b3:	48 8d 85 90 f6 ff ff 	lea    -0x970(%rbp),%rax
   151ba:	48 89 85 48 fa ff ff 	mov    %rax,-0x5b8(%rbp)
   151c1:	48 8d 85 90 f6 ff ff 	lea    -0x970(%rbp),%rax
   151c8:	48 89 85 50 fa ff ff 	mov    %rax,-0x5b0(%rbp)
   151cf:	48 8d 85 90 f6 ff ff 	lea    -0x970(%rbp),%rax
   151d6:	48 89 85 58 fa ff ff 	mov    %rax,-0x5a8(%rbp)
   151dd:	48 8d 85 c0 f3 ff ff 	lea    -0xc40(%rbp),%rax
   151e4:	48 89 85 60 fa ff ff 	mov    %rax,-0x5a0(%rbp)
   151eb:	48 8d 85 90 f6 ff ff 	lea    -0x970(%rbp),%rax
   151f2:	48 89 85 68 fa ff ff 	mov    %rax,-0x598(%rbp)
   151f9:	48 8d 85 c0 f3 ff ff 	lea    -0xc40(%rbp),%rax
   15200:	48 89 85 70 fa ff ff 	mov    %rax,-0x590(%rbp)
   15207:	48 8d 85 c0 f3 ff ff 	lea    -0xc40(%rbp),%rax
   1520e:	48 89 85 78 fa ff ff 	mov    %rax,-0x588(%rbp)
   15215:	48 8d 85 90 f6 ff ff 	lea    -0x970(%rbp),%rax
   1521c:	48 89 85 80 fa ff ff 	mov    %rax,-0x580(%rbp)
   15223:	48 8d 85 c0 f3 ff ff 	lea    -0xc40(%rbp),%rax
   1522a:	48 89 85 88 fa ff ff 	mov    %rax,-0x578(%rbp)
   15231:	48 c7 85 90 fa ff ff 	movq   $0x0,-0x570(%rbp)
   15238:	00 00 00 00 
   1523c:	48 8d 85 c0 f3 ff ff 	lea    -0xc40(%rbp),%rax
   15243:	48 89 85 98 fa ff ff 	mov    %rax,-0x568(%rbp)
   1524a:	48 8d 85 90 f6 ff ff 	lea    -0x970(%rbp),%rax
   15251:	48 89 85 a0 fa ff ff 	mov    %rax,-0x560(%rbp)
   15258:	48 8d 85 c0 f3 ff ff 	lea    -0xc40(%rbp),%rax
   1525f:	48 89 85 a8 fa ff ff 	mov    %rax,-0x558(%rbp)
   15266:	48 8d 85 c0 f3 ff ff 	lea    -0xc40(%rbp),%rax
   1526d:	48 89 85 b0 fa ff ff 	mov    %rax,-0x550(%rbp)
   15274:	48 8d 85 90 f6 ff ff 	lea    -0x970(%rbp),%rax
   1527b:	48 89 85 b8 fa ff ff 	mov    %rax,-0x548(%rbp)
   15282:	48 8d 85 90 f6 ff ff 	lea    -0x970(%rbp),%rax
   15289:	48 89 85 c0 fa ff ff 	mov    %rax,-0x540(%rbp)
   15290:	48 8d 85 c0 f3 ff ff 	lea    -0xc40(%rbp),%rax
   15297:	48 89 85 c8 fa ff ff 	mov    %rax,-0x538(%rbp)
   1529e:	48 8d 85 90 f6 ff ff 	lea    -0x970(%rbp),%rax
   152a5:	48 89 85 d0 fa ff ff 	mov    %rax,-0x530(%rbp)
   152ac:	48 c7 85 d8 fa ff ff 	movq   $0x0,-0x528(%rbp)
   152b3:	00 00 00 00 
   152b7:	48 c7 85 e0 fa ff ff 	movq   $0x0,-0x520(%rbp)
   152be:	00 00 00 00 
   152c2:	48 8d 85 90 f6 ff ff 	lea    -0x970(%rbp),%rax
   152c9:	48 89 85 e8 fa ff ff 	mov    %rax,-0x518(%rbp)
   152d0:	48 8d 85 90 f6 ff ff 	lea    -0x970(%rbp),%rax
   152d7:	48 89 85 f0 fa ff ff 	mov    %rax,-0x510(%rbp)
   152de:	48 8d 85 c0 f3 ff ff 	lea    -0xc40(%rbp),%rax
   152e5:	48 89 85 f8 fa ff ff 	mov    %rax,-0x508(%rbp)
   152ec:	48 8d 85 90 f6 ff ff 	lea    -0x970(%rbp),%rax
   152f3:	48 89 85 00 fb ff ff 	mov    %rax,-0x500(%rbp)
   152fa:	48 8d 85 90 f6 ff ff 	lea    -0x970(%rbp),%rax
   15301:	48 89 85 08 fb ff ff 	mov    %rax,-0x4f8(%rbp)
   15308:	48 8d 85 90 f6 ff ff 	lea    -0x970(%rbp),%rax
   1530f:	48 89 85 10 fb ff ff 	mov    %rax,-0x4f0(%rbp)
   15316:	48 8d 85 90 f6 ff ff 	lea    -0x970(%rbp),%rax
   1531d:	48 89 85 18 fb ff ff 	mov    %rax,-0x4e8(%rbp)
   15324:	48 8d 85 90 f6 ff ff 	lea    -0x970(%rbp),%rax
   1532b:	48 89 85 20 fb ff ff 	mov    %rax,-0x4e0(%rbp)
   15332:	48 8d 85 c0 f3 ff ff 	lea    -0xc40(%rbp),%rax
   15339:	48 89 85 28 fb ff ff 	mov    %rax,-0x4d8(%rbp)
   15340:	48 8d 85 90 f6 ff ff 	lea    -0x970(%rbp),%rax
   15347:	48 89 85 30 fb ff ff 	mov    %rax,-0x4d0(%rbp)
   1534e:	48 c7 85 38 fb ff ff 	movq   $0x0,-0x4c8(%rbp)
   15355:	00 00 00 00 
   15359:	48 8d 85 c0 f3 ff ff 	lea    -0xc40(%rbp),%rax
   15360:	48 89 85 40 fb ff ff 	mov    %rax,-0x4c0(%rbp)
   15367:	48 8d 85 c0 f3 ff ff 	lea    -0xc40(%rbp),%rax
   1536e:	48 89 85 48 fb ff ff 	mov    %rax,-0x4b8(%rbp)
   15375:	48 8d 85 90 f6 ff ff 	lea    -0x970(%rbp),%rax
   1537c:	48 89 85 50 fb ff ff 	mov    %rax,-0x4b0(%rbp)
   15383:	48 8d 85 c0 f3 ff ff 	lea    -0xc40(%rbp),%rax
   1538a:	48 89 85 58 fb ff ff 	mov    %rax,-0x4a8(%rbp)
   15391:	48 8d 85 90 f6 ff ff 	lea    -0x970(%rbp),%rax
   15398:	48 89 85 60 fb ff ff 	mov    %rax,-0x4a0(%rbp)
   1539f:	48 8d 85 c0 f3 ff ff 	lea    -0xc40(%rbp),%rax
   153a6:	48 89 85 68 fb ff ff 	mov    %rax,-0x498(%rbp)
   153ad:	48 8d 85 90 f6 ff ff 	lea    -0x970(%rbp),%rax
   153b4:	48 89 85 70 fb ff ff 	mov    %rax,-0x490(%rbp)
   153bb:	48 8d 85 c0 f3 ff ff 	lea    -0xc40(%rbp),%rax
   153c2:	48 89 85 78 fb ff ff 	mov    %rax,-0x488(%rbp)
   153c9:	48 c7 85 80 fb ff ff 	movq   $0x0,-0x480(%rbp)
   153d0:	00 00 00 00 
   153d4:	48 8d 85 90 f6 ff ff 	lea    -0x970(%rbp),%rax
   153db:	48 89 85 88 fb ff ff 	mov    %rax,-0x478(%rbp)
   153e2:	48 8d 85 c0 f3 ff ff 	lea    -0xc40(%rbp),%rax
   153e9:	48 89 85 90 fb ff ff 	mov    %rax,-0x470(%rbp)
   153f0:	48 8d 85 90 f6 ff ff 	lea    -0x970(%rbp),%rax
   153f7:	48 89 85 98 fb ff ff 	mov    %rax,-0x468(%rbp)
   153fe:	48 8d 85 90 f6 ff ff 	lea    -0x970(%rbp),%rax
   15405:	48 89 85 a0 fb ff ff 	mov    %rax,-0x460(%rbp)
   1540c:	48 8d 85 90 f6 ff ff 	lea    -0x970(%rbp),%rax
   15413:	48 89 85 a8 fb ff ff 	mov    %rax,-0x458(%rbp)
   1541a:	48 8d 85 90 f6 ff ff 	lea    -0x970(%rbp),%rax
   15421:	48 89 85 b0 fb ff ff 	mov    %rax,-0x450(%rbp)
   15428:	48 8d 85 c0 f3 ff ff 	lea    -0xc40(%rbp),%rax
   1542f:	48 89 85 b8 fb ff ff 	mov    %rax,-0x448(%rbp)
   15436:	c7 85 08 f3 ff ff 00 	movl   $0x0,-0xcf8(%rbp)
   1543d:	00 00 00 
   15440:	eb 1e                	jmp    15460 <func_52+0xf85>
   15442:	8b 85 08 f3 ff ff    	mov    -0xcf8(%rbp),%eax
   15448:	48 98                	cltq   
   1544a:	48 8d 95 b0 f3 ff ff 	lea    -0xc50(%rbp),%rdx
   15451:	48 89 94 c5 90 f6 ff 	mov    %rdx,-0x970(%rbp,%rax,8)
   15458:	ff 
   15459:	83 85 08 f3 ff ff 01 	addl   $0x1,-0xcf8(%rbp)
   15460:	83 bd 08 f3 ff ff 02 	cmpl   $0x2,-0xcf8(%rbp)
   15467:	7e d9                	jle    15442 <func_52+0xf67>
   15469:	c7 85 04 f3 ff ff 00 	movl   $0x0,-0xcfc(%rbp)
   15470:	00 00 00 
   15473:	e9 c5 01 00 00       	jmpq   1563d <func_52+0x1162>
   15478:	c6 85 e1 f2 ff ff 8f 	movb   $0x8f,-0xd1f(%rbp)
   1547f:	c7 85 fc f2 ff ff ea 	movl   $0xffffffea,-0xd04(%rbp)
   15486:	ff ff ff 
   15489:	eb 27                	jmp    154b2 <func_52+0xfd7>
   1548b:	8b 85 94 f3 ff ff    	mov    -0xc6c(%rbp),%eax
   15491:	89 85 c4 f2 ff ff    	mov    %eax,-0xd3c(%rbp)
   15497:	8b 85 fc f2 ff ff    	mov    -0xd04(%rbp),%eax
   1549d:	48 98                	cltq   
   1549f:	be 01 00 00 00       	mov    $0x1,%esi
   154a4:	48 89 c7             	mov    %rax,%rdi
   154a7:	e8 82 5b ff ff       	callq  b02e <safe_add_func_uint64_t_u_u>
   154ac:	89 85 fc f2 ff ff    	mov    %eax,-0xd04(%rbp)
   154b2:	83 bd fc f2 ff ff 09 	cmpl   $0x9,-0xd04(%rbp)
   154b9:	7e d0                	jle    1548b <func_52+0xfb0>
   154bb:	c7 85 28 f3 ff ff 11 	movl   $0x11,-0xcd8(%rbp)
   154c2:	00 00 00 
   154c5:	83 bd 28 f3 ff ff 08 	cmpl   $0x8,-0xcd8(%rbp)
   154cc:	0f 84 51 01 00 00    	je     15623 <func_52+0x1148>
   154d2:	48 8d 85 f8 f2 ff ff 	lea    -0xd08(%rbp),%rax
   154d9:	48 89 85 a0 f4 ff ff 	mov    %rax,-0xb60(%rbp)
   154e0:	48 c7 85 a8 f4 ff ff 	movq   $0x0,-0xb58(%rbp)
   154e7:	00 00 00 00 
   154eb:	48 c7 85 b0 f4 ff ff 	movq   $0x0,-0xb50(%rbp)
   154f2:	00 00 00 00 
   154f6:	48 8d 05 13 a0 00 00 	lea    0xa013(%rip),%rax        # 1f510 <g_94+0x430>
   154fd:	48 89 85 b8 f4 ff ff 	mov    %rax,-0xb48(%rbp)
   15504:	48 8d 85 e2 f2 ff ff 	lea    -0xd1e(%rbp),%rax
   1550b:	48 89 85 c0 f4 ff ff 	mov    %rax,-0xb40(%rbp)
   15512:	48 8d 85 b0 f3 ff ff 	lea    -0xc50(%rbp),%rax
   15519:	48 89 85 c8 f4 ff ff 	mov    %rax,-0xb38(%rbp)
   15520:	0f b6 8d e1 f2 ff ff 	movzbl -0xd1f(%rbp),%ecx
   15527:	8b 95 f8 f2 ff ff    	mov    -0xd08(%rbp),%edx
   1552d:	48 8b 85 90 f4 ff ff 	mov    -0xb70(%rbp),%rax
   15534:	89 10                	mov    %edx,(%rax)
   15536:	48 8b 85 90 f4 ff ff 	mov    -0xb70(%rbp),%rax
   1553d:	8b 00                	mov    (%rax),%eax
   1553f:	39 c1                	cmp    %eax,%ecx
   15541:	41 0f 9f c4          	setg   %r12b
   15545:	0f b7 85 cc f2 ff ff 	movzwl -0xd34(%rbp),%eax
   1554c:	0f b7 d8             	movzwl %ax,%ebx
   1554f:	8b 05 73 ed 00 00    	mov    0xed73(%rip),%eax        # 242c8 <g_3>
   15555:	0f bf d0             	movswl %ax,%edx
   15558:	0f b6 85 e1 f2 ff ff 	movzbl -0xd1f(%rbp),%eax
   1555f:	89 d6                	mov    %edx,%esi
   15561:	89 c7                	mov    %eax,%edi
   15563:	e8 8d 4e ff ff       	callq  a3f5 <safe_mul_func_int16_t_s_s>
   15568:	0f bf d0             	movswl %ax,%edx
   1556b:	8b 85 c4 f2 ff ff    	mov    -0xd3c(%rbp),%eax
   15571:	09 d0                	or     %edx,%eax
   15573:	39 c3                	cmp    %eax,%ebx
   15575:	0f 9c c0             	setl   %al
   15578:	44 09 e0             	or     %r12d,%eax
   1557b:	0f b6 c0             	movzbl %al,%eax
   1557e:	39 85 94 f3 ff ff    	cmp    %eax,-0xc6c(%rbp)
   15584:	48 8b 85 a0 f4 ff ff 	mov    -0xb60(%rbp),%rax
   1558b:	c7 00 96 c7 3c ff    	movl   $0xff3cc796,(%rax)
   15591:	bf 01 00 00 00       	mov    $0x1,%edi
   15596:	e8 7e 5a ff ff       	callq  b019 <safe_unary_minus_func_uint64_t_u>
   1559b:	48 85 c0             	test   %rax,%rax
   1559e:	75 07                	jne    155a7 <func_52+0x10cc>
   155a0:	83 bd 94 f3 ff ff 00 	cmpl   $0x0,-0xc6c(%rbp)
   155a7:	0f b6 0d 3a a1 00 00 	movzbl 0xa13a(%rip),%ecx        # 1f6e8 <g_167>
   155ae:	48 8b 85 b8 f4 ff ff 	mov    -0xb48(%rbp),%rax
   155b5:	48 8b 10             	mov    (%rax),%rdx
   155b8:	0f b6 c1             	movzbl %cl,%eax
   155bb:	48 31 c2             	xor    %rax,%rdx
   155be:	48 8b 85 b8 f4 ff ff 	mov    -0xb48(%rbp),%rax
   155c5:	48 89 10             	mov    %rdx,(%rax)
   155c8:	48 8b 85 c0 f4 ff ff 	mov    -0xb40(%rbp),%rax
   155cf:	66 c7 00 ff ff       	movw   $0xffff,(%rax)
   155d4:	48 8b 85 c0 f4 ff ff 	mov    -0xb40(%rbp),%rax
   155db:	0f b7 00             	movzwl (%rax),%eax
   155de:	66 35 a4 f8          	xor    $0xf8a4,%ax
   155e2:	0f b7 c0             	movzwl %ax,%eax
   155e5:	89 85 c4 f2 ff ff    	mov    %eax,-0xd3c(%rbp)
   155eb:	48 8b 95 b0 f3 ff ff 	mov    -0xc50(%rbp),%rdx
   155f2:	48 8b 85 c8 f4 ff ff 	mov    -0xb38(%rbp),%rax
   155f9:	48 89 10             	mov    %rdx,(%rax)
   155fc:	48 8b 85 c8 f4 ff ff 	mov    -0xb38(%rbp),%rax
   15603:	48 8b 00             	mov    (%rax),%rax
   15606:	48 85 c0             	test   %rax,%rax
   15609:	0f 95 c0             	setne  %al
   1560c:	0f b6 d0             	movzbl %al,%edx
   1560f:	48 8b 85 90 f4 ff ff 	mov    -0xb70(%rbp),%rax
   15616:	89 10                	mov    %edx,(%rax)
   15618:	8b 85 fc f2 ff ff    	mov    -0xd04(%rbp),%eax
   1561e:	e9 39 11 00 00       	jmpq   1675c <func_52+0x2281>
   15623:	8b 85 04 f3 ff ff    	mov    -0xcfc(%rbp),%eax
   15629:	98                   	cwtl   
   1562a:	be 01 00 00 00       	mov    $0x1,%esi
   1562f:	89 c7                	mov    %eax,%edi
   15631:	e8 7d 4d ff ff       	callq  a3b3 <safe_add_func_int16_t_s_s>
   15636:	98                   	cwtl   
   15637:	89 85 04 f3 ff ff    	mov    %eax,-0xcfc(%rbp)
   1563d:	83 bd 04 f3 ff ff 05 	cmpl   $0x5,-0xcfc(%rbp)
   15644:	0f 8f 2e fe ff ff    	jg     15478 <func_52+0xf9d>
   1564a:	48 8b 85 90 f4 ff ff 	mov    -0xb70(%rbp),%rax
   15651:	8b 00                	mov    (%rax),%eax
   15653:	25 28 e5 17 3b       	and    $0x3b17e528,%eax
   15658:	89 c2                	mov    %eax,%edx
   1565a:	48 8b 85 90 f4 ff ff 	mov    -0xb70(%rbp),%rax
   15661:	89 10                	mov    %edx,(%rax)
   15663:	48 8b 85 90 f4 ff ff 	mov    -0xb70(%rbp),%rax
   1566a:	8b 00                	mov    (%rax),%eax
   1566c:	85 c0                	test   %eax,%eax
   1566e:	75 6a                	jne    156da <func_52+0x11ff>
   15670:	48 8b 85 b0 f3 ff ff 	mov    -0xc50(%rbp),%rax
   15677:	48 c7 00 00 00 00 00 	movq   $0x0,(%rax)
   1567e:	48 8b 00             	mov    (%rax),%rax
   15681:	48 39 85 98 f4 ff ff 	cmp    %rax,-0xb68(%rbp)
   15688:	48 8b 95 90 f6 ff ff 	mov    -0x970(%rbp),%rdx
   1568f:	48 8b 85 c0 f3 ff ff 	mov    -0xc40(%rbp),%rax
   15696:	48 39 c2             	cmp    %rax,%rdx
   15699:	0f 94 c0             	sete   %al
   1569c:	0f b6 c0             	movzbl %al,%eax
   1569f:	39 85 98 f3 ff ff    	cmp    %eax,-0xc68(%rbp)
   156a5:	48 8b 85 90 f6 ff ff 	mov    -0x970(%rbp),%rax
   156ac:	48 89 05 25 ec 00 00 	mov    %rax,0xec25(%rip)        # 242d8 <g_290>
   156b3:	0f b6 05 1a 9a 00 00 	movzbl 0x9a1a(%rip),%eax        # 1f0d4 <g_93>
   156ba:	84 c0                	test   %al,%al
   156bc:	0f 9f c0             	setg   %al
   156bf:	0f b6 d0             	movzbl %al,%edx
   156c2:	0f bf 85 c8 f2 ff ff 	movswl -0xd38(%rbp),%eax
   156c9:	39 c2                	cmp    %eax,%edx
   156cb:	0f 95 c0             	setne  %al
   156ce:	0f b6 d0             	movzbl %al,%edx
   156d1:	48 8b 85 90 f4 ff ff 	mov    -0xb70(%rbp),%rax
   156d8:	89 10                	mov    %edx,(%rax)
   156da:	0f b7 05 eb eb 00 00 	movzwl 0xebeb(%rip),%eax        # 242cc <g_49>
   156e1:	0f b7 c0             	movzwl %ax,%eax
   156e4:	be 01 00 00 00       	mov    $0x1,%esi
   156e9:	89 c7                	mov    %eax,%edi
   156eb:	e8 c8 57 ff ff       	callq  aeb8 <safe_add_func_uint32_t_u_u>
   156f0:	66 89 05 d5 eb 00 00 	mov    %ax,0xebd5(%rip)        # 242cc <g_49>
   156f7:	0f b7 05 ce eb 00 00 	movzwl 0xebce(%rip),%eax        # 242cc <g_49>
   156fe:	66 83 f8 29          	cmp    $0x29,%ax
   15702:	0f 85 16 f2 ff ff    	jne    1491e <func_52+0x443>
   15708:	e9 31 10 00 00       	jmpq   1673e <func_52+0x2263>
   1570d:	48 8d 85 a8 f3 ff ff 	lea    -0xc58(%rbp),%rax
   15714:	48 89 85 00 f4 ff ff 	mov    %rax,-0xc00(%rbp)
   1571b:	c7 85 38 f3 ff ff 04 	movl   $0x4,-0xcc8(%rbp)
   15722:	00 00 00 
   15725:	48 b8 90 98 d7 c1 f4 	movabs $0x719ea2f4c1d79890,%rax
   1572c:	a2 9e 71 
   1572f:	48 89 85 c0 f3 ff ff 	mov    %rax,-0xc40(%rbp)
   15736:	48 c7 85 c8 f3 ff ff 	movq   $0x0,-0xc38(%rbp)
   1573d:	00 00 00 00 
   15741:	48 8d 85 f0 f2 ff ff 	lea    -0xd10(%rbp),%rax
   15748:	48 89 85 d0 f3 ff ff 	mov    %rax,-0xc30(%rbp)
   1574f:	48 c7 85 08 f4 ff ff 	movq   $0x0,-0xbf8(%rbp)
   15756:	00 00 00 00 
   1575a:	48 8d 05 87 9f 00 00 	lea    0x9f87(%rip),%rax        # 1f6e8 <g_167>
   15761:	48 89 85 10 f4 ff ff 	mov    %rax,-0xbf0(%rbp)
   15768:	48 8d 85 f4 f2 ff ff 	lea    -0xd0c(%rbp),%rax
   1576f:	48 89 85 10 f7 ff ff 	mov    %rax,-0x8f0(%rbp)
   15776:	48 8d 85 f4 f2 ff ff 	lea    -0xd0c(%rbp),%rax
   1577d:	48 89 85 18 f7 ff ff 	mov    %rax,-0x8e8(%rbp)
   15784:	48 8d 85 f4 f2 ff ff 	lea    -0xd0c(%rbp),%rax
   1578b:	48 89 85 20 f7 ff ff 	mov    %rax,-0x8e0(%rbp)
   15792:	48 8d 85 f4 f2 ff ff 	lea    -0xd0c(%rbp),%rax
   15799:	48 89 85 28 f7 ff ff 	mov    %rax,-0x8d8(%rbp)
   157a0:	48 8d 85 f4 f2 ff ff 	lea    -0xd0c(%rbp),%rax
   157a7:	48 89 85 30 f7 ff ff 	mov    %rax,-0x8d0(%rbp)
   157ae:	48 8d 85 f4 f2 ff ff 	lea    -0xd0c(%rbp),%rax
   157b5:	48 89 85 38 f7 ff ff 	mov    %rax,-0x8c8(%rbp)
   157bc:	48 8d 85 f4 f2 ff ff 	lea    -0xd0c(%rbp),%rax
   157c3:	48 89 85 40 f7 ff ff 	mov    %rax,-0x8c0(%rbp)
   157ca:	48 8d 85 f4 f2 ff ff 	lea    -0xd0c(%rbp),%rax
   157d1:	48 89 85 48 f7 ff ff 	mov    %rax,-0x8b8(%rbp)
   157d8:	48 8d 85 f4 f2 ff ff 	lea    -0xd0c(%rbp),%rax
   157df:	48 89 85 50 f7 ff ff 	mov    %rax,-0x8b0(%rbp)
   157e6:	48 8d 85 f4 f2 ff ff 	lea    -0xd0c(%rbp),%rax
   157ed:	48 89 85 58 f7 ff ff 	mov    %rax,-0x8a8(%rbp)
   157f4:	48 8d 05 dd ea 00 00 	lea    0xeadd(%rip),%rax        # 242d8 <g_290>
   157fb:	48 89 85 18 f4 ff ff 	mov    %rax,-0xbe8(%rbp)
   15802:	48 8d 85 ec f2 ff ff 	lea    -0xd14(%rbp),%rax
   15809:	48 89 85 20 f4 ff ff 	mov    %rax,-0xbe0(%rbp)
   15810:	c6 85 df f2 ff ff 01 	movb   $0x1,-0xd21(%rbp)
   15817:	48 8d 85 10 f7 ff ff 	lea    -0x8f0(%rbp),%rax
   1581e:	48 89 85 30 f6 ff ff 	mov    %rax,-0x9d0(%rbp)
   15825:	48 8d 85 10 f7 ff ff 	lea    -0x8f0(%rbp),%rax
   1582c:	48 89 85 38 f6 ff ff 	mov    %rax,-0x9c8(%rbp)
   15833:	48 8d 85 10 f7 ff ff 	lea    -0x8f0(%rbp),%rax
   1583a:	48 89 85 40 f6 ff ff 	mov    %rax,-0x9c0(%rbp)
   15841:	48 8d 85 10 f7 ff ff 	lea    -0x8f0(%rbp),%rax
   15848:	48 89 85 48 f6 ff ff 	mov    %rax,-0x9b8(%rbp)
   1584f:	48 8d 85 10 f7 ff ff 	lea    -0x8f0(%rbp),%rax
   15856:	48 89 85 50 f6 ff ff 	mov    %rax,-0x9b0(%rbp)
   1585d:	c6 85 e0 f2 ff ff 08 	movb   $0x8,-0xd20(%rbp)
   15864:	8b 05 96 9e 00 00    	mov    0x9e96(%rip),%eax        # 1f700 <g_264>
   1586a:	0f bf d8             	movswl %ax,%ebx
   1586d:	48 8b 85 90 f8 ff ff 	mov    -0x770(%rbp),%rax
   15874:	41 89 c7             	mov    %eax,%r15d
   15877:	8b 85 c4 f2 ff ff    	mov    -0xd3c(%rbp),%eax
   1587d:	44 0f be e0          	movsbl %al,%r12d
   15881:	48 8b 85 00 f4 ff ff 	mov    -0xc00(%rbp),%rax
   15888:	48 8d 15 5a 9e 00 00 	lea    0x9e5a(%rip),%rdx        # 1f6e9 <g_169>
   1588f:	48 89 10             	mov    %rdx,(%rax)
   15892:	48 8b 85 b0 f2 ff ff 	mov    -0xd50(%rbp),%rax
   15899:	0f b7 c0             	movzwl %ax,%eax
   1589c:	be 00 00 00 00       	mov    $0x0,%esi
   158a1:	89 c7                	mov    %eax,%edi
   158a3:	e8 57 54 ff ff       	callq  acff <safe_add_func_uint16_t_u_u>
   158a8:	44 0f b7 f0          	movzwl %ax,%r14d
   158ac:	8b 85 c4 f2 ff ff    	mov    -0xd3c(%rbp),%eax
   158b2:	89 85 a8 f2 ff ff    	mov    %eax,-0xd58(%rbp)
   158b8:	44 8b ad 28 f3 ff ff 	mov    -0xcd8(%rbp),%r13d
   158bf:	8b 05 3b 9e 00 00    	mov    0x9e3b(%rip),%eax        # 1f700 <g_264>
   158c5:	89 c2                	mov    %eax,%edx
   158c7:	0f bf 85 c8 f2 ff ff 	movswl -0xd38(%rbp),%eax
   158ce:	89 d6                	mov    %edx,%esi
   158d0:	89 c7                	mov    %eax,%edi
   158d2:	e8 df 4c ff ff       	callq  a5b6 <safe_add_func_int32_t_s_s>
   158d7:	83 f8 01             	cmp    $0x1,%eax
   158da:	0f 97 c0             	seta   %al
   158dd:	0f b6 c0             	movzbl %al,%eax
   158e0:	44 89 ee             	mov    %r13d,%esi
   158e3:	89 c7                	mov    %eax,%edi
   158e5:	e8 1c 55 ff ff       	callq  ae06 <safe_lshift_func_uint16_t_u_u>
   158ea:	89 c2                	mov    %eax,%edx
   158ec:	8b 85 38 f3 ff ff    	mov    -0xcc8(%rbp),%eax
   158f2:	31 d0                	xor    %edx,%eax
   158f4:	98                   	cwtl   
   158f5:	8b b5 a8 f2 ff ff    	mov    -0xd58(%rbp),%esi
   158fb:	89 c7                	mov    %eax,%edi
   158fd:	e8 df 4b ff ff       	callq  a4e1 <safe_lshift_func_int16_t_s_u>
   15902:	8b 85 38 f3 ff ff    	mov    -0xcc8(%rbp),%eax
   15908:	0d 58 b3 00 00       	or     $0xb358,%eax
   1590d:	48 98                	cltq   
   1590f:	48 ba 3b 35 d3 29 e7 	movabs $0xa19d07e729d3353b,%rdx
   15916:	07 9d a1 
   15919:	48 39 d0             	cmp    %rdx,%rax
   1591c:	74 1c                	je     1593a <func_52+0x145f>
   1591e:	83 bd 38 f3 ff ff 00 	cmpl   $0x0,-0xcc8(%rbp)
   15925:	74 13                	je     1593a <func_52+0x145f>
   15927:	48 8b 85 c0 f3 ff ff 	mov    -0xc40(%rbp),%rax
   1592e:	48 85 c0             	test   %rax,%rax
   15931:	74 07                	je     1593a <func_52+0x145f>
   15933:	b8 01 00 00 00       	mov    $0x1,%eax
   15938:	eb 05                	jmp    1593f <func_52+0x1464>
   1593a:	b8 00 00 00 00       	mov    $0x0,%eax
   1593f:	98                   	cwtl   
   15940:	be ff ff ff ff       	mov    $0xffffffff,%esi
   15945:	89 c7                	mov    %eax,%edi
   15947:	e8 67 4a ff ff       	callq  a3b3 <safe_add_func_int16_t_s_s>
   1594c:	89 c2                	mov    %eax,%edx
   1594e:	48 8b 85 d0 f3 ff ff 	mov    -0xc30(%rbp),%rax
   15955:	0f bf d2             	movswl %dx,%edx
   15958:	89 10                	mov    %edx,(%rax)
   1595a:	48 8b 85 d0 f3 ff ff 	mov    -0xc30(%rbp),%rax
   15961:	8b 00                	mov    (%rax),%eax
   15963:	89 c2                	mov    %eax,%edx
   15965:	48 8b 85 b8 f2 ff ff 	mov    -0xd48(%rbp),%rax
   1596c:	31 d0                	xor    %edx,%eax
   1596e:	66 89 85 c8 f2 ff ff 	mov    %ax,-0xd38(%rbp)
   15975:	0f bf 85 c8 f2 ff ff 	movswl -0xd38(%rbp),%eax
   1597c:	41 39 c6             	cmp    %eax,%r14d
   1597f:	0f 9c c0             	setl   %al
   15982:	89 c2                	mov    %eax,%edx
   15984:	0f b7 85 cc f2 ff ff 	movzwl -0xd34(%rbp),%eax
   1598b:	21 d0                	and    %edx,%eax
   1598d:	0f be c0             	movsbl %al,%eax
   15990:	44 89 e6             	mov    %r12d,%esi
   15993:	89 c7                	mov    %eax,%edi
   15995:	e8 d0 48 ff ff       	callq  a26a <safe_div_func_int8_t_s_s>
   1599a:	66 98                	cbtw   
   1599c:	0f b7 c0             	movzwl %ax,%eax
   1599f:	44 89 fe             	mov    %r15d,%esi
   159a2:	89 c7                	mov    %eax,%edi
   159a4:	e8 15 54 ff ff       	callq  adbe <safe_lshift_func_uint16_t_u_s>
   159a9:	be 07 00 00 00       	mov    $0x7,%esi
   159ae:	bf 04 00 00 00       	mov    $0x4,%edi
   159b3:	e8 94 52 ff ff       	callq  ac4c <safe_lshift_func_uint8_t_u_u>
   159b8:	89 de                	mov    %ebx,%esi
   159ba:	bf 00 00 00 00       	mov    $0x0,%edi
   159bf:	e8 91 4a ff ff       	callq  a455 <safe_div_func_int16_t_s_s>
   159c4:	48 8b 85 08 f4 ff ff 	mov    -0xbf8(%rbp),%rax
   159cb:	48 3b 85 e0 f3 ff ff 	cmp    -0xc20(%rbp),%rax
   159d2:	0f 95 c0             	setne  %al
   159d5:	0f b6 d0             	movzbl %al,%edx
   159d8:	48 8b 85 10 f4 ff ff 	mov    -0xbf0(%rbp),%rax
   159df:	0f b6 00             	movzbl (%rax),%eax
   159e2:	89 c1                	mov    %eax,%ecx
   159e4:	89 d0                	mov    %edx,%eax
   159e6:	31 c8                	xor    %ecx,%eax
   159e8:	89 c2                	mov    %eax,%edx
   159ea:	48 8b 85 10 f4 ff ff 	mov    -0xbf0(%rbp),%rax
   159f1:	88 10                	mov    %dl,(%rax)
   159f3:	8b 85 28 f3 ff ff    	mov    -0xcd8(%rbp),%eax
   159f9:	48 98                	cltq   
   159fb:	48 39 85 b0 f2 ff ff 	cmp    %rax,-0xd50(%rbp)
   15a02:	0f 9d c0             	setge  %al
   15a05:	0f b6 d0             	movzbl %al,%edx
   15a08:	8b 05 02 9d 00 00    	mov    0x9d02(%rip),%eax        # 1f710 <g_319>
   15a0e:	21 d0                	and    %edx,%eax
   15a10:	89 05 fa 9c 00 00    	mov    %eax,0x9cfa(%rip)        # 1f710 <g_319>
   15a16:	c7 85 c4 f2 ff ff f6 	movl   $0xfffffff6,-0xd3c(%rbp)
   15a1d:	ff ff ff 
   15a20:	e9 0a 0d 00 00       	jmpq   1672f <func_52+0x2254>
   15a25:	66 c7 85 e4 f2 ff ff 	movw   $0xfff6,-0xd1c(%rbp)
   15a2c:	f6 ff 
   15a2e:	c7 85 0c f3 ff ff 01 	movl   $0x1,-0xcf4(%rbp)
   15a35:	00 00 00 
   15a38:	c7 85 3c f3 ff ff 9b 	movl   $0xba36459b,-0xcc4(%rbp)
   15a3f:	45 36 ba 
   15a42:	c7 85 40 f3 ff ff 01 	movl   $0x1,-0xcc0(%rbp)
   15a49:	00 00 00 
   15a4c:	c7 85 44 f3 ff ff 2d 	movl   $0x7710792d,-0xcbc(%rbp)
   15a53:	79 10 77 
   15a56:	c7 85 48 f3 ff ff 59 	movl   $0x2d9a9b59,-0xcb8(%rbp)
   15a5d:	9b 9a 2d 
   15a60:	c7 85 4c f3 ff ff 00 	movl   $0x0,-0xcb4(%rbp)
   15a67:	00 00 00 
   15a6a:	c7 85 50 f3 ff ff fe 	movl   $0xfffffffe,-0xcb0(%rbp)
   15a71:	ff ff ff 
   15a74:	c7 85 54 f3 ff ff 00 	movl   $0x0,-0xcac(%rbp)
   15a7b:	00 00 00 
   15a7e:	c7 85 f0 f5 ff ff 00 	movl   $0x0,-0xa10(%rbp)
   15a85:	00 00 00 
   15a88:	c7 85 f4 f5 ff ff fd 	movl   $0xd5d887fd,-0xa0c(%rbp)
   15a8f:	87 d8 d5 
   15a92:	c7 85 f8 f5 ff ff fd 	movl   $0xd5d887fd,-0xa08(%rbp)
   15a99:	87 d8 d5 
   15a9c:	c7 85 fc f5 ff ff 00 	movl   $0x0,-0xa04(%rbp)
   15aa3:	00 00 00 
   15aa6:	c7 85 00 f6 ff ff fd 	movl   $0xd5d887fd,-0xa00(%rbp)
   15aad:	87 d8 d5 
   15ab0:	c7 85 04 f6 ff ff 00 	movl   $0x0,-0x9fc(%rbp)
   15ab7:	00 00 00 
   15aba:	c7 85 08 f6 ff ff fd 	movl   $0xd5d887fd,-0x9f8(%rbp)
   15ac1:	87 d8 d5 
   15ac4:	c7 85 0c f6 ff ff fd 	movl   $0xd5d887fd,-0x9f4(%rbp)
   15acb:	87 d8 d5 
   15ace:	48 8d 05 0b 9c 00 00 	lea    0x9c0b(%rip),%rax        # 1f6e0 <g_112>
   15ad5:	48 89 85 28 f4 ff ff 	mov    %rax,-0xbd8(%rbp)
   15adc:	c7 85 58 f3 ff ff f6 	movl   $0xfffffff6,-0xca8(%rbp)
   15ae3:	ff ff ff 
   15ae6:	c7 85 10 f3 ff ff 00 	movl   $0x0,-0xcf0(%rbp)
   15aed:	00 00 00 
   15af0:	eb 14                	jmp    15b06 <func_52+0x162b>
   15af2:	8b 85 10 f3 ff ff    	mov    -0xcf0(%rbp),%eax
   15af8:	48 98                	cltq   
   15afa:	c6 44 05 b7 d9       	movb   $0xd9,-0x49(%rbp,%rax,1)
   15aff:	83 85 10 f3 ff ff 01 	addl   $0x1,-0xcf0(%rbp)
   15b06:	83 bd 10 f3 ff ff 07 	cmpl   $0x7,-0xcf0(%rbp)
   15b0d:	7e e3                	jle    15af2 <func_52+0x1617>
   15b0f:	c7 05 e7 9b 00 00 00 	movl   $0x0,0x9be7(%rip)        # 1f700 <g_264>
   15b16:	00 00 00 
   15b19:	e9 ac 0a 00 00       	jmpq   165ca <func_52+0x20ef>
   15b1e:	48 8d 05 93 c8 00 00 	lea    0xc893(%rip),%rax        # 223b8 <g_115+0x18>
   15b25:	48 89 85 30 f4 ff ff 	mov    %rax,-0xbd0(%rbp)
   15b2c:	c7 85 5c f3 ff ff 17 	movl   $0x5ebde517,-0xca4(%rbp)
   15b33:	e5 bd 5e 
   15b36:	66 c7 85 90 f5 ff ff 	movw   $0x65a1,-0xa70(%rbp)
   15b3d:	a1 65 
   15b3f:	66 c7 85 92 f5 ff ff 	movw   $0x65a1,-0xa6e(%rbp)
   15b46:	a1 65 
   15b48:	66 c7 85 94 f5 ff ff 	movw   $0x0,-0xa6c(%rbp)
   15b4f:	00 00 
   15b51:	66 c7 85 96 f5 ff ff 	movw   $0x65a1,-0xa6a(%rbp)
   15b58:	a1 65 
   15b5a:	66 c7 85 98 f5 ff ff 	movw   $0x65a1,-0xa68(%rbp)
   15b61:	a1 65 
   15b63:	66 c7 85 9a f5 ff ff 	movw   $0x0,-0xa66(%rbp)
   15b6a:	00 00 
   15b6c:	66 c7 85 9c f5 ff ff 	movw   $0x65a1,-0xa64(%rbp)
   15b73:	a1 65 
   15b75:	66 c7 85 9e f5 ff ff 	movw   $0x65a1,-0xa62(%rbp)
   15b7c:	a1 65 
   15b7e:	66 c7 85 a0 f5 ff ff 	movw   $0x0,-0xa60(%rbp)
   15b85:	00 00 
   15b87:	c7 85 60 f3 ff ff a4 	movl   $0xbbf9c2a4,-0xca0(%rbp)
   15b8e:	c2 f9 bb 
   15b91:	48 8d 85 b0 f3 ff ff 	lea    -0xc50(%rbp),%rax
   15b98:	48 89 85 60 f6 ff ff 	mov    %rax,-0x9a0(%rbp)
   15b9f:	48 8d 85 b0 f3 ff ff 	lea    -0xc50(%rbp),%rax
   15ba6:	48 89 85 68 f6 ff ff 	mov    %rax,-0x998(%rbp)
   15bad:	48 8d 85 b0 f3 ff ff 	lea    -0xc50(%rbp),%rax
   15bb4:	48 89 85 70 f6 ff ff 	mov    %rax,-0x990(%rbp)
   15bbb:	48 8d 85 b0 f3 ff ff 	lea    -0xc50(%rbp),%rax
   15bc2:	48 89 85 78 f6 ff ff 	mov    %rax,-0x988(%rbp)
   15bc9:	48 8d 85 b0 f3 ff ff 	lea    -0xc50(%rbp),%rax
   15bd0:	48 89 85 80 f6 ff ff 	mov    %rax,-0x980(%rbp)
   15bd7:	48 8d 85 b0 f3 ff ff 	lea    -0xc50(%rbp),%rax
   15bde:	48 89 85 88 f6 ff ff 	mov    %rax,-0x978(%rbp)
   15be5:	c7 85 64 f3 ff ff fc 	movl   $0xfffffffc,-0xc9c(%rbp)
   15bec:	ff ff ff 
   15bef:	c7 85 14 f3 ff ff 00 	movl   $0x0,-0xcec(%rbp)
   15bf6:	00 00 00 
   15bf9:	eb 1a                	jmp    15c15 <func_52+0x173a>
   15bfb:	8b 85 14 f3 ff ff    	mov    -0xcec(%rbp),%eax
   15c01:	48 98                	cltq   
   15c03:	c7 84 85 10 f6 ff ff 	movl   $0x4d2fd40,-0x9f0(%rbp,%rax,4)
   15c0a:	40 fd d2 04 
   15c0e:	83 85 14 f3 ff ff 01 	addl   $0x1,-0xcec(%rbp)
   15c15:	83 bd 14 f3 ff ff 07 	cmpl   $0x7,-0xcec(%rbp)
   15c1c:	7e dd                	jle    15bfb <func_52+0x1720>
   15c1e:	8b 05 dc 9a 00 00    	mov    0x9adc(%rip),%eax        # 1f700 <g_264>
   15c24:	8d 48 01             	lea    0x1(%rax),%ecx
   15c27:	8b 05 d3 9a 00 00    	mov    0x9ad3(%rip),%eax        # 1f700 <g_264>
   15c2d:	89 c2                	mov    %eax,%edx
   15c2f:	89 c8                	mov    %ecx,%eax
   15c31:	48 01 c0             	add    %rax,%rax
   15c34:	48 01 d0             	add    %rdx,%rax
   15c37:	48 8d 14 c5 00 00 00 	lea    0x0(,%rax,8),%rdx
   15c3e:	00 
   15c3f:	48 8d 05 5a c7 00 00 	lea    0xc75a(%rip),%rax        # 223a0 <g_115>
   15c46:	48 8d 0d 7f 94 00 00 	lea    0x947f(%rip),%rcx        # 1f0cc <g_7>
   15c4d:	48 89 0c 02          	mov    %rcx,(%rdx,%rax,1)
   15c51:	48 8b 85 30 f4 ff ff 	mov    -0xbd0(%rbp),%rax
   15c58:	48 8d 95 c4 f2 ff ff 	lea    -0xd3c(%rbp),%rdx
   15c5f:	48 89 10             	mov    %rdx,(%rax)
   15c62:	48 c7 05 73 9a 00 00 	movq   $0x0,0x9a73(%rip)        # 1f6e0 <g_112>
   15c69:	00 00 00 00 
   15c6d:	e9 4e 03 00 00       	jmpq   15fc0 <func_52+0x1ae5>
   15c72:	48 8d 85 f0 f8 ff ff 	lea    -0x710(%rbp),%rax
   15c79:	48 8d 15 a0 c4 00 00 	lea    0xc4a0(%rip),%rdx        # 22120 <g_2181+0x2160>
   15c80:	b9 50 00 00 00       	mov    $0x50,%ecx
   15c85:	48 89 c7             	mov    %rax,%rdi
   15c88:	48 89 d6             	mov    %rdx,%rsi
   15c8b:	f3 48 a5             	rep movsq %ds:(%rsi),%es:(%rdi)
   15c8e:	48 c7 85 70 f4 ff ff 	movq   $0x0,-0xb90(%rbp)
   15c95:	00 00 00 00 
   15c99:	48 c7 85 78 f4 ff ff 	movq   $0x0,-0xb88(%rbp)
   15ca0:	00 00 00 00 
   15ca4:	48 8d 05 3d e6 00 00 	lea    0xe63d(%rip),%rax        # 242e8 <g_328>
   15cab:	48 89 85 80 f4 ff ff 	mov    %rax,-0xb80(%rbp)
   15cb2:	66 83 ad e4 f2 ff ff 	subw   $0x1,-0xd1c(%rbp)
   15cb9:	01 
   15cba:	48 8b 15 1f 9a 00 00 	mov    0x9a1f(%rip),%rdx        # 1f6e0 <g_112>
   15cc1:	48 8b 05 18 9a 00 00 	mov    0x9a18(%rip),%rax        # 1f6e0 <g_112>
   15cc8:	48 8d 48 01          	lea    0x1(%rax),%rcx
   15ccc:	8b 05 2e 9a 00 00    	mov    0x9a2e(%rip),%eax        # 1f700 <g_264>
   15cd2:	89 c6                	mov    %eax,%esi
   15cd4:	48 89 d0             	mov    %rdx,%rax
   15cd7:	48 c1 e0 02          	shl    $0x2,%rax
   15cdb:	48 01 d0             	add    %rdx,%rax
   15cde:	48 01 c0             	add    %rax,%rax
   15ce1:	48 01 c8             	add    %rcx,%rax
   15ce4:	48 01 f0             	add    %rsi,%rax
   15ce7:	48 8b 84 c5 b0 f7 ff 	mov    -0x850(%rbp,%rax,8),%rax
   15cee:	ff 
   15cef:	48 85 c0             	test   %rax,%rax
   15cf2:	0f 84 0b 02 00 00    	je     15f03 <func_52+0x1a28>
   15cf8:	48 8d 85 c8 f3 ff ff 	lea    -0xc38(%rbp),%rax
   15cff:	48 89 85 c0 f6 ff ff 	mov    %rax,-0x940(%rbp)
   15d06:	48 8d 85 c8 f3 ff ff 	lea    -0xc38(%rbp),%rax
   15d0d:	48 89 85 c8 f6 ff ff 	mov    %rax,-0x938(%rbp)
   15d14:	48 8d 85 c8 f3 ff ff 	lea    -0xc38(%rbp),%rax
   15d1b:	48 89 85 d0 f6 ff ff 	mov    %rax,-0x930(%rbp)
   15d22:	48 8d 85 c8 f3 ff ff 	lea    -0xc38(%rbp),%rax
   15d29:	48 89 85 d8 f6 ff ff 	mov    %rax,-0x928(%rbp)
   15d30:	48 8d 85 c8 f3 ff ff 	lea    -0xc38(%rbp),%rax
   15d37:	48 89 85 e0 f6 ff ff 	mov    %rax,-0x920(%rbp)
   15d3e:	48 8d 85 c8 f3 ff ff 	lea    -0xc38(%rbp),%rax
   15d45:	48 89 85 e8 f6 ff ff 	mov    %rax,-0x918(%rbp)
   15d4c:	48 8d 85 c8 f3 ff ff 	lea    -0xc38(%rbp),%rax
   15d53:	48 89 85 f0 f6 ff ff 	mov    %rax,-0x910(%rbp)
   15d5a:	48 8d 85 c8 f3 ff ff 	lea    -0xc38(%rbp),%rax
   15d61:	48 89 85 f8 f6 ff ff 	mov    %rax,-0x908(%rbp)
   15d68:	48 8b 85 30 f4 ff ff 	mov    -0xbd0(%rbp),%rax
   15d6f:	48 8d 95 c4 f2 ff ff 	lea    -0xd3c(%rbp),%rdx
   15d76:	48 89 10             	mov    %rdx,(%rax)
   15d79:	48 8b 85 30 f4 ff ff 	mov    -0xbd0(%rbp),%rax
   15d80:	48 8b 00             	mov    (%rax),%rax
   15d83:	48 89 05 5e e5 00 00 	mov    %rax,0xe55e(%rip)        # 242e8 <g_328>
   15d8a:	48 8b 85 30 f4 ff ff 	mov    -0xbd0(%rbp),%rax
   15d91:	48 8d 95 c4 f2 ff ff 	lea    -0xd3c(%rbp),%rdx
   15d98:	48 89 10             	mov    %rdx,(%rax)
   15d9b:	8b 05 5f 99 00 00    	mov    0x995f(%rip),%eax        # 1f700 <g_264>
   15da1:	8d 48 01             	lea    0x1(%rax),%ecx
   15da4:	8b 05 56 99 00 00    	mov    0x9956(%rip),%eax        # 1f700 <g_264>
   15daa:	89 c2                	mov    %eax,%edx
   15dac:	89 c8                	mov    %ecx,%eax
   15dae:	48 01 c0             	add    %rax,%rax
   15db1:	48 01 d0             	add    %rdx,%rax
   15db4:	48 8d 14 c5 00 00 00 	lea    0x0(,%rax,8),%rdx
   15dbb:	00 
   15dbc:	48 8d 05 dd c5 00 00 	lea    0xc5dd(%rip),%rax        # 223a0 <g_115>
   15dc3:	48 01 d0             	add    %rdx,%rax
   15dc6:	48 89 85 a8 f2 ff ff 	mov    %rax,-0xd58(%rbp)
   15dcd:	0f b7 9d e4 f2 ff ff 	movzwl -0xd1c(%rbp),%ebx
   15dd4:	48 8b 05 05 99 00 00 	mov    0x9905(%rip),%rax        # 1f6e0 <g_112>
   15ddb:	89 85 c0 f2 ff ff    	mov    %eax,-0xd40(%rbp)
   15de1:	44 0f b7 ad e4 f2 ff 	movzwl -0xd1c(%rbp),%r13d
   15de8:	ff 
   15de9:	44 0f b7 a5 e4 f2 ff 	movzwl -0xd1c(%rbp),%r12d
   15df0:	ff 
   15df1:	8b 85 c4 f2 ff ff    	mov    -0xd3c(%rbp),%eax
   15df7:	4c 63 f0             	movslq %eax,%r14
   15dfa:	8b 85 fc f2 ff ff    	mov    -0xd04(%rbp),%eax
   15e00:	44 0f be f8          	movsbl %al,%r15d
   15e04:	48 8b 85 b0 f3 ff ff 	mov    -0xc50(%rbp),%rax
   15e0b:	48 8b 00             	mov    (%rax),%rax
   15e0e:	0f b7 10             	movzwl (%rax),%edx
   15e11:	83 c2 01             	add    $0x1,%edx
   15e14:	66 89 10             	mov    %dx,(%rax)
   15e17:	0f b7 00             	movzwl (%rax),%eax
   15e1a:	0f b7 d0             	movzwl %ax,%edx
   15e1d:	8b 85 c4 f2 ff ff    	mov    -0xd3c(%rbp),%eax
   15e23:	66 89 85 cc f2 ff ff 	mov    %ax,-0xd34(%rbp)
   15e2a:	0f b7 85 cc f2 ff ff 	movzwl -0xd34(%rbp),%eax
   15e31:	0f b7 c0             	movzwl %ax,%eax
   15e34:	89 d6                	mov    %edx,%esi
   15e36:	89 c7                	mov    %eax,%edi
   15e38:	e8 e2 4e ff ff       	callq  ad1f <safe_sub_func_uint16_t_u_u>
   15e3d:	0f b7 c0             	movzwl %ax,%eax
   15e40:	89 85 a4 f2 ff ff    	mov    %eax,-0xd5c(%rbp)
   15e46:	48 8b 85 b8 f2 ff ff 	mov    -0xd48(%rbp),%rax
   15e4d:	89 c2                	mov    %eax,%edx
   15e4f:	8b 85 5c f3 ff ff    	mov    -0xca4(%rbp),%eax
   15e55:	0f b7 c0             	movzwl %ax,%eax
   15e58:	89 d6                	mov    %edx,%esi
   15e5a:	89 c7                	mov    %eax,%edi
   15e5c:	e8 19 50 ff ff       	callq  ae7a <safe_rshift_func_uint16_t_u_u>
   15e61:	0f b7 d0             	movzwl %ax,%edx
   15e64:	8b 05 5e e4 00 00    	mov    0xe45e(%rip),%eax        # 242c8 <g_3>
   15e6a:	0f be c0             	movsbl %al,%eax
   15e6d:	89 d6                	mov    %edx,%esi
   15e6f:	89 c7                	mov    %eax,%edi
   15e71:	e8 2b 44 ff ff       	callq  a2a1 <safe_lshift_func_int8_t_s_s>
   15e76:	0f be d0             	movsbl %al,%edx
   15e79:	0f b7 05 9c 98 00 00 	movzwl 0x989c(%rip),%eax        # 1f71c <g_332+0x4>
   15e80:	98                   	cwtl   
   15e81:	21 d0                	and    %edx,%eax
   15e83:	23 85 a4 f2 ff ff    	and    -0xd5c(%rbp),%eax
   15e89:	89 c6                	mov    %eax,%esi
   15e8b:	bf 4a 54 f2 f3       	mov    $0xf3f2544a,%edi
   15e90:	e8 37 48 ff ff       	callq  a6cc <safe_mod_func_int32_t_s_s>
   15e95:	0f b7 15 7c 98 00 00 	movzwl 0x987c(%rip),%edx        # 1f718 <g_332>
   15e9c:	48 8b 85 00 f4 ff ff 	mov    -0xc00(%rbp),%rax
   15ea3:	48 8b 00             	mov    (%rax),%rax
   15ea6:	88 10                	mov    %dl,(%rax)
   15ea8:	44 89 fe             	mov    %r15d,%esi
   15eab:	bf 75 00 00 00       	mov    $0x75,%edi
   15eb0:	e8 b5 43 ff ff       	callq  a26a <safe_div_func_int8_t_s_s>
   15eb5:	48 0f be c0          	movsbq %al,%rax
   15eb9:	4c 89 f6             	mov    %r14,%rsi
   15ebc:	48 89 c7             	mov    %rax,%rdi
   15ebf:	e8 f0 4a ff ff       	callq  a9b4 <safe_mod_func_int64_t_s_s>
   15ec4:	98                   	cwtl   
   15ec5:	be 09 00 00 00       	mov    $0x9,%esi
   15eca:	89 c7                	mov    %eax,%edi
   15ecc:	e8 c1 45 ff ff       	callq  a492 <safe_lshift_func_int16_t_s_s>
   15ed1:	48 0f bf c0          	movswq %ax,%rax
   15ed5:	ba a7 7c 4e d3       	mov    $0xd34e7ca7,%edx
   15eda:	48 31 d0             	xor    %rdx,%rax
   15edd:	48 be 76 1a 88 95 a7 	movabs $0x57cbfba795881a76,%rsi
   15ee4:	fb cb 57 
   15ee7:	48 89 c7             	mov    %rax,%rdi
   15eea:	e8 b9 49 ff ff       	callq  a8a8 <safe_sub_func_int64_t_s_s>
   15eef:	98                   	cwtl   
   15ef0:	be b9 5e 00 00       	mov    $0x5eb9,%esi
   15ef5:	89 c7                	mov    %eax,%edi
   15ef7:	e8 59 45 ff ff       	callq  a455 <safe_div_func_int16_t_s_s>
   15efc:	66 85 c0             	test   %ax,%ax
   15eff:	74 26                	je     15f27 <func_52+0x1a4c>
   15f01:	eb 1d                	jmp    15f20 <func_52+0x1a45>
   15f03:	48 8b 85 30 f4 ff ff 	mov    -0xbd0(%rbp),%rax
   15f0a:	48 c7 00 00 00 00 00 	movq   $0x0,(%rax)
   15f11:	0f b7 85 cc f2 ff ff 	movzwl -0xd34(%rbp),%eax
   15f18:	0f b7 c0             	movzwl %ax,%eax
   15f1b:	e9 3c 08 00 00       	jmpq   1675c <func_52+0x2281>
   15f20:	bf 01 00 00 00       	mov    $0x1,%edi
   15f25:	eb 05                	jmp    15f2c <func_52+0x1a51>
   15f27:	bf 00 00 00 00       	mov    $0x0,%edi
   15f2c:	48 8d 95 d0 f3 ff ff 	lea    -0xc30(%rbp),%rdx
   15f33:	48 8b 85 20 f4 ff ff 	mov    -0xbe0(%rbp),%rax
   15f3a:	49 89 d0             	mov    %rdx,%r8
   15f3d:	44 89 e9             	mov    %r13d,%ecx
   15f40:	44 89 e2             	mov    %r12d,%edx
   15f43:	48 89 c6             	mov    %rax,%rsi
   15f46:	e8 27 e5 ff ff       	callq  14472 <func_40>
   15f4b:	49 89 c4             	mov    %rax,%r12
   15f4e:	48 83 bd b0 f2 ff ff 	cmpq   $0xfffffffffffffffe,-0xd50(%rbp)
   15f55:	fe 
   15f56:	0f 9c c0             	setl   %al
   15f59:	0f b6 c0             	movzbl %al,%eax
   15f5c:	66 89 85 c8 f2 ff ff 	mov    %ax,-0xd38(%rbp)
   15f63:	0f bf 85 c8 f2 ff ff 	movswl -0xd38(%rbp),%eax
   15f6a:	be 00 00 00 00       	mov    $0x0,%esi
   15f6f:	89 c7                	mov    %eax,%edi
   15f71:	e8 1c 45 ff ff       	callq  a492 <safe_lshift_func_int16_t_s_s>
   15f76:	98                   	cwtl   
   15f77:	4c 8b 85 a8 f2 ff ff 	mov    -0xd58(%rbp),%r8
   15f7e:	89 d9                	mov    %ebx,%ecx
   15f80:	8b 95 c0 f2 ff ff    	mov    -0xd40(%rbp),%edx
   15f86:	4c 89 e6             	mov    %r12,%rsi
   15f89:	89 c7                	mov    %eax,%edi
   15f8b:	e8 e2 e4 ff ff       	callq  14472 <func_40>
   15f90:	48 8b 95 30 f4 ff ff 	mov    -0xbd0(%rbp),%rdx
   15f97:	48 89 02             	mov    %rax,(%rdx)
   15f9a:	48 8b 85 30 f4 ff ff 	mov    -0xbd0(%rbp),%rax
   15fa1:	48 8b 10             	mov    (%rax),%rdx
   15fa4:	48 8b 85 80 f4 ff ff 	mov    -0xb80(%rbp),%rax
   15fab:	48 89 10             	mov    %rdx,(%rax)
   15fae:	48 8b 05 2b 97 00 00 	mov    0x972b(%rip),%rax        # 1f6e0 <g_112>
   15fb5:	48 83 c0 01          	add    $0x1,%rax
   15fb9:	48 89 05 20 97 00 00 	mov    %rax,0x9720(%rip)        # 1f6e0 <g_112>
   15fc0:	48 8b 05 19 97 00 00 	mov    0x9719(%rip),%rax        # 1f6e0 <g_112>
   15fc7:	48 83 f8 01          	cmp    $0x1,%rax
   15fcb:	0f 86 a1 fc ff ff    	jbe    15c72 <func_52+0x1797>
   15fd1:	c7 85 f4 f2 ff ff 00 	movl   $0x0,-0xd0c(%rbp)
   15fd8:	00 00 00 
   15fdb:	e9 3b 03 00 00       	jmpq   1631b <func_52+0x1e40>
   15fe0:	48 8d 85 a0 f3 ff ff 	lea    -0xc60(%rbp),%rax
   15fe7:	48 89 85 48 f4 ff ff 	mov    %rax,-0xbb8(%rbp)
   15fee:	c7 85 18 f3 ff ff 00 	movl   $0x0,-0xce8(%rbp)
   15ff5:	00 00 00 
   15ff8:	eb 1b                	jmp    16015 <func_52+0x1b3a>
   15ffa:	8b 85 18 f3 ff ff    	mov    -0xce8(%rbp),%eax
   16000:	48 98                	cltq   
   16002:	48 c7 84 c5 90 f6 ff 	movq   $0xfffffffffffffff9,-0x970(%rbp,%rax,8)
   16009:	ff f9 ff ff ff 
   1600e:	83 85 18 f3 ff ff 01 	addl   $0x1,-0xce8(%rbp)
   16015:	83 bd 18 f3 ff ff 05 	cmpl   $0x5,-0xce8(%rbp)
   1601c:	7e dc                	jle    15ffa <func_52+0x1b1f>
   1601e:	c7 85 18 f3 ff ff 00 	movl   $0x0,-0xce8(%rbp)
   16025:	00 00 00 
   16028:	eb 1e                	jmp    16048 <func_52+0x1b6d>
   1602a:	8b 85 18 f3 ff ff    	mov    -0xce8(%rbp),%eax
   16030:	48 98                	cltq   
   16032:	48 8d 95 a8 f3 ff ff 	lea    -0xc58(%rbp),%rdx
   16039:	48 89 94 c5 f0 f8 ff 	mov    %rdx,-0x710(%rbp,%rax,8)
   16040:	ff 
   16041:	83 85 18 f3 ff ff 01 	addl   $0x1,-0xce8(%rbp)
   16048:	83 bd 18 f3 ff ff 08 	cmpl   $0x8,-0xce8(%rbp)
   1604f:	7e d9                	jle    1602a <func_52+0x1b4f>
   16051:	48 8d 05 cc 96 00 00 	lea    0x96cc(%rip),%rax        # 1f724 <g_386>
   16058:	48 89 85 50 f4 ff ff 	mov    %rax,-0xbb0(%rbp)
   1605f:	48 8d 85 c0 f3 ff ff 	lea    -0xc40(%rbp),%rax
   16066:	48 89 85 58 f4 ff ff 	mov    %rax,-0xba8(%rbp)
   1606d:	48 8d 05 a8 96 00 00 	lea    0x96a8(%rip),%rax        # 1f71c <g_332+0x4>
   16074:	48 89 85 60 f4 ff ff 	mov    %rax,-0xba0(%rbp)
   1607b:	48 8d 85 f0 f8 ff ff 	lea    -0x710(%rbp),%rax
   16082:	48 83 c0 38          	add    $0x38,%rax
   16086:	48 89 85 68 f4 ff ff 	mov    %rax,-0xb98(%rbp)
   1608d:	c7 85 1c f3 ff ff 00 	movl   $0x0,-0xce4(%rbp)
   16094:	00 00 00 
   16097:	eb 1e                	jmp    160b7 <func_52+0x1bdc>
   16099:	8b 85 1c f3 ff ff    	mov    -0xce4(%rbp),%eax
   1609f:	48 98                	cltq   
   160a1:	48 8d 15 38 e2 00 00 	lea    0xe238(%rip),%rdx        # 242e0 <g_316>
   160a8:	48 89 94 c5 c0 f6 ff 	mov    %rdx,-0x940(%rbp,%rax,8)
   160af:	ff 
   160b0:	83 85 1c f3 ff ff 01 	addl   $0x1,-0xce4(%rbp)
   160b7:	83 bd 1c f3 ff ff 05 	cmpl   $0x5,-0xce4(%rbp)
   160be:	7e d9                	jle    16099 <func_52+0x1bbe>
   160c0:	80 bd df f2 ff ff 00 	cmpb   $0x0,-0xd21(%rbp)
   160c7:	0f 85 f4 00 00 00    	jne    161c1 <func_52+0x1ce6>
   160cd:	0f bf 9d c8 f2 ff ff 	movswl -0xd38(%rbp),%ebx
   160d4:	8b 05 72 5b 00 00    	mov    0x5b72(%rip),%eax        # 1bc4c <l_390.5039+0xc>
   160da:	48 8b 95 98 f6 ff ff 	mov    -0x968(%rbp),%rdx
   160e1:	89 95 0c f3 ff ff    	mov    %edx,-0xcf4(%rbp)
   160e7:	39 85 0c f3 ff ff    	cmp    %eax,-0xcf4(%rbp)
   160ed:	0f 9e c0             	setle  %al
   160f0:	0f b6 c0             	movzbl %al,%eax
   160f3:	0f b7 95 90 f5 ff ff 	movzwl -0xa70(%rbp),%edx
   160fa:	21 d0                	and    %edx,%eax
   160fc:	66 89 85 90 f5 ff ff 	mov    %ax,-0xa70(%rbp)
   16103:	0f b7 05 12 96 00 00 	movzwl 0x9612(%rip),%eax        # 1f71c <g_332+0x4>
   1610a:	66 85 c0             	test   %ax,%ax
   1610d:	48 8b 85 50 f4 ff ff 	mov    -0xbb0(%rbp),%rax
   16114:	c7 00 00 00 00 00    	movl   $0x0,(%rax)
   1611a:	be 01 00 00 00       	mov    $0x1,%esi
   1611f:	bf 00 00 00 00       	mov    $0x0,%edi
   16124:	e8 2c 43 ff ff       	callq  a455 <safe_div_func_int16_t_s_s>
   16129:	48 8b 05 98 95 00 00 	mov    0x9598(%rip),%rax        # 1f6c8 <g_94+0x5e8>
   16130:	48 be dd ec 5f 4a ae 	movabs $0xed1166ae4a5fecdd,%rsi
   16137:	66 11 ed 
   1613a:	48 89 c7             	mov    %rax,%rdi
   1613d:	e8 09 4f ff ff       	callq  b04b <safe_sub_func_uint64_t_u_u>
   16142:	8b 85 30 f3 ff ff    	mov    -0xcd0(%rbp),%eax
   16148:	0f b7 c0             	movzwl %ax,%eax
   1614b:	be 9b b2 00 00       	mov    $0xb29b,%esi
   16150:	89 c7                	mov    %eax,%edi
   16152:	e8 c8 4b ff ff       	callq  ad1f <safe_sub_func_uint16_t_u_u>
   16157:	0f be c0             	movsbl %al,%eax
   1615a:	89 de                	mov    %ebx,%esi
   1615c:	89 c7                	mov    %eax,%edi
   1615e:	e8 8b 41 ff ff       	callq  a2ee <safe_lshift_func_int8_t_s_u>
   16163:	0f be d0             	movsbl %al,%edx
   16166:	48 8b 85 d8 f3 ff ff 	mov    -0xc28(%rbp),%rax
   1616d:	0f b6 00             	movzbl (%rax),%eax
   16170:	8b 0d 9a 95 00 00    	mov    0x959a(%rip),%ecx        # 1f710 <g_319>
   16176:	09 c1                	or     %eax,%ecx
   16178:	48 8b 85 d8 f3 ff ff 	mov    -0xc28(%rbp),%rax
   1617f:	88 08                	mov    %cl,(%rax)
   16181:	48 8b 85 d8 f3 ff ff 	mov    -0xc28(%rbp),%rax
   16188:	0f b6 00             	movzbl (%rax),%eax
   1618b:	0f be c0             	movsbl %al,%eax
   1618e:	89 d6                	mov    %edx,%esi
   16190:	89 c7                	mov    %eax,%edi
   16192:	e8 d3 40 ff ff       	callq  a26a <safe_div_func_int8_t_s_s>
   16197:	48 8b 95 58 f4 ff ff 	mov    -0xba8(%rbp),%rdx
   1619e:	48 8b 12             	mov    (%rdx),%rdx
   161a1:	48 0f be c0          	movsbq %al,%rax
   161a5:	48 21 c2             	and    %rax,%rdx
   161a8:	48 8b 85 58 f4 ff ff 	mov    -0xba8(%rbp),%rax
   161af:	48 89 10             	mov    %rdx,(%rax)
   161b2:	48 8b 85 58 f4 ff ff 	mov    -0xba8(%rbp),%rax
   161b9:	48 8b 00             	mov    (%rax),%rax
   161bc:	48 85 c0             	test   %rax,%rax
   161bf:	74 07                	je     161c8 <func_52+0x1ced>
   161c1:	ba 01 00 00 00       	mov    $0x1,%edx
   161c6:	eb 05                	jmp    161cd <func_52+0x1cf2>
   161c8:	ba 00 00 00 00       	mov    $0x0,%edx
   161cd:	48 8b 85 20 f4 ff ff 	mov    -0xbe0(%rbp),%rax
   161d4:	89 10                	mov    %edx,(%rax)
   161d6:	48 8b 85 b8 f2 ff ff 	mov    -0xd48(%rbp),%rax
   161dd:	41 89 c4             	mov    %eax,%r12d
   161e0:	8b 05 e6 8e 00 00    	mov    0x8ee6(%rip),%eax        # 1f0cc <g_7>
   161e6:	41 89 c5             	mov    %eax,%r13d
   161e9:	0f b7 85 c8 f2 ff ff 	movzwl -0xd38(%rbp),%eax
   161f0:	0f b7 d8             	movzwl %ax,%ebx
   161f3:	48 8d 05 ee e0 00 00 	lea    0xe0ee(%rip),%rax        # 242e8 <g_328>
   161fa:	48 89 85 38 f6 ff ff 	mov    %rax,-0x9c8(%rbp)
   16201:	48 8b 95 38 f6 ff ff 	mov    -0x9c8(%rbp),%rdx
   16208:	48 8d 85 c8 f3 ff ff 	lea    -0xc38(%rbp),%rax
   1620f:	48 39 c2             	cmp    %rax,%rdx
   16212:	41 0f 95 c6          	setne  %r14b
   16216:	0f b7 85 cc f2 ff ff 	movzwl -0xd34(%rbp),%eax
   1621d:	0f b7 d0             	movzwl %ax,%edx
   16220:	48 8b 8d 28 f9 ff ff 	mov    -0x6d8(%rbp),%rcx
   16227:	48 8b 85 68 f4 ff ff 	mov    -0xb98(%rbp),%rax
   1622e:	48 89 08             	mov    %rcx,(%rax)
   16231:	48 8b 85 68 f4 ff ff 	mov    -0xb98(%rbp),%rax
   16238:	48 8b 00             	mov    (%rax),%rax
   1623b:	48 39 85 48 f4 ff ff 	cmp    %rax,-0xbb8(%rbp)
   16242:	0f 94 c0             	sete   %al
   16245:	0f b6 c8             	movzbl %al,%ecx
   16248:	8b 85 c4 f2 ff ff    	mov    -0xd3c(%rbp),%eax
   1624e:	39 c1                	cmp    %eax,%ecx
   16250:	0f 9e c0             	setle  %al
   16253:	0f b6 c0             	movzbl %al,%eax
   16256:	89 d6                	mov    %edx,%esi
   16258:	89 c7                	mov    %eax,%edi
   1625a:	e8 04 43 ff ff       	callq  a563 <safe_rshift_func_int16_t_s_u>
   1625f:	b8 01 00 00 00       	mov    $0x1,%eax
   16264:	48 63 d0             	movslq %eax,%rdx
   16267:	48 8b 05 72 94 00 00 	mov    0x9472(%rip),%rax        # 1f6e0 <g_112>
   1626e:	48 39 c2             	cmp    %rax,%rdx
   16271:	0f 95 c0             	setne  %al
   16274:	44 09 f0             	or     %r14d,%eax
   16277:	0f b6 c0             	movzbl %al,%eax
   1627a:	89 de                	mov    %ebx,%esi
   1627c:	89 c7                	mov    %eax,%edi
   1627e:	e8 ba 4a ff ff       	callq  ad3d <safe_mul_func_uint16_t_u_u>
   16283:	0f be c0             	movsbl %al,%eax
   16286:	89 c7                	mov    %eax,%edi
   16288:	e8 32 3f ff ff       	callq  a1bf <safe_unary_minus_func_int8_t_s>
   1628d:	84 c0                	test   %al,%al
   1628f:	75 0c                	jne    1629d <func_52+0x1dc2>
   16291:	0f b7 85 cc f2 ff ff 	movzwl -0xd34(%rbp),%eax
   16298:	66 85 c0             	test   %ax,%ax
   1629b:	74 07                	je     162a4 <func_52+0x1dc9>
   1629d:	b8 01 00 00 00       	mov    $0x1,%eax
   162a2:	eb 05                	jmp    162a9 <func_52+0x1dce>
   162a4:	b8 00 00 00 00       	mov    $0x0,%eax
   162a9:	44 89 ee             	mov    %r13d,%esi
   162ac:	89 c7                	mov    %eax,%edi
   162ae:	e8 1d 4c ff ff       	callq  aed0 <safe_sub_func_uint32_t_u_u>
   162b3:	44 89 e6             	mov    %r12d,%esi
   162b6:	89 c7                	mov    %eax,%edi
   162b8:	e8 fb 4b ff ff       	callq  aeb8 <safe_add_func_uint32_t_u_u>
   162bd:	48 8b 05 04 92 00 00 	mov    0x9204(%rip),%rax        # 1f4c8 <g_94+0x3e8>
   162c4:	89 c2                	mov    %eax,%edx
   162c6:	48 8b 85 60 f4 ff ff 	mov    -0xba0(%rbp),%rax
   162cd:	66 89 10             	mov    %dx,(%rax)
   162d0:	48 8b 85 60 f4 ff ff 	mov    -0xba0(%rbp),%rax
   162d7:	0f b7 00             	movzwl (%rax),%eax
   162da:	98                   	cwtl   
   162db:	89 85 60 f3 ff ff    	mov    %eax,-0xca0(%rbp)
   162e1:	48 8b 95 68 f6 ff ff 	mov    -0x998(%rbp),%rdx
   162e8:	48 8b 05 e9 df 00 00 	mov    0xdfe9(%rip),%rax        # 242d8 <g_290>
   162ef:	48 39 c2             	cmp    %rax,%rdx
   162f2:	0f 95 c0             	setne  %al
   162f5:	0f b6 c8             	movzbl %al,%ecx
   162f8:	48 8b 85 d0 f3 ff ff 	mov    -0xc30(%rbp),%rax
   162ff:	8b 10                	mov    (%rax),%edx
   16301:	48 8b 85 d0 f3 ff ff 	mov    -0xc30(%rbp),%rax
   16308:	21 ca                	and    %ecx,%edx
   1630a:	89 10                	mov    %edx,(%rax)
   1630c:	8b 85 f4 f2 ff ff    	mov    -0xd0c(%rbp),%eax
   16312:	83 e8 01             	sub    $0x1,%eax
   16315:	89 85 f4 f2 ff ff    	mov    %eax,-0xd0c(%rbp)
   1631b:	8b 85 f4 f2 ff ff    	mov    -0xd0c(%rbp),%eax
   16321:	85 c0                	test   %eax,%eax
   16323:	0f 89 b7 fc ff ff    	jns    15fe0 <func_52+0x1b05>
   16329:	48 c7 05 f4 93 00 00 	movq   $0x0,0x93f4(%rip)        # 1f728 <g_417>
   16330:	00 00 00 00 
   16334:	e9 6f 02 00 00       	jmpq   165a8 <func_52+0x20cd>
   16339:	c7 85 68 f3 ff ff a7 	movl   $0x796c1ea7,-0xc98(%rbp)
   16340:	1e 6c 79 
   16343:	48 c7 85 38 f4 ff ff 	movq   $0x0,-0xbc8(%rbp)
   1634a:	00 00 00 00 
   1634e:	c7 85 6c f3 ff ff fb 	movl   $0xfffffffb,-0xc94(%rbp)
   16355:	ff ff ff 
   16358:	c7 85 20 f3 ff ff 00 	movl   $0x0,-0xce0(%rbp)
   1635f:	00 00 00 
   16362:	eb 1a                	jmp    1637e <func_52+0x1ea3>
   16364:	8b 85 20 f3 ff ff    	mov    -0xce0(%rbp),%eax
   1636a:	48 98                	cltq   
   1636c:	c7 84 85 c0 f6 ff ff 	movl   $0xffffffff,-0x940(%rbp,%rax,4)
   16373:	ff ff ff ff 
   16377:	83 85 20 f3 ff ff 01 	addl   $0x1,-0xce0(%rbp)
   1637e:	83 bd 20 f3 ff ff 07 	cmpl   $0x7,-0xce0(%rbp)
   16385:	7e dd                	jle    16364 <func_52+0x1e89>
   16387:	c7 85 20 f3 ff ff 00 	movl   $0x0,-0xce0(%rbp)
   1638e:	00 00 00 
   16391:	eb 1b                	jmp    163ae <func_52+0x1ed3>
   16393:	8b 85 20 f3 ff ff    	mov    -0xce0(%rbp),%eax
   16399:	48 98                	cltq   
   1639b:	48 c7 84 c5 90 f6 ff 	movq   $0xffffffffffffffff,-0x970(%rbp,%rax,8)
   163a2:	ff ff ff ff ff 
   163a7:	83 85 20 f3 ff ff 01 	addl   $0x1,-0xce0(%rbp)
   163ae:	83 bd 20 f3 ff ff 02 	cmpl   $0x2,-0xce0(%rbp)
   163b5:	7e dc                	jle    16393 <func_52+0x1eb8>
   163b7:	66 83 bd e4 f2 ff ff 	cmpw   $0x0,-0xd1c(%rbp)
   163be:	00 
   163bf:	0f 85 f5 01 00 00    	jne    165ba <func_52+0x20df>
   163c5:	c7 85 e8 f2 ff ff 00 	movl   $0x0,-0xd18(%rbp)
   163cc:	00 00 00 
   163cf:	e9 72 01 00 00       	jmpq   16546 <func_52+0x206b>
   163d4:	48 8d 85 c0 f3 ff ff 	lea    -0xc40(%rbp),%rax
   163db:	48 89 85 40 f4 ff ff 	mov    %rax,-0xbc0(%rbp)
   163e2:	c7 85 70 f3 ff ff a8 	movl   $0xb63fe7a8,-0xc90(%rbp)
   163e9:	e7 3f b6 
   163ec:	c7 85 74 f3 ff ff f9 	movl   $0xfffffff9,-0xc8c(%rbp)
   163f3:	ff ff ff 
   163f6:	c7 85 f0 f8 ff ff 78 	movl   $0x85d67a78,-0x710(%rbp)
   163fd:	7a d6 85 
   16400:	c7 85 f4 f8 ff ff 78 	movl   $0x85d67a78,-0x70c(%rbp)
   16407:	7a d6 85 
   1640a:	c7 85 f8 f8 ff ff 78 	movl   $0x85d67a78,-0x708(%rbp)
   16411:	7a d6 85 
   16414:	c7 85 fc f8 ff ff 78 	movl   $0x85d67a78,-0x704(%rbp)
   1641b:	7a d6 85 
   1641e:	c7 85 00 f9 ff ff 78 	movl   $0x85d67a78,-0x700(%rbp)
   16425:	7a d6 85 
   16428:	c7 85 04 f9 ff ff 78 	movl   $0x85d67a78,-0x6fc(%rbp)
   1642f:	7a d6 85 
   16432:	c7 85 08 f9 ff ff 78 	movl   $0x85d67a78,-0x6f8(%rbp)
   16439:	7a d6 85 
   1643c:	c7 85 0c f9 ff ff 78 	movl   $0x85d67a78,-0x6f4(%rbp)
   16443:	7a d6 85 
   16446:	48 8b 85 20 f4 ff ff 	mov    -0xbe0(%rbp),%rax
   1644d:	8b 95 68 f3 ff ff    	mov    -0xc98(%rbp),%edx
   16453:	89 10                	mov    %edx,(%rax)
   16455:	83 bd 0c f3 ff ff 00 	cmpl   $0x0,-0xcf4(%rbp)
   1645c:	0f 85 d4 00 00 00    	jne    16536 <func_52+0x205b>
   16462:	8b 9d 6c f3 ff ff    	mov    -0xc94(%rbp),%ebx
   16468:	48 8b 85 b8 f2 ff ff 	mov    -0xd48(%rbp),%rax
   1646f:	41 89 c4             	mov    %eax,%r12d
   16472:	0f b7 85 c8 f2 ff ff 	movzwl -0xd38(%rbp),%eax
   16479:	41 89 c5             	mov    %eax,%r13d
   1647c:	0f bf 85 c8 f2 ff ff 	movswl -0xd38(%rbp),%eax
   16483:	89 c6                	mov    %eax,%esi
   16485:	bf 01 00 00 00       	mov    $0x1,%edi
   1648a:	e8 27 41 ff ff       	callq  a5b6 <safe_add_func_int32_t_s_s>
   1648f:	44 21 e8             	and    %r13d,%eax
   16492:	0f be c0             	movsbl %al,%eax
   16495:	44 89 e6             	mov    %r12d,%esi
   16498:	89 c7                	mov    %eax,%edi
   1649a:	e8 cd 3e ff ff       	callq  a36c <safe_rshift_func_int8_t_s_u>
   1649f:	0f be c0             	movsbl %al,%eax
   164a2:	89 de                	mov    %ebx,%esi
   164a4:	89 c7                	mov    %eax,%edi
   164a6:	e8 43 3e ff ff       	callq  a2ee <safe_lshift_func_int8_t_s_u>
   164ab:	0f be d0             	movsbl %al,%edx
   164ae:	48 8b 85 40 f4 ff ff 	mov    -0xbc0(%rbp),%rax
   164b5:	48 c7 00 01 00 00 00 	movq   $0x1,(%rax)
   164bc:	48 83 bd f0 f3 ff ff 	cmpq   $0x0,-0xc10(%rbp)
   164c3:	00 
   164c4:	0f 94 c0             	sete   %al
   164c7:	0f b6 c0             	movzbl %al,%eax
   164ca:	89 d6                	mov    %edx,%esi
   164cc:	89 c7                	mov    %eax,%edi
   164ce:	e8 22 3f ff ff       	callq  a3f5 <safe_mul_func_int16_t_s_s>
   164d3:	0f b7 d0             	movzwl %ax,%edx
   164d6:	48 8b 85 b0 f2 ff ff 	mov    -0xd50(%rbp),%rax
   164dd:	0f b7 c0             	movzwl %ax,%eax
   164e0:	89 d6                	mov    %edx,%esi
   164e2:	89 c7                	mov    %eax,%edi
   164e4:	e8 54 48 ff ff       	callq  ad3d <safe_mul_func_uint16_t_u_u>
   164e9:	0f b6 c0             	movzbl %al,%eax
   164ec:	89 c6                	mov    %eax,%esi
   164ee:	bf fb 00 00 00       	mov    $0xfb,%edi
   164f3:	e8 e3 46 ff ff       	callq  abdb <safe_div_func_uint8_t_u_u>
   164f8:	48 8b 05 c1 bf 00 00 	mov    0xbfc1(%rip),%rax        # 224c0 <g_416>
   164ff:	48 8b 00             	mov    (%rax),%rax
   16502:	48 83 f8 ff          	cmp    $0xffffffffffffffff,%rax
   16506:	75 0a                	jne    16512 <func_52+0x2037>
   16508:	48 83 bd b0 f2 ff ff 	cmpq   $0x0,-0xd50(%rbp)
   1650f:	00 
   16510:	74 07                	je     16519 <func_52+0x203e>
   16512:	b8 01 00 00 00       	mov    $0x1,%eax
   16517:	eb 05                	jmp    1651e <func_52+0x2043>
   16519:	b8 00 00 00 00       	mov    $0x0,%eax
   1651e:	89 85 0c f3 ff ff    	mov    %eax,-0xcf4(%rbp)
   16524:	0f b6 85 de f2 ff ff 	movzbl -0xd22(%rbp),%eax
   1652b:	83 e8 01             	sub    $0x1,%eax
   1652e:	88 85 de f2 ff ff    	mov    %al,-0xd22(%rbp)
   16534:	eb 01                	jmp    16537 <func_52+0x205c>
   16536:	90                   	nop
   16537:	8b 85 e8 f2 ff ff    	mov    -0xd18(%rbp),%eax
   1653d:	83 c0 01             	add    $0x1,%eax
   16540:	89 85 e8 f2 ff ff    	mov    %eax,-0xd18(%rbp)
   16546:	8b 85 e8 f2 ff ff    	mov    -0xd18(%rbp),%eax
   1654c:	85 c0                	test   %eax,%eax
   1654e:	0f 8e 80 fe ff ff    	jle    163d4 <func_52+0x1ef9>
   16554:	48 8b 85 20 f4 ff ff 	mov    -0xbe0(%rbp),%rax
   1655b:	8b 00                	mov    (%rax),%eax
   1655d:	48 8b 95 b0 f2 ff ff 	mov    -0xd50(%rbp),%rdx
   16564:	31 c2                	xor    %eax,%edx
   16566:	48 8b 85 20 f4 ff ff 	mov    -0xbe0(%rbp),%rax
   1656d:	89 10                	mov    %edx,(%rax)
   1656f:	48 8b 05 4a bf 00 00 	mov    0xbf4a(%rip),%rax        # 224c0 <g_416>
   16576:	48 8b 00             	mov    (%rax),%rax
   16579:	48 89 c6             	mov    %rax,%rsi
   1657c:	48 bf 7e 04 c5 0d b7 	movabs $0xe5caa1b70dc5047e,%rdi
   16583:	a1 ca e5 
   16586:	e8 29 44 ff ff       	callq  a9b4 <safe_mod_func_int64_t_s_s>
   1658b:	89 c2                	mov    %eax,%edx
   1658d:	48 8b 85 e8 f3 ff ff 	mov    -0xc18(%rbp),%rax
   16594:	89 10                	mov    %edx,(%rax)
   16596:	48 8b 05 8b 91 00 00 	mov    0x918b(%rip),%rax        # 1f728 <g_417>
   1659d:	48 83 e8 01          	sub    $0x1,%rax
   165a1:	48 89 05 80 91 00 00 	mov    %rax,0x9180(%rip)        # 1f728 <g_417>
   165a8:	48 8b 05 79 91 00 00 	mov    0x9179(%rip),%rax        # 1f728 <g_417>
   165af:	48 85 c0             	test   %rax,%rax
   165b2:	0f 89 81 fd ff ff    	jns    16339 <func_52+0x1e5e>
   165b8:	eb 01                	jmp    165bb <func_52+0x20e0>
   165ba:	90                   	nop
   165bb:	8b 05 3f 91 00 00    	mov    0x913f(%rip),%eax        # 1f700 <g_264>
   165c1:	83 c0 01             	add    $0x1,%eax
   165c4:	89 05 36 91 00 00    	mov    %eax,0x9136(%rip)        # 1f700 <g_264>
   165ca:	8b 05 30 91 00 00    	mov    0x9130(%rip),%eax        # 1f700 <g_264>
   165d0:	85 c0                	test   %eax,%eax
   165d2:	0f 84 46 f5 ff ff    	je     15b1e <func_52+0x1643>
   165d8:	83 bd 48 f3 ff ff 00 	cmpl   $0x0,-0xcb8(%rbp)
   165df:	0f 85 2f 01 00 00    	jne    16714 <func_52+0x2239>
   165e5:	8b 05 39 91 00 00    	mov    0x9139(%rip),%eax        # 1f724 <g_386>
   165eb:	85 c0                	test   %eax,%eax
   165ed:	0f 95 c0             	setne  %al
   165f0:	0f b6 d8             	movzbl %al,%ebx
   165f3:	8b 05 2b 91 00 00    	mov    0x912b(%rip),%eax        # 1f724 <g_386>
   165f9:	0f b7 c0             	movzwl %ax,%eax
   165fc:	be 06 00 00 00       	mov    $0x6,%esi
   16601:	89 c7                	mov    %eax,%edi
   16603:	e8 b6 47 ff ff       	callq  adbe <safe_lshift_func_uint16_t_u_s>
   16608:	0f b7 c0             	movzwl %ax,%eax
   1660b:	89 de                	mov    %ebx,%esi
   1660d:	89 c7                	mov    %eax,%edi
   1660f:	e8 d2 48 ff ff       	callq  aee6 <safe_mul_func_uint32_t_u_u>
   16614:	0f b6 c0             	movzbl %al,%eax
   16617:	89 c6                	mov    %eax,%esi
   16619:	bf 02 00 00 00       	mov    $0x2,%edi
   1661e:	e8 b8 45 ff ff       	callq  abdb <safe_div_func_uint8_t_u_u>
   16623:	0f b6 d0             	movzbl %al,%edx
   16626:	48 8b 85 28 f4 ff ff 	mov    -0xbd8(%rbp),%rax
   1662d:	48 89 10             	mov    %rdx,(%rax)
   16630:	48 8b 85 28 f4 ff ff 	mov    -0xbd8(%rbp),%rax
   16637:	48 8b 00             	mov    (%rax),%rax
   1663a:	be 04 00 00 00       	mov    $0x4,%esi
   1663f:	48 89 c7             	mov    %rax,%rdi
   16642:	e8 68 4a ff ff       	callq  b0af <safe_div_func_uint64_t_u_u>
   16647:	89 c2                	mov    %eax,%edx
   16649:	8b 05 e1 90 00 00    	mov    0x90e1(%rip),%eax        # 1f730 <g_482>
   1664f:	09 d0                	or     %edx,%eax
   16651:	0f b6 c0             	movzbl %al,%eax
   16654:	be 00 00 00 00       	mov    $0x0,%esi
   16659:	89 c7                	mov    %eax,%edi
   1665b:	e8 2d 46 ff ff       	callq  ac8d <safe_rshift_func_uint8_t_u_s>
   16660:	83 bd 54 f3 ff ff 00 	cmpl   $0x0,-0xcac(%rbp)
   16667:	74 07                	je     16670 <func_52+0x2195>
   16669:	b8 01 00 00 00       	mov    $0x1,%eax
   1666e:	eb 05                	jmp    16675 <func_52+0x219a>
   16670:	b8 00 00 00 00       	mov    $0x0,%eax
   16675:	0f bf d0             	movswl %ax,%edx
   16678:	48 8b 05 c1 8f 00 00 	mov    0x8fc1(%rip),%rax        # 1f640 <g_94+0x560>
   1667f:	98                   	cwtl   
   16680:	89 d6                	mov    %edx,%esi
   16682:	89 c7                	mov    %eax,%edi
   16684:	e8 8d 3d ff ff       	callq  a416 <safe_mod_func_int16_t_s_s>
   16689:	b9 01 00 00 00       	mov    $0x1,%ecx
   1668e:	48 8b 85 b0 f3 ff ff 	mov    -0xc50(%rbp),%rax
   16695:	48 8b 00             	mov    (%rax),%rax
   16698:	0f b7 00             	movzwl (%rax),%eax
   1669b:	89 c2                	mov    %eax,%edx
   1669d:	89 c8                	mov    %ecx,%eax
   1669f:	09 c2                	or     %eax,%edx
   166a1:	48 8b 85 b0 f3 ff ff 	mov    -0xc50(%rbp),%rax
   166a8:	48 8b 00             	mov    (%rax),%rax
   166ab:	66 89 10             	mov    %dx,(%rax)
   166ae:	48 8b 85 b8 f2 ff ff 	mov    -0xd48(%rbp),%rax
   166b5:	89 c3                	mov    %eax,%ebx
   166b7:	0f b7 85 cc f2 ff ff 	movzwl -0xd34(%rbp),%eax
   166be:	0f be c0             	movsbl %al,%eax
   166c1:	be 07 00 00 00       	mov    $0x7,%esi
   166c6:	89 c7                	mov    %eax,%edi
   166c8:	e8 21 3c ff ff       	callq  a2ee <safe_lshift_func_int8_t_s_u>
   166cd:	0f be c0             	movsbl %al,%eax
   166d0:	be 43 00 00 00       	mov    $0x43,%esi
   166d5:	89 c7                	mov    %eax,%edi
   166d7:	e8 55 3b ff ff       	callq  a231 <safe_mod_func_int8_t_s_s>
   166dc:	0f be c0             	movsbl %al,%eax
   166df:	89 de                	mov    %ebx,%esi
   166e1:	89 c7                	mov    %eax,%edi
   166e3:	e8 1d 3f ff ff       	callq  a605 <safe_sub_func_int32_t_s_s>
   166e8:	98                   	cwtl   
   166e9:	be 08 00 00 00       	mov    $0x8,%esi
   166ee:	89 c7                	mov    %eax,%edi
   166f0:	e8 9d 3d ff ff       	callq  a492 <safe_lshift_func_int16_t_s_s>
   166f5:	98                   	cwtl   
   166f6:	48 8b 95 b0 f2 ff ff 	mov    -0xd50(%rbp),%rdx
   166fd:	09 c2                	or     %eax,%edx
   166ff:	48 8b 85 e8 f3 ff ff 	mov    -0xc18(%rbp),%rax
   16706:	89 10                	mov    %edx,(%rax)
   16708:	0f b6 45 bc          	movzbl -0x44(%rbp),%eax
   1670c:	83 c0 01             	add    $0x1,%eax
   1670f:	88 45 bc             	mov    %al,-0x44(%rbp)
   16712:	eb 01                	jmp    16715 <func_52+0x223a>
   16714:	90                   	nop
   16715:	8b 85 c4 f2 ff ff    	mov    -0xd3c(%rbp),%eax
   1671b:	98                   	cwtl   
   1671c:	be 01 00 00 00       	mov    $0x1,%esi
   16721:	89 c7                	mov    %eax,%edi
   16723:	e8 ab 3c ff ff       	callq  a3d3 <safe_sub_func_int16_t_s_s>
   16728:	98                   	cwtl   
   16729:	89 85 c4 f2 ff ff    	mov    %eax,-0xd3c(%rbp)
   1672f:	8b 85 c4 f2 ff ff    	mov    -0xd3c(%rbp),%eax
   16735:	83 f8 e2             	cmp    $0xffffffe2,%eax
   16738:	0f 8c e7 f2 ff ff    	jl     15a25 <func_52+0x154a>
   1673e:	48 8b 85 e8 f3 ff ff 	mov    -0xc18(%rbp),%rax
   16745:	8b 10                	mov    (%rax),%edx
   16747:	8b 85 f0 f2 ff ff    	mov    -0xd10(%rbp),%eax
   1674d:	09 d0                	or     %edx,%eax
   1674f:	89 85 f0 f2 ff ff    	mov    %eax,-0xd10(%rbp)
   16755:	48 8b 85 b8 f2 ff ff 	mov    -0xd48(%rbp),%rax
   1675c:	48 8b 5d c8          	mov    -0x38(%rbp),%rbx
   16760:	64 48 33 1c 25 28 00 	xor    %fs:0x28,%rbx
   16767:	00 00 
   16769:	74 05                	je     16770 <func_52+0x2295>
   1676b:	e8 00 39 ff ff       	callq  a070 <__stack_chk_fail@plt>
   16770:	48 81 c4 38 0d 00 00 	add    $0xd38,%rsp
   16777:	5b                   	pop    %rbx
   16778:	41 5c                	pop    %r12
   1677a:	41 5d                	pop    %r13
   1677c:	41 5e                	pop    %r14
   1677e:	41 5f                	pop    %r15
   16780:	5d                   	pop    %rbp
   16781:	c3                   	retq   

0000000000016782 <func_69>:
   16782:	f3 0f 1e fa          	endbr64 
   16786:	55                   	push   %rbp
   16787:	48 89 e5             	mov    %rsp,%rbp
   1678a:	41 55                	push   %r13
   1678c:	41 54                	push   %r12
   1678e:	53                   	push   %rbx
   1678f:	48 81 ec 18 02 00 00 	sub    $0x218,%rsp
   16796:	89 bd ec fd ff ff    	mov    %edi,-0x214(%rbp)
   1679c:	89 f0                	mov    %esi,%eax
   1679e:	89 95 e4 fd ff ff    	mov    %edx,-0x21c(%rbp)
   167a4:	48 89 8d d8 fd ff ff 	mov    %rcx,-0x228(%rbp)
   167ab:	44 89 85 e0 fd ff ff 	mov    %r8d,-0x220(%rbp)
   167b2:	66 89 85 e8 fd ff ff 	mov    %ax,-0x218(%rbp)
   167b9:	64 48 8b 04 25 28 00 	mov    %fs:0x28,%rax
   167c0:	00 00 
   167c2:	48 89 45 d8          	mov    %rax,-0x28(%rbp)
   167c6:	31 c0                	xor    %eax,%eax
   167c8:	48 8d 05 fd 88 00 00 	lea    0x88fd(%rip),%rax        # 1f0cc <g_7>
   167cf:	48 89 85 50 fe ff ff 	mov    %rax,-0x1b0(%rbp)
   167d6:	48 c7 85 58 fe ff ff 	movq   $0x0,-0x1a8(%rbp)
   167dd:	00 00 00 00 
   167e1:	48 c7 85 38 fe ff ff 	movq   $0x0,-0x1c8(%rbp)
   167e8:	00 00 00 00 
   167ec:	c7 85 c0 fe ff ff f9 	movl   $0xfffffff9,-0x140(%rbp)
   167f3:	ff ff ff 
   167f6:	c7 85 c4 fe ff ff f9 	movl   $0xfffffff9,-0x13c(%rbp)
   167fd:	ff ff ff 
   16800:	c7 85 c8 fe ff ff f9 	movl   $0xfffffff9,-0x138(%rbp)
   16807:	ff ff ff 
   1680a:	c7 85 cc fe ff ff f9 	movl   $0xfffffff9,-0x134(%rbp)
   16811:	ff ff ff 
   16814:	c7 85 d0 fe ff ff f9 	movl   $0xfffffff9,-0x130(%rbp)
   1681b:	ff ff ff 
   1681e:	c7 85 d4 fe ff ff f9 	movl   $0xfffffff9,-0x12c(%rbp)
   16825:	ff ff ff 
   16828:	c7 85 d8 fe ff ff f9 	movl   $0xfffffff9,-0x128(%rbp)
   1682f:	ff ff ff 
   16832:	c7 85 dc fe ff ff f9 	movl   $0xfffffff9,-0x124(%rbp)
   16839:	ff ff ff 
   1683c:	48 b8 60 cb e2 b7 60 	movabs $0x63313960b7e2cb60,%rax
   16843:	39 31 63 
   16846:	48 89 85 60 fe ff ff 	mov    %rax,-0x1a0(%rbp)
   1684d:	48 c7 85 40 fe ff ff 	movq   $0x0,-0x1c0(%rbp)
   16854:	00 00 00 00 
   16858:	48 c7 85 68 fe ff ff 	movq   $0x0,-0x198(%rbp)
   1685f:	00 00 00 00 
   16863:	48 8d 05 a6 8c 00 00 	lea    0x8ca6(%rip),%rax        # 1f510 <g_94+0x430>
   1686a:	48 89 85 40 ff ff ff 	mov    %rax,-0xc0(%rbp)
   16871:	48 8d 05 98 8c 00 00 	lea    0x8c98(%rip),%rax        # 1f510 <g_94+0x430>
   16878:	48 89 85 48 ff ff ff 	mov    %rax,-0xb8(%rbp)
   1687f:	48 8d 05 8a 8c 00 00 	lea    0x8c8a(%rip),%rax        # 1f510 <g_94+0x430>
   16886:	48 89 85 50 ff ff ff 	mov    %rax,-0xb0(%rbp)
   1688d:	48 8d 05 7c 8c 00 00 	lea    0x8c7c(%rip),%rax        # 1f510 <g_94+0x430>
   16894:	48 89 85 58 ff ff ff 	mov    %rax,-0xa8(%rbp)
   1689b:	48 8d 05 6e 8c 00 00 	lea    0x8c6e(%rip),%rax        # 1f510 <g_94+0x430>
   168a2:	48 89 85 60 ff ff ff 	mov    %rax,-0xa0(%rbp)
   168a9:	48 8d 05 60 8c 00 00 	lea    0x8c60(%rip),%rax        # 1f510 <g_94+0x430>
   168b0:	48 89 85 68 ff ff ff 	mov    %rax,-0x98(%rbp)
   168b7:	48 8d 05 52 8c 00 00 	lea    0x8c52(%rip),%rax        # 1f510 <g_94+0x430>
   168be:	48 89 85 70 ff ff ff 	mov    %rax,-0x90(%rbp)
   168c5:	c7 85 04 fe ff ff 00 	movl   $0x0,-0x1fc(%rbp)
   168cc:	00 00 00 
   168cf:	eb 1b                	jmp    168ec <func_69+0x16a>
   168d1:	8b 85 04 fe ff ff    	mov    -0x1fc(%rbp),%eax
   168d7:	48 98                	cltq   
   168d9:	48 c7 84 c5 e0 fe ff 	movq   $0x0,-0x120(%rbp,%rax,8)
   168e0:	ff 00 00 00 00 
   168e5:	83 85 04 fe ff ff 01 	addl   $0x1,-0x1fc(%rbp)
   168ec:	83 bd 04 fe ff ff 04 	cmpl   $0x4,-0x1fc(%rbp)
   168f3:	7e dc                	jle    168d1 <func_69+0x14f>
   168f5:	48 8b 05 14 8c 00 00 	mov    0x8c14(%rip),%rax        # 1f510 <g_94+0x430>
   168fc:	48 83 c0 01          	add    $0x1,%rax
   16900:	48 89 05 09 8c 00 00 	mov    %rax,0x8c09(%rip)        # 1f510 <g_94+0x430>
   16907:	0f b7 05 be d9 00 00 	movzwl 0xd9be(%rip),%eax        # 242cc <g_49>
   1690e:	66 85 c0             	test   %ax,%ax
   16911:	0f 84 98 05 00 00    	je     16eaf <func_69+0x72d>
   16917:	48 8d 85 38 fe ff ff 	lea    -0x1c8(%rbp),%rax
   1691e:	48 89 85 70 fe ff ff 	mov    %rax,-0x190(%rbp)
   16925:	c7 85 18 fe ff ff bc 	movl   $0x775e61bc,-0x1e8(%rbp)
   1692c:	61 5e 77 
   1692f:	c7 85 08 fe ff ff a4 	movl   $0x21d522a4,-0x1f8(%rbp)
   16936:	22 d5 21 
   16939:	c7 85 1c fe ff ff ff 	movl   $0xffffffff,-0x1e4(%rbp)
   16940:	ff ff ff 
   16943:	c7 85 20 fe ff ff 02 	movl   $0x9f227602,-0x1e0(%rbp)
   1694a:	76 22 9f 
   1694d:	66 c7 85 00 fe ff ff 	movw   $0xfff6,-0x200(%rbp)
   16954:	f6 ff 
   16956:	48 8b 95 38 fe ff ff 	mov    -0x1c8(%rbp),%rdx
   1695d:	48 8b 85 70 fe ff ff 	mov    -0x190(%rbp),%rax
   16964:	48 89 10             	mov    %rdx,(%rax)
   16967:	83 bd 18 fe ff ff 00 	cmpl   $0x0,-0x1e8(%rbp)
   1696e:	0f 84 84 00 00 00    	je     169f8 <func_69+0x276>
   16974:	c6 85 ff fd ff ff ff 	movb   $0xff,-0x201(%rbp)
   1697b:	c7 85 2c fe ff ff 2f 	movl   $0xa63a172f,-0x1d4(%rbp)
   16982:	17 3a a6 
   16985:	c7 85 30 fe ff ff 03 	movl   $0x3,-0x1d0(%rbp)
   1698c:	00 00 00 
   1698f:	c6 05 3e 87 00 00 f6 	movb   $0xf6,0x873e(%rip)        # 1f0d4 <g_93>
   16996:	eb 4a                	jmp    169e2 <func_69+0x260>
   16998:	66 c7 85 02 fe ff ff 	movw   $0x1,-0x1fe(%rbp)
   1699f:	01 00 
   169a1:	c7 85 34 fe ff ff 05 	movl   $0x5,-0x1cc(%rbp)
   169a8:	00 00 00 
   169ab:	83 85 34 fe ff ff 01 	addl   $0x1,-0x1cc(%rbp)
   169b2:	48 8b 05 27 8d 00 00 	mov    0x8d27(%rip),%rax        # 1f6e0 <g_112>
   169b9:	48 83 e8 01          	sub    $0x1,%rax
   169bd:	48 89 05 1c 8d 00 00 	mov    %rax,0x8d1c(%rip)        # 1f6e0 <g_112>
   169c4:	48 8d 05 01 87 00 00 	lea    0x8701(%rip),%rax        # 1f0cc <g_7>
   169cb:	48 89 05 e6 b9 00 00 	mov    %rax,0xb9e6(%rip)        # 223b8 <g_115+0x18>
   169d2:	0f b6 05 fb 86 00 00 	movzbl 0x86fb(%rip),%eax        # 1f0d4 <g_93>
   169d9:	83 e8 01             	sub    $0x1,%eax
   169dc:	88 05 f2 86 00 00    	mov    %al,0x86f2(%rip)        # 1f0d4 <g_93>
   169e2:	0f b6 05 eb 86 00 00 	movzbl 0x86eb(%rip),%eax        # 1f0d4 <g_93>
   169e9:	3c e7                	cmp    $0xe7,%al
   169eb:	7d ab                	jge    16998 <func_69+0x216>
   169ed:	8b 85 08 fe ff ff    	mov    -0x1f8(%rbp),%eax
   169f3:	e9 7d 05 00 00       	jmpq   16f75 <func_69+0x7f3>
   169f8:	c7 85 24 fe ff ff 01 	movl   $0x1,-0x1dc(%rbp)
   169ff:	00 00 00 
   16a02:	c7 85 0c fe ff ff 06 	movl   $0x6,-0x1f4(%rbp)
   16a09:	00 00 00 
   16a0c:	48 c7 85 48 fe ff ff 	movq   $0x0,-0x1b8(%rbp)
   16a13:	00 00 00 00 
   16a17:	48 8d 85 48 fe ff ff 	lea    -0x1b8(%rbp),%rax
   16a1e:	48 89 85 78 fe ff ff 	mov    %rax,-0x188(%rbp)
   16a25:	48 8d 05 a0 d8 00 00 	lea    0xd8a0(%rip),%rax        # 242cc <g_49>
   16a2c:	48 89 85 80 fe ff ff 	mov    %rax,-0x180(%rbp)
   16a33:	48 8d 05 ae 8c 00 00 	lea    0x8cae(%rip),%rax        # 1f6e8 <g_167>
   16a3a:	48 89 85 88 fe ff ff 	mov    %rax,-0x178(%rbp)
   16a41:	48 8d 05 a1 8c 00 00 	lea    0x8ca1(%rip),%rax        # 1f6e9 <g_169>
   16a48:	48 89 85 90 fe ff ff 	mov    %rax,-0x170(%rbp)
   16a4f:	48 8d 85 40 fe ff ff 	lea    -0x1c0(%rbp),%rax
   16a56:	48 89 85 98 fe ff ff 	mov    %rax,-0x168(%rbp)
   16a5d:	c7 85 10 fe ff ff 00 	movl   $0x0,-0x1f0(%rbp)
   16a64:	00 00 00 
   16a67:	eb 1a                	jmp    16a83 <func_69+0x301>
   16a69:	8b 85 10 fe ff ff    	mov    -0x1f0(%rbp),%eax
   16a6f:	48 98                	cltq   
   16a71:	c7 84 85 a0 fe ff ff 	movl   $0xdf1cae45,-0x160(%rbp,%rax,4)
   16a78:	45 ae 1c df 
   16a7c:	83 85 10 fe ff ff 01 	addl   $0x1,-0x1f0(%rbp)
   16a83:	83 bd 10 fe ff ff 05 	cmpl   $0x5,-0x1f0(%rbp)
   16a8a:	7e dd                	jle    16a69 <func_69+0x2e7>
   16a8c:	c7 85 10 fe ff ff 00 	movl   $0x0,-0x1f0(%rbp)
   16a93:	00 00 00 
   16a96:	eb 1e                	jmp    16ab6 <func_69+0x334>
   16a98:	8b 85 10 fe ff ff    	mov    -0x1f0(%rbp),%eax
   16a9e:	48 98                	cltq   
   16aa0:	48 8d 15 b1 86 00 00 	lea    0x86b1(%rip),%rdx        # 1f158 <g_94+0x78>
   16aa7:	48 89 94 c5 10 ff ff 	mov    %rdx,-0xf0(%rbp,%rax,8)
   16aae:	ff 
   16aaf:	83 85 10 fe ff ff 01 	addl   $0x1,-0x1f0(%rbp)
   16ab6:	83 bd 10 fe ff ff 04 	cmpl   $0x4,-0x1f0(%rbp)
   16abd:	7e d9                	jle    16a98 <func_69+0x316>
   16abf:	c7 85 08 fe ff ff 04 	movl   $0x4,-0x1f8(%rbp)
   16ac6:	00 00 00 
   16ac9:	e9 ff 01 00 00       	jmpq   16ccd <func_69+0x54b>
   16ace:	c7 85 14 fe ff ff 00 	movl   $0x0,-0x1ec(%rbp)
   16ad5:	00 00 00 
   16ad8:	eb 1b                	jmp    16af5 <func_69+0x373>
   16ada:	8b 85 14 fe ff ff    	mov    -0x1ec(%rbp),%eax
   16ae0:	48 98                	cltq   
   16ae2:	48 8d 95 e0 fe ff ff 	lea    -0x120(%rbp),%rdx
   16ae9:	48 89 54 c5 80       	mov    %rdx,-0x80(%rbp,%rax,8)
   16aee:	83 85 14 fe ff ff 01 	addl   $0x1,-0x1ec(%rbp)
   16af5:	83 bd 14 fe ff ff 09 	cmpl   $0x9,-0x1ec(%rbp)
   16afc:	7e dc                	jle    16ada <func_69+0x358>
   16afe:	48 c7 05 a7 b8 00 00 	movq   $0x0,0xb8a7(%rip)        # 223b0 <g_115+0x10>
   16b05:	00 00 00 00 
   16b09:	83 85 0c fe ff ff 01 	addl   $0x1,-0x1f4(%rbp)
   16b10:	66 c7 85 e8 fd ff ff 	movw   $0x0,-0x218(%rbp)
   16b17:	00 00 
   16b19:	66 83 bd e8 fd ff ff 	cmpw   $0x35,-0x218(%rbp)
   16b20:	35 
   16b21:	0f 86 83 01 00 00    	jbe    16caa <func_69+0x528>
   16b27:	c6 85 fe fd ff ff fb 	movb   $0xfb,-0x202(%rbp)
   16b2e:	c7 85 28 fe ff ff 01 	movl   $0x1,-0x1d8(%rbp)
   16b35:	00 00 00 
   16b38:	48 8b 05 21 8a 00 00 	mov    0x8a21(%rip),%rax        # 1f560 <g_94+0x480>
   16b3f:	49 89 c5             	mov    %rax,%r13
   16b42:	0f b7 9d e8 fd ff ff 	movzwl -0x218(%rbp),%ebx
   16b49:	8b 85 e0 fd ff ff    	mov    -0x220(%rbp),%eax
   16b4f:	98                   	cwtl   
   16b50:	be 01 00 00 00       	mov    $0x1,%esi
   16b55:	89 c7                	mov    %eax,%edi
   16b57:	e8 99 38 ff ff       	callq  a3f5 <safe_mul_func_int16_t_s_s>
   16b5c:	0f b6 05 71 85 00 00 	movzbl 0x8571(%rip),%eax        # 1f0d4 <g_93>
   16b63:	44 0f be e0          	movsbl %al,%r12d
   16b67:	48 8b 05 a2 89 00 00 	mov    0x89a2(%rip),%rax        # 1f510 <g_94+0x430>
   16b6e:	0f be c0             	movsbl %al,%eax
   16b71:	89 c6                	mov    %eax,%esi
   16b73:	bf 00 00 00 00       	mov    $0x0,%edi
   16b78:	e8 75 36 ff ff       	callq  a1f2 <safe_sub_func_int8_t_s_s>
   16b7d:	8b 85 28 fe ff ff    	mov    -0x1d8(%rbp),%eax
   16b83:	48 ba bd 46 b6 69 f0 	movabs $0xca9757f069b646bd,%rdx
   16b8a:	57 97 ca 
   16b8d:	48 31 c2             	xor    %rax,%rdx
   16b90:	8b 85 e4 fd ff ff    	mov    -0x21c(%rbp),%eax
   16b96:	48 39 c2             	cmp    %rax,%rdx
   16b99:	0f 94 c0             	sete   %al
   16b9c:	0f b6 d0             	movzbl %al,%edx
   16b9f:	48 8b 05 1a 8a 00 00 	mov    0x8a1a(%rip),%rax        # 1f5c0 <g_94+0x4e0>
   16ba6:	48 39 c2             	cmp    %rax,%rdx
   16ba9:	48 8b 85 d8 fd ff ff 	mov    -0x228(%rbp),%rax
   16bb0:	8b 00                	mov    (%rax),%eax
   16bb2:	0f b7 c0             	movzwl %ax,%eax
   16bb5:	44 89 e6             	mov    %r12d,%esi
   16bb8:	89 c7                	mov    %eax,%edi
   16bba:	e8 bb 42 ff ff       	callq  ae7a <safe_rshift_func_uint16_t_u_u>
   16bbf:	66 85 c0             	test   %ax,%ax
   16bc2:	75 0b                	jne    16bcf <func_69+0x44d>
   16bc4:	0f b6 05 09 85 00 00 	movzbl 0x8509(%rip),%eax        # 1f0d4 <g_93>
   16bcb:	84 c0                	test   %al,%al
   16bcd:	74 07                	je     16bd6 <func_69+0x454>
   16bcf:	b8 01 00 00 00       	mov    $0x1,%eax
   16bd4:	eb 05                	jmp    16bdb <func_69+0x459>
   16bd6:	b8 00 00 00 00       	mov    $0x0,%eax
   16bdb:	3d fe 00 00 00       	cmp    $0xfe,%eax
   16be0:	77 0b                	ja     16bed <func_69+0x46b>
   16be2:	48 8b 85 d8 fd ff ff 	mov    -0x228(%rbp),%rax
   16be9:	8b 00                	mov    (%rax),%eax
   16beb:	85 c0                	test   %eax,%eax
   16bed:	be 00 00 00 00       	mov    $0x0,%esi
   16bf2:	bf 01 00 00 00       	mov    $0x1,%edi
   16bf7:	e8 f9 37 ff ff       	callq  a3f5 <safe_mul_func_int16_t_s_s>
   16bfc:	0f bf d0             	movswl %ax,%edx
   16bff:	0f b7 85 e8 fd ff ff 	movzwl -0x218(%rbp),%eax
   16c06:	39 c2                	cmp    %eax,%edx
   16c08:	0f 9d c0             	setge  %al
   16c0b:	0f b6 c0             	movzbl %al,%eax
   16c0e:	89 de                	mov    %ebx,%esi
   16c10:	89 c7                	mov    %eax,%edi
   16c12:	e8 7b 38 ff ff       	callq  a492 <safe_lshift_func_int16_t_s_s>
   16c17:	0f b6 d0             	movzbl %al,%edx
   16c1a:	8b 85 ec fd ff ff    	mov    -0x214(%rbp),%eax
   16c20:	0f b6 c0             	movzbl %al,%eax
   16c23:	89 d6                	mov    %edx,%esi
   16c25:	89 c7                	mov    %eax,%edi
   16c27:	e8 2e 3f ff ff       	callq  ab5a <safe_add_func_uint8_t_u_u>
   16c2c:	0f be d0             	movsbl %al,%edx
   16c2f:	48 8b 05 ba 84 00 00 	mov    0x84ba(%rip),%rax        # 1f0f0 <g_94+0x10>
   16c36:	0f be c0             	movsbl %al,%eax
   16c39:	89 d6                	mov    %edx,%esi
   16c3b:	89 c7                	mov    %eax,%edi
   16c3d:	e8 28 36 ff ff       	callq  a26a <safe_div_func_int8_t_s_s>
   16c42:	0f b6 d0             	movzbl %al,%edx
   16c45:	0f b6 85 fe fd ff ff 	movzbl -0x202(%rbp),%eax
   16c4c:	0f b6 c0             	movzbl %al,%eax
   16c4f:	89 d6                	mov    %edx,%esi
   16c51:	89 c7                	mov    %eax,%edi
   16c53:	e8 56 3f ff ff       	callq  abae <safe_mod_func_uint8_t_u_u>
   16c58:	4c 89 ee             	mov    %r13,%rsi
   16c5b:	bf 00 00 00 00       	mov    $0x0,%edi
   16c60:	e8 4f 3d ff ff       	callq  a9b4 <safe_mod_func_int64_t_s_s>
   16c65:	48 83 f8 46          	cmp    $0x46,%rax
   16c69:	0f 9e c0             	setle  %al
   16c6c:	0f b6 c0             	movzbl %al,%eax
   16c6f:	be 06 00 00 00       	mov    $0x6,%esi
   16c74:	89 c7                	mov    %eax,%edi
   16c76:	e8 26 36 ff ff       	callq  a2a1 <safe_lshift_func_int8_t_s_s>
   16c7b:	0f be d0             	movsbl %al,%edx
   16c7e:	48 8b 85 50 fe ff ff 	mov    -0x1b0(%rbp),%rax
   16c85:	89 10                	mov    %edx,(%rax)
   16c87:	48 8b 85 d8 fd ff ff 	mov    -0x228(%rbp),%rax
   16c8e:	8b 00                	mov    (%rax),%eax
   16c90:	85 c0                	test   %eax,%eax
   16c92:	74 0b                	je     16c9f <func_69+0x51d>
   16c94:	8b 85 18 fe ff ff    	mov    -0x1e8(%rbp),%eax
   16c9a:	e9 d6 02 00 00       	jmpq   16f75 <func_69+0x7f3>
   16c9f:	8b 85 20 fe ff ff    	mov    -0x1e0(%rbp),%eax
   16ca5:	e9 cb 02 00 00       	jmpq   16f75 <func_69+0x7f3>
   16caa:	48 8b 85 d8 fd ff ff 	mov    -0x228(%rbp),%rax
   16cb1:	8b 00                	mov    (%rax),%eax
   16cb3:	85 c0                	test   %eax,%eax
   16cb5:	8b 85 08 fe ff ff    	mov    -0x1f8(%rbp),%eax
   16cbb:	be 01 00 00 00       	mov    $0x1,%esi
   16cc0:	89 c7                	mov    %eax,%edi
   16cc2:	e8 f1 41 ff ff       	callq  aeb8 <safe_add_func_uint32_t_u_u>
   16cc7:	89 85 08 fe ff ff    	mov    %eax,-0x1f8(%rbp)
   16ccd:	83 bd 08 fe ff ff 07 	cmpl   $0x7,-0x1f8(%rbp)
   16cd4:	0f 8e f4 fd ff ff    	jle    16ace <func_69+0x34c>
   16cda:	48 8b 1d a7 86 00 00 	mov    0x86a7(%rip),%rbx        # 1f388 <g_94+0x2a8>
   16ce1:	8b 85 e0 fd ff ff    	mov    -0x220(%rbp),%eax
   16ce7:	0f b7 c0             	movzwl %ax,%eax
   16cea:	be 05 00 00 00       	mov    $0x5,%esi
   16cef:	89 c7                	mov    %eax,%edi
   16cf1:	e8 10 41 ff ff       	callq  ae06 <safe_lshift_func_uint16_t_u_u>
   16cf6:	48 8b 05 e3 89 00 00 	mov    0x89e3(%rip),%rax        # 1f6e0 <g_112>
   16cfd:	89 c2                	mov    %eax,%edx
   16cff:	8b 85 1c fe ff ff    	mov    -0x1e4(%rbp),%eax
   16d05:	31 d0                	xor    %edx,%eax
   16d07:	89 85 1c fe ff ff    	mov    %eax,-0x1e4(%rbp)
   16d0d:	8b 85 ec fd ff ff    	mov    -0x214(%rbp),%eax
   16d13:	44 0f bf e0          	movswl %ax,%r12d
   16d17:	48 8b 8d 10 ff ff ff 	mov    -0xf0(%rbp),%rcx
   16d1e:	48 8b 95 10 ff ff ff 	mov    -0xf0(%rbp),%rdx
   16d25:	48 8b 85 78 fe ff ff 	mov    -0x188(%rbp),%rax
   16d2c:	48 89 10             	mov    %rdx,(%rax)
   16d2f:	48 8b 85 78 fe ff ff 	mov    -0x188(%rbp),%rax
   16d36:	48 8b 00             	mov    (%rax),%rax
   16d39:	48 39 c1             	cmp    %rax,%rcx
   16d3c:	0f 94 c0             	sete   %al
   16d3f:	0f b6 c0             	movzbl %al,%eax
   16d42:	be 02 00 00 00       	mov    $0x2,%esi
   16d47:	89 c7                	mov    %eax,%edi
   16d49:	e8 1e 36 ff ff       	callq  a36c <safe_rshift_func_int8_t_s_u>
   16d4e:	0f be d0             	movsbl %al,%edx
   16d51:	8b 85 ec fd ff ff    	mov    -0x214(%rbp),%eax
   16d57:	23 85 e4 fd ff ff    	and    -0x21c(%rbp),%eax
   16d5d:	39 c2                	cmp    %eax,%edx
   16d5f:	75 36                	jne    16d97 <func_69+0x615>
   16d61:	8b 85 d8 fe ff ff    	mov    -0x128(%rbp),%eax
   16d67:	0f b7 d0             	movzwl %ax,%edx
   16d6a:	8b 85 e4 fd ff ff    	mov    -0x21c(%rbp),%eax
   16d70:	89 c1                	mov    %eax,%ecx
   16d72:	48 8b 85 80 fe ff ff 	mov    -0x180(%rbp),%rax
   16d79:	66 89 08             	mov    %cx,(%rax)
   16d7c:	48 8b 85 80 fe ff ff 	mov    -0x180(%rbp),%rax
   16d83:	0f b7 00             	movzwl (%rax),%eax
   16d86:	0f b7 c0             	movzwl %ax,%eax
   16d89:	89 d6                	mov    %edx,%esi
   16d8b:	89 c7                	mov    %eax,%edi
   16d8d:	e8 ca 3f ff ff       	callq  ad5c <safe_mod_func_uint16_t_u_u>
   16d92:	66 85 c0             	test   %ax,%ax
   16d95:	74 08                	je     16d9f <func_69+0x61d>
   16d97:	8b 85 b4 fe ff ff    	mov    -0x14c(%rbp),%eax
   16d9d:	85 c0                	test   %eax,%eax
   16d9f:	44 89 e6             	mov    %r12d,%esi
   16da2:	bf 05 00 00 00       	mov    $0x5,%edi
   16da7:	e8 49 36 ff ff       	callq  a3f5 <safe_mul_func_int16_t_s_s>
   16dac:	89 c2                	mov    %eax,%edx
   16dae:	48 8b 85 88 fe ff ff 	mov    -0x178(%rbp),%rax
   16db5:	88 10                	mov    %dl,(%rax)
   16db7:	48 8b 85 88 fe ff ff 	mov    -0x178(%rbp),%rax
   16dbe:	0f b6 10             	movzbl (%rax),%edx
   16dc1:	48 8b 85 90 fe ff ff 	mov    -0x170(%rbp),%rax
   16dc8:	88 10                	mov    %dl,(%rax)
   16dca:	48 8b 05 b7 84 00 00 	mov    0x84b7(%rip),%rax        # 1f288 <g_94+0x1a8>
   16dd1:	48 83 f8 01          	cmp    $0x1,%rax
   16dd5:	0f 95 c0             	setne  %al
   16dd8:	0f b6 c0             	movzbl %al,%eax
   16ddb:	39 85 18 fe ff ff    	cmp    %eax,-0x1e8(%rbp)
   16de1:	0f 94 c0             	sete   %al
   16de4:	0f b6 c0             	movzbl %al,%eax
   16de7:	48 89 85 60 fe ff ff 	mov    %rax,-0x1a0(%rbp)
   16dee:	48 83 bd 60 fe ff ff 	cmpq   $0x0,-0x1a0(%rbp)
   16df5:	00 
   16df6:	0f 94 c0             	sete   %al
   16df9:	0f b6 c0             	movzbl %al,%eax
   16dfc:	8b 95 e4 fd ff ff    	mov    -0x21c(%rbp),%edx
   16e02:	89 d6                	mov    %edx,%esi
   16e04:	89 c7                	mov    %eax,%edi
   16e06:	e8 61 35 ff ff       	callq  a36c <safe_rshift_func_int8_t_s_u>
   16e0b:	48 0f be c0          	movsbq %al,%rax
   16e0f:	48 89 de             	mov    %rbx,%rsi
   16e12:	48 89 c7             	mov    %rax,%rdi
   16e15:	e8 95 42 ff ff       	callq  b0af <safe_div_func_uint64_t_u_u>
   16e1a:	83 bd e4 fd ff ff 01 	cmpl   $0x1,-0x21c(%rbp)
   16e21:	0f 94 c0             	sete   %al
   16e24:	0f b6 c0             	movzbl %al,%eax
   16e27:	39 85 24 fe ff ff    	cmp    %eax,-0x1dc(%rbp)
   16e2d:	0f 94 c0             	sete   %al
   16e30:	0f b6 d0             	movzbl %al,%edx
   16e33:	48 8b 85 50 fe ff ff 	mov    -0x1b0(%rbp),%rax
   16e3a:	89 10                	mov    %edx,(%rax)
   16e3c:	48 8b 85 d8 fd ff ff 	mov    -0x228(%rbp),%rax
   16e43:	8b 10                	mov    (%rax),%edx
   16e45:	48 8b 85 50 fe ff ff 	mov    -0x1b0(%rbp),%rax
   16e4c:	89 10                	mov    %edx,(%rax)
   16e4e:	48 8b 85 50 fe ff ff 	mov    -0x1b0(%rbp),%rax
   16e55:	8b 00                	mov    (%rax),%eax
   16e57:	89 85 ac fe ff ff    	mov    %eax,-0x154(%rbp)
   16e5d:	48 8b 95 40 fe ff ff 	mov    -0x1c0(%rbp),%rdx
   16e64:	48 8b 85 98 fe ff ff 	mov    -0x168(%rbp),%rax
   16e6b:	48 89 10             	mov    %rdx,(%rax)
   16e6e:	0f b7 95 00 fe ff ff 	movzwl -0x200(%rbp),%edx
   16e75:	48 8b 85 50 fe ff ff 	mov    -0x1b0(%rbp),%rax
   16e7c:	89 10                	mov    %edx,(%rax)
   16e7e:	8b 85 e4 fd ff ff    	mov    -0x21c(%rbp),%eax
   16e84:	0f b7 d8             	movzwl %ax,%ebx
   16e87:	48 8b 85 d8 fd ff ff 	mov    -0x228(%rbp),%rax
   16e8e:	44 8b 28             	mov    (%rax),%r13d
   16e91:	48 8b 05 78 86 00 00 	mov    0x8678(%rip),%rax        # 1f510 <g_94+0x430>
   16e98:	48 83 c8 01          	or     $0x1,%rax
   16e9c:	48 89 05 6d 86 00 00 	mov    %rax,0x866d(%rip)        # 1f510 <g_94+0x430>
   16ea3:	8b 05 1f d4 00 00    	mov    0xd41f(%rip),%eax        # 242c8 <g_3>
   16ea9:	85 c0                	test   %eax,%eax
   16eab:	74 15                	je     16ec2 <func_69+0x740>
   16ead:	eb 0c                	jmp    16ebb <func_69+0x739>
   16eaf:	0f b7 05 16 d4 00 00 	movzwl 0xd416(%rip),%eax        # 242cc <g_49>
   16eb6:	e9 ba 00 00 00       	jmpq   16f75 <func_69+0x7f3>
   16ebb:	b8 01 00 00 00       	mov    $0x1,%eax
   16ec0:	eb 05                	jmp    16ec7 <func_69+0x745>
   16ec2:	b8 00 00 00 00       	mov    $0x0,%eax
   16ec7:	44 0f b6 e0          	movzbl %al,%r12d
   16ecb:	8b 85 ec fd ff ff    	mov    -0x214(%rbp),%eax
   16ed1:	0f b7 c0             	movzwl %ax,%eax
   16ed4:	89 c6                	mov    %eax,%esi
   16ed6:	bf 91 5a 00 00       	mov    $0x5a91,%edi
   16edb:	e8 7c 3e ff ff       	callq  ad5c <safe_mod_func_uint16_t_u_u>
   16ee0:	0f b6 c0             	movzbl %al,%eax
   16ee3:	89 c6                	mov    %eax,%esi
   16ee5:	bf ff 00 00 00       	mov    $0xff,%edi
   16eea:	e8 a4 3c ff ff       	callq  ab93 <safe_mul_func_uint8_t_u_u>
   16eef:	0f b6 c0             	movzbl %al,%eax
   16ef2:	44 89 e6             	mov    %r12d,%esi
   16ef5:	89 c7                	mov    %eax,%edi
   16ef7:	e8 97 3c ff ff       	callq  ab93 <safe_mul_func_uint8_t_u_u>
   16efc:	0f b6 d0             	movzbl %al,%edx
   16eff:	8b 05 cb 81 00 00    	mov    0x81cb(%rip),%eax        # 1f0d0 <g_28>
   16f05:	39 c2                	cmp    %eax,%edx
   16f07:	0f 94 c0             	sete   %al
   16f0a:	0f b6 c0             	movzbl %al,%eax
   16f0d:	48 8b 15 cc 87 00 00 	mov    0x87cc(%rip),%rdx        # 1f6e0 <g_112>
   16f14:	89 c6                	mov    %eax,%esi
   16f16:	89 d7                	mov    %edx,%edi
   16f18:	e8 9b 3f ff ff       	callq  aeb8 <safe_add_func_uint32_t_u_u>
   16f1d:	48 8b 95 d8 fd ff ff 	mov    -0x228(%rbp),%rdx
   16f24:	8b 12                	mov    (%rdx),%edx
   16f26:	39 d0                	cmp    %edx,%eax
   16f28:	0f 95 c0             	setne  %al
   16f2b:	0f b6 d0             	movzbl %al,%edx
   16f2e:	8b 85 ec fd ff ff    	mov    -0x214(%rbp),%eax
   16f34:	0f b6 c0             	movzbl %al,%eax
   16f37:	89 d6                	mov    %edx,%esi
   16f39:	89 c7                	mov    %eax,%edi
   16f3b:	e8 1a 3c ff ff       	callq  ab5a <safe_add_func_uint8_t_u_u>
   16f40:	0f b6 c0             	movzbl %al,%eax
   16f43:	41 39 c5             	cmp    %eax,%r13d
   16f46:	0f 9d c0             	setge  %al
   16f49:	0f b6 d0             	movzbl %al,%edx
   16f4c:	8b 05 76 d3 00 00    	mov    0xd376(%rip),%eax        # 242c8 <g_3>
   16f52:	39 c2                	cmp    %eax,%edx
   16f54:	0f 9e c0             	setle  %al
   16f57:	0f b6 c0             	movzbl %al,%eax
   16f5a:	89 de                	mov    %ebx,%esi
   16f5c:	89 c7                	mov    %eax,%edi
   16f5e:	e8 9c 3d ff ff       	callq  acff <safe_add_func_uint16_t_u_u>
   16f63:	0f b7 d0             	movzwl %ax,%edx
   16f66:	48 8b 85 50 fe ff ff 	mov    -0x1b0(%rbp),%rax
   16f6d:	89 10                	mov    %edx,(%rax)
   16f6f:	8b 85 ec fd ff ff    	mov    -0x214(%rbp),%eax
   16f75:	48 8b 4d d8          	mov    -0x28(%rbp),%rcx
   16f79:	64 48 33 0c 25 28 00 	xor    %fs:0x28,%rcx
   16f80:	00 00 
   16f82:	74 05                	je     16f89 <func_69+0x807>
   16f84:	e8 e7 30 ff ff       	callq  a070 <__stack_chk_fail@plt>
   16f89:	48 81 c4 18 02 00 00 	add    $0x218,%rsp
   16f90:	5b                   	pop    %rbx
   16f91:	41 5c                	pop    %r12
   16f93:	41 5d                	pop    %r13
   16f95:	5d                   	pop    %rbp
   16f96:	c3                   	retq   

0000000000016f97 <main>:
   16f97:	f3 0f 1e fa          	endbr64 
   16f9b:	55                   	push   %rbp
   16f9c:	48 89 e5             	mov    %rsp,%rbp
   16f9f:	48 83 ec 20          	sub    $0x20,%rsp
   16fa3:	89 7d ec             	mov    %edi,-0x14(%rbp)
   16fa6:	48 89 75 e0          	mov    %rsi,-0x20(%rbp)
   16faa:	c7 45 fc 00 00 00 00 	movl   $0x0,-0x4(%rbp)
   16fb1:	83 7d ec 02          	cmpl   $0x2,-0x14(%rbp)
   16fb5:	75 25                	jne    16fdc <main+0x45>
   16fb7:	48 8b 45 e0          	mov    -0x20(%rbp),%rax
   16fbb:	48 83 c0 08          	add    $0x8,%rax
   16fbf:	48 8b 00             	mov    (%rax),%rax
   16fc2:	48 8d 35 f7 44 00 00 	lea    0x44f7(%rip),%rsi        # 1b4c0 <g_2156+0xfe0>
   16fc9:	48 89 c7             	mov    %rax,%rdi
   16fcc:	e8 bf 30 ff ff       	callq  a090 <strcmp@plt>
   16fd1:	85 c0                	test   %eax,%eax
   16fd3:	75 07                	jne    16fdc <main+0x45>
   16fd5:	c7 45 fc 01 00 00 00 	movl   $0x1,-0x4(%rbp)
   16fdc:	e8 a8 31 ff ff       	callq  a189 <platform_main_begin>
   16fe1:	e8 b2 45 ff ff       	callq  b598 <crc32_gentab>
   16fe6:	e8 ca 47 ff ff       	callq  b7b5 <func_1>
   16feb:	c7 45 f0 00 00 00 00 	movl   $0x0,-0x10(%rbp)
   16ff2:	e9 b0 00 00 00       	jmpq   170a7 <main+0x110>
   16ff7:	c7 45 f4 00 00 00 00 	movl   $0x0,-0xc(%rbp)
   16ffe:	e9 96 00 00 00       	jmpq   17099 <main+0x102>
   17003:	c7 45 f8 00 00 00 00 	movl   $0x0,-0x8(%rbp)
   1700a:	eb 7f                	jmp    1708b <main+0xf4>
   1700c:	8b 45 f8             	mov    -0x8(%rbp),%eax
   1700f:	48 63 f0             	movslq %eax,%rsi
   17012:	8b 45 f0             	mov    -0x10(%rbp),%eax
   17015:	48 63 d0             	movslq %eax,%rdx
   17018:	8b 45 f4             	mov    -0xc(%rbp),%eax
   1701b:	48 63 c8             	movslq %eax,%rcx
   1701e:	48 89 d0             	mov    %rdx,%rax
   17021:	48 c1 e0 03          	shl    $0x3,%rax
   17025:	48 01 d0             	add    %rdx,%rax
   17028:	48 c1 e0 02          	shl    $0x2,%rax
   1702c:	48 29 d0             	sub    %rdx,%rax
   1702f:	48 89 ca             	mov    %rcx,%rdx
   17032:	48 c1 e2 03          	shl    $0x3,%rdx
   17036:	48 29 ca             	sub    %rcx,%rdx
   17039:	48 01 d0             	add    %rdx,%rax
   1703c:	48 01 f0             	add    %rsi,%rax
   1703f:	48 8d 14 85 00 00 00 	lea    0x0(,%rax,4),%rdx
   17046:	00 
   17047:	48 8d 05 f2 7f 00 00 	lea    0x7ff2(%rip),%rax        # 1f040 <g_2>
   1704e:	8b 04 02             	mov    (%rdx,%rax,1),%eax
   17051:	48 98                	cltq   
   17053:	8b 55 fc             	mov    -0x4(%rbp),%edx
   17056:	48 8d 35 65 44 00 00 	lea    0x4465(%rip),%rsi        # 1b4c2 <g_2156+0xfe2>
   1705d:	48 89 c7             	mov    %rax,%rdi
   17060:	e8 8e 46 ff ff       	callq  b6f3 <transparent_crc>
   17065:	83 7d fc 00          	cmpl   $0x0,-0x4(%rbp)
   17069:	74 1c                	je     17087 <main+0xf0>
   1706b:	8b 4d f8             	mov    -0x8(%rbp),%ecx
   1706e:	8b 55 f4             	mov    -0xc(%rbp),%edx
   17071:	8b 45 f0             	mov    -0x10(%rbp),%eax
   17074:	89 c6                	mov    %eax,%esi
   17076:	48 8d 3d 52 44 00 00 	lea    0x4452(%rip),%rdi        # 1b4cf <g_2156+0xfef>
   1707d:	b8 00 00 00 00       	mov    $0x0,%eax
   17082:	e8 f9 2f ff ff       	callq  a080 <printf@plt>
   17087:	83 45 f8 01          	addl   $0x1,-0x8(%rbp)
   1708b:	83 7d f8 06          	cmpl   $0x6,-0x8(%rbp)
   1708f:	0f 8e 77 ff ff ff    	jle    1700c <main+0x75>
   17095:	83 45 f4 01          	addl   $0x1,-0xc(%rbp)
   17099:	83 7d f4 04          	cmpl   $0x4,-0xc(%rbp)
   1709d:	0f 8e 60 ff ff ff    	jle    17003 <main+0x6c>
   170a3:	83 45 f0 01          	addl   $0x1,-0x10(%rbp)
   170a7:	83 7d f0 00          	cmpl   $0x0,-0x10(%rbp)
   170ab:	0f 8e 46 ff ff ff    	jle    16ff7 <main+0x60>
   170b1:	8b 05 11 d2 00 00    	mov    0xd211(%rip),%eax        # 242c8 <g_3>
   170b7:	48 98                	cltq   
   170b9:	8b 55 fc             	mov    -0x4(%rbp),%edx
   170bc:	48 8d 35 22 44 00 00 	lea    0x4422(%rip),%rsi        # 1b4e5 <g_2156+0x1005>
   170c3:	48 89 c7             	mov    %rax,%rdi
   170c6:	e8 28 46 ff ff       	callq  b6f3 <transparent_crc>
   170cb:	8b 05 fb 7f 00 00    	mov    0x7ffb(%rip),%eax        # 1f0cc <g_7>
   170d1:	48 98                	cltq   
   170d3:	8b 55 fc             	mov    -0x4(%rbp),%edx
   170d6:	48 8d 35 0c 44 00 00 	lea    0x440c(%rip),%rsi        # 1b4e9 <g_2156+0x1009>
   170dd:	48 89 c7             	mov    %rax,%rdi
   170e0:	e8 0e 46 ff ff       	callq  b6f3 <transparent_crc>
   170e5:	8b 05 e5 7f 00 00    	mov    0x7fe5(%rip),%eax        # 1f0d0 <g_28>
   170eb:	89 c1                	mov    %eax,%ecx
   170ed:	8b 45 fc             	mov    -0x4(%rbp),%eax
   170f0:	89 c2                	mov    %eax,%edx
   170f2:	48 8d 35 f4 43 00 00 	lea    0x43f4(%rip),%rsi        # 1b4ed <g_2156+0x100d>
   170f9:	48 89 cf             	mov    %rcx,%rdi
   170fc:	e8 f2 45 ff ff       	callq  b6f3 <transparent_crc>
   17101:	0f b7 05 c4 d1 00 00 	movzwl 0xd1c4(%rip),%eax        # 242cc <g_49>
   17108:	0f b7 c0             	movzwl %ax,%eax
   1710b:	8b 55 fc             	mov    -0x4(%rbp),%edx
   1710e:	48 8d 35 dd 43 00 00 	lea    0x43dd(%rip),%rsi        # 1b4f2 <g_2156+0x1012>
   17115:	48 89 c7             	mov    %rax,%rdi
   17118:	e8 d6 45 ff ff       	callq  b6f3 <transparent_crc>
   1711d:	0f b6 05 b0 7f 00 00 	movzbl 0x7fb0(%rip),%eax        # 1f0d4 <g_93>
   17124:	48 0f be c0          	movsbq %al,%rax
   17128:	8b 55 fc             	mov    -0x4(%rbp),%edx
   1712b:	48 8d 35 c5 43 00 00 	lea    0x43c5(%rip),%rsi        # 1b4f7 <g_2156+0x1017>
   17132:	48 89 c7             	mov    %rax,%rdi
   17135:	e8 b9 45 ff ff       	callq  b6f3 <transparent_crc>
   1713a:	c7 45 f0 00 00 00 00 	movl   $0x0,-0x10(%rbp)
   17141:	e9 9d 00 00 00       	jmpq   171e3 <main+0x24c>
   17146:	c7 45 f4 00 00 00 00 	movl   $0x0,-0xc(%rbp)
   1714d:	e9 83 00 00 00       	jmpq   171d5 <main+0x23e>
   17152:	c7 45 f8 00 00 00 00 	movl   $0x0,-0x8(%rbp)
   17159:	eb 70                	jmp    171cb <main+0x234>
   1715b:	8b 45 f8             	mov    -0x8(%rbp),%eax
   1715e:	48 63 c8             	movslq %eax,%rcx
   17161:	8b 45 f0             	mov    -0x10(%rbp),%eax
   17164:	48 63 d0             	movslq %eax,%rdx
   17167:	8b 45 f4             	mov    -0xc(%rbp),%eax
   1716a:	48 63 f0             	movslq %eax,%rsi
   1716d:	48 89 d0             	mov    %rdx,%rax
   17170:	48 01 c0             	add    %rax,%rax
   17173:	48 01 d0             	add    %rdx,%rax
   17176:	48 01 f0             	add    %rsi,%rax
   17179:	48 c1 e0 03          	shl    $0x3,%rax
   1717d:	48 01 c8             	add    %rcx,%rax
   17180:	48 8d 14 c5 00 00 00 	lea    0x0(,%rax,8),%rdx
   17187:	00 
   17188:	48 8d 05 51 7f 00 00 	lea    0x7f51(%rip),%rax        # 1f0e0 <g_94>
   1718f:	48 8b 04 02          	mov    (%rdx,%rax,1),%rax
   17193:	8b 55 fc             	mov    -0x4(%rbp),%edx
   17196:	48 8d 35 5f 43 00 00 	lea    0x435f(%rip),%rsi        # 1b4fc <g_2156+0x101c>
   1719d:	48 89 c7             	mov    %rax,%rdi
   171a0:	e8 4e 45 ff ff       	callq  b6f3 <transparent_crc>
   171a5:	83 7d fc 00          	cmpl   $0x0,-0x4(%rbp)
   171a9:	74 1c                	je     171c7 <main+0x230>
   171ab:	8b 4d f8             	mov    -0x8(%rbp),%ecx
   171ae:	8b 55 f4             	mov    -0xc(%rbp),%edx
   171b1:	8b 45 f0             	mov    -0x10(%rbp),%eax
   171b4:	89 c6                	mov    %eax,%esi
   171b6:	48 8d 3d 12 43 00 00 	lea    0x4312(%rip),%rdi        # 1b4cf <g_2156+0xfef>
   171bd:	b8 00 00 00 00       	mov    $0x0,%eax
   171c2:	e8 b9 2e ff ff       	callq  a080 <printf@plt>
   171c7:	83 45 f8 01          	addl   $0x1,-0x8(%rbp)
   171cb:	83 7d f8 07          	cmpl   $0x7,-0x8(%rbp)
   171cf:	7e 8a                	jle    1715b <main+0x1c4>
   171d1:	83 45 f4 01          	addl   $0x1,-0xc(%rbp)
   171d5:	83 7d f4 02          	cmpl   $0x2,-0xc(%rbp)
   171d9:	0f 8e 73 ff ff ff    	jle    17152 <main+0x1bb>
   171df:	83 45 f0 01          	addl   $0x1,-0x10(%rbp)
   171e3:	83 7d f0 07          	cmpl   $0x7,-0x10(%rbp)
   171e7:	0f 8e 59 ff ff ff    	jle    17146 <main+0x1af>
   171ed:	48 8b 05 ec 84 00 00 	mov    0x84ec(%rip),%rax        # 1f6e0 <g_112>
   171f4:	8b 55 fc             	mov    -0x4(%rbp),%edx
   171f7:	48 8d 35 0c 43 00 00 	lea    0x430c(%rip),%rsi        # 1b50a <g_2156+0x102a>
   171fe:	48 89 c7             	mov    %rax,%rdi
   17201:	e8 ed 44 ff ff       	callq  b6f3 <transparent_crc>
   17206:	0f b6 05 db 84 00 00 	movzbl 0x84db(%rip),%eax        # 1f6e8 <g_167>
   1720d:	0f b6 c0             	movzbl %al,%eax
   17210:	8b 55 fc             	mov    -0x4(%rbp),%edx
   17213:	48 8d 35 f6 42 00 00 	lea    0x42f6(%rip),%rsi        # 1b510 <g_2156+0x1030>
   1721a:	48 89 c7             	mov    %rax,%rdi
   1721d:	e8 d1 44 ff ff       	callq  b6f3 <transparent_crc>
   17222:	0f b6 05 c0 84 00 00 	movzbl 0x84c0(%rip),%eax        # 1f6e9 <g_169>
   17229:	0f b6 c0             	movzbl %al,%eax
   1722c:	8b 55 fc             	mov    -0x4(%rbp),%edx
   1722f:	48 8d 35 e0 42 00 00 	lea    0x42e0(%rip),%rsi        # 1b516 <g_2156+0x1036>
   17236:	48 89 c7             	mov    %rax,%rdi
   17239:	e8 b5 44 ff ff       	callq  b6f3 <transparent_crc>
   1723e:	c7 45 f0 00 00 00 00 	movl   $0x0,-0x10(%rbp)
   17245:	eb 67                	jmp    172ae <main+0x317>
   17247:	c7 45 f4 00 00 00 00 	movl   $0x0,-0xc(%rbp)
   1724e:	eb 54                	jmp    172a4 <main+0x30d>
   17250:	8b 45 f4             	mov    -0xc(%rbp),%eax
   17253:	48 63 d0             	movslq %eax,%rdx
   17256:	8b 45 f0             	mov    -0x10(%rbp),%eax
   17259:	48 98                	cltq   
   1725b:	48 01 c2             	add    %rax,%rdx
   1725e:	48 8d 05 8b 84 00 00 	lea    0x848b(%rip),%rax        # 1f6f0 <g_190>
   17265:	48 01 d0             	add    %rdx,%rax
   17268:	0f b6 00             	movzbl (%rax),%eax
   1726b:	48 0f be c0          	movsbq %al,%rax
   1726f:	8b 55 fc             	mov    -0x4(%rbp),%edx
   17272:	48 8d 35 a3 42 00 00 	lea    0x42a3(%rip),%rsi        # 1b51c <g_2156+0x103c>
   17279:	48 89 c7             	mov    %rax,%rdi
   1727c:	e8 72 44 ff ff       	callq  b6f3 <transparent_crc>
   17281:	83 7d fc 00          	cmpl   $0x0,-0x4(%rbp)
   17285:	74 19                	je     172a0 <main+0x309>
   17287:	8b 55 f4             	mov    -0xc(%rbp),%edx
   1728a:	8b 45 f0             	mov    -0x10(%rbp),%eax
   1728d:	89 c6                	mov    %eax,%esi
   1728f:	48 8d 3d 92 42 00 00 	lea    0x4292(%rip),%rdi        # 1b528 <g_2156+0x1048>
   17296:	b8 00 00 00 00       	mov    $0x0,%eax
   1729b:	e8 e0 2d ff ff       	callq  a080 <printf@plt>
   172a0:	83 45 f4 01          	addl   $0x1,-0xc(%rbp)
   172a4:	83 7d f4 00          	cmpl   $0x0,-0xc(%rbp)
   172a8:	7e a6                	jle    17250 <main+0x2b9>
   172aa:	83 45 f0 01          	addl   $0x1,-0x10(%rbp)
   172ae:	83 7d f0 09          	cmpl   $0x9,-0x10(%rbp)
   172b2:	7e 93                	jle    17247 <main+0x2b0>
   172b4:	0f b6 05 3f 84 00 00 	movzbl 0x843f(%rip),%eax        # 1f6fa <g_191>
   172bb:	48 0f be c0          	movsbq %al,%rax
   172bf:	8b 55 fc             	mov    -0x4(%rbp),%edx
   172c2:	48 8d 35 71 42 00 00 	lea    0x4271(%rip),%rsi        # 1b53a <g_2156+0x105a>
   172c9:	48 89 c7             	mov    %rax,%rdi
   172cc:	e8 22 44 ff ff       	callq  b6f3 <transparent_crc>
   172d1:	8b 05 29 84 00 00    	mov    0x8429(%rip),%eax        # 1f700 <g_264>
   172d7:	89 c1                	mov    %eax,%ecx
   172d9:	8b 45 fc             	mov    -0x4(%rbp),%eax
   172dc:	89 c2                	mov    %eax,%edx
   172de:	48 8d 35 5b 42 00 00 	lea    0x425b(%rip),%rsi        # 1b540 <g_2156+0x1060>
   172e5:	48 89 cf             	mov    %rcx,%rdi
   172e8:	e8 06 44 ff ff       	callq  b6f3 <transparent_crc>
   172ed:	8b 05 11 84 00 00    	mov    0x8411(%rip),%eax        # 1f704 <g_264+0x4>
   172f3:	48 98                	cltq   
   172f5:	8b 55 fc             	mov    -0x4(%rbp),%edx
   172f8:	48 8d 35 4a 42 00 00 	lea    0x424a(%rip),%rsi        # 1b549 <g_2156+0x1069>
   172ff:	48 89 c7             	mov    %rax,%rdi
   17302:	e8 ec 43 ff ff       	callq  b6f3 <transparent_crc>
   17307:	48 8b 05 fa 83 00 00 	mov    0x83fa(%rip),%rax        # 1f708 <g_264+0x8>
   1730e:	48 89 c1             	mov    %rax,%rcx
   17311:	8b 45 fc             	mov    -0x4(%rbp),%eax
   17314:	89 c2                	mov    %eax,%edx
   17316:	48 8d 35 35 42 00 00 	lea    0x4235(%rip),%rsi        # 1b552 <g_2156+0x1072>
   1731d:	48 89 cf             	mov    %rcx,%rdi
   17320:	e8 ce 43 ff ff       	callq  b6f3 <transparent_crc>
   17325:	c7 45 f0 00 00 00 00 	movl   $0x0,-0x10(%rbp)
   1732c:	eb 4e                	jmp    1737c <main+0x3e5>
   1732e:	8b 45 f0             	mov    -0x10(%rbp),%eax
   17331:	48 98                	cltq   
   17333:	48 8d 14 c5 00 00 00 	lea    0x0(,%rax,8),%rdx
   1733a:	00 
   1733b:	48 8d 05 9e cf 00 00 	lea    0xcf9e(%rip),%rax        # 242e0 <g_316>
   17342:	0f b6 04 02          	movzbl (%rdx,%rax,1),%eax
   17346:	48 0f be c0          	movsbq %al,%rax
   1734a:	8b 55 fc             	mov    -0x4(%rbp),%edx
   1734d:	48 8d 35 07 42 00 00 	lea    0x4207(%rip),%rsi        # 1b55b <g_2156+0x107b>
   17354:	48 89 c7             	mov    %rax,%rdi
   17357:	e8 97 43 ff ff       	callq  b6f3 <transparent_crc>
   1735c:	83 7d fc 00          	cmpl   $0x0,-0x4(%rbp)
   17360:	74 16                	je     17378 <main+0x3e1>
   17362:	8b 45 f0             	mov    -0x10(%rbp),%eax
   17365:	89 c6                	mov    %eax,%esi
   17367:	48 8d 3d f9 41 00 00 	lea    0x41f9(%rip),%rdi        # 1b567 <g_2156+0x1087>
   1736e:	b8 00 00 00 00       	mov    $0x0,%eax
   17373:	e8 08 2d ff ff       	callq  a080 <printf@plt>
   17378:	83 45 f0 01          	addl   $0x1,-0x10(%rbp)
   1737c:	83 7d f0 00          	cmpl   $0x0,-0x10(%rbp)
   17380:	7e ac                	jle    1732e <main+0x397>
   17382:	8b 05 88 83 00 00    	mov    0x8388(%rip),%eax        # 1f710 <g_319>
   17388:	48 98                	cltq   
   1738a:	8b 55 fc             	mov    -0x4(%rbp),%edx
   1738d:	48 8d 35 e1 41 00 00 	lea    0x41e1(%rip),%rsi        # 1b575 <g_2156+0x1095>
   17394:	48 89 c7             	mov    %rax,%rdi
   17397:	e8 57 43 ff ff       	callq  b6f3 <transparent_crc>
   1739c:	c7 45 f0 00 00 00 00 	movl   $0x0,-0x10(%rbp)
   173a3:	eb 4a                	jmp    173ef <main+0x458>
   173a5:	8b 45 f0             	mov    -0x10(%rbp),%eax
   173a8:	48 98                	cltq   
   173aa:	48 8d 14 00          	lea    (%rax,%rax,1),%rdx
   173ae:	48 8d 05 63 83 00 00 	lea    0x8363(%rip),%rax        # 1f718 <g_332>
   173b5:	0f b7 04 02          	movzwl (%rdx,%rax,1),%eax
   173b9:	48 0f bf c0          	movswq %ax,%rax
   173bd:	8b 55 fc             	mov    -0x4(%rbp),%edx
   173c0:	48 8d 35 b4 41 00 00 	lea    0x41b4(%rip),%rsi        # 1b57b <g_2156+0x109b>
   173c7:	48 89 c7             	mov    %rax,%rdi
   173ca:	e8 24 43 ff ff       	callq  b6f3 <transparent_crc>
   173cf:	83 7d fc 00          	cmpl   $0x0,-0x4(%rbp)
   173d3:	74 16                	je     173eb <main+0x454>
   173d5:	8b 45 f0             	mov    -0x10(%rbp),%eax
   173d8:	89 c6                	mov    %eax,%esi
   173da:	48 8d 3d 86 41 00 00 	lea    0x4186(%rip),%rdi        # 1b567 <g_2156+0x1087>
   173e1:	b8 00 00 00 00       	mov    $0x0,%eax
   173e6:	e8 95 2c ff ff       	callq  a080 <printf@plt>
   173eb:	83 45 f0 01          	addl   $0x1,-0x10(%rbp)
   173ef:	83 7d f0 04          	cmpl   $0x4,-0x10(%rbp)
   173f3:	7e b0                	jle    173a5 <main+0x40e>
   173f5:	8b 05 29 83 00 00    	mov    0x8329(%rip),%eax        # 1f724 <g_386>
   173fb:	89 c1                	mov    %eax,%ecx
   173fd:	8b 45 fc             	mov    -0x4(%rbp),%eax
   17400:	89 c2                	mov    %eax,%edx
   17402:	48 8d 35 7b 41 00 00 	lea    0x417b(%rip),%rsi        # 1b584 <g_2156+0x10a4>
   17409:	48 89 cf             	mov    %rcx,%rdi
   1740c:	e8 e2 42 ff ff       	callq  b6f3 <transparent_crc>
   17411:	48 8b 05 10 83 00 00 	mov    0x8310(%rip),%rax        # 1f728 <g_417>
   17418:	48 89 c1             	mov    %rax,%rcx
   1741b:	8b 45 fc             	mov    -0x4(%rbp),%eax
   1741e:	89 c2                	mov    %eax,%edx
   17420:	48 8d 35 63 41 00 00 	lea    0x4163(%rip),%rsi        # 1b58a <g_2156+0x10aa>
   17427:	48 89 cf             	mov    %rcx,%rdi
   1742a:	e8 c4 42 ff ff       	callq  b6f3 <transparent_crc>
   1742f:	8b 05 fb 82 00 00    	mov    0x82fb(%rip),%eax        # 1f730 <g_482>
   17435:	48 98                	cltq   
   17437:	8b 55 fc             	mov    -0x4(%rbp),%edx
   1743a:	48 8d 35 4f 41 00 00 	lea    0x414f(%rip),%rsi        # 1b590 <g_2156+0x10b0>
   17441:	48 89 c7             	mov    %rax,%rdi
   17444:	e8 aa 42 ff ff       	callq  b6f3 <transparent_crc>
   17449:	48 8b 05 e8 82 00 00 	mov    0x82e8(%rip),%rax        # 1f738 <g_512>
   17450:	48 89 c1             	mov    %rax,%rcx
   17453:	8b 45 fc             	mov    -0x4(%rbp),%eax
   17456:	89 c2                	mov    %eax,%edx
   17458:	48 8d 35 37 41 00 00 	lea    0x4137(%rip),%rsi        # 1b596 <g_2156+0x10b6>
   1745f:	48 89 cf             	mov    %rcx,%rdi
   17462:	e8 8c 42 ff ff       	callq  b6f3 <transparent_crc>
   17467:	8b 05 d3 82 00 00    	mov    0x82d3(%rip),%eax        # 1f740 <g_523>
   1746d:	48 98                	cltq   
   1746f:	8b 55 fc             	mov    -0x4(%rbp),%edx
   17472:	48 8d 35 23 41 00 00 	lea    0x4123(%rip),%rsi        # 1b59c <g_2156+0x10bc>
   17479:	48 89 c7             	mov    %rax,%rdi
   1747c:	e8 72 42 ff ff       	callq  b6f3 <transparent_crc>
   17481:	8b 05 bd 82 00 00    	mov    0x82bd(%rip),%eax        # 1f744 <g_529>
   17487:	48 98                	cltq   
   17489:	8b 55 fc             	mov    -0x4(%rbp),%edx
   1748c:	48 8d 35 0f 41 00 00 	lea    0x410f(%rip),%rsi        # 1b5a2 <g_2156+0x10c2>
   17493:	48 89 c7             	mov    %rax,%rdi
   17496:	e8 58 42 ff ff       	callq  b6f3 <transparent_crc>
   1749b:	8b 05 af 82 00 00    	mov    0x82af(%rip),%eax        # 1f750 <g_540>
   174a1:	89 c1                	mov    %eax,%ecx
   174a3:	8b 45 fc             	mov    -0x4(%rbp),%eax
   174a6:	89 c2                	mov    %eax,%edx
   174a8:	48 8d 35 f9 40 00 00 	lea    0x40f9(%rip),%rsi        # 1b5a8 <g_2156+0x10c8>
   174af:	48 89 cf             	mov    %rcx,%rdi
   174b2:	e8 3c 42 ff ff       	callq  b6f3 <transparent_crc>
   174b7:	8b 05 97 82 00 00    	mov    0x8297(%rip),%eax        # 1f754 <g_540+0x4>
   174bd:	48 98                	cltq   
   174bf:	8b 55 fc             	mov    -0x4(%rbp),%edx
   174c2:	48 8d 35 e8 40 00 00 	lea    0x40e8(%rip),%rsi        # 1b5b1 <g_2156+0x10d1>
   174c9:	48 89 c7             	mov    %rax,%rdi
   174cc:	e8 22 42 ff ff       	callq  b6f3 <transparent_crc>
   174d1:	48 8b 05 80 82 00 00 	mov    0x8280(%rip),%rax        # 1f758 <g_540+0x8>
   174d8:	48 89 c1             	mov    %rax,%rcx
   174db:	8b 45 fc             	mov    -0x4(%rbp),%eax
   174de:	89 c2                	mov    %eax,%edx
   174e0:	48 8d 35 d3 40 00 00 	lea    0x40d3(%rip),%rsi        # 1b5ba <g_2156+0x10da>
   174e7:	48 89 cf             	mov    %rcx,%rdi
   174ea:	e8 04 42 ff ff       	callq  b6f3 <transparent_crc>
   174ef:	8b 05 6b 82 00 00    	mov    0x826b(%rip),%eax        # 1f760 <g_543>
   174f5:	89 c1                	mov    %eax,%ecx
   174f7:	8b 45 fc             	mov    -0x4(%rbp),%eax
   174fa:	89 c2                	mov    %eax,%edx
   174fc:	48 8d 35 c0 40 00 00 	lea    0x40c0(%rip),%rsi        # 1b5c3 <g_2156+0x10e3>
   17503:	48 89 cf             	mov    %rcx,%rdi
   17506:	e8 e8 41 ff ff       	callq  b6f3 <transparent_crc>
   1750b:	8b 05 53 82 00 00    	mov    0x8253(%rip),%eax        # 1f764 <g_543+0x4>
   17511:	48 98                	cltq   
   17513:	8b 55 fc             	mov    -0x4(%rbp),%edx
   17516:	48 8d 35 af 40 00 00 	lea    0x40af(%rip),%rsi        # 1b5cc <g_2156+0x10ec>
   1751d:	48 89 c7             	mov    %rax,%rdi
   17520:	e8 ce 41 ff ff       	callq  b6f3 <transparent_crc>
   17525:	48 8b 05 3c 82 00 00 	mov    0x823c(%rip),%rax        # 1f768 <g_543+0x8>
   1752c:	48 89 c1             	mov    %rax,%rcx
   1752f:	8b 45 fc             	mov    -0x4(%rbp),%eax
   17532:	89 c2                	mov    %eax,%edx
   17534:	48 8d 35 9a 40 00 00 	lea    0x409a(%rip),%rsi        # 1b5d5 <g_2156+0x10f5>
   1753b:	48 89 cf             	mov    %rcx,%rdi
   1753e:	e8 b0 41 ff ff       	callq  b6f3 <transparent_crc>
   17543:	8b 05 27 82 00 00    	mov    0x8227(%rip),%eax        # 1f770 <g_545>
   17549:	89 c1                	mov    %eax,%ecx
   1754b:	8b 45 fc             	mov    -0x4(%rbp),%eax
   1754e:	89 c2                	mov    %eax,%edx
   17550:	48 8d 35 87 40 00 00 	lea    0x4087(%rip),%rsi        # 1b5de <g_2156+0x10fe>
   17557:	48 89 cf             	mov    %rcx,%rdi
   1755a:	e8 94 41 ff ff       	callq  b6f3 <transparent_crc>
   1755f:	8b 05 0f 82 00 00    	mov    0x820f(%rip),%eax        # 1f774 <g_545+0x4>
   17565:	48 98                	cltq   
   17567:	8b 55 fc             	mov    -0x4(%rbp),%edx
   1756a:	48 8d 35 76 40 00 00 	lea    0x4076(%rip),%rsi        # 1b5e7 <g_2156+0x1107>
   17571:	48 89 c7             	mov    %rax,%rdi
   17574:	e8 7a 41 ff ff       	callq  b6f3 <transparent_crc>
   17579:	48 8b 05 f8 81 00 00 	mov    0x81f8(%rip),%rax        # 1f778 <g_545+0x8>
   17580:	48 89 c1             	mov    %rax,%rcx
   17583:	8b 45 fc             	mov    -0x4(%rbp),%eax
   17586:	89 c2                	mov    %eax,%edx
   17588:	48 8d 35 61 40 00 00 	lea    0x4061(%rip),%rsi        # 1b5f0 <g_2156+0x1110>
   1758f:	48 89 cf             	mov    %rcx,%rdi
   17592:	e8 5c 41 ff ff       	callq  b6f3 <transparent_crc>
   17597:	0f b6 05 e2 81 00 00 	movzbl 0x81e2(%rip),%eax        # 1f780 <g_587>
   1759e:	48 0f be c0          	movsbq %al,%rax
   175a2:	8b 55 fc             	mov    -0x4(%rbp),%edx
   175a5:	48 8d 35 4d 40 00 00 	lea    0x404d(%rip),%rsi        # 1b5f9 <g_2156+0x1119>
   175ac:	48 89 c7             	mov    %rax,%rdi
   175af:	e8 3f 41 ff ff       	callq  b6f3 <transparent_crc>
   175b4:	0f b6 05 cd 81 00 00 	movzbl 0x81cd(%rip),%eax        # 1f788 <g_595>
   175bb:	48 0f be c0          	movsbq %al,%rax
   175bf:	8b 55 fc             	mov    -0x4(%rbp),%edx
   175c2:	48 8d 35 39 40 00 00 	lea    0x4039(%rip),%rsi        # 1b602 <g_2156+0x1122>
   175c9:	48 89 c7             	mov    %rax,%rdi
   175cc:	e8 22 41 ff ff       	callq  b6f3 <transparent_crc>
   175d1:	0f b6 05 b8 81 00 00 	movzbl 0x81b8(%rip),%eax        # 1f790 <g_612>
   175d8:	48 0f be c0          	movsbq %al,%rax
   175dc:	8b 55 fc             	mov    -0x4(%rbp),%edx
   175df:	48 8d 35 25 40 00 00 	lea    0x4025(%rip),%rsi        # 1b60b <g_2156+0x112b>
   175e6:	48 89 c7             	mov    %rax,%rdi
   175e9:	e8 05 41 ff ff       	callq  b6f3 <transparent_crc>
   175ee:	0f b6 05 a3 81 00 00 	movzbl 0x81a3(%rip),%eax        # 1f798 <g_801>
   175f5:	48 0f be c0          	movsbq %al,%rax
   175f9:	8b 55 fc             	mov    -0x4(%rbp),%edx
   175fc:	48 8d 35 11 40 00 00 	lea    0x4011(%rip),%rsi        # 1b614 <g_2156+0x1134>
   17603:	48 89 c7             	mov    %rax,%rdi
   17606:	e8 e8 40 ff ff       	callq  b6f3 <transparent_crc>
   1760b:	0f b6 05 8e 81 00 00 	movzbl 0x818e(%rip),%eax        # 1f7a0 <g_803>
   17612:	48 0f be c0          	movsbq %al,%rax
   17616:	8b 55 fc             	mov    -0x4(%rbp),%edx
   17619:	48 8d 35 fd 3f 00 00 	lea    0x3ffd(%rip),%rsi        # 1b61d <g_2156+0x113d>
   17620:	48 89 c7             	mov    %rax,%rdi
   17623:	e8 cb 40 ff ff       	callq  b6f3 <transparent_crc>
   17628:	c7 45 f0 00 00 00 00 	movl   $0x0,-0x10(%rbp)
   1762f:	eb 4b                	jmp    1767c <main+0x6e5>
   17631:	8b 45 f0             	mov    -0x10(%rbp),%eax
   17634:	48 98                	cltq   
   17636:	48 8d 14 85 00 00 00 	lea    0x0(,%rax,4),%rdx
   1763d:	00 
   1763e:	48 8d 05 6b 81 00 00 	lea    0x816b(%rip),%rax        # 1f7b0 <g_806>
   17645:	8b 04 02             	mov    (%rdx,%rax,1),%eax
   17648:	48 98                	cltq   
   1764a:	8b 55 fc             	mov    -0x4(%rbp),%edx
   1764d:	48 8d 35 d2 3f 00 00 	lea    0x3fd2(%rip),%rsi        # 1b626 <g_2156+0x1146>
   17654:	48 89 c7             	mov    %rax,%rdi
   17657:	e8 97 40 ff ff       	callq  b6f3 <transparent_crc>
   1765c:	83 7d fc 00          	cmpl   $0x0,-0x4(%rbp)
   17660:	74 16                	je     17678 <main+0x6e1>
   17662:	8b 45 f0             	mov    -0x10(%rbp),%eax
   17665:	89 c6                	mov    %eax,%esi
   17667:	48 8d 3d f9 3e 00 00 	lea    0x3ef9(%rip),%rdi        # 1b567 <g_2156+0x1087>
   1766e:	b8 00 00 00 00       	mov    $0x0,%eax
   17673:	e8 08 2a ff ff       	callq  a080 <printf@plt>
   17678:	83 45 f0 01          	addl   $0x1,-0x10(%rbp)
   1767c:	83 7d f0 04          	cmpl   $0x4,-0x10(%rbp)
   17680:	7e af                	jle    17631 <main+0x69a>
   17682:	8b 05 3c 81 00 00    	mov    0x813c(%rip),%eax        # 1f7c4 <g_808>
   17688:	48 98                	cltq   
   1768a:	8b 55 fc             	mov    -0x4(%rbp),%edx
   1768d:	48 8d 35 9b 3f 00 00 	lea    0x3f9b(%rip),%rsi        # 1b62f <g_2156+0x114f>
   17694:	48 89 c7             	mov    %rax,%rdi
   17697:	e8 57 40 ff ff       	callq  b6f3 <transparent_crc>
   1769c:	8b 05 2e 81 00 00    	mov    0x812e(%rip),%eax        # 1f7d0 <g_833>
   176a2:	89 c1                	mov    %eax,%ecx
   176a4:	8b 45 fc             	mov    -0x4(%rbp),%eax
   176a7:	89 c2                	mov    %eax,%edx
   176a9:	48 8d 35 85 3f 00 00 	lea    0x3f85(%rip),%rsi        # 1b635 <g_2156+0x1155>
   176b0:	48 89 cf             	mov    %rcx,%rdi
   176b3:	e8 3b 40 ff ff       	callq  b6f3 <transparent_crc>
   176b8:	8b 05 16 81 00 00    	mov    0x8116(%rip),%eax        # 1f7d4 <g_833+0x4>
   176be:	48 98                	cltq   
   176c0:	8b 55 fc             	mov    -0x4(%rbp),%edx
   176c3:	48 8d 35 74 3f 00 00 	lea    0x3f74(%rip),%rsi        # 1b63e <g_2156+0x115e>
   176ca:	48 89 c7             	mov    %rax,%rdi
   176cd:	e8 21 40 ff ff       	callq  b6f3 <transparent_crc>
   176d2:	48 8b 05 ff 80 00 00 	mov    0x80ff(%rip),%rax        # 1f7d8 <g_833+0x8>
   176d9:	48 89 c1             	mov    %rax,%rcx
   176dc:	8b 45 fc             	mov    -0x4(%rbp),%eax
   176df:	89 c2                	mov    %eax,%edx
   176e1:	48 8d 35 5f 3f 00 00 	lea    0x3f5f(%rip),%rsi        # 1b647 <g_2156+0x1167>
   176e8:	48 89 cf             	mov    %rcx,%rdi
   176eb:	e8 03 40 ff ff       	callq  b6f3 <transparent_crc>
   176f0:	48 8b 05 e9 80 00 00 	mov    0x80e9(%rip),%rax        # 1f7e0 <g_839>
   176f7:	48 89 c1             	mov    %rax,%rcx
   176fa:	8b 45 fc             	mov    -0x4(%rbp),%eax
   176fd:	89 c2                	mov    %eax,%edx
   176ff:	48 8d 35 4a 3f 00 00 	lea    0x3f4a(%rip),%rsi        # 1b650 <g_2156+0x1170>
   17706:	48 89 cf             	mov    %rcx,%rdi
   17709:	e8 e5 3f ff ff       	callq  b6f3 <transparent_crc>
   1770e:	0f b7 05 cb 80 00 00 	movzwl 0x80cb(%rip),%eax        # 1f7e0 <g_839>
   17715:	48 0f bf c0          	movswq %ax,%rax
   17719:	8b 55 fc             	mov    -0x4(%rbp),%edx
   1771c:	48 8d 35 36 3f 00 00 	lea    0x3f36(%rip),%rsi        # 1b659 <g_2156+0x1179>
   17723:	48 89 c7             	mov    %rax,%rdi
   17726:	e8 c8 3f ff ff       	callq  b6f3 <transparent_crc>
   1772b:	c7 45 f0 00 00 00 00 	movl   $0x0,-0x10(%rbp)
   17732:	e9 1d 01 00 00       	jmpq   17854 <main+0x8bd>
   17737:	c7 45 f4 00 00 00 00 	movl   $0x0,-0xc(%rbp)
   1773e:	e9 03 01 00 00       	jmpq   17846 <main+0x8af>
   17743:	c7 45 f8 00 00 00 00 	movl   $0x0,-0x8(%rbp)
   1774a:	e9 e9 00 00 00       	jmpq   17838 <main+0x8a1>
   1774f:	8b 45 f8             	mov    -0x8(%rbp),%eax
   17752:	48 63 f0             	movslq %eax,%rsi
   17755:	8b 45 f0             	mov    -0x10(%rbp),%eax
   17758:	48 98                	cltq   
   1775a:	8b 55 f4             	mov    -0xc(%rbp),%edx
   1775d:	48 63 ca             	movslq %edx,%rcx
   17760:	48 89 c2             	mov    %rax,%rdx
   17763:	48 c1 e2 03          	shl    $0x3,%rdx
   17767:	48 01 c2             	add    %rax,%rdx
   1776a:	48 8d 04 95 00 00 00 	lea    0x0(,%rdx,4),%rax
   17771:	00 
   17772:	48 89 c2             	mov    %rax,%rdx
   17775:	48 89 c8             	mov    %rcx,%rax
   17778:	48 01 c0             	add    %rax,%rax
   1777b:	48 01 c8             	add    %rcx,%rax
   1777e:	48 01 c0             	add    %rax,%rax
   17781:	48 01 d0             	add    %rdx,%rax
   17784:	48 01 f0             	add    %rsi,%rax
   17787:	48 8d 14 c5 00 00 00 	lea    0x0(,%rax,8),%rdx
   1778e:	00 
   1778f:	48 8d 05 6a 80 00 00 	lea    0x806a(%rip),%rax        # 1f800 <g_841>
   17796:	48 8b 04 02          	mov    (%rdx,%rax,1),%rax
   1779a:	48 89 c1             	mov    %rax,%rcx
   1779d:	8b 45 fc             	mov    -0x4(%rbp),%eax
   177a0:	89 c2                	mov    %eax,%edx
   177a2:	48 8d 35 b9 3e 00 00 	lea    0x3eb9(%rip),%rsi        # 1b662 <g_2156+0x1182>
   177a9:	48 89 cf             	mov    %rcx,%rdi
   177ac:	e8 42 3f ff ff       	callq  b6f3 <transparent_crc>
   177b1:	8b 45 f8             	mov    -0x8(%rbp),%eax
   177b4:	48 63 f0             	movslq %eax,%rsi
   177b7:	8b 45 f0             	mov    -0x10(%rbp),%eax
   177ba:	48 98                	cltq   
   177bc:	8b 55 f4             	mov    -0xc(%rbp),%edx
   177bf:	48 63 ca             	movslq %edx,%rcx
   177c2:	48 89 c2             	mov    %rax,%rdx
   177c5:	48 c1 e2 03          	shl    $0x3,%rdx
   177c9:	48 01 c2             	add    %rax,%rdx
   177cc:	48 8d 04 95 00 00 00 	lea    0x0(,%rdx,4),%rax
   177d3:	00 
   177d4:	48 89 c2             	mov    %rax,%rdx
   177d7:	48 89 c8             	mov    %rcx,%rax
   177da:	48 01 c0             	add    %rax,%rax
   177dd:	48 01 c8             	add    %rcx,%rax
   177e0:	48 01 c0             	add    %rax,%rax
   177e3:	48 01 d0             	add    %rdx,%rax
   177e6:	48 01 f0             	add    %rsi,%rax
   177e9:	48 8d 14 c5 00 00 00 	lea    0x0(,%rax,8),%rdx
   177f0:	00 
   177f1:	48 8d 05 08 80 00 00 	lea    0x8008(%rip),%rax        # 1f800 <g_841>
   177f8:	0f b7 04 02          	movzwl (%rdx,%rax,1),%eax
   177fc:	48 0f bf c0          	movswq %ax,%rax
   17800:	8b 55 fc             	mov    -0x4(%rbp),%edx
   17803:	48 8d 35 6a 3e 00 00 	lea    0x3e6a(%rip),%rsi        # 1b674 <g_2156+0x1194>
   1780a:	48 89 c7             	mov    %rax,%rdi
   1780d:	e8 e1 3e ff ff       	callq  b6f3 <transparent_crc>
   17812:	83 7d fc 00          	cmpl   $0x0,-0x4(%rbp)
   17816:	74 1c                	je     17834 <main+0x89d>
   17818:	8b 4d f8             	mov    -0x8(%rbp),%ecx
   1781b:	8b 55 f4             	mov    -0xc(%rbp),%edx
   1781e:	8b 45 f0             	mov    -0x10(%rbp),%eax
   17821:	89 c6                	mov    %eax,%esi
   17823:	48 8d 3d a5 3c 00 00 	lea    0x3ca5(%rip),%rdi        # 1b4cf <g_2156+0xfef>
   1782a:	b8 00 00 00 00       	mov    $0x0,%eax
   1782f:	e8 4c 28 ff ff       	callq  a080 <printf@plt>
   17834:	83 45 f8 01          	addl   $0x1,-0x8(%rbp)
   17838:	83 7d f8 05          	cmpl   $0x5,-0x8(%rbp)
   1783c:	0f 8e 0d ff ff ff    	jle    1774f <main+0x7b8>
   17842:	83 45 f4 01          	addl   $0x1,-0xc(%rbp)
   17846:	83 7d f4 05          	cmpl   $0x5,-0xc(%rbp)
   1784a:	0f 8e f3 fe ff ff    	jle    17743 <main+0x7ac>
   17850:	83 45 f0 01          	addl   $0x1,-0x10(%rbp)
   17854:	83 7d f0 00          	cmpl   $0x0,-0x10(%rbp)
   17858:	0f 8e d9 fe ff ff    	jle    17737 <main+0x7a0>
   1785e:	c7 45 f0 00 00 00 00 	movl   $0x0,-0x10(%rbp)
   17865:	eb 78                	jmp    178df <main+0x948>
   17867:	c7 45 f4 00 00 00 00 	movl   $0x0,-0xc(%rbp)
   1786e:	eb 65                	jmp    178d5 <main+0x93e>
   17870:	8b 45 f4             	mov    -0xc(%rbp),%eax
   17873:	48 63 c8             	movslq %eax,%rcx
   17876:	8b 45 f0             	mov    -0x10(%rbp),%eax
   17879:	48 63 d0             	movslq %eax,%rdx
   1787c:	48 89 d0             	mov    %rdx,%rax
   1787f:	48 c1 e0 03          	shl    $0x3,%rax
   17883:	48 01 d0             	add    %rdx,%rax
   17886:	48 01 c8             	add    %rcx,%rax
   17889:	48 8d 14 c5 00 00 00 	lea    0x0(,%rax,8),%rdx
   17890:	00 
   17891:	48 8d 05 88 80 00 00 	lea    0x8088(%rip),%rax        # 1f920 <g_893>
   17898:	0f b6 04 02          	movzbl (%rdx,%rax,1),%eax
   1789c:	48 0f be c0          	movsbq %al,%rax
   178a0:	8b 55 fc             	mov    -0x4(%rbp),%edx
   178a3:	48 8d 35 dc 3d 00 00 	lea    0x3ddc(%rip),%rsi        # 1b686 <g_2156+0x11a6>
   178aa:	48 89 c7             	mov    %rax,%rdi
   178ad:	e8 41 3e ff ff       	callq  b6f3 <transparent_crc>
   178b2:	83 7d fc 00          	cmpl   $0x0,-0x4(%rbp)
   178b6:	74 19                	je     178d1 <main+0x93a>
   178b8:	8b 55 f4             	mov    -0xc(%rbp),%edx
   178bb:	8b 45 f0             	mov    -0x10(%rbp),%eax
   178be:	89 c6                	mov    %eax,%esi
   178c0:	48 8d 3d 61 3c 00 00 	lea    0x3c61(%rip),%rdi        # 1b528 <g_2156+0x1048>
   178c7:	b8 00 00 00 00       	mov    $0x0,%eax
   178cc:	e8 af 27 ff ff       	callq  a080 <printf@plt>
   178d1:	83 45 f4 01          	addl   $0x1,-0xc(%rbp)
   178d5:	83 7d f4 08          	cmpl   $0x8,-0xc(%rbp)
   178d9:	7e 95                	jle    17870 <main+0x8d9>
   178db:	83 45 f0 01          	addl   $0x1,-0x10(%rbp)
   178df:	83 7d f0 07          	cmpl   $0x7,-0x10(%rbp)
   178e3:	7e 82                	jle    17867 <main+0x8d0>
   178e5:	0f b7 05 74 82 00 00 	movzwl 0x8274(%rip),%eax        # 1fb60 <g_949>
   178ec:	48 0f bf c0          	movswq %ax,%rax
   178f0:	8b 55 fc             	mov    -0x4(%rbp),%edx
   178f3:	48 8d 35 9b 3d 00 00 	lea    0x3d9b(%rip),%rsi        # 1b695 <g_2156+0x11b5>
   178fa:	48 89 c7             	mov    %rax,%rdi
   178fd:	e8 f1 3d ff ff       	callq  b6f3 <transparent_crc>
   17902:	0f b7 05 57 17 00 00 	movzwl 0x1757(%rip),%eax        # 19060 <g_979>
   17909:	48 0f bf c0          	movswq %ax,%rax
   1790d:	8b 55 fc             	mov    -0x4(%rbp),%edx
   17910:	48 8d 35 87 3d 00 00 	lea    0x3d87(%rip),%rsi        # 1b69e <g_2156+0x11be>
   17917:	48 89 c7             	mov    %rax,%rdi
   1791a:	e8 d4 3d ff ff       	callq  b6f3 <transparent_crc>
   1791f:	0f b7 05 3c 82 00 00 	movzwl 0x823c(%rip),%eax        # 1fb62 <g_980>
   17926:	48 0f bf c0          	movswq %ax,%rax
   1792a:	8b 55 fc             	mov    -0x4(%rbp),%edx
   1792d:	48 8d 35 73 3d 00 00 	lea    0x3d73(%rip),%rsi        # 1b6a7 <g_2156+0x11c7>
   17934:	48 89 c7             	mov    %rax,%rdi
   17937:	e8 b7 3d ff ff       	callq  b6f3 <transparent_crc>
   1793c:	0f b7 05 21 82 00 00 	movzwl 0x8221(%rip),%eax        # 1fb64 <g_981>
   17943:	48 0f bf c0          	movswq %ax,%rax
   17947:	8b 55 fc             	mov    -0x4(%rbp),%edx
   1794a:	48 8d 35 5f 3d 00 00 	lea    0x3d5f(%rip),%rsi        # 1b6b0 <g_2156+0x11d0>
   17951:	48 89 c7             	mov    %rax,%rdi
   17954:	e8 9a 3d ff ff       	callq  b6f3 <transparent_crc>
   17959:	0f b7 05 02 17 00 00 	movzwl 0x1702(%rip),%eax        # 19062 <g_982>
   17960:	48 0f bf c0          	movswq %ax,%rax
   17964:	8b 55 fc             	mov    -0x4(%rbp),%edx
   17967:	48 8d 35 4b 3d 00 00 	lea    0x3d4b(%rip),%rsi        # 1b6b9 <g_2156+0x11d9>
   1796e:	48 89 c7             	mov    %rax,%rdi
   17971:	e8 7d 3d ff ff       	callq  b6f3 <transparent_crc>
   17976:	0f b7 05 e9 81 00 00 	movzwl 0x81e9(%rip),%eax        # 1fb66 <g_983>
   1797d:	48 0f bf c0          	movswq %ax,%rax
   17981:	8b 55 fc             	mov    -0x4(%rbp),%edx
   17984:	48 8d 35 37 3d 00 00 	lea    0x3d37(%rip),%rsi        # 1b6c2 <g_2156+0x11e2>
   1798b:	48 89 c7             	mov    %rax,%rdi
   1798e:	e8 60 3d ff ff       	callq  b6f3 <transparent_crc>
   17993:	0f b7 05 ca 16 00 00 	movzwl 0x16ca(%rip),%eax        # 19064 <g_984>
   1799a:	48 0f bf c0          	movswq %ax,%rax
   1799e:	8b 55 fc             	mov    -0x4(%rbp),%edx
   179a1:	48 8d 35 23 3d 00 00 	lea    0x3d23(%rip),%rsi        # 1b6cb <g_2156+0x11eb>
   179a8:	48 89 c7             	mov    %rax,%rdi
   179ab:	e8 43 3d ff ff       	callq  b6f3 <transparent_crc>
   179b0:	0f b7 05 b1 81 00 00 	movzwl 0x81b1(%rip),%eax        # 1fb68 <g_985>
   179b7:	48 0f bf c0          	movswq %ax,%rax
   179bb:	8b 55 fc             	mov    -0x4(%rbp),%edx
   179be:	48 8d 35 0f 3d 00 00 	lea    0x3d0f(%rip),%rsi        # 1b6d4 <g_2156+0x11f4>
   179c5:	48 89 c7             	mov    %rax,%rdi
   179c8:	e8 26 3d ff ff       	callq  b6f3 <transparent_crc>
   179cd:	0f b7 05 96 81 00 00 	movzwl 0x8196(%rip),%eax        # 1fb6a <g_986>
   179d4:	48 0f bf c0          	movswq %ax,%rax
   179d8:	8b 55 fc             	mov    -0x4(%rbp),%edx
   179db:	48 8d 35 fb 3c 00 00 	lea    0x3cfb(%rip),%rsi        # 1b6dd <g_2156+0x11fd>
   179e2:	48 89 c7             	mov    %rax,%rdi
   179e5:	e8 09 3d ff ff       	callq  b6f3 <transparent_crc>
   179ea:	c7 45 f0 00 00 00 00 	movl   $0x0,-0x10(%rbp)
   179f1:	eb 74                	jmp    17a67 <main+0xad0>
   179f3:	c7 45 f4 00 00 00 00 	movl   $0x0,-0xc(%rbp)
   179fa:	eb 61                	jmp    17a5d <main+0xac6>
   179fc:	8b 45 f4             	mov    -0xc(%rbp),%eax
   179ff:	48 63 c8             	movslq %eax,%rcx
   17a02:	8b 45 f0             	mov    -0x10(%rbp),%eax
   17a05:	48 63 d0             	movslq %eax,%rdx
   17a08:	48 89 d0             	mov    %rdx,%rax
   17a0b:	48 c1 e0 03          	shl    $0x3,%rax
   17a0f:	48 01 d0             	add    %rdx,%rax
   17a12:	48 01 c8             	add    %rcx,%rax
   17a15:	48 8d 14 00          	lea    (%rax,%rax,1),%rdx
   17a19:	48 8d 05 50 81 00 00 	lea    0x8150(%rip),%rax        # 1fb70 <g_987>
   17a20:	0f b7 04 02          	movzwl (%rdx,%rax,1),%eax
   17a24:	48 0f bf c0          	movswq %ax,%rax
   17a28:	8b 55 fc             	mov    -0x4(%rbp),%edx
   17a2b:	48 8d 35 b4 3c 00 00 	lea    0x3cb4(%rip),%rsi        # 1b6e6 <g_2156+0x1206>
   17a32:	48 89 c7             	mov    %rax,%rdi
   17a35:	e8 b9 3c ff ff       	callq  b6f3 <transparent_crc>
   17a3a:	83 7d fc 00          	cmpl   $0x0,-0x4(%rbp)
   17a3e:	74 19                	je     17a59 <main+0xac2>
   17a40:	8b 55 f4             	mov    -0xc(%rbp),%edx
   17a43:	8b 45 f0             	mov    -0x10(%rbp),%eax
   17a46:	89 c6                	mov    %eax,%esi
   17a48:	48 8d 3d d9 3a 00 00 	lea    0x3ad9(%rip),%rdi        # 1b528 <g_2156+0x1048>
   17a4f:	b8 00 00 00 00       	mov    $0x0,%eax
   17a54:	e8 27 26 ff ff       	callq  a080 <printf@plt>
   17a59:	83 45 f4 01          	addl   $0x1,-0xc(%rbp)
   17a5d:	83 7d f4 08          	cmpl   $0x8,-0xc(%rbp)
   17a61:	7e 99                	jle    179fc <main+0xa65>
   17a63:	83 45 f0 01          	addl   $0x1,-0x10(%rbp)
   17a67:	83 7d f0 00          	cmpl   $0x0,-0x10(%rbp)
   17a6b:	7e 86                	jle    179f3 <main+0xa5c>
   17a6d:	0f b7 05 0e 81 00 00 	movzwl 0x810e(%rip),%eax        # 1fb82 <g_988>
   17a74:	48 0f bf c0          	movswq %ax,%rax
   17a78:	8b 55 fc             	mov    -0x4(%rbp),%edx
   17a7b:	48 8d 35 73 3c 00 00 	lea    0x3c73(%rip),%rsi        # 1b6f5 <g_2156+0x1215>
   17a82:	48 89 c7             	mov    %rax,%rdi
   17a85:	e8 69 3c ff ff       	callq  b6f3 <transparent_crc>
   17a8a:	0f b7 05 d5 15 00 00 	movzwl 0x15d5(%rip),%eax        # 19066 <g_989>
   17a91:	48 0f bf c0          	movswq %ax,%rax
   17a95:	8b 55 fc             	mov    -0x4(%rbp),%edx
   17a98:	48 8d 35 5f 3c 00 00 	lea    0x3c5f(%rip),%rsi        # 1b6fe <g_2156+0x121e>
   17a9f:	48 89 c7             	mov    %rax,%rdi
   17aa2:	e8 4c 3c ff ff       	callq  b6f3 <transparent_crc>
   17aa7:	c7 45 f0 00 00 00 00 	movl   $0x0,-0x10(%rbp)
   17aae:	e9 b5 00 00 00       	jmpq   17b68 <main+0xbd1>
   17ab3:	c7 45 f4 00 00 00 00 	movl   $0x0,-0xc(%rbp)
   17aba:	e9 9b 00 00 00       	jmpq   17b5a <main+0xbc3>
   17abf:	c7 45 f8 00 00 00 00 	movl   $0x0,-0x8(%rbp)
   17ac6:	e9 81 00 00 00       	jmpq   17b4c <main+0xbb5>
   17acb:	8b 45 f8             	mov    -0x8(%rbp),%eax
   17ace:	48 63 f0             	movslq %eax,%rsi
   17ad1:	8b 45 f0             	mov    -0x10(%rbp),%eax
   17ad4:	48 63 d0             	movslq %eax,%rdx
   17ad7:	8b 45 f4             	mov    -0xc(%rbp),%eax
   17ada:	48 63 c8             	movslq %eax,%rcx
   17add:	48 89 d0             	mov    %rdx,%rax
   17ae0:	48 c1 e0 02          	shl    $0x2,%rax
   17ae4:	48 01 d0             	add    %rdx,%rax
   17ae7:	48 c1 e0 02          	shl    $0x2,%rax
   17aeb:	48 01 d0             	add    %rdx,%rax
   17aee:	48 01 c0             	add    %rax,%rax
   17af1:	48 89 ca             	mov    %rcx,%rdx
   17af4:	48 c1 e2 03          	shl    $0x3,%rdx
   17af8:	48 29 ca             	sub    %rcx,%rdx
   17afb:	48 01 d0             	add    %rdx,%rax
   17afe:	48 01 f0             	add    %rsi,%rax
   17b01:	48 8d 14 00          	lea    (%rax,%rax,1),%rdx
   17b05:	48 8d 05 74 15 00 00 	lea    0x1574(%rip),%rax        # 19080 <g_990>
   17b0c:	0f b7 04 02          	movzwl (%rdx,%rax,1),%eax
   17b10:	48 0f bf c0          	movswq %ax,%rax
   17b14:	8b 55 fc             	mov    -0x4(%rbp),%edx
   17b17:	48 8d 35 e9 3b 00 00 	lea    0x3be9(%rip),%rsi        # 1b707 <g_2156+0x1227>
   17b1e:	48 89 c7             	mov    %rax,%rdi
   17b21:	e8 cd 3b ff ff       	callq  b6f3 <transparent_crc>
   17b26:	83 7d fc 00          	cmpl   $0x0,-0x4(%rbp)
   17b2a:	74 1c                	je     17b48 <main+0xbb1>
   17b2c:	8b 4d f8             	mov    -0x8(%rbp),%ecx
   17b2f:	8b 55 f4             	mov    -0xc(%rbp),%edx
   17b32:	8b 45 f0             	mov    -0x10(%rbp),%eax
   17b35:	89 c6                	mov    %eax,%esi
   17b37:	48 8d 3d 91 39 00 00 	lea    0x3991(%rip),%rdi        # 1b4cf <g_2156+0xfef>
   17b3e:	b8 00 00 00 00       	mov    $0x0,%eax
   17b43:	e8 38 25 ff ff       	callq  a080 <printf@plt>
   17b48:	83 45 f8 01          	addl   $0x1,-0x8(%rbp)
   17b4c:	83 7d f8 06          	cmpl   $0x6,-0x8(%rbp)
   17b50:	0f 8e 75 ff ff ff    	jle    17acb <main+0xb34>
   17b56:	83 45 f4 01          	addl   $0x1,-0xc(%rbp)
   17b5a:	83 7d f4 05          	cmpl   $0x5,-0xc(%rbp)
   17b5e:	0f 8e 5b ff ff ff    	jle    17abf <main+0xb28>
   17b64:	83 45 f0 01          	addl   $0x1,-0x10(%rbp)
   17b68:	83 7d f0 05          	cmpl   $0x5,-0x10(%rbp)
   17b6c:	0f 8e 41 ff ff ff    	jle    17ab3 <main+0xb1c>
   17b72:	c7 45 f0 00 00 00 00 	movl   $0x0,-0x10(%rbp)
   17b79:	eb 4a                	jmp    17bc5 <main+0xc2e>
   17b7b:	8b 45 f0             	mov    -0x10(%rbp),%eax
   17b7e:	48 98                	cltq   
   17b80:	48 8d 14 00          	lea    (%rax,%rax,1),%rdx
   17b84:	48 8d 05 05 80 00 00 	lea    0x8005(%rip),%rax        # 1fb90 <g_991>
   17b8b:	0f b7 04 02          	movzwl (%rdx,%rax,1),%eax
   17b8f:	48 0f bf c0          	movswq %ax,%rax
   17b93:	8b 55 fc             	mov    -0x4(%rbp),%edx
   17b96:	48 8d 35 7c 3b 00 00 	lea    0x3b7c(%rip),%rsi        # 1b719 <g_2156+0x1239>
   17b9d:	48 89 c7             	mov    %rax,%rdi
   17ba0:	e8 4e 3b ff ff       	callq  b6f3 <transparent_crc>
   17ba5:	83 7d fc 00          	cmpl   $0x0,-0x4(%rbp)
   17ba9:	74 16                	je     17bc1 <main+0xc2a>
   17bab:	8b 45 f0             	mov    -0x10(%rbp),%eax
   17bae:	89 c6                	mov    %eax,%esi
   17bb0:	48 8d 3d b0 39 00 00 	lea    0x39b0(%rip),%rdi        # 1b567 <g_2156+0x1087>
   17bb7:	b8 00 00 00 00       	mov    $0x0,%eax
   17bbc:	e8 bf 24 ff ff       	callq  a080 <printf@plt>
   17bc1:	83 45 f0 01          	addl   $0x1,-0x10(%rbp)
   17bc5:	83 7d f0 09          	cmpl   $0x9,-0x10(%rbp)
   17bc9:	7e b0                	jle    17b7b <main+0xbe4>
   17bcb:	0f b7 05 a6 16 00 00 	movzwl 0x16a6(%rip),%eax        # 19278 <g_992>
   17bd2:	48 0f bf c0          	movswq %ax,%rax
   17bd6:	8b 55 fc             	mov    -0x4(%rbp),%edx
   17bd9:	48 8d 35 45 3b 00 00 	lea    0x3b45(%rip),%rsi        # 1b725 <g_2156+0x1245>
   17be0:	48 89 c7             	mov    %rax,%rdi
   17be3:	e8 0b 3b ff ff       	callq  b6f3 <transparent_crc>
   17be8:	0f b7 05 b5 7f 00 00 	movzwl 0x7fb5(%rip),%eax        # 1fba4 <g_993>
   17bef:	48 0f bf c0          	movswq %ax,%rax
   17bf3:	8b 55 fc             	mov    -0x4(%rbp),%edx
   17bf6:	48 8d 35 31 3b 00 00 	lea    0x3b31(%rip),%rsi        # 1b72e <g_2156+0x124e>
   17bfd:	48 89 c7             	mov    %rax,%rdi
   17c00:	e8 ee 3a ff ff       	callq  b6f3 <transparent_crc>
   17c05:	c7 45 f0 00 00 00 00 	movl   $0x0,-0x10(%rbp)
   17c0c:	eb 4a                	jmp    17c58 <main+0xcc1>
   17c0e:	8b 45 f0             	mov    -0x10(%rbp),%eax
   17c11:	48 98                	cltq   
   17c13:	48 8d 14 00          	lea    (%rax,%rax,1),%rdx
   17c17:	48 8d 05 88 7f 00 00 	lea    0x7f88(%rip),%rax        # 1fba6 <g_994>
   17c1e:	0f b7 04 02          	movzwl (%rdx,%rax,1),%eax
   17c22:	48 0f bf c0          	movswq %ax,%rax
   17c26:	8b 55 fc             	mov    -0x4(%rbp),%edx
   17c29:	48 8d 35 07 3b 00 00 	lea    0x3b07(%rip),%rsi        # 1b737 <g_2156+0x1257>
   17c30:	48 89 c7             	mov    %rax,%rdi
   17c33:	e8 bb 3a ff ff       	callq  b6f3 <transparent_crc>
   17c38:	83 7d fc 00          	cmpl   $0x0,-0x4(%rbp)
   17c3c:	74 16                	je     17c54 <main+0xcbd>
   17c3e:	8b 45 f0             	mov    -0x10(%rbp),%eax
   17c41:	89 c6                	mov    %eax,%esi
   17c43:	48 8d 3d 1d 39 00 00 	lea    0x391d(%rip),%rdi        # 1b567 <g_2156+0x1087>
   17c4a:	b8 00 00 00 00       	mov    $0x0,%eax
   17c4f:	e8 2c 24 ff ff       	callq  a080 <printf@plt>
   17c54:	83 45 f0 01          	addl   $0x1,-0x10(%rbp)
   17c58:	83 7d f0 02          	cmpl   $0x2,-0x10(%rbp)
   17c5c:	7e b0                	jle    17c0e <main+0xc77>
   17c5e:	0f b7 05 15 16 00 00 	movzwl 0x1615(%rip),%eax        # 1927a <g_995>
   17c65:	48 0f bf c0          	movswq %ax,%rax
   17c69:	8b 55 fc             	mov    -0x4(%rbp),%edx
   17c6c:	48 8d 35 d0 3a 00 00 	lea    0x3ad0(%rip),%rsi        # 1b743 <g_2156+0x1263>
   17c73:	48 89 c7             	mov    %rax,%rdi
   17c76:	e8 78 3a ff ff       	callq  b6f3 <transparent_crc>
   17c7b:	0f b7 05 fa 15 00 00 	movzwl 0x15fa(%rip),%eax        # 1927c <g_996>
   17c82:	48 0f bf c0          	movswq %ax,%rax
   17c86:	8b 55 fc             	mov    -0x4(%rbp),%edx
   17c89:	48 8d 35 bc 3a 00 00 	lea    0x3abc(%rip),%rsi        # 1b74c <g_2156+0x126c>
   17c90:	48 89 c7             	mov    %rax,%rdi
   17c93:	e8 5b 3a ff ff       	callq  b6f3 <transparent_crc>
   17c98:	c7 45 f0 00 00 00 00 	movl   $0x0,-0x10(%rbp)
   17c9f:	eb 4a                	jmp    17ceb <main+0xd54>
   17ca1:	8b 45 f0             	mov    -0x10(%rbp),%eax
   17ca4:	48 98                	cltq   
   17ca6:	48 8d 14 00          	lea    (%rax,%rax,1),%rdx
   17caa:	48 8d 05 fb 7e 00 00 	lea    0x7efb(%rip),%rax        # 1fbac <g_997>
   17cb1:	0f b7 04 02          	movzwl (%rdx,%rax,1),%eax
   17cb5:	48 0f bf c0          	movswq %ax,%rax
   17cb9:	8b 55 fc             	mov    -0x4(%rbp),%edx
   17cbc:	48 8d 35 92 3a 00 00 	lea    0x3a92(%rip),%rsi        # 1b755 <g_2156+0x1275>
   17cc3:	48 89 c7             	mov    %rax,%rdi
   17cc6:	e8 28 3a ff ff       	callq  b6f3 <transparent_crc>
   17ccb:	83 7d fc 00          	cmpl   $0x0,-0x4(%rbp)
   17ccf:	74 16                	je     17ce7 <main+0xd50>
   17cd1:	8b 45 f0             	mov    -0x10(%rbp),%eax
   17cd4:	89 c6                	mov    %eax,%esi
   17cd6:	48 8d 3d 8a 38 00 00 	lea    0x388a(%rip),%rdi        # 1b567 <g_2156+0x1087>
   17cdd:	b8 00 00 00 00       	mov    $0x0,%eax
   17ce2:	e8 99 23 ff ff       	callq  a080 <printf@plt>
   17ce7:	83 45 f0 01          	addl   $0x1,-0x10(%rbp)
   17ceb:	83 7d f0 00          	cmpl   $0x0,-0x10(%rbp)
   17cef:	7e b0                	jle    17ca1 <main+0xd0a>
   17cf1:	0f b7 05 b6 7e 00 00 	movzwl 0x7eb6(%rip),%eax        # 1fbae <g_998>
   17cf8:	48 0f bf c0          	movswq %ax,%rax
   17cfc:	8b 55 fc             	mov    -0x4(%rbp),%edx
   17cff:	48 8d 35 5b 3a 00 00 	lea    0x3a5b(%rip),%rsi        # 1b761 <g_2156+0x1281>
   17d06:	48 89 c7             	mov    %rax,%rdi
   17d09:	e8 e5 39 ff ff       	callq  b6f3 <transparent_crc>
   17d0e:	0f b7 05 69 15 00 00 	movzwl 0x1569(%rip),%eax        # 1927e <g_999>
   17d15:	48 0f bf c0          	movswq %ax,%rax
   17d19:	8b 55 fc             	mov    -0x4(%rbp),%edx
   17d1c:	48 8d 35 47 3a 00 00 	lea    0x3a47(%rip),%rsi        # 1b76a <g_2156+0x128a>
   17d23:	48 89 c7             	mov    %rax,%rdi
   17d26:	e8 c8 39 ff ff       	callq  b6f3 <transparent_crc>
   17d2b:	0f b7 05 4e 15 00 00 	movzwl 0x154e(%rip),%eax        # 19280 <g_1000>
   17d32:	48 0f bf c0          	movswq %ax,%rax
   17d36:	8b 55 fc             	mov    -0x4(%rbp),%edx
   17d39:	48 8d 35 33 3a 00 00 	lea    0x3a33(%rip),%rsi        # 1b773 <g_2156+0x1293>
   17d40:	48 89 c7             	mov    %rax,%rdi
   17d43:	e8 ab 39 ff ff       	callq  b6f3 <transparent_crc>
   17d48:	0f b7 05 33 15 00 00 	movzwl 0x1533(%rip),%eax        # 19282 <g_1001>
   17d4f:	48 0f bf c0          	movswq %ax,%rax
   17d53:	8b 55 fc             	mov    -0x4(%rbp),%edx
   17d56:	48 8d 35 20 3a 00 00 	lea    0x3a20(%rip),%rsi        # 1b77d <g_2156+0x129d>
   17d5d:	48 89 c7             	mov    %rax,%rdi
   17d60:	e8 8e 39 ff ff       	callq  b6f3 <transparent_crc>
   17d65:	c7 45 f0 00 00 00 00 	movl   $0x0,-0x10(%rbp)
   17d6c:	eb 4a                	jmp    17db8 <main+0xe21>
   17d6e:	8b 45 f0             	mov    -0x10(%rbp),%eax
   17d71:	48 98                	cltq   
   17d73:	48 8d 14 00          	lea    (%rax,%rax,1),%rdx
   17d77:	48 8d 05 06 15 00 00 	lea    0x1506(%rip),%rax        # 19284 <g_1002>
   17d7e:	0f b7 04 02          	movzwl (%rdx,%rax,1),%eax
   17d82:	48 0f bf c0          	movswq %ax,%rax
   17d86:	8b 55 fc             	mov    -0x4(%rbp),%edx
   17d89:	48 8d 35 f7 39 00 00 	lea    0x39f7(%rip),%rsi        # 1b787 <g_2156+0x12a7>
   17d90:	48 89 c7             	mov    %rax,%rdi
   17d93:	e8 5b 39 ff ff       	callq  b6f3 <transparent_crc>
   17d98:	83 7d fc 00          	cmpl   $0x0,-0x4(%rbp)
   17d9c:	74 16                	je     17db4 <main+0xe1d>
   17d9e:	8b 45 f0             	mov    -0x10(%rbp),%eax
   17da1:	89 c6                	mov    %eax,%esi
   17da3:	48 8d 3d bd 37 00 00 	lea    0x37bd(%rip),%rdi        # 1b567 <g_2156+0x1087>
   17daa:	b8 00 00 00 00       	mov    $0x0,%eax
   17daf:	e8 cc 22 ff ff       	callq  a080 <printf@plt>
   17db4:	83 45 f0 01          	addl   $0x1,-0x10(%rbp)
   17db8:	83 7d f0 01          	cmpl   $0x1,-0x10(%rbp)
   17dbc:	7e b0                	jle    17d6e <main+0xdd7>
   17dbe:	0f b7 05 eb 7d 00 00 	movzwl 0x7deb(%rip),%eax        # 1fbb0 <g_1003>
   17dc5:	48 0f bf c0          	movswq %ax,%rax
   17dc9:	8b 55 fc             	mov    -0x4(%rbp),%edx
   17dcc:	48 8d 35 c1 39 00 00 	lea    0x39c1(%rip),%rsi        # 1b794 <g_2156+0x12b4>
   17dd3:	48 89 c7             	mov    %rax,%rdi
   17dd6:	e8 18 39 ff ff       	callq  b6f3 <transparent_crc>
   17ddb:	0f b7 05 a6 14 00 00 	movzwl 0x14a6(%rip),%eax        # 19288 <g_1004>
   17de2:	48 0f bf c0          	movswq %ax,%rax
   17de6:	8b 55 fc             	mov    -0x4(%rbp),%edx
   17de9:	48 8d 35 ae 39 00 00 	lea    0x39ae(%rip),%rsi        # 1b79e <g_2156+0x12be>
   17df0:	48 89 c7             	mov    %rax,%rdi
   17df3:	e8 fb 38 ff ff       	callq  b6f3 <transparent_crc>
   17df8:	0f b7 05 b3 7d 00 00 	movzwl 0x7db3(%rip),%eax        # 1fbb2 <g_1005>
   17dff:	48 0f bf c0          	movswq %ax,%rax
   17e03:	8b 55 fc             	mov    -0x4(%rbp),%edx
   17e06:	48 8d 35 9b 39 00 00 	lea    0x399b(%rip),%rsi        # 1b7a8 <g_2156+0x12c8>
   17e0d:	48 89 c7             	mov    %rax,%rdi
   17e10:	e8 de 38 ff ff       	callq  b6f3 <transparent_crc>
   17e15:	0f b7 05 98 7d 00 00 	movzwl 0x7d98(%rip),%eax        # 1fbb4 <g_1006>
   17e1c:	48 0f bf c0          	movswq %ax,%rax
   17e20:	8b 55 fc             	mov    -0x4(%rbp),%edx
   17e23:	48 8d 35 88 39 00 00 	lea    0x3988(%rip),%rsi        # 1b7b2 <g_2156+0x12d2>
   17e2a:	48 89 c7             	mov    %rax,%rdi
   17e2d:	e8 c1 38 ff ff       	callq  b6f3 <transparent_crc>
   17e32:	0f b7 05 51 14 00 00 	movzwl 0x1451(%rip),%eax        # 1928a <g_1007>
   17e39:	48 0f bf c0          	movswq %ax,%rax
   17e3d:	8b 55 fc             	mov    -0x4(%rbp),%edx
   17e40:	48 8d 35 75 39 00 00 	lea    0x3975(%rip),%rsi        # 1b7bc <g_2156+0x12dc>
   17e47:	48 89 c7             	mov    %rax,%rdi
   17e4a:	e8 a4 38 ff ff       	callq  b6f3 <transparent_crc>
   17e4f:	c7 45 f0 00 00 00 00 	movl   $0x0,-0x10(%rbp)
   17e56:	eb 6d                	jmp    17ec5 <main+0xf2e>
   17e58:	c7 45 f4 00 00 00 00 	movl   $0x0,-0xc(%rbp)
   17e5f:	eb 5a                	jmp    17ebb <main+0xf24>
   17e61:	8b 45 f4             	mov    -0xc(%rbp),%eax
   17e64:	48 98                	cltq   
   17e66:	8b 55 f0             	mov    -0x10(%rbp),%edx
   17e69:	48 63 d2             	movslq %edx,%rdx
   17e6c:	48 c1 e2 02          	shl    $0x2,%rdx
   17e70:	48 01 d0             	add    %rdx,%rax
   17e73:	48 8d 14 00          	lea    (%rax,%rax,1),%rdx
   17e77:	48 8d 05 12 14 00 00 	lea    0x1412(%rip),%rax        # 19290 <g_1008>
   17e7e:	0f b7 04 02          	movzwl (%rdx,%rax,1),%eax
   17e82:	48 0f bf c0          	movswq %ax,%rax
   17e86:	8b 55 fc             	mov    -0x4(%rbp),%edx
   17e89:	48 8d 35 36 39 00 00 	lea    0x3936(%rip),%rsi        # 1b7c6 <g_2156+0x12e6>
   17e90:	48 89 c7             	mov    %rax,%rdi
   17e93:	e8 5b 38 ff ff       	callq  b6f3 <transparent_crc>
   17e98:	83 7d fc 00          	cmpl   $0x0,-0x4(%rbp)
   17e9c:	74 19                	je     17eb7 <main+0xf20>
   17e9e:	8b 55 f4             	mov    -0xc(%rbp),%edx
   17ea1:	8b 45 f0             	mov    -0x10(%rbp),%eax
   17ea4:	89 c6                	mov    %eax,%esi
   17ea6:	48 8d 3d 7b 36 00 00 	lea    0x367b(%rip),%rdi        # 1b528 <g_2156+0x1048>
   17ead:	b8 00 00 00 00       	mov    $0x0,%eax
   17eb2:	e8 c9 21 ff ff       	callq  a080 <printf@plt>
   17eb7:	83 45 f4 01          	addl   $0x1,-0xc(%rbp)
   17ebb:	83 7d f4 03          	cmpl   $0x3,-0xc(%rbp)
   17ebf:	7e a0                	jle    17e61 <main+0xeca>
   17ec1:	83 45 f0 01          	addl   $0x1,-0x10(%rbp)
   17ec5:	83 7d f0 00          	cmpl   $0x0,-0x10(%rbp)
   17ec9:	7e 8d                	jle    17e58 <main+0xec1>
   17ecb:	0f b7 05 c6 13 00 00 	movzwl 0x13c6(%rip),%eax        # 19298 <g_1009>
   17ed2:	48 0f bf c0          	movswq %ax,%rax
   17ed6:	8b 55 fc             	mov    -0x4(%rbp),%edx
   17ed9:	48 8d 35 f6 38 00 00 	lea    0x38f6(%rip),%rsi        # 1b7d6 <g_2156+0x12f6>
   17ee0:	48 89 c7             	mov    %rax,%rdi
   17ee3:	e8 0b 38 ff ff       	callq  b6f3 <transparent_crc>
   17ee8:	0f b7 05 ab 13 00 00 	movzwl 0x13ab(%rip),%eax        # 1929a <g_1010>
   17eef:	48 0f bf c0          	movswq %ax,%rax
   17ef3:	8b 55 fc             	mov    -0x4(%rbp),%edx
   17ef6:	48 8d 35 e3 38 00 00 	lea    0x38e3(%rip),%rsi        # 1b7e0 <g_2156+0x1300>
   17efd:	48 89 c7             	mov    %rax,%rdi
   17f00:	e8 ee 37 ff ff       	callq  b6f3 <transparent_crc>
   17f05:	c7 45 f0 00 00 00 00 	movl   $0x0,-0x10(%rbp)
   17f0c:	eb 4a                	jmp    17f58 <main+0xfc1>
   17f0e:	8b 45 f0             	mov    -0x10(%rbp),%eax
   17f11:	48 98                	cltq   
   17f13:	48 8d 14 00          	lea    (%rax,%rax,1),%rdx
   17f17:	48 8d 05 82 13 00 00 	lea    0x1382(%rip),%rax        # 192a0 <g_1011>
   17f1e:	0f b7 04 02          	movzwl (%rdx,%rax,1),%eax
   17f22:	48 0f bf c0          	movswq %ax,%rax
   17f26:	8b 55 fc             	mov    -0x4(%rbp),%edx
   17f29:	48 8d 35 ba 38 00 00 	lea    0x38ba(%rip),%rsi        # 1b7ea <g_2156+0x130a>
   17f30:	48 89 c7             	mov    %rax,%rdi
   17f33:	e8 bb 37 ff ff       	callq  b6f3 <transparent_crc>
   17f38:	83 7d fc 00          	cmpl   $0x0,-0x4(%rbp)
   17f3c:	74 16                	je     17f54 <main+0xfbd>
   17f3e:	8b 45 f0             	mov    -0x10(%rbp),%eax
   17f41:	89 c6                	mov    %eax,%esi
   17f43:	48 8d 3d 1d 36 00 00 	lea    0x361d(%rip),%rdi        # 1b567 <g_2156+0x1087>
   17f4a:	b8 00 00 00 00       	mov    $0x0,%eax
   17f4f:	e8 2c 21 ff ff       	callq  a080 <printf@plt>
   17f54:	83 45 f0 01          	addl   $0x1,-0x10(%rbp)
   17f58:	83 7d f0 05          	cmpl   $0x5,-0x10(%rbp)
   17f5c:	7e b0                	jle    17f0e <main+0xf77>
   17f5e:	0f b7 05 47 13 00 00 	movzwl 0x1347(%rip),%eax        # 192ac <g_1012>
   17f65:	48 0f bf c0          	movswq %ax,%rax
   17f69:	8b 55 fc             	mov    -0x4(%rbp),%edx
   17f6c:	48 8d 35 84 38 00 00 	lea    0x3884(%rip),%rsi        # 1b7f7 <g_2156+0x1317>
   17f73:	48 89 c7             	mov    %rax,%rdi
   17f76:	e8 78 37 ff ff       	callq  b6f3 <transparent_crc>
   17f7b:	0f b7 05 34 7c 00 00 	movzwl 0x7c34(%rip),%eax        # 1fbb6 <g_1013>
   17f82:	48 0f bf c0          	movswq %ax,%rax
   17f86:	8b 55 fc             	mov    -0x4(%rbp),%edx
   17f89:	48 8d 35 71 38 00 00 	lea    0x3871(%rip),%rsi        # 1b801 <g_2156+0x1321>
   17f90:	48 89 c7             	mov    %rax,%rdi
   17f93:	e8 5b 37 ff ff       	callq  b6f3 <transparent_crc>
   17f98:	0f b7 05 0f 13 00 00 	movzwl 0x130f(%rip),%eax        # 192ae <g_1014>
   17f9f:	48 0f bf c0          	movswq %ax,%rax
   17fa3:	8b 55 fc             	mov    -0x4(%rbp),%edx
   17fa6:	48 8d 35 5e 38 00 00 	lea    0x385e(%rip),%rsi        # 1b80b <g_2156+0x132b>
   17fad:	48 89 c7             	mov    %rax,%rdi
   17fb0:	e8 3e 37 ff ff       	callq  b6f3 <transparent_crc>
   17fb5:	0f b7 05 f4 12 00 00 	movzwl 0x12f4(%rip),%eax        # 192b0 <g_1015>
   17fbc:	48 0f bf c0          	movswq %ax,%rax
   17fc0:	8b 55 fc             	mov    -0x4(%rbp),%edx
   17fc3:	48 8d 35 4b 38 00 00 	lea    0x384b(%rip),%rsi        # 1b815 <g_2156+0x1335>
   17fca:	48 89 c7             	mov    %rax,%rdi
   17fcd:	e8 21 37 ff ff       	callq  b6f3 <transparent_crc>
   17fd2:	c7 45 f0 00 00 00 00 	movl   $0x0,-0x10(%rbp)
   17fd9:	e9 a1 00 00 00       	jmpq   1807f <main+0x10e8>
   17fde:	c7 45 f4 00 00 00 00 	movl   $0x0,-0xc(%rbp)
   17fe5:	e9 87 00 00 00       	jmpq   18071 <main+0x10da>
   17fea:	c7 45 f8 00 00 00 00 	movl   $0x0,-0x8(%rbp)
   17ff1:	eb 74                	jmp    18067 <main+0x10d0>
   17ff3:	8b 45 f8             	mov    -0x8(%rbp),%eax
   17ff6:	48 63 c8             	movslq %eax,%rcx
   17ff9:	8b 45 f0             	mov    -0x10(%rbp),%eax
   17ffc:	48 63 d0             	movslq %eax,%rdx
   17fff:	8b 45 f4             	mov    -0xc(%rbp),%eax
   18002:	48 63 f0             	movslq %eax,%rsi
   18005:	48 89 d0             	mov    %rdx,%rax
   18008:	48 c1 e0 02          	shl    $0x2,%rax
   1800c:	48 01 d0             	add    %rdx,%rax
   1800f:	48 01 c0             	add    %rax,%rax
   18012:	48 01 f0             	add    %rsi,%rax
   18015:	48 c1 e0 02          	shl    $0x2,%rax
   18019:	48 01 c8             	add    %rcx,%rax
   1801c:	48 8d 14 00          	lea    (%rax,%rax,1),%rdx
   18020:	48 8d 05 99 12 00 00 	lea    0x1299(%rip),%rax        # 192c0 <g_1016>
   18027:	0f b7 04 02          	movzwl (%rdx,%rax,1),%eax
   1802b:	48 0f bf c0          	movswq %ax,%rax
   1802f:	8b 55 fc             	mov    -0x4(%rbp),%edx
   18032:	48 8d 35 e6 37 00 00 	lea    0x37e6(%rip),%rsi        # 1b81f <g_2156+0x133f>
   18039:	48 89 c7             	mov    %rax,%rdi
   1803c:	e8 b2 36 ff ff       	callq  b6f3 <transparent_crc>
   18041:	83 7d fc 00          	cmpl   $0x0,-0x4(%rbp)
   18045:	74 1c                	je     18063 <main+0x10cc>
   18047:	8b 4d f8             	mov    -0x8(%rbp),%ecx
   1804a:	8b 55 f4             	mov    -0xc(%rbp),%edx
   1804d:	8b 45 f0             	mov    -0x10(%rbp),%eax
   18050:	89 c6                	mov    %eax,%esi
   18052:	48 8d 3d 76 34 00 00 	lea    0x3476(%rip),%rdi        # 1b4cf <g_2156+0xfef>
   18059:	b8 00 00 00 00       	mov    $0x0,%eax
   1805e:	e8 1d 20 ff ff       	callq  a080 <printf@plt>
   18063:	83 45 f8 01          	addl   $0x1,-0x8(%rbp)
   18067:	83 7d f8 03          	cmpl   $0x3,-0x8(%rbp)
   1806b:	7e 86                	jle    17ff3 <main+0x105c>
   1806d:	83 45 f4 01          	addl   $0x1,-0xc(%rbp)
   18071:	83 7d f4 09          	cmpl   $0x9,-0xc(%rbp)
   18075:	0f 8e 6f ff ff ff    	jle    17fea <main+0x1053>
   1807b:	83 45 f0 01          	addl   $0x1,-0x10(%rbp)
   1807f:	83 7d f0 04          	cmpl   $0x4,-0x10(%rbp)
   18083:	0f 8e 55 ff ff ff    	jle    17fde <main+0x1047>
   18089:	0f b7 05 c0 13 00 00 	movzwl 0x13c0(%rip),%eax        # 19450 <g_1017>
   18090:	48 0f bf c0          	movswq %ax,%rax
   18094:	8b 55 fc             	mov    -0x4(%rbp),%edx
   18097:	48 8d 35 94 37 00 00 	lea    0x3794(%rip),%rsi        # 1b832 <g_2156+0x1352>
   1809e:	48 89 c7             	mov    %rax,%rdi
   180a1:	e8 4d 36 ff ff       	callq  b6f3 <transparent_crc>
   180a6:	c7 45 f0 00 00 00 00 	movl   $0x0,-0x10(%rbp)
   180ad:	eb 74                	jmp    18123 <main+0x118c>
   180af:	c7 45 f4 00 00 00 00 	movl   $0x0,-0xc(%rbp)
   180b6:	eb 61                	jmp    18119 <main+0x1182>
   180b8:	8b 45 f4             	mov    -0xc(%rbp),%eax
   180bb:	48 63 c8             	movslq %eax,%rcx
   180be:	8b 45 f0             	mov    -0x10(%rbp),%eax
   180c1:	48 63 d0             	movslq %eax,%rdx
   180c4:	48 89 d0             	mov    %rdx,%rax
   180c7:	48 c1 e0 03          	shl    $0x3,%rax
   180cb:	48 01 d0             	add    %rdx,%rax
   180ce:	48 01 c8             	add    %rcx,%rax
   180d1:	48 8d 14 00          	lea    (%rax,%rax,1),%rdx
   180d5:	48 8d 05 e4 7a 00 00 	lea    0x7ae4(%rip),%rax        # 1fbc0 <g_1018>
   180dc:	0f b7 04 02          	movzwl (%rdx,%rax,1),%eax
   180e0:	48 0f bf c0          	movswq %ax,%rax
   180e4:	8b 55 fc             	mov    -0x4(%rbp),%edx
   180e7:	48 8d 35 4e 37 00 00 	lea    0x374e(%rip),%rsi        # 1b83c <g_2156+0x135c>
   180ee:	48 89 c7             	mov    %rax,%rdi
   180f1:	e8 fd 35 ff ff       	callq  b6f3 <transparent_crc>
   180f6:	83 7d fc 00          	cmpl   $0x0,-0x4(%rbp)
   180fa:	74 19                	je     18115 <main+0x117e>
   180fc:	8b 55 f4             	mov    -0xc(%rbp),%edx
   180ff:	8b 45 f0             	mov    -0x10(%rbp),%eax
   18102:	89 c6                	mov    %eax,%esi
   18104:	48 8d 3d 1d 34 00 00 	lea    0x341d(%rip),%rdi        # 1b528 <g_2156+0x1048>
   1810b:	b8 00 00 00 00       	mov    $0x0,%eax
   18110:	e8 6b 1f ff ff       	callq  a080 <printf@plt>
   18115:	83 45 f4 01          	addl   $0x1,-0xc(%rbp)
   18119:	83 7d f4 08          	cmpl   $0x8,-0xc(%rbp)
   1811d:	7e 99                	jle    180b8 <main+0x1121>
   1811f:	83 45 f0 01          	addl   $0x1,-0x10(%rbp)
   18123:	83 7d f0 00          	cmpl   $0x0,-0x10(%rbp)
   18127:	7e 86                	jle    180af <main+0x1118>
   18129:	c7 45 f0 00 00 00 00 	movl   $0x0,-0x10(%rbp)
   18130:	e9 9d 00 00 00       	jmpq   181d2 <main+0x123b>
   18135:	c7 45 f4 00 00 00 00 	movl   $0x0,-0xc(%rbp)
   1813c:	e9 83 00 00 00       	jmpq   181c4 <main+0x122d>
   18141:	c7 45 f8 00 00 00 00 	movl   $0x0,-0x8(%rbp)
   18148:	eb 70                	jmp    181ba <main+0x1223>
   1814a:	8b 45 f8             	mov    -0x8(%rbp),%eax
   1814d:	48 63 c8             	movslq %eax,%rcx
   18150:	8b 45 f0             	mov    -0x10(%rbp),%eax
   18153:	48 63 d0             	movslq %eax,%rdx
   18156:	8b 45 f4             	mov    -0xc(%rbp),%eax
   18159:	48 63 f0             	movslq %eax,%rsi
   1815c:	48 89 d0             	mov    %rdx,%rax
   1815f:	48 01 c0             	add    %rax,%rax
   18162:	48 01 d0             	add    %rdx,%rax
   18165:	48 01 f0             	add    %rsi,%rax
   18168:	48 c1 e0 03          	shl    $0x3,%rax
   1816c:	48 01 c8             	add    %rcx,%rax
   1816f:	48 8d 14 00          	lea    (%rax,%rax,1),%rdx
   18173:	48 8d 05 e6 12 00 00 	lea    0x12e6(%rip),%rax        # 19460 <g_1019>
   1817a:	0f b7 04 02          	movzwl (%rdx,%rax,1),%eax
   1817e:	48 0f bf c0          	movswq %ax,%rax
   18182:	8b 55 fc             	mov    -0x4(%rbp),%edx
   18185:	48 8d 35 c0 36 00 00 	lea    0x36c0(%rip),%rsi        # 1b84c <g_2156+0x136c>
   1818c:	48 89 c7             	mov    %rax,%rdi
   1818f:	e8 5f 35 ff ff       	callq  b6f3 <transparent_crc>
   18194:	83 7d fc 00          	cmpl   $0x0,-0x4(%rbp)
   18198:	74 1c                	je     181b6 <main+0x121f>
   1819a:	8b 4d f8             	mov    -0x8(%rbp),%ecx
   1819d:	8b 55 f4             	mov    -0xc(%rbp),%edx
   181a0:	8b 45 f0             	mov    -0x10(%rbp),%eax
   181a3:	89 c6                	mov    %eax,%esi
   181a5:	48 8d 3d 23 33 00 00 	lea    0x3323(%rip),%rdi        # 1b4cf <g_2156+0xfef>
   181ac:	b8 00 00 00 00       	mov    $0x0,%eax
   181b1:	e8 ca 1e ff ff       	callq  a080 <printf@plt>
   181b6:	83 45 f8 01          	addl   $0x1,-0x8(%rbp)
   181ba:	83 7d f8 07          	cmpl   $0x7,-0x8(%rbp)
   181be:	7e 8a                	jle    1814a <main+0x11b3>
   181c0:	83 45 f4 01          	addl   $0x1,-0xc(%rbp)
   181c4:	83 7d f4 02          	cmpl   $0x2,-0xc(%rbp)
   181c8:	0f 8e 73 ff ff ff    	jle    18141 <main+0x11aa>
   181ce:	83 45 f0 01          	addl   $0x1,-0x10(%rbp)
   181d2:	83 7d f0 04          	cmpl   $0x4,-0x10(%rbp)
   181d6:	0f 8e 59 ff ff ff    	jle    18135 <main+0x119e>
   181dc:	0f b7 05 1d c1 00 00 	movzwl 0xc11d(%rip),%eax        # 24300 <g_1020>
   181e3:	48 0f bf c0          	movswq %ax,%rax
   181e7:	8b 55 fc             	mov    -0x4(%rbp),%edx
   181ea:	48 8d 35 6e 36 00 00 	lea    0x366e(%rip),%rsi        # 1b85f <g_2156+0x137f>
   181f1:	48 89 c7             	mov    %rax,%rdi
   181f4:	e8 fa 34 ff ff       	callq  b6f3 <transparent_crc>
   181f9:	c7 45 f0 00 00 00 00 	movl   $0x0,-0x10(%rbp)
   18200:	eb 77                	jmp    18279 <main+0x12e2>
   18202:	c7 45 f4 00 00 00 00 	movl   $0x0,-0xc(%rbp)
   18209:	eb 64                	jmp    1826f <main+0x12d8>
   1820b:	8b 45 f4             	mov    -0xc(%rbp),%eax
   1820e:	48 63 c8             	movslq %eax,%rcx
   18211:	8b 45 f0             	mov    -0x10(%rbp),%eax
   18214:	48 63 d0             	movslq %eax,%rdx
   18217:	48 89 d0             	mov    %rdx,%rax
   1821a:	48 c1 e0 02          	shl    $0x2,%rax
   1821e:	48 01 d0             	add    %rdx,%rax
   18221:	48 01 c0             	add    %rax,%rax
   18224:	48 01 c8             	add    %rcx,%rax
   18227:	48 8d 14 00          	lea    (%rax,%rax,1),%rdx
   1822b:	48 8d 05 2e 13 00 00 	lea    0x132e(%rip),%rax        # 19560 <g_1021>
   18232:	0f b7 04 02          	movzwl (%rdx,%rax,1),%eax
   18236:	48 0f bf c0          	movswq %ax,%rax
   1823a:	8b 55 fc             	mov    -0x4(%rbp),%edx
   1823d:	48 8d 35 25 36 00 00 	lea    0x3625(%rip),%rsi        # 1b869 <g_2156+0x1389>
   18244:	48 89 c7             	mov    %rax,%rdi
   18247:	e8 a7 34 ff ff       	callq  b6f3 <transparent_crc>
   1824c:	83 7d fc 00          	cmpl   $0x0,-0x4(%rbp)
   18250:	74 19                	je     1826b <main+0x12d4>
   18252:	8b 55 f4             	mov    -0xc(%rbp),%edx
   18255:	8b 45 f0             	mov    -0x10(%rbp),%eax
   18258:	89 c6                	mov    %eax,%esi
   1825a:	48 8d 3d c7 32 00 00 	lea    0x32c7(%rip),%rdi        # 1b528 <g_2156+0x1048>
   18261:	b8 00 00 00 00       	mov    $0x0,%eax
   18266:	e8 15 1e ff ff       	callq  a080 <printf@plt>
   1826b:	83 45 f4 01          	addl   $0x1,-0xc(%rbp)
   1826f:	83 7d f4 09          	cmpl   $0x9,-0xc(%rbp)
   18273:	7e 96                	jle    1820b <main+0x1274>
   18275:	83 45 f0 01          	addl   $0x1,-0x10(%rbp)
   18279:	83 7d f0 01          	cmpl   $0x1,-0x10(%rbp)
   1827d:	7e 83                	jle    18202 <main+0x126b>
   1827f:	c7 45 f0 00 00 00 00 	movl   $0x0,-0x10(%rbp)
   18286:	eb 6d                	jmp    182f5 <main+0x135e>
   18288:	c7 45 f4 00 00 00 00 	movl   $0x0,-0xc(%rbp)
   1828f:	eb 5a                	jmp    182eb <main+0x1354>
   18291:	8b 45 f4             	mov    -0xc(%rbp),%eax
   18294:	48 98                	cltq   
   18296:	8b 55 f0             	mov    -0x10(%rbp),%edx
   18299:	48 63 d2             	movslq %edx,%rdx
   1829c:	48 c1 e2 03          	shl    $0x3,%rdx
   182a0:	48 01 d0             	add    %rdx,%rax
   182a3:	48 8d 14 00          	lea    (%rax,%rax,1),%rdx
   182a7:	48 8d 05 32 79 00 00 	lea    0x7932(%rip),%rax        # 1fbe0 <g_1022>
   182ae:	0f b7 04 02          	movzwl (%rdx,%rax,1),%eax
   182b2:	48 0f bf c0          	movswq %ax,%rax
   182b6:	8b 55 fc             	mov    -0x4(%rbp),%edx
   182b9:	48 8d 35 b9 35 00 00 	lea    0x35b9(%rip),%rsi        # 1b879 <g_2156+0x1399>
   182c0:	48 89 c7             	mov    %rax,%rdi
   182c3:	e8 2b 34 ff ff       	callq  b6f3 <transparent_crc>
   182c8:	83 7d fc 00          	cmpl   $0x0,-0x4(%rbp)
   182cc:	74 19                	je     182e7 <main+0x1350>
   182ce:	8b 55 f4             	mov    -0xc(%rbp),%edx
   182d1:	8b 45 f0             	mov    -0x10(%rbp),%eax
   182d4:	89 c6                	mov    %eax,%esi
   182d6:	48 8d 3d 4b 32 00 00 	lea    0x324b(%rip),%rdi        # 1b528 <g_2156+0x1048>
   182dd:	b8 00 00 00 00       	mov    $0x0,%eax
   182e2:	e8 99 1d ff ff       	callq  a080 <printf@plt>
   182e7:	83 45 f4 01          	addl   $0x1,-0xc(%rbp)
   182eb:	83 7d f4 07          	cmpl   $0x7,-0xc(%rbp)
   182ef:	7e a0                	jle    18291 <main+0x12fa>
   182f1:	83 45 f0 01          	addl   $0x1,-0x10(%rbp)
   182f5:	83 7d f0 06          	cmpl   $0x6,-0x10(%rbp)
   182f9:	7e 8d                	jle    18288 <main+0x12f1>
   182fb:	0f b7 05 86 12 00 00 	movzwl 0x1286(%rip),%eax        # 19588 <g_1023>
   18302:	48 0f bf c0          	movswq %ax,%rax
   18306:	8b 55 fc             	mov    -0x4(%rbp),%edx
   18309:	48 8d 35 79 35 00 00 	lea    0x3579(%rip),%rsi        # 1b889 <g_2156+0x13a9>
   18310:	48 89 c7             	mov    %rax,%rdi
   18313:	e8 db 33 ff ff       	callq  b6f3 <transparent_crc>
   18318:	0f b7 05 6b 12 00 00 	movzwl 0x126b(%rip),%eax        # 1958a <g_1024>
   1831f:	48 0f bf c0          	movswq %ax,%rax
   18323:	8b 55 fc             	mov    -0x4(%rbp),%edx
   18326:	48 8d 35 66 35 00 00 	lea    0x3566(%rip),%rsi        # 1b893 <g_2156+0x13b3>
   1832d:	48 89 c7             	mov    %rax,%rdi
   18330:	e8 be 33 ff ff       	callq  b6f3 <transparent_crc>
   18335:	c7 45 f0 00 00 00 00 	movl   $0x0,-0x10(%rbp)
   1833c:	eb 4a                	jmp    18388 <main+0x13f1>
   1833e:	8b 45 f0             	mov    -0x10(%rbp),%eax
   18341:	48 98                	cltq   
   18343:	48 8d 14 00          	lea    (%rax,%rax,1),%rdx
   18347:	48 8d 05 42 12 00 00 	lea    0x1242(%rip),%rax        # 19590 <g_1025>
   1834e:	0f b7 04 02          	movzwl (%rdx,%rax,1),%eax
   18352:	48 0f bf c0          	movswq %ax,%rax
   18356:	8b 55 fc             	mov    -0x4(%rbp),%edx
   18359:	48 8d 35 3d 35 00 00 	lea    0x353d(%rip),%rsi        # 1b89d <g_2156+0x13bd>
   18360:	48 89 c7             	mov    %rax,%rdi
   18363:	e8 8b 33 ff ff       	callq  b6f3 <transparent_crc>
   18368:	83 7d fc 00          	cmpl   $0x0,-0x4(%rbp)
   1836c:	74 16                	je     18384 <main+0x13ed>
   1836e:	8b 45 f0             	mov    -0x10(%rbp),%eax
   18371:	89 c6                	mov    %eax,%esi
   18373:	48 8d 3d ed 31 00 00 	lea    0x31ed(%rip),%rdi        # 1b567 <g_2156+0x1087>
   1837a:	b8 00 00 00 00       	mov    $0x0,%eax
   1837f:	e8 fc 1c ff ff       	callq  a080 <printf@plt>
   18384:	83 45 f0 01          	addl   $0x1,-0x10(%rbp)
   18388:	83 7d f0 08          	cmpl   $0x8,-0x10(%rbp)
   1838c:	7e b0                	jle    1833e <main+0x13a7>
   1838e:	0f b7 05 0d 12 00 00 	movzwl 0x120d(%rip),%eax        # 195a2 <g_1026>
   18395:	48 0f bf c0          	movswq %ax,%rax
   18399:	8b 55 fc             	mov    -0x4(%rbp),%edx
   1839c:	48 8d 35 07 35 00 00 	lea    0x3507(%rip),%rsi        # 1b8aa <g_2156+0x13ca>
   183a3:	48 89 c7             	mov    %rax,%rdi
   183a6:	e8 48 33 ff ff       	callq  b6f3 <transparent_crc>
   183ab:	0f b7 05 f2 11 00 00 	movzwl 0x11f2(%rip),%eax        # 195a4 <g_1027>
   183b2:	48 0f bf c0          	movswq %ax,%rax
   183b6:	8b 55 fc             	mov    -0x4(%rbp),%edx
   183b9:	48 8d 35 f4 34 00 00 	lea    0x34f4(%rip),%rsi        # 1b8b4 <g_2156+0x13d4>
   183c0:	48 89 c7             	mov    %rax,%rdi
   183c3:	e8 2b 33 ff ff       	callq  b6f3 <transparent_crc>
   183c8:	0f b7 05 81 78 00 00 	movzwl 0x7881(%rip),%eax        # 1fc50 <g_1028>
   183cf:	48 0f bf c0          	movswq %ax,%rax
   183d3:	8b 55 fc             	mov    -0x4(%rbp),%edx
   183d6:	48 8d 35 e1 34 00 00 	lea    0x34e1(%rip),%rsi        # 1b8be <g_2156+0x13de>
   183dd:	48 89 c7             	mov    %rax,%rdi
   183e0:	e8 0e 33 ff ff       	callq  b6f3 <transparent_crc>
   183e5:	c7 45 f0 00 00 00 00 	movl   $0x0,-0x10(%rbp)
   183ec:	eb 4a                	jmp    18438 <main+0x14a1>
   183ee:	8b 45 f0             	mov    -0x10(%rbp),%eax
   183f1:	48 98                	cltq   
   183f3:	48 8d 14 00          	lea    (%rax,%rax,1),%rdx
   183f7:	48 8d 05 aa 11 00 00 	lea    0x11aa(%rip),%rax        # 195a8 <g_1029>
   183fe:	0f b7 04 02          	movzwl (%rdx,%rax,1),%eax
   18402:	48 0f bf c0          	movswq %ax,%rax
   18406:	8b 55 fc             	mov    -0x4(%rbp),%edx
   18409:	48 8d 35 b8 34 00 00 	lea    0x34b8(%rip),%rsi        # 1b8c8 <g_2156+0x13e8>
   18410:	48 89 c7             	mov    %rax,%rdi
   18413:	e8 db 32 ff ff       	callq  b6f3 <transparent_crc>
   18418:	83 7d fc 00          	cmpl   $0x0,-0x4(%rbp)
   1841c:	74 16                	je     18434 <main+0x149d>
   1841e:	8b 45 f0             	mov    -0x10(%rbp),%eax
   18421:	89 c6                	mov    %eax,%esi
   18423:	48 8d 3d 3d 31 00 00 	lea    0x313d(%rip),%rdi        # 1b567 <g_2156+0x1087>
   1842a:	b8 00 00 00 00       	mov    $0x0,%eax
   1842f:	e8 4c 1c ff ff       	callq  a080 <printf@plt>
   18434:	83 45 f0 01          	addl   $0x1,-0x10(%rbp)
   18438:	83 7d f0 03          	cmpl   $0x3,-0x10(%rbp)
   1843c:	7e b0                	jle    183ee <main+0x1457>
   1843e:	0f b7 05 6b 11 00 00 	movzwl 0x116b(%rip),%eax        # 195b0 <g_1030>
   18445:	48 0f bf c0          	movswq %ax,%rax
   18449:	8b 55 fc             	mov    -0x4(%rbp),%edx
   1844c:	48 8d 35 82 34 00 00 	lea    0x3482(%rip),%rsi        # 1b8d5 <g_2156+0x13f5>
   18453:	48 89 c7             	mov    %rax,%rdi
   18456:	e8 98 32 ff ff       	callq  b6f3 <transparent_crc>
   1845b:	0f b7 05 f0 77 00 00 	movzwl 0x77f0(%rip),%eax        # 1fc52 <g_1097>
   18462:	48 0f bf c0          	movswq %ax,%rax
   18466:	8b 55 fc             	mov    -0x4(%rbp),%edx
   18469:	48 8d 35 6f 34 00 00 	lea    0x346f(%rip),%rsi        # 1b8df <g_2156+0x13ff>
   18470:	48 89 c7             	mov    %rax,%rdi
   18473:	e8 7b 32 ff ff       	callq  b6f3 <transparent_crc>
   18478:	c7 45 f0 00 00 00 00 	movl   $0x0,-0x10(%rbp)
   1847f:	e9 a0 00 00 00       	jmpq   18524 <main+0x158d>
   18484:	c7 45 f4 00 00 00 00 	movl   $0x0,-0xc(%rbp)
   1848b:	e9 86 00 00 00       	jmpq   18516 <main+0x157f>
   18490:	c7 45 f8 00 00 00 00 	movl   $0x0,-0x8(%rbp)
   18497:	eb 73                	jmp    1850c <main+0x1575>
   18499:	8b 45 f8             	mov    -0x8(%rbp),%eax
   1849c:	48 63 c8             	movslq %eax,%rcx
   1849f:	8b 45 f0             	mov    -0x10(%rbp),%eax
   184a2:	48 63 d0             	movslq %eax,%rdx
   184a5:	8b 45 f4             	mov    -0xc(%rbp),%eax
   184a8:	48 63 f0             	movslq %eax,%rsi
   184ab:	48 89 d0             	mov    %rdx,%rax
   184ae:	48 01 c0             	add    %rax,%rax
   184b1:	48 01 d0             	add    %rdx,%rax
   184b4:	48 01 c0             	add    %rax,%rax
   184b7:	48 01 f0             	add    %rsi,%rax
   184ba:	48 c1 e0 02          	shl    $0x2,%rax
   184be:	48 01 c8             	add    %rcx,%rax
   184c1:	48 8d 14 00          	lea    (%rax,%rax,1),%rdx
   184c5:	48 8d 05 94 77 00 00 	lea    0x7794(%rip),%rax        # 1fc60 <g_1099>
   184cc:	0f b7 04 02          	movzwl (%rdx,%rax,1),%eax
   184d0:	48 0f bf c0          	movswq %ax,%rax
   184d4:	8b 55 fc             	mov    -0x4(%rbp),%edx
   184d7:	48 8d 35 0b 34 00 00 	lea    0x340b(%rip),%rsi        # 1b8e9 <g_2156+0x1409>
   184de:	48 89 c7             	mov    %rax,%rdi
   184e1:	e8 0d 32 ff ff       	callq  b6f3 <transparent_crc>
   184e6:	83 7d fc 00          	cmpl   $0x0,-0x4(%rbp)
   184ea:	74 1c                	je     18508 <main+0x1571>
   184ec:	8b 4d f8             	mov    -0x8(%rbp),%ecx
   184ef:	8b 55 f4             	mov    -0xc(%rbp),%edx
   184f2:	8b 45 f0             	mov    -0x10(%rbp),%eax
   184f5:	89 c6                	mov    %eax,%esi
   184f7:	48 8d 3d d1 2f 00 00 	lea    0x2fd1(%rip),%rdi        # 1b4cf <g_2156+0xfef>
   184fe:	b8 00 00 00 00       	mov    $0x0,%eax
   18503:	e8 78 1b ff ff       	callq  a080 <printf@plt>
   18508:	83 45 f8 01          	addl   $0x1,-0x8(%rbp)
   1850c:	83 7d f8 03          	cmpl   $0x3,-0x8(%rbp)
   18510:	7e 87                	jle    18499 <main+0x1502>
   18512:	83 45 f4 01          	addl   $0x1,-0xc(%rbp)
   18516:	83 7d f4 05          	cmpl   $0x5,-0xc(%rbp)
   1851a:	0f 8e 70 ff ff ff    	jle    18490 <main+0x14f9>
   18520:	83 45 f0 01          	addl   $0x1,-0x10(%rbp)
   18524:	83 7d f0 09          	cmpl   $0x9,-0x10(%rbp)
   18528:	0f 8e 56 ff ff ff    	jle    18484 <main+0x14ed>
   1852e:	0f b7 05 0b 79 00 00 	movzwl 0x790b(%rip),%eax        # 1fe40 <g_1100>
   18535:	48 0f bf c0          	movswq %ax,%rax
   18539:	8b 55 fc             	mov    -0x4(%rbp),%edx
   1853c:	48 8d 35 b9 33 00 00 	lea    0x33b9(%rip),%rsi        # 1b8fc <g_2156+0x141c>
   18543:	48 89 c7             	mov    %rax,%rdi
   18546:	e8 a8 31 ff ff       	callq  b6f3 <transparent_crc>
   1854b:	0f b7 05 f0 78 00 00 	movzwl 0x78f0(%rip),%eax        # 1fe42 <g_1101>
   18552:	48 0f bf c0          	movswq %ax,%rax
   18556:	8b 55 fc             	mov    -0x4(%rbp),%edx
   18559:	48 8d 35 a6 33 00 00 	lea    0x33a6(%rip),%rsi        # 1b906 <g_2156+0x1426>
   18560:	48 89 c7             	mov    %rax,%rdi
   18563:	e8 8b 31 ff ff       	callq  b6f3 <transparent_crc>
   18568:	48 8b 05 d9 78 00 00 	mov    0x78d9(%rip),%rax        # 1fe48 <g_1151>
   1856f:	48 89 c1             	mov    %rax,%rcx
   18572:	8b 45 fc             	mov    -0x4(%rbp),%eax
   18575:	89 c2                	mov    %eax,%edx
   18577:	48 8d 35 92 33 00 00 	lea    0x3392(%rip),%rsi        # 1b910 <g_2156+0x1430>
   1857e:	48 89 cf             	mov    %rcx,%rdi
   18581:	e8 6d 31 ff ff       	callq  b6f3 <transparent_crc>
   18586:	0f b7 05 bb 78 00 00 	movzwl 0x78bb(%rip),%eax        # 1fe48 <g_1151>
   1858d:	48 0f bf c0          	movswq %ax,%rax
   18591:	8b 55 fc             	mov    -0x4(%rbp),%edx
   18594:	48 8d 35 7f 33 00 00 	lea    0x337f(%rip),%rsi        # 1b91a <g_2156+0x143a>
   1859b:	48 89 c7             	mov    %rax,%rdi
   1859e:	e8 50 31 ff ff       	callq  b6f3 <transparent_crc>
   185a3:	0f b7 05 a6 78 00 00 	movzwl 0x78a6(%rip),%eax        # 1fe50 <g_1152>
   185aa:	48 0f bf c0          	movswq %ax,%rax
   185ae:	8b 55 fc             	mov    -0x4(%rbp),%edx
   185b1:	48 8d 35 6c 33 00 00 	lea    0x336c(%rip),%rsi        # 1b924 <g_2156+0x1444>
   185b8:	48 89 c7             	mov    %rax,%rdi
   185bb:	e8 33 31 ff ff       	callq  b6f3 <transparent_crc>
   185c0:	0f b7 05 8b 78 00 00 	movzwl 0x788b(%rip),%eax        # 1fe52 <g_1228>
   185c7:	48 0f bf c0          	movswq %ax,%rax
   185cb:	8b 55 fc             	mov    -0x4(%rbp),%edx
   185ce:	48 8d 35 56 33 00 00 	lea    0x3356(%rip),%rsi        # 1b92b <g_2156+0x144b>
   185d5:	48 89 c7             	mov    %rax,%rdi
   185d8:	e8 16 31 ff ff       	callq  b6f3 <transparent_crc>
   185dd:	8b 05 71 78 00 00    	mov    0x7871(%rip),%eax        # 1fe54 <g_1249>
   185e3:	89 c1                	mov    %eax,%ecx
   185e5:	8b 45 fc             	mov    -0x4(%rbp),%eax
   185e8:	89 c2                	mov    %eax,%edx
   185ea:	48 8d 35 41 33 00 00 	lea    0x3341(%rip),%rsi        # 1b932 <g_2156+0x1452>
   185f1:	48 89 cf             	mov    %rcx,%rdi
   185f4:	e8 fa 30 ff ff       	callq  b6f3 <transparent_crc>
   185f9:	0f b6 05 58 78 00 00 	movzbl 0x7858(%rip),%eax        # 1fe58 <g_1306>
   18600:	48 0f be c0          	movsbq %al,%rax
   18604:	8b 55 fc             	mov    -0x4(%rbp),%edx
   18607:	48 8d 35 2b 33 00 00 	lea    0x332b(%rip),%rsi        # 1b939 <g_2156+0x1459>
   1860e:	48 89 c7             	mov    %rax,%rdi
   18611:	e8 dd 30 ff ff       	callq  b6f3 <transparent_crc>
   18616:	0f b7 05 03 bd 00 00 	movzwl 0xbd03(%rip),%eax        # 24320 <g_1370>
   1861d:	48 0f bf c0          	movswq %ax,%rax
   18621:	8b 55 fc             	mov    -0x4(%rbp),%edx
   18624:	48 8d 35 18 33 00 00 	lea    0x3318(%rip),%rsi        # 1b943 <g_2156+0x1463>
   1862b:	48 89 c7             	mov    %rax,%rdi
   1862e:	e8 c0 30 ff ff       	callq  b6f3 <transparent_crc>
   18633:	8b 05 27 78 00 00    	mov    0x7827(%rip),%eax        # 1fe60 <g_1440>
   18639:	89 c1                	mov    %eax,%ecx
   1863b:	8b 45 fc             	mov    -0x4(%rbp),%eax
   1863e:	89 c2                	mov    %eax,%edx
   18640:	48 8d 35 03 33 00 00 	lea    0x3303(%rip),%rsi        # 1b94a <g_2156+0x146a>
   18647:	48 89 cf             	mov    %rcx,%rdi
   1864a:	e8 a4 30 ff ff       	callq  b6f3 <transparent_crc>
   1864f:	8b 05 0f 78 00 00    	mov    0x780f(%rip),%eax        # 1fe64 <g_1443>
   18655:	89 c1                	mov    %eax,%ecx
   18657:	8b 45 fc             	mov    -0x4(%rbp),%eax
   1865a:	89 c2                	mov    %eax,%edx
   1865c:	48 8d 35 ee 32 00 00 	lea    0x32ee(%rip),%rsi        # 1b951 <g_2156+0x1471>
   18663:	48 89 cf             	mov    %rcx,%rdi
   18666:	e8 88 30 ff ff       	callq  b6f3 <transparent_crc>
   1866b:	48 8b 05 f6 77 00 00 	mov    0x77f6(%rip),%rax        # 1fe68 <g_1451>
   18672:	48 89 c1             	mov    %rax,%rcx
   18675:	8b 45 fc             	mov    -0x4(%rbp),%eax
   18678:	89 c2                	mov    %eax,%edx
   1867a:	48 8d 35 d7 32 00 00 	lea    0x32d7(%rip),%rsi        # 1b958 <g_2156+0x1478>
   18681:	48 89 cf             	mov    %rcx,%rdi
   18684:	e8 6a 30 ff ff       	callq  b6f3 <transparent_crc>
   18689:	0f b7 05 d8 77 00 00 	movzwl 0x77d8(%rip),%eax        # 1fe68 <g_1451>
   18690:	48 0f bf c0          	movswq %ax,%rax
   18694:	8b 55 fc             	mov    -0x4(%rbp),%edx
   18697:	48 8d 35 c4 32 00 00 	lea    0x32c4(%rip),%rsi        # 1b962 <g_2156+0x1482>
   1869e:	48 89 c7             	mov    %rax,%rdi
   186a1:	e8 4d 30 ff ff       	callq  b6f3 <transparent_crc>
   186a6:	0f b7 05 c3 77 00 00 	movzwl 0x77c3(%rip),%eax        # 1fe70 <g_1495>
   186ad:	48 0f bf c0          	movswq %ax,%rax
   186b1:	8b 55 fc             	mov    -0x4(%rbp),%edx
   186b4:	48 8d 35 b1 32 00 00 	lea    0x32b1(%rip),%rsi        # 1b96c <g_2156+0x148c>
   186bb:	48 89 c7             	mov    %rax,%rdi
   186be:	e8 30 30 ff ff       	callq  b6f3 <transparent_crc>
   186c3:	0f b6 05 ae 77 00 00 	movzbl 0x77ae(%rip),%eax        # 1fe78 <g_1576>
   186ca:	48 0f be c0          	movsbq %al,%rax
   186ce:	8b 55 fc             	mov    -0x4(%rbp),%edx
   186d1:	48 8d 35 9b 32 00 00 	lea    0x329b(%rip),%rsi        # 1b973 <g_2156+0x1493>
   186d8:	48 89 c7             	mov    %rax,%rdi
   186db:	e8 13 30 ff ff       	callq  b6f3 <transparent_crc>
   186e0:	c7 45 f0 00 00 00 00 	movl   $0x0,-0x10(%rbp)
   186e7:	eb 4a                	jmp    18733 <main+0x179c>
   186e9:	8b 45 f0             	mov    -0x10(%rbp),%eax
   186ec:	48 98                	cltq   
   186ee:	48 8d 14 00          	lea    (%rax,%rax,1),%rdx
   186f2:	48 8d 05 87 77 00 00 	lea    0x7787(%rip),%rax        # 1fe80 <g_1641>
   186f9:	0f b7 04 02          	movzwl (%rdx,%rax,1),%eax
   186fd:	48 0f bf c0          	movswq %ax,%rax
   18701:	8b 55 fc             	mov    -0x4(%rbp),%edx
   18704:	48 8d 35 72 32 00 00 	lea    0x3272(%rip),%rsi        # 1b97d <g_2156+0x149d>
   1870b:	48 89 c7             	mov    %rax,%rdi
   1870e:	e8 e0 2f ff ff       	callq  b6f3 <transparent_crc>
   18713:	83 7d fc 00          	cmpl   $0x0,-0x4(%rbp)
   18717:	74 16                	je     1872f <main+0x1798>
   18719:	8b 45 f0             	mov    -0x10(%rbp),%eax
   1871c:	89 c6                	mov    %eax,%esi
   1871e:	48 8d 3d 42 2e 00 00 	lea    0x2e42(%rip),%rdi        # 1b567 <g_2156+0x1087>
   18725:	b8 00 00 00 00       	mov    $0x0,%eax
   1872a:	e8 51 19 ff ff       	callq  a080 <printf@plt>
   1872f:	83 45 f0 01          	addl   $0x1,-0x10(%rbp)
   18733:	83 7d f0 05          	cmpl   $0x5,-0x10(%rbp)
   18737:	7e b0                	jle    186e9 <main+0x1752>
   18739:	8b 05 51 77 00 00    	mov    0x7751(%rip),%eax        # 1fe90 <g_1650>
   1873f:	89 c1                	mov    %eax,%ecx
   18741:	8b 45 fc             	mov    -0x4(%rbp),%eax
   18744:	89 c2                	mov    %eax,%edx
   18746:	48 8d 35 3d 32 00 00 	lea    0x323d(%rip),%rsi        # 1b98a <g_2156+0x14aa>
   1874d:	48 89 cf             	mov    %rcx,%rdi
   18750:	e8 9e 2f ff ff       	callq  b6f3 <transparent_crc>
   18755:	8b 05 39 77 00 00    	mov    0x7739(%rip),%eax        # 1fe94 <g_1650+0x4>
   1875b:	48 98                	cltq   
   1875d:	8b 55 fc             	mov    -0x4(%rbp),%edx
   18760:	48 8d 35 2d 32 00 00 	lea    0x322d(%rip),%rsi        # 1b994 <g_2156+0x14b4>
   18767:	48 89 c7             	mov    %rax,%rdi
   1876a:	e8 84 2f ff ff       	callq  b6f3 <transparent_crc>
   1876f:	48 8b 05 22 77 00 00 	mov    0x7722(%rip),%rax        # 1fe98 <g_1650+0x8>
   18776:	48 89 c1             	mov    %rax,%rcx
   18779:	8b 45 fc             	mov    -0x4(%rbp),%eax
   1877c:	89 c2                	mov    %eax,%edx
   1877e:	48 8d 35 19 32 00 00 	lea    0x3219(%rip),%rsi        # 1b99e <g_2156+0x14be>
   18785:	48 89 cf             	mov    %rcx,%rdi
   18788:	e8 66 2f ff ff       	callq  b6f3 <transparent_crc>
   1878d:	0f b7 05 0c 77 00 00 	movzwl 0x770c(%rip),%eax        # 1fea0 <g_1666>
   18794:	0f b7 c0             	movzwl %ax,%eax
   18797:	8b 55 fc             	mov    -0x4(%rbp),%edx
   1879a:	48 8d 35 07 32 00 00 	lea    0x3207(%rip),%rsi        # 1b9a8 <g_2156+0x14c8>
   187a1:	48 89 c7             	mov    %rax,%rdi
   187a4:	e8 4a 2f ff ff       	callq  b6f3 <transparent_crc>
   187a9:	48 8b 05 08 0e 00 00 	mov    0xe08(%rip),%rax        # 195b8 <g_1670>
   187b0:	48 89 c1             	mov    %rax,%rcx
   187b3:	8b 45 fc             	mov    -0x4(%rbp),%eax
   187b6:	89 c2                	mov    %eax,%edx
   187b8:	48 8d 35 f0 31 00 00 	lea    0x31f0(%rip),%rsi        # 1b9af <g_2156+0x14cf>
   187bf:	48 89 cf             	mov    %rcx,%rdi
   187c2:	e8 2c 2f ff ff       	callq  b6f3 <transparent_crc>
   187c7:	b8 a4 48 00 00       	mov    $0x48a4,%eax
   187cc:	48 0f bf c0          	movswq %ax,%rax
   187d0:	8b 55 fc             	mov    -0x4(%rbp),%edx
   187d3:	48 8d 35 df 31 00 00 	lea    0x31df(%rip),%rsi        # 1b9b9 <g_2156+0x14d9>
   187da:	48 89 c7             	mov    %rax,%rdi
   187dd:	e8 11 2f ff ff       	callq  b6f3 <transparent_crc>
   187e2:	8b 05 c8 76 00 00    	mov    0x76c8(%rip),%eax        # 1feb0 <g_1748>
   187e8:	89 c1                	mov    %eax,%ecx
   187ea:	8b 45 fc             	mov    -0x4(%rbp),%eax
   187ed:	89 c2                	mov    %eax,%edx
   187ef:	48 8d 35 cd 31 00 00 	lea    0x31cd(%rip),%rsi        # 1b9c3 <g_2156+0x14e3>
   187f6:	48 89 cf             	mov    %rcx,%rdi
   187f9:	e8 f5 2e ff ff       	callq  b6f3 <transparent_crc>
   187fe:	8b 05 b0 76 00 00    	mov    0x76b0(%rip),%eax        # 1feb4 <g_1748+0x4>
   18804:	48 98                	cltq   
   18806:	8b 55 fc             	mov    -0x4(%rbp),%edx
   18809:	48 8d 35 bd 31 00 00 	lea    0x31bd(%rip),%rsi        # 1b9cd <g_2156+0x14ed>
   18810:	48 89 c7             	mov    %rax,%rdi
   18813:	e8 db 2e ff ff       	callq  b6f3 <transparent_crc>
   18818:	48 8b 05 99 76 00 00 	mov    0x7699(%rip),%rax        # 1feb8 <g_1748+0x8>
   1881f:	48 89 c1             	mov    %rax,%rcx
   18822:	8b 45 fc             	mov    -0x4(%rbp),%eax
   18825:	89 c2                	mov    %eax,%edx
   18827:	48 8d 35 a9 31 00 00 	lea    0x31a9(%rip),%rsi        # 1b9d7 <g_2156+0x14f7>
   1882e:	48 89 cf             	mov    %rcx,%rdi
   18831:	e8 bd 2e ff ff       	callq  b6f3 <transparent_crc>
   18836:	48 8b 05 83 76 00 00 	mov    0x7683(%rip),%rax        # 1fec0 <g_1756>
   1883d:	48 89 c1             	mov    %rax,%rcx
   18840:	8b 45 fc             	mov    -0x4(%rbp),%eax
   18843:	89 c2                	mov    %eax,%edx
   18845:	48 8d 35 95 31 00 00 	lea    0x3195(%rip),%rsi        # 1b9e1 <g_2156+0x1501>
   1884c:	48 89 cf             	mov    %rcx,%rdi
   1884f:	e8 9f 2e ff ff       	callq  b6f3 <transparent_crc>
   18854:	0f b7 05 65 76 00 00 	movzwl 0x7665(%rip),%eax        # 1fec0 <g_1756>
   1885b:	48 0f bf c0          	movswq %ax,%rax
   1885f:	8b 55 fc             	mov    -0x4(%rbp),%edx
   18862:	48 8d 35 82 31 00 00 	lea    0x3182(%rip),%rsi        # 1b9eb <g_2156+0x150b>
   18869:	48 89 c7             	mov    %rax,%rdi
   1886c:	e8 82 2e ff ff       	callq  b6f3 <transparent_crc>
   18871:	48 8b 05 50 76 00 00 	mov    0x7650(%rip),%rax        # 1fec8 <g_1795>
   18878:	48 89 c1             	mov    %rax,%rcx
   1887b:	8b 45 fc             	mov    -0x4(%rbp),%eax
   1887e:	89 c2                	mov    %eax,%edx
   18880:	48 8d 35 6e 31 00 00 	lea    0x316e(%rip),%rsi        # 1b9f5 <g_2156+0x1515>
   18887:	48 89 cf             	mov    %rcx,%rdi
   1888a:	e8 64 2e ff ff       	callq  b6f3 <transparent_crc>
   1888f:	0f b7 05 32 76 00 00 	movzwl 0x7632(%rip),%eax        # 1fec8 <g_1795>
   18896:	48 0f bf c0          	movswq %ax,%rax
   1889a:	8b 55 fc             	mov    -0x4(%rbp),%edx
   1889d:	48 8d 35 5b 31 00 00 	lea    0x315b(%rip),%rsi        # 1b9ff <g_2156+0x151f>
   188a4:	48 89 c7             	mov    %rax,%rdi
   188a7:	e8 47 2e ff ff       	callq  b6f3 <transparent_crc>
   188ac:	c7 45 f0 00 00 00 00 	movl   $0x0,-0x10(%rbp)
   188b3:	eb 4e                	jmp    18903 <main+0x196c>
   188b5:	8b 45 f0             	mov    -0x10(%rbp),%eax
   188b8:	48 98                	cltq   
   188ba:	48 8d 14 c5 00 00 00 	lea    0x0(,%rax,8),%rdx
   188c1:	00 
   188c2:	48 8d 05 07 76 00 00 	lea    0x7607(%rip),%rax        # 1fed0 <g_1827>
   188c9:	0f b6 04 02          	movzbl (%rdx,%rax,1),%eax
   188cd:	48 0f be c0          	movsbq %al,%rax
   188d1:	8b 55 fc             	mov    -0x4(%rbp),%edx
   188d4:	48 8d 35 2e 31 00 00 	lea    0x312e(%rip),%rsi        # 1ba09 <g_2156+0x1529>
   188db:	48 89 c7             	mov    %rax,%rdi
   188de:	e8 10 2e ff ff       	callq  b6f3 <transparent_crc>
   188e3:	83 7d fc 00          	cmpl   $0x0,-0x4(%rbp)
   188e7:	74 16                	je     188ff <main+0x1968>
   188e9:	8b 45 f0             	mov    -0x10(%rbp),%eax
   188ec:	89 c6                	mov    %eax,%esi
   188ee:	48 8d 3d 72 2c 00 00 	lea    0x2c72(%rip),%rdi        # 1b567 <g_2156+0x1087>
   188f5:	b8 00 00 00 00       	mov    $0x0,%eax
   188fa:	e8 81 17 ff ff       	callq  a080 <printf@plt>
   188ff:	83 45 f0 01          	addl   $0x1,-0x10(%rbp)
   18903:	83 7d f0 01          	cmpl   $0x1,-0x10(%rbp)
   18907:	7e ac                	jle    188b5 <main+0x191e>
   18909:	c7 45 f0 00 00 00 00 	movl   $0x0,-0x10(%rbp)
   18910:	eb 7d                	jmp    1898f <main+0x19f8>
   18912:	8b 45 f0             	mov    -0x10(%rbp),%eax
   18915:	48 98                	cltq   
   18917:	48 8d 14 c5 00 00 00 	lea    0x0(,%rax,8),%rdx
   1891e:	00 
   1891f:	48 8d 05 ba 75 00 00 	lea    0x75ba(%rip),%rax        # 1fee0 <g_1833>
   18926:	48 8b 04 02          	mov    (%rdx,%rax,1),%rax
   1892a:	48 89 c1             	mov    %rax,%rcx
   1892d:	8b 45 fc             	mov    -0x4(%rbp),%eax
   18930:	89 c2                	mov    %eax,%edx
   18932:	48 8d 35 dd 30 00 00 	lea    0x30dd(%rip),%rsi        # 1ba16 <g_2156+0x1536>
   18939:	48 89 cf             	mov    %rcx,%rdi
   1893c:	e8 b2 2d ff ff       	callq  b6f3 <transparent_crc>
   18941:	8b 45 f0             	mov    -0x10(%rbp),%eax
   18944:	48 98                	cltq   
   18946:	48 8d 14 c5 00 00 00 	lea    0x0(,%rax,8),%rdx
   1894d:	00 
   1894e:	48 8d 05 8b 75 00 00 	lea    0x758b(%rip),%rax        # 1fee0 <g_1833>
   18955:	0f b7 04 02          	movzwl (%rdx,%rax,1),%eax
   18959:	48 0f bf c0          	movswq %ax,%rax
   1895d:	8b 55 fc             	mov    -0x4(%rbp),%edx
   18960:	48 8d 35 bc 30 00 00 	lea    0x30bc(%rip),%rsi        # 1ba23 <g_2156+0x1543>
   18967:	48 89 c7             	mov    %rax,%rdi
   1896a:	e8 84 2d ff ff       	callq  b6f3 <transparent_crc>
   1896f:	83 7d fc 00          	cmpl   $0x0,-0x4(%rbp)
   18973:	74 16                	je     1898b <main+0x19f4>
   18975:	8b 45 f0             	mov    -0x10(%rbp),%eax
   18978:	89 c6                	mov    %eax,%esi
   1897a:	48 8d 3d e6 2b 00 00 	lea    0x2be6(%rip),%rdi        # 1b567 <g_2156+0x1087>
   18981:	b8 00 00 00 00       	mov    $0x0,%eax
   18986:	e8 f5 16 ff ff       	callq  a080 <printf@plt>
   1898b:	83 45 f0 01          	addl   $0x1,-0x10(%rbp)
   1898f:	83 7d f0 04          	cmpl   $0x4,-0x10(%rbp)
   18993:	0f 8e 79 ff ff ff    	jle    18912 <main+0x197b>
   18999:	0f b7 05 68 75 00 00 	movzwl 0x7568(%rip),%eax        # 1ff08 <g_1836>
   189a0:	48 0f bf c0          	movswq %ax,%rax
   189a4:	8b 55 fc             	mov    -0x4(%rbp),%edx
   189a7:	48 8d 35 82 30 00 00 	lea    0x3082(%rip),%rsi        # 1ba30 <g_2156+0x1550>
   189ae:	48 89 c7             	mov    %rax,%rdi
   189b1:	e8 3d 2d ff ff       	callq  b6f3 <transparent_crc>
   189b6:	c7 45 f0 00 00 00 00 	movl   $0x0,-0x10(%rbp)
   189bd:	e9 8c 00 00 00       	jmpq   18a4e <main+0x1ab7>
   189c2:	c7 45 f4 00 00 00 00 	movl   $0x0,-0xc(%rbp)
   189c9:	eb 79                	jmp    18a44 <main+0x1aad>
   189cb:	c7 45 f8 00 00 00 00 	movl   $0x0,-0x8(%rbp)
   189d2:	eb 66                	jmp    18a3a <main+0x1aa3>
   189d4:	8b 45 f8             	mov    -0x8(%rbp),%eax
   189d7:	48 63 d0             	movslq %eax,%rdx
   189da:	8b 45 f4             	mov    -0xc(%rbp),%eax
   189dd:	48 98                	cltq   
   189df:	8b 4d f0             	mov    -0x10(%rbp),%ecx
   189e2:	48 63 c9             	movslq %ecx,%rcx
   189e5:	48 c1 e1 03          	shl    $0x3,%rcx
   189e9:	48 01 ca             	add    %rcx,%rdx
   189ec:	48 01 d0             	add    %rdx,%rax
   189ef:	48 8d 14 00          	lea    (%rax,%rax,1),%rdx
   189f3:	48 8d 05 26 75 00 00 	lea    0x7526(%rip),%rax        # 1ff20 <g_1840>
   189fa:	0f b7 04 02          	movzwl (%rdx,%rax,1),%eax
   189fe:	48 0f bf c0          	movswq %ax,%rax
   18a02:	8b 55 fc             	mov    -0x4(%rbp),%edx
   18a05:	48 8d 35 2e 30 00 00 	lea    0x302e(%rip),%rsi        # 1ba3a <g_2156+0x155a>
   18a0c:	48 89 c7             	mov    %rax,%rdi
   18a0f:	e8 df 2c ff ff       	callq  b6f3 <transparent_crc>
   18a14:	83 7d fc 00          	cmpl   $0x0,-0x4(%rbp)
   18a18:	74 1c                	je     18a36 <main+0x1a9f>
   18a1a:	8b 4d f8             	mov    -0x8(%rbp),%ecx
   18a1d:	8b 55 f4             	mov    -0xc(%rbp),%edx
   18a20:	8b 45 f0             	mov    -0x10(%rbp),%eax
   18a23:	89 c6                	mov    %eax,%esi
   18a25:	48 8d 3d a3 2a 00 00 	lea    0x2aa3(%rip),%rdi        # 1b4cf <g_2156+0xfef>
   18a2c:	b8 00 00 00 00       	mov    $0x0,%eax
   18a31:	e8 4a 16 ff ff       	callq  a080 <printf@plt>
   18a36:	83 45 f8 01          	addl   $0x1,-0x8(%rbp)
   18a3a:	83 7d f8 00          	cmpl   $0x0,-0x8(%rbp)
   18a3e:	7e 94                	jle    189d4 <main+0x1a3d>
   18a40:	83 45 f4 01          	addl   $0x1,-0xc(%rbp)
   18a44:	83 7d f4 07          	cmpl   $0x7,-0xc(%rbp)
   18a48:	7e 81                	jle    189cb <main+0x1a34>
   18a4a:	83 45 f0 01          	addl   $0x1,-0x10(%rbp)
   18a4e:	83 7d f0 04          	cmpl   $0x4,-0x10(%rbp)
   18a52:	0f 8e 6a ff ff ff    	jle    189c2 <main+0x1a2b>
   18a58:	0f b7 05 11 75 00 00 	movzwl 0x7511(%rip),%eax        # 1ff70 <g_1843>
   18a5f:	48 0f bf c0          	movswq %ax,%rax
   18a63:	8b 55 fc             	mov    -0x4(%rbp),%edx
   18a66:	48 8d 35 e0 2f 00 00 	lea    0x2fe0(%rip),%rsi        # 1ba4d <g_2156+0x156d>
   18a6d:	48 89 c7             	mov    %rax,%rdi
   18a70:	e8 7e 2c ff ff       	callq  b6f3 <transparent_crc>
   18a75:	8b 05 05 75 00 00    	mov    0x7505(%rip),%eax        # 1ff80 <g_1900>
   18a7b:	89 c1                	mov    %eax,%ecx
   18a7d:	8b 45 fc             	mov    -0x4(%rbp),%eax
   18a80:	89 c2                	mov    %eax,%edx
   18a82:	48 8d 35 ce 2f 00 00 	lea    0x2fce(%rip),%rsi        # 1ba57 <g_2156+0x1577>
   18a89:	48 89 cf             	mov    %rcx,%rdi
   18a8c:	e8 62 2c ff ff       	callq  b6f3 <transparent_crc>
   18a91:	8b 05 ed 74 00 00    	mov    0x74ed(%rip),%eax        # 1ff84 <g_1900+0x4>
   18a97:	48 98                	cltq   
   18a99:	8b 55 fc             	mov    -0x4(%rbp),%edx
   18a9c:	48 8d 35 be 2f 00 00 	lea    0x2fbe(%rip),%rsi        # 1ba61 <g_2156+0x1581>
   18aa3:	48 89 c7             	mov    %rax,%rdi
   18aa6:	e8 48 2c ff ff       	callq  b6f3 <transparent_crc>
   18aab:	48 8b 05 d6 74 00 00 	mov    0x74d6(%rip),%rax        # 1ff88 <g_1900+0x8>
   18ab2:	48 89 c1             	mov    %rax,%rcx
   18ab5:	8b 45 fc             	mov    -0x4(%rbp),%eax
   18ab8:	89 c2                	mov    %eax,%edx
   18aba:	48 8d 35 aa 2f 00 00 	lea    0x2faa(%rip),%rsi        # 1ba6b <g_2156+0x158b>
   18ac1:	48 89 cf             	mov    %rcx,%rdi
   18ac4:	e8 2a 2c ff ff       	callq  b6f3 <transparent_crc>
   18ac9:	8b 05 c1 74 00 00    	mov    0x74c1(%rip),%eax        # 1ff90 <g_1925>
   18acf:	89 c1                	mov    %eax,%ecx
   18ad1:	8b 45 fc             	mov    -0x4(%rbp),%eax
   18ad4:	89 c2                	mov    %eax,%edx
   18ad6:	48 8d 35 98 2f 00 00 	lea    0x2f98(%rip),%rsi        # 1ba75 <g_2156+0x1595>
   18add:	48 89 cf             	mov    %rcx,%rdi
   18ae0:	e8 0e 2c ff ff       	callq  b6f3 <transparent_crc>
   18ae5:	8b 05 a9 74 00 00    	mov    0x74a9(%rip),%eax        # 1ff94 <g_1925+0x4>
   18aeb:	48 98                	cltq   
   18aed:	8b 55 fc             	mov    -0x4(%rbp),%edx
   18af0:	48 8d 35 88 2f 00 00 	lea    0x2f88(%rip),%rsi        # 1ba7f <g_2156+0x159f>
   18af7:	48 89 c7             	mov    %rax,%rdi
   18afa:	e8 f4 2b ff ff       	callq  b6f3 <transparent_crc>
   18aff:	48 8b 05 92 74 00 00 	mov    0x7492(%rip),%rax        # 1ff98 <g_1925+0x8>
   18b06:	48 89 c1             	mov    %rax,%rcx
   18b09:	8b 45 fc             	mov    -0x4(%rbp),%eax
   18b0c:	89 c2                	mov    %eax,%edx
   18b0e:	48 8d 35 74 2f 00 00 	lea    0x2f74(%rip),%rsi        # 1ba89 <g_2156+0x15a9>
   18b15:	48 89 cf             	mov    %rcx,%rdi
   18b18:	e8 d6 2b ff ff       	callq  b6f3 <transparent_crc>
   18b1d:	0f b7 05 7c 74 00 00 	movzwl 0x747c(%rip),%eax        # 1ffa0 <g_1975>
   18b24:	48 0f bf c0          	movswq %ax,%rax
   18b28:	8b 55 fc             	mov    -0x4(%rbp),%edx
   18b2b:	48 8d 35 61 2f 00 00 	lea    0x2f61(%rip),%rsi        # 1ba93 <g_2156+0x15b3>
   18b32:	48 89 c7             	mov    %rax,%rdi
   18b35:	e8 b9 2b ff ff       	callq  b6f3 <transparent_crc>
   18b3a:	0f b6 05 67 74 00 00 	movzbl 0x7467(%rip),%eax        # 1ffa8 <g_2059>
   18b41:	48 0f be c0          	movsbq %al,%rax
   18b45:	8b 55 fc             	mov    -0x4(%rbp),%edx
   18b48:	48 8d 35 4e 2f 00 00 	lea    0x2f4e(%rip),%rsi        # 1ba9d <g_2156+0x15bd>
   18b4f:	48 89 c7             	mov    %rax,%rdi
   18b52:	e8 9c 2b ff ff       	callq  b6f3 <transparent_crc>
   18b57:	c7 45 f0 00 00 00 00 	movl   $0x0,-0x10(%rbp)
   18b5e:	e9 59 01 00 00       	jmpq   18cbc <main+0x1d25>
   18b63:	c7 45 f4 00 00 00 00 	movl   $0x0,-0xc(%rbp)
   18b6a:	e9 3f 01 00 00       	jmpq   18cae <main+0x1d17>
   18b6f:	c7 45 f8 00 00 00 00 	movl   $0x0,-0x8(%rbp)
   18b76:	e9 25 01 00 00       	jmpq   18ca0 <main+0x1d09>
   18b7b:	8b 45 f8             	mov    -0x8(%rbp),%eax
   18b7e:	48 63 f0             	movslq %eax,%rsi
   18b81:	8b 45 f0             	mov    -0x10(%rbp),%eax
   18b84:	48 63 d0             	movslq %eax,%rdx
   18b87:	8b 45 f4             	mov    -0xc(%rbp),%eax
   18b8a:	48 63 c8             	movslq %eax,%rcx
   18b8d:	48 89 d0             	mov    %rdx,%rax
   18b90:	48 c1 e0 04          	shl    $0x4,%rax
   18b94:	48 29 d0             	sub    %rdx,%rax
   18b97:	48 01 c0             	add    %rax,%rax
   18b9a:	48 89 ca             	mov    %rcx,%rdx
   18b9d:	48 01 d2             	add    %rdx,%rdx
   18ba0:	48 01 ca             	add    %rcx,%rdx
   18ba3:	48 01 d0             	add    %rdx,%rax
   18ba6:	48 01 f0             	add    %rsi,%rax
   18ba9:	48 c1 e0 04          	shl    $0x4,%rax
   18bad:	48 89 c2             	mov    %rax,%rdx
   18bb0:	48 8d 05 29 0a 00 00 	lea    0xa29(%rip),%rax        # 195e0 <g_2084>
   18bb7:	8b 04 02             	mov    (%rdx,%rax,1),%eax
   18bba:	89 c1                	mov    %eax,%ecx
   18bbc:	8b 45 fc             	mov    -0x4(%rbp),%eax
   18bbf:	89 c2                	mov    %eax,%edx
   18bc1:	48 8d 35 df 2e 00 00 	lea    0x2edf(%rip),%rsi        # 1baa7 <g_2156+0x15c7>
   18bc8:	48 89 cf             	mov    %rcx,%rdi
   18bcb:	e8 23 2b ff ff       	callq  b6f3 <transparent_crc>
   18bd0:	8b 45 f8             	mov    -0x8(%rbp),%eax
   18bd3:	48 63 f0             	movslq %eax,%rsi
   18bd6:	8b 45 f0             	mov    -0x10(%rbp),%eax
   18bd9:	48 63 d0             	movslq %eax,%rdx
   18bdc:	8b 45 f4             	mov    -0xc(%rbp),%eax
   18bdf:	48 63 c8             	movslq %eax,%rcx
   18be2:	48 89 d0             	mov    %rdx,%rax
   18be5:	48 c1 e0 04          	shl    $0x4,%rax
   18be9:	48 29 d0             	sub    %rdx,%rax
   18bec:	48 01 c0             	add    %rax,%rax
   18bef:	48 89 ca             	mov    %rcx,%rdx
   18bf2:	48 01 d2             	add    %rdx,%rdx
   18bf5:	48 01 ca             	add    %rcx,%rdx
   18bf8:	48 01 d0             	add    %rdx,%rax
   18bfb:	48 01 f0             	add    %rsi,%rax
   18bfe:	48 c1 e0 04          	shl    $0x4,%rax
   18c02:	48 89 c2             	mov    %rax,%rdx
   18c05:	48 8d 05 d8 09 00 00 	lea    0x9d8(%rip),%rax        # 195e4 <g_2084+0x4>
   18c0c:	8b 04 02             	mov    (%rdx,%rax,1),%eax
   18c0f:	48 98                	cltq   
   18c11:	8b 55 fc             	mov    -0x4(%rbp),%edx
   18c14:	48 8d 35 9f 2e 00 00 	lea    0x2e9f(%rip),%rsi        # 1baba <g_2156+0x15da>
   18c1b:	48 89 c7             	mov    %rax,%rdi
   18c1e:	e8 d0 2a ff ff       	callq  b6f3 <transparent_crc>
   18c23:	8b 45 f8             	mov    -0x8(%rbp),%eax
   18c26:	48 63 f0             	movslq %eax,%rsi
   18c29:	8b 45 f0             	mov    -0x10(%rbp),%eax
   18c2c:	48 63 d0             	movslq %eax,%rdx
   18c2f:	8b 45 f4             	mov    -0xc(%rbp),%eax
   18c32:	48 63 c8             	movslq %eax,%rcx
   18c35:	48 89 d0             	mov    %rdx,%rax
   18c38:	48 c1 e0 04          	shl    $0x4,%rax
   18c3c:	48 29 d0             	sub    %rdx,%rax
   18c3f:	48 01 c0             	add    %rax,%rax
   18c42:	48 89 ca             	mov    %rcx,%rdx
   18c45:	48 01 d2             	add    %rdx,%rdx
   18c48:	48 01 ca             	add    %rcx,%rdx
   18c4b:	48 01 d0             	add    %rdx,%rax
   18c4e:	48 01 f0             	add    %rsi,%rax
   18c51:	48 c1 e0 04          	shl    $0x4,%rax
   18c55:	48 89 c2             	mov    %rax,%rdx
   18c58:	48 8d 05 89 09 00 00 	lea    0x989(%rip),%rax        # 195e8 <g_2084+0x8>
   18c5f:	48 8b 04 02          	mov    (%rdx,%rax,1),%rax
   18c63:	48 89 c1             	mov    %rax,%rcx
   18c66:	8b 45 fc             	mov    -0x4(%rbp),%eax
   18c69:	89 c2                	mov    %eax,%edx
   18c6b:	48 8d 35 5b 2e 00 00 	lea    0x2e5b(%rip),%rsi        # 1bacd <g_2156+0x15ed>
   18c72:	48 89 cf             	mov    %rcx,%rdi
   18c75:	e8 79 2a ff ff       	callq  b6f3 <transparent_crc>
   18c7a:	83 7d fc 00          	cmpl   $0x0,-0x4(%rbp)
   18c7e:	74 1c                	je     18c9c <main+0x1d05>
   18c80:	8b 4d f8             	mov    -0x8(%rbp),%ecx
   18c83:	8b 55 f4             	mov    -0xc(%rbp),%edx
   18c86:	8b 45 f0             	mov    -0x10(%rbp),%eax
   18c89:	89 c6                	mov    %eax,%esi
   18c8b:	48 8d 3d 3d 28 00 00 	lea    0x283d(%rip),%rdi        # 1b4cf <g_2156+0xfef>
   18c92:	b8 00 00 00 00       	mov    $0x0,%eax
   18c97:	e8 e4 13 ff ff       	callq  a080 <printf@plt>
   18c9c:	83 45 f8 01          	addl   $0x1,-0x8(%rbp)
   18ca0:	83 7d f8 02          	cmpl   $0x2,-0x8(%rbp)
   18ca4:	0f 8e d1 fe ff ff    	jle    18b7b <main+0x1be4>
   18caa:	83 45 f4 01          	addl   $0x1,-0xc(%rbp)
   18cae:	83 7d f4 09          	cmpl   $0x9,-0xc(%rbp)
   18cb2:	0f 8e b7 fe ff ff    	jle    18b6f <main+0x1bd8>
   18cb8:	83 45 f0 01          	addl   $0x1,-0x10(%rbp)
   18cbc:	83 7d f0 07          	cmpl   $0x7,-0x10(%rbp)
   18cc0:	0f 8e 9d fe ff ff    	jle    18b63 <main+0x1bcc>
   18cc6:	0f b7 05 e3 72 00 00 	movzwl 0x72e3(%rip),%eax        # 1ffb0 <g_2085>
   18ccd:	48 0f bf c0          	movswq %ax,%rax
   18cd1:	8b 55 fc             	mov    -0x4(%rbp),%edx
   18cd4:	48 8d 35 05 2e 00 00 	lea    0x2e05(%rip),%rsi        # 1bae0 <g_2156+0x1600>
   18cdb:	48 89 c7             	mov    %rax,%rdi
   18cde:	e8 10 2a ff ff       	callq  b6f3 <transparent_crc>
   18ce3:	0f b7 05 c8 72 00 00 	movzwl 0x72c8(%rip),%eax        # 1ffb2 <g_2114>
   18cea:	48 0f bf c0          	movswq %ax,%rax
   18cee:	8b 55 fc             	mov    -0x4(%rbp),%edx
   18cf1:	48 8d 35 f2 2d 00 00 	lea    0x2df2(%rip),%rsi        # 1baea <g_2156+0x160a>
   18cf8:	48 89 c7             	mov    %rax,%rdi
   18cfb:	e8 f3 29 ff ff       	callq  b6f3 <transparent_crc>
   18d00:	0f b6 05 b1 72 00 00 	movzbl 0x72b1(%rip),%eax        # 1ffb8 <g_2151>
   18d07:	48 0f be c0          	movsbq %al,%rax
   18d0b:	8b 55 fc             	mov    -0x4(%rbp),%edx
   18d0e:	48 8d 35 df 2d 00 00 	lea    0x2ddf(%rip),%rsi        # 1baf4 <g_2156+0x1614>
   18d15:	48 89 c7             	mov    %rax,%rdi
   18d18:	e8 d6 29 ff ff       	callq  b6f3 <transparent_crc>
   18d1d:	8b 05 ad b6 00 00    	mov    0xb6ad(%rip),%eax        # 243d0 <g_2153>
   18d23:	48 98                	cltq   
   18d25:	8b 55 fc             	mov    -0x4(%rbp),%edx
   18d28:	48 8d 35 cf 2d 00 00 	lea    0x2dcf(%rip),%rsi        # 1bafe <g_2156+0x161e>
   18d2f:	48 89 c7             	mov    %rax,%rdi
   18d32:	e8 bc 29 ff ff       	callq  b6f3 <transparent_crc>
   18d37:	c7 45 f0 00 00 00 00 	movl   $0x0,-0x10(%rbp)
   18d3e:	eb 4a                	jmp    18d8a <main+0x1df3>
   18d40:	8b 45 f0             	mov    -0x10(%rbp),%eax
   18d43:	48 98                	cltq   
   18d45:	48 8d 14 00          	lea    (%rax,%rax,1),%rdx
   18d49:	48 8d 05 90 17 00 00 	lea    0x1790(%rip),%rax        # 1a4e0 <g_2156>
   18d50:	0f b7 04 02          	movzwl (%rdx,%rax,1),%eax
   18d54:	48 0f bf c0          	movswq %ax,%rax
   18d58:	8b 55 fc             	mov    -0x4(%rbp),%edx
   18d5b:	48 8d 35 a3 2d 00 00 	lea    0x2da3(%rip),%rsi        # 1bb05 <g_2156+0x1625>
   18d62:	48 89 c7             	mov    %rax,%rdi
   18d65:	e8 89 29 ff ff       	callq  b6f3 <transparent_crc>
   18d6a:	83 7d fc 00          	cmpl   $0x0,-0x4(%rbp)
   18d6e:	74 16                	je     18d86 <main+0x1def>
   18d70:	8b 45 f0             	mov    -0x10(%rbp),%eax
   18d73:	89 c6                	mov    %eax,%esi
   18d75:	48 8d 3d eb 27 00 00 	lea    0x27eb(%rip),%rdi        # 1b567 <g_2156+0x1087>
   18d7c:	b8 00 00 00 00       	mov    $0x0,%eax
   18d81:	e8 fa 12 ff ff       	callq  a080 <printf@plt>
   18d86:	83 45 f0 01          	addl   $0x1,-0x10(%rbp)
   18d8a:	83 7d f0 08          	cmpl   $0x8,-0x10(%rbp)
   18d8e:	7e b0                	jle    18d40 <main+0x1da9>
   18d90:	c7 45 f0 00 00 00 00 	movl   $0x0,-0x10(%rbp)
   18d97:	eb 71                	jmp    18e0a <main+0x1e73>
   18d99:	c7 45 f4 00 00 00 00 	movl   $0x0,-0xc(%rbp)
   18da0:	eb 5e                	jmp    18e00 <main+0x1e69>
   18da2:	8b 45 f4             	mov    -0xc(%rbp),%eax
   18da5:	48 98                	cltq   
   18da7:	8b 55 f0             	mov    -0x10(%rbp),%edx
   18daa:	48 63 d2             	movslq %edx,%rdx
   18dad:	48 c1 e2 02          	shl    $0x2,%rdx
   18db1:	48 01 d0             	add    %rdx,%rax
   18db4:	48 8d 14 c5 00 00 00 	lea    0x0(,%rax,8),%rdx
   18dbb:	00 
   18dbc:	48 8d 05 fd 71 00 00 	lea    0x71fd(%rip),%rax        # 1ffc0 <g_2181>
   18dc3:	0f b6 04 02          	movzbl (%rdx,%rax,1),%eax
   18dc7:	48 0f be c0          	movsbq %al,%rax
   18dcb:	8b 55 fc             	mov    -0x4(%rbp),%edx
   18dce:	48 8d 35 3d 2d 00 00 	lea    0x2d3d(%rip),%rsi        # 1bb12 <g_2156+0x1632>
   18dd5:	48 89 c7             	mov    %rax,%rdi
   18dd8:	e8 16 29 ff ff       	callq  b6f3 <transparent_crc>
   18ddd:	83 7d fc 00          	cmpl   $0x0,-0x4(%rbp)
   18de1:	74 19                	je     18dfc <main+0x1e65>
   18de3:	8b 55 f4             	mov    -0xc(%rbp),%edx
   18de6:	8b 45 f0             	mov    -0x10(%rbp),%eax
   18de9:	89 c6                	mov    %eax,%esi
   18deb:	48 8d 3d 36 27 00 00 	lea    0x2736(%rip),%rdi        # 1b528 <g_2156+0x1048>
   18df2:	b8 00 00 00 00       	mov    $0x0,%eax
   18df7:	e8 84 12 ff ff       	callq  a080 <printf@plt>
   18dfc:	83 45 f4 01          	addl   $0x1,-0xc(%rbp)
   18e00:	83 7d f4 03          	cmpl   $0x3,-0xc(%rbp)
   18e04:	7e 9c                	jle    18da2 <main+0x1e0b>
   18e06:	83 45 f0 01          	addl   $0x1,-0x10(%rbp)
   18e0a:	83 7d f0 06          	cmpl   $0x6,-0x10(%rbp)
   18e0e:	7e 89                	jle    18d99 <main+0x1e02>
   18e10:	8b 05 0a 62 00 00    	mov    0x620a(%rip),%eax        # 1f020 <crc32_context>
   18e16:	f7 d0                	not    %eax
   18e18:	89 c2                	mov    %eax,%edx
   18e1a:	8b 45 fc             	mov    -0x4(%rbp),%eax
   18e1d:	89 c6                	mov    %eax,%esi
   18e1f:	89 d7                	mov    %edx,%edi
   18e21:	e8 6e 13 ff ff       	callq  a194 <platform_main_end>
   18e26:	b8 00 00 00 00       	mov    $0x0,%eax
   18e2b:	c9                   	leaveq 
   18e2c:	c3                   	retq   
   18e2d:	0f 1f 00             	nopl   (%rax)

0000000000018e30 <__libc_csu_init>:
   18e30:	f3 0f 1e fa          	endbr64 
   18e34:	41 57                	push   %r15
   18e36:	4c 8d 3d 5b 5f 00 00 	lea    0x5f5b(%rip),%r15        # 1ed98 <__frame_dummy_init_array_entry>
   18e3d:	41 56                	push   %r14
   18e3f:	49 89 d6             	mov    %rdx,%r14
   18e42:	41 55                	push   %r13
   18e44:	49 89 f5             	mov    %rsi,%r13
   18e47:	41 54                	push   %r12
   18e49:	41 89 fc             	mov    %edi,%r12d
   18e4c:	55                   	push   %rbp
   18e4d:	48 8d 2d 4c 5f 00 00 	lea    0x5f4c(%rip),%rbp        # 1eda0 <__do_global_dtors_aux_fini_array_entry>
   18e54:	53                   	push   %rbx
   18e55:	4c 29 fd             	sub    %r15,%rbp
   18e58:	48 83 ec 08          	sub    $0x8,%rsp
   18e5c:	e8 9f 11 ff ff       	callq  a000 <_init>
   18e61:	48 c1 fd 03          	sar    $0x3,%rbp
   18e65:	74 1f                	je     18e86 <__libc_csu_init+0x56>
   18e67:	31 db                	xor    %ebx,%ebx
   18e69:	0f 1f 80 00 00 00 00 	nopl   0x0(%rax)
   18e70:	4c 89 f2             	mov    %r14,%rdx
   18e73:	4c 89 ee             	mov    %r13,%rsi
   18e76:	44 89 e7             	mov    %r12d,%edi
   18e79:	41 ff 14 df          	callq  *(%r15,%rbx,8)
   18e7d:	48 83 c3 01          	add    $0x1,%rbx
   18e81:	48 39 dd             	cmp    %rbx,%rbp
   18e84:	75 ea                	jne    18e70 <__libc_csu_init+0x40>
   18e86:	48 83 c4 08          	add    $0x8,%rsp
   18e8a:	5b                   	pop    %rbx
   18e8b:	5d                   	pop    %rbp
   18e8c:	41 5c                	pop    %r12
   18e8e:	41 5d                	pop    %r13
   18e90:	41 5e                	pop    %r14
   18e92:	41 5f                	pop    %r15
   18e94:	c3                   	retq   
   18e95:	66 66 2e 0f 1f 84 00 	data16 nopw %cs:0x0(%rax,%rax,1)
   18e9c:	00 00 00 00 

0000000000018ea0 <__libc_csu_fini>:
   18ea0:	f3 0f 1e fa          	endbr64 
   18ea4:	c3                   	retq   
