


Disassembly of section .text:

000000000000a0a0 <_start>:
    a0a0:	f3 0f 1e fa          	endbr64 
    a0a4:	31 ed                	xor    %ebp,%ebp
    a0a6:	49 89 d1             	mov    %rdx,%r9
    a0a9:	5e                   	pop    %rsi
    a0aa:	48 89 e2             	mov    %rsp,%rdx
    a0ad:	48 83 e4 f0          	and    $0xfffffffffffffff0,%rsp
    a0b1:	50                   	push   %rax
    a0b2:	54                   	push   %rsp
    a0b3:	4c 8d 05 86 fb 00 00 	lea    0xfb86(%rip),%r8        # 19c40 <__libc_csu_fini>
    a0ba:	48 8d 0d 0f fb 00 00 	lea    0xfb0f(%rip),%rcx        # 19bd0 <__libc_csu_init>
    a0c1:	48 8d 3d f5 bd 00 00 	lea    0xbdf5(%rip),%rdi        # 15ebd <main>
    a0c8:	ff 15 02 6f 01 00    	callq  *0x16f02(%rip)        # 20fd0 <__libc_start_main@GLIBC_2.2.5>
    a0ce:	f4                   	hlt    
    a0cf:	90                   	nop

000000000000a0d0 <deregister_tm_clones>:
    a0d0:	48 8d 3d c9 bc 01 00 	lea    0x1bcc9(%rip),%rdi        # 25da0 <__TMC_END__>
    a0d7:	48 8d 05 c2 bc 01 00 	lea    0x1bcc2(%rip),%rax        # 25da0 <__TMC_END__>
    a0de:	48 39 f8             	cmp    %rdi,%rax
    a0e1:	74 15                	je     a0f8 <deregister_tm_clones+0x28>
    a0e3:	48 8b 05 de 6e 01 00 	mov    0x16ede(%rip),%rax        # 20fc8 <_ITM_deregisterTMCloneTable>
    a0ea:	48 85 c0             	test   %rax,%rax
    a0ed:	74 09                	je     a0f8 <deregister_tm_clones+0x28>
    a0ef:	ff e0                	jmpq   *%rax
    a0f1:	0f 1f 80 00 00 00 00 	nopl   0x0(%rax)
    a0f8:	c3                   	retq   
    a0f9:	0f 1f 80 00 00 00 00 	nopl   0x0(%rax)

000000000000a100 <register_tm_clones>:
    a100:	48 8d 3d 99 bc 01 00 	lea    0x1bc99(%rip),%rdi        # 25da0 <__TMC_END__>
    a107:	48 8d 35 92 bc 01 00 	lea    0x1bc92(%rip),%rsi        # 25da0 <__TMC_END__>
    a10e:	48 29 fe             	sub    %rdi,%rsi
    a111:	48 89 f0             	mov    %rsi,%rax
    a114:	48 c1 ee 3f          	shr    $0x3f,%rsi
    a118:	48 c1 f8 03          	sar    $0x3,%rax
    a11c:	48 01 c6             	add    %rax,%rsi
    a11f:	48 d1 fe             	sar    %rsi
    a122:	74 14                	je     a138 <register_tm_clones+0x38>
    a124:	48 8b 05 b5 6e 01 00 	mov    0x16eb5(%rip),%rax        # 20fe0 <_ITM_registerTMCloneTable>
    a12b:	48 85 c0             	test   %rax,%rax
    a12e:	74 08                	je     a138 <register_tm_clones+0x38>
    a130:	ff e0                	jmpq   *%rax
    a132:	66 0f 1f 44 00 00    	nopw   0x0(%rax,%rax,1)
    a138:	c3                   	retq   
    a139:	0f 1f 80 00 00 00 00 	nopl   0x0(%rax)

000000000000a140 <__do_global_dtors_aux>:
    a140:	f3 0f 1e fa          	endbr64 
    a144:	80 3d 55 bc 01 00 00 	cmpb   $0x0,0x1bc55(%rip)        # 25da0 <__TMC_END__>
    a14b:	75 2b                	jne    a178 <__do_global_dtors_aux+0x38>
    a14d:	55                   	push   %rbp
    a14e:	48 83 3d 92 6e 01 00 	cmpq   $0x0,0x16e92(%rip)        # 20fe8 <__cxa_finalize@GLIBC_2.2.5>
    a155:	00 
    a156:	48 89 e5             	mov    %rsp,%rbp
    a159:	74 0c                	je     a167 <__do_global_dtors_aux+0x27>
    a15b:	48 8b 3d a6 6e 01 00 	mov    0x16ea6(%rip),%rdi        # 21008 <__dso_handle>
    a162:	e8 f9 fe ff ff       	callq  a060 <__cxa_finalize@plt>
    a167:	e8 64 ff ff ff       	callq  a0d0 <deregister_tm_clones>
    a16c:	c6 05 2d bc 01 00 01 	movb   $0x1,0x1bc2d(%rip)        # 25da0 <__TMC_END__>
    a173:	5d                   	pop    %rbp
    a174:	c3                   	retq   
    a175:	0f 1f 00             	nopl   (%rax)
    a178:	c3                   	retq   
    a179:	0f 1f 80 00 00 00 00 	nopl   0x0(%rax)

000000000000a180 <frame_dummy>:
    a180:	f3 0f 1e fa          	endbr64 
    a184:	e9 77 ff ff ff       	jmpq   a100 <register_tm_clones>

000000000000a189 <platform_main_begin>:
    a189:	f3 0f 1e fa          	endbr64 
    a18d:	55                   	push   %rbp
    a18e:	48 89 e5             	mov    %rsp,%rbp
    a191:	90                   	nop
    a192:	5d                   	pop    %rbp
    a193:	c3                   	retq   

000000000000a194 <platform_main_end>:
    a194:	f3 0f 1e fa          	endbr64 
    a198:	55                   	push   %rbp
    a199:	48 89 e5             	mov    %rsp,%rbp
    a19c:	48 83 ec 10          	sub    $0x10,%rsp
    a1a0:	89 7d fc             	mov    %edi,-0x4(%rbp)
    a1a3:	89 75 f8             	mov    %esi,-0x8(%rbp)
    a1a6:	8b 45 fc             	mov    -0x4(%rbp),%eax
    a1a9:	89 c6                	mov    %eax,%esi
    a1ab:	48 8d 3d 6e fe 00 00 	lea    0xfe6e(%rip),%rdi        # 1a020 <_IO_stdin_used+0x20>
    a1b2:	b8 00 00 00 00       	mov    $0x0,%eax
    a1b7:	e8 c4 fe ff ff       	callq  a080 <printf@plt>
    a1bc:	90                   	nop
    a1bd:	c9                   	leaveq 
    a1be:	c3                   	retq   

000000000000a1bf <safe_unary_minus_func_int8_t_s>:
    a1bf:	f3 0f 1e fa          	endbr64 
    a1c3:	55                   	push   %rbp
    a1c4:	48 89 e5             	mov    %rsp,%rbp
    a1c7:	89 f8                	mov    %edi,%eax
    a1c9:	88 45 fc             	mov    %al,-0x4(%rbp)
    a1cc:	0f b6 45 fc          	movzbl -0x4(%rbp),%eax
    a1d0:	f7 d8                	neg    %eax
    a1d2:	5d                   	pop    %rbp
    a1d3:	c3                   	retq   

000000000000a1d4 <safe_add_func_int8_t_s_s>:
    a1d4:	f3 0f 1e fa          	endbr64 
    a1d8:	55                   	push   %rbp
    a1d9:	48 89 e5             	mov    %rsp,%rbp
    a1dc:	89 fa                	mov    %edi,%edx
    a1de:	89 f0                	mov    %esi,%eax
    a1e0:	88 55 fc             	mov    %dl,-0x4(%rbp)
    a1e3:	88 45 f8             	mov    %al,-0x8(%rbp)
    a1e6:	0f b6 55 fc          	movzbl -0x4(%rbp),%edx
    a1ea:	0f b6 45 f8          	movzbl -0x8(%rbp),%eax
    a1ee:	01 d0                	add    %edx,%eax
    a1f0:	5d                   	pop    %rbp
    a1f1:	c3                   	retq   

000000000000a1f2 <safe_sub_func_int8_t_s_s>:
    a1f2:	f3 0f 1e fa          	endbr64 
    a1f6:	55                   	push   %rbp
    a1f7:	48 89 e5             	mov    %rsp,%rbp
    a1fa:	89 fa                	mov    %edi,%edx
    a1fc:	89 f0                	mov    %esi,%eax
    a1fe:	88 55 fc             	mov    %dl,-0x4(%rbp)
    a201:	88 45 f8             	mov    %al,-0x8(%rbp)
    a204:	0f b6 55 fc          	movzbl -0x4(%rbp),%edx
    a208:	0f b6 45 f8          	movzbl -0x8(%rbp),%eax
    a20c:	29 c2                	sub    %eax,%edx
    a20e:	89 d0                	mov    %edx,%eax
    a210:	5d                   	pop    %rbp
    a211:	c3                   	retq   

000000000000a212 <safe_mul_func_int8_t_s_s>:
    a212:	f3 0f 1e fa          	endbr64 
    a216:	55                   	push   %rbp
    a217:	48 89 e5             	mov    %rsp,%rbp
    a21a:	89 fa                	mov    %edi,%edx
    a21c:	89 f0                	mov    %esi,%eax
    a21e:	88 55 fc             	mov    %dl,-0x4(%rbp)
    a221:	88 45 f8             	mov    %al,-0x8(%rbp)
    a224:	0f b6 45 fc          	movzbl -0x4(%rbp),%eax
    a228:	0f b6 55 f8          	movzbl -0x8(%rbp),%edx
    a22c:	0f af c2             	imul   %edx,%eax
    a22f:	5d                   	pop    %rbp
    a230:	c3                   	retq   

000000000000a231 <safe_mod_func_int8_t_s_s>:
    a231:	f3 0f 1e fa          	endbr64 
    a235:	55                   	push   %rbp
    a236:	48 89 e5             	mov    %rsp,%rbp
    a239:	89 fa                	mov    %edi,%edx
    a23b:	89 f0                	mov    %esi,%eax
    a23d:	88 55 fc             	mov    %dl,-0x4(%rbp)
    a240:	88 45 f8             	mov    %al,-0x8(%rbp)
    a243:	80 7d f8 00          	cmpb   $0x0,-0x8(%rbp)
    a247:	74 1b                	je     a264 <safe_mod_func_int8_t_s_s+0x33>
    a249:	80 7d fc 80          	cmpb   $0x80,-0x4(%rbp)
    a24d:	75 06                	jne    a255 <safe_mod_func_int8_t_s_s+0x24>
    a24f:	80 7d f8 ff          	cmpb   $0xff,-0x8(%rbp)
    a253:	74 0f                	je     a264 <safe_mod_func_int8_t_s_s+0x33>
    a255:	0f be 45 fc          	movsbl -0x4(%rbp),%eax
    a259:	0f be 4d f8          	movsbl -0x8(%rbp),%ecx
    a25d:	99                   	cltd   
    a25e:	f7 f9                	idiv   %ecx
    a260:	89 d0                	mov    %edx,%eax
    a262:	eb 04                	jmp    a268 <safe_mod_func_int8_t_s_s+0x37>
    a264:	0f b6 45 fc          	movzbl -0x4(%rbp),%eax
    a268:	5d                   	pop    %rbp
    a269:	c3                   	retq   

000000000000a26a <safe_div_func_int8_t_s_s>:
    a26a:	f3 0f 1e fa          	endbr64 
    a26e:	55                   	push   %rbp
    a26f:	48 89 e5             	mov    %rsp,%rbp
    a272:	89 fa                	mov    %edi,%edx
    a274:	89 f0                	mov    %esi,%eax
    a276:	88 55 fc             	mov    %dl,-0x4(%rbp)
    a279:	88 45 f8             	mov    %al,-0x8(%rbp)
    a27c:	80 7d f8 00          	cmpb   $0x0,-0x8(%rbp)
    a280:	74 19                	je     a29b <safe_div_func_int8_t_s_s+0x31>
    a282:	80 7d fc 80          	cmpb   $0x80,-0x4(%rbp)
    a286:	75 06                	jne    a28e <safe_div_func_int8_t_s_s+0x24>
    a288:	80 7d f8 ff          	cmpb   $0xff,-0x8(%rbp)
    a28c:	74 0d                	je     a29b <safe_div_func_int8_t_s_s+0x31>
    a28e:	0f be 45 fc          	movsbl -0x4(%rbp),%eax
    a292:	0f be 4d f8          	movsbl -0x8(%rbp),%ecx
    a296:	99                   	cltd   
    a297:	f7 f9                	idiv   %ecx
    a299:	eb 04                	jmp    a29f <safe_div_func_int8_t_s_s+0x35>
    a29b:	0f b6 45 fc          	movzbl -0x4(%rbp),%eax
    a29f:	5d                   	pop    %rbp
    a2a0:	c3                   	retq   

000000000000a2a1 <safe_lshift_func_int8_t_s_s>:
    a2a1:	f3 0f 1e fa          	endbr64 
    a2a5:	55                   	push   %rbp
    a2a6:	48 89 e5             	mov    %rsp,%rbp
    a2a9:	89 f8                	mov    %edi,%eax
    a2ab:	89 75 f8             	mov    %esi,-0x8(%rbp)
    a2ae:	88 45 fc             	mov    %al,-0x4(%rbp)
    a2b1:	80 7d fc 00          	cmpb   $0x0,-0x4(%rbp)
    a2b5:	78 31                	js     a2e8 <safe_lshift_func_int8_t_s_s+0x47>
    a2b7:	83 7d f8 00          	cmpl   $0x0,-0x8(%rbp)
    a2bb:	78 2b                	js     a2e8 <safe_lshift_func_int8_t_s_s+0x47>
    a2bd:	83 7d f8 1f          	cmpl   $0x1f,-0x8(%rbp)
    a2c1:	7f 25                	jg     a2e8 <safe_lshift_func_int8_t_s_s+0x47>
    a2c3:	0f be 55 fc          	movsbl -0x4(%rbp),%edx
    a2c7:	8b 45 f8             	mov    -0x8(%rbp),%eax
    a2ca:	be 7f 00 00 00       	mov    $0x7f,%esi
    a2cf:	89 c1                	mov    %eax,%ecx
    a2d1:	d3 fe                	sar    %cl,%esi
    a2d3:	89 f0                	mov    %esi,%eax
    a2d5:	39 c2                	cmp    %eax,%edx
    a2d7:	7f 0f                	jg     a2e8 <safe_lshift_func_int8_t_s_s+0x47>
    a2d9:	0f be 55 fc          	movsbl -0x4(%rbp),%edx
    a2dd:	8b 45 f8             	mov    -0x8(%rbp),%eax
    a2e0:	89 c1                	mov    %eax,%ecx
    a2e2:	d3 e2                	shl    %cl,%edx
    a2e4:	89 d0                	mov    %edx,%eax
    a2e6:	eb 04                	jmp    a2ec <safe_lshift_func_int8_t_s_s+0x4b>
    a2e8:	0f b6 45 fc          	movzbl -0x4(%rbp),%eax
    a2ec:	5d                   	pop    %rbp
    a2ed:	c3                   	retq   

000000000000a2ee <safe_lshift_func_int8_t_s_u>:
    a2ee:	f3 0f 1e fa          	endbr64 
    a2f2:	55                   	push   %rbp
    a2f3:	48 89 e5             	mov    %rsp,%rbp
    a2f6:	89 f8                	mov    %edi,%eax
    a2f8:	89 75 f8             	mov    %esi,-0x8(%rbp)
    a2fb:	88 45 fc             	mov    %al,-0x4(%rbp)
    a2fe:	80 7d fc 00          	cmpb   $0x0,-0x4(%rbp)
    a302:	78 2b                	js     a32f <safe_lshift_func_int8_t_s_u+0x41>
    a304:	83 7d f8 1f          	cmpl   $0x1f,-0x8(%rbp)
    a308:	77 25                	ja     a32f <safe_lshift_func_int8_t_s_u+0x41>
    a30a:	0f be 55 fc          	movsbl -0x4(%rbp),%edx
    a30e:	8b 45 f8             	mov    -0x8(%rbp),%eax
    a311:	be 7f 00 00 00       	mov    $0x7f,%esi
    a316:	89 c1                	mov    %eax,%ecx
    a318:	d3 fe                	sar    %cl,%esi
    a31a:	89 f0                	mov    %esi,%eax
    a31c:	39 c2                	cmp    %eax,%edx
    a31e:	7f 0f                	jg     a32f <safe_lshift_func_int8_t_s_u+0x41>
    a320:	0f be 55 fc          	movsbl -0x4(%rbp),%edx
    a324:	8b 45 f8             	mov    -0x8(%rbp),%eax
    a327:	89 c1                	mov    %eax,%ecx
    a329:	d3 e2                	shl    %cl,%edx
    a32b:	89 d0                	mov    %edx,%eax
    a32d:	eb 04                	jmp    a333 <safe_lshift_func_int8_t_s_u+0x45>
    a32f:	0f b6 45 fc          	movzbl -0x4(%rbp),%eax
    a333:	5d                   	pop    %rbp
    a334:	c3                   	retq   

000000000000a335 <safe_rshift_func_int8_t_s_s>:
    a335:	f3 0f 1e fa          	endbr64 
    a339:	55                   	push   %rbp
    a33a:	48 89 e5             	mov    %rsp,%rbp
    a33d:	89 f8                	mov    %edi,%eax
    a33f:	89 75 f8             	mov    %esi,-0x8(%rbp)
    a342:	88 45 fc             	mov    %al,-0x4(%rbp)
    a345:	80 7d fc 00          	cmpb   $0x0,-0x4(%rbp)
    a349:	78 1b                	js     a366 <safe_rshift_func_int8_t_s_s+0x31>
    a34b:	83 7d f8 00          	cmpl   $0x0,-0x8(%rbp)
    a34f:	78 15                	js     a366 <safe_rshift_func_int8_t_s_s+0x31>
    a351:	83 7d f8 1f          	cmpl   $0x1f,-0x8(%rbp)
    a355:	7f 0f                	jg     a366 <safe_rshift_func_int8_t_s_s+0x31>
    a357:	0f be 55 fc          	movsbl -0x4(%rbp),%edx
    a35b:	8b 45 f8             	mov    -0x8(%rbp),%eax
    a35e:	89 c1                	mov    %eax,%ecx
    a360:	d3 fa                	sar    %cl,%edx
    a362:	89 d0                	mov    %edx,%eax
    a364:	eb 04                	jmp    a36a <safe_rshift_func_int8_t_s_s+0x35>
    a366:	0f b6 45 fc          	movzbl -0x4(%rbp),%eax
    a36a:	5d                   	pop    %rbp
    a36b:	c3                   	retq   

000000000000a36c <safe_rshift_func_int8_t_s_u>:
    a36c:	f3 0f 1e fa          	endbr64 
    a370:	55                   	push   %rbp
    a371:	48 89 e5             	mov    %rsp,%rbp
    a374:	89 f8                	mov    %edi,%eax
    a376:	89 75 f8             	mov    %esi,-0x8(%rbp)
    a379:	88 45 fc             	mov    %al,-0x4(%rbp)
    a37c:	80 7d fc 00          	cmpb   $0x0,-0x4(%rbp)
    a380:	78 15                	js     a397 <safe_rshift_func_int8_t_s_u+0x2b>
    a382:	83 7d f8 1f          	cmpl   $0x1f,-0x8(%rbp)
    a386:	77 0f                	ja     a397 <safe_rshift_func_int8_t_s_u+0x2b>
    a388:	0f be 55 fc          	movsbl -0x4(%rbp),%edx
    a38c:	8b 45 f8             	mov    -0x8(%rbp),%eax
    a38f:	89 c1                	mov    %eax,%ecx
    a391:	d3 fa                	sar    %cl,%edx
    a393:	89 d0                	mov    %edx,%eax
    a395:	eb 04                	jmp    a39b <safe_rshift_func_int8_t_s_u+0x2f>
    a397:	0f b6 45 fc          	movzbl -0x4(%rbp),%eax
    a39b:	5d                   	pop    %rbp
    a39c:	c3                   	retq   

000000000000a39d <safe_unary_minus_func_int16_t_s>:
    a39d:	f3 0f 1e fa          	endbr64 
    a3a1:	55                   	push   %rbp
    a3a2:	48 89 e5             	mov    %rsp,%rbp
    a3a5:	89 f8                	mov    %edi,%eax
    a3a7:	66 89 45 fc          	mov    %ax,-0x4(%rbp)
    a3ab:	0f b7 45 fc          	movzwl -0x4(%rbp),%eax
    a3af:	f7 d8                	neg    %eax
    a3b1:	5d                   	pop    %rbp
    a3b2:	c3                   	retq   

000000000000a3b3 <safe_add_func_int16_t_s_s>:
    a3b3:	f3 0f 1e fa          	endbr64 
    a3b7:	55                   	push   %rbp
    a3b8:	48 89 e5             	mov    %rsp,%rbp
    a3bb:	89 fa                	mov    %edi,%edx
    a3bd:	89 f0                	mov    %esi,%eax
    a3bf:	66 89 55 fc          	mov    %dx,-0x4(%rbp)
    a3c3:	66 89 45 f8          	mov    %ax,-0x8(%rbp)
    a3c7:	0f b7 55 fc          	movzwl -0x4(%rbp),%edx
    a3cb:	0f b7 45 f8          	movzwl -0x8(%rbp),%eax
    a3cf:	01 d0                	add    %edx,%eax
    a3d1:	5d                   	pop    %rbp
    a3d2:	c3                   	retq   

000000000000a3d3 <safe_sub_func_int16_t_s_s>:
    a3d3:	f3 0f 1e fa          	endbr64 
    a3d7:	55                   	push   %rbp
    a3d8:	48 89 e5             	mov    %rsp,%rbp
    a3db:	89 fa                	mov    %edi,%edx
    a3dd:	89 f0                	mov    %esi,%eax
    a3df:	66 89 55 fc          	mov    %dx,-0x4(%rbp)
    a3e3:	66 89 45 f8          	mov    %ax,-0x8(%rbp)
    a3e7:	0f b7 55 fc          	movzwl -0x4(%rbp),%edx
    a3eb:	0f b7 45 f8          	movzwl -0x8(%rbp),%eax
    a3ef:	29 c2                	sub    %eax,%edx
    a3f1:	89 d0                	mov    %edx,%eax
    a3f3:	5d                   	pop    %rbp
    a3f4:	c3                   	retq   

000000000000a3f5 <safe_mul_func_int16_t_s_s>:
    a3f5:	f3 0f 1e fa          	endbr64 
    a3f9:	55                   	push   %rbp
    a3fa:	48 89 e5             	mov    %rsp,%rbp
    a3fd:	89 fa                	mov    %edi,%edx
    a3ff:	89 f0                	mov    %esi,%eax
    a401:	66 89 55 fc          	mov    %dx,-0x4(%rbp)
    a405:	66 89 45 f8          	mov    %ax,-0x8(%rbp)
    a409:	0f b7 55 fc          	movzwl -0x4(%rbp),%edx
    a40d:	0f b7 45 f8          	movzwl -0x8(%rbp),%eax
    a411:	0f af c2             	imul   %edx,%eax
    a414:	5d                   	pop    %rbp
    a415:	c3                   	retq   

000000000000a416 <safe_mod_func_int16_t_s_s>:
    a416:	f3 0f 1e fa          	endbr64 
    a41a:	55                   	push   %rbp
    a41b:	48 89 e5             	mov    %rsp,%rbp
    a41e:	89 fa                	mov    %edi,%edx
    a420:	89 f0                	mov    %esi,%eax
    a422:	66 89 55 fc          	mov    %dx,-0x4(%rbp)
    a426:	66 89 45 f8          	mov    %ax,-0x8(%rbp)
    a42a:	66 83 7d f8 00       	cmpw   $0x0,-0x8(%rbp)
    a42f:	74 1e                	je     a44f <safe_mod_func_int16_t_s_s+0x39>
    a431:	66 81 7d fc 00 80    	cmpw   $0x8000,-0x4(%rbp)
    a437:	75 07                	jne    a440 <safe_mod_func_int16_t_s_s+0x2a>
    a439:	66 83 7d f8 ff       	cmpw   $0xffff,-0x8(%rbp)
    a43e:	74 0f                	je     a44f <safe_mod_func_int16_t_s_s+0x39>
    a440:	0f bf 45 fc          	movswl -0x4(%rbp),%eax
    a444:	0f bf 4d f8          	movswl -0x8(%rbp),%ecx
    a448:	99                   	cltd   
    a449:	f7 f9                	idiv   %ecx
    a44b:	89 d0                	mov    %edx,%eax
    a44d:	eb 04                	jmp    a453 <safe_mod_func_int16_t_s_s+0x3d>
    a44f:	0f b7 45 fc          	movzwl -0x4(%rbp),%eax
    a453:	5d                   	pop    %rbp
    a454:	c3                   	retq   

000000000000a455 <safe_div_func_int16_t_s_s>:
    a455:	f3 0f 1e fa          	endbr64 
    a459:	55                   	push   %rbp
    a45a:	48 89 e5             	mov    %rsp,%rbp
    a45d:	89 fa                	mov    %edi,%edx
    a45f:	89 f0                	mov    %esi,%eax
    a461:	66 89 55 fc          	mov    %dx,-0x4(%rbp)
    a465:	66 89 45 f8          	mov    %ax,-0x8(%rbp)
    a469:	66 83 7d f8 00       	cmpw   $0x0,-0x8(%rbp)
    a46e:	74 1c                	je     a48c <safe_div_func_int16_t_s_s+0x37>
    a470:	66 81 7d fc 00 80    	cmpw   $0x8000,-0x4(%rbp)
    a476:	75 07                	jne    a47f <safe_div_func_int16_t_s_s+0x2a>
    a478:	66 83 7d f8 ff       	cmpw   $0xffff,-0x8(%rbp)
    a47d:	74 0d                	je     a48c <safe_div_func_int16_t_s_s+0x37>
    a47f:	0f bf 45 fc          	movswl -0x4(%rbp),%eax
    a483:	0f bf 4d f8          	movswl -0x8(%rbp),%ecx
    a487:	99                   	cltd   
    a488:	f7 f9                	idiv   %ecx
    a48a:	eb 04                	jmp    a490 <safe_div_func_int16_t_s_s+0x3b>
    a48c:	0f b7 45 fc          	movzwl -0x4(%rbp),%eax
    a490:	5d                   	pop    %rbp
    a491:	c3                   	retq   

000000000000a492 <safe_lshift_func_int16_t_s_s>:
    a492:	f3 0f 1e fa          	endbr64 
    a496:	55                   	push   %rbp
    a497:	48 89 e5             	mov    %rsp,%rbp
    a49a:	89 f8                	mov    %edi,%eax
    a49c:	89 75 f8             	mov    %esi,-0x8(%rbp)
    a49f:	66 89 45 fc          	mov    %ax,-0x4(%rbp)
    a4a3:	66 83 7d fc 00       	cmpw   $0x0,-0x4(%rbp)
    a4a8:	78 31                	js     a4db <safe_lshift_func_int16_t_s_s+0x49>
    a4aa:	83 7d f8 00          	cmpl   $0x0,-0x8(%rbp)
    a4ae:	78 2b                	js     a4db <safe_lshift_func_int16_t_s_s+0x49>
    a4b0:	83 7d f8 1f          	cmpl   $0x1f,-0x8(%rbp)
    a4b4:	7f 25                	jg     a4db <safe_lshift_func_int16_t_s_s+0x49>
    a4b6:	0f bf 55 fc          	movswl -0x4(%rbp),%edx
    a4ba:	8b 45 f8             	mov    -0x8(%rbp),%eax
    a4bd:	be ff 7f 00 00       	mov    $0x7fff,%esi
    a4c2:	89 c1                	mov    %eax,%ecx
    a4c4:	d3 fe                	sar    %cl,%esi
    a4c6:	89 f0                	mov    %esi,%eax
    a4c8:	39 c2                	cmp    %eax,%edx
    a4ca:	7f 0f                	jg     a4db <safe_lshift_func_int16_t_s_s+0x49>
    a4cc:	0f bf 55 fc          	movswl -0x4(%rbp),%edx
    a4d0:	8b 45 f8             	mov    -0x8(%rbp),%eax
    a4d3:	89 c1                	mov    %eax,%ecx
    a4d5:	d3 e2                	shl    %cl,%edx
    a4d7:	89 d0                	mov    %edx,%eax
    a4d9:	eb 04                	jmp    a4df <safe_lshift_func_int16_t_s_s+0x4d>
    a4db:	0f b7 45 fc          	movzwl -0x4(%rbp),%eax
    a4df:	5d                   	pop    %rbp
    a4e0:	c3                   	retq   

000000000000a4e1 <safe_lshift_func_int16_t_s_u>:
    a4e1:	f3 0f 1e fa          	endbr64 
    a4e5:	55                   	push   %rbp
    a4e6:	48 89 e5             	mov    %rsp,%rbp
    a4e9:	89 f8                	mov    %edi,%eax
    a4eb:	89 75 f8             	mov    %esi,-0x8(%rbp)
    a4ee:	66 89 45 fc          	mov    %ax,-0x4(%rbp)
    a4f2:	66 83 7d fc 00       	cmpw   $0x0,-0x4(%rbp)
    a4f7:	78 2b                	js     a524 <safe_lshift_func_int16_t_s_u+0x43>
    a4f9:	83 7d f8 1f          	cmpl   $0x1f,-0x8(%rbp)
    a4fd:	77 25                	ja     a524 <safe_lshift_func_int16_t_s_u+0x43>
    a4ff:	0f bf 55 fc          	movswl -0x4(%rbp),%edx
    a503:	8b 45 f8             	mov    -0x8(%rbp),%eax
    a506:	be ff 7f 00 00       	mov    $0x7fff,%esi
    a50b:	89 c1                	mov    %eax,%ecx
    a50d:	d3 fe                	sar    %cl,%esi
    a50f:	89 f0                	mov    %esi,%eax
    a511:	39 c2                	cmp    %eax,%edx
    a513:	7f 0f                	jg     a524 <safe_lshift_func_int16_t_s_u+0x43>
    a515:	0f bf 55 fc          	movswl -0x4(%rbp),%edx
    a519:	8b 45 f8             	mov    -0x8(%rbp),%eax
    a51c:	89 c1                	mov    %eax,%ecx
    a51e:	d3 e2                	shl    %cl,%edx
    a520:	89 d0                	mov    %edx,%eax
    a522:	eb 04                	jmp    a528 <safe_lshift_func_int16_t_s_u+0x47>
    a524:	0f b7 45 fc          	movzwl -0x4(%rbp),%eax
    a528:	5d                   	pop    %rbp
    a529:	c3                   	retq   

000000000000a52a <safe_rshift_func_int16_t_s_s>:
    a52a:	f3 0f 1e fa          	endbr64 
    a52e:	55                   	push   %rbp
    a52f:	48 89 e5             	mov    %rsp,%rbp
    a532:	89 f8                	mov    %edi,%eax
    a534:	89 75 f8             	mov    %esi,-0x8(%rbp)
    a537:	66 89 45 fc          	mov    %ax,-0x4(%rbp)
    a53b:	66 83 7d fc 00       	cmpw   $0x0,-0x4(%rbp)
    a540:	78 1b                	js     a55d <safe_rshift_func_int16_t_s_s+0x33>
    a542:	83 7d f8 00          	cmpl   $0x0,-0x8(%rbp)
    a546:	78 15                	js     a55d <safe_rshift_func_int16_t_s_s+0x33>
    a548:	83 7d f8 1f          	cmpl   $0x1f,-0x8(%rbp)
    a54c:	7f 0f                	jg     a55d <safe_rshift_func_int16_t_s_s+0x33>
    a54e:	0f bf 55 fc          	movswl -0x4(%rbp),%edx
    a552:	8b 45 f8             	mov    -0x8(%rbp),%eax
    a555:	89 c1                	mov    %eax,%ecx
    a557:	d3 fa                	sar    %cl,%edx
    a559:	89 d0                	mov    %edx,%eax
    a55b:	eb 04                	jmp    a561 <safe_rshift_func_int16_t_s_s+0x37>
    a55d:	0f b7 45 fc          	movzwl -0x4(%rbp),%eax
    a561:	5d                   	pop    %rbp
    a562:	c3                   	retq   

000000000000a563 <safe_rshift_func_int16_t_s_u>:
    a563:	f3 0f 1e fa          	endbr64 
    a567:	55                   	push   %rbp
    a568:	48 89 e5             	mov    %rsp,%rbp
    a56b:	89 f8                	mov    %edi,%eax
    a56d:	89 75 f8             	mov    %esi,-0x8(%rbp)
    a570:	66 89 45 fc          	mov    %ax,-0x4(%rbp)
    a574:	66 83 7d fc 00       	cmpw   $0x0,-0x4(%rbp)
    a579:	78 15                	js     a590 <safe_rshift_func_int16_t_s_u+0x2d>
    a57b:	83 7d f8 1f          	cmpl   $0x1f,-0x8(%rbp)
    a57f:	77 0f                	ja     a590 <safe_rshift_func_int16_t_s_u+0x2d>
    a581:	0f bf 55 fc          	movswl -0x4(%rbp),%edx
    a585:	8b 45 f8             	mov    -0x8(%rbp),%eax
    a588:	89 c1                	mov    %eax,%ecx
    a58a:	d3 fa                	sar    %cl,%edx
    a58c:	89 d0                	mov    %edx,%eax
    a58e:	eb 04                	jmp    a594 <safe_rshift_func_int16_t_s_u+0x31>
    a590:	0f b7 45 fc          	movzwl -0x4(%rbp),%eax
    a594:	5d                   	pop    %rbp
    a595:	c3                   	retq   

000000000000a596 <safe_unary_minus_func_int32_t_s>:
    a596:	f3 0f 1e fa          	endbr64 
    a59a:	55                   	push   %rbp
    a59b:	48 89 e5             	mov    %rsp,%rbp
    a59e:	89 7d fc             	mov    %edi,-0x4(%rbp)
    a5a1:	81 7d fc 00 00 00 80 	cmpl   $0x80000000,-0x4(%rbp)
    a5a8:	74 07                	je     a5b1 <safe_unary_minus_func_int32_t_s+0x1b>
    a5aa:	8b 45 fc             	mov    -0x4(%rbp),%eax
    a5ad:	f7 d8                	neg    %eax
    a5af:	eb 03                	jmp    a5b4 <safe_unary_minus_func_int32_t_s+0x1e>
    a5b1:	8b 45 fc             	mov    -0x4(%rbp),%eax
    a5b4:	5d                   	pop    %rbp
    a5b5:	c3                   	retq   

000000000000a5b6 <safe_add_func_int32_t_s_s>:
    a5b6:	f3 0f 1e fa          	endbr64 
    a5ba:	55                   	push   %rbp
    a5bb:	48 89 e5             	mov    %rsp,%rbp
    a5be:	89 7d fc             	mov    %edi,-0x4(%rbp)
    a5c1:	89 75 f8             	mov    %esi,-0x8(%rbp)
    a5c4:	83 7d fc 00          	cmpl   $0x0,-0x4(%rbp)
    a5c8:	7e 13                	jle    a5dd <safe_add_func_int32_t_s_s+0x27>
    a5ca:	83 7d f8 00          	cmpl   $0x0,-0x8(%rbp)
    a5ce:	7e 0d                	jle    a5dd <safe_add_func_int32_t_s_s+0x27>
    a5d0:	b8 ff ff ff 7f       	mov    $0x7fffffff,%eax
    a5d5:	2b 45 f8             	sub    -0x8(%rbp),%eax
    a5d8:	39 45 fc             	cmp    %eax,-0x4(%rbp)
    a5db:	7f 23                	jg     a600 <safe_add_func_int32_t_s_s+0x4a>
    a5dd:	83 7d fc 00          	cmpl   $0x0,-0x4(%rbp)
    a5e1:	79 13                	jns    a5f6 <safe_add_func_int32_t_s_s+0x40>
    a5e3:	83 7d f8 00          	cmpl   $0x0,-0x8(%rbp)
    a5e7:	79 0d                	jns    a5f6 <safe_add_func_int32_t_s_s+0x40>
    a5e9:	b8 00 00 00 80       	mov    $0x80000000,%eax
    a5ee:	2b 45 f8             	sub    -0x8(%rbp),%eax
    a5f1:	39 45 fc             	cmp    %eax,-0x4(%rbp)
    a5f4:	7c 0a                	jl     a600 <safe_add_func_int32_t_s_s+0x4a>
    a5f6:	8b 55 fc             	mov    -0x4(%rbp),%edx
    a5f9:	8b 45 f8             	mov    -0x8(%rbp),%eax
    a5fc:	01 d0                	add    %edx,%eax
    a5fe:	eb 03                	jmp    a603 <safe_add_func_int32_t_s_s+0x4d>
    a600:	8b 45 fc             	mov    -0x4(%rbp),%eax
    a603:	5d                   	pop    %rbp
    a604:	c3                   	retq   

000000000000a605 <safe_sub_func_int32_t_s_s>:
    a605:	f3 0f 1e fa          	endbr64 
    a609:	55                   	push   %rbp
    a60a:	48 89 e5             	mov    %rsp,%rbp
    a60d:	89 7d fc             	mov    %edi,-0x4(%rbp)
    a610:	89 75 f8             	mov    %esi,-0x8(%rbp)
    a613:	8b 45 fc             	mov    -0x4(%rbp),%eax
    a616:	33 45 f8             	xor    -0x8(%rbp),%eax
    a619:	89 c2                	mov    %eax,%edx
    a61b:	8b 45 fc             	mov    -0x4(%rbp),%eax
    a61e:	33 45 f8             	xor    -0x8(%rbp),%eax
    a621:	25 00 00 00 80       	and    $0x80000000,%eax
    a626:	33 45 fc             	xor    -0x4(%rbp),%eax
    a629:	2b 45 f8             	sub    -0x8(%rbp),%eax
    a62c:	33 45 f8             	xor    -0x8(%rbp),%eax
    a62f:	21 d0                	and    %edx,%eax
    a631:	85 c0                	test   %eax,%eax
    a633:	78 08                	js     a63d <safe_sub_func_int32_t_s_s+0x38>
    a635:	8b 45 fc             	mov    -0x4(%rbp),%eax
    a638:	2b 45 f8             	sub    -0x8(%rbp),%eax
    a63b:	eb 03                	jmp    a640 <safe_sub_func_int32_t_s_s+0x3b>
    a63d:	8b 45 fc             	mov    -0x4(%rbp),%eax
    a640:	5d                   	pop    %rbp
    a641:	c3                   	retq   

000000000000a642 <safe_mul_func_int32_t_s_s>:
    a642:	f3 0f 1e fa          	endbr64 
    a646:	55                   	push   %rbp
    a647:	48 89 e5             	mov    %rsp,%rbp
    a64a:	89 7d fc             	mov    %edi,-0x4(%rbp)
    a64d:	89 75 f8             	mov    %esi,-0x8(%rbp)
    a650:	83 7d fc 00          	cmpl   $0x0,-0x4(%rbp)
    a654:	7e 14                	jle    a66a <safe_mul_func_int32_t_s_s+0x28>
    a656:	83 7d f8 00          	cmpl   $0x0,-0x8(%rbp)
    a65a:	7e 0e                	jle    a66a <safe_mul_func_int32_t_s_s+0x28>
    a65c:	b8 ff ff ff 7f       	mov    $0x7fffffff,%eax
    a661:	99                   	cltd   
    a662:	f7 7d f8             	idivl  -0x8(%rbp)
    a665:	39 45 fc             	cmp    %eax,-0x4(%rbp)
    a668:	7f 5d                	jg     a6c7 <safe_mul_func_int32_t_s_s+0x85>
    a66a:	83 7d fc 00          	cmpl   $0x0,-0x4(%rbp)
    a66e:	7e 14                	jle    a684 <safe_mul_func_int32_t_s_s+0x42>
    a670:	83 7d f8 00          	cmpl   $0x0,-0x8(%rbp)
    a674:	7f 0e                	jg     a684 <safe_mul_func_int32_t_s_s+0x42>
    a676:	b8 00 00 00 80       	mov    $0x80000000,%eax
    a67b:	99                   	cltd   
    a67c:	f7 7d fc             	idivl  -0x4(%rbp)
    a67f:	39 45 f8             	cmp    %eax,-0x8(%rbp)
    a682:	7c 43                	jl     a6c7 <safe_mul_func_int32_t_s_s+0x85>
    a684:	83 7d fc 00          	cmpl   $0x0,-0x4(%rbp)
    a688:	7f 14                	jg     a69e <safe_mul_func_int32_t_s_s+0x5c>
    a68a:	83 7d f8 00          	cmpl   $0x0,-0x8(%rbp)
    a68e:	7e 0e                	jle    a69e <safe_mul_func_int32_t_s_s+0x5c>
    a690:	b8 00 00 00 80       	mov    $0x80000000,%eax
    a695:	99                   	cltd   
    a696:	f7 7d f8             	idivl  -0x8(%rbp)
    a699:	39 45 fc             	cmp    %eax,-0x4(%rbp)
    a69c:	7c 29                	jl     a6c7 <safe_mul_func_int32_t_s_s+0x85>
    a69e:	83 7d fc 00          	cmpl   $0x0,-0x4(%rbp)
    a6a2:	7f 1a                	jg     a6be <safe_mul_func_int32_t_s_s+0x7c>
    a6a4:	83 7d f8 00          	cmpl   $0x0,-0x8(%rbp)
    a6a8:	7f 14                	jg     a6be <safe_mul_func_int32_t_s_s+0x7c>
    a6aa:	83 7d fc 00          	cmpl   $0x0,-0x4(%rbp)
    a6ae:	74 0e                	je     a6be <safe_mul_func_int32_t_s_s+0x7c>
    a6b0:	b8 ff ff ff 7f       	mov    $0x7fffffff,%eax
    a6b5:	99                   	cltd   
    a6b6:	f7 7d fc             	idivl  -0x4(%rbp)
    a6b9:	39 45 f8             	cmp    %eax,-0x8(%rbp)
    a6bc:	7c 09                	jl     a6c7 <safe_mul_func_int32_t_s_s+0x85>
    a6be:	8b 45 fc             	mov    -0x4(%rbp),%eax
    a6c1:	0f af 45 f8          	imul   -0x8(%rbp),%eax
    a6c5:	eb 03                	jmp    a6ca <safe_mul_func_int32_t_s_s+0x88>
    a6c7:	8b 45 fc             	mov    -0x4(%rbp),%eax
    a6ca:	5d                   	pop    %rbp
    a6cb:	c3                   	retq   

000000000000a6cc <safe_mod_func_int32_t_s_s>:
    a6cc:	f3 0f 1e fa          	endbr64 
    a6d0:	55                   	push   %rbp
    a6d1:	48 89 e5             	mov    %rsp,%rbp
    a6d4:	89 7d fc             	mov    %edi,-0x4(%rbp)
    a6d7:	89 75 f8             	mov    %esi,-0x8(%rbp)
    a6da:	83 7d f8 00          	cmpl   $0x0,-0x8(%rbp)
    a6de:	74 1a                	je     a6fa <safe_mod_func_int32_t_s_s+0x2e>
    a6e0:	81 7d fc 00 00 00 80 	cmpl   $0x80000000,-0x4(%rbp)
    a6e7:	75 06                	jne    a6ef <safe_mod_func_int32_t_s_s+0x23>
    a6e9:	83 7d f8 ff          	cmpl   $0xffffffff,-0x8(%rbp)
    a6ed:	74 0b                	je     a6fa <safe_mod_func_int32_t_s_s+0x2e>
    a6ef:	8b 45 fc             	mov    -0x4(%rbp),%eax
    a6f2:	99                   	cltd   
    a6f3:	f7 7d f8             	idivl  -0x8(%rbp)
    a6f6:	89 d0                	mov    %edx,%eax
    a6f8:	eb 03                	jmp    a6fd <safe_mod_func_int32_t_s_s+0x31>
    a6fa:	8b 45 fc             	mov    -0x4(%rbp),%eax
    a6fd:	5d                   	pop    %rbp
    a6fe:	c3                   	retq   

000000000000a6ff <safe_div_func_int32_t_s_s>:
    a6ff:	f3 0f 1e fa          	endbr64 
    a703:	55                   	push   %rbp
    a704:	48 89 e5             	mov    %rsp,%rbp
    a707:	89 7d fc             	mov    %edi,-0x4(%rbp)
    a70a:	89 75 f8             	mov    %esi,-0x8(%rbp)
    a70d:	83 7d f8 00          	cmpl   $0x0,-0x8(%rbp)
    a711:	74 18                	je     a72b <safe_div_func_int32_t_s_s+0x2c>
    a713:	81 7d fc 00 00 00 80 	cmpl   $0x80000000,-0x4(%rbp)
    a71a:	75 06                	jne    a722 <safe_div_func_int32_t_s_s+0x23>
    a71c:	83 7d f8 ff          	cmpl   $0xffffffff,-0x8(%rbp)
    a720:	74 09                	je     a72b <safe_div_func_int32_t_s_s+0x2c>
    a722:	8b 45 fc             	mov    -0x4(%rbp),%eax
    a725:	99                   	cltd   
    a726:	f7 7d f8             	idivl  -0x8(%rbp)
    a729:	eb 03                	jmp    a72e <safe_div_func_int32_t_s_s+0x2f>
    a72b:	8b 45 fc             	mov    -0x4(%rbp),%eax
    a72e:	5d                   	pop    %rbp
    a72f:	c3                   	retq   

000000000000a730 <safe_lshift_func_int32_t_s_s>:
    a730:	f3 0f 1e fa          	endbr64 
    a734:	55                   	push   %rbp
    a735:	48 89 e5             	mov    %rsp,%rbp
    a738:	89 7d fc             	mov    %edi,-0x4(%rbp)
    a73b:	89 75 f8             	mov    %esi,-0x8(%rbp)
    a73e:	83 7d fc 00          	cmpl   $0x0,-0x4(%rbp)
    a742:	78 2d                	js     a771 <safe_lshift_func_int32_t_s_s+0x41>
    a744:	83 7d f8 00          	cmpl   $0x0,-0x8(%rbp)
    a748:	78 27                	js     a771 <safe_lshift_func_int32_t_s_s+0x41>
    a74a:	83 7d f8 1f          	cmpl   $0x1f,-0x8(%rbp)
    a74e:	7f 21                	jg     a771 <safe_lshift_func_int32_t_s_s+0x41>
    a750:	8b 45 f8             	mov    -0x8(%rbp),%eax
    a753:	ba ff ff ff 7f       	mov    $0x7fffffff,%edx
    a758:	89 c1                	mov    %eax,%ecx
    a75a:	d3 fa                	sar    %cl,%edx
    a75c:	89 d0                	mov    %edx,%eax
    a75e:	39 45 fc             	cmp    %eax,-0x4(%rbp)
    a761:	7f 0e                	jg     a771 <safe_lshift_func_int32_t_s_s+0x41>
    a763:	8b 45 f8             	mov    -0x8(%rbp),%eax
    a766:	8b 55 fc             	mov    -0x4(%rbp),%edx
    a769:	89 c1                	mov    %eax,%ecx
    a76b:	d3 e2                	shl    %cl,%edx
    a76d:	89 d0                	mov    %edx,%eax
    a76f:	eb 03                	jmp    a774 <safe_lshift_func_int32_t_s_s+0x44>
    a771:	8b 45 fc             	mov    -0x4(%rbp),%eax
    a774:	5d                   	pop    %rbp
    a775:	c3                   	retq   

000000000000a776 <safe_lshift_func_int32_t_s_u>:
    a776:	f3 0f 1e fa          	endbr64 
    a77a:	55                   	push   %rbp
    a77b:	48 89 e5             	mov    %rsp,%rbp
    a77e:	89 7d fc             	mov    %edi,-0x4(%rbp)
    a781:	89 75 f8             	mov    %esi,-0x8(%rbp)
    a784:	83 7d fc 00          	cmpl   $0x0,-0x4(%rbp)
    a788:	78 27                	js     a7b1 <safe_lshift_func_int32_t_s_u+0x3b>
    a78a:	83 7d f8 1f          	cmpl   $0x1f,-0x8(%rbp)
    a78e:	77 21                	ja     a7b1 <safe_lshift_func_int32_t_s_u+0x3b>
    a790:	8b 45 f8             	mov    -0x8(%rbp),%eax
    a793:	ba ff ff ff 7f       	mov    $0x7fffffff,%edx
    a798:	89 c1                	mov    %eax,%ecx
    a79a:	d3 fa                	sar    %cl,%edx
    a79c:	89 d0                	mov    %edx,%eax
    a79e:	39 45 fc             	cmp    %eax,-0x4(%rbp)
    a7a1:	7f 0e                	jg     a7b1 <safe_lshift_func_int32_t_s_u+0x3b>
    a7a3:	8b 45 f8             	mov    -0x8(%rbp),%eax
    a7a6:	8b 55 fc             	mov    -0x4(%rbp),%edx
    a7a9:	89 c1                	mov    %eax,%ecx
    a7ab:	d3 e2                	shl    %cl,%edx
    a7ad:	89 d0                	mov    %edx,%eax
    a7af:	eb 03                	jmp    a7b4 <safe_lshift_func_int32_t_s_u+0x3e>
    a7b1:	8b 45 fc             	mov    -0x4(%rbp),%eax
    a7b4:	5d                   	pop    %rbp
    a7b5:	c3                   	retq   

000000000000a7b6 <safe_rshift_func_int32_t_s_s>:
    a7b6:	f3 0f 1e fa          	endbr64 
    a7ba:	55                   	push   %rbp
    a7bb:	48 89 e5             	mov    %rsp,%rbp
    a7be:	89 7d fc             	mov    %edi,-0x4(%rbp)
    a7c1:	89 75 f8             	mov    %esi,-0x8(%rbp)
    a7c4:	83 7d fc 00          	cmpl   $0x0,-0x4(%rbp)
    a7c8:	78 1a                	js     a7e4 <safe_rshift_func_int32_t_s_s+0x2e>
    a7ca:	83 7d f8 00          	cmpl   $0x0,-0x8(%rbp)
    a7ce:	78 14                	js     a7e4 <safe_rshift_func_int32_t_s_s+0x2e>
    a7d0:	83 7d f8 1f          	cmpl   $0x1f,-0x8(%rbp)
    a7d4:	7f 0e                	jg     a7e4 <safe_rshift_func_int32_t_s_s+0x2e>
    a7d6:	8b 45 f8             	mov    -0x8(%rbp),%eax
    a7d9:	8b 55 fc             	mov    -0x4(%rbp),%edx
    a7dc:	89 c1                	mov    %eax,%ecx
    a7de:	d3 fa                	sar    %cl,%edx
    a7e0:	89 d0                	mov    %edx,%eax
    a7e2:	eb 03                	jmp    a7e7 <safe_rshift_func_int32_t_s_s+0x31>
    a7e4:	8b 45 fc             	mov    -0x4(%rbp),%eax
    a7e7:	5d                   	pop    %rbp
    a7e8:	c3                   	retq   

000000000000a7e9 <safe_rshift_func_int32_t_s_u>:
    a7e9:	f3 0f 1e fa          	endbr64 
    a7ed:	55                   	push   %rbp
    a7ee:	48 89 e5             	mov    %rsp,%rbp
    a7f1:	89 7d fc             	mov    %edi,-0x4(%rbp)
    a7f4:	89 75 f8             	mov    %esi,-0x8(%rbp)
    a7f7:	83 7d fc 00          	cmpl   $0x0,-0x4(%rbp)
    a7fb:	78 14                	js     a811 <safe_rshift_func_int32_t_s_u+0x28>
    a7fd:	83 7d f8 1f          	cmpl   $0x1f,-0x8(%rbp)
    a801:	77 0e                	ja     a811 <safe_rshift_func_int32_t_s_u+0x28>
    a803:	8b 45 f8             	mov    -0x8(%rbp),%eax
    a806:	8b 55 fc             	mov    -0x4(%rbp),%edx
    a809:	89 c1                	mov    %eax,%ecx
    a80b:	d3 fa                	sar    %cl,%edx
    a80d:	89 d0                	mov    %edx,%eax
    a80f:	eb 03                	jmp    a814 <safe_rshift_func_int32_t_s_u+0x2b>
    a811:	8b 45 fc             	mov    -0x4(%rbp),%eax
    a814:	5d                   	pop    %rbp
    a815:	c3                   	retq   

000000000000a816 <safe_unary_minus_func_int64_t_s>:
    a816:	f3 0f 1e fa          	endbr64 
    a81a:	55                   	push   %rbp
    a81b:	48 89 e5             	mov    %rsp,%rbp
    a81e:	48 89 7d f8          	mov    %rdi,-0x8(%rbp)
    a822:	48 b8 00 00 00 00 00 	movabs $0x8000000000000000,%rax
    a829:	00 00 80 
    a82c:	48 39 45 f8          	cmp    %rax,-0x8(%rbp)
    a830:	74 09                	je     a83b <safe_unary_minus_func_int64_t_s+0x25>
    a832:	48 8b 45 f8          	mov    -0x8(%rbp),%rax
    a836:	48 f7 d8             	neg    %rax
    a839:	eb 04                	jmp    a83f <safe_unary_minus_func_int64_t_s+0x29>
    a83b:	48 8b 45 f8          	mov    -0x8(%rbp),%rax
    a83f:	5d                   	pop    %rbp
    a840:	c3                   	retq   

000000000000a841 <safe_add_func_int64_t_s_s>:
    a841:	f3 0f 1e fa          	endbr64 
    a845:	55                   	push   %rbp
    a846:	48 89 e5             	mov    %rsp,%rbp
    a849:	48 89 7d f8          	mov    %rdi,-0x8(%rbp)
    a84d:	48 89 75 f0          	mov    %rsi,-0x10(%rbp)
    a851:	48 83 7d f8 00       	cmpq   $0x0,-0x8(%rbp)
    a856:	7e 1b                	jle    a873 <safe_add_func_int64_t_s_s+0x32>
    a858:	48 83 7d f0 00       	cmpq   $0x0,-0x10(%rbp)
    a85d:	7e 14                	jle    a873 <safe_add_func_int64_t_s_s+0x32>
    a85f:	48 b8 ff ff ff ff ff 	movabs $0x7fffffffffffffff,%rax
    a866:	ff ff 7f 
    a869:	48 2b 45 f0          	sub    -0x10(%rbp),%rax
    a86d:	48 39 45 f8          	cmp    %rax,-0x8(%rbp)
    a871:	7f 2f                	jg     a8a2 <safe_add_func_int64_t_s_s+0x61>
    a873:	48 83 7d f8 00       	cmpq   $0x0,-0x8(%rbp)
    a878:	79 1b                	jns    a895 <safe_add_func_int64_t_s_s+0x54>
    a87a:	48 83 7d f0 00       	cmpq   $0x0,-0x10(%rbp)
    a87f:	79 14                	jns    a895 <safe_add_func_int64_t_s_s+0x54>
    a881:	48 b8 00 00 00 00 00 	movabs $0x8000000000000000,%rax
    a888:	00 00 80 
    a88b:	48 2b 45 f0          	sub    -0x10(%rbp),%rax
    a88f:	48 39 45 f8          	cmp    %rax,-0x8(%rbp)
    a893:	7c 0d                	jl     a8a2 <safe_add_func_int64_t_s_s+0x61>
    a895:	48 8b 55 f8          	mov    -0x8(%rbp),%rdx
    a899:	48 8b 45 f0          	mov    -0x10(%rbp),%rax
    a89d:	48 01 d0             	add    %rdx,%rax
    a8a0:	eb 04                	jmp    a8a6 <safe_add_func_int64_t_s_s+0x65>
    a8a2:	48 8b 45 f8          	mov    -0x8(%rbp),%rax
    a8a6:	5d                   	pop    %rbp
    a8a7:	c3                   	retq   

000000000000a8a8 <safe_sub_func_int64_t_s_s>:
    a8a8:	f3 0f 1e fa          	endbr64 
    a8ac:	55                   	push   %rbp
    a8ad:	48 89 e5             	mov    %rsp,%rbp
    a8b0:	48 89 7d f8          	mov    %rdi,-0x8(%rbp)
    a8b4:	48 89 75 f0          	mov    %rsi,-0x10(%rbp)
    a8b8:	48 8b 45 f8          	mov    -0x8(%rbp),%rax
    a8bc:	48 33 45 f0          	xor    -0x10(%rbp),%rax
    a8c0:	48 89 c2             	mov    %rax,%rdx
    a8c3:	48 8b 45 f8          	mov    -0x8(%rbp),%rax
    a8c7:	48 33 45 f0          	xor    -0x10(%rbp),%rax
    a8cb:	48 b9 00 00 00 00 00 	movabs $0x8000000000000000,%rcx
    a8d2:	00 00 80 
    a8d5:	48 21 c8             	and    %rcx,%rax
    a8d8:	48 33 45 f8          	xor    -0x8(%rbp),%rax
    a8dc:	48 2b 45 f0          	sub    -0x10(%rbp),%rax
    a8e0:	48 33 45 f0          	xor    -0x10(%rbp),%rax
    a8e4:	48 21 d0             	and    %rdx,%rax
    a8e7:	48 85 c0             	test   %rax,%rax
    a8ea:	78 0a                	js     a8f6 <safe_sub_func_int64_t_s_s+0x4e>
    a8ec:	48 8b 45 f8          	mov    -0x8(%rbp),%rax
    a8f0:	48 2b 45 f0          	sub    -0x10(%rbp),%rax
    a8f4:	eb 04                	jmp    a8fa <safe_sub_func_int64_t_s_s+0x52>
    a8f6:	48 8b 45 f8          	mov    -0x8(%rbp),%rax
    a8fa:	5d                   	pop    %rbp
    a8fb:	c3                   	retq   

000000000000a8fc <safe_mul_func_int64_t_s_s>:
    a8fc:	f3 0f 1e fa          	endbr64 
    a900:	55                   	push   %rbp
    a901:	48 89 e5             	mov    %rsp,%rbp
    a904:	48 89 7d f8          	mov    %rdi,-0x8(%rbp)
    a908:	48 89 75 f0          	mov    %rsi,-0x10(%rbp)
    a90c:	48 83 7d f8 00       	cmpq   $0x0,-0x8(%rbp)
    a911:	7e 1d                	jle    a930 <safe_mul_func_int64_t_s_s+0x34>
    a913:	48 83 7d f0 00       	cmpq   $0x0,-0x10(%rbp)
    a918:	7e 16                	jle    a930 <safe_mul_func_int64_t_s_s+0x34>
    a91a:	48 b8 ff ff ff ff ff 	movabs $0x7fffffffffffffff,%rax
    a921:	ff ff 7f 
    a924:	48 99                	cqto   
    a926:	48 f7 7d f0          	idivq  -0x10(%rbp)
    a92a:	48 39 45 f8          	cmp    %rax,-0x8(%rbp)
    a92e:	7f 7e                	jg     a9ae <safe_mul_func_int64_t_s_s+0xb2>
    a930:	48 83 7d f8 00       	cmpq   $0x0,-0x8(%rbp)
    a935:	7e 1d                	jle    a954 <safe_mul_func_int64_t_s_s+0x58>
    a937:	48 83 7d f0 00       	cmpq   $0x0,-0x10(%rbp)
    a93c:	7f 16                	jg     a954 <safe_mul_func_int64_t_s_s+0x58>
    a93e:	48 b8 00 00 00 00 00 	movabs $0x8000000000000000,%rax
    a945:	00 00 80 
    a948:	48 99                	cqto   
    a94a:	48 f7 7d f8          	idivq  -0x8(%rbp)
    a94e:	48 39 45 f0          	cmp    %rax,-0x10(%rbp)
    a952:	7c 5a                	jl     a9ae <safe_mul_func_int64_t_s_s+0xb2>
    a954:	48 83 7d f8 00       	cmpq   $0x0,-0x8(%rbp)
    a959:	7f 1d                	jg     a978 <safe_mul_func_int64_t_s_s+0x7c>
    a95b:	48 83 7d f0 00       	cmpq   $0x0,-0x10(%rbp)
    a960:	7e 16                	jle    a978 <safe_mul_func_int64_t_s_s+0x7c>
    a962:	48 b8 00 00 00 00 00 	movabs $0x8000000000000000,%rax
    a969:	00 00 80 
    a96c:	48 99                	cqto   
    a96e:	48 f7 7d f0          	idivq  -0x10(%rbp)
    a972:	48 39 45 f8          	cmp    %rax,-0x8(%rbp)
    a976:	7c 36                	jl     a9ae <safe_mul_func_int64_t_s_s+0xb2>
    a978:	48 83 7d f8 00       	cmpq   $0x0,-0x8(%rbp)
    a97d:	7f 24                	jg     a9a3 <safe_mul_func_int64_t_s_s+0xa7>
    a97f:	48 83 7d f0 00       	cmpq   $0x0,-0x10(%rbp)
    a984:	7f 1d                	jg     a9a3 <safe_mul_func_int64_t_s_s+0xa7>
    a986:	48 83 7d f8 00       	cmpq   $0x0,-0x8(%rbp)
    a98b:	74 16                	je     a9a3 <safe_mul_func_int64_t_s_s+0xa7>
    a98d:	48 b8 ff ff ff ff ff 	movabs $0x7fffffffffffffff,%rax
    a994:	ff ff 7f 
    a997:	48 99                	cqto   
    a999:	48 f7 7d f8          	idivq  -0x8(%rbp)
    a99d:	48 39 45 f0          	cmp    %rax,-0x10(%rbp)
    a9a1:	7c 0b                	jl     a9ae <safe_mul_func_int64_t_s_s+0xb2>
    a9a3:	48 8b 45 f8          	mov    -0x8(%rbp),%rax
    a9a7:	48 0f af 45 f0       	imul   -0x10(%rbp),%rax
    a9ac:	eb 04                	jmp    a9b2 <safe_mul_func_int64_t_s_s+0xb6>
    a9ae:	48 8b 45 f8          	mov    -0x8(%rbp),%rax
    a9b2:	5d                   	pop    %rbp
    a9b3:	c3                   	retq   

000000000000a9b4 <safe_mod_func_int64_t_s_s>:
    a9b4:	f3 0f 1e fa          	endbr64 
    a9b8:	55                   	push   %rbp
    a9b9:	48 89 e5             	mov    %rsp,%rbp
    a9bc:	48 89 7d f8          	mov    %rdi,-0x8(%rbp)
    a9c0:	48 89 75 f0          	mov    %rsi,-0x10(%rbp)
    a9c4:	48 83 7d f0 00       	cmpq   $0x0,-0x10(%rbp)
    a9c9:	74 26                	je     a9f1 <safe_mod_func_int64_t_s_s+0x3d>
    a9cb:	48 b8 00 00 00 00 00 	movabs $0x8000000000000000,%rax
    a9d2:	00 00 80 
    a9d5:	48 39 45 f8          	cmp    %rax,-0x8(%rbp)
    a9d9:	75 07                	jne    a9e2 <safe_mod_func_int64_t_s_s+0x2e>
    a9db:	48 83 7d f0 ff       	cmpq   $0xffffffffffffffff,-0x10(%rbp)
    a9e0:	74 0f                	je     a9f1 <safe_mod_func_int64_t_s_s+0x3d>
    a9e2:	48 8b 45 f8          	mov    -0x8(%rbp),%rax
    a9e6:	48 99                	cqto   
    a9e8:	48 f7 7d f0          	idivq  -0x10(%rbp)
    a9ec:	48 89 d0             	mov    %rdx,%rax
    a9ef:	eb 04                	jmp    a9f5 <safe_mod_func_int64_t_s_s+0x41>
    a9f1:	48 8b 45 f8          	mov    -0x8(%rbp),%rax
    a9f5:	5d                   	pop    %rbp
    a9f6:	c3                   	retq   

000000000000a9f7 <safe_div_func_int64_t_s_s>:
    a9f7:	f3 0f 1e fa          	endbr64 
    a9fb:	55                   	push   %rbp
    a9fc:	48 89 e5             	mov    %rsp,%rbp
    a9ff:	48 89 7d f8          	mov    %rdi,-0x8(%rbp)
    aa03:	48 89 75 f0          	mov    %rsi,-0x10(%rbp)
    aa07:	48 83 7d f0 00       	cmpq   $0x0,-0x10(%rbp)
    aa0c:	74 23                	je     aa31 <safe_div_func_int64_t_s_s+0x3a>
    aa0e:	48 b8 00 00 00 00 00 	movabs $0x8000000000000000,%rax
    aa15:	00 00 80 
    aa18:	48 39 45 f8          	cmp    %rax,-0x8(%rbp)
    aa1c:	75 07                	jne    aa25 <safe_div_func_int64_t_s_s+0x2e>
    aa1e:	48 83 7d f0 ff       	cmpq   $0xffffffffffffffff,-0x10(%rbp)
    aa23:	74 0c                	je     aa31 <safe_div_func_int64_t_s_s+0x3a>
    aa25:	48 8b 45 f8          	mov    -0x8(%rbp),%rax
    aa29:	48 99                	cqto   
    aa2b:	48 f7 7d f0          	idivq  -0x10(%rbp)
    aa2f:	eb 04                	jmp    aa35 <safe_div_func_int64_t_s_s+0x3e>
    aa31:	48 8b 45 f8          	mov    -0x8(%rbp),%rax
    aa35:	5d                   	pop    %rbp
    aa36:	c3                   	retq   

000000000000aa37 <safe_lshift_func_int64_t_s_s>:
    aa37:	f3 0f 1e fa          	endbr64 
    aa3b:	55                   	push   %rbp
    aa3c:	48 89 e5             	mov    %rsp,%rbp
    aa3f:	48 89 7d f8          	mov    %rdi,-0x8(%rbp)
    aa43:	89 75 f4             	mov    %esi,-0xc(%rbp)
    aa46:	48 83 7d f8 00       	cmpq   $0x0,-0x8(%rbp)
    aa4b:	78 38                	js     aa85 <safe_lshift_func_int64_t_s_s+0x4e>
    aa4d:	83 7d f4 00          	cmpl   $0x0,-0xc(%rbp)
    aa51:	78 32                	js     aa85 <safe_lshift_func_int64_t_s_s+0x4e>
    aa53:	83 7d f4 1f          	cmpl   $0x1f,-0xc(%rbp)
    aa57:	7f 2c                	jg     aa85 <safe_lshift_func_int64_t_s_s+0x4e>
    aa59:	8b 45 f4             	mov    -0xc(%rbp),%eax
    aa5c:	48 ba ff ff ff ff ff 	movabs $0x7fffffffffffffff,%rdx
    aa63:	ff ff 7f 
    aa66:	89 c1                	mov    %eax,%ecx
    aa68:	48 d3 fa             	sar    %cl,%rdx
    aa6b:	48 89 d0             	mov    %rdx,%rax
    aa6e:	48 39 45 f8          	cmp    %rax,-0x8(%rbp)
    aa72:	7f 11                	jg     aa85 <safe_lshift_func_int64_t_s_s+0x4e>
    aa74:	8b 45 f4             	mov    -0xc(%rbp),%eax
    aa77:	48 8b 55 f8          	mov    -0x8(%rbp),%rdx
    aa7b:	89 c1                	mov    %eax,%ecx
    aa7d:	48 d3 e2             	shl    %cl,%rdx
    aa80:	48 89 d0             	mov    %rdx,%rax
    aa83:	eb 04                	jmp    aa89 <safe_lshift_func_int64_t_s_s+0x52>
    aa85:	48 8b 45 f8          	mov    -0x8(%rbp),%rax
    aa89:	5d                   	pop    %rbp
    aa8a:	c3                   	retq   

000000000000aa8b <safe_lshift_func_int64_t_s_u>:
    aa8b:	f3 0f 1e fa          	endbr64 
    aa8f:	55                   	push   %rbp
    aa90:	48 89 e5             	mov    %rsp,%rbp
    aa93:	48 89 7d f8          	mov    %rdi,-0x8(%rbp)
    aa97:	89 75 f4             	mov    %esi,-0xc(%rbp)
    aa9a:	48 83 7d f8 00       	cmpq   $0x0,-0x8(%rbp)
    aa9f:	78 32                	js     aad3 <safe_lshift_func_int64_t_s_u+0x48>
    aaa1:	83 7d f4 1f          	cmpl   $0x1f,-0xc(%rbp)
    aaa5:	77 2c                	ja     aad3 <safe_lshift_func_int64_t_s_u+0x48>
    aaa7:	8b 45 f4             	mov    -0xc(%rbp),%eax
    aaaa:	48 ba ff ff ff ff ff 	movabs $0x7fffffffffffffff,%rdx
    aab1:	ff ff 7f 
    aab4:	89 c1                	mov    %eax,%ecx
    aab6:	48 d3 fa             	sar    %cl,%rdx
    aab9:	48 89 d0             	mov    %rdx,%rax
    aabc:	48 39 45 f8          	cmp    %rax,-0x8(%rbp)
    aac0:	7f 11                	jg     aad3 <safe_lshift_func_int64_t_s_u+0x48>
    aac2:	8b 45 f4             	mov    -0xc(%rbp),%eax
    aac5:	48 8b 55 f8          	mov    -0x8(%rbp),%rdx
    aac9:	89 c1                	mov    %eax,%ecx
    aacb:	48 d3 e2             	shl    %cl,%rdx
    aace:	48 89 d0             	mov    %rdx,%rax
    aad1:	eb 04                	jmp    aad7 <safe_lshift_func_int64_t_s_u+0x4c>
    aad3:	48 8b 45 f8          	mov    -0x8(%rbp),%rax
    aad7:	5d                   	pop    %rbp
    aad8:	c3                   	retq   

000000000000aad9 <safe_rshift_func_int64_t_s_s>:
    aad9:	f3 0f 1e fa          	endbr64 
    aadd:	55                   	push   %rbp
    aade:	48 89 e5             	mov    %rsp,%rbp
    aae1:	48 89 7d f8          	mov    %rdi,-0x8(%rbp)
    aae5:	89 75 f4             	mov    %esi,-0xc(%rbp)
    aae8:	48 83 7d f8 00       	cmpq   $0x0,-0x8(%rbp)
    aaed:	78 1d                	js     ab0c <safe_rshift_func_int64_t_s_s+0x33>
    aaef:	83 7d f4 00          	cmpl   $0x0,-0xc(%rbp)
    aaf3:	78 17                	js     ab0c <safe_rshift_func_int64_t_s_s+0x33>
    aaf5:	83 7d f4 1f          	cmpl   $0x1f,-0xc(%rbp)
    aaf9:	7f 11                	jg     ab0c <safe_rshift_func_int64_t_s_s+0x33>
    aafb:	8b 45 f4             	mov    -0xc(%rbp),%eax
    aafe:	48 8b 55 f8          	mov    -0x8(%rbp),%rdx
    ab02:	89 c1                	mov    %eax,%ecx
    ab04:	48 d3 fa             	sar    %cl,%rdx
    ab07:	48 89 d0             	mov    %rdx,%rax
    ab0a:	eb 04                	jmp    ab10 <safe_rshift_func_int64_t_s_s+0x37>
    ab0c:	48 8b 45 f8          	mov    -0x8(%rbp),%rax
    ab10:	5d                   	pop    %rbp
    ab11:	c3                   	retq   

000000000000ab12 <safe_rshift_func_int64_t_s_u>:
    ab12:	f3 0f 1e fa          	endbr64 
    ab16:	55                   	push   %rbp
    ab17:	48 89 e5             	mov    %rsp,%rbp
    ab1a:	48 89 7d f8          	mov    %rdi,-0x8(%rbp)
    ab1e:	89 75 f4             	mov    %esi,-0xc(%rbp)
    ab21:	48 83 7d f8 00       	cmpq   $0x0,-0x8(%rbp)
    ab26:	78 17                	js     ab3f <safe_rshift_func_int64_t_s_u+0x2d>
    ab28:	83 7d f4 1f          	cmpl   $0x1f,-0xc(%rbp)
    ab2c:	77 11                	ja     ab3f <safe_rshift_func_int64_t_s_u+0x2d>
    ab2e:	8b 45 f4             	mov    -0xc(%rbp),%eax
    ab31:	48 8b 55 f8          	mov    -0x8(%rbp),%rdx
    ab35:	89 c1                	mov    %eax,%ecx
    ab37:	48 d3 fa             	sar    %cl,%rdx
    ab3a:	48 89 d0             	mov    %rdx,%rax
    ab3d:	eb 04                	jmp    ab43 <safe_rshift_func_int64_t_s_u+0x31>
    ab3f:	48 8b 45 f8          	mov    -0x8(%rbp),%rax
    ab43:	5d                   	pop    %rbp
    ab44:	c3                   	retq   

000000000000ab45 <safe_unary_minus_func_uint8_t_u>:
    ab45:	f3 0f 1e fa          	endbr64 
    ab49:	55                   	push   %rbp
    ab4a:	48 89 e5             	mov    %rsp,%rbp
    ab4d:	89 f8                	mov    %edi,%eax
    ab4f:	88 45 fc             	mov    %al,-0x4(%rbp)
    ab52:	0f b6 45 fc          	movzbl -0x4(%rbp),%eax
    ab56:	f7 d8                	neg    %eax
    ab58:	5d                   	pop    %rbp
    ab59:	c3                   	retq   

000000000000ab5a <safe_add_func_uint8_t_u_u>:
    ab5a:	f3 0f 1e fa          	endbr64 
    ab5e:	55                   	push   %rbp
    ab5f:	48 89 e5             	mov    %rsp,%rbp
    ab62:	89 fa                	mov    %edi,%edx
    ab64:	89 f0                	mov    %esi,%eax
    ab66:	88 55 fc             	mov    %dl,-0x4(%rbp)
    ab69:	88 45 f8             	mov    %al,-0x8(%rbp)
    ab6c:	0f b6 55 fc          	movzbl -0x4(%rbp),%edx
    ab70:	0f b6 45 f8          	movzbl -0x8(%rbp),%eax
    ab74:	01 d0                	add    %edx,%eax
    ab76:	5d                   	pop    %rbp
    ab77:	c3                   	retq   

000000000000ab78 <safe_sub_func_uint8_t_u_u>:
    ab78:	f3 0f 1e fa          	endbr64 
    ab7c:	55                   	push   %rbp
    ab7d:	48 89 e5             	mov    %rsp,%rbp
    ab80:	89 fa                	mov    %edi,%edx
    ab82:	89 f0                	mov    %esi,%eax
    ab84:	88 55 fc             	mov    %dl,-0x4(%rbp)
    ab87:	88 45 f8             	mov    %al,-0x8(%rbp)
    ab8a:	0f b6 45 fc          	movzbl -0x4(%rbp),%eax
    ab8e:	2a 45 f8             	sub    -0x8(%rbp),%al
    ab91:	5d                   	pop    %rbp
    ab92:	c3                   	retq   

000000000000ab93 <safe_mul_func_uint8_t_u_u>:
    ab93:	f3 0f 1e fa          	endbr64 
    ab97:	55                   	push   %rbp
    ab98:	48 89 e5             	mov    %rsp,%rbp
    ab9b:	89 fa                	mov    %edi,%edx
    ab9d:	89 f0                	mov    %esi,%eax
    ab9f:	88 55 fc             	mov    %dl,-0x4(%rbp)
    aba2:	88 45 f8             	mov    %al,-0x8(%rbp)
    aba5:	0f b6 45 fc          	movzbl -0x4(%rbp),%eax
    aba9:	f6 65 f8             	mulb   -0x8(%rbp)
    abac:	5d                   	pop    %rbp
    abad:	c3                   	retq   

000000000000abae <safe_mod_func_uint8_t_u_u>:
    abae:	f3 0f 1e fa          	endbr64 
    abb2:	55                   	push   %rbp
    abb3:	48 89 e5             	mov    %rsp,%rbp
    abb6:	89 fa                	mov    %edi,%edx
    abb8:	89 f0                	mov    %esi,%eax
    abba:	88 55 fc             	mov    %dl,-0x4(%rbp)
    abbd:	88 45 f8             	mov    %al,-0x8(%rbp)
    abc0:	80 7d f8 00          	cmpb   $0x0,-0x8(%rbp)
    abc4:	74 0f                	je     abd5 <safe_mod_func_uint8_t_u_u+0x27>
    abc6:	0f b6 45 fc          	movzbl -0x4(%rbp),%eax
    abca:	0f b6 c0             	movzbl %al,%eax
    abcd:	f6 75 f8             	divb   -0x8(%rbp)
    abd0:	0f b6 c4             	movzbl %ah,%eax
    abd3:	eb 04                	jmp    abd9 <safe_mod_func_uint8_t_u_u+0x2b>
    abd5:	0f b6 45 fc          	movzbl -0x4(%rbp),%eax
    abd9:	5d                   	pop    %rbp
    abda:	c3                   	retq   

000000000000abdb <safe_div_func_uint8_t_u_u>:
    abdb:	f3 0f 1e fa          	endbr64 
    abdf:	55                   	push   %rbp
    abe0:	48 89 e5             	mov    %rsp,%rbp
    abe3:	89 fa                	mov    %edi,%edx
    abe5:	89 f0                	mov    %esi,%eax
    abe7:	88 55 fc             	mov    %dl,-0x4(%rbp)
    abea:	88 45 f8             	mov    %al,-0x8(%rbp)
    abed:	80 7d f8 00          	cmpb   $0x0,-0x8(%rbp)
    abf1:	74 0c                	je     abff <safe_div_func_uint8_t_u_u+0x24>
    abf3:	0f b6 45 fc          	movzbl -0x4(%rbp),%eax
    abf7:	0f b6 c0             	movzbl %al,%eax
    abfa:	f6 75 f8             	divb   -0x8(%rbp)
    abfd:	eb 04                	jmp    ac03 <safe_div_func_uint8_t_u_u+0x28>
    abff:	0f b6 45 fc          	movzbl -0x4(%rbp),%eax
    ac03:	5d                   	pop    %rbp
    ac04:	c3                   	retq   

000000000000ac05 <safe_lshift_func_uint8_t_u_s>:
    ac05:	f3 0f 1e fa          	endbr64 
    ac09:	55                   	push   %rbp
    ac0a:	48 89 e5             	mov    %rsp,%rbp
    ac0d:	89 f8                	mov    %edi,%eax
    ac0f:	89 75 f8             	mov    %esi,-0x8(%rbp)
    ac12:	88 45 fc             	mov    %al,-0x4(%rbp)
    ac15:	83 7d f8 00          	cmpl   $0x0,-0x8(%rbp)
    ac19:	78 2b                	js     ac46 <safe_lshift_func_uint8_t_u_s+0x41>
    ac1b:	83 7d f8 1f          	cmpl   $0x1f,-0x8(%rbp)
    ac1f:	7f 25                	jg     ac46 <safe_lshift_func_uint8_t_u_s+0x41>
    ac21:	0f b6 55 fc          	movzbl -0x4(%rbp),%edx
    ac25:	8b 45 f8             	mov    -0x8(%rbp),%eax
    ac28:	be ff 00 00 00       	mov    $0xff,%esi
    ac2d:	89 c1                	mov    %eax,%ecx
    ac2f:	d3 fe                	sar    %cl,%esi
    ac31:	89 f0                	mov    %esi,%eax
    ac33:	39 c2                	cmp    %eax,%edx
    ac35:	7f 0f                	jg     ac46 <safe_lshift_func_uint8_t_u_s+0x41>
    ac37:	0f b6 55 fc          	movzbl -0x4(%rbp),%edx
    ac3b:	8b 45 f8             	mov    -0x8(%rbp),%eax
    ac3e:	89 c1                	mov    %eax,%ecx
    ac40:	d3 e2                	shl    %cl,%edx
    ac42:	89 d0                	mov    %edx,%eax
    ac44:	eb 04                	jmp    ac4a <safe_lshift_func_uint8_t_u_s+0x45>
    ac46:	0f b6 45 fc          	movzbl -0x4(%rbp),%eax
    ac4a:	5d                   	pop    %rbp
    ac4b:	c3                   	retq   

000000000000ac4c <safe_lshift_func_uint8_t_u_u>:
    ac4c:	f3 0f 1e fa          	endbr64 
    ac50:	55                   	push   %rbp
    ac51:	48 89 e5             	mov    %rsp,%rbp
    ac54:	89 f8                	mov    %edi,%eax
    ac56:	89 75 f8             	mov    %esi,-0x8(%rbp)
    ac59:	88 45 fc             	mov    %al,-0x4(%rbp)
    ac5c:	83 7d f8 1f          	cmpl   $0x1f,-0x8(%rbp)
    ac60:	77 25                	ja     ac87 <safe_lshift_func_uint8_t_u_u+0x3b>
    ac62:	0f b6 55 fc          	movzbl -0x4(%rbp),%edx
    ac66:	8b 45 f8             	mov    -0x8(%rbp),%eax
    ac69:	be ff 00 00 00       	mov    $0xff,%esi
    ac6e:	89 c1                	mov    %eax,%ecx
    ac70:	d3 fe                	sar    %cl,%esi
    ac72:	89 f0                	mov    %esi,%eax
    ac74:	39 c2                	cmp    %eax,%edx
    ac76:	7f 0f                	jg     ac87 <safe_lshift_func_uint8_t_u_u+0x3b>
    ac78:	0f b6 55 fc          	movzbl -0x4(%rbp),%edx
    ac7c:	8b 45 f8             	mov    -0x8(%rbp),%eax
    ac7f:	89 c1                	mov    %eax,%ecx
    ac81:	d3 e2                	shl    %cl,%edx
    ac83:	89 d0                	mov    %edx,%eax
    ac85:	eb 04                	jmp    ac8b <safe_lshift_func_uint8_t_u_u+0x3f>
    ac87:	0f b6 45 fc          	movzbl -0x4(%rbp),%eax
    ac8b:	5d                   	pop    %rbp
    ac8c:	c3                   	retq   

000000000000ac8d <safe_rshift_func_uint8_t_u_s>:
    ac8d:	f3 0f 1e fa          	endbr64 
    ac91:	55                   	push   %rbp
    ac92:	48 89 e5             	mov    %rsp,%rbp
    ac95:	89 f8                	mov    %edi,%eax
    ac97:	89 75 f8             	mov    %esi,-0x8(%rbp)
    ac9a:	88 45 fc             	mov    %al,-0x4(%rbp)
    ac9d:	83 7d f8 00          	cmpl   $0x0,-0x8(%rbp)
    aca1:	78 15                	js     acb8 <safe_rshift_func_uint8_t_u_s+0x2b>
    aca3:	83 7d f8 1f          	cmpl   $0x1f,-0x8(%rbp)
    aca7:	7f 0f                	jg     acb8 <safe_rshift_func_uint8_t_u_s+0x2b>
    aca9:	0f b6 55 fc          	movzbl -0x4(%rbp),%edx
    acad:	8b 45 f8             	mov    -0x8(%rbp),%eax
    acb0:	89 c1                	mov    %eax,%ecx
    acb2:	d3 fa                	sar    %cl,%edx
    acb4:	89 d0                	mov    %edx,%eax
    acb6:	eb 04                	jmp    acbc <safe_rshift_func_uint8_t_u_s+0x2f>
    acb8:	0f b6 45 fc          	movzbl -0x4(%rbp),%eax
    acbc:	5d                   	pop    %rbp
    acbd:	c3                   	retq   

000000000000acbe <safe_rshift_func_uint8_t_u_u>:
    acbe:	f3 0f 1e fa          	endbr64 
    acc2:	55                   	push   %rbp
    acc3:	48 89 e5             	mov    %rsp,%rbp
    acc6:	89 f8                	mov    %edi,%eax
    acc8:	89 75 f8             	mov    %esi,-0x8(%rbp)
    accb:	88 45 fc             	mov    %al,-0x4(%rbp)
    acce:	83 7d f8 1f          	cmpl   $0x1f,-0x8(%rbp)
    acd2:	77 0f                	ja     ace3 <safe_rshift_func_uint8_t_u_u+0x25>
    acd4:	0f b6 55 fc          	movzbl -0x4(%rbp),%edx
    acd8:	8b 45 f8             	mov    -0x8(%rbp),%eax
    acdb:	89 c1                	mov    %eax,%ecx
    acdd:	d3 fa                	sar    %cl,%edx
    acdf:	89 d0                	mov    %edx,%eax
    ace1:	eb 04                	jmp    ace7 <safe_rshift_func_uint8_t_u_u+0x29>
    ace3:	0f b6 45 fc          	movzbl -0x4(%rbp),%eax
    ace7:	5d                   	pop    %rbp
    ace8:	c3                   	retq   

000000000000ace9 <safe_unary_minus_func_uint16_t_u>:
    ace9:	f3 0f 1e fa          	endbr64 
    aced:	55                   	push   %rbp
    acee:	48 89 e5             	mov    %rsp,%rbp
    acf1:	89 f8                	mov    %edi,%eax
    acf3:	66 89 45 fc          	mov    %ax,-0x4(%rbp)
    acf7:	0f b7 45 fc          	movzwl -0x4(%rbp),%eax
    acfb:	f7 d8                	neg    %eax
    acfd:	5d                   	pop    %rbp
    acfe:	c3                   	retq   

000000000000acff <safe_add_func_uint16_t_u_u>:
    acff:	f3 0f 1e fa          	endbr64 
    ad03:	55                   	push   %rbp
    ad04:	48 89 e5             	mov    %rsp,%rbp
    ad07:	89 fa                	mov    %edi,%edx
    ad09:	89 f0                	mov    %esi,%eax
    ad0b:	66 89 55 fc          	mov    %dx,-0x4(%rbp)
    ad0f:	66 89 45 f8          	mov    %ax,-0x8(%rbp)
    ad13:	0f b7 55 fc          	movzwl -0x4(%rbp),%edx
    ad17:	0f b7 45 f8          	movzwl -0x8(%rbp),%eax
    ad1b:	01 d0                	add    %edx,%eax
    ad1d:	5d                   	pop    %rbp
    ad1e:	c3                   	retq   

000000000000ad1f <safe_sub_func_uint16_t_u_u>:
    ad1f:	f3 0f 1e fa          	endbr64 
    ad23:	55                   	push   %rbp
    ad24:	48 89 e5             	mov    %rsp,%rbp
    ad27:	89 fa                	mov    %edi,%edx
    ad29:	89 f0                	mov    %esi,%eax
    ad2b:	66 89 55 fc          	mov    %dx,-0x4(%rbp)
    ad2f:	66 89 45 f8          	mov    %ax,-0x8(%rbp)
    ad33:	0f b7 45 fc          	movzwl -0x4(%rbp),%eax
    ad37:	66 2b 45 f8          	sub    -0x8(%rbp),%ax
    ad3b:	5d                   	pop    %rbp
    ad3c:	c3                   	retq   

000000000000ad3d <safe_mul_func_uint16_t_u_u>:
    ad3d:	f3 0f 1e fa          	endbr64 
    ad41:	55                   	push   %rbp
    ad42:	48 89 e5             	mov    %rsp,%rbp
    ad45:	89 fa                	mov    %edi,%edx
    ad47:	89 f0                	mov    %esi,%eax
    ad49:	66 89 55 fc          	mov    %dx,-0x4(%rbp)
    ad4d:	66 89 45 f8          	mov    %ax,-0x8(%rbp)
    ad51:	0f b7 45 fc          	movzwl -0x4(%rbp),%eax
    ad55:	66 0f af 45 f8       	imul   -0x8(%rbp),%ax
    ad5a:	5d                   	pop    %rbp
    ad5b:	c3                   	retq   

000000000000ad5c <safe_mod_func_uint16_t_u_u>:
    ad5c:	f3 0f 1e fa          	endbr64 
    ad60:	55                   	push   %rbp
    ad61:	48 89 e5             	mov    %rsp,%rbp
    ad64:	89 fa                	mov    %edi,%edx
    ad66:	89 f0                	mov    %esi,%eax
    ad68:	66 89 55 fc          	mov    %dx,-0x4(%rbp)
    ad6c:	66 89 45 f8          	mov    %ax,-0x8(%rbp)
    ad70:	66 83 7d f8 00       	cmpw   $0x0,-0x8(%rbp)
    ad75:	74 11                	je     ad88 <safe_mod_func_uint16_t_u_u+0x2c>
    ad77:	0f b7 45 fc          	movzwl -0x4(%rbp),%eax
    ad7b:	ba 00 00 00 00       	mov    $0x0,%edx
    ad80:	66 f7 75 f8          	divw   -0x8(%rbp)
    ad84:	89 d0                	mov    %edx,%eax
    ad86:	eb 04                	jmp    ad8c <safe_mod_func_uint16_t_u_u+0x30>
    ad88:	0f b7 45 fc          	movzwl -0x4(%rbp),%eax
    ad8c:	5d                   	pop    %rbp
    ad8d:	c3                   	retq   

000000000000ad8e <safe_div_func_uint16_t_u_u>:
    ad8e:	f3 0f 1e fa          	endbr64 
    ad92:	55                   	push   %rbp
    ad93:	48 89 e5             	mov    %rsp,%rbp
    ad96:	89 fa                	mov    %edi,%edx
    ad98:	89 f0                	mov    %esi,%eax
    ad9a:	66 89 55 fc          	mov    %dx,-0x4(%rbp)
    ad9e:	66 89 45 f8          	mov    %ax,-0x8(%rbp)
    ada2:	66 83 7d f8 00       	cmpw   $0x0,-0x8(%rbp)
    ada7:	74 0f                	je     adb8 <safe_div_func_uint16_t_u_u+0x2a>
    ada9:	0f b7 45 fc          	movzwl -0x4(%rbp),%eax
    adad:	ba 00 00 00 00       	mov    $0x0,%edx
    adb2:	66 f7 75 f8          	divw   -0x8(%rbp)
    adb6:	eb 04                	jmp    adbc <safe_div_func_uint16_t_u_u+0x2e>
    adb8:	0f b7 45 fc          	movzwl -0x4(%rbp),%eax
    adbc:	5d                   	pop    %rbp
    adbd:	c3                   	retq   

000000000000adbe <safe_lshift_func_uint16_t_u_s>:
    adbe:	f3 0f 1e fa          	endbr64 
    adc2:	55                   	push   %rbp
    adc3:	48 89 e5             	mov    %rsp,%rbp
    adc6:	89 f8                	mov    %edi,%eax
    adc8:	89 75 f8             	mov    %esi,-0x8(%rbp)
    adcb:	66 89 45 fc          	mov    %ax,-0x4(%rbp)
    adcf:	83 7d f8 00          	cmpl   $0x0,-0x8(%rbp)
    add3:	78 2b                	js     ae00 <safe_lshift_func_uint16_t_u_s+0x42>
    add5:	83 7d f8 1f          	cmpl   $0x1f,-0x8(%rbp)
    add9:	7f 25                	jg     ae00 <safe_lshift_func_uint16_t_u_s+0x42>
    addb:	0f b7 55 fc          	movzwl -0x4(%rbp),%edx
    addf:	8b 45 f8             	mov    -0x8(%rbp),%eax
    ade2:	be ff ff 00 00       	mov    $0xffff,%esi
    ade7:	89 c1                	mov    %eax,%ecx
    ade9:	d3 fe                	sar    %cl,%esi
    adeb:	89 f0                	mov    %esi,%eax
    aded:	39 c2                	cmp    %eax,%edx
    adef:	7f 0f                	jg     ae00 <safe_lshift_func_uint16_t_u_s+0x42>
    adf1:	0f b7 55 fc          	movzwl -0x4(%rbp),%edx
    adf5:	8b 45 f8             	mov    -0x8(%rbp),%eax
    adf8:	89 c1                	mov    %eax,%ecx
    adfa:	d3 e2                	shl    %cl,%edx
    adfc:	89 d0                	mov    %edx,%eax
    adfe:	eb 04                	jmp    ae04 <safe_lshift_func_uint16_t_u_s+0x46>
    ae00:	0f b7 45 fc          	movzwl -0x4(%rbp),%eax
    ae04:	5d                   	pop    %rbp
    ae05:	c3                   	retq   

000000000000ae06 <safe_lshift_func_uint16_t_u_u>:
    ae06:	f3 0f 1e fa          	endbr64 
    ae0a:	55                   	push   %rbp
    ae0b:	48 89 e5             	mov    %rsp,%rbp
    ae0e:	89 f8                	mov    %edi,%eax
    ae10:	89 75 f8             	mov    %esi,-0x8(%rbp)
    ae13:	66 89 45 fc          	mov    %ax,-0x4(%rbp)
    ae17:	83 7d f8 1f          	cmpl   $0x1f,-0x8(%rbp)
    ae1b:	77 25                	ja     ae42 <safe_lshift_func_uint16_t_u_u+0x3c>
    ae1d:	0f b7 55 fc          	movzwl -0x4(%rbp),%edx
    ae21:	8b 45 f8             	mov    -0x8(%rbp),%eax
    ae24:	be ff ff 00 00       	mov    $0xffff,%esi
    ae29:	89 c1                	mov    %eax,%ecx
    ae2b:	d3 fe                	sar    %cl,%esi
    ae2d:	89 f0                	mov    %esi,%eax
    ae2f:	39 c2                	cmp    %eax,%edx
    ae31:	7f 0f                	jg     ae42 <safe_lshift_func_uint16_t_u_u+0x3c>
    ae33:	0f b7 55 fc          	movzwl -0x4(%rbp),%edx
    ae37:	8b 45 f8             	mov    -0x8(%rbp),%eax
    ae3a:	89 c1                	mov    %eax,%ecx
    ae3c:	d3 e2                	shl    %cl,%edx
    ae3e:	89 d0                	mov    %edx,%eax
    ae40:	eb 04                	jmp    ae46 <safe_lshift_func_uint16_t_u_u+0x40>
    ae42:	0f b7 45 fc          	movzwl -0x4(%rbp),%eax
    ae46:	5d                   	pop    %rbp
    ae47:	c3                   	retq   

000000000000ae48 <safe_rshift_func_uint16_t_u_s>:
    ae48:	f3 0f 1e fa          	endbr64 
    ae4c:	55                   	push   %rbp
    ae4d:	48 89 e5             	mov    %rsp,%rbp
    ae50:	89 f8                	mov    %edi,%eax
    ae52:	89 75 f8             	mov    %esi,-0x8(%rbp)
    ae55:	66 89 45 fc          	mov    %ax,-0x4(%rbp)
    ae59:	83 7d f8 00          	cmpl   $0x0,-0x8(%rbp)
    ae5d:	78 15                	js     ae74 <safe_rshift_func_uint16_t_u_s+0x2c>
    ae5f:	83 7d f8 1f          	cmpl   $0x1f,-0x8(%rbp)
    ae63:	7f 0f                	jg     ae74 <safe_rshift_func_uint16_t_u_s+0x2c>
    ae65:	0f b7 55 fc          	movzwl -0x4(%rbp),%edx
    ae69:	8b 45 f8             	mov    -0x8(%rbp),%eax
    ae6c:	89 c1                	mov    %eax,%ecx
    ae6e:	d3 fa                	sar    %cl,%edx
    ae70:	89 d0                	mov    %edx,%eax
    ae72:	eb 04                	jmp    ae78 <safe_rshift_func_uint16_t_u_s+0x30>
    ae74:	0f b7 45 fc          	movzwl -0x4(%rbp),%eax
    ae78:	5d                   	pop    %rbp
    ae79:	c3                   	retq   

000000000000ae7a <safe_rshift_func_uint16_t_u_u>:
    ae7a:	f3 0f 1e fa          	endbr64 
    ae7e:	55                   	push   %rbp
    ae7f:	48 89 e5             	mov    %rsp,%rbp
    ae82:	89 f8                	mov    %edi,%eax
    ae84:	89 75 f8             	mov    %esi,-0x8(%rbp)
    ae87:	66 89 45 fc          	mov    %ax,-0x4(%rbp)
    ae8b:	83 7d f8 1f          	cmpl   $0x1f,-0x8(%rbp)
    ae8f:	77 0f                	ja     aea0 <safe_rshift_func_uint16_t_u_u+0x26>
    ae91:	0f b7 55 fc          	movzwl -0x4(%rbp),%edx
    ae95:	8b 45 f8             	mov    -0x8(%rbp),%eax
    ae98:	89 c1                	mov    %eax,%ecx
    ae9a:	d3 fa                	sar    %cl,%edx
    ae9c:	89 d0                	mov    %edx,%eax
    ae9e:	eb 04                	jmp    aea4 <safe_rshift_func_uint16_t_u_u+0x2a>
    aea0:	0f b7 45 fc          	movzwl -0x4(%rbp),%eax
    aea4:	5d                   	pop    %rbp
    aea5:	c3                   	retq   

000000000000aea6 <safe_unary_minus_func_uint32_t_u>:
    aea6:	f3 0f 1e fa          	endbr64 
    aeaa:	55                   	push   %rbp
    aeab:	48 89 e5             	mov    %rsp,%rbp
    aeae:	89 7d fc             	mov    %edi,-0x4(%rbp)
    aeb1:	8b 45 fc             	mov    -0x4(%rbp),%eax
    aeb4:	f7 d8                	neg    %eax
    aeb6:	5d                   	pop    %rbp
    aeb7:	c3                   	retq   

000000000000aeb8 <safe_add_func_uint32_t_u_u>:
    aeb8:	f3 0f 1e fa          	endbr64 
    aebc:	55                   	push   %rbp
    aebd:	48 89 e5             	mov    %rsp,%rbp
    aec0:	89 7d fc             	mov    %edi,-0x4(%rbp)
    aec3:	89 75 f8             	mov    %esi,-0x8(%rbp)
    aec6:	8b 55 fc             	mov    -0x4(%rbp),%edx
    aec9:	8b 45 f8             	mov    -0x8(%rbp),%eax
    aecc:	01 d0                	add    %edx,%eax
    aece:	5d                   	pop    %rbp
    aecf:	c3                   	retq   

000000000000aed0 <safe_sub_func_uint32_t_u_u>:
    aed0:	f3 0f 1e fa          	endbr64 
    aed4:	55                   	push   %rbp
    aed5:	48 89 e5             	mov    %rsp,%rbp
    aed8:	89 7d fc             	mov    %edi,-0x4(%rbp)
    aedb:	89 75 f8             	mov    %esi,-0x8(%rbp)
    aede:	8b 45 fc             	mov    -0x4(%rbp),%eax
    aee1:	2b 45 f8             	sub    -0x8(%rbp),%eax
    aee4:	5d                   	pop    %rbp
    aee5:	c3                   	retq   

000000000000aee6 <safe_mul_func_uint32_t_u_u>:
    aee6:	f3 0f 1e fa          	endbr64 
    aeea:	55                   	push   %rbp
    aeeb:	48 89 e5             	mov    %rsp,%rbp
    aeee:	89 7d fc             	mov    %edi,-0x4(%rbp)
    aef1:	89 75 f8             	mov    %esi,-0x8(%rbp)
    aef4:	8b 45 fc             	mov    -0x4(%rbp),%eax
    aef7:	0f af 45 f8          	imul   -0x8(%rbp),%eax
    aefb:	5d                   	pop    %rbp
    aefc:	c3                   	retq   

000000000000aefd <safe_mod_func_uint32_t_u_u>:
    aefd:	f3 0f 1e fa          	endbr64 
    af01:	55                   	push   %rbp
    af02:	48 89 e5             	mov    %rsp,%rbp
    af05:	89 7d fc             	mov    %edi,-0x4(%rbp)
    af08:	89 75 f8             	mov    %esi,-0x8(%rbp)
    af0b:	83 7d f8 00          	cmpl   $0x0,-0x8(%rbp)
    af0f:	74 0f                	je     af20 <safe_mod_func_uint32_t_u_u+0x23>
    af11:	8b 45 fc             	mov    -0x4(%rbp),%eax
    af14:	ba 00 00 00 00       	mov    $0x0,%edx
    af19:	f7 75 f8             	divl   -0x8(%rbp)
    af1c:	89 d0                	mov    %edx,%eax
    af1e:	eb 03                	jmp    af23 <safe_mod_func_uint32_t_u_u+0x26>
    af20:	8b 45 fc             	mov    -0x4(%rbp),%eax
    af23:	5d                   	pop    %rbp
    af24:	c3                   	retq   

000000000000af25 <safe_div_func_uint32_t_u_u>:
    af25:	f3 0f 1e fa          	endbr64 
    af29:	55                   	push   %rbp
    af2a:	48 89 e5             	mov    %rsp,%rbp
    af2d:	89 7d fc             	mov    %edi,-0x4(%rbp)
    af30:	89 75 f8             	mov    %esi,-0x8(%rbp)
    af33:	83 7d f8 00          	cmpl   $0x0,-0x8(%rbp)
    af37:	74 0d                	je     af46 <safe_div_func_uint32_t_u_u+0x21>
    af39:	8b 45 fc             	mov    -0x4(%rbp),%eax
    af3c:	ba 00 00 00 00       	mov    $0x0,%edx
    af41:	f7 75 f8             	divl   -0x8(%rbp)
    af44:	eb 03                	jmp    af49 <safe_div_func_uint32_t_u_u+0x24>
    af46:	8b 45 fc             	mov    -0x4(%rbp),%eax
    af49:	5d                   	pop    %rbp
    af4a:	c3                   	retq   

000000000000af4b <safe_lshift_func_uint32_t_u_s>:
    af4b:	f3 0f 1e fa          	endbr64 
    af4f:	55                   	push   %rbp
    af50:	48 89 e5             	mov    %rsp,%rbp
    af53:	89 7d fc             	mov    %edi,-0x4(%rbp)
    af56:	89 75 f8             	mov    %esi,-0x8(%rbp)
    af59:	83 7d f8 00          	cmpl   $0x0,-0x8(%rbp)
    af5d:	78 27                	js     af86 <safe_lshift_func_uint32_t_u_s+0x3b>
    af5f:	83 7d f8 1f          	cmpl   $0x1f,-0x8(%rbp)
    af63:	7f 21                	jg     af86 <safe_lshift_func_uint32_t_u_s+0x3b>
    af65:	8b 45 f8             	mov    -0x8(%rbp),%eax
    af68:	ba ff ff ff ff       	mov    $0xffffffff,%edx
    af6d:	89 c1                	mov    %eax,%ecx
    af6f:	d3 ea                	shr    %cl,%edx
    af71:	89 d0                	mov    %edx,%eax
    af73:	39 45 fc             	cmp    %eax,-0x4(%rbp)
    af76:	77 0e                	ja     af86 <safe_lshift_func_uint32_t_u_s+0x3b>
    af78:	8b 45 f8             	mov    -0x8(%rbp),%eax
    af7b:	8b 55 fc             	mov    -0x4(%rbp),%edx
    af7e:	89 c1                	mov    %eax,%ecx
    af80:	d3 e2                	shl    %cl,%edx
    af82:	89 d0                	mov    %edx,%eax
    af84:	eb 03                	jmp    af89 <safe_lshift_func_uint32_t_u_s+0x3e>
    af86:	8b 45 fc             	mov    -0x4(%rbp),%eax
    af89:	5d                   	pop    %rbp
    af8a:	c3                   	retq   

000000000000af8b <safe_lshift_func_uint32_t_u_u>:
    af8b:	f3 0f 1e fa          	endbr64 
    af8f:	55                   	push   %rbp
    af90:	48 89 e5             	mov    %rsp,%rbp
    af93:	89 7d fc             	mov    %edi,-0x4(%rbp)
    af96:	89 75 f8             	mov    %esi,-0x8(%rbp)
    af99:	83 7d f8 1f          	cmpl   $0x1f,-0x8(%rbp)
    af9d:	77 21                	ja     afc0 <safe_lshift_func_uint32_t_u_u+0x35>
    af9f:	8b 45 f8             	mov    -0x8(%rbp),%eax
    afa2:	ba ff ff ff ff       	mov    $0xffffffff,%edx
    afa7:	89 c1                	mov    %eax,%ecx
    afa9:	d3 ea                	shr    %cl,%edx
    afab:	89 d0                	mov    %edx,%eax
    afad:	39 45 fc             	cmp    %eax,-0x4(%rbp)
    afb0:	77 0e                	ja     afc0 <safe_lshift_func_uint32_t_u_u+0x35>
    afb2:	8b 45 f8             	mov    -0x8(%rbp),%eax
    afb5:	8b 55 fc             	mov    -0x4(%rbp),%edx
    afb8:	89 c1                	mov    %eax,%ecx
    afba:	d3 e2                	shl    %cl,%edx
    afbc:	89 d0                	mov    %edx,%eax
    afbe:	eb 03                	jmp    afc3 <safe_lshift_func_uint32_t_u_u+0x38>
    afc0:	8b 45 fc             	mov    -0x4(%rbp),%eax
    afc3:	5d                   	pop    %rbp
    afc4:	c3                   	retq   

000000000000afc5 <safe_rshift_func_uint32_t_u_s>:
    afc5:	f3 0f 1e fa          	endbr64 
    afc9:	55                   	push   %rbp
    afca:	48 89 e5             	mov    %rsp,%rbp
    afcd:	89 7d fc             	mov    %edi,-0x4(%rbp)
    afd0:	89 75 f8             	mov    %esi,-0x8(%rbp)
    afd3:	83 7d f8 00          	cmpl   $0x0,-0x8(%rbp)
    afd7:	78 14                	js     afed <safe_rshift_func_uint32_t_u_s+0x28>
    afd9:	83 7d f8 1f          	cmpl   $0x1f,-0x8(%rbp)
    afdd:	7f 0e                	jg     afed <safe_rshift_func_uint32_t_u_s+0x28>
    afdf:	8b 45 f8             	mov    -0x8(%rbp),%eax
    afe2:	8b 55 fc             	mov    -0x4(%rbp),%edx
    afe5:	89 c1                	mov    %eax,%ecx
    afe7:	d3 ea                	shr    %cl,%edx
    afe9:	89 d0                	mov    %edx,%eax
    afeb:	eb 03                	jmp    aff0 <safe_rshift_func_uint32_t_u_s+0x2b>
    afed:	8b 45 fc             	mov    -0x4(%rbp),%eax
    aff0:	5d                   	pop    %rbp
    aff1:	c3                   	retq   

000000000000aff2 <safe_rshift_func_uint32_t_u_u>:
    aff2:	f3 0f 1e fa          	endbr64 
    aff6:	55                   	push   %rbp
    aff7:	48 89 e5             	mov    %rsp,%rbp
    affa:	89 7d fc             	mov    %edi,-0x4(%rbp)
    affd:	89 75 f8             	mov    %esi,-0x8(%rbp)
    b000:	83 7d f8 1f          	cmpl   $0x1f,-0x8(%rbp)
    b004:	77 0e                	ja     b014 <safe_rshift_func_uint32_t_u_u+0x22>
    b006:	8b 45 f8             	mov    -0x8(%rbp),%eax
    b009:	8b 55 fc             	mov    -0x4(%rbp),%edx
    b00c:	89 c1                	mov    %eax,%ecx
    b00e:	d3 ea                	shr    %cl,%edx
    b010:	89 d0                	mov    %edx,%eax
    b012:	eb 03                	jmp    b017 <safe_rshift_func_uint32_t_u_u+0x25>
    b014:	8b 45 fc             	mov    -0x4(%rbp),%eax
    b017:	5d                   	pop    %rbp
    b018:	c3                   	retq   

000000000000b019 <safe_unary_minus_func_uint64_t_u>:
    b019:	f3 0f 1e fa          	endbr64 
    b01d:	55                   	push   %rbp
    b01e:	48 89 e5             	mov    %rsp,%rbp
    b021:	48 89 7d f8          	mov    %rdi,-0x8(%rbp)
    b025:	48 8b 45 f8          	mov    -0x8(%rbp),%rax
    b029:	48 f7 d8             	neg    %rax
    b02c:	5d                   	pop    %rbp
    b02d:	c3                   	retq   

000000000000b02e <safe_add_func_uint64_t_u_u>:
    b02e:	f3 0f 1e fa          	endbr64 
    b032:	55                   	push   %rbp
    b033:	48 89 e5             	mov    %rsp,%rbp
    b036:	48 89 7d f8          	mov    %rdi,-0x8(%rbp)
    b03a:	48 89 75 f0          	mov    %rsi,-0x10(%rbp)
    b03e:	48 8b 55 f8          	mov    -0x8(%rbp),%rdx
    b042:	48 8b 45 f0          	mov    -0x10(%rbp),%rax
    b046:	48 01 d0             	add    %rdx,%rax
    b049:	5d                   	pop    %rbp
    b04a:	c3                   	retq   

000000000000b04b <safe_sub_func_uint64_t_u_u>:
    b04b:	f3 0f 1e fa          	endbr64 
    b04f:	55                   	push   %rbp
    b050:	48 89 e5             	mov    %rsp,%rbp
    b053:	48 89 7d f8          	mov    %rdi,-0x8(%rbp)
    b057:	48 89 75 f0          	mov    %rsi,-0x10(%rbp)
    b05b:	48 8b 45 f8          	mov    -0x8(%rbp),%rax
    b05f:	48 2b 45 f0          	sub    -0x10(%rbp),%rax
    b063:	5d                   	pop    %rbp
    b064:	c3                   	retq   

000000000000b065 <safe_mul_func_uint64_t_u_u>:
    b065:	f3 0f 1e fa          	endbr64 
    b069:	55                   	push   %rbp
    b06a:	48 89 e5             	mov    %rsp,%rbp
    b06d:	48 89 7d f8          	mov    %rdi,-0x8(%rbp)
    b071:	48 89 75 f0          	mov    %rsi,-0x10(%rbp)
    b075:	48 8b 45 f8          	mov    -0x8(%rbp),%rax
    b079:	48 0f af 45 f0       	imul   -0x10(%rbp),%rax
    b07e:	5d                   	pop    %rbp
    b07f:	c3                   	retq   

000000000000b080 <safe_mod_func_uint64_t_u_u>:
    b080:	f3 0f 1e fa          	endbr64 
    b084:	55                   	push   %rbp
    b085:	48 89 e5             	mov    %rsp,%rbp
    b088:	48 89 7d f8          	mov    %rdi,-0x8(%rbp)
    b08c:	48 89 75 f0          	mov    %rsi,-0x10(%rbp)
    b090:	48 83 7d f0 00       	cmpq   $0x0,-0x10(%rbp)
    b095:	74 12                	je     b0a9 <safe_mod_func_uint64_t_u_u+0x29>
    b097:	48 8b 45 f8          	mov    -0x8(%rbp),%rax
    b09b:	ba 00 00 00 00       	mov    $0x0,%edx
    b0a0:	48 f7 75 f0          	divq   -0x10(%rbp)
    b0a4:	48 89 d0             	mov    %rdx,%rax
    b0a7:	eb 04                	jmp    b0ad <safe_mod_func_uint64_t_u_u+0x2d>
    b0a9:	48 8b 45 f8          	mov    -0x8(%rbp),%rax
    b0ad:	5d                   	pop    %rbp
    b0ae:	c3                   	retq   

000000000000b0af <safe_div_func_uint64_t_u_u>:
    b0af:	f3 0f 1e fa          	endbr64 
    b0b3:	55                   	push   %rbp
    b0b4:	48 89 e5             	mov    %rsp,%rbp
    b0b7:	48 89 7d f8          	mov    %rdi,-0x8(%rbp)
    b0bb:	48 89 75 f0          	mov    %rsi,-0x10(%rbp)
    b0bf:	48 83 7d f0 00       	cmpq   $0x0,-0x10(%rbp)
    b0c4:	74 0f                	je     b0d5 <safe_div_func_uint64_t_u_u+0x26>
    b0c6:	48 8b 45 f8          	mov    -0x8(%rbp),%rax
    b0ca:	ba 00 00 00 00       	mov    $0x0,%edx
    b0cf:	48 f7 75 f0          	divq   -0x10(%rbp)
    b0d3:	eb 04                	jmp    b0d9 <safe_div_func_uint64_t_u_u+0x2a>
    b0d5:	48 8b 45 f8          	mov    -0x8(%rbp),%rax
    b0d9:	5d                   	pop    %rbp
    b0da:	c3                   	retq   

000000000000b0db <safe_lshift_func_uint64_t_u_s>:
    b0db:	f3 0f 1e fa          	endbr64 
    b0df:	55                   	push   %rbp
    b0e0:	48 89 e5             	mov    %rsp,%rbp
    b0e3:	48 89 7d f8          	mov    %rdi,-0x8(%rbp)
    b0e7:	89 75 f4             	mov    %esi,-0xc(%rbp)
    b0ea:	83 7d f4 00          	cmpl   $0x0,-0xc(%rbp)
    b0ee:	78 2f                	js     b11f <safe_lshift_func_uint64_t_u_s+0x44>
    b0f0:	83 7d f4 1f          	cmpl   $0x1f,-0xc(%rbp)
    b0f4:	7f 29                	jg     b11f <safe_lshift_func_uint64_t_u_s+0x44>
    b0f6:	8b 45 f4             	mov    -0xc(%rbp),%eax
    b0f9:	48 c7 c2 ff ff ff ff 	mov    $0xffffffffffffffff,%rdx
    b100:	89 c1                	mov    %eax,%ecx
    b102:	48 d3 ea             	shr    %cl,%rdx
    b105:	48 89 d0             	mov    %rdx,%rax
    b108:	48 39 45 f8          	cmp    %rax,-0x8(%rbp)
    b10c:	77 11                	ja     b11f <safe_lshift_func_uint64_t_u_s+0x44>
    b10e:	8b 45 f4             	mov    -0xc(%rbp),%eax
    b111:	48 8b 55 f8          	mov    -0x8(%rbp),%rdx
    b115:	89 c1                	mov    %eax,%ecx
    b117:	48 d3 e2             	shl    %cl,%rdx
    b11a:	48 89 d0             	mov    %rdx,%rax
    b11d:	eb 04                	jmp    b123 <safe_lshift_func_uint64_t_u_s+0x48>
    b11f:	48 8b 45 f8          	mov    -0x8(%rbp),%rax
    b123:	5d                   	pop    %rbp
    b124:	c3                   	retq   

000000000000b125 <safe_lshift_func_uint64_t_u_u>:
    b125:	f3 0f 1e fa          	endbr64 
    b129:	55                   	push   %rbp
    b12a:	48 89 e5             	mov    %rsp,%rbp
    b12d:	48 89 7d f8          	mov    %rdi,-0x8(%rbp)
    b131:	89 75 f4             	mov    %esi,-0xc(%rbp)
    b134:	83 7d f4 1f          	cmpl   $0x1f,-0xc(%rbp)
    b138:	77 29                	ja     b163 <safe_lshift_func_uint64_t_u_u+0x3e>
    b13a:	8b 45 f4             	mov    -0xc(%rbp),%eax
    b13d:	48 c7 c2 ff ff ff ff 	mov    $0xffffffffffffffff,%rdx
    b144:	89 c1                	mov    %eax,%ecx
    b146:	48 d3 ea             	shr    %cl,%rdx
    b149:	48 89 d0             	mov    %rdx,%rax
    b14c:	48 39 45 f8          	cmp    %rax,-0x8(%rbp)
    b150:	77 11                	ja     b163 <safe_lshift_func_uint64_t_u_u+0x3e>
    b152:	8b 45 f4             	mov    -0xc(%rbp),%eax
    b155:	48 8b 55 f8          	mov    -0x8(%rbp),%rdx
    b159:	89 c1                	mov    %eax,%ecx
    b15b:	48 d3 e2             	shl    %cl,%rdx
    b15e:	48 89 d0             	mov    %rdx,%rax
    b161:	eb 04                	jmp    b167 <safe_lshift_func_uint64_t_u_u+0x42>
    b163:	48 8b 45 f8          	mov    -0x8(%rbp),%rax
    b167:	5d                   	pop    %rbp
    b168:	c3                   	retq   

000000000000b169 <safe_rshift_func_uint64_t_u_s>:
    b169:	f3 0f 1e fa          	endbr64 
    b16d:	55                   	push   %rbp
    b16e:	48 89 e5             	mov    %rsp,%rbp
    b171:	48 89 7d f8          	mov    %rdi,-0x8(%rbp)
    b175:	89 75 f4             	mov    %esi,-0xc(%rbp)
    b178:	83 7d f4 00          	cmpl   $0x0,-0xc(%rbp)
    b17c:	78 17                	js     b195 <safe_rshift_func_uint64_t_u_s+0x2c>
    b17e:	83 7d f4 1f          	cmpl   $0x1f,-0xc(%rbp)
    b182:	7f 11                	jg     b195 <safe_rshift_func_uint64_t_u_s+0x2c>
    b184:	8b 45 f4             	mov    -0xc(%rbp),%eax
    b187:	48 8b 55 f8          	mov    -0x8(%rbp),%rdx
    b18b:	89 c1                	mov    %eax,%ecx
    b18d:	48 d3 ea             	shr    %cl,%rdx
    b190:	48 89 d0             	mov    %rdx,%rax
    b193:	eb 04                	jmp    b199 <safe_rshift_func_uint64_t_u_s+0x30>
    b195:	48 8b 45 f8          	mov    -0x8(%rbp),%rax
    b199:	5d                   	pop    %rbp
    b19a:	c3                   	retq   

000000000000b19b <safe_rshift_func_uint64_t_u_u>:
    b19b:	f3 0f 1e fa          	endbr64 
    b19f:	55                   	push   %rbp
    b1a0:	48 89 e5             	mov    %rsp,%rbp
    b1a3:	48 89 7d f8          	mov    %rdi,-0x8(%rbp)
    b1a7:	89 75 f4             	mov    %esi,-0xc(%rbp)
    b1aa:	83 7d f4 1f          	cmpl   $0x1f,-0xc(%rbp)
    b1ae:	77 11                	ja     b1c1 <safe_rshift_func_uint64_t_u_u+0x26>
    b1b0:	8b 45 f4             	mov    -0xc(%rbp),%eax
    b1b3:	48 8b 55 f8          	mov    -0x8(%rbp),%rdx
    b1b7:	89 c1                	mov    %eax,%ecx
    b1b9:	48 d3 ea             	shr    %cl,%rdx
    b1bc:	48 89 d0             	mov    %rdx,%rax
    b1bf:	eb 04                	jmp    b1c5 <safe_rshift_func_uint64_t_u_u+0x2a>
    b1c1:	48 8b 45 f8          	mov    -0x8(%rbp),%rax
    b1c5:	5d                   	pop    %rbp
    b1c6:	c3                   	retq   

000000000000b1c7 <safe_add_func_float_f_f>:
    b1c7:	f3 0f 1e fa          	endbr64 
    b1cb:	55                   	push   %rbp
    b1cc:	48 89 e5             	mov    %rsp,%rbp
    b1cf:	f3 0f 11 45 fc       	movss  %xmm0,-0x4(%rbp)
    b1d4:	f3 0f 11 4d f8       	movss  %xmm1,-0x8(%rbp)
    b1d9:	f3 0f 10 4d fc       	movss  -0x4(%rbp),%xmm1
    b1de:	f3 0f 10 05 5a 29 01 	movss  0x1295a(%rip),%xmm0        # 1db40 <l_1549.4425+0xe0>
    b1e5:	00 
    b1e6:	f3 0f 59 c8          	mulss  %xmm0,%xmm1
    b1ea:	f3 0f 10 55 f8       	movss  -0x8(%rbp),%xmm2
    b1ef:	f3 0f 10 05 49 29 01 	movss  0x12949(%rip),%xmm0        # 1db40 <l_1549.4425+0xe0>
    b1f6:	00 
    b1f7:	f3 0f 59 c2          	mulss  %xmm2,%xmm0
    b1fb:	f3 0f 58 c1          	addss  %xmm1,%xmm0
    b1ff:	f3 0f 10 0d 49 29 01 	movss  0x12949(%rip),%xmm1        # 1db50 <l_1549.4425+0xf0>
    b206:	00 
    b207:	0f 54 c1             	andps  %xmm1,%xmm0
    b20a:	0f 2f 05 4f 29 01 00 	comiss 0x1294f(%rip),%xmm0        # 1db60 <l_1549.4425+0x100>
    b211:	76 07                	jbe    b21a <safe_add_func_float_f_f+0x53>
    b213:	f3 0f 10 45 fc       	movss  -0x4(%rbp),%xmm0
    b218:	eb 0a                	jmp    b224 <safe_add_func_float_f_f+0x5d>
    b21a:	f3 0f 10 45 fc       	movss  -0x4(%rbp),%xmm0
    b21f:	f3 0f 58 45 f8       	addss  -0x8(%rbp),%xmm0
    b224:	5d                   	pop    %rbp
    b225:	c3                   	retq   

000000000000b226 <safe_sub_func_float_f_f>:
    b226:	f3 0f 1e fa          	endbr64 
    b22a:	55                   	push   %rbp
    b22b:	48 89 e5             	mov    %rsp,%rbp
    b22e:	f3 0f 11 45 fc       	movss  %xmm0,-0x4(%rbp)
    b233:	f3 0f 11 4d f8       	movss  %xmm1,-0x8(%rbp)
    b238:	f3 0f 10 4d fc       	movss  -0x4(%rbp),%xmm1
    b23d:	f3 0f 10 05 fb 28 01 	movss  0x128fb(%rip),%xmm0        # 1db40 <l_1549.4425+0xe0>
    b244:	00 
    b245:	f3 0f 59 c1          	mulss  %xmm1,%xmm0
    b249:	f3 0f 10 55 f8       	movss  -0x8(%rbp),%xmm2
    b24e:	f3 0f 10 0d ea 28 01 	movss  0x128ea(%rip),%xmm1        # 1db40 <l_1549.4425+0xe0>
    b255:	00 
    b256:	f3 0f 59 ca          	mulss  %xmm2,%xmm1
    b25a:	f3 0f 5c c1          	subss  %xmm1,%xmm0
    b25e:	f3 0f 10 0d ea 28 01 	movss  0x128ea(%rip),%xmm1        # 1db50 <l_1549.4425+0xf0>
    b265:	00 
    b266:	0f 54 c1             	andps  %xmm1,%xmm0
    b269:	0f 2f 05 f0 28 01 00 	comiss 0x128f0(%rip),%xmm0        # 1db60 <l_1549.4425+0x100>
    b270:	76 07                	jbe    b279 <safe_sub_func_float_f_f+0x53>
    b272:	f3 0f 10 45 fc       	movss  -0x4(%rbp),%xmm0
    b277:	eb 0a                	jmp    b283 <safe_sub_func_float_f_f+0x5d>
    b279:	f3 0f 10 45 fc       	movss  -0x4(%rbp),%xmm0
    b27e:	f3 0f 5c 45 f8       	subss  -0x8(%rbp),%xmm0
    b283:	5d                   	pop    %rbp
    b284:	c3                   	retq   

000000000000b285 <safe_mul_func_float_f_f>:
    b285:	f3 0f 1e fa          	endbr64 
    b289:	55                   	push   %rbp
    b28a:	48 89 e5             	mov    %rsp,%rbp
    b28d:	f3 0f 11 45 fc       	movss  %xmm0,-0x4(%rbp)
    b292:	f3 0f 11 4d f8       	movss  %xmm1,-0x8(%rbp)
    b297:	f3 0f 10 4d fc       	movss  -0x4(%rbp),%xmm1
    b29c:	f3 0f 10 05 c0 28 01 	movss  0x128c0(%rip),%xmm0        # 1db64 <l_1549.4425+0x104>
    b2a3:	00 
    b2a4:	f3 0f 59 c8          	mulss  %xmm0,%xmm1
    b2a8:	f3 0f 10 55 f8       	movss  -0x8(%rbp),%xmm2
    b2ad:	f3 0f 10 05 b3 28 01 	movss  0x128b3(%rip),%xmm0        # 1db68 <l_1549.4425+0x108>
    b2b4:	00 
    b2b5:	f3 0f 59 c2          	mulss  %xmm2,%xmm0
    b2b9:	f3 0f 59 c1          	mulss  %xmm1,%xmm0
    b2bd:	f3 0f 10 0d 8b 28 01 	movss  0x1288b(%rip),%xmm1        # 1db50 <l_1549.4425+0xf0>
    b2c4:	00 
    b2c5:	0f 54 c1             	andps  %xmm1,%xmm0
    b2c8:	0f 2f 05 9d 28 01 00 	comiss 0x1289d(%rip),%xmm0        # 1db6c <l_1549.4425+0x10c>
    b2cf:	76 07                	jbe    b2d8 <safe_mul_func_float_f_f+0x53>
    b2d1:	f3 0f 10 45 fc       	movss  -0x4(%rbp),%xmm0
    b2d6:	eb 0a                	jmp    b2e2 <safe_mul_func_float_f_f+0x5d>
    b2d8:	f3 0f 10 45 fc       	movss  -0x4(%rbp),%xmm0
    b2dd:	f3 0f 59 45 f8       	mulss  -0x8(%rbp),%xmm0
    b2e2:	5d                   	pop    %rbp
    b2e3:	c3                   	retq   

000000000000b2e4 <safe_div_func_float_f_f>:
    b2e4:	f3 0f 1e fa          	endbr64 
    b2e8:	55                   	push   %rbp
    b2e9:	48 89 e5             	mov    %rsp,%rbp
    b2ec:	f3 0f 11 45 fc       	movss  %xmm0,-0x4(%rbp)
    b2f1:	f3 0f 11 4d f8       	movss  %xmm1,-0x8(%rbp)
    b2f6:	f3 0f 10 45 f8       	movss  -0x8(%rbp),%xmm0
    b2fb:	f3 0f 10 0d 4d 28 01 	movss  0x1284d(%rip),%xmm1        # 1db50 <l_1549.4425+0xf0>
    b302:	00 
    b303:	0f 54 c8             	andps  %xmm0,%xmm1
    b306:	f3 0f 10 05 62 28 01 	movss  0x12862(%rip),%xmm0        # 1db70 <l_1549.4425+0x110>
    b30d:	00 
    b30e:	0f 2f c1             	comiss %xmm1,%xmm0
    b311:	0f 97 c0             	seta   %al
    b314:	83 f0 01             	xor    $0x1,%eax
    b317:	84 c0                	test   %al,%al
    b319:	75 56                	jne    b371 <safe_div_func_float_f_f+0x8d>
    b31b:	66 0f ef c0          	pxor   %xmm0,%xmm0
    b31f:	0f 2e 45 f8          	ucomiss -0x8(%rbp),%xmm0
    b323:	7a 0a                	jp     b32f <safe_div_func_float_f_f+0x4b>
    b325:	66 0f ef c0          	pxor   %xmm0,%xmm0
    b329:	0f 2e 45 f8          	ucomiss -0x8(%rbp),%xmm0
    b32d:	74 4e                	je     b37d <safe_div_func_float_f_f+0x99>
    b32f:	f3 0f 10 4d fc       	movss  -0x4(%rbp),%xmm1
    b334:	f3 0f 10 05 38 28 01 	movss  0x12838(%rip),%xmm0        # 1db74 <l_1549.4425+0x114>
    b33b:	00 
    b33c:	f3 0f 59 c1          	mulss  %xmm1,%xmm0
    b340:	f3 0f 10 55 f8       	movss  -0x8(%rbp),%xmm2
    b345:	f3 0f 10 0d 2b 28 01 	movss  0x1282b(%rip),%xmm1        # 1db78 <l_1549.4425+0x118>
    b34c:	00 
    b34d:	f3 0f 59 ca          	mulss  %xmm2,%xmm1
    b351:	f3 0f 5e c1          	divss  %xmm1,%xmm0
    b355:	f3 0f 10 0d f3 27 01 	movss  0x127f3(%rip),%xmm1        # 1db50 <l_1549.4425+0xf0>
    b35c:	00 
    b35d:	0f 54 c1             	andps  %xmm1,%xmm0
    b360:	0f 2f 05 15 28 01 00 	comiss 0x12815(%rip),%xmm0        # 1db7c <l_1549.4425+0x11c>
    b367:	0f 97 c0             	seta   %al
    b36a:	83 f0 01             	xor    $0x1,%eax
    b36d:	84 c0                	test   %al,%al
    b36f:	74 0c                	je     b37d <safe_div_func_float_f_f+0x99>
    b371:	f3 0f 10 45 fc       	movss  -0x4(%rbp),%xmm0
    b376:	f3 0f 5e 45 f8       	divss  -0x8(%rbp),%xmm0
    b37b:	eb 05                	jmp    b382 <safe_div_func_float_f_f+0x9e>
    b37d:	f3 0f 10 45 fc       	movss  -0x4(%rbp),%xmm0
    b382:	5d                   	pop    %rbp
    b383:	c3                   	retq   

000000000000b384 <safe_add_func_double_f_f>:
    b384:	f3 0f 1e fa          	endbr64 
    b388:	55                   	push   %rbp
    b389:	48 89 e5             	mov    %rsp,%rbp
    b38c:	f2 0f 11 45 f8       	movsd  %xmm0,-0x8(%rbp)
    b391:	f2 0f 11 4d f0       	movsd  %xmm1,-0x10(%rbp)
    b396:	f2 0f 10 4d f8       	movsd  -0x8(%rbp),%xmm1
    b39b:	f2 0f 10 05 dd 27 01 	movsd  0x127dd(%rip),%xmm0        # 1db80 <l_1549.4425+0x120>
    b3a2:	00 
    b3a3:	f2 0f 59 c8          	mulsd  %xmm0,%xmm1
    b3a7:	f2 0f 10 55 f0       	movsd  -0x10(%rbp),%xmm2
    b3ac:	f2 0f 10 05 cc 27 01 	movsd  0x127cc(%rip),%xmm0        # 1db80 <l_1549.4425+0x120>
    b3b3:	00 
    b3b4:	f2 0f 59 c2          	mulsd  %xmm2,%xmm0
    b3b8:	f2 0f 58 c1          	addsd  %xmm1,%xmm0
    b3bc:	f3 0f 7e 0d cc 27 01 	movq   0x127cc(%rip),%xmm1        # 1db90 <l_1549.4425+0x130>
    b3c3:	00 
    b3c4:	66 0f 54 c1          	andpd  %xmm1,%xmm0
    b3c8:	66 0f 2f 05 d0 27 01 	comisd 0x127d0(%rip),%xmm0        # 1dba0 <l_1549.4425+0x140>
    b3cf:	00 
    b3d0:	76 07                	jbe    b3d9 <safe_add_func_double_f_f+0x55>
    b3d2:	f2 0f 10 45 f8       	movsd  -0x8(%rbp),%xmm0
    b3d7:	eb 0a                	jmp    b3e3 <safe_add_func_double_f_f+0x5f>
    b3d9:	f2 0f 10 45 f8       	movsd  -0x8(%rbp),%xmm0
    b3de:	f2 0f 58 45 f0       	addsd  -0x10(%rbp),%xmm0
    b3e3:	5d                   	pop    %rbp
    b3e4:	c3                   	retq   

000000000000b3e5 <safe_sub_func_double_f_f>:
    b3e5:	f3 0f 1e fa          	endbr64 
    b3e9:	55                   	push   %rbp
    b3ea:	48 89 e5             	mov    %rsp,%rbp
    b3ed:	f2 0f 11 45 f8       	movsd  %xmm0,-0x8(%rbp)
    b3f2:	f2 0f 11 4d f0       	movsd  %xmm1,-0x10(%rbp)
    b3f7:	f2 0f 10 4d f8       	movsd  -0x8(%rbp),%xmm1
    b3fc:	f2 0f 10 05 7c 27 01 	movsd  0x1277c(%rip),%xmm0        # 1db80 <l_1549.4425+0x120>
    b403:	00 
    b404:	f2 0f 59 c1          	mulsd  %xmm1,%xmm0
    b408:	f2 0f 10 55 f0       	movsd  -0x10(%rbp),%xmm2
    b40d:	f2 0f 10 0d 6b 27 01 	movsd  0x1276b(%rip),%xmm1        # 1db80 <l_1549.4425+0x120>
    b414:	00 
    b415:	f2 0f 59 ca          	mulsd  %xmm2,%xmm1
    b419:	f2 0f 5c c1          	subsd  %xmm1,%xmm0
    b41d:	f3 0f 7e 0d 6b 27 01 	movq   0x1276b(%rip),%xmm1        # 1db90 <l_1549.4425+0x130>
    b424:	00 
    b425:	66 0f 54 c1          	andpd  %xmm1,%xmm0
    b429:	66 0f 2f 05 6f 27 01 	comisd 0x1276f(%rip),%xmm0        # 1dba0 <l_1549.4425+0x140>
    b430:	00 
    b431:	76 07                	jbe    b43a <safe_sub_func_double_f_f+0x55>
    b433:	f2 0f 10 45 f8       	movsd  -0x8(%rbp),%xmm0
    b438:	eb 0a                	jmp    b444 <safe_sub_func_double_f_f+0x5f>
    b43a:	f2 0f 10 45 f8       	movsd  -0x8(%rbp),%xmm0
    b43f:	f2 0f 5c 45 f0       	subsd  -0x10(%rbp),%xmm0
    b444:	5d                   	pop    %rbp
    b445:	c3                   	retq   

000000000000b446 <safe_mul_func_double_f_f>:
    b446:	f3 0f 1e fa          	endbr64 
    b44a:	55                   	push   %rbp
    b44b:	48 89 e5             	mov    %rsp,%rbp
    b44e:	f2 0f 11 45 f8       	movsd  %xmm0,-0x8(%rbp)
    b453:	f2 0f 11 4d f0       	movsd  %xmm1,-0x10(%rbp)
    b458:	f2 0f 10 4d f8       	movsd  -0x8(%rbp),%xmm1
    b45d:	f2 0f 10 05 43 27 01 	movsd  0x12743(%rip),%xmm0        # 1dba8 <l_1549.4425+0x148>
    b464:	00 
    b465:	f2 0f 59 c8          	mulsd  %xmm0,%xmm1
    b469:	f2 0f 10 55 f0       	movsd  -0x10(%rbp),%xmm2
    b46e:	f2 0f 10 05 3a 27 01 	movsd  0x1273a(%rip),%xmm0        # 1dbb0 <l_1549.4425+0x150>
    b475:	00 
    b476:	f2 0f 59 c2          	mulsd  %xmm2,%xmm0
    b47a:	f2 0f 59 c1          	mulsd  %xmm1,%xmm0
    b47e:	f3 0f 7e 0d 0a 27 01 	movq   0x1270a(%rip),%xmm1        # 1db90 <l_1549.4425+0x130>
    b485:	00 
    b486:	66 0f 54 c1          	andpd  %xmm1,%xmm0
    b48a:	66 0f 2f 05 26 27 01 	comisd 0x12726(%rip),%xmm0        # 1dbb8 <l_1549.4425+0x158>
    b491:	00 
    b492:	76 07                	jbe    b49b <safe_mul_func_double_f_f+0x55>
    b494:	f2 0f 10 45 f8       	movsd  -0x8(%rbp),%xmm0
    b499:	eb 0a                	jmp    b4a5 <safe_mul_func_double_f_f+0x5f>
    b49b:	f2 0f 10 45 f8       	movsd  -0x8(%rbp),%xmm0
    b4a0:	f2 0f 59 45 f0       	mulsd  -0x10(%rbp),%xmm0
    b4a5:	5d                   	pop    %rbp
    b4a6:	c3                   	retq   

000000000000b4a7 <safe_div_func_double_f_f>:
    b4a7:	f3 0f 1e fa          	endbr64 
    b4ab:	55                   	push   %rbp
    b4ac:	48 89 e5             	mov    %rsp,%rbp
    b4af:	f2 0f 11 45 f8       	movsd  %xmm0,-0x8(%rbp)
    b4b4:	f2 0f 11 4d f0       	movsd  %xmm1,-0x10(%rbp)
    b4b9:	f2 0f 10 45 f0       	movsd  -0x10(%rbp),%xmm0
    b4be:	f3 0f 7e 0d ca 26 01 	movq   0x126ca(%rip),%xmm1        # 1db90 <l_1549.4425+0x130>
    b4c5:	00 
    b4c6:	66 0f 54 c8          	andpd  %xmm0,%xmm1
    b4ca:	f2 0f 10 05 ee 26 01 	movsd  0x126ee(%rip),%xmm0        # 1dbc0 <l_1549.4425+0x160>
    b4d1:	00 
    b4d2:	66 0f 2f c1          	comisd %xmm1,%xmm0
    b4d6:	0f 97 c0             	seta   %al
    b4d9:	83 f0 01             	xor    $0x1,%eax
    b4dc:	84 c0                	test   %al,%al
    b4de:	75 5a                	jne    b53a <safe_div_func_double_f_f+0x93>
    b4e0:	66 0f ef c0          	pxor   %xmm0,%xmm0
    b4e4:	66 0f 2e 45 f0       	ucomisd -0x10(%rbp),%xmm0
    b4e9:	7a 0b                	jp     b4f6 <safe_div_func_double_f_f+0x4f>
    b4eb:	66 0f ef c0          	pxor   %xmm0,%xmm0
    b4ef:	66 0f 2e 45 f0       	ucomisd -0x10(%rbp),%xmm0
    b4f4:	74 50                	je     b546 <safe_div_func_double_f_f+0x9f>
    b4f6:	f2 0f 10 4d f8       	movsd  -0x8(%rbp),%xmm1
    b4fb:	f2 0f 10 05 c5 26 01 	movsd  0x126c5(%rip),%xmm0        # 1dbc8 <l_1549.4425+0x168>
    b502:	00 
    b503:	f2 0f 59 c1          	mulsd  %xmm1,%xmm0
    b507:	f2 0f 10 55 f0       	movsd  -0x10(%rbp),%xmm2
    b50c:	f2 0f 10 0d bc 26 01 	movsd  0x126bc(%rip),%xmm1        # 1dbd0 <l_1549.4425+0x170>
    b513:	00 
    b514:	f2 0f 59 ca          	mulsd  %xmm2,%xmm1
    b518:	f2 0f 5e c1          	divsd  %xmm1,%xmm0
    b51c:	f3 0f 7e 0d 6c 26 01 	movq   0x1266c(%rip),%xmm1        # 1db90 <l_1549.4425+0x130>
    b523:	00 
    b524:	66 0f 54 c1          	andpd  %xmm1,%xmm0
    b528:	66 0f 2f 05 a8 26 01 	comisd 0x126a8(%rip),%xmm0        # 1dbd8 <l_1549.4425+0x178>
    b52f:	00 
    b530:	0f 97 c0             	seta   %al
    b533:	83 f0 01             	xor    $0x1,%eax
    b536:	84 c0                	test   %al,%al
    b538:	74 0c                	je     b546 <safe_div_func_double_f_f+0x9f>
    b53a:	f2 0f 10 45 f8       	movsd  -0x8(%rbp),%xmm0
    b53f:	f2 0f 5e 45 f0       	divsd  -0x10(%rbp),%xmm0
    b544:	eb 05                	jmp    b54b <safe_div_func_double_f_f+0xa4>
    b546:	f2 0f 10 45 f8       	movsd  -0x8(%rbp),%xmm0
    b54b:	5d                   	pop    %rbp
    b54c:	c3                   	retq   

000000000000b54d <safe_convert_func_float_to_int32_t>:
    b54d:	f3 0f 1e fa          	endbr64 
    b551:	55                   	push   %rbp
    b552:	48 89 e5             	mov    %rsp,%rbp
    b555:	f3 0f 11 45 fc       	movss  %xmm0,-0x4(%rbp)
    b55a:	f3 0f 10 05 7e 26 01 	movss  0x1267e(%rip),%xmm0        # 1dbe0 <l_1549.4425+0x180>
    b561:	00 
    b562:	0f 2f 45 fc          	comiss -0x4(%rbp),%xmm0
    b566:	0f 93 c0             	setae  %al
    b569:	83 f0 01             	xor    $0x1,%eax
    b56c:	84 c0                	test   %al,%al
    b56e:	74 21                	je     b591 <safe_convert_func_float_to_int32_t+0x44>
    b570:	f3 0f 10 45 fc       	movss  -0x4(%rbp),%xmm0
    b575:	0f 2f 05 68 26 01 00 	comiss 0x12668(%rip),%xmm0        # 1dbe4 <l_1549.4425+0x184>
    b57c:	0f 93 c0             	setae  %al
    b57f:	83 f0 01             	xor    $0x1,%eax
    b582:	84 c0                	test   %al,%al
    b584:	74 0b                	je     b591 <safe_convert_func_float_to_int32_t+0x44>
    b586:	f3 0f 10 45 fc       	movss  -0x4(%rbp),%xmm0
    b58b:	f3 0f 2c c0          	cvttss2si %xmm0,%eax
    b58f:	eb 05                	jmp    b596 <safe_convert_func_float_to_int32_t+0x49>
    b591:	b8 ff ff ff 7f       	mov    $0x7fffffff,%eax
    b596:	5d                   	pop    %rbp
    b597:	c3                   	retq   

000000000000b598 <crc32_gentab>:
    b598:	f3 0f 1e fa          	endbr64 
    b59c:	55                   	push   %rbp
    b59d:	48 89 e5             	mov    %rsp,%rbp
    b5a0:	c7 45 fc 20 83 b8 ed 	movl   $0xedb88320,-0x4(%rbp)
    b5a7:	c7 45 f4 00 00 00 00 	movl   $0x0,-0xc(%rbp)
    b5ae:	eb 51                	jmp    b601 <crc32_gentab+0x69>
    b5b0:	8b 45 f4             	mov    -0xc(%rbp),%eax
    b5b3:	89 45 f0             	mov    %eax,-0x10(%rbp)
    b5b6:	c7 45 f8 08 00 00 00 	movl   $0x8,-0x8(%rbp)
    b5bd:	eb 1e                	jmp    b5dd <crc32_gentab+0x45>
    b5bf:	8b 45 f0             	mov    -0x10(%rbp),%eax
    b5c2:	83 e0 01             	and    $0x1,%eax
    b5c5:	85 c0                	test   %eax,%eax
    b5c7:	74 0d                	je     b5d6 <crc32_gentab+0x3e>
    b5c9:	8b 45 f0             	mov    -0x10(%rbp),%eax
    b5cc:	d1 e8                	shr    %eax
    b5ce:	33 45 fc             	xor    -0x4(%rbp),%eax
    b5d1:	89 45 f0             	mov    %eax,-0x10(%rbp)
    b5d4:	eb 03                	jmp    b5d9 <crc32_gentab+0x41>
    b5d6:	d1 6d f0             	shrl   -0x10(%rbp)
    b5d9:	83 6d f8 01          	subl   $0x1,-0x8(%rbp)
    b5dd:	83 7d f8 00          	cmpl   $0x0,-0x8(%rbp)
    b5e1:	7f dc                	jg     b5bf <crc32_gentab+0x27>
    b5e3:	8b 45 f4             	mov    -0xc(%rbp),%eax
    b5e6:	48 98                	cltq   
    b5e8:	48 8d 0c 85 00 00 00 	lea    0x0(,%rax,4),%rcx
    b5ef:	00 
    b5f0:	48 8d 15 c9 a7 01 00 	lea    0x1a7c9(%rip),%rdx        # 25dc0 <crc32_tab>
    b5f7:	8b 45 f0             	mov    -0x10(%rbp),%eax
    b5fa:	89 04 11             	mov    %eax,(%rcx,%rdx,1)
    b5fd:	83 45 f4 01          	addl   $0x1,-0xc(%rbp)
    b601:	81 7d f4 ff 00 00 00 	cmpl   $0xff,-0xc(%rbp)
    b608:	7e a6                	jle    b5b0 <crc32_gentab+0x18>
    b60a:	90                   	nop
    b60b:	90                   	nop
    b60c:	5d                   	pop    %rbp
    b60d:	c3                   	retq   

000000000000b60e <crc32_byte>:
    b60e:	f3 0f 1e fa          	endbr64 
    b612:	55                   	push   %rbp
    b613:	48 89 e5             	mov    %rsp,%rbp
    b616:	89 f8                	mov    %edi,%eax
    b618:	88 45 fc             	mov    %al,-0x4(%rbp)
    b61b:	8b 05 ff 59 01 00    	mov    0x159ff(%rip),%eax        # 21020 <crc32_context>
    b621:	c1 e8 08             	shr    $0x8,%eax
    b624:	89 c1                	mov    %eax,%ecx
    b626:	0f b6 55 fc          	movzbl -0x4(%rbp),%edx
    b62a:	8b 05 f0 59 01 00    	mov    0x159f0(%rip),%eax        # 21020 <crc32_context>
    b630:	31 d0                	xor    %edx,%eax
    b632:	0f b6 c0             	movzbl %al,%eax
    b635:	89 c0                	mov    %eax,%eax
    b637:	48 8d 14 85 00 00 00 	lea    0x0(,%rax,4),%rdx
    b63e:	00 
    b63f:	48 8d 05 7a a7 01 00 	lea    0x1a77a(%rip),%rax        # 25dc0 <crc32_tab>
    b646:	8b 04 02             	mov    (%rdx,%rax,1),%eax
    b649:	31 c8                	xor    %ecx,%eax
    b64b:	89 05 cf 59 01 00    	mov    %eax,0x159cf(%rip)        # 21020 <crc32_context>
    b651:	90                   	nop
    b652:	5d                   	pop    %rbp
    b653:	c3                   	retq   

000000000000b654 <crc32_8bytes>:
    b654:	f3 0f 1e fa          	endbr64 
    b658:	55                   	push   %rbp
    b659:	48 89 e5             	mov    %rsp,%rbp
    b65c:	48 83 ec 08          	sub    $0x8,%rsp
    b660:	48 89 7d f8          	mov    %rdi,-0x8(%rbp)
    b664:	48 8b 45 f8          	mov    -0x8(%rbp),%rax
    b668:	0f b6 c0             	movzbl %al,%eax
    b66b:	89 c7                	mov    %eax,%edi
    b66d:	e8 9c ff ff ff       	callq  b60e <crc32_byte>
    b672:	48 8b 45 f8          	mov    -0x8(%rbp),%rax
    b676:	48 c1 e8 08          	shr    $0x8,%rax
    b67a:	0f b6 c0             	movzbl %al,%eax
    b67d:	89 c7                	mov    %eax,%edi
    b67f:	e8 8a ff ff ff       	callq  b60e <crc32_byte>
    b684:	48 8b 45 f8          	mov    -0x8(%rbp),%rax
    b688:	48 c1 e8 10          	shr    $0x10,%rax
    b68c:	0f b6 c0             	movzbl %al,%eax
    b68f:	89 c7                	mov    %eax,%edi
    b691:	e8 78 ff ff ff       	callq  b60e <crc32_byte>
    b696:	48 8b 45 f8          	mov    -0x8(%rbp),%rax
    b69a:	48 c1 e8 18          	shr    $0x18,%rax
    b69e:	0f b6 c0             	movzbl %al,%eax
    b6a1:	89 c7                	mov    %eax,%edi
    b6a3:	e8 66 ff ff ff       	callq  b60e <crc32_byte>
    b6a8:	48 8b 45 f8          	mov    -0x8(%rbp),%rax
    b6ac:	48 c1 e8 20          	shr    $0x20,%rax
    b6b0:	0f b6 c0             	movzbl %al,%eax
    b6b3:	89 c7                	mov    %eax,%edi
    b6b5:	e8 54 ff ff ff       	callq  b60e <crc32_byte>
    b6ba:	48 8b 45 f8          	mov    -0x8(%rbp),%rax
    b6be:	48 c1 e8 28          	shr    $0x28,%rax
    b6c2:	0f b6 c0             	movzbl %al,%eax
    b6c5:	89 c7                	mov    %eax,%edi
    b6c7:	e8 42 ff ff ff       	callq  b60e <crc32_byte>
    b6cc:	48 8b 45 f8          	mov    -0x8(%rbp),%rax
    b6d0:	48 c1 e8 30          	shr    $0x30,%rax
    b6d4:	0f b6 c0             	movzbl %al,%eax
    b6d7:	89 c7                	mov    %eax,%edi
    b6d9:	e8 30 ff ff ff       	callq  b60e <crc32_byte>
    b6de:	48 8b 45 f8          	mov    -0x8(%rbp),%rax
    b6e2:	48 c1 e8 38          	shr    $0x38,%rax
    b6e6:	0f b6 c0             	movzbl %al,%eax
    b6e9:	89 c7                	mov    %eax,%edi
    b6eb:	e8 1e ff ff ff       	callq  b60e <crc32_byte>
    b6f0:	90                   	nop
    b6f1:	c9                   	leaveq 
    b6f2:	c3                   	retq   

000000000000b6f3 <transparent_crc>:
    b6f3:	f3 0f 1e fa          	endbr64 
    b6f7:	55                   	push   %rbp
    b6f8:	48 89 e5             	mov    %rsp,%rbp
    b6fb:	48 83 ec 20          	sub    $0x20,%rsp
    b6ff:	48 89 7d f8          	mov    %rdi,-0x8(%rbp)
    b703:	48 89 75 f0          	mov    %rsi,-0x10(%rbp)
    b707:	89 55 ec             	mov    %edx,-0x14(%rbp)
    b70a:	48 8b 45 f8          	mov    -0x8(%rbp),%rax
    b70e:	48 89 c7             	mov    %rax,%rdi
    b711:	e8 3e ff ff ff       	callq  b654 <crc32_8bytes>
    b716:	83 7d ec 00          	cmpl   $0x0,-0x14(%rbp)
    b71a:	74 22                	je     b73e <transparent_crc+0x4b>
    b71c:	8b 05 fe 58 01 00    	mov    0x158fe(%rip),%eax        # 21020 <crc32_context>
    b722:	f7 d0                	not    %eax
    b724:	89 c2                	mov    %eax,%edx
    b726:	48 8b 45 f0          	mov    -0x10(%rbp),%rax
    b72a:	48 89 c6             	mov    %rax,%rsi
    b72d:	48 8d 3d fc e8 00 00 	lea    0xe8fc(%rip),%rdi        # 1a030 <_IO_stdin_used+0x30>
    b734:	b8 00 00 00 00       	mov    $0x0,%eax
    b739:	e8 42 e9 ff ff       	callq  a080 <printf@plt>
    b73e:	90                   	nop
    b73f:	c9                   	leaveq 
    b740:	c3                   	retq   

000000000000b741 <transparent_crc_bytes>:
    b741:	f3 0f 1e fa          	endbr64 
    b745:	55                   	push   %rbp
    b746:	48 89 e5             	mov    %rsp,%rbp
    b749:	48 83 ec 30          	sub    $0x30,%rsp
    b74d:	48 89 7d e8          	mov    %rdi,-0x18(%rbp)
    b751:	89 75 e4             	mov    %esi,-0x1c(%rbp)
    b754:	48 89 55 d8          	mov    %rdx,-0x28(%rbp)
    b758:	89 4d e0             	mov    %ecx,-0x20(%rbp)
    b75b:	c7 45 fc 00 00 00 00 	movl   $0x0,-0x4(%rbp)
    b762:	eb 1e                	jmp    b782 <transparent_crc_bytes+0x41>
    b764:	8b 45 fc             	mov    -0x4(%rbp),%eax
    b767:	48 63 d0             	movslq %eax,%rdx
    b76a:	48 8b 45 e8          	mov    -0x18(%rbp),%rax
    b76e:	48 01 d0             	add    %rdx,%rax
    b771:	0f b6 00             	movzbl (%rax),%eax
    b774:	0f b6 c0             	movzbl %al,%eax
    b777:	89 c7                	mov    %eax,%edi
    b779:	e8 90 fe ff ff       	callq  b60e <crc32_byte>
    b77e:	83 45 fc 01          	addl   $0x1,-0x4(%rbp)
    b782:	8b 45 fc             	mov    -0x4(%rbp),%eax
    b785:	3b 45 e4             	cmp    -0x1c(%rbp),%eax
    b788:	7c da                	jl     b764 <transparent_crc_bytes+0x23>
    b78a:	83 7d e0 00          	cmpl   $0x0,-0x20(%rbp)
    b78e:	74 22                	je     b7b2 <transparent_crc_bytes+0x71>
    b790:	8b 05 8a 58 01 00    	mov    0x1588a(%rip),%eax        # 21020 <crc32_context>
    b796:	f7 d0                	not    %eax
    b798:	89 c2                	mov    %eax,%edx
    b79a:	48 8b 45 d8          	mov    -0x28(%rbp),%rax
    b79e:	48 89 c6             	mov    %rax,%rsi
    b7a1:	48 8d 3d 88 e8 00 00 	lea    0xe888(%rip),%rdi        # 1a030 <_IO_stdin_used+0x30>
    b7a8:	b8 00 00 00 00       	mov    $0x0,%eax
    b7ad:	e8 ce e8 ff ff       	callq  a080 <printf@plt>
    b7b2:	90                   	nop
    b7b3:	c9                   	leaveq 
    b7b4:	c3                   	retq   

000000000000b7b5 <func_1>:
    b7b5:	f3 0f 1e fa          	endbr64 
    b7b9:	55                   	push   %rbp
    b7ba:	48 89 e5             	mov    %rsp,%rbp
    b7bd:	41 55                	push   %r13
    b7bf:	41 54                	push   %r12
    b7c1:	53                   	push   %rbx
    b7c2:	48 81 ec 78 05 00 00 	sub    $0x578,%rsp
    b7c9:	48 89 bd 78 fa ff ff 	mov    %rdi,-0x588(%rbp)
    b7d0:	64 48 8b 04 25 28 00 	mov    %fs:0x28,%rax
    b7d7:	00 00 
    b7d9:	48 89 45 d8          	mov    %rax,-0x28(%rbp)
    b7dd:	31 c0                	xor    %eax,%eax
    b7df:	48 c7 85 88 fa ff ff 	movq   $0x0,-0x578(%rbp)
    b7e6:	00 00 00 00 
    b7ea:	48 8d 85 a0 fa ff ff 	lea    -0x560(%rbp),%rax
    b7f1:	48 8d 15 a8 eb 00 00 	lea    0xeba8(%rip),%rdx        # 1a3a0 <g_2454+0x28>
    b7f8:	b9 28 00 00 00       	mov    $0x28,%ecx
    b7fd:	48 89 c7             	mov    %rax,%rdi
    b800:	48 89 d6             	mov    %rdx,%rsi
    b803:	f3 48 a5             	rep movsq %ds:(%rsi),%es:(%rdi)
    b806:	c7 05 14 58 01 00 00 	movl   $0x0,0x15814(%rip)        # 21024 <g_2>
    b80d:	00 00 00 
    b810:	e9 d0 07 00 00       	jmpq   bfe5 <func_1+0x830>
    b815:	48 8d 05 0c 58 01 00 	lea    0x1580c(%rip),%rax        # 21028 <g_11>
    b81c:	48 89 85 90 fa ff ff 	mov    %rax,-0x570(%rbp)
    b823:	48 8d 05 96 69 01 00 	lea    0x16996(%rip),%rax        # 221c0 <g_2477>
    b82a:	48 89 85 98 fa ff ff 	mov    %rax,-0x568(%rbp)
    b831:	48 8b 05 58 97 01 00 	mov    0x19758(%rip),%rax        # 24f90 <g_128>
    b838:	8b 18                	mov    (%rax),%ebx
    b83a:	48 8b 05 37 9a 01 00 	mov    0x19a37(%rip),%rax        # 25278 <g_347>
    b841:	4c 8b 28             	mov    (%rax),%r13
    b844:	48 8b 05 3d 9b 01 00 	mov    0x19b3d(%rip),%rax        # 25388 <g_1609>
    b84b:	4c 8b 20             	mov    (%rax),%r12
    b84e:	8b 05 d0 57 01 00    	mov    0x157d0(%rip),%eax        # 21024 <g_2>
    b854:	0f bf f0             	movswl %ax,%esi
    b857:	8b 05 c7 57 01 00    	mov    0x157c7(%rip),%eax        # 21024 <g_2>
    b85d:	0f be c8             	movsbl %al,%ecx
    b860:	8b 05 be 57 01 00    	mov    0x157be(%rip),%eax        # 21024 <g_2>
    b866:	48 63 d0             	movslq %eax,%rdx
    b869:	8b 05 b5 57 01 00    	mov    0x157b5(%rip),%eax        # 21024 <g_2>
    b86f:	89 c7                	mov    %eax,%edi
    b871:	48 8b 85 88 fa ff ff 	mov    -0x578(%rbp),%rax
    b878:	41 89 f0             	mov    %esi,%r8d
    b87b:	48 89 c6             	mov    %rax,%rsi
    b87e:	e8 9b 0e 00 00       	callq  c71e <func_16>
    b883:	4c 89 ea             	mov    %r13,%rdx
    b886:	4c 89 e6             	mov    %r12,%rsi
    b889:	48 89 c7             	mov    %rax,%rdi
    b88c:	e8 1d 08 00 00       	callq  c0ae <func_12>
    b891:	89 c6                	mov    %eax,%esi
    b893:	8b 15 8b 57 01 00    	mov    0x1578b(%rip),%edx        # 21024 <g_2>
    b899:	48 8b 85 90 fa ff ff 	mov    -0x570(%rbp),%rax
    b8a0:	89 10                	mov    %edx,(%rax)
    b8a2:	48 8b 85 90 fa ff ff 	mov    -0x570(%rbp),%rax
    b8a9:	8b 00                	mov    (%rax),%eax
    b8ab:	4c 8b 25 e6 99 01 00 	mov    0x199e6(%rip),%r12        # 25298 <g_980>
    b8b2:	48 8b 95 98 fa ff ff 	mov    -0x568(%rbp),%rdx
    b8b9:	48 89 d1             	mov    %rdx,%rcx
    b8bc:	89 da                	mov    %ebx,%edx
    b8be:	89 c7                	mov    %eax,%edi
    b8c0:	e8 83 07 00 00       	callq  c048 <func_5>
    b8c5:	49 89 04 24          	mov    %rax,(%r12)
    b8c9:	c6 05 fa 59 01 00 00 	movb   $0x0,0x159fa(%rip)        # 212ca <g_435>
    b8d0:	90                   	nop
    b8d1:	0f b6 05 f2 59 01 00 	movzbl 0x159f2(%rip),%eax        # 212ca <g_435>
    b8d8:	3c 0a                	cmp    $0xa,%al
    b8da:	0f 84 e0 06 00 00    	je     bfc0 <func_1+0x80b>
    b8e0:	48 c7 85 80 fa ff ff 	movq   $0x0,-0x580(%rbp)
    b8e7:	00 00 00 00 
    b8eb:	48 8d 85 80 fa ff ff 	lea    -0x580(%rbp),%rax
    b8f2:	48 89 85 e0 fb ff ff 	mov    %rax,-0x420(%rbp)
    b8f9:	48 8d 85 80 fa ff ff 	lea    -0x580(%rbp),%rax
    b900:	48 89 85 e8 fb ff ff 	mov    %rax,-0x418(%rbp)
    b907:	48 8d 85 80 fa ff ff 	lea    -0x580(%rbp),%rax
    b90e:	48 89 85 f0 fb ff ff 	mov    %rax,-0x410(%rbp)
    b915:	48 8d 85 80 fa ff ff 	lea    -0x580(%rbp),%rax
    b91c:	48 89 85 f8 fb ff ff 	mov    %rax,-0x408(%rbp)
    b923:	48 8d 85 80 fa ff ff 	lea    -0x580(%rbp),%rax
    b92a:	48 89 85 00 fc ff ff 	mov    %rax,-0x400(%rbp)
    b931:	48 c7 85 08 fc ff ff 	movq   $0x0,-0x3f8(%rbp)
    b938:	00 00 00 00 
    b93c:	48 c7 85 10 fc ff ff 	movq   $0x0,-0x3f0(%rbp)
    b943:	00 00 00 00 
    b947:	48 c7 85 18 fc ff ff 	movq   $0x0,-0x3e8(%rbp)
    b94e:	00 00 00 00 
    b952:	48 8d 85 80 fa ff ff 	lea    -0x580(%rbp),%rax
    b959:	48 89 85 20 fc ff ff 	mov    %rax,-0x3e0(%rbp)
    b960:	48 8d 85 80 fa ff ff 	lea    -0x580(%rbp),%rax
    b967:	48 89 85 28 fc ff ff 	mov    %rax,-0x3d8(%rbp)
    b96e:	48 8d 85 80 fa ff ff 	lea    -0x580(%rbp),%rax
    b975:	48 89 85 30 fc ff ff 	mov    %rax,-0x3d0(%rbp)
    b97c:	48 8d 85 80 fa ff ff 	lea    -0x580(%rbp),%rax
    b983:	48 89 85 38 fc ff ff 	mov    %rax,-0x3c8(%rbp)
    b98a:	48 c7 85 40 fc ff ff 	movq   $0x0,-0x3c0(%rbp)
    b991:	00 00 00 00 
    b995:	48 8d 85 80 fa ff ff 	lea    -0x580(%rbp),%rax
    b99c:	48 89 85 48 fc ff ff 	mov    %rax,-0x3b8(%rbp)
    b9a3:	48 c7 85 50 fc ff ff 	movq   $0x0,-0x3b0(%rbp)
    b9aa:	00 00 00 00 
    b9ae:	48 8d 85 80 fa ff ff 	lea    -0x580(%rbp),%rax
    b9b5:	48 89 85 58 fc ff ff 	mov    %rax,-0x3a8(%rbp)
    b9bc:	48 c7 85 60 fc ff ff 	movq   $0x0,-0x3a0(%rbp)
    b9c3:	00 00 00 00 
    b9c7:	48 8d 85 80 fa ff ff 	lea    -0x580(%rbp),%rax
    b9ce:	48 89 85 68 fc ff ff 	mov    %rax,-0x398(%rbp)
    b9d5:	48 8d 85 80 fa ff ff 	lea    -0x580(%rbp),%rax
    b9dc:	48 89 85 70 fc ff ff 	mov    %rax,-0x390(%rbp)
    b9e3:	48 8d 85 80 fa ff ff 	lea    -0x580(%rbp),%rax
    b9ea:	48 89 85 78 fc ff ff 	mov    %rax,-0x388(%rbp)
    b9f1:	48 8d 85 80 fa ff ff 	lea    -0x580(%rbp),%rax
    b9f8:	48 89 85 80 fc ff ff 	mov    %rax,-0x380(%rbp)
    b9ff:	48 8d 85 80 fa ff ff 	lea    -0x580(%rbp),%rax
    ba06:	48 89 85 88 fc ff ff 	mov    %rax,-0x378(%rbp)
    ba0d:	48 c7 85 90 fc ff ff 	movq   $0x0,-0x370(%rbp)
    ba14:	00 00 00 00 
    ba18:	48 c7 85 98 fc ff ff 	movq   $0x0,-0x368(%rbp)
    ba1f:	00 00 00 00 
    ba23:	48 8d 85 80 fa ff ff 	lea    -0x580(%rbp),%rax
    ba2a:	48 89 85 a0 fc ff ff 	mov    %rax,-0x360(%rbp)
    ba31:	48 c7 85 a8 fc ff ff 	movq   $0x0,-0x358(%rbp)
    ba38:	00 00 00 00 
    ba3c:	48 8d 85 80 fa ff ff 	lea    -0x580(%rbp),%rax
    ba43:	48 89 85 b0 fc ff ff 	mov    %rax,-0x350(%rbp)
    ba4a:	48 8d 85 80 fa ff ff 	lea    -0x580(%rbp),%rax
    ba51:	48 89 85 b8 fc ff ff 	mov    %rax,-0x348(%rbp)
    ba58:	48 8d 85 80 fa ff ff 	lea    -0x580(%rbp),%rax
    ba5f:	48 89 85 c0 fc ff ff 	mov    %rax,-0x340(%rbp)
    ba66:	48 c7 85 c8 fc ff ff 	movq   $0x0,-0x338(%rbp)
    ba6d:	00 00 00 00 
    ba71:	48 c7 85 d0 fc ff ff 	movq   $0x0,-0x330(%rbp)
    ba78:	00 00 00 00 
    ba7c:	48 c7 85 d8 fc ff ff 	movq   $0x0,-0x328(%rbp)
    ba83:	00 00 00 00 
    ba87:	48 8d 85 80 fa ff ff 	lea    -0x580(%rbp),%rax
    ba8e:	48 89 85 e0 fc ff ff 	mov    %rax,-0x320(%rbp)
    ba95:	48 8d 85 80 fa ff ff 	lea    -0x580(%rbp),%rax
    ba9c:	48 89 85 e8 fc ff ff 	mov    %rax,-0x318(%rbp)
    baa3:	48 c7 85 f0 fc ff ff 	movq   $0x0,-0x310(%rbp)
    baaa:	00 00 00 00 
    baae:	48 8d 85 80 fa ff ff 	lea    -0x580(%rbp),%rax
    bab5:	48 89 85 f8 fc ff ff 	mov    %rax,-0x308(%rbp)
    babc:	48 8d 85 80 fa ff ff 	lea    -0x580(%rbp),%rax
    bac3:	48 89 85 00 fd ff ff 	mov    %rax,-0x300(%rbp)
    baca:	48 8d 85 80 fa ff ff 	lea    -0x580(%rbp),%rax
    bad1:	48 89 85 08 fd ff ff 	mov    %rax,-0x2f8(%rbp)
    bad8:	48 8d 85 80 fa ff ff 	lea    -0x580(%rbp),%rax
    badf:	48 89 85 10 fd ff ff 	mov    %rax,-0x2f0(%rbp)
    bae6:	48 8d 85 80 fa ff ff 	lea    -0x580(%rbp),%rax
    baed:	48 89 85 18 fd ff ff 	mov    %rax,-0x2e8(%rbp)
    baf4:	48 8d 85 80 fa ff ff 	lea    -0x580(%rbp),%rax
    bafb:	48 89 85 20 fd ff ff 	mov    %rax,-0x2e0(%rbp)
    bb02:	48 8d 85 80 fa ff ff 	lea    -0x580(%rbp),%rax
    bb09:	48 89 85 28 fd ff ff 	mov    %rax,-0x2d8(%rbp)
    bb10:	48 8d 85 80 fa ff ff 	lea    -0x580(%rbp),%rax
    bb17:	48 89 85 30 fd ff ff 	mov    %rax,-0x2d0(%rbp)
    bb1e:	48 8d 85 80 fa ff ff 	lea    -0x580(%rbp),%rax
    bb25:	48 89 85 38 fd ff ff 	mov    %rax,-0x2c8(%rbp)
    bb2c:	48 8d 85 80 fa ff ff 	lea    -0x580(%rbp),%rax
    bb33:	48 89 85 40 fd ff ff 	mov    %rax,-0x2c0(%rbp)
    bb3a:	48 8d 85 80 fa ff ff 	lea    -0x580(%rbp),%rax
    bb41:	48 89 85 48 fd ff ff 	mov    %rax,-0x2b8(%rbp)
    bb48:	48 8d 85 80 fa ff ff 	lea    -0x580(%rbp),%rax
    bb4f:	48 89 85 50 fd ff ff 	mov    %rax,-0x2b0(%rbp)
    bb56:	48 8d 85 80 fa ff ff 	lea    -0x580(%rbp),%rax
    bb5d:	48 89 85 58 fd ff ff 	mov    %rax,-0x2a8(%rbp)
    bb64:	48 c7 85 60 fd ff ff 	movq   $0x0,-0x2a0(%rbp)
    bb6b:	00 00 00 00 
    bb6f:	48 8d 85 80 fa ff ff 	lea    -0x580(%rbp),%rax
    bb76:	48 89 85 68 fd ff ff 	mov    %rax,-0x298(%rbp)
    bb7d:	48 c7 85 70 fd ff ff 	movq   $0x0,-0x290(%rbp)
    bb84:	00 00 00 00 
    bb88:	48 8d 85 80 fa ff ff 	lea    -0x580(%rbp),%rax
    bb8f:	48 89 85 78 fd ff ff 	mov    %rax,-0x288(%rbp)
    bb96:	48 c7 85 80 fd ff ff 	movq   $0x0,-0x280(%rbp)
    bb9d:	00 00 00 00 
    bba1:	48 8d 85 80 fa ff ff 	lea    -0x580(%rbp),%rax
    bba8:	48 89 85 88 fd ff ff 	mov    %rax,-0x278(%rbp)
    bbaf:	48 c7 85 90 fd ff ff 	movq   $0x0,-0x270(%rbp)
    bbb6:	00 00 00 00 
    bbba:	48 8d 85 80 fa ff ff 	lea    -0x580(%rbp),%rax
    bbc1:	48 89 85 98 fd ff ff 	mov    %rax,-0x268(%rbp)
    bbc8:	48 8d 85 80 fa ff ff 	lea    -0x580(%rbp),%rax
    bbcf:	48 89 85 a0 fd ff ff 	mov    %rax,-0x260(%rbp)
    bbd6:	48 8d 85 80 fa ff ff 	lea    -0x580(%rbp),%rax
    bbdd:	48 89 85 a8 fd ff ff 	mov    %rax,-0x258(%rbp)
    bbe4:	48 8d 85 80 fa ff ff 	lea    -0x580(%rbp),%rax
    bbeb:	48 89 85 b0 fd ff ff 	mov    %rax,-0x250(%rbp)
    bbf2:	48 8d 85 80 fa ff ff 	lea    -0x580(%rbp),%rax
    bbf9:	48 89 85 b8 fd ff ff 	mov    %rax,-0x248(%rbp)
    bc00:	48 8d 85 80 fa ff ff 	lea    -0x580(%rbp),%rax
    bc07:	48 89 85 c0 fd ff ff 	mov    %rax,-0x240(%rbp)
    bc0e:	48 8d 85 80 fa ff ff 	lea    -0x580(%rbp),%rax
    bc15:	48 89 85 c8 fd ff ff 	mov    %rax,-0x238(%rbp)
    bc1c:	48 c7 85 d0 fd ff ff 	movq   $0x0,-0x230(%rbp)
    bc23:	00 00 00 00 
    bc27:	48 8d 85 80 fa ff ff 	lea    -0x580(%rbp),%rax
    bc2e:	48 89 85 d8 fd ff ff 	mov    %rax,-0x228(%rbp)
    bc35:	48 8d 85 80 fa ff ff 	lea    -0x580(%rbp),%rax
    bc3c:	48 89 85 e0 fd ff ff 	mov    %rax,-0x220(%rbp)
    bc43:	48 8d 85 80 fa ff ff 	lea    -0x580(%rbp),%rax
    bc4a:	48 89 85 e8 fd ff ff 	mov    %rax,-0x218(%rbp)
    bc51:	48 8d 85 80 fa ff ff 	lea    -0x580(%rbp),%rax
    bc58:	48 89 85 f0 fd ff ff 	mov    %rax,-0x210(%rbp)
    bc5f:	48 8d 85 80 fa ff ff 	lea    -0x580(%rbp),%rax
    bc66:	48 89 85 f8 fd ff ff 	mov    %rax,-0x208(%rbp)
    bc6d:	48 8d 85 80 fa ff ff 	lea    -0x580(%rbp),%rax
    bc74:	48 89 85 00 fe ff ff 	mov    %rax,-0x200(%rbp)
    bc7b:	48 c7 85 08 fe ff ff 	movq   $0x0,-0x1f8(%rbp)
    bc82:	00 00 00 00 
    bc86:	48 c7 85 10 fe ff ff 	movq   $0x0,-0x1f0(%rbp)
    bc8d:	00 00 00 00 
    bc91:	48 8d 85 80 fa ff ff 	lea    -0x580(%rbp),%rax
    bc98:	48 89 85 18 fe ff ff 	mov    %rax,-0x1e8(%rbp)
    bc9f:	48 c7 85 20 fe ff ff 	movq   $0x0,-0x1e0(%rbp)
    bca6:	00 00 00 00 
    bcaa:	48 c7 85 28 fe ff ff 	movq   $0x0,-0x1d8(%rbp)
    bcb1:	00 00 00 00 
    bcb5:	48 8d 85 80 fa ff ff 	lea    -0x580(%rbp),%rax
    bcbc:	48 89 85 30 fe ff ff 	mov    %rax,-0x1d0(%rbp)
    bcc3:	48 c7 85 38 fe ff ff 	movq   $0x0,-0x1c8(%rbp)
    bcca:	00 00 00 00 
    bcce:	48 c7 85 40 fe ff ff 	movq   $0x0,-0x1c0(%rbp)
    bcd5:	00 00 00 00 
    bcd9:	48 8d 85 80 fa ff ff 	lea    -0x580(%rbp),%rax
    bce0:	48 89 85 48 fe ff ff 	mov    %rax,-0x1b8(%rbp)
    bce7:	48 8d 85 80 fa ff ff 	lea    -0x580(%rbp),%rax
    bcee:	48 89 85 50 fe ff ff 	mov    %rax,-0x1b0(%rbp)
    bcf5:	48 8d 85 80 fa ff ff 	lea    -0x580(%rbp),%rax
    bcfc:	48 89 85 58 fe ff ff 	mov    %rax,-0x1a8(%rbp)
    bd03:	48 c7 85 60 fe ff ff 	movq   $0x0,-0x1a0(%rbp)
    bd0a:	00 00 00 00 
    bd0e:	48 c7 85 68 fe ff ff 	movq   $0x0,-0x198(%rbp)
    bd15:	00 00 00 00 
    bd19:	48 8d 85 80 fa ff ff 	lea    -0x580(%rbp),%rax
    bd20:	48 89 85 70 fe ff ff 	mov    %rax,-0x190(%rbp)
    bd27:	48 8d 85 80 fa ff ff 	lea    -0x580(%rbp),%rax
    bd2e:	48 89 85 78 fe ff ff 	mov    %rax,-0x188(%rbp)
    bd35:	48 c7 85 80 fe ff ff 	movq   $0x0,-0x180(%rbp)
    bd3c:	00 00 00 00 
    bd40:	48 8d 85 80 fa ff ff 	lea    -0x580(%rbp),%rax
    bd47:	48 89 85 88 fe ff ff 	mov    %rax,-0x178(%rbp)
    bd4e:	48 c7 85 90 fe ff ff 	movq   $0x0,-0x170(%rbp)
    bd55:	00 00 00 00 
    bd59:	48 8d 85 80 fa ff ff 	lea    -0x580(%rbp),%rax
    bd60:	48 89 85 98 fe ff ff 	mov    %rax,-0x168(%rbp)
    bd67:	48 c7 85 a0 fe ff ff 	movq   $0x0,-0x160(%rbp)
    bd6e:	00 00 00 00 
    bd72:	48 8d 85 80 fa ff ff 	lea    -0x580(%rbp),%rax
    bd79:	48 89 85 a8 fe ff ff 	mov    %rax,-0x158(%rbp)
    bd80:	48 8d 85 80 fa ff ff 	lea    -0x580(%rbp),%rax
    bd87:	48 89 85 b0 fe ff ff 	mov    %rax,-0x150(%rbp)
    bd8e:	48 8d 85 80 fa ff ff 	lea    -0x580(%rbp),%rax
    bd95:	48 89 85 b8 fe ff ff 	mov    %rax,-0x148(%rbp)
    bd9c:	48 8d 85 80 fa ff ff 	lea    -0x580(%rbp),%rax
    bda3:	48 89 85 c0 fe ff ff 	mov    %rax,-0x140(%rbp)
    bdaa:	48 8d 85 80 fa ff ff 	lea    -0x580(%rbp),%rax
    bdb1:	48 89 85 c8 fe ff ff 	mov    %rax,-0x138(%rbp)
    bdb8:	48 8d 85 80 fa ff ff 	lea    -0x580(%rbp),%rax
    bdbf:	48 89 85 d0 fe ff ff 	mov    %rax,-0x130(%rbp)
    bdc6:	48 8d 85 80 fa ff ff 	lea    -0x580(%rbp),%rax
    bdcd:	48 89 85 d8 fe ff ff 	mov    %rax,-0x128(%rbp)
    bdd4:	48 8d 85 80 fa ff ff 	lea    -0x580(%rbp),%rax
    bddb:	48 89 85 e0 fe ff ff 	mov    %rax,-0x120(%rbp)
    bde2:	48 8d 85 80 fa ff ff 	lea    -0x580(%rbp),%rax
    bde9:	48 89 85 e8 fe ff ff 	mov    %rax,-0x118(%rbp)
    bdf0:	48 8d 85 80 fa ff ff 	lea    -0x580(%rbp),%rax
    bdf7:	48 89 85 f0 fe ff ff 	mov    %rax,-0x110(%rbp)
    bdfe:	48 8d 85 80 fa ff ff 	lea    -0x580(%rbp),%rax
    be05:	48 89 85 f8 fe ff ff 	mov    %rax,-0x108(%rbp)
    be0c:	48 8d 85 80 fa ff ff 	lea    -0x580(%rbp),%rax
    be13:	48 89 85 00 ff ff ff 	mov    %rax,-0x100(%rbp)
    be1a:	48 8d 85 80 fa ff ff 	lea    -0x580(%rbp),%rax
    be21:	48 89 85 08 ff ff ff 	mov    %rax,-0xf8(%rbp)
    be28:	48 8d 85 80 fa ff ff 	lea    -0x580(%rbp),%rax
    be2f:	48 89 85 10 ff ff ff 	mov    %rax,-0xf0(%rbp)
    be36:	48 c7 85 18 ff ff ff 	movq   $0x0,-0xe8(%rbp)
    be3d:	00 00 00 00 
    be41:	48 c7 85 20 ff ff ff 	movq   $0x0,-0xe0(%rbp)
    be48:	00 00 00 00 
    be4c:	48 c7 85 28 ff ff ff 	movq   $0x0,-0xd8(%rbp)
    be53:	00 00 00 00 
    be57:	48 8d 85 80 fa ff ff 	lea    -0x580(%rbp),%rax
    be5e:	48 89 85 30 ff ff ff 	mov    %rax,-0xd0(%rbp)
    be65:	48 8d 85 80 fa ff ff 	lea    -0x580(%rbp),%rax
    be6c:	48 89 85 38 ff ff ff 	mov    %rax,-0xc8(%rbp)
    be73:	48 8d 85 80 fa ff ff 	lea    -0x580(%rbp),%rax
    be7a:	48 89 85 40 ff ff ff 	mov    %rax,-0xc0(%rbp)
    be81:	48 c7 85 48 ff ff ff 	movq   $0x0,-0xb8(%rbp)
    be88:	00 00 00 00 
    be8c:	48 8d 85 80 fa ff ff 	lea    -0x580(%rbp),%rax
    be93:	48 89 85 50 ff ff ff 	mov    %rax,-0xb0(%rbp)
    be9a:	48 8d 85 80 fa ff ff 	lea    -0x580(%rbp),%rax
    bea1:	48 89 85 58 ff ff ff 	mov    %rax,-0xa8(%rbp)
    bea8:	48 8d 85 80 fa ff ff 	lea    -0x580(%rbp),%rax
    beaf:	48 89 85 60 ff ff ff 	mov    %rax,-0xa0(%rbp)
    beb6:	48 8d 85 80 fa ff ff 	lea    -0x580(%rbp),%rax
    bebd:	48 89 85 68 ff ff ff 	mov    %rax,-0x98(%rbp)
    bec4:	48 8d 85 80 fa ff ff 	lea    -0x580(%rbp),%rax
    becb:	48 89 85 70 ff ff ff 	mov    %rax,-0x90(%rbp)
    bed2:	48 8d 85 80 fa ff ff 	lea    -0x580(%rbp),%rax
    bed9:	48 89 85 78 ff ff ff 	mov    %rax,-0x88(%rbp)
    bee0:	48 c7 45 80 00 00 00 	movq   $0x0,-0x80(%rbp)
    bee7:	00 
    bee8:	48 c7 45 88 00 00 00 	movq   $0x0,-0x78(%rbp)
    beef:	00 
    bef0:	48 8d 85 80 fa ff ff 	lea    -0x580(%rbp),%rax
    bef7:	48 89 45 90          	mov    %rax,-0x70(%rbp)
    befb:	48 8d 85 80 fa ff ff 	lea    -0x580(%rbp),%rax
    bf02:	48 89 45 98          	mov    %rax,-0x68(%rbp)
    bf06:	48 8d 85 80 fa ff ff 	lea    -0x580(%rbp),%rax
    bf0d:	48 89 45 a0          	mov    %rax,-0x60(%rbp)
    bf11:	48 8d 85 80 fa ff ff 	lea    -0x580(%rbp),%rax
    bf18:	48 89 45 a8          	mov    %rax,-0x58(%rbp)
    bf1c:	48 8d 85 80 fa ff ff 	lea    -0x580(%rbp),%rax
    bf23:	48 89 45 b0          	mov    %rax,-0x50(%rbp)
    bf27:	48 8d 85 80 fa ff ff 	lea    -0x580(%rbp),%rax
    bf2e:	48 89 45 b8          	mov    %rax,-0x48(%rbp)
    bf32:	48 8d 85 80 fa ff ff 	lea    -0x580(%rbp),%rax
    bf39:	48 89 45 c0          	mov    %rax,-0x40(%rbp)
    bf3d:	48 8d 85 80 fa ff ff 	lea    -0x580(%rbp),%rax
    bf44:	48 89 45 c8          	mov    %rax,-0x38(%rbp)
    bf48:	48 c7 05 45 9e 01 00 	movq   $0x0,0x19e45(%rip)        # 25d98 <g_2483>
    bf4f:	00 00 00 00 
    bf53:	66 c7 05 78 54 01 00 	movw   $0x0,0x15478(%rip)        # 213d4 <g_919>
    bf5a:	00 00 
    bf5c:	eb 2e                	jmp    bf8c <func_1+0x7d7>
    bf5e:	48 8b 05 2b 93 01 00 	mov    0x1932b(%rip),%rax        # 25290 <g_802>
    bf65:	48 8b 00             	mov    (%rax),%rax
    bf68:	48 8b 00             	mov    (%rax),%rax
    bf6b:	8b 00                	mov    (%rax),%eax
    bf6d:	85 c0                	test   %eax,%eax
    bf6f:	75 2a                	jne    bf9b <func_1+0x7e6>
    bf71:	0f b7 05 5c 54 01 00 	movzwl 0x1545c(%rip),%eax        # 213d4 <g_919>
    bf78:	98                   	cwtl   
    bf79:	be 04 00 00 00       	mov    $0x4,%esi
    bf7e:	89 c7                	mov    %eax,%edi
    bf80:	e8 4b ef ff ff       	callq  aed0 <safe_sub_func_uint32_t_u_u>
    bf85:	66 89 05 48 54 01 00 	mov    %ax,0x15448(%rip)        # 213d4 <g_919>
    bf8c:	0f b7 05 41 54 01 00 	movzwl 0x15441(%rip),%eax        # 213d4 <g_919>
    bf93:	66 83 f8 f0          	cmp    $0xfff0,%ax
    bf97:	75 c5                	jne    bf5e <func_1+0x7a9>
    bf99:	eb 01                	jmp    bf9c <func_1+0x7e7>
    bf9b:	90                   	nop
    bf9c:	48 8b 35 85 9b 01 00 	mov    0x19b85(%rip),%rsi        # 25b28 <g_1789>
    bfa3:	48 8b 8d 78 fa ff ff 	mov    -0x588(%rbp),%rcx
    bfaa:	48 8b 06             	mov    (%rsi),%rax
    bfad:	48 8b 56 08          	mov    0x8(%rsi),%rdx
    bfb1:	48 89 01             	mov    %rax,(%rcx)
    bfb4:	48 89 51 08          	mov    %rdx,0x8(%rcx)
    bfb8:	8b 46 10             	mov    0x10(%rsi),%eax
    bfbb:	89 41 10             	mov    %eax,0x10(%rcx)
    bfbe:	eb 5f                	jmp    c01f <func_1+0x86a>
    bfc0:	8b 85 a8 fb ff ff    	mov    -0x458(%rbp),%eax
    bfc6:	85 c0                	test   %eax,%eax
    bfc8:	75 2c                	jne    bff6 <func_1+0x841>
    bfca:	8b 05 54 50 01 00    	mov    0x15054(%rip),%eax        # 21024 <g_2>
    bfd0:	48 98                	cltq   
    bfd2:	be 04 00 00 00       	mov    $0x4,%esi
    bfd7:	48 89 c7             	mov    %rax,%rdi
    bfda:	e8 4f f0 ff ff       	callq  b02e <safe_add_func_uint64_t_u_u>
    bfdf:	89 05 3f 50 01 00    	mov    %eax,0x1503f(%rip)        # 21024 <g_2>
    bfe5:	8b 05 39 50 01 00    	mov    0x15039(%rip),%eax        # 21024 <g_2>
    bfeb:	83 f8 16             	cmp    $0x16,%eax
    bfee:	0f 8e 21 f8 ff ff    	jle    b815 <func_1+0x60>
    bff4:	eb 01                	jmp    bff7 <func_1+0x842>
    bff6:	90                   	nop
    bff7:	48 8b 05 a2 92 01 00 	mov    0x192a2(%rip),%rax        # 252a0 <g_979>
    bffe:	48 8b 00             	mov    (%rax),%rax
    c001:	48 8b 30             	mov    (%rax),%rsi
    c004:	48 8b 8d 78 fa ff ff 	mov    -0x588(%rbp),%rcx
    c00b:	48 8b 06             	mov    (%rsi),%rax
    c00e:	48 8b 56 08          	mov    0x8(%rsi),%rdx
    c012:	48 89 01             	mov    %rax,(%rcx)
    c015:	48 89 51 08          	mov    %rdx,0x8(%rcx)
    c019:	8b 46 10             	mov    0x10(%rsi),%eax
    c01c:	89 41 10             	mov    %eax,0x10(%rcx)
    c01f:	48 8b 45 d8          	mov    -0x28(%rbp),%rax
    c023:	64 48 33 04 25 28 00 	xor    %fs:0x28,%rax
    c02a:	00 00 
    c02c:	74 05                	je     c033 <func_1+0x87e>
    c02e:	e8 3d e0 ff ff       	callq  a070 <__stack_chk_fail@plt>
    c033:	48 8b 85 78 fa ff ff 	mov    -0x588(%rbp),%rax
    c03a:	48 81 c4 78 05 00 00 	add    $0x578,%rsp
    c041:	5b                   	pop    %rbx
    c042:	41 5c                	pop    %r12
    c044:	41 5d                	pop    %r13
    c046:	5d                   	pop    %rbp
    c047:	c3                   	retq   

000000000000c048 <func_5>:
    c048:	f3 0f 1e fa          	endbr64 
    c04c:	55                   	push   %rbp
    c04d:	48 89 e5             	mov    %rsp,%rbp
    c050:	48 83 ec 70          	sub    $0x70,%rsp
    c054:	89 7d ac             	mov    %edi,-0x54(%rbp)
    c057:	89 75 a8             	mov    %esi,-0x58(%rbp)
    c05a:	89 55 a4             	mov    %edx,-0x5c(%rbp)
    c05d:	48 89 4d 98          	mov    %rcx,-0x68(%rbp)
    c061:	64 48 8b 04 25 28 00 	mov    %fs:0x28,%rax
    c068:	00 00 
    c06a:	48 89 45 f8          	mov    %rax,-0x8(%rbp)
    c06e:	31 c0                	xor    %eax,%eax
    c070:	c7 45 bc 00 00 00 00 	movl   $0x0,-0x44(%rbp)
    c077:	eb 15                	jmp    c08e <func_5+0x46>
    c079:	8b 45 bc             	mov    -0x44(%rbp),%eax
    c07c:	48 98                	cltq   
    c07e:	48 8d 15 3b 61 01 00 	lea    0x1613b(%rip),%rdx        # 221c0 <g_2477>
    c085:	48 89 54 c5 c0       	mov    %rdx,-0x40(%rbp,%rax,8)
    c08a:	83 45 bc 01          	addl   $0x1,-0x44(%rbp)
    c08e:	83 7d bc 06          	cmpl   $0x6,-0x44(%rbp)
    c092:	7e e5                	jle    c079 <func_5+0x31>
    c094:	48 8b 45 d8          	mov    -0x28(%rbp),%rax
    c098:	48 8b 4d f8          	mov    -0x8(%rbp),%rcx
    c09c:	64 48 33 0c 25 28 00 	xor    %fs:0x28,%rcx
    c0a3:	00 00 
    c0a5:	74 05                	je     c0ac <func_5+0x64>
    c0a7:	e8 c4 df ff ff       	callq  a070 <__stack_chk_fail@plt>
    c0ac:	c9                   	leaveq 
    c0ad:	c3                   	retq   

000000000000c0ae <func_12>:
    c0ae:	f3 0f 1e fa          	endbr64 
    c0b2:	55                   	push   %rbp
    c0b3:	48 89 e5             	mov    %rsp,%rbp
    c0b6:	48 81 ec 20 09 00 00 	sub    $0x920,%rsp
    c0bd:	48 89 bd f8 f6 ff ff 	mov    %rdi,-0x908(%rbp)
    c0c4:	48 89 b5 f0 f6 ff ff 	mov    %rsi,-0x910(%rbp)
    c0cb:	48 89 95 e8 f6 ff ff 	mov    %rdx,-0x918(%rbp)
    c0d2:	64 48 8b 04 25 28 00 	mov    %fs:0x28,%rax
    c0d9:	00 00 
    c0db:	48 89 45 f8          	mov    %rax,-0x8(%rbp)
    c0df:	31 c0                	xor    %eax,%eax
    c0e1:	66 c7 85 02 f7 ff ff 	movw   $0x4f70,-0x8fe(%rbp)
    c0e8:	70 4f 
    c0ea:	c7 85 24 f7 ff ff f8 	movl   $0xfffffff8,-0x8dc(%rbp)
    c0f1:	ff ff ff 
    c0f4:	66 c7 85 04 f7 ff ff 	movw   $0x1,-0x8fc(%rbp)
    c0fb:	01 00 
    c0fd:	48 8d 05 ac 52 01 00 	lea    0x152ac(%rip),%rax        # 213b0 <g_742>
    c104:	48 89 85 90 f7 ff ff 	mov    %rax,-0x870(%rbp)
    c10b:	48 8d 05 12 54 01 00 	lea    0x15412(%rip),%rax        # 21524 <g_1527>
    c112:	48 89 85 98 f7 ff ff 	mov    %rax,-0x868(%rbp)
    c119:	48 c7 85 a0 f7 ff ff 	movq   $0x0,-0x860(%rbp)
    c120:	00 00 00 00 
    c124:	48 8d 05 a5 a0 01 00 	lea    0x1a0a5(%rip),%rax        # 261d0 <g_283>
    c12b:	48 89 85 a8 f7 ff ff 	mov    %rax,-0x858(%rbp)
    c132:	66 c7 85 14 f8 ff ff 	movw   $0xf40e,-0x7ec(%rbp)
    c139:	0e f4 
    c13b:	66 c7 85 16 f8 ff ff 	movw   $0x4679,-0x7ea(%rbp)
    c142:	79 46 
    c144:	66 c7 85 18 f8 ff ff 	movw   $0x4679,-0x7e8(%rbp)
    c14b:	79 46 
    c14d:	66 c7 85 1a f8 ff ff 	movw   $0xf40e,-0x7e6(%rbp)
    c154:	0e f4 
    c156:	66 c7 85 1c f8 ff ff 	movw   $0x4679,-0x7e4(%rbp)
    c15d:	79 46 
    c15f:	66 c7 85 1e f8 ff ff 	movw   $0x2f9,-0x7e2(%rbp)
    c166:	f9 02 
    c168:	c7 85 28 f7 ff ff ed 	movl   $0x1def15ed,-0x8d8(%rbp)
    c16f:	15 ef 1d 
    c172:	c7 85 2c f7 ff ff 6a 	movl   $0x1c6cb56a,-0x8d4(%rbp)
    c179:	b5 6c 1c 
    c17c:	c7 85 30 f7 ff ff 66 	movl   $0x94dd0766,-0x8d0(%rbp)
    c183:	07 dd 94 
    c186:	c7 85 34 f7 ff ff b9 	movl   $0xa5ecb2b9,-0x8cc(%rbp)
    c18d:	b2 ec a5 
    c190:	48 c7 85 b0 f7 ff ff 	movq   $0x0,-0x850(%rbp)
    c197:	00 00 00 00 
    c19b:	48 b8 22 b5 01 b5 22 	movabs $0x1b52222b501b522,%rax
    c1a2:	22 b5 01 
    c1a5:	48 89 85 20 f9 ff ff 	mov    %rax,-0x6e0(%rbp)
    c1ac:	66 c7 85 28 f9 ff ff 	movw   $0x22b5,-0x6d8(%rbp)
    c1b3:	b5 22 
    c1b5:	48 89 85 2a f9 ff ff 	mov    %rax,-0x6d6(%rbp)
    c1bc:	66 c7 85 32 f9 ff ff 	movw   $0x22b5,-0x6ce(%rbp)
    c1c3:	b5 22 
    c1c5:	48 89 85 34 f9 ff ff 	mov    %rax,-0x6cc(%rbp)
    c1cc:	66 c7 85 3c f9 ff ff 	movw   $0x22b5,-0x6c4(%rbp)
    c1d3:	b5 22 
    c1d5:	48 89 85 3e f9 ff ff 	mov    %rax,-0x6c2(%rbp)
    c1dc:	66 c7 85 46 f9 ff ff 	movw   $0x22b5,-0x6ba(%rbp)
    c1e3:	b5 22 
    c1e5:	48 89 85 48 f9 ff ff 	mov    %rax,-0x6b8(%rbp)
    c1ec:	66 c7 85 50 f9 ff ff 	movw   $0x22b5,-0x6b0(%rbp)
    c1f3:	b5 22 
    c1f5:	48 89 85 52 f9 ff ff 	mov    %rax,-0x6ae(%rbp)
    c1fc:	66 c7 85 5a f9 ff ff 	movw   $0x22b5,-0x6a6(%rbp)
    c203:	b5 22 
    c205:	48 89 85 5c f9 ff ff 	mov    %rax,-0x6a4(%rbp)
    c20c:	66 c7 85 64 f9 ff ff 	movw   $0x22b5,-0x69c(%rbp)
    c213:	b5 22 
    c215:	48 89 85 66 f9 ff ff 	mov    %rax,-0x69a(%rbp)
    c21c:	66 c7 85 6e f9 ff ff 	movw   $0x22b5,-0x692(%rbp)
    c223:	b5 22 
    c225:	48 89 85 70 f9 ff ff 	mov    %rax,-0x690(%rbp)
    c22c:	66 c7 85 78 f9 ff ff 	movw   $0x22b5,-0x688(%rbp)
    c233:	b5 22 
    c235:	48 89 85 7a f9 ff ff 	mov    %rax,-0x686(%rbp)
    c23c:	66 c7 85 82 f9 ff ff 	movw   $0x22b5,-0x67e(%rbp)
    c243:	b5 22 
    c245:	48 89 85 84 f9 ff ff 	mov    %rax,-0x67c(%rbp)
    c24c:	66 c7 85 8c f9 ff ff 	movw   $0x22b5,-0x674(%rbp)
    c253:	b5 22 
    c255:	48 89 85 8e f9 ff ff 	mov    %rax,-0x672(%rbp)
    c25c:	66 c7 85 96 f9 ff ff 	movw   $0x22b5,-0x66a(%rbp)
    c263:	b5 22 
    c265:	48 89 85 98 f9 ff ff 	mov    %rax,-0x668(%rbp)
    c26c:	66 c7 85 a0 f9 ff ff 	movw   $0x22b5,-0x660(%rbp)
    c273:	b5 22 
    c275:	48 89 85 a2 f9 ff ff 	mov    %rax,-0x65e(%rbp)
    c27c:	66 c7 85 aa f9 ff ff 	movw   $0x22b5,-0x656(%rbp)
    c283:	b5 22 
    c285:	48 89 85 ac f9 ff ff 	mov    %rax,-0x654(%rbp)
    c28c:	66 c7 85 b4 f9 ff ff 	movw   $0x22b5,-0x64c(%rbp)
    c293:	b5 22 
    c295:	48 89 85 b6 f9 ff ff 	mov    %rax,-0x64a(%rbp)
    c29c:	66 c7 85 be f9 ff ff 	movw   $0x22b5,-0x642(%rbp)
    c2a3:	b5 22 
    c2a5:	48 8d 05 e4 90 01 00 	lea    0x190e4(%rip),%rax        # 25390 <g_1655>
    c2ac:	48 89 85 70 f7 ff ff 	mov    %rax,-0x890(%rbp)
    c2b3:	48 8d 85 70 f7 ff ff 	lea    -0x890(%rbp),%rax
    c2ba:	48 89 85 b8 f7 ff ff 	mov    %rax,-0x848(%rbp)
    c2c1:	48 8d 85 a0 fc ff ff 	lea    -0x360(%rbp),%rax
    c2c8:	48 8d 15 11 e2 00 00 	lea    0xe211(%rip),%rdx        # 1a4e0 <g_2454+0x168>
    c2cf:	b9 69 00 00 00       	mov    $0x69,%ecx
    c2d4:	48 89 c7             	mov    %rax,%rdi
    c2d7:	48 89 d6             	mov    %rdx,%rsi
    c2da:	f3 48 a5             	rep movsq %ds:(%rsi),%es:(%rdi)
    c2dd:	c7 85 38 f7 ff ff 05 	movl   $0x5,-0x8c8(%rbp)
    c2e4:	00 00 00 
    c2e7:	c7 85 3c f7 ff ff 07 	movl   $0x7,-0x8c4(%rbp)
    c2ee:	00 00 00 
    c2f1:	c7 85 40 f7 ff ff 00 	movl   $0x0,-0x8c0(%rbp)
    c2f8:	00 00 00 
    c2fb:	48 8d 85 e0 fa ff ff 	lea    -0x520(%rbp),%rax
    c302:	48 8d 15 37 e5 00 00 	lea    0xe537(%rip),%rdx        # 1a840 <g_2454+0x4c8>
    c309:	b9 38 00 00 00       	mov    $0x38,%ecx
    c30e:	48 89 c7             	mov    %rax,%rdi
    c311:	48 89 d6             	mov    %rdx,%rsi
    c314:	f3 48 a5             	rep movsq %ds:(%rsi),%es:(%rdi)
    c317:	48 c7 85 78 f7 ff ff 	movq   $0x0,-0x888(%rbp)
    c31e:	00 00 00 00 
    c322:	48 8d 85 78 f7 ff ff 	lea    -0x888(%rbp),%rax
    c329:	48 89 85 c0 f7 ff ff 	mov    %rax,-0x840(%rbp)
    c330:	66 c7 85 06 f7 ff ff 	movw   $0xffff,-0x8fa(%rbp)
    c337:	ff ff 
    c339:	c7 85 10 f7 ff ff 00 	movl   $0x0,-0x8f0(%rbp)
    c340:	00 00 00 
    c343:	eb 46                	jmp    c38b <func_12+0x2dd>
    c345:	c7 85 14 f7 ff ff 00 	movl   $0x0,-0x8ec(%rbp)
    c34c:	00 00 00 
    c34f:	eb 2a                	jmp    c37b <func_12+0x2cd>
    c351:	8b 85 14 f7 ff ff    	mov    -0x8ec(%rbp),%eax
    c357:	48 98                	cltq   
    c359:	8b 95 10 f7 ff ff    	mov    -0x8f0(%rbp),%edx
    c35f:	48 63 d2             	movslq %edx,%rdx
    c362:	48 c1 e2 02          	shl    $0x2,%rdx
    c366:	48 01 d0             	add    %rdx,%rax
    c369:	c7 84 85 80 f8 ff ff 	movl   $0xc5986fc,-0x780(%rbp,%rax,4)
    c370:	fc 86 59 0c 
    c374:	83 85 14 f7 ff ff 01 	addl   $0x1,-0x8ec(%rbp)
    c37b:	83 bd 14 f7 ff ff 03 	cmpl   $0x3,-0x8ec(%rbp)
    c382:	7e cd                	jle    c351 <func_12+0x2a3>
    c384:	83 85 10 f7 ff ff 01 	addl   $0x1,-0x8f0(%rbp)
    c38b:	83 bd 10 f7 ff ff 02 	cmpl   $0x2,-0x8f0(%rbp)
    c392:	7e b1                	jle    c345 <func_12+0x297>
    c394:	66 83 bd 02 f7 ff ff 	cmpw   $0x0,-0x8fe(%rbp)
    c39b:	00 
    c39c:	74 3b                	je     c3d9 <func_12+0x32b>
    c39e:	48 8b 05 eb 8e 01 00 	mov    0x18eeb(%rip),%rax        # 25290 <g_802>
    c3a5:	48 8b 00             	mov    (%rax),%rax
    c3a8:	48 8b 00             	mov    (%rax),%rax
    c3ab:	8b 10                	mov    (%rax),%edx
    c3ad:	48 8b 05 dc 8e 01 00 	mov    0x18edc(%rip),%rax        # 25290 <g_802>
    c3b4:	48 8b 00             	mov    (%rax),%rax
    c3b7:	48 8b 00             	mov    (%rax),%rax
    c3ba:	f7 d2                	not    %edx
    c3bc:	89 10                	mov    %edx,(%rax)
    c3be:	8b 10                	mov    (%rax),%edx
    c3c0:	48 8b 85 f0 f6 ff ff 	mov    -0x910(%rbp),%rax
    c3c7:	8b 00                	mov    (%rax),%eax
    c3c9:	21 c2                	and    %eax,%edx
    c3cb:	48 8b 85 f0 f6 ff ff 	mov    -0x910(%rbp),%rax
    c3d2:	89 10                	mov    %edx,(%rax)
    c3d4:	e9 f7 02 00 00       	jmpq   c6d0 <func_12+0x622>
    c3d9:	c7 85 20 f8 ff ff c7 	movl   $0xf8dff8c7,-0x7e0(%rbp)
    c3e0:	f8 df f8 
    c3e3:	c7 85 24 f8 ff ff c7 	movl   $0xf8dff8c7,-0x7dc(%rbp)
    c3ea:	f8 df f8 
    c3ed:	c7 85 28 f8 ff ff c7 	movl   $0xf8dff8c7,-0x7d8(%rbp)
    c3f4:	f8 df f8 
    c3f7:	c7 85 2c f8 ff ff c7 	movl   $0xf8dff8c7,-0x7d4(%rbp)
    c3fe:	f8 df f8 
    c401:	c7 85 30 f8 ff ff c7 	movl   $0xf8dff8c7,-0x7d0(%rbp)
    c408:	f8 df f8 
    c40b:	48 8d 05 c2 4f 01 00 	lea    0x14fc2(%rip),%rax        # 213d4 <g_919>
    c412:	48 89 85 c8 f7 ff ff 	mov    %rax,-0x838(%rbp)
    c419:	48 c7 85 d0 f7 ff ff 	movq   $0x0,-0x830(%rbp)
    c420:	00 00 00 00 
    c424:	48 8d 05 a5 9d 01 00 	lea    0x19da5(%rip),%rax        # 261d0 <g_283>
    c42b:	48 89 85 d8 f7 ff ff 	mov    %rax,-0x828(%rbp)
    c432:	c7 85 44 f7 ff ff ff 	movl   $0xffffffff,-0x8bc(%rbp)
    c439:	ff ff ff 
    c43c:	c7 85 48 f7 ff ff 47 	movl   $0x61dd5547,-0x8b8(%rbp)
    c443:	55 dd 61 
    c446:	c6 85 00 f7 ff ff 04 	movb   $0x4,-0x900(%rbp)
    c44d:	c7 85 4c f7 ff ff ff 	movl   $0xffffffff,-0x8b4(%rbp)
    c454:	ff ff ff 
    c457:	48 b8 8f c8 93 c0 8d 	movabs $0x27312b8dc093c88f,%rax
    c45e:	2b 31 27 
    c461:	48 89 85 e0 f7 ff ff 	mov    %rax,-0x820(%rbp)
    c468:	c7 85 50 f7 ff ff 15 	movl   $0x57c9a115,-0x8b0(%rbp)
    c46f:	a1 c9 57 
    c472:	66 c7 85 08 f7 ff ff 	movw   $0x0,-0x8f8(%rbp)
    c479:	00 00 
    c47b:	c7 85 54 f7 ff ff ff 	movl   $0xffffffff,-0x8ac(%rbp)
    c482:	ff ff ff 
    c485:	c7 85 58 f7 ff ff f1 	movl   $0x4da777f1,-0x8a8(%rbp)
    c48c:	77 a7 4d 
    c48f:	66 c7 85 0a f7 ff ff 	movw   $0xe1d1,-0x8f6(%rbp)
    c496:	d1 e1 
    c498:	c7 85 5c f7 ff ff 05 	movl   $0x5,-0x8a4(%rbp)
    c49f:	00 00 00 
    c4a2:	c7 85 60 f7 ff ff 00 	movl   $0x0,-0x8a0(%rbp)
    c4a9:	00 00 00 
    c4ac:	66 c7 85 0c f7 ff ff 	movw   $0x0,-0x8f4(%rbp)
    c4b3:	00 00 
    c4b5:	c7 85 64 f7 ff ff 02 	movl   $0x2,-0x89c(%rbp)
    c4bc:	00 00 00 
    c4bf:	c7 85 68 f7 ff ff ff 	movl   $0xffffffff,-0x898(%rbp)
    c4c6:	ff ff ff 
    c4c9:	48 8d 05 f8 54 01 00 	lea    0x154f8(%rip),%rax        # 219c8 <g_1985>
    c4d0:	48 89 85 e8 f7 ff ff 	mov    %rax,-0x818(%rbp)
    c4d7:	48 8d 85 c0 f9 ff ff 	lea    -0x640(%rbp),%rax
    c4de:	48 8d 15 1b e5 00 00 	lea    0xe51b(%rip),%rdx        # 1aa00 <g_2454+0x688>
    c4e5:	b9 24 00 00 00       	mov    $0x24,%ecx
    c4ea:	48 89 c7             	mov    %rax,%rdi
    c4ed:	48 89 d6             	mov    %rdx,%rsi
    c4f0:	f3 48 a5             	rep movsq %ds:(%rsi),%es:(%rdi)
    c4f3:	c6 85 01 f7 ff ff fb 	movb   $0xfb,-0x8ff(%rbp)
    c4fa:	48 c7 85 f0 f7 ff ff 	movq   $0x0,-0x810(%rbp)
    c501:	00 00 00 00 
    c505:	48 b8 fd e0 bc 15 9b 	movabs $0x38bcb9b15bce0fd,%rax
    c50c:	cb 8b 03 
    c50f:	48 89 85 f8 f7 ff ff 	mov    %rax,-0x808(%rbp)
    c516:	66 c7 85 0e f7 ff ff 	movw   $0x8,-0x8f2(%rbp)
    c51d:	08 00 
    c51f:	c7 85 6c f7 ff ff fd 	movl   $0xfffffffd,-0x894(%rbp)
    c526:	ff ff ff 
    c529:	48 c7 85 80 f7 ff ff 	movq   $0x0,-0x880(%rbp)
    c530:	00 00 00 00 
    c534:	48 8d 85 80 f7 ff ff 	lea    -0x880(%rbp),%rax
    c53b:	48 89 85 40 f8 ff ff 	mov    %rax,-0x7c0(%rbp)
    c542:	48 8d 85 80 f7 ff ff 	lea    -0x880(%rbp),%rax
    c549:	48 89 85 48 f8 ff ff 	mov    %rax,-0x7b8(%rbp)
    c550:	48 8d 85 80 f7 ff ff 	lea    -0x880(%rbp),%rax
    c557:	48 89 85 50 f8 ff ff 	mov    %rax,-0x7b0(%rbp)
    c55e:	48 8d 85 40 f8 ff ff 	lea    -0x7c0(%rbp),%rax
    c565:	48 83 c0 08          	add    $0x8,%rax
    c569:	48 89 85 00 f8 ff ff 	mov    %rax,-0x800(%rbp)
    c570:	48 8d 05 19 8d 01 00 	lea    0x18d19(%rip),%rax        # 25290 <g_802>
    c577:	48 89 85 88 f7 ff ff 	mov    %rax,-0x878(%rbp)
    c57e:	48 8d 85 88 f7 ff ff 	lea    -0x878(%rbp),%rax
    c585:	48 89 85 08 f8 ff ff 	mov    %rax,-0x7f8(%rbp)
    c58c:	c7 85 18 f7 ff ff 00 	movl   $0x0,-0x8e8(%rbp)
    c593:	00 00 00 
    c596:	eb 71                	jmp    c609 <func_12+0x55b>
    c598:	c7 85 1c f7 ff ff 00 	movl   $0x0,-0x8e4(%rbp)
    c59f:	00 00 00 
    c5a2:	eb 55                	jmp    c5f9 <func_12+0x54b>
    c5a4:	c7 85 20 f7 ff ff 00 	movl   $0x0,-0x8e0(%rbp)
    c5ab:	00 00 00 
    c5ae:	eb 39                	jmp    c5e9 <func_12+0x53b>
    c5b0:	8b 85 20 f7 ff ff    	mov    -0x8e0(%rbp),%eax
    c5b6:	48 63 d0             	movslq %eax,%rdx
    c5b9:	8b 85 1c f7 ff ff    	mov    -0x8e4(%rbp),%eax
    c5bf:	48 98                	cltq   
    c5c1:	8b 8d 18 f7 ff ff    	mov    -0x8e8(%rbp),%ecx
    c5c7:	48 63 c9             	movslq %ecx,%rcx
    c5ca:	48 01 c9             	add    %rcx,%rcx
    c5cd:	48 01 ca             	add    %rcx,%rdx
    c5d0:	48 01 d0             	add    %rdx,%rax
    c5d3:	48 8d 15 76 8c 01 00 	lea    0x18c76(%rip),%rdx        # 25250 <g_345+0x30>
    c5da:	48 89 94 c5 b0 f8 ff 	mov    %rdx,-0x750(%rbp,%rax,8)
    c5e1:	ff 
    c5e2:	83 85 20 f7 ff ff 01 	addl   $0x1,-0x8e0(%rbp)
    c5e9:	83 bd 20 f7 ff ff 00 	cmpl   $0x0,-0x8e0(%rbp)
    c5f0:	7e be                	jle    c5b0 <func_12+0x502>
    c5f2:	83 85 1c f7 ff ff 01 	addl   $0x1,-0x8e4(%rbp)
    c5f9:	83 bd 1c f7 ff ff 01 	cmpl   $0x1,-0x8e4(%rbp)
    c600:	7e a2                	jle    c5a4 <func_12+0x4f6>
    c602:	83 85 18 f7 ff ff 01 	addl   $0x1,-0x8e8(%rbp)
    c609:	83 bd 18 f7 ff ff 06 	cmpl   $0x6,-0x8e8(%rbp)
    c610:	7e 86                	jle    c598 <func_12+0x4ea>
    c612:	c7 85 18 f7 ff ff 00 	movl   $0x0,-0x8e8(%rbp)
    c619:	00 00 00 
    c61c:	eb 1a                	jmp    c638 <func_12+0x58a>
    c61e:	8b 85 18 f7 ff ff    	mov    -0x8e8(%rbp),%eax
    c624:	48 98                	cltq   
    c626:	c7 84 85 60 f8 ff ff 	movl   $0xfffffffa,-0x7a0(%rbp,%rax,4)
    c62d:	fa ff ff ff 
    c631:	83 85 18 f7 ff ff 01 	addl   $0x1,-0x8e8(%rbp)
    c638:	83 bd 18 f7 ff ff 06 	cmpl   $0x6,-0x8e8(%rbp)
    c63f:	7e dd                	jle    c61e <func_12+0x570>
    c641:	c7 85 18 f7 ff ff 00 	movl   $0x0,-0x8e8(%rbp)
    c648:	00 00 00 
    c64b:	eb 14                	jmp    c661 <func_12+0x5b3>
    c64d:	8b 85 18 f7 ff ff    	mov    -0x8e8(%rbp),%eax
    c653:	48 98                	cltq   
    c655:	c6 44 05 f7 01       	movb   $0x1,-0x9(%rbp,%rax,1)
    c65a:	83 85 18 f7 ff ff 01 	addl   $0x1,-0x8e8(%rbp)
    c661:	83 bd 18 f7 ff ff 00 	cmpl   $0x0,-0x8e8(%rbp)
    c668:	7e e3                	jle    c64d <func_12+0x59f>
    c66a:	c7 85 18 f7 ff ff 00 	movl   $0x0,-0x8e8(%rbp)
    c671:	00 00 00 
    c674:	eb 43                	jmp    c6b9 <func_12+0x60b>
    c676:	c7 85 1c f7 ff ff 00 	movl   $0x0,-0x8e4(%rbp)
    c67d:	00 00 00 
    c680:	eb 27                	jmp    c6a9 <func_12+0x5fb>
    c682:	8b 85 1c f7 ff ff    	mov    -0x8e4(%rbp),%eax
    c688:	48 63 d0             	movslq %eax,%rdx
    c68b:	8b 85 18 f7 ff ff    	mov    -0x8e8(%rbp),%eax
    c691:	48 98                	cltq   
    c693:	48 01 ea             	add    %rbp,%rdx
    c696:	48 01 d0             	add    %rdx,%rax
    c699:	48 2d ef 07 00 00    	sub    $0x7ef,%rax
    c69f:	c6 00 7c             	movb   $0x7c,(%rax)
    c6a2:	83 85 1c f7 ff ff 01 	addl   $0x1,-0x8e4(%rbp)
    c6a9:	83 bd 1c f7 ff ff 00 	cmpl   $0x0,-0x8e4(%rbp)
    c6b0:	7e d0                	jle    c682 <func_12+0x5d4>
    c6b2:	83 85 18 f7 ff ff 01 	addl   $0x1,-0x8e8(%rbp)
    c6b9:	83 bd 18 f7 ff ff 02 	cmpl   $0x2,-0x8e8(%rbp)
    c6c0:	7e b4                	jle    c676 <func_12+0x5c8>
    c6c2:	48 8b 05 df 8b 01 00 	mov    0x18bdf(%rip),%rax        # 252a8 <g_1077>
    c6c9:	48 c7 00 00 00 00 00 	movq   $0x0,(%rax)
    c6d0:	48 8b 05 59 94 01 00 	mov    0x19459(%rip),%rax        # 25b30 <g_1851>
    c6d7:	48 8b 00             	mov    (%rax),%rax
    c6da:	48 8b 00             	mov    (%rax),%rax
    c6dd:	48 8b 00             	mov    (%rax),%rax
    c6e0:	8b 00                	mov    (%rax),%eax
    c6e2:	89 85 2c f7 ff ff    	mov    %eax,-0x8d4(%rbp)
    c6e8:	8b 8d 2c f7 ff ff    	mov    -0x8d4(%rbp),%ecx
    c6ee:	48 8b 05 6b 8c 01 00 	mov    0x18c6b(%rip),%rax        # 25360 <g_1220>
    c6f5:	8b 10                	mov    (%rax),%edx
    c6f7:	48 8b 05 62 8c 01 00 	mov    0x18c62(%rip),%rax        # 25360 <g_1220>
    c6fe:	09 ca                	or     %ecx,%edx
    c700:	89 10                	mov    %edx,(%rax)
    c702:	8b 05 64 4b 01 00    	mov    0x14b64(%rip),%eax        # 2126c <g_342>
    c708:	48 8b 75 f8          	mov    -0x8(%rbp),%rsi
    c70c:	64 48 33 34 25 28 00 	xor    %fs:0x28,%rsi
    c713:	00 00 
    c715:	74 05                	je     c71c <func_12+0x66e>
    c717:	e8 54 d9 ff ff       	callq  a070 <__stack_chk_fail@plt>
    c71c:	c9                   	leaveq 
    c71d:	c3                   	retq   

000000000000c71e <func_16>:
    c71e:	f3 0f 1e fa          	endbr64 
    c722:	55                   	push   %rbp
    c723:	48 89 e5             	mov    %rsp,%rbp
    c726:	53                   	push   %rbx
    c727:	48 83 ec 28          	sub    $0x28,%rsp
    c72b:	89 7d ec             	mov    %edi,-0x14(%rbp)
    c72e:	48 89 75 e0          	mov    %rsi,-0x20(%rbp)
    c732:	48 89 55 d8          	mov    %rdx,-0x28(%rbp)
    c736:	89 ca                	mov    %ecx,%edx
    c738:	44 89 c0             	mov    %r8d,%eax
    c73b:	88 55 e8             	mov    %dl,-0x18(%rbp)
    c73e:	66 89 45 d4          	mov    %ax,-0x2c(%rbp)
    c742:	8b 05 dc 48 01 00    	mov    0x148dc(%rip),%eax        # 21024 <g_2>
    c748:	0f be c0             	movsbl %al,%eax
    c74b:	48 8b 15 26 8b 01 00 	mov    0x18b26(%rip),%rdx        # 25278 <g_347>
    c752:	48 8b 1a             	mov    (%rdx),%rbx
    c755:	48 8d 35 c8 48 01 00 	lea    0x148c8(%rip),%rsi        # 21024 <g_2>
    c75c:	89 c7                	mov    %eax,%edi
    c75e:	e8 3d 00 00 00       	callq  c7a0 <func_23>
    c763:	89 03                	mov    %eax,(%rbx)
    c765:	48 8b 05 c4 93 01 00 	mov    0x193c4(%rip),%rax        # 25b30 <g_1851>
    c76c:	48 8b 00             	mov    (%rax),%rax
    c76f:	48 8b 00             	mov    (%rax),%rax
    c772:	48 8b 00             	mov    (%rax),%rax
    c775:	8b 10                	mov    (%rax),%edx
    c777:	48 8b 05 b2 93 01 00 	mov    0x193b2(%rip),%rax        # 25b30 <g_1851>
    c77e:	48 8b 00             	mov    (%rax),%rax
    c781:	48 8b 00             	mov    (%rax),%rax
    c784:	48 8b 00             	mov    (%rax),%rax
    c787:	81 e2 9c 91 7e 49    	and    $0x497e919c,%edx
    c78d:	89 10                	mov    %edx,(%rax)
    c78f:	48 8b 05 02 8b 01 00 	mov    0x18b02(%rip),%rax        # 25298 <g_980>
    c796:	48 8b 00             	mov    (%rax),%rax
    c799:	48 83 c4 28          	add    $0x28,%rsp
    c79d:	5b                   	pop    %rbx
    c79e:	5d                   	pop    %rbp
    c79f:	c3                   	retq   

000000000000c7a0 <func_23>:
    c7a0:	f3 0f 1e fa          	endbr64 
    c7a4:	55                   	push   %rbp
    c7a5:	48 89 e5             	mov    %rsp,%rbp
    c7a8:	48 81 ec e0 05 00 00 	sub    $0x5e0,%rsp
    c7af:	89 f8                	mov    %edi,%eax
    c7b1:	48 89 b5 20 fa ff ff 	mov    %rsi,-0x5e0(%rbp)
    c7b8:	88 85 2c fa ff ff    	mov    %al,-0x5d4(%rbp)
    c7be:	64 48 8b 04 25 28 00 	mov    %fs:0x28,%rax
    c7c5:	00 00 
    c7c7:	48 89 45 f8          	mov    %rax,-0x8(%rbp)
    c7cb:	31 c0                	xor    %eax,%eax
    c7cd:	48 8d 05 58 48 01 00 	lea    0x14858(%rip),%rax        # 2102c <g_27>
    c7d4:	48 89 85 60 fa ff ff 	mov    %rax,-0x5a0(%rbp)
    c7db:	48 8d 05 4a 48 01 00 	lea    0x1484a(%rip),%rax        # 2102c <g_27>
    c7e2:	48 89 85 68 fa ff ff 	mov    %rax,-0x598(%rbp)
    c7e9:	48 c7 85 70 fa ff ff 	movq   $0x0,-0x590(%rbp)
    c7f0:	00 00 00 00 
    c7f4:	c7 85 40 fa ff ff 08 	movl   $0x8,-0x5c0(%rbp)
    c7fb:	00 00 00 
    c7fe:	48 8d 05 27 48 01 00 	lea    0x14827(%rip),%rax        # 2102c <g_27>
    c805:	48 89 85 78 fa ff ff 	mov    %rax,-0x588(%rbp)
    c80c:	48 8d 05 19 48 01 00 	lea    0x14819(%rip),%rax        # 2102c <g_27>
    c813:	48 89 85 80 fa ff ff 	mov    %rax,-0x580(%rbp)
    c81a:	48 8d 85 40 fa ff ff 	lea    -0x5c0(%rbp),%rax
    c821:	48 89 85 88 fa ff ff 	mov    %rax,-0x578(%rbp)
    c828:	48 8d 85 40 fa ff ff 	lea    -0x5c0(%rbp),%rax
    c82f:	48 89 85 90 fa ff ff 	mov    %rax,-0x570(%rbp)
    c836:	48 8d 05 e7 47 01 00 	lea    0x147e7(%rip),%rax        # 21024 <g_2>
    c83d:	48 89 85 00 fb ff ff 	mov    %rax,-0x500(%rbp)
    c844:	48 8d 05 d9 47 01 00 	lea    0x147d9(%rip),%rax        # 21024 <g_2>
    c84b:	48 89 85 08 fb ff ff 	mov    %rax,-0x4f8(%rbp)
    c852:	48 8d 05 cb 47 01 00 	lea    0x147cb(%rip),%rax        # 21024 <g_2>
    c859:	48 89 85 10 fb ff ff 	mov    %rax,-0x4f0(%rbp)
    c860:	48 8d 05 bd 47 01 00 	lea    0x147bd(%rip),%rax        # 21024 <g_2>
    c867:	48 89 85 18 fb ff ff 	mov    %rax,-0x4e8(%rbp)
    c86e:	48 8d 05 af 47 01 00 	lea    0x147af(%rip),%rax        # 21024 <g_2>
    c875:	48 89 85 20 fb ff ff 	mov    %rax,-0x4e0(%rbp)
    c87c:	48 8d 05 a1 47 01 00 	lea    0x147a1(%rip),%rax        # 21024 <g_2>
    c883:	48 89 85 28 fb ff ff 	mov    %rax,-0x4d8(%rbp)
    c88a:	48 c7 85 98 fa ff ff 	movq   $0xffffffffffffffff,-0x568(%rbp)
    c891:	ff ff ff ff 
    c895:	48 8d 95 60 fb ff ff 	lea    -0x4a0(%rbp),%rdx
    c89c:	b8 00 00 00 00       	mov    $0x0,%eax
    c8a1:	b9 14 00 00 00       	mov    $0x14,%ecx
    c8a6:	48 89 d7             	mov    %rdx,%rdi
    c8a9:	f3 48 ab             	rep stos %rax,%es:(%rdi)
    c8ac:	48 8d 05 bf 4f 01 00 	lea    0x14fbf(%rip),%rax        # 21872 <g_1665>
    c8b3:	48 89 85 a0 fa ff ff 	mov    %rax,-0x560(%rbp)
    c8ba:	66 c7 85 3e fa ff ff 	movw   $0x3b9e,-0x5c2(%rbp)
    c8c1:	9e 3b 
    c8c3:	48 8d 05 ae 89 01 00 	lea    0x189ae(%rip),%rax        # 25278 <g_347>
    c8ca:	48 89 85 a8 fa ff ff 	mov    %rax,-0x558(%rbp)
    c8d1:	48 8d 05 cc 47 01 00 	lea    0x147cc(%rip),%rax        # 210a4 <g_104>
    c8d8:	48 89 85 b0 fa ff ff 	mov    %rax,-0x550(%rbp)
    c8df:	48 c7 85 b8 fa ff ff 	movq   $0x0,-0x548(%rbp)
    c8e6:	00 00 00 00 
    c8ea:	c7 85 48 fa ff ff ff 	movl   $0xffffffff,-0x5b8(%rbp)
    c8f1:	ff ff ff 
    c8f4:	48 8d 85 00 fc ff ff 	lea    -0x400(%rbp),%rax
    c8fb:	48 8d 15 de 58 01 00 	lea    0x158de(%rip),%rdx        # 221e0 <g_2477+0x20>
    c902:	b9 7e 00 00 00       	mov    $0x7e,%ecx
    c907:	48 89 c7             	mov    %rax,%rdi
    c90a:	48 89 d6             	mov    %rdx,%rsi
    c90d:	f3 48 a5             	rep movsq %ds:(%rsi),%es:(%rdi)
    c910:	48 8d 85 00 fc ff ff 	lea    -0x400(%rbp),%rax
    c917:	48 05 b8 03 00 00    	add    $0x3b8,%rax
    c91d:	48 89 85 c0 fa ff ff 	mov    %rax,-0x540(%rbp)
    c924:	48 8d 05 35 47 01 00 	lea    0x14735(%rip),%rax        # 21060 <g_68>
    c92b:	48 89 85 50 fa ff ff 	mov    %rax,-0x5b0(%rbp)
    c932:	48 8d 85 50 fa ff ff 	lea    -0x5b0(%rbp),%rax
    c939:	48 89 85 c8 fa ff ff 	mov    %rax,-0x538(%rbp)
    c940:	48 c7 85 d0 fa ff ff 	movq   $0xfffffffffffffffc,-0x530(%rbp)
    c947:	fc ff ff ff 
    c94b:	48 8d 05 d2 4b 01 00 	lea    0x14bd2(%rip),%rax        # 21524 <g_1527>
    c952:	48 89 85 58 fa ff ff 	mov    %rax,-0x5a8(%rbp)
    c959:	48 8d 05 30 86 01 00 	lea    0x18630(%rip),%rax        # 24f90 <g_128>
    c960:	48 89 85 d8 fa ff ff 	mov    %rax,-0x528(%rbp)
    c967:	48 8d 85 58 fa ff ff 	lea    -0x5a8(%rbp),%rax
    c96e:	48 89 85 e0 fa ff ff 	mov    %rax,-0x520(%rbp)
    c975:	48 8d 05 4c 49 01 00 	lea    0x1494c(%rip),%rax        # 212c8 <g_434>
    c97c:	48 89 85 e8 fa ff ff 	mov    %rax,-0x518(%rbp)
    c983:	48 8d 05 06 8a 01 00 	lea    0x18a06(%rip),%rax        # 25390 <g_1655>
    c98a:	48 89 85 f0 fa ff ff 	mov    %rax,-0x510(%rbp)
    c991:	c7 85 4c fa ff ff cd 	movl   $0xe1d16dcd,-0x5b4(%rbp)
    c998:	6d d1 e1 
    c99b:	c7 85 44 fa ff ff 00 	movl   $0x0,-0x5bc(%rbp)
    c9a2:	00 00 00 
    c9a5:	eb 1e                	jmp    c9c5 <func_23+0x225>
    c9a7:	8b 85 44 fa ff ff    	mov    -0x5bc(%rbp),%eax
    c9ad:	48 98                	cltq   
    c9af:	48 8d 15 fa 49 01 00 	lea    0x149fa(%rip),%rdx        # 213b0 <g_742>
    c9b6:	48 89 94 c5 30 fb ff 	mov    %rdx,-0x4d0(%rbp,%rax,8)
    c9bd:	ff 
    c9be:	83 85 44 fa ff ff 01 	addl   $0x1,-0x5bc(%rbp)
    c9c5:	83 bd 44 fa ff ff 05 	cmpl   $0x5,-0x5bc(%rbp)
    c9cc:	7e d9                	jle    c9a7 <func_23+0x207>
    c9ce:	c7 85 44 fa ff ff 00 	movl   $0x0,-0x5bc(%rbp)
    c9d5:	00 00 00 
    c9d8:	eb 1a                	jmp    c9f4 <func_23+0x254>
    c9da:	8b 85 44 fa ff ff    	mov    -0x5bc(%rbp),%eax
    c9e0:	48 98                	cltq   
    c9e2:	c7 84 85 fc fa ff ff 	movl   $0x0,-0x504(%rbp,%rax,4)
    c9e9:	00 00 00 00 
    c9ed:	83 85 44 fa ff ff 01 	addl   $0x1,-0x5bc(%rbp)
    c9f4:	83 bd 44 fa ff ff 00 	cmpl   $0x0,-0x5bc(%rbp)
    c9fb:	7e dd                	jle    c9da <func_23+0x23a>
    c9fd:	48 8b 05 34 46 01 00 	mov    0x14634(%rip),%rax        # 21038 <g_38>
    ca04:	48 83 c0 01          	add    $0x1,%rax
    ca08:	48 89 05 29 46 01 00 	mov    %rax,0x14629(%rip)        # 21038 <g_38>
    ca0f:	48 8b 85 20 fa ff ff 	mov    -0x5e0(%rbp),%rax
    ca16:	8b 00                	mov    (%rax),%eax
    ca18:	48 8b 75 f8          	mov    -0x8(%rbp),%rsi
    ca1c:	64 48 33 34 25 28 00 	xor    %fs:0x28,%rsi
    ca23:	00 00 
    ca25:	74 05                	je     ca2c <func_23+0x28c>
    ca27:	e8 44 d6 ff ff       	callq  a070 <__stack_chk_fail@plt>
    ca2c:	c9                   	leaveq 
    ca2d:	c3                   	retq   

000000000000ca2e <func_41>:
    ca2e:	f3 0f 1e fa          	endbr64 
    ca32:	55                   	push   %rbp
    ca33:	48 89 e5             	mov    %rsp,%rbp
    ca36:	41 57                	push   %r15
    ca38:	41 56                	push   %r14
    ca3a:	41 55                	push   %r13
    ca3c:	41 54                	push   %r12
    ca3e:	53                   	push   %rbx
    ca3f:	48 81 ec 00 10 00 00 	sub    $0x1000,%rsp
    ca46:	48 83 0c 24 00       	orq    $0x0,(%rsp)
    ca4b:	48 81 ec 00 10 00 00 	sub    $0x1000,%rsp
    ca52:	48 83 0c 24 00       	orq    $0x0,(%rsp)
    ca57:	48 81 ec 00 10 00 00 	sub    $0x1000,%rsp
    ca5e:	48 83 0c 24 00       	orq    $0x0,(%rsp)
    ca63:	48 81 ec 38 0b 00 00 	sub    $0xb38,%rsp
    ca6a:	89 bd bc c4 ff ff    	mov    %edi,-0x3b44(%rbp)
    ca70:	64 48 8b 04 25 28 00 	mov    %fs:0x28,%rax
    ca77:	00 00 
    ca79:	48 89 45 c8          	mov    %rax,-0x38(%rbp)
    ca7d:	31 c0                	xor    %eax,%eax
    ca7f:	c6 85 cc c4 ff ff 01 	movb   $0x1,-0x3b34(%rbp)
    ca86:	48 8d 05 63 48 01 00 	lea    0x14863(%rip),%rax        # 212f0 <g_582>
    ca8d:	48 89 85 78 c6 ff ff 	mov    %rax,-0x3988(%rbp)
    ca94:	c7 85 f4 c4 ff ff 42 	movl   $0x8f016342,-0x3b0c(%rbp)
    ca9b:	63 01 8f 
    ca9e:	48 8d 05 3b 46 01 00 	lea    0x1463b(%rip),%rax        # 210e0 <g_125>
    caa5:	48 89 85 80 c6 ff ff 	mov    %rax,-0x3980(%rbp)
    caac:	48 8d 85 40 c9 ff ff 	lea    -0x36c0(%rbp),%rax
    cab3:	48 83 c0 08          	add    $0x8,%rax
    cab7:	48 89 85 88 c6 ff ff 	mov    %rax,-0x3978(%rbp)
    cabe:	48 8d 05 03 48 01 00 	lea    0x14803(%rip),%rax        # 212c8 <g_434>
    cac5:	48 89 85 60 c9 ff ff 	mov    %rax,-0x36a0(%rbp)
    cacc:	48 8d 05 f5 47 01 00 	lea    0x147f5(%rip),%rax        # 212c8 <g_434>
    cad3:	48 89 85 68 c9 ff ff 	mov    %rax,-0x3698(%rbp)
    cada:	48 8d 05 e7 47 01 00 	lea    0x147e7(%rip),%rax        # 212c8 <g_434>
    cae1:	48 89 85 70 c9 ff ff 	mov    %rax,-0x3690(%rbp)
    cae8:	48 8d 05 d9 47 01 00 	lea    0x147d9(%rip),%rax        # 212c8 <g_434>
    caef:	48 89 85 78 c9 ff ff 	mov    %rax,-0x3688(%rbp)
    caf6:	c7 85 f8 c4 ff ff b6 	movl   $0xef3eb4b6,-0x3b08(%rbp)
    cafd:	b4 3e ef 
    cb00:	48 8d 05 dd 45 01 00 	lea    0x145dd(%rip),%rax        # 210e4 <g_147>
    cb07:	48 89 85 00 c6 ff ff 	mov    %rax,-0x3a00(%rbp)
    cb0e:	48 c7 85 68 c6 ff ff 	movq   $0x7,-0x3998(%rbp)
    cb15:	07 00 00 00 
    cb19:	c7 85 fc c4 ff ff 21 	movl   $0xb6d56021,-0x3b04(%rbp)
    cb20:	60 d5 b6 
    cb23:	48 b8 09 53 8f 2b 0d 	movabs $0x8a90c60d2b8f5309,%rax
    cb2a:	c6 90 8a 
    cb2d:	48 89 85 90 c6 ff ff 	mov    %rax,-0x3970(%rbp)
    cb34:	c7 85 00 c5 ff ff be 	movl   $0x48ebf5be,-0x3b00(%rbp)
    cb3b:	f5 eb 48 
    cb3e:	c7 85 04 c5 ff ff fb 	movl   $0xfffffffb,-0x3afc(%rbp)
    cb45:	ff ff ff 
    cb48:	c7 85 08 c5 ff ff 01 	movl   $0x1,-0x3af8(%rbp)
    cb4f:	00 00 00 
    cb52:	c7 85 0c c5 ff ff 09 	movl   $0x9,-0x3af4(%rbp)
    cb59:	00 00 00 
    cb5c:	c7 85 10 c5 ff ff 0f 	movl   $0x343fb70f,-0x3af0(%rbp)
    cb63:	b7 3f 34 
    cb66:	48 8d 05 eb 86 01 00 	lea    0x186eb(%rip),%rax        # 25258 <g_345+0x38>
    cb6d:	48 89 85 98 c6 ff ff 	mov    %rax,-0x3968(%rbp)
    cb74:	48 c7 85 a0 c6 ff ff 	movq   $0x0,-0x3960(%rbp)
    cb7b:	00 00 00 00 
    cb7f:	48 8d 85 50 cf ff ff 	lea    -0x30b0(%rbp),%rax
    cb86:	48 8d 15 93 df 00 00 	lea    0xdf93(%rip),%rdx        # 1ab20 <g_2454+0x7a8>
    cb8d:	b9 3f 00 00 00       	mov    $0x3f,%ecx
    cb92:	48 89 c7             	mov    %rax,%rdi
    cb95:	48 89 d6             	mov    %rdx,%rsi
    cb98:	f3 48 a5             	rep movsq %ds:(%rsi),%es:(%rdi)
    cb9b:	48 8d 85 20 d9 ff ff 	lea    -0x26e0(%rbp),%rax
    cba2:	48 8d 15 37 5a 01 00 	lea    0x15a37(%rip),%rdx        # 225e0 <g_2477+0x420>
    cba9:	b9 f0 00 00 00       	mov    $0xf0,%ecx
    cbae:	48 89 c7             	mov    %rax,%rdi
    cbb1:	48 89 d6             	mov    %rdx,%rsi
    cbb4:	f3 48 a5             	rep movsq %ds:(%rsi),%es:(%rdi)
    cbb7:	48 8d 05 d2 86 01 00 	lea    0x186d2(%rip),%rax        # 25290 <g_802>
    cbbe:	48 89 85 a8 c6 ff ff 	mov    %rax,-0x3958(%rbp)
    cbc5:	c7 85 14 c5 ff ff 06 	movl   $0x6,-0x3aec(%rbp)
    cbcc:	00 00 00 
    cbcf:	48 8d 85 a0 e0 ff ff 	lea    -0x1f60(%rbp),%rax
    cbd6:	48 8d 15 83 61 01 00 	lea    0x16183(%rip),%rdx        # 22d60 <g_2477+0xba0>
    cbdd:	b9 f0 00 00 00       	mov    $0xf0,%ecx
    cbe2:	48 89 c7             	mov    %rax,%rdi
    cbe5:	48 89 d6             	mov    %rdx,%rsi
    cbe8:	f3 48 a5             	rep movsq %ds:(%rsi),%es:(%rdi)
    cbeb:	c7 85 20 c5 ff ff 36 	movl   $0xda35ad36,-0x3ae0(%rbp)
    cbf2:	ad 35 da 
    cbf5:	c7 85 60 c5 ff ff 4c 	movl   $0xfefcd04c,-0x3aa0(%rbp)
    cbfc:	d0 fc fe 
    cbff:	48 c7 85 b0 c6 ff ff 	movq   $0x0,-0x3950(%rbp)
    cc06:	00 00 00 00 
    cc0a:	48 8d 05 45 44 01 00 	lea    0x14445(%rip),%rax        # 21056 <g_57+0x2>
    cc11:	48 89 85 30 cc ff ff 	mov    %rax,-0x33d0(%rbp)
    cc18:	48 c7 85 38 cc ff ff 	movq   $0x0,-0x33c8(%rbp)
    cc1f:	00 00 00 00 
    cc23:	48 8d 05 2c 44 01 00 	lea    0x1442c(%rip),%rax        # 21056 <g_57+0x2>
    cc2a:	48 89 85 40 cc ff ff 	mov    %rax,-0x33c0(%rbp)
    cc31:	48 c7 85 48 cc ff ff 	movq   $0x0,-0x33b8(%rbp)
    cc38:	00 00 00 00 
    cc3c:	48 8d 05 13 44 01 00 	lea    0x14413(%rip),%rax        # 21056 <g_57+0x2>
    cc43:	48 89 85 50 cc ff ff 	mov    %rax,-0x33b0(%rbp)
    cc4a:	48 c7 85 58 cc ff ff 	movq   $0x0,-0x33a8(%rbp)
    cc51:	00 00 00 00 
    cc55:	48 8d 05 fa 43 01 00 	lea    0x143fa(%rip),%rax        # 21056 <g_57+0x2>
    cc5c:	48 89 85 60 cc ff ff 	mov    %rax,-0x33a0(%rbp)
    cc63:	48 8d 05 60 46 01 00 	lea    0x14660(%rip),%rax        # 212ca <g_435>
    cc6a:	48 89 85 68 cc ff ff 	mov    %rax,-0x3398(%rbp)
    cc71:	48 8d 05 52 46 01 00 	lea    0x14652(%rip),%rax        # 212ca <g_435>
    cc78:	48 89 85 70 cc ff ff 	mov    %rax,-0x3390(%rbp)
    cc7f:	48 8d 05 44 46 01 00 	lea    0x14644(%rip),%rax        # 212ca <g_435>
    cc86:	48 89 85 78 cc ff ff 	mov    %rax,-0x3388(%rbp)
    cc8d:	48 8d 05 36 46 01 00 	lea    0x14636(%rip),%rax        # 212ca <g_435>
    cc94:	48 89 85 80 cc ff ff 	mov    %rax,-0x3380(%rbp)
    cc9b:	48 8d 05 28 46 01 00 	lea    0x14628(%rip),%rax        # 212ca <g_435>
    cca2:	48 89 85 88 cc ff ff 	mov    %rax,-0x3378(%rbp)
    cca9:	48 8d 05 1a 46 01 00 	lea    0x1461a(%rip),%rax        # 212ca <g_435>
    ccb0:	48 89 85 90 cc ff ff 	mov    %rax,-0x3370(%rbp)
    ccb7:	48 8d 05 0c 46 01 00 	lea    0x1460c(%rip),%rax        # 212ca <g_435>
    ccbe:	48 89 85 98 cc ff ff 	mov    %rax,-0x3368(%rbp)
    ccc5:	48 8d 85 cc c4 ff ff 	lea    -0x3b34(%rbp),%rax
    cccc:	48 89 85 a0 cc ff ff 	mov    %rax,-0x3360(%rbp)
    ccd3:	48 8d 05 f0 45 01 00 	lea    0x145f0(%rip),%rax        # 212ca <g_435>
    ccda:	48 89 85 a8 cc ff ff 	mov    %rax,-0x3358(%rbp)
    cce1:	48 8d 85 cc c4 ff ff 	lea    -0x3b34(%rbp),%rax
    cce8:	48 89 85 b0 cc ff ff 	mov    %rax,-0x3350(%rbp)
    ccef:	48 c7 85 b8 cc ff ff 	movq   $0x0,-0x3348(%rbp)
    ccf6:	00 00 00 00 
    ccfa:	48 8d 85 cc c4 ff ff 	lea    -0x3b34(%rbp),%rax
    cd01:	48 89 85 c0 cc ff ff 	mov    %rax,-0x3340(%rbp)
    cd08:	48 8d 05 bb 45 01 00 	lea    0x145bb(%rip),%rax        # 212ca <g_435>
    cd0f:	48 89 85 c8 cc ff ff 	mov    %rax,-0x3338(%rbp)
    cd16:	48 8d 85 cc c4 ff ff 	lea    -0x3b34(%rbp),%rax
    cd1d:	48 89 85 d0 cc ff ff 	mov    %rax,-0x3330(%rbp)
    cd24:	48 8d 05 9f 45 01 00 	lea    0x1459f(%rip),%rax        # 212ca <g_435>
    cd2b:	48 89 85 d8 cc ff ff 	mov    %rax,-0x3328(%rbp)
    cd32:	48 8d 05 91 45 01 00 	lea    0x14591(%rip),%rax        # 212ca <g_435>
    cd39:	48 89 85 e0 cc ff ff 	mov    %rax,-0x3320(%rbp)
    cd40:	48 8d 05 83 45 01 00 	lea    0x14583(%rip),%rax        # 212ca <g_435>
    cd47:	48 89 85 e8 cc ff ff 	mov    %rax,-0x3318(%rbp)
    cd4e:	48 8d 05 75 45 01 00 	lea    0x14575(%rip),%rax        # 212ca <g_435>
    cd55:	48 89 85 f0 cc ff ff 	mov    %rax,-0x3310(%rbp)
    cd5c:	48 8d 05 67 45 01 00 	lea    0x14567(%rip),%rax        # 212ca <g_435>
    cd63:	48 89 85 f8 cc ff ff 	mov    %rax,-0x3308(%rbp)
    cd6a:	48 8d 05 59 45 01 00 	lea    0x14559(%rip),%rax        # 212ca <g_435>
    cd71:	48 89 85 00 cd ff ff 	mov    %rax,-0x3300(%rbp)
    cd78:	48 8d 05 4b 45 01 00 	lea    0x1454b(%rip),%rax        # 212ca <g_435>
    cd7f:	48 89 85 08 cd ff ff 	mov    %rax,-0x32f8(%rbp)
    cd86:	48 8d 05 c9 42 01 00 	lea    0x142c9(%rip),%rax        # 21056 <g_57+0x2>
    cd8d:	48 89 85 10 cd ff ff 	mov    %rax,-0x32f0(%rbp)
    cd94:	48 8d 05 2f 45 01 00 	lea    0x1452f(%rip),%rax        # 212ca <g_435>
    cd9b:	48 89 85 18 cd ff ff 	mov    %rax,-0x32e8(%rbp)
    cda2:	48 8d 05 ad 42 01 00 	lea    0x142ad(%rip),%rax        # 21056 <g_57+0x2>
    cda9:	48 89 85 20 cd ff ff 	mov    %rax,-0x32e0(%rbp)
    cdb0:	48 8d 05 13 45 01 00 	lea    0x14513(%rip),%rax        # 212ca <g_435>
    cdb7:	48 89 85 28 cd ff ff 	mov    %rax,-0x32d8(%rbp)
    cdbe:	48 8d 05 91 42 01 00 	lea    0x14291(%rip),%rax        # 21056 <g_57+0x2>
    cdc5:	48 89 85 30 cd ff ff 	mov    %rax,-0x32d0(%rbp)
    cdcc:	48 8d 05 f7 44 01 00 	lea    0x144f7(%rip),%rax        # 212ca <g_435>
    cdd3:	48 89 85 38 cd ff ff 	mov    %rax,-0x32c8(%rbp)
    cdda:	48 8d 05 75 42 01 00 	lea    0x14275(%rip),%rax        # 21056 <g_57+0x2>
    cde1:	48 89 85 40 cd ff ff 	mov    %rax,-0x32c0(%rbp)
    cde8:	48 8d 05 db 44 01 00 	lea    0x144db(%rip),%rax        # 212ca <g_435>
    cdef:	48 89 85 48 cd ff ff 	mov    %rax,-0x32b8(%rbp)
    cdf6:	48 8d 05 cd 44 01 00 	lea    0x144cd(%rip),%rax        # 212ca <g_435>
    cdfd:	48 89 85 50 cd ff ff 	mov    %rax,-0x32b0(%rbp)
    ce04:	48 8d 05 bf 44 01 00 	lea    0x144bf(%rip),%rax        # 212ca <g_435>
    ce0b:	48 89 85 58 cd ff ff 	mov    %rax,-0x32a8(%rbp)
    ce12:	48 8d 05 b1 44 01 00 	lea    0x144b1(%rip),%rax        # 212ca <g_435>
    ce19:	48 89 85 60 cd ff ff 	mov    %rax,-0x32a0(%rbp)
    ce20:	48 8d 05 a3 44 01 00 	lea    0x144a3(%rip),%rax        # 212ca <g_435>
    ce27:	48 89 85 68 cd ff ff 	mov    %rax,-0x3298(%rbp)
    ce2e:	48 8d 05 95 44 01 00 	lea    0x14495(%rip),%rax        # 212ca <g_435>
    ce35:	48 89 85 70 cd ff ff 	mov    %rax,-0x3290(%rbp)
    ce3c:	48 8d 05 87 44 01 00 	lea    0x14487(%rip),%rax        # 212ca <g_435>
    ce43:	48 89 85 78 cd ff ff 	mov    %rax,-0x3288(%rbp)
    ce4a:	48 8d 85 cc c4 ff ff 	lea    -0x3b34(%rbp),%rax
    ce51:	48 89 85 80 cd ff ff 	mov    %rax,-0x3280(%rbp)
    ce58:	48 c7 85 88 cd ff ff 	movq   $0x0,-0x3278(%rbp)
    ce5f:	00 00 00 00 
    ce63:	48 8d 85 cc c4 ff ff 	lea    -0x3b34(%rbp),%rax
    ce6a:	48 89 85 90 cd ff ff 	mov    %rax,-0x3270(%rbp)
    ce71:	48 8d 05 52 44 01 00 	lea    0x14452(%rip),%rax        # 212ca <g_435>
    ce78:	48 89 85 98 cd ff ff 	mov    %rax,-0x3268(%rbp)
    ce7f:	48 8d 85 cc c4 ff ff 	lea    -0x3b34(%rbp),%rax
    ce86:	48 89 85 a0 cd ff ff 	mov    %rax,-0x3260(%rbp)
    ce8d:	48 c7 85 a8 cd ff ff 	movq   $0x0,-0x3258(%rbp)
    ce94:	00 00 00 00 
    ce98:	48 8d 85 cc c4 ff ff 	lea    -0x3b34(%rbp),%rax
    ce9f:	48 89 85 b0 cd ff ff 	mov    %rax,-0x3250(%rbp)
    cea6:	c6 85 d1 c4 ff ff fc 	movb   $0xfc,-0x3b2f(%rbp)
    cead:	48 8d 05 ec 80 01 00 	lea    0x180ec(%rip),%rax        # 24fa0 <g_214>
    ceb4:	48 89 85 08 c6 ff ff 	mov    %rax,-0x39f8(%rbp)
    cebb:	48 8d 85 08 c6 ff ff 	lea    -0x39f8(%rbp),%rax
    cec2:	48 89 85 b8 c6 ff ff 	mov    %rax,-0x3948(%rbp)
    cec9:	48 b8 f7 e0 98 f3 f0 	movabs $0x9ea1d7f0f398e0f7,%rax
    ced0:	d7 a1 9e 
    ced3:	48 89 85 c0 c6 ff ff 	mov    %rax,-0x3940(%rbp)
    ceda:	c7 85 18 c5 ff ff 9a 	movl   $0x1ddb129a,-0x3ae8(%rbp)
    cee1:	12 db 1d 
    cee4:	c6 85 ce c4 ff ff ff 	movb   $0xff,-0x3b32(%rbp)
    ceeb:	66 c7 85 de c4 ff ff 	movw   $0xfffd,-0x3b22(%rbp)
    cef2:	fd ff 
    cef4:	48 8d 85 f4 c4 ff ff 	lea    -0x3b0c(%rbp),%rax
    cefb:	48 89 85 c8 c6 ff ff 	mov    %rax,-0x3938(%rbp)
    cf02:	48 8d 85 0c c5 ff ff 	lea    -0x3af4(%rbp),%rax
    cf09:	48 89 85 d0 c6 ff ff 	mov    %rax,-0x3930(%rbp)
    cf10:	48 8d 85 00 c5 ff ff 	lea    -0x3b00(%rbp),%rax
    cf17:	48 89 85 d8 c6 ff ff 	mov    %rax,-0x3928(%rbp)
    cf1e:	48 8d 85 00 c5 ff ff 	lea    -0x3b00(%rbp),%rax
    cf25:	48 89 85 e0 c6 ff ff 	mov    %rax,-0x3920(%rbp)
    cf2c:	48 8d 05 6d 41 01 00 	lea    0x1416d(%rip),%rax        # 210a0 <g_80>
    cf33:	48 89 85 20 e8 ff ff 	mov    %rax,-0x17e0(%rbp)
    cf3a:	48 c7 85 28 e8 ff ff 	movq   $0x0,-0x17d8(%rbp)
    cf41:	00 00 00 00 
    cf45:	48 8d 85 f8 c4 ff ff 	lea    -0x3b08(%rbp),%rax
    cf4c:	48 89 85 30 e8 ff ff 	mov    %rax,-0x17d0(%rbp)
    cf53:	48 8d 85 c4 c8 ff ff 	lea    -0x373c(%rbp),%rax
    cf5a:	48 89 85 38 e8 ff ff 	mov    %rax,-0x17c8(%rbp)
    cf61:	48 8d 85 fc c4 ff ff 	lea    -0x3b04(%rbp),%rax
    cf68:	48 89 85 40 e8 ff ff 	mov    %rax,-0x17c0(%rbp)
    cf6f:	48 8d 05 ae 40 01 00 	lea    0x140ae(%rip),%rax        # 21024 <g_2>
    cf76:	48 89 85 48 e8 ff ff 	mov    %rax,-0x17b8(%rbp)
    cf7d:	48 c7 85 50 e8 ff ff 	movq   $0x0,-0x17b0(%rbp)
    cf84:	00 00 00 00 
    cf88:	48 8d 85 f4 c4 ff ff 	lea    -0x3b0c(%rbp),%rax
    cf8f:	48 89 85 58 e8 ff ff 	mov    %rax,-0x17a8(%rbp)
    cf96:	48 c7 85 60 e8 ff ff 	movq   $0x0,-0x17a0(%rbp)
    cf9d:	00 00 00 00 
    cfa1:	48 8d 05 f8 40 01 00 	lea    0x140f8(%rip),%rax        # 210a0 <g_80>
    cfa8:	48 89 85 68 e8 ff ff 	mov    %rax,-0x1798(%rbp)
    cfaf:	48 8d 05 ea 40 01 00 	lea    0x140ea(%rip),%rax        # 210a0 <g_80>
    cfb6:	48 89 85 70 e8 ff ff 	mov    %rax,-0x1790(%rbp)
    cfbd:	48 c7 85 78 e8 ff ff 	movq   $0x0,-0x1788(%rbp)
    cfc4:	00 00 00 00 
    cfc8:	48 c7 85 80 e8 ff ff 	movq   $0x0,-0x1780(%rbp)
    cfcf:	00 00 00 00 
    cfd3:	48 8d 05 4a 40 01 00 	lea    0x1404a(%rip),%rax        # 21024 <g_2>
    cfda:	48 89 85 88 e8 ff ff 	mov    %rax,-0x1778(%rbp)
    cfe1:	48 8d 05 fc 40 01 00 	lea    0x140fc(%rip),%rax        # 210e4 <g_147>
    cfe8:	48 89 85 90 e8 ff ff 	mov    %rax,-0x1770(%rbp)
    cfef:	48 8d 85 f8 c4 ff ff 	lea    -0x3b08(%rbp),%rax
    cff6:	48 89 85 98 e8 ff ff 	mov    %rax,-0x1768(%rbp)
    cffd:	48 8d 85 00 c5 ff ff 	lea    -0x3b00(%rbp),%rax
    d004:	48 89 85 a0 e8 ff ff 	mov    %rax,-0x1760(%rbp)
    d00b:	48 8d 85 0c c5 ff ff 	lea    -0x3af4(%rbp),%rax
    d012:	48 89 85 a8 e8 ff ff 	mov    %rax,-0x1758(%rbp)
    d019:	48 c7 85 b0 e8 ff ff 	movq   $0x0,-0x1750(%rbp)
    d020:	00 00 00 00 
    d024:	48 8d 05 75 40 01 00 	lea    0x14075(%rip),%rax        # 210a0 <g_80>
    d02b:	48 89 85 b8 e8 ff ff 	mov    %rax,-0x1748(%rbp)
    d032:	48 8d 85 04 c5 ff ff 	lea    -0x3afc(%rbp),%rax
    d039:	48 89 85 c0 e8 ff ff 	mov    %rax,-0x1740(%rbp)
    d040:	48 8d 85 0c c5 ff ff 	lea    -0x3af4(%rbp),%rax
    d047:	48 89 85 c8 e8 ff ff 	mov    %rax,-0x1738(%rbp)
    d04e:	48 8d 05 cf 3f 01 00 	lea    0x13fcf(%rip),%rax        # 21024 <g_2>
    d055:	48 89 85 d0 e8 ff ff 	mov    %rax,-0x1730(%rbp)
    d05c:	48 8d 85 c4 c8 ff ff 	lea    -0x373c(%rbp),%rax
    d063:	48 89 85 d8 e8 ff ff 	mov    %rax,-0x1728(%rbp)
    d06a:	48 c7 85 e0 e8 ff ff 	movq   $0x0,-0x1720(%rbp)
    d071:	00 00 00 00 
    d075:	48 8d 05 b0 3f 01 00 	lea    0x13fb0(%rip),%rax        # 2102c <g_27>
    d07c:	48 89 85 e8 e8 ff ff 	mov    %rax,-0x1718(%rbp)
    d083:	48 8d 05 a2 3f 01 00 	lea    0x13fa2(%rip),%rax        # 2102c <g_27>
    d08a:	48 89 85 f0 e8 ff ff 	mov    %rax,-0x1710(%rbp)
    d091:	48 8d 85 c4 c8 ff ff 	lea    -0x373c(%rbp),%rax
    d098:	48 89 85 f8 e8 ff ff 	mov    %rax,-0x1708(%rbp)
    d09f:	48 8d 05 7e 3f 01 00 	lea    0x13f7e(%rip),%rax        # 21024 <g_2>
    d0a6:	48 89 85 00 e9 ff ff 	mov    %rax,-0x1700(%rbp)
    d0ad:	48 8d 05 ec 3f 01 00 	lea    0x13fec(%rip),%rax        # 210a0 <g_80>
    d0b4:	48 89 85 08 e9 ff ff 	mov    %rax,-0x16f8(%rbp)
    d0bb:	48 8d 85 0c c5 ff ff 	lea    -0x3af4(%rbp),%rax
    d0c2:	48 89 85 10 e9 ff ff 	mov    %rax,-0x16f0(%rbp)
    d0c9:	48 8d 85 18 c5 ff ff 	lea    -0x3ae8(%rbp),%rax
    d0d0:	48 89 85 18 e9 ff ff 	mov    %rax,-0x16e8(%rbp)
    d0d7:	48 c7 85 20 e9 ff ff 	movq   $0x0,-0x16e0(%rbp)
    d0de:	00 00 00 00 
    d0e2:	48 8d 05 43 3f 01 00 	lea    0x13f43(%rip),%rax        # 2102c <g_27>
    d0e9:	48 89 85 28 e9 ff ff 	mov    %rax,-0x16d8(%rbp)
    d0f0:	48 8d 05 ed 3f 01 00 	lea    0x13fed(%rip),%rax        # 210e4 <g_147>
    d0f7:	48 89 85 30 e9 ff ff 	mov    %rax,-0x16d0(%rbp)
    d0fe:	48 c7 85 38 e9 ff ff 	movq   $0x0,-0x16c8(%rbp)
    d105:	00 00 00 00 
    d109:	48 8d 05 d4 3f 01 00 	lea    0x13fd4(%rip),%rax        # 210e4 <g_147>
    d110:	48 89 85 40 e9 ff ff 	mov    %rax,-0x16c0(%rbp)
    d117:	48 8d 05 c6 3f 01 00 	lea    0x13fc6(%rip),%rax        # 210e4 <g_147>
    d11e:	48 89 85 48 e9 ff ff 	mov    %rax,-0x16b8(%rbp)
    d125:	48 8d 85 f8 c4 ff ff 	lea    -0x3b08(%rbp),%rax
    d12c:	48 89 85 50 e9 ff ff 	mov    %rax,-0x16b0(%rbp)
    d133:	48 c7 85 58 e9 ff ff 	movq   $0x0,-0x16a8(%rbp)
    d13a:	00 00 00 00 
    d13e:	48 8d 85 00 c5 ff ff 	lea    -0x3b00(%rbp),%rax
    d145:	48 89 85 60 e9 ff ff 	mov    %rax,-0x16a0(%rbp)
    d14c:	48 8d 05 d9 3e 01 00 	lea    0x13ed9(%rip),%rax        # 2102c <g_27>
    d153:	48 89 85 68 e9 ff ff 	mov    %rax,-0x1698(%rbp)
    d15a:	48 8d 85 10 c5 ff ff 	lea    -0x3af0(%rbp),%rax
    d161:	48 89 85 70 e9 ff ff 	mov    %rax,-0x1690(%rbp)
    d168:	48 c7 85 78 e9 ff ff 	movq   $0x0,-0x1688(%rbp)
    d16f:	00 00 00 00 
    d173:	48 c7 85 80 e9 ff ff 	movq   $0x0,-0x1680(%rbp)
    d17a:	00 00 00 00 
    d17e:	48 8d 05 a7 3e 01 00 	lea    0x13ea7(%rip),%rax        # 2102c <g_27>
    d185:	48 89 85 88 e9 ff ff 	mov    %rax,-0x1678(%rbp)
    d18c:	48 c7 85 90 e9 ff ff 	movq   $0x0,-0x1670(%rbp)
    d193:	00 00 00 00 
    d197:	48 c7 85 98 e9 ff ff 	movq   $0x0,-0x1668(%rbp)
    d19e:	00 00 00 00 
    d1a2:	48 8d 05 7b 3e 01 00 	lea    0x13e7b(%rip),%rax        # 21024 <g_2>
    d1a9:	48 89 85 a0 e9 ff ff 	mov    %rax,-0x1660(%rbp)
    d1b0:	48 8d 85 c4 c8 ff ff 	lea    -0x373c(%rbp),%rax
    d1b7:	48 89 85 a8 e9 ff ff 	mov    %rax,-0x1658(%rbp)
    d1be:	48 8d 05 1f 3f 01 00 	lea    0x13f1f(%rip),%rax        # 210e4 <g_147>
    d1c5:	48 89 85 b0 e9 ff ff 	mov    %rax,-0x1650(%rbp)
    d1cc:	48 8d 85 f4 c4 ff ff 	lea    -0x3b0c(%rbp),%rax
    d1d3:	48 89 85 b8 e9 ff ff 	mov    %rax,-0x1648(%rbp)
    d1da:	48 8d 85 0c c5 ff ff 	lea    -0x3af4(%rbp),%rax
    d1e1:	48 89 85 c0 e9 ff ff 	mov    %rax,-0x1640(%rbp)
    d1e8:	48 8d 85 04 c5 ff ff 	lea    -0x3afc(%rbp),%rax
    d1ef:	48 89 85 c8 e9 ff ff 	mov    %rax,-0x1638(%rbp)
    d1f6:	48 8d 05 a3 3e 01 00 	lea    0x13ea3(%rip),%rax        # 210a0 <g_80>
    d1fd:	48 89 85 d0 e9 ff ff 	mov    %rax,-0x1630(%rbp)
    d204:	48 8d 85 f8 c4 ff ff 	lea    -0x3b08(%rbp),%rax
    d20b:	48 89 85 d8 e9 ff ff 	mov    %rax,-0x1628(%rbp)
    d212:	48 8d 05 cb 3e 01 00 	lea    0x13ecb(%rip),%rax        # 210e4 <g_147>
    d219:	48 89 85 e0 e9 ff ff 	mov    %rax,-0x1620(%rbp)
    d220:	48 8d 85 f4 c4 ff ff 	lea    -0x3b0c(%rbp),%rax
    d227:	48 89 85 e8 e9 ff ff 	mov    %rax,-0x1618(%rbp)
    d22e:	48 8d 85 18 c5 ff ff 	lea    -0x3ae8(%rbp),%rax
    d235:	48 89 85 f0 e9 ff ff 	mov    %rax,-0x1610(%rbp)
    d23c:	48 8d 05 5d 3e 01 00 	lea    0x13e5d(%rip),%rax        # 210a0 <g_80>
    d243:	48 89 85 f8 e9 ff ff 	mov    %rax,-0x1608(%rbp)
    d24a:	48 8d 85 c4 c8 ff ff 	lea    -0x373c(%rbp),%rax
    d251:	48 89 85 00 ea ff ff 	mov    %rax,-0x1600(%rbp)
    d258:	48 8d 85 f8 c4 ff ff 	lea    -0x3b08(%rbp),%rax
    d25f:	48 89 85 08 ea ff ff 	mov    %rax,-0x15f8(%rbp)
    d266:	48 c7 85 10 ea ff ff 	movq   $0x0,-0x15f0(%rbp)
    d26d:	00 00 00 00 
    d271:	48 8d 05 28 3e 01 00 	lea    0x13e28(%rip),%rax        # 210a0 <g_80>
    d278:	48 89 85 18 ea ff ff 	mov    %rax,-0x15e8(%rbp)
    d27f:	48 8d 85 0c c5 ff ff 	lea    -0x3af4(%rbp),%rax
    d286:	48 89 85 20 ea ff ff 	mov    %rax,-0x15e0(%rbp)
    d28d:	48 8d 85 f8 c4 ff ff 	lea    -0x3b08(%rbp),%rax
    d294:	48 89 85 28 ea ff ff 	mov    %rax,-0x15d8(%rbp)
    d29b:	48 8d 85 08 c5 ff ff 	lea    -0x3af8(%rbp),%rax
    d2a2:	48 89 85 30 ea ff ff 	mov    %rax,-0x15d0(%rbp)
    d2a9:	48 8d 85 c4 c8 ff ff 	lea    -0x373c(%rbp),%rax
    d2b0:	48 89 85 38 ea ff ff 	mov    %rax,-0x15c8(%rbp)
    d2b7:	48 8d 05 26 3e 01 00 	lea    0x13e26(%rip),%rax        # 210e4 <g_147>
    d2be:	48 89 85 40 ea ff ff 	mov    %rax,-0x15c0(%rbp)
    d2c5:	48 8d 85 c4 c8 ff ff 	lea    -0x373c(%rbp),%rax
    d2cc:	48 89 85 48 ea ff ff 	mov    %rax,-0x15b8(%rbp)
    d2d3:	48 c7 85 50 ea ff ff 	movq   $0x0,-0x15b0(%rbp)
    d2da:	00 00 00 00 
    d2de:	48 8d 85 14 c5 ff ff 	lea    -0x3aec(%rbp),%rax
    d2e5:	48 89 85 58 ea ff ff 	mov    %rax,-0x15a8(%rbp)
    d2ec:	48 8d 05 39 3d 01 00 	lea    0x13d39(%rip),%rax        # 2102c <g_27>
    d2f3:	48 89 85 60 ea ff ff 	mov    %rax,-0x15a0(%rbp)
    d2fa:	48 c7 85 68 ea ff ff 	movq   $0x0,-0x1598(%rbp)
    d301:	00 00 00 00 
    d305:	48 8d 05 20 3d 01 00 	lea    0x13d20(%rip),%rax        # 2102c <g_27>
    d30c:	48 89 85 70 ea ff ff 	mov    %rax,-0x1590(%rbp)
    d313:	48 8d 85 08 c5 ff ff 	lea    -0x3af8(%rbp),%rax
    d31a:	48 89 85 78 ea ff ff 	mov    %rax,-0x1588(%rbp)
    d321:	48 8d 85 00 c5 ff ff 	lea    -0x3b00(%rbp),%rax
    d328:	48 89 85 80 ea ff ff 	mov    %rax,-0x1580(%rbp)
    d32f:	48 c7 85 88 ea ff ff 	movq   $0x0,-0x1578(%rbp)
    d336:	00 00 00 00 
    d33a:	48 8d 85 0c c5 ff ff 	lea    -0x3af4(%rbp),%rax
    d341:	48 89 85 90 ea ff ff 	mov    %rax,-0x1570(%rbp)
    d348:	48 8d 05 95 3d 01 00 	lea    0x13d95(%rip),%rax        # 210e4 <g_147>
    d34f:	48 89 85 98 ea ff ff 	mov    %rax,-0x1568(%rbp)
    d356:	48 8d 85 c4 c8 ff ff 	lea    -0x373c(%rbp),%rax
    d35d:	48 89 85 a0 ea ff ff 	mov    %rax,-0x1560(%rbp)
    d364:	48 8d 05 79 3d 01 00 	lea    0x13d79(%rip),%rax        # 210e4 <g_147>
    d36b:	48 89 85 a8 ea ff ff 	mov    %rax,-0x1558(%rbp)
    d372:	48 8d 05 6b 3d 01 00 	lea    0x13d6b(%rip),%rax        # 210e4 <g_147>
    d379:	48 89 85 b0 ea ff ff 	mov    %rax,-0x1550(%rbp)
    d380:	48 8d 85 18 c5 ff ff 	lea    -0x3ae8(%rbp),%rax
    d387:	48 89 85 b8 ea ff ff 	mov    %rax,-0x1548(%rbp)
    d38e:	48 c7 85 c0 ea ff ff 	movq   $0x0,-0x1540(%rbp)
    d395:	00 00 00 00 
    d399:	48 8d 85 18 c5 ff ff 	lea    -0x3ae8(%rbp),%rax
    d3a0:	48 89 85 c8 ea ff ff 	mov    %rax,-0x1538(%rbp)
    d3a7:	48 8d 85 f8 c4 ff ff 	lea    -0x3b08(%rbp),%rax
    d3ae:	48 89 85 d0 ea ff ff 	mov    %rax,-0x1530(%rbp)
    d3b5:	48 8d 85 10 c5 ff ff 	lea    -0x3af0(%rbp),%rax
    d3bc:	48 89 85 d8 ea ff ff 	mov    %rax,-0x1528(%rbp)
    d3c3:	48 8d 05 5a 3c 01 00 	lea    0x13c5a(%rip),%rax        # 21024 <g_2>
    d3ca:	48 89 85 e0 ea ff ff 	mov    %rax,-0x1520(%rbp)
    d3d1:	48 8d 85 04 c5 ff ff 	lea    -0x3afc(%rbp),%rax
    d3d8:	48 89 85 e8 ea ff ff 	mov    %rax,-0x1518(%rbp)
    d3df:	48 8d 05 fe 3c 01 00 	lea    0x13cfe(%rip),%rax        # 210e4 <g_147>
    d3e6:	48 89 85 f0 ea ff ff 	mov    %rax,-0x1510(%rbp)
    d3ed:	48 8d 05 38 3c 01 00 	lea    0x13c38(%rip),%rax        # 2102c <g_27>
    d3f4:	48 89 85 f8 ea ff ff 	mov    %rax,-0x1508(%rbp)
    d3fb:	48 8d 85 f4 c4 ff ff 	lea    -0x3b0c(%rbp),%rax
    d402:	48 89 85 00 eb ff ff 	mov    %rax,-0x1500(%rbp)
    d409:	48 8d 05 90 3c 01 00 	lea    0x13c90(%rip),%rax        # 210a0 <g_80>
    d410:	48 89 85 08 eb ff ff 	mov    %rax,-0x14f8(%rbp)
    d417:	48 8d 05 06 3c 01 00 	lea    0x13c06(%rip),%rax        # 21024 <g_2>
    d41e:	48 89 85 10 eb ff ff 	mov    %rax,-0x14f0(%rbp)
    d425:	48 8d 05 74 3c 01 00 	lea    0x13c74(%rip),%rax        # 210a0 <g_80>
    d42c:	48 89 85 18 eb ff ff 	mov    %rax,-0x14e8(%rbp)
    d433:	48 8d 05 ea 3b 01 00 	lea    0x13bea(%rip),%rax        # 21024 <g_2>
    d43a:	48 89 85 20 eb ff ff 	mov    %rax,-0x14e0(%rbp)
    d441:	48 8d 05 58 3c 01 00 	lea    0x13c58(%rip),%rax        # 210a0 <g_80>
    d448:	48 89 85 28 eb ff ff 	mov    %rax,-0x14d8(%rbp)
    d44f:	48 8d 85 f4 c4 ff ff 	lea    -0x3b0c(%rbp),%rax
    d456:	48 89 85 30 eb ff ff 	mov    %rax,-0x14d0(%rbp)
    d45d:	48 8d 85 f4 c4 ff ff 	lea    -0x3b0c(%rbp),%rax
    d464:	48 89 85 38 eb ff ff 	mov    %rax,-0x14c8(%rbp)
    d46b:	48 8d 85 00 c5 ff ff 	lea    -0x3b00(%rbp),%rax
    d472:	48 89 85 40 eb ff ff 	mov    %rax,-0x14c0(%rbp)
    d479:	48 8d 85 0c c5 ff ff 	lea    -0x3af4(%rbp),%rax
    d480:	48 89 85 48 eb ff ff 	mov    %rax,-0x14b8(%rbp)
    d487:	48 8d 85 c4 c8 ff ff 	lea    -0x373c(%rbp),%rax
    d48e:	48 89 85 50 eb ff ff 	mov    %rax,-0x14b0(%rbp)
    d495:	48 8d 05 88 3b 01 00 	lea    0x13b88(%rip),%rax        # 21024 <g_2>
    d49c:	48 89 85 58 eb ff ff 	mov    %rax,-0x14a8(%rbp)
    d4a3:	48 8d 05 82 3b 01 00 	lea    0x13b82(%rip),%rax        # 2102c <g_27>
    d4aa:	48 89 85 60 eb ff ff 	mov    %rax,-0x14a0(%rbp)
    d4b1:	48 8d 85 04 c5 ff ff 	lea    -0x3afc(%rbp),%rax
    d4b8:	48 89 85 68 eb ff ff 	mov    %rax,-0x1498(%rbp)
    d4bf:	48 8d 05 da 3b 01 00 	lea    0x13bda(%rip),%rax        # 210a0 <g_80>
    d4c6:	48 89 85 70 eb ff ff 	mov    %rax,-0x1490(%rbp)
    d4cd:	48 8d 85 f8 c4 ff ff 	lea    -0x3b08(%rbp),%rax
    d4d4:	48 89 85 78 eb ff ff 	mov    %rax,-0x1488(%rbp)
    d4db:	48 8d 85 c4 c8 ff ff 	lea    -0x373c(%rbp),%rax
    d4e2:	48 89 85 80 eb ff ff 	mov    %rax,-0x1480(%rbp)
    d4e9:	48 8d 85 f4 c4 ff ff 	lea    -0x3b0c(%rbp),%rax
    d4f0:	48 89 85 88 eb ff ff 	mov    %rax,-0x1478(%rbp)
    d4f7:	48 8d 85 0c c5 ff ff 	lea    -0x3af4(%rbp),%rax
    d4fe:	48 89 85 90 eb ff ff 	mov    %rax,-0x1470(%rbp)
    d505:	48 8d 85 c4 c8 ff ff 	lea    -0x373c(%rbp),%rax
    d50c:	48 89 85 98 eb ff ff 	mov    %rax,-0x1468(%rbp)
    d513:	48 8d 85 fc c4 ff ff 	lea    -0x3b04(%rbp),%rax
    d51a:	48 89 85 a0 eb ff ff 	mov    %rax,-0x1460(%rbp)
    d521:	48 8d 85 04 c5 ff ff 	lea    -0x3afc(%rbp),%rax
    d528:	48 89 85 a8 eb ff ff 	mov    %rax,-0x1458(%rbp)
    d52f:	48 8d 05 ee 3a 01 00 	lea    0x13aee(%rip),%rax        # 21024 <g_2>
    d536:	48 89 85 b0 eb ff ff 	mov    %rax,-0x1450(%rbp)
    d53d:	48 c7 85 b8 eb ff ff 	movq   $0x0,-0x1448(%rbp)
    d544:	00 00 00 00 
    d548:	48 8d 05 dd 3a 01 00 	lea    0x13add(%rip),%rax        # 2102c <g_27>
    d54f:	48 89 85 c0 eb ff ff 	mov    %rax,-0x1440(%rbp)
    d556:	48 8d 85 0c c5 ff ff 	lea    -0x3af4(%rbp),%rax
    d55d:	48 89 85 c8 eb ff ff 	mov    %rax,-0x1438(%rbp)
    d564:	48 8d 85 fc c4 ff ff 	lea    -0x3b04(%rbp),%rax
    d56b:	48 89 85 d0 eb ff ff 	mov    %rax,-0x1430(%rbp)
    d572:	48 8d 85 08 c5 ff ff 	lea    -0x3af8(%rbp),%rax
    d579:	48 89 85 d8 eb ff ff 	mov    %rax,-0x1428(%rbp)
    d580:	48 8d 05 a5 3a 01 00 	lea    0x13aa5(%rip),%rax        # 2102c <g_27>
    d587:	48 89 85 e0 eb ff ff 	mov    %rax,-0x1420(%rbp)
    d58e:	48 c7 85 e8 eb ff ff 	movq   $0x0,-0x1418(%rbp)
    d595:	00 00 00 00 
    d599:	48 8d 05 84 3a 01 00 	lea    0x13a84(%rip),%rax        # 21024 <g_2>
    d5a0:	48 89 85 f0 eb ff ff 	mov    %rax,-0x1410(%rbp)
    d5a7:	48 8d 05 36 3b 01 00 	lea    0x13b36(%rip),%rax        # 210e4 <g_147>
    d5ae:	48 89 85 f8 eb ff ff 	mov    %rax,-0x1408(%rbp)
    d5b5:	48 8d 85 c4 c8 ff ff 	lea    -0x373c(%rbp),%rax
    d5bc:	48 89 85 00 ec ff ff 	mov    %rax,-0x1400(%rbp)
    d5c3:	48 8d 05 5a 3a 01 00 	lea    0x13a5a(%rip),%rax        # 21024 <g_2>
    d5ca:	48 89 85 08 ec ff ff 	mov    %rax,-0x13f8(%rbp)
    d5d1:	48 c7 85 10 ec ff ff 	movq   $0x0,-0x13f0(%rbp)
    d5d8:	00 00 00 00 
    d5dc:	48 8d 05 bd 3a 01 00 	lea    0x13abd(%rip),%rax        # 210a0 <g_80>
    d5e3:	48 89 85 18 ec ff ff 	mov    %rax,-0x13e8(%rbp)
    d5ea:	48 8d 85 14 c5 ff ff 	lea    -0x3aec(%rbp),%rax
    d5f1:	48 89 85 20 ec ff ff 	mov    %rax,-0x13e0(%rbp)
    d5f8:	48 8d 85 18 c5 ff ff 	lea    -0x3ae8(%rbp),%rax
    d5ff:	48 89 85 28 ec ff ff 	mov    %rax,-0x13d8(%rbp)
    d606:	48 8d 05 d7 3a 01 00 	lea    0x13ad7(%rip),%rax        # 210e4 <g_147>
    d60d:	48 89 85 30 ec ff ff 	mov    %rax,-0x13d0(%rbp)
    d614:	48 8d 85 c4 c8 ff ff 	lea    -0x373c(%rbp),%rax
    d61b:	48 89 85 38 ec ff ff 	mov    %rax,-0x13c8(%rbp)
    d622:	48 8d 05 bb 3a 01 00 	lea    0x13abb(%rip),%rax        # 210e4 <g_147>
    d629:	48 89 85 40 ec ff ff 	mov    %rax,-0x13c0(%rbp)
    d630:	48 8d 05 f5 39 01 00 	lea    0x139f5(%rip),%rax        # 2102c <g_27>
    d637:	48 89 85 48 ec ff ff 	mov    %rax,-0x13b8(%rbp)
    d63e:	48 8d 05 9f 3a 01 00 	lea    0x13a9f(%rip),%rax        # 210e4 <g_147>
    d645:	48 89 85 50 ec ff ff 	mov    %rax,-0x13b0(%rbp)
    d64c:	48 8d 85 f4 c4 ff ff 	lea    -0x3b0c(%rbp),%rax
    d653:	48 89 85 58 ec ff ff 	mov    %rax,-0x13a8(%rbp)
    d65a:	48 8d 85 14 c5 ff ff 	lea    -0x3aec(%rbp),%rax
    d661:	48 89 85 60 ec ff ff 	mov    %rax,-0x13a0(%rbp)
    d668:	48 8d 85 c4 c8 ff ff 	lea    -0x373c(%rbp),%rax
    d66f:	48 89 85 68 ec ff ff 	mov    %rax,-0x1398(%rbp)
    d676:	48 c7 85 70 ec ff ff 	movq   $0x0,-0x1390(%rbp)
    d67d:	00 00 00 00 
    d681:	48 8d 85 c4 c8 ff ff 	lea    -0x373c(%rbp),%rax
    d688:	48 89 85 78 ec ff ff 	mov    %rax,-0x1388(%rbp)
    d68f:	48 8d 85 10 c5 ff ff 	lea    -0x3af0(%rbp),%rax
    d696:	48 89 85 80 ec ff ff 	mov    %rax,-0x1380(%rbp)
    d69d:	48 c7 85 88 ec ff ff 	movq   $0x0,-0x1378(%rbp)
    d6a4:	00 00 00 00 
    d6a8:	48 8d 85 18 c5 ff ff 	lea    -0x3ae8(%rbp),%rax
    d6af:	48 89 85 90 ec ff ff 	mov    %rax,-0x1370(%rbp)
    d6b6:	48 8d 85 f8 c4 ff ff 	lea    -0x3b08(%rbp),%rax
    d6bd:	48 89 85 98 ec ff ff 	mov    %rax,-0x1368(%rbp)
    d6c4:	48 8d 85 00 c5 ff ff 	lea    -0x3b00(%rbp),%rax
    d6cb:	48 89 85 a0 ec ff ff 	mov    %rax,-0x1360(%rbp)
    d6d2:	48 8d 85 fc c4 ff ff 	lea    -0x3b04(%rbp),%rax
    d6d9:	48 89 85 a8 ec ff ff 	mov    %rax,-0x1358(%rbp)
    d6e0:	48 8d 85 c4 c8 ff ff 	lea    -0x373c(%rbp),%rax
    d6e7:	48 89 85 b0 ec ff ff 	mov    %rax,-0x1350(%rbp)
    d6ee:	48 8d 05 ef 39 01 00 	lea    0x139ef(%rip),%rax        # 210e4 <g_147>
    d6f5:	48 89 85 b8 ec ff ff 	mov    %rax,-0x1348(%rbp)
    d6fc:	48 8d 85 0c c5 ff ff 	lea    -0x3af4(%rbp),%rax
    d703:	48 89 85 c0 ec ff ff 	mov    %rax,-0x1340(%rbp)
    d70a:	48 8d 05 1b 39 01 00 	lea    0x1391b(%rip),%rax        # 2102c <g_27>
    d711:	48 89 85 c8 ec ff ff 	mov    %rax,-0x1338(%rbp)
    d718:	48 8d 85 04 c5 ff ff 	lea    -0x3afc(%rbp),%rax
    d71f:	48 89 85 d0 ec ff ff 	mov    %rax,-0x1330(%rbp)
    d726:	48 8d 85 08 c5 ff ff 	lea    -0x3af8(%rbp),%rax
    d72d:	48 89 85 d8 ec ff ff 	mov    %rax,-0x1328(%rbp)
    d734:	48 8d 85 14 c5 ff ff 	lea    -0x3aec(%rbp),%rax
    d73b:	48 89 85 e0 ec ff ff 	mov    %rax,-0x1320(%rbp)
    d742:	48 8d 85 f8 c4 ff ff 	lea    -0x3b08(%rbp),%rax
    d749:	48 89 85 e8 ec ff ff 	mov    %rax,-0x1318(%rbp)
    d750:	48 8d 85 f8 c4 ff ff 	lea    -0x3b08(%rbp),%rax
    d757:	48 89 85 f0 ec ff ff 	mov    %rax,-0x1310(%rbp)
    d75e:	48 8d 85 14 c5 ff ff 	lea    -0x3aec(%rbp),%rax
    d765:	48 89 85 f8 ec ff ff 	mov    %rax,-0x1308(%rbp)
    d76c:	48 8d 85 0c c5 ff ff 	lea    -0x3af4(%rbp),%rax
    d773:	48 89 85 00 ed ff ff 	mov    %rax,-0x1300(%rbp)
    d77a:	48 8d 85 0c c5 ff ff 	lea    -0x3af4(%rbp),%rax
    d781:	48 89 85 08 ed ff ff 	mov    %rax,-0x12f8(%rbp)
    d788:	48 8d 05 11 39 01 00 	lea    0x13911(%rip),%rax        # 210a0 <g_80>
    d78f:	48 89 85 10 ed ff ff 	mov    %rax,-0x12f0(%rbp)
    d796:	48 8d 85 18 c5 ff ff 	lea    -0x3ae8(%rbp),%rax
    d79d:	48 89 85 18 ed ff ff 	mov    %rax,-0x12e8(%rbp)
    d7a4:	48 8d 85 f4 c4 ff ff 	lea    -0x3b0c(%rbp),%rax
    d7ab:	48 89 85 20 ed ff ff 	mov    %rax,-0x12e0(%rbp)
    d7b2:	48 8d 85 18 c5 ff ff 	lea    -0x3ae8(%rbp),%rax
    d7b9:	48 89 85 28 ed ff ff 	mov    %rax,-0x12d8(%rbp)
    d7c0:	48 8d 85 08 c5 ff ff 	lea    -0x3af8(%rbp),%rax
    d7c7:	48 89 85 30 ed ff ff 	mov    %rax,-0x12d0(%rbp)
    d7ce:	48 8d 85 04 c5 ff ff 	lea    -0x3afc(%rbp),%rax
    d7d5:	48 89 85 38 ed ff ff 	mov    %rax,-0x12c8(%rbp)
    d7dc:	48 8d 05 49 38 01 00 	lea    0x13849(%rip),%rax        # 2102c <g_27>
    d7e3:	48 89 85 40 ed ff ff 	mov    %rax,-0x12c0(%rbp)
    d7ea:	48 8d 05 33 38 01 00 	lea    0x13833(%rip),%rax        # 21024 <g_2>
    d7f1:	48 89 85 48 ed ff ff 	mov    %rax,-0x12b8(%rbp)
    d7f8:	48 c7 85 50 ed ff ff 	movq   $0x0,-0x12b0(%rbp)
    d7ff:	00 00 00 00 
    d803:	48 c7 85 58 ed ff ff 	movq   $0x0,-0x12a8(%rbp)
    d80a:	00 00 00 00 
    d80e:	48 8d 05 cf 38 01 00 	lea    0x138cf(%rip),%rax        # 210e4 <g_147>
    d815:	48 89 85 60 ed ff ff 	mov    %rax,-0x12a0(%rbp)
    d81c:	48 8d 85 08 c5 ff ff 	lea    -0x3af8(%rbp),%rax
    d823:	48 89 85 68 ed ff ff 	mov    %rax,-0x1298(%rbp)
    d82a:	48 8d 05 fb 37 01 00 	lea    0x137fb(%rip),%rax        # 2102c <g_27>
    d831:	48 89 85 70 ed ff ff 	mov    %rax,-0x1290(%rbp)
    d838:	48 8d 85 10 c5 ff ff 	lea    -0x3af0(%rbp),%rax
    d83f:	48 89 85 78 ed ff ff 	mov    %rax,-0x1288(%rbp)
    d846:	48 c7 85 80 ed ff ff 	movq   $0x0,-0x1280(%rbp)
    d84d:	00 00 00 00 
    d851:	48 8d 85 18 c5 ff ff 	lea    -0x3ae8(%rbp),%rax
    d858:	48 89 85 88 ed ff ff 	mov    %rax,-0x1278(%rbp)
    d85f:	48 8d 85 c4 c8 ff ff 	lea    -0x373c(%rbp),%rax
    d866:	48 89 85 90 ed ff ff 	mov    %rax,-0x1270(%rbp)
    d86d:	48 8d 85 10 c5 ff ff 	lea    -0x3af0(%rbp),%rax
    d874:	48 89 85 98 ed ff ff 	mov    %rax,-0x1268(%rbp)
    d87b:	48 c7 85 a0 ed ff ff 	movq   $0x0,-0x1260(%rbp)
    d882:	00 00 00 00 
    d886:	48 8d 05 13 38 01 00 	lea    0x13813(%rip),%rax        # 210a0 <g_80>
    d88d:	48 89 85 a8 ed ff ff 	mov    %rax,-0x1258(%rbp)
    d894:	48 8d 05 49 38 01 00 	lea    0x13849(%rip),%rax        # 210e4 <g_147>
    d89b:	48 89 85 b0 ed ff ff 	mov    %rax,-0x1250(%rbp)
    d8a2:	48 8d 85 04 c5 ff ff 	lea    -0x3afc(%rbp),%rax
    d8a9:	48 89 85 b8 ed ff ff 	mov    %rax,-0x1248(%rbp)
    d8b0:	48 8d 05 e9 37 01 00 	lea    0x137e9(%rip),%rax        # 210a0 <g_80>
    d8b7:	48 89 85 c0 ed ff ff 	mov    %rax,-0x1240(%rbp)
    d8be:	48 8d 05 1f 38 01 00 	lea    0x1381f(%rip),%rax        # 210e4 <g_147>
    d8c5:	48 89 85 c8 ed ff ff 	mov    %rax,-0x1238(%rbp)
    d8cc:	48 8d 85 04 c5 ff ff 	lea    -0x3afc(%rbp),%rax
    d8d3:	48 89 85 d0 ed ff ff 	mov    %rax,-0x1230(%rbp)
    d8da:	48 8d 85 0c c5 ff ff 	lea    -0x3af4(%rbp),%rax
    d8e1:	48 89 85 d8 ed ff ff 	mov    %rax,-0x1228(%rbp)
    d8e8:	48 8d 85 c4 c8 ff ff 	lea    -0x373c(%rbp),%rax
    d8ef:	48 89 85 e0 ed ff ff 	mov    %rax,-0x1220(%rbp)
    d8f6:	48 8d 85 f8 c4 ff ff 	lea    -0x3b08(%rbp),%rax
    d8fd:	48 89 85 e8 ed ff ff 	mov    %rax,-0x1218(%rbp)
    d904:	48 8d 05 d9 37 01 00 	lea    0x137d9(%rip),%rax        # 210e4 <g_147>
    d90b:	48 89 85 f0 ed ff ff 	mov    %rax,-0x1210(%rbp)
    d912:	48 8d 85 f8 c4 ff ff 	lea    -0x3b08(%rbp),%rax
    d919:	48 89 85 f8 ed ff ff 	mov    %rax,-0x1208(%rbp)
    d920:	48 8d 85 c4 c8 ff ff 	lea    -0x373c(%rbp),%rax
    d927:	48 89 85 00 ee ff ff 	mov    %rax,-0x1200(%rbp)
    d92e:	48 8d 85 c4 c8 ff ff 	lea    -0x373c(%rbp),%rax
    d935:	48 89 85 08 ee ff ff 	mov    %rax,-0x11f8(%rbp)
    d93c:	48 8d 85 18 c5 ff ff 	lea    -0x3ae8(%rbp),%rax
    d943:	48 89 85 10 ee ff ff 	mov    %rax,-0x11f0(%rbp)
    d94a:	48 8d 85 c4 c8 ff ff 	lea    -0x373c(%rbp),%rax
    d951:	48 89 85 18 ee ff ff 	mov    %rax,-0x11e8(%rbp)
    d958:	48 8d 85 18 c5 ff ff 	lea    -0x3ae8(%rbp),%rax
    d95f:	48 89 85 20 ee ff ff 	mov    %rax,-0x11e0(%rbp)
    d966:	48 8d 05 33 37 01 00 	lea    0x13733(%rip),%rax        # 210a0 <g_80>
    d96d:	48 89 85 28 ee ff ff 	mov    %rax,-0x11d8(%rbp)
    d974:	48 8d 85 c4 c8 ff ff 	lea    -0x373c(%rbp),%rax
    d97b:	48 89 85 30 ee ff ff 	mov    %rax,-0x11d0(%rbp)
    d982:	48 8d 05 9b 36 01 00 	lea    0x1369b(%rip),%rax        # 21024 <g_2>
    d989:	48 89 85 38 ee ff ff 	mov    %rax,-0x11c8(%rbp)
    d990:	48 8d 85 fc c4 ff ff 	lea    -0x3b04(%rbp),%rax
    d997:	48 89 85 40 ee ff ff 	mov    %rax,-0x11c0(%rbp)
    d99e:	48 c7 85 48 ee ff ff 	movq   $0x0,-0x11b8(%rbp)
    d9a5:	00 00 00 00 
    d9a9:	48 8d 85 f8 c4 ff ff 	lea    -0x3b08(%rbp),%rax
    d9b0:	48 89 85 50 ee ff ff 	mov    %rax,-0x11b0(%rbp)
    d9b7:	48 8d 85 04 c5 ff ff 	lea    -0x3afc(%rbp),%rax
    d9be:	48 89 85 58 ee ff ff 	mov    %rax,-0x11a8(%rbp)
    d9c5:	48 8d 05 d4 36 01 00 	lea    0x136d4(%rip),%rax        # 210a0 <g_80>
    d9cc:	48 89 85 60 ee ff ff 	mov    %rax,-0x11a0(%rbp)
    d9d3:	48 c7 85 68 ee ff ff 	movq   $0x0,-0x1198(%rbp)
    d9da:	00 00 00 00 
    d9de:	48 8d 85 f8 c4 ff ff 	lea    -0x3b08(%rbp),%rax
    d9e5:	48 89 85 70 ee ff ff 	mov    %rax,-0x1190(%rbp)
    d9ec:	48 8d 85 10 c5 ff ff 	lea    -0x3af0(%rbp),%rax
    d9f3:	48 89 85 78 ee ff ff 	mov    %rax,-0x1188(%rbp)
    d9fa:	48 8d 05 9f 36 01 00 	lea    0x1369f(%rip),%rax        # 210a0 <g_80>
    da01:	48 89 85 80 ee ff ff 	mov    %rax,-0x1180(%rbp)
    da08:	48 8d 05 1d 36 01 00 	lea    0x1361d(%rip),%rax        # 2102c <g_27>
    da0f:	48 89 85 88 ee ff ff 	mov    %rax,-0x1178(%rbp)
    da16:	48 8d 85 0c c5 ff ff 	lea    -0x3af4(%rbp),%rax
    da1d:	48 89 85 90 ee ff ff 	mov    %rax,-0x1170(%rbp)
    da24:	48 8d 05 b9 36 01 00 	lea    0x136b9(%rip),%rax        # 210e4 <g_147>
    da2b:	48 89 85 98 ee ff ff 	mov    %rax,-0x1168(%rbp)
    da32:	48 8d 85 18 c5 ff ff 	lea    -0x3ae8(%rbp),%rax
    da39:	48 89 85 a0 ee ff ff 	mov    %rax,-0x1160(%rbp)
    da40:	48 8d 85 f4 c4 ff ff 	lea    -0x3b0c(%rbp),%rax
    da47:	48 89 85 a8 ee ff ff 	mov    %rax,-0x1158(%rbp)
    da4e:	48 8d 85 f8 c4 ff ff 	lea    -0x3b08(%rbp),%rax
    da55:	48 89 85 b0 ee ff ff 	mov    %rax,-0x1150(%rbp)
    da5c:	48 8d 05 c9 35 01 00 	lea    0x135c9(%rip),%rax        # 2102c <g_27>
    da63:	48 89 85 b8 ee ff ff 	mov    %rax,-0x1148(%rbp)
    da6a:	48 8d 85 0c c5 ff ff 	lea    -0x3af4(%rbp),%rax
    da71:	48 89 85 c0 ee ff ff 	mov    %rax,-0x1140(%rbp)
    da78:	48 8d 85 14 c5 ff ff 	lea    -0x3aec(%rbp),%rax
    da7f:	48 89 85 c8 ee ff ff 	mov    %rax,-0x1138(%rbp)
    da86:	48 c7 85 d0 ee ff ff 	movq   $0x0,-0x1130(%rbp)
    da8d:	00 00 00 00 
    da91:	48 8d 85 f8 c4 ff ff 	lea    -0x3b08(%rbp),%rax
    da98:	48 89 85 d8 ee ff ff 	mov    %rax,-0x1128(%rbp)
    da9f:	48 c7 85 e0 ee ff ff 	movq   $0x0,-0x1120(%rbp)
    daa6:	00 00 00 00 
    daaa:	48 8d 05 33 36 01 00 	lea    0x13633(%rip),%rax        # 210e4 <g_147>
    dab1:	48 89 85 e8 ee ff ff 	mov    %rax,-0x1118(%rbp)
    dab8:	48 8d 85 10 c5 ff ff 	lea    -0x3af0(%rbp),%rax
    dabf:	48 89 85 f0 ee ff ff 	mov    %rax,-0x1110(%rbp)
    dac6:	48 8d 05 5f 35 01 00 	lea    0x1355f(%rip),%rax        # 2102c <g_27>
    dacd:	48 89 85 f8 ee ff ff 	mov    %rax,-0x1108(%rbp)
    dad4:	48 8d 85 04 c5 ff ff 	lea    -0x3afc(%rbp),%rax
    dadb:	48 89 85 00 ef ff ff 	mov    %rax,-0x1100(%rbp)
    dae2:	48 8d 85 0c c5 ff ff 	lea    -0x3af4(%rbp),%rax
    dae9:	48 89 85 08 ef ff ff 	mov    %rax,-0x10f8(%rbp)
    daf0:	48 8d 85 00 c5 ff ff 	lea    -0x3b00(%rbp),%rax
    daf7:	48 89 85 10 ef ff ff 	mov    %rax,-0x10f0(%rbp)
    dafe:	48 8d 85 f8 c4 ff ff 	lea    -0x3b08(%rbp),%rax
    db05:	48 89 85 18 ef ff ff 	mov    %rax,-0x10e8(%rbp)
    db0c:	48 c7 85 20 ef ff ff 	movq   $0x0,-0x10e0(%rbp)
    db13:	00 00 00 00 
    db17:	48 c7 85 28 ef ff ff 	movq   $0x0,-0x10d8(%rbp)
    db1e:	00 00 00 00 
    db22:	48 8d 85 f8 c4 ff ff 	lea    -0x3b08(%rbp),%rax
    db29:	48 89 85 30 ef ff ff 	mov    %rax,-0x10d0(%rbp)
    db30:	48 8d 05 ad 35 01 00 	lea    0x135ad(%rip),%rax        # 210e4 <g_147>
    db37:	48 89 85 38 ef ff ff 	mov    %rax,-0x10c8(%rbp)
    db3e:	48 8d 85 c4 c8 ff ff 	lea    -0x373c(%rbp),%rax
    db45:	48 89 85 40 ef ff ff 	mov    %rax,-0x10c0(%rbp)
    db4c:	48 8d 05 d1 34 01 00 	lea    0x134d1(%rip),%rax        # 21024 <g_2>
    db53:	48 89 85 48 ef ff ff 	mov    %rax,-0x10b8(%rbp)
    db5a:	48 8d 85 f8 c4 ff ff 	lea    -0x3b08(%rbp),%rax
    db61:	48 89 85 50 ef ff ff 	mov    %rax,-0x10b0(%rbp)
    db68:	48 c7 85 58 ef ff ff 	movq   $0x0,-0x10a8(%rbp)
    db6f:	00 00 00 00 
    db73:	48 8d 85 c4 c8 ff ff 	lea    -0x373c(%rbp),%rax
    db7a:	48 89 85 60 ef ff ff 	mov    %rax,-0x10a0(%rbp)
    db81:	48 c7 85 68 ef ff ff 	movq   $0x0,-0x1098(%rbp)
    db88:	00 00 00 00 
    db8c:	48 8d 85 f4 c4 ff ff 	lea    -0x3b0c(%rbp),%rax
    db93:	48 89 85 70 ef ff ff 	mov    %rax,-0x1090(%rbp)
    db9a:	48 8d 85 14 c5 ff ff 	lea    -0x3aec(%rbp),%rax
    dba1:	48 89 85 78 ef ff ff 	mov    %rax,-0x1088(%rbp)
    dba8:	48 8d 05 35 35 01 00 	lea    0x13535(%rip),%rax        # 210e4 <g_147>
    dbaf:	48 89 85 80 ef ff ff 	mov    %rax,-0x1080(%rbp)
    dbb6:	48 8d 85 04 c5 ff ff 	lea    -0x3afc(%rbp),%rax
    dbbd:	48 89 85 88 ef ff ff 	mov    %rax,-0x1078(%rbp)
    dbc4:	48 8d 05 19 35 01 00 	lea    0x13519(%rip),%rax        # 210e4 <g_147>
    dbcb:	48 89 85 90 ef ff ff 	mov    %rax,-0x1070(%rbp)
    dbd2:	48 8d 05 c7 34 01 00 	lea    0x134c7(%rip),%rax        # 210a0 <g_80>
    dbd9:	48 89 85 98 ef ff ff 	mov    %rax,-0x1068(%rbp)
    dbe0:	48 c7 85 a0 ef ff ff 	movq   $0x0,-0x1060(%rbp)
    dbe7:	00 00 00 00 
    dbeb:	48 8d 85 c4 c8 ff ff 	lea    -0x373c(%rbp),%rax
    dbf2:	48 89 85 a8 ef ff ff 	mov    %rax,-0x1058(%rbp)
    dbf9:	48 8d 05 e4 34 01 00 	lea    0x134e4(%rip),%rax        # 210e4 <g_147>
    dc00:	48 89 85 b0 ef ff ff 	mov    %rax,-0x1050(%rbp)
    dc07:	48 8d 85 c4 c8 ff ff 	lea    -0x373c(%rbp),%rax
    dc0e:	48 89 85 b8 ef ff ff 	mov    %rax,-0x1048(%rbp)
    dc15:	48 8d 85 08 c5 ff ff 	lea    -0x3af8(%rbp),%rax
    dc1c:	48 89 85 c0 ef ff ff 	mov    %rax,-0x1040(%rbp)
    dc23:	48 8d 85 f8 c4 ff ff 	lea    -0x3b08(%rbp),%rax
    dc2a:	48 89 85 c8 ef ff ff 	mov    %rax,-0x1038(%rbp)
    dc31:	48 8d 85 0c c5 ff ff 	lea    -0x3af4(%rbp),%rax
    dc38:	48 89 85 d0 ef ff ff 	mov    %rax,-0x1030(%rbp)
    dc3f:	48 8d 85 18 c5 ff ff 	lea    -0x3ae8(%rbp),%rax
    dc46:	48 89 85 d8 ef ff ff 	mov    %rax,-0x1028(%rbp)
    dc4d:	48 8d 85 fc c4 ff ff 	lea    -0x3b04(%rbp),%rax
    dc54:	48 89 85 e0 ef ff ff 	mov    %rax,-0x1020(%rbp)
    dc5b:	48 8d 85 fc c4 ff ff 	lea    -0x3b04(%rbp),%rax
    dc62:	48 89 85 e8 ef ff ff 	mov    %rax,-0x1018(%rbp)
    dc69:	48 8d 05 74 34 01 00 	lea    0x13474(%rip),%rax        # 210e4 <g_147>
    dc70:	48 89 85 f0 ef ff ff 	mov    %rax,-0x1010(%rbp)
    dc77:	48 8d 85 0c c5 ff ff 	lea    -0x3af4(%rbp),%rax
    dc7e:	48 89 85 f8 ef ff ff 	mov    %rax,-0x1008(%rbp)
    dc85:	c7 85 64 c5 ff ff d3 	movl   $0x8e98d8d3,-0x3a9c(%rbp)
    dc8c:	d8 98 8e 
    dc8f:	c7 85 68 c5 ff ff 00 	movl   $0x0,-0x3a98(%rbp)
    dc96:	00 00 00 
    dc99:	c7 85 24 c5 ff ff 00 	movl   $0x0,-0x3adc(%rbp)
    dca0:	00 00 00 
    dca3:	eb 1b                	jmp    dcc0 <func_41+0x1292>
    dca5:	8b 85 24 c5 ff ff    	mov    -0x3adc(%rbp),%eax
    dcab:	48 98                	cltq   
    dcad:	48 c7 84 c5 40 c9 ff 	movq   $0x0,-0x36c0(%rbp,%rax,8)
    dcb4:	ff 00 00 00 00 
    dcb9:	83 85 24 c5 ff ff 01 	addl   $0x1,-0x3adc(%rbp)
    dcc0:	83 bd 24 c5 ff ff 03 	cmpl   $0x3,-0x3adc(%rbp)
    dcc7:	7e dc                	jle    dca5 <func_41+0x1277>
    dcc9:	c7 85 24 c5 ff ff 00 	movl   $0x0,-0x3adc(%rbp)
    dcd0:	00 00 00 
    dcd3:	eb 1a                	jmp    dcef <func_41+0x12c1>
    dcd5:	8b 85 24 c5 ff ff    	mov    -0x3adc(%rbp),%eax
    dcdb:	48 98                	cltq   
    dcdd:	c7 84 85 c4 c8 ff ff 	movl   $0x8e1f4e4c,-0x373c(%rbp,%rax,4)
    dce4:	4c 4e 1f 8e 
    dce8:	83 85 24 c5 ff ff 01 	addl   $0x1,-0x3adc(%rbp)
    dcef:	83 bd 24 c5 ff ff 00 	cmpl   $0x0,-0x3adc(%rbp)
    dcf6:	7e dd                	jle    dcd5 <func_41+0x12a7>
    dcf8:	c7 85 24 c5 ff ff 00 	movl   $0x0,-0x3adc(%rbp)
    dcff:	00 00 00 
    dd02:	eb 1b                	jmp    dd1f <func_41+0x12f1>
    dd04:	8b 85 24 c5 ff ff    	mov    -0x3adc(%rbp),%eax
    dd0a:	48 98                	cltq   
    dd0c:	48 c7 84 c5 d0 c8 ff 	movq   $0x0,-0x3730(%rbp,%rax,8)
    dd13:	ff 00 00 00 00 
    dd18:	83 85 24 c5 ff ff 01 	addl   $0x1,-0x3adc(%rbp)
    dd1f:	83 bd 24 c5 ff ff 01 	cmpl   $0x1,-0x3adc(%rbp)
    dd26:	7e dc                	jle    dd04 <func_41+0x12d6>
    dd28:	c7 85 24 c5 ff ff 00 	movl   $0x0,-0x3adc(%rbp)
    dd2f:	00 00 00 
    dd32:	eb 14                	jmp    dd48 <func_41+0x131a>
    dd34:	8b 85 24 c5 ff ff    	mov    -0x3adc(%rbp),%eax
    dd3a:	48 98                	cltq   
    dd3c:	c6 44 05 c0 d9       	movb   $0xd9,-0x40(%rbp,%rax,1)
    dd41:	83 85 24 c5 ff ff 01 	addl   $0x1,-0x3adc(%rbp)
    dd48:	83 bd 24 c5 ff ff 01 	cmpl   $0x1,-0x3adc(%rbp)
    dd4f:	7e e3                	jle    dd34 <func_41+0x1306>
    dd51:	90                   	nop
    dd52:	8b 85 bc c4 ff ff    	mov    -0x3b44(%rbp),%eax
    dd58:	41 89 c5             	mov    %eax,%r13d
    dd5b:	0f b6 85 cc c4 ff ff 	movzbl -0x3b34(%rbp),%eax
    dd62:	0f be d8             	movsbl %al,%ebx
    dd65:	8b 95 bc c4 ff ff    	mov    -0x3b44(%rbp),%edx
    dd6b:	8b 85 bc c4 ff ff    	mov    -0x3b44(%rbp),%eax
    dd71:	98                   	cwtl   
    dd72:	89 d6                	mov    %edx,%esi
    dd74:	89 c7                	mov    %eax,%edi
    dd76:	e8 e8 c7 ff ff       	callq  a563 <safe_rshift_func_int16_t_s_u>
    dd7b:	44 0f bf e0          	movswl %ax,%r12d
    dd7f:	8b 85 bc c4 ff ff    	mov    -0x3b44(%rbp),%eax
    dd85:	89 c0                	mov    %eax,%eax
    dd87:	48 c7 c6 f9 ff ff ff 	mov    $0xfffffffffffffff9,%rsi
    dd8e:	48 89 c7             	mov    %rax,%rdi
    dd91:	e8 61 cc ff ff       	callq  a9f7 <safe_div_func_int64_t_s_s>
    dd96:	44 89 e6             	mov    %r12d,%esi
    dd99:	89 c7                	mov    %eax,%edi
    dd9b:	e8 85 d1 ff ff       	callq  af25 <safe_div_func_uint32_t_u_u>
    dda0:	48 8d 15 89 32 01 00 	lea    0x13289(%rip),%rdx        # 21030 <g_37>
    dda7:	48 39 95 78 c6 ff ff 	cmp    %rdx,-0x3988(%rbp)
    ddae:	0f 95 c2             	setne  %dl
    ddb1:	0f b6 ca             	movzbl %dl,%ecx
    ddb4:	8b 95 f4 c4 ff ff    	mov    -0x3b0c(%rbp),%edx
    ddba:	31 ca                	xor    %ecx,%edx
    ddbc:	89 95 f4 c4 ff ff    	mov    %edx,-0x3b0c(%rbp)
    ddc2:	8b 95 f4 c4 ff ff    	mov    -0x3b0c(%rbp),%edx
    ddc8:	39 d0                	cmp    %edx,%eax
    ddca:	0f 93 c0             	setae  %al
    ddcd:	89 c2                	mov    %eax,%edx
    ddcf:	48 8b 85 80 c6 ff ff 	mov    -0x3980(%rbp),%rax
    ddd6:	88 10                	mov    %dl,(%rax)
    ddd8:	48 8b 85 80 c6 ff ff 	mov    -0x3980(%rbp),%rax
    dddf:	0f b6 00             	movzbl (%rax),%eax
    dde2:	0f b6 c0             	movzbl %al,%eax
    dde5:	89 de                	mov    %ebx,%esi
    dde7:	89 c7                	mov    %eax,%edi
    dde9:	e8 5e ce ff ff       	callq  ac4c <safe_lshift_func_uint8_t_u_u>
    ddee:	0f b6 c0             	movzbl %al,%eax
    ddf1:	be 04 00 00 00       	mov    $0x4,%esi
    ddf6:	89 c7                	mov    %eax,%edi
    ddf8:	e8 08 ce ff ff       	callq  ac05 <safe_lshift_func_uint8_t_u_s>
    ddfd:	84 c0                	test   %al,%al
    ddff:	75 0b                	jne    de0c <func_41+0x13de>
    de01:	0f b6 85 cc c4 ff ff 	movzbl -0x3b34(%rbp),%eax
    de08:	84 c0                	test   %al,%al
    de0a:	74 07                	je     de13 <func_41+0x13e5>
    de0c:	b8 01 00 00 00       	mov    $0x1,%eax
    de11:	eb 05                	jmp    de18 <func_41+0x13ea>
    de13:	b8 00 00 00 00       	mov    $0x0,%eax
    de18:	48 98                	cltq   
    de1a:	be 01 00 00 00       	mov    $0x1,%esi
    de1f:	48 89 c7             	mov    %rax,%rdi
    de22:	e8 1a ca ff ff       	callq  a841 <safe_add_func_int64_t_s_s>
    de27:	0f b7 d0             	movzwl %ax,%edx
    de2a:	0f b6 85 cc c4 ff ff 	movzbl -0x3b34(%rbp),%eax
    de31:	66 98                	cbtw   
    de33:	0f b7 c0             	movzwl %ax,%eax
    de36:	89 d6                	mov    %edx,%esi
    de38:	89 c7                	mov    %eax,%edi
    de3a:	e8 c0 ce ff ff       	callq  acff <safe_add_func_uint16_t_u_u>
    de3f:	44 89 ee             	mov    %r13d,%esi
    de42:	bf 01 00 00 00       	mov    $0x1,%edi
    de47:	e8 6a c7 ff ff       	callq  a5b6 <safe_add_func_int32_t_s_s>
    de4c:	48 63 d0             	movslq %eax,%rdx
    de4f:	48 8b 85 78 c6 ff ff 	mov    -0x3988(%rbp),%rax
    de56:	48 89 10             	mov    %rdx,(%rax)
    de59:	48 8b 85 78 c6 ff ff 	mov    -0x3988(%rbp),%rax
    de60:	48 8b 00             	mov    (%rax),%rax
    de63:	48 85 c0             	test   %rax,%rax
    de66:	74 0e                	je     de76 <func_41+0x1448>
    de68:	48 8b 05 29 71 01 00 	mov    0x17129(%rip),%rax        # 24f98 <g_146>
    de6f:	8b 00                	mov    (%rax),%eax
    de71:	e9 3d 6e 00 00       	jmpq   14cb3 <func_41+0x8285>
    de76:	48 8d 05 53 71 01 00 	lea    0x17153(%rip),%rax        # 24fd0 <g_282+0x10>
    de7d:	48 89 85 e8 c6 ff ff 	mov    %rax,-0x3918(%rbp)
    de84:	c7 85 e0 f7 ff ff 41 	movl   $0x3ab00d41,-0x820(%rbp)
    de8b:	0d b0 3a 
    de8e:	c7 85 e4 f7 ff ff 41 	movl   $0x3ab00d41,-0x81c(%rbp)
    de95:	0d b0 3a 
    de98:	c7 85 e8 f7 ff ff 41 	movl   $0x3ab00d41,-0x818(%rbp)
    de9f:	0d b0 3a 
    dea2:	c7 85 ec f7 ff ff 41 	movl   $0x3ab00d41,-0x814(%rbp)
    dea9:	0d b0 3a 
    deac:	c7 85 f0 f7 ff ff 41 	movl   $0x3ab00d41,-0x810(%rbp)
    deb3:	0d b0 3a 
    deb6:	c7 85 f4 f7 ff ff 08 	movl   $0x54169408,-0x80c(%rbp)
    debd:	94 16 54 
    dec0:	c7 85 f8 f7 ff ff 08 	movl   $0x54169408,-0x808(%rbp)
    dec7:	94 16 54 
    deca:	c7 85 fc f7 ff ff 08 	movl   $0x54169408,-0x804(%rbp)
    ded1:	94 16 54 
    ded4:	c7 85 00 f8 ff ff 08 	movl   $0x54169408,-0x800(%rbp)
    dedb:	94 16 54 
    dede:	c7 85 04 f8 ff ff 08 	movl   $0x54169408,-0x7fc(%rbp)
    dee5:	94 16 54 
    dee8:	8b 85 f4 c4 ff ff    	mov    -0x3b0c(%rbp),%eax
    deee:	89 85 f4 c4 ff ff    	mov    %eax,-0x3b0c(%rbp)
    def4:	8b 95 f0 f7 ff ff    	mov    -0x810(%rbp),%edx
    defa:	8b 85 bc c4 ff ff    	mov    -0x3b44(%rbp),%eax
    df00:	98                   	cwtl   
    df01:	89 d6                	mov    %edx,%esi
    df03:	89 c7                	mov    %eax,%edi
    df05:	e8 20 c6 ff ff       	callq  a52a <safe_rshift_func_int16_t_s_s>
    df0a:	89 c2                	mov    %eax,%edx
    df0c:	48 8b 05 75 73 01 00 	mov    0x17375(%rip),%rax        # 25288 <g_767>
    df13:	0f bf d2             	movswl %dx,%edx
    df16:	89 10                	mov    %edx,(%rax)
    df18:	48 8b 05 69 73 01 00 	mov    0x17369(%rip),%rax        # 25288 <g_767>
    df1f:	44 8b 30             	mov    (%rax),%r14d
    df22:	8b 9d bc c4 ff ff    	mov    -0x3b44(%rbp),%ebx
    df28:	8b 85 f4 c4 ff ff    	mov    -0x3b0c(%rbp),%eax
    df2e:	83 f8 01             	cmp    $0x1,%eax
    df31:	0f 96 c0             	setbe  %al
    df34:	44 0f b6 f8          	movzbl %al,%r15d
    df38:	b8 a2 01 00 00       	mov    $0x1a2,%eax
    df3d:	44 0f b7 e0          	movzwl %ax,%r12d
    df41:	48 8b 05 38 31 01 00 	mov    0x13138(%rip),%rax        # 21080 <g_68+0x20>
    df48:	44 0f bf e8          	movswl %ax,%r13d
    df4c:	8b 85 f4 c4 ff ff    	mov    -0x3b0c(%rbp),%eax
    df52:	0f b6 d0             	movzbl %al,%edx
    df55:	8b 85 bc c4 ff ff    	mov    -0x3b44(%rbp),%eax
    df5b:	0f b6 c0             	movzbl %al,%eax
    df5e:	89 d6                	mov    %edx,%esi
    df60:	89 c7                	mov    %eax,%edi
    df62:	e8 2c cc ff ff       	callq  ab93 <safe_mul_func_uint8_t_u_u>
    df67:	8b 05 d7 30 01 00    	mov    0x130d7(%rip),%eax        # 21044 <g_48+0x4>
    df6d:	25 ff ff 0f 00       	and    $0xfffff,%eax
    df72:	89 c2                	mov    %eax,%edx
    df74:	8b 85 bc c4 ff ff    	mov    -0x3b44(%rbp),%eax
    df7a:	39 c2                	cmp    %eax,%edx
    df7c:	0f 95 c2             	setne  %dl
    df7f:	48 8b 05 1a 70 01 00 	mov    0x1701a(%rip),%rax        # 24fa0 <g_214>
    df86:	0f b6 d2             	movzbl %dl,%edx
    df89:	66 89 10             	mov    %dx,(%rax)
    df8c:	8b 85 f4 c4 ff ff    	mov    -0x3b0c(%rbp),%eax
    df92:	3d 22 6a 00 00       	cmp    $0x6a22,%eax
    df97:	0f 9f c0             	setg   %al
    df9a:	0f b6 c0             	movzbl %al,%eax
    df9d:	be 02 00 00 00       	mov    $0x2,%esi
    dfa2:	89 c7                	mov    %eax,%edi
    dfa4:	e8 6d c4 ff ff       	callq  a416 <safe_mod_func_int16_t_s_s>
    dfa9:	89 c2                	mov    %eax,%edx
    dfab:	48 8b 85 80 c6 ff ff 	mov    -0x3980(%rbp),%rax
    dfb2:	88 10                	mov    %dl,(%rax)
    dfb4:	48 8b 85 80 c6 ff ff 	mov    -0x3980(%rbp),%rax
    dfbb:	0f b6 00             	movzbl (%rax),%eax
    dfbe:	0f b6 d0             	movzbl %al,%edx
    dfc1:	0f b6 85 cc c4 ff ff 	movzbl -0x3b34(%rbp),%eax
    dfc8:	0f be c0             	movsbl %al,%eax
    dfcb:	21 d0                	and    %edx,%eax
    dfcd:	89 c2                	mov    %eax,%edx
    dfcf:	8b 85 bc c4 ff ff    	mov    -0x3b44(%rbp),%eax
    dfd5:	39 c2                	cmp    %eax,%edx
    dfd7:	0f 95 c0             	setne  %al
    dfda:	0f b6 d0             	movzbl %al,%edx
    dfdd:	8b 85 bc c4 ff ff    	mov    -0x3b44(%rbp),%eax
    dfe3:	39 c2                	cmp    %eax,%edx
    dfe5:	0f 96 c0             	setbe  %al
    dfe8:	0f b6 d0             	movzbl %al,%edx
    dfeb:	48 8b 05 be 6f 01 00 	mov    0x16fbe(%rip),%rax        # 24fb0 <g_223>
    dff2:	0f b6 00             	movzbl (%rax),%eax
    dff5:	0f b6 c0             	movzbl %al,%eax
    dff8:	39 c2                	cmp    %eax,%edx
    dffa:	0f 95 c0             	setne  %al
    dffd:	0f b6 c0             	movzbl %al,%eax
    e000:	be 04 00 00 00       	mov    $0x4,%esi
    e005:	48 89 c7             	mov    %rax,%rdi
    e008:	e8 34 c8 ff ff       	callq  a841 <safe_add_func_int64_t_s_s>
    e00d:	98                   	cwtl   
    e00e:	44 89 ee             	mov    %r13d,%esi
    e011:	89 c7                	mov    %eax,%edi
    e013:	e8 9b c3 ff ff       	callq  a3b3 <safe_add_func_int16_t_s_s>
    e018:	8b 85 bc c4 ff ff    	mov    -0x3b44(%rbp),%eax
    e01e:	83 f8 01             	cmp    $0x1,%eax
    e021:	0f 97 c0             	seta   %al
    e024:	0f b6 c0             	movzbl %al,%eax
    e027:	89 85 f8 c4 ff ff    	mov    %eax,-0x3b08(%rbp)
    e02d:	8b 85 f8 c4 ff ff    	mov    -0x3b08(%rbp),%eax
    e033:	3d a2 84 00 00       	cmp    $0x84a2,%eax
    e038:	0f 9e c0             	setle  %al
    e03b:	0f b6 c0             	movzbl %al,%eax
    e03e:	be 02 00 00 00       	mov    $0x2,%esi
    e043:	89 c7                	mov    %eax,%edi
    e045:	e8 eb c2 ff ff       	callq  a335 <safe_rshift_func_int8_t_s_s>
    e04a:	be a4 39 00 00       	mov    $0x39a4,%esi
    e04f:	bf 81 0a 00 00       	mov    $0xa81,%edi
    e054:	e8 e4 cc ff ff       	callq  ad3d <safe_mul_func_uint16_t_u_u>
    e059:	48 8b 85 78 c6 ff ff 	mov    -0x3988(%rbp),%rax
    e060:	48 c7 00 00 00 00 00 	movq   $0x0,(%rax)
    e067:	48 c7 05 c6 32 01 00 	movq   $0x1,0x132c6(%rip)        # 21338 <g_661>
    e06e:	01 00 00 00 
    e072:	8b 85 f4 c4 ff ff    	mov    -0x3b0c(%rbp),%eax
    e078:	85 c0                	test   %eax,%eax
    e07a:	74 07                	je     e083 <func_41+0x1655>
    e07c:	b8 01 00 00 00       	mov    $0x1,%eax
    e081:	eb 05                	jmp    e088 <func_41+0x165a>
    e083:	b8 00 00 00 00       	mov    $0x0,%eax
    e088:	0f b7 c0             	movzwl %ax,%eax
    e08b:	44 89 e6             	mov    %r12d,%esi
    e08e:	89 c7                	mov    %eax,%edi
    e090:	e8 a8 cc ff ff       	callq  ad3d <safe_mul_func_uint16_t_u_u>
    e095:	89 c2                	mov    %eax,%edx
    e097:	48 8b 85 00 c6 ff ff 	mov    -0x3a00(%rbp),%rax
    e09e:	0f b7 d2             	movzwl %dx,%edx
    e0a1:	89 10                	mov    %edx,(%rax)
    e0a3:	8b 00                	mov    (%rax),%eax
    e0a5:	41 39 c7             	cmp    %eax,%r15d
    e0a8:	0f 9f c0             	setg   %al
    e0ab:	0f b6 d0             	movzbl %al,%edx
    e0ae:	8b 85 bc c4 ff ff    	mov    -0x3b44(%rbp),%eax
    e0b4:	39 c2                	cmp    %eax,%edx
    e0b6:	0f 97 c0             	seta   %al
    e0b9:	0f b6 d0             	movzbl %al,%edx
    e0bc:	8b 85 f4 c4 ff ff    	mov    -0x3b0c(%rbp),%eax
    e0c2:	39 c2                	cmp    %eax,%edx
    e0c4:	0f 9e c0             	setle  %al
    e0c7:	0f b6 c0             	movzbl %al,%eax
    e0ca:	89 c6                	mov    %eax,%esi
    e0cc:	bf 01 00 00 00       	mov    $0x1,%edi
    e0d1:	e8 18 c2 ff ff       	callq  a2ee <safe_lshift_func_int8_t_s_u>
    e0d6:	89 de                	mov    %ebx,%esi
    e0d8:	bf 01 00 00 00       	mov    $0x1,%edi
    e0dd:	e8 dc cb ff ff       	callq  acbe <safe_rshift_func_uint8_t_u_u>
    e0e2:	0f b6 c0             	movzbl %al,%eax
    e0e5:	41 39 c6             	cmp    %eax,%r14d
    e0e8:	74 0e                	je     e0f8 <func_41+0x16ca>
    e0ea:	48 8b 05 97 71 01 00 	mov    0x17197(%rip),%rax        # 25288 <g_767>
    e0f1:	8b 00                	mov    (%rax),%eax
    e0f3:	e9 bb 6b 00 00       	jmpq   14cb3 <func_41+0x8285>
    e0f8:	66 c7 85 da c4 ff ff 	movw   $0x0,-0x3b26(%rbp)
    e0ff:	00 00 
    e101:	48 c7 85 20 c9 ff ff 	movq   $0x0,-0x36e0(%rbp)
    e108:	00 00 00 00 
    e10c:	48 c7 85 28 c9 ff ff 	movq   $0x0,-0x36d8(%rbp)
    e113:	00 00 00 00 
    e117:	48 c7 85 30 c9 ff ff 	movq   $0x0,-0x36d0(%rbp)
    e11e:	00 00 00 00 
    e122:	c7 85 38 c9 ff ff 00 	movl   $0x0,-0x36c8(%rbp)
    e129:	00 00 00 
    e12c:	48 8d 05 3d 71 01 00 	lea    0x1713d(%rip),%rax        # 25270 <g_348>
    e133:	48 89 85 10 c6 ff ff 	mov    %rax,-0x39f0(%rbp)
    e13a:	48 b8 26 af 1c 28 a3 	movabs $0xdd6ce7a3281caf26,%rax
    e141:	e7 6c dd 
    e144:	48 89 85 f0 c6 ff ff 	mov    %rax,-0x3910(%rbp)
    e14b:	48 8d 05 16 71 01 00 	lea    0x17116(%rip),%rax        # 25268 <g_345+0x48>
    e152:	48 89 85 f8 c6 ff ff 	mov    %rax,-0x3908(%rbp)
    e159:	48 8d 05 34 bf 00 00 	lea    0xbf34(%rip),%rax        # 1a094 <g_910>
    e160:	48 89 85 18 c6 ff ff 	mov    %rax,-0x39e8(%rbp)
    e167:	48 8d 85 18 c6 ff ff 	lea    -0x39e8(%rbp),%rax
    e16e:	48 89 85 20 c6 ff ff 	mov    %rax,-0x39e0(%rbp)
    e175:	48 8d 85 20 c6 ff ff 	lea    -0x39e0(%rbp),%rax
    e17c:	48 89 85 28 c6 ff ff 	mov    %rax,-0x39d8(%rbp)
    e183:	66 c7 85 c8 c8 ff ff 	movw   $0x5b1e,-0x3738(%rbp)
    e18a:	1e 5b 
    e18c:	66 c7 85 ca c8 ff ff 	movw   $0x5b1e,-0x3736(%rbp)
    e193:	1e 5b 
    e195:	66 c7 85 cc c8 ff ff 	movw   $0x5b1e,-0x3734(%rbp)
    e19c:	1e 5b 
    e19e:	66 c7 85 ce c8 ff ff 	movw   $0x5b1e,-0x3732(%rbp)
    e1a5:	1e 5b 
    e1a7:	48 c7 85 00 c7 ff ff 	movq   $0x0,-0x3900(%rbp)
    e1ae:	00 00 00 00 
    e1b2:	66 c7 85 dc c4 ff ff 	movw   $0xffff,-0x3b24(%rbp)
    e1b9:	ff ff 
    e1bb:	c7 85 28 c5 ff ff 96 	movl   $0x4c6c7b96,-0x3ad8(%rbp)
    e1c2:	7b 6c 4c 
    e1c5:	c7 85 2c c5 ff ff 00 	movl   $0x0,-0x3ad4(%rbp)
    e1cc:	00 00 00 
    e1cf:	48 8d 85 08 c5 ff ff 	lea    -0x3af8(%rbp),%rax
    e1d6:	48 89 85 30 c6 ff ff 	mov    %rax,-0x39d0(%rbp)
    e1dd:	48 8d 05 94 70 01 00 	lea    0x17094(%rip),%rax        # 25278 <g_347>
    e1e4:	48 89 85 38 c6 ff ff 	mov    %rax,-0x39c8(%rbp)
    e1eb:	48 8d 85 20 d4 ff ff 	lea    -0x2be0(%rbp),%rax
    e1f2:	48 8d 15 27 cb 00 00 	lea    0xcb27(%rip),%rdx        # 1ad20 <g_2454+0x9a8>
    e1f9:	b9 a0 00 00 00       	mov    $0xa0,%ecx
    e1fe:	48 89 c7             	mov    %rax,%rdi
    e201:	48 89 d6             	mov    %rdx,%rsi
    e204:	f3 48 a5             	rep movsq %ds:(%rsi),%es:(%rdi)
    e207:	c7 85 1c c5 ff ff f7 	movl   $0xfffffff7,-0x3ae4(%rbp)
    e20e:	ff ff ff 
    e211:	66 c7 85 60 ca ff ff 	movw   $0xc05a,-0x35a0(%rbp)
    e218:	5a c0 
    e21a:	66 c7 85 62 ca ff ff 	movw   $0x680f,-0x359e(%rbp)
    e221:	0f 68 
    e223:	66 c7 85 64 ca ff ff 	movw   $0x647d,-0x359c(%rbp)
    e22a:	7d 64 
    e22c:	66 c7 85 66 ca ff ff 	movw   $0x13c2,-0x359a(%rbp)
    e233:	c2 13 
    e235:	66 c7 85 68 ca ff ff 	movw   $0x647d,-0x3598(%rbp)
    e23c:	7d 64 
    e23e:	66 c7 85 6a ca ff ff 	movw   $0x680f,-0x3596(%rbp)
    e245:	0f 68 
    e247:	66 c7 85 6c ca ff ff 	movw   $0xc05a,-0x3594(%rbp)
    e24e:	5a c0 
    e250:	66 c7 85 6e ca ff ff 	movw   $0x6646,-0x3592(%rbp)
    e257:	46 66 
    e259:	66 c7 85 70 ca ff ff 	movw   $0x7766,-0x3590(%rbp)
    e260:	66 77 
    e262:	66 c7 85 72 ca ff ff 	movw   $0x1,-0x358e(%rbp)
    e269:	01 00 
    e26b:	66 c7 85 74 ca ff ff 	movw   $0x7766,-0x358c(%rbp)
    e272:	66 77 
    e274:	66 c7 85 76 ca ff ff 	movw   $0x6646,-0x358a(%rbp)
    e27b:	46 66 
    e27d:	66 c7 85 78 ca ff ff 	movw   $0x6646,-0x3588(%rbp)
    e284:	46 66 
    e286:	66 c7 85 7a ca ff ff 	movw   $0x7766,-0x3586(%rbp)
    e28d:	66 77 
    e28f:	66 c7 85 7c ca ff ff 	movw   $0x5275,-0x3584(%rbp)
    e296:	75 52 
    e298:	66 c7 85 7e ca ff ff 	movw   $0xfff6,-0x3582(%rbp)
    e29f:	f6 ff 
    e2a1:	66 c7 85 80 ca ff ff 	movw   $0x5275,-0x3580(%rbp)
    e2a8:	75 52 
    e2aa:	66 c7 85 82 ca ff ff 	movw   $0xe07,-0x357e(%rbp)
    e2b1:	07 0e 
    e2b3:	66 c7 85 84 ca ff ff 	movw   $0x647d,-0x357c(%rbp)
    e2ba:	7d 64 
    e2bc:	66 c7 85 86 ca ff ff 	movw   $0xfff9,-0x357a(%rbp)
    e2c3:	f9 ff 
    e2c5:	66 c7 85 88 ca ff ff 	movw   $0x5,-0x3578(%rbp)
    e2cc:	05 00 
    e2ce:	66 c7 85 8a ca ff ff 	movw   $0x7766,-0x3576(%rbp)
    e2d5:	66 77 
    e2d7:	66 c7 85 8c ca ff ff 	movw   $0x9206,-0x3574(%rbp)
    e2de:	06 92 
    e2e0:	66 c7 85 8e ca ff ff 	movw   $0x1,-0x3572(%rbp)
    e2e7:	01 00 
    e2e9:	66 c7 85 90 ca ff ff 	movw   $0x1,-0x3570(%rbp)
    e2f0:	01 00 
    e2f2:	66 c7 85 92 ca ff ff 	movw   $0x9206,-0x356e(%rbp)
    e2f9:	06 92 
    e2fb:	66 c7 85 94 ca ff ff 	movw   $0x7766,-0x356c(%rbp)
    e302:	66 77 
    e304:	66 c7 85 96 ca ff ff 	movw   $0x9206,-0x356a(%rbp)
    e30b:	06 92 
    e30d:	66 c7 85 98 ca ff ff 	movw   $0x5275,-0x3568(%rbp)
    e314:	75 52 
    e316:	66 c7 85 9a ca ff ff 	movw   $0xe07,-0x3566(%rbp)
    e31d:	07 0e 
    e31f:	66 c7 85 9c ca ff ff 	movw   $0x647d,-0x3564(%rbp)
    e326:	7d 64 
    e328:	66 c7 85 9e ca ff ff 	movw   $0xfff9,-0x3562(%rbp)
    e32f:	f9 ff 
    e331:	66 c7 85 a0 ca ff ff 	movw   $0x5,-0x3560(%rbp)
    e338:	05 00 
    e33a:	66 c7 85 a2 ca ff ff 	movw   $0xfff9,-0x355e(%rbp)
    e341:	f9 ff 
    e343:	66 c7 85 a4 ca ff ff 	movw   $0x647d,-0x355c(%rbp)
    e34a:	7d 64 
    e34c:	66 c7 85 a6 ca ff ff 	movw   $0x6646,-0x355a(%rbp)
    e353:	46 66 
    e355:	66 c7 85 a8 ca ff ff 	movw   $0x6646,-0x3558(%rbp)
    e35c:	46 66 
    e35e:	66 c7 85 aa ca ff ff 	movw   $0x7766,-0x3556(%rbp)
    e365:	66 77 
    e367:	66 c7 85 ac ca ff ff 	movw   $0x1,-0x3554(%rbp)
    e36e:	01 00 
    e370:	66 c7 85 ae ca ff ff 	movw   $0x7766,-0x3552(%rbp)
    e377:	66 77 
    e379:	66 c7 85 b0 ca ff ff 	movw   $0x6646,-0x3550(%rbp)
    e380:	46 66 
    e382:	66 c7 85 b2 ca ff ff 	movw   $0x6646,-0x354e(%rbp)
    e389:	46 66 
    e38b:	66 c7 85 b4 ca ff ff 	movw   $0xc05a,-0x354c(%rbp)
    e392:	5a c0 
    e394:	66 c7 85 b6 ca ff ff 	movw   $0xe07,-0x354a(%rbp)
    e39b:	07 0e 
    e39d:	66 c7 85 b8 ca ff ff 	movw   $0xffff,-0x3548(%rbp)
    e3a4:	ff ff 
    e3a6:	66 c7 85 ba ca ff ff 	movw   $0xe07,-0x3546(%rbp)
    e3ad:	07 0e 
    e3af:	66 c7 85 bc ca ff ff 	movw   $0xc05a,-0x3544(%rbp)
    e3b6:	5a c0 
    e3b8:	66 c7 85 be ca ff ff 	movw   $0x680f,-0x3542(%rbp)
    e3bf:	0f 68 
    e3c1:	66 c7 85 c0 ca ff ff 	movw   $0x647d,-0x3540(%rbp)
    e3c8:	7d 64 
    e3ca:	66 c7 85 c2 ca ff ff 	movw   $0x1738,-0x353e(%rbp)
    e3d1:	38 17 
    e3d3:	66 c7 85 c4 ca ff ff 	movw   $0x9206,-0x353c(%rbp)
    e3da:	06 92 
    e3dc:	66 c7 85 c6 ca ff ff 	movw   $0x1738,-0x353a(%rbp)
    e3e3:	38 17 
    e3e5:	66 c7 85 c8 ca ff ff 	movw   $0x7766,-0x3538(%rbp)
    e3ec:	66 77 
    e3ee:	66 c7 85 ca ca ff ff 	movw   $0x7766,-0x3536(%rbp)
    e3f5:	66 77 
    e3f7:	66 c7 85 cc ca ff ff 	movw   $0x1738,-0x3534(%rbp)
    e3fe:	38 17 
    e400:	66 c7 85 ce ca ff ff 	movw   $0x9206,-0x3532(%rbp)
    e407:	06 92 
    e409:	66 c7 85 d0 ca ff ff 	movw   $0x647d,-0x3530(%rbp)
    e410:	7d 64 
    e412:	66 c7 85 d2 ca ff ff 	movw   $0xfff6,-0x352e(%rbp)
    e419:	f6 ff 
    e41b:	66 c7 85 d4 ca ff ff 	movw   $0xffff,-0x352c(%rbp)
    e422:	ff ff 
    e424:	66 c7 85 d6 ca ff ff 	movw   $0x13c2,-0x352a(%rbp)
    e42b:	c2 13 
    e42d:	66 c7 85 d8 ca ff ff 	movw   $0x5,-0x3528(%rbp)
    e434:	05 00 
    e436:	66 c7 85 da ca ff ff 	movw   $0xe07,-0x3526(%rbp)
    e43d:	07 0e 
    e43f:	66 c7 85 dc ca ff ff 	movw   $0x5,-0x3524(%rbp)
    e446:	05 00 
    e448:	66 c7 85 de ca ff ff 	movw   $0x1738,-0x3522(%rbp)
    e44f:	38 17 
    e451:	66 c7 85 e0 ca ff ff 	movw   $0x7766,-0x3520(%rbp)
    e458:	66 77 
    e45a:	66 c7 85 e2 ca ff ff 	movw   $0x7766,-0x351e(%rbp)
    e461:	66 77 
    e463:	66 c7 85 e4 ca ff ff 	movw   $0x1738,-0x351c(%rbp)
    e46a:	38 17 
    e46c:	66 c7 85 e6 ca ff ff 	movw   $0x9206,-0x351a(%rbp)
    e473:	06 92 
    e475:	66 c7 85 e8 ca ff ff 	movw   $0x1738,-0x3518(%rbp)
    e47c:	38 17 
    e47e:	66 c7 85 ea ca ff ff 	movw   $0x7766,-0x3516(%rbp)
    e485:	66 77 
    e487:	66 c7 85 ec ca ff ff 	movw   $0xc05a,-0x3514(%rbp)
    e48e:	5a c0 
    e490:	66 c7 85 ee ca ff ff 	movw   $0x680f,-0x3512(%rbp)
    e497:	0f 68 
    e499:	66 c7 85 f0 ca ff ff 	movw   $0x647d,-0x3510(%rbp)
    e4a0:	7d 64 
    e4a2:	66 c7 85 f2 ca ff ff 	movw   $0x13c2,-0x350e(%rbp)
    e4a9:	c2 13 
    e4ab:	66 c7 85 f4 ca ff ff 	movw   $0x647d,-0x350c(%rbp)
    e4b2:	7d 64 
    e4b4:	66 c7 85 f6 ca ff ff 	movw   $0x680f,-0x350a(%rbp)
    e4bb:	0f 68 
    e4bd:	66 c7 85 f8 ca ff ff 	movw   $0xc05a,-0x3508(%rbp)
    e4c4:	5a c0 
    e4c6:	66 c7 85 fa ca ff ff 	movw   $0x6646,-0x3506(%rbp)
    e4cd:	46 66 
    e4cf:	66 c7 85 fc ca ff ff 	movw   $0x7766,-0x3504(%rbp)
    e4d6:	66 77 
    e4d8:	66 c7 85 fe ca ff ff 	movw   $0x1,-0x3502(%rbp)
    e4df:	01 00 
    e4e1:	66 c7 85 00 cb ff ff 	movw   $0x7766,-0x3500(%rbp)
    e4e8:	66 77 
    e4ea:	66 c7 85 02 cb ff ff 	movw   $0x6646,-0x34fe(%rbp)
    e4f1:	46 66 
    e4f3:	66 c7 85 04 cb ff ff 	movw   $0x6646,-0x34fc(%rbp)
    e4fa:	46 66 
    e4fc:	66 c7 85 06 cb ff ff 	movw   $0x7766,-0x34fa(%rbp)
    e503:	66 77 
    e505:	66 c7 85 08 cb ff ff 	movw   $0x5275,-0x34f8(%rbp)
    e50c:	75 52 
    e50e:	66 c7 85 0a cb ff ff 	movw   $0xfff6,-0x34f6(%rbp)
    e515:	f6 ff 
    e517:	66 c7 85 0c cb ff ff 	movw   $0x5275,-0x34f4(%rbp)
    e51e:	75 52 
    e520:	66 c7 85 0e cb ff ff 	movw   $0xe07,-0x34f2(%rbp)
    e527:	07 0e 
    e529:	66 c7 85 10 cb ff ff 	movw   $0x647d,-0x34f0(%rbp)
    e530:	7d 64 
    e532:	66 c7 85 12 cb ff ff 	movw   $0xfff9,-0x34ee(%rbp)
    e539:	f9 ff 
    e53b:	66 c7 85 14 cb ff ff 	movw   $0x5,-0x34ec(%rbp)
    e542:	05 00 
    e544:	66 c7 85 16 cb ff ff 	movw   $0x7766,-0x34ea(%rbp)
    e54b:	66 77 
    e54d:	66 c7 85 18 cb ff ff 	movw   $0x9206,-0x34e8(%rbp)
    e554:	06 92 
    e556:	66 c7 85 1a cb ff ff 	movw   $0x1,-0x34e6(%rbp)
    e55d:	01 00 
    e55f:	66 c7 85 1c cb ff ff 	movw   $0x1,-0x34e4(%rbp)
    e566:	01 00 
    e568:	66 c7 85 1e cb ff ff 	movw   $0x9206,-0x34e2(%rbp)
    e56f:	06 92 
    e571:	66 c7 85 20 cb ff ff 	movw   $0x7766,-0x34e0(%rbp)
    e578:	66 77 
    e57a:	66 c7 85 22 cb ff ff 	movw   $0x9206,-0x34de(%rbp)
    e581:	06 92 
    e583:	66 c7 85 24 cb ff ff 	movw   $0x5275,-0x34dc(%rbp)
    e58a:	75 52 
    e58c:	66 c7 85 26 cb ff ff 	movw   $0xe07,-0x34da(%rbp)
    e593:	07 0e 
    e595:	66 c7 85 28 cb ff ff 	movw   $0x647d,-0x34d8(%rbp)
    e59c:	7d 64 
    e59e:	66 c7 85 2a cb ff ff 	movw   $0xfff9,-0x34d6(%rbp)
    e5a5:	f9 ff 
    e5a7:	66 c7 85 2c cb ff ff 	movw   $0x5,-0x34d4(%rbp)
    e5ae:	05 00 
    e5b0:	66 c7 85 2e cb ff ff 	movw   $0xfff9,-0x34d2(%rbp)
    e5b7:	f9 ff 
    e5b9:	66 c7 85 30 cb ff ff 	movw   $0x647d,-0x34d0(%rbp)
    e5c0:	7d 64 
    e5c2:	66 c7 85 32 cb ff ff 	movw   $0x6646,-0x34ce(%rbp)
    e5c9:	46 66 
    e5cb:	66 c7 85 34 cb ff ff 	movw   $0x6646,-0x34cc(%rbp)
    e5d2:	46 66 
    e5d4:	66 c7 85 36 cb ff ff 	movw   $0x7766,-0x34ca(%rbp)
    e5db:	66 77 
    e5dd:	66 c7 85 38 cb ff ff 	movw   $0x9206,-0x34c8(%rbp)
    e5e4:	06 92 
    e5e6:	66 c7 85 3a cb ff ff 	movw   $0x1738,-0x34c6(%rbp)
    e5ed:	38 17 
    e5ef:	66 c7 85 3c cb ff ff 	movw   $0x7766,-0x34c4(%rbp)
    e5f6:	66 77 
    e5f8:	66 c7 85 3e cb ff ff 	movw   $0x7766,-0x34c2(%rbp)
    e5ff:	66 77 
    e601:	c6 85 cd c4 ff ff ff 	movb   $0xff,-0x3b33(%rbp)
    e608:	c6 85 d2 c4 ff ff aa 	movb   $0xaa,-0x3b2e(%rbp)
    e60f:	c7 85 6c c5 ff ff 00 	movl   $0x0,-0x3a94(%rbp)
    e616:	00 00 00 
    e619:	48 c7 85 08 c7 ff ff 	movq   $0xfffffffffffffff6,-0x38f8(%rbp)
    e620:	f6 ff ff ff 
    e624:	48 8d 85 28 c6 ff ff 	lea    -0x39d8(%rbp),%rax
    e62b:	48 89 85 40 c6 ff ff 	mov    %rax,-0x39c0(%rbp)
    e632:	48 8d 85 40 c6 ff ff 	lea    -0x39c0(%rbp),%rax
    e639:	48 89 85 10 c7 ff ff 	mov    %rax,-0x38f0(%rbp)
    e640:	c7 85 70 c5 ff ff 01 	movl   $0x1,-0x3a90(%rbp)
    e647:	00 00 00 
    e64a:	c7 85 30 c5 ff ff 00 	movl   $0x0,-0x3ad0(%rbp)
    e651:	00 00 00 
    e654:	eb 52                	jmp    e6a8 <func_41+0x1c7a>
    e656:	c7 85 34 c5 ff ff 00 	movl   $0x0,-0x3acc(%rbp)
    e65d:	00 00 00 
    e660:	eb 36                	jmp    e698 <func_41+0x1c6a>
    e662:	8b 85 34 c5 ff ff    	mov    -0x3acc(%rbp),%eax
    e668:	48 63 c8             	movslq %eax,%rcx
    e66b:	8b 85 30 c5 ff ff    	mov    -0x3ad0(%rbp),%eax
    e671:	48 63 d0             	movslq %eax,%rdx
    e674:	48 89 d0             	mov    %rdx,%rax
    e677:	48 c1 e0 03          	shl    $0x3,%rax
    e67b:	48 29 d0             	sub    %rdx,%rax
    e67e:	48 8d 14 08          	lea    (%rax,%rcx,1),%rdx
    e682:	48 8d 85 38 c6 ff ff 	lea    -0x39c8(%rbp),%rax
    e689:	48 89 84 d5 80 c9 ff 	mov    %rax,-0x3680(%rbp,%rdx,8)
    e690:	ff 
    e691:	83 85 34 c5 ff ff 01 	addl   $0x1,-0x3acc(%rbp)
    e698:	83 bd 34 c5 ff ff 06 	cmpl   $0x6,-0x3acc(%rbp)
    e69f:	7e c1                	jle    e662 <func_41+0x1c34>
    e6a1:	83 85 30 c5 ff ff 01 	addl   $0x1,-0x3ad0(%rbp)
    e6a8:	83 bd 30 c5 ff ff 00 	cmpl   $0x0,-0x3ad0(%rbp)
    e6af:	7e a5                	jle    e656 <func_41+0x1c28>
    e6b1:	c7 85 f8 c4 ff ff ea 	movl   $0xffffffea,-0x3b08(%rbp)
    e6b8:	ff ff ff 
    e6bb:	e9 76 11 00 00       	jmpq   f836 <func_41+0x2e08>
    e6c0:	48 c7 85 90 c8 ff ff 	movq   $0x0,-0x3770(%rbp)
    e6c7:	00 00 00 00 
    e6cb:	48 8d 85 f4 c4 ff ff 	lea    -0x3b0c(%rbp),%rax
    e6d2:	48 89 85 48 c6 ff ff 	mov    %rax,-0x39b8(%rbp)
    e6d9:	48 8d 85 48 c6 ff ff 	lea    -0x39b8(%rbp),%rax
    e6e0:	48 89 85 50 c6 ff ff 	mov    %rax,-0x39b0(%rbp)
    e6e7:	48 8d 85 50 c6 ff ff 	lea    -0x39b0(%rbp),%rax
    e6ee:	48 89 85 58 c6 ff ff 	mov    %rax,-0x39a8(%rbp)
    e6f5:	48 8d 85 58 c6 ff ff 	lea    -0x39a8(%rbp),%rax
    e6fc:	48 89 85 98 c8 ff ff 	mov    %rax,-0x3768(%rbp)
    e703:	c6 85 cf c4 ff ff 01 	movb   $0x1,-0x3b31(%rbp)
    e70a:	c7 85 f4 c5 ff ff f1 	movl   $0xd29fa6f1,-0x3a0c(%rbp)
    e711:	a6 9f d2 
    e714:	c7 85 f8 c5 ff ff 6f 	movl   $0x8e43a86f,-0x3a08(%rbp)
    e71b:	a8 43 8e 
    e71e:	c7 85 38 c5 ff ff 00 	movl   $0x0,-0x3ac8(%rbp)
    e725:	00 00 00 
    e728:	eb 21                	jmp    e74b <func_41+0x1d1d>
    e72a:	8b 85 38 c5 ff ff    	mov    -0x3ac8(%rbp),%eax
    e730:	48 98                	cltq   
    e732:	48 bb 88 53 18 2e 95 	movabs $0x490ed9952e185388,%rbx
    e739:	d9 0e 49 
    e73c:	48 89 9c c5 00 f0 ff 	mov    %rbx,-0x1000(%rbp,%rax,8)
    e743:	ff 
    e744:	83 85 38 c5 ff ff 01 	addl   $0x1,-0x3ac8(%rbp)
    e74b:	83 bd 38 c5 ff ff 02 	cmpl   $0x2,-0x3ac8(%rbp)
    e752:	7e d6                	jle    e72a <func_41+0x1cfc>
    e754:	0f b6 85 cc c4 ff ff 	movzbl -0x3b34(%rbp),%eax
    e75b:	84 c0                	test   %al,%al
    e75d:	0f 85 4a 65 00 00    	jne    14cad <func_41+0x827f>
    e763:	c6 05 76 29 01 00 00 	movb   $0x0,0x12976(%rip)        # 210e0 <g_125>
    e76a:	90                   	nop
    e76b:	0f b6 05 6e 29 01 00 	movzbl 0x1296e(%rip),%eax        # 210e0 <g_125>
    e772:	3c 06                	cmp    $0x6,%al
    e774:	77 0e                	ja     e784 <func_41+0x1d56>
    e776:	48 8d 05 5b 29 01 00 	lea    0x1295b(%rip),%rax        # 210d8 <g_108+0x18>
    e77d:	8b 00                	mov    (%rax),%eax
    e77f:	e9 2f 65 00 00       	jmpq   14cb3 <func_41+0x8285>
    e784:	48 8b 85 48 c6 ff ff 	mov    -0x39b8(%rbp),%rax
    e78b:	8b 00                	mov    (%rax),%eax
    e78d:	48 63 d8             	movslq %eax,%rbx
    e790:	bf b2 c9 ff ff       	mov    $0xffffc9b2,%edi
    e795:	e8 03 bc ff ff       	callq  a39d <safe_unary_minus_func_int16_t_s>
    e79a:	98                   	cwtl   
    e79b:	89 c6                	mov    %eax,%esi
    e79d:	bf 20 8f ff ff       	mov    $0xffff8f20,%edi
    e7a2:	e8 2c bc ff ff       	callq  a3d3 <safe_sub_func_int16_t_s_s>
    e7a7:	41 89 c4             	mov    %eax,%r12d
    e7aa:	8b 85 bc c4 ff ff    	mov    -0x3b44(%rbp),%eax
    e7b0:	48 c7 05 d5 6a 01 00 	movq   $0x0,0x16ad5(%rip)        # 25290 <g_802>
    e7b7:	00 00 00 00 
    e7bb:	48 8b 95 98 c8 ff ff 	mov    -0x3768(%rbp),%rdx
    e7c2:	48 8d 0d af 6a 01 00 	lea    0x16aaf(%rip),%rcx        # 25278 <g_347>
    e7c9:	48 89 0a             	mov    %rcx,(%rdx)
    e7cc:	89 c6                	mov    %eax,%esi
    e7ce:	bf 01 00 00 00       	mov    $0x1,%edi
    e7d3:	e8 8b bd ff ff       	callq  a563 <safe_rshift_func_int16_t_s_u>
    e7d8:	44 21 e0             	and    %r12d,%eax
    e7db:	48 0f bf c0          	movswq %ax,%rax
    e7df:	48 89 de             	mov    %rbx,%rsi
    e7e2:	48 89 c7             	mov    %rax,%rdi
    e7e5:	e8 44 c8 ff ff       	callq  b02e <safe_add_func_uint64_t_u_u>
    e7ea:	48 8b 95 00 c6 ff ff 	mov    -0x3a00(%rbp),%rdx
    e7f1:	8b 12                	mov    (%rdx),%edx
    e7f3:	09 c2                	or     %eax,%edx
    e7f5:	48 8b 85 00 c6 ff ff 	mov    -0x3a00(%rbp),%rax
    e7fc:	89 10                	mov    %edx,(%rax)
    e7fe:	c7 05 d0 79 01 00 00 	movl   $0x0,0x179d0(%rip)        # 261d8 <g_530>
    e805:	00 00 00 
    e808:	e9 fc 0f 00 00       	jmpq   f809 <func_41+0x2ddb>
    e80d:	48 c7 85 70 c6 ff ff 	movq   $0xfffffffffffffff8,-0x3990(%rbp)
    e814:	f8 ff ff ff 
    e818:	48 8d 85 f4 c4 ff ff 	lea    -0x3b0c(%rbp),%rax
    e81f:	48 89 85 a0 c8 ff ff 	mov    %rax,-0x3760(%rbp)
    e826:	48 c7 85 a8 c8 ff ff 	movq   $0x0,-0x3758(%rbp)
    e82d:	00 00 00 00 
    e831:	48 8d 85 f4 c4 ff ff 	lea    -0x3b0c(%rbp),%rax
    e838:	48 89 85 b0 c8 ff ff 	mov    %rax,-0x3750(%rbp)
    e83f:	48 8d 05 5a 28 01 00 	lea    0x1285a(%rip),%rax        # 210a0 <g_80>
    e846:	48 89 85 60 c6 ff ff 	mov    %rax,-0x39a0(%rbp)
    e84d:	48 8d 05 4c 28 01 00 	lea    0x1284c(%rip),%rax        # 210a0 <g_80>
    e854:	48 89 85 e0 f7 ff ff 	mov    %rax,-0x820(%rbp)
    e85b:	48 8d 85 f8 c4 ff ff 	lea    -0x3b08(%rbp),%rax
    e862:	48 89 85 e8 f7 ff ff 	mov    %rax,-0x818(%rbp)
    e869:	48 c7 85 f0 f7 ff ff 	movq   $0x0,-0x810(%rbp)
    e870:	00 00 00 00 
    e874:	48 8d 85 f4 c4 ff ff 	lea    -0x3b0c(%rbp),%rax
    e87b:	48 89 85 f8 f7 ff ff 	mov    %rax,-0x808(%rbp)
    e882:	48 c7 85 00 f8 ff ff 	movq   $0x0,-0x800(%rbp)
    e889:	00 00 00 00 
    e88d:	48 c7 85 08 f8 ff ff 	movq   $0x0,-0x7f8(%rbp)
    e894:	00 00 00 00 
    e898:	48 8d 05 8d 27 01 00 	lea    0x1278d(%rip),%rax        # 2102c <g_27>
    e89f:	48 89 85 10 f8 ff ff 	mov    %rax,-0x7f0(%rbp)
    e8a6:	48 c7 85 18 f8 ff ff 	movq   $0x0,-0x7e8(%rbp)
    e8ad:	00 00 00 00 
    e8b1:	48 8d 05 74 27 01 00 	lea    0x12774(%rip),%rax        # 2102c <g_27>
    e8b8:	48 89 85 20 f8 ff ff 	mov    %rax,-0x7e0(%rbp)
    e8bf:	48 8d 05 1e 28 01 00 	lea    0x1281e(%rip),%rax        # 210e4 <g_147>
    e8c6:	48 89 85 28 f8 ff ff 	mov    %rax,-0x7d8(%rbp)
    e8cd:	48 8d 05 58 27 01 00 	lea    0x12758(%rip),%rax        # 2102c <g_27>
    e8d4:	48 89 85 30 f8 ff ff 	mov    %rax,-0x7d0(%rbp)
    e8db:	48 8d 05 42 27 01 00 	lea    0x12742(%rip),%rax        # 21024 <g_2>
    e8e2:	48 89 85 38 f8 ff ff 	mov    %rax,-0x7c8(%rbp)
    e8e9:	48 c7 85 40 f8 ff ff 	movq   $0x0,-0x7c0(%rbp)
    e8f0:	00 00 00 00 
    e8f4:	48 8d 05 29 27 01 00 	lea    0x12729(%rip),%rax        # 21024 <g_2>
    e8fb:	48 89 85 48 f8 ff ff 	mov    %rax,-0x7b8(%rbp)
    e902:	48 8d 05 1b 27 01 00 	lea    0x1271b(%rip),%rax        # 21024 <g_2>
    e909:	48 89 85 50 f8 ff ff 	mov    %rax,-0x7b0(%rbp)
    e910:	48 8d 05 0d 27 01 00 	lea    0x1270d(%rip),%rax        # 21024 <g_2>
    e917:	48 89 85 58 f8 ff ff 	mov    %rax,-0x7a8(%rbp)
    e91e:	48 c7 85 60 f8 ff ff 	movq   $0x0,-0x7a0(%rbp)
    e925:	00 00 00 00 
    e929:	48 c7 85 68 f8 ff ff 	movq   $0x0,-0x798(%rbp)
    e930:	00 00 00 00 
    e934:	48 8d 05 f1 26 01 00 	lea    0x126f1(%rip),%rax        # 2102c <g_27>
    e93b:	48 89 85 70 f8 ff ff 	mov    %rax,-0x790(%rbp)
    e942:	48 8d 05 57 27 01 00 	lea    0x12757(%rip),%rax        # 210a0 <g_80>
    e949:	48 89 85 78 f8 ff ff 	mov    %rax,-0x788(%rbp)
    e950:	48 8d 85 f8 c4 ff ff 	lea    -0x3b08(%rbp),%rax
    e957:	48 89 85 80 f8 ff ff 	mov    %rax,-0x780(%rbp)
    e95e:	48 8d 85 f8 c4 ff ff 	lea    -0x3b08(%rbp),%rax
    e965:	48 89 85 88 f8 ff ff 	mov    %rax,-0x778(%rbp)
    e96c:	48 c7 85 90 f8 ff ff 	movq   $0x0,-0x770(%rbp)
    e973:	00 00 00 00 
    e977:	48 8d 05 a6 26 01 00 	lea    0x126a6(%rip),%rax        # 21024 <g_2>
    e97e:	48 89 85 98 f8 ff ff 	mov    %rax,-0x768(%rbp)
    e985:	48 8d 05 98 26 01 00 	lea    0x12698(%rip),%rax        # 21024 <g_2>
    e98c:	48 89 85 a0 f8 ff ff 	mov    %rax,-0x760(%rbp)
    e993:	48 8d 05 8a 26 01 00 	lea    0x1268a(%rip),%rax        # 21024 <g_2>
    e99a:	48 89 85 a8 f8 ff ff 	mov    %rax,-0x758(%rbp)
    e9a1:	48 8d 05 7c 26 01 00 	lea    0x1267c(%rip),%rax        # 21024 <g_2>
    e9a8:	48 89 85 b0 f8 ff ff 	mov    %rax,-0x750(%rbp)
    e9af:	48 8d 05 6e 26 01 00 	lea    0x1266e(%rip),%rax        # 21024 <g_2>
    e9b6:	48 89 85 b8 f8 ff ff 	mov    %rax,-0x748(%rbp)
    e9bd:	48 8d 05 60 26 01 00 	lea    0x12660(%rip),%rax        # 21024 <g_2>
    e9c4:	48 89 85 c0 f8 ff ff 	mov    %rax,-0x740(%rbp)
    e9cb:	48 c7 85 c8 f8 ff ff 	movq   $0x0,-0x738(%rbp)
    e9d2:	00 00 00 00 
    e9d6:	48 8d 05 47 26 01 00 	lea    0x12647(%rip),%rax        # 21024 <g_2>
    e9dd:	48 89 85 d0 f8 ff ff 	mov    %rax,-0x730(%rbp)
    e9e4:	48 c7 85 d8 f8 ff ff 	movq   $0x0,-0x728(%rbp)
    e9eb:	00 00 00 00 
    e9ef:	48 8d 05 36 26 01 00 	lea    0x12636(%rip),%rax        # 2102c <g_27>
    e9f6:	48 89 85 e0 f8 ff ff 	mov    %rax,-0x720(%rbp)
    e9fd:	48 c7 85 e8 f8 ff ff 	movq   $0x0,-0x718(%rbp)
    ea04:	00 00 00 00 
    ea08:	48 8d 05 d5 26 01 00 	lea    0x126d5(%rip),%rax        # 210e4 <g_147>
    ea0f:	48 89 85 f0 f8 ff ff 	mov    %rax,-0x710(%rbp)
    ea16:	48 8d 05 0f 26 01 00 	lea    0x1260f(%rip),%rax        # 2102c <g_27>
    ea1d:	48 89 85 f8 f8 ff ff 	mov    %rax,-0x708(%rbp)
    ea24:	48 8d 05 75 26 01 00 	lea    0x12675(%rip),%rax        # 210a0 <g_80>
    ea2b:	48 89 85 00 f9 ff ff 	mov    %rax,-0x700(%rbp)
    ea32:	48 8d 05 67 26 01 00 	lea    0x12667(%rip),%rax        # 210a0 <g_80>
    ea39:	48 89 85 08 f9 ff ff 	mov    %rax,-0x6f8(%rbp)
    ea40:	48 8d 05 9d 26 01 00 	lea    0x1269d(%rip),%rax        # 210e4 <g_147>
    ea47:	48 89 85 10 f9 ff ff 	mov    %rax,-0x6f0(%rbp)
    ea4e:	48 c7 85 18 f9 ff ff 	movq   $0x0,-0x6e8(%rbp)
    ea55:	00 00 00 00 
    ea59:	48 8d 05 c4 25 01 00 	lea    0x125c4(%rip),%rax        # 21024 <g_2>
    ea60:	48 89 85 20 f9 ff ff 	mov    %rax,-0x6e0(%rbp)
    ea67:	48 c7 85 28 f9 ff ff 	movq   $0x0,-0x6d8(%rbp)
    ea6e:	00 00 00 00 
    ea72:	48 8d 05 6b 26 01 00 	lea    0x1266b(%rip),%rax        # 210e4 <g_147>
    ea79:	48 89 85 30 f9 ff ff 	mov    %rax,-0x6d0(%rbp)
    ea80:	48 8d 85 f8 c4 ff ff 	lea    -0x3b08(%rbp),%rax
    ea87:	48 89 85 38 f9 ff ff 	mov    %rax,-0x6c8(%rbp)
    ea8e:	48 8d 05 4f 26 01 00 	lea    0x1264f(%rip),%rax        # 210e4 <g_147>
    ea95:	48 89 85 40 f9 ff ff 	mov    %rax,-0x6c0(%rbp)
    ea9c:	48 c7 85 48 f9 ff ff 	movq   $0x0,-0x6b8(%rbp)
    eaa3:	00 00 00 00 
    eaa7:	48 8d 85 f8 c4 ff ff 	lea    -0x3b08(%rbp),%rax
    eaae:	48 89 85 50 f9 ff ff 	mov    %rax,-0x6b0(%rbp)
    eab5:	48 c7 85 58 f9 ff ff 	movq   $0x0,-0x6a8(%rbp)
    eabc:	00 00 00 00 
    eac0:	48 8d 85 f4 c4 ff ff 	lea    -0x3b0c(%rbp),%rax
    eac7:	48 89 85 60 f9 ff ff 	mov    %rax,-0x6a0(%rbp)
    eace:	48 8d 05 4f 25 01 00 	lea    0x1254f(%rip),%rax        # 21024 <g_2>
    ead5:	48 89 85 68 f9 ff ff 	mov    %rax,-0x698(%rbp)
    eadc:	48 c7 85 70 f9 ff ff 	movq   $0x0,-0x690(%rbp)
    eae3:	00 00 00 00 
    eae7:	48 8d 85 f4 c4 ff ff 	lea    -0x3b0c(%rbp),%rax
    eaee:	48 89 85 78 f9 ff ff 	mov    %rax,-0x688(%rbp)
    eaf5:	48 8d 05 30 25 01 00 	lea    0x12530(%rip),%rax        # 2102c <g_27>
    eafc:	48 89 85 80 f9 ff ff 	mov    %rax,-0x680(%rbp)
    eb03:	48 c7 85 88 f9 ff ff 	movq   $0x0,-0x678(%rbp)
    eb0a:	00 00 00 00 
    eb0e:	48 8d 05 0f 25 01 00 	lea    0x1250f(%rip),%rax        # 21024 <g_2>
    eb15:	48 89 85 90 f9 ff ff 	mov    %rax,-0x670(%rbp)
    eb1c:	48 c7 85 98 f9 ff ff 	movq   $0x0,-0x668(%rbp)
    eb23:	00 00 00 00 
    eb27:	48 c7 85 a0 f9 ff ff 	movq   $0x0,-0x660(%rbp)
    eb2e:	00 00 00 00 
    eb32:	48 8d 85 f4 c4 ff ff 	lea    -0x3b0c(%rbp),%rax
    eb39:	48 89 85 a8 f9 ff ff 	mov    %rax,-0x658(%rbp)
    eb40:	48 8d 85 f8 c4 ff ff 	lea    -0x3b08(%rbp),%rax
    eb47:	48 89 85 b0 f9 ff ff 	mov    %rax,-0x650(%rbp)
    eb4e:	48 8d 85 f4 c4 ff ff 	lea    -0x3b0c(%rbp),%rax
    eb55:	48 89 85 b8 f9 ff ff 	mov    %rax,-0x648(%rbp)
    eb5c:	48 8d 05 3d 25 01 00 	lea    0x1253d(%rip),%rax        # 210a0 <g_80>
    eb63:	48 89 85 c0 f9 ff ff 	mov    %rax,-0x640(%rbp)
    eb6a:	48 8d 05 2f 25 01 00 	lea    0x1252f(%rip),%rax        # 210a0 <g_80>
    eb71:	48 89 85 c8 f9 ff ff 	mov    %rax,-0x638(%rbp)
    eb78:	48 c7 85 d0 f9 ff ff 	movq   $0x0,-0x630(%rbp)
    eb7f:	00 00 00 00 
    eb83:	48 8d 05 5a 25 01 00 	lea    0x1255a(%rip),%rax        # 210e4 <g_147>
    eb8a:	48 89 85 d8 f9 ff ff 	mov    %rax,-0x628(%rbp)
    eb91:	48 8d 85 f4 c4 ff ff 	lea    -0x3b0c(%rbp),%rax
    eb98:	48 89 85 e0 f9 ff ff 	mov    %rax,-0x620(%rbp)
    eb9f:	48 8d 05 86 24 01 00 	lea    0x12486(%rip),%rax        # 2102c <g_27>
    eba6:	48 89 85 e8 f9 ff ff 	mov    %rax,-0x618(%rbp)
    ebad:	48 8d 05 70 24 01 00 	lea    0x12470(%rip),%rax        # 21024 <g_2>
    ebb4:	48 89 85 f0 f9 ff ff 	mov    %rax,-0x610(%rbp)
    ebbb:	48 8d 05 22 25 01 00 	lea    0x12522(%rip),%rax        # 210e4 <g_147>
    ebc2:	48 89 85 f8 f9 ff ff 	mov    %rax,-0x608(%rbp)
    ebc9:	48 c7 85 00 fa ff ff 	movq   $0x0,-0x600(%rbp)
    ebd0:	00 00 00 00 
    ebd4:	48 8d 85 f4 c4 ff ff 	lea    -0x3b0c(%rbp),%rax
    ebdb:	48 89 85 08 fa ff ff 	mov    %rax,-0x5f8(%rbp)
    ebe2:	48 8d 85 f4 c4 ff ff 	lea    -0x3b0c(%rbp),%rax
    ebe9:	48 89 85 10 fa ff ff 	mov    %rax,-0x5f0(%rbp)
    ebf0:	48 8d 05 2d 24 01 00 	lea    0x1242d(%rip),%rax        # 21024 <g_2>
    ebf7:	48 89 85 18 fa ff ff 	mov    %rax,-0x5e8(%rbp)
    ebfe:	48 c7 85 20 fa ff ff 	movq   $0x0,-0x5e0(%rbp)
    ec05:	00 00 00 00 
    ec09:	48 8d 85 f8 c4 ff ff 	lea    -0x3b08(%rbp),%rax
    ec10:	48 89 85 28 fa ff ff 	mov    %rax,-0x5d8(%rbp)
    ec17:	48 8d 85 f8 c4 ff ff 	lea    -0x3b08(%rbp),%rax
    ec1e:	48 89 85 30 fa ff ff 	mov    %rax,-0x5d0(%rbp)
    ec25:	48 c7 85 38 fa ff ff 	movq   $0x0,-0x5c8(%rbp)
    ec2c:	00 00 00 00 
    ec30:	48 8d 05 ed 23 01 00 	lea    0x123ed(%rip),%rax        # 21024 <g_2>
    ec37:	48 89 85 40 fa ff ff 	mov    %rax,-0x5c0(%rbp)
    ec3e:	48 8d 05 5b 24 01 00 	lea    0x1245b(%rip),%rax        # 210a0 <g_80>
    ec45:	48 89 85 48 fa ff ff 	mov    %rax,-0x5b8(%rbp)
    ec4c:	48 c7 85 50 fa ff ff 	movq   $0x0,-0x5b0(%rbp)
    ec53:	00 00 00 00 
    ec57:	48 8d 05 86 24 01 00 	lea    0x12486(%rip),%rax        # 210e4 <g_147>
    ec5e:	48 89 85 58 fa ff ff 	mov    %rax,-0x5a8(%rbp)
    ec65:	48 8d 85 f4 c4 ff ff 	lea    -0x3b0c(%rbp),%rax
    ec6c:	48 89 85 60 fa ff ff 	mov    %rax,-0x5a0(%rbp)
    ec73:	48 8d 05 aa 23 01 00 	lea    0x123aa(%rip),%rax        # 21024 <g_2>
    ec7a:	48 89 85 68 fa ff ff 	mov    %rax,-0x598(%rbp)
    ec81:	48 8d 05 5c 24 01 00 	lea    0x1245c(%rip),%rax        # 210e4 <g_147>
    ec88:	48 89 85 70 fa ff ff 	mov    %rax,-0x590(%rbp)
    ec8f:	48 8d 05 8e 23 01 00 	lea    0x1238e(%rip),%rax        # 21024 <g_2>
    ec96:	48 89 85 78 fa ff ff 	mov    %rax,-0x588(%rbp)
    ec9d:	48 c7 85 80 fa ff ff 	movq   $0x0,-0x580(%rbp)
    eca4:	00 00 00 00 
    eca8:	48 8d 05 f1 23 01 00 	lea    0x123f1(%rip),%rax        # 210a0 <g_80>
    ecaf:	48 89 85 88 fa ff ff 	mov    %rax,-0x578(%rbp)
    ecb6:	48 8d 05 6f 23 01 00 	lea    0x1236f(%rip),%rax        # 2102c <g_27>
    ecbd:	48 89 85 90 fa ff ff 	mov    %rax,-0x570(%rbp)
    ecc4:	48 8d 05 59 23 01 00 	lea    0x12359(%rip),%rax        # 21024 <g_2>
    eccb:	48 89 85 98 fa ff ff 	mov    %rax,-0x568(%rbp)
    ecd2:	48 8d 05 4b 23 01 00 	lea    0x1234b(%rip),%rax        # 21024 <g_2>
    ecd9:	48 89 85 a0 fa ff ff 	mov    %rax,-0x560(%rbp)
    ece0:	48 8d 05 3d 23 01 00 	lea    0x1233d(%rip),%rax        # 21024 <g_2>
    ece7:	48 89 85 a8 fa ff ff 	mov    %rax,-0x558(%rbp)
    ecee:	48 c7 85 b0 fa ff ff 	movq   $0x0,-0x550(%rbp)
    ecf5:	00 00 00 00 
    ecf9:	48 c7 85 b8 fa ff ff 	movq   $0x0,-0x548(%rbp)
    ed00:	00 00 00 00 
    ed04:	48 8d 05 d9 23 01 00 	lea    0x123d9(%rip),%rax        # 210e4 <g_147>
    ed0b:	48 89 85 c0 fa ff ff 	mov    %rax,-0x540(%rbp)
    ed12:	48 8d 85 f4 c4 ff ff 	lea    -0x3b0c(%rbp),%rax
    ed19:	48 89 85 c8 fa ff ff 	mov    %rax,-0x538(%rbp)
    ed20:	48 8d 85 f4 c4 ff ff 	lea    -0x3b0c(%rbp),%rax
    ed27:	48 89 85 d0 fa ff ff 	mov    %rax,-0x530(%rbp)
    ed2e:	48 c7 85 d8 fa ff ff 	movq   $0x0,-0x528(%rbp)
    ed35:	00 00 00 00 
    ed39:	48 8d 05 a4 23 01 00 	lea    0x123a4(%rip),%rax        # 210e4 <g_147>
    ed40:	48 89 85 e0 fa ff ff 	mov    %rax,-0x520(%rbp)
    ed47:	48 8d 05 52 23 01 00 	lea    0x12352(%rip),%rax        # 210a0 <g_80>
    ed4e:	48 89 85 e8 fa ff ff 	mov    %rax,-0x518(%rbp)
    ed55:	48 8d 85 f4 c4 ff ff 	lea    -0x3b0c(%rbp),%rax
    ed5c:	48 89 85 f0 fa ff ff 	mov    %rax,-0x510(%rbp)
    ed63:	48 c7 85 f8 fa ff ff 	movq   $0x0,-0x508(%rbp)
    ed6a:	00 00 00 00 
    ed6e:	48 8d 05 2b 23 01 00 	lea    0x1232b(%rip),%rax        # 210a0 <g_80>
    ed75:	48 89 85 00 fb ff ff 	mov    %rax,-0x500(%rbp)
    ed7c:	48 8d 85 f8 c4 ff ff 	lea    -0x3b08(%rbp),%rax
    ed83:	48 89 85 08 fb ff ff 	mov    %rax,-0x4f8(%rbp)
    ed8a:	48 8d 85 f8 c4 ff ff 	lea    -0x3b08(%rbp),%rax
    ed91:	48 89 85 10 fb ff ff 	mov    %rax,-0x4f0(%rbp)
    ed98:	48 8d 85 f8 c4 ff ff 	lea    -0x3b08(%rbp),%rax
    ed9f:	48 89 85 18 fb ff ff 	mov    %rax,-0x4e8(%rbp)
    eda6:	48 8d 05 77 22 01 00 	lea    0x12277(%rip),%rax        # 21024 <g_2>
    edad:	48 89 85 20 fb ff ff 	mov    %rax,-0x4e0(%rbp)
    edb4:	48 8d 85 f4 c4 ff ff 	lea    -0x3b0c(%rbp),%rax
    edbb:	48 89 85 28 fb ff ff 	mov    %rax,-0x4d8(%rbp)
    edc2:	48 8d 05 d7 22 01 00 	lea    0x122d7(%rip),%rax        # 210a0 <g_80>
    edc9:	48 89 85 30 fb ff ff 	mov    %rax,-0x4d0(%rbp)
    edd0:	48 8d 05 c9 22 01 00 	lea    0x122c9(%rip),%rax        # 210a0 <g_80>
    edd7:	48 89 85 38 fb ff ff 	mov    %rax,-0x4c8(%rbp)
    edde:	48 8d 05 3f 22 01 00 	lea    0x1223f(%rip),%rax        # 21024 <g_2>
    ede5:	48 89 85 40 fb ff ff 	mov    %rax,-0x4c0(%rbp)
    edec:	48 c7 85 48 fb ff ff 	movq   $0x0,-0x4b8(%rbp)
    edf3:	00 00 00 00 
    edf7:	48 8d 05 26 22 01 00 	lea    0x12226(%rip),%rax        # 21024 <g_2>
    edfe:	48 89 85 50 fb ff ff 	mov    %rax,-0x4b0(%rbp)
    ee05:	48 c7 85 58 fb ff ff 	movq   $0x0,-0x4a8(%rbp)
    ee0c:	00 00 00 00 
    ee10:	48 8d 05 cd 22 01 00 	lea    0x122cd(%rip),%rax        # 210e4 <g_147>
    ee17:	48 89 85 60 fb ff ff 	mov    %rax,-0x4a0(%rbp)
    ee1e:	48 8d 85 f8 c4 ff ff 	lea    -0x3b08(%rbp),%rax
    ee25:	48 89 85 68 fb ff ff 	mov    %rax,-0x498(%rbp)
    ee2c:	48 c7 85 70 fb ff ff 	movq   $0x0,-0x490(%rbp)
    ee33:	00 00 00 00 
    ee37:	48 8d 85 f4 c4 ff ff 	lea    -0x3b0c(%rbp),%rax
    ee3e:	48 89 85 78 fb ff ff 	mov    %rax,-0x488(%rbp)
    ee45:	48 c7 85 80 fb ff ff 	movq   $0x0,-0x480(%rbp)
    ee4c:	00 00 00 00 
    ee50:	48 8d 85 f8 c4 ff ff 	lea    -0x3b08(%rbp),%rax
    ee57:	48 89 85 88 fb ff ff 	mov    %rax,-0x478(%rbp)
    ee5e:	48 c7 85 90 fb ff ff 	movq   $0x0,-0x470(%rbp)
    ee65:	00 00 00 00 
    ee69:	48 8d 05 30 22 01 00 	lea    0x12230(%rip),%rax        # 210a0 <g_80>
    ee70:	48 89 85 98 fb ff ff 	mov    %rax,-0x468(%rbp)
    ee77:	48 8d 05 ae 21 01 00 	lea    0x121ae(%rip),%rax        # 2102c <g_27>
    ee7e:	48 89 85 a0 fb ff ff 	mov    %rax,-0x460(%rbp)
    ee85:	48 8d 05 a0 21 01 00 	lea    0x121a0(%rip),%rax        # 2102c <g_27>
    ee8c:	48 89 85 a8 fb ff ff 	mov    %rax,-0x458(%rbp)
    ee93:	48 8d 05 92 21 01 00 	lea    0x12192(%rip),%rax        # 2102c <g_27>
    ee9a:	48 89 85 b0 fb ff ff 	mov    %rax,-0x450(%rbp)
    eea1:	48 8d 05 84 21 01 00 	lea    0x12184(%rip),%rax        # 2102c <g_27>
    eea8:	48 89 85 b8 fb ff ff 	mov    %rax,-0x448(%rbp)
    eeaf:	48 8d 05 ea 21 01 00 	lea    0x121ea(%rip),%rax        # 210a0 <g_80>
    eeb6:	48 89 85 c0 fb ff ff 	mov    %rax,-0x440(%rbp)
    eebd:	48 8d 05 dc 21 01 00 	lea    0x121dc(%rip),%rax        # 210a0 <g_80>
    eec4:	48 89 85 c8 fb ff ff 	mov    %rax,-0x438(%rbp)
    eecb:	48 8d 05 ce 21 01 00 	lea    0x121ce(%rip),%rax        # 210a0 <g_80>
    eed2:	48 89 85 d0 fb ff ff 	mov    %rax,-0x430(%rbp)
    eed9:	48 8d 05 4c 21 01 00 	lea    0x1214c(%rip),%rax        # 2102c <g_27>
    eee0:	48 89 85 d8 fb ff ff 	mov    %rax,-0x428(%rbp)
    eee7:	48 c7 85 e0 fb ff ff 	movq   $0x0,-0x420(%rbp)
    eeee:	00 00 00 00 
    eef2:	48 c7 85 e8 fb ff ff 	movq   $0x0,-0x418(%rbp)
    eef9:	00 00 00 00 
    eefd:	48 8d 05 20 21 01 00 	lea    0x12120(%rip),%rax        # 21024 <g_2>
    ef04:	48 89 85 f0 fb ff ff 	mov    %rax,-0x410(%rbp)
    ef0b:	48 c7 85 f8 fb ff ff 	movq   $0x0,-0x408(%rbp)
    ef12:	00 00 00 00 
    ef16:	48 8d 05 0f 21 01 00 	lea    0x1210f(%rip),%rax        # 2102c <g_27>
    ef1d:	48 89 85 00 fc ff ff 	mov    %rax,-0x400(%rbp)
    ef24:	48 8d 85 f4 c4 ff ff 	lea    -0x3b0c(%rbp),%rax
    ef2b:	48 89 85 08 fc ff ff 	mov    %rax,-0x3f8(%rbp)
    ef32:	48 8d 05 67 21 01 00 	lea    0x12167(%rip),%rax        # 210a0 <g_80>
    ef39:	48 89 85 10 fc ff ff 	mov    %rax,-0x3f0(%rbp)
    ef40:	48 8d 05 e5 20 01 00 	lea    0x120e5(%rip),%rax        # 2102c <g_27>
    ef47:	48 89 85 18 fc ff ff 	mov    %rax,-0x3e8(%rbp)
    ef4e:	48 8d 05 8f 21 01 00 	lea    0x1218f(%rip),%rax        # 210e4 <g_147>
    ef55:	48 89 85 20 fc ff ff 	mov    %rax,-0x3e0(%rbp)
    ef5c:	48 8d 05 c9 20 01 00 	lea    0x120c9(%rip),%rax        # 2102c <g_27>
    ef63:	48 89 85 28 fc ff ff 	mov    %rax,-0x3d8(%rbp)
    ef6a:	48 8d 85 f4 c4 ff ff 	lea    -0x3b0c(%rbp),%rax
    ef71:	48 89 85 30 fc ff ff 	mov    %rax,-0x3d0(%rbp)
    ef78:	48 8d 05 a5 20 01 00 	lea    0x120a5(%rip),%rax        # 21024 <g_2>
    ef7f:	48 89 85 38 fc ff ff 	mov    %rax,-0x3c8(%rbp)
    ef86:	48 c7 85 40 fc ff ff 	movq   $0x0,-0x3c0(%rbp)
    ef8d:	00 00 00 00 
    ef91:	48 8d 05 94 20 01 00 	lea    0x12094(%rip),%rax        # 2102c <g_27>
    ef98:	48 89 85 48 fc ff ff 	mov    %rax,-0x3b8(%rbp)
    ef9f:	48 8d 05 3e 21 01 00 	lea    0x1213e(%rip),%rax        # 210e4 <g_147>
    efa6:	48 89 85 50 fc ff ff 	mov    %rax,-0x3b0(%rbp)
    efad:	48 c7 85 58 fc ff ff 	movq   $0x0,-0x3a8(%rbp)
    efb4:	00 00 00 00 
    efb8:	48 8d 85 f4 c4 ff ff 	lea    -0x3b0c(%rbp),%rax
    efbf:	48 89 85 60 fc ff ff 	mov    %rax,-0x3a0(%rbp)
    efc6:	48 8d 85 f4 c4 ff ff 	lea    -0x3b0c(%rbp),%rax
    efcd:	48 89 85 68 fc ff ff 	mov    %rax,-0x398(%rbp)
    efd4:	48 8d 05 49 20 01 00 	lea    0x12049(%rip),%rax        # 21024 <g_2>
    efdb:	48 89 85 70 fc ff ff 	mov    %rax,-0x390(%rbp)
    efe2:	48 8d 85 f4 c4 ff ff 	lea    -0x3b0c(%rbp),%rax
    efe9:	48 89 85 78 fc ff ff 	mov    %rax,-0x388(%rbp)
    eff0:	48 8d 05 35 20 01 00 	lea    0x12035(%rip),%rax        # 2102c <g_27>
    eff7:	48 89 85 80 fc ff ff 	mov    %rax,-0x380(%rbp)
    effe:	48 8d 05 1f 20 01 00 	lea    0x1201f(%rip),%rax        # 21024 <g_2>
    f005:	48 89 85 88 fc ff ff 	mov    %rax,-0x378(%rbp)
    f00c:	48 8d 05 11 20 01 00 	lea    0x12011(%rip),%rax        # 21024 <g_2>
    f013:	48 89 85 90 fc ff ff 	mov    %rax,-0x370(%rbp)
    f01a:	48 8d 05 c3 20 01 00 	lea    0x120c3(%rip),%rax        # 210e4 <g_147>
    f021:	48 89 85 98 fc ff ff 	mov    %rax,-0x368(%rbp)
    f028:	48 8d 05 b5 20 01 00 	lea    0x120b5(%rip),%rax        # 210e4 <g_147>
    f02f:	48 89 85 a0 fc ff ff 	mov    %rax,-0x360(%rbp)
    f036:	48 8d 85 f4 c4 ff ff 	lea    -0x3b0c(%rbp),%rax
    f03d:	48 89 85 a8 fc ff ff 	mov    %rax,-0x358(%rbp)
    f044:	48 c7 85 b0 fc ff ff 	movq   $0x0,-0x350(%rbp)
    f04b:	00 00 00 00 
    f04f:	48 8d 85 f8 c4 ff ff 	lea    -0x3b08(%rbp),%rax
    f056:	48 89 85 b8 fc ff ff 	mov    %rax,-0x348(%rbp)
    f05d:	48 8d 85 f4 c4 ff ff 	lea    -0x3b0c(%rbp),%rax
    f064:	48 89 85 c0 fc ff ff 	mov    %rax,-0x340(%rbp)
    f06b:	48 c7 85 c8 fc ff ff 	movq   $0x0,-0x338(%rbp)
    f072:	00 00 00 00 
    f076:	48 8d 05 67 20 01 00 	lea    0x12067(%rip),%rax        # 210e4 <g_147>
    f07d:	48 89 85 d0 fc ff ff 	mov    %rax,-0x330(%rbp)
    f084:	48 8d 05 a1 1f 01 00 	lea    0x11fa1(%rip),%rax        # 2102c <g_27>
    f08b:	48 89 85 d8 fc ff ff 	mov    %rax,-0x328(%rbp)
    f092:	48 c7 85 e0 fc ff ff 	movq   $0x0,-0x320(%rbp)
    f099:	00 00 00 00 
    f09d:	48 8d 85 f4 c4 ff ff 	lea    -0x3b0c(%rbp),%rax
    f0a4:	48 89 85 e8 fc ff ff 	mov    %rax,-0x318(%rbp)
    f0ab:	48 8d 05 ee 1f 01 00 	lea    0x11fee(%rip),%rax        # 210a0 <g_80>
    f0b2:	48 89 85 f0 fc ff ff 	mov    %rax,-0x310(%rbp)
    f0b9:	48 8d 05 64 1f 01 00 	lea    0x11f64(%rip),%rax        # 21024 <g_2>
    f0c0:	48 89 85 f8 fc ff ff 	mov    %rax,-0x308(%rbp)
    f0c7:	48 8d 05 5e 1f 01 00 	lea    0x11f5e(%rip),%rax        # 2102c <g_27>
    f0ce:	48 89 85 00 fd ff ff 	mov    %rax,-0x300(%rbp)
    f0d5:	48 c7 85 08 fd ff ff 	movq   $0x0,-0x2f8(%rbp)
    f0dc:	00 00 00 00 
    f0e0:	48 8d 05 b9 1f 01 00 	lea    0x11fb9(%rip),%rax        # 210a0 <g_80>
    f0e7:	48 89 85 10 fd ff ff 	mov    %rax,-0x2f0(%rbp)
    f0ee:	48 c7 85 18 fd ff ff 	movq   $0x0,-0x2e8(%rbp)
    f0f5:	00 00 00 00 
    f0f9:	48 8d 85 f4 c4 ff ff 	lea    -0x3b0c(%rbp),%rax
    f100:	48 89 85 20 fd ff ff 	mov    %rax,-0x2e0(%rbp)
    f107:	48 c7 85 28 fd ff ff 	movq   $0x0,-0x2d8(%rbp)
    f10e:	00 00 00 00 
    f112:	48 c7 85 30 fd ff ff 	movq   $0x0,-0x2d0(%rbp)
    f119:	00 00 00 00 
    f11d:	48 8d 85 f4 c4 ff ff 	lea    -0x3b0c(%rbp),%rax
    f124:	48 89 85 38 fd ff ff 	mov    %rax,-0x2c8(%rbp)
    f12b:	48 c7 85 40 fd ff ff 	movq   $0x0,-0x2c0(%rbp)
    f132:	00 00 00 00 
    f136:	48 c7 85 48 fd ff ff 	movq   $0x0,-0x2b8(%rbp)
    f13d:	00 00 00 00 
    f141:	48 8d 05 58 1f 01 00 	lea    0x11f58(%rip),%rax        # 210a0 <g_80>
    f148:	48 89 85 50 fd ff ff 	mov    %rax,-0x2b0(%rbp)
    f14f:	48 c7 85 58 fd ff ff 	movq   $0x0,-0x2a8(%rbp)
    f156:	00 00 00 00 
    f15a:	48 8d 05 83 1f 01 00 	lea    0x11f83(%rip),%rax        # 210e4 <g_147>
    f161:	48 89 85 60 fd ff ff 	mov    %rax,-0x2a0(%rbp)
    f168:	48 8d 05 31 1f 01 00 	lea    0x11f31(%rip),%rax        # 210a0 <g_80>
    f16f:	48 89 85 68 fd ff ff 	mov    %rax,-0x298(%rbp)
    f176:	48 8d 05 a7 1e 01 00 	lea    0x11ea7(%rip),%rax        # 21024 <g_2>
    f17d:	48 89 85 70 fd ff ff 	mov    %rax,-0x290(%rbp)
    f184:	48 8d 05 15 1f 01 00 	lea    0x11f15(%rip),%rax        # 210a0 <g_80>
    f18b:	48 89 85 78 fd ff ff 	mov    %rax,-0x288(%rbp)
    f192:	48 8d 85 f8 c4 ff ff 	lea    -0x3b08(%rbp),%rax
    f199:	48 89 85 80 fd ff ff 	mov    %rax,-0x280(%rbp)
    f1a0:	48 8d 85 f8 c4 ff ff 	lea    -0x3b08(%rbp),%rax
    f1a7:	48 89 85 88 fd ff ff 	mov    %rax,-0x278(%rbp)
    f1ae:	48 c7 85 90 fd ff ff 	movq   $0x0,-0x270(%rbp)
    f1b5:	00 00 00 00 
    f1b9:	48 8d 05 e0 1e 01 00 	lea    0x11ee0(%rip),%rax        # 210a0 <g_80>
    f1c0:	48 89 85 98 fd ff ff 	mov    %rax,-0x268(%rbp)
    f1c7:	48 8d 05 56 1e 01 00 	lea    0x11e56(%rip),%rax        # 21024 <g_2>
    f1ce:	48 89 85 a0 fd ff ff 	mov    %rax,-0x260(%rbp)
    f1d5:	48 8d 85 f8 c4 ff ff 	lea    -0x3b08(%rbp),%rax
    f1dc:	48 89 85 a8 fd ff ff 	mov    %rax,-0x258(%rbp)
    f1e3:	48 8d 85 f4 c4 ff ff 	lea    -0x3b0c(%rbp),%rax
    f1ea:	48 89 85 b0 fd ff ff 	mov    %rax,-0x250(%rbp)
    f1f1:	48 8d 05 a8 1e 01 00 	lea    0x11ea8(%rip),%rax        # 210a0 <g_80>
    f1f8:	48 89 85 b8 fd ff ff 	mov    %rax,-0x248(%rbp)
    f1ff:	48 8d 05 1e 1e 01 00 	lea    0x11e1e(%rip),%rax        # 21024 <g_2>
    f206:	48 89 85 c0 fd ff ff 	mov    %rax,-0x240(%rbp)
    f20d:	48 8d 85 f8 c4 ff ff 	lea    -0x3b08(%rbp),%rax
    f214:	48 89 85 c8 fd ff ff 	mov    %rax,-0x238(%rbp)
    f21b:	48 8d 05 7e 1e 01 00 	lea    0x11e7e(%rip),%rax        # 210a0 <g_80>
    f222:	48 89 85 d0 fd ff ff 	mov    %rax,-0x230(%rbp)
    f229:	48 c7 85 d8 fd ff ff 	movq   $0x0,-0x228(%rbp)
    f230:	00 00 00 00 
    f234:	48 8d 05 a9 1e 01 00 	lea    0x11ea9(%rip),%rax        # 210e4 <g_147>
    f23b:	48 89 85 e0 fd ff ff 	mov    %rax,-0x220(%rbp)
    f242:	48 8d 85 f4 c4 ff ff 	lea    -0x3b0c(%rbp),%rax
    f249:	48 89 85 e8 fd ff ff 	mov    %rax,-0x218(%rbp)
    f250:	48 8d 85 f4 c4 ff ff 	lea    -0x3b0c(%rbp),%rax
    f257:	48 89 85 f0 fd ff ff 	mov    %rax,-0x210(%rbp)
    f25e:	48 8d 85 f4 c4 ff ff 	lea    -0x3b0c(%rbp),%rax
    f265:	48 89 85 f8 fd ff ff 	mov    %rax,-0x208(%rbp)
    f26c:	48 8d 05 b1 1d 01 00 	lea    0x11db1(%rip),%rax        # 21024 <g_2>
    f273:	48 89 85 00 fe ff ff 	mov    %rax,-0x200(%rbp)
    f27a:	48 c7 85 08 fe ff ff 	movq   $0x0,-0x1f8(%rbp)
    f281:	00 00 00 00 
    f285:	48 c7 85 10 fe ff ff 	movq   $0x0,-0x1f0(%rbp)
    f28c:	00 00 00 00 
    f290:	48 8d 05 8d 1d 01 00 	lea    0x11d8d(%rip),%rax        # 21024 <g_2>
    f297:	48 89 85 18 fe ff ff 	mov    %rax,-0x1e8(%rbp)
    f29e:	48 8d 85 f8 c4 ff ff 	lea    -0x3b08(%rbp),%rax
    f2a5:	48 89 85 20 fe ff ff 	mov    %rax,-0x1e0(%rbp)
    f2ac:	48 8d 05 31 1e 01 00 	lea    0x11e31(%rip),%rax        # 210e4 <g_147>
    f2b3:	48 89 85 28 fe ff ff 	mov    %rax,-0x1d8(%rbp)
    f2ba:	48 8d 85 f8 c4 ff ff 	lea    -0x3b08(%rbp),%rax
    f2c1:	48 89 85 30 fe ff ff 	mov    %rax,-0x1d0(%rbp)
    f2c8:	48 c7 85 38 fe ff ff 	movq   $0x0,-0x1c8(%rbp)
    f2cf:	00 00 00 00 
    f2d3:	48 8d 05 4a 1d 01 00 	lea    0x11d4a(%rip),%rax        # 21024 <g_2>
    f2da:	48 89 85 40 fe ff ff 	mov    %rax,-0x1c0(%rbp)
    f2e1:	48 8d 05 fc 1d 01 00 	lea    0x11dfc(%rip),%rax        # 210e4 <g_147>
    f2e8:	48 89 85 48 fe ff ff 	mov    %rax,-0x1b8(%rbp)
    f2ef:	48 8d 05 2e 1d 01 00 	lea    0x11d2e(%rip),%rax        # 21024 <g_2>
    f2f6:	48 89 85 50 fe ff ff 	mov    %rax,-0x1b0(%rbp)
    f2fd:	48 8d 05 28 1d 01 00 	lea    0x11d28(%rip),%rax        # 2102c <g_27>
    f304:	48 89 85 58 fe ff ff 	mov    %rax,-0x1a8(%rbp)
    f30b:	48 8d 05 8e 1d 01 00 	lea    0x11d8e(%rip),%rax        # 210a0 <g_80>
    f312:	48 89 85 60 fe ff ff 	mov    %rax,-0x1a0(%rbp)
    f319:	48 c7 85 68 fe ff ff 	movq   $0x0,-0x198(%rbp)
    f320:	00 00 00 00 
    f324:	48 c7 85 70 fe ff ff 	movq   $0x0,-0x190(%rbp)
    f32b:	00 00 00 00 
    f32f:	48 c7 85 78 fe ff ff 	movq   $0x0,-0x188(%rbp)
    f336:	00 00 00 00 
    f33a:	48 8d 05 eb 1c 01 00 	lea    0x11ceb(%rip),%rax        # 2102c <g_27>
    f341:	48 89 85 80 fe ff ff 	mov    %rax,-0x180(%rbp)
    f348:	48 8d 05 51 1d 01 00 	lea    0x11d51(%rip),%rax        # 210a0 <g_80>
    f34f:	48 89 85 88 fe ff ff 	mov    %rax,-0x178(%rbp)
    f356:	48 8d 85 f4 c4 ff ff 	lea    -0x3b0c(%rbp),%rax
    f35d:	48 89 85 90 fe ff ff 	mov    %rax,-0x170(%rbp)
    f364:	48 8d 05 35 1d 01 00 	lea    0x11d35(%rip),%rax        # 210a0 <g_80>
    f36b:	48 89 85 98 fe ff ff 	mov    %rax,-0x168(%rbp)
    f372:	48 8d 05 b3 1c 01 00 	lea    0x11cb3(%rip),%rax        # 2102c <g_27>
    f379:	48 89 85 a0 fe ff ff 	mov    %rax,-0x160(%rbp)
    f380:	48 8d 85 f8 c4 ff ff 	lea    -0x3b08(%rbp),%rax
    f387:	48 89 85 a8 fe ff ff 	mov    %rax,-0x158(%rbp)
    f38e:	48 8d 85 f8 c4 ff ff 	lea    -0x3b08(%rbp),%rax
    f395:	48 89 85 b0 fe ff ff 	mov    %rax,-0x150(%rbp)
    f39c:	48 c7 85 b8 fe ff ff 	movq   $0x0,-0x148(%rbp)
    f3a3:	00 00 00 00 
    f3a7:	48 8d 05 76 1c 01 00 	lea    0x11c76(%rip),%rax        # 21024 <g_2>
    f3ae:	48 89 85 c0 fe ff ff 	mov    %rax,-0x140(%rbp)
    f3b5:	48 8d 05 28 1d 01 00 	lea    0x11d28(%rip),%rax        # 210e4 <g_147>
    f3bc:	48 89 85 c8 fe ff ff 	mov    %rax,-0x138(%rbp)
    f3c3:	48 8d 05 62 1c 01 00 	lea    0x11c62(%rip),%rax        # 2102c <g_27>
    f3ca:	48 89 85 d0 fe ff ff 	mov    %rax,-0x130(%rbp)
    f3d1:	48 8d 05 54 1c 01 00 	lea    0x11c54(%rip),%rax        # 2102c <g_27>
    f3d8:	48 89 85 d8 fe ff ff 	mov    %rax,-0x128(%rbp)
    f3df:	48 c7 85 e0 fe ff ff 	movq   $0x0,-0x120(%rbp)
    f3e6:	00 00 00 00 
    f3ea:	48 8d 05 33 1c 01 00 	lea    0x11c33(%rip),%rax        # 21024 <g_2>
    f3f1:	48 89 85 e8 fe ff ff 	mov    %rax,-0x118(%rbp)
    f3f8:	48 8d 05 25 1c 01 00 	lea    0x11c25(%rip),%rax        # 21024 <g_2>
    f3ff:	48 89 85 f0 fe ff ff 	mov    %rax,-0x110(%rbp)
    f406:	48 8d 85 f4 c4 ff ff 	lea    -0x3b0c(%rbp),%rax
    f40d:	48 89 85 f8 fe ff ff 	mov    %rax,-0x108(%rbp)
    f414:	48 8d 85 f4 c4 ff ff 	lea    -0x3b0c(%rbp),%rax
    f41b:	48 89 85 00 ff ff ff 	mov    %rax,-0x100(%rbp)
    f422:	48 8d 85 f8 c4 ff ff 	lea    -0x3b08(%rbp),%rax
    f429:	48 89 85 08 ff ff ff 	mov    %rax,-0xf8(%rbp)
    f430:	48 c7 85 10 ff ff ff 	movq   $0x0,-0xf0(%rbp)
    f437:	00 00 00 00 
    f43b:	48 8d 05 a2 1c 01 00 	lea    0x11ca2(%rip),%rax        # 210e4 <g_147>
    f442:	48 89 85 18 ff ff ff 	mov    %rax,-0xe8(%rbp)
    f449:	48 8d 85 f4 c4 ff ff 	lea    -0x3b0c(%rbp),%rax
    f450:	48 89 85 20 ff ff ff 	mov    %rax,-0xe0(%rbp)
    f457:	48 c7 85 28 ff ff ff 	movq   $0x0,-0xd8(%rbp)
    f45e:	00 00 00 00 
    f462:	48 c7 85 30 ff ff ff 	movq   $0x0,-0xd0(%rbp)
    f469:	00 00 00 00 
    f46d:	48 8d 05 70 1c 01 00 	lea    0x11c70(%rip),%rax        # 210e4 <g_147>
    f474:	48 89 85 38 ff ff ff 	mov    %rax,-0xc8(%rbp)
    f47b:	48 8d 05 1e 1c 01 00 	lea    0x11c1e(%rip),%rax        # 210a0 <g_80>
    f482:	48 89 85 40 ff ff ff 	mov    %rax,-0xc0(%rbp)
    f489:	48 8d 05 54 1c 01 00 	lea    0x11c54(%rip),%rax        # 210e4 <g_147>
    f490:	48 89 85 48 ff ff ff 	mov    %rax,-0xb8(%rbp)
    f497:	48 8d 85 f4 c4 ff ff 	lea    -0x3b0c(%rbp),%rax
    f49e:	48 89 85 50 ff ff ff 	mov    %rax,-0xb0(%rbp)
    f4a5:	48 8d 05 78 1b 01 00 	lea    0x11b78(%rip),%rax        # 21024 <g_2>
    f4ac:	48 89 85 58 ff ff ff 	mov    %rax,-0xa8(%rbp)
    f4b3:	48 8d 85 f8 c4 ff ff 	lea    -0x3b08(%rbp),%rax
    f4ba:	48 89 85 60 ff ff ff 	mov    %rax,-0xa0(%rbp)
    f4c1:	48 8d 85 f4 c4 ff ff 	lea    -0x3b0c(%rbp),%rax
    f4c8:	48 89 85 68 ff ff ff 	mov    %rax,-0x98(%rbp)
    f4cf:	48 8d 85 f4 c4 ff ff 	lea    -0x3b0c(%rbp),%rax
    f4d6:	48 89 85 70 ff ff ff 	mov    %rax,-0x90(%rbp)
    f4dd:	48 8d 05 bc 1b 01 00 	lea    0x11bbc(%rip),%rax        # 210a0 <g_80>
    f4e4:	48 89 85 78 ff ff ff 	mov    %rax,-0x88(%rbp)
    f4eb:	48 8d 05 32 1b 01 00 	lea    0x11b32(%rip),%rax        # 21024 <g_2>
    f4f2:	48 89 45 80          	mov    %rax,-0x80(%rbp)
    f4f6:	48 8d 05 e7 1b 01 00 	lea    0x11be7(%rip),%rax        # 210e4 <g_147>
    f4fd:	48 89 45 88          	mov    %rax,-0x78(%rbp)
    f501:	48 8d 05 98 1b 01 00 	lea    0x11b98(%rip),%rax        # 210a0 <g_80>
    f508:	48 89 45 90          	mov    %rax,-0x70(%rbp)
    f50c:	48 8d 05 11 1b 01 00 	lea    0x11b11(%rip),%rax        # 21024 <g_2>
    f513:	48 89 45 98          	mov    %rax,-0x68(%rbp)
    f517:	48 8d 05 06 1b 01 00 	lea    0x11b06(%rip),%rax        # 21024 <g_2>
    f51e:	48 89 45 a0          	mov    %rax,-0x60(%rbp)
    f522:	48 8d 05 03 1b 01 00 	lea    0x11b03(%rip),%rax        # 2102c <g_27>
    f529:	48 89 45 a8          	mov    %rax,-0x58(%rbp)
    f52d:	48 c7 45 b0 00 00 00 	movq   $0x0,-0x50(%rbp)
    f534:	00 
    f535:	48 8d 85 f8 c4 ff ff 	lea    -0x3b08(%rbp),%rax
    f53c:	48 89 45 b8          	mov    %rax,-0x48(%rbp)
    f540:	66 c7 05 9f 1b 01 00 	movw   $0xfffc,0x11b9f(%rip)        # 210e8 <g_193>
    f547:	fc ff 
    f549:	eb 23                	jmp    f56e <func_41+0x2b40>
    f54b:	48 8b 05 46 5a 01 00 	mov    0x15a46(%rip),%rax        # 24f98 <g_146>
    f552:	8b 00                	mov    (%rax),%eax
    f554:	48 98                	cltq   
    f556:	48 21 85 70 c6 ff ff 	and    %rax,-0x3990(%rbp)
    f55d:	0f b7 05 84 1b 01 00 	movzwl 0x11b84(%rip),%eax        # 210e8 <g_193>
    f564:	83 c0 01             	add    $0x1,%eax
    f567:	66 89 05 7a 1b 01 00 	mov    %ax,0x11b7a(%rip)        # 210e8 <g_193>
    f56e:	0f b7 05 73 1b 01 00 	movzwl 0x11b73(%rip),%eax        # 210e8 <g_193>
    f575:	66 83 f8 1a          	cmp    $0x1a,%ax
    f579:	7e d0                	jle    f54b <func_41+0x2b1d>
    f57b:	48 83 ad 68 c6 ff ff 	subq   $0x1,-0x3998(%rbp)
    f582:	01 
    f583:	66 c7 05 18 1b 01 00 	movw   $0x13,0x11b18(%rip)        # 210a4 <g_104>
    f58a:	13 00 
    f58c:	e9 2a 02 00 00       	jmpq   f7bb <func_41+0x2d8d>
    f591:	48 8d 05 e0 5c 01 00 	lea    0x15ce0(%rip),%rax        # 25278 <g_347>
    f598:	48 89 85 b8 c8 ff ff 	mov    %rax,-0x3748(%rbp)
    f59f:	66 c7 85 f2 c4 ff ff 	movw   $0x3965,-0x3b0e(%rbp)
    f5a6:	65 39 
    f5a8:	c7 85 fc c5 ff ff 8b 	movl   $0xf2d3fb8b,-0x3a04(%rbp)
    f5af:	fb d3 f2 
    f5b2:	66 c7 05 0d 1d 01 00 	movw   $0x2,0x11d0d(%rip)        # 212c8 <g_434>
    f5b9:	02 00 
    f5bb:	90                   	nop
    f5bc:	0f b7 05 05 1d 01 00 	movzwl 0x11d05(%rip),%eax        # 212c8 <g_434>
    f5c3:	66 85 c0             	test   %ax,%ax
    f5c6:	78 0b                	js     f5d3 <func_41+0x2ba5>
    f5c8:	8b 85 bc c4 ff ff    	mov    -0x3b44(%rbp),%eax
    f5ce:	e9 e0 56 00 00       	jmpq   14cb3 <func_41+0x8285>
    f5d3:	8b 85 bc c4 ff ff    	mov    -0x3b44(%rbp),%eax
    f5d9:	98                   	cwtl   
    f5da:	c7 85 fc c4 ff ff 01 	movl   $0x1,-0x3b04(%rbp)
    f5e1:	00 00 00 
    f5e4:	89 c6                	mov    %eax,%esi
    f5e6:	bf 01 00 00 00       	mov    $0x1,%edi
    f5eb:	e8 05 ae ff ff       	callq  a3f5 <safe_mul_func_int16_t_s_s>
    f5f0:	48 0f bf d8          	movswq %ax,%rbx
    f5f4:	48 8b 05 c5 1b 01 00 	mov    0x11bc5(%rip),%rax        # 211c0 <g_317+0x10>
    f5fb:	66 25 ff 03          	and    $0x3ff,%ax
    f5ff:	0f be c0             	movsbl %al,%eax
    f602:	be 01 00 00 00       	mov    $0x1,%esi
    f607:	89 c7                	mov    %eax,%edi
    f609:	e8 c6 ab ff ff       	callq  a1d4 <safe_add_func_int8_t_s_s>
    f60e:	48 8b 95 00 c6 ff ff 	mov    -0x3a00(%rbp),%rdx
    f615:	8b 0a                	mov    (%rdx),%ecx
    f617:	0f be d0             	movsbl %al,%edx
    f61a:	48 8b 85 00 c6 ff ff 	mov    -0x3a00(%rbp),%rax
    f621:	31 ca                	xor    %ecx,%edx
    f623:	89 10                	mov    %edx,(%rax)
    f625:	8b 00                	mov    (%rax),%eax
    f627:	48 98                	cltq   
    f629:	48 89 05 58 1a 01 00 	mov    %rax,0x11a58(%rip)        # 21088 <g_68+0x28>
    f630:	48 8b 05 51 1a 01 00 	mov    0x11a51(%rip),%rax        # 21088 <g_68+0x28>
    f637:	48 89 de             	mov    %rbx,%rsi
    f63a:	48 89 c7             	mov    %rax,%rdi
    f63d:	e8 6d ba ff ff       	callq  b0af <safe_div_func_uint64_t_u_u>
    f642:	48 8b 95 a0 c8 ff ff 	mov    -0x3760(%rbp),%rdx
    f649:	8b 12                	mov    (%rdx),%edx
    f64b:	21 d0                	and    %edx,%eax
    f64d:	89 c2                	mov    %eax,%edx
    f64f:	48 8b 85 a0 c8 ff ff 	mov    -0x3760(%rbp),%rax
    f656:	89 10                	mov    %edx,(%rax)
    f658:	48 8b 85 a0 c8 ff ff 	mov    -0x3760(%rbp),%rax
    f65f:	8b 10                	mov    (%rax),%edx
    f661:	48 83 bd f0 c6 ff ff 	cmpq   $0x0,-0x3910(%rbp)
    f668:	00 
    f669:	74 11                	je     f67c <func_41+0x2c4e>
    f66b:	66 83 bd f2 c4 ff ff 	cmpw   $0x0,-0x3b0e(%rbp)
    f672:	00 
    f673:	74 07                	je     f67c <func_41+0x2c4e>
    f675:	b8 01 00 00 00       	mov    $0x1,%eax
    f67a:	eb 05                	jmp    f681 <func_41+0x2c53>
    f67c:	b8 00 00 00 00       	mov    $0x0,%eax
    f681:	89 c1                	mov    %eax,%ecx
    f683:	8b 85 bc c4 ff ff    	mov    -0x3b44(%rbp),%eax
    f689:	39 c1                	cmp    %eax,%ecx
    f68b:	0f 97 c0             	seta   %al
    f68e:	0f b6 c0             	movzbl %al,%eax
    f691:	31 d0                	xor    %edx,%eax
    f693:	48 63 d0             	movslq %eax,%rdx
    f696:	48 8b 8d 10 c6 ff ff 	mov    -0x39f0(%rbp),%rcx
    f69d:	48 8b 85 b8 c8 ff ff 	mov    -0x3748(%rbp),%rax
    f6a4:	48 89 08             	mov    %rcx,(%rax)
    f6a7:	48 8b 85 b8 c8 ff ff 	mov    -0x3748(%rbp),%rax
    f6ae:	48 8b 00             	mov    (%rax),%rax
    f6b1:	48 85 c0             	test   %rax,%rax
    f6b4:	0f 95 c0             	setne  %al
    f6b7:	0f b6 c0             	movzbl %al,%eax
    f6ba:	48 89 d6             	mov    %rdx,%rsi
    f6bd:	48 89 c7             	mov    %rax,%rdi
    f6c0:	e8 7c b1 ff ff       	callq  a841 <safe_add_func_int64_t_s_s>
    f6c5:	48 89 85 90 c6 ff ff 	mov    %rax,-0x3970(%rbp)
    f6cc:	c7 85 bc c4 ff ff 00 	movl   $0x0,-0x3b44(%rbp)
    f6d3:	00 00 00 
    f6d6:	e9 a2 00 00 00       	jmpq   f77d <func_41+0x2d4f>
    f6db:	c6 85 cf c4 ff ff 00 	movb   $0x0,-0x3b31(%rbp)
    f6e2:	eb 7d                	jmp    f761 <func_41+0x2d33>
    f6e4:	48 c7 85 70 c6 ff ff 	movq   $0x0,-0x3990(%rbp)
    f6eb:	00 00 00 00 
    f6ef:	eb 56                	jmp    f747 <func_41+0x2d19>
    f6f1:	8b 95 bc c4 ff ff    	mov    -0x3b44(%rbp),%edx
    f6f7:	0f be 85 cf c4 ff ff 	movsbl -0x3b31(%rbp),%eax
    f6fe:	48 98                	cltq   
    f700:	89 d1                	mov    %edx,%ecx
    f702:	48 89 c2             	mov    %rax,%rdx
    f705:	48 01 d2             	add    %rdx,%rdx
    f708:	48 01 c2             	add    %rax,%rdx
    f70b:	48 89 c8             	mov    %rcx,%rax
    f70e:	48 c1 e0 02          	shl    $0x2,%rax
    f712:	48 01 c8             	add    %rcx,%rax
    f715:	48 c1 e0 02          	shl    $0x2,%rax
    f719:	48 01 c8             	add    %rcx,%rax
    f71c:	48 01 c2             	add    %rax,%rdx
    f71f:	48 8b 85 70 c6 ff ff 	mov    -0x3990(%rbp),%rax
    f726:	48 01 d0             	add    %rdx,%rax
    f729:	48 8d 14 85 00 00 00 	lea    0x0(,%rax,4),%rdx
    f730:	00 
    f731:	48 8d 05 c8 19 01 00 	lea    0x119c8(%rip),%rax        # 21100 <g_307>
    f738:	c7 04 02 63 11 21 5d 	movl   $0x5d211163,(%rdx,%rax,1)
    f73f:	48 83 85 70 c6 ff ff 	addq   $0x1,-0x3990(%rbp)
    f746:	01 
    f747:	48 83 bd 70 c6 ff ff 	cmpq   $0x2,-0x3990(%rbp)
    f74e:	02 
    f74f:	7e a0                	jle    f6f1 <func_41+0x2cc3>
    f751:	0f b6 85 cf c4 ff ff 	movzbl -0x3b31(%rbp),%eax
    f758:	83 c0 01             	add    $0x1,%eax
    f75b:	88 85 cf c4 ff ff    	mov    %al,-0x3b31(%rbp)
    f761:	80 bd cf c4 ff ff 06 	cmpb   $0x6,-0x3b31(%rbp)
    f768:	0f 8e 76 ff ff ff    	jle    f6e4 <func_41+0x2cb6>
    f76e:	8b 85 bc c4 ff ff    	mov    -0x3b44(%rbp),%eax
    f774:	83 c0 01             	add    $0x1,%eax
    f777:	89 85 bc c4 ff ff    	mov    %eax,-0x3b44(%rbp)
    f77d:	8b 85 bc c4 ff ff    	mov    -0x3b44(%rbp),%eax
    f783:	83 f8 01             	cmp    $0x1,%eax
    f786:	0f 86 4f ff ff ff    	jbe    f6db <func_41+0x2cad>
    f78c:	48 8b 85 08 f0 ff ff 	mov    -0xff8(%rbp),%rax
    f793:	48 83 e8 01          	sub    $0x1,%rax
    f797:	48 89 85 08 f0 ff ff 	mov    %rax,-0xff8(%rbp)
    f79e:	0f b7 05 ff 18 01 00 	movzwl 0x118ff(%rip),%eax        # 210a4 <g_104>
    f7a5:	0f b7 c0             	movzwl %ax,%eax
    f7a8:	be 04 00 00 00       	mov    $0x4,%esi
    f7ad:	89 c7                	mov    %eax,%edi
    f7af:	e8 4b b5 ff ff       	callq  acff <safe_add_func_uint16_t_u_u>
    f7b4:	66 89 05 e9 18 01 00 	mov    %ax,0x118e9(%rip)        # 210a4 <g_104>
    f7bb:	0f b7 05 e2 18 01 00 	movzwl 0x118e2(%rip),%eax        # 210a4 <g_104>
    f7c2:	66 83 f8 34          	cmp    $0x34,%ax
    f7c6:	0f 87 c5 fd ff ff    	ja     f591 <func_41+0x2b63>
    f7cc:	48 8b 0d ad 57 01 00 	mov    0x157ad(%rip),%rcx        # 24f80 <g_47>
    f7d3:	48 8b 05 e6 1b 01 00 	mov    0x11be6(%rip),%rax        # 213c0 <g_846>
    f7da:	48 8b 15 e7 1b 01 00 	mov    0x11be7(%rip),%rdx        # 213c8 <g_846+0x8>
    f7e1:	48 89 01             	mov    %rax,(%rcx)
    f7e4:	48 89 51 08          	mov    %rdx,0x8(%rcx)
    f7e8:	8b 05 e2 1b 01 00    	mov    0x11be2(%rip),%eax        # 213d0 <g_846+0x10>
    f7ee:	89 41 10             	mov    %eax,0x10(%rcx)
    f7f1:	8b 05 e1 69 01 00    	mov    0x169e1(%rip),%eax        # 261d8 <g_530>
    f7f7:	be 04 00 00 00       	mov    $0x4,%esi
    f7fc:	89 c7                	mov    %eax,%edi
    f7fe:	e8 cd b6 ff ff       	callq  aed0 <safe_sub_func_uint32_t_u_u>
    f803:	89 05 cf 69 01 00    	mov    %eax,0x169cf(%rip)        # 261d8 <g_530>
    f809:	8b 05 c9 69 01 00    	mov    0x169c9(%rip),%eax        # 261d8 <g_530>
    f80f:	83 f8 ff             	cmp    $0xffffffff,%eax
    f812:	0f 8d f5 ef ff ff    	jge    e80d <func_41+0x1ddf>
    f818:	8b 85 f8 c4 ff ff    	mov    -0x3b08(%rbp),%eax
    f81e:	0f b6 c0             	movzbl %al,%eax
    f821:	be 02 00 00 00       	mov    $0x2,%esi
    f826:	89 c7                	mov    %eax,%edi
    f828:	e8 2d b3 ff ff       	callq  ab5a <safe_add_func_uint8_t_u_u>
    f82d:	0f b6 c0             	movzbl %al,%eax
    f830:	89 85 f8 c4 ff ff    	mov    %eax,-0x3b08(%rbp)
    f836:	8b 85 f8 c4 ff ff    	mov    -0x3b08(%rbp),%eax
    f83c:	83 f8 08             	cmp    $0x8,%eax
    f83f:	0f 85 7b ee ff ff    	jne    e6c0 <func_41+0x1c92>
    f845:	c7 85 f4 c4 ff ff 00 	movl   $0x0,-0x3b0c(%rbp)
    f84c:	00 00 00 
    f84f:	e9 36 08 00 00       	jmpq   1008a <func_41+0x365c>
    f854:	c7 85 e0 c5 ff ff 19 	movl   $0x336e0919,-0x3a20(%rbp)
    f85b:	09 6e 33 
    f85e:	c7 85 e4 c5 ff ff 06 	movl   $0x6,-0x3a1c(%rbp)
    f865:	00 00 00 
    f868:	c7 85 e8 c5 ff ff 01 	movl   $0x1,-0x3a18(%rbp)
    f86f:	00 00 00 
    f872:	c7 85 ec c5 ff ff 83 	movl   $0x5f040a83,-0x3a14(%rbp)
    f879:	0a 04 5f 
    f87c:	48 8d 85 e0 f7 ff ff 	lea    -0x820(%rbp),%rax
    f883:	48 8d 15 96 b9 00 00 	lea    0xb996(%rip),%rdx        # 1b220 <g_2454+0xea8>
    f88a:	b9 69 00 00 00       	mov    $0x69,%ecx
    f88f:	48 89 c7             	mov    %rax,%rdi
    f892:	48 89 d6             	mov    %rdx,%rsi
    f895:	f3 48 a5             	rep movsq %ds:(%rsi),%es:(%rdi)
    f898:	48 b8 29 cd 0c 7d 5b 	movabs $0xeb60ac5b7d0ccd29,%rax
    f89f:	ac 60 eb 
    f8a2:	48 89 85 80 c8 ff ff 	mov    %rax,-0x3780(%rbp)
    f8a9:	c7 85 3c c5 ff ff 00 	movl   $0x0,-0x3ac4(%rbp)
    f8b0:	00 00 00 
    f8b3:	48 8d 05 f6 56 01 00 	lea    0x156f6(%rip),%rax        # 24fb0 <g_223>
    f8ba:	48 89 85 58 c6 ff ff 	mov    %rax,-0x39a8(%rbp)
    f8c1:	48 8d 85 58 c6 ff ff 	lea    -0x39a8(%rbp),%rax
    f8c8:	48 89 85 60 c6 ff ff 	mov    %rax,-0x39a0(%rbp)
    f8cf:	66 c7 05 f0 19 01 00 	movw   $0x0,0x119f0(%rip)        # 212c8 <g_434>
    f8d6:	00 00 
    f8d8:	e9 8a 07 00 00       	jmpq   10067 <func_41+0x3639>
    f8dd:	48 8d 85 20 c9 ff ff 	lea    -0x36e0(%rbp),%rax
    f8e4:	48 83 c0 0c          	add    $0xc,%rax
    f8e8:	48 89 85 50 d1 ff ff 	mov    %rax,-0x2eb0(%rbp)
    f8ef:	48 c7 85 58 d1 ff ff 	movq   $0x0,-0x2ea8(%rbp)
    f8f6:	00 00 00 00 
    f8fa:	48 8d 85 20 c9 ff ff 	lea    -0x36e0(%rbp),%rax
    f901:	48 83 c0 0c          	add    $0xc,%rax
    f905:	48 89 85 60 d1 ff ff 	mov    %rax,-0x2ea0(%rbp)
    f90c:	48 c7 85 68 d1 ff ff 	movq   $0x0,-0x2e98(%rbp)
    f913:	00 00 00 00 
    f917:	48 c7 85 70 d1 ff ff 	movq   $0x0,-0x2e90(%rbp)
    f91e:	00 00 00 00 
    f922:	48 8d 85 20 c9 ff ff 	lea    -0x36e0(%rbp),%rax
    f929:	48 83 c0 0c          	add    $0xc,%rax
    f92d:	48 89 85 78 d1 ff ff 	mov    %rax,-0x2e88(%rbp)
    f934:	48 c7 85 80 d1 ff ff 	movq   $0x0,-0x2e80(%rbp)
    f93b:	00 00 00 00 
    f93f:	48 8d 85 20 c9 ff ff 	lea    -0x36e0(%rbp),%rax
    f946:	48 83 c0 0c          	add    $0xc,%rax
    f94a:	48 89 85 88 d1 ff ff 	mov    %rax,-0x2e78(%rbp)
    f951:	48 c7 85 90 d1 ff ff 	movq   $0x0,-0x2e70(%rbp)
    f958:	00 00 00 00 
    f95c:	48 c7 85 98 d1 ff ff 	movq   $0x0,-0x2e68(%rbp)
    f963:	00 00 00 00 
    f967:	c6 85 d8 c4 ff ff 01 	movb   $0x1,-0x3b28(%rbp)
    f96e:	48 b8 7f 6a 7f 7f 6a 	movabs $0x6a7f7f6a7f7f6a7f,%rax
    f975:	7f 7f 6a 
    f978:	48 89 85 10 ca ff ff 	mov    %rax,-0x35f0(%rbp)
    f97f:	66 c7 85 18 ca ff ff 	movw   $0x7f7f,-0x35e8(%rbp)
    f986:	7f 7f 
    f988:	48 b8 6a 6a fa 6a 6a 	movabs $0x6a6afa6a6afa6a6a,%rax
    f98f:	fa 6a 6a 
    f992:	48 89 85 1a ca ff ff 	mov    %rax,-0x35e6(%rbp)
    f999:	66 c7 85 22 ca ff ff 	movw   $0x6afa,-0x35de(%rbp)
    f9a0:	fa 6a 
    f9a2:	48 b8 6a 7f 7f 6a 7f 	movabs $0x7f6a7f7f6a7f7f6a,%rax
    f9a9:	7f 6a 7f 
    f9ac:	48 89 85 24 ca ff ff 	mov    %rax,-0x35dc(%rbp)
    f9b3:	66 c7 85 2c ca ff ff 	movw   $0x6a7f,-0x35d4(%rbp)
    f9ba:	7f 6a 
    f9bc:	48 8d 05 75 19 01 00 	lea    0x11975(%rip),%rax        # 21338 <g_661>
    f9c3:	48 89 85 88 c8 ff ff 	mov    %rax,-0x3778(%rbp)
    f9ca:	0f b7 05 f7 18 01 00 	movzwl 0x118f7(%rip),%eax        # 212c8 <g_434>
    f9d1:	0f bf d0             	movswl %ax,%edx
    f9d4:	0f b7 05 ed 18 01 00 	movzwl 0x118ed(%rip),%eax        # 212c8 <g_434>
    f9db:	98                   	cwtl   
    f9dc:	83 c0 01             	add    $0x1,%eax
    f9df:	48 98                	cltq   
    f9e1:	48 63 d2             	movslq %edx,%rdx
    f9e4:	48 c1 e2 02          	shl    $0x2,%rdx
    f9e8:	48 01 d0             	add    %rdx,%rax
    f9eb:	48 8d 14 85 00 00 00 	lea    0x0(,%rax,4),%rdx
    f9f2:	00 
    f9f3:	48 8d 05 06 19 01 00 	lea    0x11906(%rip),%rax        # 21300 <g_622>
    f9fa:	8b 04 02             	mov    (%rdx,%rax,1),%eax
    f9fd:	85 c0                	test   %eax,%eax
    f9ff:	0f 85 75 06 00 00    	jne    1007a <func_41+0x364c>
    fa05:	83 ad 3c c5 ff ff 01 	subl   $0x1,-0x3ac4(%rbp)
    fa0c:	8b 85 bc c4 ff ff    	mov    -0x3b44(%rbp),%eax
    fa12:	0f be d8             	movsbl %al,%ebx
    fa15:	48 8d 05 ec 56 01 00 	lea    0x156ec(%rip),%rax        # 25108 <g_324+0xe8>
    fa1c:	48 39 85 f8 c6 ff ff 	cmp    %rax,-0x3908(%rbp)
    fa23:	48 8b 85 80 c6 ff ff 	mov    -0x3980(%rbp),%rax
    fa2a:	0f b6 00             	movzbl (%rax),%eax
    fa2d:	83 c8 08             	or     $0x8,%eax
    fa30:	89 c2                	mov    %eax,%edx
    fa32:	48 8b 85 80 c6 ff ff 	mov    -0x3980(%rbp),%rax
    fa39:	88 10                	mov    %dl,(%rax)
    fa3b:	48 8b 85 80 c6 ff ff 	mov    -0x3980(%rbp),%rax
    fa42:	0f b6 00             	movzbl (%rax),%eax
    fa45:	0f b6 d0             	movzbl %al,%edx
    fa48:	8b 85 bc c4 ff ff    	mov    -0x3b44(%rbp),%eax
    fa4e:	0f b6 c0             	movzbl %al,%eax
    fa51:	89 d6                	mov    %edx,%esi
    fa53:	89 c7                	mov    %eax,%edi
    fa55:	e8 81 b1 ff ff       	callq  abdb <safe_div_func_uint8_t_u_u>
    fa5a:	4c 8b a5 80 c8 ff ff 	mov    -0x3780(%rbp),%r12
    fa61:	8b 85 bc c4 ff ff    	mov    -0x3b44(%rbp),%eax
    fa67:	85 c0                	test   %eax,%eax
    fa69:	0f 84 b1 01 00 00    	je     fc20 <func_41+0x31f2>
    fa6f:	44 8b ad bc c4 ff ff 	mov    -0x3b44(%rbp),%r13d
    fa76:	b8 df ff ff ff       	mov    $0xffffffdf,%eax
    fa7b:	4c 0f bf f0          	movswq %ax,%r14
    fa7f:	48 8b 05 02 58 01 00 	mov    0x15802(%rip),%rax        # 25288 <g_767>
    fa86:	44 8b 38             	mov    (%rax),%r15d
    fa89:	8b 85 bc c4 ff ff    	mov    -0x3b44(%rbp),%eax
    fa8f:	0f b7 c0             	movzwl %ax,%eax
    fa92:	89 85 b8 c4 ff ff    	mov    %eax,-0x3b48(%rbp)
    fa98:	8b 05 2e 17 01 00    	mov    0x1172e(%rip),%eax        # 211cc <g_325+0x4>
    fa9e:	c1 e8 0f             	shr    $0xf,%eax
    faa1:	89 c2                	mov    %eax,%edx
    faa3:	0f b6 05 26 17 01 00 	movzbl 0x11726(%rip),%eax        # 211d0 <g_325+0x8>
    faaa:	83 e0 7f             	and    $0x7f,%eax
    faad:	48 c1 e0 11          	shl    $0x11,%rax
    fab1:	48 09 d0             	or     %rdx,%rax
    fab4:	0f b6 c8             	movzbl %al,%ecx
    fab7:	89 8d b4 c4 ff ff    	mov    %ecx,-0x3b4c(%rbp)
    fabd:	8b 85 bc c4 ff ff    	mov    -0x3b44(%rbp),%eax
    fac3:	0f bf f8             	movswl %ax,%edi
    fac6:	89 bd b0 c4 ff ff    	mov    %edi,-0x3b50(%rbp)
    facc:	8b 95 bc c4 ff ff    	mov    -0x3b44(%rbp),%edx
    fad2:	89 95 ac c4 ff ff    	mov    %edx,-0x3b54(%rbp)
    fad8:	8b 85 bc c4 ff ff    	mov    -0x3b44(%rbp),%eax
    fade:	44 0f be c0          	movsbl %al,%r8d
    fae2:	44 89 85 a8 c4 ff ff 	mov    %r8d,-0x3b58(%rbp)
    fae9:	8b 85 ec fa ff ff    	mov    -0x514(%rbp),%eax
    faef:	44 0f b6 c8          	movzbl %al,%r9d
    faf3:	44 89 8d a4 c4 ff ff 	mov    %r9d,-0x3b5c(%rbp)
    fafa:	8b 85 bc c4 ff ff    	mov    -0x3b44(%rbp),%eax
    fb00:	be 6b 4f 83 ab       	mov    $0xab834f6b,%esi
    fb05:	89 c7                	mov    %eax,%edi
    fb07:	e8 19 b4 ff ff       	callq  af25 <safe_div_func_uint32_t_u_u>
    fb0c:	0f b6 c0             	movzbl %al,%eax
    fb0f:	8b b5 a4 c4 ff ff    	mov    -0x3b5c(%rbp),%esi
    fb15:	89 c7                	mov    %eax,%edi
    fb17:	e8 bf b0 ff ff       	callq  abdb <safe_div_func_uint8_t_u_u>
    fb1c:	0f be c0             	movsbl %al,%eax
    fb1f:	8b b5 a8 c4 ff ff    	mov    -0x3b58(%rbp),%esi
    fb25:	89 c7                	mov    %eax,%edi
    fb27:	e8 e6 a6 ff ff       	callq  a212 <safe_mul_func_int8_t_s_s>
    fb2c:	0f be c0             	movsbl %al,%eax
    fb2f:	ba ff ff ff ff       	mov    $0xffffffff,%edx
    fb34:	31 d0                	xor    %edx,%eax
    fb36:	8b b5 ac c4 ff ff    	mov    -0x3b54(%rbp),%esi
    fb3c:	89 c7                	mov    %eax,%edi
    fb3e:	e8 75 b3 ff ff       	callq  aeb8 <safe_add_func_uint32_t_u_u>
    fb43:	98                   	cwtl   
    fb44:	8b b5 b0 c4 ff ff    	mov    -0x3b50(%rbp),%esi
    fb4a:	89 c7                	mov    %eax,%edi
    fb4c:	e8 82 a8 ff ff       	callq  a3d3 <safe_sub_func_int16_t_s_s>
    fb51:	0f b6 c0             	movzbl %al,%eax
    fb54:	8b b5 b4 c4 ff ff    	mov    -0x3b4c(%rbp),%esi
    fb5a:	89 c7                	mov    %eax,%edi
    fb5c:	e8 17 b0 ff ff       	callq  ab78 <safe_sub_func_uint8_t_u_u>
    fb61:	8b 85 f4 f7 ff ff    	mov    -0x80c(%rbp),%eax
    fb67:	3d 2a ce 55 5d       	cmp    $0x5d55ce2a,%eax
    fb6c:	0f 9f c0             	setg   %al
    fb6f:	0f b6 c0             	movzbl %al,%eax
    fb72:	8b b5 b8 c4 ff ff    	mov    -0x3b48(%rbp),%esi
    fb78:	89 c7                	mov    %eax,%edi
    fb7a:	e8 be b1 ff ff       	callq  ad3d <safe_mul_func_uint16_t_u_u>
    fb7f:	0f b7 c0             	movzwl %ax,%eax
    fb82:	44 89 fe             	mov    %r15d,%esi
    fb85:	89 c7                	mov    %eax,%edi
    fb87:	e8 73 ab ff ff       	callq  a6ff <safe_div_func_int32_t_s_s>
    fb8c:	48 98                	cltq   
    fb8e:	4c 89 f6             	mov    %r14,%rsi
    fb91:	48 89 c7             	mov    %rax,%rdi
    fb94:	e8 5e ae ff ff       	callq  a9f7 <safe_div_func_int64_t_s_s>
    fb99:	8b 95 bc c4 ff ff    	mov    -0x3b44(%rbp),%edx
    fb9f:	89 d2                	mov    %edx,%edx
    fba1:	48 39 d0             	cmp    %rdx,%rax
    fba4:	0f 95 c0             	setne  %al
    fba7:	0f b6 c0             	movzbl %al,%eax
    fbaa:	be 06 00 00 00       	mov    $0x6,%esi
    fbaf:	89 c7                	mov    %eax,%edi
    fbb1:	e8 b6 a7 ff ff       	callq  a36c <safe_rshift_func_int8_t_s_u>
    fbb6:	83 c8 07             	or     $0x7,%eax
    fbb9:	0f be c0             	movsbl %al,%eax
    fbbc:	44 89 ee             	mov    %r13d,%esi
    fbbf:	89 c7                	mov    %eax,%edi
    fbc1:	e8 f2 b2 ff ff       	callq  aeb8 <safe_add_func_uint32_t_u_u>
    fbc6:	89 c2                	mov    %eax,%edx
    fbc8:	48 8b 85 78 c6 ff ff 	mov    -0x3988(%rbp),%rax
    fbcf:	48 8b 00             	mov    (%rax),%rax
    fbd2:	89 d2                	mov    %edx,%edx
    fbd4:	48 31 c2             	xor    %rax,%rdx
    fbd7:	48 8b 85 78 c6 ff ff 	mov    -0x3988(%rbp),%rax
    fbde:	48 89 10             	mov    %rdx,(%rax)
    fbe1:	48 8b 85 78 c6 ff ff 	mov    -0x3988(%rbp),%rax
    fbe8:	48 8b 10             	mov    (%rax),%rdx
    fbeb:	48 8b 85 88 c8 ff ff 	mov    -0x3778(%rbp),%rax
    fbf2:	48 8b 00             	mov    (%rax),%rax
    fbf5:	48 21 c2             	and    %rax,%rdx
    fbf8:	48 8b 85 88 c8 ff ff 	mov    -0x3778(%rbp),%rax
    fbff:	48 89 10             	mov    %rdx,(%rax)
    fc02:	48 8b 05 a7 53 01 00 	mov    0x153a7(%rip),%rax        # 24fb0 <g_223>
    fc09:	0f b6 00             	movzbl (%rax),%eax
    fc0c:	0f b6 d0             	movzbl %al,%edx
    fc0f:	8b 85 bc c4 ff ff    	mov    -0x3b44(%rbp),%eax
    fc15:	39 c2                	cmp    %eax,%edx
    fc17:	74 07                	je     fc20 <func_41+0x31f2>
    fc19:	b8 01 00 00 00       	mov    $0x1,%eax
    fc1e:	eb 05                	jmp    fc25 <func_41+0x31f7>
    fc20:	b8 00 00 00 00       	mov    $0x0,%eax
    fc25:	48 98                	cltq   
    fc27:	4c 89 e6             	mov    %r12,%rsi
    fc2a:	48 89 c7             	mov    %rax,%rdi
    fc2d:	e8 fc b3 ff ff       	callq  b02e <safe_add_func_uint64_t_u_u>
    fc32:	48 89 c2             	mov    %rax,%rdx
    fc35:	0f b7 05 8c 16 01 00 	movzwl 0x1168c(%rip),%eax        # 212c8 <g_434>
    fc3c:	98                   	cwtl   
    fc3d:	83 c0 02             	add    $0x2,%eax
    fc40:	89 d1                	mov    %edx,%ecx
    fc42:	48 98                	cltq   
    fc44:	48 8d 15 09 14 01 00 	lea    0x11409(%rip),%rdx        # 21054 <g_57>
    fc4b:	88 0c 10             	mov    %cl,(%rax,%rdx,1)
    fc4e:	89 de                	mov    %ebx,%esi
    fc50:	bf 00 00 00 00       	mov    $0x0,%edi
    fc55:	e8 d7 a5 ff ff       	callq  a231 <safe_mod_func_int8_t_s_s>
    fc5a:	0f be c0             	movsbl %al,%eax
    fc5d:	89 c7                	mov    %eax,%edi
    fc5f:	e8 32 a9 ff ff       	callq  a596 <safe_unary_minus_func_int32_t_s>
    fc64:	85 c0                	test   %eax,%eax
    fc66:	74 0e                	je     fc76 <func_41+0x3248>
    fc68:	48 8d 05 69 14 01 00 	lea    0x11469(%rip),%rax        # 210d8 <g_108+0x18>
    fc6f:	8b 00                	mov    (%rax),%eax
    fc71:	e9 3d 50 00 00       	jmpq   14cb3 <func_41+0x8285>
    fc76:	c6 85 d9 c4 ff ff fa 	movb   $0xfa,-0x3b27(%rbp)
    fc7d:	48 c7 85 68 c6 ff ff 	movq   $0x3,-0x3998(%rbp)
    fc84:	03 00 00 00 
    fc88:	e9 74 03 00 00       	jmpq   10001 <func_41+0x35d3>
    fc8d:	48 c7 85 00 f0 ff ff 	movq   $0x0,-0x1000(%rbp)
    fc94:	00 00 00 00 
    fc98:	48 8d 85 60 c6 ff ff 	lea    -0x39a0(%rbp),%rax
    fc9f:	48 89 85 08 f0 ff ff 	mov    %rax,-0xff8(%rbp)
    fca6:	48 c7 85 10 f0 ff ff 	movq   $0x0,-0xff0(%rbp)
    fcad:	00 00 00 00 
    fcb1:	48 c7 85 18 f0 ff ff 	movq   $0x0,-0xfe8(%rbp)
    fcb8:	00 00 00 00 
    fcbc:	48 8d 85 60 c6 ff ff 	lea    -0x39a0(%rbp),%rax
    fcc3:	48 89 85 20 f0 ff ff 	mov    %rax,-0xfe0(%rbp)
    fcca:	48 8d 85 60 c6 ff ff 	lea    -0x39a0(%rbp),%rax
    fcd1:	48 89 85 28 f0 ff ff 	mov    %rax,-0xfd8(%rbp)
    fcd8:	48 8d 85 60 c6 ff ff 	lea    -0x39a0(%rbp),%rax
    fcdf:	48 89 85 30 f0 ff ff 	mov    %rax,-0xfd0(%rbp)
    fce6:	48 c7 85 38 f0 ff ff 	movq   $0x0,-0xfc8(%rbp)
    fced:	00 00 00 00 
    fcf1:	48 8d 85 60 c6 ff ff 	lea    -0x39a0(%rbp),%rax
    fcf8:	48 89 85 40 f0 ff ff 	mov    %rax,-0xfc0(%rbp)
    fcff:	48 c7 85 48 f0 ff ff 	movq   $0x0,-0xfb8(%rbp)
    fd06:	00 00 00 00 
    fd0a:	48 8d 85 60 c6 ff ff 	lea    -0x39a0(%rbp),%rax
    fd11:	48 89 85 50 f0 ff ff 	mov    %rax,-0xfb0(%rbp)
    fd18:	48 8d 85 60 c6 ff ff 	lea    -0x39a0(%rbp),%rax
    fd1f:	48 89 85 58 f0 ff ff 	mov    %rax,-0xfa8(%rbp)
    fd26:	48 c7 85 60 f0 ff ff 	movq   $0x0,-0xfa0(%rbp)
    fd2d:	00 00 00 00 
    fd31:	48 8d 85 60 c6 ff ff 	lea    -0x39a0(%rbp),%rax
    fd38:	48 89 85 68 f0 ff ff 	mov    %rax,-0xf98(%rbp)
    fd3f:	48 8d 85 60 c6 ff ff 	lea    -0x39a0(%rbp),%rax
    fd46:	48 89 85 70 f0 ff ff 	mov    %rax,-0xf90(%rbp)
    fd4d:	48 c7 85 78 f0 ff ff 	movq   $0x0,-0xf88(%rbp)
    fd54:	00 00 00 00 
    fd58:	48 8d 85 60 c6 ff ff 	lea    -0x39a0(%rbp),%rax
    fd5f:	48 89 85 80 f0 ff ff 	mov    %rax,-0xf80(%rbp)
    fd66:	48 c7 85 88 f0 ff ff 	movq   $0x0,-0xf78(%rbp)
    fd6d:	00 00 00 00 
    fd71:	48 c7 85 90 f0 ff ff 	movq   $0x0,-0xf70(%rbp)
    fd78:	00 00 00 00 
    fd7c:	48 8d 85 60 c6 ff ff 	lea    -0x39a0(%rbp),%rax
    fd83:	48 89 85 98 f0 ff ff 	mov    %rax,-0xf68(%rbp)
    fd8a:	48 8d 85 60 c6 ff ff 	lea    -0x39a0(%rbp),%rax
    fd91:	48 89 85 a0 f0 ff ff 	mov    %rax,-0xf60(%rbp)
    fd98:	48 8d 85 60 c6 ff ff 	lea    -0x39a0(%rbp),%rax
    fd9f:	48 89 85 a8 f0 ff ff 	mov    %rax,-0xf58(%rbp)
    fda6:	48 c7 85 b0 f0 ff ff 	movq   $0x0,-0xf50(%rbp)
    fdad:	00 00 00 00 
    fdb1:	48 8d 85 60 c6 ff ff 	lea    -0x39a0(%rbp),%rax
    fdb8:	48 89 85 b8 f0 ff ff 	mov    %rax,-0xf48(%rbp)
    fdbf:	48 c7 85 c0 f0 ff ff 	movq   $0x0,-0xf40(%rbp)
    fdc6:	00 00 00 00 
    fdca:	48 8d 85 60 c6 ff ff 	lea    -0x39a0(%rbp),%rax
    fdd1:	48 89 85 c8 f0 ff ff 	mov    %rax,-0xf38(%rbp)
    fdd8:	48 8d 85 60 c6 ff ff 	lea    -0x39a0(%rbp),%rax
    fddf:	48 89 85 d0 f0 ff ff 	mov    %rax,-0xf30(%rbp)
    fde6:	48 c7 85 d8 f0 ff ff 	movq   $0x0,-0xf28(%rbp)
    fded:	00 00 00 00 
    fdf1:	48 8d 85 60 c6 ff ff 	lea    -0x39a0(%rbp),%rax
    fdf8:	48 89 85 e0 f0 ff ff 	mov    %rax,-0xf20(%rbp)
    fdff:	48 8d 85 60 c6 ff ff 	lea    -0x39a0(%rbp),%rax
    fe06:	48 89 85 e8 f0 ff ff 	mov    %rax,-0xf18(%rbp)
    fe0d:	48 c7 85 40 cb ff ff 	movq   $0x0,-0x34c0(%rbp)
    fe14:	00 00 00 00 
    fe18:	48 c7 85 48 cb ff ff 	movq   $0x0,-0x34b8(%rbp)
    fe1f:	00 00 00 00 
    fe23:	48 c7 85 50 cb ff ff 	movq   $0x0,-0x34b0(%rbp)
    fe2a:	00 00 00 00 
    fe2e:	48 c7 85 58 cb ff ff 	movq   $0x0,-0x34a8(%rbp)
    fe35:	00 00 00 00 
    fe39:	c7 85 f0 c5 ff ff ad 	movl   $0xfffaa3ad,-0x3a10(%rbp)
    fe40:	a3 fa ff 
    fe43:	48 c7 85 c0 cd ff ff 	movq   $0x0,-0x3240(%rbp)
    fe4a:	00 00 00 00 
    fe4e:	48 c7 85 c8 cd ff ff 	movq   $0x0,-0x3238(%rbp)
    fe55:	00 00 00 00 
    fe59:	48 c7 85 d0 cd ff ff 	movq   $0x0,-0x3230(%rbp)
    fe60:	00 00 00 00 
    fe64:	48 c7 85 d8 cd ff ff 	movq   $0x0,-0x3228(%rbp)
    fe6b:	00 00 00 00 
    fe6f:	48 c7 85 e0 cd ff ff 	movq   $0x0,-0x3220(%rbp)
    fe76:	00 00 00 00 
    fe7a:	48 c7 85 e8 cd ff ff 	movq   $0x0,-0x3218(%rbp)
    fe81:	00 00 00 00 
    fe85:	48 8b 05 14 51 01 00 	mov    0x15114(%rip),%rax        # 24fa0 <g_214>
    fe8c:	0f b7 18             	movzwl (%rax),%ebx
    fe8f:	8b 85 bc c4 ff ff    	mov    -0x3b44(%rbp),%eax
    fe95:	41 89 c4             	mov    %eax,%r12d
    fe98:	48 8b 85 80 c8 ff ff 	mov    -0x3780(%rbp),%rax
    fe9f:	0f b7 d0             	movzwl %ax,%edx
    fea2:	48 8b 85 98 c6 ff ff 	mov    -0x3968(%rbp),%rax
    fea9:	48 89 85 58 cb ff ff 	mov    %rax,-0x34a8(%rbp)
    feb0:	48 8b 85 58 cb ff ff 	mov    -0x34a8(%rbp),%rax
    feb7:	48 8b 8d 68 c6 ff ff 	mov    -0x3998(%rbp),%rcx
    febe:	48 8d 34 cd 00 00 00 	lea    0x0(,%rcx,8),%rsi
    fec5:	00 
    fec6:	48 8d 0d 53 53 01 00 	lea    0x15353(%rip),%rcx        # 25220 <g_345>
    fecd:	48 01 f1             	add    %rsi,%rcx
    fed0:	48 39 c8             	cmp    %rcx,%rax
    fed3:	0f 95 c1             	setne  %cl
    fed6:	8b 85 f0 c5 ff ff    	mov    -0x3a10(%rbp),%eax
    fedc:	66 89 05 f1 14 01 00 	mov    %ax,0x114f1(%rip)        # 213d4 <g_919>
    fee3:	0f b7 05 ea 14 01 00 	movzwl 0x114ea(%rip),%eax        # 213d4 <g_919>
    feea:	98                   	cwtl   
    feeb:	89 05 f7 62 01 00    	mov    %eax,0x162f7(%rip)        # 261e8 <g_920>
    fef1:	8b 05 f1 62 01 00    	mov    0x162f1(%rip),%eax        # 261e8 <g_920>
    fef7:	85 c0                	test   %eax,%eax
    fef9:	75 0f                	jne    ff0a <func_41+0x34dc>
    fefb:	48 8b 05 9e 50 01 00 	mov    0x1509e(%rip),%rax        # 24fa0 <g_214>
    ff02:	0f b7 00             	movzwl (%rax),%eax
    ff05:	66 85 c0             	test   %ax,%ax
    ff08:	74 07                	je     ff11 <func_41+0x34e3>
    ff0a:	b8 01 00 00 00       	mov    $0x1,%eax
    ff0f:	eb 05                	jmp    ff16 <func_41+0x34e8>
    ff11:	b8 00 00 00 00       	mov    $0x0,%eax
    ff16:	83 e0 01             	and    $0x1,%eax
    ff19:	31 c8                	xor    %ecx,%eax
    ff1b:	0f b6 c0             	movzbl %al,%eax
    ff1e:	89 d6                	mov    %edx,%esi
    ff20:	89 c7                	mov    %eax,%edi
    ff22:	e8 16 ae ff ff       	callq  ad3d <safe_mul_func_uint16_t_u_u>
    ff27:	0f b7 c0             	movzwl %ax,%eax
    ff2a:	4c 89 e6             	mov    %r12,%rsi
    ff2d:	48 89 c7             	mov    %rax,%rdi
    ff30:	e8 f9 b0 ff ff       	callq  b02e <safe_add_func_uint64_t_u_u>
    ff35:	89 c7                	mov    %eax,%edi
    ff37:	0f b7 05 8a 13 01 00 	movzwl 0x1138a(%rip),%eax        # 212c8 <g_434>
    ff3e:	98                   	cwtl   
    ff3f:	8d 50 05             	lea    0x5(%rax),%edx
    ff42:	0f b7 05 7f 13 01 00 	movzwl 0x1137f(%rip),%eax        # 212c8 <g_434>
    ff49:	98                   	cwtl   
    ff4a:	48 63 d2             	movslq %edx,%rdx
    ff4d:	48 8d 0c d5 00 00 00 	lea    0x0(,%rdx,8),%rcx
    ff54:	00 
    ff55:	48 8d 15 64 50 01 00 	lea    0x15064(%rip),%rdx        # 24fc0 <g_282>
    ff5c:	48 8b 14 11          	mov    (%rcx,%rdx,1),%rdx
    ff60:	48 63 c8             	movslq %eax,%rcx
    ff63:	48 8d 34 cd 00 00 00 	lea    0x0(,%rcx,8),%rsi
    ff6a:	00 
    ff6b:	48 8d 0d 4e 50 01 00 	lea    0x1504e(%rip),%rcx        # 24fc0 <g_282>
    ff72:	48 89 14 0e          	mov    %rdx,(%rsi,%rcx,1)
    ff76:	48 98                	cltq   
    ff78:	48 8d 14 c5 00 00 00 	lea    0x0(,%rax,8),%rdx
    ff7f:	00 
    ff80:	48 8d 05 39 50 01 00 	lea    0x15039(%rip),%rax        # 24fc0 <g_282>
    ff87:	48 8b 14 02          	mov    (%rdx,%rax,1),%rdx
    ff8b:	48 8b 85 60 c6 ff ff 	mov    -0x39a0(%rbp),%rax
    ff92:	48 89 85 28 c6 ff ff 	mov    %rax,-0x39d8(%rbp)
    ff99:	48 8b 85 28 c6 ff ff 	mov    -0x39d8(%rbp),%rax
    ffa0:	48 39 c2             	cmp    %rax,%rdx
    ffa3:	0f 95 c0             	setne  %al
    ffa6:	0f b6 c0             	movzbl %al,%eax
    ffa9:	89 fe                	mov    %edi,%esi
    ffab:	89 c7                	mov    %eax,%edi
    ffad:	e8 96 ae ff ff       	callq  ae48 <safe_rshift_func_uint16_t_u_s>
    ffb2:	66 39 c3             	cmp    %ax,%bx
    ffb5:	0f 96 c0             	setbe  %al
    ffb8:	0f b6 c0             	movzbl %al,%eax
    ffbb:	48 8b 9d 00 c6 ff ff 	mov    -0x3a00(%rbp),%rbx
    ffc2:	89 c7                	mov    %eax,%edi
    ffc4:	e8 cd a5 ff ff       	callq  a596 <safe_unary_minus_func_int32_t_s>
    ffc9:	89 03                	mov    %eax,(%rbx)
    ffcb:	b8 00 00 00 00       	mov    $0x0,%eax
    ffd0:	84 c0                	test   %al,%al
    ffd2:	0f 85 7a dd ff ff    	jne    dd52 <func_41+0x1324>
    ffd8:	48 8b 05 a9 4f 01 00 	mov    0x14fa9(%rip),%rax        # 24f88 <g_79>
    ffdf:	8b 00                	mov    (%rax),%eax
    ffe1:	85 c0                	test   %eax,%eax
    ffe3:	75 13                	jne    fff8 <func_41+0x35ca>
    ffe5:	48 8b 05 8c 52 01 00 	mov    0x1528c(%rip),%rax        # 25278 <g_347>
    ffec:	48 8d 95 f8 c4 ff ff 	lea    -0x3b08(%rbp),%rdx
    fff3:	48 89 10             	mov    %rdx,(%rax)
    fff6:	eb 01                	jmp    fff9 <func_41+0x35cb>
    fff8:	90                   	nop
    fff9:	48 83 85 68 c6 ff ff 	addq   $0x1,-0x3998(%rbp)
   10000:	01 
   10001:	48 83 bd 68 c6 ff ff 	cmpq   $0x9,-0x3998(%rbp)
   10008:	09 
   10009:	0f 86 7e fc ff ff    	jbe    fc8d <func_41+0x325f>
   1000f:	8b 85 bc c4 ff ff    	mov    -0x3b44(%rbp),%eax
   10015:	89 85 ec c5 ff ff    	mov    %eax,-0x3a14(%rbp)
   1001b:	8b 8d ec c5 ff ff    	mov    -0x3a14(%rbp),%ecx
   10021:	48 8b 85 00 c6 ff ff 	mov    -0x3a00(%rbp),%rax
   10028:	8b 10                	mov    (%rax),%edx
   1002a:	48 8b 85 00 c6 ff ff 	mov    -0x3a00(%rbp),%rax
   10031:	21 ca                	and    %ecx,%edx
   10033:	89 10                	mov    %edx,(%rax)
   10035:	0f b6 85 d9 c4 ff ff 	movzbl -0x3b27(%rbp),%eax
   1003c:	83 c0 01             	add    $0x1,%eax
   1003f:	88 85 d9 c4 ff ff    	mov    %al,-0x3b27(%rbp)
   10045:	48 8b 85 10 c6 ff ff 	mov    -0x39f0(%rbp),%rax
   1004c:	48 8d 95 c4 c8 ff ff 	lea    -0x373c(%rbp),%rdx
   10053:	48 89 10             	mov    %rdx,(%rax)
   10056:	0f b7 05 6b 12 01 00 	movzwl 0x1126b(%rip),%eax        # 212c8 <g_434>
   1005d:	83 c0 01             	add    $0x1,%eax
   10060:	66 89 05 61 12 01 00 	mov    %ax,0x11261(%rip)        # 212c8 <g_434>
   10067:	0f b7 05 5a 12 01 00 	movzwl 0x1125a(%rip),%eax        # 212c8 <g_434>
   1006e:	66 83 f8 02          	cmp    $0x2,%ax
   10072:	0f 8e 65 f8 ff ff    	jle    f8dd <func_41+0x2eaf>
   10078:	eb 01                	jmp    1007b <func_41+0x364d>
   1007a:	90                   	nop
   1007b:	8b 85 f4 c4 ff ff    	mov    -0x3b0c(%rbp),%eax
   10081:	83 e8 01             	sub    $0x1,%eax
   10084:	89 85 f4 c4 ff ff    	mov    %eax,-0x3b0c(%rbp)
   1008a:	8b 85 f4 c4 ff ff    	mov    -0x3b0c(%rbp),%eax
   10090:	83 f8 e6             	cmp    $0xffffffe6,%eax
   10093:	0f 8d bb f7 ff ff    	jge    f854 <func_41+0x2e26>
   10099:	c7 05 25 61 01 00 1d 	movl   $0x1d,0x16125(%rip)        # 261c8 <g_132>
   100a0:	00 00 00 
   100a3:	e9 10 01 00 00       	jmpq   101b8 <func_41+0x378a>
   100a8:	48 8d 05 e9 9f 00 00 	lea    0x9fe9(%rip),%rax        # 1a098 <g_927>
   100af:	48 89 85 58 c8 ff ff 	mov    %rax,-0x37a8(%rbp)
   100b6:	c7 85 60 c6 ff ff 88 	movl   $0x8ce17188,-0x39a0(%rbp)
   100bd:	71 e1 8c 
   100c0:	c7 85 d0 c5 ff ff d3 	movl   $0xdfb3bfd3,-0x3a30(%rbp)
   100c7:	bf b3 df 
   100ca:	c7 85 d4 c5 ff ff 71 	movl   $0xd5630671,-0x3a2c(%rbp)
   100d1:	06 63 d5 
   100d4:	c7 85 d8 c5 ff ff f6 	movl   $0xfffffff6,-0x3a28(%rbp)
   100db:	ff ff ff 
   100de:	48 c7 85 60 c8 ff ff 	movq   $0x3,-0x37a0(%rbp)
   100e5:	03 00 00 00 
   100e9:	c7 85 dc c5 ff ff 02 	movl   $0x2,-0x3a24(%rbp)
   100f0:	00 00 00 
   100f3:	66 c7 85 f0 c4 ff ff 	movw   $0xffff,-0x3b10(%rbp)
   100fa:	ff ff 
   100fc:	48 8d 85 60 c6 ff ff 	lea    -0x39a0(%rbp),%rax
   10103:	48 89 85 e0 f7 ff ff 	mov    %rax,-0x820(%rbp)
   1010a:	48 8d 85 60 c6 ff ff 	lea    -0x39a0(%rbp),%rax
   10111:	48 89 85 e8 f7 ff ff 	mov    %rax,-0x818(%rbp)
   10118:	48 8d 05 81 0f 01 00 	lea    0x10f81(%rip),%rax        # 210a0 <g_80>
   1011f:	48 89 85 f0 f7 ff ff 	mov    %rax,-0x810(%rbp)
   10126:	48 8d 85 60 c6 ff ff 	lea    -0x39a0(%rbp),%rax
   1012d:	48 89 85 f8 f7 ff ff 	mov    %rax,-0x808(%rbp)
   10134:	48 8d 85 60 c6 ff ff 	lea    -0x39a0(%rbp),%rax
   1013b:	48 89 85 00 f8 ff ff 	mov    %rax,-0x800(%rbp)
   10142:	48 8d 05 57 0f 01 00 	lea    0x10f57(%rip),%rax        # 210a0 <g_80>
   10149:	48 89 85 08 f8 ff ff 	mov    %rax,-0x7f8(%rbp)
   10150:	48 8d 85 40 c9 ff ff 	lea    -0x36c0(%rbp),%rax
   10157:	48 89 85 68 c8 ff ff 	mov    %rax,-0x3798(%rbp)
   1015e:	48 b8 9a 6a 90 25 15 	movabs $0x658b4d1525906a9a,%rax
   10165:	4d 8b 65 
   10168:	48 89 85 70 c8 ff ff 	mov    %rax,-0x3790(%rbp)
   1016f:	48 c7 85 78 c8 ff ff 	movq   $0x0,-0x3788(%rbp)
   10176:	00 00 00 00 
   1017a:	c7 85 40 c5 ff ff 00 	movl   $0x0,-0x3ac0(%rbp)
   10181:	00 00 00 
   10184:	eb 1a                	jmp    101a0 <func_41+0x3772>
   10186:	8b 85 40 c5 ff ff    	mov    -0x3ac0(%rbp),%eax
   1018c:	48 98                	cltq   
   1018e:	c7 84 85 00 f0 ff ff 	movl   $0x88b4a57,-0x1000(%rbp,%rax,4)
   10195:	57 4a 8b 08 
   10199:	83 85 40 c5 ff ff 01 	addl   $0x1,-0x3ac0(%rbp)
   101a0:	83 bd 40 c5 ff ff 04 	cmpl   $0x4,-0x3ac0(%rbp)
   101a7:	7e dd                	jle    10186 <func_41+0x3758>
   101a9:	8b 05 19 60 01 00    	mov    0x16019(%rip),%eax        # 261c8 <g_132>
   101af:	83 c0 01             	add    $0x1,%eax
   101b2:	89 05 10 60 01 00    	mov    %eax,0x16010(%rip)        # 261c8 <g_132>
   101b8:	8b 05 0a 60 01 00    	mov    0x1600a(%rip),%eax        # 261c8 <g_132>
   101be:	83 f8 37             	cmp    $0x37,%eax
   101c1:	0f 85 e1 fe ff ff    	jne    100a8 <func_41+0x367a>
   101c7:	48 8b 05 da 50 01 00 	mov    0x150da(%rip),%rax        # 252a8 <g_1077>
   101ce:	48 8b 10             	mov    (%rax),%rdx
   101d1:	48 8b 85 98 c6 ff ff 	mov    -0x3968(%rbp),%rax
   101d8:	48 89 10             	mov    %rdx,(%rax)
   101db:	48 8b 85 98 c6 ff ff 	mov    -0x3968(%rbp),%rax
   101e2:	48 8b 10             	mov    (%rax),%rdx
   101e5:	48 8b 05 0c 51 01 00 	mov    0x1510c(%rip),%rax        # 252f8 <g_1124+0x38>
   101ec:	48 39 c2             	cmp    %rax,%rdx
   101ef:	0f 95 c0             	setne  %al
   101f2:	44 0f b6 e8          	movzbl %al,%r13d
   101f6:	8b 85 bc c4 ff ff    	mov    -0x3b44(%rbp),%eax
   101fc:	0f b6 d8             	movzbl %al,%ebx
   101ff:	8b 85 bc c4 ff ff    	mov    -0x3b44(%rbp),%eax
   10205:	0f be d0             	movsbl %al,%edx
   10208:	48 8b 85 00 c6 ff ff 	mov    -0x3a00(%rbp),%rax
   1020f:	8b 00                	mov    (%rax),%eax
   10211:	89 c1                	mov    %eax,%ecx
   10213:	48 8b 85 60 c9 ff ff 	mov    -0x36a0(%rbp),%rax
   1021a:	48 85 c0             	test   %rax,%rax
   1021d:	0f 95 c0             	setne  %al
   10220:	09 c8                	or     %ecx,%eax
   10222:	0f be c0             	movsbl %al,%eax
   10225:	89 d6                	mov    %edx,%esi
   10227:	89 c7                	mov    %eax,%edi
   10229:	e8 c4 9f ff ff       	callq  a1f2 <safe_sub_func_int8_t_s_s>
   1022e:	0f b7 05 db 0f 01 00 	movzwl 0x10fdb(%rip),%eax        # 21210 <g_338+0x30>
   10235:	c1 e0 02             	shl    $0x2,%eax
   10238:	66 c1 f8 09          	sar    $0x9,%ax
   1023c:	4c 0f be e0          	movsbq %al,%r12
   10240:	48 8b 05 59 4d 01 00 	mov    0x14d59(%rip),%rax        # 24fa0 <g_214>
   10247:	0f b7 00             	movzwl (%rax),%eax
   1024a:	0f b7 c0             	movzwl %ax,%eax
   1024d:	89 c6                	mov    %eax,%esi
   1024f:	bf 31 c3 00 00       	mov    $0xc331,%edi
   10254:	e8 e4 aa ff ff       	callq  ad3d <safe_mul_func_uint16_t_u_u>
   10259:	0f b7 c0             	movzwl %ax,%eax
   1025c:	be ff ff ff ff       	mov    $0xffffffff,%esi
   10261:	89 c7                	mov    %eax,%edi
   10263:	e8 95 ac ff ff       	callq  aefd <safe_mod_func_uint32_t_u_u>
   10268:	8b 95 bc c4 ff ff    	mov    -0x3b44(%rbp),%edx
   1026e:	39 d0                	cmp    %edx,%eax
   10270:	0f 97 c0             	seta   %al
   10273:	0f b6 c0             	movzbl %al,%eax
   10276:	4c 89 e6             	mov    %r12,%rsi
   10279:	48 89 c7             	mov    %rax,%rdi
   1027c:	e8 76 a7 ff ff       	callq  a9f7 <safe_div_func_int64_t_s_s>
   10281:	48 8b 05 b0 0d 01 00 	mov    0x10db0(%rip),%rax        # 21038 <g_38>
   10288:	48 83 f8 01          	cmp    $0x1,%rax
   1028c:	0f 96 c0             	setbe  %al
   1028f:	0f b6 c0             	movzbl %al,%eax
   10292:	89 c6                	mov    %eax,%esi
   10294:	bf 01 00 00 00       	mov    $0x1,%edi
   10299:	e8 9f aa ff ff       	callq  ad3d <safe_mul_func_uint16_t_u_u>
   1029e:	0f b7 d0             	movzwl %ax,%edx
   102a1:	48 8b 85 50 d8 ff ff 	mov    -0x27b0(%rbp),%rax
   102a8:	48 39 c2             	cmp    %rax,%rdx
   102ab:	0f 95 c0             	setne  %al
   102ae:	0f b6 d0             	movzbl %al,%edx
   102b1:	8b 85 bc c4 ff ff    	mov    -0x3b44(%rbp),%eax
   102b7:	39 c2                	cmp    %eax,%edx
   102b9:	0f 97 c0             	seta   %al
   102bc:	0f b6 d0             	movzbl %al,%edx
   102bf:	8b 05 03 5f 01 00    	mov    0x15f03(%rip),%eax        # 261c8 <g_132>
   102c5:	39 c2                	cmp    %eax,%edx
   102c7:	0f 94 c0             	sete   %al
   102ca:	0f b6 c0             	movzbl %al,%eax
   102cd:	89 de                	mov    %ebx,%esi
   102cf:	89 c7                	mov    %eax,%edi
   102d1:	e8 84 a8 ff ff       	callq  ab5a <safe_add_func_uint8_t_u_u>
   102d6:	0f b6 d0             	movzbl %al,%edx
   102d9:	8b 85 bc c4 ff ff    	mov    -0x3b44(%rbp),%eax
   102df:	09 d0                	or     %edx,%eax
   102e1:	41 39 c5             	cmp    %eax,%r13d
   102e4:	0f 84 d7 19 00 00    	je     11cc1 <func_41+0x5293>
   102ea:	c6 85 d0 c4 ff ff 2d 	movb   $0x2d,-0x3b30(%rbp)
   102f1:	c7 85 44 c5 ff ff 00 	movl   $0x0,-0x3abc(%rbp)
   102f8:	00 00 00 
   102fb:	c7 85 60 c6 ff ff d1 	movl   $0x697f58d1,-0x39a0(%rbp)
   10302:	58 7f 69 
   10305:	48 8d 85 60 ca ff ff 	lea    -0x35a0(%rbp),%rax
   1030c:	48 83 c0 26          	add    $0x26,%rax
   10310:	48 89 85 18 c8 ff ff 	mov    %rax,-0x37e8(%rbp)
   10317:	c7 85 b4 c5 ff ff 00 	movl   $0x0,-0x3a4c(%rbp)
   1031e:	00 00 00 
   10321:	c7 85 b8 c5 ff ff 01 	movl   $0x1,-0x3a48(%rbp)
   10328:	00 00 00 
   1032b:	48 8b 15 56 4c 01 00 	mov    0x14c56(%rip),%rdx        # 24f88 <g_79>
   10332:	48 8b 05 4f 4c 01 00 	mov    0x14c4f(%rip),%rax        # 24f88 <g_79>
   10339:	8b 12                	mov    (%rdx),%edx
   1033b:	89 10                	mov    %edx,(%rax)
   1033d:	8b 00                	mov    (%rax),%eax
   1033f:	85 c0                	test   %eax,%eax
   10341:	0f 84 7b 04 00 00    	je     107c2 <func_41+0x3d94>
   10347:	c6 85 d7 c4 ff ff ff 	movb   $0xff,-0x3b29(%rbp)
   1034e:	c7 85 c0 c5 ff ff 01 	movl   $0x1,-0x3a40(%rbp)
   10355:	00 00 00 
   10358:	c7 85 48 c5 ff ff 0a 	movl   $0xd3ec7d0a,-0x3ab8(%rbp)
   1035f:	7d ec d3 
   10362:	48 b8 9c a1 b2 80 f1 	movabs $0x82f46bf180b2a19c,%rax
   10369:	6b f4 82 
   1036c:	48 89 85 40 c8 ff ff 	mov    %rax,-0x37c0(%rbp)
   10373:	80 85 d0 c4 ff ff 01 	addb   $0x1,-0x3b30(%rbp)
   1037a:	c7 85 08 c5 ff ff 10 	movl   $0x10,-0x3af8(%rbp)
   10381:	00 00 00 
   10384:	e9 d0 03 00 00       	jmpq   10759 <func_41+0x3d2b>
   10389:	66 c7 85 ee c4 ff ff 	movw   $0xffff,-0x3b12(%rbp)
   10390:	ff ff 
   10392:	48 8d 85 cc c4 ff ff 	lea    -0x3b34(%rbp),%rax
   10399:	48 89 85 48 c8 ff ff 	mov    %rax,-0x37b8(%rbp)
   103a0:	c7 85 c4 c5 ff ff dc 	movl   $0x759caddc,-0x3a3c(%rbp)
   103a7:	ad 9c 75 
   103aa:	c7 85 4c c5 ff ff 00 	movl   $0x0,-0x3ab4(%rbp)
   103b1:	00 00 00 
   103b4:	eb 1a                	jmp    103d0 <func_41+0x39a2>
   103b6:	8b 85 4c c5 ff ff    	mov    -0x3ab4(%rbp),%eax
   103bc:	48 98                	cltq   
   103be:	c7 84 85 50 d1 ff ff 	movl   $0x0,-0x2eb0(%rbp,%rax,4)
   103c5:	00 00 00 00 
   103c9:	83 85 4c c5 ff ff 01 	addl   $0x1,-0x3ab4(%rbp)
   103d0:	83 bd 4c c5 ff ff 06 	cmpl   $0x6,-0x3ab4(%rbp)
   103d7:	7e dd                	jle    103b6 <func_41+0x3988>
   103d9:	8b 85 bc c4 ff ff    	mov    -0x3b44(%rbp),%eax
   103df:	85 c0                	test   %eax,%eax
   103e1:	0f 85 0b 01 00 00    	jne    104f2 <func_41+0x3ac4>
   103e7:	48 8b 85 30 c6 ff ff 	mov    -0x39d0(%rbp),%rax
   103ee:	8b 00                	mov    (%rax),%eax
   103f0:	89 c3                	mov    %eax,%ebx
   103f2:	8b 85 bc c4 ff ff    	mov    -0x3b44(%rbp),%eax
   103f8:	89 c7                	mov    %eax,%edi
   103fa:	e8 a7 aa ff ff       	callq  aea6 <safe_unary_minus_func_uint32_t_u>
   103ff:	39 c3                	cmp    %eax,%ebx
   10401:	0f 95 c0             	setne  %al
   10404:	89 c2                	mov    %eax,%edx
   10406:	48 8b 85 48 c8 ff ff 	mov    -0x37b8(%rbp),%rax
   1040d:	88 10                	mov    %dl,(%rax)
   1040f:	48 8b 85 48 c8 ff ff 	mov    -0x37b8(%rbp),%rax
   10416:	0f b6 00             	movzbl (%rax),%eax
   10419:	0f b6 d0             	movzbl %al,%edx
   1041c:	0f b6 8d d7 c4 ff ff 	movzbl -0x3b29(%rbp),%ecx
   10423:	0f bf 85 ee c4 ff ff 	movswl -0x3b12(%rbp),%eax
   1042a:	39 c1                	cmp    %eax,%ecx
   1042c:	75 0a                	jne    10438 <func_41+0x3a0a>
   1042e:	8b 85 bc c4 ff ff    	mov    -0x3b44(%rbp),%eax
   10434:	85 c0                	test   %eax,%eax
   10436:	74 07                	je     1043f <func_41+0x3a11>
   10438:	b8 01 00 00 00       	mov    $0x1,%eax
   1043d:	eb 05                	jmp    10444 <func_41+0x3a16>
   1043f:	b8 00 00 00 00       	mov    $0x0,%eax
   10444:	89 c1                	mov    %eax,%ecx
   10446:	8b 85 bc c4 ff ff    	mov    -0x3b44(%rbp),%eax
   1044c:	39 c1                	cmp    %eax,%ecx
   1044e:	0f 92 c0             	setb   %al
   10451:	89 c1                	mov    %eax,%ecx
   10453:	48 8d 05 7e 0c 01 00 	lea    0x10c7e(%rip),%rax        # 210d8 <g_108+0x18>
   1045a:	8b 00                	mov    (%rax),%eax
   1045c:	21 c8                	and    %ecx,%eax
   1045e:	f7 d0                	not    %eax
   10460:	89 c1                	mov    %eax,%ecx
   10462:	48 8b 85 80 c6 ff ff 	mov    -0x3980(%rbp),%rax
   10469:	88 08                	mov    %cl,(%rax)
   1046b:	48 8b 85 80 c6 ff ff 	mov    -0x3980(%rbp),%rax
   10472:	0f b6 00             	movzbl (%rax),%eax
   10475:	0f b6 c0             	movzbl %al,%eax
   10478:	89 d6                	mov    %edx,%esi
   1047a:	89 c7                	mov    %eax,%edi
   1047c:	e8 f7 a6 ff ff       	callq  ab78 <safe_sub_func_uint8_t_u_u>
   10481:	be 05 00 00 00       	mov    $0x5,%esi
   10486:	bf ff ff ff ff       	mov    $0xffffffff,%edi
   1048b:	e8 d3 a0 ff ff       	callq  a563 <safe_rshift_func_int16_t_s_u>
   10490:	89 c2                	mov    %eax,%edx
   10492:	48 8b 85 00 c6 ff ff 	mov    -0x3a00(%rbp),%rax
   10499:	8b 00                	mov    (%rax),%eax
   1049b:	21 d0                	and    %edx,%eax
   1049d:	0f be c0             	movsbl %al,%eax
   104a0:	be 05 00 00 00       	mov    $0x5,%esi
   104a5:	89 c7                	mov    %eax,%edi
   104a7:	e8 28 9d ff ff       	callq  a1d4 <safe_add_func_int8_t_s_s>
   104ac:	84 c0                	test   %al,%al
   104ae:	0f 94 c0             	sete   %al
   104b1:	0f b6 c0             	movzbl %al,%eax
   104b4:	89 c6                	mov    %eax,%esi
   104b6:	bf 38 ec cd 26       	mov    $0x26cdec38,%edi
   104bb:	e8 82 a1 ff ff       	callq  a642 <safe_mul_func_int32_t_s_s>
   104c0:	89 c2                	mov    %eax,%edx
   104c2:	8b 85 1c c5 ff ff    	mov    -0x3ae4(%rbp),%eax
   104c8:	39 c2                	cmp    %eax,%edx
   104ca:	0f 96 c0             	setbe  %al
   104cd:	0f b6 d0             	movzbl %al,%edx
   104d0:	0f b6 85 d7 c4 ff ff 	movzbl -0x3b29(%rbp),%eax
   104d7:	39 c2                	cmp    %eax,%edx
   104d9:	0f 95 c0             	setne  %al
   104dc:	0f b6 d0             	movzbl %al,%edx
   104df:	0f b6 05 54 0f 01 00 	movzbl 0x10f54(%rip),%eax        # 2143a <g_1125+0x2>
   104e6:	d0 e8                	shr    %al
   104e8:	83 e0 03             	and    $0x3,%eax
   104eb:	0f b6 c0             	movzbl %al,%eax
   104ee:	39 c2                	cmp    %eax,%edx
   104f0:	74 07                	je     104f9 <func_41+0x3acb>
   104f2:	ba 01 00 00 00       	mov    $0x1,%edx
   104f7:	eb 05                	jmp    104fe <func_41+0x3ad0>
   104f9:	ba 00 00 00 00       	mov    $0x0,%edx
   104fe:	0f bf 85 ee c4 ff ff 	movswl -0x3b12(%rbp),%eax
   10505:	21 d0                	and    %edx,%eax
   10507:	89 85 44 c5 ff ff    	mov    %eax,-0x3abc(%rbp)
   1050d:	66 83 bd ee c4 ff ff 	cmpw   $0x1,-0x3b12(%rbp)
   10514:	01 
   10515:	0f 84 eb 01 00 00    	je     10706 <func_41+0x3cd8>
   1051b:	48 8d 85 e0 f7 ff ff 	lea    -0x820(%rbp),%rax
   10522:	48 8d 15 57 b0 00 00 	lea    0xb057(%rip),%rdx        # 1b580 <g_2454+0x1208>
   10529:	b9 78 00 00 00       	mov    $0x78,%ecx
   1052e:	48 89 c7             	mov    %rax,%rdi
   10531:	48 89 d6             	mov    %rdx,%rsi
   10534:	f3 48 a5             	rep movsq %ds:(%rsi),%es:(%rdi)
   10537:	c7 85 c8 c5 ff ff 94 	movl   $0xc17cff94,-0x3a38(%rbp)
   1053e:	ff 7c c1 
   10541:	c7 85 cc c5 ff ff f7 	movl   $0xfffffff7,-0x3a34(%rbp)
   10548:	ff ff ff 
   1054b:	c7 85 00 f0 ff ff 00 	movl   $0x0,-0x1000(%rbp)
   10552:	00 00 00 
   10555:	c7 85 04 f0 ff ff 00 	movl   $0x0,-0xffc(%rbp)
   1055c:	00 00 00 
   1055f:	c7 85 08 f0 ff ff 17 	movl   $0xb52d7717,-0xff8(%rbp)
   10566:	77 2d b5 
   10569:	c7 85 0c f0 ff ff 00 	movl   $0x0,-0xff4(%rbp)
   10570:	00 00 00 
   10573:	c7 85 10 f0 ff ff 00 	movl   $0x0,-0xff0(%rbp)
   1057a:	00 00 00 
   1057d:	c7 85 14 f0 ff ff 17 	movl   $0xb52d7717,-0xfec(%rbp)
   10584:	77 2d b5 
   10587:	c7 85 18 f0 ff ff 00 	movl   $0x0,-0xfe8(%rbp)
   1058e:	00 00 00 
   10591:	48 8d 05 80 4d 01 00 	lea    0x14d80(%rip),%rax        # 25318 <g_1174+0x8>
   10598:	48 89 85 50 c8 ff ff 	mov    %rax,-0x37b0(%rbp)
   1059f:	0f b7 85 86 ca ff ff 	movzwl -0x357a(%rbp),%eax
   105a6:	83 e8 01             	sub    $0x1,%eax
   105a9:	66 89 85 86 ca ff ff 	mov    %ax,-0x357a(%rbp)
   105b0:	48 8b 85 50 c8 ff ff 	mov    -0x37b0(%rbp),%rax
   105b7:	48 8d 15 be 0c 01 00 	lea    0x10cbe(%rip),%rdx        # 2127c <g_350>
   105be:	48 89 10             	mov    %rdx,(%rax)
   105c1:	48 8b 85 38 c6 ff ff 	mov    -0x39c8(%rbp),%rax
   105c8:	48 8b 00             	mov    (%rax),%rax
   105cb:	48 8d 95 60 c6 ff ff 	lea    -0x39a0(%rbp),%rdx
   105d2:	48 89 10             	mov    %rdx,(%rax)
   105d5:	be 69 00 00 00       	mov    $0x69,%esi
   105da:	bf 36 00 00 00       	mov    $0x36,%edi
   105df:	e8 88 9d ff ff       	callq  a36c <safe_rshift_func_int8_t_s_u>
   105e4:	84 c0                	test   %al,%al
   105e6:	75 5a                	jne    10642 <func_41+0x3c14>
   105e8:	8b 95 48 c5 ff ff    	mov    -0x3ab8(%rbp),%edx
   105ee:	8b 85 bc c4 ff ff    	mov    -0x3b44(%rbp),%eax
   105f4:	31 d0                	xor    %edx,%eax
   105f6:	89 85 48 c5 ff ff    	mov    %eax,-0x3ab8(%rbp)
   105fc:	8b 85 48 c5 ff ff    	mov    -0x3ab8(%rbp),%eax
   10602:	89 c2                	mov    %eax,%edx
   10604:	0f b6 85 d7 c4 ff ff 	movzbl -0x3b29(%rbp),%eax
   1060b:	09 d0                	or     %edx,%eax
   1060d:	0f be c0             	movsbl %al,%eax
   10610:	be 05 00 00 00       	mov    $0x5,%esi
   10615:	89 c7                	mov    %eax,%edi
   10617:	e8 50 9d ff ff       	callq  a36c <safe_rshift_func_int8_t_s_u>
   1061c:	84 c0                	test   %al,%al
   1061e:	75 0a                	jne    1062a <func_41+0x3bfc>
   10620:	8b 85 bc c4 ff ff    	mov    -0x3b44(%rbp),%eax
   10626:	85 c0                	test   %eax,%eax
   10628:	74 07                	je     10631 <func_41+0x3c03>
   1062a:	b8 01 00 00 00       	mov    $0x1,%eax
   1062f:	eb 05                	jmp    10636 <func_41+0x3c08>
   10631:	b8 00 00 00 00       	mov    $0x0,%eax
   10636:	89 c2                	mov    %eax,%edx
   10638:	8b 85 bc c4 ff ff    	mov    -0x3b44(%rbp),%eax
   1063e:	39 c2                	cmp    %eax,%edx
   10640:	74 07                	je     10649 <func_41+0x3c1b>
   10642:	b8 01 00 00 00       	mov    $0x1,%eax
   10647:	eb 05                	jmp    1064e <func_41+0x3c20>
   10649:	b8 00 00 00 00       	mov    $0x0,%eax
   1064e:	0f b6 c0             	movzbl %al,%eax
   10651:	be 04 00 00 00       	mov    $0x4,%esi
   10656:	89 c7                	mov    %eax,%edi
   10658:	e8 51 a5 ff ff       	callq  abae <safe_mod_func_uint8_t_u_u>
   1065d:	48 8b 85 58 de ff ff 	mov    -0x21a8(%rbp),%rax
   10664:	48 8d 95 20 d4 ff ff 	lea    -0x2be0(%rbp),%rdx
   1066b:	48 81 c2 30 04 00 00 	add    $0x430,%rdx
   10672:	48 39 d0             	cmp    %rdx,%rax
   10675:	0f 95 c0             	setne  %al
   10678:	89 c2                	mov    %eax,%edx
   1067a:	48 8b 85 40 c8 ff ff 	mov    -0x37c0(%rbp),%rax
   10681:	09 d0                	or     %edx,%eax
   10683:	0f be c0             	movsbl %al,%eax
   10686:	be 02 00 00 00       	mov    $0x2,%esi
   1068b:	89 c7                	mov    %eax,%edi
   1068d:	e8 a3 9c ff ff       	callq  a335 <safe_rshift_func_int8_t_s_s>
   10692:	48 8b 15 e7 09 01 00 	mov    0x109e7(%rip),%rdx        # 21080 <g_68+0x20>
   10699:	48 0f be c0          	movsbq %al,%rax
   1069d:	48 21 d0             	and    %rdx,%rax
   106a0:	48 89 05 d9 09 01 00 	mov    %rax,0x109d9(%rip)        # 21080 <g_68+0x20>
   106a7:	48 8b 05 d2 09 01 00 	mov    0x109d2(%rip),%rax        # 21080 <g_68+0x20>
   106ae:	8b 95 bc c4 ff ff    	mov    -0x3b44(%rbp),%edx
   106b4:	89 d2                	mov    %edx,%edx
   106b6:	48 39 d0             	cmp    %rdx,%rax
   106b9:	0f 93 c0             	setae  %al
   106bc:	0f b6 d0             	movzbl %al,%edx
   106bf:	8b 85 bc c4 ff ff    	mov    -0x3b44(%rbp),%eax
   106c5:	39 c2                	cmp    %eax,%edx
   106c7:	73 0a                	jae    106d3 <func_41+0x3ca5>
   106c9:	8b 85 14 f0 ff ff    	mov    -0xfec(%rbp),%eax
   106cf:	85 c0                	test   %eax,%eax
   106d1:	74 07                	je     106da <func_41+0x3cac>
   106d3:	b8 01 00 00 00       	mov    $0x1,%eax
   106d8:	eb 05                	jmp    106df <func_41+0x3cb1>
   106da:	b8 00 00 00 00       	mov    $0x0,%eax
   106df:	89 c2                	mov    %eax,%edx
   106e1:	8b 85 5c d1 ff ff    	mov    -0x2ea4(%rbp),%eax
   106e7:	89 d6                	mov    %edx,%esi
   106e9:	89 c7                	mov    %eax,%edi
   106eb:	e8 e0 a7 ff ff       	callq  aed0 <safe_sub_func_uint32_t_u_u>
   106f0:	48 8b 95 00 c6 ff ff 	mov    -0x3a00(%rbp),%rdx
   106f7:	8b 12                	mov    (%rdx),%edx
   106f9:	31 c2                	xor    %eax,%edx
   106fb:	48 8b 85 00 c6 ff ff 	mov    -0x3a00(%rbp),%rax
   10702:	89 10                	mov    %edx,(%rax)
   10704:	eb 3b                	jmp    10741 <func_41+0x3d13>
   10706:	0f b6 05 2d 0d 01 00 	movzbl 0x10d2d(%rip),%eax        # 2143a <g_1125+0x2>
   1070d:	83 e0 06             	and    $0x6,%eax
   10710:	84 c0                	test   %al,%al
   10712:	74 05                	je     10719 <func_41+0x3ceb>
   10714:	e9 5a fc ff ff       	jmpq   10373 <func_41+0x3945>
   10719:	48 8b 05 80 4b 01 00 	mov    0x14b80(%rip),%rax        # 252a0 <g_979>
   10720:	48 8b 00             	mov    (%rax),%rax
   10723:	48 8b 30             	mov    (%rax),%rsi
   10726:	48 8b 0d 53 48 01 00 	mov    0x14853(%rip),%rcx        # 24f80 <g_47>
   1072d:	48 8b 06             	mov    (%rsi),%rax
   10730:	48 8b 56 08          	mov    0x8(%rsi),%rdx
   10734:	48 89 01             	mov    %rax,(%rcx)
   10737:	48 89 51 08          	mov    %rdx,0x8(%rcx)
   1073b:	8b 46 10             	mov    0x10(%rsi),%eax
   1073e:	89 41 10             	mov    %eax,0x10(%rcx)
   10741:	8b 85 08 c5 ff ff    	mov    -0x3af8(%rbp),%eax
   10747:	be 08 00 00 00       	mov    $0x8,%esi
   1074c:	89 c7                	mov    %eax,%edi
   1074e:	e8 7d a7 ff ff       	callq  aed0 <safe_sub_func_uint32_t_u_u>
   10753:	89 85 08 c5 ff ff    	mov    %eax,-0x3af8(%rbp)
   10759:	8b 85 08 c5 ff ff    	mov    -0x3af8(%rbp),%eax
   1075f:	83 f8 0d             	cmp    $0xd,%eax
   10762:	0f 8f 21 fc ff ff    	jg     10389 <func_41+0x395b>
   10768:	48 8b 85 78 c6 ff ff 	mov    -0x3988(%rbp),%rax
   1076f:	48 c7 00 01 00 00 00 	movq   $0x1,(%rax)
   10776:	48 8b 85 00 c6 ff ff 	mov    -0x3a00(%rbp),%rax
   1077d:	c7 00 01 00 00 00    	movl   $0x1,(%rax)
   10783:	8b 00                	mov    (%rax),%eax
   10785:	89 85 48 c5 ff ff    	mov    %eax,-0x3ab8(%rbp)
   1078b:	8b 85 48 c5 ff ff    	mov    -0x3ab8(%rbp),%eax
   10791:	48 98                	cltq   
   10793:	48 89 c7             	mov    %rax,%rdi
   10796:	e8 7b a0 ff ff       	callq  a816 <safe_unary_minus_func_int64_t_s>
   1079b:	48 89 c2             	mov    %rax,%rdx
   1079e:	48 83 bd 98 c6 ff ff 	cmpq   $0x0,-0x3968(%rbp)
   107a5:	00 
   107a6:	0f 95 c0             	setne  %al
   107a9:	0f b6 c0             	movzbl %al,%eax
   107ac:	48 89 d6             	mov    %rdx,%rsi
   107af:	48 89 c7             	mov    %rax,%rdi
   107b2:	e8 77 a8 ff ff       	callq  b02e <safe_add_func_uint64_t_u_u>
   107b7:	89 85 c0 c5 ff ff    	mov    %eax,-0x3a40(%rbp)
   107bd:	e9 ea 14 00 00       	jmpq   11cac <func_41+0x527e>
   107c2:	66 c7 85 ea c4 ff ff 	movw   $0x4c8c,-0x3b16(%rbp)
   107c9:	8c 4c 
   107cb:	48 8d 85 08 c5 ff ff 	lea    -0x3af8(%rbp),%rax
   107d2:	48 89 85 20 c8 ff ff 	mov    %rax,-0x37e0(%rbp)
   107d9:	48 8d 05 76 08 01 00 	lea    0x10876(%rip),%rax        # 21056 <g_57+0x2>
   107e0:	48 89 85 00 f0 ff ff 	mov    %rax,-0x1000(%rbp)
   107e7:	48 8d 05 68 08 01 00 	lea    0x10868(%rip),%rax        # 21056 <g_57+0x2>
   107ee:	48 89 85 08 f0 ff ff 	mov    %rax,-0xff8(%rbp)
   107f5:	48 8d 85 cc c4 ff ff 	lea    -0x3b34(%rbp),%rax
   107fc:	48 89 85 10 f0 ff ff 	mov    %rax,-0xff0(%rbp)
   10803:	48 8d 05 4c 08 01 00 	lea    0x1084c(%rip),%rax        # 21056 <g_57+0x2>
   1080a:	48 89 85 18 f0 ff ff 	mov    %rax,-0xfe8(%rbp)
   10811:	48 8d 05 3e 08 01 00 	lea    0x1083e(%rip),%rax        # 21056 <g_57+0x2>
   10818:	48 89 85 20 f0 ff ff 	mov    %rax,-0xfe0(%rbp)
   1081f:	48 8d 05 a4 0a 01 00 	lea    0x10aa4(%rip),%rax        # 212ca <g_435>
   10826:	48 89 85 28 f0 ff ff 	mov    %rax,-0xfd8(%rbp)
   1082d:	48 8d 85 cc c4 ff ff 	lea    -0x3b34(%rbp),%rax
   10834:	48 89 85 30 f0 ff ff 	mov    %rax,-0xfd0(%rbp)
   1083b:	48 8d 85 cc c4 ff ff 	lea    -0x3b34(%rbp),%rax
   10842:	48 89 85 38 f0 ff ff 	mov    %rax,-0xfc8(%rbp)
   10849:	48 8d 05 06 08 01 00 	lea    0x10806(%rip),%rax        # 21056 <g_57+0x2>
   10850:	48 89 85 40 f0 ff ff 	mov    %rax,-0xfc0(%rbp)
   10857:	48 8d 05 f8 07 01 00 	lea    0x107f8(%rip),%rax        # 21056 <g_57+0x2>
   1085e:	48 89 85 48 f0 ff ff 	mov    %rax,-0xfb8(%rbp)
   10865:	48 8d 05 ea 07 01 00 	lea    0x107ea(%rip),%rax        # 21056 <g_57+0x2>
   1086c:	48 89 85 50 f0 ff ff 	mov    %rax,-0xfb0(%rbp)
   10873:	48 8d 85 cc c4 ff ff 	lea    -0x3b34(%rbp),%rax
   1087a:	48 89 85 58 f0 ff ff 	mov    %rax,-0xfa8(%rbp)
   10881:	48 8d 05 42 0a 01 00 	lea    0x10a42(%rip),%rax        # 212ca <g_435>
   10888:	48 89 85 60 f0 ff ff 	mov    %rax,-0xfa0(%rbp)
   1088f:	48 8d 05 34 0a 01 00 	lea    0x10a34(%rip),%rax        # 212ca <g_435>
   10896:	48 89 85 68 f0 ff ff 	mov    %rax,-0xf98(%rbp)
   1089d:	48 8d 05 26 0a 01 00 	lea    0x10a26(%rip),%rax        # 212ca <g_435>
   108a4:	48 89 85 70 f0 ff ff 	mov    %rax,-0xf90(%rbp)
   108ab:	48 8d 05 a4 07 01 00 	lea    0x107a4(%rip),%rax        # 21056 <g_57+0x2>
   108b2:	48 89 85 78 f0 ff ff 	mov    %rax,-0xf88(%rbp)
   108b9:	48 8d 05 0a 0a 01 00 	lea    0x10a0a(%rip),%rax        # 212ca <g_435>
   108c0:	48 89 85 80 f0 ff ff 	mov    %rax,-0xf80(%rbp)
   108c7:	48 8d 05 88 07 01 00 	lea    0x10788(%rip),%rax        # 21056 <g_57+0x2>
   108ce:	48 89 85 88 f0 ff ff 	mov    %rax,-0xf78(%rbp)
   108d5:	48 8d 05 7a 07 01 00 	lea    0x1077a(%rip),%rax        # 21056 <g_57+0x2>
   108dc:	48 89 85 90 f0 ff ff 	mov    %rax,-0xf70(%rbp)
   108e3:	48 8d 05 e0 09 01 00 	lea    0x109e0(%rip),%rax        # 212ca <g_435>
   108ea:	48 89 85 98 f0 ff ff 	mov    %rax,-0xf68(%rbp)
   108f1:	48 8d 05 5e 07 01 00 	lea    0x1075e(%rip),%rax        # 21056 <g_57+0x2>
   108f8:	48 89 85 a0 f0 ff ff 	mov    %rax,-0xf60(%rbp)
   108ff:	48 8d 05 50 07 01 00 	lea    0x10750(%rip),%rax        # 21056 <g_57+0x2>
   10906:	48 89 85 a8 f0 ff ff 	mov    %rax,-0xf58(%rbp)
   1090d:	48 8d 85 cc c4 ff ff 	lea    -0x3b34(%rbp),%rax
   10914:	48 89 85 b0 f0 ff ff 	mov    %rax,-0xf50(%rbp)
   1091b:	48 8d 05 34 07 01 00 	lea    0x10734(%rip),%rax        # 21056 <g_57+0x2>
   10922:	48 89 85 b8 f0 ff ff 	mov    %rax,-0xf48(%rbp)
   10929:	48 8d 05 26 07 01 00 	lea    0x10726(%rip),%rax        # 21056 <g_57+0x2>
   10930:	48 89 85 c0 f0 ff ff 	mov    %rax,-0xf40(%rbp)
   10937:	48 8d 05 8c 09 01 00 	lea    0x1098c(%rip),%rax        # 212ca <g_435>
   1093e:	48 89 85 c8 f0 ff ff 	mov    %rax,-0xf38(%rbp)
   10945:	48 8d 85 cc c4 ff ff 	lea    -0x3b34(%rbp),%rax
   1094c:	48 89 85 d0 f0 ff ff 	mov    %rax,-0xf30(%rbp)
   10953:	48 8d 85 cc c4 ff ff 	lea    -0x3b34(%rbp),%rax
   1095a:	48 89 85 d8 f0 ff ff 	mov    %rax,-0xf28(%rbp)
   10961:	48 8d 05 ee 06 01 00 	lea    0x106ee(%rip),%rax        # 21056 <g_57+0x2>
   10968:	48 89 85 e0 f0 ff ff 	mov    %rax,-0xf20(%rbp)
   1096f:	48 8d 05 e0 06 01 00 	lea    0x106e0(%rip),%rax        # 21056 <g_57+0x2>
   10976:	48 89 85 e8 f0 ff ff 	mov    %rax,-0xf18(%rbp)
   1097d:	48 8d 05 d2 06 01 00 	lea    0x106d2(%rip),%rax        # 21056 <g_57+0x2>
   10984:	48 89 85 f0 f0 ff ff 	mov    %rax,-0xf10(%rbp)
   1098b:	48 8d 85 cc c4 ff ff 	lea    -0x3b34(%rbp),%rax
   10992:	48 89 85 f8 f0 ff ff 	mov    %rax,-0xf08(%rbp)
   10999:	48 8d 05 2a 09 01 00 	lea    0x1092a(%rip),%rax        # 212ca <g_435>
   109a0:	48 89 85 00 f1 ff ff 	mov    %rax,-0xf00(%rbp)
   109a7:	48 8d 05 1c 09 01 00 	lea    0x1091c(%rip),%rax        # 212ca <g_435>
   109ae:	48 89 85 08 f1 ff ff 	mov    %rax,-0xef8(%rbp)
   109b5:	48 8d 05 0e 09 01 00 	lea    0x1090e(%rip),%rax        # 212ca <g_435>
   109bc:	48 89 85 10 f1 ff ff 	mov    %rax,-0xef0(%rbp)
   109c3:	48 8d 05 8c 06 01 00 	lea    0x1068c(%rip),%rax        # 21056 <g_57+0x2>
   109ca:	48 89 85 18 f1 ff ff 	mov    %rax,-0xee8(%rbp)
   109d1:	48 8d 05 f2 08 01 00 	lea    0x108f2(%rip),%rax        # 212ca <g_435>
   109d8:	48 89 85 20 f1 ff ff 	mov    %rax,-0xee0(%rbp)
   109df:	48 8d 05 70 06 01 00 	lea    0x10670(%rip),%rax        # 21056 <g_57+0x2>
   109e6:	48 89 85 28 f1 ff ff 	mov    %rax,-0xed8(%rbp)
   109ed:	48 8d 05 62 06 01 00 	lea    0x10662(%rip),%rax        # 21056 <g_57+0x2>
   109f4:	48 89 85 30 f1 ff ff 	mov    %rax,-0xed0(%rbp)
   109fb:	48 8d 05 c8 08 01 00 	lea    0x108c8(%rip),%rax        # 212ca <g_435>
   10a02:	48 89 85 38 f1 ff ff 	mov    %rax,-0xec8(%rbp)
   10a09:	48 8d 05 46 06 01 00 	lea    0x10646(%rip),%rax        # 21056 <g_57+0x2>
   10a10:	48 89 85 40 f1 ff ff 	mov    %rax,-0xec0(%rbp)
   10a17:	48 8d 05 38 06 01 00 	lea    0x10638(%rip),%rax        # 21056 <g_57+0x2>
   10a1e:	48 89 85 48 f1 ff ff 	mov    %rax,-0xeb8(%rbp)
   10a25:	48 8d 85 cc c4 ff ff 	lea    -0x3b34(%rbp),%rax
   10a2c:	48 89 85 50 f1 ff ff 	mov    %rax,-0xeb0(%rbp)
   10a33:	48 8d 05 1c 06 01 00 	lea    0x1061c(%rip),%rax        # 21056 <g_57+0x2>
   10a3a:	48 89 85 58 f1 ff ff 	mov    %rax,-0xea8(%rbp)
   10a41:	48 8d 05 0e 06 01 00 	lea    0x1060e(%rip),%rax        # 21056 <g_57+0x2>
   10a48:	48 89 85 60 f1 ff ff 	mov    %rax,-0xea0(%rbp)
   10a4f:	48 8d 05 74 08 01 00 	lea    0x10874(%rip),%rax        # 212ca <g_435>
   10a56:	48 89 85 68 f1 ff ff 	mov    %rax,-0xe98(%rbp)
   10a5d:	48 8d 85 cc c4 ff ff 	lea    -0x3b34(%rbp),%rax
   10a64:	48 89 85 70 f1 ff ff 	mov    %rax,-0xe90(%rbp)
   10a6b:	48 8d 85 cc c4 ff ff 	lea    -0x3b34(%rbp),%rax
   10a72:	48 89 85 78 f1 ff ff 	mov    %rax,-0xe88(%rbp)
   10a79:	48 8d 05 d6 05 01 00 	lea    0x105d6(%rip),%rax        # 21056 <g_57+0x2>
   10a80:	48 89 85 80 f1 ff ff 	mov    %rax,-0xe80(%rbp)
   10a87:	48 8d 05 c8 05 01 00 	lea    0x105c8(%rip),%rax        # 21056 <g_57+0x2>
   10a8e:	48 89 85 88 f1 ff ff 	mov    %rax,-0xe78(%rbp)
   10a95:	48 8d 05 ba 05 01 00 	lea    0x105ba(%rip),%rax        # 21056 <g_57+0x2>
   10a9c:	48 89 85 90 f1 ff ff 	mov    %rax,-0xe70(%rbp)
   10aa3:	48 8d 85 cc c4 ff ff 	lea    -0x3b34(%rbp),%rax
   10aaa:	48 89 85 98 f1 ff ff 	mov    %rax,-0xe68(%rbp)
   10ab1:	48 8d 05 12 08 01 00 	lea    0x10812(%rip),%rax        # 212ca <g_435>
   10ab8:	48 89 85 a0 f1 ff ff 	mov    %rax,-0xe60(%rbp)
   10abf:	48 8d 05 04 08 01 00 	lea    0x10804(%rip),%rax        # 212ca <g_435>
   10ac6:	48 89 85 a8 f1 ff ff 	mov    %rax,-0xe58(%rbp)
   10acd:	48 8d 05 f6 07 01 00 	lea    0x107f6(%rip),%rax        # 212ca <g_435>
   10ad4:	48 89 85 b0 f1 ff ff 	mov    %rax,-0xe50(%rbp)
   10adb:	48 8d 05 74 05 01 00 	lea    0x10574(%rip),%rax        # 21056 <g_57+0x2>
   10ae2:	48 89 85 b8 f1 ff ff 	mov    %rax,-0xe48(%rbp)
   10ae9:	48 8d 05 da 07 01 00 	lea    0x107da(%rip),%rax        # 212ca <g_435>
   10af0:	48 89 85 c0 f1 ff ff 	mov    %rax,-0xe40(%rbp)
   10af7:	48 8d 05 58 05 01 00 	lea    0x10558(%rip),%rax        # 21056 <g_57+0x2>
   10afe:	48 89 85 c8 f1 ff ff 	mov    %rax,-0xe38(%rbp)
   10b05:	48 8d 05 4a 05 01 00 	lea    0x1054a(%rip),%rax        # 21056 <g_57+0x2>
   10b0c:	48 89 85 d0 f1 ff ff 	mov    %rax,-0xe30(%rbp)
   10b13:	48 8d 05 b0 07 01 00 	lea    0x107b0(%rip),%rax        # 212ca <g_435>
   10b1a:	48 89 85 d8 f1 ff ff 	mov    %rax,-0xe28(%rbp)
   10b21:	48 8d 05 2e 05 01 00 	lea    0x1052e(%rip),%rax        # 21056 <g_57+0x2>
   10b28:	48 89 85 e0 f1 ff ff 	mov    %rax,-0xe20(%rbp)
   10b2f:	48 8d 05 20 05 01 00 	lea    0x10520(%rip),%rax        # 21056 <g_57+0x2>
   10b36:	48 89 85 e8 f1 ff ff 	mov    %rax,-0xe18(%rbp)
   10b3d:	48 8d 85 cc c4 ff ff 	lea    -0x3b34(%rbp),%rax
   10b44:	48 89 85 f0 f1 ff ff 	mov    %rax,-0xe10(%rbp)
   10b4b:	48 8d 05 04 05 01 00 	lea    0x10504(%rip),%rax        # 21056 <g_57+0x2>
   10b52:	48 89 85 f8 f1 ff ff 	mov    %rax,-0xe08(%rbp)
   10b59:	48 8d 05 f6 04 01 00 	lea    0x104f6(%rip),%rax        # 21056 <g_57+0x2>
   10b60:	48 89 85 00 f2 ff ff 	mov    %rax,-0xe00(%rbp)
   10b67:	48 8d 05 5c 07 01 00 	lea    0x1075c(%rip),%rax        # 212ca <g_435>
   10b6e:	48 89 85 08 f2 ff ff 	mov    %rax,-0xdf8(%rbp)
   10b75:	48 8d 85 cc c4 ff ff 	lea    -0x3b34(%rbp),%rax
   10b7c:	48 89 85 10 f2 ff ff 	mov    %rax,-0xdf0(%rbp)
   10b83:	48 8d 85 cc c4 ff ff 	lea    -0x3b34(%rbp),%rax
   10b8a:	48 89 85 18 f2 ff ff 	mov    %rax,-0xde8(%rbp)
   10b91:	48 8d 05 be 04 01 00 	lea    0x104be(%rip),%rax        # 21056 <g_57+0x2>
   10b98:	48 89 85 20 f2 ff ff 	mov    %rax,-0xde0(%rbp)
   10b9f:	48 8d 05 b0 04 01 00 	lea    0x104b0(%rip),%rax        # 21056 <g_57+0x2>
   10ba6:	48 89 85 28 f2 ff ff 	mov    %rax,-0xdd8(%rbp)
   10bad:	48 8d 05 a2 04 01 00 	lea    0x104a2(%rip),%rax        # 21056 <g_57+0x2>
   10bb4:	48 89 85 30 f2 ff ff 	mov    %rax,-0xdd0(%rbp)
   10bbb:	48 8d 85 cc c4 ff ff 	lea    -0x3b34(%rbp),%rax
   10bc2:	48 89 85 38 f2 ff ff 	mov    %rax,-0xdc8(%rbp)
   10bc9:	48 8d 05 fa 06 01 00 	lea    0x106fa(%rip),%rax        # 212ca <g_435>
   10bd0:	48 89 85 40 f2 ff ff 	mov    %rax,-0xdc0(%rbp)
   10bd7:	48 8d 05 ec 06 01 00 	lea    0x106ec(%rip),%rax        # 212ca <g_435>
   10bde:	48 89 85 48 f2 ff ff 	mov    %rax,-0xdb8(%rbp)
   10be5:	48 8d 05 de 06 01 00 	lea    0x106de(%rip),%rax        # 212ca <g_435>
   10bec:	48 89 85 50 f2 ff ff 	mov    %rax,-0xdb0(%rbp)
   10bf3:	48 8d 05 5c 04 01 00 	lea    0x1045c(%rip),%rax        # 21056 <g_57+0x2>
   10bfa:	48 89 85 58 f2 ff ff 	mov    %rax,-0xda8(%rbp)
   10c01:	48 8d 05 c2 06 01 00 	lea    0x106c2(%rip),%rax        # 212ca <g_435>
   10c08:	48 89 85 60 f2 ff ff 	mov    %rax,-0xda0(%rbp)
   10c0f:	48 8d 05 40 04 01 00 	lea    0x10440(%rip),%rax        # 21056 <g_57+0x2>
   10c16:	48 89 85 68 f2 ff ff 	mov    %rax,-0xd98(%rbp)
   10c1d:	48 8d 05 32 04 01 00 	lea    0x10432(%rip),%rax        # 21056 <g_57+0x2>
   10c24:	48 89 85 70 f2 ff ff 	mov    %rax,-0xd90(%rbp)
   10c2b:	48 8d 05 98 06 01 00 	lea    0x10698(%rip),%rax        # 212ca <g_435>
   10c32:	48 89 85 78 f2 ff ff 	mov    %rax,-0xd88(%rbp)
   10c39:	48 8d 05 16 04 01 00 	lea    0x10416(%rip),%rax        # 21056 <g_57+0x2>
   10c40:	48 89 85 80 f2 ff ff 	mov    %rax,-0xd80(%rbp)
   10c47:	48 8d 05 08 04 01 00 	lea    0x10408(%rip),%rax        # 21056 <g_57+0x2>
   10c4e:	48 89 85 88 f2 ff ff 	mov    %rax,-0xd78(%rbp)
   10c55:	48 8d 85 cc c4 ff ff 	lea    -0x3b34(%rbp),%rax
   10c5c:	48 89 85 90 f2 ff ff 	mov    %rax,-0xd70(%rbp)
   10c63:	48 8d 05 ec 03 01 00 	lea    0x103ec(%rip),%rax        # 21056 <g_57+0x2>
   10c6a:	48 89 85 98 f2 ff ff 	mov    %rax,-0xd68(%rbp)
   10c71:	48 8d 05 52 06 01 00 	lea    0x10652(%rip),%rax        # 212ca <g_435>
   10c78:	48 89 85 a0 f2 ff ff 	mov    %rax,-0xd60(%rbp)
   10c7f:	48 8d 05 d0 03 01 00 	lea    0x103d0(%rip),%rax        # 21056 <g_57+0x2>
   10c86:	48 89 85 a8 f2 ff ff 	mov    %rax,-0xd58(%rbp)
   10c8d:	48 8d 05 36 06 01 00 	lea    0x10636(%rip),%rax        # 212ca <g_435>
   10c94:	48 89 85 b0 f2 ff ff 	mov    %rax,-0xd50(%rbp)
   10c9b:	48 8d 05 28 06 01 00 	lea    0x10628(%rip),%rax        # 212ca <g_435>
   10ca2:	48 89 85 b8 f2 ff ff 	mov    %rax,-0xd48(%rbp)
   10ca9:	48 8d 05 a6 03 01 00 	lea    0x103a6(%rip),%rax        # 21056 <g_57+0x2>
   10cb0:	48 89 85 c0 f2 ff ff 	mov    %rax,-0xd40(%rbp)
   10cb7:	48 8d 05 98 03 01 00 	lea    0x10398(%rip),%rax        # 21056 <g_57+0x2>
   10cbe:	48 89 85 c8 f2 ff ff 	mov    %rax,-0xd38(%rbp)
   10cc5:	48 8d 05 fe 05 01 00 	lea    0x105fe(%rip),%rax        # 212ca <g_435>
   10ccc:	48 89 85 d0 f2 ff ff 	mov    %rax,-0xd30(%rbp)
   10cd3:	48 8d 05 f0 05 01 00 	lea    0x105f0(%rip),%rax        # 212ca <g_435>
   10cda:	48 89 85 d8 f2 ff ff 	mov    %rax,-0xd28(%rbp)
   10ce1:	48 8d 85 cc c4 ff ff 	lea    -0x3b34(%rbp),%rax
   10ce8:	48 89 85 e0 f2 ff ff 	mov    %rax,-0xd20(%rbp)
   10cef:	48 8d 05 60 03 01 00 	lea    0x10360(%rip),%rax        # 21056 <g_57+0x2>
   10cf6:	48 89 85 e8 f2 ff ff 	mov    %rax,-0xd18(%rbp)
   10cfd:	48 8d 85 cc c4 ff ff 	lea    -0x3b34(%rbp),%rax
   10d04:	48 89 85 f0 f2 ff ff 	mov    %rax,-0xd10(%rbp)
   10d0b:	48 8d 05 b8 05 01 00 	lea    0x105b8(%rip),%rax        # 212ca <g_435>
   10d12:	48 89 85 f8 f2 ff ff 	mov    %rax,-0xd08(%rbp)
   10d19:	48 8d 85 cc c4 ff ff 	lea    -0x3b34(%rbp),%rax
   10d20:	48 89 85 00 f3 ff ff 	mov    %rax,-0xd00(%rbp)
   10d27:	48 8d 05 9c 05 01 00 	lea    0x1059c(%rip),%rax        # 212ca <g_435>
   10d2e:	48 89 85 08 f3 ff ff 	mov    %rax,-0xcf8(%rbp)
   10d35:	48 8d 05 8e 05 01 00 	lea    0x1058e(%rip),%rax        # 212ca <g_435>
   10d3c:	48 89 85 10 f3 ff ff 	mov    %rax,-0xcf0(%rbp)
   10d43:	48 8d 85 cc c4 ff ff 	lea    -0x3b34(%rbp),%rax
   10d4a:	48 89 85 18 f3 ff ff 	mov    %rax,-0xce8(%rbp)
   10d51:	48 8d 05 fe 02 01 00 	lea    0x102fe(%rip),%rax        # 21056 <g_57+0x2>
   10d58:	48 89 85 20 f3 ff ff 	mov    %rax,-0xce0(%rbp)
   10d5f:	48 8d 05 64 05 01 00 	lea    0x10564(%rip),%rax        # 212ca <g_435>
   10d66:	48 89 85 28 f3 ff ff 	mov    %rax,-0xcd8(%rbp)
   10d6d:	48 8d 05 56 05 01 00 	lea    0x10556(%rip),%rax        # 212ca <g_435>
   10d74:	48 89 85 30 f3 ff ff 	mov    %rax,-0xcd0(%rbp)
   10d7b:	48 8d 05 48 05 01 00 	lea    0x10548(%rip),%rax        # 212ca <g_435>
   10d82:	48 89 85 38 f3 ff ff 	mov    %rax,-0xcc8(%rbp)
   10d89:	48 8d 05 3a 05 01 00 	lea    0x1053a(%rip),%rax        # 212ca <g_435>
   10d90:	48 89 85 40 f3 ff ff 	mov    %rax,-0xcc0(%rbp)
   10d97:	48 8d 05 b8 02 01 00 	lea    0x102b8(%rip),%rax        # 21056 <g_57+0x2>
   10d9e:	48 89 85 48 f3 ff ff 	mov    %rax,-0xcb8(%rbp)
   10da5:	48 8d 05 1e 05 01 00 	lea    0x1051e(%rip),%rax        # 212ca <g_435>
   10dac:	48 89 85 50 f3 ff ff 	mov    %rax,-0xcb0(%rbp)
   10db3:	48 8d 05 10 05 01 00 	lea    0x10510(%rip),%rax        # 212ca <g_435>
   10dba:	48 89 85 58 f3 ff ff 	mov    %rax,-0xca8(%rbp)
   10dc1:	48 8d 05 8e 02 01 00 	lea    0x1028e(%rip),%rax        # 21056 <g_57+0x2>
   10dc8:	48 89 85 60 f3 ff ff 	mov    %rax,-0xca0(%rbp)
   10dcf:	48 8d 05 80 02 01 00 	lea    0x10280(%rip),%rax        # 21056 <g_57+0x2>
   10dd6:	48 89 85 68 f3 ff ff 	mov    %rax,-0xc98(%rbp)
   10ddd:	48 8d 05 e6 04 01 00 	lea    0x104e6(%rip),%rax        # 212ca <g_435>
   10de4:	48 89 85 70 f3 ff ff 	mov    %rax,-0xc90(%rbp)
   10deb:	48 8d 05 d8 04 01 00 	lea    0x104d8(%rip),%rax        # 212ca <g_435>
   10df2:	48 89 85 78 f3 ff ff 	mov    %rax,-0xc88(%rbp)
   10df9:	48 8d 85 cc c4 ff ff 	lea    -0x3b34(%rbp),%rax
   10e00:	48 89 85 80 f3 ff ff 	mov    %rax,-0xc80(%rbp)
   10e07:	48 8d 05 48 02 01 00 	lea    0x10248(%rip),%rax        # 21056 <g_57+0x2>
   10e0e:	48 89 85 88 f3 ff ff 	mov    %rax,-0xc78(%rbp)
   10e15:	48 8d 85 cc c4 ff ff 	lea    -0x3b34(%rbp),%rax
   10e1c:	48 89 85 90 f3 ff ff 	mov    %rax,-0xc70(%rbp)
   10e23:	48 8d 05 a0 04 01 00 	lea    0x104a0(%rip),%rax        # 212ca <g_435>
   10e2a:	48 89 85 98 f3 ff ff 	mov    %rax,-0xc68(%rbp)
   10e31:	48 8d 85 cc c4 ff ff 	lea    -0x3b34(%rbp),%rax
   10e38:	48 89 85 a0 f3 ff ff 	mov    %rax,-0xc60(%rbp)
   10e3f:	48 8d 05 84 04 01 00 	lea    0x10484(%rip),%rax        # 212ca <g_435>
   10e46:	48 89 85 a8 f3 ff ff 	mov    %rax,-0xc58(%rbp)
   10e4d:	48 8d 05 76 04 01 00 	lea    0x10476(%rip),%rax        # 212ca <g_435>
   10e54:	48 89 85 b0 f3 ff ff 	mov    %rax,-0xc50(%rbp)
   10e5b:	48 8d 85 cc c4 ff ff 	lea    -0x3b34(%rbp),%rax
   10e62:	48 89 85 b8 f3 ff ff 	mov    %rax,-0xc48(%rbp)
   10e69:	48 8d 05 e6 01 01 00 	lea    0x101e6(%rip),%rax        # 21056 <g_57+0x2>
   10e70:	48 89 85 c0 f3 ff ff 	mov    %rax,-0xc40(%rbp)
   10e77:	48 8d 05 4c 04 01 00 	lea    0x1044c(%rip),%rax        # 212ca <g_435>
   10e7e:	48 89 85 c8 f3 ff ff 	mov    %rax,-0xc38(%rbp)
   10e85:	48 8d 05 3e 04 01 00 	lea    0x1043e(%rip),%rax        # 212ca <g_435>
   10e8c:	48 89 85 d0 f3 ff ff 	mov    %rax,-0xc30(%rbp)
   10e93:	48 8d 05 30 04 01 00 	lea    0x10430(%rip),%rax        # 212ca <g_435>
   10e9a:	48 89 85 d8 f3 ff ff 	mov    %rax,-0xc28(%rbp)
   10ea1:	48 8d 05 22 04 01 00 	lea    0x10422(%rip),%rax        # 212ca <g_435>
   10ea8:	48 89 85 e0 f3 ff ff 	mov    %rax,-0xc20(%rbp)
   10eaf:	48 8d 05 a0 01 01 00 	lea    0x101a0(%rip),%rax        # 21056 <g_57+0x2>
   10eb6:	48 89 85 e8 f3 ff ff 	mov    %rax,-0xc18(%rbp)
   10ebd:	48 8d 05 06 04 01 00 	lea    0x10406(%rip),%rax        # 212ca <g_435>
   10ec4:	48 89 85 f0 f3 ff ff 	mov    %rax,-0xc10(%rbp)
   10ecb:	48 8d 05 f8 03 01 00 	lea    0x103f8(%rip),%rax        # 212ca <g_435>
   10ed2:	48 89 85 f8 f3 ff ff 	mov    %rax,-0xc08(%rbp)
   10ed9:	48 8d 05 76 01 01 00 	lea    0x10176(%rip),%rax        # 21056 <g_57+0x2>
   10ee0:	48 89 85 00 f4 ff ff 	mov    %rax,-0xc00(%rbp)
   10ee7:	48 8d 05 68 01 01 00 	lea    0x10168(%rip),%rax        # 21056 <g_57+0x2>
   10eee:	48 89 85 08 f4 ff ff 	mov    %rax,-0xbf8(%rbp)
   10ef5:	48 8d 05 ce 03 01 00 	lea    0x103ce(%rip),%rax        # 212ca <g_435>
   10efc:	48 89 85 10 f4 ff ff 	mov    %rax,-0xbf0(%rbp)
   10f03:	48 8d 05 c0 03 01 00 	lea    0x103c0(%rip),%rax        # 212ca <g_435>
   10f0a:	48 89 85 18 f4 ff ff 	mov    %rax,-0xbe8(%rbp)
   10f11:	48 8d 85 cc c4 ff ff 	lea    -0x3b34(%rbp),%rax
   10f18:	48 89 85 20 f4 ff ff 	mov    %rax,-0xbe0(%rbp)
   10f1f:	48 8d 05 30 01 01 00 	lea    0x10130(%rip),%rax        # 21056 <g_57+0x2>
   10f26:	48 89 85 28 f4 ff ff 	mov    %rax,-0xbd8(%rbp)
   10f2d:	48 8d 85 cc c4 ff ff 	lea    -0x3b34(%rbp),%rax
   10f34:	48 89 85 30 f4 ff ff 	mov    %rax,-0xbd0(%rbp)
   10f3b:	48 8d 05 88 03 01 00 	lea    0x10388(%rip),%rax        # 212ca <g_435>
   10f42:	48 89 85 38 f4 ff ff 	mov    %rax,-0xbc8(%rbp)
   10f49:	48 8d 85 cc c4 ff ff 	lea    -0x3b34(%rbp),%rax
   10f50:	48 89 85 40 f4 ff ff 	mov    %rax,-0xbc0(%rbp)
   10f57:	48 8d 05 6c 03 01 00 	lea    0x1036c(%rip),%rax        # 212ca <g_435>
   10f5e:	48 89 85 48 f4 ff ff 	mov    %rax,-0xbb8(%rbp)
   10f65:	48 8d 05 5e 03 01 00 	lea    0x1035e(%rip),%rax        # 212ca <g_435>
   10f6c:	48 89 85 50 f4 ff ff 	mov    %rax,-0xbb0(%rbp)
   10f73:	48 8d 85 cc c4 ff ff 	lea    -0x3b34(%rbp),%rax
   10f7a:	48 89 85 58 f4 ff ff 	mov    %rax,-0xba8(%rbp)
   10f81:	48 8d 05 ce 00 01 00 	lea    0x100ce(%rip),%rax        # 21056 <g_57+0x2>
   10f88:	48 89 85 60 f4 ff ff 	mov    %rax,-0xba0(%rbp)
   10f8f:	48 8d 05 34 03 01 00 	lea    0x10334(%rip),%rax        # 212ca <g_435>
   10f96:	48 89 85 68 f4 ff ff 	mov    %rax,-0xb98(%rbp)
   10f9d:	48 8d 05 26 03 01 00 	lea    0x10326(%rip),%rax        # 212ca <g_435>
   10fa4:	48 89 85 70 f4 ff ff 	mov    %rax,-0xb90(%rbp)
   10fab:	48 8d 05 18 03 01 00 	lea    0x10318(%rip),%rax        # 212ca <g_435>
   10fb2:	48 89 85 78 f4 ff ff 	mov    %rax,-0xb88(%rbp)
   10fb9:	48 8d 05 0a 03 01 00 	lea    0x1030a(%rip),%rax        # 212ca <g_435>
   10fc0:	48 89 85 80 f4 ff ff 	mov    %rax,-0xb80(%rbp)
   10fc7:	48 8d 05 88 00 01 00 	lea    0x10088(%rip),%rax        # 21056 <g_57+0x2>
   10fce:	48 89 85 88 f4 ff ff 	mov    %rax,-0xb78(%rbp)
   10fd5:	48 8d 05 ee 02 01 00 	lea    0x102ee(%rip),%rax        # 212ca <g_435>
   10fdc:	48 89 85 90 f4 ff ff 	mov    %rax,-0xb70(%rbp)
   10fe3:	48 8d 05 e0 02 01 00 	lea    0x102e0(%rip),%rax        # 212ca <g_435>
   10fea:	48 89 85 98 f4 ff ff 	mov    %rax,-0xb68(%rbp)
   10ff1:	48 8d 05 5e 00 01 00 	lea    0x1005e(%rip),%rax        # 21056 <g_57+0x2>
   10ff8:	48 89 85 a0 f4 ff ff 	mov    %rax,-0xb60(%rbp)
   10fff:	48 8d 05 50 00 01 00 	lea    0x10050(%rip),%rax        # 21056 <g_57+0x2>
   11006:	48 89 85 a8 f4 ff ff 	mov    %rax,-0xb58(%rbp)
   1100d:	48 8d 05 b6 02 01 00 	lea    0x102b6(%rip),%rax        # 212ca <g_435>
   11014:	48 89 85 b0 f4 ff ff 	mov    %rax,-0xb50(%rbp)
   1101b:	48 8d 05 a8 02 01 00 	lea    0x102a8(%rip),%rax        # 212ca <g_435>
   11022:	48 89 85 b8 f4 ff ff 	mov    %rax,-0xb48(%rbp)
   11029:	48 8d 85 cc c4 ff ff 	lea    -0x3b34(%rbp),%rax
   11030:	48 89 85 c0 f4 ff ff 	mov    %rax,-0xb40(%rbp)
   11037:	48 8d 05 18 00 01 00 	lea    0x10018(%rip),%rax        # 21056 <g_57+0x2>
   1103e:	48 89 85 c8 f4 ff ff 	mov    %rax,-0xb38(%rbp)
   11045:	48 8d 85 cc c4 ff ff 	lea    -0x3b34(%rbp),%rax
   1104c:	48 89 85 d0 f4 ff ff 	mov    %rax,-0xb30(%rbp)
   11053:	48 8d 05 70 02 01 00 	lea    0x10270(%rip),%rax        # 212ca <g_435>
   1105a:	48 89 85 d8 f4 ff ff 	mov    %rax,-0xb28(%rbp)
   11061:	48 8d 85 cc c4 ff ff 	lea    -0x3b34(%rbp),%rax
   11068:	48 89 85 e0 f4 ff ff 	mov    %rax,-0xb20(%rbp)
   1106f:	48 8d 05 54 02 01 00 	lea    0x10254(%rip),%rax        # 212ca <g_435>
   11076:	48 89 85 e8 f4 ff ff 	mov    %rax,-0xb18(%rbp)
   1107d:	48 8d 05 46 02 01 00 	lea    0x10246(%rip),%rax        # 212ca <g_435>
   11084:	48 89 85 f0 f4 ff ff 	mov    %rax,-0xb10(%rbp)
   1108b:	48 8d 85 cc c4 ff ff 	lea    -0x3b34(%rbp),%rax
   11092:	48 89 85 f8 f4 ff ff 	mov    %rax,-0xb08(%rbp)
   11099:	48 8d 05 b6 ff 00 00 	lea    0xffb6(%rip),%rax        # 21056 <g_57+0x2>
   110a0:	48 89 85 00 f5 ff ff 	mov    %rax,-0xb00(%rbp)
   110a7:	48 8d 05 1c 02 01 00 	lea    0x1021c(%rip),%rax        # 212ca <g_435>
   110ae:	48 89 85 08 f5 ff ff 	mov    %rax,-0xaf8(%rbp)
   110b5:	48 8d 05 0e 02 01 00 	lea    0x1020e(%rip),%rax        # 212ca <g_435>
   110bc:	48 89 85 10 f5 ff ff 	mov    %rax,-0xaf0(%rbp)
   110c3:	48 8d 05 00 02 01 00 	lea    0x10200(%rip),%rax        # 212ca <g_435>
   110ca:	48 89 85 18 f5 ff ff 	mov    %rax,-0xae8(%rbp)
   110d1:	48 8d 05 f2 01 01 00 	lea    0x101f2(%rip),%rax        # 212ca <g_435>
   110d8:	48 89 85 20 f5 ff ff 	mov    %rax,-0xae0(%rbp)
   110df:	48 8d 05 70 ff 00 00 	lea    0xff70(%rip),%rax        # 21056 <g_57+0x2>
   110e6:	48 89 85 28 f5 ff ff 	mov    %rax,-0xad8(%rbp)
   110ed:	48 8d 05 d6 01 01 00 	lea    0x101d6(%rip),%rax        # 212ca <g_435>
   110f4:	48 89 85 30 f5 ff ff 	mov    %rax,-0xad0(%rbp)
   110fb:	48 8d 05 c8 01 01 00 	lea    0x101c8(%rip),%rax        # 212ca <g_435>
   11102:	48 89 85 38 f5 ff ff 	mov    %rax,-0xac8(%rbp)
   11109:	48 8d 05 46 ff 00 00 	lea    0xff46(%rip),%rax        # 21056 <g_57+0x2>
   11110:	48 89 85 40 f5 ff ff 	mov    %rax,-0xac0(%rbp)
   11117:	48 8d 05 38 ff 00 00 	lea    0xff38(%rip),%rax        # 21056 <g_57+0x2>
   1111e:	48 89 85 48 f5 ff ff 	mov    %rax,-0xab8(%rbp)
   11125:	48 8d 05 9e 01 01 00 	lea    0x1019e(%rip),%rax        # 212ca <g_435>
   1112c:	48 89 85 50 f5 ff ff 	mov    %rax,-0xab0(%rbp)
   11133:	48 8d 05 90 01 01 00 	lea    0x10190(%rip),%rax        # 212ca <g_435>
   1113a:	48 89 85 58 f5 ff ff 	mov    %rax,-0xaa8(%rbp)
   11141:	48 8d 85 cc c4 ff ff 	lea    -0x3b34(%rbp),%rax
   11148:	48 89 85 60 f5 ff ff 	mov    %rax,-0xaa0(%rbp)
   1114f:	48 8d 05 00 ff 00 00 	lea    0xff00(%rip),%rax        # 21056 <g_57+0x2>
   11156:	48 89 85 68 f5 ff ff 	mov    %rax,-0xa98(%rbp)
   1115d:	48 8d 85 cc c4 ff ff 	lea    -0x3b34(%rbp),%rax
   11164:	48 89 85 70 f5 ff ff 	mov    %rax,-0xa90(%rbp)
   1116b:	48 8d 05 58 01 01 00 	lea    0x10158(%rip),%rax        # 212ca <g_435>
   11172:	48 89 85 78 f5 ff ff 	mov    %rax,-0xa88(%rbp)
   11179:	48 8d 85 cc c4 ff ff 	lea    -0x3b34(%rbp),%rax
   11180:	48 89 85 80 f5 ff ff 	mov    %rax,-0xa80(%rbp)
   11187:	48 8d 05 3c 01 01 00 	lea    0x1013c(%rip),%rax        # 212ca <g_435>
   1118e:	48 89 85 88 f5 ff ff 	mov    %rax,-0xa78(%rbp)
   11195:	48 8d 05 2e 01 01 00 	lea    0x1012e(%rip),%rax        # 212ca <g_435>
   1119c:	48 89 85 90 f5 ff ff 	mov    %rax,-0xa70(%rbp)
   111a3:	48 8d 85 cc c4 ff ff 	lea    -0x3b34(%rbp),%rax
   111aa:	48 89 85 98 f5 ff ff 	mov    %rax,-0xa68(%rbp)
   111b1:	48 8d 05 9e fe 00 00 	lea    0xfe9e(%rip),%rax        # 21056 <g_57+0x2>
   111b8:	48 89 85 a0 f5 ff ff 	mov    %rax,-0xa60(%rbp)
   111bf:	48 8d 05 04 01 01 00 	lea    0x10104(%rip),%rax        # 212ca <g_435>
   111c6:	48 89 85 a8 f5 ff ff 	mov    %rax,-0xa58(%rbp)
   111cd:	48 8d 05 f6 00 01 00 	lea    0x100f6(%rip),%rax        # 212ca <g_435>
   111d4:	48 89 85 b0 f5 ff ff 	mov    %rax,-0xa50(%rbp)
   111db:	48 8d 05 e8 00 01 00 	lea    0x100e8(%rip),%rax        # 212ca <g_435>
   111e2:	48 89 85 b8 f5 ff ff 	mov    %rax,-0xa48(%rbp)
   111e9:	48 8d 05 da 00 01 00 	lea    0x100da(%rip),%rax        # 212ca <g_435>
   111f0:	48 89 85 c0 f5 ff ff 	mov    %rax,-0xa40(%rbp)
   111f7:	48 8d 05 58 fe 00 00 	lea    0xfe58(%rip),%rax        # 21056 <g_57+0x2>
   111fe:	48 89 85 c8 f5 ff ff 	mov    %rax,-0xa38(%rbp)
   11205:	48 8d 05 be 00 01 00 	lea    0x100be(%rip),%rax        # 212ca <g_435>
   1120c:	48 89 85 d0 f5 ff ff 	mov    %rax,-0xa30(%rbp)
   11213:	48 8d 05 b0 00 01 00 	lea    0x100b0(%rip),%rax        # 212ca <g_435>
   1121a:	48 89 85 d8 f5 ff ff 	mov    %rax,-0xa28(%rbp)
   11221:	48 8d 05 2e fe 00 00 	lea    0xfe2e(%rip),%rax        # 21056 <g_57+0x2>
   11228:	48 89 85 e0 f5 ff ff 	mov    %rax,-0xa20(%rbp)
   1122f:	48 8d 05 20 fe 00 00 	lea    0xfe20(%rip),%rax        # 21056 <g_57+0x2>
   11236:	48 89 85 e8 f5 ff ff 	mov    %rax,-0xa18(%rbp)
   1123d:	48 8d 05 86 00 01 00 	lea    0x10086(%rip),%rax        # 212ca <g_435>
   11244:	48 89 85 f0 f5 ff ff 	mov    %rax,-0xa10(%rbp)
   1124b:	48 8d 05 78 00 01 00 	lea    0x10078(%rip),%rax        # 212ca <g_435>
   11252:	48 89 85 f8 f5 ff ff 	mov    %rax,-0xa08(%rbp)
   11259:	48 8d 85 cc c4 ff ff 	lea    -0x3b34(%rbp),%rax
   11260:	48 89 85 00 f6 ff ff 	mov    %rax,-0xa00(%rbp)
   11267:	48 8d 05 e8 fd 00 00 	lea    0xfde8(%rip),%rax        # 21056 <g_57+0x2>
   1126e:	48 89 85 08 f6 ff ff 	mov    %rax,-0x9f8(%rbp)
   11275:	48 8d 85 cc c4 ff ff 	lea    -0x3b34(%rbp),%rax
   1127c:	48 89 85 10 f6 ff ff 	mov    %rax,-0x9f0(%rbp)
   11283:	48 8d 05 40 00 01 00 	lea    0x10040(%rip),%rax        # 212ca <g_435>
   1128a:	48 89 85 18 f6 ff ff 	mov    %rax,-0x9e8(%rbp)
   11291:	48 8d 85 cc c4 ff ff 	lea    -0x3b34(%rbp),%rax
   11298:	48 89 85 20 f6 ff ff 	mov    %rax,-0x9e0(%rbp)
   1129f:	48 8d 05 24 00 01 00 	lea    0x10024(%rip),%rax        # 212ca <g_435>
   112a6:	48 89 85 28 f6 ff ff 	mov    %rax,-0x9d8(%rbp)
   112ad:	48 8d 05 16 00 01 00 	lea    0x10016(%rip),%rax        # 212ca <g_435>
   112b4:	48 89 85 30 f6 ff ff 	mov    %rax,-0x9d0(%rbp)
   112bb:	48 8d 85 cc c4 ff ff 	lea    -0x3b34(%rbp),%rax
   112c2:	48 89 85 38 f6 ff ff 	mov    %rax,-0x9c8(%rbp)
   112c9:	48 8d 05 86 fd 00 00 	lea    0xfd86(%rip),%rax        # 21056 <g_57+0x2>
   112d0:	48 89 85 40 f6 ff ff 	mov    %rax,-0x9c0(%rbp)
   112d7:	48 8d 05 ec ff 00 00 	lea    0xffec(%rip),%rax        # 212ca <g_435>
   112de:	48 89 85 48 f6 ff ff 	mov    %rax,-0x9b8(%rbp)
   112e5:	48 8d 05 de ff 00 00 	lea    0xffde(%rip),%rax        # 212ca <g_435>
   112ec:	48 89 85 50 f6 ff ff 	mov    %rax,-0x9b0(%rbp)
   112f3:	48 8d 05 d0 ff 00 00 	lea    0xffd0(%rip),%rax        # 212ca <g_435>
   112fa:	48 89 85 58 f6 ff ff 	mov    %rax,-0x9a8(%rbp)
   11301:	48 8d 05 c2 ff 00 00 	lea    0xffc2(%rip),%rax        # 212ca <g_435>
   11308:	48 89 85 60 f6 ff ff 	mov    %rax,-0x9a0(%rbp)
   1130f:	48 8d 05 40 fd 00 00 	lea    0xfd40(%rip),%rax        # 21056 <g_57+0x2>
   11316:	48 89 85 68 f6 ff ff 	mov    %rax,-0x998(%rbp)
   1131d:	48 8d 05 a6 ff 00 00 	lea    0xffa6(%rip),%rax        # 212ca <g_435>
   11324:	48 89 85 70 f6 ff ff 	mov    %rax,-0x990(%rbp)
   1132b:	48 8d 05 98 ff 00 00 	lea    0xff98(%rip),%rax        # 212ca <g_435>
   11332:	48 89 85 78 f6 ff ff 	mov    %rax,-0x988(%rbp)
   11339:	48 8d 05 16 fd 00 00 	lea    0xfd16(%rip),%rax        # 21056 <g_57+0x2>
   11340:	48 89 85 80 f6 ff ff 	mov    %rax,-0x980(%rbp)
   11347:	48 8d 05 08 fd 00 00 	lea    0xfd08(%rip),%rax        # 21056 <g_57+0x2>
   1134e:	48 89 85 88 f6 ff ff 	mov    %rax,-0x978(%rbp)
   11355:	48 8d 05 6e ff 00 00 	lea    0xff6e(%rip),%rax        # 212ca <g_435>
   1135c:	48 89 85 90 f6 ff ff 	mov    %rax,-0x970(%rbp)
   11363:	48 8d 05 60 ff 00 00 	lea    0xff60(%rip),%rax        # 212ca <g_435>
   1136a:	48 89 85 98 f6 ff ff 	mov    %rax,-0x968(%rbp)
   11371:	48 8d 85 cc c4 ff ff 	lea    -0x3b34(%rbp),%rax
   11378:	48 89 85 a0 f6 ff ff 	mov    %rax,-0x960(%rbp)
   1137f:	48 8d 05 d0 fc 00 00 	lea    0xfcd0(%rip),%rax        # 21056 <g_57+0x2>
   11386:	48 89 85 a8 f6 ff ff 	mov    %rax,-0x958(%rbp)
   1138d:	48 8d 85 cc c4 ff ff 	lea    -0x3b34(%rbp),%rax
   11394:	48 89 85 b0 f6 ff ff 	mov    %rax,-0x950(%rbp)
   1139b:	48 8d 05 28 ff 00 00 	lea    0xff28(%rip),%rax        # 212ca <g_435>
   113a2:	48 89 85 b8 f6 ff ff 	mov    %rax,-0x948(%rbp)
   113a9:	48 8d 85 cc c4 ff ff 	lea    -0x3b34(%rbp),%rax
   113b0:	48 89 85 c0 f6 ff ff 	mov    %rax,-0x940(%rbp)
   113b7:	48 8d 05 0c ff 00 00 	lea    0xff0c(%rip),%rax        # 212ca <g_435>
   113be:	48 89 85 c8 f6 ff ff 	mov    %rax,-0x938(%rbp)
   113c5:	48 8d 05 fe fe 00 00 	lea    0xfefe(%rip),%rax        # 212ca <g_435>
   113cc:	48 89 85 d0 f6 ff ff 	mov    %rax,-0x930(%rbp)
   113d3:	48 8d 85 cc c4 ff ff 	lea    -0x3b34(%rbp),%rax
   113da:	48 89 85 d8 f6 ff ff 	mov    %rax,-0x928(%rbp)
   113e1:	48 8d 05 6e fc 00 00 	lea    0xfc6e(%rip),%rax        # 21056 <g_57+0x2>
   113e8:	48 89 85 e0 f6 ff ff 	mov    %rax,-0x920(%rbp)
   113ef:	48 8d 05 d4 fe 00 00 	lea    0xfed4(%rip),%rax        # 212ca <g_435>
   113f6:	48 89 85 e8 f6 ff ff 	mov    %rax,-0x918(%rbp)
   113fd:	48 8d 05 c6 fe 00 00 	lea    0xfec6(%rip),%rax        # 212ca <g_435>
   11404:	48 89 85 f0 f6 ff ff 	mov    %rax,-0x910(%rbp)
   1140b:	48 8d 05 b8 fe 00 00 	lea    0xfeb8(%rip),%rax        # 212ca <g_435>
   11412:	48 89 85 f8 f6 ff ff 	mov    %rax,-0x908(%rbp)
   11419:	48 8d 05 aa fe 00 00 	lea    0xfeaa(%rip),%rax        # 212ca <g_435>
   11420:	48 89 85 00 f7 ff ff 	mov    %rax,-0x900(%rbp)
   11427:	48 8d 05 28 fc 00 00 	lea    0xfc28(%rip),%rax        # 21056 <g_57+0x2>
   1142e:	48 89 85 08 f7 ff ff 	mov    %rax,-0x8f8(%rbp)
   11435:	48 8d 05 8e fe 00 00 	lea    0xfe8e(%rip),%rax        # 212ca <g_435>
   1143c:	48 89 85 10 f7 ff ff 	mov    %rax,-0x8f0(%rbp)
   11443:	48 8d 05 80 fe 00 00 	lea    0xfe80(%rip),%rax        # 212ca <g_435>
   1144a:	48 89 85 18 f7 ff ff 	mov    %rax,-0x8e8(%rbp)
   11451:	48 8d 05 fe fb 00 00 	lea    0xfbfe(%rip),%rax        # 21056 <g_57+0x2>
   11458:	48 89 85 20 f7 ff ff 	mov    %rax,-0x8e0(%rbp)
   1145f:	48 8d 05 f0 fb 00 00 	lea    0xfbf0(%rip),%rax        # 21056 <g_57+0x2>
   11466:	48 89 85 28 f7 ff ff 	mov    %rax,-0x8d8(%rbp)
   1146d:	48 8d 05 56 fe 00 00 	lea    0xfe56(%rip),%rax        # 212ca <g_435>
   11474:	48 89 85 30 f7 ff ff 	mov    %rax,-0x8d0(%rbp)
   1147b:	48 8d 05 48 fe 00 00 	lea    0xfe48(%rip),%rax        # 212ca <g_435>
   11482:	48 89 85 38 f7 ff ff 	mov    %rax,-0x8c8(%rbp)
   11489:	48 8d 85 cc c4 ff ff 	lea    -0x3b34(%rbp),%rax
   11490:	48 89 85 40 f7 ff ff 	mov    %rax,-0x8c0(%rbp)
   11497:	48 8d 05 b8 fb 00 00 	lea    0xfbb8(%rip),%rax        # 21056 <g_57+0x2>
   1149e:	48 89 85 48 f7 ff ff 	mov    %rax,-0x8b8(%rbp)
   114a5:	48 8d 85 cc c4 ff ff 	lea    -0x3b34(%rbp),%rax
   114ac:	48 89 85 50 f7 ff ff 	mov    %rax,-0x8b0(%rbp)
   114b3:	48 8d 05 10 fe 00 00 	lea    0xfe10(%rip),%rax        # 212ca <g_435>
   114ba:	48 89 85 58 f7 ff ff 	mov    %rax,-0x8a8(%rbp)
   114c1:	48 8d 85 cc c4 ff ff 	lea    -0x3b34(%rbp),%rax
   114c8:	48 89 85 60 f7 ff ff 	mov    %rax,-0x8a0(%rbp)
   114cf:	48 8d 05 f4 fd 00 00 	lea    0xfdf4(%rip),%rax        # 212ca <g_435>
   114d6:	48 89 85 68 f7 ff ff 	mov    %rax,-0x898(%rbp)
   114dd:	48 8d 05 e6 fd 00 00 	lea    0xfde6(%rip),%rax        # 212ca <g_435>
   114e4:	48 89 85 70 f7 ff ff 	mov    %rax,-0x890(%rbp)
   114eb:	48 8d 85 cc c4 ff ff 	lea    -0x3b34(%rbp),%rax
   114f2:	48 89 85 78 f7 ff ff 	mov    %rax,-0x888(%rbp)
   114f9:	48 8d 05 56 fb 00 00 	lea    0xfb56(%rip),%rax        # 21056 <g_57+0x2>
   11500:	48 89 85 80 f7 ff ff 	mov    %rax,-0x880(%rbp)
   11507:	48 8d 05 bc fd 00 00 	lea    0xfdbc(%rip),%rax        # 212ca <g_435>
   1150e:	48 89 85 88 f7 ff ff 	mov    %rax,-0x878(%rbp)
   11515:	48 8d 05 ae fd 00 00 	lea    0xfdae(%rip),%rax        # 212ca <g_435>
   1151c:	48 89 85 90 f7 ff ff 	mov    %rax,-0x870(%rbp)
   11523:	48 8d 05 a0 fd 00 00 	lea    0xfda0(%rip),%rax        # 212ca <g_435>
   1152a:	48 89 85 98 f7 ff ff 	mov    %rax,-0x868(%rbp)
   11531:	48 8d 05 92 fd 00 00 	lea    0xfd92(%rip),%rax        # 212ca <g_435>
   11538:	48 89 85 a0 f7 ff ff 	mov    %rax,-0x860(%rbp)
   1153f:	48 8d 05 10 fb 00 00 	lea    0xfb10(%rip),%rax        # 21056 <g_57+0x2>
   11546:	48 89 85 a8 f7 ff ff 	mov    %rax,-0x858(%rbp)
   1154d:	48 8d 05 76 fd 00 00 	lea    0xfd76(%rip),%rax        # 212ca <g_435>
   11554:	48 89 85 b0 f7 ff ff 	mov    %rax,-0x850(%rbp)
   1155b:	48 8d 05 68 fd 00 00 	lea    0xfd68(%rip),%rax        # 212ca <g_435>
   11562:	48 89 85 b8 f7 ff ff 	mov    %rax,-0x848(%rbp)
   11569:	48 8d 05 e6 fa 00 00 	lea    0xfae6(%rip),%rax        # 21056 <g_57+0x2>
   11570:	48 89 85 c0 f7 ff ff 	mov    %rax,-0x840(%rbp)
   11577:	48 8d 05 d8 fa 00 00 	lea    0xfad8(%rip),%rax        # 21056 <g_57+0x2>
   1157e:	48 89 85 c8 f7 ff ff 	mov    %rax,-0x838(%rbp)
   11585:	48 8d 05 3e fd 00 00 	lea    0xfd3e(%rip),%rax        # 212ca <g_435>
   1158c:	48 89 85 d0 f7 ff ff 	mov    %rax,-0x830(%rbp)
   11593:	48 8d 05 30 fd 00 00 	lea    0xfd30(%rip),%rax        # 212ca <g_435>
   1159a:	48 89 85 d8 f7 ff ff 	mov    %rax,-0x828(%rbp)
   115a1:	48 8d 05 d8 39 01 00 	lea    0x139d8(%rip),%rax        # 24f80 <g_47>
   115a8:	48 89 85 28 c8 ff ff 	mov    %rax,-0x37d8(%rbp)
   115af:	48 c7 85 30 c8 ff ff 	movq   $0x0,-0x37d0(%rbp)
   115b6:	00 00 00 00 
   115ba:	48 8b 05 c7 39 01 00 	mov    0x139c7(%rip),%rax        # 24f88 <g_79>
   115c1:	8b 08                	mov    (%rax),%ecx
   115c3:	48 8b 85 00 c6 ff ff 	mov    -0x3a00(%rbp),%rax
   115ca:	8b 10                	mov    (%rax),%edx
   115cc:	48 8b 85 00 c6 ff ff 	mov    -0x3a00(%rbp),%rax
   115d3:	31 ca                	xor    %ecx,%edx
   115d5:	89 10                	mov    %edx,(%rax)
   115d7:	8b 85 bc c4 ff ff    	mov    -0x3b44(%rbp),%eax
   115dd:	41 89 c5             	mov    %eax,%r13d
   115e0:	48 8b 85 98 c6 ff ff 	mov    -0x3968(%rbp),%rax
   115e7:	48 8b 00             	mov    (%rax),%rax
   115ea:	48 85 c0             	test   %rax,%rax
   115ed:	0f 95 c0             	setne  %al
   115f0:	44 0f b6 e0          	movzbl %al,%r12d
   115f4:	8b 85 bc c4 ff ff    	mov    -0x3b44(%rbp),%eax
   115fa:	0f b6 d8             	movzbl %al,%ebx
   115fd:	8b 85 bc c4 ff ff    	mov    -0x3b44(%rbp),%eax
   11603:	0f b7 d0             	movzwl %ax,%edx
   11606:	b8 dd 02 00 00       	mov    $0x2dd,%eax
   1160b:	89 c1                	mov    %eax,%ecx
   1160d:	8b 85 bc c4 ff ff    	mov    -0x3b44(%rbp),%eax
   11613:	21 c8                	and    %ecx,%eax
   11615:	0f b7 c0             	movzwl %ax,%eax
   11618:	89 d6                	mov    %edx,%esi
   1161a:	89 c7                	mov    %eax,%edi
   1161c:	e8 de 96 ff ff       	callq  acff <safe_add_func_uint16_t_u_u>
   11621:	0f b7 d0             	movzwl %ax,%edx
   11624:	48 8b 05 75 39 01 00 	mov    0x13975(%rip),%rax        # 24fa0 <g_214>
   1162b:	0f b7 00             	movzwl (%rax),%eax
   1162e:	0f b7 c0             	movzwl %ax,%eax
   11631:	89 d6                	mov    %edx,%esi
   11633:	89 c7                	mov    %eax,%edi
   11635:	e8 cc 97 ff ff       	callq  ae06 <safe_lshift_func_uint16_t_u_u>
   1163a:	0f be c0             	movsbl %al,%eax
   1163d:	be 8e ff ff ff       	mov    $0xffffff8e,%esi
   11642:	89 c7                	mov    %eax,%edi
   11644:	e8 a9 8b ff ff       	callq  a1f2 <safe_sub_func_int8_t_s_s>
   11649:	48 0f be c0          	movsbq %al,%rax
   1164d:	48 be 95 43 0d 76 c0 	movabs $0xe79213c0760d4395,%rsi
   11654:	13 92 e7 
   11657:	48 89 c7             	mov    %rax,%rdi
   1165a:	e8 55 93 ff ff       	callq  a9b4 <safe_mod_func_int64_t_s_s>
   1165f:	0f b6 c0             	movzbl %al,%eax
   11662:	89 de                	mov    %ebx,%esi
   11664:	89 c7                	mov    %eax,%edi
   11666:	e8 28 95 ff ff       	callq  ab93 <safe_mul_func_uint8_t_u_u>
   1166b:	0f b6 d0             	movzbl %al,%edx
   1166e:	8b 85 bc c4 ff ff    	mov    -0x3b44(%rbp),%eax
   11674:	39 c2                	cmp    %eax,%edx
   11676:	0f 93 c0             	setae  %al
   11679:	0f b6 d0             	movzbl %al,%edx
   1167c:	8b 85 bc c4 ff ff    	mov    -0x3b44(%rbp),%eax
   11682:	39 c2                	cmp    %eax,%edx
   11684:	0f 95 c0             	setne  %al
   11687:	0f b6 d0             	movzbl %al,%edx
   1168a:	8b 85 bc c4 ff ff    	mov    -0x3b44(%rbp),%eax
   11690:	39 c2                	cmp    %eax,%edx
   11692:	0f 96 c0             	setbe  %al
   11695:	0f b6 c0             	movzbl %al,%eax
   11698:	41 39 c4             	cmp    %eax,%r12d
   1169b:	0f 9e c0             	setle  %al
   1169e:	0f b6 d0             	movzbl %al,%edx
   116a1:	8b 85 bc c4 ff ff    	mov    -0x3b44(%rbp),%eax
   116a7:	98                   	cwtl   
   116a8:	89 d6                	mov    %edx,%esi
   116aa:	89 c7                	mov    %eax,%edi
   116ac:	e8 22 8d ff ff       	callq  a3d3 <safe_sub_func_int16_t_s_s>
   116b1:	0f bf d0             	movswl %ax,%edx
   116b4:	8b 85 bc c4 ff ff    	mov    -0x3b44(%rbp),%eax
   116ba:	39 c2                	cmp    %eax,%edx
   116bc:	0f 92 c0             	setb   %al
   116bf:	0f b6 c0             	movzbl %al,%eax
   116c2:	4c 89 ee             	mov    %r13,%rsi
   116c5:	48 89 c7             	mov    %rax,%rdi
   116c8:	e8 e7 92 ff ff       	callq  a9b4 <safe_mod_func_int64_t_s_s>
   116cd:	48 8b 85 80 c6 ff ff 	mov    -0x3980(%rbp),%rax
   116d4:	0f b6 00             	movzbl (%rax),%eax
   116d7:	8d 48 ff             	lea    -0x1(%rax),%ecx
   116da:	48 8b 95 80 c6 ff ff 	mov    -0x3980(%rbp),%rdx
   116e1:	88 0a                	mov    %cl,(%rdx)
   116e3:	84 c0                	test   %al,%al
   116e5:	75 0a                	jne    116f1 <func_41+0x4cc3>
   116e7:	8b 85 bc c4 ff ff    	mov    -0x3b44(%rbp),%eax
   116ed:	85 c0                	test   %eax,%eax
   116ef:	74 07                	je     116f8 <func_41+0x4cca>
   116f1:	b8 01 00 00 00       	mov    $0x1,%eax
   116f6:	eb 05                	jmp    116fd <func_41+0x4ccf>
   116f8:	b8 00 00 00 00       	mov    $0x0,%eax
   116fd:	83 f8 f9             	cmp    $0xfffffff9,%eax
   11700:	b8 01 00 00 00       	mov    $0x1,%eax
   11705:	89 c2                	mov    %eax,%edx
   11707:	0f b7 85 ea c4 ff ff 	movzwl -0x3b16(%rbp),%eax
   1170e:	21 d0                	and    %edx,%eax
   11710:	66 89 85 ea c4 ff ff 	mov    %ax,-0x3b16(%rbp)
   11717:	0f b7 85 ea c4 ff ff 	movzwl -0x3b16(%rbp),%eax
   1171e:	0f b6 c0             	movzbl %al,%eax
   11721:	be 03 00 00 00       	mov    $0x3,%esi
   11726:	89 c7                	mov    %eax,%edi
   11728:	e8 d8 94 ff ff       	callq  ac05 <safe_lshift_func_uint8_t_u_s>
   1172d:	48 8b 85 20 c8 ff ff 	mov    -0x37e0(%rbp),%rax
   11734:	48 89 05 25 3c 01 00 	mov    %rax,0x13c25(%rip)        # 25360 <g_1220>
   1173b:	48 8b 05 1e 3c 01 00 	mov    0x13c1e(%rip),%rax        # 25360 <g_1220>
   11742:	48 85 c0             	test   %rax,%rax
   11745:	0f 95 c2             	setne  %dl
   11748:	48 8b 85 00 c6 ff ff 	mov    -0x3a00(%rbp),%rax
   1174f:	0f b6 d2             	movzbl %dl,%edx
   11752:	89 10                	mov    %edx,(%rax)
   11754:	8b 18                	mov    (%rax),%ebx
   11756:	48 8b 85 20 c8 ff ff 	mov    -0x37e0(%rbp),%rax
   1175d:	8b 00                	mov    (%rax),%eax
   1175f:	85 c0                	test   %eax,%eax
   11761:	74 5e                	je     117c1 <func_41+0x4d93>
   11763:	8b 85 bc c4 ff ff    	mov    -0x3b44(%rbp),%eax
   11769:	0f be c0             	movsbl %al,%eax
   1176c:	be 06 00 00 00       	mov    $0x6,%esi
   11771:	89 c7                	mov    %eax,%edi
   11773:	e8 f4 8b ff ff       	callq  a36c <safe_rshift_func_int8_t_s_u>
   11778:	3c 01                	cmp    $0x1,%al
   1177a:	0f 9e c0             	setle  %al
   1177d:	0f b6 c0             	movzbl %al,%eax
   11780:	48 89 c7             	mov    %rax,%rdi
   11783:	e8 8e 90 ff ff       	callq  a816 <safe_unary_minus_func_int64_t_s>
   11788:	89 c6                	mov    %eax,%esi
   1178a:	bf 01 00 00 00       	mov    $0x1,%edi
   1178f:	e8 2a 96 ff ff       	callq  adbe <safe_lshift_func_uint16_t_u_s>
   11794:	48 8b 15 cd fc 00 00 	mov    0xfccd(%rip),%rdx        # 21468 <g_1196>
   1179b:	48 c1 ea 11          	shr    $0x11,%rdx
   1179f:	83 e2 03             	and    $0x3,%edx
   117a2:	0f b6 d2             	movzbl %dl,%edx
   117a5:	66 39 d0             	cmp    %dx,%ax
   117a8:	0f 95 c0             	setne  %al
   117ab:	0f b6 d0             	movzbl %al,%edx
   117ae:	8b 85 bc c4 ff ff    	mov    -0x3b44(%rbp),%eax
   117b4:	09 d0                	or     %edx,%eax
   117b6:	85 c0                	test   %eax,%eax
   117b8:	74 07                	je     117c1 <func_41+0x4d93>
   117ba:	b8 01 00 00 00       	mov    $0x1,%eax
   117bf:	eb 05                	jmp    117c6 <func_41+0x4d98>
   117c1:	b8 00 00 00 00       	mov    $0x0,%eax
   117c6:	09 d8                	or     %ebx,%eax
   117c8:	89 c2                	mov    %eax,%edx
   117ca:	48 8b 85 20 c8 ff ff 	mov    -0x37e0(%rbp),%rax
   117d1:	8b 00                	mov    (%rax),%eax
   117d3:	39 c2                	cmp    %eax,%edx
   117d5:	0f 9e c0             	setle  %al
   117d8:	0f b6 d0             	movzbl %al,%edx
   117db:	0f b6 85 d0 c4 ff ff 	movzbl -0x3b30(%rbp),%eax
   117e2:	48 39 c2             	cmp    %rax,%rdx
   117e5:	0f 9f c0             	setg   %al
   117e8:	0f b6 c0             	movzbl %al,%eax
   117eb:	0f b6 15 7d fb 00 00 	movzbl 0xfb7d(%rip),%edx        # 2136f <g_740+0xf>
   117f2:	c0 ea 07             	shr    $0x7,%dl
   117f5:	0f b6 d2             	movzbl %dl,%edx
   117f8:	8b 0d 72 fb 00 00    	mov    0xfb72(%rip),%ecx        # 21370 <g_740+0x10>
   117fe:	81 e1 ff ff 7f 00    	and    $0x7fffff,%ecx
   11804:	48 01 c9             	add    %rcx,%rcx
   11807:	48 09 ca             	or     %rcx,%rdx
   1180a:	09 c2                	or     %eax,%edx
   1180c:	8b 05 ce fa 00 00    	mov    0xface(%rip),%eax        # 212e0 <g_529>
   11812:	c1 e0 0f             	shl    $0xf,%eax
   11815:	c1 f8 0f             	sar    $0xf,%eax
   11818:	09 d0                	or     %edx,%eax
   1181a:	c1 e0 0f             	shl    $0xf,%eax
   1181d:	c1 f8 0f             	sar    $0xf,%eax
   11820:	25 ff ff 01 00       	and    $0x1ffff,%eax
   11825:	89 c2                	mov    %eax,%edx
   11827:	8b 05 b3 fa 00 00    	mov    0xfab3(%rip),%eax        # 212e0 <g_529>
   1182d:	25 00 00 fe ff       	and    $0xfffe0000,%eax
   11832:	09 d0                	or     %edx,%eax
   11834:	89 05 a6 fa 00 00    	mov    %eax,0xfaa6(%rip)        # 212e0 <g_529>
   1183a:	c7 85 bc c4 ff ff 00 	movl   $0x0,-0x3b44(%rbp)
   11841:	00 00 00 
   11844:	e9 55 04 00 00       	jmpq   11c9e <func_41+0x5270>
   11849:	48 8d 85 e0 f7 ff ff 	lea    -0x820(%rbp),%rax
   11850:	48 8d 15 e9 a0 00 00 	lea    0xa0e9(%rip),%rdx        # 1b940 <g_2454+0x15c8>
   11857:	b9 fc 00 00 00       	mov    $0xfc,%ecx
   1185c:	48 89 c7             	mov    %rax,%rdi
   1185f:	48 89 d6             	mov    %rdx,%rsi
   11862:	f3 48 a5             	rep movsq %ds:(%rsi),%es:(%rdi)
   11865:	66 c7 85 ec c4 ff ff 	movw   $0xfffe,-0x3b14(%rbp)
   1186c:	fe ff 
   1186e:	c7 45 c2 cf 55 55 cf 	movl   $0xcf5555cf,-0x3e(%rbp)
   11875:	66 c7 45 c6 55 55    	movw   $0x5555,-0x3a(%rbp)
   1187b:	48 c7 85 68 c6 ff ff 	movq   $0x0,-0x3998(%rbp)
   11882:	00 00 00 00 
   11886:	e9 f0 03 00 00       	jmpq   11c7b <func_41+0x524d>
   1188b:	48 8d 05 16 37 01 00 	lea    0x13716(%rip),%rax        # 24fa8 <g_216>
   11892:	48 89 85 50 d1 ff ff 	mov    %rax,-0x2eb0(%rbp)
   11899:	48 c7 85 58 d1 ff ff 	movq   $0x0,-0x2ea8(%rbp)
   118a0:	00 00 00 00 
   118a4:	48 c7 85 60 d1 ff ff 	movq   $0x0,-0x2ea0(%rbp)
   118ab:	00 00 00 00 
   118af:	48 8d 05 f2 36 01 00 	lea    0x136f2(%rip),%rax        # 24fa8 <g_216>
   118b6:	48 89 85 68 d1 ff ff 	mov    %rax,-0x2e98(%rbp)
   118bd:	48 c7 85 70 d1 ff ff 	movq   $0x0,-0x2e90(%rbp)
   118c4:	00 00 00 00 
   118c8:	48 8d 05 d9 36 01 00 	lea    0x136d9(%rip),%rax        # 24fa8 <g_216>
   118cf:	48 89 85 78 d1 ff ff 	mov    %rax,-0x2e88(%rbp)
   118d6:	48 c7 85 80 d1 ff ff 	movq   $0x0,-0x2e80(%rbp)
   118dd:	00 00 00 00 
   118e1:	48 c7 85 88 d1 ff ff 	movq   $0x0,-0x2e78(%rbp)
   118e8:	00 00 00 00 
   118ec:	48 8d 05 b5 36 01 00 	lea    0x136b5(%rip),%rax        # 24fa8 <g_216>
   118f3:	48 89 85 90 d1 ff ff 	mov    %rax,-0x2e70(%rbp)
   118fa:	48 8d 05 a7 36 01 00 	lea    0x136a7(%rip),%rax        # 24fa8 <g_216>
   11901:	48 89 85 98 d1 ff ff 	mov    %rax,-0x2e68(%rbp)
   11908:	48 8d 05 99 36 01 00 	lea    0x13699(%rip),%rax        # 24fa8 <g_216>
   1190f:	48 89 85 a0 d1 ff ff 	mov    %rax,-0x2e60(%rbp)
   11916:	48 8d 05 8b 36 01 00 	lea    0x1368b(%rip),%rax        # 24fa8 <g_216>
   1191d:	48 89 85 a8 d1 ff ff 	mov    %rax,-0x2e58(%rbp)
   11924:	48 8d 05 7d 36 01 00 	lea    0x1367d(%rip),%rax        # 24fa8 <g_216>
   1192b:	48 89 85 b0 d1 ff ff 	mov    %rax,-0x2e50(%rbp)
   11932:	48 c7 85 b8 d1 ff ff 	movq   $0x0,-0x2e48(%rbp)
   11939:	00 00 00 00 
   1193d:	48 c7 85 c0 d1 ff ff 	movq   $0x0,-0x2e40(%rbp)
   11944:	00 00 00 00 
   11948:	48 8d 05 59 36 01 00 	lea    0x13659(%rip),%rax        # 24fa8 <g_216>
   1194f:	48 89 85 c8 d1 ff ff 	mov    %rax,-0x2e38(%rbp)
   11956:	48 c7 85 d0 d1 ff ff 	movq   $0x0,-0x2e30(%rbp)
   1195d:	00 00 00 00 
   11961:	48 8d 05 40 36 01 00 	lea    0x13640(%rip),%rax        # 24fa8 <g_216>
   11968:	48 89 85 d8 d1 ff ff 	mov    %rax,-0x2e28(%rbp)
   1196f:	48 c7 85 e0 d1 ff ff 	movq   $0x0,-0x2e20(%rbp)
   11976:	00 00 00 00 
   1197a:	48 c7 85 e8 d1 ff ff 	movq   $0x0,-0x2e18(%rbp)
   11981:	00 00 00 00 
   11985:	48 8d 05 1c 36 01 00 	lea    0x1361c(%rip),%rax        # 24fa8 <g_216>
   1198c:	48 89 85 f0 d1 ff ff 	mov    %rax,-0x2e10(%rbp)
   11993:	48 8d 05 0e 36 01 00 	lea    0x1360e(%rip),%rax        # 24fa8 <g_216>
   1199a:	48 89 85 f8 d1 ff ff 	mov    %rax,-0x2e08(%rbp)
   119a1:	48 8d 05 00 36 01 00 	lea    0x13600(%rip),%rax        # 24fa8 <g_216>
   119a8:	48 89 85 00 d2 ff ff 	mov    %rax,-0x2e00(%rbp)
   119af:	48 8d 05 f2 35 01 00 	lea    0x135f2(%rip),%rax        # 24fa8 <g_216>
   119b6:	48 89 85 08 d2 ff ff 	mov    %rax,-0x2df8(%rbp)
   119bd:	48 c7 85 38 c8 ff ff 	movq   $0x0,-0x37c8(%rbp)
   119c4:	00 00 00 00 
   119c8:	48 8d 05 e1 f9 00 00 	lea    0xf9e1(%rip),%rax        # 213b0 <g_742>
   119cf:	48 89 85 c0 cd ff ff 	mov    %rax,-0x3240(%rbp)
   119d6:	48 8d 05 d3 f9 00 00 	lea    0xf9d3(%rip),%rax        # 213b0 <g_742>
   119dd:	48 89 85 c8 cd ff ff 	mov    %rax,-0x3238(%rbp)
   119e4:	48 8d 05 c5 f9 00 00 	lea    0xf9c5(%rip),%rax        # 213b0 <g_742>
   119eb:	48 89 85 d0 cd ff ff 	mov    %rax,-0x3230(%rbp)
   119f2:	48 8d 05 b7 f9 00 00 	lea    0xf9b7(%rip),%rax        # 213b0 <g_742>
   119f9:	48 89 85 d8 cd ff ff 	mov    %rax,-0x3228(%rbp)
   11a00:	c7 85 bc c5 ff ff 8c 	movl   $0x927fd38c,-0x3a44(%rbp)
   11a07:	d3 7f 92 
   11a0a:	8b 85 bc c4 ff ff    	mov    -0x3b44(%rbp),%eax
   11a10:	89 c0                	mov    %eax,%eax
   11a12:	8b 84 85 c4 c8 ff ff 	mov    -0x373c(%rbp,%rax,4),%eax
   11a19:	8b 95 bc c4 ff ff    	mov    -0x3b44(%rbp),%edx
   11a1f:	89 d2                	mov    %edx,%edx
   11a21:	48 8d 0c d5 00 00 00 	lea    0x0(,%rdx,8),%rcx
   11a28:	00 
   11a29:	48 8d 15 c0 f8 00 00 	lea    0xf8c0(%rip),%rdx        # 212f0 <g_582>
   11a30:	48 8b 14 11          	mov    (%rcx,%rdx,1),%rdx
   11a34:	89 d1                	mov    %edx,%ecx
   11a36:	8b 95 bc c4 ff ff    	mov    -0x3b44(%rbp),%edx
   11a3c:	31 c8                	xor    %ecx,%eax
   11a3e:	89 d2                	mov    %edx,%edx
   11a40:	89 84 95 c4 c8 ff ff 	mov    %eax,-0x373c(%rbp,%rdx,4)
   11a47:	48 8b 85 80 c6 ff ff 	mov    -0x3980(%rbp),%rax
   11a4e:	0f b6 00             	movzbl (%rax),%eax
   11a51:	8d 50 ff             	lea    -0x1(%rax),%edx
   11a54:	48 8b 85 80 c6 ff ff 	mov    -0x3980(%rbp),%rax
   11a5b:	88 10                	mov    %dl,(%rax)
   11a5d:	48 8b 85 68 c6 ff ff 	mov    -0x3998(%rbp),%rax
   11a64:	0f b7 84 45 c8 c8 ff 	movzwl -0x3738(%rbp,%rax,2),%eax
   11a6b:	ff 
   11a6c:	66 85 c0             	test   %ax,%ax
   11a6f:	0f 94 c0             	sete   %al
   11a72:	0f b6 c0             	movzbl %al,%eax
   11a75:	be 01 00 00 00       	mov    $0x1,%esi
   11a7a:	48 89 c7             	mov    %rax,%rdi
   11a7d:	e8 c9 95 ff ff       	callq  b04b <safe_sub_func_uint64_t_u_u>
   11a82:	be 00 00 00 00       	mov    $0x0,%esi
   11a87:	bf 05 00 00 00       	mov    $0x5,%edi
   11a8c:	e8 10 88 ff ff       	callq  a2a1 <safe_lshift_func_int8_t_s_s>
   11a91:	8b 95 bc c4 ff ff    	mov    -0x3b44(%rbp),%edx
   11a97:	0f be c0             	movsbl %al,%eax
   11a9a:	89 d2                	mov    %edx,%edx
   11a9c:	89 84 95 c4 c8 ff ff 	mov    %eax,-0x373c(%rbp,%rdx,4)
   11aa3:	8b 85 20 c5 ff ff    	mov    -0x3ae0(%rbp),%eax
   11aa9:	0f b7 d8             	movzwl %ax,%ebx
   11aac:	8b 85 bc c4 ff ff    	mov    -0x3b44(%rbp),%eax
   11ab2:	8b 95 bc c4 ff ff    	mov    -0x3b44(%rbp),%edx
   11ab8:	83 c2 02             	add    $0x2,%edx
   11abb:	89 c1                	mov    %eax,%ecx
   11abd:	89 d0                	mov    %edx,%eax
   11abf:	66 89 8c 45 c8 c8 ff 	mov    %cx,-0x3738(%rbp,%rax,2)
   11ac6:	ff 
   11ac7:	89 d0                	mov    %edx,%eax
   11ac9:	0f b7 84 45 c8 c8 ff 	movzwl -0x3738(%rbp,%rax,2),%eax
   11ad0:	ff 
   11ad1:	44 0f b7 f0          	movzwl %ax,%r14d
   11ad5:	8b 05 fd 46 01 00    	mov    0x146fd(%rip),%eax        # 261d8 <g_530>
   11adb:	4c 63 e0             	movslq %eax,%r12
   11ade:	48 8b 85 00 c6 ff ff 	mov    -0x3a00(%rbp),%rax
   11ae5:	8b 00                	mov    (%rax),%eax
   11ae7:	44 0f bf e8          	movswl %ax,%r13d
   11aeb:	48 8b 85 20 c8 ff ff 	mov    -0x37e0(%rbp),%rax
   11af2:	c7 00 01 00 00 00    	movl   $0x1,(%rax)
   11af8:	48 c7 85 58 fd ff ff 	movq   $0x4735,-0x2a8(%rbp)
   11aff:	35 47 00 00 
   11b03:	48 8b 85 58 fd ff ff 	mov    -0x2a8(%rbp),%rax
   11b0a:	0f b7 c0             	movzwl %ax,%eax
   11b0d:	89 c6                	mov    %eax,%esi
   11b0f:	bf f7 8c 00 00       	mov    $0x8cf7,%edi
   11b14:	e8 e6 91 ff ff       	callq  acff <safe_add_func_uint16_t_u_u>
   11b19:	98                   	cwtl   
   11b1a:	44 89 ee             	mov    %r13d,%esi
   11b1d:	89 c7                	mov    %eax,%edi
   11b1f:	e8 31 89 ff ff       	callq  a455 <safe_div_func_int16_t_s_s>
   11b24:	48 8b 05 d5 f8 00 00 	mov    0xf8d5(%rip),%rax        # 21400 <g_1066>
   11b2b:	48 c1 e8 34          	shr    $0x34,%rax
   11b2f:	66 85 c0             	test   %ax,%ax
   11b32:	74 07                	je     11b3b <func_41+0x510d>
   11b34:	b8 01 00 00 00       	mov    $0x1,%eax
   11b39:	eb 05                	jmp    11b40 <func_41+0x5112>
   11b3b:	b8 00 00 00 00       	mov    $0x0,%eax
   11b40:	35 43 65 00 00       	xor    $0x6543,%eax
   11b45:	48 63 d0             	movslq %eax,%rdx
   11b48:	0f b6 05 08 f5 00 00 	movzbl 0xf508(%rip),%eax        # 21057 <g_57+0x3>
   11b4f:	48 0f be c0          	movsbq %al,%rax
   11b53:	48 09 d0             	or     %rdx,%rax
   11b56:	48 83 f8 02          	cmp    $0x2,%rax
   11b5a:	0f 9f c0             	setg   %al
   11b5d:	0f b6 d0             	movzbl %al,%edx
   11b60:	8b 85 bc c4 ff ff    	mov    -0x3b44(%rbp),%eax
   11b66:	89 c0                	mov    %eax,%eax
   11b68:	8b 84 85 c4 c8 ff ff 	mov    -0x373c(%rbp,%rax,4),%eax
   11b6f:	89 d6                	mov    %edx,%esi
   11b71:	89 c7                	mov    %eax,%edi
   11b73:	e8 3e 8a ff ff       	callq  a5b6 <safe_add_func_int32_t_s_s>
   11b78:	21 85 44 c5 ff ff    	and    %eax,-0x3abc(%rbp)
   11b7e:	8b 85 44 c5 ff ff    	mov    -0x3abc(%rbp),%eax
   11b84:	be d6 75 08 88       	mov    $0x880875d6,%esi
   11b89:	89 c7                	mov    %eax,%edi
   11b8b:	e8 6d 93 ff ff       	callq  aefd <safe_mod_func_uint32_t_u_u>
   11b90:	66 0d 9e d3          	or     $0xd39e,%ax
   11b94:	98                   	cwtl   
   11b95:	be 00 00 00 00       	mov    $0x0,%esi
   11b9a:	89 c7                	mov    %eax,%edi
   11b9c:	e8 40 89 ff ff       	callq  a4e1 <safe_lshift_func_int16_t_s_u>
   11ba1:	48 0f bf c0          	movswq %ax,%rax
   11ba5:	4c 89 e6             	mov    %r12,%rsi
   11ba8:	48 89 c7             	mov    %rax,%rdi
   11bab:	e8 d0 94 ff ff       	callq  b080 <safe_mod_func_uint64_t_u_u>
   11bb0:	49 39 c6             	cmp    %rax,%r14
   11bb3:	0f 97 c0             	seta   %al
   11bb6:	0f b6 d0             	movzbl %al,%edx
   11bb9:	48 8b 85 18 c8 ff ff 	mov    -0x37e8(%rbp),%rax
   11bc0:	0f b7 00             	movzwl (%rax),%eax
   11bc3:	89 c1                	mov    %eax,%ecx
   11bc5:	89 d0                	mov    %edx,%eax
   11bc7:	09 c8                	or     %ecx,%eax
   11bc9:	89 c2                	mov    %eax,%edx
   11bcb:	48 8b 85 18 c8 ff ff 	mov    -0x37e8(%rbp),%rax
   11bd2:	66 89 10             	mov    %dx,(%rax)
   11bd5:	48 8b 85 18 c8 ff ff 	mov    -0x37e8(%rbp),%rax
   11bdc:	0f b7 00             	movzwl (%rax),%eax
   11bdf:	0f b7 c0             	movzwl %ax,%eax
   11be2:	89 de                	mov    %ebx,%esi
   11be4:	89 c7                	mov    %eax,%edi
   11be6:	e8 a3 91 ff ff       	callq  ad8e <safe_div_func_uint16_t_u_u>
   11beb:	0f b7 c0             	movzwl %ax,%eax
   11bee:	89 c6                	mov    %eax,%esi
   11bf0:	bf ff ff 00 00       	mov    $0xffff,%edi
   11bf5:	e8 43 91 ff ff       	callq  ad3d <safe_mul_func_uint16_t_u_u>
   11bfa:	0f b7 d0             	movzwl %ax,%edx
   11bfd:	8b 05 3d f4 00 00    	mov    0xf43d(%rip),%eax        # 21040 <g_48>
   11c03:	01 c0                	add    %eax,%eax
   11c05:	d1 f8                	sar    %eax
   11c07:	39 c2                	cmp    %eax,%edx
   11c09:	0f 9d c0             	setge  %al
   11c0c:	0f b6 c0             	movzbl %al,%eax
   11c0f:	89 c6                	mov    %eax,%esi
   11c11:	bf 43 1b 00 00       	mov    $0x1b43,%edi
   11c16:	e8 e4 90 ff ff       	callq  acff <safe_add_func_uint16_t_u_u>
   11c1b:	0f b7 c0             	movzwl %ax,%eax
   11c1e:	89 85 bc c5 ff ff    	mov    %eax,-0x3a44(%rbp)
   11c24:	be 0a 00 00 00       	mov    $0xa,%esi
   11c29:	bf 77 09 00 00       	mov    $0x977,%edi
   11c2e:	e8 5f 88 ff ff       	callq  a492 <safe_lshift_func_int16_t_s_s>
   11c33:	48 0f bf c0          	movswq %ax,%rax
   11c37:	0f b6 55 c2          	movzbl -0x3e(%rbp),%edx
   11c3b:	83 f2 10             	xor    $0x10,%edx
   11c3e:	88 55 c2             	mov    %dl,-0x3e(%rbp)
   11c41:	0f b6 55 c2          	movzbl -0x3e(%rbp),%edx
   11c45:	48 0f be d2          	movsbq %dl,%rdx
   11c49:	48 b9 23 dd d5 37 78 	movabs $0x536c507837d5dd23,%rcx
   11c50:	50 6c 53 
   11c53:	48 21 ca             	and    %rcx,%rdx
   11c56:	48 39 d0             	cmp    %rdx,%rax
   11c59:	0f 95 c0             	setne  %al
   11c5c:	0f b6 c8             	movzbl %al,%ecx
   11c5f:	48 8b 85 30 c6 ff ff 	mov    -0x39d0(%rbp),%rax
   11c66:	8b 10                	mov    (%rax),%edx
   11c68:	48 8b 85 30 c6 ff ff 	mov    -0x39d0(%rbp),%rax
   11c6f:	09 ca                	or     %ecx,%edx
   11c71:	89 10                	mov    %edx,(%rax)
   11c73:	48 83 85 68 c6 ff ff 	addq   $0x1,-0x3998(%rbp)
   11c7a:	01 
   11c7b:	48 83 bd 68 c6 ff ff 	cmpq   $0x3,-0x3998(%rbp)
   11c82:	03 
   11c83:	0f 86 02 fc ff ff    	jbe    1188b <func_41+0x4e5d>
   11c89:	0f b6 45 c4          	movzbl -0x3c(%rbp),%eax
   11c8d:	84 c0                	test   %al,%al
   11c8f:	8b 85 bc c4 ff ff    	mov    -0x3b44(%rbp),%eax
   11c95:	83 c0 01             	add    $0x1,%eax
   11c98:	89 85 bc c4 ff ff    	mov    %eax,-0x3b44(%rbp)
   11c9e:	8b 85 bc c4 ff ff    	mov    -0x3b44(%rbp),%eax
   11ca4:	85 c0                	test   %eax,%eax
   11ca6:	0f 84 9d fb ff ff    	je     11849 <func_41+0x4e1b>
   11cac:	0f b6 85 d2 c4 ff ff 	movzbl -0x3b2e(%rbp),%eax
   11cb3:	83 c0 01             	add    $0x1,%eax
   11cb6:	88 85 d2 c4 ff ff    	mov    %al,-0x3b2e(%rbp)
   11cbc:	e9 da 2f 00 00       	jmpq   14c9b <func_41+0x826d>
   11cc1:	48 8d 85 00 c6 ff ff 	lea    -0x3a00(%rbp),%rax
   11cc8:	48 89 85 50 c6 ff ff 	mov    %rax,-0x39b0(%rbp)
   11ccf:	48 8d 85 e0 c8 ff ff 	lea    -0x3720(%rbp),%rax
   11cd6:	48 83 c0 10          	add    $0x10,%rax
   11cda:	48 89 85 18 c7 ff ff 	mov    %rax,-0x38e8(%rbp)
   11ce1:	66 c7 85 e2 c4 ff ff 	movw   $0x4790,-0x3b1e(%rbp)
   11ce8:	90 47 
   11cea:	66 c7 85 e0 c4 ff ff 	movw   $0x3,-0x3b20(%rbp)
   11cf1:	03 00 
   11cf3:	48 8d 05 86 32 01 00 	lea    0x13286(%rip),%rax        # 24f80 <g_47>
   11cfa:	48 89 85 58 c6 ff ff 	mov    %rax,-0x39a8(%rbp)
   11d01:	48 8d 85 a0 e0 ff ff 	lea    -0x1f60(%rbp),%rax
   11d08:	48 05 20 01 00 00    	add    $0x120,%rax
   11d0e:	48 89 85 20 c7 ff ff 	mov    %rax,-0x38e0(%rbp)
   11d15:	48 8d 85 dc c4 ff ff 	lea    -0x3b24(%rbp),%rax
   11d1c:	48 89 85 28 c7 ff ff 	mov    %rax,-0x38d8(%rbp)
   11d23:	48 8d 05 36 36 01 00 	lea    0x13636(%rip),%rax        # 25360 <g_1220>
   11d2a:	48 89 85 00 f0 ff ff 	mov    %rax,-0x1000(%rbp)
   11d31:	48 8d 85 30 c6 ff ff 	lea    -0x39d0(%rbp),%rax
   11d38:	48 89 85 08 f0 ff ff 	mov    %rax,-0xff8(%rbp)
   11d3f:	48 8d 85 00 c6 ff ff 	lea    -0x3a00(%rbp),%rax
   11d46:	48 89 85 10 f0 ff ff 	mov    %rax,-0xff0(%rbp)
   11d4d:	48 8d 85 30 c6 ff ff 	lea    -0x39d0(%rbp),%rax
   11d54:	48 89 85 18 f0 ff ff 	mov    %rax,-0xfe8(%rbp)
   11d5b:	48 8d 05 fe 35 01 00 	lea    0x135fe(%rip),%rax        # 25360 <g_1220>
   11d62:	48 89 85 20 f0 ff ff 	mov    %rax,-0xfe0(%rbp)
   11d69:	48 8d 85 00 c6 ff ff 	lea    -0x3a00(%rbp),%rax
   11d70:	48 89 85 28 f0 ff ff 	mov    %rax,-0xfd8(%rbp)
   11d77:	48 8d 85 30 c6 ff ff 	lea    -0x39d0(%rbp),%rax
   11d7e:	48 89 85 30 f0 ff ff 	mov    %rax,-0xfd0(%rbp)
   11d85:	48 8d 85 30 c6 ff ff 	lea    -0x39d0(%rbp),%rax
   11d8c:	48 89 85 38 f0 ff ff 	mov    %rax,-0xfc8(%rbp)
   11d93:	48 8d 05 c6 35 01 00 	lea    0x135c6(%rip),%rax        # 25360 <g_1220>
   11d9a:	48 89 85 40 f0 ff ff 	mov    %rax,-0xfc0(%rbp)
   11da1:	48 8d 05 b8 35 01 00 	lea    0x135b8(%rip),%rax        # 25360 <g_1220>
   11da8:	48 89 85 48 f0 ff ff 	mov    %rax,-0xfb8(%rbp)
   11daf:	48 8d 85 30 c6 ff ff 	lea    -0x39d0(%rbp),%rax
   11db6:	48 89 85 50 f0 ff ff 	mov    %rax,-0xfb0(%rbp)
   11dbd:	48 8d 85 30 c6 ff ff 	lea    -0x39d0(%rbp),%rax
   11dc4:	48 89 85 58 f0 ff ff 	mov    %rax,-0xfa8(%rbp)
   11dcb:	48 8d 85 00 c6 ff ff 	lea    -0x3a00(%rbp),%rax
   11dd2:	48 89 85 60 f0 ff ff 	mov    %rax,-0xfa0(%rbp)
   11dd9:	48 8d 85 00 c6 ff ff 	lea    -0x3a00(%rbp),%rax
   11de0:	48 89 85 68 f0 ff ff 	mov    %rax,-0xf98(%rbp)
   11de7:	48 8d 85 30 c6 ff ff 	lea    -0x39d0(%rbp),%rax
   11dee:	48 89 85 70 f0 ff ff 	mov    %rax,-0xf90(%rbp)
   11df5:	48 8d 85 00 c6 ff ff 	lea    -0x3a00(%rbp),%rax
   11dfc:	48 89 85 78 f0 ff ff 	mov    %rax,-0xf88(%rbp)
   11e03:	48 8d 85 30 c6 ff ff 	lea    -0x39d0(%rbp),%rax
   11e0a:	48 89 85 80 f0 ff ff 	mov    %rax,-0xf80(%rbp)
   11e11:	48 8d 05 48 35 01 00 	lea    0x13548(%rip),%rax        # 25360 <g_1220>
   11e18:	48 89 85 88 f0 ff ff 	mov    %rax,-0xf78(%rbp)
   11e1f:	48 8d 85 30 c6 ff ff 	lea    -0x39d0(%rbp),%rax
   11e26:	48 89 85 90 f0 ff ff 	mov    %rax,-0xf70(%rbp)
   11e2d:	48 8d 05 2c 35 01 00 	lea    0x1352c(%rip),%rax        # 25360 <g_1220>
   11e34:	48 89 85 98 f0 ff ff 	mov    %rax,-0xf68(%rbp)
   11e3b:	48 8d 85 30 c6 ff ff 	lea    -0x39d0(%rbp),%rax
   11e42:	48 89 85 a0 f0 ff ff 	mov    %rax,-0xf60(%rbp)
   11e49:	48 8d 85 00 c6 ff ff 	lea    -0x3a00(%rbp),%rax
   11e50:	48 89 85 a8 f0 ff ff 	mov    %rax,-0xf58(%rbp)
   11e57:	48 8d 05 02 35 01 00 	lea    0x13502(%rip),%rax        # 25360 <g_1220>
   11e5e:	48 89 85 b0 f0 ff ff 	mov    %rax,-0xf50(%rbp)
   11e65:	48 c7 85 b8 f0 ff ff 	movq   $0x0,-0xf48(%rbp)
   11e6c:	00 00 00 00 
   11e70:	48 8d 05 e9 34 01 00 	lea    0x134e9(%rip),%rax        # 25360 <g_1220>
   11e77:	48 89 85 c0 f0 ff ff 	mov    %rax,-0xf40(%rbp)
   11e7e:	48 8d 05 db 34 01 00 	lea    0x134db(%rip),%rax        # 25360 <g_1220>
   11e85:	48 89 85 c8 f0 ff ff 	mov    %rax,-0xf38(%rbp)
   11e8c:	48 8d 05 cd 34 01 00 	lea    0x134cd(%rip),%rax        # 25360 <g_1220>
   11e93:	48 89 85 d0 f0 ff ff 	mov    %rax,-0xf30(%rbp)
   11e9a:	48 8d 85 00 c6 ff ff 	lea    -0x3a00(%rbp),%rax
   11ea1:	48 89 85 d8 f0 ff ff 	mov    %rax,-0xf28(%rbp)
   11ea8:	48 8d 85 00 c6 ff ff 	lea    -0x3a00(%rbp),%rax
   11eaf:	48 89 85 e0 f0 ff ff 	mov    %rax,-0xf20(%rbp)
   11eb6:	48 8d 85 00 c6 ff ff 	lea    -0x3a00(%rbp),%rax
   11ebd:	48 89 85 e8 f0 ff ff 	mov    %rax,-0xf18(%rbp)
   11ec4:	48 8d 85 30 c6 ff ff 	lea    -0x39d0(%rbp),%rax
   11ecb:	48 89 85 f0 f0 ff ff 	mov    %rax,-0xf10(%rbp)
   11ed2:	48 8d 85 00 c6 ff ff 	lea    -0x3a00(%rbp),%rax
   11ed9:	48 89 85 f8 f0 ff ff 	mov    %rax,-0xf08(%rbp)
   11ee0:	48 8d 85 30 c6 ff ff 	lea    -0x39d0(%rbp),%rax
   11ee7:	48 89 85 00 f1 ff ff 	mov    %rax,-0xf00(%rbp)
   11eee:	48 8d 85 00 c6 ff ff 	lea    -0x3a00(%rbp),%rax
   11ef5:	48 89 85 08 f1 ff ff 	mov    %rax,-0xef8(%rbp)
   11efc:	48 8d 85 00 c6 ff ff 	lea    -0x3a00(%rbp),%rax
   11f03:	48 89 85 10 f1 ff ff 	mov    %rax,-0xef0(%rbp)
   11f0a:	48 8d 85 00 c6 ff ff 	lea    -0x3a00(%rbp),%rax
   11f11:	48 89 85 18 f1 ff ff 	mov    %rax,-0xee8(%rbp)
   11f18:	48 8d 05 41 34 01 00 	lea    0x13441(%rip),%rax        # 25360 <g_1220>
   11f1f:	48 89 85 20 f1 ff ff 	mov    %rax,-0xee0(%rbp)
   11f26:	48 8d 85 00 c6 ff ff 	lea    -0x3a00(%rbp),%rax
   11f2d:	48 89 85 28 f1 ff ff 	mov    %rax,-0xed8(%rbp)
   11f34:	48 c7 85 30 f1 ff ff 	movq   $0x0,-0xed0(%rbp)
   11f3b:	00 00 00 00 
   11f3f:	48 8d 05 1a 34 01 00 	lea    0x1341a(%rip),%rax        # 25360 <g_1220>
   11f46:	48 89 85 38 f1 ff ff 	mov    %rax,-0xec8(%rbp)
   11f4d:	48 8d 85 30 c6 ff ff 	lea    -0x39d0(%rbp),%rax
   11f54:	48 89 85 40 f1 ff ff 	mov    %rax,-0xec0(%rbp)
   11f5b:	48 8d 85 00 c6 ff ff 	lea    -0x3a00(%rbp),%rax
   11f62:	48 89 85 48 f1 ff ff 	mov    %rax,-0xeb8(%rbp)
   11f69:	48 8d 85 30 c6 ff ff 	lea    -0x39d0(%rbp),%rax
   11f70:	48 89 85 50 f1 ff ff 	mov    %rax,-0xeb0(%rbp)
   11f77:	48 8d 85 30 c6 ff ff 	lea    -0x39d0(%rbp),%rax
   11f7e:	48 89 85 58 f1 ff ff 	mov    %rax,-0xea8(%rbp)
   11f85:	48 8d 05 d4 33 01 00 	lea    0x133d4(%rip),%rax        # 25360 <g_1220>
   11f8c:	48 89 85 60 f1 ff ff 	mov    %rax,-0xea0(%rbp)
   11f93:	48 8d 85 00 c6 ff ff 	lea    -0x3a00(%rbp),%rax
   11f9a:	48 89 85 68 f1 ff ff 	mov    %rax,-0xe98(%rbp)
   11fa1:	48 8d 05 b8 33 01 00 	lea    0x133b8(%rip),%rax        # 25360 <g_1220>
   11fa8:	48 89 85 70 f1 ff ff 	mov    %rax,-0xe90(%rbp)
   11faf:	48 8d 05 aa 33 01 00 	lea    0x133aa(%rip),%rax        # 25360 <g_1220>
   11fb6:	48 89 85 78 f1 ff ff 	mov    %rax,-0xe88(%rbp)
   11fbd:	48 8d 85 00 c6 ff ff 	lea    -0x3a00(%rbp),%rax
   11fc4:	48 89 85 80 f1 ff ff 	mov    %rax,-0xe80(%rbp)
   11fcb:	48 8d 85 00 c6 ff ff 	lea    -0x3a00(%rbp),%rax
   11fd2:	48 89 85 88 f1 ff ff 	mov    %rax,-0xe78(%rbp)
   11fd9:	48 8d 05 80 33 01 00 	lea    0x13380(%rip),%rax        # 25360 <g_1220>
   11fe0:	48 89 85 90 f1 ff ff 	mov    %rax,-0xe70(%rbp)
   11fe7:	48 8d 85 00 c6 ff ff 	lea    -0x3a00(%rbp),%rax
   11fee:	48 89 85 98 f1 ff ff 	mov    %rax,-0xe68(%rbp)
   11ff5:	48 8d 85 30 c6 ff ff 	lea    -0x39d0(%rbp),%rax
   11ffc:	48 89 85 a0 f1 ff ff 	mov    %rax,-0xe60(%rbp)
   12003:	48 8d 05 56 33 01 00 	lea    0x13356(%rip),%rax        # 25360 <g_1220>
   1200a:	48 89 85 a8 f1 ff ff 	mov    %rax,-0xe58(%rbp)
   12011:	48 8d 85 00 c6 ff ff 	lea    -0x3a00(%rbp),%rax
   12018:	48 89 85 b0 f1 ff ff 	mov    %rax,-0xe50(%rbp)
   1201f:	48 8d 05 3a 33 01 00 	lea    0x1333a(%rip),%rax        # 25360 <g_1220>
   12026:	48 89 85 b8 f1 ff ff 	mov    %rax,-0xe48(%rbp)
   1202d:	48 8d 85 30 c6 ff ff 	lea    -0x39d0(%rbp),%rax
   12034:	48 89 85 c0 f1 ff ff 	mov    %rax,-0xe40(%rbp)
   1203b:	48 8d 85 00 c6 ff ff 	lea    -0x3a00(%rbp),%rax
   12042:	48 89 85 c8 f1 ff ff 	mov    %rax,-0xe38(%rbp)
   12049:	48 8d 85 30 c6 ff ff 	lea    -0x39d0(%rbp),%rax
   12050:	48 89 85 d0 f1 ff ff 	mov    %rax,-0xe30(%rbp)
   12057:	48 8d 05 02 33 01 00 	lea    0x13302(%rip),%rax        # 25360 <g_1220>
   1205e:	48 89 85 d8 f1 ff ff 	mov    %rax,-0xe28(%rbp)
   12065:	48 8d 85 00 c6 ff ff 	lea    -0x3a00(%rbp),%rax
   1206c:	48 89 85 e0 f1 ff ff 	mov    %rax,-0xe20(%rbp)
   12073:	48 8d 85 30 c6 ff ff 	lea    -0x39d0(%rbp),%rax
   1207a:	48 89 85 e8 f1 ff ff 	mov    %rax,-0xe18(%rbp)
   12081:	48 8d 85 30 c6 ff ff 	lea    -0x39d0(%rbp),%rax
   12088:	48 89 85 f0 f1 ff ff 	mov    %rax,-0xe10(%rbp)
   1208f:	48 8d 05 ca 32 01 00 	lea    0x132ca(%rip),%rax        # 25360 <g_1220>
   12096:	48 89 85 f8 f1 ff ff 	mov    %rax,-0xe08(%rbp)
   1209d:	48 8d 05 bc 32 01 00 	lea    0x132bc(%rip),%rax        # 25360 <g_1220>
   120a4:	48 89 85 00 f2 ff ff 	mov    %rax,-0xe00(%rbp)
   120ab:	48 8d 85 30 c6 ff ff 	lea    -0x39d0(%rbp),%rax
   120b2:	48 89 85 08 f2 ff ff 	mov    %rax,-0xdf8(%rbp)
   120b9:	48 8d 85 30 c6 ff ff 	lea    -0x39d0(%rbp),%rax
   120c0:	48 89 85 10 f2 ff ff 	mov    %rax,-0xdf0(%rbp)
   120c7:	48 8d 85 00 c6 ff ff 	lea    -0x3a00(%rbp),%rax
   120ce:	48 89 85 18 f2 ff ff 	mov    %rax,-0xde8(%rbp)
   120d5:	48 8d 85 00 c6 ff ff 	lea    -0x3a00(%rbp),%rax
   120dc:	48 89 85 20 f2 ff ff 	mov    %rax,-0xde0(%rbp)
   120e3:	48 8d 85 30 c6 ff ff 	lea    -0x39d0(%rbp),%rax
   120ea:	48 89 85 28 f2 ff ff 	mov    %rax,-0xdd8(%rbp)
   120f1:	48 8d 85 00 c6 ff ff 	lea    -0x3a00(%rbp),%rax
   120f8:	48 89 85 30 f2 ff ff 	mov    %rax,-0xdd0(%rbp)
   120ff:	48 8d 85 30 c6 ff ff 	lea    -0x39d0(%rbp),%rax
   12106:	48 89 85 38 f2 ff ff 	mov    %rax,-0xdc8(%rbp)
   1210d:	48 8d 05 4c 32 01 00 	lea    0x1324c(%rip),%rax        # 25360 <g_1220>
   12114:	48 89 85 40 f2 ff ff 	mov    %rax,-0xdc0(%rbp)
   1211b:	48 8d 85 30 c6 ff ff 	lea    -0x39d0(%rbp),%rax
   12122:	48 89 85 48 f2 ff ff 	mov    %rax,-0xdb8(%rbp)
   12129:	48 8d 05 30 32 01 00 	lea    0x13230(%rip),%rax        # 25360 <g_1220>
   12130:	48 89 85 50 f2 ff ff 	mov    %rax,-0xdb0(%rbp)
   12137:	48 8d 85 30 c6 ff ff 	lea    -0x39d0(%rbp),%rax
   1213e:	48 89 85 58 f2 ff ff 	mov    %rax,-0xda8(%rbp)
   12145:	48 8d 85 00 c6 ff ff 	lea    -0x3a00(%rbp),%rax
   1214c:	48 89 85 60 f2 ff ff 	mov    %rax,-0xda0(%rbp)
   12153:	48 8d 05 06 32 01 00 	lea    0x13206(%rip),%rax        # 25360 <g_1220>
   1215a:	48 89 85 68 f2 ff ff 	mov    %rax,-0xd98(%rbp)
   12161:	48 c7 85 70 f2 ff ff 	movq   $0x0,-0xd90(%rbp)
   12168:	00 00 00 00 
   1216c:	48 8d 05 ed 31 01 00 	lea    0x131ed(%rip),%rax        # 25360 <g_1220>
   12173:	48 89 85 78 f2 ff ff 	mov    %rax,-0xd88(%rbp)
   1217a:	48 8d 05 df 31 01 00 	lea    0x131df(%rip),%rax        # 25360 <g_1220>
   12181:	48 89 85 80 f2 ff ff 	mov    %rax,-0xd80(%rbp)
   12188:	48 8d 05 d1 31 01 00 	lea    0x131d1(%rip),%rax        # 25360 <g_1220>
   1218f:	48 89 85 88 f2 ff ff 	mov    %rax,-0xd78(%rbp)
   12196:	48 8d 85 00 c6 ff ff 	lea    -0x3a00(%rbp),%rax
   1219d:	48 89 85 90 f2 ff ff 	mov    %rax,-0xd70(%rbp)
   121a4:	48 8d 85 00 c6 ff ff 	lea    -0x3a00(%rbp),%rax
   121ab:	48 89 85 98 f2 ff ff 	mov    %rax,-0xd68(%rbp)
   121b2:	48 8d 85 00 c6 ff ff 	lea    -0x3a00(%rbp),%rax
   121b9:	48 89 85 a0 f2 ff ff 	mov    %rax,-0xd60(%rbp)
   121c0:	48 8d 85 30 c6 ff ff 	lea    -0x39d0(%rbp),%rax
   121c7:	48 89 85 a8 f2 ff ff 	mov    %rax,-0xd58(%rbp)
   121ce:	48 8d 85 00 c6 ff ff 	lea    -0x3a00(%rbp),%rax
   121d5:	48 89 85 b0 f2 ff ff 	mov    %rax,-0xd50(%rbp)
   121dc:	48 8d 85 30 c6 ff ff 	lea    -0x39d0(%rbp),%rax
   121e3:	48 89 85 b8 f2 ff ff 	mov    %rax,-0xd48(%rbp)
   121ea:	48 8d 85 00 c6 ff ff 	lea    -0x3a00(%rbp),%rax
   121f1:	48 89 85 c0 f2 ff ff 	mov    %rax,-0xd40(%rbp)
   121f8:	48 8d 85 00 c6 ff ff 	lea    -0x3a00(%rbp),%rax
   121ff:	48 89 85 c8 f2 ff ff 	mov    %rax,-0xd38(%rbp)
   12206:	48 8d 85 00 c6 ff ff 	lea    -0x3a00(%rbp),%rax
   1220d:	48 89 85 d0 f2 ff ff 	mov    %rax,-0xd30(%rbp)
   12214:	48 8d 05 45 31 01 00 	lea    0x13145(%rip),%rax        # 25360 <g_1220>
   1221b:	48 89 85 d8 f2 ff ff 	mov    %rax,-0xd28(%rbp)
   12222:	48 8d 85 00 c6 ff ff 	lea    -0x3a00(%rbp),%rax
   12229:	48 89 85 e0 f2 ff ff 	mov    %rax,-0xd20(%rbp)
   12230:	48 c7 85 e8 f2 ff ff 	movq   $0x0,-0xd18(%rbp)
   12237:	00 00 00 00 
   1223b:	48 8d 05 1e 31 01 00 	lea    0x1311e(%rip),%rax        # 25360 <g_1220>
   12242:	48 89 85 f0 f2 ff ff 	mov    %rax,-0xd10(%rbp)
   12249:	48 8d 85 30 c6 ff ff 	lea    -0x39d0(%rbp),%rax
   12250:	48 89 85 f8 f2 ff ff 	mov    %rax,-0xd08(%rbp)
   12257:	48 8d 85 00 c6 ff ff 	lea    -0x3a00(%rbp),%rax
   1225e:	48 89 85 00 f3 ff ff 	mov    %rax,-0xd00(%rbp)
   12265:	48 8d 85 30 c6 ff ff 	lea    -0x39d0(%rbp),%rax
   1226c:	48 89 85 08 f3 ff ff 	mov    %rax,-0xcf8(%rbp)
   12273:	48 8d 85 30 c6 ff ff 	lea    -0x39d0(%rbp),%rax
   1227a:	48 89 85 10 f3 ff ff 	mov    %rax,-0xcf0(%rbp)
   12281:	48 8d 05 d8 30 01 00 	lea    0x130d8(%rip),%rax        # 25360 <g_1220>
   12288:	48 89 85 18 f3 ff ff 	mov    %rax,-0xce8(%rbp)
   1228f:	48 8d 85 00 c6 ff ff 	lea    -0x3a00(%rbp),%rax
   12296:	48 89 85 20 f3 ff ff 	mov    %rax,-0xce0(%rbp)
   1229d:	48 8d 05 bc 30 01 00 	lea    0x130bc(%rip),%rax        # 25360 <g_1220>
   122a4:	48 89 85 28 f3 ff ff 	mov    %rax,-0xcd8(%rbp)
   122ab:	48 8d 05 ae 30 01 00 	lea    0x130ae(%rip),%rax        # 25360 <g_1220>
   122b2:	48 89 85 30 f3 ff ff 	mov    %rax,-0xcd0(%rbp)
   122b9:	48 8d 85 00 c6 ff ff 	lea    -0x3a00(%rbp),%rax
   122c0:	48 89 85 38 f3 ff ff 	mov    %rax,-0xcc8(%rbp)
   122c7:	48 8d 85 00 c6 ff ff 	lea    -0x3a00(%rbp),%rax
   122ce:	48 89 85 40 f3 ff ff 	mov    %rax,-0xcc0(%rbp)
   122d5:	48 8d 05 84 30 01 00 	lea    0x13084(%rip),%rax        # 25360 <g_1220>
   122dc:	48 89 85 48 f3 ff ff 	mov    %rax,-0xcb8(%rbp)
   122e3:	48 8d 85 00 c6 ff ff 	lea    -0x3a00(%rbp),%rax
   122ea:	48 89 85 50 f3 ff ff 	mov    %rax,-0xcb0(%rbp)
   122f1:	48 8d 85 30 c6 ff ff 	lea    -0x39d0(%rbp),%rax
   122f8:	48 89 85 58 f3 ff ff 	mov    %rax,-0xca8(%rbp)
   122ff:	48 8d 05 5a 30 01 00 	lea    0x1305a(%rip),%rax        # 25360 <g_1220>
   12306:	48 89 85 60 f3 ff ff 	mov    %rax,-0xca0(%rbp)
   1230d:	48 8d 85 00 c6 ff ff 	lea    -0x3a00(%rbp),%rax
   12314:	48 89 85 68 f3 ff ff 	mov    %rax,-0xc98(%rbp)
   1231b:	48 8d 05 3e 30 01 00 	lea    0x1303e(%rip),%rax        # 25360 <g_1220>
   12322:	48 89 85 70 f3 ff ff 	mov    %rax,-0xc90(%rbp)
   12329:	48 8d 85 30 c6 ff ff 	lea    -0x39d0(%rbp),%rax
   12330:	48 89 85 78 f3 ff ff 	mov    %rax,-0xc88(%rbp)
   12337:	48 8d 85 00 c6 ff ff 	lea    -0x3a00(%rbp),%rax
   1233e:	48 89 85 80 f3 ff ff 	mov    %rax,-0xc80(%rbp)
   12345:	48 8d 85 30 c6 ff ff 	lea    -0x39d0(%rbp),%rax
   1234c:	48 89 85 88 f3 ff ff 	mov    %rax,-0xc78(%rbp)
   12353:	48 8d 05 06 30 01 00 	lea    0x13006(%rip),%rax        # 25360 <g_1220>
   1235a:	48 89 85 90 f3 ff ff 	mov    %rax,-0xc70(%rbp)
   12361:	48 8d 85 00 c6 ff ff 	lea    -0x3a00(%rbp),%rax
   12368:	48 89 85 98 f3 ff ff 	mov    %rax,-0xc68(%rbp)
   1236f:	48 8d 85 30 c6 ff ff 	lea    -0x39d0(%rbp),%rax
   12376:	48 89 85 a0 f3 ff ff 	mov    %rax,-0xc60(%rbp)
   1237d:	48 8d 85 30 c6 ff ff 	lea    -0x39d0(%rbp),%rax
   12384:	48 89 85 a8 f3 ff ff 	mov    %rax,-0xc58(%rbp)
   1238b:	48 8d 85 00 c6 ff ff 	lea    -0x3a00(%rbp),%rax
   12392:	48 89 85 b0 f3 ff ff 	mov    %rax,-0xc50(%rbp)
   12399:	48 c7 85 b8 f3 ff ff 	movq   $0x0,-0xc48(%rbp)
   123a0:	00 00 00 00 
   123a4:	48 8d 85 00 c6 ff ff 	lea    -0x3a00(%rbp),%rax
   123ab:	48 89 85 c0 f3 ff ff 	mov    %rax,-0xc40(%rbp)
   123b2:	48 8d 85 00 c6 ff ff 	lea    -0x3a00(%rbp),%rax
   123b9:	48 89 85 c8 f3 ff ff 	mov    %rax,-0xc38(%rbp)
   123c0:	48 8d 05 99 2f 01 00 	lea    0x12f99(%rip),%rax        # 25360 <g_1220>
   123c7:	48 89 85 d0 f3 ff ff 	mov    %rax,-0xc30(%rbp)
   123ce:	48 8d 05 8b 2f 01 00 	lea    0x12f8b(%rip),%rax        # 25360 <g_1220>
   123d5:	48 89 85 d8 f3 ff ff 	mov    %rax,-0xc28(%rbp)
   123dc:	48 8d 85 00 c6 ff ff 	lea    -0x3a00(%rbp),%rax
   123e3:	48 89 85 e0 f3 ff ff 	mov    %rax,-0xc20(%rbp)
   123ea:	48 8d 85 30 c6 ff ff 	lea    -0x39d0(%rbp),%rax
   123f1:	48 89 85 e8 f3 ff ff 	mov    %rax,-0xc18(%rbp)
   123f8:	48 8d 05 61 2f 01 00 	lea    0x12f61(%rip),%rax        # 25360 <g_1220>
   123ff:	48 89 85 f0 f3 ff ff 	mov    %rax,-0xc10(%rbp)
   12406:	48 8d 85 30 c6 ff ff 	lea    -0x39d0(%rbp),%rax
   1240d:	48 89 85 f8 f3 ff ff 	mov    %rax,-0xc08(%rbp)
   12414:	48 8d 85 00 c6 ff ff 	lea    -0x3a00(%rbp),%rax
   1241b:	48 89 85 00 f4 ff ff 	mov    %rax,-0xc00(%rbp)
   12422:	48 c7 85 08 f4 ff ff 	movq   $0x0,-0xbf8(%rbp)
   12429:	00 00 00 00 
   1242d:	48 8d 05 2c 2f 01 00 	lea    0x12f2c(%rip),%rax        # 25360 <g_1220>
   12434:	48 89 85 10 f4 ff ff 	mov    %rax,-0xbf0(%rbp)
   1243b:	48 8d 05 1e 2f 01 00 	lea    0x12f1e(%rip),%rax        # 25360 <g_1220>
   12442:	48 89 85 18 f4 ff ff 	mov    %rax,-0xbe8(%rbp)
   12449:	48 8d 85 30 c6 ff ff 	lea    -0x39d0(%rbp),%rax
   12450:	48 89 85 20 f4 ff ff 	mov    %rax,-0xbe0(%rbp)
   12457:	48 8d 85 30 c6 ff ff 	lea    -0x39d0(%rbp),%rax
   1245e:	48 89 85 28 f4 ff ff 	mov    %rax,-0xbd8(%rbp)
   12465:	48 8d 85 30 c6 ff ff 	lea    -0x39d0(%rbp),%rax
   1246c:	48 89 85 30 f4 ff ff 	mov    %rax,-0xbd0(%rbp)
   12473:	48 c7 85 38 f4 ff ff 	movq   $0x0,-0xbc8(%rbp)
   1247a:	00 00 00 00 
   1247e:	48 c7 85 40 f4 ff ff 	movq   $0x0,-0xbc0(%rbp)
   12485:	00 00 00 00 
   12489:	48 8d 05 d0 2e 01 00 	lea    0x12ed0(%rip),%rax        # 25360 <g_1220>
   12490:	48 89 85 48 f4 ff ff 	mov    %rax,-0xbb8(%rbp)
   12497:	48 8d 85 30 c6 ff ff 	lea    -0x39d0(%rbp),%rax
   1249e:	48 89 85 50 f4 ff ff 	mov    %rax,-0xbb0(%rbp)
   124a5:	48 8d 05 b4 2e 01 00 	lea    0x12eb4(%rip),%rax        # 25360 <g_1220>
   124ac:	48 89 85 58 f4 ff ff 	mov    %rax,-0xba8(%rbp)
   124b3:	66 c7 85 40 cb ff ff 	movw   $0x409e,-0x34c0(%rbp)
   124ba:	9e 40 
   124bc:	66 c7 85 42 cb ff ff 	movw   $0x100d,-0x34be(%rbp)
   124c3:	0d 10 
   124c5:	66 c7 85 44 cb ff ff 	movw   $0xef3,-0x34bc(%rbp)
   124cc:	f3 0e 
   124ce:	66 c7 85 46 cb ff ff 	movw   $0xfd9f,-0x34ba(%rbp)
   124d5:	9f fd 
   124d7:	66 c7 85 48 cb ff ff 	movw   $0xef3,-0x34b8(%rbp)
   124de:	f3 0e 
   124e0:	66 c7 85 4a cb ff ff 	movw   $0x100d,-0x34b6(%rbp)
   124e7:	0d 10 
   124e9:	66 c7 85 4c cb ff ff 	movw   $0x5036,-0x34b4(%rbp)
   124f0:	36 50 
   124f2:	66 c7 85 4e cb ff ff 	movw   $0xd80,-0x34b2(%rbp)
   124f9:	80 0d 
   124fb:	66 c7 85 50 cb ff ff 	movw   $0x0,-0x34b0(%rbp)
   12502:	00 00 
   12504:	66 c7 85 52 cb ff ff 	movw   $0xfd9f,-0x34ae(%rbp)
   1250b:	9f fd 
   1250d:	66 c7 85 54 cb ff ff 	movw   $0xd80,-0x34ac(%rbp)
   12514:	80 0d 
   12516:	66 c7 85 56 cb ff ff 	movw   $0xef3,-0x34aa(%rbp)
   1251d:	f3 0e 
   1251f:	66 c7 85 58 cb ff ff 	movw   $0x409e,-0x34a8(%rbp)
   12526:	9e 40 
   12528:	66 c7 85 5a cb ff ff 	movw   $0xef3,-0x34a6(%rbp)
   1252f:	f3 0e 
   12531:	66 c7 85 5c cb ff ff 	movw   $0x0,-0x34a4(%rbp)
   12538:	00 00 
   1253a:	66 c7 85 5e cb ff ff 	movw   $0x5036,-0x34a2(%rbp)
   12541:	36 50 
   12543:	66 c7 85 60 cb ff ff 	movw   $0x100d,-0x34a0(%rbp)
   1254a:	0d 10 
   1254c:	66 c7 85 62 cb ff ff 	movw   $0x100d,-0x349e(%rbp)
   12553:	0d 10 
   12555:	66 c7 85 64 cb ff ff 	movw   $0xa3f2,-0x349c(%rbp)
   1255c:	f2 a3 
   1255e:	66 c7 85 66 cb ff ff 	movw   $0xef3,-0x349a(%rbp)
   12565:	f3 0e 
   12567:	66 c7 85 68 cb ff ff 	movw   $0xef3,-0x3498(%rbp)
   1256e:	f3 0e 
   12570:	66 c7 85 6a cb ff ff 	movw   $0xa3f2,-0x3496(%rbp)
   12577:	f2 a3 
   12579:	66 c7 85 6c cb ff ff 	movw   $0xd80,-0x3494(%rbp)
   12580:	80 0d 
   12582:	66 c7 85 6e cb ff ff 	movw   $0x972d,-0x3492(%rbp)
   12589:	2d 97 
   1258b:	66 c7 85 70 cb ff ff 	movw   $0xa3f2,-0x3490(%rbp)
   12592:	f2 a3 
   12594:	66 c7 85 72 cb ff ff 	movw   $0xd80,-0x348e(%rbp)
   1259b:	80 0d 
   1259d:	66 c7 85 74 cb ff ff 	movw   $0x972d,-0x348c(%rbp)
   125a4:	2d 97 
   125a6:	66 c7 85 76 cb ff ff 	movw   $0x5036,-0x348a(%rbp)
   125ad:	36 50 
   125af:	66 c7 85 78 cb ff ff 	movw   $0xef3,-0x3488(%rbp)
   125b6:	f3 0e 
   125b8:	66 c7 85 7a cb ff ff 	movw   $0x972d,-0x3486(%rbp)
   125bf:	2d 97 
   125c1:	66 c7 85 7c cb ff ff 	movw   $0x409e,-0x3484(%rbp)
   125c8:	9e 40 
   125ca:	66 c7 85 7e cb ff ff 	movw   $0x100d,-0x3482(%rbp)
   125d1:	0d 10 
   125d3:	66 c7 85 80 cb ff ff 	movw   $0xef3,-0x3480(%rbp)
   125da:	f3 0e 
   125dc:	66 c7 85 82 cb ff ff 	movw   $0xfd9f,-0x347e(%rbp)
   125e3:	9f fd 
   125e5:	66 c7 85 84 cb ff ff 	movw   $0xef3,-0x347c(%rbp)
   125ec:	f3 0e 
   125ee:	66 c7 85 86 cb ff ff 	movw   $0x100d,-0x347a(%rbp)
   125f5:	0d 10 
   125f7:	66 c7 85 88 cb ff ff 	movw   $0x5036,-0x3478(%rbp)
   125fe:	36 50 
   12600:	66 c7 85 8a cb ff ff 	movw   $0xd80,-0x3476(%rbp)
   12607:	80 0d 
   12609:	66 c7 85 8c cb ff ff 	movw   $0x0,-0x3474(%rbp)
   12610:	00 00 
   12612:	66 c7 85 8e cb ff ff 	movw   $0xfd9f,-0x3472(%rbp)
   12619:	9f fd 
   1261b:	66 c7 85 90 cb ff ff 	movw   $0xd80,-0x3470(%rbp)
   12622:	80 0d 
   12624:	66 c7 85 92 cb ff ff 	movw   $0xef3,-0x346e(%rbp)
   1262b:	f3 0e 
   1262d:	66 c7 85 94 cb ff ff 	movw   $0x409e,-0x346c(%rbp)
   12634:	9e 40 
   12636:	66 c7 85 96 cb ff ff 	movw   $0xef3,-0x346a(%rbp)
   1263d:	f3 0e 
   1263f:	66 c7 85 98 cb ff ff 	movw   $0x0,-0x3468(%rbp)
   12646:	00 00 
   12648:	66 c7 85 9a cb ff ff 	movw   $0x5036,-0x3466(%rbp)
   1264f:	36 50 
   12651:	66 c7 85 9c cb ff ff 	movw   $0x100d,-0x3464(%rbp)
   12658:	0d 10 
   1265a:	66 c7 85 9e cb ff ff 	movw   $0x100d,-0x3462(%rbp)
   12661:	0d 10 
   12663:	66 c7 85 a0 cb ff ff 	movw   $0xa3f2,-0x3460(%rbp)
   1266a:	f2 a3 
   1266c:	66 c7 85 a2 cb ff ff 	movw   $0xef3,-0x345e(%rbp)
   12673:	f3 0e 
   12675:	66 c7 85 a4 cb ff ff 	movw   $0xef3,-0x345c(%rbp)
   1267c:	f3 0e 
   1267e:	66 c7 85 a6 cb ff ff 	movw   $0xa3f2,-0x345a(%rbp)
   12685:	f2 a3 
   12687:	66 c7 85 a8 cb ff ff 	movw   $0xd80,-0x3458(%rbp)
   1268e:	80 0d 
   12690:	66 c7 85 aa cb ff ff 	movw   $0x972d,-0x3456(%rbp)
   12697:	2d 97 
   12699:	66 c7 85 ac cb ff ff 	movw   $0xa3f2,-0x3454(%rbp)
   126a0:	f2 a3 
   126a2:	66 c7 85 ae cb ff ff 	movw   $0xd80,-0x3452(%rbp)
   126a9:	80 0d 
   126ab:	66 c7 85 b0 cb ff ff 	movw   $0x972d,-0x3450(%rbp)
   126b2:	2d 97 
   126b4:	66 c7 85 b2 cb ff ff 	movw   $0x5036,-0x344e(%rbp)
   126bb:	36 50 
   126bd:	66 c7 85 b4 cb ff ff 	movw   $0xef3,-0x344c(%rbp)
   126c4:	f3 0e 
   126c6:	66 c7 85 b6 cb ff ff 	movw   $0x972d,-0x344a(%rbp)
   126cd:	2d 97 
   126cf:	66 c7 85 b8 cb ff ff 	movw   $0x409e,-0x3448(%rbp)
   126d6:	9e 40 
   126d8:	66 c7 85 ba cb ff ff 	movw   $0x100d,-0x3446(%rbp)
   126df:	0d 10 
   126e1:	66 c7 85 bc cb ff ff 	movw   $0xef3,-0x3444(%rbp)
   126e8:	f3 0e 
   126ea:	66 c7 85 be cb ff ff 	movw   $0xfd9f,-0x3442(%rbp)
   126f1:	9f fd 
   126f3:	66 c7 85 c0 cb ff ff 	movw   $0xef3,-0x3440(%rbp)
   126fa:	f3 0e 
   126fc:	66 c7 85 c2 cb ff ff 	movw   $0x100d,-0x343e(%rbp)
   12703:	0d 10 
   12705:	66 c7 85 c4 cb ff ff 	movw   $0x5036,-0x343c(%rbp)
   1270c:	36 50 
   1270e:	66 c7 85 c6 cb ff ff 	movw   $0xd80,-0x343a(%rbp)
   12715:	80 0d 
   12717:	66 c7 85 c8 cb ff ff 	movw   $0x0,-0x3438(%rbp)
   1271e:	00 00 
   12720:	66 c7 85 ca cb ff ff 	movw   $0xfd9f,-0x3436(%rbp)
   12727:	9f fd 
   12729:	66 c7 85 cc cb ff ff 	movw   $0xd80,-0x3434(%rbp)
   12730:	80 0d 
   12732:	66 c7 85 ce cb ff ff 	movw   $0xef3,-0x3432(%rbp)
   12739:	f3 0e 
   1273b:	66 c7 85 d0 cb ff ff 	movw   $0x409e,-0x3430(%rbp)
   12742:	9e 40 
   12744:	66 c7 85 d2 cb ff ff 	movw   $0xef3,-0x342e(%rbp)
   1274b:	f3 0e 
   1274d:	66 c7 85 d4 cb ff ff 	movw   $0x0,-0x342c(%rbp)
   12754:	00 00 
   12756:	66 c7 85 d6 cb ff ff 	movw   $0x5036,-0x342a(%rbp)
   1275d:	36 50 
   1275f:	66 c7 85 d8 cb ff ff 	movw   $0x100d,-0x3428(%rbp)
   12766:	0d 10 
   12768:	66 c7 85 da cb ff ff 	movw   $0x100d,-0x3426(%rbp)
   1276f:	0d 10 
   12771:	66 c7 85 dc cb ff ff 	movw   $0xa3f2,-0x3424(%rbp)
   12778:	f2 a3 
   1277a:	66 c7 85 de cb ff ff 	movw   $0xef3,-0x3422(%rbp)
   12781:	f3 0e 
   12783:	66 c7 85 e0 cb ff ff 	movw   $0xef3,-0x3420(%rbp)
   1278a:	f3 0e 
   1278c:	66 c7 85 e2 cb ff ff 	movw   $0xa3f2,-0x341e(%rbp)
   12793:	f2 a3 
   12795:	66 c7 85 e4 cb ff ff 	movw   $0xd80,-0x341c(%rbp)
   1279c:	80 0d 
   1279e:	66 c7 85 e6 cb ff ff 	movw   $0x972d,-0x341a(%rbp)
   127a5:	2d 97 
   127a7:	66 c7 85 e8 cb ff ff 	movw   $0xa3f2,-0x3418(%rbp)
   127ae:	f2 a3 
   127b0:	66 c7 85 ea cb ff ff 	movw   $0xd80,-0x3416(%rbp)
   127b7:	80 0d 
   127b9:	66 c7 85 ec cb ff ff 	movw   $0x972d,-0x3414(%rbp)
   127c0:	2d 97 
   127c2:	66 c7 85 ee cb ff ff 	movw   $0x5036,-0x3412(%rbp)
   127c9:	36 50 
   127cb:	66 c7 85 f0 cb ff ff 	movw   $0xef3,-0x3410(%rbp)
   127d2:	f3 0e 
   127d4:	66 c7 85 f2 cb ff ff 	movw   $0x972d,-0x340e(%rbp)
   127db:	2d 97 
   127dd:	66 c7 85 f4 cb ff ff 	movw   $0x409e,-0x340c(%rbp)
   127e4:	9e 40 
   127e6:	66 c7 85 f6 cb ff ff 	movw   $0x100d,-0x340a(%rbp)
   127ed:	0d 10 
   127ef:	66 c7 85 f8 cb ff ff 	movw   $0xef3,-0x3408(%rbp)
   127f6:	f3 0e 
   127f8:	66 c7 85 fa cb ff ff 	movw   $0xfd9f,-0x3406(%rbp)
   127ff:	9f fd 
   12801:	66 c7 85 fc cb ff ff 	movw   $0xef3,-0x3404(%rbp)
   12808:	f3 0e 
   1280a:	66 c7 85 fe cb ff ff 	movw   $0x100d,-0x3402(%rbp)
   12811:	0d 10 
   12813:	66 c7 85 00 cc ff ff 	movw   $0x5036,-0x3400(%rbp)
   1281a:	36 50 
   1281c:	66 c7 85 02 cc ff ff 	movw   $0xd80,-0x33fe(%rbp)
   12823:	80 0d 
   12825:	66 c7 85 04 cc ff ff 	movw   $0x0,-0x33fc(%rbp)
   1282c:	00 00 
   1282e:	66 c7 85 06 cc ff ff 	movw   $0xfd9f,-0x33fa(%rbp)
   12835:	9f fd 
   12837:	66 c7 85 08 cc ff ff 	movw   $0xd80,-0x33f8(%rbp)
   1283e:	80 0d 
   12840:	66 c7 85 0a cc ff ff 	movw   $0xef3,-0x33f6(%rbp)
   12847:	f3 0e 
   12849:	66 c7 85 0c cc ff ff 	movw   $0x409e,-0x33f4(%rbp)
   12850:	9e 40 
   12852:	66 c7 85 0e cc ff ff 	movw   $0xef3,-0x33f2(%rbp)
   12859:	f3 0e 
   1285b:	66 c7 85 10 cc ff ff 	movw   $0x0,-0x33f0(%rbp)
   12862:	00 00 
   12864:	66 c7 85 12 cc ff ff 	movw   $0x5036,-0x33ee(%rbp)
   1286b:	36 50 
   1286d:	66 c7 85 14 cc ff ff 	movw   $0x100d,-0x33ec(%rbp)
   12874:	0d 10 
   12876:	66 c7 85 16 cc ff ff 	movw   $0x100d,-0x33ea(%rbp)
   1287d:	0d 10 
   1287f:	66 c7 85 18 cc ff ff 	movw   $0xa3f2,-0x33e8(%rbp)
   12886:	f2 a3 
   12888:	66 c7 85 1a cc ff ff 	movw   $0xef3,-0x33e6(%rbp)
   1288f:	f3 0e 
   12891:	66 c7 85 1c cc ff ff 	movw   $0xef3,-0x33e4(%rbp)
   12898:	f3 0e 
   1289a:	66 c7 85 1e cc ff ff 	movw   $0xa3f2,-0x33e2(%rbp)
   128a1:	f2 a3 
   128a3:	66 c7 85 20 cc ff ff 	movw   $0xd80,-0x33e0(%rbp)
   128aa:	80 0d 
   128ac:	66 c7 85 22 cc ff ff 	movw   $0x972d,-0x33de(%rbp)
   128b3:	2d 97 
   128b5:	66 c7 85 24 cc ff ff 	movw   $0xa3f2,-0x33dc(%rbp)
   128bc:	f2 a3 
   128be:	66 c7 85 26 cc ff ff 	movw   $0xd80,-0x33da(%rbp)
   128c5:	80 0d 
   128c7:	66 c7 85 28 cc ff ff 	movw   $0x972d,-0x33d8(%rbp)
   128ce:	2d 97 
   128d0:	66 c7 85 2a cc ff ff 	movw   $0x5036,-0x33d6(%rbp)
   128d7:	36 50 
   128d9:	66 c7 85 2c cc ff ff 	movw   $0xef3,-0x33d4(%rbp)
   128e0:	f3 0e 
   128e2:	66 c7 85 2e cc ff ff 	movw   $0x972d,-0x33d2(%rbp)
   128e9:	2d 97 
   128eb:	c7 85 74 c5 ff ff 02 	movl   $0x2,-0x3a8c(%rbp)
   128f2:	00 00 00 
   128f5:	c7 85 50 c5 ff ff 00 	movl   $0x0,-0x3ab0(%rbp)
   128fc:	00 00 00 
   128ff:	eb 1e                	jmp    1291f <func_41+0x5ef1>
   12901:	8b 85 50 c5 ff ff    	mov    -0x3ab0(%rbp),%eax
   12907:	48 98                	cltq   
   12909:	48 8d 95 50 c6 ff ff 	lea    -0x39b0(%rbp),%rdx
   12910:	48 89 94 c5 e0 c8 ff 	mov    %rdx,-0x3720(%rbp,%rax,8)
   12917:	ff 
   12918:	83 85 50 c5 ff ff 01 	addl   $0x1,-0x3ab0(%rbp)
   1291f:	83 bd 50 c5 ff ff 02 	cmpl   $0x2,-0x3ab0(%rbp)
   12926:	7e d9                	jle    12901 <func_41+0x5ed3>
   12928:	c7 85 50 c5 ff ff 00 	movl   $0x0,-0x3ab0(%rbp)
   1292f:	00 00 00 
   12932:	eb 46                	jmp    1297a <func_41+0x5f4c>
   12934:	c7 85 54 c5 ff ff 00 	movl   $0x0,-0x3aac(%rbp)
   1293b:	00 00 00 
   1293e:	eb 2a                	jmp    1296a <func_41+0x5f3c>
   12940:	8b 85 54 c5 ff ff    	mov    -0x3aac(%rbp),%eax
   12946:	48 63 d0             	movslq %eax,%rdx
   12949:	8b 85 50 c5 ff ff    	mov    -0x3ab0(%rbp),%eax
   1294f:	48 98                	cltq   
   12951:	48 01 d0             	add    %rdx,%rax
   12954:	48 8d 15 75 26 01 00 	lea    0x12675(%rip),%rdx        # 24fd0 <g_282+0x10>
   1295b:	48 89 94 c5 00 c9 ff 	mov    %rdx,-0x3700(%rbp,%rax,8)
   12962:	ff 
   12963:	83 85 54 c5 ff ff 01 	addl   $0x1,-0x3aac(%rbp)
   1296a:	83 bd 54 c5 ff ff 00 	cmpl   $0x0,-0x3aac(%rbp)
   12971:	7e cd                	jle    12940 <func_41+0x5f12>
   12973:	83 85 50 c5 ff ff 01 	addl   $0x1,-0x3ab0(%rbp)
   1297a:	83 bd 50 c5 ff ff 02 	cmpl   $0x2,-0x3ab0(%rbp)
   12981:	7e b1                	jle    12934 <func_41+0x5f06>
   12983:	90                   	nop
   12984:	48 8d 05 45 38 01 00 	lea    0x13845(%rip),%rax        # 261d0 <g_283>
   1298b:	48 89 05 36 26 01 00 	mov    %rax,0x12636(%rip)        # 24fc8 <g_282+0x8>
   12992:	48 8b 85 80 c6 ff ff 	mov    -0x3980(%rbp),%rax
   12999:	c6 00 01             	movb   $0x1,(%rax)
   1299c:	48 8b 85 18 c7 ff ff 	mov    -0x38e8(%rbp),%rax
   129a3:	48 8b 00             	mov    (%rax),%rax
   129a6:	48 8b 00             	mov    (%rax),%rax
   129a9:	48 8b 00             	mov    (%rax),%rax
   129ac:	8b 00                	mov    (%rax),%eax
   129ae:	89 c2                	mov    %eax,%edx
   129b0:	8b 85 bc c4 ff ff    	mov    -0x3b44(%rbp),%eax
   129b6:	39 c2                	cmp    %eax,%edx
   129b8:	0f 95 c0             	setne  %al
   129bb:	0f b6 c0             	movzbl %al,%eax
   129be:	be 00 00 00 00       	mov    $0x0,%esi
   129c3:	89 c7                	mov    %eax,%edi
   129c5:	e8 60 7b ff ff       	callq  a52a <safe_rshift_func_int16_t_s_s>
   129ca:	0f be d8             	movsbl %al,%ebx
   129cd:	be 02 00 00 00       	mov    $0x2,%esi
   129d2:	bf 00 00 00 00       	mov    $0x0,%edi
   129d7:	e8 9e 84 ff ff       	callq  ae7a <safe_rshift_func_uint16_t_u_u>
   129dc:	44 0f b7 e0          	movzwl %ax,%r12d
   129e0:	48 8b 85 00 c6 ff ff 	mov    -0x3a00(%rbp),%rax
   129e7:	8b 00                	mov    (%rax),%eax
   129e9:	48 63 d0             	movslq %eax,%rdx
   129ec:	48 8d 85 38 c6 ff ff 	lea    -0x39c8(%rbp),%rax
   129f3:	48 39 85 18 c7 ff ff 	cmp    %rax,-0x38e8(%rbp)
   129fa:	0f 95 c0             	setne  %al
   129fd:	0f b6 c0             	movzbl %al,%eax
   12a00:	48 89 d6             	mov    %rdx,%rsi
   12a03:	48 89 c7             	mov    %rax,%rdi
   12a06:	e8 a4 86 ff ff       	callq  b0af <safe_div_func_uint64_t_u_u>
   12a0b:	49 39 c4             	cmp    %rax,%r12
   12a0e:	0f 93 c0             	setae  %al
   12a11:	0f b6 c0             	movzbl %al,%eax
   12a14:	89 de                	mov    %ebx,%esi
   12a16:	89 c7                	mov    %eax,%edi
   12a18:	e8 f5 77 ff ff       	callq  a212 <safe_mul_func_int8_t_s_s>
   12a1d:	0f be c0             	movsbl %al,%eax
   12a20:	be 06 00 00 00       	mov    $0x6,%esi
   12a25:	89 c7                	mov    %eax,%edi
   12a27:	e8 09 79 ff ff       	callq  a335 <safe_rshift_func_int8_t_s_s>
   12a2c:	48 8b 05 35 ea 00 00 	mov    0xea35(%rip),%rax        # 21468 <g_1196>
   12a33:	83 bd 60 c5 ff ff 00 	cmpl   $0x0,-0x3aa0(%rbp)
   12a3a:	0f 84 a1 0b 00 00    	je     135e1 <func_41+0x6bb3>
   12a40:	c6 85 d3 c4 ff ff 05 	movb   $0x5,-0x3b2d(%rbp)
   12a47:	48 c7 85 40 c7 ff ff 	movq   $0x0,-0x38c0(%rbp)
   12a4e:	00 00 00 00 
   12a52:	c7 85 c0 c9 ff ff be 	movl   $0x3ed205be,-0x3640(%rbp)
   12a59:	05 d2 3e 
   12a5c:	c7 85 c4 c9 ff ff be 	movl   $0x3ed205be,-0x363c(%rbp)
   12a63:	05 d2 3e 
   12a66:	c7 85 c8 c9 ff ff be 	movl   $0x3ed205be,-0x3638(%rbp)
   12a6d:	05 d2 3e 
   12a70:	c7 85 cc c9 ff ff be 	movl   $0x3ed205be,-0x3634(%rbp)
   12a77:	05 d2 3e 
   12a7a:	c7 85 d0 c9 ff ff be 	movl   $0x3ed205be,-0x3630(%rbp)
   12a81:	05 d2 3e 
   12a84:	c7 85 d4 c9 ff ff be 	movl   $0x3ed205be,-0x362c(%rbp)
   12a8b:	05 d2 3e 
   12a8e:	c7 85 d8 c9 ff ff be 	movl   $0x3ed205be,-0x3628(%rbp)
   12a95:	05 d2 3e 
   12a98:	c7 85 dc c9 ff ff be 	movl   $0x3ed205be,-0x3624(%rbp)
   12a9f:	05 d2 3e 
   12aa2:	c7 85 e0 c9 ff ff be 	movl   $0x3ed205be,-0x3620(%rbp)
   12aa9:	05 d2 3e 
   12aac:	c7 85 e4 c9 ff ff be 	movl   $0x3ed205be,-0x361c(%rbp)
   12ab3:	05 d2 3e 
   12ab6:	66 c7 85 e4 c4 ff ff 	movw   $0x0,-0x3b1c(%rbp)
   12abd:	00 00 
   12abf:	48 c7 85 50 d1 ff ff 	movq   $0x0,-0x2eb0(%rbp)
   12ac6:	00 00 00 00 
   12aca:	48 8d 85 a0 e0 ff ff 	lea    -0x1f60(%rbp),%rax
   12ad1:	48 05 88 04 00 00    	add    $0x488,%rax
   12ad7:	48 89 85 58 d1 ff ff 	mov    %rax,-0x2ea8(%rbp)
   12ade:	48 8d 05 c3 24 01 00 	lea    0x124c3(%rip),%rax        # 24fa8 <g_216>
   12ae5:	48 89 85 60 d1 ff ff 	mov    %rax,-0x2ea0(%rbp)
   12aec:	48 8d 05 b5 24 01 00 	lea    0x124b5(%rip),%rax        # 24fa8 <g_216>
   12af3:	48 89 85 68 d1 ff ff 	mov    %rax,-0x2e98(%rbp)
   12afa:	48 8d 05 a7 24 01 00 	lea    0x124a7(%rip),%rax        # 24fa8 <g_216>
   12b01:	48 89 85 70 d1 ff ff 	mov    %rax,-0x2e90(%rbp)
   12b08:	48 8d 05 99 24 01 00 	lea    0x12499(%rip),%rax        # 24fa8 <g_216>
   12b0f:	48 89 85 78 d1 ff ff 	mov    %rax,-0x2e88(%rbp)
   12b16:	48 8d 85 a0 e0 ff ff 	lea    -0x1f60(%rbp),%rax
   12b1d:	48 05 88 04 00 00    	add    $0x488,%rax
   12b23:	48 89 85 80 d1 ff ff 	mov    %rax,-0x2e80(%rbp)
   12b2a:	48 8d 85 a0 e0 ff ff 	lea    -0x1f60(%rbp),%rax
   12b31:	48 05 88 04 00 00    	add    $0x488,%rax
   12b37:	48 89 85 88 d1 ff ff 	mov    %rax,-0x2e78(%rbp)
   12b3e:	48 8d 85 a0 e0 ff ff 	lea    -0x1f60(%rbp),%rax
   12b45:	48 05 78 03 00 00    	add    $0x378,%rax
   12b4b:	48 89 85 90 d1 ff ff 	mov    %rax,-0x2e70(%rbp)
   12b52:	48 8d 85 a0 e0 ff ff 	lea    -0x1f60(%rbp),%rax
   12b59:	48 05 78 03 00 00    	add    $0x378,%rax
   12b5f:	48 89 85 98 d1 ff ff 	mov    %rax,-0x2e68(%rbp)
   12b66:	48 8d 85 a0 e0 ff ff 	lea    -0x1f60(%rbp),%rax
   12b6d:	48 05 88 04 00 00    	add    $0x488,%rax
   12b73:	48 89 85 a0 d1 ff ff 	mov    %rax,-0x2e60(%rbp)
   12b7a:	48 8d 85 a0 e0 ff ff 	lea    -0x1f60(%rbp),%rax
   12b81:	48 05 78 03 00 00    	add    $0x378,%rax
   12b87:	48 89 85 a8 d1 ff ff 	mov    %rax,-0x2e58(%rbp)
   12b8e:	48 8d 05 13 24 01 00 	lea    0x12413(%rip),%rax        # 24fa8 <g_216>
   12b95:	48 89 85 b0 d1 ff ff 	mov    %rax,-0x2e50(%rbp)
   12b9c:	48 c7 85 b8 d1 ff ff 	movq   $0x0,-0x2e48(%rbp)
   12ba3:	00 00 00 00 
   12ba7:	48 8d 05 fa 23 01 00 	lea    0x123fa(%rip),%rax        # 24fa8 <g_216>
   12bae:	48 89 85 c0 d1 ff ff 	mov    %rax,-0x2e40(%rbp)
   12bb5:	48 8d 05 ec 23 01 00 	lea    0x123ec(%rip),%rax        # 24fa8 <g_216>
   12bbc:	48 89 85 c8 d1 ff ff 	mov    %rax,-0x2e38(%rbp)
   12bc3:	48 c7 85 d0 d1 ff ff 	movq   $0x0,-0x2e30(%rbp)
   12bca:	00 00 00 00 
   12bce:	48 8d 05 d3 23 01 00 	lea    0x123d3(%rip),%rax        # 24fa8 <g_216>
   12bd5:	48 89 85 d8 d1 ff ff 	mov    %rax,-0x2e28(%rbp)
   12bdc:	48 8d 85 a0 e0 ff ff 	lea    -0x1f60(%rbp),%rax
   12be3:	48 05 78 03 00 00    	add    $0x378,%rax
   12be9:	48 89 85 e0 d1 ff ff 	mov    %rax,-0x2e20(%rbp)
   12bf0:	48 8d 05 b1 23 01 00 	lea    0x123b1(%rip),%rax        # 24fa8 <g_216>
   12bf7:	48 89 85 e8 d1 ff ff 	mov    %rax,-0x2e18(%rbp)
   12bfe:	48 8d 85 a0 e0 ff ff 	lea    -0x1f60(%rbp),%rax
   12c05:	48 05 78 03 00 00    	add    $0x378,%rax
   12c0b:	48 89 85 f0 d1 ff ff 	mov    %rax,-0x2e10(%rbp)
   12c12:	48 8d 05 8f 23 01 00 	lea    0x1238f(%rip),%rax        # 24fa8 <g_216>
   12c19:	48 89 85 f8 d1 ff ff 	mov    %rax,-0x2e08(%rbp)
   12c20:	48 c7 85 00 d2 ff ff 	movq   $0x0,-0x2e00(%rbp)
   12c27:	00 00 00 00 
   12c2b:	48 8d 05 76 23 01 00 	lea    0x12376(%rip),%rax        # 24fa8 <g_216>
   12c32:	48 89 85 08 d2 ff ff 	mov    %rax,-0x2df8(%rbp)
   12c39:	48 8d 05 68 23 01 00 	lea    0x12368(%rip),%rax        # 24fa8 <g_216>
   12c40:	48 89 85 10 d2 ff ff 	mov    %rax,-0x2df0(%rbp)
   12c47:	48 c7 85 18 d2 ff ff 	movq   $0x0,-0x2de8(%rbp)
   12c4e:	00 00 00 00 
   12c52:	48 8d 05 4f 23 01 00 	lea    0x1234f(%rip),%rax        # 24fa8 <g_216>
   12c59:	48 89 85 20 d2 ff ff 	mov    %rax,-0x2de0(%rbp)
   12c60:	48 8d 85 a0 e0 ff ff 	lea    -0x1f60(%rbp),%rax
   12c67:	48 05 78 03 00 00    	add    $0x378,%rax
   12c6d:	48 89 85 28 d2 ff ff 	mov    %rax,-0x2dd8(%rbp)
   12c74:	48 8d 85 58 c6 ff ff 	lea    -0x39a8(%rbp),%rax
   12c7b:	48 89 85 e0 f7 ff ff 	mov    %rax,-0x820(%rbp)
   12c82:	48 8d 85 58 c6 ff ff 	lea    -0x39a8(%rbp),%rax
   12c89:	48 89 85 e8 f7 ff ff 	mov    %rax,-0x818(%rbp)
   12c90:	48 8d 05 01 26 01 00 	lea    0x12601(%rip),%rax        # 25298 <g_980>
   12c97:	48 89 85 f0 f7 ff ff 	mov    %rax,-0x810(%rbp)
   12c9e:	48 8d 85 58 c6 ff ff 	lea    -0x39a8(%rbp),%rax
   12ca5:	48 89 85 f8 f7 ff ff 	mov    %rax,-0x808(%rbp)
   12cac:	48 8d 85 58 c6 ff ff 	lea    -0x39a8(%rbp),%rax
   12cb3:	48 89 85 00 f8 ff ff 	mov    %rax,-0x800(%rbp)
   12cba:	48 8d 85 58 c6 ff ff 	lea    -0x39a8(%rbp),%rax
   12cc1:	48 89 85 08 f8 ff ff 	mov    %rax,-0x7f8(%rbp)
   12cc8:	48 c7 85 10 f8 ff ff 	movq   $0x0,-0x7f0(%rbp)
   12ccf:	00 00 00 00 
   12cd3:	48 c7 85 18 f8 ff ff 	movq   $0x0,-0x7e8(%rbp)
   12cda:	00 00 00 00 
   12cde:	48 8d 85 58 c6 ff ff 	lea    -0x39a8(%rbp),%rax
   12ce5:	48 89 85 20 f8 ff ff 	mov    %rax,-0x7e0(%rbp)
   12cec:	48 c7 85 28 f8 ff ff 	movq   $0x0,-0x7d8(%rbp)
   12cf3:	00 00 00 00 
   12cf7:	48 8d 05 9a 25 01 00 	lea    0x1259a(%rip),%rax        # 25298 <g_980>
   12cfe:	48 89 85 30 f8 ff ff 	mov    %rax,-0x7d0(%rbp)
   12d05:	48 8d 05 8c 25 01 00 	lea    0x1258c(%rip),%rax        # 25298 <g_980>
   12d0c:	48 89 85 38 f8 ff ff 	mov    %rax,-0x7c8(%rbp)
   12d13:	48 8d 05 7e 25 01 00 	lea    0x1257e(%rip),%rax        # 25298 <g_980>
   12d1a:	48 89 85 40 f8 ff ff 	mov    %rax,-0x7c0(%rbp)
   12d21:	48 8d 05 70 25 01 00 	lea    0x12570(%rip),%rax        # 25298 <g_980>
   12d28:	48 89 85 48 f8 ff ff 	mov    %rax,-0x7b8(%rbp)
   12d2f:	48 8d 05 62 25 01 00 	lea    0x12562(%rip),%rax        # 25298 <g_980>
   12d36:	48 89 85 50 f8 ff ff 	mov    %rax,-0x7b0(%rbp)
   12d3d:	48 8d 05 54 25 01 00 	lea    0x12554(%rip),%rax        # 25298 <g_980>
   12d44:	48 89 85 58 f8 ff ff 	mov    %rax,-0x7a8(%rbp)
   12d4b:	48 8d 85 58 c6 ff ff 	lea    -0x39a8(%rbp),%rax
   12d52:	48 89 85 60 f8 ff ff 	mov    %rax,-0x7a0(%rbp)
   12d59:	48 8d 85 58 c6 ff ff 	lea    -0x39a8(%rbp),%rax
   12d60:	48 89 85 68 f8 ff ff 	mov    %rax,-0x798(%rbp)
   12d67:	48 8d 05 2a 25 01 00 	lea    0x1252a(%rip),%rax        # 25298 <g_980>
   12d6e:	48 89 85 70 f8 ff ff 	mov    %rax,-0x790(%rbp)
   12d75:	48 8d 05 1c 25 01 00 	lea    0x1251c(%rip),%rax        # 25298 <g_980>
   12d7c:	48 89 85 78 f8 ff ff 	mov    %rax,-0x788(%rbp)
   12d83:	48 8d 85 58 c6 ff ff 	lea    -0x39a8(%rbp),%rax
   12d8a:	48 89 85 80 f8 ff ff 	mov    %rax,-0x780(%rbp)
   12d91:	48 8d 85 58 c6 ff ff 	lea    -0x39a8(%rbp),%rax
   12d98:	48 89 85 88 f8 ff ff 	mov    %rax,-0x778(%rbp)
   12d9f:	48 8d 05 f2 24 01 00 	lea    0x124f2(%rip),%rax        # 25298 <g_980>
   12da6:	48 89 85 90 f8 ff ff 	mov    %rax,-0x770(%rbp)
   12dad:	48 8d 05 e4 24 01 00 	lea    0x124e4(%rip),%rax        # 25298 <g_980>
   12db4:	48 89 85 98 f8 ff ff 	mov    %rax,-0x768(%rbp)
   12dbb:	48 8d 05 d6 24 01 00 	lea    0x124d6(%rip),%rax        # 25298 <g_980>
   12dc2:	48 89 85 a0 f8 ff ff 	mov    %rax,-0x760(%rbp)
   12dc9:	48 8d 05 c8 24 01 00 	lea    0x124c8(%rip),%rax        # 25298 <g_980>
   12dd0:	48 89 85 a8 f8 ff ff 	mov    %rax,-0x758(%rbp)
   12dd7:	48 8d 05 ba 24 01 00 	lea    0x124ba(%rip),%rax        # 25298 <g_980>
   12dde:	48 89 85 b0 f8 ff ff 	mov    %rax,-0x750(%rbp)
   12de5:	48 8d 85 58 c6 ff ff 	lea    -0x39a8(%rbp),%rax
   12dec:	48 89 85 b8 f8 ff ff 	mov    %rax,-0x748(%rbp)
   12df3:	48 8d 85 58 c6 ff ff 	lea    -0x39a8(%rbp),%rax
   12dfa:	48 89 85 c0 f8 ff ff 	mov    %rax,-0x740(%rbp)
   12e01:	48 8d 85 58 c6 ff ff 	lea    -0x39a8(%rbp),%rax
   12e08:	48 89 85 c8 f8 ff ff 	mov    %rax,-0x738(%rbp)
   12e0f:	48 8d 05 82 24 01 00 	lea    0x12482(%rip),%rax        # 25298 <g_980>
   12e16:	48 89 85 d0 f8 ff ff 	mov    %rax,-0x730(%rbp)
   12e1d:	48 8d 85 58 c6 ff ff 	lea    -0x39a8(%rbp),%rax
   12e24:	48 89 85 d8 f8 ff ff 	mov    %rax,-0x728(%rbp)
   12e2b:	48 8d 05 66 24 01 00 	lea    0x12466(%rip),%rax        # 25298 <g_980>
   12e32:	48 89 85 e0 f8 ff ff 	mov    %rax,-0x720(%rbp)
   12e39:	48 8d 05 58 24 01 00 	lea    0x12458(%rip),%rax        # 25298 <g_980>
   12e40:	48 89 85 e8 f8 ff ff 	mov    %rax,-0x718(%rbp)
   12e47:	48 8d 05 4a 24 01 00 	lea    0x1244a(%rip),%rax        # 25298 <g_980>
   12e4e:	48 89 85 f0 f8 ff ff 	mov    %rax,-0x710(%rbp)
   12e55:	48 c7 85 f8 f8 ff ff 	movq   $0x0,-0x708(%rbp)
   12e5c:	00 00 00 00 
   12e60:	48 8d 05 31 24 01 00 	lea    0x12431(%rip),%rax        # 25298 <g_980>
   12e67:	48 89 85 00 f9 ff ff 	mov    %rax,-0x700(%rbp)
   12e6e:	48 8d 05 23 24 01 00 	lea    0x12423(%rip),%rax        # 25298 <g_980>
   12e75:	48 89 85 08 f9 ff ff 	mov    %rax,-0x6f8(%rbp)
   12e7c:	48 8d 05 15 24 01 00 	lea    0x12415(%rip),%rax        # 25298 <g_980>
   12e83:	48 89 85 10 f9 ff ff 	mov    %rax,-0x6f0(%rbp)
   12e8a:	48 8d 85 58 c6 ff ff 	lea    -0x39a8(%rbp),%rax
   12e91:	48 89 85 18 f9 ff ff 	mov    %rax,-0x6e8(%rbp)
   12e98:	48 8d 05 f9 23 01 00 	lea    0x123f9(%rip),%rax        # 25298 <g_980>
   12e9f:	48 89 85 20 f9 ff ff 	mov    %rax,-0x6e0(%rbp)
   12ea6:	48 8d 85 58 c6 ff ff 	lea    -0x39a8(%rbp),%rax
   12ead:	48 89 85 28 f9 ff ff 	mov    %rax,-0x6d8(%rbp)
   12eb4:	48 8d 85 58 c6 ff ff 	lea    -0x39a8(%rbp),%rax
   12ebb:	48 89 85 30 f9 ff ff 	mov    %rax,-0x6d0(%rbp)
   12ec2:	48 8d 85 58 c6 ff ff 	lea    -0x39a8(%rbp),%rax
   12ec9:	48 89 85 38 f9 ff ff 	mov    %rax,-0x6c8(%rbp)
   12ed0:	48 8d 05 c1 23 01 00 	lea    0x123c1(%rip),%rax        # 25298 <g_980>
   12ed7:	48 89 85 40 f9 ff ff 	mov    %rax,-0x6c0(%rbp)
   12ede:	48 8d 05 b3 23 01 00 	lea    0x123b3(%rip),%rax        # 25298 <g_980>
   12ee5:	48 89 85 48 f9 ff ff 	mov    %rax,-0x6b8(%rbp)
   12eec:	48 8d 05 a5 23 01 00 	lea    0x123a5(%rip),%rax        # 25298 <g_980>
   12ef3:	48 89 85 50 f9 ff ff 	mov    %rax,-0x6b0(%rbp)
   12efa:	48 8d 05 97 23 01 00 	lea    0x12397(%rip),%rax        # 25298 <g_980>
   12f01:	48 89 85 58 f9 ff ff 	mov    %rax,-0x6a8(%rbp)
   12f08:	48 8d 05 89 23 01 00 	lea    0x12389(%rip),%rax        # 25298 <g_980>
   12f0f:	48 89 85 60 f9 ff ff 	mov    %rax,-0x6a0(%rbp)
   12f16:	48 8d 85 58 c6 ff ff 	lea    -0x39a8(%rbp),%rax
   12f1d:	48 89 85 68 f9 ff ff 	mov    %rax,-0x698(%rbp)
   12f24:	48 8d 85 58 c6 ff ff 	lea    -0x39a8(%rbp),%rax
   12f2b:	48 89 85 70 f9 ff ff 	mov    %rax,-0x690(%rbp)
   12f32:	48 8d 05 5f 23 01 00 	lea    0x1235f(%rip),%rax        # 25298 <g_980>
   12f39:	48 89 85 78 f9 ff ff 	mov    %rax,-0x688(%rbp)
   12f40:	48 8d 05 51 23 01 00 	lea    0x12351(%rip),%rax        # 25298 <g_980>
   12f47:	48 89 85 80 f9 ff ff 	mov    %rax,-0x680(%rbp)
   12f4e:	48 8d 85 58 c6 ff ff 	lea    -0x39a8(%rbp),%rax
   12f55:	48 89 85 88 f9 ff ff 	mov    %rax,-0x678(%rbp)
   12f5c:	48 8d 85 58 c6 ff ff 	lea    -0x39a8(%rbp),%rax
   12f63:	48 89 85 90 f9 ff ff 	mov    %rax,-0x670(%rbp)
   12f6a:	48 8d 05 27 23 01 00 	lea    0x12327(%rip),%rax        # 25298 <g_980>
   12f71:	48 89 85 98 f9 ff ff 	mov    %rax,-0x668(%rbp)
   12f78:	48 8d 05 19 23 01 00 	lea    0x12319(%rip),%rax        # 25298 <g_980>
   12f7f:	48 89 85 a0 f9 ff ff 	mov    %rax,-0x660(%rbp)
   12f86:	48 8d 05 0b 23 01 00 	lea    0x1230b(%rip),%rax        # 25298 <g_980>
   12f8d:	48 89 85 a8 f9 ff ff 	mov    %rax,-0x658(%rbp)
   12f94:	48 8d 05 fd 22 01 00 	lea    0x122fd(%rip),%rax        # 25298 <g_980>
   12f9b:	48 89 85 b0 f9 ff ff 	mov    %rax,-0x650(%rbp)
   12fa2:	48 8d 05 ef 22 01 00 	lea    0x122ef(%rip),%rax        # 25298 <g_980>
   12fa9:	48 89 85 b8 f9 ff ff 	mov    %rax,-0x648(%rbp)
   12fb0:	48 8d 85 58 c6 ff ff 	lea    -0x39a8(%rbp),%rax
   12fb7:	48 89 85 c0 f9 ff ff 	mov    %rax,-0x640(%rbp)
   12fbe:	48 8d 85 58 c6 ff ff 	lea    -0x39a8(%rbp),%rax
   12fc5:	48 89 85 c8 f9 ff ff 	mov    %rax,-0x638(%rbp)
   12fcc:	48 8d 85 58 c6 ff ff 	lea    -0x39a8(%rbp),%rax
   12fd3:	48 89 85 d0 f9 ff ff 	mov    %rax,-0x630(%rbp)
   12fda:	48 8d 05 b7 22 01 00 	lea    0x122b7(%rip),%rax        # 25298 <g_980>
   12fe1:	48 89 85 d8 f9 ff ff 	mov    %rax,-0x628(%rbp)
   12fe8:	48 8d 85 58 c6 ff ff 	lea    -0x39a8(%rbp),%rax
   12fef:	48 89 85 e0 f9 ff ff 	mov    %rax,-0x620(%rbp)
   12ff6:	48 8d 05 9b 22 01 00 	lea    0x1229b(%rip),%rax        # 25298 <g_980>
   12ffd:	48 89 85 e8 f9 ff ff 	mov    %rax,-0x618(%rbp)
   13004:	48 8d 05 8d 22 01 00 	lea    0x1228d(%rip),%rax        # 25298 <g_980>
   1300b:	48 89 85 f0 f9 ff ff 	mov    %rax,-0x610(%rbp)
   13012:	48 8d 05 7f 22 01 00 	lea    0x1227f(%rip),%rax        # 25298 <g_980>
   13019:	48 89 85 f8 f9 ff ff 	mov    %rax,-0x608(%rbp)
   13020:	48 c7 85 00 fa ff ff 	movq   $0x0,-0x600(%rbp)
   13027:	00 00 00 00 
   1302b:	48 8d 05 66 22 01 00 	lea    0x12266(%rip),%rax        # 25298 <g_980>
   13032:	48 89 85 08 fa ff ff 	mov    %rax,-0x5f8(%rbp)
   13039:	48 8d 05 58 22 01 00 	lea    0x12258(%rip),%rax        # 25298 <g_980>
   13040:	48 89 85 10 fa ff ff 	mov    %rax,-0x5f0(%rbp)
   13047:	48 8d 05 4a 22 01 00 	lea    0x1224a(%rip),%rax        # 25298 <g_980>
   1304e:	48 89 85 18 fa ff ff 	mov    %rax,-0x5e8(%rbp)
   13055:	48 8d 85 58 c6 ff ff 	lea    -0x39a8(%rbp),%rax
   1305c:	48 89 85 20 fa ff ff 	mov    %rax,-0x5e0(%rbp)
   13063:	48 8d 05 2e 22 01 00 	lea    0x1222e(%rip),%rax        # 25298 <g_980>
   1306a:	48 89 85 28 fa ff ff 	mov    %rax,-0x5d8(%rbp)
   13071:	48 8d 85 58 c6 ff ff 	lea    -0x39a8(%rbp),%rax
   13078:	48 89 85 30 fa ff ff 	mov    %rax,-0x5d0(%rbp)
   1307f:	48 8d 85 58 c6 ff ff 	lea    -0x39a8(%rbp),%rax
   13086:	48 89 85 38 fa ff ff 	mov    %rax,-0x5c8(%rbp)
   1308d:	48 8d 85 58 c6 ff ff 	lea    -0x39a8(%rbp),%rax
   13094:	48 89 85 40 fa ff ff 	mov    %rax,-0x5c0(%rbp)
   1309b:	48 8d 05 f6 21 01 00 	lea    0x121f6(%rip),%rax        # 25298 <g_980>
   130a2:	48 89 85 48 fa ff ff 	mov    %rax,-0x5b8(%rbp)
   130a9:	48 8d 05 e8 21 01 00 	lea    0x121e8(%rip),%rax        # 25298 <g_980>
   130b0:	48 89 85 50 fa ff ff 	mov    %rax,-0x5b0(%rbp)
   130b7:	48 8d 05 da 21 01 00 	lea    0x121da(%rip),%rax        # 25298 <g_980>
   130be:	48 89 85 58 fa ff ff 	mov    %rax,-0x5a8(%rbp)
   130c5:	48 8d 05 cc 21 01 00 	lea    0x121cc(%rip),%rax        # 25298 <g_980>
   130cc:	48 89 85 60 fa ff ff 	mov    %rax,-0x5a0(%rbp)
   130d3:	48 8d 05 be 21 01 00 	lea    0x121be(%rip),%rax        # 25298 <g_980>
   130da:	48 89 85 68 fa ff ff 	mov    %rax,-0x598(%rbp)
   130e1:	48 8d 85 58 c6 ff ff 	lea    -0x39a8(%rbp),%rax
   130e8:	48 89 85 70 fa ff ff 	mov    %rax,-0x590(%rbp)
   130ef:	48 8d 85 58 c6 ff ff 	lea    -0x39a8(%rbp),%rax
   130f6:	48 89 85 78 fa ff ff 	mov    %rax,-0x588(%rbp)
   130fd:	48 8d 05 94 21 01 00 	lea    0x12194(%rip),%rax        # 25298 <g_980>
   13104:	48 89 85 80 fa ff ff 	mov    %rax,-0x580(%rbp)
   1310b:	48 8d 05 86 21 01 00 	lea    0x12186(%rip),%rax        # 25298 <g_980>
   13112:	48 89 85 88 fa ff ff 	mov    %rax,-0x578(%rbp)
   13119:	48 8d 85 58 c6 ff ff 	lea    -0x39a8(%rbp),%rax
   13120:	48 89 85 90 fa ff ff 	mov    %rax,-0x570(%rbp)
   13127:	48 8d 85 58 c6 ff ff 	lea    -0x39a8(%rbp),%rax
   1312e:	48 89 85 98 fa ff ff 	mov    %rax,-0x568(%rbp)
   13135:	48 8d 05 5c 21 01 00 	lea    0x1215c(%rip),%rax        # 25298 <g_980>
   1313c:	48 89 85 a0 fa ff ff 	mov    %rax,-0x560(%rbp)
   13143:	48 8d 05 4e 21 01 00 	lea    0x1214e(%rip),%rax        # 25298 <g_980>
   1314a:	48 89 85 a8 fa ff ff 	mov    %rax,-0x558(%rbp)
   13151:	80 bd d3 c4 ff ff 00 	cmpb   $0x0,-0x3b2d(%rbp)
   13158:	0f 84 34 03 00 00    	je     13492 <func_41+0x6a64>
   1315e:	48 c7 85 48 c7 ff ff 	movq   $0x0,-0x38b8(%rbp)
   13165:	00 00 00 00 
   13169:	c7 85 28 c5 ff ff 00 	movl   $0x0,-0x3ad8(%rbp)
   13170:	00 00 00 
   13173:	e9 b8 02 00 00       	jmpq   13430 <func_41+0x6a02>
   13178:	48 8d 85 60 c9 ff ff 	lea    -0x36a0(%rbp),%rax
   1317f:	48 89 85 50 c7 ff ff 	mov    %rax,-0x38b0(%rbp)
   13186:	48 8d 85 dc c4 ff ff 	lea    -0x3b24(%rbp),%rax
   1318d:	48 89 85 60 c6 ff ff 	mov    %rax,-0x39a0(%rbp)
   13194:	48 8d 85 60 c6 ff ff 	lea    -0x39a0(%rbp),%rax
   1319b:	48 89 85 58 c7 ff ff 	mov    %rax,-0x38a8(%rbp)
   131a2:	48 8d 85 50 cf ff ff 	lea    -0x30b0(%rbp),%rax
   131a9:	48 05 bc 01 00 00    	add    $0x1bc,%rax
   131af:	48 89 85 60 c7 ff ff 	mov    %rax,-0x38a0(%rbp)
   131b6:	48 8d 85 1c c5 ff ff 	lea    -0x3ae4(%rbp),%rax
   131bd:	48 89 85 68 c7 ff ff 	mov    %rax,-0x3898(%rbp)
   131c4:	c7 85 58 c5 ff ff 00 	movl   $0x0,-0x3aa8(%rbp)
   131cb:	00 00 00 
   131ce:	eb 1e                	jmp    131ee <func_41+0x67c0>
   131d0:	8b 85 58 c5 ff ff    	mov    -0x3aa8(%rbp),%eax
   131d6:	48 98                	cltq   
   131d8:	48 8d 95 da c4 ff ff 	lea    -0x3b26(%rbp),%rdx
   131df:	48 89 94 c5 c0 cd ff 	mov    %rdx,-0x3240(%rbp,%rax,8)
   131e6:	ff 
   131e7:	83 85 58 c5 ff ff 01 	addl   $0x1,-0x3aa8(%rbp)
   131ee:	83 bd 58 c5 ff ff 03 	cmpl   $0x3,-0x3aa8(%rbp)
   131f5:	7e d9                	jle    131d0 <func_41+0x67a2>
   131f7:	8b 9d bc c4 ff ff    	mov    -0x3b44(%rbp),%ebx
   131fd:	48 8b 85 00 c6 ff ff 	mov    -0x3a00(%rbp),%rax
   13204:	8b 00                	mov    (%rax),%eax
   13206:	44 0f be e0          	movsbl %al,%r12d
   1320a:	44 8b ad bc c4 ff ff 	mov    -0x3b44(%rbp),%r13d
   13211:	8b 85 bc c4 ff ff    	mov    -0x3b44(%rbp),%eax
   13217:	44 0f b6 f0          	movzbl %al,%r14d
   1321b:	8b 85 bc c4 ff ff    	mov    -0x3b44(%rbp),%eax
   13221:	0f b7 d0             	movzwl %ax,%edx
   13224:	8b 85 bc c4 ff ff    	mov    -0x3b44(%rbp),%eax
   1322a:	85 c0                	test   %eax,%eax
   1322c:	75 0a                	jne    13238 <func_41+0x680a>
   1322e:	8b 85 bc c4 ff ff    	mov    -0x3b44(%rbp),%eax
   13234:	85 c0                	test   %eax,%eax
   13236:	74 07                	je     1323f <func_41+0x6811>
   13238:	b8 01 00 00 00       	mov    $0x1,%eax
   1323d:	eb 05                	jmp    13244 <func_41+0x6816>
   1323f:	b8 00 00 00 00       	mov    $0x0,%eax
   13244:	0f b7 c0             	movzwl %ax,%eax
   13247:	89 d6                	mov    %edx,%esi
   13249:	89 c7                	mov    %eax,%edi
   1324b:	e8 cf 7a ff ff       	callq  ad1f <safe_sub_func_uint16_t_u_u>
   13250:	0f b7 d0             	movzwl %ax,%edx
   13253:	48 8b 85 00 c6 ff ff 	mov    -0x3a00(%rbp),%rax
   1325a:	8b 00                	mov    (%rax),%eax
   1325c:	39 c2                	cmp    %eax,%edx
   1325e:	0f 95 c0             	setne  %al
   13261:	0f b6 c0             	movzbl %al,%eax
   13264:	44 89 f6             	mov    %r14d,%esi
   13267:	89 c7                	mov    %eax,%edi
   13269:	e8 25 79 ff ff       	callq  ab93 <safe_mul_func_uint8_t_u_u>
   1326e:	0f b6 d0             	movzbl %al,%edx
   13271:	8b 85 28 c5 ff ff    	mov    -0x3ad8(%rbp),%eax
   13277:	48 8d 0d d6 dd 00 00 	lea    0xddd6(%rip),%rcx        # 21054 <g_57>
   1327e:	0f b6 04 08          	movzbl (%rax,%rcx,1),%eax
   13282:	66 98                	cbtw   
   13284:	21 d0                	and    %edx,%eax
   13286:	98                   	cwtl   
   13287:	44 89 ee             	mov    %r13d,%esi
   1328a:	89 c7                	mov    %eax,%edi
   1328c:	e8 d2 72 ff ff       	callq  a563 <safe_rshift_func_int16_t_s_u>
   13291:	48 0f bf c0          	movswq %ax,%rax
   13295:	48 8b 95 58 c7 ff ff 	mov    -0x38a8(%rbp),%rdx
   1329c:	48 8d 0d 31 e1 00 00 	lea    0xe131(%rip),%rcx        # 213d4 <g_919>
   132a3:	48 89 0a             	mov    %rcx,(%rdx)
   132a6:	48 89 c6             	mov    %rax,%rsi
   132a9:	bf 01 00 00 00       	mov    $0x1,%edi
   132ae:	e8 7b 7d ff ff       	callq  b02e <safe_add_func_uint64_t_u_u>
   132b3:	48 8b 95 60 c7 ff ff 	mov    -0x38a0(%rbp),%rdx
   132ba:	0f b7 12             	movzwl (%rdx),%edx
   132bd:	09 d0                	or     %edx,%eax
   132bf:	89 c2                	mov    %eax,%edx
   132c1:	48 8b 85 60 c7 ff ff 	mov    -0x38a0(%rbp),%rax
   132c8:	66 89 10             	mov    %dx,(%rax)
   132cb:	48 8b 85 60 c7 ff ff 	mov    -0x38a0(%rbp),%rax
   132d2:	0f b7 00             	movzwl (%rax),%eax
   132d5:	66 3d dc 7d          	cmp    $0x7ddc,%ax
   132d9:	75 17                	jne    132f2 <func_41+0x68c4>
   132db:	48 8b 05 7e 20 01 00 	mov    0x1207e(%rip),%rax        # 25360 <g_1220>
   132e2:	8b 00                	mov    (%rax),%eax
   132e4:	85 c0                	test   %eax,%eax
   132e6:	75 0a                	jne    132f2 <func_41+0x68c4>
   132e8:	66 83 bd e2 c4 ff ff 	cmpw   $0x0,-0x3b1e(%rbp)
   132ef:	00 
   132f0:	74 07                	je     132f9 <func_41+0x68cb>
   132f2:	b9 01 00 00 00       	mov    $0x1,%ecx
   132f7:	eb 05                	jmp    132fe <func_41+0x68d0>
   132f9:	b9 00 00 00 00       	mov    $0x0,%ecx
   132fe:	8b 85 28 c5 ff ff    	mov    -0x3ad8(%rbp),%eax
   13304:	48 8d 15 49 dd 00 00 	lea    0xdd49(%rip),%rdx        # 21054 <g_57>
   1330b:	0f b6 04 10          	movzbl (%rax,%rdx,1),%eax
   1330f:	0f be c0             	movsbl %al,%eax
   13312:	89 ce                	mov    %ecx,%esi
   13314:	89 c7                	mov    %eax,%edi
   13316:	e8 ea 72 ff ff       	callq  a605 <safe_sub_func_int32_t_s_s>
   1331b:	41 89 c5             	mov    %eax,%r13d
   1331e:	48 8d 85 dc c4 ff ff 	lea    -0x3b24(%rbp),%rax
   13325:	48 89 85 d0 cd ff ff 	mov    %rax,-0x3230(%rbp)
   1332c:	48 8b 95 d0 cd ff ff 	mov    -0x3230(%rbp),%rdx
   13333:	48 8b 85 50 c7 ff ff 	mov    -0x38b0(%rbp),%rax
   1333a:	48 8d 0d 87 df 00 00 	lea    0xdf87(%rip),%rcx        # 212c8 <g_434>
   13341:	48 89 08             	mov    %rcx,(%rax)
   13344:	48 8b 85 50 c7 ff ff 	mov    -0x38b0(%rbp),%rax
   1334b:	48 8b 00             	mov    (%rax),%rax
   1334e:	48 39 c2             	cmp    %rax,%rdx
   13351:	0f 95 c0             	setne  %al
   13354:	0f b6 d0             	movzbl %al,%edx
   13357:	48 8b 85 80 c6 ff ff 	mov    -0x3980(%rbp),%rax
   1335e:	0f b6 00             	movzbl (%rax),%eax
   13361:	8d 48 ff             	lea    -0x1(%rax),%ecx
   13364:	48 8b 85 80 c6 ff ff 	mov    -0x3980(%rbp),%rax
   1336b:	88 08                	mov    %cl,(%rax)
   1336d:	48 8b 85 80 c6 ff ff 	mov    -0x3980(%rbp),%rax
   13374:	0f b6 00             	movzbl (%rax),%eax
   13377:	0f b6 c0             	movzbl %al,%eax
   1337a:	89 d6                	mov    %edx,%esi
   1337c:	89 c7                	mov    %eax,%edi
   1337e:	e8 2b 78 ff ff       	callq  abae <safe_mod_func_uint8_t_u_u>
   13383:	0f b6 d0             	movzbl %al,%edx
   13386:	48 8b 85 68 c7 ff ff 	mov    -0x3898(%rbp),%rax
   1338d:	8b 00                	mov    (%rax),%eax
   1338f:	44 89 e9             	mov    %r13d,%ecx
   13392:	31 c1                	xor    %eax,%ecx
   13394:	48 8b 85 68 c7 ff ff 	mov    -0x3898(%rbp),%rax
   1339b:	89 08                	mov    %ecx,(%rax)
   1339d:	48 8b 85 68 c7 ff ff 	mov    -0x3898(%rbp),%rax
   133a4:	8b 00                	mov    (%rax),%eax
   133a6:	21 c2                	and    %eax,%edx
   133a8:	48 8b 05 f1 1b 01 00 	mov    0x11bf1(%rip),%rax        # 24fa0 <g_214>
   133af:	0f b7 00             	movzwl (%rax),%eax
   133b2:	0f b7 c0             	movzwl %ax,%eax
   133b5:	39 c2                	cmp    %eax,%edx
   133b7:	0f 93 c0             	setae  %al
   133ba:	0f b6 c0             	movzbl %al,%eax
   133bd:	44 89 e6             	mov    %r12d,%esi
   133c0:	89 c7                	mov    %eax,%edi
   133c2:	e8 6a 6e ff ff       	callq  a231 <safe_mod_func_int8_t_s_s>
   133c7:	44 0f be e0          	movsbl %al,%r12d
   133cb:	48 8b 85 b0 c6 ff ff 	mov    -0x3950(%rbp),%rax
   133d2:	48 3b 85 40 c7 ff ff 	cmp    -0x38c0(%rbp),%rax
   133d9:	0f 95 c0             	setne  %al
   133dc:	0f b6 c0             	movzbl %al,%eax
   133df:	be 0b 00 00 00       	mov    $0xb,%esi
   133e4:	89 c7                	mov    %eax,%edi
   133e6:	e8 a7 70 ff ff       	callq  a492 <safe_lshift_func_int16_t_s_s>
   133eb:	98                   	cwtl   
   133ec:	44 89 e6             	mov    %r12d,%esi
   133ef:	89 c7                	mov    %eax,%edi
   133f1:	e8 ff 6f ff ff       	callq  a3f5 <safe_mul_func_int16_t_s_s>
   133f6:	0f b6 c0             	movzbl %al,%eax
   133f9:	be 00 00 00 00       	mov    $0x0,%esi
   133fe:	89 c7                	mov    %eax,%edi
   13400:	e8 b9 78 ff ff       	callq  acbe <safe_rshift_func_uint8_t_u_u>
   13405:	89 de                	mov    %ebx,%esi
   13407:	bf 01 00 00 00       	mov    $0x1,%edi
   1340c:	e8 a7 7a ff ff       	callq  aeb8 <safe_add_func_uint32_t_u_u>
   13411:	48 c7 85 48 c7 ff ff 	movq   $0x0,-0x38b8(%rbp)
   13418:	00 00 00 00 
   1341c:	48 8b 05 75 1b 01 00 	mov    0x11b75(%rip),%rax        # 24f98 <g_146>
   13423:	8b 00                	mov    (%rax),%eax
   13425:	85 c0                	test   %eax,%eax
   13427:	75 16                	jne    1343f <func_41+0x6a11>
   13429:	83 85 28 c5 ff ff 01 	addl   $0x1,-0x3ad8(%rbp)
   13430:	83 bd 28 c5 ff ff 04 	cmpl   $0x4,-0x3ad8(%rbp)
   13437:	0f 86 3b fd ff ff    	jbe    13178 <func_41+0x674a>
   1343d:	eb 01                	jmp    13440 <func_41+0x6a12>
   1343f:	90                   	nop
   13440:	c7 05 9e 2d 01 00 00 	movl   $0x0,0x12d9e(%rip)        # 261e8 <g_920>
   13447:	00 00 00 
   1344a:	eb 39                	jmp    13485 <func_41+0x6a57>
   1344c:	48 8b 85 18 c7 ff ff 	mov    -0x38e8(%rbp),%rax
   13453:	48 8b 00             	mov    (%rax),%rax
   13456:	48 8b 00             	mov    (%rax),%rax
   13459:	48 8b 00             	mov    (%rax),%rax
   1345c:	8b 10                	mov    (%rax),%edx
   1345e:	48 8b 85 18 c7 ff ff 	mov    -0x38e8(%rbp),%rax
   13465:	48 8b 00             	mov    (%rax),%rax
   13468:	48 8b 00             	mov    (%rax),%rax
   1346b:	48 8b 00             	mov    (%rax),%rax
   1346e:	81 f2 1d 40 cc 92    	xor    $0x92cc401d,%edx
   13474:	89 10                	mov    %edx,(%rax)
   13476:	8b 05 6c 2d 01 00    	mov    0x12d6c(%rip),%eax        # 261e8 <g_920>
   1347c:	83 c0 01             	add    $0x1,%eax
   1347f:	89 05 63 2d 01 00    	mov    %eax,0x12d63(%rip)        # 261e8 <g_920>
   13485:	8b 05 5d 2d 01 00    	mov    0x12d5d(%rip),%eax        # 261e8 <g_920>
   1348b:	83 f8 03             	cmp    $0x3,%eax
   1348e:	76 bc                	jbe    1344c <func_41+0x6a1e>
   13490:	eb 11                	jmp    134a3 <func_41+0x6a75>
   13492:	0f b7 85 e0 c4 ff ff 	movzwl -0x3b20(%rbp),%eax
   13499:	83 e8 01             	sub    $0x1,%eax
   1349c:	66 89 85 e0 c4 ff ff 	mov    %ax,-0x3b20(%rbp)
   134a3:	c7 85 20 c5 ff ff 00 	movl   $0x0,-0x3ae0(%rbp)
   134aa:	00 00 00 
   134ad:	e9 1d 01 00 00       	jmpq   135cf <func_41+0x6ba1>
   134b2:	48 c7 85 f8 c7 ff ff 	movq   $0x0,-0x3808(%rbp)
   134b9:	00 00 00 00 
   134bd:	48 8d 05 bc 1a 01 00 	lea    0x11abc(%rip),%rax        # 24f80 <g_47>
   134c4:	48 89 85 10 ca ff ff 	mov    %rax,-0x35f0(%rbp)
   134cb:	48 8d 05 ae 1a 01 00 	lea    0x11aae(%rip),%rax        # 24f80 <g_47>
   134d2:	48 89 85 18 ca ff ff 	mov    %rax,-0x35e8(%rbp)
   134d9:	48 8d 05 a0 1a 01 00 	lea    0x11aa0(%rip),%rax        # 24f80 <g_47>
   134e0:	48 89 85 20 ca ff ff 	mov    %rax,-0x35e0(%rbp)
   134e7:	48 8d 05 92 1a 01 00 	lea    0x11a92(%rip),%rax        # 24f80 <g_47>
   134ee:	48 89 85 28 ca ff ff 	mov    %rax,-0x35d8(%rbp)
   134f5:	48 8d 05 84 1a 01 00 	lea    0x11a84(%rip),%rax        # 24f80 <g_47>
   134fc:	48 89 85 30 ca ff ff 	mov    %rax,-0x35d0(%rbp)
   13503:	48 8d 05 76 1a 01 00 	lea    0x11a76(%rip),%rax        # 24f80 <g_47>
   1350a:	48 89 85 38 ca ff ff 	mov    %rax,-0x35c8(%rbp)
   13511:	48 8d 05 68 1a 01 00 	lea    0x11a68(%rip),%rax        # 24f80 <g_47>
   13518:	48 89 85 40 ca ff ff 	mov    %rax,-0x35c0(%rbp)
   1351f:	48 8d 05 5a 1a 01 00 	lea    0x11a5a(%rip),%rax        # 24f80 <g_47>
   13526:	48 89 85 48 ca ff ff 	mov    %rax,-0x35b8(%rbp)
   1352d:	48 8d 05 4c 1a 01 00 	lea    0x11a4c(%rip),%rax        # 24f80 <g_47>
   13534:	48 89 85 50 ca ff ff 	mov    %rax,-0x35b0(%rbp)
   1353b:	48 8d 05 3e 1a 01 00 	lea    0x11a3e(%rip),%rax        # 24f80 <g_47>
   13542:	48 89 85 58 ca ff ff 	mov    %rax,-0x35a8(%rbp)
   13549:	48 8d 85 50 d1 ff ff 	lea    -0x2eb0(%rbp),%rax
   13550:	48 05 d0 00 00 00    	add    $0xd0,%rax
   13556:	48 89 85 00 c8 ff ff 	mov    %rax,-0x3800(%rbp)
   1355d:	48 8d 85 1c c5 ff ff 	lea    -0x3ae4(%rbp),%rax
   13564:	48 89 85 08 c8 ff ff 	mov    %rax,-0x37f8(%rbp)
   1356b:	48 8d 85 0c c5 ff ff 	lea    -0x3af4(%rbp),%rax
   13572:	48 89 85 60 c6 ff ff 	mov    %rax,-0x39a0(%rbp)
   13579:	48 8d 85 c0 cd ff ff 	lea    -0x3240(%rbp),%rax
   13580:	48 83 c0 48          	add    $0x48,%rax
   13584:	48 89 85 10 c8 ff ff 	mov    %rax,-0x37f0(%rbp)
   1358b:	c7 85 b0 c5 ff ff fc 	movl   $0xfffffffc,-0x3a50(%rbp)
   13592:	ff ff ff 
   13595:	c7 85 5c c5 ff ff 00 	movl   $0x0,-0x3aa4(%rbp)
   1359c:	00 00 00 
   1359f:	eb 1e                	jmp    135bf <func_41+0x6b91>
   135a1:	8b 85 5c c5 ff ff    	mov    -0x3aa4(%rbp),%eax
   135a7:	48 98                	cltq   
   135a9:	48 8d 95 60 c6 ff ff 	lea    -0x39a0(%rbp),%rdx
   135b0:	48 89 94 c5 c0 cd ff 	mov    %rdx,-0x3240(%rbp,%rax,8)
   135b7:	ff 
   135b8:	83 85 5c c5 ff ff 01 	addl   $0x1,-0x3aa4(%rbp)
   135bf:	83 bd 5c c5 ff ff 09 	cmpl   $0x9,-0x3aa4(%rbp)
   135c6:	7e d9                	jle    135a1 <func_41+0x6b73>
   135c8:	83 85 20 c5 ff ff 01 	addl   $0x1,-0x3ae0(%rbp)
   135cf:	83 bd 20 c5 ff ff 02 	cmpl   $0x2,-0x3ae0(%rbp)
   135d6:	0f 86 d6 fe ff ff    	jbe    134b2 <func_41+0x6a84>
   135dc:	e9 dc 00 00 00       	jmpq   136bd <func_41+0x6c8f>
   135e1:	48 8d 85 08 c5 ff ff 	lea    -0x3af8(%rbp),%rax
   135e8:	48 89 85 30 c7 ff ff 	mov    %rax,-0x38d0(%rbp)
   135ef:	48 8b 85 50 c6 ff ff 	mov    -0x39b0(%rbp),%rax
   135f6:	48 8b 00             	mov    (%rax),%rax
   135f9:	8b 00                	mov    (%rax),%eax
   135fb:	89 c2                	mov    %eax,%edx
   135fd:	8b 85 bc c4 ff ff    	mov    -0x3b44(%rbp),%eax
   13603:	21 c2                	and    %eax,%edx
   13605:	48 8b 85 50 c6 ff ff 	mov    -0x39b0(%rbp),%rax
   1360c:	48 8b 00             	mov    (%rax),%rax
   1360f:	89 10                	mov    %edx,(%rax)
   13611:	c7 05 95 dd 00 00 0d 	movl   $0xd,0xdd95(%rip)        # 213b0 <g_742>
   13618:	00 00 00 
   1361b:	e9 80 00 00 00       	jmpq   136a0 <func_41+0x6c72>
   13620:	48 8d 85 e0 f7 ff ff 	lea    -0x820(%rbp),%rax
   13627:	48 8d 15 f2 8a 00 00 	lea    0x8af2(%rip),%rdx        # 1c120 <g_2454+0x1da8>
   1362e:	b9 fc 00 00 00       	mov    $0xfc,%ecx
   13633:	48 89 c7             	mov    %rax,%rdi
   13636:	48 89 d6             	mov    %rdx,%rsi
   13639:	f3 48 a5             	rep movsq %ds:(%rsi),%es:(%rdi)
   1363c:	c7 85 2c c5 ff ff 00 	movl   $0x0,-0x3ad4(%rbp)
   13643:	00 00 00 
   13646:	83 bd 2c c5 ff ff 0e 	cmpl   $0xe,-0x3ad4(%rbp)
   1364d:	74 31                	je     13680 <func_41+0x6c52>
   1364f:	48 c7 85 38 c7 ff ff 	movq   $0x0,-0x38c8(%rbp)
   13656:	00 00 00 00 
   1365a:	48 8b 85 40 fc ff ff 	mov    -0x3c0(%rbp),%rax
   13661:	48 85 c0             	test   %rax,%rax
   13664:	75 19                	jne    1367f <func_41+0x6c51>
   13666:	48 8b 85 38 c7 ff ff 	mov    -0x38c8(%rbp),%rax
   1366d:	48 89 05 84 2b 01 00 	mov    %rax,0x12b84(%rip)        # 261f8 <g_1412>
   13674:	8b 85 bc c4 ff ff    	mov    -0x3b44(%rbp),%eax
   1367a:	e9 34 16 00 00       	jmpq   14cb3 <func_41+0x8285>
   1367f:	90                   	nop
   13680:	48 8b 85 10 c6 ff ff 	mov    -0x39f0(%rbp),%rax
   13687:	48 8b 95 30 c7 ff ff 	mov    -0x38d0(%rbp),%rdx
   1368e:	48 89 10             	mov    %rdx,(%rax)
   13691:	8b 05 19 dd 00 00    	mov    0xdd19(%rip),%eax        # 213b0 <g_742>
   13697:	83 c0 01             	add    $0x1,%eax
   1369a:	89 05 10 dd 00 00    	mov    %eax,0xdd10(%rip)        # 213b0 <g_742>
   136a0:	8b 05 0a dd 00 00    	mov    0xdd0a(%rip),%eax        # 213b0 <g_742>
   136a6:	83 f8 19             	cmp    $0x19,%eax
   136a9:	0f 85 71 ff ff ff    	jne    13620 <func_41+0x6bf2>
   136af:	48 8b 05 aa 1c 01 00 	mov    0x11caa(%rip),%rax        # 25360 <g_1220>
   136b6:	8b 00                	mov    (%rax),%eax
   136b8:	e9 f6 15 00 00       	jmpq   14cb3 <func_41+0x8285>
   136bd:	48 8b 85 18 c7 ff ff 	mov    -0x38e8(%rbp),%rax
   136c4:	48 8b 00             	mov    (%rax),%rax
   136c7:	48 8b 10             	mov    (%rax),%rdx
   136ca:	48 8b 05 9f 1c 01 00 	mov    0x11c9f(%rip),%rax        # 25370 <g_1414>
   136d1:	48 8b 12             	mov    (%rdx),%rdx
   136d4:	48 89 10             	mov    %rdx,(%rax)
   136d7:	48 8b 85 18 c7 ff ff 	mov    -0x38e8(%rbp),%rax
   136de:	48 8b 00             	mov    (%rax),%rax
   136e1:	48 8b 00             	mov    (%rax),%rax
   136e4:	48 8b 00             	mov    (%rax),%rax
   136e7:	8b 00                	mov    (%rax),%eax
   136e9:	0f b7 d8             	movzwl %ax,%ebx
   136ec:	44 8b a5 bc c4 ff ff 	mov    -0x3b44(%rbp),%r12d
   136f3:	48 8b 05 a6 18 01 00 	mov    0x118a6(%rip),%rax        # 24fa0 <g_214>
   136fa:	0f b7 10             	movzwl (%rax),%edx
   136fd:	8d 4a ff             	lea    -0x1(%rdx),%ecx
   13700:	66 89 08             	mov    %cx,(%rax)
   13703:	44 0f b7 ea          	movzwl %dx,%r13d
   13707:	8b 85 bc c4 ff ff    	mov    -0x3b44(%rbp),%eax
   1370d:	25 fd 00 00 00       	and    $0xfd,%eax
   13712:	89 c2                	mov    %eax,%edx
   13714:	0f b7 05 cd d9 00 00 	movzwl 0xd9cd(%rip),%eax        # 210e8 <g_193>
   1371b:	98                   	cwtl   
   1371c:	89 d6                	mov    %edx,%esi
   1371e:	89 c7                	mov    %eax,%edi
   13720:	e8 00 78 ff ff       	callq  af25 <safe_div_func_uint32_t_u_u>
   13725:	89 c2                	mov    %eax,%edx
   13727:	8b 85 bc c4 ff ff    	mov    -0x3b44(%rbp),%eax
   1372d:	0f b7 c0             	movzwl %ax,%eax
   13730:	89 d6                	mov    %edx,%esi
   13732:	89 c7                	mov    %eax,%edi
   13734:	e8 cd 76 ff ff       	callq  ae06 <safe_lshift_func_uint16_t_u_u>
   13739:	44 0f b7 f0          	movzwl %ax,%r14d
   1373d:	48 8b 85 00 c6 ff ff 	mov    -0x3a00(%rbp),%rax
   13744:	8b 00                	mov    (%rax),%eax
   13746:	0f bf d0             	movswl %ax,%edx
   13749:	48 8b 05 60 dd 00 00 	mov    0xdd60(%rip),%rax        # 214b0 <g_1347+0x10>
   13750:	66 25 ff 03          	and    $0x3ff,%ax
   13754:	66 89 05 6d db 00 00 	mov    %ax,0xdb6d(%rip)        # 212c8 <g_434>
   1375b:	0f b7 05 66 db 00 00 	movzwl 0xdb66(%rip),%eax        # 212c8 <g_434>
   13762:	98                   	cwtl   
   13763:	89 d6                	mov    %edx,%esi
   13765:	89 c7                	mov    %eax,%edi
   13767:	e8 aa 6c ff ff       	callq  a416 <safe_mod_func_int16_t_s_s>
   1376c:	0f be c0             	movsbl %al,%eax
   1376f:	be 03 00 00 00       	mov    $0x3,%esi
   13774:	89 c7                	mov    %eax,%edi
   13776:	e8 26 6b ff ff       	callq  a2a1 <safe_lshift_func_int8_t_s_s>
   1377b:	0f be c0             	movsbl %al,%eax
   1377e:	89 c6                	mov    %eax,%esi
   13780:	bf 01 00 00 00       	mov    $0x1,%edi
   13785:	e8 2e 77 ff ff       	callq  aeb8 <safe_add_func_uint32_t_u_u>
   1378a:	41 39 c6             	cmp    %eax,%r14d
   1378d:	0f 95 c0             	setne  %al
   13790:	0f b6 d0             	movzbl %al,%edx
   13793:	8b 85 bc c4 ff ff    	mov    -0x3b44(%rbp),%eax
   13799:	39 c2                	cmp    %eax,%edx
   1379b:	0f 93 c0             	setae  %al
   1379e:	0f b6 c0             	movzbl %al,%eax
   137a1:	44 09 e8             	or     %r13d,%eax
   137a4:	85 c0                	test   %eax,%eax
   137a6:	75 0d                	jne    137b5 <func_41+0x6d87>
   137a8:	48 8b 85 30 c6 ff ff 	mov    -0x39d0(%rbp),%rax
   137af:	8b 00                	mov    (%rax),%eax
   137b1:	85 c0                	test   %eax,%eax
   137b3:	74 07                	je     137bc <func_41+0x6d8e>
   137b5:	b8 01 00 00 00       	mov    $0x1,%eax
   137ba:	eb 05                	jmp    137c1 <func_41+0x6d93>
   137bc:	b8 00 00 00 00       	mov    $0x0,%eax
   137c1:	89 c2                	mov    %eax,%edx
   137c3:	8b 85 bc c4 ff ff    	mov    -0x3b44(%rbp),%eax
   137c9:	39 c2                	cmp    %eax,%edx
   137cb:	44 89 e6             	mov    %r12d,%esi
   137ce:	bf 00 00 00 00       	mov    $0x0,%edi
   137d3:	e8 e0 76 ff ff       	callq  aeb8 <safe_add_func_uint32_t_u_u>
   137d8:	0f b7 c0             	movzwl %ax,%eax
   137db:	89 de                	mov    %ebx,%esi
   137dd:	89 c7                	mov    %eax,%edi
   137df:	e8 59 75 ff ff       	callq  ad3d <safe_mul_func_uint16_t_u_u>
   137e4:	48 8b 85 80 c6 ff ff 	mov    -0x3980(%rbp),%rax
   137eb:	c6 00 ff             	movb   $0xff,(%rax)
   137ee:	48 8b 85 80 c6 ff ff 	mov    -0x3980(%rbp),%rax
   137f5:	0f b6 00             	movzbl (%rax),%eax
   137f8:	3c 79                	cmp    $0x79,%al
   137fa:	0f 86 b2 13 00 00    	jbe    14bb2 <func_41+0x8184>
   13800:	c7 85 48 c6 ff ff 3b 	movl   $0xe86e663b,-0x39b8(%rbp)
   13807:	66 6e e8 
   1380a:	c7 85 10 ca ff ff 45 	movl   $0x3e273f45,-0x35f0(%rbp)
   13811:	3f 27 3e 
   13814:	c7 85 14 ca ff ff 45 	movl   $0x3e273f45,-0x35ec(%rbp)
   1381b:	3f 27 3e 
   1381e:	c7 85 18 ca ff ff 45 	movl   $0x3e273f45,-0x35e8(%rbp)
   13825:	3f 27 3e 
   13828:	c7 85 1c ca ff ff 45 	movl   $0x3e273f45,-0x35e4(%rbp)
   1382f:	3f 27 3e 
   13832:	c7 85 20 ca ff ff 45 	movl   $0x3e273f45,-0x35e0(%rbp)
   13839:	3f 27 3e 
   1383c:	c7 85 24 ca ff ff 61 	movl   $0x92999861,-0x35dc(%rbp)
   13843:	98 99 92 
   13846:	c7 85 28 ca ff ff b9 	movl   $0x37c5b0b9,-0x35d8(%rbp)
   1384d:	b0 c5 37 
   13850:	c7 85 2c ca ff ff 61 	movl   $0x92999861,-0x35d4(%rbp)
   13857:	98 99 92 
   1385a:	c7 85 30 ca ff ff b9 	movl   $0x37c5b0b9,-0x35d0(%rbp)
   13861:	b0 c5 37 
   13864:	c7 85 34 ca ff ff 61 	movl   $0x92999861,-0x35cc(%rbp)
   1386b:	98 99 92 
   1386e:	c7 85 38 ca ff ff 45 	movl   $0x3e273f45,-0x35c8(%rbp)
   13875:	3f 27 3e 
   13878:	c7 85 3c ca ff ff 45 	movl   $0x3e273f45,-0x35c4(%rbp)
   1387f:	3f 27 3e 
   13882:	c7 85 40 ca ff ff 45 	movl   $0x3e273f45,-0x35c0(%rbp)
   13889:	3f 27 3e 
   1388c:	c7 85 44 ca ff ff 45 	movl   $0x3e273f45,-0x35bc(%rbp)
   13893:	3f 27 3e 
   13896:	c7 85 48 ca ff ff 45 	movl   $0x3e273f45,-0x35b8(%rbp)
   1389d:	3f 27 3e 
   138a0:	c7 85 4c ca ff ff 61 	movl   $0x92999861,-0x35b4(%rbp)
   138a7:	98 99 92 
   138aa:	c7 85 50 ca ff ff b9 	movl   $0x37c5b0b9,-0x35b0(%rbp)
   138b1:	b0 c5 37 
   138b4:	c7 85 54 ca ff ff 61 	movl   $0x92999861,-0x35ac(%rbp)
   138bb:	98 99 92 
   138be:	c7 85 58 ca ff ff b9 	movl   $0x37c5b0b9,-0x35a8(%rbp)
   138c5:	b0 c5 37 
   138c8:	c7 85 5c ca ff ff 61 	movl   $0x92999861,-0x35a4(%rbp)
   138cf:	98 99 92 
   138d2:	c7 85 84 c5 ff ff 5b 	movl   $0x21b5c15b,-0x3a7c(%rbp)
   138d9:	c1 b5 21 
   138dc:	48 8d 85 20 c9 ff ff 	lea    -0x36e0(%rbp),%rax
   138e3:	48 83 c0 0c          	add    $0xc,%rax
   138e7:	48 89 85 a0 c7 ff ff 	mov    %rax,-0x3860(%rbp)
   138ee:	66 c7 85 e6 c4 ff ff 	movw   $0xc350,-0x3b1a(%rbp)
   138f5:	50 c3 
   138f7:	c7 85 88 c5 ff ff 4b 	movl   $0x15c7664b,-0x3a78(%rbp)
   138fe:	66 c7 15 
   13901:	48 b8 1c 93 d0 f5 f8 	movabs $0xe13acff8f5d0931c,%rax
   13908:	cf 3a e1 
   1390b:	48 89 85 a8 c7 ff ff 	mov    %rax,-0x3858(%rbp)
   13912:	48 8d 85 cd c4 ff ff 	lea    -0x3b33(%rbp),%rax
   13919:	48 89 85 b0 c7 ff ff 	mov    %rax,-0x3850(%rbp)
   13920:	48 8b 05 49 1a 01 00 	mov    0x11a49(%rip),%rax        # 25370 <g_1414>
   13927:	48 8b 10             	mov    (%rax),%rdx
   1392a:	48 8b 05 57 16 01 00 	mov    0x11657(%rip),%rax        # 24f88 <g_79>
   13931:	8b 12                	mov    (%rdx),%edx
   13933:	89 10                	mov    %edx,(%rax)
   13935:	8b 00                	mov    (%rax),%eax
   13937:	85 c0                	test   %eax,%eax
   13939:	0f 84 0d 02 00 00    	je     13b4c <func_41+0x711e>
   1393f:	c7 85 e0 f7 ff ff 05 	movl   $0x5,-0x820(%rbp)
   13946:	00 00 00 
   13949:	c7 85 e4 f7 ff ff 05 	movl   $0x5,-0x81c(%rbp)
   13950:	00 00 00 
   13953:	c7 85 e8 f7 ff ff 01 	movl   $0x1,-0x818(%rbp)
   1395a:	00 00 00 
   1395d:	c7 85 ec f7 ff ff c1 	movl   $0x4895fec1,-0x814(%rbp)
   13964:	fe 95 48 
   13967:	c7 85 f0 f7 ff ff c1 	movl   $0x4895fec1,-0x810(%rbp)
   1396e:	fe 95 48 
   13971:	c7 85 f4 f7 ff ff 61 	movl   $0x1ffa0661,-0x80c(%rbp)
   13978:	06 fa 1f 
   1397b:	c7 85 f8 f7 ff ff 05 	movl   $0x5,-0x808(%rbp)
   13982:	00 00 00 
   13985:	c7 85 fc f7 ff ff 05 	movl   $0x5,-0x804(%rbp)
   1398c:	00 00 00 
   1398f:	c7 85 00 f8 ff ff 01 	movl   $0x1,-0x800(%rbp)
   13996:	00 00 00 
   13999:	c7 85 04 f8 ff ff c1 	movl   $0x4895fec1,-0x7fc(%rbp)
   139a0:	fe 95 48 
   139a3:	c7 85 08 f8 ff ff c1 	movl   $0x4895fec1,-0x7f8(%rbp)
   139aa:	fe 95 48 
   139ad:	c7 85 0c f8 ff ff 61 	movl   $0x1ffa0661,-0x7f4(%rbp)
   139b4:	06 fa 1f 
   139b7:	c7 85 10 f8 ff ff 05 	movl   $0x5,-0x7f0(%rbp)
   139be:	00 00 00 
   139c1:	c7 85 14 f8 ff ff 05 	movl   $0x5,-0x7ec(%rbp)
   139c8:	00 00 00 
   139cb:	c7 85 18 f8 ff ff 01 	movl   $0x1,-0x7e8(%rbp)
   139d2:	00 00 00 
   139d5:	c7 85 1c f8 ff ff c1 	movl   $0x4895fec1,-0x7e4(%rbp)
   139dc:	fe 95 48 
   139df:	c7 85 20 f8 ff ff c1 	movl   $0x4895fec1,-0x7e0(%rbp)
   139e6:	fe 95 48 
   139e9:	c7 85 24 f8 ff ff 61 	movl   $0x1ffa0661,-0x7dc(%rbp)
   139f0:	06 fa 1f 
   139f3:	c7 85 28 f8 ff ff 05 	movl   $0x5,-0x7d8(%rbp)
   139fa:	00 00 00 
   139fd:	c7 85 2c f8 ff ff 05 	movl   $0x5,-0x7d4(%rbp)
   13a04:	00 00 00 
   13a07:	c7 85 30 f8 ff ff 05 	movl   $0x5,-0x7d0(%rbp)
   13a0e:	00 00 00 
   13a11:	c7 85 34 f8 ff ff 01 	movl   $0x1,-0x7cc(%rbp)
   13a18:	00 00 00 
   13a1b:	c7 85 38 f8 ff ff 01 	movl   $0x1,-0x7c8(%rbp)
   13a22:	00 00 00 
   13a25:	c7 85 3c f8 ff ff c1 	movl   $0x4895fec1,-0x7c4(%rbp)
   13a2c:	fe 95 48 
   13a2f:	c7 85 40 f8 ff ff 5e 	movl   $0x228b525e,-0x7c0(%rbp)
   13a36:	52 8b 22 
   13a39:	c7 85 44 f8 ff ff 5e 	movl   $0x228b525e,-0x7bc(%rbp)
   13a40:	52 8b 22 
   13a43:	c7 85 48 f8 ff ff 05 	movl   $0x5,-0x7b8(%rbp)
   13a4a:	00 00 00 
   13a4d:	c7 85 4c f8 ff ff 01 	movl   $0x1,-0x7b4(%rbp)
   13a54:	00 00 00 
   13a57:	c7 85 50 f8 ff ff 01 	movl   $0x1,-0x7b0(%rbp)
   13a5e:	00 00 00 
   13a61:	c7 85 54 f8 ff ff c1 	movl   $0x4895fec1,-0x7ac(%rbp)
   13a68:	fe 95 48 
   13a6b:	48 8d 85 08 c6 ff ff 	lea    -0x39f8(%rbp),%rax
   13a72:	48 89 85 60 c6 ff ff 	mov    %rax,-0x39a0(%rbp)
   13a79:	48 8d 85 60 c6 ff ff 	lea    -0x39a0(%rbp),%rax
   13a80:	48 89 85 e8 c7 ff ff 	mov    %rax,-0x3818(%rbp)
   13a87:	0f b6 05 43 d7 00 00 	movzbl 0xd743(%rip),%eax        # 211d1 <g_325+0x9>
   13a8e:	83 e0 c0             	and    $0xffffffc0,%eax
   13a91:	84 c0                	test   %al,%al
   13a93:	74 05                	je     13a9a <func_41+0x706c>
   13a95:	e9 ea ee ff ff       	jmpq   12984 <func_41+0x5f56>
   13a9a:	bf f9 2b 4c 76       	mov    $0x764c2bf9,%edi
   13a9f:	e8 f2 6a ff ff       	callq  a596 <safe_unary_minus_func_int32_t_s>
   13aa4:	89 c2                	mov    %eax,%edx
   13aa6:	48 8b 05 db 14 01 00 	mov    0x114db(%rip),%rax        # 24f88 <g_79>
   13aad:	8b 08                	mov    (%rax),%ecx
   13aaf:	31 ca                	xor    %ecx,%edx
   13ab1:	89 10                	mov    %edx,(%rax)
   13ab3:	83 85 84 c5 ff ff 01 	addl   $0x1,-0x3a7c(%rbp)
   13aba:	48 8b 05 bf d9 00 00 	mov    0xd9bf(%rip),%rax        # 21480 <g_1212>
   13ac1:	01 c0                	add    %eax,%eax
   13ac3:	d1 f8                	sar    %eax
   13ac5:	3d 04 42 00 00       	cmp    $0x4204,%eax
   13aca:	48 8b 85 e8 c7 ff ff 	mov    -0x3818(%rbp),%rax
   13ad1:	48 8d 95 08 c6 ff ff 	lea    -0x39f8(%rbp),%rdx
   13ad8:	48 89 10             	mov    %rdx,(%rax)
   13adb:	48 8b 85 e8 c7 ff ff 	mov    -0x3818(%rbp),%rax
   13ae2:	48 8b 00             	mov    (%rax),%rax
   13ae5:	48 39 85 b8 c6 ff ff 	cmp    %rax,-0x3948(%rbp)
   13aec:	74 45                	je     13b33 <func_41+0x7105>
   13aee:	48 8b 85 58 c6 ff ff 	mov    -0x39a8(%rbp),%rax
   13af5:	48 8b 08             	mov    (%rax),%rcx
   13af8:	48 8b 05 d1 d9 00 00 	mov    0xd9d1(%rip),%rax        # 214d0 <g_1445>
   13aff:	48 8b 15 d2 d9 00 00 	mov    0xd9d2(%rip),%rdx        # 214d8 <g_1445+0x8>
   13b06:	48 89 01             	mov    %rax,(%rcx)
   13b09:	48 89 51 08          	mov    %rdx,0x8(%rcx)
   13b0d:	8b 05 cd d9 00 00    	mov    0xd9cd(%rip),%eax        # 214e0 <g_1445+0x10>
   13b13:	89 41 10             	mov    %eax,0x10(%rcx)
   13b16:	48 8b 05 5b 17 01 00 	mov    0x1175b(%rip),%rax        # 25278 <g_347>
   13b1d:	48 c7 00 00 00 00 00 	movq   $0x0,(%rax)
   13b24:	48 8b 00             	mov    (%rax),%rax
   13b27:	48 89 85 a0 c7 ff ff 	mov    %rax,-0x3860(%rbp)
   13b2e:	e9 40 0f 00 00       	jmpq   14a73 <func_41+0x8045>
   13b33:	48 8b 15 3e 17 01 00 	mov    0x1173e(%rip),%rdx        # 25278 <g_347>
   13b3a:	48 8b 05 37 17 01 00 	mov    0x11737(%rip),%rax        # 25278 <g_347>
   13b41:	48 8b 12             	mov    (%rdx),%rdx
   13b44:	48 89 10             	mov    %rdx,(%rax)
   13b47:	e9 27 0f 00 00       	jmpq   14a73 <func_41+0x8045>
   13b4c:	48 c7 85 b8 c7 ff ff 	movq   $0xfffffffffffffffc,-0x3848(%rbp)
   13b53:	fc ff ff ff 
   13b57:	48 8d 85 c0 cd ff ff 	lea    -0x3240(%rbp),%rax
   13b5e:	48 8d 15 9b 8d 00 00 	lea    0x8d9b(%rip),%rdx        # 1c900 <g_2454+0x2588>
   13b65:	b9 32 00 00 00       	mov    $0x32,%ecx
   13b6a:	48 89 c7             	mov    %rax,%rdi
   13b6d:	48 89 d6             	mov    %rdx,%rsi
   13b70:	f3 48 a5             	rep movsq %ds:(%rsi),%es:(%rdi)
   13b73:	c6 85 d5 c4 ff ff b9 	movb   $0xb9,-0x3b2b(%rbp)
   13b7a:	48 8d 85 e0 f7 ff ff 	lea    -0x820(%rbp),%rax
   13b81:	48 8d 15 58 f9 00 00 	lea    0xf958(%rip),%rdx        # 234e0 <g_2477+0x1320>
   13b88:	b9 fc 00 00 00       	mov    $0xfc,%ecx
   13b8d:	48 89 c7             	mov    %rax,%rdi
   13b90:	48 89 d6             	mov    %rdx,%rsi
   13b93:	f3 48 a5             	rep movsq %ds:(%rsi),%es:(%rdi)
   13b96:	48 8d 85 48 c6 ff ff 	lea    -0x39b8(%rbp),%rax
   13b9d:	48 89 85 60 c6 ff ff 	mov    %rax,-0x39a0(%rbp)
   13ba4:	48 c7 85 c0 c7 ff ff 	movq   $0x0,-0x3840(%rbp)
   13bab:	00 00 00 00 
   13baf:	48 8d 05 c2 16 01 00 	lea    0x116c2(%rip),%rax        # 25278 <g_347>
   13bb6:	48 89 85 50 d1 ff ff 	mov    %rax,-0x2eb0(%rbp)
   13bbd:	48 c7 85 58 d1 ff ff 	movq   $0x0,-0x2ea8(%rbp)
   13bc4:	00 00 00 00 
   13bc8:	48 8d 85 10 c6 ff ff 	lea    -0x39f0(%rbp),%rax
   13bcf:	48 89 85 60 d1 ff ff 	mov    %rax,-0x2ea0(%rbp)
   13bd6:	48 c7 85 68 d1 ff ff 	movq   $0x0,-0x2e98(%rbp)
   13bdd:	00 00 00 00 
   13be1:	48 8d 05 90 16 01 00 	lea    0x11690(%rip),%rax        # 25278 <g_347>
   13be8:	48 89 85 70 d1 ff ff 	mov    %rax,-0x2e90(%rbp)
   13bef:	48 c7 85 78 d1 ff ff 	movq   $0x0,-0x2e88(%rbp)
   13bf6:	00 00 00 00 
   13bfa:	48 8d 05 77 16 01 00 	lea    0x11677(%rip),%rax        # 25278 <g_347>
   13c01:	48 89 85 80 d1 ff ff 	mov    %rax,-0x2e80(%rbp)
   13c08:	48 8d 05 69 16 01 00 	lea    0x11669(%rip),%rax        # 25278 <g_347>
   13c0f:	48 89 85 88 d1 ff ff 	mov    %rax,-0x2e78(%rbp)
   13c16:	48 8d 05 5b 16 01 00 	lea    0x1165b(%rip),%rax        # 25278 <g_347>
   13c1d:	48 89 85 90 d1 ff ff 	mov    %rax,-0x2e70(%rbp)
   13c24:	48 c7 85 98 d1 ff ff 	movq   $0x0,-0x2e68(%rbp)
   13c2b:	00 00 00 00 
   13c2f:	48 8d 05 42 16 01 00 	lea    0x11642(%rip),%rax        # 25278 <g_347>
   13c36:	48 89 85 a0 d1 ff ff 	mov    %rax,-0x2e60(%rbp)
   13c3d:	48 c7 85 a8 d1 ff ff 	movq   $0x0,-0x2e58(%rbp)
   13c44:	00 00 00 00 
   13c48:	48 8d 85 10 c6 ff ff 	lea    -0x39f0(%rbp),%rax
   13c4f:	48 89 85 b0 d1 ff ff 	mov    %rax,-0x2e50(%rbp)
   13c56:	48 c7 85 b8 d1 ff ff 	movq   $0x0,-0x2e48(%rbp)
   13c5d:	00 00 00 00 
   13c61:	48 8d 05 10 16 01 00 	lea    0x11610(%rip),%rax        # 25278 <g_347>
   13c68:	48 89 85 c0 d1 ff ff 	mov    %rax,-0x2e40(%rbp)
   13c6f:	48 c7 85 c8 d1 ff ff 	movq   $0x0,-0x2e38(%rbp)
   13c76:	00 00 00 00 
   13c7a:	48 8d 05 f7 15 01 00 	lea    0x115f7(%rip),%rax        # 25278 <g_347>
   13c81:	48 89 85 d0 d1 ff ff 	mov    %rax,-0x2e30(%rbp)
   13c88:	48 8d 05 e9 15 01 00 	lea    0x115e9(%rip),%rax        # 25278 <g_347>
   13c8f:	48 89 85 d8 d1 ff ff 	mov    %rax,-0x2e28(%rbp)
   13c96:	48 8d 05 db 15 01 00 	lea    0x115db(%rip),%rax        # 25278 <g_347>
   13c9d:	48 89 85 e0 d1 ff ff 	mov    %rax,-0x2e20(%rbp)
   13ca4:	48 8d 05 cd 15 01 00 	lea    0x115cd(%rip),%rax        # 25278 <g_347>
   13cab:	48 89 85 e8 d1 ff ff 	mov    %rax,-0x2e18(%rbp)
   13cb2:	48 c7 85 f0 d1 ff ff 	movq   $0x0,-0x2e10(%rbp)
   13cb9:	00 00 00 00 
   13cbd:	48 8d 05 b4 15 01 00 	lea    0x115b4(%rip),%rax        # 25278 <g_347>
   13cc4:	48 89 85 f8 d1 ff ff 	mov    %rax,-0x2e08(%rbp)
   13ccb:	48 8d 05 a6 15 01 00 	lea    0x115a6(%rip),%rax        # 25278 <g_347>
   13cd2:	48 89 85 00 d2 ff ff 	mov    %rax,-0x2e00(%rbp)
   13cd9:	48 8d 05 98 15 01 00 	lea    0x11598(%rip),%rax        # 25278 <g_347>
   13ce0:	48 89 85 08 d2 ff ff 	mov    %rax,-0x2df8(%rbp)
   13ce7:	48 c7 85 10 d2 ff ff 	movq   $0x0,-0x2df0(%rbp)
   13cee:	00 00 00 00 
   13cf2:	48 8d 05 7f 15 01 00 	lea    0x1157f(%rip),%rax        # 25278 <g_347>
   13cf9:	48 89 85 18 d2 ff ff 	mov    %rax,-0x2de8(%rbp)
   13d00:	48 8d 05 71 15 01 00 	lea    0x11571(%rip),%rax        # 25278 <g_347>
   13d07:	48 89 85 20 d2 ff ff 	mov    %rax,-0x2de0(%rbp)
   13d0e:	48 8d 05 63 15 01 00 	lea    0x11563(%rip),%rax        # 25278 <g_347>
   13d15:	48 89 85 28 d2 ff ff 	mov    %rax,-0x2dd8(%rbp)
   13d1c:	48 8d 05 55 15 01 00 	lea    0x11555(%rip),%rax        # 25278 <g_347>
   13d23:	48 89 85 30 d2 ff ff 	mov    %rax,-0x2dd0(%rbp)
   13d2a:	48 8d 05 47 15 01 00 	lea    0x11547(%rip),%rax        # 25278 <g_347>
   13d31:	48 89 85 38 d2 ff ff 	mov    %rax,-0x2dc8(%rbp)
   13d38:	48 c7 85 40 d2 ff ff 	movq   $0x0,-0x2dc0(%rbp)
   13d3f:	00 00 00 00 
   13d43:	48 8d 05 2e 15 01 00 	lea    0x1152e(%rip),%rax        # 25278 <g_347>
   13d4a:	48 89 85 48 d2 ff ff 	mov    %rax,-0x2db8(%rbp)
   13d51:	48 8d 05 20 15 01 00 	lea    0x11520(%rip),%rax        # 25278 <g_347>
   13d58:	48 89 85 50 d2 ff ff 	mov    %rax,-0x2db0(%rbp)
   13d5f:	48 8d 05 12 15 01 00 	lea    0x11512(%rip),%rax        # 25278 <g_347>
   13d66:	48 89 85 58 d2 ff ff 	mov    %rax,-0x2da8(%rbp)
   13d6d:	48 c7 85 60 d2 ff ff 	movq   $0x0,-0x2da0(%rbp)
   13d74:	00 00 00 00 
   13d78:	48 8d 05 f9 14 01 00 	lea    0x114f9(%rip),%rax        # 25278 <g_347>
   13d7f:	48 89 85 68 d2 ff ff 	mov    %rax,-0x2d98(%rbp)
   13d86:	48 8d 05 eb 14 01 00 	lea    0x114eb(%rip),%rax        # 25278 <g_347>
   13d8d:	48 89 85 70 d2 ff ff 	mov    %rax,-0x2d90(%rbp)
   13d94:	48 8d 05 dd 14 01 00 	lea    0x114dd(%rip),%rax        # 25278 <g_347>
   13d9b:	48 89 85 78 d2 ff ff 	mov    %rax,-0x2d88(%rbp)
   13da2:	48 8d 05 cf 14 01 00 	lea    0x114cf(%rip),%rax        # 25278 <g_347>
   13da9:	48 89 85 80 d2 ff ff 	mov    %rax,-0x2d80(%rbp)
   13db0:	48 8d 05 c1 14 01 00 	lea    0x114c1(%rip),%rax        # 25278 <g_347>
   13db7:	48 89 85 88 d2 ff ff 	mov    %rax,-0x2d78(%rbp)
   13dbe:	48 c7 85 90 d2 ff ff 	movq   $0x0,-0x2d70(%rbp)
   13dc5:	00 00 00 00 
   13dc9:	48 8d 05 a8 14 01 00 	lea    0x114a8(%rip),%rax        # 25278 <g_347>
   13dd0:	48 89 85 98 d2 ff ff 	mov    %rax,-0x2d68(%rbp)
   13dd7:	48 8d 05 9a 14 01 00 	lea    0x1149a(%rip),%rax        # 25278 <g_347>
   13dde:	48 89 85 a0 d2 ff ff 	mov    %rax,-0x2d60(%rbp)
   13de5:	48 8d 05 8c 14 01 00 	lea    0x1148c(%rip),%rax        # 25278 <g_347>
   13dec:	48 89 85 a8 d2 ff ff 	mov    %rax,-0x2d58(%rbp)
   13df3:	48 c7 85 b0 d2 ff ff 	movq   $0x0,-0x2d50(%rbp)
   13dfa:	00 00 00 00 
   13dfe:	48 8d 05 73 14 01 00 	lea    0x11473(%rip),%rax        # 25278 <g_347>
   13e05:	48 89 85 b8 d2 ff ff 	mov    %rax,-0x2d48(%rbp)
   13e0c:	48 8d 05 65 14 01 00 	lea    0x11465(%rip),%rax        # 25278 <g_347>
   13e13:	48 89 85 c0 d2 ff ff 	mov    %rax,-0x2d40(%rbp)
   13e1a:	48 8d 05 57 14 01 00 	lea    0x11457(%rip),%rax        # 25278 <g_347>
   13e21:	48 89 85 c8 d2 ff ff 	mov    %rax,-0x2d38(%rbp)
   13e28:	48 8d 05 49 14 01 00 	lea    0x11449(%rip),%rax        # 25278 <g_347>
   13e2f:	48 89 85 d0 d2 ff ff 	mov    %rax,-0x2d30(%rbp)
   13e36:	48 8d 05 3b 14 01 00 	lea    0x1143b(%rip),%rax        # 25278 <g_347>
   13e3d:	48 89 85 d8 d2 ff ff 	mov    %rax,-0x2d28(%rbp)
   13e44:	48 c7 85 e0 d2 ff ff 	movq   $0x0,-0x2d20(%rbp)
   13e4b:	00 00 00 00 
   13e4f:	48 8d 05 22 14 01 00 	lea    0x11422(%rip),%rax        # 25278 <g_347>
   13e56:	48 89 85 e8 d2 ff ff 	mov    %rax,-0x2d18(%rbp)
   13e5d:	48 8d 05 14 14 01 00 	lea    0x11414(%rip),%rax        # 25278 <g_347>
   13e64:	48 89 85 f0 d2 ff ff 	mov    %rax,-0x2d10(%rbp)
   13e6b:	48 8d 05 06 14 01 00 	lea    0x11406(%rip),%rax        # 25278 <g_347>
   13e72:	48 89 85 f8 d2 ff ff 	mov    %rax,-0x2d08(%rbp)
   13e79:	48 c7 85 00 d3 ff ff 	movq   $0x0,-0x2d00(%rbp)
   13e80:	00 00 00 00 
   13e84:	48 8d 05 ed 13 01 00 	lea    0x113ed(%rip),%rax        # 25278 <g_347>
   13e8b:	48 89 85 08 d3 ff ff 	mov    %rax,-0x2cf8(%rbp)
   13e92:	48 8d 05 df 13 01 00 	lea    0x113df(%rip),%rax        # 25278 <g_347>
   13e99:	48 89 85 10 d3 ff ff 	mov    %rax,-0x2cf0(%rbp)
   13ea0:	48 8d 05 d1 13 01 00 	lea    0x113d1(%rip),%rax        # 25278 <g_347>
   13ea7:	48 89 85 18 d3 ff ff 	mov    %rax,-0x2ce8(%rbp)
   13eae:	48 8d 05 c3 13 01 00 	lea    0x113c3(%rip),%rax        # 25278 <g_347>
   13eb5:	48 89 85 20 d3 ff ff 	mov    %rax,-0x2ce0(%rbp)
   13ebc:	48 8d 05 b5 13 01 00 	lea    0x113b5(%rip),%rax        # 25278 <g_347>
   13ec3:	48 89 85 28 d3 ff ff 	mov    %rax,-0x2cd8(%rbp)
   13eca:	48 c7 85 30 d3 ff ff 	movq   $0x0,-0x2cd0(%rbp)
   13ed1:	00 00 00 00 
   13ed5:	48 8d 05 9c 13 01 00 	lea    0x1139c(%rip),%rax        # 25278 <g_347>
   13edc:	48 89 85 38 d3 ff ff 	mov    %rax,-0x2cc8(%rbp)
   13ee3:	48 8d 05 8e 13 01 00 	lea    0x1138e(%rip),%rax        # 25278 <g_347>
   13eea:	48 89 85 40 d3 ff ff 	mov    %rax,-0x2cc0(%rbp)
   13ef1:	48 8d 05 80 13 01 00 	lea    0x11380(%rip),%rax        # 25278 <g_347>
   13ef8:	48 89 85 48 d3 ff ff 	mov    %rax,-0x2cb8(%rbp)
   13eff:	48 c7 85 50 d3 ff ff 	movq   $0x0,-0x2cb0(%rbp)
   13f06:	00 00 00 00 
   13f0a:	48 8d 05 67 13 01 00 	lea    0x11367(%rip),%rax        # 25278 <g_347>
   13f11:	48 89 85 58 d3 ff ff 	mov    %rax,-0x2ca8(%rbp)
   13f18:	48 8d 05 59 13 01 00 	lea    0x11359(%rip),%rax        # 25278 <g_347>
   13f1f:	48 89 85 60 d3 ff ff 	mov    %rax,-0x2ca0(%rbp)
   13f26:	48 8d 05 4b 13 01 00 	lea    0x1134b(%rip),%rax        # 25278 <g_347>
   13f2d:	48 89 85 68 d3 ff ff 	mov    %rax,-0x2c98(%rbp)
   13f34:	48 8d 05 3d 13 01 00 	lea    0x1133d(%rip),%rax        # 25278 <g_347>
   13f3b:	48 89 85 70 d3 ff ff 	mov    %rax,-0x2c90(%rbp)
   13f42:	48 8d 05 2f 13 01 00 	lea    0x1132f(%rip),%rax        # 25278 <g_347>
   13f49:	48 89 85 78 d3 ff ff 	mov    %rax,-0x2c88(%rbp)
   13f50:	48 c7 85 80 d3 ff ff 	movq   $0x0,-0x2c80(%rbp)
   13f57:	00 00 00 00 
   13f5b:	48 8d 05 16 13 01 00 	lea    0x11316(%rip),%rax        # 25278 <g_347>
   13f62:	48 89 85 88 d3 ff ff 	mov    %rax,-0x2c78(%rbp)
   13f69:	48 8d 05 08 13 01 00 	lea    0x11308(%rip),%rax        # 25278 <g_347>
   13f70:	48 89 85 90 d3 ff ff 	mov    %rax,-0x2c70(%rbp)
   13f77:	48 8d 05 fa 12 01 00 	lea    0x112fa(%rip),%rax        # 25278 <g_347>
   13f7e:	48 89 85 98 d3 ff ff 	mov    %rax,-0x2c68(%rbp)
   13f85:	48 c7 85 a0 d3 ff ff 	movq   $0x0,-0x2c60(%rbp)
   13f8c:	00 00 00 00 
   13f90:	48 8d 05 e1 12 01 00 	lea    0x112e1(%rip),%rax        # 25278 <g_347>
   13f97:	48 89 85 a8 d3 ff ff 	mov    %rax,-0x2c58(%rbp)
   13f9e:	48 8d 05 d3 12 01 00 	lea    0x112d3(%rip),%rax        # 25278 <g_347>
   13fa5:	48 89 85 b0 d3 ff ff 	mov    %rax,-0x2c50(%rbp)
   13fac:	48 8d 05 c5 12 01 00 	lea    0x112c5(%rip),%rax        # 25278 <g_347>
   13fb3:	48 89 85 b8 d3 ff ff 	mov    %rax,-0x2c48(%rbp)
   13fba:	48 8d 05 b7 12 01 00 	lea    0x112b7(%rip),%rax        # 25278 <g_347>
   13fc1:	48 89 85 c0 d3 ff ff 	mov    %rax,-0x2c40(%rbp)
   13fc8:	48 8d 05 a9 12 01 00 	lea    0x112a9(%rip),%rax        # 25278 <g_347>
   13fcf:	48 89 85 c8 d3 ff ff 	mov    %rax,-0x2c38(%rbp)
   13fd6:	48 c7 85 d0 d3 ff ff 	movq   $0x0,-0x2c30(%rbp)
   13fdd:	00 00 00 00 
   13fe1:	48 8d 05 90 12 01 00 	lea    0x11290(%rip),%rax        # 25278 <g_347>
   13fe8:	48 89 85 d8 d3 ff ff 	mov    %rax,-0x2c28(%rbp)
   13fef:	48 8d 05 82 12 01 00 	lea    0x11282(%rip),%rax        # 25278 <g_347>
   13ff6:	48 89 85 e0 d3 ff ff 	mov    %rax,-0x2c20(%rbp)
   13ffd:	48 8d 05 74 12 01 00 	lea    0x11274(%rip),%rax        # 25278 <g_347>
   14004:	48 89 85 e8 d3 ff ff 	mov    %rax,-0x2c18(%rbp)
   1400b:	48 c7 85 f0 d3 ff ff 	movq   $0x0,-0x2c10(%rbp)
   14012:	00 00 00 00 
   14016:	48 8d 05 5b 12 01 00 	lea    0x1125b(%rip),%rax        # 25278 <g_347>
   1401d:	48 89 85 f8 d3 ff ff 	mov    %rax,-0x2c08(%rbp)
   14024:	48 8d 05 4d 12 01 00 	lea    0x1124d(%rip),%rax        # 25278 <g_347>
   1402b:	48 89 85 00 d4 ff ff 	mov    %rax,-0x2c00(%rbp)
   14032:	48 8d 05 3f 12 01 00 	lea    0x1123f(%rip),%rax        # 25278 <g_347>
   14039:	48 89 85 08 d4 ff ff 	mov    %rax,-0x2bf8(%rbp)
   14040:	48 8d 05 31 12 01 00 	lea    0x11231(%rip),%rax        # 25278 <g_347>
   14047:	48 89 85 10 d4 ff ff 	mov    %rax,-0x2bf0(%rbp)
   1404e:	48 8d 05 23 12 01 00 	lea    0x11223(%rip),%rax        # 25278 <g_347>
   14055:	48 89 85 18 d4 ff ff 	mov    %rax,-0x2be8(%rbp)
   1405c:	8b 85 bc c4 ff ff    	mov    -0x3b44(%rbp),%eax
   14062:	c6 05 ec cf 00 00 00 	movb   $0x0,0xcfec(%rip)        # 21055 <g_57+0x1>
   14069:	89 c6                	mov    %eax,%esi
   1406b:	bf 00 00 00 00       	mov    $0x0,%edi
   14070:	e8 c0 62 ff ff       	callq  a335 <safe_rshift_func_int8_t_s_s>
   14075:	44 0f be f0          	movsbl %al,%r14d
   14079:	8b 85 bc c4 ff ff    	mov    -0x3b44(%rbp),%eax
   1407f:	85 c0                	test   %eax,%eax
   14081:	0f 85 f2 00 00 00    	jne    14179 <func_41+0x774b>
   14087:	48 8b 85 b8 c7 ff ff 	mov    -0x3848(%rbp),%rax
   1408e:	0f b6 d8             	movzbl %al,%ebx
   14091:	8b 85 bc c4 ff ff    	mov    -0x3b44(%rbp),%eax
   14097:	44 0f b6 e0          	movzbl %al,%r12d
   1409b:	48 8b 85 b8 c6 ff ff 	mov    -0x3948(%rbp),%rax
   140a2:	48 8b 00             	mov    (%rax),%rax
   140a5:	48 8b 00             	mov    (%rax),%rax
   140a8:	0f b7 10             	movzwl (%rax),%edx
   140ab:	83 c2 01             	add    $0x1,%edx
   140ae:	66 89 10             	mov    %dx,(%rax)
   140b1:	be 04 00 00 00       	mov    $0x4,%esi
   140b6:	bf 1e 00 00 00       	mov    $0x1e,%edi
   140bb:	e8 45 6b ff ff       	callq  ac05 <safe_lshift_func_uint8_t_u_s>
   140c0:	0f b6 d0             	movzbl %al,%edx
   140c3:	8b 85 bc c4 ff ff    	mov    -0x3b44(%rbp),%eax
   140c9:	89 d6                	mov    %edx,%esi
   140cb:	89 c7                	mov    %eax,%edi
   140cd:	e8 53 6e ff ff       	callq  af25 <safe_div_func_uint32_t_u_u>
   140d2:	41 89 c5             	mov    %eax,%r13d
   140d5:	48 8b 85 a0 c7 ff ff 	mov    -0x3860(%rbp),%rax
   140dc:	8b 00                	mov    (%rax),%eax
   140de:	48 98                	cltq   
   140e0:	48 89 05 b1 cf 00 00 	mov    %rax,0xcfb1(%rip)        # 21098 <g_68+0x38>
   140e7:	48 8b 05 aa cf 00 00 	mov    0xcfaa(%rip),%rax        # 21098 <g_68+0x38>
   140ee:	48 89 c2             	mov    %rax,%rdx
   140f1:	b8 96 09 00 00       	mov    $0x996,%eax
   140f6:	89 c0                	mov    %eax,%eax
   140f8:	48 89 d6             	mov    %rdx,%rsi
   140fb:	48 89 c7             	mov    %rax,%rdi
   140fe:	e8 a5 67 ff ff       	callq  a8a8 <safe_sub_func_int64_t_s_s>
   14103:	8b 85 bc c4 ff ff    	mov    -0x3b44(%rbp),%eax
   14109:	83 f0 01             	xor    $0x1,%eax
   1410c:	89 c2                	mov    %eax,%edx
   1410e:	48 8b 05 73 0e 01 00 	mov    0x10e73(%rip),%rax        # 24f88 <g_79>
   14115:	89 10                	mov    %edx,(%rax)
   14117:	8b 00                	mov    (%rax),%eax
   14119:	89 c2                	mov    %eax,%edx
   1411b:	8b 85 bc c4 ff ff    	mov    -0x3b44(%rbp),%eax
   14121:	09 c2                	or     %eax,%edx
   14123:	8b 85 bc c4 ff ff    	mov    -0x3b44(%rbp),%eax
   14129:	39 c2                	cmp    %eax,%edx
   1412b:	0f 93 c0             	setae  %al
   1412e:	0f b6 c0             	movzbl %al,%eax
   14131:	44 21 e8             	and    %r13d,%eax
   14134:	85 c0                	test   %eax,%eax
   14136:	74 07                	je     1413f <func_41+0x7711>
   14138:	b8 01 00 00 00       	mov    $0x1,%eax
   1413d:	eb 05                	jmp    14144 <func_41+0x7716>
   1413f:	b8 00 00 00 00       	mov    $0x0,%eax
   14144:	89 c2                	mov    %eax,%edx
   14146:	48 8b 85 b8 c7 ff ff 	mov    -0x3848(%rbp),%rax
   1414d:	21 d0                	and    %edx,%eax
   1414f:	98                   	cwtl   
   14150:	be 03 00 00 00       	mov    $0x3,%esi
   14155:	89 c7                	mov    %eax,%edi
   14157:	e8 07 64 ff ff       	callq  a563 <safe_rshift_func_int16_t_s_u>
   1415c:	44 89 e6             	mov    %r12d,%esi
   1415f:	bf 01 00 00 00       	mov    $0x1,%edi
   14164:	e8 0f 6a ff ff       	callq  ab78 <safe_sub_func_uint8_t_u_u>
   14169:	0f b6 c0             	movzbl %al,%eax
   1416c:	89 de                	mov    %ebx,%esi
   1416e:	89 c7                	mov    %eax,%edi
   14170:	e8 1e 6a ff ff       	callq  ab93 <safe_mul_func_uint8_t_u_u>
   14175:	84 c0                	test   %al,%al
   14177:	74 07                	je     14180 <func_41+0x7752>
   14179:	b8 01 00 00 00       	mov    $0x1,%eax
   1417e:	eb 05                	jmp    14185 <func_41+0x7757>
   14180:	b8 00 00 00 00       	mov    $0x0,%eax
   14185:	48 63 d0             	movslq %eax,%rdx
   14188:	48 8b 05 a9 ce 00 00 	mov    0xcea9(%rip),%rax        # 21038 <g_38>
   1418f:	48 31 d0             	xor    %rdx,%rax
   14192:	48 89 05 9f ce 00 00 	mov    %rax,0xce9f(%rip)        # 21038 <g_38>
   14199:	48 8b 05 98 ce 00 00 	mov    0xce98(%rip),%rax        # 21038 <g_38>
   141a0:	48 85 c0             	test   %rax,%rax
   141a3:	74 07                	je     141ac <func_41+0x777e>
   141a5:	b8 01 00 00 00       	mov    $0x1,%eax
   141aa:	eb 05                	jmp    141b1 <func_41+0x7783>
   141ac:	b8 00 00 00 00       	mov    $0x0,%eax
   141b1:	44 09 f0             	or     %r14d,%eax
   141b4:	85 c0                	test   %eax,%eax
   141b6:	0f 84 3c 01 00 00    	je     142f8 <func_41+0x78ca>
   141bc:	c7 85 94 c5 ff ff 01 	movl   $0x1,-0x3a6c(%rbp)
   141c3:	00 00 00 
   141c6:	c7 85 98 c5 ff ff d9 	movl   $0x696ecfd9,-0x3a68(%rbp)
   141cd:	cf 6e 69 
   141d0:	c7 85 9c c5 ff ff 07 	movl   $0x7,-0x3a64(%rbp)
   141d7:	00 00 00 
   141da:	c7 85 a0 c5 ff ff ff 	movl   $0xffffffff,-0x3a60(%rbp)
   141e1:	ff ff ff 
   141e4:	c7 85 a4 c5 ff ff e9 	movl   $0x20aa1ee9,-0x3a5c(%rbp)
   141eb:	1e aa 20 
   141ee:	c7 85 a8 c5 ff ff 01 	movl   $0x1,-0x3a58(%rbp)
   141f5:	00 00 00 
   141f8:	c7 85 c0 c9 ff ff 05 	movl   $0x5,-0x3640(%rbp)
   141ff:	00 00 00 
   14202:	c7 85 c4 c9 ff ff 7c 	movl   $0xd73e4c7c,-0x363c(%rbp)
   14209:	4c 3e d7 
   1420c:	c7 85 c8 c9 ff ff 7c 	movl   $0xd73e4c7c,-0x3638(%rbp)
   14213:	4c 3e d7 
   14216:	c7 85 cc c9 ff ff 05 	movl   $0x5,-0x3634(%rbp)
   1421d:	00 00 00 
   14220:	c7 85 d0 c9 ff ff 7c 	movl   $0xd73e4c7c,-0x3630(%rbp)
   14227:	4c 3e d7 
   1422a:	c7 85 d4 c9 ff ff 7c 	movl   $0xd73e4c7c,-0x362c(%rbp)
   14231:	4c 3e d7 
   14234:	c7 85 d8 c9 ff ff 05 	movl   $0x5,-0x3628(%rbp)
   1423b:	00 00 00 
   1423e:	c7 85 dc c9 ff ff 7c 	movl   $0xd73e4c7c,-0x3624(%rbp)
   14245:	4c 3e d7 
   14248:	c7 85 e0 c9 ff ff 7c 	movl   $0xd73e4c7c,-0x3620(%rbp)
   1424f:	4c 3e d7 
   14252:	c7 85 e4 c9 ff ff 05 	movl   $0x5,-0x361c(%rbp)
   14259:	00 00 00 
   1425c:	c7 85 e8 c9 ff ff 7c 	movl   $0xd73e4c7c,-0x3618(%rbp)
   14263:	4c 3e d7 
   14266:	c7 85 ec c9 ff ff 7c 	movl   $0xd73e4c7c,-0x3614(%rbp)
   1426d:	4c 3e d7 
   14270:	c7 85 f0 c9 ff ff 05 	movl   $0x5,-0x3610(%rbp)
   14277:	00 00 00 
   1427a:	c7 85 f4 c9 ff ff 7c 	movl   $0xd73e4c7c,-0x360c(%rbp)
   14281:	4c 3e d7 
   14284:	c7 85 f8 c9 ff ff 7c 	movl   $0xd73e4c7c,-0x3608(%rbp)
   1428b:	4c 3e d7 
   1428e:	c7 85 fc c9 ff ff 05 	movl   $0x5,-0x3604(%rbp)
   14295:	00 00 00 
   14298:	c7 85 00 ca ff ff 7c 	movl   $0xd73e4c7c,-0x3600(%rbp)
   1429f:	4c 3e d7 
   142a2:	c7 85 04 ca ff ff 7c 	movl   $0xd73e4c7c,-0x35fc(%rbp)
   142a9:	4c 3e d7 
   142ac:	48 8b 85 58 c6 ff ff 	mov    -0x39a8(%rbp),%rax
   142b3:	48 8b 08             	mov    (%rax),%rcx
   142b6:	48 8b 05 53 d2 00 00 	mov    0xd253(%rip),%rax        # 21510 <g_1465>
   142bd:	48 8b 15 54 d2 00 00 	mov    0xd254(%rip),%rdx        # 21518 <g_1465+0x8>
   142c4:	48 89 01             	mov    %rax,(%rcx)
   142c7:	48 89 51 08          	mov    %rdx,0x8(%rcx)
   142cb:	8b 05 4f d2 00 00    	mov    0xd24f(%rip),%eax        # 21520 <g_1465+0x10>
   142d1:	89 41 10             	mov    %eax,0x10(%rcx)
   142d4:	0f b6 85 d5 c4 ff ff 	movzbl -0x3b2b(%rbp),%eax
   142db:	83 c0 01             	add    $0x1,%eax
   142de:	88 85 d5 c4 ff ff    	mov    %al,-0x3b2b(%rbp)
   142e4:	8b 85 c8 c9 ff ff    	mov    -0x3638(%rbp),%eax
   142ea:	83 c0 01             	add    $0x1,%eax
   142ed:	89 85 c8 c9 ff ff    	mov    %eax,-0x3638(%rbp)
   142f3:	e9 4a 02 00 00       	jmpq   14542 <func_41+0x7b14>
   142f8:	c7 85 8c c5 ff ff ff 	movl   $0xffffffff,-0x3a74(%rbp)
   142ff:	ff ff ff 
   14302:	c7 85 90 c5 ff ff b6 	movl   $0x104b07b6,-0x3a70(%rbp)
   14309:	07 4b 10 
   1430c:	c6 85 d6 c4 ff ff ff 	movb   $0xff,-0x3b2a(%rbp)
   14313:	48 8d 05 a6 d0 00 00 	lea    0xd0a6(%rip),%rax        # 213c0 <g_846>
   1431a:	48 89 85 c8 c7 ff ff 	mov    %rax,-0x3838(%rbp)
   14321:	48 8d 85 40 c9 ff ff 	lea    -0x36c0(%rbp),%rax
   14328:	48 83 c0 08          	add    $0x8,%rax
   1432c:	48 89 85 d0 c7 ff ff 	mov    %rax,-0x3830(%rbp)
   14333:	48 8d 05 8e 1e 01 00 	lea    0x11e8e(%rip),%rax        # 261c8 <g_132>
   1433a:	48 89 85 d8 c7 ff ff 	mov    %rax,-0x3828(%rbp)
   14341:	48 8b 85 58 c6 ff ff 	mov    -0x39a8(%rbp),%rax
   14348:	48 8b 30             	mov    (%rax),%rsi
   1434b:	48 8b 85 58 c6 ff ff 	mov    -0x39a8(%rbp),%rax
   14352:	48 8b 08             	mov    (%rax),%rcx
   14355:	48 8b 06             	mov    (%rsi),%rax
   14358:	48 8b 56 08          	mov    0x8(%rsi),%rdx
   1435c:	48 89 01             	mov    %rax,(%rcx)
   1435f:	48 89 51 08          	mov    %rdx,0x8(%rcx)
   14363:	8b 46 10             	mov    0x10(%rsi),%eax
   14366:	89 41 10             	mov    %eax,0x10(%rcx)
   14369:	8b 05 bd cc 00 00    	mov    0xccbd(%rip),%eax        # 2102c <g_27>
   1436f:	85 c0                	test   %eax,%eax
   14371:	74 05                	je     14378 <func_41+0x794a>
   14373:	e9 e4 fc ff ff       	jmpq   1405c <func_41+0x762e>
   14378:	48 8b 05 09 0f 01 00 	mov    0x10f09(%rip),%rax        # 25288 <g_767>
   1437f:	48 8b 05 da cc 00 00 	mov    0xccda(%rip),%rax        # 21060 <g_68>
   14386:	0f be d8             	movsbl %al,%ebx
   14389:	44 0f b7 a5 e6 c4 ff 	movzwl -0x3b1a(%rbp),%r12d
   14390:	ff 
   14391:	44 0f b6 ad d5 c4 ff 	movzbl -0x3b2b(%rbp),%r13d
   14398:	ff 
   14399:	8b 85 bc c4 ff ff    	mov    -0x3b44(%rbp),%eax
   1439f:	0f b6 d0             	movzbl %al,%edx
   143a2:	48 8b 05 f7 0b 01 00 	mov    0x10bf7(%rip),%rax        # 24fa0 <g_214>
   143a9:	0f b7 00             	movzwl (%rax),%eax
   143ac:	66 85 c0             	test   %ax,%ax
   143af:	0f 95 c0             	setne  %al
   143b2:	0f b6 c0             	movzbl %al,%eax
   143b5:	89 c1                	mov    %eax,%ecx
   143b7:	8b 85 bc c4 ff ff    	mov    -0x3b44(%rbp),%eax
   143bd:	39 c1                	cmp    %eax,%ecx
   143bf:	0f 93 c0             	setae  %al
   143c2:	0f b6 c0             	movzbl %al,%eax
   143c5:	89 d6                	mov    %edx,%esi
   143c7:	89 c7                	mov    %eax,%edi
   143c9:	e8 8c 67 ff ff       	callq  ab5a <safe_add_func_uint8_t_u_u>
   143ce:	8b 05 4c cd 00 00    	mov    0xcd4c(%rip),%eax        # 21120 <g_307+0x20>
   143d4:	0f b6 c0             	movzbl %al,%eax
   143d7:	89 c6                	mov    %eax,%esi
   143d9:	bf 01 00 00 00       	mov    $0x1,%edi
   143de:	e8 77 67 ff ff       	callq  ab5a <safe_add_func_uint8_t_u_u>
   143e3:	0f b6 c0             	movzbl %al,%eax
   143e6:	44 89 ee             	mov    %r13d,%esi
   143e9:	89 c7                	mov    %eax,%edi
   143eb:	e8 0d 6b ff ff       	callq  aefd <safe_mod_func_uint32_t_u_u>
   143f0:	98                   	cwtl   
   143f1:	44 89 e6             	mov    %r12d,%esi
   143f4:	89 c7                	mov    %eax,%edi
   143f6:	e8 e6 60 ff ff       	callq  a4e1 <safe_lshift_func_int16_t_s_u>
   143fb:	0f b6 15 52 cc 00 00 	movzbl 0xcc52(%rip),%edx        # 21054 <g_57>
   14402:	66 0f be d2          	movsbw %dl,%dx
   14406:	66 39 d0             	cmp    %dx,%ax
   14409:	0f 9f c0             	setg   %al
   1440c:	0f b6 c0             	movzbl %al,%eax
   1440f:	89 de                	mov    %ebx,%esi
   14411:	89 c7                	mov    %eax,%edi
   14413:	e8 19 5e ff ff       	callq  a231 <safe_mod_func_int8_t_s_s>
   14418:	8b 85 bc c4 ff ff    	mov    -0x3b44(%rbp),%eax
   1441e:	39 85 8c c5 ff ff    	cmp    %eax,-0x3a74(%rbp)
   14424:	73 07                	jae    1442d <func_41+0x79ff>
   14426:	ba 01 00 00 00       	mov    $0x1,%edx
   1442b:	eb 05                	jmp    14432 <func_41+0x7a04>
   1442d:	ba 00 00 00 00       	mov    $0x0,%edx
   14432:	48 8b 85 18 c7 ff ff 	mov    -0x38e8(%rbp),%rax
   14439:	48 8b 00             	mov    (%rax),%rax
   1443c:	48 8b 00             	mov    (%rax),%rax
   1443f:	48 8b 00             	mov    (%rax),%rax
   14442:	8b 00                	mov    (%rax),%eax
   14444:	39 c2                	cmp    %eax,%edx
   14446:	0f 95 c0             	setne  %al
   14449:	0f b6 d0             	movzbl %al,%edx
   1444c:	48 8b 85 50 c6 ff ff 	mov    -0x39b0(%rbp),%rax
   14453:	48 8b 00             	mov    (%rax),%rax
   14456:	8b 00                	mov    (%rax),%eax
   14458:	39 c2                	cmp    %eax,%edx
   1445a:	7c 07                	jl     14463 <func_41+0x7a35>
   1445c:	b8 8b ff ff ff       	mov    $0xffffff8b,%eax
   14461:	eb 05                	jmp    14468 <func_41+0x7a3a>
   14463:	b8 8a ff ff ff       	mov    $0xffffff8a,%eax
   14468:	be ff ff ff ff       	mov    $0xffffffff,%esi
   1446d:	89 c7                	mov    %eax,%edi
   1446f:	e8 9e 5d ff ff       	callq  a212 <safe_mul_func_int8_t_s_s>
   14474:	83 f0 01             	xor    $0x1,%eax
   14477:	48 0f be d0          	movsbq %al,%rdx
   1447b:	48 8b 85 a0 c7 ff ff 	mov    -0x3860(%rbp),%rax
   14482:	8b 00                	mov    (%rax),%eax
   14484:	31 c2                	xor    %eax,%edx
   14486:	48 8b 85 a0 c7 ff ff 	mov    -0x3860(%rbp),%rax
   1448d:	89 10                	mov    %edx,(%rax)
   1448f:	48 8b 05 e2 0d 01 00 	mov    0x10de2(%rip),%rax        # 25278 <g_347>
   14496:	48 8b 00             	mov    (%rax),%rax
   14499:	48 8b 95 a0 c7 ff ff 	mov    -0x3860(%rbp),%rdx
   144a0:	8b 12                	mov    (%rdx),%edx
   144a2:	89 10                	mov    %edx,(%rax)
   144a4:	8b 85 bc c4 ff ff    	mov    -0x3b44(%rbp),%eax
   144aa:	89 c1                	mov    %eax,%ecx
   144ac:	48 8b 05 e5 0d 01 00 	mov    0x10de5(%rip),%rax        # 25298 <g_980>
   144b3:	48 8b 95 c8 c7 ff ff 	mov    -0x3838(%rbp),%rdx
   144ba:	48 89 10             	mov    %rdx,(%rax)
   144bd:	48 8b 10             	mov    (%rax),%rdx
   144c0:	48 8b 85 60 fd ff ff 	mov    -0x2a0(%rbp),%rax
   144c7:	48 39 c2             	cmp    %rax,%rdx
   144ca:	0f 95 c0             	setne  %al
   144cd:	0f b6 c0             	movzbl %al,%eax
   144d0:	48 89 ce             	mov    %rcx,%rsi
   144d3:	48 89 c7             	mov    %rax,%rdi
   144d6:	e8 1c 65 ff ff       	callq  a9f7 <safe_div_func_int64_t_s_s>
   144db:	48 8d 05 fe 1c 01 00 	lea    0x11cfe(%rip),%rax        # 261e0 <g_698>
   144e2:	48 39 85 d0 c7 ff ff 	cmp    %rax,-0x3830(%rbp)
   144e9:	0f 95 c0             	setne  %al
   144ec:	0f b6 d0             	movzbl %al,%edx
   144ef:	48 8b 85 38 c6 ff ff 	mov    -0x39c8(%rbp),%rax
   144f6:	48 8b 00             	mov    (%rax),%rax
   144f9:	48 8b 00             	mov    (%rax),%rax
   144fc:	8b 00                	mov    (%rax),%eax
   144fe:	39 c2                	cmp    %eax,%edx
   14500:	0f 95 c0             	setne  %al
   14503:	0f b6 d0             	movzbl %al,%edx
   14506:	48 8b 85 d8 c7 ff ff 	mov    -0x3828(%rbp),%rax
   1450d:	8b 00                	mov    (%rax),%eax
   1450f:	21 c2                	and    %eax,%edx
   14511:	48 8b 85 d8 c7 ff ff 	mov    -0x3828(%rbp),%rax
   14518:	89 10                	mov    %edx,(%rax)
   1451a:	48 8b 85 d8 c7 ff ff 	mov    -0x3828(%rbp),%rax
   14521:	8b 00                	mov    (%rax),%eax
   14523:	3d 82 04 1b 28       	cmp    $0x281b0482,%eax
   14528:	0f 96 c0             	setbe  %al
   1452b:	0f b6 c8             	movzbl %al,%ecx
   1452e:	48 8b 85 30 c6 ff ff 	mov    -0x39d0(%rbp),%rax
   14535:	8b 10                	mov    (%rax),%edx
   14537:	48 8b 85 30 c6 ff ff 	mov    -0x39d0(%rbp),%rax
   1453e:	31 ca                	xor    %ecx,%edx
   14540:	89 10                	mov    %edx,(%rax)
   14542:	8b 85 bc c4 ff ff    	mov    -0x3b44(%rbp),%eax
   14548:	41 89 c4             	mov    %eax,%r12d
   1454b:	8b 95 bc c4 ff ff    	mov    -0x3b44(%rbp),%edx
   14551:	48 8b 85 50 c6 ff ff 	mov    -0x39b0(%rbp),%rax
   14558:	48 8b 00             	mov    (%rax),%rax
   1455b:	89 10                	mov    %edx,(%rax)
   1455d:	8b 00                	mov    (%rax),%eax
   1455f:	85 c0                	test   %eax,%eax
   14561:	74 36                	je     14599 <func_41+0x7b6b>
   14563:	48 8b 05 36 0a 01 00 	mov    0x10a36(%rip),%rax        # 24fa0 <g_214>
   1456a:	0f b7 00             	movzwl (%rax),%eax
   1456d:	0f b7 d0             	movzwl %ax,%edx
   14570:	8b 85 bc c4 ff ff    	mov    -0x3b44(%rbp),%eax
   14576:	0f b7 c0             	movzwl %ax,%eax
   14579:	89 d6                	mov    %edx,%esi
   1457b:	89 c7                	mov    %eax,%edi
   1457d:	e8 9d 67 ff ff       	callq  ad1f <safe_sub_func_uint16_t_u_u>
   14582:	48 8b 85 10 c6 ff ff 	mov    -0x39f0(%rbp),%rax
   14589:	48 8b 00             	mov    (%rax),%rax
   1458c:	8b 00                	mov    (%rax),%eax
   1458e:	85 c0                	test   %eax,%eax
   14590:	74 07                	je     14599 <func_41+0x7b6b>
   14592:	b8 01 00 00 00       	mov    $0x1,%eax
   14597:	eb 05                	jmp    1459e <func_41+0x7b70>
   14599:	b8 00 00 00 00       	mov    $0x0,%eax
   1459e:	0f b7 c0             	movzwl %ax,%eax
   145a1:	be 0e 00 00 00       	mov    $0xe,%esi
   145a6:	89 c7                	mov    %eax,%edi
   145a8:	e8 9b 68 ff ff       	callq  ae48 <safe_rshift_func_uint16_t_u_s>
   145ad:	66 0d 33 dc          	or     $0xdc33,%ax
   145b1:	89 c3                	mov    %eax,%ebx
   145b3:	b8 dd 02 00 00       	mov    $0x2dd,%eax
   145b8:	89 c2                	mov    %eax,%edx
   145ba:	b8 0a ca de ab       	mov    $0xabdeca0a,%eax
   145bf:	48 39 85 b8 c7 ff ff 	cmp    %rax,-0x3848(%rbp)
   145c6:	76 20                	jbe    145e8 <func_41+0x7bba>
   145c8:	8b 05 5a cf 00 00    	mov    0xcf5a(%rip),%eax        # 21528 <g_1528>
   145ce:	89 c1                	mov    %eax,%ecx
   145d0:	8b 85 bc c4 ff ff    	mov    -0x3b44(%rbp),%eax
   145d6:	09 c8                	or     %ecx,%eax
   145d8:	89 05 4a cf 00 00    	mov    %eax,0xcf4a(%rip)        # 21528 <g_1528>
   145de:	8b 05 44 cf 00 00    	mov    0xcf44(%rip),%eax        # 21528 <g_1528>
   145e4:	85 c0                	test   %eax,%eax
   145e6:	74 07                	je     145ef <func_41+0x7bc1>
   145e8:	b8 01 00 00 00       	mov    $0x1,%eax
   145ed:	eb 05                	jmp    145f4 <func_41+0x7bc6>
   145ef:	b8 00 00 00 00       	mov    $0x0,%eax
   145f4:	0f b6 c0             	movzbl %al,%eax
   145f7:	89 d6                	mov    %edx,%esi
   145f9:	89 c7                	mov    %eax,%edi
   145fb:	e8 05 66 ff ff       	callq  ac05 <safe_lshift_func_uint8_t_u_s>
   14600:	0f b6 c0             	movzbl %al,%eax
   14603:	21 d8                	and    %ebx,%eax
   14605:	89 c2                	mov    %eax,%edx
   14607:	48 8b 85 28 c7 ff ff 	mov    -0x38d8(%rbp),%rax
   1460e:	66 89 10             	mov    %dx,(%rax)
   14611:	48 8b 85 28 c7 ff ff 	mov    -0x38d8(%rbp),%rax
   14618:	0f b7 00             	movzwl (%rax),%eax
   1461b:	98                   	cwtl   
   1461c:	44 89 e6             	mov    %r12d,%esi
   1461f:	89 c7                	mov    %eax,%edi
   14621:	e8 04 5f ff ff       	callq  a52a <safe_rshift_func_int16_t_s_s>
   14626:	0f bf d0             	movswl %ax,%edx
   14629:	48 8b 85 a0 c7 ff ff 	mov    -0x3860(%rbp),%rax
   14630:	89 10                	mov    %edx,(%rax)
   14632:	48 8b 05 3f 0d 01 00 	mov    0x10d3f(%rip),%rax        # 25378 <g_1537>
   14639:	48 8b 00             	mov    (%rax),%rax
   1463c:	49 89 c4             	mov    %rax,%r12
   1463f:	48 8b 85 a0 c7 ff ff 	mov    -0x3860(%rbp),%rax
   14646:	8b 00                	mov    (%rax),%eax
   14648:	83 f0 0f             	xor    $0xf,%eax
   1464b:	0f b6 c0             	movzbl %al,%eax
   1464e:	be b2 00 00 00       	mov    $0xb2,%esi
   14653:	89 c7                	mov    %eax,%edi
   14655:	e8 39 65 ff ff       	callq  ab93 <safe_mul_func_uint8_t_u_u>
   1465a:	0f b6 d0             	movzbl %al,%edx
   1465d:	8b 85 bc c4 ff ff    	mov    -0x3b44(%rbp),%eax
   14663:	39 c2                	cmp    %eax,%edx
   14665:	0f 92 c0             	setb   %al
   14668:	0f b6 d8             	movzbl %al,%ebx
   1466b:	48 8b 85 60 c6 ff ff 	mov    -0x39a0(%rbp),%rax
   14672:	c7 00 04 00 00 00    	movl   $0x4,(%rax)
   14678:	48 8b 05 01 0d 01 00 	mov    0x10d01(%rip),%rax        # 25380 <g_1536>
   1467f:	8b 05 43 cb 00 00    	mov    0xcb43(%rip),%eax        # 211c8 <g_325>
   14685:	c1 e0 0f             	shl    $0xf,%eax
   14688:	c1 f8 0f             	sar    $0xf,%eax
   1468b:	89 c2                	mov    %eax,%edx
   1468d:	8b 85 6c c5 ff ff    	mov    -0x3a94(%rbp),%eax
   14693:	31 d0                	xor    %edx,%eax
   14695:	0f be c0             	movsbl %al,%eax
   14698:	be 03 00 00 00       	mov    $0x3,%esi
   1469d:	89 c7                	mov    %eax,%edi
   1469f:	e8 c8 5c ff ff       	callq  a36c <safe_rshift_func_int8_t_s_u>
   146a4:	0f be d0             	movsbl %al,%edx
   146a7:	48 8b 85 28 c7 ff ff 	mov    -0x38d8(%rbp),%rax
   146ae:	0f b7 00             	movzwl (%rax),%eax
   146b1:	21 c2                	and    %eax,%edx
   146b3:	48 8b 85 28 c7 ff ff 	mov    -0x38d8(%rbp),%rax
   146ba:	66 89 10             	mov    %dx,(%rax)
   146bd:	48 8b 85 28 c7 ff ff 	mov    -0x38d8(%rbp),%rax
   146c4:	0f b7 00             	movzwl (%rax),%eax
   146c7:	98                   	cwtl   
   146c8:	be 01 00 00 00       	mov    $0x1,%esi
   146cd:	89 c7                	mov    %eax,%edi
   146cf:	e8 ff 5c ff ff       	callq  a3d3 <safe_sub_func_int16_t_s_s>
   146d4:	48 0f bf c0          	movswq %ax,%rax
   146d8:	48 89 05 b1 c9 00 00 	mov    %rax,0xc9b1(%rip)        # 21090 <g_68+0x30>
   146df:	48 8b 05 aa c9 00 00 	mov    0xc9aa(%rip),%rax        # 21090 <g_68+0x30>
   146e6:	48 89 de             	mov    %rbx,%rsi
   146e9:	48 89 c7             	mov    %rax,%rdi
   146ec:	e8 5a 69 ff ff       	callq  b04b <safe_sub_func_uint64_t_u_u>
   146f1:	48 8b 15 40 c9 00 00 	mov    0xc940(%rip),%rdx        # 21038 <g_38>
   146f8:	48 31 d0             	xor    %rdx,%rax
   146fb:	48 89 05 36 c9 00 00 	mov    %rax,0xc936(%rip)        # 21038 <g_38>
   14702:	48 8b 05 2f c9 00 00 	mov    0xc92f(%rip),%rax        # 21038 <g_38>
   14709:	4c 89 e6             	mov    %r12,%rsi
   1470c:	48 89 c7             	mov    %rax,%rdi
   1470f:	e8 6c 69 ff ff       	callq  b080 <safe_mod_func_uint64_t_u_u>
   14714:	48 8b 05 5d 0c 01 00 	mov    0x10c5d(%rip),%rax        # 25378 <g_1537>
   1471b:	48 8b 00             	mov    (%rax),%rax
   1471e:	48 ba d5 fd 1a cd 50 	movabs $0xc17f0650cd1afdd5,%rdx
   14725:	06 7f c1 
   14728:	48 39 d0             	cmp    %rdx,%rax
   1472b:	0f 84 f4 02 00 00    	je     14a25 <func_41+0x7ff7>
   14731:	66 c7 85 e8 c4 ff ff 	movw   $0xc0e8,-0x3b18(%rbp)
   14738:	e8 c0 
   1473a:	8b 05 ec cd 00 00    	mov    0xcdec(%rip),%eax        # 2152c <g_1546>
   14740:	48 8b 15 31 0b 01 00 	mov    0x10b31(%rip),%rdx        # 25278 <g_347>
   14747:	48 8b 85 38 c6 ff ff 	mov    -0x39c8(%rbp),%rax
   1474e:	48 8b 00             	mov    (%rax),%rax
   14751:	48 8b 12             	mov    (%rdx),%rdx
   14754:	48 89 10             	mov    %rdx,(%rax)
   14757:	8b 85 bc c4 ff ff    	mov    -0x3b44(%rbp),%eax
   1475d:	98                   	cwtl   
   1475e:	be 0b 00 00 00       	mov    $0xb,%esi
   14763:	89 c7                	mov    %eax,%edi
   14765:	e8 77 5d ff ff       	callq  a4e1 <safe_lshift_func_int16_t_s_u>
   1476a:	0f bf d0             	movswl %ax,%edx
   1476d:	48 8b 05 24 08 01 00 	mov    0x10824(%rip),%rax        # 24f98 <g_146>
   14774:	8b 00                	mov    (%rax),%eax
   14776:	89 c1                	mov    %eax,%ecx
   14778:	8b 05 a6 93 00 00    	mov    0x93a6(%rip),%eax        # 1db24 <l_1549.4425+0xc4>
   1477e:	09 c8                	or     %ecx,%eax
   14780:	39 c2                	cmp    %eax,%edx
   14782:	0f 96 c0             	setbe  %al
   14785:	44 0f b6 e0          	movzbl %al,%r12d
   14789:	48 8b 9d a8 c7 ff ff 	mov    -0x3858(%rbp),%rbx
   14790:	8b 85 bc c4 ff ff    	mov    -0x3b44(%rbp),%eax
   14796:	41 89 c5             	mov    %eax,%r13d
   14799:	48 8b 05 d8 0b 01 00 	mov    0x10bd8(%rip),%rax        # 25378 <g_1537>
   147a0:	48 8b 00             	mov    (%rax),%rax
   147a3:	49 89 c6             	mov    %rax,%r14
   147a6:	8b 85 bc c4 ff ff    	mov    -0x3b44(%rbp),%eax
   147ac:	41 89 c7             	mov    %eax,%r15d
   147af:	8b 85 bc c4 ff ff    	mov    -0x3b44(%rbp),%eax
   147b5:	98                   	cwtl   
   147b6:	89 c6                	mov    %eax,%esi
   147b8:	bf 01 00 00 00       	mov    $0x1,%edi
   147bd:	e8 54 5c ff ff       	callq  a416 <safe_mod_func_int16_t_s_s>
   147c2:	66 85 c0             	test   %ax,%ax
   147c5:	0f 95 c0             	setne  %al
   147c8:	0f b6 c0             	movzbl %al,%eax
   147cb:	ba 8b 9a ff ff       	mov    $0xffff9a8b,%edx
   147d0:	39 d0                	cmp    %edx,%eax
   147d2:	0f 9f c0             	setg   %al
   147d5:	0f b6 c0             	movzbl %al,%eax
   147d8:	44 89 fe             	mov    %r15d,%esi
   147db:	89 c7                	mov    %eax,%edi
   147dd:	e8 dc 65 ff ff       	callq  adbe <safe_lshift_func_uint16_t_u_s>
   147e2:	48 8b 85 78 c6 ff ff 	mov    -0x3988(%rbp),%rax
   147e9:	48 b9 33 4a c8 60 22 	movabs $0xa40502260c84a33,%rcx
   147f0:	50 40 0a 
   147f3:	48 89 08             	mov    %rcx,(%rax)
   147f6:	48 8b 85 78 c6 ff ff 	mov    -0x3988(%rbp),%rax
   147fd:	48 8b 00             	mov    (%rax),%rax
   14800:	48 89 c2             	mov    %rax,%rdx
   14803:	8b 85 bc c4 ff ff    	mov    -0x3b44(%rbp),%eax
   14809:	89 c0                	mov    %eax,%eax
   1480b:	48 89 d6             	mov    %rdx,%rsi
   1480e:	48 89 c7             	mov    %rax,%rdi
   14811:	e8 35 68 ff ff       	callq  b04b <safe_sub_func_uint64_t_u_u>
   14816:	48 8b 15 5b 0a 01 00 	mov    0x10a5b(%rip),%rdx        # 25278 <g_347>
   1481d:	48 8b 12             	mov    (%rdx),%rdx
   14820:	8b 12                	mov    (%rdx),%edx
   14822:	48 63 d2             	movslq %edx,%rdx
   14825:	48 39 d0             	cmp    %rdx,%rax
   14828:	0f 92 c0             	setb   %al
   1482b:	0f b6 c0             	movzbl %al,%eax
   1482e:	4c 89 f6             	mov    %r14,%rsi
   14831:	48 89 c7             	mov    %rax,%rdi
   14834:	e8 47 68 ff ff       	callq  b080 <safe_mod_func_uint64_t_u_u>
   14839:	48 8b 85 30 c6 ff ff 	mov    -0x39d0(%rbp),%rax
   14840:	8b 00                	mov    (%rax),%eax
   14842:	48 98                	cltq   
   14844:	be 00 00 00 00       	mov    $0x0,%esi
   14849:	48 89 c7             	mov    %rax,%rdi
   1484c:	e8 57 60 ff ff       	callq  a8a8 <safe_sub_func_int64_t_s_s>
   14851:	98                   	cwtl   
   14852:	44 89 ee             	mov    %r13d,%esi
   14855:	89 c7                	mov    %eax,%edi
   14857:	e8 36 5c ff ff       	callq  a492 <safe_lshift_func_int16_t_s_s>
   1485c:	0f b6 c0             	movzbl %al,%eax
   1485f:	be 00 00 00 00       	mov    $0x0,%esi
   14864:	89 c7                	mov    %eax,%edi
   14866:	e8 28 63 ff ff       	callq  ab93 <safe_mul_func_uint8_t_u_u>
   1486b:	8b 85 bc c4 ff ff    	mov    -0x3b44(%rbp),%eax
   14871:	0d 0b 10 00 00       	or     $0x100b,%eax
   14876:	89 c0                	mov    %eax,%eax
   14878:	48 89 de             	mov    %rbx,%rsi
   1487b:	48 89 c7             	mov    %rax,%rdi
   1487e:	e8 ab 67 ff ff       	callq  b02e <safe_add_func_uint64_t_u_u>
   14883:	98                   	cwtl   
   14884:	89 c6                	mov    %eax,%esi
   14886:	bf a4 f8 ff ff       	mov    $0xfffff8a4,%edi
   1488b:	e8 65 5b ff ff       	callq  a3f5 <safe_mul_func_int16_t_s_s>
   14890:	98                   	cwtl   
   14891:	41 39 c4             	cmp    %eax,%r12d
   14894:	0f 9e c0             	setle  %al
   14897:	0f b6 d0             	movzbl %al,%edx
   1489a:	8b 85 bc c4 ff ff    	mov    -0x3b44(%rbp),%eax
   148a0:	39 c2                	cmp    %eax,%edx
   148a2:	0f 95 c0             	setne  %al
   148a5:	0f b6 d0             	movzbl %al,%edx
   148a8:	b8 00 00 00 00       	mov    $0x0,%eax
   148ad:	0f b6 c0             	movzbl %al,%eax
   148b0:	39 c2                	cmp    %eax,%edx
   148b2:	0f 95 c0             	setne  %al
   148b5:	0f b6 d0             	movzbl %al,%edx
   148b8:	48 8b 85 a0 c7 ff ff 	mov    -0x3860(%rbp),%rax
   148bf:	89 10                	mov    %edx,(%rax)
   148c1:	8b 05 e5 cb 00 00    	mov    0xcbe5(%rip),%eax        # 214ac <g_1347+0xc>
   148c7:	25 ff ff ff 03       	and    $0x3ffffff,%eax
   148cc:	41 89 c6             	mov    %eax,%r14d
   148cf:	48 8b 05 1a ca 00 00 	mov    0xca1a(%rip),%rax        # 212f0 <g_582>
   148d6:	0f bf d8             	movswl %ax,%ebx
   148d9:	0f b6 05 8c ca 00 00 	movzbl 0xca8c(%rip),%eax        # 2136c <g_740+0xc>
   148e0:	d0 e8                	shr    %al
   148e2:	83 e0 03             	and    $0x3,%eax
   148e5:	44 0f b6 e0          	movzbl %al,%r12d
   148e9:	44 8b ad 2c cf ff ff 	mov    -0x30d4(%rbp),%r13d
   148f0:	48 8b 85 38 c6 ff ff 	mov    -0x39c8(%rbp),%rax
   148f7:	48 8b 00             	mov    (%rax),%rax
   148fa:	48 8b 00             	mov    (%rax),%rax
   148fd:	8b 00                	mov    (%rax),%eax
   148ff:	89 c2                	mov    %eax,%edx
   14901:	8b 85 bc c4 ff ff    	mov    -0x3b44(%rbp),%eax
   14907:	31 c2                	xor    %eax,%edx
   14909:	48 8b 85 38 c6 ff ff 	mov    -0x39c8(%rbp),%rax
   14910:	48 8b 00             	mov    (%rax),%rax
   14913:	48 8b 00             	mov    (%rax),%rax
   14916:	89 10                	mov    %edx,(%rax)
   14918:	8b 10                	mov    (%rax),%edx
   1491a:	48 8b 85 a0 c7 ff ff 	mov    -0x3860(%rbp),%rax
   14921:	8b 00                	mov    (%rax),%eax
   14923:	31 c2                	xor    %eax,%edx
   14925:	48 8b 85 a0 c7 ff ff 	mov    -0x3860(%rbp),%rax
   1492c:	89 10                	mov    %edx,(%rax)
   1492e:	48 8b 85 a0 c7 ff ff 	mov    -0x3860(%rbp),%rax
   14935:	8b 00                	mov    (%rax),%eax
   14937:	0f be c0             	movsbl %al,%eax
   1493a:	be 06 00 00 00       	mov    $0x6,%esi
   1493f:	89 c7                	mov    %eax,%edi
   14941:	e8 26 5a ff ff       	callq  a36c <safe_rshift_func_int8_t_s_u>
   14946:	84 c0                	test   %al,%al
   14948:	74 15                	je     1495f <func_41+0x7f31>
   1494a:	0f b6 05 b9 c8 00 00 	movzbl 0xc8b9(%rip),%eax        # 2120a <g_338+0x2a>
   14951:	83 e0 06             	and    $0x6,%eax
   14954:	84 c0                	test   %al,%al
   14956:	74 07                	je     1495f <func_41+0x7f31>
   14958:	b8 01 00 00 00       	mov    $0x1,%eax
   1495d:	eb 05                	jmp    14964 <func_41+0x7f36>
   1495f:	b8 00 00 00 00       	mov    $0x0,%eax
   14964:	83 e0 01             	and    $0x1,%eax
   14967:	48 8b 95 d0 d2 ff ff 	mov    -0x2d30(%rbp),%rdx
   1496e:	48 85 d2             	test   %rdx,%rdx
   14971:	0f 95 c2             	setne  %dl
   14974:	0f b6 d2             	movzbl %dl,%edx
   14977:	89 d1                	mov    %edx,%ecx
   14979:	8b 95 bc c4 ff ff    	mov    -0x3b44(%rbp),%edx
   1497f:	39 d1                	cmp    %edx,%ecx
   14981:	0f 92 c2             	setb   %dl
   14984:	0f b6 ca             	movzbl %dl,%ecx
   14987:	8b 95 bc c4 ff ff    	mov    -0x3b44(%rbp),%edx
   1498d:	39 d1                	cmp    %edx,%ecx
   1498f:	0f 93 c2             	setae  %dl
   14992:	21 d0                	and    %edx,%eax
   14994:	0f b6 c0             	movzbl %al,%eax
   14997:	41 39 c5             	cmp    %eax,%r13d
   1499a:	0f 9e c0             	setle  %al
   1499d:	0f b6 c0             	movzbl %al,%eax
   149a0:	41 39 c4             	cmp    %eax,%r12d
   149a3:	0f 9d c0             	setge  %al
   149a6:	0f b6 d0             	movzbl %al,%edx
   149a9:	48 8b 85 08 c6 ff ff 	mov    -0x39f8(%rbp),%rax
   149b0:	48 8b 00             	mov    (%rax),%rax
   149b3:	0f b7 00             	movzwl (%rax),%eax
   149b6:	89 c1                	mov    %eax,%ecx
   149b8:	89 d0                	mov    %edx,%eax
   149ba:	31 c1                	xor    %eax,%ecx
   149bc:	89 ca                	mov    %ecx,%edx
   149be:	48 8b 85 08 c6 ff ff 	mov    -0x39f8(%rbp),%rax
   149c5:	48 8b 00             	mov    (%rax),%rax
   149c8:	66 89 10             	mov    %dx,(%rax)
   149cb:	0f b7 00             	movzwl (%rax),%eax
   149ce:	0f b7 c0             	movzwl %ax,%eax
   149d1:	be 08 00 00 00       	mov    $0x8,%esi
   149d6:	89 c7                	mov    %eax,%edi
   149d8:	e8 6b 64 ff ff       	callq  ae48 <safe_rshift_func_uint16_t_u_s>
   149dd:	98                   	cwtl   
   149de:	89 de                	mov    %ebx,%esi
   149e0:	89 c7                	mov    %eax,%edi
   149e2:	e8 6e 5a ff ff       	callq  a455 <safe_div_func_int16_t_s_s>
   149e7:	66 83 bd e8 c4 ff ff 	cmpw   $0x0,-0x3b18(%rbp)
   149ee:	00 
   149ef:	0f 94 c0             	sete   %al
   149f2:	0f b6 c0             	movzbl %al,%eax
   149f5:	44 89 f6             	mov    %r14d,%esi
   149f8:	89 c7                	mov    %eax,%edi
   149fa:	e8 06 62 ff ff       	callq  ac05 <safe_lshift_func_uint8_t_u_s>
   149ff:	89 c2                	mov    %eax,%edx
   14a01:	48 8b 05 58 09 01 00 	mov    0x10958(%rip),%rax        # 25360 <g_1220>
   14a08:	0f b6 d2             	movzbl %dl,%edx
   14a0b:	89 10                	mov    %edx,(%rax)
   14a0d:	8b 08                	mov    (%rax),%ecx
   14a0f:	48 8b 85 30 c6 ff ff 	mov    -0x39d0(%rbp),%rax
   14a16:	8b 10                	mov    (%rax),%edx
   14a18:	48 8b 85 30 c6 ff ff 	mov    -0x39d0(%rbp),%rax
   14a1f:	21 ca                	and    %ecx,%edx
   14a21:	89 10                	mov    %edx,(%rax)
   14a23:	eb 4e                	jmp    14a73 <func_41+0x8045>
   14a25:	48 8d 85 20 c9 ff ff 	lea    -0x36e0(%rbp),%rax
   14a2c:	48 83 c0 0c          	add    $0xc,%rax
   14a30:	48 89 85 e0 c7 ff ff 	mov    %rax,-0x3820(%rbp)
   14a37:	48 8b 85 38 c6 ff ff 	mov    -0x39c8(%rbp),%rax
   14a3e:	48 8b 00             	mov    (%rax),%rax
   14a41:	48 8b 95 e0 c7 ff ff 	mov    -0x3820(%rbp),%rdx
   14a48:	48 89 10             	mov    %rdx,(%rax)
   14a4b:	48 8b 05 46 08 01 00 	mov    0x10846(%rip),%rax        # 25298 <g_980>
   14a52:	48 8b 08             	mov    (%rax),%rcx
   14a55:	48 8b 01             	mov    (%rcx),%rax
   14a58:	48 8b 51 08          	mov    0x8(%rcx),%rdx
   14a5c:	48 89 05 e5 cc 00 00 	mov    %rax,0xcce5(%rip)        # 21748 <g_1588+0xc8>
   14a63:	48 89 15 e6 cc 00 00 	mov    %rdx,0xcce6(%rip)        # 21750 <g_1588+0xd0>
   14a6a:	8b 41 10             	mov    0x10(%rcx),%eax
   14a6d:	89 05 e5 cc 00 00    	mov    %eax,0xcce5(%rip)        # 21758 <g_1588+0xd8>
   14a73:	48 8b 95 58 c6 ff ff 	mov    -0x39a8(%rbp),%rdx
   14a7a:	48 8b 85 58 c6 ff ff 	mov    -0x39a8(%rbp),%rax
   14a81:	48 8b 12             	mov    (%rdx),%rdx
   14a84:	48 89 10             	mov    %rdx,(%rax)
   14a87:	48 8b 05 f2 04 01 00 	mov    0x104f2(%rip),%rax        # 24f80 <g_47>
   14a8e:	8b 10                	mov    (%rax),%edx
   14a90:	81 e2 00 00 00 80    	and    $0x80000000,%edx
   14a96:	81 ca 3b 79 00 00    	or     $0x793b,%edx
   14a9c:	89 10                	mov    %edx,(%rax)
   14a9e:	8b 50 04             	mov    0x4(%rax),%edx
   14aa1:	81 e2 00 00 f0 ff    	and    $0xfff00000,%edx
   14aa7:	81 ca 91 02 00 00    	or     $0x291,%edx
   14aad:	89 50 04             	mov    %edx,0x4(%rax)
   14ab0:	0f b7 50 06          	movzwl 0x6(%rax),%edx
   14ab4:	83 e2 0f             	and    $0xf,%edx
   14ab7:	66 81 ca 60 03       	or     $0x360,%dx
   14abc:	66 89 50 06          	mov    %dx,0x6(%rax)
   14ac0:	0f b7 50 08          	movzwl 0x8(%rax),%edx
   14ac4:	66 81 e2 00 f8       	and    $0xf800,%dx
   14ac9:	66 81 ca f5 07       	or     $0x7f5,%dx
   14ace:	66 89 50 08          	mov    %dx,0x8(%rax)
   14ad2:	8b 50 0c             	mov    0xc(%rax),%edx
   14ad5:	81 e2 00 00 00 fc    	and    $0xfc000000,%edx
   14adb:	81 ca 3f 12 00 00    	or     $0x123f,%edx
   14ae1:	89 50 0c             	mov    %edx,0xc(%rax)
   14ae4:	0f b7 50 10          	movzwl 0x10(%rax),%edx
   14ae8:	66 81 e2 00 fc       	and    $0xfc00,%dx
   14aed:	83 ca 1a             	or     $0x1a,%edx
   14af0:	66 89 50 10          	mov    %dx,0x10(%rax)
   14af4:	c6 85 ce c4 ff ff 00 	movb   $0x0,-0x3b32(%rbp)
   14afb:	e9 a0 00 00 00       	jmpq   14ba0 <func_41+0x8172>
   14b00:	48 c7 85 f0 c7 ff ff 	movq   $0x7,-0x3810(%rbp)
   14b07:	07 00 00 00 
   14b0b:	c7 85 ac c5 ff ff de 	movl   $0x983a37de,-0x3a54(%rbp)
   14b12:	37 3a 98 
   14b15:	66 83 85 de c4 ff ff 	addw   $0x1,-0x3b22(%rbp)
   14b1c:	01 
   14b1d:	8b 85 bc c4 ff ff    	mov    -0x3b44(%rbp),%eax
   14b23:	85 c0                	test   %eax,%eax
   14b25:	0f 85 6f 01 00 00    	jne    14c9a <func_41+0x826c>
   14b2b:	c6 05 98 c7 00 00 00 	movb   $0x0,0xc798(%rip)        # 212ca <g_435>
   14b32:	eb 48                	jmp    14b7c <func_41+0x814e>
   14b34:	48 8b 85 18 c7 ff ff 	mov    -0x38e8(%rbp),%rax
   14b3b:	48 8b 00             	mov    (%rax),%rax
   14b3e:	48 8b 10             	mov    (%rax),%rdx
   14b41:	48 8b 05 40 08 01 00 	mov    0x10840(%rip),%rax        # 25388 <g_1609>
   14b48:	48 8b 12             	mov    (%rdx),%rdx
   14b4b:	48 89 10             	mov    %rdx,(%rax)
   14b4e:	48 8b 15 33 07 01 00 	mov    0x10733(%rip),%rdx        # 25288 <g_767>
   14b55:	48 8b 85 30 c6 ff ff 	mov    -0x39d0(%rbp),%rax
   14b5c:	8b 12                	mov    (%rdx),%edx
   14b5e:	89 10                	mov    %edx,(%rax)
   14b60:	0f b6 05 63 c7 00 00 	movzbl 0xc763(%rip),%eax        # 212ca <g_435>
   14b67:	0f be c0             	movsbl %al,%eax
   14b6a:	be 04 00 00 00       	mov    $0x4,%esi
   14b6f:	89 c7                	mov    %eax,%edi
   14b71:	e8 42 63 ff ff       	callq  aeb8 <safe_add_func_uint32_t_u_u>
   14b76:	88 05 4e c7 00 00    	mov    %al,0xc74e(%rip)        # 212ca <g_435>
   14b7c:	0f b6 05 47 c7 00 00 	movzbl 0xc747(%rip),%eax        # 212ca <g_435>
   14b83:	3c 0e                	cmp    $0xe,%al
   14b85:	7e ad                	jle    14b34 <func_41+0x8106>
   14b87:	0f b6 85 ce c4 ff ff 	movzbl -0x3b32(%rbp),%eax
   14b8e:	be 01 00 00 00       	mov    $0x1,%esi
   14b93:	89 c7                	mov    %eax,%edi
   14b95:	e8 19 58 ff ff       	callq  a3b3 <safe_add_func_int16_t_s_s>
   14b9a:	88 85 ce c4 ff ff    	mov    %al,-0x3b32(%rbp)
   14ba0:	80 bd ce c4 ff ff 0c 	cmpb   $0xc,-0x3b32(%rbp)
   14ba7:	0f 86 53 ff ff ff    	jbe    14b00 <func_41+0x80d2>
   14bad:	e9 e9 00 00 00       	jmpq   14c9b <func_41+0x826d>
   14bb2:	c7 85 78 c5 ff ff 2a 	movl   $0x8a45e62a,-0x3a88(%rbp)
   14bb9:	e6 45 8a 
   14bbc:	48 8d 05 9d c4 00 00 	lea    0xc49d(%rip),%rax        # 21060 <g_68>
   14bc3:	48 89 85 70 c7 ff ff 	mov    %rax,-0x3890(%rbp)
   14bca:	48 8d 05 ef c7 00 00 	lea    0xc7ef(%rip),%rax        # 213c0 <g_846>
   14bd1:	48 89 85 78 c7 ff ff 	mov    %rax,-0x3888(%rbp)
   14bd8:	c7 85 7c c5 ff ff 9a 	movl   $0x9c94389a,-0x3a84(%rbp)
   14bdf:	38 94 9c 
   14be2:	48 8d 85 50 d1 ff ff 	lea    -0x2eb0(%rbp),%rax
   14be9:	48 8d 15 b0 7e 00 00 	lea    0x7eb0(%rip),%rdx        # 1caa0 <g_2454+0x2728>
   14bf0:	b9 30 00 00 00       	mov    $0x30,%ecx
   14bf5:	48 89 c7             	mov    %rax,%rdi
   14bf8:	48 89 d6             	mov    %rdx,%rsi
   14bfb:	f3 48 a5             	rep movsq %ds:(%rsi),%es:(%rdi)
   14bfe:	48 8d 85 e0 f7 ff ff 	lea    -0x820(%rbp),%rax
   14c05:	48 8d 15 b4 f0 00 00 	lea    0xf0b4(%rip),%rdx        # 23cc0 <g_2477+0x1b00>
   14c0c:	b9 54 00 00 00       	mov    $0x54,%ecx
   14c11:	48 89 c7             	mov    %rax,%rdi
   14c14:	48 89 d6             	mov    %rdx,%rsi
   14c17:	f3 48 a5             	rep movsq %ds:(%rsi),%es:(%rdi)
   14c1a:	48 8b 85 30 c6 ff ff 	mov    -0x39d0(%rbp),%rax
   14c21:	c7 00 3a 2e 89 b9    	movl   $0xb9892e3a,(%rax)
   14c27:	c7 85 2c c5 ff ff 00 	movl   $0x0,-0x3ad4(%rbp)
   14c2e:	00 00 00 
   14c31:	eb 5c                	jmp    14c8f <func_41+0x8261>
   14c33:	c6 85 d4 c4 ff ff 57 	movb   $0x57,-0x3b2c(%rbp)
   14c3a:	48 8d 05 3f 03 01 00 	lea    0x1033f(%rip),%rax        # 24f80 <g_47>
   14c41:	48 89 85 80 c7 ff ff 	mov    %rax,-0x3880(%rbp)
   14c48:	48 c7 85 60 c6 ff ff 	movq   $0x0,-0x39a0(%rbp)
   14c4f:	00 00 00 00 
   14c53:	48 8d 85 60 c6 ff ff 	lea    -0x39a0(%rbp),%rax
   14c5a:	48 89 85 88 c7 ff ff 	mov    %rax,-0x3878(%rbp)
   14c61:	c7 85 80 c5 ff ff 8f 	movl   $0xea995e8f,-0x3a80(%rbp)
   14c68:	5e 99 ea 
   14c6b:	48 8d 85 00 c9 ff ff 	lea    -0x3700(%rbp),%rax
   14c72:	48 83 c0 08          	add    $0x8,%rax
   14c76:	48 89 85 90 c7 ff ff 	mov    %rax,-0x3870(%rbp)
   14c7d:	48 c7 85 98 c7 ff ff 	movq   $0x0,-0x3868(%rbp)
   14c84:	00 00 00 00 
   14c88:	83 85 2c c5 ff ff 01 	addl   $0x1,-0x3ad4(%rbp)
   14c8f:	83 bd 2c c5 ff ff 04 	cmpl   $0x4,-0x3ad4(%rbp)
   14c96:	7e 9b                	jle    14c33 <func_41+0x8205>
   14c98:	eb 01                	jmp    14c9b <func_41+0x826d>
   14c9a:	90                   	nop
   14c9b:	83 85 68 c5 ff ff 01 	addl   $0x1,-0x3a98(%rbp)
   14ca2:	48 8b 85 00 c6 ff ff 	mov    -0x3a00(%rbp),%rax
   14ca9:	8b 00                	mov    (%rax),%eax
   14cab:	eb 06                	jmp    14cb3 <func_41+0x8285>
   14cad:	90                   	nop
   14cae:	e9 9f 90 ff ff       	jmpq   dd52 <func_41+0x1324>
   14cb3:	48 8b 5d c8          	mov    -0x38(%rbp),%rbx
   14cb7:	64 48 33 1c 25 28 00 	xor    %fs:0x28,%rbx
   14cbe:	00 00 
   14cc0:	74 05                	je     14cc7 <func_41+0x8299>
   14cc2:	e8 a9 53 ff ff       	callq  a070 <__stack_chk_fail@plt>
   14cc7:	48 81 c4 38 3b 00 00 	add    $0x3b38,%rsp
   14cce:	5b                   	pop    %rbx
   14ccf:	41 5c                	pop    %r12
   14cd1:	41 5d                	pop    %r13
   14cd3:	41 5e                	pop    %r14
   14cd5:	41 5f                	pop    %r15
   14cd7:	5d                   	pop    %rbp
   14cd8:	c3                   	retq   

0000000000014cd9 <func_43>:
   14cd9:	f3 0f 1e fa          	endbr64 
   14cdd:	55                   	push   %rbp
   14cde:	48 89 e5             	mov    %rsp,%rbp
   14ce1:	41 55                	push   %r13
   14ce3:	41 54                	push   %r12
   14ce5:	53                   	push   %rbx
   14ce6:	48 81 ec 48 09 00 00 	sub    $0x948,%rsp
   14ced:	48 89 bd b8 f6 ff ff 	mov    %rdi,-0x948(%rbp)
   14cf4:	48 89 b5 b0 f6 ff ff 	mov    %rsi,-0x950(%rbp)
   14cfb:	48 89 95 a8 f6 ff ff 	mov    %rdx,-0x958(%rbp)
   14d02:	64 48 8b 04 25 28 00 	mov    %fs:0x28,%rax
   14d09:	00 00 
   14d0b:	48 89 45 d8          	mov    %rax,-0x28(%rbp)
   14d0f:	31 c0                	xor    %eax,%eax
   14d11:	c7 85 d0 f6 ff ff 94 	movl   $0x33114194,-0x930(%rbp)
   14d18:	41 11 33 
   14d1b:	48 c7 85 f8 f6 ff ff 	movq   $0x0,-0x908(%rbp)
   14d22:	00 00 00 00 
   14d26:	48 8d 05 0b c6 00 00 	lea    0xc60b(%rip),%rax        # 21338 <g_661>
   14d2d:	48 89 85 40 f7 ff ff 	mov    %rax,-0x8c0(%rbp)
   14d34:	48 8d 05 b5 c5 00 00 	lea    0xc5b5(%rip),%rax        # 212f0 <g_582>
   14d3b:	48 89 85 48 f7 ff ff 	mov    %rax,-0x8b8(%rbp)
   14d42:	48 8d 05 ef c5 00 00 	lea    0xc5ef(%rip),%rax        # 21338 <g_661>
   14d49:	48 89 85 50 f7 ff ff 	mov    %rax,-0x8b0(%rbp)
   14d50:	48 8d 05 e1 c5 00 00 	lea    0xc5e1(%rip),%rax        # 21338 <g_661>
   14d57:	48 89 85 58 f7 ff ff 	mov    %rax,-0x8a8(%rbp)
   14d5e:	48 8d 05 8b c5 00 00 	lea    0xc58b(%rip),%rax        # 212f0 <g_582>
   14d65:	48 89 85 60 f7 ff ff 	mov    %rax,-0x8a0(%rbp)
   14d6c:	48 8d 05 c5 c5 00 00 	lea    0xc5c5(%rip),%rax        # 21338 <g_661>
   14d73:	48 89 85 68 f7 ff ff 	mov    %rax,-0x898(%rbp)
   14d7a:	48 8d 05 b7 c5 00 00 	lea    0xc5b7(%rip),%rax        # 21338 <g_661>
   14d81:	48 89 85 70 f7 ff ff 	mov    %rax,-0x890(%rbp)
   14d88:	c7 85 d4 f6 ff ff 00 	movl   $0x0,-0x92c(%rbp)
   14d8f:	00 00 00 
   14d92:	48 8d 85 d0 f7 ff ff 	lea    -0x830(%rbp),%rax
   14d99:	48 8d 15 c0 f1 00 00 	lea    0xf1c0(%rip),%rdx        # 23f60 <g_2477+0x1da0>
   14da0:	b9 00 01 00 00       	mov    $0x100,%ecx
   14da5:	48 89 c7             	mov    %rax,%rdi
   14da8:	48 89 d6             	mov    %rdx,%rsi
   14dab:	f3 48 a5             	rep movsq %ds:(%rsi),%es:(%rdi)
   14dae:	48 c7 85 00 f7 ff ff 	movq   $0x0,-0x900(%rbp)
   14db5:	00 00 00 00 
   14db9:	c7 85 c4 f6 ff ff ff 	movl   $0xffffffff,-0x93c(%rbp)
   14dc0:	ff ff ff 
   14dc3:	c6 85 c3 f6 ff ff 48 	movb   $0x48,-0x93d(%rbp)
   14dca:	48 c7 85 e0 f6 ff ff 	movq   $0x0,-0x920(%rbp)
   14dd1:	00 00 00 00 
   14dd5:	48 8d 85 e0 f6 ff ff 	lea    -0x920(%rbp),%rax
   14ddc:	48 89 85 e8 f6 ff ff 	mov    %rax,-0x918(%rbp)
   14de3:	48 8d 85 e8 f6 ff ff 	lea    -0x918(%rbp),%rax
   14dea:	48 89 85 f0 f6 ff ff 	mov    %rax,-0x910(%rbp)
   14df1:	48 8d 85 f0 f6 ff ff 	lea    -0x910(%rbp),%rax
   14df8:	48 89 85 08 f7 ff ff 	mov    %rax,-0x8f8(%rbp)
   14dff:	48 8d 05 50 c2 00 00 	lea    0xc250(%rip),%rax        # 21056 <g_57+0x2>
   14e06:	48 89 85 80 f7 ff ff 	mov    %rax,-0x880(%rbp)
   14e0d:	48 8d 05 44 c2 00 00 	lea    0xc244(%rip),%rax        # 21058 <g_57+0x4>
   14e14:	48 89 85 88 f7 ff ff 	mov    %rax,-0x878(%rbp)
   14e1b:	48 8d 05 36 c2 00 00 	lea    0xc236(%rip),%rax        # 21058 <g_57+0x4>
   14e22:	48 89 85 90 f7 ff ff 	mov    %rax,-0x870(%rbp)
   14e29:	48 8d 05 26 c2 00 00 	lea    0xc226(%rip),%rax        # 21056 <g_57+0x2>
   14e30:	48 89 85 98 f7 ff ff 	mov    %rax,-0x868(%rbp)
   14e37:	48 8d 05 1a c2 00 00 	lea    0xc21a(%rip),%rax        # 21058 <g_57+0x4>
   14e3e:	48 89 85 a0 f7 ff ff 	mov    %rax,-0x860(%rbp)
   14e45:	48 8d 05 0c c2 00 00 	lea    0xc20c(%rip),%rax        # 21058 <g_57+0x4>
   14e4c:	48 89 85 a8 f7 ff ff 	mov    %rax,-0x858(%rbp)
   14e53:	48 8d 05 fc c1 00 00 	lea    0xc1fc(%rip),%rax        # 21056 <g_57+0x2>
   14e5a:	48 89 85 b0 f7 ff ff 	mov    %rax,-0x850(%rbp)
   14e61:	48 8d 05 f0 c1 00 00 	lea    0xc1f0(%rip),%rax        # 21058 <g_57+0x4>
   14e68:	48 89 85 b8 f7 ff ff 	mov    %rax,-0x848(%rbp)
   14e6f:	48 8d 05 e2 c1 00 00 	lea    0xc1e2(%rip),%rax        # 21058 <g_57+0x4>
   14e76:	48 89 85 c0 f7 ff ff 	mov    %rax,-0x840(%rbp)
   14e7d:	c7 85 d8 f6 ff ff 05 	movl   $0x5,-0x928(%rbp)
   14e84:	00 00 00 
   14e87:	c7 85 dc f6 ff ff 06 	movl   $0x6,-0x924(%rbp)
   14e8e:	00 00 00 
   14e91:	48 8d 05 4c c2 00 00 	lea    0xc24c(%rip),%rax        # 210e4 <g_147>
   14e98:	48 89 85 10 f7 ff ff 	mov    %rax,-0x8f0(%rbp)
   14e9f:	c7 85 c8 f6 ff ff 00 	movl   $0x0,-0x938(%rbp)
   14ea6:	00 00 00 
   14ea9:	eb 43                	jmp    14eee <func_43+0x215>
   14eab:	c7 85 cc f6 ff ff 00 	movl   $0x0,-0x934(%rbp)
   14eb2:	00 00 00 
   14eb5:	eb 27                	jmp    14ede <func_43+0x205>
   14eb7:	8b 85 cc f6 ff ff    	mov    -0x934(%rbp),%eax
   14ebd:	48 63 d0             	movslq %eax,%rdx
   14ec0:	8b 85 c8 f6 ff ff    	mov    -0x938(%rbp),%eax
   14ec6:	48 98                	cltq   
   14ec8:	48 01 d0             	add    %rdx,%rax
   14ecb:	48 c7 84 c5 20 f7 ff 	movq   $0x0,-0x8e0(%rbp,%rax,8)
   14ed2:	ff 00 00 00 00 
   14ed7:	83 85 cc f6 ff ff 01 	addl   $0x1,-0x934(%rbp)
   14ede:	83 bd cc f6 ff ff 00 	cmpl   $0x0,-0x934(%rbp)
   14ee5:	7e d0                	jle    14eb7 <func_43+0x1de>
   14ee7:	83 85 c8 f6 ff ff 01 	addl   $0x1,-0x938(%rbp)
   14eee:	83 bd c8 f6 ff ff 03 	cmpl   $0x3,-0x938(%rbp)
   14ef5:	7e b4                	jle    14eab <func_43+0x1d2>
   14ef7:	48 8b 85 b0 f6 ff ff 	mov    -0x950(%rbp),%rax
   14efe:	8b 00                	mov    (%rax),%eax
   14f00:	21 85 d0 f6 ff ff    	and    %eax,-0x930(%rbp)
   14f06:	8b 85 d0 f6 ff ff    	mov    -0x930(%rbp),%eax
   14f0c:	0f be d8             	movsbl %al,%ebx
   14f0f:	44 8b a5 d0 f6 ff ff 	mov    -0x930(%rbp),%r12d
   14f16:	48 8b 05 63 03 01 00 	mov    0x10363(%rip),%rax        # 25280 <g_697>
   14f1d:	48 8d 15 bc 12 01 00 	lea    0x112bc(%rip),%rdx        # 261e0 <g_698>
   14f24:	48 39 d0             	cmp    %rdx,%rax
   14f27:	0f 95 c0             	setne  %al
   14f2a:	0f b6 c0             	movzbl %al,%eax
   14f2d:	31 85 d4 f6 ff ff    	xor    %eax,-0x92c(%rbp)
   14f33:	0f b7 05 6a c1 00 00 	movzwl 0xc16a(%rip),%eax        # 210a4 <g_104>
   14f3a:	0f b7 c0             	movzwl %ax,%eax
   14f3d:	39 85 d0 f6 ff ff    	cmp    %eax,-0x930(%rbp)
   14f43:	0f 9e c0             	setle  %al
   14f46:	0f b6 c0             	movzbl %al,%eax
   14f49:	39 85 d0 f6 ff ff    	cmp    %eax,-0x930(%rbp)
   14f4f:	0f 95 c0             	setne  %al
   14f52:	0f b6 c0             	movzbl %al,%eax
   14f55:	be 01 00 00 00       	mov    $0x1,%esi
   14f5a:	89 c7                	mov    %eax,%edi
   14f5c:	e8 72 54 ff ff       	callq  a3d3 <safe_sub_func_int16_t_s_s>
   14f61:	66 85 c0             	test   %ax,%ax
   14f64:	75 57                	jne    14fbd <func_43+0x2e4>
   14f66:	48 8b 05 f3 c0 00 00 	mov    0xc0f3(%rip),%rax        # 21060 <g_68>
   14f6d:	44 0f b7 e8          	movzwl %ax,%r13d
   14f71:	48 8b 85 50 f7 ff ff 	mov    -0x8b0(%rbp),%rax
   14f78:	48 85 c0             	test   %rax,%rax
   14f7b:	0f 95 c0             	setne  %al
   14f7e:	0f b6 d0             	movzbl %al,%edx
   14f81:	0f b7 05 f0 c2 00 00 	movzwl 0xc2f0(%rip),%eax        # 21278 <g_346+0x8>
   14f88:	c1 e0 02             	shl    $0x2,%eax
   14f8b:	66 c1 f8 09          	sar    $0x9,%ax
   14f8f:	0f be c0             	movsbl %al,%eax
   14f92:	89 d6                	mov    %edx,%esi
   14f94:	89 c7                	mov    %eax,%edi
   14f96:	e8 5a 54 ff ff       	callq  a3f5 <safe_mul_func_int16_t_s_s>
   14f9b:	98                   	cwtl   
   14f9c:	8b 95 d0 f6 ff ff    	mov    -0x930(%rbp),%edx
   14fa2:	89 d6                	mov    %edx,%esi
   14fa4:	89 c7                	mov    %eax,%edi
   14fa6:	e8 21 57 ff ff       	callq  a6cc <safe_mod_func_int32_t_s_s>
   14fab:	0f b7 c0             	movzwl %ax,%eax
   14fae:	44 89 ee             	mov    %r13d,%esi
   14fb1:	89 c7                	mov    %eax,%edi
   14fb3:	e8 67 5d ff ff       	callq  ad1f <safe_sub_func_uint16_t_u_u>
   14fb8:	66 85 c0             	test   %ax,%ax
   14fbb:	74 07                	je     14fc4 <func_43+0x2eb>
   14fbd:	b8 01 00 00 00       	mov    $0x1,%eax
   14fc2:	eb 05                	jmp    14fc9 <func_43+0x2f0>
   14fc4:	b8 00 00 00 00       	mov    $0x0,%eax
   14fc9:	25 ff ff ff 00       	and    $0xffffff,%eax
   14fce:	89 c2                	mov    %eax,%edx
   14fd0:	81 e2 ff ff 01 00    	and    $0x1ffff,%edx
   14fd6:	89 d1                	mov    %edx,%ecx
   14fd8:	c1 e1 0f             	shl    $0xf,%ecx
   14fdb:	8b 15 03 c3 00 00    	mov    0xc303(%rip),%edx        # 212e4 <g_529+0x4>
   14fe1:	81 e2 ff 7f 00 00    	and    $0x7fff,%edx
   14fe7:	09 ca                	or     %ecx,%edx
   14fe9:	89 15 f5 c2 00 00    	mov    %edx,0xc2f5(%rip)        # 212e4 <g_529+0x4>
   14fef:	c1 e8 11             	shr    $0x11,%eax
   14ff2:	89 c0                	mov    %eax,%eax
   14ff4:	83 e0 7f             	and    $0x7f,%eax
   14ff7:	89 c2                	mov    %eax,%edx
   14ff9:	83 e2 7f             	and    $0x7f,%edx
   14ffc:	0f b6 05 e5 c2 00 00 	movzbl 0xc2e5(%rip),%eax        # 212e8 <g_529+0x8>
   15003:	83 e0 80             	and    $0xffffff80,%eax
   15006:	09 d0                	or     %edx,%eax
   15008:	88 05 da c2 00 00    	mov    %al,0xc2da(%rip)        # 212e8 <g_529+0x8>
   1500e:	8b 85 d4 f6 ff ff    	mov    -0x92c(%rbp),%eax
   15014:	0f b7 c0             	movzwl %ax,%eax
   15017:	44 89 e6             	mov    %r12d,%esi
   1501a:	89 c7                	mov    %eax,%edi
   1501c:	e8 e5 5d ff ff       	callq  ae06 <safe_lshift_func_uint16_t_u_u>
   15021:	83 bd d0 f6 ff ff 01 	cmpl   $0x1,-0x930(%rbp)
   15028:	0f 9f c0             	setg   %al
   1502b:	88 05 99 c2 00 00    	mov    %al,0xc299(%rip)        # 212ca <g_435>
   15031:	0f b6 05 92 c2 00 00 	movzbl 0xc292(%rip),%eax        # 212ca <g_435>
   15038:	0f be c0             	movsbl %al,%eax
   1503b:	89 c6                	mov    %eax,%esi
   1503d:	bf 01 00 00 00       	mov    $0x1,%edi
   15042:	e8 cb 51 ff ff       	callq  a212 <safe_mul_func_int8_t_s_s>
   15047:	0f be c0             	movsbl %al,%eax
   1504a:	be 01 00 00 00       	mov    $0x1,%esi
   1504f:	89 c7                	mov    %eax,%edi
   15051:	e8 8b 54 ff ff       	callq  a4e1 <safe_lshift_func_int16_t_s_u>
   15056:	0f be c0             	movsbl %al,%eax
   15059:	89 de                	mov    %ebx,%esi
   1505b:	89 c7                	mov    %eax,%edi
   1505d:	e8 b0 51 ff ff       	callq  a212 <safe_mul_func_int8_t_s_s>
   15062:	0f be c0             	movsbl %al,%eax
   15065:	8b 15 09 c2 00 00    	mov    0xc209(%rip),%edx        # 21274 <g_346+0x4>
   1506b:	c1 ea 0f             	shr    $0xf,%edx
   1506e:	89 d1                	mov    %edx,%ecx
   15070:	0f b6 15 01 c2 00 00 	movzbl 0xc201(%rip),%edx        # 21278 <g_346+0x8>
   15077:	83 e2 7f             	and    $0x7f,%edx
   1507a:	48 c1 e2 11          	shl    $0x11,%rdx
   1507e:	48 09 ca             	or     %rcx,%rdx
   15081:	39 d0                	cmp    %edx,%eax
   15083:	8b 85 d0 f6 ff ff    	mov    -0x930(%rbp),%eax
   15089:	21 85 c4 f6 ff ff    	and    %eax,-0x93c(%rbp)
   1508f:	48 8d 05 42 c0 00 00 	lea    0xc042(%rip),%rax        # 210d8 <g_108+0x18>
   15096:	8b 10                	mov    (%rax),%edx
   15098:	48 8b 85 10 f7 ff ff 	mov    -0x8f0(%rbp),%rax
   1509f:	8b 00                	mov    (%rax),%eax
   150a1:	31 c2                	xor    %eax,%edx
   150a3:	48 8b 85 10 f7 ff ff 	mov    -0x8f0(%rbp),%rax
   150aa:	89 10                	mov    %edx,(%rax)
   150ac:	c7 85 c4 f6 ff ff 00 	movl   $0x0,-0x93c(%rbp)
   150b3:	00 00 00 
   150b6:	eb 51                	jmp    15109 <func_43+0x430>
   150b8:	48 8d 05 ab c2 00 00 	lea    0xc2ab(%rip),%rax        # 2136a <g_740+0xa>
   150bf:	48 89 85 18 f7 ff ff 	mov    %rax,-0x8e8(%rbp)
   150c6:	48 8b 85 10 f7 ff ff 	mov    -0x8f0(%rbp),%rax
   150cd:	8b 10                	mov    (%rax),%edx
   150cf:	48 8b 85 b0 f6 ff ff 	mov    -0x950(%rbp),%rax
   150d6:	8b 00                	mov    (%rax),%eax
   150d8:	31 c2                	xor    %eax,%edx
   150da:	48 8b 85 10 f7 ff ff 	mov    -0x8f0(%rbp),%rax
   150e1:	89 10                	mov    %edx,(%rax)
   150e3:	48 8b 85 38 f7 ff ff 	mov    -0x8c8(%rbp),%rax
   150ea:	48 89 85 18 f7 ff ff 	mov    %rax,-0x8e8(%rbp)
   150f1:	8b 85 c4 f6 ff ff    	mov    -0x93c(%rbp),%eax
   150f7:	be 07 00 00 00       	mov    $0x7,%esi
   150fc:	89 c7                	mov    %eax,%edi
   150fe:	e8 02 55 ff ff       	callq  a605 <safe_sub_func_int32_t_s_s>
   15103:	89 85 c4 f6 ff ff    	mov    %eax,-0x93c(%rbp)
   15109:	83 bd c4 f6 ff ff e7 	cmpl   $0xffffffe7,-0x93c(%rbp)
   15110:	7c a6                	jl     150b8 <func_43+0x3df>
   15112:	48 8b 85 10 f7 ff ff 	mov    -0x8f0(%rbp),%rax
   15119:	8b 00                	mov    (%rax),%eax
   1511b:	48 8b 5d d8          	mov    -0x28(%rbp),%rbx
   1511f:	64 48 33 1c 25 28 00 	xor    %fs:0x28,%rbx
   15126:	00 00 
   15128:	74 05                	je     1512f <func_43+0x456>
   1512a:	e8 41 4f ff ff       	callq  a070 <__stack_chk_fail@plt>
   1512f:	48 81 c4 48 09 00 00 	add    $0x948,%rsp
   15136:	5b                   	pop    %rbx
   15137:	41 5c                	pop    %r12
   15139:	41 5d                	pop    %r13
   1513b:	5d                   	pop    %rbp
   1513c:	c3                   	retq   

000000000001513d <func_49>:
   1513d:	f3 0f 1e fa          	endbr64 
   15141:	55                   	push   %rbp
   15142:	48 89 e5             	mov    %rsp,%rbp
   15145:	53                   	push   %rbx
   15146:	48 81 ec 00 10 00 00 	sub    $0x1000,%rsp
   1514d:	48 83 0c 24 00       	orq    $0x0,(%rsp)
   15152:	48 81 ec 98 00 00 00 	sub    $0x98,%rsp
   15159:	89 f8                	mov    %edi,%eax
   1515b:	88 85 6c ef ff ff    	mov    %al,-0x1094(%rbp)
   15161:	64 48 8b 04 25 28 00 	mov    %fs:0x28,%rax
   15168:	00 00 
   1516a:	48 89 45 e8          	mov    %rax,-0x18(%rbp)
   1516e:	31 c0                	xor    %eax,%eax
   15170:	66 c7 85 7c ef ff ff 	movw   $0x4577,-0x1084(%rbp)
   15177:	77 45 
   15179:	48 8d 85 60 f8 ff ff 	lea    -0x7a0(%rbp),%rax
   15180:	48 8d 15 d9 f5 00 00 	lea    0xf5d9(%rip),%rdx        # 24760 <g_2477+0x25a0>
   15187:	b9 96 00 00 00       	mov    $0x96,%ecx
   1518c:	48 89 c7             	mov    %rax,%rdi
   1518f:	48 89 d6             	mov    %rdx,%rsi
   15192:	f3 48 a5             	rep movsq %ds:(%rsi),%es:(%rdi)
   15195:	c7 85 80 ef ff ff ff 	movl   $0xffffffff,-0x1080(%rbp)
   1519c:	ff ff ff 
   1519f:	66 c7 85 7e ef ff ff 	movw   $0xfff6,-0x1082(%rbp)
   151a6:	f6 ff 
   151a8:	c7 85 84 ef ff ff f6 	movl   $0xfffffff6,-0x107c(%rbp)
   151af:	ff ff ff 
   151b2:	c7 85 a4 ef ff ff 41 	movl   $0x96e7cf41,-0x105c(%rbp)
   151b9:	cf e7 96 
   151bc:	c7 85 88 ef ff ff 01 	movl   $0x1,-0x1078(%rbp)
   151c3:	00 00 00 
   151c6:	48 c7 85 a8 ef ff ff 	movq   $0x6,-0x1058(%rbp)
   151cd:	06 00 00 00 
   151d1:	48 b8 9e f9 0d 2e 17 	movabs $0xa278c172e0df99e,%rax
   151d8:	8c 27 0a 
   151db:	48 89 85 c0 ef ff ff 	mov    %rax,-0x1040(%rbp)
   151e2:	c7 85 f0 ef ff ff f9 	movl   $0xfffffff9,-0x1010(%rbp)
   151e9:	ff ff ff 
   151ec:	c7 85 f4 ef ff ff 73 	movl   $0x70825073,-0x100c(%rbp)
   151f3:	50 82 70 
   151f6:	c7 85 f8 ef ff ff b1 	movl   $0xfb7d94b1,-0x1008(%rbp)
   151fd:	94 7d fb 
   15200:	c7 85 fc ef ff ff 89 	movl   $0x19d20f89,-0x1004(%rbp)
   15207:	0f d2 19 
   1520a:	c7 85 00 f0 ff ff 9e 	movl   $0x20a03b9e,-0x1000(%rbp)
   15211:	3b a0 20 
   15214:	c7 85 04 f0 ff ff 00 	movl   $0x0,-0xffc(%rbp)
   1521b:	00 00 00 
   1521e:	c7 85 08 f0 ff ff f9 	movl   $0x1b5eecf9,-0xff8(%rbp)
   15225:	ec 5e 1b 
   15228:	c7 85 0c f0 ff ff 60 	movl   $0x883a2f60,-0xff4(%rbp)
   1522f:	2f 3a 88 
   15232:	c7 85 10 f0 ff ff 60 	movl   $0x883a2f60,-0xff0(%rbp)
   15239:	2f 3a 88 
   1523c:	c7 85 14 f0 ff ff f9 	movl   $0x1b5eecf9,-0xfec(%rbp)
   15243:	ec 5e 1b 
   15246:	c7 85 18 f0 ff ff f9 	movl   $0xfffffff9,-0xfe8(%rbp)
   1524d:	ff ff ff 
   15250:	c7 85 1c f0 ff ff 73 	movl   $0x70825073,-0xfe4(%rbp)
   15257:	50 82 70 
   1525a:	c7 85 20 f0 ff ff b1 	movl   $0xfb7d94b1,-0xfe0(%rbp)
   15261:	94 7d fb 
   15264:	c7 85 24 f0 ff ff 89 	movl   $0x19d20f89,-0xfdc(%rbp)
   1526b:	0f d2 19 
   1526e:	c7 85 28 f0 ff ff 9e 	movl   $0x20a03b9e,-0xfd8(%rbp)
   15275:	3b a0 20 
   15278:	c7 85 2c f0 ff ff 00 	movl   $0x0,-0xfd4(%rbp)
   1527f:	00 00 00 
   15282:	c7 85 30 f0 ff ff f9 	movl   $0x1b5eecf9,-0xfd0(%rbp)
   15289:	ec 5e 1b 
   1528c:	c7 85 34 f0 ff ff 60 	movl   $0x883a2f60,-0xfcc(%rbp)
   15293:	2f 3a 88 
   15296:	c7 85 38 f0 ff ff 60 	movl   $0x883a2f60,-0xfc8(%rbp)
   1529d:	2f 3a 88 
   152a0:	c7 85 3c f0 ff ff f9 	movl   $0x1b5eecf9,-0xfc4(%rbp)
   152a7:	ec 5e 1b 
   152aa:	c7 85 40 f0 ff ff f9 	movl   $0xfffffff9,-0xfc0(%rbp)
   152b1:	ff ff ff 
   152b4:	c7 85 44 f0 ff ff 73 	movl   $0x70825073,-0xfbc(%rbp)
   152bb:	50 82 70 
   152be:	c7 85 48 f0 ff ff b1 	movl   $0xfb7d94b1,-0xfb8(%rbp)
   152c5:	94 7d fb 
   152c8:	c7 85 4c f0 ff ff 73 	movl   $0x70825073,-0xfb4(%rbp)
   152cf:	50 82 70 
   152d2:	c7 85 50 f0 ff ff 42 	movl   $0x9dd5c442,-0xfb0(%rbp)
   152d9:	c4 d5 9d 
   152dc:	c7 85 54 f0 ff ff 87 	movl   $0x46b6e087,-0xfac(%rbp)
   152e3:	e0 b6 46 
   152e6:	c7 85 58 f0 ff ff 01 	movl   $0x1,-0xfa8(%rbp)
   152ed:	00 00 00 
   152f0:	c7 85 5c f0 ff ff f9 	movl   $0x1b5eecf9,-0xfa4(%rbp)
   152f7:	ec 5e 1b 
   152fa:	c7 85 60 f0 ff ff f9 	movl   $0x1b5eecf9,-0xfa0(%rbp)
   15301:	ec 5e 1b 
   15304:	c7 85 64 f0 ff ff 01 	movl   $0x1,-0xf9c(%rbp)
   1530b:	00 00 00 
   1530e:	c7 85 68 f0 ff ff 07 	movl   $0x7,-0xf98(%rbp)
   15315:	00 00 00 
   15318:	c7 85 6c f0 ff ff 9e 	movl   $0xf294ec9e,-0xf94(%rbp)
   1531f:	ec 94 f2 
   15322:	c7 85 70 f0 ff ff 9e 	movl   $0x20a03b9e,-0xf90(%rbp)
   15329:	3b a0 20 
   1532c:	c7 85 74 f0 ff ff 73 	movl   $0x70825073,-0xf8c(%rbp)
   15333:	50 82 70 
   15336:	c7 85 78 f0 ff ff 42 	movl   $0x9dd5c442,-0xf88(%rbp)
   1533d:	c4 d5 9d 
   15340:	c7 85 7c f0 ff ff 87 	movl   $0x46b6e087,-0xf84(%rbp)
   15347:	e0 b6 46 
   1534a:	c7 85 80 f0 ff ff 01 	movl   $0x1,-0xf80(%rbp)
   15351:	00 00 00 
   15354:	c7 85 84 f0 ff ff f9 	movl   $0x1b5eecf9,-0xf7c(%rbp)
   1535b:	ec 5e 1b 
   1535e:	c7 85 88 f0 ff ff f9 	movl   $0x1b5eecf9,-0xf78(%rbp)
   15365:	ec 5e 1b 
   15368:	c7 85 8c f0 ff ff 01 	movl   $0x1,-0xf74(%rbp)
   1536f:	00 00 00 
   15372:	c7 85 90 f0 ff ff 07 	movl   $0x7,-0xf70(%rbp)
   15379:	00 00 00 
   1537c:	c7 85 94 f0 ff ff 9e 	movl   $0xf294ec9e,-0xf6c(%rbp)
   15383:	ec 94 f2 
   15386:	c7 85 98 f0 ff ff 9e 	movl   $0x20a03b9e,-0xf68(%rbp)
   1538d:	3b a0 20 
   15390:	c7 85 9c f0 ff ff 73 	movl   $0x70825073,-0xf64(%rbp)
   15397:	50 82 70 
   1539a:	c7 85 a0 f0 ff ff 42 	movl   $0x9dd5c442,-0xf60(%rbp)
   153a1:	c4 d5 9d 
   153a4:	c7 85 98 ef ff ff 2f 	movl   $0xb077342f,-0x1068(%rbp)
   153ab:	34 77 b0 
   153ae:	48 c7 85 b0 ef ff ff 	movq   $0x1,-0x1050(%rbp)
   153b5:	01 00 00 00 
   153b9:	c7 85 9c ef ff ff 24 	movl   $0x8cdeb724,-0x1064(%rbp)
   153c0:	b7 de 8c 
   153c3:	48 8d 05 06 0e 01 00 	lea    0x10e06(%rip),%rax        # 261d0 <g_283>
   153ca:	48 89 85 b8 ef ff ff 	mov    %rax,-0x1048(%rbp)
   153d1:	48 8d 85 b0 f0 ff ff 	lea    -0xf50(%rbp),%rax
   153d8:	48 8d 15 41 f8 00 00 	lea    0xf841(%rip),%rdx        # 24c20 <g_2477+0x2a60>
   153df:	b9 69 00 00 00       	mov    $0x69,%ecx
   153e4:	48 89 c7             	mov    %rax,%rdi
   153e7:	48 89 d6             	mov    %rdx,%rsi
   153ea:	f3 48 a5             	rep movsq %ds:(%rsi),%es:(%rdi)
   153ed:	c7 85 a0 ef ff ff 04 	movl   $0x4,-0x1060(%rbp)
   153f4:	00 00 00 
   153f7:	c7 85 8c ef ff ff 00 	movl   $0x0,-0x1074(%rbp)
   153fe:	00 00 00 
   15401:	eb 1a                	jmp    1541d <func_49+0x2e0>
   15403:	8b 85 8c ef ff ff    	mov    -0x1074(%rbp),%eax
   15409:	48 98                	cltq   
   1540b:	c7 84 85 e0 ef ff ff 	movl   $0xaf54d6fe,-0x1020(%rbp,%rax,4)
   15412:	fe d6 54 af 
   15416:	83 85 8c ef ff ff 01 	addl   $0x1,-0x1074(%rbp)
   1541d:	83 bd 8c ef ff ff 03 	cmpl   $0x3,-0x1074(%rbp)
   15424:	7e dd                	jle    15403 <func_49+0x2c6>
   15426:	c7 85 8c ef ff ff 00 	movl   $0x0,-0x1074(%rbp)
   1542d:	00 00 00 
   15430:	e9 8b 00 00 00       	jmpq   154c0 <func_49+0x383>
   15435:	c7 85 90 ef ff ff 00 	movl   $0x0,-0x1070(%rbp)
   1543c:	00 00 00 
   1543f:	eb 6f                	jmp    154b0 <func_49+0x373>
   15441:	c7 85 94 ef ff ff 00 	movl   $0x0,-0x106c(%rbp)
   15448:	00 00 00 
   1544b:	eb 53                	jmp    154a0 <func_49+0x363>
   1544d:	8b 85 94 ef ff ff    	mov    -0x106c(%rbp),%eax
   15453:	48 63 f0             	movslq %eax,%rsi
   15456:	8b 85 8c ef ff ff    	mov    -0x1074(%rbp),%eax
   1545c:	48 63 d0             	movslq %eax,%rdx
   1545f:	8b 85 90 ef ff ff    	mov    -0x1070(%rbp),%eax
   15465:	48 63 c8             	movslq %eax,%rcx
   15468:	48 89 d0             	mov    %rdx,%rax
   1546b:	48 c1 e0 03          	shl    $0x3,%rax
   1546f:	48 01 d0             	add    %rdx,%rax
   15472:	48 c1 e0 02          	shl    $0x2,%rax
   15476:	48 29 d0             	sub    %rdx,%rax
   15479:	48 89 ca             	mov    %rcx,%rdx
   1547c:	48 c1 e2 02          	shl    $0x2,%rdx
   15480:	48 01 ca             	add    %rcx,%rdx
   15483:	48 01 d0             	add    %rdx,%rax
   15486:	48 8d 14 30          	lea    (%rax,%rsi,1),%rdx
   1548a:	48 8d 85 88 ef ff ff 	lea    -0x1078(%rbp),%rax
   15491:	48 89 84 d5 00 f4 ff 	mov    %rax,-0xc00(%rbp,%rdx,8)
   15498:	ff 
   15499:	83 85 94 ef ff ff 01 	addl   $0x1,-0x106c(%rbp)
   154a0:	83 bd 94 ef ff ff 04 	cmpl   $0x4,-0x106c(%rbp)
   154a7:	7e a4                	jle    1544d <func_49+0x310>
   154a9:	83 85 90 ef ff ff 01 	addl   $0x1,-0x1070(%rbp)
   154b0:	83 bd 90 ef ff ff 06 	cmpl   $0x6,-0x1070(%rbp)
   154b7:	7e 88                	jle    15441 <func_49+0x304>
   154b9:	83 85 8c ef ff ff 01 	addl   $0x1,-0x1074(%rbp)
   154c0:	83 bd 8c ef ff ff 03 	cmpl   $0x3,-0x1074(%rbp)
   154c7:	0f 8e 68 ff ff ff    	jle    15435 <func_49+0x2f8>
   154cd:	c7 85 8c ef ff ff 00 	movl   $0x0,-0x1074(%rbp)
   154d4:	00 00 00 
   154d7:	eb 19                	jmp    154f2 <func_49+0x3b5>
   154d9:	8b 85 8c ef ff ff    	mov    -0x1074(%rbp),%eax
   154df:	48 98                	cltq   
   154e1:	66 c7 84 45 cc ef ff 	movw   $0x225d,-0x1034(%rbp,%rax,2)
   154e8:	ff 5d 22 
   154eb:	83 85 8c ef ff ff 01 	addl   $0x1,-0x1074(%rbp)
   154f2:	83 bd 8c ef ff ff 03 	cmpl   $0x3,-0x1074(%rbp)
   154f9:	7e de                	jle    154d9 <func_49+0x39c>
   154fb:	c7 85 8c ef ff ff 00 	movl   $0x0,-0x1074(%rbp)
   15502:	00 00 00 
   15505:	eb 42                	jmp    15549 <func_49+0x40c>
   15507:	c7 85 90 ef ff ff 00 	movl   $0x0,-0x1070(%rbp)
   1550e:	00 00 00 
   15511:	eb 26                	jmp    15539 <func_49+0x3fc>
   15513:	8b 85 90 ef ff ff    	mov    -0x1070(%rbp),%eax
   15519:	48 63 d0             	movslq %eax,%rdx
   1551c:	8b 85 8c ef ff ff    	mov    -0x1074(%rbp),%eax
   15522:	48 98                	cltq   
   15524:	48 01 d0             	add    %rdx,%rax
   15527:	c7 84 85 d4 ef ff ff 	movl   $0xde6e906c,-0x102c(%rbp,%rax,4)
   1552e:	6c 90 6e de 
   15532:	83 85 90 ef ff ff 01 	addl   $0x1,-0x1070(%rbp)
   15539:	83 bd 90 ef ff ff 00 	cmpl   $0x0,-0x1070(%rbp)
   15540:	7e d1                	jle    15513 <func_49+0x3d6>
   15542:	83 85 8c ef ff ff 01 	addl   $0x1,-0x1074(%rbp)
   15549:	83 bd 8c ef ff ff 02 	cmpl   $0x2,-0x1074(%rbp)
   15550:	7e b5                	jle    15507 <func_49+0x3ca>
   15552:	0f b7 85 7c ef ff ff 	movzwl -0x1084(%rbp),%eax
   15559:	0f b7 c0             	movzwl %ax,%eax
   1555c:	89 05 fa ba 00 00    	mov    %eax,0xbafa(%rip)        # 2105c <g_61>
   15562:	8b 05 c4 ba 00 00    	mov    0xbac4(%rip),%eax        # 2102c <g_27>
   15568:	48 63 d8             	movslq %eax,%rbx
   1556b:	0f b7 85 7c ef ff ff 	movzwl -0x1084(%rbp),%eax
   15572:	0f b7 d0             	movzwl %ax,%edx
   15575:	0f b7 85 7c ef ff ff 	movzwl -0x1084(%rbp),%eax
   1557c:	0f b7 c0             	movzwl %ax,%eax
   1557f:	48 89 d6             	mov    %rdx,%rsi
   15582:	48 89 c7             	mov    %rax,%rdi
   15585:	e8 25 5b ff ff       	callq  b0af <safe_div_func_uint64_t_u_u>
   1558a:	0f b6 05 c5 ba 00 00 	movzbl 0xbac5(%rip),%eax        # 21056 <g_57+0x2>
   15591:	66 98                	cbtw   
   15593:	0f b7 c0             	movzwl %ax,%eax
   15596:	89 c7                	mov    %eax,%edi
   15598:	e8 4c 57 ff ff       	callq  ace9 <safe_unary_minus_func_uint16_t_u>
   1559d:	66 83 f8 01          	cmp    $0x1,%ax
   155a1:	0f 97 c0             	seta   %al
   155a4:	0f b6 d0             	movzbl %al,%edx
   155a7:	0f b7 85 7c ef ff ff 	movzwl -0x1084(%rbp),%eax
   155ae:	0f b7 c0             	movzwl %ax,%eax
   155b1:	39 c2                	cmp    %eax,%edx
   155b3:	0f 95 c0             	setne  %al
   155b6:	0f b6 c0             	movzbl %al,%eax
   155b9:	48 89 de             	mov    %rbx,%rsi
   155bc:	48 89 c7             	mov    %rax,%rdi
   155bf:	e8 87 5a ff ff       	callq  b04b <safe_sub_func_uint64_t_u_u>
   155c4:	48 8b 85 a0 fa ff ff 	mov    -0x560(%rbp),%rax
   155cb:	48 8d 15 8a ba 00 00 	lea    0xba8a(%rip),%rdx        # 2105c <g_61>
   155d2:	48 39 d0             	cmp    %rdx,%rax
   155d5:	0f 95 c0             	setne  %al
   155d8:	0f b6 c0             	movzbl %al,%eax
   155db:	89 85 80 ef ff ff    	mov    %eax,-0x1080(%rbp)
   155e1:	8b 85 80 ef ff ff    	mov    -0x1080(%rbp),%eax
   155e7:	89 c7                	mov    %eax,%edi
   155e9:	e8 e3 02 00 00       	callq  158d1 <func_58>
   155ee:	48 89 c2             	mov    %rax,%rdx
   155f1:	0f b6 05 5e ba 00 00 	movzbl 0xba5e(%rip),%eax        # 21056 <g_57+0x2>
   155f8:	0f be c0             	movsbl %al,%eax
   155fb:	48 89 d6             	mov    %rdx,%rsi
   155fe:	89 c7                	mov    %eax,%edi
   15600:	e8 25 00 00 00       	callq  1562a <func_54>
   15605:	48 8b 85 a0 f3 ff ff 	mov    -0xc60(%rbp),%rax
   1560c:	48 8b 5d e8          	mov    -0x18(%rbp),%rbx
   15610:	64 48 33 1c 25 28 00 	xor    %fs:0x28,%rbx
   15617:	00 00 
   15619:	74 05                	je     15620 <func_49+0x4e3>
   1561b:	e8 50 4a ff ff       	callq  a070 <__stack_chk_fail@plt>
   15620:	48 81 c4 98 10 00 00 	add    $0x1098,%rsp
   15627:	5b                   	pop    %rbx
   15628:	5d                   	pop    %rbp
   15629:	c3                   	retq   

000000000001562a <func_54>:
   1562a:	f3 0f 1e fa          	endbr64 
   1562e:	55                   	push   %rbp
   1562f:	48 89 e5             	mov    %rsp,%rbp
   15632:	48 81 ec 00 01 00 00 	sub    $0x100,%rsp
   15639:	89 f8                	mov    %edi,%eax
   1563b:	48 89 b5 00 ff ff ff 	mov    %rsi,-0x100(%rbp)
   15642:	88 85 0c ff ff ff    	mov    %al,-0xf4(%rbp)
   15648:	64 48 8b 04 25 28 00 	mov    %fs:0x28,%rax
   1564f:	00 00 
   15651:	48 89 45 f8          	mov    %rax,-0x8(%rbp)
   15655:	31 c0                	xor    %eax,%eax
   15657:	48 c7 85 38 ff ff ff 	movq   $0xfffffffffffffff7,-0xc8(%rbp)
   1565e:	f7 ff ff ff 
   15662:	48 c7 85 40 ff ff ff 	movq   $0x0,-0xc0(%rbp)
   15669:	00 00 00 00 
   1566d:	48 8d 05 b0 b9 00 00 	lea    0xb9b0(%rip),%rax        # 21024 <g_2>
   15674:	48 89 85 28 ff ff ff 	mov    %rax,-0xd8(%rbp)
   1567b:	48 8d 85 28 ff ff ff 	lea    -0xd8(%rbp),%rax
   15682:	48 89 85 48 ff ff ff 	mov    %rax,-0xb8(%rbp)
   15689:	c7 85 70 ff ff ff 2a 	movl   $0x7775be2a,-0x90(%rbp)
   15690:	be 75 77 
   15693:	c7 85 74 ff ff ff fa 	movl   $0xfffffffa,-0x8c(%rbp)
   1569a:	ff ff ff 
   1569d:	c7 85 78 ff ff ff 92 	movl   $0x4ba4e592,-0x88(%rbp)
   156a4:	e5 a4 4b 
   156a7:	c7 85 7c ff ff ff ff 	movl   $0xffffffff,-0x84(%rbp)
   156ae:	ff ff ff 
   156b1:	c7 45 80 92 e5 a4 4b 	movl   $0x4ba4e592,-0x80(%rbp)
   156b8:	c7 45 84 fa ff ff ff 	movl   $0xfffffffa,-0x7c(%rbp)
   156bf:	c7 45 88 2a be 75 77 	movl   $0x7775be2a,-0x78(%rbp)
   156c6:	c7 45 8c 2a be 75 77 	movl   $0x7775be2a,-0x74(%rbp)
   156cd:	c7 45 90 fa ff ff ff 	movl   $0xfffffffa,-0x70(%rbp)
   156d4:	c7 45 94 92 e5 a4 4b 	movl   $0x4ba4e592,-0x6c(%rbp)
   156db:	c7 45 98 ff ff ff ff 	movl   $0xffffffff,-0x68(%rbp)
   156e2:	c7 45 9c 92 e5 a4 4b 	movl   $0x4ba4e592,-0x64(%rbp)
   156e9:	c7 45 a0 fa ff ff ff 	movl   $0xfffffffa,-0x60(%rbp)
   156f0:	c7 45 a4 2a be 75 77 	movl   $0x7775be2a,-0x5c(%rbp)
   156f7:	c7 05 9f b9 00 00 00 	movl   $0x0,0xb99f(%rip)        # 210a0 <g_80>
   156fe:	00 00 00 
   15701:	eb 52                	jmp    15755 <func_54+0x12b>
   15703:	c7 85 24 ff ff ff cf 	movl   $0x109203cf,-0xdc(%rbp)
   1570a:	03 92 10 
   1570d:	48 c7 85 30 ff ff ff 	movq   $0x0,-0xd0(%rbp)
   15714:	00 00 00 00 
   15718:	48 8d 85 30 ff ff ff 	lea    -0xd0(%rbp),%rax
   1571f:	48 89 85 60 ff ff ff 	mov    %rax,-0xa0(%rbp)
   15726:	8b 85 24 ff ff ff    	mov    -0xdc(%rbp),%eax
   1572c:	48 98                	cltq   
   1572e:	48 09 85 38 ff ff ff 	or     %rax,-0xc8(%rbp)
   15735:	48 8b 85 60 ff ff ff 	mov    -0xa0(%rbp),%rax
   1573c:	48 8d 15 95 b9 00 00 	lea    0xb995(%rip),%rdx        # 210d8 <g_108+0x18>
   15743:	48 89 10             	mov    %rdx,(%rax)
   15746:	8b 05 54 b9 00 00    	mov    0xb954(%rip),%eax        # 210a0 <g_80>
   1574c:	83 e8 01             	sub    $0x1,%eax
   1574f:	89 05 4b b9 00 00    	mov    %eax,0xb94b(%rip)        # 210a0 <g_80>
   15755:	8b 05 45 b9 00 00    	mov    0xb945(%rip),%eax        # 210a0 <g_80>
   1575b:	83 f8 fd             	cmp    $0xfffffffd,%eax
   1575e:	75 a3                	jne    15703 <func_54+0xd9>
   15760:	48 8b 85 38 ff ff ff 	mov    -0xc8(%rbp),%rax
   15767:	89 c7                	mov    %eax,%edi
   15769:	e8 63 01 00 00       	callq  158d1 <func_58>
   1576e:	48 8b 95 48 ff ff ff 	mov    -0xb8(%rbp),%rdx
   15775:	48 89 02             	mov    %rax,(%rdx)
   15778:	c7 05 62 b9 00 00 fa 	movl   $0xfffffffa,0xb962(%rip)        # 210e4 <g_147>
   1577f:	ff ff ff 
   15782:	e9 16 01 00 00       	jmpq   1589d <func_54+0x273>
   15787:	c6 85 17 ff ff ff 00 	movb   $0x0,-0xe9(%rbp)
   1578e:	48 8d 05 0b b9 00 00 	lea    0xb90b(%rip),%rax        # 210a0 <g_80>
   15795:	48 89 85 50 ff ff ff 	mov    %rax,-0xb0(%rbp)
   1579c:	c7 85 1c ff ff ff ff 	movl   $0xffffffff,-0xe4(%rbp)
   157a3:	ff ff ff 
   157a6:	48 8d 85 70 ff ff ff 	lea    -0x90(%rbp),%rax
   157ad:	48 83 c0 08          	add    $0x8,%rax
   157b1:	48 89 45 b0          	mov    %rax,-0x50(%rbp)
   157b5:	48 8d 85 70 ff ff ff 	lea    -0x90(%rbp),%rax
   157bc:	48 83 c0 08          	add    $0x8,%rax
   157c0:	48 89 45 b8          	mov    %rax,-0x48(%rbp)
   157c4:	48 8d 85 70 ff ff ff 	lea    -0x90(%rbp),%rax
   157cb:	48 83 c0 08          	add    $0x8,%rax
   157cf:	48 89 45 c0          	mov    %rax,-0x40(%rbp)
   157d3:	48 8d 85 70 ff ff ff 	lea    -0x90(%rbp),%rax
   157da:	48 83 c0 08          	add    $0x8,%rax
   157de:	48 89 45 c8          	mov    %rax,-0x38(%rbp)
   157e2:	48 8d 85 70 ff ff ff 	lea    -0x90(%rbp),%rax
   157e9:	48 83 c0 08          	add    $0x8,%rax
   157ed:	48 89 45 d0          	mov    %rax,-0x30(%rbp)
   157f1:	48 8d 85 70 ff ff ff 	lea    -0x90(%rbp),%rax
   157f8:	48 83 c0 08          	add    $0x8,%rax
   157fc:	48 89 45 d8          	mov    %rax,-0x28(%rbp)
   15800:	48 8d 85 70 ff ff ff 	lea    -0x90(%rbp),%rax
   15807:	48 83 c0 08          	add    $0x8,%rax
   1580b:	48 89 45 e0          	mov    %rax,-0x20(%rbp)
   1580f:	48 8d 85 70 ff ff ff 	lea    -0x90(%rbp),%rax
   15816:	48 83 c0 08          	add    $0x8,%rax
   1581a:	48 89 45 e8          	mov    %rax,-0x18(%rbp)
   1581e:	48 b8 21 a2 98 58 7f 	movabs $0x14b1f07f5898a221,%rax
   15825:	f0 b1 14 
   15828:	48 89 85 58 ff ff ff 	mov    %rax,-0xa8(%rbp)
   1582f:	c7 85 20 ff ff ff 00 	movl   $0x0,-0xe0(%rbp)
   15836:	00 00 00 
   15839:	c7 85 18 ff ff ff 00 	movl   $0x0,-0xe8(%rbp)
   15840:	00 00 00 
   15843:	eb 1a                	jmp    1585f <func_54+0x235>
   15845:	8b 85 18 ff ff ff    	mov    -0xe8(%rbp),%eax
   1584b:	48 98                	cltq   
   1584d:	c7 84 85 6c ff ff ff 	movl   $0xffffffff,-0x94(%rbp,%rax,4)
   15854:	ff ff ff ff 
   15858:	83 85 18 ff ff ff 01 	addl   $0x1,-0xe8(%rbp)
   1585f:	83 bd 18 ff ff ff 00 	cmpl   $0x0,-0xe8(%rbp)
   15866:	7e dd                	jle    15845 <func_54+0x21b>
   15868:	80 85 17 ff ff ff 01 	addb   $0x1,-0xe9(%rbp)
   1586f:	48 8b 85 00 ff ff ff 	mov    -0x100(%rbp),%rax
   15876:	8b 00                	mov    (%rax),%eax
   15878:	85 c0                	test   %eax,%eax
   1587a:	75 32                	jne    158ae <func_54+0x284>
   1587c:	83 ad 20 ff ff ff 01 	subl   $0x1,-0xe0(%rbp)
   15883:	8b 05 5b b8 00 00    	mov    0xb85b(%rip),%eax        # 210e4 <g_147>
   15889:	98                   	cwtl   
   1588a:	be 01 00 00 00       	mov    $0x1,%esi
   1588f:	89 c7                	mov    %eax,%edi
   15891:	e8 1d 4b ff ff       	callq  a3b3 <safe_add_func_int16_t_s_s>
   15896:	98                   	cwtl   
   15897:	89 05 47 b8 00 00    	mov    %eax,0xb847(%rip)        # 210e4 <g_147>
   1589d:	8b 05 41 b8 00 00    	mov    0xb841(%rip),%eax        # 210e4 <g_147>
   158a3:	83 f8 0a             	cmp    $0xa,%eax
   158a6:	0f 8f db fe ff ff    	jg     15787 <func_54+0x15d>
   158ac:	eb 01                	jmp    158af <func_54+0x285>
   158ae:	90                   	nop
   158af:	48 8b 85 48 ff ff ff 	mov    -0xb8(%rbp),%rax
   158b6:	48 8b 00             	mov    (%rax),%rax
   158b9:	8b 00                	mov    (%rax),%eax
   158bb:	48 8b 4d f8          	mov    -0x8(%rbp),%rcx
   158bf:	64 48 33 0c 25 28 00 	xor    %fs:0x28,%rcx
   158c6:	00 00 
   158c8:	74 05                	je     158cf <func_54+0x2a5>
   158ca:	e8 a1 47 ff ff       	callq  a070 <__stack_chk_fail@plt>
   158cf:	c9                   	leaveq 
   158d0:	c3                   	retq   

00000000000158d1 <func_58>:
   158d1:	f3 0f 1e fa          	endbr64 
   158d5:	55                   	push   %rbp
   158d6:	48 89 e5             	mov    %rsp,%rbp
   158d9:	41 54                	push   %r12
   158db:	53                   	push   %rbx
   158dc:	48 81 ec f0 00 00 00 	sub    $0xf0,%rsp
   158e3:	89 bd 0c ff ff ff    	mov    %edi,-0xf4(%rbp)
   158e9:	64 48 8b 04 25 28 00 	mov    %fs:0x28,%rax
   158f0:	00 00 
   158f2:	48 89 45 e8          	mov    %rax,-0x18(%rbp)
   158f6:	31 c0                	xor    %eax,%eax
   158f8:	48 c7 85 40 ff ff ff 	movq   $0x0,-0xc0(%rbp)
   158ff:	00 00 00 00 
   15903:	c7 85 24 ff ff ff 42 	movl   $0xb1619642,-0xdc(%rbp)
   1590a:	96 61 b1 
   1590d:	c7 85 28 ff ff ff 01 	movl   $0x1,-0xd8(%rbp)
   15914:	00 00 00 
   15917:	c7 85 18 ff ff ff 00 	movl   $0x0,-0xe8(%rbp)
   1591e:	00 00 00 
   15921:	eb 1e                	jmp    15941 <func_58+0x70>
   15923:	8b 85 18 ff ff ff    	mov    -0xe8(%rbp),%eax
   15929:	48 98                	cltq   
   1592b:	48 b9 a7 cf fa 30 10 	movabs $0xd26f361030facfa7,%rcx
   15932:	36 6f d2 
   15935:	48 89 4c c5 80       	mov    %rcx,-0x80(%rbp,%rax,8)
   1593a:	83 85 18 ff ff ff 01 	addl   $0x1,-0xe8(%rbp)
   15941:	83 bd 18 ff ff ff 03 	cmpl   $0x3,-0xe8(%rbp)
   15948:	7e d9                	jle    15923 <func_58+0x52>
   1594a:	48 c7 05 e3 b6 00 00 	movq   $0x0,0xb6e3(%rip)        # 21038 <g_38>
   15951:	00 00 00 00 
   15955:	e9 14 03 00 00       	jmpq   15c6e <func_58+0x39d>
   1595a:	48 8d 05 cb b6 00 00 	lea    0xb6cb(%rip),%rax        # 2102c <g_27>
   15961:	48 89 85 38 ff ff ff 	mov    %rax,-0xc8(%rbp)
   15968:	c7 85 1c ff ff ff f4 	movl   $0x41872af4,-0xe4(%rbp)
   1596f:	2a 87 41 
   15972:	c7 85 20 ff ff ff ff 	movl   $0xffffffff,-0xe0(%rbp)
   15979:	ff ff ff 
   1597c:	48 8b 85 38 ff ff ff 	mov    -0xc8(%rbp),%rax
   15983:	8b 95 0c ff ff ff    	mov    -0xf4(%rbp),%edx
   15989:	89 10                	mov    %edx,(%rax)
   1598b:	c7 05 97 b6 00 00 e9 	movl   $0xffffffe9,0xb697(%rip)        # 2102c <g_27>
   15992:	ff ff ff 
   15995:	e9 a6 02 00 00       	jmpq   15c40 <func_58+0x36f>
   1599a:	48 b8 b9 60 73 73 35 	movabs $0x7ef5e135737360b9,%rax
   159a1:	e1 f5 7e 
   159a4:	48 89 85 58 ff ff ff 	mov    %rax,-0xa8(%rbp)
   159ab:	c7 85 0c ff ff ff 00 	movl   $0x0,-0xf4(%rbp)
   159b2:	00 00 00 
   159b5:	e9 c4 01 00 00       	jmpq   15b7e <func_58+0x2ad>
   159ba:	48 8d 85 38 ff ff ff 	lea    -0xc8(%rbp),%rax
   159c1:	48 89 85 60 ff ff ff 	mov    %rax,-0xa0(%rbp)
   159c8:	48 8d 05 d5 b6 00 00 	lea    0xb6d5(%rip),%rax        # 210a4 <g_104>
   159cf:	48 89 85 68 ff ff ff 	mov    %rax,-0x98(%rbp)
   159d6:	48 8d 45 80          	lea    -0x80(%rbp),%rax
   159da:	48 83 c0 10          	add    $0x10,%rax
   159de:	48 89 85 70 ff ff ff 	mov    %rax,-0x90(%rbp)
   159e5:	48 b8 c5 5b c9 eb 85 	movabs $0x7407285ebc95bc5,%rax
   159ec:	72 40 07 
   159ef:	48 89 85 78 ff ff ff 	mov    %rax,-0x88(%rbp)
   159f6:	be 01 00 00 00       	mov    $0x1,%esi
   159fb:	bf 01 00 00 00       	mov    $0x1,%edi
   15a00:	e8 88 52 ff ff       	callq  ac8d <safe_rshift_func_uint8_t_u_s>
   15a05:	89 c2                	mov    %eax,%edx
   15a07:	48 8b 05 7a f5 00 00 	mov    0xf57a(%rip),%rax        # 24f88 <g_79>
   15a0e:	0f b6 d2             	movzbl %dl,%edx
   15a11:	89 10                	mov    %edx,(%rax)
   15a13:	48 8b 45 90          	mov    -0x70(%rbp),%rax
   15a17:	48 83 c0 01          	add    $0x1,%rax
   15a1b:	48 89 45 90          	mov    %rax,-0x70(%rbp)
   15a1f:	48 8b 05 62 f5 00 00 	mov    0xf562(%rip),%rax        # 24f88 <g_79>
   15a26:	44 8b 20             	mov    (%rax),%r12d
   15a29:	8b 05 2d b6 00 00    	mov    0xb62d(%rip),%eax        # 2105c <g_61>
   15a2f:	85 c0                	test   %eax,%eax
   15a31:	74 16                	je     15a49 <func_58+0x178>
   15a33:	48 8b 85 60 ff ff ff 	mov    -0xa0(%rbp),%rax
   15a3a:	48 c7 00 00 00 00 00 	movq   $0x0,(%rax)
   15a41:	48 83 bd 40 ff ff ff 	cmpq   $0x0,-0xc0(%rbp)
   15a48:	00 
   15a49:	48 8b 85 58 ff ff ff 	mov    -0xa8(%rbp),%rax
   15a50:	0f b7 d8             	movzwl %ax,%ebx
   15a53:	8b 05 cb b5 00 00    	mov    0xb5cb(%rip),%eax        # 21024 <g_2>
   15a59:	89 c2                	mov    %eax,%edx
   15a5b:	48 8b 85 68 ff ff ff 	mov    -0x98(%rbp),%rax
   15a62:	66 89 10             	mov    %dx,(%rax)
   15a65:	48 8b 85 68 ff ff ff 	mov    -0x98(%rbp),%rax
   15a6c:	0f b7 00             	movzwl (%rax),%eax
   15a6f:	0f bf d0             	movswl %ax,%edx
   15a72:	8b 85 1c ff ff ff    	mov    -0xe4(%rbp),%eax
   15a78:	98                   	cwtl   
   15a79:	89 d6                	mov    %edx,%esi
   15a7b:	89 c7                	mov    %eax,%edi
   15a7d:	e8 73 49 ff ff       	callq  a3f5 <safe_mul_func_int16_t_s_s>
   15a82:	89 de                	mov    %ebx,%esi
   15a84:	bf 01 00 00 00       	mov    $0x1,%edi
   15a89:	e8 af 52 ff ff       	callq  ad3d <safe_mul_func_uint16_t_u_u>
   15a8e:	0f b7 d0             	movzwl %ax,%edx
   15a91:	0f b7 05 b0 b5 00 00 	movzwl 0xb5b0(%rip),%eax        # 21048 <g_48+0x8>
   15a98:	c1 e0 05             	shl    $0x5,%eax
   15a9b:	66 c1 f8 05          	sar    $0x5,%ax
   15a9f:	98                   	cwtl   
   15aa0:	39 c2                	cmp    %eax,%edx
   15aa2:	74 07                	je     15aab <func_58+0x1da>
   15aa4:	b8 01 00 00 00       	mov    $0x1,%eax
   15aa9:	eb 05                	jmp    15ab0 <func_58+0x1df>
   15aab:	b8 00 00 00 00       	mov    $0x0,%eax
   15ab0:	89 c6                	mov    %eax,%esi
   15ab2:	bf 00 00 00 00       	mov    $0x0,%edi
   15ab7:	e8 d7 50 ff ff       	callq  ab93 <safe_mul_func_uint8_t_u_u>
   15abc:	0f b6 c0             	movzbl %al,%eax
   15abf:	48 39 85 58 ff ff ff 	cmp    %rax,-0xa8(%rbp)
   15ac6:	0f 9c c0             	setl   %al
   15ac9:	0f b6 d0             	movzbl %al,%edx
   15acc:	48 8b 85 70 ff ff ff 	mov    -0x90(%rbp),%rax
   15ad3:	48 89 10             	mov    %rdx,(%rax)
   15ad6:	48 8b 85 70 ff ff ff 	mov    -0x90(%rbp),%rax
   15add:	48 8b 10             	mov    (%rax),%rdx
   15ae0:	48 8b 05 51 b5 00 00 	mov    0xb551(%rip),%rax        # 21038 <g_38>
   15ae7:	48 39 c2             	cmp    %rax,%rdx
   15aea:	0f 95 c0             	setne  %al
   15aed:	0f b6 c0             	movzbl %al,%eax
   15af0:	48 39 85 78 ff ff ff 	cmp    %rax,-0x88(%rbp)
   15af7:	0f 9c c0             	setl   %al
   15afa:	0f b6 c0             	movzbl %al,%eax
   15afd:	be ef 97 00 00       	mov    $0x97ef,%esi
   15b02:	89 c7                	mov    %eax,%edi
   15b04:	e8 34 52 ff ff       	callq  ad3d <safe_mul_func_uint16_t_u_u>
   15b09:	0f b7 c0             	movzwl %ax,%eax
   15b0c:	be 00 00 00 00       	mov    $0x0,%esi
   15b11:	48 89 c7             	mov    %rax,%rdi
   15b14:	e8 15 55 ff ff       	callq  b02e <safe_add_func_uint64_t_u_u>
   15b19:	be 0c 00 00 00       	mov    $0xc,%esi
   15b1e:	bf 01 00 00 00       	mov    $0x1,%edi
   15b23:	e8 b9 49 ff ff       	callq  a4e1 <safe_lshift_func_int16_t_s_u>
   15b28:	98                   	cwtl   
   15b29:	41 39 c4             	cmp    %eax,%r12d
   15b2c:	0f 9c c0             	setl   %al
   15b2f:	0f b6 d0             	movzbl %al,%edx
   15b32:	8b 85 0c ff ff ff    	mov    -0xf4(%rbp),%eax
   15b38:	0f b6 c0             	movzbl %al,%eax
   15b3b:	89 d6                	mov    %edx,%esi
   15b3d:	89 c7                	mov    %eax,%edi
   15b3f:	e8 7a 51 ff ff       	callq  acbe <safe_rshift_func_uint8_t_u_u>
   15b44:	48 8b 05 25 b5 00 00 	mov    0xb525(%rip),%rax        # 21070 <g_68+0x10>
   15b4b:	48 85 c0             	test   %rax,%rax
   15b4e:	0f 95 c0             	setne  %al
   15b51:	0f b6 d0             	movzbl %al,%edx
   15b54:	0f b6 05 fb b4 00 00 	movzbl 0xb4fb(%rip),%eax        # 21056 <g_57+0x2>
   15b5b:	0f be c0             	movsbl %al,%eax
   15b5e:	39 c2                	cmp    %eax,%edx
   15b60:	0f 9c c2             	setl   %dl
   15b63:	48 8b 05 1e f4 00 00 	mov    0xf41e(%rip),%rax        # 24f88 <g_79>
   15b6a:	0f b6 d2             	movzbl %dl,%edx
   15b6d:	89 10                	mov    %edx,(%rax)
   15b6f:	8b 85 0c ff ff ff    	mov    -0xf4(%rbp),%eax
   15b75:	83 c0 01             	add    $0x1,%eax
   15b78:	89 85 0c ff ff ff    	mov    %eax,-0xf4(%rbp)
   15b7e:	8b 85 0c ff ff ff    	mov    -0xf4(%rbp),%eax
   15b84:	83 f8 02             	cmp    $0x2,%eax
   15b87:	0f 8f 2d fe ff ff    	jg     159ba <func_58+0xe9>
   15b8d:	c7 85 1c ff ff ff 07 	movl   $0x7,-0xe4(%rbp)
   15b94:	00 00 00 
   15b97:	eb 24                	jmp    15bbd <func_58+0x2ec>
   15b99:	48 8d 15 38 b5 00 00 	lea    0xb538(%rip),%rdx        # 210d8 <g_108+0x18>
   15ba0:	48 8d 05 35 b5 00 00 	lea    0xb535(%rip),%rax        # 210dc <g_108+0x1c>
   15ba7:	48 39 c2             	cmp    %rax,%rdx
   15baa:	0f 95 c0             	setne  %al
   15bad:	0f b6 c0             	movzbl %al,%eax
   15bb0:	31 85 20 ff ff ff    	xor    %eax,-0xe0(%rbp)
   15bb6:	83 ad 1c ff ff ff 01 	subl   $0x1,-0xe4(%rbp)
   15bbd:	83 bd 1c ff ff ff 01 	cmpl   $0x1,-0xe4(%rbp)
   15bc4:	7f d3                	jg     15b99 <func_58+0x2c8>
   15bc6:	48 8b 05 b3 f3 00 00 	mov    0xf3b3(%rip),%rax        # 24f80 <g_47>
   15bcd:	8b 10                	mov    (%rax),%edx
   15bcf:	81 e2 00 00 00 80    	and    $0x80000000,%edx
   15bd5:	81 ca 8b 9a ff 7f    	or     $0x7fff9a8b,%edx
   15bdb:	89 10                	mov    %edx,(%rax)
   15bdd:	8b 50 04             	mov    0x4(%rax),%edx
   15be0:	81 e2 00 00 f0 ff    	and    $0xfff00000,%edx
   15be6:	81 ca a2 01 00 00    	or     $0x1a2,%edx
   15bec:	89 50 04             	mov    %edx,0x4(%rax)
   15bef:	0f b7 50 06          	movzwl 0x6(%rax),%edx
   15bf3:	83 e2 0f             	and    $0xf,%edx
   15bf6:	66 81 ca 10 03       	or     $0x310,%dx
   15bfb:	66 89 50 06          	mov    %dx,0x6(%rax)
   15bff:	0f b7 50 08          	movzwl 0x8(%rax),%edx
   15c03:	66 81 e2 00 f8       	and    $0xf800,%dx
   15c08:	83 ca 28             	or     $0x28,%edx
   15c0b:	66 89 50 08          	mov    %dx,0x8(%rax)
   15c0f:	8b 50 0c             	mov    0xc(%rax),%edx
   15c12:	81 e2 00 00 00 fc    	and    $0xfc000000,%edx
   15c18:	81 ca 96 09 00 00    	or     $0x996,%edx
   15c1e:	89 50 0c             	mov    %edx,0xc(%rax)
   15c21:	0f b7 50 10          	movzwl 0x10(%rax),%edx
   15c25:	66 81 e2 00 fc       	and    $0xfc00,%dx
   15c2a:	83 ca 10             	or     $0x10,%edx
   15c2d:	66 89 50 10          	mov    %dx,0x10(%rax)
   15c31:	8b 05 f5 b3 00 00    	mov    0xb3f5(%rip),%eax        # 2102c <g_27>
   15c37:	83 c0 01             	add    $0x1,%eax
   15c3a:	89 05 ec b3 00 00    	mov    %eax,0xb3ec(%rip)        # 2102c <g_27>
   15c40:	8b 05 e6 b3 00 00    	mov    0xb3e6(%rip),%eax        # 2102c <g_27>
   15c46:	83 f8 1c             	cmp    $0x1c,%eax
   15c49:	0f 8f 4b fd ff ff    	jg     1599a <func_58+0xc9>
   15c4f:	48 8b 05 e2 b3 00 00 	mov    0xb3e2(%rip),%rax        # 21038 <g_38>
   15c56:	98                   	cwtl   
   15c57:	be 03 00 00 00       	mov    $0x3,%esi
   15c5c:	89 c7                	mov    %eax,%edi
   15c5e:	e8 50 47 ff ff       	callq  a3b3 <safe_add_func_int16_t_s_s>
   15c63:	48 0f bf c0          	movswq %ax,%rax
   15c67:	48 89 05 ca b3 00 00 	mov    %rax,0xb3ca(%rip)        # 21038 <g_38>
   15c6e:	48 8b 05 c3 b3 00 00 	mov    0xb3c3(%rip),%rax        # 21038 <g_38>
   15c75:	48 83 f8 18          	cmp    $0x18,%rax
   15c79:	0f 86 db fc ff ff    	jbe    1595a <func_58+0x89>
   15c7f:	c7 05 a3 b3 00 00 01 	movl   $0x1,0xb3a3(%rip)        # 2102c <g_27>
   15c86:	00 00 00 
   15c89:	e9 f9 01 00 00       	jmpq   15e87 <func_58+0x5b6>
   15c8e:	c6 85 17 ff ff ff 7e 	movb   $0x7e,-0xe9(%rbp)
   15c95:	48 8d 05 44 b4 00 00 	lea    0xb444(%rip),%rax        # 210e0 <g_125>
   15c9c:	48 89 85 48 ff ff ff 	mov    %rax,-0xb8(%rbp)
   15ca3:	48 8d 05 1e 05 01 00 	lea    0x1051e(%rip),%rax        # 261c8 <g_132>
   15caa:	48 89 45 a0          	mov    %rax,-0x60(%rbp)
   15cae:	48 8d 05 13 05 01 00 	lea    0x10513(%rip),%rax        # 261c8 <g_132>
   15cb5:	48 89 45 a8          	mov    %rax,-0x58(%rbp)
   15cb9:	48 8d 05 08 05 01 00 	lea    0x10508(%rip),%rax        # 261c8 <g_132>
   15cc0:	48 89 45 b0          	mov    %rax,-0x50(%rbp)
   15cc4:	48 8d 05 fd 04 01 00 	lea    0x104fd(%rip),%rax        # 261c8 <g_132>
   15ccb:	48 89 45 b8          	mov    %rax,-0x48(%rbp)
   15ccf:	48 8d 05 f2 04 01 00 	lea    0x104f2(%rip),%rax        # 261c8 <g_132>
   15cd6:	48 89 45 c0          	mov    %rax,-0x40(%rbp)
   15cda:	48 8d 05 e7 04 01 00 	lea    0x104e7(%rip),%rax        # 261c8 <g_132>
   15ce1:	48 89 45 c8          	mov    %rax,-0x38(%rbp)
   15ce5:	48 8d 05 dc 04 01 00 	lea    0x104dc(%rip),%rax        # 261c8 <g_132>
   15cec:	48 89 45 d0          	mov    %rax,-0x30(%rbp)
   15cf0:	48 8d 05 d1 04 01 00 	lea    0x104d1(%rip),%rax        # 261c8 <g_132>
   15cf7:	48 89 45 d8          	mov    %rax,-0x28(%rbp)
   15cfb:	c7 85 2c ff ff ff 08 	movl   $0x8,-0xd4(%rbp)
   15d02:	00 00 00 
   15d05:	c7 85 30 ff ff ff e0 	movl   $0x3d1ce2e0,-0xd0(%rbp)
   15d0c:	e2 1c 3d 
   15d0f:	c7 85 38 ff ff ff 69 	movl   $0x41400369,-0xc8(%rbp)
   15d16:	03 40 41 
   15d19:	c7 85 34 ff ff ff f2 	movl   $0x47b41cf2,-0xcc(%rbp)
   15d20:	1c b4 47 
   15d23:	48 8d 85 38 ff ff ff 	lea    -0xc8(%rbp),%rax
   15d2a:	48 89 85 50 ff ff ff 	mov    %rax,-0xb0(%rbp)
   15d31:	8b 85 0c ff ff ff    	mov    -0xf4(%rbp),%eax
   15d37:	0f be d8             	movsbl %al,%ebx
   15d3a:	be 00 00 00 00       	mov    $0x0,%esi
   15d3f:	bf a6 76 00 00       	mov    $0x76a6,%edi
   15d44:	e8 98 47 ff ff       	callq  a4e1 <safe_lshift_func_int16_t_s_u>
   15d49:	8b 85 0c ff ff ff    	mov    -0xf4(%rbp),%eax
   15d4f:	39 85 34 ff ff ff    	cmp    %eax,-0xcc(%rbp)
   15d55:	0f 9f c0             	setg   %al
   15d58:	0f b6 c0             	movzbl %al,%eax
   15d5b:	be 00 00 00 00       	mov    $0x0,%esi
   15d60:	89 c7                	mov    %eax,%edi
   15d62:	e8 ab 44 ff ff       	callq  a212 <safe_mul_func_int8_t_s_s>
   15d67:	48 8b 05 02 43 00 00 	mov    0x4302(%rip),%rax        # 1a070 <g_110+0x10>
   15d6e:	66 25 ff 03          	and    $0x3ff,%ax
   15d72:	0f b6 c0             	movzbl %al,%eax
   15d75:	be 01 00 00 00       	mov    $0x1,%esi
   15d7a:	89 c7                	mov    %eax,%edi
   15d7c:	e8 d9 4d ff ff       	callq  ab5a <safe_add_func_uint8_t_u_u>
   15d81:	8b 05 41 04 01 00    	mov    0x10441(%rip),%eax        # 261c8 <g_132>
   15d87:	83 e8 01             	sub    $0x1,%eax
   15d8a:	89 05 38 04 01 00    	mov    %eax,0x10438(%rip)        # 261c8 <g_132>
   15d90:	8b 05 32 04 01 00    	mov    0x10432(%rip),%eax        # 261c8 <g_132>
   15d96:	3d f7 64 c0 56       	cmp    $0x56c064f7,%eax
   15d9b:	0f 96 c0             	setbe  %al
   15d9e:	0f b6 c0             	movzbl %al,%eax
   15da1:	89 85 30 ff ff ff    	mov    %eax,-0xd0(%rbp)
   15da7:	8b 95 30 ff ff ff    	mov    -0xd0(%rbp),%edx
   15dad:	8b 05 ed b2 00 00    	mov    0xb2ed(%rip),%eax        # 210a0 <g_80>
   15db3:	21 d0                	and    %edx,%eax
   15db5:	89 05 e5 b2 00 00    	mov    %eax,0xb2e5(%rip)        # 210a0 <g_80>
   15dbb:	8b 15 df b2 00 00    	mov    0xb2df(%rip),%edx        # 210a0 <g_80>
   15dc1:	48 8b 85 50 ff ff ff 	mov    -0xb0(%rbp),%rax
   15dc8:	89 10                	mov    %edx,(%rax)
   15dca:	48 8d 85 0c ff ff ff 	lea    -0xf4(%rbp),%rax
   15dd1:	48 89 05 b8 f1 00 00 	mov    %rax,0xf1b8(%rip)        # 24f90 <g_128>
   15dd8:	48 8b 85 48 ff ff ff 	mov    -0xb8(%rbp),%rax
   15ddf:	0f b6 00             	movzbl (%rax),%eax
   15de2:	8d 48 ff             	lea    -0x1(%rax),%ecx
   15de5:	48 8b 95 48 ff ff ff 	mov    -0xb8(%rbp),%rdx
   15dec:	88 0a                	mov    %cl,(%rdx)
   15dee:	0f b6 c0             	movzbl %al,%eax
   15df1:	be 01 00 00 00       	mov    $0x1,%esi
   15df6:	89 c7                	mov    %eax,%edi
   15df8:	e8 7b 4d ff ff       	callq  ab78 <safe_sub_func_uint8_t_u_u>
   15dfd:	0f be c0             	movsbl %al,%eax
   15e00:	be 01 00 00 00       	mov    $0x1,%esi
   15e05:	89 c7                	mov    %eax,%edi
   15e07:	e8 e6 43 ff ff       	callq  a1f2 <safe_sub_func_int8_t_s_s>
   15e0c:	0f be d0             	movsbl %al,%edx
   15e0f:	0f be 85 17 ff ff ff 	movsbl -0xe9(%rbp),%eax
   15e16:	89 d6                	mov    %edx,%esi
   15e18:	89 c7                	mov    %eax,%edi
   15e1a:	e8 36 46 ff ff       	callq  a455 <safe_div_func_int16_t_s_s>
   15e1f:	48 8b 05 12 b2 00 00 	mov    0xb212(%rip),%rax        # 21038 <g_38>
   15e26:	48 85 c0             	test   %rax,%rax
   15e29:	0f 95 c0             	setne  %al
   15e2c:	0f b6 c0             	movzbl %al,%eax
   15e2f:	be 00 00 00 00       	mov    $0x0,%esi
   15e34:	89 c7                	mov    %eax,%edi
   15e36:	e8 83 4f ff ff       	callq  adbe <safe_lshift_func_uint16_t_u_s>
   15e3b:	66 85 c0             	test   %ax,%ax
   15e3e:	74 11                	je     15e51 <func_58+0x580>
   15e40:	8b 05 16 b2 00 00    	mov    0xb216(%rip),%eax        # 2105c <g_61>
   15e46:	85 c0                	test   %eax,%eax
   15e48:	74 07                	je     15e51 <func_58+0x580>
   15e4a:	ba 01 00 00 00       	mov    $0x1,%edx
   15e4f:	eb 05                	jmp    15e56 <func_58+0x585>
   15e51:	ba 00 00 00 00       	mov    $0x0,%edx
   15e56:	8b 85 0c ff ff ff    	mov    -0xf4(%rbp),%eax
   15e5c:	39 c2                	cmp    %eax,%edx
   15e5e:	89 de                	mov    %ebx,%esi
   15e60:	bf 01 00 00 00       	mov    $0x1,%edi
   15e65:	e8 a8 43 ff ff       	callq  a212 <safe_mul_func_int8_t_s_s>
   15e6a:	89 c2                	mov    %eax,%edx
   15e6c:	48 8b 05 25 f1 00 00 	mov    0xf125(%rip),%rax        # 24f98 <g_146>
   15e73:	0f be d2             	movsbl %dl,%edx
   15e76:	89 10                	mov    %edx,(%rax)
   15e78:	8b 05 ae b1 00 00    	mov    0xb1ae(%rip),%eax        # 2102c <g_27>
   15e7e:	83 c0 01             	add    $0x1,%eax
   15e81:	89 05 a5 b1 00 00    	mov    %eax,0xb1a5(%rip)        # 2102c <g_27>
   15e87:	8b 05 9f b1 00 00    	mov    0xb19f(%rip),%eax        # 2102c <g_27>
   15e8d:	83 f8 14             	cmp    $0x14,%eax
   15e90:	0f 8f f8 fd ff ff    	jg     15c8e <func_58+0x3bd>
   15e96:	48 8d 05 87 b1 00 00 	lea    0xb187(%rip),%rax        # 21024 <g_2>
   15e9d:	48 8b 4d e8          	mov    -0x18(%rbp),%rcx
   15ea1:	64 48 33 0c 25 28 00 	xor    %fs:0x28,%rcx
   15ea8:	00 00 
   15eaa:	74 05                	je     15eb1 <func_58+0x5e0>
   15eac:	e8 bf 41 ff ff       	callq  a070 <__stack_chk_fail@plt>
   15eb1:	48 81 c4 f0 00 00 00 	add    $0xf0,%rsp
   15eb8:	5b                   	pop    %rbx
   15eb9:	41 5c                	pop    %r12
   15ebb:	5d                   	pop    %rbp
   15ebc:	c3                   	retq   

0000000000015ebd <main>:
   15ebd:	f3 0f 1e fa          	endbr64 
   15ec1:	55                   	push   %rbp
   15ec2:	48 89 e5             	mov    %rsp,%rbp
   15ec5:	48 83 ec 50          	sub    $0x50,%rsp
   15ec9:	89 7d dc             	mov    %edi,-0x24(%rbp)
   15ecc:	48 89 75 d0          	mov    %rsi,-0x30(%rbp)
   15ed0:	64 48 8b 04 25 28 00 	mov    %fs:0x28,%rax
   15ed7:	00 00 
   15ed9:	48 89 45 f8          	mov    %rax,-0x8(%rbp)
   15edd:	31 c0                	xor    %eax,%eax
   15edf:	c7 45 f4 00 00 00 00 	movl   $0x0,-0xc(%rbp)
   15ee6:	83 7d dc 02          	cmpl   $0x2,-0x24(%rbp)
   15eea:	74 25                	je     15f11 <main+0x54>
   15eec:	48 8b 45 d0          	mov    -0x30(%rbp),%rax
   15ef0:	48 83 c0 08          	add    $0x8,%rax
   15ef4:	48 8b 00             	mov    (%rax),%rax
   15ef7:	48 8d 35 22 6d 00 00 	lea    0x6d22(%rip),%rsi        # 1cc20 <g_2454+0x28a8>
   15efe:	48 89 c7             	mov    %rax,%rdi
   15f01:	e8 8a 41 ff ff       	callq  a090 <strcmp@plt>
   15f06:	85 c0                	test   %eax,%eax
   15f08:	74 07                	je     15f11 <main+0x54>
   15f0a:	c7 45 f4 01 00 00 00 	movl   $0x1,-0xc(%rbp)
   15f11:	e8 73 42 ff ff       	callq  a189 <platform_main_begin>
   15f16:	e8 7d 56 ff ff       	callq  b598 <crc32_gentab>
   15f1b:	48 8d 45 b0          	lea    -0x50(%rbp),%rax
   15f1f:	48 89 c7             	mov    %rax,%rdi
   15f22:	e8 8e 58 ff ff       	callq  b7b5 <func_1>
   15f27:	8b 05 f7 b0 00 00    	mov    0xb0f7(%rip),%eax        # 21024 <g_2>
   15f2d:	48 98                	cltq   
   15f2f:	8b 55 f4             	mov    -0xc(%rbp),%edx
   15f32:	48 8d 35 e9 6c 00 00 	lea    0x6ce9(%rip),%rsi        # 1cc22 <g_2454+0x28aa>
   15f39:	48 89 c7             	mov    %rax,%rdi
   15f3c:	e8 b2 57 ff ff       	callq  b6f3 <transparent_crc>
   15f41:	8b 05 e1 b0 00 00    	mov    0xb0e1(%rip),%eax        # 21028 <g_11>
   15f47:	48 98                	cltq   
   15f49:	8b 55 f4             	mov    -0xc(%rbp),%edx
   15f4c:	48 8d 35 d3 6c 00 00 	lea    0x6cd3(%rip),%rsi        # 1cc26 <g_2454+0x28ae>
   15f53:	48 89 c7             	mov    %rax,%rdi
   15f56:	e8 98 57 ff ff       	callq  b6f3 <transparent_crc>
   15f5b:	8b 05 cb b0 00 00    	mov    0xb0cb(%rip),%eax        # 2102c <g_27>
   15f61:	48 98                	cltq   
   15f63:	8b 55 f4             	mov    -0xc(%rbp),%edx
   15f66:	48 8d 35 be 6c 00 00 	lea    0x6cbe(%rip),%rsi        # 1cc2b <g_2454+0x28b3>
   15f6d:	48 89 c7             	mov    %rax,%rdi
   15f70:	e8 7e 57 ff ff       	callq  b6f3 <transparent_crc>
   15f75:	48 8b 05 b4 b0 00 00 	mov    0xb0b4(%rip),%rax        # 21030 <g_37>
   15f7c:	48 89 c1             	mov    %rax,%rcx
   15f7f:	8b 45 f4             	mov    -0xc(%rbp),%eax
   15f82:	89 c2                	mov    %eax,%edx
   15f84:	48 8d 35 a5 6c 00 00 	lea    0x6ca5(%rip),%rsi        # 1cc30 <g_2454+0x28b8>
   15f8b:	48 89 cf             	mov    %rcx,%rdi
   15f8e:	e8 60 57 ff ff       	callq  b6f3 <transparent_crc>
   15f93:	48 8b 05 9e b0 00 00 	mov    0xb09e(%rip),%rax        # 21038 <g_38>
   15f9a:	8b 55 f4             	mov    -0xc(%rbp),%edx
   15f9d:	48 8d 35 91 6c 00 00 	lea    0x6c91(%rip),%rsi        # 1cc35 <g_2454+0x28bd>
   15fa4:	48 89 c7             	mov    %rax,%rdi
   15fa7:	e8 47 57 ff ff       	callq  b6f3 <transparent_crc>
   15fac:	8b 05 8e b0 00 00    	mov    0xb08e(%rip),%eax        # 21040 <g_48>
   15fb2:	01 c0                	add    %eax,%eax
   15fb4:	d1 f8                	sar    %eax
   15fb6:	48 98                	cltq   
   15fb8:	8b 55 f4             	mov    -0xc(%rbp),%edx
   15fbb:	48 8d 35 78 6c 00 00 	lea    0x6c78(%rip),%rsi        # 1cc3a <g_2454+0x28c2>
   15fc2:	48 89 c7             	mov    %rax,%rdi
   15fc5:	e8 29 57 ff ff       	callq  b6f3 <transparent_crc>
   15fca:	8b 05 74 b0 00 00    	mov    0xb074(%rip),%eax        # 21044 <g_48+0x4>
   15fd0:	25 ff ff 0f 00       	and    $0xfffff,%eax
   15fd5:	89 c1                	mov    %eax,%ecx
   15fd7:	8b 45 f4             	mov    -0xc(%rbp),%eax
   15fda:	89 c2                	mov    %eax,%edx
   15fdc:	48 8d 35 5f 6c 00 00 	lea    0x6c5f(%rip),%rsi        # 1cc42 <g_2454+0x28ca>
   15fe3:	48 89 cf             	mov    %rcx,%rdi
   15fe6:	e8 08 57 ff ff       	callq  b6f3 <transparent_crc>
   15feb:	0f b7 05 54 b0 00 00 	movzwl 0xb054(%rip),%eax        # 21046 <g_48+0x6>
   15ff2:	66 c1 e8 04          	shr    $0x4,%ax
   15ff6:	0f b7 c0             	movzwl %ax,%eax
   15ff9:	8b 55 f4             	mov    -0xc(%rbp),%edx
   15ffc:	48 8d 35 47 6c 00 00 	lea    0x6c47(%rip),%rsi        # 1cc4a <g_2454+0x28d2>
   16003:	48 89 c7             	mov    %rax,%rdi
   16006:	e8 e8 56 ff ff       	callq  b6f3 <transparent_crc>
   1600b:	0f b7 05 36 b0 00 00 	movzwl 0xb036(%rip),%eax        # 21048 <g_48+0x8>
   16012:	c1 e0 05             	shl    $0x5,%eax
   16015:	66 c1 f8 05          	sar    $0x5,%ax
   16019:	48 0f bf c0          	movswq %ax,%rax
   1601d:	8b 55 f4             	mov    -0xc(%rbp),%edx
   16020:	48 8d 35 2b 6c 00 00 	lea    0x6c2b(%rip),%rsi        # 1cc52 <g_2454+0x28da>
   16027:	48 89 c7             	mov    %rax,%rdi
   1602a:	e8 c4 56 ff ff       	callq  b6f3 <transparent_crc>
   1602f:	8b 05 17 b0 00 00    	mov    0xb017(%rip),%eax        # 2104c <g_48+0xc>
   16035:	25 ff ff ff 03       	and    $0x3ffffff,%eax
   1603a:	89 c1                	mov    %eax,%ecx
   1603c:	8b 45 f4             	mov    -0xc(%rbp),%eax
   1603f:	89 c2                	mov    %eax,%edx
   16041:	48 8d 35 12 6c 00 00 	lea    0x6c12(%rip),%rsi        # 1cc5a <g_2454+0x28e2>
   16048:	48 89 cf             	mov    %rcx,%rdi
   1604b:	e8 a3 56 ff ff       	callq  b6f3 <transparent_crc>
   16050:	48 8b 05 f9 af 00 00 	mov    0xaff9(%rip),%rax        # 21050 <g_48+0x10>
   16057:	66 25 ff 03          	and    $0x3ff,%ax
   1605b:	0f b7 c0             	movzwl %ax,%eax
   1605e:	8b 55 f4             	mov    -0xc(%rbp),%edx
   16061:	48 8d 35 fa 6b 00 00 	lea    0x6bfa(%rip),%rsi        # 1cc62 <g_2454+0x28ea>
   16068:	48 89 c7             	mov    %rax,%rdi
   1606b:	e8 83 56 ff ff       	callq  b6f3 <transparent_crc>
   16070:	c7 45 e8 00 00 00 00 	movl   $0x0,-0x18(%rbp)
   16077:	eb 46                	jmp    160bf <main+0x202>
   16079:	8b 45 e8             	mov    -0x18(%rbp),%eax
   1607c:	48 98                	cltq   
   1607e:	48 8d 15 cf af 00 00 	lea    0xafcf(%rip),%rdx        # 21054 <g_57>
   16085:	0f b6 04 10          	movzbl (%rax,%rdx,1),%eax
   16089:	48 0f be c0          	movsbq %al,%rax
   1608d:	8b 55 f4             	mov    -0xc(%rbp),%edx
   16090:	48 8d 35 d3 6b 00 00 	lea    0x6bd3(%rip),%rsi        # 1cc6a <g_2454+0x28f2>
   16097:	48 89 c7             	mov    %rax,%rdi
   1609a:	e8 54 56 ff ff       	callq  b6f3 <transparent_crc>
   1609f:	83 7d f4 00          	cmpl   $0x0,-0xc(%rbp)
   160a3:	74 16                	je     160bb <main+0x1fe>
   160a5:	8b 45 e8             	mov    -0x18(%rbp),%eax
   160a8:	89 c6                	mov    %eax,%esi
   160aa:	48 8d 3d c1 6b 00 00 	lea    0x6bc1(%rip),%rdi        # 1cc72 <g_2454+0x28fa>
   160b1:	b8 00 00 00 00       	mov    $0x0,%eax
   160b6:	e8 c5 3f ff ff       	callq  a080 <printf@plt>
   160bb:	83 45 e8 01          	addl   $0x1,-0x18(%rbp)
   160bf:	83 7d e8 04          	cmpl   $0x4,-0x18(%rbp)
   160c3:	7e b4                	jle    16079 <main+0x1bc>
   160c5:	8b 05 91 af 00 00    	mov    0xaf91(%rip),%eax        # 2105c <g_61>
   160cb:	48 98                	cltq   
   160cd:	8b 55 f4             	mov    -0xc(%rbp),%edx
   160d0:	48 8d 35 a9 6b 00 00 	lea    0x6ba9(%rip),%rsi        # 1cc80 <g_2454+0x2908>
   160d7:	48 89 c7             	mov    %rax,%rdi
   160da:	e8 14 56 ff ff       	callq  b6f3 <transparent_crc>
   160df:	c7 45 e8 00 00 00 00 	movl   $0x0,-0x18(%rbp)
   160e6:	eb 4a                	jmp    16132 <main+0x275>
   160e8:	8b 45 e8             	mov    -0x18(%rbp),%eax
   160eb:	48 98                	cltq   
   160ed:	48 8d 14 c5 00 00 00 	lea    0x0(,%rax,8),%rdx
   160f4:	00 
   160f5:	48 8d 05 64 af 00 00 	lea    0xaf64(%rip),%rax        # 21060 <g_68>
   160fc:	48 8b 04 02          	mov    (%rdx,%rax,1),%rax
   16100:	8b 55 f4             	mov    -0xc(%rbp),%edx
   16103:	48 8d 35 7b 6b 00 00 	lea    0x6b7b(%rip),%rsi        # 1cc85 <g_2454+0x290d>
   1610a:	48 89 c7             	mov    %rax,%rdi
   1610d:	e8 e1 55 ff ff       	callq  b6f3 <transparent_crc>
   16112:	83 7d f4 00          	cmpl   $0x0,-0xc(%rbp)
   16116:	74 16                	je     1612e <main+0x271>
   16118:	8b 45 e8             	mov    -0x18(%rbp),%eax
   1611b:	89 c6                	mov    %eax,%esi
   1611d:	48 8d 3d 4e 6b 00 00 	lea    0x6b4e(%rip),%rdi        # 1cc72 <g_2454+0x28fa>
   16124:	b8 00 00 00 00       	mov    $0x0,%eax
   16129:	e8 52 3f ff ff       	callq  a080 <printf@plt>
   1612e:	83 45 e8 01          	addl   $0x1,-0x18(%rbp)
   16132:	83 7d e8 07          	cmpl   $0x7,-0x18(%rbp)
   16136:	7e b0                	jle    160e8 <main+0x22b>
   16138:	8b 05 62 af 00 00    	mov    0xaf62(%rip),%eax        # 210a0 <g_80>
   1613e:	48 98                	cltq   
   16140:	8b 55 f4             	mov    -0xc(%rbp),%edx
   16143:	48 8d 35 43 6b 00 00 	lea    0x6b43(%rip),%rsi        # 1cc8d <g_2454+0x2915>
   1614a:	48 89 c7             	mov    %rax,%rdi
   1614d:	e8 a1 55 ff ff       	callq  b6f3 <transparent_crc>
   16152:	0f b7 05 4b af 00 00 	movzwl 0xaf4b(%rip),%eax        # 210a4 <g_104>
   16159:	0f b7 c0             	movzwl %ax,%eax
   1615c:	8b 55 f4             	mov    -0xc(%rbp),%edx
   1615f:	48 8d 35 2c 6b 00 00 	lea    0x6b2c(%rip),%rsi        # 1cc92 <g_2454+0x291a>
   16166:	48 89 c7             	mov    %rax,%rdi
   16169:	e8 85 55 ff ff       	callq  b6f3 <transparent_crc>
   1616e:	c7 45 e8 00 00 00 00 	movl   $0x0,-0x18(%rbp)
   16175:	eb 4b                	jmp    161c2 <main+0x305>
   16177:	8b 45 e8             	mov    -0x18(%rbp),%eax
   1617a:	48 98                	cltq   
   1617c:	48 8d 14 85 00 00 00 	lea    0x0(,%rax,4),%rdx
   16183:	00 
   16184:	48 8d 05 35 af 00 00 	lea    0xaf35(%rip),%rax        # 210c0 <g_108>
   1618b:	8b 04 02             	mov    (%rdx,%rax,1),%eax
   1618e:	48 98                	cltq   
   16190:	8b 55 f4             	mov    -0xc(%rbp),%edx
   16193:	48 8d 35 fe 6a 00 00 	lea    0x6afe(%rip),%rsi        # 1cc98 <g_2454+0x2920>
   1619a:	48 89 c7             	mov    %rax,%rdi
   1619d:	e8 51 55 ff ff       	callq  b6f3 <transparent_crc>
   161a2:	83 7d f4 00          	cmpl   $0x0,-0xc(%rbp)
   161a6:	74 16                	je     161be <main+0x301>
   161a8:	8b 45 e8             	mov    -0x18(%rbp),%eax
   161ab:	89 c6                	mov    %eax,%esi
   161ad:	48 8d 3d be 6a 00 00 	lea    0x6abe(%rip),%rdi        # 1cc72 <g_2454+0x28fa>
   161b4:	b8 00 00 00 00       	mov    $0x0,%eax
   161b9:	e8 c2 3e ff ff       	callq  a080 <printf@plt>
   161be:	83 45 e8 01          	addl   $0x1,-0x18(%rbp)
   161c2:	83 7d e8 07          	cmpl   $0x7,-0x18(%rbp)
   161c6:	7e af                	jle    16177 <main+0x2ba>
   161c8:	b8 8b 9a ff ff       	mov    $0xffff9a8b,%eax
   161cd:	48 98                	cltq   
   161cf:	8b 55 f4             	mov    -0xc(%rbp),%edx
   161d2:	48 8d 35 c8 6a 00 00 	lea    0x6ac8(%rip),%rsi        # 1cca1 <g_2454+0x2929>
   161d9:	48 89 c7             	mov    %rax,%rdi
   161dc:	e8 12 55 ff ff       	callq  b6f3 <transparent_crc>
   161e1:	b8 a2 01 00 00       	mov    $0x1a2,%eax
   161e6:	89 c1                	mov    %eax,%ecx
   161e8:	8b 45 f4             	mov    -0xc(%rbp),%eax
   161eb:	89 c2                	mov    %eax,%edx
   161ed:	48 8d 35 b6 6a 00 00 	lea    0x6ab6(%rip),%rsi        # 1ccaa <g_2454+0x2932>
   161f4:	48 89 cf             	mov    %rcx,%rdi
   161f7:	e8 f7 54 ff ff       	callq  b6f3 <transparent_crc>
   161fc:	b8 31 00 00 00       	mov    $0x31,%eax
   16201:	0f b7 c0             	movzwl %ax,%eax
   16204:	8b 55 f4             	mov    -0xc(%rbp),%edx
   16207:	48 8d 35 a5 6a 00 00 	lea    0x6aa5(%rip),%rsi        # 1ccb3 <g_2454+0x293b>
   1620e:	48 89 c7             	mov    %rax,%rdi
   16211:	e8 dd 54 ff ff       	callq  b6f3 <transparent_crc>
   16216:	b8 28 00 00 00       	mov    $0x28,%eax
   1621b:	48 0f bf c0          	movswq %ax,%rax
   1621f:	8b 55 f4             	mov    -0xc(%rbp),%edx
   16222:	48 8d 35 93 6a 00 00 	lea    0x6a93(%rip),%rsi        # 1ccbc <g_2454+0x2944>
   16229:	48 89 c7             	mov    %rax,%rdi
   1622c:	e8 c2 54 ff ff       	callq  b6f3 <transparent_crc>
   16231:	b8 96 09 00 00       	mov    $0x996,%eax
   16236:	89 c1                	mov    %eax,%ecx
   16238:	8b 45 f4             	mov    -0xc(%rbp),%eax
   1623b:	89 c2                	mov    %eax,%edx
   1623d:	48 8d 35 81 6a 00 00 	lea    0x6a81(%rip),%rsi        # 1ccc5 <g_2454+0x294d>
   16244:	48 89 cf             	mov    %rcx,%rdi
   16247:	e8 a7 54 ff ff       	callq  b6f3 <transparent_crc>
   1624c:	48 8b 05 1d 3e 00 00 	mov    0x3e1d(%rip),%rax        # 1a070 <g_110+0x10>
   16253:	66 25 ff 03          	and    $0x3ff,%ax
   16257:	0f b7 c0             	movzwl %ax,%eax
   1625a:	8b 55 f4             	mov    -0xc(%rbp),%edx
   1625d:	48 8d 35 6a 6a 00 00 	lea    0x6a6a(%rip),%rsi        # 1ccce <g_2454+0x2956>
   16264:	48 89 c7             	mov    %rax,%rdi
   16267:	e8 87 54 ff ff       	callq  b6f3 <transparent_crc>
   1626c:	0f b6 05 6d ae 00 00 	movzbl 0xae6d(%rip),%eax        # 210e0 <g_125>
   16273:	0f b6 c0             	movzbl %al,%eax
   16276:	8b 55 f4             	mov    -0xc(%rbp),%edx
   16279:	48 8d 35 57 6a 00 00 	lea    0x6a57(%rip),%rsi        # 1ccd7 <g_2454+0x295f>
   16280:	48 89 c7             	mov    %rax,%rdi
   16283:	e8 6b 54 ff ff       	callq  b6f3 <transparent_crc>
   16288:	8b 05 3a ff 00 00    	mov    0xff3a(%rip),%eax        # 261c8 <g_132>
   1628e:	89 c1                	mov    %eax,%ecx
   16290:	8b 45 f4             	mov    -0xc(%rbp),%eax
   16293:	89 c2                	mov    %eax,%edx
   16295:	48 8d 35 41 6a 00 00 	lea    0x6a41(%rip),%rsi        # 1ccdd <g_2454+0x2965>
   1629c:	48 89 cf             	mov    %rcx,%rdi
   1629f:	e8 4f 54 ff ff       	callq  b6f3 <transparent_crc>
   162a4:	8b 05 3a ae 00 00    	mov    0xae3a(%rip),%eax        # 210e4 <g_147>
   162aa:	48 98                	cltq   
   162ac:	8b 55 f4             	mov    -0xc(%rbp),%edx
   162af:	48 8d 35 2d 6a 00 00 	lea    0x6a2d(%rip),%rsi        # 1cce3 <g_2454+0x296b>
   162b6:	48 89 c7             	mov    %rax,%rdi
   162b9:	e8 35 54 ff ff       	callq  b6f3 <transparent_crc>
   162be:	0f b7 05 23 ae 00 00 	movzwl 0xae23(%rip),%eax        # 210e8 <g_193>
   162c5:	48 0f bf c0          	movswq %ax,%rax
   162c9:	8b 55 f4             	mov    -0xc(%rbp),%edx
   162cc:	48 8d 35 16 6a 00 00 	lea    0x6a16(%rip),%rsi        # 1cce9 <g_2454+0x2971>
   162d3:	48 89 c7             	mov    %rax,%rdi
   162d6:	e8 18 54 ff ff       	callq  b6f3 <transparent_crc>
   162db:	8b 05 0b ae 00 00    	mov    0xae0b(%rip),%eax        # 210ec <g_198>
   162e1:	48 98                	cltq   
   162e3:	8b 55 f4             	mov    -0xc(%rbp),%edx
   162e6:	48 8d 35 02 6a 00 00 	lea    0x6a02(%rip),%rsi        # 1ccef <g_2454+0x2977>
   162ed:	48 89 c7             	mov    %rax,%rdi
   162f0:	e8 fe 53 ff ff       	callq  b6f3 <transparent_crc>
   162f5:	b8 ff ff ff ff       	mov    $0xffffffff,%eax
   162fa:	48 98                	cltq   
   162fc:	8b 55 f4             	mov    -0xc(%rbp),%edx
   162ff:	48 8d 35 ef 69 00 00 	lea    0x69ef(%rip),%rsi        # 1ccf5 <g_2454+0x297d>
   16306:	48 89 c7             	mov    %rax,%rdi
   16309:	e8 e5 53 ff ff       	callq  b6f3 <transparent_crc>
   1630e:	b8 00 00 00 00       	mov    $0x0,%eax
   16313:	0f b6 c0             	movzbl %al,%eax
   16316:	8b 55 f4             	mov    -0xc(%rbp),%edx
   16319:	48 8d 35 db 69 00 00 	lea    0x69db(%rip),%rsi        # 1ccfb <g_2454+0x2983>
   16320:	48 89 c7             	mov    %rax,%rdi
   16323:	e8 cb 53 ff ff       	callq  b6f3 <transparent_crc>
   16328:	c7 45 e8 00 00 00 00 	movl   $0x0,-0x18(%rbp)
   1632f:	e9 af 00 00 00       	jmpq   163e3 <main+0x526>
   16334:	c7 45 ec 00 00 00 00 	movl   $0x0,-0x14(%rbp)
   1633b:	e9 95 00 00 00       	jmpq   163d5 <main+0x518>
   16340:	c7 45 f0 00 00 00 00 	movl   $0x0,-0x10(%rbp)
   16347:	eb 7e                	jmp    163c7 <main+0x50a>
   16349:	8b 45 f0             	mov    -0x10(%rbp),%eax
   1634c:	48 63 f0             	movslq %eax,%rsi
   1634f:	8b 45 e8             	mov    -0x18(%rbp),%eax
   16352:	48 63 d0             	movslq %eax,%rdx
   16355:	8b 45 ec             	mov    -0x14(%rbp),%eax
   16358:	48 63 c8             	movslq %eax,%rcx
   1635b:	48 89 d0             	mov    %rdx,%rax
   1635e:	48 c1 e0 02          	shl    $0x2,%rax
   16362:	48 01 d0             	add    %rdx,%rax
   16365:	48 c1 e0 02          	shl    $0x2,%rax
   16369:	48 01 d0             	add    %rdx,%rax
   1636c:	48 89 ca             	mov    %rcx,%rdx
   1636f:	48 01 d2             	add    %rdx,%rdx
   16372:	48 01 ca             	add    %rcx,%rdx
   16375:	48 01 d0             	add    %rdx,%rax
   16378:	48 01 f0             	add    %rsi,%rax
   1637b:	48 8d 14 85 00 00 00 	lea    0x0(,%rax,4),%rdx
   16382:	00 
   16383:	48 8d 05 76 ad 00 00 	lea    0xad76(%rip),%rax        # 21100 <g_307>
   1638a:	8b 04 02             	mov    (%rdx,%rax,1),%eax
   1638d:	48 98                	cltq   
   1638f:	8b 55 f4             	mov    -0xc(%rbp),%edx
   16392:	48 8d 35 68 69 00 00 	lea    0x6968(%rip),%rsi        # 1cd01 <g_2454+0x2989>
   16399:	48 89 c7             	mov    %rax,%rdi
   1639c:	e8 52 53 ff ff       	callq  b6f3 <transparent_crc>
   163a1:	83 7d f4 00          	cmpl   $0x0,-0xc(%rbp)
   163a5:	74 1c                	je     163c3 <main+0x506>
   163a7:	8b 4d f0             	mov    -0x10(%rbp),%ecx
   163aa:	8b 55 ec             	mov    -0x14(%rbp),%edx
   163ad:	8b 45 e8             	mov    -0x18(%rbp),%eax
   163b0:	89 c6                	mov    %eax,%esi
   163b2:	48 8d 3d 57 69 00 00 	lea    0x6957(%rip),%rdi        # 1cd10 <g_2454+0x2998>
   163b9:	b8 00 00 00 00       	mov    $0x0,%eax
   163be:	e8 bd 3c ff ff       	callq  a080 <printf@plt>
   163c3:	83 45 f0 01          	addl   $0x1,-0x10(%rbp)
   163c7:	83 7d f0 02          	cmpl   $0x2,-0x10(%rbp)
   163cb:	0f 8e 78 ff ff ff    	jle    16349 <main+0x48c>
   163d1:	83 45 ec 01          	addl   $0x1,-0x14(%rbp)
   163d5:	83 7d ec 06          	cmpl   $0x6,-0x14(%rbp)
   163d9:	0f 8e 61 ff ff ff    	jle    16340 <main+0x483>
   163df:	83 45 e8 01          	addl   $0x1,-0x18(%rbp)
   163e3:	83 7d e8 01          	cmpl   $0x1,-0x18(%rbp)
   163e7:	0f 8e 47 ff ff ff    	jle    16334 <main+0x477>
   163ed:	48 8b 05 bc ad 00 00 	mov    0xadbc(%rip),%rax        # 211b0 <g_317>
   163f4:	01 c0                	add    %eax,%eax
   163f6:	d1 f8                	sar    %eax
   163f8:	48 98                	cltq   
   163fa:	8b 55 f4             	mov    -0xc(%rbp),%edx
   163fd:	48 8d 35 22 69 00 00 	lea    0x6922(%rip),%rsi        # 1cd26 <g_2454+0x29ae>
   16404:	48 89 c7             	mov    %rax,%rdi
   16407:	e8 e7 52 ff ff       	callq  b6f3 <transparent_crc>
   1640c:	48 8b 05 9d ad 00 00 	mov    0xad9d(%rip),%rax        # 211b0 <g_317>
   16413:	48 c1 e8 20          	shr    $0x20,%rax
   16417:	25 ff ff 0f 00       	and    $0xfffff,%eax
   1641c:	89 c1                	mov    %eax,%ecx
   1641e:	8b 45 f4             	mov    -0xc(%rbp),%eax
   16421:	89 c2                	mov    %eax,%edx
   16423:	48 8d 35 05 69 00 00 	lea    0x6905(%rip),%rsi        # 1cd2f <g_2454+0x29b7>
   1642a:	48 89 cf             	mov    %rcx,%rdi
   1642d:	e8 c1 52 ff ff       	callq  b6f3 <transparent_crc>
   16432:	48 8b 05 77 ad 00 00 	mov    0xad77(%rip),%rax        # 211b0 <g_317>
   16439:	48 c1 e8 34          	shr    $0x34,%rax
   1643d:	0f b7 c0             	movzwl %ax,%eax
   16440:	8b 55 f4             	mov    -0xc(%rbp),%edx
   16443:	48 8d 35 ee 68 00 00 	lea    0x68ee(%rip),%rsi        # 1cd38 <g_2454+0x29c0>
   1644a:	48 89 c7             	mov    %rax,%rdi
   1644d:	e8 a1 52 ff ff       	callq  b6f3 <transparent_crc>
   16452:	48 8b 05 5f ad 00 00 	mov    0xad5f(%rip),%rax        # 211b8 <g_317+0x8>
   16459:	c1 e0 05             	shl    $0x5,%eax
   1645c:	66 c1 f8 05          	sar    $0x5,%ax
   16460:	48 0f bf c0          	movswq %ax,%rax
   16464:	8b 55 f4             	mov    -0xc(%rbp),%edx
   16467:	48 8d 35 d3 68 00 00 	lea    0x68d3(%rip),%rsi        # 1cd41 <g_2454+0x29c9>
   1646e:	48 89 c7             	mov    %rax,%rdi
   16471:	e8 7d 52 ff ff       	callq  b6f3 <transparent_crc>
   16476:	48 8b 05 3b ad 00 00 	mov    0xad3b(%rip),%rax        # 211b8 <g_317+0x8>
   1647d:	48 c1 e8 20          	shr    $0x20,%rax
   16481:	25 ff ff ff 03       	and    $0x3ffffff,%eax
   16486:	89 c1                	mov    %eax,%ecx
   16488:	8b 45 f4             	mov    -0xc(%rbp),%eax
   1648b:	89 c2                	mov    %eax,%edx
   1648d:	48 8d 35 b6 68 00 00 	lea    0x68b6(%rip),%rsi        # 1cd4a <g_2454+0x29d2>
   16494:	48 89 cf             	mov    %rcx,%rdi
   16497:	e8 57 52 ff ff       	callq  b6f3 <transparent_crc>
   1649c:	48 8b 05 1d ad 00 00 	mov    0xad1d(%rip),%rax        # 211c0 <g_317+0x10>
   164a3:	66 25 ff 03          	and    $0x3ff,%ax
   164a7:	0f b7 c0             	movzwl %ax,%eax
   164aa:	8b 55 f4             	mov    -0xc(%rbp),%edx
   164ad:	48 8d 35 9f 68 00 00 	lea    0x689f(%rip),%rsi        # 1cd53 <g_2454+0x29db>
   164b4:	48 89 c7             	mov    %rax,%rdi
   164b7:	e8 37 52 ff ff       	callq  b6f3 <transparent_crc>
   164bc:	8b 05 06 ad 00 00    	mov    0xad06(%rip),%eax        # 211c8 <g_325>
   164c2:	c1 e0 0f             	shl    $0xf,%eax
   164c5:	c1 f8 0f             	sar    $0xf,%eax
   164c8:	48 98                	cltq   
   164ca:	8b 55 f4             	mov    -0xc(%rbp),%edx
   164cd:	48 8d 35 88 68 00 00 	lea    0x6888(%rip),%rsi        # 1cd5c <g_2454+0x29e4>
   164d4:	48 89 c7             	mov    %rax,%rdi
   164d7:	e8 17 52 ff ff       	callq  b6f3 <transparent_crc>
   164dc:	0f b6 05 e7 ac 00 00 	movzbl 0xace7(%rip),%eax        # 211ca <g_325+0x2>
   164e3:	d0 e8                	shr    %al
   164e5:	83 e0 03             	and    $0x3,%eax
   164e8:	0f b6 c0             	movzbl %al,%eax
   164eb:	8b 55 f4             	mov    -0xc(%rbp),%edx
   164ee:	48 8d 35 70 68 00 00 	lea    0x6870(%rip),%rsi        # 1cd65 <g_2454+0x29ed>
   164f5:	48 89 c7             	mov    %rax,%rdi
   164f8:	e8 f6 51 ff ff       	callq  b6f3 <transparent_crc>
   164fd:	48 8b 05 c4 ac 00 00 	mov    0xacc4(%rip),%rax        # 211c8 <g_325>
   16504:	48 c1 e8 13          	shr    $0x13,%rax
   16508:	25 ff ff ff 0f       	and    $0xfffffff,%eax
   1650d:	89 c1                	mov    %eax,%ecx
   1650f:	8b 45 f4             	mov    -0xc(%rbp),%eax
   16512:	89 c2                	mov    %eax,%edx
   16514:	48 8d 35 53 68 00 00 	lea    0x6853(%rip),%rsi        # 1cd6e <g_2454+0x29f6>
   1651b:	48 89 cf             	mov    %rcx,%rdi
   1651e:	e8 d0 51 ff ff       	callq  b6f3 <transparent_crc>
   16523:	8b 05 a3 ac 00 00    	mov    0xaca3(%rip),%eax        # 211cc <g_325+0x4>
   16529:	c1 e8 0f             	shr    $0xf,%eax
   1652c:	89 c2                	mov    %eax,%edx
   1652e:	0f b6 05 9b ac 00 00 	movzbl 0xac9b(%rip),%eax        # 211d0 <g_325+0x8>
   16535:	83 e0 7f             	and    $0x7f,%eax
   16538:	48 c1 e0 11          	shl    $0x11,%rax
   1653c:	48 09 d0             	or     %rdx,%rax
   1653f:	89 c1                	mov    %eax,%ecx
   16541:	8b 45 f4             	mov    -0xc(%rbp),%eax
   16544:	89 c2                	mov    %eax,%edx
   16546:	48 8d 35 2a 68 00 00 	lea    0x682a(%rip),%rsi        # 1cd77 <g_2454+0x29ff>
   1654d:	48 89 cf             	mov    %rcx,%rdi
   16550:	e8 9e 51 ff ff       	callq  b6f3 <transparent_crc>
   16555:	0f b7 05 74 ac 00 00 	movzwl 0xac74(%rip),%eax        # 211d0 <g_325+0x8>
   1655c:	c1 e0 02             	shl    $0x2,%eax
   1655f:	66 c1 f8 09          	sar    $0x9,%ax
   16563:	48 0f be c0          	movsbq %al,%rax
   16567:	8b 55 f4             	mov    -0xc(%rbp),%edx
   1656a:	48 8d 35 0f 68 00 00 	lea    0x680f(%rip),%rsi        # 1cd80 <g_2454+0x2a08>
   16571:	48 89 c7             	mov    %rax,%rdi
   16574:	e8 7a 51 ff ff       	callq  b6f3 <transparent_crc>
   16579:	0f b6 05 51 ac 00 00 	movzbl 0xac51(%rip),%eax        # 211d1 <g_325+0x9>
   16580:	c0 f8 06             	sar    $0x6,%al
   16583:	48 0f be c0          	movsbq %al,%rax
   16587:	8b 55 f4             	mov    -0xc(%rbp),%edx
   1658a:	48 8d 35 f8 67 00 00 	lea    0x67f8(%rip),%rsi        # 1cd89 <g_2454+0x2a11>
   16591:	48 89 c7             	mov    %rax,%rdi
   16594:	e8 5a 51 ff ff       	callq  b6f3 <transparent_crc>
   16599:	8b 05 35 ac 00 00    	mov    0xac35(%rip),%eax        # 211d4 <g_332>
   1659f:	89 c1                	mov    %eax,%ecx
   165a1:	8b 45 f4             	mov    -0xc(%rbp),%eax
   165a4:	89 c2                	mov    %eax,%edx
   165a6:	48 8d 35 e5 67 00 00 	lea    0x67e5(%rip),%rsi        # 1cd92 <g_2454+0x2a1a>
   165ad:	48 89 cf             	mov    %rcx,%rdi
   165b0:	e8 3e 51 ff ff       	callq  b6f3 <transparent_crc>
   165b5:	c7 45 e8 00 00 00 00 	movl   $0x0,-0x18(%rbp)
   165bc:	e9 2e 02 00 00       	jmpq   167ef <main+0x932>
   165c1:	c7 45 ec 00 00 00 00 	movl   $0x0,-0x14(%rbp)
   165c8:	e9 14 02 00 00       	jmpq   167e1 <main+0x924>
   165cd:	8b 45 ec             	mov    -0x14(%rbp),%eax
   165d0:	48 63 d0             	movslq %eax,%rdx
   165d3:	8b 45 e8             	mov    -0x18(%rbp),%eax
   165d6:	48 63 c8             	movslq %eax,%rcx
   165d9:	48 89 d0             	mov    %rdx,%rax
   165dc:	48 c1 e0 02          	shl    $0x2,%rax
   165e0:	48 01 d0             	add    %rdx,%rax
   165e3:	48 01 c0             	add    %rax,%rax
   165e6:	48 6b d1 46          	imul   $0x46,%rcx,%rdx
   165ea:	48 01 c2             	add    %rax,%rdx
   165ed:	48 8d 05 ec ab 00 00 	lea    0xabec(%rip),%rax        # 211e0 <g_338>
   165f4:	48 01 d0             	add    %rdx,%rax
   165f7:	0f b7 10             	movzwl (%rax),%edx
   165fa:	0f b6 40 02          	movzbl 0x2(%rax),%eax
   165fe:	83 e0 01             	and    $0x1,%eax
   16601:	48 c1 e0 10          	shl    $0x10,%rax
   16605:	48 09 d0             	or     %rdx,%rax
   16608:	48 c1 e0 2f          	shl    $0x2f,%rax
   1660c:	48 c1 f8 2f          	sar    $0x2f,%rax
   16610:	48 98                	cltq   
   16612:	8b 55 f4             	mov    -0xc(%rbp),%edx
   16615:	48 8d 35 7f 67 00 00 	lea    0x677f(%rip),%rsi        # 1cd9b <g_2454+0x2a23>
   1661c:	48 89 c7             	mov    %rax,%rdi
   1661f:	e8 cf 50 ff ff       	callq  b6f3 <transparent_crc>
   16624:	8b 45 ec             	mov    -0x14(%rbp),%eax
   16627:	48 63 d0             	movslq %eax,%rdx
   1662a:	8b 45 e8             	mov    -0x18(%rbp),%eax
   1662d:	48 63 c8             	movslq %eax,%rcx
   16630:	48 89 d0             	mov    %rdx,%rax
   16633:	48 c1 e0 02          	shl    $0x2,%rax
   16637:	48 01 d0             	add    %rdx,%rax
   1663a:	48 01 c0             	add    %rax,%rax
   1663d:	48 6b d1 46          	imul   $0x46,%rcx,%rdx
   16641:	48 01 c2             	add    %rax,%rdx
   16644:	48 8d 05 95 ab 00 00 	lea    0xab95(%rip),%rax        # 211e0 <g_338>
   1664b:	48 01 d0             	add    %rdx,%rax
   1664e:	0f b6 40 02          	movzbl 0x2(%rax),%eax
   16652:	d0 e8                	shr    %al
   16654:	83 e0 03             	and    $0x3,%eax
   16657:	0f b6 c0             	movzbl %al,%eax
   1665a:	8b 55 f4             	mov    -0xc(%rbp),%edx
   1665d:	48 8d 35 46 67 00 00 	lea    0x6746(%rip),%rsi        # 1cdaa <g_2454+0x2a32>
   16664:	48 89 c7             	mov    %rax,%rdi
   16667:	e8 87 50 ff ff       	callq  b6f3 <transparent_crc>
   1666c:	8b 45 ec             	mov    -0x14(%rbp),%eax
   1666f:	48 63 d0             	movslq %eax,%rdx
   16672:	8b 45 e8             	mov    -0x18(%rbp),%eax
   16675:	48 63 c8             	movslq %eax,%rcx
   16678:	48 89 d0             	mov    %rdx,%rax
   1667b:	48 c1 e0 02          	shl    $0x2,%rax
   1667f:	48 01 d0             	add    %rdx,%rax
   16682:	48 01 c0             	add    %rax,%rax
   16685:	48 6b d1 46          	imul   $0x46,%rcx,%rdx
   16689:	48 01 c2             	add    %rax,%rdx
   1668c:	48 8d 05 4d ab 00 00 	lea    0xab4d(%rip),%rax        # 211e0 <g_338>
   16693:	48 01 d0             	add    %rdx,%rax
   16696:	0f b7 50 02          	movzwl 0x2(%rax),%edx
   1669a:	66 c1 ea 03          	shr    $0x3,%dx
   1669e:	0f b7 d2             	movzwl %dx,%edx
   166a1:	0f b7 40 04          	movzwl 0x4(%rax),%eax
   166a5:	0f b7 c0             	movzwl %ax,%eax
   166a8:	25 ff 7f 00 00       	and    $0x7fff,%eax
   166ad:	48 c1 e0 0d          	shl    $0xd,%rax
   166b1:	48 09 d0             	or     %rdx,%rax
   166b4:	89 c1                	mov    %eax,%ecx
   166b6:	8b 45 f4             	mov    -0xc(%rbp),%eax
   166b9:	89 c2                	mov    %eax,%edx
   166bb:	48 8d 35 f7 66 00 00 	lea    0x66f7(%rip),%rsi        # 1cdb9 <g_2454+0x2a41>
   166c2:	48 89 cf             	mov    %rcx,%rdi
   166c5:	e8 29 50 ff ff       	callq  b6f3 <transparent_crc>
   166ca:	8b 45 ec             	mov    -0x14(%rbp),%eax
   166cd:	48 63 d0             	movslq %eax,%rdx
   166d0:	8b 45 e8             	mov    -0x18(%rbp),%eax
   166d3:	48 63 c8             	movslq %eax,%rcx
   166d6:	48 89 d0             	mov    %rdx,%rax
   166d9:	48 c1 e0 02          	shl    $0x2,%rax
   166dd:	48 01 d0             	add    %rdx,%rax
   166e0:	48 01 c0             	add    %rax,%rax
   166e3:	48 6b d1 46          	imul   $0x46,%rcx,%rdx
   166e7:	48 01 c2             	add    %rax,%rdx
   166ea:	48 8d 05 ef aa 00 00 	lea    0xaaef(%rip),%rax        # 211e0 <g_338>
   166f1:	48 01 d0             	add    %rdx,%rax
   166f4:	0f b6 50 05          	movzbl 0x5(%rax),%edx
   166f8:	c0 ea 07             	shr    $0x7,%dl
   166fb:	0f b6 d2             	movzbl %dl,%edx
   166fe:	0f b7 48 06          	movzwl 0x6(%rax),%ecx
   16702:	48 01 c9             	add    %rcx,%rcx
   16705:	48 09 ca             	or     %rcx,%rdx
   16708:	0f b6 40 08          	movzbl 0x8(%rax),%eax
   1670c:	83 e0 7f             	and    $0x7f,%eax
   1670f:	48 c1 e0 11          	shl    $0x11,%rax
   16713:	48 09 d0             	or     %rdx,%rax
   16716:	89 c1                	mov    %eax,%ecx
   16718:	8b 45 f4             	mov    -0xc(%rbp),%eax
   1671b:	89 c2                	mov    %eax,%edx
   1671d:	48 8d 35 a4 66 00 00 	lea    0x66a4(%rip),%rsi        # 1cdc8 <g_2454+0x2a50>
   16724:	48 89 cf             	mov    %rcx,%rdi
   16727:	e8 c7 4f ff ff       	callq  b6f3 <transparent_crc>
   1672c:	8b 45 ec             	mov    -0x14(%rbp),%eax
   1672f:	48 63 d0             	movslq %eax,%rdx
   16732:	8b 45 e8             	mov    -0x18(%rbp),%eax
   16735:	48 63 c8             	movslq %eax,%rcx
   16738:	48 89 d0             	mov    %rdx,%rax
   1673b:	48 c1 e0 02          	shl    $0x2,%rax
   1673f:	48 01 d0             	add    %rdx,%rax
   16742:	48 01 c0             	add    %rax,%rax
   16745:	48 6b d1 46          	imul   $0x46,%rcx,%rdx
   16749:	48 01 c2             	add    %rax,%rdx
   1674c:	48 8d 05 8d aa 00 00 	lea    0xaa8d(%rip),%rax        # 211e0 <g_338>
   16753:	48 01 d0             	add    %rdx,%rax
   16756:	0f b7 40 08          	movzwl 0x8(%rax),%eax
   1675a:	c1 e0 02             	shl    $0x2,%eax
   1675d:	66 c1 f8 09          	sar    $0x9,%ax
   16761:	48 0f be c0          	movsbq %al,%rax
   16765:	8b 55 f4             	mov    -0xc(%rbp),%edx
   16768:	48 8d 35 68 66 00 00 	lea    0x6668(%rip),%rsi        # 1cdd7 <g_2454+0x2a5f>
   1676f:	48 89 c7             	mov    %rax,%rdi
   16772:	e8 7c 4f ff ff       	callq  b6f3 <transparent_crc>
   16777:	8b 45 ec             	mov    -0x14(%rbp),%eax
   1677a:	48 63 d0             	movslq %eax,%rdx
   1677d:	8b 45 e8             	mov    -0x18(%rbp),%eax
   16780:	48 63 c8             	movslq %eax,%rcx
   16783:	48 89 d0             	mov    %rdx,%rax
   16786:	48 c1 e0 02          	shl    $0x2,%rax
   1678a:	48 01 d0             	add    %rdx,%rax
   1678d:	48 01 c0             	add    %rax,%rax
   16790:	48 6b d1 46          	imul   $0x46,%rcx,%rdx
   16794:	48 01 c2             	add    %rax,%rdx
   16797:	48 8d 05 42 aa 00 00 	lea    0xaa42(%rip),%rax        # 211e0 <g_338>
   1679e:	48 01 d0             	add    %rdx,%rax
   167a1:	0f b6 40 09          	movzbl 0x9(%rax),%eax
   167a5:	c0 f8 06             	sar    $0x6,%al
   167a8:	48 0f be c0          	movsbq %al,%rax
   167ac:	8b 55 f4             	mov    -0xc(%rbp),%edx
   167af:	48 8d 35 30 66 00 00 	lea    0x6630(%rip),%rsi        # 1cde6 <g_2454+0x2a6e>
   167b6:	48 89 c7             	mov    %rax,%rdi
   167b9:	e8 35 4f ff ff       	callq  b6f3 <transparent_crc>
   167be:	83 7d f4 00          	cmpl   $0x0,-0xc(%rbp)
   167c2:	74 19                	je     167dd <main+0x920>
   167c4:	8b 55 ec             	mov    -0x14(%rbp),%edx
   167c7:	8b 45 e8             	mov    -0x18(%rbp),%eax
   167ca:	89 c6                	mov    %eax,%esi
   167cc:	48 8d 3d 22 66 00 00 	lea    0x6622(%rip),%rdi        # 1cdf5 <g_2454+0x2a7d>
   167d3:	b8 00 00 00 00       	mov    $0x0,%eax
   167d8:	e8 a3 38 ff ff       	callq  a080 <printf@plt>
   167dd:	83 45 ec 01          	addl   $0x1,-0x14(%rbp)
   167e1:	83 7d ec 06          	cmpl   $0x6,-0x14(%rbp)
   167e5:	0f 8e e2 fd ff ff    	jle    165cd <main+0x710>
   167eb:	83 45 e8 01          	addl   $0x1,-0x18(%rbp)
   167ef:	83 7d e8 01          	cmpl   $0x1,-0x18(%rbp)
   167f3:	0f 8e c8 fd ff ff    	jle    165c1 <main+0x704>
   167f9:	8b 05 6d aa 00 00    	mov    0xaa6d(%rip),%eax        # 2126c <g_342>
   167ff:	89 c1                	mov    %eax,%ecx
   16801:	8b 45 f4             	mov    -0xc(%rbp),%eax
   16804:	89 c2                	mov    %eax,%edx
   16806:	48 8d 35 fa 65 00 00 	lea    0x65fa(%rip),%rsi        # 1ce07 <g_2454+0x2a8f>
   1680d:	48 89 cf             	mov    %rcx,%rdi
   16810:	e8 de 4e ff ff       	callq  b6f3 <transparent_crc>
   16815:	8b 05 55 aa 00 00    	mov    0xaa55(%rip),%eax        # 21270 <g_346>
   1681b:	c1 e0 0f             	shl    $0xf,%eax
   1681e:	c1 f8 0f             	sar    $0xf,%eax
   16821:	48 98                	cltq   
   16823:	8b 55 f4             	mov    -0xc(%rbp),%edx
   16826:	48 8d 35 e0 65 00 00 	lea    0x65e0(%rip),%rsi        # 1ce0d <g_2454+0x2a95>
   1682d:	48 89 c7             	mov    %rax,%rdi
   16830:	e8 be 4e ff ff       	callq  b6f3 <transparent_crc>
   16835:	0f b6 05 36 aa 00 00 	movzbl 0xaa36(%rip),%eax        # 21272 <g_346+0x2>
   1683c:	d0 e8                	shr    %al
   1683e:	83 e0 03             	and    $0x3,%eax
   16841:	0f b6 c0             	movzbl %al,%eax
   16844:	8b 55 f4             	mov    -0xc(%rbp),%edx
   16847:	48 8d 35 c8 65 00 00 	lea    0x65c8(%rip),%rsi        # 1ce16 <g_2454+0x2a9e>
   1684e:	48 89 c7             	mov    %rax,%rdi
   16851:	e8 9d 4e ff ff       	callq  b6f3 <transparent_crc>
   16856:	48 8b 05 13 aa 00 00 	mov    0xaa13(%rip),%rax        # 21270 <g_346>
   1685d:	48 c1 e8 13          	shr    $0x13,%rax
   16861:	25 ff ff ff 0f       	and    $0xfffffff,%eax
   16866:	89 c1                	mov    %eax,%ecx
   16868:	8b 45 f4             	mov    -0xc(%rbp),%eax
   1686b:	89 c2                	mov    %eax,%edx
   1686d:	48 8d 35 ab 65 00 00 	lea    0x65ab(%rip),%rsi        # 1ce1f <g_2454+0x2aa7>
   16874:	48 89 cf             	mov    %rcx,%rdi
   16877:	e8 77 4e ff ff       	callq  b6f3 <transparent_crc>
   1687c:	8b 05 f2 a9 00 00    	mov    0xa9f2(%rip),%eax        # 21274 <g_346+0x4>
   16882:	c1 e8 0f             	shr    $0xf,%eax
   16885:	89 c2                	mov    %eax,%edx
   16887:	0f b6 05 ea a9 00 00 	movzbl 0xa9ea(%rip),%eax        # 21278 <g_346+0x8>
   1688e:	83 e0 7f             	and    $0x7f,%eax
   16891:	48 c1 e0 11          	shl    $0x11,%rax
   16895:	48 09 d0             	or     %rdx,%rax
   16898:	89 c1                	mov    %eax,%ecx
   1689a:	8b 45 f4             	mov    -0xc(%rbp),%eax
   1689d:	89 c2                	mov    %eax,%edx
   1689f:	48 8d 35 82 65 00 00 	lea    0x6582(%rip),%rsi        # 1ce28 <g_2454+0x2ab0>
   168a6:	48 89 cf             	mov    %rcx,%rdi
   168a9:	e8 45 4e ff ff       	callq  b6f3 <transparent_crc>
   168ae:	0f b7 05 c3 a9 00 00 	movzwl 0xa9c3(%rip),%eax        # 21278 <g_346+0x8>
   168b5:	c1 e0 02             	shl    $0x2,%eax
   168b8:	66 c1 f8 09          	sar    $0x9,%ax
   168bc:	48 0f be c0          	movsbq %al,%rax
   168c0:	8b 55 f4             	mov    -0xc(%rbp),%edx
   168c3:	48 8d 35 67 65 00 00 	lea    0x6567(%rip),%rsi        # 1ce31 <g_2454+0x2ab9>
   168ca:	48 89 c7             	mov    %rax,%rdi
   168cd:	e8 21 4e ff ff       	callq  b6f3 <transparent_crc>
   168d2:	0f b6 05 a0 a9 00 00 	movzbl 0xa9a0(%rip),%eax        # 21279 <g_346+0x9>
   168d9:	c0 f8 06             	sar    $0x6,%al
   168dc:	48 0f be c0          	movsbq %al,%rax
   168e0:	8b 55 f4             	mov    -0xc(%rbp),%edx
   168e3:	48 8d 35 50 65 00 00 	lea    0x6550(%rip),%rsi        # 1ce3a <g_2454+0x2ac2>
   168ea:	48 89 c7             	mov    %rax,%rdi
   168ed:	e8 01 4e ff ff       	callq  b6f3 <transparent_crc>
   168f2:	8b 05 84 a9 00 00    	mov    0xa984(%rip),%eax        # 2127c <g_350>
   168f8:	89 c1                	mov    %eax,%ecx
   168fa:	8b 45 f4             	mov    -0xc(%rbp),%eax
   168fd:	89 c2                	mov    %eax,%edx
   168ff:	48 8d 35 3d 65 00 00 	lea    0x653d(%rip),%rsi        # 1ce43 <g_2454+0x2acb>
   16906:	48 89 cf             	mov    %rcx,%rdi
   16909:	e8 e5 4d ff ff       	callq  b6f3 <transparent_crc>
   1690e:	0f b6 05 6b a9 00 00 	movzbl 0xa96b(%rip),%eax        # 21280 <g_383>
   16915:	0f b6 c0             	movzbl %al,%eax
   16918:	8b 55 f4             	mov    -0xc(%rbp),%edx
   1691b:	48 8d 35 2a 65 00 00 	lea    0x652a(%rip),%rsi        # 1ce4c <g_2454+0x2ad4>
   16922:	48 89 c7             	mov    %rax,%rdi
   16925:	e8 c9 4d ff ff       	callq  b6f3 <transparent_crc>
   1692a:	c7 45 e8 00 00 00 00 	movl   $0x0,-0x18(%rbp)
   16931:	eb 4d                	jmp    16980 <main+0xac3>
   16933:	8b 45 e8             	mov    -0x18(%rbp),%eax
   16936:	48 98                	cltq   
   16938:	48 8d 14 85 00 00 00 	lea    0x0(,%rax,4),%rdx
   1693f:	00 
   16940:	48 8d 05 59 a9 00 00 	lea    0xa959(%rip),%rax        # 212a0 <g_418>
   16947:	8b 04 02             	mov    (%rdx,%rax,1),%eax
   1694a:	89 c1                	mov    %eax,%ecx
   1694c:	8b 45 f4             	mov    -0xc(%rbp),%eax
   1694f:	89 c2                	mov    %eax,%edx
   16951:	48 8d 35 fa 64 00 00 	lea    0x64fa(%rip),%rsi        # 1ce52 <g_2454+0x2ada>
   16958:	48 89 cf             	mov    %rcx,%rdi
   1695b:	e8 93 4d ff ff       	callq  b6f3 <transparent_crc>
   16960:	83 7d f4 00          	cmpl   $0x0,-0xc(%rbp)
   16964:	74 16                	je     1697c <main+0xabf>
   16966:	8b 45 e8             	mov    -0x18(%rbp),%eax
   16969:	89 c6                	mov    %eax,%esi
   1696b:	48 8d 3d 00 63 00 00 	lea    0x6300(%rip),%rdi        # 1cc72 <g_2454+0x28fa>
   16972:	b8 00 00 00 00       	mov    $0x0,%eax
   16977:	e8 04 37 ff ff       	callq  a080 <printf@plt>
   1697c:	83 45 e8 01          	addl   $0x1,-0x18(%rbp)
   16980:	83 7d e8 09          	cmpl   $0x9,-0x18(%rbp)
   16984:	7e ad                	jle    16933 <main+0xa76>
   16986:	0f b7 05 3b a9 00 00 	movzwl 0xa93b(%rip),%eax        # 212c8 <g_434>
   1698d:	48 0f bf c0          	movswq %ax,%rax
   16991:	8b 55 f4             	mov    -0xc(%rbp),%edx
   16994:	48 8d 35 c0 64 00 00 	lea    0x64c0(%rip),%rsi        # 1ce5b <g_2454+0x2ae3>
   1699b:	48 89 c7             	mov    %rax,%rdi
   1699e:	e8 50 4d ff ff       	callq  b6f3 <transparent_crc>
   169a3:	0f b6 05 20 a9 00 00 	movzbl 0xa920(%rip),%eax        # 212ca <g_435>
   169aa:	48 0f be c0          	movsbq %al,%rax
   169ae:	8b 55 f4             	mov    -0xc(%rbp),%edx
   169b1:	48 8d 35 a9 64 00 00 	lea    0x64a9(%rip),%rsi        # 1ce61 <g_2454+0x2ae9>
   169b8:	48 89 c7             	mov    %rax,%rdi
   169bb:	e8 33 4d ff ff       	callq  b6f3 <transparent_crc>
   169c0:	48 8b 05 09 a9 00 00 	mov    0xa909(%rip),%rax        # 212d0 <g_472>
   169c7:	c1 e0 0f             	shl    $0xf,%eax
   169ca:	c1 f8 0f             	sar    $0xf,%eax
   169cd:	48 98                	cltq   
   169cf:	8b 55 f4             	mov    -0xc(%rbp),%edx
   169d2:	48 8d 35 8e 64 00 00 	lea    0x648e(%rip),%rsi        # 1ce67 <g_2454+0x2aef>
   169d9:	48 89 c7             	mov    %rax,%rdi
   169dc:	e8 12 4d ff ff       	callq  b6f3 <transparent_crc>
   169e1:	48 8b 05 e8 a8 00 00 	mov    0xa8e8(%rip),%rax        # 212d0 <g_472>
   169e8:	48 c1 e8 11          	shr    $0x11,%rax
   169ec:	83 e0 03             	and    $0x3,%eax
   169ef:	0f b6 c0             	movzbl %al,%eax
   169f2:	8b 55 f4             	mov    -0xc(%rbp),%edx
   169f5:	48 8d 35 74 64 00 00 	lea    0x6474(%rip),%rsi        # 1ce70 <g_2454+0x2af8>
   169fc:	48 89 c7             	mov    %rax,%rdi
   169ff:	e8 ef 4c ff ff       	callq  b6f3 <transparent_crc>
   16a04:	48 8b 05 c5 a8 00 00 	mov    0xa8c5(%rip),%rax        # 212d0 <g_472>
   16a0b:	48 c1 e8 13          	shr    $0x13,%rax
   16a0f:	25 ff ff ff 0f       	and    $0xfffffff,%eax
   16a14:	89 c1                	mov    %eax,%ecx
   16a16:	8b 45 f4             	mov    -0xc(%rbp),%eax
   16a19:	89 c2                	mov    %eax,%edx
   16a1b:	48 8d 35 57 64 00 00 	lea    0x6457(%rip),%rsi        # 1ce79 <g_2454+0x2b01>
   16a22:	48 89 cf             	mov    %rcx,%rdi
   16a25:	e8 c9 4c ff ff       	callq  b6f3 <transparent_crc>
   16a2a:	48 8b 05 9f a8 00 00 	mov    0xa89f(%rip),%rax        # 212d0 <g_472>
   16a31:	48 c1 e8 2f          	shr    $0x2f,%rax
   16a35:	48 89 c2             	mov    %rax,%rdx
   16a38:	48 8b 05 99 a8 00 00 	mov    0xa899(%rip),%rax        # 212d8 <g_472+0x8>
   16a3f:	83 e0 7f             	and    $0x7f,%eax
   16a42:	48 c1 e0 11          	shl    $0x11,%rax
   16a46:	48 09 d0             	or     %rdx,%rax
   16a49:	89 c1                	mov    %eax,%ecx
   16a4b:	8b 45 f4             	mov    -0xc(%rbp),%eax
   16a4e:	89 c2                	mov    %eax,%edx
   16a50:	48 8d 35 2b 64 00 00 	lea    0x642b(%rip),%rsi        # 1ce82 <g_2454+0x2b0a>
   16a57:	48 89 cf             	mov    %rcx,%rdi
   16a5a:	e8 94 4c ff ff       	callq  b6f3 <transparent_crc>
   16a5f:	48 8b 05 72 a8 00 00 	mov    0xa872(%rip),%rax        # 212d8 <g_472+0x8>
   16a66:	c1 e0 02             	shl    $0x2,%eax
   16a69:	66 c1 f8 09          	sar    $0x9,%ax
   16a6d:	48 0f be c0          	movsbq %al,%rax
   16a71:	8b 55 f4             	mov    -0xc(%rbp),%edx
   16a74:	48 8d 35 10 64 00 00 	lea    0x6410(%rip),%rsi        # 1ce8b <g_2454+0x2b13>
   16a7b:	48 89 c7             	mov    %rax,%rdi
   16a7e:	e8 70 4c ff ff       	callq  b6f3 <transparent_crc>
   16a83:	48 8b 05 4e a8 00 00 	mov    0xa84e(%rip),%rax        # 212d8 <g_472+0x8>
   16a8a:	66 c1 f8 0e          	sar    $0xe,%ax
   16a8e:	48 0f be c0          	movsbq %al,%rax
   16a92:	8b 55 f4             	mov    -0xc(%rbp),%edx
   16a95:	48 8d 35 f8 63 00 00 	lea    0x63f8(%rip),%rsi        # 1ce94 <g_2454+0x2b1c>
   16a9c:	48 89 c7             	mov    %rax,%rdi
   16a9f:	e8 4f 4c ff ff       	callq  b6f3 <transparent_crc>
   16aa4:	8b 05 36 a8 00 00    	mov    0xa836(%rip),%eax        # 212e0 <g_529>
   16aaa:	c1 e0 0f             	shl    $0xf,%eax
   16aad:	c1 f8 0f             	sar    $0xf,%eax
   16ab0:	48 98                	cltq   
   16ab2:	8b 55 f4             	mov    -0xc(%rbp),%edx
   16ab5:	48 8d 35 e1 63 00 00 	lea    0x63e1(%rip),%rsi        # 1ce9d <g_2454+0x2b25>
   16abc:	48 89 c7             	mov    %rax,%rdi
   16abf:	e8 2f 4c ff ff       	callq  b6f3 <transparent_crc>
   16ac4:	0f b6 05 17 a8 00 00 	movzbl 0xa817(%rip),%eax        # 212e2 <g_529+0x2>
   16acb:	d0 e8                	shr    %al
   16acd:	83 e0 03             	and    $0x3,%eax
   16ad0:	0f b6 c0             	movzbl %al,%eax
   16ad3:	8b 55 f4             	mov    -0xc(%rbp),%edx
   16ad6:	48 8d 35 c9 63 00 00 	lea    0x63c9(%rip),%rsi        # 1cea6 <g_2454+0x2b2e>
   16add:	48 89 c7             	mov    %rax,%rdi
   16ae0:	e8 0e 4c ff ff       	callq  b6f3 <transparent_crc>
   16ae5:	48 8b 05 f4 a7 00 00 	mov    0xa7f4(%rip),%rax        # 212e0 <g_529>
   16aec:	48 c1 e8 13          	shr    $0x13,%rax
   16af0:	25 ff ff ff 0f       	and    $0xfffffff,%eax
   16af5:	89 c1                	mov    %eax,%ecx
   16af7:	8b 45 f4             	mov    -0xc(%rbp),%eax
   16afa:	89 c2                	mov    %eax,%edx
   16afc:	48 8d 35 ac 63 00 00 	lea    0x63ac(%rip),%rsi        # 1ceaf <g_2454+0x2b37>
   16b03:	48 89 cf             	mov    %rcx,%rdi
   16b06:	e8 e8 4b ff ff       	callq  b6f3 <transparent_crc>
   16b0b:	8b 05 d3 a7 00 00    	mov    0xa7d3(%rip),%eax        # 212e4 <g_529+0x4>
   16b11:	c1 e8 0f             	shr    $0xf,%eax
   16b14:	89 c2                	mov    %eax,%edx
   16b16:	0f b6 05 cb a7 00 00 	movzbl 0xa7cb(%rip),%eax        # 212e8 <g_529+0x8>
   16b1d:	83 e0 7f             	and    $0x7f,%eax
   16b20:	48 c1 e0 11          	shl    $0x11,%rax
   16b24:	48 09 d0             	or     %rdx,%rax
   16b27:	89 c1                	mov    %eax,%ecx
   16b29:	8b 45 f4             	mov    -0xc(%rbp),%eax
   16b2c:	89 c2                	mov    %eax,%edx
   16b2e:	48 8d 35 83 63 00 00 	lea    0x6383(%rip),%rsi        # 1ceb8 <g_2454+0x2b40>
   16b35:	48 89 cf             	mov    %rcx,%rdi
   16b38:	e8 b6 4b ff ff       	callq  b6f3 <transparent_crc>
   16b3d:	0f b7 05 a4 a7 00 00 	movzwl 0xa7a4(%rip),%eax        # 212e8 <g_529+0x8>
   16b44:	c1 e0 02             	shl    $0x2,%eax
   16b47:	66 c1 f8 09          	sar    $0x9,%ax
   16b4b:	48 0f be c0          	movsbq %al,%rax
   16b4f:	8b 55 f4             	mov    -0xc(%rbp),%edx
   16b52:	48 8d 35 68 63 00 00 	lea    0x6368(%rip),%rsi        # 1cec1 <g_2454+0x2b49>
   16b59:	48 89 c7             	mov    %rax,%rdi
   16b5c:	e8 92 4b ff ff       	callq  b6f3 <transparent_crc>
   16b61:	0f b6 05 81 a7 00 00 	movzbl 0xa781(%rip),%eax        # 212e9 <g_529+0x9>
   16b68:	c0 f8 06             	sar    $0x6,%al
   16b6b:	48 0f be c0          	movsbq %al,%rax
   16b6f:	8b 55 f4             	mov    -0xc(%rbp),%edx
   16b72:	48 8d 35 51 63 00 00 	lea    0x6351(%rip),%rsi        # 1ceca <g_2454+0x2b52>
   16b79:	48 89 c7             	mov    %rax,%rdi
   16b7c:	e8 72 4b ff ff       	callq  b6f3 <transparent_crc>
   16b81:	8b 05 51 f6 00 00    	mov    0xf651(%rip),%eax        # 261d8 <g_530>
   16b87:	48 98                	cltq   
   16b89:	8b 55 f4             	mov    -0xc(%rbp),%edx
   16b8c:	48 8d 35 40 63 00 00 	lea    0x6340(%rip),%rsi        # 1ced3 <g_2454+0x2b5b>
   16b93:	48 89 c7             	mov    %rax,%rdi
   16b96:	e8 58 4b ff ff       	callq  b6f3 <transparent_crc>
   16b9b:	c7 45 e8 00 00 00 00 	movl   $0x0,-0x18(%rbp)
   16ba2:	eb 4f                	jmp    16bf3 <main+0xd36>
   16ba4:	8b 45 e8             	mov    -0x18(%rbp),%eax
   16ba7:	48 98                	cltq   
   16ba9:	48 8d 14 c5 00 00 00 	lea    0x0(,%rax,8),%rdx
   16bb0:	00 
   16bb1:	48 8d 05 38 a7 00 00 	lea    0xa738(%rip),%rax        # 212f0 <g_582>
   16bb8:	48 8b 04 02          	mov    (%rdx,%rax,1),%rax
   16bbc:	48 89 c1             	mov    %rax,%rcx
   16bbf:	8b 45 f4             	mov    -0xc(%rbp),%eax
   16bc2:	89 c2                	mov    %eax,%edx
   16bc4:	48 8d 35 0e 63 00 00 	lea    0x630e(%rip),%rsi        # 1ced9 <g_2454+0x2b61>
   16bcb:	48 89 cf             	mov    %rcx,%rdi
   16bce:	e8 20 4b ff ff       	callq  b6f3 <transparent_crc>
   16bd3:	83 7d f4 00          	cmpl   $0x0,-0xc(%rbp)
   16bd7:	74 16                	je     16bef <main+0xd32>
   16bd9:	8b 45 e8             	mov    -0x18(%rbp),%eax
   16bdc:	89 c6                	mov    %eax,%esi
   16bde:	48 8d 3d 8d 60 00 00 	lea    0x608d(%rip),%rdi        # 1cc72 <g_2454+0x28fa>
   16be5:	b8 00 00 00 00       	mov    $0x0,%eax
   16bea:	e8 91 34 ff ff       	callq  a080 <printf@plt>
   16bef:	83 45 e8 01          	addl   $0x1,-0x18(%rbp)
   16bf3:	83 7d e8 00          	cmpl   $0x0,-0x18(%rbp)
   16bf7:	7e ab                	jle    16ba4 <main+0xce7>
   16bf9:	b8 20 9a ff ff       	mov    $0xffff9a20,%eax
   16bfe:	48 98                	cltq   
   16c00:	8b 55 f4             	mov    -0xc(%rbp),%edx
   16c03:	48 8d 35 d8 62 00 00 	lea    0x62d8(%rip),%rsi        # 1cee2 <g_2454+0x2b6a>
   16c0a:	48 89 c7             	mov    %rax,%rdi
   16c0d:	e8 e1 4a ff ff       	callq  b6f3 <transparent_crc>
   16c12:	b8 f3 00 00 00       	mov    $0xf3,%eax
   16c17:	89 c1                	mov    %eax,%ecx
   16c19:	8b 45 f4             	mov    -0xc(%rbp),%eax
   16c1c:	89 c2                	mov    %eax,%edx
   16c1e:	48 8d 35 c6 62 00 00 	lea    0x62c6(%rip),%rsi        # 1ceeb <g_2454+0x2b73>
   16c25:	48 89 cf             	mov    %rcx,%rdi
   16c28:	e8 c6 4a ff ff       	callq  b6f3 <transparent_crc>
   16c2d:	b8 05 00 00 00       	mov    $0x5,%eax
   16c32:	0f b7 c0             	movzwl %ax,%eax
   16c35:	8b 55 f4             	mov    -0xc(%rbp),%edx
   16c38:	48 8d 35 b5 62 00 00 	lea    0x62b5(%rip),%rsi        # 1cef4 <g_2454+0x2b7c>
   16c3f:	48 89 c7             	mov    %rax,%rdi
   16c42:	e8 ac 4a ff ff       	callq  b6f3 <transparent_crc>
   16c47:	b8 df ff ff ff       	mov    $0xffffffdf,%eax
   16c4c:	48 0f bf c0          	movswq %ax,%rax
   16c50:	8b 55 f4             	mov    -0xc(%rbp),%edx
   16c53:	48 8d 35 a3 62 00 00 	lea    0x62a3(%rip),%rsi        # 1cefd <g_2454+0x2b85>
   16c5a:	48 89 c7             	mov    %rax,%rdi
   16c5d:	e8 91 4a ff ff       	callq  b6f3 <transparent_crc>
   16c62:	b8 96 15 00 00       	mov    $0x1596,%eax
   16c67:	89 c1                	mov    %eax,%ecx
   16c69:	8b 45 f4             	mov    -0xc(%rbp),%eax
   16c6c:	89 c2                	mov    %eax,%edx
   16c6e:	48 8d 35 91 62 00 00 	lea    0x6291(%rip),%rsi        # 1cf06 <g_2454+0x2b8e>
   16c75:	48 89 cf             	mov    %rcx,%rdi
   16c78:	e8 76 4a ff ff       	callq  b6f3 <transparent_crc>
   16c7d:	48 8b 05 0c 34 00 00 	mov    0x340c(%rip),%rax        # 1a090 <g_611+0x10>
   16c84:	66 25 ff 03          	and    $0x3ff,%ax
   16c88:	0f b7 c0             	movzwl %ax,%eax
   16c8b:	8b 55 f4             	mov    -0xc(%rbp),%edx
   16c8e:	48 8d 35 7a 62 00 00 	lea    0x627a(%rip),%rsi        # 1cf0f <g_2454+0x2b97>
   16c95:	48 89 c7             	mov    %rax,%rdi
   16c98:	e8 56 4a ff ff       	callq  b6f3 <transparent_crc>
   16c9d:	c7 45 e8 00 00 00 00 	movl   $0x0,-0x18(%rbp)
   16ca4:	eb 70                	jmp    16d16 <main+0xe59>
   16ca6:	c7 45 ec 00 00 00 00 	movl   $0x0,-0x14(%rbp)
   16cad:	eb 5d                	jmp    16d0c <main+0xe4f>
   16caf:	8b 45 ec             	mov    -0x14(%rbp),%eax
   16cb2:	48 98                	cltq   
   16cb4:	8b 55 e8             	mov    -0x18(%rbp),%edx
   16cb7:	48 63 d2             	movslq %edx,%rdx
   16cba:	48 c1 e2 02          	shl    $0x2,%rdx
   16cbe:	48 01 d0             	add    %rdx,%rax
   16cc1:	48 8d 14 85 00 00 00 	lea    0x0(,%rax,4),%rdx
   16cc8:	00 
   16cc9:	48 8d 05 30 a6 00 00 	lea    0xa630(%rip),%rax        # 21300 <g_622>
   16cd0:	8b 04 02             	mov    (%rdx,%rax,1),%eax
   16cd3:	89 c1                	mov    %eax,%ecx
   16cd5:	8b 45 f4             	mov    -0xc(%rbp),%eax
   16cd8:	89 c2                	mov    %eax,%edx
   16cda:	48 8d 35 37 62 00 00 	lea    0x6237(%rip),%rsi        # 1cf18 <g_2454+0x2ba0>
   16ce1:	48 89 cf             	mov    %rcx,%rdi
   16ce4:	e8 0a 4a ff ff       	callq  b6f3 <transparent_crc>
   16ce9:	83 7d f4 00          	cmpl   $0x0,-0xc(%rbp)
   16ced:	74 19                	je     16d08 <main+0xe4b>
   16cef:	8b 55 ec             	mov    -0x14(%rbp),%edx
   16cf2:	8b 45 e8             	mov    -0x18(%rbp),%eax
   16cf5:	89 c6                	mov    %eax,%esi
   16cf7:	48 8d 3d f7 60 00 00 	lea    0x60f7(%rip),%rdi        # 1cdf5 <g_2454+0x2a7d>
   16cfe:	b8 00 00 00 00       	mov    $0x0,%eax
   16d03:	e8 78 33 ff ff       	callq  a080 <printf@plt>
   16d08:	83 45 ec 01          	addl   $0x1,-0x14(%rbp)
   16d0c:	83 7d ec 03          	cmpl   $0x3,-0x14(%rbp)
   16d10:	7e 9d                	jle    16caf <main+0xdf2>
   16d12:	83 45 e8 01          	addl   $0x1,-0x18(%rbp)
   16d16:	83 7d e8 02          	cmpl   $0x2,-0x18(%rbp)
   16d1a:	7e 8a                	jle    16ca6 <main+0xde9>
   16d1c:	8b 05 0e a6 00 00    	mov    0xa60e(%rip),%eax        # 21330 <g_625>
   16d22:	89 c1                	mov    %eax,%ecx
   16d24:	8b 45 f4             	mov    -0xc(%rbp),%eax
   16d27:	89 c2                	mov    %eax,%edx
   16d29:	48 8d 35 f4 61 00 00 	lea    0x61f4(%rip),%rsi        # 1cf24 <g_2454+0x2bac>
   16d30:	48 89 cf             	mov    %rcx,%rdi
   16d33:	e8 bb 49 ff ff       	callq  b6f3 <transparent_crc>
   16d38:	48 8b 05 f9 a5 00 00 	mov    0xa5f9(%rip),%rax        # 21338 <g_661>
   16d3f:	48 89 c1             	mov    %rax,%rcx
   16d42:	8b 45 f4             	mov    -0xc(%rbp),%eax
   16d45:	89 c2                	mov    %eax,%edx
   16d47:	48 8d 35 df 61 00 00 	lea    0x61df(%rip),%rsi        # 1cf2d <g_2454+0x2bb5>
   16d4e:	48 89 cf             	mov    %rcx,%rdi
   16d51:	e8 9d 49 ff ff       	callq  b6f3 <transparent_crc>
   16d56:	8b 05 e4 a5 00 00    	mov    0xa5e4(%rip),%eax        # 21340 <g_666>
   16d5c:	89 c1                	mov    %eax,%ecx
   16d5e:	8b 45 f4             	mov    -0xc(%rbp),%eax
   16d61:	89 c2                	mov    %eax,%edx
   16d63:	48 8d 35 c9 61 00 00 	lea    0x61c9(%rip),%rsi        # 1cf33 <g_2454+0x2bbb>
   16d6a:	48 89 cf             	mov    %rcx,%rdi
   16d6d:	e8 81 49 ff ff       	callq  b6f3 <transparent_crc>
   16d72:	c7 45 e8 00 00 00 00 	movl   $0x0,-0x18(%rbp)
   16d79:	e9 7c 02 00 00       	jmpq   16ffa <main+0x113d>
   16d7e:	c7 45 ec 00 00 00 00 	movl   $0x0,-0x14(%rbp)
   16d85:	e9 62 02 00 00       	jmpq   16fec <main+0x112f>
   16d8a:	8b 45 ec             	mov    -0x14(%rbp),%eax
   16d8d:	48 98                	cltq   
   16d8f:	8b 55 e8             	mov    -0x18(%rbp),%edx
   16d92:	48 63 ca             	movslq %edx,%rcx
   16d95:	48 89 c2             	mov    %rax,%rdx
   16d98:	48 c1 e2 02          	shl    $0x2,%rdx
   16d9c:	48 01 c2             	add    %rax,%rdx
   16d9f:	48 8d 04 12          	lea    (%rdx,%rdx,1),%rax
   16da3:	48 89 c2             	mov    %rax,%rdx
   16da6:	48 89 c8             	mov    %rcx,%rax
   16da9:	48 c1 e0 02          	shl    $0x2,%rax
   16dad:	48 01 c8             	add    %rcx,%rax
   16db0:	48 c1 e0 04          	shl    $0x4,%rax
   16db4:	48 01 c2             	add    %rax,%rdx
   16db7:	48 8d 05 a2 a5 00 00 	lea    0xa5a2(%rip),%rax        # 21360 <g_740>
   16dbe:	48 01 d0             	add    %rdx,%rax
   16dc1:	0f b7 10             	movzwl (%rax),%edx
   16dc4:	0f b6 40 02          	movzbl 0x2(%rax),%eax
   16dc8:	83 e0 01             	and    $0x1,%eax
   16dcb:	48 c1 e0 10          	shl    $0x10,%rax
   16dcf:	48 09 d0             	or     %rdx,%rax
   16dd2:	48 c1 e0 2f          	shl    $0x2f,%rax
   16dd6:	48 c1 f8 2f          	sar    $0x2f,%rax
   16dda:	48 98                	cltq   
   16ddc:	8b 55 f4             	mov    -0xc(%rbp),%edx
   16ddf:	48 8d 35 56 61 00 00 	lea    0x6156(%rip),%rsi        # 1cf3c <g_2454+0x2bc4>
   16de6:	48 89 c7             	mov    %rax,%rdi
   16de9:	e8 05 49 ff ff       	callq  b6f3 <transparent_crc>
   16dee:	8b 45 ec             	mov    -0x14(%rbp),%eax
   16df1:	48 98                	cltq   
   16df3:	8b 55 e8             	mov    -0x18(%rbp),%edx
   16df6:	48 63 ca             	movslq %edx,%rcx
   16df9:	48 89 c2             	mov    %rax,%rdx
   16dfc:	48 c1 e2 02          	shl    $0x2,%rdx
   16e00:	48 01 c2             	add    %rax,%rdx
   16e03:	48 8d 04 12          	lea    (%rdx,%rdx,1),%rax
   16e07:	48 89 c2             	mov    %rax,%rdx
   16e0a:	48 89 c8             	mov    %rcx,%rax
   16e0d:	48 c1 e0 02          	shl    $0x2,%rax
   16e11:	48 01 c8             	add    %rcx,%rax
   16e14:	48 c1 e0 04          	shl    $0x4,%rax
   16e18:	48 01 c2             	add    %rax,%rdx
   16e1b:	48 8d 05 3e a5 00 00 	lea    0xa53e(%rip),%rax        # 21360 <g_740>
   16e22:	48 01 d0             	add    %rdx,%rax
   16e25:	0f b6 40 02          	movzbl 0x2(%rax),%eax
   16e29:	d0 e8                	shr    %al
   16e2b:	83 e0 03             	and    $0x3,%eax
   16e2e:	0f b6 c0             	movzbl %al,%eax
   16e31:	8b 55 f4             	mov    -0xc(%rbp),%edx
   16e34:	48 8d 35 10 61 00 00 	lea    0x6110(%rip),%rsi        # 1cf4b <g_2454+0x2bd3>
   16e3b:	48 89 c7             	mov    %rax,%rdi
   16e3e:	e8 b0 48 ff ff       	callq  b6f3 <transparent_crc>
   16e43:	8b 45 ec             	mov    -0x14(%rbp),%eax
   16e46:	48 98                	cltq   
   16e48:	8b 55 e8             	mov    -0x18(%rbp),%edx
   16e4b:	48 63 ca             	movslq %edx,%rcx
   16e4e:	48 89 c2             	mov    %rax,%rdx
   16e51:	48 c1 e2 02          	shl    $0x2,%rdx
   16e55:	48 01 c2             	add    %rax,%rdx
   16e58:	48 8d 04 12          	lea    (%rdx,%rdx,1),%rax
   16e5c:	48 89 c2             	mov    %rax,%rdx
   16e5f:	48 89 c8             	mov    %rcx,%rax
   16e62:	48 c1 e0 02          	shl    $0x2,%rax
   16e66:	48 01 c8             	add    %rcx,%rax
   16e69:	48 c1 e0 04          	shl    $0x4,%rax
   16e6d:	48 01 c2             	add    %rax,%rdx
   16e70:	48 8d 05 e9 a4 00 00 	lea    0xa4e9(%rip),%rax        # 21360 <g_740>
   16e77:	48 01 d0             	add    %rdx,%rax
   16e7a:	0f b7 50 02          	movzwl 0x2(%rax),%edx
   16e7e:	66 c1 ea 03          	shr    $0x3,%dx
   16e82:	0f b7 d2             	movzwl %dx,%edx
   16e85:	0f b7 40 04          	movzwl 0x4(%rax),%eax
   16e89:	0f b7 c0             	movzwl %ax,%eax
   16e8c:	25 ff 7f 00 00       	and    $0x7fff,%eax
   16e91:	48 c1 e0 0d          	shl    $0xd,%rax
   16e95:	48 09 d0             	or     %rdx,%rax
   16e98:	89 c1                	mov    %eax,%ecx
   16e9a:	8b 45 f4             	mov    -0xc(%rbp),%eax
   16e9d:	89 c2                	mov    %eax,%edx
   16e9f:	48 8d 35 b4 60 00 00 	lea    0x60b4(%rip),%rsi        # 1cf5a <g_2454+0x2be2>
   16ea6:	48 89 cf             	mov    %rcx,%rdi
   16ea9:	e8 45 48 ff ff       	callq  b6f3 <transparent_crc>
   16eae:	8b 45 ec             	mov    -0x14(%rbp),%eax
   16eb1:	48 98                	cltq   
   16eb3:	8b 55 e8             	mov    -0x18(%rbp),%edx
   16eb6:	48 63 ca             	movslq %edx,%rcx
   16eb9:	48 89 c2             	mov    %rax,%rdx
   16ebc:	48 c1 e2 02          	shl    $0x2,%rdx
   16ec0:	48 01 c2             	add    %rax,%rdx
   16ec3:	48 8d 04 12          	lea    (%rdx,%rdx,1),%rax
   16ec7:	48 89 c2             	mov    %rax,%rdx
   16eca:	48 89 c8             	mov    %rcx,%rax
   16ecd:	48 c1 e0 02          	shl    $0x2,%rax
   16ed1:	48 01 c8             	add    %rcx,%rax
   16ed4:	48 c1 e0 04          	shl    $0x4,%rax
   16ed8:	48 01 c2             	add    %rax,%rdx
   16edb:	48 8d 05 7e a4 00 00 	lea    0xa47e(%rip),%rax        # 21360 <g_740>
   16ee2:	48 01 d0             	add    %rdx,%rax
   16ee5:	0f b6 50 05          	movzbl 0x5(%rax),%edx
   16ee9:	c0 ea 07             	shr    $0x7,%dl
   16eec:	0f b6 d2             	movzbl %dl,%edx
   16eef:	0f b7 48 06          	movzwl 0x6(%rax),%ecx
   16ef3:	48 01 c9             	add    %rcx,%rcx
   16ef6:	48 09 ca             	or     %rcx,%rdx
   16ef9:	0f b6 40 08          	movzbl 0x8(%rax),%eax
   16efd:	83 e0 7f             	and    $0x7f,%eax
   16f00:	48 c1 e0 11          	shl    $0x11,%rax
   16f04:	48 09 d0             	or     %rdx,%rax
   16f07:	89 c1                	mov    %eax,%ecx
   16f09:	8b 45 f4             	mov    -0xc(%rbp),%eax
   16f0c:	89 c2                	mov    %eax,%edx
   16f0e:	48 8d 35 54 60 00 00 	lea    0x6054(%rip),%rsi        # 1cf69 <g_2454+0x2bf1>
   16f15:	48 89 cf             	mov    %rcx,%rdi
   16f18:	e8 d6 47 ff ff       	callq  b6f3 <transparent_crc>
   16f1d:	8b 45 ec             	mov    -0x14(%rbp),%eax
   16f20:	48 98                	cltq   
   16f22:	8b 55 e8             	mov    -0x18(%rbp),%edx
   16f25:	48 63 ca             	movslq %edx,%rcx
   16f28:	48 89 c2             	mov    %rax,%rdx
   16f2b:	48 c1 e2 02          	shl    $0x2,%rdx
   16f2f:	48 01 c2             	add    %rax,%rdx
   16f32:	48 8d 04 12          	lea    (%rdx,%rdx,1),%rax
   16f36:	48 89 c2             	mov    %rax,%rdx
   16f39:	48 89 c8             	mov    %rcx,%rax
   16f3c:	48 c1 e0 02          	shl    $0x2,%rax
   16f40:	48 01 c8             	add    %rcx,%rax
   16f43:	48 c1 e0 04          	shl    $0x4,%rax
   16f47:	48 01 c2             	add    %rax,%rdx
   16f4a:	48 8d 05 0f a4 00 00 	lea    0xa40f(%rip),%rax        # 21360 <g_740>
   16f51:	48 01 d0             	add    %rdx,%rax
   16f54:	0f b7 40 08          	movzwl 0x8(%rax),%eax
   16f58:	c1 e0 02             	shl    $0x2,%eax
   16f5b:	66 c1 f8 09          	sar    $0x9,%ax
   16f5f:	48 0f be c0          	movsbq %al,%rax
   16f63:	8b 55 f4             	mov    -0xc(%rbp),%edx
   16f66:	48 8d 35 0b 60 00 00 	lea    0x600b(%rip),%rsi        # 1cf78 <g_2454+0x2c00>
   16f6d:	48 89 c7             	mov    %rax,%rdi
   16f70:	e8 7e 47 ff ff       	callq  b6f3 <transparent_crc>
   16f75:	8b 45 ec             	mov    -0x14(%rbp),%eax
   16f78:	48 98                	cltq   
   16f7a:	8b 55 e8             	mov    -0x18(%rbp),%edx
   16f7d:	48 63 ca             	movslq %edx,%rcx
   16f80:	48 89 c2             	mov    %rax,%rdx
   16f83:	48 c1 e2 02          	shl    $0x2,%rdx
   16f87:	48 01 c2             	add    %rax,%rdx
   16f8a:	48 8d 04 12          	lea    (%rdx,%rdx,1),%rax
   16f8e:	48 89 c2             	mov    %rax,%rdx
   16f91:	48 89 c8             	mov    %rcx,%rax
   16f94:	48 c1 e0 02          	shl    $0x2,%rax
   16f98:	48 01 c8             	add    %rcx,%rax
   16f9b:	48 c1 e0 04          	shl    $0x4,%rax
   16f9f:	48 01 c2             	add    %rax,%rdx
   16fa2:	48 8d 05 b7 a3 00 00 	lea    0xa3b7(%rip),%rax        # 21360 <g_740>
   16fa9:	48 01 d0             	add    %rdx,%rax
   16fac:	0f b6 40 09          	movzbl 0x9(%rax),%eax
   16fb0:	c0 f8 06             	sar    $0x6,%al
   16fb3:	48 0f be c0          	movsbq %al,%rax
   16fb7:	8b 55 f4             	mov    -0xc(%rbp),%edx
   16fba:	48 8d 35 c6 5f 00 00 	lea    0x5fc6(%rip),%rsi        # 1cf87 <g_2454+0x2c0f>
   16fc1:	48 89 c7             	mov    %rax,%rdi
   16fc4:	e8 2a 47 ff ff       	callq  b6f3 <transparent_crc>
   16fc9:	83 7d f4 00          	cmpl   $0x0,-0xc(%rbp)
   16fcd:	74 19                	je     16fe8 <main+0x112b>
   16fcf:	8b 55 ec             	mov    -0x14(%rbp),%edx
   16fd2:	8b 45 e8             	mov    -0x18(%rbp),%eax
   16fd5:	89 c6                	mov    %eax,%esi
   16fd7:	48 8d 3d 17 5e 00 00 	lea    0x5e17(%rip),%rdi        # 1cdf5 <g_2454+0x2a7d>
   16fde:	b8 00 00 00 00       	mov    $0x0,%eax
   16fe3:	e8 98 30 ff ff       	callq  a080 <printf@plt>
   16fe8:	83 45 ec 01          	addl   $0x1,-0x14(%rbp)
   16fec:	83 7d ec 07          	cmpl   $0x7,-0x14(%rbp)
   16ff0:	0f 8e 94 fd ff ff    	jle    16d8a <main+0xecd>
   16ff6:	83 45 e8 01          	addl   $0x1,-0x18(%rbp)
   16ffa:	83 7d e8 00          	cmpl   $0x0,-0x18(%rbp)
   16ffe:	0f 8e 7a fd ff ff    	jle    16d7e <main+0xec1>
   17004:	8b 05 a6 a3 00 00    	mov    0xa3a6(%rip),%eax        # 213b0 <g_742>
   1700a:	89 c1                	mov    %eax,%ecx
   1700c:	8b 45 f4             	mov    -0xc(%rbp),%eax
   1700f:	89 c2                	mov    %eax,%edx
   17011:	48 8d 35 7e 5f 00 00 	lea    0x5f7e(%rip),%rsi        # 1cf96 <g_2454+0x2c1e>
   17018:	48 89 cf             	mov    %rcx,%rdi
   1701b:	e8 d3 46 ff ff       	callq  b6f3 <transparent_crc>
   17020:	8b 05 9a a3 00 00    	mov    0xa39a(%rip),%eax        # 213c0 <g_846>
   17026:	01 c0                	add    %eax,%eax
   17028:	d1 f8                	sar    %eax
   1702a:	48 98                	cltq   
   1702c:	8b 55 f4             	mov    -0xc(%rbp),%edx
   1702f:	48 8d 35 66 5f 00 00 	lea    0x5f66(%rip),%rsi        # 1cf9c <g_2454+0x2c24>
   17036:	48 89 c7             	mov    %rax,%rdi
   17039:	e8 b5 46 ff ff       	callq  b6f3 <transparent_crc>
   1703e:	8b 05 80 a3 00 00    	mov    0xa380(%rip),%eax        # 213c4 <g_846+0x4>
   17044:	25 ff ff 0f 00       	and    $0xfffff,%eax
   17049:	89 c1                	mov    %eax,%ecx
   1704b:	8b 45 f4             	mov    -0xc(%rbp),%eax
   1704e:	89 c2                	mov    %eax,%edx
   17050:	48 8d 35 4e 5f 00 00 	lea    0x5f4e(%rip),%rsi        # 1cfa5 <g_2454+0x2c2d>
   17057:	48 89 cf             	mov    %rcx,%rdi
   1705a:	e8 94 46 ff ff       	callq  b6f3 <transparent_crc>
   1705f:	0f b7 05 60 a3 00 00 	movzwl 0xa360(%rip),%eax        # 213c6 <g_846+0x6>
   17066:	66 c1 e8 04          	shr    $0x4,%ax
   1706a:	0f b7 c0             	movzwl %ax,%eax
   1706d:	8b 55 f4             	mov    -0xc(%rbp),%edx
   17070:	48 8d 35 37 5f 00 00 	lea    0x5f37(%rip),%rsi        # 1cfae <g_2454+0x2c36>
   17077:	48 89 c7             	mov    %rax,%rdi
   1707a:	e8 74 46 ff ff       	callq  b6f3 <transparent_crc>
   1707f:	0f b7 05 42 a3 00 00 	movzwl 0xa342(%rip),%eax        # 213c8 <g_846+0x8>
   17086:	c1 e0 05             	shl    $0x5,%eax
   17089:	66 c1 f8 05          	sar    $0x5,%ax
   1708d:	48 0f bf c0          	movswq %ax,%rax
   17091:	8b 55 f4             	mov    -0xc(%rbp),%edx
   17094:	48 8d 35 1c 5f 00 00 	lea    0x5f1c(%rip),%rsi        # 1cfb7 <g_2454+0x2c3f>
   1709b:	48 89 c7             	mov    %rax,%rdi
   1709e:	e8 50 46 ff ff       	callq  b6f3 <transparent_crc>
   170a3:	8b 05 23 a3 00 00    	mov    0xa323(%rip),%eax        # 213cc <g_846+0xc>
   170a9:	25 ff ff ff 03       	and    $0x3ffffff,%eax
   170ae:	89 c1                	mov    %eax,%ecx
   170b0:	8b 45 f4             	mov    -0xc(%rbp),%eax
   170b3:	89 c2                	mov    %eax,%edx
   170b5:	48 8d 35 04 5f 00 00 	lea    0x5f04(%rip),%rsi        # 1cfc0 <g_2454+0x2c48>
   170bc:	48 89 cf             	mov    %rcx,%rdi
   170bf:	e8 2f 46 ff ff       	callq  b6f3 <transparent_crc>
   170c4:	48 8b 05 05 a3 00 00 	mov    0xa305(%rip),%rax        # 213d0 <g_846+0x10>
   170cb:	66 25 ff 03          	and    $0x3ff,%ax
   170cf:	0f b7 c0             	movzwl %ax,%eax
   170d2:	8b 55 f4             	mov    -0xc(%rbp),%edx
   170d5:	48 8d 35 ed 5e 00 00 	lea    0x5eed(%rip),%rsi        # 1cfc9 <g_2454+0x2c51>
   170dc:	48 89 c7             	mov    %rax,%rdi
   170df:	e8 0f 46 ff ff       	callq  b6f3 <transparent_crc>
   170e4:	b8 05 00 00 00       	mov    $0x5,%eax
   170e9:	0f b6 c0             	movzbl %al,%eax
   170ec:	8b 55 f4             	mov    -0xc(%rbp),%edx
   170ef:	48 8d 35 dc 5e 00 00 	lea    0x5edc(%rip),%rsi        # 1cfd2 <g_2454+0x2c5a>
   170f6:	48 89 c7             	mov    %rax,%rdi
   170f9:	e8 f5 45 ff ff       	callq  b6f3 <transparent_crc>
   170fe:	0f b7 05 cf a2 00 00 	movzwl 0xa2cf(%rip),%eax        # 213d4 <g_919>
   17105:	48 0f bf c0          	movswq %ax,%rax
   17109:	8b 55 f4             	mov    -0xc(%rbp),%edx
   1710c:	48 8d 35 c5 5e 00 00 	lea    0x5ec5(%rip),%rsi        # 1cfd8 <g_2454+0x2c60>
   17113:	48 89 c7             	mov    %rax,%rdi
   17116:	e8 d8 45 ff ff       	callq  b6f3 <transparent_crc>
   1711b:	8b 05 c7 f0 00 00    	mov    0xf0c7(%rip),%eax        # 261e8 <g_920>
   17121:	89 c1                	mov    %eax,%ecx
   17123:	8b 45 f4             	mov    -0xc(%rbp),%eax
   17126:	89 c2                	mov    %eax,%edx
   17128:	48 8d 35 af 5e 00 00 	lea    0x5eaf(%rip),%rsi        # 1cfde <g_2454+0x2c66>
   1712f:	48 89 cf             	mov    %rcx,%rdi
   17132:	e8 bc 45 ff ff       	callq  b6f3 <transparent_crc>
   17137:	b8 97 00 00 00       	mov    $0x97,%eax
   1713c:	48 98                	cltq   
   1713e:	8b 55 f4             	mov    -0xc(%rbp),%edx
   17141:	48 8d 35 9c 5e 00 00 	lea    0x5e9c(%rip),%rsi        # 1cfe4 <g_2454+0x2c6c>
   17148:	48 89 c7             	mov    %rax,%rdi
   1714b:	e8 a3 45 ff ff       	callq  b6f3 <transparent_crc>
   17150:	b8 00 00 00 00       	mov    $0x0,%eax
   17155:	0f b6 c0             	movzbl %al,%eax
   17158:	8b 55 f4             	mov    -0xc(%rbp),%edx
   1715b:	48 8d 35 8b 5e 00 00 	lea    0x5e8b(%rip),%rsi        # 1cfed <g_2454+0x2c75>
   17162:	48 89 c7             	mov    %rax,%rdi
   17165:	e8 89 45 ff ff       	callq  b6f3 <transparent_crc>
   1716a:	48 8b 05 27 2f 00 00 	mov    0x2f27(%rip),%rax        # 1a098 <g_927>
   17171:	48 c1 e8 13          	shr    $0x13,%rax
   17175:	25 ff ff ff 0f       	and    $0xfffffff,%eax
   1717a:	89 c1                	mov    %eax,%ecx
   1717c:	8b 45 f4             	mov    -0xc(%rbp),%eax
   1717f:	89 c2                	mov    %eax,%edx
   17181:	48 8d 35 6e 5e 00 00 	lea    0x5e6e(%rip),%rsi        # 1cff6 <g_2454+0x2c7e>
   17188:	48 89 cf             	mov    %rcx,%rdi
   1718b:	e8 63 45 ff ff       	callq  b6f3 <transparent_crc>
   17190:	b8 dd 02 00 00       	mov    $0x2dd,%eax
   17195:	89 c1                	mov    %eax,%ecx
   17197:	8b 45 f4             	mov    -0xc(%rbp),%eax
   1719a:	89 c2                	mov    %eax,%edx
   1719c:	48 8d 35 5c 5e 00 00 	lea    0x5e5c(%rip),%rsi        # 1cfff <g_2454+0x2c87>
   171a3:	48 89 cf             	mov    %rcx,%rdi
   171a6:	e8 48 45 ff ff       	callq  b6f3 <transparent_crc>
   171ab:	b8 fe ff ff ff       	mov    $0xfffffffe,%eax
   171b0:	48 0f be c0          	movsbq %al,%rax
   171b4:	8b 55 f4             	mov    -0xc(%rbp),%edx
   171b7:	48 8d 35 4a 5e 00 00 	lea    0x5e4a(%rip),%rsi        # 1d008 <g_2454+0x2c90>
   171be:	48 89 c7             	mov    %rax,%rdi
   171c1:	e8 2d 45 ff ff       	callq  b6f3 <transparent_crc>
   171c6:	b8 01 00 00 00       	mov    $0x1,%eax
   171cb:	48 0f be c0          	movsbq %al,%rax
   171cf:	8b 55 f4             	mov    -0xc(%rbp),%edx
   171d2:	48 8d 35 38 5e 00 00 	lea    0x5e38(%rip),%rsi        # 1d011 <g_2454+0x2c99>
   171d9:	48 89 c7             	mov    %rax,%rdi
   171dc:	e8 12 45 ff ff       	callq  b6f3 <transparent_crc>
   171e1:	48 8b 05 f8 a1 00 00 	mov    0xa1f8(%rip),%rax        # 213e0 <g_992>
   171e8:	01 c0                	add    %eax,%eax
   171ea:	d1 f8                	sar    %eax
   171ec:	48 98                	cltq   
   171ee:	8b 55 f4             	mov    -0xc(%rbp),%edx
   171f1:	48 8d 35 22 5e 00 00 	lea    0x5e22(%rip),%rsi        # 1d01a <g_2454+0x2ca2>
   171f8:	48 89 c7             	mov    %rax,%rdi
   171fb:	e8 f3 44 ff ff       	callq  b6f3 <transparent_crc>
   17200:	48 8b 05 d9 a1 00 00 	mov    0xa1d9(%rip),%rax        # 213e0 <g_992>
   17207:	48 c1 e8 20          	shr    $0x20,%rax
   1720b:	25 ff ff 0f 00       	and    $0xfffff,%eax
   17210:	89 c1                	mov    %eax,%ecx
   17212:	8b 45 f4             	mov    -0xc(%rbp),%eax
   17215:	89 c2                	mov    %eax,%edx
   17217:	48 8d 35 05 5e 00 00 	lea    0x5e05(%rip),%rsi        # 1d023 <g_2454+0x2cab>
   1721e:	48 89 cf             	mov    %rcx,%rdi
   17221:	e8 cd 44 ff ff       	callq  b6f3 <transparent_crc>
   17226:	48 8b 05 b3 a1 00 00 	mov    0xa1b3(%rip),%rax        # 213e0 <g_992>
   1722d:	48 c1 e8 34          	shr    $0x34,%rax
   17231:	0f b7 c0             	movzwl %ax,%eax
   17234:	8b 55 f4             	mov    -0xc(%rbp),%edx
   17237:	48 8d 35 ee 5d 00 00 	lea    0x5dee(%rip),%rsi        # 1d02c <g_2454+0x2cb4>
   1723e:	48 89 c7             	mov    %rax,%rdi
   17241:	e8 ad 44 ff ff       	callq  b6f3 <transparent_crc>
   17246:	48 8b 05 9b a1 00 00 	mov    0xa19b(%rip),%rax        # 213e8 <g_992+0x8>
   1724d:	c1 e0 05             	shl    $0x5,%eax
   17250:	66 c1 f8 05          	sar    $0x5,%ax
   17254:	48 0f bf c0          	movswq %ax,%rax
   17258:	8b 55 f4             	mov    -0xc(%rbp),%edx
   1725b:	48 8d 35 d3 5d 00 00 	lea    0x5dd3(%rip),%rsi        # 1d035 <g_2454+0x2cbd>
   17262:	48 89 c7             	mov    %rax,%rdi
   17265:	e8 89 44 ff ff       	callq  b6f3 <transparent_crc>
   1726a:	48 8b 05 77 a1 00 00 	mov    0xa177(%rip),%rax        # 213e8 <g_992+0x8>
   17271:	48 c1 e8 20          	shr    $0x20,%rax
   17275:	25 ff ff ff 03       	and    $0x3ffffff,%eax
   1727a:	89 c1                	mov    %eax,%ecx
   1727c:	8b 45 f4             	mov    -0xc(%rbp),%eax
   1727f:	89 c2                	mov    %eax,%edx
   17281:	48 8d 35 b6 5d 00 00 	lea    0x5db6(%rip),%rsi        # 1d03e <g_2454+0x2cc6>
   17288:	48 89 cf             	mov    %rcx,%rdi
   1728b:	e8 63 44 ff ff       	callq  b6f3 <transparent_crc>
   17290:	48 8b 05 59 a1 00 00 	mov    0xa159(%rip),%rax        # 213f0 <g_992+0x10>
   17297:	66 25 ff 03          	and    $0x3ff,%ax
   1729b:	0f b7 c0             	movzwl %ax,%eax
   1729e:	8b 55 f4             	mov    -0xc(%rbp),%edx
   172a1:	48 8d 35 9f 5d 00 00 	lea    0x5d9f(%rip),%rsi        # 1d047 <g_2454+0x2ccf>
   172a8:	48 89 c7             	mov    %rax,%rdi
   172ab:	e8 43 44 ff ff       	callq  b6f3 <transparent_crc>
   172b0:	48 8b 05 49 a1 00 00 	mov    0xa149(%rip),%rax        # 21400 <g_1066>
   172b7:	01 c0                	add    %eax,%eax
   172b9:	d1 f8                	sar    %eax
   172bb:	48 98                	cltq   
   172bd:	8b 55 f4             	mov    -0xc(%rbp),%edx
   172c0:	48 8d 35 89 5d 00 00 	lea    0x5d89(%rip),%rsi        # 1d050 <g_2454+0x2cd8>
   172c7:	48 89 c7             	mov    %rax,%rdi
   172ca:	e8 24 44 ff ff       	callq  b6f3 <transparent_crc>
   172cf:	48 8b 05 2a a1 00 00 	mov    0xa12a(%rip),%rax        # 21400 <g_1066>
   172d6:	48 c1 e8 20          	shr    $0x20,%rax
   172da:	25 ff ff 0f 00       	and    $0xfffff,%eax
   172df:	89 c1                	mov    %eax,%ecx
   172e1:	8b 45 f4             	mov    -0xc(%rbp),%eax
   172e4:	89 c2                	mov    %eax,%edx
   172e6:	48 8d 35 6d 5d 00 00 	lea    0x5d6d(%rip),%rsi        # 1d05a <g_2454+0x2ce2>
   172ed:	48 89 cf             	mov    %rcx,%rdi
   172f0:	e8 fe 43 ff ff       	callq  b6f3 <transparent_crc>
   172f5:	48 8b 05 04 a1 00 00 	mov    0xa104(%rip),%rax        # 21400 <g_1066>
   172fc:	48 c1 e8 34          	shr    $0x34,%rax
   17300:	0f b7 c0             	movzwl %ax,%eax
   17303:	8b 55 f4             	mov    -0xc(%rbp),%edx
   17306:	48 8d 35 57 5d 00 00 	lea    0x5d57(%rip),%rsi        # 1d064 <g_2454+0x2cec>
   1730d:	48 89 c7             	mov    %rax,%rdi
   17310:	e8 de 43 ff ff       	callq  b6f3 <transparent_crc>
   17315:	48 8b 05 ec a0 00 00 	mov    0xa0ec(%rip),%rax        # 21408 <g_1066+0x8>
   1731c:	c1 e0 05             	shl    $0x5,%eax
   1731f:	66 c1 f8 05          	sar    $0x5,%ax
   17323:	48 0f bf c0          	movswq %ax,%rax
   17327:	8b 55 f4             	mov    -0xc(%rbp),%edx
   1732a:	48 8d 35 3d 5d 00 00 	lea    0x5d3d(%rip),%rsi        # 1d06e <g_2454+0x2cf6>
   17331:	48 89 c7             	mov    %rax,%rdi
   17334:	e8 ba 43 ff ff       	callq  b6f3 <transparent_crc>
   17339:	48 8b 05 c8 a0 00 00 	mov    0xa0c8(%rip),%rax        # 21408 <g_1066+0x8>
   17340:	48 c1 e8 20          	shr    $0x20,%rax
   17344:	25 ff ff ff 03       	and    $0x3ffffff,%eax
   17349:	89 c1                	mov    %eax,%ecx
   1734b:	8b 45 f4             	mov    -0xc(%rbp),%eax
   1734e:	89 c2                	mov    %eax,%edx
   17350:	48 8d 35 21 5d 00 00 	lea    0x5d21(%rip),%rsi        # 1d078 <g_2454+0x2d00>
   17357:	48 89 cf             	mov    %rcx,%rdi
   1735a:	e8 94 43 ff ff       	callq  b6f3 <transparent_crc>
   1735f:	48 8b 05 aa a0 00 00 	mov    0xa0aa(%rip),%rax        # 21410 <g_1066+0x10>
   17366:	66 25 ff 03          	and    $0x3ff,%ax
   1736a:	0f b7 c0             	movzwl %ax,%eax
   1736d:	8b 55 f4             	mov    -0xc(%rbp),%edx
   17370:	48 8d 35 0b 5d 00 00 	lea    0x5d0b(%rip),%rsi        # 1d082 <g_2454+0x2d0a>
   17377:	48 89 c7             	mov    %rax,%rdi
   1737a:	e8 74 43 ff ff       	callq  b6f3 <transparent_crc>
   1737f:	48 8b 05 9a a0 00 00 	mov    0xa09a(%rip),%rax        # 21420 <g_1096>
   17386:	01 c0                	add    %eax,%eax
   17388:	d1 f8                	sar    %eax
   1738a:	48 98                	cltq   
   1738c:	8b 55 f4             	mov    -0xc(%rbp),%edx
   1738f:	48 8d 35 f6 5c 00 00 	lea    0x5cf6(%rip),%rsi        # 1d08c <g_2454+0x2d14>
   17396:	48 89 c7             	mov    %rax,%rdi
   17399:	e8 55 43 ff ff       	callq  b6f3 <transparent_crc>
   1739e:	48 8b 05 7b a0 00 00 	mov    0xa07b(%rip),%rax        # 21420 <g_1096>
   173a5:	48 c1 e8 20          	shr    $0x20,%rax
   173a9:	25 ff ff 0f 00       	and    $0xfffff,%eax
   173ae:	89 c1                	mov    %eax,%ecx
   173b0:	8b 45 f4             	mov    -0xc(%rbp),%eax
   173b3:	89 c2                	mov    %eax,%edx
   173b5:	48 8d 35 da 5c 00 00 	lea    0x5cda(%rip),%rsi        # 1d096 <g_2454+0x2d1e>
   173bc:	48 89 cf             	mov    %rcx,%rdi
   173bf:	e8 2f 43 ff ff       	callq  b6f3 <transparent_crc>
   173c4:	48 8b 05 55 a0 00 00 	mov    0xa055(%rip),%rax        # 21420 <g_1096>
   173cb:	48 c1 e8 34          	shr    $0x34,%rax
   173cf:	0f b7 c0             	movzwl %ax,%eax
   173d2:	8b 55 f4             	mov    -0xc(%rbp),%edx
   173d5:	48 8d 35 c4 5c 00 00 	lea    0x5cc4(%rip),%rsi        # 1d0a0 <g_2454+0x2d28>
   173dc:	48 89 c7             	mov    %rax,%rdi
   173df:	e8 0f 43 ff ff       	callq  b6f3 <transparent_crc>
   173e4:	48 8b 05 3d a0 00 00 	mov    0xa03d(%rip),%rax        # 21428 <g_1096+0x8>
   173eb:	c1 e0 05             	shl    $0x5,%eax
   173ee:	66 c1 f8 05          	sar    $0x5,%ax
   173f2:	48 0f bf c0          	movswq %ax,%rax
   173f6:	8b 55 f4             	mov    -0xc(%rbp),%edx
   173f9:	48 8d 35 aa 5c 00 00 	lea    0x5caa(%rip),%rsi        # 1d0aa <g_2454+0x2d32>
   17400:	48 89 c7             	mov    %rax,%rdi
   17403:	e8 eb 42 ff ff       	callq  b6f3 <transparent_crc>
   17408:	48 8b 05 19 a0 00 00 	mov    0xa019(%rip),%rax        # 21428 <g_1096+0x8>
   1740f:	48 c1 e8 20          	shr    $0x20,%rax
   17413:	25 ff ff ff 03       	and    $0x3ffffff,%eax
   17418:	89 c1                	mov    %eax,%ecx
   1741a:	8b 45 f4             	mov    -0xc(%rbp),%eax
   1741d:	89 c2                	mov    %eax,%edx
   1741f:	48 8d 35 8e 5c 00 00 	lea    0x5c8e(%rip),%rsi        # 1d0b4 <g_2454+0x2d3c>
   17426:	48 89 cf             	mov    %rcx,%rdi
   17429:	e8 c5 42 ff ff       	callq  b6f3 <transparent_crc>
   1742e:	48 8b 05 fb 9f 00 00 	mov    0x9ffb(%rip),%rax        # 21430 <g_1096+0x10>
   17435:	66 25 ff 03          	and    $0x3ff,%ax
   17439:	0f b7 c0             	movzwl %ax,%eax
   1743c:	8b 55 f4             	mov    -0xc(%rbp),%edx
   1743f:	48 8d 35 78 5c 00 00 	lea    0x5c78(%rip),%rsi        # 1d0be <g_2454+0x2d46>
   17446:	48 89 c7             	mov    %rax,%rdi
   17449:	e8 a5 42 ff ff       	callq  b6f3 <transparent_crc>
   1744e:	48 b8 23 dd d5 37 78 	movabs $0x536c507837d5dd23,%rax
   17455:	50 6c 53 
   17458:	48 89 c1             	mov    %rax,%rcx
   1745b:	8b 45 f4             	mov    -0xc(%rbp),%eax
   1745e:	89 c2                	mov    %eax,%edx
   17460:	48 8d 35 61 5c 00 00 	lea    0x5c61(%rip),%rsi        # 1d0c8 <g_2454+0x2d50>
   17467:	48 89 cf             	mov    %rcx,%rdi
   1746a:	e8 84 42 ff ff       	callq  b6f3 <transparent_crc>
   1746f:	8b 05 c3 9f 00 00    	mov    0x9fc3(%rip),%eax        # 21438 <g_1125>
   17475:	c1 e0 0f             	shl    $0xf,%eax
   17478:	c1 f8 0f             	sar    $0xf,%eax
   1747b:	48 98                	cltq   
   1747d:	8b 55 f4             	mov    -0xc(%rbp),%edx
   17480:	48 8d 35 48 5c 00 00 	lea    0x5c48(%rip),%rsi        # 1d0cf <g_2454+0x2d57>
   17487:	48 89 c7             	mov    %rax,%rdi
   1748a:	e8 64 42 ff ff       	callq  b6f3 <transparent_crc>
   1748f:	0f b6 05 a4 9f 00 00 	movzbl 0x9fa4(%rip),%eax        # 2143a <g_1125+0x2>
   17496:	d0 e8                	shr    %al
   17498:	83 e0 03             	and    $0x3,%eax
   1749b:	0f b6 c0             	movzbl %al,%eax
   1749e:	8b 55 f4             	mov    -0xc(%rbp),%edx
   174a1:	48 8d 35 31 5c 00 00 	lea    0x5c31(%rip),%rsi        # 1d0d9 <g_2454+0x2d61>
   174a8:	48 89 c7             	mov    %rax,%rdi
   174ab:	e8 43 42 ff ff       	callq  b6f3 <transparent_crc>
   174b0:	48 8b 05 81 9f 00 00 	mov    0x9f81(%rip),%rax        # 21438 <g_1125>
   174b7:	48 c1 e8 13          	shr    $0x13,%rax
   174bb:	25 ff ff ff 0f       	and    $0xfffffff,%eax
   174c0:	89 c1                	mov    %eax,%ecx
   174c2:	8b 45 f4             	mov    -0xc(%rbp),%eax
   174c5:	89 c2                	mov    %eax,%edx
   174c7:	48 8d 35 15 5c 00 00 	lea    0x5c15(%rip),%rsi        # 1d0e3 <g_2454+0x2d6b>
   174ce:	48 89 cf             	mov    %rcx,%rdi
   174d1:	e8 1d 42 ff ff       	callq  b6f3 <transparent_crc>
   174d6:	8b 05 60 9f 00 00    	mov    0x9f60(%rip),%eax        # 2143c <g_1125+0x4>
   174dc:	c1 e8 0f             	shr    $0xf,%eax
   174df:	89 c2                	mov    %eax,%edx
   174e1:	0f b6 05 58 9f 00 00 	movzbl 0x9f58(%rip),%eax        # 21440 <g_1125+0x8>
   174e8:	83 e0 7f             	and    $0x7f,%eax
   174eb:	48 c1 e0 11          	shl    $0x11,%rax
   174ef:	48 09 d0             	or     %rdx,%rax
   174f2:	89 c1                	mov    %eax,%ecx
   174f4:	8b 45 f4             	mov    -0xc(%rbp),%eax
   174f7:	89 c2                	mov    %eax,%edx
   174f9:	48 8d 35 ed 5b 00 00 	lea    0x5bed(%rip),%rsi        # 1d0ed <g_2454+0x2d75>
   17500:	48 89 cf             	mov    %rcx,%rdi
   17503:	e8 eb 41 ff ff       	callq  b6f3 <transparent_crc>
   17508:	0f b7 05 31 9f 00 00 	movzwl 0x9f31(%rip),%eax        # 21440 <g_1125+0x8>
   1750f:	c1 e0 02             	shl    $0x2,%eax
   17512:	66 c1 f8 09          	sar    $0x9,%ax
   17516:	48 0f be c0          	movsbq %al,%rax
   1751a:	8b 55 f4             	mov    -0xc(%rbp),%edx
   1751d:	48 8d 35 d3 5b 00 00 	lea    0x5bd3(%rip),%rsi        # 1d0f7 <g_2454+0x2d7f>
   17524:	48 89 c7             	mov    %rax,%rdi
   17527:	e8 c7 41 ff ff       	callq  b6f3 <transparent_crc>
   1752c:	0f b6 05 0e 9f 00 00 	movzbl 0x9f0e(%rip),%eax        # 21441 <g_1125+0x9>
   17533:	c0 f8 06             	sar    $0x6,%al
   17536:	48 0f be c0          	movsbq %al,%rax
   1753a:	8b 55 f4             	mov    -0xc(%rbp),%edx
   1753d:	48 8d 35 bd 5b 00 00 	lea    0x5bbd(%rip),%rsi        # 1d101 <g_2454+0x2d89>
   17544:	48 89 c7             	mov    %rax,%rdi
   17547:	e8 a7 41 ff ff       	callq  b6f3 <transparent_crc>
   1754c:	48 8b 05 fd 9e 00 00 	mov    0x9efd(%rip),%rax        # 21450 <g_1186>
   17553:	01 c0                	add    %eax,%eax
   17555:	d1 f8                	sar    %eax
   17557:	48 98                	cltq   
   17559:	8b 55 f4             	mov    -0xc(%rbp),%edx
   1755c:	48 8d 35 a8 5b 00 00 	lea    0x5ba8(%rip),%rsi        # 1d10b <g_2454+0x2d93>
   17563:	48 89 c7             	mov    %rax,%rdi
   17566:	e8 88 41 ff ff       	callq  b6f3 <transparent_crc>
   1756b:	48 8b 05 de 9e 00 00 	mov    0x9ede(%rip),%rax        # 21450 <g_1186>
   17572:	48 c1 e8 20          	shr    $0x20,%rax
   17576:	25 ff ff 0f 00       	and    $0xfffff,%eax
   1757b:	89 c1                	mov    %eax,%ecx
   1757d:	8b 45 f4             	mov    -0xc(%rbp),%eax
   17580:	89 c2                	mov    %eax,%edx
   17582:	48 8d 35 8c 5b 00 00 	lea    0x5b8c(%rip),%rsi        # 1d115 <g_2454+0x2d9d>
   17589:	48 89 cf             	mov    %rcx,%rdi
   1758c:	e8 62 41 ff ff       	callq  b6f3 <transparent_crc>
   17591:	48 8b 05 b8 9e 00 00 	mov    0x9eb8(%rip),%rax        # 21450 <g_1186>
   17598:	48 c1 e8 34          	shr    $0x34,%rax
   1759c:	0f b7 c0             	movzwl %ax,%eax
   1759f:	8b 55 f4             	mov    -0xc(%rbp),%edx
   175a2:	48 8d 35 76 5b 00 00 	lea    0x5b76(%rip),%rsi        # 1d11f <g_2454+0x2da7>
   175a9:	48 89 c7             	mov    %rax,%rdi
   175ac:	e8 42 41 ff ff       	callq  b6f3 <transparent_crc>
   175b1:	48 8b 05 a0 9e 00 00 	mov    0x9ea0(%rip),%rax        # 21458 <g_1186+0x8>
   175b8:	c1 e0 05             	shl    $0x5,%eax
   175bb:	66 c1 f8 05          	sar    $0x5,%ax
   175bf:	48 0f bf c0          	movswq %ax,%rax
   175c3:	8b 55 f4             	mov    -0xc(%rbp),%edx
   175c6:	48 8d 35 5c 5b 00 00 	lea    0x5b5c(%rip),%rsi        # 1d129 <g_2454+0x2db1>
   175cd:	48 89 c7             	mov    %rax,%rdi
   175d0:	e8 1e 41 ff ff       	callq  b6f3 <transparent_crc>
   175d5:	48 8b 05 7c 9e 00 00 	mov    0x9e7c(%rip),%rax        # 21458 <g_1186+0x8>
   175dc:	48 c1 e8 20          	shr    $0x20,%rax
   175e0:	25 ff ff ff 03       	and    $0x3ffffff,%eax
   175e5:	89 c1                	mov    %eax,%ecx
   175e7:	8b 45 f4             	mov    -0xc(%rbp),%eax
   175ea:	89 c2                	mov    %eax,%edx
   175ec:	48 8d 35 40 5b 00 00 	lea    0x5b40(%rip),%rsi        # 1d133 <g_2454+0x2dbb>
   175f3:	48 89 cf             	mov    %rcx,%rdi
   175f6:	e8 f8 40 ff ff       	callq  b6f3 <transparent_crc>
   175fb:	48 8b 05 5e 9e 00 00 	mov    0x9e5e(%rip),%rax        # 21460 <g_1186+0x10>
   17602:	66 25 ff 03          	and    $0x3ff,%ax
   17606:	0f b7 c0             	movzwl %ax,%eax
   17609:	8b 55 f4             	mov    -0xc(%rbp),%edx
   1760c:	48 8d 35 2a 5b 00 00 	lea    0x5b2a(%rip),%rsi        # 1d13d <g_2454+0x2dc5>
   17613:	48 89 c7             	mov    %rax,%rdi
   17616:	e8 d8 40 ff ff       	callq  b6f3 <transparent_crc>
   1761b:	48 8b 05 46 9e 00 00 	mov    0x9e46(%rip),%rax        # 21468 <g_1196>
   17622:	c1 e0 0f             	shl    $0xf,%eax
   17625:	c1 f8 0f             	sar    $0xf,%eax
   17628:	48 98                	cltq   
   1762a:	8b 55 f4             	mov    -0xc(%rbp),%edx
   1762d:	48 8d 35 13 5b 00 00 	lea    0x5b13(%rip),%rsi        # 1d147 <g_2454+0x2dcf>
   17634:	48 89 c7             	mov    %rax,%rdi
   17637:	e8 b7 40 ff ff       	callq  b6f3 <transparent_crc>
   1763c:	48 8b 05 25 9e 00 00 	mov    0x9e25(%rip),%rax        # 21468 <g_1196>
   17643:	48 c1 e8 11          	shr    $0x11,%rax
   17647:	83 e0 03             	and    $0x3,%eax
   1764a:	0f b6 c0             	movzbl %al,%eax
   1764d:	8b 55 f4             	mov    -0xc(%rbp),%edx
   17650:	48 8d 35 fa 5a 00 00 	lea    0x5afa(%rip),%rsi        # 1d151 <g_2454+0x2dd9>
   17657:	48 89 c7             	mov    %rax,%rdi
   1765a:	e8 94 40 ff ff       	callq  b6f3 <transparent_crc>
   1765f:	48 8b 05 02 9e 00 00 	mov    0x9e02(%rip),%rax        # 21468 <g_1196>
   17666:	48 c1 e8 13          	shr    $0x13,%rax
   1766a:	25 ff ff ff 0f       	and    $0xfffffff,%eax
   1766f:	89 c1                	mov    %eax,%ecx
   17671:	8b 45 f4             	mov    -0xc(%rbp),%eax
   17674:	89 c2                	mov    %eax,%edx
   17676:	48 8d 35 de 5a 00 00 	lea    0x5ade(%rip),%rsi        # 1d15b <g_2454+0x2de3>
   1767d:	48 89 cf             	mov    %rcx,%rdi
   17680:	e8 6e 40 ff ff       	callq  b6f3 <transparent_crc>
   17685:	48 8b 05 dc 9d 00 00 	mov    0x9ddc(%rip),%rax        # 21468 <g_1196>
   1768c:	48 c1 e8 2f          	shr    $0x2f,%rax
   17690:	48 89 c2             	mov    %rax,%rdx
   17693:	48 8b 05 d6 9d 00 00 	mov    0x9dd6(%rip),%rax        # 21470 <g_1196+0x8>
   1769a:	83 e0 7f             	and    $0x7f,%eax
   1769d:	48 c1 e0 11          	shl    $0x11,%rax
   176a1:	48 09 d0             	or     %rdx,%rax
   176a4:	89 c1                	mov    %eax,%ecx
   176a6:	8b 45 f4             	mov    -0xc(%rbp),%eax
   176a9:	89 c2                	mov    %eax,%edx
   176ab:	48 8d 35 b3 5a 00 00 	lea    0x5ab3(%rip),%rsi        # 1d165 <g_2454+0x2ded>
   176b2:	48 89 cf             	mov    %rcx,%rdi
   176b5:	e8 39 40 ff ff       	callq  b6f3 <transparent_crc>
   176ba:	48 8b 05 af 9d 00 00 	mov    0x9daf(%rip),%rax        # 21470 <g_1196+0x8>
   176c1:	c1 e0 02             	shl    $0x2,%eax
   176c4:	66 c1 f8 09          	sar    $0x9,%ax
   176c8:	48 0f be c0          	movsbq %al,%rax
   176cc:	8b 55 f4             	mov    -0xc(%rbp),%edx
   176cf:	48 8d 35 99 5a 00 00 	lea    0x5a99(%rip),%rsi        # 1d16f <g_2454+0x2df7>
   176d6:	48 89 c7             	mov    %rax,%rdi
   176d9:	e8 15 40 ff ff       	callq  b6f3 <transparent_crc>
   176de:	48 8b 05 8b 9d 00 00 	mov    0x9d8b(%rip),%rax        # 21470 <g_1196+0x8>
   176e5:	66 c1 f8 0e          	sar    $0xe,%ax
   176e9:	48 0f be c0          	movsbq %al,%rax
   176ed:	8b 55 f4             	mov    -0xc(%rbp),%edx
   176f0:	48 8d 35 82 5a 00 00 	lea    0x5a82(%rip),%rsi        # 1d179 <g_2454+0x2e01>
   176f7:	48 89 c7             	mov    %rax,%rdi
   176fa:	e8 f4 3f ff ff       	callq  b6f3 <transparent_crc>
   176ff:	48 8b 05 7a 9d 00 00 	mov    0x9d7a(%rip),%rax        # 21480 <g_1212>
   17706:	01 c0                	add    %eax,%eax
   17708:	d1 f8                	sar    %eax
   1770a:	48 98                	cltq   
   1770c:	8b 55 f4             	mov    -0xc(%rbp),%edx
   1770f:	48 8d 35 6d 5a 00 00 	lea    0x5a6d(%rip),%rsi        # 1d183 <g_2454+0x2e0b>
   17716:	48 89 c7             	mov    %rax,%rdi
   17719:	e8 d5 3f ff ff       	callq  b6f3 <transparent_crc>
   1771e:	48 8b 05 5b 9d 00 00 	mov    0x9d5b(%rip),%rax        # 21480 <g_1212>
   17725:	48 c1 e8 20          	shr    $0x20,%rax
   17729:	25 ff ff 0f 00       	and    $0xfffff,%eax
   1772e:	89 c1                	mov    %eax,%ecx
   17730:	8b 45 f4             	mov    -0xc(%rbp),%eax
   17733:	89 c2                	mov    %eax,%edx
   17735:	48 8d 35 51 5a 00 00 	lea    0x5a51(%rip),%rsi        # 1d18d <g_2454+0x2e15>
   1773c:	48 89 cf             	mov    %rcx,%rdi
   1773f:	e8 af 3f ff ff       	callq  b6f3 <transparent_crc>
   17744:	48 8b 05 35 9d 00 00 	mov    0x9d35(%rip),%rax        # 21480 <g_1212>
   1774b:	48 c1 e8 34          	shr    $0x34,%rax
   1774f:	0f b7 c0             	movzwl %ax,%eax
   17752:	8b 55 f4             	mov    -0xc(%rbp),%edx
   17755:	48 8d 35 3b 5a 00 00 	lea    0x5a3b(%rip),%rsi        # 1d197 <g_2454+0x2e1f>
   1775c:	48 89 c7             	mov    %rax,%rdi
   1775f:	e8 8f 3f ff ff       	callq  b6f3 <transparent_crc>
   17764:	48 8b 05 1d 9d 00 00 	mov    0x9d1d(%rip),%rax        # 21488 <g_1212+0x8>
   1776b:	c1 e0 05             	shl    $0x5,%eax
   1776e:	66 c1 f8 05          	sar    $0x5,%ax
   17772:	48 0f bf c0          	movswq %ax,%rax
   17776:	8b 55 f4             	mov    -0xc(%rbp),%edx
   17779:	48 8d 35 21 5a 00 00 	lea    0x5a21(%rip),%rsi        # 1d1a1 <g_2454+0x2e29>
   17780:	48 89 c7             	mov    %rax,%rdi
   17783:	e8 6b 3f ff ff       	callq  b6f3 <transparent_crc>
   17788:	48 8b 05 f9 9c 00 00 	mov    0x9cf9(%rip),%rax        # 21488 <g_1212+0x8>
   1778f:	48 c1 e8 20          	shr    $0x20,%rax
   17793:	25 ff ff ff 03       	and    $0x3ffffff,%eax
   17798:	89 c1                	mov    %eax,%ecx
   1779a:	8b 45 f4             	mov    -0xc(%rbp),%eax
   1779d:	89 c2                	mov    %eax,%edx
   1779f:	48 8d 35 05 5a 00 00 	lea    0x5a05(%rip),%rsi        # 1d1ab <g_2454+0x2e33>
   177a6:	48 89 cf             	mov    %rcx,%rdi
   177a9:	e8 45 3f ff ff       	callq  b6f3 <transparent_crc>
   177ae:	48 8b 05 db 9c 00 00 	mov    0x9cdb(%rip),%rax        # 21490 <g_1212+0x10>
   177b5:	66 25 ff 03          	and    $0x3ff,%ax
   177b9:	0f b7 c0             	movzwl %ax,%eax
   177bc:	8b 55 f4             	mov    -0xc(%rbp),%edx
   177bf:	48 8d 35 ef 59 00 00 	lea    0x59ef(%rip),%rsi        # 1d1b5 <g_2454+0x2e3d>
   177c6:	48 89 c7             	mov    %rax,%rdi
   177c9:	e8 25 3f ff ff       	callq  b6f3 <transparent_crc>
   177ce:	8b 05 cc 9c 00 00    	mov    0x9ccc(%rip),%eax        # 214a0 <g_1347>
   177d4:	01 c0                	add    %eax,%eax
   177d6:	d1 f8                	sar    %eax
   177d8:	48 98                	cltq   
   177da:	8b 55 f4             	mov    -0xc(%rbp),%edx
   177dd:	48 8d 35 db 59 00 00 	lea    0x59db(%rip),%rsi        # 1d1bf <g_2454+0x2e47>
   177e4:	48 89 c7             	mov    %rax,%rdi
   177e7:	e8 07 3f ff ff       	callq  b6f3 <transparent_crc>
   177ec:	8b 05 b2 9c 00 00    	mov    0x9cb2(%rip),%eax        # 214a4 <g_1347+0x4>
   177f2:	25 ff ff 0f 00       	and    $0xfffff,%eax
   177f7:	89 c1                	mov    %eax,%ecx
   177f9:	8b 45 f4             	mov    -0xc(%rbp),%eax
   177fc:	89 c2                	mov    %eax,%edx
   177fe:	48 8d 35 c4 59 00 00 	lea    0x59c4(%rip),%rsi        # 1d1c9 <g_2454+0x2e51>
   17805:	48 89 cf             	mov    %rcx,%rdi
   17808:	e8 e6 3e ff ff       	callq  b6f3 <transparent_crc>
   1780d:	0f b7 05 92 9c 00 00 	movzwl 0x9c92(%rip),%eax        # 214a6 <g_1347+0x6>
   17814:	66 c1 e8 04          	shr    $0x4,%ax
   17818:	0f b7 c0             	movzwl %ax,%eax
   1781b:	8b 55 f4             	mov    -0xc(%rbp),%edx
   1781e:	48 8d 35 ae 59 00 00 	lea    0x59ae(%rip),%rsi        # 1d1d3 <g_2454+0x2e5b>
   17825:	48 89 c7             	mov    %rax,%rdi
   17828:	e8 c6 3e ff ff       	callq  b6f3 <transparent_crc>
   1782d:	0f b7 05 74 9c 00 00 	movzwl 0x9c74(%rip),%eax        # 214a8 <g_1347+0x8>
   17834:	c1 e0 05             	shl    $0x5,%eax
   17837:	66 c1 f8 05          	sar    $0x5,%ax
   1783b:	48 0f bf c0          	movswq %ax,%rax
   1783f:	8b 55 f4             	mov    -0xc(%rbp),%edx
   17842:	48 8d 35 94 59 00 00 	lea    0x5994(%rip),%rsi        # 1d1dd <g_2454+0x2e65>
   17849:	48 89 c7             	mov    %rax,%rdi
   1784c:	e8 a2 3e ff ff       	callq  b6f3 <transparent_crc>
   17851:	8b 05 55 9c 00 00    	mov    0x9c55(%rip),%eax        # 214ac <g_1347+0xc>
   17857:	25 ff ff ff 03       	and    $0x3ffffff,%eax
   1785c:	89 c1                	mov    %eax,%ecx
   1785e:	8b 45 f4             	mov    -0xc(%rbp),%eax
   17861:	89 c2                	mov    %eax,%edx
   17863:	48 8d 35 7d 59 00 00 	lea    0x597d(%rip),%rsi        # 1d1e7 <g_2454+0x2e6f>
   1786a:	48 89 cf             	mov    %rcx,%rdi
   1786d:	e8 81 3e ff ff       	callq  b6f3 <transparent_crc>
   17872:	48 8b 05 37 9c 00 00 	mov    0x9c37(%rip),%rax        # 214b0 <g_1347+0x10>
   17879:	66 25 ff 03          	and    $0x3ff,%ax
   1787d:	0f b7 c0             	movzwl %ax,%eax
   17880:	8b 55 f4             	mov    -0xc(%rbp),%edx
   17883:	48 8d 35 67 59 00 00 	lea    0x5967(%rip),%rsi        # 1d1f1 <g_2454+0x2e79>
   1788a:	48 89 c7             	mov    %rax,%rdi
   1788d:	e8 61 3e ff ff       	callq  b6f3 <transparent_crc>
   17892:	8b 05 54 e9 00 00    	mov    0xe954(%rip),%eax        # 261ec <g_1387>
   17898:	89 c1                	mov    %eax,%ecx
   1789a:	8b 45 f4             	mov    -0xc(%rbp),%eax
   1789d:	89 c2                	mov    %eax,%edx
   1789f:	48 8d 35 55 59 00 00 	lea    0x5955(%rip),%rsi        # 1d1fb <g_2454+0x2e83>
   178a6:	48 89 cf             	mov    %rcx,%rdi
   178a9:	e8 45 3e ff ff       	callq  b6f3 <transparent_crc>
   178ae:	48 8b 05 03 9c 00 00 	mov    0x9c03(%rip),%rax        # 214b8 <g_1432>
   178b5:	c1 e0 0f             	shl    $0xf,%eax
   178b8:	c1 f8 0f             	sar    $0xf,%eax
   178bb:	48 98                	cltq   
   178bd:	8b 55 f4             	mov    -0xc(%rbp),%edx
   178c0:	48 8d 35 3e 59 00 00 	lea    0x593e(%rip),%rsi        # 1d205 <g_2454+0x2e8d>
   178c7:	48 89 c7             	mov    %rax,%rdi
   178ca:	e8 24 3e ff ff       	callq  b6f3 <transparent_crc>
   178cf:	48 8b 05 e2 9b 00 00 	mov    0x9be2(%rip),%rax        # 214b8 <g_1432>
   178d6:	48 c1 e8 11          	shr    $0x11,%rax
   178da:	83 e0 03             	and    $0x3,%eax
   178dd:	0f b6 c0             	movzbl %al,%eax
   178e0:	8b 55 f4             	mov    -0xc(%rbp),%edx
   178e3:	48 8d 35 25 59 00 00 	lea    0x5925(%rip),%rsi        # 1d20f <g_2454+0x2e97>
   178ea:	48 89 c7             	mov    %rax,%rdi
   178ed:	e8 01 3e ff ff       	callq  b6f3 <transparent_crc>
   178f2:	48 8b 05 bf 9b 00 00 	mov    0x9bbf(%rip),%rax        # 214b8 <g_1432>
   178f9:	48 c1 e8 13          	shr    $0x13,%rax
   178fd:	25 ff ff ff 0f       	and    $0xfffffff,%eax
   17902:	89 c1                	mov    %eax,%ecx
   17904:	8b 45 f4             	mov    -0xc(%rbp),%eax
   17907:	89 c2                	mov    %eax,%edx
   17909:	48 8d 35 09 59 00 00 	lea    0x5909(%rip),%rsi        # 1d219 <g_2454+0x2ea1>
   17910:	48 89 cf             	mov    %rcx,%rdi
   17913:	e8 db 3d ff ff       	callq  b6f3 <transparent_crc>
   17918:	48 8b 05 99 9b 00 00 	mov    0x9b99(%rip),%rax        # 214b8 <g_1432>
   1791f:	48 c1 e8 2f          	shr    $0x2f,%rax
   17923:	48 89 c2             	mov    %rax,%rdx
   17926:	48 8b 05 93 9b 00 00 	mov    0x9b93(%rip),%rax        # 214c0 <g_1432+0x8>
   1792d:	83 e0 7f             	and    $0x7f,%eax
   17930:	48 c1 e0 11          	shl    $0x11,%rax
   17934:	48 09 d0             	or     %rdx,%rax
   17937:	89 c1                	mov    %eax,%ecx
   17939:	8b 45 f4             	mov    -0xc(%rbp),%eax
   1793c:	89 c2                	mov    %eax,%edx
   1793e:	48 8d 35 de 58 00 00 	lea    0x58de(%rip),%rsi        # 1d223 <g_2454+0x2eab>
   17945:	48 89 cf             	mov    %rcx,%rdi
   17948:	e8 a6 3d ff ff       	callq  b6f3 <transparent_crc>
   1794d:	48 8b 05 6c 9b 00 00 	mov    0x9b6c(%rip),%rax        # 214c0 <g_1432+0x8>
   17954:	c1 e0 02             	shl    $0x2,%eax
   17957:	66 c1 f8 09          	sar    $0x9,%ax
   1795b:	48 0f be c0          	movsbq %al,%rax
   1795f:	8b 55 f4             	mov    -0xc(%rbp),%edx
   17962:	48 8d 35 c4 58 00 00 	lea    0x58c4(%rip),%rsi        # 1d22d <g_2454+0x2eb5>
   17969:	48 89 c7             	mov    %rax,%rdi
   1796c:	e8 82 3d ff ff       	callq  b6f3 <transparent_crc>
   17971:	48 8b 05 48 9b 00 00 	mov    0x9b48(%rip),%rax        # 214c0 <g_1432+0x8>
   17978:	66 c1 f8 0e          	sar    $0xe,%ax
   1797c:	48 0f be c0          	movsbq %al,%rax
   17980:	8b 55 f4             	mov    -0xc(%rbp),%edx
   17983:	48 8d 35 ad 58 00 00 	lea    0x58ad(%rip),%rsi        # 1d237 <g_2454+0x2ebf>
   1798a:	48 89 c7             	mov    %rax,%rdi
   1798d:	e8 61 3d ff ff       	callq  b6f3 <transparent_crc>
   17992:	48 8b 05 37 9b 00 00 	mov    0x9b37(%rip),%rax        # 214d0 <g_1445>
   17999:	01 c0                	add    %eax,%eax
   1799b:	d1 f8                	sar    %eax
   1799d:	48 98                	cltq   
   1799f:	8b 55 f4             	mov    -0xc(%rbp),%edx
   179a2:	48 8d 35 98 58 00 00 	lea    0x5898(%rip),%rsi        # 1d241 <g_2454+0x2ec9>
   179a9:	48 89 c7             	mov    %rax,%rdi
   179ac:	e8 42 3d ff ff       	callq  b6f3 <transparent_crc>
   179b1:	48 8b 05 18 9b 00 00 	mov    0x9b18(%rip),%rax        # 214d0 <g_1445>
   179b8:	48 c1 e8 20          	shr    $0x20,%rax
   179bc:	25 ff ff 0f 00       	and    $0xfffff,%eax
   179c1:	89 c1                	mov    %eax,%ecx
   179c3:	8b 45 f4             	mov    -0xc(%rbp),%eax
   179c6:	89 c2                	mov    %eax,%edx
   179c8:	48 8d 35 7c 58 00 00 	lea    0x587c(%rip),%rsi        # 1d24b <g_2454+0x2ed3>
   179cf:	48 89 cf             	mov    %rcx,%rdi
   179d2:	e8 1c 3d ff ff       	callq  b6f3 <transparent_crc>
   179d7:	48 8b 05 f2 9a 00 00 	mov    0x9af2(%rip),%rax        # 214d0 <g_1445>
   179de:	48 c1 e8 34          	shr    $0x34,%rax
   179e2:	0f b7 c0             	movzwl %ax,%eax
   179e5:	8b 55 f4             	mov    -0xc(%rbp),%edx
   179e8:	48 8d 35 66 58 00 00 	lea    0x5866(%rip),%rsi        # 1d255 <g_2454+0x2edd>
   179ef:	48 89 c7             	mov    %rax,%rdi
   179f2:	e8 fc 3c ff ff       	callq  b6f3 <transparent_crc>
   179f7:	48 8b 05 da 9a 00 00 	mov    0x9ada(%rip),%rax        # 214d8 <g_1445+0x8>
   179fe:	c1 e0 05             	shl    $0x5,%eax
   17a01:	66 c1 f8 05          	sar    $0x5,%ax
   17a05:	48 0f bf c0          	movswq %ax,%rax
   17a09:	8b 55 f4             	mov    -0xc(%rbp),%edx
   17a0c:	48 8d 35 4c 58 00 00 	lea    0x584c(%rip),%rsi        # 1d25f <g_2454+0x2ee7>
   17a13:	48 89 c7             	mov    %rax,%rdi
   17a16:	e8 d8 3c ff ff       	callq  b6f3 <transparent_crc>
   17a1b:	48 8b 05 b6 9a 00 00 	mov    0x9ab6(%rip),%rax        # 214d8 <g_1445+0x8>
   17a22:	48 c1 e8 20          	shr    $0x20,%rax
   17a26:	25 ff ff ff 03       	and    $0x3ffffff,%eax
   17a2b:	89 c1                	mov    %eax,%ecx
   17a2d:	8b 45 f4             	mov    -0xc(%rbp),%eax
   17a30:	89 c2                	mov    %eax,%edx
   17a32:	48 8d 35 30 58 00 00 	lea    0x5830(%rip),%rsi        # 1d269 <g_2454+0x2ef1>
   17a39:	48 89 cf             	mov    %rcx,%rdi
   17a3c:	e8 b2 3c ff ff       	callq  b6f3 <transparent_crc>
   17a41:	48 8b 05 98 9a 00 00 	mov    0x9a98(%rip),%rax        # 214e0 <g_1445+0x10>
   17a48:	66 25 ff 03          	and    $0x3ff,%ax
   17a4c:	0f b7 c0             	movzwl %ax,%eax
   17a4f:	8b 55 f4             	mov    -0xc(%rbp),%edx
   17a52:	48 8d 35 1a 58 00 00 	lea    0x581a(%rip),%rsi        # 1d273 <g_2454+0x2efb>
   17a59:	48 89 c7             	mov    %rax,%rdi
   17a5c:	e8 92 3c ff ff       	callq  b6f3 <transparent_crc>
   17a61:	48 8b 05 88 9a 00 00 	mov    0x9a88(%rip),%rax        # 214f0 <g_1455>
   17a68:	01 c0                	add    %eax,%eax
   17a6a:	d1 f8                	sar    %eax
   17a6c:	48 98                	cltq   
   17a6e:	8b 55 f4             	mov    -0xc(%rbp),%edx
   17a71:	48 8d 35 05 58 00 00 	lea    0x5805(%rip),%rsi        # 1d27d <g_2454+0x2f05>
   17a78:	48 89 c7             	mov    %rax,%rdi
   17a7b:	e8 73 3c ff ff       	callq  b6f3 <transparent_crc>
   17a80:	48 8b 05 69 9a 00 00 	mov    0x9a69(%rip),%rax        # 214f0 <g_1455>
   17a87:	48 c1 e8 20          	shr    $0x20,%rax
   17a8b:	25 ff ff 0f 00       	and    $0xfffff,%eax
   17a90:	89 c1                	mov    %eax,%ecx
   17a92:	8b 45 f4             	mov    -0xc(%rbp),%eax
   17a95:	89 c2                	mov    %eax,%edx
   17a97:	48 8d 35 e9 57 00 00 	lea    0x57e9(%rip),%rsi        # 1d287 <g_2454+0x2f0f>
   17a9e:	48 89 cf             	mov    %rcx,%rdi
   17aa1:	e8 4d 3c ff ff       	callq  b6f3 <transparent_crc>
   17aa6:	48 8b 05 43 9a 00 00 	mov    0x9a43(%rip),%rax        # 214f0 <g_1455>
   17aad:	48 c1 e8 34          	shr    $0x34,%rax
   17ab1:	0f b7 c0             	movzwl %ax,%eax
   17ab4:	8b 55 f4             	mov    -0xc(%rbp),%edx
   17ab7:	48 8d 35 d3 57 00 00 	lea    0x57d3(%rip),%rsi        # 1d291 <g_2454+0x2f19>
   17abe:	48 89 c7             	mov    %rax,%rdi
   17ac1:	e8 2d 3c ff ff       	callq  b6f3 <transparent_crc>
   17ac6:	48 8b 05 2b 9a 00 00 	mov    0x9a2b(%rip),%rax        # 214f8 <g_1455+0x8>
   17acd:	c1 e0 05             	shl    $0x5,%eax
   17ad0:	66 c1 f8 05          	sar    $0x5,%ax
   17ad4:	48 0f bf c0          	movswq %ax,%rax
   17ad8:	8b 55 f4             	mov    -0xc(%rbp),%edx
   17adb:	48 8d 35 b9 57 00 00 	lea    0x57b9(%rip),%rsi        # 1d29b <g_2454+0x2f23>
   17ae2:	48 89 c7             	mov    %rax,%rdi
   17ae5:	e8 09 3c ff ff       	callq  b6f3 <transparent_crc>
   17aea:	48 8b 05 07 9a 00 00 	mov    0x9a07(%rip),%rax        # 214f8 <g_1455+0x8>
   17af1:	48 c1 e8 20          	shr    $0x20,%rax
   17af5:	25 ff ff ff 03       	and    $0x3ffffff,%eax
   17afa:	89 c1                	mov    %eax,%ecx
   17afc:	8b 45 f4             	mov    -0xc(%rbp),%eax
   17aff:	89 c2                	mov    %eax,%edx
   17b01:	48 8d 35 9d 57 00 00 	lea    0x579d(%rip),%rsi        # 1d2a5 <g_2454+0x2f2d>
   17b08:	48 89 cf             	mov    %rcx,%rdi
   17b0b:	e8 e3 3b ff ff       	callq  b6f3 <transparent_crc>
   17b10:	48 8b 05 e9 99 00 00 	mov    0x99e9(%rip),%rax        # 21500 <g_1455+0x10>
   17b17:	66 25 ff 03          	and    $0x3ff,%ax
   17b1b:	0f b7 c0             	movzwl %ax,%eax
   17b1e:	8b 55 f4             	mov    -0xc(%rbp),%edx
   17b21:	48 8d 35 87 57 00 00 	lea    0x5787(%rip),%rsi        # 1d2af <g_2454+0x2f37>
   17b28:	48 89 c7             	mov    %rax,%rdi
   17b2b:	e8 c3 3b ff ff       	callq  b6f3 <transparent_crc>
   17b30:	48 8b 05 d9 99 00 00 	mov    0x99d9(%rip),%rax        # 21510 <g_1465>
   17b37:	01 c0                	add    %eax,%eax
   17b39:	d1 f8                	sar    %eax
   17b3b:	48 98                	cltq   
   17b3d:	8b 55 f4             	mov    -0xc(%rbp),%edx
   17b40:	48 8d 35 72 57 00 00 	lea    0x5772(%rip),%rsi        # 1d2b9 <g_2454+0x2f41>
   17b47:	48 89 c7             	mov    %rax,%rdi
   17b4a:	e8 a4 3b ff ff       	callq  b6f3 <transparent_crc>
   17b4f:	48 8b 05 ba 99 00 00 	mov    0x99ba(%rip),%rax        # 21510 <g_1465>
   17b56:	48 c1 e8 20          	shr    $0x20,%rax
   17b5a:	25 ff ff 0f 00       	and    $0xfffff,%eax
   17b5f:	89 c1                	mov    %eax,%ecx
   17b61:	8b 45 f4             	mov    -0xc(%rbp),%eax
   17b64:	89 c2                	mov    %eax,%edx
   17b66:	48 8d 35 56 57 00 00 	lea    0x5756(%rip),%rsi        # 1d2c3 <g_2454+0x2f4b>
   17b6d:	48 89 cf             	mov    %rcx,%rdi
   17b70:	e8 7e 3b ff ff       	callq  b6f3 <transparent_crc>
   17b75:	48 8b 05 94 99 00 00 	mov    0x9994(%rip),%rax        # 21510 <g_1465>
   17b7c:	48 c1 e8 34          	shr    $0x34,%rax
   17b80:	0f b7 c0             	movzwl %ax,%eax
   17b83:	8b 55 f4             	mov    -0xc(%rbp),%edx
   17b86:	48 8d 35 40 57 00 00 	lea    0x5740(%rip),%rsi        # 1d2cd <g_2454+0x2f55>
   17b8d:	48 89 c7             	mov    %rax,%rdi
   17b90:	e8 5e 3b ff ff       	callq  b6f3 <transparent_crc>
   17b95:	48 8b 05 7c 99 00 00 	mov    0x997c(%rip),%rax        # 21518 <g_1465+0x8>
   17b9c:	c1 e0 05             	shl    $0x5,%eax
   17b9f:	66 c1 f8 05          	sar    $0x5,%ax
   17ba3:	48 0f bf c0          	movswq %ax,%rax
   17ba7:	8b 55 f4             	mov    -0xc(%rbp),%edx
   17baa:	48 8d 35 26 57 00 00 	lea    0x5726(%rip),%rsi        # 1d2d7 <g_2454+0x2f5f>
   17bb1:	48 89 c7             	mov    %rax,%rdi
   17bb4:	e8 3a 3b ff ff       	callq  b6f3 <transparent_crc>
   17bb9:	48 8b 05 58 99 00 00 	mov    0x9958(%rip),%rax        # 21518 <g_1465+0x8>
   17bc0:	48 c1 e8 20          	shr    $0x20,%rax
   17bc4:	25 ff ff ff 03       	and    $0x3ffffff,%eax
   17bc9:	89 c1                	mov    %eax,%ecx
   17bcb:	8b 45 f4             	mov    -0xc(%rbp),%eax
   17bce:	89 c2                	mov    %eax,%edx
   17bd0:	48 8d 35 0a 57 00 00 	lea    0x570a(%rip),%rsi        # 1d2e1 <g_2454+0x2f69>
   17bd7:	48 89 cf             	mov    %rcx,%rdi
   17bda:	e8 14 3b ff ff       	callq  b6f3 <transparent_crc>
   17bdf:	48 8b 05 3a 99 00 00 	mov    0x993a(%rip),%rax        # 21520 <g_1465+0x10>
   17be6:	66 25 ff 03          	and    $0x3ff,%ax
   17bea:	0f b7 c0             	movzwl %ax,%eax
   17bed:	8b 55 f4             	mov    -0xc(%rbp),%edx
   17bf0:	48 8d 35 f4 56 00 00 	lea    0x56f4(%rip),%rsi        # 1d2eb <g_2454+0x2f73>
   17bf7:	48 89 c7             	mov    %rax,%rdi
   17bfa:	e8 f4 3a ff ff       	callq  b6f3 <transparent_crc>
   17bff:	8b 05 1f 99 00 00    	mov    0x991f(%rip),%eax        # 21524 <g_1527>
   17c05:	89 c1                	mov    %eax,%ecx
   17c07:	8b 45 f4             	mov    -0xc(%rbp),%eax
   17c0a:	89 c2                	mov    %eax,%edx
   17c0c:	48 8d 35 e2 56 00 00 	lea    0x56e2(%rip),%rsi        # 1d2f5 <g_2454+0x2f7d>
   17c13:	48 89 cf             	mov    %rcx,%rdi
   17c16:	e8 d8 3a ff ff       	callq  b6f3 <transparent_crc>
   17c1b:	8b 05 07 99 00 00    	mov    0x9907(%rip),%eax        # 21528 <g_1528>
   17c21:	48 98                	cltq   
   17c23:	8b 55 f4             	mov    -0xc(%rbp),%edx
   17c26:	48 8d 35 d2 56 00 00 	lea    0x56d2(%rip),%rsi        # 1d2ff <g_2454+0x2f87>
   17c2d:	48 89 c7             	mov    %rax,%rdi
   17c30:	e8 be 3a ff ff       	callq  b6f3 <transparent_crc>
   17c35:	8b 05 f1 98 00 00    	mov    0x98f1(%rip),%eax        # 2152c <g_1546>
   17c3b:	89 c1                	mov    %eax,%ecx
   17c3d:	8b 45 f4             	mov    -0xc(%rbp),%eax
   17c40:	89 c2                	mov    %eax,%edx
   17c42:	48 8d 35 bd 56 00 00 	lea    0x56bd(%rip),%rsi        # 1d306 <g_2454+0x2f8e>
   17c49:	48 89 cf             	mov    %rcx,%rdi
   17c4c:	e8 a2 3a ff ff       	callq  b6f3 <transparent_crc>
   17c51:	48 8b 05 d8 98 00 00 	mov    0x98d8(%rip),%rax        # 21530 <g_1581>
   17c58:	01 c0                	add    %eax,%eax
   17c5a:	d1 f8                	sar    %eax
   17c5c:	48 98                	cltq   
   17c5e:	8b 55 f4             	mov    -0xc(%rbp),%edx
   17c61:	48 8d 35 a8 56 00 00 	lea    0x56a8(%rip),%rsi        # 1d310 <g_2454+0x2f98>
   17c68:	48 89 c7             	mov    %rax,%rdi
   17c6b:	e8 83 3a ff ff       	callq  b6f3 <transparent_crc>
   17c70:	48 8b 05 b9 98 00 00 	mov    0x98b9(%rip),%rax        # 21530 <g_1581>
   17c77:	48 c1 e8 20          	shr    $0x20,%rax
   17c7b:	25 ff ff 0f 00       	and    $0xfffff,%eax
   17c80:	89 c1                	mov    %eax,%ecx
   17c82:	8b 45 f4             	mov    -0xc(%rbp),%eax
   17c85:	89 c2                	mov    %eax,%edx
   17c87:	48 8d 35 8c 56 00 00 	lea    0x568c(%rip),%rsi        # 1d31a <g_2454+0x2fa2>
   17c8e:	48 89 cf             	mov    %rcx,%rdi
   17c91:	e8 5d 3a ff ff       	callq  b6f3 <transparent_crc>
   17c96:	48 8b 05 93 98 00 00 	mov    0x9893(%rip),%rax        # 21530 <g_1581>
   17c9d:	48 c1 e8 34          	shr    $0x34,%rax
   17ca1:	0f b7 c0             	movzwl %ax,%eax
   17ca4:	8b 55 f4             	mov    -0xc(%rbp),%edx
   17ca7:	48 8d 35 76 56 00 00 	lea    0x5676(%rip),%rsi        # 1d324 <g_2454+0x2fac>
   17cae:	48 89 c7             	mov    %rax,%rdi
   17cb1:	e8 3d 3a ff ff       	callq  b6f3 <transparent_crc>
   17cb6:	48 8b 05 7b 98 00 00 	mov    0x987b(%rip),%rax        # 21538 <g_1581+0x8>
   17cbd:	c1 e0 05             	shl    $0x5,%eax
   17cc0:	66 c1 f8 05          	sar    $0x5,%ax
   17cc4:	48 0f bf c0          	movswq %ax,%rax
   17cc8:	8b 55 f4             	mov    -0xc(%rbp),%edx
   17ccb:	48 8d 35 5c 56 00 00 	lea    0x565c(%rip),%rsi        # 1d32e <g_2454+0x2fb6>
   17cd2:	48 89 c7             	mov    %rax,%rdi
   17cd5:	e8 19 3a ff ff       	callq  b6f3 <transparent_crc>
   17cda:	48 8b 05 57 98 00 00 	mov    0x9857(%rip),%rax        # 21538 <g_1581+0x8>
   17ce1:	48 c1 e8 20          	shr    $0x20,%rax
   17ce5:	25 ff ff ff 03       	and    $0x3ffffff,%eax
   17cea:	89 c1                	mov    %eax,%ecx
   17cec:	8b 45 f4             	mov    -0xc(%rbp),%eax
   17cef:	89 c2                	mov    %eax,%edx
   17cf1:	48 8d 35 40 56 00 00 	lea    0x5640(%rip),%rsi        # 1d338 <g_2454+0x2fc0>
   17cf8:	48 89 cf             	mov    %rcx,%rdi
   17cfb:	e8 f3 39 ff ff       	callq  b6f3 <transparent_crc>
   17d00:	48 8b 05 39 98 00 00 	mov    0x9839(%rip),%rax        # 21540 <g_1581+0x10>
   17d07:	66 25 ff 03          	and    $0x3ff,%ax
   17d0b:	0f b7 c0             	movzwl %ax,%eax
   17d0e:	8b 55 f4             	mov    -0xc(%rbp),%edx
   17d11:	48 8d 35 2a 56 00 00 	lea    0x562a(%rip),%rsi        # 1d342 <g_2454+0x2fca>
   17d18:	48 89 c7             	mov    %rax,%rdi
   17d1b:	e8 d3 39 ff ff       	callq  b6f3 <transparent_crc>
   17d20:	c7 45 e8 00 00 00 00 	movl   $0x0,-0x18(%rbp)
   17d27:	e9 2e 02 00 00       	jmpq   17f5a <main+0x209d>
   17d2c:	c7 45 ec 00 00 00 00 	movl   $0x0,-0x14(%rbp)
   17d33:	e9 14 02 00 00       	jmpq   17f4c <main+0x208f>
   17d38:	8b 45 ec             	mov    -0x14(%rbp),%eax
   17d3b:	48 63 d0             	movslq %eax,%rdx
   17d3e:	8b 45 e8             	mov    -0x18(%rbp),%eax
   17d41:	48 63 c8             	movslq %eax,%rcx
   17d44:	48 89 d0             	mov    %rdx,%rax
   17d47:	48 c1 e0 02          	shl    $0x2,%rax
   17d4b:	48 01 d0             	add    %rdx,%rax
   17d4e:	48 01 c0             	add    %rax,%rax
   17d51:	48 6b d1 5a          	imul   $0x5a,%rcx,%rdx
   17d55:	48 01 c2             	add    %rax,%rdx
   17d58:	48 8d 05 01 98 00 00 	lea    0x9801(%rip),%rax        # 21560 <g_1585>
   17d5f:	48 01 d0             	add    %rdx,%rax
   17d62:	0f b7 10             	movzwl (%rax),%edx
   17d65:	0f b6 40 02          	movzbl 0x2(%rax),%eax
   17d69:	83 e0 01             	and    $0x1,%eax
   17d6c:	48 c1 e0 10          	shl    $0x10,%rax
   17d70:	48 09 d0             	or     %rdx,%rax
   17d73:	48 c1 e0 2f          	shl    $0x2f,%rax
   17d77:	48 c1 f8 2f          	sar    $0x2f,%rax
   17d7b:	48 98                	cltq   
   17d7d:	8b 55 f4             	mov    -0xc(%rbp),%edx
   17d80:	48 8d 35 c5 55 00 00 	lea    0x55c5(%rip),%rsi        # 1d34c <g_2454+0x2fd4>
   17d87:	48 89 c7             	mov    %rax,%rdi
   17d8a:	e8 64 39 ff ff       	callq  b6f3 <transparent_crc>
   17d8f:	8b 45 ec             	mov    -0x14(%rbp),%eax
   17d92:	48 63 d0             	movslq %eax,%rdx
   17d95:	8b 45 e8             	mov    -0x18(%rbp),%eax
   17d98:	48 63 c8             	movslq %eax,%rcx
   17d9b:	48 89 d0             	mov    %rdx,%rax
   17d9e:	48 c1 e0 02          	shl    $0x2,%rax
   17da2:	48 01 d0             	add    %rdx,%rax
   17da5:	48 01 c0             	add    %rax,%rax
   17da8:	48 6b d1 5a          	imul   $0x5a,%rcx,%rdx
   17dac:	48 01 c2             	add    %rax,%rdx
   17daf:	48 8d 05 aa 97 00 00 	lea    0x97aa(%rip),%rax        # 21560 <g_1585>
   17db6:	48 01 d0             	add    %rdx,%rax
   17db9:	0f b6 40 02          	movzbl 0x2(%rax),%eax
   17dbd:	d0 e8                	shr    %al
   17dbf:	83 e0 03             	and    $0x3,%eax
   17dc2:	0f b6 c0             	movzbl %al,%eax
   17dc5:	8b 55 f4             	mov    -0xc(%rbp),%edx
   17dc8:	48 8d 35 8d 55 00 00 	lea    0x558d(%rip),%rsi        # 1d35c <g_2454+0x2fe4>
   17dcf:	48 89 c7             	mov    %rax,%rdi
   17dd2:	e8 1c 39 ff ff       	callq  b6f3 <transparent_crc>
   17dd7:	8b 45 ec             	mov    -0x14(%rbp),%eax
   17dda:	48 63 d0             	movslq %eax,%rdx
   17ddd:	8b 45 e8             	mov    -0x18(%rbp),%eax
   17de0:	48 63 c8             	movslq %eax,%rcx
   17de3:	48 89 d0             	mov    %rdx,%rax
   17de6:	48 c1 e0 02          	shl    $0x2,%rax
   17dea:	48 01 d0             	add    %rdx,%rax
   17ded:	48 01 c0             	add    %rax,%rax
   17df0:	48 6b d1 5a          	imul   $0x5a,%rcx,%rdx
   17df4:	48 01 c2             	add    %rax,%rdx
   17df7:	48 8d 05 62 97 00 00 	lea    0x9762(%rip),%rax        # 21560 <g_1585>
   17dfe:	48 01 d0             	add    %rdx,%rax
   17e01:	0f b7 50 02          	movzwl 0x2(%rax),%edx
   17e05:	66 c1 ea 03          	shr    $0x3,%dx
   17e09:	0f b7 d2             	movzwl %dx,%edx
   17e0c:	0f b7 40 04          	movzwl 0x4(%rax),%eax
   17e10:	0f b7 c0             	movzwl %ax,%eax
   17e13:	25 ff 7f 00 00       	and    $0x7fff,%eax
   17e18:	48 c1 e0 0d          	shl    $0xd,%rax
   17e1c:	48 09 d0             	or     %rdx,%rax
   17e1f:	89 c1                	mov    %eax,%ecx
   17e21:	8b 45 f4             	mov    -0xc(%rbp),%eax
   17e24:	89 c2                	mov    %eax,%edx
   17e26:	48 8d 35 3f 55 00 00 	lea    0x553f(%rip),%rsi        # 1d36c <g_2454+0x2ff4>
   17e2d:	48 89 cf             	mov    %rcx,%rdi
   17e30:	e8 be 38 ff ff       	callq  b6f3 <transparent_crc>
   17e35:	8b 45 ec             	mov    -0x14(%rbp),%eax
   17e38:	48 63 d0             	movslq %eax,%rdx
   17e3b:	8b 45 e8             	mov    -0x18(%rbp),%eax
   17e3e:	48 63 c8             	movslq %eax,%rcx
   17e41:	48 89 d0             	mov    %rdx,%rax
   17e44:	48 c1 e0 02          	shl    $0x2,%rax
   17e48:	48 01 d0             	add    %rdx,%rax
   17e4b:	48 01 c0             	add    %rax,%rax
   17e4e:	48 6b d1 5a          	imul   $0x5a,%rcx,%rdx
   17e52:	48 01 c2             	add    %rax,%rdx
   17e55:	48 8d 05 04 97 00 00 	lea    0x9704(%rip),%rax        # 21560 <g_1585>
   17e5c:	48 01 d0             	add    %rdx,%rax
   17e5f:	0f b6 50 05          	movzbl 0x5(%rax),%edx
   17e63:	c0 ea 07             	shr    $0x7,%dl
   17e66:	0f b6 d2             	movzbl %dl,%edx
   17e69:	0f b7 48 06          	movzwl 0x6(%rax),%ecx
   17e6d:	48 01 c9             	add    %rcx,%rcx
   17e70:	48 09 ca             	or     %rcx,%rdx
   17e73:	0f b6 40 08          	movzbl 0x8(%rax),%eax
   17e77:	83 e0 7f             	and    $0x7f,%eax
   17e7a:	48 c1 e0 11          	shl    $0x11,%rax
   17e7e:	48 09 d0             	or     %rdx,%rax
   17e81:	89 c1                	mov    %eax,%ecx
   17e83:	8b 45 f4             	mov    -0xc(%rbp),%eax
   17e86:	89 c2                	mov    %eax,%edx
   17e88:	48 8d 35 ed 54 00 00 	lea    0x54ed(%rip),%rsi        # 1d37c <g_2454+0x3004>
   17e8f:	48 89 cf             	mov    %rcx,%rdi
   17e92:	e8 5c 38 ff ff       	callq  b6f3 <transparent_crc>
   17e97:	8b 45 ec             	mov    -0x14(%rbp),%eax
   17e9a:	48 63 d0             	movslq %eax,%rdx
   17e9d:	8b 45 e8             	mov    -0x18(%rbp),%eax
   17ea0:	48 63 c8             	movslq %eax,%rcx
   17ea3:	48 89 d0             	mov    %rdx,%rax
   17ea6:	48 c1 e0 02          	shl    $0x2,%rax
   17eaa:	48 01 d0             	add    %rdx,%rax
   17ead:	48 01 c0             	add    %rax,%rax
   17eb0:	48 6b d1 5a          	imul   $0x5a,%rcx,%rdx
   17eb4:	48 01 c2             	add    %rax,%rdx
   17eb7:	48 8d 05 a2 96 00 00 	lea    0x96a2(%rip),%rax        # 21560 <g_1585>
   17ebe:	48 01 d0             	add    %rdx,%rax
   17ec1:	0f b7 40 08          	movzwl 0x8(%rax),%eax
   17ec5:	c1 e0 02             	shl    $0x2,%eax
   17ec8:	66 c1 f8 09          	sar    $0x9,%ax
   17ecc:	48 0f be c0          	movsbq %al,%rax
   17ed0:	8b 55 f4             	mov    -0xc(%rbp),%edx
   17ed3:	48 8d 35 b2 54 00 00 	lea    0x54b2(%rip),%rsi        # 1d38c <g_2454+0x3014>
   17eda:	48 89 c7             	mov    %rax,%rdi
   17edd:	e8 11 38 ff ff       	callq  b6f3 <transparent_crc>
   17ee2:	8b 45 ec             	mov    -0x14(%rbp),%eax
   17ee5:	48 63 d0             	movslq %eax,%rdx
   17ee8:	8b 45 e8             	mov    -0x18(%rbp),%eax
   17eeb:	48 63 c8             	movslq %eax,%rcx
   17eee:	48 89 d0             	mov    %rdx,%rax
   17ef1:	48 c1 e0 02          	shl    $0x2,%rax
   17ef5:	48 01 d0             	add    %rdx,%rax
   17ef8:	48 01 c0             	add    %rax,%rax
   17efb:	48 6b d1 5a          	imul   $0x5a,%rcx,%rdx
   17eff:	48 01 c2             	add    %rax,%rdx
   17f02:	48 8d 05 57 96 00 00 	lea    0x9657(%rip),%rax        # 21560 <g_1585>
   17f09:	48 01 d0             	add    %rdx,%rax
   17f0c:	0f b6 40 09          	movzbl 0x9(%rax),%eax
   17f10:	c0 f8 06             	sar    $0x6,%al
   17f13:	48 0f be c0          	movsbq %al,%rax
   17f17:	8b 55 f4             	mov    -0xc(%rbp),%edx
   17f1a:	48 8d 35 7b 54 00 00 	lea    0x547b(%rip),%rsi        # 1d39c <g_2454+0x3024>
   17f21:	48 89 c7             	mov    %rax,%rdi
   17f24:	e8 ca 37 ff ff       	callq  b6f3 <transparent_crc>
   17f29:	83 7d f4 00          	cmpl   $0x0,-0xc(%rbp)
   17f2d:	74 19                	je     17f48 <main+0x208b>
   17f2f:	8b 55 ec             	mov    -0x14(%rbp),%edx
   17f32:	8b 45 e8             	mov    -0x18(%rbp),%eax
   17f35:	89 c6                	mov    %eax,%esi
   17f37:	48 8d 3d b7 4e 00 00 	lea    0x4eb7(%rip),%rdi        # 1cdf5 <g_2454+0x2a7d>
   17f3e:	b8 00 00 00 00       	mov    $0x0,%eax
   17f43:	e8 38 21 ff ff       	callq  a080 <printf@plt>
   17f48:	83 45 ec 01          	addl   $0x1,-0x14(%rbp)
   17f4c:	83 7d ec 08          	cmpl   $0x8,-0x14(%rbp)
   17f50:	0f 8e e2 fd ff ff    	jle    17d38 <main+0x1e7b>
   17f56:	83 45 e8 01          	addl   $0x1,-0x18(%rbp)
   17f5a:	83 7d e8 02          	cmpl   $0x2,-0x18(%rbp)
   17f5e:	0f 8e c8 fd ff ff    	jle    17d2c <main+0x1e6f>
   17f64:	c7 45 e8 00 00 00 00 	movl   $0x0,-0x18(%rbp)
   17f6b:	e9 00 02 00 00       	jmpq   18170 <main+0x22b3>
   17f70:	c7 45 ec 00 00 00 00 	movl   $0x0,-0x14(%rbp)
   17f77:	e9 e6 01 00 00       	jmpq   18162 <main+0x22a5>
   17f7c:	8b 45 ec             	mov    -0x14(%rbp),%eax
   17f7f:	48 63 d0             	movslq %eax,%rdx
   17f82:	8b 45 e8             	mov    -0x18(%rbp),%eax
   17f85:	48 63 c8             	movslq %eax,%rcx
   17f88:	48 89 d0             	mov    %rdx,%rax
   17f8b:	48 c1 e0 02          	shl    $0x2,%rax
   17f8f:	48 01 d0             	add    %rdx,%rax
   17f92:	48 c1 e0 02          	shl    $0x2,%rax
   17f96:	48 69 d1 8c 00 00 00 	imul   $0x8c,%rcx,%rdx
   17f9d:	48 01 c2             	add    %rax,%rdx
   17fa0:	48 8d 05 d9 96 00 00 	lea    0x96d9(%rip),%rax        # 21680 <g_1588>
   17fa7:	48 01 d0             	add    %rdx,%rax
   17faa:	8b 00                	mov    (%rax),%eax
   17fac:	01 c0                	add    %eax,%eax
   17fae:	d1 f8                	sar    %eax
   17fb0:	48 98                	cltq   
   17fb2:	8b 55 f4             	mov    -0xc(%rbp),%edx
   17fb5:	48 8d 35 f0 53 00 00 	lea    0x53f0(%rip),%rsi        # 1d3ac <g_2454+0x3034>
   17fbc:	48 89 c7             	mov    %rax,%rdi
   17fbf:	e8 2f 37 ff ff       	callq  b6f3 <transparent_crc>
   17fc4:	8b 45 ec             	mov    -0x14(%rbp),%eax
   17fc7:	48 63 d0             	movslq %eax,%rdx
   17fca:	8b 45 e8             	mov    -0x18(%rbp),%eax
   17fcd:	48 63 c8             	movslq %eax,%rcx
   17fd0:	48 89 d0             	mov    %rdx,%rax
   17fd3:	48 c1 e0 02          	shl    $0x2,%rax
   17fd7:	48 01 d0             	add    %rdx,%rax
   17fda:	48 c1 e0 02          	shl    $0x2,%rax
   17fde:	48 69 d1 8c 00 00 00 	imul   $0x8c,%rcx,%rdx
   17fe5:	48 01 c2             	add    %rax,%rdx
   17fe8:	48 8d 05 91 96 00 00 	lea    0x9691(%rip),%rax        # 21680 <g_1588>
   17fef:	48 01 d0             	add    %rdx,%rax
   17ff2:	8b 40 04             	mov    0x4(%rax),%eax
   17ff5:	25 ff ff 0f 00       	and    $0xfffff,%eax
   17ffa:	89 c1                	mov    %eax,%ecx
   17ffc:	8b 45 f4             	mov    -0xc(%rbp),%eax
   17fff:	89 c2                	mov    %eax,%edx
   18001:	48 8d 35 b4 53 00 00 	lea    0x53b4(%rip),%rsi        # 1d3bc <g_2454+0x3044>
   18008:	48 89 cf             	mov    %rcx,%rdi
   1800b:	e8 e3 36 ff ff       	callq  b6f3 <transparent_crc>
   18010:	8b 45 ec             	mov    -0x14(%rbp),%eax
   18013:	48 63 d0             	movslq %eax,%rdx
   18016:	8b 45 e8             	mov    -0x18(%rbp),%eax
   18019:	48 63 c8             	movslq %eax,%rcx
   1801c:	48 89 d0             	mov    %rdx,%rax
   1801f:	48 c1 e0 02          	shl    $0x2,%rax
   18023:	48 01 d0             	add    %rdx,%rax
   18026:	48 c1 e0 02          	shl    $0x2,%rax
   1802a:	48 69 d1 8c 00 00 00 	imul   $0x8c,%rcx,%rdx
   18031:	48 01 c2             	add    %rax,%rdx
   18034:	48 8d 05 45 96 00 00 	lea    0x9645(%rip),%rax        # 21680 <g_1588>
   1803b:	48 01 d0             	add    %rdx,%rax
   1803e:	0f b7 40 06          	movzwl 0x6(%rax),%eax
   18042:	66 c1 e8 04          	shr    $0x4,%ax
   18046:	0f b7 c0             	movzwl %ax,%eax
   18049:	8b 55 f4             	mov    -0xc(%rbp),%edx
   1804c:	48 8d 35 79 53 00 00 	lea    0x5379(%rip),%rsi        # 1d3cc <g_2454+0x3054>
   18053:	48 89 c7             	mov    %rax,%rdi
   18056:	e8 98 36 ff ff       	callq  b6f3 <transparent_crc>
   1805b:	8b 45 ec             	mov    -0x14(%rbp),%eax
   1805e:	48 63 d0             	movslq %eax,%rdx
   18061:	8b 45 e8             	mov    -0x18(%rbp),%eax
   18064:	48 63 c8             	movslq %eax,%rcx
   18067:	48 89 d0             	mov    %rdx,%rax
   1806a:	48 c1 e0 02          	shl    $0x2,%rax
   1806e:	48 01 d0             	add    %rdx,%rax
   18071:	48 c1 e0 02          	shl    $0x2,%rax
   18075:	48 69 d1 8c 00 00 00 	imul   $0x8c,%rcx,%rdx
   1807c:	48 01 c2             	add    %rax,%rdx
   1807f:	48 8d 05 fa 95 00 00 	lea    0x95fa(%rip),%rax        # 21680 <g_1588>
   18086:	48 01 d0             	add    %rdx,%rax
   18089:	0f b7 40 08          	movzwl 0x8(%rax),%eax
   1808d:	c1 e0 05             	shl    $0x5,%eax
   18090:	66 c1 f8 05          	sar    $0x5,%ax
   18094:	48 0f bf c0          	movswq %ax,%rax
   18098:	8b 55 f4             	mov    -0xc(%rbp),%edx
   1809b:	48 8d 35 3a 53 00 00 	lea    0x533a(%rip),%rsi        # 1d3dc <g_2454+0x3064>
   180a2:	48 89 c7             	mov    %rax,%rdi
   180a5:	e8 49 36 ff ff       	callq  b6f3 <transparent_crc>
   180aa:	8b 45 ec             	mov    -0x14(%rbp),%eax
   180ad:	48 63 d0             	movslq %eax,%rdx
   180b0:	8b 45 e8             	mov    -0x18(%rbp),%eax
   180b3:	48 63 c8             	movslq %eax,%rcx
   180b6:	48 89 d0             	mov    %rdx,%rax
   180b9:	48 c1 e0 02          	shl    $0x2,%rax
   180bd:	48 01 d0             	add    %rdx,%rax
   180c0:	48 c1 e0 02          	shl    $0x2,%rax
   180c4:	48 69 d1 8c 00 00 00 	imul   $0x8c,%rcx,%rdx
   180cb:	48 01 c2             	add    %rax,%rdx
   180ce:	48 8d 05 ab 95 00 00 	lea    0x95ab(%rip),%rax        # 21680 <g_1588>
   180d5:	48 01 d0             	add    %rdx,%rax
   180d8:	8b 40 0c             	mov    0xc(%rax),%eax
   180db:	25 ff ff ff 03       	and    $0x3ffffff,%eax
   180e0:	89 c1                	mov    %eax,%ecx
   180e2:	8b 45 f4             	mov    -0xc(%rbp),%eax
   180e5:	89 c2                	mov    %eax,%edx
   180e7:	48 8d 35 fe 52 00 00 	lea    0x52fe(%rip),%rsi        # 1d3ec <g_2454+0x3074>
   180ee:	48 89 cf             	mov    %rcx,%rdi
   180f1:	e8 fd 35 ff ff       	callq  b6f3 <transparent_crc>
   180f6:	8b 45 ec             	mov    -0x14(%rbp),%eax
   180f9:	48 63 d0             	movslq %eax,%rdx
   180fc:	8b 45 e8             	mov    -0x18(%rbp),%eax
   180ff:	48 63 c8             	movslq %eax,%rcx
   18102:	48 89 d0             	mov    %rdx,%rax
   18105:	48 c1 e0 02          	shl    $0x2,%rax
   18109:	48 01 d0             	add    %rdx,%rax
   1810c:	48 c1 e0 02          	shl    $0x2,%rax
   18110:	48 69 d1 8c 00 00 00 	imul   $0x8c,%rcx,%rdx
   18117:	48 01 c2             	add    %rax,%rdx
   1811a:	48 8d 05 6f 95 00 00 	lea    0x956f(%rip),%rax        # 21690 <g_1588+0x10>
   18121:	48 01 d0             	add    %rdx,%rax
   18124:	8b 00                	mov    (%rax),%eax
   18126:	66 25 ff 03          	and    $0x3ff,%ax
   1812a:	0f b7 c0             	movzwl %ax,%eax
   1812d:	8b 55 f4             	mov    -0xc(%rbp),%edx
   18130:	48 8d 35 c5 52 00 00 	lea    0x52c5(%rip),%rsi        # 1d3fc <g_2454+0x3084>
   18137:	48 89 c7             	mov    %rax,%rdi
   1813a:	e8 b4 35 ff ff       	callq  b6f3 <transparent_crc>
   1813f:	83 7d f4 00          	cmpl   $0x0,-0xc(%rbp)
   18143:	74 19                	je     1815e <main+0x22a1>
   18145:	8b 55 ec             	mov    -0x14(%rbp),%edx
   18148:	8b 45 e8             	mov    -0x18(%rbp),%eax
   1814b:	89 c6                	mov    %eax,%esi
   1814d:	48 8d 3d a1 4c 00 00 	lea    0x4ca1(%rip),%rdi        # 1cdf5 <g_2454+0x2a7d>
   18154:	b8 00 00 00 00       	mov    $0x0,%eax
   18159:	e8 22 1f ff ff       	callq  a080 <printf@plt>
   1815e:	83 45 ec 01          	addl   $0x1,-0x14(%rbp)
   18162:	83 7d ec 06          	cmpl   $0x6,-0x14(%rbp)
   18166:	0f 8e 10 fe ff ff    	jle    17f7c <main+0x20bf>
   1816c:	83 45 e8 01          	addl   $0x1,-0x18(%rbp)
   18170:	83 7d e8 02          	cmpl   $0x2,-0x18(%rbp)
   18174:	0f 8e f6 fd ff ff    	jle    17f70 <main+0x20b3>
   1817a:	b8 3b 79 00 00       	mov    $0x793b,%eax
   1817f:	48 98                	cltq   
   18181:	8b 55 f4             	mov    -0xc(%rbp),%edx
   18184:	48 8d 35 81 52 00 00 	lea    0x5281(%rip),%rsi        # 1d40c <g_2454+0x3094>
   1818b:	48 89 c7             	mov    %rax,%rdi
   1818e:	e8 60 35 ff ff       	callq  b6f3 <transparent_crc>
   18193:	b8 91 02 00 00       	mov    $0x291,%eax
   18198:	89 c1                	mov    %eax,%ecx
   1819a:	8b 45 f4             	mov    -0xc(%rbp),%eax
   1819d:	89 c2                	mov    %eax,%edx
   1819f:	48 8d 35 70 52 00 00 	lea    0x5270(%rip),%rsi        # 1d416 <g_2454+0x309e>
   181a6:	48 89 cf             	mov    %rcx,%rdi
   181a9:	e8 45 35 ff ff       	callq  b6f3 <transparent_crc>
   181ae:	b8 36 00 00 00       	mov    $0x36,%eax
   181b3:	0f b7 c0             	movzwl %ax,%eax
   181b6:	8b 55 f4             	mov    -0xc(%rbp),%edx
   181b9:	48 8d 35 60 52 00 00 	lea    0x5260(%rip),%rsi        # 1d420 <g_2454+0x30a8>
   181c0:	48 89 c7             	mov    %rax,%rdi
   181c3:	e8 2b 35 ff ff       	callq  b6f3 <transparent_crc>
   181c8:	b8 f5 ff ff ff       	mov    $0xfffffff5,%eax
   181cd:	48 0f bf c0          	movswq %ax,%rax
   181d1:	8b 55 f4             	mov    -0xc(%rbp),%edx
   181d4:	48 8d 35 4f 52 00 00 	lea    0x524f(%rip),%rsi        # 1d42a <g_2454+0x30b2>
   181db:	48 89 c7             	mov    %rax,%rdi
   181de:	e8 10 35 ff ff       	callq  b6f3 <transparent_crc>
   181e3:	b8 3f 12 00 00       	mov    $0x123f,%eax
   181e8:	89 c1                	mov    %eax,%ecx
   181ea:	8b 45 f4             	mov    -0xc(%rbp),%eax
   181ed:	89 c2                	mov    %eax,%edx
   181ef:	48 8d 35 3e 52 00 00 	lea    0x523e(%rip),%rsi        # 1d434 <g_2454+0x30bc>
   181f6:	48 89 cf             	mov    %rcx,%rdi
   181f9:	e8 f5 34 ff ff       	callq  b6f3 <transparent_crc>
   181fe:	48 8b 05 bb 1e 00 00 	mov    0x1ebb(%rip),%rax        # 1a0c0 <g_1599+0x10>
   18205:	66 25 ff 03          	and    $0x3ff,%ax
   18209:	0f b7 c0             	movzwl %ax,%eax
   1820c:	8b 55 f4             	mov    -0xc(%rbp),%edx
   1820f:	48 8d 35 28 52 00 00 	lea    0x5228(%rip),%rsi        # 1d43e <g_2454+0x30c6>
   18216:	48 89 c7             	mov    %rax,%rdi
   18219:	e8 d5 34 ff ff       	callq  b6f3 <transparent_crc>
   1821e:	48 8b 05 0b 96 00 00 	mov    0x960b(%rip),%rax        # 21830 <g_1618>
   18225:	01 c0                	add    %eax,%eax
   18227:	d1 f8                	sar    %eax
   18229:	48 98                	cltq   
   1822b:	8b 55 f4             	mov    -0xc(%rbp),%edx
   1822e:	48 8d 35 13 52 00 00 	lea    0x5213(%rip),%rsi        # 1d448 <g_2454+0x30d0>
   18235:	48 89 c7             	mov    %rax,%rdi
   18238:	e8 b6 34 ff ff       	callq  b6f3 <transparent_crc>
   1823d:	48 8b 05 ec 95 00 00 	mov    0x95ec(%rip),%rax        # 21830 <g_1618>
   18244:	48 c1 e8 20          	shr    $0x20,%rax
   18248:	25 ff ff 0f 00       	and    $0xfffff,%eax
   1824d:	89 c1                	mov    %eax,%ecx
   1824f:	8b 45 f4             	mov    -0xc(%rbp),%eax
   18252:	89 c2                	mov    %eax,%edx
   18254:	48 8d 35 f7 51 00 00 	lea    0x51f7(%rip),%rsi        # 1d452 <g_2454+0x30da>
   1825b:	48 89 cf             	mov    %rcx,%rdi
   1825e:	e8 90 34 ff ff       	callq  b6f3 <transparent_crc>
   18263:	48 8b 05 c6 95 00 00 	mov    0x95c6(%rip),%rax        # 21830 <g_1618>
   1826a:	48 c1 e8 34          	shr    $0x34,%rax
   1826e:	0f b7 c0             	movzwl %ax,%eax
   18271:	8b 55 f4             	mov    -0xc(%rbp),%edx
   18274:	48 8d 35 e1 51 00 00 	lea    0x51e1(%rip),%rsi        # 1d45c <g_2454+0x30e4>
   1827b:	48 89 c7             	mov    %rax,%rdi
   1827e:	e8 70 34 ff ff       	callq  b6f3 <transparent_crc>
   18283:	48 8b 05 ae 95 00 00 	mov    0x95ae(%rip),%rax        # 21838 <g_1618+0x8>
   1828a:	c1 e0 05             	shl    $0x5,%eax
   1828d:	66 c1 f8 05          	sar    $0x5,%ax
   18291:	48 0f bf c0          	movswq %ax,%rax
   18295:	8b 55 f4             	mov    -0xc(%rbp),%edx
   18298:	48 8d 35 c7 51 00 00 	lea    0x51c7(%rip),%rsi        # 1d466 <g_2454+0x30ee>
   1829f:	48 89 c7             	mov    %rax,%rdi
   182a2:	e8 4c 34 ff ff       	callq  b6f3 <transparent_crc>
   182a7:	48 8b 05 8a 95 00 00 	mov    0x958a(%rip),%rax        # 21838 <g_1618+0x8>
   182ae:	48 c1 e8 20          	shr    $0x20,%rax
   182b2:	25 ff ff ff 03       	and    $0x3ffffff,%eax
   182b7:	89 c1                	mov    %eax,%ecx
   182b9:	8b 45 f4             	mov    -0xc(%rbp),%eax
   182bc:	89 c2                	mov    %eax,%edx
   182be:	48 8d 35 ab 51 00 00 	lea    0x51ab(%rip),%rsi        # 1d470 <g_2454+0x30f8>
   182c5:	48 89 cf             	mov    %rcx,%rdi
   182c8:	e8 26 34 ff ff       	callq  b6f3 <transparent_crc>
   182cd:	48 8b 05 6c 95 00 00 	mov    0x956c(%rip),%rax        # 21840 <g_1618+0x10>
   182d4:	66 25 ff 03          	and    $0x3ff,%ax
   182d8:	0f b7 c0             	movzwl %ax,%eax
   182db:	8b 55 f4             	mov    -0xc(%rbp),%edx
   182de:	48 8d 35 95 51 00 00 	lea    0x5195(%rip),%rsi        # 1d47a <g_2454+0x3102>
   182e5:	48 89 c7             	mov    %rax,%rdi
   182e8:	e8 06 34 ff ff       	callq  b6f3 <transparent_crc>
   182ed:	48 8b 05 54 95 00 00 	mov    0x9554(%rip),%rax        # 21848 <g_1627>
   182f4:	c1 e0 0f             	shl    $0xf,%eax
   182f7:	c1 f8 0f             	sar    $0xf,%eax
   182fa:	48 98                	cltq   
   182fc:	8b 55 f4             	mov    -0xc(%rbp),%edx
   182ff:	48 8d 35 7e 51 00 00 	lea    0x517e(%rip),%rsi        # 1d484 <g_2454+0x310c>
   18306:	48 89 c7             	mov    %rax,%rdi
   18309:	e8 e5 33 ff ff       	callq  b6f3 <transparent_crc>
   1830e:	48 8b 05 33 95 00 00 	mov    0x9533(%rip),%rax        # 21848 <g_1627>
   18315:	48 c1 e8 11          	shr    $0x11,%rax
   18319:	83 e0 03             	and    $0x3,%eax
   1831c:	0f b6 c0             	movzbl %al,%eax
   1831f:	8b 55 f4             	mov    -0xc(%rbp),%edx
   18322:	48 8d 35 65 51 00 00 	lea    0x5165(%rip),%rsi        # 1d48e <g_2454+0x3116>
   18329:	48 89 c7             	mov    %rax,%rdi
   1832c:	e8 c2 33 ff ff       	callq  b6f3 <transparent_crc>
   18331:	48 8b 05 10 95 00 00 	mov    0x9510(%rip),%rax        # 21848 <g_1627>
   18338:	48 c1 e8 13          	shr    $0x13,%rax
   1833c:	25 ff ff ff 0f       	and    $0xfffffff,%eax
   18341:	89 c1                	mov    %eax,%ecx
   18343:	8b 45 f4             	mov    -0xc(%rbp),%eax
   18346:	89 c2                	mov    %eax,%edx
   18348:	48 8d 35 49 51 00 00 	lea    0x5149(%rip),%rsi        # 1d498 <g_2454+0x3120>
   1834f:	48 89 cf             	mov    %rcx,%rdi
   18352:	e8 9c 33 ff ff       	callq  b6f3 <transparent_crc>
   18357:	48 8b 05 ea 94 00 00 	mov    0x94ea(%rip),%rax        # 21848 <g_1627>
   1835e:	48 c1 e8 2f          	shr    $0x2f,%rax
   18362:	48 89 c2             	mov    %rax,%rdx
   18365:	48 8b 05 e4 94 00 00 	mov    0x94e4(%rip),%rax        # 21850 <g_1627+0x8>
   1836c:	83 e0 7f             	and    $0x7f,%eax
   1836f:	48 c1 e0 11          	shl    $0x11,%rax
   18373:	48 09 d0             	or     %rdx,%rax
   18376:	89 c1                	mov    %eax,%ecx
   18378:	8b 45 f4             	mov    -0xc(%rbp),%eax
   1837b:	89 c2                	mov    %eax,%edx
   1837d:	48 8d 35 1e 51 00 00 	lea    0x511e(%rip),%rsi        # 1d4a2 <g_2454+0x312a>
   18384:	48 89 cf             	mov    %rcx,%rdi
   18387:	e8 67 33 ff ff       	callq  b6f3 <transparent_crc>
   1838c:	48 8b 05 bd 94 00 00 	mov    0x94bd(%rip),%rax        # 21850 <g_1627+0x8>
   18393:	c1 e0 02             	shl    $0x2,%eax
   18396:	66 c1 f8 09          	sar    $0x9,%ax
   1839a:	48 0f be c0          	movsbq %al,%rax
   1839e:	8b 55 f4             	mov    -0xc(%rbp),%edx
   183a1:	48 8d 35 04 51 00 00 	lea    0x5104(%rip),%rsi        # 1d4ac <g_2454+0x3134>
   183a8:	48 89 c7             	mov    %rax,%rdi
   183ab:	e8 43 33 ff ff       	callq  b6f3 <transparent_crc>
   183b0:	48 8b 05 99 94 00 00 	mov    0x9499(%rip),%rax        # 21850 <g_1627+0x8>
   183b7:	66 c1 f8 0e          	sar    $0xe,%ax
   183bb:	48 0f be c0          	movsbq %al,%rax
   183bf:	8b 55 f4             	mov    -0xc(%rbp),%edx
   183c2:	48 8d 35 ed 50 00 00 	lea    0x50ed(%rip),%rsi        # 1d4b6 <g_2454+0x313e>
   183c9:	48 89 c7             	mov    %rax,%rdi
   183cc:	e8 22 33 ff ff       	callq  b6f3 <transparent_crc>
   183d1:	8b 05 81 94 00 00    	mov    0x9481(%rip),%eax        # 21858 <g_1631>
   183d7:	c1 e0 0f             	shl    $0xf,%eax
   183da:	c1 f8 0f             	sar    $0xf,%eax
   183dd:	48 98                	cltq   
   183df:	8b 55 f4             	mov    -0xc(%rbp),%edx
   183e2:	48 8d 35 d7 50 00 00 	lea    0x50d7(%rip),%rsi        # 1d4c0 <g_2454+0x3148>
   183e9:	48 89 c7             	mov    %rax,%rdi
   183ec:	e8 02 33 ff ff       	callq  b6f3 <transparent_crc>
   183f1:	0f b6 05 62 94 00 00 	movzbl 0x9462(%rip),%eax        # 2185a <g_1631+0x2>
   183f8:	d0 e8                	shr    %al
   183fa:	83 e0 03             	and    $0x3,%eax
   183fd:	0f b6 c0             	movzbl %al,%eax
   18400:	8b 55 f4             	mov    -0xc(%rbp),%edx
   18403:	48 8d 35 c0 50 00 00 	lea    0x50c0(%rip),%rsi        # 1d4ca <g_2454+0x3152>
   1840a:	48 89 c7             	mov    %rax,%rdi
   1840d:	e8 e1 32 ff ff       	callq  b6f3 <transparent_crc>
   18412:	48 8b 05 3f 94 00 00 	mov    0x943f(%rip),%rax        # 21858 <g_1631>
   18419:	48 c1 e8 13          	shr    $0x13,%rax
   1841d:	25 ff ff ff 0f       	and    $0xfffffff,%eax
   18422:	89 c1                	mov    %eax,%ecx
   18424:	8b 45 f4             	mov    -0xc(%rbp),%eax
   18427:	89 c2                	mov    %eax,%edx
   18429:	48 8d 35 a4 50 00 00 	lea    0x50a4(%rip),%rsi        # 1d4d4 <g_2454+0x315c>
   18430:	48 89 cf             	mov    %rcx,%rdi
   18433:	e8 bb 32 ff ff       	callq  b6f3 <transparent_crc>
   18438:	8b 05 1e 94 00 00    	mov    0x941e(%rip),%eax        # 2185c <g_1631+0x4>
   1843e:	c1 e8 0f             	shr    $0xf,%eax
   18441:	89 c2                	mov    %eax,%edx
   18443:	0f b6 05 16 94 00 00 	movzbl 0x9416(%rip),%eax        # 21860 <g_1631+0x8>
   1844a:	83 e0 7f             	and    $0x7f,%eax
   1844d:	48 c1 e0 11          	shl    $0x11,%rax
   18451:	48 09 d0             	or     %rdx,%rax
   18454:	89 c1                	mov    %eax,%ecx
   18456:	8b 45 f4             	mov    -0xc(%rbp),%eax
   18459:	89 c2                	mov    %eax,%edx
   1845b:	48 8d 35 7c 50 00 00 	lea    0x507c(%rip),%rsi        # 1d4de <g_2454+0x3166>
   18462:	48 89 cf             	mov    %rcx,%rdi
   18465:	e8 89 32 ff ff       	callq  b6f3 <transparent_crc>
   1846a:	0f b7 05 ef 93 00 00 	movzwl 0x93ef(%rip),%eax        # 21860 <g_1631+0x8>
   18471:	c1 e0 02             	shl    $0x2,%eax
   18474:	66 c1 f8 09          	sar    $0x9,%ax
   18478:	48 0f be c0          	movsbq %al,%rax
   1847c:	8b 55 f4             	mov    -0xc(%rbp),%edx
   1847f:	48 8d 35 62 50 00 00 	lea    0x5062(%rip),%rsi        # 1d4e8 <g_2454+0x3170>
   18486:	48 89 c7             	mov    %rax,%rdi
   18489:	e8 65 32 ff ff       	callq  b6f3 <transparent_crc>
   1848e:	0f b6 05 cc 93 00 00 	movzbl 0x93cc(%rip),%eax        # 21861 <g_1631+0x9>
   18495:	c0 f8 06             	sar    $0x6,%al
   18498:	48 0f be c0          	movsbq %al,%rax
   1849c:	8b 55 f4             	mov    -0xc(%rbp),%edx
   1849f:	48 8d 35 4c 50 00 00 	lea    0x504c(%rip),%rsi        # 1d4f2 <g_2454+0x317a>
   184a6:	48 89 c7             	mov    %rax,%rdi
   184a9:	e8 45 32 ff ff       	callq  b6f3 <transparent_crc>
   184ae:	48 8b 05 b3 93 00 00 	mov    0x93b3(%rip),%rax        # 21868 <g_1633>
   184b5:	c1 e0 0f             	shl    $0xf,%eax
   184b8:	c1 f8 0f             	sar    $0xf,%eax
   184bb:	48 98                	cltq   
   184bd:	8b 55 f4             	mov    -0xc(%rbp),%edx
   184c0:	48 8d 35 35 50 00 00 	lea    0x5035(%rip),%rsi        # 1d4fc <g_2454+0x3184>
   184c7:	48 89 c7             	mov    %rax,%rdi
   184ca:	e8 24 32 ff ff       	callq  b6f3 <transparent_crc>
   184cf:	48 8b 05 92 93 00 00 	mov    0x9392(%rip),%rax        # 21868 <g_1633>
   184d6:	48 c1 e8 11          	shr    $0x11,%rax
   184da:	83 e0 03             	and    $0x3,%eax
   184dd:	0f b6 c0             	movzbl %al,%eax
   184e0:	8b 55 f4             	mov    -0xc(%rbp),%edx
   184e3:	48 8d 35 1c 50 00 00 	lea    0x501c(%rip),%rsi        # 1d506 <g_2454+0x318e>
   184ea:	48 89 c7             	mov    %rax,%rdi
   184ed:	e8 01 32 ff ff       	callq  b6f3 <transparent_crc>
   184f2:	48 8b 05 6f 93 00 00 	mov    0x936f(%rip),%rax        # 21868 <g_1633>
   184f9:	48 c1 e8 13          	shr    $0x13,%rax
   184fd:	25 ff ff ff 0f       	and    $0xfffffff,%eax
   18502:	89 c1                	mov    %eax,%ecx
   18504:	8b 45 f4             	mov    -0xc(%rbp),%eax
   18507:	89 c2                	mov    %eax,%edx
   18509:	48 8d 35 00 50 00 00 	lea    0x5000(%rip),%rsi        # 1d510 <g_2454+0x3198>
   18510:	48 89 cf             	mov    %rcx,%rdi
   18513:	e8 db 31 ff ff       	callq  b6f3 <transparent_crc>
   18518:	48 8b 05 49 93 00 00 	mov    0x9349(%rip),%rax        # 21868 <g_1633>
   1851f:	48 c1 e8 2f          	shr    $0x2f,%rax
   18523:	48 89 c2             	mov    %rax,%rdx
   18526:	48 8b 05 43 93 00 00 	mov    0x9343(%rip),%rax        # 21870 <g_1633+0x8>
   1852d:	83 e0 7f             	and    $0x7f,%eax
   18530:	48 c1 e0 11          	shl    $0x11,%rax
   18534:	48 09 d0             	or     %rdx,%rax
   18537:	89 c1                	mov    %eax,%ecx
   18539:	8b 45 f4             	mov    -0xc(%rbp),%eax
   1853c:	89 c2                	mov    %eax,%edx
   1853e:	48 8d 35 d5 4f 00 00 	lea    0x4fd5(%rip),%rsi        # 1d51a <g_2454+0x31a2>
   18545:	48 89 cf             	mov    %rcx,%rdi
   18548:	e8 a6 31 ff ff       	callq  b6f3 <transparent_crc>
   1854d:	48 8b 05 1c 93 00 00 	mov    0x931c(%rip),%rax        # 21870 <g_1633+0x8>
   18554:	c1 e0 02             	shl    $0x2,%eax
   18557:	66 c1 f8 09          	sar    $0x9,%ax
   1855b:	48 0f be c0          	movsbq %al,%rax
   1855f:	8b 55 f4             	mov    -0xc(%rbp),%edx
   18562:	48 8d 35 bb 4f 00 00 	lea    0x4fbb(%rip),%rsi        # 1d524 <g_2454+0x31ac>
   18569:	48 89 c7             	mov    %rax,%rdi
   1856c:	e8 82 31 ff ff       	callq  b6f3 <transparent_crc>
   18571:	48 8b 05 f8 92 00 00 	mov    0x92f8(%rip),%rax        # 21870 <g_1633+0x8>
   18578:	66 c1 f8 0e          	sar    $0xe,%ax
   1857c:	48 0f be c0          	movsbq %al,%rax
   18580:	8b 55 f4             	mov    -0xc(%rbp),%edx
   18583:	48 8d 35 a4 4f 00 00 	lea    0x4fa4(%rip),%rsi        # 1d52e <g_2454+0x31b6>
   1858a:	48 89 c7             	mov    %rax,%rdi
   1858d:	e8 61 31 ff ff       	callq  b6f3 <transparent_crc>
   18592:	0f b6 05 d9 92 00 00 	movzbl 0x92d9(%rip),%eax        # 21872 <g_1665>
   18599:	0f b6 c0             	movzbl %al,%eax
   1859c:	8b 55 f4             	mov    -0xc(%rbp),%edx
   1859f:	48 8d 35 92 4f 00 00 	lea    0x4f92(%rip),%rsi        # 1d538 <g_2454+0x31c0>
   185a6:	48 89 c7             	mov    %rax,%rdi
   185a9:	e8 45 31 ff ff       	callq  b6f3 <transparent_crc>
   185ae:	c7 45 e8 00 00 00 00 	movl   $0x0,-0x18(%rbp)
   185b5:	eb 77                	jmp    1862e <main+0x2771>
   185b7:	c7 45 ec 00 00 00 00 	movl   $0x0,-0x14(%rbp)
   185be:	eb 64                	jmp    18624 <main+0x2767>
   185c0:	8b 45 ec             	mov    -0x14(%rbp),%eax
   185c3:	48 63 c8             	movslq %eax,%rcx
   185c6:	8b 45 e8             	mov    -0x18(%rbp),%eax
   185c9:	48 63 d0             	movslq %eax,%rdx
   185cc:	48 89 d0             	mov    %rdx,%rax
   185cf:	48 c1 e0 03          	shl    $0x3,%rax
   185d3:	48 01 d0             	add    %rdx,%rax
   185d6:	48 01 c8             	add    %rcx,%rax
   185d9:	48 8d 14 85 00 00 00 	lea    0x0(,%rax,4),%rdx
   185e0:	00 
   185e1:	48 8d 05 98 92 00 00 	lea    0x9298(%rip),%rax        # 21880 <g_1695>
   185e8:	8b 04 02             	mov    (%rdx,%rax,1),%eax
   185eb:	89 c1                	mov    %eax,%ecx
   185ed:	8b 45 f4             	mov    -0xc(%rbp),%eax
   185f0:	89 c2                	mov    %eax,%edx
   185f2:	48 8d 35 46 4f 00 00 	lea    0x4f46(%rip),%rsi        # 1d53f <g_2454+0x31c7>
   185f9:	48 89 cf             	mov    %rcx,%rdi
   185fc:	e8 f2 30 ff ff       	callq  b6f3 <transparent_crc>
   18601:	83 7d f4 00          	cmpl   $0x0,-0xc(%rbp)
   18605:	74 19                	je     18620 <main+0x2763>
   18607:	8b 55 ec             	mov    -0x14(%rbp),%edx
   1860a:	8b 45 e8             	mov    -0x18(%rbp),%eax
   1860d:	89 c6                	mov    %eax,%esi
   1860f:	48 8d 3d df 47 00 00 	lea    0x47df(%rip),%rdi        # 1cdf5 <g_2454+0x2a7d>
   18616:	b8 00 00 00 00       	mov    $0x0,%eax
   1861b:	e8 60 1a ff ff       	callq  a080 <printf@plt>
   18620:	83 45 ec 01          	addl   $0x1,-0x14(%rbp)
   18624:	83 7d ec 08          	cmpl   $0x8,-0x14(%rbp)
   18628:	7e 96                	jle    185c0 <main+0x2703>
   1862a:	83 45 e8 01          	addl   $0x1,-0x18(%rbp)
   1862e:	83 7d e8 05          	cmpl   $0x5,-0x18(%rbp)
   18632:	7e 83                	jle    185b7 <main+0x26fa>
   18634:	8b 05 26 93 00 00    	mov    0x9326(%rip),%eax        # 21960 <g_1790>
   1863a:	01 c0                	add    %eax,%eax
   1863c:	d1 f8                	sar    %eax
   1863e:	48 98                	cltq   
   18640:	8b 55 f4             	mov    -0xc(%rbp),%edx
   18643:	48 8d 35 05 4f 00 00 	lea    0x4f05(%rip),%rsi        # 1d54f <g_2454+0x31d7>
   1864a:	48 89 c7             	mov    %rax,%rdi
   1864d:	e8 a1 30 ff ff       	callq  b6f3 <transparent_crc>
   18652:	8b 05 0c 93 00 00    	mov    0x930c(%rip),%eax        # 21964 <g_1790+0x4>
   18658:	25 ff ff 0f 00       	and    $0xfffff,%eax
   1865d:	89 c1                	mov    %eax,%ecx
   1865f:	8b 45 f4             	mov    -0xc(%rbp),%eax
   18662:	89 c2                	mov    %eax,%edx
   18664:	48 8d 35 ee 4e 00 00 	lea    0x4eee(%rip),%rsi        # 1d559 <g_2454+0x31e1>
   1866b:	48 89 cf             	mov    %rcx,%rdi
   1866e:	e8 80 30 ff ff       	callq  b6f3 <transparent_crc>
   18673:	0f b7 05 ec 92 00 00 	movzwl 0x92ec(%rip),%eax        # 21966 <g_1790+0x6>
   1867a:	66 c1 e8 04          	shr    $0x4,%ax
   1867e:	0f b7 c0             	movzwl %ax,%eax
   18681:	8b 55 f4             	mov    -0xc(%rbp),%edx
   18684:	48 8d 35 d8 4e 00 00 	lea    0x4ed8(%rip),%rsi        # 1d563 <g_2454+0x31eb>
   1868b:	48 89 c7             	mov    %rax,%rdi
   1868e:	e8 60 30 ff ff       	callq  b6f3 <transparent_crc>
   18693:	0f b7 05 ce 92 00 00 	movzwl 0x92ce(%rip),%eax        # 21968 <g_1790+0x8>
   1869a:	c1 e0 05             	shl    $0x5,%eax
   1869d:	66 c1 f8 05          	sar    $0x5,%ax
   186a1:	48 0f bf c0          	movswq %ax,%rax
   186a5:	8b 55 f4             	mov    -0xc(%rbp),%edx
   186a8:	48 8d 35 be 4e 00 00 	lea    0x4ebe(%rip),%rsi        # 1d56d <g_2454+0x31f5>
   186af:	48 89 c7             	mov    %rax,%rdi
   186b2:	e8 3c 30 ff ff       	callq  b6f3 <transparent_crc>
   186b7:	8b 05 af 92 00 00    	mov    0x92af(%rip),%eax        # 2196c <g_1790+0xc>
   186bd:	25 ff ff ff 03       	and    $0x3ffffff,%eax
   186c2:	89 c1                	mov    %eax,%ecx
   186c4:	8b 45 f4             	mov    -0xc(%rbp),%eax
   186c7:	89 c2                	mov    %eax,%edx
   186c9:	48 8d 35 a7 4e 00 00 	lea    0x4ea7(%rip),%rsi        # 1d577 <g_2454+0x31ff>
   186d0:	48 89 cf             	mov    %rcx,%rdi
   186d3:	e8 1b 30 ff ff       	callq  b6f3 <transparent_crc>
   186d8:	48 8b 05 91 92 00 00 	mov    0x9291(%rip),%rax        # 21970 <g_1790+0x10>
   186df:	66 25 ff 03          	and    $0x3ff,%ax
   186e3:	0f b7 c0             	movzwl %ax,%eax
   186e6:	8b 55 f4             	mov    -0xc(%rbp),%edx
   186e9:	48 8d 35 91 4e 00 00 	lea    0x4e91(%rip),%rsi        # 1d581 <g_2454+0x3209>
   186f0:	48 89 c7             	mov    %rax,%rdi
   186f3:	e8 fb 2f ff ff       	callq  b6f3 <transparent_crc>
   186f8:	b8 1b 1a 00 00       	mov    $0x1a1b,%eax
   186fd:	48 98                	cltq   
   186ff:	8b 55 f4             	mov    -0xc(%rbp),%edx
   18702:	48 8d 35 82 4e 00 00 	lea    0x4e82(%rip),%rsi        # 1d58b <g_2454+0x3213>
   18709:	48 89 c7             	mov    %rax,%rdi
   1870c:	e8 e2 2f ff ff       	callq  b6f3 <transparent_crc>
   18711:	b8 00 03 00 00       	mov    $0x300,%eax
   18716:	89 c1                	mov    %eax,%ecx
   18718:	8b 45 f4             	mov    -0xc(%rbp),%eax
   1871b:	89 c2                	mov    %eax,%edx
   1871d:	48 8d 35 71 4e 00 00 	lea    0x4e71(%rip),%rsi        # 1d595 <g_2454+0x321d>
   18724:	48 89 cf             	mov    %rcx,%rdi
   18727:	e8 c7 2f ff ff       	callq  b6f3 <transparent_crc>
   1872c:	b8 3f 00 00 00       	mov    $0x3f,%eax
   18731:	0f b7 c0             	movzwl %ax,%eax
   18734:	8b 55 f4             	mov    -0xc(%rbp),%edx
   18737:	48 8d 35 61 4e 00 00 	lea    0x4e61(%rip),%rsi        # 1d59f <g_2454+0x3227>
   1873e:	48 89 c7             	mov    %rax,%rdi
   18741:	e8 ad 2f ff ff       	callq  b6f3 <transparent_crc>
   18746:	b8 d9 ff ff ff       	mov    $0xffffffd9,%eax
   1874b:	48 0f bf c0          	movswq %ax,%rax
   1874f:	8b 55 f4             	mov    -0xc(%rbp),%edx
   18752:	48 8d 35 50 4e 00 00 	lea    0x4e50(%rip),%rsi        # 1d5a9 <g_2454+0x3231>
   18759:	48 89 c7             	mov    %rax,%rdi
   1875c:	e8 92 2f ff ff       	callq  b6f3 <transparent_crc>
   18761:	b8 96 13 00 00       	mov    $0x1396,%eax
   18766:	89 c1                	mov    %eax,%ecx
   18768:	8b 45 f4             	mov    -0xc(%rbp),%eax
   1876b:	89 c2                	mov    %eax,%edx
   1876d:	48 8d 35 3f 4e 00 00 	lea    0x4e3f(%rip),%rsi        # 1d5b3 <g_2454+0x323b>
   18774:	48 89 cf             	mov    %rcx,%rdi
   18777:	e8 77 2f ff ff       	callq  b6f3 <transparent_crc>
   1877c:	48 8b 05 5d 19 00 00 	mov    0x195d(%rip),%rax        # 1a0e0 <g_1819+0x10>
   18783:	66 25 ff 03          	and    $0x3ff,%ax
   18787:	0f b7 c0             	movzwl %ax,%eax
   1878a:	8b 55 f4             	mov    -0xc(%rbp),%edx
   1878d:	48 8d 35 29 4e 00 00 	lea    0x4e29(%rip),%rsi        # 1d5bd <g_2454+0x3245>
   18794:	48 89 c7             	mov    %rax,%rdi
   18797:	e8 57 2f ff ff       	callq  b6f3 <transparent_crc>
   1879c:	8b 05 d2 91 00 00    	mov    0x91d2(%rip),%eax        # 21974 <g_1822>
   187a2:	89 c1                	mov    %eax,%ecx
   187a4:	8b 45 f4             	mov    -0xc(%rbp),%eax
   187a7:	89 c2                	mov    %eax,%edx
   187a9:	48 8d 35 17 4e 00 00 	lea    0x4e17(%rip),%rsi        # 1d5c7 <g_2454+0x324f>
   187b0:	48 89 cf             	mov    %rcx,%rdi
   187b3:	e8 3b 2f ff ff       	callq  b6f3 <transparent_crc>
   187b8:	48 8b 05 c1 91 00 00 	mov    0x91c1(%rip),%rax        # 21980 <g_1881>
   187bf:	01 c0                	add    %eax,%eax
   187c1:	d1 f8                	sar    %eax
   187c3:	48 98                	cltq   
   187c5:	8b 55 f4             	mov    -0xc(%rbp),%edx
   187c8:	48 8d 35 02 4e 00 00 	lea    0x4e02(%rip),%rsi        # 1d5d1 <g_2454+0x3259>
   187cf:	48 89 c7             	mov    %rax,%rdi
   187d2:	e8 1c 2f ff ff       	callq  b6f3 <transparent_crc>
   187d7:	48 8b 05 a2 91 00 00 	mov    0x91a2(%rip),%rax        # 21980 <g_1881>
   187de:	48 c1 e8 20          	shr    $0x20,%rax
   187e2:	25 ff ff 0f 00       	and    $0xfffff,%eax
   187e7:	89 c1                	mov    %eax,%ecx
   187e9:	8b 45 f4             	mov    -0xc(%rbp),%eax
   187ec:	89 c2                	mov    %eax,%edx
   187ee:	48 8d 35 e6 4d 00 00 	lea    0x4de6(%rip),%rsi        # 1d5db <g_2454+0x3263>
   187f5:	48 89 cf             	mov    %rcx,%rdi
   187f8:	e8 f6 2e ff ff       	callq  b6f3 <transparent_crc>
   187fd:	48 8b 05 7c 91 00 00 	mov    0x917c(%rip),%rax        # 21980 <g_1881>
   18804:	48 c1 e8 34          	shr    $0x34,%rax
   18808:	0f b7 c0             	movzwl %ax,%eax
   1880b:	8b 55 f4             	mov    -0xc(%rbp),%edx
   1880e:	48 8d 35 d0 4d 00 00 	lea    0x4dd0(%rip),%rsi        # 1d5e5 <g_2454+0x326d>
   18815:	48 89 c7             	mov    %rax,%rdi
   18818:	e8 d6 2e ff ff       	callq  b6f3 <transparent_crc>
   1881d:	48 8b 05 64 91 00 00 	mov    0x9164(%rip),%rax        # 21988 <g_1881+0x8>
   18824:	c1 e0 05             	shl    $0x5,%eax
   18827:	66 c1 f8 05          	sar    $0x5,%ax
   1882b:	48 0f bf c0          	movswq %ax,%rax
   1882f:	8b 55 f4             	mov    -0xc(%rbp),%edx
   18832:	48 8d 35 b6 4d 00 00 	lea    0x4db6(%rip),%rsi        # 1d5ef <g_2454+0x3277>
   18839:	48 89 c7             	mov    %rax,%rdi
   1883c:	e8 b2 2e ff ff       	callq  b6f3 <transparent_crc>
   18841:	48 8b 05 40 91 00 00 	mov    0x9140(%rip),%rax        # 21988 <g_1881+0x8>
   18848:	48 c1 e8 20          	shr    $0x20,%rax
   1884c:	25 ff ff ff 03       	and    $0x3ffffff,%eax
   18851:	89 c1                	mov    %eax,%ecx
   18853:	8b 45 f4             	mov    -0xc(%rbp),%eax
   18856:	89 c2                	mov    %eax,%edx
   18858:	48 8d 35 9a 4d 00 00 	lea    0x4d9a(%rip),%rsi        # 1d5f9 <g_2454+0x3281>
   1885f:	48 89 cf             	mov    %rcx,%rdi
   18862:	e8 8c 2e ff ff       	callq  b6f3 <transparent_crc>
   18867:	48 8b 05 22 91 00 00 	mov    0x9122(%rip),%rax        # 21990 <g_1881+0x10>
   1886e:	66 25 ff 03          	and    $0x3ff,%ax
   18872:	0f b7 c0             	movzwl %ax,%eax
   18875:	8b 55 f4             	mov    -0xc(%rbp),%edx
   18878:	48 8d 35 84 4d 00 00 	lea    0x4d84(%rip),%rsi        # 1d603 <g_2454+0x328b>
   1887f:	48 89 c7             	mov    %rax,%rdi
   18882:	e8 6c 2e ff ff       	callq  b6f3 <transparent_crc>
   18887:	0f b7 05 06 91 00 00 	movzwl 0x9106(%rip),%eax        # 21994 <g_1940>
   1888e:	0f b7 c0             	movzwl %ax,%eax
   18891:	8b 55 f4             	mov    -0xc(%rbp),%edx
   18894:	48 8d 35 72 4d 00 00 	lea    0x4d72(%rip),%rsi        # 1d60d <g_2454+0x3295>
   1889b:	48 89 c7             	mov    %rax,%rdi
   1889e:	e8 50 2e ff ff       	callq  b6f3 <transparent_crc>
   188a3:	48 8b 05 ee 90 00 00 	mov    0x90ee(%rip),%rax        # 21998 <g_1941>
   188aa:	c1 e0 0f             	shl    $0xf,%eax
   188ad:	c1 f8 0f             	sar    $0xf,%eax
   188b0:	48 98                	cltq   
   188b2:	8b 55 f4             	mov    -0xc(%rbp),%edx
   188b5:	48 8d 35 58 4d 00 00 	lea    0x4d58(%rip),%rsi        # 1d614 <g_2454+0x329c>
   188bc:	48 89 c7             	mov    %rax,%rdi
   188bf:	e8 2f 2e ff ff       	callq  b6f3 <transparent_crc>
   188c4:	48 8b 05 cd 90 00 00 	mov    0x90cd(%rip),%rax        # 21998 <g_1941>
   188cb:	48 c1 e8 11          	shr    $0x11,%rax
   188cf:	83 e0 03             	and    $0x3,%eax
   188d2:	0f b6 c0             	movzbl %al,%eax
   188d5:	8b 55 f4             	mov    -0xc(%rbp),%edx
   188d8:	48 8d 35 3f 4d 00 00 	lea    0x4d3f(%rip),%rsi        # 1d61e <g_2454+0x32a6>
   188df:	48 89 c7             	mov    %rax,%rdi
   188e2:	e8 0c 2e ff ff       	callq  b6f3 <transparent_crc>
   188e7:	48 8b 05 aa 90 00 00 	mov    0x90aa(%rip),%rax        # 21998 <g_1941>
   188ee:	48 c1 e8 13          	shr    $0x13,%rax
   188f2:	25 ff ff ff 0f       	and    $0xfffffff,%eax
   188f7:	89 c1                	mov    %eax,%ecx
   188f9:	8b 45 f4             	mov    -0xc(%rbp),%eax
   188fc:	89 c2                	mov    %eax,%edx
   188fe:	48 8d 35 23 4d 00 00 	lea    0x4d23(%rip),%rsi        # 1d628 <g_2454+0x32b0>
   18905:	48 89 cf             	mov    %rcx,%rdi
   18908:	e8 e6 2d ff ff       	callq  b6f3 <transparent_crc>
   1890d:	48 8b 05 84 90 00 00 	mov    0x9084(%rip),%rax        # 21998 <g_1941>
   18914:	48 c1 e8 2f          	shr    $0x2f,%rax
   18918:	48 89 c2             	mov    %rax,%rdx
   1891b:	48 8b 05 7e 90 00 00 	mov    0x907e(%rip),%rax        # 219a0 <g_1941+0x8>
   18922:	83 e0 7f             	and    $0x7f,%eax
   18925:	48 c1 e0 11          	shl    $0x11,%rax
   18929:	48 09 d0             	or     %rdx,%rax
   1892c:	89 c1                	mov    %eax,%ecx
   1892e:	8b 45 f4             	mov    -0xc(%rbp),%eax
   18931:	89 c2                	mov    %eax,%edx
   18933:	48 8d 35 f8 4c 00 00 	lea    0x4cf8(%rip),%rsi        # 1d632 <g_2454+0x32ba>
   1893a:	48 89 cf             	mov    %rcx,%rdi
   1893d:	e8 b1 2d ff ff       	callq  b6f3 <transparent_crc>
   18942:	48 8b 05 57 90 00 00 	mov    0x9057(%rip),%rax        # 219a0 <g_1941+0x8>
   18949:	c1 e0 02             	shl    $0x2,%eax
   1894c:	66 c1 f8 09          	sar    $0x9,%ax
   18950:	48 0f be c0          	movsbq %al,%rax
   18954:	8b 55 f4             	mov    -0xc(%rbp),%edx
   18957:	48 8d 35 de 4c 00 00 	lea    0x4cde(%rip),%rsi        # 1d63c <g_2454+0x32c4>
   1895e:	48 89 c7             	mov    %rax,%rdi
   18961:	e8 8d 2d ff ff       	callq  b6f3 <transparent_crc>
   18966:	48 8b 05 33 90 00 00 	mov    0x9033(%rip),%rax        # 219a0 <g_1941+0x8>
   1896d:	66 c1 f8 0e          	sar    $0xe,%ax
   18971:	48 0f be c0          	movsbq %al,%rax
   18975:	8b 55 f4             	mov    -0xc(%rbp),%edx
   18978:	48 8d 35 c7 4c 00 00 	lea    0x4cc7(%rip),%rsi        # 1d646 <g_2454+0x32ce>
   1897f:	48 89 c7             	mov    %rax,%rdi
   18982:	e8 6c 2d ff ff       	callq  b6f3 <transparent_crc>
   18987:	8b 05 23 90 00 00    	mov    0x9023(%rip),%eax        # 219b0 <g_1953>
   1898d:	01 c0                	add    %eax,%eax
   1898f:	d1 f8                	sar    %eax
   18991:	48 98                	cltq   
   18993:	8b 55 f4             	mov    -0xc(%rbp),%edx
   18996:	48 8d 35 b3 4c 00 00 	lea    0x4cb3(%rip),%rsi        # 1d650 <g_2454+0x32d8>
   1899d:	48 89 c7             	mov    %rax,%rdi
   189a0:	e8 4e 2d ff ff       	callq  b6f3 <transparent_crc>
   189a5:	8b 05 09 90 00 00    	mov    0x9009(%rip),%eax        # 219b4 <g_1953+0x4>
   189ab:	25 ff ff 0f 00       	and    $0xfffff,%eax
   189b0:	89 c1                	mov    %eax,%ecx
   189b2:	8b 45 f4             	mov    -0xc(%rbp),%eax
   189b5:	89 c2                	mov    %eax,%edx
   189b7:	48 8d 35 9c 4c 00 00 	lea    0x4c9c(%rip),%rsi        # 1d65a <g_2454+0x32e2>
   189be:	48 89 cf             	mov    %rcx,%rdi
   189c1:	e8 2d 2d ff ff       	callq  b6f3 <transparent_crc>
   189c6:	0f b7 05 e9 8f 00 00 	movzwl 0x8fe9(%rip),%eax        # 219b6 <g_1953+0x6>
   189cd:	66 c1 e8 04          	shr    $0x4,%ax
   189d1:	0f b7 c0             	movzwl %ax,%eax
   189d4:	8b 55 f4             	mov    -0xc(%rbp),%edx
   189d7:	48 8d 35 86 4c 00 00 	lea    0x4c86(%rip),%rsi        # 1d664 <g_2454+0x32ec>
   189de:	48 89 c7             	mov    %rax,%rdi
   189e1:	e8 0d 2d ff ff       	callq  b6f3 <transparent_crc>
   189e6:	0f b7 05 cb 8f 00 00 	movzwl 0x8fcb(%rip),%eax        # 219b8 <g_1953+0x8>
   189ed:	c1 e0 05             	shl    $0x5,%eax
   189f0:	66 c1 f8 05          	sar    $0x5,%ax
   189f4:	48 0f bf c0          	movswq %ax,%rax
   189f8:	8b 55 f4             	mov    -0xc(%rbp),%edx
   189fb:	48 8d 35 6c 4c 00 00 	lea    0x4c6c(%rip),%rsi        # 1d66e <g_2454+0x32f6>
   18a02:	48 89 c7             	mov    %rax,%rdi
   18a05:	e8 e9 2c ff ff       	callq  b6f3 <transparent_crc>
   18a0a:	8b 05 ac 8f 00 00    	mov    0x8fac(%rip),%eax        # 219bc <g_1953+0xc>
   18a10:	25 ff ff ff 03       	and    $0x3ffffff,%eax
   18a15:	89 c1                	mov    %eax,%ecx
   18a17:	8b 45 f4             	mov    -0xc(%rbp),%eax
   18a1a:	89 c2                	mov    %eax,%edx
   18a1c:	48 8d 35 55 4c 00 00 	lea    0x4c55(%rip),%rsi        # 1d678 <g_2454+0x3300>
   18a23:	48 89 cf             	mov    %rcx,%rdi
   18a26:	e8 c8 2c ff ff       	callq  b6f3 <transparent_crc>
   18a2b:	48 8b 05 8e 8f 00 00 	mov    0x8f8e(%rip),%rax        # 219c0 <g_1953+0x10>
   18a32:	66 25 ff 03          	and    $0x3ff,%ax
   18a36:	0f b7 c0             	movzwl %ax,%eax
   18a39:	8b 55 f4             	mov    -0xc(%rbp),%edx
   18a3c:	48 8d 35 3f 4c 00 00 	lea    0x4c3f(%rip),%rsi        # 1d682 <g_2454+0x330a>
   18a43:	48 89 c7             	mov    %rax,%rdi
   18a46:	e8 a8 2c ff ff       	callq  b6f3 <transparent_crc>
   18a4b:	8b 05 77 8f 00 00    	mov    0x8f77(%rip),%eax        # 219c8 <g_1985>
   18a51:	c1 e0 0f             	shl    $0xf,%eax
   18a54:	c1 f8 0f             	sar    $0xf,%eax
   18a57:	48 98                	cltq   
   18a59:	8b 55 f4             	mov    -0xc(%rbp),%edx
   18a5c:	48 8d 35 29 4c 00 00 	lea    0x4c29(%rip),%rsi        # 1d68c <g_2454+0x3314>
   18a63:	48 89 c7             	mov    %rax,%rdi
   18a66:	e8 88 2c ff ff       	callq  b6f3 <transparent_crc>
   18a6b:	0f b6 05 58 8f 00 00 	movzbl 0x8f58(%rip),%eax        # 219ca <g_1985+0x2>
   18a72:	d0 e8                	shr    %al
   18a74:	83 e0 03             	and    $0x3,%eax
   18a77:	0f b6 c0             	movzbl %al,%eax
   18a7a:	8b 55 f4             	mov    -0xc(%rbp),%edx
   18a7d:	48 8d 35 12 4c 00 00 	lea    0x4c12(%rip),%rsi        # 1d696 <g_2454+0x331e>
   18a84:	48 89 c7             	mov    %rax,%rdi
   18a87:	e8 67 2c ff ff       	callq  b6f3 <transparent_crc>
   18a8c:	48 8b 05 35 8f 00 00 	mov    0x8f35(%rip),%rax        # 219c8 <g_1985>
   18a93:	48 c1 e8 13          	shr    $0x13,%rax
   18a97:	25 ff ff ff 0f       	and    $0xfffffff,%eax
   18a9c:	89 c1                	mov    %eax,%ecx
   18a9e:	8b 45 f4             	mov    -0xc(%rbp),%eax
   18aa1:	89 c2                	mov    %eax,%edx
   18aa3:	48 8d 35 f6 4b 00 00 	lea    0x4bf6(%rip),%rsi        # 1d6a0 <g_2454+0x3328>
   18aaa:	48 89 cf             	mov    %rcx,%rdi
   18aad:	e8 41 2c ff ff       	callq  b6f3 <transparent_crc>
   18ab2:	8b 05 14 8f 00 00    	mov    0x8f14(%rip),%eax        # 219cc <g_1985+0x4>
   18ab8:	c1 e8 0f             	shr    $0xf,%eax
   18abb:	89 c2                	mov    %eax,%edx
   18abd:	0f b6 05 0c 8f 00 00 	movzbl 0x8f0c(%rip),%eax        # 219d0 <g_1985+0x8>
   18ac4:	83 e0 7f             	and    $0x7f,%eax
   18ac7:	48 c1 e0 11          	shl    $0x11,%rax
   18acb:	48 09 d0             	or     %rdx,%rax
   18ace:	89 c1                	mov    %eax,%ecx
   18ad0:	8b 45 f4             	mov    -0xc(%rbp),%eax
   18ad3:	89 c2                	mov    %eax,%edx
   18ad5:	48 8d 35 ce 4b 00 00 	lea    0x4bce(%rip),%rsi        # 1d6aa <g_2454+0x3332>
   18adc:	48 89 cf             	mov    %rcx,%rdi
   18adf:	e8 0f 2c ff ff       	callq  b6f3 <transparent_crc>
   18ae4:	0f b7 05 e5 8e 00 00 	movzwl 0x8ee5(%rip),%eax        # 219d0 <g_1985+0x8>
   18aeb:	c1 e0 02             	shl    $0x2,%eax
   18aee:	66 c1 f8 09          	sar    $0x9,%ax
   18af2:	48 0f be c0          	movsbq %al,%rax
   18af6:	8b 55 f4             	mov    -0xc(%rbp),%edx
   18af9:	48 8d 35 b4 4b 00 00 	lea    0x4bb4(%rip),%rsi        # 1d6b4 <g_2454+0x333c>
   18b00:	48 89 c7             	mov    %rax,%rdi
   18b03:	e8 eb 2b ff ff       	callq  b6f3 <transparent_crc>
   18b08:	0f b6 05 c2 8e 00 00 	movzbl 0x8ec2(%rip),%eax        # 219d1 <g_1985+0x9>
   18b0f:	c0 f8 06             	sar    $0x6,%al
   18b12:	48 0f be c0          	movsbq %al,%rax
   18b16:	8b 55 f4             	mov    -0xc(%rbp),%edx
   18b19:	48 8d 35 9e 4b 00 00 	lea    0x4b9e(%rip),%rsi        # 1d6be <g_2454+0x3346>
   18b20:	48 89 c7             	mov    %rax,%rdi
   18b23:	e8 cb 2b ff ff       	callq  b6f3 <transparent_crc>
   18b28:	c7 45 e8 00 00 00 00 	movl   $0x0,-0x18(%rbp)
   18b2f:	e9 2e 02 00 00       	jmpq   18d62 <main+0x2ea5>
   18b34:	c7 45 ec 00 00 00 00 	movl   $0x0,-0x14(%rbp)
   18b3b:	e9 14 02 00 00       	jmpq   18d54 <main+0x2e97>
   18b40:	8b 45 ec             	mov    -0x14(%rbp),%eax
   18b43:	48 63 d0             	movslq %eax,%rdx
   18b46:	8b 45 e8             	mov    -0x18(%rbp),%eax
   18b49:	48 63 c8             	movslq %eax,%rcx
   18b4c:	48 89 d0             	mov    %rdx,%rax
   18b4f:	48 c1 e0 02          	shl    $0x2,%rax
   18b53:	48 01 d0             	add    %rdx,%rax
   18b56:	48 01 c0             	add    %rax,%rax
   18b59:	48 6b d1 5a          	imul   $0x5a,%rcx,%rdx
   18b5d:	48 01 c2             	add    %rax,%rdx
   18b60:	48 8d 05 99 15 00 00 	lea    0x1599(%rip),%rax        # 1a100 <g_1989>
   18b67:	48 01 d0             	add    %rdx,%rax
   18b6a:	0f b7 10             	movzwl (%rax),%edx
   18b6d:	0f b6 40 02          	movzbl 0x2(%rax),%eax
   18b71:	83 e0 01             	and    $0x1,%eax
   18b74:	48 c1 e0 10          	shl    $0x10,%rax
   18b78:	48 09 d0             	or     %rdx,%rax
   18b7b:	48 c1 e0 2f          	shl    $0x2f,%rax
   18b7f:	48 c1 f8 2f          	sar    $0x2f,%rax
   18b83:	48 98                	cltq   
   18b85:	8b 55 f4             	mov    -0xc(%rbp),%edx
   18b88:	48 8d 35 39 4b 00 00 	lea    0x4b39(%rip),%rsi        # 1d6c8 <g_2454+0x3350>
   18b8f:	48 89 c7             	mov    %rax,%rdi
   18b92:	e8 5c 2b ff ff       	callq  b6f3 <transparent_crc>
   18b97:	8b 45 ec             	mov    -0x14(%rbp),%eax
   18b9a:	48 63 d0             	movslq %eax,%rdx
   18b9d:	8b 45 e8             	mov    -0x18(%rbp),%eax
   18ba0:	48 63 c8             	movslq %eax,%rcx
   18ba3:	48 89 d0             	mov    %rdx,%rax
   18ba6:	48 c1 e0 02          	shl    $0x2,%rax
   18baa:	48 01 d0             	add    %rdx,%rax
   18bad:	48 01 c0             	add    %rax,%rax
   18bb0:	48 6b d1 5a          	imul   $0x5a,%rcx,%rdx
   18bb4:	48 01 c2             	add    %rax,%rdx
   18bb7:	48 8d 05 42 15 00 00 	lea    0x1542(%rip),%rax        # 1a100 <g_1989>
   18bbe:	48 01 d0             	add    %rdx,%rax
   18bc1:	0f b6 40 02          	movzbl 0x2(%rax),%eax
   18bc5:	d0 e8                	shr    %al
   18bc7:	83 e0 03             	and    $0x3,%eax
   18bca:	0f b6 c0             	movzbl %al,%eax
   18bcd:	8b 55 f4             	mov    -0xc(%rbp),%edx
   18bd0:	48 8d 35 01 4b 00 00 	lea    0x4b01(%rip),%rsi        # 1d6d8 <g_2454+0x3360>
   18bd7:	48 89 c7             	mov    %rax,%rdi
   18bda:	e8 14 2b ff ff       	callq  b6f3 <transparent_crc>
   18bdf:	8b 45 ec             	mov    -0x14(%rbp),%eax
   18be2:	48 63 d0             	movslq %eax,%rdx
   18be5:	8b 45 e8             	mov    -0x18(%rbp),%eax
   18be8:	48 63 c8             	movslq %eax,%rcx
   18beb:	48 89 d0             	mov    %rdx,%rax
   18bee:	48 c1 e0 02          	shl    $0x2,%rax
   18bf2:	48 01 d0             	add    %rdx,%rax
   18bf5:	48 01 c0             	add    %rax,%rax
   18bf8:	48 6b d1 5a          	imul   $0x5a,%rcx,%rdx
   18bfc:	48 01 c2             	add    %rax,%rdx
   18bff:	48 8d 05 fa 14 00 00 	lea    0x14fa(%rip),%rax        # 1a100 <g_1989>
   18c06:	48 01 d0             	add    %rdx,%rax
   18c09:	0f b7 50 02          	movzwl 0x2(%rax),%edx
   18c0d:	66 c1 ea 03          	shr    $0x3,%dx
   18c11:	0f b7 d2             	movzwl %dx,%edx
   18c14:	0f b7 40 04          	movzwl 0x4(%rax),%eax
   18c18:	0f b7 c0             	movzwl %ax,%eax
   18c1b:	25 ff 7f 00 00       	and    $0x7fff,%eax
   18c20:	48 c1 e0 0d          	shl    $0xd,%rax
   18c24:	48 09 d0             	or     %rdx,%rax
   18c27:	89 c1                	mov    %eax,%ecx
   18c29:	8b 45 f4             	mov    -0xc(%rbp),%eax
   18c2c:	89 c2                	mov    %eax,%edx
   18c2e:	48 8d 35 b3 4a 00 00 	lea    0x4ab3(%rip),%rsi        # 1d6e8 <g_2454+0x3370>
   18c35:	48 89 cf             	mov    %rcx,%rdi
   18c38:	e8 b6 2a ff ff       	callq  b6f3 <transparent_crc>
   18c3d:	8b 45 ec             	mov    -0x14(%rbp),%eax
   18c40:	48 63 d0             	movslq %eax,%rdx
   18c43:	8b 45 e8             	mov    -0x18(%rbp),%eax
   18c46:	48 63 c8             	movslq %eax,%rcx
   18c49:	48 89 d0             	mov    %rdx,%rax
   18c4c:	48 c1 e0 02          	shl    $0x2,%rax
   18c50:	48 01 d0             	add    %rdx,%rax
   18c53:	48 01 c0             	add    %rax,%rax
   18c56:	48 6b d1 5a          	imul   $0x5a,%rcx,%rdx
   18c5a:	48 01 c2             	add    %rax,%rdx
   18c5d:	48 8d 05 9c 14 00 00 	lea    0x149c(%rip),%rax        # 1a100 <g_1989>
   18c64:	48 01 d0             	add    %rdx,%rax
   18c67:	0f b6 50 05          	movzbl 0x5(%rax),%edx
   18c6b:	c0 ea 07             	shr    $0x7,%dl
   18c6e:	0f b6 d2             	movzbl %dl,%edx
   18c71:	0f b7 48 06          	movzwl 0x6(%rax),%ecx
   18c75:	48 01 c9             	add    %rcx,%rcx
   18c78:	48 09 ca             	or     %rcx,%rdx
   18c7b:	0f b6 40 08          	movzbl 0x8(%rax),%eax
   18c7f:	83 e0 7f             	and    $0x7f,%eax
   18c82:	48 c1 e0 11          	shl    $0x11,%rax
   18c86:	48 09 d0             	or     %rdx,%rax
   18c89:	89 c1                	mov    %eax,%ecx
   18c8b:	8b 45 f4             	mov    -0xc(%rbp),%eax
   18c8e:	89 c2                	mov    %eax,%edx
   18c90:	48 8d 35 61 4a 00 00 	lea    0x4a61(%rip),%rsi        # 1d6f8 <g_2454+0x3380>
   18c97:	48 89 cf             	mov    %rcx,%rdi
   18c9a:	e8 54 2a ff ff       	callq  b6f3 <transparent_crc>
   18c9f:	8b 45 ec             	mov    -0x14(%rbp),%eax
   18ca2:	48 63 d0             	movslq %eax,%rdx
   18ca5:	8b 45 e8             	mov    -0x18(%rbp),%eax
   18ca8:	48 63 c8             	movslq %eax,%rcx
   18cab:	48 89 d0             	mov    %rdx,%rax
   18cae:	48 c1 e0 02          	shl    $0x2,%rax
   18cb2:	48 01 d0             	add    %rdx,%rax
   18cb5:	48 01 c0             	add    %rax,%rax
   18cb8:	48 6b d1 5a          	imul   $0x5a,%rcx,%rdx
   18cbc:	48 01 c2             	add    %rax,%rdx
   18cbf:	48 8d 05 3a 14 00 00 	lea    0x143a(%rip),%rax        # 1a100 <g_1989>
   18cc6:	48 01 d0             	add    %rdx,%rax
   18cc9:	0f b7 40 08          	movzwl 0x8(%rax),%eax
   18ccd:	c1 e0 02             	shl    $0x2,%eax
   18cd0:	66 c1 f8 09          	sar    $0x9,%ax
   18cd4:	48 0f be c0          	movsbq %al,%rax
   18cd8:	8b 55 f4             	mov    -0xc(%rbp),%edx
   18cdb:	48 8d 35 26 4a 00 00 	lea    0x4a26(%rip),%rsi        # 1d708 <g_2454+0x3390>
   18ce2:	48 89 c7             	mov    %rax,%rdi
   18ce5:	e8 09 2a ff ff       	callq  b6f3 <transparent_crc>
   18cea:	8b 45 ec             	mov    -0x14(%rbp),%eax
   18ced:	48 63 d0             	movslq %eax,%rdx
   18cf0:	8b 45 e8             	mov    -0x18(%rbp),%eax
   18cf3:	48 63 c8             	movslq %eax,%rcx
   18cf6:	48 89 d0             	mov    %rdx,%rax
   18cf9:	48 c1 e0 02          	shl    $0x2,%rax
   18cfd:	48 01 d0             	add    %rdx,%rax
   18d00:	48 01 c0             	add    %rax,%rax
   18d03:	48 6b d1 5a          	imul   $0x5a,%rcx,%rdx
   18d07:	48 01 c2             	add    %rax,%rdx
   18d0a:	48 8d 05 ef 13 00 00 	lea    0x13ef(%rip),%rax        # 1a100 <g_1989>
   18d11:	48 01 d0             	add    %rdx,%rax
   18d14:	0f b6 40 09          	movzbl 0x9(%rax),%eax
   18d18:	c0 f8 06             	sar    $0x6,%al
   18d1b:	48 0f be c0          	movsbq %al,%rax
   18d1f:	8b 55 f4             	mov    -0xc(%rbp),%edx
   18d22:	48 8d 35 ef 49 00 00 	lea    0x49ef(%rip),%rsi        # 1d718 <g_2454+0x33a0>
   18d29:	48 89 c7             	mov    %rax,%rdi
   18d2c:	e8 c2 29 ff ff       	callq  b6f3 <transparent_crc>
   18d31:	83 7d f4 00          	cmpl   $0x0,-0xc(%rbp)
   18d35:	74 19                	je     18d50 <main+0x2e93>
   18d37:	8b 55 ec             	mov    -0x14(%rbp),%edx
   18d3a:	8b 45 e8             	mov    -0x18(%rbp),%eax
   18d3d:	89 c6                	mov    %eax,%esi
   18d3f:	48 8d 3d af 40 00 00 	lea    0x40af(%rip),%rdi        # 1cdf5 <g_2454+0x2a7d>
   18d46:	b8 00 00 00 00       	mov    $0x0,%eax
   18d4b:	e8 30 13 ff ff       	callq  a080 <printf@plt>
   18d50:	83 45 ec 01          	addl   $0x1,-0x14(%rbp)
   18d54:	83 7d ec 08          	cmpl   $0x8,-0x14(%rbp)
   18d58:	0f 8e e2 fd ff ff    	jle    18b40 <main+0x2c83>
   18d5e:	83 45 e8 01          	addl   $0x1,-0x18(%rbp)
   18d62:	83 7d e8 06          	cmpl   $0x6,-0x18(%rbp)
   18d66:	0f 8e c8 fd ff ff    	jle    18b34 <main+0x2c77>
   18d6c:	48 8b 05 6d 8c 00 00 	mov    0x8c6d(%rip),%rax        # 219e0 <g_2012>
   18d73:	01 c0                	add    %eax,%eax
   18d75:	d1 f8                	sar    %eax
   18d77:	48 98                	cltq   
   18d79:	8b 55 f4             	mov    -0xc(%rbp),%edx
   18d7c:	48 8d 35 a5 49 00 00 	lea    0x49a5(%rip),%rsi        # 1d728 <g_2454+0x33b0>
   18d83:	48 89 c7             	mov    %rax,%rdi
   18d86:	e8 68 29 ff ff       	callq  b6f3 <transparent_crc>
   18d8b:	48 8b 05 4e 8c 00 00 	mov    0x8c4e(%rip),%rax        # 219e0 <g_2012>
   18d92:	48 c1 e8 20          	shr    $0x20,%rax
   18d96:	25 ff ff 0f 00       	and    $0xfffff,%eax
   18d9b:	89 c1                	mov    %eax,%ecx
   18d9d:	8b 45 f4             	mov    -0xc(%rbp),%eax
   18da0:	89 c2                	mov    %eax,%edx
   18da2:	48 8d 35 89 49 00 00 	lea    0x4989(%rip),%rsi        # 1d732 <g_2454+0x33ba>
   18da9:	48 89 cf             	mov    %rcx,%rdi
   18dac:	e8 42 29 ff ff       	callq  b6f3 <transparent_crc>
   18db1:	48 8b 05 28 8c 00 00 	mov    0x8c28(%rip),%rax        # 219e0 <g_2012>
   18db8:	48 c1 e8 34          	shr    $0x34,%rax
   18dbc:	0f b7 c0             	movzwl %ax,%eax
   18dbf:	8b 55 f4             	mov    -0xc(%rbp),%edx
   18dc2:	48 8d 35 73 49 00 00 	lea    0x4973(%rip),%rsi        # 1d73c <g_2454+0x33c4>
   18dc9:	48 89 c7             	mov    %rax,%rdi
   18dcc:	e8 22 29 ff ff       	callq  b6f3 <transparent_crc>
   18dd1:	48 8b 05 10 8c 00 00 	mov    0x8c10(%rip),%rax        # 219e8 <g_2012+0x8>
   18dd8:	c1 e0 05             	shl    $0x5,%eax
   18ddb:	66 c1 f8 05          	sar    $0x5,%ax
   18ddf:	48 0f bf c0          	movswq %ax,%rax
   18de3:	8b 55 f4             	mov    -0xc(%rbp),%edx
   18de6:	48 8d 35 59 49 00 00 	lea    0x4959(%rip),%rsi        # 1d746 <g_2454+0x33ce>
   18ded:	48 89 c7             	mov    %rax,%rdi
   18df0:	e8 fe 28 ff ff       	callq  b6f3 <transparent_crc>
   18df5:	48 8b 05 ec 8b 00 00 	mov    0x8bec(%rip),%rax        # 219e8 <g_2012+0x8>
   18dfc:	48 c1 e8 20          	shr    $0x20,%rax
   18e00:	25 ff ff ff 03       	and    $0x3ffffff,%eax
   18e05:	89 c1                	mov    %eax,%ecx
   18e07:	8b 45 f4             	mov    -0xc(%rbp),%eax
   18e0a:	89 c2                	mov    %eax,%edx
   18e0c:	48 8d 35 3d 49 00 00 	lea    0x493d(%rip),%rsi        # 1d750 <g_2454+0x33d8>
   18e13:	48 89 cf             	mov    %rcx,%rdi
   18e16:	e8 d8 28 ff ff       	callq  b6f3 <transparent_crc>
   18e1b:	48 8b 05 ce 8b 00 00 	mov    0x8bce(%rip),%rax        # 219f0 <g_2012+0x10>
   18e22:	66 25 ff 03          	and    $0x3ff,%ax
   18e26:	0f b7 c0             	movzwl %ax,%eax
   18e29:	8b 55 f4             	mov    -0xc(%rbp),%edx
   18e2c:	48 8d 35 27 49 00 00 	lea    0x4927(%rip),%rsi        # 1d75a <g_2454+0x33e2>
   18e33:	48 89 c7             	mov    %rax,%rdi
   18e36:	e8 b8 28 ff ff       	callq  b6f3 <transparent_crc>
   18e3b:	8b 05 b3 8b 00 00    	mov    0x8bb3(%rip),%eax        # 219f4 <g_2021>
   18e41:	89 c1                	mov    %eax,%ecx
   18e43:	8b 45 f4             	mov    -0xc(%rbp),%eax
   18e46:	89 c2                	mov    %eax,%edx
   18e48:	48 8d 35 15 49 00 00 	lea    0x4915(%rip),%rsi        # 1d764 <g_2454+0x33ec>
   18e4f:	48 89 cf             	mov    %rcx,%rdi
   18e52:	e8 9c 28 ff ff       	callq  b6f3 <transparent_crc>
   18e57:	48 8b 05 a2 8b 00 00 	mov    0x8ba2(%rip),%rax        # 21a00 <g_2022>
   18e5e:	01 c0                	add    %eax,%eax
   18e60:	d1 f8                	sar    %eax
   18e62:	48 98                	cltq   
   18e64:	8b 55 f4             	mov    -0xc(%rbp),%edx
   18e67:	48 8d 35 00 49 00 00 	lea    0x4900(%rip),%rsi        # 1d76e <g_2454+0x33f6>
   18e6e:	48 89 c7             	mov    %rax,%rdi
   18e71:	e8 7d 28 ff ff       	callq  b6f3 <transparent_crc>
   18e76:	48 8b 05 83 8b 00 00 	mov    0x8b83(%rip),%rax        # 21a00 <g_2022>
   18e7d:	48 c1 e8 20          	shr    $0x20,%rax
   18e81:	25 ff ff 0f 00       	and    $0xfffff,%eax
   18e86:	89 c1                	mov    %eax,%ecx
   18e88:	8b 45 f4             	mov    -0xc(%rbp),%eax
   18e8b:	89 c2                	mov    %eax,%edx
   18e8d:	48 8d 35 e4 48 00 00 	lea    0x48e4(%rip),%rsi        # 1d778 <g_2454+0x3400>
   18e94:	48 89 cf             	mov    %rcx,%rdi
   18e97:	e8 57 28 ff ff       	callq  b6f3 <transparent_crc>
   18e9c:	48 8b 05 5d 8b 00 00 	mov    0x8b5d(%rip),%rax        # 21a00 <g_2022>
   18ea3:	48 c1 e8 34          	shr    $0x34,%rax
   18ea7:	0f b7 c0             	movzwl %ax,%eax
   18eaa:	8b 55 f4             	mov    -0xc(%rbp),%edx
   18ead:	48 8d 35 ce 48 00 00 	lea    0x48ce(%rip),%rsi        # 1d782 <g_2454+0x340a>
   18eb4:	48 89 c7             	mov    %rax,%rdi
   18eb7:	e8 37 28 ff ff       	callq  b6f3 <transparent_crc>
   18ebc:	48 8b 05 45 8b 00 00 	mov    0x8b45(%rip),%rax        # 21a08 <g_2022+0x8>
   18ec3:	c1 e0 05             	shl    $0x5,%eax
   18ec6:	66 c1 f8 05          	sar    $0x5,%ax
   18eca:	48 0f bf c0          	movswq %ax,%rax
   18ece:	8b 55 f4             	mov    -0xc(%rbp),%edx
   18ed1:	48 8d 35 b4 48 00 00 	lea    0x48b4(%rip),%rsi        # 1d78c <g_2454+0x3414>
   18ed8:	48 89 c7             	mov    %rax,%rdi
   18edb:	e8 13 28 ff ff       	callq  b6f3 <transparent_crc>
   18ee0:	48 8b 05 21 8b 00 00 	mov    0x8b21(%rip),%rax        # 21a08 <g_2022+0x8>
   18ee7:	48 c1 e8 20          	shr    $0x20,%rax
   18eeb:	25 ff ff ff 03       	and    $0x3ffffff,%eax
   18ef0:	89 c1                	mov    %eax,%ecx
   18ef2:	8b 45 f4             	mov    -0xc(%rbp),%eax
   18ef5:	89 c2                	mov    %eax,%edx
   18ef7:	48 8d 35 98 48 00 00 	lea    0x4898(%rip),%rsi        # 1d796 <g_2454+0x341e>
   18efe:	48 89 cf             	mov    %rcx,%rdi
   18f01:	e8 ed 27 ff ff       	callq  b6f3 <transparent_crc>
   18f06:	48 8b 05 03 8b 00 00 	mov    0x8b03(%rip),%rax        # 21a10 <g_2022+0x10>
   18f0d:	66 25 ff 03          	and    $0x3ff,%ax
   18f11:	0f b7 c0             	movzwl %ax,%eax
   18f14:	8b 55 f4             	mov    -0xc(%rbp),%edx
   18f17:	48 8d 35 82 48 00 00 	lea    0x4882(%rip),%rsi        # 1d7a0 <g_2454+0x3428>
   18f1e:	48 89 c7             	mov    %rax,%rdi
   18f21:	e8 cd 27 ff ff       	callq  b6f3 <transparent_crc>
   18f26:	8b 05 3c d3 00 00    	mov    0xd33c(%rip),%eax        # 26268 <g_2036>
   18f2c:	89 c1                	mov    %eax,%ecx
   18f2e:	8b 45 f4             	mov    -0xc(%rbp),%eax
   18f31:	89 c2                	mov    %eax,%edx
   18f33:	48 8d 35 70 48 00 00 	lea    0x4870(%rip),%rsi        # 1d7aa <g_2454+0x3432>
   18f3a:	48 89 cf             	mov    %rcx,%rdi
   18f3d:	e8 b1 27 ff ff       	callq  b6f3 <transparent_crc>
   18f42:	8b 05 cc 8a 00 00    	mov    0x8acc(%rip),%eax        # 21a14 <g_2039>
   18f48:	89 c1                	mov    %eax,%ecx
   18f4a:	8b 45 f4             	mov    -0xc(%rbp),%eax
   18f4d:	89 c2                	mov    %eax,%edx
   18f4f:	48 8d 35 5e 48 00 00 	lea    0x485e(%rip),%rsi        # 1d7b4 <g_2454+0x343c>
   18f56:	48 89 cf             	mov    %rcx,%rdi
   18f59:	e8 95 27 ff ff       	callq  b6f3 <transparent_crc>
   18f5e:	c7 45 e8 00 00 00 00 	movl   $0x0,-0x18(%rbp)
   18f65:	eb 4d                	jmp    18fb4 <main+0x30f7>
   18f67:	8b 45 e8             	mov    -0x18(%rbp),%eax
   18f6a:	48 98                	cltq   
   18f6c:	48 8d 14 85 00 00 00 	lea    0x0(,%rax,4),%rdx
   18f73:	00 
   18f74:	48 8d 05 a5 8a 00 00 	lea    0x8aa5(%rip),%rax        # 21a20 <g_2128>
   18f7b:	8b 04 02             	mov    (%rdx,%rax,1),%eax
   18f7e:	89 c1                	mov    %eax,%ecx
   18f80:	8b 45 f4             	mov    -0xc(%rbp),%eax
   18f83:	89 c2                	mov    %eax,%edx
   18f85:	48 8d 35 32 48 00 00 	lea    0x4832(%rip),%rsi        # 1d7be <g_2454+0x3446>
   18f8c:	48 89 cf             	mov    %rcx,%rdi
   18f8f:	e8 5f 27 ff ff       	callq  b6f3 <transparent_crc>
   18f94:	83 7d f4 00          	cmpl   $0x0,-0xc(%rbp)
   18f98:	74 16                	je     18fb0 <main+0x30f3>
   18f9a:	8b 45 e8             	mov    -0x18(%rbp),%eax
   18f9d:	89 c6                	mov    %eax,%esi
   18f9f:	48 8d 3d cc 3c 00 00 	lea    0x3ccc(%rip),%rdi        # 1cc72 <g_2454+0x28fa>
   18fa6:	b8 00 00 00 00       	mov    $0x0,%eax
   18fab:	e8 d0 10 ff ff       	callq  a080 <printf@plt>
   18fb0:	83 45 e8 01          	addl   $0x1,-0x18(%rbp)
   18fb4:	83 7d e8 03          	cmpl   $0x3,-0x18(%rbp)
   18fb8:	7e ad                	jle    18f67 <main+0x30aa>
   18fba:	c7 45 e8 00 00 00 00 	movl   $0x0,-0x18(%rbp)
   18fc1:	e9 ef 02 00 00       	jmpq   192b5 <main+0x33f8>
   18fc6:	c7 45 ec 00 00 00 00 	movl   $0x0,-0x14(%rbp)
   18fcd:	e9 d5 02 00 00       	jmpq   192a7 <main+0x33ea>
   18fd2:	c7 45 f0 00 00 00 00 	movl   $0x0,-0x10(%rbp)
   18fd9:	e9 bb 02 00 00       	jmpq   19299 <main+0x33dc>
   18fde:	8b 45 f0             	mov    -0x10(%rbp),%eax
   18fe1:	48 98                	cltq   
   18fe3:	8b 55 ec             	mov    -0x14(%rbp),%edx
   18fe6:	48 63 f2             	movslq %edx,%rsi
   18fe9:	8b 55 e8             	mov    -0x18(%rbp),%edx
   18fec:	48 63 ca             	movslq %edx,%rcx
   18fef:	48 89 c2             	mov    %rax,%rdx
   18ff2:	48 c1 e2 02          	shl    $0x2,%rdx
   18ff6:	48 01 c2             	add    %rax,%rdx
   18ff9:	48 8d 04 95 00 00 00 	lea    0x0(,%rdx,4),%rax
   19000:	00 
   19001:	48 89 c2             	mov    %rax,%rdx
   19004:	48 89 f0             	mov    %rsi,%rax
   19007:	48 c1 e0 02          	shl    $0x2,%rax
   1900b:	48 01 f0             	add    %rsi,%rax
   1900e:	48 c1 e0 04          	shl    $0x4,%rax
   19012:	48 01 c2             	add    %rax,%rdx
   19015:	48 89 c8             	mov    %rcx,%rax
   19018:	48 c1 e0 04          	shl    $0x4,%rax
   1901c:	48 29 c8             	sub    %rcx,%rax
   1901f:	48 c1 e0 04          	shl    $0x4,%rax
   19023:	48 01 c2             	add    %rax,%rdx
   19026:	48 8d 05 13 8a 00 00 	lea    0x8a13(%rip),%rax        # 21a40 <g_2136>
   1902d:	48 01 d0             	add    %rdx,%rax
   19030:	8b 00                	mov    (%rax),%eax
   19032:	01 c0                	add    %eax,%eax
   19034:	d1 f8                	sar    %eax
   19036:	48 98                	cltq   
   19038:	8b 55 f4             	mov    -0xc(%rbp),%edx
   1903b:	48 8d 35 89 47 00 00 	lea    0x4789(%rip),%rsi        # 1d7cb <g_2454+0x3453>
   19042:	48 89 c7             	mov    %rax,%rdi
   19045:	e8 a9 26 ff ff       	callq  b6f3 <transparent_crc>
   1904a:	8b 45 f0             	mov    -0x10(%rbp),%eax
   1904d:	48 98                	cltq   
   1904f:	8b 55 ec             	mov    -0x14(%rbp),%edx
   19052:	48 63 f2             	movslq %edx,%rsi
   19055:	8b 55 e8             	mov    -0x18(%rbp),%edx
   19058:	48 63 ca             	movslq %edx,%rcx
   1905b:	48 89 c2             	mov    %rax,%rdx
   1905e:	48 c1 e2 02          	shl    $0x2,%rdx
   19062:	48 01 c2             	add    %rax,%rdx
   19065:	48 8d 04 95 00 00 00 	lea    0x0(,%rdx,4),%rax
   1906c:	00 
   1906d:	48 89 c2             	mov    %rax,%rdx
   19070:	48 89 f0             	mov    %rsi,%rax
   19073:	48 c1 e0 02          	shl    $0x2,%rax
   19077:	48 01 f0             	add    %rsi,%rax
   1907a:	48 c1 e0 04          	shl    $0x4,%rax
   1907e:	48 01 c2             	add    %rax,%rdx
   19081:	48 89 c8             	mov    %rcx,%rax
   19084:	48 c1 e0 04          	shl    $0x4,%rax
   19088:	48 29 c8             	sub    %rcx,%rax
   1908b:	48 c1 e0 04          	shl    $0x4,%rax
   1908f:	48 01 c2             	add    %rax,%rdx
   19092:	48 8d 05 a7 89 00 00 	lea    0x89a7(%rip),%rax        # 21a40 <g_2136>
   19099:	48 01 d0             	add    %rdx,%rax
   1909c:	8b 40 04             	mov    0x4(%rax),%eax
   1909f:	25 ff ff 0f 00       	and    $0xfffff,%eax
   190a4:	89 c1                	mov    %eax,%ecx
   190a6:	8b 45 f4             	mov    -0xc(%rbp),%eax
   190a9:	89 c2                	mov    %eax,%edx
   190ab:	48 8d 35 2c 47 00 00 	lea    0x472c(%rip),%rsi        # 1d7de <g_2454+0x3466>
   190b2:	48 89 cf             	mov    %rcx,%rdi
   190b5:	e8 39 26 ff ff       	callq  b6f3 <transparent_crc>
   190ba:	8b 45 f0             	mov    -0x10(%rbp),%eax
   190bd:	48 98                	cltq   
   190bf:	8b 55 ec             	mov    -0x14(%rbp),%edx
   190c2:	48 63 f2             	movslq %edx,%rsi
   190c5:	8b 55 e8             	mov    -0x18(%rbp),%edx
   190c8:	48 63 ca             	movslq %edx,%rcx
   190cb:	48 89 c2             	mov    %rax,%rdx
   190ce:	48 c1 e2 02          	shl    $0x2,%rdx
   190d2:	48 01 c2             	add    %rax,%rdx
   190d5:	48 8d 04 95 00 00 00 	lea    0x0(,%rdx,4),%rax
   190dc:	00 
   190dd:	48 89 c2             	mov    %rax,%rdx
   190e0:	48 89 f0             	mov    %rsi,%rax
   190e3:	48 c1 e0 02          	shl    $0x2,%rax
   190e7:	48 01 f0             	add    %rsi,%rax
   190ea:	48 c1 e0 04          	shl    $0x4,%rax
   190ee:	48 01 c2             	add    %rax,%rdx
   190f1:	48 89 c8             	mov    %rcx,%rax
   190f4:	48 c1 e0 04          	shl    $0x4,%rax
   190f8:	48 29 c8             	sub    %rcx,%rax
   190fb:	48 c1 e0 04          	shl    $0x4,%rax
   190ff:	48 01 c2             	add    %rax,%rdx
   19102:	48 8d 05 37 89 00 00 	lea    0x8937(%rip),%rax        # 21a40 <g_2136>
   19109:	48 01 d0             	add    %rdx,%rax
   1910c:	0f b7 40 06          	movzwl 0x6(%rax),%eax
   19110:	66 c1 e8 04          	shr    $0x4,%ax
   19114:	0f b7 c0             	movzwl %ax,%eax
   19117:	8b 55 f4             	mov    -0xc(%rbp),%edx
   1911a:	48 8d 35 d0 46 00 00 	lea    0x46d0(%rip),%rsi        # 1d7f1 <g_2454+0x3479>
   19121:	48 89 c7             	mov    %rax,%rdi
   19124:	e8 ca 25 ff ff       	callq  b6f3 <transparent_crc>
   19129:	8b 45 f0             	mov    -0x10(%rbp),%eax
   1912c:	48 98                	cltq   
   1912e:	8b 55 ec             	mov    -0x14(%rbp),%edx
   19131:	48 63 f2             	movslq %edx,%rsi
   19134:	8b 55 e8             	mov    -0x18(%rbp),%edx
   19137:	48 63 ca             	movslq %edx,%rcx
   1913a:	48 89 c2             	mov    %rax,%rdx
   1913d:	48 c1 e2 02          	shl    $0x2,%rdx
   19141:	48 01 c2             	add    %rax,%rdx
   19144:	48 8d 04 95 00 00 00 	lea    0x0(,%rdx,4),%rax
   1914b:	00 
   1914c:	48 89 c2             	mov    %rax,%rdx
   1914f:	48 89 f0             	mov    %rsi,%rax
   19152:	48 c1 e0 02          	shl    $0x2,%rax
   19156:	48 01 f0             	add    %rsi,%rax
   19159:	48 c1 e0 04          	shl    $0x4,%rax
   1915d:	48 01 c2             	add    %rax,%rdx
   19160:	48 89 c8             	mov    %rcx,%rax
   19163:	48 c1 e0 04          	shl    $0x4,%rax
   19167:	48 29 c8             	sub    %rcx,%rax
   1916a:	48 c1 e0 04          	shl    $0x4,%rax
   1916e:	48 01 c2             	add    %rax,%rdx
   19171:	48 8d 05 c8 88 00 00 	lea    0x88c8(%rip),%rax        # 21a40 <g_2136>
   19178:	48 01 d0             	add    %rdx,%rax
   1917b:	0f b7 40 08          	movzwl 0x8(%rax),%eax
   1917f:	c1 e0 05             	shl    $0x5,%eax
   19182:	66 c1 f8 05          	sar    $0x5,%ax
   19186:	48 0f bf c0          	movswq %ax,%rax
   1918a:	8b 55 f4             	mov    -0xc(%rbp),%edx
   1918d:	48 8d 35 70 46 00 00 	lea    0x4670(%rip),%rsi        # 1d804 <g_2454+0x348c>
   19194:	48 89 c7             	mov    %rax,%rdi
   19197:	e8 57 25 ff ff       	callq  b6f3 <transparent_crc>
   1919c:	8b 45 f0             	mov    -0x10(%rbp),%eax
   1919f:	48 98                	cltq   
   191a1:	8b 55 ec             	mov    -0x14(%rbp),%edx
   191a4:	48 63 f2             	movslq %edx,%rsi
   191a7:	8b 55 e8             	mov    -0x18(%rbp),%edx
   191aa:	48 63 ca             	movslq %edx,%rcx
   191ad:	48 89 c2             	mov    %rax,%rdx
   191b0:	48 c1 e2 02          	shl    $0x2,%rdx
   191b4:	48 01 c2             	add    %rax,%rdx
   191b7:	48 8d 04 95 00 00 00 	lea    0x0(,%rdx,4),%rax
   191be:	00 
   191bf:	48 89 c2             	mov    %rax,%rdx
   191c2:	48 89 f0             	mov    %rsi,%rax
   191c5:	48 c1 e0 02          	shl    $0x2,%rax
   191c9:	48 01 f0             	add    %rsi,%rax
   191cc:	48 c1 e0 04          	shl    $0x4,%rax
   191d0:	48 01 c2             	add    %rax,%rdx
   191d3:	48 89 c8             	mov    %rcx,%rax
   191d6:	48 c1 e0 04          	shl    $0x4,%rax
   191da:	48 29 c8             	sub    %rcx,%rax
   191dd:	48 c1 e0 04          	shl    $0x4,%rax
   191e1:	48 01 c2             	add    %rax,%rdx
   191e4:	48 8d 05 55 88 00 00 	lea    0x8855(%rip),%rax        # 21a40 <g_2136>
   191eb:	48 01 d0             	add    %rdx,%rax
   191ee:	8b 40 0c             	mov    0xc(%rax),%eax
   191f1:	25 ff ff ff 03       	and    $0x3ffffff,%eax
   191f6:	89 c1                	mov    %eax,%ecx
   191f8:	8b 45 f4             	mov    -0xc(%rbp),%eax
   191fb:	89 c2                	mov    %eax,%edx
   191fd:	48 8d 35 13 46 00 00 	lea    0x4613(%rip),%rsi        # 1d817 <g_2454+0x349f>
   19204:	48 89 cf             	mov    %rcx,%rdi
   19207:	e8 e7 24 ff ff       	callq  b6f3 <transparent_crc>
   1920c:	8b 45 f0             	mov    -0x10(%rbp),%eax
   1920f:	48 63 d0             	movslq %eax,%rdx
   19212:	8b 45 ec             	mov    -0x14(%rbp),%eax
   19215:	48 63 c8             	movslq %eax,%rcx
   19218:	8b 45 e8             	mov    -0x18(%rbp),%eax
   1921b:	48 63 f0             	movslq %eax,%rsi
   1921e:	48 89 d0             	mov    %rdx,%rax
   19221:	48 c1 e0 02          	shl    $0x2,%rax
   19225:	48 01 d0             	add    %rdx,%rax
   19228:	48 c1 e0 02          	shl    $0x2,%rax
   1922c:	48 89 f2             	mov    %rsi,%rdx
   1922f:	48 c1 e2 04          	shl    $0x4,%rdx
   19233:	48 29 f2             	sub    %rsi,%rdx
   19236:	48 c1 e2 04          	shl    $0x4,%rdx
   1923a:	48 01 c2             	add    %rax,%rdx
   1923d:	48 89 c8             	mov    %rcx,%rax
   19240:	48 c1 e0 02          	shl    $0x2,%rax
   19244:	48 01 c8             	add    %rcx,%rax
   19247:	48 c1 e0 04          	shl    $0x4,%rax
   1924b:	48 01 c2             	add    %rax,%rdx
   1924e:	48 8d 05 fb 87 00 00 	lea    0x87fb(%rip),%rax        # 21a50 <g_2136+0x10>
   19255:	48 01 d0             	add    %rdx,%rax
   19258:	8b 00                	mov    (%rax),%eax
   1925a:	66 25 ff 03          	and    $0x3ff,%ax
   1925e:	0f b7 c0             	movzwl %ax,%eax
   19261:	8b 55 f4             	mov    -0xc(%rbp),%edx
   19264:	48 8d 35 bf 45 00 00 	lea    0x45bf(%rip),%rsi        # 1d82a <g_2454+0x34b2>
   1926b:	48 89 c7             	mov    %rax,%rdi
   1926e:	e8 80 24 ff ff       	callq  b6f3 <transparent_crc>
   19273:	83 7d f4 00          	cmpl   $0x0,-0xc(%rbp)
   19277:	74 1c                	je     19295 <main+0x33d8>
   19279:	8b 4d f0             	mov    -0x10(%rbp),%ecx
   1927c:	8b 55 ec             	mov    -0x14(%rbp),%edx
   1927f:	8b 45 e8             	mov    -0x18(%rbp),%eax
   19282:	89 c6                	mov    %eax,%esi
   19284:	48 8d 3d 85 3a 00 00 	lea    0x3a85(%rip),%rdi        # 1cd10 <g_2454+0x2998>
   1928b:	b8 00 00 00 00       	mov    $0x0,%eax
   19290:	e8 eb 0d ff ff       	callq  a080 <printf@plt>
   19295:	83 45 f0 01          	addl   $0x1,-0x10(%rbp)
   19299:	83 7d f0 03          	cmpl   $0x3,-0x10(%rbp)
   1929d:	0f 8e 3b fd ff ff    	jle    18fde <main+0x3121>
   192a3:	83 45 ec 01          	addl   $0x1,-0x14(%rbp)
   192a7:	83 7d ec 02          	cmpl   $0x2,-0x14(%rbp)
   192ab:	0f 8e 21 fd ff ff    	jle    18fd2 <main+0x3115>
   192b1:	83 45 e8 01          	addl   $0x1,-0x18(%rbp)
   192b5:	83 7d e8 06          	cmpl   $0x6,-0x18(%rbp)
   192b9:	0f 8e 07 fd ff ff    	jle    18fc6 <main+0x3109>
   192bf:	c7 45 e8 00 00 00 00 	movl   $0x0,-0x18(%rbp)
   192c6:	e9 89 01 00 00       	jmpq   19454 <main+0x3597>
   192cb:	8b 45 e8             	mov    -0x18(%rbp),%eax
   192ce:	48 63 d0             	movslq %eax,%rdx
   192d1:	48 89 d0             	mov    %rdx,%rax
   192d4:	48 c1 e0 02          	shl    $0x2,%rax
   192d8:	48 01 d0             	add    %rdx,%rax
   192db:	48 c1 e0 02          	shl    $0x2,%rax
   192df:	48 89 c2             	mov    %rax,%rdx
   192e2:	48 8d 05 f7 8d 00 00 	lea    0x8df7(%rip),%rax        # 220e0 <g_2137>
   192e9:	8b 04 02             	mov    (%rdx,%rax,1),%eax
   192ec:	01 c0                	add    %eax,%eax
   192ee:	d1 f8                	sar    %eax
   192f0:	48 98                	cltq   
   192f2:	8b 55 f4             	mov    -0xc(%rbp),%edx
   192f5:	48 8d 35 41 45 00 00 	lea    0x4541(%rip),%rsi        # 1d83d <g_2454+0x34c5>
   192fc:	48 89 c7             	mov    %rax,%rdi
   192ff:	e8 ef 23 ff ff       	callq  b6f3 <transparent_crc>
   19304:	8b 45 e8             	mov    -0x18(%rbp),%eax
   19307:	48 63 d0             	movslq %eax,%rdx
   1930a:	48 89 d0             	mov    %rdx,%rax
   1930d:	48 c1 e0 02          	shl    $0x2,%rax
   19311:	48 01 d0             	add    %rdx,%rax
   19314:	48 c1 e0 02          	shl    $0x2,%rax
   19318:	48 89 c2             	mov    %rax,%rdx
   1931b:	48 8d 05 be 8d 00 00 	lea    0x8dbe(%rip),%rax        # 220e0 <g_2137>
   19322:	8b 44 02 04          	mov    0x4(%rdx,%rax,1),%eax
   19326:	25 ff ff 0f 00       	and    $0xfffff,%eax
   1932b:	89 c1                	mov    %eax,%ecx
   1932d:	8b 45 f4             	mov    -0xc(%rbp),%eax
   19330:	89 c2                	mov    %eax,%edx
   19332:	48 8d 35 11 45 00 00 	lea    0x4511(%rip),%rsi        # 1d84a <g_2454+0x34d2>
   19339:	48 89 cf             	mov    %rcx,%rdi
   1933c:	e8 b2 23 ff ff       	callq  b6f3 <transparent_crc>
   19341:	8b 45 e8             	mov    -0x18(%rbp),%eax
   19344:	48 63 d0             	movslq %eax,%rdx
   19347:	48 89 d0             	mov    %rdx,%rax
   1934a:	48 c1 e0 02          	shl    $0x2,%rax
   1934e:	48 01 d0             	add    %rdx,%rax
   19351:	48 c1 e0 02          	shl    $0x2,%rax
   19355:	48 89 c2             	mov    %rax,%rdx
   19358:	48 8d 05 81 8d 00 00 	lea    0x8d81(%rip),%rax        # 220e0 <g_2137>
   1935f:	0f b7 44 02 06       	movzwl 0x6(%rdx,%rax,1),%eax
   19364:	66 c1 e8 04          	shr    $0x4,%ax
   19368:	0f b7 c0             	movzwl %ax,%eax
   1936b:	8b 55 f4             	mov    -0xc(%rbp),%edx
   1936e:	48 8d 35 e2 44 00 00 	lea    0x44e2(%rip),%rsi        # 1d857 <g_2454+0x34df>
   19375:	48 89 c7             	mov    %rax,%rdi
   19378:	e8 76 23 ff ff       	callq  b6f3 <transparent_crc>
   1937d:	8b 45 e8             	mov    -0x18(%rbp),%eax
   19380:	48 63 d0             	movslq %eax,%rdx
   19383:	48 89 d0             	mov    %rdx,%rax
   19386:	48 c1 e0 02          	shl    $0x2,%rax
   1938a:	48 01 d0             	add    %rdx,%rax
   1938d:	48 c1 e0 02          	shl    $0x2,%rax
   19391:	48 89 c2             	mov    %rax,%rdx
   19394:	48 8d 05 45 8d 00 00 	lea    0x8d45(%rip),%rax        # 220e0 <g_2137>
   1939b:	0f b7 44 02 08       	movzwl 0x8(%rdx,%rax,1),%eax
   193a0:	c1 e0 05             	shl    $0x5,%eax
   193a3:	66 c1 f8 05          	sar    $0x5,%ax
   193a7:	48 0f bf c0          	movswq %ax,%rax
   193ab:	8b 55 f4             	mov    -0xc(%rbp),%edx
   193ae:	48 8d 35 af 44 00 00 	lea    0x44af(%rip),%rsi        # 1d864 <g_2454+0x34ec>
   193b5:	48 89 c7             	mov    %rax,%rdi
   193b8:	e8 36 23 ff ff       	callq  b6f3 <transparent_crc>
   193bd:	8b 45 e8             	mov    -0x18(%rbp),%eax
   193c0:	48 63 d0             	movslq %eax,%rdx
   193c3:	48 89 d0             	mov    %rdx,%rax
   193c6:	48 c1 e0 02          	shl    $0x2,%rax
   193ca:	48 01 d0             	add    %rdx,%rax
   193cd:	48 c1 e0 02          	shl    $0x2,%rax
   193d1:	48 89 c2             	mov    %rax,%rdx
   193d4:	48 8d 05 05 8d 00 00 	lea    0x8d05(%rip),%rax        # 220e0 <g_2137>
   193db:	8b 44 02 0c          	mov    0xc(%rdx,%rax,1),%eax
   193df:	25 ff ff ff 03       	and    $0x3ffffff,%eax
   193e4:	89 c1                	mov    %eax,%ecx
   193e6:	8b 45 f4             	mov    -0xc(%rbp),%eax
   193e9:	89 c2                	mov    %eax,%edx
   193eb:	48 8d 35 7f 44 00 00 	lea    0x447f(%rip),%rsi        # 1d871 <g_2454+0x34f9>
   193f2:	48 89 cf             	mov    %rcx,%rdi
   193f5:	e8 f9 22 ff ff       	callq  b6f3 <transparent_crc>
   193fa:	8b 45 e8             	mov    -0x18(%rbp),%eax
   193fd:	48 63 d0             	movslq %eax,%rdx
   19400:	48 89 d0             	mov    %rdx,%rax
   19403:	48 c1 e0 02          	shl    $0x2,%rax
   19407:	48 01 d0             	add    %rdx,%rax
   1940a:	48 c1 e0 02          	shl    $0x2,%rax
   1940e:	48 89 c2             	mov    %rax,%rdx
   19411:	48 8d 05 d8 8c 00 00 	lea    0x8cd8(%rip),%rax        # 220f0 <g_2137+0x10>
   19418:	8b 04 02             	mov    (%rdx,%rax,1),%eax
   1941b:	66 25 ff 03          	and    $0x3ff,%ax
   1941f:	0f b7 c0             	movzwl %ax,%eax
   19422:	8b 55 f4             	mov    -0xc(%rbp),%edx
   19425:	48 8d 35 52 44 00 00 	lea    0x4452(%rip),%rsi        # 1d87e <g_2454+0x3506>
   1942c:	48 89 c7             	mov    %rax,%rdi
   1942f:	e8 bf 22 ff ff       	callq  b6f3 <transparent_crc>
   19434:	83 7d f4 00          	cmpl   $0x0,-0xc(%rbp)
   19438:	74 16                	je     19450 <main+0x3593>
   1943a:	8b 45 e8             	mov    -0x18(%rbp),%eax
   1943d:	89 c6                	mov    %eax,%esi
   1943f:	48 8d 3d 2c 38 00 00 	lea    0x382c(%rip),%rdi        # 1cc72 <g_2454+0x28fa>
   19446:	b8 00 00 00 00       	mov    $0x0,%eax
   1944b:	e8 30 0c ff ff       	callq  a080 <printf@plt>
   19450:	83 45 e8 01          	addl   $0x1,-0x18(%rbp)
   19454:	83 7d e8 04          	cmpl   $0x4,-0x18(%rbp)
   19458:	0f 8e 6d fe ff ff    	jle    192cb <main+0x340e>
   1945e:	48 8b 05 e3 8c 00 00 	mov    0x8ce3(%rip),%rax        # 22148 <g_2147>
   19465:	c1 e0 0f             	shl    $0xf,%eax
   19468:	c1 f8 0f             	sar    $0xf,%eax
   1946b:	48 98                	cltq   
   1946d:	8b 55 f4             	mov    -0xc(%rbp),%edx
   19470:	48 8d 35 14 44 00 00 	lea    0x4414(%rip),%rsi        # 1d88b <g_2454+0x3513>
   19477:	48 89 c7             	mov    %rax,%rdi
   1947a:	e8 74 22 ff ff       	callq  b6f3 <transparent_crc>
   1947f:	48 8b 05 c2 8c 00 00 	mov    0x8cc2(%rip),%rax        # 22148 <g_2147>
   19486:	48 c1 e8 11          	shr    $0x11,%rax
   1948a:	83 e0 03             	and    $0x3,%eax
   1948d:	0f b6 c0             	movzbl %al,%eax
   19490:	8b 55 f4             	mov    -0xc(%rbp),%edx
   19493:	48 8d 35 fb 43 00 00 	lea    0x43fb(%rip),%rsi        # 1d895 <g_2454+0x351d>
   1949a:	48 89 c7             	mov    %rax,%rdi
   1949d:	e8 51 22 ff ff       	callq  b6f3 <transparent_crc>
   194a2:	48 8b 05 9f 8c 00 00 	mov    0x8c9f(%rip),%rax        # 22148 <g_2147>
   194a9:	48 c1 e8 13          	shr    $0x13,%rax
   194ad:	25 ff ff ff 0f       	and    $0xfffffff,%eax
   194b2:	89 c1                	mov    %eax,%ecx
   194b4:	8b 45 f4             	mov    -0xc(%rbp),%eax
   194b7:	89 c2                	mov    %eax,%edx
   194b9:	48 8d 35 df 43 00 00 	lea    0x43df(%rip),%rsi        # 1d89f <g_2454+0x3527>
   194c0:	48 89 cf             	mov    %rcx,%rdi
   194c3:	e8 2b 22 ff ff       	callq  b6f3 <transparent_crc>
   194c8:	48 8b 05 79 8c 00 00 	mov    0x8c79(%rip),%rax        # 22148 <g_2147>
   194cf:	48 c1 e8 2f          	shr    $0x2f,%rax
   194d3:	48 89 c2             	mov    %rax,%rdx
   194d6:	48 8b 05 73 8c 00 00 	mov    0x8c73(%rip),%rax        # 22150 <g_2147+0x8>
   194dd:	83 e0 7f             	and    $0x7f,%eax
   194e0:	48 c1 e0 11          	shl    $0x11,%rax
   194e4:	48 09 d0             	or     %rdx,%rax
   194e7:	89 c1                	mov    %eax,%ecx
   194e9:	8b 45 f4             	mov    -0xc(%rbp),%eax
   194ec:	89 c2                	mov    %eax,%edx
   194ee:	48 8d 35 b4 43 00 00 	lea    0x43b4(%rip),%rsi        # 1d8a9 <g_2454+0x3531>
   194f5:	48 89 cf             	mov    %rcx,%rdi
   194f8:	e8 f6 21 ff ff       	callq  b6f3 <transparent_crc>
   194fd:	48 8b 05 4c 8c 00 00 	mov    0x8c4c(%rip),%rax        # 22150 <g_2147+0x8>
   19504:	c1 e0 02             	shl    $0x2,%eax
   19507:	66 c1 f8 09          	sar    $0x9,%ax
   1950b:	48 0f be c0          	movsbq %al,%rax
   1950f:	8b 55 f4             	mov    -0xc(%rbp),%edx
   19512:	48 8d 35 9a 43 00 00 	lea    0x439a(%rip),%rsi        # 1d8b3 <g_2454+0x353b>
   19519:	48 89 c7             	mov    %rax,%rdi
   1951c:	e8 d2 21 ff ff       	callq  b6f3 <transparent_crc>
   19521:	48 8b 05 28 8c 00 00 	mov    0x8c28(%rip),%rax        # 22150 <g_2147+0x8>
   19528:	66 c1 f8 0e          	sar    $0xe,%ax
   1952c:	48 0f be c0          	movsbq %al,%rax
   19530:	8b 55 f4             	mov    -0xc(%rbp),%edx
   19533:	48 8d 35 83 43 00 00 	lea    0x4383(%rip),%rsi        # 1d8bd <g_2454+0x3545>
   1953a:	48 89 c7             	mov    %rax,%rdi
   1953d:	e8 b1 21 ff ff       	callq  b6f3 <transparent_crc>
   19542:	8b 05 10 8c 00 00    	mov    0x8c10(%rip),%eax        # 22158 <g_2183>
   19548:	c1 e0 0f             	shl    $0xf,%eax
   1954b:	c1 f8 0f             	sar    $0xf,%eax
   1954e:	48 98                	cltq   
   19550:	8b 55 f4             	mov    -0xc(%rbp),%edx
   19553:	48 8d 35 6d 43 00 00 	lea    0x436d(%rip),%rsi        # 1d8c7 <g_2454+0x354f>
   1955a:	48 89 c7             	mov    %rax,%rdi
   1955d:	e8 91 21 ff ff       	callq  b6f3 <transparent_crc>
   19562:	0f b6 05 f1 8b 00 00 	movzbl 0x8bf1(%rip),%eax        # 2215a <g_2183+0x2>
   19569:	d0 e8                	shr    %al
   1956b:	83 e0 03             	and    $0x3,%eax
   1956e:	0f b6 c0             	movzbl %al,%eax
   19571:	8b 55 f4             	mov    -0xc(%rbp),%edx
   19574:	48 8d 35 56 43 00 00 	lea    0x4356(%rip),%rsi        # 1d8d1 <g_2454+0x3559>
   1957b:	48 89 c7             	mov    %rax,%rdi
   1957e:	e8 70 21 ff ff       	callq  b6f3 <transparent_crc>
   19583:	48 8b 05 ce 8b 00 00 	mov    0x8bce(%rip),%rax        # 22158 <g_2183>
   1958a:	48 c1 e8 13          	shr    $0x13,%rax
   1958e:	25 ff ff ff 0f       	and    $0xfffffff,%eax
   19593:	89 c1                	mov    %eax,%ecx
   19595:	8b 45 f4             	mov    -0xc(%rbp),%eax
   19598:	89 c2                	mov    %eax,%edx
   1959a:	48 8d 35 3a 43 00 00 	lea    0x433a(%rip),%rsi        # 1d8db <g_2454+0x3563>
   195a1:	48 89 cf             	mov    %rcx,%rdi
   195a4:	e8 4a 21 ff ff       	callq  b6f3 <transparent_crc>
   195a9:	8b 05 ad 8b 00 00    	mov    0x8bad(%rip),%eax        # 2215c <g_2183+0x4>
   195af:	c1 e8 0f             	shr    $0xf,%eax
   195b2:	89 c2                	mov    %eax,%edx
   195b4:	0f b6 05 a5 8b 00 00 	movzbl 0x8ba5(%rip),%eax        # 22160 <g_2183+0x8>
   195bb:	83 e0 7f             	and    $0x7f,%eax
   195be:	48 c1 e0 11          	shl    $0x11,%rax
   195c2:	48 09 d0             	or     %rdx,%rax
   195c5:	89 c1                	mov    %eax,%ecx
   195c7:	8b 45 f4             	mov    -0xc(%rbp),%eax
   195ca:	89 c2                	mov    %eax,%edx
   195cc:	48 8d 35 12 43 00 00 	lea    0x4312(%rip),%rsi        # 1d8e5 <g_2454+0x356d>
   195d3:	48 89 cf             	mov    %rcx,%rdi
   195d6:	e8 18 21 ff ff       	callq  b6f3 <transparent_crc>
   195db:	0f b7 05 7e 8b 00 00 	movzwl 0x8b7e(%rip),%eax        # 22160 <g_2183+0x8>
   195e2:	c1 e0 02             	shl    $0x2,%eax
   195e5:	66 c1 f8 09          	sar    $0x9,%ax
   195e9:	48 0f be c0          	movsbq %al,%rax
   195ed:	8b 55 f4             	mov    -0xc(%rbp),%edx
   195f0:	48 8d 35 f8 42 00 00 	lea    0x42f8(%rip),%rsi        # 1d8ef <g_2454+0x3577>
   195f7:	48 89 c7             	mov    %rax,%rdi
   195fa:	e8 f4 20 ff ff       	callq  b6f3 <transparent_crc>
   195ff:	0f b6 05 5b 8b 00 00 	movzbl 0x8b5b(%rip),%eax        # 22161 <g_2183+0x9>
   19606:	c0 f8 06             	sar    $0x6,%al
   19609:	48 0f be c0          	movsbq %al,%rax
   1960d:	8b 55 f4             	mov    -0xc(%rbp),%edx
   19610:	48 8d 35 e2 42 00 00 	lea    0x42e2(%rip),%rsi        # 1d8f9 <g_2454+0x3581>
   19617:	48 89 c7             	mov    %rax,%rdi
   1961a:	e8 d4 20 ff ff       	callq  b6f3 <transparent_crc>
   1961f:	0f b6 05 3c 8b 00 00 	movzbl 0x8b3c(%rip),%eax        # 22162 <g_2217>
   19626:	48 0f be c0          	movsbq %al,%rax
   1962a:	8b 55 f4             	mov    -0xc(%rbp),%edx
   1962d:	48 8d 35 cf 42 00 00 	lea    0x42cf(%rip),%rsi        # 1d903 <g_2454+0x358b>
   19634:	48 89 c7             	mov    %rax,%rdi
   19637:	e8 b7 20 ff ff       	callq  b6f3 <transparent_crc>
   1963c:	0f b6 05 20 8b 00 00 	movzbl 0x8b20(%rip),%eax        # 22163 <g_2227>
   19643:	48 0f be c0          	movsbq %al,%rax
   19647:	8b 55 f4             	mov    -0xc(%rbp),%edx
   1964a:	48 8d 35 b9 42 00 00 	lea    0x42b9(%rip),%rsi        # 1d90a <g_2454+0x3592>
   19651:	48 89 c7             	mov    %rax,%rdi
   19654:	e8 9a 20 ff ff       	callq  b6f3 <transparent_crc>
   19659:	48 8b 05 08 8b 00 00 	mov    0x8b08(%rip),%rax        # 22168 <g_2248>
   19660:	c1 e0 0f             	shl    $0xf,%eax
   19663:	c1 f8 0f             	sar    $0xf,%eax
   19666:	48 98                	cltq   
   19668:	8b 55 f4             	mov    -0xc(%rbp),%edx
   1966b:	48 8d 35 9f 42 00 00 	lea    0x429f(%rip),%rsi        # 1d911 <g_2454+0x3599>
   19672:	48 89 c7             	mov    %rax,%rdi
   19675:	e8 79 20 ff ff       	callq  b6f3 <transparent_crc>
   1967a:	48 8b 05 e7 8a 00 00 	mov    0x8ae7(%rip),%rax        # 22168 <g_2248>
   19681:	48 c1 e8 11          	shr    $0x11,%rax
   19685:	83 e0 03             	and    $0x3,%eax
   19688:	0f b6 c0             	movzbl %al,%eax
   1968b:	8b 55 f4             	mov    -0xc(%rbp),%edx
   1968e:	48 8d 35 86 42 00 00 	lea    0x4286(%rip),%rsi        # 1d91b <g_2454+0x35a3>
   19695:	48 89 c7             	mov    %rax,%rdi
   19698:	e8 56 20 ff ff       	callq  b6f3 <transparent_crc>
   1969d:	48 8b 05 c4 8a 00 00 	mov    0x8ac4(%rip),%rax        # 22168 <g_2248>
   196a4:	48 c1 e8 13          	shr    $0x13,%rax
   196a8:	25 ff ff ff 0f       	and    $0xfffffff,%eax
   196ad:	89 c1                	mov    %eax,%ecx
   196af:	8b 45 f4             	mov    -0xc(%rbp),%eax
   196b2:	89 c2                	mov    %eax,%edx
   196b4:	48 8d 35 6a 42 00 00 	lea    0x426a(%rip),%rsi        # 1d925 <g_2454+0x35ad>
   196bb:	48 89 cf             	mov    %rcx,%rdi
   196be:	e8 30 20 ff ff       	callq  b6f3 <transparent_crc>
   196c3:	48 8b 05 9e 8a 00 00 	mov    0x8a9e(%rip),%rax        # 22168 <g_2248>
   196ca:	48 c1 e8 2f          	shr    $0x2f,%rax
   196ce:	48 89 c2             	mov    %rax,%rdx
   196d1:	48 8b 05 98 8a 00 00 	mov    0x8a98(%rip),%rax        # 22170 <g_2248+0x8>
   196d8:	83 e0 7f             	and    $0x7f,%eax
   196db:	48 c1 e0 11          	shl    $0x11,%rax
   196df:	48 09 d0             	or     %rdx,%rax
   196e2:	89 c1                	mov    %eax,%ecx
   196e4:	8b 45 f4             	mov    -0xc(%rbp),%eax
   196e7:	89 c2                	mov    %eax,%edx
   196e9:	48 8d 35 3f 42 00 00 	lea    0x423f(%rip),%rsi        # 1d92f <g_2454+0x35b7>
   196f0:	48 89 cf             	mov    %rcx,%rdi
   196f3:	e8 fb 1f ff ff       	callq  b6f3 <transparent_crc>
   196f8:	48 8b 05 71 8a 00 00 	mov    0x8a71(%rip),%rax        # 22170 <g_2248+0x8>
   196ff:	c1 e0 02             	shl    $0x2,%eax
   19702:	66 c1 f8 09          	sar    $0x9,%ax
   19706:	48 0f be c0          	movsbq %al,%rax
   1970a:	8b 55 f4             	mov    -0xc(%rbp),%edx
   1970d:	48 8d 35 25 42 00 00 	lea    0x4225(%rip),%rsi        # 1d939 <g_2454+0x35c1>
   19714:	48 89 c7             	mov    %rax,%rdi
   19717:	e8 d7 1f ff ff       	callq  b6f3 <transparent_crc>
   1971c:	48 8b 05 4d 8a 00 00 	mov    0x8a4d(%rip),%rax        # 22170 <g_2248+0x8>
   19723:	66 c1 f8 0e          	sar    $0xe,%ax
   19727:	48 0f be c0          	movsbq %al,%rax
   1972b:	8b 55 f4             	mov    -0xc(%rbp),%edx
   1972e:	48 8d 35 0e 42 00 00 	lea    0x420e(%rip),%rsi        # 1d943 <g_2454+0x35cb>
   19735:	48 89 c7             	mov    %rax,%rdi
   19738:	e8 b6 1f ff ff       	callq  b6f3 <transparent_crc>
   1973d:	c7 45 e8 00 00 00 00 	movl   $0x0,-0x18(%rbp)
   19744:	e9 cd 01 00 00       	jmpq   19916 <main+0x3a59>
   19749:	8b 45 e8             	mov    -0x18(%rbp),%eax
   1974c:	48 63 d0             	movslq %eax,%rdx
   1974f:	48 89 d0             	mov    %rdx,%rax
   19752:	48 c1 e0 02          	shl    $0x2,%rax
   19756:	48 01 d0             	add    %rdx,%rax
   19759:	48 01 c0             	add    %rax,%rax
   1975c:	48 89 c2             	mov    %rax,%rdx
   1975f:	48 8d 05 1a 8a 00 00 	lea    0x8a1a(%rip),%rax        # 22180 <g_2310>
   19766:	0f b7 0c 02          	movzwl (%rdx,%rax,1),%ecx
   1976a:	0f b6 44 02 02       	movzbl 0x2(%rdx,%rax,1),%eax
   1976f:	83 e0 01             	and    $0x1,%eax
   19772:	48 c1 e0 10          	shl    $0x10,%rax
   19776:	48 09 c8             	or     %rcx,%rax
   19779:	48 c1 e0 2f          	shl    $0x2f,%rax
   1977d:	48 c1 f8 2f          	sar    $0x2f,%rax
   19781:	48 98                	cltq   
   19783:	8b 55 f4             	mov    -0xc(%rbp),%edx
   19786:	48 8d 35 c0 41 00 00 	lea    0x41c0(%rip),%rsi        # 1d94d <g_2454+0x35d5>
   1978d:	48 89 c7             	mov    %rax,%rdi
   19790:	e8 5e 1f ff ff       	callq  b6f3 <transparent_crc>
   19795:	8b 45 e8             	mov    -0x18(%rbp),%eax
   19798:	48 63 d0             	movslq %eax,%rdx
   1979b:	48 89 d0             	mov    %rdx,%rax
   1979e:	48 c1 e0 02          	shl    $0x2,%rax
   197a2:	48 01 d0             	add    %rdx,%rax
   197a5:	48 01 c0             	add    %rax,%rax
   197a8:	48 89 c2             	mov    %rax,%rdx
   197ab:	48 8d 05 ce 89 00 00 	lea    0x89ce(%rip),%rax        # 22180 <g_2310>
   197b2:	0f b6 44 02 02       	movzbl 0x2(%rdx,%rax,1),%eax
   197b7:	d0 e8                	shr    %al
   197b9:	83 e0 03             	and    $0x3,%eax
   197bc:	0f b6 c0             	movzbl %al,%eax
   197bf:	8b 55 f4             	mov    -0xc(%rbp),%edx
   197c2:	48 8d 35 91 41 00 00 	lea    0x4191(%rip),%rsi        # 1d95a <g_2454+0x35e2>
   197c9:	48 89 c7             	mov    %rax,%rdi
   197cc:	e8 22 1f ff ff       	callq  b6f3 <transparent_crc>
   197d1:	8b 45 e8             	mov    -0x18(%rbp),%eax
   197d4:	48 63 d0             	movslq %eax,%rdx
   197d7:	48 89 d0             	mov    %rdx,%rax
   197da:	48 c1 e0 02          	shl    $0x2,%rax
   197de:	48 01 d0             	add    %rdx,%rax
   197e1:	48 01 c0             	add    %rax,%rax
   197e4:	48 89 c2             	mov    %rax,%rdx
   197e7:	48 8d 05 92 89 00 00 	lea    0x8992(%rip),%rax        # 22180 <g_2310>
   197ee:	0f b7 4c 02 02       	movzwl 0x2(%rdx,%rax,1),%ecx
   197f3:	66 c1 e9 03          	shr    $0x3,%cx
   197f7:	0f b7 c9             	movzwl %cx,%ecx
   197fa:	0f b7 44 02 04       	movzwl 0x4(%rdx,%rax,1),%eax
   197ff:	0f b7 c0             	movzwl %ax,%eax
   19802:	25 ff 7f 00 00       	and    $0x7fff,%eax
   19807:	48 c1 e0 0d          	shl    $0xd,%rax
   1980b:	48 09 c8             	or     %rcx,%rax
   1980e:	89 c1                	mov    %eax,%ecx
   19810:	8b 45 f4             	mov    -0xc(%rbp),%eax
   19813:	89 c2                	mov    %eax,%edx
   19815:	48 8d 35 4b 41 00 00 	lea    0x414b(%rip),%rsi        # 1d967 <g_2454+0x35ef>
   1981c:	48 89 cf             	mov    %rcx,%rdi
   1981f:	e8 cf 1e ff ff       	callq  b6f3 <transparent_crc>
   19824:	8b 45 e8             	mov    -0x18(%rbp),%eax
   19827:	48 63 d0             	movslq %eax,%rdx
   1982a:	48 89 d0             	mov    %rdx,%rax
   1982d:	48 c1 e0 02          	shl    $0x2,%rax
   19831:	48 01 d0             	add    %rdx,%rax
   19834:	48 01 c0             	add    %rax,%rax
   19837:	48 89 c2             	mov    %rax,%rdx
   1983a:	48 8d 05 3f 89 00 00 	lea    0x893f(%rip),%rax        # 22180 <g_2310>
   19841:	0f b6 4c 02 05       	movzbl 0x5(%rdx,%rax,1),%ecx
   19846:	c0 e9 07             	shr    $0x7,%cl
   19849:	0f b6 c9             	movzbl %cl,%ecx
   1984c:	0f b7 74 02 06       	movzwl 0x6(%rdx,%rax,1),%esi
   19851:	48 01 f6             	add    %rsi,%rsi
   19854:	48 09 f1             	or     %rsi,%rcx
   19857:	0f b6 44 02 08       	movzbl 0x8(%rdx,%rax,1),%eax
   1985c:	83 e0 7f             	and    $0x7f,%eax
   1985f:	48 c1 e0 11          	shl    $0x11,%rax
   19863:	48 09 c8             	or     %rcx,%rax
   19866:	89 c1                	mov    %eax,%ecx
   19868:	8b 45 f4             	mov    -0xc(%rbp),%eax
   1986b:	89 c2                	mov    %eax,%edx
   1986d:	48 8d 35 00 41 00 00 	lea    0x4100(%rip),%rsi        # 1d974 <g_2454+0x35fc>
   19874:	48 89 cf             	mov    %rcx,%rdi
   19877:	e8 77 1e ff ff       	callq  b6f3 <transparent_crc>
   1987c:	8b 45 e8             	mov    -0x18(%rbp),%eax
   1987f:	48 63 d0             	movslq %eax,%rdx
   19882:	48 89 d0             	mov    %rdx,%rax
   19885:	48 c1 e0 02          	shl    $0x2,%rax
   19889:	48 01 d0             	add    %rdx,%rax
   1988c:	48 01 c0             	add    %rax,%rax
   1988f:	48 89 c2             	mov    %rax,%rdx
   19892:	48 8d 05 e7 88 00 00 	lea    0x88e7(%rip),%rax        # 22180 <g_2310>
   19899:	0f b7 44 02 08       	movzwl 0x8(%rdx,%rax,1),%eax
   1989e:	c1 e0 02             	shl    $0x2,%eax
   198a1:	66 c1 f8 09          	sar    $0x9,%ax
   198a5:	48 0f be c0          	movsbq %al,%rax
   198a9:	8b 55 f4             	mov    -0xc(%rbp),%edx
   198ac:	48 8d 35 ce 40 00 00 	lea    0x40ce(%rip),%rsi        # 1d981 <g_2454+0x3609>
   198b3:	48 89 c7             	mov    %rax,%rdi
   198b6:	e8 38 1e ff ff       	callq  b6f3 <transparent_crc>
   198bb:	8b 45 e8             	mov    -0x18(%rbp),%eax
   198be:	48 63 d0             	movslq %eax,%rdx
   198c1:	48 89 d0             	mov    %rdx,%rax
   198c4:	48 c1 e0 02          	shl    $0x2,%rax
   198c8:	48 01 d0             	add    %rdx,%rax
   198cb:	48 01 c0             	add    %rax,%rax
   198ce:	48 89 c2             	mov    %rax,%rdx
   198d1:	48 8d 05 a8 88 00 00 	lea    0x88a8(%rip),%rax        # 22180 <g_2310>
   198d8:	0f b6 44 02 09       	movzbl 0x9(%rdx,%rax,1),%eax
   198dd:	c0 f8 06             	sar    $0x6,%al
   198e0:	48 0f be c0          	movsbq %al,%rax
   198e4:	8b 55 f4             	mov    -0xc(%rbp),%edx
   198e7:	48 8d 35 a0 40 00 00 	lea    0x40a0(%rip),%rsi        # 1d98e <g_2454+0x3616>
   198ee:	48 89 c7             	mov    %rax,%rdi
   198f1:	e8 fd 1d ff ff       	callq  b6f3 <transparent_crc>
   198f6:	83 7d f4 00          	cmpl   $0x0,-0xc(%rbp)
   198fa:	74 16                	je     19912 <main+0x3a55>
   198fc:	8b 45 e8             	mov    -0x18(%rbp),%eax
   198ff:	89 c6                	mov    %eax,%esi
   19901:	48 8d 3d 6a 33 00 00 	lea    0x336a(%rip),%rdi        # 1cc72 <g_2454+0x28fa>
   19908:	b8 00 00 00 00       	mov    $0x0,%eax
   1990d:	e8 6e 07 ff ff       	callq  a080 <printf@plt>
   19912:	83 45 e8 01          	addl   $0x1,-0x18(%rbp)
   19916:	83 7d e8 03          	cmpl   $0x3,-0x18(%rbp)
   1991a:	0f 8e 29 fe ff ff    	jle    19749 <main+0x388c>
   19920:	48 8b 05 81 88 00 00 	mov    0x8881(%rip),%rax        # 221a8 <g_2418>
   19927:	8b 55 f4             	mov    -0xc(%rbp),%edx
   1992a:	48 8d 35 6a 40 00 00 	lea    0x406a(%rip),%rsi        # 1d99b <g_2454+0x3623>
   19931:	48 89 c7             	mov    %rax,%rdi
   19934:	e8 ba 1d ff ff       	callq  b6f3 <transparent_crc>
   19939:	8b 05 71 88 00 00    	mov    0x8871(%rip),%eax        # 221b0 <g_2435>
   1993f:	c1 e0 0f             	shl    $0xf,%eax
   19942:	c1 f8 0f             	sar    $0xf,%eax
   19945:	48 98                	cltq   
   19947:	8b 55 f4             	mov    -0xc(%rbp),%edx
   1994a:	48 8d 35 51 40 00 00 	lea    0x4051(%rip),%rsi        # 1d9a2 <g_2454+0x362a>
   19951:	48 89 c7             	mov    %rax,%rdi
   19954:	e8 9a 1d ff ff       	callq  b6f3 <transparent_crc>
   19959:	0f b6 05 52 88 00 00 	movzbl 0x8852(%rip),%eax        # 221b2 <g_2435+0x2>
   19960:	d0 e8                	shr    %al
   19962:	83 e0 03             	and    $0x3,%eax
   19965:	0f b6 c0             	movzbl %al,%eax
   19968:	8b 55 f4             	mov    -0xc(%rbp),%edx
   1996b:	48 8d 35 3a 40 00 00 	lea    0x403a(%rip),%rsi        # 1d9ac <g_2454+0x3634>
   19972:	48 89 c7             	mov    %rax,%rdi
   19975:	e8 79 1d ff ff       	callq  b6f3 <transparent_crc>
   1997a:	48 8b 05 2f 88 00 00 	mov    0x882f(%rip),%rax        # 221b0 <g_2435>
   19981:	48 c1 e8 13          	shr    $0x13,%rax
   19985:	25 ff ff ff 0f       	and    $0xfffffff,%eax
   1998a:	89 c1                	mov    %eax,%ecx
   1998c:	8b 45 f4             	mov    -0xc(%rbp),%eax
   1998f:	89 c2                	mov    %eax,%edx
   19991:	48 8d 35 1e 40 00 00 	lea    0x401e(%rip),%rsi        # 1d9b6 <g_2454+0x363e>
   19998:	48 89 cf             	mov    %rcx,%rdi
   1999b:	e8 53 1d ff ff       	callq  b6f3 <transparent_crc>
   199a0:	8b 05 0e 88 00 00    	mov    0x880e(%rip),%eax        # 221b4 <g_2435+0x4>
   199a6:	c1 e8 0f             	shr    $0xf,%eax
   199a9:	89 c2                	mov    %eax,%edx
   199ab:	0f b6 05 06 88 00 00 	movzbl 0x8806(%rip),%eax        # 221b8 <g_2435+0x8>
   199b2:	83 e0 7f             	and    $0x7f,%eax
   199b5:	48 c1 e0 11          	shl    $0x11,%rax
   199b9:	48 09 d0             	or     %rdx,%rax
   199bc:	89 c1                	mov    %eax,%ecx
   199be:	8b 45 f4             	mov    -0xc(%rbp),%eax
   199c1:	89 c2                	mov    %eax,%edx
   199c3:	48 8d 35 f6 3f 00 00 	lea    0x3ff6(%rip),%rsi        # 1d9c0 <g_2454+0x3648>
   199ca:	48 89 cf             	mov    %rcx,%rdi
   199cd:	e8 21 1d ff ff       	callq  b6f3 <transparent_crc>
   199d2:	0f b7 05 df 87 00 00 	movzwl 0x87df(%rip),%eax        # 221b8 <g_2435+0x8>
   199d9:	c1 e0 02             	shl    $0x2,%eax
   199dc:	66 c1 f8 09          	sar    $0x9,%ax
   199e0:	48 0f be c0          	movsbq %al,%rax
   199e4:	8b 55 f4             	mov    -0xc(%rbp),%edx
   199e7:	48 8d 35 dc 3f 00 00 	lea    0x3fdc(%rip),%rsi        # 1d9ca <g_2454+0x3652>
   199ee:	48 89 c7             	mov    %rax,%rdi
   199f1:	e8 fd 1c ff ff       	callq  b6f3 <transparent_crc>
   199f6:	0f b6 05 bc 87 00 00 	movzbl 0x87bc(%rip),%eax        # 221b9 <g_2435+0x9>
   199fd:	c0 f8 06             	sar    $0x6,%al
   19a00:	48 0f be c0          	movsbq %al,%rax
   19a04:	8b 55 f4             	mov    -0xc(%rbp),%edx
   19a07:	48 8d 35 c6 3f 00 00 	lea    0x3fc6(%rip),%rsi        # 1d9d4 <g_2454+0x365c>
   19a0e:	48 89 c7             	mov    %rax,%rdi
   19a11:	e8 dd 1c ff ff       	callq  b6f3 <transparent_crc>
   19a16:	b8 6c ff ff ff       	mov    $0xffffff6c,%eax
   19a1b:	48 98                	cltq   
   19a1d:	8b 55 f4             	mov    -0xc(%rbp),%edx
   19a20:	48 8d 35 b7 3f 00 00 	lea    0x3fb7(%rip),%rsi        # 1d9de <g_2454+0x3666>
   19a27:	48 89 c7             	mov    %rax,%rdi
   19a2a:	e8 c4 1c ff ff       	callq  b6f3 <transparent_crc>
   19a2f:	b8 00 00 00 00       	mov    $0x0,%eax
   19a34:	0f b6 c0             	movzbl %al,%eax
   19a37:	8b 55 f4             	mov    -0xc(%rbp),%edx
   19a3a:	48 8d 35 a7 3f 00 00 	lea    0x3fa7(%rip),%rsi        # 1d9e8 <g_2454+0x3670>
   19a41:	48 89 c7             	mov    %rax,%rdi
   19a44:	e8 aa 1c ff ff       	callq  b6f3 <transparent_crc>
   19a49:	48 8b 05 28 09 00 00 	mov    0x928(%rip),%rax        # 1a378 <g_2454>
   19a50:	48 c1 e8 13          	shr    $0x13,%rax
   19a54:	25 ff ff ff 0f       	and    $0xfffffff,%eax
   19a59:	89 c1                	mov    %eax,%ecx
   19a5b:	8b 45 f4             	mov    -0xc(%rbp),%eax
   19a5e:	89 c2                	mov    %eax,%edx
   19a60:	48 8d 35 8b 3f 00 00 	lea    0x3f8b(%rip),%rsi        # 1d9f2 <g_2454+0x367a>
   19a67:	48 89 cf             	mov    %rcx,%rdi
   19a6a:	e8 84 1c ff ff       	callq  b6f3 <transparent_crc>
   19a6f:	b8 75 01 00 00       	mov    $0x175,%eax
   19a74:	89 c1                	mov    %eax,%ecx
   19a76:	8b 45 f4             	mov    -0xc(%rbp),%eax
   19a79:	89 c2                	mov    %eax,%edx
   19a7b:	48 8d 35 7a 3f 00 00 	lea    0x3f7a(%rip),%rsi        # 1d9fc <g_2454+0x3684>
   19a82:	48 89 cf             	mov    %rcx,%rdi
   19a85:	e8 69 1c ff ff       	callq  b6f3 <transparent_crc>
   19a8a:	b8 01 00 00 00       	mov    $0x1,%eax
   19a8f:	48 0f be c0          	movsbq %al,%rax
   19a93:	8b 55 f4             	mov    -0xc(%rbp),%edx
   19a96:	48 8d 35 69 3f 00 00 	lea    0x3f69(%rip),%rsi        # 1da06 <g_2454+0x368e>
   19a9d:	48 89 c7             	mov    %rax,%rdi
   19aa0:	e8 4e 1c ff ff       	callq  b6f3 <transparent_crc>
   19aa5:	b8 ff ff ff ff       	mov    $0xffffffff,%eax
   19aaa:	48 0f be c0          	movsbq %al,%rax
   19aae:	8b 55 f4             	mov    -0xc(%rbp),%edx
   19ab1:	48 8d 35 58 3f 00 00 	lea    0x3f58(%rip),%rsi        # 1da10 <g_2454+0x3698>
   19ab8:	48 89 c7             	mov    %rax,%rdi
   19abb:	e8 33 1c ff ff       	callq  b6f3 <transparent_crc>
   19ac0:	8b 05 f6 86 00 00    	mov    0x86f6(%rip),%eax        # 221bc <g_2469>
   19ac6:	48 98                	cltq   
   19ac8:	8b 55 f4             	mov    -0xc(%rbp),%edx
   19acb:	48 8d 35 48 3f 00 00 	lea    0x3f48(%rip),%rsi        # 1da1a <g_2454+0x36a2>
   19ad2:	48 89 c7             	mov    %rax,%rdi
   19ad5:	e8 19 1c ff ff       	callq  b6f3 <transparent_crc>
   19ada:	8b 05 e0 86 00 00    	mov    0x86e0(%rip),%eax        # 221c0 <g_2477>
   19ae0:	01 c0                	add    %eax,%eax
   19ae2:	d1 f8                	sar    %eax
   19ae4:	48 98                	cltq   
   19ae6:	8b 55 f4             	mov    -0xc(%rbp),%edx
   19ae9:	48 8d 35 31 3f 00 00 	lea    0x3f31(%rip),%rsi        # 1da21 <g_2454+0x36a9>
   19af0:	48 89 c7             	mov    %rax,%rdi
   19af3:	e8 fb 1b ff ff       	callq  b6f3 <transparent_crc>
   19af8:	8b 05 c6 86 00 00    	mov    0x86c6(%rip),%eax        # 221c4 <g_2477+0x4>
   19afe:	25 ff ff 0f 00       	and    $0xfffff,%eax
   19b03:	89 c1                	mov    %eax,%ecx
   19b05:	8b 45 f4             	mov    -0xc(%rbp),%eax
   19b08:	89 c2                	mov    %eax,%edx
   19b0a:	48 8d 35 1a 3f 00 00 	lea    0x3f1a(%rip),%rsi        # 1da2b <g_2454+0x36b3>
   19b11:	48 89 cf             	mov    %rcx,%rdi
   19b14:	e8 da 1b ff ff       	callq  b6f3 <transparent_crc>
   19b19:	0f b7 05 a6 86 00 00 	movzwl 0x86a6(%rip),%eax        # 221c6 <g_2477+0x6>
   19b20:	66 c1 e8 04          	shr    $0x4,%ax
   19b24:	0f b7 c0             	movzwl %ax,%eax
   19b27:	8b 55 f4             	mov    -0xc(%rbp),%edx
   19b2a:	48 8d 35 04 3f 00 00 	lea    0x3f04(%rip),%rsi        # 1da35 <g_2454+0x36bd>
   19b31:	48 89 c7             	mov    %rax,%rdi
   19b34:	e8 ba 1b ff ff       	callq  b6f3 <transparent_crc>
   19b39:	0f b7 05 88 86 00 00 	movzwl 0x8688(%rip),%eax        # 221c8 <g_2477+0x8>
   19b40:	c1 e0 05             	shl    $0x5,%eax
   19b43:	66 c1 f8 05          	sar    $0x5,%ax
   19b47:	48 0f bf c0          	movswq %ax,%rax
   19b4b:	8b 55 f4             	mov    -0xc(%rbp),%edx
   19b4e:	48 8d 35 ea 3e 00 00 	lea    0x3eea(%rip),%rsi        # 1da3f <g_2454+0x36c7>
   19b55:	48 89 c7             	mov    %rax,%rdi
   19b58:	e8 96 1b ff ff       	callq  b6f3 <transparent_crc>
   19b5d:	8b 05 69 86 00 00    	mov    0x8669(%rip),%eax        # 221cc <g_2477+0xc>
   19b63:	25 ff ff ff 03       	and    $0x3ffffff,%eax
   19b68:	89 c1                	mov    %eax,%ecx
   19b6a:	8b 45 f4             	mov    -0xc(%rbp),%eax
   19b6d:	89 c2                	mov    %eax,%edx
   19b6f:	48 8d 35 d3 3e 00 00 	lea    0x3ed3(%rip),%rsi        # 1da49 <g_2454+0x36d1>
   19b76:	48 89 cf             	mov    %rcx,%rdi
   19b79:	e8 75 1b ff ff       	callq  b6f3 <transparent_crc>
   19b7e:	48 8b 05 4b 86 00 00 	mov    0x864b(%rip),%rax        # 221d0 <g_2477+0x10>
   19b85:	66 25 ff 03          	and    $0x3ff,%ax
   19b89:	0f b7 c0             	movzwl %ax,%eax
   19b8c:	8b 55 f4             	mov    -0xc(%rbp),%edx
   19b8f:	48 8d 35 bd 3e 00 00 	lea    0x3ebd(%rip),%rsi        # 1da53 <g_2454+0x36db>
   19b96:	48 89 c7             	mov    %rax,%rdi
   19b99:	e8 55 1b ff ff       	callq  b6f3 <transparent_crc>
   19b9e:	8b 05 7c 74 00 00    	mov    0x747c(%rip),%eax        # 21020 <crc32_context>
   19ba4:	f7 d0                	not    %eax
   19ba6:	89 c2                	mov    %eax,%edx
   19ba8:	8b 45 f4             	mov    -0xc(%rbp),%eax
   19bab:	89 c6                	mov    %eax,%esi
   19bad:	89 d7                	mov    %edx,%edi
   19baf:	e8 e0 05 ff ff       	callq  a194 <platform_main_end>
   19bb4:	b8 00 00 00 00       	mov    $0x0,%eax
   19bb9:	48 8b 4d f8          	mov    -0x8(%rbp),%rcx
   19bbd:	64 48 33 0c 25 28 00 	xor    %fs:0x28,%rcx
   19bc4:	00 00 
   19bc6:	74 05                	je     19bcd <main+0x3d10>
   19bc8:	e8 a3 04 ff ff       	callq  a070 <__stack_chk_fail@plt>
   19bcd:	c9                   	leaveq 
   19bce:	c3                   	retq   
   19bcf:	90                   	nop

0000000000019bd0 <__libc_csu_init>:
   19bd0:	f3 0f 1e fa          	endbr64 
   19bd4:	41 57                	push   %r15
   19bd6:	4c 8d 3d 13 70 00 00 	lea    0x7013(%rip),%r15        # 20bf0 <__frame_dummy_init_array_entry>
   19bdd:	41 56                	push   %r14
   19bdf:	49 89 d6             	mov    %rdx,%r14
   19be2:	41 55                	push   %r13
   19be4:	49 89 f5             	mov    %rsi,%r13
   19be7:	41 54                	push   %r12
   19be9:	41 89 fc             	mov    %edi,%r12d
   19bec:	55                   	push   %rbp
   19bed:	48 8d 2d 04 70 00 00 	lea    0x7004(%rip),%rbp        # 20bf8 <__do_global_dtors_aux_fini_array_entry>
   19bf4:	53                   	push   %rbx
   19bf5:	4c 29 fd             	sub    %r15,%rbp
   19bf8:	48 83 ec 08          	sub    $0x8,%rsp
   19bfc:	e8 ff 03 ff ff       	callq  a000 <_init>
   19c01:	48 c1 fd 03          	sar    $0x3,%rbp
   19c05:	74 1f                	je     19c26 <__libc_csu_init+0x56>
   19c07:	31 db                	xor    %ebx,%ebx
   19c09:	0f 1f 80 00 00 00 00 	nopl   0x0(%rax)
   19c10:	4c 89 f2             	mov    %r14,%rdx
   19c13:	4c 89 ee             	mov    %r13,%rsi
   19c16:	44 89 e7             	mov    %r12d,%edi
   19c19:	41 ff 14 df          	callq  *(%r15,%rbx,8)
   19c1d:	48 83 c3 01          	add    $0x1,%rbx
   19c21:	48 39 dd             	cmp    %rbx,%rbp
   19c24:	75 ea                	jne    19c10 <__libc_csu_init+0x40>
   19c26:	48 83 c4 08          	add    $0x8,%rsp
   19c2a:	5b                   	pop    %rbx
   19c2b:	5d                   	pop    %rbp
   19c2c:	41 5c                	pop    %r12
   19c2e:	41 5d                	pop    %r13
   19c30:	41 5e                	pop    %r14
   19c32:	41 5f                	pop    %r15
   19c34:	c3                   	retq   
   19c35:	66 66 2e 0f 1f 84 00 	data16 nopw %cs:0x0(%rax,%rax,1)
   19c3c:	00 00 00 00 

0000000000019c40 <__libc_csu_fini>:
   19c40:	f3 0f 1e fa          	endbr64 
   19c44:	c3                   	retq   
