


Disassembly of section .text:

00000000000090a0 <_start>:
    90a0:	f3 0f 1e fa          	endbr64 
    90a4:	31 ed                	xor    %ebp,%ebp
    90a6:	49 89 d1             	mov    %rdx,%r9
    90a9:	5e                   	pop    %rsi
    90aa:	48 89 e2             	mov    %rsp,%rdx
    90ad:	48 83 e4 f0          	and    $0xfffffffffffffff0,%rsp
    90b1:	50                   	push   %rax
    90b2:	54                   	push   %rsp
    90b3:	4c 8d 05 56 0a 01 00 	lea    0x10a56(%rip),%r8        # 19b10 <__libc_csu_fini>
    90ba:	48 8d 0d df 09 01 00 	lea    0x109df(%rip),%rcx        # 19aa0 <__libc_csu_init>
    90c1:	48 8d 3d 26 00 01 00 	lea    0x10026(%rip),%rdi        # 190ee <main>
    90c8:	ff 15 0a 5f 01 00    	callq  *0x15f0a(%rip)        # 1efd8 <__libc_start_main@GLIBC_2.2.5>
    90ce:	f4                   	hlt    
    90cf:	90                   	nop

00000000000090d0 <deregister_tm_clones>:
    90d0:	48 8d 3d 89 9c 01 00 	lea    0x19c89(%rip),%rdi        # 22d60 <__TMC_END__>
    90d7:	48 8d 05 82 9c 01 00 	lea    0x19c82(%rip),%rax        # 22d60 <__TMC_END__>
    90de:	48 39 f8             	cmp    %rdi,%rax
    90e1:	74 15                	je     90f8 <deregister_tm_clones+0x28>
    90e3:	48 8b 05 e6 5e 01 00 	mov    0x15ee6(%rip),%rax        # 1efd0 <_ITM_deregisterTMCloneTable>
    90ea:	48 85 c0             	test   %rax,%rax
    90ed:	74 09                	je     90f8 <deregister_tm_clones+0x28>
    90ef:	ff e0                	jmpq   *%rax
    90f1:	0f 1f 80 00 00 00 00 	nopl   0x0(%rax)
    90f8:	c3                   	retq   
    90f9:	0f 1f 80 00 00 00 00 	nopl   0x0(%rax)

0000000000009100 <register_tm_clones>:
    9100:	48 8d 3d 59 9c 01 00 	lea    0x19c59(%rip),%rdi        # 22d60 <__TMC_END__>
    9107:	48 8d 35 52 9c 01 00 	lea    0x19c52(%rip),%rsi        # 22d60 <__TMC_END__>
    910e:	48 29 fe             	sub    %rdi,%rsi
    9111:	48 89 f0             	mov    %rsi,%rax
    9114:	48 c1 ee 3f          	shr    $0x3f,%rsi
    9118:	48 c1 f8 03          	sar    $0x3,%rax
    911c:	48 01 c6             	add    %rax,%rsi
    911f:	48 d1 fe             	sar    %rsi
    9122:	74 14                	je     9138 <register_tm_clones+0x38>
    9124:	48 8b 05 bd 5e 01 00 	mov    0x15ebd(%rip),%rax        # 1efe8 <_ITM_registerTMCloneTable>
    912b:	48 85 c0             	test   %rax,%rax
    912e:	74 08                	je     9138 <register_tm_clones+0x38>
    9130:	ff e0                	jmpq   *%rax
    9132:	66 0f 1f 44 00 00    	nopw   0x0(%rax,%rax,1)
    9138:	c3                   	retq   
    9139:	0f 1f 80 00 00 00 00 	nopl   0x0(%rax)

0000000000009140 <__do_global_dtors_aux>:
    9140:	f3 0f 1e fa          	endbr64 
    9144:	80 3d 15 9c 01 00 00 	cmpb   $0x0,0x19c15(%rip)        # 22d60 <__TMC_END__>
    914b:	75 2b                	jne    9178 <__do_global_dtors_aux+0x38>
    914d:	55                   	push   %rbp
    914e:	48 83 3d 9a 5e 01 00 	cmpq   $0x0,0x15e9a(%rip)        # 1eff0 <__cxa_finalize@GLIBC_2.2.5>
    9155:	00 
    9156:	48 89 e5             	mov    %rsp,%rbp
    9159:	74 0c                	je     9167 <__do_global_dtors_aux+0x27>
    915b:	48 8b 3d a6 5e 01 00 	mov    0x15ea6(%rip),%rdi        # 1f008 <__dso_handle>
    9162:	e8 f9 fe ff ff       	callq  9060 <__cxa_finalize@plt>
    9167:	e8 64 ff ff ff       	callq  90d0 <deregister_tm_clones>
    916c:	c6 05 ed 9b 01 00 01 	movb   $0x1,0x19bed(%rip)        # 22d60 <__TMC_END__>
    9173:	5d                   	pop    %rbp
    9174:	c3                   	retq   
    9175:	0f 1f 00             	nopl   (%rax)
    9178:	c3                   	retq   
    9179:	0f 1f 80 00 00 00 00 	nopl   0x0(%rax)

0000000000009180 <frame_dummy>:
    9180:	f3 0f 1e fa          	endbr64 
    9184:	e9 77 ff ff ff       	jmpq   9100 <register_tm_clones>

0000000000009189 <platform_main_begin>:
    9189:	f3 0f 1e fa          	endbr64 
    918d:	55                   	push   %rbp
    918e:	48 89 e5             	mov    %rsp,%rbp
    9191:	90                   	nop
    9192:	5d                   	pop    %rbp
    9193:	c3                   	retq   

0000000000009194 <platform_main_end>:
    9194:	f3 0f 1e fa          	endbr64 
    9198:	55                   	push   %rbp
    9199:	48 89 e5             	mov    %rsp,%rbp
    919c:	48 83 ec 10          	sub    $0x10,%rsp
    91a0:	89 7d fc             	mov    %edi,-0x4(%rbp)
    91a3:	89 75 f8             	mov    %esi,-0x8(%rbp)
    91a6:	8b 45 fc             	mov    -0x4(%rbp),%eax
    91a9:	89 c6                	mov    %eax,%esi
    91ab:	48 8d 3d 6e 0e 01 00 	lea    0x10e6e(%rip),%rdi        # 1a020 <_IO_stdin_used+0x20>
    91b2:	b8 00 00 00 00       	mov    $0x0,%eax
    91b7:	e8 c4 fe ff ff       	callq  9080 <printf@plt>
    91bc:	90                   	nop
    91bd:	c9                   	leaveq 
    91be:	c3                   	retq   

00000000000091bf <safe_unary_minus_func_int8_t_s>:
    91bf:	f3 0f 1e fa          	endbr64 
    91c3:	55                   	push   %rbp
    91c4:	48 89 e5             	mov    %rsp,%rbp
    91c7:	89 f8                	mov    %edi,%eax
    91c9:	88 45 fc             	mov    %al,-0x4(%rbp)
    91cc:	0f b6 45 fc          	movzbl -0x4(%rbp),%eax
    91d0:	f7 d8                	neg    %eax
    91d2:	5d                   	pop    %rbp
    91d3:	c3                   	retq   

00000000000091d4 <safe_add_func_int8_t_s_s>:
    91d4:	f3 0f 1e fa          	endbr64 
    91d8:	55                   	push   %rbp
    91d9:	48 89 e5             	mov    %rsp,%rbp
    91dc:	89 fa                	mov    %edi,%edx
    91de:	89 f0                	mov    %esi,%eax
    91e0:	88 55 fc             	mov    %dl,-0x4(%rbp)
    91e3:	88 45 f8             	mov    %al,-0x8(%rbp)
    91e6:	0f b6 55 fc          	movzbl -0x4(%rbp),%edx
    91ea:	0f b6 45 f8          	movzbl -0x8(%rbp),%eax
    91ee:	01 d0                	add    %edx,%eax
    91f0:	5d                   	pop    %rbp
    91f1:	c3                   	retq   

00000000000091f2 <safe_sub_func_int8_t_s_s>:
    91f2:	f3 0f 1e fa          	endbr64 
    91f6:	55                   	push   %rbp
    91f7:	48 89 e5             	mov    %rsp,%rbp
    91fa:	89 fa                	mov    %edi,%edx
    91fc:	89 f0                	mov    %esi,%eax
    91fe:	88 55 fc             	mov    %dl,-0x4(%rbp)
    9201:	88 45 f8             	mov    %al,-0x8(%rbp)
    9204:	0f b6 55 fc          	movzbl -0x4(%rbp),%edx
    9208:	0f b6 45 f8          	movzbl -0x8(%rbp),%eax
    920c:	29 c2                	sub    %eax,%edx
    920e:	89 d0                	mov    %edx,%eax
    9210:	5d                   	pop    %rbp
    9211:	c3                   	retq   

0000000000009212 <safe_mul_func_int8_t_s_s>:
    9212:	f3 0f 1e fa          	endbr64 
    9216:	55                   	push   %rbp
    9217:	48 89 e5             	mov    %rsp,%rbp
    921a:	89 fa                	mov    %edi,%edx
    921c:	89 f0                	mov    %esi,%eax
    921e:	88 55 fc             	mov    %dl,-0x4(%rbp)
    9221:	88 45 f8             	mov    %al,-0x8(%rbp)
    9224:	0f b6 45 fc          	movzbl -0x4(%rbp),%eax
    9228:	0f b6 55 f8          	movzbl -0x8(%rbp),%edx
    922c:	0f af c2             	imul   %edx,%eax
    922f:	5d                   	pop    %rbp
    9230:	c3                   	retq   

0000000000009231 <safe_mod_func_int8_t_s_s>:
    9231:	f3 0f 1e fa          	endbr64 
    9235:	55                   	push   %rbp
    9236:	48 89 e5             	mov    %rsp,%rbp
    9239:	89 fa                	mov    %edi,%edx
    923b:	89 f0                	mov    %esi,%eax
    923d:	88 55 fc             	mov    %dl,-0x4(%rbp)
    9240:	88 45 f8             	mov    %al,-0x8(%rbp)
    9243:	80 7d f8 00          	cmpb   $0x0,-0x8(%rbp)
    9247:	74 1b                	je     9264 <safe_mod_func_int8_t_s_s+0x33>
    9249:	80 7d fc 80          	cmpb   $0x80,-0x4(%rbp)
    924d:	75 06                	jne    9255 <safe_mod_func_int8_t_s_s+0x24>
    924f:	80 7d f8 ff          	cmpb   $0xff,-0x8(%rbp)
    9253:	74 0f                	je     9264 <safe_mod_func_int8_t_s_s+0x33>
    9255:	0f be 45 fc          	movsbl -0x4(%rbp),%eax
    9259:	0f be 4d f8          	movsbl -0x8(%rbp),%ecx
    925d:	99                   	cltd   
    925e:	f7 f9                	idiv   %ecx
    9260:	89 d0                	mov    %edx,%eax
    9262:	eb 04                	jmp    9268 <safe_mod_func_int8_t_s_s+0x37>
    9264:	0f b6 45 fc          	movzbl -0x4(%rbp),%eax
    9268:	5d                   	pop    %rbp
    9269:	c3                   	retq   

000000000000926a <safe_div_func_int8_t_s_s>:
    926a:	f3 0f 1e fa          	endbr64 
    926e:	55                   	push   %rbp
    926f:	48 89 e5             	mov    %rsp,%rbp
    9272:	89 fa                	mov    %edi,%edx
    9274:	89 f0                	mov    %esi,%eax
    9276:	88 55 fc             	mov    %dl,-0x4(%rbp)
    9279:	88 45 f8             	mov    %al,-0x8(%rbp)
    927c:	80 7d f8 00          	cmpb   $0x0,-0x8(%rbp)
    9280:	74 19                	je     929b <safe_div_func_int8_t_s_s+0x31>
    9282:	80 7d fc 80          	cmpb   $0x80,-0x4(%rbp)
    9286:	75 06                	jne    928e <safe_div_func_int8_t_s_s+0x24>
    9288:	80 7d f8 ff          	cmpb   $0xff,-0x8(%rbp)
    928c:	74 0d                	je     929b <safe_div_func_int8_t_s_s+0x31>
    928e:	0f be 45 fc          	movsbl -0x4(%rbp),%eax
    9292:	0f be 4d f8          	movsbl -0x8(%rbp),%ecx
    9296:	99                   	cltd   
    9297:	f7 f9                	idiv   %ecx
    9299:	eb 04                	jmp    929f <safe_div_func_int8_t_s_s+0x35>
    929b:	0f b6 45 fc          	movzbl -0x4(%rbp),%eax
    929f:	5d                   	pop    %rbp
    92a0:	c3                   	retq   

00000000000092a1 <safe_lshift_func_int8_t_s_s>:
    92a1:	f3 0f 1e fa          	endbr64 
    92a5:	55                   	push   %rbp
    92a6:	48 89 e5             	mov    %rsp,%rbp
    92a9:	89 f8                	mov    %edi,%eax
    92ab:	89 75 f8             	mov    %esi,-0x8(%rbp)
    92ae:	88 45 fc             	mov    %al,-0x4(%rbp)
    92b1:	80 7d fc 00          	cmpb   $0x0,-0x4(%rbp)
    92b5:	78 31                	js     92e8 <safe_lshift_func_int8_t_s_s+0x47>
    92b7:	83 7d f8 00          	cmpl   $0x0,-0x8(%rbp)
    92bb:	78 2b                	js     92e8 <safe_lshift_func_int8_t_s_s+0x47>
    92bd:	83 7d f8 1f          	cmpl   $0x1f,-0x8(%rbp)
    92c1:	7f 25                	jg     92e8 <safe_lshift_func_int8_t_s_s+0x47>
    92c3:	0f be 55 fc          	movsbl -0x4(%rbp),%edx
    92c7:	8b 45 f8             	mov    -0x8(%rbp),%eax
    92ca:	be 7f 00 00 00       	mov    $0x7f,%esi
    92cf:	89 c1                	mov    %eax,%ecx
    92d1:	d3 fe                	sar    %cl,%esi
    92d3:	89 f0                	mov    %esi,%eax
    92d5:	39 c2                	cmp    %eax,%edx
    92d7:	7f 0f                	jg     92e8 <safe_lshift_func_int8_t_s_s+0x47>
    92d9:	0f be 55 fc          	movsbl -0x4(%rbp),%edx
    92dd:	8b 45 f8             	mov    -0x8(%rbp),%eax
    92e0:	89 c1                	mov    %eax,%ecx
    92e2:	d3 e2                	shl    %cl,%edx
    92e4:	89 d0                	mov    %edx,%eax
    92e6:	eb 04                	jmp    92ec <safe_lshift_func_int8_t_s_s+0x4b>
    92e8:	0f b6 45 fc          	movzbl -0x4(%rbp),%eax
    92ec:	5d                   	pop    %rbp
    92ed:	c3                   	retq   

00000000000092ee <safe_lshift_func_int8_t_s_u>:
    92ee:	f3 0f 1e fa          	endbr64 
    92f2:	55                   	push   %rbp
    92f3:	48 89 e5             	mov    %rsp,%rbp
    92f6:	89 f8                	mov    %edi,%eax
    92f8:	89 75 f8             	mov    %esi,-0x8(%rbp)
    92fb:	88 45 fc             	mov    %al,-0x4(%rbp)
    92fe:	80 7d fc 00          	cmpb   $0x0,-0x4(%rbp)
    9302:	78 2b                	js     932f <safe_lshift_func_int8_t_s_u+0x41>
    9304:	83 7d f8 1f          	cmpl   $0x1f,-0x8(%rbp)
    9308:	77 25                	ja     932f <safe_lshift_func_int8_t_s_u+0x41>
    930a:	0f be 55 fc          	movsbl -0x4(%rbp),%edx
    930e:	8b 45 f8             	mov    -0x8(%rbp),%eax
    9311:	be 7f 00 00 00       	mov    $0x7f,%esi
    9316:	89 c1                	mov    %eax,%ecx
    9318:	d3 fe                	sar    %cl,%esi
    931a:	89 f0                	mov    %esi,%eax
    931c:	39 c2                	cmp    %eax,%edx
    931e:	7f 0f                	jg     932f <safe_lshift_func_int8_t_s_u+0x41>
    9320:	0f be 55 fc          	movsbl -0x4(%rbp),%edx
    9324:	8b 45 f8             	mov    -0x8(%rbp),%eax
    9327:	89 c1                	mov    %eax,%ecx
    9329:	d3 e2                	shl    %cl,%edx
    932b:	89 d0                	mov    %edx,%eax
    932d:	eb 04                	jmp    9333 <safe_lshift_func_int8_t_s_u+0x45>
    932f:	0f b6 45 fc          	movzbl -0x4(%rbp),%eax
    9333:	5d                   	pop    %rbp
    9334:	c3                   	retq   

0000000000009335 <safe_rshift_func_int8_t_s_s>:
    9335:	f3 0f 1e fa          	endbr64 
    9339:	55                   	push   %rbp
    933a:	48 89 e5             	mov    %rsp,%rbp
    933d:	89 f8                	mov    %edi,%eax
    933f:	89 75 f8             	mov    %esi,-0x8(%rbp)
    9342:	88 45 fc             	mov    %al,-0x4(%rbp)
    9345:	80 7d fc 00          	cmpb   $0x0,-0x4(%rbp)
    9349:	78 1b                	js     9366 <safe_rshift_func_int8_t_s_s+0x31>
    934b:	83 7d f8 00          	cmpl   $0x0,-0x8(%rbp)
    934f:	78 15                	js     9366 <safe_rshift_func_int8_t_s_s+0x31>
    9351:	83 7d f8 1f          	cmpl   $0x1f,-0x8(%rbp)
    9355:	7f 0f                	jg     9366 <safe_rshift_func_int8_t_s_s+0x31>
    9357:	0f be 55 fc          	movsbl -0x4(%rbp),%edx
    935b:	8b 45 f8             	mov    -0x8(%rbp),%eax
    935e:	89 c1                	mov    %eax,%ecx
    9360:	d3 fa                	sar    %cl,%edx
    9362:	89 d0                	mov    %edx,%eax
    9364:	eb 04                	jmp    936a <safe_rshift_func_int8_t_s_s+0x35>
    9366:	0f b6 45 fc          	movzbl -0x4(%rbp),%eax
    936a:	5d                   	pop    %rbp
    936b:	c3                   	retq   

000000000000936c <safe_rshift_func_int8_t_s_u>:
    936c:	f3 0f 1e fa          	endbr64 
    9370:	55                   	push   %rbp
    9371:	48 89 e5             	mov    %rsp,%rbp
    9374:	89 f8                	mov    %edi,%eax
    9376:	89 75 f8             	mov    %esi,-0x8(%rbp)
    9379:	88 45 fc             	mov    %al,-0x4(%rbp)
    937c:	80 7d fc 00          	cmpb   $0x0,-0x4(%rbp)
    9380:	78 15                	js     9397 <safe_rshift_func_int8_t_s_u+0x2b>
    9382:	83 7d f8 1f          	cmpl   $0x1f,-0x8(%rbp)
    9386:	77 0f                	ja     9397 <safe_rshift_func_int8_t_s_u+0x2b>
    9388:	0f be 55 fc          	movsbl -0x4(%rbp),%edx
    938c:	8b 45 f8             	mov    -0x8(%rbp),%eax
    938f:	89 c1                	mov    %eax,%ecx
    9391:	d3 fa                	sar    %cl,%edx
    9393:	89 d0                	mov    %edx,%eax
    9395:	eb 04                	jmp    939b <safe_rshift_func_int8_t_s_u+0x2f>
    9397:	0f b6 45 fc          	movzbl -0x4(%rbp),%eax
    939b:	5d                   	pop    %rbp
    939c:	c3                   	retq   

000000000000939d <safe_unary_minus_func_int16_t_s>:
    939d:	f3 0f 1e fa          	endbr64 
    93a1:	55                   	push   %rbp
    93a2:	48 89 e5             	mov    %rsp,%rbp
    93a5:	89 f8                	mov    %edi,%eax
    93a7:	66 89 45 fc          	mov    %ax,-0x4(%rbp)
    93ab:	0f b7 45 fc          	movzwl -0x4(%rbp),%eax
    93af:	f7 d8                	neg    %eax
    93b1:	5d                   	pop    %rbp
    93b2:	c3                   	retq   

00000000000093b3 <safe_add_func_int16_t_s_s>:
    93b3:	f3 0f 1e fa          	endbr64 
    93b7:	55                   	push   %rbp
    93b8:	48 89 e5             	mov    %rsp,%rbp
    93bb:	89 fa                	mov    %edi,%edx
    93bd:	89 f0                	mov    %esi,%eax
    93bf:	66 89 55 fc          	mov    %dx,-0x4(%rbp)
    93c3:	66 89 45 f8          	mov    %ax,-0x8(%rbp)
    93c7:	0f b7 55 fc          	movzwl -0x4(%rbp),%edx
    93cb:	0f b7 45 f8          	movzwl -0x8(%rbp),%eax
    93cf:	01 d0                	add    %edx,%eax
    93d1:	5d                   	pop    %rbp
    93d2:	c3                   	retq   

00000000000093d3 <safe_sub_func_int16_t_s_s>:
    93d3:	f3 0f 1e fa          	endbr64 
    93d7:	55                   	push   %rbp
    93d8:	48 89 e5             	mov    %rsp,%rbp
    93db:	89 fa                	mov    %edi,%edx
    93dd:	89 f0                	mov    %esi,%eax
    93df:	66 89 55 fc          	mov    %dx,-0x4(%rbp)
    93e3:	66 89 45 f8          	mov    %ax,-0x8(%rbp)
    93e7:	0f b7 55 fc          	movzwl -0x4(%rbp),%edx
    93eb:	0f b7 45 f8          	movzwl -0x8(%rbp),%eax
    93ef:	29 c2                	sub    %eax,%edx
    93f1:	89 d0                	mov    %edx,%eax
    93f3:	5d                   	pop    %rbp
    93f4:	c3                   	retq   

00000000000093f5 <safe_mul_func_int16_t_s_s>:
    93f5:	f3 0f 1e fa          	endbr64 
    93f9:	55                   	push   %rbp
    93fa:	48 89 e5             	mov    %rsp,%rbp
    93fd:	89 fa                	mov    %edi,%edx
    93ff:	89 f0                	mov    %esi,%eax
    9401:	66 89 55 fc          	mov    %dx,-0x4(%rbp)
    9405:	66 89 45 f8          	mov    %ax,-0x8(%rbp)
    9409:	0f b7 55 fc          	movzwl -0x4(%rbp),%edx
    940d:	0f b7 45 f8          	movzwl -0x8(%rbp),%eax
    9411:	0f af c2             	imul   %edx,%eax
    9414:	5d                   	pop    %rbp
    9415:	c3                   	retq   

0000000000009416 <safe_mod_func_int16_t_s_s>:
    9416:	f3 0f 1e fa          	endbr64 
    941a:	55                   	push   %rbp
    941b:	48 89 e5             	mov    %rsp,%rbp
    941e:	89 fa                	mov    %edi,%edx
    9420:	89 f0                	mov    %esi,%eax
    9422:	66 89 55 fc          	mov    %dx,-0x4(%rbp)
    9426:	66 89 45 f8          	mov    %ax,-0x8(%rbp)
    942a:	66 83 7d f8 00       	cmpw   $0x0,-0x8(%rbp)
    942f:	74 1e                	je     944f <safe_mod_func_int16_t_s_s+0x39>
    9431:	66 81 7d fc 00 80    	cmpw   $0x8000,-0x4(%rbp)
    9437:	75 07                	jne    9440 <safe_mod_func_int16_t_s_s+0x2a>
    9439:	66 83 7d f8 ff       	cmpw   $0xffff,-0x8(%rbp)
    943e:	74 0f                	je     944f <safe_mod_func_int16_t_s_s+0x39>
    9440:	0f bf 45 fc          	movswl -0x4(%rbp),%eax
    9444:	0f bf 4d f8          	movswl -0x8(%rbp),%ecx
    9448:	99                   	cltd   
    9449:	f7 f9                	idiv   %ecx
    944b:	89 d0                	mov    %edx,%eax
    944d:	eb 04                	jmp    9453 <safe_mod_func_int16_t_s_s+0x3d>
    944f:	0f b7 45 fc          	movzwl -0x4(%rbp),%eax
    9453:	5d                   	pop    %rbp
    9454:	c3                   	retq   

0000000000009455 <safe_div_func_int16_t_s_s>:
    9455:	f3 0f 1e fa          	endbr64 
    9459:	55                   	push   %rbp
    945a:	48 89 e5             	mov    %rsp,%rbp
    945d:	89 fa                	mov    %edi,%edx
    945f:	89 f0                	mov    %esi,%eax
    9461:	66 89 55 fc          	mov    %dx,-0x4(%rbp)
    9465:	66 89 45 f8          	mov    %ax,-0x8(%rbp)
    9469:	66 83 7d f8 00       	cmpw   $0x0,-0x8(%rbp)
    946e:	74 1c                	je     948c <safe_div_func_int16_t_s_s+0x37>
    9470:	66 81 7d fc 00 80    	cmpw   $0x8000,-0x4(%rbp)
    9476:	75 07                	jne    947f <safe_div_func_int16_t_s_s+0x2a>
    9478:	66 83 7d f8 ff       	cmpw   $0xffff,-0x8(%rbp)
    947d:	74 0d                	je     948c <safe_div_func_int16_t_s_s+0x37>
    947f:	0f bf 45 fc          	movswl -0x4(%rbp),%eax
    9483:	0f bf 4d f8          	movswl -0x8(%rbp),%ecx
    9487:	99                   	cltd   
    9488:	f7 f9                	idiv   %ecx
    948a:	eb 04                	jmp    9490 <safe_div_func_int16_t_s_s+0x3b>
    948c:	0f b7 45 fc          	movzwl -0x4(%rbp),%eax
    9490:	5d                   	pop    %rbp
    9491:	c3                   	retq   

0000000000009492 <safe_lshift_func_int16_t_s_s>:
    9492:	f3 0f 1e fa          	endbr64 
    9496:	55                   	push   %rbp
    9497:	48 89 e5             	mov    %rsp,%rbp
    949a:	89 f8                	mov    %edi,%eax
    949c:	89 75 f8             	mov    %esi,-0x8(%rbp)
    949f:	66 89 45 fc          	mov    %ax,-0x4(%rbp)
    94a3:	66 83 7d fc 00       	cmpw   $0x0,-0x4(%rbp)
    94a8:	78 31                	js     94db <safe_lshift_func_int16_t_s_s+0x49>
    94aa:	83 7d f8 00          	cmpl   $0x0,-0x8(%rbp)
    94ae:	78 2b                	js     94db <safe_lshift_func_int16_t_s_s+0x49>
    94b0:	83 7d f8 1f          	cmpl   $0x1f,-0x8(%rbp)
    94b4:	7f 25                	jg     94db <safe_lshift_func_int16_t_s_s+0x49>
    94b6:	0f bf 55 fc          	movswl -0x4(%rbp),%edx
    94ba:	8b 45 f8             	mov    -0x8(%rbp),%eax
    94bd:	be ff 7f 00 00       	mov    $0x7fff,%esi
    94c2:	89 c1                	mov    %eax,%ecx
    94c4:	d3 fe                	sar    %cl,%esi
    94c6:	89 f0                	mov    %esi,%eax
    94c8:	39 c2                	cmp    %eax,%edx
    94ca:	7f 0f                	jg     94db <safe_lshift_func_int16_t_s_s+0x49>
    94cc:	0f bf 55 fc          	movswl -0x4(%rbp),%edx
    94d0:	8b 45 f8             	mov    -0x8(%rbp),%eax
    94d3:	89 c1                	mov    %eax,%ecx
    94d5:	d3 e2                	shl    %cl,%edx
    94d7:	89 d0                	mov    %edx,%eax
    94d9:	eb 04                	jmp    94df <safe_lshift_func_int16_t_s_s+0x4d>
    94db:	0f b7 45 fc          	movzwl -0x4(%rbp),%eax
    94df:	5d                   	pop    %rbp
    94e0:	c3                   	retq   

00000000000094e1 <safe_lshift_func_int16_t_s_u>:
    94e1:	f3 0f 1e fa          	endbr64 
    94e5:	55                   	push   %rbp
    94e6:	48 89 e5             	mov    %rsp,%rbp
    94e9:	89 f8                	mov    %edi,%eax
    94eb:	89 75 f8             	mov    %esi,-0x8(%rbp)
    94ee:	66 89 45 fc          	mov    %ax,-0x4(%rbp)
    94f2:	66 83 7d fc 00       	cmpw   $0x0,-0x4(%rbp)
    94f7:	78 2b                	js     9524 <safe_lshift_func_int16_t_s_u+0x43>
    94f9:	83 7d f8 1f          	cmpl   $0x1f,-0x8(%rbp)
    94fd:	77 25                	ja     9524 <safe_lshift_func_int16_t_s_u+0x43>
    94ff:	0f bf 55 fc          	movswl -0x4(%rbp),%edx
    9503:	8b 45 f8             	mov    -0x8(%rbp),%eax
    9506:	be ff 7f 00 00       	mov    $0x7fff,%esi
    950b:	89 c1                	mov    %eax,%ecx
    950d:	d3 fe                	sar    %cl,%esi
    950f:	89 f0                	mov    %esi,%eax
    9511:	39 c2                	cmp    %eax,%edx
    9513:	7f 0f                	jg     9524 <safe_lshift_func_int16_t_s_u+0x43>
    9515:	0f bf 55 fc          	movswl -0x4(%rbp),%edx
    9519:	8b 45 f8             	mov    -0x8(%rbp),%eax
    951c:	89 c1                	mov    %eax,%ecx
    951e:	d3 e2                	shl    %cl,%edx
    9520:	89 d0                	mov    %edx,%eax
    9522:	eb 04                	jmp    9528 <safe_lshift_func_int16_t_s_u+0x47>
    9524:	0f b7 45 fc          	movzwl -0x4(%rbp),%eax
    9528:	5d                   	pop    %rbp
    9529:	c3                   	retq   

000000000000952a <safe_rshift_func_int16_t_s_s>:
    952a:	f3 0f 1e fa          	endbr64 
    952e:	55                   	push   %rbp
    952f:	48 89 e5             	mov    %rsp,%rbp
    9532:	89 f8                	mov    %edi,%eax
    9534:	89 75 f8             	mov    %esi,-0x8(%rbp)
    9537:	66 89 45 fc          	mov    %ax,-0x4(%rbp)
    953b:	66 83 7d fc 00       	cmpw   $0x0,-0x4(%rbp)
    9540:	78 1b                	js     955d <safe_rshift_func_int16_t_s_s+0x33>
    9542:	83 7d f8 00          	cmpl   $0x0,-0x8(%rbp)
    9546:	78 15                	js     955d <safe_rshift_func_int16_t_s_s+0x33>
    9548:	83 7d f8 1f          	cmpl   $0x1f,-0x8(%rbp)
    954c:	7f 0f                	jg     955d <safe_rshift_func_int16_t_s_s+0x33>
    954e:	0f bf 55 fc          	movswl -0x4(%rbp),%edx
    9552:	8b 45 f8             	mov    -0x8(%rbp),%eax
    9555:	89 c1                	mov    %eax,%ecx
    9557:	d3 fa                	sar    %cl,%edx
    9559:	89 d0                	mov    %edx,%eax
    955b:	eb 04                	jmp    9561 <safe_rshift_func_int16_t_s_s+0x37>
    955d:	0f b7 45 fc          	movzwl -0x4(%rbp),%eax
    9561:	5d                   	pop    %rbp
    9562:	c3                   	retq   

0000000000009563 <safe_rshift_func_int16_t_s_u>:
    9563:	f3 0f 1e fa          	endbr64 
    9567:	55                   	push   %rbp
    9568:	48 89 e5             	mov    %rsp,%rbp
    956b:	89 f8                	mov    %edi,%eax
    956d:	89 75 f8             	mov    %esi,-0x8(%rbp)
    9570:	66 89 45 fc          	mov    %ax,-0x4(%rbp)
    9574:	66 83 7d fc 00       	cmpw   $0x0,-0x4(%rbp)
    9579:	78 15                	js     9590 <safe_rshift_func_int16_t_s_u+0x2d>
    957b:	83 7d f8 1f          	cmpl   $0x1f,-0x8(%rbp)
    957f:	77 0f                	ja     9590 <safe_rshift_func_int16_t_s_u+0x2d>
    9581:	0f bf 55 fc          	movswl -0x4(%rbp),%edx
    9585:	8b 45 f8             	mov    -0x8(%rbp),%eax
    9588:	89 c1                	mov    %eax,%ecx
    958a:	d3 fa                	sar    %cl,%edx
    958c:	89 d0                	mov    %edx,%eax
    958e:	eb 04                	jmp    9594 <safe_rshift_func_int16_t_s_u+0x31>
    9590:	0f b7 45 fc          	movzwl -0x4(%rbp),%eax
    9594:	5d                   	pop    %rbp
    9595:	c3                   	retq   

0000000000009596 <safe_unary_minus_func_int32_t_s>:
    9596:	f3 0f 1e fa          	endbr64 
    959a:	55                   	push   %rbp
    959b:	48 89 e5             	mov    %rsp,%rbp
    959e:	89 7d fc             	mov    %edi,-0x4(%rbp)
    95a1:	81 7d fc 00 00 00 80 	cmpl   $0x80000000,-0x4(%rbp)
    95a8:	74 07                	je     95b1 <safe_unary_minus_func_int32_t_s+0x1b>
    95aa:	8b 45 fc             	mov    -0x4(%rbp),%eax
    95ad:	f7 d8                	neg    %eax
    95af:	eb 03                	jmp    95b4 <safe_unary_minus_func_int32_t_s+0x1e>
    95b1:	8b 45 fc             	mov    -0x4(%rbp),%eax
    95b4:	5d                   	pop    %rbp
    95b5:	c3                   	retq   

00000000000095b6 <safe_add_func_int32_t_s_s>:
    95b6:	f3 0f 1e fa          	endbr64 
    95ba:	55                   	push   %rbp
    95bb:	48 89 e5             	mov    %rsp,%rbp
    95be:	89 7d fc             	mov    %edi,-0x4(%rbp)
    95c1:	89 75 f8             	mov    %esi,-0x8(%rbp)
    95c4:	83 7d fc 00          	cmpl   $0x0,-0x4(%rbp)
    95c8:	7e 13                	jle    95dd <safe_add_func_int32_t_s_s+0x27>
    95ca:	83 7d f8 00          	cmpl   $0x0,-0x8(%rbp)
    95ce:	7e 0d                	jle    95dd <safe_add_func_int32_t_s_s+0x27>
    95d0:	b8 ff ff ff 7f       	mov    $0x7fffffff,%eax
    95d5:	2b 45 f8             	sub    -0x8(%rbp),%eax
    95d8:	39 45 fc             	cmp    %eax,-0x4(%rbp)
    95db:	7f 23                	jg     9600 <safe_add_func_int32_t_s_s+0x4a>
    95dd:	83 7d fc 00          	cmpl   $0x0,-0x4(%rbp)
    95e1:	79 13                	jns    95f6 <safe_add_func_int32_t_s_s+0x40>
    95e3:	83 7d f8 00          	cmpl   $0x0,-0x8(%rbp)
    95e7:	79 0d                	jns    95f6 <safe_add_func_int32_t_s_s+0x40>
    95e9:	b8 00 00 00 80       	mov    $0x80000000,%eax
    95ee:	2b 45 f8             	sub    -0x8(%rbp),%eax
    95f1:	39 45 fc             	cmp    %eax,-0x4(%rbp)
    95f4:	7c 0a                	jl     9600 <safe_add_func_int32_t_s_s+0x4a>
    95f6:	8b 55 fc             	mov    -0x4(%rbp),%edx
    95f9:	8b 45 f8             	mov    -0x8(%rbp),%eax
    95fc:	01 d0                	add    %edx,%eax
    95fe:	eb 03                	jmp    9603 <safe_add_func_int32_t_s_s+0x4d>
    9600:	8b 45 fc             	mov    -0x4(%rbp),%eax
    9603:	5d                   	pop    %rbp
    9604:	c3                   	retq   

0000000000009605 <safe_sub_func_int32_t_s_s>:
    9605:	f3 0f 1e fa          	endbr64 
    9609:	55                   	push   %rbp
    960a:	48 89 e5             	mov    %rsp,%rbp
    960d:	89 7d fc             	mov    %edi,-0x4(%rbp)
    9610:	89 75 f8             	mov    %esi,-0x8(%rbp)
    9613:	8b 45 fc             	mov    -0x4(%rbp),%eax
    9616:	33 45 f8             	xor    -0x8(%rbp),%eax
    9619:	89 c2                	mov    %eax,%edx
    961b:	8b 45 fc             	mov    -0x4(%rbp),%eax
    961e:	33 45 f8             	xor    -0x8(%rbp),%eax
    9621:	25 00 00 00 80       	and    $0x80000000,%eax
    9626:	33 45 fc             	xor    -0x4(%rbp),%eax
    9629:	2b 45 f8             	sub    -0x8(%rbp),%eax
    962c:	33 45 f8             	xor    -0x8(%rbp),%eax
    962f:	21 d0                	and    %edx,%eax
    9631:	85 c0                	test   %eax,%eax
    9633:	78 08                	js     963d <safe_sub_func_int32_t_s_s+0x38>
    9635:	8b 45 fc             	mov    -0x4(%rbp),%eax
    9638:	2b 45 f8             	sub    -0x8(%rbp),%eax
    963b:	eb 03                	jmp    9640 <safe_sub_func_int32_t_s_s+0x3b>
    963d:	8b 45 fc             	mov    -0x4(%rbp),%eax
    9640:	5d                   	pop    %rbp
    9641:	c3                   	retq   

0000000000009642 <safe_mul_func_int32_t_s_s>:
    9642:	f3 0f 1e fa          	endbr64 
    9646:	55                   	push   %rbp
    9647:	48 89 e5             	mov    %rsp,%rbp
    964a:	89 7d fc             	mov    %edi,-0x4(%rbp)
    964d:	89 75 f8             	mov    %esi,-0x8(%rbp)
    9650:	83 7d fc 00          	cmpl   $0x0,-0x4(%rbp)
    9654:	7e 14                	jle    966a <safe_mul_func_int32_t_s_s+0x28>
    9656:	83 7d f8 00          	cmpl   $0x0,-0x8(%rbp)
    965a:	7e 0e                	jle    966a <safe_mul_func_int32_t_s_s+0x28>
    965c:	b8 ff ff ff 7f       	mov    $0x7fffffff,%eax
    9661:	99                   	cltd   
    9662:	f7 7d f8             	idivl  -0x8(%rbp)
    9665:	39 45 fc             	cmp    %eax,-0x4(%rbp)
    9668:	7f 5d                	jg     96c7 <safe_mul_func_int32_t_s_s+0x85>
    966a:	83 7d fc 00          	cmpl   $0x0,-0x4(%rbp)
    966e:	7e 14                	jle    9684 <safe_mul_func_int32_t_s_s+0x42>
    9670:	83 7d f8 00          	cmpl   $0x0,-0x8(%rbp)
    9674:	7f 0e                	jg     9684 <safe_mul_func_int32_t_s_s+0x42>
    9676:	b8 00 00 00 80       	mov    $0x80000000,%eax
    967b:	99                   	cltd   
    967c:	f7 7d fc             	idivl  -0x4(%rbp)
    967f:	39 45 f8             	cmp    %eax,-0x8(%rbp)
    9682:	7c 43                	jl     96c7 <safe_mul_func_int32_t_s_s+0x85>
    9684:	83 7d fc 00          	cmpl   $0x0,-0x4(%rbp)
    9688:	7f 14                	jg     969e <safe_mul_func_int32_t_s_s+0x5c>
    968a:	83 7d f8 00          	cmpl   $0x0,-0x8(%rbp)
    968e:	7e 0e                	jle    969e <safe_mul_func_int32_t_s_s+0x5c>
    9690:	b8 00 00 00 80       	mov    $0x80000000,%eax
    9695:	99                   	cltd   
    9696:	f7 7d f8             	idivl  -0x8(%rbp)
    9699:	39 45 fc             	cmp    %eax,-0x4(%rbp)
    969c:	7c 29                	jl     96c7 <safe_mul_func_int32_t_s_s+0x85>
    969e:	83 7d fc 00          	cmpl   $0x0,-0x4(%rbp)
    96a2:	7f 1a                	jg     96be <safe_mul_func_int32_t_s_s+0x7c>
    96a4:	83 7d f8 00          	cmpl   $0x0,-0x8(%rbp)
    96a8:	7f 14                	jg     96be <safe_mul_func_int32_t_s_s+0x7c>
    96aa:	83 7d fc 00          	cmpl   $0x0,-0x4(%rbp)
    96ae:	74 0e                	je     96be <safe_mul_func_int32_t_s_s+0x7c>
    96b0:	b8 ff ff ff 7f       	mov    $0x7fffffff,%eax
    96b5:	99                   	cltd   
    96b6:	f7 7d fc             	idivl  -0x4(%rbp)
    96b9:	39 45 f8             	cmp    %eax,-0x8(%rbp)
    96bc:	7c 09                	jl     96c7 <safe_mul_func_int32_t_s_s+0x85>
    96be:	8b 45 fc             	mov    -0x4(%rbp),%eax
    96c1:	0f af 45 f8          	imul   -0x8(%rbp),%eax
    96c5:	eb 03                	jmp    96ca <safe_mul_func_int32_t_s_s+0x88>
    96c7:	8b 45 fc             	mov    -0x4(%rbp),%eax
    96ca:	5d                   	pop    %rbp
    96cb:	c3                   	retq   

00000000000096cc <safe_mod_func_int32_t_s_s>:
    96cc:	f3 0f 1e fa          	endbr64 
    96d0:	55                   	push   %rbp
    96d1:	48 89 e5             	mov    %rsp,%rbp
    96d4:	89 7d fc             	mov    %edi,-0x4(%rbp)
    96d7:	89 75 f8             	mov    %esi,-0x8(%rbp)
    96da:	83 7d f8 00          	cmpl   $0x0,-0x8(%rbp)
    96de:	74 1a                	je     96fa <safe_mod_func_int32_t_s_s+0x2e>
    96e0:	81 7d fc 00 00 00 80 	cmpl   $0x80000000,-0x4(%rbp)
    96e7:	75 06                	jne    96ef <safe_mod_func_int32_t_s_s+0x23>
    96e9:	83 7d f8 ff          	cmpl   $0xffffffff,-0x8(%rbp)
    96ed:	74 0b                	je     96fa <safe_mod_func_int32_t_s_s+0x2e>
    96ef:	8b 45 fc             	mov    -0x4(%rbp),%eax
    96f2:	99                   	cltd   
    96f3:	f7 7d f8             	idivl  -0x8(%rbp)
    96f6:	89 d0                	mov    %edx,%eax
    96f8:	eb 03                	jmp    96fd <safe_mod_func_int32_t_s_s+0x31>
    96fa:	8b 45 fc             	mov    -0x4(%rbp),%eax
    96fd:	5d                   	pop    %rbp
    96fe:	c3                   	retq   

00000000000096ff <safe_div_func_int32_t_s_s>:
    96ff:	f3 0f 1e fa          	endbr64 
    9703:	55                   	push   %rbp
    9704:	48 89 e5             	mov    %rsp,%rbp
    9707:	89 7d fc             	mov    %edi,-0x4(%rbp)
    970a:	89 75 f8             	mov    %esi,-0x8(%rbp)
    970d:	83 7d f8 00          	cmpl   $0x0,-0x8(%rbp)
    9711:	74 18                	je     972b <safe_div_func_int32_t_s_s+0x2c>
    9713:	81 7d fc 00 00 00 80 	cmpl   $0x80000000,-0x4(%rbp)
    971a:	75 06                	jne    9722 <safe_div_func_int32_t_s_s+0x23>
    971c:	83 7d f8 ff          	cmpl   $0xffffffff,-0x8(%rbp)
    9720:	74 09                	je     972b <safe_div_func_int32_t_s_s+0x2c>
    9722:	8b 45 fc             	mov    -0x4(%rbp),%eax
    9725:	99                   	cltd   
    9726:	f7 7d f8             	idivl  -0x8(%rbp)
    9729:	eb 03                	jmp    972e <safe_div_func_int32_t_s_s+0x2f>
    972b:	8b 45 fc             	mov    -0x4(%rbp),%eax
    972e:	5d                   	pop    %rbp
    972f:	c3                   	retq   

0000000000009730 <safe_lshift_func_int32_t_s_s>:
    9730:	f3 0f 1e fa          	endbr64 
    9734:	55                   	push   %rbp
    9735:	48 89 e5             	mov    %rsp,%rbp
    9738:	89 7d fc             	mov    %edi,-0x4(%rbp)
    973b:	89 75 f8             	mov    %esi,-0x8(%rbp)
    973e:	83 7d fc 00          	cmpl   $0x0,-0x4(%rbp)
    9742:	78 2d                	js     9771 <safe_lshift_func_int32_t_s_s+0x41>
    9744:	83 7d f8 00          	cmpl   $0x0,-0x8(%rbp)
    9748:	78 27                	js     9771 <safe_lshift_func_int32_t_s_s+0x41>
    974a:	83 7d f8 1f          	cmpl   $0x1f,-0x8(%rbp)
    974e:	7f 21                	jg     9771 <safe_lshift_func_int32_t_s_s+0x41>
    9750:	8b 45 f8             	mov    -0x8(%rbp),%eax
    9753:	ba ff ff ff 7f       	mov    $0x7fffffff,%edx
    9758:	89 c1                	mov    %eax,%ecx
    975a:	d3 fa                	sar    %cl,%edx
    975c:	89 d0                	mov    %edx,%eax
    975e:	39 45 fc             	cmp    %eax,-0x4(%rbp)
    9761:	7f 0e                	jg     9771 <safe_lshift_func_int32_t_s_s+0x41>
    9763:	8b 45 f8             	mov    -0x8(%rbp),%eax
    9766:	8b 55 fc             	mov    -0x4(%rbp),%edx
    9769:	89 c1                	mov    %eax,%ecx
    976b:	d3 e2                	shl    %cl,%edx
    976d:	89 d0                	mov    %edx,%eax
    976f:	eb 03                	jmp    9774 <safe_lshift_func_int32_t_s_s+0x44>
    9771:	8b 45 fc             	mov    -0x4(%rbp),%eax
    9774:	5d                   	pop    %rbp
    9775:	c3                   	retq   

0000000000009776 <safe_lshift_func_int32_t_s_u>:
    9776:	f3 0f 1e fa          	endbr64 
    977a:	55                   	push   %rbp
    977b:	48 89 e5             	mov    %rsp,%rbp
    977e:	89 7d fc             	mov    %edi,-0x4(%rbp)
    9781:	89 75 f8             	mov    %esi,-0x8(%rbp)
    9784:	83 7d fc 00          	cmpl   $0x0,-0x4(%rbp)
    9788:	78 27                	js     97b1 <safe_lshift_func_int32_t_s_u+0x3b>
    978a:	83 7d f8 1f          	cmpl   $0x1f,-0x8(%rbp)
    978e:	77 21                	ja     97b1 <safe_lshift_func_int32_t_s_u+0x3b>
    9790:	8b 45 f8             	mov    -0x8(%rbp),%eax
    9793:	ba ff ff ff 7f       	mov    $0x7fffffff,%edx
    9798:	89 c1                	mov    %eax,%ecx
    979a:	d3 fa                	sar    %cl,%edx
    979c:	89 d0                	mov    %edx,%eax
    979e:	39 45 fc             	cmp    %eax,-0x4(%rbp)
    97a1:	7f 0e                	jg     97b1 <safe_lshift_func_int32_t_s_u+0x3b>
    97a3:	8b 45 f8             	mov    -0x8(%rbp),%eax
    97a6:	8b 55 fc             	mov    -0x4(%rbp),%edx
    97a9:	89 c1                	mov    %eax,%ecx
    97ab:	d3 e2                	shl    %cl,%edx
    97ad:	89 d0                	mov    %edx,%eax
    97af:	eb 03                	jmp    97b4 <safe_lshift_func_int32_t_s_u+0x3e>
    97b1:	8b 45 fc             	mov    -0x4(%rbp),%eax
    97b4:	5d                   	pop    %rbp
    97b5:	c3                   	retq   

00000000000097b6 <safe_rshift_func_int32_t_s_s>:
    97b6:	f3 0f 1e fa          	endbr64 
    97ba:	55                   	push   %rbp
    97bb:	48 89 e5             	mov    %rsp,%rbp
    97be:	89 7d fc             	mov    %edi,-0x4(%rbp)
    97c1:	89 75 f8             	mov    %esi,-0x8(%rbp)
    97c4:	83 7d fc 00          	cmpl   $0x0,-0x4(%rbp)
    97c8:	78 1a                	js     97e4 <safe_rshift_func_int32_t_s_s+0x2e>
    97ca:	83 7d f8 00          	cmpl   $0x0,-0x8(%rbp)
    97ce:	78 14                	js     97e4 <safe_rshift_func_int32_t_s_s+0x2e>
    97d0:	83 7d f8 1f          	cmpl   $0x1f,-0x8(%rbp)
    97d4:	7f 0e                	jg     97e4 <safe_rshift_func_int32_t_s_s+0x2e>
    97d6:	8b 45 f8             	mov    -0x8(%rbp),%eax
    97d9:	8b 55 fc             	mov    -0x4(%rbp),%edx
    97dc:	89 c1                	mov    %eax,%ecx
    97de:	d3 fa                	sar    %cl,%edx
    97e0:	89 d0                	mov    %edx,%eax
    97e2:	eb 03                	jmp    97e7 <safe_rshift_func_int32_t_s_s+0x31>
    97e4:	8b 45 fc             	mov    -0x4(%rbp),%eax
    97e7:	5d                   	pop    %rbp
    97e8:	c3                   	retq   

00000000000097e9 <safe_rshift_func_int32_t_s_u>:
    97e9:	f3 0f 1e fa          	endbr64 
    97ed:	55                   	push   %rbp
    97ee:	48 89 e5             	mov    %rsp,%rbp
    97f1:	89 7d fc             	mov    %edi,-0x4(%rbp)
    97f4:	89 75 f8             	mov    %esi,-0x8(%rbp)
    97f7:	83 7d fc 00          	cmpl   $0x0,-0x4(%rbp)
    97fb:	78 14                	js     9811 <safe_rshift_func_int32_t_s_u+0x28>
    97fd:	83 7d f8 1f          	cmpl   $0x1f,-0x8(%rbp)
    9801:	77 0e                	ja     9811 <safe_rshift_func_int32_t_s_u+0x28>
    9803:	8b 45 f8             	mov    -0x8(%rbp),%eax
    9806:	8b 55 fc             	mov    -0x4(%rbp),%edx
    9809:	89 c1                	mov    %eax,%ecx
    980b:	d3 fa                	sar    %cl,%edx
    980d:	89 d0                	mov    %edx,%eax
    980f:	eb 03                	jmp    9814 <safe_rshift_func_int32_t_s_u+0x2b>
    9811:	8b 45 fc             	mov    -0x4(%rbp),%eax
    9814:	5d                   	pop    %rbp
    9815:	c3                   	retq   

0000000000009816 <safe_unary_minus_func_int64_t_s>:
    9816:	f3 0f 1e fa          	endbr64 
    981a:	55                   	push   %rbp
    981b:	48 89 e5             	mov    %rsp,%rbp
    981e:	48 89 7d f8          	mov    %rdi,-0x8(%rbp)
    9822:	48 b8 00 00 00 00 00 	movabs $0x8000000000000000,%rax
    9829:	00 00 80 
    982c:	48 39 45 f8          	cmp    %rax,-0x8(%rbp)
    9830:	74 09                	je     983b <safe_unary_minus_func_int64_t_s+0x25>
    9832:	48 8b 45 f8          	mov    -0x8(%rbp),%rax
    9836:	48 f7 d8             	neg    %rax
    9839:	eb 04                	jmp    983f <safe_unary_minus_func_int64_t_s+0x29>
    983b:	48 8b 45 f8          	mov    -0x8(%rbp),%rax
    983f:	5d                   	pop    %rbp
    9840:	c3                   	retq   

0000000000009841 <safe_add_func_int64_t_s_s>:
    9841:	f3 0f 1e fa          	endbr64 
    9845:	55                   	push   %rbp
    9846:	48 89 e5             	mov    %rsp,%rbp
    9849:	48 89 7d f8          	mov    %rdi,-0x8(%rbp)
    984d:	48 89 75 f0          	mov    %rsi,-0x10(%rbp)
    9851:	48 83 7d f8 00       	cmpq   $0x0,-0x8(%rbp)
    9856:	7e 1b                	jle    9873 <safe_add_func_int64_t_s_s+0x32>
    9858:	48 83 7d f0 00       	cmpq   $0x0,-0x10(%rbp)
    985d:	7e 14                	jle    9873 <safe_add_func_int64_t_s_s+0x32>
    985f:	48 b8 ff ff ff ff ff 	movabs $0x7fffffffffffffff,%rax
    9866:	ff ff 7f 
    9869:	48 2b 45 f0          	sub    -0x10(%rbp),%rax
    986d:	48 39 45 f8          	cmp    %rax,-0x8(%rbp)
    9871:	7f 2f                	jg     98a2 <safe_add_func_int64_t_s_s+0x61>
    9873:	48 83 7d f8 00       	cmpq   $0x0,-0x8(%rbp)
    9878:	79 1b                	jns    9895 <safe_add_func_int64_t_s_s+0x54>
    987a:	48 83 7d f0 00       	cmpq   $0x0,-0x10(%rbp)
    987f:	79 14                	jns    9895 <safe_add_func_int64_t_s_s+0x54>
    9881:	48 b8 00 00 00 00 00 	movabs $0x8000000000000000,%rax
    9888:	00 00 80 
    988b:	48 2b 45 f0          	sub    -0x10(%rbp),%rax
    988f:	48 39 45 f8          	cmp    %rax,-0x8(%rbp)
    9893:	7c 0d                	jl     98a2 <safe_add_func_int64_t_s_s+0x61>
    9895:	48 8b 55 f8          	mov    -0x8(%rbp),%rdx
    9899:	48 8b 45 f0          	mov    -0x10(%rbp),%rax
    989d:	48 01 d0             	add    %rdx,%rax
    98a0:	eb 04                	jmp    98a6 <safe_add_func_int64_t_s_s+0x65>
    98a2:	48 8b 45 f8          	mov    -0x8(%rbp),%rax
    98a6:	5d                   	pop    %rbp
    98a7:	c3                   	retq   

00000000000098a8 <safe_sub_func_int64_t_s_s>:
    98a8:	f3 0f 1e fa          	endbr64 
    98ac:	55                   	push   %rbp
    98ad:	48 89 e5             	mov    %rsp,%rbp
    98b0:	48 89 7d f8          	mov    %rdi,-0x8(%rbp)
    98b4:	48 89 75 f0          	mov    %rsi,-0x10(%rbp)
    98b8:	48 8b 45 f8          	mov    -0x8(%rbp),%rax
    98bc:	48 33 45 f0          	xor    -0x10(%rbp),%rax
    98c0:	48 89 c2             	mov    %rax,%rdx
    98c3:	48 8b 45 f8          	mov    -0x8(%rbp),%rax
    98c7:	48 33 45 f0          	xor    -0x10(%rbp),%rax
    98cb:	48 b9 00 00 00 00 00 	movabs $0x8000000000000000,%rcx
    98d2:	00 00 80 
    98d5:	48 21 c8             	and    %rcx,%rax
    98d8:	48 33 45 f8          	xor    -0x8(%rbp),%rax
    98dc:	48 2b 45 f0          	sub    -0x10(%rbp),%rax
    98e0:	48 33 45 f0          	xor    -0x10(%rbp),%rax
    98e4:	48 21 d0             	and    %rdx,%rax
    98e7:	48 85 c0             	test   %rax,%rax
    98ea:	78 0a                	js     98f6 <safe_sub_func_int64_t_s_s+0x4e>
    98ec:	48 8b 45 f8          	mov    -0x8(%rbp),%rax
    98f0:	48 2b 45 f0          	sub    -0x10(%rbp),%rax
    98f4:	eb 04                	jmp    98fa <safe_sub_func_int64_t_s_s+0x52>
    98f6:	48 8b 45 f8          	mov    -0x8(%rbp),%rax
    98fa:	5d                   	pop    %rbp
    98fb:	c3                   	retq   

00000000000098fc <safe_mul_func_int64_t_s_s>:
    98fc:	f3 0f 1e fa          	endbr64 
    9900:	55                   	push   %rbp
    9901:	48 89 e5             	mov    %rsp,%rbp
    9904:	48 89 7d f8          	mov    %rdi,-0x8(%rbp)
    9908:	48 89 75 f0          	mov    %rsi,-0x10(%rbp)
    990c:	48 83 7d f8 00       	cmpq   $0x0,-0x8(%rbp)
    9911:	7e 1d                	jle    9930 <safe_mul_func_int64_t_s_s+0x34>
    9913:	48 83 7d f0 00       	cmpq   $0x0,-0x10(%rbp)
    9918:	7e 16                	jle    9930 <safe_mul_func_int64_t_s_s+0x34>
    991a:	48 b8 ff ff ff ff ff 	movabs $0x7fffffffffffffff,%rax
    9921:	ff ff 7f 
    9924:	48 99                	cqto   
    9926:	48 f7 7d f0          	idivq  -0x10(%rbp)
    992a:	48 39 45 f8          	cmp    %rax,-0x8(%rbp)
    992e:	7f 7e                	jg     99ae <safe_mul_func_int64_t_s_s+0xb2>
    9930:	48 83 7d f8 00       	cmpq   $0x0,-0x8(%rbp)
    9935:	7e 1d                	jle    9954 <safe_mul_func_int64_t_s_s+0x58>
    9937:	48 83 7d f0 00       	cmpq   $0x0,-0x10(%rbp)
    993c:	7f 16                	jg     9954 <safe_mul_func_int64_t_s_s+0x58>
    993e:	48 b8 00 00 00 00 00 	movabs $0x8000000000000000,%rax
    9945:	00 00 80 
    9948:	48 99                	cqto   
    994a:	48 f7 7d f8          	idivq  -0x8(%rbp)
    994e:	48 39 45 f0          	cmp    %rax,-0x10(%rbp)
    9952:	7c 5a                	jl     99ae <safe_mul_func_int64_t_s_s+0xb2>
    9954:	48 83 7d f8 00       	cmpq   $0x0,-0x8(%rbp)
    9959:	7f 1d                	jg     9978 <safe_mul_func_int64_t_s_s+0x7c>
    995b:	48 83 7d f0 00       	cmpq   $0x0,-0x10(%rbp)
    9960:	7e 16                	jle    9978 <safe_mul_func_int64_t_s_s+0x7c>
    9962:	48 b8 00 00 00 00 00 	movabs $0x8000000000000000,%rax
    9969:	00 00 80 
    996c:	48 99                	cqto   
    996e:	48 f7 7d f0          	idivq  -0x10(%rbp)
    9972:	48 39 45 f8          	cmp    %rax,-0x8(%rbp)
    9976:	7c 36                	jl     99ae <safe_mul_func_int64_t_s_s+0xb2>
    9978:	48 83 7d f8 00       	cmpq   $0x0,-0x8(%rbp)
    997d:	7f 24                	jg     99a3 <safe_mul_func_int64_t_s_s+0xa7>
    997f:	48 83 7d f0 00       	cmpq   $0x0,-0x10(%rbp)
    9984:	7f 1d                	jg     99a3 <safe_mul_func_int64_t_s_s+0xa7>
    9986:	48 83 7d f8 00       	cmpq   $0x0,-0x8(%rbp)
    998b:	74 16                	je     99a3 <safe_mul_func_int64_t_s_s+0xa7>
    998d:	48 b8 ff ff ff ff ff 	movabs $0x7fffffffffffffff,%rax
    9994:	ff ff 7f 
    9997:	48 99                	cqto   
    9999:	48 f7 7d f8          	idivq  -0x8(%rbp)
    999d:	48 39 45 f0          	cmp    %rax,-0x10(%rbp)
    99a1:	7c 0b                	jl     99ae <safe_mul_func_int64_t_s_s+0xb2>
    99a3:	48 8b 45 f8          	mov    -0x8(%rbp),%rax
    99a7:	48 0f af 45 f0       	imul   -0x10(%rbp),%rax
    99ac:	eb 04                	jmp    99b2 <safe_mul_func_int64_t_s_s+0xb6>
    99ae:	48 8b 45 f8          	mov    -0x8(%rbp),%rax
    99b2:	5d                   	pop    %rbp
    99b3:	c3                   	retq   

00000000000099b4 <safe_mod_func_int64_t_s_s>:
    99b4:	f3 0f 1e fa          	endbr64 
    99b8:	55                   	push   %rbp
    99b9:	48 89 e5             	mov    %rsp,%rbp
    99bc:	48 89 7d f8          	mov    %rdi,-0x8(%rbp)
    99c0:	48 89 75 f0          	mov    %rsi,-0x10(%rbp)
    99c4:	48 83 7d f0 00       	cmpq   $0x0,-0x10(%rbp)
    99c9:	74 26                	je     99f1 <safe_mod_func_int64_t_s_s+0x3d>
    99cb:	48 b8 00 00 00 00 00 	movabs $0x8000000000000000,%rax
    99d2:	00 00 80 
    99d5:	48 39 45 f8          	cmp    %rax,-0x8(%rbp)
    99d9:	75 07                	jne    99e2 <safe_mod_func_int64_t_s_s+0x2e>
    99db:	48 83 7d f0 ff       	cmpq   $0xffffffffffffffff,-0x10(%rbp)
    99e0:	74 0f                	je     99f1 <safe_mod_func_int64_t_s_s+0x3d>
    99e2:	48 8b 45 f8          	mov    -0x8(%rbp),%rax
    99e6:	48 99                	cqto   
    99e8:	48 f7 7d f0          	idivq  -0x10(%rbp)
    99ec:	48 89 d0             	mov    %rdx,%rax
    99ef:	eb 04                	jmp    99f5 <safe_mod_func_int64_t_s_s+0x41>
    99f1:	48 8b 45 f8          	mov    -0x8(%rbp),%rax
    99f5:	5d                   	pop    %rbp
    99f6:	c3                   	retq   

00000000000099f7 <safe_div_func_int64_t_s_s>:
    99f7:	f3 0f 1e fa          	endbr64 
    99fb:	55                   	push   %rbp
    99fc:	48 89 e5             	mov    %rsp,%rbp
    99ff:	48 89 7d f8          	mov    %rdi,-0x8(%rbp)
    9a03:	48 89 75 f0          	mov    %rsi,-0x10(%rbp)
    9a07:	48 83 7d f0 00       	cmpq   $0x0,-0x10(%rbp)
    9a0c:	74 23                	je     9a31 <safe_div_func_int64_t_s_s+0x3a>
    9a0e:	48 b8 00 00 00 00 00 	movabs $0x8000000000000000,%rax
    9a15:	00 00 80 
    9a18:	48 39 45 f8          	cmp    %rax,-0x8(%rbp)
    9a1c:	75 07                	jne    9a25 <safe_div_func_int64_t_s_s+0x2e>
    9a1e:	48 83 7d f0 ff       	cmpq   $0xffffffffffffffff,-0x10(%rbp)
    9a23:	74 0c                	je     9a31 <safe_div_func_int64_t_s_s+0x3a>
    9a25:	48 8b 45 f8          	mov    -0x8(%rbp),%rax
    9a29:	48 99                	cqto   
    9a2b:	48 f7 7d f0          	idivq  -0x10(%rbp)
    9a2f:	eb 04                	jmp    9a35 <safe_div_func_int64_t_s_s+0x3e>
    9a31:	48 8b 45 f8          	mov    -0x8(%rbp),%rax
    9a35:	5d                   	pop    %rbp
    9a36:	c3                   	retq   

0000000000009a37 <safe_lshift_func_int64_t_s_s>:
    9a37:	f3 0f 1e fa          	endbr64 
    9a3b:	55                   	push   %rbp
    9a3c:	48 89 e5             	mov    %rsp,%rbp
    9a3f:	48 89 7d f8          	mov    %rdi,-0x8(%rbp)
    9a43:	89 75 f4             	mov    %esi,-0xc(%rbp)
    9a46:	48 83 7d f8 00       	cmpq   $0x0,-0x8(%rbp)
    9a4b:	78 38                	js     9a85 <safe_lshift_func_int64_t_s_s+0x4e>
    9a4d:	83 7d f4 00          	cmpl   $0x0,-0xc(%rbp)
    9a51:	78 32                	js     9a85 <safe_lshift_func_int64_t_s_s+0x4e>
    9a53:	83 7d f4 1f          	cmpl   $0x1f,-0xc(%rbp)
    9a57:	7f 2c                	jg     9a85 <safe_lshift_func_int64_t_s_s+0x4e>
    9a59:	8b 45 f4             	mov    -0xc(%rbp),%eax
    9a5c:	48 ba ff ff ff ff ff 	movabs $0x7fffffffffffffff,%rdx
    9a63:	ff ff 7f 
    9a66:	89 c1                	mov    %eax,%ecx
    9a68:	48 d3 fa             	sar    %cl,%rdx
    9a6b:	48 89 d0             	mov    %rdx,%rax
    9a6e:	48 39 45 f8          	cmp    %rax,-0x8(%rbp)
    9a72:	7f 11                	jg     9a85 <safe_lshift_func_int64_t_s_s+0x4e>
    9a74:	8b 45 f4             	mov    -0xc(%rbp),%eax
    9a77:	48 8b 55 f8          	mov    -0x8(%rbp),%rdx
    9a7b:	89 c1                	mov    %eax,%ecx
    9a7d:	48 d3 e2             	shl    %cl,%rdx
    9a80:	48 89 d0             	mov    %rdx,%rax
    9a83:	eb 04                	jmp    9a89 <safe_lshift_func_int64_t_s_s+0x52>
    9a85:	48 8b 45 f8          	mov    -0x8(%rbp),%rax
    9a89:	5d                   	pop    %rbp
    9a8a:	c3                   	retq   

0000000000009a8b <safe_lshift_func_int64_t_s_u>:
    9a8b:	f3 0f 1e fa          	endbr64 
    9a8f:	55                   	push   %rbp
    9a90:	48 89 e5             	mov    %rsp,%rbp
    9a93:	48 89 7d f8          	mov    %rdi,-0x8(%rbp)
    9a97:	89 75 f4             	mov    %esi,-0xc(%rbp)
    9a9a:	48 83 7d f8 00       	cmpq   $0x0,-0x8(%rbp)
    9a9f:	78 32                	js     9ad3 <safe_lshift_func_int64_t_s_u+0x48>
    9aa1:	83 7d f4 1f          	cmpl   $0x1f,-0xc(%rbp)
    9aa5:	77 2c                	ja     9ad3 <safe_lshift_func_int64_t_s_u+0x48>
    9aa7:	8b 45 f4             	mov    -0xc(%rbp),%eax
    9aaa:	48 ba ff ff ff ff ff 	movabs $0x7fffffffffffffff,%rdx
    9ab1:	ff ff 7f 
    9ab4:	89 c1                	mov    %eax,%ecx
    9ab6:	48 d3 fa             	sar    %cl,%rdx
    9ab9:	48 89 d0             	mov    %rdx,%rax
    9abc:	48 39 45 f8          	cmp    %rax,-0x8(%rbp)
    9ac0:	7f 11                	jg     9ad3 <safe_lshift_func_int64_t_s_u+0x48>
    9ac2:	8b 45 f4             	mov    -0xc(%rbp),%eax
    9ac5:	48 8b 55 f8          	mov    -0x8(%rbp),%rdx
    9ac9:	89 c1                	mov    %eax,%ecx
    9acb:	48 d3 e2             	shl    %cl,%rdx
    9ace:	48 89 d0             	mov    %rdx,%rax
    9ad1:	eb 04                	jmp    9ad7 <safe_lshift_func_int64_t_s_u+0x4c>
    9ad3:	48 8b 45 f8          	mov    -0x8(%rbp),%rax
    9ad7:	5d                   	pop    %rbp
    9ad8:	c3                   	retq   

0000000000009ad9 <safe_rshift_func_int64_t_s_s>:
    9ad9:	f3 0f 1e fa          	endbr64 
    9add:	55                   	push   %rbp
    9ade:	48 89 e5             	mov    %rsp,%rbp
    9ae1:	48 89 7d f8          	mov    %rdi,-0x8(%rbp)
    9ae5:	89 75 f4             	mov    %esi,-0xc(%rbp)
    9ae8:	48 83 7d f8 00       	cmpq   $0x0,-0x8(%rbp)
    9aed:	78 1d                	js     9b0c <safe_rshift_func_int64_t_s_s+0x33>
    9aef:	83 7d f4 00          	cmpl   $0x0,-0xc(%rbp)
    9af3:	78 17                	js     9b0c <safe_rshift_func_int64_t_s_s+0x33>
    9af5:	83 7d f4 1f          	cmpl   $0x1f,-0xc(%rbp)
    9af9:	7f 11                	jg     9b0c <safe_rshift_func_int64_t_s_s+0x33>
    9afb:	8b 45 f4             	mov    -0xc(%rbp),%eax
    9afe:	48 8b 55 f8          	mov    -0x8(%rbp),%rdx
    9b02:	89 c1                	mov    %eax,%ecx
    9b04:	48 d3 fa             	sar    %cl,%rdx
    9b07:	48 89 d0             	mov    %rdx,%rax
    9b0a:	eb 04                	jmp    9b10 <safe_rshift_func_int64_t_s_s+0x37>
    9b0c:	48 8b 45 f8          	mov    -0x8(%rbp),%rax
    9b10:	5d                   	pop    %rbp
    9b11:	c3                   	retq   

0000000000009b12 <safe_rshift_func_int64_t_s_u>:
    9b12:	f3 0f 1e fa          	endbr64 
    9b16:	55                   	push   %rbp
    9b17:	48 89 e5             	mov    %rsp,%rbp
    9b1a:	48 89 7d f8          	mov    %rdi,-0x8(%rbp)
    9b1e:	89 75 f4             	mov    %esi,-0xc(%rbp)
    9b21:	48 83 7d f8 00       	cmpq   $0x0,-0x8(%rbp)
    9b26:	78 17                	js     9b3f <safe_rshift_func_int64_t_s_u+0x2d>
    9b28:	83 7d f4 1f          	cmpl   $0x1f,-0xc(%rbp)
    9b2c:	77 11                	ja     9b3f <safe_rshift_func_int64_t_s_u+0x2d>
    9b2e:	8b 45 f4             	mov    -0xc(%rbp),%eax
    9b31:	48 8b 55 f8          	mov    -0x8(%rbp),%rdx
    9b35:	89 c1                	mov    %eax,%ecx
    9b37:	48 d3 fa             	sar    %cl,%rdx
    9b3a:	48 89 d0             	mov    %rdx,%rax
    9b3d:	eb 04                	jmp    9b43 <safe_rshift_func_int64_t_s_u+0x31>
    9b3f:	48 8b 45 f8          	mov    -0x8(%rbp),%rax
    9b43:	5d                   	pop    %rbp
    9b44:	c3                   	retq   

0000000000009b45 <safe_unary_minus_func_uint8_t_u>:
    9b45:	f3 0f 1e fa          	endbr64 
    9b49:	55                   	push   %rbp
    9b4a:	48 89 e5             	mov    %rsp,%rbp
    9b4d:	89 f8                	mov    %edi,%eax
    9b4f:	88 45 fc             	mov    %al,-0x4(%rbp)
    9b52:	0f b6 45 fc          	movzbl -0x4(%rbp),%eax
    9b56:	f7 d8                	neg    %eax
    9b58:	5d                   	pop    %rbp
    9b59:	c3                   	retq   

0000000000009b5a <safe_add_func_uint8_t_u_u>:
    9b5a:	f3 0f 1e fa          	endbr64 
    9b5e:	55                   	push   %rbp
    9b5f:	48 89 e5             	mov    %rsp,%rbp
    9b62:	89 fa                	mov    %edi,%edx
    9b64:	89 f0                	mov    %esi,%eax
    9b66:	88 55 fc             	mov    %dl,-0x4(%rbp)
    9b69:	88 45 f8             	mov    %al,-0x8(%rbp)
    9b6c:	0f b6 55 fc          	movzbl -0x4(%rbp),%edx
    9b70:	0f b6 45 f8          	movzbl -0x8(%rbp),%eax
    9b74:	01 d0                	add    %edx,%eax
    9b76:	5d                   	pop    %rbp
    9b77:	c3                   	retq   

0000000000009b78 <safe_sub_func_uint8_t_u_u>:
    9b78:	f3 0f 1e fa          	endbr64 
    9b7c:	55                   	push   %rbp
    9b7d:	48 89 e5             	mov    %rsp,%rbp
    9b80:	89 fa                	mov    %edi,%edx
    9b82:	89 f0                	mov    %esi,%eax
    9b84:	88 55 fc             	mov    %dl,-0x4(%rbp)
    9b87:	88 45 f8             	mov    %al,-0x8(%rbp)
    9b8a:	0f b6 45 fc          	movzbl -0x4(%rbp),%eax
    9b8e:	2a 45 f8             	sub    -0x8(%rbp),%al
    9b91:	5d                   	pop    %rbp
    9b92:	c3                   	retq   

0000000000009b93 <safe_mul_func_uint8_t_u_u>:
    9b93:	f3 0f 1e fa          	endbr64 
    9b97:	55                   	push   %rbp
    9b98:	48 89 e5             	mov    %rsp,%rbp
    9b9b:	89 fa                	mov    %edi,%edx
    9b9d:	89 f0                	mov    %esi,%eax
    9b9f:	88 55 fc             	mov    %dl,-0x4(%rbp)
    9ba2:	88 45 f8             	mov    %al,-0x8(%rbp)
    9ba5:	0f b6 45 fc          	movzbl -0x4(%rbp),%eax
    9ba9:	f6 65 f8             	mulb   -0x8(%rbp)
    9bac:	5d                   	pop    %rbp
    9bad:	c3                   	retq   

0000000000009bae <safe_mod_func_uint8_t_u_u>:
    9bae:	f3 0f 1e fa          	endbr64 
    9bb2:	55                   	push   %rbp
    9bb3:	48 89 e5             	mov    %rsp,%rbp
    9bb6:	89 fa                	mov    %edi,%edx
    9bb8:	89 f0                	mov    %esi,%eax
    9bba:	88 55 fc             	mov    %dl,-0x4(%rbp)
    9bbd:	88 45 f8             	mov    %al,-0x8(%rbp)
    9bc0:	80 7d f8 00          	cmpb   $0x0,-0x8(%rbp)
    9bc4:	74 0f                	je     9bd5 <safe_mod_func_uint8_t_u_u+0x27>
    9bc6:	0f b6 45 fc          	movzbl -0x4(%rbp),%eax
    9bca:	0f b6 c0             	movzbl %al,%eax
    9bcd:	f6 75 f8             	divb   -0x8(%rbp)
    9bd0:	0f b6 c4             	movzbl %ah,%eax
    9bd3:	eb 04                	jmp    9bd9 <safe_mod_func_uint8_t_u_u+0x2b>
    9bd5:	0f b6 45 fc          	movzbl -0x4(%rbp),%eax
    9bd9:	5d                   	pop    %rbp
    9bda:	c3                   	retq   

0000000000009bdb <safe_div_func_uint8_t_u_u>:
    9bdb:	f3 0f 1e fa          	endbr64 
    9bdf:	55                   	push   %rbp
    9be0:	48 89 e5             	mov    %rsp,%rbp
    9be3:	89 fa                	mov    %edi,%edx
    9be5:	89 f0                	mov    %esi,%eax
    9be7:	88 55 fc             	mov    %dl,-0x4(%rbp)
    9bea:	88 45 f8             	mov    %al,-0x8(%rbp)
    9bed:	80 7d f8 00          	cmpb   $0x0,-0x8(%rbp)
    9bf1:	74 0c                	je     9bff <safe_div_func_uint8_t_u_u+0x24>
    9bf3:	0f b6 45 fc          	movzbl -0x4(%rbp),%eax
    9bf7:	0f b6 c0             	movzbl %al,%eax
    9bfa:	f6 75 f8             	divb   -0x8(%rbp)
    9bfd:	eb 04                	jmp    9c03 <safe_div_func_uint8_t_u_u+0x28>
    9bff:	0f b6 45 fc          	movzbl -0x4(%rbp),%eax
    9c03:	5d                   	pop    %rbp
    9c04:	c3                   	retq   

0000000000009c05 <safe_lshift_func_uint8_t_u_s>:
    9c05:	f3 0f 1e fa          	endbr64 
    9c09:	55                   	push   %rbp
    9c0a:	48 89 e5             	mov    %rsp,%rbp
    9c0d:	89 f8                	mov    %edi,%eax
    9c0f:	89 75 f8             	mov    %esi,-0x8(%rbp)
    9c12:	88 45 fc             	mov    %al,-0x4(%rbp)
    9c15:	83 7d f8 00          	cmpl   $0x0,-0x8(%rbp)
    9c19:	78 2b                	js     9c46 <safe_lshift_func_uint8_t_u_s+0x41>
    9c1b:	83 7d f8 1f          	cmpl   $0x1f,-0x8(%rbp)
    9c1f:	7f 25                	jg     9c46 <safe_lshift_func_uint8_t_u_s+0x41>
    9c21:	0f b6 55 fc          	movzbl -0x4(%rbp),%edx
    9c25:	8b 45 f8             	mov    -0x8(%rbp),%eax
    9c28:	be ff 00 00 00       	mov    $0xff,%esi
    9c2d:	89 c1                	mov    %eax,%ecx
    9c2f:	d3 fe                	sar    %cl,%esi
    9c31:	89 f0                	mov    %esi,%eax
    9c33:	39 c2                	cmp    %eax,%edx
    9c35:	7f 0f                	jg     9c46 <safe_lshift_func_uint8_t_u_s+0x41>
    9c37:	0f b6 55 fc          	movzbl -0x4(%rbp),%edx
    9c3b:	8b 45 f8             	mov    -0x8(%rbp),%eax
    9c3e:	89 c1                	mov    %eax,%ecx
    9c40:	d3 e2                	shl    %cl,%edx
    9c42:	89 d0                	mov    %edx,%eax
    9c44:	eb 04                	jmp    9c4a <safe_lshift_func_uint8_t_u_s+0x45>
    9c46:	0f b6 45 fc          	movzbl -0x4(%rbp),%eax
    9c4a:	5d                   	pop    %rbp
    9c4b:	c3                   	retq   

0000000000009c4c <safe_lshift_func_uint8_t_u_u>:
    9c4c:	f3 0f 1e fa          	endbr64 
    9c50:	55                   	push   %rbp
    9c51:	48 89 e5             	mov    %rsp,%rbp
    9c54:	89 f8                	mov    %edi,%eax
    9c56:	89 75 f8             	mov    %esi,-0x8(%rbp)
    9c59:	88 45 fc             	mov    %al,-0x4(%rbp)
    9c5c:	83 7d f8 1f          	cmpl   $0x1f,-0x8(%rbp)
    9c60:	77 25                	ja     9c87 <safe_lshift_func_uint8_t_u_u+0x3b>
    9c62:	0f b6 55 fc          	movzbl -0x4(%rbp),%edx
    9c66:	8b 45 f8             	mov    -0x8(%rbp),%eax
    9c69:	be ff 00 00 00       	mov    $0xff,%esi
    9c6e:	89 c1                	mov    %eax,%ecx
    9c70:	d3 fe                	sar    %cl,%esi
    9c72:	89 f0                	mov    %esi,%eax
    9c74:	39 c2                	cmp    %eax,%edx
    9c76:	7f 0f                	jg     9c87 <safe_lshift_func_uint8_t_u_u+0x3b>
    9c78:	0f b6 55 fc          	movzbl -0x4(%rbp),%edx
    9c7c:	8b 45 f8             	mov    -0x8(%rbp),%eax
    9c7f:	89 c1                	mov    %eax,%ecx
    9c81:	d3 e2                	shl    %cl,%edx
    9c83:	89 d0                	mov    %edx,%eax
    9c85:	eb 04                	jmp    9c8b <safe_lshift_func_uint8_t_u_u+0x3f>
    9c87:	0f b6 45 fc          	movzbl -0x4(%rbp),%eax
    9c8b:	5d                   	pop    %rbp
    9c8c:	c3                   	retq   

0000000000009c8d <safe_rshift_func_uint8_t_u_s>:
    9c8d:	f3 0f 1e fa          	endbr64 
    9c91:	55                   	push   %rbp
    9c92:	48 89 e5             	mov    %rsp,%rbp
    9c95:	89 f8                	mov    %edi,%eax
    9c97:	89 75 f8             	mov    %esi,-0x8(%rbp)
    9c9a:	88 45 fc             	mov    %al,-0x4(%rbp)
    9c9d:	83 7d f8 00          	cmpl   $0x0,-0x8(%rbp)
    9ca1:	78 15                	js     9cb8 <safe_rshift_func_uint8_t_u_s+0x2b>
    9ca3:	83 7d f8 1f          	cmpl   $0x1f,-0x8(%rbp)
    9ca7:	7f 0f                	jg     9cb8 <safe_rshift_func_uint8_t_u_s+0x2b>
    9ca9:	0f b6 55 fc          	movzbl -0x4(%rbp),%edx
    9cad:	8b 45 f8             	mov    -0x8(%rbp),%eax
    9cb0:	89 c1                	mov    %eax,%ecx
    9cb2:	d3 fa                	sar    %cl,%edx
    9cb4:	89 d0                	mov    %edx,%eax
    9cb6:	eb 04                	jmp    9cbc <safe_rshift_func_uint8_t_u_s+0x2f>
    9cb8:	0f b6 45 fc          	movzbl -0x4(%rbp),%eax
    9cbc:	5d                   	pop    %rbp
    9cbd:	c3                   	retq   

0000000000009cbe <safe_rshift_func_uint8_t_u_u>:
    9cbe:	f3 0f 1e fa          	endbr64 
    9cc2:	55                   	push   %rbp
    9cc3:	48 89 e5             	mov    %rsp,%rbp
    9cc6:	89 f8                	mov    %edi,%eax
    9cc8:	89 75 f8             	mov    %esi,-0x8(%rbp)
    9ccb:	88 45 fc             	mov    %al,-0x4(%rbp)
    9cce:	83 7d f8 1f          	cmpl   $0x1f,-0x8(%rbp)
    9cd2:	77 0f                	ja     9ce3 <safe_rshift_func_uint8_t_u_u+0x25>
    9cd4:	0f b6 55 fc          	movzbl -0x4(%rbp),%edx
    9cd8:	8b 45 f8             	mov    -0x8(%rbp),%eax
    9cdb:	89 c1                	mov    %eax,%ecx
    9cdd:	d3 fa                	sar    %cl,%edx
    9cdf:	89 d0                	mov    %edx,%eax
    9ce1:	eb 04                	jmp    9ce7 <safe_rshift_func_uint8_t_u_u+0x29>
    9ce3:	0f b6 45 fc          	movzbl -0x4(%rbp),%eax
    9ce7:	5d                   	pop    %rbp
    9ce8:	c3                   	retq   

0000000000009ce9 <safe_unary_minus_func_uint16_t_u>:
    9ce9:	f3 0f 1e fa          	endbr64 
    9ced:	55                   	push   %rbp
    9cee:	48 89 e5             	mov    %rsp,%rbp
    9cf1:	89 f8                	mov    %edi,%eax
    9cf3:	66 89 45 fc          	mov    %ax,-0x4(%rbp)
    9cf7:	0f b7 45 fc          	movzwl -0x4(%rbp),%eax
    9cfb:	f7 d8                	neg    %eax
    9cfd:	5d                   	pop    %rbp
    9cfe:	c3                   	retq   

0000000000009cff <safe_add_func_uint16_t_u_u>:
    9cff:	f3 0f 1e fa          	endbr64 
    9d03:	55                   	push   %rbp
    9d04:	48 89 e5             	mov    %rsp,%rbp
    9d07:	89 fa                	mov    %edi,%edx
    9d09:	89 f0                	mov    %esi,%eax
    9d0b:	66 89 55 fc          	mov    %dx,-0x4(%rbp)
    9d0f:	66 89 45 f8          	mov    %ax,-0x8(%rbp)
    9d13:	0f b7 55 fc          	movzwl -0x4(%rbp),%edx
    9d17:	0f b7 45 f8          	movzwl -0x8(%rbp),%eax
    9d1b:	01 d0                	add    %edx,%eax
    9d1d:	5d                   	pop    %rbp
    9d1e:	c3                   	retq   

0000000000009d1f <safe_sub_func_uint16_t_u_u>:
    9d1f:	f3 0f 1e fa          	endbr64 
    9d23:	55                   	push   %rbp
    9d24:	48 89 e5             	mov    %rsp,%rbp
    9d27:	89 fa                	mov    %edi,%edx
    9d29:	89 f0                	mov    %esi,%eax
    9d2b:	66 89 55 fc          	mov    %dx,-0x4(%rbp)
    9d2f:	66 89 45 f8          	mov    %ax,-0x8(%rbp)
    9d33:	0f b7 45 fc          	movzwl -0x4(%rbp),%eax
    9d37:	66 2b 45 f8          	sub    -0x8(%rbp),%ax
    9d3b:	5d                   	pop    %rbp
    9d3c:	c3                   	retq   

0000000000009d3d <safe_mul_func_uint16_t_u_u>:
    9d3d:	f3 0f 1e fa          	endbr64 
    9d41:	55                   	push   %rbp
    9d42:	48 89 e5             	mov    %rsp,%rbp
    9d45:	89 fa                	mov    %edi,%edx
    9d47:	89 f0                	mov    %esi,%eax
    9d49:	66 89 55 fc          	mov    %dx,-0x4(%rbp)
    9d4d:	66 89 45 f8          	mov    %ax,-0x8(%rbp)
    9d51:	0f b7 45 fc          	movzwl -0x4(%rbp),%eax
    9d55:	66 0f af 45 f8       	imul   -0x8(%rbp),%ax
    9d5a:	5d                   	pop    %rbp
    9d5b:	c3                   	retq   

0000000000009d5c <safe_mod_func_uint16_t_u_u>:
    9d5c:	f3 0f 1e fa          	endbr64 
    9d60:	55                   	push   %rbp
    9d61:	48 89 e5             	mov    %rsp,%rbp
    9d64:	89 fa                	mov    %edi,%edx
    9d66:	89 f0                	mov    %esi,%eax
    9d68:	66 89 55 fc          	mov    %dx,-0x4(%rbp)
    9d6c:	66 89 45 f8          	mov    %ax,-0x8(%rbp)
    9d70:	66 83 7d f8 00       	cmpw   $0x0,-0x8(%rbp)
    9d75:	74 11                	je     9d88 <safe_mod_func_uint16_t_u_u+0x2c>
    9d77:	0f b7 45 fc          	movzwl -0x4(%rbp),%eax
    9d7b:	ba 00 00 00 00       	mov    $0x0,%edx
    9d80:	66 f7 75 f8          	divw   -0x8(%rbp)
    9d84:	89 d0                	mov    %edx,%eax
    9d86:	eb 04                	jmp    9d8c <safe_mod_func_uint16_t_u_u+0x30>
    9d88:	0f b7 45 fc          	movzwl -0x4(%rbp),%eax
    9d8c:	5d                   	pop    %rbp
    9d8d:	c3                   	retq   

0000000000009d8e <safe_div_func_uint16_t_u_u>:
    9d8e:	f3 0f 1e fa          	endbr64 
    9d92:	55                   	push   %rbp
    9d93:	48 89 e5             	mov    %rsp,%rbp
    9d96:	89 fa                	mov    %edi,%edx
    9d98:	89 f0                	mov    %esi,%eax
    9d9a:	66 89 55 fc          	mov    %dx,-0x4(%rbp)
    9d9e:	66 89 45 f8          	mov    %ax,-0x8(%rbp)
    9da2:	66 83 7d f8 00       	cmpw   $0x0,-0x8(%rbp)
    9da7:	74 0f                	je     9db8 <safe_div_func_uint16_t_u_u+0x2a>
    9da9:	0f b7 45 fc          	movzwl -0x4(%rbp),%eax
    9dad:	ba 00 00 00 00       	mov    $0x0,%edx
    9db2:	66 f7 75 f8          	divw   -0x8(%rbp)
    9db6:	eb 04                	jmp    9dbc <safe_div_func_uint16_t_u_u+0x2e>
    9db8:	0f b7 45 fc          	movzwl -0x4(%rbp),%eax
    9dbc:	5d                   	pop    %rbp
    9dbd:	c3                   	retq   

0000000000009dbe <safe_lshift_func_uint16_t_u_s>:
    9dbe:	f3 0f 1e fa          	endbr64 
    9dc2:	55                   	push   %rbp
    9dc3:	48 89 e5             	mov    %rsp,%rbp
    9dc6:	89 f8                	mov    %edi,%eax
    9dc8:	89 75 f8             	mov    %esi,-0x8(%rbp)
    9dcb:	66 89 45 fc          	mov    %ax,-0x4(%rbp)
    9dcf:	83 7d f8 00          	cmpl   $0x0,-0x8(%rbp)
    9dd3:	78 2b                	js     9e00 <safe_lshift_func_uint16_t_u_s+0x42>
    9dd5:	83 7d f8 1f          	cmpl   $0x1f,-0x8(%rbp)
    9dd9:	7f 25                	jg     9e00 <safe_lshift_func_uint16_t_u_s+0x42>
    9ddb:	0f b7 55 fc          	movzwl -0x4(%rbp),%edx
    9ddf:	8b 45 f8             	mov    -0x8(%rbp),%eax
    9de2:	be ff ff 00 00       	mov    $0xffff,%esi
    9de7:	89 c1                	mov    %eax,%ecx
    9de9:	d3 fe                	sar    %cl,%esi
    9deb:	89 f0                	mov    %esi,%eax
    9ded:	39 c2                	cmp    %eax,%edx
    9def:	7f 0f                	jg     9e00 <safe_lshift_func_uint16_t_u_s+0x42>
    9df1:	0f b7 55 fc          	movzwl -0x4(%rbp),%edx
    9df5:	8b 45 f8             	mov    -0x8(%rbp),%eax
    9df8:	89 c1                	mov    %eax,%ecx
    9dfa:	d3 e2                	shl    %cl,%edx
    9dfc:	89 d0                	mov    %edx,%eax
    9dfe:	eb 04                	jmp    9e04 <safe_lshift_func_uint16_t_u_s+0x46>
    9e00:	0f b7 45 fc          	movzwl -0x4(%rbp),%eax
    9e04:	5d                   	pop    %rbp
    9e05:	c3                   	retq   

0000000000009e06 <safe_lshift_func_uint16_t_u_u>:
    9e06:	f3 0f 1e fa          	endbr64 
    9e0a:	55                   	push   %rbp
    9e0b:	48 89 e5             	mov    %rsp,%rbp
    9e0e:	89 f8                	mov    %edi,%eax
    9e10:	89 75 f8             	mov    %esi,-0x8(%rbp)
    9e13:	66 89 45 fc          	mov    %ax,-0x4(%rbp)
    9e17:	83 7d f8 1f          	cmpl   $0x1f,-0x8(%rbp)
    9e1b:	77 25                	ja     9e42 <safe_lshift_func_uint16_t_u_u+0x3c>
    9e1d:	0f b7 55 fc          	movzwl -0x4(%rbp),%edx
    9e21:	8b 45 f8             	mov    -0x8(%rbp),%eax
    9e24:	be ff ff 00 00       	mov    $0xffff,%esi
    9e29:	89 c1                	mov    %eax,%ecx
    9e2b:	d3 fe                	sar    %cl,%esi
    9e2d:	89 f0                	mov    %esi,%eax
    9e2f:	39 c2                	cmp    %eax,%edx
    9e31:	7f 0f                	jg     9e42 <safe_lshift_func_uint16_t_u_u+0x3c>
    9e33:	0f b7 55 fc          	movzwl -0x4(%rbp),%edx
    9e37:	8b 45 f8             	mov    -0x8(%rbp),%eax
    9e3a:	89 c1                	mov    %eax,%ecx
    9e3c:	d3 e2                	shl    %cl,%edx
    9e3e:	89 d0                	mov    %edx,%eax
    9e40:	eb 04                	jmp    9e46 <safe_lshift_func_uint16_t_u_u+0x40>
    9e42:	0f b7 45 fc          	movzwl -0x4(%rbp),%eax
    9e46:	5d                   	pop    %rbp
    9e47:	c3                   	retq   

0000000000009e48 <safe_rshift_func_uint16_t_u_s>:
    9e48:	f3 0f 1e fa          	endbr64 
    9e4c:	55                   	push   %rbp
    9e4d:	48 89 e5             	mov    %rsp,%rbp
    9e50:	89 f8                	mov    %edi,%eax
    9e52:	89 75 f8             	mov    %esi,-0x8(%rbp)
    9e55:	66 89 45 fc          	mov    %ax,-0x4(%rbp)
    9e59:	83 7d f8 00          	cmpl   $0x0,-0x8(%rbp)
    9e5d:	78 15                	js     9e74 <safe_rshift_func_uint16_t_u_s+0x2c>
    9e5f:	83 7d f8 1f          	cmpl   $0x1f,-0x8(%rbp)
    9e63:	7f 0f                	jg     9e74 <safe_rshift_func_uint16_t_u_s+0x2c>
    9e65:	0f b7 55 fc          	movzwl -0x4(%rbp),%edx
    9e69:	8b 45 f8             	mov    -0x8(%rbp),%eax
    9e6c:	89 c1                	mov    %eax,%ecx
    9e6e:	d3 fa                	sar    %cl,%edx
    9e70:	89 d0                	mov    %edx,%eax
    9e72:	eb 04                	jmp    9e78 <safe_rshift_func_uint16_t_u_s+0x30>
    9e74:	0f b7 45 fc          	movzwl -0x4(%rbp),%eax
    9e78:	5d                   	pop    %rbp
    9e79:	c3                   	retq   

0000000000009e7a <safe_rshift_func_uint16_t_u_u>:
    9e7a:	f3 0f 1e fa          	endbr64 
    9e7e:	55                   	push   %rbp
    9e7f:	48 89 e5             	mov    %rsp,%rbp
    9e82:	89 f8                	mov    %edi,%eax
    9e84:	89 75 f8             	mov    %esi,-0x8(%rbp)
    9e87:	66 89 45 fc          	mov    %ax,-0x4(%rbp)
    9e8b:	83 7d f8 1f          	cmpl   $0x1f,-0x8(%rbp)
    9e8f:	77 0f                	ja     9ea0 <safe_rshift_func_uint16_t_u_u+0x26>
    9e91:	0f b7 55 fc          	movzwl -0x4(%rbp),%edx
    9e95:	8b 45 f8             	mov    -0x8(%rbp),%eax
    9e98:	89 c1                	mov    %eax,%ecx
    9e9a:	d3 fa                	sar    %cl,%edx
    9e9c:	89 d0                	mov    %edx,%eax
    9e9e:	eb 04                	jmp    9ea4 <safe_rshift_func_uint16_t_u_u+0x2a>
    9ea0:	0f b7 45 fc          	movzwl -0x4(%rbp),%eax
    9ea4:	5d                   	pop    %rbp
    9ea5:	c3                   	retq   

0000000000009ea6 <safe_unary_minus_func_uint32_t_u>:
    9ea6:	f3 0f 1e fa          	endbr64 
    9eaa:	55                   	push   %rbp
    9eab:	48 89 e5             	mov    %rsp,%rbp
    9eae:	89 7d fc             	mov    %edi,-0x4(%rbp)
    9eb1:	8b 45 fc             	mov    -0x4(%rbp),%eax
    9eb4:	f7 d8                	neg    %eax
    9eb6:	5d                   	pop    %rbp
    9eb7:	c3                   	retq   

0000000000009eb8 <safe_add_func_uint32_t_u_u>:
    9eb8:	f3 0f 1e fa          	endbr64 
    9ebc:	55                   	push   %rbp
    9ebd:	48 89 e5             	mov    %rsp,%rbp
    9ec0:	89 7d fc             	mov    %edi,-0x4(%rbp)
    9ec3:	89 75 f8             	mov    %esi,-0x8(%rbp)
    9ec6:	8b 55 fc             	mov    -0x4(%rbp),%edx
    9ec9:	8b 45 f8             	mov    -0x8(%rbp),%eax
    9ecc:	01 d0                	add    %edx,%eax
    9ece:	5d                   	pop    %rbp
    9ecf:	c3                   	retq   

0000000000009ed0 <safe_sub_func_uint32_t_u_u>:
    9ed0:	f3 0f 1e fa          	endbr64 
    9ed4:	55                   	push   %rbp
    9ed5:	48 89 e5             	mov    %rsp,%rbp
    9ed8:	89 7d fc             	mov    %edi,-0x4(%rbp)
    9edb:	89 75 f8             	mov    %esi,-0x8(%rbp)
    9ede:	8b 45 fc             	mov    -0x4(%rbp),%eax
    9ee1:	2b 45 f8             	sub    -0x8(%rbp),%eax
    9ee4:	5d                   	pop    %rbp
    9ee5:	c3                   	retq   

0000000000009ee6 <safe_mul_func_uint32_t_u_u>:
    9ee6:	f3 0f 1e fa          	endbr64 
    9eea:	55                   	push   %rbp
    9eeb:	48 89 e5             	mov    %rsp,%rbp
    9eee:	89 7d fc             	mov    %edi,-0x4(%rbp)
    9ef1:	89 75 f8             	mov    %esi,-0x8(%rbp)
    9ef4:	8b 45 fc             	mov    -0x4(%rbp),%eax
    9ef7:	0f af 45 f8          	imul   -0x8(%rbp),%eax
    9efb:	5d                   	pop    %rbp
    9efc:	c3                   	retq   

0000000000009efd <safe_mod_func_uint32_t_u_u>:
    9efd:	f3 0f 1e fa          	endbr64 
    9f01:	55                   	push   %rbp
    9f02:	48 89 e5             	mov    %rsp,%rbp
    9f05:	89 7d fc             	mov    %edi,-0x4(%rbp)
    9f08:	89 75 f8             	mov    %esi,-0x8(%rbp)
    9f0b:	83 7d f8 00          	cmpl   $0x0,-0x8(%rbp)
    9f0f:	74 0f                	je     9f20 <safe_mod_func_uint32_t_u_u+0x23>
    9f11:	8b 45 fc             	mov    -0x4(%rbp),%eax
    9f14:	ba 00 00 00 00       	mov    $0x0,%edx
    9f19:	f7 75 f8             	divl   -0x8(%rbp)
    9f1c:	89 d0                	mov    %edx,%eax
    9f1e:	eb 03                	jmp    9f23 <safe_mod_func_uint32_t_u_u+0x26>
    9f20:	8b 45 fc             	mov    -0x4(%rbp),%eax
    9f23:	5d                   	pop    %rbp
    9f24:	c3                   	retq   

0000000000009f25 <safe_div_func_uint32_t_u_u>:
    9f25:	f3 0f 1e fa          	endbr64 
    9f29:	55                   	push   %rbp
    9f2a:	48 89 e5             	mov    %rsp,%rbp
    9f2d:	89 7d fc             	mov    %edi,-0x4(%rbp)
    9f30:	89 75 f8             	mov    %esi,-0x8(%rbp)
    9f33:	83 7d f8 00          	cmpl   $0x0,-0x8(%rbp)
    9f37:	74 0d                	je     9f46 <safe_div_func_uint32_t_u_u+0x21>
    9f39:	8b 45 fc             	mov    -0x4(%rbp),%eax
    9f3c:	ba 00 00 00 00       	mov    $0x0,%edx
    9f41:	f7 75 f8             	divl   -0x8(%rbp)
    9f44:	eb 03                	jmp    9f49 <safe_div_func_uint32_t_u_u+0x24>
    9f46:	8b 45 fc             	mov    -0x4(%rbp),%eax
    9f49:	5d                   	pop    %rbp
    9f4a:	c3                   	retq   

0000000000009f4b <safe_lshift_func_uint32_t_u_s>:
    9f4b:	f3 0f 1e fa          	endbr64 
    9f4f:	55                   	push   %rbp
    9f50:	48 89 e5             	mov    %rsp,%rbp
    9f53:	89 7d fc             	mov    %edi,-0x4(%rbp)
    9f56:	89 75 f8             	mov    %esi,-0x8(%rbp)
    9f59:	83 7d f8 00          	cmpl   $0x0,-0x8(%rbp)
    9f5d:	78 27                	js     9f86 <safe_lshift_func_uint32_t_u_s+0x3b>
    9f5f:	83 7d f8 1f          	cmpl   $0x1f,-0x8(%rbp)
    9f63:	7f 21                	jg     9f86 <safe_lshift_func_uint32_t_u_s+0x3b>
    9f65:	8b 45 f8             	mov    -0x8(%rbp),%eax
    9f68:	ba ff ff ff ff       	mov    $0xffffffff,%edx
    9f6d:	89 c1                	mov    %eax,%ecx
    9f6f:	d3 ea                	shr    %cl,%edx
    9f71:	89 d0                	mov    %edx,%eax
    9f73:	39 45 fc             	cmp    %eax,-0x4(%rbp)
    9f76:	77 0e                	ja     9f86 <safe_lshift_func_uint32_t_u_s+0x3b>
    9f78:	8b 45 f8             	mov    -0x8(%rbp),%eax
    9f7b:	8b 55 fc             	mov    -0x4(%rbp),%edx
    9f7e:	89 c1                	mov    %eax,%ecx
    9f80:	d3 e2                	shl    %cl,%edx
    9f82:	89 d0                	mov    %edx,%eax
    9f84:	eb 03                	jmp    9f89 <safe_lshift_func_uint32_t_u_s+0x3e>
    9f86:	8b 45 fc             	mov    -0x4(%rbp),%eax
    9f89:	5d                   	pop    %rbp
    9f8a:	c3                   	retq   

0000000000009f8b <safe_lshift_func_uint32_t_u_u>:
    9f8b:	f3 0f 1e fa          	endbr64 
    9f8f:	55                   	push   %rbp
    9f90:	48 89 e5             	mov    %rsp,%rbp
    9f93:	89 7d fc             	mov    %edi,-0x4(%rbp)
    9f96:	89 75 f8             	mov    %esi,-0x8(%rbp)
    9f99:	83 7d f8 1f          	cmpl   $0x1f,-0x8(%rbp)
    9f9d:	77 21                	ja     9fc0 <safe_lshift_func_uint32_t_u_u+0x35>
    9f9f:	8b 45 f8             	mov    -0x8(%rbp),%eax
    9fa2:	ba ff ff ff ff       	mov    $0xffffffff,%edx
    9fa7:	89 c1                	mov    %eax,%ecx
    9fa9:	d3 ea                	shr    %cl,%edx
    9fab:	89 d0                	mov    %edx,%eax
    9fad:	39 45 fc             	cmp    %eax,-0x4(%rbp)
    9fb0:	77 0e                	ja     9fc0 <safe_lshift_func_uint32_t_u_u+0x35>
    9fb2:	8b 45 f8             	mov    -0x8(%rbp),%eax
    9fb5:	8b 55 fc             	mov    -0x4(%rbp),%edx
    9fb8:	89 c1                	mov    %eax,%ecx
    9fba:	d3 e2                	shl    %cl,%edx
    9fbc:	89 d0                	mov    %edx,%eax
    9fbe:	eb 03                	jmp    9fc3 <safe_lshift_func_uint32_t_u_u+0x38>
    9fc0:	8b 45 fc             	mov    -0x4(%rbp),%eax
    9fc3:	5d                   	pop    %rbp
    9fc4:	c3                   	retq   

0000000000009fc5 <safe_rshift_func_uint32_t_u_s>:
    9fc5:	f3 0f 1e fa          	endbr64 
    9fc9:	55                   	push   %rbp
    9fca:	48 89 e5             	mov    %rsp,%rbp
    9fcd:	89 7d fc             	mov    %edi,-0x4(%rbp)
    9fd0:	89 75 f8             	mov    %esi,-0x8(%rbp)
    9fd3:	83 7d f8 00          	cmpl   $0x0,-0x8(%rbp)
    9fd7:	78 14                	js     9fed <safe_rshift_func_uint32_t_u_s+0x28>
    9fd9:	83 7d f8 1f          	cmpl   $0x1f,-0x8(%rbp)
    9fdd:	7f 0e                	jg     9fed <safe_rshift_func_uint32_t_u_s+0x28>
    9fdf:	8b 45 f8             	mov    -0x8(%rbp),%eax
    9fe2:	8b 55 fc             	mov    -0x4(%rbp),%edx
    9fe5:	89 c1                	mov    %eax,%ecx
    9fe7:	d3 ea                	shr    %cl,%edx
    9fe9:	89 d0                	mov    %edx,%eax
    9feb:	eb 03                	jmp    9ff0 <safe_rshift_func_uint32_t_u_s+0x2b>
    9fed:	8b 45 fc             	mov    -0x4(%rbp),%eax
    9ff0:	5d                   	pop    %rbp
    9ff1:	c3                   	retq   

0000000000009ff2 <safe_rshift_func_uint32_t_u_u>:
    9ff2:	f3 0f 1e fa          	endbr64 
    9ff6:	55                   	push   %rbp
    9ff7:	48 89 e5             	mov    %rsp,%rbp
    9ffa:	89 7d fc             	mov    %edi,-0x4(%rbp)
    9ffd:	89 75 f8             	mov    %esi,-0x8(%rbp)
    a000:	83 7d f8 1f          	cmpl   $0x1f,-0x8(%rbp)
    a004:	77 0e                	ja     a014 <safe_rshift_func_uint32_t_u_u+0x22>
    a006:	8b 45 f8             	mov    -0x8(%rbp),%eax
    a009:	8b 55 fc             	mov    -0x4(%rbp),%edx
    a00c:	89 c1                	mov    %eax,%ecx
    a00e:	d3 ea                	shr    %cl,%edx
    a010:	89 d0                	mov    %edx,%eax
    a012:	eb 03                	jmp    a017 <safe_rshift_func_uint32_t_u_u+0x25>
    a014:	8b 45 fc             	mov    -0x4(%rbp),%eax
    a017:	5d                   	pop    %rbp
    a018:	c3                   	retq   

000000000000a019 <safe_unary_minus_func_uint64_t_u>:
    a019:	f3 0f 1e fa          	endbr64 
    a01d:	55                   	push   %rbp
    a01e:	48 89 e5             	mov    %rsp,%rbp
    a021:	48 89 7d f8          	mov    %rdi,-0x8(%rbp)
    a025:	48 8b 45 f8          	mov    -0x8(%rbp),%rax
    a029:	48 f7 d8             	neg    %rax
    a02c:	5d                   	pop    %rbp
    a02d:	c3                   	retq   

000000000000a02e <safe_add_func_uint64_t_u_u>:
    a02e:	f3 0f 1e fa          	endbr64 
    a032:	55                   	push   %rbp
    a033:	48 89 e5             	mov    %rsp,%rbp
    a036:	48 89 7d f8          	mov    %rdi,-0x8(%rbp)
    a03a:	48 89 75 f0          	mov    %rsi,-0x10(%rbp)
    a03e:	48 8b 55 f8          	mov    -0x8(%rbp),%rdx
    a042:	48 8b 45 f0          	mov    -0x10(%rbp),%rax
    a046:	48 01 d0             	add    %rdx,%rax
    a049:	5d                   	pop    %rbp
    a04a:	c3                   	retq   

000000000000a04b <safe_sub_func_uint64_t_u_u>:
    a04b:	f3 0f 1e fa          	endbr64 
    a04f:	55                   	push   %rbp
    a050:	48 89 e5             	mov    %rsp,%rbp
    a053:	48 89 7d f8          	mov    %rdi,-0x8(%rbp)
    a057:	48 89 75 f0          	mov    %rsi,-0x10(%rbp)
    a05b:	48 8b 45 f8          	mov    -0x8(%rbp),%rax
    a05f:	48 2b 45 f0          	sub    -0x10(%rbp),%rax
    a063:	5d                   	pop    %rbp
    a064:	c3                   	retq   

000000000000a065 <safe_mul_func_uint64_t_u_u>:
    a065:	f3 0f 1e fa          	endbr64 
    a069:	55                   	push   %rbp
    a06a:	48 89 e5             	mov    %rsp,%rbp
    a06d:	48 89 7d f8          	mov    %rdi,-0x8(%rbp)
    a071:	48 89 75 f0          	mov    %rsi,-0x10(%rbp)
    a075:	48 8b 45 f8          	mov    -0x8(%rbp),%rax
    a079:	48 0f af 45 f0       	imul   -0x10(%rbp),%rax
    a07e:	5d                   	pop    %rbp
    a07f:	c3                   	retq   

000000000000a080 <safe_mod_func_uint64_t_u_u>:
    a080:	f3 0f 1e fa          	endbr64 
    a084:	55                   	push   %rbp
    a085:	48 89 e5             	mov    %rsp,%rbp
    a088:	48 89 7d f8          	mov    %rdi,-0x8(%rbp)
    a08c:	48 89 75 f0          	mov    %rsi,-0x10(%rbp)
    a090:	48 83 7d f0 00       	cmpq   $0x0,-0x10(%rbp)
    a095:	74 12                	je     a0a9 <safe_mod_func_uint64_t_u_u+0x29>
    a097:	48 8b 45 f8          	mov    -0x8(%rbp),%rax
    a09b:	ba 00 00 00 00       	mov    $0x0,%edx
    a0a0:	48 f7 75 f0          	divq   -0x10(%rbp)
    a0a4:	48 89 d0             	mov    %rdx,%rax
    a0a7:	eb 04                	jmp    a0ad <safe_mod_func_uint64_t_u_u+0x2d>
    a0a9:	48 8b 45 f8          	mov    -0x8(%rbp),%rax
    a0ad:	5d                   	pop    %rbp
    a0ae:	c3                   	retq   

000000000000a0af <safe_div_func_uint64_t_u_u>:
    a0af:	f3 0f 1e fa          	endbr64 
    a0b3:	55                   	push   %rbp
    a0b4:	48 89 e5             	mov    %rsp,%rbp
    a0b7:	48 89 7d f8          	mov    %rdi,-0x8(%rbp)
    a0bb:	48 89 75 f0          	mov    %rsi,-0x10(%rbp)
    a0bf:	48 83 7d f0 00       	cmpq   $0x0,-0x10(%rbp)
    a0c4:	74 0f                	je     a0d5 <safe_div_func_uint64_t_u_u+0x26>
    a0c6:	48 8b 45 f8          	mov    -0x8(%rbp),%rax
    a0ca:	ba 00 00 00 00       	mov    $0x0,%edx
    a0cf:	48 f7 75 f0          	divq   -0x10(%rbp)
    a0d3:	eb 04                	jmp    a0d9 <safe_div_func_uint64_t_u_u+0x2a>
    a0d5:	48 8b 45 f8          	mov    -0x8(%rbp),%rax
    a0d9:	5d                   	pop    %rbp
    a0da:	c3                   	retq   

000000000000a0db <safe_lshift_func_uint64_t_u_s>:
    a0db:	f3 0f 1e fa          	endbr64 
    a0df:	55                   	push   %rbp
    a0e0:	48 89 e5             	mov    %rsp,%rbp
    a0e3:	48 89 7d f8          	mov    %rdi,-0x8(%rbp)
    a0e7:	89 75 f4             	mov    %esi,-0xc(%rbp)
    a0ea:	83 7d f4 00          	cmpl   $0x0,-0xc(%rbp)
    a0ee:	78 2f                	js     a11f <safe_lshift_func_uint64_t_u_s+0x44>
    a0f0:	83 7d f4 1f          	cmpl   $0x1f,-0xc(%rbp)
    a0f4:	7f 29                	jg     a11f <safe_lshift_func_uint64_t_u_s+0x44>
    a0f6:	8b 45 f4             	mov    -0xc(%rbp),%eax
    a0f9:	48 c7 c2 ff ff ff ff 	mov    $0xffffffffffffffff,%rdx
    a100:	89 c1                	mov    %eax,%ecx
    a102:	48 d3 ea             	shr    %cl,%rdx
    a105:	48 89 d0             	mov    %rdx,%rax
    a108:	48 39 45 f8          	cmp    %rax,-0x8(%rbp)
    a10c:	77 11                	ja     a11f <safe_lshift_func_uint64_t_u_s+0x44>
    a10e:	8b 45 f4             	mov    -0xc(%rbp),%eax
    a111:	48 8b 55 f8          	mov    -0x8(%rbp),%rdx
    a115:	89 c1                	mov    %eax,%ecx
    a117:	48 d3 e2             	shl    %cl,%rdx
    a11a:	48 89 d0             	mov    %rdx,%rax
    a11d:	eb 04                	jmp    a123 <safe_lshift_func_uint64_t_u_s+0x48>
    a11f:	48 8b 45 f8          	mov    -0x8(%rbp),%rax
    a123:	5d                   	pop    %rbp
    a124:	c3                   	retq   

000000000000a125 <safe_lshift_func_uint64_t_u_u>:
    a125:	f3 0f 1e fa          	endbr64 
    a129:	55                   	push   %rbp
    a12a:	48 89 e5             	mov    %rsp,%rbp
    a12d:	48 89 7d f8          	mov    %rdi,-0x8(%rbp)
    a131:	89 75 f4             	mov    %esi,-0xc(%rbp)
    a134:	83 7d f4 1f          	cmpl   $0x1f,-0xc(%rbp)
    a138:	77 29                	ja     a163 <safe_lshift_func_uint64_t_u_u+0x3e>
    a13a:	8b 45 f4             	mov    -0xc(%rbp),%eax
    a13d:	48 c7 c2 ff ff ff ff 	mov    $0xffffffffffffffff,%rdx
    a144:	89 c1                	mov    %eax,%ecx
    a146:	48 d3 ea             	shr    %cl,%rdx
    a149:	48 89 d0             	mov    %rdx,%rax
    a14c:	48 39 45 f8          	cmp    %rax,-0x8(%rbp)
    a150:	77 11                	ja     a163 <safe_lshift_func_uint64_t_u_u+0x3e>
    a152:	8b 45 f4             	mov    -0xc(%rbp),%eax
    a155:	48 8b 55 f8          	mov    -0x8(%rbp),%rdx
    a159:	89 c1                	mov    %eax,%ecx
    a15b:	48 d3 e2             	shl    %cl,%rdx
    a15e:	48 89 d0             	mov    %rdx,%rax
    a161:	eb 04                	jmp    a167 <safe_lshift_func_uint64_t_u_u+0x42>
    a163:	48 8b 45 f8          	mov    -0x8(%rbp),%rax
    a167:	5d                   	pop    %rbp
    a168:	c3                   	retq   

000000000000a169 <safe_rshift_func_uint64_t_u_s>:
    a169:	f3 0f 1e fa          	endbr64 
    a16d:	55                   	push   %rbp
    a16e:	48 89 e5             	mov    %rsp,%rbp
    a171:	48 89 7d f8          	mov    %rdi,-0x8(%rbp)
    a175:	89 75 f4             	mov    %esi,-0xc(%rbp)
    a178:	83 7d f4 00          	cmpl   $0x0,-0xc(%rbp)
    a17c:	78 17                	js     a195 <safe_rshift_func_uint64_t_u_s+0x2c>
    a17e:	83 7d f4 1f          	cmpl   $0x1f,-0xc(%rbp)
    a182:	7f 11                	jg     a195 <safe_rshift_func_uint64_t_u_s+0x2c>
    a184:	8b 45 f4             	mov    -0xc(%rbp),%eax
    a187:	48 8b 55 f8          	mov    -0x8(%rbp),%rdx
    a18b:	89 c1                	mov    %eax,%ecx
    a18d:	48 d3 ea             	shr    %cl,%rdx
    a190:	48 89 d0             	mov    %rdx,%rax
    a193:	eb 04                	jmp    a199 <safe_rshift_func_uint64_t_u_s+0x30>
    a195:	48 8b 45 f8          	mov    -0x8(%rbp),%rax
    a199:	5d                   	pop    %rbp
    a19a:	c3                   	retq   

000000000000a19b <safe_rshift_func_uint64_t_u_u>:
    a19b:	f3 0f 1e fa          	endbr64 
    a19f:	55                   	push   %rbp
    a1a0:	48 89 e5             	mov    %rsp,%rbp
    a1a3:	48 89 7d f8          	mov    %rdi,-0x8(%rbp)
    a1a7:	89 75 f4             	mov    %esi,-0xc(%rbp)
    a1aa:	83 7d f4 1f          	cmpl   $0x1f,-0xc(%rbp)
    a1ae:	77 11                	ja     a1c1 <safe_rshift_func_uint64_t_u_u+0x26>
    a1b0:	8b 45 f4             	mov    -0xc(%rbp),%eax
    a1b3:	48 8b 55 f8          	mov    -0x8(%rbp),%rdx
    a1b7:	89 c1                	mov    %eax,%ecx
    a1b9:	48 d3 ea             	shr    %cl,%rdx
    a1bc:	48 89 d0             	mov    %rdx,%rax
    a1bf:	eb 04                	jmp    a1c5 <safe_rshift_func_uint64_t_u_u+0x2a>
    a1c1:	48 8b 45 f8          	mov    -0x8(%rbp),%rax
    a1c5:	5d                   	pop    %rbp
    a1c6:	c3                   	retq   

000000000000a1c7 <safe_add_func_float_f_f>:
    a1c7:	f3 0f 1e fa          	endbr64 
    a1cb:	55                   	push   %rbp
    a1cc:	48 89 e5             	mov    %rsp,%rbp
    a1cf:	f3 0f 11 45 fc       	movss  %xmm0,-0x4(%rbp)
    a1d4:	f3 0f 11 4d f8       	movss  %xmm1,-0x8(%rbp)
    a1d9:	f3 0f 10 4d fc       	movss  -0x4(%rbp),%xmm1
    a1de:	f3 0f 10 05 fa 20 01 	movss  0x120fa(%rip),%xmm0        # 1c2e0 <l_633.5069+0x1e0>
    a1e5:	00 
    a1e6:	f3 0f 59 c8          	mulss  %xmm0,%xmm1
    a1ea:	f3 0f 10 55 f8       	movss  -0x8(%rbp),%xmm2
    a1ef:	f3 0f 10 05 e9 20 01 	movss  0x120e9(%rip),%xmm0        # 1c2e0 <l_633.5069+0x1e0>
    a1f6:	00 
    a1f7:	f3 0f 59 c2          	mulss  %xmm2,%xmm0
    a1fb:	f3 0f 58 c1          	addss  %xmm1,%xmm0
    a1ff:	f3 0f 10 0d e9 20 01 	movss  0x120e9(%rip),%xmm1        # 1c2f0 <l_633.5069+0x1f0>
    a206:	00 
    a207:	0f 54 c1             	andps  %xmm1,%xmm0
    a20a:	0f 2f 05 ef 20 01 00 	comiss 0x120ef(%rip),%xmm0        # 1c300 <l_633.5069+0x200>
    a211:	76 07                	jbe    a21a <safe_add_func_float_f_f+0x53>
    a213:	f3 0f 10 45 fc       	movss  -0x4(%rbp),%xmm0
    a218:	eb 0a                	jmp    a224 <safe_add_func_float_f_f+0x5d>
    a21a:	f3 0f 10 45 fc       	movss  -0x4(%rbp),%xmm0
    a21f:	f3 0f 58 45 f8       	addss  -0x8(%rbp),%xmm0
    a224:	5d                   	pop    %rbp
    a225:	c3                   	retq   

000000000000a226 <safe_sub_func_float_f_f>:
    a226:	f3 0f 1e fa          	endbr64 
    a22a:	55                   	push   %rbp
    a22b:	48 89 e5             	mov    %rsp,%rbp
    a22e:	f3 0f 11 45 fc       	movss  %xmm0,-0x4(%rbp)
    a233:	f3 0f 11 4d f8       	movss  %xmm1,-0x8(%rbp)
    a238:	f3 0f 10 4d fc       	movss  -0x4(%rbp),%xmm1
    a23d:	f3 0f 10 05 9b 20 01 	movss  0x1209b(%rip),%xmm0        # 1c2e0 <l_633.5069+0x1e0>
    a244:	00 
    a245:	f3 0f 59 c1          	mulss  %xmm1,%xmm0
    a249:	f3 0f 10 55 f8       	movss  -0x8(%rbp),%xmm2
    a24e:	f3 0f 10 0d 8a 20 01 	movss  0x1208a(%rip),%xmm1        # 1c2e0 <l_633.5069+0x1e0>
    a255:	00 
    a256:	f3 0f 59 ca          	mulss  %xmm2,%xmm1
    a25a:	f3 0f 5c c1          	subss  %xmm1,%xmm0
    a25e:	f3 0f 10 0d 8a 20 01 	movss  0x1208a(%rip),%xmm1        # 1c2f0 <l_633.5069+0x1f0>
    a265:	00 
    a266:	0f 54 c1             	andps  %xmm1,%xmm0
    a269:	0f 2f 05 90 20 01 00 	comiss 0x12090(%rip),%xmm0        # 1c300 <l_633.5069+0x200>
    a270:	76 07                	jbe    a279 <safe_sub_func_float_f_f+0x53>
    a272:	f3 0f 10 45 fc       	movss  -0x4(%rbp),%xmm0
    a277:	eb 0a                	jmp    a283 <safe_sub_func_float_f_f+0x5d>
    a279:	f3 0f 10 45 fc       	movss  -0x4(%rbp),%xmm0
    a27e:	f3 0f 5c 45 f8       	subss  -0x8(%rbp),%xmm0
    a283:	5d                   	pop    %rbp
    a284:	c3                   	retq   

000000000000a285 <safe_mul_func_float_f_f>:
    a285:	f3 0f 1e fa          	endbr64 
    a289:	55                   	push   %rbp
    a28a:	48 89 e5             	mov    %rsp,%rbp
    a28d:	f3 0f 11 45 fc       	movss  %xmm0,-0x4(%rbp)
    a292:	f3 0f 11 4d f8       	movss  %xmm1,-0x8(%rbp)
    a297:	f3 0f 10 4d fc       	movss  -0x4(%rbp),%xmm1
    a29c:	f3 0f 10 05 60 20 01 	movss  0x12060(%rip),%xmm0        # 1c304 <l_633.5069+0x204>
    a2a3:	00 
    a2a4:	f3 0f 59 c8          	mulss  %xmm0,%xmm1
    a2a8:	f3 0f 10 55 f8       	movss  -0x8(%rbp),%xmm2
    a2ad:	f3 0f 10 05 53 20 01 	movss  0x12053(%rip),%xmm0        # 1c308 <l_633.5069+0x208>
    a2b4:	00 
    a2b5:	f3 0f 59 c2          	mulss  %xmm2,%xmm0
    a2b9:	f3 0f 59 c1          	mulss  %xmm1,%xmm0
    a2bd:	f3 0f 10 0d 2b 20 01 	movss  0x1202b(%rip),%xmm1        # 1c2f0 <l_633.5069+0x1f0>
    a2c4:	00 
    a2c5:	0f 54 c1             	andps  %xmm1,%xmm0
    a2c8:	0f 2f 05 3d 20 01 00 	comiss 0x1203d(%rip),%xmm0        # 1c30c <l_633.5069+0x20c>
    a2cf:	76 07                	jbe    a2d8 <safe_mul_func_float_f_f+0x53>
    a2d1:	f3 0f 10 45 fc       	movss  -0x4(%rbp),%xmm0
    a2d6:	eb 0a                	jmp    a2e2 <safe_mul_func_float_f_f+0x5d>
    a2d8:	f3 0f 10 45 fc       	movss  -0x4(%rbp),%xmm0
    a2dd:	f3 0f 59 45 f8       	mulss  -0x8(%rbp),%xmm0
    a2e2:	5d                   	pop    %rbp
    a2e3:	c3                   	retq   

000000000000a2e4 <safe_div_func_float_f_f>:
    a2e4:	f3 0f 1e fa          	endbr64 
    a2e8:	55                   	push   %rbp
    a2e9:	48 89 e5             	mov    %rsp,%rbp
    a2ec:	f3 0f 11 45 fc       	movss  %xmm0,-0x4(%rbp)
    a2f1:	f3 0f 11 4d f8       	movss  %xmm1,-0x8(%rbp)
    a2f6:	f3 0f 10 45 f8       	movss  -0x8(%rbp),%xmm0
    a2fb:	f3 0f 10 0d ed 1f 01 	movss  0x11fed(%rip),%xmm1        # 1c2f0 <l_633.5069+0x1f0>
    a302:	00 
    a303:	0f 54 c8             	andps  %xmm0,%xmm1
    a306:	f3 0f 10 05 02 20 01 	movss  0x12002(%rip),%xmm0        # 1c310 <l_633.5069+0x210>
    a30d:	00 
    a30e:	0f 2f c1             	comiss %xmm1,%xmm0
    a311:	0f 97 c0             	seta   %al
    a314:	83 f0 01             	xor    $0x1,%eax
    a317:	84 c0                	test   %al,%al
    a319:	75 56                	jne    a371 <safe_div_func_float_f_f+0x8d>
    a31b:	66 0f ef c0          	pxor   %xmm0,%xmm0
    a31f:	0f 2e 45 f8          	ucomiss -0x8(%rbp),%xmm0
    a323:	7a 0a                	jp     a32f <safe_div_func_float_f_f+0x4b>
    a325:	66 0f ef c0          	pxor   %xmm0,%xmm0
    a329:	0f 2e 45 f8          	ucomiss -0x8(%rbp),%xmm0
    a32d:	74 4e                	je     a37d <safe_div_func_float_f_f+0x99>
    a32f:	f3 0f 10 4d fc       	movss  -0x4(%rbp),%xmm1
    a334:	f3 0f 10 05 d8 1f 01 	movss  0x11fd8(%rip),%xmm0        # 1c314 <l_633.5069+0x214>
    a33b:	00 
    a33c:	f3 0f 59 c1          	mulss  %xmm1,%xmm0
    a340:	f3 0f 10 55 f8       	movss  -0x8(%rbp),%xmm2
    a345:	f3 0f 10 0d cb 1f 01 	movss  0x11fcb(%rip),%xmm1        # 1c318 <l_633.5069+0x218>
    a34c:	00 
    a34d:	f3 0f 59 ca          	mulss  %xmm2,%xmm1
    a351:	f3 0f 5e c1          	divss  %xmm1,%xmm0
    a355:	f3 0f 10 0d 93 1f 01 	movss  0x11f93(%rip),%xmm1        # 1c2f0 <l_633.5069+0x1f0>
    a35c:	00 
    a35d:	0f 54 c1             	andps  %xmm1,%xmm0
    a360:	0f 2f 05 b5 1f 01 00 	comiss 0x11fb5(%rip),%xmm0        # 1c31c <l_633.5069+0x21c>
    a367:	0f 97 c0             	seta   %al
    a36a:	83 f0 01             	xor    $0x1,%eax
    a36d:	84 c0                	test   %al,%al
    a36f:	74 0c                	je     a37d <safe_div_func_float_f_f+0x99>
    a371:	f3 0f 10 45 fc       	movss  -0x4(%rbp),%xmm0
    a376:	f3 0f 5e 45 f8       	divss  -0x8(%rbp),%xmm0
    a37b:	eb 05                	jmp    a382 <safe_div_func_float_f_f+0x9e>
    a37d:	f3 0f 10 45 fc       	movss  -0x4(%rbp),%xmm0
    a382:	5d                   	pop    %rbp
    a383:	c3                   	retq   

000000000000a384 <safe_add_func_double_f_f>:
    a384:	f3 0f 1e fa          	endbr64 
    a388:	55                   	push   %rbp
    a389:	48 89 e5             	mov    %rsp,%rbp
    a38c:	f2 0f 11 45 f8       	movsd  %xmm0,-0x8(%rbp)
    a391:	f2 0f 11 4d f0       	movsd  %xmm1,-0x10(%rbp)
    a396:	f2 0f 10 4d f8       	movsd  -0x8(%rbp),%xmm1
    a39b:	f2 0f 10 05 7d 1f 01 	movsd  0x11f7d(%rip),%xmm0        # 1c320 <l_633.5069+0x220>
    a3a2:	00 
    a3a3:	f2 0f 59 c8          	mulsd  %xmm0,%xmm1
    a3a7:	f2 0f 10 55 f0       	movsd  -0x10(%rbp),%xmm2
    a3ac:	f2 0f 10 05 6c 1f 01 	movsd  0x11f6c(%rip),%xmm0        # 1c320 <l_633.5069+0x220>
    a3b3:	00 
    a3b4:	f2 0f 59 c2          	mulsd  %xmm2,%xmm0
    a3b8:	f2 0f 58 c1          	addsd  %xmm1,%xmm0
    a3bc:	f3 0f 7e 0d 6c 1f 01 	movq   0x11f6c(%rip),%xmm1        # 1c330 <l_633.5069+0x230>
    a3c3:	00 
    a3c4:	66 0f 54 c1          	andpd  %xmm1,%xmm0
    a3c8:	66 0f 2f 05 70 1f 01 	comisd 0x11f70(%rip),%xmm0        # 1c340 <l_633.5069+0x240>
    a3cf:	00 
    a3d0:	76 07                	jbe    a3d9 <safe_add_func_double_f_f+0x55>
    a3d2:	f2 0f 10 45 f8       	movsd  -0x8(%rbp),%xmm0
    a3d7:	eb 0a                	jmp    a3e3 <safe_add_func_double_f_f+0x5f>
    a3d9:	f2 0f 10 45 f8       	movsd  -0x8(%rbp),%xmm0
    a3de:	f2 0f 58 45 f0       	addsd  -0x10(%rbp),%xmm0
    a3e3:	5d                   	pop    %rbp
    a3e4:	c3                   	retq   

000000000000a3e5 <safe_sub_func_double_f_f>:
    a3e5:	f3 0f 1e fa          	endbr64 
    a3e9:	55                   	push   %rbp
    a3ea:	48 89 e5             	mov    %rsp,%rbp
    a3ed:	f2 0f 11 45 f8       	movsd  %xmm0,-0x8(%rbp)
    a3f2:	f2 0f 11 4d f0       	movsd  %xmm1,-0x10(%rbp)
    a3f7:	f2 0f 10 4d f8       	movsd  -0x8(%rbp),%xmm1
    a3fc:	f2 0f 10 05 1c 1f 01 	movsd  0x11f1c(%rip),%xmm0        # 1c320 <l_633.5069+0x220>
    a403:	00 
    a404:	f2 0f 59 c1          	mulsd  %xmm1,%xmm0
    a408:	f2 0f 10 55 f0       	movsd  -0x10(%rbp),%xmm2
    a40d:	f2 0f 10 0d 0b 1f 01 	movsd  0x11f0b(%rip),%xmm1        # 1c320 <l_633.5069+0x220>
    a414:	00 
    a415:	f2 0f 59 ca          	mulsd  %xmm2,%xmm1
    a419:	f2 0f 5c c1          	subsd  %xmm1,%xmm0
    a41d:	f3 0f 7e 0d 0b 1f 01 	movq   0x11f0b(%rip),%xmm1        # 1c330 <l_633.5069+0x230>
    a424:	00 
    a425:	66 0f 54 c1          	andpd  %xmm1,%xmm0
    a429:	66 0f 2f 05 0f 1f 01 	comisd 0x11f0f(%rip),%xmm0        # 1c340 <l_633.5069+0x240>
    a430:	00 
    a431:	76 07                	jbe    a43a <safe_sub_func_double_f_f+0x55>
    a433:	f2 0f 10 45 f8       	movsd  -0x8(%rbp),%xmm0
    a438:	eb 0a                	jmp    a444 <safe_sub_func_double_f_f+0x5f>
    a43a:	f2 0f 10 45 f8       	movsd  -0x8(%rbp),%xmm0
    a43f:	f2 0f 5c 45 f0       	subsd  -0x10(%rbp),%xmm0
    a444:	5d                   	pop    %rbp
    a445:	c3                   	retq   

000000000000a446 <safe_mul_func_double_f_f>:
    a446:	f3 0f 1e fa          	endbr64 
    a44a:	55                   	push   %rbp
    a44b:	48 89 e5             	mov    %rsp,%rbp
    a44e:	f2 0f 11 45 f8       	movsd  %xmm0,-0x8(%rbp)
    a453:	f2 0f 11 4d f0       	movsd  %xmm1,-0x10(%rbp)
    a458:	f2 0f 10 4d f8       	movsd  -0x8(%rbp),%xmm1
    a45d:	f2 0f 10 05 e3 1e 01 	movsd  0x11ee3(%rip),%xmm0        # 1c348 <l_633.5069+0x248>
    a464:	00 
    a465:	f2 0f 59 c8          	mulsd  %xmm0,%xmm1
    a469:	f2 0f 10 55 f0       	movsd  -0x10(%rbp),%xmm2
    a46e:	f2 0f 10 05 da 1e 01 	movsd  0x11eda(%rip),%xmm0        # 1c350 <l_633.5069+0x250>
    a475:	00 
    a476:	f2 0f 59 c2          	mulsd  %xmm2,%xmm0
    a47a:	f2 0f 59 c1          	mulsd  %xmm1,%xmm0
    a47e:	f3 0f 7e 0d aa 1e 01 	movq   0x11eaa(%rip),%xmm1        # 1c330 <l_633.5069+0x230>
    a485:	00 
    a486:	66 0f 54 c1          	andpd  %xmm1,%xmm0
    a48a:	66 0f 2f 05 c6 1e 01 	comisd 0x11ec6(%rip),%xmm0        # 1c358 <l_633.5069+0x258>
    a491:	00 
    a492:	76 07                	jbe    a49b <safe_mul_func_double_f_f+0x55>
    a494:	f2 0f 10 45 f8       	movsd  -0x8(%rbp),%xmm0
    a499:	eb 0a                	jmp    a4a5 <safe_mul_func_double_f_f+0x5f>
    a49b:	f2 0f 10 45 f8       	movsd  -0x8(%rbp),%xmm0
    a4a0:	f2 0f 59 45 f0       	mulsd  -0x10(%rbp),%xmm0
    a4a5:	5d                   	pop    %rbp
    a4a6:	c3                   	retq   

000000000000a4a7 <safe_div_func_double_f_f>:
    a4a7:	f3 0f 1e fa          	endbr64 
    a4ab:	55                   	push   %rbp
    a4ac:	48 89 e5             	mov    %rsp,%rbp
    a4af:	f2 0f 11 45 f8       	movsd  %xmm0,-0x8(%rbp)
    a4b4:	f2 0f 11 4d f0       	movsd  %xmm1,-0x10(%rbp)
    a4b9:	f2 0f 10 45 f0       	movsd  -0x10(%rbp),%xmm0
    a4be:	f3 0f 7e 0d 6a 1e 01 	movq   0x11e6a(%rip),%xmm1        # 1c330 <l_633.5069+0x230>
    a4c5:	00 
    a4c6:	66 0f 54 c8          	andpd  %xmm0,%xmm1
    a4ca:	f2 0f 10 05 8e 1e 01 	movsd  0x11e8e(%rip),%xmm0        # 1c360 <l_633.5069+0x260>
    a4d1:	00 
    a4d2:	66 0f 2f c1          	comisd %xmm1,%xmm0
    a4d6:	0f 97 c0             	seta   %al
    a4d9:	83 f0 01             	xor    $0x1,%eax
    a4dc:	84 c0                	test   %al,%al
    a4de:	75 5a                	jne    a53a <safe_div_func_double_f_f+0x93>
    a4e0:	66 0f ef c0          	pxor   %xmm0,%xmm0
    a4e4:	66 0f 2e 45 f0       	ucomisd -0x10(%rbp),%xmm0
    a4e9:	7a 0b                	jp     a4f6 <safe_div_func_double_f_f+0x4f>
    a4eb:	66 0f ef c0          	pxor   %xmm0,%xmm0
    a4ef:	66 0f 2e 45 f0       	ucomisd -0x10(%rbp),%xmm0
    a4f4:	74 50                	je     a546 <safe_div_func_double_f_f+0x9f>
    a4f6:	f2 0f 10 4d f8       	movsd  -0x8(%rbp),%xmm1
    a4fb:	f2 0f 10 05 65 1e 01 	movsd  0x11e65(%rip),%xmm0        # 1c368 <l_633.5069+0x268>
    a502:	00 
    a503:	f2 0f 59 c1          	mulsd  %xmm1,%xmm0
    a507:	f2 0f 10 55 f0       	movsd  -0x10(%rbp),%xmm2
    a50c:	f2 0f 10 0d 5c 1e 01 	movsd  0x11e5c(%rip),%xmm1        # 1c370 <l_633.5069+0x270>
    a513:	00 
    a514:	f2 0f 59 ca          	mulsd  %xmm2,%xmm1
    a518:	f2 0f 5e c1          	divsd  %xmm1,%xmm0
    a51c:	f3 0f 7e 0d 0c 1e 01 	movq   0x11e0c(%rip),%xmm1        # 1c330 <l_633.5069+0x230>
    a523:	00 
    a524:	66 0f 54 c1          	andpd  %xmm1,%xmm0
    a528:	66 0f 2f 05 48 1e 01 	comisd 0x11e48(%rip),%xmm0        # 1c378 <l_633.5069+0x278>
    a52f:	00 
    a530:	0f 97 c0             	seta   %al
    a533:	83 f0 01             	xor    $0x1,%eax
    a536:	84 c0                	test   %al,%al
    a538:	74 0c                	je     a546 <safe_div_func_double_f_f+0x9f>
    a53a:	f2 0f 10 45 f8       	movsd  -0x8(%rbp),%xmm0
    a53f:	f2 0f 5e 45 f0       	divsd  -0x10(%rbp),%xmm0
    a544:	eb 05                	jmp    a54b <safe_div_func_double_f_f+0xa4>
    a546:	f2 0f 10 45 f8       	movsd  -0x8(%rbp),%xmm0
    a54b:	5d                   	pop    %rbp
    a54c:	c3                   	retq   

000000000000a54d <safe_convert_func_float_to_int32_t>:
    a54d:	f3 0f 1e fa          	endbr64 
    a551:	55                   	push   %rbp
    a552:	48 89 e5             	mov    %rsp,%rbp
    a555:	f3 0f 11 45 fc       	movss  %xmm0,-0x4(%rbp)
    a55a:	f3 0f 10 05 1e 1e 01 	movss  0x11e1e(%rip),%xmm0        # 1c380 <l_633.5069+0x280>
    a561:	00 
    a562:	0f 2f 45 fc          	comiss -0x4(%rbp),%xmm0
    a566:	0f 93 c0             	setae  %al
    a569:	83 f0 01             	xor    $0x1,%eax
    a56c:	84 c0                	test   %al,%al
    a56e:	74 21                	je     a591 <safe_convert_func_float_to_int32_t+0x44>
    a570:	f3 0f 10 45 fc       	movss  -0x4(%rbp),%xmm0
    a575:	0f 2f 05 08 1e 01 00 	comiss 0x11e08(%rip),%xmm0        # 1c384 <l_633.5069+0x284>
    a57c:	0f 93 c0             	setae  %al
    a57f:	83 f0 01             	xor    $0x1,%eax
    a582:	84 c0                	test   %al,%al
    a584:	74 0b                	je     a591 <safe_convert_func_float_to_int32_t+0x44>
    a586:	f3 0f 10 45 fc       	movss  -0x4(%rbp),%xmm0
    a58b:	f3 0f 2c c0          	cvttss2si %xmm0,%eax
    a58f:	eb 05                	jmp    a596 <safe_convert_func_float_to_int32_t+0x49>
    a591:	b8 ff ff ff 7f       	mov    $0x7fffffff,%eax
    a596:	5d                   	pop    %rbp
    a597:	c3                   	retq   

000000000000a598 <crc32_gentab>:
    a598:	f3 0f 1e fa          	endbr64 
    a59c:	55                   	push   %rbp
    a59d:	48 89 e5             	mov    %rsp,%rbp
    a5a0:	c7 45 fc 20 83 b8 ed 	movl   $0xedb88320,-0x4(%rbp)
    a5a7:	c7 45 f4 00 00 00 00 	movl   $0x0,-0xc(%rbp)
    a5ae:	eb 51                	jmp    a601 <crc32_gentab+0x69>
    a5b0:	8b 45 f4             	mov    -0xc(%rbp),%eax
    a5b3:	89 45 f0             	mov    %eax,-0x10(%rbp)
    a5b6:	c7 45 f8 08 00 00 00 	movl   $0x8,-0x8(%rbp)
    a5bd:	eb 1e                	jmp    a5dd <crc32_gentab+0x45>
    a5bf:	8b 45 f0             	mov    -0x10(%rbp),%eax
    a5c2:	83 e0 01             	and    $0x1,%eax
    a5c5:	85 c0                	test   %eax,%eax
    a5c7:	74 0d                	je     a5d6 <crc32_gentab+0x3e>
    a5c9:	8b 45 f0             	mov    -0x10(%rbp),%eax
    a5cc:	d1 e8                	shr    %eax
    a5ce:	33 45 fc             	xor    -0x4(%rbp),%eax
    a5d1:	89 45 f0             	mov    %eax,-0x10(%rbp)
    a5d4:	eb 03                	jmp    a5d9 <crc32_gentab+0x41>
    a5d6:	d1 6d f0             	shrl   -0x10(%rbp)
    a5d9:	83 6d f8 01          	subl   $0x1,-0x8(%rbp)
    a5dd:	83 7d f8 00          	cmpl   $0x0,-0x8(%rbp)
    a5e1:	7f dc                	jg     a5bf <crc32_gentab+0x27>
    a5e3:	8b 45 f4             	mov    -0xc(%rbp),%eax
    a5e6:	48 98                	cltq   
    a5e8:	48 8d 0c 85 00 00 00 	lea    0x0(,%rax,4),%rcx
    a5ef:	00 
    a5f0:	48 8d 15 89 87 01 00 	lea    0x18789(%rip),%rdx        # 22d80 <crc32_tab>
    a5f7:	8b 45 f0             	mov    -0x10(%rbp),%eax
    a5fa:	89 04 11             	mov    %eax,(%rcx,%rdx,1)
    a5fd:	83 45 f4 01          	addl   $0x1,-0xc(%rbp)
    a601:	81 7d f4 ff 00 00 00 	cmpl   $0xff,-0xc(%rbp)
    a608:	7e a6                	jle    a5b0 <crc32_gentab+0x18>
    a60a:	90                   	nop
    a60b:	90                   	nop
    a60c:	5d                   	pop    %rbp
    a60d:	c3                   	retq   

000000000000a60e <crc32_byte>:
    a60e:	f3 0f 1e fa          	endbr64 
    a612:	55                   	push   %rbp
    a613:	48 89 e5             	mov    %rsp,%rbp
    a616:	89 f8                	mov    %edi,%eax
    a618:	88 45 fc             	mov    %al,-0x4(%rbp)
    a61b:	8b 05 ff 49 01 00    	mov    0x149ff(%rip),%eax        # 1f020 <crc32_context>
    a621:	c1 e8 08             	shr    $0x8,%eax
    a624:	89 c1                	mov    %eax,%ecx
    a626:	0f b6 55 fc          	movzbl -0x4(%rbp),%edx
    a62a:	8b 05 f0 49 01 00    	mov    0x149f0(%rip),%eax        # 1f020 <crc32_context>
    a630:	31 d0                	xor    %edx,%eax
    a632:	0f b6 c0             	movzbl %al,%eax
    a635:	89 c0                	mov    %eax,%eax
    a637:	48 8d 14 85 00 00 00 	lea    0x0(,%rax,4),%rdx
    a63e:	00 
    a63f:	48 8d 05 3a 87 01 00 	lea    0x1873a(%rip),%rax        # 22d80 <crc32_tab>
    a646:	8b 04 02             	mov    (%rdx,%rax,1),%eax
    a649:	31 c8                	xor    %ecx,%eax
    a64b:	89 05 cf 49 01 00    	mov    %eax,0x149cf(%rip)        # 1f020 <crc32_context>
    a651:	90                   	nop
    a652:	5d                   	pop    %rbp
    a653:	c3                   	retq   

000000000000a654 <crc32_8bytes>:
    a654:	f3 0f 1e fa          	endbr64 
    a658:	55                   	push   %rbp
    a659:	48 89 e5             	mov    %rsp,%rbp
    a65c:	48 83 ec 08          	sub    $0x8,%rsp
    a660:	48 89 7d f8          	mov    %rdi,-0x8(%rbp)
    a664:	48 8b 45 f8          	mov    -0x8(%rbp),%rax
    a668:	0f b6 c0             	movzbl %al,%eax
    a66b:	89 c7                	mov    %eax,%edi
    a66d:	e8 9c ff ff ff       	callq  a60e <crc32_byte>
    a672:	48 8b 45 f8          	mov    -0x8(%rbp),%rax
    a676:	48 c1 e8 08          	shr    $0x8,%rax
    a67a:	0f b6 c0             	movzbl %al,%eax
    a67d:	89 c7                	mov    %eax,%edi
    a67f:	e8 8a ff ff ff       	callq  a60e <crc32_byte>
    a684:	48 8b 45 f8          	mov    -0x8(%rbp),%rax
    a688:	48 c1 e8 10          	shr    $0x10,%rax
    a68c:	0f b6 c0             	movzbl %al,%eax
    a68f:	89 c7                	mov    %eax,%edi
    a691:	e8 78 ff ff ff       	callq  a60e <crc32_byte>
    a696:	48 8b 45 f8          	mov    -0x8(%rbp),%rax
    a69a:	48 c1 e8 18          	shr    $0x18,%rax
    a69e:	0f b6 c0             	movzbl %al,%eax
    a6a1:	89 c7                	mov    %eax,%edi
    a6a3:	e8 66 ff ff ff       	callq  a60e <crc32_byte>
    a6a8:	48 8b 45 f8          	mov    -0x8(%rbp),%rax
    a6ac:	48 c1 e8 20          	shr    $0x20,%rax
    a6b0:	0f b6 c0             	movzbl %al,%eax
    a6b3:	89 c7                	mov    %eax,%edi
    a6b5:	e8 54 ff ff ff       	callq  a60e <crc32_byte>
    a6ba:	48 8b 45 f8          	mov    -0x8(%rbp),%rax
    a6be:	48 c1 e8 28          	shr    $0x28,%rax
    a6c2:	0f b6 c0             	movzbl %al,%eax
    a6c5:	89 c7                	mov    %eax,%edi
    a6c7:	e8 42 ff ff ff       	callq  a60e <crc32_byte>
    a6cc:	48 8b 45 f8          	mov    -0x8(%rbp),%rax
    a6d0:	48 c1 e8 30          	shr    $0x30,%rax
    a6d4:	0f b6 c0             	movzbl %al,%eax
    a6d7:	89 c7                	mov    %eax,%edi
    a6d9:	e8 30 ff ff ff       	callq  a60e <crc32_byte>
    a6de:	48 8b 45 f8          	mov    -0x8(%rbp),%rax
    a6e2:	48 c1 e8 38          	shr    $0x38,%rax
    a6e6:	0f b6 c0             	movzbl %al,%eax
    a6e9:	89 c7                	mov    %eax,%edi
    a6eb:	e8 1e ff ff ff       	callq  a60e <crc32_byte>
    a6f0:	90                   	nop
    a6f1:	c9                   	leaveq 
    a6f2:	c3                   	retq   

000000000000a6f3 <transparent_crc>:
    a6f3:	f3 0f 1e fa          	endbr64 
    a6f7:	55                   	push   %rbp
    a6f8:	48 89 e5             	mov    %rsp,%rbp
    a6fb:	48 83 ec 20          	sub    $0x20,%rsp
    a6ff:	48 89 7d f8          	mov    %rdi,-0x8(%rbp)
    a703:	48 89 75 f0          	mov    %rsi,-0x10(%rbp)
    a707:	89 55 ec             	mov    %edx,-0x14(%rbp)
    a70a:	48 8b 45 f8          	mov    -0x8(%rbp),%rax
    a70e:	48 89 c7             	mov    %rax,%rdi
    a711:	e8 3e ff ff ff       	callq  a654 <crc32_8bytes>
    a716:	83 7d ec 00          	cmpl   $0x0,-0x14(%rbp)
    a71a:	74 22                	je     a73e <transparent_crc+0x4b>
    a71c:	8b 05 fe 48 01 00    	mov    0x148fe(%rip),%eax        # 1f020 <crc32_context>
    a722:	f7 d0                	not    %eax
    a724:	89 c2                	mov    %eax,%edx
    a726:	48 8b 45 f0          	mov    -0x10(%rbp),%rax
    a72a:	48 89 c6             	mov    %rax,%rsi
    a72d:	48 8d 3d fc f8 00 00 	lea    0xf8fc(%rip),%rdi        # 1a030 <_IO_stdin_used+0x30>
    a734:	b8 00 00 00 00       	mov    $0x0,%eax
    a739:	e8 42 e9 ff ff       	callq  9080 <printf@plt>
    a73e:	90                   	nop
    a73f:	c9                   	leaveq 
    a740:	c3                   	retq   

000000000000a741 <transparent_crc_bytes>:
    a741:	f3 0f 1e fa          	endbr64 
    a745:	55                   	push   %rbp
    a746:	48 89 e5             	mov    %rsp,%rbp
    a749:	48 83 ec 30          	sub    $0x30,%rsp
    a74d:	48 89 7d e8          	mov    %rdi,-0x18(%rbp)
    a751:	89 75 e4             	mov    %esi,-0x1c(%rbp)
    a754:	48 89 55 d8          	mov    %rdx,-0x28(%rbp)
    a758:	89 4d e0             	mov    %ecx,-0x20(%rbp)
    a75b:	c7 45 fc 00 00 00 00 	movl   $0x0,-0x4(%rbp)
    a762:	eb 1e                	jmp    a782 <transparent_crc_bytes+0x41>
    a764:	8b 45 fc             	mov    -0x4(%rbp),%eax
    a767:	48 63 d0             	movslq %eax,%rdx
    a76a:	48 8b 45 e8          	mov    -0x18(%rbp),%rax
    a76e:	48 01 d0             	add    %rdx,%rax
    a771:	0f b6 00             	movzbl (%rax),%eax
    a774:	0f b6 c0             	movzbl %al,%eax
    a777:	89 c7                	mov    %eax,%edi
    a779:	e8 90 fe ff ff       	callq  a60e <crc32_byte>
    a77e:	83 45 fc 01          	addl   $0x1,-0x4(%rbp)
    a782:	8b 45 fc             	mov    -0x4(%rbp),%eax
    a785:	3b 45 e4             	cmp    -0x1c(%rbp),%eax
    a788:	7c da                	jl     a764 <transparent_crc_bytes+0x23>
    a78a:	83 7d e0 00          	cmpl   $0x0,-0x20(%rbp)
    a78e:	74 22                	je     a7b2 <transparent_crc_bytes+0x71>
    a790:	8b 05 8a 48 01 00    	mov    0x1488a(%rip),%eax        # 1f020 <crc32_context>
    a796:	f7 d0                	not    %eax
    a798:	89 c2                	mov    %eax,%edx
    a79a:	48 8b 45 d8          	mov    -0x28(%rbp),%rax
    a79e:	48 89 c6             	mov    %rax,%rsi
    a7a1:	48 8d 3d 88 f8 00 00 	lea    0xf888(%rip),%rdi        # 1a030 <_IO_stdin_used+0x30>
    a7a8:	b8 00 00 00 00       	mov    $0x0,%eax
    a7ad:	e8 ce e8 ff ff       	callq  9080 <printf@plt>
    a7b2:	90                   	nop
    a7b3:	c9                   	leaveq 
    a7b4:	c3                   	retq   

000000000000a7b5 <func_1>:
    a7b5:	f3 0f 1e fa          	endbr64 
    a7b9:	55                   	push   %rbp
    a7ba:	48 89 e5             	mov    %rsp,%rbp
    a7bd:	48 81 ec b0 08 00 00 	sub    $0x8b0,%rsp
    a7c4:	64 48 8b 04 25 28 00 	mov    %fs:0x28,%rax
    a7cb:	00 00 
    a7cd:	48 89 45 f8          	mov    %rax,-0x8(%rbp)
    a7d1:	31 c0                	xor    %eax,%eax
    a7d3:	48 b8 ff 00 4f fa 98 	movabs $0xf80cf898fa4f00ff,%rax
    a7da:	f8 0c f8 
    a7dd:	48 89 85 00 f8 ff ff 	mov    %rax,-0x800(%rbp)
    a7e4:	48 bf 98 f8 0c f8 98 	movabs $0x4ffa98f80cf898,%rdi
    a7eb:	fa 4f 00 
    a7ee:	48 89 bd 08 f8 ff ff 	mov    %rdi,-0x7f8(%rbp)
    a7f5:	48 ba ff 00 3f f8 ff 	movabs $0xf8ff00fff83f00ff,%rdx
    a7fc:	00 ff f8 
    a7ff:	48 89 95 10 f8 ff ff 	mov    %rdx,-0x7f0(%rbp)
    a806:	48 b9 3f 01 3f fa 0c 	movabs $0x4f000cfa3f013f,%rcx
    a80d:	00 4f 00 
    a810:	48 89 8d 18 f8 ff ff 	mov    %rcx,-0x7e8(%rbp)
    a817:	48 be ff 01 0c 00 5b 	movabs $0x10c005b000c01ff,%rsi
    a81e:	00 0c 01 
    a821:	48 89 b5 20 f8 ff ff 	mov    %rsi,-0x7e0(%rbp)
    a828:	48 be ff 00 4f 00 0c 	movabs $0x13ffa0c004f00ff,%rsi
    a82f:	fa 3f 01 
    a832:	48 89 b5 28 f8 ff ff 	mov    %rsi,-0x7d8(%rbp)
    a839:	48 be 3f f8 ff 00 ff 	movabs $0x3ff8ff00fff83f,%rsi
    a840:	f8 3f 00 
    a843:	48 89 b5 30 f8 ff ff 	mov    %rsi,-0x7d0(%rbp)
    a84a:	48 89 85 38 f8 ff ff 	mov    %rax,-0x7c8(%rbp)
    a851:	48 89 bd 40 f8 ff ff 	mov    %rdi,-0x7c0(%rbp)
    a858:	48 89 95 48 f8 ff ff 	mov    %rdx,-0x7b8(%rbp)
    a85f:	48 89 8d 50 f8 ff ff 	mov    %rcx,-0x7b0(%rbp)
    a866:	48 b8 ff 01 0c 00 5b 	movabs $0xfdfffa5b000c01ff,%rax
    a86d:	fa ff fd 
    a870:	48 89 85 58 f8 ff ff 	mov    %rax,-0x7a8(%rbp)
    a877:	48 b8 5b 00 0c 01 ff 	movabs $0xfd9800ff010c005b,%rax
    a87e:	00 98 fd 
    a881:	48 89 85 60 f8 ff ff 	mov    %rax,-0x7a0(%rbp)
    a888:	48 ba 98 00 5b fa 5b 	movabs $0x98005bfa5b0098,%rdx
    a88f:	00 98 00 
    a892:	48 89 95 68 f8 ff ff 	mov    %rdx,-0x798(%rbp)
    a899:	48 b9 3f fa 0c 00 4f 	movabs $0xff004f000cfa3f,%rcx
    a8a0:	00 ff 00 
    a8a3:	48 89 8d 70 f8 ff ff 	mov    %rcx,-0x790(%rbp)
    a8aa:	48 be 4f 00 ff 00 4f 	movabs $0xfa0c004f00ff004f,%rsi
    a8b1:	00 0c fa 
    a8b4:	48 89 b5 78 f8 ff ff 	mov    %rsi,-0x788(%rbp)
    a8bb:	48 bf 3f 00 98 00 5b 	movabs $0x5bfa5b0098003f,%rdi
    a8c2:	fa 5b 00 
    a8c5:	48 89 bd 80 f8 ff ff 	mov    %rdi,-0x780(%rbp)
    a8cc:	49 b8 98 fd 98 00 ff 	movabs $0xc01ff0098fd98,%r8
    a8d3:	01 0c 00 
    a8d6:	4c 89 85 88 f8 ff ff 	mov    %r8,-0x778(%rbp)
    a8dd:	49 b9 5b fd ff fa ff 	movabs $0xfdfffafffafffd5b,%r9
    a8e4:	fa ff fd 
    a8e7:	4c 89 8d 90 f8 ff ff 	mov    %r9,-0x770(%rbp)
    a8ee:	48 89 85 98 f8 ff ff 	mov    %rax,-0x768(%rbp)
    a8f5:	48 89 95 a0 f8 ff ff 	mov    %rdx,-0x760(%rbp)
    a8fc:	48 89 8d a8 f8 ff ff 	mov    %rcx,-0x758(%rbp)
    a903:	48 89 b5 b0 f8 ff ff 	mov    %rsi,-0x750(%rbp)
    a90a:	48 89 bd b8 f8 ff ff 	mov    %rdi,-0x748(%rbp)
    a911:	4c 89 85 c0 f8 ff ff 	mov    %r8,-0x740(%rbp)
    a918:	4c 89 8d c8 f8 ff ff 	mov    %r9,-0x738(%rbp)
    a91f:	48 89 85 d0 f8 ff ff 	mov    %rax,-0x730(%rbp)
    a926:	48 89 95 d8 f8 ff ff 	mov    %rdx,-0x728(%rbp)
    a92d:	48 89 8d e0 f8 ff ff 	mov    %rcx,-0x720(%rbp)
    a934:	48 89 b5 e8 f8 ff ff 	mov    %rsi,-0x718(%rbp)
    a93b:	c7 85 58 f7 ff ff 00 	movl   $0x0,-0x8a8(%rbp)
    a942:	00 00 00 
    a945:	48 c7 85 70 f7 ff ff 	movq   $0x0,-0x890(%rbp)
    a94c:	00 00 00 00 
    a950:	c7 85 5c f7 ff ff d9 	movl   $0x65536dd9,-0x8a4(%rbp)
    a957:	6d 53 65 
    a95a:	c7 85 60 f7 ff ff 7e 	movl   $0x1424a57e,-0x8a0(%rbp)
    a961:	a5 24 14 
    a964:	c7 85 64 f7 ff ff ff 	movl   $0xffffffff,-0x89c(%rbp)
    a96b:	ff ff ff 
    a96e:	c7 85 68 f7 ff ff 8f 	movl   $0x1767ff8f,-0x898(%rbp)
    a975:	ff 67 17 
    a978:	c7 85 6c f7 ff ff 00 	movl   $0x0,-0x894(%rbp)
    a97f:	00 00 00 
    a982:	48 b8 54 1d 28 f5 24 	movabs $0x5eda1124f5281d54,%rax
    a989:	11 da 5e 
    a98c:	48 89 85 78 f7 ff ff 	mov    %rax,-0x888(%rbp)
    a993:	48 b8 b7 ff 26 37 9b 	movabs $0x3729b9b3726ffb7,%rax
    a99a:	9b 72 03 
    a99d:	48 89 85 80 f7 ff ff 	mov    %rax,-0x880(%rbp)
    a9a4:	c7 05 86 46 01 00 00 	movl   $0x0,0x14686(%rip)        # 1f034 <g_4+0x4>
    a9ab:	00 00 00 
    a9ae:	e9 1b 01 00 00       	jmpq   aace <func_1+0x319>
    a9b3:	48 8d 85 f0 f8 ff ff 	lea    -0x710(%rbp),%rax
    a9ba:	48 8d 15 3f f7 00 00 	lea    0xf73f(%rip),%rdx        # 1a100 <g_1819+0x20>
    a9c1:	b9 38 00 00 00       	mov    $0x38,%ecx
    a9c6:	48 89 c7             	mov    %rax,%rdi
    a9c9:	48 89 d6             	mov    %rdx,%rsi
    a9cc:	f3 48 a5             	rep movsq %ds:(%rsi),%es:(%rdi)
    a9cf:	48 8d 05 66 46 01 00 	lea    0x14666(%rip),%rax        # 1f03c <g_41>
    a9d6:	48 89 85 88 f7 ff ff 	mov    %rax,-0x878(%rbp)
    a9dd:	66 c7 85 50 f7 ff ff 	movw   $0x0,-0x8b0(%rbp)
    a9e4:	00 00 
    a9e6:	48 c7 85 90 f7 ff ff 	movq   $0x0,-0x870(%rbp)
    a9ed:	00 00 00 00 
    a9f1:	48 8d 05 10 4a 01 00 	lea    0x14a10(%rip),%rax        # 1f408 <g_143>
    a9f8:	48 89 85 d0 f7 ff ff 	mov    %rax,-0x830(%rbp)
    a9ff:	48 8d 05 8a 4a 01 00 	lea    0x14a8a(%rip),%rax        # 1f490 <g_347>
    aa06:	48 89 85 d8 f7 ff ff 	mov    %rax,-0x828(%rbp)
    aa0d:	48 8d 05 f4 49 01 00 	lea    0x149f4(%rip),%rax        # 1f408 <g_143>
    aa14:	48 89 85 e0 f7 ff ff 	mov    %rax,-0x820(%rbp)
    aa1b:	48 8d 05 6e 4a 01 00 	lea    0x14a6e(%rip),%rax        # 1f490 <g_347>
    aa22:	48 89 85 e8 f7 ff ff 	mov    %rax,-0x818(%rbp)
    aa29:	48 8d 05 d8 49 01 00 	lea    0x149d8(%rip),%rax        # 1f408 <g_143>
    aa30:	48 89 85 f0 f7 ff ff 	mov    %rax,-0x810(%rbp)
    aa37:	48 8d 85 b0 fa ff ff 	lea    -0x550(%rbp),%rax
    aa3e:	48 8d 15 9b 4e 01 00 	lea    0x14e9b(%rip),%rdx        # 1f8e0 <g_1964+0x40>
    aa45:	b9 a8 00 00 00       	mov    $0xa8,%ecx
    aa4a:	48 89 c7             	mov    %rax,%rdi
    aa4d:	48 89 d6             	mov    %rdx,%rsi
    aa50:	f3 48 a5             	rep movsq %ds:(%rsi),%es:(%rdi)
    aa53:	48 c7 85 98 f7 ff ff 	movq   $0xfffffffffffffffc,-0x868(%rbp)
    aa5a:	fc ff ff ff 
    aa5e:	48 c7 85 a0 f7 ff ff 	movq   $0x0,-0x860(%rbp)
    aa65:	00 00 00 00 
    aa69:	48 8d 05 c7 49 01 00 	lea    0x149c7(%rip),%rax        # 1f437 <g_275+0x7>
    aa70:	48 89 85 a8 f7 ff ff 	mov    %rax,-0x858(%rbp)
    aa77:	66 c7 85 52 f7 ff ff 	movw   $0x92a0,-0x8ae(%rbp)
    aa7e:	a0 92 
    aa80:	c7 85 54 f7 ff ff 00 	movl   $0x0,-0x8ac(%rbp)
    aa87:	00 00 00 
    aa8a:	eb 1b                	jmp    aaa7 <func_1+0x2f2>
    aa8c:	8b 85 54 f7 ff ff    	mov    -0x8ac(%rbp),%eax
    aa92:	48 98                	cltq   
    aa94:	48 c7 84 c5 b0 f7 ff 	movq   $0x0,-0x850(%rbp,%rax,8)
    aa9b:	ff 00 00 00 00 
    aaa0:	83 85 54 f7 ff ff 01 	addl   $0x1,-0x8ac(%rbp)
    aaa7:	83 bd 54 f7 ff ff 03 	cmpl   $0x3,-0x8ac(%rbp)
    aaae:	7e dc                	jle    aa8c <func_1+0x2d7>
    aab0:	8b 05 7e 45 01 00    	mov    0x1457e(%rip),%eax        # 1f034 <g_4+0x4>
    aab6:	0f be c0             	movsbl %al,%eax
    aab9:	be 07 00 00 00       	mov    $0x7,%esi
    aabe:	89 c7                	mov    %eax,%edi
    aac0:	e8 0f e7 ff ff       	callq  91d4 <safe_add_func_int8_t_s_s>
    aac5:	0f be c0             	movsbl %al,%eax
    aac8:	89 05 66 45 01 00    	mov    %eax,0x14566(%rip)        # 1f034 <g_4+0x4>
    aace:	8b 05 60 45 01 00    	mov    0x14560(%rip),%eax        # 1f034 <g_4+0x4>
    aad4:	83 f8 02             	cmp    $0x2,%eax
    aad7:	0f 8e d6 fe ff ff    	jle    a9b3 <func_1+0x1fe>
    aadd:	8b 85 6c f7 ff ff    	mov    -0x894(%rbp),%eax
    aae3:	48 8b 7d f8          	mov    -0x8(%rbp),%rdi
    aae7:	64 48 33 3c 25 28 00 	xor    %fs:0x28,%rdi
    aaee:	00 00 
    aaf0:	74 05                	je     aaf7 <func_1+0x342>
    aaf2:	e8 79 e5 ff ff       	callq  9070 <__stack_chk_fail@plt>
    aaf7:	c9                   	leaveq 
    aaf8:	c3                   	retq   

000000000000aaf9 <func_10>:
    aaf9:	f3 0f 1e fa          	endbr64 
    aafd:	55                   	push   %rbp
    aafe:	48 89 e5             	mov    %rsp,%rbp
    ab01:	89 7d fc             	mov    %edi,-0x4(%rbp)
    ab04:	89 75 f8             	mov    %esi,-0x8(%rbp)
    ab07:	89 d0                	mov    %edx,%eax
    ab09:	66 89 45 f4          	mov    %ax,-0xc(%rbp)
    ab0d:	48 8b 05 44 72 01 00 	mov    0x17244(%rip),%rax        # 21d58 <g_322>
    ab14:	0f b7 00             	movzwl (%rax),%eax
    ab17:	5d                   	pop    %rbp
    ab18:	c3                   	retq   

000000000000ab19 <func_16>:
    ab19:	f3 0f 1e fa          	endbr64 
    ab1d:	55                   	push   %rbp
    ab1e:	48 89 e5             	mov    %rsp,%rbp
    ab21:	41 55                	push   %r13
    ab23:	41 54                	push   %r12
    ab25:	53                   	push   %rbx
    ab26:	48 81 ec 88 0e 00 00 	sub    $0xe88,%rsp
    ab2d:	48 89 bd 78 f1 ff ff 	mov    %rdi,-0xe88(%rbp)
    ab34:	89 b5 74 f1 ff ff    	mov    %esi,-0xe8c(%rbp)
    ab3a:	48 89 95 68 f1 ff ff 	mov    %rdx,-0xe98(%rbp)
    ab41:	89 8d 70 f1 ff ff    	mov    %ecx,-0xe90(%rbp)
    ab47:	44 89 c0             	mov    %r8d,%eax
    ab4a:	88 85 64 f1 ff ff    	mov    %al,-0xe9c(%rbp)
    ab50:	64 48 8b 04 25 28 00 	mov    %fs:0x28,%rax
    ab57:	00 00 
    ab59:	48 89 45 d8          	mov    %rax,-0x28(%rbp)
    ab5d:	31 c0                	xor    %eax,%eax
    ab5f:	c7 85 a4 f1 ff ff b8 	movl   $0x88e024b8,-0xe5c(%rbp)
    ab66:	24 e0 88 
    ab69:	48 8d 05 70 f5 00 00 	lea    0xf570(%rip),%rax        # 1a0e0 <g_1819>
    ab70:	48 89 85 e8 f1 ff ff 	mov    %rax,-0xe18(%rbp)
    ab77:	48 8d 85 e8 f1 ff ff 	lea    -0xe18(%rbp),%rax
    ab7e:	48 89 85 f0 f1 ff ff 	mov    %rax,-0xe10(%rbp)
    ab85:	48 8d 05 84 72 01 00 	lea    0x17284(%rip),%rax        # 21e10 <g_580>
    ab8c:	48 89 85 f8 f1 ff ff 	mov    %rax,-0xe08(%rbp)
    ab93:	48 8d 05 7e 72 01 00 	lea    0x1727e(%rip),%rax        # 21e18 <g_579>
    ab9a:	48 89 85 40 f2 ff ff 	mov    %rax,-0xdc0(%rbp)
    aba1:	48 8d 05 8e 48 01 00 	lea    0x1488e(%rip),%rax        # 1f436 <g_275+0x6>
    aba8:	48 89 85 48 f2 ff ff 	mov    %rax,-0xdb8(%rbp)
    abaf:	48 c7 85 50 f2 ff ff 	movq   $0x1,-0xdb0(%rbp)
    abb6:	01 00 00 00 
    abba:	48 8d 05 9f 86 01 00 	lea    0x1869f(%rip),%rax        # 23260 <g_649>
    abc1:	48 89 85 58 f2 ff ff 	mov    %rax,-0xda8(%rbp)
    abc8:	c7 85 8c f1 ff ff 00 	movl   $0x0,-0xe74(%rbp)
    abcf:	00 00 00 
    abd2:	eb 1e                	jmp    abf2 <func_16+0xd9>
    abd4:	8b 85 8c f1 ff ff    	mov    -0xe74(%rbp),%eax
    abda:	48 98                	cltq   
    abdc:	48 8d 95 f0 f1 ff ff 	lea    -0xe10(%rbp),%rdx
    abe3:	48 89 94 c5 20 f3 ff 	mov    %rdx,-0xce0(%rbp,%rax,8)
    abea:	ff 
    abeb:	83 85 8c f1 ff ff 01 	addl   $0x1,-0xe74(%rbp)
    abf2:	83 bd 8c f1 ff ff 03 	cmpl   $0x3,-0xe74(%rbp)
    abf9:	7e d9                	jle    abd4 <func_16+0xbb>
    abfb:	c7 85 8c f1 ff ff 00 	movl   $0x0,-0xe74(%rbp)
    ac02:	00 00 00 
    ac05:	eb 1b                	jmp    ac22 <func_16+0x109>
    ac07:	8b 85 8c f1 ff ff    	mov    -0xe74(%rbp),%eax
    ac0d:	48 98                	cltq   
    ac0f:	48 c7 84 c5 08 f3 ff 	movq   $0x0,-0xcf8(%rbp,%rax,8)
    ac16:	ff 00 00 00 00 
    ac1b:	83 85 8c f1 ff ff 01 	addl   $0x1,-0xe74(%rbp)
    ac22:	83 bd 8c f1 ff ff 00 	cmpl   $0x0,-0xe74(%rbp)
    ac29:	7e dc                	jle    ac07 <func_16+0xee>
    ac2b:	c6 05 4e 4c 01 00 00 	movb   $0x0,0x14c4e(%rip)        # 1f880 <g_1678>
    ac32:	e9 11 12 00 00       	jmpq   be48 <func_16+0x132f>
    ac37:	48 c7 85 60 f2 ff ff 	movq   $0x0,-0xda0(%rbp)
    ac3e:	00 00 00 00 
    ac42:	48 8d 05 af 74 01 00 	lea    0x174af(%rip),%rax        # 220f8 <g_1581>
    ac49:	48 89 85 68 f2 ff ff 	mov    %rax,-0xd98(%rbp)
    ac50:	48 8d 05 09 86 01 00 	lea    0x18609(%rip),%rax        # 23260 <g_649>
    ac57:	48 89 85 00 f2 ff ff 	mov    %rax,-0xe00(%rbp)
    ac5e:	48 8d 85 00 f2 ff ff 	lea    -0xe00(%rbp),%rax
    ac65:	48 89 85 08 f2 ff ff 	mov    %rax,-0xdf8(%rbp)
    ac6c:	0f b6 05 0d 4c 01 00 	movzbl 0x14c0d(%rip),%eax        # 1f880 <g_1678>
    ac73:	0f b6 c0             	movzbl %al,%eax
    ac76:	83 c0 01             	add    $0x1,%eax
    ac79:	48 98                	cltq   
    ac7b:	48 8d 14 00          	lea    (%rax,%rax,1),%rdx
    ac7f:	48 8d 05 22 48 01 00 	lea    0x14822(%rip),%rax        # 1f4a8 <g_632>
    ac86:	48 01 d0             	add    %rdx,%rax
    ac89:	48 89 85 10 f2 ff ff 	mov    %rax,-0xdf0(%rbp)
    ac90:	48 c7 85 00 f4 ff ff 	movq   $0x0,-0xc00(%rbp)
    ac97:	00 00 00 00 
    ac9b:	48 c7 85 08 f4 ff ff 	movq   $0x0,-0xbf8(%rbp)
    aca2:	00 00 00 00 
    aca6:	48 c7 85 10 f4 ff ff 	movq   $0x0,-0xbf0(%rbp)
    acad:	00 00 00 00 
    acb1:	48 c7 85 18 f4 ff ff 	movq   $0x0,-0xbe8(%rbp)
    acb8:	00 00 00 00 
    acbc:	48 c7 85 20 f4 ff ff 	movq   $0x0,-0xbe0(%rbp)
    acc3:	00 00 00 00 
    acc7:	48 c7 85 28 f4 ff ff 	movq   $0x0,-0xbd8(%rbp)
    acce:	00 00 00 00 
    acd2:	48 c7 85 30 f4 ff ff 	movq   $0x0,-0xbd0(%rbp)
    acd9:	00 00 00 00 
    acdd:	48 c7 85 38 f4 ff ff 	movq   $0x0,-0xbc8(%rbp)
    ace4:	00 00 00 00 
    ace8:	48 8d 85 10 f2 ff ff 	lea    -0xdf0(%rbp),%rax
    acef:	48 89 85 30 f4 ff ff 	mov    %rax,-0xbd0(%rbp)
    acf6:	48 8d 85 00 f4 ff ff 	lea    -0xc00(%rbp),%rax
    acfd:	48 83 c0 28          	add    $0x28,%rax
    ad01:	48 89 85 18 f2 ff ff 	mov    %rax,-0xde8(%rbp)
    ad08:	c7 85 90 f1 ff ff ff 	movl   $0xffffffff,-0xe70(%rbp)
    ad0f:	ff ff ff 
    ad12:	c7 85 40 f3 ff ff 04 	movl   $0x83620904,-0xcc0(%rbp)
    ad19:	09 62 83 
    ad1c:	c7 85 44 f3 ff ff b2 	movl   $0x28fd72b2,-0xcbc(%rbp)
    ad23:	72 fd 28 
    ad26:	c7 85 48 f3 ff ff b2 	movl   $0x28fd72b2,-0xcb8(%rbp)
    ad2d:	72 fd 28 
    ad30:	c7 85 4c f3 ff ff 04 	movl   $0x83620904,-0xcb4(%rbp)
    ad37:	09 62 83 
    ad3a:	c7 85 50 f3 ff ff b2 	movl   $0x28fd72b2,-0xcb0(%rbp)
    ad41:	72 fd 28 
    ad44:	c7 85 54 f3 ff ff b2 	movl   $0x28fd72b2,-0xcac(%rbp)
    ad4b:	72 fd 28 
    ad4e:	c7 85 58 f3 ff ff 04 	movl   $0x83620904,-0xca8(%rbp)
    ad55:	09 62 83 
    ad58:	c7 85 5c f3 ff ff b2 	movl   $0x28fd72b2,-0xca4(%rbp)
    ad5f:	72 fd 28 
    ad62:	c7 85 60 f3 ff ff b2 	movl   $0x28fd72b2,-0xca0(%rbp)
    ad69:	72 fd 28 
    ad6c:	48 8d 85 f8 f1 ff ff 	lea    -0xe08(%rbp),%rax
    ad73:	48 89 85 80 f4 ff ff 	mov    %rax,-0xb80(%rbp)
    ad7a:	48 8d 85 f8 f1 ff ff 	lea    -0xe08(%rbp),%rax
    ad81:	48 89 85 88 f4 ff ff 	mov    %rax,-0xb78(%rbp)
    ad88:	48 8d 85 f8 f1 ff ff 	lea    -0xe08(%rbp),%rax
    ad8f:	48 89 85 90 f4 ff ff 	mov    %rax,-0xb70(%rbp)
    ad96:	48 8d 85 f8 f1 ff ff 	lea    -0xe08(%rbp),%rax
    ad9d:	48 89 85 98 f4 ff ff 	mov    %rax,-0xb68(%rbp)
    ada4:	48 8d 85 f8 f1 ff ff 	lea    -0xe08(%rbp),%rax
    adab:	48 89 85 a0 f4 ff ff 	mov    %rax,-0xb60(%rbp)
    adb2:	48 8d 05 5f 70 01 00 	lea    0x1705f(%rip),%rax        # 21e18 <g_579>
    adb9:	48 89 85 a8 f4 ff ff 	mov    %rax,-0xb58(%rbp)
    adc0:	48 8d 85 f8 f1 ff ff 	lea    -0xe08(%rbp),%rax
    adc7:	48 89 85 b0 f4 ff ff 	mov    %rax,-0xb50(%rbp)
    adce:	48 c7 85 b8 f4 ff ff 	movq   $0x0,-0xb48(%rbp)
    add5:	00 00 00 00 
    add9:	48 8d 05 38 70 01 00 	lea    0x17038(%rip),%rax        # 21e18 <g_579>
    ade0:	48 89 85 c0 f4 ff ff 	mov    %rax,-0xb40(%rbp)
    ade7:	48 8d 05 2a 70 01 00 	lea    0x1702a(%rip),%rax        # 21e18 <g_579>
    adee:	48 89 85 c8 f4 ff ff 	mov    %rax,-0xb38(%rbp)
    adf5:	48 8d 85 f8 f1 ff ff 	lea    -0xe08(%rbp),%rax
    adfc:	48 89 85 d0 f4 ff ff 	mov    %rax,-0xb30(%rbp)
    ae03:	48 8d 85 f8 f1 ff ff 	lea    -0xe08(%rbp),%rax
    ae0a:	48 89 85 d8 f4 ff ff 	mov    %rax,-0xb28(%rbp)
    ae11:	48 8d 85 f8 f1 ff ff 	lea    -0xe08(%rbp),%rax
    ae18:	48 89 85 e0 f4 ff ff 	mov    %rax,-0xb20(%rbp)
    ae1f:	48 8d 85 f8 f1 ff ff 	lea    -0xe08(%rbp),%rax
    ae26:	48 89 85 e8 f4 ff ff 	mov    %rax,-0xb18(%rbp)
    ae2d:	48 8d 85 f8 f1 ff ff 	lea    -0xe08(%rbp),%rax
    ae34:	48 89 85 f0 f4 ff ff 	mov    %rax,-0xb10(%rbp)
    ae3b:	48 8d 05 d6 6f 01 00 	lea    0x16fd6(%rip),%rax        # 21e18 <g_579>
    ae42:	48 89 85 f8 f4 ff ff 	mov    %rax,-0xb08(%rbp)
    ae49:	48 8d 05 c8 6f 01 00 	lea    0x16fc8(%rip),%rax        # 21e18 <g_579>
    ae50:	48 89 85 00 f5 ff ff 	mov    %rax,-0xb00(%rbp)
    ae57:	48 8d 05 ba 6f 01 00 	lea    0x16fba(%rip),%rax        # 21e18 <g_579>
    ae5e:	48 89 85 08 f5 ff ff 	mov    %rax,-0xaf8(%rbp)
    ae65:	48 8d 05 ac 6f 01 00 	lea    0x16fac(%rip),%rax        # 21e18 <g_579>
    ae6c:	48 89 85 10 f5 ff ff 	mov    %rax,-0xaf0(%rbp)
    ae73:	48 8d 05 9e 6f 01 00 	lea    0x16f9e(%rip),%rax        # 21e18 <g_579>
    ae7a:	48 89 85 18 f5 ff ff 	mov    %rax,-0xae8(%rbp)
    ae81:	48 8d 85 f8 f1 ff ff 	lea    -0xe08(%rbp),%rax
    ae88:	48 89 85 20 f5 ff ff 	mov    %rax,-0xae0(%rbp)
    ae8f:	48 8d 85 f8 f1 ff ff 	lea    -0xe08(%rbp),%rax
    ae96:	48 89 85 28 f5 ff ff 	mov    %rax,-0xad8(%rbp)
    ae9d:	48 8d 05 74 6f 01 00 	lea    0x16f74(%rip),%rax        # 21e18 <g_579>
    aea4:	48 89 85 30 f5 ff ff 	mov    %rax,-0xad0(%rbp)
    aeab:	48 8d 85 f8 f1 ff ff 	lea    -0xe08(%rbp),%rax
    aeb2:	48 89 85 38 f5 ff ff 	mov    %rax,-0xac8(%rbp)
    aeb9:	48 8d 05 58 6f 01 00 	lea    0x16f58(%rip),%rax        # 21e18 <g_579>
    aec0:	48 89 85 40 f5 ff ff 	mov    %rax,-0xac0(%rbp)
    aec7:	48 8d 85 f8 f1 ff ff 	lea    -0xe08(%rbp),%rax
    aece:	48 89 85 48 f5 ff ff 	mov    %rax,-0xab8(%rbp)
    aed5:	48 8d 05 3c 6f 01 00 	lea    0x16f3c(%rip),%rax        # 21e18 <g_579>
    aedc:	48 89 85 50 f5 ff ff 	mov    %rax,-0xab0(%rbp)
    aee3:	48 8d 05 2e 6f 01 00 	lea    0x16f2e(%rip),%rax        # 21e18 <g_579>
    aeea:	48 89 85 58 f5 ff ff 	mov    %rax,-0xaa8(%rbp)
    aef1:	48 8d 05 20 6f 01 00 	lea    0x16f20(%rip),%rax        # 21e18 <g_579>
    aef8:	48 89 85 60 f5 ff ff 	mov    %rax,-0xaa0(%rbp)
    aeff:	48 8d 05 12 6f 01 00 	lea    0x16f12(%rip),%rax        # 21e18 <g_579>
    af06:	48 89 85 68 f5 ff ff 	mov    %rax,-0xa98(%rbp)
    af0d:	48 8d 05 04 6f 01 00 	lea    0x16f04(%rip),%rax        # 21e18 <g_579>
    af14:	48 89 85 70 f5 ff ff 	mov    %rax,-0xa90(%rbp)
    af1b:	48 8d 85 f8 f1 ff ff 	lea    -0xe08(%rbp),%rax
    af22:	48 89 85 78 f5 ff ff 	mov    %rax,-0xa88(%rbp)
    af29:	48 8d 85 f8 f1 ff ff 	lea    -0xe08(%rbp),%rax
    af30:	48 89 85 80 f5 ff ff 	mov    %rax,-0xa80(%rbp)
    af37:	48 8d 05 da 6e 01 00 	lea    0x16eda(%rip),%rax        # 21e18 <g_579>
    af3e:	48 89 85 88 f5 ff ff 	mov    %rax,-0xa78(%rbp)
    af45:	48 8d 85 f8 f1 ff ff 	lea    -0xe08(%rbp),%rax
    af4c:	48 89 85 90 f5 ff ff 	mov    %rax,-0xa70(%rbp)
    af53:	48 8d 85 f8 f1 ff ff 	lea    -0xe08(%rbp),%rax
    af5a:	48 89 85 98 f5 ff ff 	mov    %rax,-0xa68(%rbp)
    af61:	48 8d 05 b0 6e 01 00 	lea    0x16eb0(%rip),%rax        # 21e18 <g_579>
    af68:	48 89 85 a0 f5 ff ff 	mov    %rax,-0xa60(%rbp)
    af6f:	48 c7 85 a8 f5 ff ff 	movq   $0x0,-0xa58(%rbp)
    af76:	00 00 00 00 
    af7a:	48 8d 05 97 6e 01 00 	lea    0x16e97(%rip),%rax        # 21e18 <g_579>
    af81:	48 89 85 b0 f5 ff ff 	mov    %rax,-0xa50(%rbp)
    af88:	48 8d 85 f8 f1 ff ff 	lea    -0xe08(%rbp),%rax
    af8f:	48 89 85 b8 f5 ff ff 	mov    %rax,-0xa48(%rbp)
    af96:	48 8d 85 f8 f1 ff ff 	lea    -0xe08(%rbp),%rax
    af9d:	48 89 85 c0 f5 ff ff 	mov    %rax,-0xa40(%rbp)
    afa4:	48 8d 85 f8 f1 ff ff 	lea    -0xe08(%rbp),%rax
    afab:	48 89 85 c8 f5 ff ff 	mov    %rax,-0xa38(%rbp)
    afb2:	48 8d 85 f8 f1 ff ff 	lea    -0xe08(%rbp),%rax
    afb9:	48 89 85 d0 f5 ff ff 	mov    %rax,-0xa30(%rbp)
    afc0:	48 8d 85 f8 f1 ff ff 	lea    -0xe08(%rbp),%rax
    afc7:	48 89 85 d8 f5 ff ff 	mov    %rax,-0xa28(%rbp)
    afce:	48 8d 85 f8 f1 ff ff 	lea    -0xe08(%rbp),%rax
    afd5:	48 89 85 e0 f5 ff ff 	mov    %rax,-0xa20(%rbp)
    afdc:	66 c7 85 88 f1 ff ff 	movw   $0x5264,-0xe78(%rbp)
    afe3:	64 52 
    afe5:	c7 85 94 f1 ff ff 00 	movl   $0x0,-0xe6c(%rbp)
    afec:	00 00 00 
    afef:	eb 1e                	jmp    b00f <func_16+0x4f6>
    aff1:	8b 85 94 f1 ff ff    	mov    -0xe6c(%rbp),%eax
    aff7:	48 98                	cltq   
    aff9:	48 8d 95 18 f2 ff ff 	lea    -0xde8(%rbp),%rdx
    b000:	48 89 94 c5 10 f3 ff 	mov    %rdx,-0xcf0(%rbp,%rax,8)
    b007:	ff 
    b008:	83 85 94 f1 ff ff 01 	addl   $0x1,-0xe6c(%rbp)
    b00f:	83 bd 94 f1 ff ff 01 	cmpl   $0x1,-0xe6c(%rbp)
    b016:	7e d9                	jle    aff1 <func_16+0x4d8>
    b018:	0f b6 05 61 48 01 00 	movzbl 0x14861(%rip),%eax        # 1f880 <g_1678>
    b01f:	0f b6 c0             	movzbl %al,%eax
    b022:	83 c0 01             	add    $0x1,%eax
    b025:	48 98                	cltq   
    b027:	48 8d 14 00          	lea    (%rax,%rax,1),%rdx
    b02b:	48 8d 05 76 44 01 00 	lea    0x14476(%rip),%rax        # 1f4a8 <g_632>
    b032:	0f b7 04 02          	movzwl (%rdx,%rax,1),%eax
    b036:	0f bf d8             	movswl %ax,%ebx
    b039:	48 8b 85 68 f2 ff ff 	mov    -0xd98(%rbp),%rax
    b040:	48 c7 00 00 00 00 00 	movq   $0x0,(%rax)
    b047:	48 8b 85 08 f2 ff ff 	mov    -0xdf8(%rbp),%rax
    b04e:	48 8b 95 68 f2 ff ff 	mov    -0xd98(%rbp),%rdx
    b055:	48 8b 12             	mov    (%rdx),%rdx
    b058:	48 89 10             	mov    %rdx,(%rax)
    b05b:	48 8b 00             	mov    (%rax),%rax
    b05e:	48 39 85 60 f2 ff ff 	cmp    %rax,-0xda0(%rbp)
    b065:	75 5a                	jne    b0c1 <func_16+0x5a8>
    b067:	48 8b 85 18 f2 ff ff 	mov    -0xde8(%rbp),%rax
    b06e:	48 89 85 38 f3 ff ff 	mov    %rax,-0xcc8(%rbp)
    b075:	48 8b 85 38 f3 ff ff 	mov    -0xcc8(%rbp),%rax
    b07c:	48 89 05 b5 78 01 00 	mov    %rax,0x178b5(%rip)        # 22938 <g_1820>
    b083:	48 c7 c6 f8 ff ff ff 	mov    $0xfffffffffffffff8,%rsi
    b08a:	bf 01 00 00 00       	mov    $0x1,%edi
    b08f:	e8 1b f0 ff ff       	callq  a0af <safe_div_func_uint64_t_u_u>
    b094:	0f be d0             	movsbl %al,%edx
    b097:	8b 85 a4 f1 ff ff    	mov    -0xe5c(%rbp),%eax
    b09d:	0f be c0             	movsbl %al,%eax
    b0a0:	89 d6                	mov    %edx,%esi
    b0a2:	89 c7                	mov    %eax,%edi
    b0a4:	e8 c1 e1 ff ff       	callq  926a <safe_div_func_int8_t_s_s>
    b0a9:	66 98                	cbtw   
    b0ab:	0f b7 c0             	movzwl %ax,%eax
    b0ae:	be c1 5a 00 00       	mov    $0x5ac1,%esi
    b0b3:	89 c7                	mov    %eax,%edi
    b0b5:	e8 a2 ec ff ff       	callq  9d5c <safe_mod_func_uint16_t_u_u>
    b0ba:	b8 01 00 00 00       	mov    $0x1,%eax
    b0bf:	eb 05                	jmp    b0c6 <func_16+0x5ad>
    b0c1:	b8 00 00 00 00       	mov    $0x0,%eax
    b0c6:	39 d8                	cmp    %ebx,%eax
    b0c8:	0f 9d c0             	setge  %al
    b0cb:	0f b6 c0             	movzbl %al,%eax
    b0ce:	89 c6                	mov    %eax,%esi
    b0d0:	bf ab ff ff ff       	mov    $0xffffffab,%edi
    b0d5:	e8 c7 e1 ff ff       	callq  92a1 <safe_lshift_func_int8_t_s_s>
    b0da:	84 c0                	test   %al,%al
    b0dc:	0f 84 da 04 00 00    	je     b5bc <func_16+0xaa3>
    b0e2:	48 8d 05 d3 43 01 00 	lea    0x143d3(%rip),%rax        # 1f4bc <g_1082>
    b0e9:	48 89 85 a0 f2 ff ff 	mov    %rax,-0xd60(%rbp)
    b0f0:	48 8d 05 c9 6c 01 00 	lea    0x16cc9(%rip),%rax        # 21dc0 <g_399>
    b0f7:	48 89 85 a8 f2 ff ff 	mov    %rax,-0xd58(%rbp)
    b0fe:	48 8b 85 a0 f2 ff ff 	mov    -0xd60(%rbp),%rax
    b105:	c7 00 ff ff ff ff    	movl   $0xffffffff,(%rax)
    b10b:	48 8b 95 08 f3 ff ff 	mov    -0xcf8(%rbp),%rdx
    b112:	48 8b 85 a8 f2 ff ff 	mov    -0xd58(%rbp),%rax
    b119:	48 89 10             	mov    %rdx,(%rax)
    b11c:	c7 05 7a 43 01 00 00 	movl   $0x0,0x1437a(%rip)        # 1f4a0 <g_509>
    b123:	00 00 00 
    b126:	e9 6f 04 00 00       	jmpq   b59a <func_16+0xa81>
    b12b:	48 c7 85 b0 f2 ff ff 	movq   $0x0,-0xd50(%rbp)
    b132:	00 00 00 00 
    b136:	c7 85 b4 f1 ff ff 07 	movl   $0x7,-0xe4c(%rbp)
    b13d:	00 00 00 
    b140:	c7 85 b8 f1 ff ff fc 	movl   $0xfffffffc,-0xe48(%rbp)
    b147:	ff ff ff 
    b14a:	c7 85 bc f1 ff ff 01 	movl   $0x1,-0xe44(%rbp)
    b151:	00 00 00 
    b154:	48 8b 85 a8 f2 ff ff 	mov    -0xd58(%rbp),%rax
    b15b:	48 8b 95 b0 f2 ff ff 	mov    -0xd50(%rbp),%rdx
    b162:	48 89 10             	mov    %rdx,(%rax)
    b165:	48 8b 85 a0 f2 ff ff 	mov    -0xd60(%rbp),%rax
    b16c:	c7 00 00 00 00 00    	movl   $0x0,(%rax)
    b172:	8b 85 74 f1 ff ff    	mov    -0xe8c(%rbp),%eax
    b178:	0f b6 d0             	movzbl %al,%edx
    b17b:	80 bd 64 f1 ff ff 01 	cmpb   $0x1,-0xe9c(%rbp)
    b182:	0f 97 c0             	seta   %al
    b185:	0f b6 c0             	movzbl %al,%eax
    b188:	89 d6                	mov    %edx,%esi
    b18a:	89 c7                	mov    %eax,%edi
    b18c:	e8 c9 e9 ff ff       	callq  9b5a <safe_add_func_uint8_t_u_u>
    b191:	0f b6 c8             	movzbl %al,%ecx
    b194:	0f b6 85 64 f1 ff ff 	movzbl -0xe9c(%rbp),%eax
    b19b:	39 85 b4 f1 ff ff    	cmp    %eax,-0xe4c(%rbp)
    b1a1:	0f 9d c2             	setge  %dl
    b1a4:	48 8b 05 0d 6d 01 00 	mov    0x16d0d(%rip),%rax        # 21eb8 <g_1363>
    b1ab:	0f b6 d2             	movzbl %dl,%edx
    b1ae:	48 89 10             	mov    %rdx,(%rax)
    b1b1:	48 8b 00             	mov    (%rax),%rax
    b1b4:	48 09 c8             	or     %rcx,%rax
    b1b7:	48 85 c0             	test   %rax,%rax
    b1ba:	75 16                	jne    b1d2 <func_16+0x6b9>
    b1bc:	48 8b 85 78 f1 ff ff 	mov    -0xe88(%rbp),%rax
    b1c3:	0f be c0             	movsbl %al,%eax
    b1c6:	be 14 00 00 00       	mov    $0x14,%esi
    b1cb:	89 c7                	mov    %eax,%edi
    b1cd:	e8 1c e1 ff ff       	callq  92ee <safe_lshift_func_int8_t_s_u>
    b1d2:	b8 01 00 00 00       	mov    $0x1,%eax
    b1d7:	3b 85 70 f1 ff ff    	cmp    -0xe90(%rbp),%eax
    b1dd:	0f 94 c0             	sete   %al
    b1e0:	0f b6 d0             	movzbl %al,%edx
    b1e3:	48 8b 05 1e 6c 01 00 	mov    0x16c1e(%rip),%rax        # 21e08 <g_581>
    b1ea:	0f b6 00             	movzbl (%rax),%eax
    b1ed:	0f b6 c0             	movzbl %al,%eax
    b1f0:	39 c2                	cmp    %eax,%edx
    b1f2:	0f 95 c0             	setne  %al
    b1f5:	0f b6 c0             	movzbl %al,%eax
    b1f8:	89 c6                	mov    %eax,%esi
    b1fa:	bf 01 00 00 00       	mov    $0x1,%edi
    b1ff:	e8 d0 df ff ff       	callq  91d4 <safe_add_func_int8_t_s_s>
    b204:	48 8b 95 a0 f2 ff ff 	mov    -0xd60(%rbp),%rdx
    b20b:	8b 12                	mov    (%rdx),%edx
    b20d:	0f be c0             	movsbl %al,%eax
    b210:	09 c2                	or     %eax,%edx
    b212:	48 8b 85 a0 f2 ff ff 	mov    -0xd60(%rbp),%rax
    b219:	89 10                	mov    %edx,(%rax)
    b21b:	c7 05 03 42 01 00 00 	movl   $0x0,0x14203(%rip)        # 1f428 <g_267>
    b222:	00 00 00 
    b225:	e9 52 03 00 00       	jmpq   b57c <func_16+0xa63>
    b22a:	c6 85 86 f1 ff ff 43 	movb   $0x43,-0xe7a(%rbp)
    b231:	c7 85 98 f1 ff ff 00 	movl   $0x0,-0xe68(%rbp)
    b238:	00 00 00 
    b23b:	eb 1e                	jmp    b25b <func_16+0x742>
    b23d:	8b 85 98 f1 ff ff    	mov    -0xe68(%rbp),%eax
    b243:	48 98                	cltq   
    b245:	48 8d 15 34 73 01 00 	lea    0x17334(%rip),%rdx        # 22580 <g_1717>
    b24c:	48 89 94 c5 f0 f5 ff 	mov    %rdx,-0xa10(%rbp,%rax,8)
    b253:	ff 
    b254:	83 85 98 f1 ff ff 01 	addl   $0x1,-0xe68(%rbp)
    b25b:	83 bd 98 f1 ff ff 04 	cmpl   $0x4,-0xe68(%rbp)
    b262:	7e d9                	jle    b23d <func_16+0x724>
    b264:	48 8b 85 a0 f2 ff ff 	mov    -0xd60(%rbp),%rax
    b26b:	8b 95 70 f1 ff ff    	mov    -0xe90(%rbp),%edx
    b271:	89 10                	mov    %edx,(%rax)
    b273:	48 8b 85 a0 f2 ff ff 	mov    -0xd60(%rbp),%rax
    b27a:	8b 00                	mov    (%rax),%eax
    b27c:	83 f0 01             	xor    $0x1,%eax
    b27f:	89 c2                	mov    %eax,%edx
    b281:	48 8b 85 a0 f2 ff ff 	mov    -0xd60(%rbp),%rax
    b288:	89 10                	mov    %edx,(%rax)
    b28a:	48 8b 85 a0 f2 ff ff 	mov    -0xd60(%rbp),%rax
    b291:	8b 00                	mov    (%rax),%eax
    b293:	89 85 90 f1 ff ff    	mov    %eax,-0xe70(%rbp)
    b299:	83 bd 90 f1 ff ff 00 	cmpl   $0x0,-0xe70(%rbp)
    b2a0:	0f 84 3e 02 00 00    	je     b4e4 <func_16+0x9cb>
    b2a6:	c7 85 c0 f1 ff ff 1b 	movl   $0x7ebeb81b,-0xe40(%rbp)
    b2ad:	b8 be 7e 
    b2b0:	48 8d 05 c9 41 01 00 	lea    0x141c9(%rip),%rax        # 1f480 <g_293>
    b2b7:	48 89 85 d0 f7 ff ff 	mov    %rax,-0x830(%rbp)
    b2be:	48 8d 05 bb 41 01 00 	lea    0x141bb(%rip),%rax        # 1f480 <g_293>
    b2c5:	48 89 85 d8 f7 ff ff 	mov    %rax,-0x828(%rbp)
    b2cc:	48 8d 05 ad 41 01 00 	lea    0x141ad(%rip),%rax        # 1f480 <g_293>
    b2d3:	48 89 85 e0 f7 ff ff 	mov    %rax,-0x820(%rbp)
    b2da:	48 8d 05 9f 41 01 00 	lea    0x1419f(%rip),%rax        # 1f480 <g_293>
    b2e1:	48 89 85 e8 f7 ff ff 	mov    %rax,-0x818(%rbp)
    b2e8:	48 8d 05 91 41 01 00 	lea    0x14191(%rip),%rax        # 1f480 <g_293>
    b2ef:	48 89 85 f0 f7 ff ff 	mov    %rax,-0x810(%rbp)
    b2f6:	48 8d 05 83 41 01 00 	lea    0x14183(%rip),%rax        # 1f480 <g_293>
    b2fd:	48 89 85 f8 f7 ff ff 	mov    %rax,-0x808(%rbp)
    b304:	48 c7 85 00 f8 ff ff 	movq   $0x0,-0x800(%rbp)
    b30b:	00 00 00 00 
    b30f:	48 8d 05 6a 41 01 00 	lea    0x1416a(%rip),%rax        # 1f480 <g_293>
    b316:	48 89 85 08 f8 ff ff 	mov    %rax,-0x7f8(%rbp)
    b31d:	48 8d 05 5c 41 01 00 	lea    0x1415c(%rip),%rax        # 1f480 <g_293>
    b324:	48 89 85 10 f8 ff ff 	mov    %rax,-0x7f0(%rbp)
    b32b:	48 8d 05 4e 41 01 00 	lea    0x1414e(%rip),%rax        # 1f480 <g_293>
    b332:	48 89 85 18 f8 ff ff 	mov    %rax,-0x7e8(%rbp)
    b339:	48 8d 05 40 41 01 00 	lea    0x14140(%rip),%rax        # 1f480 <g_293>
    b340:	48 89 85 20 f8 ff ff 	mov    %rax,-0x7e0(%rbp)
    b347:	48 8d 05 32 41 01 00 	lea    0x14132(%rip),%rax        # 1f480 <g_293>
    b34e:	48 89 85 28 f8 ff ff 	mov    %rax,-0x7d8(%rbp)
    b355:	48 8d 05 24 41 01 00 	lea    0x14124(%rip),%rax        # 1f480 <g_293>
    b35c:	48 89 85 30 f8 ff ff 	mov    %rax,-0x7d0(%rbp)
    b363:	48 8d 05 16 41 01 00 	lea    0x14116(%rip),%rax        # 1f480 <g_293>
    b36a:	48 89 85 38 f8 ff ff 	mov    %rax,-0x7c8(%rbp)
    b371:	48 8d 05 08 41 01 00 	lea    0x14108(%rip),%rax        # 1f480 <g_293>
    b378:	48 89 85 40 f8 ff ff 	mov    %rax,-0x7c0(%rbp)
    b37f:	48 c7 85 48 f8 ff ff 	movq   $0x0,-0x7b8(%rbp)
    b386:	00 00 00 00 
    b38a:	48 8d 05 ef 40 01 00 	lea    0x140ef(%rip),%rax        # 1f480 <g_293>
    b391:	48 89 85 50 f8 ff ff 	mov    %rax,-0x7b0(%rbp)
    b398:	48 c7 85 58 f8 ff ff 	movq   $0x0,-0x7a8(%rbp)
    b39f:	00 00 00 00 
    b3a3:	48 8d 05 d6 40 01 00 	lea    0x140d6(%rip),%rax        # 1f480 <g_293>
    b3aa:	48 89 85 60 f8 ff ff 	mov    %rax,-0x7a0(%rbp)
    b3b1:	48 8d 05 c8 40 01 00 	lea    0x140c8(%rip),%rax        # 1f480 <g_293>
    b3b8:	48 89 85 68 f8 ff ff 	mov    %rax,-0x798(%rbp)
    b3bf:	48 8d 05 ba 40 01 00 	lea    0x140ba(%rip),%rax        # 1f480 <g_293>
    b3c6:	48 89 85 70 f8 ff ff 	mov    %rax,-0x790(%rbp)
    b3cd:	48 8d 05 ac 40 01 00 	lea    0x140ac(%rip),%rax        # 1f480 <g_293>
    b3d4:	48 89 85 78 f8 ff ff 	mov    %rax,-0x788(%rbp)
    b3db:	48 8d 05 9e 40 01 00 	lea    0x1409e(%rip),%rax        # 1f480 <g_293>
    b3e2:	48 89 85 80 f8 ff ff 	mov    %rax,-0x780(%rbp)
    b3e9:	48 8d 05 90 40 01 00 	lea    0x14090(%rip),%rax        # 1f480 <g_293>
    b3f0:	48 89 85 88 f8 ff ff 	mov    %rax,-0x778(%rbp)
    b3f7:	48 8d 05 82 40 01 00 	lea    0x14082(%rip),%rax        # 1f480 <g_293>
    b3fe:	48 89 85 90 f8 ff ff 	mov    %rax,-0x770(%rbp)
    b405:	48 8d 05 74 40 01 00 	lea    0x14074(%rip),%rax        # 1f480 <g_293>
    b40c:	48 89 85 98 f8 ff ff 	mov    %rax,-0x768(%rbp)
    b413:	48 c7 85 a0 f8 ff ff 	movq   $0x0,-0x760(%rbp)
    b41a:	00 00 00 00 
    b41e:	c7 85 40 f4 ff ff 4b 	movl   $0xe28f894b,-0xbc0(%rbp)
    b425:	89 8f e2 
    b428:	c7 85 44 f4 ff ff fa 	movl   $0xfffffffa,-0xbbc(%rbp)
    b42f:	ff ff ff 
    b432:	c7 85 48 f4 ff ff fa 	movl   $0xfffffffa,-0xbb8(%rbp)
    b439:	ff ff ff 
    b43c:	c7 85 4c f4 ff ff 4b 	movl   $0xe28f894b,-0xbb4(%rbp)
    b443:	89 8f e2 
    b446:	c7 85 50 f4 ff ff fa 	movl   $0xfffffffa,-0xbb0(%rbp)
    b44d:	ff ff ff 
    b450:	c7 85 54 f4 ff ff fa 	movl   $0xfffffffa,-0xbac(%rbp)
    b457:	ff ff ff 
    b45a:	c7 85 58 f4 ff ff 4b 	movl   $0xe28f894b,-0xba8(%rbp)
    b461:	89 8f e2 
    b464:	c7 85 5c f4 ff ff fa 	movl   $0xfffffffa,-0xba4(%rbp)
    b46b:	ff ff ff 
    b46e:	48 8b 15 e3 68 01 00 	mov    0x168e3(%rip),%rdx        # 21d58 <g_322>
    b475:	48 8b 05 dc 68 01 00 	mov    0x168dc(%rip),%rax        # 21d58 <g_322>
    b47c:	0f b7 12             	movzwl (%rdx),%edx
    b47f:	66 89 10             	mov    %dx,(%rax)
    b482:	0f b7 00             	movzwl (%rax),%eax
    b485:	0f b7 d8             	movzwl %ax,%ebx
    b488:	81 bd c0 f1 ff ff 91 	cmpl   $0xba91,-0xe40(%rbp)
    b48f:	ba 00 00 
    b492:	0f 94 c0             	sete   %al
    b495:	0f b6 c0             	movzbl %al,%eax
    b498:	be fe 00 00 00       	mov    $0xfe,%esi
    b49d:	89 c7                	mov    %eax,%edi
    b49f:	e8 37 e7 ff ff       	callq  9bdb <safe_div_func_uint8_t_u_u>
    b4a4:	0f b6 c0             	movzbl %al,%eax
    b4a7:	89 de                	mov    %ebx,%esi
    b4a9:	89 c7                	mov    %eax,%edi
    b4ab:	e8 4f e8 ff ff       	callq  9cff <safe_add_func_uint16_t_u_u>
    b4b0:	0f b7 d0             	movzwl %ax,%edx
    b4b3:	48 8b 85 00 f6 ff ff 	mov    -0xa00(%rbp),%rax
    b4ba:	48 85 c0             	test   %rax,%rax
    b4bd:	0f 95 c0             	setne  %al
    b4c0:	0f b6 c0             	movzbl %al,%eax
    b4c3:	39 c2                	cmp    %eax,%edx
    b4c5:	0f 9e c0             	setle  %al
    b4c8:	0f b6 d0             	movzbl %al,%edx
    b4cb:	8b 85 4c f4 ff ff    	mov    -0xbb4(%rbp),%eax
    b4d1:	39 c2                	cmp    %eax,%edx
    b4d3:	0f 9d c0             	setge  %al
    b4d6:	0f b6 d0             	movzbl %al,%edx
    b4d9:	48 8b 85 a0 f2 ff ff 	mov    -0xd60(%rbp),%rax
    b4e0:	89 10                	mov    %edx,(%rax)
    b4e2:	eb 0e                	jmp    b4f2 <func_16+0x9d9>
    b4e4:	48 8b 85 a8 f2 ff ff 	mov    -0xd58(%rbp),%rax
    b4eb:	48 c7 00 00 00 00 00 	movq   $0x0,(%rax)
    b4f2:	c7 85 90 f1 ff ff 00 	movl   $0x0,-0xe70(%rbp)
    b4f9:	00 00 00 
    b4fc:	eb 66                	jmp    b564 <func_16+0xa4b>
    b4fe:	c7 85 c4 f1 ff ff 07 	movl   $0x7,-0xe3c(%rbp)
    b505:	00 00 00 
    b508:	48 8d 05 a5 3f 01 00 	lea    0x13fa5(%rip),%rax        # 1f4b4 <g_717>
    b50f:	48 89 05 c2 68 01 00 	mov    %rax,0x168c2(%rip)        # 21dd8 <g_399+0x18>
    b516:	8b 05 84 3f 01 00    	mov    0x13f84(%rip),%eax        # 1f4a0 <g_509>
    b51c:	83 c0 02             	add    $0x2,%eax
    b51f:	89 c2                	mov    %eax,%edx
    b521:	48 8d 05 08 3f 01 00 	lea    0x13f08(%rip),%rax        # 1f430 <g_275>
    b528:	0f b6 04 02          	movzbl (%rdx,%rax,1),%eax
    b52c:	84 c0                	test   %al,%al
    b52e:	75 29                	jne    b559 <func_16+0xa40>
    b530:	8b 05 6a 3f 01 00    	mov    0x13f6a(%rip),%eax        # 1f4a0 <g_509>
    b536:	83 c0 05             	add    $0x5,%eax
    b539:	89 c2                	mov    %eax,%edx
    b53b:	48 8d 05 ce 3e 01 00 	lea    0x13ece(%rip),%rax        # 1f410 <g_148>
    b542:	0f b6 04 02          	movzbl (%rdx,%rax,1),%eax
    b546:	84 c0                	test   %al,%al
    b548:	75 12                	jne    b55c <func_16+0xa43>
    b54a:	48 8b 85 78 f1 ff ff 	mov    -0xe88(%rbp),%rax
    b551:	89 85 c4 f1 ff ff    	mov    %eax,-0xe3c(%rbp)
    b557:	eb 04                	jmp    b55d <func_16+0xa44>
    b559:	90                   	nop
    b55a:	eb 01                	jmp    b55d <func_16+0xa44>
    b55c:	90                   	nop
    b55d:	83 85 90 f1 ff ff 01 	addl   $0x1,-0xe70(%rbp)
    b564:	83 bd 90 f1 ff ff 02 	cmpl   $0x2,-0xe70(%rbp)
    b56b:	7e 91                	jle    b4fe <func_16+0x9e5>
    b56d:	8b 05 b5 3e 01 00    	mov    0x13eb5(%rip),%eax        # 1f428 <g_267>
    b573:	83 c0 01             	add    $0x1,%eax
    b576:	89 05 ac 3e 01 00    	mov    %eax,0x13eac(%rip)        # 1f428 <g_267>
    b57c:	8b 05 a6 3e 01 00    	mov    0x13ea6(%rip),%eax        # 1f428 <g_267>
    b582:	83 f8 07             	cmp    $0x7,%eax
    b585:	0f 86 9f fc ff ff    	jbe    b22a <func_16+0x711>
    b58b:	8b 05 0f 3f 01 00    	mov    0x13f0f(%rip),%eax        # 1f4a0 <g_509>
    b591:	83 c0 01             	add    $0x1,%eax
    b594:	89 05 06 3f 01 00    	mov    %eax,0x13f06(%rip)        # 1f4a0 <g_509>
    b59a:	8b 05 00 3f 01 00    	mov    0x13f00(%rip),%eax        # 1f4a0 <g_509>
    b5a0:	83 f8 02             	cmp    $0x2,%eax
    b5a3:	0f 86 82 fb ff ff    	jbe    b12b <func_16+0x612>
    b5a9:	48 8b 85 30 f5 ff ff 	mov    -0xad0(%rbp),%rax
    b5b0:	48 89 85 40 f2 ff ff 	mov    %rax,-0xdc0(%rbp)
    b5b7:	e9 09 04 00 00       	jmpq   b9c5 <func_16+0xeac>
    b5bc:	48 b8 22 f2 a8 30 ae 	movabs $0x308b38ae30a8f222,%rax
    b5c3:	38 8b 30 
    b5c6:	48 89 85 38 f2 ff ff 	mov    %rax,-0xdc8(%rbp)
    b5cd:	48 c7 85 28 f2 ff ff 	movq   $0x0,-0xdd8(%rbp)
    b5d4:	00 00 00 00 
    b5d8:	48 8d 85 28 f2 ff ff 	lea    -0xdd8(%rbp),%rax
    b5df:	48 89 85 70 f2 ff ff 	mov    %rax,-0xd90(%rbp)
    b5e6:	48 8d 85 00 f2 ff ff 	lea    -0xe00(%rbp),%rax
    b5ed:	48 89 85 78 f2 ff ff 	mov    %rax,-0xd88(%rbp)
    b5f4:	c7 05 82 7c 01 00 03 	movl   $0x3,0x17c82(%rip)        # 23280 <g_1568>
    b5fb:	00 00 00 
    b5fe:	e9 ae 03 00 00       	jmpq   b9b1 <func_16+0xe98>
    b603:	c7 85 a8 f1 ff ff 37 	movl   $0x74b47e37,-0xe58(%rbp)
    b60a:	7e b4 74 
    b60d:	48 8d 85 40 f3 ff ff 	lea    -0xcc0(%rbp),%rax
    b614:	48 83 c0 04          	add    $0x4,%rax
    b618:	48 89 85 80 f2 ff ff 	mov    %rax,-0xd80(%rbp)
    b61f:	8b 85 44 f3 ff ff    	mov    -0xcbc(%rbp),%eax
    b625:	23 85 70 f1 ff ff    	and    -0xe90(%rbp),%eax
    b62b:	85 c0                	test   %eax,%eax
    b62d:	74 37                	je     b666 <func_16+0xb4d>
    b62f:	c6 85 85 f1 ff ff dc 	movb   $0xdc,-0xe7b(%rbp)
    b636:	c7 85 b0 f1 ff ff 00 	movl   $0x0,-0xe50(%rbp)
    b63d:	00 00 00 
    b640:	48 83 bd 78 f1 ff ff 	cmpq   $0x0,-0xe88(%rbp)
    b647:	00 
    b648:	0f 85 73 03 00 00    	jne    b9c1 <func_16+0xea8>
    b64e:	48 83 ad 38 f2 ff ff 	subq   $0x1,-0xdc8(%rbp)
    b655:	01 
    b656:	48 8b 05 2b 6f 01 00 	mov    0x16f2b(%rip),%rax        # 22588 <g_1754>
    b65d:	8b 00                	mov    (%rax),%eax
    b65f:	85 c0                	test   %eax,%eax
    b661:	e9 3c 03 00 00       	jmpq   b9a2 <func_16+0xe89>
    b666:	c6 85 84 f1 ff ff 8e 	movb   $0x8e,-0xe7c(%rbp)
    b66d:	48 c7 85 88 f2 ff ff 	movq   $0x0,-0xd78(%rbp)
    b674:	00 00 00 00 
    b678:	83 bd 70 f1 ff ff 00 	cmpl   $0x0,-0xe90(%rbp)
    b67f:	0f 84 b6 01 00 00    	je     b83b <func_16+0xd22>
    b685:	48 8d 05 fc 70 01 00 	lea    0x170fc(%rip),%rax        # 22788 <g_1781+0x1e8>
    b68c:	48 89 85 30 f2 ff ff 	mov    %rax,-0xdd0(%rbp)
    b693:	48 8d 85 30 f2 ff ff 	lea    -0xdd0(%rbp),%rax
    b69a:	48 89 85 90 f2 ff ff 	mov    %rax,-0xd70(%rbp)
    b6a1:	48 8d 85 08 f2 ff ff 	lea    -0xdf8(%rbp),%rax
    b6a8:	48 89 85 98 f2 ff ff 	mov    %rax,-0xd68(%rbp)
    b6af:	48 8d 85 f0 f5 ff ff 	lea    -0xa10(%rbp),%rax
    b6b6:	48 8d 15 03 ec 00 00 	lea    0xec03(%rip),%rdx        # 1a2c0 <g_1819+0x1e0>
    b6bd:	b9 24 00 00 00       	mov    $0x24,%ecx
    b6c2:	48 89 c7             	mov    %rax,%rdi
    b6c5:	48 89 d6             	mov    %rdx,%rsi
    b6c8:	f3 48 a5             	rep movsq %ds:(%rsi),%es:(%rdi)
    b6cb:	48 8d 85 d0 f7 ff ff 	lea    -0x830(%rbp),%rax
    b6d2:	48 8d 15 47 47 01 00 	lea    0x14747(%rip),%rdx        # 1fe20 <g_1964+0x580>
    b6d9:	b9 3f 00 00 00       	mov    $0x3f,%ecx
    b6de:	48 89 c7             	mov    %rax,%rdi
    b6e1:	48 89 d6             	mov    %rdx,%rsi
    b6e4:	f3 48 a5             	rep movsq %ds:(%rsi),%es:(%rdi)
    b6e7:	48 8b 05 9a 6e 01 00 	mov    0x16e9a(%rip),%rax        # 22588 <g_1754>
    b6ee:	8b 00                	mov    (%rax),%eax
    b6f0:	85 c0                	test   %eax,%eax
    b6f2:	0f 85 cc 02 00 00    	jne    b9c4 <func_16+0xeab>
    b6f8:	48 8b 05 99 73 01 00 	mov    0x17399(%rip),%rax        # 22a98 <g_1865>
    b6ff:	48 8b 95 80 f2 ff ff 	mov    -0xd80(%rbp),%rdx
    b706:	48 89 10             	mov    %rdx,(%rax)
    b709:	48 8b 85 90 f2 ff ff 	mov    -0xd70(%rbp),%rax
    b710:	48 89 85 70 f2 ff ff 	mov    %rax,-0xd90(%rbp)
    b717:	8b 85 74 f1 ff ff    	mov    -0xe8c(%rbp),%eax
    b71d:	0f b7 d8             	movzwl %ax,%ebx
    b720:	48 8d 05 51 67 01 00 	lea    0x16751(%rip),%rax        # 21e78 <g_767>
    b727:	48 8b 00             	mov    (%rax),%rax
    b72a:	8b 00                	mov    (%rax),%eax
    b72c:	89 85 44 f3 ff ff    	mov    %eax,-0xcbc(%rbp)
    b732:	48 8b 05 17 66 01 00 	mov    0x16617(%rip),%rax        # 21d50 <g_306>
    b739:	48 8b 00             	mov    (%rax),%rax
    b73c:	48 8b 00             	mov    (%rax),%rax
    b73f:	0f b6 00             	movzbl (%rax),%eax
    b742:	0f b6 c0             	movzbl %al,%eax
    b745:	48 8b 95 98 f2 ff ff 	mov    -0xd68(%rbp),%rdx
    b74c:	48 c7 02 00 00 00 00 	movq   $0x0,(%rdx)
    b753:	89 c6                	mov    %eax,%esi
    b755:	bf 01 00 00 00       	mov    $0x1,%edi
    b75a:	e8 34 e4 ff ff       	callq  9b93 <safe_mul_func_uint8_t_u_u>
    b75f:	0f b6 c0             	movzbl %al,%eax
    b762:	be d8 df 9d a4       	mov    $0xa49ddfd8,%esi
    b767:	89 c7                	mov    %eax,%edi
    b769:	e8 5e df ff ff       	callq  96cc <safe_mod_func_int32_t_s_s>
    b76e:	8b 95 d8 f6 ff ff    	mov    -0x928(%rbp),%edx
    b774:	39 d0                	cmp    %edx,%eax
    b776:	0f 94 c0             	sete   %al
    b779:	0f b6 c0             	movzbl %al,%eax
    b77c:	be 01 00 00 00       	mov    $0x1,%esi
    b781:	89 c7                	mov    %eax,%edi
    b783:	e8 66 db ff ff       	callq  92ee <safe_lshift_func_int8_t_s_u>
    b788:	48 be 50 e8 2c 6b 57 	movabs $0xd6a0d4576b2ce850,%rsi
    b78f:	d4 a0 d6 
    b792:	bf 01 00 00 00       	mov    $0x1,%edi
    b797:	e8 e4 e8 ff ff       	callq  a080 <safe_mod_func_uint64_t_u_u>
    b79c:	0f b6 95 64 f1 ff ff 	movzbl -0xe9c(%rbp),%edx
    b7a3:	48 39 d0             	cmp    %rdx,%rax
    b7a6:	0f 92 c0             	setb   %al
    b7a9:	0f b6 c0             	movzbl %al,%eax
    b7ac:	89 de                	mov    %ebx,%esi
    b7ae:	89 c7                	mov    %eax,%edi
    b7b0:	e8 a7 e5 ff ff       	callq  9d5c <safe_mod_func_uint16_t_u_u>
    b7b5:	8b 85 90 f1 ff ff    	mov    -0xe70(%rbp),%eax
    b7bb:	0f be c0             	movsbl %al,%eax
    b7be:	be 51 00 00 00       	mov    $0x51,%esi
    b7c3:	89 c7                	mov    %eax,%edi
    b7c5:	e8 48 da ff ff       	callq  9212 <safe_mul_func_int8_t_s_s>
    b7ca:	84 c0                	test   %al,%al
    b7cc:	74 11                	je     b7df <func_16+0xcc6>
    b7ce:	48 83 bd 68 f1 ff ff 	cmpq   $0x0,-0xe98(%rbp)
    b7d5:	00 
    b7d6:	74 07                	je     b7df <func_16+0xcc6>
    b7d8:	ba 01 00 00 00       	mov    $0x1,%edx
    b7dd:	eb 05                	jmp    b7e4 <func_16+0xccb>
    b7df:	ba 00 00 00 00       	mov    $0x0,%edx
    b7e4:	0f b6 85 64 f1 ff ff 	movzbl -0xe9c(%rbp),%eax
    b7eb:	0f be c0             	movsbl %al,%eax
    b7ee:	89 d6                	mov    %edx,%esi
    b7f0:	89 c7                	mov    %eax,%edi
    b7f2:	e8 aa da ff ff       	callq  92a1 <safe_lshift_func_int8_t_s_s>
    b7f7:	0f be c0             	movsbl %al,%eax
    b7fa:	89 c6                	mov    %eax,%esi
    b7fc:	bf 2d 00 00 00       	mov    $0x2d,%edi
    b801:	e8 0c da ff ff       	callq  9212 <safe_mul_func_int8_t_s_s>
    b806:	ba b9 00 00 00       	mov    $0xb9,%edx
    b80b:	0f b6 05 06 3c 01 00 	movzbl 0x13c06(%rip),%eax        # 1f418 <g_148+0x8>
    b812:	31 d0                	xor    %edx,%eax
    b814:	88 05 fe 3b 01 00    	mov    %al,0x13bfe(%rip)        # 1f418 <g_148+0x8>
    b81a:	0f b6 05 f7 3b 01 00 	movzbl 0x13bf7(%rip),%eax        # 1f418 <g_148+0x8>
    b821:	0f be c0             	movsbl %al,%eax
    b824:	be f6 ff ff ff       	mov    $0xfffffff6,%esi
    b829:	89 c7                	mov    %eax,%edi
    b82b:	e8 e2 d9 ff ff       	callq  9212 <safe_mul_func_int8_t_s_s>
    b830:	20 85 84 f1 ff ff    	and    %al,-0xe7c(%rbp)
    b836:	e9 67 01 00 00       	jmpq   b9a2 <func_16+0xe89>
    b83b:	48 8d 85 d0 f7 ff ff 	lea    -0x830(%rbp),%rax
    b842:	48 8d 15 d7 47 01 00 	lea    0x147d7(%rip),%rdx        # 20020 <g_1964+0x780>
    b849:	b9 00 01 00 00       	mov    $0x100,%ecx
    b84e:	48 89 c7             	mov    %rax,%rdi
    b851:	48 89 d6             	mov    %rdx,%rsi
    b854:	f3 48 a5             	rep movsq %ds:(%rsi),%es:(%rdi)
    b857:	c7 85 ac f1 ff ff b9 	movl   $0x95c322b9,-0xe54(%rbp)
    b85e:	22 c3 95 
    b861:	48 8b 85 78 f9 ff ff 	mov    -0x688(%rbp),%rax
    b868:	48 89 85 88 f2 ff ff 	mov    %rax,-0xd78(%rbp)
    b86f:	48 8b 05 da 64 01 00 	mov    0x164da(%rip),%rax        # 21d50 <g_306>
    b876:	48 8b 00             	mov    (%rax),%rax
    b879:	48 8b 05 f0 65 01 00 	mov    0x165f0(%rip),%rax        # 21e70 <g_712>
    b880:	8b 18                	mov    (%rax),%ebx
    b882:	0f b6 85 64 f1 ff ff 	movzbl -0xe9c(%rbp),%eax
    b889:	48 39 85 68 f1 ff ff 	cmp    %rax,-0xe98(%rbp)
    b890:	0f 9c c0             	setl   %al
    b893:	44 0f b6 e0          	movzbl %al,%r12d
    b897:	48 8b 05 ea 6c 01 00 	mov    0x16cea(%rip),%rax        # 22588 <g_1754>
    b89e:	44 8b 28             	mov    (%rax),%r13d
    b8a1:	8b 85 74 f1 ff ff    	mov    -0xe8c(%rbp),%eax
    b8a7:	0f b6 d0             	movzbl %al,%edx
    b8aa:	8b 85 ac f1 ff ff    	mov    -0xe54(%rbp),%eax
    b8b0:	0f b6 c0             	movzbl %al,%eax
    b8b3:	89 d6                	mov    %edx,%esi
    b8b5:	89 c7                	mov    %eax,%edi
    b8b7:	e8 d7 e2 ff ff       	callq  9b93 <safe_mul_func_uint8_t_u_u>
    b8bc:	0f b6 c0             	movzbl %al,%eax
    b8bf:	41 39 c5             	cmp    %eax,%r13d
    b8c2:	74 07                	je     b8cb <func_16+0xdb2>
    b8c4:	83 bd ac f1 ff ff 00 	cmpl   $0x0,-0xe54(%rbp)
    b8cb:	0f b6 05 ae 3f 01 00 	movzbl 0x13fae(%rip),%eax        # 1f880 <g_1678>
    b8d2:	0f b6 c0             	movzbl %al,%eax
    b8d5:	83 c0 01             	add    $0x1,%eax
    b8d8:	48 98                	cltq   
    b8da:	48 8d 14 00          	lea    (%rax,%rax,1),%rdx
    b8de:	48 8d 05 c3 3b 01 00 	lea    0x13bc3(%rip),%rax        # 1f4a8 <g_632>
    b8e5:	0f b7 04 02          	movzwl (%rdx,%rax,1),%eax
    b8e9:	0f bf d0             	movswl %ax,%edx
    b8ec:	48 8b 05 45 64 01 00 	mov    0x16445(%rip),%rax        # 21d38 <g_199>
    b8f3:	48 8b 00             	mov    (%rax),%rax
    b8f6:	0f b7 00             	movzwl (%rax),%eax
    b8f9:	0f b7 c0             	movzwl %ax,%eax
    b8fc:	39 c2                	cmp    %eax,%edx
    b8fe:	0f 94 c0             	sete   %al
    b901:	0f b6 d0             	movzbl %al,%edx
    b904:	48 8b 85 f8 f1 ff ff 	mov    -0xe08(%rbp),%rax
    b90b:	48 8b 00             	mov    (%rax),%rax
    b90e:	48 8b 00             	mov    (%rax),%rax
    b911:	0f b6 00             	movzbl (%rax),%eax
    b914:	89 c1                	mov    %eax,%ecx
    b916:	89 d0                	mov    %edx,%eax
    b918:	31 c1                	xor    %eax,%ecx
    b91a:	89 ca                	mov    %ecx,%edx
    b91c:	48 8b 85 f8 f1 ff ff 	mov    -0xe08(%rbp),%rax
    b923:	48 8b 00             	mov    (%rax),%rax
    b926:	48 8b 00             	mov    (%rax),%rax
    b929:	88 10                	mov    %dl,(%rax)
    b92b:	48 8b 85 80 f2 ff ff 	mov    -0xd80(%rbp),%rax
    b932:	8b 00                	mov    (%rax),%eax
    b934:	0f b6 c0             	movzbl %al,%eax
    b937:	be 07 00 00 00       	mov    $0x7,%esi
    b93c:	89 c7                	mov    %eax,%edi
    b93e:	e8 7b e3 ff ff       	callq  9cbe <safe_rshift_func_uint8_t_u_u>
    b943:	be d8 55 00 00       	mov    $0x55d8,%esi
    b948:	bf 03 00 00 00       	mov    $0x3,%edi
    b94d:	e8 ad e3 ff ff       	callq  9cff <safe_add_func_uint16_t_u_u>
    b952:	0f b7 c0             	movzwl %ax,%eax
    b955:	41 39 c4             	cmp    %eax,%r12d
    b958:	0f 9e c0             	setle  %al
    b95b:	0f b6 c0             	movzbl %al,%eax
    b95e:	39 c3                	cmp    %eax,%ebx
    b960:	0f 93 c2             	setae  %dl
    b963:	48 8b 05 ee 63 01 00 	mov    0x163ee(%rip),%rax        # 21d58 <g_322>
    b96a:	0f b6 d2             	movzbl %dl,%edx
    b96d:	66 89 10             	mov    %dx,(%rax)
    b970:	0f b7 00             	movzwl (%rax),%eax
    b973:	66 85 c0             	test   %ax,%ax
    b976:	75 0d                	jne    b985 <func_16+0xe6c>
    b978:	48 8b 85 80 f2 ff ff 	mov    -0xd80(%rbp),%rax
    b97f:	8b 00                	mov    (%rax),%eax
    b981:	85 c0                	test   %eax,%eax
    b983:	74 07                	je     b98c <func_16+0xe73>
    b985:	b8 01 00 00 00       	mov    $0x1,%eax
    b98a:	eb 05                	jmp    b991 <func_16+0xe78>
    b98c:	b8 00 00 00 00       	mov    $0x0,%eax
    b991:	85 c0                	test   %eax,%eax
    b993:	0f 9f c0             	setg   %al
    b996:	0f b6 d0             	movzbl %al,%edx
    b999:	48 8b 85 80 f2 ff ff 	mov    -0xd80(%rbp),%rax
    b9a0:	89 10                	mov    %edx,(%rax)
    b9a2:	8b 05 d8 78 01 00    	mov    0x178d8(%rip),%eax        # 23280 <g_1568>
    b9a8:	83 e8 01             	sub    $0x1,%eax
    b9ab:	89 05 cf 78 01 00    	mov    %eax,0x178cf(%rip)        # 23280 <g_1568>
    b9b1:	8b 05 c9 78 01 00    	mov    0x178c9(%rip),%eax        # 23280 <g_1568>
    b9b7:	85 c0                	test   %eax,%eax
    b9b9:	0f 89 44 fc ff ff    	jns    b603 <func_16+0xaea>
    b9bf:	eb 04                	jmp    b9c5 <func_16+0xeac>
    b9c1:	90                   	nop
    b9c2:	eb 01                	jmp    b9c5 <func_16+0xeac>
    b9c4:	90                   	nop
    b9c5:	c7 85 44 f3 ff ff f9 	movl   $0xfffffff9,-0xcbc(%rbp)
    b9cc:	ff ff ff 
    b9cf:	8b 85 44 f3 ff ff    	mov    -0xcbc(%rbp),%eax
    b9d5:	21 85 90 f1 ff ff    	and    %eax,-0xe70(%rbp)
    b9db:	c6 05 ba 3a 01 00 01 	movb   $0x1,0x13aba(%rip)        # 1f49c <g_373>
    b9e2:	e9 42 04 00 00       	jmpq   be29 <func_16+0x1310>
    b9e7:	48 c7 85 b8 f2 ff ff 	movq   $0x0,-0xd48(%rbp)
    b9ee:	00 00 00 00 
    b9f2:	48 8d 85 f0 f5 ff ff 	lea    -0xa10(%rbp),%rax
    b9f9:	48 8d 15 20 4e 01 00 	lea    0x14e20(%rip),%rdx        # 20820 <g_1964+0xf80>
    ba00:	b9 3c 00 00 00       	mov    $0x3c,%ecx
    ba05:	48 89 c7             	mov    %rax,%rdi
    ba08:	48 89 d6             	mov    %rdx,%rsi
    ba0b:	f3 48 a5             	rep movsq %ds:(%rsi),%es:(%rdi)
    ba0e:	48 8d 05 6f 3e 01 00 	lea    0x13e6f(%rip),%rax        # 1f884 <g_1681>
    ba15:	48 89 85 c0 f2 ff ff 	mov    %rax,-0xd40(%rbp)
    ba1c:	c7 85 70 f3 ff ff 2a 	movl   $0x2176542a,-0xc90(%rbp)
    ba23:	54 76 21 
    ba26:	c7 85 74 f3 ff ff 2a 	movl   $0x2176542a,-0xc8c(%rbp)
    ba2d:	54 76 21 
    ba30:	c7 85 78 f3 ff ff 2a 	movl   $0x2176542a,-0xc88(%rbp)
    ba37:	54 76 21 
    ba3a:	c7 85 7c f3 ff ff 2a 	movl   $0x2176542a,-0xc84(%rbp)
    ba41:	54 76 21 
    ba44:	c7 85 80 f3 ff ff 2a 	movl   $0x2176542a,-0xc80(%rbp)
    ba4b:	54 76 21 
    ba4e:	c7 85 84 f3 ff ff 2a 	movl   $0x2176542a,-0xc7c(%rbp)
    ba55:	54 76 21 
    ba58:	c7 85 88 f3 ff ff 2a 	movl   $0x2176542a,-0xc78(%rbp)
    ba5f:	54 76 21 
    ba62:	c7 85 8c f3 ff ff 2a 	movl   $0x2176542a,-0xc74(%rbp)
    ba69:	54 76 21 
    ba6c:	c7 85 90 f3 ff ff 2a 	movl   $0x2176542a,-0xc70(%rbp)
    ba73:	54 76 21 
    ba76:	c7 85 94 f3 ff ff 2a 	movl   $0x2176542a,-0xc6c(%rbp)
    ba7d:	54 76 21 
    ba80:	c7 85 c8 f1 ff ff 00 	movl   $0x0,-0xe38(%rbp)
    ba87:	00 00 00 
    ba8a:	48 8d 05 c7 62 01 00 	lea    0x162c7(%rip),%rax        # 21d58 <g_322>
    ba91:	48 89 85 c8 f2 ff ff 	mov    %rax,-0xd38(%rbp)
    ba98:	48 8d 05 91 6e 01 00 	lea    0x16e91(%rip),%rax        # 22930 <g_1793>
    ba9f:	48 89 85 20 f2 ff ff 	mov    %rax,-0xde0(%rbp)
    baa6:	48 8d 85 20 f2 ff ff 	lea    -0xde0(%rbp),%rax
    baad:	48 89 85 28 f2 ff ff 	mov    %rax,-0xdd8(%rbp)
    bab4:	48 c7 85 d0 f2 ff ff 	movq   $0x1,-0xd30(%rbp)
    babb:	01 00 00 00 
    babf:	48 8d 05 f2 63 01 00 	lea    0x163f2(%rip),%rax        # 21eb8 <g_1363>
    bac6:	48 89 85 d8 f2 ff ff 	mov    %rax,-0xd28(%rbp)
    bacd:	c7 85 cc f1 ff ff 06 	movl   $0x6,-0xe34(%rbp)
    bad4:	00 00 00 
    bad7:	c7 85 9c f1 ff ff 00 	movl   $0x0,-0xe64(%rbp)
    bade:	00 00 00 
    bae1:	eb 1b                	jmp    bafe <func_16+0xfe5>
    bae3:	8b 85 9c f1 ff ff    	mov    -0xe64(%rbp),%eax
    bae9:	48 98                	cltq   
    baeb:	48 c7 84 c5 40 f4 ff 	movq   $0x1,-0xbc0(%rbp,%rax,8)
    baf2:	ff 01 00 00 00 
    baf7:	83 85 9c f1 ff ff 01 	addl   $0x1,-0xe64(%rbp)
    bafe:	83 bd 9c f1 ff ff 07 	cmpl   $0x7,-0xe64(%rbp)
    bb05:	7e dc                	jle    bae3 <func_16+0xfca>
    bb07:	c7 05 6f 77 01 00 01 	movl   $0x1,0x1776f(%rip)        # 23280 <g_1568>
    bb0e:	00 00 00 
    bb11:	eb 41                	jmp    bb54 <func_16+0x103b>
    bb13:	66 c7 85 8a f1 ff ff 	movw   $0xffff,-0xe76(%rbp)
    bb1a:	ff ff 
    bb1c:	48 8b 85 08 f3 ff ff 	mov    -0xcf8(%rbp),%rax
    bb23:	48 89 85 b8 f2 ff ff 	mov    %rax,-0xd48(%rbp)
    bb2a:	48 8b 05 6f 6f 01 00 	mov    0x16f6f(%rip),%rax        # 22aa0 <g_1907>
    bb31:	48 8b 95 b8 f2 ff ff 	mov    -0xd48(%rbp),%rdx
    bb38:	48 89 10             	mov    %rdx,(%rax)
    bb3b:	66 83 bd 8a f1 ff ff 	cmpw   $0x0,-0xe76(%rbp)
    bb42:	00 
    bb43:	75 1b                	jne    bb60 <func_16+0x1047>
    bb45:	8b 05 35 77 01 00    	mov    0x17735(%rip),%eax        # 23280 <g_1568>
    bb4b:	83 e8 01             	sub    $0x1,%eax
    bb4e:	89 05 2c 77 01 00    	mov    %eax,0x1772c(%rip)        # 23280 <g_1568>
    bb54:	8b 05 26 77 01 00    	mov    0x17726(%rip),%eax        # 23280 <g_1568>
    bb5a:	85 c0                	test   %eax,%eax
    bb5c:	79 b5                	jns    bb13 <func_16+0xffa>
    bb5e:	eb 01                	jmp    bb61 <func_16+0x1048>
    bb60:	90                   	nop
    bb61:	48 8b 85 78 f1 ff ff 	mov    -0xe88(%rbp),%rax
    bb68:	0f b7 d8             	movzwl %ax,%ebx
    bb6b:	48 8b 05 2e 62 01 00 	mov    0x1622e(%rip),%rax        # 21da0 <g_331>
    bb72:	48 8b 00             	mov    (%rax),%rax
    bb75:	48 8b 00             	mov    (%rax),%rax
    bb78:	48 8b 00             	mov    (%rax),%rax
    bb7b:	0f b7 00             	movzwl (%rax),%eax
    bb7e:	44 0f b7 e8          	movzwl %ax,%r13d
    bb82:	48 8b 05 c7 61 01 00 	mov    0x161c7(%rip),%rax        # 21d50 <g_306>
    bb89:	48 8b 00             	mov    (%rax),%rax
    bb8c:	48 8b 00             	mov    (%rax),%rax
    bb8f:	0f b6 00             	movzbl (%rax),%eax
    bb92:	44 0f be e0          	movsbl %al,%r12d
    bb96:	8b 85 74 f1 ff ff    	mov    -0xe8c(%rbp),%eax
    bb9c:	0f bf d0             	movswl %ax,%edx
    bb9f:	48 8b 85 c0 f2 ff ff 	mov    -0xd40(%rbp),%rax
    bba6:	c7 00 06 00 00 00    	movl   $0x6,(%rax)
    bbac:	48 8b 85 c0 f2 ff ff 	mov    -0xd40(%rbp),%rax
    bbb3:	8b 08                	mov    (%rax),%ecx
    bbb5:	48 8b 05 b4 62 01 00 	mov    0x162b4(%rip),%rax        # 21e70 <g_712>
    bbbc:	8b 00                	mov    (%rax),%eax
    bbbe:	39 c1                	cmp    %eax,%ecx
    bbc0:	0f 97 c0             	seta   %al
    bbc3:	0f b6 c0             	movzbl %al,%eax
    bbc6:	89 d6                	mov    %edx,%esi
    bbc8:	89 c7                	mov    %eax,%edi
    bbca:	e8 26 d8 ff ff       	callq  93f5 <safe_mul_func_int16_t_s_s>
    bbcf:	0f b7 d0             	movzwl %ax,%edx
    bbd2:	48 8b 85 68 f2 ff ff 	mov    -0xd98(%rbp),%rax
    bbd9:	48 8d 0d 80 76 01 00 	lea    0x17680(%rip),%rcx        # 23260 <g_649>
    bbe0:	48 89 08             	mov    %rcx,(%rax)
    bbe3:	48 8b 85 68 f2 ff ff 	mov    -0xd98(%rbp),%rax
    bbea:	48 8b 08             	mov    (%rax),%rcx
    bbed:	48 8b 85 58 f2 ff ff 	mov    -0xda8(%rbp),%rax
    bbf4:	48 89 85 30 f7 ff ff 	mov    %rax,-0x8d0(%rbp)
    bbfb:	48 8b 85 30 f7 ff ff 	mov    -0x8d0(%rbp),%rax
    bc02:	48 89 05 9f 6e 01 00 	mov    %rax,0x16e9f(%rip)        # 22aa8 <g_1924>
    bc09:	48 8b 05 98 6e 01 00 	mov    0x16e98(%rip),%rax        # 22aa8 <g_1924>
    bc10:	48 39 c1             	cmp    %rax,%rcx
    bc13:	0f 94 c0             	sete   %al
    bc16:	0f b6 c0             	movzbl %al,%eax
    bc19:	89 d6                	mov    %edx,%esi
    bc1b:	89 c7                	mov    %eax,%edi
    bc1d:	e8 dd e0 ff ff       	callq  9cff <safe_add_func_uint16_t_u_u>
    bc22:	44 89 e6             	mov    %r12d,%esi
    bc25:	bf 01 00 00 00       	mov    $0x1,%edi
    bc2a:	e8 c3 d5 ff ff       	callq  91f2 <safe_sub_func_int8_t_s_s>
    bc2f:	8b 95 90 f1 ff ff    	mov    -0xe70(%rbp),%edx
    bc35:	8b 85 74 f1 ff ff    	mov    -0xe8c(%rbp),%eax
    bc3b:	89 d6                	mov    %edx,%esi
    bc3d:	89 c7                	mov    %eax,%edi
    bc3f:	e8 72 d9 ff ff       	callq  95b6 <safe_add_func_int32_t_s_s>
    bc44:	41 39 c5             	cmp    %eax,%r13d
    bc47:	0f 94 c0             	sete   %al
    bc4a:	0f b6 c0             	movzbl %al,%eax
    bc4d:	89 de                	mov    %ebx,%esi
    bc4f:	89 c7                	mov    %eax,%edi
    bc51:	e8 e7 e0 ff ff       	callq  9d3d <safe_mul_func_uint16_t_u_u>
    bc56:	0f b7 c0             	movzwl %ax,%eax
    bc59:	89 85 94 f3 ff ff    	mov    %eax,-0xc6c(%rbp)
    bc5f:	48 8b 85 50 f2 ff ff 	mov    -0xdb0(%rbp),%rax
    bc66:	0f b6 c0             	movzbl %al,%eax
    bc69:	be fb 00 00 00       	mov    $0xfb,%esi
    bc6e:	89 c7                	mov    %eax,%edi
    bc70:	e8 1e df ff ff       	callq  9b93 <safe_mul_func_uint8_t_u_u>
    bc75:	0f be c0             	movsbl %al,%eax
    bc78:	be 05 00 00 00       	mov    $0x5,%esi
    bc7d:	89 c7                	mov    %eax,%edi
    bc7f:	e8 b1 d6 ff ff       	callq  9335 <safe_rshift_func_int8_t_s_s>
    bc84:	0f be c0             	movsbl %al,%eax
    bc87:	09 85 c8 f1 ff ff    	or     %eax,-0xe38(%rbp)
    bc8d:	8b 85 44 f3 ff ff    	mov    -0xcbc(%rbp),%eax
    bc93:	48 83 bd 78 f1 ff ff 	cmpq   $0x0,-0xe88(%rbp)
    bc9a:	00 
    bc9b:	74 10                	je     bcad <func_16+0x1194>
    bc9d:	80 bd 64 f1 ff ff 01 	cmpb   $0x1,-0xe9c(%rbp)
    bca4:	77 07                	ja     bcad <func_16+0x1194>
    bca6:	ba 01 00 00 00       	mov    $0x1,%edx
    bcab:	eb 05                	jmp    bcb2 <func_16+0x1199>
    bcad:	ba 00 00 00 00       	mov    $0x0,%edx
    bcb2:	31 d0                	xor    %edx,%eax
    bcb4:	89 85 44 f3 ff ff    	mov    %eax,-0xcbc(%rbp)
    bcba:	c7 85 70 f1 ff ff 00 	movl   $0x0,-0xe90(%rbp)
    bcc1:	00 00 00 
    bcc4:	e9 40 01 00 00       	jmpq   be09 <func_16+0x12f0>
    bcc9:	48 8d 05 88 60 01 00 	lea    0x16088(%rip),%rax        # 21d58 <g_322>
    bcd0:	48 89 85 e0 f2 ff ff 	mov    %rax,-0xd20(%rbp)
    bcd7:	48 8d 05 82 75 01 00 	lea    0x17582(%rip),%rax        # 23260 <g_649>
    bcde:	48 89 85 30 f2 ff ff 	mov    %rax,-0xdd0(%rbp)
    bce5:	48 8d 85 30 f2 ff ff 	lea    -0xdd0(%rbp),%rax
    bcec:	48 89 85 a0 f3 ff ff 	mov    %rax,-0xc60(%rbp)
    bcf3:	48 8d 85 30 f2 ff ff 	lea    -0xdd0(%rbp),%rax
    bcfa:	48 89 85 a8 f3 ff ff 	mov    %rax,-0xc58(%rbp)
    bd01:	48 8d 85 30 f2 ff ff 	lea    -0xdd0(%rbp),%rax
    bd08:	48 89 85 b0 f3 ff ff 	mov    %rax,-0xc50(%rbp)
    bd0f:	48 8d 85 30 f2 ff ff 	lea    -0xdd0(%rbp),%rax
    bd16:	48 89 85 b8 f3 ff ff 	mov    %rax,-0xc48(%rbp)
    bd1d:	48 8d 85 30 f2 ff ff 	lea    -0xdd0(%rbp),%rax
    bd24:	48 89 85 c0 f3 ff ff 	mov    %rax,-0xc40(%rbp)
    bd2b:	48 8d 85 a0 f3 ff ff 	lea    -0xc60(%rbp),%rax
    bd32:	48 83 c0 18          	add    $0x18,%rax
    bd36:	48 89 85 e8 f2 ff ff 	mov    %rax,-0xd18(%rbp)
    bd3d:	48 c7 85 f0 f2 ff ff 	movq   $0x0,-0xd10(%rbp)
    bd44:	00 00 00 00 
    bd48:	c7 85 d0 f1 ff ff fe 	movl   $0xfffffffe,-0xe30(%rbp)
    bd4f:	ff ff ff 
    bd52:	c7 85 d4 f1 ff ff f3 	movl   $0x29a791f3,-0xe2c(%rbp)
    bd59:	91 a7 29 
    bd5c:	c7 85 d8 f1 ff ff ea 	movl   $0x54ebb7ea,-0xe28(%rbp)
    bd63:	b7 eb 54 
    bd66:	c7 85 dc f1 ff ff 5e 	movl   $0x8e4d265e,-0xe24(%rbp)
    bd6d:	26 4d 8e 
    bd70:	c7 85 e0 f1 ff ff b9 	movl   $0xecb1efb9,-0xe20(%rbp)
    bd77:	ef b1 ec 
    bd7a:	c7 85 e4 f1 ff ff cb 	movl   $0xb076b9cb,-0xe1c(%rbp)
    bd81:	b9 76 b0 
    bd84:	48 8d 85 d0 f7 ff ff 	lea    -0x830(%rbp),%rax
    bd8b:	48 8d 15 4e e6 00 00 	lea    0xe64e(%rip),%rdx        # 1a3e0 <g_1819+0x300>
    bd92:	b9 69 00 00 00       	mov    $0x69,%ecx
    bd97:	48 89 c7             	mov    %rax,%rdi
    bd9a:	48 89 d6             	mov    %rdx,%rsi
    bd9d:	f3 48 a5             	rep movsq %ds:(%rsi),%es:(%rdi)
    bda0:	48 8d 05 11 61 01 00 	lea    0x16111(%rip),%rax        # 21eb8 <g_1363>
    bda7:	48 89 85 f8 f2 ff ff 	mov    %rax,-0xd08(%rbp)
    bdae:	48 b8 92 c2 75 fc c4 	movabs $0x56f3e2c4fc75c292,%rax
    bdb5:	e2 f3 56 
    bdb8:	48 89 85 00 f3 ff ff 	mov    %rax,-0xd00(%rbp)
    bdbf:	c6 85 87 f1 ff ff 05 	movb   $0x5,-0xe79(%rbp)
    bdc6:	c7 85 a0 f1 ff ff 00 	movl   $0x0,-0xe60(%rbp)
    bdcd:	00 00 00 
    bdd0:	eb 1e                	jmp    bdf0 <func_16+0x12d7>
    bdd2:	8b 85 a0 f1 ff ff    	mov    -0xe60(%rbp),%eax
    bdd8:	48 98                	cltq   
    bdda:	48 8d 95 28 f2 ff ff 	lea    -0xdd8(%rbp),%rdx
    bde1:	48 89 94 c5 d0 f3 ff 	mov    %rdx,-0xc30(%rbp,%rax,8)
    bde8:	ff 
    bde9:	83 85 a0 f1 ff ff 01 	addl   $0x1,-0xe60(%rbp)
    bdf0:	83 bd a0 f1 ff ff 04 	cmpl   $0x4,-0xe60(%rbp)
    bdf7:	7e d9                	jle    bdd2 <func_16+0x12b9>
    bdf9:	80 bd 64 f1 ff ff 00 	cmpb   $0x0,-0xe9c(%rbp)
    be00:	75 16                	jne    be18 <func_16+0x12ff>
    be02:	83 85 70 f1 ff ff 01 	addl   $0x1,-0xe90(%rbp)
    be09:	83 bd 70 f1 ff ff 03 	cmpl   $0x3,-0xe90(%rbp)
    be10:	0f 8e b3 fe ff ff    	jle    bcc9 <func_16+0x11b0>
    be16:	eb 01                	jmp    be19 <func_16+0x1300>
    be18:	90                   	nop
    be19:	0f b6 05 7c 36 01 00 	movzbl 0x1367c(%rip),%eax        # 1f49c <g_373>
    be20:	83 e8 01             	sub    $0x1,%eax
    be23:	88 05 73 36 01 00    	mov    %al,0x13673(%rip)        # 1f49c <g_373>
    be29:	0f b6 05 6c 36 01 00 	movzbl 0x1366c(%rip),%eax        # 1f49c <g_373>
    be30:	84 c0                	test   %al,%al
    be32:	0f 89 af fb ff ff    	jns    b9e7 <func_16+0xece>
    be38:	0f b6 05 41 3a 01 00 	movzbl 0x13a41(%rip),%eax        # 1f880 <g_1678>
    be3f:	83 c0 01             	add    $0x1,%eax
    be42:	88 05 38 3a 01 00    	mov    %al,0x13a38(%rip)        # 1f880 <g_1678>
    be48:	0f b6 05 31 3a 01 00 	movzbl 0x13a31(%rip),%eax        # 1f880 <g_1678>
    be4f:	3c 03                	cmp    $0x3,%al
    be51:	0f 86 e0 ed ff ff    	jbe    ac37 <func_16+0x11e>
    be57:	48 8b 05 12 60 01 00 	mov    0x16012(%rip),%rax        # 21e70 <g_712>
    be5e:	8b 00                	mov    (%rax),%eax
    be60:	48 8b 5d d8          	mov    -0x28(%rbp),%rbx
    be64:	64 48 33 1c 25 28 00 	xor    %fs:0x28,%rbx
    be6b:	00 00 
    be6d:	74 05                	je     be74 <func_16+0x135b>
    be6f:	e8 fc d1 ff ff       	callq  9070 <__stack_chk_fail@plt>
    be74:	48 81 c4 88 0e 00 00 	add    $0xe88,%rsp
    be7b:	5b                   	pop    %rbx
    be7c:	41 5c                	pop    %r12
    be7e:	41 5d                	pop    %r13
    be80:	5d                   	pop    %rbp
    be81:	c3                   	retq   

000000000000be82 <func_22>:
    be82:	f3 0f 1e fa          	endbr64 
    be86:	55                   	push   %rbp
    be87:	48 89 e5             	mov    %rsp,%rbp
    be8a:	53                   	push   %rbx
    be8b:	48 83 ec 28          	sub    $0x28,%rsp
    be8f:	89 7d d4             	mov    %edi,-0x2c(%rbp)
    be92:	89 f0                	mov    %esi,%eax
    be94:	66 89 45 d0          	mov    %ax,-0x30(%rbp)
    be98:	48 8d 05 c9 73 01 00 	lea    0x173c9(%rip),%rax        # 23268 <g_907>
    be9f:	48 89 45 e8          	mov    %rax,-0x18(%rbp)
    bea3:	c7 45 e4 d6 a8 f0 e1 	movl   $0xe1f0a8d6,-0x1c(%rbp)
    beaa:	48 8d 05 a3 39 01 00 	lea    0x139a3(%rip),%rax        # 1f854 <g_1464+0x14>
    beb1:	48 89 45 f0          	mov    %rax,-0x10(%rbp)
    beb5:	0f b7 45 d0          	movzwl -0x30(%rbp),%eax
    beb9:	48 be 3e ec b5 66 17 	movabs $0xddf9991766b5ec3e,%rsi
    bec0:	99 f9 dd 
    bec3:	48 89 c7             	mov    %rax,%rdi
    bec6:	e8 b5 e1 ff ff       	callq  a080 <safe_mod_func_uint64_t_u_u>
    becb:	83 c8 c7             	or     $0xffffffc7,%eax
    bece:	0f be d8             	movsbl %al,%ebx
    bed1:	0f b7 45 d0          	movzwl -0x30(%rbp),%eax
    bed5:	0f b6 c0             	movzbl %al,%eax
    bed8:	be 06 00 00 00       	mov    $0x6,%esi
    bedd:	89 c7                	mov    %eax,%edi
    bedf:	e8 a9 dd ff ff       	callq  9c8d <safe_rshift_func_uint8_t_u_s>
    bee4:	0f be c0             	movsbl %al,%eax
    bee7:	89 de                	mov    %ebx,%esi
    bee9:	89 c7                	mov    %eax,%edi
    beeb:	e8 7a d3 ff ff       	callq  926a <safe_div_func_int8_t_s_s>
    bef0:	0f be d0             	movsbl %al,%edx
    bef3:	48 8b 45 e8          	mov    -0x18(%rbp),%rax
    bef7:	48 89 05 32 6a 01 00 	mov    %rax,0x16a32(%rip)        # 22930 <g_1793>
    befe:	48 8b 05 2b 6a 01 00 	mov    0x16a2b(%rip),%rax        # 22930 <g_1793>
    bf05:	48 85 c0             	test   %rax,%rax
    bf08:	0f 95 c0             	setne  %al
    bf0b:	0f b6 c0             	movzbl %al,%eax
    bf0e:	39 c2                	cmp    %eax,%edx
    bf10:	0f 9f c0             	setg   %al
    bf13:	0f b6 d8             	movzbl %al,%ebx
    bf16:	83 7d d4 05          	cmpl   $0x5,-0x2c(%rbp)
    bf1a:	0f 95 c0             	setne  %al
    bf1d:	0f b6 c0             	movzbl %al,%eax
    bf20:	be 01 00 00 00       	mov    $0x1,%esi
    bf25:	89 c7                	mov    %eax,%edi
    bf27:	e8 92 dd ff ff       	callq  9cbe <safe_rshift_func_uint8_t_u_u>
    bf2c:	0f b6 c0             	movzbl %al,%eax
    bf2f:	39 c3                	cmp    %eax,%ebx
    bf31:	0f 95 c0             	setne  %al
    bf34:	0f b6 c0             	movzbl %al,%eax
    bf37:	89 45 e4             	mov    %eax,-0x1c(%rbp)
    bf3a:	48 8b 45 f0          	mov    -0x10(%rbp),%rax
    bf3e:	8b 55 e4             	mov    -0x1c(%rbp),%edx
    bf41:	89 10                	mov    %edx,(%rax)
    bf43:	48 8b 45 f0          	mov    -0x10(%rbp),%rax
    bf47:	8b 00                	mov    (%rax),%eax
    bf49:	48 98                	cltq   
    bf4b:	48 83 c4 28          	add    $0x28,%rsp
    bf4f:	5b                   	pop    %rbx
    bf50:	5d                   	pop    %rbp
    bf51:	c3                   	retq   

000000000000bf52 <func_29>:
    bf52:	f3 0f 1e fa          	endbr64 
    bf56:	55                   	push   %rbp
    bf57:	48 89 e5             	mov    %rsp,%rbp
    bf5a:	41 56                	push   %r14
    bf5c:	41 55                	push   %r13
    bf5e:	41 54                	push   %r12
    bf60:	53                   	push   %rbx
    bf61:	48 81 ec 00 0f 00 00 	sub    $0xf00,%rsp
    bf68:	48 89 bd e8 f0 ff ff 	mov    %rdi,-0xf18(%rbp)
    bf6f:	89 b5 e4 f0 ff ff    	mov    %esi,-0xf1c(%rbp)
    bf75:	64 48 8b 04 25 28 00 	mov    %fs:0x28,%rax
    bf7c:	00 00 
    bf7e:	48 89 45 d8          	mov    %rax,-0x28(%rbp)
    bf82:	31 c0                	xor    %eax,%eax
    bf84:	48 8d 05 fd 71 01 00 	lea    0x171fd(%rip),%rax        # 23188 <g_110>
    bf8b:	48 89 85 30 f2 ff ff 	mov    %rax,-0xdd0(%rbp)
    bf92:	48 c7 85 d0 f1 ff ff 	movq   $0x0,-0xe30(%rbp)
    bf99:	00 00 00 00 
    bf9d:	48 8d 85 d0 f1 ff ff 	lea    -0xe30(%rbp),%rax
    bfa4:	48 89 85 d8 f1 ff ff 	mov    %rax,-0xe28(%rbp)
    bfab:	48 8d 85 d8 f1 ff ff 	lea    -0xe28(%rbp),%rax
    bfb2:	48 89 85 38 f2 ff ff 	mov    %rax,-0xdc8(%rbp)
    bfb9:	48 c7 85 40 f2 ff ff 	movq   $0x0,-0xdc0(%rbp)
    bfc0:	00 00 00 00 
    bfc4:	c7 85 04 f1 ff ff f6 	movl   $0xfffffff6,-0xefc(%rbp)
    bfcb:	ff ff ff 
    bfce:	48 8d 05 bb 34 01 00 	lea    0x134bb(%rip),%rax        # 1f490 <g_347>
    bfd5:	48 89 85 48 f2 ff ff 	mov    %rax,-0xdb8(%rbp)
    bfdc:	c7 85 38 f1 ff ff 01 	movl   $0x1,-0xec8(%rbp)
    bfe3:	00 00 00 
    bfe6:	48 8d 05 73 72 01 00 	lea    0x17273(%rip),%rax        # 23260 <g_649>
    bfed:	48 89 85 50 f2 ff ff 	mov    %rax,-0xdb0(%rbp)
    bff4:	c7 85 3c f1 ff ff fc 	movl   $0xfffffffc,-0xec4(%rbp)
    bffb:	ff ff ff 
    bffe:	c7 85 40 f1 ff ff 81 	movl   $0x3a6fcb81,-0xec0(%rbp)
    c005:	cb 6f 3a 
    c008:	c7 85 08 f1 ff ff 7b 	movl   $0x167c3b7b,-0xef8(%rbp)
    c00f:	3b 7c 16 
    c012:	48 c7 85 58 f2 ff ff 	movq   $0x0,-0xda8(%rbp)
    c019:	00 00 00 00 
    c01d:	48 8d 05 34 72 01 00 	lea    0x17234(%rip),%rax        # 23258 <g_645+0xb8>
    c024:	48 89 85 e0 f1 ff ff 	mov    %rax,-0xe20(%rbp)
    c02b:	48 8d 05 be 5d 01 00 	lea    0x15dbe(%rip),%rax        # 21df0 <g_399+0x30>
    c032:	48 89 85 60 f2 ff ff 	mov    %rax,-0xda0(%rbp)
    c039:	48 8d 05 c8 33 01 00 	lea    0x133c8(%rip),%rax        # 1f408 <g_143>
    c040:	48 89 85 e8 f1 ff ff 	mov    %rax,-0xe18(%rbp)
    c047:	48 8d 85 e8 f1 ff ff 	lea    -0xe18(%rbp),%rax
    c04e:	48 89 85 f0 f1 ff ff 	mov    %rax,-0xe10(%rbp)
    c055:	48 8d 85 f0 f1 ff ff 	lea    -0xe10(%rbp),%rax
    c05c:	48 89 85 68 f2 ff ff 	mov    %rax,-0xd98(%rbp)
    c063:	c7 85 0c f1 ff ff 00 	movl   $0x0,-0xef4(%rbp)
    c06a:	00 00 00 
    c06d:	eb 14                	jmp    c083 <func_29+0x131>
    c06f:	8b 85 0c f1 ff ff    	mov    -0xef4(%rbp),%eax
    c075:	48 98                	cltq   
    c077:	c6 44 05 c7 00       	movb   $0x0,-0x39(%rbp,%rax,1)
    c07c:	83 85 0c f1 ff ff 01 	addl   $0x1,-0xef4(%rbp)
    c083:	83 bd 0c f1 ff ff 06 	cmpl   $0x6,-0xef4(%rbp)
    c08a:	7e e3                	jle    c06f <func_29+0x11d>
    c08c:	c7 85 0c f1 ff ff 00 	movl   $0x0,-0xef4(%rbp)
    c093:	00 00 00 
    c096:	eb 1a                	jmp    c0b2 <func_29+0x160>
    c098:	8b 85 0c f1 ff ff    	mov    -0xef4(%rbp),%eax
    c09e:	48 98                	cltq   
    c0a0:	c7 84 85 40 f4 ff ff 	movl   $0xffffffff,-0xbc0(%rbp,%rax,4)
    c0a7:	ff ff ff ff 
    c0ab:	83 85 0c f1 ff ff 01 	addl   $0x1,-0xef4(%rbp)
    c0b2:	83 bd 0c f1 ff ff 06 	cmpl   $0x6,-0xef4(%rbp)
    c0b9:	7e dd                	jle    c098 <func_29+0x146>
    c0bb:	c7 85 0c f1 ff ff 00 	movl   $0x0,-0xef4(%rbp)
    c0c2:	00 00 00 
    c0c5:	eb 1e                	jmp    c0e5 <func_29+0x193>
    c0c7:	8b 85 0c f1 ff ff    	mov    -0xef4(%rbp),%eax
    c0cd:	48 98                	cltq   
    c0cf:	48 8d 15 ea 5c 01 00 	lea    0x15cea(%rip),%rdx        # 21dc0 <g_399>
    c0d6:	48 89 94 c5 a0 f4 ff 	mov    %rdx,-0xb60(%rbp,%rax,8)
    c0dd:	ff 
    c0de:	83 85 0c f1 ff ff 01 	addl   $0x1,-0xef4(%rbp)
    c0e5:	83 bd 0c f1 ff ff 04 	cmpl   $0x4,-0xef4(%rbp)
    c0ec:	7e d9                	jle    c0c7 <func_29+0x175>
    c0ee:	90                   	nop
    c0ef:	48 c7 05 96 33 01 00 	movq   $0x0,0x13396(%rip)        # 1f490 <g_347>
    c0f6:	00 00 00 00 
    c0fa:	e9 c7 09 00 00       	jmpq   cac6 <func_29+0xb74>
    c0ff:	48 8d 05 1a 37 01 00 	lea    0x1371a(%rip),%rax        # 1f820 <g_1201>
    c106:	48 89 85 e8 f3 ff ff 	mov    %rax,-0xc18(%rbp)
    c10d:	48 8d 05 54 71 01 00 	lea    0x17154(%rip),%rax        # 23268 <g_907>
    c114:	48 89 85 18 f2 ff ff 	mov    %rax,-0xde8(%rbp)
    c11b:	48 8d 85 18 f2 ff ff 	lea    -0xde8(%rbp),%rax
    c122:	48 89 85 20 f2 ff ff 	mov    %rax,-0xde0(%rbp)
    c129:	48 8d 85 20 f2 ff ff 	lea    -0xde0(%rbp),%rax
    c130:	48 89 85 40 f6 ff ff 	mov    %rax,-0x9c0(%rbp)
    c137:	48 8d 85 20 f2 ff ff 	lea    -0xde0(%rbp),%rax
    c13e:	48 89 85 48 f6 ff ff 	mov    %rax,-0x9b8(%rbp)
    c145:	48 8d 85 20 f2 ff ff 	lea    -0xde0(%rbp),%rax
    c14c:	48 89 85 50 f6 ff ff 	mov    %rax,-0x9b0(%rbp)
    c153:	48 8d 85 20 f2 ff ff 	lea    -0xde0(%rbp),%rax
    c15a:	48 89 85 58 f6 ff ff 	mov    %rax,-0x9a8(%rbp)
    c161:	48 8d 85 20 f2 ff ff 	lea    -0xde0(%rbp),%rax
    c168:	48 89 85 60 f6 ff ff 	mov    %rax,-0x9a0(%rbp)
    c16f:	48 8d 85 20 f2 ff ff 	lea    -0xde0(%rbp),%rax
    c176:	48 89 85 68 f6 ff ff 	mov    %rax,-0x998(%rbp)
    c17d:	66 c7 85 00 f1 ff ff 	movw   $0x1,-0xf00(%rbp)
    c184:	01 00 
    c186:	c7 85 00 f9 ff ff 09 	movl   $0x9,-0x700(%rbp)
    c18d:	00 00 00 
    c190:	c7 85 04 f9 ff ff 09 	movl   $0x9,-0x6fc(%rbp)
    c197:	00 00 00 
    c19a:	c7 85 08 f9 ff ff 09 	movl   $0x9,-0x6f8(%rbp)
    c1a1:	00 00 00 
    c1a4:	c7 85 0c f9 ff ff 09 	movl   $0x9,-0x6f4(%rbp)
    c1ab:	00 00 00 
    c1ae:	c7 85 10 f9 ff ff 09 	movl   $0x9,-0x6f0(%rbp)
    c1b5:	00 00 00 
    c1b8:	c7 85 14 f9 ff ff 09 	movl   $0x9,-0x6ec(%rbp)
    c1bf:	00 00 00 
    c1c2:	c7 85 18 f9 ff ff 09 	movl   $0x9,-0x6e8(%rbp)
    c1c9:	00 00 00 
    c1cc:	c7 85 1c f9 ff ff 53 	movl   $0xca698553,-0x6e4(%rbp)
    c1d3:	85 69 ca 
    c1d6:	c7 85 20 f9 ff ff 53 	movl   $0xca698553,-0x6e0(%rbp)
    c1dd:	85 69 ca 
    c1e0:	c7 85 24 f9 ff ff 53 	movl   $0xca698553,-0x6dc(%rbp)
    c1e7:	85 69 ca 
    c1ea:	c7 85 28 f9 ff ff 53 	movl   $0xca698553,-0x6d8(%rbp)
    c1f1:	85 69 ca 
    c1f4:	c7 85 2c f9 ff ff 53 	movl   $0xca698553,-0x6d4(%rbp)
    c1fb:	85 69 ca 
    c1fe:	c7 85 30 f9 ff ff 53 	movl   $0xca698553,-0x6d0(%rbp)
    c205:	85 69 ca 
    c208:	c7 85 34 f9 ff ff 53 	movl   $0xca698553,-0x6cc(%rbp)
    c20f:	85 69 ca 
    c212:	c7 85 38 f9 ff ff 09 	movl   $0x9,-0x6c8(%rbp)
    c219:	00 00 00 
    c21c:	c7 85 3c f9 ff ff 09 	movl   $0x9,-0x6c4(%rbp)
    c223:	00 00 00 
    c226:	c7 85 40 f9 ff ff 09 	movl   $0x9,-0x6c0(%rbp)
    c22d:	00 00 00 
    c230:	c7 85 44 f9 ff ff 09 	movl   $0x9,-0x6bc(%rbp)
    c237:	00 00 00 
    c23a:	c7 85 48 f9 ff ff 09 	movl   $0x9,-0x6b8(%rbp)
    c241:	00 00 00 
    c244:	c7 85 4c f9 ff ff 09 	movl   $0x9,-0x6b4(%rbp)
    c24b:	00 00 00 
    c24e:	c7 85 50 f9 ff ff 09 	movl   $0x9,-0x6b0(%rbp)
    c255:	00 00 00 
    c258:	c7 85 54 f9 ff ff 53 	movl   $0xca698553,-0x6ac(%rbp)
    c25f:	85 69 ca 
    c262:	c7 85 58 f9 ff ff 53 	movl   $0xca698553,-0x6a8(%rbp)
    c269:	85 69 ca 
    c26c:	c7 85 5c f9 ff ff 53 	movl   $0xca698553,-0x6a4(%rbp)
    c273:	85 69 ca 
    c276:	c7 85 60 f9 ff ff 53 	movl   $0xca698553,-0x6a0(%rbp)
    c27d:	85 69 ca 
    c280:	c7 85 64 f9 ff ff 53 	movl   $0xca698553,-0x69c(%rbp)
    c287:	85 69 ca 
    c28a:	c7 85 68 f9 ff ff 53 	movl   $0xca698553,-0x698(%rbp)
    c291:	85 69 ca 
    c294:	c7 85 6c f9 ff ff 53 	movl   $0xca698553,-0x694(%rbp)
    c29b:	85 69 ca 
    c29e:	c7 85 70 f9 ff ff 09 	movl   $0x9,-0x690(%rbp)
    c2a5:	00 00 00 
    c2a8:	c7 85 74 f9 ff ff 09 	movl   $0x9,-0x68c(%rbp)
    c2af:	00 00 00 
    c2b2:	c7 85 78 f9 ff ff 09 	movl   $0x9,-0x688(%rbp)
    c2b9:	00 00 00 
    c2bc:	c7 85 7c f9 ff ff 09 	movl   $0x9,-0x684(%rbp)
    c2c3:	00 00 00 
    c2c6:	c7 85 80 f9 ff ff 09 	movl   $0x9,-0x680(%rbp)
    c2cd:	00 00 00 
    c2d0:	c7 85 84 f9 ff ff 09 	movl   $0x9,-0x67c(%rbp)
    c2d7:	00 00 00 
    c2da:	c7 85 88 f9 ff ff 09 	movl   $0x9,-0x678(%rbp)
    c2e1:	00 00 00 
    c2e4:	c7 85 8c f9 ff ff 53 	movl   $0xca698553,-0x674(%rbp)
    c2eb:	85 69 ca 
    c2ee:	c7 85 90 f9 ff ff 53 	movl   $0xca698553,-0x670(%rbp)
    c2f5:	85 69 ca 
    c2f8:	c7 85 94 f9 ff ff 53 	movl   $0xca698553,-0x66c(%rbp)
    c2ff:	85 69 ca 
    c302:	c7 85 98 f9 ff ff 53 	movl   $0xca698553,-0x668(%rbp)
    c309:	85 69 ca 
    c30c:	c7 85 9c f9 ff ff 53 	movl   $0xca698553,-0x664(%rbp)
    c313:	85 69 ca 
    c316:	c7 85 a0 f9 ff ff 53 	movl   $0xca698553,-0x660(%rbp)
    c31d:	85 69 ca 
    c320:	c7 85 a4 f9 ff ff 53 	movl   $0xca698553,-0x65c(%rbp)
    c327:	85 69 ca 
    c32a:	48 8b 05 5f 31 01 00 	mov    0x1315f(%rip),%rax        # 1f490 <g_347>
    c331:	48 8d 50 02          	lea    0x2(%rax),%rdx
    c335:	48 8d 05 f4 30 01 00 	lea    0x130f4(%rip),%rax        # 1f430 <g_275>
    c33c:	0f b6 04 02          	movzbl (%rdx,%rax,1),%eax
    c340:	0f be d0             	movsbl %al,%edx
    c343:	48 8b 85 e8 f3 ff ff 	mov    -0xc18(%rbp),%rax
    c34a:	89 10                	mov    %edx,(%rax)
    c34c:	48 c7 05 49 5b 01 00 	movq   $0x0,0x15b49(%rip)        # 21ea0 <g_1244>
    c353:	00 00 00 00 
    c357:	c7 05 5b 31 01 00 02 	movl   $0x2,0x1315b(%rip)        # 1f4bc <g_1082>
    c35e:	00 00 00 
    c361:	e9 3f 07 00 00       	jmpq   caa5 <func_29+0xb53>
    c366:	48 c7 85 f0 f3 ff ff 	movq   $0x0,-0xc10(%rbp)
    c36d:	00 00 00 00 
    c371:	48 8b 85 e8 f3 ff ff 	mov    -0xc18(%rbp),%rax
    c378:	8b 10                	mov    (%rax),%edx
    c37a:	48 8b 85 e8 f3 ff ff 	mov    -0xc18(%rbp),%rax
    c381:	89 10                	mov    %edx,(%rax)
    c383:	c7 05 27 31 01 00 01 	movl   $0x1,0x13127(%rip)        # 1f4b4 <g_717>
    c38a:	00 00 00 
    c38d:	e9 f5 06 00 00       	jmpq   ca87 <func_29+0xb35>
    c392:	48 8d 05 8b 30 01 00 	lea    0x1308b(%rip),%rax        # 1f424 <g_246>
    c399:	48 89 85 f8 f3 ff ff 	mov    %rax,-0xc08(%rbp)
    c3a0:	48 b8 dd 88 6a c4 0f 	movabs $0x7564da0fc46a88dd,%rax
    c3a7:	da 64 75 
    c3aa:	48 89 85 00 f4 ff ff 	mov    %rax,-0xc00(%rbp)
    c3b1:	48 8d 05 50 5a 01 00 	lea    0x15a50(%rip),%rax        # 21e08 <g_581>
    c3b8:	48 89 85 08 f4 ff ff 	mov    %rax,-0xbf8(%rbp)
    c3bf:	48 8d 05 ea 6d 01 00 	lea    0x16dea(%rip),%rax        # 231b0 <g_645+0x10>
    c3c6:	48 89 85 10 f4 ff ff 	mov    %rax,-0xbf0(%rbp)
    c3cd:	8b 15 e1 30 01 00    	mov    0x130e1(%rip),%edx        # 1f4b4 <g_717>
    c3d3:	48 8b 05 b6 30 01 00 	mov    0x130b6(%rip),%rax        # 1f490 <g_347>
    c3da:	48 63 d2             	movslq %edx,%rdx
    c3dd:	48 01 d2             	add    %rdx,%rdx
    c3e0:	48 01 d0             	add    %rdx,%rax
    c3e3:	48 8d 14 85 00 00 00 	lea    0x0(,%rax,4),%rdx
    c3ea:	00 
    c3eb:	48 8d 05 4e 30 01 00 	lea    0x1304e(%rip),%rax        # 1f440 <g_278>
    c3f2:	8b 04 02             	mov    (%rdx,%rax,1),%eax
    c3f5:	85 c0                	test   %eax,%eax
    c3f7:	0f 84 31 01 00 00    	je     c52e <func_29+0x5dc>
    c3fd:	48 8b 05 8c 30 01 00 	mov    0x1308c(%rip),%rax        # 1f490 <g_347>
    c404:	48 83 c0 04          	add    $0x4,%rax
    c408:	48 8d 14 c5 00 00 00 	lea    0x0(,%rax,8),%rdx
    c40f:	00 
    c410:	48 8d 05 a9 59 01 00 	lea    0x159a9(%rip),%rax        # 21dc0 <g_399>
    c417:	48 8b 04 02          	mov    (%rdx,%rax,1),%rax
    c41b:	48 39 85 f0 f3 ff ff 	cmp    %rax,-0xc10(%rbp)
    c422:	0f 94 c0             	sete   %al
    c425:	44 0f b6 e0          	movzbl %al,%r12d
    c429:	48 8b 05 60 30 01 00 	mov    0x13060(%rip),%rax        # 1f490 <g_347>
    c430:	48 8d 50 06          	lea    0x6(%rax),%rdx
    c434:	48 8b 05 55 30 01 00 	mov    0x13055(%rip),%rax        # 1f490 <g_347>
    c43b:	48 01 d2             	add    %rdx,%rdx
    c43e:	48 01 d0             	add    %rdx,%rax
    c441:	48 8d 14 85 00 00 00 	lea    0x0(,%rax,4),%rdx
    c448:	00 
    c449:	48 8d 05 f0 2f 01 00 	lea    0x12ff0(%rip),%rax        # 1f440 <g_278>
    c450:	8b 04 02             	mov    (%rdx,%rax,1),%eax
    c453:	85 c0                	test   %eax,%eax
    c455:	0f 84 c2 00 00 00    	je     c51d <func_29+0x5cb>
    c45b:	48 8b 85 e8 f0 ff ff 	mov    -0xf18(%rbp),%rax
    c462:	41 89 c6             	mov    %eax,%r14d
    c465:	48 8b 85 e8 f3 ff ff 	mov    -0xc18(%rbp),%rax
    c46c:	8b 18                	mov    (%rax),%ebx
    c46e:	48 8b 85 e8 f3 ff ff 	mov    -0xc18(%rbp),%rax
    c475:	44 8b 28             	mov    (%rax),%r13d
    c478:	be c5 00 00 00       	mov    $0xc5,%esi
    c47d:	bf 00 00 00 00       	mov    $0x0,%edi
    c482:	e8 d3 d6 ff ff       	callq  9b5a <safe_add_func_uint8_t_u_u>
    c487:	83 f0 01             	xor    $0x1,%eax
    c48a:	0f be c0             	movsbl %al,%eax
    c48d:	be 06 00 00 00       	mov    $0x6,%esi
    c492:	89 c7                	mov    %eax,%edi
    c494:	e8 9c ce ff ff       	callq  9335 <safe_rshift_func_int8_t_s_s>
    c499:	0f be c0             	movsbl %al,%eax
    c49c:	39 85 e4 f0 ff ff    	cmp    %eax,-0xf1c(%rbp)
    c4a2:	0f 92 c0             	setb   %al
    c4a5:	0f b6 c0             	movzbl %al,%eax
    c4a8:	48 39 85 e8 f0 ff ff 	cmp    %rax,-0xf18(%rbp)
    c4af:	0f 95 c0             	setne  %al
    c4b2:	0f b6 d0             	movzbl %al,%edx
    c4b5:	48 8b 05 dc 58 01 00 	mov    0x158dc(%rip),%rax        # 21d98 <g_332>
    c4bc:	48 8b 00             	mov    (%rax),%rax
    c4bf:	48 8b 00             	mov    (%rax),%rax
    c4c2:	0f b7 00             	movzwl (%rax),%eax
    c4c5:	0f b7 c0             	movzwl %ax,%eax
    c4c8:	39 c2                	cmp    %eax,%edx
    c4ca:	0f 9c c0             	setl   %al
    c4cd:	0f b6 c0             	movzbl %al,%eax
    c4d0:	41 39 c5             	cmp    %eax,%r13d
    c4d3:	0f 95 c0             	setne  %al
    c4d6:	0f b6 c0             	movzbl %al,%eax
    c4d9:	89 de                	mov    %ebx,%esi
    c4db:	89 c7                	mov    %eax,%edi
    c4dd:	e8 b0 cf ff ff       	callq  9492 <safe_lshift_func_int16_t_s_s>
    c4e2:	89 c2                	mov    %eax,%edx
    c4e4:	48 8b 05 45 58 01 00 	mov    0x15845(%rip),%rax        # 21d30 <g_200>
    c4eb:	66 89 10             	mov    %dx,(%rax)
    c4ee:	0f b7 00             	movzwl (%rax),%eax
    c4f1:	0f b7 c0             	movzwl %ax,%eax
    c4f4:	44 89 f6             	mov    %r14d,%esi
    c4f7:	89 c7                	mov    %eax,%edi
    c4f9:	e8 4a d9 ff ff       	callq  9e48 <safe_rshift_func_uint16_t_u_s>
    c4fe:	0f b6 c0             	movzbl %al,%eax
    c501:	89 c7                	mov    %eax,%edi
    c503:	e8 3d d6 ff ff       	callq  9b45 <safe_unary_minus_func_uint8_t_u>
    c508:	84 c0                	test   %al,%al
    c50a:	74 11                	je     c51d <func_29+0x5cb>
    c50c:	48 83 bd e8 f0 ff ff 	cmpq   $0x0,-0xf18(%rbp)
    c513:	00 
    c514:	74 07                	je     c51d <func_29+0x5cb>
    c516:	b8 01 00 00 00       	mov    $0x1,%eax
    c51b:	eb 05                	jmp    c522 <func_29+0x5d0>
    c51d:	b8 00 00 00 00       	mov    $0x0,%eax
    c522:	44 39 e0             	cmp    %r12d,%eax
    c525:	7d 07                	jge    c52e <func_29+0x5dc>
    c527:	ba 01 00 00 00       	mov    $0x1,%edx
    c52c:	eb 05                	jmp    c533 <func_29+0x5e1>
    c52e:	ba 00 00 00 00       	mov    $0x0,%edx
    c533:	48 8b 85 f8 f3 ff ff 	mov    -0xc08(%rbp),%rax
    c53a:	8b 00                	mov    (%rax),%eax
    c53c:	21 c2                	and    %eax,%edx
    c53e:	48 8b 85 f8 f3 ff ff 	mov    -0xc08(%rbp),%rax
    c545:	89 10                	mov    %edx,(%rax)
    c547:	c6 05 56 2f 01 00 00 	movb   $0x0,0x12f56(%rip)        # 1f4a4 <g_565>
    c54e:	e9 50 01 00 00       	jmpq   c6a3 <func_29+0x751>
    c553:	c7 85 08 f2 ff ff 1a 	movl   $0x7af3461a,-0xdf8(%rbp)
    c55a:	46 f3 7a 
    c55d:	c7 05 bd 2e 01 00 05 	movl   $0x5,0x12ebd(%rip)        # 1f424 <g_246>
    c564:	00 00 00 
    c567:	e9 19 01 00 00       	jmpq   c685 <func_29+0x733>
    c56c:	c6 85 fb f0 ff ff 13 	movb   $0x13,-0xf05(%rbp)
    c573:	c7 85 10 f2 ff ff 03 	movl   $0x3,-0xdf0(%rbp)
    c57a:	00 00 00 
    c57d:	48 8d 05 9c 32 01 00 	lea    0x1329c(%rip),%rax        # 1f820 <g_1201>
    c584:	48 89 85 18 f4 ff ff 	mov    %rax,-0xbe8(%rbp)
    c58b:	48 8d 05 8e 32 01 00 	lea    0x1328e(%rip),%rax        # 1f820 <g_1201>
    c592:	48 89 85 20 f4 ff ff 	mov    %rax,-0xbe0(%rbp)
    c599:	48 8d 85 10 f2 ff ff 	lea    -0xdf0(%rbp),%rax
    c5a0:	48 89 85 28 f4 ff ff 	mov    %rax,-0xbd8(%rbp)
    c5a7:	48 8d 05 72 32 01 00 	lea    0x13272(%rip),%rax        # 1f820 <g_1201>
    c5ae:	48 89 85 30 f4 ff ff 	mov    %rax,-0xbd0(%rbp)
    c5b5:	48 8d 85 08 f2 ff ff 	lea    -0xdf8(%rbp),%rax
    c5bc:	48 89 85 38 f4 ff ff 	mov    %rax,-0xbc8(%rbp)
    c5c3:	48 8d 05 6a 2a 01 00 	lea    0x12a6a(%rip),%rax        # 1f034 <g_4+0x4>
    c5ca:	48 89 85 80 f7 ff ff 	mov    %rax,-0x880(%rbp)
    c5d1:	48 8d 05 5c 2a 01 00 	lea    0x12a5c(%rip),%rax        # 1f034 <g_4+0x4>
    c5d8:	48 89 85 88 f7 ff ff 	mov    %rax,-0x878(%rbp)
    c5df:	48 8d 05 4e 2a 01 00 	lea    0x12a4e(%rip),%rax        # 1f034 <g_4+0x4>
    c5e6:	48 89 85 90 f7 ff ff 	mov    %rax,-0x870(%rbp)
    c5ed:	48 8d 05 40 2a 01 00 	lea    0x12a40(%rip),%rax        # 1f034 <g_4+0x4>
    c5f4:	48 89 85 98 f7 ff ff 	mov    %rax,-0x868(%rbp)
    c5fb:	48 8d 05 32 2a 01 00 	lea    0x12a32(%rip),%rax        # 1f034 <g_4+0x4>
    c602:	48 89 85 a0 f7 ff ff 	mov    %rax,-0x860(%rbp)
    c609:	48 8d 05 24 2a 01 00 	lea    0x12a24(%rip),%rax        # 1f034 <g_4+0x4>
    c610:	48 89 85 a8 f7 ff ff 	mov    %rax,-0x858(%rbp)
    c617:	66 c7 85 02 f1 ff ff 	movw   $0xa7e6,-0xefe(%rbp)
    c61e:	e6 a7 
    c620:	c7 85 10 f1 ff ff 00 	movl   $0x0,-0xef0(%rbp)
    c627:	00 00 00 
    c62a:	eb 1e                	jmp    c64a <func_29+0x6f8>
    c62c:	8b 85 10 f1 ff ff    	mov    -0xef0(%rbp),%eax
    c632:	48 98                	cltq   
    c634:	48 8d 15 a5 57 01 00 	lea    0x157a5(%rip),%rdx        # 21de0 <g_399+0x20>
    c63b:	48 89 94 c5 b0 f5 ff 	mov    %rdx,-0xa50(%rbp,%rax,8)
    c642:	ff 
    c643:	83 85 10 f1 ff ff 01 	addl   $0x1,-0xef0(%rbp)
    c64a:	83 bd 10 f1 ff ff 04 	cmpl   $0x4,-0xef0(%rbp)
    c651:	7e d9                	jle    c62c <func_29+0x6da>
    c653:	80 ad fb f0 ff ff 01 	subb   $0x1,-0xf05(%rbp)
    c65a:	0f b7 85 02 f1 ff ff 	movzwl -0xefe(%rbp),%eax
    c661:	83 c0 01             	add    $0x1,%eax
    c664:	66 89 85 02 f1 ff ff 	mov    %ax,-0xefe(%rbp)
    c66b:	48 c7 05 b2 56 01 00 	movq   $0x0,0x156b2(%rip)        # 21d28 <g_169>
    c672:	00 00 00 00 
    c676:	8b 05 a8 2d 01 00    	mov    0x12da8(%rip),%eax        # 1f424 <g_246>
    c67c:	83 e8 01             	sub    $0x1,%eax
    c67f:	89 05 9f 2d 01 00    	mov    %eax,0x12d9f(%rip)        # 1f424 <g_246>
    c685:	8b 05 99 2d 01 00    	mov    0x12d99(%rip),%eax        # 1f424 <g_246>
    c68b:	85 c0                	test   %eax,%eax
    c68d:	0f 89 d9 fe ff ff    	jns    c56c <func_29+0x61a>
    c693:	0f b6 05 0a 2e 01 00 	movzbl 0x12e0a(%rip),%eax        # 1f4a4 <g_565>
    c69a:	83 c0 01             	add    $0x1,%eax
    c69d:	88 05 01 2e 01 00    	mov    %al,0x12e01(%rip)        # 1f4a4 <g_565>
    c6a3:	0f b6 05 fa 2d 01 00 	movzbl 0x12dfa(%rip),%eax        # 1f4a4 <g_565>
    c6aa:	3c 08                	cmp    $0x8,%al
    c6ac:	0f 86 a1 fe ff ff    	jbe    c553 <func_29+0x601>
    c6b2:	0f b6 45 c9          	movzbl -0x37(%rbp),%eax
    c6b6:	83 e8 01             	sub    $0x1,%eax
    c6b9:	88 45 c9             	mov    %al,-0x37(%rbp)
    c6bc:	48 8b 85 00 f4 ff ff 	mov    -0xc00(%rbp),%rax
    c6c3:	0f b6 d0             	movzbl %al,%edx
    c6c6:	48 8b 05 3b 57 01 00 	mov    0x1573b(%rip),%rax        # 21e08 <g_581>
    c6cd:	0f b6 08             	movzbl (%rax),%ecx
    c6d0:	48 8b 05 31 57 01 00 	mov    0x15731(%rip),%rax        # 21e08 <g_581>
    c6d7:	83 e1 af             	and    $0xffffffaf,%ecx
    c6da:	88 08                	mov    %cl,(%rax)
    c6dc:	0f b6 00             	movzbl (%rax),%eax
    c6df:	0f b6 c0             	movzbl %al,%eax
    c6e2:	89 d6                	mov    %edx,%esi
    c6e4:	89 c7                	mov    %eax,%edi
    c6e6:	e8 8d d4 ff ff       	callq  9b78 <safe_sub_func_uint8_t_u_u>
    c6eb:	84 c0                	test   %al,%al
    c6ed:	0f 84 12 01 00 00    	je     c805 <func_29+0x8b3>
    c6f3:	c7 85 cc f1 ff ff d8 	movl   $0xe967e4d8,-0xe34(%rbp)
    c6fa:	e4 67 e9 
    c6fd:	48 83 bd 08 f4 ff ff 	cmpq   $0x0,-0xbf8(%rbp)
    c704:	00 
    c705:	0f 84 d5 00 00 00    	je     c7e0 <func_29+0x88e>
    c70b:	48 8d 05 0e 57 01 00 	lea    0x1570e(%rip),%rax        # 21e20 <g_578>
    c712:	48 89 05 0f 57 01 00 	mov    %rax,0x1570f(%rip)        # 21e28 <g_577>
    c719:	48 8b 05 08 57 01 00 	mov    0x15708(%rip),%rax        # 21e28 <g_577>
    c720:	48 8d 15 f9 56 01 00 	lea    0x156f9(%rip),%rdx        # 21e20 <g_578>
    c727:	48 39 d0             	cmp    %rdx,%rax
    c72a:	41 0f 95 c5          	setne  %r13b
    c72e:	0f b6 45 c7          	movzbl -0x39(%rbp),%eax
    c732:	0f b6 d8             	movzbl %al,%ebx
    c735:	83 bd cc f1 ff ff 00 	cmpl   $0x0,-0xe34(%rbp)
    c73c:	74 59                	je     c797 <func_29+0x845>
    c73e:	48 8b 85 e8 f0 ff ff 	mov    -0xf18(%rbp),%rax
    c745:	89 c2                	mov    %eax,%edx
    c747:	48 8b 85 e8 f3 ff ff 	mov    -0xc18(%rbp),%rax
    c74e:	8b 00                	mov    (%rax),%eax
    c750:	98                   	cwtl   
    c751:	89 d6                	mov    %edx,%esi
    c753:	89 c7                	mov    %eax,%edi
    c755:	e8 09 ce ff ff       	callq  9563 <safe_rshift_func_int16_t_s_u>
    c75a:	44 0f bf e0          	movswl %ax,%r12d
    c75e:	48 8b 05 0b 57 01 00 	mov    0x1570b(%rip),%rax        # 21e70 <g_712>
    c765:	8b 00                	mov    (%rax),%eax
    c767:	89 c7                	mov    %eax,%edi
    c769:	e8 38 d7 ff ff       	callq  9ea6 <safe_unary_minus_func_uint32_t_u>
    c76e:	89 c2                	mov    %eax,%edx
    c770:	48 8b 05 b9 55 01 00 	mov    0x155b9(%rip),%rax        # 21d30 <g_200>
    c777:	66 89 10             	mov    %dx,(%rax)
    c77a:	0f b7 00             	movzwl (%rax),%eax
    c77d:	0f b7 c0             	movzwl %ax,%eax
    c780:	44 89 e6             	mov    %r12d,%esi
    c783:	89 c7                	mov    %eax,%edi
    c785:	e8 34 d6 ff ff       	callq  9dbe <safe_lshift_func_uint16_t_u_s>
    c78a:	66 85 c0             	test   %ax,%ax
    c78d:	74 08                	je     c797 <func_29+0x845>
    c78f:	48 83 bd e8 f0 ff ff 	cmpq   $0x0,-0xf18(%rbp)
    c796:	00 
    c797:	89 de                	mov    %ebx,%esi
    c799:	bf f3 b2 ff ff       	mov    $0xffffb2f3,%edi
    c79e:	e8 b2 cc ff ff       	callq  9455 <safe_div_func_int16_t_s_s>
    c7a3:	66 85 c0             	test   %ax,%ax
    c7a6:	75 0a                	jne    c7b2 <func_29+0x860>
    c7a8:	48 83 bd e8 f0 ff ff 	cmpq   $0x0,-0xf18(%rbp)
    c7af:	00 
    c7b0:	74 07                	je     c7b9 <func_29+0x867>
    c7b2:	b8 01 00 00 00       	mov    $0x1,%eax
    c7b7:	eb 05                	jmp    c7be <func_29+0x86c>
    c7b9:	b8 00 00 00 00       	mov    $0x0,%eax
    c7be:	83 e0 01             	and    $0x1,%eax
    c7c1:	44 31 e8             	xor    %r13d,%eax
    c7c4:	0f b6 c0             	movzbl %al,%eax
    c7c7:	be ac 6d 00 00       	mov    $0x6dac,%esi
    c7cc:	89 c7                	mov    %eax,%edi
    c7ce:	e8 4c d5 ff ff       	callq  9d1f <safe_sub_func_uint16_t_u_u>
    c7d3:	66 85 c0             	test   %ax,%ax
    c7d6:	74 0f                	je     c7e7 <func_29+0x895>
    c7d8:	0f b6 45 c9          	movzbl -0x37(%rbp),%eax
    c7dc:	84 c0                	test   %al,%al
    c7de:	74 07                	je     c7e7 <func_29+0x895>
    c7e0:	ba 01 00 00 00       	mov    $0x1,%edx
    c7e5:	eb 05                	jmp    c7ec <func_29+0x89a>
    c7e7:	ba 00 00 00 00       	mov    $0x0,%edx
    c7ec:	48 8b 85 f8 f3 ff ff 	mov    -0xc08(%rbp),%rax
    c7f3:	8b 00                	mov    (%rax),%eax
    c7f5:	31 c2                	xor    %eax,%edx
    c7f7:	48 8b 85 f8 f3 ff ff 	mov    -0xc08(%rbp),%rax
    c7fe:	89 10                	mov    %edx,(%rax)
    c800:	e9 73 02 00 00       	jmpq   ca78 <func_29+0xb26>
    c805:	c7 45 ce eb eb eb eb 	movl   $0xebebebeb,-0x32(%rbp)
    c80c:	66 c7 45 d2 eb eb    	movw   $0xebeb,-0x2e(%rbp)
    c812:	48 c7 85 e8 f3 ff ff 	movq   $0x0,-0xc18(%rbp)
    c819:	00 00 00 00 
    c81d:	c6 05 f5 2b 01 00 01 	movb   $0x1,0x12bf5(%rip)        # 1f419 <g_167>
    c824:	e9 2b 02 00 00       	jmpq   ca54 <func_29+0xb02>
    c829:	c7 85 c8 f1 ff ff fd 	movl   $0xdab9d0fd,-0xe38(%rbp)
    c830:	d0 b9 da 
    c833:	c7 85 14 f1 ff ff 00 	movl   $0x0,-0xeec(%rbp)
    c83a:	00 00 00 
    c83d:	eb 1e                	jmp    c85d <func_29+0x90b>
    c83f:	8b 85 14 f1 ff ff    	mov    -0xeec(%rbp),%eax
    c845:	48 98                	cltq   
    c847:	48 8d 15 1a 56 01 00 	lea    0x1561a(%rip),%rdx        # 21e68 <g_644+0x28>
    c84e:	48 89 94 c5 80 f7 ff 	mov    %rdx,-0x880(%rbp,%rax,8)
    c855:	ff 
    c856:	83 85 14 f1 ff ff 01 	addl   $0x1,-0xeec(%rbp)
    c85d:	83 bd 14 f1 ff ff 06 	cmpl   $0x6,-0xeec(%rbp)
    c864:	7e d9                	jle    c83f <func_29+0x8ed>
    c866:	48 8b 05 23 2c 01 00 	mov    0x12c23(%rip),%rax        # 1f490 <g_347>
    c86d:	48 8d 50 01          	lea    0x1(%rax),%rdx
    c871:	48 8d 05 98 2b 01 00 	lea    0x12b98(%rip),%rax        # 1f410 <g_148>
    c878:	0f b6 04 02          	movzbl (%rdx,%rax,1),%eax
    c87c:	0f be c0             	movsbl %al,%eax
    c87f:	89 05 a3 2b 01 00    	mov    %eax,0x12ba3(%rip)        # 1f428 <g_267>
    c885:	8b 1d 9d 2b 01 00    	mov    0x12b9d(%rip),%ebx        # 1f428 <g_267>
    c88b:	48 8b 05 86 55 01 00 	mov    0x15586(%rip),%rax        # 21e18 <g_579>
    c892:	48 8b 00             	mov    (%rax),%rax
    c895:	48 8b 00             	mov    (%rax),%rax
    c898:	0f b6 00             	movzbl (%rax),%eax
    c89b:	0f b6 c0             	movzbl %al,%eax
    c89e:	be 02 00 00 00       	mov    $0x2,%esi
    c8a3:	89 c7                	mov    %eax,%edi
    c8a5:	e8 14 d4 ff ff       	callq  9cbe <safe_rshift_func_uint8_t_u_u>
    c8aa:	89 c2                	mov    %eax,%edx
    c8ac:	8b 05 02 2c 01 00    	mov    0x12c02(%rip),%eax        # 1f4b4 <g_717>
    c8b2:	85 c0                	test   %eax,%eax
    c8b4:	74 11                	je     c8c7 <func_29+0x975>
    c8b6:	48 83 bd 30 f2 ff ff 	cmpq   $0x0,-0xdd0(%rbp)
    c8bd:	00 
    c8be:	74 07                	je     c8c7 <func_29+0x975>
    c8c0:	b8 01 00 00 00       	mov    $0x1,%eax
    c8c5:	eb 05                	jmp    c8cc <func_29+0x97a>
    c8c7:	b8 00 00 00 00       	mov    $0x0,%eax
    c8cc:	09 d0                	or     %edx,%eax
    c8ce:	0f be d0             	movsbl %al,%edx
    c8d1:	48 8b 05 b8 2b 01 00 	mov    0x12bb8(%rip),%rax        # 1f490 <g_347>
    c8d8:	48 8d 0c 00          	lea    (%rax,%rax,1),%rcx
    c8dc:	48 8d 05 c5 2b 01 00 	lea    0x12bc5(%rip),%rax        # 1f4a8 <g_632>
    c8e3:	0f b7 04 01          	movzwl (%rcx,%rax,1),%eax
    c8e7:	0f be c0             	movsbl %al,%eax
    c8ea:	89 d6                	mov    %edx,%esi
    c8ec:	89 c7                	mov    %eax,%edi
    c8ee:	e8 ff c8 ff ff       	callq  91f2 <safe_sub_func_int8_t_s_s>
    c8f3:	0f be c0             	movsbl %al,%eax
    c8f6:	31 c3                	xor    %eax,%ebx
    c8f8:	89 da                	mov    %ebx,%edx
    c8fa:	48 8b 05 57 54 01 00 	mov    0x15457(%rip),%rax        # 21d58 <g_322>
    c901:	0f b7 00             	movzwl (%rax),%eax
    c904:	89 c1                	mov    %eax,%ecx
    c906:	89 d0                	mov    %edx,%eax
    c908:	21 c1                	and    %eax,%ecx
    c90a:	89 ca                	mov    %ecx,%edx
    c90c:	48 8b 05 45 54 01 00 	mov    0x15445(%rip),%rax        # 21d58 <g_322>
    c913:	66 89 10             	mov    %dx,(%rax)
    c916:	0f b7 00             	movzwl (%rax),%eax
    c919:	0f bf d0             	movswl %ax,%edx
    c91c:	48 8b 85 10 f4 ff ff 	mov    -0xbf0(%rbp),%rax
    c923:	48 89 05 16 55 01 00 	mov    %rax,0x15516(%rip)        # 21e40 <g_644>
    c92a:	48 8b 05 0f 55 01 00 	mov    0x1550f(%rip),%rax        # 21e40 <g_644>
    c931:	48 8d 0d 20 69 01 00 	lea    0x16920(%rip),%rcx        # 23258 <g_645+0xb8>
    c938:	48 39 c8             	cmp    %rcx,%rax
    c93b:	0f 94 c0             	sete   %al
    c93e:	0f b6 c0             	movzbl %al,%eax
    c941:	89 d6                	mov    %edx,%esi
    c943:	89 c7                	mov    %eax,%edi
    c945:	e8 74 d4 ff ff       	callq  9dbe <safe_lshift_func_uint16_t_u_s>
    c94a:	66 85 c0             	test   %ax,%ax
    c94d:	0f 84 9e 00 00 00    	je     c9f1 <func_29+0xa9f>
    c953:	48 83 bd e8 f0 ff ff 	cmpq   $0x5,-0xf18(%rbp)
    c95a:	05 
    c95b:	0f 94 c0             	sete   %al
    c95e:	0f b6 c0             	movzbl %al,%eax
    c961:	be 7e 2d 34 d9       	mov    $0xd9342d7e,%esi
    c966:	89 c7                	mov    %eax,%edi
    c968:	e8 b8 d5 ff ff       	callq  9f25 <safe_div_func_uint32_t_u_u>
    c96d:	48 8b 15 1c 2b 01 00 	mov    0x12b1c(%rip),%rdx        # 1f490 <g_347>
    c974:	48 8d 0c 12          	lea    (%rdx,%rdx,1),%rcx
    c978:	48 8d 15 29 2b 01 00 	lea    0x12b29(%rip),%rdx        # 1f4a8 <g_632>
    c97f:	0f b7 14 11          	movzwl (%rcx,%rdx,1),%edx
    c983:	0f bf d2             	movswl %dx,%edx
    c986:	39 d0                	cmp    %edx,%eax
    c988:	0f 92 c0             	setb   %al
    c98b:	0f b6 c8             	movzbl %al,%ecx
    c98e:	48 8b 05 fb 2a 01 00 	mov    0x12afb(%rip),%rax        # 1f490 <g_347>
    c995:	48 8d 50 02          	lea    0x2(%rax),%rdx
    c999:	48 8d 05 90 2a 01 00 	lea    0x12a90(%rip),%rax        # 1f430 <g_275>
    c9a0:	0f b6 14 02          	movzbl (%rdx,%rax,1),%edx
    c9a4:	48 8b 05 e5 2a 01 00 	mov    0x12ae5(%rip),%rax        # 1f490 <g_347>
    c9ab:	48 83 c0 02          	add    $0x2,%rax
    c9af:	31 d1                	xor    %edx,%ecx
    c9b1:	48 8d 15 78 2a 01 00 	lea    0x12a78(%rip),%rdx        # 1f430 <g_275>
    c9b8:	88 0c 10             	mov    %cl,(%rax,%rdx,1)
    c9bb:	48 8d 15 6e 2a 01 00 	lea    0x12a6e(%rip),%rdx        # 1f430 <g_275>
    c9c2:	0f b6 04 10          	movzbl (%rax,%rdx,1),%eax
    c9c6:	0f be d0             	movsbl %al,%edx
    c9c9:	48 8b 05 c0 2a 01 00 	mov    0x12ac0(%rip),%rax        # 1f490 <g_347>
    c9d0:	48 8d 0c 00          	lea    (%rax,%rax,1),%rcx
    c9d4:	48 8d 05 cd 2a 01 00 	lea    0x12acd(%rip),%rax        # 1f4a8 <g_632>
    c9db:	0f b7 04 01          	movzwl (%rcx,%rax,1),%eax
    c9df:	98                   	cwtl   
    c9e0:	39 c2                	cmp    %eax,%edx
    c9e2:	0f 9d c0             	setge  %al
    c9e5:	0f b6 d0             	movzbl %al,%edx
    c9e8:	0f b6 45 d0          	movzbl -0x30(%rbp),%eax
    c9ec:	0f b6 c0             	movzbl %al,%eax
    c9ef:	39 c2                	cmp    %eax,%edx
    c9f1:	8b 05 29 2e 01 00    	mov    0x12e29(%rip),%eax        # 1f820 <g_1201>
    c9f7:	85 c0                	test   %eax,%eax
    c9f9:	0f 95 c0             	setne  %al
    c9fc:	0f b6 c0             	movzbl %al,%eax
    c9ff:	48 be ad b2 6a 10 5a 	movabs $0xdbefc55a106ab2ad,%rsi
    ca06:	c5 ef db 
    ca09:	48 89 c7             	mov    %rax,%rdi
    ca0c:	e8 9e d6 ff ff       	callq  a0af <safe_div_func_uint64_t_u_u>
    ca11:	be 84 e3 ff ff       	mov    $0xffffe384,%esi
    ca16:	bf 4d 5b 00 00       	mov    $0x5b4d,%edi
    ca1b:	e8 93 c9 ff ff       	callq  93b3 <safe_add_func_int16_t_s_s>
    ca20:	0f bf d0             	movswl %ax,%edx
    ca23:	48 8b 05 66 2a 01 00 	mov    0x12a66(%rip),%rax        # 1f490 <g_347>
    ca2a:	48 8d 48 01          	lea    0x1(%rax),%rcx
    ca2e:	48 8d 05 db 29 01 00 	lea    0x129db(%rip),%rax        # 1f410 <g_148>
    ca35:	0f b6 04 01          	movzbl (%rcx,%rax,1),%eax
    ca39:	0f be c0             	movsbl %al,%eax
    ca3c:	31 d0                	xor    %edx,%eax
    ca3e:	89 85 c8 f1 ff ff    	mov    %eax,-0xe38(%rbp)
    ca44:	0f b6 05 ce 29 01 00 	movzbl 0x129ce(%rip),%eax        # 1f419 <g_167>
    ca4b:	83 c0 01             	add    $0x1,%eax
    ca4e:	88 05 c5 29 01 00    	mov    %al,0x129c5(%rip)        # 1f419 <g_167>
    ca54:	0f b6 05 be 29 01 00 	movzbl 0x129be(%rip),%eax        # 1f419 <g_167>
    ca5b:	3c 08                	cmp    $0x8,%al
    ca5d:	0f 86 c6 fd ff ff    	jbe    c829 <func_29+0x8d7>
    ca63:	48 8b 05 2e 53 01 00 	mov    0x1532e(%rip),%rax        # 21d98 <g_332>
    ca6a:	48 8b 00             	mov    (%rax),%rax
    ca6d:	48 8b 00             	mov    (%rax),%rax
    ca70:	0f b7 00             	movzwl (%rax),%eax
    ca73:	e9 58 1d 00 00       	jmpq   e7d0 <func_29+0x287e>
    ca78:	8b 05 36 2a 01 00    	mov    0x12a36(%rip),%eax        # 1f4b4 <g_717>
    ca7e:	83 c0 01             	add    $0x1,%eax
    ca81:	89 05 2d 2a 01 00    	mov    %eax,0x12a2d(%rip)        # 1f4b4 <g_717>
    ca87:	8b 05 27 2a 01 00    	mov    0x12a27(%rip),%eax        # 1f4b4 <g_717>
    ca8d:	83 f8 07             	cmp    $0x7,%eax
    ca90:	0f 8e fc f8 ff ff    	jle    c392 <func_29+0x440>
    ca96:	8b 05 20 2a 01 00    	mov    0x12a20(%rip),%eax        # 1f4bc <g_1082>
    ca9c:	83 c0 01             	add    $0x1,%eax
    ca9f:	89 05 17 2a 01 00    	mov    %eax,0x12a17(%rip)        # 1f4bc <g_1082>
    caa5:	8b 05 11 2a 01 00    	mov    0x12a11(%rip),%eax        # 1f4bc <g_1082>
    caab:	83 f8 07             	cmp    $0x7,%eax
    caae:	0f 8e b2 f8 ff ff    	jle    c366 <func_29+0x414>
    cab4:	48 8b 05 d5 29 01 00 	mov    0x129d5(%rip),%rax        # 1f490 <g_347>
    cabb:	48 83 c0 01          	add    $0x1,%rax
    cabf:	48 89 05 ca 29 01 00 	mov    %rax,0x129ca(%rip)        # 1f490 <g_347>
    cac6:	48 8b 05 c3 29 01 00 	mov    0x129c3(%rip),%rax        # 1f490 <g_347>
    cacd:	48 83 f8 01          	cmp    $0x1,%rax
    cad1:	0f 8e 28 f6 ff ff    	jle    c0ff <func_29+0x1ad>
    cad7:	48 8b 85 e8 f0 ff ff 	mov    -0xf18(%rbp),%rax
    cade:	0f b6 d8             	movzbl %al,%ebx
    cae1:	0f b6 05 b5 29 01 00 	movzbl 0x129b5(%rip),%eax        # 1f49d <g_375>
    cae8:	44 0f b6 e0          	movzbl %al,%r12d
    caec:	0f b6 45 c9          	movzbl -0x37(%rbp),%eax
    caf0:	0f b6 d0             	movzbl %al,%edx
    caf3:	83 bd e4 f0 ff ff 01 	cmpl   $0x1,-0xf1c(%rbp)
    cafa:	0f 95 c0             	setne  %al
    cafd:	0f b6 c0             	movzbl %al,%eax
    cb00:	39 c2                	cmp    %eax,%edx
    cb02:	0f 9f c0             	setg   %al
    cb05:	44 0f b6 e8          	movzbl %al,%r13d
    cb09:	48 8b 05 18 53 01 00 	mov    0x15318(%rip),%rax        # 21e28 <g_577>
    cb10:	48 8b 00             	mov    (%rax),%rax
    cb13:	48 8b 00             	mov    (%rax),%rax
    cb16:	48 8b 00             	mov    (%rax),%rax
    cb19:	48 8b 00             	mov    (%rax),%rax
    cb1c:	0f b6 00             	movzbl (%rax),%eax
    cb1f:	0f b6 d0             	movzbl %al,%edx
    cb22:	48 83 bd e8 f0 ff ff 	cmpq   $0x0,-0xf18(%rbp)
    cb29:	00 
    cb2a:	75 08                	jne    cb34 <func_29+0xbe2>
    cb2c:	0f b6 45 c9          	movzbl -0x37(%rbp),%eax
    cb30:	84 c0                	test   %al,%al
    cb32:	74 07                	je     cb3b <func_29+0xbe9>
    cb34:	b8 01 00 00 00       	mov    $0x1,%eax
    cb39:	eb 05                	jmp    cb40 <func_29+0xbee>
    cb3b:	b8 00 00 00 00       	mov    $0x0,%eax
    cb40:	0f b6 c0             	movzbl %al,%eax
    cb43:	89 d6                	mov    %edx,%esi
    cb45:	89 c7                	mov    %eax,%edi
    cb47:	e8 47 d0 ff ff       	callq  9b93 <safe_mul_func_uint8_t_u_u>
    cb4c:	0f b6 c0             	movzbl %al,%eax
    cb4f:	44 21 e8             	and    %r13d,%eax
    cb52:	41 39 c4             	cmp    %eax,%r12d
    cb55:	0f 9f c0             	setg   %al
    cb58:	0f b6 c0             	movzbl %al,%eax
    cb5b:	89 de                	mov    %ebx,%esi
    cb5d:	89 c7                	mov    %eax,%edi
    cb5f:	e8 77 d0 ff ff       	callq  9bdb <safe_div_func_uint8_t_u_u>
    cb64:	0f be d8             	movsbl %al,%ebx
    cb67:	48 8b 85 e8 f0 ff ff 	mov    -0xf18(%rbp),%rax
    cb6e:	44 0f be e0          	movsbl %al,%r12d
    cb72:	be 04 00 00 00       	mov    $0x4,%esi
    cb77:	bf 3e 00 00 00       	mov    $0x3e,%edi
    cb7c:	e8 eb c7 ff ff       	callq  936c <safe_rshift_func_int8_t_s_u>
    cb81:	0f be d0             	movsbl %al,%edx
    cb84:	8b 85 e4 f0 ff ff    	mov    -0xf1c(%rbp),%eax
    cb8a:	0f b7 c0             	movzwl %ax,%eax
    cb8d:	89 d6                	mov    %edx,%esi
    cb8f:	89 c7                	mov    %eax,%edi
    cb91:	e8 70 d2 ff ff       	callq  9e06 <safe_lshift_func_uint16_t_u_u>
    cb96:	44 0f be e8          	movsbl %al,%r13d
    cb9a:	be 0a 00 00 00       	mov    $0xa,%esi
    cb9f:	bf 00 00 00 00       	mov    $0x0,%edi
    cba4:	e8 5d d2 ff ff       	callq  9e06 <safe_lshift_func_uint16_t_u_u>
    cba9:	0f b7 c0             	movzwl %ax,%eax
    cbac:	89 85 44 f4 ff ff    	mov    %eax,-0xbbc(%rbp)
    cbb2:	8b 85 44 f4 ff ff    	mov    -0xbbc(%rbp),%eax
    cbb8:	0f be c0             	movsbl %al,%eax
    cbbb:	44 89 ee             	mov    %r13d,%esi
    cbbe:	89 c7                	mov    %eax,%edi
    cbc0:	e8 2d c6 ff ff       	callq  91f2 <safe_sub_func_int8_t_s_s>
    cbc5:	0f be c0             	movsbl %al,%eax
    cbc8:	44 89 e6             	mov    %r12d,%esi
    cbcb:	89 c7                	mov    %eax,%edi
    cbcd:	e8 02 c6 ff ff       	callq  91d4 <safe_add_func_int8_t_s_s>
    cbd2:	0f be c0             	movsbl %al,%eax
    cbd5:	89 de                	mov    %ebx,%esi
    cbd7:	89 c7                	mov    %eax,%edi
    cbd9:	e8 14 c6 ff ff       	callq  91f2 <safe_sub_func_int8_t_s_s>
    cbde:	84 c0                	test   %al,%al
    cbe0:	0f 84 e6 03 00 00    	je     cfcc <func_29+0x107a>
    cbe6:	48 8d 05 9b 65 01 00 	lea    0x1659b(%rip),%rax        # 23188 <g_110>
    cbed:	48 89 85 b8 f3 ff ff 	mov    %rax,-0xc48(%rbp)
    cbf4:	48 8d 05 85 52 01 00 	lea    0x15285(%rip),%rax        # 21e80 <g_811>
    cbfb:	48 89 85 c0 f3 ff ff 	mov    %rax,-0xc40(%rbp)
    cc02:	48 c7 85 c8 f3 ff ff 	movq   $0x0,-0xc38(%rbp)
    cc09:	00 00 00 00 
    cc0d:	c7 85 c4 f1 ff ff ed 	movl   $0xcc8540ed,-0xe3c(%rbp)
    cc14:	40 85 cc 
    cc17:	48 8d 85 00 f9 ff ff 	lea    -0x700(%rbp),%rax
    cc1e:	48 8d 15 db 3d 01 00 	lea    0x13ddb(%rip),%rdx        # 20a00 <g_1964+0x1160>
    cc25:	b9 64 00 00 00       	mov    $0x64,%ecx
    cc2a:	48 89 c7             	mov    %rax,%rdi
    cc2d:	48 89 d6             	mov    %rdx,%rsi
    cc30:	f3 48 a5             	rep movsq %ds:(%rsi),%es:(%rdi)
    cc33:	c7 85 80 f7 ff ff ff 	movl   $0xffffffff,-0x880(%rbp)
    cc3a:	ff ff ff 
    cc3d:	c7 85 84 f7 ff ff f4 	movl   $0x96b08cf4,-0x87c(%rbp)
    cc44:	8c b0 96 
    cc47:	c7 85 88 f7 ff ff dd 	movl   $0x821239dd,-0x878(%rbp)
    cc4e:	39 12 82 
    cc51:	c7 85 8c f7 ff ff dd 	movl   $0x821239dd,-0x874(%rbp)
    cc58:	39 12 82 
    cc5b:	c7 85 90 f7 ff ff f4 	movl   $0x96b08cf4,-0x870(%rbp)
    cc62:	8c b0 96 
    cc65:	c7 85 94 f7 ff ff ff 	movl   $0xffffffff,-0x86c(%rbp)
    cc6c:	ff ff ff 
    cc6f:	c7 85 98 f7 ff ff 00 	movl   $0x0,-0x868(%rbp)
    cc76:	00 00 00 
    cc79:	c7 85 9c f7 ff ff 63 	movl   $0x99cba663,-0x864(%rbp)
    cc80:	a6 cb 99 
    cc83:	c7 85 a0 f7 ff ff dd 	movl   $0x821239dd,-0x860(%rbp)
    cc8a:	39 12 82 
    cc8d:	c7 85 a4 f7 ff ff 01 	movl   $0x1,-0x85c(%rbp)
    cc94:	00 00 00 
    cc97:	c7 85 a8 f7 ff ff 9e 	movl   $0x3dbfc19e,-0x858(%rbp)
    cc9e:	c1 bf 3d 
    cca1:	c7 85 ac f7 ff ff 01 	movl   $0x1,-0x854(%rbp)
    cca8:	00 00 00 
    ccab:	c7 85 b0 f7 ff ff 3f 	movl   $0xd3ae763f,-0x850(%rbp)
    ccb2:	76 ae d3 
    ccb5:	c7 85 b4 f7 ff ff ff 	movl   $0xffffffff,-0x84c(%rbp)
    ccbc:	ff ff ff 
    ccbf:	c7 85 b8 f7 ff ff 7c 	movl   $0xe5c5187c,-0x848(%rbp)
    ccc6:	18 c5 e5 
    ccc9:	c7 85 bc f7 ff ff c3 	movl   $0xde8f22c3,-0x844(%rbp)
    ccd0:	22 8f de 
    ccd3:	c7 85 c0 f7 ff ff d6 	movl   $0xf4103d6,-0x840(%rbp)
    ccda:	03 41 0f 
    ccdd:	c7 85 c4 f7 ff ff 0c 	movl   $0x84f94d0c,-0x83c(%rbp)
    cce4:	4d f9 84 
    cce7:	c7 85 c8 f7 ff ff 7c 	movl   $0xe5c5187c,-0x838(%rbp)
    ccee:	18 c5 e5 
    ccf1:	c7 85 cc f7 ff ff fe 	movl   $0xfffffffe,-0x834(%rbp)
    ccf8:	ff ff ff 
    ccfb:	c7 85 d0 f7 ff ff 9e 	movl   $0x3dbfc19e,-0x830(%rbp)
    cd02:	c1 bf 3d 
    cd05:	c7 85 d4 f7 ff ff c3 	movl   $0xde8f22c3,-0x82c(%rbp)
    cd0c:	22 8f de 
    cd0f:	c7 85 d8 f7 ff ff fe 	movl   $0xfffffffe,-0x828(%rbp)
    cd16:	ff ff ff 
    cd19:	c7 85 dc f7 ff ff c3 	movl   $0xde8f22c3,-0x824(%rbp)
    cd20:	22 8f de 
    cd23:	c7 85 e0 f7 ff ff 9e 	movl   $0x3dbfc19e,-0x820(%rbp)
    cd2a:	c1 bf 3d 
    cd2d:	c7 85 e4 f7 ff ff ff 	movl   $0xffffffff,-0x81c(%rbp)
    cd34:	ff ff ff 
    cd37:	c7 85 e8 f7 ff ff d6 	movl   $0xf4103d6,-0x818(%rbp)
    cd3e:	03 41 0f 
    cd41:	c7 85 ec f7 ff ff 05 	movl   $0x5,-0x814(%rbp)
    cd48:	00 00 00 
    cd4b:	c7 85 f0 f7 ff ff dd 	movl   $0x821239dd,-0x810(%rbp)
    cd52:	39 12 82 
    cd55:	c7 85 f4 f7 ff ff 09 	movl   $0x9,-0x80c(%rbp)
    cd5c:	00 00 00 
    cd5f:	c7 85 f8 f7 ff ff 0c 	movl   $0x84f94d0c,-0x808(%rbp)
    cd66:	4d f9 84 
    cd69:	c7 85 fc f7 ff ff ff 	movl   $0xffffffff,-0x804(%rbp)
    cd70:	ff ff ff 
    cd73:	c7 85 00 f8 ff ff dd 	movl   $0x821239dd,-0x800(%rbp)
    cd7a:	39 12 82 
    cd7d:	c7 85 04 f8 ff ff 00 	movl   $0x0,-0x7fc(%rbp)
    cd84:	00 00 00 
    cd87:	c7 85 08 f8 ff ff dd 	movl   $0xfb61edd,-0x7f8(%rbp)
    cd8e:	1e b6 0f 
    cd91:	c7 85 0c f8 ff ff dd 	movl   $0xfb61edd,-0x7f4(%rbp)
    cd98:	1e b6 0f 
    cd9b:	c7 85 10 f8 ff ff c3 	movl   $0xde8f22c3,-0x7f0(%rbp)
    cda2:	22 8f de 
    cda5:	c7 85 14 f8 ff ff fe 	movl   $0xfffffffe,-0x7ec(%rbp)
    cdac:	ff ff ff 
    cdaf:	c7 85 18 f8 ff ff d6 	movl   $0xf4103d6,-0x7e8(%rbp)
    cdb6:	03 41 0f 
    cdb9:	c7 85 1c f8 ff ff 09 	movl   $0x9,-0x7e4(%rbp)
    cdc0:	00 00 00 
    cdc3:	c7 85 18 f1 ff ff 00 	movl   $0x0,-0xee8(%rbp)
    cdca:	00 00 00 
    cdcd:	eb 71                	jmp    ce40 <func_29+0xeee>
    cdcf:	c7 85 1c f1 ff ff 00 	movl   $0x0,-0xee4(%rbp)
    cdd6:	00 00 00 
    cdd9:	eb 55                	jmp    ce30 <func_29+0xede>
    cddb:	c7 85 20 f1 ff ff 00 	movl   $0x0,-0xee0(%rbp)
    cde2:	00 00 00 
    cde5:	eb 39                	jmp    ce20 <func_29+0xece>
    cde7:	8b 85 20 f1 ff ff    	mov    -0xee0(%rbp),%eax
    cded:	48 63 d0             	movslq %eax,%rdx
    cdf0:	8b 85 1c f1 ff ff    	mov    -0xee4(%rbp),%eax
    cdf6:	48 98                	cltq   
    cdf8:	8b 8d 18 f1 ff ff    	mov    -0xee8(%rbp),%ecx
    cdfe:	48 63 c9             	movslq %ecx,%rcx
    ce01:	48 01 c9             	add    %rcx,%rcx
    ce04:	48 01 ca             	add    %rcx,%rdx
    ce07:	48 01 d0             	add    %rdx,%rax
    ce0a:	48 8d 15 7f 26 01 00 	lea    0x1267f(%rip),%rdx        # 1f490 <g_347>
    ce11:	48 89 94 c5 40 f6 ff 	mov    %rdx,-0x9c0(%rbp,%rax,8)
    ce18:	ff 
    ce19:	83 85 20 f1 ff ff 01 	addl   $0x1,-0xee0(%rbp)
    ce20:	83 bd 20 f1 ff ff 00 	cmpl   $0x0,-0xee0(%rbp)
    ce27:	7e be                	jle    cde7 <func_29+0xe95>
    ce29:	83 85 1c f1 ff ff 01 	addl   $0x1,-0xee4(%rbp)
    ce30:	83 bd 1c f1 ff ff 01 	cmpl   $0x1,-0xee4(%rbp)
    ce37:	7e a2                	jle    cddb <func_29+0xe89>
    ce39:	83 85 18 f1 ff ff 01 	addl   $0x1,-0xee8(%rbp)
    ce40:	83 bd 18 f1 ff ff 00 	cmpl   $0x0,-0xee8(%rbp)
    ce47:	7e 86                	jle    cdcf <func_29+0xe7d>
    ce49:	48 8b 85 c0 f3 ff ff 	mov    -0xc40(%rbp),%rax
    ce50:	48 8b 95 b8 f3 ff ff 	mov    -0xc48(%rbp),%rdx
    ce57:	48 89 10             	mov    %rdx,(%rax)
    ce5a:	8b 9d e4 f0 ff ff    	mov    -0xf1c(%rbp),%ebx
    ce60:	44 8b a5 e4 f0 ff ff 	mov    -0xf1c(%rbp),%r12d
    ce67:	48 8b 85 e8 f0 ff ff 	mov    -0xf18(%rbp),%rax
    ce6e:	44 0f b7 e8          	movzwl %ax,%r13d
    ce72:	8b 85 c4 f1 ff ff    	mov    -0xe3c(%rbp),%eax
    ce78:	4c 63 f0             	movslq %eax,%r14
    ce7b:	0f b6 45 c7          	movzbl -0x39(%rbp),%eax
    ce7f:	0f b6 c0             	movzbl %al,%eax
    ce82:	89 c6                	mov    %eax,%esi
    ce84:	bf 01 00 00 00       	mov    $0x1,%edi
    ce89:	e8 05 cd ff ff       	callq  9b93 <safe_mul_func_uint8_t_u_u>
    ce8e:	0f be c0             	movsbl %al,%eax
    ce91:	8b 95 e4 f0 ff ff    	mov    -0xf1c(%rbp),%edx
    ce97:	89 d6                	mov    %edx,%esi
    ce99:	89 c7                	mov    %eax,%edi
    ce9b:	e8 cc c4 ff ff       	callq  936c <safe_rshift_func_int8_t_s_u>
    cea0:	48 0f be c0          	movsbq %al,%rax
    cea4:	4c 89 f6             	mov    %r14,%rsi
    cea7:	48 89 c7             	mov    %rax,%rdi
    ceaa:	e8 f9 c9 ff ff       	callq  98a8 <safe_sub_func_int64_t_s_s>
    ceaf:	0f b7 c0             	movzwl %ax,%eax
    ceb2:	44 89 ee             	mov    %r13d,%esi
    ceb5:	89 c7                	mov    %eax,%edi
    ceb7:	e8 63 ce ff ff       	callq  9d1f <safe_sub_func_uint16_t_u_u>
    cebc:	0f b7 d0             	movzwl %ax,%edx
    cebf:	48 8b 85 c8 f3 ff ff 	mov    -0xc38(%rbp),%rax
    cec6:	48 89 85 38 f2 ff ff 	mov    %rax,-0xdc8(%rbp)
    cecd:	48 8b 85 38 f2 ff ff 	mov    -0xdc8(%rbp),%rax
    ced4:	48 3b 85 c8 f3 ff ff 	cmp    -0xc38(%rbp),%rax
    cedb:	0f 94 c0             	sete   %al
    cede:	0f b6 c8             	movzbl %al,%ecx
    cee1:	48 8b 05 40 4f 01 00 	mov    0x14f40(%rip),%rax        # 21e28 <g_577>
    cee8:	48 8b 00             	mov    (%rax),%rax
    ceeb:	48 8b 00             	mov    (%rax),%rax
    ceee:	48 8b 00             	mov    (%rax),%rax
    cef1:	48 8b 00             	mov    (%rax),%rax
    cef4:	0f b6 00             	movzbl (%rax),%eax
    cef7:	89 c6                	mov    %eax,%esi
    cef9:	8b 85 c4 f1 ff ff    	mov    -0xe3c(%rbp),%eax
    ceff:	31 c6                	xor    %eax,%esi
    cf01:	48 8b 05 20 4f 01 00 	mov    0x14f20(%rip),%rax        # 21e28 <g_577>
    cf08:	48 8b 00             	mov    (%rax),%rax
    cf0b:	48 8b 00             	mov    (%rax),%rax
    cf0e:	48 8b 00             	mov    (%rax),%rax
    cf11:	48 8b 00             	mov    (%rax),%rax
    cf14:	40 88 30             	mov    %sil,(%rax)
    cf17:	0f b6 00             	movzbl (%rax),%eax
    cf1a:	0f b6 c0             	movzbl %al,%eax
    cf1d:	39 c1                	cmp    %eax,%ecx
    cf1f:	0f 9c c0             	setl   %al
    cf22:	0f b6 c8             	movzbl %al,%ecx
    cf25:	8b 85 4c f4 ff ff    	mov    -0xbb4(%rbp),%eax
    cf2b:	21 c8                	and    %ecx,%eax
    cf2d:	89 85 4c f4 ff ff    	mov    %eax,-0xbb4(%rbp)
    cf33:	8b 85 4c f4 ff ff    	mov    -0xbb4(%rbp),%eax
    cf39:	39 85 e4 f0 ff ff    	cmp    %eax,-0xf1c(%rbp)
    cf3f:	0f 97 c0             	seta   %al
    cf42:	89 c1                	mov    %eax,%ecx
    cf44:	48 8b 05 65 4f 01 00 	mov    0x14f65(%rip),%rax        # 21eb0 <g_1343>
    cf4b:	48 39 85 40 f2 ff ff 	cmp    %rax,-0xdc0(%rbp)
    cf52:	0f 94 c0             	sete   %al
    cf55:	0f b6 c0             	movzbl %al,%eax
    cf58:	48 39 85 e8 f0 ff ff 	cmp    %rax,-0xf18(%rbp)
    cf5f:	0f 9c c0             	setl   %al
    cf62:	31 c8                	xor    %ecx,%eax
    cf64:	0f b6 c0             	movzbl %al,%eax
    cf67:	89 d6                	mov    %edx,%esi
    cf69:	89 c7                	mov    %eax,%edi
    cf6b:	e8 4e cd ff ff       	callq  9cbe <safe_rshift_func_uint8_t_u_u>
    cf70:	0f b6 c0             	movzbl %al,%eax
    cf73:	44 89 e6             	mov    %r12d,%esi
    cf76:	89 c7                	mov    %eax,%edi
    cf78:	e8 39 c6 ff ff       	callq  95b6 <safe_add_func_int32_t_s_s>
    cf7d:	48 98                	cltq   
    cf7f:	48 89 de             	mov    %rbx,%rsi
    cf82:	48 89 c7             	mov    %rax,%rdi
    cf85:	e8 a4 d0 ff ff       	callq  a02e <safe_add_func_uint64_t_u_u>
    cf8a:	89 c2                	mov    %eax,%edx
    cf8c:	8b 85 04 f1 ff ff    	mov    -0xefc(%rbp),%eax
    cf92:	31 d0                	xor    %edx,%eax
    cf94:	89 85 04 f1 ff ff    	mov    %eax,-0xefc(%rbp)
    cf9a:	0f b6 45 c9          	movzbl -0x37(%rbp),%eax
    cf9e:	0f b6 c0             	movzbl %al,%eax
    cfa1:	33 85 e4 f0 ff ff    	xor    -0xf1c(%rbp),%eax
    cfa7:	89 85 44 f4 ff ff    	mov    %eax,-0xbbc(%rbp)
    cfad:	8b 85 f4 f7 ff ff    	mov    -0x80c(%rbp),%eax
    cfb3:	83 c0 01             	add    $0x1,%eax
    cfb6:	89 85 f4 f7 ff ff    	mov    %eax,-0x80c(%rbp)
    cfbc:	48 c7 05 b9 24 01 00 	movq   $0xfffffffffffffff9,0x124b9(%rip)        # 1f480 <g_293>
    cfc3:	f9 ff ff ff 
    cfc7:	e9 d1 17 00 00       	jmpq   e79d <func_29+0x284b>
    cfcc:	c7 85 44 f1 ff ff 01 	movl   $0x1,-0xebc(%rbp)
    cfd3:	00 00 00 
    cfd6:	48 8d 05 b3 24 01 00 	lea    0x124b3(%rip),%rax        # 1f490 <g_347>
    cfdd:	48 89 85 70 f2 ff ff 	mov    %rax,-0xd90(%rbp)
    cfe4:	48 c7 85 f8 f1 ff ff 	movq   $0x0,-0xe08(%rbp)
    cfeb:	00 00 00 00 
    cfef:	48 8d 05 2a 4e 01 00 	lea    0x14e2a(%rip),%rax        # 21e20 <g_578>
    cff6:	48 89 85 00 f5 ff ff 	mov    %rax,-0xb00(%rbp)
    cffd:	48 8d 05 1c 4e 01 00 	lea    0x14e1c(%rip),%rax        # 21e20 <g_578>
    d004:	48 89 85 08 f5 ff ff 	mov    %rax,-0xaf8(%rbp)
    d00b:	48 8d 05 0e 4e 01 00 	lea    0x14e0e(%rip),%rax        # 21e20 <g_578>
    d012:	48 89 85 10 f5 ff ff 	mov    %rax,-0xaf0(%rbp)
    d019:	48 8d 05 00 4e 01 00 	lea    0x14e00(%rip),%rax        # 21e20 <g_578>
    d020:	48 89 85 18 f5 ff ff 	mov    %rax,-0xae8(%rbp)
    d027:	48 8d 05 f2 4d 01 00 	lea    0x14df2(%rip),%rax        # 21e20 <g_578>
    d02e:	48 89 85 20 f5 ff ff 	mov    %rax,-0xae0(%rbp)
    d035:	48 8d 05 e4 4d 01 00 	lea    0x14de4(%rip),%rax        # 21e20 <g_578>
    d03c:	48 89 85 28 f5 ff ff 	mov    %rax,-0xad8(%rbp)
    d043:	48 8d 05 d6 4d 01 00 	lea    0x14dd6(%rip),%rax        # 21e20 <g_578>
    d04a:	48 89 85 78 f2 ff ff 	mov    %rax,-0xd88(%rbp)
    d051:	c7 85 80 f4 ff ff ff 	movl   $0xffffffff,-0xb80(%rbp)
    d058:	ff ff ff 
    d05b:	c7 85 84 f4 ff ff 00 	movl   $0x0,-0xb7c(%rbp)
    d062:	00 00 00 
    d065:	c7 85 88 f4 ff ff ff 	movl   $0xffffffff,-0xb78(%rbp)
    d06c:	ff ff ff 
    d06f:	c7 85 8c f4 ff ff 00 	movl   $0x0,-0xb74(%rbp)
    d076:	00 00 00 
    d079:	c7 85 90 f4 ff ff ff 	movl   $0xffffffff,-0xb70(%rbp)
    d080:	ff ff ff 
    d083:	c7 85 94 f4 ff ff 00 	movl   $0x0,-0xb6c(%rbp)
    d08a:	00 00 00 
    d08d:	c7 85 98 f4 ff ff ff 	movl   $0xffffffff,-0xb68(%rbp)
    d094:	ff ff ff 
    d097:	c7 85 9c f4 ff ff 00 	movl   $0x0,-0xb64(%rbp)
    d09e:	00 00 00 
    d0a1:	48 8d 05 30 4d 01 00 	lea    0x14d30(%rip),%rax        # 21dd8 <g_399+0x18>
    d0a8:	48 89 85 00 f2 ff ff 	mov    %rax,-0xe00(%rbp)
    d0af:	48 8d 85 00 f2 ff ff 	lea    -0xe00(%rbp),%rax
    d0b6:	48 89 85 80 f2 ff ff 	mov    %rax,-0xd80(%rbp)
    d0bd:	48 8d 05 9c 61 01 00 	lea    0x1619c(%rip),%rax        # 23260 <g_649>
    d0c4:	48 89 85 88 f2 ff ff 	mov    %rax,-0xd78(%rbp)
    d0cb:	48 8d 05 34 23 01 00 	lea    0x12334(%rip),%rax        # 1f406 <g_125>
    d0d2:	48 89 85 90 f2 ff ff 	mov    %rax,-0xd70(%rbp)
    d0d9:	48 c7 85 98 f2 ff ff 	movq   $0x0,-0xd68(%rbp)
    d0e0:	00 00 00 00 
    d0e4:	48 8d 85 e0 f1 ff ff 	lea    -0xe20(%rbp),%rax
    d0eb:	48 89 85 a0 f2 ff ff 	mov    %rax,-0xd60(%rbp)
    d0f2:	44 8b a5 44 f1 ff ff 	mov    -0xebc(%rbp),%r12d
    d0f9:	8b 85 44 f4 ff ff    	mov    -0xbbc(%rbp),%eax
    d0ff:	48 63 d8             	movslq %eax,%rbx
    d102:	48 8b 85 48 f2 ff ff 	mov    -0xdb8(%rbp),%rax
    d109:	48 89 05 a8 4d 01 00 	mov    %rax,0x14da8(%rip)        # 21eb8 <g_1363>
    d110:	8b 85 44 f1 ff ff    	mov    -0xebc(%rbp),%eax
    d116:	0f be d0             	movsbl %al,%edx
    d119:	48 8b 85 f8 f1 ff ff 	mov    -0xe08(%rbp),%rax
    d120:	48 85 c0             	test   %rax,%rax
    d123:	0f 95 c0             	setne  %al
    d126:	0f b6 c0             	movzbl %al,%eax
    d129:	39 85 38 f1 ff ff    	cmp    %eax,-0xec8(%rbp)
    d12f:	0f 93 c0             	setae  %al
    d132:	0f b6 c8             	movzbl %al,%ecx
    d135:	8b 85 54 f4 ff ff    	mov    -0xbac(%rbp),%eax
    d13b:	85 c0                	test   %eax,%eax
    d13d:	0f 94 c0             	sete   %al
    d140:	0f b6 c0             	movzbl %al,%eax
    d143:	23 85 e4 f0 ff ff    	and    -0xf1c(%rbp),%eax
    d149:	39 c1                	cmp    %eax,%ecx
    d14b:	0f 95 c0             	setne  %al
    d14e:	0f b6 c0             	movzbl %al,%eax
    d151:	89 d6                	mov    %edx,%esi
    d153:	89 c7                	mov    %eax,%edi
    d155:	e8 b8 c0 ff ff       	callq  9212 <safe_mul_func_int8_t_s_s>
    d15a:	0f be d0             	movsbl %al,%edx
    d15d:	8b 85 04 f1 ff ff    	mov    -0xefc(%rbp),%eax
    d163:	39 c2                	cmp    %eax,%edx
    d165:	0f 9d c0             	setge  %al
    d168:	0f b6 c0             	movzbl %al,%eax
    d16b:	48 89 de             	mov    %rbx,%rsi
    d16e:	48 89 c7             	mov    %rax,%rdi
    d171:	e8 0a cf ff ff       	callq  a080 <safe_mod_func_uint64_t_u_u>
    d176:	4c 09 e0             	or     %r12,%rax
    d179:	48 85 c0             	test   %rax,%rax
    d17c:	0f 84 ff 0f 00 00    	je     e181 <func_29+0x222f>
    d182:	48 b8 01 bc 94 df b9 	movabs $0xe59d42b9df94bc01,%rax
    d189:	42 9d e5 
    d18c:	48 89 85 28 f2 ff ff 	mov    %rax,-0xdd8(%rbp)
    d193:	48 8d 85 04 f1 ff ff 	lea    -0xefc(%rbp),%rax
    d19a:	48 89 85 10 f3 ff ff 	mov    %rax,-0xcf0(%rbp)
    d1a1:	c7 85 08 f2 ff ff 04 	movl   $0x6088a104,-0xdf8(%rbp)
    d1a8:	a1 88 60 
    d1ab:	c7 85 d0 f4 ff ff 20 	movl   $0x57727420,-0xb30(%rbp)
    d1b2:	74 72 57 
    d1b5:	c7 85 d4 f4 ff ff 20 	movl   $0x57727420,-0xb2c(%rbp)
    d1bc:	74 72 57 
    d1bf:	c7 85 d8 f4 ff ff 20 	movl   $0x57727420,-0xb28(%rbp)
    d1c6:	74 72 57 
    d1c9:	c7 85 dc f4 ff ff 20 	movl   $0x57727420,-0xb24(%rbp)
    d1d0:	74 72 57 
    d1d3:	c7 85 e0 f4 ff ff 20 	movl   $0x57727420,-0xb20(%rbp)
    d1da:	74 72 57 
    d1dd:	c7 85 e4 f4 ff ff 20 	movl   $0x57727420,-0xb1c(%rbp)
    d1e4:	74 72 57 
    d1e7:	c7 85 e8 f4 ff ff 20 	movl   $0x57727420,-0xb18(%rbp)
    d1ee:	74 72 57 
    d1f1:	c7 85 ec f4 ff ff 20 	movl   $0x57727420,-0xb14(%rbp)
    d1f8:	74 72 57 
    d1fb:	c7 85 f0 f4 ff ff 20 	movl   $0x57727420,-0xb10(%rbp)
    d202:	74 72 57 
    d205:	c7 85 f4 f4 ff ff 20 	movl   $0x57727420,-0xb0c(%rbp)
    d20c:	74 72 57 
    d20f:	c7 85 5c f1 ff ff fb 	movl   $0xee30c4fb,-0xea4(%rbp)
    d216:	c4 30 ee 
    d219:	c7 85 60 f1 ff ff 05 	movl   $0x5,-0xea0(%rbp)
    d220:	00 00 00 
    d223:	c7 85 64 f1 ff ff 04 	movl   $0x4,-0xe9c(%rbp)
    d22a:	00 00 00 
    d22d:	c7 85 10 f2 ff ff fe 	movl   $0xfffffffe,-0xdf0(%rbp)
    d234:	ff ff ff 
    d237:	c7 85 68 f1 ff ff 01 	movl   $0x1,-0xe98(%rbp)
    d23e:	00 00 00 
    d241:	c7 85 6c f1 ff ff 04 	movl   $0x4,-0xe94(%rbp)
    d248:	00 00 00 
    d24b:	c7 85 70 f1 ff ff ff 	movl   $0xffffffff,-0xe90(%rbp)
    d252:	ff ff ff 
    d255:	c7 85 74 f1 ff ff 08 	movl   $0x8,-0xe8c(%rbp)
    d25c:	00 00 00 
    d25f:	c7 85 78 f1 ff ff ff 	movl   $0xffffffff,-0xe88(%rbp)
    d266:	ff ff ff 
    d269:	c7 85 7c f1 ff ff e3 	movl   $0x405589e3,-0xe84(%rbp)
    d270:	89 55 40 
    d273:	c7 85 80 f1 ff ff 00 	movl   $0x0,-0xe80(%rbp)
    d27a:	00 00 00 
    d27d:	66 c7 85 fe f0 ff ff 	movw   $0x57af,-0xf02(%rbp)
    d284:	af 57 
    d286:	c7 85 84 f1 ff ff 14 	movl   $0xe9f18914,-0xe7c(%rbp)
    d28d:	89 f1 e9 
    d290:	c7 85 60 f4 ff ff ee 	movl   $0x2627bfee,-0xba0(%rbp)
    d297:	bf 27 26 
    d29a:	c7 85 64 f4 ff ff ee 	movl   $0x2627bfee,-0xb9c(%rbp)
    d2a1:	bf 27 26 
    d2a4:	c7 85 68 f4 ff ff ee 	movl   $0x2627bfee,-0xb98(%rbp)
    d2ab:	bf 27 26 
    d2ae:	c7 85 6c f4 ff ff ee 	movl   $0x2627bfee,-0xb94(%rbp)
    d2b5:	bf 27 26 
    d2b8:	c7 85 70 f4 ff ff ee 	movl   $0x2627bfee,-0xb90(%rbp)
    d2bf:	bf 27 26 
    d2c2:	c7 85 74 f4 ff ff ee 	movl   $0x2627bfee,-0xb8c(%rbp)
    d2c9:	bf 27 26 
    d2cc:	c7 85 78 f4 ff ff ee 	movl   $0x2627bfee,-0xb88(%rbp)
    d2d3:	bf 27 26 
    d2d6:	c6 05 bf 21 01 00 11 	movb   $0x11,0x121bf(%rip)        # 1f49c <g_373>
    d2dd:	e9 dc 00 00 00       	jmpq   d3be <func_29+0x146c>
    d2e2:	c6 05 bb 21 01 00 04 	movb   $0x4,0x121bb(%rip)        # 1f4a4 <g_565>
    d2e9:	e9 93 00 00 00       	jmpq   d381 <func_29+0x142f>
    d2ee:	48 8d 05 2f 21 01 00 	lea    0x1212f(%rip),%rax        # 1f424 <g_246>
    d2f5:	48 89 85 a8 f3 ff ff 	mov    %rax,-0xc58(%rbp)
    d2fc:	48 8d 05 1d 25 01 00 	lea    0x1251d(%rip),%rax        # 1f820 <g_1201>
    d303:	48 89 85 b0 f3 ff ff 	mov    %rax,-0xc50(%rbp)
    d30a:	48 8d 05 4f 5f 01 00 	lea    0x15f4f(%rip),%rax        # 23260 <g_649>
    d311:	48 39 85 50 f2 ff ff 	cmp    %rax,-0xdb0(%rbp)
    d318:	0f 94 c0             	sete   %al
    d31b:	0f b6 d0             	movzbl %al,%edx
    d31e:	48 8b 85 a8 f3 ff ff 	mov    -0xc58(%rbp),%rax
    d325:	89 10                	mov    %edx,(%rax)
    d327:	48 83 ad 28 f2 ff ff 	subq   $0x1,-0xdd8(%rbp)
    d32e:	01 
    d32f:	c7 05 eb 20 01 00 00 	movl   $0x0,0x120eb(%rip)        # 1f424 <g_246>
    d336:	00 00 00 
    d339:	eb 18                	jmp    d353 <func_29+0x1401>
    d33b:	83 bd 44 f1 ff ff 00 	cmpl   $0x0,-0xebc(%rbp)
    d342:	75 1c                	jne    d360 <func_29+0x140e>
    d344:	8b 05 da 20 01 00    	mov    0x120da(%rip),%eax        # 1f424 <g_246>
    d34a:	83 c0 01             	add    $0x1,%eax
    d34d:	89 05 d1 20 01 00    	mov    %eax,0x120d1(%rip)        # 1f424 <g_246>
    d353:	8b 05 cb 20 01 00    	mov    0x120cb(%rip),%eax        # 1f424 <g_246>
    d359:	83 f8 16             	cmp    $0x16,%eax
    d35c:	7e dd                	jle    d33b <func_29+0x13e9>
    d35e:	eb 01                	jmp    d361 <func_29+0x140f>
    d360:	90                   	nop
    d361:	0f b7 05 ba 20 01 00 	movzwl 0x120ba(%rip),%eax        # 1f422 <g_194>
    d368:	66 85 c0             	test   %ax,%ax
    d36b:	0f 85 0a 0e 00 00    	jne    e17b <func_29+0x2229>
    d371:	0f b6 05 2c 21 01 00 	movzbl 0x1212c(%rip),%eax        # 1f4a4 <g_565>
    d378:	83 e8 01             	sub    $0x1,%eax
    d37b:	88 05 23 21 01 00    	mov    %al,0x12123(%rip)        # 1f4a4 <g_565>
    d381:	0f b6 05 1c 21 01 00 	movzbl 0x1211c(%rip),%eax        # 1f4a4 <g_565>
    d388:	3c 01                	cmp    $0x1,%al
    d38a:	0f 86 5e ff ff ff    	jbe    d2ee <func_29+0x139c>
    d390:	0f b6 05 82 20 01 00 	movzbl 0x12082(%rip),%eax        # 1f419 <g_167>
    d397:	84 c0                	test   %al,%al
    d399:	74 05                	je     d3a0 <func_29+0x144e>
    d39b:	e9 52 fd ff ff       	jmpq   d0f2 <func_29+0x11a0>
    d3a0:	0f b6 05 f5 20 01 00 	movzbl 0x120f5(%rip),%eax        # 1f49c <g_373>
    d3a7:	66 98                	cbtw   
    d3a9:	0f b7 c0             	movzwl %ax,%eax
    d3ac:	be 07 00 00 00       	mov    $0x7,%esi
    d3b1:	89 c7                	mov    %eax,%edi
    d3b3:	e8 67 c9 ff ff       	callq  9d1f <safe_sub_func_uint16_t_u_u>
    d3b8:	88 05 de 20 01 00    	mov    %al,0x120de(%rip)        # 1f49c <g_373>
    d3be:	0f b6 05 d7 20 01 00 	movzbl 0x120d7(%rip),%eax        # 1f49c <g_373>
    d3c5:	3c 09                	cmp    $0x9,%al
    d3c7:	0f 8f 15 ff ff ff    	jg     d2e2 <func_29+0x1390>
    d3cd:	48 c7 05 a8 20 01 00 	movq   $0x0,0x120a8(%rip)        # 1f480 <g_293>
    d3d4:	00 00 00 00 
    d3d8:	e9 c8 09 00 00       	jmpq   dda5 <func_29+0x1e53>
    d3dd:	48 8d 05 c0 20 01 00 	lea    0x120c0(%rip),%rax        # 1f4a4 <g_565>
    d3e4:	48 89 85 20 f2 ff ff 	mov    %rax,-0xde0(%rbp)
    d3eb:	c7 85 18 f2 ff ff 3e 	movl   $0x5bbb353e,-0xde8(%rbp)
    d3f2:	35 bb 5b 
    d3f5:	c7 85 8c f1 ff ff 05 	movl   $0x5,-0xe74(%rbp)
    d3fc:	00 00 00 
    d3ff:	c7 85 90 f1 ff ff 00 	movl   $0x0,-0xe70(%rbp)
    d406:	00 00 00 
    d409:	c7 85 94 f1 ff ff 03 	movl   $0x3,-0xe6c(%rbp)
    d410:	00 00 00 
    d413:	c7 85 98 f1 ff ff fa 	movl   $0xfffffffa,-0xe68(%rbp)
    d41a:	ff ff ff 
    d41d:	c7 85 9c f1 ff ff f7 	movl   $0xed888cf7,-0xe64(%rbp)
    d424:	8c 88 ed 
    d427:	c7 85 a0 f1 ff ff 94 	movl   $0x6c732d94,-0xe60(%rbp)
    d42e:	2d 73 6c 
    d431:	c7 85 a4 f1 ff ff 01 	movl   $0x1,-0xe5c(%rbp)
    d438:	00 00 00 
    d43b:	c7 85 a8 f1 ff ff 07 	movl   $0xfece4907,-0xe58(%rbp)
    d442:	49 ce fe 
    d445:	66 c7 85 fc f0 ff ff 	movw   $0xfff7,-0xf04(%rbp)
    d44c:	f7 ff 
    d44e:	48 8d 05 67 20 01 00 	lea    0x12067(%rip),%rax        # 1f4bc <g_1082>
    d455:	48 89 85 30 f3 ff ff 	mov    %rax,-0xcd0(%rbp)
    d45c:	48 8d 85 80 f4 ff ff 	lea    -0xb80(%rbp),%rax
    d463:	48 83 c0 14          	add    $0x14,%rax
    d467:	48 89 85 38 f3 ff ff 	mov    %rax,-0xcc8(%rbp)
    d46e:	48 8d 85 10 f2 ff ff 	lea    -0xdf0(%rbp),%rax
    d475:	48 89 85 30 f5 ff ff 	mov    %rax,-0xad0(%rbp)
    d47c:	48 c7 85 38 f5 ff ff 	movq   $0x0,-0xac8(%rbp)
    d483:	00 00 00 00 
    d487:	48 8d 85 10 f2 ff ff 	lea    -0xdf0(%rbp),%rax
    d48e:	48 89 85 40 f5 ff ff 	mov    %rax,-0xac0(%rbp)
    d495:	48 8d 85 10 f2 ff ff 	lea    -0xdf0(%rbp),%rax
    d49c:	48 89 85 48 f5 ff ff 	mov    %rax,-0xab8(%rbp)
    d4a3:	48 c7 85 50 f5 ff ff 	movq   $0x0,-0xab0(%rbp)
    d4aa:	00 00 00 00 
    d4ae:	48 8d 85 10 f2 ff ff 	lea    -0xdf0(%rbp),%rax
    d4b5:	48 89 85 58 f5 ff ff 	mov    %rax,-0xaa8(%rbp)
    d4bc:	48 8d 85 10 f2 ff ff 	lea    -0xdf0(%rbp),%rax
    d4c3:	48 89 85 60 f5 ff ff 	mov    %rax,-0xaa0(%rbp)
    d4ca:	48 c7 85 68 f5 ff ff 	movq   $0x0,-0xa98(%rbp)
    d4d1:	00 00 00 00 
    d4d5:	48 8d 85 10 f2 ff ff 	lea    -0xdf0(%rbp),%rax
    d4dc:	48 89 85 70 f5 ff ff 	mov    %rax,-0xa90(%rbp)
    d4e3:	48 8d 85 10 f2 ff ff 	lea    -0xdf0(%rbp),%rax
    d4ea:	48 89 85 78 f5 ff ff 	mov    %rax,-0xa88(%rbp)
    d4f1:	48 c7 85 80 f5 ff ff 	movq   $0x0,-0xa80(%rbp)
    d4f8:	00 00 00 00 
    d4fc:	48 8d 85 10 f2 ff ff 	lea    -0xdf0(%rbp),%rax
    d503:	48 89 85 88 f5 ff ff 	mov    %rax,-0xa78(%rbp)
    d50a:	48 8d 85 10 f2 ff ff 	lea    -0xdf0(%rbp),%rax
    d511:	48 89 85 90 f5 ff ff 	mov    %rax,-0xa70(%rbp)
    d518:	48 c7 85 98 f5 ff ff 	movq   $0x0,-0xa68(%rbp)
    d51f:	00 00 00 00 
    d523:	48 8d 85 10 f2 ff ff 	lea    -0xdf0(%rbp),%rax
    d52a:	48 89 85 a0 f5 ff ff 	mov    %rax,-0xa60(%rbp)
    d531:	48 8d 85 10 f2 ff ff 	lea    -0xdf0(%rbp),%rax
    d538:	48 89 85 a8 f5 ff ff 	mov    %rax,-0xa58(%rbp)
    d53f:	c7 85 ac f1 ff ff 26 	movl   $0x77a0b726,-0xe54(%rbp)
    d546:	b7 a0 77 
    d549:	48 c7 05 b4 1e 01 00 	movq   $0x0,0x11eb4(%rip)        # 1f408 <g_143>
    d550:	00 00 00 00 
    d554:	e9 50 07 00 00       	jmpq   dca9 <func_29+0x1d57>
    d559:	48 8d 85 40 f4 ff ff 	lea    -0xbc0(%rbp),%rax
    d560:	48 89 85 58 f3 ff ff 	mov    %rax,-0xca8(%rbp)
    d567:	48 8d 05 72 48 01 00 	lea    0x14872(%rip),%rax        # 21de0 <g_399+0x20>
    d56e:	48 89 85 60 f3 ff ff 	mov    %rax,-0xca0(%rbp)
    d575:	48 8d 85 20 f2 ff ff 	lea    -0xde0(%rbp),%rax
    d57c:	48 89 85 68 f3 ff ff 	mov    %rax,-0xc98(%rbp)
    d583:	48 8d 05 f6 48 01 00 	lea    0x148f6(%rip),%rax        # 21e80 <g_811>
    d58a:	48 89 85 b0 f5 ff ff 	mov    %rax,-0xa50(%rbp)
    d591:	48 8d 85 f8 f1 ff ff 	lea    -0xe08(%rbp),%rax
    d598:	48 89 85 b8 f5 ff ff 	mov    %rax,-0xa48(%rbp)
    d59f:	48 8d 85 f8 f1 ff ff 	lea    -0xe08(%rbp),%rax
    d5a6:	48 89 85 c0 f5 ff ff 	mov    %rax,-0xa40(%rbp)
    d5ad:	48 8d 85 f8 f1 ff ff 	lea    -0xe08(%rbp),%rax
    d5b4:	48 89 85 c8 f5 ff ff 	mov    %rax,-0xa38(%rbp)
    d5bb:	48 8d 85 f8 f1 ff ff 	lea    -0xe08(%rbp),%rax
    d5c2:	48 89 85 d0 f5 ff ff 	mov    %rax,-0xa30(%rbp)
    d5c9:	48 8d 85 f8 f1 ff ff 	lea    -0xe08(%rbp),%rax
    d5d0:	48 89 85 d8 f5 ff ff 	mov    %rax,-0xa28(%rbp)
    d5d7:	48 8d 85 f8 f1 ff ff 	lea    -0xe08(%rbp),%rax
    d5de:	48 89 85 e0 f5 ff ff 	mov    %rax,-0xa20(%rbp)
    d5e5:	48 8d 85 f8 f1 ff ff 	lea    -0xe08(%rbp),%rax
    d5ec:	48 89 85 e8 f5 ff ff 	mov    %rax,-0xa18(%rbp)
    d5f3:	48 8d 05 86 48 01 00 	lea    0x14886(%rip),%rax        # 21e80 <g_811>
    d5fa:	48 89 85 f0 f5 ff ff 	mov    %rax,-0xa10(%rbp)
    d601:	48 8d 05 78 48 01 00 	lea    0x14878(%rip),%rax        # 21e80 <g_811>
    d608:	48 89 85 f8 f5 ff ff 	mov    %rax,-0xa08(%rbp)
    d60f:	48 8d 85 f8 f1 ff ff 	lea    -0xe08(%rbp),%rax
    d616:	48 89 85 00 f6 ff ff 	mov    %rax,-0xa00(%rbp)
    d61d:	48 8d 85 f8 f1 ff ff 	lea    -0xe08(%rbp),%rax
    d624:	48 89 85 08 f6 ff ff 	mov    %rax,-0x9f8(%rbp)
    d62b:	48 8d 85 f8 f1 ff ff 	lea    -0xe08(%rbp),%rax
    d632:	48 89 85 10 f6 ff ff 	mov    %rax,-0x9f0(%rbp)
    d639:	48 8d 85 f8 f1 ff ff 	lea    -0xe08(%rbp),%rax
    d640:	48 89 85 18 f6 ff ff 	mov    %rax,-0x9e8(%rbp)
    d647:	48 8d 85 f8 f1 ff ff 	lea    -0xe08(%rbp),%rax
    d64e:	48 89 85 20 f6 ff ff 	mov    %rax,-0x9e0(%rbp)
    d655:	48 8d 85 f8 f1 ff ff 	lea    -0xe08(%rbp),%rax
    d65c:	48 89 85 28 f6 ff ff 	mov    %rax,-0x9d8(%rbp)
    d663:	48 8d 85 f8 f1 ff ff 	lea    -0xe08(%rbp),%rax
    d66a:	48 89 85 30 f6 ff ff 	mov    %rax,-0x9d0(%rbp)
    d671:	48 8d 05 08 48 01 00 	lea    0x14808(%rip),%rax        # 21e80 <g_811>
    d678:	48 89 85 38 f6 ff ff 	mov    %rax,-0x9c8(%rbp)
    d67f:	c7 85 b0 f1 ff ff 89 	movl   $0x2a9f2289,-0xe50(%rbp)
    d686:	22 9f 2a 
    d689:	c7 85 b4 f1 ff ff a7 	movl   $0x7025bea7,-0xe4c(%rbp)
    d690:	be 25 70 
    d693:	c7 85 b8 f1 ff ff 4f 	movl   $0x16278c4f,-0xe48(%rbp)
    d69a:	8c 27 16 
    d69d:	c7 85 bc f1 ff ff 60 	movl   $0x53eded60,-0xe44(%rbp)
    d6a4:	ed ed 53 
    d6a7:	c7 85 c0 f1 ff ff 54 	movl   $0x38a35c54,-0xe40(%rbp)
    d6ae:	5c a3 38 
    d6b1:	48 8d 85 40 f6 ff ff 	lea    -0x9c0(%rbp),%rax
    d6b8:	48 8d 15 81 d0 00 00 	lea    0xd081(%rip),%rdx        # 1a740 <g_1819+0x660>
    d6bf:	b9 28 00 00 00       	mov    $0x28,%ecx
    d6c4:	48 89 c7             	mov    %rax,%rdi
    d6c7:	48 89 d6             	mov    %rdx,%rsi
    d6ca:	f3 48 a5             	rep movsq %ds:(%rsi),%es:(%rdi)
    d6cd:	48 8b 85 60 f3 ff ff 	mov    -0xca0(%rbp),%rax
    d6d4:	48 8b 95 58 f3 ff ff 	mov    -0xca8(%rbp),%rdx
    d6db:	48 89 10             	mov    %rdx,(%rax)
    d6de:	48 8d 05 3b 47 01 00 	lea    0x1473b(%rip),%rax        # 21e20 <g_578>
    d6e5:	48 89 85 00 f5 ff ff 	mov    %rax,-0xb00(%rbp)
    d6ec:	48 8b 85 00 f5 ff ff 	mov    -0xb00(%rbp),%rax
    d6f3:	48 89 05 2e 47 01 00 	mov    %rax,0x1472e(%rip)        # 21e28 <g_577>
    d6fa:	48 8b 15 27 47 01 00 	mov    0x14727(%rip),%rdx        # 21e28 <g_577>
    d701:	48 8b 85 78 f2 ff ff 	mov    -0xd88(%rbp),%rax
    d708:	48 89 05 f1 47 01 00 	mov    %rax,0x147f1(%rip)        # 21f00 <g_1389+0x40>
    d70f:	48 8b 05 ea 47 01 00 	mov    0x147ea(%rip),%rax        # 21f00 <g_1389+0x40>
    d716:	48 39 c2             	cmp    %rax,%rdx
    d719:	48 8b 05 50 47 01 00 	mov    0x14750(%rip),%rax        # 21e70 <g_712>
    d720:	8b 00                	mov    (%rax),%eax
    d722:	89 c2                	mov    %eax,%edx
    d724:	48 8b 85 e8 f0 ff ff 	mov    -0xf18(%rbp),%rax
    d72b:	89 d6                	mov    %edx,%esi
    d72d:	89 c7                	mov    %eax,%edi
    d72f:	e8 d1 be ff ff       	callq  9605 <safe_sub_func_int32_t_s_s>
    d734:	48 8d 15 4d 5a 01 00 	lea    0x15a4d(%rip),%rdx        # 23188 <g_110>
    d73b:	48 89 15 3e 47 01 00 	mov    %rdx,0x1473e(%rip)        # 21e80 <g_811>
    d742:	48 8b 15 37 47 01 00 	mov    0x14737(%rip),%rdx        # 21e80 <g_811>
    d749:	48 39 95 30 f2 ff ff 	cmp    %rdx,-0xdd0(%rbp)
    d750:	0f 95 c2             	setne  %dl
    d753:	0f b6 d2             	movzbl %dl,%edx
    d756:	39 d0                	cmp    %edx,%eax
    d758:	48 8b 05 b1 46 01 00 	mov    0x146b1(%rip),%rax        # 21e10 <g_580>
    d75f:	48 8b 95 20 f2 ff ff 	mov    -0xde0(%rbp),%rdx
    d766:	48 89 10             	mov    %rdx,(%rax)
    d769:	48 8b 10             	mov    (%rax),%rdx
    d76c:	48 8b 85 68 f3 ff ff 	mov    -0xc98(%rbp),%rax
    d773:	48 89 10             	mov    %rdx,(%rax)
    d776:	48 8b 85 68 f3 ff ff 	mov    -0xc98(%rbp),%rax
    d77d:	48 8b 00             	mov    (%rax),%rax
    d780:	48 85 c0             	test   %rax,%rax
    d783:	0f 94 c0             	sete   %al
    d786:	0f b6 d0             	movzbl %al,%edx
    d789:	8b 85 18 f2 ff ff    	mov    -0xde8(%rbp),%eax
    d78f:	48 98                	cltq   
    d791:	48 39 85 e8 f0 ff ff 	cmp    %rax,-0xf18(%rbp)
    d798:	0f 9c c0             	setl   %al
    d79b:	0f b6 c0             	movzbl %al,%eax
    d79e:	39 85 e4 f0 ff ff    	cmp    %eax,-0xf1c(%rbp)
    d7a4:	0f 97 c0             	seta   %al
    d7a7:	0f b6 c0             	movzbl %al,%eax
    d7aa:	39 c2                	cmp    %eax,%edx
    d7ac:	0f 9d c0             	setge  %al
    d7af:	0f b6 d0             	movzbl %al,%edx
    d7b2:	48 8b 85 58 f3 ff ff 	mov    -0xca8(%rbp),%rax
    d7b9:	8b 00                	mov    (%rax),%eax
    d7bb:	21 c2                	and    %eax,%edx
    d7bd:	48 8b 85 58 f3 ff ff 	mov    -0xca8(%rbp),%rax
    d7c4:	89 10                	mov    %edx,(%rax)
    d7c6:	48 8b 85 10 f3 ff ff 	mov    -0xcf0(%rbp),%rax
    d7cd:	48 89 05 04 46 01 00 	mov    %rax,0x14604(%rip)        # 21dd8 <g_399+0x18>
    d7d4:	48 8b 85 58 f3 ff ff 	mov    -0xca8(%rbp),%rax
    d7db:	8b 00                	mov    (%rax),%eax
    d7dd:	85 c0                	test   %eax,%eax
    d7df:	0f 84 56 03 00 00    	je     db3b <func_29+0x1be9>
    d7e5:	48 8d 85 40 f4 ff ff 	lea    -0xbc0(%rbp),%rax
    d7ec:	48 83 c0 04          	add    $0x4,%rax
    d7f0:	48 89 85 78 f3 ff ff 	mov    %rax,-0xc88(%rbp)
    d7f7:	48 c7 85 80 f3 ff ff 	movq   $0x0,-0xc80(%rbp)
    d7fe:	00 00 00 00 
    d802:	48 8d 05 1b 1c 01 00 	lea    0x11c1b(%rip),%rax        # 1f424 <g_246>
    d809:	48 89 85 88 f3 ff ff 	mov    %rax,-0xc78(%rbp)
    d810:	48 8d 05 09 20 01 00 	lea    0x12009(%rip),%rax        # 1f820 <g_1201>
    d817:	48 89 85 90 f3 ff ff 	mov    %rax,-0xc70(%rbp)
    d81e:	48 8d 85 04 f1 ff ff 	lea    -0xefc(%rbp),%rax
    d825:	48 89 85 98 f3 ff ff 	mov    %rax,-0xc68(%rbp)
    d82c:	48 8d 05 f1 1b 01 00 	lea    0x11bf1(%rip),%rax        # 1f424 <g_246>
    d833:	48 89 85 a0 f3 ff ff 	mov    %rax,-0xc60(%rbp)
    d83a:	48 8d 85 40 f4 ff ff 	lea    -0xbc0(%rbp),%rax
    d841:	48 83 c0 04          	add    $0x4,%rax
    d845:	48 89 85 00 f9 ff ff 	mov    %rax,-0x700(%rbp)
    d84c:	48 8d 85 18 f2 ff ff 	lea    -0xde8(%rbp),%rax
    d853:	48 89 85 08 f9 ff ff 	mov    %rax,-0x6f8(%rbp)
    d85a:	48 8d 05 bf 1f 01 00 	lea    0x11fbf(%rip),%rax        # 1f820 <g_1201>
    d861:	48 89 85 10 f9 ff ff 	mov    %rax,-0x6f0(%rbp)
    d868:	48 8d 05 c5 17 01 00 	lea    0x117c5(%rip),%rax        # 1f034 <g_4+0x4>
    d86f:	48 89 85 18 f9 ff ff 	mov    %rax,-0x6e8(%rbp)
    d876:	48 8d 85 04 f1 ff ff 	lea    -0xefc(%rbp),%rax
    d87d:	48 89 85 20 f9 ff ff 	mov    %rax,-0x6e0(%rbp)
    d884:	48 8d 05 29 1c 01 00 	lea    0x11c29(%rip),%rax        # 1f4b4 <g_717>
    d88b:	48 89 85 28 f9 ff ff 	mov    %rax,-0x6d8(%rbp)
    d892:	48 8d 85 18 f2 ff ff 	lea    -0xde8(%rbp),%rax
    d899:	48 89 85 30 f9 ff ff 	mov    %rax,-0x6d0(%rbp)
    d8a0:	48 8d 05 8d 17 01 00 	lea    0x1178d(%rip),%rax        # 1f034 <g_4+0x4>
    d8a7:	48 89 85 38 f9 ff ff 	mov    %rax,-0x6c8(%rbp)
    d8ae:	48 8d 05 07 1c 01 00 	lea    0x11c07(%rip),%rax        # 1f4bc <g_1082>
    d8b5:	48 89 85 40 f9 ff ff 	mov    %rax,-0x6c0(%rbp)
    d8bc:	48 8d 05 f9 1b 01 00 	lea    0x11bf9(%rip),%rax        # 1f4bc <g_1082>
    d8c3:	48 89 85 48 f9 ff ff 	mov    %rax,-0x6b8(%rbp)
    d8ca:	48 8d 05 67 17 01 00 	lea    0x11767(%rip),%rax        # 1f038 <g_4+0x8>
    d8d1:	48 89 85 50 f9 ff ff 	mov    %rax,-0x6b0(%rbp)
    d8d8:	48 8d 85 40 f4 ff ff 	lea    -0xbc0(%rbp),%rax
    d8df:	48 83 c0 04          	add    $0x4,%rax
    d8e3:	48 89 85 58 f9 ff ff 	mov    %rax,-0x6a8(%rbp)
    d8ea:	48 8d 85 40 f4 ff ff 	lea    -0xbc0(%rbp),%rax
    d8f1:	48 83 c0 04          	add    $0x4,%rax
    d8f5:	48 89 85 60 f9 ff ff 	mov    %rax,-0x6a0(%rbp)
    d8fc:	48 8d 05 35 17 01 00 	lea    0x11735(%rip),%rax        # 1f038 <g_4+0x8>
    d903:	48 89 85 68 f9 ff ff 	mov    %rax,-0x698(%rbp)
    d90a:	48 8d 05 ab 1b 01 00 	lea    0x11bab(%rip),%rax        # 1f4bc <g_1082>
    d911:	48 89 85 70 f9 ff ff 	mov    %rax,-0x690(%rbp)
    d918:	48 8d 05 95 1b 01 00 	lea    0x11b95(%rip),%rax        # 1f4b4 <g_717>
    d91f:	48 89 85 78 f9 ff ff 	mov    %rax,-0x688(%rbp)
    d926:	48 8d 05 07 17 01 00 	lea    0x11707(%rip),%rax        # 1f034 <g_4+0x4>
    d92d:	48 89 85 80 f9 ff ff 	mov    %rax,-0x680(%rbp)
    d934:	48 8d 85 04 f1 ff ff 	lea    -0xefc(%rbp),%rax
    d93b:	48 89 85 88 f9 ff ff 	mov    %rax,-0x678(%rbp)
    d942:	48 8d 05 eb 16 01 00 	lea    0x116eb(%rip),%rax        # 1f034 <g_4+0x4>
    d949:	48 89 85 90 f9 ff ff 	mov    %rax,-0x670(%rbp)
    d950:	48 8d 05 65 1b 01 00 	lea    0x11b65(%rip),%rax        # 1f4bc <g_1082>
    d957:	48 89 85 98 f9 ff ff 	mov    %rax,-0x668(%rbp)
    d95e:	48 8d 85 40 f4 ff ff 	lea    -0xbc0(%rbp),%rax
    d965:	48 83 c0 04          	add    $0x4,%rax
    d969:	48 89 85 a0 f9 ff ff 	mov    %rax,-0x660(%rbp)
    d970:	48 8d 05 3d 1b 01 00 	lea    0x11b3d(%rip),%rax        # 1f4b4 <g_717>
    d977:	48 89 85 a8 f9 ff ff 	mov    %rax,-0x658(%rbp)
    d97e:	48 8d 05 37 1b 01 00 	lea    0x11b37(%rip),%rax        # 1f4bc <g_1082>
    d985:	48 89 85 b0 f9 ff ff 	mov    %rax,-0x650(%rbp)
    d98c:	48 8d 05 8d 1e 01 00 	lea    0x11e8d(%rip),%rax        # 1f820 <g_1201>
    d993:	48 89 85 b8 f9 ff ff 	mov    %rax,-0x648(%rbp)
    d99a:	48 8d 05 1b 1b 01 00 	lea    0x11b1b(%rip),%rax        # 1f4bc <g_1082>
    d9a1:	48 89 85 c0 f9 ff ff 	mov    %rax,-0x640(%rbp)
    d9a8:	48 8d 05 71 1e 01 00 	lea    0x11e71(%rip),%rax        # 1f820 <g_1201>
    d9af:	48 89 85 c8 f9 ff ff 	mov    %rax,-0x638(%rbp)
    d9b6:	48 8d 05 63 1e 01 00 	lea    0x11e63(%rip),%rax        # 1f820 <g_1201>
    d9bd:	48 89 85 d0 f9 ff ff 	mov    %rax,-0x630(%rbp)
    d9c4:	48 8d 05 f1 1a 01 00 	lea    0x11af1(%rip),%rax        # 1f4bc <g_1082>
    d9cb:	48 89 85 d8 f9 ff ff 	mov    %rax,-0x628(%rbp)
    d9d2:	48 8d 05 5b 16 01 00 	lea    0x1165b(%rip),%rax        # 1f034 <g_4+0x4>
    d9d9:	48 89 85 e0 f9 ff ff 	mov    %rax,-0x620(%rbp)
    d9e0:	48 8d 85 04 f1 ff ff 	lea    -0xefc(%rbp),%rax
    d9e7:	48 89 85 e8 f9 ff ff 	mov    %rax,-0x618(%rbp)
    d9ee:	48 8d 05 bf 1a 01 00 	lea    0x11abf(%rip),%rax        # 1f4b4 <g_717>
    d9f5:	48 89 85 f0 f9 ff ff 	mov    %rax,-0x610(%rbp)
    d9fc:	48 c7 85 f8 f9 ff ff 	movq   $0x0,-0x608(%rbp)
    da03:	00 00 00 00 
    da07:	48 8d 05 a6 1a 01 00 	lea    0x11aa6(%rip),%rax        # 1f4b4 <g_717>
    da0e:	48 89 85 00 fa ff ff 	mov    %rax,-0x600(%rbp)
    da15:	48 8d 05 04 1e 01 00 	lea    0x11e04(%rip),%rax        # 1f820 <g_1201>
    da1c:	48 89 85 08 fa ff ff 	mov    %rax,-0x5f8(%rbp)
    da23:	48 8d 05 0e 16 01 00 	lea    0x1160e(%rip),%rax        # 1f038 <g_4+0x8>
    da2a:	48 89 85 10 fa ff ff 	mov    %rax,-0x5f0(%rbp)
    da31:	48 8d 05 fc 15 01 00 	lea    0x115fc(%rip),%rax        # 1f034 <g_4+0x4>
    da38:	48 89 85 18 fa ff ff 	mov    %rax,-0x5e8(%rbp)
    da3f:	48 8d 05 6e 1a 01 00 	lea    0x11a6e(%rip),%rax        # 1f4b4 <g_717>
    da46:	48 89 85 20 fa ff ff 	mov    %rax,-0x5e0(%rbp)
    da4d:	48 8d 05 60 1a 01 00 	lea    0x11a60(%rip),%rax        # 1f4b4 <g_717>
    da54:	48 89 85 28 fa ff ff 	mov    %rax,-0x5d8(%rbp)
    da5b:	48 8d 05 52 1a 01 00 	lea    0x11a52(%rip),%rax        # 1f4b4 <g_717>
    da62:	48 89 85 30 fa ff ff 	mov    %rax,-0x5d0(%rbp)
    da69:	48 8d 05 c4 15 01 00 	lea    0x115c4(%rip),%rax        # 1f034 <g_4+0x4>
    da70:	48 89 85 38 fa ff ff 	mov    %rax,-0x5c8(%rbp)
    da77:	48 c7 85 40 fa ff ff 	movq   $0x0,-0x5c0(%rbp)
    da7e:	00 00 00 00 
    da82:	48 8d 85 18 f2 ff ff 	lea    -0xde8(%rbp),%rax
    da89:	48 89 85 48 fa ff ff 	mov    %rax,-0x5b8(%rbp)
    da90:	48 8d 05 25 1a 01 00 	lea    0x11a25(%rip),%rax        # 1f4bc <g_1082>
    da97:	48 89 85 50 fa ff ff 	mov    %rax,-0x5b0(%rbp)
    da9e:	48 8d 05 8f 15 01 00 	lea    0x1158f(%rip),%rax        # 1f034 <g_4+0x4>
    daa5:	48 89 85 58 fa ff ff 	mov    %rax,-0x5a8(%rbp)
    daac:	48 8d 05 09 1a 01 00 	lea    0x11a09(%rip),%rax        # 1f4bc <g_1082>
    dab3:	48 89 85 60 fa ff ff 	mov    %rax,-0x5a0(%rbp)
    daba:	48 c7 85 68 fa ff ff 	movq   $0x0,-0x598(%rbp)
    dac1:	00 00 00 00 
    dac5:	48 8d 05 f0 19 01 00 	lea    0x119f0(%rip),%rax        # 1f4bc <g_1082>
    dacc:	48 89 85 70 fa ff ff 	mov    %rax,-0x590(%rbp)
    dad3:	48 8d 05 5e 15 01 00 	lea    0x1155e(%rip),%rax        # 1f038 <g_4+0x8>
    dada:	48 89 85 78 fa ff ff 	mov    %rax,-0x588(%rbp)
    dae1:	48 8d 85 40 f4 ff ff 	lea    -0xbc0(%rbp),%rax
    dae8:	48 83 c0 04          	add    $0x4,%rax
    daec:	48 89 85 80 fa ff ff 	mov    %rax,-0x580(%rbp)
    daf3:	48 8d 85 40 f4 ff ff 	lea    -0xbc0(%rbp),%rax
    dafa:	48 83 c0 04          	add    $0x4,%rax
    dafe:	48 89 85 88 fa ff ff 	mov    %rax,-0x578(%rbp)
    db05:	48 8d 85 80 f7 ff ff 	lea    -0x880(%rbp),%rax
    db0c:	48 8d 15 6d cd 00 00 	lea    0xcd6d(%rip),%rdx        # 1a880 <g_1819+0x7a0>
    db13:	b9 30 00 00 00       	mov    $0x30,%ecx
    db18:	48 89 c7             	mov    %rax,%rdi
    db1b:	48 89 d6             	mov    %rdx,%rsi
    db1e:	f3 48 a5             	rep movsq %ds:(%rsi),%es:(%rdi)
    db21:	83 bd e4 f0 ff ff 00 	cmpl   $0x0,-0xf1c(%rbp)
    db28:	0f 85 c1 e5 ff ff    	jne    c0ef <func_29+0x19d>
    db2e:	66 83 85 fc f0 ff ff 	addw   $0x1,-0xf04(%rbp)
    db35:	01 
    db36:	e9 3a 01 00 00       	jmpq   dc75 <func_29+0x1d23>
    db3b:	c6 85 fa f0 ff ff f8 	movb   $0xf8,-0xf06(%rbp)
    db42:	48 8d 05 b9 18 01 00 	lea    0x118b9(%rip),%rax        # 1f402 <g_109>
    db49:	48 89 85 70 f3 ff ff 	mov    %rax,-0xc90(%rbp)
    db50:	48 8b 85 e8 f0 ff ff 	mov    -0xf18(%rbp),%rax
    db57:	41 89 c4             	mov    %eax,%r12d
    db5a:	83 bd e4 f0 ff ff 00 	cmpl   $0x0,-0xf1c(%rbp)
    db61:	74 34                	je     db97 <func_29+0x1c45>
    db63:	48 8b 9d e8 f0 ff ff 	mov    -0xf18(%rbp),%rbx
    db6a:	8b 85 e4 f0 ff ff    	mov    -0xf1c(%rbp),%eax
    db70:	98                   	cwtl   
    db71:	be 04 00 00 00       	mov    $0x4,%esi
    db76:	89 c7                	mov    %eax,%edi
    db78:	e8 15 b9 ff ff       	callq  9492 <safe_lshift_func_int16_t_s_s>
    db7d:	48 89 de             	mov    %rbx,%rsi
    db80:	bf 00 00 00 00       	mov    $0x0,%edi
    db85:	e8 f6 c4 ff ff       	callq  a080 <safe_mod_func_uint64_t_u_u>
    db8a:	48 85 c0             	test   %rax,%rax
    db8d:	74 08                	je     db97 <func_29+0x1c45>
    db8f:	83 bd 3c f1 ff ff 00 	cmpl   $0x0,-0xec4(%rbp)
    db96:	90                   	nop
    db97:	48 8b 05 92 41 01 00 	mov    0x14192(%rip),%rax        # 21d30 <g_200>
    db9e:	0f b7 18             	movzwl (%rax),%ebx
    dba1:	83 bd e4 f0 ff ff 00 	cmpl   $0x0,-0xf1c(%rbp)
    dba8:	75 10                	jne    dbba <func_29+0x1c68>
    dbaa:	48 8b 85 60 f3 ff ff 	mov    -0xca0(%rbp),%rax
    dbb1:	48 8b 00             	mov    (%rax),%rax
    dbb4:	8b 00                	mov    (%rax),%eax
    dbb6:	85 c0                	test   %eax,%eax
    dbb8:	74 07                	je     dbc1 <func_29+0x1c6f>
    dbba:	b8 01 00 00 00       	mov    $0x1,%eax
    dbbf:	eb 05                	jmp    dbc6 <func_29+0x1c74>
    dbc1:	b8 00 00 00 00       	mov    $0x0,%eax
    dbc6:	0f b7 d0             	movzwl %ax,%edx
    dbc9:	66 0f be 85 fa f0 ff 	movsbw -0xf06(%rbp),%ax
    dbd0:	ff 
    dbd1:	0f b7 c0             	movzwl %ax,%eax
    dbd4:	89 d6                	mov    %edx,%esi
    dbd6:	89 c7                	mov    %eax,%edi
    dbd8:	e8 22 c1 ff ff       	callq  9cff <safe_add_func_uint16_t_u_u>
    dbdd:	0f b7 d0             	movzwl %ax,%edx
    dbe0:	48 8b 85 58 f3 ff ff 	mov    -0xca8(%rbp),%rax
    dbe7:	8b 00                	mov    (%rax),%eax
    dbe9:	0f b7 c0             	movzwl %ax,%eax
    dbec:	89 d6                	mov    %edx,%esi
    dbee:	89 c7                	mov    %eax,%edi
    dbf0:	e8 67 c1 ff ff       	callq  9d5c <safe_mod_func_uint16_t_u_u>
    dbf5:	48 8b 95 70 f3 ff ff 	mov    -0xc90(%rbp),%rdx
    dbfc:	66 89 02             	mov    %ax,(%rdx)
    dbff:	48 8b 85 70 f3 ff ff 	mov    -0xc90(%rbp),%rax
    dc06:	0f b7 00             	movzwl (%rax),%eax
    dc09:	09 d8                	or     %ebx,%eax
    dc0b:	0f b7 d0             	movzwl %ax,%edx
    dc0e:	48 8b 05 43 41 01 00 	mov    0x14143(%rip),%rax        # 21d58 <g_322>
    dc15:	0f b7 00             	movzwl (%rax),%eax
    dc18:	66 85 c0             	test   %ax,%ax
    dc1b:	0f 9f c0             	setg   %al
    dc1e:	0f b6 c0             	movzbl %al,%eax
    dc21:	21 d0                	and    %edx,%eax
    dc23:	3d d9 c7 00 00       	cmp    $0xc7d9,%eax
    dc28:	0f 9e c0             	setle  %al
    dc2b:	0f b6 c0             	movzbl %al,%eax
    dc2e:	44 89 e6             	mov    %r12d,%esi
    dc31:	89 c7                	mov    %eax,%edi
    dc33:	e8 a9 b8 ff ff       	callq  94e1 <safe_lshift_func_int16_t_s_u>
    dc38:	98                   	cwtl   
    dc39:	23 85 9c f1 ff ff    	and    -0xe64(%rbp),%eax
    dc3f:	39 85 e4 f0 ff ff    	cmp    %eax,-0xf1c(%rbp)
    dc45:	0f 96 c0             	setbe  %al
    dc48:	0f b6 c0             	movzbl %al,%eax
    dc4b:	be f7 00 00 00       	mov    $0xf7,%esi
    dc50:	89 c7                	mov    %eax,%edi
    dc52:	e8 57 bf ff ff       	callq  9bae <safe_mod_func_uint8_t_u_u>
    dc57:	0f b6 d0             	movzbl %al,%edx
    dc5a:	48 8b 85 58 f3 ff ff 	mov    -0xca8(%rbp),%rax
    dc61:	89 10                	mov    %edx,(%rax)
    dc63:	48 8b 85 58 f3 ff ff 	mov    -0xca8(%rbp),%rax
    dc6a:	8b 10                	mov    (%rax),%edx
    dc6c:	48 8b 85 10 f3 ff ff 	mov    -0xcf0(%rbp),%rax
    dc73:	89 10                	mov    %edx,(%rax)
    dc75:	c6 05 c0 13 01 00 00 	movb   $0x0,0x113c0(%rip)        # 1f03c <g_41>
    dc7c:	90                   	nop
    dc7d:	0f b6 05 b8 13 01 00 	movzbl 0x113b8(%rip),%eax        # 1f03c <g_41>
    dc84:	3c 06                	cmp    $0x6,%al
    dc86:	77 0f                	ja     dc97 <func_29+0x1d45>
    dc88:	48 8b 05 a1 40 01 00 	mov    0x140a1(%rip),%rax        # 21d30 <g_200>
    dc8f:	0f b7 00             	movzwl (%rax),%eax
    dc92:	e9 39 0b 00 00       	jmpq   e7d0 <func_29+0x287e>
    dc97:	48 8b 05 6a 17 01 00 	mov    0x1176a(%rip),%rax        # 1f408 <g_143>
    dc9e:	48 83 c0 01          	add    $0x1,%rax
    dca2:	48 89 05 5f 17 01 00 	mov    %rax,0x1175f(%rip)        # 1f408 <g_143>
    dca9:	48 8b 05 58 17 01 00 	mov    0x11758(%rip),%rax        # 1f408 <g_143>
    dcb0:	48 83 f8 06          	cmp    $0x6,%rax
    dcb4:	0f 8e 9f f8 ff ff    	jle    d559 <func_29+0x1607>
    dcba:	83 85 08 f1 ff ff 01 	addl   $0x1,-0xef8(%rbp)
    dcc1:	8b 85 e4 f0 ff ff    	mov    -0xf1c(%rbp),%eax
    dcc7:	48 89 c6             	mov    %rax,%rsi
    dcca:	bf 00 00 00 00       	mov    $0x0,%edi
    dccf:	e8 db c3 ff ff       	callq  a0af <safe_div_func_uint64_t_u_u>
    dcd4:	89 c2                	mov    %eax,%edx
    dcd6:	48 8b 85 10 f3 ff ff 	mov    -0xcf0(%rbp),%rax
    dcdd:	89 10                	mov    %edx,(%rax)
    dcdf:	48 8b 85 10 f3 ff ff 	mov    -0xcf0(%rbp),%rax
    dce6:	8b 10                	mov    (%rax),%edx
    dce8:	48 8b 85 30 f3 ff ff 	mov    -0xcd0(%rbp),%rax
    dcef:	8b 00                	mov    (%rax),%eax
    dcf1:	21 c2                	and    %eax,%edx
    dcf3:	48 8b 85 30 f3 ff ff 	mov    -0xcd0(%rbp),%rax
    dcfa:	89 10                	mov    %edx,(%rax)
    dcfc:	8b 95 44 f1 ff ff    	mov    -0xebc(%rbp),%edx
    dd02:	48 8b 85 30 f3 ff ff 	mov    -0xcd0(%rbp),%rax
    dd09:	89 10                	mov    %edx,(%rax)
    dd0b:	c7 85 6c f1 ff ff 04 	movl   $0x4,-0xe94(%rbp)
    dd12:	00 00 00 
    dd15:	83 bd 6c f1 ff ff 00 	cmpl   $0x0,-0xe94(%rbp)
    dd1c:	78 75                	js     dd93 <func_29+0x1e41>
    dd1e:	8b 05 30 1b 01 00    	mov    0x11b30(%rip),%eax        # 1f854 <g_1464+0x14>
    dd24:	85 c0                	test   %eax,%eax
    dd26:	74 2e                	je     dd56 <func_29+0x1e04>
    dd28:	48 8d 85 30 f5 ff ff 	lea    -0xad0(%rbp),%rax
    dd2f:	48 83 c0 78          	add    $0x78,%rax
    dd33:	48 89 85 50 f3 ff ff 	mov    %rax,-0xcb0(%rbp)
    dd3a:	48 8b 85 50 f3 ff ff 	mov    -0xcb0(%rbp),%rax
    dd41:	48 8d 15 e8 12 01 00 	lea    0x112e8(%rip),%rdx        # 1f030 <g_4>
    dd48:	48 89 10             	mov    %rdx,(%rax)
    dd4b:	8b 85 e4 f0 ff ff    	mov    -0xf1c(%rbp),%eax
    dd51:	e9 7a 0a 00 00       	jmpq   e7d0 <func_29+0x287e>
    dd56:	48 c7 85 40 f3 ff ff 	movq   $0x0,-0xcc0(%rbp)
    dd5d:	00 00 00 00 
    dd61:	48 8d 05 78 40 01 00 	lea    0x14078(%rip),%rax        # 21de0 <g_399+0x20>
    dd68:	48 89 85 48 f3 ff ff 	mov    %rax,-0xcb8(%rbp)
    dd6f:	48 8b 85 48 f3 ff ff 	mov    -0xcb8(%rbp),%rax
    dd76:	48 8d 95 80 f4 ff ff 	lea    -0xb80(%rbp),%rdx
    dd7d:	48 83 c2 14          	add    $0x14,%rdx
    dd81:	48 89 10             	mov    %rdx,(%rax)
    dd84:	48 8b 05 95 3f 01 00 	mov    0x13f95(%rip),%rax        # 21d20 <g_105>
    dd8b:	0f b7 00             	movzwl (%rax),%eax
    dd8e:	e9 3d 0a 00 00       	jmpq   e7d0 <func_29+0x287e>
    dd93:	48 8b 05 e6 16 01 00 	mov    0x116e6(%rip),%rax        # 1f480 <g_293>
    dd9a:	48 83 c0 01          	add    $0x1,%rax
    dd9e:	48 89 05 db 16 01 00 	mov    %rax,0x116db(%rip)        # 1f480 <g_293>
    dda5:	48 8b 05 d4 16 01 00 	mov    0x116d4(%rip),%rax        # 1f480 <g_293>
    ddac:	48 83 f8 05          	cmp    $0x5,%rax
    ddb0:	0f 86 27 f6 ff ff    	jbe    d3dd <func_29+0x148b>
    ddb6:	48 8b 85 10 f3 ff ff 	mov    -0xcf0(%rbp),%rax
    ddbd:	c7 00 01 00 00 00    	movl   $0x1,(%rax)
    ddc3:	c7 05 d3 16 01 00 fb 	movl   $0xfffffffb,0x116d3(%rip)        # 1f4a0 <g_509>
    ddca:	ff ff ff 
    ddcd:	e9 95 03 00 00       	jmpq   e167 <func_29+0x2215>
    ddd2:	48 8d 85 00 f9 ff ff 	lea    -0x700(%rbp),%rax
    ddd9:	48 8d 15 40 2f 01 00 	lea    0x12f40(%rip),%rdx        # 20d20 <g_1964+0x1480>
    dde0:	b9 d8 00 00 00       	mov    $0xd8,%ecx
    dde5:	48 89 c7             	mov    %rax,%rdi
    dde8:	48 89 d6             	mov    %rdx,%rsi
    ddeb:	f3 48 a5             	rep movsq %ds:(%rsi),%es:(%rdi)
    ddee:	c7 85 24 f1 ff ff 00 	movl   $0x0,-0xedc(%rbp)
    ddf5:	00 00 00 
    ddf8:	eb 57                	jmp    de51 <func_29+0x1eff>
    ddfa:	c7 85 28 f1 ff ff 00 	movl   $0x0,-0xed8(%rbp)
    de01:	00 00 00 
    de04:	eb 3b                	jmp    de41 <func_29+0x1eef>
    de06:	8b 85 28 f1 ff ff    	mov    -0xed8(%rbp),%eax
    de0c:	48 63 c8             	movslq %eax,%rcx
    de0f:	8b 85 24 f1 ff ff    	mov    -0xedc(%rbp),%eax
    de15:	48 63 d0             	movslq %eax,%rdx
    de18:	48 89 d0             	mov    %rdx,%rax
    de1b:	48 01 c0             	add    %rax,%rax
    de1e:	48 01 d0             	add    %rdx,%rax
    de21:	48 01 c8             	add    %rcx,%rax
    de24:	48 8d 95 00 f9 ff ff 	lea    -0x700(%rbp),%rdx
    de2b:	48 81 c2 88 04 00 00 	add    $0x488,%rdx
    de32:	48 89 94 c5 80 f7 ff 	mov    %rdx,-0x880(%rbp,%rax,8)
    de39:	ff 
    de3a:	83 85 28 f1 ff ff 01 	addl   $0x1,-0xed8(%rbp)
    de41:	83 bd 28 f1 ff ff 02 	cmpl   $0x2,-0xed8(%rbp)
    de48:	7e bc                	jle    de06 <func_29+0x1eb4>
    de4a:	83 85 24 f1 ff ff 01 	addl   $0x1,-0xedc(%rbp)
    de51:	83 bd 24 f1 ff ff 01 	cmpl   $0x1,-0xedc(%rbp)
    de58:	7e a0                	jle    ddfa <func_29+0x1ea8>
    de5a:	48 8b 85 10 f3 ff ff 	mov    -0xcf0(%rbp),%rax
    de61:	8b 00                	mov    (%rax),%eax
    de63:	85 c0                	test   %eax,%eax
    de65:	0f 85 97 08 00 00    	jne    e702 <func_29+0x27b0>
    de6b:	48 8b 05 ae 3f 01 00 	mov    0x13fae(%rip),%rax        # 21e20 <g_578>
    de72:	48 8b 00             	mov    (%rax),%rax
    de75:	48 85 c0             	test   %rax,%rax
    de78:	75 07                	jne    de81 <func_29+0x1f2f>
    de7a:	b8 01 00 00 00       	mov    $0x1,%eax
    de7f:	eb 05                	jmp    de86 <func_29+0x1f34>
    de81:	b8 00 00 00 00       	mov    $0x0,%eax
    de86:	84 c0                	test   %al,%al
    de88:	0f 84 1f 01 00 00    	je     dfad <func_29+0x205b>
    de8e:	c6 85 f9 f0 ff ff ff 	movb   $0xff,-0xf07(%rbp)
    de95:	48 8d 85 08 f2 ff ff 	lea    -0xdf8(%rbp),%rax
    de9c:	48 89 85 28 f3 ff ff 	mov    %rax,-0xcd8(%rbp)
    dea3:	48 8b 05 8e e1 00 00 	mov    0xe18e(%rip),%rax        # 1c038 <l_1479.4550+0x8>
    deaa:	41 89 c5             	mov    %eax,%r13d
    dead:	48 8b 85 e8 f0 ff ff 	mov    -0xf18(%rbp),%rax
    deb4:	0a 85 f9 f0 ff ff    	or     -0xf07(%rbp),%al
    deba:	89 c2                	mov    %eax,%edx
    debc:	48 8b 85 78 f2 ff ff 	mov    -0xd88(%rbp),%rax
    dec3:	48 8b 00             	mov    (%rax),%rax
    dec6:	48 8b 00             	mov    (%rax),%rax
    dec9:	48 8b 00             	mov    (%rax),%rax
    decc:	48 8b 00             	mov    (%rax),%rax
    decf:	88 10                	mov    %dl,(%rax)
    ded1:	0f b6 00             	movzbl (%rax),%eax
    ded4:	44 0f b6 e0          	movzbl %al,%r12d
    ded8:	48 8b 05 79 3e 01 00 	mov    0x13e79(%rip),%rax        # 21d58 <g_322>
    dedf:	0f b7 00             	movzwl (%rax),%eax
    dee2:	0f bf d8             	movswl %ax,%ebx
    dee5:	8b 85 44 f1 ff ff    	mov    -0xebc(%rbp),%eax
    deeb:	0f b6 c0             	movzbl %al,%eax
    deee:	89 c6                	mov    %eax,%esi
    def0:	bf 00 00 00 00       	mov    $0x0,%edi
    def5:	e8 e1 bc ff ff       	callq  9bdb <safe_div_func_uint8_t_u_u>
    defa:	48 8b 05 37 e1 00 00 	mov    0xe137(%rip),%rax        # 1c038 <l_1479.4550+0x8>
    df01:	89 c2                	mov    %eax,%edx
    df03:	8b 85 04 f1 ff ff    	mov    -0xefc(%rbp),%eax
    df09:	09 d0                	or     %edx,%eax
    df0b:	0f be c0             	movsbl %al,%eax
    df0e:	89 c6                	mov    %eax,%esi
    df10:	bf ff ff ff ff       	mov    $0xffffffff,%edi
    df15:	e8 f8 b2 ff ff       	callq  9212 <safe_mul_func_int8_t_s_s>
    df1a:	66 98                	cbtw   
    df1c:	48 8b 95 e8 f0 ff ff 	mov    -0xf18(%rbp),%rdx
    df23:	09 d0                	or     %edx,%eax
    df25:	0f bf d0             	movswl %ax,%edx
    df28:	48 8b 05 09 3e 01 00 	mov    0x13e09(%rip),%rax        # 21d38 <g_199>
    df2f:	48 8b 00             	mov    (%rax),%rax
    df32:	0f b7 00             	movzwl (%rax),%eax
    df35:	66 35 2e 6d          	xor    $0x6d2e,%ax
    df39:	0f b7 c8             	movzwl %ax,%ecx
    df3c:	48 8b 05 ed e0 00 00 	mov    0xe0ed(%rip),%rax        # 1c030 <l_1479.4550>
    df43:	48 39 c1             	cmp    %rax,%rcx
    df46:	0f 92 c0             	setb   %al
    df49:	0f b6 c0             	movzbl %al,%eax
    df4c:	89 d6                	mov    %edx,%esi
    df4e:	89 c7                	mov    %eax,%edi
    df50:	e8 00 b5 ff ff       	callq  9455 <safe_div_func_int16_t_s_s>
    df55:	0f b7 c0             	movzwl %ax,%eax
    df58:	89 de                	mov    %ebx,%esi
    df5a:	89 c7                	mov    %eax,%edi
    df5c:	e8 5d be ff ff       	callq  9dbe <safe_lshift_func_uint16_t_u_s>
    df61:	44 09 e0             	or     %r12d,%eax
    df64:	98                   	cwtl   
    df65:	44 89 ee             	mov    %r13d,%esi
    df68:	89 c7                	mov    %eax,%edi
    df6a:	e8 bb b5 ff ff       	callq  952a <safe_rshift_func_int16_t_s_s>
    df6f:	0f bf d0             	movswl %ax,%edx
    df72:	0f be 85 f9 f0 ff ff 	movsbl -0xf07(%rbp),%eax
    df79:	31 d0                	xor    %edx,%eax
    df7b:	48 63 d0             	movslq %eax,%rdx
    df7e:	8b 85 e4 f0 ff ff    	mov    -0xf1c(%rbp),%eax
    df84:	48 89 d6             	mov    %rdx,%rsi
    df87:	48 89 c7             	mov    %rax,%rdi
    df8a:	e8 bc c0 ff ff       	callq  a04b <safe_sub_func_uint64_t_u_u>
    df8f:	ba 00 00 00 00       	mov    $0x0,%edx
    df94:	48 8b 85 28 f3 ff ff 	mov    -0xcd8(%rbp),%rax
    df9b:	8b 00                	mov    (%rax),%eax
    df9d:	31 c2                	xor    %eax,%edx
    df9f:	48 8b 85 28 f3 ff ff 	mov    -0xcd8(%rbp),%rax
    dfa6:	89 10                	mov    %edx,(%rax)
    dfa8:	e9 ab 01 00 00       	jmpq   e158 <func_29+0x2206>
    dfad:	c7 85 88 f1 ff ff 01 	movl   $0x1,-0xe78(%rbp)
    dfb4:	00 00 00 
    dfb7:	48 8d 85 80 f7 ff ff 	lea    -0x880(%rbp),%rax
    dfbe:	48 83 c0 10          	add    $0x10,%rax
    dfc2:	48 89 85 18 f3 ff ff 	mov    %rax,-0xce8(%rbp)
    dfc9:	c7 85 04 f1 ff ff ff 	movl   $0xffffffff,-0xefc(%rbp)
    dfd0:	ff ff ff 
    dfd3:	e9 69 01 00 00       	jmpq   e141 <func_29+0x21ef>
    dfd8:	48 8d 85 60 f4 ff ff 	lea    -0xba0(%rbp),%rax
    dfdf:	48 83 c0 0c          	add    $0xc,%rax
    dfe3:	48 89 85 20 f3 ff ff 	mov    %rax,-0xce0(%rbp)
    dfea:	48 8b 85 20 f3 ff ff 	mov    -0xce0(%rbp),%rax
    dff1:	8b 00                	mov    (%rax),%eax
    dff3:	89 c1                	mov    %eax,%ecx
    dff5:	48 8b 05 74 3e 01 00 	mov    0x13e74(%rip),%rax        # 21e70 <g_712>
    dffc:	8b 10                	mov    (%rax),%edx
    dffe:	48 8b 85 10 f3 ff ff 	mov    -0xcf0(%rbp),%rax
    e005:	8b 00                	mov    (%rax),%eax
    e007:	09 d0                	or     %edx,%eax
    e009:	09 c8                	or     %ecx,%eax
    e00b:	89 c2                	mov    %eax,%edx
    e00d:	48 8b 85 20 f3 ff ff 	mov    -0xce0(%rbp),%rax
    e014:	89 10                	mov    %edx,(%rax)
    e016:	8b 95 88 f1 ff ff    	mov    -0xe78(%rbp),%edx
    e01c:	48 8b 85 20 f3 ff ff 	mov    -0xce0(%rbp),%rax
    e023:	89 10                	mov    %edx,(%rax)
    e025:	48 8b 05 0c e0 00 00 	mov    0xe00c(%rip),%rax        # 1c038 <l_1479.4550+0x8>
    e02c:	0f be c0             	movsbl %al,%eax
    e02f:	89 c7                	mov    %eax,%edi
    e031:	e8 89 b1 ff ff       	callq  91bf <safe_unary_minus_func_int8_t_s>
    e036:	48 8b 85 38 f2 ff ff 	mov    -0xdc8(%rbp),%rax
    e03d:	48 c7 00 00 00 00 00 	movq   $0x0,(%rax)
    e044:	be 04 00 00 00       	mov    $0x4,%esi
    e049:	bf 01 00 00 00       	mov    $0x1,%edi
    e04e:	e8 4e b2 ff ff       	callq  92a1 <safe_lshift_func_int8_t_s_s>
    e053:	0f be d8             	movsbl %al,%ebx
    e056:	8b 85 44 f4 ff ff    	mov    -0xbbc(%rbp),%eax
    e05c:	48 63 d0             	movslq %eax,%rdx
    e05f:	48 8d 05 ba 0b 01 00 	lea    0x10bba(%rip),%rax        # 1ec20 <g_766>
    e066:	48 39 85 18 f3 ff ff 	cmp    %rax,-0xce8(%rbp)
    e06d:	0f 95 c0             	setne  %al
    e070:	0f b6 c8             	movzbl %al,%ecx
    e073:	48 8b 85 48 f2 ff ff 	mov    -0xdb8(%rbp),%rax
    e07a:	48 89 08             	mov    %rcx,(%rax)
    e07d:	48 8b 85 48 f2 ff ff 	mov    -0xdb8(%rbp),%rax
    e084:	48 8b 00             	mov    (%rax),%rax
    e087:	48 85 c0             	test   %rax,%rax
    e08a:	74 16                	je     e0a2 <func_29+0x2150>
    e08c:	48 8b 05 25 3e 01 00 	mov    0x13e25(%rip),%rax        # 21eb8 <g_1363>
    e093:	48 8b 00             	mov    (%rax),%rax
    e096:	48 85 c0             	test   %rax,%rax
    e099:	74 07                	je     e0a2 <func_29+0x2150>
    e09b:	b8 01 00 00 00       	mov    $0x1,%eax
    e0a0:	eb 05                	jmp    e0a7 <func_29+0x2155>
    e0a2:	b8 00 00 00 00       	mov    $0x0,%eax
    e0a7:	48 98                	cltq   
    e0a9:	48 89 d6             	mov    %rdx,%rsi
    e0ac:	48 89 c7             	mov    %rax,%rdi
    e0af:	e8 f4 b7 ff ff       	callq  98a8 <safe_sub_func_int64_t_s_s>
    e0b4:	48 8b 15 9d 3c 01 00 	mov    0x13c9d(%rip),%rdx        # 21d58 <g_322>
    e0bb:	0f b7 12             	movzwl (%rdx),%edx
    e0be:	48 0f bf d2          	movswq %dx,%rdx
    e0c2:	48 39 d0             	cmp    %rdx,%rax
    e0c5:	0f 9e c0             	setle  %al
    e0c8:	0f b6 c0             	movzbl %al,%eax
    e0cb:	39 c3                	cmp    %eax,%ebx
    e0cd:	7e 11                	jle    e0e0 <func_29+0x218e>
    e0cf:	48 8b 05 3a 3d 01 00 	mov    0x13d3a(%rip),%rax        # 21e10 <g_580>
    e0d6:	48 8b 00             	mov    (%rax),%rax
    e0d9:	0f b6 00             	movzbl (%rax),%eax
    e0dc:	84 c0                	test   %al,%al
    e0de:	74 07                	je     e0e7 <func_29+0x2195>
    e0e0:	b8 01 00 00 00       	mov    $0x1,%eax
    e0e5:	eb 05                	jmp    e0ec <func_29+0x219a>
    e0e7:	b8 00 00 00 00       	mov    $0x0,%eax
    e0ec:	89 c7                	mov    %eax,%edi
    e0ee:	e8 a3 b4 ff ff       	callq  9596 <safe_unary_minus_func_int32_t_s>
    e0f3:	48 8b 05 0e 3d 01 00 	mov    0x13d0e(%rip),%rax        # 21e08 <g_581>
    e0fa:	0f b6 00             	movzbl (%rax),%eax
    e0fd:	83 c8 ac             	or     $0xffffffac,%eax
    e100:	0f b6 d0             	movzbl %al,%edx
    e103:	48 83 bd e8 f0 ff ff 	cmpq   $0x0,-0xf18(%rbp)
    e10a:	00 
    e10b:	0f 9e c0             	setle  %al
    e10e:	0f b6 c0             	movzbl %al,%eax
    e111:	48 39 c2             	cmp    %rax,%rdx
    e114:	0f 9f c0             	setg   %al
    e117:	0f b6 d0             	movzbl %al,%edx
    e11a:	48 8b 85 20 f3 ff ff 	mov    -0xce0(%rbp),%rax
    e121:	89 10                	mov    %edx,(%rax)
    e123:	8b 85 04 f1 ff ff    	mov    -0xefc(%rbp),%eax
    e129:	0f b7 c0             	movzwl %ax,%eax
    e12c:	be 06 00 00 00       	mov    $0x6,%esi
    e131:	89 c7                	mov    %eax,%edi
    e133:	e8 c7 bb ff ff       	callq  9cff <safe_add_func_uint16_t_u_u>
    e138:	0f b7 c0             	movzwl %ax,%eax
    e13b:	89 85 04 f1 ff ff    	mov    %eax,-0xefc(%rbp)
    e141:	8b 85 04 f1 ff ff    	mov    -0xefc(%rbp),%eax
    e147:	83 f8 07             	cmp    $0x7,%eax
    e14a:	0f 8e 88 fe ff ff    	jle    dfd8 <func_29+0x2086>
    e150:	48 83 bd e8 f0 ff ff 	cmpq   $0x0,-0xf18(%rbp)
    e157:	00 
    e158:	8b 05 42 13 01 00    	mov    0x11342(%rip),%eax        # 1f4a0 <g_509>
    e15e:	83 c0 01             	add    $0x1,%eax
    e161:	89 05 39 13 01 00    	mov    %eax,0x11339(%rip)        # 1f4a0 <g_509>
    e167:	8b 05 33 13 01 00    	mov    0x11333(%rip),%eax        # 1f4a0 <g_509>
    e16d:	83 f8 31             	cmp    $0x31,%eax
    e170:	0f 87 5c fc ff ff    	ja     ddd2 <func_29+0x1e80>
    e176:	e9 88 05 00 00       	jmpq   e703 <func_29+0x27b1>
    e17b:	90                   	nop
    e17c:	e9 6e df ff ff       	jmpq   c0ef <func_29+0x19d>
    e181:	c7 85 80 f7 ff ff b7 	movl   $0x6a7fe0b7,-0x880(%rbp)
    e188:	e0 7f 6a 
    e18b:	c7 85 84 f7 ff ff c8 	movl   $0x93ff2fc8,-0x87c(%rbp)
    e192:	2f ff 93 
    e195:	c7 85 88 f7 ff ff 00 	movl   $0x0,-0x878(%rbp)
    e19c:	00 00 00 
    e19f:	c7 85 8c f7 ff ff c8 	movl   $0x93ff2fc8,-0x874(%rbp)
    e1a6:	2f ff 93 
    e1a9:	c7 85 90 f7 ff ff b7 	movl   $0x6a7fe0b7,-0x870(%rbp)
    e1b0:	e0 7f 6a 
    e1b3:	c7 85 94 f7 ff ff b7 	movl   $0x6a7fe0b7,-0x86c(%rbp)
    e1ba:	e0 7f 6a 
    e1bd:	c7 85 98 f7 ff ff c8 	movl   $0x93ff2fc8,-0x868(%rbp)
    e1c4:	2f ff 93 
    e1c7:	c7 85 9c f7 ff ff 00 	movl   $0x0,-0x864(%rbp)
    e1ce:	00 00 00 
    e1d1:	c7 85 a0 f7 ff ff b7 	movl   $0x6a7fe0b7,-0x860(%rbp)
    e1d8:	e0 7f 6a 
    e1db:	c7 85 a4 f7 ff ff b7 	movl   $0x6a7fe0b7,-0x85c(%rbp)
    e1e2:	e0 7f 6a 
    e1e5:	c7 85 a8 f7 ff ff c8 	movl   $0x93ff2fc8,-0x858(%rbp)
    e1ec:	2f ff 93 
    e1ef:	c7 85 ac f7 ff ff 00 	movl   $0x0,-0x854(%rbp)
    e1f6:	00 00 00 
    e1f9:	c7 85 b0 f7 ff ff c8 	movl   $0x93ff2fc8,-0x850(%rbp)
    e200:	2f ff 93 
    e203:	c7 85 b4 f7 ff ff b7 	movl   $0x6a7fe0b7,-0x84c(%rbp)
    e20a:	e0 7f 6a 
    e20d:	c7 85 b8 f7 ff ff b7 	movl   $0x6a7fe0b7,-0x848(%rbp)
    e214:	e0 7f 6a 
    e217:	c7 85 bc f7 ff ff c8 	movl   $0x93ff2fc8,-0x844(%rbp)
    e21e:	2f ff 93 
    e221:	c7 85 c0 f7 ff ff b8 	movl   $0x8d8407b8,-0x840(%rbp)
    e228:	07 84 8d 
    e22b:	c7 85 c4 f7 ff ff c8 	movl   $0x93ff2fc8,-0x83c(%rbp)
    e232:	2f ff 93 
    e235:	c7 85 c8 f7 ff ff c8 	movl   $0x93ff2fc8,-0x838(%rbp)
    e23c:	2f ff 93 
    e23f:	c7 85 cc f7 ff ff b8 	movl   $0x8d8407b8,-0x834(%rbp)
    e246:	07 84 8d 
    e249:	c7 85 d0 f7 ff ff 0a 	movl   $0x95a5d50a,-0x830(%rbp)
    e250:	d5 a5 95 
    e253:	c7 85 d4 f7 ff ff b8 	movl   $0x8d8407b8,-0x82c(%rbp)
    e25a:	07 84 8d 
    e25d:	c7 85 d8 f7 ff ff c8 	movl   $0x93ff2fc8,-0x828(%rbp)
    e264:	2f ff 93 
    e267:	c7 85 dc f7 ff ff c8 	movl   $0x93ff2fc8,-0x824(%rbp)
    e26e:	2f ff 93 
    e271:	c7 85 e0 f7 ff ff c8 	movl   $0x93ff2fc8,-0x820(%rbp)
    e278:	2f ff 93 
    e27b:	c7 85 e4 f7 ff ff 0a 	movl   $0x95a5d50a,-0x81c(%rbp)
    e282:	d5 a5 95 
    e285:	c7 85 e8 f7 ff ff 00 	movl   $0x0,-0x818(%rbp)
    e28c:	00 00 00 
    e28f:	c7 85 ec f7 ff ff 00 	movl   $0x0,-0x814(%rbp)
    e296:	00 00 00 
    e299:	c7 85 f0 f7 ff ff 0a 	movl   $0x95a5d50a,-0x810(%rbp)
    e2a0:	d5 a5 95 
    e2a3:	c7 85 f4 f7 ff ff c8 	movl   $0x93ff2fc8,-0x80c(%rbp)
    e2aa:	2f ff 93 
    e2ad:	c7 85 f8 f7 ff ff 0a 	movl   $0x95a5d50a,-0x808(%rbp)
    e2b4:	d5 a5 95 
    e2b7:	c7 85 fc f7 ff ff 00 	movl   $0x0,-0x804(%rbp)
    e2be:	00 00 00 
    e2c1:	c7 85 00 f8 ff ff b8 	movl   $0x8d8407b8,-0x800(%rbp)
    e2c8:	07 84 8d 
    e2cb:	c7 85 04 f8 ff ff 0a 	movl   $0x95a5d50a,-0x7fc(%rbp)
    e2d2:	d5 a5 95 
    e2d5:	c7 85 08 f8 ff ff b8 	movl   $0x8d8407b8,-0x7f8(%rbp)
    e2dc:	07 84 8d 
    e2df:	c7 85 0c f8 ff ff c8 	movl   $0x93ff2fc8,-0x7f4(%rbp)
    e2e6:	2f ff 93 
    e2e9:	c7 85 10 f8 ff ff c8 	movl   $0x93ff2fc8,-0x7f0(%rbp)
    e2f0:	2f ff 93 
    e2f3:	c7 85 14 f8 ff ff b8 	movl   $0x8d8407b8,-0x7ec(%rbp)
    e2fa:	07 84 8d 
    e2fd:	c7 85 18 f8 ff ff 0a 	movl   $0x95a5d50a,-0x7e8(%rbp)
    e304:	d5 a5 95 
    e307:	c7 85 1c f8 ff ff b8 	movl   $0x8d8407b8,-0x7e4(%rbp)
    e30e:	07 84 8d 
    e311:	c7 85 20 f8 ff ff b7 	movl   $0x6a7fe0b7,-0x7e0(%rbp)
    e318:	e0 7f 6a 
    e31b:	c7 85 24 f8 ff ff c8 	movl   $0x93ff2fc8,-0x7dc(%rbp)
    e322:	2f ff 93 
    e325:	c7 85 28 f8 ff ff 00 	movl   $0x0,-0x7d8(%rbp)
    e32c:	00 00 00 
    e32f:	c7 85 2c f8 ff ff c8 	movl   $0x93ff2fc8,-0x7d4(%rbp)
    e336:	2f ff 93 
    e339:	c7 85 30 f8 ff ff b7 	movl   $0x6a7fe0b7,-0x7d0(%rbp)
    e340:	e0 7f 6a 
    e343:	c7 85 34 f8 ff ff b7 	movl   $0x6a7fe0b7,-0x7cc(%rbp)
    e34a:	e0 7f 6a 
    e34d:	c7 85 38 f8 ff ff c8 	movl   $0x93ff2fc8,-0x7c8(%rbp)
    e354:	2f ff 93 
    e357:	c7 85 3c f8 ff ff 00 	movl   $0x0,-0x7c4(%rbp)
    e35e:	00 00 00 
    e361:	48 8d 05 b8 3a 01 00 	lea    0x13ab8(%rip),%rax        # 21e20 <g_578>
    e368:	48 89 85 a8 f2 ff ff 	mov    %rax,-0xd58(%rbp)
    e36f:	48 c7 85 b0 f2 ff ff 	movq   $0x0,-0xd50(%rbp)
    e376:	00 00 00 00 
    e37a:	48 c7 85 b8 f2 ff ff 	movq   $0x0,-0xd48(%rbp)
    e381:	00 00 00 00 
    e385:	48 8d 05 d4 3a 01 00 	lea    0x13ad4(%rip),%rax        # 21e60 <g_644+0x20>
    e38c:	48 89 85 c0 f2 ff ff 	mov    %rax,-0xd40(%rbp)
    e393:	48 8d 05 fe 10 01 00 	lea    0x110fe(%rip),%rax        # 1f498 <g_371>
    e39a:	48 89 85 08 f2 ff ff 	mov    %rax,-0xdf8(%rbp)
    e3a1:	48 8d 85 08 f2 ff ff 	lea    -0xdf8(%rbp),%rax
    e3a8:	48 89 85 c8 f2 ff ff 	mov    %rax,-0xd38(%rbp)
    e3af:	48 c7 85 d0 f2 ff ff 	movq   $0x1,-0xd30(%rbp)
    e3b6:	01 00 00 00 
    e3ba:	48 8d 05 5f 10 01 00 	lea    0x1105f(%rip),%rax        # 1f420 <g_184>
    e3c1:	48 89 85 10 f2 ff ff 	mov    %rax,-0xdf0(%rbp)
    e3c8:	48 8d 85 10 f2 ff ff 	lea    -0xdf0(%rbp),%rax
    e3cf:	48 89 85 18 f2 ff ff 	mov    %rax,-0xde8(%rbp)
    e3d6:	48 8d 85 18 f2 ff ff 	lea    -0xde8(%rbp),%rax
    e3dd:	48 89 85 d8 f2 ff ff 	mov    %rax,-0xd28(%rbp)
    e3e4:	48 8d 05 19 10 01 00 	lea    0x11019(%rip),%rax        # 1f404 <g_113>
    e3eb:	48 89 85 e0 f2 ff ff 	mov    %rax,-0xd20(%rbp)
    e3f2:	c7 85 2c f1 ff ff 00 	movl   $0x0,-0xed4(%rbp)
    e3f9:	00 00 00 
    e3fc:	eb 74                	jmp    e472 <func_29+0x2520>
    e3fe:	c7 85 30 f1 ff ff 00 	movl   $0x0,-0xed0(%rbp)
    e405:	00 00 00 
    e408:	eb 58                	jmp    e462 <func_29+0x2510>
    e40a:	c7 85 34 f1 ff ff 00 	movl   $0x0,-0xecc(%rbp)
    e411:	00 00 00 
    e414:	eb 3c                	jmp    e452 <func_29+0x2500>
    e416:	8b 85 34 f1 ff ff    	mov    -0xecc(%rbp),%eax
    e41c:	48 98                	cltq   
    e41e:	8b 95 2c f1 ff ff    	mov    -0xed4(%rbp),%edx
    e424:	48 63 ca             	movslq %edx,%rcx
    e427:	8b 95 30 f1 ff ff    	mov    -0xed0(%rbp),%edx
    e42d:	48 63 d2             	movslq %edx,%rdx
    e430:	48 01 ca             	add    %rcx,%rdx
    e433:	48 01 d2             	add    %rdx,%rdx
    e436:	48 01 d0             	add    %rdx,%rax
    e439:	48 bb e7 a6 db 64 8d 	movabs $0x869c148d64dba6e7,%rbx
    e440:	14 9c 86 
    e443:	48 89 9c c5 40 f6 ff 	mov    %rbx,-0x9c0(%rbp,%rax,8)
    e44a:	ff 
    e44b:	83 85 34 f1 ff ff 01 	addl   $0x1,-0xecc(%rbp)
    e452:	83 bd 34 f1 ff ff 01 	cmpl   $0x1,-0xecc(%rbp)
    e459:	7e bb                	jle    e416 <func_29+0x24c4>
    e45b:	83 85 30 f1 ff ff 01 	addl   $0x1,-0xed0(%rbp)
    e462:	83 bd 30 f1 ff ff 00 	cmpl   $0x0,-0xed0(%rbp)
    e469:	7e 9f                	jle    e40a <func_29+0x24b8>
    e46b:	83 85 2c f1 ff ff 01 	addl   $0x1,-0xed4(%rbp)
    e472:	83 bd 2c f1 ff ff 00 	cmpl   $0x0,-0xed4(%rbp)
    e479:	7e 83                	jle    e3fe <func_29+0x24ac>
    e47b:	c7 85 2c f1 ff ff 00 	movl   $0x0,-0xed4(%rbp)
    e482:	00 00 00 
    e485:	eb 19                	jmp    e4a0 <func_29+0x254e>
    e487:	8b 85 2c f1 ff ff    	mov    -0xed4(%rbp),%eax
    e48d:	48 98                	cltq   
    e48f:	66 c7 84 45 b0 f5 ff 	movw   $0x94d,-0xa50(%rbp,%rax,2)
    e496:	ff 4d 09 
    e499:	83 85 2c f1 ff ff 01 	addl   $0x1,-0xed4(%rbp)
    e4a0:	83 bd 2c f1 ff ff 00 	cmpl   $0x0,-0xed4(%rbp)
    e4a7:	7e de                	jle    e487 <func_29+0x2535>
    e4a9:	c6 05 50 0f 01 00 00 	movb   $0x0,0x10f50(%rip)        # 1f400 <g_88>
    e4b0:	e9 d1 00 00 00       	jmpq   e586 <func_29+0x2634>
    e4b5:	48 8d 05 64 39 01 00 	lea    0x13964(%rip),%rax        # 21e20 <g_578>
    e4bc:	48 89 85 e8 f2 ff ff 	mov    %rax,-0xd18(%rbp)
    e4c3:	48 8d 85 40 f4 ff ff 	lea    -0xbc0(%rbp),%rax
    e4ca:	48 83 c0 10          	add    $0x10,%rax
    e4ce:	48 89 85 f0 f2 ff ff 	mov    %rax,-0xd10(%rbp)
    e4d5:	48 8d 05 fc 38 01 00 	lea    0x138fc(%rip),%rax        # 21dd8 <g_399+0x18>
    e4dc:	48 89 85 20 f2 ff ff 	mov    %rax,-0xde0(%rbp)
    e4e3:	48 8d 85 20 f2 ff ff 	lea    -0xde0(%rbp),%rax
    e4ea:	48 89 85 f8 f2 ff ff 	mov    %rax,-0xd08(%rbp)
    e4f1:	48 8d 05 88 0f 01 00 	lea    0x10f88(%rip),%rax        # 1f480 <g_293>
    e4f8:	48 89 85 00 f3 ff ff 	mov    %rax,-0xd00(%rbp)
    e4ff:	48 8d 85 00 f9 ff ff 	lea    -0x700(%rbp),%rax
    e506:	48 8d 15 d3 2e 01 00 	lea    0x12ed3(%rip),%rdx        # 213e0 <g_1964+0x1b40>
    e50d:	b9 60 00 00 00       	mov    $0x60,%ecx
    e512:	48 89 c7             	mov    %rax,%rdi
    e515:	48 89 d6             	mov    %rdx,%rsi
    e518:	f3 48 a5             	rep movsq %ds:(%rsi),%es:(%rdi)
    e51b:	c7 85 48 f1 ff ff fc 	movl   $0xfffffffc,-0xeb8(%rbp)
    e522:	ff ff ff 
    e525:	c7 85 4c f1 ff ff 22 	movl   $0x63bb5d22,-0xeb4(%rbp)
    e52c:	5d bb 63 
    e52f:	c7 85 50 f1 ff ff ad 	movl   $0x657f87ad,-0xeb0(%rbp)
    e536:	87 7f 65 
    e539:	c7 85 54 f1 ff ff 01 	movl   $0x1,-0xeac(%rbp)
    e540:	00 00 00 
    e543:	48 8d 85 d8 f1 ff ff 	lea    -0xe28(%rbp),%rax
    e54a:	48 89 85 08 f3 ff ff 	mov    %rax,-0xcf8(%rbp)
    e551:	48 b8 86 86 f6 86 86 	movabs $0x8686f68686f68686,%rax
    e558:	f6 86 86 
    e55b:	48 89 45 ce          	mov    %rax,-0x32(%rbp)
    e55f:	66 c7 45 d6 f6 86    	movw   $0x86f6,-0x2a(%rbp)
    e565:	c7 85 58 f1 ff ff ff 	movl   $0xffffffff,-0xea8(%rbp)
    e56c:	ff ff ff 
    e56f:	c6 85 f8 f0 ff ff 83 	movb   $0x83,-0xf08(%rbp)
    e576:	0f b6 05 83 0e 01 00 	movzbl 0x10e83(%rip),%eax        # 1f400 <g_88>
    e57d:	83 e8 01             	sub    $0x1,%eax
    e580:	88 05 7a 0e 01 00    	mov    %al,0x10e7a(%rip)        # 1f400 <g_88>
    e586:	0f b6 05 73 0e 01 00 	movzbl 0x10e73(%rip),%eax        # 1f400 <g_88>
    e58d:	3c e3                	cmp    $0xe3,%al
    e58f:	0f 8c 20 ff ff ff    	jl     e4b5 <func_29+0x2563>
    e595:	83 bd e4 f0 ff ff 00 	cmpl   $0x0,-0xf1c(%rbp)
    e59c:	90                   	nop
    e59d:	f3 0f 1e fa          	endbr64 
    e5a1:	48 8b 85 00 f2 ff ff 	mov    -0xe00(%rbp),%rax
    e5a8:	48 8b 00             	mov    (%rax),%rax
    e5ab:	8b 08                	mov    (%rax),%ecx
    e5ad:	48 83 bd 60 f2 ff ff 	cmpq   $0x0,-0xda0(%rbp)
    e5b4:	00 
    e5b5:	0f 95 c0             	setne  %al
    e5b8:	0f b6 d0             	movzbl %al,%edx
    e5bb:	48 8b 85 00 f2 ff ff 	mov    -0xe00(%rbp),%rax
    e5c2:	48 8b 00             	mov    (%rax),%rax
    e5c5:	21 ca                	and    %ecx,%edx
    e5c7:	89 10                	mov    %edx,(%rax)
    e5c9:	48 8d 05 c4 ba 00 00 	lea    0xbac4(%rip),%rax        # 1a094 <g_1118+0x34>
    e5d0:	48 89 05 b1 3f 01 00 	mov    %rax,0x13fb1(%rip)        # 22588 <g_1754>
    e5d7:	48 8b 05 aa 3f 01 00 	mov    0x13faa(%rip),%rax        # 22588 <g_1754>
    e5de:	8b 00                	mov    (%rax),%eax
    e5e0:	41 89 c4             	mov    %eax,%r12d
    e5e3:	48 8b 05 4e 37 01 00 	mov    0x1374e(%rip),%rax        # 21d38 <g_199>
    e5ea:	48 8b 00             	mov    (%rax),%rax
    e5ed:	0f b7 10             	movzwl (%rax),%edx
    e5f0:	83 ea 01             	sub    $0x1,%edx
    e5f3:	66 89 10             	mov    %dx,(%rax)
    e5f6:	48 8d 05 83 38 01 00 	lea    0x13883(%rip),%rax        # 21e80 <g_811>
    e5fd:	48 89 05 84 4c 01 00 	mov    %rax,0x14c84(%rip)        # 23288 <g_1764>
    e604:	48 8b 05 7d 4c 01 00 	mov    0x14c7d(%rip),%rax        # 23288 <g_1764>
    e60b:	48 89 05 7e 4c 01 00 	mov    %rax,0x14c7e(%rip)        # 23290 <g_1765>
    e612:	48 8b 05 77 4c 01 00 	mov    0x14c77(%rip),%rax        # 23290 <g_1765>
    e619:	48 39 85 d8 f2 ff ff 	cmp    %rax,-0xd28(%rbp)
    e620:	0f 94 c0             	sete   %al
    e623:	0f b6 c0             	movzbl %al,%eax
    e626:	be 07 00 00 00       	mov    $0x7,%esi
    e62b:	89 c7                	mov    %eax,%edi
    e62d:	e8 16 b8 ff ff       	callq  9e48 <safe_rshift_func_uint16_t_u_s>
    e632:	66 85 c0             	test   %ax,%ax
    e635:	0f 95 c0             	setne  %al
    e638:	0f b6 d8             	movzbl %al,%ebx
    e63b:	48 8b 85 e8 f0 ff ff 	mov    -0xf18(%rbp),%rax
    e642:	0f b6 d0             	movzbl %al,%edx
    e645:	48 8b 85 60 f2 ff ff 	mov    -0xda0(%rbp),%rax
    e64c:	48 8b 00             	mov    (%rax),%rax
    e64f:	8b 08                	mov    (%rax),%ecx
    e651:	48 8b 05 30 38 01 00 	mov    0x13830(%rip),%rax        # 21e88 <g_1217>
    e658:	48 8b 00             	mov    (%rax),%rax
    e65b:	88 08                	mov    %cl,(%rax)
    e65d:	0f b6 00             	movzbl (%rax),%eax
    e660:	89 c1                	mov    %eax,%ecx
    e662:	48 8b 85 00 f2 ff ff 	mov    -0xe00(%rbp),%rax
    e669:	48 8b 00             	mov    (%rax),%rax
    e66c:	8b 00                	mov    (%rax),%eax
    e66e:	21 c8                	and    %ecx,%eax
    e670:	0f b6 c0             	movzbl %al,%eax
    e673:	89 d6                	mov    %edx,%esi
    e675:	89 c7                	mov    %eax,%edi
    e677:	e8 17 b5 ff ff       	callq  9b93 <safe_mul_func_uint8_t_u_u>
    e67c:	8b 85 e4 f0 ff ff    	mov    -0xf1c(%rbp),%eax
    e682:	0f b7 c0             	movzwl %ax,%eax
    e685:	89 c7                	mov    %eax,%edi
    e687:	e8 5d b6 ff ff       	callq  9ce9 <safe_unary_minus_func_uint16_t_u>
    e68c:	0f b7 c0             	movzwl %ax,%eax
    e68f:	be 34 f8 00 00       	mov    $0xf834,%esi
    e694:	89 c7                	mov    %eax,%edi
    e696:	e8 a2 b6 ff ff       	callq  9d3d <safe_mul_func_uint16_t_u_u>
    e69b:	0f b7 d0             	movzwl %ax,%edx
    e69e:	48 83 bd 50 f2 ff ff 	cmpq   $0x0,-0xdb0(%rbp)
    e6a5:	00 
    e6a6:	0f 94 c0             	sete   %al
    e6a9:	89 c1                	mov    %eax,%ecx
    e6ab:	48 8b 85 e0 f2 ff ff 	mov    -0xd20(%rbp),%rax
    e6b2:	88 08                	mov    %cl,(%rax)
    e6b4:	48 8b 85 e0 f2 ff ff 	mov    -0xd20(%rbp),%rax
    e6bb:	0f b6 00             	movzbl (%rax),%eax
    e6be:	88 05 70 0d 01 00    	mov    %al,0x10d70(%rip)        # 1f434 <g_275+0x4>
    e6c4:	0f b6 05 69 0d 01 00 	movzbl 0x10d69(%rip),%eax        # 1f434 <g_275+0x4>
    e6cb:	0f be c0             	movsbl %al,%eax
    e6ce:	89 d6                	mov    %edx,%esi
    e6d0:	89 c7                	mov    %eax,%edi
    e6d2:	e8 17 ac ff ff       	callq  92ee <safe_lshift_func_int8_t_s_u>
    e6d7:	0f be c0             	movsbl %al,%eax
    e6da:	31 d8                	xor    %ebx,%eax
    e6dc:	39 85 e4 f0 ff ff    	cmp    %eax,-0xf1c(%rbp)
    e6e2:	0f 96 c0             	setbe  %al
    e6e5:	0f b6 c0             	movzbl %al,%eax
    e6e8:	44 89 e6             	mov    %r12d,%esi
    e6eb:	89 c7                	mov    %eax,%edi
    e6ed:	e8 33 b8 ff ff       	callq  9f25 <safe_div_func_uint32_t_u_u>
    e6f2:	89 c2                	mov    %eax,%edx
    e6f4:	48 8b 85 60 f2 ff ff 	mov    -0xda0(%rbp),%rax
    e6fb:	48 8b 00             	mov    (%rax),%rax
    e6fe:	89 10                	mov    %edx,(%rax)
    e700:	eb 01                	jmp    e703 <func_29+0x27b1>
    e702:	90                   	nop
    e703:	48 8b 85 e8 f0 ff ff 	mov    -0xf18(%rbp),%rax
    e70a:	e9 c1 00 00 00       	jmpq   e7d0 <func_29+0x287e>
    e70f:	48 8d 05 72 3e 01 00 	lea    0x13e72(%rip),%rax        # 22588 <g_1754>
    e716:	48 89 85 d0 f3 ff ff 	mov    %rax,-0xc30(%rbp)
    e71d:	48 8d 05 fc 41 01 00 	lea    0x141fc(%rip),%rax        # 22920 <g_1780>
    e724:	48 89 85 d8 f3 ff ff 	mov    %rax,-0xc28(%rbp)
    e72b:	48 8b 85 d0 f3 ff ff 	mov    -0xc30(%rbp),%rax
    e732:	48 8d 15 33 b9 00 00 	lea    0xb933(%rip),%rdx        # 1a06c <g_1118+0xc>
    e739:	48 89 10             	mov    %rdx,(%rax)
    e73c:	c6 05 f9 08 01 00 00 	movb   $0x0,0x108f9(%rip)        # 1f03c <g_41>
    e743:	90                   	nop
    e744:	0f b6 05 f1 08 01 00 	movzbl 0x108f1(%rip),%eax        # 1f03c <g_41>
    e74b:	3c 04                	cmp    $0x4,%al
    e74d:	77 14                	ja     e763 <func_29+0x2811>
    e74f:	48 c7 85 e0 f3 ff ff 	movq   $0xfffffffffffffff6,-0xc20(%rbp)
    e756:	f6 ff ff ff 
    e75a:	48 8b 85 e0 f3 ff ff 	mov    -0xc20(%rbp),%rax
    e761:	eb 6d                	jmp    e7d0 <func_29+0x287e>
    e763:	48 8b 05 be 41 01 00 	mov    0x141be(%rip),%rax        # 22928 <g_1780+0x8>
    e76a:	48 89 85 68 f2 ff ff 	mov    %rax,-0xd98(%rbp)
    e771:	48 8b 85 d8 f3 ff ff 	mov    -0xc28(%rbp),%rax
    e778:	48 8b 95 68 f2 ff ff 	mov    -0xd98(%rbp),%rdx
    e77f:	48 89 10             	mov    %rdx,(%rax)
    e782:	48 8b 05 f7 0c 01 00 	mov    0x10cf7(%rip),%rax        # 1f480 <g_293>
    e789:	be 05 00 00 00       	mov    $0x5,%esi
    e78e:	48 89 c7             	mov    %rax,%rdi
    e791:	e8 98 b8 ff ff       	callq  a02e <safe_add_func_uint64_t_u_u>
    e796:	48 89 05 e3 0c 01 00 	mov    %rax,0x10ce3(%rip)        # 1f480 <g_293>
    e79d:	48 8b 05 dc 0c 01 00 	mov    0x10cdc(%rip),%rax        # 1f480 <g_293>
    e7a4:	48 83 f8 22          	cmp    $0x22,%rax
    e7a8:	0f 87 61 ff ff ff    	ja     e70f <func_29+0x27bd>
    e7ae:	48 8b 85 60 f2 ff ff 	mov    -0xda0(%rbp),%rax
    e7b5:	48 8b 00             	mov    (%rax),%rax
    e7b8:	8b 10                	mov    (%rax),%edx
    e7ba:	48 8b 85 60 f2 ff ff 	mov    -0xda0(%rbp),%rax
    e7c1:	48 8b 00             	mov    (%rax),%rax
    e7c4:	83 e2 01             	and    $0x1,%edx
    e7c7:	89 10                	mov    %edx,(%rax)
    e7c9:	48 8b 85 e8 f0 ff ff 	mov    -0xf18(%rbp),%rax
    e7d0:	48 8b 5d d8          	mov    -0x28(%rbp),%rbx
    e7d4:	64 48 33 1c 25 28 00 	xor    %fs:0x28,%rbx
    e7db:	00 00 
    e7dd:	74 05                	je     e7e4 <func_29+0x2892>
    e7df:	e8 8c a8 ff ff       	callq  9070 <__stack_chk_fail@plt>
    e7e4:	48 81 c4 00 0f 00 00 	add    $0xf00,%rsp
    e7eb:	5b                   	pop    %rbx
    e7ec:	41 5c                	pop    %r12
    e7ee:	41 5d                	pop    %r13
    e7f0:	41 5e                	pop    %r14
    e7f2:	5d                   	pop    %rbp
    e7f3:	c3                   	retq   

000000000000e7f4 <func_34>:
    e7f4:	f3 0f 1e fa          	endbr64 
    e7f8:	55                   	push   %rbp
    e7f9:	48 89 e5             	mov    %rsp,%rbp
    e7fc:	48 81 ec 10 03 00 00 	sub    $0x310,%rsp
    e803:	89 f8                	mov    %edi,%eax
    e805:	89 b5 f8 fc ff ff    	mov    %esi,-0x308(%rbp)
    e80b:	89 95 f4 fc ff ff    	mov    %edx,-0x30c(%rbp)
    e811:	88 85 fc fc ff ff    	mov    %al,-0x304(%rbp)
    e817:	64 48 8b 04 25 28 00 	mov    %fs:0x28,%rax
    e81e:	00 00 
    e820:	48 89 45 f8          	mov    %rax,-0x8(%rbp)
    e824:	31 c0                	xor    %eax,%eax
    e826:	48 8d 05 0f 08 01 00 	lea    0x1080f(%rip),%rax        # 1f03c <g_41>
    e82d:	48 89 85 28 fd ff ff 	mov    %rax,-0x2d8(%rbp)
    e834:	48 8d 85 28 fd ff ff 	lea    -0x2d8(%rbp),%rax
    e83b:	48 89 85 40 fd ff ff 	mov    %rax,-0x2c0(%rbp)
    e842:	c7 85 a0 fd ff ff fe 	movl   $0xfffffffe,-0x260(%rbp)
    e849:	ff ff ff 
    e84c:	c7 85 a4 fd ff ff af 	movl   $0xca3003af,-0x25c(%rbp)
    e853:	03 30 ca 
    e856:	c7 85 a8 fd ff ff fe 	movl   $0xfffffffe,-0x258(%rbp)
    e85d:	ff ff ff 
    e860:	c7 85 ac fd ff ff af 	movl   $0xca3003af,-0x254(%rbp)
    e867:	03 30 ca 
    e86a:	c7 85 b0 fd ff ff fe 	movl   $0xfffffffe,-0x250(%rbp)
    e871:	ff ff ff 
    e874:	c7 85 b4 fd ff ff af 	movl   $0xca3003af,-0x24c(%rbp)
    e87b:	03 30 ca 
    e87e:	c7 85 b8 fd ff ff fe 	movl   $0xfffffffe,-0x248(%rbp)
    e885:	ff ff ff 
    e888:	c7 85 bc fd ff ff af 	movl   $0xca3003af,-0x244(%rbp)
    e88f:	03 30 ca 
    e892:	c7 85 c0 fd ff ff fe 	movl   $0xfffffffe,-0x240(%rbp)
    e899:	ff ff ff 
    e89c:	c7 85 c4 fd ff ff af 	movl   $0xca3003af,-0x23c(%rbp)
    e8a3:	03 30 ca 
    e8a6:	c7 85 10 fd ff ff 03 	movl   $0x3,-0x2f0(%rbp)
    e8ad:	00 00 00 
    e8b0:	c7 85 00 fd ff ff 01 	movl   $0x1,-0x300(%rbp)
    e8b7:	00 00 00 
    e8ba:	c7 85 14 fd ff ff 01 	movl   $0x1,-0x2ec(%rbp)
    e8c1:	00 00 00 
    e8c4:	c7 85 18 fd ff ff f9 	movl   $0xfffffff9,-0x2e8(%rbp)
    e8cb:	ff ff ff 
    e8ce:	48 8d 85 a0 fd ff ff 	lea    -0x260(%rbp),%rax
    e8d5:	48 83 c0 18          	add    $0x18,%rax
    e8d9:	48 89 85 30 fd ff ff 	mov    %rax,-0x2d0(%rbp)
    e8e0:	48 8d 85 30 fd ff ff 	lea    -0x2d0(%rbp),%rax
    e8e7:	48 89 85 38 fd ff ff 	mov    %rax,-0x2c8(%rbp)
    e8ee:	48 8d 05 2f 0b 01 00 	lea    0x10b2f(%rip),%rax        # 1f424 <g_246>
    e8f5:	48 89 85 48 fd ff ff 	mov    %rax,-0x2b8(%rbp)
    e8fc:	48 c7 85 50 fd ff ff 	movq   $0x0,-0x2b0(%rbp)
    e903:	00 00 00 00 
    e907:	48 8d 85 00 fd ff ff 	lea    -0x300(%rbp),%rax
    e90e:	48 89 85 58 fd ff ff 	mov    %rax,-0x2a8(%rbp)
    e915:	48 c7 85 60 fd ff ff 	movq   $0x0,-0x2a0(%rbp)
    e91c:	00 00 00 00 
    e920:	48 c7 85 68 fd ff ff 	movq   $0xfffffffffffffff8,-0x298(%rbp)
    e927:	f8 ff ff ff 
    e92b:	c7 85 1c fd ff ff 9c 	movl   $0x5a5d9d9c,-0x2e4(%rbp)
    e932:	9d 5d 5a 
    e935:	c7 85 04 fd ff ff 00 	movl   $0x0,-0x2fc(%rbp)
    e93c:	00 00 00 
    e93f:	eb 1a                	jmp    e95b <func_34+0x167>
    e941:	8b 85 04 fd ff ff    	mov    -0x2fc(%rbp),%eax
    e947:	48 98                	cltq   
    e949:	c7 84 85 94 fd ff ff 	movl   $0xffffffff,-0x26c(%rbp,%rax,4)
    e950:	ff ff ff ff 
    e954:	83 85 04 fd ff ff 01 	addl   $0x1,-0x2fc(%rbp)
    e95b:	83 bd 04 fd ff ff 02 	cmpl   $0x2,-0x2fc(%rbp)
    e962:	7e dd                	jle    e941 <func_34+0x14d>
    e964:	c7 85 04 fd ff ff 00 	movl   $0x0,-0x2fc(%rbp)
    e96b:	00 00 00 
    e96e:	e9 90 00 00 00       	jmpq   ea03 <func_34+0x20f>
    e973:	c7 85 08 fd ff ff 00 	movl   $0x0,-0x2f8(%rbp)
    e97a:	00 00 00 
    e97d:	eb 74                	jmp    e9f3 <func_34+0x1ff>
    e97f:	c7 85 0c fd ff ff 00 	movl   $0x0,-0x2f4(%rbp)
    e986:	00 00 00 
    e989:	eb 58                	jmp    e9e3 <func_34+0x1ef>
    e98b:	8b 85 0c fd ff ff    	mov    -0x2f4(%rbp),%eax
    e991:	48 63 f0             	movslq %eax,%rsi
    e994:	8b 85 04 fd ff ff    	mov    -0x2fc(%rbp),%eax
    e99a:	48 98                	cltq   
    e99c:	8b 95 08 fd ff ff    	mov    -0x2f8(%rbp),%edx
    e9a2:	48 63 ca             	movslq %edx,%rcx
    e9a5:	48 89 c2             	mov    %rax,%rdx
    e9a8:	48 c1 e2 03          	shl    $0x3,%rdx
    e9ac:	48 01 c2             	add    %rax,%rdx
    e9af:	48 8d 04 95 00 00 00 	lea    0x0(,%rdx,4),%rax
    e9b6:	00 
    e9b7:	48 89 c2             	mov    %rax,%rdx
    e9ba:	48 89 c8             	mov    %rcx,%rax
    e9bd:	48 01 c0             	add    %rax,%rax
    e9c0:	48 01 c8             	add    %rcx,%rax
    e9c3:	48 01 c0             	add    %rax,%rax
    e9c6:	48 01 d0             	add    %rdx,%rax
    e9c9:	48 8d 14 30          	lea    (%rax,%rsi,1),%rdx
    e9cd:	48 8d 85 94 fd ff ff 	lea    -0x26c(%rbp),%rax
    e9d4:	48 89 84 d5 d0 fe ff 	mov    %rax,-0x130(%rbp,%rdx,8)
    e9db:	ff 
    e9dc:	83 85 0c fd ff ff 01 	addl   $0x1,-0x2f4(%rbp)
    e9e3:	83 bd 0c fd ff ff 05 	cmpl   $0x5,-0x2f4(%rbp)
    e9ea:	7e 9f                	jle    e98b <func_34+0x197>
    e9ec:	83 85 08 fd ff ff 01 	addl   $0x1,-0x2f8(%rbp)
    e9f3:	83 bd 08 fd ff ff 05 	cmpl   $0x5,-0x2f8(%rbp)
    e9fa:	7e 83                	jle    e97f <func_34+0x18b>
    e9fc:	83 85 04 fd ff ff 01 	addl   $0x1,-0x2fc(%rbp)
    ea03:	83 bd 04 fd ff ff 00 	cmpl   $0x0,-0x2fc(%rbp)
    ea0a:	0f 8e 63 ff ff ff    	jle    e973 <func_34+0x17f>
    ea10:	c6 85 fc fc ff ff 00 	movb   $0x0,-0x304(%rbp)
    ea17:	e9 63 02 00 00       	jmpq   ec7f <func_34+0x48b>
    ea1c:	48 8d 85 28 fd ff ff 	lea    -0x2d8(%rbp),%rax
    ea23:	48 89 85 70 fd ff ff 	mov    %rax,-0x290(%rbp)
    ea2a:	c7 85 20 fd ff ff 52 	movl   $0x54249152,-0x2e0(%rbp)
    ea31:	91 24 54 
    ea34:	c7 85 24 fd ff ff 40 	movl   $0x75302040,-0x2dc(%rbp)
    ea3b:	20 30 75 
    ea3e:	48 8d 85 28 fd ff ff 	lea    -0x2d8(%rbp),%rax
    ea45:	48 89 85 78 fd ff ff 	mov    %rax,-0x288(%rbp)
    ea4c:	48 8d 05 2d 0a 01 00 	lea    0x10a2d(%rip),%rax        # 1f480 <g_293>
    ea53:	48 89 85 40 fe ff ff 	mov    %rax,-0x1c0(%rbp)
    ea5a:	48 8d 05 1f 0a 01 00 	lea    0x10a1f(%rip),%rax        # 1f480 <g_293>
    ea61:	48 89 85 48 fe ff ff 	mov    %rax,-0x1b8(%rbp)
    ea68:	48 8d 05 11 0a 01 00 	lea    0x10a11(%rip),%rax        # 1f480 <g_293>
    ea6f:	48 89 85 50 fe ff ff 	mov    %rax,-0x1b0(%rbp)
    ea76:	48 8d 05 03 0a 01 00 	lea    0x10a03(%rip),%rax        # 1f480 <g_293>
    ea7d:	48 89 85 58 fe ff ff 	mov    %rax,-0x1a8(%rbp)
    ea84:	48 8d 05 f5 09 01 00 	lea    0x109f5(%rip),%rax        # 1f480 <g_293>
    ea8b:	48 89 85 60 fe ff ff 	mov    %rax,-0x1a0(%rbp)
    ea92:	48 8d 05 e7 09 01 00 	lea    0x109e7(%rip),%rax        # 1f480 <g_293>
    ea99:	48 89 85 68 fe ff ff 	mov    %rax,-0x198(%rbp)
    eaa0:	48 8d 05 d9 09 01 00 	lea    0x109d9(%rip),%rax        # 1f480 <g_293>
    eaa7:	48 89 85 70 fe ff ff 	mov    %rax,-0x190(%rbp)
    eaae:	48 8d 05 cb 09 01 00 	lea    0x109cb(%rip),%rax        # 1f480 <g_293>
    eab5:	48 89 85 78 fe ff ff 	mov    %rax,-0x188(%rbp)
    eabc:	48 8d 05 bd 09 01 00 	lea    0x109bd(%rip),%rax        # 1f480 <g_293>
    eac3:	48 89 85 80 fe ff ff 	mov    %rax,-0x180(%rbp)
    eaca:	48 8d 05 af 09 01 00 	lea    0x109af(%rip),%rax        # 1f480 <g_293>
    ead1:	48 89 85 88 fe ff ff 	mov    %rax,-0x178(%rbp)
    ead8:	48 8d 05 a1 09 01 00 	lea    0x109a1(%rip),%rax        # 1f480 <g_293>
    eadf:	48 89 85 90 fe ff ff 	mov    %rax,-0x170(%rbp)
    eae6:	48 8d 05 93 09 01 00 	lea    0x10993(%rip),%rax        # 1f480 <g_293>
    eaed:	48 89 85 98 fe ff ff 	mov    %rax,-0x168(%rbp)
    eaf4:	48 8d 05 85 09 01 00 	lea    0x10985(%rip),%rax        # 1f480 <g_293>
    eafb:	48 89 85 a0 fe ff ff 	mov    %rax,-0x160(%rbp)
    eb02:	48 8d 05 77 09 01 00 	lea    0x10977(%rip),%rax        # 1f480 <g_293>
    eb09:	48 89 85 a8 fe ff ff 	mov    %rax,-0x158(%rbp)
    eb10:	48 8d 05 69 09 01 00 	lea    0x10969(%rip),%rax        # 1f480 <g_293>
    eb17:	48 89 85 b0 fe ff ff 	mov    %rax,-0x150(%rbp)
    eb1e:	48 8d 05 5b 09 01 00 	lea    0x1095b(%rip),%rax        # 1f480 <g_293>
    eb25:	48 89 85 b8 fe ff ff 	mov    %rax,-0x148(%rbp)
    eb2c:	48 8d 05 4d 09 01 00 	lea    0x1094d(%rip),%rax        # 1f480 <g_293>
    eb33:	48 89 85 c0 fe ff ff 	mov    %rax,-0x140(%rbp)
    eb3a:	48 8d 05 3f 09 01 00 	lea    0x1093f(%rip),%rax        # 1f480 <g_293>
    eb41:	48 89 85 c8 fe ff ff 	mov    %rax,-0x138(%rbp)
    eb48:	48 c7 85 80 fd ff ff 	movq   $0x0,-0x280(%rbp)
    eb4f:	00 00 00 00 
    eb53:	c7 85 d0 fd ff ff 93 	movl   $0xa9c43593,-0x230(%rbp)
    eb5a:	35 c4 a9 
    eb5d:	c7 85 d4 fd ff ff ef 	movl   $0xc62b2aef,-0x22c(%rbp)
    eb64:	2a 2b c6 
    eb67:	c7 85 d8 fd ff ff 93 	movl   $0xa9c43593,-0x228(%rbp)
    eb6e:	35 c4 a9 
    eb71:	c7 85 dc fd ff ff 93 	movl   $0xa9c43593,-0x224(%rbp)
    eb78:	35 c4 a9 
    eb7b:	c7 85 e0 fd ff ff ef 	movl   $0xc62b2aef,-0x220(%rbp)
    eb82:	2a 2b c6 
    eb85:	c7 85 e4 fd ff ff 93 	movl   $0xa9c43593,-0x21c(%rbp)
    eb8c:	35 c4 a9 
    eb8f:	c7 85 e8 fd ff ff 93 	movl   $0xa9c43593,-0x218(%rbp)
    eb96:	35 c4 a9 
    eb99:	c7 85 ec fd ff ff ef 	movl   $0xc62b2aef,-0x214(%rbp)
    eba0:	2a 2b c6 
    eba3:	c7 85 f0 fd ff ff 93 	movl   $0xa9c43593,-0x210(%rbp)
    ebaa:	35 c4 a9 
    ebad:	c7 85 f4 fd ff ff 93 	movl   $0xa9c43593,-0x20c(%rbp)
    ebb4:	35 c4 a9 
    ebb7:	c7 85 f8 fd ff ff ef 	movl   $0xc62b2aef,-0x208(%rbp)
    ebbe:	2a 2b c6 
    ebc1:	c7 85 fc fd ff ff 93 	movl   $0xa9c43593,-0x204(%rbp)
    ebc8:	35 c4 a9 
    ebcb:	c7 85 00 fe ff ff 93 	movl   $0xa9c43593,-0x200(%rbp)
    ebd2:	35 c4 a9 
    ebd5:	c7 85 04 fe ff ff ef 	movl   $0xc62b2aef,-0x1fc(%rbp)
    ebdc:	2a 2b c6 
    ebdf:	c7 85 08 fe ff ff 93 	movl   $0xa9c43593,-0x1f8(%rbp)
    ebe6:	35 c4 a9 
    ebe9:	c7 85 0c fe ff ff 93 	movl   $0xa9c43593,-0x1f4(%rbp)
    ebf0:	35 c4 a9 
    ebf3:	c7 85 10 fe ff ff ef 	movl   $0xc62b2aef,-0x1f0(%rbp)
    ebfa:	2a 2b c6 
    ebfd:	c7 85 14 fe ff ff 93 	movl   $0xa9c43593,-0x1ec(%rbp)
    ec04:	35 c4 a9 
    ec07:	c7 85 18 fe ff ff 93 	movl   $0xa9c43593,-0x1e8(%rbp)
    ec0e:	35 c4 a9 
    ec11:	c7 85 1c fe ff ff ef 	movl   $0xc62b2aef,-0x1e4(%rbp)
    ec18:	2a 2b c6 
    ec1b:	c7 85 20 fe ff ff 93 	movl   $0xa9c43593,-0x1e0(%rbp)
    ec22:	35 c4 a9 
    ec25:	c7 85 24 fe ff ff 93 	movl   $0xa9c43593,-0x1dc(%rbp)
    ec2c:	35 c4 a9 
    ec2f:	c7 85 28 fe ff ff ef 	movl   $0xc62b2aef,-0x1d8(%rbp)
    ec36:	2a 2b c6 
    ec39:	c7 85 2c fe ff ff 93 	movl   $0xa9c43593,-0x1d4(%rbp)
    ec40:	35 c4 a9 
    ec43:	c7 85 30 fe ff ff 93 	movl   $0xa9c43593,-0x1d0(%rbp)
    ec4a:	35 c4 a9 
    ec4d:	c7 85 34 fe ff ff ef 	movl   $0xc62b2aef,-0x1cc(%rbp)
    ec54:	2a 2b c6 
    ec57:	c7 85 38 fe ff ff 93 	movl   $0xa9c43593,-0x1c8(%rbp)
    ec5e:	35 c4 a9 
    ec61:	48 8d 85 38 fd ff ff 	lea    -0x2c8(%rbp),%rax
    ec68:	48 89 85 88 fd ff ff 	mov    %rax,-0x278(%rbp)
    ec6f:	0f b6 85 fc fc ff ff 	movzbl -0x304(%rbp),%eax
    ec76:	83 e8 01             	sub    $0x1,%eax
    ec79:	88 85 fc fc ff ff    	mov    %al,-0x304(%rbp)
    ec7f:	80 bd fc fc ff ff e5 	cmpb   $0xe5,-0x304(%rbp)
    ec86:	0f 8d 90 fd ff ff    	jge    ea1c <func_34+0x228>
    ec8c:	83 85 1c fd ff ff 01 	addl   $0x1,-0x2e4(%rbp)
    ec93:	48 c7 05 e2 07 01 00 	movq   $0xfffffffffffffff1,0x107e2(%rip)        # 1f480 <g_293>
    ec9a:	f1 ff ff ff 
    ec9e:	eb 24                	jmp    ecc4 <func_34+0x4d0>
    eca0:	80 bd fc fc ff ff 00 	cmpb   $0x0,-0x304(%rbp)
    eca7:	75 2a                	jne    ecd3 <func_34+0x4df>
    eca9:	48 8b 05 d0 07 01 00 	mov    0x107d0(%rip),%rax        # 1f480 <g_293>
    ecb0:	be 01 00 00 00       	mov    $0x1,%esi
    ecb5:	48 89 c7             	mov    %rax,%rdi
    ecb8:	e8 84 ab ff ff       	callq  9841 <safe_add_func_int64_t_s_s>
    ecbd:	48 89 05 bc 07 01 00 	mov    %rax,0x107bc(%rip)        # 1f480 <g_293>
    ecc4:	48 8b 05 b5 07 01 00 	mov    0x107b5(%rip),%rax        # 1f480 <g_293>
    eccb:	48 83 f8 33          	cmp    $0x33,%rax
    eccf:	76 cf                	jbe    eca0 <func_34+0x4ac>
    ecd1:	eb 01                	jmp    ecd4 <func_34+0x4e0>
    ecd3:	90                   	nop
    ecd4:	48 8b 05 2d 31 01 00 	mov    0x1312d(%rip),%rax        # 21e08 <g_581>
    ecdb:	0f b6 00             	movzbl (%rax),%eax
    ecde:	48 8b 7d f8          	mov    -0x8(%rbp),%rdi
    ece2:	64 48 33 3c 25 28 00 	xor    %fs:0x28,%rdi
    ece9:	00 00 
    eceb:	74 05                	je     ecf2 <func_34+0x4fe>
    eced:	e8 7e a3 ff ff       	callq  9070 <__stack_chk_fail@plt>
    ecf2:	c9                   	leaveq 
    ecf3:	c3                   	retq   

000000000000ecf4 <func_47>:
    ecf4:	f3 0f 1e fa          	endbr64 
    ecf8:	55                   	push   %rbp
    ecf9:	48 89 e5             	mov    %rsp,%rbp
    ecfc:	41 56                	push   %r14
    ecfe:	41 55                	push   %r13
    ed00:	41 54                	push   %r12
    ed02:	53                   	push   %rbx
    ed03:	48 81 ec 20 0a 00 00 	sub    $0xa20,%rsp
    ed0a:	48 89 bd d8 f5 ff ff 	mov    %rdi,-0xa28(%rbp)
    ed11:	89 f0                	mov    %esi,%eax
    ed13:	48 89 95 c8 f5 ff ff 	mov    %rdx,-0xa38(%rbp)
    ed1a:	48 89 8d c0 f5 ff ff 	mov    %rcx,-0xa40(%rbp)
    ed21:	66 89 85 d4 f5 ff ff 	mov    %ax,-0xa2c(%rbp)
    ed28:	64 48 8b 04 25 28 00 	mov    %fs:0x28,%rax
    ed2f:	00 00 
    ed31:	48 89 45 d8          	mov    %rax,-0x28(%rbp)
    ed35:	31 c0                	xor    %eax,%eax
    ed37:	66 c7 85 e4 f5 ff ff 	movw   $0x6,-0xa1c(%rbp)
    ed3e:	06 00 
    ed40:	c7 85 ec f5 ff ff ff 	movl   $0xffffffff,-0xa14(%rbp)
    ed47:	ff ff ff 
    ed4a:	48 8d 05 b7 06 01 00 	lea    0x106b7(%rip),%rax        # 1f408 <g_143>
    ed51:	48 89 85 d0 f7 ff ff 	mov    %rax,-0x830(%rbp)
    ed58:	48 8d 05 a9 06 01 00 	lea    0x106a9(%rip),%rax        # 1f408 <g_143>
    ed5f:	48 89 85 d8 f7 ff ff 	mov    %rax,-0x828(%rbp)
    ed66:	48 8d 05 9b 06 01 00 	lea    0x1069b(%rip),%rax        # 1f408 <g_143>
    ed6d:	48 89 85 e0 f7 ff ff 	mov    %rax,-0x820(%rbp)
    ed74:	48 8d 05 8d 06 01 00 	lea    0x1068d(%rip),%rax        # 1f408 <g_143>
    ed7b:	48 89 85 e8 f7 ff ff 	mov    %rax,-0x818(%rbp)
    ed82:	48 8d 05 7f 06 01 00 	lea    0x1067f(%rip),%rax        # 1f408 <g_143>
    ed89:	48 89 85 f0 f7 ff ff 	mov    %rax,-0x810(%rbp)
    ed90:	48 8d 05 71 06 01 00 	lea    0x10671(%rip),%rax        # 1f408 <g_143>
    ed97:	48 89 85 f8 f7 ff ff 	mov    %rax,-0x808(%rbp)
    ed9e:	48 8d 05 63 06 01 00 	lea    0x10663(%rip),%rax        # 1f408 <g_143>
    eda5:	48 89 85 00 f8 ff ff 	mov    %rax,-0x800(%rbp)
    edac:	48 8d 05 55 06 01 00 	lea    0x10655(%rip),%rax        # 1f408 <g_143>
    edb3:	48 89 85 08 f8 ff ff 	mov    %rax,-0x7f8(%rbp)
    edba:	c6 85 e3 f5 ff ff f7 	movb   $0xf7,-0xa1d(%rbp)
    edc1:	c7 85 f0 f5 ff ff 29 	movl   $0x6423e129,-0xa10(%rbp)
    edc8:	e1 23 64 
    edcb:	c7 85 1c f6 ff ff ff 	movl   $0xffffffff,-0x9e4(%rbp)
    edd2:	ff ff ff 
    edd5:	c7 85 a0 f8 ff ff 30 	movl   $0xc2ce8d30,-0x760(%rbp)
    eddc:	8d ce c2 
    eddf:	c7 85 a4 f8 ff ff fb 	movl   $0xfffffffb,-0x75c(%rbp)
    ede6:	ff ff ff 
    ede9:	c7 85 a8 f8 ff ff fb 	movl   $0xfffffffb,-0x758(%rbp)
    edf0:	ff ff ff 
    edf3:	c7 85 ac f8 ff ff 30 	movl   $0xc2ce8d30,-0x754(%rbp)
    edfa:	8d ce c2 
    edfd:	c7 85 b0 f8 ff ff fb 	movl   $0xfffffffb,-0x750(%rbp)
    ee04:	ff ff ff 
    ee07:	c7 85 b4 f8 ff ff fb 	movl   $0xfffffffb,-0x74c(%rbp)
    ee0e:	ff ff ff 
    ee11:	c7 85 b8 f8 ff ff 30 	movl   $0xc2ce8d30,-0x748(%rbp)
    ee18:	8d ce c2 
    ee1b:	c7 85 bc f8 ff ff fb 	movl   $0xfffffffb,-0x744(%rbp)
    ee22:	ff ff ff 
    ee25:	c7 85 c0 f8 ff ff fb 	movl   $0xfffffffb,-0x740(%rbp)
    ee2c:	ff ff ff 
    ee2f:	c7 85 c4 f8 ff ff 30 	movl   $0xc2ce8d30,-0x73c(%rbp)
    ee36:	8d ce c2 
    ee39:	c7 85 c8 f8 ff ff fb 	movl   $0xfffffffb,-0x738(%rbp)
    ee40:	ff ff ff 
    ee43:	c7 85 cc f8 ff ff fb 	movl   $0xfffffffb,-0x734(%rbp)
    ee4a:	ff ff ff 
    ee4d:	c7 85 d0 f8 ff ff 30 	movl   $0xc2ce8d30,-0x730(%rbp)
    ee54:	8d ce c2 
    ee57:	c7 85 d4 f8 ff ff fb 	movl   $0xfffffffb,-0x72c(%rbp)
    ee5e:	ff ff ff 
    ee61:	c7 85 d8 f8 ff ff fb 	movl   $0xfffffffb,-0x728(%rbp)
    ee68:	ff ff ff 
    ee6b:	c7 85 dc f8 ff ff 30 	movl   $0xc2ce8d30,-0x724(%rbp)
    ee72:	8d ce c2 
    ee75:	c7 85 e0 f8 ff ff fb 	movl   $0xfffffffb,-0x720(%rbp)
    ee7c:	ff ff ff 
    ee7f:	c7 85 e4 f8 ff ff fb 	movl   $0xfffffffb,-0x71c(%rbp)
    ee86:	ff ff ff 
    ee89:	c7 85 e8 f8 ff ff 30 	movl   $0xc2ce8d30,-0x718(%rbp)
    ee90:	8d ce c2 
    ee93:	c7 85 ec f8 ff ff fb 	movl   $0xfffffffb,-0x714(%rbp)
    ee9a:	ff ff ff 
    ee9d:	c7 85 f0 f8 ff ff fb 	movl   $0xfffffffb,-0x710(%rbp)
    eea4:	ff ff ff 
    eea7:	c7 85 f4 f8 ff ff 30 	movl   $0xc2ce8d30,-0x70c(%rbp)
    eeae:	8d ce c2 
    eeb1:	c7 85 f8 f8 ff ff fb 	movl   $0xfffffffb,-0x708(%rbp)
    eeb8:	ff ff ff 
    eebb:	c7 85 fc f8 ff ff fb 	movl   $0xfffffffb,-0x704(%rbp)
    eec2:	ff ff ff 
    eec5:	c7 85 00 f9 ff ff 30 	movl   $0xc2ce8d30,-0x700(%rbp)
    eecc:	8d ce c2 
    eecf:	c7 85 04 f9 ff ff fb 	movl   $0xfffffffb,-0x6fc(%rbp)
    eed6:	ff ff ff 
    eed9:	c7 85 08 f9 ff ff fb 	movl   $0xfffffffb,-0x6f8(%rbp)
    eee0:	ff ff ff 
    eee3:	c7 85 0c f9 ff ff 30 	movl   $0xc2ce8d30,-0x6f4(%rbp)
    eeea:	8d ce c2 
    eeed:	c7 85 10 f9 ff ff fb 	movl   $0xfffffffb,-0x6f0(%rbp)
    eef4:	ff ff ff 
    eef7:	c7 85 14 f9 ff ff fb 	movl   $0xfffffffb,-0x6ec(%rbp)
    eefe:	ff ff ff 
    ef01:	c7 85 18 f9 ff ff 30 	movl   $0xc2ce8d30,-0x6e8(%rbp)
    ef08:	8d ce c2 
    ef0b:	c7 85 1c f9 ff ff fb 	movl   $0xfffffffb,-0x6e4(%rbp)
    ef12:	ff ff ff 
    ef15:	c7 85 20 f9 ff ff fb 	movl   $0xfffffffb,-0x6e0(%rbp)
    ef1c:	ff ff ff 
    ef1f:	c7 85 24 f9 ff ff 30 	movl   $0xc2ce8d30,-0x6dc(%rbp)
    ef26:	8d ce c2 
    ef29:	c7 85 28 f9 ff ff fb 	movl   $0xfffffffb,-0x6d8(%rbp)
    ef30:	ff ff ff 
    ef33:	c7 85 2c f9 ff ff fb 	movl   $0xfffffffb,-0x6d4(%rbp)
    ef3a:	ff ff ff 
    ef3d:	c7 85 30 f9 ff ff 30 	movl   $0xc2ce8d30,-0x6d0(%rbp)
    ef44:	8d ce c2 
    ef47:	c7 85 34 f9 ff ff fb 	movl   $0xfffffffb,-0x6cc(%rbp)
    ef4e:	ff ff ff 
    ef51:	c7 85 38 f9 ff ff fb 	movl   $0xfffffffb,-0x6c8(%rbp)
    ef58:	ff ff ff 
    ef5b:	c7 85 3c f9 ff ff 30 	movl   $0xc2ce8d30,-0x6c4(%rbp)
    ef62:	8d ce c2 
    ef65:	c7 85 40 f9 ff ff fb 	movl   $0xfffffffb,-0x6c0(%rbp)
    ef6c:	ff ff ff 
    ef6f:	c7 85 44 f9 ff ff fb 	movl   $0xfffffffb,-0x6bc(%rbp)
    ef76:	ff ff ff 
    ef79:	c7 85 48 f9 ff ff 30 	movl   $0xc2ce8d30,-0x6b8(%rbp)
    ef80:	8d ce c2 
    ef83:	c7 85 4c f9 ff ff fb 	movl   $0xfffffffb,-0x6b4(%rbp)
    ef8a:	ff ff ff 
    ef8d:	c7 85 50 f9 ff ff fb 	movl   $0xfffffffb,-0x6b0(%rbp)
    ef94:	ff ff ff 
    ef97:	48 8d 05 64 04 01 00 	lea    0x10464(%rip),%rax        # 1f402 <g_109>
    ef9e:	48 89 85 58 f6 ff ff 	mov    %rax,-0x9a8(%rbp)
    efa5:	66 c7 85 e8 f5 ff ff 	movw   $0x2842,-0xa18(%rbp)
    efac:	42 28 
    efae:	48 8d 85 60 f9 ff ff 	lea    -0x6a0(%rbp),%rax
    efb5:	48 8d 15 44 ba 00 00 	lea    0xba44(%rip),%rdx        # 1aa00 <g_1819+0x920>
    efbc:	b9 25 00 00 00       	mov    $0x25,%ecx
    efc1:	48 89 c7             	mov    %rax,%rdi
    efc4:	48 89 d6             	mov    %rdx,%rsi
    efc7:	f3 48 a5             	rep movsq %ds:(%rsi),%es:(%rdi)
    efca:	48 89 f2             	mov    %rsi,%rdx
    efcd:	48 89 f8             	mov    %rdi,%rax
    efd0:	8b 0a                	mov    (%rdx),%ecx
    efd2:	89 08                	mov    %ecx,(%rax)
    efd4:	48 8d 40 04          	lea    0x4(%rax),%rax
    efd8:	48 8d 52 04          	lea    0x4(%rdx),%rdx
    efdc:	c7 85 0c f6 ff ff 00 	movl   $0x0,-0x9f4(%rbp)
    efe3:	00 00 00 
    efe6:	eb 54                	jmp    f03c <func_47+0x348>
    efe8:	c7 85 10 f6 ff ff 00 	movl   $0x0,-0x9f0(%rbp)
    efef:	00 00 00 
    eff2:	eb 38                	jmp    f02c <func_47+0x338>
    eff4:	8b 85 10 f6 ff ff    	mov    -0x9f0(%rbp),%eax
    effa:	48 63 c8             	movslq %eax,%rcx
    effd:	8b 85 0c f6 ff ff    	mov    -0x9f4(%rbp),%eax
    f003:	48 63 d0             	movslq %eax,%rdx
    f006:	48 89 d0             	mov    %rdx,%rax
    f009:	48 01 c0             	add    %rax,%rax
    f00c:	48 01 d0             	add    %rdx,%rax
    f00f:	48 01 c0             	add    %rax,%rax
    f012:	48 8d 5d e0          	lea    -0x20(%rbp),%rbx
    f016:	48 01 d8             	add    %rbx,%rax
    f019:	48 01 c8             	add    %rcx,%rax
    f01c:	48 2d 60 08 00 00    	sub    $0x860,%rax
    f022:	c6 00 01             	movb   $0x1,(%rax)
    f025:	83 85 10 f6 ff ff 01 	addl   $0x1,-0x9f0(%rbp)
    f02c:	83 bd 10 f6 ff ff 05 	cmpl   $0x5,-0x9f0(%rbp)
    f033:	7e bf                	jle    eff4 <func_47+0x300>
    f035:	83 85 0c f6 ff ff 01 	addl   $0x1,-0x9f4(%rbp)
    f03c:	83 bd 0c f6 ff ff 04 	cmpl   $0x4,-0x9f4(%rbp)
    f043:	7e a3                	jle    efe8 <func_47+0x2f4>
    f045:	c7 85 0c f6 ff ff 00 	movl   $0x0,-0x9f4(%rbp)
    f04c:	00 00 00 
    f04f:	eb 1e                	jmp    f06f <func_47+0x37b>
    f051:	8b 85 0c f6 ff ff    	mov    -0x9f4(%rbp),%eax
    f057:	48 98                	cltq   
    f059:	48 8d 15 a8 2d 01 00 	lea    0x12da8(%rip),%rdx        # 21e08 <g_581>
    f060:	48 89 94 c5 10 f8 ff 	mov    %rdx,-0x7f0(%rbp,%rax,8)
    f067:	ff 
    f068:	83 85 0c f6 ff ff 01 	addl   $0x1,-0x9f4(%rbp)
    f06f:	83 bd 0c f6 ff ff 07 	cmpl   $0x7,-0x9f4(%rbp)
    f076:	7e d9                	jle    f051 <func_47+0x35d>
    f078:	90                   	nop
    f079:	c7 05 15 04 01 00 00 	movl   $0x0,0x10415(%rip)        # 1f498 <g_371>
    f080:	00 00 00 
    f083:	90                   	nop
    f084:	8b 05 0e 04 01 00    	mov    0x1040e(%rip),%eax        # 1f498 <g_371>
    f08a:	83 f8 0d             	cmp    $0xd,%eax
    f08d:	7e 0f                	jle    f09e <func_47+0x3aa>
    f08f:	48 8b 05 82 2d 01 00 	mov    0x12d82(%rip),%rax        # 21e18 <g_579>
    f096:	48 8b 00             	mov    (%rax),%rax
    f099:	e9 35 17 00 00       	jmpq   107d3 <func_47+0x1adf>
    f09e:	90                   	nop
    f09f:	48 c7 05 5e 03 01 00 	movq   $0xfffffffffffffff2,0x1035e(%rip)        # 1f408 <g_143>
    f0a6:	f2 ff ff ff 
    f0aa:	e9 af 08 00 00       	jmpq   f95e <func_47+0xc6a>
    f0af:	48 c7 85 a0 f6 ff ff 	movq   $0x0,-0x960(%rbp)
    f0b6:	00 00 00 00 
    f0ba:	48 8d 05 cf 03 01 00 	lea    0x103cf(%rip),%rax        # 1f490 <g_347>
    f0c1:	48 89 85 a8 f6 ff ff 	mov    %rax,-0x958(%rbp)
    f0c8:	c7 85 f4 f5 ff ff f6 	movl   $0xef9606f6,-0xa0c(%rbp)
    f0cf:	06 96 ef 
    f0d2:	c7 85 70 f7 ff ff ff 	movl   $0xffffffff,-0x890(%rbp)
    f0d9:	ff ff ff 
    f0dc:	c7 85 74 f7 ff ff ff 	movl   $0xffffffff,-0x88c(%rbp)
    f0e3:	ff ff ff 
    f0e6:	c7 85 78 f7 ff ff ff 	movl   $0xffffffff,-0x888(%rbp)
    f0ed:	ff ff ff 
    f0f0:	c7 85 7c f7 ff ff ff 	movl   $0xffffffff,-0x884(%rbp)
    f0f7:	ff ff ff 
    f0fa:	c7 85 2c f6 ff ff 46 	movl   $0xc5c5fd46,-0x9d4(%rbp)
    f101:	fd c5 c5 
    f104:	48 8d 05 c5 2c 01 00 	lea    0x12cc5(%rip),%rax        # 21dd0 <g_399+0x10>
    f10b:	48 89 85 b0 f6 ff ff 	mov    %rax,-0x950(%rbp)
    f112:	66 c7 05 07 03 01 00 	movw   $0x0,0x10307(%rip)        # 1f422 <g_194>
    f119:	00 00 
    f11b:	e9 ee 07 00 00       	jmpq   f90e <func_47+0xc1a>
    f120:	48 8d 05 69 03 01 00 	lea    0x10369(%rip),%rax        # 1f490 <g_347>
    f127:	48 89 85 b8 f6 ff ff 	mov    %rax,-0x948(%rbp)
    f12e:	c7 85 f8 f5 ff ff fb 	movl   $0xfffffffb,-0xa08(%rbp)
    f135:	ff ff ff 
    f138:	48 8d 05 6f 03 01 00 	lea    0x1036f(%rip),%rax        # 1f4ae <g_632+0x6>
    f13f:	48 89 85 c0 f6 ff ff 	mov    %rax,-0x940(%rbp)
    f146:	66 c7 85 e6 f5 ff ff 	movw   $0x577c,-0xa1a(%rbp)
    f14d:	7c 57 
    f14f:	48 8d 85 d0 f7 ff ff 	lea    -0x830(%rbp),%rax
    f156:	48 83 c0 38          	add    $0x38,%rax
    f15a:	48 89 85 c8 f6 ff ff 	mov    %rax,-0x938(%rbp)
    f161:	48 8d 05 18 03 01 00 	lea    0x10318(%rip),%rax        # 1f480 <g_293>
    f168:	48 89 85 d0 f6 ff ff 	mov    %rax,-0x930(%rbp)
    f16f:	48 8d 85 90 fa ff ff 	lea    -0x570(%rbp),%rax
    f176:	48 8d 15 c3 b9 00 00 	lea    0xb9c3(%rip),%rdx        # 1ab40 <g_1819+0xa60>
    f17d:	b9 78 00 00 00       	mov    $0x78,%ecx
    f182:	48 89 c7             	mov    %rax,%rdi
    f185:	48 89 d6             	mov    %rdx,%rsi
    f188:	f3 48 a5             	rep movsq %ds:(%rsi),%es:(%rdi)
    f18b:	c7 85 14 f6 ff ff 05 	movl   $0x5,-0x9ec(%rbp)
    f192:	00 00 00 
    f195:	66 83 bd d4 f5 ff ff 	cmpw   $0x0,-0xa2c(%rbp)
    f19c:	00 
    f19d:	0f 85 7e 07 00 00    	jne    f921 <func_47+0xc2d>
    f1a3:	0f b7 05 78 02 01 00 	movzwl 0x10278(%rip),%eax        # 1f422 <g_194>
    f1aa:	48 0f bf d8          	movswq %ax,%rbx
    f1ae:	48 8b 05 73 2c 01 00 	mov    0x12c73(%rip),%rax        # 21e28 <g_577>
    f1b5:	48 8b 00             	mov    (%rax),%rax
    f1b8:	48 8b 00             	mov    (%rax),%rax
    f1bb:	48 8b 00             	mov    (%rax),%rax
    f1be:	48 8b 00             	mov    (%rax),%rax
    f1c1:	0f b6 00             	movzbl (%rax),%eax
    f1c4:	44 0f b6 f0          	movzbl %al,%r14d
    f1c8:	48 8b 85 c8 f5 ff ff 	mov    -0xa38(%rbp),%rax
    f1cf:	44 0f be e0          	movsbl %al,%r12d
    f1d3:	0f b7 85 d4 f5 ff ff 	movzwl -0xa2c(%rbp),%eax
    f1da:	44 0f b6 e8          	movzbl %al,%r13d
    f1de:	8b 85 f8 f5 ff ff    	mov    -0xa08(%rbp),%eax
    f1e4:	3d b8 00 00 00       	cmp    $0xb8,%eax
    f1e9:	0f 95 c0             	setne  %al
    f1ec:	0f b6 c0             	movzbl %al,%eax
    f1ef:	48 89 c6             	mov    %rax,%rsi
    f1f2:	48 bf 5b 73 87 81 47 	movabs $0x84071e478187735b,%rdi
    f1f9:	1e 07 84 
    f1fc:	e8 a7 a6 ff ff       	callq  98a8 <safe_sub_func_int64_t_s_s>
    f201:	0f b6 c0             	movzbl %al,%eax
    f204:	44 89 ee             	mov    %r13d,%esi
    f207:	89 c7                	mov    %eax,%edi
    f209:	e8 6a a9 ff ff       	callq  9b78 <safe_sub_func_uint8_t_u_u>
    f20e:	0f b6 c0             	movzbl %al,%eax
    f211:	66 89 85 e4 f5 ff ff 	mov    %ax,-0xa1c(%rbp)
    f218:	0f b7 85 e4 f5 ff ff 	movzwl -0xa1c(%rbp),%eax
    f21f:	0f be c0             	movsbl %al,%eax
    f222:	44 89 e6             	mov    %r12d,%esi
    f225:	89 c7                	mov    %eax,%edi
    f227:	e8 e6 9f ff ff       	callq  9212 <safe_mul_func_int8_t_s_s>
    f22c:	0f be d0             	movsbl %al,%edx
    f22f:	8b 85 f8 f5 ff ff    	mov    -0xa08(%rbp),%eax
    f235:	39 c2                	cmp    %eax,%edx
    f237:	0f 9f c0             	setg   %al
    f23a:	0f b6 c0             	movzbl %al,%eax
    f23d:	41 39 c6             	cmp    %eax,%r14d
    f240:	0f 9e c0             	setle  %al
    f243:	0f b6 d0             	movzbl %al,%edx
    f246:	8b 85 ec f5 ff ff    	mov    -0xa14(%rbp),%eax
    f24c:	39 c2                	cmp    %eax,%edx
    f24e:	0f 9f c0             	setg   %al
    f251:	0f b6 c0             	movzbl %al,%eax
    f254:	48 89 de             	mov    %rbx,%rsi
    f257:	48 89 c7             	mov    %rax,%rdi
    f25a:	e8 21 ae ff ff       	callq  a080 <safe_mod_func_uint64_t_u_u>
    f25f:	98                   	cwtl   
    f260:	48 8b 95 c0 f6 ff ff 	mov    -0x940(%rbp),%rdx
    f267:	66 c7 02 42 f4       	movw   $0xf442,(%rdx)
    f26c:	89 c6                	mov    %eax,%esi
    f26e:	bf 00 00 00 00       	mov    $0x0,%edi
    f273:	e8 7d a1 ff ff       	callq  93f5 <safe_mul_func_int16_t_s_s>
    f278:	89 c2                	mov    %eax,%edx
    f27a:	48 8b 85 c8 f5 ff ff 	mov    -0xa38(%rbp),%rax
    f281:	31 d0                	xor    %edx,%eax
    f283:	0f bf d0             	movswl %ax,%edx
    f286:	8b 85 f8 f5 ff ff    	mov    -0xa08(%rbp),%eax
    f28c:	85 c0                	test   %eax,%eax
    f28e:	0f 94 c0             	sete   %al
    f291:	0f b6 c0             	movzbl %al,%eax
    f294:	89 d6                	mov    %edx,%esi
    f296:	89 c7                	mov    %eax,%edi
    f298:	e8 58 a1 ff ff       	callq  93f5 <safe_mul_func_int16_t_s_s>
    f29d:	48 8b 85 c8 f5 ff ff 	mov    -0xa38(%rbp),%rax
    f2a4:	0f be c0             	movsbl %al,%eax
    f2a7:	be 06 00 00 00       	mov    $0x6,%esi
    f2ac:	89 c7                	mov    %eax,%edi
    f2ae:	e8 ee 9f ff ff       	callq  92a1 <safe_lshift_func_int8_t_s_s>
    f2b3:	48 0f be d0          	movsbq %al,%rdx
    f2b7:	48 8b 85 b8 f6 ff ff 	mov    -0x948(%rbp),%rax
    f2be:	48 89 10             	mov    %rdx,(%rax)
    f2c1:	48 8b 85 b8 f6 ff ff 	mov    -0x948(%rbp),%rax
    f2c8:	48 8b 00             	mov    (%rax),%rax
    f2cb:	48 85 c0             	test   %rax,%rax
    f2ce:	0f 94 c0             	sete   %al
    f2d1:	0f b6 d0             	movzbl %al,%edx
    f2d4:	0f bf 85 d4 f5 ff ff 	movswl -0xa2c(%rbp),%eax
    f2db:	31 d0                	xor    %edx,%eax
    f2dd:	48 98                	cltq   
    f2df:	48 8b 95 c8 f5 ff ff 	mov    -0xa38(%rbp),%rdx
    f2e6:	48 89 d6             	mov    %rdx,%rsi
    f2e9:	48 89 c7             	mov    %rax,%rdi
    f2ec:	e8 8f ad ff ff       	callq  a080 <safe_mod_func_uint64_t_u_u>
    f2f1:	48 85 c0             	test   %rax,%rax
    f2f4:	74 13                	je     f309 <func_47+0x615>
    f2f6:	48 83 bd c8 f5 ff ff 	cmpq   $0x0,-0xa38(%rbp)
    f2fd:	00 
    f2fe:	0f 84 3d 03 00 00    	je     f641 <func_47+0x94d>
    f304:	e9 19 06 00 00       	jmpq   f922 <func_47+0xc2e>
    f309:	48 8d 05 78 3e 01 00 	lea    0x13e78(%rip),%rax        # 23188 <g_110>
    f310:	48 89 85 d8 f6 ff ff 	mov    %rax,-0x928(%rbp)
    f317:	c7 85 30 f6 ff ff 01 	movl   $0x1,-0x9d0(%rbp)
    f31e:	00 00 00 
    f321:	48 c7 85 c8 f5 ff ff 	movq   $0xffffffffffffffec,-0xa38(%rbp)
    f328:	ec ff ff ff 
    f32c:	e9 02 03 00 00       	jmpq   f633 <func_47+0x93f>
    f331:	66 c7 85 ea f5 ff ff 	movw   $0x0,-0xa16(%rbp)
    f338:	00 00 
    f33a:	c7 85 18 f6 ff ff 00 	movl   $0x0,-0x9e8(%rbp)
    f341:	00 00 00 
    f344:	eb 1a                	jmp    f360 <func_47+0x66c>
    f346:	8b 85 18 f6 ff ff    	mov    -0x9e8(%rbp),%eax
    f34c:	48 98                	cltq   
    f34e:	c7 84 85 a0 f7 ff ff 	movl   $0xffffffff,-0x860(%rbp,%rax,4)
    f355:	ff ff ff ff 
    f359:	83 85 18 f6 ff ff 01 	addl   $0x1,-0x9e8(%rbp)
    f360:	83 bd 18 f6 ff ff 01 	cmpl   $0x1,-0x9e8(%rbp)
    f367:	7e dd                	jle    f346 <func_47+0x652>
    f369:	48 8d 05 18 3e 01 00 	lea    0x13e18(%rip),%rax        # 23188 <g_110>
    f370:	48 89 05 09 2b 01 00 	mov    %rax,0x12b09(%rip)        # 21e80 <g_811>
    f377:	48 8b 05 02 2b 01 00 	mov    0x12b02(%rip),%rax        # 21e80 <g_811>
    f37e:	48 39 85 d8 f6 ff ff 	cmp    %rax,-0x928(%rbp)
    f385:	74 0e                	je     f395 <func_47+0x6a1>
    f387:	48 83 bd c8 f5 ff ff 	cmpq   $0x0,-0xa38(%rbp)
    f38e:	00 
    f38f:	0f 84 fb 00 00 00    	je     f490 <func_47+0x79c>
    f395:	48 8d 05 3c 2a 01 00 	lea    0x12a3c(%rip),%rax        # 21dd8 <g_399+0x18>
    f39c:	48 89 85 48 f7 ff ff 	mov    %rax,-0x8b8(%rbp)
    f3a3:	48 c7 85 50 f6 ff ff 	movq   $0x0,-0x9b0(%rbp)
    f3aa:	00 00 00 00 
    f3ae:	48 8d 85 50 f6 ff ff 	lea    -0x9b0(%rbp),%rax
    f3b5:	48 89 85 50 f7 ff ff 	mov    %rax,-0x8b0(%rbp)
    f3bc:	48 8d 05 f1 00 01 00 	lea    0x100f1(%rip),%rax        # 1f4b4 <g_717>
    f3c3:	48 89 85 58 f7 ff ff 	mov    %rax,-0x8a8(%rbp)
    f3ca:	48 8d 05 57 00 01 00 	lea    0x10057(%rip),%rax        # 1f428 <g_267>
    f3d1:	48 89 85 60 f7 ff ff 	mov    %rax,-0x8a0(%rbp)
    f3d8:	48 8b 85 48 f7 ff ff 	mov    -0x8b8(%rbp),%rax
    f3df:	48 8d 95 ec f5 ff ff 	lea    -0xa14(%rbp),%rdx
    f3e6:	48 89 10             	mov    %rdx,(%rax)
    f3e9:	b8 fb ff ff ff       	mov    $0xfffffffb,%eax
    f3ee:	89 c3                	mov    %eax,%ebx
    f3f0:	8b 85 f8 f5 ff ff    	mov    -0xa08(%rbp),%eax
    f3f6:	0f b7 d0             	movzwl %ax,%edx
    f3f9:	48 83 bd 58 f7 ff ff 	cmpq   $0x0,-0x8a8(%rbp)
    f400:	00 
    f401:	0f 95 c0             	setne  %al
    f404:	0f b6 c0             	movzbl %al,%eax
    f407:	89 d6                	mov    %edx,%esi
    f409:	89 c7                	mov    %eax,%edi
    f40b:	e8 7e a9 ff ff       	callq  9d8e <safe_div_func_uint16_t_u_u>
    f410:	0f b7 c0             	movzwl %ax,%eax
    f413:	48 89 de             	mov    %rbx,%rsi
    f416:	48 89 c7             	mov    %rax,%rdi
    f419:	e8 2d ac ff ff       	callq  a04b <safe_sub_func_uint64_t_u_u>
    f41e:	89 c2                	mov    %eax,%edx
    f420:	48 8b 85 60 f7 ff ff 	mov    -0x8a0(%rbp),%rax
    f427:	89 10                	mov    %edx,(%rax)
    f429:	0f b7 05 d6 ff 00 00 	movzwl 0xffd6(%rip),%eax        # 1f406 <g_125>
    f430:	0f b7 c0             	movzwl %ax,%eax
    f433:	83 e0 73             	and    $0x73,%eax
    f436:	48 83 bd a0 f6 ff ff 	cmpq   $0x0,-0x960(%rbp)
    f43d:	00 
    f43e:	74 1a                	je     f45a <func_47+0x766>
    f440:	48 8d 95 50 f6 ff ff 	lea    -0x9b0(%rbp),%rdx
    f447:	48 39 95 50 f7 ff ff 	cmp    %rdx,-0x8b0(%rbp)
    f44e:	74 0a                	je     f45a <func_47+0x766>
    f450:	48 83 bd a8 f6 ff ff 	cmpq   $0x0,-0x958(%rbp)
    f457:	00 
    f458:	74 07                	je     f461 <func_47+0x76d>
    f45a:	ba 01 00 00 00       	mov    $0x1,%edx
    f45f:	eb 05                	jmp    f466 <func_47+0x772>
    f461:	ba 00 00 00 00       	mov    $0x0,%edx
    f466:	89 c6                	mov    %eax,%esi
    f468:	89 d7                	mov    %edx,%edi
    f46a:	e8 90 a2 ff ff       	callq  96ff <safe_div_func_int32_t_s_s>
    f46f:	8b 95 f4 f5 ff ff    	mov    -0xa0c(%rbp),%edx
    f475:	39 d0                	cmp    %edx,%eax
    f477:	0f 94 c0             	sete   %al
    f47a:	0f b6 d0             	movzbl %al,%edx
    f47d:	8b 85 a4 f7 ff ff    	mov    -0x85c(%rbp),%eax
    f483:	21 d0                	and    %edx,%eax
    f485:	89 85 a4 f7 ff ff    	mov    %eax,-0x85c(%rbp)
    f48b:	e9 82 01 00 00       	jmpq   f612 <func_47+0x91e>
    f490:	48 8d 05 9d fb 00 00 	lea    0xfb9d(%rip),%rax        # 1f034 <g_4+0x4>
    f497:	48 89 85 50 f6 ff ff 	mov    %rax,-0x9b0(%rbp)
    f49e:	48 8d 85 50 f6 ff ff 	lea    -0x9b0(%rbp),%rax
    f4a5:	48 89 85 e0 f6 ff ff 	mov    %rax,-0x920(%rbp)
    f4ac:	48 8d 05 01 00 01 00 	lea    0x10001(%rip),%rax        # 1f4b4 <g_717>
    f4b3:	48 89 85 e8 f6 ff ff 	mov    %rax,-0x918(%rbp)
    f4ba:	48 8d 05 f3 ff 00 00 	lea    0xfff3(%rip),%rax        # 1f4b4 <g_717>
    f4c1:	48 89 85 f0 f6 ff ff 	mov    %rax,-0x910(%rbp)
    f4c8:	48 c7 85 f8 f6 ff ff 	movq   $0x0,-0x908(%rbp)
    f4cf:	00 00 00 00 
    f4d3:	48 8d 85 f4 f5 ff ff 	lea    -0xa0c(%rbp),%rax
    f4da:	48 89 85 00 f7 ff ff 	mov    %rax,-0x900(%rbp)
    f4e1:	48 8d 85 ec f5 ff ff 	lea    -0xa14(%rbp),%rax
    f4e8:	48 89 85 08 f7 ff ff 	mov    %rax,-0x8f8(%rbp)
    f4ef:	48 c7 85 10 f7 ff ff 	movq   $0x0,-0x8f0(%rbp)
    f4f6:	00 00 00 00 
    f4fa:	48 8d 85 f4 f5 ff ff 	lea    -0xa0c(%rbp),%rax
    f501:	48 89 85 18 f7 ff ff 	mov    %rax,-0x8e8(%rbp)
    f508:	c7 85 fc f5 ff ff 01 	movl   $0x1,-0xa04(%rbp)
    f50f:	00 00 00 
    f512:	48 c7 85 20 f7 ff ff 	movq   $0x0,-0x8e0(%rbp)
    f519:	00 00 00 00 
    f51d:	48 c7 85 28 f7 ff ff 	movq   $0x0,-0x8d8(%rbp)
    f524:	00 00 00 00 
    f528:	c7 85 34 f6 ff ff 09 	movl   $0x9,-0x9cc(%rbp)
    f52f:	00 00 00 
    f532:	48 8d 85 fc f5 ff ff 	lea    -0xa04(%rbp),%rax
    f539:	48 89 85 30 f7 ff ff 	mov    %rax,-0x8d0(%rbp)
    f540:	48 8d 85 f4 f5 ff ff 	lea    -0xa0c(%rbp),%rax
    f547:	48 89 85 38 f7 ff ff 	mov    %rax,-0x8c8(%rbp)
    f54e:	48 8d 85 f8 f5 ff ff 	lea    -0xa08(%rbp),%rax
    f555:	48 89 85 40 f7 ff ff 	mov    %rax,-0x8c0(%rbp)
    f55c:	48 8d 85 fc f5 ff ff 	lea    -0xa04(%rbp),%rax
    f563:	48 89 85 50 f8 ff ff 	mov    %rax,-0x7b0(%rbp)
    f56a:	48 8d 85 fc f5 ff ff 	lea    -0xa04(%rbp),%rax
    f571:	48 89 85 58 f8 ff ff 	mov    %rax,-0x7a8(%rbp)
    f578:	48 8d 85 fc f5 ff ff 	lea    -0xa04(%rbp),%rax
    f57f:	48 89 85 60 f8 ff ff 	mov    %rax,-0x7a0(%rbp)
    f586:	48 8d 85 fc f5 ff ff 	lea    -0xa04(%rbp),%rax
    f58d:	48 89 85 68 f8 ff ff 	mov    %rax,-0x798(%rbp)
    f594:	48 8d 85 fc f5 ff ff 	lea    -0xa04(%rbp),%rax
    f59b:	48 89 85 70 f8 ff ff 	mov    %rax,-0x790(%rbp)
    f5a2:	48 8d 85 fc f5 ff ff 	lea    -0xa04(%rbp),%rax
    f5a9:	48 89 85 78 f8 ff ff 	mov    %rax,-0x788(%rbp)
    f5b0:	48 8d 85 fc f5 ff ff 	lea    -0xa04(%rbp),%rax
    f5b7:	48 89 85 80 f8 ff ff 	mov    %rax,-0x780(%rbp)
    f5be:	48 8d 85 fc f5 ff ff 	lea    -0xa04(%rbp),%rax
    f5c5:	48 89 85 88 f8 ff ff 	mov    %rax,-0x778(%rbp)
    f5cc:	48 8d 85 fc f5 ff ff 	lea    -0xa04(%rbp),%rax
    f5d3:	48 89 85 90 f8 ff ff 	mov    %rax,-0x770(%rbp)
    f5da:	48 8b 95 50 f6 ff ff 	mov    -0x9b0(%rbp),%rdx
    f5e1:	48 8b 85 e0 f6 ff ff 	mov    -0x920(%rbp),%rax
    f5e8:	48 89 10             	mov    %rdx,(%rax)
    f5eb:	8b 85 a0 f7 ff ff    	mov    -0x860(%rbp),%eax
    f5f1:	89 c2                	mov    %eax,%edx
    f5f3:	48 8b 85 c8 f5 ff ff 	mov    -0xa38(%rbp),%rax
    f5fa:	21 d0                	and    %edx,%eax
    f5fc:	89 85 a0 f7 ff ff    	mov    %eax,-0x860(%rbp)
    f602:	66 83 ad e6 f5 ff ff 	subw   $0x1,-0xa1a(%rbp)
    f609:	01 
    f60a:	8b 85 ec f5 ff ff    	mov    -0xa14(%rbp),%eax
    f610:	85 c0                	test   %eax,%eax
    f612:	48 8b 85 c8 f5 ff ff 	mov    -0xa38(%rbp),%rax
    f619:	0f be c0             	movsbl %al,%eax
    f61c:	be 03 00 00 00       	mov    $0x3,%esi
    f621:	89 c7                	mov    %eax,%edi
    f623:	e8 ac 9b ff ff       	callq  91d4 <safe_add_func_int8_t_s_s>
    f628:	48 0f be c0          	movsbq %al,%rax
    f62c:	48 89 85 c8 f5 ff ff 	mov    %rax,-0xa38(%rbp)
    f633:	48 83 bd c8 f5 ff ff 	cmpq   $0x25,-0xa38(%rbp)
    f63a:	25 
    f63b:	0f 85 f0 fc ff ff    	jne    f331 <func_47+0x63d>
    f641:	c7 05 4d fe 00 00 ea 	movl   $0xffffffea,0xfe4d(%rip)        # 1f498 <g_371>
    f648:	ff ff ff 
    f64b:	eb 28                	jmp    f675 <func_47+0x981>
    f64d:	8b 85 7c f7 ff ff    	mov    -0x884(%rbp),%eax
    f653:	85 c0                	test   %eax,%eax
    f655:	75 2b                	jne    f682 <func_47+0x98e>
    f657:	8b 05 3b fe 00 00    	mov    0xfe3b(%rip),%eax        # 1f498 <g_371>
    f65d:	0f b7 c0             	movzwl %ax,%eax
    f660:	be 03 00 00 00       	mov    $0x3,%esi
    f665:	89 c7                	mov    %eax,%edi
    f667:	e8 93 a6 ff ff       	callq  9cff <safe_add_func_uint16_t_u_u>
    f66c:	0f b7 c0             	movzwl %ax,%eax
    f66f:	89 05 23 fe 00 00    	mov    %eax,0xfe23(%rip)        # 1f498 <g_371>
    f675:	8b 05 1d fe 00 00    	mov    0xfe1d(%rip),%eax        # 1f498 <g_371>
    f67b:	83 f8 14             	cmp    $0x14,%eax
    f67e:	74 cd                	je     f64d <func_47+0x959>
    f680:	eb 01                	jmp    f683 <func_47+0x98f>
    f682:	90                   	nop
    f683:	8b 05 33 fe 00 00    	mov    0xfe33(%rip),%eax        # 1f4bc <g_1082>
    f689:	0f b6 c0             	movzbl %al,%eax
    f68c:	89 c6                	mov    %eax,%esi
    f68e:	bf 84 00 00 00       	mov    $0x84,%edi
    f693:	e8 fb a4 ff ff       	callq  9b93 <safe_mul_func_uint8_t_u_u>
    f698:	48 8b 95 e8 f7 ff ff 	mov    -0x818(%rbp),%rdx
    f69f:	48 8b 85 c8 f6 ff ff 	mov    -0x938(%rbp),%rax
    f6a6:	48 89 10             	mov    %rdx,(%rax)
    f6a9:	48 8b 85 c8 f6 ff ff 	mov    -0x938(%rbp),%rax
    f6b0:	48 8b 00             	mov    (%rax),%rax
    f6b3:	48 8d 15 4e fd 00 00 	lea    0xfd4e(%rip),%rdx        # 1f408 <g_143>
    f6ba:	48 39 d0             	cmp    %rdx,%rax
    f6bd:	0f 94 c0             	sete   %al
    f6c0:	0f b6 c0             	movzbl %al,%eax
    f6c3:	8b 95 f8 f5 ff ff    	mov    -0xa08(%rbp),%edx
    f6c9:	f7 d2                	not    %edx
    f6cb:	21 d0                	and    %edx,%eax
    f6cd:	85 c0                	test   %eax,%eax
    f6cf:	0f 84 8c 00 00 00    	je     f761 <func_47+0xa6d>
    f6d5:	48 8b 85 c8 f5 ff ff 	mov    -0xa38(%rbp),%rax
    f6dc:	89 c3                	mov    %eax,%ebx
    f6de:	48 8b 85 c8 f5 ff ff 	mov    -0xa38(%rbp),%rax
    f6e5:	0f b7 d0             	movzwl %ax,%edx
    f6e8:	48 8b 05 b1 26 01 00 	mov    0x126b1(%rip),%rax        # 21da0 <g_331>
    f6ef:	48 8b 00             	mov    (%rax),%rax
    f6f2:	48 8b 00             	mov    (%rax),%rax
    f6f5:	48 8b 00             	mov    (%rax),%rax
    f6f8:	0f b7 00             	movzwl (%rax),%eax
    f6fb:	0f b7 c8             	movzwl %ax,%ecx
    f6fe:	8b 85 7c f7 ff ff    	mov    -0x884(%rbp),%eax
    f704:	39 c1                	cmp    %eax,%ecx
    f706:	0f 9d c0             	setge  %al
    f709:	0f b6 c0             	movzbl %al,%eax
    f70c:	89 d6                	mov    %edx,%esi
    f70e:	89 c7                	mov    %eax,%edi
    f710:	e8 0a a6 ff ff       	callq  9d1f <safe_sub_func_uint16_t_u_u>
    f715:	66 85 c0             	test   %ax,%ax
    f718:	74 11                	je     f72b <func_47+0xa37>
    f71a:	48 83 bd c8 f5 ff ff 	cmpq   $0x0,-0xa38(%rbp)
    f721:	00 
    f722:	74 07                	je     f72b <func_47+0xa37>
    f724:	b8 01 00 00 00       	mov    $0x1,%eax
    f729:	eb 05                	jmp    f730 <func_47+0xa3c>
    f72b:	b8 00 00 00 00       	mov    $0x0,%eax
    f730:	48 63 d0             	movslq %eax,%rdx
    f733:	48 8b 85 d0 f6 ff ff 	mov    -0x930(%rbp),%rax
    f73a:	48 89 10             	mov    %rdx,(%rax)
    f73d:	0f b7 85 d4 f5 ff ff 	movzwl -0xa2c(%rbp),%eax
    f744:	0f b7 c0             	movzwl %ax,%eax
    f747:	be 07 00 00 00       	mov    $0x7,%esi
    f74c:	89 c7                	mov    %eax,%edi
    f74e:	e8 6b a6 ff ff       	callq  9dbe <safe_lshift_func_uint16_t_u_s>
    f753:	0f b6 c0             	movzbl %al,%eax
    f756:	89 de                	mov    %ebx,%esi
    f758:	89 c7                	mov    %eax,%edi
    f75a:	e8 a6 a4 ff ff       	callq  9c05 <safe_lshift_func_uint8_t_u_s>
    f75f:	84 c0                	test   %al,%al
    f761:	0f b6 05 36 fd 00 00 	movzbl 0xfd36(%rip),%eax        # 1f49e <g_375+0x1>
    f768:	0f b6 d0             	movzbl %al,%edx
    f76b:	48 8b 05 96 fc 00 00 	mov    0xfc96(%rip),%rax        # 1f408 <g_143>
    f772:	48 89 d6             	mov    %rdx,%rsi
    f775:	48 89 c7             	mov    %rax,%rdi
    f778:	e8 c4 a0 ff ff       	callq  9841 <safe_add_func_int64_t_s_s>
    f77d:	0f bf d0             	movswl %ax,%edx
    f780:	8b 85 70 f7 ff ff    	mov    -0x890(%rbp),%eax
    f786:	98                   	cwtl   
    f787:	89 d6                	mov    %edx,%esi
    f789:	89 c7                	mov    %eax,%edi
    f78b:	e8 86 9c ff ff       	callq  9416 <safe_mod_func_int16_t_s_s>
    f790:	0f be c0             	movsbl %al,%eax
    f793:	be 34 00 00 00       	mov    $0x34,%esi
    f798:	89 c7                	mov    %eax,%edi
    f79a:	e8 cb 9a ff ff       	callq  926a <safe_div_func_int8_t_s_s>
    f79f:	c7 85 38 f6 ff ff 83 	movl   $0xed82e683,-0x9c8(%rbp)
    f7a6:	e6 82 ed 
    f7a9:	c7 85 3c f6 ff ff 00 	movl   $0x0,-0x9c4(%rbp)
    f7b0:	00 00 00 
    f7b3:	c7 85 40 f6 ff ff 00 	movl   $0x0,-0x9c0(%rbp)
    f7ba:	00 00 00 
    f7bd:	c7 85 44 f6 ff ff fa 	movl   $0xfffffffa,-0x9bc(%rbp)
    f7c4:	ff ff ff 
    f7c7:	c7 85 48 f6 ff ff fd 	movl   $0xfffffffd,-0x9b8(%rbp)
    f7ce:	ff ff ff 
    f7d1:	c7 85 4c f6 ff ff 69 	movl   $0xe3cd4169,-0x9b4(%rbp)
    f7d8:	41 cd e3 
    f7db:	c7 85 a0 f7 ff ff 00 	movl   $0x0,-0x860(%rbp)
    f7e2:	00 00 00 
    f7e5:	c7 85 a4 f7 ff ff 00 	movl   $0x0,-0x85c(%rbp)
    f7ec:	00 00 00 
    f7ef:	c7 85 a8 f7 ff ff 00 	movl   $0x0,-0x858(%rbp)
    f7f6:	00 00 00 
    f7f9:	c7 85 ac f7 ff ff 00 	movl   $0x0,-0x854(%rbp)
    f800:	00 00 00 
    f803:	c7 85 b0 f7 ff ff 00 	movl   $0x0,-0x850(%rbp)
    f80a:	00 00 00 
    f80d:	c7 85 b4 f7 ff ff bf 	movl   $0x85583bf,-0x84c(%rbp)
    f814:	83 55 08 
    f817:	c7 85 b8 f7 ff ff bf 	movl   $0x85583bf,-0x848(%rbp)
    f81e:	83 55 08 
    f821:	c7 85 bc f7 ff ff bf 	movl   $0x85583bf,-0x844(%rbp)
    f828:	83 55 08 
    f82b:	c7 85 c0 f7 ff ff bf 	movl   $0x85583bf,-0x840(%rbp)
    f832:	83 55 08 
    f835:	c7 85 c4 f7 ff ff bf 	movl   $0x85583bf,-0x83c(%rbp)
    f83c:	83 55 08 
    f83f:	c7 05 df fb 00 00 00 	movl   $0x0,0xfbdf(%rip)        # 1f428 <g_267>
    f846:	00 00 00 
    f849:	e9 92 00 00 00       	jmpq   f8e0 <func_47+0xbec>
    f84e:	48 8d 85 ec f5 ff ff 	lea    -0xa14(%rbp),%rax
    f855:	48 89 85 68 f7 ff ff 	mov    %rax,-0x898(%rbp)
    f85c:	c7 85 00 f6 ff ff 00 	movl   $0x0,-0xa00(%rbp)
    f863:	00 00 00 
    f866:	eb 4d                	jmp    f8b5 <func_47+0xbc1>
    f868:	c7 85 04 f6 ff ff 00 	movl   $0x0,-0x9fc(%rbp)
    f86f:	00 00 00 
    f872:	eb 31                	jmp    f8a5 <func_47+0xbb1>
    f874:	8b 85 04 f6 ff ff    	mov    -0x9fc(%rbp),%eax
    f87a:	48 98                	cltq   
    f87c:	8b 95 00 f6 ff ff    	mov    -0xa00(%rbp),%edx
    f882:	48 63 d2             	movslq %edx,%rdx
    f885:	48 01 d2             	add    %rdx,%rdx
    f888:	48 01 d0             	add    %rdx,%rax
    f88b:	48 8d 95 70 f7 ff ff 	lea    -0x890(%rbp),%rdx
    f892:	48 83 c2 0c          	add    $0xc,%rdx
    f896:	48 89 94 c5 50 f8 ff 	mov    %rdx,-0x7b0(%rbp,%rax,8)
    f89d:	ff 
    f89e:	83 85 04 f6 ff ff 01 	addl   $0x1,-0x9fc(%rbp)
    f8a5:	83 bd 04 f6 ff ff 01 	cmpl   $0x1,-0x9fc(%rbp)
    f8ac:	7e c6                	jle    f874 <func_47+0xb80>
    f8ae:	83 85 00 f6 ff ff 01 	addl   $0x1,-0xa00(%rbp)
    f8b5:	83 bd 00 f6 ff ff 04 	cmpl   $0x4,-0xa00(%rbp)
    f8bc:	7e aa                	jle    f868 <func_47+0xb74>
    f8be:	83 ad 14 f6 ff ff 01 	subl   $0x1,-0x9ec(%rbp)
    f8c5:	8b 05 5d fb 00 00    	mov    0xfb5d(%rip),%eax        # 1f428 <g_267>
    f8cb:	89 c0                	mov    %eax,%eax
    f8cd:	be 01 00 00 00       	mov    $0x1,%esi
    f8d2:	48 89 c7             	mov    %rax,%rdi
    f8d5:	e8 67 9f ff ff       	callq  9841 <safe_add_func_int64_t_s_s>
    f8da:	89 05 48 fb 00 00    	mov    %eax,0xfb48(%rip)        # 1f428 <g_267>
    f8e0:	8b 05 42 fb 00 00    	mov    0xfb42(%rip),%eax        # 1f428 <g_267>
    f8e6:	83 f8 19             	cmp    $0x19,%eax
    f8e9:	0f 84 5f ff ff ff    	je     f84e <func_47+0xb5a>
    f8ef:	0f b7 05 2c fb 00 00 	movzwl 0xfb2c(%rip),%eax        # 1f422 <g_194>
    f8f6:	48 0f bf c0          	movswq %ax,%rax
    f8fa:	be 08 00 00 00       	mov    $0x8,%esi
    f8ff:	48 89 c7             	mov    %rax,%rdi
    f902:	e8 27 a7 ff ff       	callq  a02e <safe_add_func_uint64_t_u_u>
    f907:	66 89 05 14 fb 00 00 	mov    %ax,0xfb14(%rip)        # 1f422 <g_194>
    f90e:	0f b7 05 0d fb 00 00 	movzwl 0xfb0d(%rip),%eax        # 1f422 <g_194>
    f915:	66 83 f8 0f          	cmp    $0xf,%ax
    f919:	0f 8f 01 f8 ff ff    	jg     f120 <func_47+0x42c>
    f91f:	eb 01                	jmp    f922 <func_47+0xc2e>
    f921:	90                   	nop
    f922:	48 8b 85 b0 f6 ff ff 	mov    -0x950(%rbp),%rax
    f929:	48 8d 95 a0 f8 ff ff 	lea    -0x760(%rbp),%rdx
    f930:	48 83 c2 70          	add    $0x70,%rdx
    f934:	48 89 10             	mov    %rdx,(%rax)
    f937:	48 83 bd c8 f5 ff ff 	cmpq   $0x0,-0xa38(%rbp)
    f93e:	00 
    f93f:	48 8b 05 c2 fa 00 00 	mov    0xfac2(%rip),%rax        # 1f408 <g_143>
    f946:	98                   	cwtl   
    f947:	be 09 00 00 00       	mov    $0x9,%esi
    f94c:	89 c7                	mov    %eax,%edi
    f94e:	e8 60 9a ff ff       	callq  93b3 <safe_add_func_int16_t_s_s>
    f953:	48 0f bf c0          	movswq %ax,%rax
    f957:	48 89 05 aa fa 00 00 	mov    %rax,0xfaaa(%rip)        # 1f408 <g_143>
    f95e:	48 8b 05 a3 fa 00 00 	mov    0xfaa3(%rip),%rax        # 1f408 <g_143>
    f965:	48 83 f8 05          	cmp    $0x5,%rax
    f969:	0f 84 40 f7 ff ff    	je     f0af <func_47+0x3bb>
    f96f:	48 8b 85 c8 f5 ff ff 	mov    -0xa38(%rbp),%rax
    f976:	0f b7 d8             	movzwl %ax,%ebx
    f979:	48 8b 05 d8 23 01 00 	mov    0x123d8(%rip),%rax        # 21d58 <g_322>
    f980:	0f b7 95 d4 f5 ff ff 	movzwl -0xa2c(%rbp),%edx
    f987:	66 89 10             	mov    %dx,(%rax)
    f98a:	be 00 00 00 00       	mov    $0x0,%esi
    f98f:	bf 00 00 00 00       	mov    $0x0,%edi
    f994:	e8 8c a5 ff ff       	callq  9f25 <safe_div_func_uint32_t_u_u>
    f999:	0f b7 c0             	movzwl %ax,%eax
    f99c:	89 de                	mov    %ebx,%esi
    f99e:	89 c7                	mov    %eax,%edi
    f9a0:	e8 7a a3 ff ff       	callq  9d1f <safe_sub_func_uint16_t_u_u>
    f9a5:	0f b7 d0             	movzwl %ax,%edx
    f9a8:	66 83 bd d4 f5 ff ff 	cmpw   $0x0,-0xa2c(%rbp)
    f9af:	00 
    f9b0:	75 0a                	jne    f9bc <func_47+0xcc8>
    f9b2:	8b 85 fc f8 ff ff    	mov    -0x704(%rbp),%eax
    f9b8:	85 c0                	test   %eax,%eax
    f9ba:	74 07                	je     f9c3 <func_47+0xccf>
    f9bc:	b8 01 00 00 00       	mov    $0x1,%eax
    f9c1:	eb 05                	jmp    f9c8 <func_47+0xcd4>
    f9c3:	b8 00 00 00 00       	mov    $0x0,%eax
    f9c8:	39 d0                	cmp    %edx,%eax
    f9ca:	0f 8d 70 02 00 00    	jge    fc40 <func_47+0xf4c>
    f9d0:	c7 85 50 f6 ff ff fc 	movl   $0x87e10bfc,-0x9b0(%rbp)
    f9d7:	0b e1 87 
    f9da:	c7 85 20 f6 ff ff 98 	movl   $0xe3bf5e98,-0x9e0(%rbp)
    f9e1:	5e bf e3 
    f9e4:	c7 85 24 f6 ff ff 9b 	movl   $0xa2af219b,-0x9dc(%rbp)
    f9eb:	21 af a2 
    f9ee:	c7 85 28 f6 ff ff d6 	movl   $0x2ac66ed6,-0x9d8(%rbp)
    f9f5:	6e c6 2a 
    f9f8:	c7 85 08 f6 ff ff 00 	movl   $0x0,-0x9f8(%rbp)
    f9ff:	00 00 00 
    fa02:	eb 1a                	jmp    fa1e <func_47+0xd2a>
    fa04:	8b 85 08 f6 ff ff    	mov    -0x9f8(%rbp),%eax
    fa0a:	48 98                	cltq   
    fa0c:	c7 84 85 50 f8 ff ff 	movl   $0xfffffff8,-0x7b0(%rbp,%rax,4)
    fa13:	f8 ff ff ff 
    fa17:	83 85 08 f6 ff ff 01 	addl   $0x1,-0x9f8(%rbp)
    fa1e:	83 bd 08 f6 ff ff 01 	cmpl   $0x1,-0x9f8(%rbp)
    fa25:	7e dd                	jle    fa04 <func_47+0xd10>
    fa27:	c7 05 8b fa 00 00 00 	movl   $0x0,0xfa8b(%rip)        # 1f4bc <g_1082>
    fa2e:	00 00 00 
    fa31:	e9 e9 01 00 00       	jmpq   fc1f <func_47+0xf2b>
    fa36:	48 c7 85 68 f6 ff ff 	movq   $0x0,-0x998(%rbp)
    fa3d:	00 00 00 00 
    fa41:	48 8d 05 dc f9 00 00 	lea    0xf9dc(%rip),%rax        # 1f424 <g_246>
    fa48:	48 89 85 70 f6 ff ff 	mov    %rax,-0x990(%rbp)
    fa4f:	48 8d 85 50 f6 ff ff 	lea    -0x9b0(%rbp),%rax
    fa56:	48 89 85 78 f6 ff ff 	mov    %rax,-0x988(%rbp)
    fa5d:	48 c7 85 80 f6 ff ff 	movq   $0x0,-0x980(%rbp)
    fa64:	00 00 00 00 
    fa68:	48 8d 85 a0 f8 ff ff 	lea    -0x760(%rbp),%rax
    fa6f:	48 83 c0 2c          	add    $0x2c,%rax
    fa73:	48 89 85 88 f6 ff ff 	mov    %rax,-0x978(%rbp)
    fa7a:	48 8d 85 f0 f5 ff ff 	lea    -0xa10(%rbp),%rax
    fa81:	48 89 85 90 fa ff ff 	mov    %rax,-0x570(%rbp)
    fa88:	48 8d 05 25 fa 00 00 	lea    0xfa25(%rip),%rax        # 1f4b4 <g_717>
    fa8f:	48 89 85 98 fa ff ff 	mov    %rax,-0x568(%rbp)
    fa96:	48 8d 85 f0 f5 ff ff 	lea    -0xa10(%rbp),%rax
    fa9d:	48 89 85 a0 fa ff ff 	mov    %rax,-0x560(%rbp)
    faa4:	48 8d 85 f0 f5 ff ff 	lea    -0xa10(%rbp),%rax
    faab:	48 89 85 a8 fa ff ff 	mov    %rax,-0x558(%rbp)
    fab2:	48 8d 05 fb f9 00 00 	lea    0xf9fb(%rip),%rax        # 1f4b4 <g_717>
    fab9:	48 89 85 b0 fa ff ff 	mov    %rax,-0x550(%rbp)
    fac0:	48 8d 85 f0 f5 ff ff 	lea    -0xa10(%rbp),%rax
    fac7:	48 89 85 b8 fa ff ff 	mov    %rax,-0x548(%rbp)
    face:	48 8d 85 f0 f5 ff ff 	lea    -0xa10(%rbp),%rax
    fad5:	48 89 85 c0 fa ff ff 	mov    %rax,-0x540(%rbp)
    fadc:	48 8d 85 f0 f5 ff ff 	lea    -0xa10(%rbp),%rax
    fae3:	48 89 85 c8 fa ff ff 	mov    %rax,-0x538(%rbp)
    faea:	48 8d 05 c3 f9 00 00 	lea    0xf9c3(%rip),%rax        # 1f4b4 <g_717>
    faf1:	48 89 85 d0 fa ff ff 	mov    %rax,-0x530(%rbp)
    faf8:	48 8d 05 b5 f9 00 00 	lea    0xf9b5(%rip),%rax        # 1f4b4 <g_717>
    faff:	48 89 85 d8 fa ff ff 	mov    %rax,-0x528(%rbp)
    fb06:	48 8d 85 f0 f5 ff ff 	lea    -0xa10(%rbp),%rax
    fb0d:	48 89 85 e0 fa ff ff 	mov    %rax,-0x520(%rbp)
    fb14:	48 8d 05 99 f9 00 00 	lea    0xf999(%rip),%rax        # 1f4b4 <g_717>
    fb1b:	48 89 85 e8 fa ff ff 	mov    %rax,-0x518(%rbp)
    fb22:	48 8d 05 8b f9 00 00 	lea    0xf98b(%rip),%rax        # 1f4b4 <g_717>
    fb29:	48 89 85 f0 fa ff ff 	mov    %rax,-0x510(%rbp)
    fb30:	48 8d 85 f0 f5 ff ff 	lea    -0xa10(%rbp),%rax
    fb37:	48 89 85 f8 fa ff ff 	mov    %rax,-0x508(%rbp)
    fb3e:	48 8d 05 6f f9 00 00 	lea    0xf96f(%rip),%rax        # 1f4b4 <g_717>
    fb45:	48 89 85 00 fb ff ff 	mov    %rax,-0x500(%rbp)
    fb4c:	48 8d 05 61 f9 00 00 	lea    0xf961(%rip),%rax        # 1f4b4 <g_717>
    fb53:	48 89 85 08 fb ff ff 	mov    %rax,-0x4f8(%rbp)
    fb5a:	48 8d 85 f0 f5 ff ff 	lea    -0xa10(%rbp),%rax
    fb61:	48 89 85 10 fb ff ff 	mov    %rax,-0x4f0(%rbp)
    fb68:	48 8d 05 45 f9 00 00 	lea    0xf945(%rip),%rax        # 1f4b4 <g_717>
    fb6f:	48 89 85 18 fb ff ff 	mov    %rax,-0x4e8(%rbp)
    fb76:	48 c7 85 90 f6 ff ff 	movq   $0xffffffffffffffff,-0x970(%rbp)
    fb7d:	ff ff ff ff 
    fb81:	48 c7 05 7c f8 00 00 	movq   $0x0,0xf87c(%rip)        # 1f408 <g_143>
    fb88:	00 00 00 00 
    fb8c:	eb 6d                	jmp    fbfb <func_47+0xf07>
    fb8e:	48 8d 85 f0 f5 ff ff 	lea    -0xa10(%rbp),%rax
    fb95:	48 89 85 98 f6 ff ff 	mov    %rax,-0x968(%rbp)
    fb9c:	48 8b 85 98 f6 ff ff 	mov    -0x968(%rbp),%rax
    fba3:	8b 00                	mov    (%rax),%eax
    fba5:	35 19 5d df 11       	xor    $0x11df5d19,%eax
    fbaa:	89 c2                	mov    %eax,%edx
    fbac:	48 8b 85 98 f6 ff ff 	mov    -0x968(%rbp),%rax
    fbb3:	89 10                	mov    %edx,(%rax)
    fbb5:	0f bf 95 d4 f5 ff ff 	movswl -0xa2c(%rbp),%edx
    fbbc:	8b 85 50 f6 ff ff    	mov    -0x9b0(%rbp),%eax
    fbc2:	09 c2                	or     %eax,%edx
    fbc4:	48 8b 85 98 f6 ff ff 	mov    -0x968(%rbp),%rax
    fbcb:	89 10                	mov    %edx,(%rax)
    fbcd:	8b 85 ec f5 ff ff    	mov    -0xa14(%rbp),%eax
    fbd3:	85 c0                	test   %eax,%eax
    fbd5:	74 05                	je     fbdc <func_47+0xee8>
    fbd7:	e9 c3 f4 ff ff       	jmpq   f09f <func_47+0x3ab>
    fbdc:	48 8b 05 25 f8 00 00 	mov    0xf825(%rip),%rax        # 1f408 <g_143>
    fbe3:	98                   	cwtl   
    fbe4:	be 02 00 00 00       	mov    $0x2,%esi
    fbe9:	89 c7                	mov    %eax,%edi
    fbeb:	e8 c3 97 ff ff       	callq  93b3 <safe_add_func_int16_t_s_s>
    fbf0:	48 0f bf c0          	movswq %ax,%rax
    fbf4:	48 89 05 0d f8 00 00 	mov    %rax,0xf80d(%rip)        # 1f408 <g_143>
    fbfb:	48 8b 05 06 f8 00 00 	mov    0xf806(%rip),%rax        # 1f408 <g_143>
    fc02:	48 83 f8 06          	cmp    $0x6,%rax
    fc06:	75 86                	jne    fb8e <func_47+0xe9a>
    fc08:	48 83 85 90 f6 ff ff 	addq   $0x1,-0x970(%rbp)
    fc0f:	01 
    fc10:	8b 05 a6 f8 00 00    	mov    0xf8a6(%rip),%eax        # 1f4bc <g_1082>
    fc16:	83 e8 01             	sub    $0x1,%eax
    fc19:	89 05 9d f8 00 00    	mov    %eax,0xf89d(%rip)        # 1f4bc <g_1082>
    fc1f:	8b 05 97 f8 00 00    	mov    0xf897(%rip),%eax        # 1f4bc <g_1082>
    fc25:	83 f8 fa             	cmp    $0xfffffffa,%eax
    fc28:	0f 8c 08 fe ff ff    	jl     fa36 <func_47+0xd42>
    fc2e:	48 8b 05 eb 21 01 00 	mov    0x121eb(%rip),%rax        # 21e20 <g_578>
    fc35:	48 8b 00             	mov    (%rax),%rax
    fc38:	48 8b 00             	mov    (%rax),%rax
    fc3b:	e9 93 0b 00 00       	jmpq   107d3 <func_47+0x1adf>
    fc40:	48 8d 05 29 21 01 00 	lea    0x12129(%rip),%rax        # 21d70 <g_321+0x10>
    fc47:	48 89 85 50 f6 ff ff 	mov    %rax,-0x9b0(%rbp)
    fc4e:	48 8d 85 50 f6 ff ff 	lea    -0x9b0(%rbp),%rax
    fc55:	48 89 85 60 f6 ff ff 	mov    %rax,-0x9a0(%rbp)
    fc5c:	48 8d 05 59 f8 00 00 	lea    0xf859(%rip),%rax        # 1f4bc <g_1082>
    fc63:	48 89 85 90 fa ff ff 	mov    %rax,-0x570(%rbp)
    fc6a:	48 8d 85 a0 f8 ff ff 	lea    -0x760(%rbp),%rax
    fc71:	48 83 c0 70          	add    $0x70,%rax
    fc75:	48 89 85 98 fa ff ff 	mov    %rax,-0x568(%rbp)
    fc7c:	48 c7 85 a0 fa ff ff 	movq   $0x0,-0x560(%rbp)
    fc83:	00 00 00 00 
    fc87:	48 8d 85 a0 f8 ff ff 	lea    -0x760(%rbp),%rax
    fc8e:	48 83 c0 34          	add    $0x34,%rax
    fc92:	48 89 85 a8 fa ff ff 	mov    %rax,-0x558(%rbp)
    fc99:	48 8d 85 a0 f8 ff ff 	lea    -0x760(%rbp),%rax
    fca0:	48 05 a4 00 00 00    	add    $0xa4,%rax
    fca6:	48 89 85 b0 fa ff ff 	mov    %rax,-0x550(%rbp)
    fcad:	48 8d 85 a0 f8 ff ff 	lea    -0x760(%rbp),%rax
    fcb4:	48 83 c0 3c          	add    $0x3c,%rax
    fcb8:	48 89 85 b8 fa ff ff 	mov    %rax,-0x548(%rbp)
    fcbf:	48 8d 85 a0 f8 ff ff 	lea    -0x760(%rbp),%rax
    fcc6:	48 83 c0 3c          	add    $0x3c,%rax
    fcca:	48 89 85 c0 fa ff ff 	mov    %rax,-0x540(%rbp)
    fcd1:	48 8d 85 a0 f8 ff ff 	lea    -0x760(%rbp),%rax
    fcd8:	48 05 a4 00 00 00    	add    $0xa4,%rax
    fcde:	48 89 85 c8 fa ff ff 	mov    %rax,-0x538(%rbp)
    fce5:	48 8d 85 a0 f8 ff ff 	lea    -0x760(%rbp),%rax
    fcec:	48 83 c0 70          	add    $0x70,%rax
    fcf0:	48 89 85 d0 fa ff ff 	mov    %rax,-0x530(%rbp)
    fcf7:	48 8d 85 a0 f8 ff ff 	lea    -0x760(%rbp),%rax
    fcfe:	48 83 c0 70          	add    $0x70,%rax
    fd02:	48 89 85 d8 fa ff ff 	mov    %rax,-0x528(%rbp)
    fd09:	48 8d 85 ec f5 ff ff 	lea    -0xa14(%rbp),%rax
    fd10:	48 89 85 e0 fa ff ff 	mov    %rax,-0x520(%rbp)
    fd17:	48 8d 85 a0 f8 ff ff 	lea    -0x760(%rbp),%rax
    fd1e:	48 05 a4 00 00 00    	add    $0xa4,%rax
    fd24:	48 89 85 e8 fa ff ff 	mov    %rax,-0x518(%rbp)
    fd2b:	48 8d 05 02 f3 00 00 	lea    0xf302(%rip),%rax        # 1f034 <g_4+0x4>
    fd32:	48 89 85 f0 fa ff ff 	mov    %rax,-0x510(%rbp)
    fd39:	48 8d 85 a0 f8 ff ff 	lea    -0x760(%rbp),%rax
    fd40:	48 83 c0 3c          	add    $0x3c,%rax
    fd44:	48 89 85 f8 fa ff ff 	mov    %rax,-0x508(%rbp)
    fd4b:	48 8d 85 a0 f8 ff ff 	lea    -0x760(%rbp),%rax
    fd52:	48 83 c0 70          	add    $0x70,%rax
    fd56:	48 89 85 00 fb ff ff 	mov    %rax,-0x500(%rbp)
    fd5d:	48 8d 85 a0 f8 ff ff 	lea    -0x760(%rbp),%rax
    fd64:	48 83 c0 34          	add    $0x34,%rax
    fd68:	48 89 85 08 fb ff ff 	mov    %rax,-0x4f8(%rbp)
    fd6f:	48 8d 05 be f2 00 00 	lea    0xf2be(%rip),%rax        # 1f034 <g_4+0x4>
    fd76:	48 89 85 10 fb ff ff 	mov    %rax,-0x4f0(%rbp)
    fd7d:	48 8d 85 a0 f8 ff ff 	lea    -0x760(%rbp),%rax
    fd84:	48 83 c0 70          	add    $0x70,%rax
    fd88:	48 89 85 18 fb ff ff 	mov    %rax,-0x4e8(%rbp)
    fd8f:	48 8d 05 1e f7 00 00 	lea    0xf71e(%rip),%rax        # 1f4b4 <g_717>
    fd96:	48 89 85 20 fb ff ff 	mov    %rax,-0x4e0(%rbp)
    fd9d:	48 8d 85 a0 f8 ff ff 	lea    -0x760(%rbp),%rax
    fda4:	48 83 c0 34          	add    $0x34,%rax
    fda8:	48 89 85 28 fb ff ff 	mov    %rax,-0x4d8(%rbp)
    fdaf:	48 8d 85 a0 f8 ff ff 	lea    -0x760(%rbp),%rax
    fdb6:	48 83 c0 34          	add    $0x34,%rax
    fdba:	48 89 85 30 fb ff ff 	mov    %rax,-0x4d0(%rbp)
    fdc1:	48 8d 85 a0 f8 ff ff 	lea    -0x760(%rbp),%rax
    fdc8:	48 83 c0 3c          	add    $0x3c,%rax
    fdcc:	48 89 85 38 fb ff ff 	mov    %rax,-0x4c8(%rbp)
    fdd3:	48 c7 85 40 fb ff ff 	movq   $0x0,-0x4c0(%rbp)
    fdda:	00 00 00 00 
    fdde:	48 8d 85 a0 f8 ff ff 	lea    -0x760(%rbp),%rax
    fde5:	48 05 a4 00 00 00    	add    $0xa4,%rax
    fdeb:	48 89 85 48 fb ff ff 	mov    %rax,-0x4b8(%rbp)
    fdf2:	48 c7 85 50 fb ff ff 	movq   $0x0,-0x4b0(%rbp)
    fdf9:	00 00 00 00 
    fdfd:	48 8d 85 a0 f8 ff ff 	lea    -0x760(%rbp),%rax
    fe04:	48 83 c0 70          	add    $0x70,%rax
    fe08:	48 89 85 58 fb ff ff 	mov    %rax,-0x4a8(%rbp)
    fe0f:	48 c7 85 60 fb ff ff 	movq   $0x0,-0x4a0(%rbp)
    fe16:	00 00 00 00 
    fe1a:	48 8d 85 a0 f8 ff ff 	lea    -0x760(%rbp),%rax
    fe21:	48 05 a4 00 00 00    	add    $0xa4,%rax
    fe27:	48 89 85 68 fb ff ff 	mov    %rax,-0x498(%rbp)
    fe2e:	48 8d 85 f0 f5 ff ff 	lea    -0xa10(%rbp),%rax
    fe35:	48 89 85 70 fb ff ff 	mov    %rax,-0x490(%rbp)
    fe3c:	48 8d 85 a0 f8 ff ff 	lea    -0x760(%rbp),%rax
    fe43:	48 83 c0 3c          	add    $0x3c,%rax
    fe47:	48 89 85 78 fb ff ff 	mov    %rax,-0x488(%rbp)
    fe4e:	48 8d 85 a0 f8 ff ff 	lea    -0x760(%rbp),%rax
    fe55:	48 83 c0 70          	add    $0x70,%rax
    fe59:	48 89 85 80 fb ff ff 	mov    %rax,-0x480(%rbp)
    fe60:	48 8d 85 a0 f8 ff ff 	lea    -0x760(%rbp),%rax
    fe67:	48 83 c0 34          	add    $0x34,%rax
    fe6b:	48 89 85 88 fb ff ff 	mov    %rax,-0x478(%rbp)
    fe72:	48 8d 05 43 f6 00 00 	lea    0xf643(%rip),%rax        # 1f4bc <g_1082>
    fe79:	48 89 85 90 fb ff ff 	mov    %rax,-0x470(%rbp)
    fe80:	48 8d 85 a0 f8 ff ff 	lea    -0x760(%rbp),%rax
    fe87:	48 83 c0 70          	add    $0x70,%rax
    fe8b:	48 89 85 98 fb ff ff 	mov    %rax,-0x468(%rbp)
    fe92:	48 c7 85 a0 fb ff ff 	movq   $0x0,-0x460(%rbp)
    fe99:	00 00 00 00 
    fe9d:	48 8d 85 a0 f8 ff ff 	lea    -0x760(%rbp),%rax
    fea4:	48 83 c0 34          	add    $0x34,%rax
    fea8:	48 89 85 a8 fb ff ff 	mov    %rax,-0x458(%rbp)
    feaf:	48 8d 85 a0 f8 ff ff 	lea    -0x760(%rbp),%rax
    feb6:	48 05 a4 00 00 00    	add    $0xa4,%rax
    febc:	48 89 85 b0 fb ff ff 	mov    %rax,-0x450(%rbp)
    fec3:	48 8d 85 a0 f8 ff ff 	lea    -0x760(%rbp),%rax
    feca:	48 83 c0 3c          	add    $0x3c,%rax
    fece:	48 89 85 b8 fb ff ff 	mov    %rax,-0x448(%rbp)
    fed5:	48 8d 85 a0 f8 ff ff 	lea    -0x760(%rbp),%rax
    fedc:	48 83 c0 3c          	add    $0x3c,%rax
    fee0:	48 89 85 c0 fb ff ff 	mov    %rax,-0x440(%rbp)
    fee7:	48 8d 85 a0 f8 ff ff 	lea    -0x760(%rbp),%rax
    feee:	48 05 a4 00 00 00    	add    $0xa4,%rax
    fef4:	48 89 85 c8 fb ff ff 	mov    %rax,-0x438(%rbp)
    fefb:	48 8d 85 a0 f8 ff ff 	lea    -0x760(%rbp),%rax
    ff02:	48 83 c0 70          	add    $0x70,%rax
    ff06:	48 89 85 d0 fb ff ff 	mov    %rax,-0x430(%rbp)
    ff0d:	48 8d 85 a0 f8 ff ff 	lea    -0x760(%rbp),%rax
    ff14:	48 83 c0 70          	add    $0x70,%rax
    ff18:	48 89 85 d8 fb ff ff 	mov    %rax,-0x428(%rbp)
    ff1f:	48 8d 85 ec f5 ff ff 	lea    -0xa14(%rbp),%rax
    ff26:	48 89 85 e0 fb ff ff 	mov    %rax,-0x420(%rbp)
    ff2d:	48 8d 85 a0 f8 ff ff 	lea    -0x760(%rbp),%rax
    ff34:	48 05 a4 00 00 00    	add    $0xa4,%rax
    ff3a:	48 89 85 e8 fb ff ff 	mov    %rax,-0x418(%rbp)
    ff41:	48 8d 05 ec f0 00 00 	lea    0xf0ec(%rip),%rax        # 1f034 <g_4+0x4>
    ff48:	48 89 85 f0 fb ff ff 	mov    %rax,-0x410(%rbp)
    ff4f:	48 8d 85 a0 f8 ff ff 	lea    -0x760(%rbp),%rax
    ff56:	48 83 c0 3c          	add    $0x3c,%rax
    ff5a:	48 89 85 f8 fb ff ff 	mov    %rax,-0x408(%rbp)
    ff61:	48 8d 85 a0 f8 ff ff 	lea    -0x760(%rbp),%rax
    ff68:	48 83 c0 70          	add    $0x70,%rax
    ff6c:	48 89 85 00 fc ff ff 	mov    %rax,-0x400(%rbp)
    ff73:	48 8d 85 a0 f8 ff ff 	lea    -0x760(%rbp),%rax
    ff7a:	48 83 c0 34          	add    $0x34,%rax
    ff7e:	48 89 85 08 fc ff ff 	mov    %rax,-0x3f8(%rbp)
    ff85:	48 8d 05 a8 f0 00 00 	lea    0xf0a8(%rip),%rax        # 1f034 <g_4+0x4>
    ff8c:	48 89 85 10 fc ff ff 	mov    %rax,-0x3f0(%rbp)
    ff93:	48 8d 85 a0 f8 ff ff 	lea    -0x760(%rbp),%rax
    ff9a:	48 83 c0 70          	add    $0x70,%rax
    ff9e:	48 89 85 18 fc ff ff 	mov    %rax,-0x3e8(%rbp)
    ffa5:	48 8d 05 08 f5 00 00 	lea    0xf508(%rip),%rax        # 1f4b4 <g_717>
    ffac:	48 89 85 20 fc ff ff 	mov    %rax,-0x3e0(%rbp)
    ffb3:	48 8d 85 a0 f8 ff ff 	lea    -0x760(%rbp),%rax
    ffba:	48 83 c0 34          	add    $0x34,%rax
    ffbe:	48 89 85 28 fc ff ff 	mov    %rax,-0x3d8(%rbp)
    ffc5:	48 8d 85 a0 f8 ff ff 	lea    -0x760(%rbp),%rax
    ffcc:	48 83 c0 34          	add    $0x34,%rax
    ffd0:	48 89 85 30 fc ff ff 	mov    %rax,-0x3d0(%rbp)
    ffd7:	48 8d 85 a0 f8 ff ff 	lea    -0x760(%rbp),%rax
    ffde:	48 83 c0 3c          	add    $0x3c,%rax
    ffe2:	48 89 85 38 fc ff ff 	mov    %rax,-0x3c8(%rbp)
    ffe9:	48 c7 85 40 fc ff ff 	movq   $0x0,-0x3c0(%rbp)
    fff0:	00 00 00 00 
    fff4:	48 8d 85 a0 f8 ff ff 	lea    -0x760(%rbp),%rax
    fffb:	48 05 a4 00 00 00    	add    $0xa4,%rax
   10001:	48 89 85 48 fc ff ff 	mov    %rax,-0x3b8(%rbp)
   10008:	48 c7 85 50 fc ff ff 	movq   $0x0,-0x3b0(%rbp)
   1000f:	00 00 00 00 
   10013:	48 8d 85 a0 f8 ff ff 	lea    -0x760(%rbp),%rax
   1001a:	48 83 c0 70          	add    $0x70,%rax
   1001e:	48 89 85 58 fc ff ff 	mov    %rax,-0x3a8(%rbp)
   10025:	48 c7 85 60 fc ff ff 	movq   $0x0,-0x3a0(%rbp)
   1002c:	00 00 00 00 
   10030:	48 8d 85 a0 f8 ff ff 	lea    -0x760(%rbp),%rax
   10037:	48 05 a4 00 00 00    	add    $0xa4,%rax
   1003d:	48 89 85 68 fc ff ff 	mov    %rax,-0x398(%rbp)
   10044:	48 8d 85 f0 f5 ff ff 	lea    -0xa10(%rbp),%rax
   1004b:	48 89 85 70 fc ff ff 	mov    %rax,-0x390(%rbp)
   10052:	48 8d 85 a0 f8 ff ff 	lea    -0x760(%rbp),%rax
   10059:	48 83 c0 3c          	add    $0x3c,%rax
   1005d:	48 89 85 78 fc ff ff 	mov    %rax,-0x388(%rbp)
   10064:	48 8d 85 a0 f8 ff ff 	lea    -0x760(%rbp),%rax
   1006b:	48 83 c0 70          	add    $0x70,%rax
   1006f:	48 89 85 80 fc ff ff 	mov    %rax,-0x380(%rbp)
   10076:	48 8d 85 a0 f8 ff ff 	lea    -0x760(%rbp),%rax
   1007d:	48 83 c0 34          	add    $0x34,%rax
   10081:	48 89 85 88 fc ff ff 	mov    %rax,-0x378(%rbp)
   10088:	48 8d 05 2d f4 00 00 	lea    0xf42d(%rip),%rax        # 1f4bc <g_1082>
   1008f:	48 89 85 90 fc ff ff 	mov    %rax,-0x370(%rbp)
   10096:	48 8d 85 a0 f8 ff ff 	lea    -0x760(%rbp),%rax
   1009d:	48 83 c0 70          	add    $0x70,%rax
   100a1:	48 89 85 98 fc ff ff 	mov    %rax,-0x368(%rbp)
   100a8:	48 c7 85 a0 fc ff ff 	movq   $0x0,-0x360(%rbp)
   100af:	00 00 00 00 
   100b3:	48 8d 85 a0 f8 ff ff 	lea    -0x760(%rbp),%rax
   100ba:	48 83 c0 34          	add    $0x34,%rax
   100be:	48 89 85 a8 fc ff ff 	mov    %rax,-0x358(%rbp)
   100c5:	48 8d 85 a0 f8 ff ff 	lea    -0x760(%rbp),%rax
   100cc:	48 05 a4 00 00 00    	add    $0xa4,%rax
   100d2:	48 89 85 b0 fc ff ff 	mov    %rax,-0x350(%rbp)
   100d9:	48 8d 85 a0 f8 ff ff 	lea    -0x760(%rbp),%rax
   100e0:	48 83 c0 3c          	add    $0x3c,%rax
   100e4:	48 89 85 b8 fc ff ff 	mov    %rax,-0x348(%rbp)
   100eb:	48 8d 85 a0 f8 ff ff 	lea    -0x760(%rbp),%rax
   100f2:	48 83 c0 3c          	add    $0x3c,%rax
   100f6:	48 89 85 c0 fc ff ff 	mov    %rax,-0x340(%rbp)
   100fd:	48 8d 85 a0 f8 ff ff 	lea    -0x760(%rbp),%rax
   10104:	48 05 a4 00 00 00    	add    $0xa4,%rax
   1010a:	48 89 85 c8 fc ff ff 	mov    %rax,-0x338(%rbp)
   10111:	48 8d 85 a0 f8 ff ff 	lea    -0x760(%rbp),%rax
   10118:	48 83 c0 70          	add    $0x70,%rax
   1011c:	48 89 85 d0 fc ff ff 	mov    %rax,-0x330(%rbp)
   10123:	48 8d 85 a0 f8 ff ff 	lea    -0x760(%rbp),%rax
   1012a:	48 83 c0 70          	add    $0x70,%rax
   1012e:	48 89 85 d8 fc ff ff 	mov    %rax,-0x328(%rbp)
   10135:	48 8d 85 ec f5 ff ff 	lea    -0xa14(%rbp),%rax
   1013c:	48 89 85 e0 fc ff ff 	mov    %rax,-0x320(%rbp)
   10143:	48 8d 85 a0 f8 ff ff 	lea    -0x760(%rbp),%rax
   1014a:	48 05 a4 00 00 00    	add    $0xa4,%rax
   10150:	48 89 85 e8 fc ff ff 	mov    %rax,-0x318(%rbp)
   10157:	48 8d 05 d6 ee 00 00 	lea    0xeed6(%rip),%rax        # 1f034 <g_4+0x4>
   1015e:	48 89 85 f0 fc ff ff 	mov    %rax,-0x310(%rbp)
   10165:	48 8d 85 a0 f8 ff ff 	lea    -0x760(%rbp),%rax
   1016c:	48 83 c0 3c          	add    $0x3c,%rax
   10170:	48 89 85 f8 fc ff ff 	mov    %rax,-0x308(%rbp)
   10177:	48 8d 85 a0 f8 ff ff 	lea    -0x760(%rbp),%rax
   1017e:	48 83 c0 70          	add    $0x70,%rax
   10182:	48 89 85 00 fd ff ff 	mov    %rax,-0x300(%rbp)
   10189:	48 8d 85 a0 f8 ff ff 	lea    -0x760(%rbp),%rax
   10190:	48 83 c0 34          	add    $0x34,%rax
   10194:	48 89 85 08 fd ff ff 	mov    %rax,-0x2f8(%rbp)
   1019b:	48 8d 05 92 ee 00 00 	lea    0xee92(%rip),%rax        # 1f034 <g_4+0x4>
   101a2:	48 89 85 10 fd ff ff 	mov    %rax,-0x2f0(%rbp)
   101a9:	48 8d 85 a0 f8 ff ff 	lea    -0x760(%rbp),%rax
   101b0:	48 83 c0 70          	add    $0x70,%rax
   101b4:	48 89 85 18 fd ff ff 	mov    %rax,-0x2e8(%rbp)
   101bb:	48 8d 05 f2 f2 00 00 	lea    0xf2f2(%rip),%rax        # 1f4b4 <g_717>
   101c2:	48 89 85 20 fd ff ff 	mov    %rax,-0x2e0(%rbp)
   101c9:	48 8d 85 a0 f8 ff ff 	lea    -0x760(%rbp),%rax
   101d0:	48 83 c0 34          	add    $0x34,%rax
   101d4:	48 89 85 28 fd ff ff 	mov    %rax,-0x2d8(%rbp)
   101db:	48 8d 85 a0 f8 ff ff 	lea    -0x760(%rbp),%rax
   101e2:	48 83 c0 34          	add    $0x34,%rax
   101e6:	48 89 85 30 fd ff ff 	mov    %rax,-0x2d0(%rbp)
   101ed:	48 8d 85 a0 f8 ff ff 	lea    -0x760(%rbp),%rax
   101f4:	48 83 c0 3c          	add    $0x3c,%rax
   101f8:	48 89 85 38 fd ff ff 	mov    %rax,-0x2c8(%rbp)
   101ff:	48 c7 85 40 fd ff ff 	movq   $0x0,-0x2c0(%rbp)
   10206:	00 00 00 00 
   1020a:	48 8d 85 a0 f8 ff ff 	lea    -0x760(%rbp),%rax
   10211:	48 05 a4 00 00 00    	add    $0xa4,%rax
   10217:	48 89 85 48 fd ff ff 	mov    %rax,-0x2b8(%rbp)
   1021e:	48 c7 85 50 fd ff ff 	movq   $0x0,-0x2b0(%rbp)
   10225:	00 00 00 00 
   10229:	48 8d 85 a0 f8 ff ff 	lea    -0x760(%rbp),%rax
   10230:	48 83 c0 70          	add    $0x70,%rax
   10234:	48 89 85 58 fd ff ff 	mov    %rax,-0x2a8(%rbp)
   1023b:	48 c7 85 60 fd ff ff 	movq   $0x0,-0x2a0(%rbp)
   10242:	00 00 00 00 
   10246:	48 8d 85 a0 f8 ff ff 	lea    -0x760(%rbp),%rax
   1024d:	48 05 a4 00 00 00    	add    $0xa4,%rax
   10253:	48 89 85 68 fd ff ff 	mov    %rax,-0x298(%rbp)
   1025a:	48 8d 85 f0 f5 ff ff 	lea    -0xa10(%rbp),%rax
   10261:	48 89 85 70 fd ff ff 	mov    %rax,-0x290(%rbp)
   10268:	48 8d 85 a0 f8 ff ff 	lea    -0x760(%rbp),%rax
   1026f:	48 83 c0 3c          	add    $0x3c,%rax
   10273:	48 89 85 78 fd ff ff 	mov    %rax,-0x288(%rbp)
   1027a:	48 8d 85 a0 f8 ff ff 	lea    -0x760(%rbp),%rax
   10281:	48 83 c0 70          	add    $0x70,%rax
   10285:	48 89 85 80 fd ff ff 	mov    %rax,-0x280(%rbp)
   1028c:	48 8d 85 a0 f8 ff ff 	lea    -0x760(%rbp),%rax
   10293:	48 83 c0 34          	add    $0x34,%rax
   10297:	48 89 85 88 fd ff ff 	mov    %rax,-0x278(%rbp)
   1029e:	48 8d 05 17 f2 00 00 	lea    0xf217(%rip),%rax        # 1f4bc <g_1082>
   102a5:	48 89 85 90 fd ff ff 	mov    %rax,-0x270(%rbp)
   102ac:	48 8d 85 a0 f8 ff ff 	lea    -0x760(%rbp),%rax
   102b3:	48 83 c0 70          	add    $0x70,%rax
   102b7:	48 89 85 98 fd ff ff 	mov    %rax,-0x268(%rbp)
   102be:	48 c7 85 a0 fd ff ff 	movq   $0x0,-0x260(%rbp)
   102c5:	00 00 00 00 
   102c9:	48 8d 85 a0 f8 ff ff 	lea    -0x760(%rbp),%rax
   102d0:	48 83 c0 34          	add    $0x34,%rax
   102d4:	48 89 85 a8 fd ff ff 	mov    %rax,-0x258(%rbp)
   102db:	48 8d 85 a0 f8 ff ff 	lea    -0x760(%rbp),%rax
   102e2:	48 05 a4 00 00 00    	add    $0xa4,%rax
   102e8:	48 89 85 b0 fd ff ff 	mov    %rax,-0x250(%rbp)
   102ef:	48 8d 85 a0 f8 ff ff 	lea    -0x760(%rbp),%rax
   102f6:	48 83 c0 3c          	add    $0x3c,%rax
   102fa:	48 89 85 b8 fd ff ff 	mov    %rax,-0x248(%rbp)
   10301:	48 8d 85 a0 f8 ff ff 	lea    -0x760(%rbp),%rax
   10308:	48 83 c0 3c          	add    $0x3c,%rax
   1030c:	48 89 85 c0 fd ff ff 	mov    %rax,-0x240(%rbp)
   10313:	48 8d 85 a0 f8 ff ff 	lea    -0x760(%rbp),%rax
   1031a:	48 05 a4 00 00 00    	add    $0xa4,%rax
   10320:	48 89 85 c8 fd ff ff 	mov    %rax,-0x238(%rbp)
   10327:	48 8d 85 a0 f8 ff ff 	lea    -0x760(%rbp),%rax
   1032e:	48 83 c0 70          	add    $0x70,%rax
   10332:	48 89 85 d0 fd ff ff 	mov    %rax,-0x230(%rbp)
   10339:	48 8d 85 a0 f8 ff ff 	lea    -0x760(%rbp),%rax
   10340:	48 83 c0 70          	add    $0x70,%rax
   10344:	48 89 85 d8 fd ff ff 	mov    %rax,-0x228(%rbp)
   1034b:	48 8d 85 ec f5 ff ff 	lea    -0xa14(%rbp),%rax
   10352:	48 89 85 e0 fd ff ff 	mov    %rax,-0x220(%rbp)
   10359:	48 8d 85 a0 f8 ff ff 	lea    -0x760(%rbp),%rax
   10360:	48 05 a4 00 00 00    	add    $0xa4,%rax
   10366:	48 89 85 e8 fd ff ff 	mov    %rax,-0x218(%rbp)
   1036d:	48 8d 05 c0 ec 00 00 	lea    0xecc0(%rip),%rax        # 1f034 <g_4+0x4>
   10374:	48 89 85 f0 fd ff ff 	mov    %rax,-0x210(%rbp)
   1037b:	48 8d 85 a0 f8 ff ff 	lea    -0x760(%rbp),%rax
   10382:	48 83 c0 3c          	add    $0x3c,%rax
   10386:	48 89 85 f8 fd ff ff 	mov    %rax,-0x208(%rbp)
   1038d:	48 8d 85 a0 f8 ff ff 	lea    -0x760(%rbp),%rax
   10394:	48 83 c0 70          	add    $0x70,%rax
   10398:	48 89 85 00 fe ff ff 	mov    %rax,-0x200(%rbp)
   1039f:	48 8d 85 a0 f8 ff ff 	lea    -0x760(%rbp),%rax
   103a6:	48 83 c0 34          	add    $0x34,%rax
   103aa:	48 89 85 08 fe ff ff 	mov    %rax,-0x1f8(%rbp)
   103b1:	48 8d 05 7c ec 00 00 	lea    0xec7c(%rip),%rax        # 1f034 <g_4+0x4>
   103b8:	48 89 85 10 fe ff ff 	mov    %rax,-0x1f0(%rbp)
   103bf:	48 8d 85 a0 f8 ff ff 	lea    -0x760(%rbp),%rax
   103c6:	48 83 c0 70          	add    $0x70,%rax
   103ca:	48 89 85 18 fe ff ff 	mov    %rax,-0x1e8(%rbp)
   103d1:	48 8d 05 dc f0 00 00 	lea    0xf0dc(%rip),%rax        # 1f4b4 <g_717>
   103d8:	48 89 85 20 fe ff ff 	mov    %rax,-0x1e0(%rbp)
   103df:	48 8d 85 a0 f8 ff ff 	lea    -0x760(%rbp),%rax
   103e6:	48 83 c0 34          	add    $0x34,%rax
   103ea:	48 89 85 28 fe ff ff 	mov    %rax,-0x1d8(%rbp)
   103f1:	48 8d 85 a0 f8 ff ff 	lea    -0x760(%rbp),%rax
   103f8:	48 83 c0 34          	add    $0x34,%rax
   103fc:	48 89 85 30 fe ff ff 	mov    %rax,-0x1d0(%rbp)
   10403:	48 8d 85 a0 f8 ff ff 	lea    -0x760(%rbp),%rax
   1040a:	48 83 c0 3c          	add    $0x3c,%rax
   1040e:	48 89 85 38 fe ff ff 	mov    %rax,-0x1c8(%rbp)
   10415:	48 c7 85 40 fe ff ff 	movq   $0x0,-0x1c0(%rbp)
   1041c:	00 00 00 00 
   10420:	48 8d 85 a0 f8 ff ff 	lea    -0x760(%rbp),%rax
   10427:	48 05 a4 00 00 00    	add    $0xa4,%rax
   1042d:	48 89 85 48 fe ff ff 	mov    %rax,-0x1b8(%rbp)
   10434:	48 c7 85 50 fe ff ff 	movq   $0x0,-0x1b0(%rbp)
   1043b:	00 00 00 00 
   1043f:	48 8d 85 a0 f8 ff ff 	lea    -0x760(%rbp),%rax
   10446:	48 83 c0 70          	add    $0x70,%rax
   1044a:	48 89 85 58 fe ff ff 	mov    %rax,-0x1a8(%rbp)
   10451:	48 c7 85 60 fe ff ff 	movq   $0x0,-0x1a0(%rbp)
   10458:	00 00 00 00 
   1045c:	48 8d 85 a0 f8 ff ff 	lea    -0x760(%rbp),%rax
   10463:	48 05 a4 00 00 00    	add    $0xa4,%rax
   10469:	48 89 85 68 fe ff ff 	mov    %rax,-0x198(%rbp)
   10470:	48 8d 85 f0 f5 ff ff 	lea    -0xa10(%rbp),%rax
   10477:	48 89 85 70 fe ff ff 	mov    %rax,-0x190(%rbp)
   1047e:	48 8d 85 a0 f8 ff ff 	lea    -0x760(%rbp),%rax
   10485:	48 83 c0 3c          	add    $0x3c,%rax
   10489:	48 89 85 78 fe ff ff 	mov    %rax,-0x188(%rbp)
   10490:	48 8d 85 a0 f8 ff ff 	lea    -0x760(%rbp),%rax
   10497:	48 83 c0 70          	add    $0x70,%rax
   1049b:	48 89 85 80 fe ff ff 	mov    %rax,-0x180(%rbp)
   104a2:	48 8d 85 a0 f8 ff ff 	lea    -0x760(%rbp),%rax
   104a9:	48 83 c0 34          	add    $0x34,%rax
   104ad:	48 89 85 88 fe ff ff 	mov    %rax,-0x178(%rbp)
   104b4:	48 8d 05 01 f0 00 00 	lea    0xf001(%rip),%rax        # 1f4bc <g_1082>
   104bb:	48 89 85 90 fe ff ff 	mov    %rax,-0x170(%rbp)
   104c2:	48 8d 85 a0 f8 ff ff 	lea    -0x760(%rbp),%rax
   104c9:	48 83 c0 70          	add    $0x70,%rax
   104cd:	48 89 85 98 fe ff ff 	mov    %rax,-0x168(%rbp)
   104d4:	48 c7 85 a0 fe ff ff 	movq   $0x0,-0x160(%rbp)
   104db:	00 00 00 00 
   104df:	48 8d 85 a0 f8 ff ff 	lea    -0x760(%rbp),%rax
   104e6:	48 83 c0 34          	add    $0x34,%rax
   104ea:	48 89 85 a8 fe ff ff 	mov    %rax,-0x158(%rbp)
   104f1:	48 8d 85 a0 f8 ff ff 	lea    -0x760(%rbp),%rax
   104f8:	48 05 a4 00 00 00    	add    $0xa4,%rax
   104fe:	48 89 85 b0 fe ff ff 	mov    %rax,-0x150(%rbp)
   10505:	48 8d 85 a0 f8 ff ff 	lea    -0x760(%rbp),%rax
   1050c:	48 83 c0 3c          	add    $0x3c,%rax
   10510:	48 89 85 b8 fe ff ff 	mov    %rax,-0x148(%rbp)
   10517:	48 8d 85 a0 f8 ff ff 	lea    -0x760(%rbp),%rax
   1051e:	48 83 c0 3c          	add    $0x3c,%rax
   10522:	48 89 85 c0 fe ff ff 	mov    %rax,-0x140(%rbp)
   10529:	48 8d 85 a0 f8 ff ff 	lea    -0x760(%rbp),%rax
   10530:	48 05 a4 00 00 00    	add    $0xa4,%rax
   10536:	48 89 85 c8 fe ff ff 	mov    %rax,-0x138(%rbp)
   1053d:	48 8d 85 a0 f8 ff ff 	lea    -0x760(%rbp),%rax
   10544:	48 83 c0 70          	add    $0x70,%rax
   10548:	48 89 85 d0 fe ff ff 	mov    %rax,-0x130(%rbp)
   1054f:	48 8d 85 a0 f8 ff ff 	lea    -0x760(%rbp),%rax
   10556:	48 83 c0 70          	add    $0x70,%rax
   1055a:	48 89 85 d8 fe ff ff 	mov    %rax,-0x128(%rbp)
   10561:	48 8d 85 ec f5 ff ff 	lea    -0xa14(%rbp),%rax
   10568:	48 89 85 e0 fe ff ff 	mov    %rax,-0x120(%rbp)
   1056f:	48 8d 85 a0 f8 ff ff 	lea    -0x760(%rbp),%rax
   10576:	48 05 a4 00 00 00    	add    $0xa4,%rax
   1057c:	48 89 85 e8 fe ff ff 	mov    %rax,-0x118(%rbp)
   10583:	48 8d 05 aa ea 00 00 	lea    0xeaaa(%rip),%rax        # 1f034 <g_4+0x4>
   1058a:	48 89 85 f0 fe ff ff 	mov    %rax,-0x110(%rbp)
   10591:	48 8d 85 a0 f8 ff ff 	lea    -0x760(%rbp),%rax
   10598:	48 83 c0 3c          	add    $0x3c,%rax
   1059c:	48 89 85 f8 fe ff ff 	mov    %rax,-0x108(%rbp)
   105a3:	48 8d 85 a0 f8 ff ff 	lea    -0x760(%rbp),%rax
   105aa:	48 83 c0 70          	add    $0x70,%rax
   105ae:	48 89 85 00 ff ff ff 	mov    %rax,-0x100(%rbp)
   105b5:	48 8d 85 a0 f8 ff ff 	lea    -0x760(%rbp),%rax
   105bc:	48 83 c0 34          	add    $0x34,%rax
   105c0:	48 89 85 08 ff ff ff 	mov    %rax,-0xf8(%rbp)
   105c7:	48 8d 05 66 ea 00 00 	lea    0xea66(%rip),%rax        # 1f034 <g_4+0x4>
   105ce:	48 89 85 10 ff ff ff 	mov    %rax,-0xf0(%rbp)
   105d5:	48 8d 85 a0 f8 ff ff 	lea    -0x760(%rbp),%rax
   105dc:	48 83 c0 70          	add    $0x70,%rax
   105e0:	48 89 85 18 ff ff ff 	mov    %rax,-0xe8(%rbp)
   105e7:	48 8d 05 c6 ee 00 00 	lea    0xeec6(%rip),%rax        # 1f4b4 <g_717>
   105ee:	48 89 85 20 ff ff ff 	mov    %rax,-0xe0(%rbp)
   105f5:	48 8d 85 a0 f8 ff ff 	lea    -0x760(%rbp),%rax
   105fc:	48 83 c0 34          	add    $0x34,%rax
   10600:	48 89 85 28 ff ff ff 	mov    %rax,-0xd8(%rbp)
   10607:	48 8d 85 a0 f8 ff ff 	lea    -0x760(%rbp),%rax
   1060e:	48 83 c0 34          	add    $0x34,%rax
   10612:	48 89 85 30 ff ff ff 	mov    %rax,-0xd0(%rbp)
   10619:	48 8d 85 a0 f8 ff ff 	lea    -0x760(%rbp),%rax
   10620:	48 83 c0 3c          	add    $0x3c,%rax
   10624:	48 89 85 38 ff ff ff 	mov    %rax,-0xc8(%rbp)
   1062b:	48 c7 85 40 ff ff ff 	movq   $0x0,-0xc0(%rbp)
   10632:	00 00 00 00 
   10636:	48 8d 85 a0 f8 ff ff 	lea    -0x760(%rbp),%rax
   1063d:	48 05 a4 00 00 00    	add    $0xa4,%rax
   10643:	48 89 85 48 ff ff ff 	mov    %rax,-0xb8(%rbp)
   1064a:	48 c7 85 50 ff ff ff 	movq   $0x0,-0xb0(%rbp)
   10651:	00 00 00 00 
   10655:	48 8d 85 a0 f8 ff ff 	lea    -0x760(%rbp),%rax
   1065c:	48 83 c0 70          	add    $0x70,%rax
   10660:	48 89 85 58 ff ff ff 	mov    %rax,-0xa8(%rbp)
   10667:	48 c7 85 60 ff ff ff 	movq   $0x0,-0xa0(%rbp)
   1066e:	00 00 00 00 
   10672:	48 8d 85 a0 f8 ff ff 	lea    -0x760(%rbp),%rax
   10679:	48 05 a4 00 00 00    	add    $0xa4,%rax
   1067f:	48 89 85 68 ff ff ff 	mov    %rax,-0x98(%rbp)
   10686:	48 8d 85 f0 f5 ff ff 	lea    -0xa10(%rbp),%rax
   1068d:	48 89 85 70 ff ff ff 	mov    %rax,-0x90(%rbp)
   10694:	48 8d 85 a0 f8 ff ff 	lea    -0x760(%rbp),%rax
   1069b:	48 83 c0 3c          	add    $0x3c,%rax
   1069f:	48 89 85 78 ff ff ff 	mov    %rax,-0x88(%rbp)
   106a6:	48 8d 85 a0 f8 ff ff 	lea    -0x760(%rbp),%rax
   106ad:	48 83 c0 70          	add    $0x70,%rax
   106b1:	48 89 45 80          	mov    %rax,-0x80(%rbp)
   106b5:	48 8d 85 a0 f8 ff ff 	lea    -0x760(%rbp),%rax
   106bc:	48 83 c0 34          	add    $0x34,%rax
   106c0:	48 89 45 88          	mov    %rax,-0x78(%rbp)
   106c4:	48 8d 05 f1 ed 00 00 	lea    0xedf1(%rip),%rax        # 1f4bc <g_1082>
   106cb:	48 89 45 90          	mov    %rax,-0x70(%rbp)
   106cf:	48 8d 85 a0 f8 ff ff 	lea    -0x760(%rbp),%rax
   106d6:	48 83 c0 70          	add    $0x70,%rax
   106da:	48 89 45 98          	mov    %rax,-0x68(%rbp)
   106de:	48 c7 45 a0 00 00 00 	movq   $0x0,-0x60(%rbp)
   106e5:	00 
   106e6:	48 8d 85 a0 f8 ff ff 	lea    -0x760(%rbp),%rax
   106ed:	48 83 c0 34          	add    $0x34,%rax
   106f1:	48 89 45 a8          	mov    %rax,-0x58(%rbp)
   106f5:	48 8d 85 a0 f8 ff ff 	lea    -0x760(%rbp),%rax
   106fc:	48 05 a4 00 00 00    	add    $0xa4,%rax
   10702:	48 89 45 b0          	mov    %rax,-0x50(%rbp)
   10706:	48 8d 85 a0 f8 ff ff 	lea    -0x760(%rbp),%rax
   1070d:	48 83 c0 3c          	add    $0x3c,%rax
   10711:	48 89 45 b8          	mov    %rax,-0x48(%rbp)
   10715:	48 8d 85 a0 f8 ff ff 	lea    -0x760(%rbp),%rax
   1071c:	48 83 c0 3c          	add    $0x3c,%rax
   10720:	48 89 45 c0          	mov    %rax,-0x40(%rbp)
   10724:	48 8d 85 a0 f8 ff ff 	lea    -0x760(%rbp),%rax
   1072b:	48 05 a4 00 00 00    	add    $0xa4,%rax
   10731:	48 89 45 c8          	mov    %rax,-0x38(%rbp)
   10735:	48 8b 85 60 f6 ff ff 	mov    -0x9a0(%rbp),%rax
   1073c:	48 c7 00 00 00 00 00 	movq   $0x0,(%rax)
   10743:	48 8b 85 60 f6 ff ff 	mov    -0x9a0(%rbp),%rax
   1074a:	48 8b 00             	mov    (%rax),%rax
   1074d:	48 8d 15 34 16 01 00 	lea    0x11634(%rip),%rdx        # 21d88 <g_321+0x28>
   10754:	48 39 d0             	cmp    %rdx,%rax
   10757:	0f 95 c0             	setne  %al
   1075a:	0f b6 c0             	movzbl %al,%eax
   1075d:	48 39 85 c8 f5 ff ff 	cmp    %rax,-0xa38(%rbp)
   10764:	0f 96 c0             	setbe  %al
   10767:	0f b6 c0             	movzbl %al,%eax
   1076a:	89 85 10 f9 ff ff    	mov    %eax,-0x6f0(%rbp)
   10770:	c7 05 1e ed 00 00 02 	movl   $0x2,0xed1e(%rip)        # 1f498 <g_371>
   10777:	00 00 00 
   1077a:	90                   	nop
   1077b:	8b 05 17 ed 00 00    	mov    0xed17(%rip),%eax        # 1f498 <g_371>
   10781:	85 c0                	test   %eax,%eax
   10783:	78 09                	js     1078e <func_47+0x1a9a>
   10785:	48 8b 85 40 f8 ff ff 	mov    -0x7c0(%rbp),%rax
   1078c:	eb 45                	jmp    107d3 <func_47+0x1adf>
   1078e:	c7 05 8c ec 00 00 00 	movl   $0x0,0xec8c(%rip)        # 1f424 <g_246>
   10795:	00 00 00 
   10798:	eb 1e                	jmp    107b8 <func_47+0x1ac4>
   1079a:	8b 85 ec f5 ff ff    	mov    -0xa14(%rbp),%eax
   107a0:	85 c0                	test   %eax,%eax
   107a2:	74 05                	je     107a9 <func_47+0x1ab5>
   107a4:	e9 d0 e8 ff ff       	jmpq   f079 <func_47+0x385>
   107a9:	8b 05 75 ec 00 00    	mov    0xec75(%rip),%eax        # 1f424 <g_246>
   107af:	83 c0 01             	add    $0x1,%eax
   107b2:	89 05 6c ec 00 00    	mov    %eax,0xec6c(%rip)        # 1f424 <g_246>
   107b8:	8b 05 66 ec 00 00    	mov    0xec66(%rip),%eax        # 1f424 <g_246>
   107be:	83 f8 05             	cmp    $0x5,%eax
   107c1:	74 d7                	je     1079a <func_47+0x1aa6>
   107c3:	48 8b 05 5e 16 01 00 	mov    0x1165e(%rip),%rax        # 21e28 <g_577>
   107ca:	48 8b 00             	mov    (%rax),%rax
   107cd:	48 8b 00             	mov    (%rax),%rax
   107d0:	48 8b 00             	mov    (%rax),%rax
   107d3:	48 8b 5d d8          	mov    -0x28(%rbp),%rbx
   107d7:	64 48 33 1c 25 28 00 	xor    %fs:0x28,%rbx
   107de:	00 00 
   107e0:	74 05                	je     107e7 <func_47+0x1af3>
   107e2:	e8 89 88 ff ff       	callq  9070 <__stack_chk_fail@plt>
   107e7:	48 81 c4 20 0a 00 00 	add    $0xa20,%rsp
   107ee:	5b                   	pop    %rbx
   107ef:	41 5c                	pop    %r12
   107f1:	41 5d                	pop    %r13
   107f3:	41 5e                	pop    %r14
   107f5:	5d                   	pop    %rbp
   107f6:	c3                   	retq   

00000000000107f7 <func_52>:
   107f7:	f3 0f 1e fa          	endbr64 
   107fb:	55                   	push   %rbp
   107fc:	48 89 e5             	mov    %rsp,%rbp
   107ff:	41 57                	push   %r15
   10801:	41 56                	push   %r14
   10803:	41 55                	push   %r13
   10805:	41 54                	push   %r12
   10807:	53                   	push   %rbx
   10808:	48 81 ec 88 07 00 00 	sub    $0x788,%rsp
   1080f:	89 f8                	mov    %edi,%eax
   10811:	89 b5 58 f8 ff ff    	mov    %esi,-0x7a8(%rbp)
   10817:	89 95 54 f8 ff ff    	mov    %edx,-0x7ac(%rbp)
   1081d:	66 89 85 5c f8 ff ff 	mov    %ax,-0x7a4(%rbp)
   10824:	64 48 8b 04 25 28 00 	mov    %fs:0x28,%rax
   1082b:	00 00 
   1082d:	48 89 45 c8          	mov    %rax,-0x38(%rbp)
   10831:	31 c0                	xor    %eax,%eax
   10833:	48 c7 85 c8 f8 ff ff 	movq   $0xfffffffffffffff8,-0x738(%rbp)
   1083a:	f8 ff ff ff 
   1083e:	48 8d 05 e3 eb 00 00 	lea    0xebe3(%rip),%rax        # 1f428 <g_267>
   10845:	48 89 85 20 fb ff ff 	mov    %rax,-0x4e0(%rbp)
   1084c:	48 8d 05 d5 eb 00 00 	lea    0xebd5(%rip),%rax        # 1f428 <g_267>
   10853:	48 89 85 28 fb ff ff 	mov    %rax,-0x4d8(%rbp)
   1085a:	48 8d 05 c7 eb 00 00 	lea    0xebc7(%rip),%rax        # 1f428 <g_267>
   10861:	48 89 85 30 fb ff ff 	mov    %rax,-0x4d0(%rbp)
   10868:	48 8d 05 b9 eb 00 00 	lea    0xebb9(%rip),%rax        # 1f428 <g_267>
   1086f:	48 89 85 38 fb ff ff 	mov    %rax,-0x4c8(%rbp)
   10876:	48 8d 05 ab eb 00 00 	lea    0xebab(%rip),%rax        # 1f428 <g_267>
   1087d:	48 89 85 40 fb ff ff 	mov    %rax,-0x4c0(%rbp)
   10884:	48 8d 05 9d eb 00 00 	lea    0xeb9d(%rip),%rax        # 1f428 <g_267>
   1088b:	48 89 85 48 fb ff ff 	mov    %rax,-0x4b8(%rbp)
   10892:	48 8d 05 8f eb 00 00 	lea    0xeb8f(%rip),%rax        # 1f428 <g_267>
   10899:	48 89 85 50 fb ff ff 	mov    %rax,-0x4b0(%rbp)
   108a0:	48 8d 05 81 eb 00 00 	lea    0xeb81(%rip),%rax        # 1f428 <g_267>
   108a7:	48 89 85 58 fb ff ff 	mov    %rax,-0x4a8(%rbp)
   108ae:	48 8d 05 73 eb 00 00 	lea    0xeb73(%rip),%rax        # 1f428 <g_267>
   108b5:	48 89 85 60 fb ff ff 	mov    %rax,-0x4a0(%rbp)
   108bc:	48 8d 05 65 eb 00 00 	lea    0xeb65(%rip),%rax        # 1f428 <g_267>
   108c3:	48 89 85 68 fb ff ff 	mov    %rax,-0x498(%rbp)
   108ca:	48 8d 05 57 eb 00 00 	lea    0xeb57(%rip),%rax        # 1f428 <g_267>
   108d1:	48 89 85 70 fb ff ff 	mov    %rax,-0x490(%rbp)
   108d8:	48 8d 05 49 eb 00 00 	lea    0xeb49(%rip),%rax        # 1f428 <g_267>
   108df:	48 89 85 78 fb ff ff 	mov    %rax,-0x488(%rbp)
   108e6:	48 8d 05 3b eb 00 00 	lea    0xeb3b(%rip),%rax        # 1f428 <g_267>
   108ed:	48 89 85 80 fb ff ff 	mov    %rax,-0x480(%rbp)
   108f4:	48 8d 05 2d eb 00 00 	lea    0xeb2d(%rip),%rax        # 1f428 <g_267>
   108fb:	48 89 85 88 fb ff ff 	mov    %rax,-0x478(%rbp)
   10902:	48 8d 05 1f eb 00 00 	lea    0xeb1f(%rip),%rax        # 1f428 <g_267>
   10909:	48 89 85 90 fb ff ff 	mov    %rax,-0x470(%rbp)
   10910:	48 8d 05 11 eb 00 00 	lea    0xeb11(%rip),%rax        # 1f428 <g_267>
   10917:	48 89 85 98 fb ff ff 	mov    %rax,-0x468(%rbp)
   1091e:	48 8d 05 03 eb 00 00 	lea    0xeb03(%rip),%rax        # 1f428 <g_267>
   10925:	48 89 85 a0 fb ff ff 	mov    %rax,-0x460(%rbp)
   1092c:	48 8d 05 f5 ea 00 00 	lea    0xeaf5(%rip),%rax        # 1f428 <g_267>
   10933:	48 89 85 a8 fb ff ff 	mov    %rax,-0x458(%rbp)
   1093a:	48 8d 05 e7 ea 00 00 	lea    0xeae7(%rip),%rax        # 1f428 <g_267>
   10941:	48 89 85 b0 fb ff ff 	mov    %rax,-0x450(%rbp)
   10948:	48 8d 05 d9 ea 00 00 	lea    0xead9(%rip),%rax        # 1f428 <g_267>
   1094f:	48 89 85 b8 fb ff ff 	mov    %rax,-0x448(%rbp)
   10956:	48 8d 05 c7 ea 00 00 	lea    0xeac7(%rip),%rax        # 1f424 <g_246>
   1095d:	48 89 85 30 f9 ff ff 	mov    %rax,-0x6d0(%rbp)
   10964:	c7 85 94 f8 ff ff 00 	movl   $0x0,-0x76c(%rbp)
   1096b:	00 00 00 
   1096e:	48 8d 05 3f eb 00 00 	lea    0xeb3f(%rip),%rax        # 1f4b4 <g_717>
   10975:	48 89 85 d0 f8 ff ff 	mov    %rax,-0x730(%rbp)
   1097c:	c7 85 70 f8 ff ff fd 	movl   $0xfffffffd,-0x790(%rbp)
   10983:	ff ff ff 
   10986:	c7 85 74 f8 ff ff 49 	movl   $0x8d49b649,-0x78c(%rbp)
   1098d:	b6 49 8d 
   10990:	48 8d 85 74 f8 ff ff 	lea    -0x78c(%rbp),%rax
   10997:	48 89 85 38 f9 ff ff 	mov    %rax,-0x6c8(%rbp)
   1099e:	c7 85 78 f8 ff ff ff 	movl   $0xffffffff,-0x788(%rbp)
   109a5:	ff ff ff 
   109a8:	48 8d 05 75 ea 00 00 	lea    0xea75(%rip),%rax        # 1f424 <g_246>
   109af:	48 89 85 d8 f8 ff ff 	mov    %rax,-0x728(%rbp)
   109b6:	c7 85 7c f8 ff ff 00 	movl   $0x0,-0x784(%rbp)
   109bd:	00 00 00 
   109c0:	48 8d 85 70 f8 ff ff 	lea    -0x790(%rbp),%rax
   109c7:	48 89 85 e0 f8 ff ff 	mov    %rax,-0x720(%rbp)
   109ce:	48 8d 85 78 f8 ff ff 	lea    -0x788(%rbp),%rax
   109d5:	48 89 85 e8 f8 ff ff 	mov    %rax,-0x718(%rbp)
   109dc:	48 8d 85 78 f8 ff ff 	lea    -0x788(%rbp),%rax
   109e3:	48 89 85 40 f9 ff ff 	mov    %rax,-0x6c0(%rbp)
   109ea:	48 c7 85 48 f9 ff ff 	movq   $0x0,-0x6b8(%rbp)
   109f1:	00 00 00 00 
   109f5:	48 8d 85 74 f8 ff ff 	lea    -0x78c(%rbp),%rax
   109fc:	48 89 85 50 f9 ff ff 	mov    %rax,-0x6b0(%rbp)
   10a03:	48 8d 85 78 f8 ff ff 	lea    -0x788(%rbp),%rax
   10a0a:	48 89 85 58 f9 ff ff 	mov    %rax,-0x6a8(%rbp)
   10a11:	48 8d 05 0c ea 00 00 	lea    0xea0c(%rip),%rax        # 1f424 <g_246>
   10a18:	48 89 85 f0 f8 ff ff 	mov    %rax,-0x710(%rbp)
   10a1f:	48 8d 85 7c f8 ff ff 	lea    -0x784(%rbp),%rax
   10a26:	48 89 85 60 f9 ff ff 	mov    %rax,-0x6a0(%rbp)
   10a2d:	48 8d 05 80 ea 00 00 	lea    0xea80(%rip),%rax        # 1f4b4 <g_717>
   10a34:	48 89 85 68 f9 ff ff 	mov    %rax,-0x698(%rbp)
   10a3b:	c7 85 80 f8 ff ff ff 	movl   $0xffffffff,-0x780(%rbp)
   10a42:	ff ff ff 
   10a45:	48 8d 85 70 f8 ff ff 	lea    -0x790(%rbp),%rax
   10a4c:	48 89 85 70 f9 ff ff 	mov    %rax,-0x690(%rbp)
   10a53:	48 8d 05 ca e9 00 00 	lea    0xe9ca(%rip),%rax        # 1f424 <g_246>
   10a5a:	48 89 85 78 f9 ff ff 	mov    %rax,-0x688(%rbp)
   10a61:	48 8d 85 80 f8 ff ff 	lea    -0x780(%rbp),%rax
   10a68:	48 89 85 80 f9 ff ff 	mov    %rax,-0x680(%rbp)
   10a6f:	48 8d 85 80 f8 ff ff 	lea    -0x780(%rbp),%rax
   10a76:	48 89 85 88 f9 ff ff 	mov    %rax,-0x678(%rbp)
   10a7d:	48 8d 85 74 f8 ff ff 	lea    -0x78c(%rbp),%rax
   10a84:	48 89 85 c0 fb ff ff 	mov    %rax,-0x440(%rbp)
   10a8b:	48 8d 85 74 f8 ff ff 	lea    -0x78c(%rbp),%rax
   10a92:	48 89 85 c8 fb ff ff 	mov    %rax,-0x438(%rbp)
   10a99:	48 8d 05 14 ea 00 00 	lea    0xea14(%rip),%rax        # 1f4b4 <g_717>
   10aa0:	48 89 85 d0 fb ff ff 	mov    %rax,-0x430(%rbp)
   10aa7:	48 8d 85 74 f8 ff ff 	lea    -0x78c(%rbp),%rax
   10aae:	48 89 85 d8 fb ff ff 	mov    %rax,-0x428(%rbp)
   10ab5:	48 8d 85 74 f8 ff ff 	lea    -0x78c(%rbp),%rax
   10abc:	48 89 85 e0 fb ff ff 	mov    %rax,-0x420(%rbp)
   10ac3:	48 8d 05 ea e9 00 00 	lea    0xe9ea(%rip),%rax        # 1f4b4 <g_717>
   10aca:	48 89 85 e8 fb ff ff 	mov    %rax,-0x418(%rbp)
   10ad1:	48 8d 85 74 f8 ff ff 	lea    -0x78c(%rbp),%rax
   10ad8:	48 89 85 f0 fb ff ff 	mov    %rax,-0x410(%rbp)
   10adf:	48 8d 85 74 f8 ff ff 	lea    -0x78c(%rbp),%rax
   10ae6:	48 89 85 f8 fb ff ff 	mov    %rax,-0x408(%rbp)
   10aed:	48 8d 05 c0 e9 00 00 	lea    0xe9c0(%rip),%rax        # 1f4b4 <g_717>
   10af4:	48 89 85 00 fc ff ff 	mov    %rax,-0x400(%rbp)
   10afb:	48 8d 85 74 f8 ff ff 	lea    -0x78c(%rbp),%rax
   10b02:	48 89 85 08 fc ff ff 	mov    %rax,-0x3f8(%rbp)
   10b09:	48 8d 85 74 f8 ff ff 	lea    -0x78c(%rbp),%rax
   10b10:	48 89 85 10 fc ff ff 	mov    %rax,-0x3f0(%rbp)
   10b17:	48 8d 05 96 e9 00 00 	lea    0xe996(%rip),%rax        # 1f4b4 <g_717>
   10b1e:	48 89 85 18 fc ff ff 	mov    %rax,-0x3e8(%rbp)
   10b25:	48 8d 85 74 f8 ff ff 	lea    -0x78c(%rbp),%rax
   10b2c:	48 89 85 20 fc ff ff 	mov    %rax,-0x3e0(%rbp)
   10b33:	48 8d 85 74 f8 ff ff 	lea    -0x78c(%rbp),%rax
   10b3a:	48 89 85 28 fc ff ff 	mov    %rax,-0x3d8(%rbp)
   10b41:	48 8d 05 6c e9 00 00 	lea    0xe96c(%rip),%rax        # 1f4b4 <g_717>
   10b48:	48 89 85 30 fc ff ff 	mov    %rax,-0x3d0(%rbp)
   10b4f:	48 8d 85 74 f8 ff ff 	lea    -0x78c(%rbp),%rax
   10b56:	48 89 85 38 fc ff ff 	mov    %rax,-0x3c8(%rbp)
   10b5d:	48 8d 85 74 f8 ff ff 	lea    -0x78c(%rbp),%rax
   10b64:	48 89 85 40 fc ff ff 	mov    %rax,-0x3c0(%rbp)
   10b6b:	48 8d 05 42 e9 00 00 	lea    0xe942(%rip),%rax        # 1f4b4 <g_717>
   10b72:	48 89 85 48 fc ff ff 	mov    %rax,-0x3b8(%rbp)
   10b79:	48 8d 85 74 f8 ff ff 	lea    -0x78c(%rbp),%rax
   10b80:	48 89 85 50 fc ff ff 	mov    %rax,-0x3b0(%rbp)
   10b87:	48 8d 85 74 f8 ff ff 	lea    -0x78c(%rbp),%rax
   10b8e:	48 89 85 58 fc ff ff 	mov    %rax,-0x3a8(%rbp)
   10b95:	48 8d 05 18 e9 00 00 	lea    0xe918(%rip),%rax        # 1f4b4 <g_717>
   10b9c:	48 89 85 60 fc ff ff 	mov    %rax,-0x3a0(%rbp)
   10ba3:	48 8d 85 74 f8 ff ff 	lea    -0x78c(%rbp),%rax
   10baa:	48 89 85 68 fc ff ff 	mov    %rax,-0x398(%rbp)
   10bb1:	48 8d 85 74 f8 ff ff 	lea    -0x78c(%rbp),%rax
   10bb8:	48 89 85 70 fc ff ff 	mov    %rax,-0x390(%rbp)
   10bbf:	48 8d 05 ee e8 00 00 	lea    0xe8ee(%rip),%rax        # 1f4b4 <g_717>
   10bc6:	48 89 85 78 fc ff ff 	mov    %rax,-0x388(%rbp)
   10bcd:	c6 85 68 f8 ff ff 73 	movb   $0x73,-0x798(%rbp)
   10bd4:	c7 85 8c f8 ff ff ff 	movl   $0xffffffff,-0x774(%rbp)
   10bdb:	ff ff ff 
   10bde:	48 8d 05 67 e8 00 00 	lea    0xe867(%rip),%rax        # 1f44c <g_278+0xc>
   10be5:	48 89 85 f8 f8 ff ff 	mov    %rax,-0x708(%rbp)
   10bec:	48 8d 85 f8 f8 ff ff 	lea    -0x708(%rbp),%rax
   10bf3:	48 89 85 90 f9 ff ff 	mov    %rax,-0x670(%rbp)
   10bfa:	c6 85 69 f8 ff ff 04 	movb   $0x4,-0x797(%rbp)
   10c01:	48 8d 05 08 12 01 00 	lea    0x11208(%rip),%rax        # 21e10 <g_580>
   10c08:	48 89 85 98 f9 ff ff 	mov    %rax,-0x668(%rbp)
   10c0f:	48 c7 45 c0 00 00 00 	movq   $0x0,-0x40(%rbp)
   10c16:	00 
   10c17:	48 8d 05 3a 26 01 00 	lea    0x1263a(%rip),%rax        # 23258 <g_645+0xb8>
   10c1e:	48 89 85 a0 f9 ff ff 	mov    %rax,-0x660(%rbp)
   10c25:	66 c7 85 6a f8 ff ff 	movw   $0x8fb7,-0x796(%rbp)
   10c2c:	b7 8f 
   10c2e:	8b 05 f4 e7 00 00    	mov    0xe7f4(%rip),%eax        # 1f428 <g_267>
   10c34:	8d 50 01             	lea    0x1(%rax),%edx
   10c37:	89 15 eb e7 00 00    	mov    %edx,0xe7eb(%rip)        # 1f428 <g_267>
   10c3d:	89 c2                	mov    %eax,%edx
   10c3f:	48 8b 85 c8 f8 ff ff 	mov    -0x738(%rbp),%rax
   10c46:	48 39 c2             	cmp    %rax,%rdx
   10c49:	0f 97 c0             	seta   %al
   10c4c:	0f b6 d0             	movzbl %al,%edx
   10c4f:	48 8b 85 30 f9 ff ff 	mov    -0x6d0(%rbp),%rax
   10c56:	89 10                	mov    %edx,(%rax)
   10c58:	8b 85 58 f8 ff ff    	mov    -0x7a8(%rbp),%eax
   10c5e:	0f b6 d8             	movzbl %al,%ebx
   10c61:	8b 85 54 f8 ff ff    	mov    -0x7ac(%rbp),%eax
   10c67:	0f be d0             	movsbl %al,%edx
   10c6a:	83 bd 58 f8 ff ff 00 	cmpl   $0x0,-0x7a8(%rbp)
   10c71:	74 10                	je     10c83 <func_52+0x48c>
   10c73:	83 bd 58 f8 ff ff 00 	cmpl   $0x0,-0x7a8(%rbp)
   10c7a:	75 07                	jne    10c83 <func_52+0x48c>
   10c7c:	b8 01 00 00 00       	mov    $0x1,%eax
   10c81:	eb 05                	jmp    10c88 <func_52+0x491>
   10c83:	b8 00 00 00 00       	mov    $0x0,%eax
   10c88:	0f be c0             	movsbl %al,%eax
   10c8b:	89 d6                	mov    %edx,%esi
   10c8d:	89 c7                	mov    %eax,%edi
   10c8f:	e8 7e 85 ff ff       	callq  9212 <safe_mul_func_int8_t_s_s>
   10c94:	84 c0                	test   %al,%al
   10c96:	74 58                	je     10cf0 <func_52+0x4f9>
   10c98:	0f b7 85 5c f8 ff ff 	movzwl -0x7a4(%rbp),%eax
   10c9f:	44 0f bf e0          	movswl %ax,%r12d
   10ca3:	48 c7 05 c2 11 01 00 	movq   $0x0,0x111c2(%rip)        # 21e70 <g_712>
   10caa:	00 00 00 00 
   10cae:	83 bd 54 f8 ff ff fd 	cmpl   $0xfffffffd,-0x7ac(%rbp)
   10cb5:	0f 95 c0             	setne  %al
   10cb8:	0f b6 c0             	movzbl %al,%eax
   10cbb:	48 be 63 04 9b bc 1a 	movabs $0xf391e21abc9b0463,%rsi
   10cc2:	e2 91 f3 
   10cc5:	48 89 c7             	mov    %rax,%rdi
   10cc8:	e8 74 8b ff ff       	callq  9841 <safe_add_func_int64_t_s_s>
   10ccd:	83 bd 94 f8 ff ff 00 	cmpl   $0x0,-0x76c(%rbp)
   10cd4:	0f 95 c0             	setne  %al
   10cd7:	0f b6 c0             	movzbl %al,%eax
   10cda:	44 89 e6             	mov    %r12d,%esi
   10cdd:	89 c7                	mov    %eax,%edi
   10cdf:	e8 96 91 ff ff       	callq  9e7a <safe_rshift_func_uint16_t_u_u>
   10ce4:	66 85 c0             	test   %ax,%ax
   10ce7:	74 07                	je     10cf0 <func_52+0x4f9>
   10ce9:	b8 01 00 00 00       	mov    $0x1,%eax
   10cee:	eb 05                	jmp    10cf5 <func_52+0x4fe>
   10cf0:	b8 00 00 00 00       	mov    $0x0,%eax
   10cf5:	0f b6 c0             	movzbl %al,%eax
   10cf8:	89 de                	mov    %ebx,%esi
   10cfa:	89 c7                	mov    %eax,%edi
   10cfc:	e8 92 8e ff ff       	callq  9b93 <safe_mul_func_uint8_t_u_u>
   10d01:	0f b6 c0             	movzbl %al,%eax
   10d04:	39 85 58 f8 ff ff    	cmp    %eax,-0x7a8(%rbp)
   10d0a:	0f 93 c0             	setae  %al
   10d0d:	0f b6 c8             	movzbl %al,%ecx
   10d10:	48 8b 85 d0 f8 ff ff 	mov    -0x730(%rbp),%rax
   10d17:	8b 10                	mov    (%rax),%edx
   10d19:	48 8b 85 d0 f8 ff ff 	mov    -0x730(%rbp),%rax
   10d20:	31 ca                	xor    %ecx,%edx
   10d22:	89 10                	mov    %edx,(%rax)
   10d24:	83 85 8c f8 ff ff 01 	addl   $0x1,-0x774(%rbp)
   10d2b:	c7 85 7c f8 ff ff f8 	movl   $0xfffffff8,-0x784(%rbp)
   10d32:	ff ff ff 
   10d35:	e9 fb 1e 00 00       	jmpq   12c35 <func_52+0x243e>
   10d3a:	48 8d 85 c8 f8 ff ff 	lea    -0x738(%rbp),%rax
   10d41:	48 89 85 00 f9 ff ff 	mov    %rax,-0x700(%rbp)
   10d48:	48 8d 05 41 e7 00 00 	lea    0xe741(%rip),%rax        # 1f490 <g_347>
   10d4f:	48 89 85 a8 f9 ff ff 	mov    %rax,-0x658(%rbp)
   10d56:	c7 85 84 f8 ff ff 09 	movl   $0x9,-0x77c(%rbp)
   10d5d:	00 00 00 
   10d60:	48 8d 05 21 24 01 00 	lea    0x12421(%rip),%rax        # 23188 <g_110>
   10d67:	48 89 85 08 f9 ff ff 	mov    %rax,-0x6f8(%rbp)
   10d6e:	48 8d 85 08 f9 ff ff 	lea    -0x6f8(%rbp),%rax
   10d75:	48 89 85 a0 fa ff ff 	mov    %rax,-0x560(%rbp)
   10d7c:	48 8d 85 08 f9 ff ff 	lea    -0x6f8(%rbp),%rax
   10d83:	48 89 85 a8 fa ff ff 	mov    %rax,-0x558(%rbp)
   10d8a:	48 8d 85 08 f9 ff ff 	lea    -0x6f8(%rbp),%rax
   10d91:	48 89 85 b0 fa ff ff 	mov    %rax,-0x550(%rbp)
   10d98:	48 8d 85 08 f9 ff ff 	lea    -0x6f8(%rbp),%rax
   10d9f:	48 89 85 b8 fa ff ff 	mov    %rax,-0x548(%rbp)
   10da6:	48 8d 85 08 f9 ff ff 	lea    -0x6f8(%rbp),%rax
   10dad:	48 89 85 c0 fa ff ff 	mov    %rax,-0x540(%rbp)
   10db4:	48 8d 85 08 f9 ff ff 	lea    -0x6f8(%rbp),%rax
   10dbb:	48 89 85 c8 fa ff ff 	mov    %rax,-0x538(%rbp)
   10dc2:	48 8d 85 08 f9 ff ff 	lea    -0x6f8(%rbp),%rax
   10dc9:	48 89 85 d0 fa ff ff 	mov    %rax,-0x530(%rbp)
   10dd0:	c7 85 88 f8 ff ff 01 	movl   $0x1,-0x778(%rbp)
   10dd7:	00 00 00 
   10dda:	48 8d 05 27 e6 00 00 	lea    0xe627(%rip),%rax        # 1f408 <g_143>
   10de1:	48 89 85 b0 f9 ff ff 	mov    %rax,-0x650(%rbp)
   10de8:	48 8d 05 91 e6 00 00 	lea    0xe691(%rip),%rax        # 1f480 <g_293>
   10def:	48 89 85 b8 f9 ff ff 	mov    %rax,-0x648(%rbp)
   10df6:	c7 85 90 f8 ff ff 7d 	movl   $0xdb49727d,-0x770(%rbp)
   10dfd:	72 49 db 
   10e00:	48 8d 05 96 e6 00 00 	lea    0xe696(%rip),%rax        # 1f49d <g_375>
   10e07:	48 89 85 80 fc ff ff 	mov    %rax,-0x380(%rbp)
   10e0e:	48 8d 05 8f e6 00 00 	lea    0xe68f(%rip),%rax        # 1f4a4 <g_565>
   10e15:	48 89 85 88 fc ff ff 	mov    %rax,-0x378(%rbp)
   10e1c:	48 8d 05 7a e6 00 00 	lea    0xe67a(%rip),%rax        # 1f49d <g_375>
   10e23:	48 89 85 90 fc ff ff 	mov    %rax,-0x370(%rbp)
   10e2a:	48 8d 05 73 e6 00 00 	lea    0xe673(%rip),%rax        # 1f4a4 <g_565>
   10e31:	48 89 85 98 fc ff ff 	mov    %rax,-0x368(%rbp)
   10e38:	48 8d 05 5e e6 00 00 	lea    0xe65e(%rip),%rax        # 1f49d <g_375>
   10e3f:	48 89 85 a0 fc ff ff 	mov    %rax,-0x360(%rbp)
   10e46:	48 8d 05 57 e6 00 00 	lea    0xe657(%rip),%rax        # 1f4a4 <g_565>
   10e4d:	48 89 85 a8 fc ff ff 	mov    %rax,-0x358(%rbp)
   10e54:	48 8d 05 42 e6 00 00 	lea    0xe642(%rip),%rax        # 1f49d <g_375>
   10e5b:	48 89 85 b0 fc ff ff 	mov    %rax,-0x350(%rbp)
   10e62:	48 8d 05 3b e6 00 00 	lea    0xe63b(%rip),%rax        # 1f4a4 <g_565>
   10e69:	48 89 85 b8 fc ff ff 	mov    %rax,-0x348(%rbp)
   10e70:	48 8d 05 26 e6 00 00 	lea    0xe626(%rip),%rax        # 1f49d <g_375>
   10e77:	48 89 85 c0 fc ff ff 	mov    %rax,-0x340(%rbp)
   10e7e:	48 8d 05 1f e6 00 00 	lea    0xe61f(%rip),%rax        # 1f4a4 <g_565>
   10e85:	48 89 85 c8 fc ff ff 	mov    %rax,-0x338(%rbp)
   10e8c:	48 8d 05 0a e6 00 00 	lea    0xe60a(%rip),%rax        # 1f49d <g_375>
   10e93:	48 89 85 d0 fc ff ff 	mov    %rax,-0x330(%rbp)
   10e9a:	48 8d 05 03 e6 00 00 	lea    0xe603(%rip),%rax        # 1f4a4 <g_565>
   10ea1:	48 89 85 d8 fc ff ff 	mov    %rax,-0x328(%rbp)
   10ea8:	48 8d 05 ee e5 00 00 	lea    0xe5ee(%rip),%rax        # 1f49d <g_375>
   10eaf:	48 89 85 e0 fc ff ff 	mov    %rax,-0x320(%rbp)
   10eb6:	48 8d 05 e7 e5 00 00 	lea    0xe5e7(%rip),%rax        # 1f4a4 <g_565>
   10ebd:	48 89 85 e8 fc ff ff 	mov    %rax,-0x318(%rbp)
   10ec4:	48 8d 05 d2 e5 00 00 	lea    0xe5d2(%rip),%rax        # 1f49d <g_375>
   10ecb:	48 89 85 f0 fc ff ff 	mov    %rax,-0x310(%rbp)
   10ed2:	48 8d 05 cb e5 00 00 	lea    0xe5cb(%rip),%rax        # 1f4a4 <g_565>
   10ed9:	48 89 85 f8 fc ff ff 	mov    %rax,-0x308(%rbp)
   10ee0:	48 8d 05 b6 e5 00 00 	lea    0xe5b6(%rip),%rax        # 1f49d <g_375>
   10ee7:	48 89 85 00 fd ff ff 	mov    %rax,-0x300(%rbp)
   10eee:	48 8d 05 af e5 00 00 	lea    0xe5af(%rip),%rax        # 1f4a4 <g_565>
   10ef5:	48 89 85 08 fd ff ff 	mov    %rax,-0x2f8(%rbp)
   10efc:	48 8d 05 9a e5 00 00 	lea    0xe59a(%rip),%rax        # 1f49d <g_375>
   10f03:	48 89 85 10 fd ff ff 	mov    %rax,-0x2f0(%rbp)
   10f0a:	48 8d 05 93 e5 00 00 	lea    0xe593(%rip),%rax        # 1f4a4 <g_565>
   10f11:	48 89 85 18 fd ff ff 	mov    %rax,-0x2e8(%rbp)
   10f18:	48 8d 05 7e e5 00 00 	lea    0xe57e(%rip),%rax        # 1f49d <g_375>
   10f1f:	48 89 85 20 fd ff ff 	mov    %rax,-0x2e0(%rbp)
   10f26:	48 8d 05 77 e5 00 00 	lea    0xe577(%rip),%rax        # 1f4a4 <g_565>
   10f2d:	48 89 85 28 fd ff ff 	mov    %rax,-0x2d8(%rbp)
   10f34:	48 8d 05 62 e5 00 00 	lea    0xe562(%rip),%rax        # 1f49d <g_375>
   10f3b:	48 89 85 30 fd ff ff 	mov    %rax,-0x2d0(%rbp)
   10f42:	48 8d 05 5b e5 00 00 	lea    0xe55b(%rip),%rax        # 1f4a4 <g_565>
   10f49:	48 89 85 38 fd ff ff 	mov    %rax,-0x2c8(%rbp)
   10f50:	48 c7 85 c0 f9 ff ff 	movq   $0x0,-0x640(%rbp)
   10f57:	00 00 00 00 
   10f5b:	48 8d 05 ce 0d 01 00 	lea    0x10dce(%rip),%rax        # 21d30 <g_200>
   10f62:	48 89 85 c8 f9 ff ff 	mov    %rax,-0x638(%rbp)
   10f69:	48 8d 05 a8 0e 01 00 	lea    0x10ea8(%rip),%rax        # 21e18 <g_579>
   10f70:	48 89 85 e0 fa ff ff 	mov    %rax,-0x520(%rbp)
   10f77:	48 c7 85 e8 fa ff ff 	movq   $0x0,-0x518(%rbp)
   10f7e:	00 00 00 00 
   10f82:	48 8d 05 8f 0e 01 00 	lea    0x10e8f(%rip),%rax        # 21e18 <g_579>
   10f89:	48 89 85 f0 fa ff ff 	mov    %rax,-0x510(%rbp)
   10f90:	48 c7 85 f8 fa ff ff 	movq   $0x0,-0x508(%rbp)
   10f97:	00 00 00 00 
   10f9b:	48 8d 05 76 0e 01 00 	lea    0x10e76(%rip),%rax        # 21e18 <g_579>
   10fa2:	48 89 85 00 fb ff ff 	mov    %rax,-0x500(%rbp)
   10fa9:	48 c7 85 08 fb ff ff 	movq   $0x0,-0x4f8(%rbp)
   10fb0:	00 00 00 00 
   10fb4:	48 8d 05 5d 0e 01 00 	lea    0x10e5d(%rip),%rax        # 21e18 <g_579>
   10fbb:	48 89 85 10 fb ff ff 	mov    %rax,-0x4f0(%rbp)
   10fc2:	48 c7 85 18 fb ff ff 	movq   $0x0,-0x4e8(%rbp)
   10fc9:	00 00 00 00 
   10fcd:	48 8d 85 e0 fa ff ff 	lea    -0x520(%rbp),%rax
   10fd4:	48 83 c0 20          	add    $0x20,%rax
   10fd8:	48 89 85 d0 f9 ff ff 	mov    %rax,-0x630(%rbp)
   10fdf:	8b 85 54 f8 ff ff    	mov    -0x7ac(%rbp),%eax
   10fe5:	48 63 d8             	movslq %eax,%rbx
   10fe8:	44 0f be a5 69 f8 ff 	movsbl -0x797(%rbp),%r12d
   10fef:	ff 
   10ff0:	48 8b 85 70 f9 ff ff 	mov    -0x690(%rbp),%rax
   10ff7:	8b 00                	mov    (%rax),%eax
   10ff9:	44 0f be e8          	movsbl %al,%r13d
   10ffd:	48 8b 85 d8 f8 ff ff 	mov    -0x728(%rbp),%rax
   11004:	44 8b 30             	mov    (%rax),%r14d
   11007:	48 8b 85 d8 f8 ff ff 	mov    -0x728(%rbp),%rax
   1100e:	8b 00                	mov    (%rax),%eax
   11010:	48 63 d0             	movslq %eax,%rdx
   11013:	48 8d 05 5e 0e 01 00 	lea    0x10e5e(%rip),%rax        # 21e78 <g_767>
   1101a:	48 39 85 90 f9 ff ff 	cmp    %rax,-0x670(%rbp)
   11021:	0f 95 c0             	setne  %al
   11024:	0f b6 c8             	movzbl %al,%ecx
   11027:	8b 85 84 f8 ff ff    	mov    -0x77c(%rbp),%eax
   1102d:	39 c1                	cmp    %eax,%ecx
   1102f:	0f 9f c0             	setg   %al
   11032:	0f b6 c0             	movzbl %al,%eax
   11035:	48 89 d6             	mov    %rdx,%rsi
   11038:	48 89 c7             	mov    %rax,%rdi
   1103b:	e8 01 88 ff ff       	callq  9841 <safe_add_func_int64_t_s_s>
   11040:	48 8b 05 51 0d 01 00 	mov    0x10d51(%rip),%rax        # 21d98 <g_332>
   11047:	48 8b 00             	mov    (%rax),%rax
   1104a:	48 8b 00             	mov    (%rax),%rax
   1104d:	0f b7 00             	movzwl (%rax),%eax
   11050:	66 85 c0             	test   %ax,%ax
   11053:	0f 94 c0             	sete   %al
   11056:	0f b6 c0             	movzbl %al,%eax
   11059:	0b 85 54 f8 ff ff    	or     -0x7ac(%rbp),%eax
   1105f:	3d dd 00 00 00       	cmp    $0xdd,%eax
   11064:	0f 95 c0             	setne  %al
   11067:	0f b6 d0             	movzbl %al,%edx
   1106a:	48 8b 85 e0 f8 ff ff 	mov    -0x720(%rbp),%rax
   11071:	8b 00                	mov    (%rax),%eax
   11073:	39 c2                	cmp    %eax,%edx
   11075:	0f 9e c0             	setle  %al
   11078:	0f b6 c0             	movzbl %al,%eax
   1107b:	44 89 f6             	mov    %r14d,%esi
   1107e:	89 c7                	mov    %eax,%edi
   11080:	e8 0d 84 ff ff       	callq  9492 <safe_lshift_func_int16_t_s_s>
   11085:	0f bf d0             	movswl %ax,%edx
   11088:	8b 85 88 f8 ff ff    	mov    -0x778(%rbp),%eax
   1108e:	39 c2                	cmp    %eax,%edx
   11090:	0f 9e c0             	setle  %al
   11093:	0f b6 d0             	movzbl %al,%edx
   11096:	8b 05 8c e3 00 00    	mov    0xe38c(%rip),%eax        # 1f428 <g_267>
   1109c:	8d 48 01             	lea    0x1(%rax),%ecx
   1109f:	89 0d 83 e3 00 00    	mov    %ecx,0xe383(%rip)        # 1f428 <g_267>
   110a5:	89 d6                	mov    %edx,%esi
   110a7:	89 c7                	mov    %eax,%edi
   110a9:	e8 0a 8e ff ff       	callq  9eb8 <safe_add_func_uint32_t_u_u>
   110ae:	8b 95 54 f8 ff ff    	mov    -0x7ac(%rbp),%edx
   110b4:	39 d0                	cmp    %edx,%eax
   110b6:	0f 94 c0             	sete   %al
   110b9:	0f b6 c0             	movzbl %al,%eax
   110bc:	44 89 ee             	mov    %r13d,%esi
   110bf:	89 c7                	mov    %eax,%edi
   110c1:	e8 0e 81 ff ff       	callq  91d4 <safe_add_func_int8_t_s_s>
   110c6:	84 c0                	test   %al,%al
   110c8:	75 12                	jne    110dc <func_52+0x8e5>
   110ca:	48 8b 05 67 0c 01 00 	mov    0x10c67(%rip),%rax        # 21d38 <g_199>
   110d1:	48 8b 00             	mov    (%rax),%rax
   110d4:	0f b7 00             	movzwl (%rax),%eax
   110d7:	66 85 c0             	test   %ax,%ax
   110da:	74 08                	je     110e4 <func_52+0x8ed>
   110dc:	41 bd 01 00 00 00    	mov    $0x1,%r13d
   110e2:	eb 06                	jmp    110ea <func_52+0x8f3>
   110e4:	41 bd 00 00 00 00    	mov    $0x0,%r13d
   110ea:	48 8b 85 a8 f9 ff ff 	mov    -0x658(%rbp),%rax
   110f1:	48 8b 10             	mov    (%rax),%rdx
   110f4:	8b 85 58 f8 ff ff    	mov    -0x7a8(%rbp),%eax
   110fa:	48 31 c2             	xor    %rax,%rdx
   110fd:	48 8b 85 a8 f9 ff ff 	mov    -0x658(%rbp),%rax
   11104:	48 89 10             	mov    %rdx,(%rax)
   11107:	48 8b 85 a8 f9 ff ff 	mov    -0x658(%rbp),%rax
   1110e:	48 8b 10             	mov    (%rax),%rdx
   11111:	8b 85 58 f8 ff ff    	mov    -0x7a8(%rbp),%eax
   11117:	48 89 d6             	mov    %rdx,%rsi
   1111a:	48 89 c7             	mov    %rax,%rdi
   1111d:	e8 92 88 ff ff       	callq  99b4 <safe_mod_func_int64_t_s_s>
   11122:	48 ba 8a 28 48 05 15 	movabs $0xa50f06150548288a,%rdx
   11129:	06 0f a5 
   1112c:	48 39 d0             	cmp    %rdx,%rax
   1112f:	48 8b 85 b0 f9 ff ff 	mov    -0x650(%rbp),%rax
   11136:	48 8b 10             	mov    (%rax),%rdx
   11139:	49 63 c5             	movslq %r13d,%rax
   1113c:	48 09 c2             	or     %rax,%rdx
   1113f:	48 8b 85 b0 f9 ff ff 	mov    -0x650(%rbp),%rax
   11146:	48 89 10             	mov    %rdx,(%rax)
   11149:	48 8b 85 b0 f9 ff ff 	mov    -0x650(%rbp),%rax
   11150:	48 8b 10             	mov    (%rax),%rdx
   11153:	48 8b 85 88 f9 ff ff 	mov    -0x678(%rbp),%rax
   1115a:	8b 00                	mov    (%rax),%eax
   1115c:	48 98                	cltq   
   1115e:	48 39 c2             	cmp    %rax,%rdx
   11161:	48 8b 85 00 f9 ff ff 	mov    -0x700(%rbp),%rax
   11168:	48 8b 08             	mov    (%rax),%rcx
   1116b:	0f b7 05 3c e3 00 00 	movzwl 0xe33c(%rip),%eax        # 1f4ae <g_632+0x6>
   11172:	48 0f bf d0          	movswq %ax,%rdx
   11176:	48 8b 85 00 f9 ff ff 	mov    -0x700(%rbp),%rax
   1117d:	48 09 ca             	or     %rcx,%rdx
   11180:	48 89 10             	mov    %rdx,(%rax)
   11183:	48 8b 85 40 f9 ff ff 	mov    -0x6c0(%rbp),%rax
   1118a:	8b 00                	mov    (%rax),%eax
   1118c:	48 98                	cltq   
   1118e:	48 ba f7 16 1b 5e cd 	movabs $0xd276edcd5e1b16f7,%rdx
   11195:	ed 76 d2 
   11198:	48 39 d0             	cmp    %rdx,%rax
   1119b:	0f 95 c0             	setne  %al
   1119e:	89 c2                	mov    %eax,%edx
   111a0:	0f b7 85 5c f8 ff ff 	movzwl -0x7a4(%rbp),%eax
   111a7:	21 d0                	and    %edx,%eax
   111a9:	0f be c0             	movsbl %al,%eax
   111ac:	44 89 e6             	mov    %r12d,%esi
   111af:	89 c7                	mov    %eax,%edi
   111b1:	e8 b4 80 ff ff       	callq  926a <safe_div_func_int8_t_s_s>
   111b6:	8b 85 58 f8 ff ff    	mov    -0x7a8(%rbp),%eax
   111bc:	48 89 de             	mov    %rbx,%rsi
   111bf:	48 89 c7             	mov    %rax,%rdi
   111c2:	e8 84 8e ff ff       	callq  a04b <safe_sub_func_uint64_t_u_u>
   111c7:	48 85 c0             	test   %rax,%rax
   111ca:	75 09                	jne    111d5 <func_52+0x9de>
   111cc:	83 bd 54 f8 ff ff 00 	cmpl   $0x0,-0x7ac(%rbp)
   111d3:	74 07                	je     111dc <func_52+0x9e5>
   111d5:	ba 01 00 00 00       	mov    $0x1,%edx
   111da:	eb 05                	jmp    111e1 <func_52+0x9ea>
   111dc:	ba 00 00 00 00       	mov    $0x0,%edx
   111e1:	48 8b 85 38 f9 ff ff 	mov    -0x6c8(%rbp),%rax
   111e8:	8b 00                	mov    (%rax),%eax
   111ea:	09 c2                	or     %eax,%edx
   111ec:	48 8b 85 38 f9 ff ff 	mov    -0x6c8(%rbp),%rax
   111f3:	89 10                	mov    %edx,(%rax)
   111f5:	8b 85 54 f8 ff ff    	mov    -0x7ac(%rbp),%eax
   111fb:	48 63 d8             	movslq %eax,%rbx
   111fe:	48 8b 05 8b e2 00 00 	mov    0xe28b(%rip),%rax        # 1f490 <g_347>
   11205:	49 89 c5             	mov    %rax,%r13
   11208:	0f b6 05 8e e2 00 00 	movzbl 0xe28e(%rip),%eax        # 1f49d <g_375>
   1120f:	0f b6 d0             	movzbl %al,%edx
   11212:	8b 85 84 f8 ff ff    	mov    -0x77c(%rbp),%eax
   11218:	48 98                	cltq   
   1121a:	48 89 d6             	mov    %rdx,%rsi
   1121d:	48 89 c7             	mov    %rax,%rdi
   11220:	e8 8f 87 ff ff       	callq  99b4 <safe_mod_func_int64_t_s_s>
   11225:	48 89 c2             	mov    %rax,%rdx
   11228:	48 8b 05 29 0b 01 00 	mov    0x10b29(%rip),%rax        # 21d58 <g_322>
   1122f:	66 89 10             	mov    %dx,(%rax)
   11232:	0f b7 00             	movzwl (%rax),%eax
   11235:	44 0f bf e0          	movswl %ax,%r12d
   11239:	be 09 00 00 00       	mov    $0x9,%esi
   1123e:	bf 00 00 00 00       	mov    $0x0,%edi
   11243:	e8 4a 82 ff ff       	callq  9492 <safe_lshift_func_int16_t_s_s>
   11248:	66 85 c0             	test   %ax,%ax
   1124b:	75 09                	jne    11256 <func_52+0xa5f>
   1124d:	83 bd 54 f8 ff ff 00 	cmpl   $0x0,-0x7ac(%rbp)
   11254:	74 07                	je     1125d <func_52+0xa66>
   11256:	b8 01 00 00 00       	mov    $0x1,%eax
   1125b:	eb 05                	jmp    11262 <func_52+0xa6b>
   1125d:	b8 00 00 00 00       	mov    $0x0,%eax
   11262:	83 f8 01             	cmp    $0x1,%eax
   11265:	0f 9e c0             	setle  %al
   11268:	0f b6 d0             	movzbl %al,%edx
   1126b:	0f b7 05 38 e2 00 00 	movzwl 0xe238(%rip),%eax        # 1f4aa <g_632+0x2>
   11272:	98                   	cwtl   
   11273:	39 c2                	cmp    %eax,%edx
   11275:	0f 9d c0             	setge  %al
   11278:	0f b6 d0             	movzbl %al,%edx
   1127b:	0f b7 85 5c f8 ff ff 	movzwl -0x7a4(%rbp),%eax
   11282:	98                   	cwtl   
   11283:	39 c2                	cmp    %eax,%edx
   11285:	0f 9e c0             	setle  %al
   11288:	0f b6 d0             	movzbl %al,%edx
   1128b:	48 8b 85 00 f9 ff ff 	mov    -0x700(%rbp),%rax
   11292:	48 8b 08             	mov    (%rax),%rcx
   11295:	48 63 d2             	movslq %edx,%rdx
   11298:	48 8b 85 00 f9 ff ff 	mov    -0x700(%rbp),%rax
   1129f:	48 09 ca             	or     %rcx,%rdx
   112a2:	48 89 10             	mov    %rdx,(%rax)
   112a5:	48 8b 10             	mov    (%rax),%rdx
   112a8:	48 8b 85 b8 f9 ff ff 	mov    -0x648(%rbp),%rax
   112af:	48 89 10             	mov    %rdx,(%rax)
   112b2:	48 8b 85 b8 f9 ff ff 	mov    -0x648(%rbp),%rax
   112b9:	48 8b 00             	mov    (%rax),%rax
   112bc:	89 c2                	mov    %eax,%edx
   112be:	8b 85 88 f8 ff ff    	mov    -0x778(%rbp),%eax
   112c4:	21 d0                	and    %edx,%eax
   112c6:	89 85 88 f8 ff ff    	mov    %eax,-0x778(%rbp)
   112cc:	48 8b 05 45 0b 01 00 	mov    0x10b45(%rip),%rax        # 21e18 <g_579>
   112d3:	48 8b 00             	mov    (%rax),%rax
   112d6:	48 8b 00             	mov    (%rax),%rax
   112d9:	0f b6 00             	movzbl (%rax),%eax
   112dc:	0f b6 d0             	movzbl %al,%edx
   112df:	48 8b 85 68 f9 ff ff 	mov    -0x698(%rbp),%rax
   112e6:	8b 00                	mov    (%rax),%eax
   112e8:	39 c2                	cmp    %eax,%edx
   112ea:	0f 9e c0             	setle  %al
   112ed:	0f b6 c0             	movzbl %al,%eax
   112f0:	89 c6                	mov    %eax,%esi
   112f2:	bf 5b 03 67 fe       	mov    $0xfe67035b,%edi
   112f7:	e8 bc 8b ff ff       	callq  9eb8 <safe_add_func_uint32_t_u_u>
   112fc:	48 be 91 18 93 59 9a 	movabs $0x771cb79a59931891,%rsi
   11303:	b7 1c 77 
   11306:	bf 01 00 00 00       	mov    $0x1,%edi
   1130b:	e8 31 85 ff ff       	callq  9841 <safe_add_func_int64_t_s_s>
   11310:	48 be d3 dd 4e eb c7 	movabs $0x1dd73bc7eb4eddd3,%rsi
   11317:	3b d7 1d 
   1131a:	48 89 c7             	mov    %rax,%rdi
   1131d:	e8 86 85 ff ff       	callq  98a8 <safe_sub_func_int64_t_s_s>
   11322:	44 09 e0             	or     %r12d,%eax
   11325:	0d 2f 46 53 8d       	or     $0x8d53462f,%eax
   1132a:	be ff 99 08 c0       	mov    $0xc00899ff,%esi
   1132f:	89 c7                	mov    %eax,%edi
   11331:	e8 80 82 ff ff       	callq  95b6 <safe_add_func_int32_t_s_s>
   11336:	39 85 58 f8 ff ff    	cmp    %eax,-0x7a8(%rbp)
   1133c:	0f 95 c0             	setne  %al
   1133f:	0f b6 c0             	movzbl %al,%eax
   11342:	33 85 58 f8 ff ff    	xor    -0x7a8(%rbp),%eax
   11348:	89 c0                	mov    %eax,%eax
   1134a:	4c 89 ee             	mov    %r13,%rsi
   1134d:	48 89 c7             	mov    %rax,%rdi
   11350:	e8 2b 8d ff ff       	callq  a080 <safe_mod_func_uint64_t_u_u>
   11355:	48 89 de             	mov    %rbx,%rsi
   11358:	48 89 c7             	mov    %rax,%rdi
   1135b:	e8 ce 8c ff ff       	callq  a02e <safe_add_func_uint64_t_u_u>
   11360:	8b 95 54 f8 ff ff    	mov    -0x7ac(%rbp),%edx
   11366:	48 63 d2             	movslq %edx,%rdx
   11369:	48 39 d0             	cmp    %rdx,%rax
   1136c:	0f 97 c0             	seta   %al
   1136f:	0f b6 c0             	movzbl %al,%eax
   11372:	89 c7                	mov    %eax,%edi
   11374:	e8 cc 87 ff ff       	callq  9b45 <safe_unary_minus_func_uint8_t_u>
   11379:	84 c0                	test   %al,%al
   1137b:	74 13                	je     11390 <func_52+0xb99>
   1137d:	0f b7 05 9e e0 00 00 	movzwl 0xe09e(%rip),%eax        # 1f422 <g_194>
   11384:	66 85 c0             	test   %ax,%ax
   11387:	74 07                	je     11390 <func_52+0xb99>
   11389:	b8 01 00 00 00       	mov    $0x1,%eax
   1138e:	eb 05                	jmp    11395 <func_52+0xb9e>
   11390:	b8 00 00 00 00       	mov    $0x0,%eax
   11395:	0f b6 d8             	movzbl %al,%ebx
   11398:	be 06 00 00 00       	mov    $0x6,%esi
   1139d:	bf 00 00 00 00       	mov    $0x0,%edi
   113a2:	e8 47 7f ff ff       	callq  92ee <safe_lshift_func_int8_t_s_u>
   113a7:	8b 85 58 f8 ff ff    	mov    -0x7a8(%rbp),%eax
   113ad:	0f b6 c0             	movzbl %al,%eax
   113b0:	89 de                	mov    %ebx,%esi
   113b2:	89 c7                	mov    %eax,%edi
   113b4:	e8 bf 87 ff ff       	callq  9b78 <safe_sub_func_uint8_t_u_u>
   113b9:	8b 85 84 f8 ff ff    	mov    -0x77c(%rbp),%eax
   113bf:	83 c8 01             	or     $0x1,%eax
   113c2:	23 85 58 f8 ff ff    	and    -0x7a8(%rbp),%eax
   113c8:	85 c0                	test   %eax,%eax
   113ca:	0f 84 b4 0b 00 00    	je     11f84 <func_52+0x178d>
   113d0:	66 c7 85 68 fa ff ff 	movw   $0x2,-0x598(%rbp)
   113d7:	02 00 
   113d9:	66 c7 85 6a fa ff ff 	movw   $0x2,-0x596(%rbp)
   113e0:	02 00 
   113e2:	66 c7 85 6c fa ff ff 	movw   $0x2,-0x594(%rbp)
   113e9:	02 00 
   113eb:	66 c7 85 6e fa ff ff 	movw   $0x2,-0x592(%rbp)
   113f2:	02 00 
   113f4:	48 8d 05 8d 1d 01 00 	lea    0x11d8d(%rip),%rax        # 23188 <g_110>
   113fb:	48 89 85 18 fa ff ff 	mov    %rax,-0x5e8(%rbp)
   11402:	c7 85 a4 f8 ff ff 94 	movl   $0x1f8d894,-0x75c(%rbp)
   11409:	d8 f8 01 
   1140c:	c7 85 80 fa ff ff 01 	movl   $0x1,-0x580(%rbp)
   11413:	00 00 00 
   11416:	c7 85 84 fa ff ff 01 	movl   $0x1,-0x57c(%rbp)
   1141d:	00 00 00 
   11420:	c7 85 88 fa ff ff c0 	movl   $0x354bdec0,-0x578(%rbp)
   11427:	de 4b 35 
   1142a:	c7 85 8c fa ff ff 01 	movl   $0x1,-0x574(%rbp)
   11431:	00 00 00 
   11434:	c7 85 90 fa ff ff 01 	movl   $0x1,-0x570(%rbp)
   1143b:	00 00 00 
   1143e:	c7 85 94 fa ff ff c0 	movl   $0x354bdec0,-0x56c(%rbp)
   11445:	de 4b 35 
   11448:	48 8d 05 69 1d 01 00 	lea    0x11d69(%rip),%rax        # 231b8 <g_645+0x18>
   1144f:	48 89 85 20 fa ff ff 	mov    %rax,-0x5e0(%rbp)
   11456:	c7 85 98 f8 ff ff 00 	movl   $0x0,-0x768(%rbp)
   1145d:	00 00 00 
   11460:	eb 1a                	jmp    1147c <func_52+0xc85>
   11462:	8b 85 98 f8 ff ff    	mov    -0x768(%rbp),%eax
   11468:	48 98                	cltq   
   1146a:	c7 84 85 70 fa ff ff 	movl   $0x5a65c614,-0x590(%rbp,%rax,4)
   11471:	14 c6 65 5a 
   11475:	83 85 98 f8 ff ff 01 	addl   $0x1,-0x768(%rbp)
   1147c:	83 bd 98 f8 ff ff 03 	cmpl   $0x3,-0x768(%rbp)
   11483:	7e dd                	jle    11462 <func_52+0xc6b>
   11485:	48 8b 85 70 f9 ff ff 	mov    -0x690(%rbp),%rax
   1148c:	8b 10                	mov    (%rax),%edx
   1148e:	48 8b 05 c3 08 01 00 	mov    0x108c3(%rip),%rax        # 21d58 <g_322>
   11495:	0f b7 30             	movzwl (%rax),%esi
   11498:	0f b7 8d 5c f8 ff ff 	movzwl -0x7a4(%rbp),%ecx
   1149f:	48 8b 05 b2 08 01 00 	mov    0x108b2(%rip),%rax        # 21d58 <g_322>
   114a6:	09 f1                	or     %esi,%ecx
   114a8:	66 89 08             	mov    %cx,(%rax)
   114ab:	0f b7 00             	movzwl (%rax),%eax
   114ae:	98                   	cwtl   
   114af:	39 c2                	cmp    %eax,%edx
   114b1:	0f 8d 8d 0a 00 00    	jge    11f44 <func_52+0x174d>
   114b7:	c7 85 a8 f8 ff ff ba 	movl   $0x5f57b4ba,-0x758(%rbp)
   114be:	b4 57 5f 
   114c1:	48 8d 05 78 df 00 00 	lea    0xdf78(%rip),%rax        # 1f440 <g_278>
   114c8:	48 89 85 30 fa ff ff 	mov    %rax,-0x5d0(%rbp)
   114cf:	66 c7 85 5c f8 ff ff 	movw   $0x4,-0x7a4(%rbp)
   114d6:	04 00 
   114d8:	e9 4b 0a 00 00       	jmpq   11f28 <func_52+0x1731>
   114dd:	48 8d 05 a4 1c 01 00 	lea    0x11ca4(%rip),%rax        # 23188 <g_110>
   114e4:	48 89 85 38 fa ff ff 	mov    %rax,-0x5c8(%rbp)
   114eb:	c7 85 ac f8 ff ff a8 	movl   $0x2ccc5da8,-0x754(%rbp)
   114f2:	5d cc 2c 
   114f5:	66 c7 85 6c f8 ff ff 	movw   $0xfff7,-0x794(%rbp)
   114fc:	f7 ff 
   114fe:	48 8d 05 9b df 00 00 	lea    0xdf9b(%rip),%rax        # 1f4a0 <g_509>
   11505:	48 89 85 40 fa ff ff 	mov    %rax,-0x5c0(%rbp)
   1150c:	48 8d 05 a1 df 00 00 	lea    0xdfa1(%rip),%rax        # 1f4b4 <g_717>
   11513:	48 89 85 48 fa ff ff 	mov    %rax,-0x5b8(%rbp)
   1151a:	be ff ff 00 00       	mov    $0xffff,%esi
   1151f:	bf 02 a7 00 00       	mov    $0xa702,%edi
   11524:	e8 14 88 ff ff       	callq  9d3d <safe_mul_func_uint16_t_u_u>
   11529:	0f b7 d0             	movzwl %ax,%edx
   1152c:	48 8b 85 80 f9 ff ff 	mov    -0x680(%rbp),%rax
   11533:	89 10                	mov    %edx,(%rax)
   11535:	0f b7 85 6a fa ff ff 	movzwl -0x596(%rbp),%eax
   1153c:	0f b6 c0             	movzbl %al,%eax
   1153f:	be 07 00 00 00       	mov    $0x7,%esi
   11544:	89 c7                	mov    %eax,%edi
   11546:	e8 42 87 ff ff       	callq  9c8d <safe_rshift_func_uint8_t_u_s>
   1154b:	0f b6 d0             	movzbl %al,%edx
   1154e:	48 8b 85 70 f9 ff ff 	mov    -0x690(%rbp),%rax
   11555:	89 10                	mov    %edx,(%rax)
   11557:	48 8b 85 78 f9 ff ff 	mov    -0x688(%rbp),%rax
   1155e:	8b 10                	mov    (%rax),%edx
   11560:	b8 00 00 00 00       	mov    $0x0,%eax
   11565:	0f b6 c0             	movzbl %al,%eax
   11568:	31 c2                	xor    %eax,%edx
   1156a:	48 8b 85 78 f9 ff ff 	mov    -0x688(%rbp),%rax
   11571:	89 10                	mov    %edx,(%rax)
   11573:	8b 85 58 f8 ff ff    	mov    -0x7a8(%rbp),%eax
   11579:	83 e0 01             	and    $0x1,%eax
   1157c:	85 c0                	test   %eax,%eax
   1157e:	75 10                	jne    11590 <func_52+0xd99>
   11580:	b8 fb ff ff ff       	mov    $0xfffffffb,%eax
   11585:	85 c0                	test   %eax,%eax
   11587:	75 07                	jne    11590 <func_52+0xd99>
   11589:	b8 01 00 00 00       	mov    $0x1,%eax
   1158e:	eb 05                	jmp    11595 <func_52+0xd9e>
   11590:	b8 00 00 00 00       	mov    $0x0,%eax
   11595:	0f b6 d0             	movzbl %al,%edx
   11598:	48 8b 05 71 08 01 00 	mov    0x10871(%rip),%rax        # 21e10 <g_580>
   1159f:	48 8b 00             	mov    (%rax),%rax
   115a2:	0f b6 00             	movzbl (%rax),%eax
   115a5:	0f b6 c0             	movzbl %al,%eax
   115a8:	89 d6                	mov    %edx,%esi
   115aa:	89 c7                	mov    %eax,%edi
   115ac:	e8 e2 85 ff ff       	callq  9b93 <safe_mul_func_uint8_t_u_u>
   115b1:	84 c0                	test   %al,%al
   115b3:	48 8b 85 00 f9 ff ff 	mov    -0x700(%rbp),%rax
   115ba:	48 8b 08             	mov    (%rax),%rcx
   115bd:	8b 95 58 f8 ff ff    	mov    -0x7a8(%rbp),%edx
   115c3:	48 8b 85 00 f9 ff ff 	mov    -0x700(%rbp),%rax
   115ca:	48 09 ca             	or     %rcx,%rdx
   115cd:	48 89 10             	mov    %rdx,(%rax)
   115d0:	48 8b 18             	mov    (%rax),%rbx
   115d3:	48 8b 85 38 fa ff ff 	mov    -0x5c8(%rbp),%rax
   115da:	48 89 05 9f 08 01 00 	mov    %rax,0x1089f(%rip)        # 21e80 <g_811>
   115e1:	48 8b 05 98 08 01 00 	mov    0x10898(%rip),%rax        # 21e80 <g_811>
   115e8:	48 39 85 18 fa ff ff 	cmp    %rax,-0x5e8(%rbp)
   115ef:	0f 94 c0             	sete   %al
   115f2:	0f b6 c0             	movzbl %al,%eax
   115f5:	48 8b 95 70 f9 ff ff 	mov    -0x690(%rbp),%rdx
   115fc:	8b 12                	mov    (%rdx),%edx
   115fe:	89 c6                	mov    %eax,%esi
   11600:	89 d7                	mov    %edx,%edi
   11602:	e8 df 88 ff ff       	callq  9ee6 <safe_mul_func_uint32_t_u_u>
   11607:	ba fb ff ff ff       	mov    $0xfffffffb,%edx
   1160c:	81 fa f7 00 00 00    	cmp    $0xf7,%edx
   11612:	0f 97 c2             	seta   %dl
   11615:	0f b6 d2             	movzbl %dl,%edx
   11618:	0b 95 54 f8 ff ff    	or     -0x7ac(%rbp),%edx
   1161e:	f7 d2                	not    %edx
   11620:	c1 ea 1f             	shr    $0x1f,%edx
   11623:	0f b6 d2             	movzbl %dl,%edx
   11626:	39 95 54 f8 ff ff    	cmp    %edx,-0x7ac(%rbp)
   1162c:	0f 9e c2             	setle  %dl
   1162f:	0f b6 d2             	movzbl %dl,%edx
   11632:	39 d0                	cmp    %edx,%eax
   11634:	0f 93 c0             	setae  %al
   11637:	0f b6 c0             	movzbl %al,%eax
   1163a:	48 09 d8             	or     %rbx,%rax
   1163d:	48 85 c0             	test   %rax,%rax
   11640:	74 11                	je     11653 <func_52+0xe5c>
   11642:	8b 05 00 de 00 00    	mov    0xde00(%rip),%eax        # 1f448 <g_278+0x8>
   11648:	85 c0                	test   %eax,%eax
   1164a:	74 07                	je     11653 <func_52+0xe5c>
   1164c:	b8 01 00 00 00       	mov    $0x1,%eax
   11651:	eb 05                	jmp    11658 <func_52+0xe61>
   11653:	b8 00 00 00 00       	mov    $0x0,%eax
   11658:	0b 85 a4 f8 ff ff    	or     -0x75c(%rbp),%eax
   1165e:	39 85 58 f8 ff ff    	cmp    %eax,-0x7a8(%rbp)
   11664:	0f 82 a1 01 00 00    	jb     1180b <func_52+0x1014>
   1166a:	c7 85 bc f8 ff ff ff 	movl   $0xffffffff,-0x744(%rbp)
   11671:	ff ff ff 
   11674:	c7 85 c0 f8 ff ff 87 	movl   $0xd23e2287,-0x740(%rbp)
   1167b:	22 3e d2 
   1167e:	c7 85 c4 f8 ff ff 00 	movl   $0x0,-0x73c(%rbp)
   11685:	00 00 00 
   11688:	48 8d 85 00 f9 ff ff 	lea    -0x700(%rbp),%rax
   1168f:	48 89 85 60 fa ff ff 	mov    %rax,-0x5a0(%rbp)
   11696:	8b 85 a8 f8 ff ff    	mov    -0x758(%rbp),%eax
   1169c:	0f b6 d8             	movzbl %al,%ebx
   1169f:	0f b7 85 6a fa ff ff 	movzwl -0x596(%rbp),%eax
   116a6:	4c 0f bf e8          	movswq %ax,%r13
   116aa:	8b 85 84 f8 ff ff    	mov    -0x77c(%rbp),%eax
   116b0:	4c 63 e0             	movslq %eax,%r12
   116b3:	b8 fb ff ff ff       	mov    $0xfffffffb,%eax
   116b8:	41 89 c6             	mov    %eax,%r14d
   116bb:	be 03 00 00 00       	mov    $0x3,%esi
   116c0:	bf 99 00 00 00       	mov    $0x99,%edi
   116c5:	e8 82 85 ff ff       	callq  9c4c <safe_lshift_func_uint8_t_u_u>
   116ca:	44 89 f6             	mov    %r14d,%esi
   116cd:	bf 00 00 00 00       	mov    $0x0,%edi
   116d2:	e8 2e 85 ff ff       	callq  9c05 <safe_lshift_func_uint8_t_u_s>
   116d7:	4c 89 e6             	mov    %r12,%rsi
   116da:	bf 01 00 00 00       	mov    $0x1,%edi
   116df:	e8 9c 89 ff ff       	callq  a080 <safe_mod_func_uint64_t_u_u>
   116e4:	49 39 c5             	cmp    %rax,%r13
   116e7:	0f 93 c0             	setae  %al
   116ea:	0f b6 d0             	movzbl %al,%edx
   116ed:	0f b7 85 6c f8 ff ff 	movzwl -0x794(%rbp),%eax
   116f4:	31 d0                	xor    %edx,%eax
   116f6:	48 63 d0             	movslq %eax,%rdx
   116f9:	48 8b 85 60 fa ff ff 	mov    -0x5a0(%rbp),%rax
   11700:	48 8d 0d 79 dd 00 00 	lea    0xdd79(%rip),%rcx        # 1f480 <g_293>
   11707:	48 89 08             	mov    %rcx,(%rax)
   1170a:	48 8b 85 60 fa ff ff 	mov    -0x5a0(%rbp),%rax
   11711:	48 8b 00             	mov    (%rax),%rax
   11714:	48 8d 0d 65 dd 00 00 	lea    0xdd65(%rip),%rcx        # 1f480 <g_293>
   1171b:	48 39 c8             	cmp    %rcx,%rax
   1171e:	0f 95 c0             	setne  %al
   11721:	0f b6 c0             	movzbl %al,%eax
   11724:	48 89 d6             	mov    %rdx,%rsi
   11727:	48 89 c7             	mov    %rax,%rdi
   1172a:	e8 1c 89 ff ff       	callq  a04b <safe_sub_func_uint64_t_u_u>
   1172f:	0f b6 c0             	movzbl %al,%eax
   11732:	89 de                	mov    %ebx,%esi
   11734:	89 c7                	mov    %eax,%edi
   11736:	e8 3d 84 ff ff       	callq  9b78 <safe_sub_func_uint8_t_u_u>
   1173b:	0f b6 d0             	movzbl %al,%edx
   1173e:	8b 05 e4 dc 00 00    	mov    0xdce4(%rip),%eax        # 1f428 <g_267>
   11744:	83 c0 01             	add    $0x1,%eax
   11747:	89 05 db dc 00 00    	mov    %eax,0xdcdb(%rip)        # 1f428 <g_267>
   1174d:	48 8b 05 dc 05 01 00 	mov    0x105dc(%rip),%rax        # 21d30 <g_200>
   11754:	66 c7 00 fa ff       	movw   $0xfffa,(%rax)
   11759:	0f b7 00             	movzwl (%rax),%eax
   1175c:	0f b7 c0             	movzwl %ax,%eax
   1175f:	89 d6                	mov    %edx,%esi
   11761:	89 c7                	mov    %eax,%edi
   11763:	e8 26 86 ff ff       	callq  9d8e <safe_div_func_uint16_t_u_u>
   11768:	0f b7 d0             	movzwl %ax,%edx
   1176b:	48 8b 85 30 f9 ff ff 	mov    -0x6d0(%rbp),%rax
   11772:	89 10                	mov    %edx,(%rax)
   11774:	48 8b 05 95 06 01 00 	mov    0x10695(%rip),%rax        # 21e10 <g_580>
   1177b:	48 8b 00             	mov    (%rax),%rax
   1177e:	0f b6 00             	movzbl (%rax),%eax
   11781:	0f b6 d0             	movzbl %al,%edx
   11784:	8b 85 74 fa ff ff    	mov    -0x58c(%rbp),%eax
   1178a:	89 c1                	mov    %eax,%ecx
   1178c:	0f b7 85 5c f8 ff ff 	movzwl -0x7a4(%rbp),%eax
   11793:	98                   	cwtl   
   11794:	39 85 58 f8 ff ff    	cmp    %eax,-0x7a8(%rbp)
   1179a:	0f 92 c0             	setb   %al
   1179d:	0f b6 c0             	movzbl %al,%eax
   117a0:	33 85 a8 f8 ff ff    	xor    -0x758(%rbp),%eax
   117a6:	09 c8                	or     %ecx,%eax
   117a8:	89 85 74 fa ff ff    	mov    %eax,-0x58c(%rbp)
   117ae:	8b 85 74 fa ff ff    	mov    -0x58c(%rbp),%eax
   117b4:	39 85 a8 f8 ff ff    	cmp    %eax,-0x758(%rbp)
   117ba:	0f 94 c0             	sete   %al
   117bd:	0f b6 c8             	movzbl %al,%ecx
   117c0:	48 8b 05 71 05 01 00 	mov    0x10571(%rip),%rax        # 21d38 <g_199>
   117c7:	48 8b 00             	mov    (%rax),%rax
   117ca:	0f b7 30             	movzwl (%rax),%esi
   117cd:	48 8b 05 64 05 01 00 	mov    0x10564(%rip),%rax        # 21d38 <g_199>
   117d4:	48 8b 00             	mov    (%rax),%rax
   117d7:	83 e6 05             	and    $0x5,%esi
   117da:	66 89 30             	mov    %si,(%rax)
   117dd:	0f b7 00             	movzwl (%rax),%eax
   117e0:	0f b7 c0             	movzwl %ax,%eax
   117e3:	09 c8                	or     %ecx,%eax
   117e5:	21 85 c0 f8 ff ff    	and    %eax,-0x740(%rbp)
   117eb:	8b 85 c0 f8 ff ff    	mov    -0x740(%rbp),%eax
   117f1:	0f be c0             	movsbl %al,%eax
   117f4:	89 d6                	mov    %edx,%esi
   117f6:	89 c7                	mov    %eax,%edi
   117f8:	e8 f1 7a ff ff       	callq  92ee <safe_lshift_func_int8_t_s_u>
   117fd:	0f be c0             	movsbl %al,%eax
   11800:	89 85 94 fa ff ff    	mov    %eax,-0x56c(%rbp)
   11806:	e9 93 03 00 00       	jmpq   11b9e <func_52+0x13a7>
   1180b:	c7 85 b0 f8 ff ff 3d 	movl   $0x5f43943d,-0x750(%rbp)
   11812:	94 43 5f 
   11815:	c7 85 b4 f8 ff ff d7 	movl   $0x32de20d7,-0x74c(%rbp)
   1181c:	20 de 32 
   1181f:	c7 85 b8 f8 ff ff 49 	movl   $0x6ea16749,-0x748(%rbp)
   11826:	67 a1 6e 
   11829:	48 8d 85 68 f8 ff ff 	lea    -0x798(%rbp),%rax
   11830:	48 89 85 50 fa ff ff 	mov    %rax,-0x5b0(%rbp)
   11837:	48 8d 05 db db 00 00 	lea    0xdbdb(%rip),%rax        # 1f419 <g_167>
   1183e:	48 89 85 58 fa ff ff 	mov    %rax,-0x5a8(%rbp)
   11845:	48 8b 85 88 f9 ff ff 	mov    -0x678(%rbp),%rax
   1184c:	c7 00 00 00 00 00    	movl   $0x0,(%rax)
   11852:	83 85 90 f8 ff ff 01 	addl   $0x1,-0x770(%rbp)
   11859:	48 8b 05 40 05 01 00 	mov    0x10540(%rip),%rax        # 21da0 <g_331>
   11860:	48 8b 00             	mov    (%rax),%rax
   11863:	48 8b 00             	mov    (%rax),%rax
   11866:	48 8b 00             	mov    (%rax),%rax
   11869:	0f b7 00             	movzwl (%rax),%eax
   1186c:	0f b7 d8             	movzwl %ax,%ebx
   1186f:	48 8b 05 92 05 01 00 	mov    0x10592(%rip),%rax        # 21e08 <g_581>
   11876:	0f b6 00             	movzbl (%rax),%eax
   11879:	44 0f be e0          	movsbl %al,%r12d
   1187d:	8b 85 80 fa ff ff    	mov    -0x580(%rbp),%eax
   11883:	89 85 70 fa ff ff    	mov    %eax,-0x590(%rbp)
   11889:	8b 85 70 fa ff ff    	mov    -0x590(%rbp),%eax
   1188f:	41 89 c5             	mov    %eax,%r13d
   11892:	83 bd 58 f8 ff ff ff 	cmpl   $0xffffffff,-0x7a8(%rbp)
   11899:	74 1a                	je     118b5 <func_52+0x10be>
   1189b:	48 8b 85 38 fa ff ff 	mov    -0x5c8(%rbp),%rax
   118a2:	48 8b 00             	mov    (%rax),%rax
   118a5:	48 39 85 50 fa ff ff 	cmp    %rax,-0x5b0(%rbp)
   118ac:	75 07                	jne    118b5 <func_52+0x10be>
   118ae:	b8 01 00 00 00       	mov    $0x1,%eax
   118b3:	eb 05                	jmp    118ba <func_52+0x10c3>
   118b5:	b8 00 00 00 00       	mov    $0x0,%eax
   118ba:	89 c1                	mov    %eax,%ecx
   118bc:	48 8b 85 90 f9 ff ff 	mov    -0x670(%rbp),%rax
   118c3:	48 8b 95 40 fa ff ff 	mov    -0x5c0(%rbp),%rdx
   118ca:	48 89 10             	mov    %rdx,(%rax)
   118cd:	48 8b 85 90 f9 ff ff 	mov    -0x670(%rbp),%rax
   118d4:	48 8b 00             	mov    (%rax),%rax
   118d7:	48 8d 15 9e db 00 00 	lea    0xdb9e(%rip),%rdx        # 1f47c <g_278+0x3c>
   118de:	48 89 95 30 fa ff ff 	mov    %rdx,-0x5d0(%rbp)
   118e5:	48 39 85 30 fa ff ff 	cmp    %rax,-0x5d0(%rbp)
   118ec:	0f 94 c0             	sete   %al
   118ef:	0f b6 c0             	movzbl %al,%eax
   118f2:	89 ce                	mov    %ecx,%esi
   118f4:	89 c7                	mov    %eax,%edi
   118f6:	e8 bd 85 ff ff       	callq  9eb8 <safe_add_func_uint32_t_u_u>
   118fb:	41 39 c5             	cmp    %eax,%r13d
   118fe:	0f 93 c0             	setae  %al
   11901:	44 0f b6 e8          	movzbl %al,%r13d
   11905:	48 8b 85 50 f9 ff ff 	mov    -0x6b0(%rbp),%rax
   1190c:	8b 00                	mov    (%rax),%eax
   1190e:	8b 95 58 f8 ff ff    	mov    -0x7a8(%rbp),%edx
   11914:	81 ca 2b a2 00 00    	or     $0xa22b,%edx
   1191a:	21 c2                	and    %eax,%edx
   1191c:	48 8b 85 50 f9 ff ff 	mov    -0x6b0(%rbp),%rax
   11923:	89 10                	mov    %edx,(%rax)
   11925:	8b 85 58 f8 ff ff    	mov    -0x7a8(%rbp),%eax
   1192b:	98                   	cwtl   
   1192c:	be 00 00 00 00       	mov    $0x0,%esi
   11931:	89 c7                	mov    %eax,%edi
   11933:	e8 bd 7a ff ff       	callq  93f5 <safe_mul_func_int16_t_s_s>
   11938:	0f b7 95 5c f8 ff ff 	movzwl -0x7a4(%rbp),%edx
   1193f:	66 39 d0             	cmp    %dx,%ax
   11942:	0f 9f c0             	setg   %al
   11945:	0f b6 c0             	movzbl %al,%eax
   11948:	41 39 c5             	cmp    %eax,%r13d
   1194b:	0f 9c c0             	setl   %al
   1194e:	0f b6 d0             	movzbl %al,%edx
   11951:	8b 85 84 f8 ff ff    	mov    -0x77c(%rbp),%eax
   11957:	39 c2                	cmp    %eax,%edx
   11959:	0f 94 c0             	sete   %al
   1195c:	0f b6 c0             	movzbl %al,%eax
   1195f:	44 89 e6             	mov    %r12d,%esi
   11962:	89 c7                	mov    %eax,%edi
   11964:	e8 a9 78 ff ff       	callq  9212 <safe_mul_func_int8_t_s_s>
   11969:	89 de                	mov    %ebx,%esi
   1196b:	bf 01 00 00 00       	mov    $0x1,%edi
   11970:	e8 c8 83 ff ff       	callq  9d3d <safe_mul_func_uint16_t_u_u>
   11975:	48 8b 15 b4 03 01 00 	mov    0x103b4(%rip),%rdx        # 21d30 <g_200>
   1197c:	0f b7 12             	movzwl (%rdx),%edx
   1197f:	66 39 d0             	cmp    %dx,%ax
   11982:	0f 96 c0             	setbe  %al
   11985:	0f b6 c8             	movzbl %al,%ecx
   11988:	48 8b 85 a8 f9 ff ff 	mov    -0x658(%rbp),%rax
   1198f:	48 8b 10             	mov    (%rax),%rdx
   11992:	48 63 c1             	movslq %ecx,%rax
   11995:	48 31 c2             	xor    %rax,%rdx
   11998:	48 8b 85 a8 f9 ff ff 	mov    -0x658(%rbp),%rax
   1199f:	48 89 10             	mov    %rdx,(%rax)
   119a2:	48 8b 85 a8 f9 ff ff 	mov    -0x658(%rbp),%rax
   119a9:	48 8b 10             	mov    (%rax),%rdx
   119ac:	48 8b 85 b0 f9 ff ff 	mov    -0x650(%rbp),%rax
   119b3:	48 89 10             	mov    %rdx,(%rax)
   119b6:	8b 8d ac f8 ff ff    	mov    -0x754(%rbp),%ecx
   119bc:	48 8b 85 f0 f8 ff ff 	mov    -0x710(%rbp),%rax
   119c3:	8b 10                	mov    (%rax),%edx
   119c5:	48 8b 85 f0 f8 ff ff 	mov    -0x710(%rbp),%rax
   119cc:	21 ca                	and    %ecx,%edx
   119ce:	89 10                	mov    %edx,(%rax)
   119d0:	8b 9d 58 f8 ff ff    	mov    -0x7a8(%rbp),%ebx
   119d6:	48 8b 85 80 f9 ff ff 	mov    -0x680(%rbp),%rax
   119dd:	8b 00                	mov    (%rax),%eax
   119df:	44 0f b6 e0          	movzbl %al,%r12d
   119e3:	48 8b 05 b6 03 01 00 	mov    0x103b6(%rip),%rax        # 21da0 <g_331>
   119ea:	48 8b 00             	mov    (%rax),%rax
   119ed:	48 8b 00             	mov    (%rax),%rax
   119f0:	48 8b 00             	mov    (%rax),%rax
   119f3:	0f b7 00             	movzwl (%rax),%eax
   119f6:	44 0f b7 e8          	movzwl %ax,%r13d
   119fa:	8b 85 b8 f8 ff ff    	mov    -0x748(%rbp),%eax
   11a00:	98                   	cwtl   
   11a01:	be 01 00 00 00       	mov    $0x1,%esi
   11a06:	89 c7                	mov    %eax,%edi
   11a08:	e8 1d 7b ff ff       	callq  952a <safe_rshift_func_int16_t_s_s>
   11a0d:	0f b7 d0             	movzwl %ax,%edx
   11a10:	48 8b 05 f1 d9 00 00 	mov    0xd9f1(%rip),%rax        # 1f408 <g_143>
   11a17:	89 c1                	mov    %eax,%ecx
   11a19:	0f b7 85 5c f8 ff ff 	movzwl -0x7a4(%rbp),%eax
   11a20:	09 c8                	or     %ecx,%eax
   11a22:	0f b7 c0             	movzwl %ax,%eax
   11a25:	89 d6                	mov    %edx,%esi
   11a27:	89 c7                	mov    %eax,%edi
   11a29:	e8 60 83 ff ff       	callq  9d8e <safe_div_func_uint16_t_u_u>
   11a2e:	8b 95 78 fa ff ff    	mov    -0x588(%rbp),%edx
   11a34:	0f b7 c0             	movzwl %ax,%eax
   11a37:	21 d0                	and    %edx,%eax
   11a39:	89 85 78 fa ff ff    	mov    %eax,-0x588(%rbp)
   11a3f:	8b 85 78 fa ff ff    	mov    -0x588(%rbp),%eax
   11a45:	89 c2                	mov    %eax,%edx
   11a47:	8b 85 54 f8 ff ff    	mov    -0x7ac(%rbp),%eax
   11a4d:	98                   	cwtl   
   11a4e:	89 d6                	mov    %edx,%esi
   11a50:	89 c7                	mov    %eax,%edi
   11a52:	e8 8a 7a ff ff       	callq  94e1 <safe_lshift_func_int16_t_s_u>
   11a57:	98                   	cwtl   
   11a58:	09 85 b4 f8 ff ff    	or     %eax,-0x74c(%rbp)
   11a5e:	8b 85 b4 f8 ff ff    	mov    -0x74c(%rbp),%eax
   11a64:	0f b7 c0             	movzwl %ax,%eax
   11a67:	44 89 ee             	mov    %r13d,%esi
   11a6a:	89 c7                	mov    %eax,%edi
   11a6c:	e8 8e 82 ff ff       	callq  9cff <safe_add_func_uint16_t_u_u>
   11a71:	0f b7 d0             	movzwl %ax,%edx
   11a74:	48 8b 85 a8 f9 ff ff 	mov    -0x658(%rbp),%rax
   11a7b:	48 8b 08             	mov    (%rax),%rcx
   11a7e:	48 8b 05 83 d9 00 00 	mov    0xd983(%rip),%rax        # 1f408 <g_143>
   11a85:	48 09 c1             	or     %rax,%rcx
   11a88:	48 8b 85 a8 f9 ff ff 	mov    -0x658(%rbp),%rax
   11a8f:	48 89 08             	mov    %rcx,(%rax)
   11a92:	48 8b 85 a8 f9 ff ff 	mov    -0x658(%rbp),%rax
   11a99:	48 8b 00             	mov    (%rax),%rax
   11a9c:	48 89 d6             	mov    %rdx,%rsi
   11a9f:	48 89 c7             	mov    %rax,%rdi
   11aa2:	e8 9a 7d ff ff       	callq  9841 <safe_add_func_int64_t_s_s>
   11aa7:	48 8b 15 d2 03 01 00 	mov    0x103d2(%rip),%rdx        # 21e80 <g_811>
   11aae:	48 8b 12             	mov    (%rdx),%rdx
   11ab1:	48 39 95 50 fa ff ff 	cmp    %rdx,-0x5b0(%rbp)
   11ab8:	0f 95 c2             	setne  %dl
   11abb:	0f b6 d2             	movzbl %dl,%edx
   11abe:	48 21 c2             	and    %rax,%rdx
   11ac1:	0f b7 85 5c f8 ff ff 	movzwl -0x7a4(%rbp),%eax
   11ac8:	48 0f bf c0          	movswq %ax,%rax
   11acc:	48 39 c2             	cmp    %rax,%rdx
   11acf:	0f 9d c0             	setge  %al
   11ad2:	0f b6 c0             	movzbl %al,%eax
   11ad5:	39 85 54 f8 ff ff    	cmp    %eax,-0x7ac(%rbp)
   11adb:	0f 95 c0             	setne  %al
   11ade:	0f b6 c0             	movzbl %al,%eax
   11ae1:	be 00 00 00 00       	mov    $0x0,%esi
   11ae6:	89 c7                	mov    %eax,%edi
   11ae8:	e8 7f 78 ff ff       	callq  936c <safe_rshift_func_int8_t_s_u>
   11aed:	66 98                	cbtw   
   11aef:	0f b7 c0             	movzwl %ax,%eax
   11af2:	be d5 1a 00 00       	mov    $0x1ad5,%esi
   11af7:	89 c7                	mov    %eax,%edi
   11af9:	e8 3f 82 ff ff       	callq  9d3d <safe_mul_func_uint16_t_u_u>
   11afe:	0f b7 d0             	movzwl %ax,%edx
   11b01:	48 8b 85 b8 f9 ff ff 	mov    -0x648(%rbp),%rax
   11b08:	48 8b 00             	mov    (%rax),%rax
   11b0b:	48 8d 48 ff          	lea    -0x1(%rax),%rcx
   11b0f:	48 8b 85 b8 f9 ff ff 	mov    -0x648(%rbp),%rax
   11b16:	48 89 08             	mov    %rcx,(%rax)
   11b19:	48 8b 85 b8 f9 ff ff 	mov    -0x648(%rbp),%rax
   11b20:	48 8b 00             	mov    (%rax),%rax
   11b23:	48 89 d6             	mov    %rdx,%rsi
   11b26:	48 89 c7             	mov    %rax,%rdi
   11b29:	e8 81 85 ff ff       	callq  a0af <safe_div_func_uint64_t_u_u>
   11b2e:	48 89 c2             	mov    %rax,%rdx
   11b31:	48 8b 05 d8 02 01 00 	mov    0x102d8(%rip),%rax        # 21e10 <g_580>
   11b38:	48 8b 00             	mov    (%rax),%rax
   11b3b:	0f b6 08             	movzbl (%rax),%ecx
   11b3e:	48 8b 05 cb 02 01 00 	mov    0x102cb(%rip),%rax        # 21e10 <g_580>
   11b45:	48 8b 00             	mov    (%rax),%rax
   11b48:	31 ca                	xor    %ecx,%edx
   11b4a:	88 10                	mov    %dl,(%rax)
   11b4c:	0f b6 10             	movzbl (%rax),%edx
   11b4f:	48 8b 85 58 fa ff ff 	mov    -0x5a8(%rbp),%rax
   11b56:	88 10                	mov    %dl,(%rax)
   11b58:	48 8b 85 58 fa ff ff 	mov    -0x5a8(%rbp),%rax
   11b5f:	0f b6 00             	movzbl (%rax),%eax
   11b62:	0f b6 c0             	movzbl %al,%eax
   11b65:	44 89 e6             	mov    %r12d,%esi
   11b68:	89 c7                	mov    %eax,%edi
   11b6a:	e8 24 80 ff ff       	callq  9b93 <safe_mul_func_uint8_t_u_u>
   11b6f:	0f be c0             	movsbl %al,%eax
   11b72:	89 de                	mov    %ebx,%esi
   11b74:	89 c7                	mov    %eax,%edi
   11b76:	e8 ba 77 ff ff       	callq  9335 <safe_rshift_func_int8_t_s_s>
   11b7b:	0f be c0             	movsbl %al,%eax
   11b7e:	39 85 54 f8 ff ff    	cmp    %eax,-0x7ac(%rbp)
   11b84:	0f 9e c0             	setle  %al
   11b87:	0f b6 d0             	movzbl %al,%edx
   11b8a:	48 8b 85 30 f9 ff ff 	mov    -0x6d0(%rbp),%rax
   11b91:	8b 00                	mov    (%rax),%eax
   11b93:	21 c2                	and    %eax,%edx
   11b95:	48 8b 85 30 f9 ff ff 	mov    -0x6d0(%rbp),%rax
   11b9c:	89 10                	mov    %edx,(%rax)
   11b9e:	0f b7 85 5c f8 ff ff 	movzwl -0x7a4(%rbp),%eax
   11ba5:	66 85 c0             	test   %ax,%ax
   11ba8:	74 19                	je     11bc3 <func_52+0x13cc>
   11baa:	66 c7 85 6e f8 ff ff 	movw   $0xe010,-0x792(%rbp)
   11bb1:	10 e0 
   11bb3:	0f b7 85 5c f8 ff ff 	movzwl -0x7a4(%rbp),%eax
   11bba:	66 89 85 6e f8 ff ff 	mov    %ax,-0x792(%rbp)
   11bc1:	eb 3e                	jmp    11c01 <func_52+0x140a>
   11bc3:	8b 85 84 f8 ff ff    	mov    -0x77c(%rbp),%eax
   11bc9:	0f be d0             	movsbl %al,%edx
   11bcc:	0f b6 05 69 d4 00 00 	movzbl 0xd469(%rip),%eax        # 1f03c <g_41>
   11bd3:	0f be c0             	movsbl %al,%eax
   11bd6:	89 d6                	mov    %edx,%esi
   11bd8:	89 c7                	mov    %eax,%edi
   11bda:	e8 8b 76 ff ff       	callq  926a <safe_div_func_int8_t_s_s>
   11bdf:	0f be d0             	movsbl %al,%edx
   11be2:	c7 05 3c d8 00 00 00 	movl   $0x0,0xd83c(%rip)        # 1f428 <g_267>
   11be9:	00 00 00 
   11bec:	8b 05 36 d8 00 00    	mov    0xd836(%rip),%eax        # 1f428 <g_267>
   11bf2:	89 d6                	mov    %edx,%esi
   11bf4:	89 c7                	mov    %eax,%edi
   11bf6:	e8 2a 83 ff ff       	callq  9f25 <safe_div_func_uint32_t_u_u>
   11bfb:	89 85 ac f8 ff ff    	mov    %eax,-0x754(%rbp)
   11c01:	48 c7 05 fc d7 00 00 	movq   $0x0,0xd7fc(%rip)        # 1f408 <g_143>
   11c08:	00 00 00 00 
   11c0c:	90                   	nop
   11c0d:	48 8b 05 f4 d7 00 00 	mov    0xd7f4(%rip),%rax        # 1f408 <g_143>
   11c14:	48 83 f8 04          	cmp    $0x4,%rax
   11c18:	0f 8f f9 02 00 00    	jg     11f17 <func_52+0x1720>
   11c1e:	48 8d 85 e8 f8 ff ff 	lea    -0x718(%rbp),%rax
   11c25:	48 89 85 40 fd ff ff 	mov    %rax,-0x2c0(%rbp)
   11c2c:	48 8d 85 e0 f8 ff ff 	lea    -0x720(%rbp),%rax
   11c33:	48 89 85 48 fd ff ff 	mov    %rax,-0x2b8(%rbp)
   11c3a:	48 8d 85 e8 f8 ff ff 	lea    -0x718(%rbp),%rax
   11c41:	48 89 85 50 fd ff ff 	mov    %rax,-0x2b0(%rbp)
   11c48:	48 8d 85 e0 f8 ff ff 	lea    -0x720(%rbp),%rax
   11c4f:	48 89 85 58 fd ff ff 	mov    %rax,-0x2a8(%rbp)
   11c56:	48 8d 85 e8 f8 ff ff 	lea    -0x718(%rbp),%rax
   11c5d:	48 89 85 60 fd ff ff 	mov    %rax,-0x2a0(%rbp)
   11c64:	48 8d 85 e0 f8 ff ff 	lea    -0x720(%rbp),%rax
   11c6b:	48 89 85 68 fd ff ff 	mov    %rax,-0x298(%rbp)
   11c72:	48 8d 85 e8 f8 ff ff 	lea    -0x718(%rbp),%rax
   11c79:	48 89 85 70 fd ff ff 	mov    %rax,-0x290(%rbp)
   11c80:	48 8d 85 e0 f8 ff ff 	lea    -0x720(%rbp),%rax
   11c87:	48 89 85 78 fd ff ff 	mov    %rax,-0x288(%rbp)
   11c8e:	48 8d 85 e8 f8 ff ff 	lea    -0x718(%rbp),%rax
   11c95:	48 89 85 80 fd ff ff 	mov    %rax,-0x280(%rbp)
   11c9c:	48 8d 85 e0 f8 ff ff 	lea    -0x720(%rbp),%rax
   11ca3:	48 89 85 88 fd ff ff 	mov    %rax,-0x278(%rbp)
   11caa:	48 8d 85 e8 f8 ff ff 	lea    -0x718(%rbp),%rax
   11cb1:	48 89 85 90 fd ff ff 	mov    %rax,-0x270(%rbp)
   11cb8:	48 8d 85 e0 f8 ff ff 	lea    -0x720(%rbp),%rax
   11cbf:	48 89 85 98 fd ff ff 	mov    %rax,-0x268(%rbp)
   11cc6:	48 8d 85 e8 f8 ff ff 	lea    -0x718(%rbp),%rax
   11ccd:	48 89 85 a0 fd ff ff 	mov    %rax,-0x260(%rbp)
   11cd4:	48 8d 85 e0 f8 ff ff 	lea    -0x720(%rbp),%rax
   11cdb:	48 89 85 a8 fd ff ff 	mov    %rax,-0x258(%rbp)
   11ce2:	48 8d 85 e8 f8 ff ff 	lea    -0x718(%rbp),%rax
   11ce9:	48 89 85 b0 fd ff ff 	mov    %rax,-0x250(%rbp)
   11cf0:	48 8d 85 e0 f8 ff ff 	lea    -0x720(%rbp),%rax
   11cf7:	48 89 85 b8 fd ff ff 	mov    %rax,-0x248(%rbp)
   11cfe:	48 8d 85 e8 f8 ff ff 	lea    -0x718(%rbp),%rax
   11d05:	48 89 85 c0 fd ff ff 	mov    %rax,-0x240(%rbp)
   11d0c:	48 8d 85 e0 f8 ff ff 	lea    -0x720(%rbp),%rax
   11d13:	48 89 85 c8 fd ff ff 	mov    %rax,-0x238(%rbp)
   11d1a:	48 8d 85 e8 f8 ff ff 	lea    -0x718(%rbp),%rax
   11d21:	48 89 85 d0 fd ff ff 	mov    %rax,-0x230(%rbp)
   11d28:	48 8d 85 e0 f8 ff ff 	lea    -0x720(%rbp),%rax
   11d2f:	48 89 85 d8 fd ff ff 	mov    %rax,-0x228(%rbp)
   11d36:	48 8d 85 e8 f8 ff ff 	lea    -0x718(%rbp),%rax
   11d3d:	48 89 85 e0 fd ff ff 	mov    %rax,-0x220(%rbp)
   11d44:	48 8d 85 e0 f8 ff ff 	lea    -0x720(%rbp),%rax
   11d4b:	48 89 85 e8 fd ff ff 	mov    %rax,-0x218(%rbp)
   11d52:	48 8d 85 e8 f8 ff ff 	lea    -0x718(%rbp),%rax
   11d59:	48 89 85 f0 fd ff ff 	mov    %rax,-0x210(%rbp)
   11d60:	48 8d 85 e0 f8 ff ff 	lea    -0x720(%rbp),%rax
   11d67:	48 89 85 f8 fd ff ff 	mov    %rax,-0x208(%rbp)
   11d6e:	8b 85 7c f8 ff ff    	mov    -0x784(%rbp),%eax
   11d74:	85 c0                	test   %eax,%eax
   11d76:	74 05                	je     11d7d <func_52+0x1586>
   11d78:	e9 a7 ef ff ff       	jmpq   10d24 <func_52+0x52d>
   11d7d:	48 c7 85 48 fa ff ff 	movq   $0x0,-0x5b8(%rbp)
   11d84:	00 00 00 00 
   11d88:	48 8b 05 99 00 01 00 	mov    0x10099(%rip),%rax        # 21e28 <g_577>
   11d8f:	48 8b 00             	mov    (%rax),%rax
   11d92:	48 8b 00             	mov    (%rax),%rax
   11d95:	48 8b 00             	mov    (%rax),%rax
   11d98:	48 8b 00             	mov    (%rax),%rax
   11d9b:	0f b6 00             	movzbl (%rax),%eax
   11d9e:	0f b6 c8             	movzbl %al,%ecx
   11da1:	0f b7 85 5c f8 ff ff 	movzwl -0x7a4(%rbp),%eax
   11da8:	98                   	cwtl   
   11da9:	48 8b 35 58 d6 00 00 	mov    0xd658(%rip),%rsi        # 1f408 <g_143>
   11db0:	48 8b 15 51 d6 00 00 	mov    0xd651(%rip),%rdx        # 1f408 <g_143>
   11db7:	48 8d 7a 03          	lea    0x3(%rdx),%rdi
   11dbb:	48 63 d0             	movslq %eax,%rdx
   11dbe:	48 89 d0             	mov    %rdx,%rax
   11dc1:	48 01 c0             	add    %rax,%rax
   11dc4:	48 01 d0             	add    %rdx,%rax
   11dc7:	48 01 c0             	add    %rax,%rax
   11dca:	48 01 f0             	add    %rsi,%rax
   11dcd:	48 c1 e0 03          	shl    $0x3,%rax
   11dd1:	48 01 f8             	add    %rdi,%rax
   11dd4:	48 8d 14 85 00 00 00 	lea    0x0(,%rax,4),%rdx
   11ddb:	00 
   11ddc:	48 8d 05 5d d2 00 00 	lea    0xd25d(%rip),%rax        # 1f040 <g_46>
   11de3:	8b 04 02             	mov    (%rdx,%rax,1),%eax
   11de6:	0f be c0             	movsbl %al,%eax
   11de9:	89 ce                	mov    %ecx,%esi
   11deb:	89 c7                	mov    %eax,%edi
   11ded:	e8 7a 75 ff ff       	callq  936c <safe_rshift_func_int8_t_s_u>
   11df2:	44 0f be e0          	movsbl %al,%r12d
   11df6:	8b 85 88 f8 ff ff    	mov    -0x778(%rbp),%eax
   11dfc:	41 89 c5             	mov    %eax,%r13d
   11dff:	8b 85 54 f8 ff ff    	mov    -0x7ac(%rbp),%eax
   11e05:	0f be d8             	movsbl %al,%ebx
   11e08:	8b 85 54 f8 ff ff    	mov    -0x7ac(%rbp),%eax
   11e0e:	89 c6                	mov    %eax,%esi
   11e10:	bf fc ff ff ff       	mov    $0xfffffffc,%edi
   11e15:	e8 1b 75 ff ff       	callq  9335 <safe_rshift_func_int8_t_s_s>
   11e1a:	48 83 bd 20 fa ff ff 	cmpq   $0x0,-0x5e0(%rbp)
   11e21:	00 
   11e22:	0f 94 c0             	sete   %al
   11e25:	0f b6 d0             	movzbl %al,%edx
   11e28:	48 8d 05 39 14 01 00 	lea    0x11439(%rip),%rax        # 23268 <g_907>
   11e2f:	48 85 c0             	test   %rax,%rax
   11e32:	0f 94 c0             	sete   %al
   11e35:	0f b6 c0             	movzbl %al,%eax
   11e38:	89 d6                	mov    %edx,%esi
   11e3a:	89 c7                	mov    %eax,%edi
   11e3c:	e8 e9 76 ff ff       	callq  952a <safe_rshift_func_int16_t_s_s>
   11e41:	48 8b 95 00 f9 ff ff 	mov    -0x700(%rbp),%rdx
   11e48:	48 8b 0a             	mov    (%rdx),%rcx
   11e4b:	48 0f bf d0          	movswq %ax,%rdx
   11e4f:	48 8b 85 00 f9 ff ff 	mov    -0x700(%rbp),%rax
   11e56:	48 21 ca             	and    %rcx,%rdx
   11e59:	48 89 10             	mov    %rdx,(%rax)
   11e5c:	48 8b 10             	mov    (%rax),%rdx
   11e5f:	8b 85 70 fa ff ff    	mov    -0x590(%rbp),%eax
   11e65:	48 98                	cltq   
   11e67:	48 39 c2             	cmp    %rax,%rdx
   11e6a:	0f 96 c0             	setbe  %al
   11e6d:	0f b6 d0             	movzbl %al,%edx
   11e70:	48 8b 85 58 f9 ff ff 	mov    -0x6a8(%rbp),%rax
   11e77:	8b 00                	mov    (%rax),%eax
   11e79:	21 c2                	and    %eax,%edx
   11e7b:	48 8b 85 58 f9 ff ff 	mov    -0x6a8(%rbp),%rax
   11e82:	89 10                	mov    %edx,(%rax)
   11e84:	48 8b 85 58 f9 ff ff 	mov    -0x6a8(%rbp),%rax
   11e8b:	8b 00                	mov    (%rax),%eax
   11e8d:	8b 95 54 f8 ff ff    	mov    -0x7ac(%rbp),%edx
   11e93:	89 d6                	mov    %edx,%esi
   11e95:	89 c7                	mov    %eax,%edi
   11e97:	e8 30 78 ff ff       	callq  96cc <safe_mod_func_int32_t_s_s>
   11e9c:	83 f8 02             	cmp    $0x2,%eax
   11e9f:	0f 97 c0             	seta   %al
   11ea2:	0f b6 c0             	movzbl %al,%eax
   11ea5:	89 de                	mov    %ebx,%esi
   11ea7:	89 c7                	mov    %eax,%edi
   11ea9:	e8 83 73 ff ff       	callq  9231 <safe_mod_func_int8_t_s_s>
   11eae:	89 c2                	mov    %eax,%edx
   11eb0:	48 8b 05 e1 fe 00 00 	mov    0xfee1(%rip),%rax        # 21d98 <g_332>
   11eb7:	48 8b 00             	mov    (%rax),%rax
   11eba:	48 8b 00             	mov    (%rax),%rax
   11ebd:	66 0f be d2          	movsbw %dl,%dx
   11ec1:	66 89 10             	mov    %dx,(%rax)
   11ec4:	0f b7 00             	movzwl (%rax),%eax
   11ec7:	66 3d 9a a7          	cmp    $0xa79a,%ax
   11ecb:	0f b6 45 c1          	movzbl -0x3f(%rbp),%eax
   11ecf:	0f be c0             	movsbl %al,%eax
   11ed2:	44 89 ee             	mov    %r13d,%esi
   11ed5:	89 c7                	mov    %eax,%edi
   11ed7:	e8 49 80 ff ff       	callq  9f25 <safe_div_func_uint32_t_u_u>
   11edc:	41 39 c4             	cmp    %eax,%r12d
   11edf:	0f 94 c0             	sete   %al
   11ee2:	0f b6 c0             	movzbl %al,%eax
   11ee5:	be 04 00 00 00       	mov    $0x4,%esi
   11eea:	89 c7                	mov    %eax,%edi
   11eec:	e8 57 7f ff ff       	callq  9e48 <safe_rshift_func_uint16_t_u_s>
   11ef1:	89 c2                	mov    %eax,%edx
   11ef3:	48 8b 85 d0 f8 ff ff 	mov    -0x730(%rbp),%rax
   11efa:	0f b7 d2             	movzwl %dx,%edx
   11efd:	89 10                	mov    %edx,(%rax)
   11eff:	48 8b 05 22 ff 00 00 	mov    0xff22(%rip),%rax        # 21e28 <g_577>
   11f06:	48 8b 00             	mov    (%rax),%rax
   11f09:	48 8b 00             	mov    (%rax),%rax
   11f0c:	48 8b 00             	mov    (%rax),%rax
   11f0f:	48 8b 00             	mov    (%rax),%rax
   11f12:	e9 3a 0d 00 00       	jmpq   12c51 <func_52+0x245a>
   11f17:	0f b7 85 5c f8 ff ff 	movzwl -0x7a4(%rbp),%eax
   11f1e:	83 e8 01             	sub    $0x1,%eax
   11f21:	66 89 85 5c f8 ff ff 	mov    %ax,-0x7a4(%rbp)
   11f28:	0f b7 85 5c f8 ff ff 	movzwl -0x7a4(%rbp),%eax
   11f2f:	66 85 c0             	test   %ax,%ax
   11f32:	0f 8f a5 f5 ff ff    	jg     114dd <func_52+0xce6>
   11f38:	48 8b 85 30 fd ff ff 	mov    -0x2d0(%rbp),%rax
   11f3f:	e9 0d 0d 00 00       	jmpq   12c51 <func_52+0x245a>
   11f44:	48 8d 85 00 f9 ff ff 	lea    -0x700(%rbp),%rax
   11f4b:	48 89 85 20 f9 ff ff 	mov    %rax,-0x6e0(%rbp)
   11f52:	48 8d 85 20 f9 ff ff 	lea    -0x6e0(%rbp),%rax
   11f59:	48 89 85 28 f9 ff ff 	mov    %rax,-0x6d8(%rbp)
   11f60:	48 8d 85 28 f9 ff ff 	lea    -0x6d8(%rbp),%rax
   11f67:	48 89 85 28 fa ff ff 	mov    %rax,-0x5d8(%rbp)
   11f6e:	48 8b 95 28 f9 ff ff 	mov    -0x6d8(%rbp),%rdx
   11f75:	48 8b 85 28 fa ff ff 	mov    -0x5d8(%rbp),%rax
   11f7c:	48 89 10             	mov    %rdx,(%rax)
   11f7f:	e9 a2 0c 00 00       	jmpq   12c26 <func_52+0x242f>
   11f84:	48 8d 05 cd fe 00 00 	lea    0xfecd(%rip),%rax        # 21e58 <g_644+0x18>
   11f8b:	48 89 85 d8 f9 ff ff 	mov    %rax,-0x628(%rbp)
   11f92:	48 8d 85 d0 f8 ff ff 	lea    -0x730(%rbp),%rax
   11f99:	48 89 85 10 f9 ff ff 	mov    %rax,-0x6f0(%rbp)
   11fa0:	48 8d 85 10 f9 ff ff 	lea    -0x6f0(%rbp),%rax
   11fa7:	48 89 85 e0 f9 ff ff 	mov    %rax,-0x620(%rbp)
   11fae:	48 c7 85 e8 f9 ff ff 	movq   $0x0,-0x618(%rbp)
   11fb5:	00 00 00 00 
   11fb9:	48 8d 85 d8 f8 ff ff 	lea    -0x728(%rbp),%rax
   11fc0:	48 89 85 18 f9 ff ff 	mov    %rax,-0x6e8(%rbp)
   11fc7:	48 8d 85 18 f9 ff ff 	lea    -0x6e8(%rbp),%rax
   11fce:	48 89 85 f0 f9 ff ff 	mov    %rax,-0x610(%rbp)
   11fd5:	0f b7 85 5c f8 ff ff 	movzwl -0x7a4(%rbp),%eax
   11fdc:	0f b7 d8             	movzwl %ax,%ebx
   11fdf:	48 8b 85 d0 f8 ff ff 	mov    -0x730(%rbp),%rax
   11fe6:	8b 00                	mov    (%rax),%eax
   11fe8:	0f b6 c0             	movzbl %al,%eax
   11feb:	be 04 00 00 00       	mov    $0x4,%esi
   11ff0:	89 c7                	mov    %eax,%edi
   11ff2:	e8 c7 7c ff ff       	callq  9cbe <safe_rshift_func_uint8_t_u_u>
   11ff7:	44 0f b6 f8          	movzbl %al,%r15d
   11ffb:	44 8b a5 90 f8 ff ff 	mov    -0x770(%rbp),%r12d
   12002:	48 8b 05 0f fe 00 00 	mov    0xfe0f(%rip),%rax        # 21e18 <g_579>
   12009:	48 8b 00             	mov    (%rax),%rax
   1200c:	48 8b 00             	mov    (%rax),%rax
   1200f:	0f b6 00             	movzbl (%rax),%eax
   12012:	44 0f b6 e8          	movzbl %al,%r13d
   12016:	48 8d 05 03 fe 00 00 	lea    0xfe03(%rip),%rax        # 21e20 <g_578>
   1201d:	48 89 05 04 fe 00 00 	mov    %rax,0xfe04(%rip)        # 21e28 <g_577>
   12024:	8b 05 6e d4 00 00    	mov    0xd46e(%rip),%eax        # 1f498 <g_371>
   1202a:	44 0f be f0          	movsbl %al,%r14d
   1202e:	48 8b 85 e8 f8 ff ff 	mov    -0x718(%rbp),%rax
   12035:	8b 00                	mov    (%rax),%eax
   12037:	0f b6 c0             	movzbl %al,%eax
   1203a:	48 8b 95 e0 f9 ff ff 	mov    -0x620(%rbp),%rdx
   12041:	48 8d 0d 90 fd 00 00 	lea    0xfd90(%rip),%rcx        # 21dd8 <g_399+0x18>
   12048:	48 89 0a             	mov    %rcx,(%rdx)
   1204b:	48 8b 95 f0 f9 ff ff 	mov    -0x610(%rbp),%rdx
   12052:	48 8d 0d 7f fd 00 00 	lea    0xfd7f(%rip),%rcx        # 21dd8 <g_399+0x18>
   12059:	48 89 0a             	mov    %rcx,(%rdx)
   1205c:	48 8b 95 70 f9 ff ff 	mov    -0x690(%rbp),%rdx
   12063:	8b 12                	mov    (%rdx),%edx
   12065:	85 d2                	test   %edx,%edx
   12067:	89 c6                	mov    %eax,%esi
   12069:	bf 01 00 00 00       	mov    $0x1,%edi
   1206e:	e8 3b 7b ff ff       	callq  9bae <safe_mod_func_uint8_t_u_u>
   12073:	0f be c0             	movsbl %al,%eax
   12076:	44 89 f6             	mov    %r14d,%esi
   12079:	89 c7                	mov    %eax,%edi
   1207b:	e8 b1 71 ff ff       	callq  9231 <safe_mod_func_int8_t_s_s>
   12080:	48 8d 05 99 fd 00 00 	lea    0xfd99(%rip),%rax        # 21e20 <g_578>
   12087:	48 39 85 d0 f9 ff ff 	cmp    %rax,-0x630(%rbp)
   1208e:	0f 94 c0             	sete   %al
   12091:	0f b6 d0             	movzbl %al,%edx
   12094:	8b 85 88 f8 ff ff    	mov    -0x778(%rbp),%eax
   1209a:	39 c2                	cmp    %eax,%edx
   1209c:	0f 9c c0             	setl   %al
   1209f:	0f b6 c0             	movzbl %al,%eax
   120a2:	89 85 88 f8 ff ff    	mov    %eax,-0x778(%rbp)
   120a8:	8b 85 88 f8 ff ff    	mov    -0x778(%rbp),%eax
   120ae:	3d d8 00 00 00       	cmp    $0xd8,%eax
   120b3:	0f 9f c0             	setg   %al
   120b6:	0f b6 c0             	movzbl %al,%eax
   120b9:	44 89 ee             	mov    %r13d,%esi
   120bc:	89 c7                	mov    %eax,%edi
   120be:	e8 97 7a ff ff       	callq  9b5a <safe_add_func_uint8_t_u_u>
   120c3:	0f b6 d0             	movzbl %al,%edx
   120c6:	48 8b 85 a0 f9 ff ff 	mov    -0x660(%rbp),%rax
   120cd:	48 89 85 c8 f9 ff ff 	mov    %rax,-0x638(%rbp)
   120d4:	48 8d 05 35 11 01 00 	lea    0x11135(%rip),%rax        # 23210 <g_645+0x70>
   120db:	48 39 85 c8 f9 ff ff 	cmp    %rax,-0x638(%rbp)
   120e2:	0f 95 c0             	setne  %al
   120e5:	0f b6 c0             	movzbl %al,%eax
   120e8:	89 d6                	mov    %edx,%esi
   120ea:	89 c7                	mov    %eax,%edi
   120ec:	e8 f0 73 ff ff       	callq  94e1 <safe_lshift_func_int16_t_s_u>
   120f1:	98                   	cwtl   
   120f2:	0b 85 54 f8 ff ff    	or     -0x7ac(%rbp),%eax
   120f8:	85 c0                	test   %eax,%eax
   120fa:	0f 94 c0             	sete   %al
   120fd:	0f b6 d0             	movzbl %al,%edx
   12100:	48 8b 05 79 fd 00 00 	mov    0xfd79(%rip),%rax        # 21e80 <g_811>
   12107:	48 8b 8d c0 f9 ff ff 	mov    -0x640(%rbp),%rcx
   1210e:	48 89 08             	mov    %rcx,(%rax)
   12111:	48 8b 00             	mov    (%rax),%rax
   12114:	48 8d 4d c0          	lea    -0x40(%rbp),%rcx
   12118:	48 83 c1 01          	add    $0x1,%rcx
   1211c:	48 39 c8             	cmp    %rcx,%rax
   1211f:	0f 94 c0             	sete   %al
   12122:	0f b6 c0             	movzbl %al,%eax
   12125:	89 d6                	mov    %edx,%esi
   12127:	89 c7                	mov    %eax,%edi
   12129:	e8 c7 72 ff ff       	callq  93f5 <safe_mul_func_int16_t_s_s>
   1212e:	0f bf d0             	movswl %ax,%edx
   12131:	b8 ff ff ff ff       	mov    $0xffffffff,%eax
   12136:	0f b7 c0             	movzwl %ax,%eax
   12139:	39 c2                	cmp    %eax,%edx
   1213b:	0f 9f c2             	setg   %dl
   1213e:	48 8b 05 53 fc 00 00 	mov    0xfc53(%rip),%rax        # 21d98 <g_332>
   12145:	48 8b 00             	mov    (%rax),%rax
   12148:	48 8b 00             	mov    (%rax),%rax
   1214b:	0f b6 d2             	movzbl %dl,%edx
   1214e:	66 89 10             	mov    %dx,(%rax)
   12151:	0f b7 00             	movzwl (%rax),%eax
   12154:	66 83 f8 f9          	cmp    $0xfff9,%ax
   12158:	75 07                	jne    12161 <func_52+0x196a>
   1215a:	b8 01 00 00 00       	mov    $0x1,%eax
   1215f:	eb 05                	jmp    12166 <func_52+0x196f>
   12161:	b8 00 00 00 00       	mov    $0x0,%eax
   12166:	89 c2                	mov    %eax,%edx
   12168:	8b 85 58 f8 ff ff    	mov    -0x7a8(%rbp),%eax
   1216e:	89 c6                	mov    %eax,%esi
   12170:	89 d7                	mov    %edx,%edi
   12172:	e8 86 7d ff ff       	callq  9efd <safe_mod_func_uint32_t_u_u>
   12177:	85 c0                	test   %eax,%eax
   12179:	74 10                	je     1218b <func_52+0x1994>
   1217b:	83 bd 54 f8 ff ff 00 	cmpl   $0x0,-0x7ac(%rbp)
   12182:	74 07                	je     1218b <func_52+0x1994>
   12184:	b8 01 00 00 00       	mov    $0x1,%eax
   12189:	eb 05                	jmp    12190 <func_52+0x1999>
   1218b:	b8 00 00 00 00       	mov    $0x0,%eax
   12190:	48 98                	cltq   
   12192:	4c 89 e6             	mov    %r12,%rsi
   12195:	48 89 c7             	mov    %rax,%rdi
   12198:	e8 0b 77 ff ff       	callq  98a8 <safe_sub_func_int64_t_s_s>
   1219d:	44 31 f8             	xor    %r15d,%eax
   121a0:	0f b7 c0             	movzwl %ax,%eax
   121a3:	89 de                	mov    %ebx,%esi
   121a5:	89 c7                	mov    %eax,%edi
   121a7:	e8 91 7b ff ff       	callq  9d3d <safe_mul_func_uint16_t_u_u>
   121ac:	66 83 f8 03          	cmp    $0x3,%ax
   121b0:	0f 96 c0             	setbe  %al
   121b3:	0f b6 d0             	movzbl %al,%edx
   121b6:	48 8b 85 88 f9 ff ff 	mov    -0x678(%rbp),%rax
   121bd:	8b 00                	mov    (%rax),%eax
   121bf:	09 c2                	or     %eax,%edx
   121c1:	48 8b 85 88 f9 ff ff 	mov    -0x678(%rbp),%rax
   121c8:	89 10                	mov    %edx,(%rax)
   121ca:	c7 85 94 f8 ff ff 00 	movl   $0x0,-0x76c(%rbp)
   121d1:	00 00 00 
   121d4:	e9 25 0a 00 00       	jmpq   12bfe <func_52+0x2407>
   121d9:	48 b8 de 27 91 6e b7 	movabs $0x45e25cb76e9127de,%rax
   121e0:	5c e2 45 
   121e3:	48 89 85 f8 f9 ff ff 	mov    %rax,-0x608(%rbp)
   121ea:	48 c7 85 20 f9 ff ff 	movq   $0x0,-0x6e0(%rbp)
   121f1:	00 00 00 00 
   121f5:	48 8d 85 20 f9 ff ff 	lea    -0x6e0(%rbp),%rax
   121fc:	48 89 85 00 fa ff ff 	mov    %rax,-0x600(%rbp)
   12203:	48 8d 05 93 d2 00 00 	lea    0xd293(%rip),%rax        # 1f49d <g_375>
   1220a:	48 89 85 08 fa ff ff 	mov    %rax,-0x5f8(%rbp)
   12211:	8b 85 88 f8 ff ff    	mov    -0x778(%rbp),%eax
   12217:	85 c0                	test   %eax,%eax
   12219:	0f 85 ee 09 00 00    	jne    12c0d <func_52+0x2416>
   1221f:	c7 05 6f d2 00 00 06 	movl   $0x6,0xd26f(%rip)        # 1f498 <g_371>
   12226:	00 00 00 
   12229:	e9 41 06 00 00       	jmpq   1286f <func_52+0x2078>
   1222e:	48 8d 85 74 f8 ff ff 	lea    -0x78c(%rbp),%rax
   12235:	48 89 85 40 fd ff ff 	mov    %rax,-0x2c0(%rbp)
   1223c:	48 8d 85 7c f8 ff ff 	lea    -0x784(%rbp),%rax
   12243:	48 89 85 48 fd ff ff 	mov    %rax,-0x2b8(%rbp)
   1224a:	48 8d 85 84 f8 ff ff 	lea    -0x77c(%rbp),%rax
   12251:	48 89 85 50 fd ff ff 	mov    %rax,-0x2b0(%rbp)
   12258:	48 8d 85 88 f8 ff ff 	lea    -0x778(%rbp),%rax
   1225f:	48 89 85 58 fd ff ff 	mov    %rax,-0x2a8(%rbp)
   12266:	48 8d 05 c7 cd 00 00 	lea    0xcdc7(%rip),%rax        # 1f034 <g_4+0x4>
   1226d:	48 89 85 60 fd ff ff 	mov    %rax,-0x2a0(%rbp)
   12274:	48 8d 85 70 f8 ff ff 	lea    -0x790(%rbp),%rax
   1227b:	48 89 85 68 fd ff ff 	mov    %rax,-0x298(%rbp)
   12282:	48 c7 85 70 fd ff ff 	movq   $0x0,-0x290(%rbp)
   12289:	00 00 00 00 
   1228d:	48 8d 85 84 f8 ff ff 	lea    -0x77c(%rbp),%rax
   12294:	48 89 85 78 fd ff ff 	mov    %rax,-0x288(%rbp)
   1229b:	48 8d 05 82 d1 00 00 	lea    0xd182(%rip),%rax        # 1f424 <g_246>
   122a2:	48 89 85 80 fd ff ff 	mov    %rax,-0x280(%rbp)
   122a9:	48 8d 85 88 f8 ff ff 	lea    -0x778(%rbp),%rax
   122b0:	48 89 85 88 fd ff ff 	mov    %rax,-0x278(%rbp)
   122b7:	48 8d 85 88 f8 ff ff 	lea    -0x778(%rbp),%rax
   122be:	48 89 85 90 fd ff ff 	mov    %rax,-0x270(%rbp)
   122c5:	48 8d 05 64 cd 00 00 	lea    0xcd64(%rip),%rax        # 1f030 <g_4>
   122cc:	48 89 85 98 fd ff ff 	mov    %rax,-0x268(%rbp)
   122d3:	48 8d 85 84 f8 ff ff 	lea    -0x77c(%rbp),%rax
   122da:	48 89 85 a0 fd ff ff 	mov    %rax,-0x260(%rbp)
   122e1:	48 8d 05 3c d1 00 00 	lea    0xd13c(%rip),%rax        # 1f424 <g_246>
   122e8:	48 89 85 a8 fd ff ff 	mov    %rax,-0x258(%rbp)
   122ef:	48 8d 05 2e d1 00 00 	lea    0xd12e(%rip),%rax        # 1f424 <g_246>
   122f6:	48 89 85 b0 fd ff ff 	mov    %rax,-0x250(%rbp)
   122fd:	48 8d 85 84 f8 ff ff 	lea    -0x77c(%rbp),%rax
   12304:	48 89 85 b8 fd ff ff 	mov    %rax,-0x248(%rbp)
   1230b:	48 8d 85 80 f8 ff ff 	lea    -0x780(%rbp),%rax
   12312:	48 89 85 c0 fd ff ff 	mov    %rax,-0x240(%rbp)
   12319:	48 8d 85 84 f8 ff ff 	lea    -0x77c(%rbp),%rax
   12320:	48 89 85 c8 fd ff ff 	mov    %rax,-0x238(%rbp)
   12327:	48 8d 05 06 cd 00 00 	lea    0xcd06(%rip),%rax        # 1f034 <g_4+0x4>
   1232e:	48 89 85 d0 fd ff ff 	mov    %rax,-0x230(%rbp)
   12335:	48 c7 85 d8 fd ff ff 	movq   $0x0,-0x228(%rbp)
   1233c:	00 00 00 00 
   12340:	48 8d 05 ed cc 00 00 	lea    0xcced(%rip),%rax        # 1f034 <g_4+0x4>
   12347:	48 89 85 e0 fd ff ff 	mov    %rax,-0x220(%rbp)
   1234e:	48 8d 05 e3 cc 00 00 	lea    0xcce3(%rip),%rax        # 1f038 <g_4+0x8>
   12355:	48 89 85 e8 fd ff ff 	mov    %rax,-0x218(%rbp)
   1235c:	48 8d 85 84 f8 ff ff 	lea    -0x77c(%rbp),%rax
   12363:	48 89 85 f0 fd ff ff 	mov    %rax,-0x210(%rbp)
   1236a:	48 c7 85 f8 fd ff ff 	movq   $0x0,-0x208(%rbp)
   12371:	00 00 00 00 
   12375:	48 8d 05 a8 d0 00 00 	lea    0xd0a8(%rip),%rax        # 1f424 <g_246>
   1237c:	48 89 85 00 fe ff ff 	mov    %rax,-0x200(%rbp)
   12383:	48 8d 85 74 f8 ff ff 	lea    -0x78c(%rbp),%rax
   1238a:	48 89 85 08 fe ff ff 	mov    %rax,-0x1f8(%rbp)
   12391:	48 8d 85 7c f8 ff ff 	lea    -0x784(%rbp),%rax
   12398:	48 89 85 10 fe ff ff 	mov    %rax,-0x1f0(%rbp)
   1239f:	48 8d 85 84 f8 ff ff 	lea    -0x77c(%rbp),%rax
   123a6:	48 89 85 18 fe ff ff 	mov    %rax,-0x1e8(%rbp)
   123ad:	48 8d 85 88 f8 ff ff 	lea    -0x778(%rbp),%rax
   123b4:	48 89 85 20 fe ff ff 	mov    %rax,-0x1e0(%rbp)
   123bb:	48 8d 05 72 cc 00 00 	lea    0xcc72(%rip),%rax        # 1f034 <g_4+0x4>
   123c2:	48 89 85 28 fe ff ff 	mov    %rax,-0x1d8(%rbp)
   123c9:	48 8d 85 70 f8 ff ff 	lea    -0x790(%rbp),%rax
   123d0:	48 89 85 30 fe ff ff 	mov    %rax,-0x1d0(%rbp)
   123d7:	48 c7 85 38 fe ff ff 	movq   $0x0,-0x1c8(%rbp)
   123de:	00 00 00 00 
   123e2:	48 8d 85 84 f8 ff ff 	lea    -0x77c(%rbp),%rax
   123e9:	48 89 85 40 fe ff ff 	mov    %rax,-0x1c0(%rbp)
   123f0:	48 8d 05 2d d0 00 00 	lea    0xd02d(%rip),%rax        # 1f424 <g_246>
   123f7:	48 89 85 48 fe ff ff 	mov    %rax,-0x1b8(%rbp)
   123fe:	48 8d 85 88 f8 ff ff 	lea    -0x778(%rbp),%rax
   12405:	48 89 85 50 fe ff ff 	mov    %rax,-0x1b0(%rbp)
   1240c:	48 8d 85 88 f8 ff ff 	lea    -0x778(%rbp),%rax
   12413:	48 89 85 58 fe ff ff 	mov    %rax,-0x1a8(%rbp)
   1241a:	48 8d 05 0f cc 00 00 	lea    0xcc0f(%rip),%rax        # 1f030 <g_4>
   12421:	48 89 85 60 fe ff ff 	mov    %rax,-0x1a0(%rbp)
   12428:	48 8d 85 84 f8 ff ff 	lea    -0x77c(%rbp),%rax
   1242f:	48 89 85 68 fe ff ff 	mov    %rax,-0x198(%rbp)
   12436:	48 8d 05 e7 cf 00 00 	lea    0xcfe7(%rip),%rax        # 1f424 <g_246>
   1243d:	48 89 85 70 fe ff ff 	mov    %rax,-0x190(%rbp)
   12444:	48 8d 05 d9 cf 00 00 	lea    0xcfd9(%rip),%rax        # 1f424 <g_246>
   1244b:	48 89 85 78 fe ff ff 	mov    %rax,-0x188(%rbp)
   12452:	48 8d 85 84 f8 ff ff 	lea    -0x77c(%rbp),%rax
   12459:	48 89 85 80 fe ff ff 	mov    %rax,-0x180(%rbp)
   12460:	48 8d 85 80 f8 ff ff 	lea    -0x780(%rbp),%rax
   12467:	48 89 85 88 fe ff ff 	mov    %rax,-0x178(%rbp)
   1246e:	48 8d 85 84 f8 ff ff 	lea    -0x77c(%rbp),%rax
   12475:	48 89 85 90 fe ff ff 	mov    %rax,-0x170(%rbp)
   1247c:	48 8d 05 b1 cb 00 00 	lea    0xcbb1(%rip),%rax        # 1f034 <g_4+0x4>
   12483:	48 89 85 98 fe ff ff 	mov    %rax,-0x168(%rbp)
   1248a:	48 c7 85 a0 fe ff ff 	movq   $0x0,-0x160(%rbp)
   12491:	00 00 00 00 
   12495:	48 8d 05 98 cb 00 00 	lea    0xcb98(%rip),%rax        # 1f034 <g_4+0x4>
   1249c:	48 89 85 a8 fe ff ff 	mov    %rax,-0x158(%rbp)
   124a3:	48 8d 05 8e cb 00 00 	lea    0xcb8e(%rip),%rax        # 1f038 <g_4+0x8>
   124aa:	48 89 85 b0 fe ff ff 	mov    %rax,-0x150(%rbp)
   124b1:	48 8d 85 84 f8 ff ff 	lea    -0x77c(%rbp),%rax
   124b8:	48 89 85 b8 fe ff ff 	mov    %rax,-0x148(%rbp)
   124bf:	48 c7 85 c0 fe ff ff 	movq   $0x0,-0x140(%rbp)
   124c6:	00 00 00 00 
   124ca:	48 8d 05 53 cf 00 00 	lea    0xcf53(%rip),%rax        # 1f424 <g_246>
   124d1:	48 89 85 c8 fe ff ff 	mov    %rax,-0x138(%rbp)
   124d8:	48 8d 85 74 f8 ff ff 	lea    -0x78c(%rbp),%rax
   124df:	48 89 85 d0 fe ff ff 	mov    %rax,-0x130(%rbp)
   124e6:	48 8d 85 7c f8 ff ff 	lea    -0x784(%rbp),%rax
   124ed:	48 89 85 d8 fe ff ff 	mov    %rax,-0x128(%rbp)
   124f4:	48 8d 85 84 f8 ff ff 	lea    -0x77c(%rbp),%rax
   124fb:	48 89 85 e0 fe ff ff 	mov    %rax,-0x120(%rbp)
   12502:	48 8d 85 88 f8 ff ff 	lea    -0x778(%rbp),%rax
   12509:	48 89 85 e8 fe ff ff 	mov    %rax,-0x118(%rbp)
   12510:	48 8d 05 1d cb 00 00 	lea    0xcb1d(%rip),%rax        # 1f034 <g_4+0x4>
   12517:	48 89 85 f0 fe ff ff 	mov    %rax,-0x110(%rbp)
   1251e:	48 8d 85 70 f8 ff ff 	lea    -0x790(%rbp),%rax
   12525:	48 89 85 f8 fe ff ff 	mov    %rax,-0x108(%rbp)
   1252c:	48 c7 85 00 ff ff ff 	movq   $0x0,-0x100(%rbp)
   12533:	00 00 00 00 
   12537:	48 8d 85 84 f8 ff ff 	lea    -0x77c(%rbp),%rax
   1253e:	48 89 85 08 ff ff ff 	mov    %rax,-0xf8(%rbp)
   12545:	48 8d 05 d8 ce 00 00 	lea    0xced8(%rip),%rax        # 1f424 <g_246>
   1254c:	48 89 85 10 ff ff ff 	mov    %rax,-0xf0(%rbp)
   12553:	48 8d 85 88 f8 ff ff 	lea    -0x778(%rbp),%rax
   1255a:	48 89 85 18 ff ff ff 	mov    %rax,-0xe8(%rbp)
   12561:	48 8d 85 88 f8 ff ff 	lea    -0x778(%rbp),%rax
   12568:	48 89 85 20 ff ff ff 	mov    %rax,-0xe0(%rbp)
   1256f:	48 8d 05 ba ca 00 00 	lea    0xcaba(%rip),%rax        # 1f030 <g_4>
   12576:	48 89 85 28 ff ff ff 	mov    %rax,-0xd8(%rbp)
   1257d:	48 8d 85 84 f8 ff ff 	lea    -0x77c(%rbp),%rax
   12584:	48 89 85 30 ff ff ff 	mov    %rax,-0xd0(%rbp)
   1258b:	48 8d 05 92 ce 00 00 	lea    0xce92(%rip),%rax        # 1f424 <g_246>
   12592:	48 89 85 38 ff ff ff 	mov    %rax,-0xc8(%rbp)
   12599:	48 8d 05 84 ce 00 00 	lea    0xce84(%rip),%rax        # 1f424 <g_246>
   125a0:	48 89 85 40 ff ff ff 	mov    %rax,-0xc0(%rbp)
   125a7:	48 8d 85 84 f8 ff ff 	lea    -0x77c(%rbp),%rax
   125ae:	48 89 85 48 ff ff ff 	mov    %rax,-0xb8(%rbp)
   125b5:	48 8d 85 80 f8 ff ff 	lea    -0x780(%rbp),%rax
   125bc:	48 89 85 50 ff ff ff 	mov    %rax,-0xb0(%rbp)
   125c3:	48 8d 85 84 f8 ff ff 	lea    -0x77c(%rbp),%rax
   125ca:	48 89 85 58 ff ff ff 	mov    %rax,-0xa8(%rbp)
   125d1:	48 8d 05 5c ca 00 00 	lea    0xca5c(%rip),%rax        # 1f034 <g_4+0x4>
   125d8:	48 89 85 60 ff ff ff 	mov    %rax,-0xa0(%rbp)
   125df:	48 c7 85 68 ff ff ff 	movq   $0x0,-0x98(%rbp)
   125e6:	00 00 00 00 
   125ea:	48 8d 05 43 ca 00 00 	lea    0xca43(%rip),%rax        # 1f034 <g_4+0x4>
   125f1:	48 89 85 70 ff ff ff 	mov    %rax,-0x90(%rbp)
   125f8:	48 8d 05 39 ca 00 00 	lea    0xca39(%rip),%rax        # 1f038 <g_4+0x8>
   125ff:	48 89 85 78 ff ff ff 	mov    %rax,-0x88(%rbp)
   12606:	48 8d 85 84 f8 ff ff 	lea    -0x77c(%rbp),%rax
   1260d:	48 89 45 80          	mov    %rax,-0x80(%rbp)
   12611:	48 c7 45 88 00 00 00 	movq   $0x0,-0x78(%rbp)
   12618:	00 
   12619:	48 8d 05 04 ce 00 00 	lea    0xce04(%rip),%rax        # 1f424 <g_246>
   12620:	48 89 45 90          	mov    %rax,-0x70(%rbp)
   12624:	48 8d 85 74 f8 ff ff 	lea    -0x78c(%rbp),%rax
   1262b:	48 89 45 98          	mov    %rax,-0x68(%rbp)
   1262f:	48 8d 85 7c f8 ff ff 	lea    -0x784(%rbp),%rax
   12636:	48 89 45 a0          	mov    %rax,-0x60(%rbp)
   1263a:	48 8d 85 84 f8 ff ff 	lea    -0x77c(%rbp),%rax
   12641:	48 89 45 a8          	mov    %rax,-0x58(%rbp)
   12645:	48 8d 05 e8 c9 00 00 	lea    0xc9e8(%rip),%rax        # 1f034 <g_4+0x4>
   1264c:	48 89 45 b0          	mov    %rax,-0x50(%rbp)
   12650:	48 8d 85 74 f8 ff ff 	lea    -0x78c(%rbp),%rax
   12657:	48 89 45 b8          	mov    %rax,-0x48(%rbp)
   1265b:	48 8d 85 20 f9 ff ff 	lea    -0x6e0(%rbp),%rax
   12662:	48 89 85 28 f9 ff ff 	mov    %rax,-0x6d8(%rbp)
   12669:	48 8d 85 28 f9 ff ff 	lea    -0x6d8(%rbp),%rax
   12670:	48 89 85 10 fa ff ff 	mov    %rax,-0x5f0(%rbp)
   12677:	c7 85 9c f8 ff ff 00 	movl   $0x0,-0x764(%rbp)
   1267e:	00 00 00 
   12681:	eb 19                	jmp    1269c <func_52+0x1ea5>
   12683:	8b 85 9c f8 ff ff    	mov    -0x764(%rbp),%eax
   12689:	48 98                	cltq   
   1268b:	66 c7 84 45 80 fa ff 	movw   $0x8345,-0x580(%rbp,%rax,2)
   12692:	ff 45 83 
   12695:	83 85 9c f8 ff ff 01 	addl   $0x1,-0x764(%rbp)
   1269c:	83 bd 9c f8 ff ff 04 	cmpl   $0x4,-0x764(%rbp)
   126a3:	7e de                	jle    12683 <func_52+0x1e8c>
   126a5:	48 8b 85 d0 f8 ff ff 	mov    -0x730(%rbp),%rax
   126ac:	8b 08                	mov    (%rax),%ecx
   126ae:	0f b7 85 88 fa ff ff 	movzwl -0x578(%rbp),%eax
   126b5:	0f bf d0             	movswl %ax,%edx
   126b8:	48 8b 85 d0 f8 ff ff 	mov    -0x730(%rbp),%rax
   126bf:	21 ca                	and    %ecx,%edx
   126c1:	89 10                	mov    %edx,(%rax)
   126c3:	48 8b 45 b8          	mov    -0x48(%rbp),%rax
   126c7:	48 8d 15 62 c9 00 00 	lea    0xc962(%rip),%rdx        # 1f030 <g_4>
   126ce:	48 39 d0             	cmp    %rdx,%rax
   126d1:	0f 84 fc 00 00 00    	je     127d3 <func_52+0x1fdc>
   126d7:	0f b7 85 5c f8 ff ff 	movzwl -0x7a4(%rbp),%eax
   126de:	44 0f bf e8          	movswl %ax,%r13d
   126e2:	48 8b 05 6f f6 00 00 	mov    0xf66f(%rip),%rax        # 21d58 <g_322>
   126e9:	0f b7 00             	movzwl (%rax),%eax
   126ec:	0f bf d8             	movswl %ax,%ebx
   126ef:	83 bd 58 f8 ff ff 00 	cmpl   $0x0,-0x7a8(%rbp)
   126f6:	74 07                	je     126ff <func_52+0x1f08>
   126f8:	83 bd 58 f8 ff ff 00 	cmpl   $0x0,-0x7a8(%rbp)
   126ff:	be 09 00 00 00       	mov    $0x9,%esi
   12704:	bf 28 00 00 00       	mov    $0x28,%edi
   12709:	e8 b0 76 ff ff       	callq  9dbe <safe_lshift_func_uint16_t_u_s>
   1270e:	66 85 c0             	test   %ax,%ax
   12711:	0f 95 c0             	setne  %al
   12714:	0f b6 c0             	movzbl %al,%eax
   12717:	4c 8b 25 3a f6 00 00 	mov    0xf63a(%rip),%r12        # 21d58 <g_322>
   1271e:	89 de                	mov    %ebx,%esi
   12720:	89 c7                	mov    %eax,%edi
   12722:	e8 ac 6c ff ff       	callq  93d3 <safe_sub_func_int16_t_s_s>
   12727:	66 41 89 04 24       	mov    %ax,(%r12)
   1272c:	0f b7 85 6a f8 ff ff 	movzwl -0x796(%rbp),%eax
   12733:	be 0a 00 00 00       	mov    $0xa,%esi
   12738:	89 c7                	mov    %eax,%edi
   1273a:	e8 c7 76 ff ff       	callq  9e06 <safe_lshift_func_uint16_t_u_u>
   1273f:	8b 05 6f cd 00 00    	mov    0xcd6f(%rip),%eax        # 1f4b4 <g_717>
   12745:	48 98                	cltq   
   12747:	be 01 00 00 00       	mov    $0x1,%esi
   1274c:	48 89 c7             	mov    %rax,%rdi
   1274f:	e8 ed 70 ff ff       	callq  9841 <safe_add_func_int64_t_s_s>
   12754:	89 c2                	mov    %eax,%edx
   12756:	48 8b 85 f8 f9 ff ff 	mov    -0x608(%rbp),%rax
   1275d:	89 d6                	mov    %edx,%esi
   1275f:	89 c7                	mov    %eax,%edi
   12761:	e8 66 6f ff ff       	callq  96cc <safe_mod_func_int32_t_s_s>
   12766:	48 83 bd f8 f9 ff ff 	cmpq   $0x0,-0x608(%rbp)
   1276d:	00 
   1276e:	74 07                	je     12777 <func_52+0x1f80>
   12770:	b8 01 00 00 00       	mov    $0x1,%eax
   12775:	eb 05                	jmp    1277c <func_52+0x1f85>
   12777:	b8 00 00 00 00       	mov    $0x0,%eax
   1277c:	0f b6 c0             	movzbl %al,%eax
   1277f:	be 05 00 00 00       	mov    $0x5,%esi
   12784:	89 c7                	mov    %eax,%edi
   12786:	e8 c1 74 ff ff       	callq  9c4c <safe_lshift_func_uint8_t_u_u>
   1278b:	0f b6 c0             	movzbl %al,%eax
   1278e:	41 39 c5             	cmp    %eax,%r13d
   12791:	0f 94 c2             	sete   %dl
   12794:	8b 05 fe cc 00 00    	mov    0xccfe(%rip),%eax        # 1f498 <g_371>
   1279a:	83 c0 02             	add    $0x2,%eax
   1279d:	89 d6                	mov    %edx,%esi
   1279f:	48 63 d0             	movslq %eax,%rdx
   127a2:	48 8d 0d 67 cc 00 00 	lea    0xcc67(%rip),%rcx        # 1f410 <g_148>
   127a9:	40 88 34 0a          	mov    %sil,(%rdx,%rcx,1)
   127ad:	48 98                	cltq   
   127af:	48 8d 15 5a cc 00 00 	lea    0xcc5a(%rip),%rdx        # 1f410 <g_148>
   127b6:	0f b6 04 10          	movzbl (%rax,%rdx,1),%eax
   127ba:	84 c0                	test   %al,%al
   127bc:	75 0c                	jne    127ca <func_52+0x1fd3>
   127be:	0f b7 85 5c f8 ff ff 	movzwl -0x7a4(%rbp),%eax
   127c5:	66 85 c0             	test   %ax,%ax
   127c8:	74 08                	je     127d2 <func_52+0x1fdb>
   127ca:	8b 85 88 f8 ff ff    	mov    -0x778(%rbp),%eax
   127d0:	85 c0                	test   %eax,%eax
   127d2:	90                   	nop
   127d3:	48 c7 c2 fb ff ff ff 	mov    $0xfffffffffffffffb,%rdx
   127da:	48 8b 85 78 f9 ff ff 	mov    -0x688(%rbp),%rax
   127e1:	8b 00                	mov    (%rax),%eax
   127e3:	09 c2                	or     %eax,%edx
   127e5:	48 8b 85 78 f9 ff ff 	mov    -0x688(%rbp),%rax
   127ec:	89 10                	mov    %edx,(%rax)
   127ee:	0f b7 85 5c f8 ff ff 	movzwl -0x7a4(%rbp),%eax
   127f5:	0f bf d8             	movswl %ax,%ebx
   127f8:	be 04 00 00 00       	mov    $0x4,%esi
   127fd:	bf 8b 00 00 00       	mov    $0x8b,%edi
   12802:	e8 86 74 ff ff       	callq  9c8d <safe_rshift_func_uint8_t_u_s>
   12807:	0f b6 c0             	movzbl %al,%eax
   1280a:	89 de                	mov    %ebx,%esi
   1280c:	89 c7                	mov    %eax,%edi
   1280e:	e8 12 77 ff ff       	callq  9f25 <safe_div_func_uint32_t_u_u>
   12813:	48 8b 15 86 f5 00 00 	mov    0xf586(%rip),%rdx        # 21da0 <g_331>
   1281a:	48 8b 32             	mov    (%rdx),%rsi
   1281d:	48 8d 15 1c f6 00 00 	lea    0xf61c(%rip),%rdx        # 21e40 <g_644>
   12824:	48 89 95 00 fa ff ff 	mov    %rdx,-0x600(%rbp)
   1282b:	48 8b 95 10 fa ff ff 	mov    -0x5f0(%rbp),%rdx
   12832:	48 8b 8d 00 fa ff ff 	mov    -0x600(%rbp),%rcx
   12839:	48 89 0a             	mov    %rcx,(%rdx)
   1283c:	48 8b 95 10 fa ff ff 	mov    -0x5f0(%rbp),%rdx
   12843:	48 8b 12             	mov    (%rdx),%rdx
   12846:	48 39 d6             	cmp    %rdx,%rsi
   12849:	0f 94 c2             	sete   %dl
   1284c:	0f b6 d2             	movzbl %dl,%edx
   1284f:	39 d0                	cmp    %edx,%eax
   12851:	0f 93 c0             	setae  %al
   12854:	0f b6 d0             	movzbl %al,%edx
   12857:	48 8b 85 38 f9 ff ff 	mov    -0x6c8(%rbp),%rax
   1285e:	89 10                	mov    %edx,(%rax)
   12860:	8b 05 32 cc 00 00    	mov    0xcc32(%rip),%eax        # 1f498 <g_371>
   12866:	83 e8 01             	sub    $0x1,%eax
   12869:	89 05 29 cc 00 00    	mov    %eax,0xcc29(%rip)        # 1f498 <g_371>
   1286f:	8b 05 23 cc 00 00    	mov    0xcc23(%rip),%eax        # 1f498 <g_371>
   12875:	85 c0                	test   %eax,%eax
   12877:	0f 8f b1 f9 ff ff    	jg     1222e <func_52+0x1a37>
   1287d:	48 c7 05 80 cb 00 00 	movq   $0x1,0xcb80(%rip)        # 1f408 <g_143>
   12884:	01 00 00 00 
   12888:	e9 b3 01 00 00       	jmpq   12a40 <func_52+0x2249>
   1288d:	c7 85 a0 f8 ff ff 00 	movl   $0x0,-0x760(%rbp)
   12894:	00 00 00 
   12897:	eb 1e                	jmp    128b7 <func_52+0x20c0>
   12899:	8b 85 a0 f8 ff ff    	mov    -0x760(%rbp),%eax
   1289f:	48 98                	cltq   
   128a1:	48 8d 15 f0 cb 00 00 	lea    0xcbf0(%rip),%rdx        # 1f498 <g_371>
   128a8:	48 89 94 c5 40 fd ff 	mov    %rdx,-0x2c0(%rbp,%rax,8)
   128af:	ff 
   128b0:	83 85 a0 f8 ff ff 01 	addl   $0x1,-0x760(%rbp)
   128b7:	83 bd a0 f8 ff ff 01 	cmpl   $0x1,-0x760(%rbp)
   128be:	7e d9                	jle    12899 <func_52+0x20a2>
   128c0:	48 8b 15 41 cb 00 00 	mov    0xcb41(%rip),%rdx        # 1f408 <g_143>
   128c7:	48 8b 05 3a cb 00 00 	mov    0xcb3a(%rip),%rax        # 1f408 <g_143>
   128ce:	48 01 d2             	add    %rdx,%rdx
   128d1:	48 01 d0             	add    %rdx,%rax
   128d4:	48 8d 14 85 00 00 00 	lea    0x0(,%rax,4),%rdx
   128db:	00 
   128dc:	48 8d 05 5d cb 00 00 	lea    0xcb5d(%rip),%rax        # 1f440 <g_278>
   128e3:	44 8b 34 02          	mov    (%rdx,%rax,1),%r14d
   128e7:	48 8b 15 1a cb 00 00 	mov    0xcb1a(%rip),%rdx        # 1f408 <g_143>
   128ee:	48 8b 05 13 cb 00 00 	mov    0xcb13(%rip),%rax        # 1f408 <g_143>
   128f5:	48 01 d2             	add    %rdx,%rdx
   128f8:	48 01 d0             	add    %rdx,%rax
   128fb:	48 8d 14 85 00 00 00 	lea    0x0(,%rax,4),%rdx
   12902:	00 
   12903:	48 8d 05 36 cb 00 00 	lea    0xcb36(%rip),%rax        # 1f440 <g_278>
   1290a:	8b 1c 02             	mov    (%rdx,%rax,1),%ebx
   1290d:	48 8b 85 f8 f9 ff ff 	mov    -0x608(%rbp),%rax
   12914:	44 0f be e0          	movsbl %al,%r12d
   12918:	8b 85 90 f8 ff ff    	mov    -0x770(%rbp),%eax
   1291e:	44 0f be e8          	movsbl %al,%r13d
   12922:	48 8b 85 f8 f9 ff ff 	mov    -0x608(%rbp),%rax
   12929:	89 c2                	mov    %eax,%edx
   1292b:	48 8b 85 38 f9 ff ff 	mov    -0x6c8(%rbp),%rax
   12932:	c7 00 f6 ff ff ff    	movl   $0xfffffff6,(%rax)
   12938:	b8 01 00 00 00       	mov    $0x1,%eax
   1293d:	89 d6                	mov    %edx,%esi
   1293f:	89 c7                	mov    %eax,%edi
   12941:	e8 70 6c ff ff       	callq  95b6 <safe_add_func_int32_t_s_s>
   12946:	89 05 4c cb 00 00    	mov    %eax,0xcb4c(%rip)        # 1f498 <g_371>
   1294c:	8b 85 58 f8 ff ff    	mov    -0x7a8(%rbp),%eax
   12952:	0f be c0             	movsbl %al,%eax
   12955:	44 89 ee             	mov    %r13d,%esi
   12958:	89 c7                	mov    %eax,%edi
   1295a:	e8 b3 68 ff ff       	callq  9212 <safe_mul_func_int8_t_s_s>
   1295f:	0f be d0             	movsbl %al,%edx
   12962:	0f b7 85 5c f8 ff ff 	movzwl -0x7a4(%rbp),%eax
   12969:	98                   	cwtl   
   1296a:	39 c2                	cmp    %eax,%edx
   1296c:	75 15                	jne    12983 <func_52+0x218c>
   1296e:	48 8b 05 ab f4 00 00 	mov    0xf4ab(%rip),%rax        # 21e20 <g_578>
   12975:	48 8b 00             	mov    (%rax),%rax
   12978:	48 8b 00             	mov    (%rax),%rax
   1297b:	48 8b 00             	mov    (%rax),%rax
   1297e:	0f b6 00             	movzbl (%rax),%eax
   12981:	84 c0                	test   %al,%al
   12983:	48 8b 05 7e ca 00 00 	mov    0xca7e(%rip),%rax        # 1f408 <g_143>
   1298a:	48 8d 15 0c cb 00 00 	lea    0xcb0c(%rip),%rdx        # 1f49d <g_375>
   12991:	0f b6 04 10          	movzbl (%rax,%rdx,1),%eax
   12995:	0f be c0             	movsbl %al,%eax
   12998:	44 89 e6             	mov    %r12d,%esi
   1299b:	89 c7                	mov    %eax,%edi
   1299d:	e8 8f 68 ff ff       	callq  9231 <safe_mod_func_int8_t_s_s>
   129a2:	0f be c0             	movsbl %al,%eax
   129a5:	89 de                	mov    %ebx,%esi
   129a7:	89 c7                	mov    %eax,%edi
   129a9:	e8 4f 75 ff ff       	callq  9efd <safe_mod_func_uint32_t_u_u>
   129ae:	8b 85 54 f8 ff ff    	mov    -0x7ac(%rbp),%eax
   129b4:	89 c6                	mov    %eax,%esi
   129b6:	bf 01 00 00 00       	mov    $0x1,%edi
   129bb:	e8 0c 6d ff ff       	callq  96cc <safe_mod_func_int32_t_s_s>
   129c0:	85 c0                	test   %eax,%eax
   129c2:	75 0a                	jne    129ce <func_52+0x21d7>
   129c4:	8b 85 84 f8 ff ff    	mov    -0x77c(%rbp),%eax
   129ca:	85 c0                	test   %eax,%eax
   129cc:	74 07                	je     129d5 <func_52+0x21de>
   129ce:	b8 01 00 00 00       	mov    $0x1,%eax
   129d3:	eb 05                	jmp    129da <func_52+0x21e3>
   129d5:	b8 00 00 00 00       	mov    $0x0,%eax
   129da:	83 f8 ff             	cmp    $0xffffffff,%eax
   129dd:	0f 9c c0             	setl   %al
   129e0:	0f b6 c0             	movzbl %al,%eax
   129e3:	41 39 c6             	cmp    %eax,%r14d
   129e6:	0f 96 c0             	setbe  %al
   129e9:	0f b6 c0             	movzbl %al,%eax
   129ec:	89 85 88 f8 ff ff    	mov    %eax,-0x778(%rbp)
   129f2:	c7 85 8c f8 ff ff 00 	movl   $0x0,-0x774(%rbp)
   129f9:	00 00 00 
   129fc:	eb 27                	jmp    12a25 <func_52+0x222e>
   129fe:	8b 85 8c f8 ff ff    	mov    -0x774(%rbp),%eax
   12a04:	48 8d 14 c5 00 00 00 	lea    0x0(,%rax,8),%rdx
   12a0b:	00 
   12a0c:	48 8d 05 ad f3 00 00 	lea    0xf3ad(%rip),%rax        # 21dc0 <g_399>
   12a13:	48 8d 0d 0a ca 00 00 	lea    0xca0a(%rip),%rcx        # 1f424 <g_246>
   12a1a:	48 89 0c 02          	mov    %rcx,(%rdx,%rax,1)
   12a1e:	83 85 8c f8 ff ff 01 	addl   $0x1,-0x774(%rbp)
   12a25:	83 bd 8c f8 ff ff 08 	cmpl   $0x8,-0x774(%rbp)
   12a2c:	76 d0                	jbe    129fe <func_52+0x2207>
   12a2e:	48 8b 05 d3 c9 00 00 	mov    0xc9d3(%rip),%rax        # 1f408 <g_143>
   12a35:	48 83 e8 01          	sub    $0x1,%rax
   12a39:	48 89 05 c8 c9 00 00 	mov    %rax,0xc9c8(%rip)        # 1f408 <g_143>
   12a40:	48 8b 05 c1 c9 00 00 	mov    0xc9c1(%rip),%rax        # 1f408 <g_143>
   12a47:	48 85 c0             	test   %rax,%rax
   12a4a:	0f 89 3d fe ff ff    	jns    1288d <func_52+0x2096>
   12a50:	83 bd 54 f8 ff ff 00 	cmpl   $0x0,-0x7ac(%rbp)
   12a57:	0f 84 bc 00 00 00    	je     12b19 <func_52+0x2322>
   12a5d:	48 8d 85 40 fd ff ff 	lea    -0x2c0(%rbp),%rax
   12a64:	48 8d 15 95 84 00 00 	lea    0x8495(%rip),%rdx        # 1af00 <g_1819+0xe20>
   12a6b:	b9 28 00 00 00       	mov    $0x28,%ecx
   12a70:	48 89 c7             	mov    %rax,%rdi
   12a73:	48 89 d6             	mov    %rdx,%rsi
   12a76:	f3 48 a5             	rep movsq %ds:(%rsi),%es:(%rdi)
   12a79:	48 89 f2             	mov    %rsi,%rdx
   12a7c:	48 89 f8             	mov    %rdi,%rax
   12a7f:	8b 0a                	mov    (%rdx),%ecx
   12a81:	89 08                	mov    %ecx,(%rax)
   12a83:	48 8d 40 04          	lea    0x4(%rax),%rax
   12a87:	48 8d 52 04          	lea    0x4(%rdx),%rdx
   12a8b:	48 c7 05 da 07 01 00 	movq   $0x0,0x107da(%rip)        # 23270 <g_997>
   12a92:	00 00 00 00 
   12a96:	83 bd 58 f8 ff ff 00 	cmpl   $0x0,-0x7a8(%rbp)
   12a9d:	74 2c                	je     12acb <func_52+0x22d4>
   12a9f:	8b 85 44 fe ff ff    	mov    -0x1bc(%rbp),%eax
   12aa5:	0f be c0             	movsbl %al,%eax
   12aa8:	be 03 00 00 00       	mov    $0x3,%esi
   12aad:	89 c7                	mov    %eax,%edi
   12aaf:	e8 3a 68 ff ff       	callq  92ee <safe_lshift_func_int8_t_s_u>
   12ab4:	8b 85 54 f8 ff ff    	mov    -0x7ac(%rbp),%eax
   12aba:	23 85 90 f8 ff ff    	and    -0x770(%rbp),%eax
   12ac0:	85 c0                	test   %eax,%eax
   12ac2:	74 07                	je     12acb <func_52+0x22d4>
   12ac4:	b8 01 00 00 00       	mov    $0x1,%eax
   12ac9:	eb 05                	jmp    12ad0 <func_52+0x22d9>
   12acb:	b8 00 00 00 00       	mov    $0x0,%eax
   12ad0:	83 f8 01             	cmp    $0x1,%eax
   12ad3:	0f 9e c0             	setle  %al
   12ad6:	0f b6 c0             	movzbl %al,%eax
   12ad9:	be 08 00 00 00       	mov    $0x8,%esi
   12ade:	48 89 c7             	mov    %rax,%rdi
   12ae1:	e8 9a 75 ff ff       	callq  a080 <safe_mod_func_uint64_t_u_u>
   12ae6:	8b 95 44 fe ff ff    	mov    -0x1bc(%rbp),%edx
   12aec:	48 8b 85 e8 f8 ff ff 	mov    -0x718(%rbp),%rax
   12af3:	8b 00                	mov    (%rax),%eax
   12af5:	f7 d0                	not    %eax
   12af7:	39 c2                	cmp    %eax,%edx
   12af9:	0f 97 c0             	seta   %al
   12afc:	0f b6 c0             	movzbl %al,%eax
   12aff:	89 85 58 f8 ff ff    	mov    %eax,-0x7a8(%rbp)
   12b05:	8b 95 58 f8 ff ff    	mov    -0x7a8(%rbp),%edx
   12b0b:	48 8b 85 38 f9 ff ff 	mov    -0x6c8(%rbp),%rax
   12b12:	89 10                	mov    %edx,(%rax)
   12b14:	e9 cc 00 00 00       	jmpq   12be5 <func_52+0x23ee>
   12b19:	0f b6 05 e4 c8 00 00 	movzbl 0xc8e4(%rip),%eax        # 1f404 <g_113>
   12b20:	84 c0                	test   %al,%al
   12b22:	7e 19                	jle    12b3d <func_52+0x2346>
   12b24:	48 8b 85 f0 f8 ff ff 	mov    -0x710(%rbp),%rax
   12b2b:	c7 00 02 00 00 00    	movl   $0x2,(%rax)
   12b31:	48 8b 85 08 fa ff ff 	mov    -0x5f8(%rbp),%rax
   12b38:	e9 14 01 00 00       	jmpq   12c51 <func_52+0x245a>
   12b3d:	0f b7 85 5c f8 ff ff 	movzwl -0x7a4(%rbp),%eax
   12b44:	0f bf d0             	movswl %ax,%edx
   12b47:	48 8b 85 70 f9 ff ff 	mov    -0x690(%rbp),%rax
   12b4e:	89 10                	mov    %edx,(%rax)
   12b50:	83 bd 54 f8 ff ff 00 	cmpl   $0x0,-0x7ac(%rbp)
   12b57:	0f 85 84 00 00 00    	jne    12be1 <func_52+0x23ea>
   12b5d:	48 8b 85 e0 f9 ff ff 	mov    -0x620(%rbp),%rax
   12b64:	48 8b 00             	mov    (%rax),%rax
   12b67:	48 8d 15 b6 c8 00 00 	lea    0xc8b6(%rip),%rdx        # 1f424 <g_246>
   12b6e:	48 89 10             	mov    %rdx,(%rax)
   12b71:	83 bd 54 f8 ff ff 00 	cmpl   $0x0,-0x7ac(%rbp)
   12b78:	75 6a                	jne    12be4 <func_52+0x23ed>
   12b7a:	8b 85 58 f8 ff ff    	mov    -0x7a8(%rbp),%eax
   12b80:	0f b6 d0             	movzbl %al,%edx
   12b83:	0f b7 85 5c f8 ff ff 	movzwl -0x7a4(%rbp),%eax
   12b8a:	0f bf c8             	movswl %ax,%ecx
   12b8d:	8b 85 88 f8 ff ff    	mov    -0x778(%rbp),%eax
   12b93:	21 c1                	and    %eax,%ecx
   12b95:	89 ce                	mov    %ecx,%esi
   12b97:	8b 85 54 f8 ff ff    	mov    -0x7ac(%rbp),%eax
   12b9d:	39 85 58 f8 ff ff    	cmp    %eax,-0x7a8(%rbp)
   12ba3:	0f 95 c1             	setne  %cl
   12ba6:	48 8b 05 ab f1 00 00 	mov    0xf1ab(%rip),%rax        # 21d58 <g_322>
   12bad:	0f b6 c9             	movzbl %cl,%ecx
   12bb0:	66 89 08             	mov    %cx,(%rax)
   12bb3:	0f b7 00             	movzwl (%rax),%eax
   12bb6:	98                   	cwtl   
   12bb7:	39 c6                	cmp    %eax,%esi
   12bb9:	0f 9c c0             	setl   %al
   12bbc:	0f b6 c0             	movzbl %al,%eax
   12bbf:	89 d6                	mov    %edx,%esi
   12bc1:	89 c7                	mov    %eax,%edi
   12bc3:	e8 13 70 ff ff       	callq  9bdb <safe_div_func_uint8_t_u_u>
   12bc8:	48 8b 95 e8 f8 ff ff 	mov    -0x718(%rbp),%rdx
   12bcf:	8b 0a                	mov    (%rdx),%ecx
   12bd1:	0f b6 d0             	movzbl %al,%edx
   12bd4:	48 8b 85 e8 f8 ff ff 	mov    -0x718(%rbp),%rax
   12bdb:	09 ca                	or     %ecx,%edx
   12bdd:	89 10                	mov    %edx,(%rax)
   12bdf:	eb 04                	jmp    12be5 <func_52+0x23ee>
   12be1:	90                   	nop
   12be2:	eb 01                	jmp    12be5 <func_52+0x23ee>
   12be4:	90                   	nop
   12be5:	8b 85 94 f8 ff ff    	mov    -0x76c(%rbp),%eax
   12beb:	be 09 00 00 00       	mov    $0x9,%esi
   12bf0:	48 89 c7             	mov    %rax,%rdi
   12bf3:	e8 49 6c ff ff       	callq  9841 <safe_add_func_int64_t_s_s>
   12bf8:	89 85 94 f8 ff ff    	mov    %eax,-0x76c(%rbp)
   12bfe:	83 bd 94 f8 ff ff 36 	cmpl   $0x36,-0x76c(%rbp)
   12c05:	0f 84 ce f5 ff ff    	je     121d9 <func_52+0x19e2>
   12c0b:	eb 01                	jmp    12c0e <func_52+0x2417>
   12c0d:	90                   	nop
   12c0e:	48 8b 85 e0 f8 ff ff 	mov    -0x720(%rbp),%rax
   12c15:	8b 10                	mov    (%rax),%edx
   12c17:	48 8b 85 e0 f8 ff ff 	mov    -0x720(%rbp),%rax
   12c1e:	81 ca 57 78 65 51    	or     $0x51657857,%edx
   12c24:	89 10                	mov    %edx,(%rax)
   12c26:	8b 85 7c f8 ff ff    	mov    -0x784(%rbp),%eax
   12c2c:	83 c0 01             	add    $0x1,%eax
   12c2f:	89 85 7c f8 ff ff    	mov    %eax,-0x784(%rbp)
   12c35:	8b 85 7c f8 ff ff    	mov    -0x784(%rbp),%eax
   12c3b:	83 f8 1c             	cmp    $0x1c,%eax
   12c3e:	0f 8e f6 e0 ff ff    	jle    10d3a <func_52+0x543>
   12c44:	48 8b 85 98 f9 ff ff 	mov    -0x668(%rbp),%rax
   12c4b:	48 8b 00             	mov    (%rax),%rax
   12c4e:	48 8b 00             	mov    (%rax),%rax
   12c51:	48 8b 5d c8          	mov    -0x38(%rbp),%rbx
   12c55:	64 48 33 1c 25 28 00 	xor    %fs:0x28,%rbx
   12c5c:	00 00 
   12c5e:	74 05                	je     12c65 <func_52+0x246e>
   12c60:	e8 0b 64 ff ff       	callq  9070 <__stack_chk_fail@plt>
   12c65:	48 81 c4 88 07 00 00 	add    $0x788,%rsp
   12c6c:	5b                   	pop    %rbx
   12c6d:	41 5c                	pop    %r12
   12c6f:	41 5d                	pop    %r13
   12c71:	41 5e                	pop    %r14
   12c73:	41 5f                	pop    %r15
   12c75:	5d                   	pop    %rbp
   12c76:	c3                   	retq   

0000000000012c77 <func_56>:
   12c77:	f3 0f 1e fa          	endbr64 
   12c7b:	55                   	push   %rbp
   12c7c:	48 89 e5             	mov    %rsp,%rbp
   12c7f:	53                   	push   %rbx
   12c80:	48 81 ec 78 04 00 00 	sub    $0x478,%rsp
   12c87:	89 f8                	mov    %edi,%eax
   12c89:	89 b5 98 fb ff ff    	mov    %esi,-0x468(%rbp)
   12c8f:	48 89 95 90 fb ff ff 	mov    %rdx,-0x470(%rbp)
   12c96:	48 89 8d 88 fb ff ff 	mov    %rcx,-0x478(%rbp)
   12c9d:	4c 89 85 80 fb ff ff 	mov    %r8,-0x480(%rbp)
   12ca4:	66 89 85 9c fb ff ff 	mov    %ax,-0x464(%rbp)
   12cab:	64 48 8b 04 25 28 00 	mov    %fs:0x28,%rax
   12cb2:	00 00 
   12cb4:	48 89 45 e8          	mov    %rax,-0x18(%rbp)
   12cb8:	31 c0                	xor    %eax,%eax
   12cba:	48 8d 05 63 c7 00 00 	lea    0xc763(%rip),%rax        # 1f424 <g_246>
   12cc1:	48 89 85 d0 fb ff ff 	mov    %rax,-0x430(%rbp)
   12cc8:	c7 85 b4 fb ff ff 53 	movl   $0x21e48553,-0x44c(%rbp)
   12ccf:	85 e4 21 
   12cd2:	c7 85 a8 fb ff ff f7 	movl   $0xfffffff7,-0x458(%rbp)
   12cd9:	ff ff ff 
   12cdc:	c7 85 ac fb ff ff ff 	movl   $0xffffffff,-0x454(%rbp)
   12ce3:	ff ff ff 
   12ce6:	c7 85 b8 fb ff ff ca 	movl   $0xcefa9ca,-0x448(%rbp)
   12ced:	a9 ef 0c 
   12cf0:	48 8b 85 d0 fb ff ff 	mov    -0x430(%rbp),%rax
   12cf7:	8b 00                	mov    (%rax),%eax
   12cf9:	83 e0 fe             	and    $0xfffffffe,%eax
   12cfc:	89 c2                	mov    %eax,%edx
   12cfe:	48 8b 85 d0 fb ff ff 	mov    -0x430(%rbp),%rax
   12d05:	89 10                	mov    %edx,(%rax)
   12d07:	c6 05 0b c7 00 00 fc 	movb   $0xfc,0xc70b(%rip)        # 1f419 <g_167>
   12d0e:	e9 f3 0a 00 00       	jmpq   13806 <func_56+0xb8f>
   12d13:	48 b8 88 b8 2e 16 77 	movabs $0x3a879577162eb888,%rax
   12d1a:	95 87 3a 
   12d1d:	48 89 85 d8 fb ff ff 	mov    %rax,-0x428(%rbp)
   12d24:	c7 85 bc fb ff ff ad 	movl   $0xe36257ad,-0x444(%rbp)
   12d2b:	57 62 e3 
   12d2e:	48 c7 85 c0 fb ff ff 	movq   $0x0,-0x440(%rbp)
   12d35:	00 00 00 00 
   12d39:	48 8d 85 c0 fb ff ff 	lea    -0x440(%rbp),%rax
   12d40:	48 89 85 e0 fb ff ff 	mov    %rax,-0x420(%rbp)
   12d47:	c6 05 d2 c6 00 00 08 	movb   $0x8,0xc6d2(%rip)        # 1f420 <g_184>
   12d4e:	e9 70 0a 00 00       	jmpq   137c3 <func_56+0xb4c>
   12d53:	48 8d 05 ca c6 00 00 	lea    0xc6ca(%rip),%rax        # 1f424 <g_246>
   12d5a:	48 89 85 00 fc ff ff 	mov    %rax,-0x400(%rbp)
   12d61:	48 8d 05 bc c6 00 00 	lea    0xc6bc(%rip),%rax        # 1f424 <g_246>
   12d68:	48 89 85 08 fc ff ff 	mov    %rax,-0x3f8(%rbp)
   12d6f:	48 8d 05 ae c6 00 00 	lea    0xc6ae(%rip),%rax        # 1f424 <g_246>
   12d76:	48 89 85 10 fc ff ff 	mov    %rax,-0x3f0(%rbp)
   12d7d:	48 c7 85 18 fc ff ff 	movq   $0x0,-0x3e8(%rbp)
   12d84:	00 00 00 00 
   12d88:	48 8d 05 95 c6 00 00 	lea    0xc695(%rip),%rax        # 1f424 <g_246>
   12d8f:	48 89 85 20 fc ff ff 	mov    %rax,-0x3e0(%rbp)
   12d96:	48 c7 85 28 fc ff ff 	movq   $0x0,-0x3d8(%rbp)
   12d9d:	00 00 00 00 
   12da1:	48 8d 05 7c c6 00 00 	lea    0xc67c(%rip),%rax        # 1f424 <g_246>
   12da8:	48 89 85 30 fc ff ff 	mov    %rax,-0x3d0(%rbp)
   12daf:	48 8d 05 6e c6 00 00 	lea    0xc66e(%rip),%rax        # 1f424 <g_246>
   12db6:	48 89 85 38 fc ff ff 	mov    %rax,-0x3c8(%rbp)
   12dbd:	48 8d 05 60 c6 00 00 	lea    0xc660(%rip),%rax        # 1f424 <g_246>
   12dc4:	48 89 85 40 fc ff ff 	mov    %rax,-0x3c0(%rbp)
   12dcb:	48 c7 85 48 fc ff ff 	movq   $0x0,-0x3b8(%rbp)
   12dd2:	00 00 00 00 
   12dd6:	48 8d 05 47 c6 00 00 	lea    0xc647(%rip),%rax        # 1f424 <g_246>
   12ddd:	48 89 85 50 fc ff ff 	mov    %rax,-0x3b0(%rbp)
   12de4:	48 c7 85 58 fc ff ff 	movq   $0x0,-0x3a8(%rbp)
   12deb:	00 00 00 00 
   12def:	48 8d 05 2e c6 00 00 	lea    0xc62e(%rip),%rax        # 1f424 <g_246>
   12df6:	48 89 85 60 fc ff ff 	mov    %rax,-0x3a0(%rbp)
   12dfd:	48 8d 05 20 c6 00 00 	lea    0xc620(%rip),%rax        # 1f424 <g_246>
   12e04:	48 89 85 68 fc ff ff 	mov    %rax,-0x398(%rbp)
   12e0b:	48 8d 05 12 c6 00 00 	lea    0xc612(%rip),%rax        # 1f424 <g_246>
   12e12:	48 89 85 70 fc ff ff 	mov    %rax,-0x390(%rbp)
   12e19:	48 c7 85 78 fc ff ff 	movq   $0x0,-0x388(%rbp)
   12e20:	00 00 00 00 
   12e24:	48 8d 05 f9 c5 00 00 	lea    0xc5f9(%rip),%rax        # 1f424 <g_246>
   12e2b:	48 89 85 80 fc ff ff 	mov    %rax,-0x380(%rbp)
   12e32:	48 c7 85 88 fc ff ff 	movq   $0x0,-0x378(%rbp)
   12e39:	00 00 00 00 
   12e3d:	48 8d 05 e0 c5 00 00 	lea    0xc5e0(%rip),%rax        # 1f424 <g_246>
   12e44:	48 89 85 90 fc ff ff 	mov    %rax,-0x370(%rbp)
   12e4b:	48 8d 05 d2 c5 00 00 	lea    0xc5d2(%rip),%rax        # 1f424 <g_246>
   12e52:	48 89 85 98 fc ff ff 	mov    %rax,-0x368(%rbp)
   12e59:	48 8d 05 c4 c5 00 00 	lea    0xc5c4(%rip),%rax        # 1f424 <g_246>
   12e60:	48 89 85 a0 fc ff ff 	mov    %rax,-0x360(%rbp)
   12e67:	48 c7 85 a8 fc ff ff 	movq   $0x0,-0x358(%rbp)
   12e6e:	00 00 00 00 
   12e72:	48 8d 05 ab c5 00 00 	lea    0xc5ab(%rip),%rax        # 1f424 <g_246>
   12e79:	48 89 85 b0 fc ff ff 	mov    %rax,-0x350(%rbp)
   12e80:	48 c7 85 b8 fc ff ff 	movq   $0x0,-0x348(%rbp)
   12e87:	00 00 00 00 
   12e8b:	48 8d 05 0e c6 00 00 	lea    0xc60e(%rip),%rax        # 1f4a0 <g_509>
   12e92:	48 89 85 c8 fb ff ff 	mov    %rax,-0x438(%rbp)
   12e99:	48 8d 85 c8 fb ff ff 	lea    -0x438(%rbp),%rax
   12ea0:	48 89 85 e8 fb ff ff 	mov    %rax,-0x418(%rbp)
   12ea7:	83 ad ac fb ff ff 01 	subl   $0x1,-0x454(%rbp)
   12eae:	0f b6 05 6b c5 00 00 	movzbl 0xc56b(%rip),%eax        # 1f420 <g_184>
   12eb5:	0f be c0             	movsbl %al,%eax
   12eb8:	48 98                	cltq   
   12eba:	48 8d 15 4f c5 00 00 	lea    0xc54f(%rip),%rdx        # 1f410 <g_148>
   12ec1:	0f b6 04 10          	movzbl (%rax,%rdx,1),%eax
   12ec5:	0f be d0             	movsbl %al,%edx
   12ec8:	48 8b 85 d0 fb ff ff 	mov    -0x430(%rbp),%rax
   12ecf:	89 10                	mov    %edx,(%rax)
   12ed1:	c7 85 a8 fb ff ff 06 	movl   $0x6,-0x458(%rbp)
   12ed8:	00 00 00 
   12edb:	e9 c6 08 00 00       	jmpq   137a6 <func_56+0xb2f>
   12ee0:	48 8d 05 4d c5 00 00 	lea    0xc54d(%rip),%rax        # 1f434 <g_275+0x4>
   12ee7:	48 89 85 c0 fc ff ff 	mov    %rax,-0x340(%rbp)
   12eee:	0f b6 05 2b c5 00 00 	movzbl 0xc52b(%rip),%eax        # 1f420 <g_184>
   12ef5:	0f be c0             	movsbl %al,%eax
   12ef8:	48 98                	cltq   
   12efa:	48 8d 15 0f c5 00 00 	lea    0xc50f(%rip),%rdx        # 1f410 <g_148>
   12f01:	48 01 d0             	add    %rdx,%rax
   12f04:	48 89 85 c8 fc ff ff 	mov    %rax,-0x338(%rbp)
   12f0b:	48 8d 05 22 c5 00 00 	lea    0xc522(%rip),%rax        # 1f434 <g_275+0x4>
   12f12:	48 89 85 d0 fc ff ff 	mov    %rax,-0x330(%rbp)
   12f19:	48 8d 05 14 c5 00 00 	lea    0xc514(%rip),%rax        # 1f434 <g_275+0x4>
   12f20:	48 89 85 d8 fc ff ff 	mov    %rax,-0x328(%rbp)
   12f27:	0f b6 05 f2 c4 00 00 	movzbl 0xc4f2(%rip),%eax        # 1f420 <g_184>
   12f2e:	0f be c0             	movsbl %al,%eax
   12f31:	48 98                	cltq   
   12f33:	48 8d 15 d6 c4 00 00 	lea    0xc4d6(%rip),%rdx        # 1f410 <g_148>
   12f3a:	48 01 d0             	add    %rdx,%rax
   12f3d:	48 89 85 e0 fc ff ff 	mov    %rax,-0x320(%rbp)
   12f44:	0f b6 05 d5 c4 00 00 	movzbl 0xc4d5(%rip),%eax        # 1f420 <g_184>
   12f4b:	0f be c0             	movsbl %al,%eax
   12f4e:	48 98                	cltq   
   12f50:	48 8d 15 b9 c4 00 00 	lea    0xc4b9(%rip),%rdx        # 1f410 <g_148>
   12f57:	48 01 d0             	add    %rdx,%rax
   12f5a:	48 89 85 e8 fc ff ff 	mov    %rax,-0x318(%rbp)
   12f61:	48 8d 05 cc c4 00 00 	lea    0xc4cc(%rip),%rax        # 1f434 <g_275+0x4>
   12f68:	48 89 85 f0 fc ff ff 	mov    %rax,-0x310(%rbp)
   12f6f:	48 8d 05 be c4 00 00 	lea    0xc4be(%rip),%rax        # 1f434 <g_275+0x4>
   12f76:	48 89 85 f8 fc ff ff 	mov    %rax,-0x308(%rbp)
   12f7d:	0f b6 05 9c c4 00 00 	movzbl 0xc49c(%rip),%eax        # 1f420 <g_184>
   12f84:	0f be c0             	movsbl %al,%eax
   12f87:	48 98                	cltq   
   12f89:	48 8d 15 80 c4 00 00 	lea    0xc480(%rip),%rdx        # 1f410 <g_148>
   12f90:	48 01 d0             	add    %rdx,%rax
   12f93:	48 89 85 00 fd ff ff 	mov    %rax,-0x300(%rbp)
   12f9a:	48 8d 05 93 c4 00 00 	lea    0xc493(%rip),%rax        # 1f434 <g_275+0x4>
   12fa1:	48 89 85 08 fd ff ff 	mov    %rax,-0x2f8(%rbp)
   12fa8:	0f b6 05 71 c4 00 00 	movzbl 0xc471(%rip),%eax        # 1f420 <g_184>
   12faf:	0f be c0             	movsbl %al,%eax
   12fb2:	48 98                	cltq   
   12fb4:	48 8d 15 55 c4 00 00 	lea    0xc455(%rip),%rdx        # 1f410 <g_148>
   12fbb:	48 01 d0             	add    %rdx,%rax
   12fbe:	48 89 85 10 fd ff ff 	mov    %rax,-0x2f0(%rbp)
   12fc5:	0f b6 05 54 c4 00 00 	movzbl 0xc454(%rip),%eax        # 1f420 <g_184>
   12fcc:	0f be c0             	movsbl %al,%eax
   12fcf:	48 98                	cltq   
   12fd1:	48 8d 15 38 c4 00 00 	lea    0xc438(%rip),%rdx        # 1f410 <g_148>
   12fd8:	48 01 d0             	add    %rdx,%rax
   12fdb:	48 89 85 18 fd ff ff 	mov    %rax,-0x2e8(%rbp)
   12fe2:	48 8d 05 4b c4 00 00 	lea    0xc44b(%rip),%rax        # 1f434 <g_275+0x4>
   12fe9:	48 89 85 20 fd ff ff 	mov    %rax,-0x2e0(%rbp)
   12ff0:	0f b6 05 29 c4 00 00 	movzbl 0xc429(%rip),%eax        # 1f420 <g_184>
   12ff7:	0f be c0             	movsbl %al,%eax
   12ffa:	48 98                	cltq   
   12ffc:	48 8d 15 0d c4 00 00 	lea    0xc40d(%rip),%rdx        # 1f410 <g_148>
   13003:	48 01 d0             	add    %rdx,%rax
   13006:	48 89 85 28 fd ff ff 	mov    %rax,-0x2d8(%rbp)
   1300d:	0f b6 05 0c c4 00 00 	movzbl 0xc40c(%rip),%eax        # 1f420 <g_184>
   13014:	0f be c0             	movsbl %al,%eax
   13017:	48 98                	cltq   
   13019:	48 8d 15 f0 c3 00 00 	lea    0xc3f0(%rip),%rdx        # 1f410 <g_148>
   13020:	48 01 d0             	add    %rdx,%rax
   13023:	48 89 85 30 fd ff ff 	mov    %rax,-0x2d0(%rbp)
   1302a:	48 8d 05 03 c4 00 00 	lea    0xc403(%rip),%rax        # 1f434 <g_275+0x4>
   13031:	48 89 85 38 fd ff ff 	mov    %rax,-0x2c8(%rbp)
   13038:	0f b6 05 e1 c3 00 00 	movzbl 0xc3e1(%rip),%eax        # 1f420 <g_184>
   1303f:	0f be c0             	movsbl %al,%eax
   13042:	48 98                	cltq   
   13044:	48 8d 15 c5 c3 00 00 	lea    0xc3c5(%rip),%rdx        # 1f410 <g_148>
   1304b:	48 01 d0             	add    %rdx,%rax
   1304e:	48 89 85 40 fd ff ff 	mov    %rax,-0x2c0(%rbp)
   13055:	48 8d 05 d8 c3 00 00 	lea    0xc3d8(%rip),%rax        # 1f434 <g_275+0x4>
   1305c:	48 89 85 48 fd ff ff 	mov    %rax,-0x2b8(%rbp)
   13063:	48 8d 05 ca c3 00 00 	lea    0xc3ca(%rip),%rax        # 1f434 <g_275+0x4>
   1306a:	48 89 85 50 fd ff ff 	mov    %rax,-0x2b0(%rbp)
   13071:	0f b6 05 a8 c3 00 00 	movzbl 0xc3a8(%rip),%eax        # 1f420 <g_184>
   13078:	0f be c0             	movsbl %al,%eax
   1307b:	48 98                	cltq   
   1307d:	48 8d 15 8c c3 00 00 	lea    0xc38c(%rip),%rdx        # 1f410 <g_148>
   13084:	48 01 d0             	add    %rdx,%rax
   13087:	48 89 85 58 fd ff ff 	mov    %rax,-0x2a8(%rbp)
   1308e:	0f b6 05 8b c3 00 00 	movzbl 0xc38b(%rip),%eax        # 1f420 <g_184>
   13095:	0f be c0             	movsbl %al,%eax
   13098:	48 98                	cltq   
   1309a:	48 8d 15 6f c3 00 00 	lea    0xc36f(%rip),%rdx        # 1f410 <g_148>
   130a1:	48 01 d0             	add    %rdx,%rax
   130a4:	48 89 85 60 fd ff ff 	mov    %rax,-0x2a0(%rbp)
   130ab:	48 8d 05 82 c3 00 00 	lea    0xc382(%rip),%rax        # 1f434 <g_275+0x4>
   130b2:	48 89 85 68 fd ff ff 	mov    %rax,-0x298(%rbp)
   130b9:	48 8d 05 74 c3 00 00 	lea    0xc374(%rip),%rax        # 1f434 <g_275+0x4>
   130c0:	48 89 85 70 fd ff ff 	mov    %rax,-0x290(%rbp)
   130c7:	0f b6 05 52 c3 00 00 	movzbl 0xc352(%rip),%eax        # 1f420 <g_184>
   130ce:	0f be c0             	movsbl %al,%eax
   130d1:	48 98                	cltq   
   130d3:	48 8d 15 36 c3 00 00 	lea    0xc336(%rip),%rdx        # 1f410 <g_148>
   130da:	48 01 d0             	add    %rdx,%rax
   130dd:	48 89 85 78 fd ff ff 	mov    %rax,-0x288(%rbp)
   130e4:	48 8d 05 49 c3 00 00 	lea    0xc349(%rip),%rax        # 1f434 <g_275+0x4>
   130eb:	48 89 85 80 fd ff ff 	mov    %rax,-0x280(%rbp)
   130f2:	0f b6 05 27 c3 00 00 	movzbl 0xc327(%rip),%eax        # 1f420 <g_184>
   130f9:	0f be c0             	movsbl %al,%eax
   130fc:	48 98                	cltq   
   130fe:	48 8d 15 0b c3 00 00 	lea    0xc30b(%rip),%rdx        # 1f410 <g_148>
   13105:	48 01 d0             	add    %rdx,%rax
   13108:	48 89 85 88 fd ff ff 	mov    %rax,-0x278(%rbp)
   1310f:	0f b6 05 0a c3 00 00 	movzbl 0xc30a(%rip),%eax        # 1f420 <g_184>
   13116:	0f be c0             	movsbl %al,%eax
   13119:	48 98                	cltq   
   1311b:	48 8d 15 ee c2 00 00 	lea    0xc2ee(%rip),%rdx        # 1f410 <g_148>
   13122:	48 01 d0             	add    %rdx,%rax
   13125:	48 89 85 90 fd ff ff 	mov    %rax,-0x270(%rbp)
   1312c:	48 8d 05 01 c3 00 00 	lea    0xc301(%rip),%rax        # 1f434 <g_275+0x4>
   13133:	48 89 85 98 fd ff ff 	mov    %rax,-0x268(%rbp)
   1313a:	0f b6 05 df c2 00 00 	movzbl 0xc2df(%rip),%eax        # 1f420 <g_184>
   13141:	0f be c0             	movsbl %al,%eax
   13144:	48 98                	cltq   
   13146:	48 8d 15 c3 c2 00 00 	lea    0xc2c3(%rip),%rdx        # 1f410 <g_148>
   1314d:	48 01 d0             	add    %rdx,%rax
   13150:	48 89 85 a0 fd ff ff 	mov    %rax,-0x260(%rbp)
   13157:	0f b6 05 c2 c2 00 00 	movzbl 0xc2c2(%rip),%eax        # 1f420 <g_184>
   1315e:	0f be c0             	movsbl %al,%eax
   13161:	48 98                	cltq   
   13163:	48 8d 15 a6 c2 00 00 	lea    0xc2a6(%rip),%rdx        # 1f410 <g_148>
   1316a:	48 01 d0             	add    %rdx,%rax
   1316d:	48 89 85 a8 fd ff ff 	mov    %rax,-0x258(%rbp)
   13174:	48 8d 05 b9 c2 00 00 	lea    0xc2b9(%rip),%rax        # 1f434 <g_275+0x4>
   1317b:	48 89 85 b0 fd ff ff 	mov    %rax,-0x250(%rbp)
   13182:	0f b6 05 97 c2 00 00 	movzbl 0xc297(%rip),%eax        # 1f420 <g_184>
   13189:	0f be c0             	movsbl %al,%eax
   1318c:	48 98                	cltq   
   1318e:	48 8d 15 7b c2 00 00 	lea    0xc27b(%rip),%rdx        # 1f410 <g_148>
   13195:	48 01 d0             	add    %rdx,%rax
   13198:	48 89 85 b8 fd ff ff 	mov    %rax,-0x248(%rbp)
   1319f:	48 8d 05 8e c2 00 00 	lea    0xc28e(%rip),%rax        # 1f434 <g_275+0x4>
   131a6:	48 89 85 c0 fd ff ff 	mov    %rax,-0x240(%rbp)
   131ad:	48 8d 05 80 c2 00 00 	lea    0xc280(%rip),%rax        # 1f434 <g_275+0x4>
   131b4:	48 89 85 c8 fd ff ff 	mov    %rax,-0x238(%rbp)
   131bb:	0f b6 05 5e c2 00 00 	movzbl 0xc25e(%rip),%eax        # 1f420 <g_184>
   131c2:	0f be c0             	movsbl %al,%eax
   131c5:	48 98                	cltq   
   131c7:	48 8d 15 42 c2 00 00 	lea    0xc242(%rip),%rdx        # 1f410 <g_148>
   131ce:	48 01 d0             	add    %rdx,%rax
   131d1:	48 89 85 d0 fd ff ff 	mov    %rax,-0x230(%rbp)
   131d8:	0f b6 05 41 c2 00 00 	movzbl 0xc241(%rip),%eax        # 1f420 <g_184>
   131df:	0f be c0             	movsbl %al,%eax
   131e2:	48 98                	cltq   
   131e4:	48 8d 15 25 c2 00 00 	lea    0xc225(%rip),%rdx        # 1f410 <g_148>
   131eb:	48 01 d0             	add    %rdx,%rax
   131ee:	48 89 85 d8 fd ff ff 	mov    %rax,-0x228(%rbp)
   131f5:	48 8d 05 38 c2 00 00 	lea    0xc238(%rip),%rax        # 1f434 <g_275+0x4>
   131fc:	48 89 85 e0 fd ff ff 	mov    %rax,-0x220(%rbp)
   13203:	48 8d 05 2a c2 00 00 	lea    0xc22a(%rip),%rax        # 1f434 <g_275+0x4>
   1320a:	48 89 85 e8 fd ff ff 	mov    %rax,-0x218(%rbp)
   13211:	0f b6 05 08 c2 00 00 	movzbl 0xc208(%rip),%eax        # 1f420 <g_184>
   13218:	0f be c0             	movsbl %al,%eax
   1321b:	48 98                	cltq   
   1321d:	48 8d 15 ec c1 00 00 	lea    0xc1ec(%rip),%rdx        # 1f410 <g_148>
   13224:	48 01 d0             	add    %rdx,%rax
   13227:	48 89 85 f0 fd ff ff 	mov    %rax,-0x210(%rbp)
   1322e:	48 8d 05 ff c1 00 00 	lea    0xc1ff(%rip),%rax        # 1f434 <g_275+0x4>
   13235:	48 89 85 f8 fd ff ff 	mov    %rax,-0x208(%rbp)
   1323c:	0f b6 05 dd c1 00 00 	movzbl 0xc1dd(%rip),%eax        # 1f420 <g_184>
   13243:	0f be c0             	movsbl %al,%eax
   13246:	48 98                	cltq   
   13248:	48 8d 15 c1 c1 00 00 	lea    0xc1c1(%rip),%rdx        # 1f410 <g_148>
   1324f:	48 01 d0             	add    %rdx,%rax
   13252:	48 89 85 00 fe ff ff 	mov    %rax,-0x200(%rbp)
   13259:	0f b6 05 c0 c1 00 00 	movzbl 0xc1c0(%rip),%eax        # 1f420 <g_184>
   13260:	0f be c0             	movsbl %al,%eax
   13263:	48 98                	cltq   
   13265:	48 8d 15 a4 c1 00 00 	lea    0xc1a4(%rip),%rdx        # 1f410 <g_148>
   1326c:	48 01 d0             	add    %rdx,%rax
   1326f:	48 89 85 08 fe ff ff 	mov    %rax,-0x1f8(%rbp)
   13276:	48 8d 05 b7 c1 00 00 	lea    0xc1b7(%rip),%rax        # 1f434 <g_275+0x4>
   1327d:	48 89 85 10 fe ff ff 	mov    %rax,-0x1f0(%rbp)
   13284:	0f b6 05 95 c1 00 00 	movzbl 0xc195(%rip),%eax        # 1f420 <g_184>
   1328b:	0f be c0             	movsbl %al,%eax
   1328e:	48 98                	cltq   
   13290:	48 8d 15 79 c1 00 00 	lea    0xc179(%rip),%rdx        # 1f410 <g_148>
   13297:	48 01 d0             	add    %rdx,%rax
   1329a:	48 89 85 18 fe ff ff 	mov    %rax,-0x1e8(%rbp)
   132a1:	0f b6 05 78 c1 00 00 	movzbl 0xc178(%rip),%eax        # 1f420 <g_184>
   132a8:	0f be c0             	movsbl %al,%eax
   132ab:	48 98                	cltq   
   132ad:	48 8d 15 5c c1 00 00 	lea    0xc15c(%rip),%rdx        # 1f410 <g_148>
   132b4:	48 01 d0             	add    %rdx,%rax
   132b7:	48 89 85 20 fe ff ff 	mov    %rax,-0x1e0(%rbp)
   132be:	48 8d 05 6f c1 00 00 	lea    0xc16f(%rip),%rax        # 1f434 <g_275+0x4>
   132c5:	48 89 85 28 fe ff ff 	mov    %rax,-0x1d8(%rbp)
   132cc:	0f b6 05 4d c1 00 00 	movzbl 0xc14d(%rip),%eax        # 1f420 <g_184>
   132d3:	0f be c0             	movsbl %al,%eax
   132d6:	48 98                	cltq   
   132d8:	48 8d 15 31 c1 00 00 	lea    0xc131(%rip),%rdx        # 1f410 <g_148>
   132df:	48 01 d0             	add    %rdx,%rax
   132e2:	48 89 85 30 fe ff ff 	mov    %rax,-0x1d0(%rbp)
   132e9:	48 8d 05 44 c1 00 00 	lea    0xc144(%rip),%rax        # 1f434 <g_275+0x4>
   132f0:	48 89 85 38 fe ff ff 	mov    %rax,-0x1c8(%rbp)
   132f7:	48 8d 05 36 c1 00 00 	lea    0xc136(%rip),%rax        # 1f434 <g_275+0x4>
   132fe:	48 89 85 40 fe ff ff 	mov    %rax,-0x1c0(%rbp)
   13305:	0f b6 05 14 c1 00 00 	movzbl 0xc114(%rip),%eax        # 1f420 <g_184>
   1330c:	0f be c0             	movsbl %al,%eax
   1330f:	48 98                	cltq   
   13311:	48 8d 15 f8 c0 00 00 	lea    0xc0f8(%rip),%rdx        # 1f410 <g_148>
   13318:	48 01 d0             	add    %rdx,%rax
   1331b:	48 89 85 48 fe ff ff 	mov    %rax,-0x1b8(%rbp)
   13322:	0f b6 05 f7 c0 00 00 	movzbl 0xc0f7(%rip),%eax        # 1f420 <g_184>
   13329:	0f be c0             	movsbl %al,%eax
   1332c:	48 98                	cltq   
   1332e:	48 8d 15 db c0 00 00 	lea    0xc0db(%rip),%rdx        # 1f410 <g_148>
   13335:	48 01 d0             	add    %rdx,%rax
   13338:	48 89 85 50 fe ff ff 	mov    %rax,-0x1b0(%rbp)
   1333f:	48 8d 05 ee c0 00 00 	lea    0xc0ee(%rip),%rax        # 1f434 <g_275+0x4>
   13346:	48 89 85 58 fe ff ff 	mov    %rax,-0x1a8(%rbp)
   1334d:	48 8d 05 e0 c0 00 00 	lea    0xc0e0(%rip),%rax        # 1f434 <g_275+0x4>
   13354:	48 89 85 60 fe ff ff 	mov    %rax,-0x1a0(%rbp)
   1335b:	0f b6 05 be c0 00 00 	movzbl 0xc0be(%rip),%eax        # 1f420 <g_184>
   13362:	0f be c0             	movsbl %al,%eax
   13365:	48 98                	cltq   
   13367:	48 8d 15 a2 c0 00 00 	lea    0xc0a2(%rip),%rdx        # 1f410 <g_148>
   1336e:	48 01 d0             	add    %rdx,%rax
   13371:	48 89 85 68 fe ff ff 	mov    %rax,-0x198(%rbp)
   13378:	48 8d 05 b5 c0 00 00 	lea    0xc0b5(%rip),%rax        # 1f434 <g_275+0x4>
   1337f:	48 89 85 70 fe ff ff 	mov    %rax,-0x190(%rbp)
   13386:	0f b6 05 93 c0 00 00 	movzbl 0xc093(%rip),%eax        # 1f420 <g_184>
   1338d:	0f be c0             	movsbl %al,%eax
   13390:	48 98                	cltq   
   13392:	48 8d 15 77 c0 00 00 	lea    0xc077(%rip),%rdx        # 1f410 <g_148>
   13399:	48 01 d0             	add    %rdx,%rax
   1339c:	48 89 85 78 fe ff ff 	mov    %rax,-0x188(%rbp)
   133a3:	0f b6 05 76 c0 00 00 	movzbl 0xc076(%rip),%eax        # 1f420 <g_184>
   133aa:	0f be c0             	movsbl %al,%eax
   133ad:	48 98                	cltq   
   133af:	48 8d 15 5a c0 00 00 	lea    0xc05a(%rip),%rdx        # 1f410 <g_148>
   133b6:	48 01 d0             	add    %rdx,%rax
   133b9:	48 89 85 80 fe ff ff 	mov    %rax,-0x180(%rbp)
   133c0:	48 8d 05 6d c0 00 00 	lea    0xc06d(%rip),%rax        # 1f434 <g_275+0x4>
   133c7:	48 89 85 88 fe ff ff 	mov    %rax,-0x178(%rbp)
   133ce:	0f b6 05 4b c0 00 00 	movzbl 0xc04b(%rip),%eax        # 1f420 <g_184>
   133d5:	0f be c0             	movsbl %al,%eax
   133d8:	48 98                	cltq   
   133da:	48 8d 15 2f c0 00 00 	lea    0xc02f(%rip),%rdx        # 1f410 <g_148>
   133e1:	48 01 d0             	add    %rdx,%rax
   133e4:	48 89 85 90 fe ff ff 	mov    %rax,-0x170(%rbp)
   133eb:	0f b6 05 2e c0 00 00 	movzbl 0xc02e(%rip),%eax        # 1f420 <g_184>
   133f2:	0f be c0             	movsbl %al,%eax
   133f5:	48 98                	cltq   
   133f7:	48 8d 15 12 c0 00 00 	lea    0xc012(%rip),%rdx        # 1f410 <g_148>
   133fe:	48 01 d0             	add    %rdx,%rax
   13401:	48 89 85 98 fe ff ff 	mov    %rax,-0x168(%rbp)
   13408:	48 8d 05 25 c0 00 00 	lea    0xc025(%rip),%rax        # 1f434 <g_275+0x4>
   1340f:	48 89 85 a0 fe ff ff 	mov    %rax,-0x160(%rbp)
   13416:	0f b6 05 03 c0 00 00 	movzbl 0xc003(%rip),%eax        # 1f420 <g_184>
   1341d:	0f be c0             	movsbl %al,%eax
   13420:	48 98                	cltq   
   13422:	48 8d 15 e7 bf 00 00 	lea    0xbfe7(%rip),%rdx        # 1f410 <g_148>
   13429:	48 01 d0             	add    %rdx,%rax
   1342c:	48 89 85 a8 fe ff ff 	mov    %rax,-0x158(%rbp)
   13433:	48 8d 05 fa bf 00 00 	lea    0xbffa(%rip),%rax        # 1f434 <g_275+0x4>
   1343a:	48 89 85 b0 fe ff ff 	mov    %rax,-0x150(%rbp)
   13441:	48 8d 05 ec bf 00 00 	lea    0xbfec(%rip),%rax        # 1f434 <g_275+0x4>
   13448:	48 89 85 b8 fe ff ff 	mov    %rax,-0x148(%rbp)
   1344f:	0f b6 05 ca bf 00 00 	movzbl 0xbfca(%rip),%eax        # 1f420 <g_184>
   13456:	0f be c0             	movsbl %al,%eax
   13459:	48 98                	cltq   
   1345b:	48 8d 15 ae bf 00 00 	lea    0xbfae(%rip),%rdx        # 1f410 <g_148>
   13462:	48 01 d0             	add    %rdx,%rax
   13465:	48 89 85 c0 fe ff ff 	mov    %rax,-0x140(%rbp)
   1346c:	0f b6 05 ad bf 00 00 	movzbl 0xbfad(%rip),%eax        # 1f420 <g_184>
   13473:	0f be c0             	movsbl %al,%eax
   13476:	48 98                	cltq   
   13478:	48 8d 15 91 bf 00 00 	lea    0xbf91(%rip),%rdx        # 1f410 <g_148>
   1347f:	48 01 d0             	add    %rdx,%rax
   13482:	48 89 85 c8 fe ff ff 	mov    %rax,-0x138(%rbp)
   13489:	48 8d 05 a4 bf 00 00 	lea    0xbfa4(%rip),%rax        # 1f434 <g_275+0x4>
   13490:	48 89 85 d0 fe ff ff 	mov    %rax,-0x130(%rbp)
   13497:	48 8d 05 96 bf 00 00 	lea    0xbf96(%rip),%rax        # 1f434 <g_275+0x4>
   1349e:	48 89 85 d8 fe ff ff 	mov    %rax,-0x128(%rbp)
   134a5:	0f b6 05 74 bf 00 00 	movzbl 0xbf74(%rip),%eax        # 1f420 <g_184>
   134ac:	0f be c0             	movsbl %al,%eax
   134af:	48 98                	cltq   
   134b1:	48 8d 15 58 bf 00 00 	lea    0xbf58(%rip),%rdx        # 1f410 <g_148>
   134b8:	48 01 d0             	add    %rdx,%rax
   134bb:	48 89 85 e0 fe ff ff 	mov    %rax,-0x120(%rbp)
   134c2:	48 8d 05 6b bf 00 00 	lea    0xbf6b(%rip),%rax        # 1f434 <g_275+0x4>
   134c9:	48 89 85 e8 fe ff ff 	mov    %rax,-0x118(%rbp)
   134d0:	0f b6 05 49 bf 00 00 	movzbl 0xbf49(%rip),%eax        # 1f420 <g_184>
   134d7:	0f be c0             	movsbl %al,%eax
   134da:	48 98                	cltq   
   134dc:	48 8d 15 2d bf 00 00 	lea    0xbf2d(%rip),%rdx        # 1f410 <g_148>
   134e3:	48 01 d0             	add    %rdx,%rax
   134e6:	48 89 85 f0 fe ff ff 	mov    %rax,-0x110(%rbp)
   134ed:	0f b6 05 2c bf 00 00 	movzbl 0xbf2c(%rip),%eax        # 1f420 <g_184>
   134f4:	0f be c0             	movsbl %al,%eax
   134f7:	48 98                	cltq   
   134f9:	48 8d 15 10 bf 00 00 	lea    0xbf10(%rip),%rdx        # 1f410 <g_148>
   13500:	48 01 d0             	add    %rdx,%rax
   13503:	48 89 85 f8 fe ff ff 	mov    %rax,-0x108(%rbp)
   1350a:	48 8d 05 23 bf 00 00 	lea    0xbf23(%rip),%rax        # 1f434 <g_275+0x4>
   13511:	48 89 85 00 ff ff ff 	mov    %rax,-0x100(%rbp)
   13518:	0f b6 05 01 bf 00 00 	movzbl 0xbf01(%rip),%eax        # 1f420 <g_184>
   1351f:	0f be c0             	movsbl %al,%eax
   13522:	48 98                	cltq   
   13524:	48 8d 15 e5 be 00 00 	lea    0xbee5(%rip),%rdx        # 1f410 <g_148>
   1352b:	48 01 d0             	add    %rdx,%rax
   1352e:	48 89 85 08 ff ff ff 	mov    %rax,-0xf8(%rbp)
   13535:	0f b6 05 e4 be 00 00 	movzbl 0xbee4(%rip),%eax        # 1f420 <g_184>
   1353c:	0f be c0             	movsbl %al,%eax
   1353f:	48 98                	cltq   
   13541:	48 8d 15 c8 be 00 00 	lea    0xbec8(%rip),%rdx        # 1f410 <g_148>
   13548:	48 01 d0             	add    %rdx,%rax
   1354b:	48 89 85 10 ff ff ff 	mov    %rax,-0xf0(%rbp)
   13552:	48 8d 05 db be 00 00 	lea    0xbedb(%rip),%rax        # 1f434 <g_275+0x4>
   13559:	48 89 85 18 ff ff ff 	mov    %rax,-0xe8(%rbp)
   13560:	0f b6 05 b9 be 00 00 	movzbl 0xbeb9(%rip),%eax        # 1f420 <g_184>
   13567:	0f be c0             	movsbl %al,%eax
   1356a:	48 98                	cltq   
   1356c:	48 8d 15 9d be 00 00 	lea    0xbe9d(%rip),%rdx        # 1f410 <g_148>
   13573:	48 01 d0             	add    %rdx,%rax
   13576:	48 89 85 20 ff ff ff 	mov    %rax,-0xe0(%rbp)
   1357d:	48 8d 05 b0 be 00 00 	lea    0xbeb0(%rip),%rax        # 1f434 <g_275+0x4>
   13584:	48 89 85 28 ff ff ff 	mov    %rax,-0xd8(%rbp)
   1358b:	48 8d 05 a2 be 00 00 	lea    0xbea2(%rip),%rax        # 1f434 <g_275+0x4>
   13592:	48 89 85 30 ff ff ff 	mov    %rax,-0xd0(%rbp)
   13599:	0f b6 05 80 be 00 00 	movzbl 0xbe80(%rip),%eax        # 1f420 <g_184>
   135a0:	0f be c0             	movsbl %al,%eax
   135a3:	48 98                	cltq   
   135a5:	48 8d 15 64 be 00 00 	lea    0xbe64(%rip),%rdx        # 1f410 <g_148>
   135ac:	48 01 d0             	add    %rdx,%rax
   135af:	48 89 85 38 ff ff ff 	mov    %rax,-0xc8(%rbp)
   135b6:	0f b6 05 63 be 00 00 	movzbl 0xbe63(%rip),%eax        # 1f420 <g_184>
   135bd:	0f be c0             	movsbl %al,%eax
   135c0:	48 98                	cltq   
   135c2:	48 8d 15 47 be 00 00 	lea    0xbe47(%rip),%rdx        # 1f410 <g_148>
   135c9:	48 01 d0             	add    %rdx,%rax
   135cc:	48 89 85 40 ff ff ff 	mov    %rax,-0xc0(%rbp)
   135d3:	48 8d 05 5a be 00 00 	lea    0xbe5a(%rip),%rax        # 1f434 <g_275+0x4>
   135da:	48 89 85 48 ff ff ff 	mov    %rax,-0xb8(%rbp)
   135e1:	48 8d 05 4c be 00 00 	lea    0xbe4c(%rip),%rax        # 1f434 <g_275+0x4>
   135e8:	48 89 85 50 ff ff ff 	mov    %rax,-0xb0(%rbp)
   135ef:	48 8d 05 3e be 00 00 	lea    0xbe3e(%rip),%rax        # 1f434 <g_275+0x4>
   135f6:	48 89 85 58 ff ff ff 	mov    %rax,-0xa8(%rbp)
   135fd:	48 8d 05 30 be 00 00 	lea    0xbe30(%rip),%rax        # 1f434 <g_275+0x4>
   13604:	48 89 85 60 ff ff ff 	mov    %rax,-0xa0(%rbp)
   1360b:	48 8d 05 22 be 00 00 	lea    0xbe22(%rip),%rax        # 1f434 <g_275+0x4>
   13612:	48 89 85 68 ff ff ff 	mov    %rax,-0x98(%rbp)
   13619:	48 8d 05 14 be 00 00 	lea    0xbe14(%rip),%rax        # 1f434 <g_275+0x4>
   13620:	48 89 85 70 ff ff ff 	mov    %rax,-0x90(%rbp)
   13627:	0f b6 05 f2 bd 00 00 	movzbl 0xbdf2(%rip),%eax        # 1f420 <g_184>
   1362e:	0f be c0             	movsbl %al,%eax
   13631:	48 98                	cltq   
   13633:	48 8d 15 d6 bd 00 00 	lea    0xbdd6(%rip),%rdx        # 1f410 <g_148>
   1363a:	48 01 d0             	add    %rdx,%rax
   1363d:	48 89 85 78 ff ff ff 	mov    %rax,-0x88(%rbp)
   13644:	48 8d 05 e9 bd 00 00 	lea    0xbde9(%rip),%rax        # 1f434 <g_275+0x4>
   1364b:	48 89 45 80          	mov    %rax,-0x80(%rbp)
   1364f:	48 8d 05 de bd 00 00 	lea    0xbdde(%rip),%rax        # 1f434 <g_275+0x4>
   13656:	48 89 45 88          	mov    %rax,-0x78(%rbp)
   1365a:	48 8d 05 d3 bd 00 00 	lea    0xbdd3(%rip),%rax        # 1f434 <g_275+0x4>
   13661:	48 89 45 90          	mov    %rax,-0x70(%rbp)
   13665:	48 8d 05 c8 bd 00 00 	lea    0xbdc8(%rip),%rax        # 1f434 <g_275+0x4>
   1366c:	48 89 45 98          	mov    %rax,-0x68(%rbp)
   13670:	48 8d 05 bd bd 00 00 	lea    0xbdbd(%rip),%rax        # 1f434 <g_275+0x4>
   13677:	48 89 45 a0          	mov    %rax,-0x60(%rbp)
   1367b:	48 8d 05 b2 bd 00 00 	lea    0xbdb2(%rip),%rax        # 1f434 <g_275+0x4>
   13682:	48 89 45 a8          	mov    %rax,-0x58(%rbp)
   13686:	48 8d 05 a7 bd 00 00 	lea    0xbda7(%rip),%rax        # 1f434 <g_275+0x4>
   1368d:	48 89 45 b0          	mov    %rax,-0x50(%rbp)
   13691:	48 8d 05 9c bd 00 00 	lea    0xbd9c(%rip),%rax        # 1f434 <g_275+0x4>
   13698:	48 89 45 b8          	mov    %rax,-0x48(%rbp)
   1369c:	48 8d 05 91 bd 00 00 	lea    0xbd91(%rip),%rax        # 1f434 <g_275+0x4>
   136a3:	48 89 45 c0          	mov    %rax,-0x40(%rbp)
   136a7:	48 8d 05 86 bd 00 00 	lea    0xbd86(%rip),%rax        # 1f434 <g_275+0x4>
   136ae:	48 89 45 c8          	mov    %rax,-0x38(%rbp)
   136b2:	48 8d 05 7b bd 00 00 	lea    0xbd7b(%rip),%rax        # 1f434 <g_275+0x4>
   136b9:	48 89 45 d0          	mov    %rax,-0x30(%rbp)
   136bd:	48 8d 05 70 bd 00 00 	lea    0xbd70(%rip),%rax        # 1f434 <g_275+0x4>
   136c4:	48 89 45 d8          	mov    %rax,-0x28(%rbp)
   136c8:	c7 85 b0 fb ff ff 00 	movl   $0x0,-0x450(%rbp)
   136cf:	00 00 00 
   136d2:	eb 1e                	jmp    136f2 <func_56+0xa7b>
   136d4:	8b 85 b0 fb ff ff    	mov    -0x450(%rbp),%eax
   136da:	48 98                	cltq   
   136dc:	48 8d 95 c8 fb ff ff 	lea    -0x438(%rbp),%rdx
   136e3:	48 89 94 c5 f0 fb ff 	mov    %rdx,-0x410(%rbp,%rax,8)
   136ea:	ff 
   136eb:	83 85 b0 fb ff ff 01 	addl   $0x1,-0x450(%rbp)
   136f2:	83 bd b0 fb ff ff 01 	cmpl   $0x1,-0x450(%rbp)
   136f9:	7e d9                	jle    136d4 <func_56+0xa5d>
   136fb:	48 8b 85 d0 fb ff ff 	mov    -0x430(%rbp),%rax
   13702:	c7 00 f8 ff ff ff    	movl   $0xfffffff8,(%rax)
   13708:	0f b6 05 11 bd 00 00 	movzbl 0xbd11(%rip),%eax        # 1f420 <g_184>
   1370f:	0f be c0             	movsbl %al,%eax
   13712:	48 98                	cltq   
   13714:	48 8d 15 f5 bc 00 00 	lea    0xbcf5(%rip),%rdx        # 1f410 <g_148>
   1371b:	0f b6 04 10          	movzbl (%rax,%rdx,1),%eax
   1371f:	0f be d0             	movsbl %al,%edx
   13722:	48 83 bd e8 fb ff ff 	cmpq   $0x0,-0x418(%rbp)
   13729:	00 
   1372a:	0f 94 c0             	sete   %al
   1372d:	0f b6 c0             	movzbl %al,%eax
   13730:	39 c2                	cmp    %eax,%edx
   13732:	0f 95 c0             	setne  %al
   13735:	0f b6 d0             	movzbl %al,%edx
   13738:	48 8b 85 f8 fb ff ff 	mov    -0x408(%rbp),%rax
   1373f:	48 39 85 e0 fb ff ff 	cmp    %rax,-0x420(%rbp)
   13746:	0f 94 c0             	sete   %al
   13749:	0f b6 c0             	movzbl %al,%eax
   1374c:	39 c2                	cmp    %eax,%edx
   1374e:	0f 9f c0             	setg   %al
   13751:	0f b6 d8             	movzbl %al,%ebx
   13754:	be 0c 38 00 00       	mov    $0x380c,%esi
   13759:	bf 42 86 ff ff       	mov    $0xffff8642,%edi
   1375e:	e8 92 5c ff ff       	callq  93f5 <safe_mul_func_int16_t_s_s>
   13763:	48 0f bf c0          	movswq %ax,%rax
   13767:	48 39 85 d8 fb ff ff 	cmp    %rax,-0x428(%rbp)
   1376e:	0f 94 c0             	sete   %al
   13771:	0f b6 c0             	movzbl %al,%eax
   13774:	39 c3                	cmp    %eax,%ebx
   13776:	0f 9f c0             	setg   %al
   13779:	0f b6 c0             	movzbl %al,%eax
   1377c:	89 c6                	mov    %eax,%esi
   1377e:	bf ff 00 00 00       	mov    $0xff,%edi
   13783:	e8 d2 63 ff ff       	callq  9b5a <safe_add_func_uint8_t_u_u>
   13788:	48 8b 95 d0 fb ff ff 	mov    -0x430(%rbp),%rdx
   1378f:	8b 12                	mov    (%rdx),%edx
   13791:	0f b6 c0             	movzbl %al,%eax
   13794:	09 c2                	or     %eax,%edx
   13796:	48 8b 85 d0 fb ff ff 	mov    -0x430(%rbp),%rax
   1379d:	89 10                	mov    %edx,(%rax)
   1379f:	83 ad a8 fb ff ff 01 	subl   $0x1,-0x458(%rbp)
   137a6:	83 bd a8 fb ff ff 00 	cmpl   $0x0,-0x458(%rbp)
   137ad:	0f 89 2d f7 ff ff    	jns    12ee0 <func_56+0x269>
   137b3:	0f b6 05 66 bc 00 00 	movzbl 0xbc66(%rip),%eax        # 1f420 <g_184>
   137ba:	83 e8 01             	sub    $0x1,%eax
   137bd:	88 05 5d bc 00 00    	mov    %al,0xbc5d(%rip)        # 1f420 <g_184>
   137c3:	0f b6 05 56 bc 00 00 	movzbl 0xbc56(%rip),%eax        # 1f420 <g_184>
   137ca:	84 c0                	test   %al,%al
   137cc:	0f 89 81 f5 ff ff    	jns    12d53 <func_56+0xdc>
   137d2:	83 bd 98 fb ff ff 00 	cmpl   $0x0,-0x468(%rbp)
   137d9:	75 3c                	jne    13817 <func_56+0xba0>
   137db:	8b 05 43 bc 00 00    	mov    0xbc43(%rip),%eax        # 1f424 <g_246>
   137e1:	85 c0                	test   %eax,%eax
   137e3:	74 05                	je     137ea <func_56+0xb73>
   137e5:	e9 06 f5 ff ff       	jmpq   12cf0 <func_56+0x79>
   137ea:	0f b6 05 28 bc 00 00 	movzbl 0xbc28(%rip),%eax        # 1f419 <g_167>
   137f1:	0f b6 c0             	movzbl %al,%eax
   137f4:	be 06 00 00 00       	mov    $0x6,%esi
   137f9:	89 c7                	mov    %eax,%edi
   137fb:	e8 b3 5b ff ff       	callq  93b3 <safe_add_func_int16_t_s_s>
   13800:	88 05 13 bc 00 00    	mov    %al,0xbc13(%rip)        # 1f419 <g_167>
   13806:	0f b6 05 0c bc 00 00 	movzbl 0xbc0c(%rip),%eax        # 1f419 <g_167>
   1380d:	3c 1e                	cmp    $0x1e,%al
   1380f:	0f 86 fe f4 ff ff    	jbe    12d13 <func_56+0x9c>
   13815:	eb 01                	jmp    13818 <func_56+0xba1>
   13817:	90                   	nop
   13818:	8b 85 b8 fb ff ff    	mov    -0x448(%rbp),%eax
   1381e:	48 8b 4d e8          	mov    -0x18(%rbp),%rcx
   13822:	64 48 33 0c 25 28 00 	xor    %fs:0x28,%rcx
   13829:	00 00 
   1382b:	74 05                	je     13832 <func_56+0xbbb>
   1382d:	e8 3e 58 ff ff       	callq  9070 <__stack_chk_fail@plt>
   13832:	48 81 c4 78 04 00 00 	add    $0x478,%rsp
   13839:	5b                   	pop    %rbx
   1383a:	5d                   	pop    %rbp
   1383b:	c3                   	retq   

000000000001383c <func_64>:
   1383c:	f3 0f 1e fa          	endbr64 
   13840:	55                   	push   %rbp
   13841:	48 89 e5             	mov    %rsp,%rbp
   13844:	41 57                	push   %r15
   13846:	41 56                	push   %r14
   13848:	41 55                	push   %r13
   1384a:	41 54                	push   %r12
   1384c:	53                   	push   %rbx
   1384d:	48 81 ec 00 10 00 00 	sub    $0x1000,%rsp
   13854:	48 83 0c 24 00       	orq    $0x0,(%rsp)
   13859:	48 81 ec 00 10 00 00 	sub    $0x1000,%rsp
   13860:	48 83 0c 24 00       	orq    $0x0,(%rsp)
   13865:	48 81 ec 38 06 00 00 	sub    $0x638,%rsp
   1386c:	89 bd ac d9 ff ff    	mov    %edi,-0x2654(%rbp)
   13872:	64 48 8b 04 25 28 00 	mov    %fs:0x28,%rax
   13879:	00 00 
   1387b:	48 89 45 c8          	mov    %rax,-0x38(%rbp)
   1387f:	31 c0                	xor    %eax,%eax
   13881:	c7 85 dc d9 ff ff 01 	movl   $0x1,-0x2624(%rbp)
   13888:	00 00 00 
   1388b:	48 8d 05 70 bb 00 00 	lea    0xbb70(%rip),%rax        # 1f402 <g_109>
   13892:	48 89 85 00 df ff ff 	mov    %rax,-0x2100(%rbp)
   13899:	48 8d 05 62 bb 00 00 	lea    0xbb62(%rip),%rax        # 1f402 <g_109>
   138a0:	48 89 85 08 df ff ff 	mov    %rax,-0x20f8(%rbp)
   138a7:	48 8d 05 54 bb 00 00 	lea    0xbb54(%rip),%rax        # 1f402 <g_109>
   138ae:	48 89 85 10 df ff ff 	mov    %rax,-0x20f0(%rbp)
   138b5:	48 8d 05 46 bb 00 00 	lea    0xbb46(%rip),%rax        # 1f402 <g_109>
   138bc:	48 89 85 18 df ff ff 	mov    %rax,-0x20e8(%rbp)
   138c3:	48 8d 05 38 bb 00 00 	lea    0xbb38(%rip),%rax        # 1f402 <g_109>
   138ca:	48 89 85 20 df ff ff 	mov    %rax,-0x20e0(%rbp)
   138d1:	48 8d 05 2a bb 00 00 	lea    0xbb2a(%rip),%rax        # 1f402 <g_109>
   138d8:	48 89 85 28 df ff ff 	mov    %rax,-0x20d8(%rbp)
   138df:	48 8d 05 1c bb 00 00 	lea    0xbb1c(%rip),%rax        # 1f402 <g_109>
   138e6:	48 89 85 30 df ff ff 	mov    %rax,-0x20d0(%rbp)
   138ed:	48 8d 05 0e bb 00 00 	lea    0xbb0e(%rip),%rax        # 1f402 <g_109>
   138f4:	48 89 85 38 df ff ff 	mov    %rax,-0x20c8(%rbp)
   138fb:	48 8d 05 00 bb 00 00 	lea    0xbb00(%rip),%rax        # 1f402 <g_109>
   13902:	48 89 85 40 df ff ff 	mov    %rax,-0x20c0(%rbp)
   13909:	48 8d 05 f2 ba 00 00 	lea    0xbaf2(%rip),%rax        # 1f402 <g_109>
   13910:	48 89 85 48 df ff ff 	mov    %rax,-0x20b8(%rbp)
   13917:	48 8d 05 e4 ba 00 00 	lea    0xbae4(%rip),%rax        # 1f402 <g_109>
   1391e:	48 89 85 50 df ff ff 	mov    %rax,-0x20b0(%rbp)
   13925:	48 8d 05 d6 ba 00 00 	lea    0xbad6(%rip),%rax        # 1f402 <g_109>
   1392c:	48 89 85 58 df ff ff 	mov    %rax,-0x20a8(%rbp)
   13933:	48 8d 05 c8 ba 00 00 	lea    0xbac8(%rip),%rax        # 1f402 <g_109>
   1393a:	48 89 85 60 df ff ff 	mov    %rax,-0x20a0(%rbp)
   13941:	48 8d 05 ba ba 00 00 	lea    0xbaba(%rip),%rax        # 1f402 <g_109>
   13948:	48 89 85 68 df ff ff 	mov    %rax,-0x2098(%rbp)
   1394f:	48 8d 05 ac ba 00 00 	lea    0xbaac(%rip),%rax        # 1f402 <g_109>
   13956:	48 89 85 70 df ff ff 	mov    %rax,-0x2090(%rbp)
   1395d:	48 8d 05 9e ba 00 00 	lea    0xba9e(%rip),%rax        # 1f402 <g_109>
   13964:	48 89 85 78 df ff ff 	mov    %rax,-0x2088(%rbp)
   1396b:	48 8d 85 00 e2 ff ff 	lea    -0x1e00(%rbp),%rax
   13972:	48 8d 15 67 dd 00 00 	lea    0xdd67(%rip),%rdx        # 216e0 <g_1964+0x1e40>
   13979:	b9 5a 00 00 00       	mov    $0x5a,%ecx
   1397e:	48 89 c7             	mov    %rax,%rdi
   13981:	48 89 d6             	mov    %rdx,%rsi
   13984:	f3 48 a5             	rep movsq %ds:(%rsi),%es:(%rdi)
   13987:	48 8d 05 76 ba 00 00 	lea    0xba76(%rip),%rax        # 1f404 <g_113>
   1398e:	48 89 85 a8 da ff ff 	mov    %rax,-0x2558(%rbp)
   13995:	c7 85 cc d9 ff ff f8 	movl   $0xfffffff8,-0x2634(%rbp)
   1399c:	ff ff ff 
   1399f:	48 8d 85 d0 e4 ff ff 	lea    -0x1b30(%rbp),%rax
   139a6:	48 8d 15 b3 76 00 00 	lea    0x76b3(%rip),%rdx        # 1b060 <g_1819+0xf80>
   139ad:	b9 7e 00 00 00       	mov    $0x7e,%ecx
   139b2:	48 89 c7             	mov    %rax,%rdi
   139b5:	48 89 d6             	mov    %rdx,%rsi
   139b8:	f3 48 a5             	rep movsq %ds:(%rsi),%es:(%rdi)
   139bb:	48 8d 05 6e e3 00 00 	lea    0xe36e(%rip),%rax        # 21d30 <g_200>
   139c2:	48 89 85 c0 da ff ff 	mov    %rax,-0x2540(%rbp)
   139c9:	c7 85 10 dd ff ff f6 	movl   $0xfffffff6,-0x22f0(%rbp)
   139d0:	ff ff ff 
   139d3:	c7 85 14 dd ff ff f6 	movl   $0xfffffff6,-0x22ec(%rbp)
   139da:	ff ff ff 
   139dd:	c7 85 18 dd ff ff f6 	movl   $0xfffffff6,-0x22e8(%rbp)
   139e4:	ff ff ff 
   139e7:	c7 85 1c dd ff ff f6 	movl   $0xfffffff6,-0x22e4(%rbp)
   139ee:	ff ff ff 
   139f1:	c7 85 d0 d9 ff ff fe 	movl   $0xfffffffe,-0x2630(%rbp)
   139f8:	ff ff ff 
   139fb:	48 8d 05 20 ba 00 00 	lea    0xba20(%rip),%rax        # 1f422 <g_194>
   13a02:	48 89 85 80 df ff ff 	mov    %rax,-0x2080(%rbp)
   13a09:	48 8d 05 12 ba 00 00 	lea    0xba12(%rip),%rax        # 1f422 <g_194>
   13a10:	48 89 85 88 df ff ff 	mov    %rax,-0x2078(%rbp)
   13a17:	48 8d 05 04 ba 00 00 	lea    0xba04(%rip),%rax        # 1f422 <g_194>
   13a1e:	48 89 85 90 df ff ff 	mov    %rax,-0x2070(%rbp)
   13a25:	48 8d 05 f6 b9 00 00 	lea    0xb9f6(%rip),%rax        # 1f422 <g_194>
   13a2c:	48 89 85 98 df ff ff 	mov    %rax,-0x2068(%rbp)
   13a33:	48 8d 05 e8 b9 00 00 	lea    0xb9e8(%rip),%rax        # 1f422 <g_194>
   13a3a:	48 89 85 a0 df ff ff 	mov    %rax,-0x2060(%rbp)
   13a41:	48 8d 05 da b9 00 00 	lea    0xb9da(%rip),%rax        # 1f422 <g_194>
   13a48:	48 89 85 a8 df ff ff 	mov    %rax,-0x2058(%rbp)
   13a4f:	48 8d 05 cc b9 00 00 	lea    0xb9cc(%rip),%rax        # 1f422 <g_194>
   13a56:	48 89 85 b0 df ff ff 	mov    %rax,-0x2050(%rbp)
   13a5d:	48 8d 05 be b9 00 00 	lea    0xb9be(%rip),%rax        # 1f422 <g_194>
   13a64:	48 89 85 b8 df ff ff 	mov    %rax,-0x2048(%rbp)
   13a6b:	48 8d 05 b0 b9 00 00 	lea    0xb9b0(%rip),%rax        # 1f422 <g_194>
   13a72:	48 89 85 c0 df ff ff 	mov    %rax,-0x2040(%rbp)
   13a79:	48 8d 05 a2 b9 00 00 	lea    0xb9a2(%rip),%rax        # 1f422 <g_194>
   13a80:	48 89 85 c8 df ff ff 	mov    %rax,-0x2038(%rbp)
   13a87:	48 8d 05 94 b9 00 00 	lea    0xb994(%rip),%rax        # 1f422 <g_194>
   13a8e:	48 89 85 d0 df ff ff 	mov    %rax,-0x2030(%rbp)
   13a95:	48 8d 05 86 b9 00 00 	lea    0xb986(%rip),%rax        # 1f422 <g_194>
   13a9c:	48 89 85 d8 df ff ff 	mov    %rax,-0x2028(%rbp)
   13aa3:	48 8d 05 78 b9 00 00 	lea    0xb978(%rip),%rax        # 1f422 <g_194>
   13aaa:	48 89 85 e0 df ff ff 	mov    %rax,-0x2020(%rbp)
   13ab1:	48 8d 05 6a b9 00 00 	lea    0xb96a(%rip),%rax        # 1f422 <g_194>
   13ab8:	48 89 85 e8 df ff ff 	mov    %rax,-0x2018(%rbp)
   13abf:	48 8d 05 5c b9 00 00 	lea    0xb95c(%rip),%rax        # 1f422 <g_194>
   13ac6:	48 89 85 f0 df ff ff 	mov    %rax,-0x2010(%rbp)
   13acd:	48 8d 05 4e b9 00 00 	lea    0xb94e(%rip),%rax        # 1f422 <g_194>
   13ad4:	48 89 85 f8 df ff ff 	mov    %rax,-0x2008(%rbp)
   13adb:	48 8d 05 40 b9 00 00 	lea    0xb940(%rip),%rax        # 1f422 <g_194>
   13ae2:	48 89 85 00 e0 ff ff 	mov    %rax,-0x2000(%rbp)
   13ae9:	48 8d 05 32 b9 00 00 	lea    0xb932(%rip),%rax        # 1f422 <g_194>
   13af0:	48 89 85 08 e0 ff ff 	mov    %rax,-0x1ff8(%rbp)
   13af7:	48 8d 05 24 b9 00 00 	lea    0xb924(%rip),%rax        # 1f422 <g_194>
   13afe:	48 89 85 10 e0 ff ff 	mov    %rax,-0x1ff0(%rbp)
   13b05:	48 8d 05 16 b9 00 00 	lea    0xb916(%rip),%rax        # 1f422 <g_194>
   13b0c:	48 89 85 18 e0 ff ff 	mov    %rax,-0x1fe8(%rbp)
   13b13:	48 8d 05 08 b9 00 00 	lea    0xb908(%rip),%rax        # 1f422 <g_194>
   13b1a:	48 89 85 20 e0 ff ff 	mov    %rax,-0x1fe0(%rbp)
   13b21:	48 8d 85 80 df ff ff 	lea    -0x2080(%rbp),%rax
   13b28:	48 83 c0 60          	add    $0x60,%rax
   13b2c:	48 89 85 48 da ff ff 	mov    %rax,-0x25b8(%rbp)
   13b33:	48 8d 05 06 b9 00 00 	lea    0xb906(%rip),%rax        # 1f440 <g_278>
   13b3a:	48 89 85 50 da ff ff 	mov    %rax,-0x25b0(%rbp)
   13b41:	48 8d 85 50 da ff ff 	lea    -0x25b0(%rbp),%rax
   13b48:	48 89 85 f0 f8 ff ff 	mov    %rax,-0x710(%rbp)
   13b4f:	48 8d 85 50 da ff ff 	lea    -0x25b0(%rbp),%rax
   13b56:	48 89 85 f8 f8 ff ff 	mov    %rax,-0x708(%rbp)
   13b5d:	48 c7 85 00 f9 ff ff 	movq   $0x0,-0x700(%rbp)
   13b64:	00 00 00 00 
   13b68:	48 8d 85 50 da ff ff 	lea    -0x25b0(%rbp),%rax
   13b6f:	48 89 85 08 f9 ff ff 	mov    %rax,-0x6f8(%rbp)
   13b76:	48 c7 85 10 f9 ff ff 	movq   $0x0,-0x6f0(%rbp)
   13b7d:	00 00 00 00 
   13b81:	48 8d 85 50 da ff ff 	lea    -0x25b0(%rbp),%rax
   13b88:	48 89 85 18 f9 ff ff 	mov    %rax,-0x6e8(%rbp)
   13b8f:	48 8d 85 50 da ff ff 	lea    -0x25b0(%rbp),%rax
   13b96:	48 89 85 20 f9 ff ff 	mov    %rax,-0x6e0(%rbp)
   13b9d:	48 8d 85 50 da ff ff 	lea    -0x25b0(%rbp),%rax
   13ba4:	48 89 85 28 f9 ff ff 	mov    %rax,-0x6d8(%rbp)
   13bab:	48 c7 85 30 f9 ff ff 	movq   $0x0,-0x6d0(%rbp)
   13bb2:	00 00 00 00 
   13bb6:	48 8d 85 50 da ff ff 	lea    -0x25b0(%rbp),%rax
   13bbd:	48 89 85 38 f9 ff ff 	mov    %rax,-0x6c8(%rbp)
   13bc4:	48 c7 85 40 f9 ff ff 	movq   $0x0,-0x6c0(%rbp)
   13bcb:	00 00 00 00 
   13bcf:	48 c7 85 48 f9 ff ff 	movq   $0x0,-0x6b8(%rbp)
   13bd6:	00 00 00 00 
   13bda:	48 8d 85 50 da ff ff 	lea    -0x25b0(%rbp),%rax
   13be1:	48 89 85 50 f9 ff ff 	mov    %rax,-0x6b0(%rbp)
   13be8:	48 c7 85 58 f9 ff ff 	movq   $0x0,-0x6a8(%rbp)
   13bef:	00 00 00 00 
   13bf3:	48 c7 85 60 f9 ff ff 	movq   $0x0,-0x6a0(%rbp)
   13bfa:	00 00 00 00 
   13bfe:	48 8d 85 50 da ff ff 	lea    -0x25b0(%rbp),%rax
   13c05:	48 89 85 68 f9 ff ff 	mov    %rax,-0x698(%rbp)
   13c0c:	48 c7 85 70 f9 ff ff 	movq   $0x0,-0x690(%rbp)
   13c13:	00 00 00 00 
   13c17:	48 c7 85 78 f9 ff ff 	movq   $0x0,-0x688(%rbp)
   13c1e:	00 00 00 00 
   13c22:	48 8d 85 50 da ff ff 	lea    -0x25b0(%rbp),%rax
   13c29:	48 89 85 80 f9 ff ff 	mov    %rax,-0x680(%rbp)
   13c30:	48 8d 85 50 da ff ff 	lea    -0x25b0(%rbp),%rax
   13c37:	48 89 85 88 f9 ff ff 	mov    %rax,-0x678(%rbp)
   13c3e:	48 8d 85 50 da ff ff 	lea    -0x25b0(%rbp),%rax
   13c45:	48 89 85 90 f9 ff ff 	mov    %rax,-0x670(%rbp)
   13c4c:	48 8d 85 50 da ff ff 	lea    -0x25b0(%rbp),%rax
   13c53:	48 89 85 98 f9 ff ff 	mov    %rax,-0x668(%rbp)
   13c5a:	48 8d 85 50 da ff ff 	lea    -0x25b0(%rbp),%rax
   13c61:	48 89 85 a0 f9 ff ff 	mov    %rax,-0x660(%rbp)
   13c68:	48 8d 85 50 da ff ff 	lea    -0x25b0(%rbp),%rax
   13c6f:	48 89 85 a8 f9 ff ff 	mov    %rax,-0x658(%rbp)
   13c76:	48 8d 85 50 da ff ff 	lea    -0x25b0(%rbp),%rax
   13c7d:	48 89 85 b0 f9 ff ff 	mov    %rax,-0x650(%rbp)
   13c84:	48 8d 85 50 da ff ff 	lea    -0x25b0(%rbp),%rax
   13c8b:	48 89 85 b8 f9 ff ff 	mov    %rax,-0x648(%rbp)
   13c92:	48 8d 85 50 da ff ff 	lea    -0x25b0(%rbp),%rax
   13c99:	48 89 85 c0 f9 ff ff 	mov    %rax,-0x640(%rbp)
   13ca0:	48 8d 85 50 da ff ff 	lea    -0x25b0(%rbp),%rax
   13ca7:	48 89 85 c8 f9 ff ff 	mov    %rax,-0x638(%rbp)
   13cae:	48 c7 85 d0 f9 ff ff 	movq   $0x0,-0x630(%rbp)
   13cb5:	00 00 00 00 
   13cb9:	48 c7 85 d8 f9 ff ff 	movq   $0x0,-0x628(%rbp)
   13cc0:	00 00 00 00 
   13cc4:	48 8d 85 50 da ff ff 	lea    -0x25b0(%rbp),%rax
   13ccb:	48 89 85 e0 f9 ff ff 	mov    %rax,-0x620(%rbp)
   13cd2:	48 c7 85 e8 f9 ff ff 	movq   $0x0,-0x618(%rbp)
   13cd9:	00 00 00 00 
   13cdd:	48 c7 85 f0 f9 ff ff 	movq   $0x0,-0x610(%rbp)
   13ce4:	00 00 00 00 
   13ce8:	48 8d 85 50 da ff ff 	lea    -0x25b0(%rbp),%rax
   13cef:	48 89 85 f8 f9 ff ff 	mov    %rax,-0x608(%rbp)
   13cf6:	48 c7 85 00 fa ff ff 	movq   $0x0,-0x600(%rbp)
   13cfd:	00 00 00 00 
   13d01:	48 c7 85 08 fa ff ff 	movq   $0x0,-0x5f8(%rbp)
   13d08:	00 00 00 00 
   13d0c:	48 8d 85 50 da ff ff 	lea    -0x25b0(%rbp),%rax
   13d13:	48 89 85 10 fa ff ff 	mov    %rax,-0x5f0(%rbp)
   13d1a:	48 8d 85 50 da ff ff 	lea    -0x25b0(%rbp),%rax
   13d21:	48 89 85 18 fa ff ff 	mov    %rax,-0x5e8(%rbp)
   13d28:	48 c7 85 20 fa ff ff 	movq   $0x0,-0x5e0(%rbp)
   13d2f:	00 00 00 00 
   13d33:	48 8d 85 50 da ff ff 	lea    -0x25b0(%rbp),%rax
   13d3a:	48 89 85 28 fa ff ff 	mov    %rax,-0x5d8(%rbp)
   13d41:	48 c7 85 30 fa ff ff 	movq   $0x0,-0x5d0(%rbp)
   13d48:	00 00 00 00 
   13d4c:	48 8d 85 50 da ff ff 	lea    -0x25b0(%rbp),%rax
   13d53:	48 89 85 38 fa ff ff 	mov    %rax,-0x5c8(%rbp)
   13d5a:	48 8d 85 50 da ff ff 	lea    -0x25b0(%rbp),%rax
   13d61:	48 89 85 40 fa ff ff 	mov    %rax,-0x5c0(%rbp)
   13d68:	48 8d 85 50 da ff ff 	lea    -0x25b0(%rbp),%rax
   13d6f:	48 89 85 48 fa ff ff 	mov    %rax,-0x5b8(%rbp)
   13d76:	48 c7 85 50 fa ff ff 	movq   $0x0,-0x5b0(%rbp)
   13d7d:	00 00 00 00 
   13d81:	48 8d 85 50 da ff ff 	lea    -0x25b0(%rbp),%rax
   13d88:	48 89 85 58 fa ff ff 	mov    %rax,-0x5a8(%rbp)
   13d8f:	48 c7 85 60 fa ff ff 	movq   $0x0,-0x5a0(%rbp)
   13d96:	00 00 00 00 
   13d9a:	48 c7 85 68 fa ff ff 	movq   $0x0,-0x598(%rbp)
   13da1:	00 00 00 00 
   13da5:	48 8d 85 50 da ff ff 	lea    -0x25b0(%rbp),%rax
   13dac:	48 89 85 70 fa ff ff 	mov    %rax,-0x590(%rbp)
   13db3:	48 c7 85 78 fa ff ff 	movq   $0x0,-0x588(%rbp)
   13dba:	00 00 00 00 
   13dbe:	48 c7 85 80 fa ff ff 	movq   $0x0,-0x580(%rbp)
   13dc5:	00 00 00 00 
   13dc9:	48 8d 85 50 da ff ff 	lea    -0x25b0(%rbp),%rax
   13dd0:	48 89 85 88 fa ff ff 	mov    %rax,-0x578(%rbp)
   13dd7:	48 c7 85 90 fa ff ff 	movq   $0x0,-0x570(%rbp)
   13dde:	00 00 00 00 
   13de2:	48 c7 85 98 fa ff ff 	movq   $0x0,-0x568(%rbp)
   13de9:	00 00 00 00 
   13ded:	48 8d 85 50 da ff ff 	lea    -0x25b0(%rbp),%rax
   13df4:	48 89 85 a0 fa ff ff 	mov    %rax,-0x560(%rbp)
   13dfb:	48 8d 85 50 da ff ff 	lea    -0x25b0(%rbp),%rax
   13e02:	48 89 85 a8 fa ff ff 	mov    %rax,-0x558(%rbp)
   13e09:	48 8d 85 50 da ff ff 	lea    -0x25b0(%rbp),%rax
   13e10:	48 89 85 b0 fa ff ff 	mov    %rax,-0x550(%rbp)
   13e17:	48 8d 85 50 da ff ff 	lea    -0x25b0(%rbp),%rax
   13e1e:	48 89 85 b8 fa ff ff 	mov    %rax,-0x548(%rbp)
   13e25:	48 8d 85 50 da ff ff 	lea    -0x25b0(%rbp),%rax
   13e2c:	48 89 85 c0 fa ff ff 	mov    %rax,-0x540(%rbp)
   13e33:	48 8d 85 50 da ff ff 	lea    -0x25b0(%rbp),%rax
   13e3a:	48 89 85 c8 fa ff ff 	mov    %rax,-0x538(%rbp)
   13e41:	48 8d 85 50 da ff ff 	lea    -0x25b0(%rbp),%rax
   13e48:	48 89 85 d0 fa ff ff 	mov    %rax,-0x530(%rbp)
   13e4f:	48 8d 85 50 da ff ff 	lea    -0x25b0(%rbp),%rax
   13e56:	48 89 85 d8 fa ff ff 	mov    %rax,-0x528(%rbp)
   13e5d:	48 8d 85 50 da ff ff 	lea    -0x25b0(%rbp),%rax
   13e64:	48 89 85 e0 fa ff ff 	mov    %rax,-0x520(%rbp)
   13e6b:	48 8d 85 50 da ff ff 	lea    -0x25b0(%rbp),%rax
   13e72:	48 89 85 e8 fa ff ff 	mov    %rax,-0x518(%rbp)
   13e79:	48 c7 85 f0 fa ff ff 	movq   $0x0,-0x510(%rbp)
   13e80:	00 00 00 00 
   13e84:	48 c7 85 f8 fa ff ff 	movq   $0x0,-0x508(%rbp)
   13e8b:	00 00 00 00 
   13e8f:	48 8d 85 50 da ff ff 	lea    -0x25b0(%rbp),%rax
   13e96:	48 89 85 00 fb ff ff 	mov    %rax,-0x500(%rbp)
   13e9d:	48 c7 85 08 fb ff ff 	movq   $0x0,-0x4f8(%rbp)
   13ea4:	00 00 00 00 
   13ea8:	48 c7 85 10 fb ff ff 	movq   $0x0,-0x4f0(%rbp)
   13eaf:	00 00 00 00 
   13eb3:	48 8d 85 50 da ff ff 	lea    -0x25b0(%rbp),%rax
   13eba:	48 89 85 18 fb ff ff 	mov    %rax,-0x4e8(%rbp)
   13ec1:	48 c7 85 20 fb ff ff 	movq   $0x0,-0x4e0(%rbp)
   13ec8:	00 00 00 00 
   13ecc:	48 c7 85 28 fb ff ff 	movq   $0x0,-0x4d8(%rbp)
   13ed3:	00 00 00 00 
   13ed7:	48 8d 85 50 da ff ff 	lea    -0x25b0(%rbp),%rax
   13ede:	48 89 85 30 fb ff ff 	mov    %rax,-0x4d0(%rbp)
   13ee5:	48 8d 85 50 da ff ff 	lea    -0x25b0(%rbp),%rax
   13eec:	48 89 85 38 fb ff ff 	mov    %rax,-0x4c8(%rbp)
   13ef3:	48 c7 85 40 fb ff ff 	movq   $0x0,-0x4c0(%rbp)
   13efa:	00 00 00 00 
   13efe:	48 8d 85 50 da ff ff 	lea    -0x25b0(%rbp),%rax
   13f05:	48 89 85 48 fb ff ff 	mov    %rax,-0x4b8(%rbp)
   13f0c:	48 c7 85 50 fb ff ff 	movq   $0x0,-0x4b0(%rbp)
   13f13:	00 00 00 00 
   13f17:	48 8d 85 50 da ff ff 	lea    -0x25b0(%rbp),%rax
   13f1e:	48 89 85 58 fb ff ff 	mov    %rax,-0x4a8(%rbp)
   13f25:	48 8d 85 50 da ff ff 	lea    -0x25b0(%rbp),%rax
   13f2c:	48 89 85 60 fb ff ff 	mov    %rax,-0x4a0(%rbp)
   13f33:	48 8d 85 50 da ff ff 	lea    -0x25b0(%rbp),%rax
   13f3a:	48 89 85 68 fb ff ff 	mov    %rax,-0x498(%rbp)
   13f41:	48 c7 85 70 fb ff ff 	movq   $0x0,-0x490(%rbp)
   13f48:	00 00 00 00 
   13f4c:	48 8d 85 50 da ff ff 	lea    -0x25b0(%rbp),%rax
   13f53:	48 89 85 78 fb ff ff 	mov    %rax,-0x488(%rbp)
   13f5a:	48 c7 85 80 fb ff ff 	movq   $0x0,-0x480(%rbp)
   13f61:	00 00 00 00 
   13f65:	48 c7 85 88 fb ff ff 	movq   $0x0,-0x478(%rbp)
   13f6c:	00 00 00 00 
   13f70:	48 8d 85 50 da ff ff 	lea    -0x25b0(%rbp),%rax
   13f77:	48 89 85 90 fb ff ff 	mov    %rax,-0x470(%rbp)
   13f7e:	48 c7 85 98 fb ff ff 	movq   $0x0,-0x468(%rbp)
   13f85:	00 00 00 00 
   13f89:	48 c7 85 a0 fb ff ff 	movq   $0x0,-0x460(%rbp)
   13f90:	00 00 00 00 
   13f94:	48 8d 85 50 da ff ff 	lea    -0x25b0(%rbp),%rax
   13f9b:	48 89 85 a8 fb ff ff 	mov    %rax,-0x458(%rbp)
   13fa2:	48 c7 85 b0 fb ff ff 	movq   $0x0,-0x450(%rbp)
   13fa9:	00 00 00 00 
   13fad:	48 c7 85 b8 fb ff ff 	movq   $0x0,-0x448(%rbp)
   13fb4:	00 00 00 00 
   13fb8:	48 8d 85 50 da ff ff 	lea    -0x25b0(%rbp),%rax
   13fbf:	48 89 85 c0 fb ff ff 	mov    %rax,-0x440(%rbp)
   13fc6:	48 8d 85 50 da ff ff 	lea    -0x25b0(%rbp),%rax
   13fcd:	48 89 85 c8 fb ff ff 	mov    %rax,-0x438(%rbp)
   13fd4:	48 8d 85 50 da ff ff 	lea    -0x25b0(%rbp),%rax
   13fdb:	48 89 85 d0 fb ff ff 	mov    %rax,-0x430(%rbp)
   13fe2:	48 8d 85 50 da ff ff 	lea    -0x25b0(%rbp),%rax
   13fe9:	48 89 85 d8 fb ff ff 	mov    %rax,-0x428(%rbp)
   13ff0:	48 8d 85 50 da ff ff 	lea    -0x25b0(%rbp),%rax
   13ff7:	48 89 85 e0 fb ff ff 	mov    %rax,-0x420(%rbp)
   13ffe:	48 8d 85 50 da ff ff 	lea    -0x25b0(%rbp),%rax
   14005:	48 89 85 e8 fb ff ff 	mov    %rax,-0x418(%rbp)
   1400c:	48 8d 85 50 da ff ff 	lea    -0x25b0(%rbp),%rax
   14013:	48 89 85 f0 fb ff ff 	mov    %rax,-0x410(%rbp)
   1401a:	48 8d 85 50 da ff ff 	lea    -0x25b0(%rbp),%rax
   14021:	48 89 85 f8 fb ff ff 	mov    %rax,-0x408(%rbp)
   14028:	48 8d 85 50 da ff ff 	lea    -0x25b0(%rbp),%rax
   1402f:	48 89 85 00 fc ff ff 	mov    %rax,-0x400(%rbp)
   14036:	48 c7 85 08 fc ff ff 	movq   $0x0,-0x3f8(%rbp)
   1403d:	00 00 00 00 
   14041:	48 8d 85 50 da ff ff 	lea    -0x25b0(%rbp),%rax
   14048:	48 89 85 10 fc ff ff 	mov    %rax,-0x3f0(%rbp)
   1404f:	48 8d 85 50 da ff ff 	lea    -0x25b0(%rbp),%rax
   14056:	48 89 85 18 fc ff ff 	mov    %rax,-0x3e8(%rbp)
   1405d:	48 c7 85 20 fc ff ff 	movq   $0x0,-0x3e0(%rbp)
   14064:	00 00 00 00 
   14068:	48 8d 85 50 da ff ff 	lea    -0x25b0(%rbp),%rax
   1406f:	48 89 85 28 fc ff ff 	mov    %rax,-0x3d8(%rbp)
   14076:	48 8d 85 50 da ff ff 	lea    -0x25b0(%rbp),%rax
   1407d:	48 89 85 30 fc ff ff 	mov    %rax,-0x3d0(%rbp)
   14084:	48 c7 85 38 fc ff ff 	movq   $0x0,-0x3c8(%rbp)
   1408b:	00 00 00 00 
   1408f:	48 8d 85 50 da ff ff 	lea    -0x25b0(%rbp),%rax
   14096:	48 89 85 40 fc ff ff 	mov    %rax,-0x3c0(%rbp)
   1409d:	48 8d 85 50 da ff ff 	lea    -0x25b0(%rbp),%rax
   140a4:	48 89 85 48 fc ff ff 	mov    %rax,-0x3b8(%rbp)
   140ab:	48 c7 85 50 fc ff ff 	movq   $0x0,-0x3b0(%rbp)
   140b2:	00 00 00 00 
   140b6:	48 8d 85 50 da ff ff 	lea    -0x25b0(%rbp),%rax
   140bd:	48 89 85 58 fc ff ff 	mov    %rax,-0x3a8(%rbp)
   140c4:	48 8d 85 50 da ff ff 	lea    -0x25b0(%rbp),%rax
   140cb:	48 89 85 60 fc ff ff 	mov    %rax,-0x3a0(%rbp)
   140d2:	48 8d 85 50 da ff ff 	lea    -0x25b0(%rbp),%rax
   140d9:	48 89 85 68 fc ff ff 	mov    %rax,-0x398(%rbp)
   140e0:	48 8d 85 50 da ff ff 	lea    -0x25b0(%rbp),%rax
   140e7:	48 89 85 70 fc ff ff 	mov    %rax,-0x390(%rbp)
   140ee:	48 8d 85 50 da ff ff 	lea    -0x25b0(%rbp),%rax
   140f5:	48 89 85 78 fc ff ff 	mov    %rax,-0x388(%rbp)
   140fc:	48 c7 85 80 fc ff ff 	movq   $0x0,-0x380(%rbp)
   14103:	00 00 00 00 
   14107:	48 8d 85 50 da ff ff 	lea    -0x25b0(%rbp),%rax
   1410e:	48 89 85 88 fc ff ff 	mov    %rax,-0x378(%rbp)
   14115:	48 8d 85 50 da ff ff 	lea    -0x25b0(%rbp),%rax
   1411c:	48 89 85 90 fc ff ff 	mov    %rax,-0x370(%rbp)
   14123:	48 c7 85 98 fc ff ff 	movq   $0x0,-0x368(%rbp)
   1412a:	00 00 00 00 
   1412e:	48 8d 85 50 da ff ff 	lea    -0x25b0(%rbp),%rax
   14135:	48 89 85 a0 fc ff ff 	mov    %rax,-0x360(%rbp)
   1413c:	48 8d 85 50 da ff ff 	lea    -0x25b0(%rbp),%rax
   14143:	48 89 85 a8 fc ff ff 	mov    %rax,-0x358(%rbp)
   1414a:	48 c7 85 b0 fc ff ff 	movq   $0x0,-0x350(%rbp)
   14151:	00 00 00 00 
   14155:	48 8d 85 50 da ff ff 	lea    -0x25b0(%rbp),%rax
   1415c:	48 89 85 b8 fc ff ff 	mov    %rax,-0x348(%rbp)
   14163:	48 8d 85 50 da ff ff 	lea    -0x25b0(%rbp),%rax
   1416a:	48 89 85 c0 fc ff ff 	mov    %rax,-0x340(%rbp)
   14171:	48 c7 85 c8 fc ff ff 	movq   $0x0,-0x338(%rbp)
   14178:	00 00 00 00 
   1417c:	48 8d 85 50 da ff ff 	lea    -0x25b0(%rbp),%rax
   14183:	48 89 85 d0 fc ff ff 	mov    %rax,-0x330(%rbp)
   1418a:	48 8d 85 50 da ff ff 	lea    -0x25b0(%rbp),%rax
   14191:	48 89 85 d8 fc ff ff 	mov    %rax,-0x328(%rbp)
   14198:	48 8d 85 50 da ff ff 	lea    -0x25b0(%rbp),%rax
   1419f:	48 89 85 e0 fc ff ff 	mov    %rax,-0x320(%rbp)
   141a6:	48 8d 85 50 da ff ff 	lea    -0x25b0(%rbp),%rax
   141ad:	48 89 85 e8 fc ff ff 	mov    %rax,-0x318(%rbp)
   141b4:	48 8d 85 50 da ff ff 	lea    -0x25b0(%rbp),%rax
   141bb:	48 89 85 f0 fc ff ff 	mov    %rax,-0x310(%rbp)
   141c2:	48 8d 85 50 da ff ff 	lea    -0x25b0(%rbp),%rax
   141c9:	48 89 85 f8 fc ff ff 	mov    %rax,-0x308(%rbp)
   141d0:	48 8d 85 50 da ff ff 	lea    -0x25b0(%rbp),%rax
   141d7:	48 89 85 00 fd ff ff 	mov    %rax,-0x300(%rbp)
   141de:	48 8d 85 50 da ff ff 	lea    -0x25b0(%rbp),%rax
   141e5:	48 89 85 08 fd ff ff 	mov    %rax,-0x2f8(%rbp)
   141ec:	48 8d 85 50 da ff ff 	lea    -0x25b0(%rbp),%rax
   141f3:	48 89 85 10 fd ff ff 	mov    %rax,-0x2f0(%rbp)
   141fa:	48 8d 85 50 da ff ff 	lea    -0x25b0(%rbp),%rax
   14201:	48 89 85 18 fd ff ff 	mov    %rax,-0x2e8(%rbp)
   14208:	48 8d 85 50 da ff ff 	lea    -0x25b0(%rbp),%rax
   1420f:	48 89 85 20 fd ff ff 	mov    %rax,-0x2e0(%rbp)
   14216:	48 c7 85 28 fd ff ff 	movq   $0x0,-0x2d8(%rbp)
   1421d:	00 00 00 00 
   14221:	48 8d 85 50 da ff ff 	lea    -0x25b0(%rbp),%rax
   14228:	48 89 85 30 fd ff ff 	mov    %rax,-0x2d0(%rbp)
   1422f:	48 8d 85 50 da ff ff 	lea    -0x25b0(%rbp),%rax
   14236:	48 89 85 38 fd ff ff 	mov    %rax,-0x2c8(%rbp)
   1423d:	48 c7 85 40 fd ff ff 	movq   $0x0,-0x2c0(%rbp)
   14244:	00 00 00 00 
   14248:	48 8d 85 50 da ff ff 	lea    -0x25b0(%rbp),%rax
   1424f:	48 89 85 48 fd ff ff 	mov    %rax,-0x2b8(%rbp)
   14256:	48 8d 85 50 da ff ff 	lea    -0x25b0(%rbp),%rax
   1425d:	48 89 85 50 fd ff ff 	mov    %rax,-0x2b0(%rbp)
   14264:	48 c7 85 58 fd ff ff 	movq   $0x0,-0x2a8(%rbp)
   1426b:	00 00 00 00 
   1426f:	48 8d 85 50 da ff ff 	lea    -0x25b0(%rbp),%rax
   14276:	48 89 85 60 fd ff ff 	mov    %rax,-0x2a0(%rbp)
   1427d:	48 8d 85 50 da ff ff 	lea    -0x25b0(%rbp),%rax
   14284:	48 89 85 68 fd ff ff 	mov    %rax,-0x298(%rbp)
   1428b:	48 c7 85 70 fd ff ff 	movq   $0x0,-0x290(%rbp)
   14292:	00 00 00 00 
   14296:	48 8d 85 50 da ff ff 	lea    -0x25b0(%rbp),%rax
   1429d:	48 89 85 78 fd ff ff 	mov    %rax,-0x288(%rbp)
   142a4:	48 8d 85 50 da ff ff 	lea    -0x25b0(%rbp),%rax
   142ab:	48 89 85 80 fd ff ff 	mov    %rax,-0x280(%rbp)
   142b2:	48 8d 85 50 da ff ff 	lea    -0x25b0(%rbp),%rax
   142b9:	48 89 85 88 fd ff ff 	mov    %rax,-0x278(%rbp)
   142c0:	48 8d 85 50 da ff ff 	lea    -0x25b0(%rbp),%rax
   142c7:	48 89 85 90 fd ff ff 	mov    %rax,-0x270(%rbp)
   142ce:	48 8d 85 50 da ff ff 	lea    -0x25b0(%rbp),%rax
   142d5:	48 89 85 98 fd ff ff 	mov    %rax,-0x268(%rbp)
   142dc:	48 c7 85 a0 fd ff ff 	movq   $0x0,-0x260(%rbp)
   142e3:	00 00 00 00 
   142e7:	48 8d 85 50 da ff ff 	lea    -0x25b0(%rbp),%rax
   142ee:	48 89 85 a8 fd ff ff 	mov    %rax,-0x258(%rbp)
   142f5:	48 8d 85 50 da ff ff 	lea    -0x25b0(%rbp),%rax
   142fc:	48 89 85 b0 fd ff ff 	mov    %rax,-0x250(%rbp)
   14303:	48 c7 85 b8 fd ff ff 	movq   $0x0,-0x248(%rbp)
   1430a:	00 00 00 00 
   1430e:	48 8d 85 50 da ff ff 	lea    -0x25b0(%rbp),%rax
   14315:	48 89 85 c0 fd ff ff 	mov    %rax,-0x240(%rbp)
   1431c:	48 8d 85 50 da ff ff 	lea    -0x25b0(%rbp),%rax
   14323:	48 89 85 c8 fd ff ff 	mov    %rax,-0x238(%rbp)
   1432a:	48 c7 85 d0 fd ff ff 	movq   $0x0,-0x230(%rbp)
   14331:	00 00 00 00 
   14335:	48 8d 85 50 da ff ff 	lea    -0x25b0(%rbp),%rax
   1433c:	48 89 85 d8 fd ff ff 	mov    %rax,-0x228(%rbp)
   14343:	48 8d 85 50 da ff ff 	lea    -0x25b0(%rbp),%rax
   1434a:	48 89 85 e0 fd ff ff 	mov    %rax,-0x220(%rbp)
   14351:	48 c7 85 e8 fd ff ff 	movq   $0x0,-0x218(%rbp)
   14358:	00 00 00 00 
   1435c:	48 8d 85 50 da ff ff 	lea    -0x25b0(%rbp),%rax
   14363:	48 89 85 f0 fd ff ff 	mov    %rax,-0x210(%rbp)
   1436a:	48 8d 85 50 da ff ff 	lea    -0x25b0(%rbp),%rax
   14371:	48 89 85 f8 fd ff ff 	mov    %rax,-0x208(%rbp)
   14378:	48 8d 85 50 da ff ff 	lea    -0x25b0(%rbp),%rax
   1437f:	48 89 85 00 fe ff ff 	mov    %rax,-0x200(%rbp)
   14386:	48 8d 85 50 da ff ff 	lea    -0x25b0(%rbp),%rax
   1438d:	48 89 85 08 fe ff ff 	mov    %rax,-0x1f8(%rbp)
   14394:	48 8d 85 50 da ff ff 	lea    -0x25b0(%rbp),%rax
   1439b:	48 89 85 10 fe ff ff 	mov    %rax,-0x1f0(%rbp)
   143a2:	48 8d 85 50 da ff ff 	lea    -0x25b0(%rbp),%rax
   143a9:	48 89 85 18 fe ff ff 	mov    %rax,-0x1e8(%rbp)
   143b0:	48 8d 85 50 da ff ff 	lea    -0x25b0(%rbp),%rax
   143b7:	48 89 85 20 fe ff ff 	mov    %rax,-0x1e0(%rbp)
   143be:	48 8d 85 50 da ff ff 	lea    -0x25b0(%rbp),%rax
   143c5:	48 89 85 28 fe ff ff 	mov    %rax,-0x1d8(%rbp)
   143cc:	48 8d 85 50 da ff ff 	lea    -0x25b0(%rbp),%rax
   143d3:	48 89 85 30 fe ff ff 	mov    %rax,-0x1d0(%rbp)
   143da:	48 8d 85 50 da ff ff 	lea    -0x25b0(%rbp),%rax
   143e1:	48 89 85 38 fe ff ff 	mov    %rax,-0x1c8(%rbp)
   143e8:	48 8d 85 50 da ff ff 	lea    -0x25b0(%rbp),%rax
   143ef:	48 89 85 40 fe ff ff 	mov    %rax,-0x1c0(%rbp)
   143f6:	48 c7 85 48 fe ff ff 	movq   $0x0,-0x1b8(%rbp)
   143fd:	00 00 00 00 
   14401:	48 8d 85 50 da ff ff 	lea    -0x25b0(%rbp),%rax
   14408:	48 89 85 50 fe ff ff 	mov    %rax,-0x1b0(%rbp)
   1440f:	48 8d 85 50 da ff ff 	lea    -0x25b0(%rbp),%rax
   14416:	48 89 85 58 fe ff ff 	mov    %rax,-0x1a8(%rbp)
   1441d:	48 c7 85 60 fe ff ff 	movq   $0x0,-0x1a0(%rbp)
   14424:	00 00 00 00 
   14428:	48 8d 85 50 da ff ff 	lea    -0x25b0(%rbp),%rax
   1442f:	48 89 85 68 fe ff ff 	mov    %rax,-0x198(%rbp)
   14436:	48 8d 85 50 da ff ff 	lea    -0x25b0(%rbp),%rax
   1443d:	48 89 85 70 fe ff ff 	mov    %rax,-0x190(%rbp)
   14444:	48 c7 85 78 fe ff ff 	movq   $0x0,-0x188(%rbp)
   1444b:	00 00 00 00 
   1444f:	48 8d 85 50 da ff ff 	lea    -0x25b0(%rbp),%rax
   14456:	48 89 85 80 fe ff ff 	mov    %rax,-0x180(%rbp)
   1445d:	48 8d 85 50 da ff ff 	lea    -0x25b0(%rbp),%rax
   14464:	48 89 85 88 fe ff ff 	mov    %rax,-0x178(%rbp)
   1446b:	48 c7 85 90 fe ff ff 	movq   $0x0,-0x170(%rbp)
   14472:	00 00 00 00 
   14476:	48 8d 85 50 da ff ff 	lea    -0x25b0(%rbp),%rax
   1447d:	48 89 85 98 fe ff ff 	mov    %rax,-0x168(%rbp)
   14484:	48 8d 85 50 da ff ff 	lea    -0x25b0(%rbp),%rax
   1448b:	48 89 85 a0 fe ff ff 	mov    %rax,-0x160(%rbp)
   14492:	48 8d 85 50 da ff ff 	lea    -0x25b0(%rbp),%rax
   14499:	48 89 85 a8 fe ff ff 	mov    %rax,-0x158(%rbp)
   144a0:	48 8d 85 50 da ff ff 	lea    -0x25b0(%rbp),%rax
   144a7:	48 89 85 b0 fe ff ff 	mov    %rax,-0x150(%rbp)
   144ae:	48 8d 85 50 da ff ff 	lea    -0x25b0(%rbp),%rax
   144b5:	48 89 85 b8 fe ff ff 	mov    %rax,-0x148(%rbp)
   144bc:	48 c7 85 c0 fe ff ff 	movq   $0x0,-0x140(%rbp)
   144c3:	00 00 00 00 
   144c7:	48 8d 85 50 da ff ff 	lea    -0x25b0(%rbp),%rax
   144ce:	48 89 85 c8 fe ff ff 	mov    %rax,-0x138(%rbp)
   144d5:	48 8d 85 50 da ff ff 	lea    -0x25b0(%rbp),%rax
   144dc:	48 89 85 d0 fe ff ff 	mov    %rax,-0x130(%rbp)
   144e3:	48 c7 85 d8 fe ff ff 	movq   $0x0,-0x128(%rbp)
   144ea:	00 00 00 00 
   144ee:	48 8d 85 50 da ff ff 	lea    -0x25b0(%rbp),%rax
   144f5:	48 89 85 e0 fe ff ff 	mov    %rax,-0x120(%rbp)
   144fc:	48 8d 85 50 da ff ff 	lea    -0x25b0(%rbp),%rax
   14503:	48 89 85 e8 fe ff ff 	mov    %rax,-0x118(%rbp)
   1450a:	48 c7 85 f0 fe ff ff 	movq   $0x0,-0x110(%rbp)
   14511:	00 00 00 00 
   14515:	48 8d 85 50 da ff ff 	lea    -0x25b0(%rbp),%rax
   1451c:	48 89 85 f8 fe ff ff 	mov    %rax,-0x108(%rbp)
   14523:	48 8d 85 50 da ff ff 	lea    -0x25b0(%rbp),%rax
   1452a:	48 89 85 00 ff ff ff 	mov    %rax,-0x100(%rbp)
   14531:	48 c7 85 08 ff ff ff 	movq   $0x0,-0xf8(%rbp)
   14538:	00 00 00 00 
   1453c:	48 8d 85 50 da ff ff 	lea    -0x25b0(%rbp),%rax
   14543:	48 89 85 10 ff ff ff 	mov    %rax,-0xf0(%rbp)
   1454a:	48 8d 85 50 da ff ff 	lea    -0x25b0(%rbp),%rax
   14551:	48 89 85 18 ff ff ff 	mov    %rax,-0xe8(%rbp)
   14558:	48 8d 85 50 da ff ff 	lea    -0x25b0(%rbp),%rax
   1455f:	48 89 85 20 ff ff ff 	mov    %rax,-0xe0(%rbp)
   14566:	48 8d 85 50 da ff ff 	lea    -0x25b0(%rbp),%rax
   1456d:	48 89 85 28 ff ff ff 	mov    %rax,-0xd8(%rbp)
   14574:	48 8d 85 50 da ff ff 	lea    -0x25b0(%rbp),%rax
   1457b:	48 89 85 30 ff ff ff 	mov    %rax,-0xd0(%rbp)
   14582:	48 8d 85 50 da ff ff 	lea    -0x25b0(%rbp),%rax
   14589:	48 89 85 38 ff ff ff 	mov    %rax,-0xc8(%rbp)
   14590:	48 8d 85 50 da ff ff 	lea    -0x25b0(%rbp),%rax
   14597:	48 89 85 40 ff ff ff 	mov    %rax,-0xc0(%rbp)
   1459e:	48 8d 85 50 da ff ff 	lea    -0x25b0(%rbp),%rax
   145a5:	48 89 85 48 ff ff ff 	mov    %rax,-0xb8(%rbp)
   145ac:	48 8d 85 50 da ff ff 	lea    -0x25b0(%rbp),%rax
   145b3:	48 89 85 50 ff ff ff 	mov    %rax,-0xb0(%rbp)
   145ba:	48 8d 85 50 da ff ff 	lea    -0x25b0(%rbp),%rax
   145c1:	48 89 85 58 ff ff ff 	mov    %rax,-0xa8(%rbp)
   145c8:	48 8d 85 50 da ff ff 	lea    -0x25b0(%rbp),%rax
   145cf:	48 89 85 60 ff ff ff 	mov    %rax,-0xa0(%rbp)
   145d6:	48 c7 85 68 ff ff ff 	movq   $0x0,-0x98(%rbp)
   145dd:	00 00 00 00 
   145e1:	48 8d 85 50 da ff ff 	lea    -0x25b0(%rbp),%rax
   145e8:	48 89 85 70 ff ff ff 	mov    %rax,-0x90(%rbp)
   145ef:	48 8d 85 50 da ff ff 	lea    -0x25b0(%rbp),%rax
   145f6:	48 89 85 78 ff ff ff 	mov    %rax,-0x88(%rbp)
   145fd:	48 c7 45 80 00 00 00 	movq   $0x0,-0x80(%rbp)
   14604:	00 
   14605:	48 8d 85 50 da ff ff 	lea    -0x25b0(%rbp),%rax
   1460c:	48 89 45 88          	mov    %rax,-0x78(%rbp)
   14610:	48 8d 85 50 da ff ff 	lea    -0x25b0(%rbp),%rax
   14617:	48 89 45 90          	mov    %rax,-0x70(%rbp)
   1461b:	48 c7 45 98 00 00 00 	movq   $0x0,-0x68(%rbp)
   14622:	00 
   14623:	48 8d 85 50 da ff ff 	lea    -0x25b0(%rbp),%rax
   1462a:	48 89 45 a0          	mov    %rax,-0x60(%rbp)
   1462e:	48 8d 85 50 da ff ff 	lea    -0x25b0(%rbp),%rax
   14635:	48 89 45 a8          	mov    %rax,-0x58(%rbp)
   14639:	48 c7 85 c8 da ff ff 	movq   $0x0,-0x2538(%rbp)
   14640:	00 00 00 00 
   14644:	48 c7 85 d0 da ff ff 	movq   $0x0,-0x2530(%rbp)
   1464b:	00 00 00 00 
   1464f:	48 8d 85 d0 e4 ff ff 	lea    -0x1b30(%rbp),%rax
   14656:	48 05 e0 03 00 00    	add    $0x3e0,%rax
   1465c:	48 89 85 d8 da ff ff 	mov    %rax,-0x2528(%rbp)
   14663:	c7 85 e0 d9 ff ff 00 	movl   $0x0,-0x2620(%rbp)
   1466a:	00 00 00 
   1466d:	eb 57                	jmp    146c6 <func_64+0xe8a>
   1466f:	c7 85 e4 d9 ff ff 00 	movl   $0x0,-0x261c(%rbp)
   14676:	00 00 00 
   14679:	eb 3b                	jmp    146b6 <func_64+0xe7a>
   1467b:	8b 85 e4 d9 ff ff    	mov    -0x261c(%rbp),%eax
   14681:	48 63 c8             	movslq %eax,%rcx
   14684:	8b 85 e0 d9 ff ff    	mov    -0x2620(%rbp),%eax
   1468a:	48 63 d0             	movslq %eax,%rdx
   1468d:	48 89 d0             	mov    %rdx,%rax
   14690:	48 01 c0             	add    %rax,%rax
   14693:	48 01 d0             	add    %rdx,%rax
   14696:	48 01 c8             	add    %rcx,%rax
   14699:	48 8d 95 00 e2 ff ff 	lea    -0x1e00(%rbp),%rdx
   146a0:	48 81 c2 40 01 00 00 	add    $0x140,%rdx
   146a7:	48 89 94 c5 a0 dd ff 	mov    %rdx,-0x2260(%rbp,%rax,8)
   146ae:	ff 
   146af:	83 85 e4 d9 ff ff 01 	addl   $0x1,-0x261c(%rbp)
   146b6:	83 bd e4 d9 ff ff 02 	cmpl   $0x2,-0x261c(%rbp)
   146bd:	7e bc                	jle    1467b <func_64+0xe3f>
   146bf:	83 85 e0 d9 ff ff 01 	addl   $0x1,-0x2620(%rbp)
   146c6:	83 bd e0 d9 ff ff 01 	cmpl   $0x1,-0x2620(%rbp)
   146cd:	7e a0                	jle    1466f <func_64+0xe33>
   146cf:	c7 85 e0 d9 ff ff 00 	movl   $0x0,-0x2620(%rbp)
   146d6:	00 00 00 
   146d9:	eb 19                	jmp    146f4 <func_64+0xeb8>
   146db:	8b 85 e0 d9 ff ff    	mov    -0x2620(%rbp),%eax
   146e1:	48 98                	cltq   
   146e3:	66 c7 84 45 04 dd ff 	movw   $0x9e60,-0x22fc(%rbp,%rax,2)
   146ea:	ff 60 9e 
   146ed:	83 85 e0 d9 ff ff 01 	addl   $0x1,-0x2620(%rbp)
   146f4:	83 bd e0 d9 ff ff 05 	cmpl   $0x5,-0x2620(%rbp)
   146fb:	7e de                	jle    146db <func_64+0xe9f>
   146fd:	90                   	nop
   146fe:	c7 85 ac d9 ff ff 00 	movl   $0x0,-0x2654(%rbp)
   14705:	00 00 00 
   14708:	e9 7b 16 00 00       	jmpq   15d88 <func_64+0x254c>
   1470d:	48 c7 85 58 da ff ff 	movq   $0x0,-0x25a8(%rbp)
   14714:	00 00 00 00 
   14718:	48 8d 05 e1 ac 00 00 	lea    0xace1(%rip),%rax        # 1f400 <g_88>
   1471f:	48 89 85 60 da ff ff 	mov    %rax,-0x25a0(%rbp)
   14726:	48 8d 85 58 da ff ff 	lea    -0x25a8(%rbp),%rax
   1472d:	48 89 85 b0 de ff ff 	mov    %rax,-0x2150(%rbp)
   14734:	48 8d 05 4d ea 00 00 	lea    0xea4d(%rip),%rax        # 23188 <g_110>
   1473b:	48 89 85 b8 de ff ff 	mov    %rax,-0x2148(%rbp)
   14742:	48 8d 85 58 da ff ff 	lea    -0x25a8(%rbp),%rax
   14749:	48 89 85 c0 de ff ff 	mov    %rax,-0x2140(%rbp)
   14750:	48 8d 85 58 da ff ff 	lea    -0x25a8(%rbp),%rax
   14757:	48 89 85 c8 de ff ff 	mov    %rax,-0x2138(%rbp)
   1475e:	48 8d 05 23 ea 00 00 	lea    0xea23(%rip),%rax        # 23188 <g_110>
   14765:	48 89 85 d0 de ff ff 	mov    %rax,-0x2130(%rbp)
   1476c:	48 8d 85 58 da ff ff 	lea    -0x25a8(%rbp),%rax
   14773:	48 89 85 d8 de ff ff 	mov    %rax,-0x2128(%rbp)
   1477a:	48 8d 85 58 da ff ff 	lea    -0x25a8(%rbp),%rax
   14781:	48 89 85 e0 de ff ff 	mov    %rax,-0x2120(%rbp)
   14788:	48 8d 05 f9 e9 00 00 	lea    0xe9f9(%rip),%rax        # 23188 <g_110>
   1478f:	48 89 85 e8 de ff ff 	mov    %rax,-0x2118(%rbp)
   14796:	48 8d 85 58 da ff ff 	lea    -0x25a8(%rbp),%rax
   1479d:	48 89 85 f0 de ff ff 	mov    %rax,-0x2110(%rbp)
   147a4:	48 8d 85 58 da ff ff 	lea    -0x25a8(%rbp),%rax
   147ab:	48 89 85 f8 de ff ff 	mov    %rax,-0x2108(%rbp)
   147b2:	48 8d 05 49 ac 00 00 	lea    0xac49(%rip),%rax        # 1f402 <g_109>
   147b9:	48 89 85 68 da ff ff 	mov    %rax,-0x2598(%rbp)
   147c0:	48 8d 85 68 da ff ff 	lea    -0x2598(%rbp),%rax
   147c7:	48 89 85 70 da ff ff 	mov    %rax,-0x2590(%rbp)
   147ce:	c7 85 d8 d9 ff ff d3 	movl   $0x3a1a89d3,-0x2628(%rbp)
   147d5:	89 1a 3a 
   147d8:	66 c7 85 40 dd ff ff 	movw   $0x3,-0x22c0(%rbp)
   147df:	03 00 
   147e1:	66 c7 85 42 dd ff ff 	movw   $0xaf2e,-0x22be(%rbp)
   147e8:	2e af 
   147ea:	66 c7 85 44 dd ff ff 	movw   $0x6c54,-0x22bc(%rbp)
   147f1:	54 6c 
   147f3:	66 c7 85 46 dd ff ff 	movw   $0x6c54,-0x22ba(%rbp)
   147fa:	54 6c 
   147fc:	66 c7 85 48 dd ff ff 	movw   $0xaf2e,-0x22b8(%rbp)
   14803:	2e af 
   14805:	66 c7 85 4a dd ff ff 	movw   $0x3,-0x22b6(%rbp)
   1480c:	03 00 
   1480e:	66 c7 85 4c dd ff ff 	movw   $0x3,-0x22b4(%rbp)
   14815:	03 00 
   14817:	66 c7 85 4e dd ff ff 	movw   $0x63a0,-0x22b2(%rbp)
   1481e:	a0 63 
   14820:	66 c7 85 50 dd ff ff 	movw   $0x5790,-0x22b0(%rbp)
   14827:	90 57 
   14829:	66 c7 85 52 dd ff ff 	movw   $0x6c54,-0x22ae(%rbp)
   14830:	54 6c 
   14832:	66 c7 85 54 dd ff ff 	movw   $0x63a0,-0x22ac(%rbp)
   14839:	a0 63 
   1483b:	66 c7 85 56 dd ff ff 	movw   $0x6c54,-0x22aa(%rbp)
   14842:	54 6c 
   14844:	66 c7 85 58 dd ff ff 	movw   $0x3,-0x22a8(%rbp)
   1484b:	03 00 
   1484d:	66 c7 85 5a dd ff ff 	movw   $0x88b3,-0x22a6(%rbp)
   14854:	b3 88 
   14856:	66 c7 85 5c dd ff ff 	movw   $0x3,-0x22a4(%rbp)
   1485d:	03 00 
   1485f:	66 c7 85 5e dd ff ff 	movw   $0x6c54,-0x22a2(%rbp)
   14866:	54 6c 
   14868:	66 c7 85 60 dd ff ff 	movw   $0x88b3,-0x22a0(%rbp)
   1486f:	b3 88 
   14871:	66 c7 85 62 dd ff ff 	movw   $0x5790,-0x229e(%rbp)
   14878:	90 57 
   1487a:	c7 85 e8 d9 ff ff 6e 	movl   $0x7fb3206e,-0x2618(%rbp)
   14881:	20 b3 7f 
   14884:	c7 85 e0 e0 ff ff 01 	movl   $0x1,-0x1f20(%rbp)
   1488b:	00 00 00 
   1488e:	c7 85 e4 e0 ff ff 00 	movl   $0x0,-0x1f1c(%rbp)
   14895:	00 00 00 
   14898:	c7 85 e8 e0 ff ff 36 	movl   $0xe40f4936,-0x1f18(%rbp)
   1489f:	49 0f e4 
   148a2:	c7 85 ec e0 ff ff 01 	movl   $0x1,-0x1f14(%rbp)
   148a9:	00 00 00 
   148ac:	c7 85 f0 e0 ff ff d7 	movl   $0x69ab3d7,-0x1f10(%rbp)
   148b3:	b3 9a 06 
   148b6:	c7 85 f4 e0 ff ff d7 	movl   $0x69ab3d7,-0x1f0c(%rbp)
   148bd:	b3 9a 06 
   148c0:	c7 85 f8 e0 ff ff 01 	movl   $0x1,-0x1f08(%rbp)
   148c7:	00 00 00 
   148ca:	c7 85 fc e0 ff ff 36 	movl   $0xe40f4936,-0x1f04(%rbp)
   148d1:	49 0f e4 
   148d4:	c7 85 00 e1 ff ff 00 	movl   $0x0,-0x1f00(%rbp)
   148db:	00 00 00 
   148de:	c7 85 04 e1 ff ff 01 	movl   $0x1,-0x1efc(%rbp)
   148e5:	00 00 00 
   148e8:	c7 85 08 e1 ff ff c6 	movl   $0xb67d8bc6,-0x1ef8(%rbp)
   148ef:	8b 7d b6 
   148f2:	c7 85 0c e1 ff ff 01 	movl   $0x1,-0x1ef4(%rbp)
   148f9:	00 00 00 
   148fc:	c7 85 10 e1 ff ff fb 	movl   $0x7b1be5fb,-0x1ef0(%rbp)
   14903:	e5 1b 7b 
   14906:	c7 85 14 e1 ff ff 00 	movl   $0x0,-0x1eec(%rbp)
   1490d:	00 00 00 
   14910:	c7 85 18 e1 ff ff fb 	movl   $0x7b1be5fb,-0x1ee8(%rbp)
   14917:	e5 1b 7b 
   1491a:	c7 85 1c e1 ff ff 01 	movl   $0x1,-0x1ee4(%rbp)
   14921:	00 00 00 
   14924:	c7 85 20 e1 ff ff c6 	movl   $0xb67d8bc6,-0x1ee0(%rbp)
   1492b:	8b 7d b6 
   1492e:	c7 85 24 e1 ff ff 01 	movl   $0x1,-0x1edc(%rbp)
   14935:	00 00 00 
   14938:	c7 85 28 e1 ff ff 00 	movl   $0x0,-0x1ed8(%rbp)
   1493f:	00 00 00 
   14942:	c7 85 2c e1 ff ff 36 	movl   $0xe40f4936,-0x1ed4(%rbp)
   14949:	49 0f e4 
   1494c:	c7 85 30 e1 ff ff 01 	movl   $0x1,-0x1ed0(%rbp)
   14953:	00 00 00 
   14956:	c7 85 34 e1 ff ff d7 	movl   $0x69ab3d7,-0x1ecc(%rbp)
   1495d:	b3 9a 06 
   14960:	c7 85 38 e1 ff ff d7 	movl   $0x69ab3d7,-0x1ec8(%rbp)
   14967:	b3 9a 06 
   1496a:	c7 85 3c e1 ff ff 01 	movl   $0x1,-0x1ec4(%rbp)
   14971:	00 00 00 
   14974:	c7 85 40 e1 ff ff 36 	movl   $0xe40f4936,-0x1ec0(%rbp)
   1497b:	49 0f e4 
   1497e:	c7 85 44 e1 ff ff 00 	movl   $0x0,-0x1ebc(%rbp)
   14985:	00 00 00 
   14988:	c7 85 48 e1 ff ff 01 	movl   $0x1,-0x1eb8(%rbp)
   1498f:	00 00 00 
   14992:	c7 85 4c e1 ff ff c6 	movl   $0xb67d8bc6,-0x1eb4(%rbp)
   14999:	8b 7d b6 
   1499c:	c7 85 50 e1 ff ff 01 	movl   $0x1,-0x1eb0(%rbp)
   149a3:	00 00 00 
   149a6:	c7 85 54 e1 ff ff fb 	movl   $0x7b1be5fb,-0x1eac(%rbp)
   149ad:	e5 1b 7b 
   149b0:	c7 85 58 e1 ff ff 00 	movl   $0x0,-0x1ea8(%rbp)
   149b7:	00 00 00 
   149ba:	c7 85 5c e1 ff ff fb 	movl   $0x7b1be5fb,-0x1ea4(%rbp)
   149c1:	e5 1b 7b 
   149c4:	c7 85 60 e1 ff ff 01 	movl   $0x1,-0x1ea0(%rbp)
   149cb:	00 00 00 
   149ce:	c7 85 64 e1 ff ff c6 	movl   $0xb67d8bc6,-0x1e9c(%rbp)
   149d5:	8b 7d b6 
   149d8:	c7 85 68 e1 ff ff 01 	movl   $0x1,-0x1e98(%rbp)
   149df:	00 00 00 
   149e2:	c7 85 6c e1 ff ff 00 	movl   $0x0,-0x1e94(%rbp)
   149e9:	00 00 00 
   149ec:	c7 85 70 e1 ff ff 36 	movl   $0xe40f4936,-0x1e90(%rbp)
   149f3:	49 0f e4 
   149f6:	c7 85 74 e1 ff ff 01 	movl   $0x1,-0x1e8c(%rbp)
   149fd:	00 00 00 
   14a00:	c7 85 78 e1 ff ff d7 	movl   $0x69ab3d7,-0x1e88(%rbp)
   14a07:	b3 9a 06 
   14a0a:	c7 85 7c e1 ff ff 36 	movl   $0x544ff936,-0x1e84(%rbp)
   14a11:	f9 4f 54 
   14a14:	c7 85 80 e1 ff ff 01 	movl   $0x1,-0x1e80(%rbp)
   14a1b:	00 00 00 
   14a1e:	c7 85 84 e1 ff ff fb 	movl   $0x7b1be5fb,-0x1e7c(%rbp)
   14a25:	e5 1b 7b 
   14a28:	c7 85 88 e1 ff ff 6f 	movl   $0x2d9eca6f,-0x1e78(%rbp)
   14a2f:	ca 9e 2d 
   14a32:	c7 85 8c e1 ff ff 01 	movl   $0x1,-0x1e74(%rbp)
   14a39:	00 00 00 
   14a3c:	c7 85 90 e1 ff ff 00 	movl   $0x0,-0x1e70(%rbp)
   14a43:	00 00 00 
   14a46:	c7 85 94 e1 ff ff d1 	movl   $0x9008c5d1,-0x1e6c(%rbp)
   14a4d:	c5 08 90 
   14a50:	c7 85 98 e1 ff ff 00 	movl   $0x0,-0x1e68(%rbp)
   14a57:	00 00 00 
   14a5a:	c7 85 9c e1 ff ff 01 	movl   $0x1,-0x1e64(%rbp)
   14a61:	00 00 00 
   14a64:	48 8d 05 d1 a5 00 00 	lea    0xa5d1(%rip),%rax        # 1f03c <g_41>
   14a6b:	48 89 85 78 da ff ff 	mov    %rax,-0x2588(%rbp)
   14a72:	48 8d 85 78 da ff ff 	lea    -0x2588(%rbp),%rax
   14a79:	48 89 85 30 e0 ff ff 	mov    %rax,-0x1fd0(%rbp)
   14a80:	48 8d 85 78 da ff ff 	lea    -0x2588(%rbp),%rax
   14a87:	48 89 85 38 e0 ff ff 	mov    %rax,-0x1fc8(%rbp)
   14a8e:	48 8d 85 78 da ff ff 	lea    -0x2588(%rbp),%rax
   14a95:	48 89 85 40 e0 ff ff 	mov    %rax,-0x1fc0(%rbp)
   14a9c:	48 8d 85 78 da ff ff 	lea    -0x2588(%rbp),%rax
   14aa3:	48 89 85 48 e0 ff ff 	mov    %rax,-0x1fb8(%rbp)
   14aaa:	48 8d 85 78 da ff ff 	lea    -0x2588(%rbp),%rax
   14ab1:	48 89 85 50 e0 ff ff 	mov    %rax,-0x1fb0(%rbp)
   14ab8:	48 8d 85 78 da ff ff 	lea    -0x2588(%rbp),%rax
   14abf:	48 89 85 58 e0 ff ff 	mov    %rax,-0x1fa8(%rbp)
   14ac6:	48 8d 85 78 da ff ff 	lea    -0x2588(%rbp),%rax
   14acd:	48 89 85 60 e0 ff ff 	mov    %rax,-0x1fa0(%rbp)
   14ad4:	48 8d 85 78 da ff ff 	lea    -0x2588(%rbp),%rax
   14adb:	48 89 85 68 e0 ff ff 	mov    %rax,-0x1f98(%rbp)
   14ae2:	48 8d 85 78 da ff ff 	lea    -0x2588(%rbp),%rax
   14ae9:	48 89 85 70 e0 ff ff 	mov    %rax,-0x1f90(%rbp)
   14af0:	48 8d 85 78 da ff ff 	lea    -0x2588(%rbp),%rax
   14af7:	48 89 85 78 e0 ff ff 	mov    %rax,-0x1f88(%rbp)
   14afe:	48 8d 85 78 da ff ff 	lea    -0x2588(%rbp),%rax
   14b05:	48 89 85 80 e0 ff ff 	mov    %rax,-0x1f80(%rbp)
   14b0c:	48 8d 85 78 da ff ff 	lea    -0x2588(%rbp),%rax
   14b13:	48 89 85 88 e0 ff ff 	mov    %rax,-0x1f78(%rbp)
   14b1a:	48 8d 85 78 da ff ff 	lea    -0x2588(%rbp),%rax
   14b21:	48 89 85 90 e0 ff ff 	mov    %rax,-0x1f70(%rbp)
   14b28:	48 8d 85 78 da ff ff 	lea    -0x2588(%rbp),%rax
   14b2f:	48 89 85 98 e0 ff ff 	mov    %rax,-0x1f68(%rbp)
   14b36:	48 8d 85 78 da ff ff 	lea    -0x2588(%rbp),%rax
   14b3d:	48 89 85 a0 e0 ff ff 	mov    %rax,-0x1f60(%rbp)
   14b44:	48 8d 85 78 da ff ff 	lea    -0x2588(%rbp),%rax
   14b4b:	48 89 85 a8 e0 ff ff 	mov    %rax,-0x1f58(%rbp)
   14b52:	48 8d 05 e3 a4 00 00 	lea    0xa4e3(%rip),%rax        # 1f03c <g_41>
   14b59:	48 89 85 80 da ff ff 	mov    %rax,-0x2580(%rbp)
   14b60:	48 8d 85 80 da ff ff 	lea    -0x2580(%rbp),%rax
   14b67:	48 89 85 88 da ff ff 	mov    %rax,-0x2578(%rbp)
   14b6e:	48 8d 85 30 e0 ff ff 	lea    -0x1fd0(%rbp),%rax
   14b75:	48 83 c0 18          	add    $0x18,%rax
   14b79:	48 89 85 90 da ff ff 	mov    %rax,-0x2570(%rbp)
   14b80:	c6 85 bd d9 ff ff 05 	movb   $0x5,-0x2643(%rbp)
   14b87:	c7 85 ec d9 ff ff 00 	movl   $0x0,-0x2614(%rbp)
   14b8e:	00 00 00 
   14b91:	eb 47                	jmp    14bda <func_64+0x139e>
   14b93:	c7 85 f0 d9 ff ff 00 	movl   $0x0,-0x2610(%rbp)
   14b9a:	00 00 00 
   14b9d:	eb 2b                	jmp    14bca <func_64+0x138e>
   14b9f:	8b 85 f0 d9 ff ff    	mov    -0x2610(%rbp),%eax
   14ba5:	48 98                	cltq   
   14ba7:	8b 95 ec d9 ff ff    	mov    -0x2614(%rbp),%edx
   14bad:	48 63 d2             	movslq %edx,%rdx
   14bb0:	48 c1 e2 03          	shl    $0x3,%rdx
   14bb4:	48 01 d0             	add    %rdx,%rax
   14bb7:	48 c7 84 c5 b0 f2 ff 	movq   $0x0,-0xd50(%rbp,%rax,8)
   14bbe:	ff 00 00 00 00 
   14bc3:	83 85 f0 d9 ff ff 01 	addl   $0x1,-0x2610(%rbp)
   14bca:	83 bd f0 d9 ff ff 07 	cmpl   $0x7,-0x2610(%rbp)
   14bd1:	7e cc                	jle    14b9f <func_64+0x1363>
   14bd3:	83 85 ec d9 ff ff 01 	addl   $0x1,-0x2614(%rbp)
   14bda:	83 bd ec d9 ff ff 08 	cmpl   $0x8,-0x2614(%rbp)
   14be1:	7e b0                	jle    14b93 <func_64+0x1357>
   14be3:	c7 85 ec d9 ff ff 00 	movl   $0x0,-0x2614(%rbp)
   14bea:	00 00 00 
   14bed:	eb 19                	jmp    14c08 <func_64+0x13cc>
   14bef:	8b 85 ec d9 ff ff    	mov    -0x2614(%rbp),%eax
   14bf5:	48 98                	cltq   
   14bf7:	66 c7 84 45 fe dc ff 	movw   $0xfff7,-0x2302(%rbp,%rax,2)
   14bfe:	ff f7 ff 
   14c01:	83 85 ec d9 ff ff 01 	addl   $0x1,-0x2614(%rbp)
   14c08:	83 bd ec d9 ff ff 02 	cmpl   $0x2,-0x2614(%rbp)
   14c0f:	7e de                	jle    14bef <func_64+0x13b3>
   14c11:	81 a5 dc d9 ff ff 38 	andl   $0xa8693438,-0x2624(%rbp)
   14c18:	34 69 a8 
   14c1b:	8b 9d ac d9 ff ff    	mov    -0x2654(%rbp),%ebx
   14c21:	0f b7 85 58 dd ff ff 	movzwl -0x22a8(%rbp),%eax
   14c28:	44 0f b7 e0          	movzwl %ax,%r12d
   14c2c:	44 8b ad dc d9 ff ff 	mov    -0x2624(%rbp),%r13d
   14c33:	8b 85 dc d9 ff ff    	mov    -0x2624(%rbp),%eax
   14c39:	44 0f b7 f0          	movzwl %ax,%r14d
   14c3d:	48 8b 85 70 da ff ff 	mov    -0x2590(%rbp),%rax
   14c44:	48 8d 15 b7 a7 00 00 	lea    0xa7b7(%rip),%rdx        # 1f402 <g_109>
   14c4b:	48 89 10             	mov    %rdx,(%rax)
   14c4e:	be 00 00 00 00       	mov    $0x0,%esi
   14c53:	bf fe ff ff ff       	mov    $0xfffffffe,%edi
   14c58:	e8 5b 52 ff ff       	callq  9eb8 <safe_add_func_uint32_t_u_u>
   14c5d:	89 c2                	mov    %eax,%edx
   14c5f:	48 8b 05 ba d0 00 00 	mov    0xd0ba(%rip),%rax        # 21d20 <g_105>
   14c66:	48 89 05 b3 d0 00 00 	mov    %rax,0xd0b3(%rip)        # 21d20 <g_105>
   14c6d:	48 8b 0d ac d0 00 00 	mov    0xd0ac(%rip),%rcx        # 21d20 <g_105>
   14c74:	48 8b 85 48 df ff ff 	mov    -0x20b8(%rbp),%rax
   14c7b:	48 39 c1             	cmp    %rax,%rcx
   14c7e:	74 1c                	je     14c9c <func_64+0x1460>
   14c80:	48 8b 05 01 e5 00 00 	mov    0xe501(%rip),%rax        # 23188 <g_110>
   14c87:	48 89 85 40 e3 ff ff 	mov    %rax,-0x1cc0(%rbp)
   14c8e:	48 8b 85 40 e3 ff ff 	mov    -0x1cc0(%rbp),%rax
   14c95:	48 39 85 a8 da ff ff 	cmp    %rax,-0x2558(%rbp)
   14c9c:	89 d6                	mov    %edx,%esi
   14c9e:	bf 00 00 00 00       	mov    $0x0,%edi
   14ca3:	e8 39 48 ff ff       	callq  94e1 <safe_lshift_func_int16_t_s_u>
   14ca8:	98                   	cwtl   
   14ca9:	39 85 dc d9 ff ff    	cmp    %eax,-0x2624(%rbp)
   14caf:	0f 9c c0             	setl   %al
   14cb2:	0f b6 c0             	movzbl %al,%eax
   14cb5:	44 89 f6             	mov    %r14d,%esi
   14cb8:	89 c7                	mov    %eax,%edi
   14cba:	e8 7e 50 ff ff       	callq  9d3d <safe_mul_func_uint16_t_u_u>
   14cbf:	0f b7 15 3c a7 00 00 	movzwl 0xa73c(%rip),%edx        # 1f402 <g_109>
   14cc6:	09 d0                	or     %edx,%eax
   14cc8:	0f b7 c0             	movzwl %ax,%eax
   14ccb:	0d ef 13 59 c4       	or     $0xc45913ef,%eax
   14cd0:	44 89 ee             	mov    %r13d,%esi
   14cd3:	89 c7                	mov    %eax,%edi
   14cd5:	e8 4b 52 ff ff       	callq  9f25 <safe_div_func_uint32_t_u_u>
   14cda:	8b 95 d8 d9 ff ff    	mov    -0x2628(%rbp),%edx
   14ce0:	39 d0                	cmp    %edx,%eax
   14ce2:	0f 93 c0             	setae  %al
   14ce5:	0f b6 c0             	movzbl %al,%eax
   14ce8:	be f9 d5 00 00       	mov    $0xd5f9,%esi
   14ced:	89 c7                	mov    %eax,%edi
   14cef:	e8 9a 50 ff ff       	callq  9d8e <safe_div_func_uint16_t_u_u>
   14cf4:	66 85 c0             	test   %ax,%ax
   14cf7:	75 0a                	jne    14d03 <func_64+0x14c7>
   14cf9:	8b 85 ac d9 ff ff    	mov    -0x2654(%rbp),%eax
   14cff:	85 c0                	test   %eax,%eax
   14d01:	74 07                	je     14d0a <func_64+0x14ce>
   14d03:	b8 01 00 00 00       	mov    $0x1,%eax
   14d08:	eb 05                	jmp    14d0f <func_64+0x14d3>
   14d0a:	b8 00 00 00 00       	mov    $0x0,%eax
   14d0f:	89 c2                	mov    %eax,%edx
   14d11:	8b 85 ac d9 ff ff    	mov    -0x2654(%rbp),%eax
   14d17:	39 c2                	cmp    %eax,%edx
   14d19:	0f 93 c0             	setae  %al
   14d1c:	0f b6 d0             	movzbl %al,%edx
   14d1f:	0f b6 05 16 a3 00 00 	movzbl 0xa316(%rip),%eax        # 1f03c <g_41>
   14d26:	0f b6 c0             	movzbl %al,%eax
   14d29:	48 39 c2             	cmp    %rax,%rdx
   14d2c:	0f 95 c0             	setne  %al
   14d2f:	0f b6 c0             	movzbl %al,%eax
   14d32:	be ac 00 00 00       	mov    $0xac,%esi
   14d37:	89 c7                	mov    %eax,%edi
   14d39:	e8 9d 4e ff ff       	callq  9bdb <safe_div_func_uint8_t_u_u>
   14d3e:	0f be c0             	movsbl %al,%eax
   14d41:	44 89 e6             	mov    %r12d,%esi
   14d44:	89 c7                	mov    %eax,%edi
   14d46:	e8 ea 45 ff ff       	callq  9335 <safe_rshift_func_int8_t_s_s>
   14d4b:	3c 06                	cmp    $0x6,%al
   14d4d:	0f 97 c0             	seta   %al
   14d50:	0f b6 c0             	movzbl %al,%eax
   14d53:	be 04 00 00 00       	mov    $0x4,%esi
   14d58:	89 c7                	mov    %eax,%edi
   14d5a:	e8 d6 45 ff ff       	callq  9335 <safe_rshift_func_int8_t_s_s>
   14d5f:	89 de                	mov    %ebx,%esi
   14d61:	bf 90 8e e1 bc       	mov    $0xbce18e90,%edi
   14d66:	e8 92 51 ff ff       	callq  9efd <safe_mod_func_uint32_t_u_u>
   14d6b:	0f be d0             	movsbl %al,%edx
   14d6e:	48 8b 85 60 da ff ff 	mov    -0x25a0(%rbp),%rax
   14d75:	0f b6 08             	movzbl (%rax),%ecx
   14d78:	48 8b 85 60 da ff ff 	mov    -0x25a0(%rbp),%rax
   14d7f:	83 f1 67             	xor    $0x67,%ecx
   14d82:	88 08                	mov    %cl,(%rax)
   14d84:	0f b6 00             	movzbl (%rax),%eax
   14d87:	0f be c0             	movsbl %al,%eax
   14d8a:	89 d6                	mov    %edx,%esi
   14d8c:	89 c7                	mov    %eax,%edi
   14d8e:	e8 7f 44 ff ff       	callq  9212 <safe_mul_func_int8_t_s_s>
   14d93:	8b 85 d8 d9 ff ff    	mov    -0x2628(%rbp),%eax
   14d99:	85 c0                	test   %eax,%eax
   14d9b:	0f 84 b3 0d 00 00    	je     15b54 <func_64+0x2318>
   14da1:	48 8d 85 d8 d9 ff ff 	lea    -0x2628(%rbp),%rax
   14da8:	48 89 85 98 da ff ff 	mov    %rax,-0x2568(%rbp)
   14daf:	48 8d 85 cc d9 ff ff 	lea    -0x2634(%rbp),%rax
   14db6:	48 89 85 80 dc ff ff 	mov    %rax,-0x2380(%rbp)
   14dbd:	48 8d 85 c0 e8 ff ff 	lea    -0x1740(%rbp),%rax
   14dc4:	48 8d 15 f5 cb 00 00 	lea    0xcbf5(%rip),%rdx        # 219c0 <g_1964+0x2120>
   14dcb:	b9 24 00 00 00       	mov    $0x24,%ecx
   14dd0:	48 89 c7             	mov    %rax,%rdi
   14dd3:	48 89 d6             	mov    %rdx,%rsi
   14dd6:	f3 48 a5             	rep movsq %ds:(%rsi),%es:(%rdi)
   14dd9:	48 8d 85 68 da ff ff 	lea    -0x2598(%rbp),%rax
   14de0:	48 89 85 88 dc ff ff 	mov    %rax,-0x2378(%rbp)
   14de7:	c7 85 f4 d9 ff ff 00 	movl   $0x0,-0x260c(%rbp)
   14dee:	00 00 00 
   14df1:	eb 1b                	jmp    14e0e <func_64+0x15d2>
   14df3:	8b 85 f4 d9 ff ff    	mov    -0x260c(%rbp),%eax
   14df9:	48 98                	cltq   
   14dfb:	48 c7 84 c5 70 dd ff 	movq   $0x0,-0x2290(%rbp,%rax,8)
   14e02:	ff 00 00 00 00 
   14e07:	83 85 f4 d9 ff ff 01 	addl   $0x1,-0x260c(%rbp)
   14e0e:	83 bd f4 d9 ff ff 04 	cmpl   $0x4,-0x260c(%rbp)
   14e15:	7e dc                	jle    14df3 <func_64+0x15b7>
   14e17:	0f b7 05 e8 a5 00 00 	movzwl 0xa5e8(%rip),%eax        # 1f406 <g_125>
   14e1e:	83 c0 01             	add    $0x1,%eax
   14e21:	66 89 05 de a5 00 00 	mov    %ax,0xa5de(%rip)        # 1f406 <g_125>
   14e28:	c6 05 0d a2 00 00 00 	movb   $0x0,0xa20d(%rip)        # 1f03c <g_41>
   14e2f:	90                   	nop
   14e30:	0f b6 05 05 a2 00 00 	movzbl 0xa205(%rip),%eax        # 1f03c <g_41>
   14e37:	3c 37                	cmp    $0x37,%al
   14e39:	0f 85 3a 0f 00 00    	jne    15d79 <func_64+0x253d>
   14e3f:	c6 85 be d9 ff ff 01 	movb   $0x1,-0x2642(%rbp)
   14e46:	48 8d 85 78 da ff ff 	lea    -0x2588(%rbp),%rax
   14e4d:	48 89 85 90 dc ff ff 	mov    %rax,-0x2370(%rbp)
   14e54:	48 8d 85 e0 e0 ff ff 	lea    -0x1f20(%rbp),%rax
   14e5b:	48 83 c0 3c          	add    $0x3c,%rax
   14e5f:	48 89 85 a0 da ff ff 	mov    %rax,-0x2560(%rbp)
   14e66:	48 8d 05 cb ce 00 00 	lea    0xcecb(%rip),%rax        # 21d38 <g_199>
   14e6d:	48 89 85 98 dc ff ff 	mov    %rax,-0x2368(%rbp)
   14e74:	48 8d 05 ad a5 00 00 	lea    0xa5ad(%rip),%rax        # 1f428 <g_267>
   14e7b:	48 89 85 a0 dc ff ff 	mov    %rax,-0x2360(%rbp)
   14e82:	48 8d 85 90 da ff ff 	lea    -0x2570(%rbp),%rax
   14e89:	48 89 85 a8 dc ff ff 	mov    %rax,-0x2358(%rbp)
   14e90:	8b 95 cc d9 ff ff    	mov    -0x2634(%rbp),%edx
   14e96:	48 8b 85 80 dc ff ff 	mov    -0x2380(%rbp),%rax
   14e9d:	89 10                	mov    %edx,(%rax)
   14e9f:	c7 85 dc d9 ff ff 00 	movl   $0x0,-0x2624(%rbp)
   14ea6:	00 00 00 
   14ea9:	e9 50 0b 00 00       	jmpq   159fe <func_64+0x21c2>
   14eae:	48 8d 05 7f a1 00 00 	lea    0xa17f(%rip),%rax        # 1f034 <g_4+0x4>
   14eb5:	48 89 85 20 dd ff ff 	mov    %rax,-0x22e0(%rbp)
   14ebc:	48 8d 05 71 a1 00 00 	lea    0xa171(%rip),%rax        # 1f034 <g_4+0x4>
   14ec3:	48 89 85 28 dd ff ff 	mov    %rax,-0x22d8(%rbp)
   14eca:	48 8d 05 63 a1 00 00 	lea    0xa163(%rip),%rax        # 1f034 <g_4+0x4>
   14ed1:	48 89 85 30 dd ff ff 	mov    %rax,-0x22d0(%rbp)
   14ed8:	48 8d 05 55 a1 00 00 	lea    0xa155(%rip),%rax        # 1f034 <g_4+0x4>
   14edf:	48 89 85 38 dd ff ff 	mov    %rax,-0x22c8(%rbp)
   14ee6:	48 c7 85 b0 dc ff ff 	movq   $0x0,-0x2350(%rbp)
   14eed:	00 00 00 00 
   14ef1:	48 8d 85 30 e0 ff ff 	lea    -0x1fd0(%rbp),%rax
   14ef8:	48 83 c0 08          	add    $0x8,%rax
   14efc:	48 89 85 10 de ff ff 	mov    %rax,-0x21f0(%rbp)
   14f03:	48 8d 85 30 e0 ff ff 	lea    -0x1fd0(%rbp),%rax
   14f0a:	48 83 c0 60          	add    $0x60,%rax
   14f0e:	48 89 85 18 de ff ff 	mov    %rax,-0x21e8(%rbp)
   14f15:	48 8d 85 30 e0 ff ff 	lea    -0x1fd0(%rbp),%rax
   14f1c:	48 83 c0 60          	add    $0x60,%rax
   14f20:	48 89 85 20 de ff ff 	mov    %rax,-0x21e0(%rbp)
   14f27:	48 8d 85 30 e0 ff ff 	lea    -0x1fd0(%rbp),%rax
   14f2e:	48 83 c0 08          	add    $0x8,%rax
   14f32:	48 89 85 28 de ff ff 	mov    %rax,-0x21d8(%rbp)
   14f39:	48 8d 85 30 e0 ff ff 	lea    -0x1fd0(%rbp),%rax
   14f40:	48 83 c0 60          	add    $0x60,%rax
   14f44:	48 89 85 30 de ff ff 	mov    %rax,-0x21d0(%rbp)
   14f4b:	48 8d 85 30 e0 ff ff 	lea    -0x1fd0(%rbp),%rax
   14f52:	48 83 c0 60          	add    $0x60,%rax
   14f56:	48 89 85 38 de ff ff 	mov    %rax,-0x21c8(%rbp)
   14f5d:	48 8d 85 30 e0 ff ff 	lea    -0x1fd0(%rbp),%rax
   14f64:	48 83 c0 08          	add    $0x8,%rax
   14f68:	48 89 85 40 de ff ff 	mov    %rax,-0x21c0(%rbp)
   14f6f:	48 8d 85 30 e0 ff ff 	lea    -0x1fd0(%rbp),%rax
   14f76:	48 83 c0 60          	add    $0x60,%rax
   14f7a:	48 89 85 48 de ff ff 	mov    %rax,-0x21b8(%rbp)
   14f81:	48 8d 85 30 e0 ff ff 	lea    -0x1fd0(%rbp),%rax
   14f88:	48 83 c0 60          	add    $0x60,%rax
   14f8c:	48 89 85 50 de ff ff 	mov    %rax,-0x21b0(%rbp)
   14f93:	48 8d 85 b0 de ff ff 	lea    -0x2150(%rbp),%rax
   14f9a:	48 83 c0 48          	add    $0x48,%rax
   14f9e:	48 89 85 b8 dc ff ff 	mov    %rax,-0x2348(%rbp)
   14fa5:	48 8d 85 00 df ff ff 	lea    -0x2100(%rbp),%rax
   14fac:	48 83 c0 48          	add    $0x48,%rax
   14fb0:	48 89 85 d0 dd ff ff 	mov    %rax,-0x2230(%rbp)
   14fb7:	48 8d 85 00 df ff ff 	lea    -0x2100(%rbp),%rax
   14fbe:	48 83 c0 48          	add    $0x48,%rax
   14fc2:	48 89 85 d8 dd ff ff 	mov    %rax,-0x2228(%rbp)
   14fc9:	48 8d 85 00 df ff ff 	lea    -0x2100(%rbp),%rax
   14fd0:	48 83 c0 48          	add    $0x48,%rax
   14fd4:	48 89 85 e0 dd ff ff 	mov    %rax,-0x2220(%rbp)
   14fdb:	48 8d 85 00 df ff ff 	lea    -0x2100(%rbp),%rax
   14fe2:	48 83 c0 48          	add    $0x48,%rax
   14fe6:	48 89 85 e8 dd ff ff 	mov    %rax,-0x2218(%rbp)
   14fed:	48 8d 85 00 df ff ff 	lea    -0x2100(%rbp),%rax
   14ff4:	48 83 c0 48          	add    $0x48,%rax
   14ff8:	48 89 85 f0 dd ff ff 	mov    %rax,-0x2210(%rbp)
   14fff:	48 8d 85 00 df ff ff 	lea    -0x2100(%rbp),%rax
   15006:	48 83 c0 48          	add    $0x48,%rax
   1500a:	48 89 85 f8 dd ff ff 	mov    %rax,-0x2208(%rbp)
   15011:	48 8d 85 00 df ff ff 	lea    -0x2100(%rbp),%rax
   15018:	48 83 c0 48          	add    $0x48,%rax
   1501c:	48 89 85 00 de ff ff 	mov    %rax,-0x2200(%rbp)
   15023:	48 c7 85 c0 dc ff ff 	movq   $0x0,-0x2340(%rbp)
   1502a:	00 00 00 00 
   1502e:	c7 85 d8 d9 ff ff 00 	movl   $0x0,-0x2628(%rbp)
   15035:	00 00 00 
   15038:	e9 62 01 00 00       	jmpq   1519f <func_64+0x1963>
   1503d:	48 8d 85 98 da ff ff 	lea    -0x2568(%rbp),%rax
   15044:	48 89 85 e8 dc ff ff 	mov    %rax,-0x2318(%rbp)
   1504b:	48 c7 85 f0 dc ff ff 	movq   $0x0,-0x2310(%rbp)
   15052:	00 00 00 00 
   15056:	c7 85 f8 d9 ff ff 00 	movl   $0x0,-0x2608(%rbp)
   1505d:	00 00 00 
   15060:	eb 1e                	jmp    15080 <func_64+0x1844>
   15062:	8b 85 f8 d9 ff ff    	mov    -0x2608(%rbp),%eax
   15068:	48 98                	cltq   
   1506a:	48 8d 15 97 a3 00 00 	lea    0xa397(%rip),%rdx        # 1f408 <g_143>
   15071:	48 89 94 c5 b0 ec ff 	mov    %rdx,-0x1350(%rbp,%rax,8)
   15078:	ff 
   15079:	83 85 f8 d9 ff ff 01 	addl   $0x1,-0x2608(%rbp)
   15080:	83 bd f8 d9 ff ff 08 	cmpl   $0x8,-0x2608(%rbp)
   15087:	7e d9                	jle    15062 <func_64+0x1826>
   15089:	48 8b 95 20 dd ff ff 	mov    -0x22e0(%rbp),%rdx
   15090:	48 8b 85 e8 dc ff ff 	mov    -0x2318(%rbp),%rax
   15097:	48 89 10             	mov    %rdx,(%rax)
   1509a:	8b 85 ac d9 ff ff    	mov    -0x2654(%rbp),%eax
   150a0:	85 c0                	test   %eax,%eax
   150a2:	0f 85 e7 00 00 00    	jne    1518f <func_64+0x1953>
   150a8:	8b 85 ac d9 ff ff    	mov    -0x2654(%rbp),%eax
   150ae:	89 c2                	mov    %eax,%edx
   150b0:	48 8b 85 80 dc ff ff 	mov    -0x2380(%rbp),%rax
   150b7:	89 10                	mov    %edx,(%rax)
   150b9:	80 bd be d9 ff ff 00 	cmpb   $0x0,-0x2642(%rbp)
   150c0:	75 7c                	jne    1513e <func_64+0x1902>
   150c2:	0f b6 05 37 a3 00 00 	movzbl 0xa337(%rip),%eax        # 1f400 <g_88>
   150c9:	66 0f be d8          	movsbw %al,%bx
   150cd:	8b 85 ac d9 ff ff    	mov    -0x2654(%rbp),%eax
   150d3:	89 c6                	mov    %eax,%esi
   150d5:	bf a8 47 00 00       	mov    $0x47a8,%edi
   150da:	e8 b3 43 ff ff       	callq  9492 <safe_lshift_func_int16_t_s_s>
   150df:	66 39 c3             	cmp    %ax,%bx
   150e2:	0f 95 c0             	setne  %al
   150e5:	0f b6 c0             	movzbl %al,%eax
   150e8:	21 85 e8 d9 ff ff    	and    %eax,-0x2618(%rbp)
   150ee:	8b 85 e8 d9 ff ff    	mov    -0x2618(%rbp),%eax
   150f4:	48 63 d8             	movslq %eax,%rbx
   150f7:	8b 85 ac d9 ff ff    	mov    -0x2654(%rbp),%eax
   150fd:	89 c1                	mov    %eax,%ecx
   150ff:	0f b6 15 fa a2 00 00 	movzbl 0xa2fa(%rip),%edx        # 1f400 <g_88>
   15106:	0f b6 05 f7 a2 00 00 	movzbl 0xa2f7(%rip),%eax        # 1f404 <g_113>
   1510d:	38 c2                	cmp    %al,%dl
   1510f:	0f 9c c0             	setl   %al
   15112:	0f b6 c0             	movzbl %al,%eax
   15115:	48 89 ce             	mov    %rcx,%rsi
   15118:	48 89 c7             	mov    %rax,%rdi
   1511b:	e8 d7 48 ff ff       	callq  99f7 <safe_div_func_int64_t_s_s>
   15120:	8b 95 cc d9 ff ff    	mov    -0x2634(%rbp),%edx
   15126:	48 63 d2             	movslq %edx,%rdx
   15129:	48 21 d0             	and    %rdx,%rax
   1512c:	48 39 c3             	cmp    %rax,%rbx
   1512f:	be 3f be 00 00       	mov    $0xbe3f,%esi
   15134:	bf 4d a6 00 00       	mov    $0xa64d,%edi
   15139:	e8 1e 4c ff ff       	callq  9d5c <safe_mod_func_uint16_t_u_u>
   1513e:	ba 01 00 00 00       	mov    $0x1,%edx
   15143:	0f b6 05 ba a2 00 00 	movzbl 0xa2ba(%rip),%eax        # 1f404 <g_113>
   1514a:	0f be c0             	movsbl %al,%eax
   1514d:	39 c2                	cmp    %eax,%edx
   1514f:	0f 9c c0             	setl   %al
   15152:	0f b6 d0             	movzbl %al,%edx
   15155:	0f b7 05 a6 a2 00 00 	movzwl 0xa2a6(%rip),%eax        # 1f402 <g_109>
   1515c:	89 c1                	mov    %eax,%ecx
   1515e:	8b 85 48 e1 ff ff    	mov    -0x1eb8(%rbp),%eax
   15164:	31 d0                	xor    %edx,%eax
   15166:	89 85 48 e1 ff ff    	mov    %eax,-0x1eb8(%rbp)
   1516c:	8b 85 48 e1 ff ff    	mov    -0x1eb8(%rbp),%eax
   15172:	09 c8                	or     %ecx,%eax
   15174:	88 05 9c a2 00 00    	mov    %al,0xa29c(%rip)        # 1f416 <g_148+0x6>
   1517a:	0f b6 05 95 a2 00 00 	movzbl 0xa295(%rip),%eax        # 1f416 <g_148+0x6>
   15181:	0f be d0             	movsbl %al,%edx
   15184:	48 8b 85 80 dc ff ff 	mov    -0x2380(%rbp),%rax
   1518b:	89 10                	mov    %edx,(%rax)
   1518d:	eb 01                	jmp    15190 <func_64+0x1954>
   1518f:	90                   	nop
   15190:	8b 85 d8 d9 ff ff    	mov    -0x2628(%rbp),%eax
   15196:	83 c0 01             	add    $0x1,%eax
   15199:	89 85 d8 d9 ff ff    	mov    %eax,-0x2628(%rbp)
   1519f:	8b 85 d8 d9 ff ff    	mov    -0x2628(%rbp),%eax
   151a5:	83 f8 0b             	cmp    $0xb,%eax
   151a8:	0f 8e 8f fe ff ff    	jle    1503d <func_64+0x1801>
   151ae:	8b 85 ac d9 ff ff    	mov    -0x2654(%rbp),%eax
   151b4:	0f be d8             	movsbl %al,%ebx
   151b7:	48 8b 05 62 cb 00 00 	mov    0xcb62(%rip),%rax        # 21d20 <g_105>
   151be:	0f b7 00             	movzwl (%rax),%eax
   151c1:	44 0f b7 e0          	movzwl %ax,%r12d
   151c5:	8b 85 ac d9 ff ff    	mov    -0x2654(%rbp),%eax
   151cb:	89 c2                	mov    %eax,%edx
   151cd:	48 8b 05 bc df 00 00 	mov    0xdfbc(%rip),%rax        # 23190 <g_162>
   151d4:	48 85 c0             	test   %rax,%rax
   151d7:	0f 94 c0             	sete   %al
   151da:	0f b6 c0             	movzbl %al,%eax
   151dd:	89 d6                	mov    %edx,%esi
   151df:	89 c7                	mov    %eax,%edi
   151e1:	e8 1f 44 ff ff       	callq  9605 <safe_sub_func_int32_t_s_s>
   151e6:	0f b6 c0             	movzbl %al,%eax
   151e9:	25 b3 00 00 00       	and    $0xb3,%eax
   151ee:	89 c2                	mov    %eax,%edx
   151f0:	48 8b 85 b8 dc ff ff 	mov    -0x2348(%rbp),%rax
   151f7:	48 8d 8d 60 da ff ff 	lea    -0x25a0(%rbp),%rcx
   151fe:	48 89 08             	mov    %rcx,(%rax)
   15201:	48 8b 85 b8 dc ff ff 	mov    -0x2348(%rbp),%rax
   15208:	48 8b 08             	mov    (%rax),%rcx
   1520b:	48 8d 85 58 da ff ff 	lea    -0x25a8(%rbp),%rax
   15212:	48 39 c1             	cmp    %rax,%rcx
   15215:	0f 95 c0             	setne  %al
   15218:	0f b6 c0             	movzbl %al,%eax
   1521b:	89 d6                	mov    %edx,%esi
   1521d:	89 c7                	mov    %eax,%edi
   1521f:	e8 36 49 ff ff       	callq  9b5a <safe_add_func_uint8_t_u_u>
   15224:	0f b7 85 fe dc ff ff 	movzwl -0x2302(%rbp),%eax
   1522b:	0f b7 d0             	movzwl %ax,%edx
   1522e:	8b 85 cc d9 ff ff    	mov    -0x2634(%rbp),%eax
   15234:	31 d0                	xor    %edx,%eax
   15236:	89 85 cc d9 ff ff    	mov    %eax,-0x2634(%rbp)
   1523c:	8b 85 cc d9 ff ff    	mov    -0x2634(%rbp),%eax
   15242:	85 c0                	test   %eax,%eax
   15244:	74 09                	je     1524f <func_64+0x1a13>
   15246:	80 bd be d9 ff ff 00 	cmpb   $0x0,-0x2642(%rbp)
   1524d:	75 0b                	jne    1525a <func_64+0x1a1e>
   1524f:	0f b6 05 e6 9d 00 00 	movzbl 0x9de6(%rip),%eax        # 1f03c <g_41>
   15256:	84 c0                	test   %al,%al
   15258:	74 07                	je     15261 <func_64+0x1a25>
   1525a:	b8 01 00 00 00       	mov    $0x1,%eax
   1525f:	eb 05                	jmp    15266 <func_64+0x1a2a>
   15261:	b8 00 00 00 00       	mov    $0x0,%eax
   15266:	3b 85 dc d9 ff ff    	cmp    -0x2624(%rbp),%eax
   1526c:	0f 9c c0             	setl   %al
   1526f:	0f b6 d0             	movzbl %al,%edx
   15272:	0f b6 05 c3 9d 00 00 	movzbl 0x9dc3(%rip),%eax        # 1f03c <g_41>
   15279:	0f b6 c0             	movzbl %al,%eax
   1527c:	21 d0                	and    %edx,%eax
   1527e:	41 39 c4             	cmp    %eax,%r12d
   15281:	0f 9f c0             	setg   %al
   15284:	0f b6 c8             	movzbl %al,%ecx
   15287:	48 8b 85 38 e0 ff ff 	mov    -0x1fc8(%rbp),%rax
   1528e:	48 89 85 90 e0 ff ff 	mov    %rax,-0x1f70(%rbp)
   15295:	48 8b 85 90 e0 ff ff 	mov    -0x1f70(%rbp),%rax
   1529c:	48 85 c0             	test   %rax,%rax
   1529f:	0f 95 c0             	setne  %al
   152a2:	89 c6                	mov    %eax,%esi
   152a4:	48 8b 85 60 da ff ff 	mov    -0x25a0(%rbp),%rax
   152ab:	0f b6 10             	movzbl (%rax),%edx
   152ae:	48 8b 85 60 da ff ff 	mov    -0x25a0(%rbp),%rax
   152b5:	09 ca                	or     %ecx,%edx
   152b7:	88 10                	mov    %dl,(%rax)
   152b9:	0f b6 00             	movzbl (%rax),%eax
   152bc:	31 f0                	xor    %esi,%eax
   152be:	0f be c0             	movsbl %al,%eax
   152c1:	89 de                	mov    %ebx,%esi
   152c3:	89 c7                	mov    %eax,%edi
   152c5:	e8 28 3f ff ff       	callq  91f2 <safe_sub_func_int8_t_s_s>
   152ca:	0f b7 05 31 a1 00 00 	movzwl 0xa131(%rip),%eax        # 1f402 <g_109>
   152d1:	0f b7 d0             	movzwl %ax,%edx
   152d4:	0f b6 05 3b a1 00 00 	movzbl 0xa13b(%rip),%eax        # 1f416 <g_148+0x6>
   152db:	0f be c0             	movsbl %al,%eax
   152de:	39 c2                	cmp    %eax,%edx
   152e0:	0f 8e 17 02 00 00    	jle    154fd <func_64+0x1cc1>
   152e6:	c6 85 bf d9 ff ff ff 	movb   $0xff,-0x2641(%rbp)
   152ed:	48 8d 05 2e a1 00 00 	lea    0xa12e(%rip),%rax        # 1f422 <g_194>
   152f4:	48 89 85 d0 dc ff ff 	mov    %rax,-0x2330(%rbp)
   152fb:	c7 85 fc d9 ff ff 00 	movl   $0x0,-0x2604(%rbp)
   15302:	00 00 00 
   15305:	eb 1b                	jmp    15322 <func_64+0x1ae6>
   15307:	8b 85 fc d9 ff ff    	mov    -0x2604(%rbp),%eax
   1530d:	48 98                	cltq   
   1530f:	48 c7 84 c5 b0 ec ff 	movq   $0x0,-0x1350(%rbp,%rax,8)
   15316:	ff 00 00 00 00 
   1531b:	83 85 fc d9 ff ff 01 	addl   $0x1,-0x2604(%rbp)
   15322:	83 bd fc d9 ff ff 03 	cmpl   $0x3,-0x2604(%rbp)
   15329:	7e dc                	jle    15307 <func_64+0x1acb>
   1532b:	0f b6 85 bf d9 ff ff 	movzbl -0x2641(%rbp),%eax
   15332:	83 e8 01             	sub    $0x1,%eax
   15335:	88 85 bf d9 ff ff    	mov    %al,-0x2641(%rbp)
   1533b:	0f b6 05 d7 a0 00 00 	movzbl 0xa0d7(%rip),%eax        # 1f419 <g_167>
   15342:	83 e0 c3             	and    $0xffffffc3,%eax
   15345:	88 05 ce a0 00 00    	mov    %al,0xa0ce(%rip)        # 1f419 <g_167>
   1534b:	48 c7 05 d2 c9 00 00 	movq   $0x0,0xc9d2(%rip)        # 21d28 <g_169>
   15352:	00 00 00 00 
   15356:	48 8b 85 80 dc ff ff 	mov    -0x2380(%rbp),%rax
   1535d:	8b 00                	mov    (%rax),%eax
   1535f:	89 c2                	mov    %eax,%edx
   15361:	8b 85 ac d9 ff ff    	mov    -0x2654(%rbp),%eax
   15367:	21 d0                	and    %edx,%eax
   15369:	89 c2                	mov    %eax,%edx
   1536b:	48 8b 85 80 dc ff ff 	mov    -0x2380(%rbp),%rax
   15372:	89 10                	mov    %edx,(%rax)
   15374:	48 8b 85 80 dc ff ff 	mov    -0x2380(%rbp),%rax
   1537b:	44 8b 28             	mov    (%rax),%r13d
   1537e:	8b 85 dc d9 ff ff    	mov    -0x2624(%rbp),%eax
   15384:	0f b7 d8             	movzwl %ax,%ebx
   15387:	0f b6 05 8b a0 00 00 	movzbl 0xa08b(%rip),%eax        # 1f419 <g_167>
   1538e:	44 0f b6 e0          	movzbl %al,%r12d
   15392:	48 8b 85 70 da ff ff 	mov    -0x2590(%rbp),%rax
   15399:	48 8b 00             	mov    (%rax),%rax
   1539c:	66 c7 00 00 00       	movw   $0x0,(%rax)
   153a1:	48 8b 05 78 c9 00 00 	mov    0xc978(%rip),%rax        # 21d20 <g_105>
   153a8:	0f b7 00             	movzwl (%rax),%eax
   153ab:	0f b7 d0             	movzwl %ax,%edx
   153ae:	8b 85 ac d9 ff ff    	mov    -0x2654(%rbp),%eax
   153b4:	98                   	cwtl   
   153b5:	89 d6                	mov    %edx,%esi
   153b7:	89 c7                	mov    %eax,%edi
   153b9:	e8 23 41 ff ff       	callq  94e1 <safe_lshift_func_int16_t_s_u>
   153be:	66 85 c0             	test   %ax,%ax
   153c1:	0f 94 c0             	sete   %al
   153c4:	0f b6 c0             	movzbl %al,%eax
   153c7:	be 05 00 00 00       	mov    $0x5,%esi
   153cc:	89 c7                	mov    %eax,%edi
   153ce:	e8 eb 48 ff ff       	callq  9cbe <safe_rshift_func_uint8_t_u_u>
   153d3:	0f be c0             	movsbl %al,%eax
   153d6:	44 89 e6             	mov    %r12d,%esi
   153d9:	89 c7                	mov    %eax,%edi
   153db:	e8 55 3f ff ff       	callq  9335 <safe_rshift_func_int8_t_s_s>
   153e0:	0f be c0             	movsbl %al,%eax
   153e3:	be 3b 00 00 00       	mov    $0x3b,%esi
   153e8:	89 c7                	mov    %eax,%edi
   153ea:	e8 e5 3d ff ff       	callq  91d4 <safe_add_func_int8_t_s_s>
   153ef:	84 c0                	test   %al,%al
   153f1:	75 0c                	jne    153ff <func_64+0x1bc3>
   153f3:	0f b7 85 58 dd ff ff 	movzwl -0x22a8(%rbp),%eax
   153fa:	66 85 c0             	test   %ax,%ax
   153fd:	74 07                	je     15406 <func_64+0x1bca>
   153ff:	b8 01 00 00 00       	mov    $0x1,%eax
   15404:	eb 05                	jmp    1540b <func_64+0x1bcf>
   15406:	b8 00 00 00 00       	mov    $0x0,%eax
   1540b:	44 0f b6 e0          	movzbl %al,%r12d
   1540f:	8b 85 ac d9 ff ff    	mov    -0x2654(%rbp),%eax
   15415:	89 c2                	mov    %eax,%edx
   15417:	0f b6 05 02 a0 00 00 	movzbl 0xa002(%rip),%eax        # 1f420 <g_184>
   1541e:	09 d0                	or     %edx,%eax
   15420:	88 05 fa 9f 00 00    	mov    %al,0x9ffa(%rip)        # 1f420 <g_184>
   15426:	0f b6 05 f3 9f 00 00 	movzbl 0x9ff3(%rip),%eax        # 1f420 <g_184>
   1542d:	0f be c0             	movsbl %al,%eax
   15430:	be 66 94 30 1b       	mov    $0x1b309466,%esi
   15435:	89 c7                	mov    %eax,%edi
   15437:	e8 7c 4a ff ff       	callq  9eb8 <safe_add_func_uint32_t_u_u>
   1543c:	0f b6 c0             	movzbl %al,%eax
   1543f:	44 89 e6             	mov    %r12d,%esi
   15442:	89 c7                	mov    %eax,%edi
   15444:	e8 92 47 ff ff       	callq  9bdb <safe_div_func_uint8_t_u_u>
   15449:	0f b6 05 c4 9f 00 00 	movzbl 0x9fc4(%rip),%eax        # 1f414 <g_148+0x4>
   15450:	0f be d0             	movsbl %al,%edx
   15453:	8b 85 ac d9 ff ff    	mov    -0x2654(%rbp),%eax
   15459:	39 c2                	cmp    %eax,%edx
   1545b:	0f 95 c0             	setne  %al
   1545e:	0f b6 d0             	movzbl %al,%edx
   15461:	48 8b 05 b8 c8 00 00 	mov    0xc8b8(%rip),%rax        # 21d20 <g_105>
   15468:	0f b7 00             	movzwl (%rax),%eax
   1546b:	0f b7 c0             	movzwl %ax,%eax
   1546e:	39 c2                	cmp    %eax,%edx
   15470:	0f 9c c0             	setl   %al
   15473:	0f b6 c0             	movzbl %al,%eax
   15476:	89 de                	mov    %ebx,%esi
   15478:	89 c7                	mov    %eax,%edi
   1547a:	e8 dd 48 ff ff       	callq  9d5c <safe_mod_func_uint16_t_u_u>
   1547f:	8b 85 ac d9 ff ff    	mov    -0x2654(%rbp),%eax
   15485:	0f b7 d0             	movzwl %ax,%edx
   15488:	48 8b 05 91 c8 00 00 	mov    0xc891(%rip),%rax        # 21d20 <g_105>
   1548f:	0f b7 00             	movzwl (%rax),%eax
   15492:	0f b7 c0             	movzwl %ax,%eax
   15495:	89 d6                	mov    %edx,%esi
   15497:	89 c7                	mov    %eax,%edi
   15499:	e8 be 48 ff ff       	callq  9d5c <safe_mod_func_uint16_t_u_u>
   1549e:	0f b6 c0             	movzbl %al,%eax
   154a1:	be 78 00 00 00       	mov    $0x78,%esi
   154a6:	89 c7                	mov    %eax,%edi
   154a8:	e8 ad 46 ff ff       	callq  9b5a <safe_add_func_uint8_t_u_u>
   154ad:	48 8b 85 d0 dc ff ff 	mov    -0x2330(%rbp),%rax
   154b4:	66 c7 00 ff ff       	movw   $0xffff,(%rax)
   154b9:	48 8b 85 d0 dc ff ff 	mov    -0x2330(%rbp),%rax
   154c0:	0f b7 00             	movzwl (%rax),%eax
   154c3:	0f bf d0             	movswl %ax,%edx
   154c6:	8b 85 ac d9 ff ff    	mov    -0x2654(%rbp),%eax
   154cc:	0f b7 c0             	movzwl %ax,%eax
   154cf:	89 d6                	mov    %edx,%esi
   154d1:	89 c7                	mov    %eax,%edi
   154d3:	e8 e6 48 ff ff       	callq  9dbe <safe_lshift_func_uint16_t_u_s>
   154d8:	0f b7 c0             	movzwl %ax,%eax
   154db:	41 39 c5             	cmp    %eax,%r13d
   154de:	0f 9e c0             	setle  %al
   154e1:	0f b6 d0             	movzbl %al,%edx
   154e4:	8b 05 4e 9b 00 00    	mov    0x9b4e(%rip),%eax        # 1f038 <g_4+0x8>
   154ea:	39 c2                	cmp    %eax,%edx
   154ec:	0f 94 c0             	sete   %al
   154ef:	0f b6 c0             	movzbl %al,%eax
   154f2:	89 85 b0 e8 ff ff    	mov    %eax,-0x1750(%rbp)
   154f8:	e9 b5 00 00 00       	jmpq   155b2 <func_64+0x1d76>
   154fd:	48 8d 85 88 da ff ff 	lea    -0x2578(%rbp),%rax
   15504:	48 89 85 c8 dc ff ff 	mov    %rax,-0x2338(%rbp)
   1550b:	c7 85 00 da ff ff 00 	movl   $0x0,-0x2600(%rbp)
   15512:	00 00 00 
   15515:	eb 1e                	jmp    15535 <func_64+0x1cf9>
   15517:	8b 85 00 da ff ff    	mov    -0x2600(%rbp),%eax
   1551d:	48 98                	cltq   
   1551f:	48 8d 15 12 c8 00 00 	lea    0xc812(%rip),%rdx        # 21d38 <g_199>
   15526:	48 89 94 c5 b0 ec ff 	mov    %rdx,-0x1350(%rbp,%rax,8)
   1552d:	ff 
   1552e:	83 85 00 da ff ff 01 	addl   $0x1,-0x2600(%rbp)
   15535:	83 bd 00 da ff ff 01 	cmpl   $0x1,-0x2600(%rbp)
   1553c:	7e d9                	jle    15517 <func_64+0x1cdb>
   1553e:	48 8b 95 88 da ff ff 	mov    -0x2578(%rbp),%rdx
   15545:	48 8b 85 c8 dc ff ff 	mov    -0x2338(%rbp),%rax
   1554c:	48 89 10             	mov    %rdx,(%rax)
   1554f:	48 8b 05 e2 c7 00 00 	mov    0xc7e2(%rip),%rax        # 21d38 <g_199>
   15556:	48 89 85 c0 da ff ff 	mov    %rax,-0x2540(%rbp)
   1555d:	48 8b 85 c0 da ff ff 	mov    -0x2540(%rbp),%rax
   15564:	48 89 85 78 dd ff ff 	mov    %rax,-0x2288(%rbp)
   1556b:	48 8b 95 78 dd ff ff 	mov    -0x2288(%rbp),%rdx
   15572:	48 8b 85 88 dc ff ff 	mov    -0x2378(%rbp),%rax
   15579:	48 89 85 e0 dd ff ff 	mov    %rax,-0x2220(%rbp)
   15580:	48 8b 85 e0 dd ff ff 	mov    -0x2220(%rbp),%rax
   15587:	48 39 c2             	cmp    %rax,%rdx
   1558a:	0f 94 c0             	sete   %al
   1558d:	0f b6 d0             	movzbl %al,%edx
   15590:	48 8b 85 80 dc ff ff 	mov    -0x2380(%rbp),%rax
   15597:	8b 00                	mov    (%rax),%eax
   15599:	21 c2                	and    %eax,%edx
   1559b:	48 8b 85 80 dc ff ff 	mov    -0x2380(%rbp),%rax
   155a2:	89 10                	mov    %edx,(%rax)
   155a4:	8b 85 ac d9 ff ff    	mov    -0x2654(%rbp),%eax
   155aa:	85 c0                	test   %eax,%eax
   155ac:	0f 85 59 04 00 00    	jne    15a0b <func_64+0x21cf>
   155b2:	c7 85 d8 d9 ff ff 1a 	movl   $0x1a,-0x2628(%rbp)
   155b9:	00 00 00 
   155bc:	e9 27 04 00 00       	jmpq   159e8 <func_64+0x21ac>
   155c1:	48 b8 00 34 00 34 00 	movabs $0x3400340034003400,%rax
   155c8:	34 00 34 
   155cb:	48 89 45 bf          	mov    %rax,-0x41(%rbp)
   155cf:	c6 45 c7 00          	movb   $0x0,-0x39(%rbp)
   155d3:	c7 85 44 da ff ff 04 	movl   $0x4,-0x25bc(%rbp)
   155da:	00 00 00 
   155dd:	48 8d 85 70 dd ff ff 	lea    -0x2290(%rbp),%rax
   155e4:	48 83 c0 10          	add    $0x10,%rax
   155e8:	48 89 85 60 de ff ff 	mov    %rax,-0x21a0(%rbp)
   155ef:	48 8d 85 70 dd ff ff 	lea    -0x2290(%rbp),%rax
   155f6:	48 83 c0 10          	add    $0x10,%rax
   155fa:	48 89 85 68 de ff ff 	mov    %rax,-0x2198(%rbp)
   15601:	48 8d 85 70 dd ff ff 	lea    -0x2290(%rbp),%rax
   15608:	48 83 c0 10          	add    $0x10,%rax
   1560c:	48 89 85 70 de ff ff 	mov    %rax,-0x2190(%rbp)
   15613:	48 8d 85 70 dd ff ff 	lea    -0x2290(%rbp),%rax
   1561a:	48 83 c0 10          	add    $0x10,%rax
   1561e:	48 89 85 78 de ff ff 	mov    %rax,-0x2188(%rbp)
   15625:	48 8d 85 70 dd ff ff 	lea    -0x2290(%rbp),%rax
   1562c:	48 83 c0 10          	add    $0x10,%rax
   15630:	48 89 85 80 de ff ff 	mov    %rax,-0x2180(%rbp)
   15637:	48 8d 85 70 dd ff ff 	lea    -0x2290(%rbp),%rax
   1563e:	48 83 c0 10          	add    $0x10,%rax
   15642:	48 89 85 88 de ff ff 	mov    %rax,-0x2178(%rbp)
   15649:	48 8d 85 70 dd ff ff 	lea    -0x2290(%rbp),%rax
   15650:	48 83 c0 10          	add    $0x10,%rax
   15654:	48 89 85 90 de ff ff 	mov    %rax,-0x2170(%rbp)
   1565b:	48 8d 85 70 dd ff ff 	lea    -0x2290(%rbp),%rax
   15662:	48 83 c0 10          	add    $0x10,%rax
   15666:	48 89 85 98 de ff ff 	mov    %rax,-0x2168(%rbp)
   1566d:	48 8d 85 70 dd ff ff 	lea    -0x2290(%rbp),%rax
   15674:	48 83 c0 10          	add    $0x10,%rax
   15678:	48 89 85 a0 de ff ff 	mov    %rax,-0x2160(%rbp)
   1567f:	48 8d 85 60 de ff ff 	lea    -0x21a0(%rbp),%rax
   15686:	48 83 c0 20          	add    $0x20,%rax
   1568a:	48 89 85 d8 dc ff ff 	mov    %rax,-0x2328(%rbp)
   15691:	48 8d 85 b0 ec ff ff 	lea    -0x1350(%rbp),%rax
   15698:	48 8d 15 41 c4 00 00 	lea    0xc441(%rip),%rdx        # 21ae0 <g_1964+0x2240>
   1569f:	b9 24 00 00 00       	mov    $0x24,%ecx
   156a4:	48 89 c7             	mov    %rax,%rdi
   156a7:	48 89 d6             	mov    %rdx,%rsi
   156aa:	f3 48 a5             	rep movsq %ds:(%rsi),%es:(%rdi)
   156ad:	48 8d 85 b0 ec ff ff 	lea    -0x1350(%rbp),%rax
   156b4:	48 05 08 01 00 00    	add    $0x108,%rax
   156ba:	48 89 85 e0 dc ff ff 	mov    %rax,-0x2320(%rbp)
   156c1:	8b 85 ac d9 ff ff    	mov    -0x2654(%rbp),%eax
   156c7:	89 85 a8 d9 ff ff    	mov    %eax,-0x2658(%rbp)
   156cd:	44 8b 3d b8 99 00 00 	mov    0x99b8(%rip),%r15d        # 1f08c <g_46+0x4c>
   156d4:	8b 9d ac d9 ff ff    	mov    -0x2654(%rbp),%ebx
   156da:	48 8b 85 a0 da ff ff 	mov    -0x2560(%rbp),%rax
   156e1:	8b 00                	mov    (%rax),%eax
   156e3:	89 85 a4 d9 ff ff    	mov    %eax,-0x265c(%rbp)
   156e9:	8b 85 ac d9 ff ff    	mov    -0x2654(%rbp),%eax
   156ef:	44 0f be e0          	movsbl %al,%r12d
   156f3:	8b 85 ac d9 ff ff    	mov    -0x2654(%rbp),%eax
   156f9:	89 85 a0 d9 ff ff    	mov    %eax,-0x2660(%rbp)
   156ff:	48 8b 85 b8 dc ff ff 	mov    -0x2348(%rbp),%rax
   15706:	48 8d 95 58 da ff ff 	lea    -0x25a8(%rbp),%rdx
   1570d:	48 89 10             	mov    %rdx,(%rax)
   15710:	48 8b 85 b8 dc ff ff 	mov    -0x2348(%rbp),%rax
   15717:	48 8b 00             	mov    (%rax),%rax
   1571a:	48 8d 15 67 da 00 00 	lea    0xda67(%rip),%rdx        # 23188 <g_110>
   15721:	48 39 d0             	cmp    %rdx,%rax
   15724:	0f 84 4f 01 00 00    	je     15879 <func_64+0x203d>
   1572a:	44 8b 2d ff 98 00 00 	mov    0x98ff(%rip),%r13d        # 1f030 <g_4>
   15731:	b8 ff ff ff ff       	mov    $0xffffffff,%eax
   15736:	44 0f be f0          	movsbl %al,%r14d
   1573a:	8b 85 ac d9 ff ff    	mov    -0x2654(%rbp),%eax
   15740:	89 c2                	mov    %eax,%edx
   15742:	8b 85 ac d9 ff ff    	mov    -0x2654(%rbp),%eax
   15748:	83 f0 fa             	xor    $0xfffffffa,%eax
   1574b:	0f be c0             	movsbl %al,%eax
   1574e:	89 d6                	mov    %edx,%esi
   15750:	89 c7                	mov    %eax,%edi
   15752:	e8 4a 3b ff ff       	callq  92a1 <safe_lshift_func_int8_t_s_s>
   15757:	84 c0                	test   %al,%al
   15759:	75 0c                	jne    15767 <func_64+0x1f2b>
   1575b:	0f b7 85 fe dc ff ff 	movzwl -0x2302(%rbp),%eax
   15762:	66 85 c0             	test   %ax,%ax
   15765:	74 07                	je     1576e <func_64+0x1f32>
   15767:	b8 01 00 00 00       	mov    $0x1,%eax
   1576c:	eb 05                	jmp    15773 <func_64+0x1f37>
   1576e:	b8 00 00 00 00       	mov    $0x0,%eax
   15773:	0f be c0             	movsbl %al,%eax
   15776:	be 03 00 00 00       	mov    $0x3,%esi
   1577b:	89 c7                	mov    %eax,%edi
   1577d:	e8 6c 3b ff ff       	callq  92ee <safe_lshift_func_int8_t_s_u>
   15782:	0f be d0             	movsbl %al,%edx
   15785:	8b 85 ac d9 ff ff    	mov    -0x2654(%rbp),%eax
   1578b:	39 c2                	cmp    %eax,%edx
   1578d:	0f 92 c0             	setb   %al
   15790:	0f b6 c0             	movzbl %al,%eax
   15793:	be 01 00 00 00       	mov    $0x1,%esi
   15798:	89 c7                	mov    %eax,%edi
   1579a:	e8 3c 44 ff ff       	callq  9bdb <safe_div_func_uint8_t_u_u>
   1579f:	8b 95 d8 d9 ff ff    	mov    -0x2628(%rbp),%edx
   157a5:	8b 85 cc d9 ff ff    	mov    -0x2634(%rbp),%eax
   157ab:	09 d0                	or     %edx,%eax
   157ad:	48 98                	cltq   
   157af:	ba 15 6e 58 db       	mov    $0xdb586e15,%edx
   157b4:	48 31 d0             	xor    %rdx,%rax
   157b7:	8b 95 ac d9 ff ff    	mov    -0x2654(%rbp),%edx
   157bd:	89 d2                	mov    %edx,%edx
   157bf:	48 39 d0             	cmp    %rdx,%rax
   157c2:	0f 9f c0             	setg   %al
   157c5:	0f b6 c0             	movzbl %al,%eax
   157c8:	be 07 00 00 00       	mov    $0x7,%esi
   157cd:	89 c7                	mov    %eax,%edi
   157cf:	e8 78 44 ff ff       	callq  9c4c <safe_lshift_func_uint8_t_u_u>
   157d4:	0f be c0             	movsbl %al,%eax
   157d7:	44 89 f6             	mov    %r14d,%esi
   157da:	89 c7                	mov    %eax,%edi
   157dc:	e8 31 3a ff ff       	callq  9212 <safe_mul_func_int8_t_s_s>
   157e1:	3c 08                	cmp    $0x8,%al
   157e3:	0f 9f c0             	setg   %al
   157e6:	0f b6 d0             	movzbl %al,%edx
   157e9:	0f b7 05 12 9c 00 00 	movzwl 0x9c12(%rip),%eax        # 1f402 <g_109>
   157f0:	98                   	cwtl   
   157f1:	89 d6                	mov    %edx,%esi
   157f3:	89 c7                	mov    %eax,%edi
   157f5:	e8 30 3d ff ff       	callq  952a <safe_rshift_func_int16_t_s_s>
   157fa:	98                   	cwtl   
   157fb:	be 00 00 00 00       	mov    $0x0,%esi
   15800:	89 c7                	mov    %eax,%edi
   15802:	e8 cc 3b ff ff       	callq  93d3 <safe_sub_func_int16_t_s_s>
   15807:	0f bf d0             	movswl %ax,%edx
   1580a:	8b 85 ac d9 ff ff    	mov    -0x2654(%rbp),%eax
   15810:	31 d0                	xor    %edx,%eax
   15812:	89 c0                	mov    %eax,%eax
   15814:	25 b8 00 00 00       	and    $0xb8,%eax
   15819:	48 89 c2             	mov    %rax,%rdx
   1581c:	8b 85 b0 e8 ff ff    	mov    -0x1750(%rbp),%eax
   15822:	09 d0                	or     %edx,%eax
   15824:	89 85 b0 e8 ff ff    	mov    %eax,-0x1750(%rbp)
   1582a:	8b 05 04 98 00 00    	mov    0x9804(%rip),%eax        # 1f034 <g_4+0x4>
   15830:	85 c0                	test   %eax,%eax
   15832:	0f 9f c0             	setg   %al
   15835:	0f b6 c0             	movzbl %al,%eax
   15838:	44 89 ee             	mov    %r13d,%esi
   1583b:	89 c7                	mov    %eax,%edi
   1583d:	e8 c3 3d ff ff       	callq  9605 <safe_sub_func_int32_t_s_s>
   15842:	48 8b 85 a0 da ff ff 	mov    -0x2560(%rbp),%rax
   15849:	48 85 c0             	test   %rax,%rax
   1584c:	0f b6 45 c4          	movzbl -0x3c(%rbp),%eax
   15850:	0f b6 c0             	movzbl %al,%eax
   15853:	8b 15 cb 9b 00 00    	mov    0x9bcb(%rip),%edx        # 1f424 <g_246>
   15859:	83 f2 fb             	xor    $0xfffffffb,%edx
   1585c:	09 d0                	or     %edx,%eax
   1585e:	89 85 44 da ff ff    	mov    %eax,-0x25bc(%rbp)
   15864:	48 8b 85 98 da ff ff 	mov    -0x2568(%rbp),%rax
   1586b:	8b 10                	mov    (%rax),%edx
   1586d:	0f b6 05 a5 9b 00 00 	movzbl 0x9ba5(%rip),%eax        # 1f419 <g_167>
   15874:	0f b6 c0             	movzbl %al,%eax
   15877:	39 c2                	cmp    %eax,%edx
   15879:	48 8b 85 d8 dc ff ff 	mov    -0x2328(%rbp),%rax
   15880:	48 c7 00 00 00 00 00 	movq   $0x0,(%rax)
   15887:	48 8b 85 d8 dc ff ff 	mov    -0x2328(%rbp),%rax
   1588e:	48 8b 00             	mov    (%rax),%rax
   15891:	48 39 85 98 dc ff ff 	cmp    %rax,-0x2368(%rbp)
   15898:	0f 95 c0             	setne  %al
   1589b:	0f b6 c0             	movzbl %al,%eax
   1589e:	be 0b 00 00 00       	mov    $0xb,%esi
   158a3:	89 c7                	mov    %eax,%edi
   158a5:	e8 80 3c ff ff       	callq  952a <safe_rshift_func_int16_t_s_s>
   158aa:	0f b6 c0             	movzbl %al,%eax
   158ad:	8b b5 a0 d9 ff ff    	mov    -0x2660(%rbp),%esi
   158b3:	89 c7                	mov    %eax,%edi
   158b5:	e8 d3 43 ff ff       	callq  9c8d <safe_rshift_func_uint8_t_u_s>
   158ba:	84 c0                	test   %al,%al
   158bc:	75 0a                	jne    158c8 <func_64+0x208c>
   158be:	48 83 bd c0 dc ff ff 	cmpq   $0x0,-0x2340(%rbp)
   158c5:	00 
   158c6:	74 07                	je     158cf <func_64+0x2093>
   158c8:	b8 01 00 00 00       	mov    $0x1,%eax
   158cd:	eb 05                	jmp    158d4 <func_64+0x2098>
   158cf:	b8 00 00 00 00       	mov    $0x0,%eax
   158d4:	0f be c0             	movsbl %al,%eax
   158d7:	44 89 e6             	mov    %r12d,%esi
   158da:	89 c7                	mov    %eax,%edi
   158dc:	e8 31 39 ff ff       	callq  9212 <safe_mul_func_int8_t_s_s>
   158e1:	0f be c0             	movsbl %al,%eax
   158e4:	8b b5 a4 d9 ff ff    	mov    -0x265c(%rbp),%esi
   158ea:	89 c7                	mov    %eax,%edi
   158ec:	e8 f0 3b ff ff       	callq  94e1 <safe_lshift_func_int16_t_s_u>
   158f1:	66 85 c0             	test   %ax,%ax
   158f4:	78 0c                	js     15902 <func_64+0x20c6>
   158f6:	0f b7 85 46 dd ff ff 	movzwl -0x22ba(%rbp),%eax
   158fd:	66 85 c0             	test   %ax,%ax
   15900:	74 07                	je     15909 <func_64+0x20cd>
   15902:	b8 01 00 00 00       	mov    $0x1,%eax
   15907:	eb 05                	jmp    1590e <func_64+0x20d2>
   15909:	b8 00 00 00 00       	mov    $0x0,%eax
   1590e:	0f b6 c0             	movzbl %al,%eax
   15911:	89 de                	mov    %ebx,%esi
   15913:	89 c7                	mov    %eax,%edi
   15915:	e8 a4 43 ff ff       	callq  9cbe <safe_rshift_func_uint8_t_u_u>
   1591a:	0f be c0             	movsbl %al,%eax
   1591d:	be 3a 00 00 00       	mov    $0x3a,%esi
   15922:	89 c7                	mov    %eax,%edi
   15924:	e8 e9 38 ff ff       	callq  9212 <safe_mul_func_int8_t_s_s>
   15929:	48 8b 85 e0 dc ff ff 	mov    -0x2320(%rbp),%rax
   15930:	48 c7 00 00 00 00 00 	movq   $0x0,(%rax)
   15937:	48 c7 c6 ff ff ff ff 	mov    $0xffffffffffffffff,%rsi
   1593e:	bf 00 00 00 00       	mov    $0x0,%edi
   15943:	e8 60 3f ff ff       	callq  98a8 <safe_sub_func_int64_t_s_s>
   15948:	8b 15 a2 98 00 00    	mov    0x98a2(%rip),%edx        # 1f1f0 <g_46+0x1b0>
   1594e:	48 63 d2             	movslq %edx,%rdx
   15951:	48 39 d0             	cmp    %rdx,%rax
   15954:	0f 9c c0             	setl   %al
   15957:	0f b6 c0             	movzbl %al,%eax
   1595a:	be 05 00 00 00       	mov    $0x5,%esi
   1595f:	48 89 c7             	mov    %rax,%rdi
   15962:	e8 90 40 ff ff       	callq  99f7 <safe_div_func_int64_t_s_s>
   15967:	48 f7 d0             	not    %rax
   1596a:	8b 95 ac d9 ff ff    	mov    -0x2654(%rbp),%edx
   15970:	89 d2                	mov    %edx,%edx
   15972:	48 39 d0             	cmp    %rdx,%rax
   15975:	0f 94 c0             	sete   %al
   15978:	0f b6 c0             	movzbl %al,%eax
   1597b:	41 39 c7             	cmp    %eax,%r15d
   1597e:	0f 9d c0             	setge  %al
   15981:	0f b6 d0             	movzbl %al,%edx
   15984:	0f b6 45 c4          	movzbl -0x3c(%rbp),%eax
   15988:	0f b6 c0             	movzbl %al,%eax
   1598b:	39 c2                	cmp    %eax,%edx
   1598d:	0f 9c c0             	setl   %al
   15990:	0f b6 c0             	movzbl %al,%eax
   15993:	8b b5 a8 d9 ff ff    	mov    -0x2658(%rbp),%esi
   15999:	89 c7                	mov    %eax,%edi
   1599b:	e8 65 3c ff ff       	callq  9605 <safe_sub_func_int32_t_s_s>
   159a0:	8b 95 d0 d9 ff ff    	mov    -0x2630(%rbp),%edx
   159a6:	31 d0                	xor    %edx,%eax
   159a8:	89 85 d0 d9 ff ff    	mov    %eax,-0x2630(%rbp)
   159ae:	8b 85 d0 d9 ff ff    	mov    -0x2630(%rbp),%eax
   159b4:	89 c2                	mov    %eax,%edx
   159b6:	8b 85 ac d9 ff ff    	mov    -0x2654(%rbp),%eax
   159bc:	39 c2                	cmp    %eax,%edx
   159be:	0f 93 c2             	setae  %dl
   159c1:	48 8b 85 a0 da ff ff 	mov    -0x2560(%rbp),%rax
   159c8:	0f b6 d2             	movzbl %dl,%edx
   159cb:	89 10                	mov    %edx,(%rax)
   159cd:	8b 85 d8 d9 ff ff    	mov    -0x2628(%rbp),%eax
   159d3:	48 98                	cltq   
   159d5:	be 05 00 00 00       	mov    $0x5,%esi
   159da:	48 89 c7             	mov    %rax,%rdi
   159dd:	e8 c6 3e ff ff       	callq  98a8 <safe_sub_func_int64_t_s_s>
   159e2:	89 85 d8 d9 ff ff    	mov    %eax,-0x2628(%rbp)
   159e8:	8b 85 d8 d9 ff ff    	mov    -0x2628(%rbp),%eax
   159ee:	83 f8 10             	cmp    $0x10,%eax
   159f1:	0f 85 ca fb ff ff    	jne    155c1 <func_64+0x1d85>
   159f7:	83 85 dc d9 ff ff 01 	addl   $0x1,-0x2624(%rbp)
   159fe:	83 bd dc d9 ff ff 0c 	cmpl   $0xc,-0x2624(%rbp)
   15a05:	0f 8f a3 f4 ff ff    	jg     14eae <func_64+0x1672>
   15a0b:	48 8b 05 9e 66 00 00 	mov    0x669e(%rip),%rax        # 1c0b0 <l_173.5060+0x50>
   15a12:	0f bf d8             	movswl %ax,%ebx
   15a15:	8b 85 b0 e8 ff ff    	mov    -0x1750(%rbp),%eax
   15a1b:	89 c2                	mov    %eax,%edx
   15a1d:	48 8b 85 a8 da ff ff 	mov    -0x2558(%rbp),%rax
   15a24:	88 10                	mov    %dl,(%rax)
   15a26:	48 8b 85 a0 da ff ff 	mov    -0x2560(%rbp),%rax
   15a2d:	8b 00                	mov    (%rax),%eax
   15a2f:	41 89 c4             	mov    %eax,%r12d
   15a32:	c6 05 e0 99 00 00 00 	movb   $0x0,0x99e0(%rip)        # 1f419 <g_167>
   15a39:	8b 95 ac d9 ff ff    	mov    -0x2654(%rbp),%edx
   15a3f:	48 8b 85 a0 dc ff ff 	mov    -0x2360(%rbp),%rax
   15a46:	89 10                	mov    %edx,(%rax)
   15a48:	48 8b 95 90 da ff ff 	mov    -0x2570(%rbp),%rdx
   15a4f:	48 8b 85 a8 dc ff ff 	mov    -0x2358(%rbp),%rax
   15a56:	48 89 10             	mov    %rdx,(%rax)
   15a59:	48 8b 85 a8 dc ff ff 	mov    -0x2358(%rbp),%rax
   15a60:	48 8b 00             	mov    (%rax),%rax
   15a63:	48 8d 95 30 e0 ff ff 	lea    -0x1fd0(%rbp),%rdx
   15a6a:	48 83 c2 58          	add    $0x58,%rdx
   15a6e:	48 39 d0             	cmp    %rdx,%rax
   15a71:	8b 85 90 e7 ff ff    	mov    -0x1870(%rbp),%eax
   15a77:	85 c0                	test   %eax,%eax
   15a79:	74 11                	je     15a8c <func_64+0x2250>
   15a7b:	8b 85 ac d9 ff ff    	mov    -0x2654(%rbp),%eax
   15a81:	85 c0                	test   %eax,%eax
   15a83:	74 07                	je     15a8c <func_64+0x2250>
   15a85:	b8 01 00 00 00       	mov    $0x1,%eax
   15a8a:	eb 05                	jmp    15a91 <func_64+0x2255>
   15a8c:	b8 00 00 00 00       	mov    $0x0,%eax
   15a91:	83 f8 ff             	cmp    $0xffffffff,%eax
   15a94:	74 12                	je     15aa8 <func_64+0x226c>
   15a96:	0f b6 05 9f 95 00 00 	movzbl 0x959f(%rip),%eax        # 1f03c <g_41>
   15a9d:	84 c0                	test   %al,%al
   15a9f:	74 07                	je     15aa8 <func_64+0x226c>
   15aa1:	b8 01 00 00 00       	mov    $0x1,%eax
   15aa6:	eb 05                	jmp    15aad <func_64+0x2271>
   15aa8:	b8 00 00 00 00       	mov    $0x0,%eax
   15aad:	0f b6 c0             	movzbl %al,%eax
   15ab0:	89 c6                	mov    %eax,%esi
   15ab2:	bf d7 00 00 00       	mov    $0xd7,%edi
   15ab7:	e8 d7 40 ff ff       	callq  9b93 <safe_mul_func_uint8_t_u_u>
   15abc:	0f b6 c0             	movzbl %al,%eax
   15abf:	be 01 00 00 00       	mov    $0x1,%esi
   15ac4:	48 89 c7             	mov    %rax,%rdi
   15ac7:	e8 dc 3d ff ff       	callq  98a8 <safe_sub_func_int64_t_s_s>
   15acc:	0f b7 05 4f 99 00 00 	movzwl 0x994f(%rip),%eax        # 1f422 <g_194>
   15ad3:	83 c8 01             	or     $0x1,%eax
   15ad6:	0f be c0             	movsbl %al,%eax
   15ad9:	44 89 e6             	mov    %r12d,%esi
   15adc:	89 c7                	mov    %eax,%edi
   15ade:	e8 0b 38 ff ff       	callq  92ee <safe_lshift_func_int8_t_s_u>
   15ae3:	66 98                	cbtw   
   15ae5:	0f b7 95 02 dd ff ff 	movzwl -0x22fe(%rbp),%edx
   15aec:	31 d0                	xor    %edx,%eax
   15aee:	98                   	cwtl   
   15aef:	be 0e 00 00 00       	mov    $0xe,%esi
   15af4:	89 c7                	mov    %eax,%edi
   15af6:	e8 97 39 ff ff       	callq  9492 <safe_lshift_func_int16_t_s_s>
   15afb:	66 85 c0             	test   %ax,%ax
   15afe:	8b 85 ac d9 ff ff    	mov    -0x2654(%rbp),%eax
   15b04:	98                   	cwtl   
   15b05:	89 de                	mov    %ebx,%esi
   15b07:	89 c7                	mov    %eax,%edi
   15b09:	e8 a5 38 ff ff       	callq  93b3 <safe_add_func_int16_t_s_s>
   15b0e:	66 85 c0             	test   %ax,%ax
   15b11:	75 0a                	jne    15b1d <func_64+0x22e1>
   15b13:	8b 85 ac d9 ff ff    	mov    -0x2654(%rbp),%eax
   15b19:	85 c0                	test   %eax,%eax
   15b1b:	74 07                	je     15b24 <func_64+0x22e8>
   15b1d:	b8 01 00 00 00       	mov    $0x1,%eax
   15b22:	eb 05                	jmp    15b29 <func_64+0x22ed>
   15b24:	b8 00 00 00 00       	mov    $0x0,%eax
   15b29:	89 c2                	mov    %eax,%edx
   15b2b:	8b 85 ac d9 ff ff    	mov    -0x2654(%rbp),%eax
   15b31:	21 c2                	and    %eax,%edx
   15b33:	48 8b 85 80 dc ff ff 	mov    -0x2380(%rbp),%rax
   15b3a:	8b 00                	mov    (%rax),%eax
   15b3c:	21 d0                	and    %edx,%eax
   15b3e:	89 c2                	mov    %eax,%edx
   15b40:	48 8b 85 80 dc ff ff 	mov    -0x2380(%rbp),%rax
   15b47:	89 10                	mov    %edx,(%rax)
   15b49:	8b 85 ac d9 ff ff    	mov    -0x2654(%rbp),%eax
   15b4f:	e9 74 35 00 00       	jmpq   190c8 <func_64+0x588c>
   15b54:	48 8d 85 d0 e4 ff ff 	lea    -0x1b30(%rbp),%rax
   15b5b:	48 05 e0 03 00 00    	add    $0x3e0,%rax
   15b61:	48 89 85 30 dc ff ff 	mov    %rax,-0x23d0(%rbp)
   15b68:	48 8d 85 e0 e0 ff ff 	lea    -0x1f20(%rbp),%rax
   15b6f:	48 83 c0 68          	add    $0x68,%rax
   15b73:	48 89 85 38 dc ff ff 	mov    %rax,-0x23c8(%rbp)
   15b7a:	48 8d 85 d8 d9 ff ff 	lea    -0x2628(%rbp),%rax
   15b81:	48 89 85 40 dc ff ff 	mov    %rax,-0x23c0(%rbp)
   15b88:	48 8d 85 cc d9 ff ff 	lea    -0x2634(%rbp),%rax
   15b8f:	48 89 85 48 dc ff ff 	mov    %rax,-0x23b8(%rbp)
   15b96:	48 8d 85 e0 e0 ff ff 	lea    -0x1f20(%rbp),%rax
   15b9d:	48 83 c0 48          	add    $0x48,%rax
   15ba1:	48 89 85 50 dc ff ff 	mov    %rax,-0x23b0(%rbp)
   15ba8:	48 c7 85 58 dc ff ff 	movq   $0x0,-0x23a8(%rbp)
   15baf:	00 00 00 00 
   15bb3:	48 8d 85 e0 e0 ff ff 	lea    -0x1f20(%rbp),%rax
   15bba:	48 83 c0 68          	add    $0x68,%rax
   15bbe:	48 89 85 60 dc ff ff 	mov    %rax,-0x23a0(%rbp)
   15bc5:	48 8d 05 b4 98 00 00 	lea    0x98b4(%rip),%rax        # 1f480 <g_293>
   15bcc:	48 89 85 68 dc ff ff 	mov    %rax,-0x2398(%rbp)
   15bd3:	48 c7 85 70 dc ff ff 	movq   $0x0,-0x2390(%rbp)
   15bda:	00 00 00 00 
   15bde:	48 8d 05 23 98 00 00 	lea    0x9823(%rip),%rax        # 1f408 <g_143>
   15be5:	48 89 85 78 dc ff ff 	mov    %rax,-0x2388(%rbp)
   15bec:	8b 05 4e 98 00 00    	mov    0x984e(%rip),%eax        # 1f440 <g_278>
   15bf2:	83 c0 01             	add    $0x1,%eax
   15bf5:	89 05 45 98 00 00    	mov    %eax,0x9845(%rip)        # 1f440 <g_278>
   15bfb:	0f b6 05 1e 98 00 00 	movzbl 0x981e(%rip),%eax        # 1f420 <g_184>
   15c02:	66 98                	cbtw   
   15c04:	0f b7 d8             	movzwl %ax,%ebx
   15c07:	0f b6 05 f2 97 00 00 	movzbl 0x97f2(%rip),%eax        # 1f400 <g_88>
   15c0e:	44 0f be e0          	movsbl %al,%r12d
   15c12:	8b 85 ac d9 ff ff    	mov    -0x2654(%rbp),%eax
   15c18:	44 0f bf e8          	movswl %ax,%r13d
   15c1c:	be 01 00 00 00       	mov    $0x1,%esi
   15c21:	bf 07 00 00 00       	mov    $0x7,%edi
   15c26:	e8 67 38 ff ff       	callq  9492 <safe_lshift_func_int16_t_s_s>
   15c2b:	44 0f bf f0          	movswl %ax,%r14d
   15c2f:	8b 8d ac d9 ff ff    	mov    -0x2654(%rbp),%ecx
   15c35:	48 8b 05 f4 c0 00 00 	mov    0xc0f4(%rip),%rax        # 21d30 <g_200>
   15c3c:	0f b7 10             	movzwl (%rax),%edx
   15c3f:	8d 72 ff             	lea    -0x1(%rdx),%esi
   15c42:	66 89 30             	mov    %si,(%rax)
   15c45:	8b b5 1c e5 ff ff    	mov    -0x1ae4(%rbp),%esi
   15c4b:	0f b7 c2             	movzwl %dx,%eax
   15c4e:	31 f0                	xor    %esi,%eax
   15c50:	89 85 1c e5 ff ff    	mov    %eax,-0x1ae4(%rbp)
   15c56:	8b 85 1c e5 ff ff    	mov    -0x1ae4(%rbp),%eax
   15c5c:	89 85 e8 d9 ff ff    	mov    %eax,-0x2618(%rbp)
   15c62:	48 8b 85 70 da ff ff 	mov    -0x2590(%rbp),%rax
   15c69:	48 8b 00             	mov    (%rax),%rax
   15c6c:	8b 95 e8 d9 ff ff    	mov    -0x2618(%rbp),%edx
   15c72:	66 89 10             	mov    %dx,(%rax)
   15c75:	0f b7 00             	movzwl (%rax),%eax
   15c78:	0f b7 c0             	movzwl %ax,%eax
   15c7b:	89 ce                	mov    %ecx,%esi
   15c7d:	89 c7                	mov    %eax,%edi
   15c7f:	e8 82 41 ff ff       	callq  9e06 <safe_lshift_func_uint16_t_u_u>
   15c84:	0f be c0             	movsbl %al,%eax
   15c87:	44 89 f6             	mov    %r14d,%esi
   15c8a:	89 c7                	mov    %eax,%edi
   15c8c:	e8 db 36 ff ff       	callq  936c <safe_rshift_func_int8_t_s_u>
   15c91:	8b 85 10 dd ff ff    	mov    -0x22f0(%rbp),%eax
   15c97:	89 c2                	mov    %eax,%edx
   15c99:	8b 85 ac d9 ff ff    	mov    -0x2654(%rbp),%eax
   15c9f:	31 d0                	xor    %edx,%eax
   15ca1:	89 85 10 dd ff ff    	mov    %eax,-0x22f0(%rbp)
   15ca7:	8b 85 10 dd ff ff    	mov    -0x22f0(%rbp),%eax
   15cad:	83 c8 d1             	or     $0xffffffd1,%eax
   15cb0:	0f be c0             	movsbl %al,%eax
   15cb3:	be 00 00 00 00       	mov    $0x0,%esi
   15cb8:	89 c7                	mov    %eax,%edi
   15cba:	e8 76 36 ff ff       	callq  9335 <safe_rshift_func_int8_t_s_s>
   15cbf:	48 0f be d0          	movsbq %al,%rdx
   15cc3:	48 8b 85 78 dc ff ff 	mov    -0x2388(%rbp),%rax
   15cca:	48 89 10             	mov    %rdx,(%rax)
   15ccd:	48 8b 85 78 dc ff ff 	mov    -0x2388(%rbp),%rax
   15cd4:	48 8b 00             	mov    (%rax),%rax
   15cd7:	48 89 c1             	mov    %rax,%rcx
   15cda:	48 8d 85 d0 d9 ff ff 	lea    -0x2630(%rbp),%rax
   15ce1:	48 39 85 58 dc ff ff 	cmp    %rax,-0x23a8(%rbp)
   15ce8:	74 0d                	je     15cf7 <func_64+0x24bb>
   15cea:	48 8b 85 60 dc ff ff 	mov    -0x23a0(%rbp),%rax
   15cf1:	8b 00                	mov    (%rax),%eax
   15cf3:	85 c0                	test   %eax,%eax
   15cf5:	74 07                	je     15cfe <func_64+0x24c2>
   15cf7:	b8 01 00 00 00       	mov    $0x1,%eax
   15cfc:	eb 05                	jmp    15d03 <func_64+0x24c7>
   15cfe:	b8 00 00 00 00       	mov    $0x0,%eax
   15d03:	48 63 d0             	movslq %eax,%rdx
   15d06:	48 8b 85 68 dc ff ff 	mov    -0x2398(%rbp),%rax
   15d0d:	48 89 10             	mov    %rdx,(%rax)
   15d10:	48 8b 85 68 dc ff ff 	mov    -0x2398(%rbp),%rax
   15d17:	48 8b 00             	mov    (%rax),%rax
   15d1a:	48 89 ce             	mov    %rcx,%rsi
   15d1d:	48 89 c7             	mov    %rax,%rdi
   15d20:	e8 26 43 ff ff       	callq  a04b <safe_sub_func_uint64_t_u_u>
   15d25:	98                   	cwtl   
   15d26:	44 89 ee             	mov    %r13d,%esi
   15d29:	89 c7                	mov    %eax,%edi
   15d2b:	e8 25 37 ff ff       	callq  9455 <safe_div_func_int16_t_s_s>
   15d30:	66 83 f8 03          	cmp    $0x3,%ax
   15d34:	0f 94 c0             	sete   %al
   15d37:	0f b6 c0             	movzbl %al,%eax
   15d3a:	44 89 e6             	mov    %r12d,%esi
   15d3d:	89 c7                	mov    %eax,%edi
   15d3f:	e8 b1 36 ff ff       	callq  93f5 <safe_mul_func_int16_t_s_s>
   15d44:	0f bf d0             	movswl %ax,%edx
   15d47:	0f be 85 bd d9 ff ff 	movsbl -0x2643(%rbp),%eax
   15d4e:	89 d6                	mov    %edx,%esi
   15d50:	89 c7                	mov    %eax,%edi
   15d52:	e8 9e 36 ff ff       	callq  93f5 <safe_mul_func_int16_t_s_s>
   15d57:	48 8b 05 c2 bf 00 00 	mov    0xbfc2(%rip),%rax        # 21d20 <g_105>
   15d5e:	0f b7 00             	movzwl (%rax),%eax
   15d61:	0f b7 c0             	movzwl %ax,%eax
   15d64:	89 de                	mov    %ebx,%esi
   15d66:	89 c7                	mov    %eax,%edi
   15d68:	e8 21 40 ff ff       	callq  9d8e <safe_div_func_uint16_t_u_u>
   15d6d:	0f b7 d0             	movzwl %ax,%edx
   15d70:	48 8b 85 38 dc ff ff 	mov    -0x23c8(%rbp),%rax
   15d77:	89 10                	mov    %edx,(%rax)
   15d79:	8b 85 ac d9 ff ff    	mov    -0x2654(%rbp),%eax
   15d7f:	83 c0 01             	add    $0x1,%eax
   15d82:	89 85 ac d9 ff ff    	mov    %eax,-0x2654(%rbp)
   15d88:	8b 85 ac d9 ff ff    	mov    -0x2654(%rbp),%eax
   15d8e:	83 f8 36             	cmp    $0x36,%eax
   15d91:	0f 87 76 e9 ff ff    	ja     1470d <func_64+0xed1>
   15d97:	c6 05 7b 96 00 00 01 	movb   $0x1,0x967b(%rip)        # 1f419 <g_167>
   15d9e:	e9 ff 32 00 00       	jmpq   190a2 <func_64+0x5866>
   15da3:	48 8d 05 86 bf 00 00 	lea    0xbf86(%rip),%rax        # 21d30 <g_200>
   15daa:	48 89 85 68 da ff ff 	mov    %rax,-0x2598(%rbp)
   15db1:	48 8d 85 70 dd ff ff 	lea    -0x2290(%rbp),%rax
   15db8:	48 89 85 b0 de ff ff 	mov    %rax,-0x2150(%rbp)
   15dbf:	48 8d 85 70 dd ff ff 	lea    -0x2290(%rbp),%rax
   15dc6:	48 89 85 b8 de ff ff 	mov    %rax,-0x2148(%rbp)
   15dcd:	48 8d 85 70 dd ff ff 	lea    -0x2290(%rbp),%rax
   15dd4:	48 89 85 c0 de ff ff 	mov    %rax,-0x2140(%rbp)
   15ddb:	48 8d 85 70 dd ff ff 	lea    -0x2290(%rbp),%rax
   15de2:	48 89 85 c8 de ff ff 	mov    %rax,-0x2138(%rbp)
   15de9:	48 8d 85 70 dd ff ff 	lea    -0x2290(%rbp),%rax
   15df0:	48 89 85 d0 de ff ff 	mov    %rax,-0x2130(%rbp)
   15df7:	48 8d 85 70 dd ff ff 	lea    -0x2290(%rbp),%rax
   15dfe:	48 89 85 d8 de ff ff 	mov    %rax,-0x2128(%rbp)
   15e05:	48 8d 85 70 dd ff ff 	lea    -0x2290(%rbp),%rax
   15e0c:	48 89 85 e0 de ff ff 	mov    %rax,-0x2120(%rbp)
   15e13:	48 8d 85 70 dd ff ff 	lea    -0x2290(%rbp),%rax
   15e1a:	48 89 85 e8 de ff ff 	mov    %rax,-0x2118(%rbp)
   15e21:	c7 85 d4 d9 ff ff b4 	movl   $0xef8870b4,-0x262c(%rbp)
   15e28:	70 88 ef 
   15e2b:	48 8d 85 80 df ff ff 	lea    -0x2080(%rbp),%rax
   15e32:	48 89 85 70 da ff ff 	mov    %rax,-0x2590(%rbp)
   15e39:	48 8d 05 40 96 00 00 	lea    0x9640(%rip),%rax        # 1f480 <g_293>
   15e40:	48 89 85 b0 da ff ff 	mov    %rax,-0x2550(%rbp)
   15e47:	48 8d 85 c0 e8 ff ff 	lea    -0x1740(%rbp),%rax
   15e4e:	48 8d 15 0b 56 00 00 	lea    0x560b(%rip),%rdx        # 1b460 <g_1819+0x1380>
   15e55:	b9 7e 00 00 00       	mov    $0x7e,%ecx
   15e5a:	48 89 c7             	mov    %rax,%rdi
   15e5d:	48 89 d6             	mov    %rdx,%rsi
   15e60:	f3 48 a5             	rep movsq %ds:(%rsi),%es:(%rdi)
   15e63:	66 c7 85 c2 d9 ff ff 	movw   $0xffff,-0x263e(%rbp)
   15e6a:	ff ff 
   15e6c:	48 c7 85 e0 da ff ff 	movq   $0xffffffffffffffff,-0x2520(%rbp)
   15e73:	ff ff ff ff 
   15e77:	48 8d 85 d4 d9 ff ff 	lea    -0x262c(%rbp),%rax
   15e7e:	48 89 85 e8 da ff ff 	mov    %rax,-0x2518(%rbp)
   15e85:	48 8d 85 d0 e4 ff ff 	lea    -0x1b30(%rbp),%rax
   15e8c:	48 05 b4 03 00 00    	add    $0x3b4,%rax
   15e92:	48 89 85 f0 da ff ff 	mov    %rax,-0x2510(%rbp)
   15e99:	c7 85 04 da ff ff 00 	movl   $0x0,-0x25fc(%rbp)
   15ea0:	00 00 00 
   15ea3:	eb 1e                	jmp    15ec3 <func_64+0x2687>
   15ea5:	8b 85 04 da ff ff    	mov    -0x25fc(%rbp),%eax
   15eab:	48 98                	cltq   
   15ead:	48 8d 95 68 da ff ff 	lea    -0x2598(%rbp),%rdx
   15eb4:	48 89 94 c5 70 dd ff 	mov    %rdx,-0x2290(%rbp,%rax,8)
   15ebb:	ff 
   15ebc:	83 85 04 da ff ff 01 	addl   $0x1,-0x25fc(%rbp)
   15ec3:	83 bd 04 da ff ff 00 	cmpl   $0x0,-0x25fc(%rbp)
   15eca:	7e d9                	jle    15ea5 <func_64+0x2669>
   15ecc:	c6 05 4d 95 00 00 08 	movb   $0x8,0x954d(%rip)        # 1f420 <g_184>
   15ed3:	e9 99 31 00 00       	jmpq   19071 <func_64+0x5835>
   15ed8:	48 8d 05 79 be 00 00 	lea    0xbe79(%rip),%rax        # 21d58 <g_322>
   15edf:	48 89 85 78 da ff ff 	mov    %rax,-0x2588(%rbp)
   15ee6:	48 8d 05 a3 95 00 00 	lea    0x95a3(%rip),%rax        # 1f490 <g_347>
   15eed:	48 89 85 f8 da ff ff 	mov    %rax,-0x2508(%rbp)
   15ef4:	48 8d 85 00 df ff ff 	lea    -0x2100(%rbp),%rax
   15efb:	48 83 c0 78          	add    $0x78,%rax
   15eff:	48 89 85 80 da ff ff 	mov    %rax,-0x2580(%rbp)
   15f06:	48 c7 85 88 da ff ff 	movq   $0x0,-0x2578(%rbp)
   15f0d:	00 00 00 00 
   15f11:	48 8d 85 88 da ff ff 	lea    -0x2578(%rbp),%rax
   15f18:	48 89 85 90 da ff ff 	mov    %rax,-0x2570(%rbp)
   15f1f:	48 8d 85 90 da ff ff 	lea    -0x2570(%rbp),%rax
   15f26:	48 89 85 98 da ff ff 	mov    %rax,-0x2568(%rbp)
   15f2d:	66 c7 85 c4 d9 ff ff 	movw   $0x68d6,-0x263c(%rbp)
   15f34:	d6 68 
   15f36:	c7 85 d8 d9 ff ff 8d 	movl   $0xf37d5b8d,-0x2628(%rbp)
   15f3d:	5b 7d f3 
   15f40:	48 8d 85 b0 f2 ff ff 	lea    -0xd50(%rbp),%rax
   15f47:	48 8d 15 12 59 00 00 	lea    0x5912(%rip),%rdx        # 1b860 <g_1819+0x1780>
   15f4e:	b9 c8 00 00 00       	mov    $0xc8,%ecx
   15f53:	48 89 c7             	mov    %rax,%rdi
   15f56:	48 89 d6             	mov    %rdx,%rsi
   15f59:	f3 48 a5             	rep movsq %ds:(%rsi),%es:(%rdi)
   15f5c:	66 c7 85 c0 d9 ff ff 	movw   $0x0,-0x2640(%rbp)
   15f63:	00 00 
   15f65:	48 c7 85 b8 da ff ff 	movq   $0x9,-0x2548(%rbp)
   15f6c:	09 00 00 00 
   15f70:	c7 85 24 da ff ff 00 	movl   $0x0,-0x25dc(%rbp)
   15f77:	00 00 00 
   15f7a:	66 c7 85 10 de ff ff 	movw   $0xfffa,-0x21f0(%rbp)
   15f81:	fa ff 
   15f83:	66 c7 85 12 de ff ff 	movw   $0xae8b,-0x21ee(%rbp)
   15f8a:	8b ae 
   15f8c:	66 c7 85 14 de ff ff 	movw   $0x9148,-0x21ec(%rbp)
   15f93:	48 91 
   15f95:	66 c7 85 16 de ff ff 	movw   $0xae8b,-0x21ea(%rbp)
   15f9c:	8b ae 
   15f9e:	66 c7 85 18 de ff ff 	movw   $0x1,-0x21e8(%rbp)
   15fa5:	01 00 
   15fa7:	66 c7 85 1a de ff ff 	movw   $0x1,-0x21e6(%rbp)
   15fae:	01 00 
   15fb0:	66 c7 85 1c de ff ff 	movw   $0x4d87,-0x21e4(%rbp)
   15fb7:	87 4d 
   15fb9:	66 c7 85 1e de ff ff 	movw   $0xfffa,-0x21e2(%rbp)
   15fc0:	fa ff 
   15fc2:	66 c7 85 20 de ff ff 	movw   $0x9148,-0x21e0(%rbp)
   15fc9:	48 91 
   15fcb:	66 c7 85 22 de ff ff 	movw   $0xffff,-0x21de(%rbp)
   15fd2:	ff ff 
   15fd4:	66 c7 85 24 de ff ff 	movw   $0x4,-0x21dc(%rbp)
   15fdb:	04 00 
   15fdd:	66 c7 85 26 de ff ff 	movw   $0xfffa,-0x21da(%rbp)
   15fe4:	fa ff 
   15fe6:	66 c7 85 28 de ff ff 	movw   $0xffff,-0x21d8(%rbp)
   15fed:	ff ff 
   15fef:	66 c7 85 2a de ff ff 	movw   $0xfffa,-0x21d6(%rbp)
   15ff6:	fa ff 
   15ff8:	66 c7 85 2c de ff ff 	movw   $0xae8b,-0x21d4(%rbp)
   15fff:	8b ae 
   16001:	66 c7 85 2e de ff ff 	movw   $0x4d87,-0x21d2(%rbp)
   16008:	87 4d 
   1600a:	66 c7 85 30 de ff ff 	movw   $0xfffb,-0x21d0(%rbp)
   16011:	fb ff 
   16013:	66 c7 85 32 de ff ff 	movw   $0x4d87,-0x21ce(%rbp)
   1601a:	87 4d 
   1601c:	66 c7 85 34 de ff ff 	movw   $0xae8b,-0x21cc(%rbp)
   16023:	8b ae 
   16025:	66 c7 85 36 de ff ff 	movw   $0xfffa,-0x21ca(%rbp)
   1602c:	fa ff 
   1602e:	66 c7 85 38 de ff ff 	movw   $0xffff,-0x21c8(%rbp)
   16035:	ff ff 
   16037:	66 c7 85 3a de ff ff 	movw   $0xfffa,-0x21c6(%rbp)
   1603e:	fa ff 
   16040:	66 c7 85 3c de ff ff 	movw   $0x4,-0x21c4(%rbp)
   16047:	04 00 
   16049:	66 c7 85 3e de ff ff 	movw   $0xffff,-0x21c2(%rbp)
   16050:	ff ff 
   16052:	66 c7 85 c6 d9 ff ff 	movw   $0xbd93,-0x263a(%rbp)
   16059:	93 bd 
   1605b:	c7 85 08 da ff ff 00 	movl   $0x0,-0x25f8(%rbp)
   16062:	00 00 00 
   16065:	eb 1a                	jmp    16081 <func_64+0x2845>
   16067:	8b 85 08 da ff ff    	mov    -0x25f8(%rbp),%eax
   1606d:	48 98                	cltq   
   1606f:	c7 84 85 d0 dd ff ff 	movl   $0xbf147910,-0x2230(%rbp,%rax,4)
   16076:	10 79 14 bf 
   1607a:	83 85 08 da ff ff 01 	addl   $0x1,-0x25f8(%rbp)
   16081:	83 bd 08 da ff ff 01 	cmpl   $0x1,-0x25f8(%rbp)
   16088:	7e dd                	jle    16067 <func_64+0x282b>
   1608a:	66 c7 05 6f 93 00 00 	movw   $0x0,0x936f(%rip)        # 1f402 <g_109>
   16091:	00 00 
   16093:	e9 53 01 00 00       	jmpq   161eb <func_64+0x29af>
   16098:	c7 85 0c da ff ff 01 	movl   $0x1,-0x25f4(%rbp)
   1609f:	00 00 00 
   160a2:	48 c7 85 00 db ff ff 	movq   $0x0,-0x2500(%rbp)
   160a9:	00 00 00 00 
   160ad:	48 c7 85 08 db ff ff 	movq   $0x0,-0x24f8(%rbp)
   160b4:	00 00 00 00 
   160b8:	48 8d 85 d0 e4 ff ff 	lea    -0x1b30(%rbp),%rax
   160bf:	48 05 e0 03 00 00    	add    $0x3e0,%rax
   160c5:	48 89 85 10 db ff ff 	mov    %rax,-0x24f0(%rbp)
   160cc:	c7 85 ac d9 ff ff 00 	movl   $0x0,-0x2654(%rbp)
   160d3:	00 00 00 
   160d6:	e9 c7 00 00 00       	jmpq   161a2 <func_64+0x2966>
   160db:	48 c7 85 18 db ff ff 	movq   $0x0,-0x24e8(%rbp)
   160e2:	00 00 00 00 
   160e6:	48 8d 85 d0 e4 ff ff 	lea    -0x1b30(%rbp),%rax
   160ed:	48 05 4c 03 00 00    	add    $0x34c,%rax
   160f3:	48 89 85 a0 da ff ff 	mov    %rax,-0x2560(%rbp)
   160fa:	48 8d 85 a0 da ff ff 	lea    -0x2560(%rbp),%rax
   16101:	48 89 85 20 db ff ff 	mov    %rax,-0x24e0(%rbp)
   16108:	48 c7 85 28 db ff ff 	movq   $0x0,-0x24d8(%rbp)
   1610f:	00 00 00 00 
   16113:	48 8d 85 78 da ff ff 	lea    -0x2588(%rbp),%rax
   1611a:	48 89 85 30 db ff ff 	mov    %rax,-0x24d0(%rbp)
   16121:	48 8b 85 20 db ff ff 	mov    -0x24e0(%rbp),%rax
   16128:	48 8d 15 f5 92 00 00 	lea    0x92f5(%rip),%rdx        # 1f424 <g_246>
   1612f:	48 89 10             	mov    %rdx,(%rax)
   16132:	48 8b 05 ff bb 00 00 	mov    0xbbff(%rip),%rax        # 21d38 <g_199>
   16139:	48 8b 00             	mov    (%rax),%rax
   1613c:	0f b7 10             	movzwl (%rax),%edx
   1613f:	8d 4a 01             	lea    0x1(%rdx),%ecx
   16142:	66 89 08             	mov    %cx,(%rax)
   16145:	0f b7 d2             	movzwl %dx,%edx
   16148:	48 8b 85 48 da ff ff 	mov    -0x25b8(%rbp),%rax
   1614f:	48 89 05 32 bc 00 00 	mov    %rax,0xbc32(%rip)        # 21d88 <g_321+0x28>
   16156:	48 8b 35 2b bc 00 00 	mov    0xbc2b(%rip),%rsi        # 21d88 <g_321+0x28>
   1615d:	48 8b 8d 78 da ff ff 	mov    -0x2588(%rbp),%rcx
   16164:	48 8b 85 30 db ff ff 	mov    -0x24d0(%rbp),%rax
   1616b:	48 89 08             	mov    %rcx,(%rax)
   1616e:	48 8b 85 30 db ff ff 	mov    -0x24d0(%rbp),%rax
   16175:	48 8b 00             	mov    (%rax),%rax
   16178:	48 39 c6             	cmp    %rax,%rsi
   1617b:	0f 94 c0             	sete   %al
   1617e:	0f b6 c0             	movzbl %al,%eax
   16181:	89 d6                	mov    %edx,%esi
   16183:	89 c7                	mov    %eax,%edi
   16185:	e8 75 3b ff ff       	callq  9cff <safe_add_func_uint16_t_u_u>
   1618a:	0f b7 c0             	movzwl %ax,%eax
   1618d:	21 85 0c da ff ff    	and    %eax,-0x25f4(%rbp)
   16193:	8b 85 ac d9 ff ff    	mov    -0x2654(%rbp),%eax
   16199:	83 c0 01             	add    $0x1,%eax
   1619c:	89 85 ac d9 ff ff    	mov    %eax,-0x2654(%rbp)
   161a2:	8b 85 ac d9 ff ff    	mov    -0x2654(%rbp),%eax
   161a8:	83 f8 08             	cmp    $0x8,%eax
   161ab:	0f 86 2a ff ff ff    	jbe    160db <func_64+0x289f>
   161b1:	0f b6 05 68 92 00 00 	movzbl 0x9268(%rip),%eax        # 1f420 <g_184>
   161b8:	84 c0                	test   %al,%al
   161ba:	75 41                	jne    161fd <func_64+0x29c1>
   161bc:	48 8b 85 10 db ff ff 	mov    -0x24f0(%rbp),%rax
   161c3:	8b 00                	mov    (%rax),%eax
   161c5:	89 c2                	mov    %eax,%edx
   161c7:	8b 85 ac d9 ff ff    	mov    -0x2654(%rbp),%eax
   161cd:	31 d0                	xor    %edx,%eax
   161cf:	89 c2                	mov    %eax,%edx
   161d1:	48 8b 85 10 db ff ff 	mov    -0x24f0(%rbp),%rax
   161d8:	89 10                	mov    %edx,(%rax)
   161da:	0f b7 05 21 92 00 00 	movzwl 0x9221(%rip),%eax        # 1f402 <g_109>
   161e1:	83 c0 01             	add    $0x1,%eax
   161e4:	66 89 05 17 92 00 00 	mov    %ax,0x9217(%rip)        # 1f402 <g_109>
   161eb:	0f b7 05 10 92 00 00 	movzwl 0x9210(%rip),%eax        # 1f402 <g_109>
   161f2:	66 85 c0             	test   %ax,%ax
   161f5:	0f 84 9d fe ff ff    	je     16098 <func_64+0x285c>
   161fb:	eb 01                	jmp    161fe <func_64+0x29c2>
   161fd:	90                   	nop
   161fe:	8b 05 3c 92 00 00    	mov    0x923c(%rip),%eax        # 1f440 <g_278>
   16204:	89 c3                	mov    %eax,%ebx
   16206:	0f b7 05 15 92 00 00 	movzwl 0x9215(%rip),%eax        # 1f422 <g_194>
   1620d:	48 0f bf c0          	movswq %ax,%rax
   16211:	be 01 00 00 00       	mov    $0x1,%esi
   16216:	48 89 c7             	mov    %rax,%rdi
   16219:	e8 10 3e ff ff       	callq  a02e <safe_add_func_uint64_t_u_u>
   1621e:	0f b6 c0             	movzbl %al,%eax
   16221:	89 de                	mov    %ebx,%esi
   16223:	89 c7                	mov    %eax,%edi
   16225:	e8 63 3a ff ff       	callq  9c8d <safe_rshift_func_uint8_t_u_s>
   1622a:	0f b6 d0             	movzbl %al,%edx
   1622d:	8b 85 ac d9 ff ff    	mov    -0x2654(%rbp),%eax
   16233:	98                   	cwtl   
   16234:	89 d6                	mov    %edx,%esi
   16236:	89 c7                	mov    %eax,%edi
   16238:	e8 55 32 ff ff       	callq  9492 <safe_lshift_func_int16_t_s_s>
   1623d:	48 0f bf d0          	movswq %ax,%rdx
   16241:	48 8b 05 c0 91 00 00 	mov    0x91c0(%rip),%rax        # 1f408 <g_143>
   16248:	48 39 c2             	cmp    %rax,%rdx
   1624b:	0f 9d c0             	setge  %al
   1624e:	0f b6 d0             	movzbl %al,%edx
   16251:	48 8b 85 68 da ff ff 	mov    -0x2598(%rbp),%rax
   16258:	48 85 c0             	test   %rax,%rax
   1625b:	0f 95 c0             	setne  %al
   1625e:	0f b6 c0             	movzbl %al,%eax
   16261:	89 d6                	mov    %edx,%esi
   16263:	89 c7                	mov    %eax,%edi
   16265:	e8 f9 32 ff ff       	callq  9563 <safe_rshift_func_int16_t_s_u>
   1626a:	66 83 f8 ff          	cmp    $0xffff,%ax
   1626e:	0f 9d c0             	setge  %al
   16271:	0f b6 d0             	movzbl %al,%edx
   16274:	48 8b 05 25 bb 00 00 	mov    0xbb25(%rip),%rax        # 21da0 <g_331>
   1627b:	48 8b 00             	mov    (%rax),%rax
   1627e:	48 8b 00             	mov    (%rax),%rax
   16281:	48 8b 00             	mov    (%rax),%rax
   16284:	0f b7 00             	movzwl (%rax),%eax
   16287:	0f b7 c0             	movzwl %ax,%eax
   1628a:	31 d0                	xor    %edx,%eax
   1628c:	48 98                	cltq   
   1628e:	48 c7 c6 ff ff ff ff 	mov    $0xffffffffffffffff,%rsi
   16295:	48 89 c7             	mov    %rax,%rdi
   16298:	e8 91 3d ff ff       	callq  a02e <safe_add_func_uint64_t_u_u>
   1629d:	48 ba 78 bf d9 d8 37 	movabs $0xacf00737d8d9bf78,%rdx
   162a4:	07 f0 ac 
   162a7:	48 39 d0             	cmp    %rdx,%rax
   162aa:	0f 96 c0             	setbe  %al
   162ad:	0f b6 c0             	movzbl %al,%eax
   162b0:	be 00 00 00 00       	mov    $0x0,%esi
   162b5:	89 c7                	mov    %eax,%edi
   162b7:	e8 79 30 ff ff       	callq  9335 <safe_rshift_func_int8_t_s_s>
   162bc:	48 8b 05 dd ba 00 00 	mov    0xbadd(%rip),%rax        # 21da0 <g_331>
   162c3:	48 85 c0             	test   %rax,%rax
   162c6:	0f 94 c0             	sete   %al
   162c9:	0f b6 c0             	movzbl %al,%eax
   162cc:	48 89 05 35 91 00 00 	mov    %rax,0x9135(%rip)        # 1f408 <g_143>
   162d3:	48 8b 85 f8 da ff ff 	mov    -0x2508(%rbp),%rax
   162da:	48 c7 00 01 00 00 00 	movq   $0x1,(%rax)
   162e1:	48 8b 05 98 91 00 00 	mov    0x9198(%rip),%rax        # 1f480 <g_293>
   162e8:	48 85 c0             	test   %rax,%rax
   162eb:	0f 84 c5 14 00 00    	je     177b6 <func_64+0x3f7a>
   162f1:	c7 85 30 da ff ff ff 	movl   $0xffffffff,-0x25d0(%rbp)
   162f8:	ff ff ff 
   162fb:	c7 85 58 da ff ff f9 	movl   $0xfffffff9,-0x25a8(%rbp)
   16302:	ff ff ff 
   16305:	c7 85 34 da ff ff 63 	movl   $0xcf776563,-0x25cc(%rbp)
   1630c:	65 77 cf 
   1630f:	c7 85 38 da ff ff f7 	movl   $0xfffffff7,-0x25c8(%rbp)
   16316:	ff ff ff 
   16319:	c7 85 30 e0 ff ff 07 	movl   $0x7,-0x1fd0(%rbp)
   16320:	00 00 00 
   16323:	c7 85 34 e0 ff ff 07 	movl   $0x7,-0x1fcc(%rbp)
   1632a:	00 00 00 
   1632d:	c7 85 38 e0 ff ff 07 	movl   $0x7,-0x1fc8(%rbp)
   16334:	00 00 00 
   16337:	c7 85 3c e0 ff ff 07 	movl   $0x7,-0x1fc4(%rbp)
   1633e:	00 00 00 
   16341:	c7 85 40 e0 ff ff 07 	movl   $0x7,-0x1fc0(%rbp)
   16348:	00 00 00 
   1634b:	c7 85 44 e0 ff ff 07 	movl   $0x7,-0x1fbc(%rbp)
   16352:	00 00 00 
   16355:	c7 85 48 e0 ff ff 07 	movl   $0x7,-0x1fb8(%rbp)
   1635c:	00 00 00 
   1635f:	c7 85 4c e0 ff ff 07 	movl   $0x7,-0x1fb4(%rbp)
   16366:	00 00 00 
   16369:	c7 85 50 e0 ff ff 07 	movl   $0x7,-0x1fb0(%rbp)
   16370:	00 00 00 
   16373:	c7 85 54 e0 ff ff 07 	movl   $0x7,-0x1fac(%rbp)
   1637a:	00 00 00 
   1637d:	c7 05 a1 90 00 00 00 	movl   $0x0,0x90a1(%rip)        # 1f428 <g_267>
   16384:	00 00 00 
   16387:	e9 a5 02 00 00       	jmpq   16631 <func_64+0x2df5>
   1638c:	c7 85 60 da ff ff 06 	movl   $0x6,-0x25a0(%rbp)
   16393:	00 00 00 
   16396:	48 8d 85 cc d9 ff ff 	lea    -0x2634(%rbp),%rax
   1639d:	48 89 85 a0 da ff ff 	mov    %rax,-0x2560(%rbp)
   163a4:	48 8d 85 a0 da ff ff 	lea    -0x2560(%rbp),%rax
   163ab:	48 89 85 90 db ff ff 	mov    %rax,-0x2470(%rbp)
   163b2:	8b 95 d4 d9 ff ff    	mov    -0x262c(%rbp),%edx
   163b8:	48 83 bd 90 db ff ff 	cmpq   $0x0,-0x2470(%rbp)
   163bf:	00 
   163c0:	0f 94 c0             	sete   %al
   163c3:	0f b6 c0             	movzbl %al,%eax
   163c6:	89 d6                	mov    %edx,%esi
   163c8:	89 c7                	mov    %eax,%edi
   163ca:	e8 5b 31 ff ff       	callq  952a <safe_rshift_func_int16_t_s_s>
   163cf:	be 01 00 00 00       	mov    $0x1,%esi
   163d4:	bf f9 ff 00 00       	mov    $0xfff9,%edi
   163d9:	e8 5f 39 ff ff       	callq  9d3d <safe_mul_func_uint16_t_u_u>
   163de:	0f b7 d0             	movzwl %ax,%edx
   163e1:	8b 85 60 da ff ff    	mov    -0x25a0(%rbp),%eax
   163e7:	85 c0                	test   %eax,%eax
   163e9:	0f 94 c0             	sete   %al
   163ec:	0f b6 c0             	movzbl %al,%eax
   163ef:	89 d6                	mov    %edx,%esi
   163f1:	89 c7                	mov    %eax,%edi
   163f3:	e8 2d 3b ff ff       	callq  9f25 <safe_div_func_uint32_t_u_u>
   163f8:	8b 85 ac d9 ff ff    	mov    -0x2654(%rbp),%eax
   163fe:	0f b6 d0             	movzbl %al,%edx
   16401:	8b 85 30 da ff ff    	mov    -0x25d0(%rbp),%eax
   16407:	0f b6 c0             	movzbl %al,%eax
   1640a:	89 d6                	mov    %edx,%esi
   1640c:	89 c7                	mov    %eax,%edi
   1640e:	e8 9b 37 ff ff       	callq  9bae <safe_mod_func_uint8_t_u_u>
   16413:	8b 85 18 e5 ff ff    	mov    -0x1ae8(%rbp),%eax
   16419:	39 85 30 da ff ff    	cmp    %eax,-0x25d0(%rbp)
   1641f:	0f 9c c2             	setl   %dl
   16422:	48 8b 85 90 db ff ff 	mov    -0x2470(%rbp),%rax
   16429:	48 8b 00             	mov    (%rax),%rax
   1642c:	0f b6 d2             	movzbl %dl,%edx
   1642f:	89 10                	mov    %edx,(%rax)
   16431:	8b 00                	mov    (%rax),%eax
   16433:	be ff ff ff ff       	mov    $0xffffffff,%esi
   16438:	89 c7                	mov    %eax,%edi
   1643a:	e8 8d 32 ff ff       	callq  96cc <safe_mod_func_int32_t_s_s>
   1643f:	89 c2                	mov    %eax,%edx
   16441:	8b 85 ac d9 ff ff    	mov    -0x2654(%rbp),%eax
   16447:	39 c2                	cmp    %eax,%edx
   16449:	0f 84 79 01 00 00    	je     165c8 <func_64+0x2d8c>
   1644f:	48 8d 05 ce 8f 00 00 	lea    0x8fce(%rip),%rax        # 1f424 <g_246>
   16456:	48 89 85 a0 db ff ff 	mov    %rax,-0x2460(%rbp)
   1645d:	48 8d 85 cc d9 ff ff 	lea    -0x2634(%rbp),%rax
   16464:	48 89 85 a8 db ff ff 	mov    %rax,-0x2458(%rbp)
   1646b:	48 8d 85 d4 d9 ff ff 	lea    -0x262c(%rbp),%rax
   16472:	48 89 85 b0 db ff ff 	mov    %rax,-0x2450(%rbp)
   16479:	c7 85 10 da ff ff 00 	movl   $0x0,-0x25f0(%rbp)
   16480:	00 00 00 
   16483:	eb 1e                	jmp    164a3 <func_64+0x2c67>
   16485:	8b 85 10 da ff ff    	mov    -0x25f0(%rbp),%eax
   1648b:	48 98                	cltq   
   1648d:	48 8d 95 60 da ff ff 	lea    -0x25a0(%rbp),%rdx
   16494:	48 89 94 c5 b0 ec ff 	mov    %rdx,-0x1350(%rbp,%rax,8)
   1649b:	ff 
   1649c:	83 85 10 da ff ff 01 	addl   $0x1,-0x25f0(%rbp)
   164a3:	83 bd 10 da ff ff 02 	cmpl   $0x2,-0x25f0(%rbp)
   164aa:	7e d9                	jle    16485 <func_64+0x2c49>
   164ac:	8b 05 82 8b 00 00    	mov    0x8b82(%rip),%eax        # 1f034 <g_4+0x4>
   164b2:	85 c0                	test   %eax,%eax
   164b4:	0f 85 85 01 00 00    	jne    1663f <func_64+0x2e03>
   164ba:	0f b6 05 dc 8f 00 00 	movzbl 0x8fdc(%rip),%eax        # 1f49d <g_375>
   164c1:	83 e8 01             	sub    $0x1,%eax
   164c4:	88 05 d3 8f 00 00    	mov    %al,0x8fd3(%rip)        # 1f49d <g_375>
   164ca:	48 8b 85 a0 da ff ff 	mov    -0x2560(%rbp),%rax
   164d1:	8b 00                	mov    (%rax),%eax
   164d3:	85 c0                	test   %eax,%eax
   164d5:	0f 84 c8 00 00 00    	je     165a3 <func_64+0x2d67>
   164db:	48 8b 05 b6 b8 00 00 	mov    0xb8b6(%rip),%rax        # 21d98 <g_332>
   164e2:	48 8b 00             	mov    (%rax),%rax
   164e5:	48 8b 00             	mov    (%rax),%rax
   164e8:	0f b7 00             	movzwl (%rax),%eax
   164eb:	0f bf d0             	movswl %ax,%edx
   164ee:	48 8b 05 63 b8 00 00 	mov    0xb863(%rip),%rax        # 21d58 <g_322>
   164f5:	0f b7 08             	movzwl (%rax),%ecx
   164f8:	8b 85 1c dd ff ff    	mov    -0x22e4(%rbp),%eax
   164fe:	89 c6                	mov    %eax,%esi
   16500:	48 8b 05 51 b8 00 00 	mov    0xb851(%rip),%rax        # 21d58 <g_322>
   16507:	21 f1                	and    %esi,%ecx
   16509:	66 89 08             	mov    %cx,(%rax)
   1650c:	0f b7 00             	movzwl (%rax),%eax
   1650f:	98                   	cwtl   
   16510:	89 d6                	mov    %edx,%esi
   16512:	89 c7                	mov    %eax,%edi
   16514:	e8 fd 2e ff ff       	callq  9416 <safe_mod_func_int16_t_s_s>
   16519:	8b 85 1c dd ff ff    	mov    -0x22e4(%rbp),%eax
   1651f:	83 f8 ff             	cmp    $0xffffffff,%eax
   16522:	0f 95 c0             	setne  %al
   16525:	0f b6 d0             	movzbl %al,%edx
   16528:	8b 85 ac d9 ff ff    	mov    -0x2654(%rbp),%eax
   1652e:	39 c2                	cmp    %eax,%edx
   16530:	8b 85 d4 dd ff ff    	mov    -0x222c(%rbp),%eax
   16536:	be 03 00 00 00       	mov    $0x3,%esi
   1653b:	89 c7                	mov    %eax,%edi
   1653d:	e8 74 30 ff ff       	callq  95b6 <safe_add_func_int32_t_s_s>
   16542:	89 c2                	mov    %eax,%edx
   16544:	8b 85 ac d9 ff ff    	mov    -0x2654(%rbp),%eax
   1654a:	31 d0                	xor    %edx,%eax
   1654c:	3d ff ff 00 00       	cmp    $0xffff,%eax
   16551:	be 01 00 00 00       	mov    $0x1,%esi
   16556:	bf 61 00 00 00       	mov    $0x61,%edi
   1655b:	e8 5e 37 ff ff       	callq  9cbe <safe_rshift_func_uint8_t_u_u>
   16560:	0f b6 d0             	movzbl %al,%edx
   16563:	48 8b 05 36 b8 00 00 	mov    0xb836(%rip),%rax        # 21da0 <g_331>
   1656a:	48 8b 00             	mov    (%rax),%rax
   1656d:	48 8b 00             	mov    (%rax),%rax
   16570:	48 8b 00             	mov    (%rax),%rax
   16573:	0f b7 00             	movzwl (%rax),%eax
   16576:	0f b7 c0             	movzwl %ax,%eax
   16579:	89 d6                	mov    %edx,%esi
   1657b:	89 c7                	mov    %eax,%edi
   1657d:	e8 bb 37 ff ff       	callq  9d3d <safe_mul_func_uint16_t_u_u>
   16582:	66 3d d3 56          	cmp    $0x56d3,%ax
   16586:	0f 97 c0             	seta   %al
   16589:	0f b6 c0             	movzbl %al,%eax
   1658c:	be 02 00 00 00       	mov    $0x2,%esi
   16591:	89 c7                	mov    %eax,%edi
   16593:	e8 9d 2d ff ff       	callq  9335 <safe_rshift_func_int8_t_s_s>
   16598:	84 c0                	test   %al,%al
   1659a:	74 07                	je     165a3 <func_64+0x2d67>
   1659c:	b8 01 00 00 00       	mov    $0x1,%eax
   165a1:	eb 05                	jmp    165a8 <func_64+0x2d6c>
   165a3:	b8 00 00 00 00       	mov    $0x0,%eax
   165a8:	89 c2                	mov    %eax,%edx
   165aa:	8b 85 ac d9 ff ff    	mov    -0x2654(%rbp),%eax
   165b0:	39 c2                	cmp    %eax,%edx
   165b2:	0f 97 c0             	seta   %al
   165b5:	0f b6 d0             	movzbl %al,%edx
   165b8:	8b 05 66 8e 00 00    	mov    0x8e66(%rip),%eax        # 1f424 <g_246>
   165be:	31 d0                	xor    %edx,%eax
   165c0:	89 05 5e 8e 00 00    	mov    %eax,0x8e5e(%rip)        # 1f424 <g_246>
   165c6:	eb 5a                	jmp    16622 <func_64+0x2de6>
   165c8:	48 8d 85 10 dd ff ff 	lea    -0x22f0(%rbp),%rax
   165cf:	48 83 c0 08          	add    $0x8,%rax
   165d3:	48 89 85 98 db ff ff 	mov    %rax,-0x2468(%rbp)
   165da:	8b 85 d4 d9 ff ff    	mov    -0x262c(%rbp),%eax
   165e0:	85 c0                	test   %eax,%eax
   165e2:	74 05                	je     165e9 <func_64+0x2dad>
   165e4:	e9 15 e1 ff ff       	jmpq   146fe <func_64+0xec2>
   165e9:	48 8b 85 90 db ff ff 	mov    -0x2470(%rbp),%rax
   165f0:	48 8b 10             	mov    (%rax),%rdx
   165f3:	48 8b 85 90 db ff ff 	mov    -0x2470(%rbp),%rax
   165fa:	48 8b 00             	mov    (%rax),%rax
   165fd:	8b 12                	mov    (%rdx),%edx
   165ff:	89 10                	mov    %edx,(%rax)
   16601:	8b 10                	mov    (%rax),%edx
   16603:	48 8b 85 98 db ff ff 	mov    -0x2468(%rbp),%rax
   1660a:	89 10                	mov    %edx,(%rax)
   1660c:	8b 05 12 8e 00 00    	mov    0x8e12(%rip),%eax        # 1f424 <g_246>
   16612:	f7 d0                	not    %eax
   16614:	89 05 0a 8e 00 00    	mov    %eax,0x8e0a(%rip)        # 1f424 <g_246>
   1661a:	8b 05 20 8e 00 00    	mov    0x8e20(%rip),%eax        # 1f440 <g_278>
   16620:	85 c0                	test   %eax,%eax
   16622:	8b 05 00 8e 00 00    	mov    0x8e00(%rip),%eax        # 1f428 <g_267>
   16628:	83 c0 01             	add    $0x1,%eax
   1662b:	89 05 f7 8d 00 00    	mov    %eax,0x8df7(%rip)        # 1f428 <g_267>
   16631:	8b 05 f1 8d 00 00    	mov    0x8df1(%rip),%eax        # 1f428 <g_267>
   16637:	85 c0                	test   %eax,%eax
   16639:	0f 84 4d fd ff ff    	je     1638c <func_64+0x2b50>
   1663f:	8b 85 d4 d9 ff ff    	mov    -0x262c(%rbp),%eax
   16645:	85 c0                	test   %eax,%eax
   16647:	0f 84 36 02 00 00    	je     16883 <func_64+0x3047>
   1664d:	c7 85 40 da ff ff ff 	movl   $0xffffffff,-0x25c0(%rbp)
   16654:	ff ff ff 
   16657:	83 bd 40 da ff ff 00 	cmpl   $0x0,-0x25c0(%rbp)
   1665e:	0f 85 1e 2a 00 00    	jne    19082 <func_64+0x5846>
   16664:	c6 05 31 8e 00 00 00 	movb   $0x0,0x8e31(%rip)        # 1f49c <g_373>
   1666b:	eb 2f                	jmp    1669c <func_64+0x2e60>
   1666d:	48 8d 85 98 da ff ff 	lea    -0x2568(%rbp),%rax
   16674:	48 89 85 e8 db ff ff 	mov    %rax,-0x2418(%rbp)
   1667b:	48 8b 95 98 da ff ff 	mov    -0x2568(%rbp),%rdx
   16682:	48 8b 85 e8 db ff ff 	mov    -0x2418(%rbp),%rax
   16689:	48 89 10             	mov    %rdx,(%rax)
   1668c:	0f b6 05 09 8e 00 00 	movzbl 0x8e09(%rip),%eax        # 1f49c <g_373>
   16693:	83 e8 01             	sub    $0x1,%eax
   16696:	88 05 00 8e 00 00    	mov    %al,0x8e00(%rip)        # 1f49c <g_373>
   1669c:	0f b6 05 f9 8d 00 00 	movzbl 0x8df9(%rip),%eax        # 1f49c <g_373>
   166a3:	84 c0                	test   %al,%al
   166a5:	79 c6                	jns    1666d <func_64+0x2e31>
   166a7:	c6 05 ee 8d 00 00 00 	movb   $0x0,0x8dee(%rip)        # 1f49c <g_373>
   166ae:	e9 bc 01 00 00       	jmpq   1686f <func_64+0x3033>
   166b3:	48 8d 85 10 dd ff ff 	lea    -0x22f0(%rbp),%rax
   166ba:	48 83 c0 0c          	add    $0xc,%rax
   166be:	48 89 85 a0 da ff ff 	mov    %rax,-0x2560(%rbp)
   166c5:	48 8d 85 a0 da ff ff 	lea    -0x2560(%rbp),%rax
   166cc:	48 89 85 b0 ec ff ff 	mov    %rax,-0x1350(%rbp)
   166d3:	48 c7 85 b8 ec ff ff 	movq   $0x0,-0x1348(%rbp)
   166da:	00 00 00 00 
   166de:	48 c7 85 c0 ec ff ff 	movq   $0x0,-0x1340(%rbp)
   166e5:	00 00 00 00 
   166e9:	48 8d 85 a0 da ff ff 	lea    -0x2560(%rbp),%rax
   166f0:	48 89 85 c8 ec ff ff 	mov    %rax,-0x1338(%rbp)
   166f7:	48 c7 85 d0 ec ff ff 	movq   $0x0,-0x1330(%rbp)
   166fe:	00 00 00 00 
   16702:	48 c7 85 d8 ec ff ff 	movq   $0x0,-0x1328(%rbp)
   16709:	00 00 00 00 
   1670d:	48 8d 85 a0 da ff ff 	lea    -0x2560(%rbp),%rax
   16714:	48 89 85 e0 ec ff ff 	mov    %rax,-0x1320(%rbp)
   1671b:	48 c7 85 e8 ec ff ff 	movq   $0x0,-0x1318(%rbp)
   16722:	00 00 00 00 
   16726:	48 c7 85 f0 ec ff ff 	movq   $0x0,-0x1310(%rbp)
   1672d:	00 00 00 00 
   16731:	48 8d 85 a0 da ff ff 	lea    -0x2560(%rbp),%rax
   16738:	48 89 85 f8 ec ff ff 	mov    %rax,-0x1308(%rbp)
   1673f:	48 c7 85 00 ed ff ff 	movq   $0x0,-0x1300(%rbp)
   16746:	00 00 00 00 
   1674a:	48 8d 85 a0 da ff ff 	lea    -0x2560(%rbp),%rax
   16751:	48 89 85 08 ed ff ff 	mov    %rax,-0x12f8(%rbp)
   16758:	48 c7 85 10 ed ff ff 	movq   $0x0,-0x12f0(%rbp)
   1675f:	00 00 00 00 
   16763:	48 c7 85 18 ed ff ff 	movq   $0x0,-0x12e8(%rbp)
   1676a:	00 00 00 00 
   1676e:	48 8d 85 a0 da ff ff 	lea    -0x2560(%rbp),%rax
   16775:	48 89 85 20 ed ff ff 	mov    %rax,-0x12e0(%rbp)
   1677c:	48 c7 85 28 ed ff ff 	movq   $0x0,-0x12d8(%rbp)
   16783:	00 00 00 00 
   16787:	48 c7 85 30 ed ff ff 	movq   $0x0,-0x12d0(%rbp)
   1678e:	00 00 00 00 
   16792:	48 8d 85 a0 da ff ff 	lea    -0x2560(%rbp),%rax
   16799:	48 89 85 38 ed ff ff 	mov    %rax,-0x12c8(%rbp)
   167a0:	48 c7 85 40 ed ff ff 	movq   $0x0,-0x12c0(%rbp)
   167a7:	00 00 00 00 
   167ab:	48 c7 85 48 ed ff ff 	movq   $0x0,-0x12b8(%rbp)
   167b2:	00 00 00 00 
   167b6:	48 8d 85 a0 da ff ff 	lea    -0x2560(%rbp),%rax
   167bd:	48 89 85 50 ed ff ff 	mov    %rax,-0x12b0(%rbp)
   167c4:	48 8d 85 a0 da ff ff 	lea    -0x2560(%rbp),%rax
   167cb:	48 89 85 58 ed ff ff 	mov    %rax,-0x12a8(%rbp)
   167d2:	48 c7 85 60 ed ff ff 	movq   $0x0,-0x12a0(%rbp)
   167d9:	00 00 00 00 
   167dd:	48 8d 85 a0 da ff ff 	lea    -0x2560(%rbp),%rax
   167e4:	48 89 85 68 ed ff ff 	mov    %rax,-0x1298(%rbp)
   167eb:	48 8d 85 a0 da ff ff 	lea    -0x2560(%rbp),%rax
   167f2:	48 89 85 70 ed ff ff 	mov    %rax,-0x1290(%rbp)
   167f9:	48 c7 85 78 ed ff ff 	movq   $0x0,-0x1288(%rbp)
   16800:	00 00 00 00 
   16804:	48 8d 85 a0 da ff ff 	lea    -0x2560(%rbp),%rax
   1680b:	48 89 85 80 ed ff ff 	mov    %rax,-0x1280(%rbp)
   16812:	48 8d 85 a0 da ff ff 	lea    -0x2560(%rbp),%rax
   16819:	48 89 85 88 ed ff ff 	mov    %rax,-0x1278(%rbp)
   16820:	48 c7 85 90 ed ff ff 	movq   $0x0,-0x1270(%rbp)
   16827:	00 00 00 00 
   1682b:	48 8d 85 a0 da ff ff 	lea    -0x2560(%rbp),%rax
   16832:	48 89 85 98 ed ff ff 	mov    %rax,-0x1268(%rbp)
   16839:	48 8d 05 f4 87 00 00 	lea    0x87f4(%rip),%rax        # 1f034 <g_4+0x4>
   16840:	48 89 05 91 b5 00 00 	mov    %rax,0xb591(%rip)        # 21dd8 <g_399+0x18>
   16847:	48 8b 85 a0 da ff ff 	mov    -0x2560(%rbp),%rax
   1684e:	8b 10                	mov    (%rax),%edx
   16850:	48 8b 85 a0 da ff ff 	mov    -0x2560(%rbp),%rax
   16857:	23 95 30 da ff ff    	and    -0x25d0(%rbp),%edx
   1685d:	89 10                	mov    %edx,(%rax)
   1685f:	0f b6 05 36 8c 00 00 	movzbl 0x8c36(%rip),%eax        # 1f49c <g_373>
   16866:	83 c0 01             	add    $0x1,%eax
   16869:	88 05 2d 8c 00 00    	mov    %al,0x8c2d(%rip)        # 1f49c <g_373>
   1686f:	0f b6 05 26 8c 00 00 	movzbl 0x8c26(%rip),%eax        # 1f49c <g_373>
   16876:	84 c0                	test   %al,%al
   16878:	0f 8e 35 fe ff ff    	jle    166b3 <func_64+0x2e77>
   1687e:	e9 56 19 00 00       	jmpq   181d9 <func_64+0x499d>
   16883:	66 c7 85 c8 d9 ff ff 	movw   $0x0,-0x2638(%rbp)
   1688a:	00 00 
   1688c:	c7 85 3c da ff ff f5 	movl   $0x40df4cf5,-0x25c4(%rbp)
   16893:	4c df 40 
   16896:	c7 85 60 de ff ff ff 	movl   $0xffffffff,-0x21a0(%rbp)
   1689d:	ff ff ff 
   168a0:	c7 85 64 de ff ff 8a 	movl   $0x3c5ab58a,-0x219c(%rbp)
   168a7:	b5 5a 3c 
   168aa:	c7 85 68 de ff ff ff 	movl   $0xffffffff,-0x2198(%rbp)
   168b1:	ff ff ff 
   168b4:	c7 85 6c de ff ff ff 	movl   $0xffffffff,-0x2194(%rbp)
   168bb:	ff ff ff 
   168be:	c7 85 70 de ff ff ff 	movl   $0xffffffff,-0x2190(%rbp)
   168c5:	ff ff ff 
   168c8:	c7 85 74 de ff ff ff 	movl   $0xffffffff,-0x218c(%rbp)
   168cf:	ff ff ff 
   168d2:	c7 85 78 de ff ff ff 	movl   $0xffffffff,-0x2188(%rbp)
   168d9:	ff ff ff 
   168dc:	c7 85 7c de ff ff 8a 	movl   $0x3c5ab58a,-0x2184(%rbp)
   168e3:	b5 5a 3c 
   168e6:	c7 85 80 de ff ff ff 	movl   $0xffffffff,-0x2180(%rbp)
   168ed:	ff ff ff 
   168f0:	48 8d 85 48 da ff ff 	lea    -0x25b8(%rbp),%rax
   168f7:	48 89 85 e0 e0 ff ff 	mov    %rax,-0x1f20(%rbp)
   168fe:	48 8d 05 73 b4 00 00 	lea    0xb473(%rip),%rax        # 21d78 <g_321+0x18>
   16905:	48 89 85 e8 e0 ff ff 	mov    %rax,-0x1f18(%rbp)
   1690c:	48 8d 05 65 b4 00 00 	lea    0xb465(%rip),%rax        # 21d78 <g_321+0x18>
   16913:	48 89 85 f0 e0 ff ff 	mov    %rax,-0x1f10(%rbp)
   1691a:	48 8d 85 48 da ff ff 	lea    -0x25b8(%rbp),%rax
   16921:	48 89 85 f8 e0 ff ff 	mov    %rax,-0x1f08(%rbp)
   16928:	48 8d 05 49 b4 00 00 	lea    0xb449(%rip),%rax        # 21d78 <g_321+0x18>
   1692f:	48 89 85 00 e1 ff ff 	mov    %rax,-0x1f00(%rbp)
   16936:	48 8d 05 3b b4 00 00 	lea    0xb43b(%rip),%rax        # 21d78 <g_321+0x18>
   1693d:	48 89 85 08 e1 ff ff 	mov    %rax,-0x1ef8(%rbp)
   16944:	48 8d 85 48 da ff ff 	lea    -0x25b8(%rbp),%rax
   1694b:	48 89 85 10 e1 ff ff 	mov    %rax,-0x1ef0(%rbp)
   16952:	48 8d 05 1f b4 00 00 	lea    0xb41f(%rip),%rax        # 21d78 <g_321+0x18>
   16959:	48 89 85 18 e1 ff ff 	mov    %rax,-0x1ee8(%rbp)
   16960:	48 8d 85 60 de ff ff 	lea    -0x21a0(%rbp),%rax
   16967:	48 83 c0 04          	add    $0x4,%rax
   1696b:	48 89 85 b8 db ff ff 	mov    %rax,-0x2448(%rbp)
   16972:	48 8d 05 07 8b 00 00 	lea    0x8b07(%rip),%rax        # 1f480 <g_293>
   16979:	48 39 85 b0 da ff ff 	cmp    %rax,-0x2550(%rbp)
   16980:	41 0f 95 c4          	setne  %r12b
   16984:	8b 85 d0 dd ff ff    	mov    -0x2230(%rbp),%eax
   1698a:	0f be d8             	movsbl %al,%ebx
   1698d:	48 8b 05 1c 57 00 00 	mov    0x571c(%rip),%rax        # 1c0b0 <l_173.5060+0x50>
   16994:	48 89 c7             	mov    %rax,%rdi
   16997:	e8 7a 2e ff ff       	callq  9816 <safe_unary_minus_func_int64_t_s>
   1699c:	8b 95 ac d9 ff ff    	mov    -0x2654(%rbp),%edx
   169a2:	89 d2                	mov    %edx,%edx
   169a4:	48 39 d0             	cmp    %rdx,%rax
   169a7:	0f 9c c0             	setl   %al
   169aa:	0f b6 c0             	movzbl %al,%eax
   169ad:	be 04 00 00 00       	mov    $0x4,%esi
   169b2:	89 c7                	mov    %eax,%edi
   169b4:	e8 aa 2b ff ff       	callq  9563 <safe_rshift_func_int16_t_s_u>
   169b9:	0f be c0             	movsbl %al,%eax
   169bc:	89 de                	mov    %ebx,%esi
   169be:	89 c7                	mov    %eax,%edi
   169c0:	e8 6c 28 ff ff       	callq  9231 <safe_mod_func_int8_t_s_s>
   169c5:	0f be d0             	movsbl %al,%edx
   169c8:	8b 05 ae 8a 00 00    	mov    0x8aae(%rip),%eax        # 1f47c <g_278+0x3c>
   169ce:	89 d6                	mov    %edx,%esi
   169d0:	89 c7                	mov    %eax,%edi
   169d2:	e8 f9 34 ff ff       	callq  9ed0 <safe_sub_func_uint32_t_u_u>
   169d7:	85 c0                	test   %eax,%eax
   169d9:	75 5a                	jne    16a35 <func_64+0x31f9>
   169db:	8b 85 d4 dd ff ff    	mov    -0x222c(%rbp),%eax
   169e1:	0f be d8             	movsbl %al,%ebx
   169e4:	48 8b 05 b5 b3 00 00 	mov    0xb3b5(%rip),%rax        # 21da0 <g_331>
   169eb:	48 8b 00             	mov    (%rax),%rax
   169ee:	48 8b 00             	mov    (%rax),%rax
   169f1:	48 8b 00             	mov    (%rax),%rax
   169f4:	0f b7 00             	movzwl (%rax),%eax
   169f7:	0f b7 d0             	movzwl %ax,%edx
   169fa:	0f b6 05 9c 8a 00 00 	movzbl 0x8a9c(%rip),%eax        # 1f49d <g_375>
   16a01:	0f b6 c0             	movzbl %al,%eax
   16a04:	f7 d0                	not    %eax
   16a06:	98                   	cwtl   
   16a07:	89 d6                	mov    %edx,%esi
   16a09:	89 c7                	mov    %eax,%edi
   16a0b:	e8 d1 2a ff ff       	callq  94e1 <safe_lshift_func_int16_t_s_u>
   16a10:	48 0f bf c0          	movswq %ax,%rax
   16a14:	83 e0 7f             	and    $0x7f,%eax
   16a17:	8b 15 0b 8a 00 00    	mov    0x8a0b(%rip),%edx        # 1f428 <g_267>
   16a1d:	89 d2                	mov    %edx,%edx
   16a1f:	48 39 d0             	cmp    %rdx,%rax
   16a22:	0f 9f c0             	setg   %al
   16a25:	0f b6 c0             	movzbl %al,%eax
   16a28:	89 de                	mov    %ebx,%esi
   16a2a:	89 c7                	mov    %eax,%edi
   16a2c:	e8 39 28 ff ff       	callq  926a <safe_div_func_int8_t_s_s>
   16a31:	84 c0                	test   %al,%al
   16a33:	74 07                	je     16a3c <func_64+0x3200>
   16a35:	b8 01 00 00 00       	mov    $0x1,%eax
   16a3a:	eb 05                	jmp    16a41 <func_64+0x3205>
   16a3c:	b8 00 00 00 00       	mov    $0x0,%eax
   16a41:	83 e0 01             	and    $0x1,%eax
   16a44:	44 31 e0             	xor    %r12d,%eax
   16a47:	84 c0                	test   %al,%al
   16a49:	74 50                	je     16a9b <func_64+0x325f>
   16a4b:	48 8d 85 c0 e8 ff ff 	lea    -0x1740(%rbp),%rax
   16a52:	48 05 94 02 00 00    	add    $0x294,%rax
   16a58:	48 89 85 e0 db ff ff 	mov    %rax,-0x2420(%rbp)
   16a5f:	8b 85 ac d9 ff ff    	mov    -0x2654(%rbp),%eax
   16a65:	89 c1                	mov    %eax,%ecx
   16a67:	48 8b 05 12 8a 00 00 	mov    0x8a12(%rip),%rax        # 1f480 <g_293>
   16a6e:	48 8d 50 01          	lea    0x1(%rax),%rdx
   16a72:	48 89 15 07 8a 00 00 	mov    %rdx,0x8a07(%rip)        # 1f480 <g_293>
   16a79:	48 39 c1             	cmp    %rax,%rcx
   16a7c:	0f 96 c0             	setbe  %al
   16a7f:	0f b6 d0             	movzbl %al,%edx
   16a82:	48 8b 85 e0 db ff ff 	mov    -0x2420(%rbp),%rax
   16a89:	8b 00                	mov    (%rax),%eax
   16a8b:	31 c2                	xor    %eax,%edx
   16a8d:	48 8b 85 e0 db ff ff 	mov    -0x2420(%rbp),%rax
   16a94:	89 10                	mov    %edx,(%rax)
   16a96:	e9 c7 0a 00 00       	jmpq   17562 <func_64+0x3d26>
   16a9b:	48 8d 85 d0 e4 ff ff 	lea    -0x1b30(%rbp),%rax
   16aa2:	48 05 cc 01 00 00    	add    $0x1cc,%rax
   16aa8:	48 89 85 c0 db ff ff 	mov    %rax,-0x2440(%rbp)
   16aaf:	48 8d 85 d0 e4 ff ff 	lea    -0x1b30(%rbp),%rax
   16ab6:	48 83 c0 64          	add    $0x64,%rax
   16aba:	48 89 85 c8 db ff ff 	mov    %rax,-0x2438(%rbp)
   16ac1:	48 8d 85 d0 dd ff ff 	lea    -0x2230(%rbp),%rax
   16ac8:	48 83 c0 04          	add    $0x4,%rax
   16acc:	48 89 85 d0 db ff ff 	mov    %rax,-0x2430(%rbp)
   16ad3:	48 8d 85 d0 dd ff ff 	lea    -0x2230(%rbp),%rax
   16ada:	48 89 85 d8 db ff ff 	mov    %rax,-0x2428(%rbp)
   16ae1:	66 c7 85 ca d9 ff ff 	movw   $0xf5b,-0x2636(%rbp)
   16ae8:	5b 0f 
   16aea:	48 8d 05 33 89 00 00 	lea    0x8933(%rip),%rax        # 1f424 <g_246>
   16af1:	48 89 85 b0 ec ff ff 	mov    %rax,-0x1350(%rbp)
   16af8:	48 8d 85 d4 d9 ff ff 	lea    -0x262c(%rbp),%rax
   16aff:	48 89 85 b8 ec ff ff 	mov    %rax,-0x1348(%rbp)
   16b06:	48 8d 05 17 89 00 00 	lea    0x8917(%rip),%rax        # 1f424 <g_246>
   16b0d:	48 89 85 c0 ec ff ff 	mov    %rax,-0x1340(%rbp)
   16b14:	48 8d 85 cc d9 ff ff 	lea    -0x2634(%rbp),%rax
   16b1b:	48 89 85 c8 ec ff ff 	mov    %rax,-0x1338(%rbp)
   16b22:	48 c7 85 d0 ec ff ff 	movq   $0x0,-0x1330(%rbp)
   16b29:	00 00 00 00 
   16b2d:	48 8d 05 f0 88 00 00 	lea    0x88f0(%rip),%rax        # 1f424 <g_246>
   16b34:	48 89 85 d8 ec ff ff 	mov    %rax,-0x1328(%rbp)
   16b3b:	48 c7 85 e0 ec ff ff 	movq   $0x0,-0x1320(%rbp)
   16b42:	00 00 00 00 
   16b46:	48 8d 85 d4 d9 ff ff 	lea    -0x262c(%rbp),%rax
   16b4d:	48 89 85 e8 ec ff ff 	mov    %rax,-0x1318(%rbp)
   16b54:	48 8d 85 d4 d9 ff ff 	lea    -0x262c(%rbp),%rax
   16b5b:	48 89 85 f0 ec ff ff 	mov    %rax,-0x1310(%rbp)
   16b62:	48 c7 85 f8 ec ff ff 	movq   $0x0,-0x1308(%rbp)
   16b69:	00 00 00 00 
   16b6d:	48 c7 85 00 ed ff ff 	movq   $0x0,-0x1300(%rbp)
   16b74:	00 00 00 00 
   16b78:	48 8d 05 b5 84 00 00 	lea    0x84b5(%rip),%rax        # 1f034 <g_4+0x4>
   16b7f:	48 89 85 08 ed ff ff 	mov    %rax,-0x12f8(%rbp)
   16b86:	48 c7 85 10 ed ff ff 	movq   $0x0,-0x12f0(%rbp)
   16b8d:	00 00 00 00 
   16b91:	48 c7 85 18 ed ff ff 	movq   $0x0,-0x12e8(%rbp)
   16b98:	00 00 00 00 
   16b9c:	48 8d 85 c0 e8 ff ff 	lea    -0x1740(%rbp),%rax
   16ba3:	48 05 bc 03 00 00    	add    $0x3bc,%rax
   16ba9:	48 89 85 20 ed ff ff 	mov    %rax,-0x12e0(%rbp)
   16bb0:	48 c7 85 28 ed ff ff 	movq   $0x0,-0x12d8(%rbp)
   16bb7:	00 00 00 00 
   16bbb:	48 8d 85 10 dd ff ff 	lea    -0x22f0(%rbp),%rax
   16bc2:	48 89 85 30 ed ff ff 	mov    %rax,-0x12d0(%rbp)
   16bc9:	48 8d 85 d4 d9 ff ff 	lea    -0x262c(%rbp),%rax
   16bd0:	48 89 85 38 ed ff ff 	mov    %rax,-0x12c8(%rbp)
   16bd7:	48 8d 85 c0 e8 ff ff 	lea    -0x1740(%rbp),%rax
   16bde:	48 05 c0 00 00 00    	add    $0xc0,%rax
   16be4:	48 89 85 40 ed ff ff 	mov    %rax,-0x12c0(%rbp)
   16beb:	48 8d 85 d4 d9 ff ff 	lea    -0x262c(%rbp),%rax
   16bf2:	48 89 85 48 ed ff ff 	mov    %rax,-0x12b8(%rbp)
   16bf9:	48 8d 85 c0 e8 ff ff 	lea    -0x1740(%rbp),%rax
   16c00:	48 05 bc 03 00 00    	add    $0x3bc,%rax
   16c06:	48 89 85 50 ed ff ff 	mov    %rax,-0x12b0(%rbp)
   16c0d:	48 8d 05 1c 84 00 00 	lea    0x841c(%rip),%rax        # 1f030 <g_4>
   16c14:	48 89 85 58 ed ff ff 	mov    %rax,-0x12a8(%rbp)
   16c1b:	48 8d 85 d4 d9 ff ff 	lea    -0x262c(%rbp),%rax
   16c22:	48 89 85 60 ed ff ff 	mov    %rax,-0x12a0(%rbp)
   16c29:	48 8d 05 04 84 00 00 	lea    0x8404(%rip),%rax        # 1f034 <g_4+0x4>
   16c30:	48 89 85 68 ed ff ff 	mov    %rax,-0x1298(%rbp)
   16c37:	48 c7 85 70 ed ff ff 	movq   $0x0,-0x1290(%rbp)
   16c3e:	00 00 00 00 
   16c42:	48 c7 85 78 ed ff ff 	movq   $0x0,-0x1288(%rbp)
   16c49:	00 00 00 00 
   16c4d:	48 8d 85 d4 d9 ff ff 	lea    -0x262c(%rbp),%rax
   16c54:	48 89 85 80 ed ff ff 	mov    %rax,-0x1280(%rbp)
   16c5b:	48 c7 85 88 ed ff ff 	movq   $0x0,-0x1278(%rbp)
   16c62:	00 00 00 00 
   16c66:	48 c7 85 90 ed ff ff 	movq   $0x0,-0x1270(%rbp)
   16c6d:	00 00 00 00 
   16c71:	48 8d 05 ac 87 00 00 	lea    0x87ac(%rip),%rax        # 1f424 <g_246>
   16c78:	48 89 85 98 ed ff ff 	mov    %rax,-0x1268(%rbp)
   16c7f:	48 c7 85 a0 ed ff ff 	movq   $0x0,-0x1260(%rbp)
   16c86:	00 00 00 00 
   16c8a:	48 c7 85 a8 ed ff ff 	movq   $0x0,-0x1258(%rbp)
   16c91:	00 00 00 00 
   16c95:	48 8d 05 88 87 00 00 	lea    0x8788(%rip),%rax        # 1f424 <g_246>
   16c9c:	48 89 85 b0 ed ff ff 	mov    %rax,-0x1250(%rbp)
   16ca3:	48 c7 85 b8 ed ff ff 	movq   $0x0,-0x1248(%rbp)
   16caa:	00 00 00 00 
   16cae:	48 8d 85 d0 d9 ff ff 	lea    -0x2630(%rbp),%rax
   16cb5:	48 89 85 c0 ed ff ff 	mov    %rax,-0x1240(%rbp)
   16cbc:	48 8d 05 71 83 00 00 	lea    0x8371(%rip),%rax        # 1f034 <g_4+0x4>
   16cc3:	48 89 85 c8 ed ff ff 	mov    %rax,-0x1238(%rbp)
   16cca:	48 8d 85 d4 d9 ff ff 	lea    -0x262c(%rbp),%rax
   16cd1:	48 89 85 d0 ed ff ff 	mov    %rax,-0x1230(%rbp)
   16cd8:	48 8d 85 c0 e8 ff ff 	lea    -0x1740(%rbp),%rax
   16cdf:	48 05 c0 00 00 00    	add    $0xc0,%rax
   16ce5:	48 89 85 d8 ed ff ff 	mov    %rax,-0x1228(%rbp)
   16cec:	48 8d 85 d0 e4 ff ff 	lea    -0x1b30(%rbp),%rax
   16cf3:	48 05 7c 01 00 00    	add    $0x17c,%rax
   16cf9:	48 89 85 e0 ed ff ff 	mov    %rax,-0x1220(%rbp)
   16d00:	48 c7 85 e8 ed ff ff 	movq   $0x0,-0x1218(%rbp)
   16d07:	00 00 00 00 
   16d0b:	48 8d 85 d4 d9 ff ff 	lea    -0x262c(%rbp),%rax
   16d12:	48 89 85 f0 ed ff ff 	mov    %rax,-0x1210(%rbp)
   16d19:	48 8d 05 14 83 00 00 	lea    0x8314(%rip),%rax        # 1f034 <g_4+0x4>
   16d20:	48 89 85 f8 ed ff ff 	mov    %rax,-0x1208(%rbp)
   16d27:	48 c7 85 00 ee ff ff 	movq   $0x0,-0x1200(%rbp)
   16d2e:	00 00 00 00 
   16d32:	48 c7 85 08 ee ff ff 	movq   $0x0,-0x11f8(%rbp)
   16d39:	00 00 00 00 
   16d3d:	48 8d 05 e0 86 00 00 	lea    0x86e0(%rip),%rax        # 1f424 <g_246>
   16d44:	48 89 85 10 ee ff ff 	mov    %rax,-0x11f0(%rbp)
   16d4b:	48 c7 85 18 ee ff ff 	movq   $0x0,-0x11e8(%rbp)
   16d52:	00 00 00 00 
   16d56:	48 8d 85 cc d9 ff ff 	lea    -0x2634(%rbp),%rax
   16d5d:	48 89 85 20 ee ff ff 	mov    %rax,-0x11e0(%rbp)
   16d64:	48 8d 05 b9 86 00 00 	lea    0x86b9(%rip),%rax        # 1f424 <g_246>
   16d6b:	48 89 85 28 ee ff ff 	mov    %rax,-0x11d8(%rbp)
   16d72:	48 8d 85 d4 d9 ff ff 	lea    -0x262c(%rbp),%rax
   16d79:	48 89 85 30 ee ff ff 	mov    %rax,-0x11d0(%rbp)
   16d80:	48 c7 85 38 ee ff ff 	movq   $0x0,-0x11c8(%rbp)
   16d87:	00 00 00 00 
   16d8b:	48 8d 85 d4 d9 ff ff 	lea    -0x262c(%rbp),%rax
   16d92:	48 89 85 40 ee ff ff 	mov    %rax,-0x11c0(%rbp)
   16d99:	48 8d 85 d0 d9 ff ff 	lea    -0x2630(%rbp),%rax
   16da0:	48 89 85 48 ee ff ff 	mov    %rax,-0x11b8(%rbp)
   16da7:	48 8d 85 d4 d9 ff ff 	lea    -0x262c(%rbp),%rax
   16dae:	48 89 85 50 ee ff ff 	mov    %rax,-0x11b0(%rbp)
   16db5:	48 8d 05 78 82 00 00 	lea    0x8278(%rip),%rax        # 1f034 <g_4+0x4>
   16dbc:	48 89 85 58 ee ff ff 	mov    %rax,-0x11a8(%rbp)
   16dc3:	48 8d 85 d4 d9 ff ff 	lea    -0x262c(%rbp),%rax
   16dca:	48 89 85 60 ee ff ff 	mov    %rax,-0x11a0(%rbp)
   16dd1:	48 8d 05 4c 86 00 00 	lea    0x864c(%rip),%rax        # 1f424 <g_246>
   16dd8:	48 89 85 68 ee ff ff 	mov    %rax,-0x1198(%rbp)
   16ddf:	48 8d 85 c0 e8 ff ff 	lea    -0x1740(%rbp),%rax
   16de6:	48 05 bc 03 00 00    	add    $0x3bc,%rax
   16dec:	48 89 85 70 ee ff ff 	mov    %rax,-0x1190(%rbp)
   16df3:	48 c7 85 78 ee ff ff 	movq   $0x0,-0x1188(%rbp)
   16dfa:	00 00 00 00 
   16dfe:	48 c7 85 80 ee ff ff 	movq   $0x0,-0x1180(%rbp)
   16e05:	00 00 00 00 
   16e09:	48 8d 85 d4 d9 ff ff 	lea    -0x262c(%rbp),%rax
   16e10:	48 89 85 88 ee ff ff 	mov    %rax,-0x1178(%rbp)
   16e17:	48 8d 05 12 82 00 00 	lea    0x8212(%rip),%rax        # 1f030 <g_4>
   16e1e:	48 89 85 90 ee ff ff 	mov    %rax,-0x1170(%rbp)
   16e25:	48 c7 85 98 ee ff ff 	movq   $0x0,-0x1168(%rbp)
   16e2c:	00 00 00 00 
   16e30:	48 8d 85 c0 e8 ff ff 	lea    -0x1740(%rbp),%rax
   16e37:	48 05 bc 03 00 00    	add    $0x3bc,%rax
   16e3d:	48 89 85 a0 ee ff ff 	mov    %rax,-0x1160(%rbp)
   16e44:	48 c7 85 a8 ee ff ff 	movq   $0x0,-0x1158(%rbp)
   16e4b:	00 00 00 00 
   16e4f:	48 c7 85 b0 ee ff ff 	movq   $0x0,-0x1150(%rbp)
   16e56:	00 00 00 00 
   16e5a:	48 8d 05 d3 81 00 00 	lea    0x81d3(%rip),%rax        # 1f034 <g_4+0x4>
   16e61:	48 89 85 b8 ee ff ff 	mov    %rax,-0x1148(%rbp)
   16e68:	48 c7 85 c0 ee ff ff 	movq   $0x0,-0x1140(%rbp)
   16e6f:	00 00 00 00 
   16e73:	48 8d 05 b6 81 00 00 	lea    0x81b6(%rip),%rax        # 1f030 <g_4>
   16e7a:	48 89 85 c8 ee ff ff 	mov    %rax,-0x1138(%rbp)
   16e81:	48 8d 85 d4 d9 ff ff 	lea    -0x262c(%rbp),%rax
   16e88:	48 89 85 d0 ee ff ff 	mov    %rax,-0x1130(%rbp)
   16e8f:	48 8d 85 c0 e8 ff ff 	lea    -0x1740(%rbp),%rax
   16e96:	48 05 c0 00 00 00    	add    $0xc0,%rax
   16e9c:	48 89 85 d8 ee ff ff 	mov    %rax,-0x1128(%rbp)
   16ea3:	48 8d 85 d0 d9 ff ff 	lea    -0x2630(%rbp),%rax
   16eaa:	48 89 85 e0 ee ff ff 	mov    %rax,-0x1120(%rbp)
   16eb1:	48 8d 05 6c 85 00 00 	lea    0x856c(%rip),%rax        # 1f424 <g_246>
   16eb8:	48 89 85 e8 ee ff ff 	mov    %rax,-0x1118(%rbp)
   16ebf:	48 8d 85 c0 e8 ff ff 	lea    -0x1740(%rbp),%rax
   16ec6:	48 05 c0 00 00 00    	add    $0xc0,%rax
   16ecc:	48 89 85 f0 ee ff ff 	mov    %rax,-0x1110(%rbp)
   16ed3:	48 8d 85 d0 d9 ff ff 	lea    -0x2630(%rbp),%rax
   16eda:	48 89 85 f8 ee ff ff 	mov    %rax,-0x1108(%rbp)
   16ee1:	48 8d 05 3c 85 00 00 	lea    0x853c(%rip),%rax        # 1f424 <g_246>
   16ee8:	48 89 85 00 ef ff ff 	mov    %rax,-0x1100(%rbp)
   16eef:	48 c7 85 08 ef ff ff 	movq   $0x0,-0x10f8(%rbp)
   16ef6:	00 00 00 00 
   16efa:	48 c7 85 10 ef ff ff 	movq   $0x0,-0x10f0(%rbp)
   16f01:	00 00 00 00 
   16f05:	48 8d 05 28 81 00 00 	lea    0x8128(%rip),%rax        # 1f034 <g_4+0x4>
   16f0c:	48 89 85 18 ef ff ff 	mov    %rax,-0x10e8(%rbp)
   16f13:	48 8d 85 d0 dd ff ff 	lea    -0x2230(%rbp),%rax
   16f1a:	48 83 c0 04          	add    $0x4,%rax
   16f1e:	48 89 85 20 ef ff ff 	mov    %rax,-0x10e0(%rbp)
   16f25:	48 c7 85 28 ef ff ff 	movq   $0x0,-0x10d8(%rbp)
   16f2c:	00 00 00 00 
   16f30:	48 8d 85 d0 e4 ff ff 	lea    -0x1b30(%rbp),%rax
   16f37:	48 05 7c 01 00 00    	add    $0x17c,%rax
   16f3d:	48 89 85 30 ef ff ff 	mov    %rax,-0x10d0(%rbp)
   16f44:	48 c7 85 38 ef ff ff 	movq   $0x0,-0x10c8(%rbp)
   16f4b:	00 00 00 00 
   16f4f:	48 c7 85 40 ef ff ff 	movq   $0x0,-0x10c0(%rbp)
   16f56:	00 00 00 00 
   16f5a:	48 8d 05 d3 80 00 00 	lea    0x80d3(%rip),%rax        # 1f034 <g_4+0x4>
   16f61:	48 89 85 48 ef ff ff 	mov    %rax,-0x10b8(%rbp)
   16f68:	48 8d 85 d4 d9 ff ff 	lea    -0x262c(%rbp),%rax
   16f6f:	48 89 85 50 ef ff ff 	mov    %rax,-0x10b0(%rbp)
   16f76:	48 8d 85 d0 dd ff ff 	lea    -0x2230(%rbp),%rax
   16f7d:	48 83 c0 04          	add    $0x4,%rax
   16f81:	48 89 85 58 ef ff ff 	mov    %rax,-0x10a8(%rbp)
   16f88:	48 8d 85 10 dd ff ff 	lea    -0x22f0(%rbp),%rax
   16f8f:	48 89 85 60 ef ff ff 	mov    %rax,-0x10a0(%rbp)
   16f96:	48 c7 85 68 ef ff ff 	movq   $0x0,-0x1098(%rbp)
   16f9d:	00 00 00 00 
   16fa1:	48 c7 85 70 ef ff ff 	movq   $0x0,-0x1090(%rbp)
   16fa8:	00 00 00 00 
   16fac:	48 8d 85 10 dd ff ff 	lea    -0x22f0(%rbp),%rax
   16fb3:	48 89 85 78 ef ff ff 	mov    %rax,-0x1088(%rbp)
   16fba:	48 c7 85 80 ef ff ff 	movq   $0x0,-0x1080(%rbp)
   16fc1:	00 00 00 00 
   16fc5:	48 c7 85 88 ef ff ff 	movq   $0x0,-0x1078(%rbp)
   16fcc:	00 00 00 00 
   16fd0:	48 8d 05 4d 84 00 00 	lea    0x844d(%rip),%rax        # 1f424 <g_246>
   16fd7:	48 89 85 90 ef ff ff 	mov    %rax,-0x1070(%rbp)
   16fde:	48 8d 85 d0 e4 ff ff 	lea    -0x1b30(%rbp),%rax
   16fe5:	48 05 e0 03 00 00    	add    $0x3e0,%rax
   16feb:	48 89 85 98 ef ff ff 	mov    %rax,-0x1068(%rbp)
   16ff2:	48 8d 85 d0 d9 ff ff 	lea    -0x2630(%rbp),%rax
   16ff9:	48 89 85 a0 ef ff ff 	mov    %rax,-0x1060(%rbp)
   17000:	48 c7 85 a8 ef ff ff 	movq   $0x0,-0x1058(%rbp)
   17007:	00 00 00 00 
   1700b:	48 8d 05 12 84 00 00 	lea    0x8412(%rip),%rax        # 1f424 <g_246>
   17012:	48 89 85 b0 ef ff ff 	mov    %rax,-0x1050(%rbp)
   17019:	48 c7 85 b8 ef ff ff 	movq   $0x0,-0x1048(%rbp)
   17020:	00 00 00 00 
   17024:	48 8d 85 d0 d9 ff ff 	lea    -0x2630(%rbp),%rax
   1702b:	48 89 85 c0 ef ff ff 	mov    %rax,-0x1040(%rbp)
   17032:	48 c7 85 c8 ef ff ff 	movq   $0x0,-0x1038(%rbp)
   17039:	00 00 00 00 
   1703d:	48 c7 85 d0 ef ff ff 	movq   $0x0,-0x1030(%rbp)
   17044:	00 00 00 00 
   17048:	48 8d 05 d5 83 00 00 	lea    0x83d5(%rip),%rax        # 1f424 <g_246>
   1704f:	48 89 85 d8 ef ff ff 	mov    %rax,-0x1028(%rbp)
   17056:	48 c7 85 e0 ef ff ff 	movq   $0x0,-0x1020(%rbp)
   1705d:	00 00 00 00 
   17061:	48 8d 05 bc 83 00 00 	lea    0x83bc(%rip),%rax        # 1f424 <g_246>
   17068:	48 89 85 e8 ef ff ff 	mov    %rax,-0x1018(%rbp)
   1706f:	48 8d 85 d0 d9 ff ff 	lea    -0x2630(%rbp),%rax
   17076:	48 89 85 f0 ef ff ff 	mov    %rax,-0x1010(%rbp)
   1707d:	48 8d 85 d0 dd ff ff 	lea    -0x2230(%rbp),%rax
   17084:	48 83 c0 04          	add    $0x4,%rax
   17088:	48 89 85 f8 ef ff ff 	mov    %rax,-0x1008(%rbp)
   1708f:	48 c7 85 00 f0 ff ff 	movq   $0x0,-0x1000(%rbp)
   17096:	00 00 00 00 
   1709a:	48 c7 85 08 f0 ff ff 	movq   $0x0,-0xff8(%rbp)
   170a1:	00 00 00 00 
   170a5:	48 8d 85 58 da ff ff 	lea    -0x25a8(%rbp),%rax
   170ac:	48 89 85 10 f0 ff ff 	mov    %rax,-0xff0(%rbp)
   170b3:	48 8d 85 d0 dd ff ff 	lea    -0x2230(%rbp),%rax
   170ba:	48 83 c0 04          	add    $0x4,%rax
   170be:	48 89 85 18 f0 ff ff 	mov    %rax,-0xfe8(%rbp)
   170c5:	48 8d 05 58 83 00 00 	lea    0x8358(%rip),%rax        # 1f424 <g_246>
   170cc:	48 89 85 20 f0 ff ff 	mov    %rax,-0xfe0(%rbp)
   170d3:	48 c7 85 28 f0 ff ff 	movq   $0x0,-0xfd8(%rbp)
   170da:	00 00 00 00 
   170de:	48 8d 85 d0 dd ff ff 	lea    -0x2230(%rbp),%rax
   170e5:	48 83 c0 04          	add    $0x4,%rax
   170e9:	48 89 85 30 f0 ff ff 	mov    %rax,-0xfd0(%rbp)
   170f0:	48 8d 85 10 dd ff ff 	lea    -0x22f0(%rbp),%rax
   170f7:	48 89 85 38 f0 ff ff 	mov    %rax,-0xfc8(%rbp)
   170fe:	48 c7 85 40 f0 ff ff 	movq   $0x0,-0xfc0(%rbp)
   17105:	00 00 00 00 
   17109:	48 8d 85 d0 dd ff ff 	lea    -0x2230(%rbp),%rax
   17110:	48 83 c0 04          	add    $0x4,%rax
   17114:	48 89 85 48 f0 ff ff 	mov    %rax,-0xfb8(%rbp)
   1711b:	48 8d 85 10 dd ff ff 	lea    -0x22f0(%rbp),%rax
   17122:	48 89 85 50 f0 ff ff 	mov    %rax,-0xfb0(%rbp)
   17129:	48 c7 85 58 f0 ff ff 	movq   $0x0,-0xfa8(%rbp)
   17130:	00 00 00 00 
   17134:	48 8d 85 d0 e4 ff ff 	lea    -0x1b30(%rbp),%rax
   1713b:	48 05 e0 03 00 00    	add    $0x3e0,%rax
   17141:	48 89 85 60 f0 ff ff 	mov    %rax,-0xfa0(%rbp)
   17148:	48 8d 85 d4 d9 ff ff 	lea    -0x262c(%rbp),%rax
   1714f:	48 89 85 68 f0 ff ff 	mov    %rax,-0xf98(%rbp)
   17156:	48 8d 85 10 dd ff ff 	lea    -0x22f0(%rbp),%rax
   1715d:	48 83 c0 0c          	add    $0xc,%rax
   17161:	48 89 85 70 f0 ff ff 	mov    %rax,-0xf90(%rbp)
   17168:	48 c7 85 78 f0 ff ff 	movq   $0x0,-0xf88(%rbp)
   1716f:	00 00 00 00 
   17173:	48 8d 85 d4 d9 ff ff 	lea    -0x262c(%rbp),%rax
   1717a:	48 89 85 80 f0 ff ff 	mov    %rax,-0xf80(%rbp)
   17181:	48 8d 85 58 da ff ff 	lea    -0x25a8(%rbp),%rax
   17188:	48 89 85 88 f0 ff ff 	mov    %rax,-0xf78(%rbp)
   1718f:	48 c7 85 90 f0 ff ff 	movq   $0x0,-0xf70(%rbp)
   17196:	00 00 00 00 
   1719a:	48 8d 85 d4 d9 ff ff 	lea    -0x262c(%rbp),%rax
   171a1:	48 89 85 98 f0 ff ff 	mov    %rax,-0xf68(%rbp)
   171a8:	48 c7 85 a0 f0 ff ff 	movq   $0x0,-0xf60(%rbp)
   171af:	00 00 00 00 
   171b3:	48 8d 85 d0 d9 ff ff 	lea    -0x2630(%rbp),%rax
   171ba:	48 89 85 a8 f0 ff ff 	mov    %rax,-0xf58(%rbp)
   171c1:	48 8d 85 10 dd ff ff 	lea    -0x22f0(%rbp),%rax
   171c8:	48 89 85 b0 f0 ff ff 	mov    %rax,-0xf50(%rbp)
   171cf:	48 c7 85 b8 f0 ff ff 	movq   $0x0,-0xf48(%rbp)
   171d6:	00 00 00 00 
   171da:	48 8d 85 d0 dd ff ff 	lea    -0x2230(%rbp),%rax
   171e1:	48 89 85 c0 f0 ff ff 	mov    %rax,-0xf40(%rbp)
   171e8:	48 8d 85 10 dd ff ff 	lea    -0x22f0(%rbp),%rax
   171ef:	48 89 85 c8 f0 ff ff 	mov    %rax,-0xf38(%rbp)
   171f6:	48 8d 85 d0 dd ff ff 	lea    -0x2230(%rbp),%rax
   171fd:	48 83 c0 04          	add    $0x4,%rax
   17201:	48 89 85 d0 f0 ff ff 	mov    %rax,-0xf30(%rbp)
   17208:	48 c7 85 d8 f0 ff ff 	movq   $0x0,-0xf28(%rbp)
   1720f:	00 00 00 00 
   17213:	48 8d 05 0a 82 00 00 	lea    0x820a(%rip),%rax        # 1f424 <g_246>
   1721a:	48 89 85 e0 f0 ff ff 	mov    %rax,-0xf20(%rbp)
   17221:	48 8d 85 d0 dd ff ff 	lea    -0x2230(%rbp),%rax
   17228:	48 83 c0 04          	add    $0x4,%rax
   1722c:	48 89 85 e8 f0 ff ff 	mov    %rax,-0xf18(%rbp)
   17233:	48 8d 85 d0 dd ff ff 	lea    -0x2230(%rbp),%rax
   1723a:	48 83 c0 04          	add    $0x4,%rax
   1723e:	48 89 85 f0 f0 ff ff 	mov    %rax,-0xf10(%rbp)
   17245:	48 c7 85 f8 f0 ff ff 	movq   $0x0,-0xf08(%rbp)
   1724c:	00 00 00 00 
   17250:	48 8d 85 10 dd ff ff 	lea    -0x22f0(%rbp),%rax
   17257:	48 83 c0 0c          	add    $0xc,%rax
   1725b:	48 89 85 00 f1 ff ff 	mov    %rax,-0xf00(%rbp)
   17262:	48 8d 85 d0 dd ff ff 	lea    -0x2230(%rbp),%rax
   17269:	48 83 c0 04          	add    $0x4,%rax
   1726d:	48 89 85 08 f1 ff ff 	mov    %rax,-0xef8(%rbp)
   17274:	48 8d 85 d0 d9 ff ff 	lea    -0x2630(%rbp),%rax
   1727b:	48 89 85 10 f1 ff ff 	mov    %rax,-0xef0(%rbp)
   17282:	48 8d 85 cc d9 ff ff 	lea    -0x2634(%rbp),%rax
   17289:	48 89 85 18 f1 ff ff 	mov    %rax,-0xee8(%rbp)
   17290:	48 c7 85 20 f1 ff ff 	movq   $0x0,-0xee0(%rbp)
   17297:	00 00 00 00 
   1729b:	48 8d 05 82 81 00 00 	lea    0x8182(%rip),%rax        # 1f424 <g_246>
   172a2:	48 89 85 28 f1 ff ff 	mov    %rax,-0xed8(%rbp)
   172a9:	48 8d 85 d0 dd ff ff 	lea    -0x2230(%rbp),%rax
   172b0:	48 83 c0 04          	add    $0x4,%rax
   172b4:	48 89 85 30 f1 ff ff 	mov    %rax,-0xed0(%rbp)
   172bb:	48 8d 85 d0 d9 ff ff 	lea    -0x2630(%rbp),%rax
   172c2:	48 89 85 38 f1 ff ff 	mov    %rax,-0xec8(%rbp)
   172c9:	48 8d 85 d0 d9 ff ff 	lea    -0x2630(%rbp),%rax
   172d0:	48 89 85 40 f1 ff ff 	mov    %rax,-0xec0(%rbp)
   172d7:	48 c7 85 48 f1 ff ff 	movq   $0x0,-0xeb8(%rbp)
   172de:	00 00 00 00 
   172e2:	48 c7 85 50 f1 ff ff 	movq   $0x0,-0xeb0(%rbp)
   172e9:	00 00 00 00 
   172ed:	48 c7 85 58 f1 ff ff 	movq   $0x0,-0xea8(%rbp)
   172f4:	00 00 00 00 
   172f8:	48 8d 85 d0 e4 ff ff 	lea    -0x1b30(%rbp),%rax
   172ff:	48 05 e0 03 00 00    	add    $0x3e0,%rax
   17305:	48 89 85 60 f1 ff ff 	mov    %rax,-0xea0(%rbp)
   1730c:	48 c7 85 68 f1 ff ff 	movq   $0x0,-0xe98(%rbp)
   17313:	00 00 00 00 
   17317:	48 8d 05 06 81 00 00 	lea    0x8106(%rip),%rax        # 1f424 <g_246>
   1731e:	48 89 85 70 f1 ff ff 	mov    %rax,-0xe90(%rbp)
   17325:	48 c7 85 78 f1 ff ff 	movq   $0x0,-0xe88(%rbp)
   1732c:	00 00 00 00 
   17330:	48 8d 85 d0 e4 ff ff 	lea    -0x1b30(%rbp),%rax
   17337:	48 05 e0 03 00 00    	add    $0x3e0,%rax
   1733d:	48 89 85 80 f1 ff ff 	mov    %rax,-0xe80(%rbp)
   17344:	48 8d 85 10 dd ff ff 	lea    -0x22f0(%rbp),%rax
   1734b:	48 89 85 88 f1 ff ff 	mov    %rax,-0xe78(%rbp)
   17352:	48 c7 85 90 f1 ff ff 	movq   $0x0,-0xe70(%rbp)
   17359:	00 00 00 00 
   1735d:	48 8d 85 d0 e4 ff ff 	lea    -0x1b30(%rbp),%rax
   17364:	48 05 e0 03 00 00    	add    $0x3e0,%rax
   1736a:	48 89 85 98 f1 ff ff 	mov    %rax,-0xe68(%rbp)
   17371:	48 8d 85 10 dd ff ff 	lea    -0x22f0(%rbp),%rax
   17378:	48 89 85 a0 f1 ff ff 	mov    %rax,-0xe60(%rbp)
   1737f:	48 8d 85 cc d9 ff ff 	lea    -0x2634(%rbp),%rax
   17386:	48 89 85 a8 f1 ff ff 	mov    %rax,-0xe58(%rbp)
   1738d:	48 8d 85 58 da ff ff 	lea    -0x25a8(%rbp),%rax
   17394:	48 89 85 b0 f1 ff ff 	mov    %rax,-0xe50(%rbp)
   1739b:	48 8d 85 d4 d9 ff ff 	lea    -0x262c(%rbp),%rax
   173a2:	48 89 85 b8 f1 ff ff 	mov    %rax,-0xe48(%rbp)
   173a9:	48 8d 85 d0 d9 ff ff 	lea    -0x2630(%rbp),%rax
   173b0:	48 89 85 c0 f1 ff ff 	mov    %rax,-0xe40(%rbp)
   173b7:	48 8d 85 d0 dd ff ff 	lea    -0x2230(%rbp),%rax
   173be:	48 83 c0 04          	add    $0x4,%rax
   173c2:	48 89 85 c8 f1 ff ff 	mov    %rax,-0xe38(%rbp)
   173c9:	48 8d 85 d4 d9 ff ff 	lea    -0x262c(%rbp),%rax
   173d0:	48 89 85 d0 f1 ff ff 	mov    %rax,-0xe30(%rbp)
   173d7:	48 8d 85 d0 e4 ff ff 	lea    -0x1b30(%rbp),%rax
   173de:	48 05 e0 03 00 00    	add    $0x3e0,%rax
   173e4:	48 89 85 d8 f1 ff ff 	mov    %rax,-0xe28(%rbp)
   173eb:	48 c7 85 e0 f1 ff ff 	movq   $0x0,-0xe20(%rbp)
   173f2:	00 00 00 00 
   173f6:	48 8d 85 d4 d9 ff ff 	lea    -0x262c(%rbp),%rax
   173fd:	48 89 85 e8 f1 ff ff 	mov    %rax,-0xe18(%rbp)
   17404:	48 8d 85 d0 dd ff ff 	lea    -0x2230(%rbp),%rax
   1740b:	48 83 c0 04          	add    $0x4,%rax
   1740f:	48 89 85 f0 f1 ff ff 	mov    %rax,-0xe10(%rbp)
   17416:	48 8d 85 10 dd ff ff 	lea    -0x22f0(%rbp),%rax
   1741d:	48 83 c0 0c          	add    $0xc,%rax
   17421:	48 89 85 f8 f1 ff ff 	mov    %rax,-0xe08(%rbp)
   17428:	48 8d 85 10 dd ff ff 	lea    -0x22f0(%rbp),%rax
   1742f:	48 89 85 00 f2 ff ff 	mov    %rax,-0xe00(%rbp)
   17436:	48 8d 85 d0 dd ff ff 	lea    -0x2230(%rbp),%rax
   1743d:	48 89 85 08 f2 ff ff 	mov    %rax,-0xdf8(%rbp)
   17444:	48 c7 85 10 f2 ff ff 	movq   $0x0,-0xdf0(%rbp)
   1744b:	00 00 00 00 
   1744f:	48 8d 85 10 dd ff ff 	lea    -0x22f0(%rbp),%rax
   17456:	48 89 85 18 f2 ff ff 	mov    %rax,-0xde8(%rbp)
   1745d:	48 c7 85 20 f2 ff ff 	movq   $0x0,-0xde0(%rbp)
   17464:	00 00 00 00 
   17468:	48 8d 85 d0 dd ff ff 	lea    -0x2230(%rbp),%rax
   1746f:	48 83 c0 04          	add    $0x4,%rax
   17473:	48 89 85 28 f2 ff ff 	mov    %rax,-0xdd8(%rbp)
   1747a:	48 8d 05 a3 7f 00 00 	lea    0x7fa3(%rip),%rax        # 1f424 <g_246>
   17481:	48 89 85 30 f2 ff ff 	mov    %rax,-0xdd0(%rbp)
   17488:	48 8d 85 58 da ff ff 	lea    -0x25a8(%rbp),%rax
   1748f:	48 89 85 38 f2 ff ff 	mov    %rax,-0xdc8(%rbp)
   17496:	48 8d 85 58 da ff ff 	lea    -0x25a8(%rbp),%rax
   1749d:	48 89 85 40 f2 ff ff 	mov    %rax,-0xdc0(%rbp)
   174a4:	48 c7 85 48 f2 ff ff 	movq   $0x0,-0xdb8(%rbp)
   174ab:	00 00 00 00 
   174af:	48 8d 85 d0 d9 ff ff 	lea    -0x2630(%rbp),%rax
   174b6:	48 89 85 50 f2 ff ff 	mov    %rax,-0xdb0(%rbp)
   174bd:	48 c7 85 58 f2 ff ff 	movq   $0x0,-0xda8(%rbp)
   174c4:	00 00 00 00 
   174c8:	48 8d 85 d0 d9 ff ff 	lea    -0x2630(%rbp),%rax
   174cf:	48 89 85 60 f2 ff ff 	mov    %rax,-0xda0(%rbp)
   174d6:	48 8d 05 47 7f 00 00 	lea    0x7f47(%rip),%rax        # 1f424 <g_246>
   174dd:	48 89 85 68 f2 ff ff 	mov    %rax,-0xd98(%rbp)
   174e4:	48 8d 85 d0 dd ff ff 	lea    -0x2230(%rbp),%rax
   174eb:	48 89 85 70 f2 ff ff 	mov    %rax,-0xd90(%rbp)
   174f2:	48 8d 05 2b 7f 00 00 	lea    0x7f2b(%rip),%rax        # 1f424 <g_246>
   174f9:	48 89 85 78 f2 ff ff 	mov    %rax,-0xd88(%rbp)
   17500:	48 c7 85 80 f2 ff ff 	movq   $0x0,-0xd80(%rbp)
   17507:	00 00 00 00 
   1750b:	48 8d 85 10 dd ff ff 	lea    -0x22f0(%rbp),%rax
   17512:	48 83 c0 0c          	add    $0xc,%rax
   17516:	48 89 85 88 f2 ff ff 	mov    %rax,-0xd78(%rbp)
   1751d:	48 8d 85 d0 d9 ff ff 	lea    -0x2630(%rbp),%rax
   17524:	48 89 85 90 f2 ff ff 	mov    %rax,-0xd70(%rbp)
   1752b:	48 c7 85 98 f2 ff ff 	movq   $0x0,-0xd68(%rbp)
   17532:	00 00 00 00 
   17536:	48 8d 85 d0 dd ff ff 	lea    -0x2230(%rbp),%rax
   1753d:	48 83 c0 04          	add    $0x4,%rax
   17541:	48 89 85 a0 f2 ff ff 	mov    %rax,-0xd60(%rbp)
   17548:	48 c7 85 a8 f2 ff ff 	movq   $0x0,-0xd58(%rbp)
   1754f:	00 00 00 00 
   17553:	8b 85 d8 d9 ff ff    	mov    -0x2628(%rbp),%eax
   17559:	83 c0 01             	add    $0x1,%eax
   1755c:	89 85 d8 d9 ff ff    	mov    %eax,-0x2628(%rbp)
   17562:	83 bd dc d9 ff ff 00 	cmpl   $0x0,-0x2624(%rbp)
   17569:	74 06                	je     17571 <func_64+0x3d35>
   1756b:	90                   	nop
   1756c:	e9 15 1b 00 00       	jmpq   19086 <func_64+0x584a>
   17571:	c7 85 d4 d9 ff ff 00 	movl   $0x0,-0x262c(%rbp)
   17578:	00 00 00 
   1757b:	eb 73                	jmp    175f0 <func_64+0x3db4>
   1757d:	c7 85 14 da ff ff 00 	movl   $0x0,-0x25ec(%rbp)
   17584:	00 00 00 
   17587:	eb 22                	jmp    175ab <func_64+0x3d6f>
   17589:	8b 85 14 da ff ff    	mov    -0x25ec(%rbp),%eax
   1758f:	48 98                	cltq   
   17591:	48 8d 95 10 dd ff ff 	lea    -0x22f0(%rbp),%rdx
   17598:	48 83 c2 04          	add    $0x4,%rdx
   1759c:	48 89 94 c5 b0 ec ff 	mov    %rdx,-0x1350(%rbp,%rax,8)
   175a3:	ff 
   175a4:	83 85 14 da ff ff 01 	addl   $0x1,-0x25ec(%rbp)
   175ab:	83 bd 14 da ff ff 04 	cmpl   $0x4,-0x25ec(%rbp)
   175b2:	7e d5                	jle    17589 <func_64+0x3d4d>
   175b4:	0f b7 85 c4 d9 ff ff 	movzwl -0x263c(%rbp),%eax
   175bb:	0f b6 d0             	movzbl %al,%edx
   175be:	8b 05 74 7c 00 00    	mov    0x7c74(%rip),%eax        # 1f238 <g_46+0x1f8>
   175c4:	0f b6 c0             	movzbl %al,%eax
   175c7:	89 d6                	mov    %edx,%esi
   175c9:	89 c7                	mov    %eax,%edi
   175cb:	e8 c3 25 ff ff       	callq  9b93 <safe_mul_func_uint8_t_u_u>
   175d0:	0f b6 d0             	movzbl %al,%edx
   175d3:	8b 85 d0 d9 ff ff    	mov    -0x2630(%rbp),%eax
   175d9:	21 d0                	and    %edx,%eax
   175db:	89 85 d0 d9 ff ff    	mov    %eax,-0x2630(%rbp)
   175e1:	8b 85 d4 d9 ff ff    	mov    -0x262c(%rbp),%eax
   175e7:	83 e8 01             	sub    $0x1,%eax
   175ea:	89 85 d4 d9 ff ff    	mov    %eax,-0x262c(%rbp)
   175f0:	8b 85 d4 d9 ff ff    	mov    -0x262c(%rbp),%eax
   175f6:	85 c0                	test   %eax,%eax
   175f8:	79 83                	jns    1757d <func_64+0x3d41>
   175fa:	8b 85 58 da ff ff    	mov    -0x25a8(%rbp),%eax
   17600:	41 89 c6             	mov    %eax,%r14d
   17603:	8b 85 ac d9 ff ff    	mov    -0x2654(%rbp),%eax
   17609:	0f b7 d8             	movzwl %ax,%ebx
   1760c:	8b 85 ac d9 ff ff    	mov    -0x2654(%rbp),%eax
   17612:	44 0f b6 e0          	movzbl %al,%r12d
   17616:	8b 85 ac d9 ff ff    	mov    -0x2654(%rbp),%eax
   1761c:	0f be c0             	movsbl %al,%eax
   1761f:	48 8d 95 70 da ff ff 	lea    -0x2590(%rbp),%rdx
   17626:	48 89 95 e0 e0 ff ff 	mov    %rdx,-0x1f20(%rbp)
   1762d:	89 c6                	mov    %eax,%esi
   1762f:	bf 00 00 00 00       	mov    $0x0,%edi
   17634:	e8 d9 1b ff ff       	callq  9212 <safe_mul_func_int8_t_s_s>
   17639:	0f b6 15 f4 7d 00 00 	movzbl 0x7df4(%rip),%edx        # 1f434 <g_275+0x4>
   17640:	38 d0                	cmp    %dl,%al
   17642:	0f 9e c0             	setle  %al
   17645:	0f b6 c0             	movzbl %al,%eax
   17648:	89 c7                	mov    %eax,%edi
   1764a:	e8 47 1f ff ff       	callq  9596 <safe_unary_minus_func_int32_t_s>
   1764f:	89 85 d0 d9 ff ff    	mov    %eax,-0x2630(%rbp)
   17655:	8b 85 d0 d9 ff ff    	mov    -0x2630(%rbp),%eax
   1765b:	98                   	cwtl   
   1765c:	89 c7                	mov    %eax,%edi
   1765e:	e8 3a 1d ff ff       	callq  939d <safe_unary_minus_func_int16_t_s>
   17663:	44 0f be e8          	movsbl %al,%r13d
   17667:	0f b6 05 ce 79 00 00 	movzbl 0x79ce(%rip),%eax        # 1f03c <g_41>
   1766e:	8d 50 01             	lea    0x1(%rax),%edx
   17671:	88 15 c5 79 00 00    	mov    %dl,0x79c5(%rip)        # 1f03c <g_41>
   17677:	0f b6 c0             	movzbl %al,%eax
   1767a:	be 66 00 00 00       	mov    $0x66,%esi
   1767f:	89 c7                	mov    %eax,%edi
   17681:	e8 d4 24 ff ff       	callq  9b5a <safe_add_func_uint8_t_u_u>
   17686:	0f be c0             	movsbl %al,%eax
   17689:	44 89 ee             	mov    %r13d,%esi
   1768c:	89 c7                	mov    %eax,%edi
   1768e:	e8 7f 1b ff ff       	callq  9212 <safe_mul_func_int8_t_s_s>
   17693:	48 8b 05 be a6 00 00 	mov    0xa6be(%rip),%rax        # 21d58 <g_322>
   1769a:	0f b7 00             	movzwl (%rax),%eax
   1769d:	66 85 c0             	test   %ax,%ax
   176a0:	74 07                	je     176a9 <func_64+0x3e6d>
   176a2:	b8 01 00 00 00       	mov    $0x1,%eax
   176a7:	eb 05                	jmp    176ae <func_64+0x3e72>
   176a9:	b8 00 00 00 00       	mov    $0x0,%eax
   176ae:	48 98                	cltq   
   176b0:	48 ba 54 6c 2f d6 78 	movabs $0x88d00478d62f6c54,%rdx
   176b7:	04 d0 88 
   176ba:	48 21 d0             	and    %rdx,%rax
   176bd:	48 85 c0             	test   %rax,%rax
   176c0:	75 09                	jne    176cb <func_64+0x3e8f>
   176c2:	83 bd 38 da ff ff 00 	cmpl   $0x0,-0x25c8(%rbp)
   176c9:	74 07                	je     176d2 <func_64+0x3e96>
   176cb:	b8 01 00 00 00       	mov    $0x1,%eax
   176d0:	eb 05                	jmp    176d7 <func_64+0x3e9b>
   176d2:	b8 00 00 00 00       	mov    $0x0,%eax
   176d7:	0f b6 c0             	movzbl %al,%eax
   176da:	44 89 e6             	mov    %r12d,%esi
   176dd:	89 c7                	mov    %eax,%edi
   176df:	e8 af 24 ff ff       	callq  9b93 <safe_mul_func_uint8_t_u_u>
   176e4:	44 0f b6 e0          	movzbl %al,%r12d
   176e8:	8b 85 ac d9 ff ff    	mov    -0x2654(%rbp),%eax
   176ee:	0f b7 d0             	movzwl %ax,%edx
   176f1:	48 8b 05 40 a6 00 00 	mov    0xa640(%rip),%rax        # 21d38 <g_199>
   176f8:	48 8b 00             	mov    (%rax),%rax
   176fb:	0f b7 00             	movzwl (%rax),%eax
   176fe:	0f b7 c0             	movzwl %ax,%eax
   17701:	89 d6                	mov    %edx,%esi
   17703:	89 c7                	mov    %eax,%edi
   17705:	e8 f5 25 ff ff       	callq  9cff <safe_add_func_uint16_t_u_u>
   1770a:	0f b7 c0             	movzwl %ax,%eax
   1770d:	89 c6                	mov    %eax,%esi
   1770f:	bf b9 d8 ff ff       	mov    $0xffffd8b9,%edi
   17714:	e8 79 1d ff ff       	callq  9492 <safe_lshift_func_int16_t_s_s>
   17719:	0f b6 c0             	movzbl %al,%eax
   1771c:	44 89 e6             	mov    %r12d,%esi
   1771f:	89 c7                	mov    %eax,%edi
   17721:	e8 34 24 ff ff       	callq  9b5a <safe_add_func_uint8_t_u_u>
   17726:	0f b6 d0             	movzbl %al,%edx
   17729:	8b 85 7c ec ff ff    	mov    -0x1384(%rbp),%eax
   1772f:	39 c2                	cmp    %eax,%edx
   17731:	0f 95 c0             	setne  %al
   17734:	0f b6 c0             	movzbl %al,%eax
   17737:	89 de                	mov    %ebx,%esi
   17739:	89 c7                	mov    %eax,%edi
   1773b:	e8 df 25 ff ff       	callq  9d1f <safe_sub_func_uint16_t_u_u>
   17740:	98                   	cwtl   
   17741:	44 89 f6             	mov    %r14d,%esi
   17744:	89 c7                	mov    %eax,%edi
   17746:	e8 96 1d ff ff       	callq  94e1 <safe_lshift_func_int16_t_s_u>
   1774b:	0f bf d0             	movswl %ax,%edx
   1774e:	8b 85 d4 d9 ff ff    	mov    -0x262c(%rbp),%eax
   17754:	09 d0                	or     %edx,%eax
   17756:	89 85 d4 d9 ff ff    	mov    %eax,-0x262c(%rbp)
   1775c:	8b 95 d4 d9 ff ff    	mov    -0x262c(%rbp),%edx
   17762:	48 8b 05 ef a5 00 00 	mov    0xa5ef(%rip),%rax        # 21d58 <g_322>
   17769:	66 89 10             	mov    %dx,(%rax)
   1776c:	0f b7 00             	movzwl (%rax),%eax
   1776f:	0f bf d0             	movswl %ax,%edx
   17772:	8b 85 ac d9 ff ff    	mov    -0x2654(%rbp),%eax
   17778:	39 c2                	cmp    %eax,%edx
   1777a:	0f 94 c0             	sete   %al
   1777d:	0f b6 d0             	movzbl %al,%edx
   17780:	8b 85 ac d9 ff ff    	mov    -0x2654(%rbp),%eax
   17786:	39 c2                	cmp    %eax,%edx
   17788:	0f 92 c0             	setb   %al
   1778b:	0f b6 c0             	movzbl %al,%eax
   1778e:	be 07 00 00 00       	mov    $0x7,%esi
   17793:	89 c7                	mov    %eax,%edi
   17795:	e8 24 25 ff ff       	callq  9cbe <safe_rshift_func_uint8_t_u_u>
   1779a:	48 8b 95 b8 db ff ff 	mov    -0x2448(%rbp),%rdx
   177a1:	8b 12                	mov    (%rdx),%edx
   177a3:	0f b6 c0             	movzbl %al,%eax
   177a6:	09 c2                	or     %eax,%edx
   177a8:	48 8b 85 b8 db ff ff 	mov    -0x2448(%rbp),%rax
   177af:	89 10                	mov    %edx,(%rax)
   177b1:	e9 23 0a 00 00       	jmpq   181d9 <func_64+0x499d>
   177b6:	48 8d 85 e0 e0 ff ff 	lea    -0x1f20(%rbp),%rax
   177bd:	48 8d 15 3c a4 00 00 	lea    0xa43c(%rip),%rdx        # 21c00 <g_1964+0x2360>
   177c4:	b9 23 00 00 00       	mov    $0x23,%ecx
   177c9:	48 89 c7             	mov    %rax,%rdi
   177cc:	48 89 d6             	mov    %rdx,%rsi
   177cf:	f3 48 a5             	rep movsq %ds:(%rsi),%es:(%rdi)
   177d2:	c7 85 60 da ff ff 3c 	movl   $0xfb9e73c,-0x25a0(%rbp)
   177d9:	e7 b9 0f 
   177dc:	48 c7 85 a0 da ff ff 	movq   $0x0,-0x2560(%rbp)
   177e3:	00 00 00 00 
   177e7:	48 c7 85 38 db ff ff 	movq   $0x0,-0x24c8(%rbp)
   177ee:	00 00 00 00 
   177f2:	48 c7 85 40 db ff ff 	movq   $0x0,-0x24c0(%rbp)
   177f9:	00 00 00 00 
   177fd:	48 8d 05 20 7c 00 00 	lea    0x7c20(%rip),%rax        # 1f424 <g_246>
   17804:	48 89 85 48 db ff ff 	mov    %rax,-0x24b8(%rbp)
   1780b:	c6 85 bb d9 ff ff f7 	movb   $0xf7,-0x2645(%rbp)
   17812:	c7 85 28 da ff ff 03 	movl   $0x39169e03,-0x25d8(%rbp)
   17819:	9e 16 39 
   1781c:	c7 85 2c da ff ff 06 	movl   $0x6,-0x25d4(%rbp)
   17823:	00 00 00 
   17826:	48 c7 85 50 db ff ff 	movq   $0x0,-0x24b0(%rbp)
   1782d:	00 00 00 00 
   17831:	c7 85 18 da ff ff 00 	movl   $0x0,-0x25e8(%rbp)
   17838:	00 00 00 
   1783b:	eb 1b                	jmp    17858 <func_64+0x401c>
   1783d:	8b 85 18 da ff ff    	mov    -0x25e8(%rbp),%eax
   17843:	48 98                	cltq   
   17845:	48 c7 84 c5 30 e0 ff 	movq   $0x0,-0x1fd0(%rbp,%rax,8)
   1784c:	ff 00 00 00 00 
   17851:	83 85 18 da ff ff 01 	addl   $0x1,-0x25e8(%rbp)
   17858:	83 bd 18 da ff ff 08 	cmpl   $0x8,-0x25e8(%rbp)
   1785f:	7e dc                	jle    1783d <func_64+0x4001>
   17861:	0f b7 05 9e 7b 00 00 	movzwl 0x7b9e(%rip),%eax        # 1f406 <g_125>
   17868:	0f b6 d8             	movzbl %al,%ebx
   1786b:	8b 85 d0 d9 ff ff    	mov    -0x2630(%rbp),%eax
   17871:	41 89 c4             	mov    %eax,%r12d
   17874:	8b 85 1c dd ff ff    	mov    -0x22e4(%rbp),%eax
   1787a:	0f bf d0             	movswl %ax,%edx
   1787d:	48 8b 85 98 e1 ff ff 	mov    -0x1e68(%rbp),%rax
   17884:	48 85 c0             	test   %rax,%rax
   17887:	0f 95 c0             	setne  %al
   1788a:	0f b6 c0             	movzbl %al,%eax
   1788d:	89 d6                	mov    %edx,%esi
   1788f:	89 c7                	mov    %eax,%edi
   17891:	e8 1d 1b ff ff       	callq  93b3 <safe_add_func_int16_t_s_s>
   17896:	98                   	cwtl   
   17897:	48 8b 15 f2 7b 00 00 	mov    0x7bf2(%rip),%rdx        # 1f490 <g_347>
   1789e:	21 d0                	and    %edx,%eax
   178a0:	44 89 e6             	mov    %r12d,%esi
   178a3:	89 c7                	mov    %eax,%edi
   178a5:	e8 26 26 ff ff       	callq  9ed0 <safe_sub_func_uint32_t_u_u>
   178aa:	8b 85 ac d9 ff ff    	mov    -0x2654(%rbp),%eax
   178b0:	98                   	cwtl   
   178b1:	be 67 df ff ff       	mov    $0xffffdf67,%esi
   178b6:	89 c7                	mov    %eax,%edi
   178b8:	e8 38 1b ff ff       	callq  93f5 <safe_mul_func_int16_t_s_s>
   178bd:	98                   	cwtl   
   178be:	f7 d0                	not    %eax
   178c0:	89 c1                	mov    %eax,%ecx
   178c2:	8b 85 d4 dd ff ff    	mov    -0x222c(%rbp),%eax
   178c8:	89 85 d4 d9 ff ff    	mov    %eax,-0x262c(%rbp)
   178ce:	8b 95 d4 d9 ff ff    	mov    -0x262c(%rbp),%edx
   178d4:	8b 85 7c ec ff ff    	mov    -0x1384(%rbp),%eax
   178da:	09 c8                	or     %ecx,%eax
   178dc:	89 85 7c ec ff ff    	mov    %eax,-0x1384(%rbp)
   178e2:	8b 85 7c ec ff ff    	mov    -0x1384(%rbp),%eax
   178e8:	39 c2                	cmp    %eax,%edx
   178ea:	0f 9f c0             	setg   %al
   178ed:	0f b6 c0             	movzbl %al,%eax
   178f0:	48 be 8e f3 aa e0 50 	movabs $0x5f9e5850e0aaf38e,%rsi
   178f7:	58 9e 5f 
   178fa:	48 89 c7             	mov    %rax,%rdi
   178fd:	e8 b2 20 ff ff       	callq  99b4 <safe_mod_func_int64_t_s_s>
   17902:	0f b6 c0             	movzbl %al,%eax
   17905:	be 00 00 00 00       	mov    $0x0,%esi
   1790a:	89 c7                	mov    %eax,%edi
   1790c:	e8 82 22 ff ff       	callq  9b93 <safe_mul_func_uint8_t_u_u>
   17911:	0f b6 c0             	movzbl %al,%eax
   17914:	89 85 60 da ff ff    	mov    %eax,-0x25a0(%rbp)
   1791a:	8b 85 ec e9 ff ff    	mov    -0x1614(%rbp),%eax
   17920:	85 c0                	test   %eax,%eax
   17922:	75 12                	jne    17936 <func_64+0x40fa>
   17924:	48 8b 05 0d a4 00 00 	mov    0xa40d(%rip),%rax        # 21d38 <g_199>
   1792b:	48 8b 00             	mov    (%rax),%rax
   1792e:	0f b7 00             	movzwl (%rax),%eax
   17931:	66 85 c0             	test   %ax,%ax
   17934:	74 07                	je     1793d <func_64+0x4101>
   17936:	b8 01 00 00 00       	mov    $0x1,%eax
   1793b:	eb 05                	jmp    17942 <func_64+0x4106>
   1793d:	b8 00 00 00 00       	mov    $0x0,%eax
   17942:	48 98                	cltq   
   17944:	48 be b7 c3 73 37 a4 	movabs $0x6aa22ba43773c3b7,%rsi
   1794b:	2b a2 6a 
   1794e:	48 89 c7             	mov    %rax,%rdi
   17951:	e8 2a 27 ff ff       	callq  a080 <safe_mod_func_uint64_t_u_u>
   17956:	48 89 c1             	mov    %rax,%rcx
   17959:	8b 85 ac d9 ff ff    	mov    -0x2654(%rbp),%eax
   1795f:	89 c2                	mov    %eax,%edx
   17961:	48 8b 05 48 47 00 00 	mov    0x4748(%rip),%rax        # 1c0b0 <l_173.5060+0x50>
   17968:	48 39 c2             	cmp    %rax,%rdx
   1796b:	0f 9c c0             	setl   %al
   1796e:	0f b6 d0             	movzbl %al,%edx
   17971:	48 8b 85 b0 da ff ff 	mov    -0x2550(%rbp),%rax
   17978:	48 89 10             	mov    %rdx,(%rax)
   1797b:	48 8b 85 b0 da ff ff 	mov    -0x2550(%rbp),%rax
   17982:	48 8b 00             	mov    (%rax),%rax
   17985:	48 89 ce             	mov    %rcx,%rsi
   17988:	48 89 c7             	mov    %rax,%rdi
   1798b:	e8 9e 26 ff ff       	callq  a02e <safe_add_func_uint64_t_u_u>
   17990:	48 85 c0             	test   %rax,%rax
   17993:	74 11                	je     179a6 <func_64+0x416a>
   17995:	8b 85 ac d9 ff ff    	mov    -0x2654(%rbp),%eax
   1799b:	85 c0                	test   %eax,%eax
   1799d:	74 07                	je     179a6 <func_64+0x416a>
   1799f:	b8 01 00 00 00       	mov    $0x1,%eax
   179a4:	eb 05                	jmp    179ab <func_64+0x416f>
   179a6:	b8 00 00 00 00       	mov    $0x0,%eax
   179ab:	0f b6 c0             	movzbl %al,%eax
   179ae:	89 de                	mov    %ebx,%esi
   179b0:	89 c7                	mov    %eax,%edi
   179b2:	e8 dc 21 ff ff       	callq  9b93 <safe_mul_func_uint8_t_u_u>
   179b7:	0f b6 d0             	movzbl %al,%edx
   179ba:	48 8b 85 48 db ff ff 	mov    -0x24b8(%rbp),%rax
   179c1:	89 10                	mov    %edx,(%rax)
   179c3:	66 c7 05 36 7a 00 00 	movw   $0x0,0x7a36(%rip)        # 1f402 <g_109>
   179ca:	00 00 
   179cc:	e9 73 05 00 00       	jmpq   17f44 <func_64+0x4708>
   179d1:	48 c7 85 68 db ff ff 	movq   $0x0,-0x2498(%rbp)
   179d8:	00 00 00 00 
   179dc:	48 8d 85 d0 d9 ff ff 	lea    -0x2630(%rbp),%rax
   179e3:	48 89 85 70 db ff ff 	mov    %rax,-0x2490(%rbp)
   179ea:	48 c7 85 78 db ff ff 	movq   $0x0,-0x2488(%rbp)
   179f1:	00 00 00 00 
   179f5:	48 c7 85 b0 ec ff ff 	movq   $0x0,-0x1350(%rbp)
   179fc:	00 00 00 00 
   17a00:	48 8d 85 c0 e8 ff ff 	lea    -0x1740(%rbp),%rax
   17a07:	48 05 c8 02 00 00    	add    $0x2c8,%rax
   17a0d:	48 89 85 b8 ec ff ff 	mov    %rax,-0x1348(%rbp)
   17a14:	48 8d 85 d0 d9 ff ff 	lea    -0x2630(%rbp),%rax
   17a1b:	48 89 85 c0 ec ff ff 	mov    %rax,-0x1340(%rbp)
   17a22:	48 8d 85 d0 e4 ff ff 	lea    -0x1b30(%rbp),%rax
   17a29:	48 05 0c 02 00 00    	add    $0x20c,%rax
   17a2f:	48 89 85 c8 ec ff ff 	mov    %rax,-0x1338(%rbp)
   17a36:	48 c7 85 d0 ec ff ff 	movq   $0x0,-0x1330(%rbp)
   17a3d:	00 00 00 00 
   17a41:	48 c7 85 d8 ec ff ff 	movq   $0x0,-0x1328(%rbp)
   17a48:	00 00 00 00 
   17a4c:	48 c7 85 e0 ec ff ff 	movq   $0x0,-0x1320(%rbp)
   17a53:	00 00 00 00 
   17a57:	48 c7 85 e8 ec ff ff 	movq   $0x0,-0x1318(%rbp)
   17a5e:	00 00 00 00 
   17a62:	48 8d 85 c0 e8 ff ff 	lea    -0x1740(%rbp),%rax
   17a69:	48 05 c8 02 00 00    	add    $0x2c8,%rax
   17a6f:	48 89 85 f0 ec ff ff 	mov    %rax,-0x1310(%rbp)
   17a76:	48 8d 05 b7 75 00 00 	lea    0x75b7(%rip),%rax        # 1f034 <g_4+0x4>
   17a7d:	48 89 85 f8 ec ff ff 	mov    %rax,-0x1308(%rbp)
   17a84:	48 8d 05 a9 75 00 00 	lea    0x75a9(%rip),%rax        # 1f034 <g_4+0x4>
   17a8b:	48 89 85 00 ed ff ff 	mov    %rax,-0x1300(%rbp)
   17a92:	48 8d 85 c0 e8 ff ff 	lea    -0x1740(%rbp),%rax
   17a99:	48 05 c8 02 00 00    	add    $0x2c8,%rax
   17a9f:	48 89 85 08 ed ff ff 	mov    %rax,-0x12f8(%rbp)
   17aa6:	48 8d 85 10 dd ff ff 	lea    -0x22f0(%rbp),%rax
   17aad:	48 83 c0 08          	add    $0x8,%rax
   17ab1:	48 89 85 10 ed ff ff 	mov    %rax,-0x12f0(%rbp)
   17ab8:	48 c7 85 18 ed ff ff 	movq   $0x0,-0x12e8(%rbp)
   17abf:	00 00 00 00 
   17ac3:	48 8d 85 10 dd ff ff 	lea    -0x22f0(%rbp),%rax
   17aca:	48 83 c0 04          	add    $0x4,%rax
   17ace:	48 89 85 20 ed ff ff 	mov    %rax,-0x12e0(%rbp)
   17ad5:	48 8d 85 d0 e4 ff ff 	lea    -0x1b30(%rbp),%rax
   17adc:	48 05 0c 02 00 00    	add    $0x20c,%rax
   17ae2:	48 89 85 28 ed ff ff 	mov    %rax,-0x12d8(%rbp)
   17ae9:	48 8d 85 60 da ff ff 	lea    -0x25a0(%rbp),%rax
   17af0:	48 89 85 30 ed ff ff 	mov    %rax,-0x12d0(%rbp)
   17af7:	48 8d 85 10 dd ff ff 	lea    -0x22f0(%rbp),%rax
   17afe:	48 83 c0 04          	add    $0x4,%rax
   17b02:	48 89 85 38 ed ff ff 	mov    %rax,-0x12c8(%rbp)
   17b09:	48 8d 85 60 da ff ff 	lea    -0x25a0(%rbp),%rax
   17b10:	48 89 85 40 ed ff ff 	mov    %rax,-0x12c0(%rbp)
   17b17:	48 8d 85 d0 dd ff ff 	lea    -0x2230(%rbp),%rax
   17b1e:	48 83 c0 04          	add    $0x4,%rax
   17b22:	48 89 85 48 ed ff ff 	mov    %rax,-0x12b8(%rbp)
   17b29:	48 c7 85 50 ed ff ff 	movq   $0x0,-0x12b0(%rbp)
   17b30:	00 00 00 00 
   17b34:	48 8d 85 d0 dd ff ff 	lea    -0x2230(%rbp),%rax
   17b3b:	48 83 c0 04          	add    $0x4,%rax
   17b3f:	48 89 85 58 ed ff ff 	mov    %rax,-0x12a8(%rbp)
   17b46:	48 8d 85 d0 dd ff ff 	lea    -0x2230(%rbp),%rax
   17b4d:	48 83 c0 04          	add    $0x4,%rax
   17b51:	48 89 85 60 ed ff ff 	mov    %rax,-0x12a0(%rbp)
   17b58:	48 8d 85 60 da ff ff 	lea    -0x25a0(%rbp),%rax
   17b5f:	48 89 85 68 ed ff ff 	mov    %rax,-0x1298(%rbp)
   17b66:	48 8d 85 10 dd ff ff 	lea    -0x22f0(%rbp),%rax
   17b6d:	48 83 c0 08          	add    $0x8,%rax
   17b71:	48 89 85 70 ed ff ff 	mov    %rax,-0x1290(%rbp)
   17b78:	48 8d 85 10 dd ff ff 	lea    -0x22f0(%rbp),%rax
   17b7f:	48 83 c0 04          	add    $0x4,%rax
   17b83:	48 89 85 78 ed ff ff 	mov    %rax,-0x1288(%rbp)
   17b8a:	48 8d 85 d0 d9 ff ff 	lea    -0x2630(%rbp),%rax
   17b91:	48 89 85 80 ed ff ff 	mov    %rax,-0x1280(%rbp)
   17b98:	48 c7 85 88 ed ff ff 	movq   $0x0,-0x1278(%rbp)
   17b9f:	00 00 00 00 
   17ba3:	48 c7 85 90 ed ff ff 	movq   $0x0,-0x1270(%rbp)
   17baa:	00 00 00 00 
   17bae:	48 c7 85 98 ed ff ff 	movq   $0x0,-0x1268(%rbp)
   17bb5:	00 00 00 00 
   17bb9:	48 8d 85 d0 d9 ff ff 	lea    -0x2630(%rbp),%rax
   17bc0:	48 89 85 a0 ed ff ff 	mov    %rax,-0x1260(%rbp)
   17bc7:	48 8d 85 10 dd ff ff 	lea    -0x22f0(%rbp),%rax
   17bce:	48 83 c0 04          	add    $0x4,%rax
   17bd2:	48 89 85 a8 ed ff ff 	mov    %rax,-0x1258(%rbp)
   17bd9:	48 8d 85 10 dd ff ff 	lea    -0x22f0(%rbp),%rax
   17be0:	48 83 c0 04          	add    $0x4,%rax
   17be4:	48 89 85 b0 ed ff ff 	mov    %rax,-0x1250(%rbp)
   17beb:	48 8d 05 42 74 00 00 	lea    0x7442(%rip),%rax        # 1f034 <g_4+0x4>
   17bf2:	48 89 85 b8 ed ff ff 	mov    %rax,-0x1248(%rbp)
   17bf9:	48 c7 85 c0 ed ff ff 	movq   $0x0,-0x1240(%rbp)
   17c00:	00 00 00 00 
   17c04:	48 c7 85 c8 ed ff ff 	movq   $0x0,-0x1238(%rbp)
   17c0b:	00 00 00 00 
   17c0f:	48 8d 85 d0 d9 ff ff 	lea    -0x2630(%rbp),%rax
   17c16:	48 89 85 d0 ed ff ff 	mov    %rax,-0x1230(%rbp)
   17c1d:	48 c7 85 d8 ed ff ff 	movq   $0x0,-0x1228(%rbp)
   17c24:	00 00 00 00 
   17c28:	48 8d 85 60 da ff ff 	lea    -0x25a0(%rbp),%rax
   17c2f:	48 89 85 e0 ed ff ff 	mov    %rax,-0x1220(%rbp)
   17c36:	48 8d 85 10 dd ff ff 	lea    -0x22f0(%rbp),%rax
   17c3d:	48 83 c0 08          	add    $0x8,%rax
   17c41:	48 89 85 e8 ed ff ff 	mov    %rax,-0x1218(%rbp)
   17c48:	48 8d 85 60 da ff ff 	lea    -0x25a0(%rbp),%rax
   17c4f:	48 89 85 f0 ed ff ff 	mov    %rax,-0x1210(%rbp)
   17c56:	48 8d 85 c0 e8 ff ff 	lea    -0x1740(%rbp),%rax
   17c5d:	48 05 c8 02 00 00    	add    $0x2c8,%rax
   17c63:	48 89 85 f8 ed ff ff 	mov    %rax,-0x1208(%rbp)
   17c6a:	48 8d 85 d0 e4 ff ff 	lea    -0x1b30(%rbp),%rax
   17c71:	48 05 d8 01 00 00    	add    $0x1d8,%rax
   17c77:	48 89 85 00 ee ff ff 	mov    %rax,-0x1200(%rbp)
   17c7e:	48 c7 85 08 ee ff ff 	movq   $0x0,-0x11f8(%rbp)
   17c85:	00 00 00 00 
   17c89:	48 8d 85 10 dd ff ff 	lea    -0x22f0(%rbp),%rax
   17c90:	48 83 c0 04          	add    $0x4,%rax
   17c94:	48 89 85 10 ee ff ff 	mov    %rax,-0x11f0(%rbp)
   17c9b:	48 8d 85 c0 e8 ff ff 	lea    -0x1740(%rbp),%rax
   17ca2:	48 05 bc 03 00 00    	add    $0x3bc,%rax
   17ca8:	48 89 85 18 ee ff ff 	mov    %rax,-0x11e8(%rbp)
   17caf:	48 8d 85 60 da ff ff 	lea    -0x25a0(%rbp),%rax
   17cb6:	48 89 85 20 ee ff ff 	mov    %rax,-0x11e0(%rbp)
   17cbd:	48 8d 85 60 da ff ff 	lea    -0x25a0(%rbp),%rax
   17cc4:	48 89 85 28 ee ff ff 	mov    %rax,-0x11d8(%rbp)
   17ccb:	48 8d 85 d0 e4 ff ff 	lea    -0x1b30(%rbp),%rax
   17cd2:	48 05 0c 02 00 00    	add    $0x20c,%rax
   17cd8:	48 89 85 30 ee ff ff 	mov    %rax,-0x11d0(%rbp)
   17cdf:	48 c7 85 38 ee ff ff 	movq   $0x0,-0x11c8(%rbp)
   17ce6:	00 00 00 00 
   17cea:	48 8d 85 d0 dd ff ff 	lea    -0x2230(%rbp),%rax
   17cf1:	48 83 c0 04          	add    $0x4,%rax
   17cf5:	48 89 85 40 ee ff ff 	mov    %rax,-0x11c0(%rbp)
   17cfc:	48 8d 85 d0 dd ff ff 	lea    -0x2230(%rbp),%rax
   17d03:	48 83 c0 04          	add    $0x4,%rax
   17d07:	48 89 85 48 ee ff ff 	mov    %rax,-0x11b8(%rbp)
   17d0e:	48 c7 85 50 ee ff ff 	movq   $0x0,-0x11b0(%rbp)
   17d15:	00 00 00 00 
   17d19:	48 8d 85 60 da ff ff 	lea    -0x25a0(%rbp),%rax
   17d20:	48 89 85 58 ee ff ff 	mov    %rax,-0x11a8(%rbp)
   17d27:	48 8d 85 d0 e4 ff ff 	lea    -0x1b30(%rbp),%rax
   17d2e:	48 05 d8 01 00 00    	add    $0x1d8,%rax
   17d34:	48 89 85 60 ee ff ff 	mov    %rax,-0x11a0(%rbp)
   17d3b:	48 8d 05 f2 72 00 00 	lea    0x72f2(%rip),%rax        # 1f034 <g_4+0x4>
   17d42:	48 89 85 68 ee ff ff 	mov    %rax,-0x1198(%rbp)
   17d49:	48 c7 85 70 ee ff ff 	movq   $0x0,-0x1190(%rbp)
   17d50:	00 00 00 00 
   17d54:	48 8d 85 60 da ff ff 	lea    -0x25a0(%rbp),%rax
   17d5b:	48 89 85 78 ee ff ff 	mov    %rax,-0x1188(%rbp)
   17d62:	48 8d 85 d0 e4 ff ff 	lea    -0x1b30(%rbp),%rax
   17d69:	48 05 d8 01 00 00    	add    $0x1d8,%rax
   17d6f:	48 89 85 80 ee ff ff 	mov    %rax,-0x1180(%rbp)
   17d76:	48 8d 05 b7 72 00 00 	lea    0x72b7(%rip),%rax        # 1f034 <g_4+0x4>
   17d7d:	48 89 85 88 ee ff ff 	mov    %rax,-0x1178(%rbp)
   17d84:	48 8d 85 d0 e4 ff ff 	lea    -0x1b30(%rbp),%rax
   17d8b:	48 05 24 02 00 00    	add    $0x224,%rax
   17d91:	48 89 85 90 ee ff ff 	mov    %rax,-0x1170(%rbp)
   17d98:	48 8d 85 d0 dd ff ff 	lea    -0x2230(%rbp),%rax
   17d9f:	48 83 c0 04          	add    $0x4,%rax
   17da3:	48 89 85 98 ee ff ff 	mov    %rax,-0x1168(%rbp)
   17daa:	48 8d 85 d0 d9 ff ff 	lea    -0x2630(%rbp),%rax
   17db1:	48 89 85 a0 ee ff ff 	mov    %rax,-0x1160(%rbp)
   17db8:	48 8d 85 d0 e4 ff ff 	lea    -0x1b30(%rbp),%rax
   17dbf:	48 05 24 02 00 00    	add    $0x224,%rax
   17dc5:	48 89 85 a8 ee ff ff 	mov    %rax,-0x1158(%rbp)
   17dcc:	48 8d 05 85 9f 00 00 	lea    0x9f85(%rip),%rax        # 21d58 <g_322>
   17dd3:	48 89 85 80 db ff ff 	mov    %rax,-0x2480(%rbp)
   17dda:	48 8b 85 c0 f7 ff ff 	mov    -0x840(%rbp),%rax
   17de1:	48 83 e8 01          	sub    $0x1,%rax
   17de5:	48 89 85 c0 f7 ff ff 	mov    %rax,-0x840(%rbp)
   17dec:	48 83 bd b0 da ff ff 	cmpq   $0x0,-0x2550(%rbp)
   17df3:	00 
   17df4:	0f 84 1a 01 00 00    	je     17f14 <func_64+0x46d8>
   17dfa:	48 8b 85 80 db ff ff 	mov    -0x2480(%rbp),%rax
   17e01:	48 3b 85 50 db ff ff 	cmp    -0x24b0(%rbp),%rax
   17e08:	0f 94 c0             	sete   %al
   17e0b:	0f b6 d0             	movzbl %al,%edx
   17e0e:	8b 85 ac d9 ff ff    	mov    -0x2654(%rbp),%eax
   17e14:	09 d0                	or     %edx,%eax
   17e16:	89 85 d4 dd ff ff    	mov    %eax,-0x222c(%rbp)
   17e1c:	8b 9d d4 dd ff ff    	mov    -0x222c(%rbp),%ebx
   17e22:	8b 85 ac d9 ff ff    	mov    -0x2654(%rbp),%eax
   17e28:	0f b6 c0             	movzbl %al,%eax
   17e2b:	be 03 00 00 00       	mov    $0x3,%esi
   17e30:	89 c7                	mov    %eax,%edi
   17e32:	e8 56 1e ff ff       	callq  9c8d <safe_rshift_func_uint8_t_u_s>
   17e37:	0f b6 05 5e 76 00 00 	movzbl 0x765e(%rip),%eax        # 1f49c <g_373>
   17e3e:	84 c0                	test   %al,%al
   17e40:	0f 9e c0             	setle  %al
   17e43:	0f b6 c0             	movzbl %al,%eax
   17e46:	89 c6                	mov    %eax,%esi
   17e48:	bf ff 00 00 00       	mov    $0xff,%edi
   17e4d:	e8 41 1d ff ff       	callq  9b93 <safe_mul_func_uint8_t_u_u>
   17e52:	0f b6 c0             	movzbl %al,%eax
   17e55:	66 89 85 c0 d9 ff ff 	mov    %ax,-0x2640(%rbp)
   17e5c:	0f bf 85 c0 d9 ff ff 	movswl -0x2640(%rbp),%eax
   17e63:	89 c7                	mov    %eax,%edi
   17e65:	e8 2c 17 ff ff       	callq  9596 <safe_unary_minus_func_int32_t_s>
   17e6a:	39 c3                	cmp    %eax,%ebx
   17e6c:	0f 9d c0             	setge  %al
   17e6f:	0f b6 c0             	movzbl %al,%eax
   17e72:	be 00 00 00 00       	mov    $0x0,%esi
   17e77:	89 c7                	mov    %eax,%edi
   17e79:	e8 81 1e ff ff       	callq  9cff <safe_add_func_uint16_t_u_u>
   17e7e:	0f b7 c0             	movzwl %ax,%eax
   17e81:	25 22 20 8e 69       	and    $0x698e2022,%eax
   17e86:	48 89 c2             	mov    %rax,%rdx
   17e89:	48 0f bf 85 c4 d9 ff 	movswq -0x263c(%rbp),%rax
   17e90:	ff 
   17e91:	48 39 c2             	cmp    %rax,%rdx
   17e94:	0f 9d c0             	setge  %al
   17e97:	0f b6 d0             	movzbl %al,%edx
   17e9a:	8b 85 ac d9 ff ff    	mov    -0x2654(%rbp),%eax
   17ea0:	09 d0                	or     %edx,%eax
   17ea2:	83 c8 01             	or     $0x1,%eax
   17ea5:	89 c2                	mov    %eax,%edx
   17ea7:	8b 85 ac d9 ff ff    	mov    -0x2654(%rbp),%eax
   17ead:	39 c2                	cmp    %eax,%edx
   17eaf:	77 0a                	ja     17ebb <func_64+0x467f>
   17eb1:	8b 05 e9 75 00 00    	mov    0x75e9(%rip),%eax        # 1f4a0 <g_509>
   17eb7:	85 c0                	test   %eax,%eax
   17eb9:	74 59                	je     17f14 <func_64+0x46d8>
   17ebb:	c7 85 1c da ff ff 00 	movl   $0x0,-0x25e4(%rbp)
   17ec2:	00 00 00 
   17ec5:	eb 1e                	jmp    17ee5 <func_64+0x46a9>
   17ec7:	8b 85 1c da ff ff    	mov    -0x25e4(%rbp),%eax
   17ecd:	48 98                	cltq   
   17ecf:	48 8d 15 5a 9e 00 00 	lea    0x9e5a(%rip),%rdx        # 21d30 <g_200>
   17ed6:	48 89 94 c5 60 de ff 	mov    %rdx,-0x21a0(%rbp,%rax,8)
   17edd:	ff 
   17ede:	83 85 1c da ff ff 01 	addl   $0x1,-0x25e4(%rbp)
   17ee5:	83 bd 1c da ff ff 01 	cmpl   $0x1,-0x25e4(%rbp)
   17eec:	7e d9                	jle    17ec7 <func_64+0x468b>
   17eee:	48 8b 85 60 de ff ff 	mov    -0x21a0(%rbp),%rax
   17ef5:	48 8d 95 00 df ff ff 	lea    -0x2100(%rbp),%rdx
   17efc:	48 83 c2 48          	add    $0x48,%rdx
   17f00:	48 39 d0             	cmp    %rdx,%rax
   17f03:	0f 95 c0             	setne  %al
   17f06:	0f b6 d0             	movzbl %al,%edx
   17f09:	48 8b 85 48 db ff ff 	mov    -0x24b8(%rbp),%rax
   17f10:	89 10                	mov    %edx,(%rax)
   17f12:	eb 1f                	jmp    17f33 <func_64+0x46f7>
   17f14:	48 8d 85 a0 da ff ff 	lea    -0x2560(%rbp),%rax
   17f1b:	48 89 85 88 db ff ff 	mov    %rax,-0x2478(%rbp)
   17f22:	48 8b 85 88 db ff ff 	mov    -0x2478(%rbp),%rax
   17f29:	48 8d 15 f4 74 00 00 	lea    0x74f4(%rip),%rdx        # 1f424 <g_246>
   17f30:	48 89 10             	mov    %rdx,(%rax)
   17f33:	0f b7 05 c8 74 00 00 	movzwl 0x74c8(%rip),%eax        # 1f402 <g_109>
   17f3a:	83 c0 01             	add    $0x1,%eax
   17f3d:	66 89 05 be 74 00 00 	mov    %ax,0x74be(%rip)        # 1f402 <g_109>
   17f44:	0f b7 05 b7 74 00 00 	movzwl 0x74b7(%rip),%eax        # 1f402 <g_109>
   17f4b:	66 83 f8 08          	cmp    $0x8,%ax
   17f4f:	0f 86 7c fa ff ff    	jbe    179d1 <func_64+0x4195>
   17f55:	66 c7 05 a8 74 00 00 	movw   $0x0,0x74a8(%rip)        # 1f406 <g_125>
   17f5c:	00 00 
   17f5e:	e9 58 02 00 00       	jmpq   181bb <func_64+0x497f>
   17f63:	48 c7 85 58 db ff ff 	movq   $0x0,-0x24a8(%rbp)
   17f6a:	00 00 00 00 
   17f6e:	48 8d 85 d8 d9 ff ff 	lea    -0x2628(%rbp),%rax
   17f75:	48 89 85 60 db ff ff 	mov    %rax,-0x24a0(%rbp)
   17f7c:	c7 85 20 da ff ff 00 	movl   $0x0,-0x25e0(%rbp)
   17f83:	00 00 00 
   17f86:	eb 1e                	jmp    17fa6 <func_64+0x476a>
   17f88:	8b 85 20 da ff ff    	mov    -0x25e0(%rbp),%eax
   17f8e:	48 98                	cltq   
   17f90:	48 8d 15 a5 70 00 00 	lea    0x70a5(%rip),%rdx        # 1f03c <g_41>
   17f97:	48 89 94 c5 b0 ec ff 	mov    %rdx,-0x1350(%rbp,%rax,8)
   17f9e:	ff 
   17f9f:	83 85 20 da ff ff 01 	addl   $0x1,-0x25e0(%rbp)
   17fa6:	83 bd 20 da ff ff 01 	cmpl   $0x1,-0x25e0(%rbp)
   17fad:	7e d9                	jle    17f88 <func_64+0x474c>
   17faf:	48 8b 05 7a 9d 00 00 	mov    0x9d7a(%rip),%rax        # 21d30 <g_200>
   17fb6:	0f b7 00             	movzwl (%rax),%eax
   17fb9:	0f bf d8             	movswl %ax,%ebx
   17fbc:	44 8b a5 ac d9 ff ff 	mov    -0x2654(%rbp),%r12d
   17fc3:	48 8b 85 80 da ff ff 	mov    -0x2580(%rbp),%rax
   17fca:	48 8b 00             	mov    (%rax),%rax
   17fcd:	66 c7 00 fd ff       	movw   $0xfffd,(%rax)
   17fd2:	be eb ff ff ff       	mov    $0xffffffeb,%esi
   17fd7:	bf 01 00 00 00       	mov    $0x1,%edi
   17fdc:	e8 31 12 ff ff       	callq  9212 <safe_mul_func_int8_t_s_s>
   17fe1:	48 8b 05 b0 9d 00 00 	mov    0x9db0(%rip),%rax        # 21d98 <g_332>
   17fe8:	48 8b 00             	mov    (%rax),%rax
   17feb:	48 8b 00             	mov    (%rax),%rax
   17fee:	0f b7 00             	movzwl (%rax),%eax
   17ff1:	66 83 f8 fc          	cmp    $0xfffc,%ax
   17ff5:	0f 97 c0             	seta   %al
   17ff8:	0f b6 d0             	movzbl %al,%edx
   17ffb:	8b 05 27 74 00 00    	mov    0x7427(%rip),%eax        # 1f428 <g_267>
   18001:	39 c2                	cmp    %eax,%edx
   18003:	0f 95 c0             	setne  %al
   18006:	0f b6 c0             	movzbl %al,%eax
   18009:	be ec b1 8c 0e       	mov    $0xe8cb1ec,%esi
   1800e:	89 c7                	mov    %eax,%edi
   18010:	e8 a3 1e ff ff       	callq  9eb8 <safe_add_func_uint32_t_u_u>
   18015:	0f b6 c0             	movzbl %al,%eax
   18018:	89 c6                	mov    %eax,%esi
   1801a:	bf 00 00 00 00       	mov    $0x0,%edi
   1801f:	e8 b7 1b ff ff       	callq  9bdb <safe_div_func_uint8_t_u_u>
   18024:	0f be c0             	movsbl %al,%eax
   18027:	89 c6                	mov    %eax,%esi
   18029:	bf 16 00 00 00       	mov    $0x16,%edi
   1802e:	e8 df 11 ff ff       	callq  9212 <safe_mul_func_int8_t_s_s>
   18033:	8b 85 ac d9 ff ff    	mov    -0x2654(%rbp),%eax
   18039:	98                   	cwtl   
   1803a:	44 89 e6             	mov    %r12d,%esi
   1803d:	89 c7                	mov    %eax,%edi
   1803f:	e8 9d 14 ff ff       	callq  94e1 <safe_lshift_func_int16_t_s_u>
   18044:	98                   	cwtl   
   18045:	89 de                	mov    %ebx,%esi
   18047:	89 c7                	mov    %eax,%edi
   18049:	e8 85 13 ff ff       	callq  93d3 <safe_sub_func_int16_t_s_s>
   1804e:	98                   	cwtl   
   1804f:	25 e6 62 29 d5       	and    $0xd52962e6,%eax
   18054:	89 c2                	mov    %eax,%edx
   18056:	48 8b 85 60 db ff ff 	mov    -0x24a0(%rbp),%rax
   1805d:	89 10                	mov    %edx,(%rax)
   1805f:	48 c7 85 b0 dd ff ff 	movq   $0x0,-0x2250(%rbp)
   18066:	00 00 00 00 
   1806a:	8b 9d ac d9 ff ff    	mov    -0x2654(%rbp),%ebx
   18070:	8b 05 be 6f 00 00    	mov    0x6fbe(%rip),%eax        # 1f034 <g_4+0x4>
   18076:	44 0f b6 e0          	movzbl %al,%r12d
   1807a:	8b 95 24 da ff ff    	mov    -0x25dc(%rbp),%edx
   18080:	0f b6 05 17 74 00 00 	movzbl 0x7417(%rip),%eax        # 1f49e <g_375+0x1>
   18087:	83 e8 01             	sub    $0x1,%eax
   1808a:	88 05 0e 74 00 00    	mov    %al,0x740e(%rip)        # 1f49e <g_375+0x1>
   18090:	0f b6 05 07 74 00 00 	movzbl 0x7407(%rip),%eax        # 1f49e <g_375+0x1>
   18097:	0f b6 c0             	movzbl %al,%eax
   1809a:	89 85 d4 d9 ff ff    	mov    %eax,-0x262c(%rbp)
   180a0:	8b 85 d4 d9 ff ff    	mov    -0x262c(%rbp),%eax
   180a6:	0f b6 c0             	movzbl %al,%eax
   180a9:	89 d6                	mov    %edx,%esi
   180ab:	89 c7                	mov    %eax,%edi
   180ad:	e8 db 1b ff ff       	callq  9c8d <safe_rshift_func_uint8_t_u_s>
   180b2:	0f b6 c0             	movzbl %al,%eax
   180b5:	89 c6                	mov    %eax,%esi
   180b7:	bf 93 00 00 00       	mov    $0x93,%edi
   180bc:	e8 d2 1a ff ff       	callq  9b93 <safe_mul_func_uint8_t_u_u>
   180c1:	0f b6 d0             	movzbl %al,%edx
   180c4:	48 8b 85 b0 da ff ff 	mov    -0x2550(%rbp),%rax
   180cb:	48 89 10             	mov    %rdx,(%rax)
   180ce:	48 8b 85 b0 da ff ff 	mov    -0x2550(%rbp),%rax
   180d5:	48 8b 00             	mov    (%rax),%rax
   180d8:	48 85 c0             	test   %rax,%rax
   180db:	75 0b                	jne    180e8 <func_64+0x48ac>
   180dd:	66 81 bd c4 d9 ff ff 	cmpw   $0x707d,-0x263c(%rbp)
   180e4:	7d 70 
   180e6:	7e 07                	jle    180ef <func_64+0x48b3>
   180e8:	b8 01 00 00 00       	mov    $0x1,%eax
   180ed:	eb 05                	jmp    180f4 <func_64+0x48b8>
   180ef:	b8 00 00 00 00       	mov    $0x0,%eax
   180f4:	89 c2                	mov    %eax,%edx
   180f6:	8b 85 ac d9 ff ff    	mov    -0x2654(%rbp),%eax
   180fc:	39 c2                	cmp    %eax,%edx
   180fe:	0f b7 85 c2 d9 ff ff 	movzwl -0x263e(%rbp),%eax
   18105:	98                   	cwtl   
   18106:	be 07 00 00 00       	mov    $0x7,%esi
   1810b:	89 c7                	mov    %eax,%edi
   1810d:	e8 80 13 ff ff       	callq  9492 <safe_lshift_func_int16_t_s_s>
   18112:	89 c2                	mov    %eax,%edx
   18114:	0f b6 05 21 6f 00 00 	movzbl 0x6f21(%rip),%eax        # 1f03c <g_41>
   1811b:	09 d0                	or     %edx,%eax
   1811d:	88 05 19 6f 00 00    	mov    %al,0x6f19(%rip)        # 1f03c <g_41>
   18123:	0f b6 05 12 6f 00 00 	movzbl 0x6f12(%rip),%eax        # 1f03c <g_41>
   1812a:	0f b6 c0             	movzbl %al,%eax
   1812d:	44 89 e6             	mov    %r12d,%esi
   18130:	89 c7                	mov    %eax,%edi
   18132:	e8 23 1a ff ff       	callq  9b5a <safe_add_func_uint8_t_u_u>
   18137:	89 c2                	mov    %eax,%edx
   18139:	48 8b 85 78 da ff ff 	mov    -0x2588(%rbp),%rax
   18140:	48 8b 00             	mov    (%rax),%rax
   18143:	0f b6 d2             	movzbl %dl,%edx
   18146:	66 89 10             	mov    %dx,(%rax)
   18149:	89 de                	mov    %ebx,%esi
   1814b:	bf 00 00 00 00       	mov    $0x0,%edi
   18150:	e8 99 11 ff ff       	callq  92ee <safe_lshift_func_int8_t_s_u>
   18155:	8b 95 d4 dd ff ff    	mov    -0x222c(%rbp),%edx
   1815b:	0f be c0             	movsbl %al,%eax
   1815e:	09 d0                	or     %edx,%eax
   18160:	89 85 d4 dd ff ff    	mov    %eax,-0x222c(%rbp)
   18166:	c7 05 b4 72 00 00 00 	movl   $0x0,0x72b4(%rip)        # 1f424 <g_246>
   1816d:	00 00 00 
   18170:	eb 26                	jmp    18198 <func_64+0x495c>
   18172:	8b 05 ac 72 00 00    	mov    0x72ac(%rip),%eax        # 1f424 <g_246>
   18178:	48 98                	cltq   
   1817a:	48 8d 95 68 da ff ff 	lea    -0x2598(%rbp),%rdx
   18181:	48 89 94 c5 70 dd ff 	mov    %rdx,-0x2290(%rbp,%rax,8)
   18188:	ff 
   18189:	8b 05 95 72 00 00    	mov    0x7295(%rip),%eax        # 1f424 <g_246>
   1818f:	83 c0 01             	add    $0x1,%eax
   18192:	89 05 8c 72 00 00    	mov    %eax,0x728c(%rip)        # 1f424 <g_246>
   18198:	8b 05 86 72 00 00    	mov    0x7286(%rip),%eax        # 1f424 <g_246>
   1819e:	85 c0                	test   %eax,%eax
   181a0:	7e d0                	jle    18172 <func_64+0x4936>
   181a2:	8b 85 ac d9 ff ff    	mov    -0x2654(%rbp),%eax
   181a8:	85 c0                	test   %eax,%eax
   181aa:	0f b7 05 55 72 00 00 	movzwl 0x7255(%rip),%eax        # 1f406 <g_125>
   181b1:	83 c0 01             	add    $0x1,%eax
   181b4:	66 89 05 4b 72 00 00 	mov    %ax,0x724b(%rip)        # 1f406 <g_125>
   181bb:	0f b7 05 44 72 00 00 	movzwl 0x7244(%rip),%eax        # 1f406 <g_125>
   181c2:	66 85 c0             	test   %ax,%ax
   181c5:	0f 84 98 fd ff ff    	je     17f63 <func_64+0x4727>
   181cb:	48 83 bd b8 da ff ff 	cmpq   $0x0,-0x2548(%rbp)
   181d2:	00 
   181d3:	0f 85 ac 0e 00 00    	jne    19085 <func_64+0x5849>
   181d9:	48 c7 85 b8 da ff ff 	movq   $0x5,-0x2548(%rbp)
   181e0:	05 00 00 00 
   181e4:	e9 6a 0e 00 00       	jmpq   19053 <func_64+0x5817>
   181e9:	48 c7 85 f0 db ff ff 	movq   $0x0,-0x2410(%rbp)
   181f0:	00 00 00 00 
   181f4:	48 8d 85 d0 dd ff ff 	lea    -0x2230(%rbp),%rax
   181fb:	48 83 c0 04          	add    $0x4,%rax
   181ff:	48 89 85 60 de ff ff 	mov    %rax,-0x21a0(%rbp)
   18206:	48 8d 85 d0 dd ff ff 	lea    -0x2230(%rbp),%rax
   1820d:	48 83 c0 04          	add    $0x4,%rax
   18211:	48 89 85 68 de ff ff 	mov    %rax,-0x2198(%rbp)
   18218:	48 c7 85 70 de ff ff 	movq   $0x0,-0x2190(%rbp)
   1821f:	00 00 00 00 
   18223:	48 8d 85 d0 dd ff ff 	lea    -0x2230(%rbp),%rax
   1822a:	48 83 c0 04          	add    $0x4,%rax
   1822e:	48 89 85 78 de ff ff 	mov    %rax,-0x2188(%rbp)
   18235:	48 8d 85 d0 dd ff ff 	lea    -0x2230(%rbp),%rax
   1823c:	48 83 c0 04          	add    $0x4,%rax
   18240:	48 89 85 80 de ff ff 	mov    %rax,-0x2180(%rbp)
   18247:	48 c7 85 88 de ff ff 	movq   $0x0,-0x2178(%rbp)
   1824e:	00 00 00 00 
   18252:	48 8d 85 70 da ff ff 	lea    -0x2590(%rbp),%rax
   18259:	48 89 85 b0 ec ff ff 	mov    %rax,-0x1350(%rbp)
   18260:	48 8d 05 11 9b 00 00 	lea    0x9b11(%rip),%rax        # 21d78 <g_321+0x18>
   18267:	48 89 85 b8 ec ff ff 	mov    %rax,-0x1348(%rbp)
   1826e:	48 c7 85 c0 ec ff ff 	movq   $0x0,-0x1340(%rbp)
   18275:	00 00 00 00 
   18279:	48 8d 05 f8 9a 00 00 	lea    0x9af8(%rip),%rax        # 21d78 <g_321+0x18>
   18280:	48 89 85 c8 ec ff ff 	mov    %rax,-0x1338(%rbp)
   18287:	48 8d 85 70 da ff ff 	lea    -0x2590(%rbp),%rax
   1828e:	48 89 85 d0 ec ff ff 	mov    %rax,-0x1330(%rbp)
   18295:	48 8d 85 78 da ff ff 	lea    -0x2588(%rbp),%rax
   1829c:	48 89 85 d8 ec ff ff 	mov    %rax,-0x1328(%rbp)
   182a3:	48 8d 85 78 da ff ff 	lea    -0x2588(%rbp),%rax
   182aa:	48 89 85 e0 ec ff ff 	mov    %rax,-0x1320(%rbp)
   182b1:	48 8d 85 70 da ff ff 	lea    -0x2590(%rbp),%rax
   182b8:	48 89 85 e8 ec ff ff 	mov    %rax,-0x1318(%rbp)
   182bf:	48 8d 05 b2 9a 00 00 	lea    0x9ab2(%rip),%rax        # 21d78 <g_321+0x18>
   182c6:	48 89 85 f0 ec ff ff 	mov    %rax,-0x1310(%rbp)
   182cd:	48 c7 85 f8 ec ff ff 	movq   $0x0,-0x1308(%rbp)
   182d4:	00 00 00 00 
   182d8:	48 8d 05 99 9a 00 00 	lea    0x9a99(%rip),%rax        # 21d78 <g_321+0x18>
   182df:	48 89 85 00 ed ff ff 	mov    %rax,-0x1300(%rbp)
   182e6:	48 8d 85 70 da ff ff 	lea    -0x2590(%rbp),%rax
   182ed:	48 89 85 08 ed ff ff 	mov    %rax,-0x12f8(%rbp)
   182f4:	48 8d 85 78 da ff ff 	lea    -0x2588(%rbp),%rax
   182fb:	48 89 85 10 ed ff ff 	mov    %rax,-0x12f0(%rbp)
   18302:	48 8d 85 78 da ff ff 	lea    -0x2588(%rbp),%rax
   18309:	48 89 85 18 ed ff ff 	mov    %rax,-0x12e8(%rbp)
   18310:	48 8d 85 70 da ff ff 	lea    -0x2590(%rbp),%rax
   18317:	48 89 85 20 ed ff ff 	mov    %rax,-0x12e0(%rbp)
   1831e:	48 8d 05 53 9a 00 00 	lea    0x9a53(%rip),%rax        # 21d78 <g_321+0x18>
   18325:	48 89 85 28 ed ff ff 	mov    %rax,-0x12d8(%rbp)
   1832c:	48 c7 85 30 ed ff ff 	movq   $0x0,-0x12d0(%rbp)
   18333:	00 00 00 00 
   18337:	48 8d 05 3a 9a 00 00 	lea    0x9a3a(%rip),%rax        # 21d78 <g_321+0x18>
   1833e:	48 89 85 38 ed ff ff 	mov    %rax,-0x12c8(%rbp)
   18345:	48 8d 85 70 da ff ff 	lea    -0x2590(%rbp),%rax
   1834c:	48 89 85 40 ed ff ff 	mov    %rax,-0x12c0(%rbp)
   18353:	48 8d 85 78 da ff ff 	lea    -0x2588(%rbp),%rax
   1835a:	48 89 85 48 ed ff ff 	mov    %rax,-0x12b8(%rbp)
   18361:	48 8d 85 78 da ff ff 	lea    -0x2588(%rbp),%rax
   18368:	48 89 85 50 ed ff ff 	mov    %rax,-0x12b0(%rbp)
   1836f:	48 8d 85 70 da ff ff 	lea    -0x2590(%rbp),%rax
   18376:	48 89 85 58 ed ff ff 	mov    %rax,-0x12a8(%rbp)
   1837d:	48 8d 05 f4 99 00 00 	lea    0x99f4(%rip),%rax        # 21d78 <g_321+0x18>
   18384:	48 89 85 60 ed ff ff 	mov    %rax,-0x12a0(%rbp)
   1838b:	48 c7 85 68 ed ff ff 	movq   $0x0,-0x1298(%rbp)
   18392:	00 00 00 00 
   18396:	48 8d 05 db 99 00 00 	lea    0x99db(%rip),%rax        # 21d78 <g_321+0x18>
   1839d:	48 89 85 70 ed ff ff 	mov    %rax,-0x1290(%rbp)
   183a4:	48 8d 85 70 da ff ff 	lea    -0x2590(%rbp),%rax
   183ab:	48 89 85 78 ed ff ff 	mov    %rax,-0x1288(%rbp)
   183b2:	48 8d 85 78 da ff ff 	lea    -0x2588(%rbp),%rax
   183b9:	48 89 85 80 ed ff ff 	mov    %rax,-0x1280(%rbp)
   183c0:	48 8d 85 78 da ff ff 	lea    -0x2588(%rbp),%rax
   183c7:	48 89 85 88 ed ff ff 	mov    %rax,-0x1278(%rbp)
   183ce:	48 8d 85 70 da ff ff 	lea    -0x2590(%rbp),%rax
   183d5:	48 89 85 90 ed ff ff 	mov    %rax,-0x1270(%rbp)
   183dc:	48 8d 05 95 99 00 00 	lea    0x9995(%rip),%rax        # 21d78 <g_321+0x18>
   183e3:	48 89 85 98 ed ff ff 	mov    %rax,-0x1268(%rbp)
   183ea:	48 c7 85 a0 ed ff ff 	movq   $0x0,-0x1260(%rbp)
   183f1:	00 00 00 00 
   183f5:	48 8d 05 7c 99 00 00 	lea    0x997c(%rip),%rax        # 21d78 <g_321+0x18>
   183fc:	48 89 85 a8 ed ff ff 	mov    %rax,-0x1258(%rbp)
   18403:	48 8d 85 70 da ff ff 	lea    -0x2590(%rbp),%rax
   1840a:	48 89 85 b0 ed ff ff 	mov    %rax,-0x1250(%rbp)
   18411:	48 8d 85 78 da ff ff 	lea    -0x2588(%rbp),%rax
   18418:	48 89 85 b8 ed ff ff 	mov    %rax,-0x1248(%rbp)
   1841f:	48 8d 85 78 da ff ff 	lea    -0x2588(%rbp),%rax
   18426:	48 89 85 c0 ed ff ff 	mov    %rax,-0x1240(%rbp)
   1842d:	48 8d 85 70 da ff ff 	lea    -0x2590(%rbp),%rax
   18434:	48 89 85 c8 ed ff ff 	mov    %rax,-0x1238(%rbp)
   1843b:	48 8d 05 36 99 00 00 	lea    0x9936(%rip),%rax        # 21d78 <g_321+0x18>
   18442:	48 89 85 d0 ed ff ff 	mov    %rax,-0x1230(%rbp)
   18449:	48 c7 85 d8 ed ff ff 	movq   $0x0,-0x1228(%rbp)
   18450:	00 00 00 00 
   18454:	48 8d 05 1d 99 00 00 	lea    0x991d(%rip),%rax        # 21d78 <g_321+0x18>
   1845b:	48 89 85 e0 ed ff ff 	mov    %rax,-0x1220(%rbp)
   18462:	48 8d 85 70 da ff ff 	lea    -0x2590(%rbp),%rax
   18469:	48 89 85 e8 ed ff ff 	mov    %rax,-0x1218(%rbp)
   18470:	48 8d 85 78 da ff ff 	lea    -0x2588(%rbp),%rax
   18477:	48 89 85 f0 ed ff ff 	mov    %rax,-0x1210(%rbp)
   1847e:	48 8d 85 78 da ff ff 	lea    -0x2588(%rbp),%rax
   18485:	48 89 85 f8 ed ff ff 	mov    %rax,-0x1208(%rbp)
   1848c:	48 8d 05 95 6f 00 00 	lea    0x6f95(%rip),%rax        # 1f428 <g_267>
   18493:	48 89 85 f8 db ff ff 	mov    %rax,-0x2408(%rbp)
   1849a:	8b 85 d4 d9 ff ff    	mov    -0x262c(%rbp),%eax
   184a0:	85 c0                	test   %eax,%eax
   184a2:	74 4c                	je     184f0 <func_64+0x4cb4>
   184a4:	8b 05 7a 6f 00 00    	mov    0x6f7a(%rip),%eax        # 1f424 <g_246>
   184aa:	85 c0                	test   %eax,%eax
   184ac:	74 42                	je     184f0 <func_64+0x4cb4>
   184ae:	0f b6 05 e8 6f 00 00 	movzbl 0x6fe8(%rip),%eax        # 1f49d <g_375>
   184b5:	0f be d0             	movsbl %al,%edx
   184b8:	8b 85 ac d9 ff ff    	mov    -0x2654(%rbp),%eax
   184be:	89 c1                	mov    %eax,%ecx
   184c0:	48 8b 05 c9 6f 00 00 	mov    0x6fc9(%rip),%rax        # 1f490 <g_347>
   184c7:	48 39 c1             	cmp    %rax,%rcx
   184ca:	0f 9e c0             	setle  %al
   184cd:	89 c1                	mov    %eax,%ecx
   184cf:	8b 85 24 da ff ff    	mov    -0x25dc(%rbp),%eax
   184d5:	31 c8                	xor    %ecx,%eax
   184d7:	0f be c0             	movsbl %al,%eax
   184da:	89 d6                	mov    %edx,%esi
   184dc:	89 c7                	mov    %eax,%edi
   184de:	e8 0f 0d ff ff       	callq  91f2 <safe_sub_func_int8_t_s_s>
   184e3:	bf 7e 00 00 00       	mov    $0x7e,%edi
   184e8:	e8 58 16 ff ff       	callq  9b45 <safe_unary_minus_func_uint8_t_u>
   184ed:	84 c0                	test   %al,%al
   184ef:	90                   	nop
   184f0:	48 8b 85 b8 da ff ff 	mov    -0x2548(%rbp),%rax
   184f7:	0f be c0             	movsbl %al,%eax
   184fa:	be 06 00 00 00       	mov    $0x6,%esi
   184ff:	89 c7                	mov    %eax,%edi
   18501:	e8 9b 0d ff ff       	callq  92a1 <safe_lshift_func_int8_t_s_s>
   18506:	0f b6 d0             	movzbl %al,%edx
   18509:	48 8b 05 a0 3b 00 00 	mov    0x3ba0(%rip),%rax        # 1c0b0 <l_173.5060+0x50>
   18510:	0f b6 c0             	movzbl %al,%eax
   18513:	89 d6                	mov    %edx,%esi
   18515:	89 c7                	mov    %eax,%edi
   18517:	e8 92 16 ff ff       	callq  9bae <safe_mod_func_uint8_t_u_u>
   1851c:	be 03 00 00 00       	mov    $0x3,%esi
   18521:	bf 01 00 00 00       	mov    $0x1,%edi
   18526:	e8 03 1b ff ff       	callq  a02e <safe_add_func_uint64_t_u_u>
   1852b:	0f bf d0             	movswl %ax,%edx
   1852e:	48 8b 05 23 98 00 00 	mov    0x9823(%rip),%rax        # 21d58 <g_322>
   18535:	0f b7 00             	movzwl (%rax),%eax
   18538:	98                   	cwtl   
   18539:	89 d6                	mov    %edx,%esi
   1853b:	89 c7                	mov    %eax,%edi
   1853d:	e8 71 0e ff ff       	callq  93b3 <safe_add_func_int16_t_s_s>
   18542:	66 89 85 2c de ff ff 	mov    %ax,-0x21d4(%rbp)
   18549:	66 c7 85 c0 d9 ff ff 	movw   $0x0,-0x2640(%rbp)
   18550:	00 00 
   18552:	e9 f0 08 00 00       	jmpq   18e47 <func_64+0x560b>
   18557:	c6 85 bc d9 ff ff fe 	movb   $0xfe,-0x2644(%rbp)
   1855e:	48 c7 85 00 dc ff ff 	movq   $0x0,-0x2400(%rbp)
   18565:	00 00 00 00 
   18569:	48 8d 05 b0 98 00 00 	lea    0x98b0(%rip),%rax        # 21e20 <g_578>
   18570:	48 89 85 e0 e0 ff ff 	mov    %rax,-0x1f20(%rbp)
   18577:	48 8d 85 98 da ff ff 	lea    -0x2568(%rbp),%rax
   1857e:	48 89 85 e8 e0 ff ff 	mov    %rax,-0x1f18(%rbp)
   18585:	48 8d 05 94 98 00 00 	lea    0x9894(%rip),%rax        # 21e20 <g_578>
   1858c:	48 89 85 f0 e0 ff ff 	mov    %rax,-0x1f10(%rbp)
   18593:	48 8d 85 98 da ff ff 	lea    -0x2568(%rbp),%rax
   1859a:	48 89 85 f8 e0 ff ff 	mov    %rax,-0x1f08(%rbp)
   185a1:	48 8d 05 78 98 00 00 	lea    0x9878(%rip),%rax        # 21e20 <g_578>
   185a8:	48 89 85 00 e1 ff ff 	mov    %rax,-0x1f00(%rbp)
   185af:	48 8d 05 6a 98 00 00 	lea    0x986a(%rip),%rax        # 21e20 <g_578>
   185b6:	48 89 85 08 e1 ff ff 	mov    %rax,-0x1ef8(%rbp)
   185bd:	48 8d 85 98 da ff ff 	lea    -0x2568(%rbp),%rax
   185c4:	48 89 85 10 e1 ff ff 	mov    %rax,-0x1ef0(%rbp)
   185cb:	48 8d 05 4e 98 00 00 	lea    0x984e(%rip),%rax        # 21e20 <g_578>
   185d2:	48 89 85 18 e1 ff ff 	mov    %rax,-0x1ee8(%rbp)
   185d9:	48 8d 05 40 98 00 00 	lea    0x9840(%rip),%rax        # 21e20 <g_578>
   185e0:	48 89 85 20 e1 ff ff 	mov    %rax,-0x1ee0(%rbp)
   185e7:	48 8d 85 98 da ff ff 	lea    -0x2568(%rbp),%rax
   185ee:	48 89 85 28 e1 ff ff 	mov    %rax,-0x1ed8(%rbp)
   185f5:	48 8d 05 24 98 00 00 	lea    0x9824(%rip),%rax        # 21e20 <g_578>
   185fc:	48 89 85 30 e1 ff ff 	mov    %rax,-0x1ed0(%rbp)
   18603:	48 8d 85 98 da ff ff 	lea    -0x2568(%rbp),%rax
   1860a:	48 89 85 38 e1 ff ff 	mov    %rax,-0x1ec8(%rbp)
   18611:	48 8d 05 08 98 00 00 	lea    0x9808(%rip),%rax        # 21e20 <g_578>
   18618:	48 89 85 40 e1 ff ff 	mov    %rax,-0x1ec0(%rbp)
   1861f:	48 8d 85 98 da ff ff 	lea    -0x2568(%rbp),%rax
   18626:	48 89 85 48 e1 ff ff 	mov    %rax,-0x1eb8(%rbp)
   1862d:	48 8d 85 98 da ff ff 	lea    -0x2568(%rbp),%rax
   18634:	48 89 85 50 e1 ff ff 	mov    %rax,-0x1eb0(%rbp)
   1863b:	48 8d 85 98 da ff ff 	lea    -0x2568(%rbp),%rax
   18642:	48 89 85 58 e1 ff ff 	mov    %rax,-0x1ea8(%rbp)
   18649:	48 8d 05 d0 97 00 00 	lea    0x97d0(%rip),%rax        # 21e20 <g_578>
   18650:	48 89 85 60 e1 ff ff 	mov    %rax,-0x1ea0(%rbp)
   18657:	48 8d 05 c2 97 00 00 	lea    0x97c2(%rip),%rax        # 21e20 <g_578>
   1865e:	48 89 85 68 e1 ff ff 	mov    %rax,-0x1e98(%rbp)
   18665:	48 8d 05 b4 97 00 00 	lea    0x97b4(%rip),%rax        # 21e20 <g_578>
   1866c:	48 89 85 70 e1 ff ff 	mov    %rax,-0x1e90(%rbp)
   18673:	48 c7 85 78 e1 ff ff 	movq   $0x0,-0x1e88(%rbp)
   1867a:	00 00 00 00 
   1867e:	48 8d 05 9b 97 00 00 	lea    0x979b(%rip),%rax        # 21e20 <g_578>
   18685:	48 89 85 80 e1 ff ff 	mov    %rax,-0x1e80(%rbp)
   1868c:	48 8d 05 8d 97 00 00 	lea    0x978d(%rip),%rax        # 21e20 <g_578>
   18693:	48 89 85 88 e1 ff ff 	mov    %rax,-0x1e78(%rbp)
   1869a:	48 8d 05 7f 97 00 00 	lea    0x977f(%rip),%rax        # 21e20 <g_578>
   186a1:	48 89 85 90 e1 ff ff 	mov    %rax,-0x1e70(%rbp)
   186a8:	48 8d 05 71 97 00 00 	lea    0x9771(%rip),%rax        # 21e20 <g_578>
   186af:	48 89 85 98 e1 ff ff 	mov    %rax,-0x1e68(%rbp)
   186b6:	48 8d 05 63 97 00 00 	lea    0x9763(%rip),%rax        # 21e20 <g_578>
   186bd:	48 89 85 a0 e1 ff ff 	mov    %rax,-0x1e60(%rbp)
   186c4:	48 8d 05 55 97 00 00 	lea    0x9755(%rip),%rax        # 21e20 <g_578>
   186cb:	48 89 85 a8 e1 ff ff 	mov    %rax,-0x1e58(%rbp)
   186d2:	48 8d 05 47 97 00 00 	lea    0x9747(%rip),%rax        # 21e20 <g_578>
   186d9:	48 89 85 b0 e1 ff ff 	mov    %rax,-0x1e50(%rbp)
   186e0:	48 8d 85 98 da ff ff 	lea    -0x2568(%rbp),%rax
   186e7:	48 89 85 b8 e1 ff ff 	mov    %rax,-0x1e48(%rbp)
   186ee:	48 8d 05 4b ab 00 00 	lea    0xab4b(%rip),%rax        # 23240 <g_645+0xa0>
   186f5:	48 89 85 08 dc ff ff 	mov    %rax,-0x23f8(%rbp)
   186fc:	48 c7 05 79 6d 00 00 	movq   $0x1,0x6d79(%rip)        # 1f480 <g_293>
   18703:	01 00 00 00 
   18707:	90                   	nop
   18708:	48 8b 05 71 6d 00 00 	mov    0x6d71(%rip),%rax        # 1f480 <g_293>
   1870f:	48 83 f8 08          	cmp    $0x8,%rax
   18713:	77 20                	ja     18735 <func_64+0x4ef9>
   18715:	0f b7 85 08 dd ff ff 	movzwl -0x22f8(%rbp),%eax
   1871c:	83 c0 01             	add    $0x1,%eax
   1871f:	66 89 85 08 dd ff ff 	mov    %ax,-0x22f8(%rbp)
   18726:	48 8b 05 2b 96 00 00 	mov    0x962b(%rip),%rax        # 21d58 <g_322>
   1872d:	0f b7 00             	movzwl (%rax),%eax
   18730:	e9 93 09 00 00       	jmpq   190c8 <func_64+0x588c>
   18735:	0f b6 05 62 6d 00 00 	movzbl 0x6d62(%rip),%eax        # 1f49e <g_375+0x1>
   1873c:	84 c0                	test   %al,%al
   1873e:	75 42                	jne    18782 <func_64+0x4f46>
   18740:	48 8b 05 f1 95 00 00 	mov    0x95f1(%rip),%rax        # 21d38 <g_199>
   18747:	48 8b 00             	mov    (%rax),%rax
   1874a:	0f b7 00             	movzwl (%rax),%eax
   1874d:	0f b7 d0             	movzwl %ax,%edx
   18750:	8b 85 d4 d9 ff ff    	mov    -0x262c(%rbp),%eax
   18756:	0f b7 c0             	movzwl %ax,%eax
   18759:	89 d6                	mov    %edx,%esi
   1875b:	89 c7                	mov    %eax,%edi
   1875d:	e8 a4 16 ff ff       	callq  9e06 <safe_lshift_func_uint16_t_u_u>
   18762:	0f be 9d bc d9 ff ff 	movsbl -0x2644(%rbp),%ebx
   18769:	be 02 00 00 00       	mov    $0x2,%esi
   1876e:	bf 01 00 00 00       	mov    $0x1,%edi
   18773:	e8 eb 0d ff ff       	callq  9563 <safe_rshift_func_int16_t_s_u>
   18778:	98                   	cwtl   
   18779:	89 de                	mov    %ebx,%esi
   1877b:	89 c7                	mov    %eax,%edi
   1877d:	e8 94 0c ff ff       	callq  9416 <safe_mod_func_int16_t_s_s>
   18782:	b8 01 00 00 00       	mov    $0x1,%eax
   18787:	83 e0 01             	and    $0x1,%eax
   1878a:	3d 60 02 f0 5e       	cmp    $0x5ef00260,%eax
   1878f:	0f 8e 34 03 00 00    	jle    18ac9 <func_64+0x528d>
   18795:	48 8d 85 80 da ff ff 	lea    -0x2580(%rbp),%rax
   1879c:	48 89 85 10 dc ff ff 	mov    %rax,-0x23f0(%rbp)
   187a3:	48 8d 05 7e 6c 00 00 	lea    0x6c7e(%rip),%rax        # 1f428 <g_267>
   187aa:	48 89 85 18 dc ff ff 	mov    %rax,-0x23e8(%rbp)
   187b1:	48 8d 05 38 96 00 00 	lea    0x9638(%rip),%rax        # 21df0 <g_399+0x30>
   187b8:	48 89 85 20 dc ff ff 	mov    %rax,-0x23e0(%rbp)
   187bf:	48 83 bd 10 dc ff ff 	cmpq   $0x0,-0x23f0(%rbp)
   187c6:	00 
   187c7:	0f 95 c0             	setne  %al
   187ca:	0f b6 d0             	movzbl %al,%edx
   187cd:	8b 85 ac d9 ff ff    	mov    -0x2654(%rbp),%eax
   187d3:	39 c2                	cmp    %eax,%edx
   187d5:	0f 97 c0             	seta   %al
   187d8:	0f b6 c0             	movzbl %al,%eax
   187db:	89 85 d0 dd ff ff    	mov    %eax,-0x2230(%rbp)
   187e1:	0f b7 05 1e 6c 00 00 	movzwl 0x6c1e(%rip),%eax        # 1f406 <g_125>
   187e8:	0f b7 d8             	movzwl %ax,%ebx
   187eb:	8b 85 ac d9 ff ff    	mov    -0x2654(%rbp),%eax
   187f1:	41 89 c4             	mov    %eax,%r12d
   187f4:	0f bf 85 c0 d9 ff ff 	movswl -0x2640(%rbp),%eax
   187fb:	83 c0 08             	add    $0x8,%eax
   187fe:	48 63 d0             	movslq %eax,%rdx
   18801:	48 8d 0d 08 6c 00 00 	lea    0x6c08(%rip),%rcx        # 1f410 <g_148>
   18808:	c6 04 0a 06          	movb   $0x6,(%rdx,%rcx,1)
   1880c:	48 98                	cltq   
   1880e:	48 8d 15 fb 6b 00 00 	lea    0x6bfb(%rip),%rdx        # 1f410 <g_148>
   18815:	0f b6 14 10          	movzbl (%rax,%rdx,1),%edx
   18819:	48 8b 85 a8 da ff ff 	mov    -0x2558(%rbp),%rax
   18820:	0f b6 00             	movzbl (%rax),%eax
   18823:	31 c2                	xor    %eax,%edx
   18825:	48 8b 85 a8 da ff ff 	mov    -0x2558(%rbp),%rax
   1882c:	88 10                	mov    %dl,(%rax)
   1882e:	48 8b 05 f3 95 00 00 	mov    0x95f3(%rip),%rax        # 21e28 <g_577>
   18835:	48 89 85 00 dc ff ff 	mov    %rax,-0x2400(%rbp)
   1883c:	48 8b 85 00 dc ff ff 	mov    -0x2400(%rbp),%rax
   18843:	48 89 05 de 95 00 00 	mov    %rax,0x95de(%rip)        # 21e28 <g_577>
   1884a:	8b 85 ac d9 ff ff    	mov    -0x2654(%rbp),%eax
   18850:	89 c0                	mov    %eax,%eax
   18852:	25 8f 0f 00 00       	and    $0xf8f,%eax
   18857:	8b 95 ac d9 ff ff    	mov    -0x2654(%rbp),%edx
   1885d:	89 d2                	mov    %edx,%edx
   1885f:	48 89 c6             	mov    %rax,%rsi
   18862:	48 89 d7             	mov    %rdx,%rdi
   18865:	e8 c4 17 ff ff       	callq  a02e <safe_add_func_uint64_t_u_u>
   1886a:	49 39 c4             	cmp    %rax,%r12
   1886d:	0f 95 c0             	setne  %al
   18870:	0f b6 d0             	movzbl %al,%edx
   18873:	48 8b 85 e8 da ff ff 	mov    -0x2518(%rbp),%rax
   1887a:	8b 00                	mov    (%rax),%eax
   1887c:	31 d0                	xor    %edx,%eax
   1887e:	0f b7 c0             	movzwl %ax,%eax
   18881:	89 c7                	mov    %eax,%edi
   18883:	e8 61 14 ff ff       	callq  9ce9 <safe_unary_minus_func_uint16_t_u>
   18888:	8b 05 7e 6a 00 00    	mov    0x6a7e(%rip),%eax        # 1f30c <g_46+0x2cc>
   1888e:	89 c2                	mov    %eax,%edx
   18890:	48 8b 85 18 dc ff ff 	mov    -0x23e8(%rbp),%rax
   18897:	89 10                	mov    %edx,(%rax)
   18899:	48 8b 85 18 dc ff ff 	mov    -0x23e8(%rbp),%rax
   188a0:	8b 00                	mov    (%rax),%eax
   188a2:	39 c3                	cmp    %eax,%ebx
   188a4:	0f 96 c0             	setbe  %al
   188a7:	0f b6 d0             	movzbl %al,%edx
   188aa:	48 8b 05 a7 94 00 00 	mov    0x94a7(%rip),%rax        # 21d58 <g_322>
   188b1:	0f b7 00             	movzwl (%rax),%eax
   188b4:	98                   	cwtl   
   188b5:	39 c2                	cmp    %eax,%edx
   188b7:	0f 9e c0             	setle  %al
   188ba:	0f b6 c0             	movzbl %al,%eax
   188bd:	89 85 cc d9 ff ff    	mov    %eax,-0x2634(%rbp)
   188c3:	8b 85 cc d9 ff ff    	mov    -0x2634(%rbp),%eax
   188c9:	98                   	cwtl   
   188ca:	be 0b 00 00 00       	mov    $0xb,%esi
   188cf:	89 c7                	mov    %eax,%edi
   188d1:	e8 8d 0c ff ff       	callq  9563 <safe_rshift_func_int16_t_s_u>
   188d6:	98                   	cwtl   
   188d7:	89 85 d0 e6 ff ff    	mov    %eax,-0x1930(%rbp)
   188dd:	8b 85 ac d9 ff ff    	mov    -0x2654(%rbp),%eax
   188e3:	41 89 c5             	mov    %eax,%r13d
   188e6:	8b 85 ac d9 ff ff    	mov    -0x2654(%rbp),%eax
   188ec:	0f b6 d8             	movzbl %al,%ebx
   188ef:	48 8b 05 2a 94 00 00 	mov    0x942a(%rip),%rax        # 21d20 <g_105>
   188f6:	0f b7 00             	movzwl (%rax),%eax
   188f9:	44 0f b7 e0          	movzwl %ax,%r12d
   188fd:	b8 ff ff ff ff       	mov    $0xffffffff,%eax
   18902:	0f b7 d0             	movzwl %ax,%edx
   18905:	0f b6 05 92 6b 00 00 	movzbl 0x6b92(%rip),%eax        # 1f49e <g_375+0x1>
   1890c:	0f b6 c8             	movzbl %al,%ecx
   1890f:	0f b7 85 0c dd ff ff 	movzwl -0x22f4(%rbp),%eax
   18916:	89 c6                	mov    %eax,%esi
   18918:	48 8b 85 a8 da ff ff 	mov    -0x2558(%rbp),%rax
   1891f:	40 88 30             	mov    %sil,(%rax)
   18922:	48 8b 85 a8 da ff ff 	mov    -0x2558(%rbp),%rax
   18929:	0f b6 00             	movzbl (%rax),%eax
   1892c:	0f be c0             	movsbl %al,%eax
   1892f:	09 c8                	or     %ecx,%eax
   18931:	48 98                	cltq   
   18933:	48 89 d6             	mov    %rdx,%rsi
   18936:	48 89 c7             	mov    %rax,%rdi
   18939:	e8 71 17 ff ff       	callq  a0af <safe_div_func_uint64_t_u_u>
   1893e:	0f b7 c0             	movzwl %ax,%eax
   18941:	44 89 e6             	mov    %r12d,%esi
   18944:	89 c7                	mov    %eax,%edi
   18946:	e8 2f 15 ff ff       	callq  9e7a <safe_rshift_func_uint16_t_u_u>
   1894b:	0f b6 c0             	movzbl %al,%eax
   1894e:	89 de                	mov    %ebx,%esi
   18950:	89 c7                	mov    %eax,%edi
   18952:	e8 57 12 ff ff       	callq  9bae <safe_mod_func_uint8_t_u_u>
   18957:	0f b6 c0             	movzbl %al,%eax
   1895a:	44 89 ee             	mov    %r13d,%esi
   1895d:	89 c7                	mov    %eax,%edi
   1895f:	e8 a1 0c ff ff       	callq  9605 <safe_sub_func_int32_t_s_s>
   18964:	0f be d0             	movsbl %al,%edx
   18967:	48 8b 0d 42 37 00 00 	mov    0x3742(%rip),%rcx        # 1c0b0 <l_173.5060+0x50>
   1896e:	0f b6 05 a4 6a 00 00 	movzbl 0x6aa4(%rip),%eax        # 1f419 <g_167>
   18975:	0f b6 c0             	movzbl %al,%eax
   18978:	48 39 c1             	cmp    %rax,%rcx
   1897b:	0f 9c c0             	setl   %al
   1897e:	0f b6 c0             	movzbl %al,%eax
   18981:	89 d6                	mov    %edx,%esi
   18983:	89 c7                	mov    %eax,%edi
   18985:	e8 88 08 ff ff       	callq  9212 <safe_mul_func_int8_t_s_s>
   1898a:	3c fd                	cmp    $0xfd,%al
   1898c:	0f 95 c0             	setne  %al
   1898f:	0f b6 d8             	movzbl %al,%ebx
   18992:	48 8b 85 e8 da ff ff 	mov    -0x2518(%rbp),%rax
   18999:	8b 10                	mov    (%rax),%edx
   1899b:	8b 85 ac d9 ff ff    	mov    -0x2654(%rbp),%eax
   189a1:	0f be c0             	movsbl %al,%eax
   189a4:	89 d6                	mov    %edx,%esi
   189a6:	89 c7                	mov    %eax,%edi
   189a8:	e8 f4 08 ff ff       	callq  92a1 <safe_lshift_func_int8_t_s_s>
   189ad:	66 98                	cbtw   
   189af:	0f b7 c0             	movzwl %ax,%eax
   189b2:	89 de                	mov    %ebx,%esi
   189b4:	89 c7                	mov    %eax,%edi
   189b6:	e8 82 13 ff ff       	callq  9d3d <safe_mul_func_uint16_t_u_u>
   189bb:	66 85 c0             	test   %ax,%ax
   189be:	0f 94 c0             	sete   %al
   189c1:	0f b6 c0             	movzbl %al,%eax
   189c4:	be 03 00 00 00       	mov    $0x3,%esi
   189c9:	89 c7                	mov    %eax,%edi
   189cb:	e8 8a 11 ff ff       	callq  9b5a <safe_add_func_uint8_t_u_u>
   189d0:	48 8b 85 20 dc ff ff 	mov    -0x23e0(%rbp),%rax
   189d7:	48 8b 95 f0 da ff ff 	mov    -0x2510(%rbp),%rdx
   189de:	48 89 10             	mov    %rdx,(%rax)
   189e1:	8b 05 8d 6a 00 00    	mov    0x6a8d(%rip),%eax        # 1f474 <g_278+0x34>
   189e7:	41 89 c6             	mov    %eax,%r14d
   189ea:	8b 85 ac d9 ff ff    	mov    -0x2654(%rbp),%eax
   189f0:	41 89 c7             	mov    %eax,%r15d
   189f3:	48 8b 85 f0 da ff ff 	mov    -0x2510(%rbp),%rax
   189fa:	8b 18                	mov    (%rax),%ebx
   189fc:	8b 85 ac d9 ff ff    	mov    -0x2654(%rbp),%eax
   18a02:	44 0f bf e0          	movswl %ax,%r12d
   18a06:	8b 85 78 e5 ff ff    	mov    -0x1a88(%rbp),%eax
   18a0c:	0f b6 d0             	movzbl %al,%edx
   18a0f:	0f b6 85 bc d9 ff ff 	movzbl -0x2644(%rbp),%eax
   18a16:	0f b6 c0             	movzbl %al,%eax
   18a19:	89 d6                	mov    %edx,%esi
   18a1b:	89 c7                	mov    %eax,%edi
   18a1d:	e8 71 11 ff ff       	callq  9b93 <safe_mul_func_uint8_t_u_u>
   18a22:	0f b6 c0             	movzbl %al,%eax
   18a25:	44 89 e6             	mov    %r12d,%esi
   18a28:	89 c7                	mov    %eax,%edi
   18a2a:	e8 26 0a ff ff       	callq  9455 <safe_div_func_int16_t_s_s>
   18a2f:	8b 95 ac d9 ff ff    	mov    -0x2654(%rbp),%edx
   18a35:	8b 85 ac d9 ff ff    	mov    -0x2654(%rbp),%eax
   18a3b:	98                   	cwtl   
   18a3c:	89 d6                	mov    %edx,%esi
   18a3e:	89 c7                	mov    %eax,%edi
   18a40:	e8 9c 0a ff ff       	callq  94e1 <safe_lshift_func_int16_t_s_u>
   18a45:	44 0f bf e0          	movswl %ax,%r12d
   18a49:	66 0f be 85 bc d9 ff 	movsbw -0x2644(%rbp),%ax
   18a50:	ff 
   18a51:	0f b7 c0             	movzwl %ax,%eax
   18a54:	89 c6                	mov    %eax,%esi
   18a56:	bf cf c7 00 00       	mov    $0xc7cf,%edi
   18a5b:	e8 9f 12 ff ff       	callq  9cff <safe_add_func_uint16_t_u_u>
   18a60:	44 0f b7 e8          	movzwl %ax,%r13d
   18a64:	8b 85 ac d9 ff ff    	mov    -0x2654(%rbp),%eax
   18a6a:	89 c2                	mov    %eax,%edx
   18a6c:	48 8b 85 e8 da ff ff 	mov    -0x2518(%rbp),%rax
   18a73:	89 10                	mov    %edx,(%rax)
   18a75:	48 8b 85 e8 da ff ff 	mov    -0x2518(%rbp),%rax
   18a7c:	8b 00                	mov    (%rax),%eax
   18a7e:	98                   	cwtl   
   18a7f:	be 08 00 00 00       	mov    $0x8,%esi
   18a84:	89 c7                	mov    %eax,%edi
   18a86:	e8 ca 09 ff ff       	callq  9455 <safe_div_func_int16_t_s_s>
   18a8b:	98                   	cwtl   
   18a8c:	41 39 c5             	cmp    %eax,%r13d
   18a8f:	0f 9e c0             	setle  %al
   18a92:	0f b6 d0             	movzbl %al,%edx
   18a95:	8b 85 ac d9 ff ff    	mov    -0x2654(%rbp),%eax
   18a9b:	39 c2                	cmp    %eax,%edx
   18a9d:	0f 95 c0             	setne  %al
   18aa0:	0f b6 c0             	movzbl %al,%eax
   18aa3:	41 39 c4             	cmp    %eax,%r12d
   18aa6:	0f 9f c0             	setg   %al
   18aa9:	89 c2                	mov    %eax,%edx
   18aab:	48 8b 85 a8 da ff ff 	mov    -0x2558(%rbp),%rax
   18ab2:	88 10                	mov    %dl,(%rax)
   18ab4:	48 8b 85 f0 ed ff ff 	mov    -0x1210(%rbp),%rax
   18abb:	48 8d 15 9e 92 00 00 	lea    0x929e(%rip),%rdx        # 21d60 <g_321>
   18ac2:	48 39 d0             	cmp    %rdx,%rax
   18ac5:	74 18                	je     18adf <func_64+0x52a3>
   18ac7:	eb 0f                	jmp    18ad8 <func_64+0x529c>
   18ac9:	48 8b 05 88 92 00 00 	mov    0x9288(%rip),%rax        # 21d58 <g_322>
   18ad0:	0f b7 00             	movzwl (%rax),%eax
   18ad3:	e9 f0 05 00 00       	jmpq   190c8 <func_64+0x588c>
   18ad8:	b8 01 00 00 00       	mov    $0x1,%eax
   18add:	eb 05                	jmp    18ae4 <func_64+0x52a8>
   18adf:	b8 00 00 00 00       	mov    $0x0,%eax
   18ae4:	0f b7 c8             	movzwl %ax,%ecx
   18ae7:	48 8b 05 42 92 00 00 	mov    0x9242(%rip),%rax        # 21d30 <g_200>
   18aee:	0f b7 10             	movzwl (%rax),%edx
   18af1:	8d 72 01             	lea    0x1(%rdx),%esi
   18af4:	66 89 30             	mov    %si,(%rax)
   18af7:	0f b7 c2             	movzwl %dx,%eax
   18afa:	89 ce                	mov    %ecx,%esi
   18afc:	89 c7                	mov    %eax,%edi
   18afe:	e8 8b 12 ff ff       	callq  9d8e <safe_div_func_uint16_t_u_u>
   18b03:	0f b7 05 a4 69 00 00 	movzwl 0x69a4(%rip),%eax        # 1f4ae <g_632+0x6>
   18b0a:	98                   	cwtl   
   18b0b:	89 de                	mov    %ebx,%esi
   18b0d:	89 c7                	mov    %eax,%edi
   18b0f:	e8 b8 0b ff ff       	callq  96cc <safe_mod_func_int32_t_s_s>
   18b14:	0f be c0             	movsbl %al,%eax
   18b17:	89 c6                	mov    %eax,%esi
   18b19:	bf 06 00 00 00       	mov    $0x6,%edi
   18b1e:	e8 ef 06 ff ff       	callq  9212 <safe_mul_func_int8_t_s_s>
   18b23:	0f be c0             	movsbl %al,%eax
   18b26:	89 c6                	mov    %eax,%esi
   18b28:	bf ff ff ff ff       	mov    $0xffffffff,%edi
   18b2d:	e8 81 08 ff ff       	callq  93b3 <safe_add_func_int16_t_s_s>
   18b32:	44 89 fe             	mov    %r15d,%esi
   18b35:	bf 8b d3 35 c5       	mov    $0xc535d38b,%edi
   18b3a:	e8 8d 0b ff ff       	callq  96cc <safe_mod_func_int32_t_s_s>
   18b3f:	48 98                	cltq   
   18b41:	4c 89 f6             	mov    %r14,%rsi
   18b44:	48 89 c7             	mov    %rax,%rdi
   18b47:	e8 5c 0d ff ff       	callq  98a8 <safe_sub_func_int64_t_s_s>
   18b4c:	48 8b 05 5d 37 00 00 	mov    0x375d(%rip),%rax        # 1c2b0 <l_633.5069+0x1b0>
   18b53:	48 85 c0             	test   %rax,%rax
   18b56:	75 0d                	jne    18b65 <func_64+0x5329>
   18b58:	48 8b 85 f0 da ff ff 	mov    -0x2510(%rbp),%rax
   18b5f:	8b 00                	mov    (%rax),%eax
   18b61:	85 c0                	test   %eax,%eax
   18b63:	74 43                	je     18ba8 <func_64+0x536c>
   18b65:	48 c7 85 28 dc ff ff 	movq   $0x0,-0x23d8(%rbp)
   18b6c:	00 00 00 00 
   18b70:	48 8d 85 d0 e4 ff ff 	lea    -0x1b30(%rbp),%rax
   18b77:	48 05 50 01 00 00    	add    $0x150,%rax
   18b7d:	48 89 05 54 92 00 00 	mov    %rax,0x9254(%rip)        # 21dd8 <g_399+0x18>
   18b84:	8b 85 ac d9 ff ff    	mov    -0x2654(%rbp),%eax
   18b8a:	85 c0                	test   %eax,%eax
   18b8c:	0f 85 a3 02 00 00    	jne    18e35 <func_64+0x55f9>
   18b92:	8b 85 ac d9 ff ff    	mov    -0x2654(%rbp),%eax
   18b98:	89 c2                	mov    %eax,%edx
   18b9a:	48 8b 85 f0 da ff ff 	mov    -0x2510(%rbp),%rax
   18ba1:	89 10                	mov    %edx,(%rax)
   18ba3:	e9 8e 02 00 00       	jmpq   18e36 <func_64+0x55fa>
   18ba8:	48 8d 85 00 df ff ff 	lea    -0x2100(%rbp),%rax
   18baf:	48 83 c0 28          	add    $0x28,%rax
   18bb3:	48 89 85 30 e0 ff ff 	mov    %rax,-0x1fd0(%rbp)
   18bba:	48 8d 05 6f 91 00 00 	lea    0x916f(%rip),%rax        # 21d30 <g_200>
   18bc1:	48 89 85 38 e0 ff ff 	mov    %rax,-0x1fc8(%rbp)
   18bc8:	48 8d 05 61 91 00 00 	lea    0x9161(%rip),%rax        # 21d30 <g_200>
   18bcf:	48 89 85 40 e0 ff ff 	mov    %rax,-0x1fc0(%rbp)
   18bd6:	48 8d 85 00 df ff ff 	lea    -0x2100(%rbp),%rax
   18bdd:	48 83 c0 48          	add    $0x48,%rax
   18be1:	48 89 85 48 e0 ff ff 	mov    %rax,-0x1fb8(%rbp)
   18be8:	48 8d 05 41 91 00 00 	lea    0x9141(%rip),%rax        # 21d30 <g_200>
   18bef:	48 89 85 50 e0 ff ff 	mov    %rax,-0x1fb0(%rbp)
   18bf6:	48 8d 05 33 91 00 00 	lea    0x9133(%rip),%rax        # 21d30 <g_200>
   18bfd:	48 89 85 58 e0 ff ff 	mov    %rax,-0x1fa8(%rbp)
   18c04:	48 8d 85 00 df ff ff 	lea    -0x2100(%rbp),%rax
   18c0b:	48 83 c0 28          	add    $0x28,%rax
   18c0f:	48 89 85 60 e0 ff ff 	mov    %rax,-0x1fa0(%rbp)
   18c16:	48 8d 85 00 df ff ff 	lea    -0x2100(%rbp),%rax
   18c1d:	48 89 85 68 e0 ff ff 	mov    %rax,-0x1f98(%rbp)
   18c24:	48 8d 85 00 df ff ff 	lea    -0x2100(%rbp),%rax
   18c2b:	48 83 c0 28          	add    $0x28,%rax
   18c2f:	48 89 85 70 e0 ff ff 	mov    %rax,-0x1f90(%rbp)
   18c36:	48 8d 05 f3 90 00 00 	lea    0x90f3(%rip),%rax        # 21d30 <g_200>
   18c3d:	48 89 85 78 e0 ff ff 	mov    %rax,-0x1f88(%rbp)
   18c44:	48 8d 85 00 df ff ff 	lea    -0x2100(%rbp),%rax
   18c4b:	48 83 c0 48          	add    $0x48,%rax
   18c4f:	48 89 85 80 e0 ff ff 	mov    %rax,-0x1f80(%rbp)
   18c56:	48 8d 05 d3 90 00 00 	lea    0x90d3(%rip),%rax        # 21d30 <g_200>
   18c5d:	48 89 85 88 e0 ff ff 	mov    %rax,-0x1f78(%rbp)
   18c64:	48 8d 85 00 df ff ff 	lea    -0x2100(%rbp),%rax
   18c6b:	48 83 c0 48          	add    $0x48,%rax
   18c6f:	48 89 85 90 e0 ff ff 	mov    %rax,-0x1f70(%rbp)
   18c76:	48 8d 85 00 df ff ff 	lea    -0x2100(%rbp),%rax
   18c7d:	48 83 c0 48          	add    $0x48,%rax
   18c81:	48 89 85 98 e0 ff ff 	mov    %rax,-0x1f68(%rbp)
   18c88:	48 8d 05 a1 90 00 00 	lea    0x90a1(%rip),%rax        # 21d30 <g_200>
   18c8f:	48 89 85 a0 e0 ff ff 	mov    %rax,-0x1f60(%rbp)
   18c96:	48 8d 85 00 df ff ff 	lea    -0x2100(%rbp),%rax
   18c9d:	48 83 c0 48          	add    $0x48,%rax
   18ca1:	48 89 85 a8 e0 ff ff 	mov    %rax,-0x1f58(%rbp)
   18ca8:	48 8d 85 00 df ff ff 	lea    -0x2100(%rbp),%rax
   18caf:	48 83 c0 48          	add    $0x48,%rax
   18cb3:	48 89 85 b0 e0 ff ff 	mov    %rax,-0x1f50(%rbp)
   18cba:	48 8d 85 00 df ff ff 	lea    -0x2100(%rbp),%rax
   18cc1:	48 83 c0 48          	add    $0x48,%rax
   18cc5:	48 89 85 b8 e0 ff ff 	mov    %rax,-0x1f48(%rbp)
   18ccc:	48 8d 05 5d 90 00 00 	lea    0x905d(%rip),%rax        # 21d30 <g_200>
   18cd3:	48 89 85 c0 e0 ff ff 	mov    %rax,-0x1f40(%rbp)
   18cda:	48 8d 85 00 df ff ff 	lea    -0x2100(%rbp),%rax
   18ce1:	48 89 85 c8 e0 ff ff 	mov    %rax,-0x1f38(%rbp)
   18ce8:	48 8d 85 00 df ff ff 	lea    -0x2100(%rbp),%rax
   18cef:	48 83 c0 08          	add    $0x8,%rax
   18cf3:	48 89 85 d0 e0 ff ff 	mov    %rax,-0x1f30(%rbp)
   18cfa:	0f b6 05 33 67 00 00 	movzbl 0x6733(%rip),%eax        # 1f434 <g_275+0x4>
   18d01:	48 0f be d0          	movsbq %al,%rdx
   18d05:	48 8b 85 b0 da ff ff 	mov    -0x2550(%rbp),%rax
   18d0c:	48 89 10             	mov    %rdx,(%rax)
   18d0f:	48 8b 85 b0 da ff ff 	mov    -0x2550(%rbp),%rax
   18d16:	4c 8b 20             	mov    (%rax),%r12
   18d19:	48 8b 85 60 e0 ff ff 	mov    -0x1fa0(%rbp),%rax
   18d20:	48 89 05 19 91 00 00 	mov    %rax,0x9119(%rip)        # 21e40 <g_644>
   18d27:	48 8b 05 12 91 00 00 	mov    0x9112(%rip),%rax        # 21e40 <g_644>
   18d2e:	48 39 85 08 dc ff ff 	cmp    %rax,-0x23f8(%rbp)
   18d35:	0f 94 c0             	sete   %al
   18d38:	0f b6 d8             	movzbl %al,%ebx
   18d3b:	0f b6 05 d4 66 00 00 	movzbl 0x66d4(%rip),%eax        # 1f416 <g_148+0x6>
   18d42:	4c 0f be e8          	movsbq %al,%r13
   18d46:	48 8b 05 eb 8f 00 00 	mov    0x8feb(%rip),%rax        # 21d38 <g_199>
   18d4d:	48 8b 00             	mov    (%rax),%rax
   18d50:	0f b7 00             	movzwl (%rax),%eax
   18d53:	66 85 c0             	test   %ax,%ax
   18d56:	75 18                	jne    18d70 <func_64+0x5534>
   18d58:	48 8b 05 41 90 00 00 	mov    0x9041(%rip),%rax        # 21da0 <g_331>
   18d5f:	48 8b 00             	mov    (%rax),%rax
   18d62:	48 8b 00             	mov    (%rax),%rax
   18d65:	48 8b 00             	mov    (%rax),%rax
   18d68:	0f b7 00             	movzwl (%rax),%eax
   18d6b:	66 85 c0             	test   %ax,%ax
   18d6e:	74 07                	je     18d77 <func_64+0x553b>
   18d70:	b8 01 00 00 00       	mov    $0x1,%eax
   18d75:	eb 05                	jmp    18d7c <func_64+0x5540>
   18d77:	b8 00 00 00 00       	mov    $0x0,%eax
   18d7c:	48 98                	cltq   
   18d7e:	48 c7 c6 fa ff ff ff 	mov    $0xfffffffffffffffa,%rsi
   18d85:	48 89 c7             	mov    %rax,%rdi
   18d88:	e8 a1 12 ff ff       	callq  a02e <safe_add_func_uint64_t_u_u>
   18d8d:	49 39 c5             	cmp    %rax,%r13
   18d90:	0f 92 c0             	setb   %al
   18d93:	0f b6 c0             	movzbl %al,%eax
   18d96:	89 de                	mov    %ebx,%esi
   18d98:	89 c7                	mov    %eax,%edi
   18d9a:	e8 9e 0f ff ff       	callq  9d3d <safe_mul_func_uint16_t_u_u>
   18d9f:	0f b7 d0             	movzwl %ax,%edx
   18da2:	8b 85 ac d9 ff ff    	mov    -0x2654(%rbp),%eax
   18da8:	39 c2                	cmp    %eax,%edx
   18daa:	0f 93 c0             	setae  %al
   18dad:	0f b6 c0             	movzbl %al,%eax
   18db0:	49 39 c4             	cmp    %rax,%r12
   18db3:	75 07                	jne    18dbc <func_64+0x5580>
   18db5:	b8 01 00 00 00       	mov    $0x1,%eax
   18dba:	eb 05                	jmp    18dc1 <func_64+0x5585>
   18dbc:	b8 00 00 00 00       	mov    $0x0,%eax
   18dc1:	83 c8 08             	or     $0x8,%eax
   18dc4:	0f b7 d0             	movzwl %ax,%edx
   18dc7:	48 8b 0d 0a 34 00 00 	mov    0x340a(%rip),%rcx        # 1c1d8 <l_633.5069+0xd8>
   18dce:	8b b5 ac d9 ff ff    	mov    -0x2654(%rbp),%esi
   18dd4:	48 8b 85 78 da ff ff 	mov    -0x2588(%rbp),%rax
   18ddb:	48 8b 00             	mov    (%rax),%rax
   18dde:	66 89 30             	mov    %si,(%rax)
   18de1:	0f b7 00             	movzwl (%rax),%eax
   18de4:	98                   	cwtl   
   18de5:	89 85 d0 d9 ff ff    	mov    %eax,-0x2630(%rbp)
   18deb:	8b 85 d0 d9 ff ff    	mov    -0x2630(%rbp),%eax
   18df1:	48 98                	cltq   
   18df3:	48 39 c1             	cmp    %rax,%rcx
   18df6:	0f 92 c0             	setb   %al
   18df9:	0f b6 c0             	movzbl %al,%eax
   18dfc:	89 d6                	mov    %edx,%esi
   18dfe:	89 c7                	mov    %eax,%edi
   18e00:	e8 57 0f ff ff       	callq  9d5c <safe_mod_func_uint16_t_u_u>
   18e05:	0f b7 c0             	movzwl %ax,%eax
   18e08:	be 72 9d a0 ad       	mov    $0xada09d72,%esi
   18e0d:	89 c7                	mov    %eax,%edi
   18e0f:	e8 f1 07 ff ff       	callq  9605 <safe_sub_func_int32_t_s_s>
   18e14:	48 8b 95 e8 da ff ff 	mov    -0x2518(%rbp),%rdx
   18e1b:	89 02                	mov    %eax,(%rdx)
   18e1d:	48 8b 85 a0 fa ff ff 	mov    -0x560(%rbp),%rax
   18e24:	48 89 05 35 a4 00 00 	mov    %rax,0xa435(%rip)        # 23260 <g_649>
   18e2b:	8b 85 ac d9 ff ff    	mov    -0x2654(%rbp),%eax
   18e31:	85 c0                	test   %eax,%eax
   18e33:	eb 01                	jmp    18e36 <func_64+0x55fa>
   18e35:	90                   	nop
   18e36:	0f b7 85 c0 d9 ff ff 	movzwl -0x2640(%rbp),%eax
   18e3d:	83 c0 01             	add    $0x1,%eax
   18e40:	66 89 85 c0 d9 ff ff 	mov    %ax,-0x2640(%rbp)
   18e47:	66 83 bd c0 d9 ff ff 	cmpw   $0x0,-0x2640(%rbp)
   18e4e:	00 
   18e4f:	0f 8e 02 f7 ff ff    	jle    18557 <func_64+0x4d1b>
   18e55:	8b 85 cc d9 ff ff    	mov    -0x2634(%rbp),%eax
   18e5b:	85 c0                	test   %eax,%eax
   18e5d:	75 30                	jne    18e8f <func_64+0x5653>
   18e5f:	b8 00 00 00 00       	mov    $0x0,%eax
   18e64:	0f b6 d0             	movzbl %al,%edx
   18e67:	48 8b 85 f0 da ff ff 	mov    -0x2510(%rbp),%rax
   18e6e:	8b 08                	mov    (%rax),%ecx
   18e70:	48 8b 85 f0 da ff ff 	mov    -0x2510(%rbp),%rax
   18e77:	89 08                	mov    %ecx,(%rax)
   18e79:	48 8b 85 f0 da ff ff 	mov    -0x2510(%rbp),%rax
   18e80:	8b 00                	mov    (%rax),%eax
   18e82:	89 d6                	mov    %edx,%esi
   18e84:	89 c7                	mov    %eax,%edi
   18e86:	e8 7a 07 ff ff       	callq  9605 <safe_sub_func_int32_t_s_s>
   18e8b:	85 c0                	test   %eax,%eax
   18e8d:	74 08                	je     18e97 <func_64+0x565b>
   18e8f:	41 bf 01 00 00 00    	mov    $0x1,%r15d
   18e95:	eb 06                	jmp    18e9d <func_64+0x5661>
   18e97:	41 bf 00 00 00 00    	mov    $0x0,%r15d
   18e9d:	48 8b 05 84 8f 00 00 	mov    0x8f84(%rip),%rax        # 21e28 <g_577>
   18ea4:	48 8b 00             	mov    (%rax),%rax
   18ea7:	48 8b 00             	mov    (%rax),%rax
   18eaa:	48 8b 00             	mov    (%rax),%rax
   18ead:	48 8b 00             	mov    (%rax),%rax
   18eb0:	0f b6 00             	movzbl (%rax),%eax
   18eb3:	0f be d8             	movsbl %al,%ebx
   18eb6:	44 8b a5 24 da ff ff 	mov    -0x25dc(%rbp),%r12d
   18ebd:	8b 15 b5 65 00 00    	mov    0x65b5(%rip),%edx        # 1f478 <g_278+0x38>
   18ec3:	8b 85 ac d9 ff ff    	mov    -0x2654(%rbp),%eax
   18ec9:	39 c2                	cmp    %eax,%edx
   18ecb:	0f 92 c0             	setb   %al
   18ece:	0f b6 d0             	movzbl %al,%edx
   18ed1:	48 8b 85 f8 db ff ff 	mov    -0x2408(%rbp),%rax
   18ed8:	89 10                	mov    %edx,(%rax)
   18eda:	48 8b 85 f8 db ff ff 	mov    -0x2408(%rbp),%rax
   18ee1:	44 8b 28             	mov    (%rax),%r13d
   18ee4:	8b 95 ac d9 ff ff    	mov    -0x2654(%rbp),%edx
   18eea:	8b 85 dc d9 ff ff    	mov    -0x2624(%rbp),%eax
   18ef0:	21 c2                	and    %eax,%edx
   18ef2:	41 89 d6             	mov    %edx,%r14d
   18ef5:	be 01 00 00 00       	mov    $0x1,%esi
   18efa:	bf 09 00 00 00       	mov    $0x9,%edi
   18eff:	e8 48 0d ff ff       	callq  9c4c <safe_lshift_func_uint8_t_u_u>
   18f04:	0f b6 d0             	movzbl %al,%edx
   18f07:	8b 85 ac d9 ff ff    	mov    -0x2654(%rbp),%eax
   18f0d:	39 c2                	cmp    %eax,%edx
   18f0f:	8b 85 ac d9 ff ff    	mov    -0x2654(%rbp),%eax
   18f15:	98                   	cwtl   
   18f16:	89 c7                	mov    %eax,%edi
   18f18:	e8 80 04 ff ff       	callq  939d <safe_unary_minus_func_int16_t_s>
   18f1d:	98                   	cwtl   
   18f1e:	44 31 f0             	xor    %r14d,%eax
   18f21:	41 39 c5             	cmp    %eax,%r13d
   18f24:	0f 97 c0             	seta   %al
   18f27:	0f b6 d0             	movzbl %al,%edx
   18f2a:	8b 85 ac d9 ff ff    	mov    -0x2654(%rbp),%eax
   18f30:	39 c2                	cmp    %eax,%edx
   18f32:	0f 97 c0             	seta   %al
   18f35:	0f b6 d0             	movzbl %al,%edx
   18f38:	0f b6 05 65 65 00 00 	movzbl 0x6565(%rip),%eax        # 1f4a4 <g_565>
   18f3f:	0f b6 c0             	movzbl %al,%eax
   18f42:	39 c2                	cmp    %eax,%edx
   18f44:	0f 9c c0             	setl   %al
   18f47:	0f b6 c0             	movzbl %al,%eax
   18f4a:	be 74 d6 00 00       	mov    $0xd674,%esi
   18f4f:	89 c7                	mov    %eax,%edi
   18f51:	e8 06 0e ff ff       	callq  9d5c <safe_mod_func_uint16_t_u_u>
   18f56:	66 83 f8 07          	cmp    $0x7,%ax
   18f5a:	0f 97 c0             	seta   %al
   18f5d:	0f b6 d0             	movzbl %al,%edx
   18f60:	0f b7 05 bb 64 00 00 	movzwl 0x64bb(%rip),%eax        # 1f422 <g_194>
   18f67:	98                   	cwtl   
   18f68:	09 d0                	or     %edx,%eax
   18f6a:	44 89 e6             	mov    %r12d,%esi
   18f6d:	89 c7                	mov    %eax,%edi
   18f6f:	e8 8b 07 ff ff       	callq  96ff <safe_div_func_int32_t_s_s>
   18f74:	8b 95 1c dd ff ff    	mov    -0x22e4(%rbp),%edx
   18f7a:	09 d0                	or     %edx,%eax
   18f7c:	89 85 1c dd ff ff    	mov    %eax,-0x22e4(%rbp)
   18f82:	8b 85 1c dd ff ff    	mov    -0x22e4(%rbp),%eax
   18f88:	0f b6 c0             	movzbl %al,%eax
   18f8b:	be 04 00 00 00       	mov    $0x4,%esi
   18f90:	89 c7                	mov    %eax,%edi
   18f92:	e8 b5 0c ff ff       	callq  9c4c <safe_lshift_func_uint8_t_u_u>
   18f97:	48 8b 05 7a 8e 00 00 	mov    0x8e7a(%rip),%rax        # 21e18 <g_579>
   18f9e:	48 8b 00             	mov    (%rax),%rax
   18fa1:	48 8b 00             	mov    (%rax),%rax
   18fa4:	0f b6 00             	movzbl (%rax),%eax
   18fa7:	8b 95 ac d9 ff ff    	mov    -0x2654(%rbp),%edx
   18fad:	09 d0                	or     %edx,%eax
   18faf:	83 c8 03             	or     $0x3,%eax
   18fb2:	0f b6 c0             	movzbl %al,%eax
   18fb5:	be 04 00 00 00       	mov    $0x4,%esi
   18fba:	89 c7                	mov    %eax,%edi
   18fbc:	e8 cc 0c ff ff       	callq  9c8d <safe_rshift_func_uint8_t_u_s>
   18fc1:	48 8b 95 e8 da ff ff 	mov    -0x2518(%rbp),%rdx
   18fc8:	8b 12                	mov    (%rdx),%edx
   18fca:	0f b6 c0             	movzbl %al,%eax
   18fcd:	21 c2                	and    %eax,%edx
   18fcf:	48 8b 85 e8 da ff ff 	mov    -0x2518(%rbp),%rax
   18fd6:	89 10                	mov    %edx,(%rax)
   18fd8:	48 8b 85 e8 da ff ff 	mov    -0x2518(%rbp),%rax
   18fdf:	8b 00                	mov    (%rax),%eax
   18fe1:	48 63 d0             	movslq %eax,%rdx
   18fe4:	48 8b 85 98 f7 ff ff 	mov    -0x868(%rbp),%rax
   18feb:	48 31 c2             	xor    %rax,%rdx
   18fee:	48 0f bf 85 c6 d9 ff 	movswq -0x263a(%rbp),%rax
   18ff5:	ff 
   18ff6:	48 39 c2             	cmp    %rax,%rdx
   18ff9:	0f 94 c0             	sete   %al
   18ffc:	89 c2                	mov    %eax,%edx
   18ffe:	0f b6 05 37 60 00 00 	movzbl 0x6037(%rip),%eax        # 1f03c <g_41>
   19005:	09 d0                	or     %edx,%eax
   19007:	0f be c0             	movsbl %al,%eax
   1900a:	89 de                	mov    %ebx,%esi
   1900c:	89 c7                	mov    %eax,%edi
   1900e:	e8 57 02 ff ff       	callq  926a <safe_div_func_int8_t_s_s>
   19013:	0f be c0             	movsbl %al,%eax
   19016:	41 39 c7             	cmp    %eax,%r15d
   19019:	0f 94 c0             	sete   %al
   1901c:	0f b6 d0             	movzbl %al,%edx
   1901f:	8b 85 ac d9 ff ff    	mov    -0x2654(%rbp),%eax
   19025:	39 c2                	cmp    %eax,%edx
   19027:	0f 97 c0             	seta   %al
   1902a:	0f b6 d0             	movzbl %al,%edx
   1902d:	0f b7 05 7a 64 00 00 	movzwl 0x647a(%rip),%eax        # 1f4ae <g_632+0x6>
   19034:	98                   	cwtl   
   19035:	39 c2                	cmp    %eax,%edx
   19037:	0f 9c c0             	setl   %al
   1903a:	0f b6 d0             	movzbl %al,%edx
   1903d:	8b 85 d0 dd ff ff    	mov    -0x2230(%rbp),%eax
   19043:	09 d0                	or     %edx,%eax
   19045:	89 85 d0 dd ff ff    	mov    %eax,-0x2230(%rbp)
   1904b:	48 83 ad b8 da ff ff 	subq   $0x1,-0x2548(%rbp)
   19052:	01 
   19053:	48 83 bd b8 da ff ff 	cmpq   $0x0,-0x2548(%rbp)
   1905a:	00 
   1905b:	0f 89 88 f1 ff ff    	jns    181e9 <func_64+0x49ad>
   19061:	0f b6 05 b8 63 00 00 	movzbl 0x63b8(%rip),%eax        # 1f420 <g_184>
   19068:	83 e8 01             	sub    $0x1,%eax
   1906b:	88 05 af 63 00 00    	mov    %al,0x63af(%rip)        # 1f420 <g_184>
   19071:	0f b6 05 a8 63 00 00 	movzbl 0x63a8(%rip),%eax        # 1f420 <g_184>
   19078:	84 c0                	test   %al,%al
   1907a:	0f 89 58 ce ff ff    	jns    15ed8 <func_64+0x269c>
   19080:	eb 04                	jmp    19086 <func_64+0x584a>
   19082:	90                   	nop
   19083:	eb 01                	jmp    19086 <func_64+0x584a>
   19085:	90                   	nop
   19086:	0f b6 05 8c 63 00 00 	movzbl 0x638c(%rip),%eax        # 1f419 <g_167>
   1908d:	0f b6 c0             	movzbl %al,%eax
   19090:	be 05 00 00 00       	mov    $0x5,%esi
   19095:	89 c7                	mov    %eax,%edi
   19097:	e8 63 0c ff ff       	callq  9cff <safe_add_func_uint16_t_u_u>
   1909c:	88 05 77 63 00 00    	mov    %al,0x6377(%rip)        # 1f419 <g_167>
   190a2:	0f b6 05 70 63 00 00 	movzbl 0x6370(%rip),%eax        # 1f419 <g_167>
   190a9:	3c 10                	cmp    $0x10,%al
   190ab:	0f 86 f2 cc ff ff    	jbe    15da3 <func_64+0x2567>
   190b1:	8b 85 ac d9 ff ff    	mov    -0x2654(%rbp),%eax
   190b7:	89 c2                	mov    %eax,%edx
   190b9:	48 8b 85 d8 da ff ff 	mov    -0x2528(%rbp),%rax
   190c0:	89 10                	mov    %edx,(%rax)
   190c2:	8b 85 ac d9 ff ff    	mov    -0x2654(%rbp),%eax
   190c8:	48 8b 5d c8          	mov    -0x38(%rbp),%rbx
   190cc:	64 48 33 1c 25 28 00 	xor    %fs:0x28,%rbx
   190d3:	00 00 
   190d5:	74 05                	je     190dc <func_64+0x58a0>
   190d7:	e8 94 ff fe ff       	callq  9070 <__stack_chk_fail@plt>
   190dc:	48 81 c4 38 26 00 00 	add    $0x2638,%rsp
   190e3:	5b                   	pop    %rbx
   190e4:	41 5c                	pop    %r12
   190e6:	41 5d                	pop    %r13
   190e8:	41 5e                	pop    %r14
   190ea:	41 5f                	pop    %r15
   190ec:	5d                   	pop    %rbp
   190ed:	c3                   	retq   

00000000000190ee <main>:
   190ee:	f3 0f 1e fa          	endbr64 
   190f2:	55                   	push   %rbp
   190f3:	48 89 e5             	mov    %rsp,%rbp
   190f6:	48 83 ec 20          	sub    $0x20,%rsp
   190fa:	89 7d ec             	mov    %edi,-0x14(%rbp)
   190fd:	48 89 75 e0          	mov    %rsi,-0x20(%rbp)
   19101:	c7 45 fc 00 00 00 00 	movl   $0x0,-0x4(%rbp)
   19108:	83 7d ec 02          	cmpl   $0x2,-0x14(%rbp)
   1910c:	75 25                	jne    19133 <main+0x45>
   1910e:	48 8b 45 e0          	mov    -0x20(%rbp),%rax
   19112:	48 83 c0 08          	add    $0x8,%rax
   19116:	48 8b 00             	mov    (%rax),%rax
   19119:	48 8d 35 80 2d 00 00 	lea    0x2d80(%rip),%rsi        # 1bea0 <g_1819+0x1dc0>
   19120:	48 89 c7             	mov    %rax,%rdi
   19123:	e8 68 ff fe ff       	callq  9090 <strcmp@plt>
   19128:	85 c0                	test   %eax,%eax
   1912a:	75 07                	jne    19133 <main+0x45>
   1912c:	c7 45 fc 01 00 00 00 	movl   $0x1,-0x4(%rbp)
   19133:	e8 51 00 ff ff       	callq  9189 <platform_main_begin>
   19138:	e8 5b 14 ff ff       	callq  a598 <crc32_gentab>
   1913d:	e8 73 16 ff ff       	callq  a7b5 <func_1>
   19142:	8b 05 dc 5e 00 00    	mov    0x5edc(%rip),%eax        # 1f024 <g_2>
   19148:	48 98                	cltq   
   1914a:	8b 55 fc             	mov    -0x4(%rbp),%edx
   1914d:	48 8d 35 4e 2d 00 00 	lea    0x2d4e(%rip),%rsi        # 1bea2 <g_1819+0x1dc2>
   19154:	48 89 c7             	mov    %rax,%rdi
   19157:	e8 97 15 ff ff       	callq  a6f3 <transparent_crc>
   1915c:	8b 05 c6 5e 00 00    	mov    0x5ec6(%rip),%eax        # 1f028 <g_3>
   19162:	48 98                	cltq   
   19164:	8b 55 fc             	mov    -0x4(%rbp),%edx
   19167:	48 8d 35 38 2d 00 00 	lea    0x2d38(%rip),%rsi        # 1bea6 <g_1819+0x1dc6>
   1916e:	48 89 c7             	mov    %rax,%rdi
   19171:	e8 7d 15 ff ff       	callq  a6f3 <transparent_crc>
   19176:	c7 45 f0 00 00 00 00 	movl   $0x0,-0x10(%rbp)
   1917d:	eb 4b                	jmp    191ca <main+0xdc>
   1917f:	8b 45 f0             	mov    -0x10(%rbp),%eax
   19182:	48 98                	cltq   
   19184:	48 8d 14 85 00 00 00 	lea    0x0(,%rax,4),%rdx
   1918b:	00 
   1918c:	48 8d 05 9d 5e 00 00 	lea    0x5e9d(%rip),%rax        # 1f030 <g_4>
   19193:	8b 04 02             	mov    (%rdx,%rax,1),%eax
   19196:	48 98                	cltq   
   19198:	8b 55 fc             	mov    -0x4(%rbp),%edx
   1919b:	48 8d 35 08 2d 00 00 	lea    0x2d08(%rip),%rsi        # 1beaa <g_1819+0x1dca>
   191a2:	48 89 c7             	mov    %rax,%rdi
   191a5:	e8 49 15 ff ff       	callq  a6f3 <transparent_crc>
   191aa:	83 7d fc 00          	cmpl   $0x0,-0x4(%rbp)
   191ae:	74 16                	je     191c6 <main+0xd8>
   191b0:	8b 45 f0             	mov    -0x10(%rbp),%eax
   191b3:	89 c6                	mov    %eax,%esi
   191b5:	48 8d 3d f5 2c 00 00 	lea    0x2cf5(%rip),%rdi        # 1beb1 <g_1819+0x1dd1>
   191bc:	b8 00 00 00 00       	mov    $0x0,%eax
   191c1:	e8 ba fe fe ff       	callq  9080 <printf@plt>
   191c6:	83 45 f0 01          	addl   $0x1,-0x10(%rbp)
   191ca:	83 7d f0 02          	cmpl   $0x2,-0x10(%rbp)
   191ce:	7e af                	jle    1917f <main+0x91>
   191d0:	0f b6 05 65 5e 00 00 	movzbl 0x5e65(%rip),%eax        # 1f03c <g_41>
   191d7:	0f b6 c0             	movzbl %al,%eax
   191da:	8b 55 fc             	mov    -0x4(%rbp),%edx
   191dd:	48 8d 35 db 2c 00 00 	lea    0x2cdb(%rip),%rsi        # 1bebf <g_1819+0x1ddf>
   191e4:	48 89 c7             	mov    %rax,%rdi
   191e7:	e8 07 15 ff ff       	callq  a6f3 <transparent_crc>
   191ec:	c7 45 f0 00 00 00 00 	movl   $0x0,-0x10(%rbp)
   191f3:	e9 a1 00 00 00       	jmpq   19299 <main+0x1ab>
   191f8:	c7 45 f4 00 00 00 00 	movl   $0x0,-0xc(%rbp)
   191ff:	e9 87 00 00 00       	jmpq   1928b <main+0x19d>
   19204:	c7 45 f8 00 00 00 00 	movl   $0x0,-0x8(%rbp)
   1920b:	eb 74                	jmp    19281 <main+0x193>
   1920d:	8b 45 f8             	mov    -0x8(%rbp),%eax
   19210:	48 63 c8             	movslq %eax,%rcx
   19213:	8b 45 f0             	mov    -0x10(%rbp),%eax
   19216:	48 63 d0             	movslq %eax,%rdx
   19219:	8b 45 f4             	mov    -0xc(%rbp),%eax
   1921c:	48 63 f0             	movslq %eax,%rsi
   1921f:	48 89 d0             	mov    %rdx,%rax
   19222:	48 01 c0             	add    %rax,%rax
   19225:	48 01 d0             	add    %rdx,%rax
   19228:	48 01 c0             	add    %rax,%rax
   1922b:	48 01 f0             	add    %rsi,%rax
   1922e:	48 c1 e0 03          	shl    $0x3,%rax
   19232:	48 01 c8             	add    %rcx,%rax
   19235:	48 8d 14 85 00 00 00 	lea    0x0(,%rax,4),%rdx
   1923c:	00 
   1923d:	48 8d 05 fc 5d 00 00 	lea    0x5dfc(%rip),%rax        # 1f040 <g_46>
   19244:	8b 04 02             	mov    (%rdx,%rax,1),%eax
   19247:	48 98                	cltq   
   19249:	8b 55 fc             	mov    -0x4(%rbp),%edx
   1924c:	48 8d 35 71 2c 00 00 	lea    0x2c71(%rip),%rsi        # 1bec4 <g_1819+0x1de4>
   19253:	48 89 c7             	mov    %rax,%rdi
   19256:	e8 98 14 ff ff       	callq  a6f3 <transparent_crc>
   1925b:	83 7d fc 00          	cmpl   $0x0,-0x4(%rbp)
   1925f:	74 1c                	je     1927d <main+0x18f>
   19261:	8b 4d f8             	mov    -0x8(%rbp),%ecx
   19264:	8b 55 f4             	mov    -0xc(%rbp),%edx
   19267:	8b 45 f0             	mov    -0x10(%rbp),%eax
   1926a:	89 c6                	mov    %eax,%esi
   1926c:	48 8d 3d 5f 2c 00 00 	lea    0x2c5f(%rip),%rdi        # 1bed2 <g_1819+0x1df2>
   19273:	b8 00 00 00 00       	mov    $0x0,%eax
   19278:	e8 03 fe fe ff       	callq  9080 <printf@plt>
   1927d:	83 45 f8 01          	addl   $0x1,-0x8(%rbp)
   19281:	83 7d f8 07          	cmpl   $0x7,-0x8(%rbp)
   19285:	7e 86                	jle    1920d <main+0x11f>
   19287:	83 45 f4 01          	addl   $0x1,-0xc(%rbp)
   1928b:	83 7d f4 05          	cmpl   $0x5,-0xc(%rbp)
   1928f:	0f 8e 6f ff ff ff    	jle    19204 <main+0x116>
   19295:	83 45 f0 01          	addl   $0x1,-0x10(%rbp)
   19299:	83 7d f0 04          	cmpl   $0x4,-0x10(%rbp)
   1929d:	0f 8e 55 ff ff ff    	jle    191f8 <main+0x10a>
   192a3:	0f b6 05 56 61 00 00 	movzbl 0x6156(%rip),%eax        # 1f400 <g_88>
   192aa:	48 0f be c0          	movsbq %al,%rax
   192ae:	8b 55 fc             	mov    -0x4(%rbp),%edx
   192b1:	48 8d 35 30 2c 00 00 	lea    0x2c30(%rip),%rsi        # 1bee8 <g_1819+0x1e08>
   192b8:	48 89 c7             	mov    %rax,%rdi
   192bb:	e8 33 14 ff ff       	callq  a6f3 <transparent_crc>
   192c0:	b8 ff ff ff ff       	mov    $0xffffffff,%eax
   192c5:	0f b7 c0             	movzwl %ax,%eax
   192c8:	8b 55 fc             	mov    -0x4(%rbp),%edx
   192cb:	48 8d 35 1b 2c 00 00 	lea    0x2c1b(%rip),%rsi        # 1beed <g_1819+0x1e0d>
   192d2:	48 89 c7             	mov    %rax,%rdi
   192d5:	e8 19 14 ff ff       	callq  a6f3 <transparent_crc>
   192da:	0f b7 05 21 61 00 00 	movzwl 0x6121(%rip),%eax        # 1f402 <g_109>
   192e1:	0f b7 c0             	movzwl %ax,%eax
   192e4:	8b 55 fc             	mov    -0x4(%rbp),%edx
   192e7:	48 8d 35 05 2c 00 00 	lea    0x2c05(%rip),%rsi        # 1bef3 <g_1819+0x1e13>
   192ee:	48 89 c7             	mov    %rax,%rdi
   192f1:	e8 fd 13 ff ff       	callq  a6f3 <transparent_crc>
   192f6:	0f b6 05 07 61 00 00 	movzbl 0x6107(%rip),%eax        # 1f404 <g_113>
   192fd:	48 0f be c0          	movsbq %al,%rax
   19301:	8b 55 fc             	mov    -0x4(%rbp),%edx
   19304:	48 8d 35 ee 2b 00 00 	lea    0x2bee(%rip),%rsi        # 1bef9 <g_1819+0x1e19>
   1930b:	48 89 c7             	mov    %rax,%rdi
   1930e:	e8 e0 13 ff ff       	callq  a6f3 <transparent_crc>
   19313:	0f b7 05 ec 60 00 00 	movzwl 0x60ec(%rip),%eax        # 1f406 <g_125>
   1931a:	0f b7 c0             	movzwl %ax,%eax
   1931d:	8b 55 fc             	mov    -0x4(%rbp),%edx
   19320:	48 8d 35 d8 2b 00 00 	lea    0x2bd8(%rip),%rsi        # 1beff <g_1819+0x1e1f>
   19327:	48 89 c7             	mov    %rax,%rdi
   1932a:	e8 c4 13 ff ff       	callq  a6f3 <transparent_crc>
   1932f:	48 8b 05 d2 60 00 00 	mov    0x60d2(%rip),%rax        # 1f408 <g_143>
   19336:	48 89 c1             	mov    %rax,%rcx
   19339:	8b 45 fc             	mov    -0x4(%rbp),%eax
   1933c:	89 c2                	mov    %eax,%edx
   1933e:	48 8d 35 c0 2b 00 00 	lea    0x2bc0(%rip),%rsi        # 1bf05 <g_1819+0x1e25>
   19345:	48 89 cf             	mov    %rcx,%rdi
   19348:	e8 a6 13 ff ff       	callq  a6f3 <transparent_crc>
   1934d:	c7 45 f0 00 00 00 00 	movl   $0x0,-0x10(%rbp)
   19354:	eb 46                	jmp    1939c <main+0x2ae>
   19356:	8b 45 f0             	mov    -0x10(%rbp),%eax
   19359:	48 98                	cltq   
   1935b:	48 8d 15 ae 60 00 00 	lea    0x60ae(%rip),%rdx        # 1f410 <g_148>
   19362:	0f b6 04 10          	movzbl (%rax,%rdx,1),%eax
   19366:	48 0f be c0          	movsbq %al,%rax
   1936a:	8b 55 fc             	mov    -0x4(%rbp),%edx
   1936d:	48 8d 35 97 2b 00 00 	lea    0x2b97(%rip),%rsi        # 1bf0b <g_1819+0x1e2b>
   19374:	48 89 c7             	mov    %rax,%rdi
   19377:	e8 77 13 ff ff       	callq  a6f3 <transparent_crc>
   1937c:	83 7d fc 00          	cmpl   $0x0,-0x4(%rbp)
   19380:	74 16                	je     19398 <main+0x2aa>
   19382:	8b 45 f0             	mov    -0x10(%rbp),%eax
   19385:	89 c6                	mov    %eax,%esi
   19387:	48 8d 3d 23 2b 00 00 	lea    0x2b23(%rip),%rdi        # 1beb1 <g_1819+0x1dd1>
   1938e:	b8 00 00 00 00       	mov    $0x0,%eax
   19393:	e8 e8 fc fe ff       	callq  9080 <printf@plt>
   19398:	83 45 f0 01          	addl   $0x1,-0x10(%rbp)
   1939c:	83 7d f0 08          	cmpl   $0x8,-0x10(%rbp)
   193a0:	7e b4                	jle    19356 <main+0x268>
   193a2:	0f b6 05 70 60 00 00 	movzbl 0x6070(%rip),%eax        # 1f419 <g_167>
   193a9:	0f b6 c0             	movzbl %al,%eax
   193ac:	8b 55 fc             	mov    -0x4(%rbp),%edx
   193af:	48 8d 35 5e 2b 00 00 	lea    0x2b5e(%rip),%rsi        # 1bf14 <g_1819+0x1e34>
   193b6:	48 89 c7             	mov    %rax,%rdi
   193b9:	e8 35 13 ff ff       	callq  a6f3 <transparent_crc>
   193be:	8b 05 58 60 00 00    	mov    0x6058(%rip),%eax        # 1f41c <g_170>
   193c4:	48 98                	cltq   
   193c6:	8b 55 fc             	mov    -0x4(%rbp),%edx
   193c9:	48 8d 35 4a 2b 00 00 	lea    0x2b4a(%rip),%rsi        # 1bf1a <g_1819+0x1e3a>
   193d0:	48 89 c7             	mov    %rax,%rdi
   193d3:	e8 1b 13 ff ff       	callq  a6f3 <transparent_crc>
   193d8:	0f b6 05 41 60 00 00 	movzbl 0x6041(%rip),%eax        # 1f420 <g_184>
   193df:	48 0f be c0          	movsbq %al,%rax
   193e3:	8b 55 fc             	mov    -0x4(%rbp),%edx
   193e6:	48 8d 35 33 2b 00 00 	lea    0x2b33(%rip),%rsi        # 1bf20 <g_1819+0x1e40>
   193ed:	48 89 c7             	mov    %rax,%rdi
   193f0:	e8 fe 12 ff ff       	callq  a6f3 <transparent_crc>
   193f5:	0f b7 05 26 60 00 00 	movzwl 0x6026(%rip),%eax        # 1f422 <g_194>
   193fc:	48 0f bf c0          	movswq %ax,%rax
   19400:	8b 55 fc             	mov    -0x4(%rbp),%edx
   19403:	48 8d 35 1c 2b 00 00 	lea    0x2b1c(%rip),%rsi        # 1bf26 <g_1819+0x1e46>
   1940a:	48 89 c7             	mov    %rax,%rdi
   1940d:	e8 e1 12 ff ff       	callq  a6f3 <transparent_crc>
   19412:	8b 05 0c 60 00 00    	mov    0x600c(%rip),%eax        # 1f424 <g_246>
   19418:	48 98                	cltq   
   1941a:	8b 55 fc             	mov    -0x4(%rbp),%edx
   1941d:	48 8d 35 08 2b 00 00 	lea    0x2b08(%rip),%rsi        # 1bf2c <g_1819+0x1e4c>
   19424:	48 89 c7             	mov    %rax,%rdi
   19427:	e8 c7 12 ff ff       	callq  a6f3 <transparent_crc>
   1942c:	8b 05 f6 5f 00 00    	mov    0x5ff6(%rip),%eax        # 1f428 <g_267>
   19432:	89 c1                	mov    %eax,%ecx
   19434:	8b 45 fc             	mov    -0x4(%rbp),%eax
   19437:	89 c2                	mov    %eax,%edx
   19439:	48 8d 35 f2 2a 00 00 	lea    0x2af2(%rip),%rsi        # 1bf32 <g_1819+0x1e52>
   19440:	48 89 cf             	mov    %rcx,%rdi
   19443:	e8 ab 12 ff ff       	callq  a6f3 <transparent_crc>
   19448:	c7 45 f0 00 00 00 00 	movl   $0x0,-0x10(%rbp)
   1944f:	eb 46                	jmp    19497 <main+0x3a9>
   19451:	8b 45 f0             	mov    -0x10(%rbp),%eax
   19454:	48 98                	cltq   
   19456:	48 8d 15 d3 5f 00 00 	lea    0x5fd3(%rip),%rdx        # 1f430 <g_275>
   1945d:	0f b6 04 10          	movzbl (%rax,%rdx,1),%eax
   19461:	48 0f be c0          	movsbq %al,%rax
   19465:	8b 55 fc             	mov    -0x4(%rbp),%edx
   19468:	48 8d 35 c9 2a 00 00 	lea    0x2ac9(%rip),%rsi        # 1bf38 <g_1819+0x1e58>
   1946f:	48 89 c7             	mov    %rax,%rdi
   19472:	e8 7c 12 ff ff       	callq  a6f3 <transparent_crc>
   19477:	83 7d fc 00          	cmpl   $0x0,-0x4(%rbp)
   1947b:	74 16                	je     19493 <main+0x3a5>
   1947d:	8b 45 f0             	mov    -0x10(%rbp),%eax
   19480:	89 c6                	mov    %eax,%esi
   19482:	48 8d 3d 28 2a 00 00 	lea    0x2a28(%rip),%rdi        # 1beb1 <g_1819+0x1dd1>
   19489:	b8 00 00 00 00       	mov    $0x0,%eax
   1948e:	e8 ed fb fe ff       	callq  9080 <printf@plt>
   19493:	83 45 f0 01          	addl   $0x1,-0x10(%rbp)
   19497:	83 7d f0 07          	cmpl   $0x7,-0x10(%rbp)
   1949b:	7e b4                	jle    19451 <main+0x363>
   1949d:	c7 45 f0 00 00 00 00 	movl   $0x0,-0x10(%rbp)
   194a4:	eb 6f                	jmp    19515 <main+0x427>
   194a6:	c7 45 f4 00 00 00 00 	movl   $0x0,-0xc(%rbp)
   194ad:	eb 5c                	jmp    1950b <main+0x41d>
   194af:	8b 45 f4             	mov    -0xc(%rbp),%eax
   194b2:	48 98                	cltq   
   194b4:	8b 55 f0             	mov    -0x10(%rbp),%edx
   194b7:	48 63 d2             	movslq %edx,%rdx
   194ba:	48 01 d2             	add    %rdx,%rdx
   194bd:	48 01 d0             	add    %rdx,%rax
   194c0:	48 8d 14 85 00 00 00 	lea    0x0(,%rax,4),%rdx
   194c7:	00 
   194c8:	48 8d 05 71 5f 00 00 	lea    0x5f71(%rip),%rax        # 1f440 <g_278>
   194cf:	8b 04 02             	mov    (%rdx,%rax,1),%eax
   194d2:	89 c1                	mov    %eax,%ecx
   194d4:	8b 45 fc             	mov    -0x4(%rbp),%eax
   194d7:	89 c2                	mov    %eax,%edx
   194d9:	48 8d 35 61 2a 00 00 	lea    0x2a61(%rip),%rsi        # 1bf41 <g_1819+0x1e61>
   194e0:	48 89 cf             	mov    %rcx,%rdi
   194e3:	e8 0b 12 ff ff       	callq  a6f3 <transparent_crc>
   194e8:	83 7d fc 00          	cmpl   $0x0,-0x4(%rbp)
   194ec:	74 19                	je     19507 <main+0x419>
   194ee:	8b 55 f4             	mov    -0xc(%rbp),%edx
   194f1:	8b 45 f0             	mov    -0x10(%rbp),%eax
   194f4:	89 c6                	mov    %eax,%esi
   194f6:	48 8d 3d 50 2a 00 00 	lea    0x2a50(%rip),%rdi        # 1bf4d <g_1819+0x1e6d>
   194fd:	b8 00 00 00 00       	mov    $0x0,%eax
   19502:	e8 79 fb fe ff       	callq  9080 <printf@plt>
   19507:	83 45 f4 01          	addl   $0x1,-0xc(%rbp)
   1950b:	83 7d f4 01          	cmpl   $0x1,-0xc(%rbp)
   1950f:	7e 9e                	jle    194af <main+0x3c1>
   19511:	83 45 f0 01          	addl   $0x1,-0x10(%rbp)
   19515:	83 7d f0 07          	cmpl   $0x7,-0x10(%rbp)
   19519:	7e 8b                	jle    194a6 <main+0x3b8>
   1951b:	48 8b 05 5e 5f 00 00 	mov    0x5f5e(%rip),%rax        # 1f480 <g_293>
   19522:	8b 55 fc             	mov    -0x4(%rbp),%edx
   19525:	48 8d 35 33 2a 00 00 	lea    0x2a33(%rip),%rsi        # 1bf5f <g_1819+0x1e7f>
   1952c:	48 89 c7             	mov    %rax,%rdi
   1952f:	e8 bf 11 ff ff       	callq  a6f3 <transparent_crc>
   19534:	0f b6 05 4d 5f 00 00 	movzbl 0x5f4d(%rip),%eax        # 1f488 <g_309>
   1953b:	48 0f be c0          	movsbq %al,%rax
   1953f:	8b 55 fc             	mov    -0x4(%rbp),%edx
   19542:	48 8d 35 1c 2a 00 00 	lea    0x2a1c(%rip),%rsi        # 1bf65 <g_1819+0x1e85>
   19549:	48 89 c7             	mov    %rax,%rdi
   1954c:	e8 a2 11 ff ff       	callq  a6f3 <transparent_crc>
   19551:	48 8b 05 38 5f 00 00 	mov    0x5f38(%rip),%rax        # 1f490 <g_347>
   19558:	48 89 c1             	mov    %rax,%rcx
   1955b:	8b 45 fc             	mov    -0x4(%rbp),%eax
   1955e:	89 c2                	mov    %eax,%edx
   19560:	48 8d 35 04 2a 00 00 	lea    0x2a04(%rip),%rsi        # 1bf6b <g_1819+0x1e8b>
   19567:	48 89 cf             	mov    %rcx,%rdi
   1956a:	e8 84 11 ff ff       	callq  a6f3 <transparent_crc>
   1956f:	8b 05 23 5f 00 00    	mov    0x5f23(%rip),%eax        # 1f498 <g_371>
   19575:	48 98                	cltq   
   19577:	8b 55 fc             	mov    -0x4(%rbp),%edx
   1957a:	48 8d 35 f0 29 00 00 	lea    0x29f0(%rip),%rsi        # 1bf71 <g_1819+0x1e91>
   19581:	48 89 c7             	mov    %rax,%rdi
   19584:	e8 6a 11 ff ff       	callq  a6f3 <transparent_crc>
   19589:	0f b6 05 0c 5f 00 00 	movzbl 0x5f0c(%rip),%eax        # 1f49c <g_373>
   19590:	48 0f be c0          	movsbq %al,%rax
   19594:	8b 55 fc             	mov    -0x4(%rbp),%edx
   19597:	48 8d 35 d9 29 00 00 	lea    0x29d9(%rip),%rsi        # 1bf77 <g_1819+0x1e97>
   1959e:	48 89 c7             	mov    %rax,%rdi
   195a1:	e8 4d 11 ff ff       	callq  a6f3 <transparent_crc>
   195a6:	c7 45 f0 00 00 00 00 	movl   $0x0,-0x10(%rbp)
   195ad:	eb 45                	jmp    195f4 <main+0x506>
   195af:	8b 45 f0             	mov    -0x10(%rbp),%eax
   195b2:	48 98                	cltq   
   195b4:	48 8d 15 e2 5e 00 00 	lea    0x5ee2(%rip),%rdx        # 1f49d <g_375>
   195bb:	0f b6 04 10          	movzbl (%rax,%rdx,1),%eax
   195bf:	0f b6 c0             	movzbl %al,%eax
   195c2:	8b 55 fc             	mov    -0x4(%rbp),%edx
   195c5:	48 8d 35 b1 29 00 00 	lea    0x29b1(%rip),%rsi        # 1bf7d <g_1819+0x1e9d>
   195cc:	48 89 c7             	mov    %rax,%rdi
   195cf:	e8 1f 11 ff ff       	callq  a6f3 <transparent_crc>
   195d4:	83 7d fc 00          	cmpl   $0x0,-0x4(%rbp)
   195d8:	74 16                	je     195f0 <main+0x502>
   195da:	8b 45 f0             	mov    -0x10(%rbp),%eax
   195dd:	89 c6                	mov    %eax,%esi
   195df:	48 8d 3d cb 28 00 00 	lea    0x28cb(%rip),%rdi        # 1beb1 <g_1819+0x1dd1>
   195e6:	b8 00 00 00 00       	mov    $0x0,%eax
   195eb:	e8 90 fa fe ff       	callq  9080 <printf@plt>
   195f0:	83 45 f0 01          	addl   $0x1,-0x10(%rbp)
   195f4:	83 7d f0 02          	cmpl   $0x2,-0x10(%rbp)
   195f8:	7e b5                	jle    195af <main+0x4c1>
   195fa:	8b 05 a0 5e 00 00    	mov    0x5ea0(%rip),%eax        # 1f4a0 <g_509>
   19600:	89 c1                	mov    %eax,%ecx
   19602:	8b 45 fc             	mov    -0x4(%rbp),%eax
   19605:	89 c2                	mov    %eax,%edx
   19607:	48 8d 35 78 29 00 00 	lea    0x2978(%rip),%rsi        # 1bf86 <g_1819+0x1ea6>
   1960e:	48 89 cf             	mov    %rcx,%rdi
   19611:	e8 dd 10 ff ff       	callq  a6f3 <transparent_crc>
   19616:	0f b6 05 87 5e 00 00 	movzbl 0x5e87(%rip),%eax        # 1f4a4 <g_565>
   1961d:	0f b6 c0             	movzbl %al,%eax
   19620:	8b 55 fc             	mov    -0x4(%rbp),%edx
   19623:	48 8d 35 62 29 00 00 	lea    0x2962(%rip),%rsi        # 1bf8c <g_1819+0x1eac>
   1962a:	48 89 c7             	mov    %rax,%rdi
   1962d:	e8 c1 10 ff ff       	callq  a6f3 <transparent_crc>
   19632:	c7 45 f0 00 00 00 00 	movl   $0x0,-0x10(%rbp)
   19639:	eb 4a                	jmp    19685 <main+0x597>
   1963b:	8b 45 f0             	mov    -0x10(%rbp),%eax
   1963e:	48 98                	cltq   
   19640:	48 8d 14 00          	lea    (%rax,%rax,1),%rdx
   19644:	48 8d 05 5d 5e 00 00 	lea    0x5e5d(%rip),%rax        # 1f4a8 <g_632>
   1964b:	0f b7 04 02          	movzwl (%rdx,%rax,1),%eax
   1964f:	48 0f bf c0          	movswq %ax,%rax
   19653:	8b 55 fc             	mov    -0x4(%rbp),%edx
   19656:	48 8d 35 35 29 00 00 	lea    0x2935(%rip),%rsi        # 1bf92 <g_1819+0x1eb2>
   1965d:	48 89 c7             	mov    %rax,%rdi
   19660:	e8 8e 10 ff ff       	callq  a6f3 <transparent_crc>
   19665:	83 7d fc 00          	cmpl   $0x0,-0x4(%rbp)
   19669:	74 16                	je     19681 <main+0x593>
   1966b:	8b 45 f0             	mov    -0x10(%rbp),%eax
   1966e:	89 c6                	mov    %eax,%esi
   19670:	48 8d 3d 3a 28 00 00 	lea    0x283a(%rip),%rdi        # 1beb1 <g_1819+0x1dd1>
   19677:	b8 00 00 00 00       	mov    $0x0,%eax
   1967c:	e8 ff f9 fe ff       	callq  9080 <printf@plt>
   19681:	83 45 f0 01          	addl   $0x1,-0x10(%rbp)
   19685:	83 7d f0 05          	cmpl   $0x5,-0x10(%rbp)
   19689:	7e b0                	jle    1963b <main+0x54d>
   1968b:	b8 00 00 00 00       	mov    $0x0,%eax
   19690:	0f b6 c0             	movzbl %al,%eax
   19693:	8b 55 fc             	mov    -0x4(%rbp),%edx
   19696:	48 8d 35 fe 28 00 00 	lea    0x28fe(%rip),%rsi        # 1bf9b <g_1819+0x1ebb>
   1969d:	48 89 c7             	mov    %rax,%rdi
   196a0:	e8 4e 10 ff ff       	callq  a6f3 <transparent_crc>
   196a5:	c7 45 f0 00 00 00 00 	movl   $0x0,-0x10(%rbp)
   196ac:	eb 4d                	jmp    196fb <main+0x60d>
   196ae:	8b 45 f0             	mov    -0x10(%rbp),%eax
   196b1:	48 98                	cltq   
   196b3:	48 8d 14 85 00 00 00 	lea    0x0(,%rax,4),%rdx
   196ba:	00 
   196bb:	48 8d 05 96 09 00 00 	lea    0x996(%rip),%rax        # 1a058 <g_713>
   196c2:	8b 04 02             	mov    (%rdx,%rax,1),%eax
   196c5:	89 c1                	mov    %eax,%ecx
   196c7:	8b 45 fc             	mov    -0x4(%rbp),%eax
   196ca:	89 c2                	mov    %eax,%edx
   196cc:	48 8d 35 ce 28 00 00 	lea    0x28ce(%rip),%rsi        # 1bfa1 <g_1819+0x1ec1>
   196d3:	48 89 cf             	mov    %rcx,%rdi
   196d6:	e8 18 10 ff ff       	callq  a6f3 <transparent_crc>
   196db:	83 7d fc 00          	cmpl   $0x0,-0x4(%rbp)
   196df:	74 16                	je     196f7 <main+0x609>
   196e1:	8b 45 f0             	mov    -0x10(%rbp),%eax
   196e4:	89 c6                	mov    %eax,%esi
   196e6:	48 8d 3d c4 27 00 00 	lea    0x27c4(%rip),%rdi        # 1beb1 <g_1819+0x1dd1>
   196ed:	b8 00 00 00 00       	mov    $0x0,%eax
   196f2:	e8 89 f9 fe ff       	callq  9080 <printf@plt>
   196f7:	83 45 f0 01          	addl   $0x1,-0x10(%rbp)
   196fb:	83 7d f0 01          	cmpl   $0x1,-0x10(%rbp)
   196ff:	7e ad                	jle    196ae <main+0x5c0>
   19701:	8b 05 ad 5d 00 00    	mov    0x5dad(%rip),%eax        # 1f4b4 <g_717>
   19707:	48 98                	cltq   
   19709:	8b 55 fc             	mov    -0x4(%rbp),%edx
   1970c:	48 8d 35 97 28 00 00 	lea    0x2897(%rip),%rsi        # 1bfaa <g_1819+0x1eca>
   19713:	48 89 c7             	mov    %rax,%rdi
   19716:	e8 d8 0f ff ff       	callq  a6f3 <transparent_crc>
   1971b:	8b 05 97 5d 00 00    	mov    0x5d97(%rip),%eax        # 1f4b8 <g_768>
   19721:	89 c1                	mov    %eax,%ecx
   19723:	8b 45 fc             	mov    -0x4(%rbp),%eax
   19726:	89 c2                	mov    %eax,%edx
   19728:	48 8d 35 81 28 00 00 	lea    0x2881(%rip),%rsi        # 1bfb0 <g_1819+0x1ed0>
   1972f:	48 89 cf             	mov    %rcx,%rdi
   19732:	e8 bc 0f ff ff       	callq  a6f3 <transparent_crc>
   19737:	8b 05 7f 5d 00 00    	mov    0x5d7f(%rip),%eax        # 1f4bc <g_1082>
   1973d:	48 98                	cltq   
   1973f:	8b 55 fc             	mov    -0x4(%rbp),%edx
   19742:	48 8d 35 6d 28 00 00 	lea    0x286d(%rip),%rsi        # 1bfb6 <g_1819+0x1ed6>
   19749:	48 89 c7             	mov    %rax,%rdi
   1974c:	e8 a2 0f ff ff       	callq  a6f3 <transparent_crc>
   19751:	c7 45 f0 00 00 00 00 	movl   $0x0,-0x10(%rbp)
   19758:	e9 bb 00 00 00       	jmpq   19818 <main+0x72a>
   1975d:	c7 45 f4 00 00 00 00 	movl   $0x0,-0xc(%rbp)
   19764:	e9 a1 00 00 00       	jmpq   1980a <main+0x71c>
   19769:	c7 45 f8 00 00 00 00 	movl   $0x0,-0x8(%rbp)
   19770:	e9 87 00 00 00       	jmpq   197fc <main+0x70e>
   19775:	8b 45 f8             	mov    -0x8(%rbp),%eax
   19778:	48 63 f0             	movslq %eax,%rsi
   1977b:	8b 45 f0             	mov    -0x10(%rbp),%eax
   1977e:	48 63 d0             	movslq %eax,%rdx
   19781:	8b 45 f4             	mov    -0xc(%rbp),%eax
   19784:	48 63 c8             	movslq %eax,%rcx
   19787:	48 89 d0             	mov    %rdx,%rax
   1978a:	48 01 c0             	add    %rax,%rax
   1978d:	48 01 d0             	add    %rdx,%rax
   19790:	48 8d 14 c5 00 00 00 	lea    0x0(,%rax,8),%rdx
   19797:	00 
   19798:	48 01 d0             	add    %rdx,%rax
   1979b:	48 01 c0             	add    %rax,%rax
   1979e:	48 89 ca             	mov    %rcx,%rdx
   197a1:	48 01 d2             	add    %rdx,%rdx
   197a4:	48 01 ca             	add    %rcx,%rdx
   197a7:	48 01 d2             	add    %rdx,%rdx
   197aa:	48 01 d0             	add    %rdx,%rax
   197ad:	48 01 f0             	add    %rsi,%rax
   197b0:	48 8d 14 85 00 00 00 	lea    0x0(,%rax,4),%rdx
   197b7:	00 
   197b8:	48 8d 05 01 5d 00 00 	lea    0x5d01(%rip),%rax        # 1f4c0 <g_1112>
   197bf:	8b 04 02             	mov    (%rdx,%rax,1),%eax
   197c2:	48 98                	cltq   
   197c4:	8b 55 fc             	mov    -0x4(%rbp),%edx
   197c7:	48 8d 35 ef 27 00 00 	lea    0x27ef(%rip),%rsi        # 1bfbd <g_1819+0x1edd>
   197ce:	48 89 c7             	mov    %rax,%rdi
   197d1:	e8 1d 0f ff ff       	callq  a6f3 <transparent_crc>
   197d6:	83 7d fc 00          	cmpl   $0x0,-0x4(%rbp)
   197da:	74 1c                	je     197f8 <main+0x70a>
   197dc:	8b 4d f8             	mov    -0x8(%rbp),%ecx
   197df:	8b 55 f4             	mov    -0xc(%rbp),%edx
   197e2:	8b 45 f0             	mov    -0x10(%rbp),%eax
   197e5:	89 c6                	mov    %eax,%esi
   197e7:	48 8d 3d e4 26 00 00 	lea    0x26e4(%rip),%rdi        # 1bed2 <g_1819+0x1df2>
   197ee:	b8 00 00 00 00       	mov    $0x0,%eax
   197f3:	e8 88 f8 fe ff       	callq  9080 <printf@plt>
   197f8:	83 45 f8 01          	addl   $0x1,-0x8(%rbp)
   197fc:	83 7d f8 05          	cmpl   $0x5,-0x8(%rbp)
   19800:	0f 8e 6f ff ff ff    	jle    19775 <main+0x687>
   19806:	83 45 f4 01          	addl   $0x1,-0xc(%rbp)
   1980a:	83 7d f4 08          	cmpl   $0x8,-0xc(%rbp)
   1980e:	0f 8e 55 ff ff ff    	jle    19769 <main+0x67b>
   19814:	83 45 f0 01          	addl   $0x1,-0x10(%rbp)
   19818:	83 7d f0 03          	cmpl   $0x3,-0x10(%rbp)
   1981c:	0f 8e 3b ff ff ff    	jle    1975d <main+0x66f>
   19822:	c7 45 f0 00 00 00 00 	movl   $0x0,-0x10(%rbp)
   19829:	eb 77                	jmp    198a2 <main+0x7b4>
   1982b:	c7 45 f4 00 00 00 00 	movl   $0x0,-0xc(%rbp)
   19832:	eb 64                	jmp    19898 <main+0x7aa>
   19834:	8b 45 f4             	mov    -0xc(%rbp),%eax
   19837:	48 63 c8             	movslq %eax,%rcx
   1983a:	8b 45 f0             	mov    -0x10(%rbp),%eax
   1983d:	48 63 d0             	movslq %eax,%rdx
   19840:	48 89 d0             	mov    %rdx,%rax
   19843:	48 01 c0             	add    %rax,%rax
   19846:	48 01 d0             	add    %rdx,%rax
   19849:	48 01 c0             	add    %rax,%rax
   1984c:	48 01 c8             	add    %rcx,%rax
   1984f:	48 8d 14 85 00 00 00 	lea    0x0(,%rax,4),%rdx
   19856:	00 
   19857:	48 8d 05 02 08 00 00 	lea    0x802(%rip),%rax        # 1a060 <g_1118>
   1985e:	8b 04 02             	mov    (%rdx,%rax,1),%eax
   19861:	48 98                	cltq   
   19863:	8b 55 fc             	mov    -0x4(%rbp),%edx
   19866:	48 8d 35 60 27 00 00 	lea    0x2760(%rip),%rsi        # 1bfcd <g_1819+0x1eed>
   1986d:	48 89 c7             	mov    %rax,%rdi
   19870:	e8 7e 0e ff ff       	callq  a6f3 <transparent_crc>
   19875:	83 7d fc 00          	cmpl   $0x0,-0x4(%rbp)
   19879:	74 19                	je     19894 <main+0x7a6>
   1987b:	8b 55 f4             	mov    -0xc(%rbp),%edx
   1987e:	8b 45 f0             	mov    -0x10(%rbp),%eax
   19881:	89 c6                	mov    %eax,%esi
   19883:	48 8d 3d c3 26 00 00 	lea    0x26c3(%rip),%rdi        # 1bf4d <g_1819+0x1e6d>
   1988a:	b8 00 00 00 00       	mov    $0x0,%eax
   1988f:	e8 ec f7 fe ff       	callq  9080 <printf@plt>
   19894:	83 45 f4 01          	addl   $0x1,-0xc(%rbp)
   19898:	83 7d f4 05          	cmpl   $0x5,-0xc(%rbp)
   1989c:	7e 96                	jle    19834 <main+0x746>
   1989e:	83 45 f0 01          	addl   $0x1,-0x10(%rbp)
   198a2:	83 7d f0 04          	cmpl   $0x4,-0x10(%rbp)
   198a6:	7e 83                	jle    1982b <main+0x73d>
   198a8:	8b 05 72 5f 00 00    	mov    0x5f72(%rip),%eax        # 1f820 <g_1201>
   198ae:	48 98                	cltq   
   198b0:	8b 55 fc             	mov    -0x4(%rbp),%edx
   198b3:	48 8d 35 20 27 00 00 	lea    0x2720(%rip),%rsi        # 1bfda <g_1819+0x1efa>
   198ba:	48 89 c7             	mov    %rax,%rdi
   198bd:	e8 31 0e ff ff       	callq  a6f3 <transparent_crc>
   198c2:	48 8b 05 5f 5f 00 00 	mov    0x5f5f(%rip),%rax        # 1f828 <g_1247>
   198c9:	8b 55 fc             	mov    -0x4(%rbp),%edx
   198cc:	48 8d 35 0e 27 00 00 	lea    0x270e(%rip),%rsi        # 1bfe1 <g_1819+0x1f01>
   198d3:	48 89 c7             	mov    %rax,%rdi
   198d6:	e8 18 0e ff ff       	callq  a6f3 <transparent_crc>
   198db:	c7 45 f0 00 00 00 00 	movl   $0x0,-0x10(%rbp)
   198e2:	eb 6d                	jmp    19951 <main+0x863>
   198e4:	c7 45 f4 00 00 00 00 	movl   $0x0,-0xc(%rbp)
   198eb:	eb 5a                	jmp    19947 <main+0x859>
   198ed:	8b 45 f4             	mov    -0xc(%rbp),%eax
   198f0:	48 98                	cltq   
   198f2:	8b 55 f0             	mov    -0x10(%rbp),%edx
   198f5:	48 63 d2             	movslq %edx,%rdx
   198f8:	48 01 d2             	add    %rdx,%rdx
   198fb:	48 01 d0             	add    %rdx,%rax
   198fe:	48 8d 14 85 00 00 00 	lea    0x0(,%rax,4),%rdx
   19905:	00 
   19906:	48 8d 05 33 5f 00 00 	lea    0x5f33(%rip),%rax        # 1f840 <g_1464>
   1990d:	8b 04 02             	mov    (%rdx,%rax,1),%eax
   19910:	48 98                	cltq   
   19912:	8b 55 fc             	mov    -0x4(%rbp),%edx
   19915:	48 8d 35 cc 26 00 00 	lea    0x26cc(%rip),%rsi        # 1bfe8 <g_1819+0x1f08>
   1991c:	48 89 c7             	mov    %rax,%rdi
   1991f:	e8 cf 0d ff ff       	callq  a6f3 <transparent_crc>
   19924:	83 7d fc 00          	cmpl   $0x0,-0x4(%rbp)
   19928:	74 19                	je     19943 <main+0x855>
   1992a:	8b 55 f4             	mov    -0xc(%rbp),%edx
   1992d:	8b 45 f0             	mov    -0x10(%rbp),%eax
   19930:	89 c6                	mov    %eax,%esi
   19932:	48 8d 3d 14 26 00 00 	lea    0x2614(%rip),%rdi        # 1bf4d <g_1819+0x1e6d>
   19939:	b8 00 00 00 00       	mov    $0x0,%eax
   1993e:	e8 3d f7 fe ff       	callq  9080 <printf@plt>
   19943:	83 45 f4 01          	addl   $0x1,-0xc(%rbp)
   19947:	83 7d f4 01          	cmpl   $0x1,-0xc(%rbp)
   1994b:	7e a0                	jle    198ed <main+0x7ff>
   1994d:	83 45 f0 01          	addl   $0x1,-0x10(%rbp)
   19951:	83 7d f0 07          	cmpl   $0x7,-0x10(%rbp)
   19955:	7e 8d                	jle    198e4 <main+0x7f6>
   19957:	48 c7 c1 fb ff ff ff 	mov    $0xfffffffffffffffb,%rcx
   1995e:	8b 45 fc             	mov    -0x4(%rbp),%eax
   19961:	89 c2                	mov    %eax,%edx
   19963:	48 8d 35 8b 26 00 00 	lea    0x268b(%rip),%rsi        # 1bff5 <g_1819+0x1f15>
   1996a:	48 89 cf             	mov    %rcx,%rdi
   1996d:	e8 81 0d ff ff       	callq  a6f3 <transparent_crc>
   19972:	8b 05 08 99 00 00    	mov    0x9908(%rip),%eax        # 23280 <g_1568>
   19978:	48 98                	cltq   
   1997a:	8b 55 fc             	mov    -0x4(%rbp),%edx
   1997d:	48 8d 35 78 26 00 00 	lea    0x2678(%rip),%rsi        # 1bffc <g_1819+0x1f1c>
   19984:	48 89 c7             	mov    %rax,%rdi
   19987:	e8 67 0d ff ff       	callq  a6f3 <transparent_crc>
   1998c:	0f b6 05 ed 5e 00 00 	movzbl 0x5eed(%rip),%eax        # 1f880 <g_1678>
   19993:	0f b6 c0             	movzbl %al,%eax
   19996:	8b 55 fc             	mov    -0x4(%rbp),%edx
   19999:	48 8d 35 63 26 00 00 	lea    0x2663(%rip),%rsi        # 1c003 <g_1819+0x1f23>
   199a0:	48 89 c7             	mov    %rax,%rdi
   199a3:	e8 4b 0d ff ff       	callq  a6f3 <transparent_crc>
   199a8:	8b 05 d6 5e 00 00    	mov    0x5ed6(%rip),%eax        # 1f884 <g_1681>
   199ae:	89 c1                	mov    %eax,%ecx
   199b0:	8b 45 fc             	mov    -0x4(%rbp),%eax
   199b3:	89 c2                	mov    %eax,%edx
   199b5:	48 8d 35 4e 26 00 00 	lea    0x264e(%rip),%rsi        # 1c00a <g_1819+0x1f2a>
   199bc:	48 89 cf             	mov    %rcx,%rdi
   199bf:	e8 2f 0d ff ff       	callq  a6f3 <transparent_crc>
   199c4:	b8 43 94 ff ff       	mov    $0xffff9443,%eax
   199c9:	48 0f bf c0          	movswq %ax,%rax
   199cd:	8b 55 fc             	mov    -0x4(%rbp),%edx
   199d0:	48 8d 35 3a 26 00 00 	lea    0x263a(%rip),%rsi        # 1c011 <g_1819+0x1f31>
   199d7:	48 89 c7             	mov    %rax,%rdi
   199da:	e8 14 0d ff ff       	callq  a6f3 <transparent_crc>
   199df:	c7 45 f0 00 00 00 00 	movl   $0x0,-0x10(%rbp)
   199e6:	eb 74                	jmp    19a5c <main+0x96e>
   199e8:	c7 45 f4 00 00 00 00 	movl   $0x0,-0xc(%rbp)
   199ef:	eb 61                	jmp    19a52 <main+0x964>
   199f1:	8b 45 f4             	mov    -0xc(%rbp),%eax
   199f4:	48 63 c8             	movslq %eax,%rcx
   199f7:	8b 45 f0             	mov    -0x10(%rbp),%eax
   199fa:	48 63 d0             	movslq %eax,%rdx
   199fd:	48 89 d0             	mov    %rdx,%rax
   19a00:	48 01 c0             	add    %rax,%rax
   19a03:	48 01 d0             	add    %rdx,%rax
   19a06:	48 01 c8             	add    %rcx,%rax
   19a09:	48 8d 14 85 00 00 00 	lea    0x0(,%rax,4),%rdx
   19a10:	00 
   19a11:	48 8d 05 88 5e 00 00 	lea    0x5e88(%rip),%rax        # 1f8a0 <g_1964>
   19a18:	8b 04 02             	mov    (%rdx,%rax,1),%eax
   19a1b:	48 98                	cltq   
   19a1d:	8b 55 fc             	mov    -0x4(%rbp),%edx
   19a20:	48 8d 35 f1 25 00 00 	lea    0x25f1(%rip),%rsi        # 1c018 <g_1819+0x1f38>
   19a27:	48 89 c7             	mov    %rax,%rdi
   19a2a:	e8 c4 0c ff ff       	callq  a6f3 <transparent_crc>
   19a2f:	83 7d fc 00          	cmpl   $0x0,-0x4(%rbp)
   19a33:	74 19                	je     19a4e <main+0x960>
   19a35:	8b 55 f4             	mov    -0xc(%rbp),%edx
   19a38:	8b 45 f0             	mov    -0x10(%rbp),%eax
   19a3b:	89 c6                	mov    %eax,%esi
   19a3d:	48 8d 3d 09 25 00 00 	lea    0x2509(%rip),%rdi        # 1bf4d <g_1819+0x1e6d>
   19a44:	b8 00 00 00 00       	mov    $0x0,%eax
   19a49:	e8 32 f6 fe ff       	callq  9080 <printf@plt>
   19a4e:	83 45 f4 01          	addl   $0x1,-0xc(%rbp)
   19a52:	83 7d f4 02          	cmpl   $0x2,-0xc(%rbp)
   19a56:	7e 99                	jle    199f1 <main+0x903>
   19a58:	83 45 f0 01          	addl   $0x1,-0x10(%rbp)
   19a5c:	83 7d f0 02          	cmpl   $0x2,-0x10(%rbp)
   19a60:	7e 86                	jle    199e8 <main+0x8fa>
   19a62:	48 8b 05 47 98 00 00 	mov    0x9847(%rip),%rax        # 232b0 <g_2057>
   19a69:	8b 55 fc             	mov    -0x4(%rbp),%edx
   19a6c:	48 8d 35 b2 25 00 00 	lea    0x25b2(%rip),%rsi        # 1c025 <g_1819+0x1f45>
   19a73:	48 89 c7             	mov    %rax,%rdi
   19a76:	e8 78 0c ff ff       	callq  a6f3 <transparent_crc>
   19a7b:	8b 05 9f 55 00 00    	mov    0x559f(%rip),%eax        # 1f020 <crc32_context>
   19a81:	f7 d0                	not    %eax
   19a83:	89 c2                	mov    %eax,%edx
   19a85:	8b 45 fc             	mov    -0x4(%rbp),%eax
   19a88:	89 c6                	mov    %eax,%esi
   19a8a:	89 d7                	mov    %edx,%edi
   19a8c:	e8 03 f7 fe ff       	callq  9194 <platform_main_end>
   19a91:	b8 00 00 00 00       	mov    $0x0,%eax
   19a96:	c9                   	leaveq 
   19a97:	c3                   	retq   
   19a98:	0f 1f 84 00 00 00 00 	nopl   0x0(%rax,%rax,1)
   19a9f:	00 

0000000000019aa0 <__libc_csu_init>:
   19aa0:	f3 0f 1e fa          	endbr64 
   19aa4:	41 57                	push   %r15
   19aa6:	4c 8d 3d 63 51 00 00 	lea    0x5163(%rip),%r15        # 1ec10 <__frame_dummy_init_array_entry>
   19aad:	41 56                	push   %r14
   19aaf:	49 89 d6             	mov    %rdx,%r14
   19ab2:	41 55                	push   %r13
   19ab4:	49 89 f5             	mov    %rsi,%r13
   19ab7:	41 54                	push   %r12
   19ab9:	41 89 fc             	mov    %edi,%r12d
   19abc:	55                   	push   %rbp
   19abd:	48 8d 2d 54 51 00 00 	lea    0x5154(%rip),%rbp        # 1ec18 <__do_global_dtors_aux_fini_array_entry>
   19ac4:	53                   	push   %rbx
   19ac5:	4c 29 fd             	sub    %r15,%rbp
   19ac8:	48 83 ec 08          	sub    $0x8,%rsp
   19acc:	e8 2f f5 fe ff       	callq  9000 <_init>
   19ad1:	48 c1 fd 03          	sar    $0x3,%rbp
   19ad5:	74 1f                	je     19af6 <__libc_csu_init+0x56>
   19ad7:	31 db                	xor    %ebx,%ebx
   19ad9:	0f 1f 80 00 00 00 00 	nopl   0x0(%rax)
   19ae0:	4c 89 f2             	mov    %r14,%rdx
   19ae3:	4c 89 ee             	mov    %r13,%rsi
   19ae6:	44 89 e7             	mov    %r12d,%edi
   19ae9:	41 ff 14 df          	callq  *(%r15,%rbx,8)
   19aed:	48 83 c3 01          	add    $0x1,%rbx
   19af1:	48 39 dd             	cmp    %rbx,%rbp
   19af4:	75 ea                	jne    19ae0 <__libc_csu_init+0x40>
   19af6:	48 83 c4 08          	add    $0x8,%rsp
   19afa:	5b                   	pop    %rbx
   19afb:	5d                   	pop    %rbp
   19afc:	41 5c                	pop    %r12
   19afe:	41 5d                	pop    %r13
   19b00:	41 5e                	pop    %r14
   19b02:	41 5f                	pop    %r15
   19b04:	c3                   	retq   
   19b05:	66 66 2e 0f 1f 84 00 	data16 nopw %cs:0x0(%rax,%rax,1)
   19b0c:	00 00 00 00 

0000000000019b10 <__libc_csu_fini>:
   19b10:	f3 0f 1e fa          	endbr64 
   19b14:	c3                   	retq   
