


Disassembly of section .text:

00000000000030a0 <_start>:
    30a0:	f3 0f 1e fa          	endbr64 
    30a4:	31 ed                	xor    %ebp,%ebp
    30a6:	49 89 d1             	mov    %rdx,%r9
    30a9:	5e                   	pop    %rsi
    30aa:	48 89 e2             	mov    %rsp,%rdx
    30ad:	48 83 e4 f0          	and    $0xfffffffffffffff0,%rsp
    30b1:	50                   	push   %rax
    30b2:	54                   	push   %rsp
    30b3:	4c 8d 05 d6 94 00 00 	lea    0x94d6(%rip),%r8        # c590 <__libc_csu_fini>
    30ba:	48 8d 0d 5f 94 00 00 	lea    0x945f(%rip),%rcx        # c520 <__libc_csu_init>
    30c1:	48 8d 3d 35 88 00 00 	lea    0x8835(%rip),%rdi        # b8fd <main>
    30c8:	ff 15 12 cf 00 00    	callq  *0xcf12(%rip)        # ffe0 <__libc_start_main@GLIBC_2.2.5>
    30ce:	f4                   	hlt    
    30cf:	90                   	nop

00000000000030d0 <deregister_tm_clones>:
    30d0:	48 8d 3d 39 dc 00 00 	lea    0xdc39(%rip),%rdi        # 10d10 <__TMC_END__>
    30d7:	48 8d 05 32 dc 00 00 	lea    0xdc32(%rip),%rax        # 10d10 <__TMC_END__>
    30de:	48 39 f8             	cmp    %rdi,%rax
    30e1:	74 15                	je     30f8 <deregister_tm_clones+0x28>
    30e3:	48 8b 05 ee ce 00 00 	mov    0xceee(%rip),%rax        # ffd8 <_ITM_deregisterTMCloneTable>
    30ea:	48 85 c0             	test   %rax,%rax
    30ed:	74 09                	je     30f8 <deregister_tm_clones+0x28>
    30ef:	ff e0                	jmpq   *%rax
    30f1:	0f 1f 80 00 00 00 00 	nopl   0x0(%rax)
    30f8:	c3                   	retq   
    30f9:	0f 1f 80 00 00 00 00 	nopl   0x0(%rax)

0000000000003100 <register_tm_clones>:
    3100:	48 8d 3d 09 dc 00 00 	lea    0xdc09(%rip),%rdi        # 10d10 <__TMC_END__>
    3107:	48 8d 35 02 dc 00 00 	lea    0xdc02(%rip),%rsi        # 10d10 <__TMC_END__>
    310e:	48 29 fe             	sub    %rdi,%rsi
    3111:	48 89 f0             	mov    %rsi,%rax
    3114:	48 c1 ee 3f          	shr    $0x3f,%rsi
    3118:	48 c1 f8 03          	sar    $0x3,%rax
    311c:	48 01 c6             	add    %rax,%rsi
    311f:	48 d1 fe             	sar    %rsi
    3122:	74 14                	je     3138 <register_tm_clones+0x38>
    3124:	48 8b 05 c5 ce 00 00 	mov    0xcec5(%rip),%rax        # fff0 <_ITM_registerTMCloneTable>
    312b:	48 85 c0             	test   %rax,%rax
    312e:	74 08                	je     3138 <register_tm_clones+0x38>
    3130:	ff e0                	jmpq   *%rax
    3132:	66 0f 1f 44 00 00    	nopw   0x0(%rax,%rax,1)
    3138:	c3                   	retq   
    3139:	0f 1f 80 00 00 00 00 	nopl   0x0(%rax)

0000000000003140 <__do_global_dtors_aux>:
    3140:	f3 0f 1e fa          	endbr64 
    3144:	80 3d d5 db 00 00 00 	cmpb   $0x0,0xdbd5(%rip)        # 10d20 <completed.8061>
    314b:	75 2b                	jne    3178 <__do_global_dtors_aux+0x38>
    314d:	55                   	push   %rbp
    314e:	48 83 3d a2 ce 00 00 	cmpq   $0x0,0xcea2(%rip)        # fff8 <__cxa_finalize@GLIBC_2.2.5>
    3155:	00 
    3156:	48 89 e5             	mov    %rsp,%rbp
    3159:	74 0c                	je     3167 <__do_global_dtors_aux+0x27>
    315b:	48 8b 3d a6 ce 00 00 	mov    0xcea6(%rip),%rdi        # 10008 <__dso_handle>
    3162:	e8 f9 fe ff ff       	callq  3060 <__cxa_finalize@plt>
    3167:	e8 64 ff ff ff       	callq  30d0 <deregister_tm_clones>
    316c:	c6 05 ad db 00 00 01 	movb   $0x1,0xdbad(%rip)        # 10d20 <completed.8061>
    3173:	5d                   	pop    %rbp
    3174:	c3                   	retq   
    3175:	0f 1f 00             	nopl   (%rax)
    3178:	c3                   	retq   
    3179:	0f 1f 80 00 00 00 00 	nopl   0x0(%rax)

0000000000003180 <frame_dummy>:
    3180:	f3 0f 1e fa          	endbr64 
    3184:	e9 77 ff ff ff       	jmpq   3100 <register_tm_clones>

0000000000003189 <platform_main_begin>:
    3189:	f3 0f 1e fa          	endbr64 
    318d:	55                   	push   %rbp
    318e:	48 89 e5             	mov    %rsp,%rbp
    3191:	90                   	nop
    3192:	5d                   	pop    %rbp
    3193:	c3                   	retq   

0000000000003194 <platform_main_end>:
    3194:	f3 0f 1e fa          	endbr64 
    3198:	55                   	push   %rbp
    3199:	48 89 e5             	mov    %rsp,%rbp
    319c:	48 83 ec 10          	sub    $0x10,%rsp
    31a0:	89 7d fc             	mov    %edi,-0x4(%rbp)
    31a3:	89 75 f8             	mov    %esi,-0x8(%rbp)
    31a6:	8b 45 fc             	mov    -0x4(%rbp),%eax
    31a9:	89 c6                	mov    %eax,%esi
    31ab:	48 8d 3d 6e 9e 00 00 	lea    0x9e6e(%rip),%rdi        # d020 <_IO_stdin_used+0x20>
    31b2:	b8 00 00 00 00       	mov    $0x0,%eax
    31b7:	e8 c4 fe ff ff       	callq  3080 <printf@plt>
    31bc:	90                   	nop
    31bd:	c9                   	leaveq 
    31be:	c3                   	retq   

00000000000031bf <safe_unary_minus_func_int8_t_s>:
    31bf:	f3 0f 1e fa          	endbr64 
    31c3:	55                   	push   %rbp
    31c4:	48 89 e5             	mov    %rsp,%rbp
    31c7:	89 f8                	mov    %edi,%eax
    31c9:	88 45 fc             	mov    %al,-0x4(%rbp)
    31cc:	0f b6 45 fc          	movzbl -0x4(%rbp),%eax
    31d0:	f7 d8                	neg    %eax
    31d2:	5d                   	pop    %rbp
    31d3:	c3                   	retq   

00000000000031d4 <safe_add_func_int8_t_s_s>:
    31d4:	f3 0f 1e fa          	endbr64 
    31d8:	55                   	push   %rbp
    31d9:	48 89 e5             	mov    %rsp,%rbp
    31dc:	89 fa                	mov    %edi,%edx
    31de:	89 f0                	mov    %esi,%eax
    31e0:	88 55 fc             	mov    %dl,-0x4(%rbp)
    31e3:	88 45 f8             	mov    %al,-0x8(%rbp)
    31e6:	0f b6 55 fc          	movzbl -0x4(%rbp),%edx
    31ea:	0f b6 45 f8          	movzbl -0x8(%rbp),%eax
    31ee:	01 d0                	add    %edx,%eax
    31f0:	5d                   	pop    %rbp
    31f1:	c3                   	retq   

00000000000031f2 <safe_sub_func_int8_t_s_s>:
    31f2:	f3 0f 1e fa          	endbr64 
    31f6:	55                   	push   %rbp
    31f7:	48 89 e5             	mov    %rsp,%rbp
    31fa:	89 fa                	mov    %edi,%edx
    31fc:	89 f0                	mov    %esi,%eax
    31fe:	88 55 fc             	mov    %dl,-0x4(%rbp)
    3201:	88 45 f8             	mov    %al,-0x8(%rbp)
    3204:	0f b6 55 fc          	movzbl -0x4(%rbp),%edx
    3208:	0f b6 45 f8          	movzbl -0x8(%rbp),%eax
    320c:	29 c2                	sub    %eax,%edx
    320e:	89 d0                	mov    %edx,%eax
    3210:	5d                   	pop    %rbp
    3211:	c3                   	retq   

0000000000003212 <safe_mul_func_int8_t_s_s>:
    3212:	f3 0f 1e fa          	endbr64 
    3216:	55                   	push   %rbp
    3217:	48 89 e5             	mov    %rsp,%rbp
    321a:	89 fa                	mov    %edi,%edx
    321c:	89 f0                	mov    %esi,%eax
    321e:	88 55 fc             	mov    %dl,-0x4(%rbp)
    3221:	88 45 f8             	mov    %al,-0x8(%rbp)
    3224:	0f b6 45 fc          	movzbl -0x4(%rbp),%eax
    3228:	0f b6 55 f8          	movzbl -0x8(%rbp),%edx
    322c:	0f af c2             	imul   %edx,%eax
    322f:	5d                   	pop    %rbp
    3230:	c3                   	retq   

0000000000003231 <safe_mod_func_int8_t_s_s>:
    3231:	f3 0f 1e fa          	endbr64 
    3235:	55                   	push   %rbp
    3236:	48 89 e5             	mov    %rsp,%rbp
    3239:	89 fa                	mov    %edi,%edx
    323b:	89 f0                	mov    %esi,%eax
    323d:	88 55 fc             	mov    %dl,-0x4(%rbp)
    3240:	88 45 f8             	mov    %al,-0x8(%rbp)
    3243:	80 7d f8 00          	cmpb   $0x0,-0x8(%rbp)
    3247:	74 1b                	je     3264 <safe_mod_func_int8_t_s_s+0x33>
    3249:	80 7d fc 80          	cmpb   $0x80,-0x4(%rbp)
    324d:	75 06                	jne    3255 <safe_mod_func_int8_t_s_s+0x24>
    324f:	80 7d f8 ff          	cmpb   $0xff,-0x8(%rbp)
    3253:	74 0f                	je     3264 <safe_mod_func_int8_t_s_s+0x33>
    3255:	0f be 45 fc          	movsbl -0x4(%rbp),%eax
    3259:	0f be 4d f8          	movsbl -0x8(%rbp),%ecx
    325d:	99                   	cltd   
    325e:	f7 f9                	idiv   %ecx
    3260:	89 d0                	mov    %edx,%eax
    3262:	eb 04                	jmp    3268 <safe_mod_func_int8_t_s_s+0x37>
    3264:	0f b6 45 fc          	movzbl -0x4(%rbp),%eax
    3268:	5d                   	pop    %rbp
    3269:	c3                   	retq   

000000000000326a <safe_div_func_int8_t_s_s>:
    326a:	f3 0f 1e fa          	endbr64 
    326e:	55                   	push   %rbp
    326f:	48 89 e5             	mov    %rsp,%rbp
    3272:	89 fa                	mov    %edi,%edx
    3274:	89 f0                	mov    %esi,%eax
    3276:	88 55 fc             	mov    %dl,-0x4(%rbp)
    3279:	88 45 f8             	mov    %al,-0x8(%rbp)
    327c:	80 7d f8 00          	cmpb   $0x0,-0x8(%rbp)
    3280:	74 19                	je     329b <safe_div_func_int8_t_s_s+0x31>
    3282:	80 7d fc 80          	cmpb   $0x80,-0x4(%rbp)
    3286:	75 06                	jne    328e <safe_div_func_int8_t_s_s+0x24>
    3288:	80 7d f8 ff          	cmpb   $0xff,-0x8(%rbp)
    328c:	74 0d                	je     329b <safe_div_func_int8_t_s_s+0x31>
    328e:	0f be 45 fc          	movsbl -0x4(%rbp),%eax
    3292:	0f be 4d f8          	movsbl -0x8(%rbp),%ecx
    3296:	99                   	cltd   
    3297:	f7 f9                	idiv   %ecx
    3299:	eb 04                	jmp    329f <safe_div_func_int8_t_s_s+0x35>
    329b:	0f b6 45 fc          	movzbl -0x4(%rbp),%eax
    329f:	5d                   	pop    %rbp
    32a0:	c3                   	retq   

00000000000032a1 <safe_lshift_func_int8_t_s_s>:
    32a1:	f3 0f 1e fa          	endbr64 
    32a5:	55                   	push   %rbp
    32a6:	48 89 e5             	mov    %rsp,%rbp
    32a9:	89 f8                	mov    %edi,%eax
    32ab:	89 75 f8             	mov    %esi,-0x8(%rbp)
    32ae:	88 45 fc             	mov    %al,-0x4(%rbp)
    32b1:	80 7d fc 00          	cmpb   $0x0,-0x4(%rbp)
    32b5:	78 31                	js     32e8 <safe_lshift_func_int8_t_s_s+0x47>
    32b7:	83 7d f8 00          	cmpl   $0x0,-0x8(%rbp)
    32bb:	78 2b                	js     32e8 <safe_lshift_func_int8_t_s_s+0x47>
    32bd:	83 7d f8 1f          	cmpl   $0x1f,-0x8(%rbp)
    32c1:	7f 25                	jg     32e8 <safe_lshift_func_int8_t_s_s+0x47>
    32c3:	0f be 55 fc          	movsbl -0x4(%rbp),%edx
    32c7:	8b 45 f8             	mov    -0x8(%rbp),%eax
    32ca:	be 7f 00 00 00       	mov    $0x7f,%esi
    32cf:	89 c1                	mov    %eax,%ecx
    32d1:	d3 fe                	sar    %cl,%esi
    32d3:	89 f0                	mov    %esi,%eax
    32d5:	39 c2                	cmp    %eax,%edx
    32d7:	7f 0f                	jg     32e8 <safe_lshift_func_int8_t_s_s+0x47>
    32d9:	0f be 55 fc          	movsbl -0x4(%rbp),%edx
    32dd:	8b 45 f8             	mov    -0x8(%rbp),%eax
    32e0:	89 c1                	mov    %eax,%ecx
    32e2:	d3 e2                	shl    %cl,%edx
    32e4:	89 d0                	mov    %edx,%eax
    32e6:	eb 04                	jmp    32ec <safe_lshift_func_int8_t_s_s+0x4b>
    32e8:	0f b6 45 fc          	movzbl -0x4(%rbp),%eax
    32ec:	5d                   	pop    %rbp
    32ed:	c3                   	retq   

00000000000032ee <safe_lshift_func_int8_t_s_u>:
    32ee:	f3 0f 1e fa          	endbr64 
    32f2:	55                   	push   %rbp
    32f3:	48 89 e5             	mov    %rsp,%rbp
    32f6:	89 f8                	mov    %edi,%eax
    32f8:	89 75 f8             	mov    %esi,-0x8(%rbp)
    32fb:	88 45 fc             	mov    %al,-0x4(%rbp)
    32fe:	80 7d fc 00          	cmpb   $0x0,-0x4(%rbp)
    3302:	78 2b                	js     332f <safe_lshift_func_int8_t_s_u+0x41>
    3304:	83 7d f8 1f          	cmpl   $0x1f,-0x8(%rbp)
    3308:	77 25                	ja     332f <safe_lshift_func_int8_t_s_u+0x41>
    330a:	0f be 55 fc          	movsbl -0x4(%rbp),%edx
    330e:	8b 45 f8             	mov    -0x8(%rbp),%eax
    3311:	be 7f 00 00 00       	mov    $0x7f,%esi
    3316:	89 c1                	mov    %eax,%ecx
    3318:	d3 fe                	sar    %cl,%esi
    331a:	89 f0                	mov    %esi,%eax
    331c:	39 c2                	cmp    %eax,%edx
    331e:	7f 0f                	jg     332f <safe_lshift_func_int8_t_s_u+0x41>
    3320:	0f be 55 fc          	movsbl -0x4(%rbp),%edx
    3324:	8b 45 f8             	mov    -0x8(%rbp),%eax
    3327:	89 c1                	mov    %eax,%ecx
    3329:	d3 e2                	shl    %cl,%edx
    332b:	89 d0                	mov    %edx,%eax
    332d:	eb 04                	jmp    3333 <safe_lshift_func_int8_t_s_u+0x45>
    332f:	0f b6 45 fc          	movzbl -0x4(%rbp),%eax
    3333:	5d                   	pop    %rbp
    3334:	c3                   	retq   

0000000000003335 <safe_rshift_func_int8_t_s_s>:
    3335:	f3 0f 1e fa          	endbr64 
    3339:	55                   	push   %rbp
    333a:	48 89 e5             	mov    %rsp,%rbp
    333d:	89 f8                	mov    %edi,%eax
    333f:	89 75 f8             	mov    %esi,-0x8(%rbp)
    3342:	88 45 fc             	mov    %al,-0x4(%rbp)
    3345:	80 7d fc 00          	cmpb   $0x0,-0x4(%rbp)
    3349:	78 1b                	js     3366 <safe_rshift_func_int8_t_s_s+0x31>
    334b:	83 7d f8 00          	cmpl   $0x0,-0x8(%rbp)
    334f:	78 15                	js     3366 <safe_rshift_func_int8_t_s_s+0x31>
    3351:	83 7d f8 1f          	cmpl   $0x1f,-0x8(%rbp)
    3355:	7f 0f                	jg     3366 <safe_rshift_func_int8_t_s_s+0x31>
    3357:	0f be 55 fc          	movsbl -0x4(%rbp),%edx
    335b:	8b 45 f8             	mov    -0x8(%rbp),%eax
    335e:	89 c1                	mov    %eax,%ecx
    3360:	d3 fa                	sar    %cl,%edx
    3362:	89 d0                	mov    %edx,%eax
    3364:	eb 04                	jmp    336a <safe_rshift_func_int8_t_s_s+0x35>
    3366:	0f b6 45 fc          	movzbl -0x4(%rbp),%eax
    336a:	5d                   	pop    %rbp
    336b:	c3                   	retq   

000000000000336c <safe_rshift_func_int8_t_s_u>:
    336c:	f3 0f 1e fa          	endbr64 
    3370:	55                   	push   %rbp
    3371:	48 89 e5             	mov    %rsp,%rbp
    3374:	89 f8                	mov    %edi,%eax
    3376:	89 75 f8             	mov    %esi,-0x8(%rbp)
    3379:	88 45 fc             	mov    %al,-0x4(%rbp)
    337c:	80 7d fc 00          	cmpb   $0x0,-0x4(%rbp)
    3380:	78 15                	js     3397 <safe_rshift_func_int8_t_s_u+0x2b>
    3382:	83 7d f8 1f          	cmpl   $0x1f,-0x8(%rbp)
    3386:	77 0f                	ja     3397 <safe_rshift_func_int8_t_s_u+0x2b>
    3388:	0f be 55 fc          	movsbl -0x4(%rbp),%edx
    338c:	8b 45 f8             	mov    -0x8(%rbp),%eax
    338f:	89 c1                	mov    %eax,%ecx
    3391:	d3 fa                	sar    %cl,%edx
    3393:	89 d0                	mov    %edx,%eax
    3395:	eb 04                	jmp    339b <safe_rshift_func_int8_t_s_u+0x2f>
    3397:	0f b6 45 fc          	movzbl -0x4(%rbp),%eax
    339b:	5d                   	pop    %rbp
    339c:	c3                   	retq   

000000000000339d <safe_unary_minus_func_int16_t_s>:
    339d:	f3 0f 1e fa          	endbr64 
    33a1:	55                   	push   %rbp
    33a2:	48 89 e5             	mov    %rsp,%rbp
    33a5:	89 f8                	mov    %edi,%eax
    33a7:	66 89 45 fc          	mov    %ax,-0x4(%rbp)
    33ab:	0f b7 45 fc          	movzwl -0x4(%rbp),%eax
    33af:	f7 d8                	neg    %eax
    33b1:	5d                   	pop    %rbp
    33b2:	c3                   	retq   

00000000000033b3 <safe_add_func_int16_t_s_s>:
    33b3:	f3 0f 1e fa          	endbr64 
    33b7:	55                   	push   %rbp
    33b8:	48 89 e5             	mov    %rsp,%rbp
    33bb:	89 fa                	mov    %edi,%edx
    33bd:	89 f0                	mov    %esi,%eax
    33bf:	66 89 55 fc          	mov    %dx,-0x4(%rbp)
    33c3:	66 89 45 f8          	mov    %ax,-0x8(%rbp)
    33c7:	0f b7 55 fc          	movzwl -0x4(%rbp),%edx
    33cb:	0f b7 45 f8          	movzwl -0x8(%rbp),%eax
    33cf:	01 d0                	add    %edx,%eax
    33d1:	5d                   	pop    %rbp
    33d2:	c3                   	retq   

00000000000033d3 <safe_sub_func_int16_t_s_s>:
    33d3:	f3 0f 1e fa          	endbr64 
    33d7:	55                   	push   %rbp
    33d8:	48 89 e5             	mov    %rsp,%rbp
    33db:	89 fa                	mov    %edi,%edx
    33dd:	89 f0                	mov    %esi,%eax
    33df:	66 89 55 fc          	mov    %dx,-0x4(%rbp)
    33e3:	66 89 45 f8          	mov    %ax,-0x8(%rbp)
    33e7:	0f b7 55 fc          	movzwl -0x4(%rbp),%edx
    33eb:	0f b7 45 f8          	movzwl -0x8(%rbp),%eax
    33ef:	29 c2                	sub    %eax,%edx
    33f1:	89 d0                	mov    %edx,%eax
    33f3:	5d                   	pop    %rbp
    33f4:	c3                   	retq   

00000000000033f5 <safe_mul_func_int16_t_s_s>:
    33f5:	f3 0f 1e fa          	endbr64 
    33f9:	55                   	push   %rbp
    33fa:	48 89 e5             	mov    %rsp,%rbp
    33fd:	89 fa                	mov    %edi,%edx
    33ff:	89 f0                	mov    %esi,%eax
    3401:	66 89 55 fc          	mov    %dx,-0x4(%rbp)
    3405:	66 89 45 f8          	mov    %ax,-0x8(%rbp)
    3409:	0f b7 55 fc          	movzwl -0x4(%rbp),%edx
    340d:	0f b7 45 f8          	movzwl -0x8(%rbp),%eax
    3411:	0f af c2             	imul   %edx,%eax
    3414:	5d                   	pop    %rbp
    3415:	c3                   	retq   

0000000000003416 <safe_mod_func_int16_t_s_s>:
    3416:	f3 0f 1e fa          	endbr64 
    341a:	55                   	push   %rbp
    341b:	48 89 e5             	mov    %rsp,%rbp
    341e:	89 fa                	mov    %edi,%edx
    3420:	89 f0                	mov    %esi,%eax
    3422:	66 89 55 fc          	mov    %dx,-0x4(%rbp)
    3426:	66 89 45 f8          	mov    %ax,-0x8(%rbp)
    342a:	66 83 7d f8 00       	cmpw   $0x0,-0x8(%rbp)
    342f:	74 1e                	je     344f <safe_mod_func_int16_t_s_s+0x39>
    3431:	66 81 7d fc 00 80    	cmpw   $0x8000,-0x4(%rbp)
    3437:	75 07                	jne    3440 <safe_mod_func_int16_t_s_s+0x2a>
    3439:	66 83 7d f8 ff       	cmpw   $0xffff,-0x8(%rbp)
    343e:	74 0f                	je     344f <safe_mod_func_int16_t_s_s+0x39>
    3440:	0f bf 45 fc          	movswl -0x4(%rbp),%eax
    3444:	0f bf 4d f8          	movswl -0x8(%rbp),%ecx
    3448:	99                   	cltd   
    3449:	f7 f9                	idiv   %ecx
    344b:	89 d0                	mov    %edx,%eax
    344d:	eb 04                	jmp    3453 <safe_mod_func_int16_t_s_s+0x3d>
    344f:	0f b7 45 fc          	movzwl -0x4(%rbp),%eax
    3453:	5d                   	pop    %rbp
    3454:	c3                   	retq   

0000000000003455 <safe_div_func_int16_t_s_s>:
    3455:	f3 0f 1e fa          	endbr64 
    3459:	55                   	push   %rbp
    345a:	48 89 e5             	mov    %rsp,%rbp
    345d:	89 fa                	mov    %edi,%edx
    345f:	89 f0                	mov    %esi,%eax
    3461:	66 89 55 fc          	mov    %dx,-0x4(%rbp)
    3465:	66 89 45 f8          	mov    %ax,-0x8(%rbp)
    3469:	66 83 7d f8 00       	cmpw   $0x0,-0x8(%rbp)
    346e:	74 1c                	je     348c <safe_div_func_int16_t_s_s+0x37>
    3470:	66 81 7d fc 00 80    	cmpw   $0x8000,-0x4(%rbp)
    3476:	75 07                	jne    347f <safe_div_func_int16_t_s_s+0x2a>
    3478:	66 83 7d f8 ff       	cmpw   $0xffff,-0x8(%rbp)
    347d:	74 0d                	je     348c <safe_div_func_int16_t_s_s+0x37>
    347f:	0f bf 45 fc          	movswl -0x4(%rbp),%eax
    3483:	0f bf 4d f8          	movswl -0x8(%rbp),%ecx
    3487:	99                   	cltd   
    3488:	f7 f9                	idiv   %ecx
    348a:	eb 04                	jmp    3490 <safe_div_func_int16_t_s_s+0x3b>
    348c:	0f b7 45 fc          	movzwl -0x4(%rbp),%eax
    3490:	5d                   	pop    %rbp
    3491:	c3                   	retq   

0000000000003492 <safe_lshift_func_int16_t_s_s>:
    3492:	f3 0f 1e fa          	endbr64 
    3496:	55                   	push   %rbp
    3497:	48 89 e5             	mov    %rsp,%rbp
    349a:	89 f8                	mov    %edi,%eax
    349c:	89 75 f8             	mov    %esi,-0x8(%rbp)
    349f:	66 89 45 fc          	mov    %ax,-0x4(%rbp)
    34a3:	66 83 7d fc 00       	cmpw   $0x0,-0x4(%rbp)
    34a8:	78 31                	js     34db <safe_lshift_func_int16_t_s_s+0x49>
    34aa:	83 7d f8 00          	cmpl   $0x0,-0x8(%rbp)
    34ae:	78 2b                	js     34db <safe_lshift_func_int16_t_s_s+0x49>
    34b0:	83 7d f8 1f          	cmpl   $0x1f,-0x8(%rbp)
    34b4:	7f 25                	jg     34db <safe_lshift_func_int16_t_s_s+0x49>
    34b6:	0f bf 55 fc          	movswl -0x4(%rbp),%edx
    34ba:	8b 45 f8             	mov    -0x8(%rbp),%eax
    34bd:	be ff 7f 00 00       	mov    $0x7fff,%esi
    34c2:	89 c1                	mov    %eax,%ecx
    34c4:	d3 fe                	sar    %cl,%esi
    34c6:	89 f0                	mov    %esi,%eax
    34c8:	39 c2                	cmp    %eax,%edx
    34ca:	7f 0f                	jg     34db <safe_lshift_func_int16_t_s_s+0x49>
    34cc:	0f bf 55 fc          	movswl -0x4(%rbp),%edx
    34d0:	8b 45 f8             	mov    -0x8(%rbp),%eax
    34d3:	89 c1                	mov    %eax,%ecx
    34d5:	d3 e2                	shl    %cl,%edx
    34d7:	89 d0                	mov    %edx,%eax
    34d9:	eb 04                	jmp    34df <safe_lshift_func_int16_t_s_s+0x4d>
    34db:	0f b7 45 fc          	movzwl -0x4(%rbp),%eax
    34df:	5d                   	pop    %rbp
    34e0:	c3                   	retq   

00000000000034e1 <safe_lshift_func_int16_t_s_u>:
    34e1:	f3 0f 1e fa          	endbr64 
    34e5:	55                   	push   %rbp
    34e6:	48 89 e5             	mov    %rsp,%rbp
    34e9:	89 f8                	mov    %edi,%eax
    34eb:	89 75 f8             	mov    %esi,-0x8(%rbp)
    34ee:	66 89 45 fc          	mov    %ax,-0x4(%rbp)
    34f2:	66 83 7d fc 00       	cmpw   $0x0,-0x4(%rbp)
    34f7:	78 2b                	js     3524 <safe_lshift_func_int16_t_s_u+0x43>
    34f9:	83 7d f8 1f          	cmpl   $0x1f,-0x8(%rbp)
    34fd:	77 25                	ja     3524 <safe_lshift_func_int16_t_s_u+0x43>
    34ff:	0f bf 55 fc          	movswl -0x4(%rbp),%edx
    3503:	8b 45 f8             	mov    -0x8(%rbp),%eax
    3506:	be ff 7f 00 00       	mov    $0x7fff,%esi
    350b:	89 c1                	mov    %eax,%ecx
    350d:	d3 fe                	sar    %cl,%esi
    350f:	89 f0                	mov    %esi,%eax
    3511:	39 c2                	cmp    %eax,%edx
    3513:	7f 0f                	jg     3524 <safe_lshift_func_int16_t_s_u+0x43>
    3515:	0f bf 55 fc          	movswl -0x4(%rbp),%edx
    3519:	8b 45 f8             	mov    -0x8(%rbp),%eax
    351c:	89 c1                	mov    %eax,%ecx
    351e:	d3 e2                	shl    %cl,%edx
    3520:	89 d0                	mov    %edx,%eax
    3522:	eb 04                	jmp    3528 <safe_lshift_func_int16_t_s_u+0x47>
    3524:	0f b7 45 fc          	movzwl -0x4(%rbp),%eax
    3528:	5d                   	pop    %rbp
    3529:	c3                   	retq   

000000000000352a <safe_rshift_func_int16_t_s_s>:
    352a:	f3 0f 1e fa          	endbr64 
    352e:	55                   	push   %rbp
    352f:	48 89 e5             	mov    %rsp,%rbp
    3532:	89 f8                	mov    %edi,%eax
    3534:	89 75 f8             	mov    %esi,-0x8(%rbp)
    3537:	66 89 45 fc          	mov    %ax,-0x4(%rbp)
    353b:	66 83 7d fc 00       	cmpw   $0x0,-0x4(%rbp)
    3540:	78 1b                	js     355d <safe_rshift_func_int16_t_s_s+0x33>
    3542:	83 7d f8 00          	cmpl   $0x0,-0x8(%rbp)
    3546:	78 15                	js     355d <safe_rshift_func_int16_t_s_s+0x33>
    3548:	83 7d f8 1f          	cmpl   $0x1f,-0x8(%rbp)
    354c:	7f 0f                	jg     355d <safe_rshift_func_int16_t_s_s+0x33>
    354e:	0f bf 55 fc          	movswl -0x4(%rbp),%edx
    3552:	8b 45 f8             	mov    -0x8(%rbp),%eax
    3555:	89 c1                	mov    %eax,%ecx
    3557:	d3 fa                	sar    %cl,%edx
    3559:	89 d0                	mov    %edx,%eax
    355b:	eb 04                	jmp    3561 <safe_rshift_func_int16_t_s_s+0x37>
    355d:	0f b7 45 fc          	movzwl -0x4(%rbp),%eax
    3561:	5d                   	pop    %rbp
    3562:	c3                   	retq   

0000000000003563 <safe_rshift_func_int16_t_s_u>:
    3563:	f3 0f 1e fa          	endbr64 
    3567:	55                   	push   %rbp
    3568:	48 89 e5             	mov    %rsp,%rbp
    356b:	89 f8                	mov    %edi,%eax
    356d:	89 75 f8             	mov    %esi,-0x8(%rbp)
    3570:	66 89 45 fc          	mov    %ax,-0x4(%rbp)
    3574:	66 83 7d fc 00       	cmpw   $0x0,-0x4(%rbp)
    3579:	78 15                	js     3590 <safe_rshift_func_int16_t_s_u+0x2d>
    357b:	83 7d f8 1f          	cmpl   $0x1f,-0x8(%rbp)
    357f:	77 0f                	ja     3590 <safe_rshift_func_int16_t_s_u+0x2d>
    3581:	0f bf 55 fc          	movswl -0x4(%rbp),%edx
    3585:	8b 45 f8             	mov    -0x8(%rbp),%eax
    3588:	89 c1                	mov    %eax,%ecx
    358a:	d3 fa                	sar    %cl,%edx
    358c:	89 d0                	mov    %edx,%eax
    358e:	eb 04                	jmp    3594 <safe_rshift_func_int16_t_s_u+0x31>
    3590:	0f b7 45 fc          	movzwl -0x4(%rbp),%eax
    3594:	5d                   	pop    %rbp
    3595:	c3                   	retq   

0000000000003596 <safe_unary_minus_func_int32_t_s>:
    3596:	f3 0f 1e fa          	endbr64 
    359a:	55                   	push   %rbp
    359b:	48 89 e5             	mov    %rsp,%rbp
    359e:	89 7d fc             	mov    %edi,-0x4(%rbp)
    35a1:	81 7d fc 00 00 00 80 	cmpl   $0x80000000,-0x4(%rbp)
    35a8:	74 07                	je     35b1 <safe_unary_minus_func_int32_t_s+0x1b>
    35aa:	8b 45 fc             	mov    -0x4(%rbp),%eax
    35ad:	f7 d8                	neg    %eax
    35af:	eb 03                	jmp    35b4 <safe_unary_minus_func_int32_t_s+0x1e>
    35b1:	8b 45 fc             	mov    -0x4(%rbp),%eax
    35b4:	5d                   	pop    %rbp
    35b5:	c3                   	retq   

00000000000035b6 <safe_add_func_int32_t_s_s>:
    35b6:	f3 0f 1e fa          	endbr64 
    35ba:	55                   	push   %rbp
    35bb:	48 89 e5             	mov    %rsp,%rbp
    35be:	89 7d fc             	mov    %edi,-0x4(%rbp)
    35c1:	89 75 f8             	mov    %esi,-0x8(%rbp)
    35c4:	83 7d fc 00          	cmpl   $0x0,-0x4(%rbp)
    35c8:	7e 13                	jle    35dd <safe_add_func_int32_t_s_s+0x27>
    35ca:	83 7d f8 00          	cmpl   $0x0,-0x8(%rbp)
    35ce:	7e 0d                	jle    35dd <safe_add_func_int32_t_s_s+0x27>
    35d0:	b8 ff ff ff 7f       	mov    $0x7fffffff,%eax
    35d5:	2b 45 f8             	sub    -0x8(%rbp),%eax
    35d8:	39 45 fc             	cmp    %eax,-0x4(%rbp)
    35db:	7f 23                	jg     3600 <safe_add_func_int32_t_s_s+0x4a>
    35dd:	83 7d fc 00          	cmpl   $0x0,-0x4(%rbp)
    35e1:	79 13                	jns    35f6 <safe_add_func_int32_t_s_s+0x40>
    35e3:	83 7d f8 00          	cmpl   $0x0,-0x8(%rbp)
    35e7:	79 0d                	jns    35f6 <safe_add_func_int32_t_s_s+0x40>
    35e9:	b8 00 00 00 80       	mov    $0x80000000,%eax
    35ee:	2b 45 f8             	sub    -0x8(%rbp),%eax
    35f1:	39 45 fc             	cmp    %eax,-0x4(%rbp)
    35f4:	7c 0a                	jl     3600 <safe_add_func_int32_t_s_s+0x4a>
    35f6:	8b 55 fc             	mov    -0x4(%rbp),%edx
    35f9:	8b 45 f8             	mov    -0x8(%rbp),%eax
    35fc:	01 d0                	add    %edx,%eax
    35fe:	eb 03                	jmp    3603 <safe_add_func_int32_t_s_s+0x4d>
    3600:	8b 45 fc             	mov    -0x4(%rbp),%eax
    3603:	5d                   	pop    %rbp
    3604:	c3                   	retq   

0000000000003605 <safe_sub_func_int32_t_s_s>:
    3605:	f3 0f 1e fa          	endbr64 
    3609:	55                   	push   %rbp
    360a:	48 89 e5             	mov    %rsp,%rbp
    360d:	89 7d fc             	mov    %edi,-0x4(%rbp)
    3610:	89 75 f8             	mov    %esi,-0x8(%rbp)
    3613:	8b 45 fc             	mov    -0x4(%rbp),%eax
    3616:	33 45 f8             	xor    -0x8(%rbp),%eax
    3619:	89 c2                	mov    %eax,%edx
    361b:	8b 45 fc             	mov    -0x4(%rbp),%eax
    361e:	33 45 f8             	xor    -0x8(%rbp),%eax
    3621:	25 00 00 00 80       	and    $0x80000000,%eax
    3626:	33 45 fc             	xor    -0x4(%rbp),%eax
    3629:	2b 45 f8             	sub    -0x8(%rbp),%eax
    362c:	33 45 f8             	xor    -0x8(%rbp),%eax
    362f:	21 d0                	and    %edx,%eax
    3631:	85 c0                	test   %eax,%eax
    3633:	78 08                	js     363d <safe_sub_func_int32_t_s_s+0x38>
    3635:	8b 45 fc             	mov    -0x4(%rbp),%eax
    3638:	2b 45 f8             	sub    -0x8(%rbp),%eax
    363b:	eb 03                	jmp    3640 <safe_sub_func_int32_t_s_s+0x3b>
    363d:	8b 45 fc             	mov    -0x4(%rbp),%eax
    3640:	5d                   	pop    %rbp
    3641:	c3                   	retq   

0000000000003642 <safe_mul_func_int32_t_s_s>:
    3642:	f3 0f 1e fa          	endbr64 
    3646:	55                   	push   %rbp
    3647:	48 89 e5             	mov    %rsp,%rbp
    364a:	89 7d fc             	mov    %edi,-0x4(%rbp)
    364d:	89 75 f8             	mov    %esi,-0x8(%rbp)
    3650:	83 7d fc 00          	cmpl   $0x0,-0x4(%rbp)
    3654:	7e 14                	jle    366a <safe_mul_func_int32_t_s_s+0x28>
    3656:	83 7d f8 00          	cmpl   $0x0,-0x8(%rbp)
    365a:	7e 0e                	jle    366a <safe_mul_func_int32_t_s_s+0x28>
    365c:	b8 ff ff ff 7f       	mov    $0x7fffffff,%eax
    3661:	99                   	cltd   
    3662:	f7 7d f8             	idivl  -0x8(%rbp)
    3665:	39 45 fc             	cmp    %eax,-0x4(%rbp)
    3668:	7f 5d                	jg     36c7 <safe_mul_func_int32_t_s_s+0x85>
    366a:	83 7d fc 00          	cmpl   $0x0,-0x4(%rbp)
    366e:	7e 14                	jle    3684 <safe_mul_func_int32_t_s_s+0x42>
    3670:	83 7d f8 00          	cmpl   $0x0,-0x8(%rbp)
    3674:	7f 0e                	jg     3684 <safe_mul_func_int32_t_s_s+0x42>
    3676:	b8 00 00 00 80       	mov    $0x80000000,%eax
    367b:	99                   	cltd   
    367c:	f7 7d fc             	idivl  -0x4(%rbp)
    367f:	39 45 f8             	cmp    %eax,-0x8(%rbp)
    3682:	7c 43                	jl     36c7 <safe_mul_func_int32_t_s_s+0x85>
    3684:	83 7d fc 00          	cmpl   $0x0,-0x4(%rbp)
    3688:	7f 14                	jg     369e <safe_mul_func_int32_t_s_s+0x5c>
    368a:	83 7d f8 00          	cmpl   $0x0,-0x8(%rbp)
    368e:	7e 0e                	jle    369e <safe_mul_func_int32_t_s_s+0x5c>
    3690:	b8 00 00 00 80       	mov    $0x80000000,%eax
    3695:	99                   	cltd   
    3696:	f7 7d f8             	idivl  -0x8(%rbp)
    3699:	39 45 fc             	cmp    %eax,-0x4(%rbp)
    369c:	7c 29                	jl     36c7 <safe_mul_func_int32_t_s_s+0x85>
    369e:	83 7d fc 00          	cmpl   $0x0,-0x4(%rbp)
    36a2:	7f 1a                	jg     36be <safe_mul_func_int32_t_s_s+0x7c>
    36a4:	83 7d f8 00          	cmpl   $0x0,-0x8(%rbp)
    36a8:	7f 14                	jg     36be <safe_mul_func_int32_t_s_s+0x7c>
    36aa:	83 7d fc 00          	cmpl   $0x0,-0x4(%rbp)
    36ae:	74 0e                	je     36be <safe_mul_func_int32_t_s_s+0x7c>
    36b0:	b8 ff ff ff 7f       	mov    $0x7fffffff,%eax
    36b5:	99                   	cltd   
    36b6:	f7 7d fc             	idivl  -0x4(%rbp)
    36b9:	39 45 f8             	cmp    %eax,-0x8(%rbp)
    36bc:	7c 09                	jl     36c7 <safe_mul_func_int32_t_s_s+0x85>
    36be:	8b 45 fc             	mov    -0x4(%rbp),%eax
    36c1:	0f af 45 f8          	imul   -0x8(%rbp),%eax
    36c5:	eb 03                	jmp    36ca <safe_mul_func_int32_t_s_s+0x88>
    36c7:	8b 45 fc             	mov    -0x4(%rbp),%eax
    36ca:	5d                   	pop    %rbp
    36cb:	c3                   	retq   

00000000000036cc <safe_mod_func_int32_t_s_s>:
    36cc:	f3 0f 1e fa          	endbr64 
    36d0:	55                   	push   %rbp
    36d1:	48 89 e5             	mov    %rsp,%rbp
    36d4:	89 7d fc             	mov    %edi,-0x4(%rbp)
    36d7:	89 75 f8             	mov    %esi,-0x8(%rbp)
    36da:	83 7d f8 00          	cmpl   $0x0,-0x8(%rbp)
    36de:	74 1a                	je     36fa <safe_mod_func_int32_t_s_s+0x2e>
    36e0:	81 7d fc 00 00 00 80 	cmpl   $0x80000000,-0x4(%rbp)
    36e7:	75 06                	jne    36ef <safe_mod_func_int32_t_s_s+0x23>
    36e9:	83 7d f8 ff          	cmpl   $0xffffffff,-0x8(%rbp)
    36ed:	74 0b                	je     36fa <safe_mod_func_int32_t_s_s+0x2e>
    36ef:	8b 45 fc             	mov    -0x4(%rbp),%eax
    36f2:	99                   	cltd   
    36f3:	f7 7d f8             	idivl  -0x8(%rbp)
    36f6:	89 d0                	mov    %edx,%eax
    36f8:	eb 03                	jmp    36fd <safe_mod_func_int32_t_s_s+0x31>
    36fa:	8b 45 fc             	mov    -0x4(%rbp),%eax
    36fd:	5d                   	pop    %rbp
    36fe:	c3                   	retq   

00000000000036ff <safe_div_func_int32_t_s_s>:
    36ff:	f3 0f 1e fa          	endbr64 
    3703:	55                   	push   %rbp
    3704:	48 89 e5             	mov    %rsp,%rbp
    3707:	89 7d fc             	mov    %edi,-0x4(%rbp)
    370a:	89 75 f8             	mov    %esi,-0x8(%rbp)
    370d:	83 7d f8 00          	cmpl   $0x0,-0x8(%rbp)
    3711:	74 18                	je     372b <safe_div_func_int32_t_s_s+0x2c>
    3713:	81 7d fc 00 00 00 80 	cmpl   $0x80000000,-0x4(%rbp)
    371a:	75 06                	jne    3722 <safe_div_func_int32_t_s_s+0x23>
    371c:	83 7d f8 ff          	cmpl   $0xffffffff,-0x8(%rbp)
    3720:	74 09                	je     372b <safe_div_func_int32_t_s_s+0x2c>
    3722:	8b 45 fc             	mov    -0x4(%rbp),%eax
    3725:	99                   	cltd   
    3726:	f7 7d f8             	idivl  -0x8(%rbp)
    3729:	eb 03                	jmp    372e <safe_div_func_int32_t_s_s+0x2f>
    372b:	8b 45 fc             	mov    -0x4(%rbp),%eax
    372e:	5d                   	pop    %rbp
    372f:	c3                   	retq   

0000000000003730 <safe_lshift_func_int32_t_s_s>:
    3730:	f3 0f 1e fa          	endbr64 
    3734:	55                   	push   %rbp
    3735:	48 89 e5             	mov    %rsp,%rbp
    3738:	89 7d fc             	mov    %edi,-0x4(%rbp)
    373b:	89 75 f8             	mov    %esi,-0x8(%rbp)
    373e:	83 7d fc 00          	cmpl   $0x0,-0x4(%rbp)
    3742:	78 2d                	js     3771 <safe_lshift_func_int32_t_s_s+0x41>
    3744:	83 7d f8 00          	cmpl   $0x0,-0x8(%rbp)
    3748:	78 27                	js     3771 <safe_lshift_func_int32_t_s_s+0x41>
    374a:	83 7d f8 1f          	cmpl   $0x1f,-0x8(%rbp)
    374e:	7f 21                	jg     3771 <safe_lshift_func_int32_t_s_s+0x41>
    3750:	8b 45 f8             	mov    -0x8(%rbp),%eax
    3753:	ba ff ff ff 7f       	mov    $0x7fffffff,%edx
    3758:	89 c1                	mov    %eax,%ecx
    375a:	d3 fa                	sar    %cl,%edx
    375c:	89 d0                	mov    %edx,%eax
    375e:	39 45 fc             	cmp    %eax,-0x4(%rbp)
    3761:	7f 0e                	jg     3771 <safe_lshift_func_int32_t_s_s+0x41>
    3763:	8b 45 f8             	mov    -0x8(%rbp),%eax
    3766:	8b 55 fc             	mov    -0x4(%rbp),%edx
    3769:	89 c1                	mov    %eax,%ecx
    376b:	d3 e2                	shl    %cl,%edx
    376d:	89 d0                	mov    %edx,%eax
    376f:	eb 03                	jmp    3774 <safe_lshift_func_int32_t_s_s+0x44>
    3771:	8b 45 fc             	mov    -0x4(%rbp),%eax
    3774:	5d                   	pop    %rbp
    3775:	c3                   	retq   

0000000000003776 <safe_lshift_func_int32_t_s_u>:
    3776:	f3 0f 1e fa          	endbr64 
    377a:	55                   	push   %rbp
    377b:	48 89 e5             	mov    %rsp,%rbp
    377e:	89 7d fc             	mov    %edi,-0x4(%rbp)
    3781:	89 75 f8             	mov    %esi,-0x8(%rbp)
    3784:	83 7d fc 00          	cmpl   $0x0,-0x4(%rbp)
    3788:	78 27                	js     37b1 <safe_lshift_func_int32_t_s_u+0x3b>
    378a:	83 7d f8 1f          	cmpl   $0x1f,-0x8(%rbp)
    378e:	77 21                	ja     37b1 <safe_lshift_func_int32_t_s_u+0x3b>
    3790:	8b 45 f8             	mov    -0x8(%rbp),%eax
    3793:	ba ff ff ff 7f       	mov    $0x7fffffff,%edx
    3798:	89 c1                	mov    %eax,%ecx
    379a:	d3 fa                	sar    %cl,%edx
    379c:	89 d0                	mov    %edx,%eax
    379e:	39 45 fc             	cmp    %eax,-0x4(%rbp)
    37a1:	7f 0e                	jg     37b1 <safe_lshift_func_int32_t_s_u+0x3b>
    37a3:	8b 45 f8             	mov    -0x8(%rbp),%eax
    37a6:	8b 55 fc             	mov    -0x4(%rbp),%edx
    37a9:	89 c1                	mov    %eax,%ecx
    37ab:	d3 e2                	shl    %cl,%edx
    37ad:	89 d0                	mov    %edx,%eax
    37af:	eb 03                	jmp    37b4 <safe_lshift_func_int32_t_s_u+0x3e>
    37b1:	8b 45 fc             	mov    -0x4(%rbp),%eax
    37b4:	5d                   	pop    %rbp
    37b5:	c3                   	retq   

00000000000037b6 <safe_rshift_func_int32_t_s_s>:
    37b6:	f3 0f 1e fa          	endbr64 
    37ba:	55                   	push   %rbp
    37bb:	48 89 e5             	mov    %rsp,%rbp
    37be:	89 7d fc             	mov    %edi,-0x4(%rbp)
    37c1:	89 75 f8             	mov    %esi,-0x8(%rbp)
    37c4:	83 7d fc 00          	cmpl   $0x0,-0x4(%rbp)
    37c8:	78 1a                	js     37e4 <safe_rshift_func_int32_t_s_s+0x2e>
    37ca:	83 7d f8 00          	cmpl   $0x0,-0x8(%rbp)
    37ce:	78 14                	js     37e4 <safe_rshift_func_int32_t_s_s+0x2e>
    37d0:	83 7d f8 1f          	cmpl   $0x1f,-0x8(%rbp)
    37d4:	7f 0e                	jg     37e4 <safe_rshift_func_int32_t_s_s+0x2e>
    37d6:	8b 45 f8             	mov    -0x8(%rbp),%eax
    37d9:	8b 55 fc             	mov    -0x4(%rbp),%edx
    37dc:	89 c1                	mov    %eax,%ecx
    37de:	d3 fa                	sar    %cl,%edx
    37e0:	89 d0                	mov    %edx,%eax
    37e2:	eb 03                	jmp    37e7 <safe_rshift_func_int32_t_s_s+0x31>
    37e4:	8b 45 fc             	mov    -0x4(%rbp),%eax
    37e7:	5d                   	pop    %rbp
    37e8:	c3                   	retq   

00000000000037e9 <safe_rshift_func_int32_t_s_u>:
    37e9:	f3 0f 1e fa          	endbr64 
    37ed:	55                   	push   %rbp
    37ee:	48 89 e5             	mov    %rsp,%rbp
    37f1:	89 7d fc             	mov    %edi,-0x4(%rbp)
    37f4:	89 75 f8             	mov    %esi,-0x8(%rbp)
    37f7:	83 7d fc 00          	cmpl   $0x0,-0x4(%rbp)
    37fb:	78 14                	js     3811 <safe_rshift_func_int32_t_s_u+0x28>
    37fd:	83 7d f8 1f          	cmpl   $0x1f,-0x8(%rbp)
    3801:	77 0e                	ja     3811 <safe_rshift_func_int32_t_s_u+0x28>
    3803:	8b 45 f8             	mov    -0x8(%rbp),%eax
    3806:	8b 55 fc             	mov    -0x4(%rbp),%edx
    3809:	89 c1                	mov    %eax,%ecx
    380b:	d3 fa                	sar    %cl,%edx
    380d:	89 d0                	mov    %edx,%eax
    380f:	eb 03                	jmp    3814 <safe_rshift_func_int32_t_s_u+0x2b>
    3811:	8b 45 fc             	mov    -0x4(%rbp),%eax
    3814:	5d                   	pop    %rbp
    3815:	c3                   	retq   

0000000000003816 <safe_unary_minus_func_int64_t_s>:
    3816:	f3 0f 1e fa          	endbr64 
    381a:	55                   	push   %rbp
    381b:	48 89 e5             	mov    %rsp,%rbp
    381e:	48 89 7d f8          	mov    %rdi,-0x8(%rbp)
    3822:	48 b8 00 00 00 00 00 	movabs $0x8000000000000000,%rax
    3829:	00 00 80 
    382c:	48 39 45 f8          	cmp    %rax,-0x8(%rbp)
    3830:	74 09                	je     383b <safe_unary_minus_func_int64_t_s+0x25>
    3832:	48 8b 45 f8          	mov    -0x8(%rbp),%rax
    3836:	48 f7 d8             	neg    %rax
    3839:	eb 04                	jmp    383f <safe_unary_minus_func_int64_t_s+0x29>
    383b:	48 8b 45 f8          	mov    -0x8(%rbp),%rax
    383f:	5d                   	pop    %rbp
    3840:	c3                   	retq   

0000000000003841 <safe_add_func_int64_t_s_s>:
    3841:	f3 0f 1e fa          	endbr64 
    3845:	55                   	push   %rbp
    3846:	48 89 e5             	mov    %rsp,%rbp
    3849:	48 89 7d f8          	mov    %rdi,-0x8(%rbp)
    384d:	48 89 75 f0          	mov    %rsi,-0x10(%rbp)
    3851:	48 83 7d f8 00       	cmpq   $0x0,-0x8(%rbp)
    3856:	7e 1b                	jle    3873 <safe_add_func_int64_t_s_s+0x32>
    3858:	48 83 7d f0 00       	cmpq   $0x0,-0x10(%rbp)
    385d:	7e 14                	jle    3873 <safe_add_func_int64_t_s_s+0x32>
    385f:	48 b8 ff ff ff ff ff 	movabs $0x7fffffffffffffff,%rax
    3866:	ff ff 7f 
    3869:	48 2b 45 f0          	sub    -0x10(%rbp),%rax
    386d:	48 39 45 f8          	cmp    %rax,-0x8(%rbp)
    3871:	7f 2f                	jg     38a2 <safe_add_func_int64_t_s_s+0x61>
    3873:	48 83 7d f8 00       	cmpq   $0x0,-0x8(%rbp)
    3878:	79 1b                	jns    3895 <safe_add_func_int64_t_s_s+0x54>
    387a:	48 83 7d f0 00       	cmpq   $0x0,-0x10(%rbp)
    387f:	79 14                	jns    3895 <safe_add_func_int64_t_s_s+0x54>
    3881:	48 b8 00 00 00 00 00 	movabs $0x8000000000000000,%rax
    3888:	00 00 80 
    388b:	48 2b 45 f0          	sub    -0x10(%rbp),%rax
    388f:	48 39 45 f8          	cmp    %rax,-0x8(%rbp)
    3893:	7c 0d                	jl     38a2 <safe_add_func_int64_t_s_s+0x61>
    3895:	48 8b 55 f8          	mov    -0x8(%rbp),%rdx
    3899:	48 8b 45 f0          	mov    -0x10(%rbp),%rax
    389d:	48 01 d0             	add    %rdx,%rax
    38a0:	eb 04                	jmp    38a6 <safe_add_func_int64_t_s_s+0x65>
    38a2:	48 8b 45 f8          	mov    -0x8(%rbp),%rax
    38a6:	5d                   	pop    %rbp
    38a7:	c3                   	retq   

00000000000038a8 <safe_sub_func_int64_t_s_s>:
    38a8:	f3 0f 1e fa          	endbr64 
    38ac:	55                   	push   %rbp
    38ad:	48 89 e5             	mov    %rsp,%rbp
    38b0:	48 89 7d f8          	mov    %rdi,-0x8(%rbp)
    38b4:	48 89 75 f0          	mov    %rsi,-0x10(%rbp)
    38b8:	48 8b 45 f8          	mov    -0x8(%rbp),%rax
    38bc:	48 33 45 f0          	xor    -0x10(%rbp),%rax
    38c0:	48 89 c2             	mov    %rax,%rdx
    38c3:	48 8b 45 f8          	mov    -0x8(%rbp),%rax
    38c7:	48 33 45 f0          	xor    -0x10(%rbp),%rax
    38cb:	48 b9 00 00 00 00 00 	movabs $0x8000000000000000,%rcx
    38d2:	00 00 80 
    38d5:	48 21 c8             	and    %rcx,%rax
    38d8:	48 33 45 f8          	xor    -0x8(%rbp),%rax
    38dc:	48 2b 45 f0          	sub    -0x10(%rbp),%rax
    38e0:	48 33 45 f0          	xor    -0x10(%rbp),%rax
    38e4:	48 21 d0             	and    %rdx,%rax
    38e7:	48 85 c0             	test   %rax,%rax
    38ea:	78 0a                	js     38f6 <safe_sub_func_int64_t_s_s+0x4e>
    38ec:	48 8b 45 f8          	mov    -0x8(%rbp),%rax
    38f0:	48 2b 45 f0          	sub    -0x10(%rbp),%rax
    38f4:	eb 04                	jmp    38fa <safe_sub_func_int64_t_s_s+0x52>
    38f6:	48 8b 45 f8          	mov    -0x8(%rbp),%rax
    38fa:	5d                   	pop    %rbp
    38fb:	c3                   	retq   

00000000000038fc <safe_mul_func_int64_t_s_s>:
    38fc:	f3 0f 1e fa          	endbr64 
    3900:	55                   	push   %rbp
    3901:	48 89 e5             	mov    %rsp,%rbp
    3904:	48 89 7d f8          	mov    %rdi,-0x8(%rbp)
    3908:	48 89 75 f0          	mov    %rsi,-0x10(%rbp)
    390c:	48 83 7d f8 00       	cmpq   $0x0,-0x8(%rbp)
    3911:	7e 1d                	jle    3930 <safe_mul_func_int64_t_s_s+0x34>
    3913:	48 83 7d f0 00       	cmpq   $0x0,-0x10(%rbp)
    3918:	7e 16                	jle    3930 <safe_mul_func_int64_t_s_s+0x34>
    391a:	48 b8 ff ff ff ff ff 	movabs $0x7fffffffffffffff,%rax
    3921:	ff ff 7f 
    3924:	48 99                	cqto   
    3926:	48 f7 7d f0          	idivq  -0x10(%rbp)
    392a:	48 39 45 f8          	cmp    %rax,-0x8(%rbp)
    392e:	7f 7e                	jg     39ae <safe_mul_func_int64_t_s_s+0xb2>
    3930:	48 83 7d f8 00       	cmpq   $0x0,-0x8(%rbp)
    3935:	7e 1d                	jle    3954 <safe_mul_func_int64_t_s_s+0x58>
    3937:	48 83 7d f0 00       	cmpq   $0x0,-0x10(%rbp)
    393c:	7f 16                	jg     3954 <safe_mul_func_int64_t_s_s+0x58>
    393e:	48 b8 00 00 00 00 00 	movabs $0x8000000000000000,%rax
    3945:	00 00 80 
    3948:	48 99                	cqto   
    394a:	48 f7 7d f8          	idivq  -0x8(%rbp)
    394e:	48 39 45 f0          	cmp    %rax,-0x10(%rbp)
    3952:	7c 5a                	jl     39ae <safe_mul_func_int64_t_s_s+0xb2>
    3954:	48 83 7d f8 00       	cmpq   $0x0,-0x8(%rbp)
    3959:	7f 1d                	jg     3978 <safe_mul_func_int64_t_s_s+0x7c>
    395b:	48 83 7d f0 00       	cmpq   $0x0,-0x10(%rbp)
    3960:	7e 16                	jle    3978 <safe_mul_func_int64_t_s_s+0x7c>
    3962:	48 b8 00 00 00 00 00 	movabs $0x8000000000000000,%rax
    3969:	00 00 80 
    396c:	48 99                	cqto   
    396e:	48 f7 7d f0          	idivq  -0x10(%rbp)
    3972:	48 39 45 f8          	cmp    %rax,-0x8(%rbp)
    3976:	7c 36                	jl     39ae <safe_mul_func_int64_t_s_s+0xb2>
    3978:	48 83 7d f8 00       	cmpq   $0x0,-0x8(%rbp)
    397d:	7f 24                	jg     39a3 <safe_mul_func_int64_t_s_s+0xa7>
    397f:	48 83 7d f0 00       	cmpq   $0x0,-0x10(%rbp)
    3984:	7f 1d                	jg     39a3 <safe_mul_func_int64_t_s_s+0xa7>
    3986:	48 83 7d f8 00       	cmpq   $0x0,-0x8(%rbp)
    398b:	74 16                	je     39a3 <safe_mul_func_int64_t_s_s+0xa7>
    398d:	48 b8 ff ff ff ff ff 	movabs $0x7fffffffffffffff,%rax
    3994:	ff ff 7f 
    3997:	48 99                	cqto   
    3999:	48 f7 7d f8          	idivq  -0x8(%rbp)
    399d:	48 39 45 f0          	cmp    %rax,-0x10(%rbp)
    39a1:	7c 0b                	jl     39ae <safe_mul_func_int64_t_s_s+0xb2>
    39a3:	48 8b 45 f8          	mov    -0x8(%rbp),%rax
    39a7:	48 0f af 45 f0       	imul   -0x10(%rbp),%rax
    39ac:	eb 04                	jmp    39b2 <safe_mul_func_int64_t_s_s+0xb6>
    39ae:	48 8b 45 f8          	mov    -0x8(%rbp),%rax
    39b2:	5d                   	pop    %rbp
    39b3:	c3                   	retq   

00000000000039b4 <safe_mod_func_int64_t_s_s>:
    39b4:	f3 0f 1e fa          	endbr64 
    39b8:	55                   	push   %rbp
    39b9:	48 89 e5             	mov    %rsp,%rbp
    39bc:	48 89 7d f8          	mov    %rdi,-0x8(%rbp)
    39c0:	48 89 75 f0          	mov    %rsi,-0x10(%rbp)
    39c4:	48 83 7d f0 00       	cmpq   $0x0,-0x10(%rbp)
    39c9:	74 26                	je     39f1 <safe_mod_func_int64_t_s_s+0x3d>
    39cb:	48 b8 00 00 00 00 00 	movabs $0x8000000000000000,%rax
    39d2:	00 00 80 
    39d5:	48 39 45 f8          	cmp    %rax,-0x8(%rbp)
    39d9:	75 07                	jne    39e2 <safe_mod_func_int64_t_s_s+0x2e>
    39db:	48 83 7d f0 ff       	cmpq   $0xffffffffffffffff,-0x10(%rbp)
    39e0:	74 0f                	je     39f1 <safe_mod_func_int64_t_s_s+0x3d>
    39e2:	48 8b 45 f8          	mov    -0x8(%rbp),%rax
    39e6:	48 99                	cqto   
    39e8:	48 f7 7d f0          	idivq  -0x10(%rbp)
    39ec:	48 89 d0             	mov    %rdx,%rax
    39ef:	eb 04                	jmp    39f5 <safe_mod_func_int64_t_s_s+0x41>
    39f1:	48 8b 45 f8          	mov    -0x8(%rbp),%rax
    39f5:	5d                   	pop    %rbp
    39f6:	c3                   	retq   

00000000000039f7 <safe_div_func_int64_t_s_s>:
    39f7:	f3 0f 1e fa          	endbr64 
    39fb:	55                   	push   %rbp
    39fc:	48 89 e5             	mov    %rsp,%rbp
    39ff:	48 89 7d f8          	mov    %rdi,-0x8(%rbp)
    3a03:	48 89 75 f0          	mov    %rsi,-0x10(%rbp)
    3a07:	48 83 7d f0 00       	cmpq   $0x0,-0x10(%rbp)
    3a0c:	74 23                	je     3a31 <safe_div_func_int64_t_s_s+0x3a>
    3a0e:	48 b8 00 00 00 00 00 	movabs $0x8000000000000000,%rax
    3a15:	00 00 80 
    3a18:	48 39 45 f8          	cmp    %rax,-0x8(%rbp)
    3a1c:	75 07                	jne    3a25 <safe_div_func_int64_t_s_s+0x2e>
    3a1e:	48 83 7d f0 ff       	cmpq   $0xffffffffffffffff,-0x10(%rbp)
    3a23:	74 0c                	je     3a31 <safe_div_func_int64_t_s_s+0x3a>
    3a25:	48 8b 45 f8          	mov    -0x8(%rbp),%rax
    3a29:	48 99                	cqto   
    3a2b:	48 f7 7d f0          	idivq  -0x10(%rbp)
    3a2f:	eb 04                	jmp    3a35 <safe_div_func_int64_t_s_s+0x3e>
    3a31:	48 8b 45 f8          	mov    -0x8(%rbp),%rax
    3a35:	5d                   	pop    %rbp
    3a36:	c3                   	retq   

0000000000003a37 <safe_lshift_func_int64_t_s_s>:
    3a37:	f3 0f 1e fa          	endbr64 
    3a3b:	55                   	push   %rbp
    3a3c:	48 89 e5             	mov    %rsp,%rbp
    3a3f:	48 89 7d f8          	mov    %rdi,-0x8(%rbp)
    3a43:	89 75 f4             	mov    %esi,-0xc(%rbp)
    3a46:	48 83 7d f8 00       	cmpq   $0x0,-0x8(%rbp)
    3a4b:	78 38                	js     3a85 <safe_lshift_func_int64_t_s_s+0x4e>
    3a4d:	83 7d f4 00          	cmpl   $0x0,-0xc(%rbp)
    3a51:	78 32                	js     3a85 <safe_lshift_func_int64_t_s_s+0x4e>
    3a53:	83 7d f4 1f          	cmpl   $0x1f,-0xc(%rbp)
    3a57:	7f 2c                	jg     3a85 <safe_lshift_func_int64_t_s_s+0x4e>
    3a59:	8b 45 f4             	mov    -0xc(%rbp),%eax
    3a5c:	48 ba ff ff ff ff ff 	movabs $0x7fffffffffffffff,%rdx
    3a63:	ff ff 7f 
    3a66:	89 c1                	mov    %eax,%ecx
    3a68:	48 d3 fa             	sar    %cl,%rdx
    3a6b:	48 89 d0             	mov    %rdx,%rax
    3a6e:	48 39 45 f8          	cmp    %rax,-0x8(%rbp)
    3a72:	7f 11                	jg     3a85 <safe_lshift_func_int64_t_s_s+0x4e>
    3a74:	8b 45 f4             	mov    -0xc(%rbp),%eax
    3a77:	48 8b 55 f8          	mov    -0x8(%rbp),%rdx
    3a7b:	89 c1                	mov    %eax,%ecx
    3a7d:	48 d3 e2             	shl    %cl,%rdx
    3a80:	48 89 d0             	mov    %rdx,%rax
    3a83:	eb 04                	jmp    3a89 <safe_lshift_func_int64_t_s_s+0x52>
    3a85:	48 8b 45 f8          	mov    -0x8(%rbp),%rax
    3a89:	5d                   	pop    %rbp
    3a8a:	c3                   	retq   

0000000000003a8b <safe_lshift_func_int64_t_s_u>:
    3a8b:	f3 0f 1e fa          	endbr64 
    3a8f:	55                   	push   %rbp
    3a90:	48 89 e5             	mov    %rsp,%rbp
    3a93:	48 89 7d f8          	mov    %rdi,-0x8(%rbp)
    3a97:	89 75 f4             	mov    %esi,-0xc(%rbp)
    3a9a:	48 83 7d f8 00       	cmpq   $0x0,-0x8(%rbp)
    3a9f:	78 32                	js     3ad3 <safe_lshift_func_int64_t_s_u+0x48>
    3aa1:	83 7d f4 1f          	cmpl   $0x1f,-0xc(%rbp)
    3aa5:	77 2c                	ja     3ad3 <safe_lshift_func_int64_t_s_u+0x48>
    3aa7:	8b 45 f4             	mov    -0xc(%rbp),%eax
    3aaa:	48 ba ff ff ff ff ff 	movabs $0x7fffffffffffffff,%rdx
    3ab1:	ff ff 7f 
    3ab4:	89 c1                	mov    %eax,%ecx
    3ab6:	48 d3 fa             	sar    %cl,%rdx
    3ab9:	48 89 d0             	mov    %rdx,%rax
    3abc:	48 39 45 f8          	cmp    %rax,-0x8(%rbp)
    3ac0:	7f 11                	jg     3ad3 <safe_lshift_func_int64_t_s_u+0x48>
    3ac2:	8b 45 f4             	mov    -0xc(%rbp),%eax
    3ac5:	48 8b 55 f8          	mov    -0x8(%rbp),%rdx
    3ac9:	89 c1                	mov    %eax,%ecx
    3acb:	48 d3 e2             	shl    %cl,%rdx
    3ace:	48 89 d0             	mov    %rdx,%rax
    3ad1:	eb 04                	jmp    3ad7 <safe_lshift_func_int64_t_s_u+0x4c>
    3ad3:	48 8b 45 f8          	mov    -0x8(%rbp),%rax
    3ad7:	5d                   	pop    %rbp
    3ad8:	c3                   	retq   

0000000000003ad9 <safe_rshift_func_int64_t_s_s>:
    3ad9:	f3 0f 1e fa          	endbr64 
    3add:	55                   	push   %rbp
    3ade:	48 89 e5             	mov    %rsp,%rbp
    3ae1:	48 89 7d f8          	mov    %rdi,-0x8(%rbp)
    3ae5:	89 75 f4             	mov    %esi,-0xc(%rbp)
    3ae8:	48 83 7d f8 00       	cmpq   $0x0,-0x8(%rbp)
    3aed:	78 1d                	js     3b0c <safe_rshift_func_int64_t_s_s+0x33>
    3aef:	83 7d f4 00          	cmpl   $0x0,-0xc(%rbp)
    3af3:	78 17                	js     3b0c <safe_rshift_func_int64_t_s_s+0x33>
    3af5:	83 7d f4 1f          	cmpl   $0x1f,-0xc(%rbp)
    3af9:	7f 11                	jg     3b0c <safe_rshift_func_int64_t_s_s+0x33>
    3afb:	8b 45 f4             	mov    -0xc(%rbp),%eax
    3afe:	48 8b 55 f8          	mov    -0x8(%rbp),%rdx
    3b02:	89 c1                	mov    %eax,%ecx
    3b04:	48 d3 fa             	sar    %cl,%rdx
    3b07:	48 89 d0             	mov    %rdx,%rax
    3b0a:	eb 04                	jmp    3b10 <safe_rshift_func_int64_t_s_s+0x37>
    3b0c:	48 8b 45 f8          	mov    -0x8(%rbp),%rax
    3b10:	5d                   	pop    %rbp
    3b11:	c3                   	retq   

0000000000003b12 <safe_rshift_func_int64_t_s_u>:
    3b12:	f3 0f 1e fa          	endbr64 
    3b16:	55                   	push   %rbp
    3b17:	48 89 e5             	mov    %rsp,%rbp
    3b1a:	48 89 7d f8          	mov    %rdi,-0x8(%rbp)
    3b1e:	89 75 f4             	mov    %esi,-0xc(%rbp)
    3b21:	48 83 7d f8 00       	cmpq   $0x0,-0x8(%rbp)
    3b26:	78 17                	js     3b3f <safe_rshift_func_int64_t_s_u+0x2d>
    3b28:	83 7d f4 1f          	cmpl   $0x1f,-0xc(%rbp)
    3b2c:	77 11                	ja     3b3f <safe_rshift_func_int64_t_s_u+0x2d>
    3b2e:	8b 45 f4             	mov    -0xc(%rbp),%eax
    3b31:	48 8b 55 f8          	mov    -0x8(%rbp),%rdx
    3b35:	89 c1                	mov    %eax,%ecx
    3b37:	48 d3 fa             	sar    %cl,%rdx
    3b3a:	48 89 d0             	mov    %rdx,%rax
    3b3d:	eb 04                	jmp    3b43 <safe_rshift_func_int64_t_s_u+0x31>
    3b3f:	48 8b 45 f8          	mov    -0x8(%rbp),%rax
    3b43:	5d                   	pop    %rbp
    3b44:	c3                   	retq   

0000000000003b45 <safe_unary_minus_func_uint8_t_u>:
    3b45:	f3 0f 1e fa          	endbr64 
    3b49:	55                   	push   %rbp
    3b4a:	48 89 e5             	mov    %rsp,%rbp
    3b4d:	89 f8                	mov    %edi,%eax
    3b4f:	88 45 fc             	mov    %al,-0x4(%rbp)
    3b52:	0f b6 45 fc          	movzbl -0x4(%rbp),%eax
    3b56:	f7 d8                	neg    %eax
    3b58:	5d                   	pop    %rbp
    3b59:	c3                   	retq   

0000000000003b5a <safe_add_func_uint8_t_u_u>:
    3b5a:	f3 0f 1e fa          	endbr64 
    3b5e:	55                   	push   %rbp
    3b5f:	48 89 e5             	mov    %rsp,%rbp
    3b62:	89 fa                	mov    %edi,%edx
    3b64:	89 f0                	mov    %esi,%eax
    3b66:	88 55 fc             	mov    %dl,-0x4(%rbp)
    3b69:	88 45 f8             	mov    %al,-0x8(%rbp)
    3b6c:	0f b6 55 fc          	movzbl -0x4(%rbp),%edx
    3b70:	0f b6 45 f8          	movzbl -0x8(%rbp),%eax
    3b74:	01 d0                	add    %edx,%eax
    3b76:	5d                   	pop    %rbp
    3b77:	c3                   	retq   

0000000000003b78 <safe_sub_func_uint8_t_u_u>:
    3b78:	f3 0f 1e fa          	endbr64 
    3b7c:	55                   	push   %rbp
    3b7d:	48 89 e5             	mov    %rsp,%rbp
    3b80:	89 fa                	mov    %edi,%edx
    3b82:	89 f0                	mov    %esi,%eax
    3b84:	88 55 fc             	mov    %dl,-0x4(%rbp)
    3b87:	88 45 f8             	mov    %al,-0x8(%rbp)
    3b8a:	0f b6 45 fc          	movzbl -0x4(%rbp),%eax
    3b8e:	2a 45 f8             	sub    -0x8(%rbp),%al
    3b91:	5d                   	pop    %rbp
    3b92:	c3                   	retq   

0000000000003b93 <safe_mul_func_uint8_t_u_u>:
    3b93:	f3 0f 1e fa          	endbr64 
    3b97:	55                   	push   %rbp
    3b98:	48 89 e5             	mov    %rsp,%rbp
    3b9b:	89 fa                	mov    %edi,%edx
    3b9d:	89 f0                	mov    %esi,%eax
    3b9f:	88 55 fc             	mov    %dl,-0x4(%rbp)
    3ba2:	88 45 f8             	mov    %al,-0x8(%rbp)
    3ba5:	0f b6 45 fc          	movzbl -0x4(%rbp),%eax
    3ba9:	f6 65 f8             	mulb   -0x8(%rbp)
    3bac:	5d                   	pop    %rbp
    3bad:	c3                   	retq   

0000000000003bae <safe_mod_func_uint8_t_u_u>:
    3bae:	f3 0f 1e fa          	endbr64 
    3bb2:	55                   	push   %rbp
    3bb3:	48 89 e5             	mov    %rsp,%rbp
    3bb6:	89 fa                	mov    %edi,%edx
    3bb8:	89 f0                	mov    %esi,%eax
    3bba:	88 55 fc             	mov    %dl,-0x4(%rbp)
    3bbd:	88 45 f8             	mov    %al,-0x8(%rbp)
    3bc0:	80 7d f8 00          	cmpb   $0x0,-0x8(%rbp)
    3bc4:	74 0f                	je     3bd5 <safe_mod_func_uint8_t_u_u+0x27>
    3bc6:	0f b6 45 fc          	movzbl -0x4(%rbp),%eax
    3bca:	0f b6 c0             	movzbl %al,%eax
    3bcd:	f6 75 f8             	divb   -0x8(%rbp)
    3bd0:	0f b6 c4             	movzbl %ah,%eax
    3bd3:	eb 04                	jmp    3bd9 <safe_mod_func_uint8_t_u_u+0x2b>
    3bd5:	0f b6 45 fc          	movzbl -0x4(%rbp),%eax
    3bd9:	5d                   	pop    %rbp
    3bda:	c3                   	retq   

0000000000003bdb <safe_div_func_uint8_t_u_u>:
    3bdb:	f3 0f 1e fa          	endbr64 
    3bdf:	55                   	push   %rbp
    3be0:	48 89 e5             	mov    %rsp,%rbp
    3be3:	89 fa                	mov    %edi,%edx
    3be5:	89 f0                	mov    %esi,%eax
    3be7:	88 55 fc             	mov    %dl,-0x4(%rbp)
    3bea:	88 45 f8             	mov    %al,-0x8(%rbp)
    3bed:	80 7d f8 00          	cmpb   $0x0,-0x8(%rbp)
    3bf1:	74 0c                	je     3bff <safe_div_func_uint8_t_u_u+0x24>
    3bf3:	0f b6 45 fc          	movzbl -0x4(%rbp),%eax
    3bf7:	0f b6 c0             	movzbl %al,%eax
    3bfa:	f6 75 f8             	divb   -0x8(%rbp)
    3bfd:	eb 04                	jmp    3c03 <safe_div_func_uint8_t_u_u+0x28>
    3bff:	0f b6 45 fc          	movzbl -0x4(%rbp),%eax
    3c03:	5d                   	pop    %rbp
    3c04:	c3                   	retq   

0000000000003c05 <safe_lshift_func_uint8_t_u_s>:
    3c05:	f3 0f 1e fa          	endbr64 
    3c09:	55                   	push   %rbp
    3c0a:	48 89 e5             	mov    %rsp,%rbp
    3c0d:	89 f8                	mov    %edi,%eax
    3c0f:	89 75 f8             	mov    %esi,-0x8(%rbp)
    3c12:	88 45 fc             	mov    %al,-0x4(%rbp)
    3c15:	83 7d f8 00          	cmpl   $0x0,-0x8(%rbp)
    3c19:	78 2b                	js     3c46 <safe_lshift_func_uint8_t_u_s+0x41>
    3c1b:	83 7d f8 1f          	cmpl   $0x1f,-0x8(%rbp)
    3c1f:	7f 25                	jg     3c46 <safe_lshift_func_uint8_t_u_s+0x41>
    3c21:	0f b6 55 fc          	movzbl -0x4(%rbp),%edx
    3c25:	8b 45 f8             	mov    -0x8(%rbp),%eax
    3c28:	be ff 00 00 00       	mov    $0xff,%esi
    3c2d:	89 c1                	mov    %eax,%ecx
    3c2f:	d3 fe                	sar    %cl,%esi
    3c31:	89 f0                	mov    %esi,%eax
    3c33:	39 c2                	cmp    %eax,%edx
    3c35:	7f 0f                	jg     3c46 <safe_lshift_func_uint8_t_u_s+0x41>
    3c37:	0f b6 55 fc          	movzbl -0x4(%rbp),%edx
    3c3b:	8b 45 f8             	mov    -0x8(%rbp),%eax
    3c3e:	89 c1                	mov    %eax,%ecx
    3c40:	d3 e2                	shl    %cl,%edx
    3c42:	89 d0                	mov    %edx,%eax
    3c44:	eb 04                	jmp    3c4a <safe_lshift_func_uint8_t_u_s+0x45>
    3c46:	0f b6 45 fc          	movzbl -0x4(%rbp),%eax
    3c4a:	5d                   	pop    %rbp
    3c4b:	c3                   	retq   

0000000000003c4c <safe_lshift_func_uint8_t_u_u>:
    3c4c:	f3 0f 1e fa          	endbr64 
    3c50:	55                   	push   %rbp
    3c51:	48 89 e5             	mov    %rsp,%rbp
    3c54:	89 f8                	mov    %edi,%eax
    3c56:	89 75 f8             	mov    %esi,-0x8(%rbp)
    3c59:	88 45 fc             	mov    %al,-0x4(%rbp)
    3c5c:	83 7d f8 1f          	cmpl   $0x1f,-0x8(%rbp)
    3c60:	77 25                	ja     3c87 <safe_lshift_func_uint8_t_u_u+0x3b>
    3c62:	0f b6 55 fc          	movzbl -0x4(%rbp),%edx
    3c66:	8b 45 f8             	mov    -0x8(%rbp),%eax
    3c69:	be ff 00 00 00       	mov    $0xff,%esi
    3c6e:	89 c1                	mov    %eax,%ecx
    3c70:	d3 fe                	sar    %cl,%esi
    3c72:	89 f0                	mov    %esi,%eax
    3c74:	39 c2                	cmp    %eax,%edx
    3c76:	7f 0f                	jg     3c87 <safe_lshift_func_uint8_t_u_u+0x3b>
    3c78:	0f b6 55 fc          	movzbl -0x4(%rbp),%edx
    3c7c:	8b 45 f8             	mov    -0x8(%rbp),%eax
    3c7f:	89 c1                	mov    %eax,%ecx
    3c81:	d3 e2                	shl    %cl,%edx
    3c83:	89 d0                	mov    %edx,%eax
    3c85:	eb 04                	jmp    3c8b <safe_lshift_func_uint8_t_u_u+0x3f>
    3c87:	0f b6 45 fc          	movzbl -0x4(%rbp),%eax
    3c8b:	5d                   	pop    %rbp
    3c8c:	c3                   	retq   

0000000000003c8d <safe_rshift_func_uint8_t_u_s>:
    3c8d:	f3 0f 1e fa          	endbr64 
    3c91:	55                   	push   %rbp
    3c92:	48 89 e5             	mov    %rsp,%rbp
    3c95:	89 f8                	mov    %edi,%eax
    3c97:	89 75 f8             	mov    %esi,-0x8(%rbp)
    3c9a:	88 45 fc             	mov    %al,-0x4(%rbp)
    3c9d:	83 7d f8 00          	cmpl   $0x0,-0x8(%rbp)
    3ca1:	78 15                	js     3cb8 <safe_rshift_func_uint8_t_u_s+0x2b>
    3ca3:	83 7d f8 1f          	cmpl   $0x1f,-0x8(%rbp)
    3ca7:	7f 0f                	jg     3cb8 <safe_rshift_func_uint8_t_u_s+0x2b>
    3ca9:	0f b6 55 fc          	movzbl -0x4(%rbp),%edx
    3cad:	8b 45 f8             	mov    -0x8(%rbp),%eax
    3cb0:	89 c1                	mov    %eax,%ecx
    3cb2:	d3 fa                	sar    %cl,%edx
    3cb4:	89 d0                	mov    %edx,%eax
    3cb6:	eb 04                	jmp    3cbc <safe_rshift_func_uint8_t_u_s+0x2f>
    3cb8:	0f b6 45 fc          	movzbl -0x4(%rbp),%eax
    3cbc:	5d                   	pop    %rbp
    3cbd:	c3                   	retq   

0000000000003cbe <safe_rshift_func_uint8_t_u_u>:
    3cbe:	f3 0f 1e fa          	endbr64 
    3cc2:	55                   	push   %rbp
    3cc3:	48 89 e5             	mov    %rsp,%rbp
    3cc6:	89 f8                	mov    %edi,%eax
    3cc8:	89 75 f8             	mov    %esi,-0x8(%rbp)
    3ccb:	88 45 fc             	mov    %al,-0x4(%rbp)
    3cce:	83 7d f8 1f          	cmpl   $0x1f,-0x8(%rbp)
    3cd2:	77 0f                	ja     3ce3 <safe_rshift_func_uint8_t_u_u+0x25>
    3cd4:	0f b6 55 fc          	movzbl -0x4(%rbp),%edx
    3cd8:	8b 45 f8             	mov    -0x8(%rbp),%eax
    3cdb:	89 c1                	mov    %eax,%ecx
    3cdd:	d3 fa                	sar    %cl,%edx
    3cdf:	89 d0                	mov    %edx,%eax
    3ce1:	eb 04                	jmp    3ce7 <safe_rshift_func_uint8_t_u_u+0x29>
    3ce3:	0f b6 45 fc          	movzbl -0x4(%rbp),%eax
    3ce7:	5d                   	pop    %rbp
    3ce8:	c3                   	retq   

0000000000003ce9 <safe_unary_minus_func_uint16_t_u>:
    3ce9:	f3 0f 1e fa          	endbr64 
    3ced:	55                   	push   %rbp
    3cee:	48 89 e5             	mov    %rsp,%rbp
    3cf1:	89 f8                	mov    %edi,%eax
    3cf3:	66 89 45 fc          	mov    %ax,-0x4(%rbp)
    3cf7:	0f b7 45 fc          	movzwl -0x4(%rbp),%eax
    3cfb:	f7 d8                	neg    %eax
    3cfd:	5d                   	pop    %rbp
    3cfe:	c3                   	retq   

0000000000003cff <safe_add_func_uint16_t_u_u>:
    3cff:	f3 0f 1e fa          	endbr64 
    3d03:	55                   	push   %rbp
    3d04:	48 89 e5             	mov    %rsp,%rbp
    3d07:	89 fa                	mov    %edi,%edx
    3d09:	89 f0                	mov    %esi,%eax
    3d0b:	66 89 55 fc          	mov    %dx,-0x4(%rbp)
    3d0f:	66 89 45 f8          	mov    %ax,-0x8(%rbp)
    3d13:	0f b7 55 fc          	movzwl -0x4(%rbp),%edx
    3d17:	0f b7 45 f8          	movzwl -0x8(%rbp),%eax
    3d1b:	01 d0                	add    %edx,%eax
    3d1d:	5d                   	pop    %rbp
    3d1e:	c3                   	retq   

0000000000003d1f <safe_sub_func_uint16_t_u_u>:
    3d1f:	f3 0f 1e fa          	endbr64 
    3d23:	55                   	push   %rbp
    3d24:	48 89 e5             	mov    %rsp,%rbp
    3d27:	89 fa                	mov    %edi,%edx
    3d29:	89 f0                	mov    %esi,%eax
    3d2b:	66 89 55 fc          	mov    %dx,-0x4(%rbp)
    3d2f:	66 89 45 f8          	mov    %ax,-0x8(%rbp)
    3d33:	0f b7 45 fc          	movzwl -0x4(%rbp),%eax
    3d37:	66 2b 45 f8          	sub    -0x8(%rbp),%ax
    3d3b:	5d                   	pop    %rbp
    3d3c:	c3                   	retq   

0000000000003d3d <safe_mul_func_uint16_t_u_u>:
    3d3d:	f3 0f 1e fa          	endbr64 
    3d41:	55                   	push   %rbp
    3d42:	48 89 e5             	mov    %rsp,%rbp
    3d45:	89 fa                	mov    %edi,%edx
    3d47:	89 f0                	mov    %esi,%eax
    3d49:	66 89 55 fc          	mov    %dx,-0x4(%rbp)
    3d4d:	66 89 45 f8          	mov    %ax,-0x8(%rbp)
    3d51:	0f b7 45 fc          	movzwl -0x4(%rbp),%eax
    3d55:	66 0f af 45 f8       	imul   -0x8(%rbp),%ax
    3d5a:	5d                   	pop    %rbp
    3d5b:	c3                   	retq   

0000000000003d5c <safe_mod_func_uint16_t_u_u>:
    3d5c:	f3 0f 1e fa          	endbr64 
    3d60:	55                   	push   %rbp
    3d61:	48 89 e5             	mov    %rsp,%rbp
    3d64:	89 fa                	mov    %edi,%edx
    3d66:	89 f0                	mov    %esi,%eax
    3d68:	66 89 55 fc          	mov    %dx,-0x4(%rbp)
    3d6c:	66 89 45 f8          	mov    %ax,-0x8(%rbp)
    3d70:	66 83 7d f8 00       	cmpw   $0x0,-0x8(%rbp)
    3d75:	74 11                	je     3d88 <safe_mod_func_uint16_t_u_u+0x2c>
    3d77:	0f b7 45 fc          	movzwl -0x4(%rbp),%eax
    3d7b:	ba 00 00 00 00       	mov    $0x0,%edx
    3d80:	66 f7 75 f8          	divw   -0x8(%rbp)
    3d84:	89 d0                	mov    %edx,%eax
    3d86:	eb 04                	jmp    3d8c <safe_mod_func_uint16_t_u_u+0x30>
    3d88:	0f b7 45 fc          	movzwl -0x4(%rbp),%eax
    3d8c:	5d                   	pop    %rbp
    3d8d:	c3                   	retq   

0000000000003d8e <safe_div_func_uint16_t_u_u>:
    3d8e:	f3 0f 1e fa          	endbr64 
    3d92:	55                   	push   %rbp
    3d93:	48 89 e5             	mov    %rsp,%rbp
    3d96:	89 fa                	mov    %edi,%edx
    3d98:	89 f0                	mov    %esi,%eax
    3d9a:	66 89 55 fc          	mov    %dx,-0x4(%rbp)
    3d9e:	66 89 45 f8          	mov    %ax,-0x8(%rbp)
    3da2:	66 83 7d f8 00       	cmpw   $0x0,-0x8(%rbp)
    3da7:	74 0f                	je     3db8 <safe_div_func_uint16_t_u_u+0x2a>
    3da9:	0f b7 45 fc          	movzwl -0x4(%rbp),%eax
    3dad:	ba 00 00 00 00       	mov    $0x0,%edx
    3db2:	66 f7 75 f8          	divw   -0x8(%rbp)
    3db6:	eb 04                	jmp    3dbc <safe_div_func_uint16_t_u_u+0x2e>
    3db8:	0f b7 45 fc          	movzwl -0x4(%rbp),%eax
    3dbc:	5d                   	pop    %rbp
    3dbd:	c3                   	retq   

0000000000003dbe <safe_lshift_func_uint16_t_u_s>:
    3dbe:	f3 0f 1e fa          	endbr64 
    3dc2:	55                   	push   %rbp
    3dc3:	48 89 e5             	mov    %rsp,%rbp
    3dc6:	89 f8                	mov    %edi,%eax
    3dc8:	89 75 f8             	mov    %esi,-0x8(%rbp)
    3dcb:	66 89 45 fc          	mov    %ax,-0x4(%rbp)
    3dcf:	83 7d f8 00          	cmpl   $0x0,-0x8(%rbp)
    3dd3:	78 2b                	js     3e00 <safe_lshift_func_uint16_t_u_s+0x42>
    3dd5:	83 7d f8 1f          	cmpl   $0x1f,-0x8(%rbp)
    3dd9:	7f 25                	jg     3e00 <safe_lshift_func_uint16_t_u_s+0x42>
    3ddb:	0f b7 55 fc          	movzwl -0x4(%rbp),%edx
    3ddf:	8b 45 f8             	mov    -0x8(%rbp),%eax
    3de2:	be ff ff 00 00       	mov    $0xffff,%esi
    3de7:	89 c1                	mov    %eax,%ecx
    3de9:	d3 fe                	sar    %cl,%esi
    3deb:	89 f0                	mov    %esi,%eax
    3ded:	39 c2                	cmp    %eax,%edx
    3def:	7f 0f                	jg     3e00 <safe_lshift_func_uint16_t_u_s+0x42>
    3df1:	0f b7 55 fc          	movzwl -0x4(%rbp),%edx
    3df5:	8b 45 f8             	mov    -0x8(%rbp),%eax
    3df8:	89 c1                	mov    %eax,%ecx
    3dfa:	d3 e2                	shl    %cl,%edx
    3dfc:	89 d0                	mov    %edx,%eax
    3dfe:	eb 04                	jmp    3e04 <safe_lshift_func_uint16_t_u_s+0x46>
    3e00:	0f b7 45 fc          	movzwl -0x4(%rbp),%eax
    3e04:	5d                   	pop    %rbp
    3e05:	c3                   	retq   

0000000000003e06 <safe_lshift_func_uint16_t_u_u>:
    3e06:	f3 0f 1e fa          	endbr64 
    3e0a:	55                   	push   %rbp
    3e0b:	48 89 e5             	mov    %rsp,%rbp
    3e0e:	89 f8                	mov    %edi,%eax
    3e10:	89 75 f8             	mov    %esi,-0x8(%rbp)
    3e13:	66 89 45 fc          	mov    %ax,-0x4(%rbp)
    3e17:	83 7d f8 1f          	cmpl   $0x1f,-0x8(%rbp)
    3e1b:	77 25                	ja     3e42 <safe_lshift_func_uint16_t_u_u+0x3c>
    3e1d:	0f b7 55 fc          	movzwl -0x4(%rbp),%edx
    3e21:	8b 45 f8             	mov    -0x8(%rbp),%eax
    3e24:	be ff ff 00 00       	mov    $0xffff,%esi
    3e29:	89 c1                	mov    %eax,%ecx
    3e2b:	d3 fe                	sar    %cl,%esi
    3e2d:	89 f0                	mov    %esi,%eax
    3e2f:	39 c2                	cmp    %eax,%edx
    3e31:	7f 0f                	jg     3e42 <safe_lshift_func_uint16_t_u_u+0x3c>
    3e33:	0f b7 55 fc          	movzwl -0x4(%rbp),%edx
    3e37:	8b 45 f8             	mov    -0x8(%rbp),%eax
    3e3a:	89 c1                	mov    %eax,%ecx
    3e3c:	d3 e2                	shl    %cl,%edx
    3e3e:	89 d0                	mov    %edx,%eax
    3e40:	eb 04                	jmp    3e46 <safe_lshift_func_uint16_t_u_u+0x40>
    3e42:	0f b7 45 fc          	movzwl -0x4(%rbp),%eax
    3e46:	5d                   	pop    %rbp
    3e47:	c3                   	retq   

0000000000003e48 <safe_rshift_func_uint16_t_u_s>:
    3e48:	f3 0f 1e fa          	endbr64 
    3e4c:	55                   	push   %rbp
    3e4d:	48 89 e5             	mov    %rsp,%rbp
    3e50:	89 f8                	mov    %edi,%eax
    3e52:	89 75 f8             	mov    %esi,-0x8(%rbp)
    3e55:	66 89 45 fc          	mov    %ax,-0x4(%rbp)
    3e59:	83 7d f8 00          	cmpl   $0x0,-0x8(%rbp)
    3e5d:	78 15                	js     3e74 <safe_rshift_func_uint16_t_u_s+0x2c>
    3e5f:	83 7d f8 1f          	cmpl   $0x1f,-0x8(%rbp)
    3e63:	7f 0f                	jg     3e74 <safe_rshift_func_uint16_t_u_s+0x2c>
    3e65:	0f b7 55 fc          	movzwl -0x4(%rbp),%edx
    3e69:	8b 45 f8             	mov    -0x8(%rbp),%eax
    3e6c:	89 c1                	mov    %eax,%ecx
    3e6e:	d3 fa                	sar    %cl,%edx
    3e70:	89 d0                	mov    %edx,%eax
    3e72:	eb 04                	jmp    3e78 <safe_rshift_func_uint16_t_u_s+0x30>
    3e74:	0f b7 45 fc          	movzwl -0x4(%rbp),%eax
    3e78:	5d                   	pop    %rbp
    3e79:	c3                   	retq   

0000000000003e7a <safe_rshift_func_uint16_t_u_u>:
    3e7a:	f3 0f 1e fa          	endbr64 
    3e7e:	55                   	push   %rbp
    3e7f:	48 89 e5             	mov    %rsp,%rbp
    3e82:	89 f8                	mov    %edi,%eax
    3e84:	89 75 f8             	mov    %esi,-0x8(%rbp)
    3e87:	66 89 45 fc          	mov    %ax,-0x4(%rbp)
    3e8b:	83 7d f8 1f          	cmpl   $0x1f,-0x8(%rbp)
    3e8f:	77 0f                	ja     3ea0 <safe_rshift_func_uint16_t_u_u+0x26>
    3e91:	0f b7 55 fc          	movzwl -0x4(%rbp),%edx
    3e95:	8b 45 f8             	mov    -0x8(%rbp),%eax
    3e98:	89 c1                	mov    %eax,%ecx
    3e9a:	d3 fa                	sar    %cl,%edx
    3e9c:	89 d0                	mov    %edx,%eax
    3e9e:	eb 04                	jmp    3ea4 <safe_rshift_func_uint16_t_u_u+0x2a>
    3ea0:	0f b7 45 fc          	movzwl -0x4(%rbp),%eax
    3ea4:	5d                   	pop    %rbp
    3ea5:	c3                   	retq   

0000000000003ea6 <safe_unary_minus_func_uint32_t_u>:
    3ea6:	f3 0f 1e fa          	endbr64 
    3eaa:	55                   	push   %rbp
    3eab:	48 89 e5             	mov    %rsp,%rbp
    3eae:	89 7d fc             	mov    %edi,-0x4(%rbp)
    3eb1:	8b 45 fc             	mov    -0x4(%rbp),%eax
    3eb4:	f7 d8                	neg    %eax
    3eb6:	5d                   	pop    %rbp
    3eb7:	c3                   	retq   

0000000000003eb8 <safe_add_func_uint32_t_u_u>:
    3eb8:	f3 0f 1e fa          	endbr64 
    3ebc:	55                   	push   %rbp
    3ebd:	48 89 e5             	mov    %rsp,%rbp
    3ec0:	89 7d fc             	mov    %edi,-0x4(%rbp)
    3ec3:	89 75 f8             	mov    %esi,-0x8(%rbp)
    3ec6:	8b 55 fc             	mov    -0x4(%rbp),%edx
    3ec9:	8b 45 f8             	mov    -0x8(%rbp),%eax
    3ecc:	01 d0                	add    %edx,%eax
    3ece:	5d                   	pop    %rbp
    3ecf:	c3                   	retq   

0000000000003ed0 <safe_sub_func_uint32_t_u_u>:
    3ed0:	f3 0f 1e fa          	endbr64 
    3ed4:	55                   	push   %rbp
    3ed5:	48 89 e5             	mov    %rsp,%rbp
    3ed8:	89 7d fc             	mov    %edi,-0x4(%rbp)
    3edb:	89 75 f8             	mov    %esi,-0x8(%rbp)
    3ede:	8b 45 fc             	mov    -0x4(%rbp),%eax
    3ee1:	2b 45 f8             	sub    -0x8(%rbp),%eax
    3ee4:	5d                   	pop    %rbp
    3ee5:	c3                   	retq   

0000000000003ee6 <safe_mul_func_uint32_t_u_u>:
    3ee6:	f3 0f 1e fa          	endbr64 
    3eea:	55                   	push   %rbp
    3eeb:	48 89 e5             	mov    %rsp,%rbp
    3eee:	89 7d fc             	mov    %edi,-0x4(%rbp)
    3ef1:	89 75 f8             	mov    %esi,-0x8(%rbp)
    3ef4:	8b 45 fc             	mov    -0x4(%rbp),%eax
    3ef7:	0f af 45 f8          	imul   -0x8(%rbp),%eax
    3efb:	5d                   	pop    %rbp
    3efc:	c3                   	retq   

0000000000003efd <safe_mod_func_uint32_t_u_u>:
    3efd:	f3 0f 1e fa          	endbr64 
    3f01:	55                   	push   %rbp
    3f02:	48 89 e5             	mov    %rsp,%rbp
    3f05:	89 7d fc             	mov    %edi,-0x4(%rbp)
    3f08:	89 75 f8             	mov    %esi,-0x8(%rbp)
    3f0b:	83 7d f8 00          	cmpl   $0x0,-0x8(%rbp)
    3f0f:	74 0f                	je     3f20 <safe_mod_func_uint32_t_u_u+0x23>
    3f11:	8b 45 fc             	mov    -0x4(%rbp),%eax
    3f14:	ba 00 00 00 00       	mov    $0x0,%edx
    3f19:	f7 75 f8             	divl   -0x8(%rbp)
    3f1c:	89 d0                	mov    %edx,%eax
    3f1e:	eb 03                	jmp    3f23 <safe_mod_func_uint32_t_u_u+0x26>
    3f20:	8b 45 fc             	mov    -0x4(%rbp),%eax
    3f23:	5d                   	pop    %rbp
    3f24:	c3                   	retq   

0000000000003f25 <safe_div_func_uint32_t_u_u>:
    3f25:	f3 0f 1e fa          	endbr64 
    3f29:	55                   	push   %rbp
    3f2a:	48 89 e5             	mov    %rsp,%rbp
    3f2d:	89 7d fc             	mov    %edi,-0x4(%rbp)
    3f30:	89 75 f8             	mov    %esi,-0x8(%rbp)
    3f33:	83 7d f8 00          	cmpl   $0x0,-0x8(%rbp)
    3f37:	74 0d                	je     3f46 <safe_div_func_uint32_t_u_u+0x21>
    3f39:	8b 45 fc             	mov    -0x4(%rbp),%eax
    3f3c:	ba 00 00 00 00       	mov    $0x0,%edx
    3f41:	f7 75 f8             	divl   -0x8(%rbp)
    3f44:	eb 03                	jmp    3f49 <safe_div_func_uint32_t_u_u+0x24>
    3f46:	8b 45 fc             	mov    -0x4(%rbp),%eax
    3f49:	5d                   	pop    %rbp
    3f4a:	c3                   	retq   

0000000000003f4b <safe_lshift_func_uint32_t_u_s>:
    3f4b:	f3 0f 1e fa          	endbr64 
    3f4f:	55                   	push   %rbp
    3f50:	48 89 e5             	mov    %rsp,%rbp
    3f53:	89 7d fc             	mov    %edi,-0x4(%rbp)
    3f56:	89 75 f8             	mov    %esi,-0x8(%rbp)
    3f59:	83 7d f8 00          	cmpl   $0x0,-0x8(%rbp)
    3f5d:	78 27                	js     3f86 <safe_lshift_func_uint32_t_u_s+0x3b>
    3f5f:	83 7d f8 1f          	cmpl   $0x1f,-0x8(%rbp)
    3f63:	7f 21                	jg     3f86 <safe_lshift_func_uint32_t_u_s+0x3b>
    3f65:	8b 45 f8             	mov    -0x8(%rbp),%eax
    3f68:	ba ff ff ff ff       	mov    $0xffffffff,%edx
    3f6d:	89 c1                	mov    %eax,%ecx
    3f6f:	d3 ea                	shr    %cl,%edx
    3f71:	89 d0                	mov    %edx,%eax
    3f73:	39 45 fc             	cmp    %eax,-0x4(%rbp)
    3f76:	77 0e                	ja     3f86 <safe_lshift_func_uint32_t_u_s+0x3b>
    3f78:	8b 45 f8             	mov    -0x8(%rbp),%eax
    3f7b:	8b 55 fc             	mov    -0x4(%rbp),%edx
    3f7e:	89 c1                	mov    %eax,%ecx
    3f80:	d3 e2                	shl    %cl,%edx
    3f82:	89 d0                	mov    %edx,%eax
    3f84:	eb 03                	jmp    3f89 <safe_lshift_func_uint32_t_u_s+0x3e>
    3f86:	8b 45 fc             	mov    -0x4(%rbp),%eax
    3f89:	5d                   	pop    %rbp
    3f8a:	c3                   	retq   

0000000000003f8b <safe_lshift_func_uint32_t_u_u>:
    3f8b:	f3 0f 1e fa          	endbr64 
    3f8f:	55                   	push   %rbp
    3f90:	48 89 e5             	mov    %rsp,%rbp
    3f93:	89 7d fc             	mov    %edi,-0x4(%rbp)
    3f96:	89 75 f8             	mov    %esi,-0x8(%rbp)
    3f99:	83 7d f8 1f          	cmpl   $0x1f,-0x8(%rbp)
    3f9d:	77 21                	ja     3fc0 <safe_lshift_func_uint32_t_u_u+0x35>
    3f9f:	8b 45 f8             	mov    -0x8(%rbp),%eax
    3fa2:	ba ff ff ff ff       	mov    $0xffffffff,%edx
    3fa7:	89 c1                	mov    %eax,%ecx
    3fa9:	d3 ea                	shr    %cl,%edx
    3fab:	89 d0                	mov    %edx,%eax
    3fad:	39 45 fc             	cmp    %eax,-0x4(%rbp)
    3fb0:	77 0e                	ja     3fc0 <safe_lshift_func_uint32_t_u_u+0x35>
    3fb2:	8b 45 f8             	mov    -0x8(%rbp),%eax
    3fb5:	8b 55 fc             	mov    -0x4(%rbp),%edx
    3fb8:	89 c1                	mov    %eax,%ecx
    3fba:	d3 e2                	shl    %cl,%edx
    3fbc:	89 d0                	mov    %edx,%eax
    3fbe:	eb 03                	jmp    3fc3 <safe_lshift_func_uint32_t_u_u+0x38>
    3fc0:	8b 45 fc             	mov    -0x4(%rbp),%eax
    3fc3:	5d                   	pop    %rbp
    3fc4:	c3                   	retq   

0000000000003fc5 <safe_rshift_func_uint32_t_u_s>:
    3fc5:	f3 0f 1e fa          	endbr64 
    3fc9:	55                   	push   %rbp
    3fca:	48 89 e5             	mov    %rsp,%rbp
    3fcd:	89 7d fc             	mov    %edi,-0x4(%rbp)
    3fd0:	89 75 f8             	mov    %esi,-0x8(%rbp)
    3fd3:	83 7d f8 00          	cmpl   $0x0,-0x8(%rbp)
    3fd7:	78 14                	js     3fed <safe_rshift_func_uint32_t_u_s+0x28>
    3fd9:	83 7d f8 1f          	cmpl   $0x1f,-0x8(%rbp)
    3fdd:	7f 0e                	jg     3fed <safe_rshift_func_uint32_t_u_s+0x28>
    3fdf:	8b 45 f8             	mov    -0x8(%rbp),%eax
    3fe2:	8b 55 fc             	mov    -0x4(%rbp),%edx
    3fe5:	89 c1                	mov    %eax,%ecx
    3fe7:	d3 ea                	shr    %cl,%edx
    3fe9:	89 d0                	mov    %edx,%eax
    3feb:	eb 03                	jmp    3ff0 <safe_rshift_func_uint32_t_u_s+0x2b>
    3fed:	8b 45 fc             	mov    -0x4(%rbp),%eax
    3ff0:	5d                   	pop    %rbp
    3ff1:	c3                   	retq   

0000000000003ff2 <safe_rshift_func_uint32_t_u_u>:
    3ff2:	f3 0f 1e fa          	endbr64 
    3ff6:	55                   	push   %rbp
    3ff7:	48 89 e5             	mov    %rsp,%rbp
    3ffa:	89 7d fc             	mov    %edi,-0x4(%rbp)
    3ffd:	89 75 f8             	mov    %esi,-0x8(%rbp)
    4000:	83 7d f8 1f          	cmpl   $0x1f,-0x8(%rbp)
    4004:	77 0e                	ja     4014 <safe_rshift_func_uint32_t_u_u+0x22>
    4006:	8b 45 f8             	mov    -0x8(%rbp),%eax
    4009:	8b 55 fc             	mov    -0x4(%rbp),%edx
    400c:	89 c1                	mov    %eax,%ecx
    400e:	d3 ea                	shr    %cl,%edx
    4010:	89 d0                	mov    %edx,%eax
    4012:	eb 03                	jmp    4017 <safe_rshift_func_uint32_t_u_u+0x25>
    4014:	8b 45 fc             	mov    -0x4(%rbp),%eax
    4017:	5d                   	pop    %rbp
    4018:	c3                   	retq   

0000000000004019 <safe_unary_minus_func_uint64_t_u>:
    4019:	f3 0f 1e fa          	endbr64 
    401d:	55                   	push   %rbp
    401e:	48 89 e5             	mov    %rsp,%rbp
    4021:	48 89 7d f8          	mov    %rdi,-0x8(%rbp)
    4025:	48 8b 45 f8          	mov    -0x8(%rbp),%rax
    4029:	48 f7 d8             	neg    %rax
    402c:	5d                   	pop    %rbp
    402d:	c3                   	retq   

000000000000402e <safe_add_func_uint64_t_u_u>:
    402e:	f3 0f 1e fa          	endbr64 
    4032:	55                   	push   %rbp
    4033:	48 89 e5             	mov    %rsp,%rbp
    4036:	48 89 7d f8          	mov    %rdi,-0x8(%rbp)
    403a:	48 89 75 f0          	mov    %rsi,-0x10(%rbp)
    403e:	48 8b 55 f8          	mov    -0x8(%rbp),%rdx
    4042:	48 8b 45 f0          	mov    -0x10(%rbp),%rax
    4046:	48 01 d0             	add    %rdx,%rax
    4049:	5d                   	pop    %rbp
    404a:	c3                   	retq   

000000000000404b <safe_sub_func_uint64_t_u_u>:
    404b:	f3 0f 1e fa          	endbr64 
    404f:	55                   	push   %rbp
    4050:	48 89 e5             	mov    %rsp,%rbp
    4053:	48 89 7d f8          	mov    %rdi,-0x8(%rbp)
    4057:	48 89 75 f0          	mov    %rsi,-0x10(%rbp)
    405b:	48 8b 45 f8          	mov    -0x8(%rbp),%rax
    405f:	48 2b 45 f0          	sub    -0x10(%rbp),%rax
    4063:	5d                   	pop    %rbp
    4064:	c3                   	retq   

0000000000004065 <safe_mul_func_uint64_t_u_u>:
    4065:	f3 0f 1e fa          	endbr64 
    4069:	55                   	push   %rbp
    406a:	48 89 e5             	mov    %rsp,%rbp
    406d:	48 89 7d f8          	mov    %rdi,-0x8(%rbp)
    4071:	48 89 75 f0          	mov    %rsi,-0x10(%rbp)
    4075:	48 8b 45 f8          	mov    -0x8(%rbp),%rax
    4079:	48 0f af 45 f0       	imul   -0x10(%rbp),%rax
    407e:	5d                   	pop    %rbp
    407f:	c3                   	retq   

0000000000004080 <safe_mod_func_uint64_t_u_u>:
    4080:	f3 0f 1e fa          	endbr64 
    4084:	55                   	push   %rbp
    4085:	48 89 e5             	mov    %rsp,%rbp
    4088:	48 89 7d f8          	mov    %rdi,-0x8(%rbp)
    408c:	48 89 75 f0          	mov    %rsi,-0x10(%rbp)
    4090:	48 83 7d f0 00       	cmpq   $0x0,-0x10(%rbp)
    4095:	74 12                	je     40a9 <safe_mod_func_uint64_t_u_u+0x29>
    4097:	48 8b 45 f8          	mov    -0x8(%rbp),%rax
    409b:	ba 00 00 00 00       	mov    $0x0,%edx
    40a0:	48 f7 75 f0          	divq   -0x10(%rbp)
    40a4:	48 89 d0             	mov    %rdx,%rax
    40a7:	eb 04                	jmp    40ad <safe_mod_func_uint64_t_u_u+0x2d>
    40a9:	48 8b 45 f8          	mov    -0x8(%rbp),%rax
    40ad:	5d                   	pop    %rbp
    40ae:	c3                   	retq   

00000000000040af <safe_div_func_uint64_t_u_u>:
    40af:	f3 0f 1e fa          	endbr64 
    40b3:	55                   	push   %rbp
    40b4:	48 89 e5             	mov    %rsp,%rbp
    40b7:	48 89 7d f8          	mov    %rdi,-0x8(%rbp)
    40bb:	48 89 75 f0          	mov    %rsi,-0x10(%rbp)
    40bf:	48 83 7d f0 00       	cmpq   $0x0,-0x10(%rbp)
    40c4:	74 0f                	je     40d5 <safe_div_func_uint64_t_u_u+0x26>
    40c6:	48 8b 45 f8          	mov    -0x8(%rbp),%rax
    40ca:	ba 00 00 00 00       	mov    $0x0,%edx
    40cf:	48 f7 75 f0          	divq   -0x10(%rbp)
    40d3:	eb 04                	jmp    40d9 <safe_div_func_uint64_t_u_u+0x2a>
    40d5:	48 8b 45 f8          	mov    -0x8(%rbp),%rax
    40d9:	5d                   	pop    %rbp
    40da:	c3                   	retq   

00000000000040db <safe_lshift_func_uint64_t_u_s>:
    40db:	f3 0f 1e fa          	endbr64 
    40df:	55                   	push   %rbp
    40e0:	48 89 e5             	mov    %rsp,%rbp
    40e3:	48 89 7d f8          	mov    %rdi,-0x8(%rbp)
    40e7:	89 75 f4             	mov    %esi,-0xc(%rbp)
    40ea:	83 7d f4 00          	cmpl   $0x0,-0xc(%rbp)
    40ee:	78 2f                	js     411f <safe_lshift_func_uint64_t_u_s+0x44>
    40f0:	83 7d f4 1f          	cmpl   $0x1f,-0xc(%rbp)
    40f4:	7f 29                	jg     411f <safe_lshift_func_uint64_t_u_s+0x44>
    40f6:	8b 45 f4             	mov    -0xc(%rbp),%eax
    40f9:	48 c7 c2 ff ff ff ff 	mov    $0xffffffffffffffff,%rdx
    4100:	89 c1                	mov    %eax,%ecx
    4102:	48 d3 ea             	shr    %cl,%rdx
    4105:	48 89 d0             	mov    %rdx,%rax
    4108:	48 39 45 f8          	cmp    %rax,-0x8(%rbp)
    410c:	77 11                	ja     411f <safe_lshift_func_uint64_t_u_s+0x44>
    410e:	8b 45 f4             	mov    -0xc(%rbp),%eax
    4111:	48 8b 55 f8          	mov    -0x8(%rbp),%rdx
    4115:	89 c1                	mov    %eax,%ecx
    4117:	48 d3 e2             	shl    %cl,%rdx
    411a:	48 89 d0             	mov    %rdx,%rax
    411d:	eb 04                	jmp    4123 <safe_lshift_func_uint64_t_u_s+0x48>
    411f:	48 8b 45 f8          	mov    -0x8(%rbp),%rax
    4123:	5d                   	pop    %rbp
    4124:	c3                   	retq   

0000000000004125 <safe_lshift_func_uint64_t_u_u>:
    4125:	f3 0f 1e fa          	endbr64 
    4129:	55                   	push   %rbp
    412a:	48 89 e5             	mov    %rsp,%rbp
    412d:	48 89 7d f8          	mov    %rdi,-0x8(%rbp)
    4131:	89 75 f4             	mov    %esi,-0xc(%rbp)
    4134:	83 7d f4 1f          	cmpl   $0x1f,-0xc(%rbp)
    4138:	77 29                	ja     4163 <safe_lshift_func_uint64_t_u_u+0x3e>
    413a:	8b 45 f4             	mov    -0xc(%rbp),%eax
    413d:	48 c7 c2 ff ff ff ff 	mov    $0xffffffffffffffff,%rdx
    4144:	89 c1                	mov    %eax,%ecx
    4146:	48 d3 ea             	shr    %cl,%rdx
    4149:	48 89 d0             	mov    %rdx,%rax
    414c:	48 39 45 f8          	cmp    %rax,-0x8(%rbp)
    4150:	77 11                	ja     4163 <safe_lshift_func_uint64_t_u_u+0x3e>
    4152:	8b 45 f4             	mov    -0xc(%rbp),%eax
    4155:	48 8b 55 f8          	mov    -0x8(%rbp),%rdx
    4159:	89 c1                	mov    %eax,%ecx
    415b:	48 d3 e2             	shl    %cl,%rdx
    415e:	48 89 d0             	mov    %rdx,%rax
    4161:	eb 04                	jmp    4167 <safe_lshift_func_uint64_t_u_u+0x42>
    4163:	48 8b 45 f8          	mov    -0x8(%rbp),%rax
    4167:	5d                   	pop    %rbp
    4168:	c3                   	retq   

0000000000004169 <safe_rshift_func_uint64_t_u_s>:
    4169:	f3 0f 1e fa          	endbr64 
    416d:	55                   	push   %rbp
    416e:	48 89 e5             	mov    %rsp,%rbp
    4171:	48 89 7d f8          	mov    %rdi,-0x8(%rbp)
    4175:	89 75 f4             	mov    %esi,-0xc(%rbp)
    4178:	83 7d f4 00          	cmpl   $0x0,-0xc(%rbp)
    417c:	78 17                	js     4195 <safe_rshift_func_uint64_t_u_s+0x2c>
    417e:	83 7d f4 1f          	cmpl   $0x1f,-0xc(%rbp)
    4182:	7f 11                	jg     4195 <safe_rshift_func_uint64_t_u_s+0x2c>
    4184:	8b 45 f4             	mov    -0xc(%rbp),%eax
    4187:	48 8b 55 f8          	mov    -0x8(%rbp),%rdx
    418b:	89 c1                	mov    %eax,%ecx
    418d:	48 d3 ea             	shr    %cl,%rdx
    4190:	48 89 d0             	mov    %rdx,%rax
    4193:	eb 04                	jmp    4199 <safe_rshift_func_uint64_t_u_s+0x30>
    4195:	48 8b 45 f8          	mov    -0x8(%rbp),%rax
    4199:	5d                   	pop    %rbp
    419a:	c3                   	retq   

000000000000419b <safe_rshift_func_uint64_t_u_u>:
    419b:	f3 0f 1e fa          	endbr64 
    419f:	55                   	push   %rbp
    41a0:	48 89 e5             	mov    %rsp,%rbp
    41a3:	48 89 7d f8          	mov    %rdi,-0x8(%rbp)
    41a7:	89 75 f4             	mov    %esi,-0xc(%rbp)
    41aa:	83 7d f4 1f          	cmpl   $0x1f,-0xc(%rbp)
    41ae:	77 11                	ja     41c1 <safe_rshift_func_uint64_t_u_u+0x26>
    41b0:	8b 45 f4             	mov    -0xc(%rbp),%eax
    41b3:	48 8b 55 f8          	mov    -0x8(%rbp),%rdx
    41b7:	89 c1                	mov    %eax,%ecx
    41b9:	48 d3 ea             	shr    %cl,%rdx
    41bc:	48 89 d0             	mov    %rdx,%rax
    41bf:	eb 04                	jmp    41c5 <safe_rshift_func_uint64_t_u_u+0x2a>
    41c1:	48 8b 45 f8          	mov    -0x8(%rbp),%rax
    41c5:	5d                   	pop    %rbp
    41c6:	c3                   	retq   

00000000000041c7 <safe_add_func_float_f_f>:
    41c7:	f3 0f 1e fa          	endbr64 
    41cb:	55                   	push   %rbp
    41cc:	48 89 e5             	mov    %rsp,%rbp
    41cf:	f3 0f 11 45 fc       	movss  %xmm0,-0x4(%rbp)
    41d4:	f3 0f 11 4d f8       	movss  %xmm1,-0x8(%rbp)
    41d9:	f3 0f 10 4d fc       	movss  -0x4(%rbp),%xmm1
    41de:	f3 0f 10 05 9a 98 00 	movss  0x989a(%rip),%xmm0        # da80 <l_205.4601+0x10>
    41e5:	00 
    41e6:	f3 0f 59 c8          	mulss  %xmm0,%xmm1
    41ea:	f3 0f 10 55 f8       	movss  -0x8(%rbp),%xmm2
    41ef:	f3 0f 10 05 89 98 00 	movss  0x9889(%rip),%xmm0        # da80 <l_205.4601+0x10>
    41f6:	00 
    41f7:	f3 0f 59 c2          	mulss  %xmm2,%xmm0
    41fb:	f3 0f 58 c1          	addss  %xmm1,%xmm0
    41ff:	f3 0f 10 0d 89 98 00 	movss  0x9889(%rip),%xmm1        # da90 <l_205.4601+0x20>
    4206:	00 
    4207:	0f 54 c1             	andps  %xmm1,%xmm0
    420a:	0f 2f 05 8f 98 00 00 	comiss 0x988f(%rip),%xmm0        # daa0 <l_205.4601+0x30>
    4211:	76 07                	jbe    421a <safe_add_func_float_f_f+0x53>
    4213:	f3 0f 10 45 fc       	movss  -0x4(%rbp),%xmm0
    4218:	eb 0a                	jmp    4224 <safe_add_func_float_f_f+0x5d>
    421a:	f3 0f 10 45 fc       	movss  -0x4(%rbp),%xmm0
    421f:	f3 0f 58 45 f8       	addss  -0x8(%rbp),%xmm0
    4224:	5d                   	pop    %rbp
    4225:	c3                   	retq   

0000000000004226 <safe_sub_func_float_f_f>:
    4226:	f3 0f 1e fa          	endbr64 
    422a:	55                   	push   %rbp
    422b:	48 89 e5             	mov    %rsp,%rbp
    422e:	f3 0f 11 45 fc       	movss  %xmm0,-0x4(%rbp)
    4233:	f3 0f 11 4d f8       	movss  %xmm1,-0x8(%rbp)
    4238:	f3 0f 10 4d fc       	movss  -0x4(%rbp),%xmm1
    423d:	f3 0f 10 05 3b 98 00 	movss  0x983b(%rip),%xmm0        # da80 <l_205.4601+0x10>
    4244:	00 
    4245:	f3 0f 59 c1          	mulss  %xmm1,%xmm0
    4249:	f3 0f 10 55 f8       	movss  -0x8(%rbp),%xmm2
    424e:	f3 0f 10 0d 2a 98 00 	movss  0x982a(%rip),%xmm1        # da80 <l_205.4601+0x10>
    4255:	00 
    4256:	f3 0f 59 ca          	mulss  %xmm2,%xmm1
    425a:	f3 0f 5c c1          	subss  %xmm1,%xmm0
    425e:	f3 0f 10 0d 2a 98 00 	movss  0x982a(%rip),%xmm1        # da90 <l_205.4601+0x20>
    4265:	00 
    4266:	0f 54 c1             	andps  %xmm1,%xmm0
    4269:	0f 2f 05 30 98 00 00 	comiss 0x9830(%rip),%xmm0        # daa0 <l_205.4601+0x30>
    4270:	76 07                	jbe    4279 <safe_sub_func_float_f_f+0x53>
    4272:	f3 0f 10 45 fc       	movss  -0x4(%rbp),%xmm0
    4277:	eb 0a                	jmp    4283 <safe_sub_func_float_f_f+0x5d>
    4279:	f3 0f 10 45 fc       	movss  -0x4(%rbp),%xmm0
    427e:	f3 0f 5c 45 f8       	subss  -0x8(%rbp),%xmm0
    4283:	5d                   	pop    %rbp
    4284:	c3                   	retq   

0000000000004285 <safe_mul_func_float_f_f>:
    4285:	f3 0f 1e fa          	endbr64 
    4289:	55                   	push   %rbp
    428a:	48 89 e5             	mov    %rsp,%rbp
    428d:	f3 0f 11 45 fc       	movss  %xmm0,-0x4(%rbp)
    4292:	f3 0f 11 4d f8       	movss  %xmm1,-0x8(%rbp)
    4297:	f3 0f 10 4d fc       	movss  -0x4(%rbp),%xmm1
    429c:	f3 0f 10 05 00 98 00 	movss  0x9800(%rip),%xmm0        # daa4 <l_205.4601+0x34>
    42a3:	00 
    42a4:	f3 0f 59 c8          	mulss  %xmm0,%xmm1
    42a8:	f3 0f 10 55 f8       	movss  -0x8(%rbp),%xmm2
    42ad:	f3 0f 10 05 f3 97 00 	movss  0x97f3(%rip),%xmm0        # daa8 <l_205.4601+0x38>
    42b4:	00 
    42b5:	f3 0f 59 c2          	mulss  %xmm2,%xmm0
    42b9:	f3 0f 59 c1          	mulss  %xmm1,%xmm0
    42bd:	f3 0f 10 0d cb 97 00 	movss  0x97cb(%rip),%xmm1        # da90 <l_205.4601+0x20>
    42c4:	00 
    42c5:	0f 54 c1             	andps  %xmm1,%xmm0
    42c8:	0f 2f 05 dd 97 00 00 	comiss 0x97dd(%rip),%xmm0        # daac <l_205.4601+0x3c>
    42cf:	76 07                	jbe    42d8 <safe_mul_func_float_f_f+0x53>
    42d1:	f3 0f 10 45 fc       	movss  -0x4(%rbp),%xmm0
    42d6:	eb 0a                	jmp    42e2 <safe_mul_func_float_f_f+0x5d>
    42d8:	f3 0f 10 45 fc       	movss  -0x4(%rbp),%xmm0
    42dd:	f3 0f 59 45 f8       	mulss  -0x8(%rbp),%xmm0
    42e2:	5d                   	pop    %rbp
    42e3:	c3                   	retq   

00000000000042e4 <safe_div_func_float_f_f>:
    42e4:	f3 0f 1e fa          	endbr64 
    42e8:	55                   	push   %rbp
    42e9:	48 89 e5             	mov    %rsp,%rbp
    42ec:	f3 0f 11 45 fc       	movss  %xmm0,-0x4(%rbp)
    42f1:	f3 0f 11 4d f8       	movss  %xmm1,-0x8(%rbp)
    42f6:	f3 0f 10 45 f8       	movss  -0x8(%rbp),%xmm0
    42fb:	f3 0f 10 0d 8d 97 00 	movss  0x978d(%rip),%xmm1        # da90 <l_205.4601+0x20>
    4302:	00 
    4303:	0f 54 c8             	andps  %xmm0,%xmm1
    4306:	f3 0f 10 05 a2 97 00 	movss  0x97a2(%rip),%xmm0        # dab0 <l_205.4601+0x40>
    430d:	00 
    430e:	0f 2f c1             	comiss %xmm1,%xmm0
    4311:	0f 97 c0             	seta   %al
    4314:	83 f0 01             	xor    $0x1,%eax
    4317:	84 c0                	test   %al,%al
    4319:	75 56                	jne    4371 <safe_div_func_float_f_f+0x8d>
    431b:	66 0f ef c0          	pxor   %xmm0,%xmm0
    431f:	0f 2e 45 f8          	ucomiss -0x8(%rbp),%xmm0
    4323:	7a 0a                	jp     432f <safe_div_func_float_f_f+0x4b>
    4325:	66 0f ef c0          	pxor   %xmm0,%xmm0
    4329:	0f 2e 45 f8          	ucomiss -0x8(%rbp),%xmm0
    432d:	74 4e                	je     437d <safe_div_func_float_f_f+0x99>
    432f:	f3 0f 10 4d fc       	movss  -0x4(%rbp),%xmm1
    4334:	f3 0f 10 05 78 97 00 	movss  0x9778(%rip),%xmm0        # dab4 <l_205.4601+0x44>
    433b:	00 
    433c:	f3 0f 59 c1          	mulss  %xmm1,%xmm0
    4340:	f3 0f 10 55 f8       	movss  -0x8(%rbp),%xmm2
    4345:	f3 0f 10 0d 6b 97 00 	movss  0x976b(%rip),%xmm1        # dab8 <l_205.4601+0x48>
    434c:	00 
    434d:	f3 0f 59 ca          	mulss  %xmm2,%xmm1
    4351:	f3 0f 5e c1          	divss  %xmm1,%xmm0
    4355:	f3 0f 10 0d 33 97 00 	movss  0x9733(%rip),%xmm1        # da90 <l_205.4601+0x20>
    435c:	00 
    435d:	0f 54 c1             	andps  %xmm1,%xmm0
    4360:	0f 2f 05 55 97 00 00 	comiss 0x9755(%rip),%xmm0        # dabc <l_205.4601+0x4c>
    4367:	0f 97 c0             	seta   %al
    436a:	83 f0 01             	xor    $0x1,%eax
    436d:	84 c0                	test   %al,%al
    436f:	74 0c                	je     437d <safe_div_func_float_f_f+0x99>
    4371:	f3 0f 10 45 fc       	movss  -0x4(%rbp),%xmm0
    4376:	f3 0f 5e 45 f8       	divss  -0x8(%rbp),%xmm0
    437b:	eb 05                	jmp    4382 <safe_div_func_float_f_f+0x9e>
    437d:	f3 0f 10 45 fc       	movss  -0x4(%rbp),%xmm0
    4382:	5d                   	pop    %rbp
    4383:	c3                   	retq   

0000000000004384 <safe_add_func_double_f_f>:
    4384:	f3 0f 1e fa          	endbr64 
    4388:	55                   	push   %rbp
    4389:	48 89 e5             	mov    %rsp,%rbp
    438c:	f2 0f 11 45 f8       	movsd  %xmm0,-0x8(%rbp)
    4391:	f2 0f 11 4d f0       	movsd  %xmm1,-0x10(%rbp)
    4396:	f2 0f 10 4d f8       	movsd  -0x8(%rbp),%xmm1
    439b:	f2 0f 10 05 1d 97 00 	movsd  0x971d(%rip),%xmm0        # dac0 <l_205.4601+0x50>
    43a2:	00 
    43a3:	f2 0f 59 c8          	mulsd  %xmm0,%xmm1
    43a7:	f2 0f 10 55 f0       	movsd  -0x10(%rbp),%xmm2
    43ac:	f2 0f 10 05 0c 97 00 	movsd  0x970c(%rip),%xmm0        # dac0 <l_205.4601+0x50>
    43b3:	00 
    43b4:	f2 0f 59 c2          	mulsd  %xmm2,%xmm0
    43b8:	f2 0f 58 c1          	addsd  %xmm1,%xmm0
    43bc:	f3 0f 7e 0d 0c 97 00 	movq   0x970c(%rip),%xmm1        # dad0 <l_205.4601+0x60>
    43c3:	00 
    43c4:	66 0f 54 c1          	andpd  %xmm1,%xmm0
    43c8:	66 0f 2f 05 10 97 00 	comisd 0x9710(%rip),%xmm0        # dae0 <l_205.4601+0x70>
    43cf:	00 
    43d0:	76 07                	jbe    43d9 <safe_add_func_double_f_f+0x55>
    43d2:	f2 0f 10 45 f8       	movsd  -0x8(%rbp),%xmm0
    43d7:	eb 0a                	jmp    43e3 <safe_add_func_double_f_f+0x5f>
    43d9:	f2 0f 10 45 f8       	movsd  -0x8(%rbp),%xmm0
    43de:	f2 0f 58 45 f0       	addsd  -0x10(%rbp),%xmm0
    43e3:	5d                   	pop    %rbp
    43e4:	c3                   	retq   

00000000000043e5 <safe_sub_func_double_f_f>:
    43e5:	f3 0f 1e fa          	endbr64 
    43e9:	55                   	push   %rbp
    43ea:	48 89 e5             	mov    %rsp,%rbp
    43ed:	f2 0f 11 45 f8       	movsd  %xmm0,-0x8(%rbp)
    43f2:	f2 0f 11 4d f0       	movsd  %xmm1,-0x10(%rbp)
    43f7:	f2 0f 10 4d f8       	movsd  -0x8(%rbp),%xmm1
    43fc:	f2 0f 10 05 bc 96 00 	movsd  0x96bc(%rip),%xmm0        # dac0 <l_205.4601+0x50>
    4403:	00 
    4404:	f2 0f 59 c1          	mulsd  %xmm1,%xmm0
    4408:	f2 0f 10 55 f0       	movsd  -0x10(%rbp),%xmm2
    440d:	f2 0f 10 0d ab 96 00 	movsd  0x96ab(%rip),%xmm1        # dac0 <l_205.4601+0x50>
    4414:	00 
    4415:	f2 0f 59 ca          	mulsd  %xmm2,%xmm1
    4419:	f2 0f 5c c1          	subsd  %xmm1,%xmm0
    441d:	f3 0f 7e 0d ab 96 00 	movq   0x96ab(%rip),%xmm1        # dad0 <l_205.4601+0x60>
    4424:	00 
    4425:	66 0f 54 c1          	andpd  %xmm1,%xmm0
    4429:	66 0f 2f 05 af 96 00 	comisd 0x96af(%rip),%xmm0        # dae0 <l_205.4601+0x70>
    4430:	00 
    4431:	76 07                	jbe    443a <safe_sub_func_double_f_f+0x55>
    4433:	f2 0f 10 45 f8       	movsd  -0x8(%rbp),%xmm0
    4438:	eb 0a                	jmp    4444 <safe_sub_func_double_f_f+0x5f>
    443a:	f2 0f 10 45 f8       	movsd  -0x8(%rbp),%xmm0
    443f:	f2 0f 5c 45 f0       	subsd  -0x10(%rbp),%xmm0
    4444:	5d                   	pop    %rbp
    4445:	c3                   	retq   

0000000000004446 <safe_mul_func_double_f_f>:
    4446:	f3 0f 1e fa          	endbr64 
    444a:	55                   	push   %rbp
    444b:	48 89 e5             	mov    %rsp,%rbp
    444e:	f2 0f 11 45 f8       	movsd  %xmm0,-0x8(%rbp)
    4453:	f2 0f 11 4d f0       	movsd  %xmm1,-0x10(%rbp)
    4458:	f2 0f 10 4d f8       	movsd  -0x8(%rbp),%xmm1
    445d:	f2 0f 10 05 83 96 00 	movsd  0x9683(%rip),%xmm0        # dae8 <l_205.4601+0x78>
    4464:	00 
    4465:	f2 0f 59 c8          	mulsd  %xmm0,%xmm1
    4469:	f2 0f 10 55 f0       	movsd  -0x10(%rbp),%xmm2
    446e:	f2 0f 10 05 7a 96 00 	movsd  0x967a(%rip),%xmm0        # daf0 <l_205.4601+0x80>
    4475:	00 
    4476:	f2 0f 59 c2          	mulsd  %xmm2,%xmm0
    447a:	f2 0f 59 c1          	mulsd  %xmm1,%xmm0
    447e:	f3 0f 7e 0d 4a 96 00 	movq   0x964a(%rip),%xmm1        # dad0 <l_205.4601+0x60>
    4485:	00 
    4486:	66 0f 54 c1          	andpd  %xmm1,%xmm0
    448a:	66 0f 2f 05 66 96 00 	comisd 0x9666(%rip),%xmm0        # daf8 <l_205.4601+0x88>
    4491:	00 
    4492:	76 07                	jbe    449b <safe_mul_func_double_f_f+0x55>
    4494:	f2 0f 10 45 f8       	movsd  -0x8(%rbp),%xmm0
    4499:	eb 0a                	jmp    44a5 <safe_mul_func_double_f_f+0x5f>
    449b:	f2 0f 10 45 f8       	movsd  -0x8(%rbp),%xmm0
    44a0:	f2 0f 59 45 f0       	mulsd  -0x10(%rbp),%xmm0
    44a5:	5d                   	pop    %rbp
    44a6:	c3                   	retq   

00000000000044a7 <safe_div_func_double_f_f>:
    44a7:	f3 0f 1e fa          	endbr64 
    44ab:	55                   	push   %rbp
    44ac:	48 89 e5             	mov    %rsp,%rbp
    44af:	f2 0f 11 45 f8       	movsd  %xmm0,-0x8(%rbp)
    44b4:	f2 0f 11 4d f0       	movsd  %xmm1,-0x10(%rbp)
    44b9:	f2 0f 10 45 f0       	movsd  -0x10(%rbp),%xmm0
    44be:	f3 0f 7e 0d 0a 96 00 	movq   0x960a(%rip),%xmm1        # dad0 <l_205.4601+0x60>
    44c5:	00 
    44c6:	66 0f 54 c8          	andpd  %xmm0,%xmm1
    44ca:	f2 0f 10 05 2e 96 00 	movsd  0x962e(%rip),%xmm0        # db00 <l_205.4601+0x90>
    44d1:	00 
    44d2:	66 0f 2f c1          	comisd %xmm1,%xmm0
    44d6:	0f 97 c0             	seta   %al
    44d9:	83 f0 01             	xor    $0x1,%eax
    44dc:	84 c0                	test   %al,%al
    44de:	75 5a                	jne    453a <safe_div_func_double_f_f+0x93>
    44e0:	66 0f ef c0          	pxor   %xmm0,%xmm0
    44e4:	66 0f 2e 45 f0       	ucomisd -0x10(%rbp),%xmm0
    44e9:	7a 0b                	jp     44f6 <safe_div_func_double_f_f+0x4f>
    44eb:	66 0f ef c0          	pxor   %xmm0,%xmm0
    44ef:	66 0f 2e 45 f0       	ucomisd -0x10(%rbp),%xmm0
    44f4:	74 50                	je     4546 <safe_div_func_double_f_f+0x9f>
    44f6:	f2 0f 10 4d f8       	movsd  -0x8(%rbp),%xmm1
    44fb:	f2 0f 10 05 05 96 00 	movsd  0x9605(%rip),%xmm0        # db08 <l_205.4601+0x98>
    4502:	00 
    4503:	f2 0f 59 c1          	mulsd  %xmm1,%xmm0
    4507:	f2 0f 10 55 f0       	movsd  -0x10(%rbp),%xmm2
    450c:	f2 0f 10 0d fc 95 00 	movsd  0x95fc(%rip),%xmm1        # db10 <l_205.4601+0xa0>
    4513:	00 
    4514:	f2 0f 59 ca          	mulsd  %xmm2,%xmm1
    4518:	f2 0f 5e c1          	divsd  %xmm1,%xmm0
    451c:	f3 0f 7e 0d ac 95 00 	movq   0x95ac(%rip),%xmm1        # dad0 <l_205.4601+0x60>
    4523:	00 
    4524:	66 0f 54 c1          	andpd  %xmm1,%xmm0
    4528:	66 0f 2f 05 e8 95 00 	comisd 0x95e8(%rip),%xmm0        # db18 <l_205.4601+0xa8>
    452f:	00 
    4530:	0f 97 c0             	seta   %al
    4533:	83 f0 01             	xor    $0x1,%eax
    4536:	84 c0                	test   %al,%al
    4538:	74 0c                	je     4546 <safe_div_func_double_f_f+0x9f>
    453a:	f2 0f 10 45 f8       	movsd  -0x8(%rbp),%xmm0
    453f:	f2 0f 5e 45 f0       	divsd  -0x10(%rbp),%xmm0
    4544:	eb 05                	jmp    454b <safe_div_func_double_f_f+0xa4>
    4546:	f2 0f 10 45 f8       	movsd  -0x8(%rbp),%xmm0
    454b:	5d                   	pop    %rbp
    454c:	c3                   	retq   

000000000000454d <safe_convert_func_float_to_int32_t>:
    454d:	f3 0f 1e fa          	endbr64 
    4551:	55                   	push   %rbp
    4552:	48 89 e5             	mov    %rsp,%rbp
    4555:	f3 0f 11 45 fc       	movss  %xmm0,-0x4(%rbp)
    455a:	f3 0f 10 05 be 95 00 	movss  0x95be(%rip),%xmm0        # db20 <l_205.4601+0xb0>
    4561:	00 
    4562:	0f 2f 45 fc          	comiss -0x4(%rbp),%xmm0
    4566:	0f 93 c0             	setae  %al
    4569:	83 f0 01             	xor    $0x1,%eax
    456c:	84 c0                	test   %al,%al
    456e:	74 21                	je     4591 <safe_convert_func_float_to_int32_t+0x44>
    4570:	f3 0f 10 45 fc       	movss  -0x4(%rbp),%xmm0
    4575:	0f 2f 05 a8 95 00 00 	comiss 0x95a8(%rip),%xmm0        # db24 <l_205.4601+0xb4>
    457c:	0f 93 c0             	setae  %al
    457f:	83 f0 01             	xor    $0x1,%eax
    4582:	84 c0                	test   %al,%al
    4584:	74 0b                	je     4591 <safe_convert_func_float_to_int32_t+0x44>
    4586:	f3 0f 10 45 fc       	movss  -0x4(%rbp),%xmm0
    458b:	f3 0f 2c c0          	cvttss2si %xmm0,%eax
    458f:	eb 05                	jmp    4596 <safe_convert_func_float_to_int32_t+0x49>
    4591:	b8 ff ff ff 7f       	mov    $0x7fffffff,%eax
    4596:	5d                   	pop    %rbp
    4597:	c3                   	retq   

0000000000004598 <crc32_gentab>:
    4598:	f3 0f 1e fa          	endbr64 
    459c:	55                   	push   %rbp
    459d:	48 89 e5             	mov    %rsp,%rbp
    45a0:	c7 45 fc 20 83 b8 ed 	movl   $0xedb88320,-0x4(%rbp)
    45a7:	c7 45 f4 00 00 00 00 	movl   $0x0,-0xc(%rbp)
    45ae:	eb 51                	jmp    4601 <crc32_gentab+0x69>
    45b0:	8b 45 f4             	mov    -0xc(%rbp),%eax
    45b3:	89 45 f0             	mov    %eax,-0x10(%rbp)
    45b6:	c7 45 f8 08 00 00 00 	movl   $0x8,-0x8(%rbp)
    45bd:	eb 1e                	jmp    45dd <crc32_gentab+0x45>
    45bf:	8b 45 f0             	mov    -0x10(%rbp),%eax
    45c2:	83 e0 01             	and    $0x1,%eax
    45c5:	85 c0                	test   %eax,%eax
    45c7:	74 0d                	je     45d6 <crc32_gentab+0x3e>
    45c9:	8b 45 f0             	mov    -0x10(%rbp),%eax
    45cc:	d1 e8                	shr    %eax
    45ce:	33 45 fc             	xor    -0x4(%rbp),%eax
    45d1:	89 45 f0             	mov    %eax,-0x10(%rbp)
    45d4:	eb 03                	jmp    45d9 <crc32_gentab+0x41>
    45d6:	d1 6d f0             	shrl   -0x10(%rbp)
    45d9:	83 6d f8 01          	subl   $0x1,-0x8(%rbp)
    45dd:	83 7d f8 00          	cmpl   $0x0,-0x8(%rbp)
    45e1:	7f dc                	jg     45bf <crc32_gentab+0x27>
    45e3:	8b 45 f4             	mov    -0xc(%rbp),%eax
    45e6:	48 98                	cltq   
    45e8:	48 8d 0c 85 00 00 00 	lea    0x0(,%rax,4),%rcx
    45ef:	00 
    45f0:	48 8d 15 49 c7 00 00 	lea    0xc749(%rip),%rdx        # 10d40 <crc32_tab>
    45f7:	8b 45 f0             	mov    -0x10(%rbp),%eax
    45fa:	89 04 11             	mov    %eax,(%rcx,%rdx,1)
    45fd:	83 45 f4 01          	addl   $0x1,-0xc(%rbp)
    4601:	81 7d f4 ff 00 00 00 	cmpl   $0xff,-0xc(%rbp)
    4608:	7e a6                	jle    45b0 <crc32_gentab+0x18>
    460a:	90                   	nop
    460b:	90                   	nop
    460c:	5d                   	pop    %rbp
    460d:	c3                   	retq   

000000000000460e <crc32_byte>:
    460e:	f3 0f 1e fa          	endbr64 
    4612:	55                   	push   %rbp
    4613:	48 89 e5             	mov    %rsp,%rbp
    4616:	89 f8                	mov    %edi,%eax
    4618:	88 45 fc             	mov    %al,-0x4(%rbp)
    461b:	8b 05 ff b9 00 00    	mov    0xb9ff(%rip),%eax        # 10020 <crc32_context>
    4621:	c1 e8 08             	shr    $0x8,%eax
    4624:	89 c1                	mov    %eax,%ecx
    4626:	0f b6 55 fc          	movzbl -0x4(%rbp),%edx
    462a:	8b 05 f0 b9 00 00    	mov    0xb9f0(%rip),%eax        # 10020 <crc32_context>
    4630:	31 d0                	xor    %edx,%eax
    4632:	0f b6 c0             	movzbl %al,%eax
    4635:	89 c0                	mov    %eax,%eax
    4637:	48 8d 14 85 00 00 00 	lea    0x0(,%rax,4),%rdx
    463e:	00 
    463f:	48 8d 05 fa c6 00 00 	lea    0xc6fa(%rip),%rax        # 10d40 <crc32_tab>
    4646:	8b 04 02             	mov    (%rdx,%rax,1),%eax
    4649:	31 c8                	xor    %ecx,%eax
    464b:	89 05 cf b9 00 00    	mov    %eax,0xb9cf(%rip)        # 10020 <crc32_context>
    4651:	90                   	nop
    4652:	5d                   	pop    %rbp
    4653:	c3                   	retq   

0000000000004654 <crc32_8bytes>:
    4654:	f3 0f 1e fa          	endbr64 
    4658:	55                   	push   %rbp
    4659:	48 89 e5             	mov    %rsp,%rbp
    465c:	48 83 ec 08          	sub    $0x8,%rsp
    4660:	48 89 7d f8          	mov    %rdi,-0x8(%rbp)
    4664:	48 8b 45 f8          	mov    -0x8(%rbp),%rax
    4668:	0f b6 c0             	movzbl %al,%eax
    466b:	89 c7                	mov    %eax,%edi
    466d:	e8 9c ff ff ff       	callq  460e <crc32_byte>
    4672:	48 8b 45 f8          	mov    -0x8(%rbp),%rax
    4676:	48 c1 e8 08          	shr    $0x8,%rax
    467a:	0f b6 c0             	movzbl %al,%eax
    467d:	89 c7                	mov    %eax,%edi
    467f:	e8 8a ff ff ff       	callq  460e <crc32_byte>
    4684:	48 8b 45 f8          	mov    -0x8(%rbp),%rax
    4688:	48 c1 e8 10          	shr    $0x10,%rax
    468c:	0f b6 c0             	movzbl %al,%eax
    468f:	89 c7                	mov    %eax,%edi
    4691:	e8 78 ff ff ff       	callq  460e <crc32_byte>
    4696:	48 8b 45 f8          	mov    -0x8(%rbp),%rax
    469a:	48 c1 e8 18          	shr    $0x18,%rax
    469e:	0f b6 c0             	movzbl %al,%eax
    46a1:	89 c7                	mov    %eax,%edi
    46a3:	e8 66 ff ff ff       	callq  460e <crc32_byte>
    46a8:	48 8b 45 f8          	mov    -0x8(%rbp),%rax
    46ac:	48 c1 e8 20          	shr    $0x20,%rax
    46b0:	0f b6 c0             	movzbl %al,%eax
    46b3:	89 c7                	mov    %eax,%edi
    46b5:	e8 54 ff ff ff       	callq  460e <crc32_byte>
    46ba:	48 8b 45 f8          	mov    -0x8(%rbp),%rax
    46be:	48 c1 e8 28          	shr    $0x28,%rax
    46c2:	0f b6 c0             	movzbl %al,%eax
    46c5:	89 c7                	mov    %eax,%edi
    46c7:	e8 42 ff ff ff       	callq  460e <crc32_byte>
    46cc:	48 8b 45 f8          	mov    -0x8(%rbp),%rax
    46d0:	48 c1 e8 30          	shr    $0x30,%rax
    46d4:	0f b6 c0             	movzbl %al,%eax
    46d7:	89 c7                	mov    %eax,%edi
    46d9:	e8 30 ff ff ff       	callq  460e <crc32_byte>
    46de:	48 8b 45 f8          	mov    -0x8(%rbp),%rax
    46e2:	48 c1 e8 38          	shr    $0x38,%rax
    46e6:	0f b6 c0             	movzbl %al,%eax
    46e9:	89 c7                	mov    %eax,%edi
    46eb:	e8 1e ff ff ff       	callq  460e <crc32_byte>
    46f0:	90                   	nop
    46f1:	c9                   	leaveq 
    46f2:	c3                   	retq   

00000000000046f3 <transparent_crc>:
    46f3:	f3 0f 1e fa          	endbr64 
    46f7:	55                   	push   %rbp
    46f8:	48 89 e5             	mov    %rsp,%rbp
    46fb:	48 83 ec 20          	sub    $0x20,%rsp
    46ff:	48 89 7d f8          	mov    %rdi,-0x8(%rbp)
    4703:	48 89 75 f0          	mov    %rsi,-0x10(%rbp)
    4707:	89 55 ec             	mov    %edx,-0x14(%rbp)
    470a:	48 8b 45 f8          	mov    -0x8(%rbp),%rax
    470e:	48 89 c7             	mov    %rax,%rdi
    4711:	e8 3e ff ff ff       	callq  4654 <crc32_8bytes>
    4716:	83 7d ec 00          	cmpl   $0x0,-0x14(%rbp)
    471a:	74 22                	je     473e <transparent_crc+0x4b>
    471c:	8b 05 fe b8 00 00    	mov    0xb8fe(%rip),%eax        # 10020 <crc32_context>
    4722:	f7 d0                	not    %eax
    4724:	89 c2                	mov    %eax,%edx
    4726:	48 8b 45 f0          	mov    -0x10(%rbp),%rax
    472a:	48 89 c6             	mov    %rax,%rsi
    472d:	48 8d 3d fc 88 00 00 	lea    0x88fc(%rip),%rdi        # d030 <_IO_stdin_used+0x30>
    4734:	b8 00 00 00 00       	mov    $0x0,%eax
    4739:	e8 42 e9 ff ff       	callq  3080 <printf@plt>
    473e:	90                   	nop
    473f:	c9                   	leaveq 
    4740:	c3                   	retq   

0000000000004741 <transparent_crc_bytes>:
    4741:	f3 0f 1e fa          	endbr64 
    4745:	55                   	push   %rbp
    4746:	48 89 e5             	mov    %rsp,%rbp
    4749:	48 83 ec 30          	sub    $0x30,%rsp
    474d:	48 89 7d e8          	mov    %rdi,-0x18(%rbp)
    4751:	89 75 e4             	mov    %esi,-0x1c(%rbp)
    4754:	48 89 55 d8          	mov    %rdx,-0x28(%rbp)
    4758:	89 4d e0             	mov    %ecx,-0x20(%rbp)
    475b:	c7 45 fc 00 00 00 00 	movl   $0x0,-0x4(%rbp)
    4762:	eb 1e                	jmp    4782 <transparent_crc_bytes+0x41>
    4764:	8b 45 fc             	mov    -0x4(%rbp),%eax
    4767:	48 63 d0             	movslq %eax,%rdx
    476a:	48 8b 45 e8          	mov    -0x18(%rbp),%rax
    476e:	48 01 d0             	add    %rdx,%rax
    4771:	0f b6 00             	movzbl (%rax),%eax
    4774:	0f b6 c0             	movzbl %al,%eax
    4777:	89 c7                	mov    %eax,%edi
    4779:	e8 90 fe ff ff       	callq  460e <crc32_byte>
    477e:	83 45 fc 01          	addl   $0x1,-0x4(%rbp)
    4782:	8b 45 fc             	mov    -0x4(%rbp),%eax
    4785:	3b 45 e4             	cmp    -0x1c(%rbp),%eax
    4788:	7c da                	jl     4764 <transparent_crc_bytes+0x23>
    478a:	83 7d e0 00          	cmpl   $0x0,-0x20(%rbp)
    478e:	74 22                	je     47b2 <transparent_crc_bytes+0x71>
    4790:	8b 05 8a b8 00 00    	mov    0xb88a(%rip),%eax        # 10020 <crc32_context>
    4796:	f7 d0                	not    %eax
    4798:	89 c2                	mov    %eax,%edx
    479a:	48 8b 45 d8          	mov    -0x28(%rbp),%rax
    479e:	48 89 c6             	mov    %rax,%rsi
    47a1:	48 8d 3d 88 88 00 00 	lea    0x8888(%rip),%rdi        # d030 <_IO_stdin_used+0x30>
    47a8:	b8 00 00 00 00       	mov    $0x0,%eax
    47ad:	e8 ce e8 ff ff       	callq  3080 <printf@plt>
    47b2:	90                   	nop
    47b3:	c9                   	leaveq 
    47b4:	c3                   	retq   

00000000000047b5 <func_1>:
    47b5:	f3 0f 1e fa          	endbr64 
    47b9:	55                   	push   %rbp
    47ba:	48 89 e5             	mov    %rsp,%rbp
    47bd:	53                   	push   %rbx
    47be:	48 81 ec 18 03 00 00 	sub    $0x318,%rsp
    47c5:	64 48 8b 04 25 28 00 	mov    %fs:0x28,%rax
    47cc:	00 00 
    47ce:	48 89 45 e8          	mov    %rax,-0x18(%rbp)
    47d2:	31 c0                	xor    %eax,%eax
    47d4:	c7 85 20 fd ff ff 3e 	movl   $0xd52cb3e,-0x2e0(%rbp)
    47db:	cb 52 0d 
    47de:	c7 85 24 fd ff ff 3e 	movl   $0xd52cb3e,-0x2dc(%rbp)
    47e5:	cb 52 0d 
    47e8:	c7 85 28 fd ff ff 3e 	movl   $0xd52cb3e,-0x2d8(%rbp)
    47ef:	cb 52 0d 
    47f2:	c7 85 2c fd ff ff 3e 	movl   $0xd52cb3e,-0x2d4(%rbp)
    47f9:	cb 52 0d 
    47fc:	c7 85 30 fd ff ff 3e 	movl   $0xd52cb3e,-0x2d0(%rbp)
    4803:	cb 52 0d 
    4806:	c7 85 34 fd ff ff 3e 	movl   $0xd52cb3e,-0x2cc(%rbp)
    480d:	cb 52 0d 
    4810:	c7 85 38 fd ff ff 3e 	movl   $0xd52cb3e,-0x2c8(%rbp)
    4817:	cb 52 0d 
    481a:	c7 85 3c fd ff ff 3e 	movl   $0xd52cb3e,-0x2c4(%rbp)
    4821:	cb 52 0d 
    4824:	c7 85 f8 fc ff ff 29 	movl   $0xd00e2229,-0x308(%rbp)
    482b:	22 0e d0 
    482e:	c7 85 ec fc ff ff 00 	movl   $0x0,-0x314(%rbp)
    4835:	00 00 00 
    4838:	eb 19                	jmp    4853 <func_1+0x9e>
    483a:	8b 85 ec fc ff ff    	mov    -0x314(%rbp),%eax
    4840:	48 98                	cltq   
    4842:	66 c7 84 45 00 fd ff 	movw   $0xa339,-0x300(%rbp,%rax,2)
    4849:	ff 39 a3 
    484c:	83 85 ec fc ff ff 01 	addl   $0x1,-0x314(%rbp)
    4853:	83 bd ec fc ff ff 08 	cmpl   $0x8,-0x314(%rbp)
    485a:	7e de                	jle    483a <func_1+0x85>
    485c:	c7 05 da b7 00 00 00 	movl   $0x0,0xb7da(%rip)        # 10040 <g_6>
    4863:	00 00 00 
    4866:	90                   	nop
    4867:	8b 05 d3 b7 00 00    	mov    0xb7d3(%rip),%eax        # 10040 <g_6>
    486d:	83 f8 08             	cmp    $0x8,%eax
    4870:	0f 8f 30 01 00 00    	jg     49a6 <func_1+0x1f1>
    4876:	48 8d 85 20 fe ff ff 	lea    -0x1e0(%rbp),%rax
    487d:	48 8d 15 bc b9 00 00 	lea    0xb9bc(%rip),%rdx        # 10240 <g_1346+0x40>
    4884:	b9 38 00 00 00       	mov    $0x38,%ecx
    4889:	48 89 c7             	mov    %rax,%rdi
    488c:	48 89 d6             	mov    %rdx,%rsi
    488f:	f3 48 a5             	rep movsq %ds:(%rsi),%es:(%rdi)
    4892:	c7 85 fc fc ff ff 00 	movl   $0x0,-0x304(%rbp)
    4899:	00 00 00 
    489c:	c7 85 f0 fc ff ff 00 	movl   $0x0,-0x310(%rbp)
    48a3:	00 00 00 
    48a6:	eb 55                	jmp    48fd <func_1+0x148>
    48a8:	c7 85 f4 fc ff ff 00 	movl   $0x0,-0x30c(%rbp)
    48af:	00 00 00 
    48b2:	eb 39                	jmp    48ed <func_1+0x138>
    48b4:	8b 85 f4 fc ff ff    	mov    -0x30c(%rbp),%eax
    48ba:	48 63 c8             	movslq %eax,%rcx
    48bd:	8b 85 f0 fc ff ff    	mov    -0x310(%rbp),%eax
    48c3:	48 63 d0             	movslq %eax,%rdx
    48c6:	48 89 d0             	mov    %rdx,%rax
    48c9:	48 c1 e0 03          	shl    $0x3,%rax
    48cd:	48 01 d0             	add    %rdx,%rax
    48d0:	48 01 c8             	add    %rcx,%rax
    48d3:	48 8d 95 20 fd ff ff 	lea    -0x2e0(%rbp),%rdx
    48da:	48 83 c2 0c          	add    $0xc,%rdx
    48de:	48 89 94 c5 40 fd ff 	mov    %rdx,-0x2c0(%rbp,%rax,8)
    48e5:	ff 
    48e6:	83 85 f4 fc ff ff 01 	addl   $0x1,-0x30c(%rbp)
    48ed:	83 bd f4 fc ff ff 08 	cmpl   $0x8,-0x30c(%rbp)
    48f4:	7e be                	jle    48b4 <func_1+0xff>
    48f6:	83 85 f0 fc ff ff 01 	addl   $0x1,-0x310(%rbp)
    48fd:	83 bd f0 fc ff ff 02 	cmpl   $0x2,-0x310(%rbp)
    4904:	7e a2                	jle    48a8 <func_1+0xf3>
    4906:	8b 05 34 b7 00 00    	mov    0xb734(%rip),%eax        # 10040 <g_6>
    490c:	48 98                	cltq   
    490e:	0f b7 84 45 00 fd ff 	movzwl -0x300(%rbp,%rax,2),%eax
    4915:	ff 
    4916:	0f b6 d8             	movzbl %al,%ebx
    4919:	8b 05 21 b7 00 00    	mov    0xb721(%rip),%eax        # 10040 <g_6>
    491f:	0f b7 c0             	movzwl %ax,%eax
    4922:	be 03 00 00 00       	mov    $0x3,%esi
    4927:	89 c7                	mov    %eax,%edi
    4929:	e8 90 f4 ff ff       	callq  3dbe <safe_lshift_func_uint16_t_u_s>
    492e:	66 3d a2 00          	cmp    $0xa2,%ax
    4932:	0f 96 c0             	setbe  %al
    4935:	0f b6 c8             	movzbl %al,%ecx
    4938:	8b 05 02 b7 00 00    	mov    0xb702(%rip),%eax        # 10040 <g_6>
    493e:	48 98                	cltq   
    4940:	0f b7 84 45 00 fd ff 	movzwl -0x300(%rbp,%rax,2),%eax
    4947:	ff 
    4948:	0f bf d0             	movswl %ax,%edx
    494b:	8b 05 e7 b6 00 00    	mov    0xb6e7(%rip),%eax        # 10038 <g_5+0x8>
    4951:	39 c2                	cmp    %eax,%edx
    4953:	0f 95 c0             	setne  %al
    4956:	0f b6 c0             	movzbl %al,%eax
    4959:	89 da                	mov    %ebx,%edx
    495b:	48 89 ce             	mov    %rcx,%rsi
    495e:	89 c7                	mov    %eax,%edi
    4960:	e8 65 00 00 00       	callq  49ca <func_7>
    4965:	0f b7 85 04 fd ff ff 	movzwl -0x2fc(%rbp),%eax
    496c:	98                   	cwtl   
    496d:	89 85 2c fd ff ff    	mov    %eax,-0x2d4(%rbp)
    4973:	8b 05 c7 b6 00 00    	mov    0xb6c7(%rip),%eax        # 10040 <g_6>
    4979:	48 98                	cltq   
    497b:	0f b7 84 45 00 fd ff 	movzwl -0x300(%rbp,%rax,2),%eax
    4982:	ff 
    4983:	83 c8 01             	or     $0x1,%eax
    4986:	48 0f bf c0          	movswq %ax,%rax
    498a:	09 85 fc fc ff ff    	or     %eax,-0x304(%rbp)
    4990:	c7 85 2c fd ff ff 55 	movl   $0x9289855,-0x2d4(%rbp)
    4997:	98 28 09 
    499a:	48 8b 05 f7 bc 00 00 	mov    0xbcf7(%rip),%rax        # 10698 <g_809>
    49a1:	0f b6 00             	movzbl (%rax),%eax
    49a4:	eb 06                	jmp    49ac <func_1+0x1f7>
    49a6:	8b 85 f8 fc ff ff    	mov    -0x308(%rbp),%eax
    49ac:	48 8b 5d e8          	mov    -0x18(%rbp),%rbx
    49b0:	64 48 33 1c 25 28 00 	xor    %fs:0x28,%rbx
    49b7:	00 00 
    49b9:	74 05                	je     49c0 <func_1+0x20b>
    49bb:	e8 b0 e6 ff ff       	callq  3070 <__stack_chk_fail@plt>
    49c0:	48 81 c4 18 03 00 00 	add    $0x318,%rsp
    49c7:	5b                   	pop    %rbx
    49c8:	5d                   	pop    %rbp
    49c9:	c3                   	retq   

00000000000049ca <func_7>:
    49ca:	f3 0f 1e fa          	endbr64 
    49ce:	55                   	push   %rbp
    49cf:	48 89 e5             	mov    %rsp,%rbp
    49d2:	53                   	push   %rbx
    49d3:	48 81 ec 88 00 00 00 	sub    $0x88,%rsp
    49da:	89 bd 7c ff ff ff    	mov    %edi,-0x84(%rbp)
    49e0:	48 89 b5 70 ff ff ff 	mov    %rsi,-0x90(%rbp)
    49e7:	89 d0                	mov    %edx,%eax
    49e9:	88 85 78 ff ff ff    	mov    %al,-0x88(%rbp)
    49ef:	64 48 8b 04 25 28 00 	mov    %fs:0x28,%rax
    49f6:	00 00 
    49f8:	48 89 45 e8          	mov    %rax,-0x18(%rbp)
    49fc:	31 c0                	xor    %eax,%eax
    49fe:	48 c7 45 88 00 00 00 	movq   $0x0,-0x78(%rbp)
    4a05:	00 
    4a06:	48 8d 05 37 b6 00 00 	lea    0xb637(%rip),%rax        # 10044 <g_19>
    4a0d:	48 89 45 90          	mov    %rax,-0x70(%rbp)
    4a11:	48 8d 05 d0 b7 00 00 	lea    0xb7d0(%rip),%rax        # 101e8 <g_1179>
    4a18:	48 89 45 a0          	mov    %rax,-0x60(%rbp)
    4a1c:	48 8d 05 c5 b7 00 00 	lea    0xb7c5(%rip),%rax        # 101e8 <g_1179>
    4a23:	48 89 45 a8          	mov    %rax,-0x58(%rbp)
    4a27:	48 8d 05 ba b7 00 00 	lea    0xb7ba(%rip),%rax        # 101e8 <g_1179>
    4a2e:	48 89 45 b0          	mov    %rax,-0x50(%rbp)
    4a32:	48 8d 05 af b7 00 00 	lea    0xb7af(%rip),%rax        # 101e8 <g_1179>
    4a39:	48 89 45 b8          	mov    %rax,-0x48(%rbp)
    4a3d:	c7 45 c0 01 00 00 00 	movl   $0x1,-0x40(%rbp)
    4a44:	c7 45 c4 f7 ff ff ff 	movl   $0xfffffff7,-0x3c(%rbp)
    4a4b:	c7 45 c8 f7 ff ff ff 	movl   $0xfffffff7,-0x38(%rbp)
    4a52:	c7 45 cc 01 00 00 00 	movl   $0x1,-0x34(%rbp)
    4a59:	c7 45 d0 07 00 00 00 	movl   $0x7,-0x30(%rbp)
    4a60:	c7 45 d4 01 00 00 00 	movl   $0x1,-0x2c(%rbp)
    4a67:	c7 45 d8 f7 ff ff ff 	movl   $0xfffffff7,-0x28(%rbp)
    4a6e:	c7 45 dc f7 ff ff ff 	movl   $0xfffffff7,-0x24(%rbp)
    4a75:	c7 45 e0 01 00 00 00 	movl   $0x1,-0x20(%rbp)
    4a7c:	c7 45 e4 07 00 00 00 	movl   $0x7,-0x1c(%rbp)
    4a83:	c7 45 84 ff ff ff ff 	movl   $0xffffffff,-0x7c(%rbp)
    4a8a:	48 8d 05 cb b6 00 00 	lea    0xb6cb(%rip),%rax        # 1015c <g_839>
    4a91:	48 89 45 98          	mov    %rax,-0x68(%rbp)
    4a95:	8b 05 95 b5 00 00    	mov    0xb595(%rip),%eax        # 10030 <g_5>
    4a9b:	0f b6 95 78 ff ff ff 	movzbl -0x88(%rbp),%edx
    4aa2:	48 8b 45 90          	mov    -0x70(%rbp),%rax
    4aa6:	66 89 10             	mov    %dx,(%rax)
    4aa9:	48 8b 45 90          	mov    -0x70(%rbp),%rax
    4aad:	0f b7 00             	movzwl (%rax),%eax
    4ab0:	98                   	cwtl   
    4ab1:	89 c7                	mov    %eax,%edi
    4ab3:	e8 84 00 00 00       	callq  4b3c <func_15>
    4ab8:	0f be d0             	movsbl %al,%edx
    4abb:	8b 05 73 b5 00 00    	mov    0xb573(%rip),%eax        # 10034 <g_5+0x4>
    4ac1:	0f be c0             	movsbl %al,%eax
    4ac4:	89 d6                	mov    %edx,%esi
    4ac6:	89 c7                	mov    %eax,%edi
    4ac8:	e8 25 e7 ff ff       	callq  31f2 <safe_sub_func_int8_t_s_s>
    4acd:	0f be d8             	movsbl %al,%ebx
    4ad0:	8b 45 c0             	mov    -0x40(%rbp),%eax
    4ad3:	0f b7 c0             	movzwl %ax,%eax
    4ad6:	0f b7 15 0b b7 00 00 	movzwl 0xb70b(%rip),%edx        # 101e8 <g_1179>
    4add:	83 c2 01             	add    $0x1,%edx
    4ae0:	66 89 15 01 b7 00 00 	mov    %dx,0xb701(%rip)        # 101e8 <g_1179>
    4ae7:	48 83 bd 70 ff ff ff 	cmpq   $0x1,-0x90(%rbp)
    4aee:	01 
    4aef:	89 c6                	mov    %eax,%esi
    4af1:	bf 19 92 00 00       	mov    $0x9219,%edi
    4af6:	e8 93 f2 ff ff       	callq  3d8e <safe_div_func_uint16_t_u_u>
    4afb:	0f b7 c0             	movzwl %ax,%eax
    4afe:	0b 45 84             	or     -0x7c(%rbp),%eax
    4b01:	39 c3                	cmp    %eax,%ebx
    4b03:	0f 93 c0             	setae  %al
    4b06:	0f b6 d0             	movzbl %al,%edx
    4b09:	48 8b 45 98          	mov    -0x68(%rbp),%rax
    4b0d:	8b 00                	mov    (%rax),%eax
    4b0f:	09 c2                	or     %eax,%edx
    4b11:	48 8b 45 98          	mov    -0x68(%rbp),%rax
    4b15:	89 10                	mov    %edx,(%rax)
    4b17:	48 8b 05 e2 b6 00 00 	mov    0xb6e2(%rip),%rax        # 10200 <g_1346>
    4b1e:	48 8b 4d e8          	mov    -0x18(%rbp),%rcx
    4b22:	64 48 33 0c 25 28 00 	xor    %fs:0x28,%rcx
    4b29:	00 00 
    4b2b:	74 05                	je     4b32 <func_7+0x168>
    4b2d:	e8 3e e5 ff ff       	callq  3070 <__stack_chk_fail@plt>
    4b32:	48 81 c4 88 00 00 00 	add    $0x88,%rsp
    4b39:	5b                   	pop    %rbx
    4b3a:	5d                   	pop    %rbp
    4b3b:	c3                   	retq   

0000000000004b3c <func_15>:
    4b3c:	f3 0f 1e fa          	endbr64 
    4b40:	55                   	push   %rbp
    4b41:	48 89 e5             	mov    %rsp,%rbp
    4b44:	41 57                	push   %r15
    4b46:	41 56                	push   %r14
    4b48:	41 55                	push   %r13
    4b4a:	41 54                	push   %r12
    4b4c:	53                   	push   %rbx
    4b4d:	48 81 ec f8 01 00 00 	sub    $0x1f8,%rsp
    4b54:	89 f8                	mov    %edi,%eax
    4b56:	66 89 85 ec fd ff ff 	mov    %ax,-0x214(%rbp)
    4b5d:	64 48 8b 04 25 28 00 	mov    %fs:0x28,%rax
    4b64:	00 00 
    4b66:	48 89 45 c8          	mov    %rax,-0x38(%rbp)
    4b6a:	31 c0                	xor    %eax,%eax
    4b6c:	c7 85 04 fe ff ff f8 	movl   $0xfffffff8,-0x1fc(%rbp)
    4b73:	ff ff ff 
    4b76:	c7 85 20 fe ff ff 34 	movl   $0xf2d36f34,-0x1e0(%rbp)
    4b7d:	6f d3 f2 
    4b80:	c7 85 24 fe ff ff 34 	movl   $0xf2d36f34,-0x1dc(%rbp)
    4b87:	6f d3 f2 
    4b8a:	c7 85 28 fe ff ff 34 	movl   $0xf2d36f34,-0x1d8(%rbp)
    4b91:	6f d3 f2 
    4b94:	c7 85 2c fe ff ff 34 	movl   $0xf2d36f34,-0x1d4(%rbp)
    4b9b:	6f d3 f2 
    4b9e:	c7 85 30 fe ff ff 34 	movl   $0xf2d36f34,-0x1d0(%rbp)
    4ba5:	6f d3 f2 
    4ba8:	48 8d 05 81 b9 00 00 	lea    0xb981(%rip),%rax        # 10530 <g_140>
    4baf:	48 89 85 10 fe ff ff 	mov    %rax,-0x1f0(%rbp)
    4bb6:	c7 85 00 fe ff ff ff 	movl   $0xffffffff,-0x200(%rbp)
    4bbd:	ff ff ff 
    4bc0:	c7 85 40 fe ff ff fa 	movl   $0xfffffffa,-0x1c0(%rbp)
    4bc7:	ff ff ff 
    4bca:	c7 85 44 fe ff ff fa 	movl   $0xfffffffa,-0x1bc(%rbp)
    4bd1:	ff ff ff 
    4bd4:	c7 85 48 fe ff ff fa 	movl   $0xfffffffa,-0x1b8(%rbp)
    4bdb:	ff ff ff 
    4bde:	c7 85 4c fe ff ff fa 	movl   $0xfffffffa,-0x1b4(%rbp)
    4be5:	ff ff ff 
    4be8:	c7 85 50 fe ff ff fa 	movl   $0xfffffffa,-0x1b0(%rbp)
    4bef:	ff ff ff 
    4bf2:	c7 85 54 fe ff ff fa 	movl   $0xfffffffa,-0x1ac(%rbp)
    4bf9:	ff ff ff 
    4bfc:	c6 85 fc fd ff ff 06 	movb   $0x6,-0x204(%rbp)
    4c03:	c6 85 fe fd ff ff f6 	movb   $0xf6,-0x202(%rbp)
    4c0a:	c6 85 fd fd ff ff ec 	movb   $0xec,-0x203(%rbp)
    4c11:	66 83 bd ec fd ff ff 	cmpw   $0x0,-0x214(%rbp)
    4c18:	00 
    4c19:	0f 84 88 00 00 00    	je     4ca7 <func_15+0x16b>
    4c1f:	8b 05 23 b5 00 00    	mov    0xb523(%rip),%eax        # 10148 <g_705+0x8>
    4c25:	44 0f bf e0          	movswl %ax,%r12d
    4c29:	48 8b 1d f0 b8 00 00 	mov    0xb8f0(%rip),%rbx        # 10520 <g_92>
    4c30:	4c 0f bf bd ec fd ff 	movswq -0x214(%rbp),%r15
    4c37:	ff 
    4c38:	0f b7 85 ec fd ff ff 	movzwl -0x214(%rbp),%eax
    4c3f:	44 0f b6 f0          	movzbl %al,%r14d
    4c43:	44 0f bf ad ec fd ff 	movswl -0x214(%rbp),%r13d
    4c4a:	ff 
    4c4b:	8b 85 04 fe ff ff    	mov    -0x1fc(%rbp),%eax
    4c51:	8b 15 f1 b3 00 00    	mov    0xb3f1(%rip),%edx        # 10048 <g_38>
    4c57:	89 d6                	mov    %edx,%esi
    4c59:	48 89 c7             	mov    %rax,%rdi
    4c5c:	e8 fa 14 00 00       	callq  615b <func_34>
    4c61:	8b 15 e1 b4 00 00    	mov    0xb4e1(%rip),%edx        # 10148 <g_705+0x8>
    4c67:	41 89 d0             	mov    %edx,%r8d
    4c6a:	4c 89 f9             	mov    %r15,%rcx
    4c6d:	44 89 f2             	mov    %r14d,%edx
    4c70:	44 89 ee             	mov    %r13d,%esi
    4c73:	48 89 c7             	mov    %rax,%rdi
    4c76:	e8 69 14 00 00       	callq  60e4 <func_28>
    4c7b:	66 98                	cbtw   
    4c7d:	34 8c                	xor    $0x8c,%al
    4c7f:	0f b7 c0             	movzwl %ax,%eax
    4c82:	44 89 e2             	mov    %r12d,%edx
    4c85:	48 89 de             	mov    %rbx,%rsi
    4c88:	89 c7                	mov    %eax,%edi
    4c8a:	e8 8b 05 00 00       	callq  521a <func_24>
    4c8f:	48 89 c2             	mov    %rax,%rdx
    4c92:	48 8d 35 ab b3 00 00 	lea    0xb3ab(%rip),%rsi        # 10044 <g_19>
    4c99:	48 8d 3d a4 b3 00 00 	lea    0xb3a4(%rip),%rdi        # 10044 <g_19>
    4ca0:	e8 55 05 00 00       	callq  51fa <func_20>
    4ca5:	84 c0                	test   %al,%al
    4ca7:	c6 85 ff fd ff ff 02 	movb   $0x2,-0x201(%rbp)
    4cae:	c7 85 08 fe ff ff 2b 	movl   $0xb842d42b,-0x1f8(%rbp)
    4cb5:	d4 42 b8 
    4cb8:	0f bf 9d ec fd ff ff 	movswl -0x214(%rbp),%ebx
    4cbf:	8b 85 04 fe ff ff    	mov    -0x1fc(%rbp),%eax
    4cc5:	98                   	cwtl   
    4cc6:	be 0f 00 00 00       	mov    $0xf,%esi
    4ccb:	89 c7                	mov    %eax,%edi
    4ccd:	e8 c0 e7 ff ff       	callq  3492 <safe_lshift_func_int16_t_s_s>
    4cd2:	0f bf d0             	movswl %ax,%edx
    4cd5:	0f b7 05 c2 b3 00 00 	movzwl 0xb3c2(%rip),%eax        # 1009e <g_255+0xe>
    4cdc:	c1 e0 03             	shl    $0x3,%eax
    4cdf:	66 c1 f8 0a          	sar    $0xa,%ax
    4ce3:	66 98                	cbtw   
    4ce5:	0f b7 c0             	movzwl %ax,%eax
    4ce8:	89 d6                	mov    %edx,%esi
    4cea:	89 c7                	mov    %eax,%edi
    4cec:	e8 57 f1 ff ff       	callq  3e48 <safe_rshift_func_uint16_t_u_s>
    4cf1:	0f be 85 ff fd ff ff 	movsbl -0x201(%rbp),%eax
    4cf8:	89 c7                	mov    %eax,%edi
    4cfa:	e8 97 e8 ff ff       	callq  3596 <safe_unary_minus_func_int32_t_s>
    4cff:	41 89 c5             	mov    %eax,%r13d
    4d02:	44 0f be b5 ff fd ff 	movsbl -0x201(%rbp),%r14d
    4d09:	ff 
    4d0a:	0f b7 85 ec fd ff ff 	movzwl -0x214(%rbp),%eax
    4d11:	44 0f b6 e0          	movzbl %al,%r12d
    4d15:	8b 05 e1 b3 00 00    	mov    0xb3e1(%rip),%eax        # 100fc <g_581+0x1c>
    4d1b:	25 ff ff 7f 00       	and    $0x7fffff,%eax
    4d20:	41 89 c7             	mov    %eax,%r15d
    4d23:	8b 95 04 fe ff ff    	mov    -0x1fc(%rbp),%edx
    4d29:	8b 85 04 fe ff ff    	mov    -0x1fc(%rbp),%eax
    4d2f:	48 89 d6             	mov    %rdx,%rsi
    4d32:	48 89 c7             	mov    %rax,%rdi
    4d35:	e8 75 f3 ff ff       	callq  40af <safe_div_func_uint64_t_u_u>
    4d3a:	48 85 c0             	test   %rax,%rax
    4d3d:	75 0a                	jne    4d49 <func_15+0x20d>
    4d3f:	0f b7 05 fe b2 00 00 	movzwl 0xb2fe(%rip),%eax        # 10044 <g_19>
    4d46:	66 85 c0             	test   %ax,%ax
    4d49:	8b 85 04 fe ff ff    	mov    -0x1fc(%rbp),%eax
    4d4f:	44 89 fe             	mov    %r15d,%esi
    4d52:	89 c7                	mov    %eax,%edi
    4d54:	e8 5f f1 ff ff       	callq  3eb8 <safe_add_func_uint32_t_u_u>
    4d59:	0f b6 c0             	movzbl %al,%eax
    4d5c:	44 89 e6             	mov    %r12d,%esi
    4d5f:	89 c7                	mov    %eax,%edi
    4d61:	e8 12 ee ff ff       	callq  3b78 <safe_sub_func_uint8_t_u_u>
    4d66:	0f b6 c0             	movzbl %al,%eax
    4d69:	41 39 c6             	cmp    %eax,%r14d
    4d6c:	0f 9d c0             	setge  %al
    4d6f:	0f b6 d0             	movzbl %al,%edx
    4d72:	0f bf 85 ec fd ff ff 	movswl -0x214(%rbp),%eax
    4d79:	21 d0                	and    %edx,%eax
    4d7b:	85 c0                	test   %eax,%eax
    4d7d:	0f 9e c0             	setle  %al
    4d80:	0f b6 c0             	movzbl %al,%eax
    4d83:	41 39 c5             	cmp    %eax,%r13d
    4d86:	0f 95 c0             	setne  %al
    4d89:	0f b6 c0             	movzbl %al,%eax
    4d8c:	89 de                	mov    %ebx,%esi
    4d8e:	89 c7                	mov    %eax,%edi
    4d90:	e8 21 e8 ff ff       	callq  35b6 <safe_add_func_int32_t_s_s>
    4d95:	0f b7 d0             	movzwl %ax,%edx
    4d98:	0f b7 85 ec fd ff ff 	movzwl -0x214(%rbp),%eax
    4d9f:	0f b7 c0             	movzwl %ax,%eax
    4da2:	89 d6                	mov    %edx,%esi
    4da4:	89 c7                	mov    %eax,%edi
    4da6:	e8 b1 ef ff ff       	callq  3d5c <safe_mod_func_uint16_t_u_u>
    4dab:	0f b7 c0             	movzwl %ax,%eax
    4dae:	89 85 08 fe ff ff    	mov    %eax,-0x1f8(%rbp)
    4db4:	c7 85 04 fe ff ff ea 	movl   $0xffffffea,-0x1fc(%rbp)
    4dbb:	ff ff ff 
    4dbe:	e9 fa 03 00 00       	jmpq   51bd <func_15+0x681>
    4dc3:	c7 85 0c fe ff ff cb 	movl   $0x74f518cb,-0x1f4(%rbp)
    4dca:	18 f5 74 
    4dcd:	48 8d 05 88 b3 00 00 	lea    0xb388(%rip),%rax        # 1015c <g_839>
    4dd4:	48 89 85 18 fe ff ff 	mov    %rax,-0x1e8(%rbp)
    4ddb:	48 8d 05 f6 b2 00 00 	lea    0xb2f6(%rip),%rax        # 100d8 <g_414>
    4de2:	48 89 85 60 fe ff ff 	mov    %rax,-0x1a0(%rbp)
    4de9:	48 8d 85 40 fe ff ff 	lea    -0x1c0(%rbp),%rax
    4df0:	48 83 c0 08          	add    $0x8,%rax
    4df4:	48 89 85 68 fe ff ff 	mov    %rax,-0x198(%rbp)
    4dfb:	48 8d 05 46 c3 00 00 	lea    0xc346(%rip),%rax        # 11148 <g_41>
    4e02:	48 89 85 70 fe ff ff 	mov    %rax,-0x190(%rbp)
    4e09:	48 8d 05 20 b3 00 00 	lea    0xb320(%rip),%rax        # 10130 <g_698>
    4e10:	48 89 85 78 fe ff ff 	mov    %rax,-0x188(%rbp)
    4e17:	48 8d 05 22 b2 00 00 	lea    0xb222(%rip),%rax        # 10040 <g_6>
    4e1e:	48 89 85 80 fe ff ff 	mov    %rax,-0x180(%rbp)
    4e25:	48 8d 05 1c c3 00 00 	lea    0xc31c(%rip),%rax        # 11148 <g_41>
    4e2c:	48 89 85 88 fe ff ff 	mov    %rax,-0x178(%rbp)
    4e33:	48 8d 85 40 fe ff ff 	lea    -0x1c0(%rbp),%rax
    4e3a:	48 83 c0 08          	add    $0x8,%rax
    4e3e:	48 89 85 90 fe ff ff 	mov    %rax,-0x170(%rbp)
    4e45:	48 8d 05 8c b2 00 00 	lea    0xb28c(%rip),%rax        # 100d8 <g_414>
    4e4c:	48 89 85 98 fe ff ff 	mov    %rax,-0x168(%rbp)
    4e53:	48 8d 05 7e b2 00 00 	lea    0xb27e(%rip),%rax        # 100d8 <g_414>
    4e5a:	48 89 85 a0 fe ff ff 	mov    %rax,-0x160(%rbp)
    4e61:	48 8d 85 40 fe ff ff 	lea    -0x1c0(%rbp),%rax
    4e68:	48 83 c0 08          	add    $0x8,%rax
    4e6c:	48 89 85 a8 fe ff ff 	mov    %rax,-0x158(%rbp)
    4e73:	48 8d 05 c6 b1 00 00 	lea    0xb1c6(%rip),%rax        # 10040 <g_6>
    4e7a:	48 89 85 b0 fe ff ff 	mov    %rax,-0x150(%rbp)
    4e81:	48 8d 85 00 fe ff ff 	lea    -0x200(%rbp),%rax
    4e88:	48 89 85 b8 fe ff ff 	mov    %rax,-0x148(%rbp)
    4e8f:	48 c7 85 c0 fe ff ff 	movq   $0x0,-0x140(%rbp)
    4e96:	00 00 00 00 
    4e9a:	48 8d 85 40 fe ff ff 	lea    -0x1c0(%rbp),%rax
    4ea1:	48 83 c0 08          	add    $0x8,%rax
    4ea5:	48 89 85 c8 fe ff ff 	mov    %rax,-0x138(%rbp)
    4eac:	48 8d 05 8d b1 00 00 	lea    0xb18d(%rip),%rax        # 10040 <g_6>
    4eb3:	48 89 85 d0 fe ff ff 	mov    %rax,-0x130(%rbp)
    4eba:	48 8d 85 00 fe ff ff 	lea    -0x200(%rbp),%rax
    4ec1:	48 89 85 d8 fe ff ff 	mov    %rax,-0x128(%rbp)
    4ec8:	48 8d 05 09 b2 00 00 	lea    0xb209(%rip),%rax        # 100d8 <g_414>
    4ecf:	48 89 85 e0 fe ff ff 	mov    %rax,-0x120(%rbp)
    4ed6:	48 c7 85 e8 fe ff ff 	movq   $0x0,-0x118(%rbp)
    4edd:	00 00 00 00 
    4ee1:	48 8d 85 40 fe ff ff 	lea    -0x1c0(%rbp),%rax
    4ee8:	48 83 c0 08          	add    $0x8,%rax
    4eec:	48 89 85 f0 fe ff ff 	mov    %rax,-0x110(%rbp)
    4ef3:	48 c7 85 f8 fe ff ff 	movq   $0x0,-0x108(%rbp)
    4efa:	00 00 00 00 
    4efe:	48 8d 05 3b b1 00 00 	lea    0xb13b(%rip),%rax        # 10040 <g_6>
    4f05:	48 89 85 00 ff ff ff 	mov    %rax,-0x100(%rbp)
    4f0c:	48 8d 05 2d b1 00 00 	lea    0xb12d(%rip),%rax        # 10040 <g_6>
    4f13:	48 89 85 08 ff ff ff 	mov    %rax,-0xf8(%rbp)
    4f1a:	48 8d 05 b7 b1 00 00 	lea    0xb1b7(%rip),%rax        # 100d8 <g_414>
    4f21:	48 89 85 10 ff ff ff 	mov    %rax,-0xf0(%rbp)
    4f28:	48 8d 05 11 b1 00 00 	lea    0xb111(%rip),%rax        # 10040 <g_6>
    4f2f:	48 89 85 18 ff ff ff 	mov    %rax,-0xe8(%rbp)
    4f36:	48 8d 05 03 b1 00 00 	lea    0xb103(%rip),%rax        # 10040 <g_6>
    4f3d:	48 89 85 20 ff ff ff 	mov    %rax,-0xe0(%rbp)
    4f44:	48 8d 85 00 fe ff ff 	lea    -0x200(%rbp),%rax
    4f4b:	48 89 85 28 ff ff ff 	mov    %rax,-0xd8(%rbp)
    4f52:	48 8d 05 e7 b0 00 00 	lea    0xb0e7(%rip),%rax        # 10040 <g_6>
    4f59:	48 89 85 30 ff ff ff 	mov    %rax,-0xd0(%rbp)
    4f60:	48 8d 05 e1 c1 00 00 	lea    0xc1e1(%rip),%rax        # 11148 <g_41>
    4f67:	48 89 85 38 ff ff ff 	mov    %rax,-0xc8(%rbp)
    4f6e:	48 8d 05 cb b0 00 00 	lea    0xb0cb(%rip),%rax        # 10040 <g_6>
    4f75:	48 89 85 40 ff ff ff 	mov    %rax,-0xc0(%rbp)
    4f7c:	48 8d 05 bd b0 00 00 	lea    0xb0bd(%rip),%rax        # 10040 <g_6>
    4f83:	48 89 85 48 ff ff ff 	mov    %rax,-0xb8(%rbp)
    4f8a:	48 8d 05 af b0 00 00 	lea    0xb0af(%rip),%rax        # 10040 <g_6>
    4f91:	48 89 85 50 ff ff ff 	mov    %rax,-0xb0(%rbp)
    4f98:	48 c7 85 58 ff ff ff 	movq   $0x0,-0xa8(%rbp)
    4f9f:	00 00 00 00 
    4fa3:	48 8d 05 96 b0 00 00 	lea    0xb096(%rip),%rax        # 10040 <g_6>
    4faa:	48 89 85 60 ff ff ff 	mov    %rax,-0xa0(%rbp)
    4fb1:	48 8d 85 40 fe ff ff 	lea    -0x1c0(%rbp),%rax
    4fb8:	48 83 c0 08          	add    $0x8,%rax
    4fbc:	48 89 85 68 ff ff ff 	mov    %rax,-0x98(%rbp)
    4fc3:	48 8d 05 66 b1 00 00 	lea    0xb166(%rip),%rax        # 10130 <g_698>
    4fca:	48 89 85 70 ff ff ff 	mov    %rax,-0x90(%rbp)
    4fd1:	48 8d 05 70 c1 00 00 	lea    0xc170(%rip),%rax        # 11148 <g_41>
    4fd8:	48 89 85 78 ff ff ff 	mov    %rax,-0x88(%rbp)
    4fdf:	48 8d 05 5a b0 00 00 	lea    0xb05a(%rip),%rax        # 10040 <g_6>
    4fe6:	48 89 45 80          	mov    %rax,-0x80(%rbp)
    4fea:	48 8d 85 00 fe ff ff 	lea    -0x200(%rbp),%rax
    4ff1:	48 89 45 88          	mov    %rax,-0x78(%rbp)
    4ff5:	48 8d 85 40 fe ff ff 	lea    -0x1c0(%rbp),%rax
    4ffc:	48 83 c0 08          	add    $0x8,%rax
    5000:	48 89 45 90          	mov    %rax,-0x70(%rbp)
    5004:	48 8d 05 25 b1 00 00 	lea    0xb125(%rip),%rax        # 10130 <g_698>
    500b:	48 89 45 98          	mov    %rax,-0x68(%rbp)
    500f:	48 8d 05 c2 b0 00 00 	lea    0xb0c2(%rip),%rax        # 100d8 <g_414>
    5016:	48 89 45 a0          	mov    %rax,-0x60(%rbp)
    501a:	48 8d 05 1f b0 00 00 	lea    0xb01f(%rip),%rax        # 10040 <g_6>
    5021:	48 89 45 a8          	mov    %rax,-0x58(%rbp)
    5025:	48 8d 05 14 b0 00 00 	lea    0xb014(%rip),%rax        # 10040 <g_6>
    502c:	48 89 45 b0          	mov    %rax,-0x50(%rbp)
    5030:	48 8d 05 a1 b0 00 00 	lea    0xb0a1(%rip),%rax        # 100d8 <g_414>
    5037:	48 89 45 b8          	mov    %rax,-0x48(%rbp)
    503b:	48 8d 05 fe af 00 00 	lea    0xaffe(%rip),%rax        # 10040 <g_6>
    5042:	48 89 45 c0          	mov    %rax,-0x40(%rbp)
    5046:	83 bd 04 fe ff ff 00 	cmpl   $0x0,-0x1fc(%rbp)
    504d:	0f 85 79 01 00 00    	jne    51cc <func_15+0x690>
    5053:	0f bf 9d ec fd ff ff 	movswl -0x214(%rbp),%ebx
    505a:	0f b7 05 0d b0 00 00 	movzwl 0xb00d(%rip),%eax        # 1006e <g_160>
    5061:	44 0f b7 f8          	movzwl %ax,%r15d
    5065:	0f b7 05 9e 86 00 00 	movzwl 0x869e(%rip),%eax        # d70a <l_1315.4162+0xa>
    506c:	98                   	cwtl   
    506d:	89 85 e8 fd ff ff    	mov    %eax,-0x218(%rbp)
    5073:	0f b7 85 ec fd ff ff 	movzwl -0x214(%rbp),%eax
    507a:	44 0f be e0          	movsbl %al,%r12d
    507e:	48 8b 05 a3 b4 00 00 	mov    0xb4a3(%rip),%rax        # 10528 <g_91>
    5085:	48 8b 00             	mov    (%rax),%rax
    5088:	0f b7 00             	movzwl (%rax),%eax
    508b:	44 0f bf e8          	movswl %ax,%r13d
    508f:	8b 85 30 fe ff ff    	mov    -0x1d0(%rbp),%eax
    5095:	44 0f bf f0          	movswl %ax,%r14d
    5099:	0f bf 95 ec fd ff ff 	movswl -0x214(%rbp),%edx
    50a0:	89 95 e4 fd ff ff    	mov    %edx,-0x21c(%rbp)
    50a6:	0f b7 05 5d 86 00 00 	movzwl 0x865d(%rip),%eax        # d70a <l_1315.4162+0xa>
    50ad:	0f be d0             	movsbl %al,%edx
    50b0:	0f b7 05 53 86 00 00 	movzwl 0x8653(%rip),%eax        # d70a <l_1315.4162+0xa>
    50b7:	0f bf c8             	movswl %ax,%ecx
    50ba:	0f b7 05 6f 86 00 00 	movzwl 0x866f(%rip),%eax        # d730 <l_1315.4162+0x30>
    50c1:	0f bf f0             	movswl %ax,%esi
    50c4:	0f b7 05 b5 af 00 00 	movzwl 0xafb5(%rip),%eax        # 10080 <g_218>
    50cb:	0f b7 c0             	movzwl %ax,%eax
    50ce:	39 c6                	cmp    %eax,%esi
    50d0:	0f 9f c0             	setg   %al
    50d3:	0f b6 c0             	movzbl %al,%eax
    50d6:	39 85 0c fe ff ff    	cmp    %eax,-0x1f4(%rbp)
    50dc:	0f 9d c0             	setge  %al
    50df:	0f b6 c0             	movzbl %al,%eax
    50e2:	39 c1                	cmp    %eax,%ecx
    50e4:	0f 95 c0             	setne  %al
    50e7:	0f b6 c0             	movzbl %al,%eax
    50ea:	89 d6                	mov    %edx,%esi
    50ec:	89 c7                	mov    %eax,%edi
    50ee:	e8 1f e1 ff ff       	callq  3212 <safe_mul_func_int8_t_s_s>
    50f3:	c0 e8 07             	shr    $0x7,%al
    50f6:	0f b6 c0             	movzbl %al,%eax
    50f9:	39 85 e4 fd ff ff    	cmp    %eax,-0x21c(%rbp)
    50ff:	8b 85 30 fe ff ff    	mov    -0x1d0(%rbp),%eax
    5105:	98                   	cwtl   
    5106:	44 89 f6             	mov    %r14d,%esi
    5109:	89 c7                	mov    %eax,%edi
    510b:	e8 45 e3 ff ff       	callq  3455 <safe_div_func_int16_t_s_s>
    5110:	0f b7 c0             	movzwl %ax,%eax
    5113:	44 89 ee             	mov    %r13d,%esi
    5116:	89 c7                	mov    %eax,%edi
    5118:	e8 a1 ec ff ff       	callq  3dbe <safe_lshift_func_uint16_t_u_s>
    511d:	0f be c0             	movsbl %al,%eax
    5120:	be 99 ff ff ff       	mov    $0xffffff99,%esi
    5125:	89 c7                	mov    %eax,%edi
    5127:	e8 3e e1 ff ff       	callq  326a <safe_div_func_int8_t_s_s>
    512c:	0f be c0             	movsbl %al,%eax
    512f:	44 89 e6             	mov    %r12d,%esi
    5132:	89 c7                	mov    %eax,%edi
    5134:	e8 f8 e0 ff ff       	callq  3231 <safe_mod_func_int8_t_s_s>
    5139:	f7 d0                	not    %eax
    513b:	c0 e8 07             	shr    $0x7,%al
    513e:	0f b6 c0             	movzbl %al,%eax
    5141:	0b 85 e8 fd ff ff    	or     -0x218(%rbp),%eax
    5147:	89 85 00 fe ff ff    	mov    %eax,-0x200(%rbp)
    514d:	8b 85 00 fe ff ff    	mov    -0x200(%rbp),%eax
    5153:	be f8 ff ff ff       	mov    $0xfffffff8,%esi
    5158:	89 c7                	mov    %eax,%edi
    515a:	e8 6d e5 ff ff       	callq  36cc <safe_mod_func_int32_t_s_s>
    515f:	41 39 c7             	cmp    %eax,%r15d
    5162:	0f 9d c0             	setge  %al
    5165:	89 c2                	mov    %eax,%edx
    5167:	0f b7 85 ec fd ff ff 	movzwl -0x214(%rbp),%eax
    516e:	31 d0                	xor    %edx,%eax
    5170:	0f be c0             	movsbl %al,%eax
    5173:	89 de                	mov    %ebx,%esi
    5175:	89 c7                	mov    %eax,%edi
    5177:	e8 f0 e1 ff ff       	callq  336c <safe_rshift_func_int8_t_s_u>
    517c:	8b 95 48 fe ff ff    	mov    -0x1b8(%rbp),%edx
    5182:	0f be c0             	movsbl %al,%eax
    5185:	21 d0                	and    %edx,%eax
    5187:	89 85 48 fe ff ff    	mov    %eax,-0x1b8(%rbp)
    518d:	0f b6 85 fc fd ff ff 	movzbl -0x204(%rbp),%eax
    5194:	83 e8 01             	sub    $0x1,%eax
    5197:	88 85 fc fd ff ff    	mov    %al,-0x204(%rbp)
    519d:	80 85 fd fd ff ff 01 	addb   $0x1,-0x203(%rbp)
    51a4:	8b 85 04 fe ff ff    	mov    -0x1fc(%rbp),%eax
    51aa:	be 07 00 00 00       	mov    $0x7,%esi
    51af:	48 89 c7             	mov    %rax,%rdi
    51b2:	e8 8a e6 ff ff       	callq  3841 <safe_add_func_int64_t_s_s>
    51b7:	89 85 04 fe ff ff    	mov    %eax,-0x1fc(%rbp)
    51bd:	83 bd 04 fe ff ff 01 	cmpl   $0x1,-0x1fc(%rbp)
    51c4:	0f 86 f9 fb ff ff    	jbe    4dc3 <func_15+0x287>
    51ca:	eb 01                	jmp    51cd <func_15+0x691>
    51cc:	90                   	nop
    51cd:	0f b7 85 ec fd ff ff 	movzwl -0x214(%rbp),%eax
    51d4:	48 8b 4d c8          	mov    -0x38(%rbp),%rcx
    51d8:	64 48 33 0c 25 28 00 	xor    %fs:0x28,%rcx
    51df:	00 00 
    51e1:	74 05                	je     51e8 <func_15+0x6ac>
    51e3:	e8 88 de ff ff       	callq  3070 <__stack_chk_fail@plt>
    51e8:	48 81 c4 f8 01 00 00 	add    $0x1f8,%rsp
    51ef:	5b                   	pop    %rbx
    51f0:	41 5c                	pop    %r12
    51f2:	41 5d                	pop    %r13
    51f4:	41 5e                	pop    %r14
    51f6:	41 5f                	pop    %r15
    51f8:	5d                   	pop    %rbp
    51f9:	c3                   	retq   

00000000000051fa <func_20>:
    51fa:	f3 0f 1e fa          	endbr64 
    51fe:	55                   	push   %rbp
    51ff:	48 89 e5             	mov    %rsp,%rbp
    5202:	48 89 7d f8          	mov    %rdi,-0x8(%rbp)
    5206:	48 89 75 f0          	mov    %rsi,-0x10(%rbp)
    520a:	48 89 55 e8          	mov    %rdx,-0x18(%rbp)
    520e:	48 8b 05 1b b3 00 00 	mov    0xb31b(%rip),%rax        # 10530 <g_140>
    5215:	0f b6 00             	movzbl (%rax),%eax
    5218:	5d                   	pop    %rbp
    5219:	c3                   	retq   

000000000000521a <func_24>:
    521a:	f3 0f 1e fa          	endbr64 
    521e:	55                   	push   %rbp
    521f:	48 89 e5             	mov    %rsp,%rbp
    5222:	41 55                	push   %r13
    5224:	41 54                	push   %r12
    5226:	53                   	push   %rbx
    5227:	48 81 ec 68 06 00 00 	sub    $0x668,%rsp
    522e:	89 f9                	mov    %edi,%ecx
    5230:	48 89 b5 80 f9 ff ff 	mov    %rsi,-0x680(%rbp)
    5237:	89 d0                	mov    %edx,%eax
    5239:	89 ca                	mov    %ecx,%edx
    523b:	66 89 95 8c f9 ff ff 	mov    %dx,-0x674(%rbp)
    5242:	66 89 85 88 f9 ff ff 	mov    %ax,-0x678(%rbp)
    5249:	64 48 8b 04 25 28 00 	mov    %fs:0x28,%rax
    5250:	00 00 
    5252:	48 89 45 d8          	mov    %rax,-0x28(%rbp)
    5256:	31 c0                	xor    %eax,%eax
    5258:	66 c7 85 9c f9 ff ff 	movw   $0xaae8,-0x664(%rbp)
    525f:	e8 aa 
    5261:	c7 85 b0 fa ff ff 9e 	movl   $0xf683429e,-0x550(%rbp)
    5268:	42 83 f6 
    526b:	c7 85 b4 fa ff ff 9e 	movl   $0xf683429e,-0x54c(%rbp)
    5272:	42 83 f6 
    5275:	c7 85 b8 fa ff ff 9e 	movl   $0xf683429e,-0x548(%rbp)
    527c:	42 83 f6 
    527f:	c7 85 bc fa ff ff 9e 	movl   $0xf683429e,-0x544(%rbp)
    5286:	42 83 f6 
    5289:	c7 85 c0 fa ff ff 9e 	movl   $0xf683429e,-0x540(%rbp)
    5290:	42 83 f6 
    5293:	c7 85 ac f9 ff ff ff 	movl   $0xffffffff,-0x654(%rbp)
    529a:	ff ff ff 
    529d:	48 8d 05 a4 ad 00 00 	lea    0xada4(%rip),%rax        # 10048 <g_38>
    52a4:	48 89 85 e0 f9 ff ff 	mov    %rax,-0x620(%rbp)
    52ab:	48 8d 05 9a be 00 00 	lea    0xbe9a(%rip),%rax        # 1114c <g_108>
    52b2:	48 89 85 d8 f9 ff ff 	mov    %rax,-0x628(%rbp)
    52b9:	48 8d 85 d8 f9 ff ff 	lea    -0x628(%rbp),%rax
    52c0:	48 89 85 f0 fa ff ff 	mov    %rax,-0x510(%rbp)
    52c7:	48 8d 85 d8 f9 ff ff 	lea    -0x628(%rbp),%rax
    52ce:	48 89 85 f8 fa ff ff 	mov    %rax,-0x508(%rbp)
    52d5:	48 8d 85 d8 f9 ff ff 	lea    -0x628(%rbp),%rax
    52dc:	48 89 85 00 fb ff ff 	mov    %rax,-0x500(%rbp)
    52e3:	48 8d 85 d8 f9 ff ff 	lea    -0x628(%rbp),%rax
    52ea:	48 89 85 08 fb ff ff 	mov    %rax,-0x4f8(%rbp)
    52f1:	48 8d 85 d8 f9 ff ff 	lea    -0x628(%rbp),%rax
    52f8:	48 89 85 10 fb ff ff 	mov    %rax,-0x4f0(%rbp)
    52ff:	c7 85 d0 fa ff ff dd 	movl   $0x88622ddd,-0x530(%rbp)
    5306:	2d 62 88 
    5309:	c7 85 d4 fa ff ff dd 	movl   $0x88622ddd,-0x52c(%rbp)
    5310:	2d 62 88 
    5313:	c7 85 d8 fa ff ff dd 	movl   $0x88622ddd,-0x528(%rbp)
    531a:	2d 62 88 
    531d:	c7 85 dc fa ff ff dd 	movl   $0x88622ddd,-0x524(%rbp)
    5324:	2d 62 88 
    5327:	c7 85 e0 fa ff ff dd 	movl   $0x88622ddd,-0x520(%rbp)
    532e:	2d 62 88 
    5331:	c7 85 e4 fa ff ff dd 	movl   $0x88622ddd,-0x51c(%rbp)
    5338:	2d 62 88 
    533b:	48 c7 85 e8 f9 ff ff 	movq   $0x0,-0x618(%rbp)
    5342:	00 00 00 00 
    5346:	c7 85 b0 f9 ff ff 4d 	movl   $0x78d5e4d,-0x650(%rbp)
    534d:	5e 8d 07 
    5350:	48 8d 05 fd ad 00 00 	lea    0xadfd(%rip),%rax        # 10154 <g_773>
    5357:	48 89 85 f0 f9 ff ff 	mov    %rax,-0x610(%rbp)
    535e:	48 b8 c8 dd 4b f6 54 	movabs $0x87000b54f64bddc8,%rax
    5365:	0b 00 87 
    5368:	48 89 85 f8 f9 ff ff 	mov    %rax,-0x608(%rbp)
    536f:	48 c7 85 00 fa ff ff 	movq   $0xfffffffffffffffa,-0x600(%rbp)
    5376:	fa ff ff ff 
    537a:	48 c7 85 08 fa ff ff 	movq   $0x0,-0x5f8(%rbp)
    5381:	00 00 00 00 
    5385:	48 8d 05 fc b2 00 00 	lea    0xb2fc(%rip),%rax        # 10688 <g_691>
    538c:	48 89 85 10 fa ff ff 	mov    %rax,-0x5f0(%rbp)
    5393:	48 c7 85 18 fa ff ff 	movq   $0xffffffffffffffff,-0x5e8(%rbp)
    539a:	ff ff ff ff 
    539e:	c7 85 a4 f9 ff ff 00 	movl   $0x0,-0x65c(%rbp)
    53a5:	00 00 00 
    53a8:	eb 1a                	jmp    53c4 <func_24+0x1aa>
    53aa:	8b 85 a4 f9 ff ff    	mov    -0x65c(%rbp),%eax
    53b0:	48 98                	cltq   
    53b2:	c7 84 85 a8 fa ff ff 	movl   $0x6d0dacd2,-0x558(%rbp,%rax,4)
    53b9:	d2 ac 0d 6d 
    53bd:	83 85 a4 f9 ff ff 01 	addl   $0x1,-0x65c(%rbp)
    53c4:	83 bd a4 f9 ff ff 01 	cmpl   $0x1,-0x65c(%rbp)
    53cb:	7e dd                	jle    53aa <func_24+0x190>
    53cd:	c6 05 84 ac 00 00 00 	movb   $0x0,0xac84(%rip)        # 10058 <g_75>
    53d4:	90                   	nop
    53d5:	0f b6 05 7c ac 00 00 	movzbl 0xac7c(%rip),%eax        # 10058 <g_75>
    53dc:	3c f2                	cmp    $0xf2,%al
    53de:	0f 8c 43 02 00 00    	jl     5627 <func_24+0x40d>
    53e4:	c7 85 d4 f9 ff ff 16 	movl   $0xeb57bc16,-0x62c(%rbp)
    53eb:	bc 57 eb 
    53ee:	48 8d 05 53 bd 00 00 	lea    0xbd53(%rip),%rax        # 11148 <g_41>
    53f5:	48 89 85 68 fa ff ff 	mov    %rax,-0x598(%rbp)
    53fc:	48 8d 05 4d bd 00 00 	lea    0xbd4d(%rip),%rax        # 11150 <g_162>
    5403:	48 89 85 70 fa ff ff 	mov    %rax,-0x590(%rbp)
    540a:	48 c7 85 78 fa ff ff 	movq   $0x0,-0x588(%rbp)
    5411:	00 00 00 00 
    5415:	48 8d 05 34 ad 00 00 	lea    0xad34(%rip),%rax        # 10150 <g_739>
    541c:	48 89 85 50 fb ff ff 	mov    %rax,-0x4b0(%rbp)
    5423:	48 8d 05 26 ad 00 00 	lea    0xad26(%rip),%rax        # 10150 <g_739>
    542a:	48 89 85 58 fb ff ff 	mov    %rax,-0x4a8(%rbp)
    5431:	48 8d 05 18 ad 00 00 	lea    0xad18(%rip),%rax        # 10150 <g_739>
    5438:	48 89 85 60 fb ff ff 	mov    %rax,-0x4a0(%rbp)
    543f:	48 8d 05 0a ad 00 00 	lea    0xad0a(%rip),%rax        # 10150 <g_739>
    5446:	48 89 85 68 fb ff ff 	mov    %rax,-0x498(%rbp)
    544d:	48 8d 05 fc ac 00 00 	lea    0xacfc(%rip),%rax        # 10150 <g_739>
    5454:	48 89 85 70 fb ff ff 	mov    %rax,-0x490(%rbp)
    545b:	48 8b 85 68 fa ff ff 	mov    -0x598(%rbp),%rax
    5462:	8b 95 d4 f9 ff ff    	mov    -0x62c(%rbp),%edx
    5468:	89 10                	mov    %edx,(%rax)
    546a:	66 c7 05 0d ac 00 00 	movw   $0x0,0xac0d(%rip)        # 10080 <g_218>
    5471:	00 00 
    5473:	eb 55                	jmp    54ca <func_24+0x2b0>
    5475:	c7 85 a0 f9 ff ff f9 	movl   $0xfffffff9,-0x660(%rbp)
    547c:	ff ff ff 
    547f:	48 c7 85 80 fa ff ff 	movq   $0x0,-0x580(%rbp)
    5486:	00 00 00 00 
    548a:	48 8d 05 b7 bc 00 00 	lea    0xbcb7(%rip),%rax        # 11148 <g_41>
    5491:	48 89 85 88 fa ff ff 	mov    %rax,-0x578(%rbp)
    5498:	48 c7 85 90 fa ff ff 	movq   $0x0,-0x570(%rbp)
    549f:	00 00 00 00 
    54a3:	48 8d 85 a0 f9 ff ff 	lea    -0x660(%rbp),%rax
    54aa:	48 89 85 98 fa ff ff 	mov    %rax,-0x568(%rbp)
    54b1:	66 83 ad 9c f9 ff ff 	subw   $0x1,-0x664(%rbp)
    54b8:	01 
    54b9:	0f b7 05 c0 ab 00 00 	movzwl 0xabc0(%rip),%eax        # 10080 <g_218>
    54c0:	83 c0 01             	add    $0x1,%eax
    54c3:	66 89 05 b6 ab 00 00 	mov    %ax,0xabb6(%rip)        # 10080 <g_218>
    54ca:	0f b7 05 af ab 00 00 	movzwl 0xabaf(%rip),%eax        # 10080 <g_218>
    54d1:	66 83 f8 14          	cmp    $0x14,%ax
    54d5:	77 9e                	ja     5475 <func_24+0x25b>
    54d7:	0f b7 9d 8c f9 ff ff 	movzwl -0x674(%rbp),%ebx
    54de:	44 0f bf a5 88 f9 ff 	movswl -0x678(%rbp),%r12d
    54e5:	ff 
    54e6:	0f b7 85 9c f9 ff ff 	movzwl -0x664(%rbp),%eax
    54ed:	44 0f be e8          	movsbl %al,%r13d
    54f1:	0f b7 85 9c f9 ff ff 	movzwl -0x664(%rbp),%eax
    54f8:	89 c6                	mov    %eax,%esi
    54fa:	bf ff ff ff ff       	mov    $0xffffffff,%edi
    54ff:	e8 fb e1 ff ff       	callq  36ff <safe_div_func_int32_t_s_s>
    5504:	0f be c0             	movsbl %al,%eax
    5507:	44 89 ee             	mov    %r13d,%esi
    550a:	89 c7                	mov    %eax,%edi
    550c:	e8 59 dd ff ff       	callq  326a <safe_div_func_int8_t_s_s>
    5511:	0f b7 05 86 ab 00 00 	movzwl 0xab86(%rip),%eax        # 1009e <g_255+0xe>
    5518:	c1 e0 03             	shl    $0x3,%eax
    551b:	66 c1 f8 0a          	sar    $0xa,%ax
    551f:	48 0f be d0          	movsbq %al,%rdx
    5523:	48 8b 85 70 fa ff ff 	mov    -0x590(%rbp),%rax
    552a:	8b 08                	mov    (%rax),%ecx
    552c:	66 83 bd 9c f9 ff ff 	cmpw   $0x1,-0x664(%rbp)
    5533:	01 
    5534:	0f 96 c0             	setbe  %al
    5537:	0f b6 c0             	movzbl %al,%eax
    553a:	09 c1                	or     %eax,%ecx
    553c:	48 8b 85 70 fa ff ff 	mov    -0x590(%rbp),%rax
    5543:	89 08                	mov    %ecx,(%rax)
    5545:	48 8b 85 70 fa ff ff 	mov    -0x590(%rbp),%rax
    554c:	8b 00                	mov    (%rax),%eax
    554e:	89 85 a8 fa ff ff    	mov    %eax,-0x558(%rbp)
    5554:	8b 85 a8 fa ff ff    	mov    -0x558(%rbp),%eax
    555a:	83 f8 09             	cmp    $0x9,%eax
    555d:	0f 95 c0             	setne  %al
    5560:	0f b6 c0             	movzbl %al,%eax
    5563:	48 89 d6             	mov    %rdx,%rsi
    5566:	48 89 c7             	mov    %rax,%rdi
    5569:	e8 d3 e2 ff ff       	callq  3841 <safe_add_func_int64_t_s_s>
    556e:	0f b7 85 8c f9 ff ff 	movzwl -0x674(%rbp),%eax
    5575:	8b 95 b8 fa ff ff    	mov    -0x548(%rbp),%edx
    557b:	0f b7 c0             	movzwl %ax,%eax
    557e:	09 d0                	or     %edx,%eax
    5580:	89 85 b8 fa ff ff    	mov    %eax,-0x548(%rbp)
    5586:	8b 85 b8 fa ff ff    	mov    -0x548(%rbp),%eax
    558c:	89 c2                	mov    %eax,%edx
    558e:	8b 05 68 ab 00 00    	mov    0xab68(%rip),%eax        # 100fc <g_581+0x1c>
    5594:	25 ff ff 7f 00       	and    $0x7fffff,%eax
    5599:	31 d0                	xor    %edx,%eax
    559b:	0f b6 c0             	movzbl %al,%eax
    559e:	89 c6                	mov    %eax,%esi
    55a0:	bf ff 00 00 00       	mov    $0xff,%edi
    55a5:	e8 b0 e5 ff ff       	callq  3b5a <safe_add_func_uint8_t_u_u>
    55aa:	0f b6 d0             	movzbl %al,%edx
    55ad:	48 8b 85 80 f9 ff ff 	mov    -0x680(%rbp),%rax
    55b4:	66 89 10             	mov    %dx,(%rax)
    55b7:	48 8b 85 80 f9 ff ff 	mov    -0x680(%rbp),%rax
    55be:	0f b7 00             	movzwl (%rax),%eax
    55c1:	48 0f bf c0          	movswq %ax,%rax
    55c5:	83 e0 03             	and    $0x3,%eax
    55c8:	48 85 c0             	test   %rax,%rax
    55cb:	74 0a                	je     55d7 <func_24+0x3bd>
    55cd:	0f b7 05 70 aa 00 00 	movzwl 0xaa70(%rip),%eax        # 10044 <g_19>
    55d4:	66 85 c0             	test   %ax,%ax
    55d7:	b8 01 00 00 00       	mov    $0x1,%eax
    55dc:	0f be c0             	movsbl %al,%eax
    55df:	44 89 e6             	mov    %r12d,%esi
    55e2:	89 c7                	mov    %eax,%edi
    55e4:	e8 83 dd ff ff       	callq  336c <safe_rshift_func_int8_t_s_u>
    55e9:	48 0f bf 85 88 f9 ff 	movswq -0x678(%rbp),%rax
    55f0:	ff 
    55f1:	48 89 de             	mov    %rbx,%rsi
    55f4:	48 89 c7             	mov    %rax,%rdi
    55f7:	e8 45 e2 ff ff       	callq  3841 <safe_add_func_int64_t_s_s>
    55fc:	48 ba bc 38 a7 cf 3a 	movabs $0x5ad0273acfa738bc,%rdx
    5603:	27 d0 5a 
    5606:	48 39 d0             	cmp    %rdx,%rax
    5609:	0f 95 c0             	setne  %al
    560c:	0f b6 d0             	movzbl %al,%edx
    560f:	48 8b 85 68 fa ff ff 	mov    -0x598(%rbp),%rax
    5616:	89 10                	mov    %edx,(%rax)
    5618:	48 8b 05 09 af 00 00 	mov    0xaf09(%rip),%rax        # 10528 <g_91>
    561f:	48 8b 00             	mov    (%rax),%rax
    5622:	e9 9b 0a 00 00       	jmpq   60c2 <func_24+0xea8>
    5627:	66 c7 05 3e aa 00 00 	movw   $0xffe9,0xaa3e(%rip)        # 1006e <g_160>
    562e:	e9 ff 
    5630:	e9 72 0a 00 00       	jmpq   60a7 <func_24+0xe8d>
    5635:	48 c7 85 20 fa ff ff 	movq   $0x9,-0x5e0(%rbp)
    563c:	09 00 00 00 
    5640:	c7 85 b4 f9 ff ff 00 	movl   $0x0,-0x64c(%rbp)
    5647:	00 00 00 
    564a:	c7 85 b8 f9 ff ff 31 	movl   $0x2871be31,-0x648(%rbp)
    5651:	be 71 28 
    5654:	c7 85 bc f9 ff ff 3a 	movl   $0xee201f3a,-0x644(%rbp)
    565b:	1f 20 ee 
    565e:	48 8d 05 bb ae 00 00 	lea    0xaebb(%rip),%rax        # 10520 <g_92>
    5665:	48 89 85 28 fa ff ff 	mov    %rax,-0x5d8(%rbp)
    566c:	c7 85 a0 f9 ff ff 7b 	movl   $0xb0e3037b,-0x660(%rbp)
    5673:	03 e3 b0 
    5676:	c7 85 c0 f9 ff ff fe 	movl   $0xfffffffe,-0x640(%rbp)
    567d:	ff ff ff 
    5680:	c7 85 c4 f9 ff ff f2 	movl   $0x4f1a2cf2,-0x63c(%rbp)
    5687:	2c 1a 4f 
    568a:	c7 85 c8 f9 ff ff 80 	movl   $0xb91ff780,-0x638(%rbp)
    5691:	f7 1f b9 
    5694:	48 8d 85 d8 f9 ff ff 	lea    -0x628(%rbp),%rax
    569b:	48 89 85 30 fa ff ff 	mov    %rax,-0x5d0(%rbp)
    56a2:	c7 85 cc f9 ff ff ff 	movl   $0xffffffff,-0x634(%rbp)
    56a9:	ff ff ff 
    56ac:	48 8d 05 d5 af 00 00 	lea    0xafd5(%rip),%rax        # 10688 <g_691>
    56b3:	48 89 85 38 fa ff ff 	mov    %rax,-0x5c8(%rbp)
    56ba:	66 c7 85 9e f9 ff ff 	movw   $0xfffb,-0x662(%rbp)
    56c1:	fb ff 
    56c3:	48 8d 85 a0 f9 ff ff 	lea    -0x660(%rbp),%rax
    56ca:	48 89 85 40 fa ff ff 	mov    %rax,-0x5c0(%rbp)
    56d1:	48 8d 05 60 ae 00 00 	lea    0xae60(%rip),%rax        # 10538 <g_226>
    56d8:	48 89 85 48 fa ff ff 	mov    %rax,-0x5b8(%rbp)
    56df:	48 8d 05 52 ae 00 00 	lea    0xae52(%rip),%rax        # 10538 <g_226>
    56e6:	48 89 85 20 fb ff ff 	mov    %rax,-0x4e0(%rbp)
    56ed:	48 8d 05 44 ae 00 00 	lea    0xae44(%rip),%rax        # 10538 <g_226>
    56f4:	48 89 85 28 fb ff ff 	mov    %rax,-0x4d8(%rbp)
    56fb:	48 8d 05 36 ae 00 00 	lea    0xae36(%rip),%rax        # 10538 <g_226>
    5702:	48 89 85 30 fb ff ff 	mov    %rax,-0x4d0(%rbp)
    5709:	48 8d 05 28 ae 00 00 	lea    0xae28(%rip),%rax        # 10538 <g_226>
    5710:	48 89 85 38 fb ff ff 	mov    %rax,-0x4c8(%rbp)
    5717:	48 8d 05 1a ae 00 00 	lea    0xae1a(%rip),%rax        # 10538 <g_226>
    571e:	48 89 85 40 fb ff ff 	mov    %rax,-0x4c0(%rbp)
    5725:	48 8d 05 0c ae 00 00 	lea    0xae0c(%rip),%rax        # 10538 <g_226>
    572c:	48 89 85 48 fb ff ff 	mov    %rax,-0x4b8(%rbp)
    5733:	48 8d 85 20 fb ff ff 	lea    -0x4e0(%rbp),%rax
    573a:	48 89 85 50 fb ff ff 	mov    %rax,-0x4b0(%rbp)
    5741:	48 8d 85 20 fb ff ff 	lea    -0x4e0(%rbp),%rax
    5748:	48 89 85 58 fb ff ff 	mov    %rax,-0x4a8(%rbp)
    574f:	48 8d 85 20 fb ff ff 	lea    -0x4e0(%rbp),%rax
    5756:	48 89 85 60 fb ff ff 	mov    %rax,-0x4a0(%rbp)
    575d:	48 8d 85 20 fb ff ff 	lea    -0x4e0(%rbp),%rax
    5764:	48 83 c0 20          	add    $0x20,%rax
    5768:	48 89 85 68 fb ff ff 	mov    %rax,-0x498(%rbp)
    576f:	48 8d 85 20 fb ff ff 	lea    -0x4e0(%rbp),%rax
    5776:	48 83 c0 20          	add    $0x20,%rax
    577a:	48 89 85 70 fb ff ff 	mov    %rax,-0x490(%rbp)
    5781:	48 8d 85 20 fb ff ff 	lea    -0x4e0(%rbp),%rax
    5788:	48 83 c0 20          	add    $0x20,%rax
    578c:	48 89 85 78 fb ff ff 	mov    %rax,-0x488(%rbp)
    5793:	48 8d 85 20 fb ff ff 	lea    -0x4e0(%rbp),%rax
    579a:	48 89 85 80 fb ff ff 	mov    %rax,-0x480(%rbp)
    57a1:	48 8d 85 20 fb ff ff 	lea    -0x4e0(%rbp),%rax
    57a8:	48 89 85 88 fb ff ff 	mov    %rax,-0x478(%rbp)
    57af:	48 8d 85 20 fb ff ff 	lea    -0x4e0(%rbp),%rax
    57b6:	48 89 85 90 fb ff ff 	mov    %rax,-0x470(%rbp)
    57bd:	48 8d 85 20 fb ff ff 	lea    -0x4e0(%rbp),%rax
    57c4:	48 83 c0 20          	add    $0x20,%rax
    57c8:	48 89 85 98 fb ff ff 	mov    %rax,-0x468(%rbp)
    57cf:	48 8d 85 20 fb ff ff 	lea    -0x4e0(%rbp),%rax
    57d6:	48 83 c0 20          	add    $0x20,%rax
    57da:	48 89 85 a0 fb ff ff 	mov    %rax,-0x460(%rbp)
    57e1:	48 8d 85 20 fb ff ff 	lea    -0x4e0(%rbp),%rax
    57e8:	48 83 c0 20          	add    $0x20,%rax
    57ec:	48 89 85 a8 fb ff ff 	mov    %rax,-0x458(%rbp)
    57f3:	48 8d 85 20 fb ff ff 	lea    -0x4e0(%rbp),%rax
    57fa:	48 89 85 b0 fb ff ff 	mov    %rax,-0x450(%rbp)
    5801:	48 8d 85 20 fb ff ff 	lea    -0x4e0(%rbp),%rax
    5808:	48 89 85 b8 fb ff ff 	mov    %rax,-0x448(%rbp)
    580f:	48 8d 85 20 fb ff ff 	lea    -0x4e0(%rbp),%rax
    5816:	48 89 85 c0 fb ff ff 	mov    %rax,-0x440(%rbp)
    581d:	48 8d 85 20 fb ff ff 	lea    -0x4e0(%rbp),%rax
    5824:	48 83 c0 20          	add    $0x20,%rax
    5828:	48 89 85 c8 fb ff ff 	mov    %rax,-0x438(%rbp)
    582f:	48 8d 85 20 fb ff ff 	lea    -0x4e0(%rbp),%rax
    5836:	48 83 c0 20          	add    $0x20,%rax
    583a:	48 89 85 d0 fb ff ff 	mov    %rax,-0x430(%rbp)
    5841:	48 8d 85 20 fb ff ff 	lea    -0x4e0(%rbp),%rax
    5848:	48 83 c0 20          	add    $0x20,%rax
    584c:	48 89 85 d8 fb ff ff 	mov    %rax,-0x428(%rbp)
    5853:	48 8d 85 20 fb ff ff 	lea    -0x4e0(%rbp),%rax
    585a:	48 89 85 e0 fb ff ff 	mov    %rax,-0x420(%rbp)
    5861:	48 8d 85 20 fb ff ff 	lea    -0x4e0(%rbp),%rax
    5868:	48 89 85 e8 fb ff ff 	mov    %rax,-0x418(%rbp)
    586f:	48 8d 85 20 fb ff ff 	lea    -0x4e0(%rbp),%rax
    5876:	48 89 85 f0 fb ff ff 	mov    %rax,-0x410(%rbp)
    587d:	48 8d 85 20 fb ff ff 	lea    -0x4e0(%rbp),%rax
    5884:	48 83 c0 20          	add    $0x20,%rax
    5888:	48 89 85 f8 fb ff ff 	mov    %rax,-0x408(%rbp)
    588f:	48 8d 85 20 fb ff ff 	lea    -0x4e0(%rbp),%rax
    5896:	48 83 c0 20          	add    $0x20,%rax
    589a:	48 89 85 00 fc ff ff 	mov    %rax,-0x400(%rbp)
    58a1:	48 8d 85 20 fb ff ff 	lea    -0x4e0(%rbp),%rax
    58a8:	48 83 c0 20          	add    $0x20,%rax
    58ac:	48 89 85 08 fc ff ff 	mov    %rax,-0x3f8(%rbp)
    58b3:	48 8d 85 20 fb ff ff 	lea    -0x4e0(%rbp),%rax
    58ba:	48 89 85 10 fc ff ff 	mov    %rax,-0x3f0(%rbp)
    58c1:	48 8d 85 20 fb ff ff 	lea    -0x4e0(%rbp),%rax
    58c8:	48 89 85 18 fc ff ff 	mov    %rax,-0x3e8(%rbp)
    58cf:	48 8d 85 20 fb ff ff 	lea    -0x4e0(%rbp),%rax
    58d6:	48 89 85 20 fc ff ff 	mov    %rax,-0x3e0(%rbp)
    58dd:	48 8d 85 20 fb ff ff 	lea    -0x4e0(%rbp),%rax
    58e4:	48 83 c0 20          	add    $0x20,%rax
    58e8:	48 89 85 28 fc ff ff 	mov    %rax,-0x3d8(%rbp)
    58ef:	48 8d 85 20 fb ff ff 	lea    -0x4e0(%rbp),%rax
    58f6:	48 83 c0 20          	add    $0x20,%rax
    58fa:	48 89 85 30 fc ff ff 	mov    %rax,-0x3d0(%rbp)
    5901:	48 8d 85 20 fb ff ff 	lea    -0x4e0(%rbp),%rax
    5908:	48 83 c0 20          	add    $0x20,%rax
    590c:	48 89 85 38 fc ff ff 	mov    %rax,-0x3c8(%rbp)
    5913:	48 8d 85 20 fb ff ff 	lea    -0x4e0(%rbp),%rax
    591a:	48 89 85 40 fc ff ff 	mov    %rax,-0x3c0(%rbp)
    5921:	48 8d 85 20 fb ff ff 	lea    -0x4e0(%rbp),%rax
    5928:	48 89 85 48 fc ff ff 	mov    %rax,-0x3b8(%rbp)
    592f:	48 8d 85 20 fb ff ff 	lea    -0x4e0(%rbp),%rax
    5936:	48 89 85 50 fc ff ff 	mov    %rax,-0x3b0(%rbp)
    593d:	48 8d 85 20 fb ff ff 	lea    -0x4e0(%rbp),%rax
    5944:	48 83 c0 20          	add    $0x20,%rax
    5948:	48 89 85 58 fc ff ff 	mov    %rax,-0x3a8(%rbp)
    594f:	48 8d 85 20 fb ff ff 	lea    -0x4e0(%rbp),%rax
    5956:	48 83 c0 20          	add    $0x20,%rax
    595a:	48 89 85 60 fc ff ff 	mov    %rax,-0x3a0(%rbp)
    5961:	48 8d 85 20 fb ff ff 	lea    -0x4e0(%rbp),%rax
    5968:	48 83 c0 20          	add    $0x20,%rax
    596c:	48 89 85 68 fc ff ff 	mov    %rax,-0x398(%rbp)
    5973:	48 8d 85 20 fb ff ff 	lea    -0x4e0(%rbp),%rax
    597a:	48 89 85 70 fc ff ff 	mov    %rax,-0x390(%rbp)
    5981:	48 8d 85 20 fb ff ff 	lea    -0x4e0(%rbp),%rax
    5988:	48 89 85 78 fc ff ff 	mov    %rax,-0x388(%rbp)
    598f:	48 8d 85 20 fb ff ff 	lea    -0x4e0(%rbp),%rax
    5996:	48 89 85 80 fc ff ff 	mov    %rax,-0x380(%rbp)
    599d:	48 8d 85 20 fb ff ff 	lea    -0x4e0(%rbp),%rax
    59a4:	48 83 c0 20          	add    $0x20,%rax
    59a8:	48 89 85 88 fc ff ff 	mov    %rax,-0x378(%rbp)
    59af:	48 8d 85 20 fb ff ff 	lea    -0x4e0(%rbp),%rax
    59b6:	48 83 c0 20          	add    $0x20,%rax
    59ba:	48 89 85 90 fc ff ff 	mov    %rax,-0x370(%rbp)
    59c1:	48 8d 85 20 fb ff ff 	lea    -0x4e0(%rbp),%rax
    59c8:	48 83 c0 20          	add    $0x20,%rax
    59cc:	48 89 85 98 fc ff ff 	mov    %rax,-0x368(%rbp)
    59d3:	48 8d 85 20 fb ff ff 	lea    -0x4e0(%rbp),%rax
    59da:	48 89 85 a0 fc ff ff 	mov    %rax,-0x360(%rbp)
    59e1:	48 8d 85 20 fb ff ff 	lea    -0x4e0(%rbp),%rax
    59e8:	48 89 85 a8 fc ff ff 	mov    %rax,-0x358(%rbp)
    59ef:	48 8d 85 20 fb ff ff 	lea    -0x4e0(%rbp),%rax
    59f6:	48 89 85 b0 fc ff ff 	mov    %rax,-0x350(%rbp)
    59fd:	48 8d 85 20 fb ff ff 	lea    -0x4e0(%rbp),%rax
    5a04:	48 83 c0 20          	add    $0x20,%rax
    5a08:	48 89 85 b8 fc ff ff 	mov    %rax,-0x348(%rbp)
    5a0f:	48 8d 85 20 fb ff ff 	lea    -0x4e0(%rbp),%rax
    5a16:	48 83 c0 20          	add    $0x20,%rax
    5a1a:	48 89 85 c0 fc ff ff 	mov    %rax,-0x340(%rbp)
    5a21:	48 8d 85 20 fb ff ff 	lea    -0x4e0(%rbp),%rax
    5a28:	48 83 c0 20          	add    $0x20,%rax
    5a2c:	48 89 85 c8 fc ff ff 	mov    %rax,-0x338(%rbp)
    5a33:	48 8d 85 20 fb ff ff 	lea    -0x4e0(%rbp),%rax
    5a3a:	48 89 85 d0 fc ff ff 	mov    %rax,-0x330(%rbp)
    5a41:	48 8d 85 20 fb ff ff 	lea    -0x4e0(%rbp),%rax
    5a48:	48 89 85 d8 fc ff ff 	mov    %rax,-0x328(%rbp)
    5a4f:	48 8d 85 20 fb ff ff 	lea    -0x4e0(%rbp),%rax
    5a56:	48 89 85 e0 fc ff ff 	mov    %rax,-0x320(%rbp)
    5a5d:	48 8d 85 20 fb ff ff 	lea    -0x4e0(%rbp),%rax
    5a64:	48 83 c0 20          	add    $0x20,%rax
    5a68:	48 89 85 e8 fc ff ff 	mov    %rax,-0x318(%rbp)
    5a6f:	48 8d 85 20 fb ff ff 	lea    -0x4e0(%rbp),%rax
    5a76:	48 83 c0 20          	add    $0x20,%rax
    5a7a:	48 89 85 f0 fc ff ff 	mov    %rax,-0x310(%rbp)
    5a81:	48 8d 85 20 fb ff ff 	lea    -0x4e0(%rbp),%rax
    5a88:	48 83 c0 20          	add    $0x20,%rax
    5a8c:	48 89 85 f8 fc ff ff 	mov    %rax,-0x308(%rbp)
    5a93:	48 8d 85 20 fb ff ff 	lea    -0x4e0(%rbp),%rax
    5a9a:	48 89 85 00 fd ff ff 	mov    %rax,-0x300(%rbp)
    5aa1:	48 8d 85 20 fb ff ff 	lea    -0x4e0(%rbp),%rax
    5aa8:	48 89 85 08 fd ff ff 	mov    %rax,-0x2f8(%rbp)
    5aaf:	48 8d 85 20 fb ff ff 	lea    -0x4e0(%rbp),%rax
    5ab6:	48 89 85 10 fd ff ff 	mov    %rax,-0x2f0(%rbp)
    5abd:	48 8d 85 20 fb ff ff 	lea    -0x4e0(%rbp),%rax
    5ac4:	48 83 c0 20          	add    $0x20,%rax
    5ac8:	48 89 85 18 fd ff ff 	mov    %rax,-0x2e8(%rbp)
    5acf:	48 8d 85 20 fb ff ff 	lea    -0x4e0(%rbp),%rax
    5ad6:	48 83 c0 20          	add    $0x20,%rax
    5ada:	48 89 85 20 fd ff ff 	mov    %rax,-0x2e0(%rbp)
    5ae1:	48 8d 85 20 fb ff ff 	lea    -0x4e0(%rbp),%rax
    5ae8:	48 83 c0 20          	add    $0x20,%rax
    5aec:	48 89 85 28 fd ff ff 	mov    %rax,-0x2d8(%rbp)
    5af3:	48 8d 85 20 fb ff ff 	lea    -0x4e0(%rbp),%rax
    5afa:	48 89 85 30 fd ff ff 	mov    %rax,-0x2d0(%rbp)
    5b01:	48 8d 85 20 fb ff ff 	lea    -0x4e0(%rbp),%rax
    5b08:	48 89 85 38 fd ff ff 	mov    %rax,-0x2c8(%rbp)
    5b0f:	48 8d 85 20 fb ff ff 	lea    -0x4e0(%rbp),%rax
    5b16:	48 89 85 40 fd ff ff 	mov    %rax,-0x2c0(%rbp)
    5b1d:	48 8d 85 20 fb ff ff 	lea    -0x4e0(%rbp),%rax
    5b24:	48 83 c0 20          	add    $0x20,%rax
    5b28:	48 89 85 48 fd ff ff 	mov    %rax,-0x2b8(%rbp)
    5b2f:	48 8d 85 20 fb ff ff 	lea    -0x4e0(%rbp),%rax
    5b36:	48 83 c0 20          	add    $0x20,%rax
    5b3a:	48 89 85 50 fd ff ff 	mov    %rax,-0x2b0(%rbp)
    5b41:	48 8d 85 20 fb ff ff 	lea    -0x4e0(%rbp),%rax
    5b48:	48 83 c0 20          	add    $0x20,%rax
    5b4c:	48 89 85 58 fd ff ff 	mov    %rax,-0x2a8(%rbp)
    5b53:	48 8d 85 20 fb ff ff 	lea    -0x4e0(%rbp),%rax
    5b5a:	48 89 85 60 fd ff ff 	mov    %rax,-0x2a0(%rbp)
    5b61:	48 8d 85 20 fb ff ff 	lea    -0x4e0(%rbp),%rax
    5b68:	48 89 85 68 fd ff ff 	mov    %rax,-0x298(%rbp)
    5b6f:	48 8d 85 20 fb ff ff 	lea    -0x4e0(%rbp),%rax
    5b76:	48 89 85 70 fd ff ff 	mov    %rax,-0x290(%rbp)
    5b7d:	48 8d 85 20 fb ff ff 	lea    -0x4e0(%rbp),%rax
    5b84:	48 83 c0 20          	add    $0x20,%rax
    5b88:	48 89 85 78 fd ff ff 	mov    %rax,-0x288(%rbp)
    5b8f:	48 8d 85 20 fb ff ff 	lea    -0x4e0(%rbp),%rax
    5b96:	48 83 c0 20          	add    $0x20,%rax
    5b9a:	48 89 85 80 fd ff ff 	mov    %rax,-0x280(%rbp)
    5ba1:	48 8d 85 20 fb ff ff 	lea    -0x4e0(%rbp),%rax
    5ba8:	48 83 c0 20          	add    $0x20,%rax
    5bac:	48 89 85 88 fd ff ff 	mov    %rax,-0x278(%rbp)
    5bb3:	48 8d 85 20 fb ff ff 	lea    -0x4e0(%rbp),%rax
    5bba:	48 89 85 90 fd ff ff 	mov    %rax,-0x270(%rbp)
    5bc1:	48 8d 85 20 fb ff ff 	lea    -0x4e0(%rbp),%rax
    5bc8:	48 89 85 98 fd ff ff 	mov    %rax,-0x268(%rbp)
    5bcf:	48 8d 85 20 fb ff ff 	lea    -0x4e0(%rbp),%rax
    5bd6:	48 89 85 a0 fd ff ff 	mov    %rax,-0x260(%rbp)
    5bdd:	48 8d 85 20 fb ff ff 	lea    -0x4e0(%rbp),%rax
    5be4:	48 83 c0 20          	add    $0x20,%rax
    5be8:	48 89 85 a8 fd ff ff 	mov    %rax,-0x258(%rbp)
    5bef:	48 8d 85 20 fb ff ff 	lea    -0x4e0(%rbp),%rax
    5bf6:	48 83 c0 20          	add    $0x20,%rax
    5bfa:	48 89 85 b0 fd ff ff 	mov    %rax,-0x250(%rbp)
    5c01:	48 8d 85 20 fb ff ff 	lea    -0x4e0(%rbp),%rax
    5c08:	48 83 c0 20          	add    $0x20,%rax
    5c0c:	48 89 85 b8 fd ff ff 	mov    %rax,-0x248(%rbp)
    5c13:	48 8d 85 20 fb ff ff 	lea    -0x4e0(%rbp),%rax
    5c1a:	48 89 85 c0 fd ff ff 	mov    %rax,-0x240(%rbp)
    5c21:	48 8d 85 20 fb ff ff 	lea    -0x4e0(%rbp),%rax
    5c28:	48 89 85 c8 fd ff ff 	mov    %rax,-0x238(%rbp)
    5c2f:	48 8d 85 20 fb ff ff 	lea    -0x4e0(%rbp),%rax
    5c36:	48 89 85 d0 fd ff ff 	mov    %rax,-0x230(%rbp)
    5c3d:	48 8d 85 20 fb ff ff 	lea    -0x4e0(%rbp),%rax
    5c44:	48 83 c0 20          	add    $0x20,%rax
    5c48:	48 89 85 d8 fd ff ff 	mov    %rax,-0x228(%rbp)
    5c4f:	48 8d 85 20 fb ff ff 	lea    -0x4e0(%rbp),%rax
    5c56:	48 83 c0 20          	add    $0x20,%rax
    5c5a:	48 89 85 e0 fd ff ff 	mov    %rax,-0x220(%rbp)
    5c61:	48 8d 85 20 fb ff ff 	lea    -0x4e0(%rbp),%rax
    5c68:	48 83 c0 20          	add    $0x20,%rax
    5c6c:	48 89 85 e8 fd ff ff 	mov    %rax,-0x218(%rbp)
    5c73:	48 8d 85 20 fb ff ff 	lea    -0x4e0(%rbp),%rax
    5c7a:	48 89 85 f0 fd ff ff 	mov    %rax,-0x210(%rbp)
    5c81:	48 8d 85 20 fb ff ff 	lea    -0x4e0(%rbp),%rax
    5c88:	48 89 85 f8 fd ff ff 	mov    %rax,-0x208(%rbp)
    5c8f:	48 8d 85 20 fb ff ff 	lea    -0x4e0(%rbp),%rax
    5c96:	48 89 85 00 fe ff ff 	mov    %rax,-0x200(%rbp)
    5c9d:	48 8d 85 20 fb ff ff 	lea    -0x4e0(%rbp),%rax
    5ca4:	48 83 c0 20          	add    $0x20,%rax
    5ca8:	48 89 85 08 fe ff ff 	mov    %rax,-0x1f8(%rbp)
    5caf:	48 8d 85 20 fb ff ff 	lea    -0x4e0(%rbp),%rax
    5cb6:	48 83 c0 20          	add    $0x20,%rax
    5cba:	48 89 85 10 fe ff ff 	mov    %rax,-0x1f0(%rbp)
    5cc1:	48 8d 85 20 fb ff ff 	lea    -0x4e0(%rbp),%rax
    5cc8:	48 83 c0 20          	add    $0x20,%rax
    5ccc:	48 89 85 18 fe ff ff 	mov    %rax,-0x1e8(%rbp)
    5cd3:	48 8d 85 20 fb ff ff 	lea    -0x4e0(%rbp),%rax
    5cda:	48 89 85 20 fe ff ff 	mov    %rax,-0x1e0(%rbp)
    5ce1:	48 8d 85 20 fb ff ff 	lea    -0x4e0(%rbp),%rax
    5ce8:	48 89 85 28 fe ff ff 	mov    %rax,-0x1d8(%rbp)
    5cef:	48 8d 85 20 fb ff ff 	lea    -0x4e0(%rbp),%rax
    5cf6:	48 89 85 30 fe ff ff 	mov    %rax,-0x1d0(%rbp)
    5cfd:	48 8d 85 20 fb ff ff 	lea    -0x4e0(%rbp),%rax
    5d04:	48 83 c0 20          	add    $0x20,%rax
    5d08:	48 89 85 38 fe ff ff 	mov    %rax,-0x1c8(%rbp)
    5d0f:	48 8d 85 20 fb ff ff 	lea    -0x4e0(%rbp),%rax
    5d16:	48 83 c0 20          	add    $0x20,%rax
    5d1a:	48 89 85 40 fe ff ff 	mov    %rax,-0x1c0(%rbp)
    5d21:	48 8d 85 20 fb ff ff 	lea    -0x4e0(%rbp),%rax
    5d28:	48 83 c0 20          	add    $0x20,%rax
    5d2c:	48 89 85 48 fe ff ff 	mov    %rax,-0x1b8(%rbp)
    5d33:	48 8d 85 20 fb ff ff 	lea    -0x4e0(%rbp),%rax
    5d3a:	48 89 85 50 fe ff ff 	mov    %rax,-0x1b0(%rbp)
    5d41:	48 8d 85 20 fb ff ff 	lea    -0x4e0(%rbp),%rax
    5d48:	48 89 85 58 fe ff ff 	mov    %rax,-0x1a8(%rbp)
    5d4f:	48 8d 85 20 fb ff ff 	lea    -0x4e0(%rbp),%rax
    5d56:	48 89 85 60 fe ff ff 	mov    %rax,-0x1a0(%rbp)
    5d5d:	48 8d 85 20 fb ff ff 	lea    -0x4e0(%rbp),%rax
    5d64:	48 83 c0 20          	add    $0x20,%rax
    5d68:	48 89 85 68 fe ff ff 	mov    %rax,-0x198(%rbp)
    5d6f:	48 8d 85 20 fb ff ff 	lea    -0x4e0(%rbp),%rax
    5d76:	48 83 c0 20          	add    $0x20,%rax
    5d7a:	48 89 85 70 fe ff ff 	mov    %rax,-0x190(%rbp)
    5d81:	48 8d 85 20 fb ff ff 	lea    -0x4e0(%rbp),%rax
    5d88:	48 83 c0 20          	add    $0x20,%rax
    5d8c:	48 89 85 78 fe ff ff 	mov    %rax,-0x188(%rbp)
    5d93:	48 8d 85 20 fb ff ff 	lea    -0x4e0(%rbp),%rax
    5d9a:	48 89 85 80 fe ff ff 	mov    %rax,-0x180(%rbp)
    5da1:	48 8d 85 20 fb ff ff 	lea    -0x4e0(%rbp),%rax
    5da8:	48 89 85 88 fe ff ff 	mov    %rax,-0x178(%rbp)
    5daf:	48 8d 85 20 fb ff ff 	lea    -0x4e0(%rbp),%rax
    5db6:	48 89 85 90 fe ff ff 	mov    %rax,-0x170(%rbp)
    5dbd:	48 8d 85 20 fb ff ff 	lea    -0x4e0(%rbp),%rax
    5dc4:	48 83 c0 20          	add    $0x20,%rax
    5dc8:	48 89 85 98 fe ff ff 	mov    %rax,-0x168(%rbp)
    5dcf:	48 8d 85 20 fb ff ff 	lea    -0x4e0(%rbp),%rax
    5dd6:	48 83 c0 20          	add    $0x20,%rax
    5dda:	48 89 85 a0 fe ff ff 	mov    %rax,-0x160(%rbp)
    5de1:	48 8d 85 20 fb ff ff 	lea    -0x4e0(%rbp),%rax
    5de8:	48 83 c0 20          	add    $0x20,%rax
    5dec:	48 89 85 a8 fe ff ff 	mov    %rax,-0x158(%rbp)
    5df3:	48 8d 85 20 fb ff ff 	lea    -0x4e0(%rbp),%rax
    5dfa:	48 89 85 b0 fe ff ff 	mov    %rax,-0x150(%rbp)
    5e01:	48 8d 85 20 fb ff ff 	lea    -0x4e0(%rbp),%rax
    5e08:	48 89 85 b8 fe ff ff 	mov    %rax,-0x148(%rbp)
    5e0f:	48 8d 85 20 fb ff ff 	lea    -0x4e0(%rbp),%rax
    5e16:	48 89 85 c0 fe ff ff 	mov    %rax,-0x140(%rbp)
    5e1d:	48 8d 85 20 fb ff ff 	lea    -0x4e0(%rbp),%rax
    5e24:	48 83 c0 20          	add    $0x20,%rax
    5e28:	48 89 85 c8 fe ff ff 	mov    %rax,-0x138(%rbp)
    5e2f:	48 8d 85 20 fb ff ff 	lea    -0x4e0(%rbp),%rax
    5e36:	48 83 c0 20          	add    $0x20,%rax
    5e3a:	48 89 85 d0 fe ff ff 	mov    %rax,-0x130(%rbp)
    5e41:	48 8d 85 20 fb ff ff 	lea    -0x4e0(%rbp),%rax
    5e48:	48 83 c0 20          	add    $0x20,%rax
    5e4c:	48 89 85 d8 fe ff ff 	mov    %rax,-0x128(%rbp)
    5e53:	48 8d 85 20 fb ff ff 	lea    -0x4e0(%rbp),%rax
    5e5a:	48 89 85 e0 fe ff ff 	mov    %rax,-0x120(%rbp)
    5e61:	48 8d 85 20 fb ff ff 	lea    -0x4e0(%rbp),%rax
    5e68:	48 89 85 e8 fe ff ff 	mov    %rax,-0x118(%rbp)
    5e6f:	48 8d 85 20 fb ff ff 	lea    -0x4e0(%rbp),%rax
    5e76:	48 89 85 f0 fe ff ff 	mov    %rax,-0x110(%rbp)
    5e7d:	48 8d 85 20 fb ff ff 	lea    -0x4e0(%rbp),%rax
    5e84:	48 83 c0 20          	add    $0x20,%rax
    5e88:	48 89 85 f8 fe ff ff 	mov    %rax,-0x108(%rbp)
    5e8f:	48 8d 85 20 fb ff ff 	lea    -0x4e0(%rbp),%rax
    5e96:	48 83 c0 20          	add    $0x20,%rax
    5e9a:	48 89 85 00 ff ff ff 	mov    %rax,-0x100(%rbp)
    5ea1:	48 8d 85 20 fb ff ff 	lea    -0x4e0(%rbp),%rax
    5ea8:	48 83 c0 20          	add    $0x20,%rax
    5eac:	48 89 85 08 ff ff ff 	mov    %rax,-0xf8(%rbp)
    5eb3:	48 8d 85 20 fb ff ff 	lea    -0x4e0(%rbp),%rax
    5eba:	48 89 85 10 ff ff ff 	mov    %rax,-0xf0(%rbp)
    5ec1:	48 8d 85 20 fb ff ff 	lea    -0x4e0(%rbp),%rax
    5ec8:	48 89 85 18 ff ff ff 	mov    %rax,-0xe8(%rbp)
    5ecf:	48 8d 85 20 fb ff ff 	lea    -0x4e0(%rbp),%rax
    5ed6:	48 89 85 20 ff ff ff 	mov    %rax,-0xe0(%rbp)
    5edd:	48 8d 85 20 fb ff ff 	lea    -0x4e0(%rbp),%rax
    5ee4:	48 83 c0 20          	add    $0x20,%rax
    5ee8:	48 89 85 28 ff ff ff 	mov    %rax,-0xd8(%rbp)
    5eef:	48 8d 85 20 fb ff ff 	lea    -0x4e0(%rbp),%rax
    5ef6:	48 83 c0 20          	add    $0x20,%rax
    5efa:	48 89 85 30 ff ff ff 	mov    %rax,-0xd0(%rbp)
    5f01:	48 8d 85 20 fb ff ff 	lea    -0x4e0(%rbp),%rax
    5f08:	48 83 c0 20          	add    $0x20,%rax
    5f0c:	48 89 85 38 ff ff ff 	mov    %rax,-0xc8(%rbp)
    5f13:	48 8d 85 20 fb ff ff 	lea    -0x4e0(%rbp),%rax
    5f1a:	48 89 85 40 ff ff ff 	mov    %rax,-0xc0(%rbp)
    5f21:	48 8d 85 20 fb ff ff 	lea    -0x4e0(%rbp),%rax
    5f28:	48 89 85 48 ff ff ff 	mov    %rax,-0xb8(%rbp)
    5f2f:	48 8d 85 20 fb ff ff 	lea    -0x4e0(%rbp),%rax
    5f36:	48 89 85 50 ff ff ff 	mov    %rax,-0xb0(%rbp)
    5f3d:	48 8d 85 20 fb ff ff 	lea    -0x4e0(%rbp),%rax
    5f44:	48 83 c0 20          	add    $0x20,%rax
    5f48:	48 89 85 58 ff ff ff 	mov    %rax,-0xa8(%rbp)
    5f4f:	48 8d 85 20 fb ff ff 	lea    -0x4e0(%rbp),%rax
    5f56:	48 83 c0 20          	add    $0x20,%rax
    5f5a:	48 89 85 60 ff ff ff 	mov    %rax,-0xa0(%rbp)
    5f61:	48 8d 85 20 fb ff ff 	lea    -0x4e0(%rbp),%rax
    5f68:	48 83 c0 20          	add    $0x20,%rax
    5f6c:	48 89 85 68 ff ff ff 	mov    %rax,-0x98(%rbp)
    5f73:	48 8d 85 20 fb ff ff 	lea    -0x4e0(%rbp),%rax
    5f7a:	48 89 85 70 ff ff ff 	mov    %rax,-0x90(%rbp)
    5f81:	48 8d 85 20 fb ff ff 	lea    -0x4e0(%rbp),%rax
    5f88:	48 89 85 78 ff ff ff 	mov    %rax,-0x88(%rbp)
    5f8f:	48 8d 85 20 fb ff ff 	lea    -0x4e0(%rbp),%rax
    5f96:	48 89 45 80          	mov    %rax,-0x80(%rbp)
    5f9a:	48 8d 85 20 fb ff ff 	lea    -0x4e0(%rbp),%rax
    5fa1:	48 83 c0 20          	add    $0x20,%rax
    5fa5:	48 89 45 88          	mov    %rax,-0x78(%rbp)
    5fa9:	48 8d 85 20 fb ff ff 	lea    -0x4e0(%rbp),%rax
    5fb0:	48 83 c0 20          	add    $0x20,%rax
    5fb4:	48 89 45 90          	mov    %rax,-0x70(%rbp)
    5fb8:	48 8d 85 20 fb ff ff 	lea    -0x4e0(%rbp),%rax
    5fbf:	48 83 c0 20          	add    $0x20,%rax
    5fc3:	48 89 45 98          	mov    %rax,-0x68(%rbp)
    5fc7:	48 8d 85 20 fb ff ff 	lea    -0x4e0(%rbp),%rax
    5fce:	48 89 45 a0          	mov    %rax,-0x60(%rbp)
    5fd2:	48 8d 85 20 fb ff ff 	lea    -0x4e0(%rbp),%rax
    5fd9:	48 89 45 a8          	mov    %rax,-0x58(%rbp)
    5fdd:	48 8d 85 20 fb ff ff 	lea    -0x4e0(%rbp),%rax
    5fe4:	48 89 45 b0          	mov    %rax,-0x50(%rbp)
    5fe8:	48 8d 85 20 fb ff ff 	lea    -0x4e0(%rbp),%rax
    5fef:	48 83 c0 20          	add    $0x20,%rax
    5ff3:	48 89 45 b8          	mov    %rax,-0x48(%rbp)
    5ff7:	48 8d 85 20 fb ff ff 	lea    -0x4e0(%rbp),%rax
    5ffe:	48 83 c0 20          	add    $0x20,%rax
    6002:	48 89 45 c0          	mov    %rax,-0x40(%rbp)
    6006:	48 8d 85 20 fb ff ff 	lea    -0x4e0(%rbp),%rax
    600d:	48 83 c0 20          	add    $0x20,%rax
    6011:	48 89 45 c8          	mov    %rax,-0x38(%rbp)
    6015:	c7 85 d0 f9 ff ff 00 	movl   $0x0,-0x630(%rbp)
    601c:	00 00 00 
    601f:	48 8d 05 22 a1 00 00 	lea    0xa122(%rip),%rax        # 10148 <g_705+0x8>
    6026:	48 89 85 50 fa ff ff 	mov    %rax,-0x5b0(%rbp)
    602d:	48 b8 85 55 a0 61 d8 	movabs $0x9d75d3d861a05585,%rax
    6034:	d3 75 9d 
    6037:	48 89 85 58 fa ff ff 	mov    %rax,-0x5a8(%rbp)
    603e:	c6 85 9b f9 ff ff 00 	movb   $0x0,-0x665(%rbp)
    6045:	48 8d 05 44 a6 00 00 	lea    0xa644(%rip),%rax        # 10690 <g_690>
    604c:	48 89 85 60 fa ff ff 	mov    %rax,-0x5a0(%rbp)
    6053:	c7 85 a8 f9 ff ff 00 	movl   $0x0,-0x658(%rbp)
    605a:	00 00 00 
    605d:	eb 21                	jmp    6080 <func_24+0xe66>
    605f:	8b 85 a8 f9 ff ff    	mov    -0x658(%rbp),%eax
    6065:	48 98                	cltq   
    6067:	48 bb 1d 94 3b bf f5 	movabs $0x61a8a0f5bf3b941d,%rbx
    606e:	a0 a8 61 
    6071:	48 89 9c c5 a0 fa ff 	mov    %rbx,-0x560(%rbp,%rax,8)
    6078:	ff 
    6079:	83 85 a8 f9 ff ff 01 	addl   $0x1,-0x658(%rbp)
    6080:	83 bd a8 f9 ff ff 00 	cmpl   $0x0,-0x658(%rbp)
    6087:	7e d6                	jle    605f <func_24+0xe45>
    6089:	0f b7 05 de 9f 00 00 	movzwl 0x9fde(%rip),%eax        # 1006e <g_160>
    6090:	0f b7 c0             	movzwl %ax,%eax
    6093:	be 03 00 00 00       	mov    $0x3,%esi
    6098:	48 89 c7             	mov    %rax,%rdi
    609b:	e8 8e df ff ff       	callq  402e <safe_add_func_uint64_t_u_u>
    60a0:	66 89 05 c7 9f 00 00 	mov    %ax,0x9fc7(%rip)        # 1006e <g_160>
    60a7:	0f b7 05 c0 9f 00 00 	movzwl 0x9fc0(%rip),%eax        # 1006e <g_160>
    60ae:	66 83 f8 16          	cmp    $0x16,%ax
    60b2:	0f 85 7d f5 ff ff    	jne    5635 <func_24+0x41b>
    60b8:	48 8b 05 69 a4 00 00 	mov    0xa469(%rip),%rax        # 10528 <g_91>
    60bf:	48 8b 00             	mov    (%rax),%rax
    60c2:	48 8b 5d d8          	mov    -0x28(%rbp),%rbx
    60c6:	64 48 33 1c 25 28 00 	xor    %fs:0x28,%rbx
    60cd:	00 00 
    60cf:	74 05                	je     60d6 <func_24+0xebc>
    60d1:	e8 9a cf ff ff       	callq  3070 <__stack_chk_fail@plt>
    60d6:	48 81 c4 68 06 00 00 	add    $0x668,%rsp
    60dd:	5b                   	pop    %rbx
    60de:	41 5c                	pop    %r12
    60e0:	41 5d                	pop    %r13
    60e2:	5d                   	pop    %rbp
    60e3:	c3                   	retq   

00000000000060e4 <func_28>:
    60e4:	f3 0f 1e fa          	endbr64 
    60e8:	55                   	push   %rbp
    60e9:	48 89 e5             	mov    %rsp,%rbp
    60ec:	48 83 ec 40          	sub    $0x40,%rsp
    60f0:	48 89 7d d8          	mov    %rdi,-0x28(%rbp)
    60f4:	89 75 d4             	mov    %esi,-0x2c(%rbp)
    60f7:	89 d0                	mov    %edx,%eax
    60f9:	48 89 4d c8          	mov    %rcx,-0x38(%rbp)
    60fd:	44 89 45 c4          	mov    %r8d,-0x3c(%rbp)
    6101:	88 45 d0             	mov    %al,-0x30(%rbp)
    6104:	64 48 8b 04 25 28 00 	mov    %fs:0x28,%rax
    610b:	00 00 
    610d:	48 89 45 f8          	mov    %rax,-0x8(%rbp)
    6111:	31 c0                	xor    %eax,%eax
    6113:	66 c7 45 ec 66 59    	movw   $0x5966,-0x14(%rbp)
    6119:	66 c7 45 ee 66 59    	movw   $0x5966,-0x12(%rbp)
    611f:	66 c7 45 f0 66 59    	movw   $0x5966,-0x10(%rbp)
    6125:	66 c7 45 f2 66 59    	movw   $0x5966,-0xe(%rbp)
    612b:	66 c7 45 f4 66 59    	movw   $0x5966,-0xc(%rbp)
    6131:	66 c7 45 f6 66 59    	movw   $0x5966,-0xa(%rbp)
    6137:	0f b7 45 f0          	movzwl -0x10(%rbp),%eax
    613b:	83 c0 01             	add    $0x1,%eax
    613e:	66 89 45 f0          	mov    %ax,-0x10(%rbp)
    6142:	8b 45 c4             	mov    -0x3c(%rbp),%eax
    6145:	48 8b 55 f8          	mov    -0x8(%rbp),%rdx
    6149:	64 48 33 14 25 28 00 	xor    %fs:0x28,%rdx
    6150:	00 00 
    6152:	74 05                	je     6159 <func_28+0x75>
    6154:	e8 17 cf ff ff       	callq  3070 <__stack_chk_fail@plt>
    6159:	c9                   	leaveq 
    615a:	c3                   	retq   

000000000000615b <func_34>:
    615b:	f3 0f 1e fa          	endbr64 
    615f:	55                   	push   %rbp
    6160:	48 89 e5             	mov    %rsp,%rbp
    6163:	41 57                	push   %r15
    6165:	41 56                	push   %r14
    6167:	41 55                	push   %r13
    6169:	41 54                	push   %r12
    616b:	53                   	push   %rbx
    616c:	48 81 ec d8 01 00 00 	sub    $0x1d8,%rsp
    6173:	48 89 bd 08 fe ff ff 	mov    %rdi,-0x1f8(%rbp)
    617a:	89 b5 04 fe ff ff    	mov    %esi,-0x1fc(%rbp)
    6180:	64 48 8b 04 25 28 00 	mov    %fs:0x28,%rax
    6187:	00 00 
    6189:	48 89 45 c8          	mov    %rax,-0x38(%rbp)
    618d:	31 c0                	xor    %eax,%eax
    618f:	48 c7 85 38 fe ff ff 	movq   $0x0,-0x1c8(%rbp)
    6196:	00 00 00 00 
    619a:	48 8d 05 a7 af 00 00 	lea    0xafa7(%rip),%rax        # 11148 <g_41>
    61a1:	48 89 85 40 fe ff ff 	mov    %rax,-0x1c0(%rbp)
    61a8:	48 8d 05 91 9e 00 00 	lea    0x9e91(%rip),%rax        # 10040 <g_6>
    61af:	48 89 85 48 fe ff ff 	mov    %rax,-0x1b8(%rbp)
    61b6:	c7 85 18 fe ff ff 04 	movl   $0x4,-0x1e8(%rbp)
    61bd:	00 00 00 
    61c0:	c7 85 20 fe ff ff 2f 	movl   $0x92fa052f,-0x1e0(%rbp)
    61c7:	05 fa 92 
    61ca:	48 8d 85 a0 fe ff ff 	lea    -0x160(%rbp),%rax
    61d1:	48 8d 15 28 a2 00 00 	lea    0xa228(%rip),%rdx        # 10400 <g_1346+0x200>
    61d8:	b9 24 00 00 00       	mov    $0x24,%ecx
    61dd:	48 89 c7             	mov    %rax,%rdi
    61e0:	48 89 d6             	mov    %rdx,%rsi
    61e3:	f3 48 a5             	rep movsq %ds:(%rsi),%es:(%rdi)
    61e6:	8b 95 04 fe ff ff    	mov    -0x1fc(%rbp),%edx
    61ec:	48 8b 85 40 fe ff ff 	mov    -0x1c0(%rbp),%rax
    61f3:	89 10                	mov    %edx,(%rax)
    61f5:	48 8b 85 40 fe ff ff 	mov    -0x1c0(%rbp),%rax
    61fc:	8b 00                	mov    (%rax),%eax
    61fe:	85 c0                	test   %eax,%eax
    6200:	0f 84 7a 01 00 00    	je     6380 <func_34+0x225>
    6206:	48 8d 05 37 9e 00 00 	lea    0x9e37(%rip),%rax        # 10044 <g_19>
    620d:	48 89 85 30 fe ff ff 	mov    %rax,-0x1d0(%rbp)
    6214:	48 8d 85 30 fe ff ff 	lea    -0x1d0(%rbp),%rax
    621b:	48 89 85 58 fe ff ff 	mov    %rax,-0x1a8(%rbp)
    6222:	c7 85 24 fe ff ff 04 	movl   $0x4,-0x1dc(%rbp)
    6229:	00 00 00 
    622c:	c7 85 1c fe ff ff 00 	movl   $0x0,-0x1e4(%rbp)
    6233:	00 00 00 
    6236:	eb 1e                	jmp    6256 <func_34+0xfb>
    6238:	8b 85 1c fe ff ff    	mov    -0x1e4(%rbp),%eax
    623e:	48 98                	cltq   
    6240:	48 8d 15 e9 9e 00 00 	lea    0x9ee9(%rip),%rdx        # 10130 <g_698>
    6247:	48 89 94 c5 60 fe ff 	mov    %rdx,-0x1a0(%rbp,%rax,8)
    624e:	ff 
    624f:	83 85 1c fe ff ff 01 	addl   $0x1,-0x1e4(%rbp)
    6256:	83 bd 1c fe ff ff 01 	cmpl   $0x1,-0x1e4(%rbp)
    625d:	7e d9                	jle    6238 <func_34+0xdd>
    625f:	8b 85 04 fe ff ff    	mov    -0x1fc(%rbp),%eax
    6265:	4c 63 e0             	movslq %eax,%r12
    6268:	8b 85 04 fe ff ff    	mov    -0x1fc(%rbp),%eax
    626e:	0f be d8             	movsbl %al,%ebx
    6271:	44 8b bd 04 fe ff ff 	mov    -0x1fc(%rbp),%r15d
    6278:	8b 85 04 fe ff ff    	mov    -0x1fc(%rbp),%eax
    627e:	44 0f b7 e8          	movzwl %ax,%r13d
    6282:	8b 85 24 fe ff ff    	mov    -0x1dc(%rbp),%eax
    6288:	44 0f b7 f0          	movzwl %ax,%r14d
    628c:	8b 05 b6 ae 00 00    	mov    0xaeb6(%rip),%eax        # 11148 <g_41>
    6292:	48 8b 95 58 fe ff ff 	mov    -0x1a8(%rbp),%rdx
    6299:	48 8d 0d a4 9d 00 00 	lea    0x9da4(%rip),%rcx        # 10044 <g_19>
    62a0:	48 89 0a             	mov    %rcx,(%rdx)
    62a3:	89 c6                	mov    %eax,%esi
    62a5:	bf 01 00 00 00       	mov    $0x1,%edi
    62aa:	e8 e3 d1 ff ff       	callq  3492 <safe_lshift_func_int16_t_s_s>
    62af:	0f bf d0             	movswl %ax,%edx
    62b2:	8b 85 04 fe ff ff    	mov    -0x1fc(%rbp),%eax
    62b8:	39 c2                	cmp    %eax,%edx
    62ba:	0f 95 c0             	setne  %al
    62bd:	0f b6 c0             	movzbl %al,%eax
    62c0:	44 89 f6             	mov    %r14d,%esi
    62c3:	89 c7                	mov    %eax,%edi
    62c5:	e8 35 da ff ff       	callq  3cff <safe_add_func_uint16_t_u_u>
    62ca:	0f b7 c0             	movzwl %ax,%eax
    62cd:	44 89 ee             	mov    %r13d,%esi
    62d0:	89 c7                	mov    %eax,%edi
    62d2:	e8 28 da ff ff       	callq  3cff <safe_add_func_uint16_t_u_u>
    62d7:	0f bf d0             	movswl %ax,%edx
    62da:	48 8b 85 08 fe ff ff 	mov    -0x1f8(%rbp),%rax
    62e1:	98                   	cwtl   
    62e2:	89 d6                	mov    %edx,%esi
    62e4:	89 c7                	mov    %eax,%edi
    62e6:	e8 6a d1 ff ff       	callq  3455 <safe_div_func_int16_t_s_s>
    62eb:	98                   	cwtl   
    62ec:	41 39 c7             	cmp    %eax,%r15d
    62ef:	0f 9f c0             	setg   %al
    62f2:	0f b6 c0             	movzbl %al,%eax
    62f5:	89 05 51 9d 00 00    	mov    %eax,0x9d51(%rip)        # 1004c <g_68>
    62fb:	8b 05 4b 9d 00 00    	mov    0x9d4b(%rip),%eax        # 1004c <g_68>
    6301:	66 89 05 48 9d 00 00 	mov    %ax,0x9d48(%rip)        # 10050 <g_69>
    6308:	be 07 00 00 00       	mov    $0x7,%esi
    630d:	bf 01 00 00 00       	mov    $0x1,%edi
    6312:	e8 ee d8 ff ff       	callq  3c05 <safe_lshift_func_uint8_t_u_s>
    6317:	3c 01                	cmp    $0x1,%al
    6319:	77 0a                	ja     6325 <func_34+0x1ca>
    631b:	8b 85 04 fe ff ff    	mov    -0x1fc(%rbp),%eax
    6321:	85 c0                	test   %eax,%eax
    6323:	74 07                	je     632c <func_34+0x1d1>
    6325:	b8 01 00 00 00       	mov    $0x1,%eax
    632a:	eb 05                	jmp    6331 <func_34+0x1d6>
    632c:	b8 00 00 00 00       	mov    $0x0,%eax
    6331:	0f b7 c0             	movzwl %ax,%eax
    6334:	be f6 ff 00 00       	mov    $0xfff6,%esi
    6339:	89 c7                	mov    %eax,%edi
    633b:	e8 df d9 ff ff       	callq  3d1f <safe_sub_func_uint16_t_u_u>
    6340:	0f b7 d0             	movzwl %ax,%edx
    6343:	8b 85 04 fe ff ff    	mov    -0x1fc(%rbp),%eax
    6349:	39 c2                	cmp    %eax,%edx
    634b:	0f 9c c0             	setl   %al
    634e:	0f b6 c0             	movzbl %al,%eax
    6351:	8b b5 18 fe ff ff    	mov    -0x1e8(%rbp),%esi
    6357:	4c 89 e1             	mov    %r12,%rcx
    635a:	89 da                	mov    %ebx,%edx
    635c:	89 c7                	mov    %eax,%edi
    635e:	e8 ff 4a 00 00       	callq  ae62 <func_46>
    6363:	bf 01 00 00 00       	mov    $0x1,%edi
    6368:	e8 e3 02 00 00       	callq  6650 <func_44>
    636d:	48 89 c7             	mov    %rax,%rdi
    6370:	e8 e4 00 00 00       	callq  6459 <func_42>
    6375:	09 85 20 fe ff ff    	or     %eax,-0x1e0(%rbp)
    637b:	e9 ac 00 00 00       	jmpq   642c <func_34+0x2d1>
    6380:	48 8d 05 c5 ad 00 00 	lea    0xadc5(%rip),%rax        # 1114c <g_108>
    6387:	48 89 85 60 fe ff ff 	mov    %rax,-0x1a0(%rbp)
    638e:	48 8d 05 b7 ad 00 00 	lea    0xadb7(%rip),%rax        # 1114c <g_108>
    6395:	48 89 85 68 fe ff ff 	mov    %rax,-0x198(%rbp)
    639c:	48 8d 05 a9 ad 00 00 	lea    0xada9(%rip),%rax        # 1114c <g_108>
    63a3:	48 89 85 70 fe ff ff 	mov    %rax,-0x190(%rbp)
    63aa:	48 8d 05 9b ad 00 00 	lea    0xad9b(%rip),%rax        # 1114c <g_108>
    63b1:	48 89 85 78 fe ff ff 	mov    %rax,-0x188(%rbp)
    63b8:	48 8d 05 8d ad 00 00 	lea    0xad8d(%rip),%rax        # 1114c <g_108>
    63bf:	48 89 85 80 fe ff ff 	mov    %rax,-0x180(%rbp)
    63c6:	48 8d 05 7f ad 00 00 	lea    0xad7f(%rip),%rax        # 1114c <g_108>
    63cd:	48 89 85 88 fe ff ff 	mov    %rax,-0x178(%rbp)
    63d4:	48 8d 05 71 ad 00 00 	lea    0xad71(%rip),%rax        # 1114c <g_108>
    63db:	48 89 85 90 fe ff ff 	mov    %rax,-0x170(%rbp)
    63e2:	48 8d 05 63 ad 00 00 	lea    0xad63(%rip),%rax        # 1114c <g_108>
    63e9:	48 89 85 98 fe ff ff 	mov    %rax,-0x168(%rbp)
    63f0:	48 8d 85 60 fe ff ff 	lea    -0x1a0(%rbp),%rax
    63f7:	48 83 c0 30          	add    $0x30,%rax
    63fb:	48 89 85 28 fe ff ff 	mov    %rax,-0x1d8(%rbp)
    6402:	48 8d 85 28 fe ff ff 	lea    -0x1d8(%rbp),%rax
    6409:	48 89 85 30 fe ff ff 	mov    %rax,-0x1d0(%rbp)
    6410:	48 8d 85 30 fe ff ff 	lea    -0x1d0(%rbp),%rax
    6417:	48 89 85 50 fe ff ff 	mov    %rax,-0x1b0(%rbp)
    641e:	48 8b 85 50 fe ff ff 	mov    -0x1b0(%rbp),%rax
    6425:	48 c7 00 00 00 00 00 	movq   $0x0,(%rax)
    642c:	48 8b 85 70 ff ff ff 	mov    -0x90(%rbp),%rax
    6433:	48 8b 5d c8          	mov    -0x38(%rbp),%rbx
    6437:	64 48 33 1c 25 28 00 	xor    %fs:0x28,%rbx
    643e:	00 00 
    6440:	74 05                	je     6447 <func_34+0x2ec>
    6442:	e8 29 cc ff ff       	callq  3070 <__stack_chk_fail@plt>
    6447:	48 81 c4 d8 01 00 00 	add    $0x1d8,%rsp
    644e:	5b                   	pop    %rbx
    644f:	41 5c                	pop    %r12
    6451:	41 5d                	pop    %r13
    6453:	41 5e                	pop    %r14
    6455:	41 5f                	pop    %r15
    6457:	5d                   	pop    %rbp
    6458:	c3                   	retq   

0000000000006459 <func_42>:
    6459:	f3 0f 1e fa          	endbr64 
    645d:	55                   	push   %rbp
    645e:	48 89 e5             	mov    %rsp,%rbp
    6461:	48 81 ec 80 02 00 00 	sub    $0x280,%rsp
    6468:	48 89 bd 88 fd ff ff 	mov    %rdi,-0x278(%rbp)
    646f:	64 48 8b 04 25 28 00 	mov    %fs:0x28,%rax
    6476:	00 00 
    6478:	48 89 45 f8          	mov    %rax,-0x8(%rbp)
    647c:	31 c0                	xor    %eax,%eax
    647e:	48 c7 85 c0 fd ff ff 	movq   $0xfffffffffffffff6,-0x240(%rbp)
    6485:	f6 ff ff ff 
    6489:	48 b9 e2 fa eb f6 29 	movabs $0xd03b4629f6ebfae2,%rcx
    6490:	46 3b d0 
    6493:	48 89 8d c8 fd ff ff 	mov    %rcx,-0x238(%rbp)
    649a:	48 c7 85 d0 fd ff ff 	movq   $0xfffffffffffffffe,-0x230(%rbp)
    64a1:	fe ff ff ff 
    64a5:	48 c7 85 d8 fd ff ff 	movq   $0xfffffffffffffff6,-0x228(%rbp)
    64ac:	f6 ff ff ff 
    64b0:	48 b8 2d 86 1d ea d0 	movabs $0xe1b2bfd0ea1d862d,%rax
    64b7:	bf b2 e1 
    64ba:	48 89 85 e0 fd ff ff 	mov    %rax,-0x220(%rbp)
    64c1:	48 89 85 e8 fd ff ff 	mov    %rax,-0x218(%rbp)
    64c8:	48 89 85 f0 fd ff ff 	mov    %rax,-0x210(%rbp)
    64cf:	48 c7 85 f8 fd ff ff 	movq   $0xfffffffffffffff6,-0x208(%rbp)
    64d6:	f6 ff ff ff 
    64da:	48 c7 85 00 fe ff ff 	movq   $0xfffffffffffffffe,-0x200(%rbp)
    64e1:	fe ff ff ff 
    64e5:	48 89 8d 08 fe ff ff 	mov    %rcx,-0x1f8(%rbp)
    64ec:	48 c7 85 10 fe ff ff 	movq   $0xfffffffffffffff6,-0x1f0(%rbp)
    64f3:	f6 ff ff ff 
    64f7:	48 89 8d 18 fe ff ff 	mov    %rcx,-0x1e8(%rbp)
    64fe:	48 c7 85 20 fe ff ff 	movq   $0xfffffffffffffffe,-0x1e0(%rbp)
    6505:	fe ff ff ff 
    6509:	48 c7 85 28 fe ff ff 	movq   $0xfffffffffffffff6,-0x1d8(%rbp)
    6510:	f6 ff ff ff 
    6514:	48 89 85 30 fe ff ff 	mov    %rax,-0x1d0(%rbp)
    651b:	48 89 85 38 fe ff ff 	mov    %rax,-0x1c8(%rbp)
    6522:	48 89 85 40 fe ff ff 	mov    %rax,-0x1c0(%rbp)
    6529:	48 c7 85 48 fe ff ff 	movq   $0xfffffffffffffff6,-0x1b8(%rbp)
    6530:	f6 ff ff ff 
    6534:	48 c7 85 50 fe ff ff 	movq   $0xfffffffffffffffe,-0x1b0(%rbp)
    653b:	fe ff ff ff 
    653f:	48 89 8d 58 fe ff ff 	mov    %rcx,-0x1a8(%rbp)
    6546:	c7 85 90 fd ff ff 01 	movl   $0x1,-0x270(%rbp)
    654d:	00 00 00 
    6550:	48 c7 85 a0 fd ff ff 	movq   $0x0,-0x260(%rbp)
    6557:	00 00 00 00 
    655b:	48 8d 05 2e a1 00 00 	lea    0xa12e(%rip),%rax        # 10690 <g_690>
    6562:	48 89 85 a8 fd ff ff 	mov    %rax,-0x258(%rbp)
    6569:	48 8d 05 18 a1 00 00 	lea    0xa118(%rip),%rax        # 10688 <g_691>
    6570:	48 89 85 98 fd ff ff 	mov    %rax,-0x268(%rbp)
    6577:	48 8d 85 98 fd ff ff 	lea    -0x268(%rbp),%rax
    657e:	48 89 85 b0 fd ff ff 	mov    %rax,-0x250(%rbp)
    6585:	c7 85 94 fd ff ff 04 	movl   $0x4,-0x26c(%rbp)
    658c:	00 00 00 
    658f:	48 8b 85 88 fd ff ff 	mov    -0x278(%rbp),%rax
    6596:	48 89 85 c8 fd ff ff 	mov    %rax,-0x238(%rbp)
    659d:	48 8b 85 c8 fd ff ff 	mov    -0x238(%rbp),%rax
    65a4:	89 85 90 fd ff ff    	mov    %eax,-0x270(%rbp)
    65aa:	48 c7 05 c3 9a 00 00 	movq   $0x0,0x9ac3(%rip)        # 10078 <g_189>
    65b1:	00 00 00 00 
    65b5:	90                   	nop
    65b6:	48 8b 05 bb 9a 00 00 	mov    0x9abb(%rip),%rax        # 10078 <g_189>
    65bd:	48 83 f8 08          	cmp    $0x8,%rax
    65c1:	74 4c                	je     660f <func_42+0x1b6>
    65c3:	48 8d 85 60 fe ff ff 	lea    -0x1a0(%rbp),%rax
    65ca:	48 8d 15 8f 6a 00 00 	lea    0x6a8f(%rip),%rdx        # d060 <g_327+0x8>
    65d1:	b9 32 00 00 00       	mov    $0x32,%ecx
    65d6:	48 89 c7             	mov    %rax,%rdi
    65d9:	48 89 d6             	mov    %rdx,%rsi
    65dc:	f3 48 a5             	rep movsq %ds:(%rsi),%es:(%rdi)
    65df:	48 8d 05 62 ab 00 00 	lea    0xab62(%rip),%rax        # 11148 <g_41>
    65e6:	48 89 85 b8 fd ff ff 	mov    %rax,-0x248(%rbp)
    65ed:	0f b7 45 8a          	movzwl -0x76(%rbp),%eax
    65f1:	83 e8 01             	sub    $0x1,%eax
    65f4:	66 89 45 8a          	mov    %ax,-0x76(%rbp)
    65f8:	48 8b 85 b8 fd ff ff 	mov    -0x248(%rbp),%rax
    65ff:	48 89 85 a0 fd ff ff 	mov    %rax,-0x260(%rbp)
    6606:	48 8b 85 88 fd ff ff 	mov    -0x278(%rbp),%rax
    660d:	eb 2b                	jmp    663a <func_42+0x1e1>
    660f:	48 8b 15 7a a0 00 00 	mov    0xa07a(%rip),%rdx        # 10690 <g_690>
    6616:	48 8b 85 a8 fd ff ff 	mov    -0x258(%rbp),%rax
    661d:	48 89 10             	mov    %rdx,(%rax)
    6620:	48 8b 85 a8 fd ff ff 	mov    -0x258(%rbp),%rax
    6627:	48 8b 10             	mov    (%rax),%rdx
    662a:	48 8b 85 b0 fd ff ff 	mov    -0x250(%rbp),%rax
    6631:	48 89 10             	mov    %rdx,(%rax)
    6634:	8b 85 94 fd ff ff    	mov    -0x26c(%rbp),%eax
    663a:	48 8b 75 f8          	mov    -0x8(%rbp),%rsi
    663e:	64 48 33 34 25 28 00 	xor    %fs:0x28,%rsi
    6645:	00 00 
    6647:	74 05                	je     664e <func_42+0x1f5>
    6649:	e8 22 ca ff ff       	callq  3070 <__stack_chk_fail@plt>
    664e:	c9                   	leaveq 
    664f:	c3                   	retq   

0000000000006650 <func_44>:
    6650:	f3 0f 1e fa          	endbr64 
    6654:	55                   	push   %rbp
    6655:	48 89 e5             	mov    %rsp,%rbp
    6658:	41 57                	push   %r15
    665a:	41 56                	push   %r14
    665c:	41 55                	push   %r13
    665e:	41 54                	push   %r12
    6660:	53                   	push   %rbx
    6661:	48 81 ec 08 0f 00 00 	sub    $0xf08,%rsp
    6668:	89 f8                	mov    %edi,%eax
    666a:	88 85 dc f0 ff ff    	mov    %al,-0xf24(%rbp)
    6670:	64 48 8b 04 25 28 00 	mov    %fs:0x28,%rax
    6677:	00 00 
    6679:	48 89 45 c8          	mov    %rax,-0x38(%rbp)
    667d:	31 c0                	xor    %eax,%eax
    667f:	c7 85 34 f1 ff ff f6 	movl   $0xfffffff6,-0xecc(%rbp)
    6686:	ff ff ff 
    6689:	48 c7 85 b0 f3 ff ff 	movq   $0x0,-0xc50(%rbp)
    6690:	00 00 00 00 
    6694:	48 c7 85 b8 f3 ff ff 	movq   $0x0,-0xc48(%rbp)
    669b:	00 00 00 00 
    669f:	48 c7 85 c0 f3 ff ff 	movq   $0x0,-0xc40(%rbp)
    66a6:	00 00 00 00 
    66aa:	48 c7 85 c8 f3 ff ff 	movq   $0x0,-0xc38(%rbp)
    66b1:	00 00 00 00 
    66b5:	48 c7 85 d0 f3 ff ff 	movq   $0x0,-0xc30(%rbp)
    66bc:	00 00 00 00 
    66c0:	c7 85 e8 f0 ff ff 0f 	movl   $0xe365370f,-0xf18(%rbp)
    66c7:	37 65 e3 
    66ca:	c7 85 ec f0 ff ff 35 	movl   $0xe0f48a35,-0xf14(%rbp)
    66d1:	8a f4 e0 
    66d4:	48 8d 05 9d 99 00 00 	lea    0x999d(%rip),%rax        # 10078 <g_189>
    66db:	48 89 85 68 f1 ff ff 	mov    %rax,-0xe98(%rbp)
    66e2:	48 8d 05 5f aa 00 00 	lea    0xaa5f(%rip),%rax        # 11148 <g_41>
    66e9:	48 89 85 70 f1 ff ff 	mov    %rax,-0xe90(%rbp)
    66f0:	48 c7 85 10 f4 ff ff 	movq   $0x0,-0xbf0(%rbp)
    66f7:	00 00 00 00 
    66fb:	48 8d 05 4a aa 00 00 	lea    0xaa4a(%rip),%rax        # 1114c <g_108>
    6702:	48 89 85 18 f4 ff ff 	mov    %rax,-0xbe8(%rbp)
    6709:	48 8d 05 3c aa 00 00 	lea    0xaa3c(%rip),%rax        # 1114c <g_108>
    6710:	48 89 85 20 f4 ff ff 	mov    %rax,-0xbe0(%rbp)
    6717:	48 c7 85 28 f4 ff ff 	movq   $0x0,-0xbd8(%rbp)
    671e:	00 00 00 00 
    6722:	48 8d 05 23 aa 00 00 	lea    0xaa23(%rip),%rax        # 1114c <g_108>
    6729:	48 89 85 30 f4 ff ff 	mov    %rax,-0xbd0(%rbp)
    6730:	48 8d 05 15 aa 00 00 	lea    0xaa15(%rip),%rax        # 1114c <g_108>
    6737:	48 89 85 38 f4 ff ff 	mov    %rax,-0xbc8(%rbp)
    673e:	48 c7 85 40 f4 ff ff 	movq   $0x0,-0xbc0(%rbp)
    6745:	00 00 00 00 
    6749:	48 8d 05 fc a9 00 00 	lea    0xa9fc(%rip),%rax        # 1114c <g_108>
    6750:	48 89 85 48 f4 ff ff 	mov    %rax,-0xbb8(%rbp)
    6757:	c7 85 f0 f0 ff ff ff 	movl   $0xffffffff,-0xf10(%rbp)
    675e:	ff ff ff 
    6761:	c7 85 f4 f0 ff ff ff 	movl   $0xffffffff,-0xf0c(%rbp)
    6768:	ff ff ff 
    676b:	c7 85 f8 f0 ff ff 05 	movl   $0x5,-0xf08(%rbp)
    6772:	00 00 00 
    6775:	c7 85 50 f4 ff ff fc 	movl   $0xfffffffc,-0xbb0(%rbp)
    677c:	ff ff ff 
    677f:	c7 85 54 f4 ff ff 8b 	movl   $0xbfb4bc8b,-0xbac(%rbp)
    6786:	bc b4 bf 
    6789:	c7 85 58 f4 ff ff fc 	movl   $0xfffffffc,-0xba8(%rbp)
    6790:	ff ff ff 
    6793:	c7 85 5c f4 ff ff 00 	movl   $0x0,-0xba4(%rbp)
    679a:	00 00 00 
    679d:	c7 85 60 f4 ff ff 00 	movl   $0x0,-0xba0(%rbp)
    67a4:	00 00 00 
    67a7:	c7 85 64 f4 ff ff fc 	movl   $0xfffffffc,-0xb9c(%rbp)
    67ae:	ff ff ff 
    67b1:	c7 85 68 f4 ff ff 8b 	movl   $0xbfb4bc8b,-0xb98(%rbp)
    67b8:	bc b4 bf 
    67bb:	c7 85 6c f4 ff ff fc 	movl   $0xfffffffc,-0xb94(%rbp)
    67c2:	ff ff ff 
    67c5:	c7 85 70 f4 ff ff 00 	movl   $0x0,-0xb90(%rbp)
    67cc:	00 00 00 
    67cf:	c7 85 74 f4 ff ff 00 	movl   $0x0,-0xb8c(%rbp)
    67d6:	00 00 00 
    67d9:	c7 85 78 f4 ff ff fc 	movl   $0xfffffffc,-0xb88(%rbp)
    67e0:	ff ff ff 
    67e3:	c7 85 7c f4 ff ff 8b 	movl   $0xbfb4bc8b,-0xb84(%rbp)
    67ea:	bc b4 bf 
    67ed:	c7 85 80 f4 ff ff fc 	movl   $0xfffffffc,-0xb80(%rbp)
    67f4:	ff ff ff 
    67f7:	c7 85 84 f4 ff ff 00 	movl   $0x0,-0xb7c(%rbp)
    67fe:	00 00 00 
    6801:	c7 85 88 f4 ff ff 00 	movl   $0x0,-0xb78(%rbp)
    6808:	00 00 00 
    680b:	c7 85 8c f4 ff ff fc 	movl   $0xfffffffc,-0xb74(%rbp)
    6812:	ff ff ff 
    6815:	c7 85 90 f4 ff ff 8b 	movl   $0xbfb4bc8b,-0xb70(%rbp)
    681c:	bc b4 bf 
    681f:	c7 85 94 f4 ff ff fc 	movl   $0xfffffffc,-0xb6c(%rbp)
    6826:	ff ff ff 
    6829:	c7 85 98 f4 ff ff 00 	movl   $0x0,-0xb68(%rbp)
    6830:	00 00 00 
    6833:	c7 85 9c f4 ff ff 00 	movl   $0x0,-0xb64(%rbp)
    683a:	00 00 00 
    683d:	c7 85 a0 f4 ff ff fc 	movl   $0xfffffffc,-0xb60(%rbp)
    6844:	ff ff ff 
    6847:	c7 85 a4 f4 ff ff 8b 	movl   $0xbfb4bc8b,-0xb5c(%rbp)
    684e:	bc b4 bf 
    6851:	c7 85 a8 f4 ff ff fc 	movl   $0xfffffffc,-0xb58(%rbp)
    6858:	ff ff ff 
    685b:	c7 85 ac f4 ff ff 00 	movl   $0x0,-0xb54(%rbp)
    6862:	00 00 00 
    6865:	c7 85 b0 f4 ff ff 00 	movl   $0x0,-0xb50(%rbp)
    686c:	00 00 00 
    686f:	c7 85 b4 f4 ff ff fc 	movl   $0xfffffffc,-0xb4c(%rbp)
    6876:	ff ff ff 
    6879:	c7 85 b8 f4 ff ff 8b 	movl   $0xbfb4bc8b,-0xb48(%rbp)
    6880:	bc b4 bf 
    6883:	c7 85 bc f4 ff ff fc 	movl   $0xfffffffc,-0xb44(%rbp)
    688a:	ff ff ff 
    688d:	c7 85 c0 f4 ff ff 00 	movl   $0x0,-0xb40(%rbp)
    6894:	00 00 00 
    6897:	c7 85 c4 f4 ff ff 00 	movl   $0x0,-0xb3c(%rbp)
    689e:	00 00 00 
    68a1:	c7 85 c8 f4 ff ff fc 	movl   $0xfffffffc,-0xb38(%rbp)
    68a8:	ff ff ff 
    68ab:	c7 85 cc f4 ff ff 8b 	movl   $0xbfb4bc8b,-0xb34(%rbp)
    68b2:	bc b4 bf 
    68b5:	c7 85 d0 f4 ff ff fc 	movl   $0xfffffffc,-0xb30(%rbp)
    68bc:	ff ff ff 
    68bf:	c7 85 d4 f4 ff ff 00 	movl   $0x0,-0xb2c(%rbp)
    68c6:	00 00 00 
    68c9:	c7 85 d8 f4 ff ff 00 	movl   $0x0,-0xb28(%rbp)
    68d0:	00 00 00 
    68d3:	c7 85 dc f4 ff ff fc 	movl   $0xfffffffc,-0xb24(%rbp)
    68da:	ff ff ff 
    68dd:	c7 85 e0 f4 ff ff 8b 	movl   $0xbfb4bc8b,-0xb20(%rbp)
    68e4:	bc b4 bf 
    68e7:	c7 85 e4 f4 ff ff fc 	movl   $0xfffffffc,-0xb1c(%rbp)
    68ee:	ff ff ff 
    68f1:	c7 85 e8 f4 ff ff 00 	movl   $0x0,-0xb18(%rbp)
    68f8:	00 00 00 
    68fb:	c7 85 ec f4 ff ff 00 	movl   $0x0,-0xb14(%rbp)
    6902:	00 00 00 
    6905:	83 bd 34 f1 ff ff 00 	cmpl   $0x0,-0xecc(%rbp)
    690c:	0f 85 d8 00 00 00    	jne    69ea <func_44+0x39a>
    6912:	0f b7 05 75 97 00 00 	movzwl 0x9775(%rip),%eax        # 1008e <g_251+0x6>
    6919:	c1 e0 03             	shl    $0x3,%eax
    691c:	66 c1 f8 0a          	sar    $0xa,%ax
    6920:	0f be d8             	movsbl %al,%ebx
    6923:	0f b6 85 dc f0 ff ff 	movzbl -0xf24(%rbp),%eax
    692a:	0f b6 c0             	movzbl %al,%eax
    692d:	c7 85 e8 f0 ff ff 00 	movl   $0x0,-0xf18(%rbp)
    6934:	00 00 00 
    6937:	89 c6                	mov    %eax,%esi
    6939:	bf 00 00 00 00       	mov    $0x0,%edi
    693e:	e8 4b d4 ff ff       	callq  3d8e <safe_div_func_uint16_t_u_u>
    6943:	0f b6 d0             	movzbl %al,%edx
    6946:	0f b6 85 dc f0 ff ff 	movzbl -0xf24(%rbp),%eax
    694d:	0f b6 c0             	movzbl %al,%eax
    6950:	89 d6                	mov    %edx,%esi
    6952:	89 c7                	mov    %eax,%edi
    6954:	e8 3a d2 ff ff       	callq  3b93 <safe_mul_func_uint8_t_u_u>
    6959:	0f b6 c0             	movzbl %al,%eax
    695c:	89 85 ec f0 ff ff    	mov    %eax,-0xf14(%rbp)
    6962:	8b 85 ec f0 ff ff    	mov    -0xf14(%rbp),%eax
    6968:	23 85 34 f1 ff ff    	and    -0xecc(%rbp),%eax
    696e:	89 c1                	mov    %eax,%ecx
    6970:	48 8b 85 68 f1 ff ff 	mov    -0xe98(%rbp),%rax
    6977:	48 8b 10             	mov    (%rax),%rdx
    697a:	89 c9                	mov    %ecx,%ecx
    697c:	48 8b 85 68 f1 ff ff 	mov    -0xe98(%rbp),%rax
    6983:	48 31 ca             	xor    %rcx,%rdx
    6986:	48 89 10             	mov    %rdx,(%rax)
    6989:	b9 01 00 00 00       	mov    $0x1,%ecx
    698e:	48 8b 05 9b 9b 00 00 	mov    0x9b9b(%rip),%rax        # 10530 <g_140>
    6995:	0f b6 10             	movzbl (%rax),%edx
    6998:	48 8b 05 91 9b 00 00 	mov    0x9b91(%rip),%rax        # 10530 <g_140>
    699f:	31 ca                	xor    %ecx,%edx
    69a1:	88 10                	mov    %dl,(%rax)
    69a3:	0f b6 85 dc f0 ff ff 	movzbl -0xf24(%rbp),%eax
    69aa:	3c 4d                	cmp    $0x4d,%al
    69ac:	0f 94 c0             	sete   %al
    69af:	0f b6 d0             	movzbl %al,%edx
    69b2:	8b 85 34 f1 ff ff    	mov    -0xecc(%rbp),%eax
    69b8:	0f b7 c0             	movzwl %ax,%eax
    69bb:	89 d6                	mov    %edx,%esi
    69bd:	89 c7                	mov    %eax,%edi
    69bf:	e8 b6 d4 ff ff       	callq  3e7a <safe_rshift_func_uint16_t_u_u>
    69c4:	0f b7 c0             	movzwl %ax,%eax
    69c7:	39 c3                	cmp    %eax,%ebx
    69c9:	0f 9e c0             	setle  %al
    69cc:	0f b6 c0             	movzbl %al,%eax
    69cf:	be 08 00 00 00       	mov    $0x8,%esi
    69d4:	89 c7                	mov    %eax,%edi
    69d6:	e8 06 cb ff ff       	callq  34e1 <safe_lshift_func_int16_t_s_u>
    69db:	66 83 f8 f9          	cmp    $0xfff9,%ax
    69df:	75 09                	jne    69ea <func_44+0x39a>
    69e1:	0f b6 85 dc f0 ff ff 	movzbl -0xf24(%rbp),%eax
    69e8:	84 c0                	test   %al,%al
    69ea:	90                   	nop
    69eb:	0f b6 85 dc f0 ff ff 	movzbl -0xf24(%rbp),%eax
    69f2:	0f b6 c0             	movzbl %al,%eax
    69f5:	48 83 c8 f9          	or     $0xfffffffffffffff9,%rax
    69f9:	48 89 c2             	mov    %rax,%rdx
    69fc:	8b 85 34 f1 ff ff    	mov    -0xecc(%rbp),%eax
    6a02:	48 39 c2             	cmp    %rax,%rdx
    6a05:	0f 95 c2             	setne  %dl
    6a08:	48 8b 85 70 f1 ff ff 	mov    -0xe90(%rbp),%rax
    6a0f:	0f b6 d2             	movzbl %dl,%edx
    6a12:	89 10                	mov    %edx,(%rax)
    6a14:	48 8b 85 70 f1 ff ff 	mov    -0xe90(%rbp),%rax
    6a1b:	8b 00                	mov    (%rax),%eax
    6a1d:	0f b6 d0             	movzbl %al,%edx
    6a20:	0f b6 85 dc f0 ff ff 	movzbl -0xf24(%rbp),%eax
    6a27:	83 c0 01             	add    $0x1,%eax
    6a2a:	88 85 dc f0 ff ff    	mov    %al,-0xf24(%rbp)
    6a30:	0f b6 85 dc f0 ff ff 	movzbl -0xf24(%rbp),%eax
    6a37:	0f b6 c0             	movzbl %al,%eax
    6a3a:	89 d6                	mov    %edx,%esi
    6a3c:	89 c7                	mov    %eax,%edi
    6a3e:	e8 17 d1 ff ff       	callq  3b5a <safe_add_func_uint8_t_u_u>
    6a43:	84 c0                	test   %al,%al
    6a45:	0f 84 f5 0c 00 00    	je     7740 <func_44+0x10f0>
    6a4b:	48 c7 85 28 f3 ff ff 	movq   $0x0,-0xcd8(%rbp)
    6a52:	00 00 00 00 
    6a56:	48 8d 85 ec f0 ff ff 	lea    -0xf14(%rbp),%rax
    6a5d:	48 89 85 30 f3 ff ff 	mov    %rax,-0xcd0(%rbp)
    6a64:	48 8d 05 dd a6 00 00 	lea    0xa6dd(%rip),%rax        # 11148 <g_41>
    6a6b:	48 89 85 38 f3 ff ff 	mov    %rax,-0xcc8(%rbp)
    6a72:	48 8d 05 cf a6 00 00 	lea    0xa6cf(%rip),%rax        # 11148 <g_41>
    6a79:	48 89 85 40 f3 ff ff 	mov    %rax,-0xcc0(%rbp)
    6a80:	48 8d 85 e8 f0 ff ff 	lea    -0xf18(%rbp),%rax
    6a87:	48 89 85 48 f3 ff ff 	mov    %rax,-0xcb8(%rbp)
    6a8e:	48 c7 85 50 f3 ff ff 	movq   $0x0,-0xcb0(%rbp)
    6a95:	00 00 00 00 
    6a99:	48 8d 85 e8 f0 ff ff 	lea    -0xf18(%rbp),%rax
    6aa0:	48 89 85 58 f3 ff ff 	mov    %rax,-0xca8(%rbp)
    6aa7:	c7 85 a8 f1 ff ff 1b 	movl   $0x53203d1b,-0xe58(%rbp)
    6aae:	3d 20 53 
    6ab1:	48 8d 85 e8 f0 ff ff 	lea    -0xf18(%rbp),%rax
    6ab8:	48 89 85 30 f8 ff ff 	mov    %rax,-0x7d0(%rbp)
    6abf:	48 c7 85 38 f8 ff ff 	movq   $0x0,-0x7c8(%rbp)
    6ac6:	00 00 00 00 
    6aca:	48 c7 85 40 f8 ff ff 	movq   $0x0,-0x7c0(%rbp)
    6ad1:	00 00 00 00 
    6ad5:	48 c7 85 48 f8 ff ff 	movq   $0x0,-0x7b8(%rbp)
    6adc:	00 00 00 00 
    6ae0:	48 8d 85 ec f0 ff ff 	lea    -0xf14(%rbp),%rax
    6ae7:	48 89 85 50 f8 ff ff 	mov    %rax,-0x7b0(%rbp)
    6aee:	48 c7 85 58 f8 ff ff 	movq   $0x0,-0x7a8(%rbp)
    6af5:	00 00 00 00 
    6af9:	48 8d 85 e8 f0 ff ff 	lea    -0xf18(%rbp),%rax
    6b00:	48 89 85 60 f8 ff ff 	mov    %rax,-0x7a0(%rbp)
    6b07:	48 c7 85 68 f8 ff ff 	movq   $0x0,-0x798(%rbp)
    6b0e:	00 00 00 00 
    6b12:	48 8d 85 e8 f0 ff ff 	lea    -0xf18(%rbp),%rax
    6b19:	48 89 85 70 f8 ff ff 	mov    %rax,-0x790(%rbp)
    6b20:	48 8d 85 e8 f0 ff ff 	lea    -0xf18(%rbp),%rax
    6b27:	48 89 85 78 f8 ff ff 	mov    %rax,-0x788(%rbp)
    6b2e:	48 8d 05 13 a6 00 00 	lea    0xa613(%rip),%rax        # 11148 <g_41>
    6b35:	48 89 85 80 f8 ff ff 	mov    %rax,-0x780(%rbp)
    6b3c:	48 8d 85 ec f0 ff ff 	lea    -0xf14(%rbp),%rax
    6b43:	48 89 85 88 f8 ff ff 	mov    %rax,-0x778(%rbp)
    6b4a:	48 c7 85 90 f8 ff ff 	movq   $0x0,-0x770(%rbp)
    6b51:	00 00 00 00 
    6b55:	48 c7 85 98 f8 ff ff 	movq   $0x0,-0x768(%rbp)
    6b5c:	00 00 00 00 
    6b60:	48 8d 05 e1 a5 00 00 	lea    0xa5e1(%rip),%rax        # 11148 <g_41>
    6b67:	48 89 85 a0 f8 ff ff 	mov    %rax,-0x760(%rbp)
    6b6e:	48 8d 05 cb 94 00 00 	lea    0x94cb(%rip),%rax        # 10040 <g_6>
    6b75:	48 89 85 a8 f8 ff ff 	mov    %rax,-0x758(%rbp)
    6b7c:	48 8d 85 ec f0 ff ff 	lea    -0xf14(%rbp),%rax
    6b83:	48 89 85 b0 f8 ff ff 	mov    %rax,-0x750(%rbp)
    6b8a:	48 8d 05 af 94 00 00 	lea    0x94af(%rip),%rax        # 10040 <g_6>
    6b91:	48 89 85 b8 f8 ff ff 	mov    %rax,-0x748(%rbp)
    6b98:	48 8d 05 a1 94 00 00 	lea    0x94a1(%rip),%rax        # 10040 <g_6>
    6b9f:	48 89 85 c0 f8 ff ff 	mov    %rax,-0x740(%rbp)
    6ba6:	48 c7 85 c8 f8 ff ff 	movq   $0x0,-0x738(%rbp)
    6bad:	00 00 00 00 
    6bb1:	48 8d 85 ec f0 ff ff 	lea    -0xf14(%rbp),%rax
    6bb8:	48 89 85 d0 f8 ff ff 	mov    %rax,-0x730(%rbp)
    6bbf:	48 c7 85 d8 f8 ff ff 	movq   $0x0,-0x728(%rbp)
    6bc6:	00 00 00 00 
    6bca:	48 8d 85 e8 f0 ff ff 	lea    -0xf18(%rbp),%rax
    6bd1:	48 89 85 e0 f8 ff ff 	mov    %rax,-0x720(%rbp)
    6bd8:	48 8d 85 ec f0 ff ff 	lea    -0xf14(%rbp),%rax
    6bdf:	48 89 85 e8 f8 ff ff 	mov    %rax,-0x718(%rbp)
    6be6:	48 8d 85 e8 f0 ff ff 	lea    -0xf18(%rbp),%rax
    6bed:	48 89 85 f0 f8 ff ff 	mov    %rax,-0x710(%rbp)
    6bf4:	48 8d 05 4d a5 00 00 	lea    0xa54d(%rip),%rax        # 11148 <g_41>
    6bfb:	48 89 85 f8 f8 ff ff 	mov    %rax,-0x708(%rbp)
    6c02:	48 8d 85 ec f0 ff ff 	lea    -0xf14(%rbp),%rax
    6c09:	48 89 85 00 f9 ff ff 	mov    %rax,-0x700(%rbp)
    6c10:	48 8d 05 29 94 00 00 	lea    0x9429(%rip),%rax        # 10040 <g_6>
    6c17:	48 89 85 08 f9 ff ff 	mov    %rax,-0x6f8(%rbp)
    6c1e:	48 8d 85 e8 f0 ff ff 	lea    -0xf18(%rbp),%rax
    6c25:	48 89 85 10 f9 ff ff 	mov    %rax,-0x6f0(%rbp)
    6c2c:	48 8d 85 e8 f0 ff ff 	lea    -0xf18(%rbp),%rax
    6c33:	48 89 85 18 f9 ff ff 	mov    %rax,-0x6e8(%rbp)
    6c3a:	48 8d 85 ec f0 ff ff 	lea    -0xf14(%rbp),%rax
    6c41:	48 89 85 20 f9 ff ff 	mov    %rax,-0x6e0(%rbp)
    6c48:	48 8d 85 e8 f0 ff ff 	lea    -0xf18(%rbp),%rax
    6c4f:	48 89 85 28 f9 ff ff 	mov    %rax,-0x6d8(%rbp)
    6c56:	48 8d 85 a8 f1 ff ff 	lea    -0xe58(%rbp),%rax
    6c5d:	48 89 85 30 f9 ff ff 	mov    %rax,-0x6d0(%rbp)
    6c64:	48 8d 85 ec f0 ff ff 	lea    -0xf14(%rbp),%rax
    6c6b:	48 89 85 38 f9 ff ff 	mov    %rax,-0x6c8(%rbp)
    6c72:	48 c7 85 40 f9 ff ff 	movq   $0x0,-0x6c0(%rbp)
    6c79:	00 00 00 00 
    6c7d:	48 8d 05 bc 93 00 00 	lea    0x93bc(%rip),%rax        # 10040 <g_6>
    6c84:	48 89 85 48 f9 ff ff 	mov    %rax,-0x6b8(%rbp)
    6c8b:	48 c7 85 50 f9 ff ff 	movq   $0x0,-0x6b0(%rbp)
    6c92:	00 00 00 00 
    6c96:	48 8d 05 ab a4 00 00 	lea    0xa4ab(%rip),%rax        # 11148 <g_41>
    6c9d:	48 89 85 58 f9 ff ff 	mov    %rax,-0x6a8(%rbp)
    6ca4:	48 8d 05 9d a4 00 00 	lea    0xa49d(%rip),%rax        # 11148 <g_41>
    6cab:	48 89 85 60 f9 ff ff 	mov    %rax,-0x6a0(%rbp)
    6cb2:	48 8d 85 ec f0 ff ff 	lea    -0xf14(%rbp),%rax
    6cb9:	48 89 85 68 f9 ff ff 	mov    %rax,-0x698(%rbp)
    6cc0:	48 8d 05 81 a4 00 00 	lea    0xa481(%rip),%rax        # 11148 <g_41>
    6cc7:	48 89 85 70 f9 ff ff 	mov    %rax,-0x690(%rbp)
    6cce:	48 c7 85 78 f9 ff ff 	movq   $0x0,-0x688(%rbp)
    6cd5:	00 00 00 00 
    6cd9:	48 8d 85 ec f0 ff ff 	lea    -0xf14(%rbp),%rax
    6ce0:	48 89 85 80 f9 ff ff 	mov    %rax,-0x680(%rbp)
    6ce7:	48 8d 85 a8 f1 ff ff 	lea    -0xe58(%rbp),%rax
    6cee:	48 89 85 88 f9 ff ff 	mov    %rax,-0x678(%rbp)
    6cf5:	48 c7 85 90 f9 ff ff 	movq   $0x0,-0x670(%rbp)
    6cfc:	00 00 00 00 
    6d00:	48 8d 05 39 93 00 00 	lea    0x9339(%rip),%rax        # 10040 <g_6>
    6d07:	48 89 85 98 f9 ff ff 	mov    %rax,-0x668(%rbp)
    6d0e:	48 c7 85 a0 f9 ff ff 	movq   $0x0,-0x660(%rbp)
    6d15:	00 00 00 00 
    6d19:	48 8d 05 28 a4 00 00 	lea    0xa428(%rip),%rax        # 11148 <g_41>
    6d20:	48 89 85 a8 f9 ff ff 	mov    %rax,-0x658(%rbp)
    6d27:	48 8d 85 ec f0 ff ff 	lea    -0xf14(%rbp),%rax
    6d2e:	48 89 85 b0 f9 ff ff 	mov    %rax,-0x650(%rbp)
    6d35:	48 8d 85 a8 f1 ff ff 	lea    -0xe58(%rbp),%rax
    6d3c:	48 89 85 b8 f9 ff ff 	mov    %rax,-0x648(%rbp)
    6d43:	48 8d 05 f6 92 00 00 	lea    0x92f6(%rip),%rax        # 10040 <g_6>
    6d4a:	48 89 85 c0 f9 ff ff 	mov    %rax,-0x640(%rbp)
    6d51:	48 8d 05 f0 a3 00 00 	lea    0xa3f0(%rip),%rax        # 11148 <g_41>
    6d58:	48 89 85 c8 f9 ff ff 	mov    %rax,-0x638(%rbp)
    6d5f:	48 c7 85 d0 f9 ff ff 	movq   $0x0,-0x630(%rbp)
    6d66:	00 00 00 00 
    6d6a:	48 8d 85 a8 f1 ff ff 	lea    -0xe58(%rbp),%rax
    6d71:	48 89 85 d8 f9 ff ff 	mov    %rax,-0x628(%rbp)
    6d78:	48 8d 85 e8 f0 ff ff 	lea    -0xf18(%rbp),%rax
    6d7f:	48 89 85 e0 f9 ff ff 	mov    %rax,-0x620(%rbp)
    6d86:	48 8d 85 a8 f1 ff ff 	lea    -0xe58(%rbp),%rax
    6d8d:	48 89 85 e8 f9 ff ff 	mov    %rax,-0x618(%rbp)
    6d94:	48 8d 85 e8 f0 ff ff 	lea    -0xf18(%rbp),%rax
    6d9b:	48 89 85 f0 f9 ff ff 	mov    %rax,-0x610(%rbp)
    6da2:	48 8d 85 e8 f0 ff ff 	lea    -0xf18(%rbp),%rax
    6da9:	48 89 85 f8 f9 ff ff 	mov    %rax,-0x608(%rbp)
    6db0:	48 8d 05 91 a3 00 00 	lea    0xa391(%rip),%rax        # 11148 <g_41>
    6db7:	48 89 85 00 fa ff ff 	mov    %rax,-0x600(%rbp)
    6dbe:	48 8d 85 e8 f0 ff ff 	lea    -0xf18(%rbp),%rax
    6dc5:	48 89 85 08 fa ff ff 	mov    %rax,-0x5f8(%rbp)
    6dcc:	48 8d 05 75 a3 00 00 	lea    0xa375(%rip),%rax        # 11148 <g_41>
    6dd3:	48 89 85 10 fa ff ff 	mov    %rax,-0x5f0(%rbp)
    6dda:	48 8d 05 67 a3 00 00 	lea    0xa367(%rip),%rax        # 11148 <g_41>
    6de1:	48 89 85 18 fa ff ff 	mov    %rax,-0x5e8(%rbp)
    6de8:	48 8d 85 a8 f1 ff ff 	lea    -0xe58(%rbp),%rax
    6def:	48 89 85 20 fa ff ff 	mov    %rax,-0x5e0(%rbp)
    6df6:	48 8d 85 ec f0 ff ff 	lea    -0xf14(%rbp),%rax
    6dfd:	48 89 85 28 fa ff ff 	mov    %rax,-0x5d8(%rbp)
    6e04:	48 c7 85 30 fa ff ff 	movq   $0x0,-0x5d0(%rbp)
    6e0b:	00 00 00 00 
    6e0f:	48 8d 85 e8 f0 ff ff 	lea    -0xf18(%rbp),%rax
    6e16:	48 89 85 38 fa ff ff 	mov    %rax,-0x5c8(%rbp)
    6e1d:	48 8d 05 1c 92 00 00 	lea    0x921c(%rip),%rax        # 10040 <g_6>
    6e24:	48 89 85 40 fa ff ff 	mov    %rax,-0x5c0(%rbp)
    6e2b:	48 8d 85 e8 f0 ff ff 	lea    -0xf18(%rbp),%rax
    6e32:	48 89 85 48 fa ff ff 	mov    %rax,-0x5b8(%rbp)
    6e39:	48 8d 85 e8 f0 ff ff 	lea    -0xf18(%rbp),%rax
    6e40:	48 89 85 50 fa ff ff 	mov    %rax,-0x5b0(%rbp)
    6e47:	48 8d 85 ec f0 ff ff 	lea    -0xf14(%rbp),%rax
    6e4e:	48 89 85 58 fa ff ff 	mov    %rax,-0x5a8(%rbp)
    6e55:	48 8d 85 e8 f0 ff ff 	lea    -0xf18(%rbp),%rax
    6e5c:	48 89 85 60 fa ff ff 	mov    %rax,-0x5a0(%rbp)
    6e63:	48 8d 85 a8 f1 ff ff 	lea    -0xe58(%rbp),%rax
    6e6a:	48 89 85 68 fa ff ff 	mov    %rax,-0x598(%rbp)
    6e71:	48 8d 85 ec f0 ff ff 	lea    -0xf14(%rbp),%rax
    6e78:	48 89 85 70 fa ff ff 	mov    %rax,-0x590(%rbp)
    6e7f:	48 c7 85 78 fa ff ff 	movq   $0x0,-0x588(%rbp)
    6e86:	00 00 00 00 
    6e8a:	48 8d 05 af 91 00 00 	lea    0x91af(%rip),%rax        # 10040 <g_6>
    6e91:	48 89 85 80 fa ff ff 	mov    %rax,-0x580(%rbp)
    6e98:	48 c7 85 88 fa ff ff 	movq   $0x0,-0x578(%rbp)
    6e9f:	00 00 00 00 
    6ea3:	48 8d 05 9e a2 00 00 	lea    0xa29e(%rip),%rax        # 11148 <g_41>
    6eaa:	48 89 85 90 fa ff ff 	mov    %rax,-0x570(%rbp)
    6eb1:	48 8d 05 90 a2 00 00 	lea    0xa290(%rip),%rax        # 11148 <g_41>
    6eb8:	48 89 85 98 fa ff ff 	mov    %rax,-0x568(%rbp)
    6ebf:	48 8d 85 ec f0 ff ff 	lea    -0xf14(%rbp),%rax
    6ec6:	48 89 85 a0 fa ff ff 	mov    %rax,-0x560(%rbp)
    6ecd:	48 8d 05 74 a2 00 00 	lea    0xa274(%rip),%rax        # 11148 <g_41>
    6ed4:	48 89 85 a8 fa ff ff 	mov    %rax,-0x558(%rbp)
    6edb:	48 c7 85 b0 fa ff ff 	movq   $0x0,-0x550(%rbp)
    6ee2:	00 00 00 00 
    6ee6:	48 8d 85 ec f0 ff ff 	lea    -0xf14(%rbp),%rax
    6eed:	48 89 85 b8 fa ff ff 	mov    %rax,-0x548(%rbp)
    6ef4:	48 8d 85 a8 f1 ff ff 	lea    -0xe58(%rbp),%rax
    6efb:	48 89 85 c0 fa ff ff 	mov    %rax,-0x540(%rbp)
    6f02:	48 c7 85 c8 fa ff ff 	movq   $0x0,-0x538(%rbp)
    6f09:	00 00 00 00 
    6f0d:	48 8d 05 2c 91 00 00 	lea    0x912c(%rip),%rax        # 10040 <g_6>
    6f14:	48 89 85 d0 fa ff ff 	mov    %rax,-0x530(%rbp)
    6f1b:	48 c7 85 d8 fa ff ff 	movq   $0x0,-0x528(%rbp)
    6f22:	00 00 00 00 
    6f26:	48 8d 05 1b a2 00 00 	lea    0xa21b(%rip),%rax        # 11148 <g_41>
    6f2d:	48 89 85 e0 fa ff ff 	mov    %rax,-0x520(%rbp)
    6f34:	48 8d 85 ec f0 ff ff 	lea    -0xf14(%rbp),%rax
    6f3b:	48 89 85 e8 fa ff ff 	mov    %rax,-0x518(%rbp)
    6f42:	48 8d 85 a8 f1 ff ff 	lea    -0xe58(%rbp),%rax
    6f49:	48 89 85 f0 fa ff ff 	mov    %rax,-0x510(%rbp)
    6f50:	48 8d 05 e9 90 00 00 	lea    0x90e9(%rip),%rax        # 10040 <g_6>
    6f57:	48 89 85 f8 fa ff ff 	mov    %rax,-0x508(%rbp)
    6f5e:	48 8d 05 e3 a1 00 00 	lea    0xa1e3(%rip),%rax        # 11148 <g_41>
    6f65:	48 89 85 00 fb ff ff 	mov    %rax,-0x500(%rbp)
    6f6c:	48 c7 85 08 fb ff ff 	movq   $0x0,-0x4f8(%rbp)
    6f73:	00 00 00 00 
    6f77:	48 8d 85 a8 f1 ff ff 	lea    -0xe58(%rbp),%rax
    6f7e:	48 89 85 10 fb ff ff 	mov    %rax,-0x4f0(%rbp)
    6f85:	48 8d 85 e8 f0 ff ff 	lea    -0xf18(%rbp),%rax
    6f8c:	48 89 85 18 fb ff ff 	mov    %rax,-0x4e8(%rbp)
    6f93:	48 8d 85 a8 f1 ff ff 	lea    -0xe58(%rbp),%rax
    6f9a:	48 89 85 20 fb ff ff 	mov    %rax,-0x4e0(%rbp)
    6fa1:	48 8d 85 e8 f0 ff ff 	lea    -0xf18(%rbp),%rax
    6fa8:	48 89 85 28 fb ff ff 	mov    %rax,-0x4d8(%rbp)
    6faf:	48 8d 85 e8 f0 ff ff 	lea    -0xf18(%rbp),%rax
    6fb6:	48 89 85 30 fb ff ff 	mov    %rax,-0x4d0(%rbp)
    6fbd:	48 8d 05 84 a1 00 00 	lea    0xa184(%rip),%rax        # 11148 <g_41>
    6fc4:	48 89 85 38 fb ff ff 	mov    %rax,-0x4c8(%rbp)
    6fcb:	48 8d 85 e8 f0 ff ff 	lea    -0xf18(%rbp),%rax
    6fd2:	48 89 85 40 fb ff ff 	mov    %rax,-0x4c0(%rbp)
    6fd9:	48 8d 05 68 a1 00 00 	lea    0xa168(%rip),%rax        # 11148 <g_41>
    6fe0:	48 89 85 48 fb ff ff 	mov    %rax,-0x4b8(%rbp)
    6fe7:	48 8d 05 5a a1 00 00 	lea    0xa15a(%rip),%rax        # 11148 <g_41>
    6fee:	48 89 85 50 fb ff ff 	mov    %rax,-0x4b0(%rbp)
    6ff5:	48 8d 85 a8 f1 ff ff 	lea    -0xe58(%rbp),%rax
    6ffc:	48 89 85 58 fb ff ff 	mov    %rax,-0x4a8(%rbp)
    7003:	48 8d 85 ec f0 ff ff 	lea    -0xf14(%rbp),%rax
    700a:	48 89 85 60 fb ff ff 	mov    %rax,-0x4a0(%rbp)
    7011:	48 c7 85 68 fb ff ff 	movq   $0x0,-0x498(%rbp)
    7018:	00 00 00 00 
    701c:	48 8d 85 e8 f0 ff ff 	lea    -0xf18(%rbp),%rax
    7023:	48 89 85 70 fb ff ff 	mov    %rax,-0x490(%rbp)
    702a:	48 8d 05 0f 90 00 00 	lea    0x900f(%rip),%rax        # 10040 <g_6>
    7031:	48 89 85 78 fb ff ff 	mov    %rax,-0x488(%rbp)
    7038:	48 8d 85 e8 f0 ff ff 	lea    -0xf18(%rbp),%rax
    703f:	48 89 85 80 fb ff ff 	mov    %rax,-0x480(%rbp)
    7046:	48 8d 85 e8 f0 ff ff 	lea    -0xf18(%rbp),%rax
    704d:	48 89 85 88 fb ff ff 	mov    %rax,-0x478(%rbp)
    7054:	48 8d 85 ec f0 ff ff 	lea    -0xf14(%rbp),%rax
    705b:	48 89 85 90 fb ff ff 	mov    %rax,-0x470(%rbp)
    7062:	48 8d 85 e8 f0 ff ff 	lea    -0xf18(%rbp),%rax
    7069:	48 89 85 98 fb ff ff 	mov    %rax,-0x468(%rbp)
    7070:	48 8d 85 a8 f1 ff ff 	lea    -0xe58(%rbp),%rax
    7077:	48 89 85 a0 fb ff ff 	mov    %rax,-0x460(%rbp)
    707e:	48 8d 85 ec f0 ff ff 	lea    -0xf14(%rbp),%rax
    7085:	48 89 85 a8 fb ff ff 	mov    %rax,-0x458(%rbp)
    708c:	48 c7 85 b0 fb ff ff 	movq   $0x0,-0x450(%rbp)
    7093:	00 00 00 00 
    7097:	48 8d 05 a2 8f 00 00 	lea    0x8fa2(%rip),%rax        # 10040 <g_6>
    709e:	48 89 85 b8 fb ff ff 	mov    %rax,-0x448(%rbp)
    70a5:	48 c7 85 c0 fb ff ff 	movq   $0x0,-0x440(%rbp)
    70ac:	00 00 00 00 
    70b0:	48 8d 05 91 a0 00 00 	lea    0xa091(%rip),%rax        # 11148 <g_41>
    70b7:	48 89 85 c8 fb ff ff 	mov    %rax,-0x438(%rbp)
    70be:	48 8d 05 83 a0 00 00 	lea    0xa083(%rip),%rax        # 11148 <g_41>
    70c5:	48 89 85 d0 fb ff ff 	mov    %rax,-0x430(%rbp)
    70cc:	48 8d 85 ec f0 ff ff 	lea    -0xf14(%rbp),%rax
    70d3:	48 89 85 d8 fb ff ff 	mov    %rax,-0x428(%rbp)
    70da:	48 8d 05 67 a0 00 00 	lea    0xa067(%rip),%rax        # 11148 <g_41>
    70e1:	48 89 85 e0 fb ff ff 	mov    %rax,-0x420(%rbp)
    70e8:	48 c7 85 e8 fb ff ff 	movq   $0x0,-0x418(%rbp)
    70ef:	00 00 00 00 
    70f3:	48 8d 85 ec f0 ff ff 	lea    -0xf14(%rbp),%rax
    70fa:	48 89 85 f0 fb ff ff 	mov    %rax,-0x410(%rbp)
    7101:	48 8d 85 a8 f1 ff ff 	lea    -0xe58(%rbp),%rax
    7108:	48 89 85 f8 fb ff ff 	mov    %rax,-0x408(%rbp)
    710f:	48 c7 85 00 fc ff ff 	movq   $0x0,-0x400(%rbp)
    7116:	00 00 00 00 
    711a:	48 8d 05 1f 8f 00 00 	lea    0x8f1f(%rip),%rax        # 10040 <g_6>
    7121:	48 89 85 08 fc ff ff 	mov    %rax,-0x3f8(%rbp)
    7128:	48 c7 85 10 fc ff ff 	movq   $0x0,-0x3f0(%rbp)
    712f:	00 00 00 00 
    7133:	48 8d 05 0e a0 00 00 	lea    0xa00e(%rip),%rax        # 11148 <g_41>
    713a:	48 89 85 18 fc ff ff 	mov    %rax,-0x3e8(%rbp)
    7141:	48 8d 85 ec f0 ff ff 	lea    -0xf14(%rbp),%rax
    7148:	48 89 85 20 fc ff ff 	mov    %rax,-0x3e0(%rbp)
    714f:	48 8d 85 a8 f1 ff ff 	lea    -0xe58(%rbp),%rax
    7156:	48 89 85 28 fc ff ff 	mov    %rax,-0x3d8(%rbp)
    715d:	48 8d 05 dc 8e 00 00 	lea    0x8edc(%rip),%rax        # 10040 <g_6>
    7164:	48 89 85 30 fc ff ff 	mov    %rax,-0x3d0(%rbp)
    716b:	48 8d 05 d6 9f 00 00 	lea    0x9fd6(%rip),%rax        # 11148 <g_41>
    7172:	48 89 85 38 fc ff ff 	mov    %rax,-0x3c8(%rbp)
    7179:	48 c7 85 40 fc ff ff 	movq   $0x0,-0x3c0(%rbp)
    7180:	00 00 00 00 
    7184:	48 8d 85 a8 f1 ff ff 	lea    -0xe58(%rbp),%rax
    718b:	48 89 85 48 fc ff ff 	mov    %rax,-0x3b8(%rbp)
    7192:	48 8d 85 e8 f0 ff ff 	lea    -0xf18(%rbp),%rax
    7199:	48 89 85 50 fc ff ff 	mov    %rax,-0x3b0(%rbp)
    71a0:	48 8d 85 a8 f1 ff ff 	lea    -0xe58(%rbp),%rax
    71a7:	48 89 85 58 fc ff ff 	mov    %rax,-0x3a8(%rbp)
    71ae:	48 8d 85 e8 f0 ff ff 	lea    -0xf18(%rbp),%rax
    71b5:	48 89 85 60 fc ff ff 	mov    %rax,-0x3a0(%rbp)
    71bc:	48 8d 85 e8 f0 ff ff 	lea    -0xf18(%rbp),%rax
    71c3:	48 89 85 68 fc ff ff 	mov    %rax,-0x398(%rbp)
    71ca:	48 8d 05 77 9f 00 00 	lea    0x9f77(%rip),%rax        # 11148 <g_41>
    71d1:	48 89 85 70 fc ff ff 	mov    %rax,-0x390(%rbp)
    71d8:	48 8d 85 e8 f0 ff ff 	lea    -0xf18(%rbp),%rax
    71df:	48 89 85 78 fc ff ff 	mov    %rax,-0x388(%rbp)
    71e6:	48 8d 05 5b 9f 00 00 	lea    0x9f5b(%rip),%rax        # 11148 <g_41>
    71ed:	48 89 85 80 fc ff ff 	mov    %rax,-0x380(%rbp)
    71f4:	48 8d 05 4d 9f 00 00 	lea    0x9f4d(%rip),%rax        # 11148 <g_41>
    71fb:	48 89 85 88 fc ff ff 	mov    %rax,-0x378(%rbp)
    7202:	48 8d 85 a8 f1 ff ff 	lea    -0xe58(%rbp),%rax
    7209:	48 89 85 90 fc ff ff 	mov    %rax,-0x370(%rbp)
    7210:	48 8d 85 ec f0 ff ff 	lea    -0xf14(%rbp),%rax
    7217:	48 89 85 98 fc ff ff 	mov    %rax,-0x368(%rbp)
    721e:	48 c7 85 a0 fc ff ff 	movq   $0x0,-0x360(%rbp)
    7225:	00 00 00 00 
    7229:	48 8d 85 e8 f0 ff ff 	lea    -0xf18(%rbp),%rax
    7230:	48 89 85 a8 fc ff ff 	mov    %rax,-0x358(%rbp)
    7237:	48 8d 05 02 8e 00 00 	lea    0x8e02(%rip),%rax        # 10040 <g_6>
    723e:	48 89 85 b0 fc ff ff 	mov    %rax,-0x350(%rbp)
    7245:	48 8d 85 e8 f0 ff ff 	lea    -0xf18(%rbp),%rax
    724c:	48 89 85 b8 fc ff ff 	mov    %rax,-0x348(%rbp)
    7253:	48 8d 85 e8 f0 ff ff 	lea    -0xf18(%rbp),%rax
    725a:	48 89 85 c0 fc ff ff 	mov    %rax,-0x340(%rbp)
    7261:	48 8d 85 ec f0 ff ff 	lea    -0xf14(%rbp),%rax
    7268:	48 89 85 c8 fc ff ff 	mov    %rax,-0x338(%rbp)
    726f:	48 8d 85 e8 f0 ff ff 	lea    -0xf18(%rbp),%rax
    7276:	48 89 85 d0 fc ff ff 	mov    %rax,-0x330(%rbp)
    727d:	48 8d 85 a8 f1 ff ff 	lea    -0xe58(%rbp),%rax
    7284:	48 89 85 d8 fc ff ff 	mov    %rax,-0x328(%rbp)
    728b:	48 8d 85 ec f0 ff ff 	lea    -0xf14(%rbp),%rax
    7292:	48 89 85 e0 fc ff ff 	mov    %rax,-0x320(%rbp)
    7299:	48 c7 85 e8 fc ff ff 	movq   $0x0,-0x318(%rbp)
    72a0:	00 00 00 00 
    72a4:	48 8d 05 95 8d 00 00 	lea    0x8d95(%rip),%rax        # 10040 <g_6>
    72ab:	48 89 85 f0 fc ff ff 	mov    %rax,-0x310(%rbp)
    72b2:	48 c7 85 f8 fc ff ff 	movq   $0x0,-0x308(%rbp)
    72b9:	00 00 00 00 
    72bd:	48 8d 05 84 9e 00 00 	lea    0x9e84(%rip),%rax        # 11148 <g_41>
    72c4:	48 89 85 00 fd ff ff 	mov    %rax,-0x300(%rbp)
    72cb:	48 8d 05 76 9e 00 00 	lea    0x9e76(%rip),%rax        # 11148 <g_41>
    72d2:	48 89 85 08 fd ff ff 	mov    %rax,-0x2f8(%rbp)
    72d9:	48 8d 85 ec f0 ff ff 	lea    -0xf14(%rbp),%rax
    72e0:	48 89 85 10 fd ff ff 	mov    %rax,-0x2f0(%rbp)
    72e7:	48 8d 05 5a 9e 00 00 	lea    0x9e5a(%rip),%rax        # 11148 <g_41>
    72ee:	48 89 85 18 fd ff ff 	mov    %rax,-0x2e8(%rbp)
    72f5:	48 c7 85 20 fd ff ff 	movq   $0x0,-0x2e0(%rbp)
    72fc:	00 00 00 00 
    7300:	48 8d 85 ec f0 ff ff 	lea    -0xf14(%rbp),%rax
    7307:	48 89 85 28 fd ff ff 	mov    %rax,-0x2d8(%rbp)
    730e:	48 8d 85 a8 f1 ff ff 	lea    -0xe58(%rbp),%rax
    7315:	48 89 85 30 fd ff ff 	mov    %rax,-0x2d0(%rbp)
    731c:	48 c7 85 38 fd ff ff 	movq   $0x0,-0x2c8(%rbp)
    7323:	00 00 00 00 
    7327:	48 8d 05 12 8d 00 00 	lea    0x8d12(%rip),%rax        # 10040 <g_6>
    732e:	48 89 85 40 fd ff ff 	mov    %rax,-0x2c0(%rbp)
    7335:	48 c7 85 48 fd ff ff 	movq   $0x0,-0x2b8(%rbp)
    733c:	00 00 00 00 
    7340:	48 8d 05 01 9e 00 00 	lea    0x9e01(%rip),%rax        # 11148 <g_41>
    7347:	48 89 85 50 fd ff ff 	mov    %rax,-0x2b0(%rbp)
    734e:	48 8d 85 ec f0 ff ff 	lea    -0xf14(%rbp),%rax
    7355:	48 89 85 58 fd ff ff 	mov    %rax,-0x2a8(%rbp)
    735c:	48 8d 85 a8 f1 ff ff 	lea    -0xe58(%rbp),%rax
    7363:	48 89 85 60 fd ff ff 	mov    %rax,-0x2a0(%rbp)
    736a:	48 8d 05 cf 8c 00 00 	lea    0x8ccf(%rip),%rax        # 10040 <g_6>
    7371:	48 89 85 68 fd ff ff 	mov    %rax,-0x298(%rbp)
    7378:	48 8d 05 c9 9d 00 00 	lea    0x9dc9(%rip),%rax        # 11148 <g_41>
    737f:	48 89 85 70 fd ff ff 	mov    %rax,-0x290(%rbp)
    7386:	48 c7 85 78 fd ff ff 	movq   $0x0,-0x288(%rbp)
    738d:	00 00 00 00 
    7391:	48 8d 85 a8 f1 ff ff 	lea    -0xe58(%rbp),%rax
    7398:	48 89 85 80 fd ff ff 	mov    %rax,-0x280(%rbp)
    739f:	48 8d 85 e8 f0 ff ff 	lea    -0xf18(%rbp),%rax
    73a6:	48 89 85 88 fd ff ff 	mov    %rax,-0x278(%rbp)
    73ad:	48 8d 85 a8 f1 ff ff 	lea    -0xe58(%rbp),%rax
    73b4:	48 89 85 90 fd ff ff 	mov    %rax,-0x270(%rbp)
    73bb:	48 8d 85 e8 f0 ff ff 	lea    -0xf18(%rbp),%rax
    73c2:	48 89 85 98 fd ff ff 	mov    %rax,-0x268(%rbp)
    73c9:	48 8d 85 e8 f0 ff ff 	lea    -0xf18(%rbp),%rax
    73d0:	48 89 85 a0 fd ff ff 	mov    %rax,-0x260(%rbp)
    73d7:	48 8d 05 6a 9d 00 00 	lea    0x9d6a(%rip),%rax        # 11148 <g_41>
    73de:	48 89 85 a8 fd ff ff 	mov    %rax,-0x258(%rbp)
    73e5:	48 8d 85 e8 f0 ff ff 	lea    -0xf18(%rbp),%rax
    73ec:	48 89 85 b0 fd ff ff 	mov    %rax,-0x250(%rbp)
    73f3:	48 8d 05 4e 9d 00 00 	lea    0x9d4e(%rip),%rax        # 11148 <g_41>
    73fa:	48 89 85 b8 fd ff ff 	mov    %rax,-0x248(%rbp)
    7401:	48 8d 05 40 9d 00 00 	lea    0x9d40(%rip),%rax        # 11148 <g_41>
    7408:	48 89 85 c0 fd ff ff 	mov    %rax,-0x240(%rbp)
    740f:	48 8d 85 a8 f1 ff ff 	lea    -0xe58(%rbp),%rax
    7416:	48 89 85 c8 fd ff ff 	mov    %rax,-0x238(%rbp)
    741d:	48 8d 85 ec f0 ff ff 	lea    -0xf14(%rbp),%rax
    7424:	48 89 85 d0 fd ff ff 	mov    %rax,-0x230(%rbp)
    742b:	48 c7 85 d8 fd ff ff 	movq   $0x0,-0x228(%rbp)
    7432:	00 00 00 00 
    7436:	48 8d 85 e8 f0 ff ff 	lea    -0xf18(%rbp),%rax
    743d:	48 89 85 e0 fd ff ff 	mov    %rax,-0x220(%rbp)
    7444:	48 8d 05 f5 8b 00 00 	lea    0x8bf5(%rip),%rax        # 10040 <g_6>
    744b:	48 89 85 e8 fd ff ff 	mov    %rax,-0x218(%rbp)
    7452:	48 8d 85 e8 f0 ff ff 	lea    -0xf18(%rbp),%rax
    7459:	48 89 85 f0 fd ff ff 	mov    %rax,-0x210(%rbp)
    7460:	48 8d 85 e8 f0 ff ff 	lea    -0xf18(%rbp),%rax
    7467:	48 89 85 f8 fd ff ff 	mov    %rax,-0x208(%rbp)
    746e:	48 8d 85 ec f0 ff ff 	lea    -0xf14(%rbp),%rax
    7475:	48 89 85 00 fe ff ff 	mov    %rax,-0x200(%rbp)
    747c:	48 8d 85 e8 f0 ff ff 	lea    -0xf18(%rbp),%rax
    7483:	48 89 85 08 fe ff ff 	mov    %rax,-0x1f8(%rbp)
    748a:	48 8d 85 a8 f1 ff ff 	lea    -0xe58(%rbp),%rax
    7491:	48 89 85 10 fe ff ff 	mov    %rax,-0x1f0(%rbp)
    7498:	48 8d 85 ec f0 ff ff 	lea    -0xf14(%rbp),%rax
    749f:	48 89 85 18 fe ff ff 	mov    %rax,-0x1e8(%rbp)
    74a6:	48 c7 85 20 fe ff ff 	movq   $0x0,-0x1e0(%rbp)
    74ad:	00 00 00 00 
    74b1:	48 8d 05 88 8b 00 00 	lea    0x8b88(%rip),%rax        # 10040 <g_6>
    74b8:	48 89 85 28 fe ff ff 	mov    %rax,-0x1d8(%rbp)
    74bf:	48 c7 85 30 fe ff ff 	movq   $0x0,-0x1d0(%rbp)
    74c6:	00 00 00 00 
    74ca:	48 8d 05 77 9c 00 00 	lea    0x9c77(%rip),%rax        # 11148 <g_41>
    74d1:	48 89 85 38 fe ff ff 	mov    %rax,-0x1c8(%rbp)
    74d8:	48 8d 05 69 9c 00 00 	lea    0x9c69(%rip),%rax        # 11148 <g_41>
    74df:	48 89 85 40 fe ff ff 	mov    %rax,-0x1c0(%rbp)
    74e6:	48 8d 85 ec f0 ff ff 	lea    -0xf14(%rbp),%rax
    74ed:	48 89 85 48 fe ff ff 	mov    %rax,-0x1b8(%rbp)
    74f4:	48 8d 05 4d 9c 00 00 	lea    0x9c4d(%rip),%rax        # 11148 <g_41>
    74fb:	48 89 85 50 fe ff ff 	mov    %rax,-0x1b0(%rbp)
    7502:	48 c7 85 58 fe ff ff 	movq   $0x0,-0x1a8(%rbp)
    7509:	00 00 00 00 
    750d:	48 8d 85 ec f0 ff ff 	lea    -0xf14(%rbp),%rax
    7514:	48 89 85 60 fe ff ff 	mov    %rax,-0x1a0(%rbp)
    751b:	48 8d 85 a8 f1 ff ff 	lea    -0xe58(%rbp),%rax
    7522:	48 89 85 68 fe ff ff 	mov    %rax,-0x198(%rbp)
    7529:	48 c7 85 70 fe ff ff 	movq   $0x0,-0x190(%rbp)
    7530:	00 00 00 00 
    7534:	48 8d 05 05 8b 00 00 	lea    0x8b05(%rip),%rax        # 10040 <g_6>
    753b:	48 89 85 78 fe ff ff 	mov    %rax,-0x188(%rbp)
    7542:	48 c7 85 80 fe ff ff 	movq   $0x0,-0x180(%rbp)
    7549:	00 00 00 00 
    754d:	48 8d 05 f4 9b 00 00 	lea    0x9bf4(%rip),%rax        # 11148 <g_41>
    7554:	48 89 85 88 fe ff ff 	mov    %rax,-0x178(%rbp)
    755b:	48 8d 85 ec f0 ff ff 	lea    -0xf14(%rbp),%rax
    7562:	48 89 85 90 fe ff ff 	mov    %rax,-0x170(%rbp)
    7569:	48 8d 85 a8 f1 ff ff 	lea    -0xe58(%rbp),%rax
    7570:	48 89 85 98 fe ff ff 	mov    %rax,-0x168(%rbp)
    7577:	48 8d 05 c2 8a 00 00 	lea    0x8ac2(%rip),%rax        # 10040 <g_6>
    757e:	48 89 85 a0 fe ff ff 	mov    %rax,-0x160(%rbp)
    7585:	48 8d 05 bc 9b 00 00 	lea    0x9bbc(%rip),%rax        # 11148 <g_41>
    758c:	48 89 85 a8 fe ff ff 	mov    %rax,-0x158(%rbp)
    7593:	48 c7 85 b0 fe ff ff 	movq   $0x0,-0x150(%rbp)
    759a:	00 00 00 00 
    759e:	48 8d 85 a8 f1 ff ff 	lea    -0xe58(%rbp),%rax
    75a5:	48 89 85 b8 fe ff ff 	mov    %rax,-0x148(%rbp)
    75ac:	48 8d 85 e8 f0 ff ff 	lea    -0xf18(%rbp),%rax
    75b3:	48 89 85 c0 fe ff ff 	mov    %rax,-0x140(%rbp)
    75ba:	48 8d 85 a8 f1 ff ff 	lea    -0xe58(%rbp),%rax
    75c1:	48 89 85 c8 fe ff ff 	mov    %rax,-0x138(%rbp)
    75c8:	48 8d 85 e8 f0 ff ff 	lea    -0xf18(%rbp),%rax
    75cf:	48 89 85 d0 fe ff ff 	mov    %rax,-0x130(%rbp)
    75d6:	48 8d 85 e8 f0 ff ff 	lea    -0xf18(%rbp),%rax
    75dd:	48 89 85 d8 fe ff ff 	mov    %rax,-0x128(%rbp)
    75e4:	48 8d 05 5d 9b 00 00 	lea    0x9b5d(%rip),%rax        # 11148 <g_41>
    75eb:	48 89 85 e0 fe ff ff 	mov    %rax,-0x120(%rbp)
    75f2:	48 8d 85 e8 f0 ff ff 	lea    -0xf18(%rbp),%rax
    75f9:	48 89 85 e8 fe ff ff 	mov    %rax,-0x118(%rbp)
    7600:	48 8d 05 41 9b 00 00 	lea    0x9b41(%rip),%rax        # 11148 <g_41>
    7607:	48 89 85 f0 fe ff ff 	mov    %rax,-0x110(%rbp)
    760e:	48 8d 05 33 9b 00 00 	lea    0x9b33(%rip),%rax        # 11148 <g_41>
    7615:	48 89 85 f8 fe ff ff 	mov    %rax,-0x108(%rbp)
    761c:	48 8d 05 1d 8a 00 00 	lea    0x8a1d(%rip),%rax        # 10040 <g_6>
    7623:	48 89 85 00 ff ff ff 	mov    %rax,-0x100(%rbp)
    762a:	48 8d 85 a8 f1 ff ff 	lea    -0xe58(%rbp),%rax
    7631:	48 89 85 08 ff ff ff 	mov    %rax,-0xf8(%rbp)
    7638:	48 8d 05 01 8a 00 00 	lea    0x8a01(%rip),%rax        # 10040 <g_6>
    763f:	48 89 85 10 ff ff ff 	mov    %rax,-0xf0(%rbp)
    7646:	48 8d 85 e8 f0 ff ff 	lea    -0xf18(%rbp),%rax
    764d:	48 89 85 18 ff ff ff 	mov    %rax,-0xe8(%rbp)
    7654:	48 8d 85 e8 f0 ff ff 	lea    -0xf18(%rbp),%rax
    765b:	48 89 85 20 ff ff ff 	mov    %rax,-0xe0(%rbp)
    7662:	48 c7 85 28 ff ff ff 	movq   $0x0,-0xd8(%rbp)
    7669:	00 00 00 00 
    766d:	48 c7 85 30 ff ff ff 	movq   $0x0,-0xd0(%rbp)
    7674:	00 00 00 00 
    7678:	48 8d 85 e8 f0 ff ff 	lea    -0xf18(%rbp),%rax
    767f:	48 89 85 38 ff ff ff 	mov    %rax,-0xc8(%rbp)
    7686:	48 c7 85 40 ff ff ff 	movq   $0x0,-0xc0(%rbp)
    768d:	00 00 00 00 
    7691:	48 8d 85 e8 f0 ff ff 	lea    -0xf18(%rbp),%rax
    7698:	48 89 85 48 ff ff ff 	mov    %rax,-0xb8(%rbp)
    769f:	48 8d 05 a2 9a 00 00 	lea    0x9aa2(%rip),%rax        # 11148 <g_41>
    76a6:	48 89 85 50 ff ff ff 	mov    %rax,-0xb0(%rbp)
    76ad:	48 8d 05 8c 89 00 00 	lea    0x898c(%rip),%rax        # 10040 <g_6>
    76b4:	48 89 85 58 ff ff ff 	mov    %rax,-0xa8(%rbp)
    76bb:	48 8d 85 e8 f0 ff ff 	lea    -0xf18(%rbp),%rax
    76c2:	48 89 85 60 ff ff ff 	mov    %rax,-0xa0(%rbp)
    76c9:	48 c7 85 68 ff ff ff 	movq   $0x0,-0x98(%rbp)
    76d0:	00 00 00 00 
    76d4:	48 c7 85 70 ff ff ff 	movq   $0x0,-0x90(%rbp)
    76db:	00 00 00 00 
    76df:	48 c7 85 78 ff ff ff 	movq   $0x0,-0x88(%rbp)
    76e6:	00 00 00 00 
    76ea:	48 8d 05 57 9a 00 00 	lea    0x9a57(%rip),%rax        # 11148 <g_41>
    76f1:	48 89 45 80          	mov    %rax,-0x80(%rbp)
    76f5:	48 8d 85 ec f0 ff ff 	lea    -0xf14(%rbp),%rax
    76fc:	48 89 45 88          	mov    %rax,-0x78(%rbp)
    7700:	48 8d 05 39 89 00 00 	lea    0x8939(%rip),%rax        # 10040 <g_6>
    7707:	48 89 45 90          	mov    %rax,-0x70(%rbp)
    770b:	48 8d 85 e8 f0 ff ff 	lea    -0xf18(%rbp),%rax
    7712:	48 89 45 98          	mov    %rax,-0x68(%rbp)
    7716:	48 8d 05 23 89 00 00 	lea    0x8923(%rip),%rax        # 10040 <g_6>
    771d:	48 89 45 a0          	mov    %rax,-0x60(%rbp)
    7721:	48 8d 05 18 89 00 00 	lea    0x8918(%rip),%rax        # 10040 <g_6>
    7728:	48 89 45 a8          	mov    %rax,-0x58(%rbp)
    772c:	8b 85 f0 f0 ff ff    	mov    -0xf10(%rbp),%eax
    7732:	83 e8 01             	sub    $0x1,%eax
    7735:	89 85 f0 f0 ff ff    	mov    %eax,-0xf10(%rbp)
    773b:	e9 7d 34 00 00       	jmpq   abbd <func_44+0x456d>
    7740:	c7 85 38 f1 ff ff 01 	movl   $0x1,-0xec8(%rbp)
    7747:	00 00 00 
    774a:	c7 85 fc f0 ff ff fb 	movl   $0xfffffffb,-0xf04(%rbp)
    7751:	ff ff ff 
    7754:	48 8d 05 15 89 00 00 	lea    0x8915(%rip),%rax        # 10070 <g_161>
    775b:	48 89 85 78 f1 ff ff 	mov    %rax,-0xe88(%rbp)
    7762:	48 8d 05 e3 99 00 00 	lea    0x99e3(%rip),%rax        # 1114c <g_108>
    7769:	48 89 85 c8 f1 ff ff 	mov    %rax,-0xe38(%rbp)
    7770:	c7 85 00 f1 ff ff 01 	movl   $0x1,-0xf00(%rbp)
    7777:	00 00 00 
    777a:	48 8d 05 f7 88 00 00 	lea    0x88f7(%rip),%rax        # 10078 <g_189>
    7781:	48 89 85 d0 f1 ff ff 	mov    %rax,-0xe30(%rbp)
    7788:	c7 85 18 f1 ff ff 01 	movl   $0x1,-0xee8(%rbp)
    778f:	00 00 00 
    7792:	c7 85 3c f1 ff ff ff 	movl   $0xffffffff,-0xec4(%rbp)
    7799:	ff ff ff 
    779c:	c7 85 40 f1 ff ff 01 	movl   $0x1,-0xec0(%rbp)
    77a3:	00 00 00 
    77a6:	c7 85 44 f1 ff ff ff 	movl   $0xffffffff,-0xebc(%rbp)
    77ad:	ff ff ff 
    77b0:	c7 85 04 f1 ff ff ff 	movl   $0xffffffff,-0xefc(%rbp)
    77b7:	ff ff ff 
    77ba:	c7 85 48 f1 ff ff 00 	movl   $0x0,-0xeb8(%rbp)
    77c1:	00 00 00 
    77c4:	c7 85 4c f1 ff ff 61 	movl   $0x68b97361,-0xeb4(%rbp)
    77cb:	73 b9 68 
    77ce:	48 8d 05 23 89 00 00 	lea    0x8923(%rip),%rax        # 100f8 <g_581+0x18>
    77d5:	48 89 85 80 f1 ff ff 	mov    %rax,-0xe80(%rbp)
    77dc:	48 8d 85 80 f1 ff ff 	lea    -0xe80(%rbp),%rax
    77e3:	48 89 85 d8 f1 ff ff 	mov    %rax,-0xe28(%rbp)
    77ea:	48 8d 85 70 f1 ff ff 	lea    -0xe90(%rbp),%rax
    77f1:	48 89 85 88 f1 ff ff 	mov    %rax,-0xe78(%rbp)
    77f8:	48 8d 85 88 f1 ff ff 	lea    -0xe78(%rbp),%rax
    77ff:	48 89 85 90 f1 ff ff 	mov    %rax,-0xe70(%rbp)
    7806:	c7 85 1c f1 ff ff 00 	movl   $0x0,-0xee4(%rbp)
    780d:	00 00 00 
    7810:	eb 46                	jmp    7858 <func_44+0x1208>
    7812:	c7 85 20 f1 ff ff 00 	movl   $0x0,-0xee0(%rbp)
    7819:	00 00 00 
    781c:	eb 2a                	jmp    7848 <func_44+0x11f8>
    781e:	8b 85 20 f1 ff ff    	mov    -0xee0(%rbp),%eax
    7824:	48 63 d0             	movslq %eax,%rdx
    7827:	8b 85 1c f1 ff ff    	mov    -0xee4(%rbp),%eax
    782d:	48 98                	cltq   
    782f:	48 01 d0             	add    %rdx,%rax
    7832:	48 8d 15 13 99 00 00 	lea    0x9913(%rip),%rdx        # 1114c <g_108>
    7839:	48 89 94 c5 80 f3 ff 	mov    %rdx,-0xc80(%rbp,%rax,8)
    7840:	ff 
    7841:	83 85 20 f1 ff ff 01 	addl   $0x1,-0xee0(%rbp)
    7848:	83 bd 20 f1 ff ff 00 	cmpl   $0x0,-0xee0(%rbp)
    784f:	7e cd                	jle    781e <func_44+0x11ce>
    7851:	83 85 1c f1 ff ff 01 	addl   $0x1,-0xee4(%rbp)
    7858:	83 bd 1c f1 ff ff 01 	cmpl   $0x1,-0xee4(%rbp)
    785f:	7e b1                	jle    7812 <func_44+0x11c2>
    7861:	8b 9d 38 f1 ff ff    	mov    -0xec8(%rbp),%ebx
    7867:	8b 85 38 f1 ff ff    	mov    -0xec8(%rbp),%eax
    786d:	44 0f b7 e0          	movzwl %ax,%r12d
    7871:	48 8b 85 70 f1 ff ff 	mov    -0xe90(%rbp),%rax
    7878:	8b 00                	mov    (%rax),%eax
    787a:	0f be d0             	movsbl %al,%edx
    787d:	48 8b 85 70 f1 ff ff 	mov    -0xe90(%rbp),%rax
    7884:	8b 00                	mov    (%rax),%eax
    7886:	85 c0                	test   %eax,%eax
    7888:	75 0b                	jne    7895 <func_44+0x1245>
    788a:	0f b6 85 dc f0 ff ff 	movzbl -0xf24(%rbp),%eax
    7891:	84 c0                	test   %al,%al
    7893:	74 07                	je     789c <func_44+0x124c>
    7895:	b8 01 00 00 00       	mov    $0x1,%eax
    789a:	eb 05                	jmp    78a1 <func_44+0x1251>
    789c:	b8 00 00 00 00       	mov    $0x0,%eax
    78a1:	0f be c0             	movsbl %al,%eax
    78a4:	89 d6                	mov    %edx,%esi
    78a6:	89 c7                	mov    %eax,%edi
    78a8:	e8 65 b9 ff ff       	callq  3212 <safe_mul_func_int8_t_s_s>
    78ad:	89 c2                	mov    %eax,%edx
    78af:	48 8b 05 72 8c 00 00 	mov    0x8c72(%rip),%rax        # 10528 <g_91>
    78b6:	48 8b 00             	mov    (%rax),%rax
    78b9:	66 0f be d2          	movsbw %dl,%dx
    78bd:	66 89 10             	mov    %dx,(%rax)
    78c0:	0f b7 00             	movzwl (%rax),%eax
    78c3:	0f bf d0             	movswl %ax,%edx
    78c6:	48 8b 05 63 8c 00 00 	mov    0x8c63(%rip),%rax        # 10530 <g_140>
    78cd:	0f b6 08             	movzbl (%rax),%ecx
    78d0:	83 bd 38 f1 ff ff 00 	cmpl   $0x0,-0xec8(%rbp)
    78d7:	0f 95 c0             	setne  %al
    78da:	0f b6 f0             	movzbl %al,%esi
    78dd:	8b 85 fc f0 ff ff    	mov    -0xf04(%rbp),%eax
    78e3:	21 f0                	and    %esi,%eax
    78e5:	89 85 fc f0 ff ff    	mov    %eax,-0xf04(%rbp)
    78eb:	8b b5 fc f0 ff ff    	mov    -0xf04(%rbp),%esi
    78f1:	48 8b 85 78 f1 ff ff 	mov    -0xe88(%rbp),%rax
    78f8:	40 88 30             	mov    %sil,(%rax)
    78fb:	0f b6 00             	movzbl (%rax),%eax
    78fe:	38 c1                	cmp    %al,%cl
    7900:	0f 95 c0             	setne  %al
    7903:	0f b6 c0             	movzbl %al,%eax
    7906:	39 c2                	cmp    %eax,%edx
    7908:	0f 9d c0             	setge  %al
    790b:	0f b6 c0             	movzbl %al,%eax
    790e:	44 89 e6             	mov    %r12d,%esi
    7911:	89 c7                	mov    %eax,%edi
    7913:	e8 e7 c3 ff ff       	callq  3cff <safe_add_func_uint16_t_u_u>
    7918:	0f b6 85 dc f0 ff ff 	movzbl -0xf24(%rbp),%eax
    791f:	0f b6 c0             	movzbl %al,%eax
    7922:	48 89 de             	mov    %rbx,%rsi
    7925:	48 89 c7             	mov    %rax,%rdi
    7928:	e8 14 bf ff ff       	callq  3841 <safe_add_func_int64_t_s_s>
    792d:	8b 15 15 87 00 00    	mov    0x8715(%rip),%edx        # 10048 <g_38>
    7933:	48 63 d2             	movslq %edx,%rdx
    7936:	48 39 d0             	cmp    %rdx,%rax
    7939:	0f 8f d0 2b 00 00    	jg     a50f <func_44+0x3ebf>
    793f:	48 8d 85 b0 f6 ff ff 	lea    -0x950(%rbp),%rax
    7946:	48 8d 15 b3 58 00 00 	lea    0x58b3(%rip),%rdx        # d200 <g_327+0x1a8>
    794d:	b9 30 00 00 00       	mov    $0x30,%ecx
    7952:	48 89 c7             	mov    %rax,%rdi
    7955:	48 89 d6             	mov    %rdx,%rsi
    7958:	f3 48 a5             	rep movsq %ds:(%rsi),%es:(%rdi)
    795b:	c7 85 08 f1 ff ff ff 	movl   $0xffffffff,-0xef8(%rbp)
    7962:	ff ff ff 
    7965:	c7 85 0c f1 ff ff 31 	movl   $0x12521b31,-0xef4(%rbp)
    796c:	1b 52 12 
    796f:	48 8d 85 e8 f0 ff ff 	lea    -0xf18(%rbp),%rax
    7976:	48 89 85 b0 f1 ff ff 	mov    %rax,-0xe50(%rbp)
    797d:	c7 85 24 f1 ff ff 2d 	movl   $0xc597ce2d,-0xedc(%rbp)
    7984:	ce 97 c5 
    7987:	48 8d 05 9a 8b 00 00 	lea    0x8b9a(%rip),%rax        # 10528 <g_91>
    798e:	48 89 85 08 f2 ff ff 	mov    %rax,-0xdf8(%rbp)
    7995:	48 8d 05 14 87 00 00 	lea    0x8714(%rip),%rax        # 100b0 <g_397>
    799c:	48 89 85 10 f2 ff ff 	mov    %rax,-0xdf0(%rbp)
    79a3:	c7 85 ec f0 ff ff 00 	movl   $0x0,-0xf14(%rbp)
    79aa:	00 00 00 
    79ad:	e9 4a 2b 00 00       	jmpq   a4fc <func_44+0x3eac>
    79b2:	48 c7 85 98 f1 ff ff 	movq   $0x0,-0xe68(%rbp)
    79b9:	00 00 00 00 
    79bd:	48 8d 85 98 f1 ff ff 	lea    -0xe68(%rbp),%rax
    79c4:	48 89 85 f0 f4 ff ff 	mov    %rax,-0xb10(%rbp)
    79cb:	48 8d 85 98 f1 ff ff 	lea    -0xe68(%rbp),%rax
    79d2:	48 89 85 f8 f4 ff ff 	mov    %rax,-0xb08(%rbp)
    79d9:	48 8d 85 98 f1 ff ff 	lea    -0xe68(%rbp),%rax
    79e0:	48 89 85 00 f5 ff ff 	mov    %rax,-0xb00(%rbp)
    79e7:	48 8d 85 98 f1 ff ff 	lea    -0xe68(%rbp),%rax
    79ee:	48 89 85 08 f5 ff ff 	mov    %rax,-0xaf8(%rbp)
    79f5:	48 8d 85 98 f1 ff ff 	lea    -0xe68(%rbp),%rax
    79fc:	48 89 85 10 f5 ff ff 	mov    %rax,-0xaf0(%rbp)
    7a03:	48 8d 85 98 f1 ff ff 	lea    -0xe68(%rbp),%rax
    7a0a:	48 89 85 18 f5 ff ff 	mov    %rax,-0xae8(%rbp)
    7a11:	48 8d 85 98 f1 ff ff 	lea    -0xe68(%rbp),%rax
    7a18:	48 89 85 20 f5 ff ff 	mov    %rax,-0xae0(%rbp)
    7a1f:	48 8d 85 98 f1 ff ff 	lea    -0xe68(%rbp),%rax
    7a26:	48 89 85 28 f5 ff ff 	mov    %rax,-0xad8(%rbp)
    7a2d:	48 8d 85 98 f1 ff ff 	lea    -0xe68(%rbp),%rax
    7a34:	48 89 85 30 f5 ff ff 	mov    %rax,-0xad0(%rbp)
    7a3b:	48 8d 85 98 f1 ff ff 	lea    -0xe68(%rbp),%rax
    7a42:	48 89 85 38 f5 ff ff 	mov    %rax,-0xac8(%rbp)
    7a49:	48 8d 85 98 f1 ff ff 	lea    -0xe68(%rbp),%rax
    7a50:	48 89 85 40 f5 ff ff 	mov    %rax,-0xac0(%rbp)
    7a57:	48 8d 85 98 f1 ff ff 	lea    -0xe68(%rbp),%rax
    7a5e:	48 89 85 48 f5 ff ff 	mov    %rax,-0xab8(%rbp)
    7a65:	48 8d 85 98 f1 ff ff 	lea    -0xe68(%rbp),%rax
    7a6c:	48 89 85 50 f5 ff ff 	mov    %rax,-0xab0(%rbp)
    7a73:	48 8d 85 98 f1 ff ff 	lea    -0xe68(%rbp),%rax
    7a7a:	48 89 85 58 f5 ff ff 	mov    %rax,-0xaa8(%rbp)
    7a81:	48 8d 85 98 f1 ff ff 	lea    -0xe68(%rbp),%rax
    7a88:	48 89 85 60 f5 ff ff 	mov    %rax,-0xaa0(%rbp)
    7a8f:	48 8d 85 98 f1 ff ff 	lea    -0xe68(%rbp),%rax
    7a96:	48 89 85 68 f5 ff ff 	mov    %rax,-0xa98(%rbp)
    7a9d:	48 8d 85 98 f1 ff ff 	lea    -0xe68(%rbp),%rax
    7aa4:	48 89 85 70 f5 ff ff 	mov    %rax,-0xa90(%rbp)
    7aab:	48 8d 85 98 f1 ff ff 	lea    -0xe68(%rbp),%rax
    7ab2:	48 89 85 78 f5 ff ff 	mov    %rax,-0xa88(%rbp)
    7ab9:	48 8d 85 98 f1 ff ff 	lea    -0xe68(%rbp),%rax
    7ac0:	48 89 85 80 f5 ff ff 	mov    %rax,-0xa80(%rbp)
    7ac7:	48 8d 85 98 f1 ff ff 	lea    -0xe68(%rbp),%rax
    7ace:	48 89 85 88 f5 ff ff 	mov    %rax,-0xa78(%rbp)
    7ad5:	48 8d 85 98 f1 ff ff 	lea    -0xe68(%rbp),%rax
    7adc:	48 89 85 90 f5 ff ff 	mov    %rax,-0xa70(%rbp)
    7ae3:	48 8d 85 98 f1 ff ff 	lea    -0xe68(%rbp),%rax
    7aea:	48 89 85 98 f5 ff ff 	mov    %rax,-0xa68(%rbp)
    7af1:	48 8d 85 98 f1 ff ff 	lea    -0xe68(%rbp),%rax
    7af8:	48 89 85 a0 f5 ff ff 	mov    %rax,-0xa60(%rbp)
    7aff:	48 8d 85 98 f1 ff ff 	lea    -0xe68(%rbp),%rax
    7b06:	48 89 85 a8 f5 ff ff 	mov    %rax,-0xa58(%rbp)
    7b0d:	48 8d 85 98 f1 ff ff 	lea    -0xe68(%rbp),%rax
    7b14:	48 89 85 b0 f5 ff ff 	mov    %rax,-0xa50(%rbp)
    7b1b:	48 8d 85 98 f1 ff ff 	lea    -0xe68(%rbp),%rax
    7b22:	48 89 85 b8 f5 ff ff 	mov    %rax,-0xa48(%rbp)
    7b29:	48 8d 85 98 f1 ff ff 	lea    -0xe68(%rbp),%rax
    7b30:	48 89 85 c0 f5 ff ff 	mov    %rax,-0xa40(%rbp)
    7b37:	48 8d 05 30 85 00 00 	lea    0x8530(%rip),%rax        # 1006e <g_160>
    7b3e:	48 89 85 18 f2 ff ff 	mov    %rax,-0xde8(%rbp)
    7b45:	c7 85 d0 f5 ff ff 01 	movl   $0x1,-0xa30(%rbp)
    7b4c:	00 00 00 
    7b4f:	c7 85 d4 f5 ff ff 01 	movl   $0x1,-0xa2c(%rbp)
    7b56:	00 00 00 
    7b59:	c7 85 d8 f5 ff ff 18 	movl   $0xac5e3818,-0xa28(%rbp)
    7b60:	38 5e ac 
    7b63:	c7 85 dc f5 ff ff 18 	movl   $0xac5e3818,-0xa24(%rbp)
    7b6a:	38 5e ac 
    7b6d:	c7 85 e0 f5 ff ff 01 	movl   $0x1,-0xa20(%rbp)
    7b74:	00 00 00 
    7b77:	c7 85 e4 f5 ff ff 01 	movl   $0x1,-0xa1c(%rbp)
    7b7e:	00 00 00 
    7b81:	c7 85 e8 f5 ff ff 18 	movl   $0xac5e3818,-0xa18(%rbp)
    7b88:	38 5e ac 
    7b8b:	c7 85 ec f5 ff ff 18 	movl   $0xac5e3818,-0xa14(%rbp)
    7b92:	38 5e ac 
    7b95:	c7 85 f0 f5 ff ff 01 	movl   $0x1,-0xa10(%rbp)
    7b9c:	00 00 00 
    7b9f:	c7 85 f4 f5 ff ff 01 	movl   $0x1,-0xa0c(%rbp)
    7ba6:	00 00 00 
    7ba9:	c7 85 f8 f5 ff ff 18 	movl   $0xac5e3818,-0xa08(%rbp)
    7bb0:	38 5e ac 
    7bb3:	c7 85 fc f5 ff ff 18 	movl   $0xac5e3818,-0xa04(%rbp)
    7bba:	38 5e ac 
    7bbd:	c7 85 00 f6 ff ff 01 	movl   $0x1,-0xa00(%rbp)
    7bc4:	00 00 00 
    7bc7:	c7 85 04 f6 ff ff 01 	movl   $0x1,-0x9fc(%rbp)
    7bce:	00 00 00 
    7bd1:	c7 85 08 f6 ff ff 18 	movl   $0xac5e3818,-0x9f8(%rbp)
    7bd8:	38 5e ac 
    7bdb:	c7 85 0c f6 ff ff 18 	movl   $0xac5e3818,-0x9f4(%rbp)
    7be2:	38 5e ac 
    7be5:	c7 85 10 f6 ff ff 01 	movl   $0x1,-0x9f0(%rbp)
    7bec:	00 00 00 
    7bef:	c7 85 14 f6 ff ff 01 	movl   $0x1,-0x9ec(%rbp)
    7bf6:	00 00 00 
    7bf9:	c7 85 18 f6 ff ff 18 	movl   $0xac5e3818,-0x9e8(%rbp)
    7c00:	38 5e ac 
    7c03:	c7 85 1c f6 ff ff 18 	movl   $0xac5e3818,-0x9e4(%rbp)
    7c0a:	38 5e ac 
    7c0d:	c7 85 20 f6 ff ff 01 	movl   $0x1,-0x9e0(%rbp)
    7c14:	00 00 00 
    7c17:	c7 85 24 f6 ff ff 01 	movl   $0x1,-0x9dc(%rbp)
    7c1e:	00 00 00 
    7c21:	c7 85 28 f6 ff ff 18 	movl   $0xac5e3818,-0x9d8(%rbp)
    7c28:	38 5e ac 
    7c2b:	c7 85 2c f6 ff ff 18 	movl   $0xac5e3818,-0x9d4(%rbp)
    7c32:	38 5e ac 
    7c35:	c7 85 30 f6 ff ff 01 	movl   $0x1,-0x9d0(%rbp)
    7c3c:	00 00 00 
    7c3f:	c7 85 34 f6 ff ff 01 	movl   $0x1,-0x9cc(%rbp)
    7c46:	00 00 00 
    7c49:	c7 85 38 f6 ff ff 18 	movl   $0xac5e3818,-0x9c8(%rbp)
    7c50:	38 5e ac 
    7c53:	c7 85 3c f6 ff ff 18 	movl   $0xac5e3818,-0x9c4(%rbp)
    7c5a:	38 5e ac 
    7c5d:	c7 85 40 f6 ff ff 01 	movl   $0x1,-0x9c0(%rbp)
    7c64:	00 00 00 
    7c67:	c7 85 44 f6 ff ff 01 	movl   $0x1,-0x9bc(%rbp)
    7c6e:	00 00 00 
    7c71:	c7 85 48 f6 ff ff 18 	movl   $0xac5e3818,-0x9b8(%rbp)
    7c78:	38 5e ac 
    7c7b:	c7 85 4c f6 ff ff 18 	movl   $0xac5e3818,-0x9b4(%rbp)
    7c82:	38 5e ac 
    7c85:	c7 85 50 f6 ff ff 01 	movl   $0x1,-0x9b0(%rbp)
    7c8c:	00 00 00 
    7c8f:	c7 85 54 f6 ff ff 01 	movl   $0x1,-0x9ac(%rbp)
    7c96:	00 00 00 
    7c99:	c7 85 58 f6 ff ff 18 	movl   $0xac5e3818,-0x9a8(%rbp)
    7ca0:	38 5e ac 
    7ca3:	c7 85 5c f6 ff ff 18 	movl   $0xac5e3818,-0x9a4(%rbp)
    7caa:	38 5e ac 
    7cad:	c7 85 60 f6 ff ff 01 	movl   $0x1,-0x9a0(%rbp)
    7cb4:	00 00 00 
    7cb7:	c7 85 64 f6 ff ff 01 	movl   $0x1,-0x99c(%rbp)
    7cbe:	00 00 00 
    7cc1:	c7 85 68 f6 ff ff 18 	movl   $0xac5e3818,-0x998(%rbp)
    7cc8:	38 5e ac 
    7ccb:	c7 85 6c f6 ff ff 18 	movl   $0xac5e3818,-0x994(%rbp)
    7cd2:	38 5e ac 
    7cd5:	c7 85 70 f6 ff ff 01 	movl   $0x1,-0x990(%rbp)
    7cdc:	00 00 00 
    7cdf:	c7 85 74 f6 ff ff 01 	movl   $0x1,-0x98c(%rbp)
    7ce6:	00 00 00 
    7ce9:	c7 85 78 f6 ff ff 18 	movl   $0xac5e3818,-0x988(%rbp)
    7cf0:	38 5e ac 
    7cf3:	c7 85 7c f6 ff ff 18 	movl   $0xac5e3818,-0x984(%rbp)
    7cfa:	38 5e ac 
    7cfd:	c7 85 80 f6 ff ff 01 	movl   $0x1,-0x980(%rbp)
    7d04:	00 00 00 
    7d07:	c7 85 84 f6 ff ff 01 	movl   $0x1,-0x97c(%rbp)
    7d0e:	00 00 00 
    7d11:	c7 85 88 f6 ff ff 18 	movl   $0xac5e3818,-0x978(%rbp)
    7d18:	38 5e ac 
    7d1b:	c7 85 8c f6 ff ff 18 	movl   $0xac5e3818,-0x974(%rbp)
    7d22:	38 5e ac 
    7d25:	c7 85 90 f6 ff ff 01 	movl   $0x1,-0x970(%rbp)
    7d2c:	00 00 00 
    7d2f:	c7 85 94 f6 ff ff 01 	movl   $0x1,-0x96c(%rbp)
    7d36:	00 00 00 
    7d39:	c7 85 98 f6 ff ff 18 	movl   $0xac5e3818,-0x968(%rbp)
    7d40:	38 5e ac 
    7d43:	c7 85 9c f6 ff ff 18 	movl   $0xac5e3818,-0x964(%rbp)
    7d4a:	38 5e ac 
    7d4d:	c7 85 a0 f6 ff ff 01 	movl   $0x1,-0x960(%rbp)
    7d54:	00 00 00 
    7d57:	c7 85 a4 f6 ff ff 01 	movl   $0x1,-0x95c(%rbp)
    7d5e:	00 00 00 
    7d61:	c7 85 a8 f6 ff ff 18 	movl   $0xac5e3818,-0x958(%rbp)
    7d68:	38 5e ac 
    7d6b:	c7 85 ac f6 ff ff 18 	movl   $0xac5e3818,-0x954(%rbp)
    7d72:	38 5e ac 
    7d75:	48 8d 85 78 f1 ff ff 	lea    -0xe88(%rbp),%rax
    7d7c:	48 89 85 20 f2 ff ff 	mov    %rax,-0xde0(%rbp)
    7d83:	c7 85 10 f1 ff ff 26 	movl   $0x2eb42526,-0xef0(%rbp)
    7d8a:	25 b4 2e 
    7d8d:	48 8d 05 3c 83 00 00 	lea    0x833c(%rip),%rax        # 100d0 <g_407>
    7d94:	48 89 85 a0 f1 ff ff 	mov    %rax,-0xe60(%rbp)
    7d9b:	48 8d 85 a0 f1 ff ff 	lea    -0xe60(%rbp),%rax
    7da2:	48 89 85 28 f2 ff ff 	mov    %rax,-0xdd8(%rbp)
    7da9:	48 c7 85 30 f2 ff ff 	movq   $0x0,-0xdd0(%rbp)
    7db0:	00 00 00 00 
    7db4:	48 8d 05 89 82 00 00 	lea    0x8289(%rip),%rax        # 10044 <g_19>
    7dbb:	48 89 85 90 f3 ff ff 	mov    %rax,-0xc70(%rbp)
    7dc2:	48 8d 05 7b 82 00 00 	lea    0x827b(%rip),%rax        # 10044 <g_19>
    7dc9:	48 89 85 98 f3 ff ff 	mov    %rax,-0xc68(%rbp)
    7dd0:	48 8d 05 6d 82 00 00 	lea    0x826d(%rip),%rax        # 10044 <g_19>
    7dd7:	48 89 85 a0 f3 ff ff 	mov    %rax,-0xc60(%rbp)
    7dde:	48 8d 05 5f 82 00 00 	lea    0x825f(%rip),%rax        # 10044 <g_19>
    7de5:	48 89 85 a8 f3 ff ff 	mov    %rax,-0xc58(%rbp)
    7dec:	66 c7 85 e4 f0 ff ff 	movw   $0x8300,-0xf1c(%rbp)
    7df3:	00 83 
    7df5:	c7 85 54 f1 ff ff 00 	movl   $0x0,-0xeac(%rbp)
    7dfc:	00 00 00 
    7dff:	8b 85 ec f0 ff ff    	mov    -0xf14(%rbp),%eax
    7e05:	8d 50 07             	lea    0x7(%rax),%edx
    7e08:	8b 85 ec f0 ff ff    	mov    -0xf14(%rbp),%eax
    7e0e:	83 c0 07             	add    $0x7,%eax
    7e11:	48 63 d2             	movslq %edx,%rdx
    7e14:	48 8b 8c d5 10 f4 ff 	mov    -0xbf0(%rbp,%rdx,8),%rcx
    7e1b:	ff 
    7e1c:	48 63 d0             	movslq %eax,%rdx
    7e1f:	48 89 8c d5 10 f4 ff 	mov    %rcx,-0xbf0(%rbp,%rdx,8)
    7e26:	ff 
    7e27:	48 98                	cltq   
    7e29:	48 8b 84 c5 10 f4 ff 	mov    -0xbf0(%rbp,%rax,8),%rax
    7e30:	ff 
    7e31:	48 89 85 c8 f1 ff ff 	mov    %rax,-0xe38(%rbp)
    7e38:	48 8d 85 dc f0 ff ff 	lea    -0xf24(%rbp),%rax
    7e3f:	48 39 85 c8 f1 ff ff 	cmp    %rax,-0xe38(%rbp)
    7e46:	0f 95 c0             	setne  %al
    7e49:	44 0f b6 e8          	movzbl %al,%r13d
    7e4d:	48 8b 05 dc 86 00 00 	mov    0x86dc(%rip),%rax        # 10530 <g_140>
    7e54:	0f b6 00             	movzbl (%rax),%eax
    7e57:	0f b6 d8             	movzbl %al,%ebx
    7e5a:	0f b7 05 ef 81 00 00 	movzwl 0x81ef(%rip),%eax        # 10050 <g_69>
    7e61:	44 0f bf e0          	movswl %ax,%r12d
    7e65:	0f b7 05 02 82 00 00 	movzwl 0x8202(%rip),%eax        # 1006e <g_160>
    7e6c:	66 85 c0             	test   %ax,%ax
    7e6f:	74 5f                	je     7ed0 <func_44+0x1880>
    7e71:	8b 05 15 82 00 00    	mov    0x8215(%rip),%eax        # 1008c <g_251+0x4>
    7e77:	25 ff ff 7f 00       	and    $0x7fffff,%eax
    7e7c:	89 c6                	mov    %eax,%esi
    7e7e:	48 8b 85 18 f2 ff ff 	mov    -0xde8(%rbp),%rax
    7e85:	0f b7 00             	movzwl (%rax),%eax
    7e88:	8d 48 01             	lea    0x1(%rax),%ecx
    7e8b:	48 8b 95 18 f2 ff ff 	mov    -0xde8(%rbp),%rdx
    7e92:	66 89 0a             	mov    %cx,(%rdx)
    7e95:	66 89 05 e4 81 00 00 	mov    %ax,0x81e4(%rip)        # 10080 <g_218>
    7e9c:	b9 00 00 00 00       	mov    $0x0,%ecx
    7ea1:	48 8b 85 70 f1 ff ff 	mov    -0xe90(%rbp),%rax
    7ea8:	8b 10                	mov    (%rax),%edx
    7eaa:	48 8b 85 70 f1 ff ff 	mov    -0xe90(%rbp),%rax
    7eb1:	21 ca                	and    %ecx,%edx
    7eb3:	89 10                	mov    %edx,(%rax)
    7eb5:	8b 10                	mov    (%rax),%edx
    7eb7:	b8 65 00 00 00       	mov    $0x65,%eax
    7ebc:	0f b6 c0             	movzbl %al,%eax
    7ebf:	39 c2                	cmp    %eax,%edx
    7ec1:	0f 9e c0             	setle  %al
    7ec4:	0f b6 c0             	movzbl %al,%eax
    7ec7:	89 c7                	mov    %eax,%edi
    7ec9:	e8 57 c0 ff ff       	callq  3f25 <safe_div_func_uint32_t_u_u>
    7ece:	85 c0                	test   %eax,%eax
    7ed0:	44 89 e6             	mov    %r12d,%esi
    7ed3:	bf 01 00 00 00       	mov    $0x1,%edi
    7ed8:	e8 ef b7 ff ff       	callq  36cc <safe_mod_func_int32_t_s_s>
    7edd:	0f b6 c0             	movzbl %al,%eax
    7ee0:	89 de                	mov    %ebx,%esi
    7ee2:	89 c7                	mov    %eax,%edi
    7ee4:	e8 8f bc ff ff       	callq  3b78 <safe_sub_func_uint8_t_u_u>
    7ee9:	0f b6 c0             	movzbl %al,%eax
    7eec:	41 39 c5             	cmp    %eax,%r13d
    7eef:	0f 84 af 10 00 00    	je     8fa4 <func_44+0x2954>
    7ef5:	48 8d 05 4c 92 00 00 	lea    0x924c(%rip),%rax        # 11148 <g_41>
    7efc:	48 89 85 d0 f2 ff ff 	mov    %rax,-0xd30(%rbp)
    7f03:	48 c7 85 d8 f2 ff ff 	movq   $0x0,-0xd28(%rbp)
    7f0a:	00 00 00 00 
    7f0e:	48 8d 05 33 92 00 00 	lea    0x9233(%rip),%rax        # 11148 <g_41>
    7f15:	48 89 85 e0 f2 ff ff 	mov    %rax,-0xd20(%rbp)
    7f1c:	48 8d 85 fc f0 ff ff 	lea    -0xf04(%rbp),%rax
    7f23:	48 89 85 30 f8 ff ff 	mov    %rax,-0x7d0(%rbp)
    7f2a:	48 8d 05 0f 81 00 00 	lea    0x810f(%rip),%rax        # 10040 <g_6>
    7f31:	48 89 85 38 f8 ff ff 	mov    %rax,-0x7c8(%rbp)
    7f38:	48 c7 85 40 f8 ff ff 	movq   $0x0,-0x7c0(%rbp)
    7f3f:	00 00 00 00 
    7f43:	48 c7 85 48 f8 ff ff 	movq   $0x0,-0x7b8(%rbp)
    7f4a:	00 00 00 00 
    7f4e:	48 8d 85 ec f0 ff ff 	lea    -0xf14(%rbp),%rax
    7f55:	48 89 85 50 f8 ff ff 	mov    %rax,-0x7b0(%rbp)
    7f5c:	48 8d 85 ec f0 ff ff 	lea    -0xf14(%rbp),%rax
    7f63:	48 89 85 58 f8 ff ff 	mov    %rax,-0x7a8(%rbp)
    7f6a:	48 8d 85 d0 f5 ff ff 	lea    -0xa30(%rbp),%rax
    7f71:	48 83 c0 2c          	add    $0x2c,%rax
    7f75:	48 89 85 60 f8 ff ff 	mov    %rax,-0x7a0(%rbp)
    7f7c:	48 8d 85 ec f0 ff ff 	lea    -0xf14(%rbp),%rax
    7f83:	48 89 85 68 f8 ff ff 	mov    %rax,-0x798(%rbp)
    7f8a:	48 8d 05 b7 91 00 00 	lea    0x91b7(%rip),%rax        # 11148 <g_41>
    7f91:	48 89 85 70 f8 ff ff 	mov    %rax,-0x790(%rbp)
    7f98:	48 8d 05 a9 91 00 00 	lea    0x91a9(%rip),%rax        # 11148 <g_41>
    7f9f:	48 89 85 78 f8 ff ff 	mov    %rax,-0x788(%rbp)
    7fa6:	48 8d 85 ec f0 ff ff 	lea    -0xf14(%rbp),%rax
    7fad:	48 89 85 80 f8 ff ff 	mov    %rax,-0x780(%rbp)
    7fb4:	48 8d 85 fc f0 ff ff 	lea    -0xf04(%rbp),%rax
    7fbb:	48 89 85 88 f8 ff ff 	mov    %rax,-0x778(%rbp)
    7fc2:	48 8d 85 d0 f5 ff ff 	lea    -0xa30(%rbp),%rax
    7fc9:	48 83 c0 2c          	add    $0x2c,%rax
    7fcd:	48 89 85 90 f8 ff ff 	mov    %rax,-0x770(%rbp)
    7fd4:	48 8d 85 e8 f0 ff ff 	lea    -0xf18(%rbp),%rax
    7fdb:	48 89 85 98 f8 ff ff 	mov    %rax,-0x768(%rbp)
    7fe2:	48 8d 85 fc f0 ff ff 	lea    -0xf04(%rbp),%rax
    7fe9:	48 89 85 a0 f8 ff ff 	mov    %rax,-0x760(%rbp)
    7ff0:	48 c7 85 a8 f8 ff ff 	movq   $0x0,-0x758(%rbp)
    7ff7:	00 00 00 00 
    7ffb:	48 8d 85 fc f0 ff ff 	lea    -0xf04(%rbp),%rax
    8002:	48 89 85 b0 f8 ff ff 	mov    %rax,-0x750(%rbp)
    8009:	48 8d 85 d0 f5 ff ff 	lea    -0xa30(%rbp),%rax
    8010:	48 83 c0 2c          	add    $0x2c,%rax
    8014:	48 89 85 b8 f8 ff ff 	mov    %rax,-0x748(%rbp)
    801b:	48 8d 85 fc f0 ff ff 	lea    -0xf04(%rbp),%rax
    8022:	48 89 85 c0 f8 ff ff 	mov    %rax,-0x740(%rbp)
    8029:	48 8d 85 fc f0 ff ff 	lea    -0xf04(%rbp),%rax
    8030:	48 89 85 c8 f8 ff ff 	mov    %rax,-0x738(%rbp)
    8037:	48 c7 85 d0 f8 ff ff 	movq   $0x0,-0x730(%rbp)
    803e:	00 00 00 00 
    8042:	48 8d 85 ec f0 ff ff 	lea    -0xf14(%rbp),%rax
    8049:	48 89 85 d8 f8 ff ff 	mov    %rax,-0x728(%rbp)
    8050:	48 8d 05 f1 90 00 00 	lea    0x90f1(%rip),%rax        # 11148 <g_41>
    8057:	48 89 85 e0 f8 ff ff 	mov    %rax,-0x720(%rbp)
    805e:	48 8d 85 fc f0 ff ff 	lea    -0xf04(%rbp),%rax
    8065:	48 89 85 e8 f8 ff ff 	mov    %rax,-0x718(%rbp)
    806c:	48 8d 05 d5 90 00 00 	lea    0x90d5(%rip),%rax        # 11148 <g_41>
    8073:	48 89 85 f0 f8 ff ff 	mov    %rax,-0x710(%rbp)
    807a:	48 c7 85 f8 f8 ff ff 	movq   $0x0,-0x708(%rbp)
    8081:	00 00 00 00 
    8085:	48 8d 85 d0 f5 ff ff 	lea    -0xa30(%rbp),%rax
    808c:	48 83 c0 2c          	add    $0x2c,%rax
    8090:	48 89 85 00 f9 ff ff 	mov    %rax,-0x700(%rbp)
    8097:	48 8d 85 d0 f5 ff ff 	lea    -0xa30(%rbp),%rax
    809e:	48 83 c0 2c          	add    $0x2c,%rax
    80a2:	48 89 85 08 f9 ff ff 	mov    %rax,-0x6f8(%rbp)
    80a9:	48 8d 05 98 90 00 00 	lea    0x9098(%rip),%rax        # 11148 <g_41>
    80b0:	48 89 85 10 f9 ff ff 	mov    %rax,-0x6f0(%rbp)
    80b7:	48 8d 85 fc f0 ff ff 	lea    -0xf04(%rbp),%rax
    80be:	48 89 85 18 f9 ff ff 	mov    %rax,-0x6e8(%rbp)
    80c5:	48 8d 85 d0 f5 ff ff 	lea    -0xa30(%rbp),%rax
    80cc:	48 05 c8 00 00 00    	add    $0xc8,%rax
    80d2:	48 89 85 20 f9 ff ff 	mov    %rax,-0x6e0(%rbp)
    80d9:	48 c7 85 28 f9 ff ff 	movq   $0x0,-0x6d8(%rbp)
    80e0:	00 00 00 00 
    80e4:	48 c7 85 30 f9 ff ff 	movq   $0x0,-0x6d0(%rbp)
    80eb:	00 00 00 00 
    80ef:	48 c7 85 38 f9 ff ff 	movq   $0x0,-0x6c8(%rbp)
    80f6:	00 00 00 00 
    80fa:	48 8d 85 d0 f5 ff ff 	lea    -0xa30(%rbp),%rax
    8101:	48 83 c0 2c          	add    $0x2c,%rax
    8105:	48 89 85 40 f9 ff ff 	mov    %rax,-0x6c0(%rbp)
    810c:	48 8d 85 d0 f5 ff ff 	lea    -0xa30(%rbp),%rax
    8113:	48 83 c0 2c          	add    $0x2c,%rax
    8117:	48 89 85 48 f9 ff ff 	mov    %rax,-0x6b8(%rbp)
    811e:	48 c7 85 50 f9 ff ff 	movq   $0x0,-0x6b0(%rbp)
    8125:	00 00 00 00 
    8129:	48 c7 85 58 f9 ff ff 	movq   $0x0,-0x6a8(%rbp)
    8130:	00 00 00 00 
    8134:	48 8d 85 fc f0 ff ff 	lea    -0xf04(%rbp),%rax
    813b:	48 89 85 60 f9 ff ff 	mov    %rax,-0x6a0(%rbp)
    8142:	48 8d 85 ec f0 ff ff 	lea    -0xf14(%rbp),%rax
    8149:	48 89 85 68 f9 ff ff 	mov    %rax,-0x698(%rbp)
    8150:	48 8d 85 d0 f5 ff ff 	lea    -0xa30(%rbp),%rax
    8157:	48 83 c0 2c          	add    $0x2c,%rax
    815b:	48 89 85 70 f9 ff ff 	mov    %rax,-0x690(%rbp)
    8162:	48 8d 85 fc f0 ff ff 	lea    -0xf04(%rbp),%rax
    8169:	48 89 85 78 f9 ff ff 	mov    %rax,-0x688(%rbp)
    8170:	48 8d 05 d1 8f 00 00 	lea    0x8fd1(%rip),%rax        # 11148 <g_41>
    8177:	48 89 85 80 f9 ff ff 	mov    %rax,-0x680(%rbp)
    817e:	48 8d 05 c3 8f 00 00 	lea    0x8fc3(%rip),%rax        # 11148 <g_41>
    8185:	48 89 85 88 f9 ff ff 	mov    %rax,-0x678(%rbp)
    818c:	48 8d 05 b5 8f 00 00 	lea    0x8fb5(%rip),%rax        # 11148 <g_41>
    8193:	48 89 85 90 f9 ff ff 	mov    %rax,-0x670(%rbp)
    819a:	48 8d 85 fc f0 ff ff 	lea    -0xf04(%rbp),%rax
    81a1:	48 89 85 98 f9 ff ff 	mov    %rax,-0x668(%rbp)
    81a8:	48 8d 85 d0 f5 ff ff 	lea    -0xa30(%rbp),%rax
    81af:	48 83 c0 2c          	add    $0x2c,%rax
    81b3:	48 89 85 a0 f9 ff ff 	mov    %rax,-0x660(%rbp)
    81ba:	48 8d 85 ec f0 ff ff 	lea    -0xf14(%rbp),%rax
    81c1:	48 89 85 a8 f9 ff ff 	mov    %rax,-0x658(%rbp)
    81c8:	48 8d 85 fc f0 ff ff 	lea    -0xf04(%rbp),%rax
    81cf:	48 89 85 b0 f9 ff ff 	mov    %rax,-0x650(%rbp)
    81d6:	48 c7 85 b8 f9 ff ff 	movq   $0x0,-0x648(%rbp)
    81dd:	00 00 00 00 
    81e1:	48 c7 85 c0 f9 ff ff 	movq   $0x0,-0x640(%rbp)
    81e8:	00 00 00 00 
    81ec:	48 8d 85 d0 f5 ff ff 	lea    -0xa30(%rbp),%rax
    81f3:	48 83 c0 2c          	add    $0x2c,%rax
    81f7:	48 89 85 c8 f9 ff ff 	mov    %rax,-0x638(%rbp)
    81fe:	48 8d 85 d0 f5 ff ff 	lea    -0xa30(%rbp),%rax
    8205:	48 83 c0 2c          	add    $0x2c,%rax
    8209:	48 89 85 d0 f9 ff ff 	mov    %rax,-0x630(%rbp)
    8210:	48 c7 85 d8 f9 ff ff 	movq   $0x0,-0x628(%rbp)
    8217:	00 00 00 00 
    821b:	48 c7 85 e0 f9 ff ff 	movq   $0x0,-0x620(%rbp)
    8222:	00 00 00 00 
    8226:	48 c7 85 e8 f9 ff ff 	movq   $0x0,-0x618(%rbp)
    822d:	00 00 00 00 
    8231:	48 8d 85 d0 f5 ff ff 	lea    -0xa30(%rbp),%rax
    8238:	48 05 c8 00 00 00    	add    $0xc8,%rax
    823e:	48 89 85 f0 f9 ff ff 	mov    %rax,-0x610(%rbp)
    8245:	48 8d 85 fc f0 ff ff 	lea    -0xf04(%rbp),%rax
    824c:	48 89 85 f8 f9 ff ff 	mov    %rax,-0x608(%rbp)
    8253:	48 8d 05 ee 8e 00 00 	lea    0x8eee(%rip),%rax        # 11148 <g_41>
    825a:	48 89 85 00 fa ff ff 	mov    %rax,-0x600(%rbp)
    8261:	48 8d 85 d0 f5 ff ff 	lea    -0xa30(%rbp),%rax
    8268:	48 83 c0 2c          	add    $0x2c,%rax
    826c:	48 89 85 08 fa ff ff 	mov    %rax,-0x5f8(%rbp)
    8273:	48 8d 85 d0 f5 ff ff 	lea    -0xa30(%rbp),%rax
    827a:	48 83 c0 2c          	add    $0x2c,%rax
    827e:	48 89 85 10 fa ff ff 	mov    %rax,-0x5f0(%rbp)
    8285:	48 c7 85 18 fa ff ff 	movq   $0x0,-0x5e8(%rbp)
    828c:	00 00 00 00 
    8290:	48 8d 05 b1 8e 00 00 	lea    0x8eb1(%rip),%rax        # 11148 <g_41>
    8297:	48 89 85 20 fa ff ff 	mov    %rax,-0x5e0(%rbp)
    829e:	48 8d 85 fc f0 ff ff 	lea    -0xf04(%rbp),%rax
    82a5:	48 89 85 28 fa ff ff 	mov    %rax,-0x5d8(%rbp)
    82ac:	48 8d 05 95 8e 00 00 	lea    0x8e95(%rip),%rax        # 11148 <g_41>
    82b3:	48 89 85 30 fa ff ff 	mov    %rax,-0x5d0(%rbp)
    82ba:	48 8d 85 ec f0 ff ff 	lea    -0xf14(%rbp),%rax
    82c1:	48 89 85 38 fa ff ff 	mov    %rax,-0x5c8(%rbp)
    82c8:	48 c7 85 40 fa ff ff 	movq   $0x0,-0x5c0(%rbp)
    82cf:	00 00 00 00 
    82d3:	48 8d 85 fc f0 ff ff 	lea    -0xf04(%rbp),%rax
    82da:	48 89 85 48 fa ff ff 	mov    %rax,-0x5b8(%rbp)
    82e1:	48 8d 85 fc f0 ff ff 	lea    -0xf04(%rbp),%rax
    82e8:	48 89 85 50 fa ff ff 	mov    %rax,-0x5b0(%rbp)
    82ef:	48 8d 85 d0 f5 ff ff 	lea    -0xa30(%rbp),%rax
    82f6:	48 83 c0 2c          	add    $0x2c,%rax
    82fa:	48 89 85 58 fa ff ff 	mov    %rax,-0x5a8(%rbp)
    8301:	48 8d 85 fc f0 ff ff 	lea    -0xf04(%rbp),%rax
    8308:	48 89 85 60 fa ff ff 	mov    %rax,-0x5a0(%rbp)
    830f:	48 c7 85 68 fa ff ff 	movq   $0x0,-0x598(%rbp)
    8316:	00 00 00 00 
    831a:	48 8d 85 fc f0 ff ff 	lea    -0xf04(%rbp),%rax
    8321:	48 89 85 70 fa ff ff 	mov    %rax,-0x590(%rbp)
    8328:	48 8d 85 e8 f0 ff ff 	lea    -0xf18(%rbp),%rax
    832f:	48 89 85 78 fa ff ff 	mov    %rax,-0x588(%rbp)
    8336:	48 8d 85 d0 f5 ff ff 	lea    -0xa30(%rbp),%rax
    833d:	48 83 c0 2c          	add    $0x2c,%rax
    8341:	48 89 85 80 fa ff ff 	mov    %rax,-0x580(%rbp)
    8348:	48 8d 85 fc f0 ff ff 	lea    -0xf04(%rbp),%rax
    834f:	48 89 85 88 fa ff ff 	mov    %rax,-0x578(%rbp)
    8356:	48 8d 85 ec f0 ff ff 	lea    -0xf14(%rbp),%rax
    835d:	48 89 85 90 fa ff ff 	mov    %rax,-0x570(%rbp)
    8364:	48 8d 05 dd 8d 00 00 	lea    0x8ddd(%rip),%rax        # 11148 <g_41>
    836b:	48 89 85 98 fa ff ff 	mov    %rax,-0x568(%rbp)
    8372:	48 8d 05 cf 8d 00 00 	lea    0x8dcf(%rip),%rax        # 11148 <g_41>
    8379:	48 89 85 a0 fa ff ff 	mov    %rax,-0x560(%rbp)
    8380:	48 8d 85 ec f0 ff ff 	lea    -0xf14(%rbp),%rax
    8387:	48 89 85 a8 fa ff ff 	mov    %rax,-0x558(%rbp)
    838e:	48 8d 85 d0 f5 ff ff 	lea    -0xa30(%rbp),%rax
    8395:	48 83 c0 2c          	add    $0x2c,%rax
    8399:	48 89 85 b0 fa ff ff 	mov    %rax,-0x550(%rbp)
    83a0:	48 8d 85 ec f0 ff ff 	lea    -0xf14(%rbp),%rax
    83a7:	48 89 85 b8 fa ff ff 	mov    %rax,-0x548(%rbp)
    83ae:	48 8d 85 ec f0 ff ff 	lea    -0xf14(%rbp),%rax
    83b5:	48 89 85 c0 fa ff ff 	mov    %rax,-0x540(%rbp)
    83bc:	48 c7 85 c8 fa ff ff 	movq   $0x0,-0x538(%rbp)
    83c3:	00 00 00 00 
    83c7:	48 c7 85 d0 fa ff ff 	movq   $0x0,-0x530(%rbp)
    83ce:	00 00 00 00 
    83d2:	48 8d 05 67 7c 00 00 	lea    0x7c67(%rip),%rax        # 10040 <g_6>
    83d9:	48 89 85 d8 fa ff ff 	mov    %rax,-0x528(%rbp)
    83e0:	48 8d 85 fc f0 ff ff 	lea    -0xf04(%rbp),%rax
    83e7:	48 89 85 e0 fa ff ff 	mov    %rax,-0x520(%rbp)
    83ee:	48 c7 85 e8 fa ff ff 	movq   $0x0,-0x518(%rbp)
    83f5:	00 00 00 00 
    83f9:	48 8d 85 fc f0 ff ff 	lea    -0xf04(%rbp),%rax
    8400:	48 89 85 f0 fa ff ff 	mov    %rax,-0x510(%rbp)
    8407:	48 8d 85 ec f0 ff ff 	lea    -0xf14(%rbp),%rax
    840e:	48 89 85 f8 fa ff ff 	mov    %rax,-0x508(%rbp)
    8415:	48 8d 85 d0 f5 ff ff 	lea    -0xa30(%rbp),%rax
    841c:	48 05 c8 00 00 00    	add    $0xc8,%rax
    8422:	48 89 85 00 fb ff ff 	mov    %rax,-0x500(%rbp)
    8429:	48 8d 85 d0 f5 ff ff 	lea    -0xa30(%rbp),%rax
    8430:	48 83 c0 2c          	add    $0x2c,%rax
    8434:	48 89 85 08 fb ff ff 	mov    %rax,-0x4f8(%rbp)
    843b:	48 8d 05 06 8d 00 00 	lea    0x8d06(%rip),%rax        # 11148 <g_41>
    8442:	48 89 85 10 fb ff ff 	mov    %rax,-0x4f0(%rbp)
    8449:	48 8d 85 d0 f5 ff ff 	lea    -0xa30(%rbp),%rax
    8450:	48 83 c0 2c          	add    $0x2c,%rax
    8454:	48 89 85 18 fb ff ff 	mov    %rax,-0x4e8(%rbp)
    845b:	48 8d 05 de 7b 00 00 	lea    0x7bde(%rip),%rax        # 10040 <g_6>
    8462:	48 89 85 20 fb ff ff 	mov    %rax,-0x4e0(%rbp)
    8469:	48 8d 85 d0 f5 ff ff 	lea    -0xa30(%rbp),%rax
    8470:	48 83 c0 2c          	add    $0x2c,%rax
    8474:	48 89 85 28 fb ff ff 	mov    %rax,-0x4d8(%rbp)
    847b:	48 8d 05 c6 8c 00 00 	lea    0x8cc6(%rip),%rax        # 11148 <g_41>
    8482:	48 89 85 30 fb ff ff 	mov    %rax,-0x4d0(%rbp)
    8489:	48 8d 85 d0 f5 ff ff 	lea    -0xa30(%rbp),%rax
    8490:	48 83 c0 2c          	add    $0x2c,%rax
    8494:	48 89 85 38 fb ff ff 	mov    %rax,-0x4c8(%rbp)
    849b:	48 8d 85 d0 f5 ff ff 	lea    -0xa30(%rbp),%rax
    84a2:	48 05 c8 00 00 00    	add    $0xc8,%rax
    84a8:	48 89 85 40 fb ff ff 	mov    %rax,-0x4c0(%rbp)
    84af:	48 8d 85 ec f0 ff ff 	lea    -0xf14(%rbp),%rax
    84b6:	48 89 85 48 fb ff ff 	mov    %rax,-0x4b8(%rbp)
    84bd:	48 8d 85 fc f0 ff ff 	lea    -0xf04(%rbp),%rax
    84c4:	48 89 85 50 fb ff ff 	mov    %rax,-0x4b0(%rbp)
    84cb:	48 c7 85 58 fb ff ff 	movq   $0x0,-0x4a8(%rbp)
    84d2:	00 00 00 00 
    84d6:	48 8d 85 fc f0 ff ff 	lea    -0xf04(%rbp),%rax
    84dd:	48 89 85 60 fb ff ff 	mov    %rax,-0x4a0(%rbp)
    84e4:	48 8d 05 55 7b 00 00 	lea    0x7b55(%rip),%rax        # 10040 <g_6>
    84eb:	48 89 85 68 fb ff ff 	mov    %rax,-0x498(%rbp)
    84f2:	48 c7 85 70 fb ff ff 	movq   $0x0,-0x490(%rbp)
    84f9:	00 00 00 00 
    84fd:	48 c7 85 78 fb ff ff 	movq   $0x0,-0x488(%rbp)
    8504:	00 00 00 00 
    8508:	48 8d 85 ec f0 ff ff 	lea    -0xf14(%rbp),%rax
    850f:	48 89 85 80 fb ff ff 	mov    %rax,-0x480(%rbp)
    8516:	48 8d 85 ec f0 ff ff 	lea    -0xf14(%rbp),%rax
    851d:	48 89 85 88 fb ff ff 	mov    %rax,-0x478(%rbp)
    8524:	48 8d 85 d0 f5 ff ff 	lea    -0xa30(%rbp),%rax
    852b:	48 83 c0 2c          	add    $0x2c,%rax
    852f:	48 89 85 90 fb ff ff 	mov    %rax,-0x470(%rbp)
    8536:	48 8d 85 ec f0 ff ff 	lea    -0xf14(%rbp),%rax
    853d:	48 89 85 98 fb ff ff 	mov    %rax,-0x468(%rbp)
    8544:	48 8d 05 fd 8b 00 00 	lea    0x8bfd(%rip),%rax        # 11148 <g_41>
    854b:	48 89 85 a0 fb ff ff 	mov    %rax,-0x460(%rbp)
    8552:	48 8d 05 ef 8b 00 00 	lea    0x8bef(%rip),%rax        # 11148 <g_41>
    8559:	48 89 85 a8 fb ff ff 	mov    %rax,-0x458(%rbp)
    8560:	48 8d 85 ec f0 ff ff 	lea    -0xf14(%rbp),%rax
    8567:	48 89 85 b0 fb ff ff 	mov    %rax,-0x450(%rbp)
    856e:	48 8d 85 fc f0 ff ff 	lea    -0xf04(%rbp),%rax
    8575:	48 89 85 b8 fb ff ff 	mov    %rax,-0x448(%rbp)
    857c:	48 8d 85 d0 f5 ff ff 	lea    -0xa30(%rbp),%rax
    8583:	48 83 c0 2c          	add    $0x2c,%rax
    8587:	48 89 85 c0 fb ff ff 	mov    %rax,-0x440(%rbp)
    858e:	48 8d 85 e8 f0 ff ff 	lea    -0xf18(%rbp),%rax
    8595:	48 89 85 c8 fb ff ff 	mov    %rax,-0x438(%rbp)
    859c:	48 8d 85 fc f0 ff ff 	lea    -0xf04(%rbp),%rax
    85a3:	48 89 85 d0 fb ff ff 	mov    %rax,-0x430(%rbp)
    85aa:	48 c7 85 d8 fb ff ff 	movq   $0x0,-0x428(%rbp)
    85b1:	00 00 00 00 
    85b5:	48 8d 85 fc f0 ff ff 	lea    -0xf04(%rbp),%rax
    85bc:	48 89 85 e0 fb ff ff 	mov    %rax,-0x420(%rbp)
    85c3:	48 8d 85 d0 f5 ff ff 	lea    -0xa30(%rbp),%rax
    85ca:	48 83 c0 2c          	add    $0x2c,%rax
    85ce:	48 89 85 e8 fb ff ff 	mov    %rax,-0x418(%rbp)
    85d5:	48 8d 85 fc f0 ff ff 	lea    -0xf04(%rbp),%rax
    85dc:	48 89 85 f0 fb ff ff 	mov    %rax,-0x410(%rbp)
    85e3:	48 8d 85 fc f0 ff ff 	lea    -0xf04(%rbp),%rax
    85ea:	48 89 85 f8 fb ff ff 	mov    %rax,-0x408(%rbp)
    85f1:	48 c7 85 00 fc ff ff 	movq   $0x0,-0x400(%rbp)
    85f8:	00 00 00 00 
    85fc:	48 8d 85 ec f0 ff ff 	lea    -0xf14(%rbp),%rax
    8603:	48 89 85 08 fc ff ff 	mov    %rax,-0x3f8(%rbp)
    860a:	48 8d 05 37 8b 00 00 	lea    0x8b37(%rip),%rax        # 11148 <g_41>
    8611:	48 89 85 10 fc ff ff 	mov    %rax,-0x3f0(%rbp)
    8618:	48 8d 85 fc f0 ff ff 	lea    -0xf04(%rbp),%rax
    861f:	48 89 85 18 fc ff ff 	mov    %rax,-0x3e8(%rbp)
    8626:	48 8d 05 1b 8b 00 00 	lea    0x8b1b(%rip),%rax        # 11148 <g_41>
    862d:	48 89 85 20 fc ff ff 	mov    %rax,-0x3e0(%rbp)
    8634:	48 c7 85 28 fc ff ff 	movq   $0x0,-0x3d8(%rbp)
    863b:	00 00 00 00 
    863f:	48 8d 85 d0 f5 ff ff 	lea    -0xa30(%rbp),%rax
    8646:	48 83 c0 2c          	add    $0x2c,%rax
    864a:	48 89 85 30 fc ff ff 	mov    %rax,-0x3d0(%rbp)
    8651:	48 8d 85 d0 f5 ff ff 	lea    -0xa30(%rbp),%rax
    8658:	48 83 c0 2c          	add    $0x2c,%rax
    865c:	48 89 85 38 fc ff ff 	mov    %rax,-0x3c8(%rbp)
    8663:	48 8d 05 de 8a 00 00 	lea    0x8ade(%rip),%rax        # 11148 <g_41>
    866a:	48 89 85 40 fc ff ff 	mov    %rax,-0x3c0(%rbp)
    8671:	48 8d 85 fc f0 ff ff 	lea    -0xf04(%rbp),%rax
    8678:	48 89 85 48 fc ff ff 	mov    %rax,-0x3b8(%rbp)
    867f:	48 8d 85 d0 f5 ff ff 	lea    -0xa30(%rbp),%rax
    8686:	48 05 c8 00 00 00    	add    $0xc8,%rax
    868c:	48 89 85 50 fc ff ff 	mov    %rax,-0x3b0(%rbp)
    8693:	48 c7 85 58 fc ff ff 	movq   $0x0,-0x3a8(%rbp)
    869a:	00 00 00 00 
    869e:	48 c7 85 60 fc ff ff 	movq   $0x0,-0x3a0(%rbp)
    86a5:	00 00 00 00 
    86a9:	48 c7 85 68 fc ff ff 	movq   $0x0,-0x398(%rbp)
    86b0:	00 00 00 00 
    86b4:	48 8d 85 d0 f5 ff ff 	lea    -0xa30(%rbp),%rax
    86bb:	48 83 c0 2c          	add    $0x2c,%rax
    86bf:	48 89 85 70 fc ff ff 	mov    %rax,-0x390(%rbp)
    86c6:	48 8d 85 d0 f5 ff ff 	lea    -0xa30(%rbp),%rax
    86cd:	48 83 c0 2c          	add    $0x2c,%rax
    86d1:	48 89 85 78 fc ff ff 	mov    %rax,-0x388(%rbp)
    86d8:	48 c7 85 80 fc ff ff 	movq   $0x0,-0x380(%rbp)
    86df:	00 00 00 00 
    86e3:	48 c7 85 88 fc ff ff 	movq   $0x0,-0x378(%rbp)
    86ea:	00 00 00 00 
    86ee:	48 8d 85 fc f0 ff ff 	lea    -0xf04(%rbp),%rax
    86f5:	48 89 85 90 fc ff ff 	mov    %rax,-0x370(%rbp)
    86fc:	48 8d 85 ec f0 ff ff 	lea    -0xf14(%rbp),%rax
    8703:	48 89 85 98 fc ff ff 	mov    %rax,-0x368(%rbp)
    870a:	48 8d 85 d0 f5 ff ff 	lea    -0xa30(%rbp),%rax
    8711:	48 83 c0 2c          	add    $0x2c,%rax
    8715:	48 89 85 a0 fc ff ff 	mov    %rax,-0x360(%rbp)
    871c:	48 8d 85 fc f0 ff ff 	lea    -0xf04(%rbp),%rax
    8723:	48 89 85 a8 fc ff ff 	mov    %rax,-0x358(%rbp)
    872a:	48 8d 05 17 8a 00 00 	lea    0x8a17(%rip),%rax        # 11148 <g_41>
    8731:	48 89 85 b0 fc ff ff 	mov    %rax,-0x350(%rbp)
    8738:	48 8d 05 09 8a 00 00 	lea    0x8a09(%rip),%rax        # 11148 <g_41>
    873f:	48 89 85 b8 fc ff ff 	mov    %rax,-0x348(%rbp)
    8746:	48 8d 05 fb 89 00 00 	lea    0x89fb(%rip),%rax        # 11148 <g_41>
    874d:	48 89 85 c0 fc ff ff 	mov    %rax,-0x340(%rbp)
    8754:	48 8d 85 fc f0 ff ff 	lea    -0xf04(%rbp),%rax
    875b:	48 89 85 c8 fc ff ff 	mov    %rax,-0x338(%rbp)
    8762:	48 8d 85 d0 f5 ff ff 	lea    -0xa30(%rbp),%rax
    8769:	48 83 c0 2c          	add    $0x2c,%rax
    876d:	48 89 85 d0 fc ff ff 	mov    %rax,-0x330(%rbp)
    8774:	48 8d 85 ec f0 ff ff 	lea    -0xf14(%rbp),%rax
    877b:	48 89 85 d8 fc ff ff 	mov    %rax,-0x328(%rbp)
    8782:	48 8d 85 fc f0 ff ff 	lea    -0xf04(%rbp),%rax
    8789:	48 89 85 e0 fc ff ff 	mov    %rax,-0x320(%rbp)
    8790:	48 c7 85 e8 fc ff ff 	movq   $0x0,-0x318(%rbp)
    8797:	00 00 00 00 
    879b:	48 c7 85 f0 fc ff ff 	movq   $0x0,-0x310(%rbp)
    87a2:	00 00 00 00 
    87a6:	48 8d 85 d0 f5 ff ff 	lea    -0xa30(%rbp),%rax
    87ad:	48 83 c0 2c          	add    $0x2c,%rax
    87b1:	48 89 85 f8 fc ff ff 	mov    %rax,-0x308(%rbp)
    87b8:	48 8d 85 d0 f5 ff ff 	lea    -0xa30(%rbp),%rax
    87bf:	48 83 c0 2c          	add    $0x2c,%rax
    87c3:	48 89 85 00 fd ff ff 	mov    %rax,-0x300(%rbp)
    87ca:	48 c7 85 08 fd ff ff 	movq   $0x0,-0x2f8(%rbp)
    87d1:	00 00 00 00 
    87d5:	48 c7 85 10 fd ff ff 	movq   $0x0,-0x2f0(%rbp)
    87dc:	00 00 00 00 
    87e0:	48 c7 85 18 fd ff ff 	movq   $0x0,-0x2e8(%rbp)
    87e7:	00 00 00 00 
    87eb:	48 8d 85 d0 f5 ff ff 	lea    -0xa30(%rbp),%rax
    87f2:	48 05 c8 00 00 00    	add    $0xc8,%rax
    87f8:	48 89 85 20 fd ff ff 	mov    %rax,-0x2e0(%rbp)
    87ff:	48 8d 85 fc f0 ff ff 	lea    -0xf04(%rbp),%rax
    8806:	48 89 85 28 fd ff ff 	mov    %rax,-0x2d8(%rbp)
    880d:	48 8d 05 34 89 00 00 	lea    0x8934(%rip),%rax        # 11148 <g_41>
    8814:	48 89 85 30 fd ff ff 	mov    %rax,-0x2d0(%rbp)
    881b:	48 8d 85 d0 f5 ff ff 	lea    -0xa30(%rbp),%rax
    8822:	48 83 c0 2c          	add    $0x2c,%rax
    8826:	48 89 85 38 fd ff ff 	mov    %rax,-0x2c8(%rbp)
    882d:	48 8d 85 d0 f5 ff ff 	lea    -0xa30(%rbp),%rax
    8834:	48 83 c0 2c          	add    $0x2c,%rax
    8838:	48 89 85 40 fd ff ff 	mov    %rax,-0x2c0(%rbp)
    883f:	48 c7 85 48 fd ff ff 	movq   $0x0,-0x2b8(%rbp)
    8846:	00 00 00 00 
    884a:	48 8d 05 f7 88 00 00 	lea    0x88f7(%rip),%rax        # 11148 <g_41>
    8851:	48 89 85 50 fd ff ff 	mov    %rax,-0x2b0(%rbp)
    8858:	48 8d 85 fc f0 ff ff 	lea    -0xf04(%rbp),%rax
    885f:	48 89 85 58 fd ff ff 	mov    %rax,-0x2a8(%rbp)
    8866:	48 8d 05 db 88 00 00 	lea    0x88db(%rip),%rax        # 11148 <g_41>
    886d:	48 89 85 60 fd ff ff 	mov    %rax,-0x2a0(%rbp)
    8874:	48 8d 85 ec f0 ff ff 	lea    -0xf14(%rbp),%rax
    887b:	48 89 85 68 fd ff ff 	mov    %rax,-0x298(%rbp)
    8882:	48 c7 85 70 fd ff ff 	movq   $0x0,-0x290(%rbp)
    8889:	00 00 00 00 
    888d:	48 8d 85 fc f0 ff ff 	lea    -0xf04(%rbp),%rax
    8894:	48 89 85 78 fd ff ff 	mov    %rax,-0x288(%rbp)
    889b:	48 8d 85 fc f0 ff ff 	lea    -0xf04(%rbp),%rax
    88a2:	48 89 85 80 fd ff ff 	mov    %rax,-0x280(%rbp)
    88a9:	48 8d 85 d0 f5 ff ff 	lea    -0xa30(%rbp),%rax
    88b0:	48 83 c0 2c          	add    $0x2c,%rax
    88b4:	48 89 85 88 fd ff ff 	mov    %rax,-0x278(%rbp)
    88bb:	48 8d 85 fc f0 ff ff 	lea    -0xf04(%rbp),%rax
    88c2:	48 89 85 90 fd ff ff 	mov    %rax,-0x270(%rbp)
    88c9:	48 c7 85 98 fd ff ff 	movq   $0x0,-0x268(%rbp)
    88d0:	00 00 00 00 
    88d4:	48 8d 85 fc f0 ff ff 	lea    -0xf04(%rbp),%rax
    88db:	48 89 85 a0 fd ff ff 	mov    %rax,-0x260(%rbp)
    88e2:	48 8d 85 e8 f0 ff ff 	lea    -0xf18(%rbp),%rax
    88e9:	48 89 85 a8 fd ff ff 	mov    %rax,-0x258(%rbp)
    88f0:	48 8d 85 ec f0 ff ff 	lea    -0xf14(%rbp),%rax
    88f7:	48 89 85 b0 fd ff ff 	mov    %rax,-0x250(%rbp)
    88fe:	48 c7 85 b8 fd ff ff 	movq   $0x0,-0x248(%rbp)
    8905:	00 00 00 00 
    8909:	48 8d 05 38 88 00 00 	lea    0x8838(%rip),%rax        # 11148 <g_41>
    8910:	48 89 85 c0 fd ff ff 	mov    %rax,-0x240(%rbp)
    8917:	48 8d 85 e8 f0 ff ff 	lea    -0xf18(%rbp),%rax
    891e:	48 89 85 c8 fd ff ff 	mov    %rax,-0x238(%rbp)
    8925:	48 8d 85 78 f1 ff ff 	lea    -0xe88(%rbp),%rax
    892c:	48 89 85 a8 f1 ff ff 	mov    %rax,-0xe58(%rbp)
    8933:	48 8d 85 a8 f1 ff ff 	lea    -0xe58(%rbp),%rax
    893a:	48 89 85 e8 f2 ff ff 	mov    %rax,-0xd18(%rbp)
    8941:	c7 85 14 f1 ff ff ab 	movl   $0x78d9bab,-0xeec(%rbp)
    8948:	9b 8d 07 
    894b:	83 bd 34 f1 ff ff 00 	cmpl   $0x0,-0xecc(%rbp)
    8952:	0f 85 5f 22 00 00    	jne    abb7 <func_44+0x4567>
    8958:	8b 85 f4 f7 ff ff    	mov    -0x80c(%rbp),%eax
    895e:	83 c0 01             	add    $0x1,%eax
    8961:	89 85 f4 f7 ff ff    	mov    %eax,-0x80c(%rbp)
    8967:	0f b7 05 d6 76 00 00 	movzwl 0x76d6(%rip),%eax        # 10044 <g_19>
    896e:	0f bf d0             	movswl %ax,%edx
    8971:	8b 05 35 77 00 00    	mov    0x7735(%rip),%eax        # 100ac <g_337>
    8977:	31 c2                	xor    %eax,%edx
    8979:	41 89 d4             	mov    %edx,%r12d
    897c:	48 8b 05 a5 7b 00 00 	mov    0x7ba5(%rip),%rax        # 10528 <g_91>
    8983:	48 8b 00             	mov    (%rax),%rax
    8986:	0f b7 00             	movzwl (%rax),%eax
    8989:	0f bf d8             	movswl %ax,%ebx
    898c:	48 8b 85 70 f1 ff ff 	mov    -0xe90(%rbp),%rax
    8993:	8b 00                	mov    (%rax),%eax
    8995:	48 63 d0             	movslq %eax,%rdx
    8998:	48 8b 85 e8 f2 ff ff 	mov    -0xd18(%rbp),%rax
    899f:	48 8d 8d 78 f1 ff ff 	lea    -0xe88(%rbp),%rcx
    89a6:	48 89 08             	mov    %rcx,(%rax)
    89a9:	48 8b 85 e8 f2 ff ff 	mov    -0xd18(%rbp),%rax
    89b0:	48 8b 00             	mov    (%rax),%rax
    89b3:	48 39 85 20 f2 ff ff 	cmp    %rax,-0xde0(%rbp)
    89ba:	0f 94 c0             	sete   %al
    89bd:	0f b6 c8             	movzbl %al,%ecx
    89c0:	0f b6 85 dc f0 ff ff 	movzbl -0xf24(%rbp),%eax
    89c7:	0f b6 c0             	movzbl %al,%eax
    89ca:	39 c1                	cmp    %eax,%ecx
    89cc:	0f 9f c0             	setg   %al
    89cf:	0f b6 c0             	movzbl %al,%eax
    89d2:	48 89 d6             	mov    %rdx,%rsi
    89d5:	48 89 c7             	mov    %rax,%rdi
    89d8:	e8 cb ae ff ff       	callq  38a8 <safe_sub_func_int64_t_s_s>
    89dd:	48 85 c0             	test   %rax,%rax
    89e0:	75 0a                	jne    89ec <func_44+0x239c>
    89e2:	8b 85 28 f6 ff ff    	mov    -0x9d8(%rbp),%eax
    89e8:	85 c0                	test   %eax,%eax
    89ea:	74 07                	je     89f3 <func_44+0x23a3>
    89ec:	ba 01 00 00 00       	mov    $0x1,%edx
    89f1:	eb 05                	jmp    89f8 <func_44+0x23a8>
    89f3:	ba 00 00 00 00       	mov    $0x0,%edx
    89f8:	48 8b 85 70 f1 ff ff 	mov    -0xe90(%rbp),%rax
    89ff:	8b 00                	mov    (%rax),%eax
    8a01:	39 c2                	cmp    %eax,%edx
    8a03:	0f 9e c0             	setle  %al
    8a06:	0f b6 c0             	movzbl %al,%eax
    8a09:	89 c2                	mov    %eax,%edx
    8a0b:	0f b7 05 5a 76 00 00 	movzwl 0x765a(%rip),%eax        # 1006c <g_114>
    8a12:	31 d0                	xor    %edx,%eax
    8a14:	66 89 05 51 76 00 00 	mov    %ax,0x7651(%rip)        # 1006c <g_114>
    8a1b:	48 8b 05 06 7b 00 00 	mov    0x7b06(%rip),%rax        # 10528 <g_91>
    8a22:	48 8b 00             	mov    (%rax),%rax
    8a25:	0f b7 00             	movzwl (%rax),%eax
    8a28:	66 85 c0             	test   %ax,%ax
    8a2b:	74 12                	je     8a3f <func_44+0x23ef>
    8a2d:	0f b6 85 dc f0 ff ff 	movzbl -0xf24(%rbp),%eax
    8a34:	84 c0                	test   %al,%al
    8a36:	74 07                	je     8a3f <func_44+0x23ef>
    8a38:	b8 01 00 00 00       	mov    $0x1,%eax
    8a3d:	eb 05                	jmp    8a44 <func_44+0x23f4>
    8a3f:	b8 00 00 00 00       	mov    $0x0,%eax
    8a44:	98                   	cwtl   
    8a45:	89 de                	mov    %ebx,%esi
    8a47:	89 c7                	mov    %eax,%edi
    8a49:	e8 65 a9 ff ff       	callq  33b3 <safe_add_func_int16_t_s_s>
    8a4e:	8b 85 fc f5 ff ff    	mov    -0xa04(%rbp),%eax
    8a54:	0f b6 c0             	movzbl %al,%eax
    8a57:	be 01 00 00 00       	mov    $0x1,%esi
    8a5c:	89 c7                	mov    %eax,%edi
    8a5e:	e8 78 b1 ff ff       	callq  3bdb <safe_div_func_uint8_t_u_u>
    8a63:	0f b6 95 dc f0 ff ff 	movzbl -0xf24(%rbp),%edx
    8a6a:	38 d0                	cmp    %dl,%al
    8a6c:	0f 96 c0             	setbe  %al
    8a6f:	0f b6 c0             	movzbl %al,%eax
    8a72:	41 39 c4             	cmp    %eax,%r12d
    8a75:	7d 13                	jge    8a8a <func_44+0x243a>
    8a77:	8b 05 cb 75 00 00    	mov    0x75cb(%rip),%eax        # 10048 <g_38>
    8a7d:	85 c0                	test   %eax,%eax
    8a7f:	0f 84 1c 04 00 00    	je     8ea1 <func_44+0x2851>
    8a85:	e9 7b de ff ff       	jmpq   6905 <func_44+0x2b5>
    8a8a:	c7 85 e0 f3 ff ff b6 	movl   $0xfecbab6,-0xc20(%rbp)
    8a91:	ba ec 0f 
    8a94:	c7 85 e4 f3 ff ff ad 	movl   $0x648590ad,-0xc1c(%rbp)
    8a9b:	90 85 64 
    8a9e:	c7 85 e8 f3 ff ff b6 	movl   $0xfecbab6,-0xc18(%rbp)
    8aa5:	ba ec 0f 
    8aa8:	c7 85 ec f3 ff ff b6 	movl   $0xfecbab6,-0xc14(%rbp)
    8aaf:	ba ec 0f 
    8ab2:	c7 85 f0 f3 ff ff ad 	movl   $0x648590ad,-0xc10(%rbp)
    8ab9:	90 85 64 
    8abc:	c7 85 f4 f3 ff ff b6 	movl   $0xfecbab6,-0xc0c(%rbp)
    8ac3:	ba ec 0f 
    8ac6:	c7 85 f8 f3 ff ff b6 	movl   $0xfecbab6,-0xc08(%rbp)
    8acd:	ba ec 0f 
    8ad0:	c7 85 fc f3 ff ff ad 	movl   $0x648590ad,-0xc04(%rbp)
    8ad7:	90 85 64 
    8ada:	c7 85 00 f4 ff ff b6 	movl   $0xfecbab6,-0xc00(%rbp)
    8ae1:	ba ec 0f 
    8ae4:	c7 85 04 f4 ff ff b6 	movl   $0xfecbab6,-0xbfc(%rbp)
    8aeb:	ba ec 0f 
    8aee:	c7 85 08 f4 ff ff ad 	movl   $0x648590ad,-0xbf8(%rbp)
    8af5:	90 85 64 
    8af8:	c7 85 0c f4 ff ff b6 	movl   $0xfecbab6,-0xbf4(%rbp)
    8aff:	ba ec 0f 
    8b02:	48 8d 05 b7 75 00 00 	lea    0x75b7(%rip),%rax        # 100c0 <g_397+0x10>
    8b09:	48 89 85 f0 f2 ff ff 	mov    %rax,-0xd10(%rbp)
    8b10:	8b 85 f0 f3 ff ff    	mov    -0xc10(%rbp),%eax
    8b16:	89 85 08 f1 ff ff    	mov    %eax,-0xef8(%rbp)
    8b1c:	8b 95 08 f1 ff ff    	mov    -0xef8(%rbp),%edx
    8b22:	48 8b 85 e0 f2 ff ff 	mov    -0xd20(%rbp),%rax
    8b29:	89 10                	mov    %edx,(%rax)
    8b2b:	48 8b 85 e0 f2 ff ff 	mov    -0xd20(%rbp),%rax
    8b32:	8b 00                	mov    (%rax),%eax
    8b34:	83 f8 08             	cmp    $0x8,%eax
    8b37:	0f 96 c0             	setbe  %al
    8b3a:	0f b6 d0             	movzbl %al,%edx
    8b3d:	8b 85 0c f1 ff ff    	mov    -0xef4(%rbp),%eax
    8b43:	09 d0                	or     %edx,%eax
    8b45:	89 85 0c f1 ff ff    	mov    %eax,-0xef4(%rbp)
    8b4b:	0f b6 85 dc f0 ff ff 	movzbl -0xf24(%rbp),%eax
    8b52:	0f b6 d8             	movzbl %al,%ebx
    8b55:	8b 05 ed 85 00 00    	mov    0x85ed(%rip),%eax        # 11148 <g_41>
    8b5b:	44 0f b7 e0          	movzwl %ax,%r12d
    8b5f:	0f b6 85 dc f0 ff ff 	movzbl -0xf24(%rbp),%eax
    8b66:	0f b6 d0             	movzbl %al,%edx
    8b69:	48 8d 05 e8 74 00 00 	lea    0x74e8(%rip),%rax        # 10058 <g_75>
    8b70:	48 85 c0             	test   %rax,%rax
    8b73:	0f 95 c0             	setne  %al
    8b76:	0f b6 c0             	movzbl %al,%eax
    8b79:	89 d6                	mov    %edx,%esi
    8b7b:	89 c7                	mov    %eax,%edi
    8b7d:	e8 7b b3 ff ff       	callq  3efd <safe_mod_func_uint32_t_u_u>
    8b82:	89 c6                	mov    %eax,%esi
    8b84:	bf 07 61 51 b1       	mov    $0xb1516107,%edi
    8b89:	e8 2a b3 ff ff       	callq  3eb8 <safe_add_func_uint32_t_u_u>
    8b8e:	85 c0                	test   %eax,%eax
    8b90:	74 07                	je     8b99 <func_44+0x2549>
    8b92:	83 bd 38 f1 ff ff 00 	cmpl   $0x0,-0xec8(%rbp)
    8b99:	48 8b 05 90 79 00 00 	mov    0x7990(%rip),%rax        # 10530 <g_140>
    8ba0:	0f b6 00             	movzbl (%rax),%eax
    8ba3:	0f be d0             	movsbl %al,%edx
    8ba6:	48 8b 05 73 79 00 00 	mov    0x7973(%rip),%rax        # 10520 <g_92>
    8bad:	0f b7 00             	movzwl (%rax),%eax
    8bb0:	89 c1                	mov    %eax,%ecx
    8bb2:	48 8b 85 78 f1 ff ff 	mov    -0xe88(%rbp),%rax
    8bb9:	83 c9 01             	or     $0x1,%ecx
    8bbc:	88 08                	mov    %cl,(%rax)
    8bbe:	0f b6 00             	movzbl (%rax),%eax
    8bc1:	0f be c0             	movsbl %al,%eax
    8bc4:	89 d6                	mov    %edx,%esi
    8bc6:	89 c7                	mov    %eax,%edi
    8bc8:	e8 68 a7 ff ff       	callq  3335 <safe_rshift_func_int8_t_s_s>
    8bcd:	66 98                	cbtw   
    8bcf:	0f b7 c0             	movzwl %ax,%eax
    8bd2:	44 89 e6             	mov    %r12d,%esi
    8bd5:	89 c7                	mov    %eax,%edi
    8bd7:	e8 61 b1 ff ff       	callq  3d3d <safe_mul_func_uint16_t_u_u>
    8bdc:	66 85 c0             	test   %ax,%ax
    8bdf:	0f 94 c0             	sete   %al
    8be2:	0f b6 c0             	movzbl %al,%eax
    8be5:	be 08 00 00 00       	mov    $0x8,%esi
    8bea:	89 c7                	mov    %eax,%edi
    8bec:	e8 a1 a8 ff ff       	callq  3492 <safe_lshift_func_int16_t_s_s>
    8bf1:	98                   	cwtl   
    8bf2:	89 de                	mov    %ebx,%esi
    8bf4:	89 c7                	mov    %eax,%edi
    8bf6:	e8 97 a8 ff ff       	callq  3492 <safe_lshift_func_int16_t_s_s>
    8bfb:	88 05 4b 85 00 00    	mov    %al,0x854b(%rip)        # 1114c <g_108>
    8c01:	0f b6 05 44 85 00 00 	movzbl 0x8544(%rip),%eax        # 1114c <g_108>
    8c08:	0f b6 d0             	movzbl %al,%edx
    8c0b:	48 8b 85 70 f1 ff ff 	mov    -0xe90(%rbp),%rax
    8c12:	8b 00                	mov    (%rax),%eax
    8c14:	31 c2                	xor    %eax,%edx
    8c16:	48 8b 85 e0 f2 ff ff 	mov    -0xd20(%rbp),%rax
    8c1d:	89 10                	mov    %edx,(%rax)
    8c1f:	8b 05 2f 74 00 00    	mov    0x742f(%rip),%eax        # 10054 <g_74>
    8c25:	41 89 c4             	mov    %eax,%r12d
    8c28:	0f b6 85 dc f0 ff ff 	movzbl -0xf24(%rbp),%eax
    8c2f:	0f b6 d8             	movzbl %al,%ebx
    8c32:	8b 85 fc f5 ff ff    	mov    -0xa04(%rbp),%eax
    8c38:	85 c0                	test   %eax,%eax
    8c3a:	74 7e                	je     8cba <func_44+0x266a>
    8c3c:	0f b6 85 dc f0 ff ff 	movzbl -0xf24(%rbp),%eax
    8c43:	84 c0                	test   %al,%al
    8c45:	0f b6 85 dc f0 ff ff 	movzbl -0xf24(%rbp),%eax
    8c4c:	0f b6 d0             	movzbl %al,%edx
    8c4f:	0f b6 85 dc f0 ff ff 	movzbl -0xf24(%rbp),%eax
    8c56:	0f b6 c0             	movzbl %al,%eax
    8c59:	48 89 d6             	mov    %rdx,%rsi
    8c5c:	48 89 c7             	mov    %rax,%rdi
    8c5f:	e8 dd ab ff ff       	callq  3841 <safe_add_func_int64_t_s_s>
    8c64:	0f b6 85 dc f0 ff ff 	movzbl -0xf24(%rbp),%eax
    8c6b:	0f b6 c0             	movzbl %al,%eax
    8c6e:	89 c7                	mov    %eax,%edi
    8c70:	e8 28 a7 ff ff       	callq  339d <safe_unary_minus_func_int16_t_s>
    8c75:	0f bf d0             	movswl %ax,%edx
    8c78:	48 8b 85 70 f1 ff ff 	mov    -0xe90(%rbp),%rax
    8c7f:	8b 00                	mov    (%rax),%eax
    8c81:	0f b6 c0             	movzbl %al,%eax
    8c84:	89 d6                	mov    %edx,%esi
    8c86:	89 c7                	mov    %eax,%edi
    8c88:	e8 31 b0 ff ff       	callq  3cbe <safe_rshift_func_uint8_t_u_u>
    8c8d:	0f b6 c0             	movzbl %al,%eax
    8c90:	89 85 28 f6 ff ff    	mov    %eax,-0x9d8(%rbp)
    8c96:	8b 95 28 f6 ff ff    	mov    -0x9d8(%rbp),%edx
    8c9c:	0f b7 05 eb 73 00 00 	movzwl 0x73eb(%rip),%eax        # 1008e <g_251+0x6>
    8ca3:	c1 e0 03             	shl    $0x3,%eax
    8ca6:	66 c1 f8 0a          	sar    $0xa,%ax
    8caa:	0f be c0             	movsbl %al,%eax
    8cad:	21 d0                	and    %edx,%eax
    8caf:	85 c0                	test   %eax,%eax
    8cb1:	74 07                	je     8cba <func_44+0x266a>
    8cb3:	ba 01 00 00 00       	mov    $0x1,%edx
    8cb8:	eb 05                	jmp    8cbf <func_44+0x266f>
    8cba:	ba 00 00 00 00       	mov    $0x0,%edx
    8cbf:	48 8b 05 6a 78 00 00 	mov    0x786a(%rip),%rax        # 10530 <g_140>
    8cc6:	0f b6 00             	movzbl (%rax),%eax
    8cc9:	0f be c0             	movsbl %al,%eax
    8ccc:	09 d0                	or     %edx,%eax
    8cce:	3d 50 aa 00 00       	cmp    $0xaa50,%eax
    8cd3:	0f 9e c0             	setle  %al
    8cd6:	0f b6 c0             	movzbl %al,%eax
    8cd9:	48 89 de             	mov    %rbx,%rsi
    8cdc:	48 89 c7             	mov    %rax,%rdi
    8cdf:	e8 5d ab ff ff       	callq  3841 <safe_add_func_int64_t_s_s>
    8ce4:	48 89 c2             	mov    %rax,%rdx
    8ce7:	0f b6 85 dc f0 ff ff 	movzbl -0xf24(%rbp),%eax
    8cee:	0f b6 c0             	movzbl %al,%eax
    8cf1:	48 89 d6             	mov    %rdx,%rsi
    8cf4:	48 89 c7             	mov    %rax,%rdi
    8cf7:	e8 4f b3 ff ff       	callq  404b <safe_sub_func_uint64_t_u_u>
    8cfc:	0f b7 c0             	movzwl %ax,%eax
    8cff:	be 00 00 00 00       	mov    $0x0,%esi
    8d04:	89 c7                	mov    %eax,%edi
    8d06:	e8 6f b1 ff ff       	callq  3e7a <safe_rshift_func_uint16_t_u_u>
    8d0b:	0f b7 d0             	movzwl %ax,%edx
    8d0e:	8b 85 10 f1 ff ff    	mov    -0xef0(%rbp),%eax
    8d14:	39 c2                	cmp    %eax,%edx
    8d16:	0f 94 c0             	sete   %al
    8d19:	0f b6 c0             	movzbl %al,%eax
    8d1c:	44 89 e6             	mov    %r12d,%esi
    8d1f:	89 c7                	mov    %eax,%edi
    8d21:	e8 98 af ff ff       	callq  3cbe <safe_rshift_func_uint8_t_u_u>
    8d26:	c7 85 0c f1 ff ff 00 	movl   $0x0,-0xef4(%rbp)
    8d2d:	00 00 00 
    8d30:	0f b6 85 dc f0 ff ff 	movzbl -0xf24(%rbp),%eax
    8d37:	0f b6 d8             	movzbl %al,%ebx
    8d3a:	8b 95 f0 f3 ff ff    	mov    -0xc10(%rbp),%edx
    8d40:	0f b6 85 dc f0 ff ff 	movzbl -0xf24(%rbp),%eax
    8d47:	0f b6 c0             	movzbl %al,%eax
    8d4a:	89 d6                	mov    %edx,%esi
    8d4c:	89 c7                	mov    %eax,%edi
    8d4e:	e8 63 a8 ff ff       	callq  35b6 <safe_add_func_int32_t_s_s>
    8d53:	0f b6 95 dc f0 ff ff 	movzbl -0xf24(%rbp),%edx
    8d5a:	0f b6 d2             	movzbl %dl,%edx
    8d5d:	39 d0                	cmp    %edx,%eax
    8d5f:	0f 9f c0             	setg   %al
    8d62:	0f b6 d0             	movzbl %al,%edx
    8d65:	0f b6 85 dc f0 ff ff 	movzbl -0xf24(%rbp),%eax
    8d6c:	0f b6 c0             	movzbl %al,%eax
    8d6f:	39 c2                	cmp    %eax,%edx
    8d71:	0f 9c c0             	setl   %al
    8d74:	0f b6 c0             	movzbl %al,%eax
    8d77:	89 de                	mov    %ebx,%esi
    8d79:	89 c7                	mov    %eax,%edi
    8d7b:	e8 36 a8 ff ff       	callq  35b6 <safe_add_func_int32_t_s_s>
    8d80:	85 c0                	test   %eax,%eax
    8d82:	0f b6 85 dc f0 ff ff 	movzbl -0xf24(%rbp),%eax
    8d89:	0f b6 c0             	movzbl %al,%eax
    8d8c:	48 8b 95 d0 f2 ff ff 	mov    -0xd30(%rbp),%rdx
    8d93:	8b 12                	mov    (%rdx),%edx
    8d95:	48 63 d2             	movslq %edx,%rdx
    8d98:	48 b9 ed 2b dc 78 1d 	movabs $0x5ae59c1d78dc2bed,%rcx
    8d9f:	9c e5 5a 
    8da2:	48 21 ca             	and    %rcx,%rdx
    8da5:	48 89 c6             	mov    %rax,%rsi
    8da8:	48 89 d7             	mov    %rdx,%rdi
    8dab:	e8 04 ac ff ff       	callq  39b4 <safe_mod_func_int64_t_s_s>
    8db0:	89 c2                	mov    %eax,%edx
    8db2:	0f b6 85 dc f0 ff ff 	movzbl -0xf24(%rbp),%eax
    8db9:	0f b6 c0             	movzbl %al,%eax
    8dbc:	89 d6                	mov    %edx,%esi
    8dbe:	89 c7                	mov    %eax,%edi
    8dc0:	e8 87 ae ff ff       	callq  3c4c <safe_lshift_func_uint8_t_u_u>
    8dc5:	0f b6 c0             	movzbl %al,%eax
    8dc8:	8b 95 fc f5 ff ff    	mov    -0xa04(%rbp),%edx
    8dce:	89 c6                	mov    %eax,%esi
    8dd0:	89 d7                	mov    %edx,%edi
    8dd2:	e8 4e b1 ff ff       	callq  3f25 <safe_div_func_uint32_t_u_u>
    8dd7:	89 c1                	mov    %eax,%ecx
    8dd9:	b8 a4 81 ed 63       	mov    $0x63ed81a4,%eax
    8dde:	48 63 d0             	movslq %eax,%rdx
    8de1:	48 8b 85 f0 f2 ff ff 	mov    -0xd10(%rbp),%rax
    8de8:	48 8b 00             	mov    (%rax),%rax
    8deb:	89 c9                	mov    %ecx,%ecx
    8ded:	48 09 c1             	or     %rax,%rcx
    8df0:	48 8b 85 f0 f2 ff ff 	mov    -0xd10(%rbp),%rax
    8df7:	48 89 08             	mov    %rcx,(%rax)
    8dfa:	48 8b 85 f0 f2 ff ff 	mov    -0xd10(%rbp),%rax
    8e01:	48 8b 00             	mov    (%rax),%rax
    8e04:	48 39 c2             	cmp    %rax,%rdx
    8e07:	0f 92 c0             	setb   %al
    8e0a:	0f b6 c0             	movzbl %al,%eax
    8e0d:	be 01 00 00 00       	mov    $0x1,%esi
    8e12:	89 c7                	mov    %eax,%edi
    8e14:	e8 7a ad ff ff       	callq  3b93 <safe_mul_func_uint8_t_u_u>
    8e19:	84 c0                	test   %al,%al
    8e1b:	0f 94 c0             	sete   %al
    8e1e:	0f b6 d0             	movzbl %al,%edx
    8e21:	48 8b 05 08 77 00 00 	mov    0x7708(%rip),%rax        # 10530 <g_140>
    8e28:	0f b6 00             	movzbl (%rax),%eax
    8e2b:	0f be c0             	movsbl %al,%eax
    8e2e:	39 c2                	cmp    %eax,%edx
    8e30:	0f 9d c0             	setge  %al
    8e33:	0f b6 c0             	movzbl %al,%eax
    8e36:	be 04 00 00 00       	mov    $0x4,%esi
    8e3b:	89 c7                	mov    %eax,%edi
    8e3d:	e8 c4 af ff ff       	callq  3e06 <safe_lshift_func_uint16_t_u_u>
    8e42:	48 8b 95 68 f1 ff ff 	mov    -0xe98(%rbp),%rdx
    8e49:	48 8b 0a             	mov    (%rdx),%rcx
    8e4c:	0f b7 d0             	movzwl %ax,%edx
    8e4f:	48 8b 85 68 f1 ff ff 	mov    -0xe98(%rbp),%rax
    8e56:	48 09 ca             	or     %rcx,%rdx
    8e59:	48 89 10             	mov    %rdx,(%rax)
    8e5c:	48 8b 00             	mov    (%rax),%rax
    8e5f:	be 01 00 00 00       	mov    $0x1,%esi
    8e64:	48 89 c7             	mov    %rax,%rdi
    8e67:	e8 8b ab ff ff       	callq  39f7 <safe_div_func_int64_t_s_s>
    8e6c:	89 c6                	mov    %eax,%esi
    8e6e:	bf 01 00 00 00       	mov    $0x1,%edi
    8e73:	e8 8d a7 ff ff       	callq  3605 <safe_sub_func_int32_t_s_s>
    8e78:	48 8b 05 e1 76 00 00 	mov    0x76e1(%rip),%rax        # 10560 <g_402>
    8e7f:	48 39 85 28 f2 ff ff 	cmp    %rax,-0xdd8(%rbp)
    8e86:	0f 95 c0             	setne  %al
    8e89:	0f b6 d0             	movzbl %al,%edx
    8e8c:	0f b6 85 dc f0 ff ff 	movzbl -0xf24(%rbp),%eax
    8e93:	0f b6 c0             	movzbl %al,%eax
    8e96:	09 c2                	or     %eax,%edx
    8e98:	48 8b 85 e0 f2 ff ff 	mov    -0xd20(%rbp),%rax
    8e9f:	89 10                	mov    %edx,(%rax)
    8ea1:	c7 05 a1 71 00 00 00 	movl   $0x0,0x71a1(%rip)        # 1004c <g_68>
    8ea8:	00 00 00 
    8eab:	e9 e0 00 00 00       	jmpq   8f90 <func_44+0x2940>
    8eb0:	48 8d 85 10 f1 ff ff 	lea    -0xef0(%rbp),%rax
    8eb7:	48 89 85 e0 f3 ff ff 	mov    %rax,-0xc20(%rbp)
    8ebe:	48 8d 85 10 f1 ff ff 	lea    -0xef0(%rbp),%rax
    8ec5:	48 89 85 e8 f3 ff ff 	mov    %rax,-0xc18(%rbp)
    8ecc:	48 8d 85 10 f1 ff ff 	lea    -0xef0(%rbp),%rax
    8ed3:	48 89 85 f0 f3 ff ff 	mov    %rax,-0xc10(%rbp)
    8eda:	48 8d 85 10 f1 ff ff 	lea    -0xef0(%rbp),%rax
    8ee1:	48 89 85 f8 f3 ff ff 	mov    %rax,-0xc08(%rbp)
    8ee8:	48 8d 85 10 f1 ff ff 	lea    -0xef0(%rbp),%rax
    8eef:	48 89 85 00 f4 ff ff 	mov    %rax,-0xc00(%rbp)
    8ef6:	48 8d 85 10 f1 ff ff 	lea    -0xef0(%rbp),%rax
    8efd:	48 89 85 08 f4 ff ff 	mov    %rax,-0xbf8(%rbp)
    8f04:	48 c7 85 f8 f2 ff ff 	movq   $0x0,-0xd08(%rbp)
    8f0b:	00 00 00 00 
    8f0f:	48 8d 85 e0 f3 ff ff 	lea    -0xc20(%rbp),%rax
    8f16:	48 83 c0 28          	add    $0x28,%rax
    8f1a:	48 89 85 00 f3 ff ff 	mov    %rax,-0xd00(%rbp)
    8f21:	48 8b 95 08 f4 ff ff 	mov    -0xbf8(%rbp),%rdx
    8f28:	48 8b 85 00 f3 ff ff 	mov    -0xd00(%rbp),%rax
    8f2f:	48 89 10             	mov    %rdx,(%rax)
    8f32:	48 8b 85 00 f3 ff ff 	mov    -0xd00(%rbp),%rax
    8f39:	48 8d 95 08 f1 ff ff 	lea    -0xef8(%rbp),%rdx
    8f40:	48 89 10             	mov    %rdx,(%rax)
    8f43:	48 8b 85 00 f3 ff ff 	mov    -0xd00(%rbp),%rax
    8f4a:	48 8b 00             	mov    (%rax),%rax
    8f4d:	48 89 85 b0 f1 ff ff 	mov    %rax,-0xe50(%rbp)
    8f54:	48 8b 85 b0 f1 ff ff 	mov    -0xe50(%rbp),%rax
    8f5b:	8b 10                	mov    (%rax),%edx
    8f5d:	8b 05 75 71 00 00    	mov    0x7175(%rip),%eax        # 100d8 <g_414>
    8f63:	31 c2                	xor    %eax,%edx
    8f65:	48 8b 85 b0 f1 ff ff 	mov    -0xe50(%rbp),%rax
    8f6c:	89 10                	mov    %edx,(%rax)
    8f6e:	8b 85 98 f6 ff ff    	mov    -0x968(%rbp),%eax
    8f74:	85 c0                	test   %eax,%eax
    8f76:	8b 05 d0 70 00 00    	mov    0x70d0(%rip),%eax        # 1004c <g_68>
    8f7c:	98                   	cwtl   
    8f7d:	be 01 00 00 00       	mov    $0x1,%esi
    8f82:	89 c7                	mov    %eax,%edi
    8f84:	e8 4a a4 ff ff       	callq  33d3 <safe_sub_func_int16_t_s_s>
    8f89:	98                   	cwtl   
    8f8a:	89 05 bc 70 00 00    	mov    %eax,0x70bc(%rip)        # 1004c <g_68>
    8f90:	8b 05 b6 70 00 00    	mov    0x70b6(%rip),%eax        # 1004c <g_68>
    8f96:	83 f8 e4             	cmp    $0xffffffe4,%eax
    8f99:	0f 8c 11 ff ff ff    	jl     8eb0 <func_44+0x2860>
    8f9f:	e9 c4 0e 00 00       	jmpq   9e68 <func_44+0x3818>
    8fa4:	48 8d 85 08 f1 ff ff 	lea    -0xef8(%rbp),%rax
    8fab:	48 89 85 38 f2 ff ff 	mov    %rax,-0xdc8(%rbp)
    8fb2:	48 c7 85 40 f2 ff ff 	movq   $0x0,-0xdc0(%rbp)
    8fb9:	00 00 00 00 
    8fbd:	48 8d 85 08 f1 ff ff 	lea    -0xef8(%rbp),%rax
    8fc4:	48 89 85 48 f2 ff ff 	mov    %rax,-0xdb8(%rbp)
    8fcb:	48 8d 85 08 f1 ff ff 	lea    -0xef8(%rbp),%rax
    8fd2:	48 89 85 50 f2 ff ff 	mov    %rax,-0xdb0(%rbp)
    8fd9:	48 8d 05 f8 70 00 00 	lea    0x70f8(%rip),%rax        # 100d8 <g_414>
    8fe0:	48 89 85 58 f2 ff ff 	mov    %rax,-0xda8(%rbp)
    8fe7:	48 8d 05 ea 70 00 00 	lea    0x70ea(%rip),%rax        # 100d8 <g_414>
    8fee:	48 89 85 60 f2 ff ff 	mov    %rax,-0xda0(%rbp)
    8ff5:	48 c7 85 68 f2 ff ff 	movq   $0x0,-0xd98(%rbp)
    8ffc:	00 00 00 00 
    9000:	48 8d 05 d1 70 00 00 	lea    0x70d1(%rip),%rax        # 100d8 <g_414>
    9007:	48 89 85 70 f2 ff ff 	mov    %rax,-0xd90(%rbp)
    900e:	48 8d 85 10 f1 ff ff 	lea    -0xef0(%rbp),%rax
    9015:	48 89 85 78 f2 ff ff 	mov    %rax,-0xd88(%rbp)
    901c:	48 8d 05 b5 70 00 00 	lea    0x70b5(%rip),%rax        # 100d8 <g_414>
    9023:	48 89 85 80 f2 ff ff 	mov    %rax,-0xd80(%rbp)
    902a:	48 8d 05 17 81 00 00 	lea    0x8117(%rip),%rax        # 11148 <g_41>
    9031:	48 89 85 88 f2 ff ff 	mov    %rax,-0xd78(%rbp)
    9038:	48 8d 85 e8 f0 ff ff 	lea    -0xf18(%rbp),%rax
    903f:	48 89 85 90 f2 ff ff 	mov    %rax,-0xd70(%rbp)
    9046:	48 8d 85 d0 f5 ff ff 	lea    -0xa30(%rbp),%rax
    904d:	48 05 a8 00 00 00    	add    $0xa8,%rax
    9053:	48 89 85 98 f2 ff ff 	mov    %rax,-0xd68(%rbp)
    905a:	48 8d 85 d0 f5 ff ff 	lea    -0xa30(%rbp),%rax
    9061:	48 83 c0 2c          	add    $0x2c,%rax
    9065:	48 89 85 a0 f2 ff ff 	mov    %rax,-0xd60(%rbp)
    906c:	48 8d 85 fc f0 ff ff 	lea    -0xf04(%rbp),%rax
    9073:	48 89 85 a8 f2 ff ff 	mov    %rax,-0xd58(%rbp)
    907a:	48 c7 85 b0 f2 ff ff 	movq   $0x0,-0xd50(%rbp)
    9081:	00 00 00 00 
    9085:	48 8d 85 d0 f5 ff ff 	lea    -0xa30(%rbp),%rax
    908c:	48 83 c0 2c          	add    $0x2c,%rax
    9090:	48 89 85 b8 f2 ff ff 	mov    %rax,-0xd48(%rbp)
    9097:	48 8d 05 3a 70 00 00 	lea    0x703a(%rip),%rax        # 100d8 <g_414>
    909e:	48 89 85 c0 f2 ff ff 	mov    %rax,-0xd40(%rbp)
    90a5:	48 8d 85 d0 f5 ff ff 	lea    -0xa30(%rbp),%rax
    90ac:	48 05 88 00 00 00    	add    $0x88,%rax
    90b2:	48 89 85 c8 f2 ff ff 	mov    %rax,-0xd38(%rbp)
    90b9:	48 8d 05 18 70 00 00 	lea    0x7018(%rip),%rax        # 100d8 <g_414>
    90c0:	48 89 85 30 f8 ff ff 	mov    %rax,-0x7d0(%rbp)
    90c7:	48 8d 85 e8 f0 ff ff 	lea    -0xf18(%rbp),%rax
    90ce:	48 89 85 38 f8 ff ff 	mov    %rax,-0x7c8(%rbp)
    90d5:	48 8d 05 fc 6f 00 00 	lea    0x6ffc(%rip),%rax        # 100d8 <g_414>
    90dc:	48 89 85 40 f8 ff ff 	mov    %rax,-0x7c0(%rbp)
    90e3:	48 c7 85 48 f8 ff ff 	movq   $0x0,-0x7b8(%rbp)
    90ea:	00 00 00 00 
    90ee:	48 c7 85 50 f8 ff ff 	movq   $0x0,-0x7b0(%rbp)
    90f5:	00 00 00 00 
    90f9:	48 8d 05 48 80 00 00 	lea    0x8048(%rip),%rax        # 11148 <g_41>
    9100:	48 89 85 58 f8 ff ff 	mov    %rax,-0x7a8(%rbp)
    9107:	48 8d 85 e8 f0 ff ff 	lea    -0xf18(%rbp),%rax
    910e:	48 89 85 60 f8 ff ff 	mov    %rax,-0x7a0(%rbp)
    9115:	48 c7 85 68 f8 ff ff 	movq   $0x0,-0x798(%rbp)
    911c:	00 00 00 00 
    9120:	48 8d 05 b1 6f 00 00 	lea    0x6fb1(%rip),%rax        # 100d8 <g_414>
    9127:	48 89 85 70 f8 ff ff 	mov    %rax,-0x790(%rbp)
    912e:	48 8d 85 fc f0 ff ff 	lea    -0xf04(%rbp),%rax
    9135:	48 89 85 78 f8 ff ff 	mov    %rax,-0x788(%rbp)
    913c:	48 8d 05 95 6f 00 00 	lea    0x6f95(%rip),%rax        # 100d8 <g_414>
    9143:	48 89 85 80 f8 ff ff 	mov    %rax,-0x780(%rbp)
    914a:	48 8d 85 fc f0 ff ff 	lea    -0xf04(%rbp),%rax
    9151:	48 89 85 88 f8 ff ff 	mov    %rax,-0x778(%rbp)
    9158:	48 8d 85 fc f0 ff ff 	lea    -0xf04(%rbp),%rax
    915f:	48 89 85 90 f8 ff ff 	mov    %rax,-0x770(%rbp)
    9166:	48 8d 85 fc f0 ff ff 	lea    -0xf04(%rbp),%rax
    916d:	48 89 85 98 f8 ff ff 	mov    %rax,-0x768(%rbp)
    9174:	48 8d 85 08 f1 ff ff 	lea    -0xef8(%rbp),%rax
    917b:	48 89 85 a0 f8 ff ff 	mov    %rax,-0x760(%rbp)
    9182:	48 8d 05 b7 6e 00 00 	lea    0x6eb7(%rip),%rax        # 10040 <g_6>
    9189:	48 89 85 a8 f8 ff ff 	mov    %rax,-0x758(%rbp)
    9190:	48 8d 85 fc f0 ff ff 	lea    -0xf04(%rbp),%rax
    9197:	48 89 85 b0 f8 ff ff 	mov    %rax,-0x750(%rbp)
    919e:	48 8d 85 d0 f5 ff ff 	lea    -0xa30(%rbp),%rax
    91a5:	48 83 c0 2c          	add    $0x2c,%rax
    91a9:	48 89 85 b8 f8 ff ff 	mov    %rax,-0x748(%rbp)
    91b0:	48 8d 85 0c f1 ff ff 	lea    -0xef4(%rbp),%rax
    91b7:	48 89 85 c0 f8 ff ff 	mov    %rax,-0x740(%rbp)
    91be:	48 8d 05 7b 6e 00 00 	lea    0x6e7b(%rip),%rax        # 10040 <g_6>
    91c5:	48 89 85 c8 f8 ff ff 	mov    %rax,-0x738(%rbp)
    91cc:	48 c7 85 d0 f8 ff ff 	movq   $0x0,-0x730(%rbp)
    91d3:	00 00 00 00 
    91d7:	48 8d 85 d0 f5 ff ff 	lea    -0xa30(%rbp),%rax
    91de:	48 05 88 00 00 00    	add    $0x88,%rax
    91e4:	48 89 85 d8 f8 ff ff 	mov    %rax,-0x728(%rbp)
    91eb:	48 8d 85 0c f1 ff ff 	lea    -0xef4(%rbp),%rax
    91f2:	48 89 85 e0 f8 ff ff 	mov    %rax,-0x720(%rbp)
    91f9:	48 c7 85 e8 f8 ff ff 	movq   $0x0,-0x718(%rbp)
    9200:	00 00 00 00 
    9204:	48 8d 85 0c f1 ff ff 	lea    -0xef4(%rbp),%rax
    920b:	48 89 85 f0 f8 ff ff 	mov    %rax,-0x710(%rbp)
    9212:	48 8d 05 27 6e 00 00 	lea    0x6e27(%rip),%rax        # 10040 <g_6>
    9219:	48 89 85 f8 f8 ff ff 	mov    %rax,-0x708(%rbp)
    9220:	48 8d 85 08 f1 ff ff 	lea    -0xef8(%rbp),%rax
    9227:	48 89 85 00 f9 ff ff 	mov    %rax,-0x700(%rbp)
    922e:	48 8d 05 0b 6e 00 00 	lea    0x6e0b(%rip),%rax        # 10040 <g_6>
    9235:	48 89 85 08 f9 ff ff 	mov    %rax,-0x6f8(%rbp)
    923c:	48 8d 05 95 6e 00 00 	lea    0x6e95(%rip),%rax        # 100d8 <g_414>
    9243:	48 89 85 10 f9 ff ff 	mov    %rax,-0x6f0(%rbp)
    924a:	48 8d 85 d0 f5 ff ff 	lea    -0xa30(%rbp),%rax
    9251:	48 83 c0 38          	add    $0x38,%rax
    9255:	48 89 85 18 f9 ff ff 	mov    %rax,-0x6e8(%rbp)
    925c:	48 8d 85 fc f0 ff ff 	lea    -0xf04(%rbp),%rax
    9263:	48 89 85 20 f9 ff ff 	mov    %rax,-0x6e0(%rbp)
    926a:	48 8d 85 fc f0 ff ff 	lea    -0xf04(%rbp),%rax
    9271:	48 89 85 28 f9 ff ff 	mov    %rax,-0x6d8(%rbp)
    9278:	48 8d 85 d0 f5 ff ff 	lea    -0xa30(%rbp),%rax
    927f:	48 83 c0 58          	add    $0x58,%rax
    9283:	48 89 85 30 f9 ff ff 	mov    %rax,-0x6d0(%rbp)
    928a:	48 8d 85 fc f0 ff ff 	lea    -0xf04(%rbp),%rax
    9291:	48 89 85 38 f9 ff ff 	mov    %rax,-0x6c8(%rbp)
    9298:	48 8d 85 d0 f5 ff ff 	lea    -0xa30(%rbp),%rax
    929f:	48 89 85 40 f9 ff ff 	mov    %rax,-0x6c0(%rbp)
    92a6:	48 8d 05 2b 6e 00 00 	lea    0x6e2b(%rip),%rax        # 100d8 <g_414>
    92ad:	48 89 85 48 f9 ff ff 	mov    %rax,-0x6b8(%rbp)
    92b4:	48 8d 85 e8 f0 ff ff 	lea    -0xf18(%rbp),%rax
    92bb:	48 89 85 50 f9 ff ff 	mov    %rax,-0x6b0(%rbp)
    92c2:	48 8d 85 fc f0 ff ff 	lea    -0xf04(%rbp),%rax
    92c9:	48 89 85 58 f9 ff ff 	mov    %rax,-0x6a8(%rbp)
    92d0:	48 c7 85 60 f9 ff ff 	movq   $0x0,-0x6a0(%rbp)
    92d7:	00 00 00 00 
    92db:	48 c7 85 68 f9 ff ff 	movq   $0x0,-0x698(%rbp)
    92e2:	00 00 00 00 
    92e6:	48 8d 85 fc f0 ff ff 	lea    -0xf04(%rbp),%rax
    92ed:	48 89 85 70 f9 ff ff 	mov    %rax,-0x690(%rbp)
    92f4:	48 8d 85 ec f0 ff ff 	lea    -0xf14(%rbp),%rax
    92fb:	48 89 85 78 f9 ff ff 	mov    %rax,-0x688(%rbp)
    9302:	48 8d 05 cf 6d 00 00 	lea    0x6dcf(%rip),%rax        # 100d8 <g_414>
    9309:	48 89 85 80 f9 ff ff 	mov    %rax,-0x680(%rbp)
    9310:	48 8d 85 fc f0 ff ff 	lea    -0xf04(%rbp),%rax
    9317:	48 89 85 88 f9 ff ff 	mov    %rax,-0x678(%rbp)
    931e:	48 8d 05 b3 6d 00 00 	lea    0x6db3(%rip),%rax        # 100d8 <g_414>
    9325:	48 89 85 90 f9 ff ff 	mov    %rax,-0x670(%rbp)
    932c:	48 c7 85 98 f9 ff ff 	movq   $0x0,-0x668(%rbp)
    9333:	00 00 00 00 
    9337:	48 8d 85 e8 f0 ff ff 	lea    -0xf18(%rbp),%rax
    933e:	48 89 85 a0 f9 ff ff 	mov    %rax,-0x660(%rbp)
    9345:	48 8d 05 fc 7d 00 00 	lea    0x7dfc(%rip),%rax        # 11148 <g_41>
    934c:	48 89 85 a8 f9 ff ff 	mov    %rax,-0x658(%rbp)
    9353:	48 8d 05 7e 6d 00 00 	lea    0x6d7e(%rip),%rax        # 100d8 <g_414>
    935a:	48 89 85 b0 f9 ff ff 	mov    %rax,-0x650(%rbp)
    9361:	48 c7 85 b8 f9 ff ff 	movq   $0x0,-0x648(%rbp)
    9368:	00 00 00 00 
    936c:	48 c7 85 c0 f9 ff ff 	movq   $0x0,-0x640(%rbp)
    9373:	00 00 00 00 
    9377:	48 8d 85 10 f1 ff ff 	lea    -0xef0(%rbp),%rax
    937e:	48 89 85 c8 f9 ff ff 	mov    %rax,-0x638(%rbp)
    9385:	48 8d 85 08 f1 ff ff 	lea    -0xef8(%rbp),%rax
    938c:	48 89 85 d0 f9 ff ff 	mov    %rax,-0x630(%rbp)
    9393:	48 8d 85 fc f0 ff ff 	lea    -0xf04(%rbp),%rax
    939a:	48 89 85 d8 f9 ff ff 	mov    %rax,-0x628(%rbp)
    93a1:	48 8d 85 ec f0 ff ff 	lea    -0xf14(%rbp),%rax
    93a8:	48 89 85 e0 f9 ff ff 	mov    %rax,-0x620(%rbp)
    93af:	48 8d 85 08 f1 ff ff 	lea    -0xef8(%rbp),%rax
    93b6:	48 89 85 e8 f9 ff ff 	mov    %rax,-0x618(%rbp)
    93bd:	48 8d 85 08 f1 ff ff 	lea    -0xef8(%rbp),%rax
    93c4:	48 89 85 f0 f9 ff ff 	mov    %rax,-0x610(%rbp)
    93cb:	48 8d 85 0c f1 ff ff 	lea    -0xef4(%rbp),%rax
    93d2:	48 89 85 f8 f9 ff ff 	mov    %rax,-0x608(%rbp)
    93d9:	48 8d 85 10 f1 ff ff 	lea    -0xef0(%rbp),%rax
    93e0:	48 89 85 00 fa ff ff 	mov    %rax,-0x600(%rbp)
    93e7:	48 8d 85 10 f1 ff ff 	lea    -0xef0(%rbp),%rax
    93ee:	48 89 85 08 fa ff ff 	mov    %rax,-0x5f8(%rbp)
    93f5:	48 8d 85 d0 f5 ff ff 	lea    -0xa30(%rbp),%rax
    93fc:	48 83 c0 2c          	add    $0x2c,%rax
    9400:	48 89 85 10 fa ff ff 	mov    %rax,-0x5f0(%rbp)
    9407:	48 8d 05 ca 6c 00 00 	lea    0x6cca(%rip),%rax        # 100d8 <g_414>
    940e:	48 89 85 18 fa ff ff 	mov    %rax,-0x5e8(%rbp)
    9415:	48 8d 85 fc f0 ff ff 	lea    -0xf04(%rbp),%rax
    941c:	48 89 85 20 fa ff ff 	mov    %rax,-0x5e0(%rbp)
    9423:	48 8d 85 d0 f5 ff ff 	lea    -0xa30(%rbp),%rax
    942a:	48 05 88 00 00 00    	add    $0x88,%rax
    9430:	48 89 85 28 fa ff ff 	mov    %rax,-0x5d8(%rbp)
    9437:	48 8d 05 0a 7d 00 00 	lea    0x7d0a(%rip),%rax        # 11148 <g_41>
    943e:	48 89 85 30 fa ff ff 	mov    %rax,-0x5d0(%rbp)
    9445:	48 8d 85 d0 f5 ff ff 	lea    -0xa30(%rbp),%rax
    944c:	48 05 94 00 00 00    	add    $0x94,%rax
    9452:	48 89 85 38 fa ff ff 	mov    %rax,-0x5c8(%rbp)
    9459:	48 8d 85 ec f0 ff ff 	lea    -0xf14(%rbp),%rax
    9460:	48 89 85 40 fa ff ff 	mov    %rax,-0x5c0(%rbp)
    9467:	48 8d 85 d0 f5 ff ff 	lea    -0xa30(%rbp),%rax
    946e:	48 83 c0 2c          	add    $0x2c,%rax
    9472:	48 89 85 48 fa ff ff 	mov    %rax,-0x5b8(%rbp)
    9479:	48 8d 85 fc f0 ff ff 	lea    -0xf04(%rbp),%rax
    9480:	48 89 85 50 fa ff ff 	mov    %rax,-0x5b0(%rbp)
    9487:	48 8d 85 d0 f5 ff ff 	lea    -0xa30(%rbp),%rax
    948e:	48 83 c0 04          	add    $0x4,%rax
    9492:	48 89 85 58 fa ff ff 	mov    %rax,-0x5a8(%rbp)
    9499:	48 8d 05 38 6c 00 00 	lea    0x6c38(%rip),%rax        # 100d8 <g_414>
    94a0:	48 89 85 60 fa ff ff 	mov    %rax,-0x5a0(%rbp)
    94a7:	48 8d 85 e8 f0 ff ff 	lea    -0xf18(%rbp),%rax
    94ae:	48 89 85 68 fa ff ff 	mov    %rax,-0x598(%rbp)
    94b5:	48 8d 05 1c 6c 00 00 	lea    0x6c1c(%rip),%rax        # 100d8 <g_414>
    94bc:	48 89 85 70 fa ff ff 	mov    %rax,-0x590(%rbp)
    94c3:	48 8d 85 d0 f5 ff ff 	lea    -0xa30(%rbp),%rax
    94ca:	48 83 c0 2c          	add    $0x2c,%rax
    94ce:	48 89 85 78 fa ff ff 	mov    %rax,-0x588(%rbp)
    94d5:	48 8d 85 ec f0 ff ff 	lea    -0xf14(%rbp),%rax
    94dc:	48 89 85 80 fa ff ff 	mov    %rax,-0x580(%rbp)
    94e3:	48 c7 85 88 fa ff ff 	movq   $0x0,-0x578(%rbp)
    94ea:	00 00 00 00 
    94ee:	48 8d 05 53 7c 00 00 	lea    0x7c53(%rip),%rax        # 11148 <g_41>
    94f5:	48 89 85 90 fa ff ff 	mov    %rax,-0x570(%rbp)
    94fc:	48 8d 05 d5 6b 00 00 	lea    0x6bd5(%rip),%rax        # 100d8 <g_414>
    9503:	48 89 85 98 fa ff ff 	mov    %rax,-0x568(%rbp)
    950a:	48 8d 85 fc f0 ff ff 	lea    -0xf04(%rbp),%rax
    9511:	48 89 85 a0 fa ff ff 	mov    %rax,-0x560(%rbp)
    9518:	48 8d 05 b9 6b 00 00 	lea    0x6bb9(%rip),%rax        # 100d8 <g_414>
    951f:	48 89 85 a8 fa ff ff 	mov    %rax,-0x558(%rbp)
    9526:	48 8d 85 d0 f5 ff ff 	lea    -0xa30(%rbp),%rax
    952d:	48 83 c0 2c          	add    $0x2c,%rax
    9531:	48 89 85 b0 fa ff ff 	mov    %rax,-0x550(%rbp)
    9538:	48 8d 85 08 f1 ff ff 	lea    -0xef8(%rbp),%rax
    953f:	48 89 85 b8 fa ff ff 	mov    %rax,-0x548(%rbp)
    9546:	48 8d 85 10 f1 ff ff 	lea    -0xef0(%rbp),%rax
    954d:	48 89 85 c0 fa ff ff 	mov    %rax,-0x540(%rbp)
    9554:	48 8d 05 7d 6b 00 00 	lea    0x6b7d(%rip),%rax        # 100d8 <g_414>
    955b:	48 89 85 c8 fa ff ff 	mov    %rax,-0x538(%rbp)
    9562:	48 8d 05 6f 6b 00 00 	lea    0x6b6f(%rip),%rax        # 100d8 <g_414>
    9569:	48 89 85 d0 fa ff ff 	mov    %rax,-0x530(%rbp)
    9570:	48 8d 85 08 f1 ff ff 	lea    -0xef8(%rbp),%rax
    9577:	48 89 85 d8 fa ff ff 	mov    %rax,-0x528(%rbp)
    957e:	48 c7 85 e0 fa ff ff 	movq   $0x0,-0x520(%rbp)
    9585:	00 00 00 00 
    9589:	48 8d 05 48 6b 00 00 	lea    0x6b48(%rip),%rax        # 100d8 <g_414>
    9590:	48 89 85 e8 fa ff ff 	mov    %rax,-0x518(%rbp)
    9597:	48 8d 85 08 f1 ff ff 	lea    -0xef8(%rbp),%rax
    959e:	48 89 85 f0 fa ff ff 	mov    %rax,-0x510(%rbp)
    95a5:	48 8d 85 d0 f5 ff ff 	lea    -0xa30(%rbp),%rax
    95ac:	48 05 dc 00 00 00    	add    $0xdc,%rax
    95b2:	48 89 85 f8 fa ff ff 	mov    %rax,-0x508(%rbp)
    95b9:	48 8d 05 18 6b 00 00 	lea    0x6b18(%rip),%rax        # 100d8 <g_414>
    95c0:	48 89 85 00 fb ff ff 	mov    %rax,-0x500(%rbp)
    95c7:	48 c7 85 08 fb ff ff 	movq   $0x0,-0x4f8(%rbp)
    95ce:	00 00 00 00 
    95d2:	48 8d 05 67 6a 00 00 	lea    0x6a67(%rip),%rax        # 10040 <g_6>
    95d9:	48 89 85 10 fb ff ff 	mov    %rax,-0x4f0(%rbp)
    95e0:	48 8d 85 fc f0 ff ff 	lea    -0xf04(%rbp),%rax
    95e7:	48 89 85 18 fb ff ff 	mov    %rax,-0x4e8(%rbp)
    95ee:	48 8d 85 e8 f0 ff ff 	lea    -0xf18(%rbp),%rax
    95f5:	48 89 85 20 fb ff ff 	mov    %rax,-0x4e0(%rbp)
    95fc:	48 8d 85 ec f0 ff ff 	lea    -0xf14(%rbp),%rax
    9603:	48 89 85 28 fb ff ff 	mov    %rax,-0x4d8(%rbp)
    960a:	48 c7 85 30 fb ff ff 	movq   $0x0,-0x4d0(%rbp)
    9611:	00 00 00 00 
    9615:	48 8d 85 fc f0 ff ff 	lea    -0xf04(%rbp),%rax
    961c:	48 89 85 38 fb ff ff 	mov    %rax,-0x4c8(%rbp)
    9623:	48 8d 85 08 f1 ff ff 	lea    -0xef8(%rbp),%rax
    962a:	48 89 85 40 fb ff ff 	mov    %rax,-0x4c0(%rbp)
    9631:	48 8d 05 10 7b 00 00 	lea    0x7b10(%rip),%rax        # 11148 <g_41>
    9638:	48 89 85 48 fb ff ff 	mov    %rax,-0x4b8(%rbp)
    963f:	48 8d 85 fc f0 ff ff 	lea    -0xf04(%rbp),%rax
    9646:	48 89 85 50 fb ff ff 	mov    %rax,-0x4b0(%rbp)
    964d:	48 c7 85 58 fb ff ff 	movq   $0x0,-0x4a8(%rbp)
    9654:	00 00 00 00 
    9658:	48 8d 85 08 f1 ff ff 	lea    -0xef8(%rbp),%rax
    965f:	48 89 85 60 fb ff ff 	mov    %rax,-0x4a0(%rbp)
    9666:	48 8d 85 fc f0 ff ff 	lea    -0xf04(%rbp),%rax
    966d:	48 89 85 68 fb ff ff 	mov    %rax,-0x498(%rbp)
    9674:	48 8d 85 08 f1 ff ff 	lea    -0xef8(%rbp),%rax
    967b:	48 89 85 70 fb ff ff 	mov    %rax,-0x490(%rbp)
    9682:	48 8d 85 d0 f5 ff ff 	lea    -0xa30(%rbp),%rax
    9689:	48 05 88 00 00 00    	add    $0x88,%rax
    968f:	48 89 85 78 fb ff ff 	mov    %rax,-0x488(%rbp)
    9696:	48 8d 85 d0 f5 ff ff 	lea    -0xa30(%rbp),%rax
    969d:	48 89 85 80 fb ff ff 	mov    %rax,-0x480(%rbp)
    96a4:	48 8d 05 9d 7a 00 00 	lea    0x7a9d(%rip),%rax        # 11148 <g_41>
    96ab:	48 89 85 88 fb ff ff 	mov    %rax,-0x478(%rbp)
    96b2:	48 8d 85 fc f0 ff ff 	lea    -0xf04(%rbp),%rax
    96b9:	48 89 85 90 fb ff ff 	mov    %rax,-0x470(%rbp)
    96c0:	48 8d 85 fc f0 ff ff 	lea    -0xf04(%rbp),%rax
    96c7:	48 89 85 98 fb ff ff 	mov    %rax,-0x468(%rbp)
    96ce:	48 8d 85 10 f1 ff ff 	lea    -0xef0(%rbp),%rax
    96d5:	48 89 85 a0 fb ff ff 	mov    %rax,-0x460(%rbp)
    96dc:	48 8d 85 fc f0 ff ff 	lea    -0xf04(%rbp),%rax
    96e3:	48 89 85 a8 fb ff ff 	mov    %rax,-0x458(%rbp)
    96ea:	48 8d 05 e7 69 00 00 	lea    0x69e7(%rip),%rax        # 100d8 <g_414>
    96f1:	48 89 85 b0 fb ff ff 	mov    %rax,-0x450(%rbp)
    96f8:	48 8d 05 49 7a 00 00 	lea    0x7a49(%rip),%rax        # 11148 <g_41>
    96ff:	48 89 85 b8 fb ff ff 	mov    %rax,-0x448(%rbp)
    9706:	48 8d 05 33 69 00 00 	lea    0x6933(%rip),%rax        # 10040 <g_6>
    970d:	48 89 85 c0 fb ff ff 	mov    %rax,-0x440(%rbp)
    9714:	48 8d 05 25 69 00 00 	lea    0x6925(%rip),%rax        # 10040 <g_6>
    971b:	48 89 85 c8 fb ff ff 	mov    %rax,-0x438(%rbp)
    9722:	48 8d 05 af 69 00 00 	lea    0x69af(%rip),%rax        # 100d8 <g_414>
    9729:	48 89 85 d0 fb ff ff 	mov    %rax,-0x430(%rbp)
    9730:	48 8d 85 d0 f5 ff ff 	lea    -0xa30(%rbp),%rax
    9737:	48 83 c0 2c          	add    $0x2c,%rax
    973b:	48 89 85 d8 fb ff ff 	mov    %rax,-0x428(%rbp)
    9742:	48 8d 85 0c f1 ff ff 	lea    -0xef4(%rbp),%rax
    9749:	48 89 85 e0 fb ff ff 	mov    %rax,-0x420(%rbp)
    9750:	48 8d 05 81 69 00 00 	lea    0x6981(%rip),%rax        # 100d8 <g_414>
    9757:	48 89 85 e8 fb ff ff 	mov    %rax,-0x418(%rbp)
    975e:	48 8d 85 08 f1 ff ff 	lea    -0xef8(%rbp),%rax
    9765:	48 89 85 f0 fb ff ff 	mov    %rax,-0x410(%rbp)
    976c:	48 8d 05 cd 68 00 00 	lea    0x68cd(%rip),%rax        # 10040 <g_6>
    9773:	48 89 85 f8 fb ff ff 	mov    %rax,-0x408(%rbp)
    977a:	48 8d 05 57 69 00 00 	lea    0x6957(%rip),%rax        # 100d8 <g_414>
    9781:	48 89 85 00 fc ff ff 	mov    %rax,-0x400(%rbp)
    9788:	48 c7 85 08 fc ff ff 	movq   $0x0,-0x3f8(%rbp)
    978f:	00 00 00 00 
    9793:	48 8d 85 fc f0 ff ff 	lea    -0xf04(%rbp),%rax
    979a:	48 89 85 10 fc ff ff 	mov    %rax,-0x3f0(%rbp)
    97a1:	48 8d 05 a0 79 00 00 	lea    0x79a0(%rip),%rax        # 11148 <g_41>
    97a8:	48 89 85 18 fc ff ff 	mov    %rax,-0x3e8(%rbp)
    97af:	48 8d 05 22 69 00 00 	lea    0x6922(%rip),%rax        # 100d8 <g_414>
    97b6:	48 89 85 20 fc ff ff 	mov    %rax,-0x3e0(%rbp)
    97bd:	48 8d 85 fc f0 ff ff 	lea    -0xf04(%rbp),%rax
    97c4:	48 89 85 28 fc ff ff 	mov    %rax,-0x3d8(%rbp)
    97cb:	48 8d 85 10 f1 ff ff 	lea    -0xef0(%rbp),%rax
    97d2:	48 89 85 30 fc ff ff 	mov    %rax,-0x3d0(%rbp)
    97d9:	48 8d 85 08 f1 ff ff 	lea    -0xef8(%rbp),%rax
    97e0:	48 89 85 38 fc ff ff 	mov    %rax,-0x3c8(%rbp)
    97e7:	48 8d 05 ea 68 00 00 	lea    0x68ea(%rip),%rax        # 100d8 <g_414>
    97ee:	48 89 85 40 fc ff ff 	mov    %rax,-0x3c0(%rbp)
    97f5:	48 8d 05 4c 79 00 00 	lea    0x794c(%rip),%rax        # 11148 <g_41>
    97fc:	48 89 85 48 fc ff ff 	mov    %rax,-0x3b8(%rbp)
    9803:	48 c7 85 50 fc ff ff 	movq   $0x0,-0x3b0(%rbp)
    980a:	00 00 00 00 
    980e:	48 c7 85 58 fc ff ff 	movq   $0x0,-0x3a8(%rbp)
    9815:	00 00 00 00 
    9819:	48 8d 85 08 f1 ff ff 	lea    -0xef8(%rbp),%rax
    9820:	48 89 85 60 fc ff ff 	mov    %rax,-0x3a0(%rbp)
    9827:	48 8d 85 d0 f5 ff ff 	lea    -0xa30(%rbp),%rax
    982e:	48 83 c0 2c          	add    $0x2c,%rax
    9832:	48 89 85 68 fc ff ff 	mov    %rax,-0x398(%rbp)
    9839:	48 c7 85 70 fc ff ff 	movq   $0x0,-0x390(%rbp)
    9840:	00 00 00 00 
    9844:	48 c7 85 78 fc ff ff 	movq   $0x0,-0x388(%rbp)
    984b:	00 00 00 00 
    984f:	48 8d 85 d0 f5 ff ff 	lea    -0xa30(%rbp),%rax
    9856:	48 83 c0 58          	add    $0x58,%rax
    985a:	48 89 85 80 fc ff ff 	mov    %rax,-0x380(%rbp)
    9861:	48 8d 85 e8 f0 ff ff 	lea    -0xf18(%rbp),%rax
    9868:	48 89 85 88 fc ff ff 	mov    %rax,-0x378(%rbp)
    986f:	48 8d 85 08 f1 ff ff 	lea    -0xef8(%rbp),%rax
    9876:	48 89 85 90 fc ff ff 	mov    %rax,-0x370(%rbp)
    987d:	48 8d 85 d0 f5 ff ff 	lea    -0xa30(%rbp),%rax
    9884:	48 89 85 98 fc ff ff 	mov    %rax,-0x368(%rbp)
    988b:	48 8d 85 d0 f5 ff ff 	lea    -0xa30(%rbp),%rax
    9892:	48 83 c0 2c          	add    $0x2c,%rax
    9896:	48 89 85 a0 fc ff ff 	mov    %rax,-0x360(%rbp)
    989d:	48 8d 85 ec f0 ff ff 	lea    -0xf14(%rbp),%rax
    98a4:	48 89 85 a8 fc ff ff 	mov    %rax,-0x358(%rbp)
    98ab:	48 8d 05 8e 67 00 00 	lea    0x678e(%rip),%rax        # 10040 <g_6>
    98b2:	48 89 85 b0 fc ff ff 	mov    %rax,-0x350(%rbp)
    98b9:	48 8d 85 ec f0 ff ff 	lea    -0xf14(%rbp),%rax
    98c0:	48 89 85 b8 fc ff ff 	mov    %rax,-0x348(%rbp)
    98c7:	48 8d 05 72 67 00 00 	lea    0x6772(%rip),%rax        # 10040 <g_6>
    98ce:	48 89 85 c0 fc ff ff 	mov    %rax,-0x340(%rbp)
    98d5:	48 8d 85 d0 f5 ff ff 	lea    -0xa30(%rbp),%rax
    98dc:	48 05 88 00 00 00    	add    $0x88,%rax
    98e2:	48 89 85 c8 fc ff ff 	mov    %rax,-0x338(%rbp)
    98e9:	48 8d 85 08 f1 ff ff 	lea    -0xef8(%rbp),%rax
    98f0:	48 89 85 d0 fc ff ff 	mov    %rax,-0x330(%rbp)
    98f7:	48 8d 85 d0 f5 ff ff 	lea    -0xa30(%rbp),%rax
    98fe:	48 05 dc 00 00 00    	add    $0xdc,%rax
    9904:	48 89 85 d8 fc ff ff 	mov    %rax,-0x328(%rbp)
    990b:	48 8d 85 d0 f5 ff ff 	lea    -0xa30(%rbp),%rax
    9912:	48 83 c0 2c          	add    $0x2c,%rax
    9916:	48 89 85 e0 fc ff ff 	mov    %rax,-0x320(%rbp)
    991d:	48 8d 85 ec f0 ff ff 	lea    -0xf14(%rbp),%rax
    9924:	48 89 85 e8 fc ff ff 	mov    %rax,-0x318(%rbp)
    992b:	48 c7 85 f0 fc ff ff 	movq   $0x0,-0x310(%rbp)
    9932:	00 00 00 00 
    9936:	48 8d 85 08 f1 ff ff 	lea    -0xef8(%rbp),%rax
    993d:	48 89 85 f8 fc ff ff 	mov    %rax,-0x308(%rbp)
    9944:	48 8d 05 8d 67 00 00 	lea    0x678d(%rip),%rax        # 100d8 <g_414>
    994b:	48 89 85 00 fd ff ff 	mov    %rax,-0x300(%rbp)
    9952:	48 8d 05 7f 67 00 00 	lea    0x677f(%rip),%rax        # 100d8 <g_414>
    9959:	48 89 85 08 fd ff ff 	mov    %rax,-0x2f8(%rbp)
    9960:	48 8d 85 d0 f5 ff ff 	lea    -0xa30(%rbp),%rax
    9967:	48 83 c0 2c          	add    $0x2c,%rax
    996b:	48 89 85 10 fd ff ff 	mov    %rax,-0x2f0(%rbp)
    9972:	48 8d 85 08 f1 ff ff 	lea    -0xef8(%rbp),%rax
    9979:	48 89 85 18 fd ff ff 	mov    %rax,-0x2e8(%rbp)
    9980:	48 8d 85 d0 f5 ff ff 	lea    -0xa30(%rbp),%rax
    9987:	48 83 c0 2c          	add    $0x2c,%rax
    998b:	48 89 85 20 fd ff ff 	mov    %rax,-0x2e0(%rbp)
    9992:	48 8d 85 ec f0 ff ff 	lea    -0xf14(%rbp),%rax
    9999:	48 89 85 28 fd ff ff 	mov    %rax,-0x2d8(%rbp)
    99a0:	48 8d 05 99 66 00 00 	lea    0x6699(%rip),%rax        # 10040 <g_6>
    99a7:	48 89 85 30 fd ff ff 	mov    %rax,-0x2d0(%rbp)
    99ae:	48 8d 05 23 67 00 00 	lea    0x6723(%rip),%rax        # 100d8 <g_414>
    99b5:	48 89 85 38 fd ff ff 	mov    %rax,-0x2c8(%rbp)
    99bc:	48 8d 85 fc f0 ff ff 	lea    -0xf04(%rbp),%rax
    99c3:	48 89 85 40 fd ff ff 	mov    %rax,-0x2c0(%rbp)
    99ca:	48 8d 85 d0 f5 ff ff 	lea    -0xa30(%rbp),%rax
    99d1:	48 83 c0 2c          	add    $0x2c,%rax
    99d5:	48 89 85 48 fd ff ff 	mov    %rax,-0x2b8(%rbp)
    99dc:	48 8d 85 ec f0 ff ff 	lea    -0xf14(%rbp),%rax
    99e3:	48 89 85 50 fd ff ff 	mov    %rax,-0x2b0(%rbp)
    99ea:	48 8d 85 e8 f0 ff ff 	lea    -0xf18(%rbp),%rax
    99f1:	48 89 85 58 fd ff ff 	mov    %rax,-0x2a8(%rbp)
    99f8:	48 c7 85 60 fd ff ff 	movq   $0x0,-0x2a0(%rbp)
    99ff:	00 00 00 00 
    9a03:	48 8d 85 e8 f0 ff ff 	lea    -0xf18(%rbp),%rax
    9a0a:	48 89 85 68 fd ff ff 	mov    %rax,-0x298(%rbp)
    9a11:	48 8d 05 c0 66 00 00 	lea    0x66c0(%rip),%rax        # 100d8 <g_414>
    9a18:	48 89 85 70 fd ff ff 	mov    %rax,-0x290(%rbp)
    9a1f:	48 8d 85 fc f0 ff ff 	lea    -0xf04(%rbp),%rax
    9a26:	48 89 85 78 fd ff ff 	mov    %rax,-0x288(%rbp)
    9a2d:	48 8d 85 0c f1 ff ff 	lea    -0xef4(%rbp),%rax
    9a34:	48 89 85 80 fd ff ff 	mov    %rax,-0x280(%rbp)
    9a3b:	48 8d 85 fc f0 ff ff 	lea    -0xf04(%rbp),%rax
    9a42:	48 89 85 88 fd ff ff 	mov    %rax,-0x278(%rbp)
    9a49:	48 8d 85 fc f0 ff ff 	lea    -0xf04(%rbp),%rax
    9a50:	48 89 85 90 fd ff ff 	mov    %rax,-0x270(%rbp)
    9a57:	48 c7 85 98 fd ff ff 	movq   $0x0,-0x268(%rbp)
    9a5e:	00 00 00 00 
    9a62:	48 8d 85 d0 f5 ff ff 	lea    -0xa30(%rbp),%rax
    9a69:	48 83 c0 2c          	add    $0x2c,%rax
    9a6d:	48 89 85 a0 fd ff ff 	mov    %rax,-0x260(%rbp)
    9a74:	48 8d 85 d0 f5 ff ff 	lea    -0xa30(%rbp),%rax
    9a7b:	48 83 c0 28          	add    $0x28,%rax
    9a7f:	48 89 85 a8 fd ff ff 	mov    %rax,-0x258(%rbp)
    9a86:	48 8d 85 08 f1 ff ff 	lea    -0xef8(%rbp),%rax
    9a8d:	48 89 85 b0 fd ff ff 	mov    %rax,-0x250(%rbp)
    9a94:	48 8d 05 a5 65 00 00 	lea    0x65a5(%rip),%rax        # 10040 <g_6>
    9a9b:	48 89 85 b8 fd ff ff 	mov    %rax,-0x248(%rbp)
    9aa2:	48 8d 85 fc f0 ff ff 	lea    -0xf04(%rbp),%rax
    9aa9:	48 89 85 c0 fd ff ff 	mov    %rax,-0x240(%rbp)
    9ab0:	48 8d 85 08 f1 ff ff 	lea    -0xef8(%rbp),%rax
    9ab7:	48 89 85 c8 fd ff ff 	mov    %rax,-0x238(%rbp)
    9abe:	48 c7 85 d0 fd ff ff 	movq   $0x0,-0x230(%rbp)
    9ac5:	00 00 00 00 
    9ac9:	48 8d 05 08 66 00 00 	lea    0x6608(%rip),%rax        # 100d8 <g_414>
    9ad0:	48 89 85 d8 fd ff ff 	mov    %rax,-0x228(%rbp)
    9ad7:	48 8d 85 0c f1 ff ff 	lea    -0xef4(%rbp),%rax
    9ade:	48 89 85 e0 fd ff ff 	mov    %rax,-0x220(%rbp)
    9ae5:	48 8d 85 fc f0 ff ff 	lea    -0xf04(%rbp),%rax
    9aec:	48 89 85 e8 fd ff ff 	mov    %rax,-0x218(%rbp)
    9af3:	48 8d 05 46 65 00 00 	lea    0x6546(%rip),%rax        # 10040 <g_6>
    9afa:	48 89 85 f0 fd ff ff 	mov    %rax,-0x210(%rbp)
    9b01:	48 8d 85 d0 f5 ff ff 	lea    -0xa30(%rbp),%rax
    9b08:	48 05 88 00 00 00    	add    $0x88,%rax
    9b0e:	48 89 85 f8 fd ff ff 	mov    %rax,-0x208(%rbp)
    9b15:	48 8d 85 0c f1 ff ff 	lea    -0xef4(%rbp),%rax
    9b1c:	48 89 85 00 fe ff ff 	mov    %rax,-0x200(%rbp)
    9b23:	48 8d 05 ae 65 00 00 	lea    0x65ae(%rip),%rax        # 100d8 <g_414>
    9b2a:	48 89 85 08 fe ff ff 	mov    %rax,-0x1f8(%rbp)
    9b31:	48 8d 05 a0 65 00 00 	lea    0x65a0(%rip),%rax        # 100d8 <g_414>
    9b38:	48 89 85 10 fe ff ff 	mov    %rax,-0x1f0(%rbp)
    9b3f:	48 8d 85 d0 f5 ff ff 	lea    -0xa30(%rbp),%rax
    9b46:	48 83 c0 38          	add    $0x38,%rax
    9b4a:	48 89 85 18 fe ff ff 	mov    %rax,-0x1e8(%rbp)
    9b51:	48 c7 85 20 fe ff ff 	movq   $0x0,-0x1e0(%rbp)
    9b58:	00 00 00 00 
    9b5c:	48 8d 05 75 65 00 00 	lea    0x6575(%rip),%rax        # 100d8 <g_414>
    9b63:	48 89 85 28 fe ff ff 	mov    %rax,-0x1d8(%rbp)
    9b6a:	48 8d 85 0c f1 ff ff 	lea    -0xef4(%rbp),%rax
    9b71:	48 89 85 30 fe ff ff 	mov    %rax,-0x1d0(%rbp)
    9b78:	48 8d 05 59 65 00 00 	lea    0x6559(%rip),%rax        # 100d8 <g_414>
    9b7f:	48 89 85 38 fe ff ff 	mov    %rax,-0x1c8(%rbp)
    9b86:	48 8d 85 08 f1 ff ff 	lea    -0xef8(%rbp),%rax
    9b8d:	48 89 85 40 fe ff ff 	mov    %rax,-0x1c0(%rbp)
    9b94:	48 8d 85 d0 f5 ff ff 	lea    -0xa30(%rbp),%rax
    9b9b:	48 83 c0 2c          	add    $0x2c,%rax
    9b9f:	48 89 85 48 fe ff ff 	mov    %rax,-0x1b8(%rbp)
    9ba6:	48 8d 05 9b 75 00 00 	lea    0x759b(%rip),%rax        # 11148 <g_41>
    9bad:	48 89 85 50 fe ff ff 	mov    %rax,-0x1b0(%rbp)
    9bb4:	48 8d 85 d0 f5 ff ff 	lea    -0xa30(%rbp),%rax
    9bbb:	48 05 dc 00 00 00    	add    $0xdc,%rax
    9bc1:	48 89 85 58 fe ff ff 	mov    %rax,-0x1a8(%rbp)
    9bc8:	48 8d 05 71 64 00 00 	lea    0x6471(%rip),%rax        # 10040 <g_6>
    9bcf:	48 89 85 60 fe ff ff 	mov    %rax,-0x1a0(%rbp)
    9bd6:	48 8d 85 d0 f5 ff ff 	lea    -0xa30(%rbp),%rax
    9bdd:	48 83 c0 2c          	add    $0x2c,%rax
    9be1:	48 89 85 68 fe ff ff 	mov    %rax,-0x198(%rbp)
    9be8:	48 8d 05 e9 64 00 00 	lea    0x64e9(%rip),%rax        # 100d8 <g_414>
    9bef:	48 89 85 70 fe ff ff 	mov    %rax,-0x190(%rbp)
    9bf6:	48 8d 05 db 64 00 00 	lea    0x64db(%rip),%rax        # 100d8 <g_414>
    9bfd:	48 89 85 78 fe ff ff 	mov    %rax,-0x188(%rbp)
    9c04:	48 8d 85 d0 f5 ff ff 	lea    -0xa30(%rbp),%rax
    9c0b:	48 83 c0 2c          	add    $0x2c,%rax
    9c0f:	48 89 85 80 fe ff ff 	mov    %rax,-0x180(%rbp)
    9c16:	48 8d 05 bb 64 00 00 	lea    0x64bb(%rip),%rax        # 100d8 <g_414>
    9c1d:	48 89 85 88 fe ff ff 	mov    %rax,-0x178(%rbp)
    9c24:	48 8d 85 fc f0 ff ff 	lea    -0xf04(%rbp),%rax
    9c2b:	48 89 85 90 fe ff ff 	mov    %rax,-0x170(%rbp)
    9c32:	48 8d 05 07 64 00 00 	lea    0x6407(%rip),%rax        # 10040 <g_6>
    9c39:	48 89 85 98 fe ff ff 	mov    %rax,-0x168(%rbp)
    9c40:	48 8d 05 f9 63 00 00 	lea    0x63f9(%rip),%rax        # 10040 <g_6>
    9c47:	48 89 85 a0 fe ff ff 	mov    %rax,-0x160(%rbp)
    9c4e:	48 8d 85 ec f0 ff ff 	lea    -0xf14(%rbp),%rax
    9c55:	48 89 85 a8 fe ff ff 	mov    %rax,-0x158(%rbp)
    9c5c:	48 8d 85 08 f1 ff ff 	lea    -0xef8(%rbp),%rax
    9c63:	48 89 85 b0 fe ff ff 	mov    %rax,-0x150(%rbp)
    9c6a:	48 8d 85 d0 f5 ff ff 	lea    -0xa30(%rbp),%rax
    9c71:	48 05 94 00 00 00    	add    $0x94,%rax
    9c77:	48 89 85 b8 fe ff ff 	mov    %rax,-0x148(%rbp)
    9c7e:	48 8d 85 fc f0 ff ff 	lea    -0xf04(%rbp),%rax
    9c85:	48 89 85 c0 fe ff ff 	mov    %rax,-0x140(%rbp)
    9c8c:	48 8d 85 d0 f5 ff ff 	lea    -0xa30(%rbp),%rax
    9c93:	48 83 c0 58          	add    $0x58,%rax
    9c97:	48 89 85 c8 fe ff ff 	mov    %rax,-0x138(%rbp)
    9c9e:	48 8d 85 d0 f5 ff ff 	lea    -0xa30(%rbp),%rax
    9ca5:	48 83 c0 2c          	add    $0x2c,%rax
    9ca9:	48 89 85 d0 fe ff ff 	mov    %rax,-0x130(%rbp)
    9cb0:	48 8d 85 10 f1 ff ff 	lea    -0xef0(%rbp),%rax
    9cb7:	48 89 85 d8 fe ff ff 	mov    %rax,-0x128(%rbp)
    9cbe:	48 8d 85 e8 f0 ff ff 	lea    -0xf18(%rbp),%rax
    9cc5:	48 89 85 e0 fe ff ff 	mov    %rax,-0x120(%rbp)
    9ccc:	48 8d 85 e8 f0 ff ff 	lea    -0xf18(%rbp),%rax
    9cd3:	48 89 85 e8 fe ff ff 	mov    %rax,-0x118(%rbp)
    9cda:	48 8d 85 ec f0 ff ff 	lea    -0xf14(%rbp),%rax
    9ce1:	48 89 85 f0 fe ff ff 	mov    %rax,-0x110(%rbp)
    9ce8:	48 8d 85 d0 f5 ff ff 	lea    -0xa30(%rbp),%rax
    9cef:	48 83 c0 28          	add    $0x28,%rax
    9cf3:	48 89 85 f8 fe ff ff 	mov    %rax,-0x108(%rbp)
    9cfa:	48 c7 85 00 ff ff ff 	movq   $0x0,-0x100(%rbp)
    9d01:	00 00 00 00 
    9d05:	48 8d 85 08 f1 ff ff 	lea    -0xef8(%rbp),%rax
    9d0c:	48 89 85 08 ff ff ff 	mov    %rax,-0xf8(%rbp)
    9d13:	48 8d 85 e8 f0 ff ff 	lea    -0xf18(%rbp),%rax
    9d1a:	48 89 85 10 ff ff ff 	mov    %rax,-0xf0(%rbp)
    9d21:	48 8d 05 b0 63 00 00 	lea    0x63b0(%rip),%rax        # 100d8 <g_414>
    9d28:	48 89 85 18 ff ff ff 	mov    %rax,-0xe8(%rbp)
    9d2f:	48 8d 85 10 f1 ff ff 	lea    -0xef0(%rbp),%rax
    9d36:	48 89 85 20 ff ff ff 	mov    %rax,-0xe0(%rbp)
    9d3d:	48 8d 85 d0 f5 ff ff 	lea    -0xa30(%rbp),%rax
    9d44:	48 83 c0 58          	add    $0x58,%rax
    9d48:	48 89 85 28 ff ff ff 	mov    %rax,-0xd8(%rbp)
    9d4f:	48 8d 85 0c f1 ff ff 	lea    -0xef4(%rbp),%rax
    9d56:	48 89 85 30 ff ff ff 	mov    %rax,-0xd0(%rbp)
    9d5d:	48 c7 85 38 ff ff ff 	movq   $0x0,-0xc8(%rbp)
    9d64:	00 00 00 00 
    9d68:	48 8d 85 08 f1 ff ff 	lea    -0xef8(%rbp),%rax
    9d6f:	48 89 85 40 ff ff ff 	mov    %rax,-0xc0(%rbp)
    9d76:	48 c7 85 48 ff ff ff 	movq   $0x0,-0xb8(%rbp)
    9d7d:	00 00 00 00 
    9d81:	48 8d 85 10 f1 ff ff 	lea    -0xef0(%rbp),%rax
    9d88:	48 89 85 50 ff ff ff 	mov    %rax,-0xb0(%rbp)
    9d8f:	48 8d 05 aa 62 00 00 	lea    0x62aa(%rip),%rax        # 10040 <g_6>
    9d96:	48 89 85 58 ff ff ff 	mov    %rax,-0xa8(%rbp)
    9d9d:	48 8d 85 10 f1 ff ff 	lea    -0xef0(%rbp),%rax
    9da4:	48 89 85 60 ff ff ff 	mov    %rax,-0xa0(%rbp)
    9dab:	48 8d 85 d0 f5 ff ff 	lea    -0xa30(%rbp),%rax
    9db2:	48 83 c0 38          	add    $0x38,%rax
    9db6:	48 89 85 68 ff ff ff 	mov    %rax,-0x98(%rbp)
    9dbd:	48 8d 85 d0 f5 ff ff 	lea    -0xa30(%rbp),%rax
    9dc4:	48 83 c0 2c          	add    $0x2c,%rax
    9dc8:	48 89 85 70 ff ff ff 	mov    %rax,-0x90(%rbp)
    9dcf:	48 c7 85 78 ff ff ff 	movq   $0x0,-0x88(%rbp)
    9dd6:	00 00 00 00 
    9dda:	48 8d 85 0c f1 ff ff 	lea    -0xef4(%rbp),%rax
    9de1:	48 89 45 80          	mov    %rax,-0x80(%rbp)
    9de5:	48 8d 85 d0 f5 ff ff 	lea    -0xa30(%rbp),%rax
    9dec:	48 83 c0 2c          	add    $0x2c,%rax
    9df0:	48 89 45 88          	mov    %rax,-0x78(%rbp)
    9df4:	48 8d 85 fc f0 ff ff 	lea    -0xf04(%rbp),%rax
    9dfb:	48 89 45 90          	mov    %rax,-0x70(%rbp)
    9dff:	48 8d 85 10 f1 ff ff 	lea    -0xef0(%rbp),%rax
    9e06:	48 89 45 98          	mov    %rax,-0x68(%rbp)
    9e0a:	48 8d 05 37 73 00 00 	lea    0x7337(%rip),%rax        # 11148 <g_41>
    9e11:	48 89 45 a0          	mov    %rax,-0x60(%rbp)
    9e15:	48 c7 45 a8 00 00 00 	movq   $0x0,-0x58(%rbp)
    9e1c:	00 
    9e1d:	48 8d 05 b4 62 00 00 	lea    0x62b4(%rip),%rax        # 100d8 <g_414>
    9e24:	48 89 45 b0          	mov    %rax,-0x50(%rbp)
    9e28:	48 8d 05 a9 62 00 00 	lea    0x62a9(%rip),%rax        # 100d8 <g_414>
    9e2f:	48 89 45 b8          	mov    %rax,-0x48(%rbp)
    9e33:	48 8d 85 e8 f0 ff ff 	lea    -0xf18(%rbp),%rax
    9e3a:	48 89 45 c0          	mov    %rax,-0x40(%rbp)
    9e3e:	0f b6 85 dc f0 ff ff 	movzbl -0xf24(%rbp),%eax
    9e45:	84 c0                	test   %al,%al
    9e47:	0f 85 70 0d 00 00    	jne    abbd <func_44+0x456d>
    9e4d:	83 ad 24 f1 ff ff 01 	subl   $0x1,-0xedc(%rbp)
    9e54:	48 8b 15 05 67 00 00 	mov    0x6705(%rip),%rdx        # 10560 <g_402>
    9e5b:	48 8b 05 fe 66 00 00 	mov    0x66fe(%rip),%rax        # 10560 <g_402>
    9e62:	48 8b 12             	mov    (%rdx),%rdx
    9e65:	48 89 10             	mov    %rdx,(%rax)
    9e68:	48 8b 85 b0 f1 ff ff 	mov    -0xe50(%rbp),%rax
    9e6f:	8b 00                	mov    (%rax),%eax
    9e71:	48 63 d8             	movslq %eax,%rbx
    9e74:	0f b6 85 dc f0 ff ff 	movzbl -0xf24(%rbp),%eax
    9e7b:	44 0f b6 e0          	movzbl %al,%r12d
    9e7f:	48 8b 85 88 f3 ff ff 	mov    -0xc78(%rbp),%rax
    9e86:	48 85 c0             	test   %rax,%rax
    9e89:	0f 95 c0             	setne  %al
    9e8c:	0f b6 c0             	movzbl %al,%eax
    9e8f:	89 85 fc f5 ff ff    	mov    %eax,-0xa04(%rbp)
    9e95:	8b 85 fc f5 ff ff    	mov    -0xa04(%rbp),%eax
    9e9b:	0f b6 c0             	movzbl %al,%eax
    9e9e:	be 3b 00 00 00       	mov    $0x3b,%esi
    9ea3:	89 c7                	mov    %eax,%edi
    9ea5:	e8 04 9d ff ff       	callq  3bae <safe_mod_func_uint8_t_u_u>
    9eaa:	66 c7 05 b9 61 00 00 	movw   $0x0,0x61b9(%rip)        # 1006c <g_114>
    9eb1:	00 00 
    9eb3:	0f b7 05 b2 61 00 00 	movzwl 0x61b2(%rip),%eax        # 1006c <g_114>
    9eba:	98                   	cwtl   
    9ebb:	44 89 e6             	mov    %r12d,%esi
    9ebe:	89 c7                	mov    %eax,%edi
    9ec0:	e8 9e 96 ff ff       	callq  3563 <safe_rshift_func_int16_t_s_u>
    9ec5:	0f b7 c0             	movzwl %ax,%eax
    9ec8:	89 c7                	mov    %eax,%edi
    9eca:	e8 1a 9e ff ff       	callq  3ce9 <safe_unary_minus_func_uint16_t_u>
    9ecf:	0f b7 d0             	movzwl %ax,%edx
    9ed2:	0f b6 85 dc f0 ff ff 	movzbl -0xf24(%rbp),%eax
    9ed9:	0f b6 c0             	movzbl %al,%eax
    9edc:	21 c2                	and    %eax,%edx
    9ede:	8b 05 5c 61 00 00    	mov    0x615c(%rip),%eax        # 10040 <g_6>
    9ee4:	39 c2                	cmp    %eax,%edx
    9ee6:	0f 95 c2             	setne  %dl
    9ee9:	48 8b 05 40 66 00 00 	mov    0x6640(%rip),%rax        # 10530 <g_140>
    9ef0:	88 10                	mov    %dl,(%rax)
    9ef2:	0f b6 00             	movzbl (%rax),%eax
    9ef5:	84 c0                	test   %al,%al
    9ef7:	74 08                	je     9f01 <func_44+0x38b1>
    9ef9:	41 bc 01 00 00 00    	mov    $0x1,%r12d
    9eff:	eb 06                	jmp    9f07 <func_44+0x38b7>
    9f01:	41 bc 00 00 00 00    	mov    $0x0,%r12d
    9f07:	48 8b 05 1a 66 00 00 	mov    0x661a(%rip),%rax        # 10528 <g_91>
    9f0e:	48 8b 00             	mov    (%rax),%rax
    9f11:	0f b7 00             	movzwl (%rax),%eax
    9f14:	89 c6                	mov    %eax,%esi
    9f16:	48 8b 85 70 f1 ff ff 	mov    -0xe90(%rbp),%rax
    9f1d:	8b 08                	mov    (%rax),%ecx
    9f1f:	8b 15 27 61 00 00    	mov    0x6127(%rip),%edx        # 1004c <g_68>
    9f25:	48 8b 85 70 f1 ff ff 	mov    -0xe90(%rbp),%rax
    9f2c:	09 ca                	or     %ecx,%edx
    9f2e:	89 10                	mov    %edx,(%rax)
    9f30:	8b 00                	mov    (%rax),%eax
    9f32:	09 f0                	or     %esi,%eax
    9f34:	0f b6 c0             	movzbl %al,%eax
    9f37:	be ff 00 00 00       	mov    $0xff,%esi
    9f3c:	89 c7                	mov    %eax,%edi
    9f3e:	e8 35 9c ff ff       	callq  3b78 <safe_sub_func_uint8_t_u_u>
    9f43:	0f b6 c0             	movzbl %al,%eax
    9f46:	44 89 e6             	mov    %r12d,%esi
    9f49:	89 c7                	mov    %eax,%edi
    9f4b:	e8 6e 9e ff ff       	callq  3dbe <safe_lshift_func_uint16_t_u_s>
    9f50:	89 c2                	mov    %eax,%edx
    9f52:	48 8b 85 68 f1 ff ff 	mov    -0xe98(%rbp),%rax
    9f59:	0f b7 d2             	movzwl %dx,%edx
    9f5c:	48 89 10             	mov    %rdx,(%rax)
    9f5f:	48 8b 00             	mov    (%rax),%rax
    9f62:	be 02 00 00 00       	mov    $0x2,%esi
    9f67:	48 89 c7             	mov    %rax,%rdi
    9f6a:	e8 88 9a ff ff       	callq  39f7 <safe_div_func_int64_t_s_s>
    9f6f:	48 89 de             	mov    %rbx,%rsi
    9f72:	bf 00 00 00 00       	mov    $0x0,%edi
    9f77:	e8 38 9a ff ff       	callq  39b4 <safe_mod_func_int64_t_s_s>
    9f7c:	0f b6 85 dc f0 ff ff 	movzbl -0xf24(%rbp),%eax
    9f83:	0f b6 c0             	movzbl %al,%eax
    9f86:	be 09 00 00 00       	mov    $0x9,%esi
    9f8b:	89 c7                	mov    %eax,%edi
    9f8d:	e8 c3 94 ff ff       	callq  3455 <safe_div_func_int16_t_s_s>
    9f92:	66 85 c0             	test   %ax,%ax
    9f95:	0f 84 da 03 00 00    	je     a375 <func_44+0x3d25>
    9f9b:	c7 85 28 f1 ff ff b4 	movl   $0xaea858b4,-0xed8(%rbp)
    9fa2:	58 a8 ae 
    9fa5:	48 c7 85 b8 f1 ff ff 	movq   $0xfffffffffffffffd,-0xe48(%rbp)
    9fac:	fd ff ff ff 
    9fb0:	48 b8 d5 79 54 f8 71 	movabs $0x624d6171f85479d5,%rax
    9fb7:	61 4d 62 
    9fba:	48 89 85 18 f3 ff ff 	mov    %rax,-0xce8(%rbp)
    9fc1:	c7 05 e1 60 00 00 00 	movl   $0x0,0x60e1(%rip)        # 100ac <g_337>
    9fc8:	00 00 00 
    9fcb:	e9 83 03 00 00       	jmpq   a353 <func_44+0x3d03>
    9fd0:	48 b8 5f fd fd 5f fd 	movabs $0xfd5ffdfd5ffdfd5f,%rax
    9fd7:	fd 5f fd 
    9fda:	48 89 85 30 f8 ff ff 	mov    %rax,-0x7d0(%rbp)
    9fe1:	66 c7 85 38 f8 ff ff 	movw   $0x5ffd,-0x7c8(%rbp)
    9fe8:	fd 5f 
    9fea:	48 b8 fd 5f fd fd 5f 	movabs $0x5ffdfd5ffdfd5ffd,%rax
    9ff1:	fd fd 5f 
    9ff4:	48 89 85 3a f8 ff ff 	mov    %rax,-0x7c6(%rbp)
    9ffb:	66 c7 85 42 f8 ff ff 	movw   $0xfdfd,-0x7be(%rbp)
    a002:	fd fd 
    a004:	48 b8 5f 5f f8 5f 5f 	movabs $0x5f5ff85f5ff85f5f,%rax
    a00b:	f8 5f 5f 
    a00e:	48 89 85 44 f8 ff ff 	mov    %rax,-0x7bc(%rbp)
    a015:	66 c7 85 4c f8 ff ff 	movw   $0x5ff8,-0x7b4(%rbp)
    a01c:	f8 5f 
    a01e:	48 8d 85 68 f1 ff ff 	lea    -0xe98(%rbp),%rax
    a025:	48 89 85 20 f3 ff ff 	mov    %rax,-0xce0(%rbp)
    a02c:	0f b6 95 dc f0 ff ff 	movzbl -0xf24(%rbp),%edx
    a033:	48 8b 85 70 f1 ff ff 	mov    -0xe90(%rbp),%rax
    a03a:	0f b6 d2             	movzbl %dl,%edx
    a03d:	89 10                	mov    %edx,(%rax)
    a03f:	48 83 bd 08 f2 ff ff 	cmpq   $0x0,-0xdf8(%rbp)
    a046:	00 
    a047:	0f 95 c0             	setne  %al
    a04a:	0f b6 c0             	movzbl %al,%eax
    a04d:	be 02 00 00 00       	mov    $0x2,%esi
    a052:	89 c7                	mov    %eax,%edi
    a054:	e8 88 94 ff ff       	callq  34e1 <safe_lshift_func_int16_t_s_u>
    a059:	66 85 c0             	test   %ax,%ax
    a05c:	0f 85 ed 00 00 00    	jne    a14f <func_44+0x3aff>
    a062:	8b 9d 38 f1 ff ff    	mov    -0xec8(%rbp),%ebx
    a068:	48 8d 05 e9 5f 00 00 	lea    0x5fe9(%rip),%rax        # 10058 <g_75>
    a06f:	0f b6 00             	movzbl (%rax),%eax
    a072:	84 c0                	test   %al,%al
    a074:	75 7d                	jne    a0f3 <func_44+0x3aa3>
    a076:	48 8b 85 70 f1 ff ff 	mov    -0xe90(%rbp),%rax
    a07d:	8b 00                	mov    (%rax),%eax
    a07f:	4c 63 e0             	movslq %eax,%r12
    a082:	44 8b ad fc f5 ff ff 	mov    -0xa04(%rbp),%r13d
    a089:	0f b6 85 dc f0 ff ff 	movzbl -0xf24(%rbp),%eax
    a090:	0f b6 c0             	movzbl %al,%eax
    a093:	0d d8 aa ea 4a       	or     $0x4aeaaad8,%eax
    a098:	be a4 99 21 b2       	mov    $0xb22199a4,%esi
    a09d:	89 c7                	mov    %eax,%edi
    a09f:	e8 61 95 ff ff       	callq  3605 <safe_sub_func_int32_t_s_s>
    a0a4:	be 4c 6a a8 3f       	mov    $0x3fa86a4c,%esi
    a0a9:	89 c7                	mov    %eax,%edi
    a0ab:	e8 4f 96 ff ff       	callq  36ff <safe_div_func_int32_t_s_s>
    a0b0:	41 39 c5             	cmp    %eax,%r13d
    a0b3:	0f 9e c0             	setle  %al
    a0b6:	0f b6 c0             	movzbl %al,%eax
    a0b9:	be 04 00 00 00       	mov    $0x4,%esi
    a0be:	89 c7                	mov    %eax,%edi
    a0c0:	e8 cd 93 ff ff       	callq  3492 <safe_lshift_func_int16_t_s_s>
    a0c5:	66 85 c0             	test   %ax,%ax
    a0c8:	0f 95 c0             	setne  %al
    a0cb:	0f b6 c0             	movzbl %al,%eax
    a0ce:	89 c6                	mov    %eax,%esi
    a0d0:	bf 82 08 86 bf       	mov    $0xbf860882,%edi
    a0d5:	e8 2b 95 ff ff       	callq  3605 <safe_sub_func_int32_t_s_s>
    a0da:	48 98                	cltq   
    a0dc:	4c 89 e6             	mov    %r12,%rsi
    a0df:	48 89 c7             	mov    %rax,%rdi
    a0e2:	e8 47 9f ff ff       	callq  402e <safe_add_func_uint64_t_u_u>
    a0e7:	48 8b 15 72 5f 00 00 	mov    0x5f72(%rip),%rdx        # 10060 <g_76>
    a0ee:	48 39 d0             	cmp    %rdx,%rax
    a0f1:	77 1a                	ja     a10d <func_44+0x3abd>
    a0f3:	8b 05 53 5f 00 00    	mov    0x5f53(%rip),%eax        # 1004c <g_68>
    a0f9:	85 c0                	test   %eax,%eax
    a0fb:	74 10                	je     a10d <func_44+0x3abd>
    a0fd:	0f b7 05 8a 5f 00 00 	movzwl 0x5f8a(%rip),%eax        # 1008e <g_251+0x6>
    a104:	66 25 80 1f          	and    $0x1f80,%ax
    a108:	66 85 c0             	test   %ax,%ax
    a10b:	75 08                	jne    a115 <func_44+0x3ac5>
    a10d:	8b 85 fc f5 ff ff    	mov    -0xa04(%rbp),%eax
    a113:	85 c0                	test   %eax,%eax
    a115:	0f b6 85 dc f0 ff ff 	movzbl -0xf24(%rbp),%eax
    a11c:	3c 01                	cmp    $0x1,%al
    a11e:	0f 96 c0             	setbe  %al
    a121:	0f b6 c0             	movzbl %al,%eax
    a124:	89 de                	mov    %ebx,%esi
    a126:	89 c7                	mov    %eax,%edi
    a128:	e8 91 9c ff ff       	callq  3dbe <safe_lshift_func_uint16_t_u_s>
    a12d:	0f b6 95 dc f0 ff ff 	movzbl -0xf24(%rbp),%edx
    a134:	0f b6 d2             	movzbl %dl,%edx
    a137:	66 39 d0             	cmp    %dx,%ax
    a13a:	0f 93 c0             	setae  %al
    a13d:	0f b6 c0             	movzbl %al,%eax
    a140:	89 85 28 f1 ff ff    	mov    %eax,-0xed8(%rbp)
    a146:	83 bd 28 f1 ff ff 00 	cmpl   $0x0,-0xed8(%rbp)
    a14d:	74 07                	je     a156 <func_44+0x3b06>
    a14f:	ba 01 00 00 00       	mov    $0x1,%edx
    a154:	eb 05                	jmp    a15b <func_44+0x3b0b>
    a156:	ba 00 00 00 00       	mov    $0x0,%edx
    a15b:	0f b6 85 4a f8 ff ff 	movzbl -0x7b6(%rbp),%eax
    a162:	0f be c0             	movsbl %al,%eax
    a165:	39 c2                	cmp    %eax,%edx
    a167:	0f 95 c0             	setne  %al
    a16a:	0f b6 d0             	movzbl %al,%edx
    a16d:	0f b6 85 dc f0 ff ff 	movzbl -0xf24(%rbp),%eax
    a174:	0f b6 c0             	movzbl %al,%eax
    a177:	39 c2                	cmp    %eax,%edx
    a179:	0f 95 c0             	setne  %al
    a17c:	0f b6 c0             	movzbl %al,%eax
    a17f:	be 3a ef 00 00       	mov    $0xef3a,%esi
    a184:	89 c7                	mov    %eax,%edi
    a186:	e8 94 9b ff ff       	callq  3d1f <safe_sub_func_uint16_t_u_u>
    a18b:	0f b7 c0             	movzwl %ax,%eax
    a18e:	89 85 fc f5 ff ff    	mov    %eax,-0xa04(%rbp)
    a194:	0f b7 05 e5 5e 00 00 	movzwl 0x5ee5(%rip),%eax        # 10080 <g_218>
    a19b:	0f b7 d8             	movzwl %ax,%ebx
    a19e:	48 8d 05 b3 5e 00 00 	lea    0x5eb3(%rip),%rax        # 10058 <g_75>
    a1a5:	0f b6 00             	movzbl (%rax),%eax
    a1a8:	44 0f b6 e0          	movzbl %al,%r12d
    a1ac:	48 8d 05 0d 5f 00 00 	lea    0x5f0d(%rip),%rax        # 100c0 <g_397+0x10>
    a1b3:	48 39 85 10 f2 ff ff 	cmp    %rax,-0xdf0(%rbp)
    a1ba:	0f 95 c0             	setne  %al
    a1bd:	0f b6 c0             	movzbl %al,%eax
    a1c0:	48 31 85 b8 f1 ff ff 	xor    %rax,-0xe48(%rbp)
    a1c7:	48 8b 85 b8 f1 ff ff 	mov    -0xe48(%rbp),%rax
    a1ce:	0f b6 c0             	movzbl %al,%eax
    a1d1:	be 96 00 00 00       	mov    $0x96,%esi
    a1d6:	89 c7                	mov    %eax,%edi
    a1d8:	e8 7d 99 ff ff       	callq  3b5a <safe_add_func_uint8_t_u_u>
    a1dd:	3c 01                	cmp    $0x1,%al
    a1df:	0f 96 c0             	setbe  %al
    a1e2:	0f b6 c0             	movzbl %al,%eax
    a1e5:	48 89 c7             	mov    %rax,%rdi
    a1e8:	e8 2c 9e ff ff       	callq  4019 <safe_unary_minus_func_uint64_t_u>
    a1ed:	44 8b ad 38 f1 ff ff 	mov    -0xec8(%rbp),%r13d
    a1f4:	4c 8b b5 18 f3 ff ff 	mov    -0xce8(%rbp),%r14
    a1fb:	44 8b 3d 46 5e 00 00 	mov    0x5e46(%rip),%r15d        # 10048 <g_38>
    a202:	8b 85 28 f1 ff ff    	mov    -0xed8(%rbp),%eax
    a208:	98                   	cwtl   
    a209:	89 c6                	mov    %eax,%esi
    a20b:	bf 01 00 00 00       	mov    $0x1,%edi
    a210:	e8 e0 91 ff ff       	callq  33f5 <safe_mul_func_int16_t_s_s>
    a215:	48 8b 85 20 f3 ff ff 	mov    -0xce0(%rbp),%rax
    a21c:	48 8b 95 d0 f1 ff ff 	mov    -0xe30(%rbp),%rdx
    a223:	48 89 10             	mov    %rdx,(%rax)
    a226:	48 8b 85 20 f3 ff ff 	mov    -0xce0(%rbp),%rax
    a22d:	48 8b 00             	mov    (%rax),%rax
    a230:	48 85 c0             	test   %rax,%rax
    a233:	0f 95 c0             	setne  %al
    a236:	0f b6 d0             	movzbl %al,%edx
    a239:	48 8b 85 b0 f1 ff ff 	mov    -0xe50(%rbp),%rax
    a240:	8b 00                	mov    (%rax),%eax
    a242:	39 c2                	cmp    %eax,%edx
    a244:	0f 9e c0             	setle  %al
    a247:	0f b6 c0             	movzbl %al,%eax
    a24a:	41 39 c7             	cmp    %eax,%r15d
    a24d:	7c 0a                	jl     a259 <func_44+0x3c09>
    a24f:	0f b7 05 18 5e 00 00 	movzwl 0x5e18(%rip),%eax        # 1006e <g_160>
    a256:	66 85 c0             	test   %ax,%ax
    a259:	0f b6 85 dc f0 ff ff 	movzbl -0xf24(%rbp),%eax
    a260:	84 c0                	test   %al,%al
    a262:	74 07                	je     a26b <func_44+0x3c1b>
    a264:	b8 01 00 00 00       	mov    $0x1,%eax
    a269:	eb 05                	jmp    a270 <func_44+0x3c20>
    a26b:	b8 00 00 00 00       	mov    $0x0,%eax
    a270:	89 c2                	mov    %eax,%edx
    a272:	8b 05 f0 5d 00 00    	mov    0x5df0(%rip),%eax        # 10068 <g_77>
    a278:	21 d0                	and    %edx,%eax
    a27a:	89 c0                	mov    %eax,%eax
    a27c:	4c 89 f6             	mov    %r14,%rsi
    a27f:	48 89 c7             	mov    %rax,%rdi
    a282:	e8 2d 97 ff ff       	callq  39b4 <safe_mod_func_int64_t_s_s>
    a287:	48 85 c0             	test   %rax,%rax
    a28a:	74 0b                	je     a297 <func_44+0x3c47>
    a28c:	0f b6 85 dc f0 ff ff 	movzbl -0xf24(%rbp),%eax
    a293:	84 c0                	test   %al,%al
    a295:	75 0a                	jne    a2a1 <func_44+0x3c51>
    a297:	8b 05 ab 5d 00 00    	mov    0x5dab(%rip),%eax        # 10048 <g_38>
    a29d:	85 c0                	test   %eax,%eax
    a29f:	74 07                	je     a2a8 <func_44+0x3c58>
    a2a1:	b8 01 00 00 00       	mov    $0x1,%eax
    a2a6:	eb 05                	jmp    a2ad <func_44+0x3c5d>
    a2a8:	b8 00 00 00 00       	mov    $0x0,%eax
    a2ad:	48 98                	cltq   
    a2af:	4c 89 ee             	mov    %r13,%rsi
    a2b2:	48 89 c7             	mov    %rax,%rdi
    a2b5:	e8 87 95 ff ff       	callq  3841 <safe_add_func_int64_t_s_s>
    a2ba:	0f b6 95 38 f8 ff ff 	movzbl -0x7c8(%rbp),%edx
    a2c1:	48 0f be d2          	movsbq %dl,%rdx
    a2c5:	48 31 c2             	xor    %rax,%rdx
    a2c8:	48 8b 85 10 f2 ff ff 	mov    -0xdf0(%rbp),%rax
    a2cf:	48 8b 00             	mov    (%rax),%rax
    a2d2:	48 09 c2             	or     %rax,%rdx
    a2d5:	48 8b 85 10 f2 ff ff 	mov    -0xdf0(%rbp),%rax
    a2dc:	48 89 10             	mov    %rdx,(%rax)
    a2df:	48 8b 85 10 f2 ff ff 	mov    -0xdf0(%rbp),%rax
    a2e6:	48 8b 00             	mov    (%rax),%rax
    a2e9:	89 c2                	mov    %eax,%edx
    a2eb:	8b 05 bb 5d 00 00    	mov    0x5dbb(%rip),%eax        # 100ac <g_337>
    a2f1:	09 d0                	or     %edx,%eax
    a2f3:	0f b6 c0             	movzbl %al,%eax
    a2f6:	44 89 e6             	mov    %r12d,%esi
    a2f9:	89 c7                	mov    %eax,%edi
    a2fb:	e8 ae 98 ff ff       	callq  3bae <safe_mod_func_uint8_t_u_u>
    a300:	0f b6 c0             	movzbl %al,%eax
    a303:	89 de                	mov    %ebx,%esi
    a305:	89 c7                	mov    %eax,%edi
    a307:	e8 f3 99 ff ff       	callq  3cff <safe_add_func_uint16_t_u_u>
    a30c:	be 0d 00 00 00       	mov    $0xd,%esi
    a311:	bf 01 00 00 00       	mov    $0x1,%edi
    a316:	e8 48 92 ff ff       	callq  3563 <safe_rshift_func_int16_t_s_u>
    a31b:	0f bf d0             	movswl %ax,%edx
    a31e:	8b 85 0c f1 ff ff    	mov    -0xef4(%rbp),%eax
    a324:	31 d0                	xor    %edx,%eax
    a326:	89 85 0c f1 ff ff    	mov    %eax,-0xef4(%rbp)
    a32c:	48 8b 85 70 f1 ff ff 	mov    -0xe90(%rbp),%rax
    a333:	8b 95 0c f1 ff ff    	mov    -0xef4(%rbp),%edx
    a339:	89 10                	mov    %edx,(%rax)
    a33b:	0f b6 85 3e f8 ff ff 	movzbl -0x7c2(%rbp),%eax
    a342:	84 c0                	test   %al,%al
    a344:	8b 05 62 5d 00 00    	mov    0x5d62(%rip),%eax        # 100ac <g_337>
    a34a:	83 e8 01             	sub    $0x1,%eax
    a34d:	89 05 59 5d 00 00    	mov    %eax,0x5d59(%rip)        # 100ac <g_337>
    a353:	8b 05 53 5d 00 00    	mov    0x5d53(%rip),%eax        # 100ac <g_337>
    a359:	83 f8 ef             	cmp    $0xffffffef,%eax
    a35c:	0f 8c 6e fc ff ff    	jl     9fd0 <func_44+0x3980>
    a362:	66 83 bd e4 f0 ff ff 	cmpw   $0x0,-0xf1c(%rbp)
    a369:	00 
    a36a:	0f 84 8c 00 00 00    	je     a3fc <func_44+0x3dac>
    a370:	e9 78 01 00 00       	jmpq   a4ed <func_44+0x3e9d>
    a375:	48 8d 85 08 f1 ff ff 	lea    -0xef8(%rbp),%rax
    a37c:	48 89 85 08 f3 ff ff 	mov    %rax,-0xcf8(%rbp)
    a383:	48 8d 85 f8 f0 ff ff 	lea    -0xf08(%rbp),%rax
    a38a:	48 89 85 10 f3 ff ff 	mov    %rax,-0xcf0(%rbp)
    a391:	c7 85 2c f1 ff ff 00 	movl   $0x0,-0xed4(%rbp)
    a398:	00 00 00 
    a39b:	eb 1e                	jmp    a3bb <func_44+0x3d6b>
    a39d:	8b 85 2c f1 ff ff    	mov    -0xed4(%rbp),%eax
    a3a3:	48 98                	cltq   
    a3a5:	48 8d 95 f8 f0 ff ff 	lea    -0xf08(%rbp),%rdx
    a3ac:	48 89 94 c5 30 f8 ff 	mov    %rdx,-0x7d0(%rbp,%rax,8)
    a3b3:	ff 
    a3b4:	83 85 2c f1 ff ff 01 	addl   $0x1,-0xed4(%rbp)
    a3bb:	83 bd 2c f1 ff ff 00 	cmpl   $0x0,-0xed4(%rbp)
    a3c2:	7e d9                	jle    a39d <func_44+0x3d4d>
    a3c4:	83 ad 54 f1 ff ff 01 	subl   $0x1,-0xeac(%rbp)
    a3cb:	c7 85 38 f1 ff ff 00 	movl   $0x0,-0xec8(%rbp)
    a3d2:	00 00 00 
    a3d5:	83 bd 38 f1 ff ff 21 	cmpl   $0x21,-0xec8(%rbp)
    a3dc:	74 0f                	je     a3ed <func_44+0x3d9d>
    a3de:	0f b6 85 dc f0 ff ff 	movzbl -0xf24(%rbp),%eax
    a3e5:	0f b6 c0             	movzbl %al,%eax
    a3e8:	e9 4f 0a 00 00       	jmpq   ae3c <func_44+0x47ec>
    a3ed:	0f b6 85 dc f0 ff ff 	movzbl -0xf24(%rbp),%eax
    a3f4:	0f b6 c0             	movzbl %al,%eax
    a3f7:	e9 40 0a 00 00       	jmpq   ae3c <func_44+0x47ec>
    a3fc:	c7 85 10 f1 ff ff e5 	movl   $0xffffffe5,-0xef0(%rbp)
    a403:	ff ff ff 
    a406:	e9 d3 00 00 00       	jmpq   a4de <func_44+0x3e8e>
    a40b:	c7 85 18 f1 ff ff 00 	movl   $0x0,-0xee8(%rbp)
    a412:	00 00 00 
    a415:	e9 99 00 00 00       	jmpq   a4b3 <func_44+0x3e63>
    a41a:	8b 85 18 f1 ff ff    	mov    -0xee8(%rbp),%eax
    a420:	8d 50 02             	lea    0x2(%rax),%edx
    a423:	8b 85 ec f0 ff ff    	mov    -0xf14(%rbp),%eax
    a429:	8d 48 01             	lea    0x1(%rax),%ecx
    a42c:	8b 85 18 f1 ff ff    	mov    -0xee8(%rbp),%eax
    a432:	48 63 f0             	movslq %eax,%rsi
    a435:	48 63 d2             	movslq %edx,%rdx
    a438:	48 63 c9             	movslq %ecx,%rcx
    a43b:	48 89 d0             	mov    %rdx,%rax
    a43e:	48 c1 e0 02          	shl    $0x2,%rax
    a442:	48 01 d0             	add    %rdx,%rax
    a445:	48 01 c0             	add    %rax,%rax
    a448:	48 89 ca             	mov    %rcx,%rdx
    a44b:	48 c1 e2 02          	shl    $0x2,%rdx
    a44f:	48 01 ca             	add    %rcx,%rdx
    a452:	48 01 d0             	add    %rdx,%rax
    a455:	48 01 f0             	add    %rsi,%rax
    a458:	8b 84 85 50 f4 ff ff 	mov    -0xbb0(%rbp,%rax,4),%eax
    a45f:	8b 95 18 f1 ff ff    	mov    -0xee8(%rbp),%edx
    a465:	44 8d 42 02          	lea    0x2(%rdx),%r8d
    a469:	8b 95 ec f0 ff ff    	mov    -0xf14(%rbp),%edx
    a46f:	8d 4a 01             	lea    0x1(%rdx),%ecx
    a472:	35 48 a0 79 ac       	xor    $0xac79a048,%eax
    a477:	89 c6                	mov    %eax,%esi
    a479:	8b 85 18 f1 ff ff    	mov    -0xee8(%rbp),%eax
    a47f:	48 63 f8             	movslq %eax,%rdi
    a482:	49 63 d0             	movslq %r8d,%rdx
    a485:	48 63 c9             	movslq %ecx,%rcx
    a488:	48 89 d0             	mov    %rdx,%rax
    a48b:	48 c1 e0 02          	shl    $0x2,%rax
    a48f:	48 01 d0             	add    %rdx,%rax
    a492:	48 01 c0             	add    %rax,%rax
    a495:	48 89 ca             	mov    %rcx,%rdx
    a498:	48 c1 e2 02          	shl    $0x2,%rdx
    a49c:	48 01 ca             	add    %rcx,%rdx
    a49f:	48 01 d0             	add    %rdx,%rax
    a4a2:	48 01 f8             	add    %rdi,%rax
    a4a5:	89 b4 85 50 f4 ff ff 	mov    %esi,-0xbb0(%rbp,%rax,4)
    a4ac:	83 85 18 f1 ff ff 01 	addl   $0x1,-0xee8(%rbp)
    a4b3:	83 bd 18 f1 ff ff 01 	cmpl   $0x1,-0xee8(%rbp)
    a4ba:	0f 8e 5a ff ff ff    	jle    a41a <func_44+0x3dca>
    a4c0:	8b 85 10 f1 ff ff    	mov    -0xef0(%rbp),%eax
    a4c6:	0f b6 c0             	movzbl %al,%eax
    a4c9:	be 04 00 00 00       	mov    $0x4,%esi
    a4ce:	89 c7                	mov    %eax,%edi
    a4d0:	e8 85 96 ff ff       	callq  3b5a <safe_add_func_uint8_t_u_u>
    a4d5:	0f b6 c0             	movzbl %al,%eax
    a4d8:	89 85 10 f1 ff ff    	mov    %eax,-0xef0(%rbp)
    a4de:	8b 85 10 f1 ff ff    	mov    -0xef0(%rbp),%eax
    a4e4:	83 f8 15             	cmp    $0x15,%eax
    a4e7:	0f 85 1e ff ff ff    	jne    a40b <func_44+0x3dbb>
    a4ed:	8b 85 ec f0 ff ff    	mov    -0xf14(%rbp),%eax
    a4f3:	83 e8 01             	sub    $0x1,%eax
    a4f6:	89 85 ec f0 ff ff    	mov    %eax,-0xf14(%rbp)
    a4fc:	8b 85 ec f0 ff ff    	mov    -0xf14(%rbp),%eax
    a502:	85 c0                	test   %eax,%eax
    a504:	0f 89 a8 d4 ff ff    	jns    79b2 <func_44+0x1362>
    a50a:	e9 ae 06 00 00       	jmpq   abbd <func_44+0x456d>
    a50f:	66 c7 85 e2 f0 ff ff 	movw   $0x6828,-0xf1e(%rbp)
    a516:	28 68 
    a518:	48 8d 85 50 f4 ff ff 	lea    -0xbb0(%rbp),%rax
    a51f:	48 05 8c 00 00 00    	add    $0x8c,%rax
    a525:	48 89 85 c0 f1 ff ff 	mov    %rax,-0xe40(%rbp)
    a52c:	c7 85 d0 f5 ff ff 3a 	movl   $0xf63af63a,-0xa30(%rbp)
    a533:	f6 3a f6 
    a536:	66 c7 85 d4 f5 ff ff 	movw   $0xf63a,-0xa2c(%rbp)
    a53d:	3a f6 
    a53f:	c6 85 d6 f5 ff ff 3a 	movb   $0x3a,-0xa2a(%rbp)
    a546:	c7 85 d7 f5 ff ff 05 	movl   $0x5050505,-0xa29(%rbp)
    a54d:	05 05 05 
    a550:	66 c7 85 db f5 ff ff 	movw   $0x505,-0xa25(%rbp)
    a557:	05 05 
    a559:	c6 85 dd f5 ff ff 05 	movb   $0x5,-0xa23(%rbp)
    a560:	c7 85 de f5 ff ff 3a 	movl   $0xf63af63a,-0xa22(%rbp)
    a567:	f6 3a f6 
    a56a:	66 c7 85 e2 f5 ff ff 	movw   $0xf63a,-0xa1e(%rbp)
    a571:	3a f6 
    a573:	c6 85 e4 f5 ff ff 3a 	movb   $0x3a,-0xa1c(%rbp)
    a57a:	c7 85 e5 f5 ff ff 05 	movl   $0x5050505,-0xa1b(%rbp)
    a581:	05 05 05 
    a584:	66 c7 85 e9 f5 ff ff 	movw   $0x505,-0xa17(%rbp)
    a58b:	05 05 
    a58d:	c6 85 eb f5 ff ff 05 	movb   $0x5,-0xa15(%rbp)
    a594:	c7 85 ec f5 ff ff 3a 	movl   $0xf63af63a,-0xa14(%rbp)
    a59b:	f6 3a f6 
    a59e:	66 c7 85 f0 f5 ff ff 	movw   $0xf63a,-0xa10(%rbp)
    a5a5:	3a f6 
    a5a7:	c6 85 f2 f5 ff ff 3a 	movb   $0x3a,-0xa0e(%rbp)
    a5ae:	48 8d 85 90 f1 ff ff 	lea    -0xe70(%rbp),%rax
    a5b5:	48 89 85 e0 f1 ff ff 	mov    %rax,-0xe20(%rbp)
    a5bc:	c7 85 30 f1 ff ff 00 	movl   $0x0,-0xed0(%rbp)
    a5c3:	00 00 00 
    a5c6:	eb 1b                	jmp    a5e3 <func_44+0x3f93>
    a5c8:	8b 85 30 f1 ff ff    	mov    -0xed0(%rbp),%eax
    a5ce:	48 98                	cltq   
    a5d0:	48 c7 84 c5 b0 f6 ff 	movq   $0x0,-0x950(%rbp,%rax,8)
    a5d7:	ff 00 00 00 00 
    a5dc:	83 85 30 f1 ff ff 01 	addl   $0x1,-0xed0(%rbp)
    a5e3:	83 bd 30 f1 ff ff 05 	cmpl   $0x5,-0xed0(%rbp)
    a5ea:	7e dc                	jle    a5c8 <func_44+0x3f78>
    a5ec:	8b 9d fc f0 ff ff    	mov    -0xf04(%rbp),%ebx
    a5f2:	8b 05 94 5a 00 00    	mov    0x5a94(%rip),%eax        # 1008c <g_251+0x4>
    a5f8:	25 ff ff 7f 00       	and    $0x7fffff,%eax
    a5fd:	41 89 c4             	mov    %eax,%r12d
    a600:	0f b7 05 cf 5a 00 00 	movzwl 0x5acf(%rip),%eax        # 100d6 <g_407+0x6>
    a607:	c1 e0 03             	shl    $0x3,%eax
    a60a:	66 c1 f8 0a          	sar    $0xa,%ax
    a60e:	48 0f be d0          	movsbq %al,%rdx
    a612:	0f b7 85 e2 f0 ff ff 	movzwl -0xf1e(%rbp),%eax
    a619:	48 89 d6             	mov    %rdx,%rsi
    a61c:	48 89 c7             	mov    %rax,%rdi
    a61f:	e8 90 93 ff ff       	callq  39b4 <safe_mod_func_int64_t_s_s>
    a624:	0f be c0             	movsbl %al,%eax
    a627:	89 c7                	mov    %eax,%edi
    a629:	e8 91 8b ff ff       	callq  31bf <safe_unary_minus_func_int8_t_s>
    a62e:	3c 46                	cmp    $0x46,%al
    a630:	0f 9f c0             	setg   %al
    a633:	0f b6 c0             	movzbl %al,%eax
    a636:	41 39 c4             	cmp    %eax,%r12d
    a639:	0f 9f c1             	setg   %cl
    a63c:	48 8b 85 70 f1 ff ff 	mov    -0xe90(%rbp),%rax
    a643:	8b 10                	mov    (%rax),%edx
    a645:	48 8b 85 70 f1 ff ff 	mov    -0xe90(%rbp),%rax
    a64c:	83 e2 01             	and    $0x1,%edx
    a64f:	89 10                	mov    %edx,(%rax)
    a651:	8b 00                	mov    (%rax),%eax
    a653:	83 f8 04             	cmp    $0x4,%eax
    a656:	0f 9e c0             	setle  %al
    a659:	31 c1                	xor    %eax,%ecx
    a65b:	89 ca                	mov    %ecx,%edx
    a65d:	48 8b 05 bc 5e 00 00 	mov    0x5ebc(%rip),%rax        # 10520 <g_92>
    a664:	0f b6 d2             	movzbl %dl,%edx
    a667:	66 89 10             	mov    %dx,(%rax)
    a66a:	0f b7 00             	movzwl (%rax),%eax
    a66d:	66 85 c0             	test   %ax,%ax
    a670:	75 0a                	jne    a67c <func_44+0x402c>
    a672:	8b 05 c8 59 00 00    	mov    0x59c8(%rip),%eax        # 10040 <g_6>
    a678:	85 c0                	test   %eax,%eax
    a67a:	7e 07                	jle    a683 <func_44+0x4033>
    a67c:	ba 01 00 00 00       	mov    $0x1,%edx
    a681:	eb 05                	jmp    a688 <func_44+0x4038>
    a683:	ba 00 00 00 00       	mov    $0x0,%edx
    a688:	0f b6 85 dc f0 ff ff 	movzbl -0xf24(%rbp),%eax
    a68f:	0f b6 c0             	movzbl %al,%eax
    a692:	21 d0                	and    %edx,%eax
    a694:	48 63 d0             	movslq %eax,%rdx
    a697:	48 8b 85 d0 f1 ff ff 	mov    -0xe30(%rbp),%rax
    a69e:	48 89 10             	mov    %rdx,(%rax)
    a6a1:	48 8b 85 d0 f1 ff ff 	mov    -0xe30(%rbp),%rax
    a6a8:	48 8b 00             	mov    (%rax),%rax
    a6ab:	48 89 c6             	mov    %rax,%rsi
    a6ae:	bf 09 00 00 00       	mov    $0x9,%edi
    a6b3:	e8 fc 92 ff ff       	callq  39b4 <safe_mod_func_int64_t_s_s>
    a6b8:	89 de                	mov    %ebx,%esi
    a6ba:	89 c7                	mov    %eax,%edi
    a6bc:	e8 0b 90 ff ff       	callq  36cc <safe_mod_func_int32_t_s_s>
    a6c1:	89 c2                	mov    %eax,%edx
    a6c3:	0f b6 05 82 6a 00 00 	movzbl 0x6a82(%rip),%eax        # 1114c <g_108>
    a6ca:	83 e8 01             	sub    $0x1,%eax
    a6cd:	88 05 79 6a 00 00    	mov    %al,0x6a79(%rip)        # 1114c <g_108>
    a6d3:	0f b6 05 72 6a 00 00 	movzbl 0x6a72(%rip),%eax        # 1114c <g_108>
    a6da:	0f b6 c0             	movzbl %al,%eax
    a6dd:	89 d6                	mov    %edx,%esi
    a6df:	89 c7                	mov    %eax,%edi
    a6e1:	e8 66 95 ff ff       	callq  3c4c <safe_lshift_func_uint8_t_u_u>
    a6e6:	0f b6 c0             	movzbl %al,%eax
    a6e9:	be 01 00 00 00       	mov    $0x1,%esi
    a6ee:	89 c7                	mov    %eax,%edi
    a6f0:	e8 c1 8e ff ff       	callq  35b6 <safe_add_func_int32_t_s_s>
    a6f5:	0f b7 15 a2 59 00 00 	movzwl 0x59a2(%rip),%edx        # 1009e <g_255+0xe>
    a6fc:	c1 e2 03             	shl    $0x3,%edx
    a6ff:	66 c1 fa 0a          	sar    $0xa,%dx
    a703:	0f be d2             	movsbl %dl,%edx
    a706:	39 d0                	cmp    %edx,%eax
    a708:	7c 07                	jl     a711 <func_44+0x40c1>
    a70a:	b8 01 00 00 00       	mov    $0x1,%eax
    a70f:	eb 05                	jmp    a716 <func_44+0x40c6>
    a711:	b8 00 00 00 00       	mov    $0x0,%eax
    a716:	84 c0                	test   %al,%al
    a718:	74 13                	je     a72d <func_44+0x40dd>
    a71a:	8b 05 28 59 00 00    	mov    0x5928(%rip),%eax        # 10048 <g_38>
    a720:	85 c0                	test   %eax,%eax
    a722:	0f 84 1e 03 00 00    	je     aa46 <func_44+0x43f6>
    a728:	e9 d8 c1 ff ff       	jmpq   6905 <func_44+0x2b5>
    a72d:	48 8d 95 30 f8 ff ff 	lea    -0x7d0(%rbp),%rdx
    a734:	b8 00 00 00 00       	mov    $0x0,%eax
    a739:	b9 0f 00 00 00       	mov    $0xf,%ecx
    a73e:	48 89 d7             	mov    %rdx,%rdi
    a741:	f3 48 ab             	rep stos %rax,%es:(%rdi)
    a744:	48 8d 05 e5 5d 00 00 	lea    0x5de5(%rip),%rax        # 10530 <g_140>
    a74b:	48 89 85 e8 f1 ff ff 	mov    %rax,-0xe18(%rbp)
    a752:	48 8d 05 67 59 00 00 	lea    0x5967(%rip),%rax        # 100c0 <g_397+0x10>
    a759:	48 89 85 f0 f1 ff ff 	mov    %rax,-0xe10(%rbp)
    a760:	48 8d 85 ec f0 ff ff 	lea    -0xf14(%rbp),%rax
    a767:	48 89 85 c0 f1 ff ff 	mov    %rax,-0xe40(%rbp)
    a76e:	be 01 00 00 00       	mov    $0x1,%esi
    a773:	bf ac 00 00 00       	mov    $0xac,%edi
    a778:	e8 fb 93 ff ff       	callq  3b78 <safe_sub_func_uint8_t_u_u>
    a77d:	89 c3                	mov    %eax,%ebx
    a77f:	48 8b 85 c0 f1 ff ff 	mov    -0xe40(%rbp),%rax
    a786:	8b 00                	mov    (%rax),%eax
    a788:	0f b6 d0             	movzbl %al,%edx
    a78b:	48 8b 05 be 5d 00 00 	mov    0x5dbe(%rip),%rax        # 10550 <g_301>
    a792:	48 8b 00             	mov    (%rax),%rax
    a795:	48 8b 30             	mov    (%rax),%rsi
    a798:	48 8b 8d 78 f1 ff ff 	mov    -0xe88(%rbp),%rcx
    a79f:	48 8b 85 e8 f1 ff ff 	mov    -0xe18(%rbp),%rax
    a7a6:	48 89 08             	mov    %rcx,(%rax)
    a7a9:	48 8b 85 e8 f1 ff ff 	mov    -0xe18(%rbp),%rax
    a7b0:	48 8b 00             	mov    (%rax),%rax
    a7b3:	48 39 c6             	cmp    %rax,%rsi
    a7b6:	0f 95 c0             	setne  %al
    a7b9:	0f b6 c0             	movzbl %al,%eax
    a7bc:	89 d6                	mov    %edx,%esi
    a7be:	89 c7                	mov    %eax,%edi
    a7c0:	e8 b3 93 ff ff       	callq  3b78 <safe_sub_func_uint8_t_u_u>
    a7c5:	38 c3                	cmp    %al,%bl
    a7c7:	48 8b 85 f0 f1 ff ff 	mov    -0xe10(%rbp),%rax
    a7ce:	48 8b 00             	mov    (%rax),%rax
    a7d1:	48 ba f3 45 c8 18 ff 	movabs $0x19938bff18c845f3,%rdx
    a7d8:	8b 93 19 
    a7db:	48 09 c2             	or     %rax,%rdx
    a7de:	48 8b 85 f0 f1 ff ff 	mov    -0xe10(%rbp),%rax
    a7e5:	48 89 10             	mov    %rdx,(%rax)
    a7e8:	0f b7 05 61 58 00 00 	movzwl 0x5861(%rip),%eax        # 10050 <g_69>
    a7ef:	48 0f bf c0          	movswq %ax,%rax
    a7f3:	0f b6 15 52 69 00 00 	movzbl 0x6952(%rip),%edx        # 1114c <g_108>
    a7fa:	0f b6 d2             	movzbl %dl,%edx
    a7fd:	66 81 e2 88 00       	and    $0x88,%dx
    a802:	66 89 15 65 58 00 00 	mov    %dx,0x5865(%rip)        # 1006e <g_160>
    a809:	48 89 c6             	mov    %rax,%rsi
    a80c:	bf 00 00 00 00       	mov    $0x0,%edi
    a811:	e8 9e 91 ff ff       	callq  39b4 <safe_mod_func_int64_t_s_s>
    a816:	48 8b 95 70 f1 ff ff 	mov    -0xe90(%rbp),%rdx
    a81d:	8b 12                	mov    (%rdx),%edx
    a81f:	89 c1                	mov    %eax,%ecx
    a821:	48 8b 85 70 f1 ff ff 	mov    -0xe90(%rbp),%rax
    a828:	21 ca                	and    %ecx,%edx
    a82a:	89 10                	mov    %edx,(%rax)
    a82c:	c7 05 76 58 00 00 ef 	movl   $0xffffffef,0x5876(%rip)        # 100ac <g_337>
    a833:	ff ff ff 
    a836:	e9 fc 01 00 00       	jmpq   aa37 <func_44+0x43e7>
    a83b:	48 8d 05 0e 69 00 00 	lea    0x690e(%rip),%rax        # 11150 <g_162>
    a842:	48 89 85 f8 f1 ff ff 	mov    %rax,-0xe08(%rbp)
    a849:	c7 85 50 f1 ff ff 69 	movl   $0x566fa669,-0xeb0(%rbp)
    a850:	a6 6f 56 
    a853:	48 8d 85 f0 f0 ff ff 	lea    -0xf10(%rbp),%rax
    a85a:	48 89 85 00 f2 ff ff 	mov    %rax,-0xe00(%rbp)
    a861:	0f b6 85 dc f0 ff ff 	movzbl -0xf24(%rbp),%eax
    a868:	0f b6 d8             	movzbl %al,%ebx
    a86b:	48 8b 05 ee 57 00 00 	mov    0x57ee(%rip),%rax        # 10060 <g_76>
    a872:	41 89 c5             	mov    %eax,%r13d
    a875:	0f b7 05 12 58 00 00 	movzwl 0x5812(%rip),%eax        # 1008e <g_251+0x6>
    a87c:	c1 e0 03             	shl    $0x3,%eax
    a87f:	66 c1 f8 0a          	sar    $0xa,%ax
    a883:	0f b6 c0             	movzbl %al,%eax
    a886:	48 8b 95 c8 f1 ff ff 	mov    -0xe38(%rbp),%rdx
    a88d:	c6 02 03             	movb   $0x3,(%rdx)
    a890:	89 c6                	mov    %eax,%esi
    a892:	bf 03 00 00 00       	mov    $0x3,%edi
    a897:	e8 3f 93 ff ff       	callq  3bdb <safe_div_func_uint8_t_u_u>
    a89c:	44 0f b6 e0          	movzbl %al,%r12d
    a8a0:	0f b6 85 dc f0 ff ff 	movzbl -0xf24(%rbp),%eax
    a8a7:	0f b6 c0             	movzbl %al,%eax
    a8aa:	be 01 00 00 00       	mov    $0x1,%esi
    a8af:	89 c7                	mov    %eax,%edi
    a8b1:	e8 a4 92 ff ff       	callq  3b5a <safe_add_func_uint8_t_u_u>
    a8b6:	0f b6 d0             	movzbl %al,%edx
    a8b9:	8b 05 dd 57 00 00    	mov    0x57dd(%rip),%eax        # 1009c <g_255+0xc>
    a8bf:	25 ff ff 7f 00       	and    $0x7fffff,%eax
    a8c4:	0f b7 c0             	movzwl %ax,%eax
    a8c7:	89 d6                	mov    %edx,%esi
    a8c9:	89 c7                	mov    %eax,%edi
    a8cb:	e8 6d 94 ff ff       	callq  3d3d <safe_mul_func_uint16_t_u_u>
    a8d0:	0f b7 d0             	movzwl %ax,%edx
    a8d3:	48 8b 85 f8 f1 ff ff 	mov    -0xe08(%rbp),%rax
    a8da:	89 10                	mov    %edx,(%rax)
    a8dc:	48 8b 85 f8 f1 ff ff 	mov    -0xe08(%rbp),%rax
    a8e3:	8b 10                	mov    (%rax),%edx
    a8e5:	8b 85 50 f1 ff ff    	mov    -0xeb0(%rbp),%eax
    a8eb:	39 c2                	cmp    %eax,%edx
    a8ed:	0f 96 c0             	setbe  %al
    a8f0:	0f b6 c0             	movzbl %al,%eax
    a8f3:	41 39 c4             	cmp    %eax,%r12d
    a8f6:	7d 07                	jge    a8ff <func_44+0x42af>
    a8f8:	ba fc ff 00 00       	mov    $0xfffc,%edx
    a8fd:	eb 05                	jmp    a904 <func_44+0x42b4>
    a8ff:	ba fd ff 00 00       	mov    $0xfffd,%edx
    a904:	8b 05 92 57 00 00    	mov    0x5792(%rip),%eax        # 1009c <g_255+0xc>
    a90a:	25 ff ff 7f 00       	and    $0x7fffff,%eax
    a90f:	89 c0                	mov    %eax,%eax
    a911:	48 39 c2             	cmp    %rax,%rdx
    a914:	0f 93 c0             	setae  %al
    a917:	44 0f b6 e0          	movzbl %al,%r12d
    a91b:	be ff ff ff ff       	mov    $0xffffffff,%esi
    a920:	bf 00 00 00 00       	mov    $0x0,%edi
    a925:	e8 a2 8d ff ff       	callq  36cc <safe_mod_func_int32_t_s_s>
    a92a:	0f b6 d0             	movzbl %al,%edx
    a92d:	48 8b 05 44 57 00 00 	mov    0x5744(%rip),%rax        # 10078 <g_189>
    a934:	0f b6 c0             	movzbl %al,%eax
    a937:	89 d6                	mov    %edx,%esi
    a939:	89 c7                	mov    %eax,%edi
    a93b:	e8 53 92 ff ff       	callq  3b93 <safe_mul_func_uint8_t_u_u>
    a940:	0f b6 d0             	movzbl %al,%edx
    a943:	44 89 e1             	mov    %r12d,%ecx
    a946:	0f b7 05 21 57 00 00 	movzwl 0x5721(%rip),%eax        # 1006e <g_160>
    a94d:	31 c8                	xor    %ecx,%eax
    a94f:	66 89 05 18 57 00 00 	mov    %ax,0x5718(%rip)        # 1006e <g_160>
    a956:	0f b7 05 11 57 00 00 	movzwl 0x5711(%rip),%eax        # 1006e <g_160>
    a95d:	66 35 3c 65          	xor    $0x653c,%ax
    a961:	0f b7 c0             	movzwl %ax,%eax
    a964:	48 09 d0             	or     %rdx,%rax
    a967:	48 85 c0             	test   %rax,%rax
    a96a:	74 10                	je     a97c <func_44+0x432c>
    a96c:	83 bd 4c f1 ff ff 00 	cmpl   $0x0,-0xeb4(%rbp)
    a973:	74 07                	je     a97c <func_44+0x432c>
    a975:	b8 01 00 00 00       	mov    $0x1,%eax
    a97a:	eb 05                	jmp    a981 <func_44+0x4331>
    a97c:	b8 00 00 00 00       	mov    $0x0,%eax
    a981:	83 f8 01             	cmp    $0x1,%eax
    a984:	0f b6 85 dc f0 ff ff 	movzbl -0xf24(%rbp),%eax
    a98b:	0f b6 d0             	movzbl %al,%edx
    a98e:	48 8b 85 00 f2 ff ff 	mov    -0xe00(%rbp),%rax
    a995:	89 10                	mov    %edx,(%rax)
    a997:	8b 85 50 f1 ff ff    	mov    -0xeb0(%rbp),%eax
    a99d:	44 89 ee             	mov    %r13d,%esi
    a9a0:	89 c7                	mov    %eax,%edi
    a9a2:	e8 56 95 ff ff       	callq  3efd <safe_mod_func_uint32_t_u_u>
    a9a7:	0f b7 c0             	movzwl %ax,%eax
    a9aa:	89 de                	mov    %ebx,%esi
    a9ac:	89 c7                	mov    %eax,%edi
    a9ae:	e8 8a 93 ff ff       	callq  3d3d <safe_mul_func_uint16_t_u_u>
    a9b3:	66 85 c0             	test   %ax,%ax
    a9b6:	75 0a                	jne    a9c2 <func_44+0x4372>
    a9b8:	8b 05 aa 56 00 00    	mov    0x56aa(%rip),%eax        # 10068 <g_77>
    a9be:	85 c0                	test   %eax,%eax
    a9c0:	74 07                	je     a9c9 <func_44+0x4379>
    a9c2:	ba 01 00 00 00       	mov    $0x1,%edx
    a9c7:	eb 05                	jmp    a9ce <func_44+0x437e>
    a9c9:	ba 00 00 00 00       	mov    $0x0,%edx
    a9ce:	48 8b 85 c0 f1 ff ff 	mov    -0xe40(%rbp),%rax
    a9d5:	89 10                	mov    %edx,(%rax)
    a9d7:	66 c7 05 64 56 00 00 	movw   $0x0,0x5664(%rip)        # 10044 <g_19>
    a9de:	00 00 
    a9e0:	eb 2a                	jmp    aa0c <func_44+0x43bc>
    a9e2:	0f b7 05 5b 56 00 00 	movzwl 0x565b(%rip),%eax        # 10044 <g_19>
    a9e9:	98                   	cwtl   
    a9ea:	48 98                	cltq   
    a9ec:	48 8d 15 59 67 00 00 	lea    0x6759(%rip),%rdx        # 1114c <g_108>
    a9f3:	48 89 94 c5 10 f4 ff 	mov    %rdx,-0xbf0(%rbp,%rax,8)
    a9fa:	ff 
    a9fb:	0f b7 05 42 56 00 00 	movzwl 0x5642(%rip),%eax        # 10044 <g_19>
    aa02:	83 c0 01             	add    $0x1,%eax
    aa05:	66 89 05 38 56 00 00 	mov    %ax,0x5638(%rip)        # 10044 <g_19>
    aa0c:	0f b7 05 31 56 00 00 	movzwl 0x5631(%rip),%eax        # 10044 <g_19>
    aa13:	66 83 f8 07          	cmp    $0x7,%ax
    aa17:	7e c9                	jle    a9e2 <func_44+0x4392>
    aa19:	8b 85 fc f0 ff ff    	mov    -0xf04(%rbp),%eax
    aa1f:	85 c0                	test   %eax,%eax
    aa21:	74 05                	je     aa28 <func_44+0x43d8>
    aa23:	e9 38 fd ff ff       	jmpq   a760 <func_44+0x4110>
    aa28:	8b 05 7e 56 00 00    	mov    0x567e(%rip),%eax        # 100ac <g_337>
    aa2e:	83 c0 01             	add    $0x1,%eax
    aa31:	89 05 75 56 00 00    	mov    %eax,0x5675(%rip)        # 100ac <g_337>
    aa37:	8b 05 6f 56 00 00    	mov    0x566f(%rip),%eax        # 100ac <g_337>
    aa3d:	83 f8 f8             	cmp    $0xfffffff8,%eax
    aa40:	0f 85 f5 fd ff ff    	jne    a83b <func_44+0x41eb>
    aa46:	48 8b 85 c0 f1 ff ff 	mov    -0xe40(%rbp),%rax
    aa4d:	44 8b 20             	mov    (%rax),%r12d
    aa50:	c7 85 48 f1 ff ff 01 	movl   $0x1,-0xeb8(%rbp)
    aa57:	00 00 00 
    aa5a:	be 06 00 00 00       	mov    $0x6,%esi
    aa5f:	bf 00 00 00 00       	mov    $0x0,%edi
    aa64:	e8 55 93 ff ff       	callq  3dbe <safe_lshift_func_uint16_t_u_s>
    aa69:	0f b7 d0             	movzwl %ax,%edx
    aa6c:	0f b6 85 dc f0 ff ff 	movzbl -0xf24(%rbp),%eax
    aa73:	0f b6 c0             	movzbl %al,%eax
    aa76:	09 d0                	or     %edx,%eax
    aa78:	85 c0                	test   %eax,%eax
    aa7a:	74 10                	je     aa8c <func_44+0x443c>
    aa7c:	83 bd 18 f1 ff ff 00 	cmpl   $0x0,-0xee8(%rbp)
    aa83:	74 07                	je     aa8c <func_44+0x443c>
    aa85:	b8 01 00 00 00       	mov    $0x1,%eax
    aa8a:	eb 05                	jmp    aa91 <func_44+0x4441>
    aa8c:	b8 00 00 00 00       	mov    $0x0,%eax
    aa91:	0f be c0             	movsbl %al,%eax
    aa94:	be 02 00 00 00       	mov    $0x2,%esi
    aa99:	89 c7                	mov    %eax,%edi
    aa9b:	e8 95 88 ff ff       	callq  3335 <safe_rshift_func_int8_t_s_s>
    aaa0:	0f be c0             	movsbl %al,%eax
    aaa3:	be 03 00 00 00       	mov    $0x3,%esi
    aaa8:	89 c7                	mov    %eax,%edi
    aaaa:	e8 32 8a ff ff       	callq  34e1 <safe_lshift_func_int16_t_s_u>
    aaaf:	66 83 f8 01          	cmp    $0x1,%ax
    aab3:	0f 95 c0             	setne  %al
    aab6:	0f b6 c0             	movzbl %al,%eax
    aab9:	0f b7 15 ae 55 00 00 	movzwl 0x55ae(%rip),%edx        # 1006e <g_160>
    aac0:	21 d0                	and    %edx,%eax
    aac2:	0f bf d8             	movswl %ax,%ebx
    aac5:	48 8b 85 70 f1 ff ff 	mov    -0xe90(%rbp),%rax
    aacc:	8b 00                	mov    (%rax),%eax
    aace:	0f b7 c0             	movzwl %ax,%eax
    aad1:	be 03 00 00 00       	mov    $0x3,%esi
    aad6:	89 c7                	mov    %eax,%edi
    aad8:	e8 e1 92 ff ff       	callq  3dbe <safe_lshift_func_uint16_t_u_s>
    aadd:	98                   	cwtl   
    aade:	89 de                	mov    %ebx,%esi
    aae0:	89 c7                	mov    %eax,%edi
    aae2:	e8 cc 88 ff ff       	callq  33b3 <safe_add_func_int16_t_s_s>
    aae7:	89 c2                	mov    %eax,%edx
    aae9:	48 8b 05 40 5a 00 00 	mov    0x5a40(%rip),%rax        # 10530 <g_140>
    aaf0:	88 10                	mov    %dl,(%rax)
    aaf2:	48 8b 85 c8 f1 ff ff 	mov    -0xe38(%rbp),%rax
    aaf9:	0f b6 00             	movzbl (%rax),%eax
    aafc:	8b 95 38 f1 ff ff    	mov    -0xec8(%rbp),%edx
    ab02:	21 c2                	and    %eax,%edx
    ab04:	48 8b 85 c8 f1 ff ff 	mov    -0xe38(%rbp),%rax
    ab0b:	88 10                	mov    %dl,(%rax)
    ab0d:	48 83 bd d8 f1 ff ff 	cmpq   $0x0,-0xe28(%rbp)
    ab14:	00 
    ab15:	8b 85 38 f1 ff ff    	mov    -0xec8(%rbp),%eax
    ab1b:	89 c6                	mov    %eax,%esi
    ab1d:	bf ec be ff ff       	mov    $0xffffbeec,%edi
    ab22:	e8 3c 8a ff ff       	callq  3563 <safe_rshift_func_int16_t_s_u>
    ab27:	98                   	cwtl   
    ab28:	41 39 c4             	cmp    %eax,%r12d
    ab2b:	0f 9e c2             	setle  %dl
    ab2e:	48 8b 85 70 f1 ff ff 	mov    -0xe90(%rbp),%rax
    ab35:	0f b6 d2             	movzbl %dl,%edx
    ab38:	89 10                	mov    %edx,(%rax)
    ab3a:	8b 00                	mov    (%rax),%eax
    ab3c:	89 85 3c f1 ff ff    	mov    %eax,-0xec4(%rbp)
    ab42:	48 8b 05 df 59 00 00 	mov    0x59df(%rip),%rax        # 10528 <g_91>
    ab49:	48 8b 00             	mov    (%rax),%rax
    ab4c:	0f b7 00             	movzwl (%rax),%eax
    ab4f:	98                   	cwtl   
    ab50:	be 05 00 00 00       	mov    $0x5,%esi
    ab55:	89 c7                	mov    %eax,%edi
    ab57:	e8 07 8a ff ff       	callq  3563 <safe_rshift_func_int16_t_s_u>
    ab5c:	48 8b 15 15 55 00 00 	mov    0x5515(%rip),%rdx        # 10078 <g_189>
    ab63:	48 8b 85 70 f1 ff ff 	mov    -0xe90(%rbp),%rax
    ab6a:	89 10                	mov    %edx,(%rax)
    ab6c:	8b 00                	mov    (%rax),%eax
    ab6e:	89 c1                	mov    %eax,%ecx
    ab70:	8b 05 da 65 00 00    	mov    0x65da(%rip),%eax        # 11150 <g_162>
    ab76:	8d 50 01             	lea    0x1(%rax),%edx
    ab79:	89 15 d1 65 00 00    	mov    %edx,0x65d1(%rip)        # 11150 <g_162>
    ab7f:	39 c1                	cmp    %eax,%ecx
    ab81:	48 8b 95 90 f1 ff ff 	mov    -0xe70(%rbp),%rdx
    ab88:	48 8b 85 e0 f1 ff ff 	mov    -0xe20(%rbp),%rax
    ab8f:	48 89 10             	mov    %rdx,(%rax)
    ab92:	48 8b 85 e0 f1 ff ff 	mov    -0xe20(%rbp),%rax
    ab99:	48 8b 10             	mov    (%rax),%rdx
    ab9c:	48 8b 05 cd 5a 00 00 	mov    0x5acd(%rip),%rax        # 10670 <g_592>
    aba3:	48 39 c2             	cmp    %rax,%rdx
    aba6:	0f 95 c0             	setne  %al
    aba9:	0f b6 d0             	movzbl %al,%edx
    abac:	48 8b 85 c0 f1 ff ff 	mov    -0xe40(%rbp),%rax
    abb3:	89 10                	mov    %edx,(%rax)
    abb5:	eb 06                	jmp    abbd <func_44+0x456d>
    abb7:	90                   	nop
    abb8:	e9 48 bd ff ff       	jmpq   6905 <func_44+0x2b5>
    abbd:	48 8b 95 70 f1 ff ff 	mov    -0xe90(%rbp),%rdx
    abc4:	48 8b 85 70 f1 ff ff 	mov    -0xe90(%rbp),%rax
    abcb:	8b 12                	mov    (%rdx),%edx
    abcd:	89 10                	mov    %edx,(%rax)
    abcf:	c7 05 d3 54 00 00 00 	movl   $0x0,0x54d3(%rip)        # 100ac <g_337>
    abd6:	00 00 00 
    abd9:	e9 45 02 00 00       	jmpq   ae23 <func_44+0x47d3>
    abde:	48 c7 85 b0 f6 ff ff 	movq   $0x0,-0x950(%rbp)
    abe5:	00 00 00 00 
    abe9:	48 c7 85 b8 f6 ff ff 	movq   $0x0,-0x948(%rbp)
    abf0:	00 00 00 00 
    abf4:	48 8d 85 ec f0 ff ff 	lea    -0xf14(%rbp),%rax
    abfb:	48 89 85 c0 f6 ff ff 	mov    %rax,-0x940(%rbp)
    ac02:	48 c7 85 c8 f6 ff ff 	movq   $0x0,-0x938(%rbp)
    ac09:	00 00 00 00 
    ac0d:	48 c7 85 d0 f6 ff ff 	movq   $0x0,-0x930(%rbp)
    ac14:	00 00 00 00 
    ac18:	48 8d 85 ec f0 ff ff 	lea    -0xf14(%rbp),%rax
    ac1f:	48 89 85 d8 f6 ff ff 	mov    %rax,-0x928(%rbp)
    ac26:	48 c7 85 e0 f6 ff ff 	movq   $0x0,-0x920(%rbp)
    ac2d:	00 00 00 00 
    ac31:	48 c7 85 e8 f6 ff ff 	movq   $0x0,-0x918(%rbp)
    ac38:	00 00 00 00 
    ac3c:	48 8d 85 ec f0 ff ff 	lea    -0xf14(%rbp),%rax
    ac43:	48 89 85 f0 f6 ff ff 	mov    %rax,-0x910(%rbp)
    ac4a:	c6 85 e1 f0 ff ff b9 	movb   $0xb9,-0xf1f(%rbp)
    ac51:	c7 85 58 f1 ff ff 89 	movl   $0xd0aa0889,-0xea8(%rbp)
    ac58:	08 aa d0 
    ac5b:	48 8d 05 e2 53 00 00 	lea    0x53e2(%rip),%rax        # 10044 <g_19>
    ac62:	48 89 85 60 f3 ff ff 	mov    %rax,-0xca0(%rbp)
    ac69:	c7 85 f8 f0 ff ff 1b 	movl   $0x1b,-0xf08(%rbp)
    ac70:	00 00 00 
    ac73:	e9 8d 01 00 00       	jmpq   ae05 <func_44+0x47b5>
    ac78:	66 c7 85 e6 f0 ff ff 	movw   $0x0,-0xf1a(%rbp)
    ac7f:	00 00 
    ac81:	c7 85 5c f1 ff ff c6 	movl   $0x20a235c6,-0xea4(%rbp)
    ac88:	35 a2 20 
    ac8b:	48 8d 85 e8 f0 ff ff 	lea    -0xf18(%rbp),%rax
    ac92:	48 89 85 68 f3 ff ff 	mov    %rax,-0xc98(%rbp)
    ac99:	48 8d 05 80 58 00 00 	lea    0x5880(%rip),%rax        # 10520 <g_92>
    aca0:	48 89 85 70 f3 ff ff 	mov    %rax,-0xc90(%rbp)
    aca7:	48 8b 85 c0 f6 ff ff 	mov    -0x940(%rbp),%rax
    acae:	48 89 85 70 f1 ff ff 	mov    %rax,-0xe90(%rbp)
    acb5:	c7 05 19 54 00 00 00 	movl   $0x0,0x5419(%rip)        # 100d8 <g_414>
    acbc:	00 00 00 
    acbf:	e9 23 01 00 00       	jmpq   ade7 <func_44+0x4797>
    acc4:	48 8d 05 55 54 00 00 	lea    0x5455(%rip),%rax        # 10120 <g_602>
    accb:	48 89 85 a8 f1 ff ff 	mov    %rax,-0xe58(%rbp)
    acd2:	48 8d 85 a8 f1 ff ff 	lea    -0xe58(%rbp),%rax
    acd9:	48 89 85 30 f8 ff ff 	mov    %rax,-0x7d0(%rbp)
    ace0:	48 8d 85 a8 f1 ff ff 	lea    -0xe58(%rbp),%rax
    ace7:	48 89 85 38 f8 ff ff 	mov    %rax,-0x7c8(%rbp)
    acee:	48 8d 85 a8 f1 ff ff 	lea    -0xe58(%rbp),%rax
    acf5:	48 89 85 40 f8 ff ff 	mov    %rax,-0x7c0(%rbp)
    acfc:	48 8d 85 a8 f1 ff ff 	lea    -0xe58(%rbp),%rax
    ad03:	48 89 85 48 f8 ff ff 	mov    %rax,-0x7b8(%rbp)
    ad0a:	48 8d 85 a8 f1 ff ff 	lea    -0xe58(%rbp),%rax
    ad11:	48 89 85 50 f8 ff ff 	mov    %rax,-0x7b0(%rbp)
    ad18:	48 8d 85 a8 f1 ff ff 	lea    -0xe58(%rbp),%rax
    ad1f:	48 89 85 58 f8 ff ff 	mov    %rax,-0x7a8(%rbp)
    ad26:	48 8d 85 a8 f1 ff ff 	lea    -0xe58(%rbp),%rax
    ad2d:	48 89 85 60 f8 ff ff 	mov    %rax,-0x7a0(%rbp)
    ad34:	48 8d 85 a8 f1 ff ff 	lea    -0xe58(%rbp),%rax
    ad3b:	48 89 85 68 f8 ff ff 	mov    %rax,-0x798(%rbp)
    ad42:	48 8d 85 a8 f1 ff ff 	lea    -0xe58(%rbp),%rax
    ad49:	48 89 85 70 f8 ff ff 	mov    %rax,-0x790(%rbp)
    ad50:	c7 85 60 f1 ff ff 40 	movl   $0xafa7a040,-0xea0(%rbp)
    ad57:	a0 a7 af 
    ad5a:	48 8d 05 5f 53 00 00 	lea    0x535f(%rip),%rax        # 100c0 <g_397+0x10>
    ad61:	48 89 85 78 f3 ff ff 	mov    %rax,-0xc88(%rbp)
    ad68:	c7 85 64 f1 ff ff 1b 	movl   $0x9cd9371b,-0xe9c(%rbp)
    ad6f:	37 d9 9c 
    ad72:	48 b8 33 a9 f9 6e 2b 	movabs $0xa25f942b6ef9a933,%rax
    ad79:	94 5f a2 
    ad7c:	48 89 85 d0 f5 ff ff 	mov    %rax,-0xa30(%rbp)
    ad83:	48 bb 62 0d a9 05 7d 	movabs $0xbccc817d05a90d62,%rbx
    ad8a:	81 cc bc 
    ad8d:	48 89 9d d8 f5 ff ff 	mov    %rbx,-0xa28(%rbp)
    ad94:	48 89 85 e0 f5 ff ff 	mov    %rax,-0xa20(%rbp)
    ad9b:	48 89 9d e8 f5 ff ff 	mov    %rbx,-0xa18(%rbp)
    ada2:	48 89 85 f0 f5 ff ff 	mov    %rax,-0xa10(%rbp)
    ada9:	48 89 9d f8 f5 ff ff 	mov    %rbx,-0xa08(%rbp)
    adb0:	48 89 85 00 f6 ff ff 	mov    %rax,-0xa00(%rbp)
    adb7:	48 89 9d 08 f6 ff ff 	mov    %rbx,-0x9f8(%rbp)
    adbe:	48 8b 85 a8 f1 ff ff 	mov    -0xe58(%rbp),%rax
    adc5:	48 89 05 ac 58 00 00 	mov    %rax,0x58ac(%rip)        # 10678 <g_604>
    adcc:	8b 05 06 53 00 00    	mov    0x5306(%rip),%eax        # 100d8 <g_414>
    add2:	48 98                	cltq   
    add4:	be 01 00 00 00       	mov    $0x1,%esi
    add9:	48 89 c7             	mov    %rax,%rdi
    addc:	e8 c7 8a ff ff       	callq  38a8 <safe_sub_func_int64_t_s_s>
    ade1:	89 05 f1 52 00 00    	mov    %eax,0x52f1(%rip)        # 100d8 <g_414>
    ade7:	8b 05 eb 52 00 00    	mov    0x52eb(%rip),%eax        # 100d8 <g_414>
    aded:	83 f8 f1             	cmp    $0xfffffff1,%eax
    adf0:	0f 85 ce fe ff ff    	jne    acc4 <func_44+0x4674>
    adf6:	8b 85 f8 f0 ff ff    	mov    -0xf08(%rbp),%eax
    adfc:	83 e8 01             	sub    $0x1,%eax
    adff:	89 85 f8 f0 ff ff    	mov    %eax,-0xf08(%rbp)
    ae05:	8b 85 f8 f0 ff ff    	mov    -0xf08(%rbp),%eax
    ae0b:	83 f8 04             	cmp    $0x4,%eax
    ae0e:	0f 8f 64 fe ff ff    	jg     ac78 <func_44+0x4628>
    ae14:	8b 05 92 52 00 00    	mov    0x5292(%rip),%eax        # 100ac <g_337>
    ae1a:	83 c0 01             	add    $0x1,%eax
    ae1d:	89 05 89 52 00 00    	mov    %eax,0x5289(%rip)        # 100ac <g_337>
    ae23:	8b 05 83 52 00 00    	mov    0x5283(%rip),%eax        # 100ac <g_337>
    ae29:	83 f8 0c             	cmp    $0xc,%eax
    ae2c:	0f 8f ac fd ff ff    	jg     abde <func_44+0x458e>
    ae32:	0f b6 85 dc f0 ff ff 	movzbl -0xf24(%rbp),%eax
    ae39:	0f b6 c0             	movzbl %al,%eax
    ae3c:	48 8b 5d c8          	mov    -0x38(%rbp),%rbx
    ae40:	64 48 33 1c 25 28 00 	xor    %fs:0x28,%rbx
    ae47:	00 00 
    ae49:	74 05                	je     ae50 <func_44+0x4800>
    ae4b:	e8 20 82 ff ff       	callq  3070 <__stack_chk_fail@plt>
    ae50:	48 81 c4 08 0f 00 00 	add    $0xf08,%rsp
    ae57:	5b                   	pop    %rbx
    ae58:	41 5c                	pop    %r12
    ae5a:	41 5d                	pop    %r13
    ae5c:	41 5e                	pop    %r14
    ae5e:	41 5f                	pop    %r15
    ae60:	5d                   	pop    %rbp
    ae61:	c3                   	retq   

000000000000ae62 <func_46>:
    ae62:	f3 0f 1e fa          	endbr64 
    ae66:	55                   	push   %rbp
    ae67:	48 89 e5             	mov    %rsp,%rbp
    ae6a:	41 57                	push   %r15
    ae6c:	41 56                	push   %r14
    ae6e:	41 55                	push   %r13
    ae70:	41 54                	push   %r12
    ae72:	53                   	push   %rbx
    ae73:	48 81 ec 48 03 00 00 	sub    $0x348,%rsp
    ae7a:	89 b5 a8 fc ff ff    	mov    %esi,-0x358(%rbp)
    ae80:	89 d0                	mov    %edx,%eax
    ae82:	48 89 8d 98 fc ff ff 	mov    %rcx,-0x368(%rbp)
    ae89:	89 fa                	mov    %edi,%edx
    ae8b:	88 95 ac fc ff ff    	mov    %dl,-0x354(%rbp)
    ae91:	88 85 a4 fc ff ff    	mov    %al,-0x35c(%rbp)
    ae97:	64 48 8b 04 25 28 00 	mov    %fs:0x28,%rax
    ae9e:	00 00 
    aea0:	48 89 45 c8          	mov    %rax,-0x38(%rbp)
    aea4:	31 c0                	xor    %eax,%eax
    aea6:	48 8d 05 93 51 00 00 	lea    0x5193(%rip),%rax        # 10040 <g_6>
    aead:	48 89 85 e8 fc ff ff 	mov    %rax,-0x318(%rbp)
    aeb4:	48 8d 85 e8 fc ff ff 	lea    -0x318(%rbp),%rax
    aebb:	48 89 85 20 fe ff ff 	mov    %rax,-0x1e0(%rbp)
    aec2:	48 8d 85 e8 fc ff ff 	lea    -0x318(%rbp),%rax
    aec9:	48 89 85 28 fe ff ff 	mov    %rax,-0x1d8(%rbp)
    aed0:	48 8d 85 e8 fc ff ff 	lea    -0x318(%rbp),%rax
    aed7:	48 89 85 30 fe ff ff 	mov    %rax,-0x1d0(%rbp)
    aede:	48 8d 85 e8 fc ff ff 	lea    -0x318(%rbp),%rax
    aee5:	48 89 85 38 fe ff ff 	mov    %rax,-0x1c8(%rbp)
    aeec:	48 8d 85 e8 fc ff ff 	lea    -0x318(%rbp),%rax
    aef3:	48 89 85 40 fe ff ff 	mov    %rax,-0x1c0(%rbp)
    aefa:	48 8d 85 e8 fc ff ff 	lea    -0x318(%rbp),%rax
    af01:	48 89 85 48 fe ff ff 	mov    %rax,-0x1b8(%rbp)
    af08:	48 8d 85 e8 fc ff ff 	lea    -0x318(%rbp),%rax
    af0f:	48 89 85 50 fe ff ff 	mov    %rax,-0x1b0(%rbp)
    af16:	48 8d 85 e8 fc ff ff 	lea    -0x318(%rbp),%rax
    af1d:	48 89 85 58 fe ff ff 	mov    %rax,-0x1a8(%rbp)
    af24:	48 8d 85 e8 fc ff ff 	lea    -0x318(%rbp),%rax
    af2b:	48 89 85 60 fe ff ff 	mov    %rax,-0x1a0(%rbp)
    af32:	48 8d 85 e8 fc ff ff 	lea    -0x318(%rbp),%rax
    af39:	48 89 85 68 fe ff ff 	mov    %rax,-0x198(%rbp)
    af40:	48 8d 85 e8 fc ff ff 	lea    -0x318(%rbp),%rax
    af47:	48 89 85 70 fe ff ff 	mov    %rax,-0x190(%rbp)
    af4e:	48 8d 85 e8 fc ff ff 	lea    -0x318(%rbp),%rax
    af55:	48 89 85 78 fe ff ff 	mov    %rax,-0x188(%rbp)
    af5c:	48 8d 05 e5 61 00 00 	lea    0x61e5(%rip),%rax        # 11148 <g_41>
    af63:	48 89 85 a0 fd ff ff 	mov    %rax,-0x260(%rbp)
    af6a:	48 8d 85 e8 fc ff ff 	lea    -0x318(%rbp),%rax
    af71:	48 89 85 a8 fd ff ff 	mov    %rax,-0x258(%rbp)
    af78:	c7 85 e4 fc ff ff 04 	movl   $0x4,-0x31c(%rbp)
    af7f:	00 00 00 
    af82:	48 8d 05 bb 50 00 00 	lea    0x50bb(%rip),%rax        # 10044 <g_19>
    af89:	48 89 85 b0 fd ff ff 	mov    %rax,-0x250(%rbp)
    af90:	48 8d 05 99 55 00 00 	lea    0x5599(%rip),%rax        # 10530 <g_140>
    af97:	48 89 85 b8 fd ff ff 	mov    %rax,-0x248(%rbp)
    af9e:	48 8d 05 cb 50 00 00 	lea    0x50cb(%rip),%rax        # 10070 <g_161>
    afa5:	48 89 85 f0 fc ff ff 	mov    %rax,-0x310(%rbp)
    afac:	48 8d 05 bb 50 00 00 	lea    0x50bb(%rip),%rax        # 1006e <g_160>
    afb3:	48 89 85 c0 fd ff ff 	mov    %rax,-0x240(%rbp)
    afba:	48 c7 85 c8 fd ff ff 	movq   $0x1,-0x238(%rbp)
    afc1:	01 00 00 00 
    afc5:	48 8b 85 e8 fc ff ff 	mov    -0x318(%rbp),%rax
    afcc:	48 89 85 a0 fd ff ff 	mov    %rax,-0x260(%rbp)
    afd3:	8b 05 8f 50 00 00    	mov    0x508f(%rip),%eax        # 10068 <g_77>
    afd9:	83 e8 01             	sub    $0x1,%eax
    afdc:	89 05 86 50 00 00    	mov    %eax,0x5086(%rip)        # 10068 <g_77>
    afe2:	8b 05 60 61 00 00    	mov    0x6160(%rip),%eax        # 11148 <g_41>
    afe8:	89 c2                	mov    %eax,%edx
    afea:	8b 05 78 50 00 00    	mov    0x5078(%rip),%eax        # 10068 <g_77>
    aff0:	39 c2                	cmp    %eax,%edx
    aff2:	0f 83 a6 00 00 00    	jae    b09e <func_46+0x23c>
    aff8:	c7 85 bc fc ff ff ff 	movl   $0xffffffff,-0x344(%rbp)
    afff:	ff ff ff 
    b002:	48 8d 85 e8 fc ff ff 	lea    -0x318(%rbp),%rax
    b009:	48 89 85 20 fd ff ff 	mov    %rax,-0x2e0(%rbp)
    b010:	48 8d 85 20 fe ff ff 	lea    -0x1e0(%rbp),%rax
    b017:	48 89 85 28 fd ff ff 	mov    %rax,-0x2d8(%rbp)
    b01e:	8b 85 bc fc ff ff    	mov    -0x344(%rbp),%eax
    b024:	98                   	cwtl   
    b025:	be 08 00 00 00       	mov    $0x8,%esi
    b02a:	89 c7                	mov    %eax,%edi
    b02c:	e8 b0 84 ff ff       	callq  34e1 <safe_lshift_func_int16_t_s_u>
    b031:	48 0f bf c8          	movswq %ax,%rcx
    b035:	48 8b 85 a0 fd ff ff 	mov    -0x260(%rbp),%rax
    b03c:	8b 00                	mov    (%rax),%eax
    b03e:	48 63 d0             	movslq %eax,%rdx
    b041:	48 8b 05 18 50 00 00 	mov    0x5018(%rip),%rax        # 10060 <g_76>
    b048:	48 89 d6             	mov    %rdx,%rsi
    b04b:	48 31 c6             	xor    %rax,%rsi
    b04e:	48 8b 85 28 fd ff ff 	mov    -0x2d8(%rbp),%rax
    b055:	48 8b 95 20 fd ff ff 	mov    -0x2e0(%rbp),%rdx
    b05c:	48 89 10             	mov    %rdx,(%rax)
    b05f:	48 8b 85 28 fd ff ff 	mov    -0x2d8(%rbp),%rax
    b066:	48 8b 00             	mov    (%rax),%rax
    b069:	48 8d 95 e8 fc ff ff 	lea    -0x318(%rbp),%rdx
    b070:	48 89 95 a8 fd ff ff 	mov    %rdx,-0x258(%rbp)
    b077:	48 39 85 a8 fd ff ff 	cmp    %rax,-0x258(%rbp)
    b07e:	0f 95 c0             	setne  %al
    b081:	0f b6 c0             	movzbl %al,%eax
    b084:	48 31 f0             	xor    %rsi,%rax
    b087:	48 f7 d0             	not    %rax
    b08a:	48 39 c1             	cmp    %rax,%rcx
    b08d:	0f 9e c0             	setle  %al
    b090:	0f b6 c0             	movzbl %al,%eax
    b093:	89 85 e4 fc ff ff    	mov    %eax,-0x31c(%rbp)
    b099:	e9 c8 07 00 00       	jmpq   b866 <func_46+0xa04>
    b09e:	48 8d 05 ab 4f 00 00 	lea    0x4fab(%rip),%rax        # 10050 <g_69>
    b0a5:	48 89 85 f8 fc ff ff 	mov    %rax,-0x308(%rbp)
    b0ac:	48 8d 85 f8 fc ff ff 	lea    -0x308(%rbp),%rax
    b0b3:	48 89 85 00 fd ff ff 	mov    %rax,-0x300(%rbp)
    b0ba:	48 8d 85 00 fd ff ff 	lea    -0x300(%rbp),%rax
    b0c1:	48 89 85 98 fd ff ff 	mov    %rax,-0x268(%rbp)
    b0c8:	c7 85 b4 fc ff ff 01 	movl   $0x1,-0x34c(%rbp)
    b0cf:	00 00 00 
    b0d2:	48 8d 05 73 60 00 00 	lea    0x6073(%rip),%rax        # 1114c <g_108>
    b0d9:	48 89 85 90 fd ff ff 	mov    %rax,-0x270(%rbp)
    b0e0:	48 8d 05 5d 4f 00 00 	lea    0x4f5d(%rip),%rax        # 10044 <g_19>
    b0e7:	48 89 85 88 fd ff ff 	mov    %rax,-0x278(%rbp)
    b0ee:	48 8d 05 63 4f 00 00 	lea    0x4f63(%rip),%rax        # 10058 <g_75>
    b0f5:	48 89 85 08 fd ff ff 	mov    %rax,-0x2f8(%rbp)
    b0fc:	48 8d 05 5d 4f 00 00 	lea    0x4f5d(%rip),%rax        # 10060 <g_76>
    b103:	48 89 85 70 fd ff ff 	mov    %rax,-0x290(%rbp)
    b10a:	48 c7 85 78 fd ff ff 	movq   $0x0,-0x288(%rbp)
    b111:	00 00 00 00 
    b115:	48 8d 05 50 4f 00 00 	lea    0x4f50(%rip),%rax        # 1006c <g_114>
    b11c:	48 89 85 80 fd ff ff 	mov    %rax,-0x280(%rbp)
    b123:	c7 85 c0 fc ff ff ff 	movl   $0xffffffff,-0x340(%rbp)
    b12a:	ff ff ff 
    b12d:	c7 85 dc fc ff ff 03 	movl   $0x3,-0x324(%rbp)
    b134:	00 00 00 
    b137:	c7 85 e0 fc ff ff da 	movl   $0x646722da,-0x320(%rbp)
    b13e:	22 67 64 
    b141:	48 8d 05 40 4f 00 00 	lea    0x4f40(%rip),%rax        # 10088 <g_251>
    b148:	48 89 85 68 fd ff ff 	mov    %rax,-0x298(%rbp)
    b14f:	c7 85 c4 fc ff ff ff 	movl   $0xffffffff,-0x33c(%rbp)
    b156:	ff ff ff 
    b159:	8b 05 f5 4e 00 00    	mov    0x4ef5(%rip),%eax        # 10054 <g_74>
    b15f:	85 c0                	test   %eax,%eax
    b161:	74 3c                	je     b19f <func_46+0x33d>
    b163:	48 8b 95 00 fd ff ff 	mov    -0x300(%rbp),%rdx
    b16a:	48 8b 85 98 fd ff ff 	mov    -0x268(%rbp),%rax
    b171:	48 89 10             	mov    %rdx,(%rax)
    b174:	48 8b 85 98 fd ff ff 	mov    -0x268(%rbp),%rax
    b17b:	48 8b 10             	mov    (%rax),%rdx
    b17e:	48 8b 05 a3 53 00 00 	mov    0x53a3(%rip),%rax        # 10528 <g_91>
    b185:	48 89 05 9c 53 00 00 	mov    %rax,0x539c(%rip)        # 10528 <g_91>
    b18c:	48 8b 05 95 53 00 00 	mov    0x5395(%rip),%rax        # 10528 <g_91>
    b193:	48 39 c2             	cmp    %rax,%rdx
    b196:	74 07                	je     b19f <func_46+0x33d>
    b198:	b8 01 00 00 00       	mov    $0x1,%eax
    b19d:	eb 05                	jmp    b1a4 <func_46+0x342>
    b19f:	b8 00 00 00 00       	mov    $0x0,%eax
    b1a4:	89 85 b4 fc ff ff    	mov    %eax,-0x34c(%rbp)
    b1aa:	48 8b 85 e8 fc ff ff 	mov    -0x318(%rbp),%rax
    b1b1:	8b 18                	mov    (%rax),%ebx
    b1b3:	be 89 95 ff ff       	mov    $0xffff9589,%esi
    b1b8:	bf b9 70 00 00       	mov    $0x70b9,%edi
    b1bd:	e8 93 82 ff ff       	callq  3455 <safe_div_func_int16_t_s_s>
    b1c2:	8b 85 a8 fc ff ff    	mov    -0x358(%rbp),%eax
    b1c8:	4c 63 e0             	movslq %eax,%r12
    b1cb:	8b 05 7b 4e 00 00    	mov    0x4e7b(%rip),%eax        # 1004c <g_68>
    b1d1:	0f be d0             	movsbl %al,%edx
    b1d4:	48 8b 85 98 fd ff ff 	mov    -0x268(%rbp),%rax
    b1db:	48 8b 00             	mov    (%rax),%rax
    b1de:	48 8b 00             	mov    (%rax),%rax
    b1e1:	0f b7 08             	movzwl (%rax),%ecx
    b1e4:	8b 85 b4 fc ff ff    	mov    -0x34c(%rbp),%eax
    b1ea:	89 c6                	mov    %eax,%esi
    b1ec:	48 8b 85 98 fd ff ff 	mov    -0x268(%rbp),%rax
    b1f3:	48 8b 00             	mov    (%rax),%rax
    b1f6:	48 8b 00             	mov    (%rax),%rax
    b1f9:	31 f1                	xor    %esi,%ecx
    b1fb:	66 89 08             	mov    %cx,(%rax)
    b1fe:	0f b7 08             	movzwl (%rax),%ecx
    b201:	48 8b 85 88 fd ff ff 	mov    -0x278(%rbp),%rax
    b208:	66 89 08             	mov    %cx,(%rax)
    b20b:	48 8b 85 a8 fd ff ff 	mov    -0x258(%rbp),%rax
    b212:	48 8b 00             	mov    (%rax),%rax
    b215:	8b 00                	mov    (%rax),%eax
    b217:	89 c1                	mov    %eax,%ecx
    b219:	48 8b 85 90 fd ff ff 	mov    -0x270(%rbp),%rax
    b220:	88 08                	mov    %cl,(%rax)
    b222:	48 8b 85 90 fd ff ff 	mov    -0x270(%rbp),%rax
    b229:	0f b6 00             	movzbl (%rax),%eax
    b22c:	3c 01                	cmp    $0x1,%al
    b22e:	0f 95 c0             	setne  %al
    b231:	0f b6 f0             	movzbl %al,%esi
    b234:	48 8b 85 08 fd ff ff 	mov    -0x2f8(%rbp),%rax
    b23b:	0f b6 08             	movzbl (%rax),%ecx
    b23e:	48 8b 85 08 fd ff ff 	mov    -0x2f8(%rbp),%rax
    b245:	21 f1                	and    %esi,%ecx
    b247:	88 08                	mov    %cl,(%rax)
    b249:	0f b6 00             	movzbl (%rax),%eax
    b24c:	0f be c0             	movsbl %al,%eax
    b24f:	89 d6                	mov    %edx,%esi
    b251:	89 c7                	mov    %eax,%edi
    b253:	e8 12 80 ff ff       	callq  326a <safe_div_func_int8_t_s_s>
    b258:	bf be 4c ff d7       	mov    $0xd7ff4cbe,%edi
    b25d:	e8 34 83 ff ff       	callq  3596 <safe_unary_minus_func_int32_t_s>
    b262:	83 f8 f8             	cmp    $0xfffffff8,%eax
    b265:	0f 9d c0             	setge  %al
    b268:	0f b6 d0             	movzbl %al,%edx
    b26b:	48 8b 85 70 fd ff ff 	mov    -0x290(%rbp),%rax
    b272:	48 89 10             	mov    %rdx,(%rax)
    b275:	48 8b 85 70 fd ff ff 	mov    -0x290(%rbp),%rax
    b27c:	48 8b 00             	mov    (%rax),%rax
    b27f:	4c 89 e6             	mov    %r12,%rsi
    b282:	48 89 c7             	mov    %rax,%rdi
    b285:	e8 1e 86 ff ff       	callq  38a8 <safe_sub_func_int64_t_s_s>
    b28a:	48 39 85 98 fc ff ff 	cmp    %rax,-0x368(%rbp)
    b291:	0f 96 c0             	setbe  %al
    b294:	0f b6 c0             	movzbl %al,%eax
    b297:	8b 95 b4 fc ff ff    	mov    -0x34c(%rbp),%edx
    b29d:	31 c2                	xor    %eax,%edx
    b29f:	48 8b 85 80 fd ff ff 	mov    -0x280(%rbp),%rax
    b2a6:	66 89 10             	mov    %dx,(%rax)
    b2a9:	bf 07 00 00 00       	mov    $0x7,%edi
    b2ae:	e8 92 88 ff ff       	callq  3b45 <safe_unary_minus_func_uint8_t_u>
    b2b3:	0f b6 d0             	movzbl %al,%edx
    b2b6:	8b 05 8c 5e 00 00    	mov    0x5e8c(%rip),%eax        # 11148 <g_41>
    b2bc:	39 c2                	cmp    %eax,%edx
    b2be:	0f b6 85 ac fc ff ff 	movzbl -0x354(%rbp),%eax
    b2c5:	0f be c0             	movsbl %al,%eax
    b2c8:	89 de                	mov    %ebx,%esi
    b2ca:	89 c7                	mov    %eax,%edi
    b2cc:	e8 2e 84 ff ff       	callq  36ff <safe_div_func_int32_t_s_s>
    b2d1:	48 8d 85 f0 fc ff ff 	lea    -0x310(%rbp),%rax
    b2d8:	48 89 85 10 fd ff ff 	mov    %rax,-0x2f0(%rbp)
    b2df:	c7 85 d8 fc ff ff 82 	movl   $0xc5693882,-0x328(%rbp)
    b2e6:	38 69 c5 
    b2e9:	48 8d 85 80 fe ff ff 	lea    -0x180(%rbp),%rax
    b2f0:	48 8d 15 89 20 00 00 	lea    0x2089(%rip),%rdx        # d380 <g_327+0x328>
    b2f7:	b9 1e 00 00 00       	mov    $0x1e,%ecx
    b2fc:	48 89 c7             	mov    %rax,%rdi
    b2ff:	48 89 d6             	mov    %rdx,%rsi
    b302:	f3 48 a5             	rep movsq %ds:(%rsi),%es:(%rdi)
    b305:	48 89 f2             	mov    %rsi,%rdx
    b308:	48 89 f8             	mov    %rdi,%rax
    b30b:	8b 0a                	mov    (%rdx),%ecx
    b30d:	89 08                	mov    %ecx,(%rax)
    b30f:	48 8d 40 04          	lea    0x4(%rax),%rax
    b313:	48 8d 52 04          	lea    0x4(%rdx),%rdx
    b317:	0f b6 0a             	movzbl (%rdx),%ecx
    b31a:	88 08                	mov    %cl,(%rax)
    b31c:	48 8d 40 01          	lea    0x1(%rax),%rax
    b320:	48 8d 52 01          	lea    0x1(%rdx),%rdx
    b324:	c7 85 b8 fc ff ff 00 	movl   $0x0,-0x348(%rbp)
    b32b:	00 00 00 
    b32e:	eb 1b                	jmp    b34b <func_46+0x4e9>
    b330:	8b 85 b8 fc ff ff    	mov    -0x348(%rbp),%eax
    b336:	48 98                	cltq   
    b338:	48 c7 84 c5 d0 fd ff 	movq   $0x0,-0x230(%rbp,%rax,8)
    b33f:	ff 00 00 00 00 
    b344:	83 85 b8 fc ff ff 01 	addl   $0x1,-0x348(%rbp)
    b34b:	83 bd b8 fc ff ff 09 	cmpl   $0x9,-0x348(%rbp)
    b352:	7e dc                	jle    b330 <func_46+0x4ce>
    b354:	c7 85 a8 fc ff ff 00 	movl   $0x0,-0x358(%rbp)
    b35b:	00 00 00 
    b35e:	e9 f4 04 00 00       	jmpq   b857 <func_46+0x9f5>
    b363:	c7 85 c8 fc ff ff fc 	movl   $0xfffffffc,-0x338(%rbp)
    b36a:	ff ff ff 
    b36d:	c7 85 cc fc ff ff 67 	movl   $0xfb297967,-0x334(%rbp)
    b374:	79 29 fb 
    b377:	c7 85 d0 fc ff ff 77 	movl   $0xcd7b2c77,-0x330(%rbp)
    b37e:	2c 7b cd 
    b381:	0f b7 05 bc 4c 00 00 	movzwl 0x4cbc(%rip),%eax        # 10044 <g_19>
    b388:	66 85 c0             	test   %ax,%ax
    b38b:	0f 84 de 02 00 00    	je     b66f <func_46+0x80d>
    b391:	48 8d 85 10 fd ff ff 	lea    -0x2f0(%rbp),%rax
    b398:	48 89 85 30 fd ff ff 	mov    %rax,-0x2d0(%rbp)
    b39f:	48 8d 05 c8 4c 00 00 	lea    0x4cc8(%rip),%rax        # 1006e <g_160>
    b3a6:	48 89 85 38 fd ff ff 	mov    %rax,-0x2c8(%rbp)
    b3ad:	44 8b ad a8 fc ff ff 	mov    -0x358(%rbp),%r13d
    b3b4:	83 bd d8 fc ff ff fc 	cmpl   $0xfffffffc,-0x328(%rbp)
    b3bb:	0f 8d 8d 00 00 00    	jge    b44e <func_46+0x5ec>
    b3c1:	8b 85 a8 fc ff ff    	mov    -0x358(%rbp),%eax
    b3c7:	0f bf d8             	movswl %ax,%ebx
    b3ca:	0f b7 05 7f 4c 00 00 	movzwl 0x4c7f(%rip),%eax        # 10050 <g_69>
    b3d1:	4c 0f bf e0          	movswq %ax,%r12
    b3d5:	8b 15 95 26 00 00    	mov    0x2695(%rip),%edx        # da70 <l_205.4601>
    b3db:	8b 85 d8 fc ff ff    	mov    -0x328(%rbp),%eax
    b3e1:	89 d6                	mov    %edx,%esi
    b3e3:	89 c7                	mov    %eax,%edi
    b3e5:	e8 e2 82 ff ff       	callq  36cc <safe_mod_func_int32_t_s_s>
    b3ea:	89 c2                	mov    %eax,%edx
    b3ec:	48 8b 05 3d 51 00 00 	mov    0x513d(%rip),%rax        # 10530 <g_140>
    b3f3:	0f b6 00             	movzbl (%rax),%eax
    b3f6:	0f be c0             	movsbl %al,%eax
    b3f9:	89 d6                	mov    %edx,%esi
    b3fb:	89 c7                	mov    %eax,%edi
    b3fd:	e8 6a 7f ff ff       	callq  336c <safe_rshift_func_int8_t_s_u>
    b402:	0f b6 05 4f 4c 00 00 	movzbl 0x4c4f(%rip),%eax        # 10058 <g_75>
    b409:	48 0f be c0          	movsbq %al,%rax
    b40d:	4c 89 e6             	mov    %r12,%rsi
    b410:	48 89 c7             	mov    %rax,%rdi
    b413:	e8 97 8c ff ff       	callq  40af <safe_div_func_uint64_t_u_u>
    b418:	48 c7 c2 fe ff ff ff 	mov    $0xfffffffffffffffe,%rdx
    b41f:	48 8b 85 88 fd ff ff 	mov    -0x278(%rbp),%rax
    b426:	0f b7 00             	movzwl (%rax),%eax
    b429:	31 c2                	xor    %eax,%edx
    b42b:	48 8b 85 88 fd ff ff 	mov    -0x278(%rbp),%rax
    b432:	66 89 10             	mov    %dx,(%rax)
    b435:	48 8b 85 88 fd ff ff 	mov    -0x278(%rbp),%rax
    b43c:	0f b7 00             	movzwl (%rax),%eax
    b43f:	98                   	cwtl   
    b440:	89 de                	mov    %ebx,%esi
    b442:	89 c7                	mov    %eax,%edi
    b444:	e8 8a 7f ff ff       	callq  33d3 <safe_sub_func_int16_t_s_s>
    b449:	66 85 c0             	test   %ax,%ax
    b44c:	74 07                	je     b455 <func_46+0x5f3>
    b44e:	b8 01 00 00 00       	mov    $0x1,%eax
    b453:	eb 05                	jmp    b45a <func_46+0x5f8>
    b455:	b8 00 00 00 00       	mov    $0x0,%eax
    b45a:	48 63 d0             	movslq %eax,%rdx
    b45d:	0f b6 05 0c 4c 00 00 	movzbl 0x4c0c(%rip),%eax        # 10070 <g_161>
    b464:	48 0f be c0          	movsbq %al,%rax
    b468:	48 39 c2             	cmp    %rax,%rdx
    b46b:	0f 97 c0             	seta   %al
    b46e:	0f b6 c0             	movzbl %al,%eax
    b471:	39 85 d8 fc ff ff    	cmp    %eax,-0x328(%rbp)
    b477:	0f 95 c0             	setne  %al
    b47a:	0f b6 d0             	movzbl %al,%edx
    b47d:	8b 05 ed 25 00 00    	mov    0x25ed(%rip),%eax        # da70 <l_205.4601>
    b483:	39 c2                	cmp    %eax,%edx
    b485:	0f 9c c0             	setl   %al
    b488:	0f b6 d0             	movzbl %al,%edx
    b48b:	8b 05 df 25 00 00    	mov    0x25df(%rip),%eax        # da70 <l_205.4601>
    b491:	39 c2                	cmp    %eax,%edx
    b493:	0f 95 c0             	setne  %al
    b496:	0f b6 c0             	movzbl %al,%eax
    b499:	33 85 d8 fc ff ff    	xor    -0x328(%rbp),%eax
    b49f:	83 f0 01             	xor    $0x1,%eax
    b4a2:	48 98                	cltq   
    b4a4:	48 39 85 98 fc ff ff 	cmp    %rax,-0x368(%rbp)
    b4ab:	8b 85 c8 fc ff ff    	mov    -0x338(%rbp),%eax
    b4b1:	89 c2                	mov    %eax,%edx
    b4b3:	48 8b 85 38 fd ff ff 	mov    -0x2c8(%rbp),%rax
    b4ba:	66 89 10             	mov    %dx,(%rax)
    b4bd:	48 8b 85 38 fd ff ff 	mov    -0x2c8(%rbp),%rax
    b4c4:	0f b7 00             	movzwl (%rax),%eax
    b4c7:	0f bf d0             	movswl %ax,%edx
    b4ca:	48 8b 8d 10 fd ff ff 	mov    -0x2f0(%rbp),%rcx
    b4d1:	48 8b 85 30 fd ff ff 	mov    -0x2d0(%rbp),%rax
    b4d8:	48 89 08             	mov    %rcx,(%rax)
    b4db:	48 8b 85 30 fd ff ff 	mov    -0x2d0(%rbp),%rax
    b4e2:	48 8b 00             	mov    (%rax),%rax
    b4e5:	48 8d 0d 44 50 00 00 	lea    0x5044(%rip),%rcx        # 10530 <g_140>
    b4ec:	48 39 c8             	cmp    %rcx,%rax
    b4ef:	0f 95 c0             	setne  %al
    b4f2:	0f b6 c0             	movzbl %al,%eax
    b4f5:	89 d6                	mov    %edx,%esi
    b4f7:	89 c7                	mov    %eax,%edi
    b4f9:	e8 f7 7e ff ff       	callq  33f5 <safe_mul_func_int16_t_s_s>
    b4fe:	98                   	cwtl   
    b4ff:	41 39 c5             	cmp    %eax,%r13d
    b502:	0f 9d c0             	setge  %al
    b505:	0f b6 c0             	movzbl %al,%eax
    b508:	89 85 b4 fc ff ff    	mov    %eax,-0x34c(%rbp)
    b50e:	8b 9d d8 fc ff ff    	mov    -0x328(%rbp),%ebx
    b514:	0f b7 05 51 4b 00 00 	movzwl 0x4b51(%rip),%eax        # 1006c <g_114>
    b51b:	44 0f b7 e0          	movzwl %ax,%r12d
    b51f:	0f b7 05 2a 4b 00 00 	movzwl 0x4b2a(%rip),%eax        # 10050 <g_69>
    b526:	44 0f bf e8          	movswl %ax,%r13d
    b52a:	4c 0f be b5 a4 fc ff 	movsbq -0x35c(%rbp),%r14
    b531:	ff 
    b532:	8b 15 38 25 00 00    	mov    0x2538(%rip),%edx        # da70 <l_205.4601>
    b538:	48 8b 05 f9 4f 00 00 	mov    0x4ff9(%rip),%rax        # 10538 <g_226>
    b53f:	48 85 c0             	test   %rax,%rax
    b542:	0f 95 c0             	setne  %al
    b545:	0f b6 c0             	movzbl %al,%eax
    b548:	39 c2                	cmp    %eax,%edx
    b54a:	0f 95 c0             	setne  %al
    b54d:	0f b6 d0             	movzbl %al,%edx
    b550:	8b 85 a8 fc ff ff    	mov    -0x358(%rbp),%eax
    b556:	09 c2                	or     %eax,%edx
    b558:	0f b6 85 ac fc ff ff 	movzbl -0x354(%rbp),%eax
    b55f:	0f be c0             	movsbl %al,%eax
    b562:	39 c2                	cmp    %eax,%edx
    b564:	0f 9e c0             	setle  %al
    b567:	0f b6 c0             	movzbl %al,%eax
    b56a:	48 c7 c6 ff ff ff ff 	mov    $0xffffffffffffffff,%rsi
    b571:	48 89 c7             	mov    %rax,%rdi
    b574:	e8 2f 83 ff ff       	callq  38a8 <safe_sub_func_int64_t_s_s>
    b579:	4c 89 f6             	mov    %r14,%rsi
    b57c:	48 89 c7             	mov    %rax,%rdi
    b57f:	e8 24 83 ff ff       	callq  38a8 <safe_sub_func_int64_t_s_s>
    b584:	0f b7 05 f5 4a 00 00 	movzwl 0x4af5(%rip),%eax        # 10080 <g_218>
    b58b:	0f b7 c0             	movzwl %ax,%eax
    b58e:	89 c6                	mov    %eax,%esi
    b590:	bf 08 5c 00 00       	mov    $0x5c08,%edi
    b595:	e8 c9 7f ff ff       	callq  3563 <safe_rshift_func_int16_t_s_u>
    b59a:	44 0f bf f0          	movswl %ax,%r14d
    b59e:	44 0f be bd a4 fc ff 	movsbl -0x35c(%rbp),%r15d
    b5a5:	ff 
    b5a6:	8b 85 c8 fc ff ff    	mov    -0x338(%rbp),%eax
    b5ac:	98                   	cwtl   
    b5ad:	be 09 00 00 00       	mov    $0x9,%esi
    b5b2:	89 c7                	mov    %eax,%edi
    b5b4:	e8 d9 7e ff ff       	callq  3492 <safe_lshift_func_int16_t_s_s>
    b5b9:	0f bf d0             	movswl %ax,%edx
    b5bc:	8b 85 b4 fc ff ff    	mov    -0x34c(%rbp),%eax
    b5c2:	39 c2                	cmp    %eax,%edx
    b5c4:	0f 9d c0             	setge  %al
    b5c7:	0f b6 d0             	movzbl %al,%edx
    b5ca:	0f b6 05 9f 4a 00 00 	movzbl 0x4a9f(%rip),%eax        # 10070 <g_161>
    b5d1:	0f be c0             	movsbl %al,%eax
    b5d4:	39 c2                	cmp    %eax,%edx
    b5d6:	0f 9e c0             	setle  %al
    b5d9:	0f b6 d0             	movzbl %al,%edx
    b5dc:	8b 85 a8 fc ff ff    	mov    -0x358(%rbp),%eax
    b5e2:	39 c2                	cmp    %eax,%edx
    b5e4:	0f 9e c0             	setle  %al
    b5e7:	0f b6 d0             	movzbl %al,%edx
    b5ea:	48 8b 05 87 4a 00 00 	mov    0x4a87(%rip),%rax        # 10078 <g_189>
    b5f1:	48 39 c2             	cmp    %rax,%rdx
    b5f4:	0f 95 c0             	setne  %al
    b5f7:	0f b6 c0             	movzbl %al,%eax
    b5fa:	41 39 c7             	cmp    %eax,%r15d
    b5fd:	0f 9c c0             	setl   %al
    b600:	0f b6 d0             	movzbl %al,%edx
    b603:	48 8b 85 a0 fd ff ff 	mov    -0x260(%rbp),%rax
    b60a:	8b 00                	mov    (%rax),%eax
    b60c:	39 c2                	cmp    %eax,%edx
    b60e:	0f 9d c0             	setge  %al
    b611:	0f b6 c0             	movzbl %al,%eax
    b614:	41 39 c6             	cmp    %eax,%r14d
    b617:	0f 9e c0             	setle  %al
    b61a:	0f b6 c0             	movzbl %al,%eax
    b61d:	44 89 ee             	mov    %r13d,%esi
    b620:	89 c7                	mov    %eax,%edi
    b622:	e8 25 86 ff ff       	callq  3c4c <safe_lshift_func_uint8_t_u_u>
    b627:	0f b7 05 22 4a 00 00 	movzwl 0x4a22(%rip),%eax        # 10050 <g_69>
    b62e:	0f b7 c0             	movzwl %ax,%eax
    b631:	44 89 e6             	mov    %r12d,%esi
    b634:	89 c7                	mov    %eax,%edi
    b636:	e8 02 87 ff ff       	callq  3d3d <safe_mul_func_uint16_t_u_u>
    b63b:	0f b7 c0             	movzwl %ax,%eax
    b63e:	39 85 d8 fc ff ff    	cmp    %eax,-0x328(%rbp)
    b644:	0f 95 c0             	setne  %al
    b647:	0f b6 c0             	movzbl %al,%eax
    b64a:	89 de                	mov    %ebx,%esi
    b64c:	89 c7                	mov    %eax,%edi
    b64e:	e8 10 7f ff ff       	callq  3563 <safe_rshift_func_int16_t_s_u>
    b653:	98                   	cwtl   
    b654:	0b 85 dc fc ff ff    	or     -0x324(%rbp),%eax
    b65a:	89 c2                	mov    %eax,%edx
    b65c:	8b 85 c0 fc ff ff    	mov    -0x340(%rbp),%eax
    b662:	09 d0                	or     %edx,%eax
    b664:	89 85 c0 fc ff ff    	mov    %eax,-0x340(%rbp)
    b66a:	e9 ce 01 00 00       	jmpq   b83d <func_46+0x9db>
    b66f:	c6 85 b3 fc ff ff 62 	movb   $0x62,-0x34d(%rbp)
    b676:	48 8d 05 cb 49 00 00 	lea    0x49cb(%rip),%rax        # 10048 <g_38>
    b67d:	48 89 85 40 fd ff ff 	mov    %rax,-0x2c0(%rbp)
    b684:	48 8d 85 b4 fc ff ff 	lea    -0x34c(%rbp),%rax
    b68b:	48 89 85 48 fd ff ff 	mov    %rax,-0x2b8(%rbp)
    b692:	c7 85 d4 fc ff ff fe 	movl   $0xfffffffe,-0x32c(%rbp)
    b699:	ff ff ff 
    b69c:	be 01 00 00 00       	mov    $0x1,%esi
    b6a1:	bf f6 00 00 00       	mov    $0xf6,%edi
    b6a6:	e8 5a 85 ff ff       	callq  3c05 <safe_lshift_func_uint8_t_u_s>
    b6ab:	0f b6 d8             	movzbl %al,%ebx
    b6ae:	0f b7 05 cb 49 00 00 	movzwl 0x49cb(%rip),%eax        # 10080 <g_218>
    b6b5:	0f b7 c0             	movzwl %ax,%eax
    b6b8:	be 03 00 00 00       	mov    $0x3,%esi
    b6bd:	89 c7                	mov    %eax,%edi
    b6bf:	e8 fa 86 ff ff       	callq  3dbe <safe_lshift_func_uint16_t_u_s>
    b6c4:	41 89 c4             	mov    %eax,%r12d
    b6c7:	83 a5 cc fc ff ff 01 	andl   $0x1,-0x334(%rbp)
    b6ce:	8b 85 cc fc ff ff    	mov    -0x334(%rbp),%eax
    b6d4:	0f b6 c0             	movzbl %al,%eax
    b6d7:	be 03 00 00 00       	mov    $0x3,%esi
    b6dc:	89 c7                	mov    %eax,%edi
    b6de:	e8 69 85 ff ff       	callq  3c4c <safe_lshift_func_uint8_t_u_u>
    b6e3:	0f b6 c0             	movzbl %al,%eax
    b6e6:	66 41 39 c4          	cmp    %ax,%r12w
    b6ea:	0f 97 c0             	seta   %al
    b6ed:	0f b6 c0             	movzbl %al,%eax
    b6f0:	89 de                	mov    %ebx,%esi
    b6f2:	89 c7                	mov    %eax,%edi
    b6f4:	e8 61 84 ff ff       	callq  3b5a <safe_add_func_uint8_t_u_u>
    b6f9:	80 bd b3 fc ff ff 00 	cmpb   $0x0,-0x34d(%rbp)
    b700:	74 4d                	je     b74f <func_46+0x8ed>
    b702:	8b 95 a8 fc ff ff    	mov    -0x358(%rbp),%edx
    b708:	83 bd d0 fc ff ff 00 	cmpl   $0x0,-0x330(%rbp)
    b70f:	0f 94 c0             	sete   %al
    b712:	0f b6 c8             	movzbl %al,%ecx
    b715:	48 8b 85 40 fd ff ff 	mov    -0x2c0(%rbp),%rax
    b71c:	89 08                	mov    %ecx,(%rax)
    b71e:	8b 85 e0 fc ff ff    	mov    -0x320(%rbp),%eax
    b724:	8b 8d b4 fc ff ff    	mov    -0x34c(%rbp),%ecx
    b72a:	09 c8                	or     %ecx,%eax
    b72c:	89 85 b4 fc ff ff    	mov    %eax,-0x34c(%rbp)
    b732:	8b 85 b4 fc ff ff    	mov    -0x34c(%rbp),%eax
    b738:	89 d6                	mov    %edx,%esi
    b73a:	89 c7                	mov    %eax,%edi
    b73c:	e8 75 7e ff ff       	callq  35b6 <safe_add_func_int32_t_s_s>
    b741:	be 01 00 00 00       	mov    $0x1,%esi
    b746:	89 c7                	mov    %eax,%edi
    b748:	e8 83 87 ff ff       	callq  3ed0 <safe_sub_func_uint32_t_u_u>
    b74d:	85 c0                	test   %eax,%eax
    b74f:	83 bd c0 fc ff ff 01 	cmpl   $0x1,-0x340(%rbp)
    b756:	75 0a                	jne    b762 <func_46+0x900>
    b758:	8b 05 f6 48 00 00    	mov    0x48f6(%rip),%eax        # 10054 <g_74>
    b75e:	85 c0                	test   %eax,%eax
    b760:	74 07                	je     b769 <func_46+0x907>
    b762:	b8 01 00 00 00       	mov    $0x1,%eax
    b767:	eb 05                	jmp    b76e <func_46+0x90c>
    b769:	b8 00 00 00 00       	mov    $0x0,%eax
    b76e:	0f b6 c0             	movzbl %al,%eax
    b771:	be 05 00 00 00       	mov    $0x5,%esi
    b776:	89 c7                	mov    %eax,%edi
    b778:	e8 10 85 ff ff       	callq  3c8d <safe_rshift_func_uint8_t_u_s>
    b77d:	0f b6 c0             	movzbl %al,%eax
    b780:	89 c6                	mov    %eax,%esi
    b782:	bf 83 9a 00 00       	mov    $0x9a83,%edi
    b787:	e8 7a 86 ff ff       	callq  3e06 <safe_lshift_func_uint16_t_u_u>
    b78c:	83 bd d8 fc ff ff 00 	cmpl   $0x0,-0x328(%rbp)
    b793:	74 45                	je     b7da <func_46+0x978>
    b795:	48 c7 85 50 fd ff ff 	movq   $0x0,-0x2b0(%rbp)
    b79c:	00 00 00 00 
    b7a0:	48 8d 05 f1 48 00 00 	lea    0x48f1(%rip),%rax        # 10098 <g_255+0x8>
    b7a7:	48 89 85 18 fd ff ff 	mov    %rax,-0x2e8(%rbp)
    b7ae:	48 8d 85 18 fd ff ff 	lea    -0x2e8(%rbp),%rax
    b7b5:	48 89 85 58 fd ff ff 	mov    %rax,-0x2a8(%rbp)
    b7bc:	48 8b 85 58 fd ff ff 	mov    -0x2a8(%rbp),%rax
    b7c3:	48 8b 95 68 fd ff ff 	mov    -0x298(%rbp),%rdx
    b7ca:	48 89 10             	mov    %rdx,(%rax)
    b7cd:	48 c7 05 a0 48 00 00 	movq   $0x0,0x48a0(%rip)        # 10078 <g_189>
    b7d4:	00 00 00 00 
    b7d8:	eb 50                	jmp    b82a <func_46+0x9c8>
    b7da:	0f b6 05 77 48 00 00 	movzbl 0x4877(%rip),%eax        # 10058 <g_75>
    b7e1:	66 98                	cbtw   
    b7e3:	e9 ef 00 00 00       	jmpq   b8d7 <func_46+0xa75>
    b7e8:	48 8d 05 51 48 00 00 	lea    0x4851(%rip),%rax        # 10040 <g_6>
    b7ef:	48 89 85 60 fd ff ff 	mov    %rax,-0x2a0(%rbp)
    b7f6:	48 8b 85 60 fd ff ff 	mov    -0x2a0(%rbp),%rax
    b7fd:	48 89 85 48 fd ff ff 	mov    %rax,-0x2b8(%rbp)
    b804:	8b 85 a8 fc ff ff    	mov    -0x358(%rbp),%eax
    b80a:	85 c0                	test   %eax,%eax
    b80c:	75 09                	jne    b817 <func_46+0x9b5>
    b80e:	83 ad c4 fc ff ff 01 	subl   $0x1,-0x33c(%rbp)
    b815:	eb 01                	jmp    b818 <func_46+0x9b6>
    b817:	90                   	nop
    b818:	48 8b 05 59 48 00 00 	mov    0x4859(%rip),%rax        # 10078 <g_189>
    b81f:	48 83 e8 01          	sub    $0x1,%rax
    b823:	48 89 05 4e 48 00 00 	mov    %rax,0x484e(%rip)        # 10078 <g_189>
    b82a:	48 8b 05 47 48 00 00 	mov    0x4847(%rip),%rax        # 10078 <g_189>
    b831:	48 85 c0             	test   %rax,%rax
    b834:	79 b2                	jns    b7e8 <func_46+0x986>
    b836:	83 bd d8 fc ff ff 00 	cmpl   $0x0,-0x328(%rbp)
    b83d:	8b 85 a8 fc ff ff    	mov    -0x358(%rbp),%eax
    b843:	98                   	cwtl   
    b844:	be 01 00 00 00       	mov    $0x1,%esi
    b849:	89 c7                	mov    %eax,%edi
    b84b:	e8 63 7b ff ff       	callq  33b3 <safe_add_func_int16_t_s_s>
    b850:	98                   	cwtl   
    b851:	89 85 a8 fc ff ff    	mov    %eax,-0x358(%rbp)
    b857:	8b 85 a8 fc ff ff    	mov    -0x358(%rbp),%eax
    b85d:	83 f8 02             	cmp    $0x2,%eax
    b860:	0f 8f fd fa ff ff    	jg     b363 <func_46+0x501>
    b866:	0f b6 85 ac fc ff ff 	movzbl -0x354(%rbp),%eax
    b86d:	3c ff                	cmp    $0xff,%al
    b86f:	75 12                	jne    b883 <func_46+0xa21>
    b871:	48 8b 05 b0 4c 00 00 	mov    0x4cb0(%rip),%rax        # 10528 <g_91>
    b878:	48 8b 00             	mov    (%rax),%rax
    b87b:	0f b7 00             	movzwl (%rax),%eax
    b87e:	66 85 c0             	test   %ax,%ax
    b881:	74 07                	je     b88a <func_46+0xa28>
    b883:	ba 01 00 00 00       	mov    $0x1,%edx
    b888:	eb 05                	jmp    b88f <func_46+0xa2d>
    b88a:	ba 00 00 00 00       	mov    $0x0,%edx
    b88f:	48 8b 85 c0 fd ff ff 	mov    -0x240(%rbp),%rax
    b896:	0f b7 00             	movzwl (%rax),%eax
    b899:	89 c1                	mov    %eax,%ecx
    b89b:	48 8b 85 a8 fd ff ff 	mov    -0x258(%rbp),%rax
    b8a2:	48 8b 00             	mov    (%rax),%rax
    b8a5:	8b 00                	mov    (%rax),%eax
    b8a7:	21 c8                	and    %ecx,%eax
    b8a9:	89 c1                	mov    %eax,%ecx
    b8ab:	48 8b 85 c0 fd ff ff 	mov    -0x240(%rbp),%rax
    b8b2:	66 89 08             	mov    %cx,(%rax)
    b8b5:	48 8b 85 c0 fd ff ff 	mov    -0x240(%rbp),%rax
    b8bc:	0f b7 00             	movzwl (%rax),%eax
    b8bf:	0f b7 c0             	movzwl %ax,%eax
    b8c2:	39 c2                	cmp    %eax,%edx
    b8c4:	0f 9f c0             	setg   %al
    b8c7:	0f b6 c0             	movzbl %al,%eax
    b8ca:	48 89 85 c8 fd ff ff 	mov    %rax,-0x238(%rbp)
    b8d1:	8b 85 a8 fc ff ff    	mov    -0x358(%rbp),%eax
    b8d7:	48 8b 5d c8          	mov    -0x38(%rbp),%rbx
    b8db:	64 48 33 1c 25 28 00 	xor    %fs:0x28,%rbx
    b8e2:	00 00 
    b8e4:	74 05                	je     b8eb <func_46+0xa89>
    b8e6:	e8 85 77 ff ff       	callq  3070 <__stack_chk_fail@plt>
    b8eb:	48 81 c4 48 03 00 00 	add    $0x348,%rsp
    b8f2:	5b                   	pop    %rbx
    b8f3:	41 5c                	pop    %r12
    b8f5:	41 5d                	pop    %r13
    b8f7:	41 5e                	pop    %r14
    b8f9:	41 5f                	pop    %r15
    b8fb:	5d                   	pop    %rbp
    b8fc:	c3                   	retq   

000000000000b8fd <main>:
    b8fd:	f3 0f 1e fa          	endbr64 
    b901:	55                   	push   %rbp
    b902:	48 89 e5             	mov    %rsp,%rbp
    b905:	48 83 ec 20          	sub    $0x20,%rsp
    b909:	89 7d ec             	mov    %edi,-0x14(%rbp)
    b90c:	48 89 75 e0          	mov    %rsi,-0x20(%rbp)
    b910:	c7 45 fc 00 00 00 00 	movl   $0x0,-0x4(%rbp)
    b917:	83 7d ec 02          	cmpl   $0x2,-0x14(%rbp)
    b91b:	74 25                	je     b942 <main+0x45>
    b91d:	48 8b 45 e0          	mov    -0x20(%rbp),%rax
    b921:	48 83 c0 08          	add    $0x8,%rax
    b925:	48 8b 00             	mov    (%rax),%rax
    b928:	48 8d 35 46 1b 00 00 	lea    0x1b46(%rip),%rsi        # d475 <g_327+0x41d>
    b92f:	48 89 c7             	mov    %rax,%rdi
    b932:	e8 59 77 ff ff       	callq  3090 <strcmp@plt>
    b937:	85 c0                	test   %eax,%eax
    b939:	74 07                	je     b942 <main+0x45>
    b93b:	c7 45 fc 01 00 00 00 	movl   $0x1,-0x4(%rbp)
    b942:	e8 42 78 ff ff       	callq  3189 <platform_main_begin>
    b947:	e8 4c 8c ff ff       	callq  4598 <crc32_gentab>
    b94c:	e8 64 8e ff ff       	callq  47b5 <func_1>
    b951:	8b 05 cd 46 00 00    	mov    0x46cd(%rip),%eax        # 10024 <g_3>
    b957:	48 98                	cltq   
    b959:	8b 55 fc             	mov    -0x4(%rbp),%edx
    b95c:	48 8d 35 14 1b 00 00 	lea    0x1b14(%rip),%rsi        # d477 <g_327+0x41f>
    b963:	48 89 c7             	mov    %rax,%rdi
    b966:	e8 88 8d ff ff       	callq  46f3 <transparent_crc>
    b96b:	8b 05 b7 46 00 00    	mov    0x46b7(%rip),%eax        # 10028 <g_4>
    b971:	48 98                	cltq   
    b973:	8b 55 fc             	mov    -0x4(%rbp),%edx
    b976:	48 8d 35 fe 1a 00 00 	lea    0x1afe(%rip),%rsi        # d47b <g_327+0x423>
    b97d:	48 89 c7             	mov    %rax,%rdi
    b980:	e8 6e 8d ff ff       	callq  46f3 <transparent_crc>
    b985:	c7 45 f4 00 00 00 00 	movl   $0x0,-0xc(%rbp)
    b98c:	eb 4b                	jmp    b9d9 <main+0xdc>
    b98e:	8b 45 f4             	mov    -0xc(%rbp),%eax
    b991:	48 98                	cltq   
    b993:	48 8d 14 85 00 00 00 	lea    0x0(,%rax,4),%rdx
    b99a:	00 
    b99b:	48 8d 05 8e 46 00 00 	lea    0x468e(%rip),%rax        # 10030 <g_5>
    b9a2:	8b 04 02             	mov    (%rdx,%rax,1),%eax
    b9a5:	48 98                	cltq   
    b9a7:	8b 55 fc             	mov    -0x4(%rbp),%edx
    b9aa:	48 8d 35 ce 1a 00 00 	lea    0x1ace(%rip),%rsi        # d47f <g_327+0x427>
    b9b1:	48 89 c7             	mov    %rax,%rdi
    b9b4:	e8 3a 8d ff ff       	callq  46f3 <transparent_crc>
    b9b9:	83 7d fc 00          	cmpl   $0x0,-0x4(%rbp)
    b9bd:	74 16                	je     b9d5 <main+0xd8>
    b9bf:	8b 45 f4             	mov    -0xc(%rbp),%eax
    b9c2:	89 c6                	mov    %eax,%esi
    b9c4:	48 8d 3d bb 1a 00 00 	lea    0x1abb(%rip),%rdi        # d486 <g_327+0x42e>
    b9cb:	b8 00 00 00 00       	mov    $0x0,%eax
    b9d0:	e8 ab 76 ff ff       	callq  3080 <printf@plt>
    b9d5:	83 45 f4 01          	addl   $0x1,-0xc(%rbp)
    b9d9:	83 7d f4 03          	cmpl   $0x3,-0xc(%rbp)
    b9dd:	7e af                	jle    b98e <main+0x91>
    b9df:	8b 05 5b 46 00 00    	mov    0x465b(%rip),%eax        # 10040 <g_6>
    b9e5:	48 98                	cltq   
    b9e7:	8b 55 fc             	mov    -0x4(%rbp),%edx
    b9ea:	48 8d 35 a3 1a 00 00 	lea    0x1aa3(%rip),%rsi        # d494 <g_327+0x43c>
    b9f1:	48 89 c7             	mov    %rax,%rdi
    b9f4:	e8 fa 8c ff ff       	callq  46f3 <transparent_crc>
    b9f9:	0f b7 05 44 46 00 00 	movzwl 0x4644(%rip),%eax        # 10044 <g_19>
    ba00:	48 0f bf c0          	movswq %ax,%rax
    ba04:	8b 55 fc             	mov    -0x4(%rbp),%edx
    ba07:	48 8d 35 8a 1a 00 00 	lea    0x1a8a(%rip),%rsi        # d498 <g_327+0x440>
    ba0e:	48 89 c7             	mov    %rax,%rdi
    ba11:	e8 dd 8c ff ff       	callq  46f3 <transparent_crc>
    ba16:	8b 05 2c 46 00 00    	mov    0x462c(%rip),%eax        # 10048 <g_38>
    ba1c:	48 98                	cltq   
    ba1e:	8b 55 fc             	mov    -0x4(%rbp),%edx
    ba21:	48 8d 35 75 1a 00 00 	lea    0x1a75(%rip),%rsi        # d49d <g_327+0x445>
    ba28:	48 89 c7             	mov    %rax,%rdi
    ba2b:	e8 c3 8c ff ff       	callq  46f3 <transparent_crc>
    ba30:	8b 05 12 46 00 00    	mov    0x4612(%rip),%eax        # 10048 <g_38>
    ba36:	48 98                	cltq   
    ba38:	8b 55 fc             	mov    -0x4(%rbp),%edx
    ba3b:	48 8d 35 63 1a 00 00 	lea    0x1a63(%rip),%rsi        # d4a5 <g_327+0x44d>
    ba42:	48 89 c7             	mov    %rax,%rdi
    ba45:	e8 a9 8c ff ff       	callq  46f3 <transparent_crc>
    ba4a:	8b 05 f8 56 00 00    	mov    0x56f8(%rip),%eax        # 11148 <g_41>
    ba50:	48 98                	cltq   
    ba52:	8b 55 fc             	mov    -0x4(%rbp),%edx
    ba55:	48 8d 35 51 1a 00 00 	lea    0x1a51(%rip),%rsi        # d4ad <g_327+0x455>
    ba5c:	48 89 c7             	mov    %rax,%rdi
    ba5f:	e8 8f 8c ff ff       	callq  46f3 <transparent_crc>
    ba64:	8b 05 e2 45 00 00    	mov    0x45e2(%rip),%eax        # 1004c <g_68>
    ba6a:	48 98                	cltq   
    ba6c:	8b 55 fc             	mov    -0x4(%rbp),%edx
    ba6f:	48 8d 35 3c 1a 00 00 	lea    0x1a3c(%rip),%rsi        # d4b2 <g_327+0x45a>
    ba76:	48 89 c7             	mov    %rax,%rdi
    ba79:	e8 75 8c ff ff       	callq  46f3 <transparent_crc>
    ba7e:	0f b7 05 cb 45 00 00 	movzwl 0x45cb(%rip),%eax        # 10050 <g_69>
    ba85:	48 0f bf c0          	movswq %ax,%rax
    ba89:	8b 55 fc             	mov    -0x4(%rbp),%edx
    ba8c:	48 8d 35 24 1a 00 00 	lea    0x1a24(%rip),%rsi        # d4b7 <g_327+0x45f>
    ba93:	48 89 c7             	mov    %rax,%rdi
    ba96:	e8 58 8c ff ff       	callq  46f3 <transparent_crc>
    ba9b:	8b 05 b3 45 00 00    	mov    0x45b3(%rip),%eax        # 10054 <g_74>
    baa1:	48 98                	cltq   
    baa3:	8b 55 fc             	mov    -0x4(%rbp),%edx
    baa6:	48 8d 35 0f 1a 00 00 	lea    0x1a0f(%rip),%rsi        # d4bc <g_327+0x464>
    baad:	48 89 c7             	mov    %rax,%rdi
    bab0:	e8 3e 8c ff ff       	callq  46f3 <transparent_crc>
    bab5:	0f b6 05 9c 45 00 00 	movzbl 0x459c(%rip),%eax        # 10058 <g_75>
    babc:	48 0f be c0          	movsbq %al,%rax
    bac0:	8b 55 fc             	mov    -0x4(%rbp),%edx
    bac3:	48 8d 35 f7 19 00 00 	lea    0x19f7(%rip),%rsi        # d4c1 <g_327+0x469>
    baca:	48 89 c7             	mov    %rax,%rdi
    bacd:	e8 21 8c ff ff       	callq  46f3 <transparent_crc>
    bad2:	48 8b 05 87 45 00 00 	mov    0x4587(%rip),%rax        # 10060 <g_76>
    bad9:	48 89 c1             	mov    %rax,%rcx
    badc:	8b 45 fc             	mov    -0x4(%rbp),%eax
    badf:	89 c2                	mov    %eax,%edx
    bae1:	48 8d 35 de 19 00 00 	lea    0x19de(%rip),%rsi        # d4c6 <g_327+0x46e>
    bae8:	48 89 cf             	mov    %rcx,%rdi
    baeb:	e8 03 8c ff ff       	callq  46f3 <transparent_crc>
    baf0:	8b 05 72 45 00 00    	mov    0x4572(%rip),%eax        # 10068 <g_77>
    baf6:	89 c1                	mov    %eax,%ecx
    baf8:	8b 45 fc             	mov    -0x4(%rbp),%eax
    bafb:	89 c2                	mov    %eax,%edx
    bafd:	48 8d 35 c7 19 00 00 	lea    0x19c7(%rip),%rsi        # d4cb <g_327+0x473>
    bb04:	48 89 cf             	mov    %rcx,%rdi
    bb07:	e8 e7 8b ff ff       	callq  46f3 <transparent_crc>
    bb0c:	0f b6 05 39 56 00 00 	movzbl 0x5639(%rip),%eax        # 1114c <g_108>
    bb13:	0f b6 c0             	movzbl %al,%eax
    bb16:	8b 55 fc             	mov    -0x4(%rbp),%edx
    bb19:	48 8d 35 b0 19 00 00 	lea    0x19b0(%rip),%rsi        # d4d0 <g_327+0x478>
    bb20:	48 89 c7             	mov    %rax,%rdi
    bb23:	e8 cb 8b ff ff       	callq  46f3 <transparent_crc>
    bb28:	0f b7 05 3d 45 00 00 	movzwl 0x453d(%rip),%eax        # 1006c <g_114>
    bb2f:	48 0f bf c0          	movswq %ax,%rax
    bb33:	8b 55 fc             	mov    -0x4(%rbp),%edx
    bb36:	48 8d 35 99 19 00 00 	lea    0x1999(%rip),%rsi        # d4d6 <g_327+0x47e>
    bb3d:	48 89 c7             	mov    %rax,%rdi
    bb40:	e8 ae 8b ff ff       	callq  46f3 <transparent_crc>
    bb45:	0f b7 05 22 45 00 00 	movzwl 0x4522(%rip),%eax        # 1006e <g_160>
    bb4c:	0f b7 c0             	movzwl %ax,%eax
    bb4f:	8b 55 fc             	mov    -0x4(%rbp),%edx
    bb52:	48 8d 35 83 19 00 00 	lea    0x1983(%rip),%rsi        # d4dc <g_327+0x484>
    bb59:	48 89 c7             	mov    %rax,%rdi
    bb5c:	e8 92 8b ff ff       	callq  46f3 <transparent_crc>
    bb61:	0f b6 05 08 45 00 00 	movzbl 0x4508(%rip),%eax        # 10070 <g_161>
    bb68:	48 0f be c0          	movsbq %al,%rax
    bb6c:	8b 55 fc             	mov    -0x4(%rbp),%edx
    bb6f:	48 8d 35 6c 19 00 00 	lea    0x196c(%rip),%rsi        # d4e2 <g_327+0x48a>
    bb76:	48 89 c7             	mov    %rax,%rdi
    bb79:	e8 75 8b ff ff       	callq  46f3 <transparent_crc>
    bb7e:	8b 05 cc 55 00 00    	mov    0x55cc(%rip),%eax        # 11150 <g_162>
    bb84:	89 c1                	mov    %eax,%ecx
    bb86:	8b 45 fc             	mov    -0x4(%rbp),%eax
    bb89:	89 c2                	mov    %eax,%edx
    bb8b:	48 8d 35 56 19 00 00 	lea    0x1956(%rip),%rsi        # d4e8 <g_327+0x490>
    bb92:	48 89 cf             	mov    %rcx,%rdi
    bb95:	e8 59 8b ff ff       	callq  46f3 <transparent_crc>
    bb9a:	b8 a4 81 ed 63       	mov    $0x63ed81a4,%eax
    bb9f:	48 98                	cltq   
    bba1:	8b 55 fc             	mov    -0x4(%rbp),%edx
    bba4:	48 8d 35 43 19 00 00 	lea    0x1943(%rip),%rsi        # d4ee <g_327+0x496>
    bbab:	48 89 c7             	mov    %rax,%rdi
    bbae:	e8 40 8b ff ff       	callq  46f3 <transparent_crc>
    bbb3:	48 8b 05 be 44 00 00 	mov    0x44be(%rip),%rax        # 10078 <g_189>
    bbba:	48 89 c1             	mov    %rax,%rcx
    bbbd:	8b 45 fc             	mov    -0x4(%rbp),%eax
    bbc0:	89 c2                	mov    %eax,%edx
    bbc2:	48 8d 35 2b 19 00 00 	lea    0x192b(%rip),%rsi        # d4f4 <g_327+0x49c>
    bbc9:	48 89 cf             	mov    %rcx,%rdi
    bbcc:	e8 22 8b ff ff       	callq  46f3 <transparent_crc>
    bbd1:	0f b7 05 a8 44 00 00 	movzwl 0x44a8(%rip),%eax        # 10080 <g_218>
    bbd8:	0f b7 c0             	movzwl %ax,%eax
    bbdb:	8b 55 fc             	mov    -0x4(%rbp),%edx
    bbde:	48 8d 35 15 19 00 00 	lea    0x1915(%rip),%rsi        # d4fa <g_327+0x4a2>
    bbe5:	48 89 c7             	mov    %rax,%rdi
    bbe8:	e8 06 8b ff ff       	callq  46f3 <transparent_crc>
    bbed:	48 8b 05 94 44 00 00 	mov    0x4494(%rip),%rax        # 10088 <g_251>
    bbf4:	25 ff ff 01 00       	and    $0x1ffff,%eax
    bbf9:	89 c1                	mov    %eax,%ecx
    bbfb:	8b 45 fc             	mov    -0x4(%rbp),%eax
    bbfe:	89 c2                	mov    %eax,%edx
    bc00:	48 8d 35 f9 18 00 00 	lea    0x18f9(%rip),%rsi        # d500 <g_327+0x4a8>
    bc07:	48 89 cf             	mov    %rcx,%rdi
    bc0a:	e8 e4 8a ff ff       	callq  46f3 <transparent_crc>
    bc0f:	48 8b 05 72 44 00 00 	mov    0x4472(%rip),%rax        # 10088 <g_251>
    bc16:	48 c1 e8 11          	shr    $0x11,%rax
    bc1a:	83 e0 0f             	and    $0xf,%eax
    bc1d:	0f b6 c0             	movzbl %al,%eax
    bc20:	8b 55 fc             	mov    -0x4(%rbp),%edx
    bc23:	48 8d 35 df 18 00 00 	lea    0x18df(%rip),%rsi        # d509 <g_327+0x4b1>
    bc2a:	48 89 c7             	mov    %rax,%rdi
    bc2d:	e8 c1 8a ff ff       	callq  46f3 <transparent_crc>
    bc32:	8b 05 54 44 00 00    	mov    0x4454(%rip),%eax        # 1008c <g_251+0x4>
    bc38:	25 ff ff 7f 00       	and    $0x7fffff,%eax
    bc3d:	89 c1                	mov    %eax,%ecx
    bc3f:	8b 45 fc             	mov    -0x4(%rbp),%eax
    bc42:	89 c2                	mov    %eax,%edx
    bc44:	48 8d 35 c7 18 00 00 	lea    0x18c7(%rip),%rsi        # d512 <g_327+0x4ba>
    bc4b:	48 89 cf             	mov    %rcx,%rdi
    bc4e:	e8 a0 8a ff ff       	callq  46f3 <transparent_crc>
    bc53:	0f b7 05 34 44 00 00 	movzwl 0x4434(%rip),%eax        # 1008e <g_251+0x6>
    bc5a:	c1 e0 03             	shl    $0x3,%eax
    bc5d:	66 c1 f8 0a          	sar    $0xa,%ax
    bc61:	48 0f be c0          	movsbq %al,%rax
    bc65:	8b 55 fc             	mov    -0x4(%rbp),%edx
    bc68:	48 8d 35 ac 18 00 00 	lea    0x18ac(%rip),%rsi        # d51b <g_327+0x4c3>
    bc6f:	48 89 c7             	mov    %rax,%rdi
    bc72:	e8 7c 8a ff ff       	callq  46f3 <transparent_crc>
    bc77:	c7 45 f4 00 00 00 00 	movl   $0x0,-0xc(%rbp)
    bc7e:	e9 f0 00 00 00       	jmpq   bd73 <main+0x476>
    bc83:	8b 45 f4             	mov    -0xc(%rbp),%eax
    bc86:	48 98                	cltq   
    bc88:	48 8d 14 c5 00 00 00 	lea    0x0(,%rax,8),%rdx
    bc8f:	00 
    bc90:	48 8d 05 f9 43 00 00 	lea    0x43f9(%rip),%rax        # 10090 <g_255>
    bc97:	48 8b 04 02          	mov    (%rdx,%rax,1),%rax
    bc9b:	25 ff ff 01 00       	and    $0x1ffff,%eax
    bca0:	89 c1                	mov    %eax,%ecx
    bca2:	8b 45 fc             	mov    -0x4(%rbp),%eax
    bca5:	89 c2                	mov    %eax,%edx
    bca7:	48 8d 35 76 18 00 00 	lea    0x1876(%rip),%rsi        # d524 <g_327+0x4cc>
    bcae:	48 89 cf             	mov    %rcx,%rdi
    bcb1:	e8 3d 8a ff ff       	callq  46f3 <transparent_crc>
    bcb6:	8b 45 f4             	mov    -0xc(%rbp),%eax
    bcb9:	48 98                	cltq   
    bcbb:	48 8d 14 c5 00 00 00 	lea    0x0(,%rax,8),%rdx
    bcc2:	00 
    bcc3:	48 8d 05 c6 43 00 00 	lea    0x43c6(%rip),%rax        # 10090 <g_255>
    bcca:	48 8b 04 02          	mov    (%rdx,%rax,1),%rax
    bcce:	48 c1 e8 11          	shr    $0x11,%rax
    bcd2:	83 e0 0f             	and    $0xf,%eax
    bcd5:	0f b6 c0             	movzbl %al,%eax
    bcd8:	8b 55 fc             	mov    -0x4(%rbp),%edx
    bcdb:	48 8d 35 4e 18 00 00 	lea    0x184e(%rip),%rsi        # d530 <g_327+0x4d8>
    bce2:	48 89 c7             	mov    %rax,%rdi
    bce5:	e8 09 8a ff ff       	callq  46f3 <transparent_crc>
    bcea:	8b 45 f4             	mov    -0xc(%rbp),%eax
    bced:	48 98                	cltq   
    bcef:	48 8d 14 c5 00 00 00 	lea    0x0(,%rax,8),%rdx
    bcf6:	00 
    bcf7:	48 8d 05 92 43 00 00 	lea    0x4392(%rip),%rax        # 10090 <g_255>
    bcfe:	8b 44 02 04          	mov    0x4(%rdx,%rax,1),%eax
    bd02:	25 ff ff 7f 00       	and    $0x7fffff,%eax
    bd07:	89 c1                	mov    %eax,%ecx
    bd09:	8b 45 fc             	mov    -0x4(%rbp),%eax
    bd0c:	89 c2                	mov    %eax,%edx
    bd0e:	48 8d 35 27 18 00 00 	lea    0x1827(%rip),%rsi        # d53c <g_327+0x4e4>
    bd15:	48 89 cf             	mov    %rcx,%rdi
    bd18:	e8 d6 89 ff ff       	callq  46f3 <transparent_crc>
    bd1d:	8b 45 f4             	mov    -0xc(%rbp),%eax
    bd20:	48 98                	cltq   
    bd22:	48 8d 14 c5 00 00 00 	lea    0x0(,%rax,8),%rdx
    bd29:	00 
    bd2a:	48 8d 05 5f 43 00 00 	lea    0x435f(%rip),%rax        # 10090 <g_255>
    bd31:	0f b7 44 02 06       	movzwl 0x6(%rdx,%rax,1),%eax
    bd36:	c1 e0 03             	shl    $0x3,%eax
    bd39:	66 c1 f8 0a          	sar    $0xa,%ax
    bd3d:	48 0f be c0          	movsbq %al,%rax
    bd41:	8b 55 fc             	mov    -0x4(%rbp),%edx
    bd44:	48 8d 35 fd 17 00 00 	lea    0x17fd(%rip),%rsi        # d548 <g_327+0x4f0>
    bd4b:	48 89 c7             	mov    %rax,%rdi
    bd4e:	e8 a0 89 ff ff       	callq  46f3 <transparent_crc>
    bd53:	83 7d fc 00          	cmpl   $0x0,-0x4(%rbp)
    bd57:	74 16                	je     bd6f <main+0x472>
    bd59:	8b 45 f4             	mov    -0xc(%rbp),%eax
    bd5c:	89 c6                	mov    %eax,%esi
    bd5e:	48 8d 3d 21 17 00 00 	lea    0x1721(%rip),%rdi        # d486 <g_327+0x42e>
    bd65:	b8 00 00 00 00       	mov    $0x0,%eax
    bd6a:	e8 11 73 ff ff       	callq  3080 <printf@plt>
    bd6f:	83 45 f4 01          	addl   $0x1,-0xc(%rbp)
    bd73:	83 7d f4 02          	cmpl   $0x2,-0xc(%rbp)
    bd77:	0f 8e 06 ff ff ff    	jle    bc83 <main+0x386>
    bd7d:	0f b6 05 24 43 00 00 	movzbl 0x4324(%rip),%eax        # 100a8 <g_304>
    bd84:	48 0f be c0          	movsbq %al,%rax
    bd88:	8b 55 fc             	mov    -0x4(%rbp),%edx
    bd8b:	48 8d 35 c2 17 00 00 	lea    0x17c2(%rip),%rsi        # d554 <g_327+0x4fc>
    bd92:	48 89 c7             	mov    %rax,%rdi
    bd95:	e8 59 89 ff ff       	callq  46f3 <transparent_crc>
    bd9a:	b8 65 00 00 00       	mov    $0x65,%eax
    bd9f:	0f b6 c0             	movzbl %al,%eax
    bda2:	8b 55 fc             	mov    -0x4(%rbp),%edx
    bda5:	48 8d 35 ae 17 00 00 	lea    0x17ae(%rip),%rsi        # d55a <g_327+0x502>
    bdac:	48 89 c7             	mov    %rax,%rdi
    bdaf:	e8 3f 89 ff ff       	callq  46f3 <transparent_crc>
    bdb4:	8b 05 f2 42 00 00    	mov    0x42f2(%rip),%eax        # 100ac <g_337>
    bdba:	48 98                	cltq   
    bdbc:	8b 55 fc             	mov    -0x4(%rbp),%edx
    bdbf:	48 8d 35 9a 17 00 00 	lea    0x179a(%rip),%rsi        # d560 <g_327+0x508>
    bdc6:	48 89 c7             	mov    %rax,%rdi
    bdc9:	e8 25 89 ff ff       	callq  46f3 <transparent_crc>
    bdce:	c7 45 f4 00 00 00 00 	movl   $0x0,-0xc(%rbp)
    bdd5:	eb 4a                	jmp    be21 <main+0x524>
    bdd7:	8b 45 f4             	mov    -0xc(%rbp),%eax
    bdda:	48 98                	cltq   
    bddc:	48 8d 14 c5 00 00 00 	lea    0x0(,%rax,8),%rdx
    bde3:	00 
    bde4:	48 8d 05 c5 42 00 00 	lea    0x42c5(%rip),%rax        # 100b0 <g_397>
    bdeb:	48 8b 04 02          	mov    (%rdx,%rax,1),%rax
    bdef:	8b 55 fc             	mov    -0x4(%rbp),%edx
    bdf2:	48 8d 35 6d 17 00 00 	lea    0x176d(%rip),%rsi        # d566 <g_327+0x50e>
    bdf9:	48 89 c7             	mov    %rax,%rdi
    bdfc:	e8 f2 88 ff ff       	callq  46f3 <transparent_crc>
    be01:	83 7d fc 00          	cmpl   $0x0,-0x4(%rbp)
    be05:	74 16                	je     be1d <main+0x520>
    be07:	8b 45 f4             	mov    -0xc(%rbp),%eax
    be0a:	89 c6                	mov    %eax,%esi
    be0c:	48 8d 3d 73 16 00 00 	lea    0x1673(%rip),%rdi        # d486 <g_327+0x42e>
    be13:	b8 00 00 00 00       	mov    $0x0,%eax
    be18:	e8 63 72 ff ff       	callq  3080 <printf@plt>
    be1d:	83 45 f4 01          	addl   $0x1,-0xc(%rbp)
    be21:	83 7d f4 02          	cmpl   $0x2,-0xc(%rbp)
    be25:	7e b0                	jle    bdd7 <main+0x4da>
    be27:	48 8b 05 9a 42 00 00 	mov    0x429a(%rip),%rax        # 100c8 <g_404>
    be2e:	25 ff ff 01 00       	and    $0x1ffff,%eax
    be33:	89 c1                	mov    %eax,%ecx
    be35:	8b 45 fc             	mov    -0x4(%rbp),%eax
    be38:	89 c2                	mov    %eax,%edx
    be3a:	48 8d 35 2e 17 00 00 	lea    0x172e(%rip),%rsi        # d56f <g_327+0x517>
    be41:	48 89 cf             	mov    %rcx,%rdi
    be44:	e8 aa 88 ff ff       	callq  46f3 <transparent_crc>
    be49:	48 8b 05 78 42 00 00 	mov    0x4278(%rip),%rax        # 100c8 <g_404>
    be50:	48 c1 e8 11          	shr    $0x11,%rax
    be54:	83 e0 0f             	and    $0xf,%eax
    be57:	0f b6 c0             	movzbl %al,%eax
    be5a:	8b 55 fc             	mov    -0x4(%rbp),%edx
    be5d:	48 8d 35 14 17 00 00 	lea    0x1714(%rip),%rsi        # d578 <g_327+0x520>
    be64:	48 89 c7             	mov    %rax,%rdi
    be67:	e8 87 88 ff ff       	callq  46f3 <transparent_crc>
    be6c:	48 8b 05 55 42 00 00 	mov    0x4255(%rip),%rax        # 100c8 <g_404>
    be73:	48 c1 e8 20          	shr    $0x20,%rax
    be77:	25 ff ff 7f 00       	and    $0x7fffff,%eax
    be7c:	89 c1                	mov    %eax,%ecx
    be7e:	8b 45 fc             	mov    -0x4(%rbp),%eax
    be81:	89 c2                	mov    %eax,%edx
    be83:	48 8d 35 f7 16 00 00 	lea    0x16f7(%rip),%rsi        # d581 <g_327+0x529>
    be8a:	48 89 cf             	mov    %rcx,%rdi
    be8d:	e8 61 88 ff ff       	callq  46f3 <transparent_crc>
    be92:	48 8b 05 2f 42 00 00 	mov    0x422f(%rip),%rax        # 100c8 <g_404>
    be99:	48 c1 e0 03          	shl    $0x3,%rax
    be9d:	48 c1 f8 3a          	sar    $0x3a,%rax
    bea1:	48 0f be c0          	movsbq %al,%rax
    bea5:	8b 55 fc             	mov    -0x4(%rbp),%edx
    bea8:	48 8d 35 db 16 00 00 	lea    0x16db(%rip),%rsi        # d58a <g_327+0x532>
    beaf:	48 89 c7             	mov    %rax,%rdi
    beb2:	e8 3c 88 ff ff       	callq  46f3 <transparent_crc>
    beb7:	48 8b 05 12 42 00 00 	mov    0x4212(%rip),%rax        # 100d0 <g_407>
    bebe:	25 ff ff 01 00       	and    $0x1ffff,%eax
    bec3:	89 c1                	mov    %eax,%ecx
    bec5:	8b 45 fc             	mov    -0x4(%rbp),%eax
    bec8:	89 c2                	mov    %eax,%edx
    beca:	48 8d 35 c2 16 00 00 	lea    0x16c2(%rip),%rsi        # d593 <g_327+0x53b>
    bed1:	48 89 cf             	mov    %rcx,%rdi
    bed4:	e8 1a 88 ff ff       	callq  46f3 <transparent_crc>
    bed9:	48 8b 05 f0 41 00 00 	mov    0x41f0(%rip),%rax        # 100d0 <g_407>
    bee0:	48 c1 e8 11          	shr    $0x11,%rax
    bee4:	83 e0 0f             	and    $0xf,%eax
    bee7:	0f b6 c0             	movzbl %al,%eax
    beea:	8b 55 fc             	mov    -0x4(%rbp),%edx
    beed:	48 8d 35 a8 16 00 00 	lea    0x16a8(%rip),%rsi        # d59c <g_327+0x544>
    bef4:	48 89 c7             	mov    %rax,%rdi
    bef7:	e8 f7 87 ff ff       	callq  46f3 <transparent_crc>
    befc:	8b 05 d2 41 00 00    	mov    0x41d2(%rip),%eax        # 100d4 <g_407+0x4>
    bf02:	25 ff ff 7f 00       	and    $0x7fffff,%eax
    bf07:	89 c1                	mov    %eax,%ecx
    bf09:	8b 45 fc             	mov    -0x4(%rbp),%eax
    bf0c:	89 c2                	mov    %eax,%edx
    bf0e:	48 8d 35 90 16 00 00 	lea    0x1690(%rip),%rsi        # d5a5 <g_327+0x54d>
    bf15:	48 89 cf             	mov    %rcx,%rdi
    bf18:	e8 d6 87 ff ff       	callq  46f3 <transparent_crc>
    bf1d:	0f b7 05 b2 41 00 00 	movzwl 0x41b2(%rip),%eax        # 100d6 <g_407+0x6>
    bf24:	c1 e0 03             	shl    $0x3,%eax
    bf27:	66 c1 f8 0a          	sar    $0xa,%ax
    bf2b:	48 0f be c0          	movsbq %al,%rax
    bf2f:	8b 55 fc             	mov    -0x4(%rbp),%edx
    bf32:	48 8d 35 75 16 00 00 	lea    0x1675(%rip),%rsi        # d5ae <g_327+0x556>
    bf39:	48 89 c7             	mov    %rax,%rdi
    bf3c:	e8 b2 87 ff ff       	callq  46f3 <transparent_crc>
    bf41:	8b 05 91 41 00 00    	mov    0x4191(%rip),%eax        # 100d8 <g_414>
    bf47:	48 98                	cltq   
    bf49:	8b 55 fc             	mov    -0x4(%rbp),%edx
    bf4c:	48 8d 35 64 16 00 00 	lea    0x1664(%rip),%rsi        # d5b7 <g_327+0x55f>
    bf53:	48 89 c7             	mov    %rax,%rdi
    bf56:	e8 98 87 ff ff       	callq  46f3 <transparent_crc>
    bf5b:	c7 45 f4 00 00 00 00 	movl   $0x0,-0xc(%rbp)
    bf62:	e9 f0 00 00 00       	jmpq   c057 <main+0x75a>
    bf67:	8b 45 f4             	mov    -0xc(%rbp),%eax
    bf6a:	48 98                	cltq   
    bf6c:	48 8d 14 c5 00 00 00 	lea    0x0(,%rax,8),%rdx
    bf73:	00 
    bf74:	48 8d 05 65 41 00 00 	lea    0x4165(%rip),%rax        # 100e0 <g_581>
    bf7b:	48 8b 04 02          	mov    (%rdx,%rax,1),%rax
    bf7f:	25 ff ff 01 00       	and    $0x1ffff,%eax
    bf84:	89 c1                	mov    %eax,%ecx
    bf86:	8b 45 fc             	mov    -0x4(%rbp),%eax
    bf89:	89 c2                	mov    %eax,%edx
    bf8b:	48 8d 35 2b 16 00 00 	lea    0x162b(%rip),%rsi        # d5bd <g_327+0x565>
    bf92:	48 89 cf             	mov    %rcx,%rdi
    bf95:	e8 59 87 ff ff       	callq  46f3 <transparent_crc>
    bf9a:	8b 45 f4             	mov    -0xc(%rbp),%eax
    bf9d:	48 98                	cltq   
    bf9f:	48 8d 14 c5 00 00 00 	lea    0x0(,%rax,8),%rdx
    bfa6:	00 
    bfa7:	48 8d 05 32 41 00 00 	lea    0x4132(%rip),%rax        # 100e0 <g_581>
    bfae:	48 8b 04 02          	mov    (%rdx,%rax,1),%rax
    bfb2:	48 c1 e8 11          	shr    $0x11,%rax
    bfb6:	83 e0 0f             	and    $0xf,%eax
    bfb9:	0f b6 c0             	movzbl %al,%eax
    bfbc:	8b 55 fc             	mov    -0x4(%rbp),%edx
    bfbf:	48 8d 35 03 16 00 00 	lea    0x1603(%rip),%rsi        # d5c9 <g_327+0x571>
    bfc6:	48 89 c7             	mov    %rax,%rdi
    bfc9:	e8 25 87 ff ff       	callq  46f3 <transparent_crc>
    bfce:	8b 45 f4             	mov    -0xc(%rbp),%eax
    bfd1:	48 98                	cltq   
    bfd3:	48 8d 14 c5 00 00 00 	lea    0x0(,%rax,8),%rdx
    bfda:	00 
    bfdb:	48 8d 05 fe 40 00 00 	lea    0x40fe(%rip),%rax        # 100e0 <g_581>
    bfe2:	8b 44 02 04          	mov    0x4(%rdx,%rax,1),%eax
    bfe6:	25 ff ff 7f 00       	and    $0x7fffff,%eax
    bfeb:	89 c1                	mov    %eax,%ecx
    bfed:	8b 45 fc             	mov    -0x4(%rbp),%eax
    bff0:	89 c2                	mov    %eax,%edx
    bff2:	48 8d 35 dc 15 00 00 	lea    0x15dc(%rip),%rsi        # d5d5 <g_327+0x57d>
    bff9:	48 89 cf             	mov    %rcx,%rdi
    bffc:	e8 f2 86 ff ff       	callq  46f3 <transparent_crc>
    c001:	8b 45 f4             	mov    -0xc(%rbp),%eax
    c004:	48 98                	cltq   
    c006:	48 8d 14 c5 00 00 00 	lea    0x0(,%rax,8),%rdx
    c00d:	00 
    c00e:	48 8d 05 cb 40 00 00 	lea    0x40cb(%rip),%rax        # 100e0 <g_581>
    c015:	0f b7 44 02 06       	movzwl 0x6(%rdx,%rax,1),%eax
    c01a:	c1 e0 03             	shl    $0x3,%eax
    c01d:	66 c1 f8 0a          	sar    $0xa,%ax
    c021:	48 0f be c0          	movsbq %al,%rax
    c025:	8b 55 fc             	mov    -0x4(%rbp),%edx
    c028:	48 8d 35 b2 15 00 00 	lea    0x15b2(%rip),%rsi        # d5e1 <g_327+0x589>
    c02f:	48 89 c7             	mov    %rax,%rdi
    c032:	e8 bc 86 ff ff       	callq  46f3 <transparent_crc>
    c037:	83 7d fc 00          	cmpl   $0x0,-0x4(%rbp)
    c03b:	74 16                	je     c053 <main+0x756>
    c03d:	8b 45 f4             	mov    -0xc(%rbp),%eax
    c040:	89 c6                	mov    %eax,%esi
    c042:	48 8d 3d 3d 14 00 00 	lea    0x143d(%rip),%rdi        # d486 <g_327+0x42e>
    c049:	b8 00 00 00 00       	mov    $0x0,%eax
    c04e:	e8 2d 70 ff ff       	callq  3080 <printf@plt>
    c053:	83 45 f4 01          	addl   $0x1,-0xc(%rbp)
    c057:	83 7d f4 07          	cmpl   $0x7,-0xc(%rbp)
    c05b:	0f 8e 06 ff ff ff    	jle    bf67 <main+0x66a>
    c061:	48 8b 05 b8 40 00 00 	mov    0x40b8(%rip),%rax        # 10120 <g_602>
    c068:	25 ff ff 01 00       	and    $0x1ffff,%eax
    c06d:	89 c1                	mov    %eax,%ecx
    c06f:	8b 45 fc             	mov    -0x4(%rbp),%eax
    c072:	89 c2                	mov    %eax,%edx
    c074:	48 8d 35 72 15 00 00 	lea    0x1572(%rip),%rsi        # d5ed <g_327+0x595>
    c07b:	48 89 cf             	mov    %rcx,%rdi
    c07e:	e8 70 86 ff ff       	callq  46f3 <transparent_crc>
    c083:	48 8b 05 96 40 00 00 	mov    0x4096(%rip),%rax        # 10120 <g_602>
    c08a:	48 c1 e8 11          	shr    $0x11,%rax
    c08e:	83 e0 0f             	and    $0xf,%eax
    c091:	0f b6 c0             	movzbl %al,%eax
    c094:	8b 55 fc             	mov    -0x4(%rbp),%edx
    c097:	48 8d 35 58 15 00 00 	lea    0x1558(%rip),%rsi        # d5f6 <g_327+0x59e>
    c09e:	48 89 c7             	mov    %rax,%rdi
    c0a1:	e8 4d 86 ff ff       	callq  46f3 <transparent_crc>
    c0a6:	8b 05 78 40 00 00    	mov    0x4078(%rip),%eax        # 10124 <g_602+0x4>
    c0ac:	25 ff ff 7f 00       	and    $0x7fffff,%eax
    c0b1:	89 c1                	mov    %eax,%ecx
    c0b3:	8b 45 fc             	mov    -0x4(%rbp),%eax
    c0b6:	89 c2                	mov    %eax,%edx
    c0b8:	48 8d 35 40 15 00 00 	lea    0x1540(%rip),%rsi        # d5ff <g_327+0x5a7>
    c0bf:	48 89 cf             	mov    %rcx,%rdi
    c0c2:	e8 2c 86 ff ff       	callq  46f3 <transparent_crc>
    c0c7:	0f b7 05 58 40 00 00 	movzwl 0x4058(%rip),%eax        # 10126 <g_602+0x6>
    c0ce:	c1 e0 03             	shl    $0x3,%eax
    c0d1:	66 c1 f8 0a          	sar    $0xa,%ax
    c0d5:	48 0f be c0          	movsbq %al,%rax
    c0d9:	8b 55 fc             	mov    -0x4(%rbp),%edx
    c0dc:	48 8d 35 25 15 00 00 	lea    0x1525(%rip),%rsi        # d608 <g_327+0x5b0>
    c0e3:	48 89 c7             	mov    %rax,%rdi
    c0e6:	e8 08 86 ff ff       	callq  46f3 <transparent_crc>
    c0eb:	48 8b 05 36 40 00 00 	mov    0x4036(%rip),%rax        # 10128 <g_605>
    c0f2:	25 ff ff 01 00       	and    $0x1ffff,%eax
    c0f7:	89 c1                	mov    %eax,%ecx
    c0f9:	8b 45 fc             	mov    -0x4(%rbp),%eax
    c0fc:	89 c2                	mov    %eax,%edx
    c0fe:	48 8d 35 0c 15 00 00 	lea    0x150c(%rip),%rsi        # d611 <g_327+0x5b9>
    c105:	48 89 cf             	mov    %rcx,%rdi
    c108:	e8 e6 85 ff ff       	callq  46f3 <transparent_crc>
    c10d:	48 8b 05 14 40 00 00 	mov    0x4014(%rip),%rax        # 10128 <g_605>
    c114:	48 c1 e8 11          	shr    $0x11,%rax
    c118:	83 e0 0f             	and    $0xf,%eax
    c11b:	0f b6 c0             	movzbl %al,%eax
    c11e:	8b 55 fc             	mov    -0x4(%rbp),%edx
    c121:	48 8d 35 f2 14 00 00 	lea    0x14f2(%rip),%rsi        # d61a <g_327+0x5c2>
    c128:	48 89 c7             	mov    %rax,%rdi
    c12b:	e8 c3 85 ff ff       	callq  46f3 <transparent_crc>
    c130:	8b 05 f6 3f 00 00    	mov    0x3ff6(%rip),%eax        # 1012c <g_605+0x4>
    c136:	25 ff ff 7f 00       	and    $0x7fffff,%eax
    c13b:	89 c1                	mov    %eax,%ecx
    c13d:	8b 45 fc             	mov    -0x4(%rbp),%eax
    c140:	89 c2                	mov    %eax,%edx
    c142:	48 8d 35 da 14 00 00 	lea    0x14da(%rip),%rsi        # d623 <g_327+0x5cb>
    c149:	48 89 cf             	mov    %rcx,%rdi
    c14c:	e8 a2 85 ff ff       	callq  46f3 <transparent_crc>
    c151:	0f b7 05 d6 3f 00 00 	movzwl 0x3fd6(%rip),%eax        # 1012e <g_605+0x6>
    c158:	c1 e0 03             	shl    $0x3,%eax
    c15b:	66 c1 f8 0a          	sar    $0xa,%ax
    c15f:	48 0f be c0          	movsbq %al,%rax
    c163:	8b 55 fc             	mov    -0x4(%rbp),%edx
    c166:	48 8d 35 bf 14 00 00 	lea    0x14bf(%rip),%rsi        # d62c <g_327+0x5d4>
    c16d:	48 89 c7             	mov    %rax,%rdi
    c170:	e8 7e 85 ff ff       	callq  46f3 <transparent_crc>
    c175:	8b 05 b5 3f 00 00    	mov    0x3fb5(%rip),%eax        # 10130 <g_698>
    c17b:	48 98                	cltq   
    c17d:	8b 55 fc             	mov    -0x4(%rbp),%edx
    c180:	48 8d 35 ae 14 00 00 	lea    0x14ae(%rip),%rsi        # d635 <g_327+0x5dd>
    c187:	48 89 c7             	mov    %rax,%rdi
    c18a:	e8 64 85 ff ff       	callq  46f3 <transparent_crc>
    c18f:	c7 45 f4 00 00 00 00 	movl   $0x0,-0xc(%rbp)
    c196:	eb 76                	jmp    c20e <main+0x911>
    c198:	8b 45 f4             	mov    -0xc(%rbp),%eax
    c19b:	48 98                	cltq   
    c19d:	48 8d 14 85 00 00 00 	lea    0x0(,%rax,4),%rdx
    c1a4:	00 
    c1a5:	48 8d 05 94 3f 00 00 	lea    0x3f94(%rip),%rax        # 10140 <g_705>
    c1ac:	8b 04 02             	mov    (%rdx,%rax,1),%eax
    c1af:	48 98                	cltq   
    c1b1:	8b 55 fc             	mov    -0x4(%rbp),%edx
    c1b4:	48 8d 35 80 14 00 00 	lea    0x1480(%rip),%rsi        # d63b <g_327+0x5e3>
    c1bb:	48 89 c7             	mov    %rax,%rdi
    c1be:	e8 30 85 ff ff       	callq  46f3 <transparent_crc>
    c1c3:	8b 45 f4             	mov    -0xc(%rbp),%eax
    c1c6:	48 98                	cltq   
    c1c8:	48 8d 14 85 00 00 00 	lea    0x0(,%rax,4),%rdx
    c1cf:	00 
    c1d0:	48 8d 05 69 3f 00 00 	lea    0x3f69(%rip),%rax        # 10140 <g_705>
    c1d7:	8b 04 02             	mov    (%rdx,%rax,1),%eax
    c1da:	48 98                	cltq   
    c1dc:	8b 55 fc             	mov    -0x4(%rbp),%edx
    c1df:	48 8d 35 61 14 00 00 	lea    0x1461(%rip),%rsi        # d647 <g_327+0x5ef>
    c1e6:	48 89 c7             	mov    %rax,%rdi
    c1e9:	e8 05 85 ff ff       	callq  46f3 <transparent_crc>
    c1ee:	83 7d fc 00          	cmpl   $0x0,-0x4(%rbp)
    c1f2:	74 16                	je     c20a <main+0x90d>
    c1f4:	8b 45 f4             	mov    -0xc(%rbp),%eax
    c1f7:	89 c6                	mov    %eax,%esi
    c1f9:	48 8d 3d 86 12 00 00 	lea    0x1286(%rip),%rdi        # d486 <g_327+0x42e>
    c200:	b8 00 00 00 00       	mov    $0x0,%eax
    c205:	e8 76 6e ff ff       	callq  3080 <printf@plt>
    c20a:	83 45 f4 01          	addl   $0x1,-0xc(%rbp)
    c20e:	83 7d f4 03          	cmpl   $0x3,-0xc(%rbp)
    c212:	7e 84                	jle    c198 <main+0x89b>
    c214:	8b 05 36 3f 00 00    	mov    0x3f36(%rip),%eax        # 10150 <g_739>
    c21a:	89 c1                	mov    %eax,%ecx
    c21c:	8b 45 fc             	mov    -0x4(%rbp),%eax
    c21f:	89 c2                	mov    %eax,%edx
    c221:	48 8d 35 2b 14 00 00 	lea    0x142b(%rip),%rsi        # d653 <g_327+0x5fb>
    c228:	48 89 cf             	mov    %rcx,%rdi
    c22b:	e8 c3 84 ff ff       	callq  46f3 <transparent_crc>
    c230:	0f b7 05 1d 3f 00 00 	movzwl 0x3f1d(%rip),%eax        # 10154 <g_773>
    c237:	48 0f bf c0          	movswq %ax,%rax
    c23b:	8b 55 fc             	mov    -0x4(%rbp),%edx
    c23e:	48 8d 35 14 14 00 00 	lea    0x1414(%rip),%rsi        # d659 <g_327+0x601>
    c245:	48 89 c7             	mov    %rax,%rdi
    c248:	e8 a6 84 ff ff       	callq  46f3 <transparent_crc>
    c24d:	c7 45 f4 00 00 00 00 	movl   $0x0,-0xc(%rbp)
    c254:	eb 45                	jmp    c29b <main+0x99e>
    c256:	8b 45 f4             	mov    -0xc(%rbp),%eax
    c259:	48 98                	cltq   
    c25b:	48 8d 15 f4 3e 00 00 	lea    0x3ef4(%rip),%rdx        # 10156 <g_810>
    c262:	0f b6 04 10          	movzbl (%rax,%rdx,1),%eax
    c266:	0f b6 c0             	movzbl %al,%eax
    c269:	8b 55 fc             	mov    -0x4(%rbp),%edx
    c26c:	48 8d 35 ec 13 00 00 	lea    0x13ec(%rip),%rsi        # d65f <g_327+0x607>
    c273:	48 89 c7             	mov    %rax,%rdi
    c276:	e8 78 84 ff ff       	callq  46f3 <transparent_crc>
    c27b:	83 7d fc 00          	cmpl   $0x0,-0x4(%rbp)
    c27f:	74 16                	je     c297 <main+0x99a>
    c281:	8b 45 f4             	mov    -0xc(%rbp),%eax
    c284:	89 c6                	mov    %eax,%esi
    c286:	48 8d 3d f9 11 00 00 	lea    0x11f9(%rip),%rdi        # d486 <g_327+0x42e>
    c28d:	b8 00 00 00 00       	mov    $0x0,%eax
    c292:	e8 e9 6d ff ff       	callq  3080 <printf@plt>
    c297:	83 45 f4 01          	addl   $0x1,-0xc(%rbp)
    c29b:	83 7d f4 05          	cmpl   $0x5,-0xc(%rbp)
    c29f:	7e b5                	jle    c256 <main+0x959>
    c2a1:	8b 05 b5 3e 00 00    	mov    0x3eb5(%rip),%eax        # 1015c <g_839>
    c2a7:	48 98                	cltq   
    c2a9:	8b 55 fc             	mov    -0x4(%rbp),%edx
    c2ac:	48 8d 35 b5 13 00 00 	lea    0x13b5(%rip),%rsi        # d668 <g_327+0x610>
    c2b3:	48 89 c7             	mov    %rax,%rdi
    c2b6:	e8 38 84 ff ff       	callq  46f3 <transparent_crc>
    c2bb:	8b 05 9f 3e 00 00    	mov    0x3e9f(%rip),%eax        # 10160 <g_853>
    c2c1:	89 c1                	mov    %eax,%ecx
    c2c3:	8b 45 fc             	mov    -0x4(%rbp),%eax
    c2c6:	89 c2                	mov    %eax,%edx
    c2c8:	48 8d 35 9f 13 00 00 	lea    0x139f(%rip),%rsi        # d66e <g_327+0x616>
    c2cf:	48 89 cf             	mov    %rcx,%rdi
    c2d2:	e8 1c 84 ff ff       	callq  46f3 <transparent_crc>
    c2d7:	48 8b 05 8a 3e 00 00 	mov    0x3e8a(%rip),%rax        # 10168 <g_889>
    c2de:	8b 55 fc             	mov    -0x4(%rbp),%edx
    c2e1:	48 8d 35 8c 13 00 00 	lea    0x138c(%rip),%rsi        # d674 <g_327+0x61c>
    c2e8:	48 89 c7             	mov    %rax,%rdi
    c2eb:	e8 03 84 ff ff       	callq  46f3 <transparent_crc>
    c2f0:	8b 05 7a 3e 00 00    	mov    0x3e7a(%rip),%eax        # 10170 <g_1034>
    c2f6:	48 98                	cltq   
    c2f8:	8b 55 fc             	mov    -0x4(%rbp),%edx
    c2fb:	48 8d 35 78 13 00 00 	lea    0x1378(%rip),%rsi        # d67a <g_327+0x622>
    c302:	48 89 c7             	mov    %rax,%rdi
    c305:	e8 e9 83 ff ff       	callq  46f3 <transparent_crc>
    c30a:	c7 45 f4 00 00 00 00 	movl   $0x0,-0xc(%rbp)
    c311:	eb 70                	jmp    c383 <main+0xa86>
    c313:	c7 45 f8 00 00 00 00 	movl   $0x0,-0x8(%rbp)
    c31a:	eb 5d                	jmp    c379 <main+0xa7c>
    c31c:	8b 45 f8             	mov    -0x8(%rbp),%eax
    c31f:	48 98                	cltq   
    c321:	8b 55 f4             	mov    -0xc(%rbp),%edx
    c324:	48 63 d2             	movslq %edx,%rdx
    c327:	48 c1 e2 02          	shl    $0x2,%rdx
    c32b:	48 01 d0             	add    %rdx,%rax
    c32e:	48 8d 14 85 00 00 00 	lea    0x0(,%rax,4),%rdx
    c335:	00 
    c336:	48 8d 05 43 3e 00 00 	lea    0x3e43(%rip),%rax        # 10180 <g_1124>
    c33d:	8b 04 02             	mov    (%rdx,%rax,1),%eax
    c340:	89 c1                	mov    %eax,%ecx
    c342:	8b 45 fc             	mov    -0x4(%rbp),%eax
    c345:	89 c2                	mov    %eax,%edx
    c347:	48 8d 35 33 13 00 00 	lea    0x1333(%rip),%rsi        # d681 <g_327+0x629>
    c34e:	48 89 cf             	mov    %rcx,%rdi
    c351:	e8 9d 83 ff ff       	callq  46f3 <transparent_crc>
    c356:	83 7d fc 00          	cmpl   $0x0,-0x4(%rbp)
    c35a:	74 19                	je     c375 <main+0xa78>
    c35c:	8b 55 f8             	mov    -0x8(%rbp),%edx
    c35f:	8b 45 f4             	mov    -0xc(%rbp),%eax
    c362:	89 c6                	mov    %eax,%esi
    c364:	48 8d 3d 23 13 00 00 	lea    0x1323(%rip),%rdi        # d68e <g_327+0x636>
    c36b:	b8 00 00 00 00       	mov    $0x0,%eax
    c370:	e8 0b 6d ff ff       	callq  3080 <printf@plt>
    c375:	83 45 f8 01          	addl   $0x1,-0x8(%rbp)
    c379:	83 7d f8 03          	cmpl   $0x3,-0x8(%rbp)
    c37d:	7e 9d                	jle    c31c <main+0xa1f>
    c37f:	83 45 f4 01          	addl   $0x1,-0xc(%rbp)
    c383:	83 7d f4 05          	cmpl   $0x5,-0xc(%rbp)
    c387:	7e 8a                	jle    c313 <main+0xa16>
    c389:	8b 05 51 3e 00 00    	mov    0x3e51(%rip),%eax        # 101e0 <g_1149>
    c38f:	89 c1                	mov    %eax,%ecx
    c391:	8b 45 fc             	mov    -0x4(%rbp),%eax
    c394:	89 c2                	mov    %eax,%edx
    c396:	48 8d 35 03 13 00 00 	lea    0x1303(%rip),%rsi        # d6a0 <g_327+0x648>
    c39d:	48 89 cf             	mov    %rcx,%rdi
    c3a0:	e8 4e 83 ff ff       	callq  46f3 <transparent_crc>
    c3a5:	8b 05 39 3e 00 00    	mov    0x3e39(%rip),%eax        # 101e4 <g_1169>
    c3ab:	89 c1                	mov    %eax,%ecx
    c3ad:	8b 45 fc             	mov    -0x4(%rbp),%eax
    c3b0:	89 c2                	mov    %eax,%edx
    c3b2:	48 8d 35 ee 12 00 00 	lea    0x12ee(%rip),%rsi        # d6a7 <g_327+0x64f>
    c3b9:	48 89 cf             	mov    %rcx,%rdi
    c3bc:	e8 32 83 ff ff       	callq  46f3 <transparent_crc>
    c3c1:	0f b7 05 20 3e 00 00 	movzwl 0x3e20(%rip),%eax        # 101e8 <g_1179>
    c3c8:	0f b7 c0             	movzwl %ax,%eax
    c3cb:	8b 55 fc             	mov    -0x4(%rbp),%edx
    c3ce:	48 8d 35 d9 12 00 00 	lea    0x12d9(%rip),%rsi        # d6ae <g_327+0x656>
    c3d5:	48 89 c7             	mov    %rax,%rdi
    c3d8:	e8 16 83 ff ff       	callq  46f3 <transparent_crc>
    c3dd:	0f b6 05 06 3e 00 00 	movzbl 0x3e06(%rip),%eax        # 101ea <g_1279>
    c3e4:	0f b6 c0             	movzbl %al,%eax
    c3e7:	8b 55 fc             	mov    -0x4(%rbp),%edx
    c3ea:	48 8d 35 c4 12 00 00 	lea    0x12c4(%rip),%rsi        # d6b5 <g_327+0x65d>
    c3f1:	48 89 c7             	mov    %rax,%rdi
    c3f4:	e8 fa 82 ff ff       	callq  46f3 <transparent_crc>
    c3f9:	c7 45 f4 00 00 00 00 	movl   $0x0,-0xc(%rbp)
    c400:	e9 f0 00 00 00       	jmpq   c4f5 <main+0xbf8>
    c405:	8b 45 f4             	mov    -0xc(%rbp),%eax
    c408:	48 98                	cltq   
    c40a:	48 8d 14 c5 00 00 00 	lea    0x0(,%rax,8),%rdx
    c411:	00 
    c412:	48 8d 05 e7 3d 00 00 	lea    0x3de7(%rip),%rax        # 10200 <g_1346>
    c419:	48 8b 04 02          	mov    (%rdx,%rax,1),%rax
    c41d:	25 ff ff 01 00       	and    $0x1ffff,%eax
    c422:	89 c1                	mov    %eax,%ecx
    c424:	8b 45 fc             	mov    -0x4(%rbp),%eax
    c427:	89 c2                	mov    %eax,%edx
    c429:	48 8d 35 8c 12 00 00 	lea    0x128c(%rip),%rsi        # d6bc <g_327+0x664>
    c430:	48 89 cf             	mov    %rcx,%rdi
    c433:	e8 bb 82 ff ff       	callq  46f3 <transparent_crc>
    c438:	8b 45 f4             	mov    -0xc(%rbp),%eax
    c43b:	48 98                	cltq   
    c43d:	48 8d 14 c5 00 00 00 	lea    0x0(,%rax,8),%rdx
    c444:	00 
    c445:	48 8d 05 b4 3d 00 00 	lea    0x3db4(%rip),%rax        # 10200 <g_1346>
    c44c:	48 8b 04 02          	mov    (%rdx,%rax,1),%rax
    c450:	48 c1 e8 11          	shr    $0x11,%rax
    c454:	83 e0 0f             	and    $0xf,%eax
    c457:	0f b6 c0             	movzbl %al,%eax
    c45a:	8b 55 fc             	mov    -0x4(%rbp),%edx
    c45d:	48 8d 35 65 12 00 00 	lea    0x1265(%rip),%rsi        # d6c9 <g_327+0x671>
    c464:	48 89 c7             	mov    %rax,%rdi
    c467:	e8 87 82 ff ff       	callq  46f3 <transparent_crc>
    c46c:	8b 45 f4             	mov    -0xc(%rbp),%eax
    c46f:	48 98                	cltq   
    c471:	48 8d 14 c5 00 00 00 	lea    0x0(,%rax,8),%rdx
    c478:	00 
    c479:	48 8d 05 80 3d 00 00 	lea    0x3d80(%rip),%rax        # 10200 <g_1346>
    c480:	8b 44 02 04          	mov    0x4(%rdx,%rax,1),%eax
    c484:	25 ff ff 7f 00       	and    $0x7fffff,%eax
    c489:	89 c1                	mov    %eax,%ecx
    c48b:	8b 45 fc             	mov    -0x4(%rbp),%eax
    c48e:	89 c2                	mov    %eax,%edx
    c490:	48 8d 35 3f 12 00 00 	lea    0x123f(%rip),%rsi        # d6d6 <g_327+0x67e>
    c497:	48 89 cf             	mov    %rcx,%rdi
    c49a:	e8 54 82 ff ff       	callq  46f3 <transparent_crc>
    c49f:	8b 45 f4             	mov    -0xc(%rbp),%eax
    c4a2:	48 98                	cltq   
    c4a4:	48 8d 14 c5 00 00 00 	lea    0x0(,%rax,8),%rdx
    c4ab:	00 
    c4ac:	48 8d 05 4d 3d 00 00 	lea    0x3d4d(%rip),%rax        # 10200 <g_1346>
    c4b3:	0f b7 44 02 06       	movzwl 0x6(%rdx,%rax,1),%eax
    c4b8:	c1 e0 03             	shl    $0x3,%eax
    c4bb:	66 c1 f8 0a          	sar    $0xa,%ax
    c4bf:	48 0f be c0          	movsbq %al,%rax
    c4c3:	8b 55 fc             	mov    -0x4(%rbp),%edx
    c4c6:	48 8d 35 16 12 00 00 	lea    0x1216(%rip),%rsi        # d6e3 <g_327+0x68b>
    c4cd:	48 89 c7             	mov    %rax,%rdi
    c4d0:	e8 1e 82 ff ff       	callq  46f3 <transparent_crc>
    c4d5:	83 7d fc 00          	cmpl   $0x0,-0x4(%rbp)
    c4d9:	74 16                	je     c4f1 <main+0xbf4>
    c4db:	8b 45 f4             	mov    -0xc(%rbp),%eax
    c4de:	89 c6                	mov    %eax,%esi
    c4e0:	48 8d 3d 9f 0f 00 00 	lea    0xf9f(%rip),%rdi        # d486 <g_327+0x42e>
    c4e7:	b8 00 00 00 00       	mov    $0x0,%eax
    c4ec:	e8 8f 6b ff ff       	callq  3080 <printf@plt>
    c4f1:	83 45 f4 01          	addl   $0x1,-0xc(%rbp)
    c4f5:	83 7d f4 07          	cmpl   $0x7,-0xc(%rbp)
    c4f9:	0f 8e 06 ff ff ff    	jle    c405 <main+0xb08>
    c4ff:	8b 05 1b 3b 00 00    	mov    0x3b1b(%rip),%eax        # 10020 <crc32_context>
    c505:	f7 d0                	not    %eax
    c507:	89 c2                	mov    %eax,%edx
    c509:	8b 45 fc             	mov    -0x4(%rbp),%eax
    c50c:	89 c6                	mov    %eax,%esi
    c50e:	89 d7                	mov    %edx,%edi
    c510:	e8 7f 6c ff ff       	callq  3194 <platform_main_end>
    c515:	b8 00 00 00 00       	mov    $0x0,%eax
    c51a:	c9                   	leaveq 
    c51b:	c3                   	retq   
    c51c:	0f 1f 40 00          	nopl   0x0(%rax)

000000000000c520 <__libc_csu_init>:
    c520:	f3 0f 1e fa          	endbr64 
    c524:	41 57                	push   %r15
    c526:	4c 8d 3d 73 38 00 00 	lea    0x3873(%rip),%r15        # fda0 <__frame_dummy_init_array_entry>
    c52d:	41 56                	push   %r14
    c52f:	49 89 d6             	mov    %rdx,%r14
    c532:	41 55                	push   %r13
    c534:	49 89 f5             	mov    %rsi,%r13
    c537:	41 54                	push   %r12
    c539:	41 89 fc             	mov    %edi,%r12d
    c53c:	55                   	push   %rbp
    c53d:	48 8d 2d 64 38 00 00 	lea    0x3864(%rip),%rbp        # fda8 <__do_global_dtors_aux_fini_array_entry>
    c544:	53                   	push   %rbx
    c545:	4c 29 fd             	sub    %r15,%rbp
    c548:	48 83 ec 08          	sub    $0x8,%rsp
    c54c:	e8 af 6a ff ff       	callq  3000 <_init>
    c551:	48 c1 fd 03          	sar    $0x3,%rbp
    c555:	74 1f                	je     c576 <__libc_csu_init+0x56>
    c557:	31 db                	xor    %ebx,%ebx
    c559:	0f 1f 80 00 00 00 00 	nopl   0x0(%rax)
    c560:	4c 89 f2             	mov    %r14,%rdx
    c563:	4c 89 ee             	mov    %r13,%rsi
    c566:	44 89 e7             	mov    %r12d,%edi
    c569:	41 ff 14 df          	callq  *(%r15,%rbx,8)
    c56d:	48 83 c3 01          	add    $0x1,%rbx
    c571:	48 39 dd             	cmp    %rbx,%rbp
    c574:	75 ea                	jne    c560 <__libc_csu_init+0x40>
    c576:	48 83 c4 08          	add    $0x8,%rsp
    c57a:	5b                   	pop    %rbx
    c57b:	5d                   	pop    %rbp
    c57c:	41 5c                	pop    %r12
    c57e:	41 5d                	pop    %r13
    c580:	41 5e                	pop    %r14
    c582:	41 5f                	pop    %r15
    c584:	c3                   	retq   
    c585:	66 66 2e 0f 1f 84 00 	data16 nopw %cs:0x0(%rax,%rax,1)
    c58c:	00 00 00 00 

000000000000c590 <__libc_csu_fini>:
    c590:	f3 0f 1e fa          	endbr64 
    c594:	c3                   	retq   
