


Disassembly of section .text:

00000000000090a0 <_start>:
    90a0:	f3 0f 1e fa          	endbr64 
    90a4:	31 ed                	xor    %ebp,%ebp
    90a6:	49 89 d1             	mov    %rdx,%r9
    90a9:	5e                   	pop    %rsi
    90aa:	48 89 e2             	mov    %rsp,%rdx
    90ad:	48 83 e4 f0          	and    $0xfffffffffffffff0,%rsp
    90b1:	50                   	push   %rax
    90b2:	54                   	push   %rsp
    90b3:	4c 8d 05 86 b8 00 00 	lea    0xb886(%rip),%r8        # 14940 <__libc_csu_fini>
    90ba:	48 8d 0d 0f b8 00 00 	lea    0xb80f(%rip),%rcx        # 148d0 <__libc_csu_init>
    90c1:	48 8d 3d 4a ac 00 00 	lea    0xac4a(%rip),%rdi        # 13d12 <main>
    90c8:	ff 15 12 ff 00 00    	callq  *0xff12(%rip)        # 18fe0 <__libc_start_main@GLIBC_2.2.5>
    90ce:	f4                   	hlt    
    90cf:	90                   	nop

00000000000090d0 <deregister_tm_clones>:
    90d0:	48 8d 3d 59 3b 01 00 	lea    0x13b59(%rip),%rdi        # 1cc30 <__TMC_END__>
    90d7:	48 8d 05 52 3b 01 00 	lea    0x13b52(%rip),%rax        # 1cc30 <__TMC_END__>
    90de:	48 39 f8             	cmp    %rdi,%rax
    90e1:	74 15                	je     90f8 <deregister_tm_clones+0x28>
    90e3:	48 8b 05 ee fe 00 00 	mov    0xfeee(%rip),%rax        # 18fd8 <_ITM_deregisterTMCloneTable>
    90ea:	48 85 c0             	test   %rax,%rax
    90ed:	74 09                	je     90f8 <deregister_tm_clones+0x28>
    90ef:	ff e0                	jmpq   *%rax
    90f1:	0f 1f 80 00 00 00 00 	nopl   0x0(%rax)
    90f8:	c3                   	retq   
    90f9:	0f 1f 80 00 00 00 00 	nopl   0x0(%rax)

0000000000009100 <register_tm_clones>:
    9100:	48 8d 3d 29 3b 01 00 	lea    0x13b29(%rip),%rdi        # 1cc30 <__TMC_END__>
    9107:	48 8d 35 22 3b 01 00 	lea    0x13b22(%rip),%rsi        # 1cc30 <__TMC_END__>
    910e:	48 29 fe             	sub    %rdi,%rsi
    9111:	48 89 f0             	mov    %rsi,%rax
    9114:	48 c1 ee 3f          	shr    $0x3f,%rsi
    9118:	48 c1 f8 03          	sar    $0x3,%rax
    911c:	48 01 c6             	add    %rax,%rsi
    911f:	48 d1 fe             	sar    %rsi
    9122:	74 14                	je     9138 <register_tm_clones+0x38>
    9124:	48 8b 05 c5 fe 00 00 	mov    0xfec5(%rip),%rax        # 18ff0 <_ITM_registerTMCloneTable>
    912b:	48 85 c0             	test   %rax,%rax
    912e:	74 08                	je     9138 <register_tm_clones+0x38>
    9130:	ff e0                	jmpq   *%rax
    9132:	66 0f 1f 44 00 00    	nopw   0x0(%rax,%rax,1)
    9138:	c3                   	retq   
    9139:	0f 1f 80 00 00 00 00 	nopl   0x0(%rax)

0000000000009140 <__do_global_dtors_aux>:
    9140:	f3 0f 1e fa          	endbr64 
    9144:	80 3d f5 3a 01 00 00 	cmpb   $0x0,0x13af5(%rip)        # 1cc40 <completed.8061>
    914b:	75 2b                	jne    9178 <__do_global_dtors_aux+0x38>
    914d:	55                   	push   %rbp
    914e:	48 83 3d a2 fe 00 00 	cmpq   $0x0,0xfea2(%rip)        # 18ff8 <__cxa_finalize@GLIBC_2.2.5>
    9155:	00 
    9156:	48 89 e5             	mov    %rsp,%rbp
    9159:	74 0c                	je     9167 <__do_global_dtors_aux+0x27>
    915b:	48 8b 3d a6 fe 00 00 	mov    0xfea6(%rip),%rdi        # 19008 <__dso_handle>
    9162:	e8 f9 fe ff ff       	callq  9060 <__cxa_finalize@plt>
    9167:	e8 64 ff ff ff       	callq  90d0 <deregister_tm_clones>
    916c:	c6 05 cd 3a 01 00 01 	movb   $0x1,0x13acd(%rip)        # 1cc40 <completed.8061>
    9173:	5d                   	pop    %rbp
    9174:	c3                   	retq   
    9175:	0f 1f 00             	nopl   (%rax)
    9178:	c3                   	retq   
    9179:	0f 1f 80 00 00 00 00 	nopl   0x0(%rax)

0000000000009180 <frame_dummy>:
    9180:	f3 0f 1e fa          	endbr64 
    9184:	e9 77 ff ff ff       	jmpq   9100 <register_tm_clones>

0000000000009189 <platform_main_begin>:
    9189:	f3 0f 1e fa          	endbr64 
    918d:	55                   	push   %rbp
    918e:	48 89 e5             	mov    %rsp,%rbp
    9191:	90                   	nop
    9192:	5d                   	pop    %rbp
    9193:	c3                   	retq   

0000000000009194 <platform_main_end>:
    9194:	f3 0f 1e fa          	endbr64 
    9198:	55                   	push   %rbp
    9199:	48 89 e5             	mov    %rsp,%rbp
    919c:	48 83 ec 10          	sub    $0x10,%rsp
    91a0:	89 7d fc             	mov    %edi,-0x4(%rbp)
    91a3:	89 75 f8             	mov    %esi,-0x8(%rbp)
    91a6:	8b 45 fc             	mov    -0x4(%rbp),%eax
    91a9:	89 c6                	mov    %eax,%esi
    91ab:	48 8d 3d 6e be 00 00 	lea    0xbe6e(%rip),%rdi        # 15020 <_IO_stdin_used+0x20>
    91b2:	b8 00 00 00 00       	mov    $0x0,%eax
    91b7:	e8 c4 fe ff ff       	callq  9080 <printf@plt>
    91bc:	90                   	nop
    91bd:	c9                   	leaveq 
    91be:	c3                   	retq   

00000000000091bf <safe_unary_minus_func_int8_t_s>:
    91bf:	f3 0f 1e fa          	endbr64 
    91c3:	55                   	push   %rbp
    91c4:	48 89 e5             	mov    %rsp,%rbp
    91c7:	89 f8                	mov    %edi,%eax
    91c9:	88 45 fc             	mov    %al,-0x4(%rbp)
    91cc:	0f b6 45 fc          	movzbl -0x4(%rbp),%eax
    91d0:	f7 d8                	neg    %eax
    91d2:	5d                   	pop    %rbp
    91d3:	c3                   	retq   

00000000000091d4 <safe_add_func_int8_t_s_s>:
    91d4:	f3 0f 1e fa          	endbr64 
    91d8:	55                   	push   %rbp
    91d9:	48 89 e5             	mov    %rsp,%rbp
    91dc:	89 fa                	mov    %edi,%edx
    91de:	89 f0                	mov    %esi,%eax
    91e0:	88 55 fc             	mov    %dl,-0x4(%rbp)
    91e3:	88 45 f8             	mov    %al,-0x8(%rbp)
    91e6:	0f b6 55 fc          	movzbl -0x4(%rbp),%edx
    91ea:	0f b6 45 f8          	movzbl -0x8(%rbp),%eax
    91ee:	01 d0                	add    %edx,%eax
    91f0:	5d                   	pop    %rbp
    91f1:	c3                   	retq   

00000000000091f2 <safe_sub_func_int8_t_s_s>:
    91f2:	f3 0f 1e fa          	endbr64 
    91f6:	55                   	push   %rbp
    91f7:	48 89 e5             	mov    %rsp,%rbp
    91fa:	89 fa                	mov    %edi,%edx
    91fc:	89 f0                	mov    %esi,%eax
    91fe:	88 55 fc             	mov    %dl,-0x4(%rbp)
    9201:	88 45 f8             	mov    %al,-0x8(%rbp)
    9204:	0f b6 55 fc          	movzbl -0x4(%rbp),%edx
    9208:	0f b6 45 f8          	movzbl -0x8(%rbp),%eax
    920c:	29 c2                	sub    %eax,%edx
    920e:	89 d0                	mov    %edx,%eax
    9210:	5d                   	pop    %rbp
    9211:	c3                   	retq   

0000000000009212 <safe_mul_func_int8_t_s_s>:
    9212:	f3 0f 1e fa          	endbr64 
    9216:	55                   	push   %rbp
    9217:	48 89 e5             	mov    %rsp,%rbp
    921a:	89 fa                	mov    %edi,%edx
    921c:	89 f0                	mov    %esi,%eax
    921e:	88 55 fc             	mov    %dl,-0x4(%rbp)
    9221:	88 45 f8             	mov    %al,-0x8(%rbp)
    9224:	0f b6 45 fc          	movzbl -0x4(%rbp),%eax
    9228:	0f b6 55 f8          	movzbl -0x8(%rbp),%edx
    922c:	0f af c2             	imul   %edx,%eax
    922f:	5d                   	pop    %rbp
    9230:	c3                   	retq   

0000000000009231 <safe_mod_func_int8_t_s_s>:
    9231:	f3 0f 1e fa          	endbr64 
    9235:	55                   	push   %rbp
    9236:	48 89 e5             	mov    %rsp,%rbp
    9239:	89 fa                	mov    %edi,%edx
    923b:	89 f0                	mov    %esi,%eax
    923d:	88 55 fc             	mov    %dl,-0x4(%rbp)
    9240:	88 45 f8             	mov    %al,-0x8(%rbp)
    9243:	80 7d f8 00          	cmpb   $0x0,-0x8(%rbp)
    9247:	74 1b                	je     9264 <safe_mod_func_int8_t_s_s+0x33>
    9249:	80 7d fc 80          	cmpb   $0x80,-0x4(%rbp)
    924d:	75 06                	jne    9255 <safe_mod_func_int8_t_s_s+0x24>
    924f:	80 7d f8 ff          	cmpb   $0xff,-0x8(%rbp)
    9253:	74 0f                	je     9264 <safe_mod_func_int8_t_s_s+0x33>
    9255:	0f be 45 fc          	movsbl -0x4(%rbp),%eax
    9259:	0f be 4d f8          	movsbl -0x8(%rbp),%ecx
    925d:	99                   	cltd   
    925e:	f7 f9                	idiv   %ecx
    9260:	89 d0                	mov    %edx,%eax
    9262:	eb 04                	jmp    9268 <safe_mod_func_int8_t_s_s+0x37>
    9264:	0f b6 45 fc          	movzbl -0x4(%rbp),%eax
    9268:	5d                   	pop    %rbp
    9269:	c3                   	retq   

000000000000926a <safe_div_func_int8_t_s_s>:
    926a:	f3 0f 1e fa          	endbr64 
    926e:	55                   	push   %rbp
    926f:	48 89 e5             	mov    %rsp,%rbp
    9272:	89 fa                	mov    %edi,%edx
    9274:	89 f0                	mov    %esi,%eax
    9276:	88 55 fc             	mov    %dl,-0x4(%rbp)
    9279:	88 45 f8             	mov    %al,-0x8(%rbp)
    927c:	80 7d f8 00          	cmpb   $0x0,-0x8(%rbp)
    9280:	74 19                	je     929b <safe_div_func_int8_t_s_s+0x31>
    9282:	80 7d fc 80          	cmpb   $0x80,-0x4(%rbp)
    9286:	75 06                	jne    928e <safe_div_func_int8_t_s_s+0x24>
    9288:	80 7d f8 ff          	cmpb   $0xff,-0x8(%rbp)
    928c:	74 0d                	je     929b <safe_div_func_int8_t_s_s+0x31>
    928e:	0f be 45 fc          	movsbl -0x4(%rbp),%eax
    9292:	0f be 4d f8          	movsbl -0x8(%rbp),%ecx
    9296:	99                   	cltd   
    9297:	f7 f9                	idiv   %ecx
    9299:	eb 04                	jmp    929f <safe_div_func_int8_t_s_s+0x35>
    929b:	0f b6 45 fc          	movzbl -0x4(%rbp),%eax
    929f:	5d                   	pop    %rbp
    92a0:	c3                   	retq   

00000000000092a1 <safe_lshift_func_int8_t_s_s>:
    92a1:	f3 0f 1e fa          	endbr64 
    92a5:	55                   	push   %rbp
    92a6:	48 89 e5             	mov    %rsp,%rbp
    92a9:	89 f8                	mov    %edi,%eax
    92ab:	89 75 f8             	mov    %esi,-0x8(%rbp)
    92ae:	88 45 fc             	mov    %al,-0x4(%rbp)
    92b1:	80 7d fc 00          	cmpb   $0x0,-0x4(%rbp)
    92b5:	78 31                	js     92e8 <safe_lshift_func_int8_t_s_s+0x47>
    92b7:	83 7d f8 00          	cmpl   $0x0,-0x8(%rbp)
    92bb:	78 2b                	js     92e8 <safe_lshift_func_int8_t_s_s+0x47>
    92bd:	83 7d f8 1f          	cmpl   $0x1f,-0x8(%rbp)
    92c1:	7f 25                	jg     92e8 <safe_lshift_func_int8_t_s_s+0x47>
    92c3:	0f be 55 fc          	movsbl -0x4(%rbp),%edx
    92c7:	8b 45 f8             	mov    -0x8(%rbp),%eax
    92ca:	be 7f 00 00 00       	mov    $0x7f,%esi
    92cf:	89 c1                	mov    %eax,%ecx
    92d1:	d3 fe                	sar    %cl,%esi
    92d3:	89 f0                	mov    %esi,%eax
    92d5:	39 c2                	cmp    %eax,%edx
    92d7:	7f 0f                	jg     92e8 <safe_lshift_func_int8_t_s_s+0x47>
    92d9:	0f be 55 fc          	movsbl -0x4(%rbp),%edx
    92dd:	8b 45 f8             	mov    -0x8(%rbp),%eax
    92e0:	89 c1                	mov    %eax,%ecx
    92e2:	d3 e2                	shl    %cl,%edx
    92e4:	89 d0                	mov    %edx,%eax
    92e6:	eb 04                	jmp    92ec <safe_lshift_func_int8_t_s_s+0x4b>
    92e8:	0f b6 45 fc          	movzbl -0x4(%rbp),%eax
    92ec:	5d                   	pop    %rbp
    92ed:	c3                   	retq   

00000000000092ee <safe_lshift_func_int8_t_s_u>:
    92ee:	f3 0f 1e fa          	endbr64 
    92f2:	55                   	push   %rbp
    92f3:	48 89 e5             	mov    %rsp,%rbp
    92f6:	89 f8                	mov    %edi,%eax
    92f8:	89 75 f8             	mov    %esi,-0x8(%rbp)
    92fb:	88 45 fc             	mov    %al,-0x4(%rbp)
    92fe:	80 7d fc 00          	cmpb   $0x0,-0x4(%rbp)
    9302:	78 2b                	js     932f <safe_lshift_func_int8_t_s_u+0x41>
    9304:	83 7d f8 1f          	cmpl   $0x1f,-0x8(%rbp)
    9308:	77 25                	ja     932f <safe_lshift_func_int8_t_s_u+0x41>
    930a:	0f be 55 fc          	movsbl -0x4(%rbp),%edx
    930e:	8b 45 f8             	mov    -0x8(%rbp),%eax
    9311:	be 7f 00 00 00       	mov    $0x7f,%esi
    9316:	89 c1                	mov    %eax,%ecx
    9318:	d3 fe                	sar    %cl,%esi
    931a:	89 f0                	mov    %esi,%eax
    931c:	39 c2                	cmp    %eax,%edx
    931e:	7f 0f                	jg     932f <safe_lshift_func_int8_t_s_u+0x41>
    9320:	0f be 55 fc          	movsbl -0x4(%rbp),%edx
    9324:	8b 45 f8             	mov    -0x8(%rbp),%eax
    9327:	89 c1                	mov    %eax,%ecx
    9329:	d3 e2                	shl    %cl,%edx
    932b:	89 d0                	mov    %edx,%eax
    932d:	eb 04                	jmp    9333 <safe_lshift_func_int8_t_s_u+0x45>
    932f:	0f b6 45 fc          	movzbl -0x4(%rbp),%eax
    9333:	5d                   	pop    %rbp
    9334:	c3                   	retq   

0000000000009335 <safe_rshift_func_int8_t_s_s>:
    9335:	f3 0f 1e fa          	endbr64 
    9339:	55                   	push   %rbp
    933a:	48 89 e5             	mov    %rsp,%rbp
    933d:	89 f8                	mov    %edi,%eax
    933f:	89 75 f8             	mov    %esi,-0x8(%rbp)
    9342:	88 45 fc             	mov    %al,-0x4(%rbp)
    9345:	80 7d fc 00          	cmpb   $0x0,-0x4(%rbp)
    9349:	78 1b                	js     9366 <safe_rshift_func_int8_t_s_s+0x31>
    934b:	83 7d f8 00          	cmpl   $0x0,-0x8(%rbp)
    934f:	78 15                	js     9366 <safe_rshift_func_int8_t_s_s+0x31>
    9351:	83 7d f8 1f          	cmpl   $0x1f,-0x8(%rbp)
    9355:	7f 0f                	jg     9366 <safe_rshift_func_int8_t_s_s+0x31>
    9357:	0f be 55 fc          	movsbl -0x4(%rbp),%edx
    935b:	8b 45 f8             	mov    -0x8(%rbp),%eax
    935e:	89 c1                	mov    %eax,%ecx
    9360:	d3 fa                	sar    %cl,%edx
    9362:	89 d0                	mov    %edx,%eax
    9364:	eb 04                	jmp    936a <safe_rshift_func_int8_t_s_s+0x35>
    9366:	0f b6 45 fc          	movzbl -0x4(%rbp),%eax
    936a:	5d                   	pop    %rbp
    936b:	c3                   	retq   

000000000000936c <safe_rshift_func_int8_t_s_u>:
    936c:	f3 0f 1e fa          	endbr64 
    9370:	55                   	push   %rbp
    9371:	48 89 e5             	mov    %rsp,%rbp
    9374:	89 f8                	mov    %edi,%eax
    9376:	89 75 f8             	mov    %esi,-0x8(%rbp)
    9379:	88 45 fc             	mov    %al,-0x4(%rbp)
    937c:	80 7d fc 00          	cmpb   $0x0,-0x4(%rbp)
    9380:	78 15                	js     9397 <safe_rshift_func_int8_t_s_u+0x2b>
    9382:	83 7d f8 1f          	cmpl   $0x1f,-0x8(%rbp)
    9386:	77 0f                	ja     9397 <safe_rshift_func_int8_t_s_u+0x2b>
    9388:	0f be 55 fc          	movsbl -0x4(%rbp),%edx
    938c:	8b 45 f8             	mov    -0x8(%rbp),%eax
    938f:	89 c1                	mov    %eax,%ecx
    9391:	d3 fa                	sar    %cl,%edx
    9393:	89 d0                	mov    %edx,%eax
    9395:	eb 04                	jmp    939b <safe_rshift_func_int8_t_s_u+0x2f>
    9397:	0f b6 45 fc          	movzbl -0x4(%rbp),%eax
    939b:	5d                   	pop    %rbp
    939c:	c3                   	retq   

000000000000939d <safe_unary_minus_func_int16_t_s>:
    939d:	f3 0f 1e fa          	endbr64 
    93a1:	55                   	push   %rbp
    93a2:	48 89 e5             	mov    %rsp,%rbp
    93a5:	89 f8                	mov    %edi,%eax
    93a7:	66 89 45 fc          	mov    %ax,-0x4(%rbp)
    93ab:	0f b7 45 fc          	movzwl -0x4(%rbp),%eax
    93af:	f7 d8                	neg    %eax
    93b1:	5d                   	pop    %rbp
    93b2:	c3                   	retq   

00000000000093b3 <safe_add_func_int16_t_s_s>:
    93b3:	f3 0f 1e fa          	endbr64 
    93b7:	55                   	push   %rbp
    93b8:	48 89 e5             	mov    %rsp,%rbp
    93bb:	89 fa                	mov    %edi,%edx
    93bd:	89 f0                	mov    %esi,%eax
    93bf:	66 89 55 fc          	mov    %dx,-0x4(%rbp)
    93c3:	66 89 45 f8          	mov    %ax,-0x8(%rbp)
    93c7:	0f b7 55 fc          	movzwl -0x4(%rbp),%edx
    93cb:	0f b7 45 f8          	movzwl -0x8(%rbp),%eax
    93cf:	01 d0                	add    %edx,%eax
    93d1:	5d                   	pop    %rbp
    93d2:	c3                   	retq   

00000000000093d3 <safe_sub_func_int16_t_s_s>:
    93d3:	f3 0f 1e fa          	endbr64 
    93d7:	55                   	push   %rbp
    93d8:	48 89 e5             	mov    %rsp,%rbp
    93db:	89 fa                	mov    %edi,%edx
    93dd:	89 f0                	mov    %esi,%eax
    93df:	66 89 55 fc          	mov    %dx,-0x4(%rbp)
    93e3:	66 89 45 f8          	mov    %ax,-0x8(%rbp)
    93e7:	0f b7 55 fc          	movzwl -0x4(%rbp),%edx
    93eb:	0f b7 45 f8          	movzwl -0x8(%rbp),%eax
    93ef:	29 c2                	sub    %eax,%edx
    93f1:	89 d0                	mov    %edx,%eax
    93f3:	5d                   	pop    %rbp
    93f4:	c3                   	retq   

00000000000093f5 <safe_mul_func_int16_t_s_s>:
    93f5:	f3 0f 1e fa          	endbr64 
    93f9:	55                   	push   %rbp
    93fa:	48 89 e5             	mov    %rsp,%rbp
    93fd:	89 fa                	mov    %edi,%edx
    93ff:	89 f0                	mov    %esi,%eax
    9401:	66 89 55 fc          	mov    %dx,-0x4(%rbp)
    9405:	66 89 45 f8          	mov    %ax,-0x8(%rbp)
    9409:	0f b7 55 fc          	movzwl -0x4(%rbp),%edx
    940d:	0f b7 45 f8          	movzwl -0x8(%rbp),%eax
    9411:	0f af c2             	imul   %edx,%eax
    9414:	5d                   	pop    %rbp
    9415:	c3                   	retq   

0000000000009416 <safe_mod_func_int16_t_s_s>:
    9416:	f3 0f 1e fa          	endbr64 
    941a:	55                   	push   %rbp
    941b:	48 89 e5             	mov    %rsp,%rbp
    941e:	89 fa                	mov    %edi,%edx
    9420:	89 f0                	mov    %esi,%eax
    9422:	66 89 55 fc          	mov    %dx,-0x4(%rbp)
    9426:	66 89 45 f8          	mov    %ax,-0x8(%rbp)
    942a:	66 83 7d f8 00       	cmpw   $0x0,-0x8(%rbp)
    942f:	74 1e                	je     944f <safe_mod_func_int16_t_s_s+0x39>
    9431:	66 81 7d fc 00 80    	cmpw   $0x8000,-0x4(%rbp)
    9437:	75 07                	jne    9440 <safe_mod_func_int16_t_s_s+0x2a>
    9439:	66 83 7d f8 ff       	cmpw   $0xffff,-0x8(%rbp)
    943e:	74 0f                	je     944f <safe_mod_func_int16_t_s_s+0x39>
    9440:	0f bf 45 fc          	movswl -0x4(%rbp),%eax
    9444:	0f bf 4d f8          	movswl -0x8(%rbp),%ecx
    9448:	99                   	cltd   
    9449:	f7 f9                	idiv   %ecx
    944b:	89 d0                	mov    %edx,%eax
    944d:	eb 04                	jmp    9453 <safe_mod_func_int16_t_s_s+0x3d>
    944f:	0f b7 45 fc          	movzwl -0x4(%rbp),%eax
    9453:	5d                   	pop    %rbp
    9454:	c3                   	retq   

0000000000009455 <safe_div_func_int16_t_s_s>:
    9455:	f3 0f 1e fa          	endbr64 
    9459:	55                   	push   %rbp
    945a:	48 89 e5             	mov    %rsp,%rbp
    945d:	89 fa                	mov    %edi,%edx
    945f:	89 f0                	mov    %esi,%eax
    9461:	66 89 55 fc          	mov    %dx,-0x4(%rbp)
    9465:	66 89 45 f8          	mov    %ax,-0x8(%rbp)
    9469:	66 83 7d f8 00       	cmpw   $0x0,-0x8(%rbp)
    946e:	74 1c                	je     948c <safe_div_func_int16_t_s_s+0x37>
    9470:	66 81 7d fc 00 80    	cmpw   $0x8000,-0x4(%rbp)
    9476:	75 07                	jne    947f <safe_div_func_int16_t_s_s+0x2a>
    9478:	66 83 7d f8 ff       	cmpw   $0xffff,-0x8(%rbp)
    947d:	74 0d                	je     948c <safe_div_func_int16_t_s_s+0x37>
    947f:	0f bf 45 fc          	movswl -0x4(%rbp),%eax
    9483:	0f bf 4d f8          	movswl -0x8(%rbp),%ecx
    9487:	99                   	cltd   
    9488:	f7 f9                	idiv   %ecx
    948a:	eb 04                	jmp    9490 <safe_div_func_int16_t_s_s+0x3b>
    948c:	0f b7 45 fc          	movzwl -0x4(%rbp),%eax
    9490:	5d                   	pop    %rbp
    9491:	c3                   	retq   

0000000000009492 <safe_lshift_func_int16_t_s_s>:
    9492:	f3 0f 1e fa          	endbr64 
    9496:	55                   	push   %rbp
    9497:	48 89 e5             	mov    %rsp,%rbp
    949a:	89 f8                	mov    %edi,%eax
    949c:	89 75 f8             	mov    %esi,-0x8(%rbp)
    949f:	66 89 45 fc          	mov    %ax,-0x4(%rbp)
    94a3:	66 83 7d fc 00       	cmpw   $0x0,-0x4(%rbp)
    94a8:	78 31                	js     94db <safe_lshift_func_int16_t_s_s+0x49>
    94aa:	83 7d f8 00          	cmpl   $0x0,-0x8(%rbp)
    94ae:	78 2b                	js     94db <safe_lshift_func_int16_t_s_s+0x49>
    94b0:	83 7d f8 1f          	cmpl   $0x1f,-0x8(%rbp)
    94b4:	7f 25                	jg     94db <safe_lshift_func_int16_t_s_s+0x49>
    94b6:	0f bf 55 fc          	movswl -0x4(%rbp),%edx
    94ba:	8b 45 f8             	mov    -0x8(%rbp),%eax
    94bd:	be ff 7f 00 00       	mov    $0x7fff,%esi
    94c2:	89 c1                	mov    %eax,%ecx
    94c4:	d3 fe                	sar    %cl,%esi
    94c6:	89 f0                	mov    %esi,%eax
    94c8:	39 c2                	cmp    %eax,%edx
    94ca:	7f 0f                	jg     94db <safe_lshift_func_int16_t_s_s+0x49>
    94cc:	0f bf 55 fc          	movswl -0x4(%rbp),%edx
    94d0:	8b 45 f8             	mov    -0x8(%rbp),%eax
    94d3:	89 c1                	mov    %eax,%ecx
    94d5:	d3 e2                	shl    %cl,%edx
    94d7:	89 d0                	mov    %edx,%eax
    94d9:	eb 04                	jmp    94df <safe_lshift_func_int16_t_s_s+0x4d>
    94db:	0f b7 45 fc          	movzwl -0x4(%rbp),%eax
    94df:	5d                   	pop    %rbp
    94e0:	c3                   	retq   

00000000000094e1 <safe_lshift_func_int16_t_s_u>:
    94e1:	f3 0f 1e fa          	endbr64 
    94e5:	55                   	push   %rbp
    94e6:	48 89 e5             	mov    %rsp,%rbp
    94e9:	89 f8                	mov    %edi,%eax
    94eb:	89 75 f8             	mov    %esi,-0x8(%rbp)
    94ee:	66 89 45 fc          	mov    %ax,-0x4(%rbp)
    94f2:	66 83 7d fc 00       	cmpw   $0x0,-0x4(%rbp)
    94f7:	78 2b                	js     9524 <safe_lshift_func_int16_t_s_u+0x43>
    94f9:	83 7d f8 1f          	cmpl   $0x1f,-0x8(%rbp)
    94fd:	77 25                	ja     9524 <safe_lshift_func_int16_t_s_u+0x43>
    94ff:	0f bf 55 fc          	movswl -0x4(%rbp),%edx
    9503:	8b 45 f8             	mov    -0x8(%rbp),%eax
    9506:	be ff 7f 00 00       	mov    $0x7fff,%esi
    950b:	89 c1                	mov    %eax,%ecx
    950d:	d3 fe                	sar    %cl,%esi
    950f:	89 f0                	mov    %esi,%eax
    9511:	39 c2                	cmp    %eax,%edx
    9513:	7f 0f                	jg     9524 <safe_lshift_func_int16_t_s_u+0x43>
    9515:	0f bf 55 fc          	movswl -0x4(%rbp),%edx
    9519:	8b 45 f8             	mov    -0x8(%rbp),%eax
    951c:	89 c1                	mov    %eax,%ecx
    951e:	d3 e2                	shl    %cl,%edx
    9520:	89 d0                	mov    %edx,%eax
    9522:	eb 04                	jmp    9528 <safe_lshift_func_int16_t_s_u+0x47>
    9524:	0f b7 45 fc          	movzwl -0x4(%rbp),%eax
    9528:	5d                   	pop    %rbp
    9529:	c3                   	retq   

000000000000952a <safe_rshift_func_int16_t_s_s>:
    952a:	f3 0f 1e fa          	endbr64 
    952e:	55                   	push   %rbp
    952f:	48 89 e5             	mov    %rsp,%rbp
    9532:	89 f8                	mov    %edi,%eax
    9534:	89 75 f8             	mov    %esi,-0x8(%rbp)
    9537:	66 89 45 fc          	mov    %ax,-0x4(%rbp)
    953b:	66 83 7d fc 00       	cmpw   $0x0,-0x4(%rbp)
    9540:	78 1b                	js     955d <safe_rshift_func_int16_t_s_s+0x33>
    9542:	83 7d f8 00          	cmpl   $0x0,-0x8(%rbp)
    9546:	78 15                	js     955d <safe_rshift_func_int16_t_s_s+0x33>
    9548:	83 7d f8 1f          	cmpl   $0x1f,-0x8(%rbp)
    954c:	7f 0f                	jg     955d <safe_rshift_func_int16_t_s_s+0x33>
    954e:	0f bf 55 fc          	movswl -0x4(%rbp),%edx
    9552:	8b 45 f8             	mov    -0x8(%rbp),%eax
    9555:	89 c1                	mov    %eax,%ecx
    9557:	d3 fa                	sar    %cl,%edx
    9559:	89 d0                	mov    %edx,%eax
    955b:	eb 04                	jmp    9561 <safe_rshift_func_int16_t_s_s+0x37>
    955d:	0f b7 45 fc          	movzwl -0x4(%rbp),%eax
    9561:	5d                   	pop    %rbp
    9562:	c3                   	retq   

0000000000009563 <safe_rshift_func_int16_t_s_u>:
    9563:	f3 0f 1e fa          	endbr64 
    9567:	55                   	push   %rbp
    9568:	48 89 e5             	mov    %rsp,%rbp
    956b:	89 f8                	mov    %edi,%eax
    956d:	89 75 f8             	mov    %esi,-0x8(%rbp)
    9570:	66 89 45 fc          	mov    %ax,-0x4(%rbp)
    9574:	66 83 7d fc 00       	cmpw   $0x0,-0x4(%rbp)
    9579:	78 15                	js     9590 <safe_rshift_func_int16_t_s_u+0x2d>
    957b:	83 7d f8 1f          	cmpl   $0x1f,-0x8(%rbp)
    957f:	77 0f                	ja     9590 <safe_rshift_func_int16_t_s_u+0x2d>
    9581:	0f bf 55 fc          	movswl -0x4(%rbp),%edx
    9585:	8b 45 f8             	mov    -0x8(%rbp),%eax
    9588:	89 c1                	mov    %eax,%ecx
    958a:	d3 fa                	sar    %cl,%edx
    958c:	89 d0                	mov    %edx,%eax
    958e:	eb 04                	jmp    9594 <safe_rshift_func_int16_t_s_u+0x31>
    9590:	0f b7 45 fc          	movzwl -0x4(%rbp),%eax
    9594:	5d                   	pop    %rbp
    9595:	c3                   	retq   

0000000000009596 <safe_unary_minus_func_int32_t_s>:
    9596:	f3 0f 1e fa          	endbr64 
    959a:	55                   	push   %rbp
    959b:	48 89 e5             	mov    %rsp,%rbp
    959e:	89 7d fc             	mov    %edi,-0x4(%rbp)
    95a1:	81 7d fc 00 00 00 80 	cmpl   $0x80000000,-0x4(%rbp)
    95a8:	74 07                	je     95b1 <safe_unary_minus_func_int32_t_s+0x1b>
    95aa:	8b 45 fc             	mov    -0x4(%rbp),%eax
    95ad:	f7 d8                	neg    %eax
    95af:	eb 03                	jmp    95b4 <safe_unary_minus_func_int32_t_s+0x1e>
    95b1:	8b 45 fc             	mov    -0x4(%rbp),%eax
    95b4:	5d                   	pop    %rbp
    95b5:	c3                   	retq   

00000000000095b6 <safe_add_func_int32_t_s_s>:
    95b6:	f3 0f 1e fa          	endbr64 
    95ba:	55                   	push   %rbp
    95bb:	48 89 e5             	mov    %rsp,%rbp
    95be:	89 7d fc             	mov    %edi,-0x4(%rbp)
    95c1:	89 75 f8             	mov    %esi,-0x8(%rbp)
    95c4:	83 7d fc 00          	cmpl   $0x0,-0x4(%rbp)
    95c8:	7e 13                	jle    95dd <safe_add_func_int32_t_s_s+0x27>
    95ca:	83 7d f8 00          	cmpl   $0x0,-0x8(%rbp)
    95ce:	7e 0d                	jle    95dd <safe_add_func_int32_t_s_s+0x27>
    95d0:	b8 ff ff ff 7f       	mov    $0x7fffffff,%eax
    95d5:	2b 45 f8             	sub    -0x8(%rbp),%eax
    95d8:	39 45 fc             	cmp    %eax,-0x4(%rbp)
    95db:	7f 23                	jg     9600 <safe_add_func_int32_t_s_s+0x4a>
    95dd:	83 7d fc 00          	cmpl   $0x0,-0x4(%rbp)
    95e1:	79 13                	jns    95f6 <safe_add_func_int32_t_s_s+0x40>
    95e3:	83 7d f8 00          	cmpl   $0x0,-0x8(%rbp)
    95e7:	79 0d                	jns    95f6 <safe_add_func_int32_t_s_s+0x40>
    95e9:	b8 00 00 00 80       	mov    $0x80000000,%eax
    95ee:	2b 45 f8             	sub    -0x8(%rbp),%eax
    95f1:	39 45 fc             	cmp    %eax,-0x4(%rbp)
    95f4:	7c 0a                	jl     9600 <safe_add_func_int32_t_s_s+0x4a>
    95f6:	8b 55 fc             	mov    -0x4(%rbp),%edx
    95f9:	8b 45 f8             	mov    -0x8(%rbp),%eax
    95fc:	01 d0                	add    %edx,%eax
    95fe:	eb 03                	jmp    9603 <safe_add_func_int32_t_s_s+0x4d>
    9600:	8b 45 fc             	mov    -0x4(%rbp),%eax
    9603:	5d                   	pop    %rbp
    9604:	c3                   	retq   

0000000000009605 <safe_sub_func_int32_t_s_s>:
    9605:	f3 0f 1e fa          	endbr64 
    9609:	55                   	push   %rbp
    960a:	48 89 e5             	mov    %rsp,%rbp
    960d:	89 7d fc             	mov    %edi,-0x4(%rbp)
    9610:	89 75 f8             	mov    %esi,-0x8(%rbp)
    9613:	8b 45 fc             	mov    -0x4(%rbp),%eax
    9616:	33 45 f8             	xor    -0x8(%rbp),%eax
    9619:	89 c2                	mov    %eax,%edx
    961b:	8b 45 fc             	mov    -0x4(%rbp),%eax
    961e:	33 45 f8             	xor    -0x8(%rbp),%eax
    9621:	25 00 00 00 80       	and    $0x80000000,%eax
    9626:	33 45 fc             	xor    -0x4(%rbp),%eax
    9629:	2b 45 f8             	sub    -0x8(%rbp),%eax
    962c:	33 45 f8             	xor    -0x8(%rbp),%eax
    962f:	21 d0                	and    %edx,%eax
    9631:	85 c0                	test   %eax,%eax
    9633:	78 08                	js     963d <safe_sub_func_int32_t_s_s+0x38>
    9635:	8b 45 fc             	mov    -0x4(%rbp),%eax
    9638:	2b 45 f8             	sub    -0x8(%rbp),%eax
    963b:	eb 03                	jmp    9640 <safe_sub_func_int32_t_s_s+0x3b>
    963d:	8b 45 fc             	mov    -0x4(%rbp),%eax
    9640:	5d                   	pop    %rbp
    9641:	c3                   	retq   

0000000000009642 <safe_mul_func_int32_t_s_s>:
    9642:	f3 0f 1e fa          	endbr64 
    9646:	55                   	push   %rbp
    9647:	48 89 e5             	mov    %rsp,%rbp
    964a:	89 7d fc             	mov    %edi,-0x4(%rbp)
    964d:	89 75 f8             	mov    %esi,-0x8(%rbp)
    9650:	83 7d fc 00          	cmpl   $0x0,-0x4(%rbp)
    9654:	7e 14                	jle    966a <safe_mul_func_int32_t_s_s+0x28>
    9656:	83 7d f8 00          	cmpl   $0x0,-0x8(%rbp)
    965a:	7e 0e                	jle    966a <safe_mul_func_int32_t_s_s+0x28>
    965c:	b8 ff ff ff 7f       	mov    $0x7fffffff,%eax
    9661:	99                   	cltd   
    9662:	f7 7d f8             	idivl  -0x8(%rbp)
    9665:	39 45 fc             	cmp    %eax,-0x4(%rbp)
    9668:	7f 5d                	jg     96c7 <safe_mul_func_int32_t_s_s+0x85>
    966a:	83 7d fc 00          	cmpl   $0x0,-0x4(%rbp)
    966e:	7e 14                	jle    9684 <safe_mul_func_int32_t_s_s+0x42>
    9670:	83 7d f8 00          	cmpl   $0x0,-0x8(%rbp)
    9674:	7f 0e                	jg     9684 <safe_mul_func_int32_t_s_s+0x42>
    9676:	b8 00 00 00 80       	mov    $0x80000000,%eax
    967b:	99                   	cltd   
    967c:	f7 7d fc             	idivl  -0x4(%rbp)
    967f:	39 45 f8             	cmp    %eax,-0x8(%rbp)
    9682:	7c 43                	jl     96c7 <safe_mul_func_int32_t_s_s+0x85>
    9684:	83 7d fc 00          	cmpl   $0x0,-0x4(%rbp)
    9688:	7f 14                	jg     969e <safe_mul_func_int32_t_s_s+0x5c>
    968a:	83 7d f8 00          	cmpl   $0x0,-0x8(%rbp)
    968e:	7e 0e                	jle    969e <safe_mul_func_int32_t_s_s+0x5c>
    9690:	b8 00 00 00 80       	mov    $0x80000000,%eax
    9695:	99                   	cltd   
    9696:	f7 7d f8             	idivl  -0x8(%rbp)
    9699:	39 45 fc             	cmp    %eax,-0x4(%rbp)
    969c:	7c 29                	jl     96c7 <safe_mul_func_int32_t_s_s+0x85>
    969e:	83 7d fc 00          	cmpl   $0x0,-0x4(%rbp)
    96a2:	7f 1a                	jg     96be <safe_mul_func_int32_t_s_s+0x7c>
    96a4:	83 7d f8 00          	cmpl   $0x0,-0x8(%rbp)
    96a8:	7f 14                	jg     96be <safe_mul_func_int32_t_s_s+0x7c>
    96aa:	83 7d fc 00          	cmpl   $0x0,-0x4(%rbp)
    96ae:	74 0e                	je     96be <safe_mul_func_int32_t_s_s+0x7c>
    96b0:	b8 ff ff ff 7f       	mov    $0x7fffffff,%eax
    96b5:	99                   	cltd   
    96b6:	f7 7d fc             	idivl  -0x4(%rbp)
    96b9:	39 45 f8             	cmp    %eax,-0x8(%rbp)
    96bc:	7c 09                	jl     96c7 <safe_mul_func_int32_t_s_s+0x85>
    96be:	8b 45 fc             	mov    -0x4(%rbp),%eax
    96c1:	0f af 45 f8          	imul   -0x8(%rbp),%eax
    96c5:	eb 03                	jmp    96ca <safe_mul_func_int32_t_s_s+0x88>
    96c7:	8b 45 fc             	mov    -0x4(%rbp),%eax
    96ca:	5d                   	pop    %rbp
    96cb:	c3                   	retq   

00000000000096cc <safe_mod_func_int32_t_s_s>:
    96cc:	f3 0f 1e fa          	endbr64 
    96d0:	55                   	push   %rbp
    96d1:	48 89 e5             	mov    %rsp,%rbp
    96d4:	89 7d fc             	mov    %edi,-0x4(%rbp)
    96d7:	89 75 f8             	mov    %esi,-0x8(%rbp)
    96da:	83 7d f8 00          	cmpl   $0x0,-0x8(%rbp)
    96de:	74 1a                	je     96fa <safe_mod_func_int32_t_s_s+0x2e>
    96e0:	81 7d fc 00 00 00 80 	cmpl   $0x80000000,-0x4(%rbp)
    96e7:	75 06                	jne    96ef <safe_mod_func_int32_t_s_s+0x23>
    96e9:	83 7d f8 ff          	cmpl   $0xffffffff,-0x8(%rbp)
    96ed:	74 0b                	je     96fa <safe_mod_func_int32_t_s_s+0x2e>
    96ef:	8b 45 fc             	mov    -0x4(%rbp),%eax
    96f2:	99                   	cltd   
    96f3:	f7 7d f8             	idivl  -0x8(%rbp)
    96f6:	89 d0                	mov    %edx,%eax
    96f8:	eb 03                	jmp    96fd <safe_mod_func_int32_t_s_s+0x31>
    96fa:	8b 45 fc             	mov    -0x4(%rbp),%eax
    96fd:	5d                   	pop    %rbp
    96fe:	c3                   	retq   

00000000000096ff <safe_div_func_int32_t_s_s>:
    96ff:	f3 0f 1e fa          	endbr64 
    9703:	55                   	push   %rbp
    9704:	48 89 e5             	mov    %rsp,%rbp
    9707:	89 7d fc             	mov    %edi,-0x4(%rbp)
    970a:	89 75 f8             	mov    %esi,-0x8(%rbp)
    970d:	83 7d f8 00          	cmpl   $0x0,-0x8(%rbp)
    9711:	74 18                	je     972b <safe_div_func_int32_t_s_s+0x2c>
    9713:	81 7d fc 00 00 00 80 	cmpl   $0x80000000,-0x4(%rbp)
    971a:	75 06                	jne    9722 <safe_div_func_int32_t_s_s+0x23>
    971c:	83 7d f8 ff          	cmpl   $0xffffffff,-0x8(%rbp)
    9720:	74 09                	je     972b <safe_div_func_int32_t_s_s+0x2c>
    9722:	8b 45 fc             	mov    -0x4(%rbp),%eax
    9725:	99                   	cltd   
    9726:	f7 7d f8             	idivl  -0x8(%rbp)
    9729:	eb 03                	jmp    972e <safe_div_func_int32_t_s_s+0x2f>
    972b:	8b 45 fc             	mov    -0x4(%rbp),%eax
    972e:	5d                   	pop    %rbp
    972f:	c3                   	retq   

0000000000009730 <safe_lshift_func_int32_t_s_s>:
    9730:	f3 0f 1e fa          	endbr64 
    9734:	55                   	push   %rbp
    9735:	48 89 e5             	mov    %rsp,%rbp
    9738:	89 7d fc             	mov    %edi,-0x4(%rbp)
    973b:	89 75 f8             	mov    %esi,-0x8(%rbp)
    973e:	83 7d fc 00          	cmpl   $0x0,-0x4(%rbp)
    9742:	78 2d                	js     9771 <safe_lshift_func_int32_t_s_s+0x41>
    9744:	83 7d f8 00          	cmpl   $0x0,-0x8(%rbp)
    9748:	78 27                	js     9771 <safe_lshift_func_int32_t_s_s+0x41>
    974a:	83 7d f8 1f          	cmpl   $0x1f,-0x8(%rbp)
    974e:	7f 21                	jg     9771 <safe_lshift_func_int32_t_s_s+0x41>
    9750:	8b 45 f8             	mov    -0x8(%rbp),%eax
    9753:	ba ff ff ff 7f       	mov    $0x7fffffff,%edx
    9758:	89 c1                	mov    %eax,%ecx
    975a:	d3 fa                	sar    %cl,%edx
    975c:	89 d0                	mov    %edx,%eax
    975e:	39 45 fc             	cmp    %eax,-0x4(%rbp)
    9761:	7f 0e                	jg     9771 <safe_lshift_func_int32_t_s_s+0x41>
    9763:	8b 45 f8             	mov    -0x8(%rbp),%eax
    9766:	8b 55 fc             	mov    -0x4(%rbp),%edx
    9769:	89 c1                	mov    %eax,%ecx
    976b:	d3 e2                	shl    %cl,%edx
    976d:	89 d0                	mov    %edx,%eax
    976f:	eb 03                	jmp    9774 <safe_lshift_func_int32_t_s_s+0x44>
    9771:	8b 45 fc             	mov    -0x4(%rbp),%eax
    9774:	5d                   	pop    %rbp
    9775:	c3                   	retq   

0000000000009776 <safe_lshift_func_int32_t_s_u>:
    9776:	f3 0f 1e fa          	endbr64 
    977a:	55                   	push   %rbp
    977b:	48 89 e5             	mov    %rsp,%rbp
    977e:	89 7d fc             	mov    %edi,-0x4(%rbp)
    9781:	89 75 f8             	mov    %esi,-0x8(%rbp)
    9784:	83 7d fc 00          	cmpl   $0x0,-0x4(%rbp)
    9788:	78 27                	js     97b1 <safe_lshift_func_int32_t_s_u+0x3b>
    978a:	83 7d f8 1f          	cmpl   $0x1f,-0x8(%rbp)
    978e:	77 21                	ja     97b1 <safe_lshift_func_int32_t_s_u+0x3b>
    9790:	8b 45 f8             	mov    -0x8(%rbp),%eax
    9793:	ba ff ff ff 7f       	mov    $0x7fffffff,%edx
    9798:	89 c1                	mov    %eax,%ecx
    979a:	d3 fa                	sar    %cl,%edx
    979c:	89 d0                	mov    %edx,%eax
    979e:	39 45 fc             	cmp    %eax,-0x4(%rbp)
    97a1:	7f 0e                	jg     97b1 <safe_lshift_func_int32_t_s_u+0x3b>
    97a3:	8b 45 f8             	mov    -0x8(%rbp),%eax
    97a6:	8b 55 fc             	mov    -0x4(%rbp),%edx
    97a9:	89 c1                	mov    %eax,%ecx
    97ab:	d3 e2                	shl    %cl,%edx
    97ad:	89 d0                	mov    %edx,%eax
    97af:	eb 03                	jmp    97b4 <safe_lshift_func_int32_t_s_u+0x3e>
    97b1:	8b 45 fc             	mov    -0x4(%rbp),%eax
    97b4:	5d                   	pop    %rbp
    97b5:	c3                   	retq   

00000000000097b6 <safe_rshift_func_int32_t_s_s>:
    97b6:	f3 0f 1e fa          	endbr64 
    97ba:	55                   	push   %rbp
    97bb:	48 89 e5             	mov    %rsp,%rbp
    97be:	89 7d fc             	mov    %edi,-0x4(%rbp)
    97c1:	89 75 f8             	mov    %esi,-0x8(%rbp)
    97c4:	83 7d fc 00          	cmpl   $0x0,-0x4(%rbp)
    97c8:	78 1a                	js     97e4 <safe_rshift_func_int32_t_s_s+0x2e>
    97ca:	83 7d f8 00          	cmpl   $0x0,-0x8(%rbp)
    97ce:	78 14                	js     97e4 <safe_rshift_func_int32_t_s_s+0x2e>
    97d0:	83 7d f8 1f          	cmpl   $0x1f,-0x8(%rbp)
    97d4:	7f 0e                	jg     97e4 <safe_rshift_func_int32_t_s_s+0x2e>
    97d6:	8b 45 f8             	mov    -0x8(%rbp),%eax
    97d9:	8b 55 fc             	mov    -0x4(%rbp),%edx
    97dc:	89 c1                	mov    %eax,%ecx
    97de:	d3 fa                	sar    %cl,%edx
    97e0:	89 d0                	mov    %edx,%eax
    97e2:	eb 03                	jmp    97e7 <safe_rshift_func_int32_t_s_s+0x31>
    97e4:	8b 45 fc             	mov    -0x4(%rbp),%eax
    97e7:	5d                   	pop    %rbp
    97e8:	c3                   	retq   

00000000000097e9 <safe_rshift_func_int32_t_s_u>:
    97e9:	f3 0f 1e fa          	endbr64 
    97ed:	55                   	push   %rbp
    97ee:	48 89 e5             	mov    %rsp,%rbp
    97f1:	89 7d fc             	mov    %edi,-0x4(%rbp)
    97f4:	89 75 f8             	mov    %esi,-0x8(%rbp)
    97f7:	83 7d fc 00          	cmpl   $0x0,-0x4(%rbp)
    97fb:	78 14                	js     9811 <safe_rshift_func_int32_t_s_u+0x28>
    97fd:	83 7d f8 1f          	cmpl   $0x1f,-0x8(%rbp)
    9801:	77 0e                	ja     9811 <safe_rshift_func_int32_t_s_u+0x28>
    9803:	8b 45 f8             	mov    -0x8(%rbp),%eax
    9806:	8b 55 fc             	mov    -0x4(%rbp),%edx
    9809:	89 c1                	mov    %eax,%ecx
    980b:	d3 fa                	sar    %cl,%edx
    980d:	89 d0                	mov    %edx,%eax
    980f:	eb 03                	jmp    9814 <safe_rshift_func_int32_t_s_u+0x2b>
    9811:	8b 45 fc             	mov    -0x4(%rbp),%eax
    9814:	5d                   	pop    %rbp
    9815:	c3                   	retq   

0000000000009816 <safe_unary_minus_func_int64_t_s>:
    9816:	f3 0f 1e fa          	endbr64 
    981a:	55                   	push   %rbp
    981b:	48 89 e5             	mov    %rsp,%rbp
    981e:	48 89 7d f8          	mov    %rdi,-0x8(%rbp)
    9822:	48 b8 00 00 00 00 00 	movabs $0x8000000000000000,%rax
    9829:	00 00 80 
    982c:	48 39 45 f8          	cmp    %rax,-0x8(%rbp)
    9830:	74 09                	je     983b <safe_unary_minus_func_int64_t_s+0x25>
    9832:	48 8b 45 f8          	mov    -0x8(%rbp),%rax
    9836:	48 f7 d8             	neg    %rax
    9839:	eb 04                	jmp    983f <safe_unary_minus_func_int64_t_s+0x29>
    983b:	48 8b 45 f8          	mov    -0x8(%rbp),%rax
    983f:	5d                   	pop    %rbp
    9840:	c3                   	retq   

0000000000009841 <safe_add_func_int64_t_s_s>:
    9841:	f3 0f 1e fa          	endbr64 
    9845:	55                   	push   %rbp
    9846:	48 89 e5             	mov    %rsp,%rbp
    9849:	48 89 7d f8          	mov    %rdi,-0x8(%rbp)
    984d:	48 89 75 f0          	mov    %rsi,-0x10(%rbp)
    9851:	48 83 7d f8 00       	cmpq   $0x0,-0x8(%rbp)
    9856:	7e 1b                	jle    9873 <safe_add_func_int64_t_s_s+0x32>
    9858:	48 83 7d f0 00       	cmpq   $0x0,-0x10(%rbp)
    985d:	7e 14                	jle    9873 <safe_add_func_int64_t_s_s+0x32>
    985f:	48 b8 ff ff ff ff ff 	movabs $0x7fffffffffffffff,%rax
    9866:	ff ff 7f 
    9869:	48 2b 45 f0          	sub    -0x10(%rbp),%rax
    986d:	48 39 45 f8          	cmp    %rax,-0x8(%rbp)
    9871:	7f 2f                	jg     98a2 <safe_add_func_int64_t_s_s+0x61>
    9873:	48 83 7d f8 00       	cmpq   $0x0,-0x8(%rbp)
    9878:	79 1b                	jns    9895 <safe_add_func_int64_t_s_s+0x54>
    987a:	48 83 7d f0 00       	cmpq   $0x0,-0x10(%rbp)
    987f:	79 14                	jns    9895 <safe_add_func_int64_t_s_s+0x54>
    9881:	48 b8 00 00 00 00 00 	movabs $0x8000000000000000,%rax
    9888:	00 00 80 
    988b:	48 2b 45 f0          	sub    -0x10(%rbp),%rax
    988f:	48 39 45 f8          	cmp    %rax,-0x8(%rbp)
    9893:	7c 0d                	jl     98a2 <safe_add_func_int64_t_s_s+0x61>
    9895:	48 8b 55 f8          	mov    -0x8(%rbp),%rdx
    9899:	48 8b 45 f0          	mov    -0x10(%rbp),%rax
    989d:	48 01 d0             	add    %rdx,%rax
    98a0:	eb 04                	jmp    98a6 <safe_add_func_int64_t_s_s+0x65>
    98a2:	48 8b 45 f8          	mov    -0x8(%rbp),%rax
    98a6:	5d                   	pop    %rbp
    98a7:	c3                   	retq   

00000000000098a8 <safe_sub_func_int64_t_s_s>:
    98a8:	f3 0f 1e fa          	endbr64 
    98ac:	55                   	push   %rbp
    98ad:	48 89 e5             	mov    %rsp,%rbp
    98b0:	48 89 7d f8          	mov    %rdi,-0x8(%rbp)
    98b4:	48 89 75 f0          	mov    %rsi,-0x10(%rbp)
    98b8:	48 8b 45 f8          	mov    -0x8(%rbp),%rax
    98bc:	48 33 45 f0          	xor    -0x10(%rbp),%rax
    98c0:	48 89 c2             	mov    %rax,%rdx
    98c3:	48 8b 45 f8          	mov    -0x8(%rbp),%rax
    98c7:	48 33 45 f0          	xor    -0x10(%rbp),%rax
    98cb:	48 b9 00 00 00 00 00 	movabs $0x8000000000000000,%rcx
    98d2:	00 00 80 
    98d5:	48 21 c8             	and    %rcx,%rax
    98d8:	48 33 45 f8          	xor    -0x8(%rbp),%rax
    98dc:	48 2b 45 f0          	sub    -0x10(%rbp),%rax
    98e0:	48 33 45 f0          	xor    -0x10(%rbp),%rax
    98e4:	48 21 d0             	and    %rdx,%rax
    98e7:	48 85 c0             	test   %rax,%rax
    98ea:	78 0a                	js     98f6 <safe_sub_func_int64_t_s_s+0x4e>
    98ec:	48 8b 45 f8          	mov    -0x8(%rbp),%rax
    98f0:	48 2b 45 f0          	sub    -0x10(%rbp),%rax
    98f4:	eb 04                	jmp    98fa <safe_sub_func_int64_t_s_s+0x52>
    98f6:	48 8b 45 f8          	mov    -0x8(%rbp),%rax
    98fa:	5d                   	pop    %rbp
    98fb:	c3                   	retq   

00000000000098fc <safe_mul_func_int64_t_s_s>:
    98fc:	f3 0f 1e fa          	endbr64 
    9900:	55                   	push   %rbp
    9901:	48 89 e5             	mov    %rsp,%rbp
    9904:	48 89 7d f8          	mov    %rdi,-0x8(%rbp)
    9908:	48 89 75 f0          	mov    %rsi,-0x10(%rbp)
    990c:	48 83 7d f8 00       	cmpq   $0x0,-0x8(%rbp)
    9911:	7e 1d                	jle    9930 <safe_mul_func_int64_t_s_s+0x34>
    9913:	48 83 7d f0 00       	cmpq   $0x0,-0x10(%rbp)
    9918:	7e 16                	jle    9930 <safe_mul_func_int64_t_s_s+0x34>
    991a:	48 b8 ff ff ff ff ff 	movabs $0x7fffffffffffffff,%rax
    9921:	ff ff 7f 
    9924:	48 99                	cqto   
    9926:	48 f7 7d f0          	idivq  -0x10(%rbp)
    992a:	48 39 45 f8          	cmp    %rax,-0x8(%rbp)
    992e:	7f 7e                	jg     99ae <safe_mul_func_int64_t_s_s+0xb2>
    9930:	48 83 7d f8 00       	cmpq   $0x0,-0x8(%rbp)
    9935:	7e 1d                	jle    9954 <safe_mul_func_int64_t_s_s+0x58>
    9937:	48 83 7d f0 00       	cmpq   $0x0,-0x10(%rbp)
    993c:	7f 16                	jg     9954 <safe_mul_func_int64_t_s_s+0x58>
    993e:	48 b8 00 00 00 00 00 	movabs $0x8000000000000000,%rax
    9945:	00 00 80 
    9948:	48 99                	cqto   
    994a:	48 f7 7d f8          	idivq  -0x8(%rbp)
    994e:	48 39 45 f0          	cmp    %rax,-0x10(%rbp)
    9952:	7c 5a                	jl     99ae <safe_mul_func_int64_t_s_s+0xb2>
    9954:	48 83 7d f8 00       	cmpq   $0x0,-0x8(%rbp)
    9959:	7f 1d                	jg     9978 <safe_mul_func_int64_t_s_s+0x7c>
    995b:	48 83 7d f0 00       	cmpq   $0x0,-0x10(%rbp)
    9960:	7e 16                	jle    9978 <safe_mul_func_int64_t_s_s+0x7c>
    9962:	48 b8 00 00 00 00 00 	movabs $0x8000000000000000,%rax
    9969:	00 00 80 
    996c:	48 99                	cqto   
    996e:	48 f7 7d f0          	idivq  -0x10(%rbp)
    9972:	48 39 45 f8          	cmp    %rax,-0x8(%rbp)
    9976:	7c 36                	jl     99ae <safe_mul_func_int64_t_s_s+0xb2>
    9978:	48 83 7d f8 00       	cmpq   $0x0,-0x8(%rbp)
    997d:	7f 24                	jg     99a3 <safe_mul_func_int64_t_s_s+0xa7>
    997f:	48 83 7d f0 00       	cmpq   $0x0,-0x10(%rbp)
    9984:	7f 1d                	jg     99a3 <safe_mul_func_int64_t_s_s+0xa7>
    9986:	48 83 7d f8 00       	cmpq   $0x0,-0x8(%rbp)
    998b:	74 16                	je     99a3 <safe_mul_func_int64_t_s_s+0xa7>
    998d:	48 b8 ff ff ff ff ff 	movabs $0x7fffffffffffffff,%rax
    9994:	ff ff 7f 
    9997:	48 99                	cqto   
    9999:	48 f7 7d f8          	idivq  -0x8(%rbp)
    999d:	48 39 45 f0          	cmp    %rax,-0x10(%rbp)
    99a1:	7c 0b                	jl     99ae <safe_mul_func_int64_t_s_s+0xb2>
    99a3:	48 8b 45 f8          	mov    -0x8(%rbp),%rax
    99a7:	48 0f af 45 f0       	imul   -0x10(%rbp),%rax
    99ac:	eb 04                	jmp    99b2 <safe_mul_func_int64_t_s_s+0xb6>
    99ae:	48 8b 45 f8          	mov    -0x8(%rbp),%rax
    99b2:	5d                   	pop    %rbp
    99b3:	c3                   	retq   

00000000000099b4 <safe_mod_func_int64_t_s_s>:
    99b4:	f3 0f 1e fa          	endbr64 
    99b8:	55                   	push   %rbp
    99b9:	48 89 e5             	mov    %rsp,%rbp
    99bc:	48 89 7d f8          	mov    %rdi,-0x8(%rbp)
    99c0:	48 89 75 f0          	mov    %rsi,-0x10(%rbp)
    99c4:	48 83 7d f0 00       	cmpq   $0x0,-0x10(%rbp)
    99c9:	74 26                	je     99f1 <safe_mod_func_int64_t_s_s+0x3d>
    99cb:	48 b8 00 00 00 00 00 	movabs $0x8000000000000000,%rax
    99d2:	00 00 80 
    99d5:	48 39 45 f8          	cmp    %rax,-0x8(%rbp)
    99d9:	75 07                	jne    99e2 <safe_mod_func_int64_t_s_s+0x2e>
    99db:	48 83 7d f0 ff       	cmpq   $0xffffffffffffffff,-0x10(%rbp)
    99e0:	74 0f                	je     99f1 <safe_mod_func_int64_t_s_s+0x3d>
    99e2:	48 8b 45 f8          	mov    -0x8(%rbp),%rax
    99e6:	48 99                	cqto   
    99e8:	48 f7 7d f0          	idivq  -0x10(%rbp)
    99ec:	48 89 d0             	mov    %rdx,%rax
    99ef:	eb 04                	jmp    99f5 <safe_mod_func_int64_t_s_s+0x41>
    99f1:	48 8b 45 f8          	mov    -0x8(%rbp),%rax
    99f5:	5d                   	pop    %rbp
    99f6:	c3                   	retq   

00000000000099f7 <safe_div_func_int64_t_s_s>:
    99f7:	f3 0f 1e fa          	endbr64 
    99fb:	55                   	push   %rbp
    99fc:	48 89 e5             	mov    %rsp,%rbp
    99ff:	48 89 7d f8          	mov    %rdi,-0x8(%rbp)
    9a03:	48 89 75 f0          	mov    %rsi,-0x10(%rbp)
    9a07:	48 83 7d f0 00       	cmpq   $0x0,-0x10(%rbp)
    9a0c:	74 23                	je     9a31 <safe_div_func_int64_t_s_s+0x3a>
    9a0e:	48 b8 00 00 00 00 00 	movabs $0x8000000000000000,%rax
    9a15:	00 00 80 
    9a18:	48 39 45 f8          	cmp    %rax,-0x8(%rbp)
    9a1c:	75 07                	jne    9a25 <safe_div_func_int64_t_s_s+0x2e>
    9a1e:	48 83 7d f0 ff       	cmpq   $0xffffffffffffffff,-0x10(%rbp)
    9a23:	74 0c                	je     9a31 <safe_div_func_int64_t_s_s+0x3a>
    9a25:	48 8b 45 f8          	mov    -0x8(%rbp),%rax
    9a29:	48 99                	cqto   
    9a2b:	48 f7 7d f0          	idivq  -0x10(%rbp)
    9a2f:	eb 04                	jmp    9a35 <safe_div_func_int64_t_s_s+0x3e>
    9a31:	48 8b 45 f8          	mov    -0x8(%rbp),%rax
    9a35:	5d                   	pop    %rbp
    9a36:	c3                   	retq   

0000000000009a37 <safe_lshift_func_int64_t_s_s>:
    9a37:	f3 0f 1e fa          	endbr64 
    9a3b:	55                   	push   %rbp
    9a3c:	48 89 e5             	mov    %rsp,%rbp
    9a3f:	48 89 7d f8          	mov    %rdi,-0x8(%rbp)
    9a43:	89 75 f4             	mov    %esi,-0xc(%rbp)
    9a46:	48 83 7d f8 00       	cmpq   $0x0,-0x8(%rbp)
    9a4b:	78 38                	js     9a85 <safe_lshift_func_int64_t_s_s+0x4e>
    9a4d:	83 7d f4 00          	cmpl   $0x0,-0xc(%rbp)
    9a51:	78 32                	js     9a85 <safe_lshift_func_int64_t_s_s+0x4e>
    9a53:	83 7d f4 1f          	cmpl   $0x1f,-0xc(%rbp)
    9a57:	7f 2c                	jg     9a85 <safe_lshift_func_int64_t_s_s+0x4e>
    9a59:	8b 45 f4             	mov    -0xc(%rbp),%eax
    9a5c:	48 ba ff ff ff ff ff 	movabs $0x7fffffffffffffff,%rdx
    9a63:	ff ff 7f 
    9a66:	89 c1                	mov    %eax,%ecx
    9a68:	48 d3 fa             	sar    %cl,%rdx
    9a6b:	48 89 d0             	mov    %rdx,%rax
    9a6e:	48 39 45 f8          	cmp    %rax,-0x8(%rbp)
    9a72:	7f 11                	jg     9a85 <safe_lshift_func_int64_t_s_s+0x4e>
    9a74:	8b 45 f4             	mov    -0xc(%rbp),%eax
    9a77:	48 8b 55 f8          	mov    -0x8(%rbp),%rdx
    9a7b:	89 c1                	mov    %eax,%ecx
    9a7d:	48 d3 e2             	shl    %cl,%rdx
    9a80:	48 89 d0             	mov    %rdx,%rax
    9a83:	eb 04                	jmp    9a89 <safe_lshift_func_int64_t_s_s+0x52>
    9a85:	48 8b 45 f8          	mov    -0x8(%rbp),%rax
    9a89:	5d                   	pop    %rbp
    9a8a:	c3                   	retq   

0000000000009a8b <safe_lshift_func_int64_t_s_u>:
    9a8b:	f3 0f 1e fa          	endbr64 
    9a8f:	55                   	push   %rbp
    9a90:	48 89 e5             	mov    %rsp,%rbp
    9a93:	48 89 7d f8          	mov    %rdi,-0x8(%rbp)
    9a97:	89 75 f4             	mov    %esi,-0xc(%rbp)
    9a9a:	48 83 7d f8 00       	cmpq   $0x0,-0x8(%rbp)
    9a9f:	78 32                	js     9ad3 <safe_lshift_func_int64_t_s_u+0x48>
    9aa1:	83 7d f4 1f          	cmpl   $0x1f,-0xc(%rbp)
    9aa5:	77 2c                	ja     9ad3 <safe_lshift_func_int64_t_s_u+0x48>
    9aa7:	8b 45 f4             	mov    -0xc(%rbp),%eax
    9aaa:	48 ba ff ff ff ff ff 	movabs $0x7fffffffffffffff,%rdx
    9ab1:	ff ff 7f 
    9ab4:	89 c1                	mov    %eax,%ecx
    9ab6:	48 d3 fa             	sar    %cl,%rdx
    9ab9:	48 89 d0             	mov    %rdx,%rax
    9abc:	48 39 45 f8          	cmp    %rax,-0x8(%rbp)
    9ac0:	7f 11                	jg     9ad3 <safe_lshift_func_int64_t_s_u+0x48>
    9ac2:	8b 45 f4             	mov    -0xc(%rbp),%eax
    9ac5:	48 8b 55 f8          	mov    -0x8(%rbp),%rdx
    9ac9:	89 c1                	mov    %eax,%ecx
    9acb:	48 d3 e2             	shl    %cl,%rdx
    9ace:	48 89 d0             	mov    %rdx,%rax
    9ad1:	eb 04                	jmp    9ad7 <safe_lshift_func_int64_t_s_u+0x4c>
    9ad3:	48 8b 45 f8          	mov    -0x8(%rbp),%rax
    9ad7:	5d                   	pop    %rbp
    9ad8:	c3                   	retq   

0000000000009ad9 <safe_rshift_func_int64_t_s_s>:
    9ad9:	f3 0f 1e fa          	endbr64 
    9add:	55                   	push   %rbp
    9ade:	48 89 e5             	mov    %rsp,%rbp
    9ae1:	48 89 7d f8          	mov    %rdi,-0x8(%rbp)
    9ae5:	89 75 f4             	mov    %esi,-0xc(%rbp)
    9ae8:	48 83 7d f8 00       	cmpq   $0x0,-0x8(%rbp)
    9aed:	78 1d                	js     9b0c <safe_rshift_func_int64_t_s_s+0x33>
    9aef:	83 7d f4 00          	cmpl   $0x0,-0xc(%rbp)
    9af3:	78 17                	js     9b0c <safe_rshift_func_int64_t_s_s+0x33>
    9af5:	83 7d f4 1f          	cmpl   $0x1f,-0xc(%rbp)
    9af9:	7f 11                	jg     9b0c <safe_rshift_func_int64_t_s_s+0x33>
    9afb:	8b 45 f4             	mov    -0xc(%rbp),%eax
    9afe:	48 8b 55 f8          	mov    -0x8(%rbp),%rdx
    9b02:	89 c1                	mov    %eax,%ecx
    9b04:	48 d3 fa             	sar    %cl,%rdx
    9b07:	48 89 d0             	mov    %rdx,%rax
    9b0a:	eb 04                	jmp    9b10 <safe_rshift_func_int64_t_s_s+0x37>
    9b0c:	48 8b 45 f8          	mov    -0x8(%rbp),%rax
    9b10:	5d                   	pop    %rbp
    9b11:	c3                   	retq   

0000000000009b12 <safe_rshift_func_int64_t_s_u>:
    9b12:	f3 0f 1e fa          	endbr64 
    9b16:	55                   	push   %rbp
    9b17:	48 89 e5             	mov    %rsp,%rbp
    9b1a:	48 89 7d f8          	mov    %rdi,-0x8(%rbp)
    9b1e:	89 75 f4             	mov    %esi,-0xc(%rbp)
    9b21:	48 83 7d f8 00       	cmpq   $0x0,-0x8(%rbp)
    9b26:	78 17                	js     9b3f <safe_rshift_func_int64_t_s_u+0x2d>
    9b28:	83 7d f4 1f          	cmpl   $0x1f,-0xc(%rbp)
    9b2c:	77 11                	ja     9b3f <safe_rshift_func_int64_t_s_u+0x2d>
    9b2e:	8b 45 f4             	mov    -0xc(%rbp),%eax
    9b31:	48 8b 55 f8          	mov    -0x8(%rbp),%rdx
    9b35:	89 c1                	mov    %eax,%ecx
    9b37:	48 d3 fa             	sar    %cl,%rdx
    9b3a:	48 89 d0             	mov    %rdx,%rax
    9b3d:	eb 04                	jmp    9b43 <safe_rshift_func_int64_t_s_u+0x31>
    9b3f:	48 8b 45 f8          	mov    -0x8(%rbp),%rax
    9b43:	5d                   	pop    %rbp
    9b44:	c3                   	retq   

0000000000009b45 <safe_unary_minus_func_uint8_t_u>:
    9b45:	f3 0f 1e fa          	endbr64 
    9b49:	55                   	push   %rbp
    9b4a:	48 89 e5             	mov    %rsp,%rbp
    9b4d:	89 f8                	mov    %edi,%eax
    9b4f:	88 45 fc             	mov    %al,-0x4(%rbp)
    9b52:	0f b6 45 fc          	movzbl -0x4(%rbp),%eax
    9b56:	f7 d8                	neg    %eax
    9b58:	5d                   	pop    %rbp
    9b59:	c3                   	retq   

0000000000009b5a <safe_add_func_uint8_t_u_u>:
    9b5a:	f3 0f 1e fa          	endbr64 
    9b5e:	55                   	push   %rbp
    9b5f:	48 89 e5             	mov    %rsp,%rbp
    9b62:	89 fa                	mov    %edi,%edx
    9b64:	89 f0                	mov    %esi,%eax
    9b66:	88 55 fc             	mov    %dl,-0x4(%rbp)
    9b69:	88 45 f8             	mov    %al,-0x8(%rbp)
    9b6c:	0f b6 55 fc          	movzbl -0x4(%rbp),%edx
    9b70:	0f b6 45 f8          	movzbl -0x8(%rbp),%eax
    9b74:	01 d0                	add    %edx,%eax
    9b76:	5d                   	pop    %rbp
    9b77:	c3                   	retq   

0000000000009b78 <safe_sub_func_uint8_t_u_u>:
    9b78:	f3 0f 1e fa          	endbr64 
    9b7c:	55                   	push   %rbp
    9b7d:	48 89 e5             	mov    %rsp,%rbp
    9b80:	89 fa                	mov    %edi,%edx
    9b82:	89 f0                	mov    %esi,%eax
    9b84:	88 55 fc             	mov    %dl,-0x4(%rbp)
    9b87:	88 45 f8             	mov    %al,-0x8(%rbp)
    9b8a:	0f b6 45 fc          	movzbl -0x4(%rbp),%eax
    9b8e:	2a 45 f8             	sub    -0x8(%rbp),%al
    9b91:	5d                   	pop    %rbp
    9b92:	c3                   	retq   

0000000000009b93 <safe_mul_func_uint8_t_u_u>:
    9b93:	f3 0f 1e fa          	endbr64 
    9b97:	55                   	push   %rbp
    9b98:	48 89 e5             	mov    %rsp,%rbp
    9b9b:	89 fa                	mov    %edi,%edx
    9b9d:	89 f0                	mov    %esi,%eax
    9b9f:	88 55 fc             	mov    %dl,-0x4(%rbp)
    9ba2:	88 45 f8             	mov    %al,-0x8(%rbp)
    9ba5:	0f b6 45 fc          	movzbl -0x4(%rbp),%eax
    9ba9:	f6 65 f8             	mulb   -0x8(%rbp)
    9bac:	5d                   	pop    %rbp
    9bad:	c3                   	retq   

0000000000009bae <safe_mod_func_uint8_t_u_u>:
    9bae:	f3 0f 1e fa          	endbr64 
    9bb2:	55                   	push   %rbp
    9bb3:	48 89 e5             	mov    %rsp,%rbp
    9bb6:	89 fa                	mov    %edi,%edx
    9bb8:	89 f0                	mov    %esi,%eax
    9bba:	88 55 fc             	mov    %dl,-0x4(%rbp)
    9bbd:	88 45 f8             	mov    %al,-0x8(%rbp)
    9bc0:	80 7d f8 00          	cmpb   $0x0,-0x8(%rbp)
    9bc4:	74 0f                	je     9bd5 <safe_mod_func_uint8_t_u_u+0x27>
    9bc6:	0f b6 45 fc          	movzbl -0x4(%rbp),%eax
    9bca:	0f b6 c0             	movzbl %al,%eax
    9bcd:	f6 75 f8             	divb   -0x8(%rbp)
    9bd0:	0f b6 c4             	movzbl %ah,%eax
    9bd3:	eb 04                	jmp    9bd9 <safe_mod_func_uint8_t_u_u+0x2b>
    9bd5:	0f b6 45 fc          	movzbl -0x4(%rbp),%eax
    9bd9:	5d                   	pop    %rbp
    9bda:	c3                   	retq   

0000000000009bdb <safe_div_func_uint8_t_u_u>:
    9bdb:	f3 0f 1e fa          	endbr64 
    9bdf:	55                   	push   %rbp
    9be0:	48 89 e5             	mov    %rsp,%rbp
    9be3:	89 fa                	mov    %edi,%edx
    9be5:	89 f0                	mov    %esi,%eax
    9be7:	88 55 fc             	mov    %dl,-0x4(%rbp)
    9bea:	88 45 f8             	mov    %al,-0x8(%rbp)
    9bed:	80 7d f8 00          	cmpb   $0x0,-0x8(%rbp)
    9bf1:	74 0c                	je     9bff <safe_div_func_uint8_t_u_u+0x24>
    9bf3:	0f b6 45 fc          	movzbl -0x4(%rbp),%eax
    9bf7:	0f b6 c0             	movzbl %al,%eax
    9bfa:	f6 75 f8             	divb   -0x8(%rbp)
    9bfd:	eb 04                	jmp    9c03 <safe_div_func_uint8_t_u_u+0x28>
    9bff:	0f b6 45 fc          	movzbl -0x4(%rbp),%eax
    9c03:	5d                   	pop    %rbp
    9c04:	c3                   	retq   

0000000000009c05 <safe_lshift_func_uint8_t_u_s>:
    9c05:	f3 0f 1e fa          	endbr64 
    9c09:	55                   	push   %rbp
    9c0a:	48 89 e5             	mov    %rsp,%rbp
    9c0d:	89 f8                	mov    %edi,%eax
    9c0f:	89 75 f8             	mov    %esi,-0x8(%rbp)
    9c12:	88 45 fc             	mov    %al,-0x4(%rbp)
    9c15:	83 7d f8 00          	cmpl   $0x0,-0x8(%rbp)
    9c19:	78 2b                	js     9c46 <safe_lshift_func_uint8_t_u_s+0x41>
    9c1b:	83 7d f8 1f          	cmpl   $0x1f,-0x8(%rbp)
    9c1f:	7f 25                	jg     9c46 <safe_lshift_func_uint8_t_u_s+0x41>
    9c21:	0f b6 55 fc          	movzbl -0x4(%rbp),%edx
    9c25:	8b 45 f8             	mov    -0x8(%rbp),%eax
    9c28:	be ff 00 00 00       	mov    $0xff,%esi
    9c2d:	89 c1                	mov    %eax,%ecx
    9c2f:	d3 fe                	sar    %cl,%esi
    9c31:	89 f0                	mov    %esi,%eax
    9c33:	39 c2                	cmp    %eax,%edx
    9c35:	7f 0f                	jg     9c46 <safe_lshift_func_uint8_t_u_s+0x41>
    9c37:	0f b6 55 fc          	movzbl -0x4(%rbp),%edx
    9c3b:	8b 45 f8             	mov    -0x8(%rbp),%eax
    9c3e:	89 c1                	mov    %eax,%ecx
    9c40:	d3 e2                	shl    %cl,%edx
    9c42:	89 d0                	mov    %edx,%eax
    9c44:	eb 04                	jmp    9c4a <safe_lshift_func_uint8_t_u_s+0x45>
    9c46:	0f b6 45 fc          	movzbl -0x4(%rbp),%eax
    9c4a:	5d                   	pop    %rbp
    9c4b:	c3                   	retq   

0000000000009c4c <safe_lshift_func_uint8_t_u_u>:
    9c4c:	f3 0f 1e fa          	endbr64 
    9c50:	55                   	push   %rbp
    9c51:	48 89 e5             	mov    %rsp,%rbp
    9c54:	89 f8                	mov    %edi,%eax
    9c56:	89 75 f8             	mov    %esi,-0x8(%rbp)
    9c59:	88 45 fc             	mov    %al,-0x4(%rbp)
    9c5c:	83 7d f8 1f          	cmpl   $0x1f,-0x8(%rbp)
    9c60:	77 25                	ja     9c87 <safe_lshift_func_uint8_t_u_u+0x3b>
    9c62:	0f b6 55 fc          	movzbl -0x4(%rbp),%edx
    9c66:	8b 45 f8             	mov    -0x8(%rbp),%eax
    9c69:	be ff 00 00 00       	mov    $0xff,%esi
    9c6e:	89 c1                	mov    %eax,%ecx
    9c70:	d3 fe                	sar    %cl,%esi
    9c72:	89 f0                	mov    %esi,%eax
    9c74:	39 c2                	cmp    %eax,%edx
    9c76:	7f 0f                	jg     9c87 <safe_lshift_func_uint8_t_u_u+0x3b>
    9c78:	0f b6 55 fc          	movzbl -0x4(%rbp),%edx
    9c7c:	8b 45 f8             	mov    -0x8(%rbp),%eax
    9c7f:	89 c1                	mov    %eax,%ecx
    9c81:	d3 e2                	shl    %cl,%edx
    9c83:	89 d0                	mov    %edx,%eax
    9c85:	eb 04                	jmp    9c8b <safe_lshift_func_uint8_t_u_u+0x3f>
    9c87:	0f b6 45 fc          	movzbl -0x4(%rbp),%eax
    9c8b:	5d                   	pop    %rbp
    9c8c:	c3                   	retq   

0000000000009c8d <safe_rshift_func_uint8_t_u_s>:
    9c8d:	f3 0f 1e fa          	endbr64 
    9c91:	55                   	push   %rbp
    9c92:	48 89 e5             	mov    %rsp,%rbp
    9c95:	89 f8                	mov    %edi,%eax
    9c97:	89 75 f8             	mov    %esi,-0x8(%rbp)
    9c9a:	88 45 fc             	mov    %al,-0x4(%rbp)
    9c9d:	83 7d f8 00          	cmpl   $0x0,-0x8(%rbp)
    9ca1:	78 15                	js     9cb8 <safe_rshift_func_uint8_t_u_s+0x2b>
    9ca3:	83 7d f8 1f          	cmpl   $0x1f,-0x8(%rbp)
    9ca7:	7f 0f                	jg     9cb8 <safe_rshift_func_uint8_t_u_s+0x2b>
    9ca9:	0f b6 55 fc          	movzbl -0x4(%rbp),%edx
    9cad:	8b 45 f8             	mov    -0x8(%rbp),%eax
    9cb0:	89 c1                	mov    %eax,%ecx
    9cb2:	d3 fa                	sar    %cl,%edx
    9cb4:	89 d0                	mov    %edx,%eax
    9cb6:	eb 04                	jmp    9cbc <safe_rshift_func_uint8_t_u_s+0x2f>
    9cb8:	0f b6 45 fc          	movzbl -0x4(%rbp),%eax
    9cbc:	5d                   	pop    %rbp
    9cbd:	c3                   	retq   

0000000000009cbe <safe_rshift_func_uint8_t_u_u>:
    9cbe:	f3 0f 1e fa          	endbr64 
    9cc2:	55                   	push   %rbp
    9cc3:	48 89 e5             	mov    %rsp,%rbp
    9cc6:	89 f8                	mov    %edi,%eax
    9cc8:	89 75 f8             	mov    %esi,-0x8(%rbp)
    9ccb:	88 45 fc             	mov    %al,-0x4(%rbp)
    9cce:	83 7d f8 1f          	cmpl   $0x1f,-0x8(%rbp)
    9cd2:	77 0f                	ja     9ce3 <safe_rshift_func_uint8_t_u_u+0x25>
    9cd4:	0f b6 55 fc          	movzbl -0x4(%rbp),%edx
    9cd8:	8b 45 f8             	mov    -0x8(%rbp),%eax
    9cdb:	89 c1                	mov    %eax,%ecx
    9cdd:	d3 fa                	sar    %cl,%edx
    9cdf:	89 d0                	mov    %edx,%eax
    9ce1:	eb 04                	jmp    9ce7 <safe_rshift_func_uint8_t_u_u+0x29>
    9ce3:	0f b6 45 fc          	movzbl -0x4(%rbp),%eax
    9ce7:	5d                   	pop    %rbp
    9ce8:	c3                   	retq   

0000000000009ce9 <safe_unary_minus_func_uint16_t_u>:
    9ce9:	f3 0f 1e fa          	endbr64 
    9ced:	55                   	push   %rbp
    9cee:	48 89 e5             	mov    %rsp,%rbp
    9cf1:	89 f8                	mov    %edi,%eax
    9cf3:	66 89 45 fc          	mov    %ax,-0x4(%rbp)
    9cf7:	0f b7 45 fc          	movzwl -0x4(%rbp),%eax
    9cfb:	f7 d8                	neg    %eax
    9cfd:	5d                   	pop    %rbp
    9cfe:	c3                   	retq   

0000000000009cff <safe_add_func_uint16_t_u_u>:
    9cff:	f3 0f 1e fa          	endbr64 
    9d03:	55                   	push   %rbp
    9d04:	48 89 e5             	mov    %rsp,%rbp
    9d07:	89 fa                	mov    %edi,%edx
    9d09:	89 f0                	mov    %esi,%eax
    9d0b:	66 89 55 fc          	mov    %dx,-0x4(%rbp)
    9d0f:	66 89 45 f8          	mov    %ax,-0x8(%rbp)
    9d13:	0f b7 55 fc          	movzwl -0x4(%rbp),%edx
    9d17:	0f b7 45 f8          	movzwl -0x8(%rbp),%eax
    9d1b:	01 d0                	add    %edx,%eax
    9d1d:	5d                   	pop    %rbp
    9d1e:	c3                   	retq   

0000000000009d1f <safe_sub_func_uint16_t_u_u>:
    9d1f:	f3 0f 1e fa          	endbr64 
    9d23:	55                   	push   %rbp
    9d24:	48 89 e5             	mov    %rsp,%rbp
    9d27:	89 fa                	mov    %edi,%edx
    9d29:	89 f0                	mov    %esi,%eax
    9d2b:	66 89 55 fc          	mov    %dx,-0x4(%rbp)
    9d2f:	66 89 45 f8          	mov    %ax,-0x8(%rbp)
    9d33:	0f b7 45 fc          	movzwl -0x4(%rbp),%eax
    9d37:	66 2b 45 f8          	sub    -0x8(%rbp),%ax
    9d3b:	5d                   	pop    %rbp
    9d3c:	c3                   	retq   

0000000000009d3d <safe_mul_func_uint16_t_u_u>:
    9d3d:	f3 0f 1e fa          	endbr64 
    9d41:	55                   	push   %rbp
    9d42:	48 89 e5             	mov    %rsp,%rbp
    9d45:	89 fa                	mov    %edi,%edx
    9d47:	89 f0                	mov    %esi,%eax
    9d49:	66 89 55 fc          	mov    %dx,-0x4(%rbp)
    9d4d:	66 89 45 f8          	mov    %ax,-0x8(%rbp)
    9d51:	0f b7 45 fc          	movzwl -0x4(%rbp),%eax
    9d55:	66 0f af 45 f8       	imul   -0x8(%rbp),%ax
    9d5a:	5d                   	pop    %rbp
    9d5b:	c3                   	retq   

0000000000009d5c <safe_mod_func_uint16_t_u_u>:
    9d5c:	f3 0f 1e fa          	endbr64 
    9d60:	55                   	push   %rbp
    9d61:	48 89 e5             	mov    %rsp,%rbp
    9d64:	89 fa                	mov    %edi,%edx
    9d66:	89 f0                	mov    %esi,%eax
    9d68:	66 89 55 fc          	mov    %dx,-0x4(%rbp)
    9d6c:	66 89 45 f8          	mov    %ax,-0x8(%rbp)
    9d70:	66 83 7d f8 00       	cmpw   $0x0,-0x8(%rbp)
    9d75:	74 11                	je     9d88 <safe_mod_func_uint16_t_u_u+0x2c>
    9d77:	0f b7 45 fc          	movzwl -0x4(%rbp),%eax
    9d7b:	ba 00 00 00 00       	mov    $0x0,%edx
    9d80:	66 f7 75 f8          	divw   -0x8(%rbp)
    9d84:	89 d0                	mov    %edx,%eax
    9d86:	eb 04                	jmp    9d8c <safe_mod_func_uint16_t_u_u+0x30>
    9d88:	0f b7 45 fc          	movzwl -0x4(%rbp),%eax
    9d8c:	5d                   	pop    %rbp
    9d8d:	c3                   	retq   

0000000000009d8e <safe_div_func_uint16_t_u_u>:
    9d8e:	f3 0f 1e fa          	endbr64 
    9d92:	55                   	push   %rbp
    9d93:	48 89 e5             	mov    %rsp,%rbp
    9d96:	89 fa                	mov    %edi,%edx
    9d98:	89 f0                	mov    %esi,%eax
    9d9a:	66 89 55 fc          	mov    %dx,-0x4(%rbp)
    9d9e:	66 89 45 f8          	mov    %ax,-0x8(%rbp)
    9da2:	66 83 7d f8 00       	cmpw   $0x0,-0x8(%rbp)
    9da7:	74 0f                	je     9db8 <safe_div_func_uint16_t_u_u+0x2a>
    9da9:	0f b7 45 fc          	movzwl -0x4(%rbp),%eax
    9dad:	ba 00 00 00 00       	mov    $0x0,%edx
    9db2:	66 f7 75 f8          	divw   -0x8(%rbp)
    9db6:	eb 04                	jmp    9dbc <safe_div_func_uint16_t_u_u+0x2e>
    9db8:	0f b7 45 fc          	movzwl -0x4(%rbp),%eax
    9dbc:	5d                   	pop    %rbp
    9dbd:	c3                   	retq   

0000000000009dbe <safe_lshift_func_uint16_t_u_s>:
    9dbe:	f3 0f 1e fa          	endbr64 
    9dc2:	55                   	push   %rbp
    9dc3:	48 89 e5             	mov    %rsp,%rbp
    9dc6:	89 f8                	mov    %edi,%eax
    9dc8:	89 75 f8             	mov    %esi,-0x8(%rbp)
    9dcb:	66 89 45 fc          	mov    %ax,-0x4(%rbp)
    9dcf:	83 7d f8 00          	cmpl   $0x0,-0x8(%rbp)
    9dd3:	78 2b                	js     9e00 <safe_lshift_func_uint16_t_u_s+0x42>
    9dd5:	83 7d f8 1f          	cmpl   $0x1f,-0x8(%rbp)
    9dd9:	7f 25                	jg     9e00 <safe_lshift_func_uint16_t_u_s+0x42>
    9ddb:	0f b7 55 fc          	movzwl -0x4(%rbp),%edx
    9ddf:	8b 45 f8             	mov    -0x8(%rbp),%eax
    9de2:	be ff ff 00 00       	mov    $0xffff,%esi
    9de7:	89 c1                	mov    %eax,%ecx
    9de9:	d3 fe                	sar    %cl,%esi
    9deb:	89 f0                	mov    %esi,%eax
    9ded:	39 c2                	cmp    %eax,%edx
    9def:	7f 0f                	jg     9e00 <safe_lshift_func_uint16_t_u_s+0x42>
    9df1:	0f b7 55 fc          	movzwl -0x4(%rbp),%edx
    9df5:	8b 45 f8             	mov    -0x8(%rbp),%eax
    9df8:	89 c1                	mov    %eax,%ecx
    9dfa:	d3 e2                	shl    %cl,%edx
    9dfc:	89 d0                	mov    %edx,%eax
    9dfe:	eb 04                	jmp    9e04 <safe_lshift_func_uint16_t_u_s+0x46>
    9e00:	0f b7 45 fc          	movzwl -0x4(%rbp),%eax
    9e04:	5d                   	pop    %rbp
    9e05:	c3                   	retq   

0000000000009e06 <safe_lshift_func_uint16_t_u_u>:
    9e06:	f3 0f 1e fa          	endbr64 
    9e0a:	55                   	push   %rbp
    9e0b:	48 89 e5             	mov    %rsp,%rbp
    9e0e:	89 f8                	mov    %edi,%eax
    9e10:	89 75 f8             	mov    %esi,-0x8(%rbp)
    9e13:	66 89 45 fc          	mov    %ax,-0x4(%rbp)
    9e17:	83 7d f8 1f          	cmpl   $0x1f,-0x8(%rbp)
    9e1b:	77 25                	ja     9e42 <safe_lshift_func_uint16_t_u_u+0x3c>
    9e1d:	0f b7 55 fc          	movzwl -0x4(%rbp),%edx
    9e21:	8b 45 f8             	mov    -0x8(%rbp),%eax
    9e24:	be ff ff 00 00       	mov    $0xffff,%esi
    9e29:	89 c1                	mov    %eax,%ecx
    9e2b:	d3 fe                	sar    %cl,%esi
    9e2d:	89 f0                	mov    %esi,%eax
    9e2f:	39 c2                	cmp    %eax,%edx
    9e31:	7f 0f                	jg     9e42 <safe_lshift_func_uint16_t_u_u+0x3c>
    9e33:	0f b7 55 fc          	movzwl -0x4(%rbp),%edx
    9e37:	8b 45 f8             	mov    -0x8(%rbp),%eax
    9e3a:	89 c1                	mov    %eax,%ecx
    9e3c:	d3 e2                	shl    %cl,%edx
    9e3e:	89 d0                	mov    %edx,%eax
    9e40:	eb 04                	jmp    9e46 <safe_lshift_func_uint16_t_u_u+0x40>
    9e42:	0f b7 45 fc          	movzwl -0x4(%rbp),%eax
    9e46:	5d                   	pop    %rbp
    9e47:	c3                   	retq   

0000000000009e48 <safe_rshift_func_uint16_t_u_s>:
    9e48:	f3 0f 1e fa          	endbr64 
    9e4c:	55                   	push   %rbp
    9e4d:	48 89 e5             	mov    %rsp,%rbp
    9e50:	89 f8                	mov    %edi,%eax
    9e52:	89 75 f8             	mov    %esi,-0x8(%rbp)
    9e55:	66 89 45 fc          	mov    %ax,-0x4(%rbp)
    9e59:	83 7d f8 00          	cmpl   $0x0,-0x8(%rbp)
    9e5d:	78 15                	js     9e74 <safe_rshift_func_uint16_t_u_s+0x2c>
    9e5f:	83 7d f8 1f          	cmpl   $0x1f,-0x8(%rbp)
    9e63:	7f 0f                	jg     9e74 <safe_rshift_func_uint16_t_u_s+0x2c>
    9e65:	0f b7 55 fc          	movzwl -0x4(%rbp),%edx
    9e69:	8b 45 f8             	mov    -0x8(%rbp),%eax
    9e6c:	89 c1                	mov    %eax,%ecx
    9e6e:	d3 fa                	sar    %cl,%edx
    9e70:	89 d0                	mov    %edx,%eax
    9e72:	eb 04                	jmp    9e78 <safe_rshift_func_uint16_t_u_s+0x30>
    9e74:	0f b7 45 fc          	movzwl -0x4(%rbp),%eax
    9e78:	5d                   	pop    %rbp
    9e79:	c3                   	retq   

0000000000009e7a <safe_rshift_func_uint16_t_u_u>:
    9e7a:	f3 0f 1e fa          	endbr64 
    9e7e:	55                   	push   %rbp
    9e7f:	48 89 e5             	mov    %rsp,%rbp
    9e82:	89 f8                	mov    %edi,%eax
    9e84:	89 75 f8             	mov    %esi,-0x8(%rbp)
    9e87:	66 89 45 fc          	mov    %ax,-0x4(%rbp)
    9e8b:	83 7d f8 1f          	cmpl   $0x1f,-0x8(%rbp)
    9e8f:	77 0f                	ja     9ea0 <safe_rshift_func_uint16_t_u_u+0x26>
    9e91:	0f b7 55 fc          	movzwl -0x4(%rbp),%edx
    9e95:	8b 45 f8             	mov    -0x8(%rbp),%eax
    9e98:	89 c1                	mov    %eax,%ecx
    9e9a:	d3 fa                	sar    %cl,%edx
    9e9c:	89 d0                	mov    %edx,%eax
    9e9e:	eb 04                	jmp    9ea4 <safe_rshift_func_uint16_t_u_u+0x2a>
    9ea0:	0f b7 45 fc          	movzwl -0x4(%rbp),%eax
    9ea4:	5d                   	pop    %rbp
    9ea5:	c3                   	retq   

0000000000009ea6 <safe_unary_minus_func_uint32_t_u>:
    9ea6:	f3 0f 1e fa          	endbr64 
    9eaa:	55                   	push   %rbp
    9eab:	48 89 e5             	mov    %rsp,%rbp
    9eae:	89 7d fc             	mov    %edi,-0x4(%rbp)
    9eb1:	8b 45 fc             	mov    -0x4(%rbp),%eax
    9eb4:	f7 d8                	neg    %eax
    9eb6:	5d                   	pop    %rbp
    9eb7:	c3                   	retq   

0000000000009eb8 <safe_add_func_uint32_t_u_u>:
    9eb8:	f3 0f 1e fa          	endbr64 
    9ebc:	55                   	push   %rbp
    9ebd:	48 89 e5             	mov    %rsp,%rbp
    9ec0:	89 7d fc             	mov    %edi,-0x4(%rbp)
    9ec3:	89 75 f8             	mov    %esi,-0x8(%rbp)
    9ec6:	8b 55 fc             	mov    -0x4(%rbp),%edx
    9ec9:	8b 45 f8             	mov    -0x8(%rbp),%eax
    9ecc:	01 d0                	add    %edx,%eax
    9ece:	5d                   	pop    %rbp
    9ecf:	c3                   	retq   

0000000000009ed0 <safe_sub_func_uint32_t_u_u>:
    9ed0:	f3 0f 1e fa          	endbr64 
    9ed4:	55                   	push   %rbp
    9ed5:	48 89 e5             	mov    %rsp,%rbp
    9ed8:	89 7d fc             	mov    %edi,-0x4(%rbp)
    9edb:	89 75 f8             	mov    %esi,-0x8(%rbp)
    9ede:	8b 45 fc             	mov    -0x4(%rbp),%eax
    9ee1:	2b 45 f8             	sub    -0x8(%rbp),%eax
    9ee4:	5d                   	pop    %rbp
    9ee5:	c3                   	retq   

0000000000009ee6 <safe_mul_func_uint32_t_u_u>:
    9ee6:	f3 0f 1e fa          	endbr64 
    9eea:	55                   	push   %rbp
    9eeb:	48 89 e5             	mov    %rsp,%rbp
    9eee:	89 7d fc             	mov    %edi,-0x4(%rbp)
    9ef1:	89 75 f8             	mov    %esi,-0x8(%rbp)
    9ef4:	8b 45 fc             	mov    -0x4(%rbp),%eax
    9ef7:	0f af 45 f8          	imul   -0x8(%rbp),%eax
    9efb:	5d                   	pop    %rbp
    9efc:	c3                   	retq   

0000000000009efd <safe_mod_func_uint32_t_u_u>:
    9efd:	f3 0f 1e fa          	endbr64 
    9f01:	55                   	push   %rbp
    9f02:	48 89 e5             	mov    %rsp,%rbp
    9f05:	89 7d fc             	mov    %edi,-0x4(%rbp)
    9f08:	89 75 f8             	mov    %esi,-0x8(%rbp)
    9f0b:	83 7d f8 00          	cmpl   $0x0,-0x8(%rbp)
    9f0f:	74 0f                	je     9f20 <safe_mod_func_uint32_t_u_u+0x23>
    9f11:	8b 45 fc             	mov    -0x4(%rbp),%eax
    9f14:	ba 00 00 00 00       	mov    $0x0,%edx
    9f19:	f7 75 f8             	divl   -0x8(%rbp)
    9f1c:	89 d0                	mov    %edx,%eax
    9f1e:	eb 03                	jmp    9f23 <safe_mod_func_uint32_t_u_u+0x26>
    9f20:	8b 45 fc             	mov    -0x4(%rbp),%eax
    9f23:	5d                   	pop    %rbp
    9f24:	c3                   	retq   

0000000000009f25 <safe_div_func_uint32_t_u_u>:
    9f25:	f3 0f 1e fa          	endbr64 
    9f29:	55                   	push   %rbp
    9f2a:	48 89 e5             	mov    %rsp,%rbp
    9f2d:	89 7d fc             	mov    %edi,-0x4(%rbp)
    9f30:	89 75 f8             	mov    %esi,-0x8(%rbp)
    9f33:	83 7d f8 00          	cmpl   $0x0,-0x8(%rbp)
    9f37:	74 0d                	je     9f46 <safe_div_func_uint32_t_u_u+0x21>
    9f39:	8b 45 fc             	mov    -0x4(%rbp),%eax
    9f3c:	ba 00 00 00 00       	mov    $0x0,%edx
    9f41:	f7 75 f8             	divl   -0x8(%rbp)
    9f44:	eb 03                	jmp    9f49 <safe_div_func_uint32_t_u_u+0x24>
    9f46:	8b 45 fc             	mov    -0x4(%rbp),%eax
    9f49:	5d                   	pop    %rbp
    9f4a:	c3                   	retq   

0000000000009f4b <safe_lshift_func_uint32_t_u_s>:
    9f4b:	f3 0f 1e fa          	endbr64 
    9f4f:	55                   	push   %rbp
    9f50:	48 89 e5             	mov    %rsp,%rbp
    9f53:	89 7d fc             	mov    %edi,-0x4(%rbp)
    9f56:	89 75 f8             	mov    %esi,-0x8(%rbp)
    9f59:	83 7d f8 00          	cmpl   $0x0,-0x8(%rbp)
    9f5d:	78 27                	js     9f86 <safe_lshift_func_uint32_t_u_s+0x3b>
    9f5f:	83 7d f8 1f          	cmpl   $0x1f,-0x8(%rbp)
    9f63:	7f 21                	jg     9f86 <safe_lshift_func_uint32_t_u_s+0x3b>
    9f65:	8b 45 f8             	mov    -0x8(%rbp),%eax
    9f68:	ba ff ff ff ff       	mov    $0xffffffff,%edx
    9f6d:	89 c1                	mov    %eax,%ecx
    9f6f:	d3 ea                	shr    %cl,%edx
    9f71:	89 d0                	mov    %edx,%eax
    9f73:	39 45 fc             	cmp    %eax,-0x4(%rbp)
    9f76:	77 0e                	ja     9f86 <safe_lshift_func_uint32_t_u_s+0x3b>
    9f78:	8b 45 f8             	mov    -0x8(%rbp),%eax
    9f7b:	8b 55 fc             	mov    -0x4(%rbp),%edx
    9f7e:	89 c1                	mov    %eax,%ecx
    9f80:	d3 e2                	shl    %cl,%edx
    9f82:	89 d0                	mov    %edx,%eax
    9f84:	eb 03                	jmp    9f89 <safe_lshift_func_uint32_t_u_s+0x3e>
    9f86:	8b 45 fc             	mov    -0x4(%rbp),%eax
    9f89:	5d                   	pop    %rbp
    9f8a:	c3                   	retq   

0000000000009f8b <safe_lshift_func_uint32_t_u_u>:
    9f8b:	f3 0f 1e fa          	endbr64 
    9f8f:	55                   	push   %rbp
    9f90:	48 89 e5             	mov    %rsp,%rbp
    9f93:	89 7d fc             	mov    %edi,-0x4(%rbp)
    9f96:	89 75 f8             	mov    %esi,-0x8(%rbp)
    9f99:	83 7d f8 1f          	cmpl   $0x1f,-0x8(%rbp)
    9f9d:	77 21                	ja     9fc0 <safe_lshift_func_uint32_t_u_u+0x35>
    9f9f:	8b 45 f8             	mov    -0x8(%rbp),%eax
    9fa2:	ba ff ff ff ff       	mov    $0xffffffff,%edx
    9fa7:	89 c1                	mov    %eax,%ecx
    9fa9:	d3 ea                	shr    %cl,%edx
    9fab:	89 d0                	mov    %edx,%eax
    9fad:	39 45 fc             	cmp    %eax,-0x4(%rbp)
    9fb0:	77 0e                	ja     9fc0 <safe_lshift_func_uint32_t_u_u+0x35>
    9fb2:	8b 45 f8             	mov    -0x8(%rbp),%eax
    9fb5:	8b 55 fc             	mov    -0x4(%rbp),%edx
    9fb8:	89 c1                	mov    %eax,%ecx
    9fba:	d3 e2                	shl    %cl,%edx
    9fbc:	89 d0                	mov    %edx,%eax
    9fbe:	eb 03                	jmp    9fc3 <safe_lshift_func_uint32_t_u_u+0x38>
    9fc0:	8b 45 fc             	mov    -0x4(%rbp),%eax
    9fc3:	5d                   	pop    %rbp
    9fc4:	c3                   	retq   

0000000000009fc5 <safe_rshift_func_uint32_t_u_s>:
    9fc5:	f3 0f 1e fa          	endbr64 
    9fc9:	55                   	push   %rbp
    9fca:	48 89 e5             	mov    %rsp,%rbp
    9fcd:	89 7d fc             	mov    %edi,-0x4(%rbp)
    9fd0:	89 75 f8             	mov    %esi,-0x8(%rbp)
    9fd3:	83 7d f8 00          	cmpl   $0x0,-0x8(%rbp)
    9fd7:	78 14                	js     9fed <safe_rshift_func_uint32_t_u_s+0x28>
    9fd9:	83 7d f8 1f          	cmpl   $0x1f,-0x8(%rbp)
    9fdd:	7f 0e                	jg     9fed <safe_rshift_func_uint32_t_u_s+0x28>
    9fdf:	8b 45 f8             	mov    -0x8(%rbp),%eax
    9fe2:	8b 55 fc             	mov    -0x4(%rbp),%edx
    9fe5:	89 c1                	mov    %eax,%ecx
    9fe7:	d3 ea                	shr    %cl,%edx
    9fe9:	89 d0                	mov    %edx,%eax
    9feb:	eb 03                	jmp    9ff0 <safe_rshift_func_uint32_t_u_s+0x2b>
    9fed:	8b 45 fc             	mov    -0x4(%rbp),%eax
    9ff0:	5d                   	pop    %rbp
    9ff1:	c3                   	retq   

0000000000009ff2 <safe_rshift_func_uint32_t_u_u>:
    9ff2:	f3 0f 1e fa          	endbr64 
    9ff6:	55                   	push   %rbp
    9ff7:	48 89 e5             	mov    %rsp,%rbp
    9ffa:	89 7d fc             	mov    %edi,-0x4(%rbp)
    9ffd:	89 75 f8             	mov    %esi,-0x8(%rbp)
    a000:	83 7d f8 1f          	cmpl   $0x1f,-0x8(%rbp)
    a004:	77 0e                	ja     a014 <safe_rshift_func_uint32_t_u_u+0x22>
    a006:	8b 45 f8             	mov    -0x8(%rbp),%eax
    a009:	8b 55 fc             	mov    -0x4(%rbp),%edx
    a00c:	89 c1                	mov    %eax,%ecx
    a00e:	d3 ea                	shr    %cl,%edx
    a010:	89 d0                	mov    %edx,%eax
    a012:	eb 03                	jmp    a017 <safe_rshift_func_uint32_t_u_u+0x25>
    a014:	8b 45 fc             	mov    -0x4(%rbp),%eax
    a017:	5d                   	pop    %rbp
    a018:	c3                   	retq   

000000000000a019 <safe_unary_minus_func_uint64_t_u>:
    a019:	f3 0f 1e fa          	endbr64 
    a01d:	55                   	push   %rbp
    a01e:	48 89 e5             	mov    %rsp,%rbp
    a021:	48 89 7d f8          	mov    %rdi,-0x8(%rbp)
    a025:	48 8b 45 f8          	mov    -0x8(%rbp),%rax
    a029:	48 f7 d8             	neg    %rax
    a02c:	5d                   	pop    %rbp
    a02d:	c3                   	retq   

000000000000a02e <safe_add_func_uint64_t_u_u>:
    a02e:	f3 0f 1e fa          	endbr64 
    a032:	55                   	push   %rbp
    a033:	48 89 e5             	mov    %rsp,%rbp
    a036:	48 89 7d f8          	mov    %rdi,-0x8(%rbp)
    a03a:	48 89 75 f0          	mov    %rsi,-0x10(%rbp)
    a03e:	48 8b 55 f8          	mov    -0x8(%rbp),%rdx
    a042:	48 8b 45 f0          	mov    -0x10(%rbp),%rax
    a046:	48 01 d0             	add    %rdx,%rax
    a049:	5d                   	pop    %rbp
    a04a:	c3                   	retq   

000000000000a04b <safe_sub_func_uint64_t_u_u>:
    a04b:	f3 0f 1e fa          	endbr64 
    a04f:	55                   	push   %rbp
    a050:	48 89 e5             	mov    %rsp,%rbp
    a053:	48 89 7d f8          	mov    %rdi,-0x8(%rbp)
    a057:	48 89 75 f0          	mov    %rsi,-0x10(%rbp)
    a05b:	48 8b 45 f8          	mov    -0x8(%rbp),%rax
    a05f:	48 2b 45 f0          	sub    -0x10(%rbp),%rax
    a063:	5d                   	pop    %rbp
    a064:	c3                   	retq   

000000000000a065 <safe_mul_func_uint64_t_u_u>:
    a065:	f3 0f 1e fa          	endbr64 
    a069:	55                   	push   %rbp
    a06a:	48 89 e5             	mov    %rsp,%rbp
    a06d:	48 89 7d f8          	mov    %rdi,-0x8(%rbp)
    a071:	48 89 75 f0          	mov    %rsi,-0x10(%rbp)
    a075:	48 8b 45 f8          	mov    -0x8(%rbp),%rax
    a079:	48 0f af 45 f0       	imul   -0x10(%rbp),%rax
    a07e:	5d                   	pop    %rbp
    a07f:	c3                   	retq   

000000000000a080 <safe_mod_func_uint64_t_u_u>:
    a080:	f3 0f 1e fa          	endbr64 
    a084:	55                   	push   %rbp
    a085:	48 89 e5             	mov    %rsp,%rbp
    a088:	48 89 7d f8          	mov    %rdi,-0x8(%rbp)
    a08c:	48 89 75 f0          	mov    %rsi,-0x10(%rbp)
    a090:	48 83 7d f0 00       	cmpq   $0x0,-0x10(%rbp)
    a095:	74 12                	je     a0a9 <safe_mod_func_uint64_t_u_u+0x29>
    a097:	48 8b 45 f8          	mov    -0x8(%rbp),%rax
    a09b:	ba 00 00 00 00       	mov    $0x0,%edx
    a0a0:	48 f7 75 f0          	divq   -0x10(%rbp)
    a0a4:	48 89 d0             	mov    %rdx,%rax
    a0a7:	eb 04                	jmp    a0ad <safe_mod_func_uint64_t_u_u+0x2d>
    a0a9:	48 8b 45 f8          	mov    -0x8(%rbp),%rax
    a0ad:	5d                   	pop    %rbp
    a0ae:	c3                   	retq   

000000000000a0af <safe_div_func_uint64_t_u_u>:
    a0af:	f3 0f 1e fa          	endbr64 
    a0b3:	55                   	push   %rbp
    a0b4:	48 89 e5             	mov    %rsp,%rbp
    a0b7:	48 89 7d f8          	mov    %rdi,-0x8(%rbp)
    a0bb:	48 89 75 f0          	mov    %rsi,-0x10(%rbp)
    a0bf:	48 83 7d f0 00       	cmpq   $0x0,-0x10(%rbp)
    a0c4:	74 0f                	je     a0d5 <safe_div_func_uint64_t_u_u+0x26>
    a0c6:	48 8b 45 f8          	mov    -0x8(%rbp),%rax
    a0ca:	ba 00 00 00 00       	mov    $0x0,%edx
    a0cf:	48 f7 75 f0          	divq   -0x10(%rbp)
    a0d3:	eb 04                	jmp    a0d9 <safe_div_func_uint64_t_u_u+0x2a>
    a0d5:	48 8b 45 f8          	mov    -0x8(%rbp),%rax
    a0d9:	5d                   	pop    %rbp
    a0da:	c3                   	retq   

000000000000a0db <safe_lshift_func_uint64_t_u_s>:
    a0db:	f3 0f 1e fa          	endbr64 
    a0df:	55                   	push   %rbp
    a0e0:	48 89 e5             	mov    %rsp,%rbp
    a0e3:	48 89 7d f8          	mov    %rdi,-0x8(%rbp)
    a0e7:	89 75 f4             	mov    %esi,-0xc(%rbp)
    a0ea:	83 7d f4 00          	cmpl   $0x0,-0xc(%rbp)
    a0ee:	78 2f                	js     a11f <safe_lshift_func_uint64_t_u_s+0x44>
    a0f0:	83 7d f4 1f          	cmpl   $0x1f,-0xc(%rbp)
    a0f4:	7f 29                	jg     a11f <safe_lshift_func_uint64_t_u_s+0x44>
    a0f6:	8b 45 f4             	mov    -0xc(%rbp),%eax
    a0f9:	48 c7 c2 ff ff ff ff 	mov    $0xffffffffffffffff,%rdx
    a100:	89 c1                	mov    %eax,%ecx
    a102:	48 d3 ea             	shr    %cl,%rdx
    a105:	48 89 d0             	mov    %rdx,%rax
    a108:	48 39 45 f8          	cmp    %rax,-0x8(%rbp)
    a10c:	77 11                	ja     a11f <safe_lshift_func_uint64_t_u_s+0x44>
    a10e:	8b 45 f4             	mov    -0xc(%rbp),%eax
    a111:	48 8b 55 f8          	mov    -0x8(%rbp),%rdx
    a115:	89 c1                	mov    %eax,%ecx
    a117:	48 d3 e2             	shl    %cl,%rdx
    a11a:	48 89 d0             	mov    %rdx,%rax
    a11d:	eb 04                	jmp    a123 <safe_lshift_func_uint64_t_u_s+0x48>
    a11f:	48 8b 45 f8          	mov    -0x8(%rbp),%rax
    a123:	5d                   	pop    %rbp
    a124:	c3                   	retq   

000000000000a125 <safe_lshift_func_uint64_t_u_u>:
    a125:	f3 0f 1e fa          	endbr64 
    a129:	55                   	push   %rbp
    a12a:	48 89 e5             	mov    %rsp,%rbp
    a12d:	48 89 7d f8          	mov    %rdi,-0x8(%rbp)
    a131:	89 75 f4             	mov    %esi,-0xc(%rbp)
    a134:	83 7d f4 1f          	cmpl   $0x1f,-0xc(%rbp)
    a138:	77 29                	ja     a163 <safe_lshift_func_uint64_t_u_u+0x3e>
    a13a:	8b 45 f4             	mov    -0xc(%rbp),%eax
    a13d:	48 c7 c2 ff ff ff ff 	mov    $0xffffffffffffffff,%rdx
    a144:	89 c1                	mov    %eax,%ecx
    a146:	48 d3 ea             	shr    %cl,%rdx
    a149:	48 89 d0             	mov    %rdx,%rax
    a14c:	48 39 45 f8          	cmp    %rax,-0x8(%rbp)
    a150:	77 11                	ja     a163 <safe_lshift_func_uint64_t_u_u+0x3e>
    a152:	8b 45 f4             	mov    -0xc(%rbp),%eax
    a155:	48 8b 55 f8          	mov    -0x8(%rbp),%rdx
    a159:	89 c1                	mov    %eax,%ecx
    a15b:	48 d3 e2             	shl    %cl,%rdx
    a15e:	48 89 d0             	mov    %rdx,%rax
    a161:	eb 04                	jmp    a167 <safe_lshift_func_uint64_t_u_u+0x42>
    a163:	48 8b 45 f8          	mov    -0x8(%rbp),%rax
    a167:	5d                   	pop    %rbp
    a168:	c3                   	retq   

000000000000a169 <safe_rshift_func_uint64_t_u_s>:
    a169:	f3 0f 1e fa          	endbr64 
    a16d:	55                   	push   %rbp
    a16e:	48 89 e5             	mov    %rsp,%rbp
    a171:	48 89 7d f8          	mov    %rdi,-0x8(%rbp)
    a175:	89 75 f4             	mov    %esi,-0xc(%rbp)
    a178:	83 7d f4 00          	cmpl   $0x0,-0xc(%rbp)
    a17c:	78 17                	js     a195 <safe_rshift_func_uint64_t_u_s+0x2c>
    a17e:	83 7d f4 1f          	cmpl   $0x1f,-0xc(%rbp)
    a182:	7f 11                	jg     a195 <safe_rshift_func_uint64_t_u_s+0x2c>
    a184:	8b 45 f4             	mov    -0xc(%rbp),%eax
    a187:	48 8b 55 f8          	mov    -0x8(%rbp),%rdx
    a18b:	89 c1                	mov    %eax,%ecx
    a18d:	48 d3 ea             	shr    %cl,%rdx
    a190:	48 89 d0             	mov    %rdx,%rax
    a193:	eb 04                	jmp    a199 <safe_rshift_func_uint64_t_u_s+0x30>
    a195:	48 8b 45 f8          	mov    -0x8(%rbp),%rax
    a199:	5d                   	pop    %rbp
    a19a:	c3                   	retq   

000000000000a19b <safe_rshift_func_uint64_t_u_u>:
    a19b:	f3 0f 1e fa          	endbr64 
    a19f:	55                   	push   %rbp
    a1a0:	48 89 e5             	mov    %rsp,%rbp
    a1a3:	48 89 7d f8          	mov    %rdi,-0x8(%rbp)
    a1a7:	89 75 f4             	mov    %esi,-0xc(%rbp)
    a1aa:	83 7d f4 1f          	cmpl   $0x1f,-0xc(%rbp)
    a1ae:	77 11                	ja     a1c1 <safe_rshift_func_uint64_t_u_u+0x26>
    a1b0:	8b 45 f4             	mov    -0xc(%rbp),%eax
    a1b3:	48 8b 55 f8          	mov    -0x8(%rbp),%rdx
    a1b7:	89 c1                	mov    %eax,%ecx
    a1b9:	48 d3 ea             	shr    %cl,%rdx
    a1bc:	48 89 d0             	mov    %rdx,%rax
    a1bf:	eb 04                	jmp    a1c5 <safe_rshift_func_uint64_t_u_u+0x2a>
    a1c1:	48 8b 45 f8          	mov    -0x8(%rbp),%rax
    a1c5:	5d                   	pop    %rbp
    a1c6:	c3                   	retq   

000000000000a1c7 <safe_add_func_float_f_f>:
    a1c7:	f3 0f 1e fa          	endbr64 
    a1cb:	55                   	push   %rbp
    a1cc:	48 89 e5             	mov    %rsp,%rbp
    a1cf:	f3 0f 11 45 fc       	movss  %xmm0,-0x4(%rbp)
    a1d4:	f3 0f 11 4d f8       	movss  %xmm1,-0x8(%rbp)
    a1d9:	f3 0f 10 4d fc       	movss  -0x4(%rbp),%xmm1
    a1de:	f3 0f 10 05 12 bb 00 	movss  0xbb12(%rip),%xmm0        # 15cf8 <l_1746.4357+0x78>
    a1e5:	00 
    a1e6:	f3 0f 59 c8          	mulss  %xmm0,%xmm1
    a1ea:	f3 0f 10 55 f8       	movss  -0x8(%rbp),%xmm2
    a1ef:	f3 0f 10 05 01 bb 00 	movss  0xbb01(%rip),%xmm0        # 15cf8 <l_1746.4357+0x78>
    a1f6:	00 
    a1f7:	f3 0f 59 c2          	mulss  %xmm2,%xmm0
    a1fb:	f3 0f 58 c1          	addss  %xmm1,%xmm0
    a1ff:	f3 0f 10 0d f9 ba 00 	movss  0xbaf9(%rip),%xmm1        # 15d00 <l_1746.4357+0x80>
    a206:	00 
    a207:	0f 54 c1             	andps  %xmm1,%xmm0
    a20a:	0f 2f 05 ff ba 00 00 	comiss 0xbaff(%rip),%xmm0        # 15d10 <l_1746.4357+0x90>
    a211:	76 07                	jbe    a21a <safe_add_func_float_f_f+0x53>
    a213:	f3 0f 10 45 fc       	movss  -0x4(%rbp),%xmm0
    a218:	eb 0a                	jmp    a224 <safe_add_func_float_f_f+0x5d>
    a21a:	f3 0f 10 45 fc       	movss  -0x4(%rbp),%xmm0
    a21f:	f3 0f 58 45 f8       	addss  -0x8(%rbp),%xmm0
    a224:	5d                   	pop    %rbp
    a225:	c3                   	retq   

000000000000a226 <safe_sub_func_float_f_f>:
    a226:	f3 0f 1e fa          	endbr64 
    a22a:	55                   	push   %rbp
    a22b:	48 89 e5             	mov    %rsp,%rbp
    a22e:	f3 0f 11 45 fc       	movss  %xmm0,-0x4(%rbp)
    a233:	f3 0f 11 4d f8       	movss  %xmm1,-0x8(%rbp)
    a238:	f3 0f 10 4d fc       	movss  -0x4(%rbp),%xmm1
    a23d:	f3 0f 10 05 b3 ba 00 	movss  0xbab3(%rip),%xmm0        # 15cf8 <l_1746.4357+0x78>
    a244:	00 
    a245:	f3 0f 59 c1          	mulss  %xmm1,%xmm0
    a249:	f3 0f 10 55 f8       	movss  -0x8(%rbp),%xmm2
    a24e:	f3 0f 10 0d a2 ba 00 	movss  0xbaa2(%rip),%xmm1        # 15cf8 <l_1746.4357+0x78>
    a255:	00 
    a256:	f3 0f 59 ca          	mulss  %xmm2,%xmm1
    a25a:	f3 0f 5c c1          	subss  %xmm1,%xmm0
    a25e:	f3 0f 10 0d 9a ba 00 	movss  0xba9a(%rip),%xmm1        # 15d00 <l_1746.4357+0x80>
    a265:	00 
    a266:	0f 54 c1             	andps  %xmm1,%xmm0
    a269:	0f 2f 05 a0 ba 00 00 	comiss 0xbaa0(%rip),%xmm0        # 15d10 <l_1746.4357+0x90>
    a270:	76 07                	jbe    a279 <safe_sub_func_float_f_f+0x53>
    a272:	f3 0f 10 45 fc       	movss  -0x4(%rbp),%xmm0
    a277:	eb 0a                	jmp    a283 <safe_sub_func_float_f_f+0x5d>
    a279:	f3 0f 10 45 fc       	movss  -0x4(%rbp),%xmm0
    a27e:	f3 0f 5c 45 f8       	subss  -0x8(%rbp),%xmm0
    a283:	5d                   	pop    %rbp
    a284:	c3                   	retq   

000000000000a285 <safe_mul_func_float_f_f>:
    a285:	f3 0f 1e fa          	endbr64 
    a289:	55                   	push   %rbp
    a28a:	48 89 e5             	mov    %rsp,%rbp
    a28d:	f3 0f 11 45 fc       	movss  %xmm0,-0x4(%rbp)
    a292:	f3 0f 11 4d f8       	movss  %xmm1,-0x8(%rbp)
    a297:	f3 0f 10 4d fc       	movss  -0x4(%rbp),%xmm1
    a29c:	f3 0f 10 05 70 ba 00 	movss  0xba70(%rip),%xmm0        # 15d14 <l_1746.4357+0x94>
    a2a3:	00 
    a2a4:	f3 0f 59 c8          	mulss  %xmm0,%xmm1
    a2a8:	f3 0f 10 55 f8       	movss  -0x8(%rbp),%xmm2
    a2ad:	f3 0f 10 05 63 ba 00 	movss  0xba63(%rip),%xmm0        # 15d18 <l_1746.4357+0x98>
    a2b4:	00 
    a2b5:	f3 0f 59 c2          	mulss  %xmm2,%xmm0
    a2b9:	f3 0f 59 c1          	mulss  %xmm1,%xmm0
    a2bd:	f3 0f 10 0d 3b ba 00 	movss  0xba3b(%rip),%xmm1        # 15d00 <l_1746.4357+0x80>
    a2c4:	00 
    a2c5:	0f 54 c1             	andps  %xmm1,%xmm0
    a2c8:	0f 2f 05 4d ba 00 00 	comiss 0xba4d(%rip),%xmm0        # 15d1c <l_1746.4357+0x9c>
    a2cf:	76 07                	jbe    a2d8 <safe_mul_func_float_f_f+0x53>
    a2d1:	f3 0f 10 45 fc       	movss  -0x4(%rbp),%xmm0
    a2d6:	eb 0a                	jmp    a2e2 <safe_mul_func_float_f_f+0x5d>
    a2d8:	f3 0f 10 45 fc       	movss  -0x4(%rbp),%xmm0
    a2dd:	f3 0f 59 45 f8       	mulss  -0x8(%rbp),%xmm0
    a2e2:	5d                   	pop    %rbp
    a2e3:	c3                   	retq   

000000000000a2e4 <safe_div_func_float_f_f>:
    a2e4:	f3 0f 1e fa          	endbr64 
    a2e8:	55                   	push   %rbp
    a2e9:	48 89 e5             	mov    %rsp,%rbp
    a2ec:	f3 0f 11 45 fc       	movss  %xmm0,-0x4(%rbp)
    a2f1:	f3 0f 11 4d f8       	movss  %xmm1,-0x8(%rbp)
    a2f6:	f3 0f 10 45 f8       	movss  -0x8(%rbp),%xmm0
    a2fb:	f3 0f 10 0d fd b9 00 	movss  0xb9fd(%rip),%xmm1        # 15d00 <l_1746.4357+0x80>
    a302:	00 
    a303:	0f 54 c8             	andps  %xmm0,%xmm1
    a306:	f3 0f 10 05 12 ba 00 	movss  0xba12(%rip),%xmm0        # 15d20 <l_1746.4357+0xa0>
    a30d:	00 
    a30e:	0f 2f c1             	comiss %xmm1,%xmm0
    a311:	0f 97 c0             	seta   %al
    a314:	83 f0 01             	xor    $0x1,%eax
    a317:	84 c0                	test   %al,%al
    a319:	75 56                	jne    a371 <safe_div_func_float_f_f+0x8d>
    a31b:	66 0f ef c0          	pxor   %xmm0,%xmm0
    a31f:	0f 2e 45 f8          	ucomiss -0x8(%rbp),%xmm0
    a323:	7a 0a                	jp     a32f <safe_div_func_float_f_f+0x4b>
    a325:	66 0f ef c0          	pxor   %xmm0,%xmm0
    a329:	0f 2e 45 f8          	ucomiss -0x8(%rbp),%xmm0
    a32d:	74 4e                	je     a37d <safe_div_func_float_f_f+0x99>
    a32f:	f3 0f 10 4d fc       	movss  -0x4(%rbp),%xmm1
    a334:	f3 0f 10 05 e8 b9 00 	movss  0xb9e8(%rip),%xmm0        # 15d24 <l_1746.4357+0xa4>
    a33b:	00 
    a33c:	f3 0f 59 c1          	mulss  %xmm1,%xmm0
    a340:	f3 0f 10 55 f8       	movss  -0x8(%rbp),%xmm2
    a345:	f3 0f 10 0d db b9 00 	movss  0xb9db(%rip),%xmm1        # 15d28 <l_1746.4357+0xa8>
    a34c:	00 
    a34d:	f3 0f 59 ca          	mulss  %xmm2,%xmm1
    a351:	f3 0f 5e c1          	divss  %xmm1,%xmm0
    a355:	f3 0f 10 0d a3 b9 00 	movss  0xb9a3(%rip),%xmm1        # 15d00 <l_1746.4357+0x80>
    a35c:	00 
    a35d:	0f 54 c1             	andps  %xmm1,%xmm0
    a360:	0f 2f 05 c5 b9 00 00 	comiss 0xb9c5(%rip),%xmm0        # 15d2c <l_1746.4357+0xac>
    a367:	0f 97 c0             	seta   %al
    a36a:	83 f0 01             	xor    $0x1,%eax
    a36d:	84 c0                	test   %al,%al
    a36f:	74 0c                	je     a37d <safe_div_func_float_f_f+0x99>
    a371:	f3 0f 10 45 fc       	movss  -0x4(%rbp),%xmm0
    a376:	f3 0f 5e 45 f8       	divss  -0x8(%rbp),%xmm0
    a37b:	eb 05                	jmp    a382 <safe_div_func_float_f_f+0x9e>
    a37d:	f3 0f 10 45 fc       	movss  -0x4(%rbp),%xmm0
    a382:	5d                   	pop    %rbp
    a383:	c3                   	retq   

000000000000a384 <safe_add_func_double_f_f>:
    a384:	f3 0f 1e fa          	endbr64 
    a388:	55                   	push   %rbp
    a389:	48 89 e5             	mov    %rsp,%rbp
    a38c:	f2 0f 11 45 f8       	movsd  %xmm0,-0x8(%rbp)
    a391:	f2 0f 11 4d f0       	movsd  %xmm1,-0x10(%rbp)
    a396:	f2 0f 10 4d f8       	movsd  -0x8(%rbp),%xmm1
    a39b:	f2 0f 10 05 8d b9 00 	movsd  0xb98d(%rip),%xmm0        # 15d30 <l_1746.4357+0xb0>
    a3a2:	00 
    a3a3:	f2 0f 59 c8          	mulsd  %xmm0,%xmm1
    a3a7:	f2 0f 10 55 f0       	movsd  -0x10(%rbp),%xmm2
    a3ac:	f2 0f 10 05 7c b9 00 	movsd  0xb97c(%rip),%xmm0        # 15d30 <l_1746.4357+0xb0>
    a3b3:	00 
    a3b4:	f2 0f 59 c2          	mulsd  %xmm2,%xmm0
    a3b8:	f2 0f 58 c1          	addsd  %xmm1,%xmm0
    a3bc:	f3 0f 7e 0d 7c b9 00 	movq   0xb97c(%rip),%xmm1        # 15d40 <l_1746.4357+0xc0>
    a3c3:	00 
    a3c4:	66 0f 54 c1          	andpd  %xmm1,%xmm0
    a3c8:	66 0f 2f 05 80 b9 00 	comisd 0xb980(%rip),%xmm0        # 15d50 <l_1746.4357+0xd0>
    a3cf:	00 
    a3d0:	76 07                	jbe    a3d9 <safe_add_func_double_f_f+0x55>
    a3d2:	f2 0f 10 45 f8       	movsd  -0x8(%rbp),%xmm0
    a3d7:	eb 0a                	jmp    a3e3 <safe_add_func_double_f_f+0x5f>
    a3d9:	f2 0f 10 45 f8       	movsd  -0x8(%rbp),%xmm0
    a3de:	f2 0f 58 45 f0       	addsd  -0x10(%rbp),%xmm0
    a3e3:	5d                   	pop    %rbp
    a3e4:	c3                   	retq   

000000000000a3e5 <safe_sub_func_double_f_f>:
    a3e5:	f3 0f 1e fa          	endbr64 
    a3e9:	55                   	push   %rbp
    a3ea:	48 89 e5             	mov    %rsp,%rbp
    a3ed:	f2 0f 11 45 f8       	movsd  %xmm0,-0x8(%rbp)
    a3f2:	f2 0f 11 4d f0       	movsd  %xmm1,-0x10(%rbp)
    a3f7:	f2 0f 10 4d f8       	movsd  -0x8(%rbp),%xmm1
    a3fc:	f2 0f 10 05 2c b9 00 	movsd  0xb92c(%rip),%xmm0        # 15d30 <l_1746.4357+0xb0>
    a403:	00 
    a404:	f2 0f 59 c1          	mulsd  %xmm1,%xmm0
    a408:	f2 0f 10 55 f0       	movsd  -0x10(%rbp),%xmm2
    a40d:	f2 0f 10 0d 1b b9 00 	movsd  0xb91b(%rip),%xmm1        # 15d30 <l_1746.4357+0xb0>
    a414:	00 
    a415:	f2 0f 59 ca          	mulsd  %xmm2,%xmm1
    a419:	f2 0f 5c c1          	subsd  %xmm1,%xmm0
    a41d:	f3 0f 7e 0d 1b b9 00 	movq   0xb91b(%rip),%xmm1        # 15d40 <l_1746.4357+0xc0>
    a424:	00 
    a425:	66 0f 54 c1          	andpd  %xmm1,%xmm0
    a429:	66 0f 2f 05 1f b9 00 	comisd 0xb91f(%rip),%xmm0        # 15d50 <l_1746.4357+0xd0>
    a430:	00 
    a431:	76 07                	jbe    a43a <safe_sub_func_double_f_f+0x55>
    a433:	f2 0f 10 45 f8       	movsd  -0x8(%rbp),%xmm0
    a438:	eb 0a                	jmp    a444 <safe_sub_func_double_f_f+0x5f>
    a43a:	f2 0f 10 45 f8       	movsd  -0x8(%rbp),%xmm0
    a43f:	f2 0f 5c 45 f0       	subsd  -0x10(%rbp),%xmm0
    a444:	5d                   	pop    %rbp
    a445:	c3                   	retq   

000000000000a446 <safe_mul_func_double_f_f>:
    a446:	f3 0f 1e fa          	endbr64 
    a44a:	55                   	push   %rbp
    a44b:	48 89 e5             	mov    %rsp,%rbp
    a44e:	f2 0f 11 45 f8       	movsd  %xmm0,-0x8(%rbp)
    a453:	f2 0f 11 4d f0       	movsd  %xmm1,-0x10(%rbp)
    a458:	f2 0f 10 4d f8       	movsd  -0x8(%rbp),%xmm1
    a45d:	f2 0f 10 05 f3 b8 00 	movsd  0xb8f3(%rip),%xmm0        # 15d58 <l_1746.4357+0xd8>
    a464:	00 
    a465:	f2 0f 59 c8          	mulsd  %xmm0,%xmm1
    a469:	f2 0f 10 55 f0       	movsd  -0x10(%rbp),%xmm2
    a46e:	f2 0f 10 05 ea b8 00 	movsd  0xb8ea(%rip),%xmm0        # 15d60 <l_1746.4357+0xe0>
    a475:	00 
    a476:	f2 0f 59 c2          	mulsd  %xmm2,%xmm0
    a47a:	f2 0f 59 c1          	mulsd  %xmm1,%xmm0
    a47e:	f3 0f 7e 0d ba b8 00 	movq   0xb8ba(%rip),%xmm1        # 15d40 <l_1746.4357+0xc0>
    a485:	00 
    a486:	66 0f 54 c1          	andpd  %xmm1,%xmm0
    a48a:	66 0f 2f 05 d6 b8 00 	comisd 0xb8d6(%rip),%xmm0        # 15d68 <l_1746.4357+0xe8>
    a491:	00 
    a492:	76 07                	jbe    a49b <safe_mul_func_double_f_f+0x55>
    a494:	f2 0f 10 45 f8       	movsd  -0x8(%rbp),%xmm0
    a499:	eb 0a                	jmp    a4a5 <safe_mul_func_double_f_f+0x5f>
    a49b:	f2 0f 10 45 f8       	movsd  -0x8(%rbp),%xmm0
    a4a0:	f2 0f 59 45 f0       	mulsd  -0x10(%rbp),%xmm0
    a4a5:	5d                   	pop    %rbp
    a4a6:	c3                   	retq   

000000000000a4a7 <safe_div_func_double_f_f>:
    a4a7:	f3 0f 1e fa          	endbr64 
    a4ab:	55                   	push   %rbp
    a4ac:	48 89 e5             	mov    %rsp,%rbp
    a4af:	f2 0f 11 45 f8       	movsd  %xmm0,-0x8(%rbp)
    a4b4:	f2 0f 11 4d f0       	movsd  %xmm1,-0x10(%rbp)
    a4b9:	f2 0f 10 45 f0       	movsd  -0x10(%rbp),%xmm0
    a4be:	f3 0f 7e 0d 7a b8 00 	movq   0xb87a(%rip),%xmm1        # 15d40 <l_1746.4357+0xc0>
    a4c5:	00 
    a4c6:	66 0f 54 c8          	andpd  %xmm0,%xmm1
    a4ca:	f2 0f 10 05 9e b8 00 	movsd  0xb89e(%rip),%xmm0        # 15d70 <l_1746.4357+0xf0>
    a4d1:	00 
    a4d2:	66 0f 2f c1          	comisd %xmm1,%xmm0
    a4d6:	0f 97 c0             	seta   %al
    a4d9:	83 f0 01             	xor    $0x1,%eax
    a4dc:	84 c0                	test   %al,%al
    a4de:	75 5a                	jne    a53a <safe_div_func_double_f_f+0x93>
    a4e0:	66 0f ef c0          	pxor   %xmm0,%xmm0
    a4e4:	66 0f 2e 45 f0       	ucomisd -0x10(%rbp),%xmm0
    a4e9:	7a 0b                	jp     a4f6 <safe_div_func_double_f_f+0x4f>
    a4eb:	66 0f ef c0          	pxor   %xmm0,%xmm0
    a4ef:	66 0f 2e 45 f0       	ucomisd -0x10(%rbp),%xmm0
    a4f4:	74 50                	je     a546 <safe_div_func_double_f_f+0x9f>
    a4f6:	f2 0f 10 4d f8       	movsd  -0x8(%rbp),%xmm1
    a4fb:	f2 0f 10 05 75 b8 00 	movsd  0xb875(%rip),%xmm0        # 15d78 <l_1746.4357+0xf8>
    a502:	00 
    a503:	f2 0f 59 c1          	mulsd  %xmm1,%xmm0
    a507:	f2 0f 10 55 f0       	movsd  -0x10(%rbp),%xmm2
    a50c:	f2 0f 10 0d 6c b8 00 	movsd  0xb86c(%rip),%xmm1        # 15d80 <l_1746.4357+0x100>
    a513:	00 
    a514:	f2 0f 59 ca          	mulsd  %xmm2,%xmm1
    a518:	f2 0f 5e c1          	divsd  %xmm1,%xmm0
    a51c:	f3 0f 7e 0d 1c b8 00 	movq   0xb81c(%rip),%xmm1        # 15d40 <l_1746.4357+0xc0>
    a523:	00 
    a524:	66 0f 54 c1          	andpd  %xmm1,%xmm0
    a528:	66 0f 2f 05 58 b8 00 	comisd 0xb858(%rip),%xmm0        # 15d88 <l_1746.4357+0x108>
    a52f:	00 
    a530:	0f 97 c0             	seta   %al
    a533:	83 f0 01             	xor    $0x1,%eax
    a536:	84 c0                	test   %al,%al
    a538:	74 0c                	je     a546 <safe_div_func_double_f_f+0x9f>
    a53a:	f2 0f 10 45 f8       	movsd  -0x8(%rbp),%xmm0
    a53f:	f2 0f 5e 45 f0       	divsd  -0x10(%rbp),%xmm0
    a544:	eb 05                	jmp    a54b <safe_div_func_double_f_f+0xa4>
    a546:	f2 0f 10 45 f8       	movsd  -0x8(%rbp),%xmm0
    a54b:	5d                   	pop    %rbp
    a54c:	c3                   	retq   

000000000000a54d <safe_convert_func_float_to_int32_t>:
    a54d:	f3 0f 1e fa          	endbr64 
    a551:	55                   	push   %rbp
    a552:	48 89 e5             	mov    %rsp,%rbp
    a555:	f3 0f 11 45 fc       	movss  %xmm0,-0x4(%rbp)
    a55a:	f3 0f 10 05 2e b8 00 	movss  0xb82e(%rip),%xmm0        # 15d90 <l_1746.4357+0x110>
    a561:	00 
    a562:	0f 2f 45 fc          	comiss -0x4(%rbp),%xmm0
    a566:	0f 93 c0             	setae  %al
    a569:	83 f0 01             	xor    $0x1,%eax
    a56c:	84 c0                	test   %al,%al
    a56e:	74 21                	je     a591 <safe_convert_func_float_to_int32_t+0x44>
    a570:	f3 0f 10 45 fc       	movss  -0x4(%rbp),%xmm0
    a575:	0f 2f 05 18 b8 00 00 	comiss 0xb818(%rip),%xmm0        # 15d94 <l_1746.4357+0x114>
    a57c:	0f 93 c0             	setae  %al
    a57f:	83 f0 01             	xor    $0x1,%eax
    a582:	84 c0                	test   %al,%al
    a584:	74 0b                	je     a591 <safe_convert_func_float_to_int32_t+0x44>
    a586:	f3 0f 10 45 fc       	movss  -0x4(%rbp),%xmm0
    a58b:	f3 0f 2c c0          	cvttss2si %xmm0,%eax
    a58f:	eb 05                	jmp    a596 <safe_convert_func_float_to_int32_t+0x49>
    a591:	b8 ff ff ff 7f       	mov    $0x7fffffff,%eax
    a596:	5d                   	pop    %rbp
    a597:	c3                   	retq   

000000000000a598 <crc32_gentab>:
    a598:	f3 0f 1e fa          	endbr64 
    a59c:	55                   	push   %rbp
    a59d:	48 89 e5             	mov    %rsp,%rbp
    a5a0:	c7 45 fc 20 83 b8 ed 	movl   $0xedb88320,-0x4(%rbp)
    a5a7:	c7 45 f4 00 00 00 00 	movl   $0x0,-0xc(%rbp)
    a5ae:	eb 51                	jmp    a601 <crc32_gentab+0x69>
    a5b0:	8b 45 f4             	mov    -0xc(%rbp),%eax
    a5b3:	89 45 f0             	mov    %eax,-0x10(%rbp)
    a5b6:	c7 45 f8 08 00 00 00 	movl   $0x8,-0x8(%rbp)
    a5bd:	eb 1e                	jmp    a5dd <crc32_gentab+0x45>
    a5bf:	8b 45 f0             	mov    -0x10(%rbp),%eax
    a5c2:	83 e0 01             	and    $0x1,%eax
    a5c5:	85 c0                	test   %eax,%eax
    a5c7:	74 0d                	je     a5d6 <crc32_gentab+0x3e>
    a5c9:	8b 45 f0             	mov    -0x10(%rbp),%eax
    a5cc:	d1 e8                	shr    %eax
    a5ce:	33 45 fc             	xor    -0x4(%rbp),%eax
    a5d1:	89 45 f0             	mov    %eax,-0x10(%rbp)
    a5d4:	eb 03                	jmp    a5d9 <crc32_gentab+0x41>
    a5d6:	d1 6d f0             	shrl   -0x10(%rbp)
    a5d9:	83 6d f8 01          	subl   $0x1,-0x8(%rbp)
    a5dd:	83 7d f8 00          	cmpl   $0x0,-0x8(%rbp)
    a5e1:	7f dc                	jg     a5bf <crc32_gentab+0x27>
    a5e3:	8b 45 f4             	mov    -0xc(%rbp),%eax
    a5e6:	48 98                	cltq   
    a5e8:	48 8d 0c 85 00 00 00 	lea    0x0(,%rax,4),%rcx
    a5ef:	00 
    a5f0:	48 8d 15 69 26 01 00 	lea    0x12669(%rip),%rdx        # 1cc60 <crc32_tab>
    a5f7:	8b 45 f0             	mov    -0x10(%rbp),%eax
    a5fa:	89 04 11             	mov    %eax,(%rcx,%rdx,1)
    a5fd:	83 45 f4 01          	addl   $0x1,-0xc(%rbp)
    a601:	81 7d f4 ff 00 00 00 	cmpl   $0xff,-0xc(%rbp)
    a608:	7e a6                	jle    a5b0 <crc32_gentab+0x18>
    a60a:	90                   	nop
    a60b:	90                   	nop
    a60c:	5d                   	pop    %rbp
    a60d:	c3                   	retq   

000000000000a60e <crc32_byte>:
    a60e:	f3 0f 1e fa          	endbr64 
    a612:	55                   	push   %rbp
    a613:	48 89 e5             	mov    %rsp,%rbp
    a616:	89 f8                	mov    %edi,%eax
    a618:	88 45 fc             	mov    %al,-0x4(%rbp)
    a61b:	8b 05 ff e9 00 00    	mov    0xe9ff(%rip),%eax        # 19020 <crc32_context>
    a621:	c1 e8 08             	shr    $0x8,%eax
    a624:	89 c1                	mov    %eax,%ecx
    a626:	0f b6 55 fc          	movzbl -0x4(%rbp),%edx
    a62a:	8b 05 f0 e9 00 00    	mov    0xe9f0(%rip),%eax        # 19020 <crc32_context>
    a630:	31 d0                	xor    %edx,%eax
    a632:	0f b6 c0             	movzbl %al,%eax
    a635:	89 c0                	mov    %eax,%eax
    a637:	48 8d 14 85 00 00 00 	lea    0x0(,%rax,4),%rdx
    a63e:	00 
    a63f:	48 8d 05 1a 26 01 00 	lea    0x1261a(%rip),%rax        # 1cc60 <crc32_tab>
    a646:	8b 04 02             	mov    (%rdx,%rax,1),%eax
    a649:	31 c8                	xor    %ecx,%eax
    a64b:	89 05 cf e9 00 00    	mov    %eax,0xe9cf(%rip)        # 19020 <crc32_context>
    a651:	90                   	nop
    a652:	5d                   	pop    %rbp
    a653:	c3                   	retq   

000000000000a654 <crc32_8bytes>:
    a654:	f3 0f 1e fa          	endbr64 
    a658:	55                   	push   %rbp
    a659:	48 89 e5             	mov    %rsp,%rbp
    a65c:	48 83 ec 08          	sub    $0x8,%rsp
    a660:	48 89 7d f8          	mov    %rdi,-0x8(%rbp)
    a664:	48 8b 45 f8          	mov    -0x8(%rbp),%rax
    a668:	0f b6 c0             	movzbl %al,%eax
    a66b:	89 c7                	mov    %eax,%edi
    a66d:	e8 9c ff ff ff       	callq  a60e <crc32_byte>
    a672:	48 8b 45 f8          	mov    -0x8(%rbp),%rax
    a676:	48 c1 e8 08          	shr    $0x8,%rax
    a67a:	0f b6 c0             	movzbl %al,%eax
    a67d:	89 c7                	mov    %eax,%edi
    a67f:	e8 8a ff ff ff       	callq  a60e <crc32_byte>
    a684:	48 8b 45 f8          	mov    -0x8(%rbp),%rax
    a688:	48 c1 e8 10          	shr    $0x10,%rax
    a68c:	0f b6 c0             	movzbl %al,%eax
    a68f:	89 c7                	mov    %eax,%edi
    a691:	e8 78 ff ff ff       	callq  a60e <crc32_byte>
    a696:	48 8b 45 f8          	mov    -0x8(%rbp),%rax
    a69a:	48 c1 e8 18          	shr    $0x18,%rax
    a69e:	0f b6 c0             	movzbl %al,%eax
    a6a1:	89 c7                	mov    %eax,%edi
    a6a3:	e8 66 ff ff ff       	callq  a60e <crc32_byte>
    a6a8:	48 8b 45 f8          	mov    -0x8(%rbp),%rax
    a6ac:	48 c1 e8 20          	shr    $0x20,%rax
    a6b0:	0f b6 c0             	movzbl %al,%eax
    a6b3:	89 c7                	mov    %eax,%edi
    a6b5:	e8 54 ff ff ff       	callq  a60e <crc32_byte>
    a6ba:	48 8b 45 f8          	mov    -0x8(%rbp),%rax
    a6be:	48 c1 e8 28          	shr    $0x28,%rax
    a6c2:	0f b6 c0             	movzbl %al,%eax
    a6c5:	89 c7                	mov    %eax,%edi
    a6c7:	e8 42 ff ff ff       	callq  a60e <crc32_byte>
    a6cc:	48 8b 45 f8          	mov    -0x8(%rbp),%rax
    a6d0:	48 c1 e8 30          	shr    $0x30,%rax
    a6d4:	0f b6 c0             	movzbl %al,%eax
    a6d7:	89 c7                	mov    %eax,%edi
    a6d9:	e8 30 ff ff ff       	callq  a60e <crc32_byte>
    a6de:	48 8b 45 f8          	mov    -0x8(%rbp),%rax
    a6e2:	48 c1 e8 38          	shr    $0x38,%rax
    a6e6:	0f b6 c0             	movzbl %al,%eax
    a6e9:	89 c7                	mov    %eax,%edi
    a6eb:	e8 1e ff ff ff       	callq  a60e <crc32_byte>
    a6f0:	90                   	nop
    a6f1:	c9                   	leaveq 
    a6f2:	c3                   	retq   

000000000000a6f3 <transparent_crc>:
    a6f3:	f3 0f 1e fa          	endbr64 
    a6f7:	55                   	push   %rbp
    a6f8:	48 89 e5             	mov    %rsp,%rbp
    a6fb:	48 83 ec 20          	sub    $0x20,%rsp
    a6ff:	48 89 7d f8          	mov    %rdi,-0x8(%rbp)
    a703:	48 89 75 f0          	mov    %rsi,-0x10(%rbp)
    a707:	89 55 ec             	mov    %edx,-0x14(%rbp)
    a70a:	48 8b 45 f8          	mov    -0x8(%rbp),%rax
    a70e:	48 89 c7             	mov    %rax,%rdi
    a711:	e8 3e ff ff ff       	callq  a654 <crc32_8bytes>
    a716:	83 7d ec 00          	cmpl   $0x0,-0x14(%rbp)
    a71a:	74 22                	je     a73e <transparent_crc+0x4b>
    a71c:	8b 05 fe e8 00 00    	mov    0xe8fe(%rip),%eax        # 19020 <crc32_context>
    a722:	f7 d0                	not    %eax
    a724:	89 c2                	mov    %eax,%edx
    a726:	48 8b 45 f0          	mov    -0x10(%rbp),%rax
    a72a:	48 89 c6             	mov    %rax,%rsi
    a72d:	48 8d 3d fc a8 00 00 	lea    0xa8fc(%rip),%rdi        # 15030 <_IO_stdin_used+0x30>
    a734:	b8 00 00 00 00       	mov    $0x0,%eax
    a739:	e8 42 e9 ff ff       	callq  9080 <printf@plt>
    a73e:	90                   	nop
    a73f:	c9                   	leaveq 
    a740:	c3                   	retq   

000000000000a741 <transparent_crc_bytes>:
    a741:	f3 0f 1e fa          	endbr64 
    a745:	55                   	push   %rbp
    a746:	48 89 e5             	mov    %rsp,%rbp
    a749:	48 83 ec 30          	sub    $0x30,%rsp
    a74d:	48 89 7d e8          	mov    %rdi,-0x18(%rbp)
    a751:	89 75 e4             	mov    %esi,-0x1c(%rbp)
    a754:	48 89 55 d8          	mov    %rdx,-0x28(%rbp)
    a758:	89 4d e0             	mov    %ecx,-0x20(%rbp)
    a75b:	c7 45 fc 00 00 00 00 	movl   $0x0,-0x4(%rbp)
    a762:	eb 1e                	jmp    a782 <transparent_crc_bytes+0x41>
    a764:	8b 45 fc             	mov    -0x4(%rbp),%eax
    a767:	48 63 d0             	movslq %eax,%rdx
    a76a:	48 8b 45 e8          	mov    -0x18(%rbp),%rax
    a76e:	48 01 d0             	add    %rdx,%rax
    a771:	0f b6 00             	movzbl (%rax),%eax
    a774:	0f b6 c0             	movzbl %al,%eax
    a777:	89 c7                	mov    %eax,%edi
    a779:	e8 90 fe ff ff       	callq  a60e <crc32_byte>
    a77e:	83 45 fc 01          	addl   $0x1,-0x4(%rbp)
    a782:	8b 45 fc             	mov    -0x4(%rbp),%eax
    a785:	3b 45 e4             	cmp    -0x1c(%rbp),%eax
    a788:	7c da                	jl     a764 <transparent_crc_bytes+0x23>
    a78a:	83 7d e0 00          	cmpl   $0x0,-0x20(%rbp)
    a78e:	74 22                	je     a7b2 <transparent_crc_bytes+0x71>
    a790:	8b 05 8a e8 00 00    	mov    0xe88a(%rip),%eax        # 19020 <crc32_context>
    a796:	f7 d0                	not    %eax
    a798:	89 c2                	mov    %eax,%edx
    a79a:	48 8b 45 d8          	mov    -0x28(%rbp),%rax
    a79e:	48 89 c6             	mov    %rax,%rsi
    a7a1:	48 8d 3d 88 a8 00 00 	lea    0xa888(%rip),%rdi        # 15030 <_IO_stdin_used+0x30>
    a7a8:	b8 00 00 00 00       	mov    $0x0,%eax
    a7ad:	e8 ce e8 ff ff       	callq  9080 <printf@plt>
    a7b2:	90                   	nop
    a7b3:	c9                   	leaveq 
    a7b4:	c3                   	retq   

000000000000a7b5 <func_1>:
    a7b5:	f3 0f 1e fa          	endbr64 
    a7b9:	55                   	push   %rbp
    a7ba:	48 89 e5             	mov    %rsp,%rbp
    a7bd:	41 56                	push   %r14
    a7bf:	41 55                	push   %r13
    a7c1:	41 54                	push   %r12
    a7c3:	53                   	push   %rbx
    a7c4:	48 81 ec 00 03 00 00 	sub    $0x300,%rsp
    a7cb:	64 48 8b 04 25 28 00 	mov    %fs:0x28,%rax
    a7d2:	00 00 
    a7d4:	48 89 45 d8          	mov    %rax,-0x28(%rbp)
    a7d8:	31 c0                	xor    %eax,%eax
    a7da:	48 8d 05 67 e9 00 00 	lea    0xe967(%rip),%rax        # 19148 <g_570+0x28>
    a7e1:	48 89 85 50 fd ff ff 	mov    %rax,-0x2b0(%rbp)
    a7e8:	48 8d 85 50 fd ff ff 	lea    -0x2b0(%rbp),%rax
    a7ef:	48 89 85 90 fd ff ff 	mov    %rax,-0x270(%rbp)
    a7f6:	48 8d 05 83 23 01 00 	lea    0x12383(%rip),%rax        # 1cb80 <g_1274>
    a7fd:	48 89 85 58 fd ff ff 	mov    %rax,-0x2a8(%rbp)
    a804:	c7 85 08 fd ff ff 06 	movl   $0x6,-0x2f8(%rbp)
    a80b:	00 00 00 
    a80e:	48 c7 85 98 fd ff ff 	movq   $0x0,-0x268(%rbp)
    a815:	00 00 00 00 
    a819:	48 8d 05 64 e9 00 00 	lea    0xe964(%rip),%rax        # 19184 <g_906>
    a820:	48 89 85 60 fd ff ff 	mov    %rax,-0x2a0(%rbp)
    a827:	c7 85 f0 fc ff ff ff 	movl   $0xffffffff,-0x310(%rbp)
    a82e:	ff ff ff 
    a831:	48 c7 85 a0 fd ff ff 	movq   $0x0,-0x260(%rbp)
    a838:	00 00 00 00 
    a83c:	48 8d 05 45 f2 00 00 	lea    0xf245(%rip),%rax        # 19a88 <g_2284>
    a843:	48 89 85 a8 fd ff ff 	mov    %rax,-0x258(%rbp)
    a84a:	48 8d 05 d7 e7 00 00 	lea    0xe7d7(%rip),%rax        # 19028 <g_33>
    a851:	48 89 85 b0 fd ff ff 	mov    %rax,-0x250(%rbp)
    a858:	48 8d 05 c9 e7 00 00 	lea    0xe7c9(%rip),%rax        # 19028 <g_33>
    a85f:	48 89 85 b8 fd ff ff 	mov    %rax,-0x248(%rbp)
    a866:	66 c7 85 e2 fc ff ff 	movw   $0xffff,-0x31e(%rbp)
    a86d:	ff ff 
    a86f:	48 8d 05 6a e8 00 00 	lea    0xe86a(%rip),%rax        # 190e0 <g_238>
    a876:	48 89 85 68 fd ff ff 	mov    %rax,-0x298(%rbp)
    a87d:	48 8d 85 68 fd ff ff 	lea    -0x298(%rbp),%rax
    a884:	48 89 85 c0 fd ff ff 	mov    %rax,-0x240(%rbp)
    a88b:	48 8d 05 06 15 01 00 	lea    0x11506(%rip),%rax        # 1bd98 <g_210+0xd8>
    a892:	48 89 85 c8 fd ff ff 	mov    %rax,-0x238(%rbp)
    a899:	66 c7 85 e4 fc ff ff 	movw   $0xffff,-0x31c(%rbp)
    a8a0:	ff ff 
    a8a2:	48 c7 85 d0 fd ff ff 	movq   $0x0,-0x230(%rbp)
    a8a9:	00 00 00 00 
    a8ad:	48 c7 85 30 ff ff ff 	movq   $0x1,-0xd0(%rbp)
    a8b4:	01 00 00 00 
    a8b8:	48 b8 88 1e 06 0d f2 	movabs $0x88855cf20d061e88,%rax
    a8bf:	5c 85 88 
    a8c2:	48 89 85 38 ff ff ff 	mov    %rax,-0xc8(%rbp)
    a8c9:	48 89 85 40 ff ff ff 	mov    %rax,-0xc0(%rbp)
    a8d0:	48 bb 69 58 73 68 7d 	movabs $0xa1727c7d68735869,%rbx
    a8d7:	7c 72 a1 
    a8da:	48 89 9d 48 ff ff ff 	mov    %rbx,-0xb8(%rbp)
    a8e1:	48 b9 5d fa 15 ba 83 	movabs $0x89cd5483ba15fa5d,%rcx
    a8e8:	54 cd 89 
    a8eb:	48 89 8d 50 ff ff ff 	mov    %rcx,-0xb0(%rbp)
    a8f2:	48 89 9d 58 ff ff ff 	mov    %rbx,-0xa8(%rbp)
    a8f9:	48 c7 85 60 ff ff ff 	movq   $0x1,-0xa0(%rbp)
    a900:	01 00 00 00 
    a904:	48 c7 85 68 ff ff ff 	movq   $0x1,-0x98(%rbp)
    a90b:	01 00 00 00 
    a90f:	48 89 85 70 ff ff ff 	mov    %rax,-0x90(%rbp)
    a916:	48 c7 85 78 ff ff ff 	movq   $0xfffffffffffffff7,-0x88(%rbp)
    a91d:	f7 ff ff ff 
    a921:	48 89 4d 80          	mov    %rcx,-0x80(%rbp)
    a925:	48 c7 45 88 f7 ff ff 	movq   $0xfffffffffffffff7,-0x78(%rbp)
    a92c:	ff 
    a92d:	48 c7 45 90 01 00 00 	movq   $0x1,-0x70(%rbp)
    a934:	00 
    a935:	48 89 45 98          	mov    %rax,-0x68(%rbp)
    a939:	48 89 45 a0          	mov    %rax,-0x60(%rbp)
    a93d:	48 89 5d a8          	mov    %rbx,-0x58(%rbp)
    a941:	48 89 4d b0          	mov    %rcx,-0x50(%rbp)
    a945:	48 89 5d b8          	mov    %rbx,-0x48(%rbp)
    a949:	48 c7 45 c0 01 00 00 	movq   $0x1,-0x40(%rbp)
    a950:	00 
    a951:	48 c7 45 c8 01 00 00 	movq   $0x1,-0x38(%rbp)
    a958:	00 
    a959:	48 89 45 d0          	mov    %rax,-0x30(%rbp)
    a95d:	66 c7 85 e6 fc ff ff 	movw   $0xe8b9,-0x31a(%rbp)
    a964:	b9 e8 
    a966:	c7 85 f4 fc ff ff 00 	movl   $0x0,-0x30c(%rbp)
    a96d:	00 00 00 
    a970:	eb 1e                	jmp    a990 <func_1+0x1db>
    a972:	8b 85 f4 fc ff ff    	mov    -0x30c(%rbp),%eax
    a978:	48 98                	cltq   
    a97a:	48 8d 15 e3 f0 00 00 	lea    0xf0e3(%rip),%rdx        # 19a64 <g_2280+0x4>
    a981:	48 89 94 c5 70 fe ff 	mov    %rdx,-0x190(%rbp,%rax,8)
    a988:	ff 
    a989:	83 85 f4 fc ff ff 01 	addl   $0x1,-0x30c(%rbp)
    a990:	83 bd f4 fc ff ff 04 	cmpl   $0x4,-0x30c(%rbp)
    a997:	7e d9                	jle    a972 <func_1+0x1bd>
    a999:	c7 85 f4 fc ff ff 00 	movl   $0x0,-0x30c(%rbp)
    a9a0:	00 00 00 
    a9a3:	eb 1e                	jmp    a9c3 <func_1+0x20e>
    a9a5:	8b 85 f4 fc ff ff    	mov    -0x30c(%rbp),%eax
    a9ab:	48 98                	cltq   
    a9ad:	48 8d 95 f0 fc ff ff 	lea    -0x310(%rbp),%rdx
    a9b4:	48 89 94 c5 a0 fe ff 	mov    %rdx,-0x160(%rbp,%rax,8)
    a9bb:	ff 
    a9bc:	83 85 f4 fc ff ff 01 	addl   $0x1,-0x30c(%rbp)
    a9c3:	83 bd f4 fc ff ff 06 	cmpl   $0x6,-0x30c(%rbp)
    a9ca:	7e d9                	jle    a9a5 <func_1+0x1f0>
    a9cc:	8b 9d 08 fd ff ff    	mov    -0x2f8(%rbp),%ebx
    a9d2:	0f b7 05 4b e6 00 00 	movzwl 0xe64b(%rip),%eax        # 19024 <g_8>
    a9d9:	48 0f bf c0          	movswq %ax,%rax
    a9dd:	48 89 c7             	mov    %rax,%rdi
    a9e0:	e8 29 09 00 00       	callq  b30e <func_9>
    a9e5:	8b 85 08 fd ff ff    	mov    -0x2f8(%rbp),%eax
    a9eb:	c1 e8 1f             	shr    $0x1f,%eax
    a9ee:	0f b6 c0             	movzbl %al,%eax
    a9f1:	0b 85 08 fd ff ff    	or     -0x2f8(%rbp),%eax
    a9f7:	89 c2                	mov    %eax,%edx
    a9f9:	48 8b 85 60 fd ff ff 	mov    -0x2a0(%rbp),%rax
    aa00:	89 10                	mov    %edx,(%rax)
    aa02:	8b 00                	mov    (%rax),%eax
    aa04:	89 85 f0 fc ff ff    	mov    %eax,-0x310(%rbp)
    aa0a:	8b 85 f0 fc ff ff    	mov    -0x310(%rbp),%eax
    aa10:	85 c0                	test   %eax,%eax
    aa12:	74 07                	je     aa1b <func_1+0x266>
    aa14:	b8 01 00 00 00       	mov    $0x1,%eax
    aa19:	eb 05                	jmp    aa20 <func_1+0x26b>
    aa1b:	b8 00 00 00 00       	mov    $0x0,%eax
    aa20:	0f b6 c0             	movzbl %al,%eax
    aa23:	8b 95 08 fd ff ff    	mov    -0x2f8(%rbp),%edx
    aa29:	89 d6                	mov    %edx,%esi
    aa2b:	89 c7                	mov    %eax,%edi
    aa2d:	e8 d3 f1 ff ff       	callq  9c05 <safe_lshift_func_uint8_t_u_s>
    aa32:	8b 85 08 fd ff ff    	mov    -0x2f8(%rbp),%eax
    aa38:	89 c6                	mov    %eax,%esi
    aa3a:	bf 01 00 00 00       	mov    $0x1,%edi
    aa3f:	e8 04 f4 ff ff       	callq  9e48 <safe_rshift_func_uint16_t_u_s>
    aa44:	48 8b 05 d5 1a 01 00 	mov    0x11ad5(%rip),%rax        # 1c520 <g_1020>
    aa4b:	66 c7 00 01 00       	movw   $0x1,(%rax)
    aa50:	0f b7 10             	movzwl (%rax),%edx
    aa53:	0f b7 05 ca e5 00 00 	movzwl 0xe5ca(%rip),%eax        # 19024 <g_8>
    aa5a:	09 d0                	or     %edx,%eax
    aa5c:	98                   	cwtl   
    aa5d:	39 85 08 fd ff ff    	cmp    %eax,-0x2f8(%rbp)
    aa63:	0f 9e c0             	setle  %al
    aa66:	0f b6 c0             	movzbl %al,%eax
    aa69:	be c2 7e 57 a0       	mov    $0xa0577ec2,%esi
    aa6e:	89 c7                	mov    %eax,%edi
    aa70:	e8 41 eb ff ff       	callq  95b6 <safe_add_func_int32_t_s_s>
    aa75:	98                   	cwtl   
    aa76:	be bf 83 ff ff       	mov    $0xffff83bf,%esi
    aa7b:	89 c7                	mov    %eax,%edi
    aa7d:	e8 94 e9 ff ff       	callq  9416 <safe_mod_func_int16_t_s_s>
    aa82:	98                   	cwtl   
    aa83:	89 de                	mov    %ebx,%esi
    aa85:	89 c7                	mov    %eax,%edi
    aa87:	e8 2c f4 ff ff       	callq  9eb8 <safe_add_func_uint32_t_u_u>
    aa8c:	48 8b 95 a8 fd ff ff 	mov    -0x258(%rbp),%rdx
    aa93:	8b 12                	mov    (%rdx),%edx
    aa95:	09 d0                	or     %edx,%eax
    aa97:	89 c2                	mov    %eax,%edx
    aa99:	48 8b 85 a8 fd ff ff 	mov    -0x258(%rbp),%rax
    aaa0:	89 10                	mov    %edx,(%rax)
    aaa2:	48 8b 05 5f 1a 01 00 	mov    0x11a5f(%rip),%rax        # 1c508 <g_608>
    aaa9:	c7 00 00 00 00 00    	movl   $0x0,(%rax)
    aaaf:	66 83 ad e2 fc ff ff 	subw   $0x1,-0x31e(%rbp)
    aab6:	01 
    aab7:	c6 05 7a e5 00 00 00 	movb   $0x0,0xe57a(%rip)        # 19038 <g_66>
    aabe:	e9 0e 08 00 00       	jmpq   b2d1 <func_1+0xb1c>
    aac3:	c7 85 f8 fc ff ff 59 	movl   $0xc9016659,-0x308(%rbp)
    aaca:	66 01 c9 
    aacd:	c7 85 0c fd ff ff ff 	movl   $0xffffffff,-0x2f4(%rbp)
    aad4:	ff ff ff 
    aad7:	c7 85 10 fd ff ff 6a 	movl   $0x29048f6a,-0x2f0(%rbp)
    aade:	8f 04 29 
    aae1:	48 8d 05 bc 25 01 00 	lea    0x125bc(%rip),%rax        # 1d0a4 <g_1608+0x4>
    aae8:	48 89 85 d8 fd ff ff 	mov    %rax,-0x228(%rbp)
    aaef:	48 b8 d3 03 ea 06 37 	movabs $0xc6be413706ea03d3,%rax
    aaf6:	41 be c6 
    aaf9:	48 89 85 e0 fd ff ff 	mov    %rax,-0x220(%rbp)
    ab00:	48 8d 05 71 25 01 00 	lea    0x12571(%rip),%rax        # 1d078 <g_158>
    ab07:	48 89 85 70 fd ff ff 	mov    %rax,-0x290(%rbp)
    ab0e:	48 8d 85 70 fd ff ff 	lea    -0x290(%rbp),%rax
    ab15:	48 89 85 e8 fd ff ff 	mov    %rax,-0x218(%rbp)
    ab1c:	c7 85 14 fd ff ff ff 	movl   $0xffffffff,-0x2ec(%rbp)
    ab23:	ff ff ff 
    ab26:	c7 85 18 fd ff ff fb 	movl   $0xfffffffb,-0x2e8(%rbp)
    ab2d:	ff ff ff 
    ab30:	c7 85 1c fd ff ff 08 	movl   $0x8,-0x2e4(%rbp)
    ab37:	00 00 00 
    ab3a:	c7 85 20 fd ff ff 85 	movl   $0x4c443385,-0x2e0(%rbp)
    ab41:	33 44 4c 
    ab44:	48 c7 05 79 e5 00 00 	movq   $0x0,0xe579(%rip)        # 190c8 <g_147>
    ab4b:	00 00 00 00 
    ab4f:	e9 c9 05 00 00       	jmpq   b11d <func_1+0x968>
    ab54:	c7 85 24 fd ff ff 01 	movl   $0xccfe4f01,-0x2dc(%rbp)
    ab5b:	4f fe cc 
    ab5e:	48 8d 85 58 fd ff ff 	lea    -0x2a8(%rbp),%rax
    ab65:	48 89 85 78 fd ff ff 	mov    %rax,-0x288(%rbp)
    ab6c:	48 8d 05 1d 20 01 00 	lea    0x1201d(%rip),%rax        # 1cb90 <g_1503>
    ab73:	48 89 85 80 fd ff ff 	mov    %rax,-0x280(%rbp)
    ab7a:	48 8d 85 80 fd ff ff 	lea    -0x280(%rbp),%rax
    ab81:	48 89 85 88 fd ff ff 	mov    %rax,-0x278(%rbp)
    ab88:	48 8d 85 88 fd ff ff 	lea    -0x278(%rbp),%rax
    ab8f:	48 89 85 f0 fd ff ff 	mov    %rax,-0x210(%rbp)
    ab96:	0f b6 05 9b e4 00 00 	movzbl 0xe49b(%rip),%eax        # 19038 <g_66>
    ab9d:	0f b6 c0             	movzbl %al,%eax
    aba0:	83 c0 01             	add    $0x1,%eax
    aba3:	48 8b 0d 1e e5 00 00 	mov    0xe51e(%rip),%rcx        # 190c8 <g_147>
    abaa:	48 63 d0             	movslq %eax,%rdx
    abad:	48 89 d0             	mov    %rdx,%rax
    abb0:	48 c1 e0 03          	shl    $0x3,%rax
    abb4:	48 29 d0             	sub    %rdx,%rax
    abb7:	48 8d 14 08          	lea    (%rax,%rcx,1),%rdx
    abbb:	48 8d 05 7e e4 00 00 	lea    0xe47e(%rip),%rax        # 19040 <g_73>
    abc2:	48 01 d0             	add    %rdx,%rax
    abc5:	0f b6 00             	movzbl (%rax),%eax
    abc8:	84 c0                	test   %al,%al
    abca:	0f 85 60 05 00 00    	jne    b130 <func_1+0x97b>
    abd0:	c7 05 a6 e9 00 00 05 	movl   $0x5,0xe9a6(%rip)        # 19580 <g_1216>
    abd7:	00 00 00 
    abda:	e9 1e 05 00 00       	jmpq   b0fd <func_1+0x948>
    abdf:	48 c7 85 f8 fd ff ff 	movq   $0x0,-0x208(%rbp)
    abe6:	00 00 00 00 
    abea:	48 8d 05 37 20 01 00 	lea    0x12037(%rip),%rax        # 1cc28 <g_2294>
    abf1:	48 89 85 00 fe ff ff 	mov    %rax,-0x200(%rbp)
    abf8:	c7 85 28 fd ff ff 00 	movl   $0x0,-0x2d8(%rbp)
    abff:	00 00 00 
    ac02:	48 8d 05 e8 e4 00 00 	lea    0xe4e8(%rip),%rax        # 190f1 <g_285+0x1>
    ac09:	48 89 85 08 fe ff ff 	mov    %rax,-0x1f8(%rbp)
    ac10:	48 b8 85 36 0d 59 f9 	movabs $0xfd0877f9590d3685,%rax
    ac17:	77 08 fd 
    ac1a:	48 89 85 10 fe ff ff 	mov    %rax,-0x1f0(%rbp)
    ac21:	c7 85 2c fd ff ff 01 	movl   $0x1,-0x2d4(%rbp)
    ac28:	00 00 00 
    ac2b:	66 c7 85 e8 fc ff ff 	movw   $0xa0cc,-0x318(%rbp)
    ac32:	cc a0 
    ac34:	48 8d 85 60 fd ff ff 	lea    -0x2a0(%rbp),%rax
    ac3b:	48 89 85 18 fe ff ff 	mov    %rax,-0x1e8(%rbp)
    ac42:	83 ad f8 fc ff ff 01 	subl   $0x1,-0x308(%rbp)
    ac49:	48 8b 85 b8 fd ff ff 	mov    -0x248(%rbp),%rax
    ac50:	8b 00                	mov    (%rax),%eax
    ac52:	0f b6 c0             	movzbl %al,%eax
    ac55:	be 00 00 00 00       	mov    $0x0,%esi
    ac5a:	89 c7                	mov    %eax,%edi
    ac5c:	e8 2c f0 ff ff       	callq  9c8d <safe_rshift_func_uint8_t_u_s>
    ac61:	48 8b 95 08 fe ff ff 	mov    -0x1f8(%rbp),%rdx
    ac68:	88 02                	mov    %al,(%rdx)
    ac6a:	48 8b 85 08 fe ff ff 	mov    -0x1f8(%rbp),%rax
    ac71:	0f b6 00             	movzbl (%rax),%eax
    ac74:	0f b6 c0             	movzbl %al,%eax
    ac77:	89 c6                	mov    %eax,%esi
    ac79:	bf ff 00 00 00       	mov    $0xff,%edi
    ac7e:	e8 10 ef ff ff       	callq  9b93 <safe_mul_func_uint8_t_u_u>
    ac83:	48 8b 15 9e 1f 01 00 	mov    0x11f9e(%rip),%rdx        # 1cc28 <g_2294>
    ac8a:	48 8b 85 00 fe ff ff 	mov    -0x200(%rbp),%rax
    ac91:	48 89 10             	mov    %rdx,(%rax)
    ac94:	48 8b 85 00 fe ff ff 	mov    -0x200(%rbp),%rax
    ac9b:	48 8b 00             	mov    (%rax),%rax
    ac9e:	48 8d 15 7b 1f 01 00 	lea    0x11f7b(%rip),%rdx        # 1cc20 <g_2295>
    aca5:	48 39 d0             	cmp    %rdx,%rax
    aca8:	0f 95 c0             	setne  %al
    acab:	44 0f b6 e0          	movzbl %al,%r12d
    acaf:	48 8b 85 a8 fd ff ff 	mov    -0x258(%rbp),%rax
    acb6:	8b 00                	mov    (%rax),%eax
    acb8:	48 63 d8             	movslq %eax,%rbx
    acbb:	48 8b 85 10 fe ff ff 	mov    -0x1f0(%rbp),%rax
    acc2:	89 c2                	mov    %eax,%edx
    acc4:	48 8b 05 45 1f 01 00 	mov    0x11f45(%rip),%rax        # 1cc10 <g_2222>
    accb:	0f b7 00             	movzwl (%rax),%eax
    acce:	0f b7 c0             	movzwl %ax,%eax
    acd1:	89 d6                	mov    %edx,%esi
    acd3:	89 c7                	mov    %eax,%edi
    acd5:	e8 6e f1 ff ff       	callq  9e48 <safe_rshift_func_uint16_t_u_s>
    acda:	48 89 de             	mov    %rbx,%rsi
    acdd:	bf 01 00 00 00       	mov    $0x1,%edi
    ace2:	e8 64 f3 ff ff       	callq  a04b <safe_sub_func_uint64_t_u_u>
    ace7:	49 39 c4             	cmp    %rax,%r12
    acea:	0f 84 e7 00 00 00    	je     add7 <func_1+0x622>
    acf0:	c7 85 40 fd ff ff f2 	movl   $0x760097f2,-0x2c0(%rbp)
    acf7:	97 00 76 
    acfa:	c7 85 44 fd ff ff fd 	movl   $0xfffffffd,-0x2bc(%rbp)
    ad01:	ff ff ff 
    ad04:	c7 85 fc fc ff ff 00 	movl   $0x0,-0x304(%rbp)
    ad0b:	00 00 00 
    ad0e:	eb 4a                	jmp    ad5a <func_1+0x5a5>
    ad10:	c7 85 00 fd ff ff 00 	movl   $0x0,-0x300(%rbp)
    ad17:	00 00 00 
    ad1a:	eb 2e                	jmp    ad4a <func_1+0x595>
    ad1c:	8b 85 00 fd ff ff    	mov    -0x300(%rbp),%eax
    ad22:	48 98                	cltq   
    ad24:	8b 95 fc fc ff ff    	mov    -0x304(%rbp),%edx
    ad2a:	48 63 d2             	movslq %edx,%rdx
    ad2d:	48 01 d2             	add    %rdx,%rdx
    ad30:	48 8d 75 e0          	lea    -0x20(%rbp),%rsi
    ad34:	48 01 f2             	add    %rsi,%rdx
    ad37:	48 01 d0             	add    %rdx,%rax
    ad3a:	48 2d 90 01 00 00    	sub    $0x190,%rax
    ad40:	c6 00 6e             	movb   $0x6e,(%rax)
    ad43:	83 85 00 fd ff ff 01 	addl   $0x1,-0x300(%rbp)
    ad4a:	83 bd 00 fd ff ff 01 	cmpl   $0x1,-0x300(%rbp)
    ad51:	7e c9                	jle    ad1c <func_1+0x567>
    ad53:	83 85 fc fc ff ff 01 	addl   $0x1,-0x304(%rbp)
    ad5a:	83 bd fc fc ff ff 01 	cmpl   $0x1,-0x304(%rbp)
    ad61:	7e ad                	jle    ad10 <func_1+0x55b>
    ad63:	c7 85 fc fc ff ff 00 	movl   $0x0,-0x304(%rbp)
    ad6a:	00 00 00 
    ad6d:	eb 21                	jmp    ad90 <func_1+0x5db>
    ad6f:	8b 85 fc fc ff ff    	mov    -0x304(%rbp),%eax
    ad75:	48 98                	cltq   
    ad77:	48 bf 8a 82 2a e6 7e 	movabs $0x7098317ee62a828a,%rdi
    ad7e:	31 98 70 
    ad81:	48 89 bc c5 e0 fe ff 	mov    %rdi,-0x120(%rbp,%rax,8)
    ad88:	ff 
    ad89:	83 85 fc fc ff ff 01 	addl   $0x1,-0x304(%rbp)
    ad90:	83 bd fc fc ff ff 06 	cmpl   $0x6,-0x304(%rbp)
    ad97:	7e d6                	jle    ad6f <func_1+0x5ba>
    ad99:	48 8b 05 a0 08 01 00 	mov    0x108a0(%rip),%rax        # 1b640 <g_144>
    ada0:	8b 10                	mov    (%rax),%edx
    ada2:	48 8b 05 97 08 01 00 	mov    0x10897(%rip),%rax        # 1b640 <g_144>
    ada9:	33 95 28 fd ff ff    	xor    -0x2d8(%rbp),%edx
    adaf:	89 10                	mov    %edx,(%rax)
    adb1:	8b 10                	mov    (%rax),%edx
    adb3:	0f b6 85 53 fe ff ff 	movzbl -0x1ad(%rbp),%eax
    adba:	09 d0                	or     %edx,%eax
    adbc:	88 85 53 fe ff ff    	mov    %al,-0x1ad(%rbp)
    adc2:	0f b6 05 c5 ec 00 00 	movzbl 0xecc5(%rip),%eax        # 19a8e <g_2318>
    adc9:	83 c0 01             	add    $0x1,%eax
    adcc:	88 05 bc ec 00 00    	mov    %al,0xecbc(%rip)        # 19a8e <g_2318>
    add2:	e9 0f 01 00 00       	jmpq   aee6 <func_1+0x731>
    add7:	c7 85 04 fd ff ff 00 	movl   $0x0,-0x2fc(%rbp)
    adde:	00 00 00 
    ade1:	eb 1a                	jmp    adfd <func_1+0x648>
    ade3:	8b 85 04 fd ff ff    	mov    -0x2fc(%rbp),%eax
    ade9:	48 98                	cltq   
    adeb:	c7 84 85 e0 fe ff ff 	movl   $0x8a69ffd4,-0x120(%rbp,%rax,4)
    adf2:	d4 ff 69 8a 
    adf6:	83 85 04 fd ff ff 01 	addl   $0x1,-0x2fc(%rbp)
    adfd:	83 bd 04 fd ff ff 06 	cmpl   $0x6,-0x2fc(%rbp)
    ae04:	7e dd                	jle    ade3 <func_1+0x62e>
    ae06:	66 c7 85 e2 fc ff ff 	movw   $0x0,-0x31e(%rbp)
    ae0d:	00 00 
    ae0f:	e9 c1 00 00 00       	jmpq   aed5 <func_1+0x720>
    ae14:	c7 85 30 fd ff ff ff 	movl   $0xffffffff,-0x2d0(%rbp)
    ae1b:	ff ff ff 
    ae1e:	c7 85 34 fd ff ff 75 	movl   $0x8c946f75,-0x2cc(%rbp)
    ae25:	6f 94 8c 
    ae28:	c7 85 38 fd ff ff 04 	movl   $0x4,-0x2c8(%rbp)
    ae2f:	00 00 00 
    ae32:	c7 85 3c fd ff ff 39 	movl   $0xe3233a39,-0x2c4(%rbp)
    ae39:	3a 23 e3 
    ae3c:	48 8d 85 78 fd ff ff 	lea    -0x288(%rbp),%rax
    ae43:	48 89 85 20 fe ff ff 	mov    %rax,-0x1e0(%rbp)
    ae4a:	8b 85 e8 fe ff ff    	mov    -0x118(%rbp),%eax
    ae50:	83 c0 01             	add    $0x1,%eax
    ae53:	89 85 e8 fe ff ff    	mov    %eax,-0x118(%rbp)
    ae59:	48 8b 05 68 e2 00 00 	mov    0xe268(%rip),%rax        # 190c8 <g_147>
    ae60:	48 83 c0 03          	add    $0x3,%rax
    ae64:	48 8d 14 85 00 00 00 	lea    0x0(,%rax,4),%rdx
    ae6b:	00 
    ae6c:	48 8d 05 ed eb 00 00 	lea    0xebed(%rip),%rax        # 19a60 <g_2280>
    ae73:	8b 04 02             	mov    (%rdx,%rax,1),%eax
    ae76:	89 c2                	mov    %eax,%edx
    ae78:	48 8b 85 a8 fd ff ff 	mov    -0x258(%rbp),%rax
    ae7f:	89 10                	mov    %edx,(%rax)
    ae81:	0f b7 85 e2 fc ff ff 	movzwl -0x31e(%rbp),%eax
    ae88:	83 c0 01             	add    $0x1,%eax
    ae8b:	48 98                	cltq   
    ae8d:	48 8d 14 85 00 00 00 	lea    0x0(,%rax,4),%rdx
    ae94:	00 
    ae95:	48 8d 05 c4 eb 00 00 	lea    0xebc4(%rip),%rax        # 19a60 <g_2280>
    ae9c:	8b 04 02             	mov    (%rdx,%rax,1),%eax
    ae9f:	85 c0                	test   %eax,%eax
    aea1:	75 42                	jne    aee5 <func_1+0x730>
    aea3:	48 8b 95 78 fd ff ff 	mov    -0x288(%rbp),%rdx
    aeaa:	48 8b 85 20 fe ff ff 	mov    -0x1e0(%rbp),%rax
    aeb1:	48 89 10             	mov    %rdx,(%rax)
    aeb4:	48 8b 85 20 fe ff ff 	mov    -0x1e0(%rbp),%rax
    aebb:	48 8b 00             	mov    (%rax),%rax
    aebe:	48 85 c0             	test   %rax,%rax
    aec1:	0f 95 c0             	setne  %al
    aec4:	0f b6 c0             	movzbl %al,%eax
    aec7:	89 85 24 fd ff ff    	mov    %eax,-0x2dc(%rbp)
    aecd:	66 83 85 e2 fc ff ff 	addw   $0x1,-0x31e(%rbp)
    aed4:	01 
    aed5:	66 83 bd e2 fc ff ff 	cmpw   $0x6,-0x31e(%rbp)
    aedc:	06 
    aedd:	0f 86 31 ff ff ff    	jbe    ae14 <func_1+0x65f>
    aee3:	eb 01                	jmp    aee6 <func_1+0x731>
    aee5:	90                   	nop
    aee6:	48 8b 05 5b 07 01 00 	mov    0x1075b(%rip),%rax        # 1b648 <g_143>
    aeed:	48 8b 00             	mov    (%rax),%rax
    aef0:	8b 08                	mov    (%rax),%ecx
    aef2:	48 8b 05 17 16 01 00 	mov    0x11617(%rip),%rax        # 1c510 <g_632>
    aef9:	0f b6 00             	movzbl (%rax),%eax
    aefc:	0f be c0             	movsbl %al,%eax
    aeff:	39 85 2c fd ff ff    	cmp    %eax,-0x2d4(%rbp)
    af05:	0f 95 c0             	setne  %al
    af08:	0f b6 d0             	movzbl %al,%edx
    af0b:	48 8b 05 36 07 01 00 	mov    0x10736(%rip),%rax        # 1b648 <g_143>
    af12:	48 8b 00             	mov    (%rax),%rax
    af15:	09 ca                	or     %ecx,%edx
    af17:	89 10                	mov    %edx,(%rax)
    af19:	48 8d 05 20 11 01 00 	lea    0x11120(%rip),%rax        # 1c040 <g_254+0xa0>
    af20:	48 39 85 f0 fd ff ff 	cmp    %rax,-0x210(%rbp)
    af27:	48 8b 05 72 0d 01 00 	mov    0x10d72(%rip),%rax        # 1bca0 <g_194>
    af2e:	44 8b 20             	mov    (%rax),%r12d
    af31:	48 8b 05 f0 1c 01 00 	mov    0x11cf0(%rip),%rax        # 1cc28 <g_2294>
    af38:	48 8b 00             	mov    (%rax),%rax
    af3b:	48 8b 00             	mov    (%rax),%rax
    af3e:	0f b7 00             	movzwl (%rax),%eax
    af41:	0f b7 d8             	movzwl %ax,%ebx
    af44:	48 8b 05 55 0d 01 00 	mov    0x10d55(%rip),%rax        # 1bca0 <g_194>
    af4b:	8b 00                	mov    (%rax),%eax
    af4d:	41 89 c6             	mov    %eax,%r14d
    af50:	48 8b 05 91 1c 01 00 	mov    0x11c91(%rip),%rax        # 1cbe8 <g_1516>
    af57:	48 8b 00             	mov    (%rax),%rax
    af5a:	48 8b 00             	mov    (%rax),%rax
    af5d:	0f b7 00             	movzwl (%rax),%eax
    af60:	44 0f bf e8          	movswl %ax,%r13d
    af64:	48 8b 85 10 fe ff ff 	mov    -0x1f0(%rbp),%rax
    af6b:	0f be f8             	movsbl %al,%edi
    af6e:	48 8b 85 88 fd ff ff 	mov    -0x278(%rbp),%rax
    af75:	48 8b 00             	mov    (%rax),%rax
    af78:	48 8b 00             	mov    (%rax),%rax
    af7b:	48 8b 10             	mov    (%rax),%rdx
    af7e:	48 8b 05 73 1c 01 00 	mov    0x11c73(%rip),%rax        # 1cbf8 <g_1542>
    af85:	48 8b 00             	mov    (%rax),%rax
    af88:	48 8b 00             	mov    (%rax),%rax
    af8b:	48 8b 00             	mov    (%rax),%rax
    af8e:	48 8b 00             	mov    (%rax),%rax
    af91:	48 39 c2             	cmp    %rax,%rdx
    af94:	0f 95 c0             	setne  %al
    af97:	0f b6 d0             	movzbl %al,%edx
    af9a:	0f bf 85 e8 fc ff ff 	movswl -0x318(%rbp),%eax
    afa1:	39 c2                	cmp    %eax,%edx
    afa3:	0f 9c c0             	setl   %al
    afa6:	41 89 c0             	mov    %eax,%r8d
    afa9:	48 8b 05 30 1c 01 00 	mov    0x11c30(%rip),%rax        # 1cbe0 <g_1517>
    afb0:	48 8b 00             	mov    (%rax),%rax
    afb3:	0f b7 00             	movzwl (%rax),%eax
    afb6:	89 c1                	mov    %eax,%ecx
    afb8:	0f b6 05 79 e0 00 00 	movzbl 0xe079(%rip),%eax        # 19038 <g_66>
    afbf:	0f b6 c0             	movzbl %al,%eax
    afc2:	8d 70 01             	lea    0x1(%rax),%esi
    afc5:	48 8b 15 fc e0 00 00 	mov    0xe0fc(%rip),%rdx        # 190c8 <g_147>
    afcc:	41 09 c8             	or     %ecx,%r8d
    afcf:	48 63 ce             	movslq %esi,%rcx
    afd2:	48 89 c8             	mov    %rcx,%rax
    afd5:	48 c1 e0 03          	shl    $0x3,%rax
    afd9:	48 29 c8             	sub    %rcx,%rax
    afdc:	48 8d 0c 10          	lea    (%rax,%rdx,1),%rcx
    afe0:	48 8d 05 59 e0 00 00 	lea    0xe059(%rip),%rax        # 19040 <g_73>
    afe7:	48 01 c8             	add    %rcx,%rax
    afea:	44 88 00             	mov    %r8b,(%rax)
    afed:	48 63 ce             	movslq %esi,%rcx
    aff0:	48 89 c8             	mov    %rcx,%rax
    aff3:	48 c1 e0 03          	shl    $0x3,%rax
    aff7:	48 29 c8             	sub    %rcx,%rax
    affa:	48 01 c2             	add    %rax,%rdx
    affd:	48 8d 05 3c e0 00 00 	lea    0xe03c(%rip),%rax        # 19040 <g_73>
    b004:	48 01 d0             	add    %rdx,%rax
    b007:	0f b6 00             	movzbl (%rax),%eax
    b00a:	0f be c0             	movsbl %al,%eax
    b00d:	89 fe                	mov    %edi,%esi
    b00f:	89 c7                	mov    %eax,%edi
    b011:	e8 54 e2 ff ff       	callq  926a <safe_div_func_int8_t_s_s>
    b016:	66 0f be d0          	movsbw %al,%dx
    b01a:	48 8b 05 af 0d 01 00 	mov    0x10daf(%rip),%rax        # 1bdd0 <g_223>
    b021:	48 8b 00             	mov    (%rax),%rax
    b024:	48 8b 00             	mov    (%rax),%rax
    b027:	48 8b 00             	mov    (%rax),%rax
    b02a:	48 8b 00             	mov    (%rax),%rax
    b02d:	09 c2                	or     %eax,%edx
    b02f:	48 8b 05 f2 1b 01 00 	mov    0x11bf2(%rip),%rax        # 1cc28 <g_2294>
    b036:	48 8b 00             	mov    (%rax),%rax
    b039:	48 8b 00             	mov    (%rax),%rax
    b03c:	0f b7 00             	movzwl (%rax),%eax
    b03f:	09 d0                	or     %edx,%eax
    b041:	98                   	cwtl   
    b042:	44 89 ee             	mov    %r13d,%esi
    b045:	89 c7                	mov    %eax,%edi
    b047:	e8 67 e3 ff ff       	callq  93b3 <safe_add_func_int16_t_s_s>
    b04c:	0f bf d0             	movswl %ax,%edx
    b04f:	48 8b 05 ca 14 01 00 	mov    0x114ca(%rip),%rax        # 1c520 <g_1020>
    b056:	0f b7 00             	movzwl (%rax),%eax
    b059:	98                   	cwtl   
    b05a:	89 d6                	mov    %edx,%esi
    b05c:	89 c7                	mov    %eax,%edi
    b05e:	e8 92 e3 ff ff       	callq  93f5 <safe_mul_func_int16_t_s_s>
    b063:	98                   	cwtl   
    b064:	be f8 f6 ff ff       	mov    $0xfffff6f8,%esi
    b069:	89 c7                	mov    %eax,%edi
    b06b:	e8 63 e3 ff ff       	callq  93d3 <safe_sub_func_int16_t_s_s>
    b070:	44 89 f6             	mov    %r14d,%esi
    b073:	bf 00 00 00 00       	mov    $0x0,%edi
    b078:	e8 4f e6 ff ff       	callq  96cc <safe_mod_func_int32_t_s_s>
    b07d:	48 98                	cltq   
    b07f:	44 89 e2             	mov    %r12d,%edx
    b082:	89 de                	mov    %ebx,%esi
    b084:	48 89 c7             	mov    %rax,%rdi
    b087:	e8 a7 46 00 00       	callq  f733 <func_22>
    b08c:	48 8b 95 18 fe ff ff 	mov    -0x1e8(%rbp),%rdx
    b093:	48 89 02             	mov    %rax,(%rdx)
    b096:	48 8b 85 18 fe ff ff 	mov    -0x1e8(%rbp),%rax
    b09d:	48 8b 00             	mov    (%rax),%rax
    b0a0:	48 39 85 d8 fd ff ff 	cmp    %rax,-0x228(%rbp)
    b0a7:	48 8b 05 62 14 01 00 	mov    0x11462(%rip),%rax        # 1c510 <g_632>
    b0ae:	0f b6 00             	movzbl (%rax),%eax
    b0b1:	0f be d0             	movsbl %al,%edx
    b0b4:	8b 85 f8 fc ff ff    	mov    -0x308(%rbp),%eax
    b0ba:	0f be c0             	movsbl %al,%eax
    b0bd:	89 d6                	mov    %edx,%esi
    b0bf:	89 c7                	mov    %eax,%edi
    b0c1:	e8 4c e1 ff ff       	callq  9212 <safe_mul_func_int8_t_s_s>
    b0c6:	0f be d0             	movsbl %al,%edx
    b0c9:	0f bf 85 e8 fc ff ff 	movswl -0x318(%rbp),%eax
    b0d0:	89 d6                	mov    %edx,%esi
    b0d2:	89 c7                	mov    %eax,%edi
    b0d4:	e8 1c e3 ff ff       	callq  93f5 <safe_mul_func_int16_t_s_s>
    b0d9:	48 8b 95 b8 fd ff ff 	mov    -0x248(%rbp),%rdx
    b0e0:	8b 12                	mov    (%rdx),%edx
    b0e2:	98                   	cwtl   
    b0e3:	09 c2                	or     %eax,%edx
    b0e5:	48 8b 85 b8 fd ff ff 	mov    -0x248(%rbp),%rax
    b0ec:	89 10                	mov    %edx,(%rax)
    b0ee:	8b 05 8c e4 00 00    	mov    0xe48c(%rip),%eax        # 19580 <g_1216>
    b0f4:	83 e8 01             	sub    $0x1,%eax
    b0f7:	89 05 83 e4 00 00    	mov    %eax,0xe483(%rip)        # 19580 <g_1216>
    b0fd:	8b 05 7d e4 00 00    	mov    0xe47d(%rip),%eax        # 19580 <g_1216>
    b103:	85 c0                	test   %eax,%eax
    b105:	0f 89 d4 fa ff ff    	jns    abdf <func_1+0x42a>
    b10b:	48 8b 05 b6 df 00 00 	mov    0xdfb6(%rip),%rax        # 190c8 <g_147>
    b112:	48 83 c0 01          	add    $0x1,%rax
    b116:	48 89 05 ab df 00 00 	mov    %rax,0xdfab(%rip)        # 190c8 <g_147>
    b11d:	48 8b 05 a4 df 00 00 	mov    0xdfa4(%rip),%rax        # 190c8 <g_147>
    b124:	48 83 f8 06          	cmp    $0x6,%rax
    b128:	0f 8e 26 fa ff ff    	jle    ab54 <func_1+0x39f>
    b12e:	eb 01                	jmp    b131 <func_1+0x97c>
    b130:	90                   	nop
    b131:	c7 85 f8 fc ff ff 00 	movl   $0x0,-0x308(%rbp)
    b138:	00 00 00 
    b13b:	e9 71 01 00 00       	jmpq   b2b1 <func_1+0xafc>
    b140:	66 c7 85 ea fc ff ff 	movw   $0xc8d3,-0x316(%rbp)
    b147:	d3 c8 
    b149:	48 8d 05 38 1f 01 00 	lea    0x11f38(%rip),%rax        # 1d088 <g_638>
    b150:	48 89 85 28 fe ff ff 	mov    %rax,-0x1d8(%rbp)
    b157:	48 8d 05 26 df 00 00 	lea    0xdf26(%rip),%rax        # 19084 <g_75+0x4>
    b15e:	48 89 85 e0 fe ff ff 	mov    %rax,-0x120(%rbp)
    b165:	48 8d 05 1a df 00 00 	lea    0xdf1a(%rip),%rax        # 19086 <g_75+0x6>
    b16c:	48 89 85 e8 fe ff ff 	mov    %rax,-0x118(%rbp)
    b173:	48 8d 05 0a df 00 00 	lea    0xdf0a(%rip),%rax        # 19084 <g_75+0x4>
    b17a:	48 89 85 f0 fe ff ff 	mov    %rax,-0x110(%rbp)
    b181:	48 8d 05 fe de 00 00 	lea    0xdefe(%rip),%rax        # 19086 <g_75+0x6>
    b188:	48 89 85 f8 fe ff ff 	mov    %rax,-0x108(%rbp)
    b18f:	48 8d 05 ee de 00 00 	lea    0xdeee(%rip),%rax        # 19084 <g_75+0x4>
    b196:	48 89 85 00 ff ff ff 	mov    %rax,-0x100(%rbp)
    b19d:	48 8d 05 e2 de 00 00 	lea    0xdee2(%rip),%rax        # 19086 <g_75+0x6>
    b1a4:	48 89 85 08 ff ff ff 	mov    %rax,-0xf8(%rbp)
    b1ab:	48 8d 05 d2 de 00 00 	lea    0xded2(%rip),%rax        # 19084 <g_75+0x4>
    b1b2:	48 89 85 10 ff ff ff 	mov    %rax,-0xf0(%rbp)
    b1b9:	48 8d 05 c6 de 00 00 	lea    0xdec6(%rip),%rax        # 19086 <g_75+0x6>
    b1c0:	48 89 85 18 ff ff ff 	mov    %rax,-0xe8(%rbp)
    b1c7:	48 8d 05 b6 de 00 00 	lea    0xdeb6(%rip),%rax        # 19084 <g_75+0x4>
    b1ce:	48 89 85 20 ff ff ff 	mov    %rax,-0xe0(%rbp)
    b1d5:	66 c7 85 ec fc ff ff 	movw   $0xee47,-0x314(%rbp)
    b1dc:	47 ee 
    b1de:	c7 85 50 fe ff ff bf 	movl   $0x3dff51bf,-0x1b0(%rbp)
    b1e5:	51 ff 3d 
    b1e8:	c7 85 54 fe ff ff bf 	movl   $0x3dff51bf,-0x1ac(%rbp)
    b1ef:	51 ff 3d 
    b1f2:	c7 85 58 fe ff ff 00 	movl   $0x0,-0x1a8(%rbp)
    b1f9:	00 00 00 
    b1fc:	c7 85 5c fe ff ff bf 	movl   $0x3dff51bf,-0x1a4(%rbp)
    b203:	51 ff 3d 
    b206:	c7 85 60 fe ff ff bf 	movl   $0x3dff51bf,-0x1a0(%rbp)
    b20d:	51 ff 3d 
    b210:	c7 85 64 fe ff ff 00 	movl   $0x0,-0x19c(%rbp)
    b217:	00 00 00 
    b21a:	c7 85 48 fd ff ff bf 	movl   $0x9c864bf,-0x2b8(%rbp)
    b221:	64 c8 09 
    b224:	c7 85 4c fd ff ff bb 	movl   $0x83df6cbb,-0x2b4(%rbp)
    b22b:	6c df 83 
    b22e:	83 bd f8 fc ff ff 00 	cmpl   $0x0,-0x308(%rbp)
    b235:	0f 85 85 00 00 00    	jne    b2c0 <func_1+0xb0b>
    b23b:	c6 05 2a df 00 00 00 	movb   $0x0,0xdf2a(%rip)        # 1916c <g_676>
    b242:	eb 5b                	jmp    b29f <func_1+0xaea>
    b244:	48 8d 05 ab de 00 00 	lea    0xdeab(%rip),%rax        # 190f6 <g_285+0x6>
    b24b:	48 89 85 30 fe ff ff 	mov    %rax,-0x1d0(%rbp)
    b252:	c6 85 e1 fc ff ff 77 	movb   $0x77,-0x31f(%rbp)
    b259:	48 8d 05 30 0b 01 00 	lea    0x10b30(%rip),%rax        # 1bd90 <g_210+0xd0>
    b260:	48 89 85 38 fe ff ff 	mov    %rax,-0x1c8(%rbp)
    b267:	48 8d 05 d2 e1 00 00 	lea    0xe1d2(%rip),%rax        # 19440 <g_933+0x2a0>
    b26e:	48 89 85 40 fe ff ff 	mov    %rax,-0x1c0(%rbp)
    b275:	48 b8 32 87 3a d5 7d 	movabs $0x9d96597dd53a8732,%rax
    b27c:	59 96 9d 
    b27f:	48 89 85 48 fe ff ff 	mov    %rax,-0x1b8(%rbp)
    b286:	66 c7 85 ee fc ff ff 	movw   $0xfffa,-0x312(%rbp)
    b28d:	fa ff 
    b28f:	0f b6 05 d6 de 00 00 	movzbl 0xded6(%rip),%eax        # 1916c <g_676>
    b296:	83 e8 01             	sub    $0x1,%eax
    b299:	88 05 cd de 00 00    	mov    %al,0xdecd(%rip)        # 1916c <g_676>
    b29f:	0f b6 05 c6 de 00 00 	movzbl 0xdec6(%rip),%eax        # 1916c <g_676>
    b2a6:	84 c0                	test   %al,%al
    b2a8:	79 9a                	jns    b244 <func_1+0xa8f>
    b2aa:	83 85 f8 fc ff ff 01 	addl   $0x1,-0x308(%rbp)
    b2b1:	83 bd f8 fc ff ff 00 	cmpl   $0x0,-0x308(%rbp)
    b2b8:	0f 84 82 fe ff ff    	je     b140 <func_1+0x98b>
    b2be:	eb 01                	jmp    b2c1 <func_1+0xb0c>
    b2c0:	90                   	nop
    b2c1:	0f b6 05 70 dd 00 00 	movzbl 0xdd70(%rip),%eax        # 19038 <g_66>
    b2c8:	83 c0 01             	add    $0x1,%eax
    b2cb:	88 05 67 dd 00 00    	mov    %al,0xdd67(%rip)        # 19038 <g_66>
    b2d1:	0f b6 05 60 dd 00 00 	movzbl 0xdd60(%rip),%eax        # 19038 <g_66>
    b2d8:	3c 06                	cmp    $0x6,%al
    b2da:	0f 86 e3 f7 ff ff    	jbe    aac3 <func_1+0x30e>
    b2e0:	0f b7 05 ad e7 00 00 	movzwl 0xe7ad(%rip),%eax        # 19a94 <g_2473>
    b2e7:	0f b7 c0             	movzwl %ax,%eax
    b2ea:	48 8b 75 d8          	mov    -0x28(%rbp),%rsi
    b2ee:	64 48 33 34 25 28 00 	xor    %fs:0x28,%rsi
    b2f5:	00 00 
    b2f7:	74 05                	je     b2fe <func_1+0xb49>
    b2f9:	e8 72 dd ff ff       	callq  9070 <__stack_chk_fail@plt>
    b2fe:	48 81 c4 00 03 00 00 	add    $0x300,%rsp
    b305:	5b                   	pop    %rbx
    b306:	41 5c                	pop    %r12
    b308:	41 5d                	pop    %r13
    b30a:	41 5e                	pop    %r14
    b30c:	5d                   	pop    %rbp
    b30d:	c3                   	retq   

000000000000b30e <func_9>:
    b30e:	f3 0f 1e fa          	endbr64 
    b312:	55                   	push   %rbp
    b313:	48 89 e5             	mov    %rsp,%rbp
    b316:	41 57                	push   %r15
    b318:	41 56                	push   %r14
    b31a:	41 55                	push   %r13
    b31c:	41 54                	push   %r12
    b31e:	53                   	push   %rbx
    b31f:	48 81 ec 00 10 00 00 	sub    $0x1000,%rsp
    b326:	48 83 0c 24 00       	orq    $0x0,(%rsp)
    b32b:	48 81 ec 48 0a 00 00 	sub    $0xa48,%rsp
    b332:	48 89 bd a8 e5 ff ff 	mov    %rdi,-0x1a58(%rbp)
    b339:	64 48 8b 04 25 28 00 	mov    %fs:0x28,%rax
    b340:	00 00 
    b342:	48 89 45 c8          	mov    %rax,-0x38(%rbp)
    b346:	31 c0                	xor    %eax,%eax
    b348:	48 8d 05 d9 dc 00 00 	lea    0xdcd9(%rip),%rax        # 19028 <g_33>
    b34f:	48 89 85 18 e6 ff ff 	mov    %rax,-0x19e8(%rbp)
    b356:	48 8d 05 0b 1d 01 00 	lea    0x11d0b(%rip),%rax        # 1d068 <g_125>
    b35d:	48 89 85 20 e6 ff ff 	mov    %rax,-0x19e0(%rbp)
    b364:	48 c7 85 a0 e6 ff ff 	movq   $0x0,-0x1960(%rbp)
    b36b:	00 00 00 00 
    b36f:	48 c7 85 a8 e6 ff ff 	movq   $0x0,-0x1958(%rbp)
    b376:	00 00 00 00 
    b37a:	48 c7 85 b0 e6 ff ff 	movq   $0x0,-0x1950(%rbp)
    b381:	00 00 00 00 
    b385:	48 c7 85 b8 e6 ff ff 	movq   $0x0,-0x1948(%rbp)
    b38c:	00 00 00 00 
    b390:	c7 85 c4 e5 ff ff fd 	movl   $0xfffffffd,-0x1a3c(%rbp)
    b397:	ff ff ff 
    b39a:	48 8d 05 17 06 01 00 	lea    0x10617(%rip),%rax        # 1b9b8 <g_157+0x358>
    b3a1:	48 89 85 28 e6 ff ff 	mov    %rax,-0x19d8(%rbp)
    b3a8:	c7 85 c8 e5 ff ff 00 	movl   $0x0,-0x1a38(%rbp)
    b3af:	00 00 00 
    b3b2:	48 8d 05 67 11 01 00 	lea    0x11167(%rip),%rax        # 1c520 <g_1020>
    b3b9:	48 89 85 e8 e5 ff ff 	mov    %rax,-0x1a18(%rbp)
    b3c0:	48 8d 85 e0 e6 ff ff 	lea    -0x1920(%rbp),%rax
    b3c7:	48 83 c0 20          	add    $0x20,%rax
    b3cb:	48 89 85 30 e6 ff ff 	mov    %rax,-0x19d0(%rbp)
    b3d2:	c7 85 94 e6 ff ff d9 	movl   $0x7c409ad9,-0x196c(%rbp)
    b3d9:	9a 40 7c 
    b3dc:	c7 85 cc e5 ff ff 00 	movl   $0x0,-0x1a34(%rbp)
    b3e3:	00 00 00 
    b3e6:	c7 85 d0 e5 ff ff a3 	movl   $0xb2c78ca3,-0x1a30(%rbp)
    b3ed:	8c c7 b2 
    b3f0:	66 c7 85 ba e5 ff ff 	movw   $0x0,-0x1a46(%rbp)
    b3f7:	00 00 
    b3f9:	c7 85 d4 e5 ff ff 00 	movl   $0x90d8a900,-0x1a2c(%rbp)
    b400:	a9 d8 90 
    b403:	48 8d 85 20 ec ff ff 	lea    -0x13e0(%rbp),%rax
    b40a:	48 8d 15 6f 9c 00 00 	lea    0x9c6f(%rip),%rdx        # 15080 <g_2258+0x18>
    b411:	b9 7e 00 00 00       	mov    $0x7e,%ecx
    b416:	48 89 c7             	mov    %rax,%rdi
    b419:	48 89 d6             	mov    %rdx,%rsi
    b41c:	f3 48 a5             	rep movsq %ds:(%rsi),%es:(%rdi)
    b41f:	c7 85 d8 e5 ff ff 51 	movl   $0x9f1eeb51,-0x1a28(%rbp)
    b426:	eb 1e 9f 
    b429:	48 b8 17 65 b8 95 9b 	movabs $0x9033ae9b95b86517,%rax
    b430:	ae 33 90 
    b433:	48 89 85 40 e7 ff ff 	mov    %rax,-0x18c0(%rbp)
    b43a:	48 c7 85 48 e7 ff ff 	movq   $0x7,-0x18b8(%rbp)
    b441:	07 00 00 00 
    b445:	48 c7 85 50 e7 ff ff 	movq   $0x7,-0x18b0(%rbp)
    b44c:	07 00 00 00 
    b450:	48 89 85 58 e7 ff ff 	mov    %rax,-0x18a8(%rbp)
    b457:	48 c7 85 60 e7 ff ff 	movq   $0x7,-0x18a0(%rbp)
    b45e:	07 00 00 00 
    b462:	48 c7 85 68 e7 ff ff 	movq   $0x7,-0x1898(%rbp)
    b469:	07 00 00 00 
    b46d:	48 89 85 70 e7 ff ff 	mov    %rax,-0x1890(%rbp)
    b474:	48 c7 85 78 e7 ff ff 	movq   $0x7,-0x1888(%rbp)
    b47b:	07 00 00 00 
    b47f:	48 8d 85 c0 f7 ff ff 	lea    -0x840(%rbp),%rax
    b486:	48 8d 15 13 e6 00 00 	lea    0xe613(%rip),%rdx        # 19aa0 <g_2473+0xc>
    b48d:	b9 00 01 00 00       	mov    $0x100,%ecx
    b492:	48 89 c7             	mov    %rax,%rdi
    b495:	48 89 d6             	mov    %rdx,%rsi
    b498:	f3 48 a5             	rep movsq %ds:(%rsi),%es:(%rdi)
    b49b:	48 8d 05 0e dc 00 00 	lea    0xdc0e(%rip),%rax        # 190b0 <g_77>
    b4a2:	48 89 85 38 e6 ff ff 	mov    %rax,-0x19c8(%rbp)
    b4a9:	48 8d 05 d8 0c 01 00 	lea    0x10cd8(%rip),%rax        # 1c188 <g_370>
    b4b0:	48 89 85 f0 e5 ff ff 	mov    %rax,-0x1a10(%rbp)
    b4b7:	48 8d 85 f0 e5 ff ff 	lea    -0x1a10(%rbp),%rax
    b4be:	48 89 85 40 e6 ff ff 	mov    %rax,-0x19c0(%rbp)
    b4c5:	48 8d 05 bc 1b 01 00 	lea    0x11bbc(%rip),%rax        # 1d088 <g_638>
    b4cc:	48 89 85 48 e6 ff ff 	mov    %rax,-0x19b8(%rbp)
    b4d3:	c7 85 dc e5 ff ff 01 	movl   $0x1,-0x1a24(%rbp)
    b4da:	00 00 00 
    b4dd:	48 8d 85 98 e6 ff ff 	lea    -0x1968(%rbp),%rax
    b4e4:	48 89 85 f8 e5 ff ff 	mov    %rax,-0x1a08(%rbp)
    b4eb:	48 8d 85 f8 e5 ff ff 	lea    -0x1a08(%rbp),%rax
    b4f2:	48 89 85 50 e6 ff ff 	mov    %rax,-0x19b0(%rbp)
    b4f9:	c6 85 b8 e5 ff ff 0a 	movb   $0xa,-0x1a48(%rbp)
    b500:	c7 85 bc e5 ff ff 00 	movl   $0x0,-0x1a44(%rbp)
    b507:	00 00 00 
    b50a:	eb 1e                	jmp    b52a <func_9+0x21c>
    b50c:	8b 85 bc e5 ff ff    	mov    -0x1a44(%rbp),%eax
    b512:	48 98                	cltq   
    b514:	48 8d 95 e8 e5 ff ff 	lea    -0x1a18(%rbp),%rdx
    b51b:	48 89 94 c5 e0 e6 ff 	mov    %rdx,-0x1920(%rbp,%rax,8)
    b522:	ff 
    b523:	83 85 bc e5 ff ff 01 	addl   $0x1,-0x1a44(%rbp)
    b52a:	83 bd bc e5 ff ff 05 	cmpl   $0x5,-0x1a44(%rbp)
    b531:	7e d9                	jle    b50c <func_9+0x1fe>
    b533:	c7 85 bc e5 ff ff 00 	movl   $0x0,-0x1a44(%rbp)
    b53a:	00 00 00 
    b53d:	eb 1a                	jmp    b559 <func_9+0x24b>
    b53f:	8b 85 bc e5 ff ff    	mov    -0x1a44(%rbp),%eax
    b545:	48 98                	cltq   
    b547:	c7 84 85 c0 e6 ff ff 	movl   $0x8421705,-0x1940(%rbp,%rax,4)
    b54e:	05 17 42 08 
    b552:	83 85 bc e5 ff ff 01 	addl   $0x1,-0x1a44(%rbp)
    b559:	83 bd bc e5 ff ff 07 	cmpl   $0x7,-0x1a44(%rbp)
    b560:	7e dd                	jle    b53f <func_9+0x231>
    b562:	c7 85 bc e5 ff ff 00 	movl   $0x0,-0x1a44(%rbp)
    b569:	00 00 00 
    b56c:	eb 1e                	jmp    b58c <func_9+0x27e>
    b56e:	8b 85 bc e5 ff ff    	mov    -0x1a44(%rbp),%eax
    b574:	48 98                	cltq   
    b576:	48 8d 15 eb 9a 00 00 	lea    0x9aeb(%rip),%rdx        # 15068 <g_2258>
    b57d:	48 89 94 c5 98 e6 ff 	mov    %rdx,-0x1968(%rbp,%rax,8)
    b584:	ff 
    b585:	83 85 bc e5 ff ff 01 	addl   $0x1,-0x1a44(%rbp)
    b58c:	83 bd bc e5 ff ff 00 	cmpl   $0x0,-0x1a44(%rbp)
    b593:	7e d9                	jle    b56e <func_9+0x260>
    b595:	4c 8b ad a8 e6 ff ff 	mov    -0x1958(%rbp),%r13
    b59c:	48 8b 85 a8 e5 ff ff 	mov    -0x1a58(%rbp),%rax
    b5a3:	44 0f be e0          	movsbl %al,%r12d
    b5a7:	48 8b 85 a8 e5 ff ff 	mov    -0x1a58(%rbp),%rax
    b5ae:	0f b6 d8             	movzbl %al,%ebx
    b5b1:	b8 70 06 87 60       	mov    $0x60870670,%eax
    b5b6:	0f be c0             	movsbl %al,%eax
    b5b9:	89 85 a4 e5 ff ff    	mov    %eax,-0x1a5c(%rbp)
    b5bf:	48 8b 85 a8 e5 ff ff 	mov    -0x1a58(%rbp),%rax
    b5c6:	44 0f bf f8          	movswl %ax,%r15d
    b5ca:	48 8b 85 a8 e5 ff ff 	mov    -0x1a58(%rbp),%rax
    b5d1:	44 0f bf f0          	movswl %ax,%r14d
    b5d5:	48 8b 05 c4 06 01 00 	mov    0x106c4(%rip),%rax        # 1bca0 <g_194>
    b5dc:	8b 08                	mov    (%rax),%ecx
    b5de:	89 8d a0 e5 ff ff    	mov    %ecx,-0x1a60(%rbp)
    b5e4:	48 8b 85 a8 e5 ff ff 	mov    -0x1a58(%rbp),%rax
    b5eb:	0f b7 f0             	movzwl %ax,%esi
    b5ee:	89 b5 9c e5 ff ff    	mov    %esi,-0x1a64(%rbp)
    b5f4:	48 8b 85 a8 e5 ff ff 	mov    -0x1a58(%rbp),%rax
    b5fb:	89 85 90 e5 ff ff    	mov    %eax,-0x1a70(%rbp)
    b601:	8b 05 21 da 00 00    	mov    0xda21(%rip),%eax        # 19028 <g_33>
    b607:	48 63 d0             	movslq %eax,%rdx
    b60a:	48 8b 8d 18 e6 ff ff 	mov    -0x19e8(%rbp),%rcx
    b611:	48 8b 85 18 e6 ff ff 	mov    -0x19e8(%rbp),%rax
    b618:	48 89 ce             	mov    %rcx,%rsi
    b61b:	48 89 c7             	mov    %rax,%rdi
    b61e:	e8 85 7d 00 00       	callq  133a8 <func_53>
    b623:	0f b6 c0             	movzbl %al,%eax
    b626:	8b b5 90 e5 ff ff    	mov    -0x1a70(%rbp),%esi
    b62c:	89 c7                	mov    %eax,%edi
    b62e:	e8 d2 e5 ff ff       	callq  9c05 <safe_lshift_func_uint8_t_u_s>
    b633:	0f b6 c0             	movzbl %al,%eax
    b636:	be 01 00 00 00       	mov    $0x1,%esi
    b63b:	89 c7                	mov    %eax,%edi
    b63d:	e8 b3 dd ff ff       	callq  93f5 <safe_mul_func_int16_t_s_s>
    b642:	48 8b 85 18 e6 ff ff 	mov    -0x19e8(%rbp),%rax
    b649:	8b 10                	mov    (%rax),%edx
    b64b:	48 8b 85 20 e6 ff ff 	mov    -0x19e0(%rbp),%rax
    b652:	8b 00                	mov    (%rax),%eax
    b654:	31 c2                	xor    %eax,%edx
    b656:	48 8b 85 20 e6 ff ff 	mov    -0x19e0(%rbp),%rax
    b65d:	89 10                	mov    %edx,(%rax)
    b65f:	48 8b 85 20 e6 ff ff 	mov    -0x19e0(%rbp),%rax
    b666:	8b 10                	mov    (%rax),%edx
    b668:	8b 85 c4 e5 ff ff    	mov    -0x1a3c(%rbp),%eax
    b66e:	31 d0                	xor    %edx,%eax
    b670:	89 85 c4 e5 ff ff    	mov    %eax,-0x1a3c(%rbp)
    b676:	8b 85 c4 e5 ff ff    	mov    -0x1a3c(%rbp),%eax
    b67c:	48 98                	cltq   
    b67e:	48 39 85 a8 e5 ff ff 	cmp    %rax,-0x1a58(%rbp)
    b685:	0f 93 c0             	setae  %al
    b688:	0f b6 c0             	movzbl %al,%eax
    b68b:	be 05 00 00 00       	mov    $0x5,%esi
    b690:	89 c7                	mov    %eax,%edi
    b692:	e8 b5 e5 ff ff       	callq  9c4c <safe_lshift_func_uint8_t_u_u>
    b697:	0f be c0             	movsbl %al,%eax
    b69a:	48 8b 95 a8 e5 ff ff 	mov    -0x1a58(%rbp),%rdx
    b6a1:	89 c6                	mov    %eax,%esi
    b6a3:	89 d7                	mov    %edx,%edi
    b6a5:	e8 16 7a 00 00       	callq  130c0 <func_44>
    b6aa:	48 89 85 90 e5 ff ff 	mov    %rax,-0x1a70(%rbp)
    b6b1:	48 8b 85 a8 e5 ff ff 	mov    -0x1a58(%rbp),%rax
    b6b8:	0f be c0             	movsbl %al,%eax
    b6bb:	89 c6                	mov    %eax,%esi
    b6bd:	48 8d 3d 64 d9 00 00 	lea    0xd964(%rip),%rdi        # 19028 <g_33>
    b6c4:	e8 cf 79 00 00       	callq  13098 <func_36>
    b6c9:	89 c7                	mov    %eax,%edi
    b6cb:	e8 9c 79 00 00       	callq  1306c <func_34>
    b6d0:	0f b6 d0             	movzbl %al,%edx
    b6d3:	48 8b 85 18 e6 ff ff 	mov    -0x19e8(%rbp),%rax
    b6da:	8b 00                	mov    (%rax),%eax
    b6dc:	48 63 f0             	movslq %eax,%rsi
    b6df:	48 8b 85 18 e6 ff ff 	mov    -0x19e8(%rbp),%rax
    b6e6:	4c 8d 05 3b d9 00 00 	lea    0xd93b(%rip),%r8        # 19028 <g_33>
    b6ed:	48 8b 8d 90 e5 ff ff 	mov    -0x1a70(%rbp),%rcx
    b6f4:	48 89 c7             	mov    %rax,%rdi
    b6f7:	e8 95 4c 00 00       	callq  10391 <func_26>
    b6fc:	48 83 bd 18 e6 ff ff 	cmpq   $0x0,-0x19e8(%rbp)
    b703:	00 
    b704:	0f 95 c0             	setne  %al
    b707:	0f b6 c0             	movzbl %al,%eax
    b70a:	8b 95 a0 e5 ff ff    	mov    -0x1a60(%rbp),%edx
    b710:	8b b5 9c e5 ff ff    	mov    -0x1a64(%rbp),%esi
    b716:	48 89 c7             	mov    %rax,%rdi
    b719:	e8 15 40 00 00       	callq  f733 <func_22>
    b71e:	48 8b 95 28 e6 ff ff 	mov    -0x19d8(%rbp),%rdx
    b725:	48 89 02             	mov    %rax,(%rdx)
    b728:	48 8b 85 28 e6 ff ff 	mov    -0x19d8(%rbp),%rax
    b72f:	48 8b 00             	mov    (%rax),%rax
    b732:	48 8b 95 a8 e5 ff ff 	mov    -0x1a58(%rbp),%rdx
    b739:	44 8b 85 a4 e5 ff ff 	mov    -0x1a5c(%rbp),%r8d
    b740:	44 89 f9             	mov    %r15d,%ecx
    b743:	44 89 f6             	mov    %r14d,%esi
    b746:	48 89 c7             	mov    %rax,%rdi
    b749:	e8 12 3d 00 00       	callq  f460 <func_16>
    b74e:	4c 89 e9             	mov    %r13,%rcx
    b751:	44 89 e2             	mov    %r12d,%edx
    b754:	89 de                	mov    %ebx,%esi
    b756:	48 89 c7             	mov    %rax,%rdi
    b759:	e8 fb 03 00 00       	callq  bb59 <func_11>
    b75e:	48 8b 95 28 e6 ff ff 	mov    -0x19d8(%rbp),%rdx
    b765:	48 89 02             	mov    %rax,(%rdx)
    b768:	c7 05 0e de 00 00 00 	movl   $0x0,0xde0e(%rip)        # 19580 <g_1216>
    b76f:	00 00 00 
    b772:	e9 a6 03 00 00       	jmpq   bb1d <func_9+0x80f>
    b777:	c7 85 e0 e5 ff ff 61 	movl   $0x1d487661,-0x1a20(%rbp)
    b77e:	76 48 1d 
    b781:	48 8d 85 c0 e8 ff ff 	lea    -0x1740(%rbp),%rax
    b788:	48 8d 15 f1 9c 00 00 	lea    0x9cf1(%rip),%rdx        # 15480 <g_2258+0x418>
    b78f:	b9 6c 00 00 00       	mov    $0x6c,%ecx
    b794:	48 89 c7             	mov    %rax,%rdi
    b797:	48 89 d6             	mov    %rdx,%rsi
    b79a:	f3 48 a5             	rep movsq %ds:(%rsi),%es:(%rdi)
    b79d:	c6 85 b9 e5 ff ff 01 	movb   $0x1,-0x1a47(%rbp)
    b7a4:	48 c7 85 80 e7 ff ff 	movq   $0x0,-0x1880(%rbp)
    b7ab:	00 00 00 00 
    b7af:	48 8d 05 82 d8 00 00 	lea    0xd882(%rip),%rax        # 19038 <g_66>
    b7b6:	48 89 85 88 e7 ff ff 	mov    %rax,-0x1878(%rbp)
    b7bd:	48 c7 85 90 e7 ff ff 	movq   $0x0,-0x1870(%rbp)
    b7c4:	00 00 00 00 
    b7c8:	48 8d 05 69 d8 00 00 	lea    0xd869(%rip),%rax        # 19038 <g_66>
    b7cf:	48 89 85 98 e7 ff ff 	mov    %rax,-0x1868(%rbp)
    b7d6:	48 c7 85 a0 e7 ff ff 	movq   $0x0,-0x1860(%rbp)
    b7dd:	00 00 00 00 
    b7e1:	48 8d 05 50 d8 00 00 	lea    0xd850(%rip),%rax        # 19038 <g_66>
    b7e8:	48 89 85 a8 e7 ff ff 	mov    %rax,-0x1858(%rbp)
    b7ef:	48 c7 85 b0 e7 ff ff 	movq   $0x0,-0x1850(%rbp)
    b7f6:	00 00 00 00 
    b7fa:	48 8d 05 37 d8 00 00 	lea    0xd837(%rip),%rax        # 19038 <g_66>
    b801:	48 89 85 b8 e7 ff ff 	mov    %rax,-0x1848(%rbp)
    b808:	48 8d 85 80 e7 ff ff 	lea    -0x1880(%rbp),%rax
    b80f:	48 83 c0 10          	add    $0x10,%rax
    b813:	48 89 85 58 e6 ff ff 	mov    %rax,-0x19a8(%rbp)
    b81a:	48 8d 05 77 09 01 00 	lea    0x10977(%rip),%rax        # 1c198 <g_371>
    b821:	48 89 85 00 e6 ff ff 	mov    %rax,-0x1a00(%rbp)
    b828:	48 8d 85 00 e6 ff ff 	lea    -0x1a00(%rbp),%rax
    b82f:	48 89 85 c0 e7 ff ff 	mov    %rax,-0x1840(%rbp)
    b836:	48 c7 85 c8 e7 ff ff 	movq   $0x0,-0x1838(%rbp)
    b83d:	00 00 00 00 
    b841:	48 c7 85 d0 e7 ff ff 	movq   $0x0,-0x1830(%rbp)
    b848:	00 00 00 00 
    b84c:	48 8d 85 00 e6 ff ff 	lea    -0x1a00(%rbp),%rax
    b853:	48 89 85 d8 e7 ff ff 	mov    %rax,-0x1828(%rbp)
    b85a:	48 c7 85 e0 e7 ff ff 	movq   $0x0,-0x1820(%rbp)
    b861:	00 00 00 00 
    b865:	48 c7 85 e8 e7 ff ff 	movq   $0x0,-0x1818(%rbp)
    b86c:	00 00 00 00 
    b870:	48 8d 85 00 e6 ff ff 	lea    -0x1a00(%rbp),%rax
    b877:	48 89 85 f0 e7 ff ff 	mov    %rax,-0x1810(%rbp)
    b87e:	48 c7 85 f8 e7 ff ff 	movq   $0x0,-0x1808(%rbp)
    b885:	00 00 00 00 
    b889:	48 c7 85 00 e8 ff ff 	movq   $0x0,-0x1800(%rbp)
    b890:	00 00 00 00 
    b894:	48 8d 85 00 e6 ff ff 	lea    -0x1a00(%rbp),%rax
    b89b:	48 89 85 08 e8 ff ff 	mov    %rax,-0x17f8(%rbp)
    b8a2:	48 c7 85 10 e8 ff ff 	movq   $0x0,-0x17f0(%rbp)
    b8a9:	00 00 00 00 
    b8ad:	48 c7 85 18 e8 ff ff 	movq   $0x0,-0x17e8(%rbp)
    b8b4:	00 00 00 00 
    b8b8:	48 8d 05 81 d8 00 00 	lea    0xd881(%rip),%rax        # 19140 <g_570+0x20>
    b8bf:	48 89 85 08 e6 ff ff 	mov    %rax,-0x19f8(%rbp)
    b8c6:	48 8d 85 08 e6 ff ff 	lea    -0x19f8(%rbp),%rax
    b8cd:	48 89 85 60 e6 ff ff 	mov    %rax,-0x19a0(%rbp)
    b8d4:	48 8d 05 51 d7 00 00 	lea    0xd751(%rip),%rax        # 1902c <g_39>
    b8db:	48 89 85 68 e6 ff ff 	mov    %rax,-0x1998(%rbp)
    b8e2:	c7 85 20 e8 ff ff fe 	movl   $0xfffffffe,-0x17e0(%rbp)
    b8e9:	ff ff ff 
    b8ec:	c7 85 24 e8 ff ff ff 	movl   $0xffffffff,-0x17dc(%rbp)
    b8f3:	ff ff ff 
    b8f6:	c7 85 28 e8 ff ff fe 	movl   $0xfffffffe,-0x17d8(%rbp)
    b8fd:	ff ff ff 
    b900:	c7 85 2c e8 ff ff ff 	movl   $0xffffffff,-0x17d4(%rbp)
    b907:	ff ff ff 
    b90a:	c7 85 30 e8 ff ff fe 	movl   $0xfffffffe,-0x17d0(%rbp)
    b911:	ff ff ff 
    b914:	c7 85 34 e8 ff ff ff 	movl   $0xffffffff,-0x17cc(%rbp)
    b91b:	ff ff ff 
    b91e:	c7 85 38 e8 ff ff fe 	movl   $0xfffffffe,-0x17c8(%rbp)
    b925:	ff ff ff 
    b928:	c7 85 3c e8 ff ff ff 	movl   $0xffffffff,-0x17c4(%rbp)
    b92f:	ff ff ff 
    b932:	c7 85 40 e8 ff ff fe 	movl   $0xfffffffe,-0x17c0(%rbp)
    b939:	ff ff ff 
    b93c:	c7 85 44 e8 ff ff ff 	movl   $0xffffffff,-0x17bc(%rbp)
    b943:	ff ff ff 
    b946:	c7 85 48 e8 ff ff fe 	movl   $0xfffffffe,-0x17b8(%rbp)
    b94d:	ff ff ff 
    b950:	c7 85 4c e8 ff ff ff 	movl   $0xffffffff,-0x17b4(%rbp)
    b957:	ff ff ff 
    b95a:	c7 85 50 e8 ff ff fe 	movl   $0xfffffffe,-0x17b0(%rbp)
    b961:	ff ff ff 
    b964:	c7 85 54 e8 ff ff ff 	movl   $0xffffffff,-0x17ac(%rbp)
    b96b:	ff ff ff 
    b96e:	c7 85 58 e8 ff ff fe 	movl   $0xfffffffe,-0x17a8(%rbp)
    b975:	ff ff ff 
    b978:	c7 85 5c e8 ff ff ff 	movl   $0xffffffff,-0x17a4(%rbp)
    b97f:	ff ff ff 
    b982:	c7 85 60 e8 ff ff fe 	movl   $0xfffffffe,-0x17a0(%rbp)
    b989:	ff ff ff 
    b98c:	c7 85 64 e8 ff ff ff 	movl   $0xffffffff,-0x179c(%rbp)
    b993:	ff ff ff 
    b996:	c7 85 68 e8 ff ff fe 	movl   $0xfffffffe,-0x1798(%rbp)
    b99d:	ff ff ff 
    b9a0:	c7 85 6c e8 ff ff ff 	movl   $0xffffffff,-0x1794(%rbp)
    b9a7:	ff ff ff 
    b9aa:	c7 85 70 e8 ff ff fe 	movl   $0xfffffffe,-0x1790(%rbp)
    b9b1:	ff ff ff 
    b9b4:	c7 85 74 e8 ff ff ff 	movl   $0xffffffff,-0x178c(%rbp)
    b9bb:	ff ff ff 
    b9be:	c7 85 78 e8 ff ff fe 	movl   $0xfffffffe,-0x1788(%rbp)
    b9c5:	ff ff ff 
    b9c8:	c7 85 7c e8 ff ff ff 	movl   $0xffffffff,-0x1784(%rbp)
    b9cf:	ff ff ff 
    b9d2:	c7 85 80 e8 ff ff fe 	movl   $0xfffffffe,-0x1780(%rbp)
    b9d9:	ff ff ff 
    b9dc:	c7 85 84 e8 ff ff ff 	movl   $0xffffffff,-0x177c(%rbp)
    b9e3:	ff ff ff 
    b9e6:	c7 85 88 e8 ff ff fe 	movl   $0xfffffffe,-0x1778(%rbp)
    b9ed:	ff ff ff 
    b9f0:	c7 85 8c e8 ff ff ff 	movl   $0xffffffff,-0x1774(%rbp)
    b9f7:	ff ff ff 
    b9fa:	c7 85 90 e8 ff ff fe 	movl   $0xfffffffe,-0x1770(%rbp)
    ba01:	ff ff ff 
    ba04:	c7 85 94 e8 ff ff ff 	movl   $0xffffffff,-0x176c(%rbp)
    ba0b:	ff ff ff 
    ba0e:	c7 85 98 e8 ff ff fe 	movl   $0xfffffffe,-0x1768(%rbp)
    ba15:	ff ff ff 
    ba18:	c7 85 9c e8 ff ff ff 	movl   $0xffffffff,-0x1764(%rbp)
    ba1f:	ff ff ff 
    ba22:	c7 85 a0 e8 ff ff fe 	movl   $0xfffffffe,-0x1760(%rbp)
    ba29:	ff ff ff 
    ba2c:	c7 85 a4 e8 ff ff ff 	movl   $0xffffffff,-0x175c(%rbp)
    ba33:	ff ff ff 
    ba36:	c7 85 a8 e8 ff ff fe 	movl   $0xfffffffe,-0x1758(%rbp)
    ba3d:	ff ff ff 
    ba40:	c7 85 ac e8 ff ff ff 	movl   $0xffffffff,-0x1754(%rbp)
    ba47:	ff ff ff 
    ba4a:	c7 85 b0 e8 ff ff fe 	movl   $0xfffffffe,-0x1750(%rbp)
    ba51:	ff ff ff 
    ba54:	c7 85 b4 e8 ff ff ff 	movl   $0xffffffff,-0x174c(%rbp)
    ba5b:	ff ff ff 
    ba5e:	c7 85 b8 e8 ff ff fe 	movl   $0xfffffffe,-0x1748(%rbp)
    ba65:	ff ff ff 
    ba68:	c7 85 bc e8 ff ff ff 	movl   $0xffffffff,-0x1744(%rbp)
    ba6f:	ff ff ff 
    ba72:	48 c7 85 70 e6 ff ff 	movq   $0x0,-0x1990(%rbp)
    ba79:	00 00 00 00 
    ba7d:	48 8d 05 54 0d 01 00 	lea    0x10d54(%rip),%rax        # 1c7d8 <g_1114+0x298>
    ba84:	48 89 85 10 e6 ff ff 	mov    %rax,-0x19f0(%rbp)
    ba8b:	48 8d 85 10 e6 ff ff 	lea    -0x19f0(%rbp),%rax
    ba92:	48 89 85 78 e6 ff ff 	mov    %rax,-0x1988(%rbp)
    ba99:	48 8d 85 10 f0 ff ff 	lea    -0xff0(%rbp),%rax
    baa0:	48 8d 15 f9 e7 00 00 	lea    0xe7f9(%rip),%rdx        # 1a2a0 <g_2473+0x80c>
    baa7:	b9 f5 00 00 00       	mov    $0xf5,%ecx
    baac:	48 89 c7             	mov    %rax,%rdi
    baaf:	48 89 d6             	mov    %rdx,%rsi
    bab2:	f3 48 a5             	rep movsq %ds:(%rsi),%es:(%rdi)
    bab5:	48 8d 05 cc 15 01 00 	lea    0x115cc(%rip),%rax        # 1d088 <g_638>
    babc:	48 89 85 80 e6 ff ff 	mov    %rax,-0x1980(%rbp)
    bac3:	c7 85 e4 e5 ff ff 00 	movl   $0x0,-0x1a1c(%rbp)
    baca:	00 00 00 
    bacd:	48 8d 05 3c 11 01 00 	lea    0x1113c(%rip),%rax        # 1cc10 <g_2222>
    bad4:	48 89 85 88 e6 ff ff 	mov    %rax,-0x1978(%rbp)
    badb:	c7 85 c0 e5 ff ff 00 	movl   $0x0,-0x1a40(%rbp)
    bae2:	00 00 00 
    bae5:	eb 1e                	jmp    bb05 <func_9+0x7f7>
    bae7:	8b 85 c0 e5 ff ff    	mov    -0x1a40(%rbp),%eax
    baed:	48 98                	cltq   
    baef:	48 8d 15 c2 d5 00 00 	lea    0xd5c2(%rip),%rdx        # 190b8 <g_122>
    baf6:	48 89 94 c5 10 e7 ff 	mov    %rdx,-0x18f0(%rbp,%rax,8)
    bafd:	ff 
    bafe:	83 85 c0 e5 ff ff 01 	addl   $0x1,-0x1a40(%rbp)
    bb05:	83 bd c0 e5 ff ff 05 	cmpl   $0x5,-0x1a40(%rbp)
    bb0c:	7e d9                	jle    bae7 <func_9+0x7d9>
    bb0e:	8b 05 6c da 00 00    	mov    0xda6c(%rip),%eax        # 19580 <g_1216>
    bb14:	83 c0 01             	add    $0x1,%eax
    bb17:	89 05 63 da 00 00    	mov    %eax,0xda63(%rip)        # 19580 <g_1216>
    bb1d:	8b 05 5d da 00 00    	mov    0xda5d(%rip),%eax        # 19580 <g_1216>
    bb23:	83 f8 14             	cmp    $0x14,%eax
    bb26:	0f 8f 4b fc ff ff    	jg     b777 <func_9+0x469>
    bb2c:	0f b6 85 b8 e5 ff ff 	movzbl -0x1a48(%rbp),%eax
    bb33:	48 8b 5d c8          	mov    -0x38(%rbp),%rbx
    bb37:	64 48 33 1c 25 28 00 	xor    %fs:0x28,%rbx
    bb3e:	00 00 
    bb40:	74 05                	je     bb47 <func_9+0x839>
    bb42:	e8 29 d5 ff ff       	callq  9070 <__stack_chk_fail@plt>
    bb47:	48 81 c4 48 1a 00 00 	add    $0x1a48,%rsp
    bb4e:	5b                   	pop    %rbx
    bb4f:	41 5c                	pop    %r12
    bb51:	41 5d                	pop    %r13
    bb53:	41 5e                	pop    %r14
    bb55:	41 5f                	pop    %r15
    bb57:	5d                   	pop    %rbp
    bb58:	c3                   	retq   

000000000000bb59 <func_11>:
    bb59:	f3 0f 1e fa          	endbr64 
    bb5d:	55                   	push   %rbp
    bb5e:	48 89 e5             	mov    %rsp,%rbp
    bb61:	41 57                	push   %r15
    bb63:	41 56                	push   %r14
    bb65:	41 55                	push   %r13
    bb67:	41 54                	push   %r12
    bb69:	53                   	push   %rbx
    bb6a:	48 81 ec 88 0d 00 00 	sub    $0xd88,%rsp
    bb71:	48 89 bd 78 f2 ff ff 	mov    %rdi,-0xd88(%rbp)
    bb78:	89 d0                	mov    %edx,%eax
    bb7a:	48 89 8d 68 f2 ff ff 	mov    %rcx,-0xd98(%rbp)
    bb81:	89 f2                	mov    %esi,%edx
    bb83:	88 95 74 f2 ff ff    	mov    %dl,-0xd8c(%rbp)
    bb89:	88 85 70 f2 ff ff    	mov    %al,-0xd90(%rbp)
    bb8f:	64 48 8b 04 25 28 00 	mov    %fs:0x28,%rax
    bb96:	00 00 
    bb98:	48 89 45 c8          	mov    %rax,-0x38(%rbp)
    bb9c:	31 c0                	xor    %eax,%eax
    bb9e:	48 b8 b6 bf 0e 4f da 	movabs $0xd20c0dda4f0ebfb6,%rax
    bba5:	0d 0c d2 
    bba8:	48 89 85 78 f3 ff ff 	mov    %rax,-0xc88(%rbp)
    bbaf:	48 8d 05 7a d4 00 00 	lea    0xd47a(%rip),%rax        # 19030 <g_43>
    bbb6:	48 89 85 18 f3 ff ff 	mov    %rax,-0xce8(%rbp)
    bbbd:	48 b8 09 ff 19 09 50 	movabs $0x190950500919ff09,%rax
    bbc4:	50 09 19 
    bbc7:	48 89 85 c0 f4 ff ff 	mov    %rax,-0xb40(%rbp)
    bbce:	48 b8 01 01 b9 fb 09 	movabs $0xfb09b909fbb90101,%rax
    bbd5:	b9 09 fb 
    bbd8:	48 89 85 c8 f4 ff ff 	mov    %rax,-0xb38(%rbp)
    bbdf:	48 b8 19 fb 19 50 fb 	movabs $0xfbfffffb5019fb19,%rax
    bbe6:	ff ff fb 
    bbe9:	48 89 85 d0 f4 ff ff 	mov    %rax,-0xb30(%rbp)
    bbf0:	48 b8 fb ff ff fb 50 	movabs $0x19fb1950fbfffffb,%rax
    bbf7:	19 fb 19 
    bbfa:	48 89 85 d8 f4 ff ff 	mov    %rax,-0xb28(%rbp)
    bc01:	48 b8 fb 09 b9 09 fb 	movabs $0x101b9fb09b909fb,%rax
    bc08:	b9 01 01 
    bc0b:	48 89 85 e0 f4 ff ff 	mov    %rax,-0xb20(%rbp)
    bc12:	48 b8 19 09 50 50 09 	movabs $0x9ff190950500919,%rax
    bc19:	19 ff 09 
    bc1c:	48 89 85 e8 f4 ff ff 	mov    %rax,-0xb18(%rbp)
    bc23:	c7 85 98 f2 ff ff 01 	movl   $0x1,-0xd68(%rbp)
    bc2a:	00 00 00 
    bc2d:	48 8d 05 3c d9 00 00 	lea    0xd93c(%rip),%rax        # 19570 <g_1011>
    bc34:	48 89 85 20 f3 ff ff 	mov    %rax,-0xce0(%rbp)
    bc3b:	48 8d 05 06 fa 00 00 	lea    0xfa06(%rip),%rax        # 1b648 <g_143>
    bc42:	48 89 85 28 f3 ff ff 	mov    %rax,-0xcd8(%rbp)
    bc49:	48 8d 85 28 f3 ff ff 	lea    -0xcd8(%rbp),%rax
    bc50:	48 89 85 30 f3 ff ff 	mov    %rax,-0xcd0(%rbp)
    bc57:	66 c7 85 8c f2 ff ff 	movw   $0xffff,-0xd74(%rbp)
    bc5e:	ff ff 
    bc60:	48 c7 85 30 f5 ff ff 	movq   $0x0,-0xad0(%rbp)
    bc67:	00 00 00 00 
    bc6b:	48 c7 85 38 f5 ff ff 	movq   $0x0,-0xac8(%rbp)
    bc72:	00 00 00 00 
    bc76:	48 c7 85 40 f5 ff ff 	movq   $0x0,-0xac0(%rbp)
    bc7d:	00 00 00 00 
    bc81:	48 c7 85 48 f5 ff ff 	movq   $0x0,-0xab8(%rbp)
    bc88:	00 00 00 00 
    bc8c:	48 c7 85 50 f5 ff ff 	movq   $0x0,-0xab0(%rbp)
    bc93:	00 00 00 00 
    bc97:	48 c7 85 58 f5 ff ff 	movq   $0x0,-0xaa8(%rbp)
    bc9e:	00 00 00 00 
    bca2:	48 c7 85 60 f5 ff ff 	movq   $0x0,-0xaa0(%rbp)
    bca9:	00 00 00 00 
    bcad:	48 c7 85 68 f5 ff ff 	movq   $0x0,-0xa98(%rbp)
    bcb4:	00 00 00 00 
    bcb8:	48 c7 85 70 f5 ff ff 	movq   $0x0,-0xa90(%rbp)
    bcbf:	00 00 00 00 
    bcc3:	48 8d 85 30 f5 ff ff 	lea    -0xad0(%rbp),%rax
    bcca:	48 89 85 38 f3 ff ff 	mov    %rax,-0xcc8(%rbp)
    bcd1:	48 8d 05 f0 d3 00 00 	lea    0xd3f0(%rip),%rax        # 190c8 <g_147>
    bcd8:	48 89 85 40 f3 ff ff 	mov    %rax,-0xcc0(%rbp)
    bcdf:	48 8d 85 40 f3 ff ff 	lea    -0xcc0(%rbp),%rax
    bce6:	48 89 85 80 f3 ff ff 	mov    %rax,-0xc80(%rbp)
    bced:	c7 85 80 f6 ff ff 52 	movl   $0xf2f6c52,-0x980(%rbp)
    bcf4:	6c 2f 0f 
    bcf7:	c7 85 84 f6 ff ff 00 	movl   $0x0,-0x97c(%rbp)
    bcfe:	00 00 00 
    bd01:	c7 85 88 f6 ff ff 52 	movl   $0xf2f6c52,-0x978(%rbp)
    bd08:	6c 2f 0f 
    bd0b:	c7 85 8c f6 ff ff 00 	movl   $0x0,-0x974(%rbp)
    bd12:	00 00 00 
    bd15:	c7 85 90 f6 ff ff 52 	movl   $0xf2f6c52,-0x970(%rbp)
    bd1c:	6c 2f 0f 
    bd1f:	c7 85 94 f6 ff ff 00 	movl   $0x0,-0x96c(%rbp)
    bd26:	00 00 00 
    bd29:	c7 85 98 f6 ff ff 52 	movl   $0xf2f6c52,-0x968(%rbp)
    bd30:	6c 2f 0f 
    bd33:	c7 85 9c f6 ff ff 00 	movl   $0x0,-0x964(%rbp)
    bd3a:	00 00 00 
    bd3d:	c7 85 a0 f6 ff ff 52 	movl   $0xf2f6c52,-0x960(%rbp)
    bd44:	6c 2f 0f 
    bd47:	c7 85 a4 f6 ff ff 00 	movl   $0x0,-0x95c(%rbp)
    bd4e:	00 00 00 
    bd51:	c7 85 a8 f6 ff ff f8 	movl   $0xfffffff8,-0x958(%rbp)
    bd58:	ff ff ff 
    bd5b:	c7 85 ac f6 ff ff 00 	movl   $0x0,-0x954(%rbp)
    bd62:	00 00 00 
    bd65:	c7 85 b0 f6 ff ff f8 	movl   $0xfffffff8,-0x950(%rbp)
    bd6c:	ff ff ff 
    bd6f:	c7 85 b4 f6 ff ff 00 	movl   $0x0,-0x94c(%rbp)
    bd76:	00 00 00 
    bd79:	c7 85 b8 f6 ff ff f8 	movl   $0xfffffff8,-0x948(%rbp)
    bd80:	ff ff ff 
    bd83:	c7 85 bc f6 ff ff 00 	movl   $0x0,-0x944(%rbp)
    bd8a:	00 00 00 
    bd8d:	c7 85 c0 f6 ff ff f8 	movl   $0xfffffff8,-0x940(%rbp)
    bd94:	ff ff ff 
    bd97:	c7 85 c4 f6 ff ff 00 	movl   $0x0,-0x93c(%rbp)
    bd9e:	00 00 00 
    bda1:	c7 85 c8 f6 ff ff f8 	movl   $0xfffffff8,-0x938(%rbp)
    bda8:	ff ff ff 
    bdab:	c7 85 cc f6 ff ff 00 	movl   $0x0,-0x934(%rbp)
    bdb2:	00 00 00 
    bdb5:	c7 85 d0 f6 ff ff 52 	movl   $0xf2f6c52,-0x930(%rbp)
    bdbc:	6c 2f 0f 
    bdbf:	c7 85 d4 f6 ff ff 00 	movl   $0x0,-0x92c(%rbp)
    bdc6:	00 00 00 
    bdc9:	c7 85 d8 f6 ff ff 52 	movl   $0xf2f6c52,-0x928(%rbp)
    bdd0:	6c 2f 0f 
    bdd3:	c7 85 dc f6 ff ff 00 	movl   $0x0,-0x924(%rbp)
    bdda:	00 00 00 
    bddd:	c7 85 e0 f6 ff ff 52 	movl   $0xf2f6c52,-0x920(%rbp)
    bde4:	6c 2f 0f 
    bde7:	c7 85 e4 f6 ff ff 00 	movl   $0x0,-0x91c(%rbp)
    bdee:	00 00 00 
    bdf1:	c7 85 e8 f6 ff ff 52 	movl   $0xf2f6c52,-0x918(%rbp)
    bdf8:	6c 2f 0f 
    bdfb:	c7 85 ec f6 ff ff 00 	movl   $0x0,-0x914(%rbp)
    be02:	00 00 00 
    be05:	c7 85 f0 f6 ff ff 52 	movl   $0xf2f6c52,-0x910(%rbp)
    be0c:	6c 2f 0f 
    be0f:	c7 85 f4 f6 ff ff 00 	movl   $0x0,-0x90c(%rbp)
    be16:	00 00 00 
    be19:	48 c7 85 88 f3 ff ff 	movq   $0x9,-0xc78(%rbp)
    be20:	09 00 00 00 
    be24:	48 c7 85 80 f5 ff ff 	movq   $0xffffffffffffffff,-0xa80(%rbp)
    be2b:	ff ff ff ff 
    be2f:	48 b8 44 b7 5a 5e cf 	movabs $0x773f3bcf5e5ab744,%rax
    be36:	3b 3f 77 
    be39:	48 89 85 88 f5 ff ff 	mov    %rax,-0xa78(%rbp)
    be40:	48 c7 85 90 f5 ff ff 	movq   $0xffffffffffffffff,-0xa70(%rbp)
    be47:	ff ff ff ff 
    be4b:	48 89 85 98 f5 ff ff 	mov    %rax,-0xa68(%rbp)
    be52:	48 c7 85 a0 f5 ff ff 	movq   $0xffffffffffffffff,-0xa60(%rbp)
    be59:	ff ff ff ff 
    be5d:	48 89 85 a8 f5 ff ff 	mov    %rax,-0xa58(%rbp)
    be64:	48 c7 85 b0 f5 ff ff 	movq   $0xffffffffffffffff,-0xa50(%rbp)
    be6b:	ff ff ff ff 
    be6f:	48 89 85 b8 f5 ff ff 	mov    %rax,-0xa48(%rbp)
    be76:	48 c7 85 c0 f5 ff ff 	movq   $0xffffffffffffffff,-0xa40(%rbp)
    be7d:	ff ff ff ff 
    be81:	48 89 85 c8 f5 ff ff 	mov    %rax,-0xa38(%rbp)
    be88:	48 8d 05 d1 91 00 00 	lea    0x91d1(%rip),%rax        # 15060 <g_1319>
    be8f:	48 89 85 48 f3 ff ff 	mov    %rax,-0xcb8(%rbp)
    be96:	48 8d 85 48 f3 ff ff 	lea    -0xcb8(%rbp),%rax
    be9d:	48 89 85 50 f3 ff ff 	mov    %rax,-0xcb0(%rbp)
    bea4:	c7 85 94 f2 ff ff 60 	movl   $0xa89e2d60,-0xd6c(%rbp)
    beab:	2d 9e a8 
    beae:	c7 85 bc f2 ff ff e9 	movl   $0x17510de9,-0xd44(%rbp)
    beb5:	0d 51 17 
    beb8:	48 c7 85 90 f3 ff ff 	movq   $0x0,-0xc70(%rbp)
    bebf:	00 00 00 00 
    bec3:	48 8d 05 c6 fe 00 00 	lea    0xfec6(%rip),%rax        # 1bd90 <g_210+0xd0>
    beca:	48 89 85 98 f3 ff ff 	mov    %rax,-0xc68(%rbp)
    bed1:	48 c7 85 a0 f3 ff ff 	movq   $0x0,-0xc60(%rbp)
    bed8:	00 00 00 00 
    bedc:	c7 85 c0 f2 ff ff 4d 	movl   $0xde13414d,-0xd40(%rbp)
    bee3:	41 13 de 
    bee6:	c7 85 c4 f2 ff ff 00 	movl   $0x3538b600,-0xd3c(%rbp)
    beed:	b6 38 35 
    bef0:	48 c7 85 a8 f3 ff ff 	movq   $0x0,-0xc58(%rbp)
    bef7:	00 00 00 00 
    befb:	c7 85 9c f2 ff ff 00 	movl   $0x0,-0xd64(%rbp)
    bf02:	00 00 00 
    bf05:	eb 1a                	jmp    bf21 <func_11+0x3c8>
    bf07:	8b 85 9c f2 ff ff    	mov    -0xd64(%rbp),%eax
    bf0d:	48 98                	cltq   
    bf0f:	c7 84 85 7c f4 ff ff 	movl   $0x709b09c4,-0xb84(%rbp,%rax,4)
    bf16:	c4 09 9b 70 
    bf1a:	83 85 9c f2 ff ff 01 	addl   $0x1,-0xd64(%rbp)
    bf21:	83 bd 9c f2 ff ff 00 	cmpl   $0x0,-0xd64(%rbp)
    bf28:	7e dd                	jle    bf07 <func_11+0x3ae>
    bf2a:	48 8b 85 78 f3 ff ff 	mov    -0xc88(%rbp),%rax
    bf31:	83 e0 01             	and    $0x1,%eax
    bf34:	48 85 c0             	test   %rax,%rax
    bf37:	75 43                	jne    bf7c <func_11+0x423>
    bf39:	48 8b 05 d0 05 01 00 	mov    0x105d0(%rip),%rax        # 1c510 <g_632>
    bf40:	0f b6 00             	movzbl (%rax),%eax
    bf43:	0f b6 d0             	movzbl %al,%edx
    bf46:	48 8b 85 18 f3 ff ff 	mov    -0xce8(%rbp),%rax
    bf4d:	48 85 c0             	test   %rax,%rax
    bf50:	0f 95 c0             	setne  %al
    bf53:	0f b6 c0             	movzbl %al,%eax
    bf56:	89 d6                	mov    %edx,%esi
    bf58:	89 c7                	mov    %eax,%edi
    bf5a:	e8 7c dc ff ff       	callq  9bdb <safe_div_func_uint8_t_u_u>
    bf5f:	0f b6 d0             	movzbl %al,%edx
    bf62:	66 0f be 85 70 f2 ff 	movsbw -0xd90(%rbp),%ax
    bf69:	ff 
    bf6a:	0f b7 c0             	movzwl %ax,%eax
    bf6d:	89 d6                	mov    %edx,%esi
    bf6f:	89 c7                	mov    %eax,%edi
    bf71:	e8 a9 dd ff ff       	callq  9d1f <safe_sub_func_uint16_t_u_u>
    bf76:	66 83 f8 01          	cmp    $0x1,%ax
    bf7a:	76 07                	jbe    bf83 <func_11+0x42a>
    bf7c:	ba 01 00 00 00       	mov    $0x1,%edx
    bf81:	eb 05                	jmp    bf88 <func_11+0x42f>
    bf83:	ba 00 00 00 00       	mov    $0x0,%edx
    bf88:	48 8b 05 b9 f6 00 00 	mov    0xf6b9(%rip),%rax        # 1b648 <g_143>
    bf8f:	48 8b 00             	mov    (%rax),%rax
    bf92:	89 10                	mov    %edx,(%rax)
    bf94:	48 c7 05 d9 d1 00 00 	movq   $0x0,0xd1d9(%rip)        # 19178 <g_761>
    bf9b:	00 00 00 00 
    bf9f:	e9 e2 0e 00 00       	jmpq   ce86 <func_11+0x132d>
    bfa4:	48 8d 05 15 d1 00 00 	lea    0xd115(%rip),%rax        # 190c0 <g_129>
    bfab:	48 89 85 20 f4 ff ff 	mov    %rax,-0xbe0(%rbp)
    bfb2:	c7 85 0c f3 ff ff cf 	movl   $0x4ae4b3cf,-0xcf4(%rbp)
    bfb9:	b3 e4 4a 
    bfbc:	c6 85 8a f2 ff ff 18 	movb   $0x18,-0xd76(%rbp)
    bfc3:	c7 85 10 f3 ff ff b7 	movl   $0x46d158b7,-0xcf0(%rbp)
    bfca:	58 d1 46 
    bfcd:	c6 85 8b f2 ff ff 06 	movb   $0x6,-0xd75(%rbp)
    bfd4:	48 8d 05 dd f9 00 00 	lea    0xf9dd(%rip),%rax        # 1b9b8 <g_157+0x358>
    bfdb:	48 89 85 00 f7 ff ff 	mov    %rax,-0x900(%rbp)
    bfe2:	48 8d 85 18 f3 ff ff 	lea    -0xce8(%rbp),%rax
    bfe9:	48 89 85 08 f7 ff ff 	mov    %rax,-0x8f8(%rbp)
    bff0:	48 8d 05 c1 f9 00 00 	lea    0xf9c1(%rip),%rax        # 1b9b8 <g_157+0x358>
    bff7:	48 89 85 10 f7 ff ff 	mov    %rax,-0x8f0(%rbp)
    bffe:	48 8d 85 18 f3 ff ff 	lea    -0xce8(%rbp),%rax
    c005:	48 89 85 18 f7 ff ff 	mov    %rax,-0x8e8(%rbp)
    c00c:	48 8d 05 a5 f9 00 00 	lea    0xf9a5(%rip),%rax        # 1b9b8 <g_157+0x358>
    c013:	48 89 85 20 f7 ff ff 	mov    %rax,-0x8e0(%rbp)
    c01a:	48 8d 85 18 f3 ff ff 	lea    -0xce8(%rbp),%rax
    c021:	48 89 85 28 f7 ff ff 	mov    %rax,-0x8d8(%rbp)
    c028:	48 8d 05 89 f9 00 00 	lea    0xf989(%rip),%rax        # 1b9b8 <g_157+0x358>
    c02f:	48 89 85 30 f7 ff ff 	mov    %rax,-0x8d0(%rbp)
    c036:	48 8d 85 18 f3 ff ff 	lea    -0xce8(%rbp),%rax
    c03d:	48 89 85 38 f7 ff ff 	mov    %rax,-0x8c8(%rbp)
    c044:	48 8d 05 6d f9 00 00 	lea    0xf96d(%rip),%rax        # 1b9b8 <g_157+0x358>
    c04b:	48 89 85 40 f7 ff ff 	mov    %rax,-0x8c0(%rbp)
    c052:	48 8d 85 18 f3 ff ff 	lea    -0xce8(%rbp),%rax
    c059:	48 89 85 48 f7 ff ff 	mov    %rax,-0x8b8(%rbp)
    c060:	48 c7 85 28 f4 ff ff 	movq   $0x0,-0xbd8(%rbp)
    c067:	00 00 00 00 
    c06b:	48 8d 85 20 f3 ff ff 	lea    -0xce0(%rbp),%rax
    c072:	48 89 85 58 f3 ff ff 	mov    %rax,-0xca8(%rbp)
    c079:	48 8d 85 58 f3 ff ff 	lea    -0xca8(%rbp),%rax
    c080:	48 89 85 30 f4 ff ff 	mov    %rax,-0xbd0(%rbp)
    c087:	48 8d 05 92 04 01 00 	lea    0x10492(%rip),%rax        # 1c520 <g_1020>
    c08e:	48 89 85 d0 f5 ff ff 	mov    %rax,-0xa30(%rbp)
    c095:	48 8d 85 20 f3 ff ff 	lea    -0xce0(%rbp),%rax
    c09c:	48 89 85 d8 f5 ff ff 	mov    %rax,-0xa28(%rbp)
    c0a3:	48 8d 05 76 04 01 00 	lea    0x10476(%rip),%rax        # 1c520 <g_1020>
    c0aa:	48 89 85 e0 f5 ff ff 	mov    %rax,-0xa20(%rbp)
    c0b1:	48 8d 85 20 f3 ff ff 	lea    -0xce0(%rbp),%rax
    c0b8:	48 89 85 e8 f5 ff ff 	mov    %rax,-0xa18(%rbp)
    c0bf:	48 8d 05 5a 04 01 00 	lea    0x1045a(%rip),%rax        # 1c520 <g_1020>
    c0c6:	48 89 85 f0 f5 ff ff 	mov    %rax,-0xa10(%rbp)
    c0cd:	48 8d 85 20 f3 ff ff 	lea    -0xce0(%rbp),%rax
    c0d4:	48 89 85 f8 f5 ff ff 	mov    %rax,-0xa08(%rbp)
    c0db:	48 8d 05 3e 04 01 00 	lea    0x1043e(%rip),%rax        # 1c520 <g_1020>
    c0e2:	48 89 85 00 f6 ff ff 	mov    %rax,-0xa00(%rbp)
    c0e9:	48 8d 85 20 f3 ff ff 	lea    -0xce0(%rbp),%rax
    c0f0:	48 89 85 08 f6 ff ff 	mov    %rax,-0x9f8(%rbp)
    c0f7:	48 8d 85 d0 f5 ff ff 	lea    -0xa30(%rbp),%rax
    c0fe:	48 83 c0 38          	add    $0x38,%rax
    c102:	48 89 85 38 f4 ff ff 	mov    %rax,-0xbc8(%rbp)
    c109:	48 c7 85 40 f8 ff ff 	movq   $0x0,-0x7c0(%rbp)
    c110:	00 00 00 00 
    c114:	48 8d 85 20 f3 ff ff 	lea    -0xce0(%rbp),%rax
    c11b:	48 89 85 48 f8 ff ff 	mov    %rax,-0x7b8(%rbp)
    c122:	48 8d 85 20 f3 ff ff 	lea    -0xce0(%rbp),%rax
    c129:	48 89 85 50 f8 ff ff 	mov    %rax,-0x7b0(%rbp)
    c130:	48 8d 05 e9 03 01 00 	lea    0x103e9(%rip),%rax        # 1c520 <g_1020>
    c137:	48 89 85 58 f8 ff ff 	mov    %rax,-0x7a8(%rbp)
    c13e:	48 8d 05 db 03 01 00 	lea    0x103db(%rip),%rax        # 1c520 <g_1020>
    c145:	48 89 85 60 f8 ff ff 	mov    %rax,-0x7a0(%rbp)
    c14c:	48 c7 85 68 f8 ff ff 	movq   $0x0,-0x798(%rbp)
    c153:	00 00 00 00 
    c157:	48 c7 85 70 f8 ff ff 	movq   $0x0,-0x790(%rbp)
    c15e:	00 00 00 00 
    c162:	48 8d 05 b7 03 01 00 	lea    0x103b7(%rip),%rax        # 1c520 <g_1020>
    c169:	48 89 85 78 f8 ff ff 	mov    %rax,-0x788(%rbp)
    c170:	48 8d 85 20 f3 ff ff 	lea    -0xce0(%rbp),%rax
    c177:	48 89 85 80 f8 ff ff 	mov    %rax,-0x780(%rbp)
    c17e:	48 c7 85 88 f8 ff ff 	movq   $0x0,-0x778(%rbp)
    c185:	00 00 00 00 
    c189:	48 8d 85 20 f3 ff ff 	lea    -0xce0(%rbp),%rax
    c190:	48 89 85 90 f8 ff ff 	mov    %rax,-0x770(%rbp)
    c197:	48 8d 05 82 03 01 00 	lea    0x10382(%rip),%rax        # 1c520 <g_1020>
    c19e:	48 89 85 98 f8 ff ff 	mov    %rax,-0x768(%rbp)
    c1a5:	48 c7 85 a0 f8 ff ff 	movq   $0x0,-0x760(%rbp)
    c1ac:	00 00 00 00 
    c1b0:	48 8d 85 20 f3 ff ff 	lea    -0xce0(%rbp),%rax
    c1b7:	48 89 85 a8 f8 ff ff 	mov    %rax,-0x758(%rbp)
    c1be:	48 8d 85 20 f3 ff ff 	lea    -0xce0(%rbp),%rax
    c1c5:	48 89 85 b0 f8 ff ff 	mov    %rax,-0x750(%rbp)
    c1cc:	48 c7 85 b8 f8 ff ff 	movq   $0x0,-0x748(%rbp)
    c1d3:	00 00 00 00 
    c1d7:	48 8d 05 42 03 01 00 	lea    0x10342(%rip),%rax        # 1c520 <g_1020>
    c1de:	48 89 85 c0 f8 ff ff 	mov    %rax,-0x740(%rbp)
    c1e5:	48 8d 85 20 f3 ff ff 	lea    -0xce0(%rbp),%rax
    c1ec:	48 89 85 c8 f8 ff ff 	mov    %rax,-0x738(%rbp)
    c1f3:	48 8d 05 26 03 01 00 	lea    0x10326(%rip),%rax        # 1c520 <g_1020>
    c1fa:	48 89 85 d0 f8 ff ff 	mov    %rax,-0x730(%rbp)
    c201:	48 8d 85 20 f3 ff ff 	lea    -0xce0(%rbp),%rax
    c208:	48 89 85 d8 f8 ff ff 	mov    %rax,-0x728(%rbp)
    c20f:	48 8d 05 0a 03 01 00 	lea    0x1030a(%rip),%rax        # 1c520 <g_1020>
    c216:	48 89 85 e0 f8 ff ff 	mov    %rax,-0x720(%rbp)
    c21d:	48 8d 05 fc 02 01 00 	lea    0x102fc(%rip),%rax        # 1c520 <g_1020>
    c224:	48 89 85 e8 f8 ff ff 	mov    %rax,-0x718(%rbp)
    c22b:	48 8d 05 ee 02 01 00 	lea    0x102ee(%rip),%rax        # 1c520 <g_1020>
    c232:	48 89 85 f0 f8 ff ff 	mov    %rax,-0x710(%rbp)
    c239:	48 8d 85 20 f3 ff ff 	lea    -0xce0(%rbp),%rax
    c240:	48 89 85 f8 f8 ff ff 	mov    %rax,-0x708(%rbp)
    c247:	48 8d 85 20 f3 ff ff 	lea    -0xce0(%rbp),%rax
    c24e:	48 89 85 00 f9 ff ff 	mov    %rax,-0x700(%rbp)
    c255:	48 c7 85 08 f9 ff ff 	movq   $0x0,-0x6f8(%rbp)
    c25c:	00 00 00 00 
    c260:	48 c7 85 10 f9 ff ff 	movq   $0x0,-0x6f0(%rbp)
    c267:	00 00 00 00 
    c26b:	48 8d 05 ae 02 01 00 	lea    0x102ae(%rip),%rax        # 1c520 <g_1020>
    c272:	48 89 85 18 f9 ff ff 	mov    %rax,-0x6e8(%rbp)
    c279:	48 8d 85 20 f3 ff ff 	lea    -0xce0(%rbp),%rax
    c280:	48 89 85 20 f9 ff ff 	mov    %rax,-0x6e0(%rbp)
    c287:	48 8d 85 20 f3 ff ff 	lea    -0xce0(%rbp),%rax
    c28e:	48 89 85 28 f9 ff ff 	mov    %rax,-0x6d8(%rbp)
    c295:	48 c7 85 30 f9 ff ff 	movq   $0x0,-0x6d0(%rbp)
    c29c:	00 00 00 00 
    c2a0:	48 8d 85 20 f3 ff ff 	lea    -0xce0(%rbp),%rax
    c2a7:	48 89 85 38 f9 ff ff 	mov    %rax,-0x6c8(%rbp)
    c2ae:	48 c7 85 40 f9 ff ff 	movq   $0x0,-0x6c0(%rbp)
    c2b5:	00 00 00 00 
    c2b9:	48 8d 05 60 02 01 00 	lea    0x10260(%rip),%rax        # 1c520 <g_1020>
    c2c0:	48 89 85 48 f9 ff ff 	mov    %rax,-0x6b8(%rbp)
    c2c7:	48 c7 85 50 f9 ff ff 	movq   $0x0,-0x6b0(%rbp)
    c2ce:	00 00 00 00 
    c2d2:	48 8d 05 47 02 01 00 	lea    0x10247(%rip),%rax        # 1c520 <g_1020>
    c2d9:	48 89 85 58 f9 ff ff 	mov    %rax,-0x6a8(%rbp)
    c2e0:	48 8d 05 39 02 01 00 	lea    0x10239(%rip),%rax        # 1c520 <g_1020>
    c2e7:	48 89 85 60 f9 ff ff 	mov    %rax,-0x6a0(%rbp)
    c2ee:	48 8d 85 20 f3 ff ff 	lea    -0xce0(%rbp),%rax
    c2f5:	48 89 85 68 f9 ff ff 	mov    %rax,-0x698(%rbp)
    c2fc:	48 8d 85 20 f3 ff ff 	lea    -0xce0(%rbp),%rax
    c303:	48 89 85 70 f9 ff ff 	mov    %rax,-0x690(%rbp)
    c30a:	48 8d 05 0f 02 01 00 	lea    0x1020f(%rip),%rax        # 1c520 <g_1020>
    c311:	48 89 85 78 f9 ff ff 	mov    %rax,-0x688(%rbp)
    c318:	48 c7 85 80 f9 ff ff 	movq   $0x0,-0x680(%rbp)
    c31f:	00 00 00 00 
    c323:	48 8d 05 f6 01 01 00 	lea    0x101f6(%rip),%rax        # 1c520 <g_1020>
    c32a:	48 89 85 88 f9 ff ff 	mov    %rax,-0x678(%rbp)
    c331:	48 8d 85 20 f3 ff ff 	lea    -0xce0(%rbp),%rax
    c338:	48 89 85 90 f9 ff ff 	mov    %rax,-0x670(%rbp)
    c33f:	48 c7 85 98 f9 ff ff 	movq   $0x0,-0x668(%rbp)
    c346:	00 00 00 00 
    c34a:	48 8d 85 20 f3 ff ff 	lea    -0xce0(%rbp),%rax
    c351:	48 89 85 a0 f9 ff ff 	mov    %rax,-0x660(%rbp)
    c358:	48 8d 05 c1 01 01 00 	lea    0x101c1(%rip),%rax        # 1c520 <g_1020>
    c35f:	48 89 85 a8 f9 ff ff 	mov    %rax,-0x658(%rbp)
    c366:	48 8d 85 20 f3 ff ff 	lea    -0xce0(%rbp),%rax
    c36d:	48 89 85 b0 f9 ff ff 	mov    %rax,-0x650(%rbp)
    c374:	48 8d 85 20 f3 ff ff 	lea    -0xce0(%rbp),%rax
    c37b:	48 89 85 b8 f9 ff ff 	mov    %rax,-0x648(%rbp)
    c382:	48 8d 05 97 01 01 00 	lea    0x10197(%rip),%rax        # 1c520 <g_1020>
    c389:	48 89 85 c0 f9 ff ff 	mov    %rax,-0x640(%rbp)
    c390:	48 8d 05 89 01 01 00 	lea    0x10189(%rip),%rax        # 1c520 <g_1020>
    c397:	48 89 85 c8 f9 ff ff 	mov    %rax,-0x638(%rbp)
    c39e:	48 8d 05 7b 01 01 00 	lea    0x1017b(%rip),%rax        # 1c520 <g_1020>
    c3a5:	48 89 85 d0 f9 ff ff 	mov    %rax,-0x630(%rbp)
    c3ac:	48 8d 85 20 f3 ff ff 	lea    -0xce0(%rbp),%rax
    c3b3:	48 89 85 d8 f9 ff ff 	mov    %rax,-0x628(%rbp)
    c3ba:	48 8d 05 5f 01 01 00 	lea    0x1015f(%rip),%rax        # 1c520 <g_1020>
    c3c1:	48 89 85 e0 f9 ff ff 	mov    %rax,-0x620(%rbp)
    c3c8:	48 8d 05 51 01 01 00 	lea    0x10151(%rip),%rax        # 1c520 <g_1020>
    c3cf:	48 89 85 e8 f9 ff ff 	mov    %rax,-0x618(%rbp)
    c3d6:	48 8d 85 20 f3 ff ff 	lea    -0xce0(%rbp),%rax
    c3dd:	48 89 85 f0 f9 ff ff 	mov    %rax,-0x610(%rbp)
    c3e4:	48 8d 05 35 01 01 00 	lea    0x10135(%rip),%rax        # 1c520 <g_1020>
    c3eb:	48 89 85 f8 f9 ff ff 	mov    %rax,-0x608(%rbp)
    c3f2:	48 8d 05 27 01 01 00 	lea    0x10127(%rip),%rax        # 1c520 <g_1020>
    c3f9:	48 89 85 00 fa ff ff 	mov    %rax,-0x600(%rbp)
    c400:	48 c7 85 08 fa ff ff 	movq   $0x0,-0x5f8(%rbp)
    c407:	00 00 00 00 
    c40b:	48 8d 85 20 f3 ff ff 	lea    -0xce0(%rbp),%rax
    c412:	48 89 85 10 fa ff ff 	mov    %rax,-0x5f0(%rbp)
    c419:	48 8d 05 00 01 01 00 	lea    0x10100(%rip),%rax        # 1c520 <g_1020>
    c420:	48 89 85 18 fa ff ff 	mov    %rax,-0x5e8(%rbp)
    c427:	48 c7 85 20 fa ff ff 	movq   $0x0,-0x5e0(%rbp)
    c42e:	00 00 00 00 
    c432:	48 8d 85 20 f3 ff ff 	lea    -0xce0(%rbp),%rax
    c439:	48 89 85 28 fa ff ff 	mov    %rax,-0x5d8(%rbp)
    c440:	48 8d 85 20 f3 ff ff 	lea    -0xce0(%rbp),%rax
    c447:	48 89 85 30 fa ff ff 	mov    %rax,-0x5d0(%rbp)
    c44e:	48 c7 85 38 fa ff ff 	movq   $0x0,-0x5c8(%rbp)
    c455:	00 00 00 00 
    c459:	48 8d 85 20 f3 ff ff 	lea    -0xce0(%rbp),%rax
    c460:	48 89 85 40 fa ff ff 	mov    %rax,-0x5c0(%rbp)
    c467:	48 8d 05 b2 00 01 00 	lea    0x100b2(%rip),%rax        # 1c520 <g_1020>
    c46e:	48 89 85 48 fa ff ff 	mov    %rax,-0x5b8(%rbp)
    c475:	48 8d 85 20 f3 ff ff 	lea    -0xce0(%rbp),%rax
    c47c:	48 89 85 50 fa ff ff 	mov    %rax,-0x5b0(%rbp)
    c483:	48 8d 85 20 f3 ff ff 	lea    -0xce0(%rbp),%rax
    c48a:	48 89 85 58 fa ff ff 	mov    %rax,-0x5a8(%rbp)
    c491:	48 8d 05 88 00 01 00 	lea    0x10088(%rip),%rax        # 1c520 <g_1020>
    c498:	48 89 85 60 fa ff ff 	mov    %rax,-0x5a0(%rbp)
    c49f:	48 8d 85 20 f3 ff ff 	lea    -0xce0(%rbp),%rax
    c4a6:	48 89 85 68 fa ff ff 	mov    %rax,-0x598(%rbp)
    c4ad:	48 8d 05 6c 00 01 00 	lea    0x1006c(%rip),%rax        # 1c520 <g_1020>
    c4b4:	48 89 85 70 fa ff ff 	mov    %rax,-0x590(%rbp)
    c4bb:	48 8d 05 5e 00 01 00 	lea    0x1005e(%rip),%rax        # 1c520 <g_1020>
    c4c2:	48 89 85 78 fa ff ff 	mov    %rax,-0x588(%rbp)
    c4c9:	48 8d 05 50 00 01 00 	lea    0x10050(%rip),%rax        # 1c520 <g_1020>
    c4d0:	48 89 85 80 fa ff ff 	mov    %rax,-0x580(%rbp)
    c4d7:	48 8d 85 20 f3 ff ff 	lea    -0xce0(%rbp),%rax
    c4de:	48 89 85 88 fa ff ff 	mov    %rax,-0x578(%rbp)
    c4e5:	48 8d 85 20 f3 ff ff 	lea    -0xce0(%rbp),%rax
    c4ec:	48 89 85 90 fa ff ff 	mov    %rax,-0x570(%rbp)
    c4f3:	48 8d 05 26 00 01 00 	lea    0x10026(%rip),%rax        # 1c520 <g_1020>
    c4fa:	48 89 85 98 fa ff ff 	mov    %rax,-0x568(%rbp)
    c501:	48 c7 85 a0 fa ff ff 	movq   $0x0,-0x560(%rbp)
    c508:	00 00 00 00 
    c50c:	48 8d 85 20 f3 ff ff 	lea    -0xce0(%rbp),%rax
    c513:	48 89 85 a8 fa ff ff 	mov    %rax,-0x558(%rbp)
    c51a:	48 8d 85 20 f3 ff ff 	lea    -0xce0(%rbp),%rax
    c521:	48 89 85 b0 fa ff ff 	mov    %rax,-0x550(%rbp)
    c528:	48 8d 85 20 f3 ff ff 	lea    -0xce0(%rbp),%rax
    c52f:	48 89 85 b8 fa ff ff 	mov    %rax,-0x548(%rbp)
    c536:	48 8d 05 e3 ff 00 00 	lea    0xffe3(%rip),%rax        # 1c520 <g_1020>
    c53d:	48 89 85 c0 fa ff ff 	mov    %rax,-0x540(%rbp)
    c544:	48 8d 05 d5 ff 00 00 	lea    0xffd5(%rip),%rax        # 1c520 <g_1020>
    c54b:	48 89 85 c8 fa ff ff 	mov    %rax,-0x538(%rbp)
    c552:	48 8d 05 c7 ff 00 00 	lea    0xffc7(%rip),%rax        # 1c520 <g_1020>
    c559:	48 89 85 d0 fa ff ff 	mov    %rax,-0x530(%rbp)
    c560:	48 8d 85 20 f3 ff ff 	lea    -0xce0(%rbp),%rax
    c567:	48 89 85 d8 fa ff ff 	mov    %rax,-0x528(%rbp)
    c56e:	48 8d 05 ab ff 00 00 	lea    0xffab(%rip),%rax        # 1c520 <g_1020>
    c575:	48 89 85 e0 fa ff ff 	mov    %rax,-0x520(%rbp)
    c57c:	48 8d 85 20 f3 ff ff 	lea    -0xce0(%rbp),%rax
    c583:	48 89 85 e8 fa ff ff 	mov    %rax,-0x518(%rbp)
    c58a:	48 8d 05 8f ff 00 00 	lea    0xff8f(%rip),%rax        # 1c520 <g_1020>
    c591:	48 89 85 f0 fa ff ff 	mov    %rax,-0x510(%rbp)
    c598:	48 8d 05 81 ff 00 00 	lea    0xff81(%rip),%rax        # 1c520 <g_1020>
    c59f:	48 89 85 f8 fa ff ff 	mov    %rax,-0x508(%rbp)
    c5a6:	48 8d 05 73 ff 00 00 	lea    0xff73(%rip),%rax        # 1c520 <g_1020>
    c5ad:	48 89 85 00 fb ff ff 	mov    %rax,-0x500(%rbp)
    c5b4:	48 8d 85 20 f3 ff ff 	lea    -0xce0(%rbp),%rax
    c5bb:	48 89 85 08 fb ff ff 	mov    %rax,-0x4f8(%rbp)
    c5c2:	48 c7 85 10 fb ff ff 	movq   $0x0,-0x4f0(%rbp)
    c5c9:	00 00 00 00 
    c5cd:	48 8d 05 4c ff 00 00 	lea    0xff4c(%rip),%rax        # 1c520 <g_1020>
    c5d4:	48 89 85 18 fb ff ff 	mov    %rax,-0x4e8(%rbp)
    c5db:	48 8d 85 20 f3 ff ff 	lea    -0xce0(%rbp),%rax
    c5e2:	48 89 85 20 fb ff ff 	mov    %rax,-0x4e0(%rbp)
    c5e9:	48 c7 85 28 fb ff ff 	movq   $0x0,-0x4d8(%rbp)
    c5f0:	00 00 00 00 
    c5f4:	48 8d 85 20 f3 ff ff 	lea    -0xce0(%rbp),%rax
    c5fb:	48 89 85 30 fb ff ff 	mov    %rax,-0x4d0(%rbp)
    c602:	48 c7 85 38 fb ff ff 	movq   $0x0,-0x4c8(%rbp)
    c609:	00 00 00 00 
    c60d:	48 8d 85 20 f3 ff ff 	lea    -0xce0(%rbp),%rax
    c614:	48 89 85 40 fb ff ff 	mov    %rax,-0x4c0(%rbp)
    c61b:	48 c7 85 48 fb ff ff 	movq   $0x0,-0x4b8(%rbp)
    c622:	00 00 00 00 
    c626:	48 8d 05 f3 fe 00 00 	lea    0xfef3(%rip),%rax        # 1c520 <g_1020>
    c62d:	48 89 85 50 fb ff ff 	mov    %rax,-0x4b0(%rbp)
    c634:	48 8d 85 20 f3 ff ff 	lea    -0xce0(%rbp),%rax
    c63b:	48 89 85 58 fb ff ff 	mov    %rax,-0x4a8(%rbp)
    c642:	48 8d 85 20 f3 ff ff 	lea    -0xce0(%rbp),%rax
    c649:	48 89 85 60 fb ff ff 	mov    %rax,-0x4a0(%rbp)
    c650:	48 8d 85 20 f3 ff ff 	lea    -0xce0(%rbp),%rax
    c657:	48 89 85 68 fb ff ff 	mov    %rax,-0x498(%rbp)
    c65e:	48 8d 05 bb fe 00 00 	lea    0xfebb(%rip),%rax        # 1c520 <g_1020>
    c665:	48 89 85 70 fb ff ff 	mov    %rax,-0x490(%rbp)
    c66c:	48 8d 05 ad fe 00 00 	lea    0xfead(%rip),%rax        # 1c520 <g_1020>
    c673:	48 89 85 78 fb ff ff 	mov    %rax,-0x488(%rbp)
    c67a:	48 8d 85 20 f3 ff ff 	lea    -0xce0(%rbp),%rax
    c681:	48 89 85 80 fb ff ff 	mov    %rax,-0x480(%rbp)
    c688:	48 8d 85 20 f3 ff ff 	lea    -0xce0(%rbp),%rax
    c68f:	48 89 85 88 fb ff ff 	mov    %rax,-0x478(%rbp)
    c696:	48 8d 05 83 fe 00 00 	lea    0xfe83(%rip),%rax        # 1c520 <g_1020>
    c69d:	48 89 85 90 fb ff ff 	mov    %rax,-0x470(%rbp)
    c6a4:	48 c7 85 98 fb ff ff 	movq   $0x0,-0x468(%rbp)
    c6ab:	00 00 00 00 
    c6af:	48 8d 85 20 f3 ff ff 	lea    -0xce0(%rbp),%rax
    c6b6:	48 89 85 a0 fb ff ff 	mov    %rax,-0x460(%rbp)
    c6bd:	48 8d 85 20 f3 ff ff 	lea    -0xce0(%rbp),%rax
    c6c4:	48 89 85 a8 fb ff ff 	mov    %rax,-0x458(%rbp)
    c6cb:	48 8d 85 20 f3 ff ff 	lea    -0xce0(%rbp),%rax
    c6d2:	48 89 85 b0 fb ff ff 	mov    %rax,-0x450(%rbp)
    c6d9:	48 8d 85 20 f3 ff ff 	lea    -0xce0(%rbp),%rax
    c6e0:	48 89 85 b8 fb ff ff 	mov    %rax,-0x448(%rbp)
    c6e7:	48 c7 85 c0 fb ff ff 	movq   $0x0,-0x440(%rbp)
    c6ee:	00 00 00 00 
    c6f2:	48 8d 05 27 fe 00 00 	lea    0xfe27(%rip),%rax        # 1c520 <g_1020>
    c6f9:	48 89 85 c8 fb ff ff 	mov    %rax,-0x438(%rbp)
    c700:	48 8d 85 20 f3 ff ff 	lea    -0xce0(%rbp),%rax
    c707:	48 89 85 d0 fb ff ff 	mov    %rax,-0x430(%rbp)
    c70e:	48 8d 85 20 f3 ff ff 	lea    -0xce0(%rbp),%rax
    c715:	48 89 85 d8 fb ff ff 	mov    %rax,-0x428(%rbp)
    c71c:	48 c7 85 e0 fb ff ff 	movq   $0x0,-0x420(%rbp)
    c723:	00 00 00 00 
    c727:	48 c7 85 e8 fb ff ff 	movq   $0x0,-0x418(%rbp)
    c72e:	00 00 00 00 
    c732:	48 8d 05 e7 fd 00 00 	lea    0xfde7(%rip),%rax        # 1c520 <g_1020>
    c739:	48 89 85 f0 fb ff ff 	mov    %rax,-0x410(%rbp)
    c740:	48 c7 85 f8 fb ff ff 	movq   $0x0,-0x408(%rbp)
    c747:	00 00 00 00 
    c74b:	48 8d 85 20 f3 ff ff 	lea    -0xce0(%rbp),%rax
    c752:	48 89 85 00 fc ff ff 	mov    %rax,-0x400(%rbp)
    c759:	48 8d 85 20 f3 ff ff 	lea    -0xce0(%rbp),%rax
    c760:	48 89 85 08 fc ff ff 	mov    %rax,-0x3f8(%rbp)
    c767:	48 8d 85 20 f3 ff ff 	lea    -0xce0(%rbp),%rax
    c76e:	48 89 85 10 fc ff ff 	mov    %rax,-0x3f0(%rbp)
    c775:	48 8d 05 a4 fd 00 00 	lea    0xfda4(%rip),%rax        # 1c520 <g_1020>
    c77c:	48 89 85 18 fc ff ff 	mov    %rax,-0x3e8(%rbp)
    c783:	48 c7 85 20 fc ff ff 	movq   $0x0,-0x3e0(%rbp)
    c78a:	00 00 00 00 
    c78e:	48 8d 05 8b fd 00 00 	lea    0xfd8b(%rip),%rax        # 1c520 <g_1020>
    c795:	48 89 85 28 fc ff ff 	mov    %rax,-0x3d8(%rbp)
    c79c:	48 8d 85 20 f3 ff ff 	lea    -0xce0(%rbp),%rax
    c7a3:	48 89 85 30 fc ff ff 	mov    %rax,-0x3d0(%rbp)
    c7aa:	48 8d 05 6f fd 00 00 	lea    0xfd6f(%rip),%rax        # 1c520 <g_1020>
    c7b1:	48 89 85 38 fc ff ff 	mov    %rax,-0x3c8(%rbp)
    c7b8:	48 8d 85 20 f3 ff ff 	lea    -0xce0(%rbp),%rax
    c7bf:	48 89 85 40 fc ff ff 	mov    %rax,-0x3c0(%rbp)
    c7c6:	48 8d 05 53 fd 00 00 	lea    0xfd53(%rip),%rax        # 1c520 <g_1020>
    c7cd:	48 89 85 48 fc ff ff 	mov    %rax,-0x3b8(%rbp)
    c7d4:	48 8d 85 20 f3 ff ff 	lea    -0xce0(%rbp),%rax
    c7db:	48 89 85 50 fc ff ff 	mov    %rax,-0x3b0(%rbp)
    c7e2:	48 c7 85 58 fc ff ff 	movq   $0x0,-0x3a8(%rbp)
    c7e9:	00 00 00 00 
    c7ed:	48 8d 85 20 f3 ff ff 	lea    -0xce0(%rbp),%rax
    c7f4:	48 89 85 60 fc ff ff 	mov    %rax,-0x3a0(%rbp)
    c7fb:	48 c7 85 68 fc ff ff 	movq   $0x0,-0x398(%rbp)
    c802:	00 00 00 00 
    c806:	48 8d 05 13 fd 00 00 	lea    0xfd13(%rip),%rax        # 1c520 <g_1020>
    c80d:	48 89 85 70 fc ff ff 	mov    %rax,-0x390(%rbp)
    c814:	48 8d 85 20 f3 ff ff 	lea    -0xce0(%rbp),%rax
    c81b:	48 89 85 78 fc ff ff 	mov    %rax,-0x388(%rbp)
    c822:	48 c7 85 80 fc ff ff 	movq   $0x0,-0x380(%rbp)
    c829:	00 00 00 00 
    c82d:	48 c7 85 88 fc ff ff 	movq   $0x0,-0x378(%rbp)
    c834:	00 00 00 00 
    c838:	48 8d 05 e1 fc 00 00 	lea    0xfce1(%rip),%rax        # 1c520 <g_1020>
    c83f:	48 89 85 90 fc ff ff 	mov    %rax,-0x370(%rbp)
    c846:	48 8d 05 d3 fc 00 00 	lea    0xfcd3(%rip),%rax        # 1c520 <g_1020>
    c84d:	48 89 85 98 fc ff ff 	mov    %rax,-0x368(%rbp)
    c854:	48 8d 85 20 f3 ff ff 	lea    -0xce0(%rbp),%rax
    c85b:	48 89 85 a0 fc ff ff 	mov    %rax,-0x360(%rbp)
    c862:	48 8d 05 b7 fc 00 00 	lea    0xfcb7(%rip),%rax        # 1c520 <g_1020>
    c869:	48 89 85 a8 fc ff ff 	mov    %rax,-0x358(%rbp)
    c870:	48 8d 85 20 f3 ff ff 	lea    -0xce0(%rbp),%rax
    c877:	48 89 85 b0 fc ff ff 	mov    %rax,-0x350(%rbp)
    c87e:	48 8d 85 20 f3 ff ff 	lea    -0xce0(%rbp),%rax
    c885:	48 89 85 b8 fc ff ff 	mov    %rax,-0x348(%rbp)
    c88c:	48 8d 05 8d fc 00 00 	lea    0xfc8d(%rip),%rax        # 1c520 <g_1020>
    c893:	48 89 85 c0 fc ff ff 	mov    %rax,-0x340(%rbp)
    c89a:	48 8d 85 20 f3 ff ff 	lea    -0xce0(%rbp),%rax
    c8a1:	48 89 85 c8 fc ff ff 	mov    %rax,-0x338(%rbp)
    c8a8:	48 8d 05 71 fc 00 00 	lea    0xfc71(%rip),%rax        # 1c520 <g_1020>
    c8af:	48 89 85 d0 fc ff ff 	mov    %rax,-0x330(%rbp)
    c8b6:	48 8d 85 20 f3 ff ff 	lea    -0xce0(%rbp),%rax
    c8bd:	48 89 85 d8 fc ff ff 	mov    %rax,-0x328(%rbp)
    c8c4:	48 8d 85 20 f3 ff ff 	lea    -0xce0(%rbp),%rax
    c8cb:	48 89 85 e0 fc ff ff 	mov    %rax,-0x320(%rbp)
    c8d2:	48 8d 05 47 fc 00 00 	lea    0xfc47(%rip),%rax        # 1c520 <g_1020>
    c8d9:	48 89 85 e8 fc ff ff 	mov    %rax,-0x318(%rbp)
    c8e0:	48 8d 05 39 fc 00 00 	lea    0xfc39(%rip),%rax        # 1c520 <g_1020>
    c8e7:	48 89 85 f0 fc ff ff 	mov    %rax,-0x310(%rbp)
    c8ee:	48 8d 05 2b fc 00 00 	lea    0xfc2b(%rip),%rax        # 1c520 <g_1020>
    c8f5:	48 89 85 f8 fc ff ff 	mov    %rax,-0x308(%rbp)
    c8fc:	48 8d 05 1d fc 00 00 	lea    0xfc1d(%rip),%rax        # 1c520 <g_1020>
    c903:	48 89 85 00 fd ff ff 	mov    %rax,-0x300(%rbp)
    c90a:	48 8d 05 0f fc 00 00 	lea    0xfc0f(%rip),%rax        # 1c520 <g_1020>
    c911:	48 89 85 08 fd ff ff 	mov    %rax,-0x2f8(%rbp)
    c918:	48 8d 05 01 fc 00 00 	lea    0xfc01(%rip),%rax        # 1c520 <g_1020>
    c91f:	48 89 85 10 fd ff ff 	mov    %rax,-0x2f0(%rbp)
    c926:	48 8d 85 20 f3 ff ff 	lea    -0xce0(%rbp),%rax
    c92d:	48 89 85 18 fd ff ff 	mov    %rax,-0x2e8(%rbp)
    c934:	48 8d 05 e5 fb 00 00 	lea    0xfbe5(%rip),%rax        # 1c520 <g_1020>
    c93b:	48 89 85 20 fd ff ff 	mov    %rax,-0x2e0(%rbp)
    c942:	48 c7 85 28 fd ff ff 	movq   $0x0,-0x2d8(%rbp)
    c949:	00 00 00 00 
    c94d:	48 8d 85 20 f3 ff ff 	lea    -0xce0(%rbp),%rax
    c954:	48 89 85 30 fd ff ff 	mov    %rax,-0x2d0(%rbp)
    c95b:	48 8d 05 be fb 00 00 	lea    0xfbbe(%rip),%rax        # 1c520 <g_1020>
    c962:	48 89 85 38 fd ff ff 	mov    %rax,-0x2c8(%rbp)
    c969:	48 8d 05 b0 fb 00 00 	lea    0xfbb0(%rip),%rax        # 1c520 <g_1020>
    c970:	48 89 85 40 fd ff ff 	mov    %rax,-0x2c0(%rbp)
    c977:	48 c7 85 48 fd ff ff 	movq   $0x0,-0x2b8(%rbp)
    c97e:	00 00 00 00 
    c982:	48 8d 85 20 f3 ff ff 	lea    -0xce0(%rbp),%rax
    c989:	48 89 85 50 fd ff ff 	mov    %rax,-0x2b0(%rbp)
    c990:	48 8d 85 20 f3 ff ff 	lea    -0xce0(%rbp),%rax
    c997:	48 89 85 58 fd ff ff 	mov    %rax,-0x2a8(%rbp)
    c99e:	48 8d 05 7b fb 00 00 	lea    0xfb7b(%rip),%rax        # 1c520 <g_1020>
    c9a5:	48 89 85 60 fd ff ff 	mov    %rax,-0x2a0(%rbp)
    c9ac:	48 8d 85 20 f3 ff ff 	lea    -0xce0(%rbp),%rax
    c9b3:	48 89 85 68 fd ff ff 	mov    %rax,-0x298(%rbp)
    c9ba:	48 8d 05 5f fb 00 00 	lea    0xfb5f(%rip),%rax        # 1c520 <g_1020>
    c9c1:	48 89 85 70 fd ff ff 	mov    %rax,-0x290(%rbp)
    c9c8:	48 c7 85 78 fd ff ff 	movq   $0x0,-0x288(%rbp)
    c9cf:	00 00 00 00 
    c9d3:	48 8d 05 46 fb 00 00 	lea    0xfb46(%rip),%rax        # 1c520 <g_1020>
    c9da:	48 89 85 80 fd ff ff 	mov    %rax,-0x280(%rbp)
    c9e1:	48 c7 85 88 fd ff ff 	movq   $0x0,-0x278(%rbp)
    c9e8:	00 00 00 00 
    c9ec:	48 8d 85 20 f3 ff ff 	lea    -0xce0(%rbp),%rax
    c9f3:	48 89 85 90 fd ff ff 	mov    %rax,-0x270(%rbp)
    c9fa:	48 8d 85 20 f3 ff ff 	lea    -0xce0(%rbp),%rax
    ca01:	48 89 85 98 fd ff ff 	mov    %rax,-0x268(%rbp)
    ca08:	48 8d 05 11 fb 00 00 	lea    0xfb11(%rip),%rax        # 1c520 <g_1020>
    ca0f:	48 89 85 a0 fd ff ff 	mov    %rax,-0x260(%rbp)
    ca16:	48 8d 05 03 fb 00 00 	lea    0xfb03(%rip),%rax        # 1c520 <g_1020>
    ca1d:	48 89 85 a8 fd ff ff 	mov    %rax,-0x258(%rbp)
    ca24:	48 8d 05 f5 fa 00 00 	lea    0xfaf5(%rip),%rax        # 1c520 <g_1020>
    ca2b:	48 89 85 b0 fd ff ff 	mov    %rax,-0x250(%rbp)
    ca32:	48 8d 85 20 f3 ff ff 	lea    -0xce0(%rbp),%rax
    ca39:	48 89 85 b8 fd ff ff 	mov    %rax,-0x248(%rbp)
    ca40:	48 8d 85 20 f3 ff ff 	lea    -0xce0(%rbp),%rax
    ca47:	48 89 85 c0 fd ff ff 	mov    %rax,-0x240(%rbp)
    ca4e:	48 c7 85 c8 fd ff ff 	movq   $0x0,-0x238(%rbp)
    ca55:	00 00 00 00 
    ca59:	48 8d 85 20 f3 ff ff 	lea    -0xce0(%rbp),%rax
    ca60:	48 89 85 d0 fd ff ff 	mov    %rax,-0x230(%rbp)
    ca67:	48 c7 85 d8 fd ff ff 	movq   $0x0,-0x228(%rbp)
    ca6e:	00 00 00 00 
    ca72:	48 8d 85 20 f3 ff ff 	lea    -0xce0(%rbp),%rax
    ca79:	48 89 85 e0 fd ff ff 	mov    %rax,-0x220(%rbp)
    ca80:	48 8d 05 99 fa 00 00 	lea    0xfa99(%rip),%rax        # 1c520 <g_1020>
    ca87:	48 89 85 e8 fd ff ff 	mov    %rax,-0x218(%rbp)
    ca8e:	48 c7 85 f0 fd ff ff 	movq   $0x0,-0x210(%rbp)
    ca95:	00 00 00 00 
    ca99:	48 c7 85 f8 fd ff ff 	movq   $0x0,-0x208(%rbp)
    caa0:	00 00 00 00 
    caa4:	48 8d 85 20 f3 ff ff 	lea    -0xce0(%rbp),%rax
    caab:	48 89 85 00 fe ff ff 	mov    %rax,-0x200(%rbp)
    cab2:	48 8d 05 67 fa 00 00 	lea    0xfa67(%rip),%rax        # 1c520 <g_1020>
    cab9:	48 89 85 08 fe ff ff 	mov    %rax,-0x1f8(%rbp)
    cac0:	48 8d 85 20 f3 ff ff 	lea    -0xce0(%rbp),%rax
    cac7:	48 89 85 10 fe ff ff 	mov    %rax,-0x1f0(%rbp)
    cace:	48 8d 05 4b fa 00 00 	lea    0xfa4b(%rip),%rax        # 1c520 <g_1020>
    cad5:	48 89 85 18 fe ff ff 	mov    %rax,-0x1e8(%rbp)
    cadc:	48 8d 85 20 f3 ff ff 	lea    -0xce0(%rbp),%rax
    cae3:	48 89 85 20 fe ff ff 	mov    %rax,-0x1e0(%rbp)
    caea:	48 8d 05 2f fa 00 00 	lea    0xfa2f(%rip),%rax        # 1c520 <g_1020>
    caf1:	48 89 85 28 fe ff ff 	mov    %rax,-0x1d8(%rbp)
    caf8:	48 8d 05 21 fa 00 00 	lea    0xfa21(%rip),%rax        # 1c520 <g_1020>
    caff:	48 89 85 30 fe ff ff 	mov    %rax,-0x1d0(%rbp)
    cb06:	48 c7 85 38 fe ff ff 	movq   $0x0,-0x1c8(%rbp)
    cb0d:	00 00 00 00 
    cb11:	48 8d 85 20 f3 ff ff 	lea    -0xce0(%rbp),%rax
    cb18:	48 89 85 40 fe ff ff 	mov    %rax,-0x1c0(%rbp)
    cb1f:	48 c7 85 48 fe ff ff 	movq   $0x0,-0x1b8(%rbp)
    cb26:	00 00 00 00 
    cb2a:	48 8d 85 20 f3 ff ff 	lea    -0xce0(%rbp),%rax
    cb31:	48 89 85 50 fe ff ff 	mov    %rax,-0x1b0(%rbp)
    cb38:	48 8d 85 20 f3 ff ff 	lea    -0xce0(%rbp),%rax
    cb3f:	48 89 85 58 fe ff ff 	mov    %rax,-0x1a8(%rbp)
    cb46:	48 8d 05 d3 f9 00 00 	lea    0xf9d3(%rip),%rax        # 1c520 <g_1020>
    cb4d:	48 89 85 60 fe ff ff 	mov    %rax,-0x1a0(%rbp)
    cb54:	48 8d 85 20 f3 ff ff 	lea    -0xce0(%rbp),%rax
    cb5b:	48 89 85 68 fe ff ff 	mov    %rax,-0x198(%rbp)
    cb62:	48 8d 05 b7 f9 00 00 	lea    0xf9b7(%rip),%rax        # 1c520 <g_1020>
    cb69:	48 89 85 70 fe ff ff 	mov    %rax,-0x190(%rbp)
    cb70:	48 8d 05 a9 f9 00 00 	lea    0xf9a9(%rip),%rax        # 1c520 <g_1020>
    cb77:	48 89 85 78 fe ff ff 	mov    %rax,-0x188(%rbp)
    cb7e:	48 8d 05 9b f9 00 00 	lea    0xf99b(%rip),%rax        # 1c520 <g_1020>
    cb85:	48 89 85 80 fe ff ff 	mov    %rax,-0x180(%rbp)
    cb8c:	48 8d 85 20 f3 ff ff 	lea    -0xce0(%rbp),%rax
    cb93:	48 89 85 88 fe ff ff 	mov    %rax,-0x178(%rbp)
    cb9a:	48 8d 85 20 f3 ff ff 	lea    -0xce0(%rbp),%rax
    cba1:	48 89 85 90 fe ff ff 	mov    %rax,-0x170(%rbp)
    cba8:	48 c7 85 98 fe ff ff 	movq   $0x0,-0x168(%rbp)
    cbaf:	00 00 00 00 
    cbb3:	48 c7 85 a0 fe ff ff 	movq   $0x0,-0x160(%rbp)
    cbba:	00 00 00 00 
    cbbe:	48 8d 85 20 f3 ff ff 	lea    -0xce0(%rbp),%rax
    cbc5:	48 89 85 a8 fe ff ff 	mov    %rax,-0x158(%rbp)
    cbcc:	48 8d 85 20 f3 ff ff 	lea    -0xce0(%rbp),%rax
    cbd3:	48 89 85 b0 fe ff ff 	mov    %rax,-0x150(%rbp)
    cbda:	48 8d 85 20 f3 ff ff 	lea    -0xce0(%rbp),%rax
    cbe1:	48 89 85 b8 fe ff ff 	mov    %rax,-0x148(%rbp)
    cbe8:	48 8d 05 31 f9 00 00 	lea    0xf931(%rip),%rax        # 1c520 <g_1020>
    cbef:	48 89 85 c0 fe ff ff 	mov    %rax,-0x140(%rbp)
    cbf6:	48 8d 85 20 f3 ff ff 	lea    -0xce0(%rbp),%rax
    cbfd:	48 89 85 c8 fe ff ff 	mov    %rax,-0x138(%rbp)
    cc04:	48 c7 85 d0 fe ff ff 	movq   $0x0,-0x130(%rbp)
    cc0b:	00 00 00 00 
    cc0f:	48 8d 85 20 f3 ff ff 	lea    -0xce0(%rbp),%rax
    cc16:	48 89 85 d8 fe ff ff 	mov    %rax,-0x128(%rbp)
    cc1d:	48 8d 85 20 f3 ff ff 	lea    -0xce0(%rbp),%rax
    cc24:	48 89 85 e0 fe ff ff 	mov    %rax,-0x120(%rbp)
    cc2b:	48 8d 05 ee f8 00 00 	lea    0xf8ee(%rip),%rax        # 1c520 <g_1020>
    cc32:	48 89 85 e8 fe ff ff 	mov    %rax,-0x118(%rbp)
    cc39:	48 c7 85 f0 fe ff ff 	movq   $0x0,-0x110(%rbp)
    cc40:	00 00 00 00 
    cc44:	48 8d 85 20 f3 ff ff 	lea    -0xce0(%rbp),%rax
    cc4b:	48 89 85 f8 fe ff ff 	mov    %rax,-0x108(%rbp)
    cc52:	48 8d 85 40 f8 ff ff 	lea    -0x7c0(%rbp),%rax
    cc59:	48 05 70 03 00 00    	add    $0x370,%rax
    cc5f:	48 89 85 40 f4 ff ff 	mov    %rax,-0xbc0(%rbp)
    cc66:	66 c7 85 90 f2 ff ff 	movw   $0xd8e8,-0xd70(%rbp)
    cc6d:	e8 d8 
    cc6f:	48 8d 85 30 f3 ff ff 	lea    -0xcd0(%rbp),%rax
    cc76:	48 89 85 48 f4 ff ff 	mov    %rax,-0xbb8(%rbp)
    cc7d:	48 c7 85 50 f4 ff ff 	movq   $0x0,-0xbb0(%rbp)
    cc84:	00 00 00 00 
    cc88:	48 c7 85 58 f4 ff ff 	movq   $0x0,-0xba8(%rbp)
    cc8f:	00 00 00 00 
    cc93:	48 8d 05 0e c1 00 00 	lea    0xc10e(%rip),%rax        # 18da8 <g_1273>
    cc9a:	48 89 85 f0 f4 ff ff 	mov    %rax,-0xb10(%rbp)
    cca1:	48 8d 05 00 c1 00 00 	lea    0xc100(%rip),%rax        # 18da8 <g_1273>
    cca8:	48 89 85 f8 f4 ff ff 	mov    %rax,-0xb08(%rbp)
    ccaf:	48 8d 05 f2 c0 00 00 	lea    0xc0f2(%rip),%rax        # 18da8 <g_1273>
    ccb6:	48 89 85 00 f5 ff ff 	mov    %rax,-0xb00(%rbp)
    ccbd:	48 8d 05 e4 c0 00 00 	lea    0xc0e4(%rip),%rax        # 18da8 <g_1273>
    ccc4:	48 89 85 08 f5 ff ff 	mov    %rax,-0xaf8(%rbp)
    cccb:	48 8d 05 d6 c0 00 00 	lea    0xc0d6(%rip),%rax        # 18da8 <g_1273>
    ccd2:	48 89 85 10 f5 ff ff 	mov    %rax,-0xaf0(%rbp)
    ccd9:	48 8d 05 c8 c0 00 00 	lea    0xc0c8(%rip),%rax        # 18da8 <g_1273>
    cce0:	48 89 85 18 f5 ff ff 	mov    %rax,-0xae8(%rbp)
    cce7:	48 8d 05 ba c0 00 00 	lea    0xc0ba(%rip),%rax        # 18da8 <g_1273>
    ccee:	48 89 85 20 f5 ff ff 	mov    %rax,-0xae0(%rbp)
    ccf5:	48 c7 85 20 f6 ff ff 	movq   $0x0,-0x9e0(%rbp)
    ccfc:	00 00 00 00 
    cd00:	48 c7 85 28 f6 ff ff 	movq   $0x0,-0x9d8(%rbp)
    cd07:	00 00 00 00 
    cd0b:	48 c7 85 30 f6 ff ff 	movq   $0x0,-0x9d0(%rbp)
    cd12:	00 00 00 00 
    cd16:	48 c7 85 38 f6 ff ff 	movq   $0x0,-0x9c8(%rbp)
    cd1d:	00 00 00 00 
    cd21:	48 c7 85 40 f6 ff ff 	movq   $0x0,-0x9c0(%rbp)
    cd28:	00 00 00 00 
    cd2c:	48 c7 85 48 f6 ff ff 	movq   $0x0,-0x9b8(%rbp)
    cd33:	00 00 00 00 
    cd37:	48 c7 85 50 f6 ff ff 	movq   $0x0,-0x9b0(%rbp)
    cd3e:	00 00 00 00 
    cd42:	48 c7 85 58 f6 ff ff 	movq   $0x0,-0x9a8(%rbp)
    cd49:	00 00 00 00 
    cd4d:	48 c7 85 60 f6 ff ff 	movq   $0x0,-0x9a0(%rbp)
    cd54:	00 00 00 00 
    cd58:	48 8d 05 69 c3 00 00 	lea    0xc369(%rip),%rax        # 190c8 <g_147>
    cd5f:	48 89 85 60 f3 ff ff 	mov    %rax,-0xca0(%rbp)
    cd66:	48 8d 85 60 f3 ff ff 	lea    -0xca0(%rbp),%rax
    cd6d:	48 89 85 68 f3 ff ff 	mov    %rax,-0xc98(%rbp)
    cd74:	48 8d 85 68 f3 ff ff 	lea    -0xc98(%rbp),%rax
    cd7b:	48 89 85 60 f4 ff ff 	mov    %rax,-0xba0(%rbp)
    cd82:	c7 85 90 f4 ff ff 00 	movl   $0x0,-0xb70(%rbp)
    cd89:	00 00 00 
    cd8c:	c7 85 94 f4 ff ff ff 	movl   $0xffffffff,-0xb6c(%rbp)
    cd93:	ff ff ff 
    cd96:	c7 85 98 f4 ff ff 00 	movl   $0x0,-0xb68(%rbp)
    cd9d:	00 00 00 
    cda0:	c7 85 9c f4 ff ff ff 	movl   $0xffffffff,-0xb64(%rbp)
    cda7:	ff ff ff 
    cdaa:	c7 85 a0 f4 ff ff 00 	movl   $0x0,-0xb60(%rbp)
    cdb1:	00 00 00 
    cdb4:	c7 85 a4 f4 ff ff ff 	movl   $0xffffffff,-0xb5c(%rbp)
    cdbb:	ff ff ff 
    cdbe:	c7 85 a8 f4 ff ff 00 	movl   $0x0,-0xb58(%rbp)
    cdc5:	00 00 00 
    cdc8:	c7 85 ac f4 ff ff ff 	movl   $0xffffffff,-0xb54(%rbp)
    cdcf:	ff ff ff 
    cdd2:	c7 85 b0 f4 ff ff 00 	movl   $0x0,-0xb50(%rbp)
    cdd9:	00 00 00 
    cddc:	c7 85 b4 f4 ff ff ff 	movl   $0xffffffff,-0xb4c(%rbp)
    cde3:	ff ff ff 
    cde6:	48 8d 05 09 c3 00 00 	lea    0xc309(%rip),%rax        # 190f6 <g_285+0x6>
    cded:	48 89 85 68 f4 ff ff 	mov    %rax,-0xb98(%rbp)
    cdf4:	48 8d 05 bd c2 00 00 	lea    0xc2bd(%rip),%rax        # 190b8 <g_122>
    cdfb:	48 89 85 70 f3 ff ff 	mov    %rax,-0xc90(%rbp)
    ce02:	48 8d 85 70 f3 ff ff 	lea    -0xc90(%rbp),%rax
    ce09:	48 89 85 70 f4 ff ff 	mov    %rax,-0xb90(%rbp)
    ce10:	66 c7 85 92 f2 ff ff 	movw   $0x5c48,-0xd6e(%rbp)
    ce17:	48 5c 
    ce19:	c7 85 14 f3 ff ff fd 	movl   $0xfffffffd,-0xcec(%rbp)
    ce20:	ff ff ff 
    ce23:	c7 85 a0 f2 ff ff 00 	movl   $0x0,-0xd60(%rbp)
    ce2a:	00 00 00 
    ce2d:	eb 1a                	jmp    ce49 <func_11+0x12f0>
    ce2f:	8b 85 a0 f2 ff ff    	mov    -0xd60(%rbp),%eax
    ce35:	48 98                	cltq   
    ce37:	c7 84 85 80 f4 ff ff 	movl   $0x575c9315,-0xb80(%rbp,%rax,4)
    ce3e:	15 93 5c 57 
    ce42:	83 85 a0 f2 ff ff 01 	addl   $0x1,-0xd60(%rbp)
    ce49:	83 bd a0 f2 ff ff 03 	cmpl   $0x3,-0xd60(%rbp)
    ce50:	7e dd                	jle    ce2f <func_11+0x12d6>
    ce52:	48 8b 85 18 f3 ff ff 	mov    -0xce8(%rbp),%rax
    ce59:	8b 10                	mov    (%rax),%edx
    ce5b:	48 8b 85 18 f3 ff ff 	mov    -0xce8(%rbp),%rax
    ce62:	81 ca c6 47 a1 58    	or     $0x58a147c6,%edx
    ce68:	89 10                	mov    %edx,(%rax)
    ce6a:	48 8b 05 07 c3 00 00 	mov    0xc307(%rip),%rax        # 19178 <g_761>
    ce71:	be 07 00 00 00       	mov    $0x7,%esi
    ce76:	89 c7                	mov    %eax,%edi
    ce78:	e8 3b d0 ff ff       	callq  9eb8 <safe_add_func_uint32_t_u_u>
    ce7d:	89 c0                	mov    %eax,%eax
    ce7f:	48 89 05 f2 c2 00 00 	mov    %rax,0xc2f2(%rip)        # 19178 <g_761>
    ce86:	48 8b 05 eb c2 00 00 	mov    0xc2eb(%rip),%rax        # 19178 <g_761>
    ce8d:	48 83 f8 1c          	cmp    $0x1c,%rax
    ce91:	0f 8e 0d f1 ff ff    	jle    bfa4 <func_11+0x44b>
    ce97:	0f be 9d 70 f2 ff ff 	movsbl -0xd90(%rbp),%ebx
    ce9e:	48 8b 85 28 f3 ff ff 	mov    -0xcd8(%rbp),%rax
    cea5:	48 8b 10             	mov    (%rax),%rdx
    cea8:	48 8d 85 78 f2 ff ff 	lea    -0xd88(%rbp),%rax
    ceaf:	48 39 c2             	cmp    %rax,%rdx
    ceb2:	0f 94 c0             	sete   %al
    ceb5:	0f b6 d0             	movzbl %al,%edx
    ceb8:	8b 05 52 c3 00 00    	mov    0xc352(%rip),%eax        # 19210 <g_933+0x70>
    cebe:	39 c2                	cmp    %eax,%edx
    cec0:	0f 9f c0             	setg   %al
    cec3:	0f b6 c0             	movzbl %al,%eax
    cec6:	89 c6                	mov    %eax,%esi
    cec8:	bf fd ff 00 00       	mov    $0xfffd,%edi
    cecd:	e8 4d ce ff ff       	callq  9d1f <safe_sub_func_uint16_t_u_u>
    ced2:	48 8b 85 30 f3 ff ff 	mov    -0xcd0(%rbp),%rax
    ced9:	48 8b 00             	mov    (%rax),%rax
    cedc:	48 8b 00             	mov    (%rax),%rax
    cedf:	48 8b 00             	mov    (%rax),%rax
    cee2:	8b 00                	mov    (%rax),%eax
    cee4:	89 c2                	mov    %eax,%edx
    cee6:	48 8b 85 18 f3 ff ff 	mov    -0xce8(%rbp),%rax
    ceed:	8b 00                	mov    (%rax),%eax
    ceef:	0f b7 c0             	movzwl %ax,%eax
    cef2:	89 d6                	mov    %edx,%esi
    cef4:	89 c7                	mov    %eax,%edi
    cef6:	e8 7f cf ff ff       	callq  9e7a <safe_rshift_func_uint16_t_u_u>
    cefb:	0f b6 85 74 f2 ff ff 	movzbl -0xd8c(%rbp),%eax
    cf02:	be 6c 71 00 00       	mov    $0x716c,%esi
    cf07:	89 c7                	mov    %eax,%edi
    cf09:	e8 e7 c4 ff ff       	callq  93f5 <safe_mul_func_int16_t_s_s>
    cf0e:	48 8b 85 30 f3 ff ff 	mov    -0xcd0(%rbp),%rax
    cf15:	48 8b 00             	mov    (%rax),%rax
    cf18:	48 8b 00             	mov    (%rax),%rax
    cf1b:	48 8b 00             	mov    (%rax),%rax
    cf1e:	8b 00                	mov    (%rax),%eax
    cf20:	83 c8 01             	or     $0x1,%eax
    cf23:	89 c2                	mov    %eax,%edx
    cf25:	0f be 85 70 f2 ff ff 	movsbl -0xd90(%rbp),%eax
    cf2c:	39 c2                	cmp    %eax,%edx
    cf2e:	0f 9d c0             	setge  %al
    cf31:	0f b6 d0             	movzbl %al,%edx
    cf34:	0f be 85 70 f2 ff ff 	movsbl -0xd90(%rbp),%eax
    cf3b:	39 c2                	cmp    %eax,%edx
    cf3d:	0f 9c c0             	setl   %al
    cf40:	0f b6 d0             	movzbl %al,%edx
    cf43:	0f be 85 70 f2 ff ff 	movsbl -0xd90(%rbp),%eax
    cf4a:	39 c2                	cmp    %eax,%edx
    cf4c:	0f 95 c0             	setne  %al
    cf4f:	0f b6 c8             	movzbl %al,%ecx
    cf52:	48 8b 85 20 f3 ff ff 	mov    -0xce0(%rbp),%rax
    cf59:	0f b7 10             	movzwl (%rax),%edx
    cf5c:	48 8b 85 20 f3 ff ff 	mov    -0xce0(%rbp),%rax
    cf63:	31 ca                	xor    %ecx,%edx
    cf65:	66 89 10             	mov    %dx,(%rax)
    cf68:	0f b7 10             	movzwl (%rax),%edx
    cf6b:	66 0f be 85 70 f2 ff 	movsbw -0xd90(%rbp),%ax
    cf72:	ff 
    cf73:	66 39 c2             	cmp    %ax,%dx
    cf76:	0f 95 c0             	setne  %al
    cf79:	0f b6 c0             	movzbl %al,%eax
    cf7c:	89 de                	mov    %ebx,%esi
    cf7e:	89 c7                	mov    %eax,%edi
    cf80:	e8 81 ce ff ff       	callq  9e06 <safe_lshift_func_uint16_t_u_u>
    cf85:	89 c2                	mov    %eax,%edx
    cf87:	48 8b 05 ba e6 00 00 	mov    0xe6ba(%rip),%rax        # 1b648 <g_143>
    cf8e:	48 8b 00             	mov    (%rax),%rax
    cf91:	0f b7 d2             	movzwl %dx,%edx
    cf94:	89 10                	mov    %edx,(%rax)
    cf96:	0f b6 85 74 f2 ff ff 	movzbl -0xd8c(%rbp),%eax
    cf9d:	be 05 00 00 00       	mov    $0x5,%esi
    cfa2:	89 c7                	mov    %eax,%edi
    cfa4:	e8 a3 cc ff ff       	callq  9c4c <safe_lshift_func_uint8_t_u_u>
    cfa9:	84 c0                	test   %al,%al
    cfab:	0f 84 bf 0f 00 00    	je     df70 <func_11+0x2417>
    cfb1:	48 8d 05 58 c2 00 00 	lea    0xc258(%rip),%rax        # 19210 <g_933+0x70>
    cfb8:	48 89 85 e8 f3 ff ff 	mov    %rax,-0xc18(%rbp)
    cfbf:	48 c7 85 f0 f3 ff ff 	movq   $0x0,-0xc10(%rbp)
    cfc6:	00 00 00 00 
    cfca:	48 c7 85 d0 f5 ff ff 	movq   $0x0,-0xa30(%rbp)
    cfd1:	00 00 00 00 
    cfd5:	48 8d 85 7c f4 ff ff 	lea    -0xb84(%rbp),%rax
    cfdc:	48 89 85 d8 f5 ff ff 	mov    %rax,-0xa28(%rbp)
    cfe3:	48 8d 85 7c f4 ff ff 	lea    -0xb84(%rbp),%rax
    cfea:	48 89 85 e0 f5 ff ff 	mov    %rax,-0xa20(%rbp)
    cff1:	48 c7 85 e8 f5 ff ff 	movq   $0x0,-0xa18(%rbp)
    cff8:	00 00 00 00 
    cffc:	48 8d 05 2d c0 00 00 	lea    0xc02d(%rip),%rax        # 19030 <g_43>
    d003:	48 89 85 f0 f5 ff ff 	mov    %rax,-0xa10(%rbp)
    d00a:	48 c7 85 f8 f5 ff ff 	movq   $0x0,-0xa08(%rbp)
    d011:	00 00 00 00 
    d015:	48 8d 85 7c f4 ff ff 	lea    -0xb84(%rbp),%rax
    d01c:	48 89 85 00 f6 ff ff 	mov    %rax,-0xa00(%rbp)
    d023:	48 8d 85 7c f4 ff ff 	lea    -0xb84(%rbp),%rax
    d02a:	48 89 85 08 f6 ff ff 	mov    %rax,-0x9f8(%rbp)
    d031:	48 c7 85 10 f6 ff ff 	movq   $0x0,-0x9f0(%rbp)
    d038:	00 00 00 00 
    d03c:	48 8d 05 ed bf 00 00 	lea    0xbfed(%rip),%rax        # 19030 <g_43>
    d043:	48 89 85 18 f6 ff ff 	mov    %rax,-0x9e8(%rbp)
    d04a:	48 8d 85 94 f2 ff ff 	lea    -0xd6c(%rbp),%rax
    d051:	48 89 85 70 f3 ff ff 	mov    %rax,-0xc90(%rbp)
    d058:	48 8d 85 70 f3 ff ff 	lea    -0xc90(%rbp),%rax
    d05f:	48 89 85 00 f7 ff ff 	mov    %rax,-0x900(%rbp)
    d066:	48 8d 85 70 f3 ff ff 	lea    -0xc90(%rbp),%rax
    d06d:	48 89 85 08 f7 ff ff 	mov    %rax,-0x8f8(%rbp)
    d074:	48 8d 85 70 f3 ff ff 	lea    -0xc90(%rbp),%rax
    d07b:	48 89 85 10 f7 ff ff 	mov    %rax,-0x8f0(%rbp)
    d082:	48 8d 85 70 f3 ff ff 	lea    -0xc90(%rbp),%rax
    d089:	48 89 85 18 f7 ff ff 	mov    %rax,-0x8e8(%rbp)
    d090:	48 8d 85 70 f3 ff ff 	lea    -0xc90(%rbp),%rax
    d097:	48 89 85 20 f7 ff ff 	mov    %rax,-0x8e0(%rbp)
    d09e:	48 8d 85 70 f3 ff ff 	lea    -0xc90(%rbp),%rax
    d0a5:	48 89 85 28 f7 ff ff 	mov    %rax,-0x8d8(%rbp)
    d0ac:	48 8d 85 70 f3 ff ff 	lea    -0xc90(%rbp),%rax
    d0b3:	48 89 85 30 f7 ff ff 	mov    %rax,-0x8d0(%rbp)
    d0ba:	48 8d 85 70 f3 ff ff 	lea    -0xc90(%rbp),%rax
    d0c1:	48 89 85 38 f7 ff ff 	mov    %rax,-0x8c8(%rbp)
    d0c8:	48 8d 85 70 f3 ff ff 	lea    -0xc90(%rbp),%rax
    d0cf:	48 89 85 40 f7 ff ff 	mov    %rax,-0x8c0(%rbp)
    d0d6:	48 8d 85 70 f3 ff ff 	lea    -0xc90(%rbp),%rax
    d0dd:	48 89 85 48 f7 ff ff 	mov    %rax,-0x8b8(%rbp)
    d0e4:	48 8d 85 70 f3 ff ff 	lea    -0xc90(%rbp),%rax
    d0eb:	48 89 85 50 f7 ff ff 	mov    %rax,-0x8b0(%rbp)
    d0f2:	48 8d 85 70 f3 ff ff 	lea    -0xc90(%rbp),%rax
    d0f9:	48 89 85 58 f7 ff ff 	mov    %rax,-0x8a8(%rbp)
    d100:	48 8d 85 70 f3 ff ff 	lea    -0xc90(%rbp),%rax
    d107:	48 89 85 60 f7 ff ff 	mov    %rax,-0x8a0(%rbp)
    d10e:	48 c7 85 68 f7 ff ff 	movq   $0x0,-0x898(%rbp)
    d115:	00 00 00 00 
    d119:	48 c7 85 70 f7 ff ff 	movq   $0x0,-0x890(%rbp)
    d120:	00 00 00 00 
    d124:	48 8d 85 70 f3 ff ff 	lea    -0xc90(%rbp),%rax
    d12b:	48 89 85 78 f7 ff ff 	mov    %rax,-0x888(%rbp)
    d132:	48 8d 85 70 f3 ff ff 	lea    -0xc90(%rbp),%rax
    d139:	48 89 85 80 f7 ff ff 	mov    %rax,-0x880(%rbp)
    d140:	48 8d 85 70 f3 ff ff 	lea    -0xc90(%rbp),%rax
    d147:	48 89 85 88 f7 ff ff 	mov    %rax,-0x878(%rbp)
    d14e:	48 8d 85 70 f3 ff ff 	lea    -0xc90(%rbp),%rax
    d155:	48 89 85 90 f7 ff ff 	mov    %rax,-0x870(%rbp)
    d15c:	48 c7 85 98 f7 ff ff 	movq   $0x0,-0x868(%rbp)
    d163:	00 00 00 00 
    d167:	48 8d 85 70 f3 ff ff 	lea    -0xc90(%rbp),%rax
    d16e:	48 89 85 a0 f7 ff ff 	mov    %rax,-0x860(%rbp)
    d175:	48 8d 85 70 f3 ff ff 	lea    -0xc90(%rbp),%rax
    d17c:	48 89 85 a8 f7 ff ff 	mov    %rax,-0x858(%rbp)
    d183:	48 c7 85 b0 f7 ff ff 	movq   $0x0,-0x850(%rbp)
    d18a:	00 00 00 00 
    d18e:	48 8d 85 70 f3 ff ff 	lea    -0xc90(%rbp),%rax
    d195:	48 89 85 b8 f7 ff ff 	mov    %rax,-0x848(%rbp)
    d19c:	48 8d 85 70 f3 ff ff 	lea    -0xc90(%rbp),%rax
    d1a3:	48 89 85 c0 f7 ff ff 	mov    %rax,-0x840(%rbp)
    d1aa:	48 8d 05 ff eb 00 00 	lea    0xebff(%rip),%rax        # 1bdb0 <g_209>
    d1b1:	48 89 85 f8 f3 ff ff 	mov    %rax,-0xc08(%rbp)
    d1b8:	c7 85 f8 f2 ff ff 9a 	movl   $0x92aa89a,-0xd08(%rbp)
    d1bf:	a8 2a 09 
    d1c2:	c7 85 fc f2 ff ff ff 	movl   $0xffffffff,-0xd04(%rbp)
    d1c9:	ff ff ff 
    d1cc:	48 8d 85 28 f3 ff ff 	lea    -0xcd8(%rbp),%rax
    d1d3:	48 89 85 00 f4 ff ff 	mov    %rax,-0xc00(%rbp)
    d1da:	48 8d 85 50 f3 ff ff 	lea    -0xcb0(%rbp),%rax
    d1e1:	48 89 85 f0 f4 ff ff 	mov    %rax,-0xb10(%rbp)
    d1e8:	48 8d 85 50 f3 ff ff 	lea    -0xcb0(%rbp),%rax
    d1ef:	48 89 85 f8 f4 ff ff 	mov    %rax,-0xb08(%rbp)
    d1f6:	48 8d 85 50 f3 ff ff 	lea    -0xcb0(%rbp),%rax
    d1fd:	48 89 85 00 f5 ff ff 	mov    %rax,-0xb00(%rbp)
    d204:	48 8d 85 50 f3 ff ff 	lea    -0xcb0(%rbp),%rax
    d20b:	48 89 85 08 f5 ff ff 	mov    %rax,-0xaf8(%rbp)
    d212:	48 8d 85 50 f3 ff ff 	lea    -0xcb0(%rbp),%rax
    d219:	48 89 85 10 f5 ff ff 	mov    %rax,-0xaf0(%rbp)
    d220:	c6 85 89 f2 ff ff f8 	movb   $0xf8,-0xd77(%rbp)
    d227:	c7 85 00 f3 ff ff 77 	movl   $0x632d5d77,-0xd00(%rbp)
    d22e:	5d 2d 63 
    d231:	c6 05 78 be 00 00 fa 	movb   $0xfa,0xbe78(%rip)        # 190b0 <g_77>
    d238:	90                   	nop
    d239:	0f b6 05 70 be 00 00 	movzbl 0xbe70(%rip),%eax        # 190b0 <g_77>
    d240:	3c 03                	cmp    $0x3,%al
    d242:	0f 84 cd 00 00 00    	je     d315 <func_11+0x17bc>
    d248:	48 8d 05 31 fe 00 00 	lea    0xfe31(%rip),%rax        # 1d080 <g_253>
    d24f:	48 89 85 18 f4 ff ff 	mov    %rax,-0xbe8(%rbp)
    d256:	c7 85 a4 f2 ff ff 00 	movl   $0x0,-0xd5c(%rbp)
    d25d:	00 00 00 
    d260:	eb 4d                	jmp    d2af <func_11+0x1756>
    d262:	c7 85 a8 f2 ff ff 00 	movl   $0x0,-0xd58(%rbp)
    d269:	00 00 00 
    d26c:	eb 31                	jmp    d29f <func_11+0x1746>
    d26e:	8b 85 a8 f2 ff ff    	mov    -0xd58(%rbp),%eax
    d274:	48 63 c8             	movslq %eax,%rcx
    d277:	8b 85 a4 f2 ff ff    	mov    -0xd5c(%rbp),%eax
    d27d:	48 63 d0             	movslq %eax,%rdx
    d280:	48 89 d0             	mov    %rdx,%rax
    d283:	48 c1 e0 03          	shl    $0x3,%rax
    d287:	48 29 d0             	sub    %rdx,%rax
    d28a:	48 01 c8             	add    %rcx,%rax
    d28d:	c7 84 85 40 f8 ff ff 	movl   $0xdd6ea821,-0x7c0(%rbp,%rax,4)
    d294:	21 a8 6e dd 
    d298:	83 85 a8 f2 ff ff 01 	addl   $0x1,-0xd58(%rbp)
    d29f:	83 bd a8 f2 ff ff 06 	cmpl   $0x6,-0xd58(%rbp)
    d2a6:	7e c6                	jle    d26e <func_11+0x1715>
    d2a8:	83 85 a4 f2 ff ff 01 	addl   $0x1,-0xd5c(%rbp)
    d2af:	83 bd a4 f2 ff ff 02 	cmpl   $0x2,-0xd5c(%rbp)
    d2b6:	7e aa                	jle    d262 <func_11+0x1709>
    d2b8:	48 8b 85 18 f4 ff ff 	mov    -0xbe8(%rbp),%rax
    d2bf:	48 c7 00 00 00 00 00 	movq   $0x0,(%rax)
    d2c6:	48 8b 05 eb ea 00 00 	mov    0xeaeb(%rip),%rax        # 1bdb8 <g_226>
    d2cd:	48 8b 00             	mov    (%rax),%rax
    d2d0:	80 bd 74 f2 ff ff 04 	cmpb   $0x4,-0xd8c(%rbp)
    d2d7:	0f 97 c2             	seta   %dl
    d2da:	48 8b 05 2f f2 00 00 	mov    0xf22f(%rip),%rax        # 1c510 <g_632>
    d2e1:	88 10                	mov    %dl,(%rax)
    d2e3:	be 01 00 00 00       	mov    $0x1,%esi
    d2e8:	bf ff ff ff ff       	mov    $0xffffffff,%edi
    d2ed:	e8 03 c1 ff ff       	callq  93f5 <safe_mul_func_int16_t_s_s>
    d2f2:	48 8b 95 18 f3 ff ff 	mov    -0xce8(%rbp),%rdx
    d2f9:	8b 0a                	mov    (%rdx),%ecx
    d2fb:	0f bf d0             	movswl %ax,%edx
    d2fe:	48 8b 85 18 f3 ff ff 	mov    -0xce8(%rbp),%rax
    d305:	21 ca                	and    %ecx,%edx
    d307:	89 10                	mov    %edx,(%rax)
    d309:	48 8b 85 e8 f3 ff ff 	mov    -0xc18(%rbp),%rax
    d310:	e9 25 21 00 00       	jmpq   f43a <func_11+0x38e1>
    d315:	8b 85 94 f2 ff ff    	mov    -0xd6c(%rbp),%eax
    d31b:	83 e8 01             	sub    $0x1,%eax
    d31e:	89 85 94 f2 ff ff    	mov    %eax,-0xd6c(%rbp)
    d324:	83 ad bc f2 ff ff 01 	subl   $0x1,-0xd44(%rbp)
    d32b:	48 c7 05 3a be 00 00 	movq   $0x0,0xbe3a(%rip)        # 19170 <g_759>
    d332:	00 00 00 00 
    d336:	e9 1f 0c 00 00       	jmpq   df5a <func_11+0x2401>
    d33b:	c7 85 90 f4 ff ff 00 	movl   $0x0,-0xb70(%rbp)
    d342:	00 00 00 
    d345:	c7 85 94 f4 ff ff ff 	movl   $0xffffffff,-0xb6c(%rbp)
    d34c:	ff ff ff 
    d34f:	c7 85 98 f4 ff ff 00 	movl   $0x0,-0xb68(%rbp)
    d356:	00 00 00 
    d359:	c7 85 9c f4 ff ff 00 	movl   $0x0,-0xb64(%rbp)
    d360:	00 00 00 
    d363:	c7 85 a0 f4 ff ff ff 	movl   $0xffffffff,-0xb60(%rbp)
    d36a:	ff ff ff 
    d36d:	c7 85 a4 f4 ff ff 00 	movl   $0x0,-0xb5c(%rbp)
    d374:	00 00 00 
    d377:	c7 85 a8 f4 ff ff 00 	movl   $0x0,-0xb58(%rbp)
    d37e:	00 00 00 
    d381:	48 8d 05 88 be 00 00 	lea    0xbe88(%rip),%rax        # 19210 <g_933+0x70>
    d388:	48 89 85 08 f4 ff ff 	mov    %rax,-0xbf8(%rbp)
    d38f:	c7 85 04 f3 ff ff fc 	movl   $0xfffffffc,-0xcfc(%rbp)
    d396:	ff ff ff 
    d399:	c7 85 08 f3 ff ff fa 	movl   $0xfffffffa,-0xcf8(%rbp)
    d3a0:	ff ff ff 
    d3a3:	48 8d 85 30 f3 ff ff 	lea    -0xcd0(%rbp),%rax
    d3aa:	48 89 85 40 f8 ff ff 	mov    %rax,-0x7c0(%rbp)
    d3b1:	48 8d 85 30 f3 ff ff 	lea    -0xcd0(%rbp),%rax
    d3b8:	48 89 85 48 f8 ff ff 	mov    %rax,-0x7b8(%rbp)
    d3bf:	48 c7 85 50 f8 ff ff 	movq   $0x0,-0x7b0(%rbp)
    d3c6:	00 00 00 00 
    d3ca:	48 8d 05 d7 f7 00 00 	lea    0xf7d7(%rip),%rax        # 1cba8 <g_1510>
    d3d1:	48 89 85 58 f8 ff ff 	mov    %rax,-0x7a8(%rbp)
    d3d8:	48 c7 85 60 f8 ff ff 	movq   $0x0,-0x7a0(%rbp)
    d3df:	00 00 00 00 
    d3e3:	48 8d 85 30 f3 ff ff 	lea    -0xcd0(%rbp),%rax
    d3ea:	48 89 85 68 f8 ff ff 	mov    %rax,-0x798(%rbp)
    d3f1:	48 c7 85 70 f8 ff ff 	movq   $0x0,-0x790(%rbp)
    d3f8:	00 00 00 00 
    d3fc:	48 c7 85 78 f8 ff ff 	movq   $0x0,-0x788(%rbp)
    d403:	00 00 00 00 
    d407:	48 8d 05 9a f7 00 00 	lea    0xf79a(%rip),%rax        # 1cba8 <g_1510>
    d40e:	48 89 85 80 f8 ff ff 	mov    %rax,-0x780(%rbp)
    d415:	48 8d 05 8c f7 00 00 	lea    0xf78c(%rip),%rax        # 1cba8 <g_1510>
    d41c:	48 89 85 88 f8 ff ff 	mov    %rax,-0x778(%rbp)
    d423:	48 c7 85 90 f8 ff ff 	movq   $0x0,-0x770(%rbp)
    d42a:	00 00 00 00 
    d42e:	48 c7 85 98 f8 ff ff 	movq   $0x0,-0x768(%rbp)
    d435:	00 00 00 00 
    d439:	48 8d 85 30 f3 ff ff 	lea    -0xcd0(%rbp),%rax
    d440:	48 89 85 a0 f8 ff ff 	mov    %rax,-0x760(%rbp)
    d447:	48 c7 85 a8 f8 ff ff 	movq   $0x0,-0x758(%rbp)
    d44e:	00 00 00 00 
    d452:	48 8d 05 4f f7 00 00 	lea    0xf74f(%rip),%rax        # 1cba8 <g_1510>
    d459:	48 89 85 b0 f8 ff ff 	mov    %rax,-0x750(%rbp)
    d460:	48 c7 85 b8 f8 ff ff 	movq   $0x0,-0x748(%rbp)
    d467:	00 00 00 00 
    d46b:	48 8d 85 30 f3 ff ff 	lea    -0xcd0(%rbp),%rax
    d472:	48 89 85 c0 f8 ff ff 	mov    %rax,-0x740(%rbp)
    d479:	48 8d 85 30 f3 ff ff 	lea    -0xcd0(%rbp),%rax
    d480:	48 89 85 c8 f8 ff ff 	mov    %rax,-0x738(%rbp)
    d487:	48 c7 85 d0 f8 ff ff 	movq   $0x0,-0x730(%rbp)
    d48e:	00 00 00 00 
    d492:	48 c7 85 d8 f8 ff ff 	movq   $0x0,-0x728(%rbp)
    d499:	00 00 00 00 
    d49d:	48 c7 85 e0 f8 ff ff 	movq   $0x0,-0x720(%rbp)
    d4a4:	00 00 00 00 
    d4a8:	48 c7 85 e8 f8 ff ff 	movq   $0x0,-0x718(%rbp)
    d4af:	00 00 00 00 
    d4b3:	48 c7 85 f0 f8 ff ff 	movq   $0x0,-0x710(%rbp)
    d4ba:	00 00 00 00 
    d4be:	48 c7 85 f8 f8 ff ff 	movq   $0x0,-0x708(%rbp)
    d4c5:	00 00 00 00 
    d4c9:	48 c7 85 00 f9 ff ff 	movq   $0x0,-0x700(%rbp)
    d4d0:	00 00 00 00 
    d4d4:	48 c7 85 08 f9 ff ff 	movq   $0x0,-0x6f8(%rbp)
    d4db:	00 00 00 00 
    d4df:	48 c7 85 10 f9 ff ff 	movq   $0x0,-0x6f0(%rbp)
    d4e6:	00 00 00 00 
    d4ea:	48 c7 85 18 f9 ff ff 	movq   $0x0,-0x6e8(%rbp)
    d4f1:	00 00 00 00 
    d4f5:	48 c7 85 20 f9 ff ff 	movq   $0x0,-0x6e0(%rbp)
    d4fc:	00 00 00 00 
    d500:	48 c7 85 28 f9 ff ff 	movq   $0x0,-0x6d8(%rbp)
    d507:	00 00 00 00 
    d50b:	48 8d 85 30 f3 ff ff 	lea    -0xcd0(%rbp),%rax
    d512:	48 89 85 30 f9 ff ff 	mov    %rax,-0x6d0(%rbp)
    d519:	48 8d 85 30 f3 ff ff 	lea    -0xcd0(%rbp),%rax
    d520:	48 89 85 38 f9 ff ff 	mov    %rax,-0x6c8(%rbp)
    d527:	48 c7 85 40 f9 ff ff 	movq   $0x0,-0x6c0(%rbp)
    d52e:	00 00 00 00 
    d532:	48 8d 05 6f f6 00 00 	lea    0xf66f(%rip),%rax        # 1cba8 <g_1510>
    d539:	48 89 85 48 f9 ff ff 	mov    %rax,-0x6b8(%rbp)
    d540:	48 c7 85 50 f9 ff ff 	movq   $0x0,-0x6b0(%rbp)
    d547:	00 00 00 00 
    d54b:	48 8d 85 30 f3 ff ff 	lea    -0xcd0(%rbp),%rax
    d552:	48 89 85 58 f9 ff ff 	mov    %rax,-0x6a8(%rbp)
    d559:	48 c7 85 60 f9 ff ff 	movq   $0x0,-0x6a0(%rbp)
    d560:	00 00 00 00 
    d564:	48 c7 85 68 f9 ff ff 	movq   $0x0,-0x698(%rbp)
    d56b:	00 00 00 00 
    d56f:	48 8d 05 32 f6 00 00 	lea    0xf632(%rip),%rax        # 1cba8 <g_1510>
    d576:	48 89 85 70 f9 ff ff 	mov    %rax,-0x690(%rbp)
    d57d:	48 8d 05 24 f6 00 00 	lea    0xf624(%rip),%rax        # 1cba8 <g_1510>
    d584:	48 89 85 78 f9 ff ff 	mov    %rax,-0x688(%rbp)
    d58b:	48 c7 85 80 f9 ff ff 	movq   $0x0,-0x680(%rbp)
    d592:	00 00 00 00 
    d596:	48 c7 85 88 f9 ff ff 	movq   $0x0,-0x678(%rbp)
    d59d:	00 00 00 00 
    d5a1:	48 8d 85 30 f3 ff ff 	lea    -0xcd0(%rbp),%rax
    d5a8:	48 89 85 90 f9 ff ff 	mov    %rax,-0x670(%rbp)
    d5af:	48 c7 85 98 f9 ff ff 	movq   $0x0,-0x668(%rbp)
    d5b6:	00 00 00 00 
    d5ba:	48 8d 05 e7 f5 00 00 	lea    0xf5e7(%rip),%rax        # 1cba8 <g_1510>
    d5c1:	48 89 85 a0 f9 ff ff 	mov    %rax,-0x660(%rbp)
    d5c8:	48 c7 85 a8 f9 ff ff 	movq   $0x0,-0x658(%rbp)
    d5cf:	00 00 00 00 
    d5d3:	48 8d 85 30 f3 ff ff 	lea    -0xcd0(%rbp),%rax
    d5da:	48 89 85 b0 f9 ff ff 	mov    %rax,-0x650(%rbp)
    d5e1:	48 8d 85 30 f3 ff ff 	lea    -0xcd0(%rbp),%rax
    d5e8:	48 89 85 b8 f9 ff ff 	mov    %rax,-0x648(%rbp)
    d5ef:	48 c7 85 c0 f9 ff ff 	movq   $0x0,-0x640(%rbp)
    d5f6:	00 00 00 00 
    d5fa:	48 c7 85 c8 f9 ff ff 	movq   $0x0,-0x638(%rbp)
    d601:	00 00 00 00 
    d605:	48 c7 85 d0 f9 ff ff 	movq   $0x0,-0x630(%rbp)
    d60c:	00 00 00 00 
    d610:	48 c7 85 d8 f9 ff ff 	movq   $0x0,-0x628(%rbp)
    d617:	00 00 00 00 
    d61b:	48 c7 85 e0 f9 ff ff 	movq   $0x0,-0x620(%rbp)
    d622:	00 00 00 00 
    d626:	48 c7 85 e8 f9 ff ff 	movq   $0x0,-0x618(%rbp)
    d62d:	00 00 00 00 
    d631:	48 c7 85 f0 f9 ff ff 	movq   $0x0,-0x610(%rbp)
    d638:	00 00 00 00 
    d63c:	48 c7 85 f8 f9 ff ff 	movq   $0x0,-0x608(%rbp)
    d643:	00 00 00 00 
    d647:	48 c7 85 00 fa ff ff 	movq   $0x0,-0x600(%rbp)
    d64e:	00 00 00 00 
    d652:	48 c7 85 08 fa ff ff 	movq   $0x0,-0x5f8(%rbp)
    d659:	00 00 00 00 
    d65d:	48 c7 85 10 fa ff ff 	movq   $0x0,-0x5f0(%rbp)
    d664:	00 00 00 00 
    d668:	48 c7 85 18 fa ff ff 	movq   $0x0,-0x5e8(%rbp)
    d66f:	00 00 00 00 
    d673:	48 8d 85 30 f3 ff ff 	lea    -0xcd0(%rbp),%rax
    d67a:	48 89 85 20 fa ff ff 	mov    %rax,-0x5e0(%rbp)
    d681:	48 8d 85 30 f3 ff ff 	lea    -0xcd0(%rbp),%rax
    d688:	48 89 85 28 fa ff ff 	mov    %rax,-0x5d8(%rbp)
    d68f:	48 c7 85 30 fa ff ff 	movq   $0x0,-0x5d0(%rbp)
    d696:	00 00 00 00 
    d69a:	48 8d 05 07 f5 00 00 	lea    0xf507(%rip),%rax        # 1cba8 <g_1510>
    d6a1:	48 89 85 38 fa ff ff 	mov    %rax,-0x5c8(%rbp)
    d6a8:	48 c7 85 40 fa ff ff 	movq   $0x0,-0x5c0(%rbp)
    d6af:	00 00 00 00 
    d6b3:	48 8d 85 30 f3 ff ff 	lea    -0xcd0(%rbp),%rax
    d6ba:	48 89 85 48 fa ff ff 	mov    %rax,-0x5b8(%rbp)
    d6c1:	48 c7 85 50 fa ff ff 	movq   $0x0,-0x5b0(%rbp)
    d6c8:	00 00 00 00 
    d6cc:	48 c7 85 58 fa ff ff 	movq   $0x0,-0x5a8(%rbp)
    d6d3:	00 00 00 00 
    d6d7:	48 8d 05 ca f4 00 00 	lea    0xf4ca(%rip),%rax        # 1cba8 <g_1510>
    d6de:	48 89 85 60 fa ff ff 	mov    %rax,-0x5a0(%rbp)
    d6e5:	48 8d 05 bc f4 00 00 	lea    0xf4bc(%rip),%rax        # 1cba8 <g_1510>
    d6ec:	48 89 85 68 fa ff ff 	mov    %rax,-0x598(%rbp)
    d6f3:	48 c7 85 70 fa ff ff 	movq   $0x0,-0x590(%rbp)
    d6fa:	00 00 00 00 
    d6fe:	48 c7 85 78 fa ff ff 	movq   $0x0,-0x588(%rbp)
    d705:	00 00 00 00 
    d709:	48 8d 85 30 f3 ff ff 	lea    -0xcd0(%rbp),%rax
    d710:	48 89 85 80 fa ff ff 	mov    %rax,-0x580(%rbp)
    d717:	48 c7 85 88 fa ff ff 	movq   $0x0,-0x578(%rbp)
    d71e:	00 00 00 00 
    d722:	48 8d 05 7f f4 00 00 	lea    0xf47f(%rip),%rax        # 1cba8 <g_1510>
    d729:	48 89 85 90 fa ff ff 	mov    %rax,-0x570(%rbp)
    d730:	48 c7 85 98 fa ff ff 	movq   $0x0,-0x568(%rbp)
    d737:	00 00 00 00 
    d73b:	48 8d 85 30 f3 ff ff 	lea    -0xcd0(%rbp),%rax
    d742:	48 89 85 a0 fa ff ff 	mov    %rax,-0x560(%rbp)
    d749:	48 8d 85 30 f3 ff ff 	lea    -0xcd0(%rbp),%rax
    d750:	48 89 85 a8 fa ff ff 	mov    %rax,-0x558(%rbp)
    d757:	48 c7 85 b0 fa ff ff 	movq   $0x0,-0x550(%rbp)
    d75e:	00 00 00 00 
    d762:	48 c7 85 b8 fa ff ff 	movq   $0x0,-0x548(%rbp)
    d769:	00 00 00 00 
    d76d:	48 c7 85 c0 fa ff ff 	movq   $0x0,-0x540(%rbp)
    d774:	00 00 00 00 
    d778:	48 c7 85 c8 fa ff ff 	movq   $0x0,-0x538(%rbp)
    d77f:	00 00 00 00 
    d783:	48 c7 85 d0 fa ff ff 	movq   $0x0,-0x530(%rbp)
    d78a:	00 00 00 00 
    d78e:	48 c7 85 d8 fa ff ff 	movq   $0x0,-0x528(%rbp)
    d795:	00 00 00 00 
    d799:	48 c7 85 e0 fa ff ff 	movq   $0x0,-0x520(%rbp)
    d7a0:	00 00 00 00 
    d7a4:	48 c7 85 e8 fa ff ff 	movq   $0x0,-0x518(%rbp)
    d7ab:	00 00 00 00 
    d7af:	48 c7 85 f0 fa ff ff 	movq   $0x0,-0x510(%rbp)
    d7b6:	00 00 00 00 
    d7ba:	48 c7 85 f8 fa ff ff 	movq   $0x0,-0x508(%rbp)
    d7c1:	00 00 00 00 
    d7c5:	48 c7 85 00 fb ff ff 	movq   $0x0,-0x500(%rbp)
    d7cc:	00 00 00 00 
    d7d0:	48 c7 85 08 fb ff ff 	movq   $0x0,-0x4f8(%rbp)
    d7d7:	00 00 00 00 
    d7db:	48 8d 85 30 f3 ff ff 	lea    -0xcd0(%rbp),%rax
    d7e2:	48 89 85 10 fb ff ff 	mov    %rax,-0x4f0(%rbp)
    d7e9:	48 8d 85 30 f3 ff ff 	lea    -0xcd0(%rbp),%rax
    d7f0:	48 89 85 18 fb ff ff 	mov    %rax,-0x4e8(%rbp)
    d7f7:	48 c7 85 20 fb ff ff 	movq   $0x0,-0x4e0(%rbp)
    d7fe:	00 00 00 00 
    d802:	48 8d 05 9f f3 00 00 	lea    0xf39f(%rip),%rax        # 1cba8 <g_1510>
    d809:	48 89 85 28 fb ff ff 	mov    %rax,-0x4d8(%rbp)
    d810:	48 c7 85 30 fb ff ff 	movq   $0x0,-0x4d0(%rbp)
    d817:	00 00 00 00 
    d81b:	48 8d 85 30 f3 ff ff 	lea    -0xcd0(%rbp),%rax
    d822:	48 89 85 38 fb ff ff 	mov    %rax,-0x4c8(%rbp)
    d829:	48 c7 85 40 fb ff ff 	movq   $0x0,-0x4c0(%rbp)
    d830:	00 00 00 00 
    d834:	48 c7 85 48 fb ff ff 	movq   $0x0,-0x4b8(%rbp)
    d83b:	00 00 00 00 
    d83f:	48 8d 05 62 f3 00 00 	lea    0xf362(%rip),%rax        # 1cba8 <g_1510>
    d846:	48 89 85 50 fb ff ff 	mov    %rax,-0x4b0(%rbp)
    d84d:	48 8d 05 54 f3 00 00 	lea    0xf354(%rip),%rax        # 1cba8 <g_1510>
    d854:	48 89 85 58 fb ff ff 	mov    %rax,-0x4a8(%rbp)
    d85b:	48 c7 85 60 fb ff ff 	movq   $0x0,-0x4a0(%rbp)
    d862:	00 00 00 00 
    d866:	48 c7 85 68 fb ff ff 	movq   $0x0,-0x498(%rbp)
    d86d:	00 00 00 00 
    d871:	48 8d 85 30 f3 ff ff 	lea    -0xcd0(%rbp),%rax
    d878:	48 89 85 70 fb ff ff 	mov    %rax,-0x490(%rbp)
    d87f:	48 c7 85 78 fb ff ff 	movq   $0x0,-0x488(%rbp)
    d886:	00 00 00 00 
    d88a:	48 8d 05 17 f3 00 00 	lea    0xf317(%rip),%rax        # 1cba8 <g_1510>
    d891:	48 89 85 80 fb ff ff 	mov    %rax,-0x480(%rbp)
    d898:	48 c7 85 88 fb ff ff 	movq   $0x0,-0x478(%rbp)
    d89f:	00 00 00 00 
    d8a3:	48 8d 85 30 f3 ff ff 	lea    -0xcd0(%rbp),%rax
    d8aa:	48 89 85 90 fb ff ff 	mov    %rax,-0x470(%rbp)
    d8b1:	48 8d 85 30 f3 ff ff 	lea    -0xcd0(%rbp),%rax
    d8b8:	48 89 85 98 fb ff ff 	mov    %rax,-0x468(%rbp)
    d8bf:	48 c7 85 a0 fb ff ff 	movq   $0x0,-0x460(%rbp)
    d8c6:	00 00 00 00 
    d8ca:	48 c7 85 a8 fb ff ff 	movq   $0x0,-0x458(%rbp)
    d8d1:	00 00 00 00 
    d8d5:	48 c7 85 b0 fb ff ff 	movq   $0x0,-0x450(%rbp)
    d8dc:	00 00 00 00 
    d8e0:	48 c7 85 b8 fb ff ff 	movq   $0x0,-0x448(%rbp)
    d8e7:	00 00 00 00 
    d8eb:	48 c7 85 c0 fb ff ff 	movq   $0x0,-0x440(%rbp)
    d8f2:	00 00 00 00 
    d8f6:	48 c7 85 c8 fb ff ff 	movq   $0x0,-0x438(%rbp)
    d8fd:	00 00 00 00 
    d901:	48 c7 85 d0 fb ff ff 	movq   $0x0,-0x430(%rbp)
    d908:	00 00 00 00 
    d90c:	48 c7 85 d8 fb ff ff 	movq   $0x0,-0x428(%rbp)
    d913:	00 00 00 00 
    d917:	48 c7 85 e0 fb ff ff 	movq   $0x0,-0x420(%rbp)
    d91e:	00 00 00 00 
    d922:	48 c7 85 e8 fb ff ff 	movq   $0x0,-0x418(%rbp)
    d929:	00 00 00 00 
    d92d:	48 c7 85 f0 fb ff ff 	movq   $0x0,-0x410(%rbp)
    d934:	00 00 00 00 
    d938:	48 c7 85 f8 fb ff ff 	movq   $0x0,-0x408(%rbp)
    d93f:	00 00 00 00 
    d943:	48 8d 85 30 f3 ff ff 	lea    -0xcd0(%rbp),%rax
    d94a:	48 89 85 00 fc ff ff 	mov    %rax,-0x400(%rbp)
    d951:	48 8d 85 30 f3 ff ff 	lea    -0xcd0(%rbp),%rax
    d958:	48 89 85 08 fc ff ff 	mov    %rax,-0x3f8(%rbp)
    d95f:	48 c7 85 10 fc ff ff 	movq   $0x0,-0x3f0(%rbp)
    d966:	00 00 00 00 
    d96a:	48 8d 05 37 f2 00 00 	lea    0xf237(%rip),%rax        # 1cba8 <g_1510>
    d971:	48 89 85 18 fc ff ff 	mov    %rax,-0x3e8(%rbp)
    d978:	48 c7 85 20 fc ff ff 	movq   $0x0,-0x3e0(%rbp)
    d97f:	00 00 00 00 
    d983:	48 8d 85 30 f3 ff ff 	lea    -0xcd0(%rbp),%rax
    d98a:	48 89 85 28 fc ff ff 	mov    %rax,-0x3d8(%rbp)
    d991:	48 c7 85 30 fc ff ff 	movq   $0x0,-0x3d0(%rbp)
    d998:	00 00 00 00 
    d99c:	48 c7 85 38 fc ff ff 	movq   $0x0,-0x3c8(%rbp)
    d9a3:	00 00 00 00 
    d9a7:	48 8d 05 fa f1 00 00 	lea    0xf1fa(%rip),%rax        # 1cba8 <g_1510>
    d9ae:	48 89 85 40 fc ff ff 	mov    %rax,-0x3c0(%rbp)
    d9b5:	48 8d 05 ec f1 00 00 	lea    0xf1ec(%rip),%rax        # 1cba8 <g_1510>
    d9bc:	48 89 85 48 fc ff ff 	mov    %rax,-0x3b8(%rbp)
    d9c3:	48 c7 85 50 fc ff ff 	movq   $0x0,-0x3b0(%rbp)
    d9ca:	00 00 00 00 
    d9ce:	48 c7 85 58 fc ff ff 	movq   $0x0,-0x3a8(%rbp)
    d9d5:	00 00 00 00 
    d9d9:	48 8d 85 30 f3 ff ff 	lea    -0xcd0(%rbp),%rax
    d9e0:	48 89 85 60 fc ff ff 	mov    %rax,-0x3a0(%rbp)
    d9e7:	48 c7 85 68 fc ff ff 	movq   $0x0,-0x398(%rbp)
    d9ee:	00 00 00 00 
    d9f2:	48 8d 05 af f1 00 00 	lea    0xf1af(%rip),%rax        # 1cba8 <g_1510>
    d9f9:	48 89 85 70 fc ff ff 	mov    %rax,-0x390(%rbp)
    da00:	48 c7 85 78 fc ff ff 	movq   $0x0,-0x388(%rbp)
    da07:	00 00 00 00 
    da0b:	48 8d 85 30 f3 ff ff 	lea    -0xcd0(%rbp),%rax
    da12:	48 89 85 80 fc ff ff 	mov    %rax,-0x380(%rbp)
    da19:	48 8d 85 30 f3 ff ff 	lea    -0xcd0(%rbp),%rax
    da20:	48 89 85 88 fc ff ff 	mov    %rax,-0x378(%rbp)
    da27:	48 c7 85 90 fc ff ff 	movq   $0x0,-0x370(%rbp)
    da2e:	00 00 00 00 
    da32:	48 c7 85 98 fc ff ff 	movq   $0x0,-0x368(%rbp)
    da39:	00 00 00 00 
    da3d:	48 c7 85 a0 fc ff ff 	movq   $0x0,-0x360(%rbp)
    da44:	00 00 00 00 
    da48:	48 c7 85 a8 fc ff ff 	movq   $0x0,-0x358(%rbp)
    da4f:	00 00 00 00 
    da53:	48 c7 85 b0 fc ff ff 	movq   $0x0,-0x350(%rbp)
    da5a:	00 00 00 00 
    da5e:	48 c7 85 b8 fc ff ff 	movq   $0x0,-0x348(%rbp)
    da65:	00 00 00 00 
    da69:	48 c7 85 c0 fc ff ff 	movq   $0x0,-0x340(%rbp)
    da70:	00 00 00 00 
    da74:	48 c7 85 c8 fc ff ff 	movq   $0x0,-0x338(%rbp)
    da7b:	00 00 00 00 
    da7f:	48 c7 85 d0 fc ff ff 	movq   $0x0,-0x330(%rbp)
    da86:	00 00 00 00 
    da8a:	48 c7 85 d8 fc ff ff 	movq   $0x0,-0x328(%rbp)
    da91:	00 00 00 00 
    da95:	48 c7 85 e0 fc ff ff 	movq   $0x0,-0x320(%rbp)
    da9c:	00 00 00 00 
    daa0:	48 c7 85 e8 fc ff ff 	movq   $0x0,-0x318(%rbp)
    daa7:	00 00 00 00 
    daab:	48 8d 85 30 f3 ff ff 	lea    -0xcd0(%rbp),%rax
    dab2:	48 89 85 f0 fc ff ff 	mov    %rax,-0x310(%rbp)
    dab9:	48 8d 85 30 f3 ff ff 	lea    -0xcd0(%rbp),%rax
    dac0:	48 89 85 f8 fc ff ff 	mov    %rax,-0x308(%rbp)
    dac7:	48 c7 85 00 fd ff ff 	movq   $0x0,-0x300(%rbp)
    dace:	00 00 00 00 
    dad2:	48 8d 05 cf f0 00 00 	lea    0xf0cf(%rip),%rax        # 1cba8 <g_1510>
    dad9:	48 89 85 08 fd ff ff 	mov    %rax,-0x2f8(%rbp)
    dae0:	48 c7 85 10 fd ff ff 	movq   $0x0,-0x2f0(%rbp)
    dae7:	00 00 00 00 
    daeb:	48 8d 85 30 f3 ff ff 	lea    -0xcd0(%rbp),%rax
    daf2:	48 89 85 18 fd ff ff 	mov    %rax,-0x2e8(%rbp)
    daf9:	48 c7 85 20 fd ff ff 	movq   $0x0,-0x2e0(%rbp)
    db00:	00 00 00 00 
    db04:	48 c7 85 28 fd ff ff 	movq   $0x0,-0x2d8(%rbp)
    db0b:	00 00 00 00 
    db0f:	48 8d 05 92 f0 00 00 	lea    0xf092(%rip),%rax        # 1cba8 <g_1510>
    db16:	48 89 85 30 fd ff ff 	mov    %rax,-0x2d0(%rbp)
    db1d:	48 8d 05 84 f0 00 00 	lea    0xf084(%rip),%rax        # 1cba8 <g_1510>
    db24:	48 89 85 38 fd ff ff 	mov    %rax,-0x2c8(%rbp)
    db2b:	48 c7 85 40 fd ff ff 	movq   $0x0,-0x2c0(%rbp)
    db32:	00 00 00 00 
    db36:	48 c7 85 48 fd ff ff 	movq   $0x0,-0x2b8(%rbp)
    db3d:	00 00 00 00 
    db41:	48 8d 85 30 f3 ff ff 	lea    -0xcd0(%rbp),%rax
    db48:	48 89 85 50 fd ff ff 	mov    %rax,-0x2b0(%rbp)
    db4f:	48 c7 85 58 fd ff ff 	movq   $0x0,-0x2a8(%rbp)
    db56:	00 00 00 00 
    db5a:	48 8d 05 47 f0 00 00 	lea    0xf047(%rip),%rax        # 1cba8 <g_1510>
    db61:	48 89 85 60 fd ff ff 	mov    %rax,-0x2a0(%rbp)
    db68:	48 c7 85 68 fd ff ff 	movq   $0x0,-0x298(%rbp)
    db6f:	00 00 00 00 
    db73:	48 8d 85 30 f3 ff ff 	lea    -0xcd0(%rbp),%rax
    db7a:	48 89 85 70 fd ff ff 	mov    %rax,-0x290(%rbp)
    db81:	48 8d 85 30 f3 ff ff 	lea    -0xcd0(%rbp),%rax
    db88:	48 89 85 78 fd ff ff 	mov    %rax,-0x288(%rbp)
    db8f:	48 c7 85 80 fd ff ff 	movq   $0x0,-0x280(%rbp)
    db96:	00 00 00 00 
    db9a:	48 c7 85 88 fd ff ff 	movq   $0x0,-0x278(%rbp)
    dba1:	00 00 00 00 
    dba5:	48 c7 85 90 fd ff ff 	movq   $0x0,-0x270(%rbp)
    dbac:	00 00 00 00 
    dbb0:	48 c7 85 98 fd ff ff 	movq   $0x0,-0x268(%rbp)
    dbb7:	00 00 00 00 
    dbbb:	48 c7 85 a0 fd ff ff 	movq   $0x0,-0x260(%rbp)
    dbc2:	00 00 00 00 
    dbc6:	48 c7 85 a8 fd ff ff 	movq   $0x0,-0x258(%rbp)
    dbcd:	00 00 00 00 
    dbd1:	48 c7 85 b0 fd ff ff 	movq   $0x0,-0x250(%rbp)
    dbd8:	00 00 00 00 
    dbdc:	48 c7 85 b8 fd ff ff 	movq   $0x0,-0x248(%rbp)
    dbe3:	00 00 00 00 
    dbe7:	48 c7 85 c0 fd ff ff 	movq   $0x0,-0x240(%rbp)
    dbee:	00 00 00 00 
    dbf2:	48 c7 85 c8 fd ff ff 	movq   $0x0,-0x238(%rbp)
    dbf9:	00 00 00 00 
    dbfd:	48 c7 85 d0 fd ff ff 	movq   $0x0,-0x230(%rbp)
    dc04:	00 00 00 00 
    dc08:	48 c7 85 d8 fd ff ff 	movq   $0x0,-0x228(%rbp)
    dc0f:	00 00 00 00 
    dc13:	48 8d 85 30 f3 ff ff 	lea    -0xcd0(%rbp),%rax
    dc1a:	48 89 85 e0 fd ff ff 	mov    %rax,-0x220(%rbp)
    dc21:	48 8d 85 30 f3 ff ff 	lea    -0xcd0(%rbp),%rax
    dc28:	48 89 85 e8 fd ff ff 	mov    %rax,-0x218(%rbp)
    dc2f:	48 c7 85 f0 fd ff ff 	movq   $0x0,-0x210(%rbp)
    dc36:	00 00 00 00 
    dc3a:	48 c7 85 f8 fd ff ff 	movq   $0x0,-0x208(%rbp)
    dc41:	00 00 00 00 
    dc45:	48 c7 85 00 fe ff ff 	movq   $0x0,-0x200(%rbp)
    dc4c:	00 00 00 00 
    dc50:	48 c7 85 08 fe ff ff 	movq   $0x0,-0x1f8(%rbp)
    dc57:	00 00 00 00 
    dc5b:	48 c7 85 10 fe ff ff 	movq   $0x0,-0x1f0(%rbp)
    dc62:	00 00 00 00 
    dc66:	48 8d 85 30 f3 ff ff 	lea    -0xcd0(%rbp),%rax
    dc6d:	48 89 85 18 fe ff ff 	mov    %rax,-0x1e8(%rbp)
    dc74:	48 c7 85 20 fe ff ff 	movq   $0x0,-0x1e0(%rbp)
    dc7b:	00 00 00 00 
    dc7f:	48 c7 85 28 fe ff ff 	movq   $0x0,-0x1d8(%rbp)
    dc86:	00 00 00 00 
    dc8a:	48 8d 85 30 f3 ff ff 	lea    -0xcd0(%rbp),%rax
    dc91:	48 89 85 30 fe ff ff 	mov    %rax,-0x1d0(%rbp)
    dc98:	48 c7 85 38 fe ff ff 	movq   $0x0,-0x1c8(%rbp)
    dc9f:	00 00 00 00 
    dca3:	48 c7 85 40 fe ff ff 	movq   $0x0,-0x1c0(%rbp)
    dcaa:	00 00 00 00 
    dcae:	48 c7 85 48 fe ff ff 	movq   $0x0,-0x1b8(%rbp)
    dcb5:	00 00 00 00 
    dcb9:	48 c7 85 50 fe ff ff 	movq   $0x0,-0x1b0(%rbp)
    dcc0:	00 00 00 00 
    dcc4:	48 c7 85 58 fe ff ff 	movq   $0x0,-0x1a8(%rbp)
    dccb:	00 00 00 00 
    dccf:	48 c7 85 60 fe ff ff 	movq   $0x0,-0x1a0(%rbp)
    dcd6:	00 00 00 00 
    dcda:	48 c7 85 68 fe ff ff 	movq   $0x0,-0x198(%rbp)
    dce1:	00 00 00 00 
    dce5:	48 8d 05 bc ee 00 00 	lea    0xeebc(%rip),%rax        # 1cba8 <g_1510>
    dcec:	48 89 85 70 fe ff ff 	mov    %rax,-0x190(%rbp)
    dcf3:	48 c7 85 78 fe ff ff 	movq   $0x0,-0x188(%rbp)
    dcfa:	00 00 00 00 
    dcfe:	48 c7 85 80 fe ff ff 	movq   $0x0,-0x180(%rbp)
    dd05:	00 00 00 00 
    dd09:	48 8d 05 98 ee 00 00 	lea    0xee98(%rip),%rax        # 1cba8 <g_1510>
    dd10:	48 89 85 88 fe ff ff 	mov    %rax,-0x178(%rbp)
    dd17:	48 8d 85 30 f3 ff ff 	lea    -0xcd0(%rbp),%rax
    dd1e:	48 89 85 90 fe ff ff 	mov    %rax,-0x170(%rbp)
    dd25:	48 8d 05 7c ee 00 00 	lea    0xee7c(%rip),%rax        # 1cba8 <g_1510>
    dd2c:	48 89 85 98 fe ff ff 	mov    %rax,-0x168(%rbp)
    dd33:	48 8d 05 6e ee 00 00 	lea    0xee6e(%rip),%rax        # 1cba8 <g_1510>
    dd3a:	48 89 85 a0 fe ff ff 	mov    %rax,-0x160(%rbp)
    dd41:	48 8d 85 30 f3 ff ff 	lea    -0xcd0(%rbp),%rax
    dd48:	48 89 85 a8 fe ff ff 	mov    %rax,-0x158(%rbp)
    dd4f:	48 8d 05 52 ee 00 00 	lea    0xee52(%rip),%rax        # 1cba8 <g_1510>
    dd56:	48 89 85 b0 fe ff ff 	mov    %rax,-0x150(%rbp)
    dd5d:	48 c7 85 b8 fe ff ff 	movq   $0x0,-0x148(%rbp)
    dd64:	00 00 00 00 
    dd68:	48 c7 85 c0 fe ff ff 	movq   $0x0,-0x140(%rbp)
    dd6f:	00 00 00 00 
    dd73:	48 8d 05 2e ee 00 00 	lea    0xee2e(%rip),%rax        # 1cba8 <g_1510>
    dd7a:	48 89 85 c8 fe ff ff 	mov    %rax,-0x138(%rbp)
    dd81:	48 c7 85 d0 fe ff ff 	movq   $0x0,-0x130(%rbp)
    dd88:	00 00 00 00 
    dd8c:	48 c7 85 d8 fe ff ff 	movq   $0x0,-0x128(%rbp)
    dd93:	00 00 00 00 
    dd97:	48 c7 85 e0 fe ff ff 	movq   $0x0,-0x120(%rbp)
    dd9e:	00 00 00 00 
    dda2:	48 c7 85 e8 fe ff ff 	movq   $0x0,-0x118(%rbp)
    dda9:	00 00 00 00 
    ddad:	48 c7 85 f0 fe ff ff 	movq   $0x0,-0x110(%rbp)
    ddb4:	00 00 00 00 
    ddb8:	48 c7 85 f8 fe ff ff 	movq   $0x0,-0x108(%rbp)
    ddbf:	00 00 00 00 
    ddc3:	48 c7 85 00 ff ff ff 	movq   $0x0,-0x100(%rbp)
    ddca:	00 00 00 00 
    ddce:	48 8d 85 30 f3 ff ff 	lea    -0xcd0(%rbp),%rax
    ddd5:	48 89 85 08 ff ff ff 	mov    %rax,-0xf8(%rbp)
    dddc:	48 c7 85 10 ff ff ff 	movq   $0x0,-0xf0(%rbp)
    dde3:	00 00 00 00 
    dde7:	48 c7 85 18 ff ff ff 	movq   $0x0,-0xe8(%rbp)
    ddee:	00 00 00 00 
    ddf2:	48 8d 85 30 f3 ff ff 	lea    -0xcd0(%rbp),%rax
    ddf9:	48 89 85 20 ff ff ff 	mov    %rax,-0xe0(%rbp)
    de00:	48 c7 85 28 ff ff ff 	movq   $0x0,-0xd8(%rbp)
    de07:	00 00 00 00 
    de0b:	48 c7 85 30 ff ff ff 	movq   $0x0,-0xd0(%rbp)
    de12:	00 00 00 00 
    de16:	48 c7 85 38 ff ff ff 	movq   $0x0,-0xc8(%rbp)
    de1d:	00 00 00 00 
    de21:	48 c7 85 40 ff ff ff 	movq   $0x0,-0xc0(%rbp)
    de28:	00 00 00 00 
    de2c:	48 c7 85 48 ff ff ff 	movq   $0x0,-0xb8(%rbp)
    de33:	00 00 00 00 
    de37:	48 c7 85 50 ff ff ff 	movq   $0x0,-0xb0(%rbp)
    de3e:	00 00 00 00 
    de42:	48 c7 85 58 ff ff ff 	movq   $0x0,-0xa8(%rbp)
    de49:	00 00 00 00 
    de4d:	48 8d 05 54 ed 00 00 	lea    0xed54(%rip),%rax        # 1cba8 <g_1510>
    de54:	48 89 85 60 ff ff ff 	mov    %rax,-0xa0(%rbp)
    de5b:	48 c7 85 68 ff ff ff 	movq   $0x0,-0x98(%rbp)
    de62:	00 00 00 00 
    de66:	48 c7 85 70 ff ff ff 	movq   $0x0,-0x90(%rbp)
    de6d:	00 00 00 00 
    de71:	48 8d 05 30 ed 00 00 	lea    0xed30(%rip),%rax        # 1cba8 <g_1510>
    de78:	48 89 85 78 ff ff ff 	mov    %rax,-0x88(%rbp)
    de7f:	48 8d 85 30 f3 ff ff 	lea    -0xcd0(%rbp),%rax
    de86:	48 89 45 80          	mov    %rax,-0x80(%rbp)
    de8a:	48 8d 05 17 ed 00 00 	lea    0xed17(%rip),%rax        # 1cba8 <g_1510>
    de91:	48 89 45 88          	mov    %rax,-0x78(%rbp)
    de95:	48 8d 05 0c ed 00 00 	lea    0xed0c(%rip),%rax        # 1cba8 <g_1510>
    de9c:	48 89 45 90          	mov    %rax,-0x70(%rbp)
    dea0:	48 8d 85 30 f3 ff ff 	lea    -0xcd0(%rbp),%rax
    dea7:	48 89 45 98          	mov    %rax,-0x68(%rbp)
    deab:	48 8d 05 f6 ec 00 00 	lea    0xecf6(%rip),%rax        # 1cba8 <g_1510>
    deb2:	48 89 45 a0          	mov    %rax,-0x60(%rbp)
    deb6:	48 c7 45 a8 00 00 00 	movq   $0x0,-0x58(%rbp)
    debd:	00 
    debe:	48 c7 45 b0 00 00 00 	movq   $0x0,-0x50(%rbp)
    dec5:	00 
    dec6:	48 8d 05 db ec 00 00 	lea    0xecdb(%rip),%rax        # 1cba8 <g_1510>
    decd:	48 89 45 b8          	mov    %rax,-0x48(%rbp)
    ded1:	48 8d 05 98 f1 00 00 	lea    0xf198(%rip),%rax        # 1d070 <g_156>
    ded8:	48 89 85 10 f4 ff ff 	mov    %rax,-0xbf0(%rbp)
    dedf:	c7 85 ac f2 ff ff 00 	movl   $0x0,-0xd54(%rbp)
    dee6:	00 00 00 
    dee9:	eb 46                	jmp    df31 <func_11+0x23d8>
    deeb:	c7 85 b0 f2 ff ff 00 	movl   $0x0,-0xd50(%rbp)
    def2:	00 00 00 
    def5:	eb 2a                	jmp    df21 <func_11+0x23c8>
    def7:	8b 85 b0 f2 ff ff    	mov    -0xd50(%rbp),%eax
    defd:	48 98                	cltq   
    deff:	8b 95 ac f2 ff ff    	mov    -0xd54(%rbp),%edx
    df05:	48 63 d2             	movslq %edx,%rdx
    df08:	48 c1 e2 03          	shl    $0x3,%rdx
    df0c:	48 01 d0             	add    %rdx,%rax
    df0f:	c7 84 85 20 f6 ff ff 	movl   $0xcd07323,-0x9e0(%rbp,%rax,4)
    df16:	23 73 d0 0c 
    df1a:	83 85 b0 f2 ff ff 01 	addl   $0x1,-0xd50(%rbp)
    df21:	83 bd b0 f2 ff ff 07 	cmpl   $0x7,-0xd50(%rbp)
    df28:	7e cd                	jle    def7 <func_11+0x239e>
    df2a:	83 85 ac f2 ff ff 01 	addl   $0x1,-0xd54(%rbp)
    df31:	83 bd ac f2 ff ff 02 	cmpl   $0x2,-0xd54(%rbp)
    df38:	7e b1                	jle    deeb <func_11+0x2392>
    df3a:	48 8b 05 2f b2 00 00 	mov    0xb22f(%rip),%rax        # 19170 <g_759>
    df41:	0f b6 c0             	movzbl %al,%eax
    df44:	be 01 00 00 00       	mov    $0x1,%esi
    df49:	89 c7                	mov    %eax,%edi
    df4b:	e8 0a bc ff ff       	callq  9b5a <safe_add_func_uint8_t_u_u>
    df50:	0f b6 c0             	movzbl %al,%eax
    df53:	48 89 05 16 b2 00 00 	mov    %rax,0xb216(%rip)        # 19170 <g_759>
    df5a:	48 8b 05 0f b2 00 00 	mov    0xb20f(%rip),%rax        # 19170 <g_759>
    df61:	48 83 f8 0c          	cmp    $0xc,%rax
    df65:	0f 85 d0 f3 ff ff    	jne    d33b <func_11+0x17e2>
    df6b:	e9 c3 14 00 00       	jmpq   f433 <func_11+0x38da>
    df70:	48 b8 1a d1 b7 ed 17 	movabs $0x7e841017edb7d11a,%rax
    df77:	10 84 7e 
    df7a:	48 89 85 70 f3 ff ff 	mov    %rax,-0xc90(%rbp)
    df81:	c7 85 c8 f2 ff ff fa 	movl   $0xc8b7b7fa,-0xd38(%rbp)
    df88:	b7 b7 c8 
    df8b:	c7 85 cc f2 ff ff fa 	movl   $0xfffffffa,-0xd34(%rbp)
    df92:	ff ff ff 
    df95:	c7 85 d0 f2 ff ff b7 	movl   $0xbddecdb7,-0xd30(%rbp)
    df9c:	cd de bd 
    df9f:	c7 85 d4 f2 ff ff 01 	movl   $0x1,-0xd2c(%rbp)
    dfa6:	00 00 00 
    dfa9:	c7 85 60 f3 ff ff 00 	movl   $0x0,-0xca0(%rbp)
    dfb0:	00 00 00 
    dfb3:	c7 85 d8 f2 ff ff fe 	movl   $0xa04174fe,-0xd28(%rbp)
    dfba:	74 41 a0 
    dfbd:	c7 85 dc f2 ff ff ff 	movl   $0xffffffff,-0xd24(%rbp)
    dfc4:	ff ff ff 
    dfc7:	c7 85 e0 f2 ff ff 61 	movl   $0x721b5761,-0xd20(%rbp)
    dfce:	57 1b 72 
    dfd1:	c6 85 58 f3 ff ff f7 	movb   $0xf7,-0xca8(%rbp)
    dfd8:	c6 85 86 f2 ff ff 5c 	movb   $0x5c,-0xd7a(%rbp)
    dfdf:	48 8d 05 62 d6 00 00 	lea    0xd662(%rip),%rax        # 1b648 <g_143>
    dfe6:	48 89 85 b0 f3 ff ff 	mov    %rax,-0xc50(%rbp)
    dfed:	48 c7 85 b8 f3 ff ff 	movq   $0xfffffffffffffffb,-0xc48(%rbp)
    dff4:	fb ff ff ff 
    dff8:	c7 85 b4 f2 ff ff 00 	movl   $0x0,-0xd4c(%rbp)
    dfff:	00 00 00 
    e002:	eb 1a                	jmp    e01e <func_11+0x24c5>
    e004:	8b 85 b4 f2 ff ff    	mov    -0xd4c(%rbp),%eax
    e00a:	48 98                	cltq   
    e00c:	c7 84 85 d0 f5 ff ff 	movl   $0x1c92caaf,-0xa30(%rbp,%rax,4)
    e013:	af ca 92 1c 
    e017:	83 85 b4 f2 ff ff 01 	addl   $0x1,-0xd4c(%rbp)
    e01e:	83 bd b4 f2 ff ff 04 	cmpl   $0x4,-0xd4c(%rbp)
    e025:	7e dd                	jle    e004 <func_11+0x24ab>
    e027:	8b 05 af f0 00 00    	mov    0xf0af(%rip),%eax        # 1d0dc <g_1608+0x3c>
    e02d:	85 c0                	test   %eax,%eax
    e02f:	0f 94 c0             	sete   %al
    e032:	0f b6 c0             	movzbl %al,%eax
    e035:	48 89 c6             	mov    %rax,%rsi
    e038:	bf 01 00 00 00       	mov    $0x1,%edi
    e03d:	e8 ff b7 ff ff       	callq  9841 <safe_add_func_int64_t_s_s>
    e042:	48 85 c0             	test   %rax,%rax
    e045:	0f 84 cb 0a 00 00    	je     eb16 <func_11+0x2fbd>
    e04b:	48 8d 85 c0 f4 ff ff 	lea    -0xb40(%rbp),%rax
    e052:	48 83 c0 03          	add    $0x3,%rax
    e056:	48 89 85 40 f8 ff ff 	mov    %rax,-0x7c0(%rbp)
    e05d:	48 8d 85 c0 f4 ff ff 	lea    -0xb40(%rbp),%rax
    e064:	48 83 c0 03          	add    $0x3,%rax
    e068:	48 89 85 48 f8 ff ff 	mov    %rax,-0x7b8(%rbp)
    e06f:	48 8d 85 c0 f4 ff ff 	lea    -0xb40(%rbp),%rax
    e076:	48 83 c0 03          	add    $0x3,%rax
    e07a:	48 89 85 50 f8 ff ff 	mov    %rax,-0x7b0(%rbp)
    e081:	48 c7 85 58 f8 ff ff 	movq   $0x0,-0x7a8(%rbp)
    e088:	00 00 00 00 
    e08c:	48 8d 05 d9 b0 00 00 	lea    0xb0d9(%rip),%rax        # 1916c <g_676>
    e093:	48 89 85 60 f8 ff ff 	mov    %rax,-0x7a0(%rbp)
    e09a:	48 8d 05 cb b0 00 00 	lea    0xb0cb(%rip),%rax        # 1916c <g_676>
    e0a1:	48 89 85 68 f8 ff ff 	mov    %rax,-0x798(%rbp)
    e0a8:	48 8d 85 c0 f4 ff ff 	lea    -0xb40(%rbp),%rax
    e0af:	48 83 c0 05          	add    $0x5,%rax
    e0b3:	48 89 85 70 f8 ff ff 	mov    %rax,-0x790(%rbp)
    e0ba:	48 8d 05 ef af 00 00 	lea    0xafef(%rip),%rax        # 190b0 <g_77>
    e0c1:	48 89 85 78 f8 ff ff 	mov    %rax,-0x788(%rbp)
    e0c8:	48 8d 05 9d b0 00 00 	lea    0xb09d(%rip),%rax        # 1916c <g_676>
    e0cf:	48 89 85 80 f8 ff ff 	mov    %rax,-0x780(%rbp)
    e0d6:	48 8d 85 c0 f4 ff ff 	lea    -0xb40(%rbp),%rax
    e0dd:	48 83 c0 05          	add    $0x5,%rax
    e0e1:	48 89 85 88 f8 ff ff 	mov    %rax,-0x778(%rbp)
    e0e8:	48 8d 85 c0 f4 ff ff 	lea    -0xb40(%rbp),%rax
    e0ef:	48 83 c0 03          	add    $0x3,%rax
    e0f3:	48 89 85 90 f8 ff ff 	mov    %rax,-0x770(%rbp)
    e0fa:	48 8d 85 c0 f4 ff ff 	lea    -0xb40(%rbp),%rax
    e101:	48 83 c0 0f          	add    $0xf,%rax
    e105:	48 89 85 98 f8 ff ff 	mov    %rax,-0x768(%rbp)
    e10c:	48 8d 85 c0 f4 ff ff 	lea    -0xb40(%rbp),%rax
    e113:	48 83 c0 03          	add    $0x3,%rax
    e117:	48 89 85 a0 f8 ff ff 	mov    %rax,-0x760(%rbp)
    e11e:	48 8d 85 c0 f4 ff ff 	lea    -0xb40(%rbp),%rax
    e125:	48 83 c0 05          	add    $0x5,%rax
    e129:	48 89 85 a8 f8 ff ff 	mov    %rax,-0x758(%rbp)
    e130:	48 8d 05 35 b0 00 00 	lea    0xb035(%rip),%rax        # 1916c <g_676>
    e137:	48 89 85 b0 f8 ff ff 	mov    %rax,-0x750(%rbp)
    e13e:	48 8d 05 6b af 00 00 	lea    0xaf6b(%rip),%rax        # 190b0 <g_77>
    e145:	48 89 85 b8 f8 ff ff 	mov    %rax,-0x748(%rbp)
    e14c:	48 8d 85 c0 f4 ff ff 	lea    -0xb40(%rbp),%rax
    e153:	48 83 c0 05          	add    $0x5,%rax
    e157:	48 89 85 c0 f8 ff ff 	mov    %rax,-0x740(%rbp)
    e15e:	48 8d 05 07 b0 00 00 	lea    0xb007(%rip),%rax        # 1916c <g_676>
    e165:	48 89 85 c8 f8 ff ff 	mov    %rax,-0x738(%rbp)
    e16c:	48 8d 05 f9 af 00 00 	lea    0xaff9(%rip),%rax        # 1916c <g_676>
    e173:	48 89 85 d0 f8 ff ff 	mov    %rax,-0x730(%rbp)
    e17a:	48 c7 85 d8 f8 ff ff 	movq   $0x0,-0x728(%rbp)
    e181:	00 00 00 00 
    e185:	48 8d 85 c0 f4 ff ff 	lea    -0xb40(%rbp),%rax
    e18c:	48 83 c0 03          	add    $0x3,%rax
    e190:	48 89 85 e0 f8 ff ff 	mov    %rax,-0x720(%rbp)
    e197:	48 8d 85 c0 f4 ff ff 	lea    -0xb40(%rbp),%rax
    e19e:	48 83 c0 03          	add    $0x3,%rax
    e1a2:	48 89 85 e8 f8 ff ff 	mov    %rax,-0x718(%rbp)
    e1a9:	48 8d 85 c0 f4 ff ff 	lea    -0xb40(%rbp),%rax
    e1b0:	48 83 c0 03          	add    $0x3,%rax
    e1b4:	48 89 85 f0 f8 ff ff 	mov    %rax,-0x710(%rbp)
    e1bb:	48 c7 85 f8 f8 ff ff 	movq   $0x0,-0x708(%rbp)
    e1c2:	00 00 00 00 
    e1c6:	48 8d 05 9f af 00 00 	lea    0xaf9f(%rip),%rax        # 1916c <g_676>
    e1cd:	48 89 85 00 f9 ff ff 	mov    %rax,-0x700(%rbp)
    e1d4:	48 8d 05 91 af 00 00 	lea    0xaf91(%rip),%rax        # 1916c <g_676>
    e1db:	48 89 85 08 f9 ff ff 	mov    %rax,-0x6f8(%rbp)
    e1e2:	48 8d 85 c0 f4 ff ff 	lea    -0xb40(%rbp),%rax
    e1e9:	48 83 c0 05          	add    $0x5,%rax
    e1ed:	48 89 85 10 f9 ff ff 	mov    %rax,-0x6f0(%rbp)
    e1f4:	48 8d 05 b5 ae 00 00 	lea    0xaeb5(%rip),%rax        # 190b0 <g_77>
    e1fb:	48 89 85 18 f9 ff ff 	mov    %rax,-0x6e8(%rbp)
    e202:	48 8d 05 63 af 00 00 	lea    0xaf63(%rip),%rax        # 1916c <g_676>
    e209:	48 89 85 20 f9 ff ff 	mov    %rax,-0x6e0(%rbp)
    e210:	48 8d 85 c0 f4 ff ff 	lea    -0xb40(%rbp),%rax
    e217:	48 83 c0 05          	add    $0x5,%rax
    e21b:	48 89 85 28 f9 ff ff 	mov    %rax,-0x6d8(%rbp)
    e222:	48 8d 85 c0 f4 ff ff 	lea    -0xb40(%rbp),%rax
    e229:	48 83 c0 03          	add    $0x3,%rax
    e22d:	48 89 85 30 f9 ff ff 	mov    %rax,-0x6d0(%rbp)
    e234:	48 8d 85 c0 f4 ff ff 	lea    -0xb40(%rbp),%rax
    e23b:	48 83 c0 0f          	add    $0xf,%rax
    e23f:	48 89 85 38 f9 ff ff 	mov    %rax,-0x6c8(%rbp)
    e246:	48 8d 85 c0 f4 ff ff 	lea    -0xb40(%rbp),%rax
    e24d:	48 83 c0 03          	add    $0x3,%rax
    e251:	48 89 85 40 f9 ff ff 	mov    %rax,-0x6c0(%rbp)
    e258:	48 8d 85 c0 f4 ff ff 	lea    -0xb40(%rbp),%rax
    e25f:	48 83 c0 05          	add    $0x5,%rax
    e263:	48 89 85 48 f9 ff ff 	mov    %rax,-0x6b8(%rbp)
    e26a:	48 8d 05 fb ae 00 00 	lea    0xaefb(%rip),%rax        # 1916c <g_676>
    e271:	48 89 85 50 f9 ff ff 	mov    %rax,-0x6b0(%rbp)
    e278:	48 8d 05 31 ae 00 00 	lea    0xae31(%rip),%rax        # 190b0 <g_77>
    e27f:	48 89 85 58 f9 ff ff 	mov    %rax,-0x6a8(%rbp)
    e286:	48 8d 85 c0 f4 ff ff 	lea    -0xb40(%rbp),%rax
    e28d:	48 83 c0 05          	add    $0x5,%rax
    e291:	48 89 85 60 f9 ff ff 	mov    %rax,-0x6a0(%rbp)
    e298:	48 8d 05 cd ae 00 00 	lea    0xaecd(%rip),%rax        # 1916c <g_676>
    e29f:	48 89 85 68 f9 ff ff 	mov    %rax,-0x698(%rbp)
    e2a6:	48 8d 05 bf ae 00 00 	lea    0xaebf(%rip),%rax        # 1916c <g_676>
    e2ad:	48 89 85 70 f9 ff ff 	mov    %rax,-0x690(%rbp)
    e2b4:	48 c7 85 78 f9 ff ff 	movq   $0x0,-0x688(%rbp)
    e2bb:	00 00 00 00 
    e2bf:	48 8d 85 c0 f4 ff ff 	lea    -0xb40(%rbp),%rax
    e2c6:	48 83 c0 03          	add    $0x3,%rax
    e2ca:	48 89 85 80 f9 ff ff 	mov    %rax,-0x680(%rbp)
    e2d1:	48 8d 85 c0 f4 ff ff 	lea    -0xb40(%rbp),%rax
    e2d8:	48 83 c0 03          	add    $0x3,%rax
    e2dc:	48 89 85 88 f9 ff ff 	mov    %rax,-0x678(%rbp)
    e2e3:	48 8d 85 c0 f4 ff ff 	lea    -0xb40(%rbp),%rax
    e2ea:	48 83 c0 03          	add    $0x3,%rax
    e2ee:	48 89 85 90 f9 ff ff 	mov    %rax,-0x670(%rbp)
    e2f5:	48 c7 85 98 f9 ff ff 	movq   $0x0,-0x668(%rbp)
    e2fc:	00 00 00 00 
    e300:	48 8d 05 65 ae 00 00 	lea    0xae65(%rip),%rax        # 1916c <g_676>
    e307:	48 89 85 a0 f9 ff ff 	mov    %rax,-0x660(%rbp)
    e30e:	48 8d 05 57 ae 00 00 	lea    0xae57(%rip),%rax        # 1916c <g_676>
    e315:	48 89 85 a8 f9 ff ff 	mov    %rax,-0x658(%rbp)
    e31c:	48 8d 85 c0 f4 ff ff 	lea    -0xb40(%rbp),%rax
    e323:	48 83 c0 05          	add    $0x5,%rax
    e327:	48 89 85 b0 f9 ff ff 	mov    %rax,-0x650(%rbp)
    e32e:	48 8d 05 7b ad 00 00 	lea    0xad7b(%rip),%rax        # 190b0 <g_77>
    e335:	48 89 85 b8 f9 ff ff 	mov    %rax,-0x648(%rbp)
    e33c:	48 8d 05 29 ae 00 00 	lea    0xae29(%rip),%rax        # 1916c <g_676>
    e343:	48 89 85 c0 f9 ff ff 	mov    %rax,-0x640(%rbp)
    e34a:	48 8d 85 c0 f4 ff ff 	lea    -0xb40(%rbp),%rax
    e351:	48 83 c0 05          	add    $0x5,%rax
    e355:	48 89 85 c8 f9 ff ff 	mov    %rax,-0x638(%rbp)
    e35c:	48 8d 85 c0 f4 ff ff 	lea    -0xb40(%rbp),%rax
    e363:	48 83 c0 03          	add    $0x3,%rax
    e367:	48 89 85 d0 f9 ff ff 	mov    %rax,-0x630(%rbp)
    e36e:	48 8d 85 c0 f4 ff ff 	lea    -0xb40(%rbp),%rax
    e375:	48 83 c0 0f          	add    $0xf,%rax
    e379:	48 89 85 d8 f9 ff ff 	mov    %rax,-0x628(%rbp)
    e380:	48 8d 85 c0 f4 ff ff 	lea    -0xb40(%rbp),%rax
    e387:	48 83 c0 03          	add    $0x3,%rax
    e38b:	48 89 85 e0 f9 ff ff 	mov    %rax,-0x620(%rbp)
    e392:	48 8d 85 c0 f4 ff ff 	lea    -0xb40(%rbp),%rax
    e399:	48 83 c0 05          	add    $0x5,%rax
    e39d:	48 89 85 e8 f9 ff ff 	mov    %rax,-0x618(%rbp)
    e3a4:	48 8d 05 c1 ad 00 00 	lea    0xadc1(%rip),%rax        # 1916c <g_676>
    e3ab:	48 89 85 f0 f9 ff ff 	mov    %rax,-0x610(%rbp)
    e3b2:	48 8d 05 f7 ac 00 00 	lea    0xacf7(%rip),%rax        # 190b0 <g_77>
    e3b9:	48 89 85 f8 f9 ff ff 	mov    %rax,-0x608(%rbp)
    e3c0:	48 8d 85 c0 f4 ff ff 	lea    -0xb40(%rbp),%rax
    e3c7:	48 83 c0 05          	add    $0x5,%rax
    e3cb:	48 89 85 00 fa ff ff 	mov    %rax,-0x600(%rbp)
    e3d2:	48 8d 05 93 ad 00 00 	lea    0xad93(%rip),%rax        # 1916c <g_676>
    e3d9:	48 89 85 08 fa ff ff 	mov    %rax,-0x5f8(%rbp)
    e3e0:	48 8d 05 85 ad 00 00 	lea    0xad85(%rip),%rax        # 1916c <g_676>
    e3e7:	48 89 85 10 fa ff ff 	mov    %rax,-0x5f0(%rbp)
    e3ee:	48 c7 85 18 fa ff ff 	movq   $0x0,-0x5e8(%rbp)
    e3f5:	00 00 00 00 
    e3f9:	48 8d 85 c0 f4 ff ff 	lea    -0xb40(%rbp),%rax
    e400:	48 83 c0 03          	add    $0x3,%rax
    e404:	48 89 85 20 fa ff ff 	mov    %rax,-0x5e0(%rbp)
    e40b:	48 8d 85 c0 f4 ff ff 	lea    -0xb40(%rbp),%rax
    e412:	48 83 c0 03          	add    $0x3,%rax
    e416:	48 89 85 28 fa ff ff 	mov    %rax,-0x5d8(%rbp)
    e41d:	48 8d 85 c0 f4 ff ff 	lea    -0xb40(%rbp),%rax
    e424:	48 83 c0 03          	add    $0x3,%rax
    e428:	48 89 85 30 fa ff ff 	mov    %rax,-0x5d0(%rbp)
    e42f:	48 c7 85 38 fa ff ff 	movq   $0x0,-0x5c8(%rbp)
    e436:	00 00 00 00 
    e43a:	48 8d 05 2b ad 00 00 	lea    0xad2b(%rip),%rax        # 1916c <g_676>
    e441:	48 89 85 40 fa ff ff 	mov    %rax,-0x5c0(%rbp)
    e448:	48 8d 05 1d ad 00 00 	lea    0xad1d(%rip),%rax        # 1916c <g_676>
    e44f:	48 89 85 48 fa ff ff 	mov    %rax,-0x5b8(%rbp)
    e456:	48 8d 85 c0 f4 ff ff 	lea    -0xb40(%rbp),%rax
    e45d:	48 83 c0 05          	add    $0x5,%rax
    e461:	48 89 85 50 fa ff ff 	mov    %rax,-0x5b0(%rbp)
    e468:	48 8d 05 41 ac 00 00 	lea    0xac41(%rip),%rax        # 190b0 <g_77>
    e46f:	48 89 85 58 fa ff ff 	mov    %rax,-0x5a8(%rbp)
    e476:	48 8d 05 ef ac 00 00 	lea    0xacef(%rip),%rax        # 1916c <g_676>
    e47d:	48 89 85 60 fa ff ff 	mov    %rax,-0x5a0(%rbp)
    e484:	48 8d 85 c0 f4 ff ff 	lea    -0xb40(%rbp),%rax
    e48b:	48 83 c0 05          	add    $0x5,%rax
    e48f:	48 89 85 68 fa ff ff 	mov    %rax,-0x598(%rbp)
    e496:	48 8d 85 c0 f4 ff ff 	lea    -0xb40(%rbp),%rax
    e49d:	48 83 c0 03          	add    $0x3,%rax
    e4a1:	48 89 85 70 fa ff ff 	mov    %rax,-0x590(%rbp)
    e4a8:	48 8d 85 c0 f4 ff ff 	lea    -0xb40(%rbp),%rax
    e4af:	48 83 c0 0f          	add    $0xf,%rax
    e4b3:	48 89 85 78 fa ff ff 	mov    %rax,-0x588(%rbp)
    e4ba:	48 8d 85 c0 f4 ff ff 	lea    -0xb40(%rbp),%rax
    e4c1:	48 83 c0 03          	add    $0x3,%rax
    e4c5:	48 89 85 80 fa ff ff 	mov    %rax,-0x580(%rbp)
    e4cc:	48 8d 85 c0 f4 ff ff 	lea    -0xb40(%rbp),%rax
    e4d3:	48 83 c0 05          	add    $0x5,%rax
    e4d7:	48 89 85 88 fa ff ff 	mov    %rax,-0x578(%rbp)
    e4de:	48 8d 05 87 ac 00 00 	lea    0xac87(%rip),%rax        # 1916c <g_676>
    e4e5:	48 89 85 90 fa ff ff 	mov    %rax,-0x570(%rbp)
    e4ec:	48 8d 05 bd ab 00 00 	lea    0xabbd(%rip),%rax        # 190b0 <g_77>
    e4f3:	48 89 85 98 fa ff ff 	mov    %rax,-0x568(%rbp)
    e4fa:	48 8d 85 c0 f4 ff ff 	lea    -0xb40(%rbp),%rax
    e501:	48 83 c0 05          	add    $0x5,%rax
    e505:	48 89 85 a0 fa ff ff 	mov    %rax,-0x560(%rbp)
    e50c:	48 8d 05 59 ac 00 00 	lea    0xac59(%rip),%rax        # 1916c <g_676>
    e513:	48 89 85 a8 fa ff ff 	mov    %rax,-0x558(%rbp)
    e51a:	48 8d 05 4b ac 00 00 	lea    0xac4b(%rip),%rax        # 1916c <g_676>
    e521:	48 89 85 b0 fa ff ff 	mov    %rax,-0x550(%rbp)
    e528:	48 c7 85 b8 fa ff ff 	movq   $0x0,-0x548(%rbp)
    e52f:	00 00 00 00 
    e533:	48 8d 85 c0 f4 ff ff 	lea    -0xb40(%rbp),%rax
    e53a:	48 83 c0 03          	add    $0x3,%rax
    e53e:	48 89 85 c0 fa ff ff 	mov    %rax,-0x540(%rbp)
    e545:	48 8d 85 c0 f4 ff ff 	lea    -0xb40(%rbp),%rax
    e54c:	48 83 c0 03          	add    $0x3,%rax
    e550:	48 89 85 c8 fa ff ff 	mov    %rax,-0x538(%rbp)
    e557:	48 8d 85 c0 f4 ff ff 	lea    -0xb40(%rbp),%rax
    e55e:	48 83 c0 03          	add    $0x3,%rax
    e562:	48 89 85 d0 fa ff ff 	mov    %rax,-0x530(%rbp)
    e569:	48 c7 85 d8 fa ff ff 	movq   $0x0,-0x528(%rbp)
    e570:	00 00 00 00 
    e574:	48 8d 05 f1 ab 00 00 	lea    0xabf1(%rip),%rax        # 1916c <g_676>
    e57b:	48 89 85 e0 fa ff ff 	mov    %rax,-0x520(%rbp)
    e582:	48 8d 05 e3 ab 00 00 	lea    0xabe3(%rip),%rax        # 1916c <g_676>
    e589:	48 89 85 e8 fa ff ff 	mov    %rax,-0x518(%rbp)
    e590:	48 8d 85 c0 f4 ff ff 	lea    -0xb40(%rbp),%rax
    e597:	48 83 c0 05          	add    $0x5,%rax
    e59b:	48 89 85 f0 fa ff ff 	mov    %rax,-0x510(%rbp)
    e5a2:	48 8d 05 07 ab 00 00 	lea    0xab07(%rip),%rax        # 190b0 <g_77>
    e5a9:	48 89 85 f8 fa ff ff 	mov    %rax,-0x508(%rbp)
    e5b0:	48 8d 05 b5 ab 00 00 	lea    0xabb5(%rip),%rax        # 1916c <g_676>
    e5b7:	48 89 85 00 fb ff ff 	mov    %rax,-0x500(%rbp)
    e5be:	48 8d 85 c0 f4 ff ff 	lea    -0xb40(%rbp),%rax
    e5c5:	48 83 c0 05          	add    $0x5,%rax
    e5c9:	48 89 85 08 fb ff ff 	mov    %rax,-0x4f8(%rbp)
    e5d0:	c6 85 87 f2 ff ff 01 	movb   $0x1,-0xd79(%rbp)
    e5d7:	c7 85 68 f3 ff ff 93 	movl   $0xa1b72993,-0xc98(%rbp)
    e5de:	29 b7 a1 
    e5e1:	c7 85 e8 f2 ff ff ff 	movl   $0xffffffff,-0xd18(%rbp)
    e5e8:	ff ff ff 
    e5eb:	c7 85 ec f2 ff ff 1c 	movl   $0x23aacb1c,-0xd14(%rbp)
    e5f2:	cb aa 23 
    e5f5:	c7 85 20 f6 ff ff 00 	movl   $0x0,-0x9e0(%rbp)
    e5fc:	00 00 00 
    e5ff:	c7 85 24 f6 ff ff 00 	movl   $0x0,-0x9dc(%rbp)
    e606:	00 00 00 
    e609:	c7 85 28 f6 ff ff 60 	movl   $0x88fbf660,-0x9d8(%rbp)
    e610:	f6 fb 88 
    e613:	c7 85 2c f6 ff ff 03 	movl   $0x3,-0x9d4(%rbp)
    e61a:	00 00 00 
    e61d:	c7 85 30 f6 ff ff 60 	movl   $0x88fbf660,-0x9d0(%rbp)
    e624:	f6 fb 88 
    e627:	c7 85 34 f6 ff ff 00 	movl   $0x0,-0x9cc(%rbp)
    e62e:	00 00 00 
    e631:	c7 85 38 f6 ff ff 00 	movl   $0x0,-0x9c8(%rbp)
    e638:	00 00 00 
    e63b:	c7 85 3c f6 ff ff 60 	movl   $0x88fbf660,-0x9c4(%rbp)
    e642:	f6 fb 88 
    e645:	c7 85 40 f6 ff ff 03 	movl   $0x3,-0x9c0(%rbp)
    e64c:	00 00 00 
    e64f:	c7 85 44 f6 ff ff 60 	movl   $0x88fbf660,-0x9bc(%rbp)
    e656:	f6 fb 88 
    e659:	c7 85 f0 f2 ff ff 7d 	movl   $0x4004a97d,-0xd10(%rbp)
    e660:	a9 04 40 
    e663:	48 8b 85 28 f3 ff ff 	mov    -0xcd8(%rbp),%rax
    e66a:	48 8b 00             	mov    (%rax),%rax
    e66d:	48 8b 00             	mov    (%rax),%rax
    e670:	8b 00                	mov    (%rax),%eax
    e672:	0f b7 d8             	movzwl %ax,%ebx
    e675:	48 8b 85 70 f3 ff ff 	mov    -0xc90(%rbp),%rax
    e67c:	44 0f b7 e0          	movzwl %ax,%r12d
    e680:	44 0f b6 ad 87 f2 ff 	movzbl -0xd79(%rbp),%r13d
    e687:	ff 
    e688:	44 0f b6 b5 87 f2 ff 	movzbl -0xd79(%rbp),%r14d
    e68f:	ff 
    e690:	44 0f b6 bd 74 f2 ff 	movzbl -0xd8c(%rbp),%r15d
    e697:	ff 
    e698:	48 8b 05 71 de 00 00 	mov    0xde71(%rip),%rax        # 1c510 <g_632>
    e69f:	0f b6 95 74 f2 ff ff 	movzbl -0xd8c(%rbp),%edx
    e6a6:	88 10                	mov    %dl,(%rax)
    e6a8:	0f b6 00             	movzbl (%rax),%eax
    e6ab:	84 c0                	test   %al,%al
    e6ad:	0f b6 85 87 f2 ff ff 	movzbl -0xd79(%rbp),%eax
    e6b4:	89 85 60 f2 ff ff    	mov    %eax,-0xda0(%rbp)
    e6ba:	0f be 8d 70 f2 ff ff 	movsbl -0xd90(%rbp),%ecx
    e6c1:	89 8d 5c f2 ff ff    	mov    %ecx,-0xda4(%rbp)
    e6c7:	48 8b 85 70 f3 ff ff 	mov    -0xc90(%rbp),%rax
    e6ce:	89 85 58 f2 ff ff    	mov    %eax,-0xda8(%rbp)
    e6d4:	0f b6 85 70 f2 ff ff 	movzbl -0xd90(%rbp),%eax
    e6db:	83 c8 01             	or     $0x1,%eax
    e6de:	0f be c0             	movsbl %al,%eax
    e6e1:	89 85 c8 f2 ff ff    	mov    %eax,-0xd38(%rbp)
    e6e7:	8b 85 c8 f2 ff ff    	mov    -0xd38(%rbp),%eax
    e6ed:	0f be c0             	movsbl %al,%eax
    e6f0:	be 02 00 00 00       	mov    $0x2,%esi
    e6f5:	89 c7                	mov    %eax,%edi
    e6f7:	e8 70 ac ff ff       	callq  936c <safe_rshift_func_int8_t_s_u>
    e6fc:	48 8b 85 28 f3 ff ff 	mov    -0xcd8(%rbp),%rax
    e703:	48 8b 00             	mov    (%rax),%rax
    e706:	48 8b 00             	mov    (%rax),%rax
    e709:	8b 00                	mov    (%rax),%eax
    e70b:	0f b7 c0             	movzwl %ax,%eax
    e70e:	89 c7                	mov    %eax,%edi
    e710:	e8 d4 b5 ff ff       	callq  9ce9 <safe_unary_minus_func_uint16_t_u>
    e715:	0f b7 d0             	movzwl %ax,%edx
    e718:	0f b6 05 84 ae 00 00 	movzbl 0xae84(%rip),%eax        # 195a3 <g_1326+0x3>
    e71f:	0f be c0             	movsbl %al,%eax
    e722:	89 d6                	mov    %edx,%esi
    e724:	89 c7                	mov    %eax,%edi
    e726:	e8 0a ac ff ff       	callq  9335 <safe_rshift_func_int8_t_s_s>
    e72b:	0f be c0             	movsbl %al,%eax
    e72e:	be 64 00 00 00       	mov    $0x64,%esi
    e733:	89 c7                	mov    %eax,%edi
    e735:	e8 30 ab ff ff       	callq  926a <safe_div_func_int8_t_s_s>
    e73a:	0f be c0             	movsbl %al,%eax
    e73d:	8b b5 58 f2 ff ff    	mov    -0xda8(%rbp),%esi
    e743:	89 c7                	mov    %eax,%edi
    e745:	e8 eb ab ff ff       	callq  9335 <safe_rshift_func_int8_t_s_s>
    e74a:	0f b6 c0             	movzbl %al,%eax
    e74d:	be 02 00 00 00       	mov    $0x2,%esi
    e752:	89 c7                	mov    %eax,%edi
    e754:	e8 65 b5 ff ff       	callq  9cbe <safe_rshift_func_uint8_t_u_u>
    e759:	0f b6 c0             	movzbl %al,%eax
    e75c:	8b b5 5c f2 ff ff    	mov    -0xda4(%rbp),%esi
    e762:	89 c7                	mov    %eax,%edi
    e764:	e8 8c ac ff ff       	callq  93f5 <safe_mul_func_int16_t_s_s>
    e769:	0f bf d0             	movswl %ax,%edx
    e76c:	48 8b 05 75 e4 00 00 	mov    0xe475(%rip),%rax        # 1cbe8 <g_1516>
    e773:	48 8b 00             	mov    (%rax),%rax
    e776:	48 8b 00             	mov    (%rax),%rax
    e779:	0f b7 00             	movzwl (%rax),%eax
    e77c:	98                   	cwtl   
    e77d:	89 d6                	mov    %edx,%esi
    e77f:	89 c7                	mov    %eax,%edi
    e781:	e8 a4 ad ff ff       	callq  952a <safe_rshift_func_int16_t_s_s>
    e786:	66 85 c0             	test   %ax,%ax
    e789:	0f 9f c0             	setg   %al
    e78c:	0f b6 d0             	movzbl %al,%edx
    e78f:	0f b6 85 74 f2 ff ff 	movzbl -0xd8c(%rbp),%eax
    e796:	39 85 c4 f2 ff ff    	cmp    %eax,-0xd3c(%rbp)
    e79c:	0f 9e c0             	setle  %al
    e79f:	0f b6 c0             	movzbl %al,%eax
    e7a2:	89 d6                	mov    %edx,%esi
    e7a4:	89 c7                	mov    %eax,%edi
    e7a6:	e8 36 ad ff ff       	callq  94e1 <safe_lshift_func_int16_t_s_u>
    e7ab:	0f b6 c0             	movzbl %al,%eax
    e7ae:	8b b5 60 f2 ff ff    	mov    -0xda0(%rbp),%esi
    e7b4:	89 c7                	mov    %eax,%edi
    e7b6:	e8 03 b5 ff ff       	callq  9cbe <safe_rshift_func_uint8_t_u_u>
    e7bb:	38 85 74 f2 ff ff    	cmp    %al,-0xd8c(%rbp)
    e7c1:	44 89 fe             	mov    %r15d,%esi
    e7c4:	bf 01 00 00 00       	mov    $0x1,%edi
    e7c9:	e8 7e b4 ff ff       	callq  9c4c <safe_lshift_func_uint8_t_u_u>
    e7ce:	44 89 f6             	mov    %r14d,%esi
    e7d1:	bf 00 00 00 00       	mov    $0x0,%edi
    e7d6:	e8 2a b4 ff ff       	callq  9c05 <safe_lshift_func_uint8_t_u_s>
    e7db:	0f b6 c0             	movzbl %al,%eax
    e7de:	4c 89 ee             	mov    %r13,%rsi
    e7e1:	48 89 c7             	mov    %rax,%rdi
    e7e4:	e8 45 b8 ff ff       	callq  a02e <safe_add_func_uint64_t_u_u>
    e7e9:	48 8b 05 90 d9 00 00 	mov    0xd990(%rip),%rax        # 1c180 <g_277>
    e7f0:	8b 00                	mov    (%rax),%eax
    e7f2:	85 c0                	test   %eax,%eax
    e7f4:	8b 05 6e a9 00 00    	mov    0xa96e(%rip),%eax        # 19168 <g_609>
    e7fa:	66 0f be 85 70 f2 ff 	movsbw -0xd90(%rbp),%ax
    e801:	ff 
    e802:	0f b7 c0             	movzwl %ax,%eax
    e805:	44 89 e6             	mov    %r12d,%esi
    e808:	89 c7                	mov    %eax,%edi
    e80a:	e8 10 b5 ff ff       	callq  9d1f <safe_sub_func_uint16_t_u_u>
    e80f:	0f b7 d0             	movzwl %ax,%edx
    e812:	48 8d 05 67 e3 00 00 	lea    0xe367(%rip),%rax        # 1cb80 <g_1274>
    e819:	48 8b 00             	mov    (%rax),%rax
    e81c:	48 8b 00             	mov    (%rax),%rax
    e81f:	48 39 c2             	cmp    %rax,%rdx
    e822:	0f 9c c0             	setl   %al
    e825:	0f b6 c0             	movzbl %al,%eax
    e828:	89 de                	mov    %ebx,%esi
    e82a:	89 c7                	mov    %eax,%edi
    e82c:	e8 ce b4 ff ff       	callq  9cff <safe_add_func_uint16_t_u_u>
    e831:	48 8b 85 30 f3 ff ff 	mov    -0xcd0(%rbp),%rax
    e838:	48 8b 00             	mov    (%rax),%rax
    e83b:	48 8b 00             	mov    (%rax),%rax
    e83e:	48 8b 00             	mov    (%rax),%rax
    e841:	8b 00                	mov    (%rax),%eax
    e843:	85 c0                	test   %eax,%eax
    e845:	0f 84 6a 02 00 00    	je     eab5 <func_11+0x2f5c>
    e84b:	48 c7 85 d0 f3 ff ff 	movq   $0x0,-0xc30(%rbp)
    e852:	00 00 00 00 
    e856:	48 c7 85 d8 f3 ff ff 	movq   $0x0,-0xc28(%rbp)
    e85d:	00 00 00 00 
    e861:	66 c7 85 8e f2 ff ff 	movw   $0x9,-0xd72(%rbp)
    e868:	09 00 
    e86a:	48 8d 85 68 f3 ff ff 	lea    -0xc98(%rbp),%rax
    e871:	48 89 85 e0 f3 ff ff 	mov    %rax,-0xc20(%rbp)
    e878:	48 c7 85 00 f7 ff ff 	movq   $0x0,-0x900(%rbp)
    e87f:	00 00 00 00 
    e883:	48 8d 85 7c f4 ff ff 	lea    -0xb84(%rbp),%rax
    e88a:	48 89 85 08 f7 ff ff 	mov    %rax,-0x8f8(%rbp)
    e891:	48 8d 85 7c f4 ff ff 	lea    -0xb84(%rbp),%rax
    e898:	48 89 85 10 f7 ff ff 	mov    %rax,-0x8f0(%rbp)
    e89f:	48 c7 85 18 f7 ff ff 	movq   $0x0,-0x8e8(%rbp)
    e8a6:	00 00 00 00 
    e8aa:	48 8d 85 7c f4 ff ff 	lea    -0xb84(%rbp),%rax
    e8b1:	48 89 85 20 f7 ff ff 	mov    %rax,-0x8e0(%rbp)
    e8b8:	48 8d 85 7c f4 ff ff 	lea    -0xb84(%rbp),%rax
    e8bf:	48 89 85 28 f7 ff ff 	mov    %rax,-0x8d8(%rbp)
    e8c6:	48 c7 85 30 f7 ff ff 	movq   $0x0,-0x8d0(%rbp)
    e8cd:	00 00 00 00 
    e8d1:	48 8d 85 7c f4 ff ff 	lea    -0xb84(%rbp),%rax
    e8d8:	48 89 85 38 f7 ff ff 	mov    %rax,-0x8c8(%rbp)
    e8df:	48 8d 85 7c f4 ff ff 	lea    -0xb84(%rbp),%rax
    e8e6:	48 89 85 40 f7 ff ff 	mov    %rax,-0x8c0(%rbp)
    e8ed:	48 c7 85 48 f7 ff ff 	movq   $0x0,-0x8b8(%rbp)
    e8f4:	00 00 00 00 
    e8f8:	48 8d 85 7c f4 ff ff 	lea    -0xb84(%rbp),%rax
    e8ff:	48 89 85 50 f7 ff ff 	mov    %rax,-0x8b0(%rbp)
    e906:	48 c7 85 58 f7 ff ff 	movq   $0x0,-0x8a8(%rbp)
    e90d:	00 00 00 00 
    e911:	48 8d 85 7c f4 ff ff 	lea    -0xb84(%rbp),%rax
    e918:	48 89 85 60 f7 ff ff 	mov    %rax,-0x8a0(%rbp)
    e91f:	48 8d 85 7c f4 ff ff 	lea    -0xb84(%rbp),%rax
    e926:	48 89 85 68 f7 ff ff 	mov    %rax,-0x898(%rbp)
    e92d:	48 c7 85 70 f7 ff ff 	movq   $0x0,-0x890(%rbp)
    e934:	00 00 00 00 
    e938:	48 8d 85 7c f4 ff ff 	lea    -0xb84(%rbp),%rax
    e93f:	48 89 85 78 f7 ff ff 	mov    %rax,-0x888(%rbp)
    e946:	48 8d 85 7c f4 ff ff 	lea    -0xb84(%rbp),%rax
    e94d:	48 89 85 80 f7 ff ff 	mov    %rax,-0x880(%rbp)
    e954:	48 c7 85 88 f7 ff ff 	movq   $0x0,-0x878(%rbp)
    e95b:	00 00 00 00 
    e95f:	48 8d 85 7c f4 ff ff 	lea    -0xb84(%rbp),%rax
    e966:	48 89 85 90 f7 ff ff 	mov    %rax,-0x870(%rbp)
    e96d:	48 8d 85 7c f4 ff ff 	lea    -0xb84(%rbp),%rax
    e974:	48 89 85 98 f7 ff ff 	mov    %rax,-0x868(%rbp)
    e97b:	48 c7 85 a0 f7 ff ff 	movq   $0x0,-0x860(%rbp)
    e982:	00 00 00 00 
    e986:	48 c7 85 a8 f7 ff ff 	movq   $0x0,-0x858(%rbp)
    e98d:	00 00 00 00 
    e991:	48 c7 85 b0 f7 ff ff 	movq   $0x0,-0x850(%rbp)
    e998:	00 00 00 00 
    e99c:	48 c7 85 b8 f7 ff ff 	movq   $0x0,-0x848(%rbp)
    e9a3:	00 00 00 00 
    e9a7:	48 c7 85 c0 f7 ff ff 	movq   $0x0,-0x840(%rbp)
    e9ae:	00 00 00 00 
    e9b2:	48 c7 85 c8 f7 ff ff 	movq   $0x0,-0x838(%rbp)
    e9b9:	00 00 00 00 
    e9bd:	48 c7 85 d0 f7 ff ff 	movq   $0x0,-0x830(%rbp)
    e9c4:	00 00 00 00 
    e9c8:	48 c7 85 d8 f7 ff ff 	movq   $0x0,-0x828(%rbp)
    e9cf:	00 00 00 00 
    e9d3:	48 c7 85 e0 f7 ff ff 	movq   $0x0,-0x820(%rbp)
    e9da:	00 00 00 00 
    e9de:	48 c7 85 e8 f7 ff ff 	movq   $0x0,-0x818(%rbp)
    e9e5:	00 00 00 00 
    e9e9:	48 c7 85 f0 f7 ff ff 	movq   $0x0,-0x810(%rbp)
    e9f0:	00 00 00 00 
    e9f4:	48 8d 85 7c f4 ff ff 	lea    -0xb84(%rbp),%rax
    e9fb:	48 89 85 f8 f7 ff ff 	mov    %rax,-0x808(%rbp)
    ea02:	48 8d 85 7c f4 ff ff 	lea    -0xb84(%rbp),%rax
    ea09:	48 89 85 00 f8 ff ff 	mov    %rax,-0x800(%rbp)
    ea10:	48 c7 85 08 f8 ff ff 	movq   $0x0,-0x7f8(%rbp)
    ea17:	00 00 00 00 
    ea1b:	48 c7 85 10 f8 ff ff 	movq   $0x0,-0x7f0(%rbp)
    ea22:	00 00 00 00 
    ea26:	48 c7 85 18 f8 ff ff 	movq   $0x0,-0x7e8(%rbp)
    ea2d:	00 00 00 00 
    ea31:	48 8d 85 7c f4 ff ff 	lea    -0xb84(%rbp),%rax
    ea38:	48 89 85 20 f8 ff ff 	mov    %rax,-0x7e0(%rbp)
    ea3f:	48 c7 85 28 f8 ff ff 	movq   $0x0,-0x7d8(%rbp)
    ea46:	00 00 00 00 
    ea4a:	48 c7 85 30 f8 ff ff 	movq   $0x0,-0x7d0(%rbp)
    ea51:	00 00 00 00 
    ea55:	48 8d 85 7c f4 ff ff 	lea    -0xb84(%rbp),%rax
    ea5c:	48 89 85 38 f8 ff ff 	mov    %rax,-0x7c8(%rbp)
    ea63:	0f b6 85 58 f3 ff ff 	movzbl -0xca8(%rbp),%eax
    ea6a:	83 c0 01             	add    $0x1,%eax
    ea6d:	88 85 58 f3 ff ff    	mov    %al,-0xca8(%rbp)
    ea73:	c7 85 98 f2 ff ff 07 	movl   $0x7,-0xd68(%rbp)
    ea7a:	00 00 00 
    ea7d:	eb 2b                	jmp    eaaa <func_11+0x2f51>
    ea7f:	c7 85 f4 f2 ff ff fc 	movl   $0xfffffffc,-0xd0c(%rbp)
    ea86:	ff ff ff 
    ea89:	83 ad f4 f2 ff ff 01 	subl   $0x1,-0xd0c(%rbp)
    ea90:	8b 85 98 f2 ff ff    	mov    -0xd68(%rbp),%eax
    ea96:	98                   	cwtl   
    ea97:	be 02 00 00 00       	mov    $0x2,%esi
    ea9c:	89 c7                	mov    %eax,%edi
    ea9e:	e8 10 a9 ff ff       	callq  93b3 <safe_add_func_int16_t_s_s>
    eaa3:	98                   	cwtl   
    eaa4:	89 85 98 f2 ff ff    	mov    %eax,-0xd68(%rbp)
    eaaa:	83 bd 98 f2 ff ff 3a 	cmpl   $0x3a,-0xd68(%rbp)
    eab1:	76 cc                	jbe    ea7f <func_11+0x2f26>
    eab3:	eb 4c                	jmp    eb01 <func_11+0x2fa8>
    eab5:	c6 85 88 f2 ff ff ac 	movb   $0xac,-0xd78(%rbp)
    eabc:	0f b6 85 88 f2 ff ff 	movzbl -0xd78(%rbp),%eax
    eac3:	83 c0 01             	add    $0x1,%eax
    eac6:	88 85 88 f2 ff ff    	mov    %al,-0xd78(%rbp)
    eacc:	48 8b 15 bd e0 00 00 	mov    0xe0bd(%rip),%rdx        # 1cb90 <g_1503>
    ead3:	48 8b 05 b6 e0 00 00 	mov    0xe0b6(%rip),%rax        # 1cb90 <g_1503>
    eada:	48 8b 12             	mov    (%rdx),%rdx
    eadd:	48 89 10             	mov    %rdx,(%rax)
    eae0:	48 8b 10             	mov    (%rax),%rdx
    eae3:	48 8d 85 60 f3 ff ff 	lea    -0xca0(%rbp),%rax
    eaea:	48 39 c2             	cmp    %rax,%rdx
    eaed:	0f 95 c0             	setne  %al
    eaf0:	0f b6 d0             	movzbl %al,%edx
    eaf3:	48 8b 05 4e cb 00 00 	mov    0xcb4e(%rip),%rax        # 1b648 <g_143>
    eafa:	48 8b 00             	mov    (%rax),%rax
    eafd:	f7 d2                	not    %edx
    eaff:	89 10                	mov    %edx,(%rax)
    eb01:	48 8b 05 90 e0 00 00 	mov    0xe090(%rip),%rax        # 1cb98 <g_1501>
    eb08:	48 8b 00             	mov    (%rax),%rax
    eb0b:	48 8b 00             	mov    (%rax),%rax
    eb0e:	48 8b 00             	mov    (%rax),%rax
    eb11:	e9 24 09 00 00       	jmpq   f43a <func_11+0x38e1>
    eb16:	48 8d 05 d7 a5 00 00 	lea    0xa5d7(%rip),%rax        # 190f4 <g_285+0x4>
    eb1d:	48 89 85 40 f8 ff ff 	mov    %rax,-0x7c0(%rbp)
    eb24:	48 c7 85 48 f8 ff ff 	movq   $0x0,-0x7b8(%rbp)
    eb2b:	00 00 00 00 
    eb2f:	48 c7 85 50 f8 ff ff 	movq   $0x0,-0x7b0(%rbp)
    eb36:	00 00 00 00 
    eb3a:	48 8d 05 6a aa 00 00 	lea    0xaa6a(%rip),%rax        # 195ab <g_1326+0xb>
    eb41:	48 89 85 58 f8 ff ff 	mov    %rax,-0x7a8(%rbp)
    eb48:	48 8d 05 6c aa 00 00 	lea    0xaa6c(%rip),%rax        # 195bb <g_1326+0x1b>
    eb4f:	48 89 85 60 f8 ff ff 	mov    %rax,-0x7a0(%rbp)
    eb56:	48 c7 85 68 f8 ff ff 	movq   $0x0,-0x798(%rbp)
    eb5d:	00 00 00 00 
    eb61:	48 8d 05 88 a5 00 00 	lea    0xa588(%rip),%rax        # 190f0 <g_285>
    eb68:	48 89 85 70 f8 ff ff 	mov    %rax,-0x790(%rbp)
    eb6f:	48 8d 05 45 aa 00 00 	lea    0xaa45(%rip),%rax        # 195bb <g_1326+0x1b>
    eb76:	48 89 85 78 f8 ff ff 	mov    %rax,-0x788(%rbp)
    eb7d:	48 8d 85 58 f3 ff ff 	lea    -0xca8(%rbp),%rax
    eb84:	48 89 85 80 f8 ff ff 	mov    %rax,-0x780(%rbp)
    eb8b:	48 c7 85 88 f8 ff ff 	movq   $0x0,-0x778(%rbp)
    eb92:	00 00 00 00 
    eb96:	48 c7 85 90 f8 ff ff 	movq   $0x0,-0x770(%rbp)
    eb9d:	00 00 00 00 
    eba1:	48 8d 05 15 aa 00 00 	lea    0xaa15(%rip),%rax        # 195bd <g_1326+0x1d>
    eba8:	48 89 85 98 f8 ff ff 	mov    %rax,-0x768(%rbp)
    ebaf:	48 8d 05 08 aa 00 00 	lea    0xaa08(%rip),%rax        # 195be <g_1326+0x1e>
    ebb6:	48 89 85 a0 f8 ff ff 	mov    %rax,-0x760(%rbp)
    ebbd:	48 c7 85 a8 f8 ff ff 	movq   $0x0,-0x758(%rbp)
    ebc4:	00 00 00 00 
    ebc8:	48 8d 85 58 f3 ff ff 	lea    -0xca8(%rbp),%rax
    ebcf:	48 89 85 b0 f8 ff ff 	mov    %rax,-0x750(%rbp)
    ebd6:	48 8d 05 f1 a9 00 00 	lea    0xa9f1(%rip),%rax        # 195ce <g_1326+0x2e>
    ebdd:	48 89 85 b8 f8 ff ff 	mov    %rax,-0x748(%rbp)
    ebe4:	48 c7 85 c0 f8 ff ff 	movq   $0x0,-0x740(%rbp)
    ebeb:	00 00 00 00 
    ebef:	48 c7 85 c8 f8 ff ff 	movq   $0x0,-0x738(%rbp)
    ebf6:	00 00 00 00 
    ebfa:	48 8d 05 cd a9 00 00 	lea    0xa9cd(%rip),%rax        # 195ce <g_1326+0x2e>
    ec01:	48 89 85 d0 f8 ff ff 	mov    %rax,-0x730(%rbp)
    ec08:	48 8d 85 58 f3 ff ff 	lea    -0xca8(%rbp),%rax
    ec0f:	48 89 85 d8 f8 ff ff 	mov    %rax,-0x728(%rbp)
    ec16:	48 c7 85 e0 f8 ff ff 	movq   $0x0,-0x720(%rbp)
    ec1d:	00 00 00 00 
    ec21:	48 8d 05 96 a9 00 00 	lea    0xa996(%rip),%rax        # 195be <g_1326+0x1e>
    ec28:	48 89 85 e8 f8 ff ff 	mov    %rax,-0x718(%rbp)
    ec2f:	48 8d 05 87 a9 00 00 	lea    0xa987(%rip),%rax        # 195bd <g_1326+0x1d>
    ec36:	48 89 85 f0 f8 ff ff 	mov    %rax,-0x710(%rbp)
    ec3d:	48 c7 85 f8 f8 ff ff 	movq   $0x0,-0x708(%rbp)
    ec44:	00 00 00 00 
    ec48:	48 c7 85 00 f9 ff ff 	movq   $0x0,-0x700(%rbp)
    ec4f:	00 00 00 00 
    ec53:	48 8d 85 58 f3 ff ff 	lea    -0xca8(%rbp),%rax
    ec5a:	48 89 85 08 f9 ff ff 	mov    %rax,-0x6f8(%rbp)
    ec61:	48 8d 05 53 a9 00 00 	lea    0xa953(%rip),%rax        # 195bb <g_1326+0x1b>
    ec68:	48 89 85 10 f9 ff ff 	mov    %rax,-0x6f0(%rbp)
    ec6f:	48 8d 05 7a a4 00 00 	lea    0xa47a(%rip),%rax        # 190f0 <g_285>
    ec76:	48 89 85 18 f9 ff ff 	mov    %rax,-0x6e8(%rbp)
    ec7d:	48 c7 85 20 f9 ff ff 	movq   $0x0,-0x6e0(%rbp)
    ec84:	00 00 00 00 
    ec88:	48 8d 05 2c a9 00 00 	lea    0xa92c(%rip),%rax        # 195bb <g_1326+0x1b>
    ec8f:	48 89 85 28 f9 ff ff 	mov    %rax,-0x6d8(%rbp)
    ec96:	48 8d 05 0e a9 00 00 	lea    0xa90e(%rip),%rax        # 195ab <g_1326+0xb>
    ec9d:	48 89 85 30 f9 ff ff 	mov    %rax,-0x6d0(%rbp)
    eca4:	48 c7 85 38 f9 ff ff 	movq   $0x0,-0x6c8(%rbp)
    ecab:	00 00 00 00 
    ecaf:	48 c7 85 40 f9 ff ff 	movq   $0x0,-0x6c0(%rbp)
    ecb6:	00 00 00 00 
    ecba:	48 8d 05 33 a4 00 00 	lea    0xa433(%rip),%rax        # 190f4 <g_285+0x4>
    ecc1:	48 89 85 48 f9 ff ff 	mov    %rax,-0x6b8(%rbp)
    ecc8:	48 c7 85 50 f9 ff ff 	movq   $0x0,-0x6b0(%rbp)
    eccf:	00 00 00 00 
    ecd3:	48 c7 85 58 f9 ff ff 	movq   $0x0,-0x6a8(%rbp)
    ecda:	00 00 00 00 
    ecde:	48 8d 05 c6 a8 00 00 	lea    0xa8c6(%rip),%rax        # 195ab <g_1326+0xb>
    ece5:	48 89 85 60 f9 ff ff 	mov    %rax,-0x6a0(%rbp)
    ecec:	48 8d 05 c8 a8 00 00 	lea    0xa8c8(%rip),%rax        # 195bb <g_1326+0x1b>
    ecf3:	48 89 85 68 f9 ff ff 	mov    %rax,-0x698(%rbp)
    ecfa:	48 c7 85 70 f9 ff ff 	movq   $0x0,-0x690(%rbp)
    ed01:	00 00 00 00 
    ed05:	48 8d 05 e4 a3 00 00 	lea    0xa3e4(%rip),%rax        # 190f0 <g_285>
    ed0c:	48 89 85 78 f9 ff ff 	mov    %rax,-0x688(%rbp)
    ed13:	48 8d 05 a1 a8 00 00 	lea    0xa8a1(%rip),%rax        # 195bb <g_1326+0x1b>
    ed1a:	48 89 85 80 f9 ff ff 	mov    %rax,-0x680(%rbp)
    ed21:	48 8d 85 58 f3 ff ff 	lea    -0xca8(%rbp),%rax
    ed28:	48 89 85 88 f9 ff ff 	mov    %rax,-0x678(%rbp)
    ed2f:	48 c7 85 90 f9 ff ff 	movq   $0x0,-0x670(%rbp)
    ed36:	00 00 00 00 
    ed3a:	48 c7 85 98 f9 ff ff 	movq   $0x0,-0x668(%rbp)
    ed41:	00 00 00 00 
    ed45:	48 8d 05 71 a8 00 00 	lea    0xa871(%rip),%rax        # 195bd <g_1326+0x1d>
    ed4c:	48 89 85 a0 f9 ff ff 	mov    %rax,-0x660(%rbp)
    ed53:	48 8d 05 64 a8 00 00 	lea    0xa864(%rip),%rax        # 195be <g_1326+0x1e>
    ed5a:	48 89 85 a8 f9 ff ff 	mov    %rax,-0x658(%rbp)
    ed61:	48 c7 85 b0 f9 ff ff 	movq   $0x0,-0x650(%rbp)
    ed68:	00 00 00 00 
    ed6c:	48 8d 85 58 f3 ff ff 	lea    -0xca8(%rbp),%rax
    ed73:	48 89 85 b8 f9 ff ff 	mov    %rax,-0x648(%rbp)
    ed7a:	48 8d 05 4d a8 00 00 	lea    0xa84d(%rip),%rax        # 195ce <g_1326+0x2e>
    ed81:	48 89 85 c0 f9 ff ff 	mov    %rax,-0x640(%rbp)
    ed88:	48 c7 85 c8 f9 ff ff 	movq   $0x0,-0x638(%rbp)
    ed8f:	00 00 00 00 
    ed93:	48 c7 85 d0 f9 ff ff 	movq   $0x0,-0x630(%rbp)
    ed9a:	00 00 00 00 
    ed9e:	48 8d 05 29 a8 00 00 	lea    0xa829(%rip),%rax        # 195ce <g_1326+0x2e>
    eda5:	48 89 85 d8 f9 ff ff 	mov    %rax,-0x628(%rbp)
    edac:	48 8d 85 58 f3 ff ff 	lea    -0xca8(%rbp),%rax
    edb3:	48 89 85 e0 f9 ff ff 	mov    %rax,-0x620(%rbp)
    edba:	48 c7 85 e8 f9 ff ff 	movq   $0x0,-0x618(%rbp)
    edc1:	00 00 00 00 
    edc5:	48 8d 05 f2 a7 00 00 	lea    0xa7f2(%rip),%rax        # 195be <g_1326+0x1e>
    edcc:	48 89 85 f0 f9 ff ff 	mov    %rax,-0x610(%rbp)
    edd3:	48 8d 05 e3 a7 00 00 	lea    0xa7e3(%rip),%rax        # 195bd <g_1326+0x1d>
    edda:	48 89 85 f8 f9 ff ff 	mov    %rax,-0x608(%rbp)
    ede1:	48 c7 85 00 fa ff ff 	movq   $0x0,-0x600(%rbp)
    ede8:	00 00 00 00 
    edec:	48 c7 85 08 fa ff ff 	movq   $0x0,-0x5f8(%rbp)
    edf3:	00 00 00 00 
    edf7:	48 8d 85 58 f3 ff ff 	lea    -0xca8(%rbp),%rax
    edfe:	48 89 85 10 fa ff ff 	mov    %rax,-0x5f0(%rbp)
    ee05:	48 8d 05 af a7 00 00 	lea    0xa7af(%rip),%rax        # 195bb <g_1326+0x1b>
    ee0c:	48 89 85 18 fa ff ff 	mov    %rax,-0x5e8(%rbp)
    ee13:	48 8d 05 d6 a2 00 00 	lea    0xa2d6(%rip),%rax        # 190f0 <g_285>
    ee1a:	48 89 85 20 fa ff ff 	mov    %rax,-0x5e0(%rbp)
    ee21:	48 c7 85 28 fa ff ff 	movq   $0x0,-0x5d8(%rbp)
    ee28:	00 00 00 00 
    ee2c:	48 8d 05 88 a7 00 00 	lea    0xa788(%rip),%rax        # 195bb <g_1326+0x1b>
    ee33:	48 89 85 30 fa ff ff 	mov    %rax,-0x5d0(%rbp)
    ee3a:	48 8d 05 6a a7 00 00 	lea    0xa76a(%rip),%rax        # 195ab <g_1326+0xb>
    ee41:	48 89 85 38 fa ff ff 	mov    %rax,-0x5c8(%rbp)
    ee48:	48 c7 85 40 fa ff ff 	movq   $0x0,-0x5c0(%rbp)
    ee4f:	00 00 00 00 
    ee53:	48 c7 85 48 fa ff ff 	movq   $0x0,-0x5b8(%rbp)
    ee5a:	00 00 00 00 
    ee5e:	48 8d 05 8f a2 00 00 	lea    0xa28f(%rip),%rax        # 190f4 <g_285+0x4>
    ee65:	48 89 85 50 fa ff ff 	mov    %rax,-0x5b0(%rbp)
    ee6c:	48 c7 85 58 fa ff ff 	movq   $0x0,-0x5a8(%rbp)
    ee73:	00 00 00 00 
    ee77:	48 c7 85 60 fa ff ff 	movq   $0x0,-0x5a0(%rbp)
    ee7e:	00 00 00 00 
    ee82:	48 8d 05 22 a7 00 00 	lea    0xa722(%rip),%rax        # 195ab <g_1326+0xb>
    ee89:	48 89 85 68 fa ff ff 	mov    %rax,-0x598(%rbp)
    ee90:	48 8d 05 24 a7 00 00 	lea    0xa724(%rip),%rax        # 195bb <g_1326+0x1b>
    ee97:	48 89 85 70 fa ff ff 	mov    %rax,-0x590(%rbp)
    ee9e:	48 c7 85 78 fa ff ff 	movq   $0x0,-0x588(%rbp)
    eea5:	00 00 00 00 
    eea9:	48 8d 05 f0 cd 00 00 	lea    0xcdf0(%rip),%rax        # 1bca0 <g_194>
    eeb0:	48 89 85 c0 f3 ff ff 	mov    %rax,-0xc40(%rbp)
    eeb7:	c7 85 e4 f2 ff ff 87 	movl   $0x8f91b087,-0xd1c(%rbp)
    eebe:	b0 91 8f 
    eec1:	48 8d 05 18 a2 00 00 	lea    0xa218(%rip),%rax        # 190e0 <g_238>
    eec8:	48 89 85 c8 f3 ff ff 	mov    %rax,-0xc38(%rbp)
    eecf:	c7 85 b8 f2 ff ff 00 	movl   $0x0,-0xd48(%rbp)
    eed6:	00 00 00 
    eed9:	eb 1b                	jmp    eef6 <func_11+0x339d>
    eedb:	8b 85 b8 f2 ff ff    	mov    -0xd48(%rbp),%eax
    eee1:	48 98                	cltq   
    eee3:	48 c7 84 c5 00 f7 ff 	movq   $0x0,-0x900(%rbp,%rax,8)
    eeea:	ff 00 00 00 00 
    eeef:	83 85 b8 f2 ff ff 01 	addl   $0x1,-0xd48(%rbp)
    eef6:	83 bd b8 f2 ff ff 09 	cmpl   $0x9,-0xd48(%rbp)
    eefd:	7e dc                	jle    eedb <func_11+0x3382>
    eeff:	44 0f b6 ad 74 f2 ff 	movzbl -0xd8c(%rbp),%r13d
    ef06:	ff 
    ef07:	0f b6 85 70 f2 ff ff 	movzbl -0xd90(%rbp),%eax
    ef0e:	0f b6 d8             	movzbl %al,%ebx
    ef11:	48 8b 05 28 c7 00 00 	mov    0xc728(%rip),%rax        # 1b640 <g_144>
    ef18:	8b 00                	mov    (%rax),%eax
    ef1a:	41 89 c7             	mov    %eax,%r15d
    ef1d:	48 8b 05 5c dc 00 00 	mov    0xdc5c(%rip),%rax        # 1cb80 <g_1274>
    ef24:	4c 8b 30             	mov    (%rax),%r14
    ef27:	8b 05 e3 a2 00 00    	mov    0xa2e3(%rip),%eax        # 19210 <g_933+0x70>
    ef2d:	44 0f be e0          	movsbl %al,%r12d
    ef31:	0f b6 05 00 a1 00 00 	movzbl 0xa100(%rip),%eax        # 19038 <g_66>
    ef38:	83 e8 01             	sub    $0x1,%eax
    ef3b:	88 05 f7 a0 00 00    	mov    %al,0xa0f7(%rip)        # 19038 <g_66>
    ef41:	0f b6 05 f0 a0 00 00 	movzbl 0xa0f0(%rip),%eax        # 19038 <g_66>
    ef48:	0f b6 d0             	movzbl %al,%edx
    ef4b:	0f b6 85 74 f2 ff ff 	movzbl -0xd8c(%rbp),%eax
    ef52:	89 d6                	mov    %edx,%esi
    ef54:	89 c7                	mov    %eax,%edi
    ef56:	e8 1d ac ff ff       	callq  9b78 <safe_sub_func_uint8_t_u_u>
    ef5b:	88 85 60 f2 ff ff    	mov    %al,-0xda0(%rbp)
    ef61:	be ff ff 00 00       	mov    $0xffff,%esi
    ef66:	bf 01 00 00 00       	mov    $0x1,%edi
    ef6b:	e8 1e ae ff ff       	callq  9d8e <safe_div_func_uint16_t_u_u>
    ef70:	0f b6 c0             	movzbl %al,%eax
    ef73:	be ff 00 00 00       	mov    $0xff,%esi
    ef78:	89 c7                	mov    %eax,%edi
    ef7a:	e8 2f ac ff ff       	callq  9bae <safe_mod_func_uint8_t_u_u>
    ef7f:	0a 85 60 f2 ff ff    	or     -0xda0(%rbp),%al
    ef85:	0f b6 c0             	movzbl %al,%eax
    ef88:	be de 95 ff ff       	mov    $0xffff95de,%esi
    ef8d:	89 c7                	mov    %eax,%edi
    ef8f:	e8 82 a4 ff ff       	callq  9416 <safe_mod_func_int16_t_s_s>
    ef94:	98                   	cwtl   
    ef95:	89 85 cc f2 ff ff    	mov    %eax,-0xd34(%rbp)
    ef9b:	0f be 95 70 f2 ff ff 	movsbl -0xd90(%rbp),%edx
    efa2:	48 8b 85 48 f7 ff ff 	mov    -0x8b8(%rbp),%rax
    efa9:	48 39 85 98 f3 ff ff 	cmp    %rax,-0xc68(%rbp)
    efb0:	0f 95 c0             	setne  %al
    efb3:	0f b6 c8             	movzbl %al,%ecx
    efb6:	48 8b 05 53 d5 00 00 	mov    0xd553(%rip),%rax        # 1c510 <g_632>
    efbd:	0f b6 00             	movzbl (%rax),%eax
    efc0:	0f be c0             	movsbl %al,%eax
    efc3:	39 c1                	cmp    %eax,%ecx
    efc5:	0f 9f c0             	setg   %al
    efc8:	0f b6 c0             	movzbl %al,%eax
    efcb:	39 c2                	cmp    %eax,%edx
    efcd:	0f b6 95 74 f2 ff ff 	movzbl -0xd8c(%rbp),%edx
    efd4:	48 8b 05 35 d5 00 00 	mov    0xd535(%rip),%rax        # 1c510 <g_632>
    efdb:	22 95 70 f2 ff ff    	and    -0xd90(%rbp),%dl
    efe1:	88 10                	mov    %dl,(%rax)
    efe3:	48 8b 85 c0 f3 ff ff 	mov    -0xc40(%rbp),%rax
    efea:	48 8d 15 77 e0 00 00 	lea    0xe077(%rip),%rdx        # 1d068 <g_125>
    eff1:	48 89 10             	mov    %rdx,(%rax)
    eff4:	48 8b 85 c0 f3 ff ff 	mov    -0xc40(%rbp),%rax
    effb:	48 8b 10             	mov    (%rax),%rdx
    effe:	48 8d 85 94 f2 ff ff 	lea    -0xd6c(%rbp),%rax
    f005:	48 39 c2             	cmp    %rax,%rdx
    f008:	0f 95 c0             	setne  %al
    f00b:	0f b6 c0             	movzbl %al,%eax
    f00e:	44 89 e6             	mov    %r12d,%esi
    f011:	89 c7                	mov    %eax,%edi
    f013:	e8 19 a2 ff ff       	callq  9231 <safe_mod_func_int8_t_s_s>
    f018:	84 c0                	test   %al,%al
    f01a:	0f 95 c2             	setne  %dl
    f01d:	48 8b 05 6c d1 00 00 	mov    0xd16c(%rip),%rax        # 1c190 <g_369>
    f024:	48 8b 00             	mov    (%rax),%rax
    f027:	0f b6 d2             	movzbl %dl,%edx
    f02a:	48 89 10             	mov    %rdx,(%rax)
    f02d:	48 8b 00             	mov    (%rax),%rax
    f030:	49 39 c6             	cmp    %rax,%r14
    f033:	0f 95 c0             	setne  %al
    f036:	0f b6 c0             	movzbl %al,%eax
    f039:	8b 95 e4 f2 ff ff    	mov    -0xd1c(%rbp),%edx
    f03f:	89 d6                	mov    %edx,%esi
    f041:	89 c7                	mov    %eax,%edi
    f043:	e8 b7 a6 ff ff       	callq  96ff <safe_div_func_int32_t_s_s>
    f048:	44 89 fe             	mov    %r15d,%esi
    f04b:	89 c7                	mov    %eax,%edi
    f04d:	e8 7e ae ff ff       	callq  9ed0 <safe_sub_func_uint32_t_u_u>
    f052:	8b 95 e4 f2 ff ff    	mov    -0xd1c(%rbp),%edx
    f058:	39 d0                	cmp    %edx,%eax
    f05a:	0f 96 c2             	setbe  %dl
    f05d:	48 8b 85 30 f3 ff ff 	mov    -0xcd0(%rbp),%rax
    f064:	48 8b 00             	mov    (%rax),%rax
    f067:	48 8b 00             	mov    (%rax),%rax
    f06a:	48 8b 00             	mov    (%rax),%rax
    f06d:	0f b6 d2             	movzbl %dl,%edx
    f070:	89 10                	mov    %edx,(%rax)
    f072:	8b 10                	mov    (%rax),%edx
    f074:	8b 85 d4 f5 ff ff    	mov    -0xa2c(%rbp),%eax
    f07a:	39 c2                	cmp    %eax,%edx
    f07c:	0f 9d c0             	setge  %al
    f07f:	0f b6 c0             	movzbl %al,%eax
    f082:	89 de                	mov    %ebx,%esi
    f084:	89 c7                	mov    %eax,%edi
    f086:	e8 50 ab ff ff       	callq  9bdb <safe_div_func_uint8_t_u_u>
    f08b:	48 8b 05 ee da 00 00 	mov    0xdaee(%rip),%rax        # 1cb80 <g_1274>
    f092:	48 c7 00 01 00 00 00 	movq   $0x1,(%rax)
    f099:	48 8b 10             	mov    (%rax),%rdx
    f09c:	0f b6 85 74 f2 ff ff 	movzbl -0xd8c(%rbp),%eax
    f0a3:	48 09 d0             	or     %rdx,%rax
    f0a6:	49 39 c5             	cmp    %rax,%r13
    f0a9:	0f 95 c0             	setne  %al
    f0ac:	0f b6 c0             	movzbl %al,%eax
    f0af:	89 85 e4 f2 ff ff    	mov    %eax,-0xd1c(%rbp)
    f0b5:	48 0f be 9d 70 f2 ff 	movsbq -0xd90(%rbp),%rbx
    f0bc:	ff 
    f0bd:	0f b6 85 74 f2 ff ff 	movzbl -0xd8c(%rbp),%eax
    f0c4:	89 85 e4 f2 ff ff    	mov    %eax,-0xd1c(%rbp)
    f0ca:	8b 85 e4 f2 ff ff    	mov    -0xd1c(%rbp),%eax
    f0d0:	0f b6 c0             	movzbl %al,%eax
    f0d3:	89 c7                	mov    %eax,%edi
    f0d5:	e8 6b aa ff ff       	callq  9b45 <safe_unary_minus_func_uint8_t_u>
    f0da:	48 8d 05 9f da 00 00 	lea    0xda9f(%rip),%rax        # 1cb80 <g_1274>
    f0e1:	48 8b 00             	mov    (%rax),%rax
    f0e4:	48 c7 00 ff ff ff ff 	movq   $0xffffffffffffffff,(%rax)
    f0eb:	48 8b 00             	mov    (%rax),%rax
    f0ee:	48 89 de             	mov    %rbx,%rsi
    f0f1:	48 89 c7             	mov    %rax,%rdi
    f0f4:	e8 af a7 ff ff       	callq  98a8 <safe_sub_func_int64_t_s_s>
    f0f9:	48 8b 05 80 d0 00 00 	mov    0xd080(%rip),%rax        # 1c180 <g_277>
    f100:	44 8b 28             	mov    (%rax),%r13d
    f103:	0f b7 05 7e 9f 00 00 	movzwl 0x9f7e(%rip),%eax        # 19088 <g_75+0x8>
    f10a:	44 0f b7 e0          	movzwl %ax,%r12d
    f10e:	80 bd 70 f2 ff ff 00 	cmpb   $0x0,-0xd90(%rbp)
    f115:	0f 84 9e 00 00 00    	je     f1b9 <func_11+0x3660>
    f11b:	0f be 85 70 f2 ff ff 	movsbl -0xd90(%rbp),%eax
    f122:	be f6 ff ff ff       	mov    $0xfffffff6,%esi
    f127:	89 c7                	mov    %eax,%edi
    f129:	e8 c4 a0 ff ff       	callq  91f2 <safe_sub_func_int8_t_s_s>
    f12e:	48 0f be c0          	movsbq %al,%rax
    f132:	48 be 7a f3 4e 30 43 	movabs $0x693cbe43304ef37a,%rsi
    f139:	be 3c 69 
    f13c:	48 89 c7             	mov    %rax,%rdi
    f13f:	e8 07 af ff ff       	callq  a04b <safe_sub_func_uint64_t_u_u>
    f144:	48 85 c0             	test   %rax,%rax
    f147:	75 07                	jne    f150 <func_11+0x35f7>
    f149:	80 bd 86 f2 ff ff 00 	cmpb   $0x0,-0xd7a(%rbp)
    f150:	66 0f be 85 70 f2 ff 	movsbw -0xd90(%rbp),%ax
    f157:	ff 
    f158:	0f b7 d0             	movzwl %ax,%edx
    f15b:	48 8b 05 ae d3 00 00 	mov    0xd3ae(%rip),%rax        # 1c510 <g_632>
    f162:	0f b6 00             	movzbl (%rax),%eax
    f165:	0f be c0             	movsbl %al,%eax
    f168:	39 85 e4 f2 ff ff    	cmp    %eax,-0xd1c(%rbp)
    f16e:	0f 9d c0             	setge  %al
    f171:	0f b6 c0             	movzbl %al,%eax
    f174:	89 d6                	mov    %edx,%esi
    f176:	89 c7                	mov    %eax,%edi
    f178:	e8 df ab ff ff       	callq  9d5c <safe_mod_func_uint16_t_u_u>
    f17d:	0f b7 c0             	movzwl %ax,%eax
    f180:	39 85 e4 f2 ff ff    	cmp    %eax,-0xd1c(%rbp)
    f186:	0f 9c c0             	setl   %al
    f189:	f7 d0                	not    %eax
    f18b:	0f b6 c0             	movzbl %al,%eax
    f18e:	be 08 00 00 00       	mov    $0x8,%esi
    f193:	89 c7                	mov    %eax,%edi
    f195:	e8 41 aa ff ff       	callq  9bdb <safe_div_func_uint8_t_u_u>
    f19a:	3c 85                	cmp    $0x85,%al
    f19c:	0f 97 c0             	seta   %al
    f19f:	0f b6 c0             	movzbl %al,%eax
    f1a2:	be 07 00 00 00       	mov    $0x7,%esi
    f1a7:	89 c7                	mov    %eax,%edi
    f1a9:	e8 40 a1 ff ff       	callq  92ee <safe_lshift_func_int8_t_s_u>
    f1ae:	84 c0                	test   %al,%al
    f1b0:	74 07                	je     f1b9 <func_11+0x3660>
    f1b2:	b8 01 00 00 00       	mov    $0x1,%eax
    f1b7:	eb 05                	jmp    f1be <func_11+0x3665>
    f1b9:	b8 00 00 00 00       	mov    $0x0,%eax
    f1be:	98                   	cwtl   
    f1bf:	be 1f e7 ff ff       	mov    $0xffffe71f,%esi
    f1c4:	89 c7                	mov    %eax,%edi
    f1c6:	e8 e8 a1 ff ff       	callq  93b3 <safe_add_func_int16_t_s_s>
    f1cb:	8b 85 e0 f2 ff ff    	mov    -0xd20(%rbp),%eax
    f1d1:	3b 85 e4 f2 ff ff    	cmp    -0xd1c(%rbp),%eax
    f1d7:	0f 9c c0             	setl   %al
    f1da:	0f b6 d0             	movzbl %al,%edx
    f1dd:	48 8b 85 c8 f3 ff ff 	mov    -0xc38(%rbp),%rax
    f1e4:	89 10                	mov    %edx,(%rax)
    f1e6:	0f be 95 70 f2 ff ff 	movsbl -0xd90(%rbp),%edx
    f1ed:	0f b6 85 74 f2 ff ff 	movzbl -0xd8c(%rbp),%eax
    f1f4:	09 d0                	or     %edx,%eax
    f1f6:	48 98                	cltq   
    f1f8:	48 8b 1d 49 c4 00 00 	mov    0xc449(%rip),%rbx        # 1b648 <g_143>
    f1ff:	44 89 ea             	mov    %r13d,%edx
    f202:	44 89 e6             	mov    %r12d,%esi
    f205:	48 89 c7             	mov    %rax,%rdi
    f208:	e8 26 05 00 00       	callq  f733 <func_22>
    f20d:	48 89 03             	mov    %rax,(%rbx)
    f210:	48 8b 05 e1 d9 00 00 	mov    0xd9e1(%rip),%rax        # 1cbf8 <g_1542>
    f217:	48 8b 00             	mov    (%rax),%rax
    f21a:	48 8b 00             	mov    (%rax),%rax
    f21d:	48 8b 00             	mov    (%rax),%rax
    f220:	48 8b 13             	mov    (%rbx),%rdx
    f223:	48 89 10             	mov    %rdx,(%rax)
    f226:	48 8b 05 b3 cb 00 00 	mov    0xcbb3(%rip),%rax        # 1bde0 <g_239>
    f22d:	48 8b 00             	mov    (%rax),%rax
    f230:	48 8b 00             	mov    (%rax),%rax
    f233:	48 89 85 60 f2 ff ff 	mov    %rax,-0xda0(%rbp)
    f23a:	8b 05 e8 9d 00 00    	mov    0x9de8(%rip),%eax        # 19028 <g_33>
    f240:	44 0f bf e0          	movswl %ax,%r12d
    f244:	44 0f b6 ad 74 f2 ff 	movzbl -0xd8c(%rbp),%r13d
    f24b:	ff 
    f24c:	8b 85 e4 f2 ff ff    	mov    -0xd1c(%rbp),%eax
    f252:	44 0f bf f0          	movswl %ax,%r14d
    f256:	0f b7 05 99 6a 00 00 	movzwl 0x6a99(%rip),%eax        # 15cf6 <l_1746.4357+0x76>
    f25d:	44 0f bf f8          	movswl %ax,%r15d
    f261:	48 8b 85 28 f3 ff ff 	mov    -0xcd8(%rbp),%rax
    f268:	48 8b 00             	mov    (%rax),%rax
    f26b:	48 8b 00             	mov    (%rax),%rax
    f26e:	8b 00                	mov    (%rax),%eax
    f270:	89 85 5c f2 ff ff    	mov    %eax,-0xda4(%rbp)
    f276:	83 bd e4 f2 ff ff 00 	cmpl   $0x0,-0xd1c(%rbp)
    f27d:	75 60                	jne    f2df <func_11+0x3786>
    f27f:	48 8b 85 b8 f3 ff ff 	mov    -0xc48(%rbp),%rax
    f286:	0f bf d8             	movswl %ax,%ebx
    f289:	8b 95 e4 f2 ff ff    	mov    -0xd1c(%rbp),%edx
    f28f:	48 83 bd b0 f3 ff ff 	cmpq   $0x0,-0xc50(%rbp)
    f296:	00 
    f297:	0f 95 c0             	setne  %al
    f29a:	0f b6 c0             	movzbl %al,%eax
    f29d:	89 d6                	mov    %edx,%esi
    f29f:	89 c7                	mov    %eax,%edi
    f2a1:	e8 7f ac ff ff       	callq  9f25 <safe_div_func_uint32_t_u_u>
    f2a6:	3d f0 f3 a1 82       	cmp    $0x82a1f3f0,%eax
    f2ab:	0f 96 c0             	setbe  %al
    f2ae:	0f b6 c0             	movzbl %al,%eax
    f2b1:	89 de                	mov    %ebx,%esi
    f2b3:	89 c7                	mov    %eax,%edi
    f2b5:	e8 9b a1 ff ff       	callq  9455 <safe_div_func_int16_t_s_s>
    f2ba:	0f b6 85 74 f2 ff ff 	movzbl -0xd8c(%rbp),%eax
    f2c1:	48 8b 1d 58 d2 00 00 	mov    0xd258(%rip),%rbx        # 1c520 <g_1020>
    f2c8:	be 0b 00 00 00       	mov    $0xb,%esi
    f2cd:	89 c7                	mov    %eax,%edi
    f2cf:	e8 be a1 ff ff       	callq  9492 <safe_lshift_func_int16_t_s_s>
    f2d4:	66 89 03             	mov    %ax,(%rbx)
    f2d7:	0f b7 03             	movzwl (%rbx),%eax
    f2da:	66 85 c0             	test   %ax,%ax
    f2dd:	74 07                	je     f2e6 <func_11+0x378d>
    f2df:	b8 01 00 00 00       	mov    $0x1,%eax
    f2e4:	eb 05                	jmp    f2eb <func_11+0x3792>
    f2e6:	b8 00 00 00 00       	mov    $0x0,%eax
    f2eb:	0f be c0             	movsbl %al,%eax
    f2ee:	8b b5 5c f2 ff ff    	mov    -0xda4(%rbp),%esi
    f2f4:	89 c7                	mov    %eax,%edi
    f2f6:	e8 f3 9f ff ff       	callq  92ee <safe_lshift_func_int8_t_s_u>
    f2fb:	84 c0                	test   %al,%al
    f2fd:	0f 94 c0             	sete   %al
    f300:	0f b6 c0             	movzbl %al,%eax
    f303:	44 89 fe             	mov    %r15d,%esi
    f306:	89 c7                	mov    %eax,%edi
    f308:	e8 e8 a0 ff ff       	callq  93f5 <safe_mul_func_int16_t_s_s>
    f30d:	0f bf d0             	movswl %ax,%edx
    f310:	48 8b 05 f9 d1 00 00 	mov    0xd1f9(%rip),%rax        # 1c510 <g_632>
    f317:	0f b6 00             	movzbl (%rax),%eax
    f31a:	0f be c0             	movsbl %al,%eax
    f31d:	31 c2                	xor    %eax,%edx
    f31f:	48 8b 85 28 f3 ff ff 	mov    -0xcd8(%rbp),%rax
    f326:	48 8b 00             	mov    (%rax),%rax
    f329:	48 8b 00             	mov    (%rax),%rax
    f32c:	8b 00                	mov    (%rax),%eax
    f32e:	39 c2                	cmp    %eax,%edx
    f330:	0f 9e c0             	setle  %al
    f333:	0f b6 c0             	movzbl %al,%eax
    f336:	44 89 f6             	mov    %r14d,%esi
    f339:	89 c7                	mov    %eax,%edi
    f33b:	e8 93 a0 ff ff       	callq  93d3 <safe_sub_func_int16_t_s_s>
    f340:	44 89 ee             	mov    %r13d,%esi
    f343:	bf 92 84 00 00       	mov    $0x8492,%edi
    f348:	e8 0f aa ff ff       	callq  9d5c <safe_mod_func_uint16_t_u_u>
    f34d:	0f b7 c0             	movzwl %ax,%eax
    f350:	89 85 e4 f2 ff ff    	mov    %eax,-0xd1c(%rbp)
    f356:	44 89 e6             	mov    %r12d,%esi
    f359:	bf 01 00 00 00       	mov    $0x1,%edi
    f35e:	e8 f2 a0 ff ff       	callq  9455 <safe_div_func_int16_t_s_s>
    f363:	0f b6 c0             	movzbl %al,%eax
    f366:	be 03 00 00 00       	mov    $0x3,%esi
    f36b:	89 c7                	mov    %eax,%edi
    f36d:	e8 da a8 ff ff       	callq  9c4c <safe_lshift_func_uint8_t_u_u>
    f372:	0f b6 c0             	movzbl %al,%eax
    f375:	48 8b b5 60 f2 ff ff 	mov    -0xda0(%rbp),%rsi
    f37c:	48 89 c7             	mov    %rax,%rdi
    f37f:	e8 73 a6 ff ff       	callq  99f7 <safe_div_func_int64_t_s_s>
    f384:	48 8b 95 18 f3 ff ff 	mov    -0xce8(%rbp),%rdx
    f38b:	8b 12                	mov    (%rdx),%edx
    f38d:	48 63 d2             	movslq %edx,%rdx
    f390:	48 39 d0             	cmp    %rdx,%rax
    f393:	0f 95 c0             	setne  %al
    f396:	0f b6 c0             	movzbl %al,%eax
    f399:	be 7a 2a ae 66       	mov    $0x66ae2a7a,%esi
    f39e:	89 c7                	mov    %eax,%edi
    f3a0:	e8 2b ab ff ff       	callq  9ed0 <safe_sub_func_uint32_t_u_u>
    f3a5:	89 c3                	mov    %eax,%ebx
    f3a7:	0f be 95 70 f2 ff ff 	movsbl -0xd90(%rbp),%edx
    f3ae:	48 0f be 8d 70 f2 ff 	movsbq -0xd90(%rbp),%rcx
    f3b5:	ff 
    f3b6:	48 8b 05 c3 d7 00 00 	mov    0xd7c3(%rip),%rax        # 1cb80 <g_1274>
    f3bd:	48 8b 00             	mov    (%rax),%rax
    f3c0:	48 39 c1             	cmp    %rax,%rcx
    f3c3:	0f 95 c0             	setne  %al
    f3c6:	0f b6 c0             	movzbl %al,%eax
    f3c9:	89 d6                	mov    %edx,%esi
    f3cb:	89 c7                	mov    %eax,%edi
    f3cd:	e8 ec a8 ff ff       	callq  9cbe <safe_rshift_func_uint8_t_u_u>
    f3d2:	89 c2                	mov    %eax,%edx
    f3d4:	48 8b 05 b5 cd 00 00 	mov    0xcdb5(%rip),%rax        # 1c190 <g_369>
    f3db:	48 8b 00             	mov    (%rax),%rax
    f3de:	48 8b 08             	mov    (%rax),%rcx
    f3e1:	0f b6 d2             	movzbl %dl,%edx
    f3e4:	48 21 ca             	and    %rcx,%rdx
    f3e7:	48 89 10             	mov    %rdx,(%rax)
    f3ea:	48 8b 00             	mov    (%rax),%rax
    f3ed:	48 89 de             	mov    %rbx,%rsi
    f3f0:	48 89 c7             	mov    %rax,%rdi
    f3f3:	e8 ff a5 ff ff       	callq  99f7 <safe_div_func_int64_t_s_s>
    f3f8:	48 89 c2             	mov    %rax,%rdx
    f3fb:	48 8b 85 b0 f3 ff ff 	mov    -0xc50(%rbp),%rax
    f402:	48 8b 00             	mov    (%rax),%rax
    f405:	48 8b 00             	mov    (%rax),%rax
    f408:	89 10                	mov    %edx,(%rax)
    f40a:	c7 85 d0 f5 ff ff 00 	movl   $0x0,-0xa30(%rbp)
    f411:	00 00 00 
    f414:	8b 85 d0 f5 ff ff    	mov    -0xa30(%rbp),%eax
    f41a:	89 c2                	mov    %eax,%edx
    f41c:	8b 05 ea 9c 00 00    	mov    0x9cea(%rip),%eax        # 1910c <g_417+0x4>
    f422:	39 c2                	cmp    %eax,%edx
    f424:	0f 93 c2             	setae  %dl
    f427:	48 8b 05 da d0 00 00 	mov    0xd0da(%rip),%rax        # 1c508 <g_608>
    f42e:	0f b6 d2             	movzbl %dl,%edx
    f431:	89 10                	mov    %edx,(%rax)
    f433:	48 8b 85 78 f2 ff ff 	mov    -0xd88(%rbp),%rax
    f43a:	48 8b 5d c8          	mov    -0x38(%rbp),%rbx
    f43e:	64 48 33 1c 25 28 00 	xor    %fs:0x28,%rbx
    f445:	00 00 
    f447:	74 05                	je     f44e <func_11+0x38f5>
    f449:	e8 22 9c ff ff       	callq  9070 <__stack_chk_fail@plt>
    f44e:	48 81 c4 88 0d 00 00 	add    $0xd88,%rsp
    f455:	5b                   	pop    %rbx
    f456:	41 5c                	pop    %r12
    f458:	41 5d                	pop    %r13
    f45a:	41 5e                	pop    %r14
    f45c:	41 5f                	pop    %r15
    f45e:	5d                   	pop    %rbp
    f45f:	c3                   	retq   

000000000000f460 <func_16>:
    f460:	f3 0f 1e fa          	endbr64 
    f464:	55                   	push   %rbp
    f465:	48 89 e5             	mov    %rsp,%rbp
    f468:	41 55                	push   %r13
    f46a:	41 54                	push   %r12
    f46c:	53                   	push   %rbx
    f46d:	48 81 ec 58 01 00 00 	sub    $0x158,%rsp
    f474:	48 89 bd a8 fe ff ff 	mov    %rdi,-0x158(%rbp)
    f47b:	48 89 95 98 fe ff ff 	mov    %rdx,-0x168(%rbp)
    f482:	89 c8                	mov    %ecx,%eax
    f484:	44 89 c1             	mov    %r8d,%ecx
    f487:	89 f2                	mov    %esi,%edx
    f489:	66 89 95 a4 fe ff ff 	mov    %dx,-0x15c(%rbp)
    f490:	66 89 85 a0 fe ff ff 	mov    %ax,-0x160(%rbp)
    f497:	89 c8                	mov    %ecx,%eax
    f499:	88 85 94 fe ff ff    	mov    %al,-0x16c(%rbp)
    f49f:	64 48 8b 04 25 28 00 	mov    %fs:0x28,%rax
    f4a6:	00 00 
    f4a8:	48 89 45 d8          	mov    %rax,-0x28(%rbp)
    f4ac:	31 c0                	xor    %eax,%eax
    f4ae:	48 8d 05 cb 9c 00 00 	lea    0x9ccb(%rip),%rax        # 19180 <g_829>
    f4b5:	48 89 85 c0 fe ff ff 	mov    %rax,-0x140(%rbp)
    f4bc:	c7 85 bc fe ff ff 9f 	movl   $0x340d8b9f,-0x144(%rbp)
    f4c3:	8b 0d 34 
    f4c6:	48 c7 85 f0 fe ff ff 	movq   $0x0,-0x110(%rbp)
    f4cd:	00 00 00 00 
    f4d1:	48 8d 05 94 9c 00 00 	lea    0x9c94(%rip),%rax        # 1916c <g_676>
    f4d8:	48 89 85 f8 fe ff ff 	mov    %rax,-0x108(%rbp)
    f4df:	48 8d 05 86 9c 00 00 	lea    0x9c86(%rip),%rax        # 1916c <g_676>
    f4e6:	48 89 85 00 ff ff ff 	mov    %rax,-0x100(%rbp)
    f4ed:	48 c7 85 08 ff ff ff 	movq   $0x0,-0xf8(%rbp)
    f4f4:	00 00 00 00 
    f4f8:	48 8d 05 6d 9c 00 00 	lea    0x9c6d(%rip),%rax        # 1916c <g_676>
    f4ff:	48 89 85 10 ff ff ff 	mov    %rax,-0xf0(%rbp)
    f506:	48 8d 05 5f 9c 00 00 	lea    0x9c5f(%rip),%rax        # 1916c <g_676>
    f50d:	48 89 85 18 ff ff ff 	mov    %rax,-0xe8(%rbp)
    f514:	48 c7 85 20 ff ff ff 	movq   $0x0,-0xe0(%rbp)
    f51b:	00 00 00 00 
    f51f:	48 8d 05 46 9c 00 00 	lea    0x9c46(%rip),%rax        # 1916c <g_676>
    f526:	48 89 85 28 ff ff ff 	mov    %rax,-0xd8(%rbp)
    f52d:	c7 85 d0 fe ff ff 3b 	movl   $0x3456803b,-0x130(%rbp)
    f534:	80 56 34 
    f537:	c7 85 d4 fe ff ff 3b 	movl   $0x3456803b,-0x12c(%rbp)
    f53e:	80 56 34 
    f541:	c7 85 d8 fe ff ff 3b 	movl   $0x3456803b,-0x128(%rbp)
    f548:	80 56 34 
    f54b:	c7 85 dc fe ff ff 3b 	movl   $0x3456803b,-0x124(%rbp)
    f552:	80 56 34 
    f555:	c7 85 e0 fe ff ff 3b 	movl   $0x3456803b,-0x120(%rbp)
    f55c:	80 56 34 
    f55f:	c7 85 e4 fe ff ff 3b 	movl   $0x3456803b,-0x11c(%rbp)
    f566:	80 56 34 
    f569:	48 c7 85 c8 fe ff ff 	movq   $0x0,-0x138(%rbp)
    f570:	00 00 00 00 
    f574:	c7 85 b4 fe ff ff 00 	movl   $0x0,-0x14c(%rbp)
    f57b:	00 00 00 
    f57e:	eb 51                	jmp    f5d1 <func_16+0x171>
    f580:	c7 85 b8 fe ff ff 00 	movl   $0x0,-0x148(%rbp)
    f587:	00 00 00 
    f58a:	eb 35                	jmp    f5c1 <func_16+0x161>
    f58c:	8b 85 b8 fe ff ff    	mov    -0x148(%rbp),%eax
    f592:	48 63 c8             	movslq %eax,%rcx
    f595:	8b 85 b4 fe ff ff    	mov    -0x14c(%rbp),%eax
    f59b:	48 63 d0             	movslq %eax,%rdx
    f59e:	48 89 d0             	mov    %rdx,%rax
    f5a1:	48 c1 e0 02          	shl    $0x2,%rax
    f5a5:	48 01 d0             	add    %rdx,%rax
    f5a8:	48 01 c0             	add    %rax,%rax
    f5ab:	48 01 c8             	add    %rcx,%rax
    f5ae:	48 c7 84 c5 30 ff ff 	movq   $0x0,-0xd0(%rbp,%rax,8)
    f5b5:	ff 00 00 00 00 
    f5ba:	83 85 b8 fe ff ff 01 	addl   $0x1,-0x148(%rbp)
    f5c1:	83 bd b8 fe ff ff 09 	cmpl   $0x9,-0x148(%rbp)
    f5c8:	7e c2                	jle    f58c <func_16+0x12c>
    f5ca:	83 85 b4 fe ff ff 01 	addl   $0x1,-0x14c(%rbp)
    f5d1:	83 bd b4 fe ff ff 01 	cmpl   $0x1,-0x14c(%rbp)
    f5d8:	7e a6                	jle    f580 <func_16+0x120>
    f5da:	48 8b 05 e7 9a 00 00 	mov    0x9ae7(%rip),%rax        # 190c8 <g_147>
    f5e1:	0f b6 d8             	movzbl %al,%ebx
    f5e4:	8b 85 bc fe ff ff    	mov    -0x144(%rbp),%eax
    f5ea:	48 98                	cltq   
    f5ec:	48 89 c6             	mov    %rax,%rsi
    f5ef:	48 bf ff 5f f7 fe 7b 	movabs $0xff77277bfef75fff,%rdi
    f5f6:	27 77 ff 
    f5f9:	e8 b1 aa ff ff       	callq  a0af <safe_div_func_uint64_t_u_u>
    f5fe:	48 8b 85 68 ff ff ff 	mov    -0x98(%rbp),%rax
    f605:	48 8d 15 7c cb 00 00 	lea    0xcb7c(%rip),%rdx        # 1c188 <g_370>
    f60c:	48 39 d0             	cmp    %rdx,%rax
    f60f:	0f 95 c0             	setne  %al
    f612:	44 0f b6 e8          	movzbl %al,%r13d
    f616:	44 0f bf a5 a0 fe ff 	movswl -0x160(%rbp),%r12d
    f61d:	ff 
    f61e:	8b 85 d0 fe ff ff    	mov    -0x130(%rbp),%eax
    f624:	89 c1                	mov    %eax,%ecx
    f626:	48 8b 05 e3 ce 00 00 	mov    0xcee3(%rip),%rax        # 1c510 <g_632>
    f62d:	0f b6 30             	movzbl (%rax),%esi
    f630:	48 8b 05 69 c6 00 00 	mov    0xc669(%rip),%rax        # 1bca0 <g_194>
    f637:	8b 10                	mov    (%rax),%edx
    f639:	48 8b 85 a8 fe ff ff 	mov    -0x158(%rbp),%rax
    f640:	8b 00                	mov    (%rax),%eax
    f642:	39 c2                	cmp    %eax,%edx
    f644:	0f 92 c0             	setb   %al
    f647:	89 c2                	mov    %eax,%edx
    f649:	48 8b 05 c0 ce 00 00 	mov    0xcec0(%rip),%rax        # 1c510 <g_632>
    f650:	09 f2                	or     %esi,%edx
    f652:	88 10                	mov    %dl,(%rax)
    f654:	0f b6 00             	movzbl (%rax),%eax
    f657:	88 85 94 fe ff ff    	mov    %al,-0x16c(%rbp)
    f65d:	0f be 85 94 fe ff ff 	movsbl -0x16c(%rbp),%eax
    f664:	89 ce                	mov    %ecx,%esi
    f666:	89 c7                	mov    %eax,%edi
    f668:	e8 81 9c ff ff       	callq  92ee <safe_lshift_func_int8_t_s_u>
    f66d:	0f be d0             	movsbl %al,%edx
    f670:	0f b7 05 f7 9a 00 00 	movzwl 0x9af7(%rip),%eax        # 1916e <g_751>
    f677:	0f b6 c0             	movzbl %al,%eax
    f67a:	89 d6                	mov    %edx,%esi
    f67c:	89 c7                	mov    %eax,%edi
    f67e:	e8 3b a6 ff ff       	callq  9cbe <safe_rshift_func_uint8_t_u_u>
    f683:	0f b6 c0             	movzbl %al,%eax
    f686:	44 89 e6             	mov    %r12d,%esi
    f689:	89 c7                	mov    %eax,%edi
    f68b:	e8 95 a8 ff ff       	callq  9f25 <safe_div_func_uint32_t_u_u>
    f690:	3d b6 00 00 00       	cmp    $0xb6,%eax
    f695:	0f 95 c0             	setne  %al
    f698:	0f b6 c0             	movzbl %al,%eax
    f69b:	41 39 c5             	cmp    %eax,%r13d
    f69e:	48 8b 85 c0 fe ff ff 	mov    -0x140(%rbp),%rax
    f6a5:	0f b7 00             	movzwl (%rax),%eax
    f6a8:	8d 48 01             	lea    0x1(%rax),%ecx
    f6ab:	48 8b 95 c0 fe ff ff 	mov    -0x140(%rbp),%rdx
    f6b2:	66 89 0a             	mov    %cx,(%rdx)
    f6b5:	66 83 f8 f7          	cmp    $0xfff7,%ax
    f6b9:	0f 96 c0             	setbe  %al
    f6bc:	0f b6 c0             	movzbl %al,%eax
    f6bf:	89 de                	mov    %ebx,%esi
    f6c1:	89 c7                	mov    %eax,%edi
    f6c3:	e8 13 a5 ff ff       	callq  9bdb <safe_div_func_uint8_t_u_u>
    f6c8:	0f b6 d0             	movzbl %al,%edx
    f6cb:	0f bf 85 a4 fe ff ff 	movswl -0x15c(%rbp),%eax
    f6d2:	39 c2                	cmp    %eax,%edx
    f6d4:	0f 95 c0             	setne  %al
    f6d7:	0f b6 d0             	movzbl %al,%edx
    f6da:	0f bf 85 a0 fe ff ff 	movswl -0x160(%rbp),%eax
    f6e1:	39 c2                	cmp    %eax,%edx
    f6e3:	0f 9d c0             	setge  %al
    f6e6:	0f b6 d0             	movzbl %al,%edx
    f6e9:	8b 85 d4 fe ff ff    	mov    -0x12c(%rbp),%eax
    f6ef:	39 c2                	cmp    %eax,%edx
    f6f1:	0f 9f c0             	setg   %al
    f6f4:	0f b6 c0             	movzbl %al,%eax
    f6f7:	48 89 c7             	mov    %rax,%rdi
    f6fa:	e8 1a a9 ff ff       	callq  a019 <safe_unary_minus_func_uint64_t_u>
    f6ff:	89 c2                	mov    %eax,%edx
    f701:	48 8b 85 a8 fe ff ff 	mov    -0x158(%rbp),%rax
    f708:	89 10                	mov    %edx,(%rax)
    f70a:	48 8b 85 c8 fe ff ff 	mov    -0x138(%rbp),%rax
    f711:	48 8b 5d d8          	mov    -0x28(%rbp),%rbx
    f715:	64 48 33 1c 25 28 00 	xor    %fs:0x28,%rbx
    f71c:	00 00 
    f71e:	74 05                	je     f725 <func_16+0x2c5>
    f720:	e8 4b 99 ff ff       	callq  9070 <__stack_chk_fail@plt>
    f725:	48 81 c4 58 01 00 00 	add    $0x158,%rsp
    f72c:	5b                   	pop    %rbx
    f72d:	41 5c                	pop    %r12
    f72f:	41 5d                	pop    %r13
    f731:	5d                   	pop    %rbp
    f732:	c3                   	retq   

000000000000f733 <func_22>:
    f733:	f3 0f 1e fa          	endbr64 
    f737:	55                   	push   %rbp
    f738:	48 89 e5             	mov    %rsp,%rbp
    f73b:	48 81 ec 50 07 00 00 	sub    $0x750,%rsp
    f742:	48 89 bd b8 f8 ff ff 	mov    %rdi,-0x748(%rbp)
    f749:	89 f0                	mov    %esi,%eax
    f74b:	89 95 b0 f8 ff ff    	mov    %edx,-0x750(%rbp)
    f751:	66 89 85 b4 f8 ff ff 	mov    %ax,-0x74c(%rbp)
    f758:	64 48 8b 04 25 28 00 	mov    %fs:0x28,%rax
    f75f:	00 00 
    f761:	48 89 45 f8          	mov    %rax,-0x8(%rbp)
    f765:	31 c0                	xor    %eax,%eax
    f767:	48 8d 05 ca 99 00 00 	lea    0x99ca(%rip),%rax        # 19138 <g_570+0x18>
    f76e:	48 89 85 c8 f8 ff ff 	mov    %rax,-0x738(%rbp)
    f775:	48 8d 85 c8 f8 ff ff 	lea    -0x738(%rbp),%rax
    f77c:	48 89 85 60 f9 ff ff 	mov    %rax,-0x6a0(%rbp)
    f783:	48 8d 85 c8 f8 ff ff 	lea    -0x738(%rbp),%rax
    f78a:	48 89 85 68 f9 ff ff 	mov    %rax,-0x698(%rbp)
    f791:	48 8d 85 c8 f8 ff ff 	lea    -0x738(%rbp),%rax
    f798:	48 89 85 70 f9 ff ff 	mov    %rax,-0x690(%rbp)
    f79f:	48 8d 85 c8 f8 ff ff 	lea    -0x738(%rbp),%rax
    f7a6:	48 89 85 78 f9 ff ff 	mov    %rax,-0x688(%rbp)
    f7ad:	48 c7 85 80 f9 ff ff 	movq   $0x0,-0x680(%rbp)
    f7b4:	00 00 00 00 
    f7b8:	48 8d 85 c8 f8 ff ff 	lea    -0x738(%rbp),%rax
    f7bf:	48 89 85 88 f9 ff ff 	mov    %rax,-0x678(%rbp)
    f7c6:	48 8d 85 c8 f8 ff ff 	lea    -0x738(%rbp),%rax
    f7cd:	48 89 85 90 f9 ff ff 	mov    %rax,-0x670(%rbp)
    f7d4:	48 8d 85 c8 f8 ff ff 	lea    -0x738(%rbp),%rax
    f7db:	48 89 85 98 f9 ff ff 	mov    %rax,-0x668(%rbp)
    f7e2:	48 8d 85 c8 f8 ff ff 	lea    -0x738(%rbp),%rax
    f7e9:	48 89 85 a0 f9 ff ff 	mov    %rax,-0x660(%rbp)
    f7f0:	48 c7 85 a8 f9 ff ff 	movq   $0x0,-0x658(%rbp)
    f7f7:	00 00 00 00 
    f7fb:	48 c7 85 b0 f9 ff ff 	movq   $0x0,-0x650(%rbp)
    f802:	00 00 00 00 
    f806:	48 8d 85 c8 f8 ff ff 	lea    -0x738(%rbp),%rax
    f80d:	48 89 85 b8 f9 ff ff 	mov    %rax,-0x648(%rbp)
    f814:	48 8d 85 c8 f8 ff ff 	lea    -0x738(%rbp),%rax
    f81b:	48 89 85 c0 f9 ff ff 	mov    %rax,-0x640(%rbp)
    f822:	48 8d 85 c8 f8 ff ff 	lea    -0x738(%rbp),%rax
    f829:	48 89 85 c8 f9 ff ff 	mov    %rax,-0x638(%rbp)
    f830:	48 8d 85 c8 f8 ff ff 	lea    -0x738(%rbp),%rax
    f837:	48 89 85 d0 f9 ff ff 	mov    %rax,-0x630(%rbp)
    f83e:	48 8d 85 c8 f8 ff ff 	lea    -0x738(%rbp),%rax
    f845:	48 89 85 d8 f9 ff ff 	mov    %rax,-0x628(%rbp)
    f84c:	48 8d 85 c8 f8 ff ff 	lea    -0x738(%rbp),%rax
    f853:	48 89 85 e0 f9 ff ff 	mov    %rax,-0x620(%rbp)
    f85a:	48 8d 85 c8 f8 ff ff 	lea    -0x738(%rbp),%rax
    f861:	48 89 85 e8 f9 ff ff 	mov    %rax,-0x618(%rbp)
    f868:	48 c7 85 f0 f9 ff ff 	movq   $0x0,-0x610(%rbp)
    f86f:	00 00 00 00 
    f873:	48 c7 85 f8 f9 ff ff 	movq   $0x0,-0x608(%rbp)
    f87a:	00 00 00 00 
    f87e:	48 8d 85 c8 f8 ff ff 	lea    -0x738(%rbp),%rax
    f885:	48 89 85 00 fa ff ff 	mov    %rax,-0x600(%rbp)
    f88c:	48 8d 85 c8 f8 ff ff 	lea    -0x738(%rbp),%rax
    f893:	48 89 85 08 fa ff ff 	mov    %rax,-0x5f8(%rbp)
    f89a:	48 8d 85 c8 f8 ff ff 	lea    -0x738(%rbp),%rax
    f8a1:	48 89 85 10 fa ff ff 	mov    %rax,-0x5f0(%rbp)
    f8a8:	48 8d 85 c8 f8 ff ff 	lea    -0x738(%rbp),%rax
    f8af:	48 89 85 18 fa ff ff 	mov    %rax,-0x5e8(%rbp)
    f8b6:	48 8d 85 c8 f8 ff ff 	lea    -0x738(%rbp),%rax
    f8bd:	48 89 85 20 fa ff ff 	mov    %rax,-0x5e0(%rbp)
    f8c4:	48 8d 85 c8 f8 ff ff 	lea    -0x738(%rbp),%rax
    f8cb:	48 89 85 28 fa ff ff 	mov    %rax,-0x5d8(%rbp)
    f8d2:	48 8d 85 c8 f8 ff ff 	lea    -0x738(%rbp),%rax
    f8d9:	48 89 85 30 fa ff ff 	mov    %rax,-0x5d0(%rbp)
    f8e0:	48 c7 85 38 fa ff ff 	movq   $0x0,-0x5c8(%rbp)
    f8e7:	00 00 00 00 
    f8eb:	48 8d 85 c8 f8 ff ff 	lea    -0x738(%rbp),%rax
    f8f2:	48 89 85 40 fa ff ff 	mov    %rax,-0x5c0(%rbp)
    f8f9:	48 8d 85 c8 f8 ff ff 	lea    -0x738(%rbp),%rax
    f900:	48 89 85 48 fa ff ff 	mov    %rax,-0x5b8(%rbp)
    f907:	48 8d 85 c8 f8 ff ff 	lea    -0x738(%rbp),%rax
    f90e:	48 89 85 50 fa ff ff 	mov    %rax,-0x5b0(%rbp)
    f915:	48 8d 85 c8 f8 ff ff 	lea    -0x738(%rbp),%rax
    f91c:	48 89 85 58 fa ff ff 	mov    %rax,-0x5a8(%rbp)
    f923:	48 8d 85 c8 f8 ff ff 	lea    -0x738(%rbp),%rax
    f92a:	48 89 85 60 fa ff ff 	mov    %rax,-0x5a0(%rbp)
    f931:	48 c7 85 68 fa ff ff 	movq   $0x0,-0x598(%rbp)
    f938:	00 00 00 00 
    f93c:	48 c7 85 70 fa ff ff 	movq   $0x0,-0x590(%rbp)
    f943:	00 00 00 00 
    f947:	48 8d 85 c8 f8 ff ff 	lea    -0x738(%rbp),%rax
    f94e:	48 89 85 78 fa ff ff 	mov    %rax,-0x588(%rbp)
    f955:	48 8d 85 c8 f8 ff ff 	lea    -0x738(%rbp),%rax
    f95c:	48 89 85 80 fa ff ff 	mov    %rax,-0x580(%rbp)
    f963:	48 8d 85 c8 f8 ff ff 	lea    -0x738(%rbp),%rax
    f96a:	48 89 85 88 fa ff ff 	mov    %rax,-0x578(%rbp)
    f971:	48 8d 85 c8 f8 ff ff 	lea    -0x738(%rbp),%rax
    f978:	48 89 85 90 fa ff ff 	mov    %rax,-0x570(%rbp)
    f97f:	48 c7 85 98 fa ff ff 	movq   $0x0,-0x568(%rbp)
    f986:	00 00 00 00 
    f98a:	48 c7 85 a0 fa ff ff 	movq   $0x0,-0x560(%rbp)
    f991:	00 00 00 00 
    f995:	48 8d 85 c8 f8 ff ff 	lea    -0x738(%rbp),%rax
    f99c:	48 89 85 a8 fa ff ff 	mov    %rax,-0x558(%rbp)
    f9a3:	48 8d 85 c8 f8 ff ff 	lea    -0x738(%rbp),%rax
    f9aa:	48 89 85 b0 fa ff ff 	mov    %rax,-0x550(%rbp)
    f9b1:	48 8d 85 c8 f8 ff ff 	lea    -0x738(%rbp),%rax
    f9b8:	48 89 85 b8 fa ff ff 	mov    %rax,-0x548(%rbp)
    f9bf:	48 8d 85 c8 f8 ff ff 	lea    -0x738(%rbp),%rax
    f9c6:	48 89 85 c0 fa ff ff 	mov    %rax,-0x540(%rbp)
    f9cd:	48 8d 85 c8 f8 ff ff 	lea    -0x738(%rbp),%rax
    f9d4:	48 89 85 c8 fa ff ff 	mov    %rax,-0x538(%rbp)
    f9db:	48 c7 85 d0 fa ff ff 	movq   $0x0,-0x530(%rbp)
    f9e2:	00 00 00 00 
    f9e6:	48 8d 85 c8 f8 ff ff 	lea    -0x738(%rbp),%rax
    f9ed:	48 89 85 d8 fa ff ff 	mov    %rax,-0x528(%rbp)
    f9f4:	48 8d 85 c8 f8 ff ff 	lea    -0x738(%rbp),%rax
    f9fb:	48 89 85 e0 fa ff ff 	mov    %rax,-0x520(%rbp)
    fa02:	48 8d 85 c8 f8 ff ff 	lea    -0x738(%rbp),%rax
    fa09:	48 89 85 e8 fa ff ff 	mov    %rax,-0x518(%rbp)
    fa10:	48 8d 85 c8 f8 ff ff 	lea    -0x738(%rbp),%rax
    fa17:	48 89 85 f0 fa ff ff 	mov    %rax,-0x510(%rbp)
    fa1e:	48 c7 85 f8 fa ff ff 	movq   $0x0,-0x508(%rbp)
    fa25:	00 00 00 00 
    fa29:	48 8d 85 c8 f8 ff ff 	lea    -0x738(%rbp),%rax
    fa30:	48 89 85 00 fb ff ff 	mov    %rax,-0x500(%rbp)
    fa37:	48 8d 85 c8 f8 ff ff 	lea    -0x738(%rbp),%rax
    fa3e:	48 89 85 08 fb ff ff 	mov    %rax,-0x4f8(%rbp)
    fa45:	48 8d 85 c8 f8 ff ff 	lea    -0x738(%rbp),%rax
    fa4c:	48 89 85 10 fb ff ff 	mov    %rax,-0x4f0(%rbp)
    fa53:	48 8d 85 c8 f8 ff ff 	lea    -0x738(%rbp),%rax
    fa5a:	48 89 85 18 fb ff ff 	mov    %rax,-0x4e8(%rbp)
    fa61:	48 8d 85 c8 f8 ff ff 	lea    -0x738(%rbp),%rax
    fa68:	48 89 85 20 fb ff ff 	mov    %rax,-0x4e0(%rbp)
    fa6f:	48 c7 85 28 fb ff ff 	movq   $0x0,-0x4d8(%rbp)
    fa76:	00 00 00 00 
    fa7a:	48 8d 85 c8 f8 ff ff 	lea    -0x738(%rbp),%rax
    fa81:	48 89 85 30 fb ff ff 	mov    %rax,-0x4d0(%rbp)
    fa88:	48 8d 85 c8 f8 ff ff 	lea    -0x738(%rbp),%rax
    fa8f:	48 89 85 38 fb ff ff 	mov    %rax,-0x4c8(%rbp)
    fa96:	48 8d 85 c8 f8 ff ff 	lea    -0x738(%rbp),%rax
    fa9d:	48 89 85 40 fb ff ff 	mov    %rax,-0x4c0(%rbp)
    faa4:	48 c7 85 48 fb ff ff 	movq   $0x0,-0x4b8(%rbp)
    faab:	00 00 00 00 
    faaf:	48 8d 85 c8 f8 ff ff 	lea    -0x738(%rbp),%rax
    fab6:	48 89 85 50 fb ff ff 	mov    %rax,-0x4b0(%rbp)
    fabd:	48 8d 85 c8 f8 ff ff 	lea    -0x738(%rbp),%rax
    fac4:	48 89 85 58 fb ff ff 	mov    %rax,-0x4a8(%rbp)
    facb:	48 c7 85 60 fb ff ff 	movq   $0x0,-0x4a0(%rbp)
    fad2:	00 00 00 00 
    fad6:	48 8d 85 c8 f8 ff ff 	lea    -0x738(%rbp),%rax
    fadd:	48 89 85 68 fb ff ff 	mov    %rax,-0x498(%rbp)
    fae4:	48 8d 85 c8 f8 ff ff 	lea    -0x738(%rbp),%rax
    faeb:	48 89 85 70 fb ff ff 	mov    %rax,-0x490(%rbp)
    faf2:	48 8d 85 c8 f8 ff ff 	lea    -0x738(%rbp),%rax
    faf9:	48 89 85 78 fb ff ff 	mov    %rax,-0x488(%rbp)
    fb00:	48 8d 85 c8 f8 ff ff 	lea    -0x738(%rbp),%rax
    fb07:	48 89 85 80 fb ff ff 	mov    %rax,-0x480(%rbp)
    fb0e:	48 8d 85 c8 f8 ff ff 	lea    -0x738(%rbp),%rax
    fb15:	48 89 85 88 fb ff ff 	mov    %rax,-0x478(%rbp)
    fb1c:	48 8d 85 c8 f8 ff ff 	lea    -0x738(%rbp),%rax
    fb23:	48 89 85 90 fb ff ff 	mov    %rax,-0x470(%rbp)
    fb2a:	48 8d 85 c8 f8 ff ff 	lea    -0x738(%rbp),%rax
    fb31:	48 89 85 98 fb ff ff 	mov    %rax,-0x468(%rbp)
    fb38:	48 8d 85 c8 f8 ff ff 	lea    -0x738(%rbp),%rax
    fb3f:	48 89 85 a0 fb ff ff 	mov    %rax,-0x460(%rbp)
    fb46:	48 8d 85 c8 f8 ff ff 	lea    -0x738(%rbp),%rax
    fb4d:	48 89 85 a8 fb ff ff 	mov    %rax,-0x458(%rbp)
    fb54:	48 8d 85 c8 f8 ff ff 	lea    -0x738(%rbp),%rax
    fb5b:	48 89 85 b0 fb ff ff 	mov    %rax,-0x450(%rbp)
    fb62:	48 8d 85 c8 f8 ff ff 	lea    -0x738(%rbp),%rax
    fb69:	48 89 85 b8 fb ff ff 	mov    %rax,-0x448(%rbp)
    fb70:	48 c7 85 c0 fb ff ff 	movq   $0x0,-0x440(%rbp)
    fb77:	00 00 00 00 
    fb7b:	48 8d 85 c8 f8 ff ff 	lea    -0x738(%rbp),%rax
    fb82:	48 89 85 c8 fb ff ff 	mov    %rax,-0x438(%rbp)
    fb89:	48 8d 85 c8 f8 ff ff 	lea    -0x738(%rbp),%rax
    fb90:	48 89 85 d0 fb ff ff 	mov    %rax,-0x430(%rbp)
    fb97:	48 c7 85 d8 fb ff ff 	movq   $0x0,-0x428(%rbp)
    fb9e:	00 00 00 00 
    fba2:	48 8d 85 c8 f8 ff ff 	lea    -0x738(%rbp),%rax
    fba9:	48 89 85 e0 fb ff ff 	mov    %rax,-0x420(%rbp)
    fbb0:	48 c7 85 e8 fb ff ff 	movq   $0x0,-0x418(%rbp)
    fbb7:	00 00 00 00 
    fbbb:	48 8d 85 c8 f8 ff ff 	lea    -0x738(%rbp),%rax
    fbc2:	48 89 85 f0 fb ff ff 	mov    %rax,-0x410(%rbp)
    fbc9:	48 8d 85 c8 f8 ff ff 	lea    -0x738(%rbp),%rax
    fbd0:	48 89 85 f8 fb ff ff 	mov    %rax,-0x408(%rbp)
    fbd7:	48 8d 85 c8 f8 ff ff 	lea    -0x738(%rbp),%rax
    fbde:	48 89 85 00 fc ff ff 	mov    %rax,-0x400(%rbp)
    fbe5:	48 8d 85 c8 f8 ff ff 	lea    -0x738(%rbp),%rax
    fbec:	48 89 85 08 fc ff ff 	mov    %rax,-0x3f8(%rbp)
    fbf3:	48 8d 85 c8 f8 ff ff 	lea    -0x738(%rbp),%rax
    fbfa:	48 89 85 10 fc ff ff 	mov    %rax,-0x3f0(%rbp)
    fc01:	48 8d 85 c8 f8 ff ff 	lea    -0x738(%rbp),%rax
    fc08:	48 89 85 18 fc ff ff 	mov    %rax,-0x3e8(%rbp)
    fc0f:	48 8d 85 c8 f8 ff ff 	lea    -0x738(%rbp),%rax
    fc16:	48 89 85 20 fc ff ff 	mov    %rax,-0x3e0(%rbp)
    fc1d:	48 c7 85 28 fc ff ff 	movq   $0x0,-0x3d8(%rbp)
    fc24:	00 00 00 00 
    fc28:	48 8d 85 c8 f8 ff ff 	lea    -0x738(%rbp),%rax
    fc2f:	48 89 85 30 fc ff ff 	mov    %rax,-0x3d0(%rbp)
    fc36:	48 8d 85 c8 f8 ff ff 	lea    -0x738(%rbp),%rax
    fc3d:	48 89 85 38 fc ff ff 	mov    %rax,-0x3c8(%rbp)
    fc44:	48 8d 85 c8 f8 ff ff 	lea    -0x738(%rbp),%rax
    fc4b:	48 89 85 40 fc ff ff 	mov    %rax,-0x3c0(%rbp)
    fc52:	48 c7 85 48 fc ff ff 	movq   $0x0,-0x3b8(%rbp)
    fc59:	00 00 00 00 
    fc5d:	48 c7 85 50 fc ff ff 	movq   $0x0,-0x3b0(%rbp)
    fc64:	00 00 00 00 
    fc68:	48 c7 85 58 fc ff ff 	movq   $0x0,-0x3a8(%rbp)
    fc6f:	00 00 00 00 
    fc73:	48 8d 85 c8 f8 ff ff 	lea    -0x738(%rbp),%rax
    fc7a:	48 89 85 60 fc ff ff 	mov    %rax,-0x3a0(%rbp)
    fc81:	48 8d 85 c8 f8 ff ff 	lea    -0x738(%rbp),%rax
    fc88:	48 89 85 68 fc ff ff 	mov    %rax,-0x398(%rbp)
    fc8f:	48 8d 85 c8 f8 ff ff 	lea    -0x738(%rbp),%rax
    fc96:	48 89 85 70 fc ff ff 	mov    %rax,-0x390(%rbp)
    fc9d:	48 8d 85 c8 f8 ff ff 	lea    -0x738(%rbp),%rax
    fca4:	48 89 85 78 fc ff ff 	mov    %rax,-0x388(%rbp)
    fcab:	48 8d 85 c8 f8 ff ff 	lea    -0x738(%rbp),%rax
    fcb2:	48 89 85 80 fc ff ff 	mov    %rax,-0x380(%rbp)
    fcb9:	48 8d 85 c8 f8 ff ff 	lea    -0x738(%rbp),%rax
    fcc0:	48 89 85 88 fc ff ff 	mov    %rax,-0x378(%rbp)
    fcc7:	48 8d 85 c8 f8 ff ff 	lea    -0x738(%rbp),%rax
    fcce:	48 89 85 90 fc ff ff 	mov    %rax,-0x370(%rbp)
    fcd5:	48 8d 85 c8 f8 ff ff 	lea    -0x738(%rbp),%rax
    fcdc:	48 89 85 98 fc ff ff 	mov    %rax,-0x368(%rbp)
    fce3:	48 8d 85 c8 f8 ff ff 	lea    -0x738(%rbp),%rax
    fcea:	48 89 85 a0 fc ff ff 	mov    %rax,-0x360(%rbp)
    fcf1:	48 8d 85 c8 f8 ff ff 	lea    -0x738(%rbp),%rax
    fcf8:	48 89 85 a8 fc ff ff 	mov    %rax,-0x358(%rbp)
    fcff:	48 c7 85 b0 fc ff ff 	movq   $0x0,-0x350(%rbp)
    fd06:	00 00 00 00 
    fd0a:	48 c7 85 b8 fc ff ff 	movq   $0x0,-0x348(%rbp)
    fd11:	00 00 00 00 
    fd15:	48 8d 85 c8 f8 ff ff 	lea    -0x738(%rbp),%rax
    fd1c:	48 89 85 c0 fc ff ff 	mov    %rax,-0x340(%rbp)
    fd23:	48 c7 85 c8 fc ff ff 	movq   $0x0,-0x338(%rbp)
    fd2a:	00 00 00 00 
    fd2e:	48 8d 85 c8 f8 ff ff 	lea    -0x738(%rbp),%rax
    fd35:	48 89 85 d0 fc ff ff 	mov    %rax,-0x330(%rbp)
    fd3c:	48 8d 85 c8 f8 ff ff 	lea    -0x738(%rbp),%rax
    fd43:	48 89 85 d8 fc ff ff 	mov    %rax,-0x328(%rbp)
    fd4a:	48 8d 85 c8 f8 ff ff 	lea    -0x738(%rbp),%rax
    fd51:	48 89 85 e0 fc ff ff 	mov    %rax,-0x320(%rbp)
    fd58:	48 c7 85 e8 fc ff ff 	movq   $0x0,-0x318(%rbp)
    fd5f:	00 00 00 00 
    fd63:	48 8d 85 c8 f8 ff ff 	lea    -0x738(%rbp),%rax
    fd6a:	48 89 85 f0 fc ff ff 	mov    %rax,-0x310(%rbp)
    fd71:	48 8d 85 c8 f8 ff ff 	lea    -0x738(%rbp),%rax
    fd78:	48 89 85 f8 fc ff ff 	mov    %rax,-0x308(%rbp)
    fd7f:	48 8d 85 c8 f8 ff ff 	lea    -0x738(%rbp),%rax
    fd86:	48 89 85 00 fd ff ff 	mov    %rax,-0x300(%rbp)
    fd8d:	48 8d 85 c8 f8 ff ff 	lea    -0x738(%rbp),%rax
    fd94:	48 89 85 08 fd ff ff 	mov    %rax,-0x2f8(%rbp)
    fd9b:	48 c7 85 10 fd ff ff 	movq   $0x0,-0x2f0(%rbp)
    fda2:	00 00 00 00 
    fda6:	48 8d 85 c8 f8 ff ff 	lea    -0x738(%rbp),%rax
    fdad:	48 89 85 18 fd ff ff 	mov    %rax,-0x2e8(%rbp)
    fdb4:	48 8d 85 c8 f8 ff ff 	lea    -0x738(%rbp),%rax
    fdbb:	48 89 85 20 fd ff ff 	mov    %rax,-0x2e0(%rbp)
    fdc2:	48 8d 85 c8 f8 ff ff 	lea    -0x738(%rbp),%rax
    fdc9:	48 89 85 28 fd ff ff 	mov    %rax,-0x2d8(%rbp)
    fdd0:	48 8d 85 c8 f8 ff ff 	lea    -0x738(%rbp),%rax
    fdd7:	48 89 85 30 fd ff ff 	mov    %rax,-0x2d0(%rbp)
    fdde:	48 c7 85 38 fd ff ff 	movq   $0x0,-0x2c8(%rbp)
    fde5:	00 00 00 00 
    fde9:	48 8d 85 c8 f8 ff ff 	lea    -0x738(%rbp),%rax
    fdf0:	48 89 85 40 fd ff ff 	mov    %rax,-0x2c0(%rbp)
    fdf7:	48 8d 85 c8 f8 ff ff 	lea    -0x738(%rbp),%rax
    fdfe:	48 89 85 48 fd ff ff 	mov    %rax,-0x2b8(%rbp)
    fe05:	48 8d 85 c8 f8 ff ff 	lea    -0x738(%rbp),%rax
    fe0c:	48 89 85 50 fd ff ff 	mov    %rax,-0x2b0(%rbp)
    fe13:	48 8d 85 c8 f8 ff ff 	lea    -0x738(%rbp),%rax
    fe1a:	48 89 85 58 fd ff ff 	mov    %rax,-0x2a8(%rbp)
    fe21:	48 8d 85 c8 f8 ff ff 	lea    -0x738(%rbp),%rax
    fe28:	48 89 85 60 fd ff ff 	mov    %rax,-0x2a0(%rbp)
    fe2f:	48 8d 85 c8 f8 ff ff 	lea    -0x738(%rbp),%rax
    fe36:	48 89 85 68 fd ff ff 	mov    %rax,-0x298(%rbp)
    fe3d:	48 8d 85 c8 f8 ff ff 	lea    -0x738(%rbp),%rax
    fe44:	48 89 85 70 fd ff ff 	mov    %rax,-0x290(%rbp)
    fe4b:	48 8d 85 c8 f8 ff ff 	lea    -0x738(%rbp),%rax
    fe52:	48 89 85 78 fd ff ff 	mov    %rax,-0x288(%rbp)
    fe59:	48 8d 85 c8 f8 ff ff 	lea    -0x738(%rbp),%rax
    fe60:	48 89 85 80 fd ff ff 	mov    %rax,-0x280(%rbp)
    fe67:	48 8d 85 c8 f8 ff ff 	lea    -0x738(%rbp),%rax
    fe6e:	48 89 85 88 fd ff ff 	mov    %rax,-0x278(%rbp)
    fe75:	48 8d 85 c8 f8 ff ff 	lea    -0x738(%rbp),%rax
    fe7c:	48 89 85 90 fd ff ff 	mov    %rax,-0x270(%rbp)
    fe83:	48 8d 85 c8 f8 ff ff 	lea    -0x738(%rbp),%rax
    fe8a:	48 89 85 98 fd ff ff 	mov    %rax,-0x268(%rbp)
    fe91:	48 8d 85 c8 f8 ff ff 	lea    -0x738(%rbp),%rax
    fe98:	48 89 85 a0 fd ff ff 	mov    %rax,-0x260(%rbp)
    fe9f:	48 c7 85 a8 fd ff ff 	movq   $0x0,-0x258(%rbp)
    fea6:	00 00 00 00 
    feaa:	48 8d 85 c8 f8 ff ff 	lea    -0x738(%rbp),%rax
    feb1:	48 89 85 b0 fd ff ff 	mov    %rax,-0x250(%rbp)
    feb8:	48 8d 85 c8 f8 ff ff 	lea    -0x738(%rbp),%rax
    febf:	48 89 85 b8 fd ff ff 	mov    %rax,-0x248(%rbp)
    fec6:	48 8d 85 c8 f8 ff ff 	lea    -0x738(%rbp),%rax
    fecd:	48 89 85 c0 fd ff ff 	mov    %rax,-0x240(%rbp)
    fed4:	48 8d 85 c8 f8 ff ff 	lea    -0x738(%rbp),%rax
    fedb:	48 89 85 c8 fd ff ff 	mov    %rax,-0x238(%rbp)
    fee2:	48 8d 85 c8 f8 ff ff 	lea    -0x738(%rbp),%rax
    fee9:	48 89 85 d0 fd ff ff 	mov    %rax,-0x230(%rbp)
    fef0:	48 c7 85 d8 fd ff ff 	movq   $0x0,-0x228(%rbp)
    fef7:	00 00 00 00 
    fefb:	48 8d 85 c8 f8 ff ff 	lea    -0x738(%rbp),%rax
    ff02:	48 89 85 e0 fd ff ff 	mov    %rax,-0x220(%rbp)
    ff09:	48 8d 85 c8 f8 ff ff 	lea    -0x738(%rbp),%rax
    ff10:	48 89 85 e8 fd ff ff 	mov    %rax,-0x218(%rbp)
    ff17:	48 8d 85 c8 f8 ff ff 	lea    -0x738(%rbp),%rax
    ff1e:	48 89 85 f0 fd ff ff 	mov    %rax,-0x210(%rbp)
    ff25:	48 8d 85 c8 f8 ff ff 	lea    -0x738(%rbp),%rax
    ff2c:	48 89 85 f8 fd ff ff 	mov    %rax,-0x208(%rbp)
    ff33:	48 c7 85 00 fe ff ff 	movq   $0x0,-0x200(%rbp)
    ff3a:	00 00 00 00 
    ff3e:	48 8d 85 c8 f8 ff ff 	lea    -0x738(%rbp),%rax
    ff45:	48 89 85 08 fe ff ff 	mov    %rax,-0x1f8(%rbp)
    ff4c:	48 8d 85 c8 f8 ff ff 	lea    -0x738(%rbp),%rax
    ff53:	48 89 85 10 fe ff ff 	mov    %rax,-0x1f0(%rbp)
    ff5a:	48 c7 85 18 fe ff ff 	movq   $0x0,-0x1e8(%rbp)
    ff61:	00 00 00 00 
    ff65:	48 8d 85 c8 f8 ff ff 	lea    -0x738(%rbp),%rax
    ff6c:	48 89 85 20 fe ff ff 	mov    %rax,-0x1e0(%rbp)
    ff73:	48 8d 85 c8 f8 ff ff 	lea    -0x738(%rbp),%rax
    ff7a:	48 89 85 28 fe ff ff 	mov    %rax,-0x1d8(%rbp)
    ff81:	48 8d 85 c8 f8 ff ff 	lea    -0x738(%rbp),%rax
    ff88:	48 89 85 30 fe ff ff 	mov    %rax,-0x1d0(%rbp)
    ff8f:	48 8d 85 c8 f8 ff ff 	lea    -0x738(%rbp),%rax
    ff96:	48 89 85 38 fe ff ff 	mov    %rax,-0x1c8(%rbp)
    ff9d:	48 8d 85 c8 f8 ff ff 	lea    -0x738(%rbp),%rax
    ffa4:	48 89 85 40 fe ff ff 	mov    %rax,-0x1c0(%rbp)
    ffab:	48 8d 85 c8 f8 ff ff 	lea    -0x738(%rbp),%rax
    ffb2:	48 89 85 48 fe ff ff 	mov    %rax,-0x1b8(%rbp)
    ffb9:	48 8d 85 c8 f8 ff ff 	lea    -0x738(%rbp),%rax
    ffc0:	48 89 85 50 fe ff ff 	mov    %rax,-0x1b0(%rbp)
    ffc7:	48 8d 85 c8 f8 ff ff 	lea    -0x738(%rbp),%rax
    ffce:	48 89 85 58 fe ff ff 	mov    %rax,-0x1a8(%rbp)
    ffd5:	48 8d 85 c8 f8 ff ff 	lea    -0x738(%rbp),%rax
    ffdc:	48 89 85 60 fe ff ff 	mov    %rax,-0x1a0(%rbp)
    ffe3:	48 8d 85 c8 f8 ff ff 	lea    -0x738(%rbp),%rax
    ffea:	48 89 85 68 fe ff ff 	mov    %rax,-0x198(%rbp)
    fff1:	48 8d 85 c8 f8 ff ff 	lea    -0x738(%rbp),%rax
    fff8:	48 89 85 70 fe ff ff 	mov    %rax,-0x190(%rbp)
    ffff:	48 8d 85 c8 f8 ff ff 	lea    -0x738(%rbp),%rax
   10006:	48 89 85 78 fe ff ff 	mov    %rax,-0x188(%rbp)
   1000d:	48 8d 85 c8 f8 ff ff 	lea    -0x738(%rbp),%rax
   10014:	48 89 85 80 fe ff ff 	mov    %rax,-0x180(%rbp)
   1001b:	48 8d 85 c8 f8 ff ff 	lea    -0x738(%rbp),%rax
   10022:	48 89 85 88 fe ff ff 	mov    %rax,-0x178(%rbp)
   10029:	48 8d 85 c8 f8 ff ff 	lea    -0x738(%rbp),%rax
   10030:	48 89 85 90 fe ff ff 	mov    %rax,-0x170(%rbp)
   10037:	48 c7 85 98 fe ff ff 	movq   $0x0,-0x168(%rbp)
   1003e:	00 00 00 00 
   10042:	48 8d 85 c8 f8 ff ff 	lea    -0x738(%rbp),%rax
   10049:	48 89 85 a0 fe ff ff 	mov    %rax,-0x160(%rbp)
   10050:	48 8d 85 c8 f8 ff ff 	lea    -0x738(%rbp),%rax
   10057:	48 89 85 a8 fe ff ff 	mov    %rax,-0x158(%rbp)
   1005e:	48 8d 85 c8 f8 ff ff 	lea    -0x738(%rbp),%rax
   10065:	48 89 85 b0 fe ff ff 	mov    %rax,-0x150(%rbp)
   1006c:	48 8d 85 c8 f8 ff ff 	lea    -0x738(%rbp),%rax
   10073:	48 89 85 b8 fe ff ff 	mov    %rax,-0x148(%rbp)
   1007a:	48 8d 85 c8 f8 ff ff 	lea    -0x738(%rbp),%rax
   10081:	48 89 85 c0 fe ff ff 	mov    %rax,-0x140(%rbp)
   10088:	48 c7 85 c8 fe ff ff 	movq   $0x0,-0x138(%rbp)
   1008f:	00 00 00 00 
   10093:	48 8d 85 c8 f8 ff ff 	lea    -0x738(%rbp),%rax
   1009a:	48 89 85 d0 fe ff ff 	mov    %rax,-0x130(%rbp)
   100a1:	48 8d 85 c8 f8 ff ff 	lea    -0x738(%rbp),%rax
   100a8:	48 89 85 d8 fe ff ff 	mov    %rax,-0x128(%rbp)
   100af:	48 8d 85 c8 f8 ff ff 	lea    -0x738(%rbp),%rax
   100b6:	48 89 85 e0 fe ff ff 	mov    %rax,-0x120(%rbp)
   100bd:	48 8d 85 c8 f8 ff ff 	lea    -0x738(%rbp),%rax
   100c4:	48 89 85 e8 fe ff ff 	mov    %rax,-0x118(%rbp)
   100cb:	48 8d 85 c8 f8 ff ff 	lea    -0x738(%rbp),%rax
   100d2:	48 89 85 f0 fe ff ff 	mov    %rax,-0x110(%rbp)
   100d9:	48 8d 85 c8 f8 ff ff 	lea    -0x738(%rbp),%rax
   100e0:	48 89 85 f8 fe ff ff 	mov    %rax,-0x108(%rbp)
   100e7:	48 8d 85 c8 f8 ff ff 	lea    -0x738(%rbp),%rax
   100ee:	48 89 85 00 ff ff ff 	mov    %rax,-0x100(%rbp)
   100f5:	48 8d 85 c8 f8 ff ff 	lea    -0x738(%rbp),%rax
   100fc:	48 89 85 08 ff ff ff 	mov    %rax,-0xf8(%rbp)
   10103:	48 c7 85 10 ff ff ff 	movq   $0x0,-0xf0(%rbp)
   1010a:	00 00 00 00 
   1010e:	48 8d 85 c8 f8 ff ff 	lea    -0x738(%rbp),%rax
   10115:	48 89 85 18 ff ff ff 	mov    %rax,-0xe8(%rbp)
   1011c:	48 8d 85 c8 f8 ff ff 	lea    -0x738(%rbp),%rax
   10123:	48 89 85 20 ff ff ff 	mov    %rax,-0xe0(%rbp)
   1012a:	48 8d 85 c8 f8 ff ff 	lea    -0x738(%rbp),%rax
   10131:	48 89 85 28 ff ff ff 	mov    %rax,-0xd8(%rbp)
   10138:	48 8d 85 c8 f8 ff ff 	lea    -0x738(%rbp),%rax
   1013f:	48 89 85 30 ff ff ff 	mov    %rax,-0xd0(%rbp)
   10146:	48 8d 85 c8 f8 ff ff 	lea    -0x738(%rbp),%rax
   1014d:	48 89 85 38 ff ff ff 	mov    %rax,-0xc8(%rbp)
   10154:	48 8d 85 c8 f8 ff ff 	lea    -0x738(%rbp),%rax
   1015b:	48 89 85 40 ff ff ff 	mov    %rax,-0xc0(%rbp)
   10162:	48 8d 85 c8 f8 ff ff 	lea    -0x738(%rbp),%rax
   10169:	48 89 85 48 ff ff ff 	mov    %rax,-0xb8(%rbp)
   10170:	48 8d 85 c8 f8 ff ff 	lea    -0x738(%rbp),%rax
   10177:	48 89 85 50 ff ff ff 	mov    %rax,-0xb0(%rbp)
   1017e:	48 8d 85 c8 f8 ff ff 	lea    -0x738(%rbp),%rax
   10185:	48 89 85 58 ff ff ff 	mov    %rax,-0xa8(%rbp)
   1018c:	48 8d 85 c8 f8 ff ff 	lea    -0x738(%rbp),%rax
   10193:	48 89 85 60 ff ff ff 	mov    %rax,-0xa0(%rbp)
   1019a:	48 8d 85 c8 f8 ff ff 	lea    -0x738(%rbp),%rax
   101a1:	48 89 85 68 ff ff ff 	mov    %rax,-0x98(%rbp)
   101a8:	48 c7 85 70 ff ff ff 	movq   $0x0,-0x90(%rbp)
   101af:	00 00 00 00 
   101b3:	48 c7 85 78 ff ff ff 	movq   $0x0,-0x88(%rbp)
   101ba:	00 00 00 00 
   101be:	48 8d 85 c8 f8 ff ff 	lea    -0x738(%rbp),%rax
   101c5:	48 89 45 80          	mov    %rax,-0x80(%rbp)
   101c9:	48 c7 45 88 00 00 00 	movq   $0x0,-0x78(%rbp)
   101d0:	00 
   101d1:	48 8d 85 c8 f8 ff ff 	lea    -0x738(%rbp),%rax
   101d8:	48 89 45 90          	mov    %rax,-0x70(%rbp)
   101dc:	48 c7 45 98 00 00 00 	movq   $0x0,-0x68(%rbp)
   101e3:	00 
   101e4:	48 8d 85 c8 f8 ff ff 	lea    -0x738(%rbp),%rax
   101eb:	48 89 45 a0          	mov    %rax,-0x60(%rbp)
   101ef:	48 8d 85 c8 f8 ff ff 	lea    -0x738(%rbp),%rax
   101f6:	48 89 45 a8          	mov    %rax,-0x58(%rbp)
   101fa:	48 c7 45 b0 00 00 00 	movq   $0x0,-0x50(%rbp)
   10201:	00 
   10202:	48 c7 45 b8 00 00 00 	movq   $0x0,-0x48(%rbp)
   10209:	00 
   1020a:	48 8d 85 c8 f8 ff ff 	lea    -0x738(%rbp),%rax
   10211:	48 89 45 c0          	mov    %rax,-0x40(%rbp)
   10215:	48 8d 85 c8 f8 ff ff 	lea    -0x738(%rbp),%rax
   1021c:	48 89 45 c8          	mov    %rax,-0x38(%rbp)
   10220:	48 8d 85 c8 f8 ff ff 	lea    -0x738(%rbp),%rax
   10227:	48 89 45 d0          	mov    %rax,-0x30(%rbp)
   1022b:	48 c7 45 d8 00 00 00 	movq   $0x0,-0x28(%rbp)
   10232:	00 
   10233:	48 8d 85 c8 f8 ff ff 	lea    -0x738(%rbp),%rax
   1023a:	48 89 45 e0          	mov    %rax,-0x20(%rbp)
   1023e:	48 8d 85 c8 f8 ff ff 	lea    -0x738(%rbp),%rax
   10245:	48 89 45 e8          	mov    %rax,-0x18(%rbp)
   10249:	48 8d 85 60 f9 ff ff 	lea    -0x6a0(%rbp),%rax
   10250:	48 05 08 06 00 00    	add    $0x608,%rax
   10256:	48 89 85 d0 f8 ff ff 	mov    %rax,-0x730(%rbp)
   1025d:	48 8d 05 54 b7 00 00 	lea    0xb754(%rip),%rax        # 1b9b8 <g_157+0x358>
   10264:	48 89 85 e0 f8 ff ff 	mov    %rax,-0x720(%rbp)
   1026b:	48 c7 85 e8 f8 ff ff 	movq   $0x0,-0x718(%rbp)
   10272:	00 00 00 00 
   10276:	48 8d 05 3b b7 00 00 	lea    0xb73b(%rip),%rax        # 1b9b8 <g_157+0x358>
   1027d:	48 89 85 f0 f8 ff ff 	mov    %rax,-0x710(%rbp)
   10284:	48 8d 05 2d b7 00 00 	lea    0xb72d(%rip),%rax        # 1b9b8 <g_157+0x358>
   1028b:	48 89 85 f8 f8 ff ff 	mov    %rax,-0x708(%rbp)
   10292:	48 8d 05 67 b4 00 00 	lea    0xb467(%rip),%rax        # 1b700 <g_157+0xa0>
   10299:	48 89 85 00 f9 ff ff 	mov    %rax,-0x700(%rbp)
   102a0:	48 8d 05 59 b4 00 00 	lea    0xb459(%rip),%rax        # 1b700 <g_157+0xa0>
   102a7:	48 89 85 08 f9 ff ff 	mov    %rax,-0x6f8(%rbp)
   102ae:	48 8d 05 4b b4 00 00 	lea    0xb44b(%rip),%rax        # 1b700 <g_157+0xa0>
   102b5:	48 89 85 10 f9 ff ff 	mov    %rax,-0x6f0(%rbp)
   102bc:	48 8d 05 f5 b6 00 00 	lea    0xb6f5(%rip),%rax        # 1b9b8 <g_157+0x358>
   102c3:	48 89 85 18 f9 ff ff 	mov    %rax,-0x6e8(%rbp)
   102ca:	48 8d 05 e7 b6 00 00 	lea    0xb6e7(%rip),%rax        # 1b9b8 <g_157+0x358>
   102d1:	48 89 85 20 f9 ff ff 	mov    %rax,-0x6e0(%rbp)
   102d8:	48 c7 85 28 f9 ff ff 	movq   $0x0,-0x6d8(%rbp)
   102df:	00 00 00 00 
   102e3:	48 8d 05 ce b6 00 00 	lea    0xb6ce(%rip),%rax        # 1b9b8 <g_157+0x358>
   102ea:	48 89 85 30 f9 ff ff 	mov    %rax,-0x6d0(%rbp)
   102f1:	48 c7 85 38 f9 ff ff 	movq   $0x0,-0x6c8(%rbp)
   102f8:	00 00 00 00 
   102fc:	48 8d 05 b5 b6 00 00 	lea    0xb6b5(%rip),%rax        # 1b9b8 <g_157+0x358>
   10303:	48 89 85 40 f9 ff ff 	mov    %rax,-0x6c0(%rbp)
   1030a:	48 8d 05 a7 b6 00 00 	lea    0xb6a7(%rip),%rax        # 1b9b8 <g_157+0x358>
   10311:	48 89 85 48 f9 ff ff 	mov    %rax,-0x6b8(%rbp)
   10318:	48 8d 05 e1 b3 00 00 	lea    0xb3e1(%rip),%rax        # 1b700 <g_157+0xa0>
   1031f:	48 89 85 50 f9 ff ff 	mov    %rax,-0x6b0(%rbp)
   10326:	48 8d 05 d3 b3 00 00 	lea    0xb3d3(%rip),%rax        # 1b700 <g_157+0xa0>
   1032d:	48 89 85 58 f9 ff ff 	mov    %rax,-0x6a8(%rbp)
   10334:	48 8d 05 ed 8c 00 00 	lea    0x8ced(%rip),%rax        # 19028 <g_33>
   1033b:	48 89 85 d8 f8 ff ff 	mov    %rax,-0x728(%rbp)
   10342:	48 8b 95 68 ff ff ff 	mov    -0x98(%rbp),%rdx
   10349:	48 8b 85 d0 f8 ff ff 	mov    -0x730(%rbp),%rax
   10350:	48 89 10             	mov    %rdx,(%rax)
   10353:	48 8b 15 ee b2 00 00 	mov    0xb2ee(%rip),%rdx        # 1b648 <g_143>
   1035a:	48 8b 05 e7 b2 00 00 	mov    0xb2e7(%rip),%rax        # 1b648 <g_143>
   10361:	48 8b 12             	mov    (%rdx),%rdx
   10364:	48 89 10             	mov    %rdx,(%rax)
   10367:	48 8b 00             	mov    (%rax),%rax
   1036a:	48 89 85 d8 f8 ff ff 	mov    %rax,-0x728(%rbp)
   10371:	48 8b 05 d0 b2 00 00 	mov    0xb2d0(%rip),%rax        # 1b648 <g_143>
   10378:	48 8b 00             	mov    (%rax),%rax
   1037b:	48 8b 4d f8          	mov    -0x8(%rbp),%rcx
   1037f:	64 48 33 0c 25 28 00 	xor    %fs:0x28,%rcx
   10386:	00 00 
   10388:	74 05                	je     1038f <func_22+0xc5c>
   1038a:	e8 e1 8c ff ff       	callq  9070 <__stack_chk_fail@plt>
   1038f:	c9                   	leaveq 
   10390:	c3                   	retq   

0000000000010391 <func_26>:
   10391:	f3 0f 1e fa          	endbr64 
   10395:	55                   	push   %rbp
   10396:	48 89 e5             	mov    %rsp,%rbp
   10399:	41 57                	push   %r15
   1039b:	41 56                	push   %r14
   1039d:	41 55                	push   %r13
   1039f:	41 54                	push   %r12
   103a1:	53                   	push   %rbx
   103a2:	48 81 ec 00 10 00 00 	sub    $0x1000,%rsp
   103a9:	48 83 0c 24 00       	orq    $0x0,(%rsp)
   103ae:	48 81 ec f8 07 00 00 	sub    $0x7f8,%rsp
   103b5:	48 89 bd 08 e8 ff ff 	mov    %rdi,-0x17f8(%rbp)
   103bc:	48 89 b5 00 e8 ff ff 	mov    %rsi,-0x1800(%rbp)
   103c3:	89 d0                	mov    %edx,%eax
   103c5:	48 89 8d f0 e7 ff ff 	mov    %rcx,-0x1810(%rbp)
   103cc:	4c 89 85 e8 e7 ff ff 	mov    %r8,-0x1818(%rbp)
   103d3:	88 85 fc e7 ff ff    	mov    %al,-0x1804(%rbp)
   103d9:	64 48 8b 04 25 28 00 	mov    %fs:0x28,%rax
   103e0:	00 00 
   103e2:	48 89 45 c8          	mov    %rax,-0x38(%rbp)
   103e6:	31 c0                	xor    %eax,%eax
   103e8:	48 c7 85 48 e9 ff ff 	movq   $0x0,-0x16b8(%rbp)
   103ef:	00 00 00 00 
   103f3:	48 8d 05 7e cc 00 00 	lea    0xcc7e(%rip),%rax        # 1d078 <g_158>
   103fa:	48 89 85 90 eb ff ff 	mov    %rax,-0x1470(%rbp)
   10401:	48 8d 05 70 cc 00 00 	lea    0xcc70(%rip),%rax        # 1d078 <g_158>
   10408:	48 89 85 98 eb ff ff 	mov    %rax,-0x1468(%rbp)
   1040f:	48 8d 05 62 cc 00 00 	lea    0xcc62(%rip),%rax        # 1d078 <g_158>
   10416:	48 89 85 a0 eb ff ff 	mov    %rax,-0x1460(%rbp)
   1041d:	48 8d 05 54 cc 00 00 	lea    0xcc54(%rip),%rax        # 1d078 <g_158>
   10424:	48 89 85 a8 eb ff ff 	mov    %rax,-0x1458(%rbp)
   1042b:	48 8d 05 46 cc 00 00 	lea    0xcc46(%rip),%rax        # 1d078 <g_158>
   10432:	48 89 85 b0 eb ff ff 	mov    %rax,-0x1450(%rbp)
   10439:	48 8d 05 38 cc 00 00 	lea    0xcc38(%rip),%rax        # 1d078 <g_158>
   10440:	48 89 85 b8 eb ff ff 	mov    %rax,-0x1448(%rbp)
   10447:	48 8d 05 2a cc 00 00 	lea    0xcc2a(%rip),%rax        # 1d078 <g_158>
   1044e:	48 89 85 c0 eb ff ff 	mov    %rax,-0x1440(%rbp)
   10455:	48 8d 05 1c cc 00 00 	lea    0xcc1c(%rip),%rax        # 1d078 <g_158>
   1045c:	48 89 85 c8 eb ff ff 	mov    %rax,-0x1438(%rbp)
   10463:	48 8d 05 0e cc 00 00 	lea    0xcc0e(%rip),%rax        # 1d078 <g_158>
   1046a:	48 89 85 d0 eb ff ff 	mov    %rax,-0x1430(%rbp)
   10471:	48 8d 05 00 cc 00 00 	lea    0xcc00(%rip),%rax        # 1d078 <g_158>
   10478:	48 89 85 d8 eb ff ff 	mov    %rax,-0x1428(%rbp)
   1047f:	48 8d 05 f2 cb 00 00 	lea    0xcbf2(%rip),%rax        # 1d078 <g_158>
   10486:	48 89 85 e0 eb ff ff 	mov    %rax,-0x1420(%rbp)
   1048d:	48 8d 05 e4 cb 00 00 	lea    0xcbe4(%rip),%rax        # 1d078 <g_158>
   10494:	48 89 85 e8 eb ff ff 	mov    %rax,-0x1418(%rbp)
   1049b:	48 8d 05 d6 cb 00 00 	lea    0xcbd6(%rip),%rax        # 1d078 <g_158>
   104a2:	48 89 85 f0 eb ff ff 	mov    %rax,-0x1410(%rbp)
   104a9:	48 8d 05 c8 cb 00 00 	lea    0xcbc8(%rip),%rax        # 1d078 <g_158>
   104b0:	48 89 85 f8 eb ff ff 	mov    %rax,-0x1408(%rbp)
   104b7:	48 8d 05 ba cb 00 00 	lea    0xcbba(%rip),%rax        # 1d078 <g_158>
   104be:	48 89 85 00 ec ff ff 	mov    %rax,-0x1400(%rbp)
   104c5:	48 8d 05 ac cb 00 00 	lea    0xcbac(%rip),%rax        # 1d078 <g_158>
   104cc:	48 89 85 08 ec ff ff 	mov    %rax,-0x13f8(%rbp)
   104d3:	48 8d 05 9e cb 00 00 	lea    0xcb9e(%rip),%rax        # 1d078 <g_158>
   104da:	48 89 85 10 ec ff ff 	mov    %rax,-0x13f0(%rbp)
   104e1:	48 8d 05 90 cb 00 00 	lea    0xcb90(%rip),%rax        # 1d078 <g_158>
   104e8:	48 89 85 18 ec ff ff 	mov    %rax,-0x13e8(%rbp)
   104ef:	c7 85 28 e8 ff ff 00 	movl   $0x0,-0x17d8(%rbp)
   104f6:	00 00 00 
   104f9:	48 8d 05 40 8b 00 00 	lea    0x8b40(%rip),%rax        # 19040 <g_73>
   10500:	48 89 85 50 e9 ff ff 	mov    %rax,-0x16b0(%rbp)
   10507:	c7 85 54 e8 ff ff 00 	movl   $0x0,-0x17ac(%rbp)
   1050e:	00 00 00 
   10511:	48 c7 85 18 e9 ff ff 	movq   $0x0,-0x16e8(%rbp)
   10518:	00 00 00 00 
   1051c:	48 8d 85 18 e9 ff ff 	lea    -0x16e8(%rbp),%rax
   10523:	48 89 85 58 e9 ff ff 	mov    %rax,-0x16a8(%rbp)
   1052a:	48 8d 85 18 e9 ff ff 	lea    -0x16e8(%rbp),%rax
   10531:	48 89 85 60 e9 ff ff 	mov    %rax,-0x16a0(%rbp)
   10538:	48 8d 05 e9 8a 00 00 	lea    0x8ae9(%rip),%rax        # 19028 <g_33>
   1053f:	48 89 85 20 e9 ff ff 	mov    %rax,-0x16e0(%rbp)
   10546:	48 8d 85 20 e9 ff ff 	lea    -0x16e0(%rbp),%rax
   1054d:	48 89 85 28 e9 ff ff 	mov    %rax,-0x16d8(%rbp)
   10554:	66 c7 85 22 e8 ff ff 	movw   $0x5445,-0x17de(%rbp)
   1055b:	45 54 
   1055d:	c6 85 1d e8 ff ff ff 	movb   $0xff,-0x17e3(%rbp)
   10564:	c7 85 58 e8 ff ff ff 	movl   $0xffffffff,-0x17a8(%rbp)
   1056b:	ff ff ff 
   1056e:	c7 85 5c e8 ff ff 08 	movl   $0x8,-0x17a4(%rbp)
   10575:	00 00 00 
   10578:	c7 85 60 e8 ff ff 6a 	movl   $0x8480836a,-0x17a0(%rbp)
   1057f:	83 80 84 
   10582:	48 8d 85 a0 f2 ff ff 	lea    -0xd60(%rbp),%rax
   10589:	48 8d 15 d0 a4 00 00 	lea    0xa4d0(%rip),%rdx        # 1aa60 <g_2473+0xfcc>
   10590:	b9 c4 00 00 00       	mov    $0xc4,%ecx
   10595:	48 89 c7             	mov    %rax,%rdi
   10598:	48 89 d6             	mov    %rdx,%rsi
   1059b:	f3 48 a5             	rep movsq %ds:(%rsi),%es:(%rdi)
   1059e:	c6 85 1c e8 ff ff 57 	movb   $0x57,-0x17e4(%rbp)
   105a5:	c7 85 64 e8 ff ff 51 	movl   $0x47e8551,-0x179c(%rbp)
   105ac:	85 7e 04 
   105af:	c7 85 68 e8 ff ff 69 	movl   $0xd88e3369,-0x1798(%rbp)
   105b6:	33 8e d8 
   105b9:	c7 85 2c e8 ff ff ff 	movl   $0xffffffff,-0x17d4(%rbp)
   105c0:	ff ff ff 
   105c3:	c7 85 6c e8 ff ff 77 	movl   $0x2e1aa177,-0x1794(%rbp)
   105ca:	a1 1a 2e 
   105cd:	c7 85 70 e8 ff ff f5 	movl   $0xafb550f5,-0x1790(%rbp)
   105d4:	50 b5 af 
   105d7:	c7 85 74 e8 ff ff 04 	movl   $0xe789004,-0x178c(%rbp)
   105de:	90 78 0e 
   105e1:	48 8d 85 20 ec ff ff 	lea    -0x13e0(%rbp),%rax
   105e8:	48 8d 15 f1 51 00 00 	lea    0x51f1(%rip),%rdx        # 157e0 <g_2258+0x778>
   105ef:	b9 1e 00 00 00       	mov    $0x1e,%ecx
   105f4:	48 89 c7             	mov    %rax,%rdi
   105f7:	48 89 d6             	mov    %rdx,%rsi
   105fa:	f3 48 a5             	rep movsq %ds:(%rsi),%es:(%rdi)
   105fd:	48 89 f2             	mov    %rsi,%rdx
   10600:	48 89 f8             	mov    %rdi,%rax
   10603:	8b 0a                	mov    (%rdx),%ecx
   10605:	89 08                	mov    %ecx,(%rax)
   10607:	48 8d 40 04          	lea    0x4(%rax),%rax
   1060b:	48 8d 52 04          	lea    0x4(%rdx),%rdx
   1060f:	0f b6 0a             	movzbl (%rdx),%ecx
   10612:	88 08                	mov    %cl,(%rax)
   10614:	48 8d 85 90 ee ff ff 	lea    -0x1170(%rbp),%rax
   1061b:	48 8d 15 be 52 00 00 	lea    0x52be(%rip),%rdx        # 158e0 <g_2258+0x878>
   10622:	b9 36 00 00 00       	mov    $0x36,%ecx
   10627:	48 89 c7             	mov    %rax,%rdi
   1062a:	48 89 d6             	mov    %rdx,%rsi
   1062d:	f3 48 a5             	rep movsq %ds:(%rsi),%es:(%rdi)
   10630:	c7 85 30 e8 ff ff 00 	movl   $0x0,-0x17d0(%rbp)
   10637:	00 00 00 
   1063a:	eb 1e                	jmp    1065a <func_26+0x2c9>
   1063c:	8b 85 30 e8 ff ff    	mov    -0x17d0(%rbp),%eax
   10642:	48 98                	cltq   
   10644:	48 8d 15 f5 af 00 00 	lea    0xaff5(%rip),%rdx        # 1b640 <g_144>
   1064b:	48 89 94 c5 60 ea ff 	mov    %rdx,-0x15a0(%rbp,%rax,8)
   10652:	ff 
   10653:	83 85 30 e8 ff ff 01 	addl   $0x1,-0x17d0(%rbp)
   1065a:	83 bd 30 e8 ff ff 03 	cmpl   $0x3,-0x17d0(%rbp)
   10661:	7e d9                	jle    1063c <func_26+0x2ab>
   10663:	0f b6 85 fc e7 ff ff 	movzbl -0x1804(%rbp),%eax
   1066a:	0f b6 d0             	movzbl %al,%edx
   1066d:	8b 85 28 e8 ff ff    	mov    -0x17d8(%rbp),%eax
   10673:	89 c1                	mov    %eax,%ecx
   10675:	48 8b 85 50 e9 ff ff 	mov    -0x16b0(%rbp),%rax
   1067c:	88 08                	mov    %cl,(%rax)
   1067e:	48 8b 85 50 e9 ff ff 	mov    -0x16b0(%rbp),%rax
   10685:	0f b6 00             	movzbl (%rax),%eax
   10688:	0f be c8             	movsbl %al,%ecx
   1068b:	0f b6 85 fc e7 ff ff 	movzbl -0x1804(%rbp),%eax
   10692:	0f b6 c0             	movzbl %al,%eax
   10695:	31 c1                	xor    %eax,%ecx
   10697:	48 8b 85 f0 eb ff ff 	mov    -0x1410(%rbp),%rax
   1069e:	48 85 c0             	test   %rax,%rax
   106a1:	0f 95 c0             	setne  %al
   106a4:	0f b6 c0             	movzbl %al,%eax
   106a7:	39 c1                	cmp    %eax,%ecx
   106a9:	0f 9e c0             	setle  %al
   106ac:	0f b6 c0             	movzbl %al,%eax
   106af:	48 89 d6             	mov    %rdx,%rsi
   106b2:	48 89 c7             	mov    %rax,%rdi
   106b5:	e8 91 99 ff ff       	callq  a04b <safe_sub_func_uint64_t_u_u>
   106ba:	48 89 c3             	mov    %rax,%rbx
   106bd:	0f b6 85 fc e7 ff ff 	movzbl -0x1804(%rbp),%eax
   106c4:	0f b6 c0             	movzbl %al,%eax
   106c7:	48 89 c7             	mov    %rax,%rdi
   106ca:	e8 47 91 ff ff       	callq  9816 <safe_unary_minus_func_int64_t_s>
   106cf:	8b 05 93 c9 00 00    	mov    0xc993(%rip),%eax        # 1d068 <g_125>
   106d5:	0f b7 c0             	movzwl %ax,%eax
   106d8:	89 c6                	mov    %eax,%esi
   106da:	bf 00 00 00 00       	mov    $0x0,%edi
   106df:	e8 59 96 ff ff       	callq  9d3d <safe_mul_func_uint16_t_u_u>
   106e4:	0f be c0             	movsbl %al,%eax
   106e7:	be 77 ff ff ff       	mov    $0xffffff77,%esi
   106ec:	89 c7                	mov    %eax,%edi
   106ee:	e8 ae 8b ff ff       	callq  92a1 <safe_lshift_func_int8_t_s_s>
   106f3:	48 0f be c0          	movsbq %al,%rax
   106f7:	48 89 de             	mov    %rbx,%rsi
   106fa:	48 89 c7             	mov    %rax,%rdi
   106fd:	e8 a6 91 ff ff       	callq  98a8 <safe_sub_func_int64_t_s_s>
   10702:	48 8b 05 6f c9 00 00 	mov    0xc96f(%rip),%rax        # 1d078 <g_158>
   10709:	48 89 05 68 c9 00 00 	mov    %rax,0xc968(%rip)        # 1d078 <g_158>
   10710:	48 8b 05 61 c9 00 00 	mov    0xc961(%rip),%rax        # 1d078 <g_158>
   10717:	48 85 c0             	test   %rax,%rax
   1071a:	0f 95 c0             	setne  %al
   1071d:	0f b6 d0             	movzbl %al,%edx
   10720:	48 8b 85 e8 e7 ff ff 	mov    -0x1818(%rbp),%rax
   10727:	8b 00                	mov    (%rax),%eax
   10729:	31 c2                	xor    %eax,%edx
   1072b:	48 8b 85 e8 e7 ff ff 	mov    -0x1818(%rbp),%rax
   10732:	89 10                	mov    %edx,(%rax)
   10734:	48 8b 85 e8 e7 ff ff 	mov    -0x1818(%rbp),%rax
   1073b:	8b 00                	mov    (%rax),%eax
   1073d:	85 c0                	test   %eax,%eax
   1073f:	0f 84 b2 14 00 00    	je     11bf7 <func_26+0x1866>
   10745:	48 8d 85 28 e8 ff ff 	lea    -0x17d8(%rbp),%rax
   1074c:	48 89 85 20 ed ff ff 	mov    %rax,-0x12e0(%rbp)
   10753:	48 8d 05 d6 88 00 00 	lea    0x88d6(%rip),%rax        # 19030 <g_43>
   1075a:	48 89 85 28 ed ff ff 	mov    %rax,-0x12d8(%rbp)
   10761:	48 8d 85 28 e8 ff ff 	lea    -0x17d8(%rbp),%rax
   10768:	48 89 85 30 ed ff ff 	mov    %rax,-0x12d0(%rbp)
   1076f:	48 8d 05 ba 88 00 00 	lea    0x88ba(%rip),%rax        # 19030 <g_43>
   10776:	48 89 85 38 ed ff ff 	mov    %rax,-0x12c8(%rbp)
   1077d:	48 8d 85 28 e8 ff ff 	lea    -0x17d8(%rbp),%rax
   10784:	48 89 85 40 ed ff ff 	mov    %rax,-0x12c0(%rbp)
   1078b:	48 8d 85 28 e8 ff ff 	lea    -0x17d8(%rbp),%rax
   10792:	48 89 85 48 ed ff ff 	mov    %rax,-0x12b8(%rbp)
   10799:	48 8d 05 90 88 00 00 	lea    0x8890(%rip),%rax        # 19030 <g_43>
   107a0:	48 89 85 50 ed ff ff 	mov    %rax,-0x12b0(%rbp)
   107a7:	48 8d 85 28 e8 ff ff 	lea    -0x17d8(%rbp),%rax
   107ae:	48 89 85 58 ed ff ff 	mov    %rax,-0x12a8(%rbp)
   107b5:	48 8d 05 74 88 00 00 	lea    0x8874(%rip),%rax        # 19030 <g_43>
   107bc:	48 89 85 60 ed ff ff 	mov    %rax,-0x12a0(%rbp)
   107c3:	48 8d 05 66 88 00 00 	lea    0x8866(%rip),%rax        # 19030 <g_43>
   107ca:	48 89 85 68 ed ff ff 	mov    %rax,-0x1298(%rbp)
   107d1:	48 8d 05 50 88 00 00 	lea    0x8850(%rip),%rax        # 19028 <g_33>
   107d8:	48 89 85 70 ed ff ff 	mov    %rax,-0x1290(%rbp)
   107df:	48 8d 85 28 e8 ff ff 	lea    -0x17d8(%rbp),%rax
   107e6:	48 89 85 78 ed ff ff 	mov    %rax,-0x1288(%rbp)
   107ed:	48 8d 85 28 e8 ff ff 	lea    -0x17d8(%rbp),%rax
   107f4:	48 89 85 80 ed ff ff 	mov    %rax,-0x1280(%rbp)
   107fb:	48 8d 05 26 88 00 00 	lea    0x8826(%rip),%rax        # 19028 <g_33>
   10802:	48 89 85 88 ed ff ff 	mov    %rax,-0x1278(%rbp)
   10809:	48 8d 05 20 88 00 00 	lea    0x8820(%rip),%rax        # 19030 <g_43>
   10810:	48 89 85 90 ed ff ff 	mov    %rax,-0x1270(%rbp)
   10817:	48 8d 05 0a 88 00 00 	lea    0x880a(%rip),%rax        # 19028 <g_33>
   1081e:	48 89 85 98 ed ff ff 	mov    %rax,-0x1268(%rbp)
   10825:	48 8d 85 28 e8 ff ff 	lea    -0x17d8(%rbp),%rax
   1082c:	48 89 85 a0 ed ff ff 	mov    %rax,-0x1260(%rbp)
   10833:	48 8d 85 28 e8 ff ff 	lea    -0x17d8(%rbp),%rax
   1083a:	48 89 85 a8 ed ff ff 	mov    %rax,-0x1258(%rbp)
   10841:	48 8d 85 28 e8 ff ff 	lea    -0x17d8(%rbp),%rax
   10848:	48 89 85 b0 ed ff ff 	mov    %rax,-0x1250(%rbp)
   1084f:	48 8d 85 28 e8 ff ff 	lea    -0x17d8(%rbp),%rax
   10856:	48 89 85 b8 ed ff ff 	mov    %rax,-0x1248(%rbp)
   1085d:	48 8d 05 cc 87 00 00 	lea    0x87cc(%rip),%rax        # 19030 <g_43>
   10864:	48 89 85 c0 ed ff ff 	mov    %rax,-0x1240(%rbp)
   1086b:	48 8d 85 28 e8 ff ff 	lea    -0x17d8(%rbp),%rax
   10872:	48 89 85 c8 ed ff ff 	mov    %rax,-0x1238(%rbp)
   10879:	48 8d 05 b0 87 00 00 	lea    0x87b0(%rip),%rax        # 19030 <g_43>
   10880:	48 89 85 d0 ed ff ff 	mov    %rax,-0x1230(%rbp)
   10887:	48 8d 85 28 e8 ff ff 	lea    -0x17d8(%rbp),%rax
   1088e:	48 89 85 d8 ed ff ff 	mov    %rax,-0x1228(%rbp)
   10895:	48 8d 85 28 e8 ff ff 	lea    -0x17d8(%rbp),%rax
   1089c:	48 89 85 e0 ed ff ff 	mov    %rax,-0x1220(%rbp)
   108a3:	48 8d 05 86 87 00 00 	lea    0x8786(%rip),%rax        # 19030 <g_43>
   108aa:	48 89 85 e8 ed ff ff 	mov    %rax,-0x1218(%rbp)
   108b1:	48 8d 85 28 e8 ff ff 	lea    -0x17d8(%rbp),%rax
   108b8:	48 89 85 f0 ed ff ff 	mov    %rax,-0x1210(%rbp)
   108bf:	48 8d 05 6a 87 00 00 	lea    0x876a(%rip),%rax        # 19030 <g_43>
   108c6:	48 89 85 f8 ed ff ff 	mov    %rax,-0x1208(%rbp)
   108cd:	48 8d 05 54 87 00 00 	lea    0x8754(%rip),%rax        # 19028 <g_33>
   108d4:	48 89 85 00 ee ff ff 	mov    %rax,-0x1200(%rbp)
   108db:	48 8d 05 4e 87 00 00 	lea    0x874e(%rip),%rax        # 19030 <g_43>
   108e2:	48 89 85 08 ee ff ff 	mov    %rax,-0x11f8(%rbp)
   108e9:	48 8d 05 40 87 00 00 	lea    0x8740(%rip),%rax        # 19030 <g_43>
   108f0:	48 89 85 10 ee ff ff 	mov    %rax,-0x11f0(%rbp)
   108f7:	48 8d 05 32 87 00 00 	lea    0x8732(%rip),%rax        # 19030 <g_43>
   108fe:	48 89 85 18 ee ff ff 	mov    %rax,-0x11e8(%rbp)
   10905:	48 8d 05 24 87 00 00 	lea    0x8724(%rip),%rax        # 19030 <g_43>
   1090c:	48 89 85 20 ee ff ff 	mov    %rax,-0x11e0(%rbp)
   10913:	48 8d 05 0e 87 00 00 	lea    0x870e(%rip),%rax        # 19028 <g_33>
   1091a:	48 89 85 28 ee ff ff 	mov    %rax,-0x11d8(%rbp)
   10921:	48 8d 05 08 87 00 00 	lea    0x8708(%rip),%rax        # 19030 <g_43>
   10928:	48 89 85 30 ee ff ff 	mov    %rax,-0x11d0(%rbp)
   1092f:	48 8d 05 fa 86 00 00 	lea    0x86fa(%rip),%rax        # 19030 <g_43>
   10936:	48 89 85 38 ee ff ff 	mov    %rax,-0x11c8(%rbp)
   1093d:	48 8d 05 ec 86 00 00 	lea    0x86ec(%rip),%rax        # 19030 <g_43>
   10944:	48 89 85 40 ee ff ff 	mov    %rax,-0x11c0(%rbp)
   1094b:	48 8d 05 de 86 00 00 	lea    0x86de(%rip),%rax        # 19030 <g_43>
   10952:	48 89 85 48 ee ff ff 	mov    %rax,-0x11b8(%rbp)
   10959:	48 8d 05 d0 86 00 00 	lea    0x86d0(%rip),%rax        # 19030 <g_43>
   10960:	48 89 85 50 ee ff ff 	mov    %rax,-0x11b0(%rbp)
   10967:	48 8d 05 c2 86 00 00 	lea    0x86c2(%rip),%rax        # 19030 <g_43>
   1096e:	48 89 85 58 ee ff ff 	mov    %rax,-0x11a8(%rbp)
   10975:	48 8d 05 ac 86 00 00 	lea    0x86ac(%rip),%rax        # 19028 <g_33>
   1097c:	48 89 85 60 ee ff ff 	mov    %rax,-0x11a0(%rbp)
   10983:	48 8d 05 a6 86 00 00 	lea    0x86a6(%rip),%rax        # 19030 <g_43>
   1098a:	48 89 85 68 ee ff ff 	mov    %rax,-0x1198(%rbp)
   10991:	48 8d 05 98 86 00 00 	lea    0x8698(%rip),%rax        # 19030 <g_43>
   10998:	48 89 85 70 ee ff ff 	mov    %rax,-0x1190(%rbp)
   1099f:	48 8d 05 8a 86 00 00 	lea    0x868a(%rip),%rax        # 19030 <g_43>
   109a6:	48 89 85 78 ee ff ff 	mov    %rax,-0x1188(%rbp)
   109ad:	48 8d 05 7c 86 00 00 	lea    0x867c(%rip),%rax        # 19030 <g_43>
   109b4:	48 89 85 80 ee ff ff 	mov    %rax,-0x1180(%rbp)
   109bb:	48 8d 05 f6 86 00 00 	lea    0x86f6(%rip),%rax        # 190b8 <g_122>
   109c2:	48 89 85 30 e9 ff ff 	mov    %rax,-0x16d0(%rbp)
   109c9:	48 8d 85 30 e9 ff ff 	lea    -0x16d0(%rbp),%rax
   109d0:	48 89 85 80 ea ff ff 	mov    %rax,-0x1580(%rbp)
   109d7:	48 8d 85 30 e9 ff ff 	lea    -0x16d0(%rbp),%rax
   109de:	48 89 85 88 ea ff ff 	mov    %rax,-0x1578(%rbp)
   109e5:	48 8d 85 30 e9 ff ff 	lea    -0x16d0(%rbp),%rax
   109ec:	48 89 85 90 ea ff ff 	mov    %rax,-0x1570(%rbp)
   109f3:	48 8d 85 30 e9 ff ff 	lea    -0x16d0(%rbp),%rax
   109fa:	48 89 85 98 ea ff ff 	mov    %rax,-0x1568(%rbp)
   10a01:	48 8d 05 7e 86 00 00 	lea    0x867e(%rip),%rax        # 19086 <g_75+0x6>
   10a08:	48 89 85 18 ea ff ff 	mov    %rax,-0x15e8(%rbp)
   10a0f:	c7 85 04 e9 ff ff 01 	movl   $0x1,-0x16fc(%rbp)
   10a16:	00 00 00 
   10a19:	66 c7 85 26 e8 ff ff 	movw   $0xfff9,-0x17da(%rbp)
   10a20:	f9 ff 
   10a22:	48 8d 05 9f 86 00 00 	lea    0x869f(%rip),%rax        # 190c8 <g_147>
   10a29:	48 89 85 38 e9 ff ff 	mov    %rax,-0x16c8(%rbp)
   10a30:	c7 85 08 e9 ff ff 01 	movl   $0x1,-0x16f8(%rbp)
   10a37:	00 00 00 
   10a3a:	48 8d 85 a0 ea ff ff 	lea    -0x1560(%rbp),%rax
   10a41:	48 89 85 20 ea ff ff 	mov    %rax,-0x15e0(%rbp)
   10a48:	c7 85 34 e8 ff ff 00 	movl   $0x0,-0x17cc(%rbp)
   10a4f:	00 00 00 
   10a52:	eb 1e                	jmp    10a72 <func_26+0x6e1>
   10a54:	8b 85 34 e8 ff ff    	mov    -0x17cc(%rbp),%eax
   10a5a:	48 98                	cltq   
   10a5c:	48 8d 95 38 e9 ff ff 	lea    -0x16c8(%rbp),%rdx
   10a63:	48 89 94 c5 d0 ea ff 	mov    %rdx,-0x1530(%rbp,%rax,8)
   10a6a:	ff 
   10a6b:	83 85 34 e8 ff ff 01 	addl   $0x1,-0x17cc(%rbp)
   10a72:	83 bd 34 e8 ff ff 06 	cmpl   $0x6,-0x17cc(%rbp)
   10a79:	7e d9                	jle    10a54 <func_26+0x6c3>
   10a7b:	c7 85 34 e8 ff ff 00 	movl   $0x0,-0x17cc(%rbp)
   10a82:	00 00 00 
   10a85:	eb 50                	jmp    10ad7 <func_26+0x746>
   10a87:	c7 85 38 e8 ff ff 00 	movl   $0x0,-0x17c8(%rbp)
   10a8e:	00 00 00 
   10a91:	eb 34                	jmp    10ac7 <func_26+0x736>
   10a93:	8b 85 38 e8 ff ff    	mov    -0x17c8(%rbp),%eax
   10a99:	48 63 c8             	movslq %eax,%rcx
   10a9c:	8b 85 34 e8 ff ff    	mov    -0x17cc(%rbp),%eax
   10aa2:	48 63 d0             	movslq %eax,%rdx
   10aa5:	48 89 d0             	mov    %rdx,%rax
   10aa8:	48 01 c0             	add    %rax,%rax
   10aab:	48 01 d0             	add    %rdx,%rax
   10aae:	48 01 c8             	add    %rcx,%rax
   10ab1:	48 8d 15 3e 86 00 00 	lea    0x863e(%rip),%rdx        # 190f6 <g_285+0x6>
   10ab8:	48 89 94 c5 a0 ea ff 	mov    %rdx,-0x1560(%rbp,%rax,8)
   10abf:	ff 
   10ac0:	83 85 38 e8 ff ff 01 	addl   $0x1,-0x17c8(%rbp)
   10ac7:	83 bd 38 e8 ff ff 02 	cmpl   $0x2,-0x17c8(%rbp)
   10ace:	7e c3                	jle    10a93 <func_26+0x702>
   10ad0:	83 85 34 e8 ff ff 01 	addl   $0x1,-0x17cc(%rbp)
   10ad7:	83 bd 34 e8 ff ff 01 	cmpl   $0x1,-0x17cc(%rbp)
   10ade:	7e a7                	jle    10a87 <func_26+0x6f6>
   10ae0:	48 8b 85 f0 e7 ff ff 	mov    -0x1810(%rbp),%rax
   10ae7:	48 89 85 b8 ed ff ff 	mov    %rax,-0x1248(%rbp)
   10aee:	c6 05 43 85 00 00 fa 	movb   $0xfa,0x8543(%rip)        # 19038 <g_66>
   10af5:	e9 7d 0f 00 00       	jmpq   11a77 <func_26+0x16e6>
   10afa:	48 8d 05 57 45 00 00 	lea    0x4557(%rip),%rax        # 15058 <g_193>
   10b01:	48 89 85 40 e9 ff ff 	mov    %rax,-0x16c0(%rbp)
   10b08:	48 8d 85 40 e9 ff ff 	lea    -0x16c0(%rbp),%rax
   10b0f:	48 89 85 40 f0 ff ff 	mov    %rax,-0xfc0(%rbp)
   10b16:	48 c7 85 48 f0 ff ff 	movq   $0x0,-0xfb8(%rbp)
   10b1d:	00 00 00 00 
   10b21:	48 8d 85 40 e9 ff ff 	lea    -0x16c0(%rbp),%rax
   10b28:	48 89 85 50 f0 ff ff 	mov    %rax,-0xfb0(%rbp)
   10b2f:	48 c7 85 58 f0 ff ff 	movq   $0x0,-0xfa8(%rbp)
   10b36:	00 00 00 00 
   10b3a:	48 8d 85 40 e9 ff ff 	lea    -0x16c0(%rbp),%rax
   10b41:	48 89 85 60 f0 ff ff 	mov    %rax,-0xfa0(%rbp)
   10b48:	48 8d 85 40 e9 ff ff 	lea    -0x16c0(%rbp),%rax
   10b4f:	48 89 85 68 f0 ff ff 	mov    %rax,-0xf98(%rbp)
   10b56:	48 8d 85 40 e9 ff ff 	lea    -0x16c0(%rbp),%rax
   10b5d:	48 89 85 70 f0 ff ff 	mov    %rax,-0xf90(%rbp)
   10b64:	48 8d 85 40 e9 ff ff 	lea    -0x16c0(%rbp),%rax
   10b6b:	48 89 85 78 f0 ff ff 	mov    %rax,-0xf88(%rbp)
   10b72:	48 c7 85 80 f0 ff ff 	movq   $0x0,-0xf80(%rbp)
   10b79:	00 00 00 00 
   10b7d:	48 8d 85 40 e9 ff ff 	lea    -0x16c0(%rbp),%rax
   10b84:	48 89 85 88 f0 ff ff 	mov    %rax,-0xf78(%rbp)
   10b8b:	48 8d 85 40 e9 ff ff 	lea    -0x16c0(%rbp),%rax
   10b92:	48 89 85 90 f0 ff ff 	mov    %rax,-0xf70(%rbp)
   10b99:	48 c7 85 98 f0 ff ff 	movq   $0x0,-0xf68(%rbp)
   10ba0:	00 00 00 00 
   10ba4:	48 8d 85 40 e9 ff ff 	lea    -0x16c0(%rbp),%rax
   10bab:	48 89 85 a0 f0 ff ff 	mov    %rax,-0xf60(%rbp)
   10bb2:	48 8d 85 40 e9 ff ff 	lea    -0x16c0(%rbp),%rax
   10bb9:	48 89 85 a8 f0 ff ff 	mov    %rax,-0xf58(%rbp)
   10bc0:	48 8d 85 40 e9 ff ff 	lea    -0x16c0(%rbp),%rax
   10bc7:	48 89 85 b0 f0 ff ff 	mov    %rax,-0xf50(%rbp)
   10bce:	48 c7 85 b8 f0 ff ff 	movq   $0x0,-0xf48(%rbp)
   10bd5:	00 00 00 00 
   10bd9:	48 8d 85 40 e9 ff ff 	lea    -0x16c0(%rbp),%rax
   10be0:	48 89 85 c0 f0 ff ff 	mov    %rax,-0xf40(%rbp)
   10be7:	48 8d 85 40 e9 ff ff 	lea    -0x16c0(%rbp),%rax
   10bee:	48 89 85 c8 f0 ff ff 	mov    %rax,-0xf38(%rbp)
   10bf5:	48 8d 85 40 e9 ff ff 	lea    -0x16c0(%rbp),%rax
   10bfc:	48 89 85 d0 f0 ff ff 	mov    %rax,-0xf30(%rbp)
   10c03:	48 8d 85 40 e9 ff ff 	lea    -0x16c0(%rbp),%rax
   10c0a:	48 89 85 d8 f0 ff ff 	mov    %rax,-0xf28(%rbp)
   10c11:	48 8d 85 40 e9 ff ff 	lea    -0x16c0(%rbp),%rax
   10c18:	48 89 85 e0 f0 ff ff 	mov    %rax,-0xf20(%rbp)
   10c1f:	48 8d 85 40 e9 ff ff 	lea    -0x16c0(%rbp),%rax
   10c26:	48 89 85 e8 f0 ff ff 	mov    %rax,-0xf18(%rbp)
   10c2d:	48 c7 85 f0 f0 ff ff 	movq   $0x0,-0xf10(%rbp)
   10c34:	00 00 00 00 
   10c38:	48 8d 85 40 e9 ff ff 	lea    -0x16c0(%rbp),%rax
   10c3f:	48 89 85 f8 f0 ff ff 	mov    %rax,-0xf08(%rbp)
   10c46:	48 8d 85 40 e9 ff ff 	lea    -0x16c0(%rbp),%rax
   10c4d:	48 89 85 00 f1 ff ff 	mov    %rax,-0xf00(%rbp)
   10c54:	48 8d 85 40 e9 ff ff 	lea    -0x16c0(%rbp),%rax
   10c5b:	48 89 85 08 f1 ff ff 	mov    %rax,-0xef8(%rbp)
   10c62:	48 8d 85 40 e9 ff ff 	lea    -0x16c0(%rbp),%rax
   10c69:	48 89 85 10 f1 ff ff 	mov    %rax,-0xef0(%rbp)
   10c70:	48 c7 85 18 f1 ff ff 	movq   $0x0,-0xee8(%rbp)
   10c77:	00 00 00 00 
   10c7b:	48 c7 85 20 f1 ff ff 	movq   $0x0,-0xee0(%rbp)
   10c82:	00 00 00 00 
   10c86:	48 c7 85 28 f1 ff ff 	movq   $0x0,-0xed8(%rbp)
   10c8d:	00 00 00 00 
   10c91:	48 c7 85 30 f1 ff ff 	movq   $0x0,-0xed0(%rbp)
   10c98:	00 00 00 00 
   10c9c:	48 c7 85 38 f1 ff ff 	movq   $0x0,-0xec8(%rbp)
   10ca3:	00 00 00 00 
   10ca7:	48 c7 85 40 f1 ff ff 	movq   $0x0,-0xec0(%rbp)
   10cae:	00 00 00 00 
   10cb2:	48 c7 85 48 f1 ff ff 	movq   $0x0,-0xeb8(%rbp)
   10cb9:	00 00 00 00 
   10cbd:	48 c7 85 50 f1 ff ff 	movq   $0x0,-0xeb0(%rbp)
   10cc4:	00 00 00 00 
   10cc8:	48 8d 85 40 e9 ff ff 	lea    -0x16c0(%rbp),%rax
   10ccf:	48 89 85 58 f1 ff ff 	mov    %rax,-0xea8(%rbp)
   10cd6:	48 8d 85 40 e9 ff ff 	lea    -0x16c0(%rbp),%rax
   10cdd:	48 89 85 60 f1 ff ff 	mov    %rax,-0xea0(%rbp)
   10ce4:	48 8d 85 40 e9 ff ff 	lea    -0x16c0(%rbp),%rax
   10ceb:	48 89 85 68 f1 ff ff 	mov    %rax,-0xe98(%rbp)
   10cf2:	48 8d 85 40 e9 ff ff 	lea    -0x16c0(%rbp),%rax
   10cf9:	48 89 85 70 f1 ff ff 	mov    %rax,-0xe90(%rbp)
   10d00:	48 c7 85 78 f1 ff ff 	movq   $0x0,-0xe88(%rbp)
   10d07:	00 00 00 00 
   10d0b:	48 c7 85 80 f1 ff ff 	movq   $0x0,-0xe80(%rbp)
   10d12:	00 00 00 00 
   10d16:	48 8d 85 40 e9 ff ff 	lea    -0x16c0(%rbp),%rax
   10d1d:	48 89 85 88 f1 ff ff 	mov    %rax,-0xe78(%rbp)
   10d24:	48 8d 85 40 e9 ff ff 	lea    -0x16c0(%rbp),%rax
   10d2b:	48 89 85 90 f1 ff ff 	mov    %rax,-0xe70(%rbp)
   10d32:	48 8d 85 40 e9 ff ff 	lea    -0x16c0(%rbp),%rax
   10d39:	48 89 85 98 f1 ff ff 	mov    %rax,-0xe68(%rbp)
   10d40:	48 8d 85 40 e9 ff ff 	lea    -0x16c0(%rbp),%rax
   10d47:	48 89 85 a0 f1 ff ff 	mov    %rax,-0xe60(%rbp)
   10d4e:	48 c7 85 a8 f1 ff ff 	movq   $0x0,-0xe58(%rbp)
   10d55:	00 00 00 00 
   10d59:	48 8d 85 40 e9 ff ff 	lea    -0x16c0(%rbp),%rax
   10d60:	48 89 85 b0 f1 ff ff 	mov    %rax,-0xe50(%rbp)
   10d67:	48 c7 85 b8 f1 ff ff 	movq   $0x0,-0xe48(%rbp)
   10d6e:	00 00 00 00 
   10d72:	48 8d 85 40 e9 ff ff 	lea    -0x16c0(%rbp),%rax
   10d79:	48 89 85 c0 f1 ff ff 	mov    %rax,-0xe40(%rbp)
   10d80:	48 8d 85 40 e9 ff ff 	lea    -0x16c0(%rbp),%rax
   10d87:	48 89 85 c8 f1 ff ff 	mov    %rax,-0xe38(%rbp)
   10d8e:	48 8d 85 40 e9 ff ff 	lea    -0x16c0(%rbp),%rax
   10d95:	48 89 85 d0 f1 ff ff 	mov    %rax,-0xe30(%rbp)
   10d9c:	48 c7 85 d8 f1 ff ff 	movq   $0x0,-0xe28(%rbp)
   10da3:	00 00 00 00 
   10da7:	48 8d 85 40 e9 ff ff 	lea    -0x16c0(%rbp),%rax
   10dae:	48 89 85 e0 f1 ff ff 	mov    %rax,-0xe20(%rbp)
   10db5:	48 8d 85 40 e9 ff ff 	lea    -0x16c0(%rbp),%rax
   10dbc:	48 89 85 e8 f1 ff ff 	mov    %rax,-0xe18(%rbp)
   10dc3:	48 c7 85 f0 f1 ff ff 	movq   $0x0,-0xe10(%rbp)
   10dca:	00 00 00 00 
   10dce:	48 8d 85 40 e9 ff ff 	lea    -0x16c0(%rbp),%rax
   10dd5:	48 89 85 f8 f1 ff ff 	mov    %rax,-0xe08(%rbp)
   10ddc:	48 8d 85 40 e9 ff ff 	lea    -0x16c0(%rbp),%rax
   10de3:	48 89 85 00 f2 ff ff 	mov    %rax,-0xe00(%rbp)
   10dea:	48 c7 85 08 f2 ff ff 	movq   $0x0,-0xdf8(%rbp)
   10df1:	00 00 00 00 
   10df5:	48 8d 85 40 e9 ff ff 	lea    -0x16c0(%rbp),%rax
   10dfc:	48 89 85 10 f2 ff ff 	mov    %rax,-0xdf0(%rbp)
   10e03:	48 c7 85 18 f2 ff ff 	movq   $0x0,-0xde8(%rbp)
   10e0a:	00 00 00 00 
   10e0e:	48 c7 85 28 ea ff ff 	movq   $0x0,-0x15d8(%rbp)
   10e15:	00 00 00 00 
   10e19:	c7 85 0c e9 ff ff ff 	movl   $0xffffffff,-0x16f4(%rbp)
   10e20:	ff ff ff 
   10e23:	48 8d 05 a6 82 00 00 	lea    0x82a6(%rip),%rax        # 190d0 <g_206>
   10e2a:	48 89 85 30 ea ff ff 	mov    %rax,-0x15d0(%rbp)
   10e31:	48 8d 05 78 af 00 00 	lea    0xaf78(%rip),%rax        # 1bdb0 <g_209>
   10e38:	48 89 85 38 ea ff ff 	mov    %rax,-0x15c8(%rbp)
   10e3f:	48 8d 05 2a c2 00 00 	lea    0xc22a(%rip),%rax        # 1d070 <g_156>
   10e46:	48 89 85 40 ea ff ff 	mov    %rax,-0x15c0(%rbp)
   10e4d:	48 8d 05 1c c2 00 00 	lea    0xc21c(%rip),%rax        # 1d070 <g_156>
   10e54:	48 89 85 10 eb ff ff 	mov    %rax,-0x14f0(%rbp)
   10e5b:	48 8d 05 0e c2 00 00 	lea    0xc20e(%rip),%rax        # 1d070 <g_156>
   10e62:	48 89 85 18 eb ff ff 	mov    %rax,-0x14e8(%rbp)
   10e69:	48 8d 05 00 c2 00 00 	lea    0xc200(%rip),%rax        # 1d070 <g_156>
   10e70:	48 89 85 20 eb ff ff 	mov    %rax,-0x14e0(%rbp)
   10e77:	48 8d 05 f2 c1 00 00 	lea    0xc1f2(%rip),%rax        # 1d070 <g_156>
   10e7e:	48 89 85 28 eb ff ff 	mov    %rax,-0x14d8(%rbp)
   10e85:	48 8d 05 e4 c1 00 00 	lea    0xc1e4(%rip),%rax        # 1d070 <g_156>
   10e8c:	48 89 85 30 eb ff ff 	mov    %rax,-0x14d0(%rbp)
   10e93:	48 8d 05 d6 c1 00 00 	lea    0xc1d6(%rip),%rax        # 1d070 <g_156>
   10e9a:	48 89 85 38 eb ff ff 	mov    %rax,-0x14c8(%rbp)
   10ea1:	48 8d 05 c8 c1 00 00 	lea    0xc1c8(%rip),%rax        # 1d070 <g_156>
   10ea8:	48 89 85 40 eb ff ff 	mov    %rax,-0x14c0(%rbp)
   10eaf:	48 8d 05 ba c1 00 00 	lea    0xc1ba(%rip),%rax        # 1d070 <g_156>
   10eb6:	48 89 85 48 eb ff ff 	mov    %rax,-0x14b8(%rbp)
   10ebd:	c7 85 10 e9 ff ff ff 	movl   $0xffffffff,-0x16f0(%rbp)
   10ec4:	ff ff ff 
   10ec7:	48 8d 05 12 82 00 00 	lea    0x8212(%rip),%rax        # 190e0 <g_238>
   10ece:	48 89 85 48 ea ff ff 	mov    %rax,-0x15b8(%rbp)
   10ed5:	48 8d 85 28 e9 ff ff 	lea    -0x16d8(%rbp),%rax
   10edc:	48 89 85 c0 f8 ff ff 	mov    %rax,-0x740(%rbp)
   10ee3:	48 c7 85 c8 f8 ff ff 	movq   $0x0,-0x738(%rbp)
   10eea:	00 00 00 00 
   10eee:	48 8d 85 28 e9 ff ff 	lea    -0x16d8(%rbp),%rax
   10ef5:	48 89 85 d0 f8 ff ff 	mov    %rax,-0x730(%rbp)
   10efc:	48 8d 85 28 e9 ff ff 	lea    -0x16d8(%rbp),%rax
   10f03:	48 89 85 d8 f8 ff ff 	mov    %rax,-0x728(%rbp)
   10f0a:	48 8d 85 28 e9 ff ff 	lea    -0x16d8(%rbp),%rax
   10f11:	48 89 85 e0 f8 ff ff 	mov    %rax,-0x720(%rbp)
   10f18:	48 8d 85 28 e9 ff ff 	lea    -0x16d8(%rbp),%rax
   10f1f:	48 89 85 e8 f8 ff ff 	mov    %rax,-0x718(%rbp)
   10f26:	48 8d 85 28 e9 ff ff 	lea    -0x16d8(%rbp),%rax
   10f2d:	48 89 85 f0 f8 ff ff 	mov    %rax,-0x710(%rbp)
   10f34:	48 8d 85 28 e9 ff ff 	lea    -0x16d8(%rbp),%rax
   10f3b:	48 89 85 f8 f8 ff ff 	mov    %rax,-0x708(%rbp)
   10f42:	48 8d 85 28 e9 ff ff 	lea    -0x16d8(%rbp),%rax
   10f49:	48 89 85 00 f9 ff ff 	mov    %rax,-0x700(%rbp)
   10f50:	48 8d 85 28 e9 ff ff 	lea    -0x16d8(%rbp),%rax
   10f57:	48 89 85 08 f9 ff ff 	mov    %rax,-0x6f8(%rbp)
   10f5e:	48 8d 85 28 e9 ff ff 	lea    -0x16d8(%rbp),%rax
   10f65:	48 89 85 10 f9 ff ff 	mov    %rax,-0x6f0(%rbp)
   10f6c:	48 8d 85 28 e9 ff ff 	lea    -0x16d8(%rbp),%rax
   10f73:	48 89 85 18 f9 ff ff 	mov    %rax,-0x6e8(%rbp)
   10f7a:	48 8d 85 28 e9 ff ff 	lea    -0x16d8(%rbp),%rax
   10f81:	48 89 85 20 f9 ff ff 	mov    %rax,-0x6e0(%rbp)
   10f88:	48 8d 85 28 e9 ff ff 	lea    -0x16d8(%rbp),%rax
   10f8f:	48 89 85 28 f9 ff ff 	mov    %rax,-0x6d8(%rbp)
   10f96:	48 8d 85 28 e9 ff ff 	lea    -0x16d8(%rbp),%rax
   10f9d:	48 89 85 30 f9 ff ff 	mov    %rax,-0x6d0(%rbp)
   10fa4:	48 c7 85 38 f9 ff ff 	movq   $0x0,-0x6c8(%rbp)
   10fab:	00 00 00 00 
   10faf:	48 8d 85 28 e9 ff ff 	lea    -0x16d8(%rbp),%rax
   10fb6:	48 89 85 40 f9 ff ff 	mov    %rax,-0x6c0(%rbp)
   10fbd:	48 8d 85 28 e9 ff ff 	lea    -0x16d8(%rbp),%rax
   10fc4:	48 89 85 48 f9 ff ff 	mov    %rax,-0x6b8(%rbp)
   10fcb:	48 8d 85 28 e9 ff ff 	lea    -0x16d8(%rbp),%rax
   10fd2:	48 89 85 50 f9 ff ff 	mov    %rax,-0x6b0(%rbp)
   10fd9:	48 c7 85 58 f9 ff ff 	movq   $0x0,-0x6a8(%rbp)
   10fe0:	00 00 00 00 
   10fe4:	48 8d 85 28 e9 ff ff 	lea    -0x16d8(%rbp),%rax
   10feb:	48 89 85 60 f9 ff ff 	mov    %rax,-0x6a0(%rbp)
   10ff2:	48 8d 85 28 e9 ff ff 	lea    -0x16d8(%rbp),%rax
   10ff9:	48 89 85 68 f9 ff ff 	mov    %rax,-0x698(%rbp)
   11000:	48 8d 85 28 e9 ff ff 	lea    -0x16d8(%rbp),%rax
   11007:	48 89 85 70 f9 ff ff 	mov    %rax,-0x690(%rbp)
   1100e:	48 8d 85 28 e9 ff ff 	lea    -0x16d8(%rbp),%rax
   11015:	48 89 85 78 f9 ff ff 	mov    %rax,-0x688(%rbp)
   1101c:	48 c7 85 80 f9 ff ff 	movq   $0x0,-0x680(%rbp)
   11023:	00 00 00 00 
   11027:	48 8d 85 28 e9 ff ff 	lea    -0x16d8(%rbp),%rax
   1102e:	48 89 85 88 f9 ff ff 	mov    %rax,-0x678(%rbp)
   11035:	48 c7 85 90 f9 ff ff 	movq   $0x0,-0x670(%rbp)
   1103c:	00 00 00 00 
   11040:	48 8d 85 28 e9 ff ff 	lea    -0x16d8(%rbp),%rax
   11047:	48 89 85 98 f9 ff ff 	mov    %rax,-0x668(%rbp)
   1104e:	48 8d 85 28 e9 ff ff 	lea    -0x16d8(%rbp),%rax
   11055:	48 89 85 a0 f9 ff ff 	mov    %rax,-0x660(%rbp)
   1105c:	48 c7 85 a8 f9 ff ff 	movq   $0x0,-0x658(%rbp)
   11063:	00 00 00 00 
   11067:	48 c7 85 b0 f9 ff ff 	movq   $0x0,-0x650(%rbp)
   1106e:	00 00 00 00 
   11072:	48 c7 85 b8 f9 ff ff 	movq   $0x0,-0x648(%rbp)
   11079:	00 00 00 00 
   1107d:	48 8d 85 28 e9 ff ff 	lea    -0x16d8(%rbp),%rax
   11084:	48 89 85 c0 f9 ff ff 	mov    %rax,-0x640(%rbp)
   1108b:	48 8d 85 28 e9 ff ff 	lea    -0x16d8(%rbp),%rax
   11092:	48 89 85 c8 f9 ff ff 	mov    %rax,-0x638(%rbp)
   11099:	48 8d 85 28 e9 ff ff 	lea    -0x16d8(%rbp),%rax
   110a0:	48 89 85 d0 f9 ff ff 	mov    %rax,-0x630(%rbp)
   110a7:	48 8d 85 28 e9 ff ff 	lea    -0x16d8(%rbp),%rax
   110ae:	48 89 85 d8 f9 ff ff 	mov    %rax,-0x628(%rbp)
   110b5:	48 c7 85 e0 f9 ff ff 	movq   $0x0,-0x620(%rbp)
   110bc:	00 00 00 00 
   110c0:	48 8d 85 28 e9 ff ff 	lea    -0x16d8(%rbp),%rax
   110c7:	48 89 85 e8 f9 ff ff 	mov    %rax,-0x618(%rbp)
   110ce:	48 8d 85 28 e9 ff ff 	lea    -0x16d8(%rbp),%rax
   110d5:	48 89 85 f0 f9 ff ff 	mov    %rax,-0x610(%rbp)
   110dc:	48 8d 85 28 e9 ff ff 	lea    -0x16d8(%rbp),%rax
   110e3:	48 89 85 f8 f9 ff ff 	mov    %rax,-0x608(%rbp)
   110ea:	48 8d 85 28 e9 ff ff 	lea    -0x16d8(%rbp),%rax
   110f1:	48 89 85 00 fa ff ff 	mov    %rax,-0x600(%rbp)
   110f8:	48 8d 85 28 e9 ff ff 	lea    -0x16d8(%rbp),%rax
   110ff:	48 89 85 08 fa ff ff 	mov    %rax,-0x5f8(%rbp)
   11106:	48 c7 85 10 fa ff ff 	movq   $0x0,-0x5f0(%rbp)
   1110d:	00 00 00 00 
   11111:	48 8d 85 28 e9 ff ff 	lea    -0x16d8(%rbp),%rax
   11118:	48 89 85 18 fa ff ff 	mov    %rax,-0x5e8(%rbp)
   1111f:	48 8d 85 28 e9 ff ff 	lea    -0x16d8(%rbp),%rax
   11126:	48 89 85 20 fa ff ff 	mov    %rax,-0x5e0(%rbp)
   1112d:	48 8d 85 28 e9 ff ff 	lea    -0x16d8(%rbp),%rax
   11134:	48 89 85 28 fa ff ff 	mov    %rax,-0x5d8(%rbp)
   1113b:	48 c7 85 30 fa ff ff 	movq   $0x0,-0x5d0(%rbp)
   11142:	00 00 00 00 
   11146:	48 8d 85 28 e9 ff ff 	lea    -0x16d8(%rbp),%rax
   1114d:	48 89 85 38 fa ff ff 	mov    %rax,-0x5c8(%rbp)
   11154:	48 c7 85 40 fa ff ff 	movq   $0x0,-0x5c0(%rbp)
   1115b:	00 00 00 00 
   1115f:	48 8d 85 28 e9 ff ff 	lea    -0x16d8(%rbp),%rax
   11166:	48 89 85 48 fa ff ff 	mov    %rax,-0x5b8(%rbp)
   1116d:	48 c7 85 50 fa ff ff 	movq   $0x0,-0x5b0(%rbp)
   11174:	00 00 00 00 
   11178:	48 8d 85 28 e9 ff ff 	lea    -0x16d8(%rbp),%rax
   1117f:	48 89 85 58 fa ff ff 	mov    %rax,-0x5a8(%rbp)
   11186:	48 8d 85 28 e9 ff ff 	lea    -0x16d8(%rbp),%rax
   1118d:	48 89 85 60 fa ff ff 	mov    %rax,-0x5a0(%rbp)
   11194:	48 8d 85 28 e9 ff ff 	lea    -0x16d8(%rbp),%rax
   1119b:	48 89 85 68 fa ff ff 	mov    %rax,-0x598(%rbp)
   111a2:	48 8d 85 28 e9 ff ff 	lea    -0x16d8(%rbp),%rax
   111a9:	48 89 85 70 fa ff ff 	mov    %rax,-0x590(%rbp)
   111b0:	48 8d 85 28 e9 ff ff 	lea    -0x16d8(%rbp),%rax
   111b7:	48 89 85 78 fa ff ff 	mov    %rax,-0x588(%rbp)
   111be:	48 8d 85 28 e9 ff ff 	lea    -0x16d8(%rbp),%rax
   111c5:	48 89 85 80 fa ff ff 	mov    %rax,-0x580(%rbp)
   111cc:	48 c7 85 88 fa ff ff 	movq   $0x0,-0x578(%rbp)
   111d3:	00 00 00 00 
   111d7:	48 c7 85 90 fa ff ff 	movq   $0x0,-0x570(%rbp)
   111de:	00 00 00 00 
   111e2:	48 8d 85 28 e9 ff ff 	lea    -0x16d8(%rbp),%rax
   111e9:	48 89 85 98 fa ff ff 	mov    %rax,-0x568(%rbp)
   111f0:	48 8d 85 28 e9 ff ff 	lea    -0x16d8(%rbp),%rax
   111f7:	48 89 85 a0 fa ff ff 	mov    %rax,-0x560(%rbp)
   111fe:	48 c7 85 a8 fa ff ff 	movq   $0x0,-0x558(%rbp)
   11205:	00 00 00 00 
   11209:	48 8d 85 28 e9 ff ff 	lea    -0x16d8(%rbp),%rax
   11210:	48 89 85 b0 fa ff ff 	mov    %rax,-0x550(%rbp)
   11217:	48 8d 85 28 e9 ff ff 	lea    -0x16d8(%rbp),%rax
   1121e:	48 89 85 b8 fa ff ff 	mov    %rax,-0x548(%rbp)
   11225:	48 8d 85 28 e9 ff ff 	lea    -0x16d8(%rbp),%rax
   1122c:	48 89 85 c0 fa ff ff 	mov    %rax,-0x540(%rbp)
   11233:	48 8d 85 28 e9 ff ff 	lea    -0x16d8(%rbp),%rax
   1123a:	48 89 85 c8 fa ff ff 	mov    %rax,-0x538(%rbp)
   11241:	48 8d 85 28 e9 ff ff 	lea    -0x16d8(%rbp),%rax
   11248:	48 89 85 d0 fa ff ff 	mov    %rax,-0x530(%rbp)
   1124f:	48 c7 85 d8 fa ff ff 	movq   $0x0,-0x528(%rbp)
   11256:	00 00 00 00 
   1125a:	48 8d 85 28 e9 ff ff 	lea    -0x16d8(%rbp),%rax
   11261:	48 89 85 e0 fa ff ff 	mov    %rax,-0x520(%rbp)
   11268:	48 8d 85 28 e9 ff ff 	lea    -0x16d8(%rbp),%rax
   1126f:	48 89 85 e8 fa ff ff 	mov    %rax,-0x518(%rbp)
   11276:	48 8d 85 28 e9 ff ff 	lea    -0x16d8(%rbp),%rax
   1127d:	48 89 85 f0 fa ff ff 	mov    %rax,-0x510(%rbp)
   11284:	48 8d 85 28 e9 ff ff 	lea    -0x16d8(%rbp),%rax
   1128b:	48 89 85 f8 fa ff ff 	mov    %rax,-0x508(%rbp)
   11292:	48 8d 85 28 e9 ff ff 	lea    -0x16d8(%rbp),%rax
   11299:	48 89 85 00 fb ff ff 	mov    %rax,-0x500(%rbp)
   112a0:	48 c7 85 08 fb ff ff 	movq   $0x0,-0x4f8(%rbp)
   112a7:	00 00 00 00 
   112ab:	48 8d 85 28 e9 ff ff 	lea    -0x16d8(%rbp),%rax
   112b2:	48 89 85 10 fb ff ff 	mov    %rax,-0x4f0(%rbp)
   112b9:	48 8d 85 28 e9 ff ff 	lea    -0x16d8(%rbp),%rax
   112c0:	48 89 85 18 fb ff ff 	mov    %rax,-0x4e8(%rbp)
   112c7:	48 c7 85 20 fb ff ff 	movq   $0x0,-0x4e0(%rbp)
   112ce:	00 00 00 00 
   112d2:	48 8d 85 28 e9 ff ff 	lea    -0x16d8(%rbp),%rax
   112d9:	48 89 85 28 fb ff ff 	mov    %rax,-0x4d8(%rbp)
   112e0:	48 8d 85 28 e9 ff ff 	lea    -0x16d8(%rbp),%rax
   112e7:	48 89 85 30 fb ff ff 	mov    %rax,-0x4d0(%rbp)
   112ee:	48 8d 85 28 e9 ff ff 	lea    -0x16d8(%rbp),%rax
   112f5:	48 89 85 38 fb ff ff 	mov    %rax,-0x4c8(%rbp)
   112fc:	48 8d 85 28 e9 ff ff 	lea    -0x16d8(%rbp),%rax
   11303:	48 89 85 40 fb ff ff 	mov    %rax,-0x4c0(%rbp)
   1130a:	48 c7 85 48 fb ff ff 	movq   $0x0,-0x4b8(%rbp)
   11311:	00 00 00 00 
   11315:	48 8d 85 28 e9 ff ff 	lea    -0x16d8(%rbp),%rax
   1131c:	48 89 85 50 fb ff ff 	mov    %rax,-0x4b0(%rbp)
   11323:	48 8d 85 28 e9 ff ff 	lea    -0x16d8(%rbp),%rax
   1132a:	48 89 85 58 fb ff ff 	mov    %rax,-0x4a8(%rbp)
   11331:	48 c7 85 60 fb ff ff 	movq   $0x0,-0x4a0(%rbp)
   11338:	00 00 00 00 
   1133c:	48 c7 85 68 fb ff ff 	movq   $0x0,-0x498(%rbp)
   11343:	00 00 00 00 
   11347:	48 8d 85 28 e9 ff ff 	lea    -0x16d8(%rbp),%rax
   1134e:	48 89 85 70 fb ff ff 	mov    %rax,-0x490(%rbp)
   11355:	48 c7 85 78 fb ff ff 	movq   $0x0,-0x488(%rbp)
   1135c:	00 00 00 00 
   11360:	48 c7 85 80 fb ff ff 	movq   $0x0,-0x480(%rbp)
   11367:	00 00 00 00 
   1136b:	48 8d 85 28 e9 ff ff 	lea    -0x16d8(%rbp),%rax
   11372:	48 89 85 88 fb ff ff 	mov    %rax,-0x478(%rbp)
   11379:	48 c7 85 90 fb ff ff 	movq   $0x0,-0x470(%rbp)
   11380:	00 00 00 00 
   11384:	48 8d 85 28 e9 ff ff 	lea    -0x16d8(%rbp),%rax
   1138b:	48 89 85 98 fb ff ff 	mov    %rax,-0x468(%rbp)
   11392:	48 c7 85 a0 fb ff ff 	movq   $0x0,-0x460(%rbp)
   11399:	00 00 00 00 
   1139d:	48 8d 85 28 e9 ff ff 	lea    -0x16d8(%rbp),%rax
   113a4:	48 89 85 a8 fb ff ff 	mov    %rax,-0x458(%rbp)
   113ab:	48 8d 85 28 e9 ff ff 	lea    -0x16d8(%rbp),%rax
   113b2:	48 89 85 b0 fb ff ff 	mov    %rax,-0x450(%rbp)
   113b9:	48 8d 85 28 e9 ff ff 	lea    -0x16d8(%rbp),%rax
   113c0:	48 89 85 b8 fb ff ff 	mov    %rax,-0x448(%rbp)
   113c7:	48 c7 85 c0 fb ff ff 	movq   $0x0,-0x440(%rbp)
   113ce:	00 00 00 00 
   113d2:	48 8d 85 28 e9 ff ff 	lea    -0x16d8(%rbp),%rax
   113d9:	48 89 85 c8 fb ff ff 	mov    %rax,-0x438(%rbp)
   113e0:	48 8d 85 28 e9 ff ff 	lea    -0x16d8(%rbp),%rax
   113e7:	48 89 85 d0 fb ff ff 	mov    %rax,-0x430(%rbp)
   113ee:	48 8d 85 28 e9 ff ff 	lea    -0x16d8(%rbp),%rax
   113f5:	48 89 85 d8 fb ff ff 	mov    %rax,-0x428(%rbp)
   113fc:	48 8d 85 28 e9 ff ff 	lea    -0x16d8(%rbp),%rax
   11403:	48 89 85 e0 fb ff ff 	mov    %rax,-0x420(%rbp)
   1140a:	48 c7 85 e8 fb ff ff 	movq   $0x0,-0x418(%rbp)
   11411:	00 00 00 00 
   11415:	48 c7 85 f0 fb ff ff 	movq   $0x0,-0x410(%rbp)
   1141c:	00 00 00 00 
   11420:	48 8d 85 28 e9 ff ff 	lea    -0x16d8(%rbp),%rax
   11427:	48 89 85 f8 fb ff ff 	mov    %rax,-0x408(%rbp)
   1142e:	48 8d 85 28 e9 ff ff 	lea    -0x16d8(%rbp),%rax
   11435:	48 89 85 00 fc ff ff 	mov    %rax,-0x400(%rbp)
   1143c:	48 8d 85 28 e9 ff ff 	lea    -0x16d8(%rbp),%rax
   11443:	48 89 85 08 fc ff ff 	mov    %rax,-0x3f8(%rbp)
   1144a:	48 8d 85 28 e9 ff ff 	lea    -0x16d8(%rbp),%rax
   11451:	48 89 85 10 fc ff ff 	mov    %rax,-0x3f0(%rbp)
   11458:	48 8d 85 28 e9 ff ff 	lea    -0x16d8(%rbp),%rax
   1145f:	48 89 85 18 fc ff ff 	mov    %rax,-0x3e8(%rbp)
   11466:	48 8d 85 28 e9 ff ff 	lea    -0x16d8(%rbp),%rax
   1146d:	48 89 85 20 fc ff ff 	mov    %rax,-0x3e0(%rbp)
   11474:	48 8d 85 28 e9 ff ff 	lea    -0x16d8(%rbp),%rax
   1147b:	48 89 85 28 fc ff ff 	mov    %rax,-0x3d8(%rbp)
   11482:	48 8d 85 28 e9 ff ff 	lea    -0x16d8(%rbp),%rax
   11489:	48 89 85 30 fc ff ff 	mov    %rax,-0x3d0(%rbp)
   11490:	48 8d 85 28 e9 ff ff 	lea    -0x16d8(%rbp),%rax
   11497:	48 89 85 38 fc ff ff 	mov    %rax,-0x3c8(%rbp)
   1149e:	48 8d 85 28 e9 ff ff 	lea    -0x16d8(%rbp),%rax
   114a5:	48 89 85 40 fc ff ff 	mov    %rax,-0x3c0(%rbp)
   114ac:	48 c7 85 48 fc ff ff 	movq   $0x0,-0x3b8(%rbp)
   114b3:	00 00 00 00 
   114b7:	48 c7 85 50 fc ff ff 	movq   $0x0,-0x3b0(%rbp)
   114be:	00 00 00 00 
   114c2:	48 8d 85 28 e9 ff ff 	lea    -0x16d8(%rbp),%rax
   114c9:	48 89 85 58 fc ff ff 	mov    %rax,-0x3a8(%rbp)
   114d0:	48 c7 85 60 fc ff ff 	movq   $0x0,-0x3a0(%rbp)
   114d7:	00 00 00 00 
   114db:	48 c7 85 68 fc ff ff 	movq   $0x0,-0x398(%rbp)
   114e2:	00 00 00 00 
   114e6:	48 8d 85 28 e9 ff ff 	lea    -0x16d8(%rbp),%rax
   114ed:	48 89 85 70 fc ff ff 	mov    %rax,-0x390(%rbp)
   114f4:	48 8d 85 28 e9 ff ff 	lea    -0x16d8(%rbp),%rax
   114fb:	48 89 85 78 fc ff ff 	mov    %rax,-0x388(%rbp)
   11502:	48 8d 85 28 e9 ff ff 	lea    -0x16d8(%rbp),%rax
   11509:	48 89 85 80 fc ff ff 	mov    %rax,-0x380(%rbp)
   11510:	48 8d 85 28 e9 ff ff 	lea    -0x16d8(%rbp),%rax
   11517:	48 89 85 88 fc ff ff 	mov    %rax,-0x378(%rbp)
   1151e:	48 8d 85 28 e9 ff ff 	lea    -0x16d8(%rbp),%rax
   11525:	48 89 85 90 fc ff ff 	mov    %rax,-0x370(%rbp)
   1152c:	48 c7 85 98 fc ff ff 	movq   $0x0,-0x368(%rbp)
   11533:	00 00 00 00 
   11537:	48 8d 85 28 e9 ff ff 	lea    -0x16d8(%rbp),%rax
   1153e:	48 89 85 a0 fc ff ff 	mov    %rax,-0x360(%rbp)
   11545:	48 8d 85 28 e9 ff ff 	lea    -0x16d8(%rbp),%rax
   1154c:	48 89 85 a8 fc ff ff 	mov    %rax,-0x358(%rbp)
   11553:	48 8d 85 28 e9 ff ff 	lea    -0x16d8(%rbp),%rax
   1155a:	48 89 85 b0 fc ff ff 	mov    %rax,-0x350(%rbp)
   11561:	48 8d 85 28 e9 ff ff 	lea    -0x16d8(%rbp),%rax
   11568:	48 89 85 b8 fc ff ff 	mov    %rax,-0x348(%rbp)
   1156f:	48 8d 85 28 e9 ff ff 	lea    -0x16d8(%rbp),%rax
   11576:	48 89 85 c0 fc ff ff 	mov    %rax,-0x340(%rbp)
   1157d:	48 8d 85 28 e9 ff ff 	lea    -0x16d8(%rbp),%rax
   11584:	48 89 85 c8 fc ff ff 	mov    %rax,-0x338(%rbp)
   1158b:	48 8d 85 28 e9 ff ff 	lea    -0x16d8(%rbp),%rax
   11592:	48 89 85 d0 fc ff ff 	mov    %rax,-0x330(%rbp)
   11599:	48 8d 85 28 e9 ff ff 	lea    -0x16d8(%rbp),%rax
   115a0:	48 89 85 d8 fc ff ff 	mov    %rax,-0x328(%rbp)
   115a7:	48 c7 85 e0 fc ff ff 	movq   $0x0,-0x320(%rbp)
   115ae:	00 00 00 00 
   115b2:	48 c7 85 e8 fc ff ff 	movq   $0x0,-0x318(%rbp)
   115b9:	00 00 00 00 
   115bd:	48 8d 85 28 e9 ff ff 	lea    -0x16d8(%rbp),%rax
   115c4:	48 89 85 f0 fc ff ff 	mov    %rax,-0x310(%rbp)
   115cb:	48 c7 85 f8 fc ff ff 	movq   $0x0,-0x308(%rbp)
   115d2:	00 00 00 00 
   115d6:	48 8d 85 28 e9 ff ff 	lea    -0x16d8(%rbp),%rax
   115dd:	48 89 85 00 fd ff ff 	mov    %rax,-0x300(%rbp)
   115e4:	48 c7 85 08 fd ff ff 	movq   $0x0,-0x2f8(%rbp)
   115eb:	00 00 00 00 
   115ef:	48 8d 85 28 e9 ff ff 	lea    -0x16d8(%rbp),%rax
   115f6:	48 89 85 10 fd ff ff 	mov    %rax,-0x2f0(%rbp)
   115fd:	48 8d 85 28 e9 ff ff 	lea    -0x16d8(%rbp),%rax
   11604:	48 89 85 18 fd ff ff 	mov    %rax,-0x2e8(%rbp)
   1160b:	48 8d 85 28 e9 ff ff 	lea    -0x16d8(%rbp),%rax
   11612:	48 89 85 20 fd ff ff 	mov    %rax,-0x2e0(%rbp)
   11619:	48 8d 85 28 e9 ff ff 	lea    -0x16d8(%rbp),%rax
   11620:	48 89 85 28 fd ff ff 	mov    %rax,-0x2d8(%rbp)
   11627:	48 8d 85 28 e9 ff ff 	lea    -0x16d8(%rbp),%rax
   1162e:	48 89 85 30 fd ff ff 	mov    %rax,-0x2d0(%rbp)
   11635:	48 8d 85 28 e9 ff ff 	lea    -0x16d8(%rbp),%rax
   1163c:	48 89 85 38 fd ff ff 	mov    %rax,-0x2c8(%rbp)
   11643:	48 8d 85 28 e9 ff ff 	lea    -0x16d8(%rbp),%rax
   1164a:	48 89 85 40 fd ff ff 	mov    %rax,-0x2c0(%rbp)
   11651:	48 8d 85 28 e9 ff ff 	lea    -0x16d8(%rbp),%rax
   11658:	48 89 85 48 fd ff ff 	mov    %rax,-0x2b8(%rbp)
   1165f:	48 c7 85 50 fd ff ff 	movq   $0x0,-0x2b0(%rbp)
   11666:	00 00 00 00 
   1166a:	48 c7 85 58 fd ff ff 	movq   $0x0,-0x2a8(%rbp)
   11671:	00 00 00 00 
   11675:	48 8d 85 28 e9 ff ff 	lea    -0x16d8(%rbp),%rax
   1167c:	48 89 85 60 fd ff ff 	mov    %rax,-0x2a0(%rbp)
   11683:	48 8d 85 28 e9 ff ff 	lea    -0x16d8(%rbp),%rax
   1168a:	48 89 85 68 fd ff ff 	mov    %rax,-0x298(%rbp)
   11691:	48 8d 85 28 e9 ff ff 	lea    -0x16d8(%rbp),%rax
   11698:	48 89 85 70 fd ff ff 	mov    %rax,-0x290(%rbp)
   1169f:	48 8d 85 28 e9 ff ff 	lea    -0x16d8(%rbp),%rax
   116a6:	48 89 85 78 fd ff ff 	mov    %rax,-0x288(%rbp)
   116ad:	48 8d 85 28 e9 ff ff 	lea    -0x16d8(%rbp),%rax
   116b4:	48 89 85 80 fd ff ff 	mov    %rax,-0x280(%rbp)
   116bb:	48 8d 85 28 e9 ff ff 	lea    -0x16d8(%rbp),%rax
   116c2:	48 89 85 88 fd ff ff 	mov    %rax,-0x278(%rbp)
   116c9:	48 c7 85 90 fd ff ff 	movq   $0x0,-0x270(%rbp)
   116d0:	00 00 00 00 
   116d4:	48 8d 85 28 e9 ff ff 	lea    -0x16d8(%rbp),%rax
   116db:	48 89 85 98 fd ff ff 	mov    %rax,-0x268(%rbp)
   116e2:	48 c7 85 a0 fd ff ff 	movq   $0x0,-0x260(%rbp)
   116e9:	00 00 00 00 
   116ed:	48 c7 85 a8 fd ff ff 	movq   $0x0,-0x258(%rbp)
   116f4:	00 00 00 00 
   116f8:	48 c7 85 b0 fd ff ff 	movq   $0x0,-0x250(%rbp)
   116ff:	00 00 00 00 
   11703:	48 8d 85 28 e9 ff ff 	lea    -0x16d8(%rbp),%rax
   1170a:	48 89 85 b8 fd ff ff 	mov    %rax,-0x248(%rbp)
   11711:	48 8d 85 28 e9 ff ff 	lea    -0x16d8(%rbp),%rax
   11718:	48 89 85 c0 fd ff ff 	mov    %rax,-0x240(%rbp)
   1171f:	48 c7 85 c8 fd ff ff 	movq   $0x0,-0x238(%rbp)
   11726:	00 00 00 00 
   1172a:	48 c7 85 d0 fd ff ff 	movq   $0x0,-0x230(%rbp)
   11731:	00 00 00 00 
   11735:	48 8d 85 28 e9 ff ff 	lea    -0x16d8(%rbp),%rax
   1173c:	48 89 85 d8 fd ff ff 	mov    %rax,-0x228(%rbp)
   11743:	48 8d 85 28 e9 ff ff 	lea    -0x16d8(%rbp),%rax
   1174a:	48 89 85 e0 fd ff ff 	mov    %rax,-0x220(%rbp)
   11751:	48 c7 85 e8 fd ff ff 	movq   $0x0,-0x218(%rbp)
   11758:	00 00 00 00 
   1175c:	48 8d 85 28 e9 ff ff 	lea    -0x16d8(%rbp),%rax
   11763:	48 89 85 f0 fd ff ff 	mov    %rax,-0x210(%rbp)
   1176a:	48 8d 85 28 e9 ff ff 	lea    -0x16d8(%rbp),%rax
   11771:	48 89 85 f8 fd ff ff 	mov    %rax,-0x208(%rbp)
   11778:	48 c7 85 00 fe ff ff 	movq   $0x0,-0x200(%rbp)
   1177f:	00 00 00 00 
   11783:	48 8d 85 28 e9 ff ff 	lea    -0x16d8(%rbp),%rax
   1178a:	48 89 85 08 fe ff ff 	mov    %rax,-0x1f8(%rbp)
   11791:	48 8d 85 28 e9 ff ff 	lea    -0x16d8(%rbp),%rax
   11798:	48 89 85 10 fe ff ff 	mov    %rax,-0x1f0(%rbp)
   1179f:	48 c7 85 18 fe ff ff 	movq   $0x0,-0x1e8(%rbp)
   117a6:	00 00 00 00 
   117aa:	48 8d 85 28 e9 ff ff 	lea    -0x16d8(%rbp),%rax
   117b1:	48 89 85 20 fe ff ff 	mov    %rax,-0x1e0(%rbp)
   117b8:	48 c7 85 28 fe ff ff 	movq   $0x0,-0x1d8(%rbp)
   117bf:	00 00 00 00 
   117c3:	48 c7 85 30 fe ff ff 	movq   $0x0,-0x1d0(%rbp)
   117ca:	00 00 00 00 
   117ce:	48 8d 85 28 e9 ff ff 	lea    -0x16d8(%rbp),%rax
   117d5:	48 89 85 38 fe ff ff 	mov    %rax,-0x1c8(%rbp)
   117dc:	48 8d 85 28 e9 ff ff 	lea    -0x16d8(%rbp),%rax
   117e3:	48 89 85 40 fe ff ff 	mov    %rax,-0x1c0(%rbp)
   117ea:	48 c7 85 48 fe ff ff 	movq   $0x0,-0x1b8(%rbp)
   117f1:	00 00 00 00 
   117f5:	48 8d 85 28 e9 ff ff 	lea    -0x16d8(%rbp),%rax
   117fc:	48 89 85 50 fe ff ff 	mov    %rax,-0x1b0(%rbp)
   11803:	48 8d 85 28 e9 ff ff 	lea    -0x16d8(%rbp),%rax
   1180a:	48 89 85 58 fe ff ff 	mov    %rax,-0x1a8(%rbp)
   11811:	48 c7 85 60 fe ff ff 	movq   $0x0,-0x1a0(%rbp)
   11818:	00 00 00 00 
   1181c:	48 c7 85 68 fe ff ff 	movq   $0x0,-0x198(%rbp)
   11823:	00 00 00 00 
   11827:	48 8d 85 28 e9 ff ff 	lea    -0x16d8(%rbp),%rax
   1182e:	48 89 85 70 fe ff ff 	mov    %rax,-0x190(%rbp)
   11835:	48 8d 85 28 e9 ff ff 	lea    -0x16d8(%rbp),%rax
   1183c:	48 89 85 78 fe ff ff 	mov    %rax,-0x188(%rbp)
   11843:	48 8d 85 28 e9 ff ff 	lea    -0x16d8(%rbp),%rax
   1184a:	48 89 85 80 fe ff ff 	mov    %rax,-0x180(%rbp)
   11851:	48 8d 85 28 e9 ff ff 	lea    -0x16d8(%rbp),%rax
   11858:	48 89 85 88 fe ff ff 	mov    %rax,-0x178(%rbp)
   1185f:	48 8d 85 28 e9 ff ff 	lea    -0x16d8(%rbp),%rax
   11866:	48 89 85 90 fe ff ff 	mov    %rax,-0x170(%rbp)
   1186d:	48 8d 85 28 e9 ff ff 	lea    -0x16d8(%rbp),%rax
   11874:	48 89 85 98 fe ff ff 	mov    %rax,-0x168(%rbp)
   1187b:	48 c7 85 a0 fe ff ff 	movq   $0x0,-0x160(%rbp)
   11882:	00 00 00 00 
   11886:	48 8d 85 28 e9 ff ff 	lea    -0x16d8(%rbp),%rax
   1188d:	48 89 85 a8 fe ff ff 	mov    %rax,-0x158(%rbp)
   11894:	48 8d 85 28 e9 ff ff 	lea    -0x16d8(%rbp),%rax
   1189b:	48 89 85 b0 fe ff ff 	mov    %rax,-0x150(%rbp)
   118a2:	48 8d 85 28 e9 ff ff 	lea    -0x16d8(%rbp),%rax
   118a9:	48 89 85 b8 fe ff ff 	mov    %rax,-0x148(%rbp)
   118b0:	48 8d 85 28 e9 ff ff 	lea    -0x16d8(%rbp),%rax
   118b7:	48 89 85 c0 fe ff ff 	mov    %rax,-0x140(%rbp)
   118be:	48 8d 85 28 e9 ff ff 	lea    -0x16d8(%rbp),%rax
   118c5:	48 89 85 c8 fe ff ff 	mov    %rax,-0x138(%rbp)
   118cc:	48 8d 85 28 e9 ff ff 	lea    -0x16d8(%rbp),%rax
   118d3:	48 89 85 d0 fe ff ff 	mov    %rax,-0x130(%rbp)
   118da:	48 8d 85 28 e9 ff ff 	lea    -0x16d8(%rbp),%rax
   118e1:	48 89 85 d8 fe ff ff 	mov    %rax,-0x128(%rbp)
   118e8:	48 8d 85 28 e9 ff ff 	lea    -0x16d8(%rbp),%rax
   118ef:	48 89 85 e0 fe ff ff 	mov    %rax,-0x120(%rbp)
   118f6:	48 8d 85 28 e9 ff ff 	lea    -0x16d8(%rbp),%rax
   118fd:	48 89 85 e8 fe ff ff 	mov    %rax,-0x118(%rbp)
   11904:	48 8d 85 28 e9 ff ff 	lea    -0x16d8(%rbp),%rax
   1190b:	48 89 85 f0 fe ff ff 	mov    %rax,-0x110(%rbp)
   11912:	48 8d 85 28 e9 ff ff 	lea    -0x16d8(%rbp),%rax
   11919:	48 89 85 f8 fe ff ff 	mov    %rax,-0x108(%rbp)
   11920:	48 8d 85 28 e9 ff ff 	lea    -0x16d8(%rbp),%rax
   11927:	48 89 85 00 ff ff ff 	mov    %rax,-0x100(%rbp)
   1192e:	48 8d 85 28 e9 ff ff 	lea    -0x16d8(%rbp),%rax
   11935:	48 89 85 08 ff ff ff 	mov    %rax,-0xf8(%rbp)
   1193c:	48 8d 85 28 e9 ff ff 	lea    -0x16d8(%rbp),%rax
   11943:	48 89 85 10 ff ff ff 	mov    %rax,-0xf0(%rbp)
   1194a:	48 8d 85 28 e9 ff ff 	lea    -0x16d8(%rbp),%rax
   11951:	48 89 85 18 ff ff ff 	mov    %rax,-0xe8(%rbp)
   11958:	48 c7 85 20 ff ff ff 	movq   $0x0,-0xe0(%rbp)
   1195f:	00 00 00 00 
   11963:	48 8d 85 28 e9 ff ff 	lea    -0x16d8(%rbp),%rax
   1196a:	48 89 85 28 ff ff ff 	mov    %rax,-0xd8(%rbp)
   11971:	48 8d 85 28 e9 ff ff 	lea    -0x16d8(%rbp),%rax
   11978:	48 89 85 30 ff ff ff 	mov    %rax,-0xd0(%rbp)
   1197f:	48 8d 85 28 e9 ff ff 	lea    -0x16d8(%rbp),%rax
   11986:	48 89 85 38 ff ff ff 	mov    %rax,-0xc8(%rbp)
   1198d:	48 8d 85 28 e9 ff ff 	lea    -0x16d8(%rbp),%rax
   11994:	48 89 85 40 ff ff ff 	mov    %rax,-0xc0(%rbp)
   1199b:	48 8d 85 28 e9 ff ff 	lea    -0x16d8(%rbp),%rax
   119a2:	48 89 85 48 ff ff ff 	mov    %rax,-0xb8(%rbp)
   119a9:	48 8d 85 28 e9 ff ff 	lea    -0x16d8(%rbp),%rax
   119b0:	48 89 85 50 ff ff ff 	mov    %rax,-0xb0(%rbp)
   119b7:	48 8d 85 28 e9 ff ff 	lea    -0x16d8(%rbp),%rax
   119be:	48 89 85 58 ff ff ff 	mov    %rax,-0xa8(%rbp)
   119c5:	48 8d 85 28 e9 ff ff 	lea    -0x16d8(%rbp),%rax
   119cc:	48 89 85 60 ff ff ff 	mov    %rax,-0xa0(%rbp)
   119d3:	48 8d 85 28 e9 ff ff 	lea    -0x16d8(%rbp),%rax
   119da:	48 89 85 68 ff ff ff 	mov    %rax,-0x98(%rbp)
   119e1:	48 8d 85 28 e9 ff ff 	lea    -0x16d8(%rbp),%rax
   119e8:	48 89 85 70 ff ff ff 	mov    %rax,-0x90(%rbp)
   119ef:	48 8d 85 28 e9 ff ff 	lea    -0x16d8(%rbp),%rax
   119f6:	48 89 85 78 ff ff ff 	mov    %rax,-0x88(%rbp)
   119fd:	48 c7 45 80 00 00 00 	movq   $0x0,-0x80(%rbp)
   11a04:	00 
   11a05:	48 8d 85 28 e9 ff ff 	lea    -0x16d8(%rbp),%rax
   11a0c:	48 89 45 88          	mov    %rax,-0x78(%rbp)
   11a10:	48 8d 85 28 e9 ff ff 	lea    -0x16d8(%rbp),%rax
   11a17:	48 89 45 90          	mov    %rax,-0x70(%rbp)
   11a1b:	48 8d 85 28 e9 ff ff 	lea    -0x16d8(%rbp),%rax
   11a22:	48 89 45 98          	mov    %rax,-0x68(%rbp)
   11a26:	48 8d 85 28 e9 ff ff 	lea    -0x16d8(%rbp),%rax
   11a2d:	48 89 45 a0          	mov    %rax,-0x60(%rbp)
   11a31:	48 8d 85 28 e9 ff ff 	lea    -0x16d8(%rbp),%rax
   11a38:	48 89 45 a8          	mov    %rax,-0x58(%rbp)
   11a3c:	48 c7 45 b0 00 00 00 	movq   $0x0,-0x50(%rbp)
   11a43:	00 
   11a44:	48 8d 85 28 e9 ff ff 	lea    -0x16d8(%rbp),%rax
   11a4b:	48 89 45 b8          	mov    %rax,-0x48(%rbp)
   11a4f:	48 8d 05 58 76 00 00 	lea    0x7658(%rip),%rax        # 190ae <g_75+0x2e>
   11a56:	48 89 85 50 ea ff ff 	mov    %rax,-0x15b0(%rbp)
   11a5d:	c7 85 14 e9 ff ff 3f 	movl   $0x467b843f,-0x16ec(%rbp)
   11a64:	84 7b 46 
   11a67:	0f b6 05 ca 75 00 00 	movzbl 0x75ca(%rip),%eax        # 19038 <g_66>
   11a6e:	83 c0 01             	add    $0x1,%eax
   11a71:	88 05 c1 75 00 00    	mov    %al,0x75c1(%rip)        # 19038 <g_66>
   11a77:	0f b6 05 ba 75 00 00 	movzbl 0x75ba(%rip),%eax        # 19038 <g_66>
   11a7e:	3c 0e                	cmp    $0xe,%al
   11a80:	0f 87 74 f0 ff ff    	ja     10afa <func_26+0x769>
   11a86:	48 8b 85 08 e8 ff ff 	mov    -0x17f8(%rbp),%rax
   11a8d:	44 8b 28             	mov    (%rax),%r13d
   11a90:	48 8b 85 28 e9 ff ff 	mov    -0x16d8(%rbp),%rax
   11a97:	48 8b 00             	mov    (%rax),%rax
   11a9a:	8b 00                	mov    (%rax),%eax
   11a9c:	0f bf d8             	movswl %ax,%ebx
   11a9f:	48 8b 85 28 e9 ff ff 	mov    -0x16d8(%rbp),%rax
   11aa6:	48 8b 00             	mov    (%rax),%rax
   11aa9:	8b 00                	mov    (%rax),%eax
   11aab:	44 0f b7 e0          	movzwl %ax,%r12d
   11aaf:	48 8b 85 28 e9 ff ff 	mov    -0x16d8(%rbp),%rax
   11ab6:	48 8b 00             	mov    (%rax),%rax
   11ab9:	8b 00                	mov    (%rax),%eax
   11abb:	85 c0                	test   %eax,%eax
   11abd:	0f 95 c2             	setne  %dl
   11ac0:	48 8b 85 30 e9 ff ff 	mov    -0x16d0(%rbp),%rax
   11ac7:	0f b6 d2             	movzbl %dl,%edx
   11aca:	48 89 10             	mov    %rdx,(%rax)
   11acd:	48 8b 00             	mov    (%rax),%rax
   11ad0:	48 be e9 7a 79 ed f1 	movabs $0x539188f1ed797ae9,%rsi
   11ad7:	88 91 53 
   11ada:	48 89 c7             	mov    %rax,%rdi
   11add:	e8 4c 85 ff ff       	callq  a02e <safe_add_func_uint64_t_u_u>
   11ae2:	48 3d 00 4f 00 00    	cmp    $0x4f00,%rax
   11ae8:	0f 96 c0             	setbe  %al
   11aeb:	0f b6 c0             	movzbl %al,%eax
   11aee:	be 00 00 00 00       	mov    $0x0,%esi
   11af3:	89 c7                	mov    %eax,%edi
   11af5:	e8 0b 7b ff ff       	callq  9605 <safe_sub_func_int32_t_s_s>
   11afa:	8b 15 30 75 00 00    	mov    0x7530(%rip),%edx        # 19030 <g_43>
   11b00:	39 d0                	cmp    %edx,%eax
   11b02:	0f 95 c0             	setne  %al
   11b05:	0f b6 c0             	movzbl %al,%eax
   11b08:	0f b6 15 e7 75 00 00 	movzbl 0x75e7(%rip),%edx        # 190f6 <g_285+0x6>
   11b0f:	21 d0                	and    %edx,%eax
   11b11:	88 05 df 75 00 00    	mov    %al,0x75df(%rip)        # 190f6 <g_285+0x6>
   11b17:	0f b6 05 d8 75 00 00 	movzbl 0x75d8(%rip),%eax        # 190f6 <g_285+0x6>
   11b1e:	0f b6 c0             	movzbl %al,%eax
   11b21:	48 39 85 00 e8 ff ff 	cmp    %rax,-0x1800(%rbp)
   11b28:	7e 07                	jle    11b31 <func_26+0x17a0>
   11b2a:	ba f2 00 00 00       	mov    $0xf2,%edx
   11b2f:	eb 05                	jmp    11b36 <func_26+0x17a5>
   11b31:	ba f3 00 00 00       	mov    $0xf3,%edx
   11b36:	48 83 bd 20 ea ff ff 	cmpq   $0x0,-0x15e0(%rbp)
   11b3d:	00 
   11b3e:	74 07                	je     11b47 <func_26+0x17b6>
   11b40:	b8 9b 00 00 00       	mov    $0x9b,%eax
   11b45:	eb 05                	jmp    11b4c <func_26+0x17bb>
   11b47:	b8 9a 00 00 00       	mov    $0x9a,%eax
   11b4c:	89 d6                	mov    %edx,%esi
   11b4e:	89 c7                	mov    %eax,%edi
   11b50:	e8 23 80 ff ff       	callq  9b78 <safe_sub_func_uint8_t_u_u>
   11b55:	83 c8 10             	or     $0x10,%eax
   11b58:	0f b6 d0             	movzbl %al,%edx
   11b5b:	48 8b 85 50 e9 ff ff 	mov    -0x16b0(%rbp),%rax
   11b62:	c6 00 eb             	movb   $0xeb,(%rax)
   11b65:	8b 05 bd 74 00 00    	mov    0x74bd(%rip),%eax        # 19028 <g_33>
   11b6b:	83 f8 eb             	cmp    $0xffffffeb,%eax
   11b6e:	0f 9c c0             	setl   %al
   11b71:	0f b6 c0             	movzbl %al,%eax
   11b74:	48 89 d6             	mov    %rdx,%rsi
   11b77:	48 89 c7             	mov    %rax,%rdi
   11b7a:	e8 35 7e ff ff       	callq  99b4 <safe_mod_func_int64_t_s_s>
   11b7f:	48 8b 85 28 e9 ff ff 	mov    -0x16d8(%rbp),%rax
   11b86:	48 8b 00             	mov    (%rax),%rax
   11b89:	8b 10                	mov    (%rax),%edx
   11b8b:	48 8b 85 08 e8 ff ff 	mov    -0x17f8(%rbp),%rax
   11b92:	8b 00                	mov    (%rax),%eax
   11b94:	39 c2                	cmp    %eax,%edx
   11b96:	48 83 bd 00 e8 ff ff 	cmpq   $0x0,-0x1800(%rbp)
   11b9d:	00 
   11b9e:	44 89 e6             	mov    %r12d,%esi
   11ba1:	bf f6 ff 00 00       	mov    $0xfff6,%edi
   11ba6:	e8 92 81 ff ff       	callq  9d3d <safe_mul_func_uint16_t_u_u>
   11bab:	98                   	cwtl   
   11bac:	89 de                	mov    %ebx,%esi
   11bae:	89 c7                	mov    %eax,%edi
   11bb0:	e8 a0 78 ff ff       	callq  9455 <safe_div_func_int16_t_s_s>
   11bb5:	98                   	cwtl   
   11bb6:	be 02 00 00 00       	mov    $0x2,%esi
   11bbb:	89 c7                	mov    %eax,%edi
   11bbd:	e8 d0 78 ff ff       	callq  9492 <safe_lshift_func_int16_t_s_s>
   11bc2:	98                   	cwtl   
   11bc3:	41 39 c5             	cmp    %eax,%r13d
   11bc6:	be 01 00 00 00       	mov    $0x1,%esi
   11bcb:	bf 01 00 00 00       	mov    $0x1,%edi
   11bd0:	e8 d9 7f ff ff       	callq  9bae <safe_mod_func_uint8_t_u_u>
   11bd5:	83 c8 08             	or     $0x8,%eax
   11bd8:	0f b6 c0             	movzbl %al,%eax
   11bdb:	89 c2                	mov    %eax,%edx
   11bdd:	8b 85 5c e8 ff ff    	mov    -0x17a4(%rbp),%eax
   11be3:	09 d0                	or     %edx,%eax
   11be5:	89 85 5c e8 ff ff    	mov    %eax,-0x17a4(%rbp)
   11beb:	48 8b 85 00 e8 ff ff 	mov    -0x1800(%rbp),%rax
   11bf2:	e9 4f 14 00 00       	jmpq   13046 <func_26+0x2cb5>
   11bf7:	48 c7 85 68 e9 ff ff 	movq   $0x0,-0x1698(%rbp)
   11bfe:	00 00 00 00 
   11c02:	48 c7 85 70 e9 ff ff 	movq   $0x0,-0x1690(%rbp)
   11c09:	00 00 00 00 
   11c0d:	48 c7 85 78 e9 ff ff 	movq   $0x0,-0x1688(%rbp)
   11c14:	00 00 00 00 
   11c18:	48 c7 85 80 e9 ff ff 	movq   $0x0,-0x1680(%rbp)
   11c1f:	00 00 00 00 
   11c23:	48 c7 85 88 e9 ff ff 	movq   $0x0,-0x1678(%rbp)
   11c2a:	00 00 00 00 
   11c2e:	c7 85 78 e8 ff ff d4 	movl   $0xa14a3ad4,-0x1788(%rbp)
   11c35:	3a 4a a1 
   11c38:	c7 85 7c e8 ff ff bc 	movl   $0x7b7bfcbc,-0x1784(%rbp)
   11c3f:	fc 7b 7b 
   11c42:	c7 85 80 e8 ff ff 00 	movl   $0x0,-0x1780(%rbp)
   11c49:	00 00 00 
   11c4c:	c7 85 84 e8 ff ff f6 	movl   $0xfffffff6,-0x177c(%rbp)
   11c53:	ff ff ff 
   11c56:	c7 85 3c e8 ff ff fb 	movl   $0xfffffffb,-0x17c4(%rbp)
   11c5d:	ff ff ff 
   11c60:	c7 85 88 e8 ff ff 4e 	movl   $0x639a294e,-0x1778(%rbp)
   11c67:	29 9a 63 
   11c6a:	c7 85 8c e8 ff ff dc 	movl   $0x56cf6fdc,-0x1774(%rbp)
   11c71:	6f cf 56 
   11c74:	c7 85 90 e8 ff ff b4 	movl   $0xe84274b4,-0x1770(%rbp)
   11c7b:	74 42 e8 
   11c7e:	66 c7 85 20 ed ff ff 	movw   $0x3cd8,-0x12e0(%rbp)
   11c85:	d8 3c 
   11c87:	66 c7 85 22 ed ff ff 	movw   $0x9d88,-0x12de(%rbp)
   11c8e:	88 9d 
   11c90:	66 c7 85 24 ed ff ff 	movw   $0x3aa4,-0x12dc(%rbp)
   11c97:	a4 3a 
   11c99:	66 c7 85 26 ed ff ff 	movw   $0x8b0a,-0x12da(%rbp)
   11ca0:	0a 8b 
   11ca2:	66 c7 85 28 ed ff ff 	movw   $0x77a2,-0x12d8(%rbp)
   11ca9:	a2 77 
   11cab:	66 c7 85 2a ed ff ff 	movw   $0x4c75,-0x12d6(%rbp)
   11cb2:	75 4c 
   11cb4:	66 c7 85 2c ed ff ff 	movw   $0x7a7f,-0x12d4(%rbp)
   11cbb:	7f 7a 
   11cbd:	66 c7 85 2e ed ff ff 	movw   $0xfff6,-0x12d2(%rbp)
   11cc4:	f6 ff 
   11cc6:	66 c7 85 30 ed ff ff 	movw   $0xfffa,-0x12d0(%rbp)
   11ccd:	fa ff 
   11ccf:	66 c7 85 32 ed ff ff 	movw   $0xfff6,-0x12ce(%rbp)
   11cd6:	f6 ff 
   11cd8:	66 c7 85 34 ed ff ff 	movw   $0x7a7f,-0x12cc(%rbp)
   11cdf:	7f 7a 
   11ce1:	66 c7 85 36 ed ff ff 	movw   $0x4c75,-0x12ca(%rbp)
   11ce8:	75 4c 
   11cea:	66 c7 85 38 ed ff ff 	movw   $0x77a2,-0x12c8(%rbp)
   11cf1:	a2 77 
   11cf3:	66 c7 85 3a ed ff ff 	movw   $0x8b0a,-0x12c6(%rbp)
   11cfa:	0a 8b 
   11cfc:	66 c7 85 3c ed ff ff 	movw   $0x3aa4,-0x12c4(%rbp)
   11d03:	a4 3a 
   11d05:	66 c7 85 3e ed ff ff 	movw   $0x9d88,-0x12c2(%rbp)
   11d0c:	88 9d 
   11d0e:	66 c7 85 40 ed ff ff 	movw   $0x4f66,-0x12c0(%rbp)
   11d15:	66 4f 
   11d17:	66 c7 85 42 ed ff ff 	movw   $0xffff,-0x12be(%rbp)
   11d1e:	ff ff 
   11d20:	66 c7 85 44 ed ff ff 	movw   $0x1,-0x12bc(%rbp)
   11d27:	01 00 
   11d29:	66 c7 85 46 ed ff ff 	movw   $0x450b,-0x12ba(%rbp)
   11d30:	0b 45 
   11d32:	66 c7 85 48 ed ff ff 	movw   $0xfff8,-0x12b8(%rbp)
   11d39:	f8 ff 
   11d3b:	66 c7 85 4a ed ff ff 	movw   $0x7a7f,-0x12b6(%rbp)
   11d42:	7f 7a 
   11d44:	66 c7 85 4c ed ff ff 	movw   $0xfffc,-0x12b4(%rbp)
   11d4b:	fc ff 
   11d4d:	66 c7 85 4e ed ff ff 	movw   $0xa11f,-0x12b2(%rbp)
   11d54:	1f a1 
   11d56:	66 c7 85 50 ed ff ff 	movw   $0x9d88,-0x12b0(%rbp)
   11d5d:	88 9d 
   11d5f:	66 c7 85 52 ed ff ff 	movw   $0xfffa,-0x12ae(%rbp)
   11d66:	fa ff 
   11d68:	66 c7 85 54 ed ff ff 	movw   $0xa06d,-0x12ac(%rbp)
   11d6f:	6d a0 
   11d71:	66 c7 85 56 ed ff ff 	movw   $0xfffc,-0x12aa(%rbp)
   11d78:	fc ff 
   11d7a:	66 c7 85 58 ed ff ff 	movw   $0x1,-0x12a8(%rbp)
   11d81:	01 00 
   11d83:	66 c7 85 5a ed ff ff 	movw   $0x1,-0x12a6(%rbp)
   11d8a:	01 00 
   11d8c:	66 c7 85 5c ed ff ff 	movw   $0x2d5b,-0x12a4(%rbp)
   11d93:	5b 2d 
   11d95:	66 c7 85 5e ed ff ff 	movw   $0x186c,-0x12a2(%rbp)
   11d9c:	6c 18 
   11d9e:	66 c7 85 60 ed ff ff 	movw   $0x450b,-0x12a0(%rbp)
   11da5:	0b 45 
   11da7:	66 c7 85 62 ed ff ff 	movw   $0x3,-0x129e(%rbp)
   11dae:	03 00 
   11db0:	66 c7 85 64 ed ff ff 	movw   $0x0,-0x129c(%rbp)
   11db7:	00 00 
   11db9:	66 c7 85 66 ed ff ff 	movw   $0x3cd8,-0x129a(%rbp)
   11dc0:	d8 3c 
   11dc2:	66 c7 85 68 ed ff ff 	movw   $0xffff,-0x1298(%rbp)
   11dc9:	ff ff 
   11dcb:	66 c7 85 6a ed ff ff 	movw   $0x0,-0x1296(%rbp)
   11dd2:	00 00 
   11dd4:	66 c7 85 6c ed ff ff 	movw   $0xffff,-0x1294(%rbp)
   11ddb:	ff ff 
   11ddd:	66 c7 85 6e ed ff ff 	movw   $0x8e3a,-0x1292(%rbp)
   11de4:	3a 8e 
   11de6:	66 c7 85 70 ed ff ff 	movw   $0xffff,-0x1290(%rbp)
   11ded:	ff ff 
   11def:	66 c7 85 72 ed ff ff 	movw   $0x0,-0x128e(%rbp)
   11df6:	00 00 
   11df8:	66 c7 85 74 ed ff ff 	movw   $0xffff,-0x128c(%rbp)
   11dff:	ff ff 
   11e01:	66 c7 85 76 ed ff ff 	movw   $0x3cd8,-0x128a(%rbp)
   11e08:	d8 3c 
   11e0a:	66 c7 85 78 ed ff ff 	movw   $0x0,-0x1288(%rbp)
   11e11:	00 00 
   11e13:	66 c7 85 7a ed ff ff 	movw   $0x3,-0x1286(%rbp)
   11e1a:	03 00 
   11e1c:	66 c7 85 7c ed ff ff 	movw   $0x450b,-0x1284(%rbp)
   11e23:	0b 45 
   11e25:	66 c7 85 7e ed ff ff 	movw   $0x186c,-0x1282(%rbp)
   11e2c:	6c 18 
   11e2e:	66 c7 85 80 ed ff ff 	movw   $0x2d5b,-0x1280(%rbp)
   11e35:	5b 2d 
   11e37:	66 c7 85 82 ed ff ff 	movw   $0x1,-0x127e(%rbp)
   11e3e:	01 00 
   11e40:	66 c7 85 84 ed ff ff 	movw   $0x1,-0x127c(%rbp)
   11e47:	01 00 
   11e49:	66 c7 85 86 ed ff ff 	movw   $0xfffc,-0x127a(%rbp)
   11e50:	fc ff 
   11e52:	66 c7 85 88 ed ff ff 	movw   $0xa06d,-0x1278(%rbp)
   11e59:	6d a0 
   11e5b:	66 c7 85 8a ed ff ff 	movw   $0xfffa,-0x1276(%rbp)
   11e62:	fa ff 
   11e64:	66 c7 85 8c ed ff ff 	movw   $0x9d88,-0x1274(%rbp)
   11e6b:	88 9d 
   11e6d:	66 c7 85 8e ed ff ff 	movw   $0xa11f,-0x1272(%rbp)
   11e74:	1f a1 
   11e76:	66 c7 85 90 ed ff ff 	movw   $0xfffc,-0x1270(%rbp)
   11e7d:	fc ff 
   11e7f:	66 c7 85 92 ed ff ff 	movw   $0x7a7f,-0x126e(%rbp)
   11e86:	7f 7a 
   11e88:	66 c7 85 94 ed ff ff 	movw   $0xfff8,-0x126c(%rbp)
   11e8f:	f8 ff 
   11e91:	66 c7 85 96 ed ff ff 	movw   $0x450b,-0x126a(%rbp)
   11e98:	0b 45 
   11e9a:	66 c7 85 98 ed ff ff 	movw   $0x1,-0x1268(%rbp)
   11ea1:	01 00 
   11ea3:	66 c7 85 9a ed ff ff 	movw   $0xffff,-0x1266(%rbp)
   11eaa:	ff ff 
   11eac:	66 c7 85 9c ed ff ff 	movw   $0x4f66,-0x1264(%rbp)
   11eb3:	66 4f 
   11eb5:	66 c7 85 9e ed ff ff 	movw   $0x9d88,-0x1262(%rbp)
   11ebc:	88 9d 
   11ebe:	66 c7 85 a0 ed ff ff 	movw   $0x3aa4,-0x1260(%rbp)
   11ec5:	a4 3a 
   11ec7:	66 c7 85 a2 ed ff ff 	movw   $0x8b0a,-0x125e(%rbp)
   11ece:	0a 8b 
   11ed0:	66 c7 85 a4 ed ff ff 	movw   $0x77a2,-0x125c(%rbp)
   11ed7:	a2 77 
   11ed9:	66 c7 85 a6 ed ff ff 	movw   $0x4c75,-0x125a(%rbp)
   11ee0:	75 4c 
   11ee2:	66 c7 85 a8 ed ff ff 	movw   $0x7a7f,-0x1258(%rbp)
   11ee9:	7f 7a 
   11eeb:	66 c7 85 aa ed ff ff 	movw   $0xfff6,-0x1256(%rbp)
   11ef2:	f6 ff 
   11ef4:	66 c7 85 ac ed ff ff 	movw   $0xfffa,-0x1254(%rbp)
   11efb:	fa ff 
   11efd:	66 c7 85 ae ed ff ff 	movw   $0xfff6,-0x1252(%rbp)
   11f04:	f6 ff 
   11f06:	66 c7 85 b0 ed ff ff 	movw   $0x7a7f,-0x1250(%rbp)
   11f0d:	7f 7a 
   11f0f:	66 c7 85 b2 ed ff ff 	movw   $0x4c75,-0x124e(%rbp)
   11f16:	75 4c 
   11f18:	66 c7 85 b4 ed ff ff 	movw   $0x77a2,-0x124c(%rbp)
   11f1f:	a2 77 
   11f21:	66 c7 85 b6 ed ff ff 	movw   $0x8b0a,-0x124a(%rbp)
   11f28:	0a 8b 
   11f2a:	66 c7 85 b8 ed ff ff 	movw   $0x3aa4,-0x1248(%rbp)
   11f31:	a4 3a 
   11f33:	66 c7 85 ba ed ff ff 	movw   $0x9d88,-0x1246(%rbp)
   11f3a:	88 9d 
   11f3c:	66 c7 85 bc ed ff ff 	movw   $0x4f66,-0x1244(%rbp)
   11f43:	66 4f 
   11f45:	66 c7 85 be ed ff ff 	movw   $0xffff,-0x1242(%rbp)
   11f4c:	ff ff 
   11f4e:	66 c7 85 c0 ed ff ff 	movw   $0x1,-0x1240(%rbp)
   11f55:	01 00 
   11f57:	66 c7 85 c2 ed ff ff 	movw   $0x450b,-0x123e(%rbp)
   11f5e:	0b 45 
   11f60:	66 c7 85 c4 ed ff ff 	movw   $0xfff8,-0x123c(%rbp)
   11f67:	f8 ff 
   11f69:	66 c7 85 c6 ed ff ff 	movw   $0x7a7f,-0x123a(%rbp)
   11f70:	7f 7a 
   11f72:	66 c7 85 c8 ed ff ff 	movw   $0xfffc,-0x1238(%rbp)
   11f79:	fc ff 
   11f7b:	66 c7 85 ca ed ff ff 	movw   $0xa11f,-0x1236(%rbp)
   11f82:	1f a1 
   11f84:	66 c7 85 cc ed ff ff 	movw   $0x9d88,-0x1234(%rbp)
   11f8b:	88 9d 
   11f8d:	66 c7 85 ce ed ff ff 	movw   $0xfffa,-0x1232(%rbp)
   11f94:	fa ff 
   11f96:	66 c7 85 d0 ed ff ff 	movw   $0xa06d,-0x1230(%rbp)
   11f9d:	6d a0 
   11f9f:	66 c7 85 d2 ed ff ff 	movw   $0xfffc,-0x122e(%rbp)
   11fa6:	fc ff 
   11fa8:	66 c7 85 d4 ed ff ff 	movw   $0x1,-0x122c(%rbp)
   11faf:	01 00 
   11fb1:	66 c7 85 d6 ed ff ff 	movw   $0x1,-0x122a(%rbp)
   11fb8:	01 00 
   11fba:	66 c7 85 d8 ed ff ff 	movw   $0x2d5b,-0x1228(%rbp)
   11fc1:	5b 2d 
   11fc3:	66 c7 85 da ed ff ff 	movw   $0x186c,-0x1226(%rbp)
   11fca:	6c 18 
   11fcc:	66 c7 85 dc ed ff ff 	movw   $0x450b,-0x1224(%rbp)
   11fd3:	0b 45 
   11fd5:	66 c7 85 de ed ff ff 	movw   $0x3,-0x1222(%rbp)
   11fdc:	03 00 
   11fde:	66 c7 85 e0 ed ff ff 	movw   $0x0,-0x1220(%rbp)
   11fe5:	00 00 
   11fe7:	66 c7 85 e2 ed ff ff 	movw   $0x3cd8,-0x121e(%rbp)
   11fee:	d8 3c 
   11ff0:	66 c7 85 e4 ed ff ff 	movw   $0xffff,-0x121c(%rbp)
   11ff7:	ff ff 
   11ff9:	66 c7 85 e6 ed ff ff 	movw   $0x0,-0x121a(%rbp)
   12000:	00 00 
   12002:	66 c7 85 e8 ed ff ff 	movw   $0xffff,-0x1218(%rbp)
   12009:	ff ff 
   1200b:	66 c7 85 ea ed ff ff 	movw   $0x8e3a,-0x1216(%rbp)
   12012:	3a 8e 
   12014:	66 c7 85 ec ed ff ff 	movw   $0xffff,-0x1214(%rbp)
   1201b:	ff ff 
   1201d:	66 c7 85 ee ed ff ff 	movw   $0x0,-0x1212(%rbp)
   12024:	00 00 
   12026:	66 c7 85 f0 ed ff ff 	movw   $0xffff,-0x1210(%rbp)
   1202d:	ff ff 
   1202f:	66 c7 85 f2 ed ff ff 	movw   $0x3cd8,-0x120e(%rbp)
   12036:	d8 3c 
   12038:	66 c7 85 f4 ed ff ff 	movw   $0x0,-0x120c(%rbp)
   1203f:	00 00 
   12041:	66 c7 85 f6 ed ff ff 	movw   $0x3,-0x120a(%rbp)
   12048:	03 00 
   1204a:	c6 85 1e e8 ff ff f8 	movb   $0xf8,-0x17e2(%rbp)
   12051:	48 8d 05 58 70 00 00 	lea    0x7058(%rip),%rax        # 190b0 <g_77>
   12058:	48 89 85 90 e9 ff ff 	mov    %rax,-0x1670(%rbp)
   1205f:	48 8b 05 9a a4 00 00 	mov    0xa49a(%rip),%rax        # 1c500 <g_446>
   12066:	8b 08                	mov    (%rax),%ecx
   12068:	48 8b 95 e8 e7 ff ff 	mov    -0x1818(%rbp),%rdx
   1206f:	8b 12                	mov    (%rdx),%edx
   12071:	21 ca                	and    %ecx,%edx
   12073:	89 10                	mov    %edx,(%rax)
   12075:	0f b6 85 fc e7 ff ff 	movzbl -0x1804(%rbp),%eax
   1207c:	0f b6 d8             	movzbl %al,%ebx
   1207f:	48 8b 05 12 a1 00 00 	mov    0xa112(%rip),%rax        # 1c198 <g_371>
   12086:	48 8b 00             	mov    (%rax),%rax
   12089:	48 8b 00             	mov    (%rax),%rax
   1208c:	49 89 c7             	mov    %rax,%r15
   1208f:	48 8b 05 ea a0 00 00 	mov    0xa0ea(%rip),%rax        # 1c180 <g_277>
   12096:	44 8b 28             	mov    (%rax),%r13d
   12099:	48 8b 85 00 e8 ff ff 	mov    -0x1800(%rbp),%rax
   120a0:	0f b6 c0             	movzbl %al,%eax
   120a3:	be 03 00 00 00       	mov    $0x3,%esi
   120a8:	89 c7                	mov    %eax,%edi
   120aa:	e8 0f 7c ff ff       	callq  9cbe <safe_rshift_func_uint8_t_u_u>
   120af:	84 c0                	test   %al,%al
   120b1:	0f 84 de 00 00 00    	je     12195 <func_26+0x1e04>
   120b7:	0f b6 85 fc e7 ff ff 	movzbl -0x1804(%rbp),%eax
   120be:	44 0f b6 e0          	movzbl %al,%r12d
   120c2:	0f b6 05 27 70 00 00 	movzbl 0x7027(%rip),%eax        # 190f0 <g_285>
   120c9:	44 0f b6 f0          	movzbl %al,%r14d
   120cd:	48 8b 85 e8 e7 ff ff 	mov    -0x1818(%rbp),%rax
   120d4:	8b 00                	mov    (%rax),%eax
   120d6:	89 85 e4 e7 ff ff    	mov    %eax,-0x181c(%rbp)
   120dc:	0f b6 85 fc e7 ff ff 	movzbl -0x1804(%rbp),%eax
   120e3:	0f b6 d0             	movzbl %al,%edx
   120e6:	0f b6 85 fc e7 ff ff 	movzbl -0x1804(%rbp),%eax
   120ed:	0f b6 c8             	movzbl %al,%ecx
   120f0:	8b 85 60 e8 ff ff    	mov    -0x17a0(%rbp),%eax
   120f6:	0d b3 20 0b 25       	or     $0x250b20b3,%eax
   120fb:	48 98                	cltq   
   120fd:	48 09 c8             	or     %rcx,%rax
   12100:	48 39 85 00 e8 ff ff 	cmp    %rax,-0x1800(%rbp)
   12107:	0f 95 c0             	setne  %al
   1210a:	89 c1                	mov    %eax,%ecx
   1210c:	0f b7 05 11 6f 00 00 	movzwl 0x6f11(%rip),%eax        # 19024 <g_8>
   12113:	31 c1                	xor    %eax,%ecx
   12115:	48 8b 85 20 e9 ff ff 	mov    -0x16e0(%rbp),%rax
   1211c:	8b 00                	mov    (%rax),%eax
   1211e:	09 c8                	or     %ecx,%eax
   12120:	0f be c0             	movsbl %al,%eax
   12123:	89 d6                	mov    %edx,%esi
   12125:	89 c7                	mov    %eax,%edi
   12127:	e8 40 72 ff ff       	callq  936c <safe_rshift_func_int8_t_s_u>
   1212c:	0f be c0             	movsbl %al,%eax
   1212f:	8b b5 e4 e7 ff ff    	mov    -0x181c(%rbp),%esi
   12135:	89 c7                	mov    %eax,%edi
   12137:	e8 c1 7d ff ff       	callq  9efd <safe_mod_func_uint32_t_u_u>
   1213c:	89 c6                	mov    %eax,%esi
   1213e:	bf ff ff ff ff       	mov    $0xffffffff,%edi
   12143:	e8 1b 74 ff ff       	callq  9563 <safe_rshift_func_int16_t_s_u>
   12148:	98                   	cwtl   
   12149:	41 39 c6             	cmp    %eax,%r14d
   1214c:	74 24                	je     12172 <func_26+0x1de1>
   1214e:	48 8b 85 20 e9 ff ff 	mov    -0x16e0(%rbp),%rax
   12155:	8b 00                	mov    (%rax),%eax
   12157:	85 c0                	test   %eax,%eax
   12159:	74 17                	je     12172 <func_26+0x1de1>
   1215b:	48 8b 85 28 e9 ff ff 	mov    -0x16d8(%rbp),%rax
   12162:	48 8b 00             	mov    (%rax),%rax
   12165:	8b 00                	mov    (%rax),%eax
   12167:	85 c0                	test   %eax,%eax
   12169:	74 07                	je     12172 <func_26+0x1de1>
   1216b:	b8 01 00 00 00       	mov    $0x1,%eax
   12170:	eb 05                	jmp    12177 <func_26+0x1de6>
   12172:	b8 00 00 00 00       	mov    $0x0,%eax
   12177:	48 98                	cltq   
   12179:	4c 89 e6             	mov    %r12,%rsi
   1217c:	48 89 c7             	mov    %rax,%rdi
   1217f:	e8 c7 7e ff ff       	callq  a04b <safe_sub_func_uint64_t_u_u>
   12184:	48 83 bd 00 e8 ff ff 	cmpq   $0x0,-0x1800(%rbp)
   1218b:	00 
   1218c:	74 07                	je     12195 <func_26+0x1e04>
   1218e:	b8 01 00 00 00       	mov    $0x1,%eax
   12193:	eb 05                	jmp    1219a <func_26+0x1e09>
   12195:	b8 00 00 00 00       	mov    $0x0,%eax
   1219a:	be 35 c2 19 cf       	mov    $0xcf19c235,%esi
   1219f:	89 c7                	mov    %eax,%edi
   121a1:	e8 57 7d ff ff       	callq  9efd <safe_mod_func_uint32_t_u_u>
   121a6:	41 39 c5             	cmp    %eax,%r13d
   121a9:	0f b6 85 fc e7 ff ff 	movzbl -0x1804(%rbp),%eax
   121b0:	84 c0                	test   %al,%al
   121b2:	74 07                	je     121bb <func_26+0x1e2a>
   121b4:	ba 01 00 00 00       	mov    $0x1,%edx
   121b9:	eb 05                	jmp    121c0 <func_26+0x1e2f>
   121bb:	ba 00 00 00 00       	mov    $0x0,%edx
   121c0:	48 8b 85 08 e8 ff ff 	mov    -0x17f8(%rbp),%rax
   121c7:	8b 00                	mov    (%rax),%eax
   121c9:	09 d0                	or     %edx,%eax
   121cb:	48 98                	cltq   
   121cd:	48 be 3e 75 33 05 16 	movabs $0xb8c32160533753e,%rsi
   121d4:	32 8c 0b 
   121d7:	48 89 c7             	mov    %rax,%rdi
   121da:	e8 c9 76 ff ff       	callq  98a8 <safe_sub_func_int64_t_s_s>
   121df:	4c 89 fe             	mov    %r15,%rsi
   121e2:	48 89 c7             	mov    %rax,%rdi
   121e5:	e8 61 7e ff ff       	callq  a04b <safe_sub_func_uint64_t_u_u>
   121ea:	89 c6                	mov    %eax,%esi
   121ec:	bf 00 00 00 00       	mov    $0x0,%edi
   121f1:	e8 34 73 ff ff       	callq  952a <safe_rshift_func_int16_t_s_s>
   121f6:	48 0f bf c0          	movswq %ax,%rax
   121fa:	48 89 de             	mov    %rbx,%rsi
   121fd:	48 89 c7             	mov    %rax,%rdi
   12200:	e8 f2 77 ff ff       	callq  99f7 <safe_div_func_int64_t_s_s>
   12205:	48 85 c0             	test   %rax,%rax
   12208:	0f 84 a4 0d 00 00    	je     12fb2 <func_26+0x2c21>
   1220e:	c7 85 9c e8 ff ff 06 	movl   $0x6,-0x1764(%rbp)
   12215:	00 00 00 
   12218:	48 8d 85 40 f0 ff ff 	lea    -0xfc0(%rbp),%rax
   1221f:	48 8d 15 5a 8e 00 00 	lea    0x8e5a(%rip),%rdx        # 1b080 <g_2473+0x15ec>
   12226:	b9 4b 00 00 00       	mov    $0x4b,%ecx
   1222b:	48 89 c7             	mov    %rax,%rdi
   1222e:	48 89 d6             	mov    %rdx,%rsi
   12231:	f3 48 a5             	rep movsq %ds:(%rsi),%es:(%rdi)
   12234:	48 8d 85 18 e9 ff ff 	lea    -0x16e8(%rbp),%rax
   1223b:	48 89 85 b8 e9 ff ff 	mov    %rax,-0x1648(%rbp)
   12242:	c6 85 1f e8 ff ff ef 	movb   $0xef,-0x17e1(%rbp)
   12249:	48 c7 85 c0 e9 ff ff 	movq   $0x0,-0x1640(%rbp)
   12250:	00 00 00 00 
   12254:	48 c7 85 40 e9 ff ff 	movq   $0x0,-0x16c0(%rbp)
   1225b:	00 00 00 00 
   1225f:	48 8d 85 40 e9 ff ff 	lea    -0x16c0(%rbp),%rax
   12266:	48 89 85 c8 e9 ff ff 	mov    %rax,-0x1638(%rbp)
   1226d:	c6 85 20 e8 ff ff 0a 	movb   $0xa,-0x17e0(%rbp)
   12274:	66 c7 05 7d 6e 00 00 	movw   $0x11,0x6e7d(%rip)        # 190fa <g_390>
   1227b:	11 00 
   1227d:	e9 1a 0d 00 00       	jmpq   12f9c <func_26+0x2c0b>
   12282:	48 8d 05 29 6e 00 00 	lea    0x6e29(%rip),%rax        # 190b2 <g_78>
   12289:	48 89 85 10 eb ff ff 	mov    %rax,-0x14f0(%rbp)
   12290:	48 8d 05 95 6d 00 00 	lea    0x6d95(%rip),%rax        # 1902c <g_39>
   12297:	48 89 85 18 eb ff ff 	mov    %rax,-0x14e8(%rbp)
   1229e:	48 c7 85 20 eb ff ff 	movq   $0x0,-0x14e0(%rbp)
   122a5:	00 00 00 00 
   122a9:	48 c7 85 28 eb ff ff 	movq   $0x0,-0x14d8(%rbp)
   122b0:	00 00 00 00 
   122b4:	48 8d 05 71 6d 00 00 	lea    0x6d71(%rip),%rax        # 1902c <g_39>
   122bb:	48 89 85 30 eb ff ff 	mov    %rax,-0x14d0(%rbp)
   122c2:	48 8d 05 e9 6d 00 00 	lea    0x6de9(%rip),%rax        # 190b2 <g_78>
   122c9:	48 89 85 38 eb ff ff 	mov    %rax,-0x14c8(%rbp)
   122d0:	48 8d 05 55 6d 00 00 	lea    0x6d55(%rip),%rax        # 1902c <g_39>
   122d7:	48 89 85 40 eb ff ff 	mov    %rax,-0x14c0(%rbp)
   122de:	48 c7 85 48 eb ff ff 	movq   $0x0,-0x14b8(%rbp)
   122e5:	00 00 00 00 
   122e9:	48 8d 05 3c 6d 00 00 	lea    0x6d3c(%rip),%rax        # 1902c <g_39>
   122f0:	48 89 85 50 eb ff ff 	mov    %rax,-0x14b0(%rbp)
   122f7:	48 8d 05 b4 6d 00 00 	lea    0x6db4(%rip),%rax        # 190b2 <g_78>
   122fe:	48 89 85 58 eb ff ff 	mov    %rax,-0x14a8(%rbp)
   12305:	48 8d 05 20 6d 00 00 	lea    0x6d20(%rip),%rax        # 1902c <g_39>
   1230c:	48 89 85 60 eb ff ff 	mov    %rax,-0x14a0(%rbp)
   12313:	48 8d 05 98 6d 00 00 	lea    0x6d98(%rip),%rax        # 190b2 <g_78>
   1231a:	48 89 85 68 eb ff ff 	mov    %rax,-0x1498(%rbp)
   12321:	48 8d 05 04 6d 00 00 	lea    0x6d04(%rip),%rax        # 1902c <g_39>
   12328:	48 89 85 70 eb ff ff 	mov    %rax,-0x1490(%rbp)
   1232f:	48 8d 05 f6 6c 00 00 	lea    0x6cf6(%rip),%rax        # 1902c <g_39>
   12336:	48 89 85 78 eb ff ff 	mov    %rax,-0x1488(%rbp)
   1233d:	48 8d 05 6e 6d 00 00 	lea    0x6d6e(%rip),%rax        # 190b2 <g_78>
   12344:	48 89 85 80 eb ff ff 	mov    %rax,-0x1480(%rbp)
   1234b:	c7 85 a0 e8 ff ff 01 	movl   $0x1,-0x1760(%rbp)
   12352:	00 00 00 
   12355:	48 8d 05 24 ad 00 00 	lea    0xad24(%rip),%rax        # 1d080 <g_253>
   1235c:	48 89 85 d0 e9 ff ff 	mov    %rax,-0x1630(%rbp)
   12363:	48 c7 85 d8 e9 ff ff 	movq   $0x0,-0x1628(%rbp)
   1236a:	00 00 00 00 
   1236e:	c7 85 a4 e8 ff ff a4 	movl   $0xb9f633a4,-0x175c(%rbp)
   12375:	33 f6 b9 
   12378:	c7 85 a8 e8 ff ff 86 	movl   $0x649c3e86,-0x1758(%rbp)
   1237f:	3e 9c 64 
   12382:	c7 85 ac e8 ff ff 4d 	movl   $0x81a0d94d,-0x1754(%rbp)
   12389:	d9 a0 81 
   1238c:	c7 85 b0 e8 ff ff f8 	movl   $0xfffffff8,-0x1750(%rbp)
   12393:	ff ff ff 
   12396:	c7 85 b4 e8 ff ff 58 	movl   $0xb202ae58,-0x174c(%rbp)
   1239d:	ae 02 b2 
   123a0:	48 8d 85 18 e9 ff ff 	lea    -0x16e8(%rbp),%rax
   123a7:	48 89 85 c0 f8 ff ff 	mov    %rax,-0x740(%rbp)
   123ae:	48 c7 85 c8 f8 ff ff 	movq   $0x0,-0x738(%rbp)
   123b5:	00 00 00 00 
   123b9:	48 8d 85 18 e9 ff ff 	lea    -0x16e8(%rbp),%rax
   123c0:	48 89 85 d0 f8 ff ff 	mov    %rax,-0x730(%rbp)
   123c7:	48 8d 85 18 e9 ff ff 	lea    -0x16e8(%rbp),%rax
   123ce:	48 89 85 d8 f8 ff ff 	mov    %rax,-0x728(%rbp)
   123d5:	48 c7 85 e0 f8 ff ff 	movq   $0x0,-0x720(%rbp)
   123dc:	00 00 00 00 
   123e0:	48 c7 85 e8 f8 ff ff 	movq   $0x0,-0x718(%rbp)
   123e7:	00 00 00 00 
   123eb:	48 c7 85 f0 f8 ff ff 	movq   $0x0,-0x710(%rbp)
   123f2:	00 00 00 00 
   123f6:	48 8d 85 18 e9 ff ff 	lea    -0x16e8(%rbp),%rax
   123fd:	48 89 85 f8 f8 ff ff 	mov    %rax,-0x708(%rbp)
   12404:	48 8d 85 18 e9 ff ff 	lea    -0x16e8(%rbp),%rax
   1240b:	48 89 85 00 f9 ff ff 	mov    %rax,-0x700(%rbp)
   12412:	48 c7 85 08 f9 ff ff 	movq   $0x0,-0x6f8(%rbp)
   12419:	00 00 00 00 
   1241d:	48 8d 85 18 e9 ff ff 	lea    -0x16e8(%rbp),%rax
   12424:	48 89 85 10 f9 ff ff 	mov    %rax,-0x6f0(%rbp)
   1242b:	48 8d 85 18 e9 ff ff 	lea    -0x16e8(%rbp),%rax
   12432:	48 89 85 18 f9 ff ff 	mov    %rax,-0x6e8(%rbp)
   12439:	48 c7 85 20 f9 ff ff 	movq   $0x0,-0x6e0(%rbp)
   12440:	00 00 00 00 
   12444:	48 c7 85 28 f9 ff ff 	movq   $0x0,-0x6d8(%rbp)
   1244b:	00 00 00 00 
   1244f:	48 c7 85 30 f9 ff ff 	movq   $0x0,-0x6d0(%rbp)
   12456:	00 00 00 00 
   1245a:	48 8d 85 18 e9 ff ff 	lea    -0x16e8(%rbp),%rax
   12461:	48 89 85 38 f9 ff ff 	mov    %rax,-0x6c8(%rbp)
   12468:	48 8d 85 18 e9 ff ff 	lea    -0x16e8(%rbp),%rax
   1246f:	48 89 85 40 f9 ff ff 	mov    %rax,-0x6c0(%rbp)
   12476:	48 c7 85 48 f9 ff ff 	movq   $0x0,-0x6b8(%rbp)
   1247d:	00 00 00 00 
   12481:	48 8d 85 18 e9 ff ff 	lea    -0x16e8(%rbp),%rax
   12488:	48 89 85 50 f9 ff ff 	mov    %rax,-0x6b0(%rbp)
   1248f:	48 8d 85 18 e9 ff ff 	lea    -0x16e8(%rbp),%rax
   12496:	48 89 85 58 f9 ff ff 	mov    %rax,-0x6a8(%rbp)
   1249d:	48 c7 85 60 f9 ff ff 	movq   $0x0,-0x6a0(%rbp)
   124a4:	00 00 00 00 
   124a8:	48 c7 85 68 f9 ff ff 	movq   $0x0,-0x698(%rbp)
   124af:	00 00 00 00 
   124b3:	48 c7 85 70 f9 ff ff 	movq   $0x0,-0x690(%rbp)
   124ba:	00 00 00 00 
   124be:	48 8d 85 18 e9 ff ff 	lea    -0x16e8(%rbp),%rax
   124c5:	48 89 85 78 f9 ff ff 	mov    %rax,-0x688(%rbp)
   124cc:	48 8d 85 18 e9 ff ff 	lea    -0x16e8(%rbp),%rax
   124d3:	48 89 85 80 f9 ff ff 	mov    %rax,-0x680(%rbp)
   124da:	48 c7 85 88 f9 ff ff 	movq   $0x0,-0x678(%rbp)
   124e1:	00 00 00 00 
   124e5:	48 8d 85 18 e9 ff ff 	lea    -0x16e8(%rbp),%rax
   124ec:	48 89 85 90 f9 ff ff 	mov    %rax,-0x670(%rbp)
   124f3:	48 8d 85 18 e9 ff ff 	lea    -0x16e8(%rbp),%rax
   124fa:	48 89 85 98 f9 ff ff 	mov    %rax,-0x668(%rbp)
   12501:	48 c7 85 a0 f9 ff ff 	movq   $0x0,-0x660(%rbp)
   12508:	00 00 00 00 
   1250c:	48 c7 85 a8 f9 ff ff 	movq   $0x0,-0x658(%rbp)
   12513:	00 00 00 00 
   12517:	48 c7 85 b0 f9 ff ff 	movq   $0x0,-0x650(%rbp)
   1251e:	00 00 00 00 
   12522:	48 8d 85 18 e9 ff ff 	lea    -0x16e8(%rbp),%rax
   12529:	48 89 85 b8 f9 ff ff 	mov    %rax,-0x648(%rbp)
   12530:	48 8d 85 18 e9 ff ff 	lea    -0x16e8(%rbp),%rax
   12537:	48 89 85 c0 f9 ff ff 	mov    %rax,-0x640(%rbp)
   1253e:	48 c7 85 c8 f9 ff ff 	movq   $0x0,-0x638(%rbp)
   12545:	00 00 00 00 
   12549:	48 8d 85 18 e9 ff ff 	lea    -0x16e8(%rbp),%rax
   12550:	48 89 85 d0 f9 ff ff 	mov    %rax,-0x630(%rbp)
   12557:	48 8d 85 18 e9 ff ff 	lea    -0x16e8(%rbp),%rax
   1255e:	48 89 85 d8 f9 ff ff 	mov    %rax,-0x628(%rbp)
   12565:	48 c7 85 e0 f9 ff ff 	movq   $0x0,-0x620(%rbp)
   1256c:	00 00 00 00 
   12570:	48 c7 85 e8 f9 ff ff 	movq   $0x0,-0x618(%rbp)
   12577:	00 00 00 00 
   1257b:	48 c7 85 f0 f9 ff ff 	movq   $0x0,-0x610(%rbp)
   12582:	00 00 00 00 
   12586:	48 8d 85 18 e9 ff ff 	lea    -0x16e8(%rbp),%rax
   1258d:	48 89 85 f8 f9 ff ff 	mov    %rax,-0x608(%rbp)
   12594:	48 8d 85 18 e9 ff ff 	lea    -0x16e8(%rbp),%rax
   1259b:	48 89 85 00 fa ff ff 	mov    %rax,-0x600(%rbp)
   125a2:	48 c7 85 08 fa ff ff 	movq   $0x0,-0x5f8(%rbp)
   125a9:	00 00 00 00 
   125ad:	48 8d 85 18 e9 ff ff 	lea    -0x16e8(%rbp),%rax
   125b4:	48 89 85 10 fa ff ff 	mov    %rax,-0x5f0(%rbp)
   125bb:	48 8d 85 18 e9 ff ff 	lea    -0x16e8(%rbp),%rax
   125c2:	48 89 85 18 fa ff ff 	mov    %rax,-0x5e8(%rbp)
   125c9:	48 c7 85 20 fa ff ff 	movq   $0x0,-0x5e0(%rbp)
   125d0:	00 00 00 00 
   125d4:	48 c7 85 28 fa ff ff 	movq   $0x0,-0x5d8(%rbp)
   125db:	00 00 00 00 
   125df:	48 c7 85 30 fa ff ff 	movq   $0x0,-0x5d0(%rbp)
   125e6:	00 00 00 00 
   125ea:	48 8d 85 18 e9 ff ff 	lea    -0x16e8(%rbp),%rax
   125f1:	48 89 85 38 fa ff ff 	mov    %rax,-0x5c8(%rbp)
   125f8:	48 8d 85 18 e9 ff ff 	lea    -0x16e8(%rbp),%rax
   125ff:	48 89 85 40 fa ff ff 	mov    %rax,-0x5c0(%rbp)
   12606:	48 c7 85 48 fa ff ff 	movq   $0x0,-0x5b8(%rbp)
   1260d:	00 00 00 00 
   12611:	48 8d 85 18 e9 ff ff 	lea    -0x16e8(%rbp),%rax
   12618:	48 89 85 50 fa ff ff 	mov    %rax,-0x5b0(%rbp)
   1261f:	48 8d 85 18 e9 ff ff 	lea    -0x16e8(%rbp),%rax
   12626:	48 89 85 58 fa ff ff 	mov    %rax,-0x5a8(%rbp)
   1262d:	48 c7 85 60 fa ff ff 	movq   $0x0,-0x5a0(%rbp)
   12634:	00 00 00 00 
   12638:	48 c7 85 68 fa ff ff 	movq   $0x0,-0x598(%rbp)
   1263f:	00 00 00 00 
   12643:	48 c7 85 70 fa ff ff 	movq   $0x0,-0x590(%rbp)
   1264a:	00 00 00 00 
   1264e:	48 8d 85 18 e9 ff ff 	lea    -0x16e8(%rbp),%rax
   12655:	48 89 85 78 fa ff ff 	mov    %rax,-0x588(%rbp)
   1265c:	48 8d 85 18 e9 ff ff 	lea    -0x16e8(%rbp),%rax
   12663:	48 89 85 80 fa ff ff 	mov    %rax,-0x580(%rbp)
   1266a:	48 c7 85 88 fa ff ff 	movq   $0x0,-0x578(%rbp)
   12671:	00 00 00 00 
   12675:	48 8d 85 18 e9 ff ff 	lea    -0x16e8(%rbp),%rax
   1267c:	48 89 85 90 fa ff ff 	mov    %rax,-0x570(%rbp)
   12683:	48 8d 85 18 e9 ff ff 	lea    -0x16e8(%rbp),%rax
   1268a:	48 89 85 98 fa ff ff 	mov    %rax,-0x568(%rbp)
   12691:	48 c7 85 a0 fa ff ff 	movq   $0x0,-0x560(%rbp)
   12698:	00 00 00 00 
   1269c:	48 c7 85 a8 fa ff ff 	movq   $0x0,-0x558(%rbp)
   126a3:	00 00 00 00 
   126a7:	48 c7 85 b0 fa ff ff 	movq   $0x0,-0x550(%rbp)
   126ae:	00 00 00 00 
   126b2:	48 8d 85 18 e9 ff ff 	lea    -0x16e8(%rbp),%rax
   126b9:	48 89 85 b8 fa ff ff 	mov    %rax,-0x548(%rbp)
   126c0:	48 8d 85 18 e9 ff ff 	lea    -0x16e8(%rbp),%rax
   126c7:	48 89 85 c0 fa ff ff 	mov    %rax,-0x540(%rbp)
   126ce:	48 c7 85 c8 fa ff ff 	movq   $0x0,-0x538(%rbp)
   126d5:	00 00 00 00 
   126d9:	48 8d 85 18 e9 ff ff 	lea    -0x16e8(%rbp),%rax
   126e0:	48 89 85 d0 fa ff ff 	mov    %rax,-0x530(%rbp)
   126e7:	48 8d 85 18 e9 ff ff 	lea    -0x16e8(%rbp),%rax
   126ee:	48 89 85 d8 fa ff ff 	mov    %rax,-0x528(%rbp)
   126f5:	48 c7 85 e0 fa ff ff 	movq   $0x0,-0x520(%rbp)
   126fc:	00 00 00 00 
   12700:	48 c7 85 e8 fa ff ff 	movq   $0x0,-0x518(%rbp)
   12707:	00 00 00 00 
   1270b:	48 c7 85 f0 fa ff ff 	movq   $0x0,-0x510(%rbp)
   12712:	00 00 00 00 
   12716:	48 8d 85 18 e9 ff ff 	lea    -0x16e8(%rbp),%rax
   1271d:	48 89 85 f8 fa ff ff 	mov    %rax,-0x508(%rbp)
   12724:	48 8d 85 18 e9 ff ff 	lea    -0x16e8(%rbp),%rax
   1272b:	48 89 85 00 fb ff ff 	mov    %rax,-0x500(%rbp)
   12732:	48 c7 85 08 fb ff ff 	movq   $0x0,-0x4f8(%rbp)
   12739:	00 00 00 00 
   1273d:	48 8d 85 18 e9 ff ff 	lea    -0x16e8(%rbp),%rax
   12744:	48 89 85 10 fb ff ff 	mov    %rax,-0x4f0(%rbp)
   1274b:	48 8d 85 18 e9 ff ff 	lea    -0x16e8(%rbp),%rax
   12752:	48 89 85 18 fb ff ff 	mov    %rax,-0x4e8(%rbp)
   12759:	48 c7 85 20 fb ff ff 	movq   $0x0,-0x4e0(%rbp)
   12760:	00 00 00 00 
   12764:	48 c7 85 28 fb ff ff 	movq   $0x0,-0x4d8(%rbp)
   1276b:	00 00 00 00 
   1276f:	48 c7 85 30 fb ff ff 	movq   $0x0,-0x4d0(%rbp)
   12776:	00 00 00 00 
   1277a:	48 8d 85 18 e9 ff ff 	lea    -0x16e8(%rbp),%rax
   12781:	48 89 85 38 fb ff ff 	mov    %rax,-0x4c8(%rbp)
   12788:	48 8d 85 18 e9 ff ff 	lea    -0x16e8(%rbp),%rax
   1278f:	48 89 85 40 fb ff ff 	mov    %rax,-0x4c0(%rbp)
   12796:	48 c7 85 48 fb ff ff 	movq   $0x0,-0x4b8(%rbp)
   1279d:	00 00 00 00 
   127a1:	48 8d 85 18 e9 ff ff 	lea    -0x16e8(%rbp),%rax
   127a8:	48 89 85 50 fb ff ff 	mov    %rax,-0x4b0(%rbp)
   127af:	48 8d 85 18 e9 ff ff 	lea    -0x16e8(%rbp),%rax
   127b6:	48 89 85 58 fb ff ff 	mov    %rax,-0x4a8(%rbp)
   127bd:	48 c7 85 60 fb ff ff 	movq   $0x0,-0x4a0(%rbp)
   127c4:	00 00 00 00 
   127c8:	48 c7 85 68 fb ff ff 	movq   $0x0,-0x498(%rbp)
   127cf:	00 00 00 00 
   127d3:	48 c7 85 70 fb ff ff 	movq   $0x0,-0x490(%rbp)
   127da:	00 00 00 00 
   127de:	48 8d 85 18 e9 ff ff 	lea    -0x16e8(%rbp),%rax
   127e5:	48 89 85 78 fb ff ff 	mov    %rax,-0x488(%rbp)
   127ec:	48 8d 85 18 e9 ff ff 	lea    -0x16e8(%rbp),%rax
   127f3:	48 89 85 80 fb ff ff 	mov    %rax,-0x480(%rbp)
   127fa:	48 c7 85 88 fb ff ff 	movq   $0x0,-0x478(%rbp)
   12801:	00 00 00 00 
   12805:	c7 85 b8 e8 ff ff e3 	movl   $0x1eca0de3,-0x1748(%rbp)
   1280c:	0d ca 1e 
   1280f:	c6 85 21 e8 ff ff fe 	movb   $0xfe,-0x17df(%rbp)
   12816:	48 c7 85 e0 e9 ff ff 	movq   $0x1,-0x1620(%rbp)
   1281d:	01 00 00 00 
   12821:	c7 85 40 e8 ff ff 00 	movl   $0x0,-0x17c0(%rbp)
   12828:	00 00 00 
   1282b:	eb 4d                	jmp    1287a <func_26+0x24e9>
   1282d:	c7 85 44 e8 ff ff 00 	movl   $0x0,-0x17bc(%rbp)
   12834:	00 00 00 
   12837:	eb 31                	jmp    1286a <func_26+0x24d9>
   12839:	8b 85 44 e8 ff ff    	mov    -0x17bc(%rbp),%eax
   1283f:	48 63 c8             	movslq %eax,%rcx
   12842:	8b 85 40 e8 ff ff    	mov    -0x17c0(%rbp),%eax
   12848:	48 63 d0             	movslq %eax,%rdx
   1284b:	48 89 d0             	mov    %rdx,%rax
   1284e:	48 c1 e0 03          	shl    $0x3,%rax
   12852:	48 29 d0             	sub    %rdx,%rax
   12855:	48 01 c8             	add    %rcx,%rax
   12858:	c7 84 85 a0 ea ff ff 	movl   $0xfffffff9,-0x1560(%rbp,%rax,4)
   1285f:	f9 ff ff ff 
   12863:	83 85 44 e8 ff ff 01 	addl   $0x1,-0x17bc(%rbp)
   1286a:	83 bd 44 e8 ff ff 06 	cmpl   $0x6,-0x17bc(%rbp)
   12871:	7e c6                	jle    12839 <func_26+0x24a8>
   12873:	83 85 40 e8 ff ff 01 	addl   $0x1,-0x17c0(%rbp)
   1287a:	83 bd 40 e8 ff ff 00 	cmpl   $0x0,-0x17c0(%rbp)
   12881:	7e aa                	jle    1282d <func_26+0x249c>
   12883:	8b 05 9f 67 00 00    	mov    0x679f(%rip),%eax        # 19028 <g_33>
   12889:	0f be d8             	movsbl %al,%ebx
   1288c:	48 8b 85 20 e9 ff ff 	mov    -0x16e0(%rbp),%rax
   12893:	44 8b 20             	mov    (%rax),%r12d
   12896:	0f b6 05 13 68 00 00 	movzbl 0x6813(%rip),%eax        # 190b0 <g_77>
   1289d:	0f be d0             	movsbl %al,%edx
   128a0:	b8 08 00 00 00       	mov    $0x8,%eax
   128a5:	98                   	cwtl   
   128a6:	89 d6                	mov    %edx,%esi
   128a8:	89 c7                	mov    %eax,%edi
   128aa:	e8 67 6b ff ff       	callq  9416 <safe_mod_func_int16_t_s_s>
   128af:	48 0f bf d0          	movswq %ax,%rdx
   128b3:	0f b6 85 fc e7 ff ff 	movzbl -0x1804(%rbp),%eax
   128ba:	0f b6 c0             	movzbl %al,%eax
   128bd:	48 89 d6             	mov    %rdx,%rsi
   128c0:	48 89 c7             	mov    %rax,%rdi
   128c3:	e8 b8 77 ff ff       	callq  a080 <safe_mod_func_uint64_t_u_u>
   128c8:	48 8b 15 b1 a7 00 00 	mov    0xa7b1(%rip),%rdx        # 1d080 <g_253>
   128cf:	48 8b 85 d0 e9 ff ff 	mov    -0x1630(%rbp),%rax
   128d6:	48 89 10             	mov    %rdx,(%rax)
   128d9:	48 8b 05 00 95 00 00 	mov    0x9500(%rip),%rax        # 1bde0 <g_239>
   128e0:	48 8b 00             	mov    (%rax),%rax
   128e3:	48 8b 00             	mov    (%rax),%rax
   128e6:	48 85 c0             	test   %rax,%rax
   128e9:	75 1f                	jne    1290a <func_26+0x2579>
   128eb:	8b 85 9c e8 ff ff    	mov    -0x1764(%rbp),%eax
   128f1:	0f bf d0             	movswl %ax,%edx
   128f4:	48 8b 85 00 e8 ff ff 	mov    -0x1800(%rbp),%rax
   128fb:	98                   	cwtl   
   128fc:	89 d6                	mov    %edx,%esi
   128fe:	89 c7                	mov    %eax,%edi
   12900:	e8 ae 6a ff ff       	callq  93b3 <safe_add_func_int16_t_s_s>
   12905:	66 85 c0             	test   %ax,%ax
   12908:	74 07                	je     12911 <func_26+0x2580>
   1290a:	b8 01 00 00 00       	mov    $0x1,%eax
   1290f:	eb 05                	jmp    12916 <func_26+0x2585>
   12911:	b8 00 00 00 00       	mov    $0x0,%eax
   12916:	be ab c0 97 59       	mov    $0x5997c0ab,%esi
   1291b:	89 c7                	mov    %eax,%edi
   1291d:	e8 dd 6d ff ff       	callq  96ff <safe_div_func_int32_t_s_s>
   12922:	89 c2                	mov    %eax,%edx
   12924:	48 8b 85 28 e9 ff ff 	mov    -0x16d8(%rbp),%rax
   1292b:	48 8b 00             	mov    (%rax),%rax
   1292e:	8b 00                	mov    (%rax),%eax
   12930:	89 85 a0 e8 ff ff    	mov    %eax,-0x1760(%rbp)
   12936:	8b 85 a0 e8 ff ff    	mov    -0x1760(%rbp),%eax
   1293c:	0f b7 c0             	movzwl %ax,%eax
   1293f:	89 d6                	mov    %edx,%esi
   12941:	89 c7                	mov    %eax,%edi
   12943:	e8 32 75 ff ff       	callq  9e7a <safe_rshift_func_uint16_t_u_u>
   12948:	be 93 14 96 3c       	mov    $0x3c961493,%esi
   1294d:	bf 00 00 00 00       	mov    $0x0,%edi
   12952:	e8 5f 6c ff ff       	callq  95b6 <safe_add_func_int32_t_s_s>
   12957:	98                   	cwtl   
   12958:	44 89 e6             	mov    %r12d,%esi
   1295b:	89 c7                	mov    %eax,%edi
   1295d:	e8 c8 6b ff ff       	callq  952a <safe_rshift_func_int16_t_s_s>
   12962:	0f be c0             	movsbl %al,%eax
   12965:	89 de                	mov    %ebx,%esi
   12967:	89 c7                	mov    %eax,%edi
   12969:	e8 c3 68 ff ff       	callq  9231 <safe_mod_func_int8_t_s_s>
   1296e:	89 c2                	mov    %eax,%edx
   12970:	48 8b 05 d1 8c 00 00 	mov    0x8cd1(%rip),%rax        # 1b648 <g_143>
   12977:	48 8b 00             	mov    (%rax),%rax
   1297a:	0f be d2             	movsbl %dl,%edx
   1297d:	89 10                	mov    %edx,(%rax)
   1297f:	66 c7 85 22 e8 ff ff 	movw   $0x6,-0x17de(%rbp)
   12986:	06 00 
   12988:	eb 6c                	jmp    129f6 <func_26+0x2665>
   1298a:	c7 85 f0 e8 ff ff 0b 	movl   $0xee0fa0b,-0x1710(%rbp)
   12991:	fa e0 0e 
   12994:	c7 85 f4 e8 ff ff fb 	movl   $0xfffffffb,-0x170c(%rbp)
   1299b:	ff ff ff 
   1299e:	c7 85 f8 e8 ff ff 80 	movl   $0x97a59480,-0x1708(%rbp)
   129a5:	94 a5 97 
   129a8:	c7 85 fc e8 ff ff 00 	movl   $0x0,-0x1704(%rbp)
   129af:	00 00 00 
   129b2:	c7 85 00 e9 ff ff ff 	movl   $0xffffffff,-0x1700(%rbp)
   129b9:	ff ff ff 
   129bc:	c7 85 48 e8 ff ff 00 	movl   $0x0,-0x17b8(%rbp)
   129c3:	00 00 00 
   129c6:	eb 14                	jmp    129dc <func_26+0x264b>
   129c8:	8b 85 48 e8 ff ff    	mov    -0x17b8(%rbp),%eax
   129ce:	48 98                	cltq   
   129d0:	c6 44 05 c6 00       	movb   $0x0,-0x3a(%rbp,%rax,1)
   129d5:	83 85 48 e8 ff ff 01 	addl   $0x1,-0x17b8(%rbp)
   129dc:	83 bd 48 e8 ff ff 01 	cmpl   $0x1,-0x17b8(%rbp)
   129e3:	7e e3                	jle    129c8 <func_26+0x2637>
   129e5:	0f b7 85 22 e8 ff ff 	movzwl -0x17de(%rbp),%eax
   129ec:	83 e8 01             	sub    $0x1,%eax
   129ef:	66 89 85 22 e8 ff ff 	mov    %ax,-0x17de(%rbp)
   129f6:	66 83 bd 22 e8 ff ff 	cmpw   $0x1,-0x17de(%rbp)
   129fd:	01 
   129fe:	7f 8a                	jg     1298a <func_26+0x25f9>
   12a00:	48 c7 05 bd 66 00 00 	movq   $0x0,0x66bd(%rip)        # 190c8 <g_147>
   12a07:	00 00 00 00 
   12a0b:	e9 4c 05 00 00       	jmpq   12f5c <func_26+0x2bcb>
   12a10:	48 b8 83 7f 89 fa 3d 	movabs $0xeebcd03dfa897f83,%rax
   12a17:	d0 bc ee 
   12a1a:	48 89 85 e8 e9 ff ff 	mov    %rax,-0x1618(%rbp)
   12a21:	48 8d 05 88 66 00 00 	lea    0x6688(%rip),%rax        # 190b0 <g_77>
   12a28:	48 89 85 f0 e9 ff ff 	mov    %rax,-0x1610(%rbp)
   12a2f:	c7 85 bc e8 ff ff 09 	movl   $0x9,-0x1744(%rbp)
   12a36:	00 00 00 
   12a39:	c7 85 c0 e8 ff ff b9 	movl   $0x9dcdb1b9,-0x1740(%rbp)
   12a40:	b1 cd 9d 
   12a43:	c7 85 c4 e8 ff ff fe 	movl   $0xfffffffe,-0x173c(%rbp)
   12a4a:	ff ff ff 
   12a4d:	c7 85 c8 e8 ff ff 01 	movl   $0x1,-0x1738(%rbp)
   12a54:	00 00 00 
   12a57:	c7 85 cc e8 ff ff 00 	movl   $0x0,-0x1734(%rbp)
   12a5e:	00 00 00 
   12a61:	c7 85 d0 e8 ff ff 75 	movl   $0xac779f75,-0x1730(%rbp)
   12a68:	9f 77 ac 
   12a6b:	c7 85 d4 e8 ff ff 00 	movl   $0x0,-0x172c(%rbp)
   12a72:	00 00 00 
   12a75:	c7 85 d8 e8 ff ff fb 	movl   $0xfffffffb,-0x1728(%rbp)
   12a7c:	ff ff ff 
   12a7f:	c7 85 dc e8 ff ff 00 	movl   $0x0,-0x1724(%rbp)
   12a86:	00 00 00 
   12a89:	c7 85 e0 e8 ff ff 4c 	movl   $0x3a29c64c,-0x1720(%rbp)
   12a90:	c6 29 3a 
   12a93:	c7 85 e4 e8 ff ff e8 	movl   $0x457f49e8,-0x171c(%rbp)
   12a9a:	49 7f 45 
   12a9d:	c7 85 80 ea ff ff f7 	movl   $0xfffffff7,-0x1580(%rbp)
   12aa4:	ff ff ff 
   12aa7:	c7 85 84 ea ff ff 9c 	movl   $0x802629c,-0x157c(%rbp)
   12aae:	62 02 08 
   12ab1:	c7 85 88 ea ff ff 9c 	movl   $0x802629c,-0x1578(%rbp)
   12ab8:	62 02 08 
   12abb:	c7 85 8c ea ff ff f7 	movl   $0xfffffff7,-0x1574(%rbp)
   12ac2:	ff ff ff 
   12ac5:	c7 85 90 ea ff ff 9c 	movl   $0x802629c,-0x1570(%rbp)
   12acc:	62 02 08 
   12acf:	c7 85 94 ea ff ff 9c 	movl   $0x802629c,-0x156c(%rbp)
   12ad6:	62 02 08 
   12ad9:	66 c7 85 24 e8 ff ff 	movw   $0x4f3b,-0x17dc(%rbp)
   12ae0:	3b 4f 
   12ae2:	c7 85 4c e8 ff ff 00 	movl   $0x0,-0x17b4(%rbp)
   12ae9:	00 00 00 
   12aec:	eb 1e                	jmp    12b0c <func_26+0x277b>
   12aee:	8b 85 4c e8 ff ff    	mov    -0x17b4(%rbp),%eax
   12af4:	48 98                	cltq   
   12af6:	48 8d 15 73 a5 00 00 	lea    0xa573(%rip),%rdx        # 1d070 <g_156>
   12afd:	48 89 94 c5 58 ea ff 	mov    %rdx,-0x15a8(%rbp,%rax,8)
   12b04:	ff 
   12b05:	83 85 4c e8 ff ff 01 	addl   $0x1,-0x17b4(%rbp)
   12b0c:	83 bd 4c e8 ff ff 00 	cmpl   $0x0,-0x17b4(%rbp)
   12b13:	7e d9                	jle    12aee <func_26+0x275d>
   12b15:	66 c7 85 22 e8 ff ff 	movw   $0xffe2,-0x17de(%rbp)
   12b1c:	e2 ff 
   12b1e:	eb 29                	jmp    12b49 <func_26+0x27b8>
   12b20:	48 8b 05 d9 99 00 00 	mov    0x99d9(%rip),%rax        # 1c500 <g_446>
   12b27:	8b 00                	mov    (%rax),%eax
   12b29:	85 c0                	test   %eax,%eax
   12b2b:	75 28                	jne    12b55 <func_26+0x27c4>
   12b2d:	48 0f bf 85 22 e8 ff 	movswq -0x17de(%rbp),%rax
   12b34:	ff 
   12b35:	be 03 00 00 00       	mov    $0x3,%esi
   12b3a:	48 89 c7             	mov    %rax,%rdi
   12b3d:	e8 ec 74 ff ff       	callq  a02e <safe_add_func_uint64_t_u_u>
   12b42:	66 89 85 22 e8 ff ff 	mov    %ax,-0x17de(%rbp)
   12b49:	66 83 bd 22 e8 ff ff 	cmpw   $0xf,-0x17de(%rbp)
   12b50:	0f 
   12b51:	7f cd                	jg     12b20 <func_26+0x278f>
   12b53:	eb 01                	jmp    12b56 <func_26+0x27c5>
   12b55:	90                   	nop
   12b56:	48 8b 85 00 e8 ff ff 	mov    -0x1800(%rbp),%rax
   12b5d:	0f bf d8             	movswl %ax,%ebx
   12b60:	0f b6 85 fc e7 ff ff 	movzbl -0x1804(%rbp),%eax
   12b67:	44 0f b6 f8          	movzbl %al,%r15d
   12b6b:	0f b6 85 fc e7 ff ff 	movzbl -0x1804(%rbp),%eax
   12b72:	44 0f b6 e0          	movzbl %al,%r12d
   12b76:	44 8b ad b8 e8 ff ff 	mov    -0x1748(%rbp),%r13d
   12b7d:	8b 05 b1 64 00 00    	mov    0x64b1(%rip),%eax        # 19034 <g_60>
   12b83:	44 0f b6 f0          	movzbl %al,%r14d
   12b87:	48 8b 85 00 e8 ff ff 	mov    -0x1800(%rbp),%rax
   12b8e:	89 c6                	mov    %eax,%esi
   12b90:	48 8b 05 79 99 00 00 	mov    0x9979(%rip),%rax        # 1c510 <g_632>
   12b97:	0f b6 10             	movzbl (%rax),%edx
   12b9a:	48 8b 85 28 fa ff ff 	mov    -0x5d8(%rbp),%rax
   12ba1:	48 89 85 b8 e9 ff ff 	mov    %rax,-0x1648(%rbp)
   12ba8:	48 83 bd b8 e9 ff ff 	cmpq   $0x0,-0x1648(%rbp)
   12baf:	00 
   12bb0:	0f 95 c0             	setne  %al
   12bb3:	0f b6 c8             	movzbl %al,%ecx
   12bb6:	8b 05 40 65 00 00    	mov    0x6540(%rip),%eax        # 190fc <g_403>
   12bbc:	39 c1                	cmp    %eax,%ecx
   12bbe:	0f 95 c0             	setne  %al
   12bc1:	89 c1                	mov    %eax,%ecx
   12bc3:	48 8b 85 f0 e9 ff ff 	mov    -0x1610(%rbp),%rax
   12bca:	88 08                	mov    %cl,(%rax)
   12bcc:	48 8b 85 f0 e9 ff ff 	mov    -0x1610(%rbp),%rax
   12bd3:	0f b6 00             	movzbl (%rax),%eax
   12bd6:	38 c2                	cmp    %al,%dl
   12bd8:	0f 95 c0             	setne  %al
   12bdb:	0f b6 d0             	movzbl %al,%edx
   12bde:	0f b6 85 fc e7 ff ff 	movzbl -0x1804(%rbp),%eax
   12be5:	0f b6 c0             	movzbl %al,%eax
   12be8:	39 c2                	cmp    %eax,%edx
   12bea:	0f 95 c0             	setne  %al
   12bed:	0f b6 c0             	movzbl %al,%eax
   12bf0:	89 c7                	mov    %eax,%edi
   12bf2:	e8 0e 6a ff ff       	callq  9605 <safe_sub_func_int32_t_s_s>
   12bf7:	48 8b 95 20 e9 ff ff 	mov    -0x16e0(%rbp),%rdx
   12bfe:	8b 12                	mov    (%rdx),%edx
   12c00:	39 d0                	cmp    %edx,%eax
   12c02:	0f 9c c0             	setl   %al
   12c05:	f7 d0                	not    %eax
   12c07:	0f b6 c0             	movzbl %al,%eax
   12c0a:	44 89 f6             	mov    %r14d,%esi
   12c0d:	89 c7                	mov    %eax,%edi
   12c0f:	e8 64 6f ff ff       	callq  9b78 <safe_sub_func_uint8_t_u_u>
   12c14:	3c a9                	cmp    $0xa9,%al
   12c16:	0f 97 c0             	seta   %al
   12c19:	0f b6 c0             	movzbl %al,%eax
   12c1c:	89 c7                	mov    %eax,%edi
   12c1e:	e8 22 6f ff ff       	callq  9b45 <safe_unary_minus_func_uint8_t_u>
   12c23:	0f b6 c0             	movzbl %al,%eax
   12c26:	48 39 85 e8 e9 ff ff 	cmp    %rax,-0x1618(%rbp)
   12c2d:	0f 95 c0             	setne  %al
   12c30:	0f b6 c0             	movzbl %al,%eax
   12c33:	44 89 ee             	mov    %r13d,%esi
   12c36:	89 c7                	mov    %eax,%edi
   12c38:	e8 0f 70 ff ff       	callq  9c4c <safe_lshift_func_uint8_t_u_u>
   12c3d:	8b 05 ed 63 00 00    	mov    0x63ed(%rip),%eax        # 19030 <g_43>
   12c43:	89 c2                	mov    %eax,%edx
   12c45:	0f b7 05 d8 63 00 00 	movzwl 0x63d8(%rip),%eax        # 19024 <g_8>
   12c4c:	31 d0                	xor    %edx,%eax
   12c4e:	89 c2                	mov    %eax,%edx
   12c50:	8b 05 8e 64 00 00    	mov    0x648e(%rip),%eax        # 190e4 <g_249>
   12c56:	09 d0                	or     %edx,%eax
   12c58:	98                   	cwtl   
   12c59:	44 89 e6             	mov    %r12d,%esi
   12c5c:	89 c7                	mov    %eax,%edi
   12c5e:	e8 70 67 ff ff       	callq  93d3 <safe_sub_func_int16_t_s_s>
   12c63:	98                   	cwtl   
   12c64:	89 c6                	mov    %eax,%esi
   12c66:	bf 12 00 00 00       	mov    $0x12,%edi
   12c6b:	e8 c5 66 ff ff       	callq  9335 <safe_rshift_func_int8_t_s_s>
   12c70:	0f be c0             	movsbl %al,%eax
   12c73:	41 39 c7             	cmp    %eax,%r15d
   12c76:	0f 95 c0             	setne  %al
   12c79:	0f b6 c0             	movzbl %al,%eax
   12c7c:	48 8b 95 e8 e9 ff ff 	mov    -0x1618(%rbp),%rdx
   12c83:	31 d0                	xor    %edx,%eax
   12c85:	98                   	cwtl   
   12c86:	89 de                	mov    %ebx,%esi
   12c88:	89 c7                	mov    %eax,%edi
   12c8a:	e8 24 67 ff ff       	callq  93b3 <safe_add_func_int16_t_s_s>
   12c8f:	48 8d 05 2a 64 00 00 	lea    0x642a(%rip),%rax        # 190c0 <g_129>
   12c96:	48 89 85 f8 e9 ff ff 	mov    %rax,-0x1608(%rbp)
   12c9d:	48 8b 85 f8 e9 ff ff 	mov    -0x1608(%rbp),%rax
   12ca4:	8b 00                	mov    (%rax),%eax
   12ca6:	8d 48 01             	lea    0x1(%rax),%ecx
   12ca9:	48 8b 95 f8 e9 ff ff 	mov    -0x1608(%rbp),%rdx
   12cb0:	89 0a                	mov    %ecx,(%rdx)
   12cb2:	85 c0                	test   %eax,%eax
   12cb4:	74 0b                	je     12cc1 <func_26+0x2930>
   12cb6:	48 8b 85 20 e9 ff ff 	mov    -0x16e0(%rbp),%rax
   12cbd:	8b 00                	mov    (%rax),%eax
   12cbf:	85 c0                	test   %eax,%eax
   12cc1:	48 8b 85 e8 e7 ff ff 	mov    -0x1818(%rbp),%rax
   12cc8:	c7 00 01 00 00 00    	movl   $0x1,(%rax)
   12cce:	48 8b 05 2b 98 00 00 	mov    0x982b(%rip),%rax        # 1c500 <g_446>
   12cd5:	48 8b 95 e8 e7 ff ff 	mov    -0x1818(%rbp),%rdx
   12cdc:	8b 12                	mov    (%rdx),%edx
   12cde:	89 10                	mov    %edx,(%rax)
   12ce0:	48 8b 85 28 e9 ff ff 	mov    -0x16d8(%rbp),%rax
   12ce7:	48 8b 95 08 e8 ff ff 	mov    -0x17f8(%rbp),%rdx
   12cee:	48 89 10             	mov    %rdx,(%rax)
   12cf1:	48 8b 05 08 98 00 00 	mov    0x9808(%rip),%rax        # 1c500 <g_446>
   12cf8:	8b 08                	mov    (%rax),%ecx
   12cfa:	48 8b 15 47 89 00 00 	mov    0x8947(%rip),%rdx        # 1b648 <g_143>
   12d01:	48 8b 12             	mov    (%rdx),%rdx
   12d04:	8b 12                	mov    (%rdx),%edx
   12d06:	09 ca                	or     %ecx,%edx
   12d08:	89 10                	mov    %edx,(%rax)
   12d0a:	8b 00                	mov    (%rax),%eax
   12d0c:	85 c0                	test   %eax,%eax
   12d0e:	0f 84 98 01 00 00    	je     12eac <func_26+0x2b1b>
   12d14:	48 8d 05 0d 64 00 00 	lea    0x640d(%rip),%rax        # 19128 <g_570+0x8>
   12d1b:	48 89 85 08 ea ff ff 	mov    %rax,-0x15f8(%rbp)
   12d22:	48 c7 85 10 ea ff ff 	movq   $0x0,-0x15f0(%rbp)
   12d29:	00 00 00 00 
   12d2d:	c7 85 e8 e8 ff ff 78 	movl   $0x82818878,-0x1718(%rbp)
   12d34:	88 81 82 
   12d37:	c7 85 ec e8 ff ff 1d 	movl   $0xd5a98e1d,-0x1714(%rbp)
   12d3e:	8e a9 d5 
   12d41:	c7 85 50 e8 ff ff 00 	movl   $0x0,-0x17b0(%rbp)
   12d48:	00 00 00 
   12d4b:	eb 1e                	jmp    12d6b <func_26+0x29da>
   12d4d:	8b 85 50 e8 ff ff    	mov    -0x17b0(%rbp),%eax
   12d53:	48 98                	cltq   
   12d55:	48 8d 95 1c e8 ff ff 	lea    -0x17e4(%rbp),%rdx
   12d5c:	48 89 94 c5 d0 ea ff 	mov    %rdx,-0x1530(%rbp,%rax,8)
   12d63:	ff 
   12d64:	83 85 50 e8 ff ff 01 	addl   $0x1,-0x17b0(%rbp)
   12d6b:	83 bd 50 e8 ff ff 01 	cmpl   $0x1,-0x17b0(%rbp)
   12d72:	7e d9                	jle    12d4d <func_26+0x29bc>
   12d74:	48 83 bd 08 ea ff ff 	cmpq   $0x0,-0x15f8(%rbp)
   12d7b:	00 
   12d7c:	0f 85 1a 01 00 00    	jne    12e9c <func_26+0x2b0b>
   12d82:	c6 85 fc e7 ff ff 45 	movb   $0x45,-0x1804(%rbp)
   12d89:	b8 00 00 00 00       	mov    $0x0,%eax
   12d8e:	0f b6 c0             	movzbl %al,%eax
   12d91:	be 45 00 00 00       	mov    $0x45,%esi
   12d96:	89 c7                	mov    %eax,%edi
   12d98:	e8 3e 6e ff ff       	callq  9bdb <safe_div_func_uint8_t_u_u>
   12d9d:	48 8b 85 08 e8 ff ff 	mov    -0x17f8(%rbp),%rax
   12da4:	8b 18                	mov    (%rax),%ebx
   12da6:	48 8b 85 00 e8 ff ff 	mov    -0x1800(%rbp),%rax
   12dad:	44 0f be e0          	movsbl %al,%r12d
   12db1:	0f b6 85 fc e7 ff ff 	movzbl -0x1804(%rbp),%eax
   12db8:	44 0f b6 e8          	movzbl %al,%r13d
   12dbc:	0f b6 85 fc e7 ff ff 	movzbl -0x1804(%rbp),%eax
   12dc3:	84 c0                	test   %al,%al
   12dc5:	74 28                	je     12def <func_26+0x2a5e>
   12dc7:	48 8b 05 b2 93 00 00 	mov    0x93b2(%rip),%rax        # 1c180 <g_277>
   12dce:	8b 00                	mov    (%rax),%eax
   12dd0:	85 c0                	test   %eax,%eax
   12dd2:	0f 95 c0             	setne  %al
   12dd5:	0f b6 c0             	movzbl %al,%eax
   12dd8:	be 03 00 00 00       	mov    $0x3,%esi
   12ddd:	89 c7                	mov    %eax,%edi
   12ddf:	e8 94 6d ff ff       	callq  9b78 <safe_sub_func_uint8_t_u_u>
   12de4:	84 c0                	test   %al,%al
   12de6:	74 07                	je     12def <func_26+0x2a5e>
   12de8:	b8 01 00 00 00       	mov    $0x1,%eax
   12ded:	eb 05                	jmp    12df4 <func_26+0x2a63>
   12def:	b8 00 00 00 00       	mov    $0x0,%eax
   12df4:	85 c0                	test   %eax,%eax
   12df6:	0f 9f c0             	setg   %al
   12df9:	0f b6 c0             	movzbl %al,%eax
   12dfc:	44 89 ee             	mov    %r13d,%esi
   12dff:	89 c7                	mov    %eax,%edi
   12e01:	e8 ad 65 ff ff       	callq  93b3 <safe_add_func_int16_t_s_s>
   12e06:	0f b6 85 fc e7 ff ff 	movzbl -0x1804(%rbp),%eax
   12e0d:	0f b6 c0             	movzbl %al,%eax
   12e10:	be 01 00 00 00       	mov    $0x1,%esi
   12e15:	89 c7                	mov    %eax,%edi
   12e17:	e8 ea 6f ff ff       	callq  9e06 <safe_lshift_func_uint16_t_u_u>
   12e1c:	48 8b 05 ed 96 00 00 	mov    0x96ed(%rip),%rax        # 1c510 <g_632>
   12e23:	0f b6 00             	movzbl (%rax),%eax
   12e26:	0f be d0             	movsbl %al,%edx
   12e29:	83 bd e8 e8 ff ff 2e 	cmpl   $0x2e,-0x1718(%rbp)
   12e30:	0f 95 c0             	setne  %al
   12e33:	0f b6 c8             	movzbl %al,%ecx
   12e36:	48 8b 85 20 e9 ff ff 	mov    -0x16e0(%rbp),%rax
   12e3d:	8b 00                	mov    (%rax),%eax
   12e3f:	39 c1                	cmp    %eax,%ecx
   12e41:	0f 9d c0             	setge  %al
   12e44:	0f b6 c0             	movzbl %al,%eax
   12e47:	39 c2                	cmp    %eax,%edx
   12e49:	0f 9d c0             	setge  %al
   12e4c:	0f b6 d0             	movzbl %al,%edx
   12e4f:	0f b6 85 fc e7 ff ff 	movzbl -0x1804(%rbp),%eax
   12e56:	0f b6 c0             	movzbl %al,%eax
   12e59:	31 d0                	xor    %edx,%eax
   12e5b:	09 85 2c e8 ff ff    	or     %eax,-0x17d4(%rbp)
   12e61:	8b 85 2c e8 ff ff    	mov    -0x17d4(%rbp),%eax
   12e67:	0f be c0             	movsbl %al,%eax
   12e6a:	44 89 e6             	mov    %r12d,%esi
   12e6d:	89 c7                	mov    %eax,%edi
   12e6f:	e8 9e 63 ff ff       	callq  9212 <safe_mul_func_int8_t_s_s>
   12e74:	0f be c0             	movsbl %al,%eax
   12e77:	89 de                	mov    %ebx,%esi
   12e79:	89 c7                	mov    %eax,%edi
   12e7b:	e8 36 67 ff ff       	callq  95b6 <safe_add_func_int32_t_s_s>
   12e80:	48 98                	cltq   
   12e82:	48 be f0 fa 24 9a 07 	movabs $0xf60df0079a24faf0,%rsi
   12e89:	f0 0d f6 
   12e8c:	48 89 c7             	mov    %rax,%rdi
   12e8f:	e8 63 6b ff ff       	callq  99f7 <safe_div_func_int64_t_s_s>
   12e94:	b8 00 00 00 00       	mov    $0x0,%eax
   12e99:	83 f8 ff             	cmp    $0xffffffff,%eax
   12e9c:	b8 01 00 00 00       	mov    $0x1,%eax
   12ea1:	21 85 ec e8 ff ff    	and    %eax,-0x1714(%rbp)
   12ea7:	e9 90 00 00 00       	jmpq   12f3c <func_26+0x2bab>
   12eac:	c7 85 d0 ea ff ff f0 	movl   $0x12d461f0,-0x1530(%rbp)
   12eb3:	61 d4 12 
   12eb6:	c7 85 d4 ea ff ff fe 	movl   $0xfffffffe,-0x152c(%rbp)
   12ebd:	ff ff ff 
   12ec0:	c7 85 d8 ea ff ff fe 	movl   $0xfffffffe,-0x1528(%rbp)
   12ec7:	ff ff ff 
   12eca:	c7 85 dc ea ff ff f0 	movl   $0x12d461f0,-0x1524(%rbp)
   12ed1:	61 d4 12 
   12ed4:	c7 85 e0 ea ff ff fe 	movl   $0xfffffffe,-0x1520(%rbp)
   12edb:	ff ff ff 
   12ede:	c7 85 e4 ea ff ff fe 	movl   $0xfffffffe,-0x151c(%rbp)
   12ee5:	ff ff ff 
   12ee8:	c7 85 e8 ea ff ff f0 	movl   $0x12d461f0,-0x1518(%rbp)
   12eef:	61 d4 12 
   12ef2:	c7 85 ec ea ff ff fe 	movl   $0xfffffffe,-0x1514(%rbp)
   12ef9:	ff ff ff 
   12efc:	48 8d 05 29 61 00 00 	lea    0x6129(%rip),%rax        # 1902c <g_39>
   12f03:	48 89 85 00 ea ff ff 	mov    %rax,-0x1600(%rbp)
   12f0a:	8b 85 d8 ea ff ff    	mov    -0x1528(%rbp),%eax
   12f10:	85 c0                	test   %eax,%eax
   12f12:	75 59                	jne    12f6d <func_26+0x2bdc>
   12f14:	48 83 bd 00 ea ff ff 	cmpq   $0x0,-0x1600(%rbp)
   12f1b:	00 
   12f1c:	0f 95 c0             	setne  %al
   12f1f:	0f b6 d0             	movzbl %al,%edx
   12f22:	48 8b 85 e8 e7 ff ff 	mov    -0x1818(%rbp),%rax
   12f29:	89 10                	mov    %edx,(%rax)
   12f2b:	48 8b 05 16 87 00 00 	mov    0x8716(%rip),%rax        # 1b648 <g_143>
   12f32:	48 8b 95 e8 e7 ff ff 	mov    -0x1818(%rbp),%rdx
   12f39:	48 89 10             	mov    %rdx,(%rax)
   12f3c:	48 8b 05 85 61 00 00 	mov    0x6185(%rip),%rax        # 190c8 <g_147>
   12f43:	0f b6 c0             	movzbl %al,%eax
   12f46:	be 09 00 00 00       	mov    $0x9,%esi
   12f4b:	89 c7                	mov    %eax,%edi
   12f4d:	e8 26 6c ff ff       	callq  9b78 <safe_sub_func_uint8_t_u_u>
   12f52:	0f b6 c0             	movzbl %al,%eax
   12f55:	48 89 05 6c 61 00 00 	mov    %rax,0x616c(%rip)        # 190c8 <g_147>
   12f5c:	48 8b 05 65 61 00 00 	mov    0x6165(%rip),%rax        # 190c8 <g_147>
   12f63:	48 83 f8 ee          	cmp    $0xffffffffffffffee,%rax
   12f67:	0f 85 a3 fa ff ff    	jne    12a10 <func_26+0x267f>
   12f6d:	0f b6 85 d6 ec ff ff 	movzbl -0x132a(%rbp),%eax
   12f74:	83 e8 01             	sub    $0x1,%eax
   12f77:	88 85 d6 ec ff ff    	mov    %al,-0x132a(%rbp)
   12f7d:	0f b7 05 76 61 00 00 	movzwl 0x6176(%rip),%eax        # 190fa <g_390>
   12f84:	48 0f bf c0          	movswq %ax,%rax
   12f88:	be 01 00 00 00       	mov    $0x1,%esi
   12f8d:	48 89 c7             	mov    %rax,%rdi
   12f90:	e8 13 69 ff ff       	callq  98a8 <safe_sub_func_int64_t_s_s>
   12f95:	66 89 05 5e 61 00 00 	mov    %ax,0x615e(%rip)        # 190fa <g_390>
   12f9c:	0f b7 05 57 61 00 00 	movzwl 0x6157(%rip),%eax        # 190fa <g_390>
   12fa3:	66 83 f8 10          	cmp    $0x10,%ax
   12fa7:	0f 8e d5 f2 ff ff    	jle    12282 <func_26+0x1ef1>
   12fad:	e9 89 00 00 00       	jmpq   1303b <func_26+0x2caa>
   12fb2:	48 c7 85 98 e9 ff ff 	movq   $0xfffffffffffffffa,-0x1668(%rbp)
   12fb9:	fa ff ff ff 
   12fbd:	c7 85 94 e8 ff ff 92 	movl   $0x67ad9292,-0x176c(%rbp)
   12fc4:	92 ad 67 
   12fc7:	c7 85 3c e8 ff ff 12 	movl   $0x12,-0x17c4(%rbp)
   12fce:	00 00 00 
   12fd1:	eb 4d                	jmp    13020 <func_26+0x2c8f>
   12fd3:	48 8d 05 96 61 00 00 	lea    0x6196(%rip),%rax        # 19170 <g_759>
   12fda:	48 89 85 a0 e9 ff ff 	mov    %rax,-0x1660(%rbp)
   12fe1:	48 8d 05 90 61 00 00 	lea    0x6190(%rip),%rax        # 19178 <g_761>
   12fe8:	48 89 85 a8 e9 ff ff 	mov    %rax,-0x1658(%rbp)
   12fef:	c7 85 98 e8 ff ff 96 	movl   $0x4be78696,-0x1768(%rbp)
   12ff6:	86 e7 4b 
   12ff9:	48 8d 05 6c 61 00 00 	lea    0x616c(%rip),%rax        # 1916c <g_676>
   13000:	48 89 85 b0 e9 ff ff 	mov    %rax,-0x1650(%rbp)
   13007:	8b 85 3c e8 ff ff    	mov    -0x17c4(%rbp),%eax
   1300d:	be 02 00 00 00       	mov    $0x2,%esi
   13012:	48 89 c7             	mov    %rax,%rdi
   13015:	e8 14 70 ff ff       	callq  a02e <safe_add_func_uint64_t_u_u>
   1301a:	89 85 3c e8 ff ff    	mov    %eax,-0x17c4(%rbp)
   13020:	83 bd 3c e8 ff ff 2e 	cmpl   $0x2e,-0x17c4(%rbp)
   13027:	76 aa                	jbe    12fd3 <func_26+0x2c42>
   13029:	48 8b 85 08 e8 ff ff 	mov    -0x17f8(%rbp),%rax
   13030:	8b 10                	mov    (%rax),%edx
   13032:	48 8b 85 08 e8 ff ff 	mov    -0x17f8(%rbp),%rax
   13039:	89 10                	mov    %edx,(%rax)
   1303b:	48 8b 85 20 e9 ff ff 	mov    -0x16e0(%rbp),%rax
   13042:	8b 00                	mov    (%rax),%eax
   13044:	48 98                	cltq   
   13046:	48 8b 5d c8          	mov    -0x38(%rbp),%rbx
   1304a:	64 48 33 1c 25 28 00 	xor    %fs:0x28,%rbx
   13051:	00 00 
   13053:	74 05                	je     1305a <func_26+0x2cc9>
   13055:	e8 16 60 ff ff       	callq  9070 <__stack_chk_fail@plt>
   1305a:	48 81 c4 f8 17 00 00 	add    $0x17f8,%rsp
   13061:	5b                   	pop    %rbx
   13062:	41 5c                	pop    %r12
   13064:	41 5d                	pop    %r13
   13066:	41 5e                	pop    %r14
   13068:	41 5f                	pop    %r15
   1306a:	5d                   	pop    %rbp
   1306b:	c3                   	retq   

000000000001306c <func_34>:
   1306c:	f3 0f 1e fa          	endbr64 
   13070:	55                   	push   %rbp
   13071:	48 89 e5             	mov    %rsp,%rbp
   13074:	89 7d ec             	mov    %edi,-0x14(%rbp)
   13077:	48 8d 05 b2 5f 00 00 	lea    0x5fb2(%rip),%rax        # 19030 <g_43>
   1307e:	48 89 45 f8          	mov    %rax,-0x8(%rbp)
   13082:	48 8b 45 f8          	mov    -0x8(%rbp),%rax
   13086:	8b 00                	mov    (%rax),%eax
   13088:	83 f0 f8             	xor    $0xfffffff8,%eax
   1308b:	89 c2                	mov    %eax,%edx
   1308d:	48 8b 45 f8          	mov    -0x8(%rbp),%rax
   13091:	89 10                	mov    %edx,(%rax)
   13093:	8b 45 ec             	mov    -0x14(%rbp),%eax
   13096:	5d                   	pop    %rbp
   13097:	c3                   	retq   

0000000000013098 <func_36>:
   13098:	f3 0f 1e fa          	endbr64 
   1309c:	55                   	push   %rbp
   1309d:	48 89 e5             	mov    %rsp,%rbp
   130a0:	48 89 7d f8          	mov    %rdi,-0x8(%rbp)
   130a4:	89 f0                	mov    %esi,%eax
   130a6:	88 45 f4             	mov    %al,-0xc(%rbp)
   130a9:	0f b7 05 7c 5f 00 00 	movzwl 0x5f7c(%rip),%eax        # 1902c <g_39>
   130b0:	83 c0 01             	add    $0x1,%eax
   130b3:	66 89 05 72 5f 00 00 	mov    %ax,0x5f72(%rip)        # 1902c <g_39>
   130ba:	0f be 45 f4          	movsbl -0xc(%rbp),%eax
   130be:	5d                   	pop    %rbp
   130bf:	c3                   	retq   

00000000000130c0 <func_44>:
   130c0:	f3 0f 1e fa          	endbr64 
   130c4:	55                   	push   %rbp
   130c5:	48 89 e5             	mov    %rsp,%rbp
   130c8:	41 54                	push   %r12
   130ca:	53                   	push   %rbx
   130cb:	48 81 ec d0 04 00 00 	sub    $0x4d0,%rsp
   130d2:	89 bd 2c fb ff ff    	mov    %edi,-0x4d4(%rbp)
   130d8:	89 f0                	mov    %esi,%eax
   130da:	88 85 28 fb ff ff    	mov    %al,-0x4d8(%rbp)
   130e0:	64 48 8b 04 25 28 00 	mov    %fs:0x28,%rax
   130e7:	00 00 
   130e9:	48 89 45 e8          	mov    %rax,-0x18(%rbp)
   130ed:	31 c0                	xor    %eax,%eax
   130ef:	66 c7 85 3a fb ff ff 	movw   $0x1594,-0x4c6(%rbp)
   130f6:	94 15 
   130f8:	c7 85 3c fb ff ff 00 	movl   $0x0,-0x4c4(%rbp)
   130ff:	00 00 00 
   13102:	83 bd 2c fb ff ff 00 	cmpl   $0x0,-0x4d4(%rbp)
   13109:	0f 84 72 02 00 00    	je     13381 <func_44+0x2c1>
   1310f:	0f be 85 28 fb ff ff 	movsbl -0x4d8(%rbp),%eax
   13116:	39 85 2c fb ff ff    	cmp    %eax,-0x4d4(%rbp)
   1311c:	0f 85 5f 02 00 00    	jne    13381 <func_44+0x2c1>
   13122:	48 8d 95 c0 fb ff ff 	lea    -0x440(%rbp),%rdx
   13129:	b8 00 00 00 00       	mov    $0x0,%eax
   1312e:	b9 18 00 00 00       	mov    $0x18,%ecx
   13133:	48 89 d7             	mov    %rdx,%rdi
   13136:	f3 48 ab             	rep stos %rax,%es:(%rdi)
   13139:	48 8d 85 c0 fb ff ff 	lea    -0x440(%rbp),%rax
   13140:	48 83 c0 78          	add    $0x78,%rax
   13144:	48 89 85 48 fb ff ff 	mov    %rax,-0x4b8(%rbp)
   1314b:	c7 85 40 fb ff ff 01 	movl   $0x1,-0x4c0(%rbp)
   13152:	00 00 00 
   13155:	48 8d 05 ec 84 00 00 	lea    0x84ec(%rip),%rax        # 1b648 <g_143>
   1315c:	48 89 85 50 fb ff ff 	mov    %rax,-0x4b0(%rbp)
   13163:	48 8d 05 5e 5f 00 00 	lea    0x5f5e(%rip),%rax        # 190c8 <g_147>
   1316a:	48 89 85 58 fb ff ff 	mov    %rax,-0x4a8(%rbp)
   13171:	c7 85 44 fb ff ff ff 	movl   $0xffffffff,-0x4bc(%rbp)
   13178:	ff ff ff 
   1317b:	48 8d 85 3c fb ff ff 	lea    -0x4c4(%rbp),%rax
   13182:	48 89 85 60 fb ff ff 	mov    %rax,-0x4a0(%rbp)
   13189:	48 8d 85 80 fc ff ff 	lea    -0x380(%rbp),%rax
   13190:	48 8d 15 49 81 00 00 	lea    0x8149(%rip),%rdx        # 1b2e0 <g_2473+0x184c>
   13197:	b9 6c 00 00 00       	mov    $0x6c,%ecx
   1319c:	48 89 c7             	mov    %rax,%rdi
   1319f:	48 89 d6             	mov    %rdx,%rsi
   131a2:	f3 48 a5             	rep movsq %ds:(%rsi),%es:(%rdi)
   131a5:	48 c7 85 70 fb ff ff 	movq   $0x0,-0x490(%rbp)
   131ac:	00 00 00 00 
   131b0:	48 c7 85 78 fb ff ff 	movq   $0x0,-0x488(%rbp)
   131b7:	00 00 00 00 
   131bb:	48 c7 85 80 fb ff ff 	movq   $0x0,-0x480(%rbp)
   131c2:	00 00 00 00 
   131c6:	48 c7 85 88 fb ff ff 	movq   $0x0,-0x478(%rbp)
   131cd:	00 00 00 00 
   131d1:	48 c7 85 90 fb ff ff 	movq   $0x0,-0x470(%rbp)
   131d8:	00 00 00 00 
   131dc:	48 c7 85 98 fb ff ff 	movq   $0x0,-0x468(%rbp)
   131e3:	00 00 00 00 
   131e7:	48 c7 85 a0 fb ff ff 	movq   $0x0,-0x460(%rbp)
   131ee:	00 00 00 00 
   131f2:	48 c7 85 a8 fb ff ff 	movq   $0x0,-0x458(%rbp)
   131f9:	00 00 00 00 
   131fd:	48 c7 85 b0 fb ff ff 	movq   $0x0,-0x450(%rbp)
   13204:	00 00 00 00 
   13208:	48 c7 85 b8 fb ff ff 	movq   $0x0,-0x448(%rbp)
   1320f:	00 00 00 00 
   13213:	48 8d 85 70 fb ff ff 	lea    -0x490(%rbp),%rax
   1321a:	48 83 c0 30          	add    $0x30,%rax
   1321e:	48 89 85 68 fb ff ff 	mov    %rax,-0x498(%rbp)
   13225:	48 8b 85 48 fb ff ff 	mov    -0x4b8(%rbp),%rax
   1322c:	48 8d 15 f5 5d 00 00 	lea    0x5df5(%rip),%rdx        # 19028 <g_33>
   13233:	48 89 10             	mov    %rdx,(%rax)
   13236:	0f b7 05 75 5e 00 00 	movzwl 0x5e75(%rip),%eax        # 190b2 <g_78>
   1323d:	98                   	cwtl   
   1323e:	be 01 00 00 00       	mov    $0x1,%esi
   13243:	89 c7                	mov    %eax,%edi
   13245:	e8 48 62 ff ff       	callq  9492 <safe_lshift_func_int16_t_s_s>
   1324a:	0f bf d8             	movswl %ax,%ebx
   1324d:	0f b6 05 ec 5d 00 00 	movzbl 0x5dec(%rip),%eax        # 19040 <g_73>
   13254:	84 c0                	test   %al,%al
   13256:	0f 85 a5 00 00 00    	jne    13301 <func_44+0x241>
   1325c:	0f b7 85 3a fb ff ff 	movzwl -0x4c6(%rbp),%eax
   13263:	89 85 40 fb ff ff    	mov    %eax,-0x4c0(%rbp)
   13269:	44 8b a5 40 fb ff ff 	mov    -0x4c0(%rbp),%r12d
   13270:	48 8b 15 d1 83 00 00 	mov    0x83d1(%rip),%rdx        # 1b648 <g_143>
   13277:	48 8b 85 50 fb ff ff 	mov    -0x4b0(%rbp),%rax
   1327e:	48 89 10             	mov    %rdx,(%rax)
   13281:	b9 01 00 00 00       	mov    $0x1,%ecx
   13286:	48 8b 85 58 fb ff ff 	mov    -0x4a8(%rbp),%rax
   1328d:	48 8b 10             	mov    (%rax),%rdx
   13290:	48 63 c1             	movslq %ecx,%rax
   13293:	48 31 c2             	xor    %rax,%rdx
   13296:	48 8b 85 58 fb ff ff 	mov    -0x4a8(%rbp),%rax
   1329d:	48 89 10             	mov    %rdx,(%rax)
   132a0:	48 8b 85 58 fb ff ff 	mov    -0x4a8(%rbp),%rax
   132a7:	48 8b 10             	mov    (%rax),%rdx
   132aa:	0f b7 05 d5 5d 00 00 	movzwl 0x5dd5(%rip),%eax        # 19086 <g_75+0x6>
   132b1:	48 0f bf c0          	movswq %ax,%rax
   132b5:	48 39 c2             	cmp    %rax,%rdx
   132b8:	74 10                	je     132ca <func_44+0x20a>
   132ba:	80 bd 28 fb ff ff 00 	cmpb   $0x0,-0x4d8(%rbp)
   132c1:	74 07                	je     132ca <func_44+0x20a>
   132c3:	b8 01 00 00 00       	mov    $0x1,%eax
   132c8:	eb 05                	jmp    132cf <func_44+0x20f>
   132ca:	b8 00 00 00 00       	mov    $0x0,%eax
   132cf:	89 c7                	mov    %eax,%edi
   132d1:	e8 d0 6b ff ff       	callq  9ea6 <safe_unary_minus_func_uint32_t_u>
   132d6:	41 39 c4             	cmp    %eax,%r12d
   132d9:	0f 95 c0             	setne  %al
   132dc:	0f b6 d0             	movzbl %al,%edx
   132df:	8b 85 3c fb ff ff    	mov    -0x4c4(%rbp),%eax
   132e5:	21 d0                	and    %edx,%eax
   132e7:	89 85 3c fb ff ff    	mov    %eax,-0x4c4(%rbp)
   132ed:	8b 95 3c fb ff ff    	mov    -0x4c4(%rbp),%edx
   132f3:	0f b6 05 64 5d 00 00 	movzbl 0x5d64(%rip),%eax        # 1905e <g_73+0x1e>
   132fa:	0f be c0             	movsbl %al,%eax
   132fd:	31 d0                	xor    %edx,%eax
   132ff:	85 c0                	test   %eax,%eax
   13301:	8b 85 2c fb ff ff    	mov    -0x4d4(%rbp),%eax
   13307:	0f b7 c0             	movzwl %ax,%eax
   1330a:	89 c6                	mov    %eax,%esi
   1330c:	bf 91 e6 00 00       	mov    $0xe691,%edi
   13311:	e8 46 6a ff ff       	callq  9d5c <safe_mod_func_uint16_t_u_u>
   13316:	0f b7 c0             	movzwl %ax,%eax
   13319:	09 d8                	or     %ebx,%eax
   1331b:	31 85 44 fb ff ff    	xor    %eax,-0x4bc(%rbp)
   13321:	48 8b 85 60 fb ff ff 	mov    -0x4a0(%rbp),%rax
   13328:	8b 10                	mov    (%rax),%edx
   1332a:	0f b6 05 38 5d 00 00 	movzbl 0x5d38(%rip),%eax        # 19069 <g_73+0x29>
   13331:	48 0f be c8          	movsbq %al,%rcx
   13335:	48 8b 05 7c 5d 00 00 	mov    0x5d7c(%rip),%rax        # 190b8 <g_122>
   1333c:	48 39 c1             	cmp    %rax,%rcx
   1333f:	0f 97 c0             	seta   %al
   13342:	0f b6 c0             	movzbl %al,%eax
   13345:	21 c2                	and    %eax,%edx
   13347:	48 8b 85 60 fb ff ff 	mov    -0x4a0(%rbp),%rax
   1334e:	89 10                	mov    %edx,(%rax)
   13350:	b8 70 06 87 60       	mov    $0x60870670,%eax
   13355:	3d 2a 22 00 00       	cmp    $0x222a,%eax
   1335a:	0f 9f c0             	setg   %al
   1335d:	88 05 04 5d 00 00    	mov    %al,0x5d04(%rip)        # 19067 <g_73+0x27>
   13363:	48 8b 05 e6 82 00 00 	mov    0x82e6(%rip),%rax        # 1b650 <g_155>
   1336a:	48 8b 95 68 fb ff ff 	mov    -0x498(%rbp),%rdx
   13371:	48 89 10             	mov    %rdx,(%rax)
   13374:	90                   	nop
   13375:	48 8b 05 cc 82 00 00 	mov    0x82cc(%rip),%rax        # 1b648 <g_143>
   1337c:	48 8b 00             	mov    (%rax),%rax
   1337f:	eb 07                	jmp    13388 <func_44+0x2c8>
   13381:	48 8b 05 30 86 00 00 	mov    0x8630(%rip),%rax        # 1b9b8 <g_157+0x358>
   13388:	48 8b 5d e8          	mov    -0x18(%rbp),%rbx
   1338c:	64 48 33 1c 25 28 00 	xor    %fs:0x28,%rbx
   13393:	00 00 
   13395:	74 05                	je     1339c <func_44+0x2dc>
   13397:	e8 d4 5c ff ff       	callq  9070 <__stack_chk_fail@plt>
   1339c:	48 81 c4 d0 04 00 00 	add    $0x4d0,%rsp
   133a3:	5b                   	pop    %rbx
   133a4:	41 5c                	pop    %r12
   133a6:	5d                   	pop    %rbp
   133a7:	c3                   	retq   

00000000000133a8 <func_53>:
   133a8:	f3 0f 1e fa          	endbr64 
   133ac:	55                   	push   %rbp
   133ad:	48 89 e5             	mov    %rsp,%rbp
   133b0:	41 56                	push   %r14
   133b2:	41 55                	push   %r13
   133b4:	41 54                	push   %r12
   133b6:	53                   	push   %rbx
   133b7:	48 81 ec 80 02 00 00 	sub    $0x280,%rsp
   133be:	48 89 bd 78 fd ff ff 	mov    %rdi,-0x288(%rbp)
   133c5:	48 89 b5 70 fd ff ff 	mov    %rsi,-0x290(%rbp)
   133cc:	48 89 95 68 fd ff ff 	mov    %rdx,-0x298(%rbp)
   133d3:	64 48 8b 04 25 28 00 	mov    %fs:0x28,%rax
   133da:	00 00 
   133dc:	48 89 45 d8          	mov    %rax,-0x28(%rbp)
   133e0:	31 c0                	xor    %eax,%eax
   133e2:	48 8d 05 4b 5c 00 00 	lea    0x5c4b(%rip),%rax        # 19034 <g_60>
   133e9:	48 89 85 a0 fd ff ff 	mov    %rax,-0x260(%rbp)
   133f0:	48 8d 05 41 5c 00 00 	lea    0x5c41(%rip),%rax        # 19038 <g_66>
   133f7:	48 89 85 a8 fd ff ff 	mov    %rax,-0x258(%rbp)
   133fe:	c7 85 88 fd ff ff 01 	movl   $0x1,-0x278(%rbp)
   13405:	00 00 00 
   13408:	48 8d 05 31 5c 00 00 	lea    0x5c31(%rip),%rax        # 19040 <g_73>
   1340f:	48 89 85 b0 fd ff ff 	mov    %rax,-0x250(%rbp)
   13416:	48 8d 05 69 5c 00 00 	lea    0x5c69(%rip),%rax        # 19086 <g_75+0x6>
   1341d:	48 89 85 b8 fd ff ff 	mov    %rax,-0x248(%rbp)
   13424:	48 8d 05 85 5c 00 00 	lea    0x5c85(%rip),%rax        # 190b0 <g_77>
   1342b:	48 89 85 c0 fd ff ff 	mov    %rax,-0x240(%rbp)
   13432:	48 8d 85 88 fd ff ff 	lea    -0x278(%rbp),%rax
   13439:	48 89 85 c8 fd ff ff 	mov    %rax,-0x238(%rbp)
   13440:	48 8d 85 88 fd ff ff 	lea    -0x278(%rbp),%rax
   13447:	48 89 85 d0 fd ff ff 	mov    %rax,-0x230(%rbp)
   1344e:	48 8d 85 88 fd ff ff 	lea    -0x278(%rbp),%rax
   13455:	48 89 85 e0 fd ff ff 	mov    %rax,-0x220(%rbp)
   1345c:	48 8d 85 88 fd ff ff 	lea    -0x278(%rbp),%rax
   13463:	48 89 85 e8 fd ff ff 	mov    %rax,-0x218(%rbp)
   1346a:	48 8d 85 88 fd ff ff 	lea    -0x278(%rbp),%rax
   13471:	48 89 85 f0 fd ff ff 	mov    %rax,-0x210(%rbp)
   13478:	48 8d 85 88 fd ff ff 	lea    -0x278(%rbp),%rax
   1347f:	48 89 85 f8 fd ff ff 	mov    %rax,-0x208(%rbp)
   13486:	66 c7 05 23 5c 00 00 	movw   $0x1,0x5c23(%rip)        # 190b2 <g_78>
   1348d:	01 00 
   1348f:	8b 05 1f 5c 00 00    	mov    0x5c1f(%rip),%eax        # 190b4 <g_82>
   13495:	83 c0 01             	add    $0x1,%eax
   13498:	89 05 16 5c 00 00    	mov    %eax,0x5c16(%rip)        # 190b4 <g_82>
   1349e:	66 c7 05 0b 5c 00 00 	movw   $0x0,0x5c0b(%rip)        # 190b2 <g_78>
   134a5:	00 00 
   134a7:	e9 bd 05 00 00       	jmpq   13a69 <func_53+0x6c1>
   134ac:	48 c7 85 d8 fd ff ff 	movq   $0x0,-0x228(%rbp)
   134b3:	00 00 00 00 
   134b7:	c7 85 00 fe ff ff ff 	movl   $0xffffffff,-0x200(%rbp)
   134be:	ff ff ff 
   134c1:	c7 85 04 fe ff ff ff 	movl   $0xffffffff,-0x1fc(%rbp)
   134c8:	ff ff ff 
   134cb:	c7 85 08 fe ff ff ff 	movl   $0xffffffff,-0x1f8(%rbp)
   134d2:	ff ff ff 
   134d5:	c7 85 0c fe ff ff ff 	movl   $0xffffffff,-0x1f4(%rbp)
   134dc:	ff ff ff 
   134df:	c7 85 10 fe ff ff ff 	movl   $0xffffffff,-0x1f0(%rbp)
   134e6:	ff ff ff 
   134e9:	c7 85 14 fe ff ff ff 	movl   $0xffffffff,-0x1ec(%rbp)
   134f0:	ff ff ff 
   134f3:	c7 85 18 fe ff ff ff 	movl   $0xffffffff,-0x1e8(%rbp)
   134fa:	ff ff ff 
   134fd:	c7 85 1c fe ff ff ff 	movl   $0xffffffff,-0x1e4(%rbp)
   13504:	ff ff ff 
   13507:	c7 85 20 fe ff ff ff 	movl   $0xffffffff,-0x1e0(%rbp)
   1350e:	ff ff ff 
   13511:	c7 85 24 fe ff ff ff 	movl   $0xffffffff,-0x1dc(%rbp)
   13518:	ff ff ff 
   1351b:	c7 85 28 fe ff ff ff 	movl   $0xffffffff,-0x1d8(%rbp)
   13522:	ff ff ff 
   13525:	c7 85 2c fe ff ff ff 	movl   $0xffffffff,-0x1d4(%rbp)
   1352c:	ff ff ff 
   1352f:	c7 85 30 fe ff ff ff 	movl   $0xffffffff,-0x1d0(%rbp)
   13536:	ff ff ff 
   13539:	c7 85 34 fe ff ff ff 	movl   $0xffffffff,-0x1cc(%rbp)
   13540:	ff ff ff 
   13543:	c7 85 38 fe ff ff ff 	movl   $0xffffffff,-0x1c8(%rbp)
   1354a:	ff ff ff 
   1354d:	c7 85 3c fe ff ff ff 	movl   $0xffffffff,-0x1c4(%rbp)
   13554:	ff ff ff 
   13557:	c7 85 40 fe ff ff ff 	movl   $0xffffffff,-0x1c0(%rbp)
   1355e:	ff ff ff 
   13561:	c7 85 44 fe ff ff ff 	movl   $0xffffffff,-0x1bc(%rbp)
   13568:	ff ff ff 
   1356b:	c7 85 48 fe ff ff ff 	movl   $0xffffffff,-0x1b8(%rbp)
   13572:	ff ff ff 
   13575:	c7 85 4c fe ff ff ff 	movl   $0xffffffff,-0x1b4(%rbp)
   1357c:	ff ff ff 
   1357f:	c7 85 50 fe ff ff ff 	movl   $0xffffffff,-0x1b0(%rbp)
   13586:	ff ff ff 
   13589:	c7 85 54 fe ff ff ff 	movl   $0xffffffff,-0x1ac(%rbp)
   13590:	ff ff ff 
   13593:	c7 85 58 fe ff ff ff 	movl   $0xffffffff,-0x1a8(%rbp)
   1359a:	ff ff ff 
   1359d:	c7 85 5c fe ff ff ff 	movl   $0xffffffff,-0x1a4(%rbp)
   135a4:	ff ff ff 
   135a7:	c7 85 60 fe ff ff ff 	movl   $0xffffffff,-0x1a0(%rbp)
   135ae:	ff ff ff 
   135b1:	c7 85 64 fe ff ff ff 	movl   $0xffffffff,-0x19c(%rbp)
   135b8:	ff ff ff 
   135bb:	c7 85 68 fe ff ff ff 	movl   $0xffffffff,-0x198(%rbp)
   135c2:	ff ff ff 
   135c5:	c7 85 6c fe ff ff ff 	movl   $0xffffffff,-0x194(%rbp)
   135cc:	ff ff ff 
   135cf:	c7 85 70 fe ff ff ff 	movl   $0xffffffff,-0x190(%rbp)
   135d6:	ff ff ff 
   135d9:	c7 85 74 fe ff ff ff 	movl   $0xffffffff,-0x18c(%rbp)
   135e0:	ff ff ff 
   135e3:	c7 85 78 fe ff ff ff 	movl   $0xffffffff,-0x188(%rbp)
   135ea:	ff ff ff 
   135ed:	c7 85 7c fe ff ff ff 	movl   $0xffffffff,-0x184(%rbp)
   135f4:	ff ff ff 
   135f7:	c7 85 80 fe ff ff ff 	movl   $0xffffffff,-0x180(%rbp)
   135fe:	ff ff ff 
   13601:	c7 85 84 fe ff ff ff 	movl   $0xffffffff,-0x17c(%rbp)
   13608:	ff ff ff 
   1360b:	c7 85 88 fe ff ff ff 	movl   $0xffffffff,-0x178(%rbp)
   13612:	ff ff ff 
   13615:	c7 85 8c fe ff ff ff 	movl   $0xffffffff,-0x174(%rbp)
   1361c:	ff ff ff 
   1361f:	c7 85 90 fe ff ff ff 	movl   $0xffffffff,-0x170(%rbp)
   13626:	ff ff ff 
   13629:	c7 85 94 fe ff ff ff 	movl   $0xffffffff,-0x16c(%rbp)
   13630:	ff ff ff 
   13633:	c7 85 98 fe ff ff ff 	movl   $0xffffffff,-0x168(%rbp)
   1363a:	ff ff ff 
   1363d:	c7 85 9c fe ff ff ff 	movl   $0xffffffff,-0x164(%rbp)
   13644:	ff ff ff 
   13647:	c7 85 a0 fe ff ff ff 	movl   $0xffffffff,-0x160(%rbp)
   1364e:	ff ff ff 
   13651:	c7 85 a4 fe ff ff ff 	movl   $0xffffffff,-0x15c(%rbp)
   13658:	ff ff ff 
   1365b:	c7 85 a8 fe ff ff ff 	movl   $0xffffffff,-0x158(%rbp)
   13662:	ff ff ff 
   13665:	c7 85 ac fe ff ff ff 	movl   $0xffffffff,-0x154(%rbp)
   1366c:	ff ff ff 
   1366f:	c7 85 b0 fe ff ff ff 	movl   $0xffffffff,-0x150(%rbp)
   13676:	ff ff ff 
   13679:	c7 85 b4 fe ff ff ff 	movl   $0xffffffff,-0x14c(%rbp)
   13680:	ff ff ff 
   13683:	c7 85 b8 fe ff ff ff 	movl   $0xffffffff,-0x148(%rbp)
   1368a:	ff ff ff 
   1368d:	c7 85 bc fe ff ff ff 	movl   $0xffffffff,-0x144(%rbp)
   13694:	ff ff ff 
   13697:	c7 85 c0 fe ff ff ff 	movl   $0xffffffff,-0x140(%rbp)
   1369e:	ff ff ff 
   136a1:	c7 85 c4 fe ff ff ff 	movl   $0xffffffff,-0x13c(%rbp)
   136a8:	ff ff ff 
   136ab:	c7 85 c8 fe ff ff ff 	movl   $0xffffffff,-0x138(%rbp)
   136b2:	ff ff ff 
   136b5:	c7 85 cc fe ff ff ff 	movl   $0xffffffff,-0x134(%rbp)
   136bc:	ff ff ff 
   136bf:	c7 85 d0 fe ff ff ff 	movl   $0xffffffff,-0x130(%rbp)
   136c6:	ff ff ff 
   136c9:	c7 85 d4 fe ff ff ff 	movl   $0xffffffff,-0x12c(%rbp)
   136d0:	ff ff ff 
   136d3:	c6 05 5e 59 00 00 00 	movb   $0x0,0x595e(%rip)        # 19038 <g_66>
   136da:	e9 5e 03 00 00       	jmpq   13a3d <func_53+0x695>
   136df:	c7 85 e0 fe ff ff f6 	movl   $0xfffffff6,-0x120(%rbp)
   136e6:	ff ff ff 
   136e9:	c7 85 e4 fe ff ff 74 	movl   $0x9b64a474,-0x11c(%rbp)
   136f0:	a4 64 9b 
   136f3:	c7 85 e8 fe ff ff ff 	movl   $0xffffffff,-0x118(%rbp)
   136fa:	ff ff ff 
   136fd:	c7 85 ec fe ff ff f6 	movl   $0xfffffff6,-0x114(%rbp)
   13704:	ff ff ff 
   13707:	c7 85 f0 fe ff ff 87 	movl   $0x8dd93f87,-0x110(%rbp)
   1370e:	3f d9 8d 
   13711:	c7 85 f4 fe ff ff ff 	movl   $0xffffffff,-0x10c(%rbp)
   13718:	ff ff ff 
   1371b:	c7 85 f8 fe ff ff f6 	movl   $0xfffffff6,-0x108(%rbp)
   13722:	ff ff ff 
   13725:	c7 85 fc fe ff ff 87 	movl   $0x8dd93f87,-0x104(%rbp)
   1372c:	3f d9 8d 
   1372f:	c7 85 00 ff ff ff ff 	movl   $0xffffffff,-0x100(%rbp)
   13736:	ff ff ff 
   13739:	c7 85 04 ff ff ff ff 	movl   $0xffffffff,-0xfc(%rbp)
   13740:	ff ff ff 
   13743:	c7 85 08 ff ff ff 87 	movl   $0x8dd93f87,-0xf8(%rbp)
   1374a:	3f d9 8d 
   1374d:	c7 85 0c ff ff ff f6 	movl   $0xfffffff6,-0xf4(%rbp)
   13754:	ff ff ff 
   13757:	c7 85 10 ff ff ff f6 	movl   $0xfffffff6,-0xf0(%rbp)
   1375e:	ff ff ff 
   13761:	c7 85 14 ff ff ff 74 	movl   $0x9b64a474,-0xec(%rbp)
   13768:	a4 64 9b 
   1376b:	c7 85 18 ff ff ff ff 	movl   $0xffffffff,-0xe8(%rbp)
   13772:	ff ff ff 
   13775:	c7 85 1c ff ff ff f6 	movl   $0xfffffff6,-0xe4(%rbp)
   1377c:	ff ff ff 
   1377f:	c7 85 20 ff ff ff 87 	movl   $0x8dd93f87,-0xe0(%rbp)
   13786:	3f d9 8d 
   13789:	c7 85 24 ff ff ff ff 	movl   $0xffffffff,-0xdc(%rbp)
   13790:	ff ff ff 
   13793:	c7 85 28 ff ff ff f6 	movl   $0xfffffff6,-0xd8(%rbp)
   1379a:	ff ff ff 
   1379d:	c7 85 2c ff ff ff 87 	movl   $0x8dd93f87,-0xd4(%rbp)
   137a4:	3f d9 8d 
   137a7:	c7 85 30 ff ff ff ff 	movl   $0xffffffff,-0xd0(%rbp)
   137ae:	ff ff ff 
   137b1:	c7 85 34 ff ff ff ff 	movl   $0xffffffff,-0xcc(%rbp)
   137b8:	ff ff ff 
   137bb:	c7 85 38 ff ff ff 87 	movl   $0x8dd93f87,-0xc8(%rbp)
   137c2:	3f d9 8d 
   137c5:	c7 85 3c ff ff ff f6 	movl   $0xfffffff6,-0xc4(%rbp)
   137cc:	ff ff ff 
   137cf:	c7 85 40 ff ff ff f6 	movl   $0xfffffff6,-0xc0(%rbp)
   137d6:	ff ff ff 
   137d9:	c7 85 44 ff ff ff 74 	movl   $0x9b64a474,-0xbc(%rbp)
   137e0:	a4 64 9b 
   137e3:	c7 85 48 ff ff ff ff 	movl   $0xffffffff,-0xb8(%rbp)
   137ea:	ff ff ff 
   137ed:	c7 85 4c ff ff ff f6 	movl   $0xfffffff6,-0xb4(%rbp)
   137f4:	ff ff ff 
   137f7:	c7 85 50 ff ff ff 87 	movl   $0x8dd93f87,-0xb0(%rbp)
   137fe:	3f d9 8d 
   13801:	c7 85 54 ff ff ff ff 	movl   $0xffffffff,-0xac(%rbp)
   13808:	ff ff ff 
   1380b:	c7 85 58 ff ff ff f6 	movl   $0xfffffff6,-0xa8(%rbp)
   13812:	ff ff ff 
   13815:	c7 85 5c ff ff ff 87 	movl   $0x8dd93f87,-0xa4(%rbp)
   1381c:	3f d9 8d 
   1381f:	c7 85 60 ff ff ff ff 	movl   $0xffffffff,-0xa0(%rbp)
   13826:	ff ff ff 
   13829:	c7 85 64 ff ff ff ff 	movl   $0xffffffff,-0x9c(%rbp)
   13830:	ff ff ff 
   13833:	c7 85 68 ff ff ff 87 	movl   $0x8dd93f87,-0x98(%rbp)
   1383a:	3f d9 8d 
   1383d:	c7 85 6c ff ff ff f6 	movl   $0xfffffff6,-0x94(%rbp)
   13844:	ff ff ff 
   13847:	c7 85 70 ff ff ff f6 	movl   $0xfffffff6,-0x90(%rbp)
   1384e:	ff ff ff 
   13851:	c7 85 74 ff ff ff 74 	movl   $0x9b64a474,-0x8c(%rbp)
   13858:	a4 64 9b 
   1385b:	c7 85 78 ff ff ff ff 	movl   $0xffffffff,-0x88(%rbp)
   13862:	ff ff ff 
   13865:	c7 85 7c ff ff ff f6 	movl   $0xfffffff6,-0x84(%rbp)
   1386c:	ff ff ff 
   1386f:	c7 45 80 87 3f d9 8d 	movl   $0x8dd93f87,-0x80(%rbp)
   13876:	c7 45 84 ff ff ff ff 	movl   $0xffffffff,-0x7c(%rbp)
   1387d:	c7 45 88 f6 ff ff ff 	movl   $0xfffffff6,-0x78(%rbp)
   13884:	c7 45 8c 87 3f d9 8d 	movl   $0x8dd93f87,-0x74(%rbp)
   1388b:	c7 45 90 ff ff ff ff 	movl   $0xffffffff,-0x70(%rbp)
   13892:	c7 45 94 ff ff ff ff 	movl   $0xffffffff,-0x6c(%rbp)
   13899:	c7 45 98 87 3f d9 8d 	movl   $0x8dd93f87,-0x68(%rbp)
   138a0:	c7 45 9c f6 ff ff ff 	movl   $0xfffffff6,-0x64(%rbp)
   138a7:	c7 45 a0 f6 ff ff ff 	movl   $0xfffffff6,-0x60(%rbp)
   138ae:	c7 45 a4 74 a4 64 9b 	movl   $0x9b64a474,-0x5c(%rbp)
   138b5:	c7 45 a8 ff ff ff ff 	movl   $0xffffffff,-0x58(%rbp)
   138bc:	c7 45 ac f6 ff ff ff 	movl   $0xfffffff6,-0x54(%rbp)
   138c3:	c7 45 b0 87 3f d9 8d 	movl   $0x8dd93f87,-0x50(%rbp)
   138ca:	c7 45 b4 ff ff ff ff 	movl   $0xffffffff,-0x4c(%rbp)
   138d1:	c7 45 b8 f6 ff ff ff 	movl   $0xfffffff6,-0x48(%rbp)
   138d8:	c7 45 bc 87 3f d9 8d 	movl   $0x8dd93f87,-0x44(%rbp)
   138df:	c7 45 c0 ff ff ff ff 	movl   $0xffffffff,-0x40(%rbp)
   138e6:	c7 45 c4 ff ff ff ff 	movl   $0xffffffff,-0x3c(%rbp)
   138ed:	c7 45 c8 87 3f d9 8d 	movl   $0x8dd93f87,-0x38(%rbp)
   138f4:	c7 45 cc f6 ff ff ff 	movl   $0xfffffff6,-0x34(%rbp)
   138fb:	0f b7 05 84 57 00 00 	movzwl 0x5784(%rip),%eax        # 19086 <g_75+0x6>
   13902:	0f bf d8             	movswl %ax,%ebx
   13905:	48 8b 85 d0 fd ff ff 	mov    -0x230(%rbp),%rax
   1390c:	8b 10                	mov    (%rax),%edx
   1390e:	8b 8d ec fe ff ff    	mov    -0x114(%rbp),%ecx
   13914:	48 8b 85 d8 fd ff ff 	mov    -0x228(%rbp),%rax
   1391b:	48 3b 85 70 fd ff ff 	cmp    -0x290(%rbp),%rax
   13922:	0f 95 c0             	setne  %al
   13925:	0f b6 c0             	movzbl %al,%eax
   13928:	39 c1                	cmp    %eax,%ecx
   1392a:	0f 9c c0             	setl   %al
   1392d:	0f b6 c0             	movzbl %al,%eax
   13930:	21 c2                	and    %eax,%edx
   13932:	48 8b 85 d0 fd ff ff 	mov    -0x230(%rbp),%rax
   13939:	89 10                	mov    %edx,(%rax)
   1393b:	48 8b 85 d0 fd ff ff 	mov    -0x230(%rbp),%rax
   13942:	8b 00                	mov    (%rax),%eax
   13944:	4c 63 e0             	movslq %eax,%r12
   13947:	8b 05 67 57 00 00    	mov    0x5767(%rip),%eax        # 190b4 <g_82>
   1394d:	0f b6 c0             	movzbl %al,%eax
   13950:	89 c6                	mov    %eax,%esi
   13952:	bf ba 00 00 00       	mov    $0xba,%edi
   13957:	e8 37 62 ff ff       	callq  9b93 <safe_mul_func_uint8_t_u_u>
   1395c:	0f b6 d0             	movzbl %al,%edx
   1395f:	0f b7 05 4c 57 00 00 	movzwl 0x574c(%rip),%eax        # 190b2 <g_78>
   13966:	0f b7 c0             	movzwl %ax,%eax
   13969:	31 d0                	xor    %edx,%eax
   1396b:	48 98                	cltq   
   1396d:	48 33 85 68 fd ff ff 	xor    -0x298(%rbp),%rax
   13974:	49 39 c4             	cmp    %rax,%r12
   13977:	0f 9c c0             	setl   %al
   1397a:	0f b6 c0             	movzbl %al,%eax
   1397d:	89 de                	mov    %ebx,%esi
   1397f:	89 c7                	mov    %eax,%edi
   13981:	e8 9f 65 ff ff       	callq  9f25 <safe_div_func_uint32_t_u_u>
   13986:	89 c2                	mov    %eax,%edx
   13988:	0f b6 05 b1 56 00 00 	movzbl 0x56b1(%rip),%eax        # 19040 <g_73>
   1398f:	0f be c0             	movsbl %al,%eax
   13992:	89 d6                	mov    %edx,%esi
   13994:	89 c7                	mov    %eax,%edi
   13996:	e8 f7 5a ff ff       	callq  9492 <safe_lshift_func_int16_t_s_s>
   1399b:	0f b7 15 fe 56 00 00 	movzwl 0x56fe(%rip),%edx        # 190a0 <g_75+0x20>
   139a2:	66 39 d0             	cmp    %dx,%ax
   139a5:	0f 9f c0             	setg   %al
   139a8:	0f b6 c0             	movzbl %al,%eax
   139ab:	89 85 a4 fe ff ff    	mov    %eax,-0x15c(%rbp)
   139b1:	c6 05 f8 56 00 00 00 	movb   $0x0,0x56f8(%rip)        # 190b0 <g_77>
   139b8:	eb 68                	jmp    13a22 <func_53+0x67a>
   139ba:	0f b6 05 77 56 00 00 	movzbl 0x5677(%rip),%eax        # 19038 <g_66>
   139c1:	0f b6 c0             	movzbl %al,%eax
   139c4:	0f b6 15 6d 56 00 00 	movzbl 0x566d(%rip),%edx        # 19038 <g_66>
   139cb:	0f b6 d2             	movzbl %dl,%edx
   139ce:	8d 72 02             	lea    0x2(%rdx),%esi
   139d1:	0f b6 15 60 56 00 00 	movzbl 0x5660(%rip),%edx        # 19038 <g_66>
   139d8:	0f b6 d2             	movzbl %dl,%edx
   139db:	48 63 ca             	movslq %edx,%rcx
   139de:	48 63 d0             	movslq %eax,%rdx
   139e1:	48 63 f6             	movslq %esi,%rsi
   139e4:	48 89 d0             	mov    %rdx,%rax
   139e7:	48 01 c0             	add    %rax,%rax
   139ea:	48 01 d0             	add    %rdx,%rax
   139ed:	48 01 f0             	add    %rsi,%rax
   139f0:	48 c1 e0 03          	shl    $0x3,%rax
   139f4:	48 01 c8             	add    %rcx,%rax
   139f7:	48 8d 14 00          	lea    (%rax,%rax,1),%rdx
   139fb:	48 8d 05 7e 56 00 00 	lea    0x567e(%rip),%rax        # 19080 <g_75>
   13a02:	0f b7 04 02          	movzwl (%rdx,%rax,1),%eax
   13a06:	0f bf d0             	movswl %ax,%edx
   13a09:	48 8b 85 d0 fd ff ff 	mov    -0x230(%rbp),%rax
   13a10:	89 10                	mov    %edx,(%rax)
   13a12:	0f b6 05 97 56 00 00 	movzbl 0x5697(%rip),%eax        # 190b0 <g_77>
   13a19:	83 e8 01             	sub    $0x1,%eax
   13a1c:	88 05 8e 56 00 00    	mov    %al,0x568e(%rip)        # 190b0 <g_77>
   13a22:	0f b6 05 87 56 00 00 	movzbl 0x5687(%rip),%eax        # 190b0 <g_77>
   13a29:	84 c0                	test   %al,%al
   13a2b:	79 8d                	jns    139ba <func_53+0x612>
   13a2d:	0f b6 05 04 56 00 00 	movzbl 0x5604(%rip),%eax        # 19038 <g_66>
   13a34:	83 c0 01             	add    $0x1,%eax
   13a37:	88 05 fb 55 00 00    	mov    %al,0x55fb(%rip)        # 19038 <g_66>
   13a3d:	0f b6 05 f4 55 00 00 	movzbl 0x55f4(%rip),%eax        # 19038 <g_66>
   13a44:	84 c0                	test   %al,%al
   13a46:	0f 84 93 fc ff ff    	je     136df <func_53+0x337>
   13a4c:	0f b7 05 5f 56 00 00 	movzwl 0x565f(%rip),%eax        # 190b2 <g_78>
   13a53:	0f b7 c0             	movzwl %ax,%eax
   13a56:	be 07 00 00 00       	mov    $0x7,%esi
   13a5b:	89 c7                	mov    %eax,%edi
   13a5d:	e8 9d 62 ff ff       	callq  9cff <safe_add_func_uint16_t_u_u>
   13a62:	66 89 05 49 56 00 00 	mov    %ax,0x5649(%rip)        # 190b2 <g_78>
   13a69:	0f b7 05 42 56 00 00 	movzwl 0x5642(%rip),%eax        # 190b2 <g_78>
   13a70:	66 83 f8 38          	cmp    $0x38,%ax
   13a74:	0f 87 32 fa ff ff    	ja     134ac <func_53+0x104>
   13a7a:	48 c7 85 68 fd ff ff 	movq   $0x4,-0x298(%rbp)
   13a81:	04 00 00 00 
   13a85:	e9 4f 02 00 00       	jmpq   13cd9 <func_53+0x931>
   13a8a:	c7 85 90 fd ff ff 00 	movl   $0x0,-0x270(%rbp)
   13a91:	00 00 00 
   13a94:	c7 85 94 fd ff ff b6 	movl   $0x9d34e1b6,-0x26c(%rbp)
   13a9b:	e1 34 9d 
   13a9e:	48 8d 05 13 56 00 00 	lea    0x5613(%rip),%rax        # 190b8 <g_122>
   13aa5:	48 89 85 e0 fe ff ff 	mov    %rax,-0x120(%rbp)
   13aac:	48 8d 05 05 56 00 00 	lea    0x5605(%rip),%rax        # 190b8 <g_122>
   13ab3:	48 89 85 e8 fe ff ff 	mov    %rax,-0x118(%rbp)
   13aba:	48 8d 05 f7 55 00 00 	lea    0x55f7(%rip),%rax        # 190b8 <g_122>
   13ac1:	48 89 85 f0 fe ff ff 	mov    %rax,-0x110(%rbp)
   13ac8:	48 8d 05 e9 55 00 00 	lea    0x55e9(%rip),%rax        # 190b8 <g_122>
   13acf:	48 89 85 f8 fe ff ff 	mov    %rax,-0x108(%rbp)
   13ad6:	48 8d 05 db 55 00 00 	lea    0x55db(%rip),%rax        # 190b8 <g_122>
   13add:	48 89 85 00 ff ff ff 	mov    %rax,-0x100(%rbp)
   13ae4:	48 8d 05 cd 55 00 00 	lea    0x55cd(%rip),%rax        # 190b8 <g_122>
   13aeb:	48 89 85 08 ff ff ff 	mov    %rax,-0xf8(%rbp)
   13af2:	48 8d 05 bf 55 00 00 	lea    0x55bf(%rip),%rax        # 190b8 <g_122>
   13af9:	48 89 85 10 ff ff ff 	mov    %rax,-0xf0(%rbp)
   13b00:	48 8d 05 b1 55 00 00 	lea    0x55b1(%rip),%rax        # 190b8 <g_122>
   13b07:	48 89 85 18 ff ff ff 	mov    %rax,-0xe8(%rbp)
   13b0e:	c7 85 98 fd ff ff ce 	movl   $0xf4353ce,-0x268(%rbp)
   13b15:	53 43 0f 
   13b18:	c7 85 9c fd ff ff 00 	movl   $0x0,-0x264(%rbp)
   13b1f:	00 00 00 
   13b22:	c7 85 8c fd ff ff 00 	movl   $0x0,-0x274(%rbp)
   13b29:	00 00 00 
   13b2c:	eb 1e                	jmp    13b4c <func_53+0x7a4>
   13b2e:	8b 85 8c fd ff ff    	mov    -0x274(%rbp),%eax
   13b34:	48 98                	cltq   
   13b36:	48 8d 15 2b 95 00 00 	lea    0x952b(%rip),%rdx        # 1d068 <g_125>
   13b3d:	48 89 94 c5 00 fe ff 	mov    %rdx,-0x200(%rbp,%rax,8)
   13b44:	ff 
   13b45:	83 85 8c fd ff ff 01 	addl   $0x1,-0x274(%rbp)
   13b4c:	83 bd 8c fd ff ff 00 	cmpl   $0x0,-0x274(%rbp)
   13b53:	7e d9                	jle    13b2e <func_53+0x786>
   13b55:	48 8b 05 5c 55 00 00 	mov    0x555c(%rip),%rax        # 190b8 <g_122>
   13b5c:	41 89 c6             	mov    %eax,%r14d
   13b5f:	0f b6 05 fe 54 00 00 	movzbl 0x54fe(%rip),%eax        # 19064 <g_73+0x24>
   13b66:	0f be d8             	movsbl %al,%ebx
   13b69:	0f b6 05 40 55 00 00 	movzbl 0x5540(%rip),%eax        # 190b0 <g_77>
   13b70:	44 0f be e0          	movsbl %al,%r12d
   13b74:	0f b6 05 35 55 00 00 	movzbl 0x5535(%rip),%eax        # 190b0 <g_77>
   13b7b:	44 0f be e8          	movsbl %al,%r13d
   13b7f:	48 8b 85 d0 fd ff ff 	mov    -0x230(%rbp),%rax
   13b86:	8b 00                	mov    (%rax),%eax
   13b88:	89 c2                	mov    %eax,%edx
   13b8a:	c7 85 94 fd ff ff 10 	movl   $0xb2a6a610,-0x26c(%rbp)
   13b91:	a6 a6 b2 
   13b94:	8b 85 94 fd ff ff    	mov    -0x26c(%rbp),%eax
   13b9a:	31 85 98 fd ff ff    	xor    %eax,-0x268(%rbp)
   13ba0:	89 d6                	mov    %edx,%esi
   13ba2:	bf 01 00 00 00       	mov    $0x1,%edi
   13ba7:	e8 0c 63 ff ff       	callq  9eb8 <safe_add_func_uint32_t_u_u>
   13bac:	89 c2                	mov    %eax,%edx
   13bae:	48 8b 85 68 fd ff ff 	mov    -0x298(%rbp),%rax
   13bb5:	09 d0                	or     %edx,%eax
   13bb7:	0f be d0             	movsbl %al,%edx
   13bba:	8b 85 90 fd ff ff    	mov    -0x270(%rbp),%eax
   13bc0:	0f be c0             	movsbl %al,%eax
   13bc3:	89 d6                	mov    %edx,%esi
   13bc5:	89 c7                	mov    %eax,%edi
   13bc7:	e8 9e 56 ff ff       	callq  926a <safe_div_func_int8_t_s_s>
   13bcc:	0f b6 c0             	movzbl %al,%eax
   13bcf:	89 c7                	mov    %eax,%edi
   13bd1:	e8 6f 5f ff ff       	callq  9b45 <safe_unary_minus_func_uint8_t_u>
   13bd6:	b9 00 00 00 00       	mov    $0x0,%ecx
   13bdb:	48 8b 85 a8 fd ff ff 	mov    -0x258(%rbp),%rax
   13be2:	0f b6 00             	movzbl (%rax),%eax
   13be5:	89 c2                	mov    %eax,%edx
   13be7:	89 c8                	mov    %ecx,%eax
   13be9:	31 d0                	xor    %edx,%eax
   13beb:	89 c2                	mov    %eax,%edx
   13bed:	48 8b 85 a8 fd ff ff 	mov    -0x258(%rbp),%rax
   13bf4:	88 10                	mov    %dl,(%rax)
   13bf6:	48 8b 85 a8 fd ff ff 	mov    -0x258(%rbp),%rax
   13bfd:	0f b6 00             	movzbl (%rax),%eax
   13c00:	0f be d0             	movsbl %al,%edx
   13c03:	8b 05 1f 54 00 00    	mov    0x541f(%rip),%eax        # 19028 <g_33>
   13c09:	0f be c0             	movsbl %al,%eax
   13c0c:	89 d6                	mov    %edx,%esi
   13c0e:	89 c7                	mov    %eax,%edi
   13c10:	e8 bf 55 ff ff       	callq  91d4 <safe_add_func_int8_t_s_s>
   13c15:	0f be c0             	movsbl %al,%eax
   13c18:	44 89 ee             	mov    %r13d,%esi
   13c1b:	89 c7                	mov    %eax,%edi
   13c1d:	e8 4a 57 ff ff       	callq  936c <safe_rshift_func_int8_t_s_u>
   13c22:	0f be c0             	movsbl %al,%eax
   13c25:	39 85 90 fd ff ff    	cmp    %eax,-0x270(%rbp)
   13c2b:	0f 95 c0             	setne  %al
   13c2e:	0f b6 c0             	movzbl %al,%eax
   13c31:	44 89 e6             	mov    %r12d,%esi
   13c34:	89 c7                	mov    %eax,%edi
   13c36:	e8 11 60 ff ff       	callq  9c4c <safe_lshift_func_uint8_t_u_u>
   13c3b:	0f b6 c0             	movzbl %al,%eax
   13c3e:	89 c6                	mov    %eax,%esi
   13c40:	bf b7 87 ff ff       	mov    $0xffff87b7,%edi
   13c45:	e8 ab 57 ff ff       	callq  93f5 <safe_mul_func_int16_t_s_s>
   13c4a:	48 0f bf c0          	movswq %ax,%rax
   13c4e:	48 39 85 68 fd ff ff 	cmp    %rax,-0x298(%rbp)
   13c55:	0f 9c c0             	setl   %al
   13c58:	0f b6 d0             	movzbl %al,%edx
   13c5b:	48 8b 85 a0 fd ff ff 	mov    -0x260(%rbp),%rax
   13c62:	89 10                	mov    %edx,(%rax)
   13c64:	89 de                	mov    %ebx,%esi
   13c66:	bf 00 00 00 00       	mov    $0x0,%edi
   13c6b:	e8 43 57 ff ff       	callq  93b3 <safe_add_func_int16_t_s_s>
   13c70:	98                   	cwtl   
   13c71:	89 c6                	mov    %eax,%esi
   13c73:	bf ac 29 00 00       	mov    $0x29ac,%edi
   13c78:	e8 78 57 ff ff       	callq  93f5 <safe_mul_func_int16_t_s_s>
   13c7d:	b8 00 00 00 00       	mov    $0x0,%eax
   13c82:	89 c2                	mov    %eax,%edx
   13c84:	8b 85 9c fd ff ff    	mov    -0x264(%rbp),%eax
   13c8a:	21 d0                	and    %edx,%eax
   13c8c:	89 85 9c fd ff ff    	mov    %eax,-0x264(%rbp)
   13c92:	8b 85 9c fd ff ff    	mov    -0x264(%rbp),%eax
   13c98:	89 c7                	mov    %eax,%edi
   13c9a:	e8 07 62 ff ff       	callq  9ea6 <safe_unary_minus_func_uint32_t_u>
   13c9f:	0f b7 c0             	movzwl %ax,%eax
   13ca2:	44 89 f6             	mov    %r14d,%esi
   13ca5:	89 c7                	mov    %eax,%edi
   13ca7:	e8 5a 61 ff ff       	callq  9e06 <safe_lshift_func_uint16_t_u_u>
   13cac:	48 8b 85 c8 fd ff ff 	mov    -0x238(%rbp),%rax
   13cb3:	c7 00 00 00 00 00    	movl   $0x0,(%rax)
   13cb9:	48 8b 85 68 fd ff ff 	mov    -0x298(%rbp),%rax
   13cc0:	0f b7 c0             	movzwl %ax,%eax
   13cc3:	be 02 00 00 00       	mov    $0x2,%esi
   13cc8:	89 c7                	mov    %eax,%edi
   13cca:	e8 50 60 ff ff       	callq  9d1f <safe_sub_func_uint16_t_u_u>
   13ccf:	0f b7 c0             	movzwl %ax,%eax
   13cd2:	48 89 85 68 fd ff ff 	mov    %rax,-0x298(%rbp)
   13cd9:	48 83 bd 68 fd ff ff 	cmpq   $0xffffffffffffffe2,-0x298(%rbp)
   13ce0:	e2 
   13ce1:	0f 85 a3 fd ff ff    	jne    13a8a <func_53+0x6e2>
   13ce7:	48 8b 85 68 fd ff ff 	mov    -0x298(%rbp),%rax
   13cee:	48 8b 5d d8          	mov    -0x28(%rbp),%rbx
   13cf2:	64 48 33 1c 25 28 00 	xor    %fs:0x28,%rbx
   13cf9:	00 00 
   13cfb:	74 05                	je     13d02 <func_53+0x95a>
   13cfd:	e8 6e 53 ff ff       	callq  9070 <__stack_chk_fail@plt>
   13d02:	48 81 c4 80 02 00 00 	add    $0x280,%rsp
   13d09:	5b                   	pop    %rbx
   13d0a:	41 5c                	pop    %r12
   13d0c:	41 5d                	pop    %r13
   13d0e:	41 5e                	pop    %r14
   13d10:	5d                   	pop    %rbp
   13d11:	c3                   	retq   

0000000000013d12 <main>:
   13d12:	f3 0f 1e fa          	endbr64 
   13d16:	55                   	push   %rbp
   13d17:	48 89 e5             	mov    %rsp,%rbp
   13d1a:	48 83 ec 20          	sub    $0x20,%rsp
   13d1e:	89 7d ec             	mov    %edi,-0x14(%rbp)
   13d21:	48 89 75 e0          	mov    %rsi,-0x20(%rbp)
   13d25:	c7 45 fc 00 00 00 00 	movl   $0x0,-0x4(%rbp)
   13d2c:	83 7d ec 02          	cmpl   $0x2,-0x14(%rbp)
   13d30:	74 25                	je     13d57 <main+0x45>
   13d32:	48 8b 45 e0          	mov    -0x20(%rbp),%rax
   13d36:	48 83 c0 08          	add    $0x8,%rax
   13d3a:	48 8b 00             	mov    (%rax),%rax
   13d3d:	48 8d 35 4c 1d 00 00 	lea    0x1d4c(%rip),%rsi        # 15a90 <g_2258+0xa28>
   13d44:	48 89 c7             	mov    %rax,%rdi
   13d47:	e8 44 53 ff ff       	callq  9090 <strcmp@plt>
   13d4c:	85 c0                	test   %eax,%eax
   13d4e:	74 07                	je     13d57 <main+0x45>
   13d50:	c7 45 fc 01 00 00 00 	movl   $0x1,-0x4(%rbp)
   13d57:	e8 2d 54 ff ff       	callq  9189 <platform_main_begin>
   13d5c:	e8 37 68 ff ff       	callq  a598 <crc32_gentab>
   13d61:	e8 4f 6a ff ff       	callq  a7b5 <func_1>
   13d66:	0f b7 05 b7 52 00 00 	movzwl 0x52b7(%rip),%eax        # 19024 <g_8>
   13d6d:	48 0f bf c0          	movswq %ax,%rax
   13d71:	8b 55 fc             	mov    -0x4(%rbp),%edx
   13d74:	48 8d 35 17 1d 00 00 	lea    0x1d17(%rip),%rsi        # 15a92 <g_2258+0xa2a>
   13d7b:	48 89 c7             	mov    %rax,%rdi
   13d7e:	e8 70 69 ff ff       	callq  a6f3 <transparent_crc>
   13d83:	8b 05 9f 52 00 00    	mov    0x529f(%rip),%eax        # 19028 <g_33>
   13d89:	48 98                	cltq   
   13d8b:	8b 55 fc             	mov    -0x4(%rbp),%edx
   13d8e:	48 8d 35 01 1d 00 00 	lea    0x1d01(%rip),%rsi        # 15a96 <g_2258+0xa2e>
   13d95:	48 89 c7             	mov    %rax,%rdi
   13d98:	e8 56 69 ff ff       	callq  a6f3 <transparent_crc>
   13d9d:	0f b7 05 88 52 00 00 	movzwl 0x5288(%rip),%eax        # 1902c <g_39>
   13da4:	0f b7 c0             	movzwl %ax,%eax
   13da7:	8b 55 fc             	mov    -0x4(%rbp),%edx
   13daa:	48 8d 35 ea 1c 00 00 	lea    0x1cea(%rip),%rsi        # 15a9b <g_2258+0xa33>
   13db1:	48 89 c7             	mov    %rax,%rdi
   13db4:	e8 3a 69 ff ff       	callq  a6f3 <transparent_crc>
   13db9:	8b 05 71 52 00 00    	mov    0x5271(%rip),%eax        # 19030 <g_43>
   13dbf:	48 98                	cltq   
   13dc1:	8b 55 fc             	mov    -0x4(%rbp),%edx
   13dc4:	48 8d 35 d5 1c 00 00 	lea    0x1cd5(%rip),%rsi        # 15aa0 <g_2258+0xa38>
   13dcb:	48 89 c7             	mov    %rax,%rdi
   13dce:	e8 20 69 ff ff       	callq  a6f3 <transparent_crc>
   13dd3:	8b 05 5b 52 00 00    	mov    0x525b(%rip),%eax        # 19034 <g_60>
   13dd9:	89 c1                	mov    %eax,%ecx
   13ddb:	8b 45 fc             	mov    -0x4(%rbp),%eax
   13dde:	89 c2                	mov    %eax,%edx
   13de0:	48 8d 35 be 1c 00 00 	lea    0x1cbe(%rip),%rsi        # 15aa5 <g_2258+0xa3d>
   13de7:	48 89 cf             	mov    %rcx,%rdi
   13dea:	e8 04 69 ff ff       	callq  a6f3 <transparent_crc>
   13def:	0f b6 05 42 52 00 00 	movzbl 0x5242(%rip),%eax        # 19038 <g_66>
   13df6:	0f b6 c0             	movzbl %al,%eax
   13df9:	8b 55 fc             	mov    -0x4(%rbp),%edx
   13dfc:	48 8d 35 a7 1c 00 00 	lea    0x1ca7(%rip),%rsi        # 15aaa <g_2258+0xa42>
   13e03:	48 89 c7             	mov    %rax,%rdi
   13e06:	e8 e8 68 ff ff       	callq  a6f3 <transparent_crc>
   13e0b:	c7 45 f0 00 00 00 00 	movl   $0x0,-0x10(%rbp)
   13e12:	eb 73                	jmp    13e87 <main+0x175>
   13e14:	c7 45 f4 00 00 00 00 	movl   $0x0,-0xc(%rbp)
   13e1b:	eb 60                	jmp    13e7d <main+0x16b>
   13e1d:	8b 45 f4             	mov    -0xc(%rbp),%eax
   13e20:	48 63 c8             	movslq %eax,%rcx
   13e23:	8b 45 f0             	mov    -0x10(%rbp),%eax
   13e26:	48 63 d0             	movslq %eax,%rdx
   13e29:	48 89 d0             	mov    %rdx,%rax
   13e2c:	48 c1 e0 03          	shl    $0x3,%rax
   13e30:	48 29 d0             	sub    %rdx,%rax
   13e33:	48 8d 14 08          	lea    (%rax,%rcx,1),%rdx
   13e37:	48 8d 05 02 52 00 00 	lea    0x5202(%rip),%rax        # 19040 <g_73>
   13e3e:	48 01 d0             	add    %rdx,%rax
   13e41:	0f b6 00             	movzbl (%rax),%eax
   13e44:	48 0f be c0          	movsbq %al,%rax
   13e48:	8b 55 fc             	mov    -0x4(%rbp),%edx
   13e4b:	48 8d 35 5d 1c 00 00 	lea    0x1c5d(%rip),%rsi        # 15aaf <g_2258+0xa47>
   13e52:	48 89 c7             	mov    %rax,%rdi
   13e55:	e8 99 68 ff ff       	callq  a6f3 <transparent_crc>
   13e5a:	83 7d fc 00          	cmpl   $0x0,-0x4(%rbp)
   13e5e:	74 19                	je     13e79 <main+0x167>
   13e60:	8b 55 f4             	mov    -0xc(%rbp),%edx
   13e63:	8b 45 f0             	mov    -0x10(%rbp),%eax
   13e66:	89 c6                	mov    %eax,%esi
   13e68:	48 8d 3d 4b 1c 00 00 	lea    0x1c4b(%rip),%rdi        # 15aba <g_2258+0xa52>
   13e6f:	b8 00 00 00 00       	mov    $0x0,%eax
   13e74:	e8 07 52 ff ff       	callq  9080 <printf@plt>
   13e79:	83 45 f4 01          	addl   $0x1,-0xc(%rbp)
   13e7d:	83 7d f4 06          	cmpl   $0x6,-0xc(%rbp)
   13e81:	7e 9a                	jle    13e1d <main+0x10b>
   13e83:	83 45 f0 01          	addl   $0x1,-0x10(%rbp)
   13e87:	83 7d f0 08          	cmpl   $0x8,-0x10(%rbp)
   13e8b:	7e 87                	jle    13e14 <main+0x102>
   13e8d:	c7 45 f0 00 00 00 00 	movl   $0x0,-0x10(%rbp)
   13e94:	e9 9d 00 00 00       	jmpq   13f36 <main+0x224>
   13e99:	c7 45 f4 00 00 00 00 	movl   $0x0,-0xc(%rbp)
   13ea0:	e9 83 00 00 00       	jmpq   13f28 <main+0x216>
   13ea5:	c7 45 f8 00 00 00 00 	movl   $0x0,-0x8(%rbp)
   13eac:	eb 70                	jmp    13f1e <main+0x20c>
   13eae:	8b 45 f8             	mov    -0x8(%rbp),%eax
   13eb1:	48 63 c8             	movslq %eax,%rcx
   13eb4:	8b 45 f0             	mov    -0x10(%rbp),%eax
   13eb7:	48 63 d0             	movslq %eax,%rdx
   13eba:	8b 45 f4             	mov    -0xc(%rbp),%eax
   13ebd:	48 63 f0             	movslq %eax,%rsi
   13ec0:	48 89 d0             	mov    %rdx,%rax
   13ec3:	48 01 c0             	add    %rax,%rax
   13ec6:	48 01 d0             	add    %rdx,%rax
   13ec9:	48 01 f0             	add    %rsi,%rax
   13ecc:	48 c1 e0 03          	shl    $0x3,%rax
   13ed0:	48 01 c8             	add    %rcx,%rax
   13ed3:	48 8d 14 00          	lea    (%rax,%rax,1),%rdx
   13ed7:	48 8d 05 a2 51 00 00 	lea    0x51a2(%rip),%rax        # 19080 <g_75>
   13ede:	0f b7 04 02          	movzwl (%rdx,%rax,1),%eax
   13ee2:	48 0f bf c0          	movswq %ax,%rax
   13ee6:	8b 55 fc             	mov    -0x4(%rbp),%edx
   13ee9:	48 8d 35 dc 1b 00 00 	lea    0x1bdc(%rip),%rsi        # 15acc <g_2258+0xa64>
   13ef0:	48 89 c7             	mov    %rax,%rdi
   13ef3:	e8 fb 67 ff ff       	callq  a6f3 <transparent_crc>
   13ef8:	83 7d fc 00          	cmpl   $0x0,-0x4(%rbp)
   13efc:	74 1c                	je     13f1a <main+0x208>
   13efe:	8b 4d f8             	mov    -0x8(%rbp),%ecx
   13f01:	8b 55 f4             	mov    -0xc(%rbp),%edx
   13f04:	8b 45 f0             	mov    -0x10(%rbp),%eax
   13f07:	89 c6                	mov    %eax,%esi
   13f09:	48 8d 3d ca 1b 00 00 	lea    0x1bca(%rip),%rdi        # 15ada <g_2258+0xa72>
   13f10:	b8 00 00 00 00       	mov    $0x0,%eax
   13f15:	e8 66 51 ff ff       	callq  9080 <printf@plt>
   13f1a:	83 45 f8 01          	addl   $0x1,-0x8(%rbp)
   13f1e:	83 7d f8 07          	cmpl   $0x7,-0x8(%rbp)
   13f22:	7e 8a                	jle    13eae <main+0x19c>
   13f24:	83 45 f4 01          	addl   $0x1,-0xc(%rbp)
   13f28:	83 7d f4 02          	cmpl   $0x2,-0xc(%rbp)
   13f2c:	0f 8e 73 ff ff ff    	jle    13ea5 <main+0x193>
   13f32:	83 45 f0 01          	addl   $0x1,-0x10(%rbp)
   13f36:	83 7d f0 00          	cmpl   $0x0,-0x10(%rbp)
   13f3a:	0f 8e 59 ff ff ff    	jle    13e99 <main+0x187>
   13f40:	0f b6 05 69 51 00 00 	movzbl 0x5169(%rip),%eax        # 190b0 <g_77>
   13f47:	48 0f be c0          	movsbq %al,%rax
   13f4b:	8b 55 fc             	mov    -0x4(%rbp),%edx
   13f4e:	48 8d 35 9b 1b 00 00 	lea    0x1b9b(%rip),%rsi        # 15af0 <g_2258+0xa88>
   13f55:	48 89 c7             	mov    %rax,%rdi
   13f58:	e8 96 67 ff ff       	callq  a6f3 <transparent_crc>
   13f5d:	0f b7 05 4e 51 00 00 	movzwl 0x514e(%rip),%eax        # 190b2 <g_78>
   13f64:	0f b7 c0             	movzwl %ax,%eax
   13f67:	8b 55 fc             	mov    -0x4(%rbp),%edx
   13f6a:	48 8d 35 84 1b 00 00 	lea    0x1b84(%rip),%rsi        # 15af5 <g_2258+0xa8d>
   13f71:	48 89 c7             	mov    %rax,%rdi
   13f74:	e8 7a 67 ff ff       	callq  a6f3 <transparent_crc>
   13f79:	8b 05 35 51 00 00    	mov    0x5135(%rip),%eax        # 190b4 <g_82>
   13f7f:	89 c1                	mov    %eax,%ecx
   13f81:	8b 45 fc             	mov    -0x4(%rbp),%eax
   13f84:	89 c2                	mov    %eax,%edx
   13f86:	48 8d 35 6d 1b 00 00 	lea    0x1b6d(%rip),%rsi        # 15afa <g_2258+0xa92>
   13f8d:	48 89 cf             	mov    %rcx,%rdi
   13f90:	e8 5e 67 ff ff       	callq  a6f3 <transparent_crc>
   13f95:	48 8b 05 1c 51 00 00 	mov    0x511c(%rip),%rax        # 190b8 <g_122>
   13f9c:	8b 55 fc             	mov    -0x4(%rbp),%edx
   13f9f:	48 8d 35 59 1b 00 00 	lea    0x1b59(%rip),%rsi        # 15aff <g_2258+0xa97>
   13fa6:	48 89 c7             	mov    %rax,%rdi
   13fa9:	e8 45 67 ff ff       	callq  a6f3 <transparent_crc>
   13fae:	8b 05 b4 90 00 00    	mov    0x90b4(%rip),%eax        # 1d068 <g_125>
   13fb4:	89 c1                	mov    %eax,%ecx
   13fb6:	8b 45 fc             	mov    -0x4(%rbp),%eax
   13fb9:	89 c2                	mov    %eax,%edx
   13fbb:	48 8d 35 43 1b 00 00 	lea    0x1b43(%rip),%rsi        # 15b05 <g_2258+0xa9d>
   13fc2:	48 89 cf             	mov    %rcx,%rdi
   13fc5:	e8 29 67 ff ff       	callq  a6f3 <transparent_crc>
   13fca:	8b 05 f0 50 00 00    	mov    0x50f0(%rip),%eax        # 190c0 <g_129>
   13fd0:	89 c1                	mov    %eax,%ecx
   13fd2:	8b 45 fc             	mov    -0x4(%rbp),%eax
   13fd5:	89 c2                	mov    %eax,%edx
   13fd7:	48 8d 35 2d 1b 00 00 	lea    0x1b2d(%rip),%rsi        # 15b0b <g_2258+0xaa3>
   13fde:	48 89 cf             	mov    %rcx,%rdi
   13fe1:	e8 0d 67 ff ff       	callq  a6f3 <transparent_crc>
   13fe6:	b8 70 06 87 60       	mov    $0x60870670,%eax
   13feb:	48 98                	cltq   
   13fed:	8b 55 fc             	mov    -0x4(%rbp),%edx
   13ff0:	48 8d 35 1a 1b 00 00 	lea    0x1b1a(%rip),%rsi        # 15b11 <g_2258+0xaa9>
   13ff7:	48 89 c7             	mov    %rax,%rdi
   13ffa:	e8 f4 66 ff ff       	callq  a6f3 <transparent_crc>
   13fff:	48 8b 05 c2 50 00 00 	mov    0x50c2(%rip),%rax        # 190c8 <g_147>
   14006:	48 89 c1             	mov    %rax,%rcx
   14009:	8b 45 fc             	mov    -0x4(%rbp),%eax
   1400c:	89 c2                	mov    %eax,%edx
   1400e:	48 8d 35 02 1b 00 00 	lea    0x1b02(%rip),%rsi        # 15b17 <g_2258+0xaaf>
   14015:	48 89 cf             	mov    %rcx,%rdi
   14018:	e8 d6 66 ff ff       	callq  a6f3 <transparent_crc>
   1401d:	b8 08 00 00 00       	mov    $0x8,%eax
   14022:	89 c1                	mov    %eax,%ecx
   14024:	8b 45 fc             	mov    -0x4(%rbp),%eax
   14027:	89 c2                	mov    %eax,%edx
   14029:	48 8d 35 ed 1a 00 00 	lea    0x1aed(%rip),%rsi        # 15b1d <g_2258+0xab5>
   14030:	48 89 cf             	mov    %rcx,%rdi
   14033:	e8 bb 66 ff ff       	callq  a6f3 <transparent_crc>
   14038:	b8 00 00 00 00       	mov    $0x0,%eax
   1403d:	89 c1                	mov    %eax,%ecx
   1403f:	8b 45 fc             	mov    -0x4(%rbp),%eax
   14042:	89 c2                	mov    %eax,%edx
   14044:	48 8d 35 d8 1a 00 00 	lea    0x1ad8(%rip),%rsi        # 15b23 <g_2258+0xabb>
   1404b:	48 89 cf             	mov    %rcx,%rdi
   1404e:	e8 a0 66 ff ff       	callq  a6f3 <transparent_crc>
   14053:	8b 05 77 50 00 00    	mov    0x5077(%rip),%eax        # 190d0 <g_206>
   14059:	48 98                	cltq   
   1405b:	8b 55 fc             	mov    -0x4(%rbp),%edx
   1405e:	48 8d 35 c4 1a 00 00 	lea    0x1ac4(%rip),%rsi        # 15b29 <g_2258+0xac1>
   14065:	48 89 c7             	mov    %rax,%rdi
   14068:	e8 86 66 ff ff       	callq  a6f3 <transparent_crc>
   1406d:	48 8b 05 64 50 00 00 	mov    0x5064(%rip),%rax        # 190d8 <g_227>
   14074:	8b 55 fc             	mov    -0x4(%rbp),%edx
   14077:	48 8d 35 b1 1a 00 00 	lea    0x1ab1(%rip),%rsi        # 15b2f <g_2258+0xac7>
   1407e:	48 89 c7             	mov    %rax,%rdi
   14081:	e8 6d 66 ff ff       	callq  a6f3 <transparent_crc>
   14086:	8b 05 54 50 00 00    	mov    0x5054(%rip),%eax        # 190e0 <g_238>
   1408c:	48 98                	cltq   
   1408e:	8b 55 fc             	mov    -0x4(%rbp),%edx
   14091:	48 8d 35 9d 1a 00 00 	lea    0x1a9d(%rip),%rsi        # 15b35 <g_2258+0xacd>
   14098:	48 89 c7             	mov    %rax,%rdi
   1409b:	e8 53 66 ff ff       	callq  a6f3 <transparent_crc>
   140a0:	8b 05 3e 50 00 00    	mov    0x503e(%rip),%eax        # 190e4 <g_249>
   140a6:	89 c1                	mov    %eax,%ecx
   140a8:	8b 45 fc             	mov    -0x4(%rbp),%eax
   140ab:	89 c2                	mov    %eax,%edx
   140ad:	48 8d 35 87 1a 00 00 	lea    0x1a87(%rip),%rsi        # 15b3b <g_2258+0xad3>
   140b4:	48 89 cf             	mov    %rcx,%rdi
   140b7:	e8 37 66 ff ff       	callq  a6f3 <transparent_crc>
   140bc:	8b 05 26 50 00 00    	mov    0x5026(%rip),%eax        # 190e8 <g_278>
   140c2:	89 c1                	mov    %eax,%ecx
   140c4:	8b 45 fc             	mov    -0x4(%rbp),%eax
   140c7:	89 c2                	mov    %eax,%edx
   140c9:	48 8d 35 71 1a 00 00 	lea    0x1a71(%rip),%rsi        # 15b41 <g_2258+0xad9>
   140d0:	48 89 cf             	mov    %rcx,%rdi
   140d3:	e8 1b 66 ff ff       	callq  a6f3 <transparent_crc>
   140d8:	c7 45 f0 00 00 00 00 	movl   $0x0,-0x10(%rbp)
   140df:	eb 45                	jmp    14126 <main+0x414>
   140e1:	8b 45 f0             	mov    -0x10(%rbp),%eax
   140e4:	48 98                	cltq   
   140e6:	48 8d 15 03 50 00 00 	lea    0x5003(%rip),%rdx        # 190f0 <g_285>
   140ed:	0f b6 04 10          	movzbl (%rax,%rdx,1),%eax
   140f1:	0f b6 c0             	movzbl %al,%eax
   140f4:	8b 55 fc             	mov    -0x4(%rbp),%edx
   140f7:	48 8d 35 49 1a 00 00 	lea    0x1a49(%rip),%rsi        # 15b47 <g_2258+0xadf>
   140fe:	48 89 c7             	mov    %rax,%rdi
   14101:	e8 ed 65 ff ff       	callq  a6f3 <transparent_crc>
   14106:	83 7d fc 00          	cmpl   $0x0,-0x4(%rbp)
   1410a:	74 16                	je     14122 <main+0x410>
   1410c:	8b 45 f0             	mov    -0x10(%rbp),%eax
   1410f:	89 c6                	mov    %eax,%esi
   14111:	48 8d 3d 38 1a 00 00 	lea    0x1a38(%rip),%rdi        # 15b50 <g_2258+0xae8>
   14118:	b8 00 00 00 00       	mov    $0x0,%eax
   1411d:	e8 5e 4f ff ff       	callq  9080 <printf@plt>
   14122:	83 45 f0 01          	addl   $0x1,-0x10(%rbp)
   14126:	83 7d f0 07          	cmpl   $0x7,-0x10(%rbp)
   1412a:	7e b5                	jle    140e1 <main+0x3cf>
   1412c:	0f b7 05 c5 4f 00 00 	movzwl 0x4fc5(%rip),%eax        # 190f8 <g_287>
   14133:	48 0f bf c0          	movswq %ax,%rax
   14137:	8b 55 fc             	mov    -0x4(%rbp),%edx
   1413a:	48 8d 35 1d 1a 00 00 	lea    0x1a1d(%rip),%rsi        # 15b5e <g_2258+0xaf6>
   14141:	48 89 c7             	mov    %rax,%rdi
   14144:	e8 aa 65 ff ff       	callq  a6f3 <transparent_crc>
   14149:	0f b7 05 aa 4f 00 00 	movzwl 0x4faa(%rip),%eax        # 190fa <g_390>
   14150:	48 0f bf c0          	movswq %ax,%rax
   14154:	8b 55 fc             	mov    -0x4(%rbp),%edx
   14157:	48 8d 35 06 1a 00 00 	lea    0x1a06(%rip),%rsi        # 15b64 <g_2258+0xafc>
   1415e:	48 89 c7             	mov    %rax,%rdi
   14161:	e8 8d 65 ff ff       	callq  a6f3 <transparent_crc>
   14166:	8b 05 90 4f 00 00    	mov    0x4f90(%rip),%eax        # 190fc <g_403>
   1416c:	89 c1                	mov    %eax,%ecx
   1416e:	8b 45 fc             	mov    -0x4(%rbp),%eax
   14171:	89 c2                	mov    %eax,%edx
   14173:	48 8d 35 f0 19 00 00 	lea    0x19f0(%rip),%rsi        # 15b6a <g_2258+0xb02>
   1417a:	48 89 cf             	mov    %rcx,%rdi
   1417d:	e8 71 65 ff ff       	callq  a6f3 <transparent_crc>
   14182:	0f b6 05 77 4f 00 00 	movzbl 0x4f77(%rip),%eax        # 19100 <g_413>
   14189:	0f b6 c0             	movzbl %al,%eax
   1418c:	8b 55 fc             	mov    -0x4(%rbp),%edx
   1418f:	48 8d 35 da 19 00 00 	lea    0x19da(%rip),%rsi        # 15b70 <g_2258+0xb08>
   14196:	48 89 c7             	mov    %rax,%rdi
   14199:	e8 55 65 ff ff       	callq  a6f3 <transparent_crc>
   1419e:	c7 45 f0 00 00 00 00 	movl   $0x0,-0x10(%rbp)
   141a5:	eb 6c                	jmp    14213 <main+0x501>
   141a7:	c7 45 f4 00 00 00 00 	movl   $0x0,-0xc(%rbp)
   141ae:	eb 59                	jmp    14209 <main+0x4f7>
   141b0:	8b 45 f4             	mov    -0xc(%rbp),%eax
   141b3:	48 63 d0             	movslq %eax,%rdx
   141b6:	8b 45 f0             	mov    -0x10(%rbp),%eax
   141b9:	48 98                	cltq   
   141bb:	48 01 d0             	add    %rdx,%rax
   141be:	48 8d 14 85 00 00 00 	lea    0x0(,%rax,4),%rdx
   141c5:	00 
   141c6:	48 8d 05 3b 4f 00 00 	lea    0x4f3b(%rip),%rax        # 19108 <g_417>
   141cd:	8b 04 02             	mov    (%rdx,%rax,1),%eax
   141d0:	89 c1                	mov    %eax,%ecx
   141d2:	8b 45 fc             	mov    -0x4(%rbp),%eax
   141d5:	89 c2                	mov    %eax,%edx
   141d7:	48 8d 35 98 19 00 00 	lea    0x1998(%rip),%rsi        # 15b76 <g_2258+0xb0e>
   141de:	48 89 cf             	mov    %rcx,%rdi
   141e1:	e8 0d 65 ff ff       	callq  a6f3 <transparent_crc>
   141e6:	83 7d fc 00          	cmpl   $0x0,-0x4(%rbp)
   141ea:	74 19                	je     14205 <main+0x4f3>
   141ec:	8b 55 f4             	mov    -0xc(%rbp),%edx
   141ef:	8b 45 f0             	mov    -0x10(%rbp),%eax
   141f2:	89 c6                	mov    %eax,%esi
   141f4:	48 8d 3d bf 18 00 00 	lea    0x18bf(%rip),%rdi        # 15aba <g_2258+0xa52>
   141fb:	b8 00 00 00 00       	mov    $0x0,%eax
   14200:	e8 7b 4e ff ff       	callq  9080 <printf@plt>
   14205:	83 45 f4 01          	addl   $0x1,-0xc(%rbp)
   14209:	83 7d f4 00          	cmpl   $0x0,-0xc(%rbp)
   1420d:	7e a1                	jle    141b0 <main+0x49e>
   1420f:	83 45 f0 01          	addl   $0x1,-0x10(%rbp)
   14213:	83 7d f0 01          	cmpl   $0x1,-0x10(%rbp)
   14217:	7e 8e                	jle    141a7 <main+0x495>
   14219:	c7 45 f0 00 00 00 00 	movl   $0x0,-0x10(%rbp)
   14220:	eb 4a                	jmp    1426c <main+0x55a>
   14222:	8b 45 f0             	mov    -0x10(%rbp),%eax
   14225:	48 98                	cltq   
   14227:	48 8d 14 c5 00 00 00 	lea    0x0(,%rax,8),%rdx
   1422e:	00 
   1422f:	48 8d 05 ea 4e 00 00 	lea    0x4eea(%rip),%rax        # 19120 <g_570>
   14236:	48 8b 04 02          	mov    (%rdx,%rax,1),%rax
   1423a:	8b 55 fc             	mov    -0x4(%rbp),%edx
   1423d:	48 8d 35 3e 19 00 00 	lea    0x193e(%rip),%rsi        # 15b82 <g_2258+0xb1a>
   14244:	48 89 c7             	mov    %rax,%rdi
   14247:	e8 a7 64 ff ff       	callq  a6f3 <transparent_crc>
   1424c:	83 7d fc 00          	cmpl   $0x0,-0x4(%rbp)
   14250:	74 16                	je     14268 <main+0x556>
   14252:	8b 45 f0             	mov    -0x10(%rbp),%eax
   14255:	89 c6                	mov    %eax,%esi
   14257:	48 8d 3d f2 18 00 00 	lea    0x18f2(%rip),%rdi        # 15b50 <g_2258+0xae8>
   1425e:	b8 00 00 00 00       	mov    $0x0,%eax
   14263:	e8 18 4e ff ff       	callq  9080 <printf@plt>
   14268:	83 45 f0 01          	addl   $0x1,-0x10(%rbp)
   1426c:	83 7d f0 08          	cmpl   $0x8,-0x10(%rbp)
   14270:	7e b0                	jle    14222 <main+0x510>
   14272:	8b 05 f0 4e 00 00    	mov    0x4ef0(%rip),%eax        # 19168 <g_609>
   14278:	48 98                	cltq   
   1427a:	8b 55 fc             	mov    -0x4(%rbp),%edx
   1427d:	48 8d 35 07 19 00 00 	lea    0x1907(%rip),%rsi        # 15b8b <g_2258+0xb23>
   14284:	48 89 c7             	mov    %rax,%rdi
   14287:	e8 67 64 ff ff       	callq  a6f3 <transparent_crc>
   1428c:	0f b6 05 d9 4e 00 00 	movzbl 0x4ed9(%rip),%eax        # 1916c <g_676>
   14293:	48 0f be c0          	movsbq %al,%rax
   14297:	8b 55 fc             	mov    -0x4(%rbp),%edx
   1429a:	48 8d 35 f0 18 00 00 	lea    0x18f0(%rip),%rsi        # 15b91 <g_2258+0xb29>
   142a1:	48 89 c7             	mov    %rax,%rdi
   142a4:	e8 4a 64 ff ff       	callq  a6f3 <transparent_crc>
   142a9:	0f b7 05 be 4e 00 00 	movzwl 0x4ebe(%rip),%eax        # 1916e <g_751>
   142b0:	48 0f bf c0          	movswq %ax,%rax
   142b4:	8b 55 fc             	mov    -0x4(%rbp),%edx
   142b7:	48 8d 35 d9 18 00 00 	lea    0x18d9(%rip),%rsi        # 15b97 <g_2258+0xb2f>
   142be:	48 89 c7             	mov    %rax,%rdi
   142c1:	e8 2d 64 ff ff       	callq  a6f3 <transparent_crc>
   142c6:	48 8b 05 a3 4e 00 00 	mov    0x4ea3(%rip),%rax        # 19170 <g_759>
   142cd:	48 89 c1             	mov    %rax,%rcx
   142d0:	8b 45 fc             	mov    -0x4(%rbp),%eax
   142d3:	89 c2                	mov    %eax,%edx
   142d5:	48 8d 35 c1 18 00 00 	lea    0x18c1(%rip),%rsi        # 15b9d <g_2258+0xb35>
   142dc:	48 89 cf             	mov    %rcx,%rdi
   142df:	e8 0f 64 ff ff       	callq  a6f3 <transparent_crc>
   142e4:	48 8b 05 8d 4e 00 00 	mov    0x4e8d(%rip),%rax        # 19178 <g_761>
   142eb:	48 89 c1             	mov    %rax,%rcx
   142ee:	8b 45 fc             	mov    -0x4(%rbp),%eax
   142f1:	89 c2                	mov    %eax,%edx
   142f3:	48 8d 35 a9 18 00 00 	lea    0x18a9(%rip),%rsi        # 15ba3 <g_2258+0xb3b>
   142fa:	48 89 cf             	mov    %rcx,%rdi
   142fd:	e8 f1 63 ff ff       	callq  a6f3 <transparent_crc>
   14302:	0f b7 05 77 4e 00 00 	movzwl 0x4e77(%rip),%eax        # 19180 <g_829>
   14309:	0f b7 c0             	movzwl %ax,%eax
   1430c:	8b 55 fc             	mov    -0x4(%rbp),%edx
   1430f:	48 8d 35 93 18 00 00 	lea    0x1893(%rip),%rsi        # 15ba9 <g_2258+0xb41>
   14316:	48 89 c7             	mov    %rax,%rdi
   14319:	e8 d5 63 ff ff       	callq  a6f3 <transparent_crc>
   1431e:	8b 05 60 4e 00 00    	mov    0x4e60(%rip),%eax        # 19184 <g_906>
   14324:	89 c1                	mov    %eax,%ecx
   14326:	8b 45 fc             	mov    -0x4(%rbp),%eax
   14329:	89 c2                	mov    %eax,%edx
   1432b:	48 8d 35 7d 18 00 00 	lea    0x187d(%rip),%rsi        # 15baf <g_2258+0xb47>
   14332:	48 89 cf             	mov    %rcx,%rdi
   14335:	e8 b9 63 ff ff       	callq  a6f3 <transparent_crc>
   1433a:	c7 45 f0 00 00 00 00 	movl   $0x0,-0x10(%rbp)
   14341:	e9 9f 00 00 00       	jmpq   143e5 <main+0x6d3>
   14346:	c7 45 f4 00 00 00 00 	movl   $0x0,-0xc(%rbp)
   1434d:	e9 85 00 00 00       	jmpq   143d7 <main+0x6c5>
   14352:	c7 45 f8 00 00 00 00 	movl   $0x0,-0x8(%rbp)
   14359:	eb 72                	jmp    143cd <main+0x6bb>
   1435b:	8b 45 f8             	mov    -0x8(%rbp),%eax
   1435e:	48 63 c8             	movslq %eax,%rcx
   14361:	8b 45 f0             	mov    -0x10(%rbp),%eax
   14364:	48 63 d0             	movslq %eax,%rdx
   14367:	8b 45 f4             	mov    -0xc(%rbp),%eax
   1436a:	48 63 f0             	movslq %eax,%rsi
   1436d:	48 89 d0             	mov    %rdx,%rax
   14370:	48 c1 e0 02          	shl    $0x2,%rax
   14374:	48 01 d0             	add    %rdx,%rax
   14377:	48 01 f0             	add    %rsi,%rax
   1437a:	48 c1 e0 03          	shl    $0x3,%rax
   1437e:	48 01 c8             	add    %rcx,%rax
   14381:	48 8d 14 85 00 00 00 	lea    0x0(,%rax,4),%rdx
   14388:	00 
   14389:	48 8d 05 10 4e 00 00 	lea    0x4e10(%rip),%rax        # 191a0 <g_933>
   14390:	8b 04 02             	mov    (%rdx,%rax,1),%eax
   14393:	48 98                	cltq   
   14395:	8b 55 fc             	mov    -0x4(%rbp),%edx
   14398:	48 8d 35 16 18 00 00 	lea    0x1816(%rip),%rsi        # 15bb5 <g_2258+0xb4d>
   1439f:	48 89 c7             	mov    %rax,%rdi
   143a2:	e8 4c 63 ff ff       	callq  a6f3 <transparent_crc>
   143a7:	83 7d fc 00          	cmpl   $0x0,-0x4(%rbp)
   143ab:	74 1c                	je     143c9 <main+0x6b7>
   143ad:	8b 4d f8             	mov    -0x8(%rbp),%ecx
   143b0:	8b 55 f4             	mov    -0xc(%rbp),%edx
   143b3:	8b 45 f0             	mov    -0x10(%rbp),%eax
   143b6:	89 c6                	mov    %eax,%esi
   143b8:	48 8d 3d 1b 17 00 00 	lea    0x171b(%rip),%rdi        # 15ada <g_2258+0xa72>
   143bf:	b8 00 00 00 00       	mov    $0x0,%eax
   143c4:	e8 b7 4c ff ff       	callq  9080 <printf@plt>
   143c9:	83 45 f8 01          	addl   $0x1,-0x8(%rbp)
   143cd:	83 7d f8 07          	cmpl   $0x7,-0x8(%rbp)
   143d1:	7e 88                	jle    1435b <main+0x649>
   143d3:	83 45 f4 01          	addl   $0x1,-0xc(%rbp)
   143d7:	83 7d f4 04          	cmpl   $0x4,-0xc(%rbp)
   143db:	0f 8e 71 ff ff ff    	jle    14352 <main+0x640>
   143e1:	83 45 f0 01          	addl   $0x1,-0x10(%rbp)
   143e5:	83 7d f0 05          	cmpl   $0x5,-0x10(%rbp)
   143e9:	0f 8e 57 ff ff ff    	jle    14346 <main+0x634>
   143ef:	c7 45 f0 00 00 00 00 	movl   $0x0,-0x10(%rbp)
   143f6:	eb 4d                	jmp    14445 <main+0x733>
   143f8:	8b 45 f0             	mov    -0x10(%rbp),%eax
   143fb:	48 98                	cltq   
   143fd:	48 8d 14 85 00 00 00 	lea    0x0(,%rax,4),%rdx
   14404:	00 
   14405:	48 8d 05 54 51 00 00 	lea    0x5154(%rip),%rax        # 19560 <g_934>
   1440c:	8b 04 02             	mov    (%rdx,%rax,1),%eax
   1440f:	89 c1                	mov    %eax,%ecx
   14411:	8b 45 fc             	mov    -0x4(%rbp),%eax
   14414:	89 c2                	mov    %eax,%edx
   14416:	48 8d 35 a7 17 00 00 	lea    0x17a7(%rip),%rsi        # 15bc4 <g_2258+0xb5c>
   1441d:	48 89 cf             	mov    %rcx,%rdi
   14420:	e8 ce 62 ff ff       	callq  a6f3 <transparent_crc>
   14425:	83 7d fc 00          	cmpl   $0x0,-0x4(%rbp)
   14429:	74 16                	je     14441 <main+0x72f>
   1442b:	8b 45 f0             	mov    -0x10(%rbp),%eax
   1442e:	89 c6                	mov    %eax,%esi
   14430:	48 8d 3d 19 17 00 00 	lea    0x1719(%rip),%rdi        # 15b50 <g_2258+0xae8>
   14437:	b8 00 00 00 00       	mov    $0x0,%eax
   1443c:	e8 3f 4c ff ff       	callq  9080 <printf@plt>
   14441:	83 45 f0 01          	addl   $0x1,-0x10(%rbp)
   14445:	83 7d f0 00          	cmpl   $0x0,-0x10(%rbp)
   14449:	7e ad                	jle    143f8 <main+0x6e6>
   1444b:	48 8b 05 16 51 00 00 	mov    0x5116(%rip),%rax        # 19568 <g_1008>
   14452:	48 89 c1             	mov    %rax,%rcx
   14455:	8b 45 fc             	mov    -0x4(%rbp),%eax
   14458:	89 c2                	mov    %eax,%edx
   1445a:	48 8d 35 6c 17 00 00 	lea    0x176c(%rip),%rsi        # 15bcd <g_2258+0xb65>
   14461:	48 89 cf             	mov    %rcx,%rdi
   14464:	e8 8a 62 ff ff       	callq  a6f3 <transparent_crc>
   14469:	0f b7 05 00 51 00 00 	movzwl 0x5100(%rip),%eax        # 19570 <g_1011>
   14470:	48 0f bf c0          	movswq %ax,%rax
   14474:	8b 55 fc             	mov    -0x4(%rbp),%edx
   14477:	48 8d 35 56 17 00 00 	lea    0x1756(%rip),%rsi        # 15bd4 <g_2258+0xb6c>
   1447e:	48 89 c7             	mov    %rax,%rdi
   14481:	e8 6d 62 ff ff       	callq  a6f3 <transparent_crc>
   14486:	48 8b 05 eb 50 00 00 	mov    0x50eb(%rip),%rax        # 19578 <g_1098>
   1448d:	48 89 c1             	mov    %rax,%rcx
   14490:	8b 45 fc             	mov    -0x4(%rbp),%eax
   14493:	89 c2                	mov    %eax,%edx
   14495:	48 8d 35 3f 17 00 00 	lea    0x173f(%rip),%rsi        # 15bdb <g_2258+0xb73>
   1449c:	48 89 cf             	mov    %rcx,%rdi
   1449f:	e8 4f 62 ff ff       	callq  a6f3 <transparent_crc>
   144a4:	8b 05 d6 50 00 00    	mov    0x50d6(%rip),%eax        # 19580 <g_1216>
   144aa:	48 98                	cltq   
   144ac:	8b 55 fc             	mov    -0x4(%rbp),%edx
   144af:	48 8d 35 2c 17 00 00 	lea    0x172c(%rip),%rsi        # 15be2 <g_2258+0xb7a>
   144b6:	48 89 c7             	mov    %rax,%rdi
   144b9:	e8 35 62 ff ff       	callq  a6f3 <transparent_crc>
   144be:	8b 05 c0 50 00 00    	mov    0x50c0(%rip),%eax        # 19584 <g_1256>
   144c4:	48 98                	cltq   
   144c6:	8b 55 fc             	mov    -0x4(%rbp),%edx
   144c9:	48 8d 35 19 17 00 00 	lea    0x1719(%rip),%rsi        # 15be9 <g_2258+0xb81>
   144d0:	48 89 c7             	mov    %rax,%rdi
   144d3:	e8 1b 62 ff ff       	callq  a6f3 <transparent_crc>
   144d8:	b8 ca 64 00 00       	mov    $0x64ca,%eax
   144dd:	48 0f bf c0          	movswq %ax,%rax
   144e1:	8b 55 fc             	mov    -0x4(%rbp),%edx
   144e4:	48 8d 35 05 17 00 00 	lea    0x1705(%rip),%rsi        # 15bf0 <g_2258+0xb88>
   144eb:	48 89 c7             	mov    %rax,%rdi
   144ee:	e8 00 62 ff ff       	callq  a6f3 <transparent_crc>
   144f3:	c7 45 f0 00 00 00 00 	movl   $0x0,-0x10(%rbp)
   144fa:	eb 72                	jmp    1456e <main+0x85c>
   144fc:	c7 45 f4 00 00 00 00 	movl   $0x0,-0xc(%rbp)
   14503:	eb 5f                	jmp    14564 <main+0x852>
   14505:	8b 45 f4             	mov    -0xc(%rbp),%eax
   14508:	48 63 c8             	movslq %eax,%rcx
   1450b:	8b 45 f0             	mov    -0x10(%rbp),%eax
   1450e:	48 63 d0             	movslq %eax,%rdx
   14511:	48 89 d0             	mov    %rdx,%rax
   14514:	48 c1 e0 03          	shl    $0x3,%rax
   14518:	48 01 d0             	add    %rdx,%rax
   1451b:	48 8d 14 08          	lea    (%rax,%rcx,1),%rdx
   1451f:	48 8d 05 7a 50 00 00 	lea    0x507a(%rip),%rax        # 195a0 <g_1326>
   14526:	48 01 d0             	add    %rdx,%rax
   14529:	0f b6 00             	movzbl (%rax),%eax
   1452c:	0f b6 c0             	movzbl %al,%eax
   1452f:	8b 55 fc             	mov    -0x4(%rbp),%edx
   14532:	48 8d 35 be 16 00 00 	lea    0x16be(%rip),%rsi        # 15bf7 <g_2258+0xb8f>
   14539:	48 89 c7             	mov    %rax,%rdi
   1453c:	e8 b2 61 ff ff       	callq  a6f3 <transparent_crc>
   14541:	83 7d fc 00          	cmpl   $0x0,-0x4(%rbp)
   14545:	74 19                	je     14560 <main+0x84e>
   14547:	8b 55 f4             	mov    -0xc(%rbp),%edx
   1454a:	8b 45 f0             	mov    -0x10(%rbp),%eax
   1454d:	89 c6                	mov    %eax,%esi
   1454f:	48 8d 3d 64 15 00 00 	lea    0x1564(%rip),%rdi        # 15aba <g_2258+0xa52>
   14556:	b8 00 00 00 00       	mov    $0x0,%eax
   1455b:	e8 20 4b ff ff       	callq  9080 <printf@plt>
   14560:	83 45 f4 01          	addl   $0x1,-0xc(%rbp)
   14564:	83 7d f4 08          	cmpl   $0x8,-0xc(%rbp)
   14568:	7e 9b                	jle    14505 <main+0x7f3>
   1456a:	83 45 f0 01          	addl   $0x1,-0x10(%rbp)
   1456e:	83 7d f0 06          	cmpl   $0x6,-0x10(%rbp)
   14572:	7e 88                	jle    144fc <main+0x7ea>
   14574:	c7 45 f0 00 00 00 00 	movl   $0x0,-0x10(%rbp)
   1457b:	eb 77                	jmp    145f4 <main+0x8e2>
   1457d:	c7 45 f4 00 00 00 00 	movl   $0x0,-0xc(%rbp)
   14584:	eb 64                	jmp    145ea <main+0x8d8>
   14586:	8b 45 f4             	mov    -0xc(%rbp),%eax
   14589:	48 63 c8             	movslq %eax,%rcx
   1458c:	8b 45 f0             	mov    -0x10(%rbp),%eax
   1458f:	48 63 d0             	movslq %eax,%rdx
   14592:	48 89 d0             	mov    %rdx,%rax
   14595:	48 c1 e0 03          	shl    $0x3,%rax
   14599:	48 01 d0             	add    %rdx,%rax
   1459c:	48 01 c8             	add    %rcx,%rax
   1459f:	48 8d 14 85 00 00 00 	lea    0x0(,%rax,4),%rdx
   145a6:	00 
   145a7:	48 8d 05 32 50 00 00 	lea    0x5032(%rip),%rax        # 195e0 <g_1421>
   145ae:	8b 04 02             	mov    (%rdx,%rax,1),%eax
   145b1:	89 c1                	mov    %eax,%ecx
   145b3:	8b 45 fc             	mov    -0x4(%rbp),%eax
   145b6:	89 c2                	mov    %eax,%edx
   145b8:	48 8d 35 45 16 00 00 	lea    0x1645(%rip),%rsi        # 15c04 <g_2258+0xb9c>
   145bf:	48 89 cf             	mov    %rcx,%rdi
   145c2:	e8 2c 61 ff ff       	callq  a6f3 <transparent_crc>
   145c7:	83 7d fc 00          	cmpl   $0x0,-0x4(%rbp)
   145cb:	74 19                	je     145e6 <main+0x8d4>
   145cd:	8b 55 f4             	mov    -0xc(%rbp),%edx
   145d0:	8b 45 f0             	mov    -0x10(%rbp),%eax
   145d3:	89 c6                	mov    %eax,%esi
   145d5:	48 8d 3d de 14 00 00 	lea    0x14de(%rip),%rdi        # 15aba <g_2258+0xa52>
   145dc:	b8 00 00 00 00       	mov    $0x0,%eax
   145e1:	e8 9a 4a ff ff       	callq  9080 <printf@plt>
   145e6:	83 45 f4 01          	addl   $0x1,-0xc(%rbp)
   145ea:	83 7d f4 08          	cmpl   $0x8,-0xc(%rbp)
   145ee:	7e 96                	jle    14586 <main+0x874>
   145f0:	83 45 f0 01          	addl   $0x1,-0x10(%rbp)
   145f4:	83 7d f0 01          	cmpl   $0x1,-0x10(%rbp)
   145f8:	7e 83                	jle    1457d <main+0x86b>
   145fa:	c7 45 f0 00 00 00 00 	movl   $0x0,-0x10(%rbp)
   14601:	e9 a0 00 00 00       	jmpq   146a6 <main+0x994>
   14606:	c7 45 f4 00 00 00 00 	movl   $0x0,-0xc(%rbp)
   1460d:	e9 86 00 00 00       	jmpq   14698 <main+0x986>
   14612:	c7 45 f8 00 00 00 00 	movl   $0x0,-0x8(%rbp)
   14619:	eb 73                	jmp    1468e <main+0x97c>
   1461b:	8b 45 f8             	mov    -0x8(%rbp),%eax
   1461e:	48 63 f0             	movslq %eax,%rsi
   14621:	8b 45 f4             	mov    -0xc(%rbp),%eax
   14624:	48 63 c8             	movslq %eax,%rcx
   14627:	8b 45 f0             	mov    -0x10(%rbp),%eax
   1462a:	48 63 d0             	movslq %eax,%rdx
   1462d:	48 89 d0             	mov    %rdx,%rax
   14630:	48 c1 e0 02          	shl    $0x2,%rax
   14634:	48 01 d0             	add    %rdx,%rax
   14637:	48 01 c0             	add    %rax,%rax
   1463a:	48 01 f0             	add    %rsi,%rax
   1463d:	48 01 c8             	add    %rcx,%rax
   14640:	48 8d 14 85 00 00 00 	lea    0x0(,%rax,4),%rdx
   14647:	00 
   14648:	48 8d 05 51 8a 00 00 	lea    0x8a51(%rip),%rax        # 1d0a0 <g_1608>
   1464f:	8b 04 02             	mov    (%rdx,%rax,1),%eax
   14652:	89 c1                	mov    %eax,%ecx
   14654:	8b 45 fc             	mov    -0x4(%rbp),%eax
   14657:	89 c2                	mov    %eax,%edx
   14659:	48 8d 35 b1 15 00 00 	lea    0x15b1(%rip),%rsi        # 15c11 <g_2258+0xba9>
   14660:	48 89 cf             	mov    %rcx,%rdi
   14663:	e8 8b 60 ff ff       	callq  a6f3 <transparent_crc>
   14668:	83 7d fc 00          	cmpl   $0x0,-0x4(%rbp)
   1466c:	74 1c                	je     1468a <main+0x978>
   1466e:	8b 4d f8             	mov    -0x8(%rbp),%ecx
   14671:	8b 55 f4             	mov    -0xc(%rbp),%edx
   14674:	8b 45 f0             	mov    -0x10(%rbp),%eax
   14677:	89 c6                	mov    %eax,%esi
   14679:	48 8d 3d 5a 14 00 00 	lea    0x145a(%rip),%rdi        # 15ada <g_2258+0xa72>
   14680:	b8 00 00 00 00       	mov    $0x0,%eax
   14685:	e8 f6 49 ff ff       	callq  9080 <printf@plt>
   1468a:	83 45 f8 01          	addl   $0x1,-0x8(%rbp)
   1468e:	83 7d f8 00          	cmpl   $0x0,-0x8(%rbp)
   14692:	7e 87                	jle    1461b <main+0x909>
   14694:	83 45 f4 01          	addl   $0x1,-0xc(%rbp)
   14698:	83 7d f4 09          	cmpl   $0x9,-0xc(%rbp)
   1469c:	0f 8e 70 ff ff ff    	jle    14612 <main+0x900>
   146a2:	83 45 f0 01          	addl   $0x1,-0x10(%rbp)
   146a6:	83 7d f0 01          	cmpl   $0x1,-0x10(%rbp)
   146aa:	0f 8e 56 ff ff ff    	jle    14606 <main+0x8f4>
   146b0:	c7 45 f0 00 00 00 00 	movl   $0x0,-0x10(%rbp)
   146b7:	e9 9a 00 00 00       	jmpq   14756 <main+0xa44>
   146bc:	c7 45 f4 00 00 00 00 	movl   $0x0,-0xc(%rbp)
   146c3:	e9 80 00 00 00       	jmpq   14748 <main+0xa36>
   146c8:	c7 45 f8 00 00 00 00 	movl   $0x0,-0x8(%rbp)
   146cf:	eb 6d                	jmp    1473e <main+0xa2c>
   146d1:	8b 45 f8             	mov    -0x8(%rbp),%eax
   146d4:	48 98                	cltq   
   146d6:	8b 55 f0             	mov    -0x10(%rbp),%edx
   146d9:	48 63 ca             	movslq %edx,%rcx
   146dc:	8b 55 f4             	mov    -0xc(%rbp),%edx
   146df:	48 63 d2             	movslq %edx,%rdx
   146e2:	48 c1 e1 02          	shl    $0x2,%rcx
   146e6:	48 01 ca             	add    %rcx,%rdx
   146e9:	48 c1 e2 03          	shl    $0x3,%rdx
   146ed:	48 01 d0             	add    %rdx,%rax
   146f0:	48 8d 14 85 00 00 00 	lea    0x0(,%rax,4),%rdx
   146f7:	00 
   146f8:	48 8d 05 41 4f 00 00 	lea    0x4f41(%rip),%rax        # 19640 <g_1773>
   146ff:	8b 04 02             	mov    (%rdx,%rax,1),%eax
   14702:	89 c1                	mov    %eax,%ecx
   14704:	8b 45 fc             	mov    -0x4(%rbp),%eax
   14707:	89 c2                	mov    %eax,%edx
   14709:	48 8d 35 11 15 00 00 	lea    0x1511(%rip),%rsi        # 15c21 <g_2258+0xbb9>
   14710:	48 89 cf             	mov    %rcx,%rdi
   14713:	e8 db 5f ff ff       	callq  a6f3 <transparent_crc>
   14718:	83 7d fc 00          	cmpl   $0x0,-0x4(%rbp)
   1471c:	74 1c                	je     1473a <main+0xa28>
   1471e:	8b 4d f8             	mov    -0x8(%rbp),%ecx
   14721:	8b 55 f4             	mov    -0xc(%rbp),%edx
   14724:	8b 45 f0             	mov    -0x10(%rbp),%eax
   14727:	89 c6                	mov    %eax,%esi
   14729:	48 8d 3d aa 13 00 00 	lea    0x13aa(%rip),%rdi        # 15ada <g_2258+0xa72>
   14730:	b8 00 00 00 00       	mov    $0x0,%eax
   14735:	e8 46 49 ff ff       	callq  9080 <printf@plt>
   1473a:	83 45 f8 01          	addl   $0x1,-0x8(%rbp)
   1473e:	83 7d f8 07          	cmpl   $0x7,-0x8(%rbp)
   14742:	7e 8d                	jle    146d1 <main+0x9bf>
   14744:	83 45 f4 01          	addl   $0x1,-0xc(%rbp)
   14748:	83 7d f4 03          	cmpl   $0x3,-0xc(%rbp)
   1474c:	0f 8e 76 ff ff ff    	jle    146c8 <main+0x9b6>
   14752:	83 45 f0 01          	addl   $0x1,-0x10(%rbp)
   14756:	83 7d f0 07          	cmpl   $0x7,-0x10(%rbp)
   1475a:	0f 8e 5c ff ff ff    	jle    146bc <main+0x9aa>
   14760:	8b 05 da 52 00 00    	mov    0x52da(%rip),%eax        # 19a40 <g_2065>
   14766:	48 98                	cltq   
   14768:	8b 55 fc             	mov    -0x4(%rbp),%edx
   1476b:	48 8d 35 bf 14 00 00 	lea    0x14bf(%rip),%rsi        # 15c31 <g_2258+0xbc9>
   14772:	48 89 c7             	mov    %rax,%rdi
   14775:	e8 79 5f ff ff       	callq  a6f3 <transparent_crc>
   1477a:	0f b6 05 c3 52 00 00 	movzbl 0x52c3(%rip),%eax        # 19a44 <g_2102>
   14781:	48 0f be c0          	movsbq %al,%rax
   14785:	8b 55 fc             	mov    -0x4(%rbp),%edx
   14788:	48 8d 35 a9 14 00 00 	lea    0x14a9(%rip),%rsi        # 15c38 <g_2258+0xbd0>
   1478f:	48 89 c7             	mov    %rax,%rdi
   14792:	e8 5c 5f ff ff       	callq  a6f3 <transparent_crc>
   14797:	48 8b 05 aa 52 00 00 	mov    0x52aa(%rip),%rax        # 19a48 <g_2121>
   1479e:	8b 55 fc             	mov    -0x4(%rbp),%edx
   147a1:	48 8d 35 97 14 00 00 	lea    0x1497(%rip),%rsi        # 15c3f <g_2258+0xbd7>
   147a8:	48 89 c7             	mov    %rax,%rdi
   147ab:	e8 43 5f ff ff       	callq  a6f3 <transparent_crc>
   147b0:	48 c7 c1 ff ff ff ff 	mov    $0xffffffffffffffff,%rcx
   147b7:	8b 45 fc             	mov    -0x4(%rbp),%eax
   147ba:	89 c2                	mov    %eax,%edx
   147bc:	48 8d 35 83 14 00 00 	lea    0x1483(%rip),%rsi        # 15c46 <g_2258+0xbde>
   147c3:	48 89 cf             	mov    %rcx,%rdi
   147c6:	e8 28 5f ff ff       	callq  a6f3 <transparent_crc>
   147cb:	c7 45 f0 00 00 00 00 	movl   $0x0,-0x10(%rbp)
   147d2:	eb 4d                	jmp    14821 <main+0xb0f>
   147d4:	8b 45 f0             	mov    -0x10(%rbp),%eax
   147d7:	48 98                	cltq   
   147d9:	48 8d 14 85 00 00 00 	lea    0x0(,%rax,4),%rdx
   147e0:	00 
   147e1:	48 8d 05 78 52 00 00 	lea    0x5278(%rip),%rax        # 19a60 <g_2280>
   147e8:	8b 04 02             	mov    (%rdx,%rax,1),%eax
   147eb:	89 c1                	mov    %eax,%ecx
   147ed:	8b 45 fc             	mov    -0x4(%rbp),%eax
   147f0:	89 c2                	mov    %eax,%edx
   147f2:	48 8d 35 54 14 00 00 	lea    0x1454(%rip),%rsi        # 15c4d <g_2258+0xbe5>
   147f9:	48 89 cf             	mov    %rcx,%rdi
   147fc:	e8 f2 5e ff ff       	callq  a6f3 <transparent_crc>
   14801:	83 7d fc 00          	cmpl   $0x0,-0x4(%rbp)
   14805:	74 16                	je     1481d <main+0xb0b>
   14807:	8b 45 f0             	mov    -0x10(%rbp),%eax
   1480a:	89 c6                	mov    %eax,%esi
   1480c:	48 8d 3d 3d 13 00 00 	lea    0x133d(%rip),%rdi        # 15b50 <g_2258+0xae8>
   14813:	b8 00 00 00 00       	mov    $0x0,%eax
   14818:	e8 63 48 ff ff       	callq  9080 <printf@plt>
   1481d:	83 45 f0 01          	addl   $0x1,-0x10(%rbp)
   14821:	83 7d f0 09          	cmpl   $0x9,-0x10(%rbp)
   14825:	7e ad                	jle    147d4 <main+0xac2>
   14827:	8b 05 5b 52 00 00    	mov    0x525b(%rip),%eax        # 19a88 <g_2284>
   1482d:	48 98                	cltq   
   1482f:	8b 55 fc             	mov    -0x4(%rbp),%edx
   14832:	48 8d 35 1e 14 00 00 	lea    0x141e(%rip),%rsi        # 15c57 <g_2258+0xbef>
   14839:	48 89 c7             	mov    %rax,%rdi
   1483c:	e8 b2 5e ff ff       	callq  a6f3 <transparent_crc>
   14841:	0f b7 05 44 52 00 00 	movzwl 0x5244(%rip),%eax        # 19a8c <g_2315>
   14848:	48 0f bf c0          	movswq %ax,%rax
   1484c:	8b 55 fc             	mov    -0x4(%rbp),%edx
   1484f:	48 8d 35 08 14 00 00 	lea    0x1408(%rip),%rsi        # 15c5e <g_2258+0xbf6>
   14856:	48 89 c7             	mov    %rax,%rdi
   14859:	e8 95 5e ff ff       	callq  a6f3 <transparent_crc>
   1485e:	0f b6 05 29 52 00 00 	movzbl 0x5229(%rip),%eax        # 19a8e <g_2318>
   14865:	0f b6 c0             	movzbl %al,%eax
   14868:	8b 55 fc             	mov    -0x4(%rbp),%edx
   1486b:	48 8d 35 f3 13 00 00 	lea    0x13f3(%rip),%rsi        # 15c65 <g_2258+0xbfd>
   14872:	48 89 c7             	mov    %rax,%rdi
   14875:	e8 79 5e ff ff       	callq  a6f3 <transparent_crc>
   1487a:	8b 05 10 52 00 00    	mov    0x5210(%rip),%eax        # 19a90 <g_2353>
   14880:	48 98                	cltq   
   14882:	8b 55 fc             	mov    -0x4(%rbp),%edx
   14885:	48 8d 35 e0 13 00 00 	lea    0x13e0(%rip),%rsi        # 15c6c <g_2258+0xc04>
   1488c:	48 89 c7             	mov    %rax,%rdi
   1488f:	e8 5f 5e ff ff       	callq  a6f3 <transparent_crc>
   14894:	0f b7 05 f9 51 00 00 	movzwl 0x51f9(%rip),%eax        # 19a94 <g_2473>
   1489b:	0f b7 c0             	movzwl %ax,%eax
   1489e:	8b 55 fc             	mov    -0x4(%rbp),%edx
   148a1:	48 8d 35 cb 13 00 00 	lea    0x13cb(%rip),%rsi        # 15c73 <g_2258+0xc0b>
   148a8:	48 89 c7             	mov    %rax,%rdi
   148ab:	e8 43 5e ff ff       	callq  a6f3 <transparent_crc>
   148b0:	8b 05 6a 47 00 00    	mov    0x476a(%rip),%eax        # 19020 <crc32_context>
   148b6:	f7 d0                	not    %eax
   148b8:	89 c2                	mov    %eax,%edx
   148ba:	8b 45 fc             	mov    -0x4(%rbp),%eax
   148bd:	89 c6                	mov    %eax,%esi
   148bf:	89 d7                	mov    %edx,%edi
   148c1:	e8 ce 48 ff ff       	callq  9194 <platform_main_end>
   148c6:	b8 00 00 00 00       	mov    $0x0,%eax
   148cb:	c9                   	leaveq 
   148cc:	c3                   	retq   
   148cd:	0f 1f 00             	nopl   (%rax)

00000000000148d0 <__libc_csu_init>:
   148d0:	f3 0f 1e fa          	endbr64 
   148d4:	41 57                	push   %r15
   148d6:	4c 8d 3d bb 44 00 00 	lea    0x44bb(%rip),%r15        # 18d98 <__frame_dummy_init_array_entry>
   148dd:	41 56                	push   %r14
   148df:	49 89 d6             	mov    %rdx,%r14
   148e2:	41 55                	push   %r13
   148e4:	49 89 f5             	mov    %rsi,%r13
   148e7:	41 54                	push   %r12
   148e9:	41 89 fc             	mov    %edi,%r12d
   148ec:	55                   	push   %rbp
   148ed:	48 8d 2d ac 44 00 00 	lea    0x44ac(%rip),%rbp        # 18da0 <__do_global_dtors_aux_fini_array_entry>
   148f4:	53                   	push   %rbx
   148f5:	4c 29 fd             	sub    %r15,%rbp
   148f8:	48 83 ec 08          	sub    $0x8,%rsp
   148fc:	e8 ff 46 ff ff       	callq  9000 <_init>
   14901:	48 c1 fd 03          	sar    $0x3,%rbp
   14905:	74 1f                	je     14926 <__libc_csu_init+0x56>
   14907:	31 db                	xor    %ebx,%ebx
   14909:	0f 1f 80 00 00 00 00 	nopl   0x0(%rax)
   14910:	4c 89 f2             	mov    %r14,%rdx
   14913:	4c 89 ee             	mov    %r13,%rsi
   14916:	44 89 e7             	mov    %r12d,%edi
   14919:	41 ff 14 df          	callq  *(%r15,%rbx,8)
   1491d:	48 83 c3 01          	add    $0x1,%rbx
   14921:	48 39 dd             	cmp    %rbx,%rbp
   14924:	75 ea                	jne    14910 <__libc_csu_init+0x40>
   14926:	48 83 c4 08          	add    $0x8,%rsp
   1492a:	5b                   	pop    %rbx
   1492b:	5d                   	pop    %rbp
   1492c:	41 5c                	pop    %r12
   1492e:	41 5d                	pop    %r13
   14930:	41 5e                	pop    %r14
   14932:	41 5f                	pop    %r15
   14934:	c3                   	retq   
   14935:	66 66 2e 0f 1f 84 00 	data16 nopw %cs:0x0(%rax,%rax,1)
   1493c:	00 00 00 00 

0000000000014940 <__libc_csu_fini>:
   14940:	f3 0f 1e fa          	endbr64 
   14944:	c3                   	retq   
