


Disassembly of section .text:

00000000000050a0 <_start>:
    50a0:	f3 0f 1e fa          	endbr64 
    50a4:	31 ed                	xor    %ebp,%ebp
    50a6:	49 89 d1             	mov    %rdx,%r9
    50a9:	5e                   	pop    %rsi
    50aa:	48 89 e2             	mov    %rsp,%rdx
    50ad:	48 83 e4 f0          	and    $0xfffffffffffffff0,%rsp
    50b1:	50                   	push   %rax
    50b2:	54                   	push   %rsp
    50b3:	4c 8d 05 56 c1 00 00 	lea    0xc156(%rip),%r8        # 11210 <__libc_csu_fini>
    50ba:	48 8d 0d df c0 00 00 	lea    0xc0df(%rip),%rcx        # 111a0 <__libc_csu_init>
    50c1:	48 8d 3d 6f 9d 00 00 	lea    0x9d6f(%rip),%rdi        # ee37 <main>
    50c8:	ff 15 12 0f 01 00    	callq  *0x10f12(%rip)        # 15fe0 <__libc_start_main@GLIBC_2.2.5>
    50ce:	f4                   	hlt    
    50cf:	90                   	nop

00000000000050d0 <deregister_tm_clones>:
    50d0:	48 8d 3d 99 52 01 00 	lea    0x15299(%rip),%rdi        # 1a370 <__TMC_END__>
    50d7:	48 8d 05 92 52 01 00 	lea    0x15292(%rip),%rax        # 1a370 <__TMC_END__>
    50de:	48 39 f8             	cmp    %rdi,%rax
    50e1:	74 15                	je     50f8 <deregister_tm_clones+0x28>
    50e3:	48 8b 05 ee 0e 01 00 	mov    0x10eee(%rip),%rax        # 15fd8 <_ITM_deregisterTMCloneTable>
    50ea:	48 85 c0             	test   %rax,%rax
    50ed:	74 09                	je     50f8 <deregister_tm_clones+0x28>
    50ef:	ff e0                	jmpq   *%rax
    50f1:	0f 1f 80 00 00 00 00 	nopl   0x0(%rax)
    50f8:	c3                   	retq   
    50f9:	0f 1f 80 00 00 00 00 	nopl   0x0(%rax)

0000000000005100 <register_tm_clones>:
    5100:	48 8d 3d 69 52 01 00 	lea    0x15269(%rip),%rdi        # 1a370 <__TMC_END__>
    5107:	48 8d 35 62 52 01 00 	lea    0x15262(%rip),%rsi        # 1a370 <__TMC_END__>
    510e:	48 29 fe             	sub    %rdi,%rsi
    5111:	48 89 f0             	mov    %rsi,%rax
    5114:	48 c1 ee 3f          	shr    $0x3f,%rsi
    5118:	48 c1 f8 03          	sar    $0x3,%rax
    511c:	48 01 c6             	add    %rax,%rsi
    511f:	48 d1 fe             	sar    %rsi
    5122:	74 14                	je     5138 <register_tm_clones+0x38>
    5124:	48 8b 05 c5 0e 01 00 	mov    0x10ec5(%rip),%rax        # 15ff0 <_ITM_registerTMCloneTable>
    512b:	48 85 c0             	test   %rax,%rax
    512e:	74 08                	je     5138 <register_tm_clones+0x38>
    5130:	ff e0                	jmpq   *%rax
    5132:	66 0f 1f 44 00 00    	nopw   0x0(%rax,%rax,1)
    5138:	c3                   	retq   
    5139:	0f 1f 80 00 00 00 00 	nopl   0x0(%rax)

0000000000005140 <__do_global_dtors_aux>:
    5140:	f3 0f 1e fa          	endbr64 
    5144:	80 3d 35 52 01 00 00 	cmpb   $0x0,0x15235(%rip)        # 1a380 <completed.8061>
    514b:	75 2b                	jne    5178 <__do_global_dtors_aux+0x38>
    514d:	55                   	push   %rbp
    514e:	48 83 3d a2 0e 01 00 	cmpq   $0x0,0x10ea2(%rip)        # 15ff8 <__cxa_finalize@GLIBC_2.2.5>
    5155:	00 
    5156:	48 89 e5             	mov    %rsp,%rbp
    5159:	74 0c                	je     5167 <__do_global_dtors_aux+0x27>
    515b:	48 8b 3d a6 0e 01 00 	mov    0x10ea6(%rip),%rdi        # 16008 <__dso_handle>
    5162:	e8 f9 fe ff ff       	callq  5060 <__cxa_finalize@plt>
    5167:	e8 64 ff ff ff       	callq  50d0 <deregister_tm_clones>
    516c:	c6 05 0d 52 01 00 01 	movb   $0x1,0x1520d(%rip)        # 1a380 <completed.8061>
    5173:	5d                   	pop    %rbp
    5174:	c3                   	retq   
    5175:	0f 1f 00             	nopl   (%rax)
    5178:	c3                   	retq   
    5179:	0f 1f 80 00 00 00 00 	nopl   0x0(%rax)

0000000000005180 <frame_dummy>:
    5180:	f3 0f 1e fa          	endbr64 
    5184:	e9 77 ff ff ff       	jmpq   5100 <register_tm_clones>

0000000000005189 <platform_main_begin>:
    5189:	f3 0f 1e fa          	endbr64 
    518d:	55                   	push   %rbp
    518e:	48 89 e5             	mov    %rsp,%rbp
    5191:	90                   	nop
    5192:	5d                   	pop    %rbp
    5193:	c3                   	retq   

0000000000005194 <platform_main_end>:
    5194:	f3 0f 1e fa          	endbr64 
    5198:	55                   	push   %rbp
    5199:	48 89 e5             	mov    %rsp,%rbp
    519c:	48 83 ec 10          	sub    $0x10,%rsp
    51a0:	89 7d fc             	mov    %edi,-0x4(%rbp)
    51a3:	89 75 f8             	mov    %esi,-0x8(%rbp)
    51a6:	8b 45 fc             	mov    -0x4(%rbp),%eax
    51a9:	89 c6                	mov    %eax,%esi
    51ab:	48 8d 3d 6e ce 00 00 	lea    0xce6e(%rip),%rdi        # 12020 <_IO_stdin_used+0x20>
    51b2:	b8 00 00 00 00       	mov    $0x0,%eax
    51b7:	e8 c4 fe ff ff       	callq  5080 <printf@plt>
    51bc:	90                   	nop
    51bd:	c9                   	leaveq 
    51be:	c3                   	retq   

00000000000051bf <safe_unary_minus_func_int8_t_s>:
    51bf:	f3 0f 1e fa          	endbr64 
    51c3:	55                   	push   %rbp
    51c4:	48 89 e5             	mov    %rsp,%rbp
    51c7:	89 f8                	mov    %edi,%eax
    51c9:	88 45 fc             	mov    %al,-0x4(%rbp)
    51cc:	0f b6 45 fc          	movzbl -0x4(%rbp),%eax
    51d0:	f7 d8                	neg    %eax
    51d2:	5d                   	pop    %rbp
    51d3:	c3                   	retq   

00000000000051d4 <safe_add_func_int8_t_s_s>:
    51d4:	f3 0f 1e fa          	endbr64 
    51d8:	55                   	push   %rbp
    51d9:	48 89 e5             	mov    %rsp,%rbp
    51dc:	89 fa                	mov    %edi,%edx
    51de:	89 f0                	mov    %esi,%eax
    51e0:	88 55 fc             	mov    %dl,-0x4(%rbp)
    51e3:	88 45 f8             	mov    %al,-0x8(%rbp)
    51e6:	0f b6 55 fc          	movzbl -0x4(%rbp),%edx
    51ea:	0f b6 45 f8          	movzbl -0x8(%rbp),%eax
    51ee:	01 d0                	add    %edx,%eax
    51f0:	5d                   	pop    %rbp
    51f1:	c3                   	retq   

00000000000051f2 <safe_sub_func_int8_t_s_s>:
    51f2:	f3 0f 1e fa          	endbr64 
    51f6:	55                   	push   %rbp
    51f7:	48 89 e5             	mov    %rsp,%rbp
    51fa:	89 fa                	mov    %edi,%edx
    51fc:	89 f0                	mov    %esi,%eax
    51fe:	88 55 fc             	mov    %dl,-0x4(%rbp)
    5201:	88 45 f8             	mov    %al,-0x8(%rbp)
    5204:	0f b6 55 fc          	movzbl -0x4(%rbp),%edx
    5208:	0f b6 45 f8          	movzbl -0x8(%rbp),%eax
    520c:	29 c2                	sub    %eax,%edx
    520e:	89 d0                	mov    %edx,%eax
    5210:	5d                   	pop    %rbp
    5211:	c3                   	retq   

0000000000005212 <safe_mul_func_int8_t_s_s>:
    5212:	f3 0f 1e fa          	endbr64 
    5216:	55                   	push   %rbp
    5217:	48 89 e5             	mov    %rsp,%rbp
    521a:	89 fa                	mov    %edi,%edx
    521c:	89 f0                	mov    %esi,%eax
    521e:	88 55 fc             	mov    %dl,-0x4(%rbp)
    5221:	88 45 f8             	mov    %al,-0x8(%rbp)
    5224:	0f b6 45 fc          	movzbl -0x4(%rbp),%eax
    5228:	0f b6 55 f8          	movzbl -0x8(%rbp),%edx
    522c:	0f af c2             	imul   %edx,%eax
    522f:	5d                   	pop    %rbp
    5230:	c3                   	retq   

0000000000005231 <safe_mod_func_int8_t_s_s>:
    5231:	f3 0f 1e fa          	endbr64 
    5235:	55                   	push   %rbp
    5236:	48 89 e5             	mov    %rsp,%rbp
    5239:	89 fa                	mov    %edi,%edx
    523b:	89 f0                	mov    %esi,%eax
    523d:	88 55 fc             	mov    %dl,-0x4(%rbp)
    5240:	88 45 f8             	mov    %al,-0x8(%rbp)
    5243:	80 7d f8 00          	cmpb   $0x0,-0x8(%rbp)
    5247:	74 1b                	je     5264 <safe_mod_func_int8_t_s_s+0x33>
    5249:	80 7d fc 80          	cmpb   $0x80,-0x4(%rbp)
    524d:	75 06                	jne    5255 <safe_mod_func_int8_t_s_s+0x24>
    524f:	80 7d f8 ff          	cmpb   $0xff,-0x8(%rbp)
    5253:	74 0f                	je     5264 <safe_mod_func_int8_t_s_s+0x33>
    5255:	0f be 45 fc          	movsbl -0x4(%rbp),%eax
    5259:	0f be 4d f8          	movsbl -0x8(%rbp),%ecx
    525d:	99                   	cltd   
    525e:	f7 f9                	idiv   %ecx
    5260:	89 d0                	mov    %edx,%eax
    5262:	eb 04                	jmp    5268 <safe_mod_func_int8_t_s_s+0x37>
    5264:	0f b6 45 fc          	movzbl -0x4(%rbp),%eax
    5268:	5d                   	pop    %rbp
    5269:	c3                   	retq   

000000000000526a <safe_div_func_int8_t_s_s>:
    526a:	f3 0f 1e fa          	endbr64 
    526e:	55                   	push   %rbp
    526f:	48 89 e5             	mov    %rsp,%rbp
    5272:	89 fa                	mov    %edi,%edx
    5274:	89 f0                	mov    %esi,%eax
    5276:	88 55 fc             	mov    %dl,-0x4(%rbp)
    5279:	88 45 f8             	mov    %al,-0x8(%rbp)
    527c:	80 7d f8 00          	cmpb   $0x0,-0x8(%rbp)
    5280:	74 19                	je     529b <safe_div_func_int8_t_s_s+0x31>
    5282:	80 7d fc 80          	cmpb   $0x80,-0x4(%rbp)
    5286:	75 06                	jne    528e <safe_div_func_int8_t_s_s+0x24>
    5288:	80 7d f8 ff          	cmpb   $0xff,-0x8(%rbp)
    528c:	74 0d                	je     529b <safe_div_func_int8_t_s_s+0x31>
    528e:	0f be 45 fc          	movsbl -0x4(%rbp),%eax
    5292:	0f be 4d f8          	movsbl -0x8(%rbp),%ecx
    5296:	99                   	cltd   
    5297:	f7 f9                	idiv   %ecx
    5299:	eb 04                	jmp    529f <safe_div_func_int8_t_s_s+0x35>
    529b:	0f b6 45 fc          	movzbl -0x4(%rbp),%eax
    529f:	5d                   	pop    %rbp
    52a0:	c3                   	retq   

00000000000052a1 <safe_lshift_func_int8_t_s_s>:
    52a1:	f3 0f 1e fa          	endbr64 
    52a5:	55                   	push   %rbp
    52a6:	48 89 e5             	mov    %rsp,%rbp
    52a9:	89 f8                	mov    %edi,%eax
    52ab:	89 75 f8             	mov    %esi,-0x8(%rbp)
    52ae:	88 45 fc             	mov    %al,-0x4(%rbp)
    52b1:	80 7d fc 00          	cmpb   $0x0,-0x4(%rbp)
    52b5:	78 31                	js     52e8 <safe_lshift_func_int8_t_s_s+0x47>
    52b7:	83 7d f8 00          	cmpl   $0x0,-0x8(%rbp)
    52bb:	78 2b                	js     52e8 <safe_lshift_func_int8_t_s_s+0x47>
    52bd:	83 7d f8 1f          	cmpl   $0x1f,-0x8(%rbp)
    52c1:	7f 25                	jg     52e8 <safe_lshift_func_int8_t_s_s+0x47>
    52c3:	0f be 55 fc          	movsbl -0x4(%rbp),%edx
    52c7:	8b 45 f8             	mov    -0x8(%rbp),%eax
    52ca:	be 7f 00 00 00       	mov    $0x7f,%esi
    52cf:	89 c1                	mov    %eax,%ecx
    52d1:	d3 fe                	sar    %cl,%esi
    52d3:	89 f0                	mov    %esi,%eax
    52d5:	39 c2                	cmp    %eax,%edx
    52d7:	7f 0f                	jg     52e8 <safe_lshift_func_int8_t_s_s+0x47>
    52d9:	0f be 55 fc          	movsbl -0x4(%rbp),%edx
    52dd:	8b 45 f8             	mov    -0x8(%rbp),%eax
    52e0:	89 c1                	mov    %eax,%ecx
    52e2:	d3 e2                	shl    %cl,%edx
    52e4:	89 d0                	mov    %edx,%eax
    52e6:	eb 04                	jmp    52ec <safe_lshift_func_int8_t_s_s+0x4b>
    52e8:	0f b6 45 fc          	movzbl -0x4(%rbp),%eax
    52ec:	5d                   	pop    %rbp
    52ed:	c3                   	retq   

00000000000052ee <safe_lshift_func_int8_t_s_u>:
    52ee:	f3 0f 1e fa          	endbr64 
    52f2:	55                   	push   %rbp
    52f3:	48 89 e5             	mov    %rsp,%rbp
    52f6:	89 f8                	mov    %edi,%eax
    52f8:	89 75 f8             	mov    %esi,-0x8(%rbp)
    52fb:	88 45 fc             	mov    %al,-0x4(%rbp)
    52fe:	80 7d fc 00          	cmpb   $0x0,-0x4(%rbp)
    5302:	78 2b                	js     532f <safe_lshift_func_int8_t_s_u+0x41>
    5304:	83 7d f8 1f          	cmpl   $0x1f,-0x8(%rbp)
    5308:	77 25                	ja     532f <safe_lshift_func_int8_t_s_u+0x41>
    530a:	0f be 55 fc          	movsbl -0x4(%rbp),%edx
    530e:	8b 45 f8             	mov    -0x8(%rbp),%eax
    5311:	be 7f 00 00 00       	mov    $0x7f,%esi
    5316:	89 c1                	mov    %eax,%ecx
    5318:	d3 fe                	sar    %cl,%esi
    531a:	89 f0                	mov    %esi,%eax
    531c:	39 c2                	cmp    %eax,%edx
    531e:	7f 0f                	jg     532f <safe_lshift_func_int8_t_s_u+0x41>
    5320:	0f be 55 fc          	movsbl -0x4(%rbp),%edx
    5324:	8b 45 f8             	mov    -0x8(%rbp),%eax
    5327:	89 c1                	mov    %eax,%ecx
    5329:	d3 e2                	shl    %cl,%edx
    532b:	89 d0                	mov    %edx,%eax
    532d:	eb 04                	jmp    5333 <safe_lshift_func_int8_t_s_u+0x45>
    532f:	0f b6 45 fc          	movzbl -0x4(%rbp),%eax
    5333:	5d                   	pop    %rbp
    5334:	c3                   	retq   

0000000000005335 <safe_rshift_func_int8_t_s_s>:
    5335:	f3 0f 1e fa          	endbr64 
    5339:	55                   	push   %rbp
    533a:	48 89 e5             	mov    %rsp,%rbp
    533d:	89 f8                	mov    %edi,%eax
    533f:	89 75 f8             	mov    %esi,-0x8(%rbp)
    5342:	88 45 fc             	mov    %al,-0x4(%rbp)
    5345:	80 7d fc 00          	cmpb   $0x0,-0x4(%rbp)
    5349:	78 1b                	js     5366 <safe_rshift_func_int8_t_s_s+0x31>
    534b:	83 7d f8 00          	cmpl   $0x0,-0x8(%rbp)
    534f:	78 15                	js     5366 <safe_rshift_func_int8_t_s_s+0x31>
    5351:	83 7d f8 1f          	cmpl   $0x1f,-0x8(%rbp)
    5355:	7f 0f                	jg     5366 <safe_rshift_func_int8_t_s_s+0x31>
    5357:	0f be 55 fc          	movsbl -0x4(%rbp),%edx
    535b:	8b 45 f8             	mov    -0x8(%rbp),%eax
    535e:	89 c1                	mov    %eax,%ecx
    5360:	d3 fa                	sar    %cl,%edx
    5362:	89 d0                	mov    %edx,%eax
    5364:	eb 04                	jmp    536a <safe_rshift_func_int8_t_s_s+0x35>
    5366:	0f b6 45 fc          	movzbl -0x4(%rbp),%eax
    536a:	5d                   	pop    %rbp
    536b:	c3                   	retq   

000000000000536c <safe_rshift_func_int8_t_s_u>:
    536c:	f3 0f 1e fa          	endbr64 
    5370:	55                   	push   %rbp
    5371:	48 89 e5             	mov    %rsp,%rbp
    5374:	89 f8                	mov    %edi,%eax
    5376:	89 75 f8             	mov    %esi,-0x8(%rbp)
    5379:	88 45 fc             	mov    %al,-0x4(%rbp)
    537c:	80 7d fc 00          	cmpb   $0x0,-0x4(%rbp)
    5380:	78 15                	js     5397 <safe_rshift_func_int8_t_s_u+0x2b>
    5382:	83 7d f8 1f          	cmpl   $0x1f,-0x8(%rbp)
    5386:	77 0f                	ja     5397 <safe_rshift_func_int8_t_s_u+0x2b>
    5388:	0f be 55 fc          	movsbl -0x4(%rbp),%edx
    538c:	8b 45 f8             	mov    -0x8(%rbp),%eax
    538f:	89 c1                	mov    %eax,%ecx
    5391:	d3 fa                	sar    %cl,%edx
    5393:	89 d0                	mov    %edx,%eax
    5395:	eb 04                	jmp    539b <safe_rshift_func_int8_t_s_u+0x2f>
    5397:	0f b6 45 fc          	movzbl -0x4(%rbp),%eax
    539b:	5d                   	pop    %rbp
    539c:	c3                   	retq   

000000000000539d <safe_unary_minus_func_int16_t_s>:
    539d:	f3 0f 1e fa          	endbr64 
    53a1:	55                   	push   %rbp
    53a2:	48 89 e5             	mov    %rsp,%rbp
    53a5:	89 f8                	mov    %edi,%eax
    53a7:	66 89 45 fc          	mov    %ax,-0x4(%rbp)
    53ab:	0f b7 45 fc          	movzwl -0x4(%rbp),%eax
    53af:	f7 d8                	neg    %eax
    53b1:	5d                   	pop    %rbp
    53b2:	c3                   	retq   

00000000000053b3 <safe_add_func_int16_t_s_s>:
    53b3:	f3 0f 1e fa          	endbr64 
    53b7:	55                   	push   %rbp
    53b8:	48 89 e5             	mov    %rsp,%rbp
    53bb:	89 fa                	mov    %edi,%edx
    53bd:	89 f0                	mov    %esi,%eax
    53bf:	66 89 55 fc          	mov    %dx,-0x4(%rbp)
    53c3:	66 89 45 f8          	mov    %ax,-0x8(%rbp)
    53c7:	0f b7 55 fc          	movzwl -0x4(%rbp),%edx
    53cb:	0f b7 45 f8          	movzwl -0x8(%rbp),%eax
    53cf:	01 d0                	add    %edx,%eax
    53d1:	5d                   	pop    %rbp
    53d2:	c3                   	retq   

00000000000053d3 <safe_sub_func_int16_t_s_s>:
    53d3:	f3 0f 1e fa          	endbr64 
    53d7:	55                   	push   %rbp
    53d8:	48 89 e5             	mov    %rsp,%rbp
    53db:	89 fa                	mov    %edi,%edx
    53dd:	89 f0                	mov    %esi,%eax
    53df:	66 89 55 fc          	mov    %dx,-0x4(%rbp)
    53e3:	66 89 45 f8          	mov    %ax,-0x8(%rbp)
    53e7:	0f b7 55 fc          	movzwl -0x4(%rbp),%edx
    53eb:	0f b7 45 f8          	movzwl -0x8(%rbp),%eax
    53ef:	29 c2                	sub    %eax,%edx
    53f1:	89 d0                	mov    %edx,%eax
    53f3:	5d                   	pop    %rbp
    53f4:	c3                   	retq   

00000000000053f5 <safe_mul_func_int16_t_s_s>:
    53f5:	f3 0f 1e fa          	endbr64 
    53f9:	55                   	push   %rbp
    53fa:	48 89 e5             	mov    %rsp,%rbp
    53fd:	89 fa                	mov    %edi,%edx
    53ff:	89 f0                	mov    %esi,%eax
    5401:	66 89 55 fc          	mov    %dx,-0x4(%rbp)
    5405:	66 89 45 f8          	mov    %ax,-0x8(%rbp)
    5409:	0f b7 55 fc          	movzwl -0x4(%rbp),%edx
    540d:	0f b7 45 f8          	movzwl -0x8(%rbp),%eax
    5411:	0f af c2             	imul   %edx,%eax
    5414:	5d                   	pop    %rbp
    5415:	c3                   	retq   

0000000000005416 <safe_mod_func_int16_t_s_s>:
    5416:	f3 0f 1e fa          	endbr64 
    541a:	55                   	push   %rbp
    541b:	48 89 e5             	mov    %rsp,%rbp
    541e:	89 fa                	mov    %edi,%edx
    5420:	89 f0                	mov    %esi,%eax
    5422:	66 89 55 fc          	mov    %dx,-0x4(%rbp)
    5426:	66 89 45 f8          	mov    %ax,-0x8(%rbp)
    542a:	66 83 7d f8 00       	cmpw   $0x0,-0x8(%rbp)
    542f:	74 1e                	je     544f <safe_mod_func_int16_t_s_s+0x39>
    5431:	66 81 7d fc 00 80    	cmpw   $0x8000,-0x4(%rbp)
    5437:	75 07                	jne    5440 <safe_mod_func_int16_t_s_s+0x2a>
    5439:	66 83 7d f8 ff       	cmpw   $0xffff,-0x8(%rbp)
    543e:	74 0f                	je     544f <safe_mod_func_int16_t_s_s+0x39>
    5440:	0f bf 45 fc          	movswl -0x4(%rbp),%eax
    5444:	0f bf 4d f8          	movswl -0x8(%rbp),%ecx
    5448:	99                   	cltd   
    5449:	f7 f9                	idiv   %ecx
    544b:	89 d0                	mov    %edx,%eax
    544d:	eb 04                	jmp    5453 <safe_mod_func_int16_t_s_s+0x3d>
    544f:	0f b7 45 fc          	movzwl -0x4(%rbp),%eax
    5453:	5d                   	pop    %rbp
    5454:	c3                   	retq   

0000000000005455 <safe_div_func_int16_t_s_s>:
    5455:	f3 0f 1e fa          	endbr64 
    5459:	55                   	push   %rbp
    545a:	48 89 e5             	mov    %rsp,%rbp
    545d:	89 fa                	mov    %edi,%edx
    545f:	89 f0                	mov    %esi,%eax
    5461:	66 89 55 fc          	mov    %dx,-0x4(%rbp)
    5465:	66 89 45 f8          	mov    %ax,-0x8(%rbp)
    5469:	66 83 7d f8 00       	cmpw   $0x0,-0x8(%rbp)
    546e:	74 1c                	je     548c <safe_div_func_int16_t_s_s+0x37>
    5470:	66 81 7d fc 00 80    	cmpw   $0x8000,-0x4(%rbp)
    5476:	75 07                	jne    547f <safe_div_func_int16_t_s_s+0x2a>
    5478:	66 83 7d f8 ff       	cmpw   $0xffff,-0x8(%rbp)
    547d:	74 0d                	je     548c <safe_div_func_int16_t_s_s+0x37>
    547f:	0f bf 45 fc          	movswl -0x4(%rbp),%eax
    5483:	0f bf 4d f8          	movswl -0x8(%rbp),%ecx
    5487:	99                   	cltd   
    5488:	f7 f9                	idiv   %ecx
    548a:	eb 04                	jmp    5490 <safe_div_func_int16_t_s_s+0x3b>
    548c:	0f b7 45 fc          	movzwl -0x4(%rbp),%eax
    5490:	5d                   	pop    %rbp
    5491:	c3                   	retq   

0000000000005492 <safe_lshift_func_int16_t_s_s>:
    5492:	f3 0f 1e fa          	endbr64 
    5496:	55                   	push   %rbp
    5497:	48 89 e5             	mov    %rsp,%rbp
    549a:	89 f8                	mov    %edi,%eax
    549c:	89 75 f8             	mov    %esi,-0x8(%rbp)
    549f:	66 89 45 fc          	mov    %ax,-0x4(%rbp)
    54a3:	66 83 7d fc 00       	cmpw   $0x0,-0x4(%rbp)
    54a8:	78 31                	js     54db <safe_lshift_func_int16_t_s_s+0x49>
    54aa:	83 7d f8 00          	cmpl   $0x0,-0x8(%rbp)
    54ae:	78 2b                	js     54db <safe_lshift_func_int16_t_s_s+0x49>
    54b0:	83 7d f8 1f          	cmpl   $0x1f,-0x8(%rbp)
    54b4:	7f 25                	jg     54db <safe_lshift_func_int16_t_s_s+0x49>
    54b6:	0f bf 55 fc          	movswl -0x4(%rbp),%edx
    54ba:	8b 45 f8             	mov    -0x8(%rbp),%eax
    54bd:	be ff 7f 00 00       	mov    $0x7fff,%esi
    54c2:	89 c1                	mov    %eax,%ecx
    54c4:	d3 fe                	sar    %cl,%esi
    54c6:	89 f0                	mov    %esi,%eax
    54c8:	39 c2                	cmp    %eax,%edx
    54ca:	7f 0f                	jg     54db <safe_lshift_func_int16_t_s_s+0x49>
    54cc:	0f bf 55 fc          	movswl -0x4(%rbp),%edx
    54d0:	8b 45 f8             	mov    -0x8(%rbp),%eax
    54d3:	89 c1                	mov    %eax,%ecx
    54d5:	d3 e2                	shl    %cl,%edx
    54d7:	89 d0                	mov    %edx,%eax
    54d9:	eb 04                	jmp    54df <safe_lshift_func_int16_t_s_s+0x4d>
    54db:	0f b7 45 fc          	movzwl -0x4(%rbp),%eax
    54df:	5d                   	pop    %rbp
    54e0:	c3                   	retq   

00000000000054e1 <safe_lshift_func_int16_t_s_u>:
    54e1:	f3 0f 1e fa          	endbr64 
    54e5:	55                   	push   %rbp
    54e6:	48 89 e5             	mov    %rsp,%rbp
    54e9:	89 f8                	mov    %edi,%eax
    54eb:	89 75 f8             	mov    %esi,-0x8(%rbp)
    54ee:	66 89 45 fc          	mov    %ax,-0x4(%rbp)
    54f2:	66 83 7d fc 00       	cmpw   $0x0,-0x4(%rbp)
    54f7:	78 2b                	js     5524 <safe_lshift_func_int16_t_s_u+0x43>
    54f9:	83 7d f8 1f          	cmpl   $0x1f,-0x8(%rbp)
    54fd:	77 25                	ja     5524 <safe_lshift_func_int16_t_s_u+0x43>
    54ff:	0f bf 55 fc          	movswl -0x4(%rbp),%edx
    5503:	8b 45 f8             	mov    -0x8(%rbp),%eax
    5506:	be ff 7f 00 00       	mov    $0x7fff,%esi
    550b:	89 c1                	mov    %eax,%ecx
    550d:	d3 fe                	sar    %cl,%esi
    550f:	89 f0                	mov    %esi,%eax
    5511:	39 c2                	cmp    %eax,%edx
    5513:	7f 0f                	jg     5524 <safe_lshift_func_int16_t_s_u+0x43>
    5515:	0f bf 55 fc          	movswl -0x4(%rbp),%edx
    5519:	8b 45 f8             	mov    -0x8(%rbp),%eax
    551c:	89 c1                	mov    %eax,%ecx
    551e:	d3 e2                	shl    %cl,%edx
    5520:	89 d0                	mov    %edx,%eax
    5522:	eb 04                	jmp    5528 <safe_lshift_func_int16_t_s_u+0x47>
    5524:	0f b7 45 fc          	movzwl -0x4(%rbp),%eax
    5528:	5d                   	pop    %rbp
    5529:	c3                   	retq   

000000000000552a <safe_rshift_func_int16_t_s_s>:
    552a:	f3 0f 1e fa          	endbr64 
    552e:	55                   	push   %rbp
    552f:	48 89 e5             	mov    %rsp,%rbp
    5532:	89 f8                	mov    %edi,%eax
    5534:	89 75 f8             	mov    %esi,-0x8(%rbp)
    5537:	66 89 45 fc          	mov    %ax,-0x4(%rbp)
    553b:	66 83 7d fc 00       	cmpw   $0x0,-0x4(%rbp)
    5540:	78 1b                	js     555d <safe_rshift_func_int16_t_s_s+0x33>
    5542:	83 7d f8 00          	cmpl   $0x0,-0x8(%rbp)
    5546:	78 15                	js     555d <safe_rshift_func_int16_t_s_s+0x33>
    5548:	83 7d f8 1f          	cmpl   $0x1f,-0x8(%rbp)
    554c:	7f 0f                	jg     555d <safe_rshift_func_int16_t_s_s+0x33>
    554e:	0f bf 55 fc          	movswl -0x4(%rbp),%edx
    5552:	8b 45 f8             	mov    -0x8(%rbp),%eax
    5555:	89 c1                	mov    %eax,%ecx
    5557:	d3 fa                	sar    %cl,%edx
    5559:	89 d0                	mov    %edx,%eax
    555b:	eb 04                	jmp    5561 <safe_rshift_func_int16_t_s_s+0x37>
    555d:	0f b7 45 fc          	movzwl -0x4(%rbp),%eax
    5561:	5d                   	pop    %rbp
    5562:	c3                   	retq   

0000000000005563 <safe_rshift_func_int16_t_s_u>:
    5563:	f3 0f 1e fa          	endbr64 
    5567:	55                   	push   %rbp
    5568:	48 89 e5             	mov    %rsp,%rbp
    556b:	89 f8                	mov    %edi,%eax
    556d:	89 75 f8             	mov    %esi,-0x8(%rbp)
    5570:	66 89 45 fc          	mov    %ax,-0x4(%rbp)
    5574:	66 83 7d fc 00       	cmpw   $0x0,-0x4(%rbp)
    5579:	78 15                	js     5590 <safe_rshift_func_int16_t_s_u+0x2d>
    557b:	83 7d f8 1f          	cmpl   $0x1f,-0x8(%rbp)
    557f:	77 0f                	ja     5590 <safe_rshift_func_int16_t_s_u+0x2d>
    5581:	0f bf 55 fc          	movswl -0x4(%rbp),%edx
    5585:	8b 45 f8             	mov    -0x8(%rbp),%eax
    5588:	89 c1                	mov    %eax,%ecx
    558a:	d3 fa                	sar    %cl,%edx
    558c:	89 d0                	mov    %edx,%eax
    558e:	eb 04                	jmp    5594 <safe_rshift_func_int16_t_s_u+0x31>
    5590:	0f b7 45 fc          	movzwl -0x4(%rbp),%eax
    5594:	5d                   	pop    %rbp
    5595:	c3                   	retq   

0000000000005596 <safe_unary_minus_func_int32_t_s>:
    5596:	f3 0f 1e fa          	endbr64 
    559a:	55                   	push   %rbp
    559b:	48 89 e5             	mov    %rsp,%rbp
    559e:	89 7d fc             	mov    %edi,-0x4(%rbp)
    55a1:	81 7d fc 00 00 00 80 	cmpl   $0x80000000,-0x4(%rbp)
    55a8:	74 07                	je     55b1 <safe_unary_minus_func_int32_t_s+0x1b>
    55aa:	8b 45 fc             	mov    -0x4(%rbp),%eax
    55ad:	f7 d8                	neg    %eax
    55af:	eb 03                	jmp    55b4 <safe_unary_minus_func_int32_t_s+0x1e>
    55b1:	8b 45 fc             	mov    -0x4(%rbp),%eax
    55b4:	5d                   	pop    %rbp
    55b5:	c3                   	retq   

00000000000055b6 <safe_add_func_int32_t_s_s>:
    55b6:	f3 0f 1e fa          	endbr64 
    55ba:	55                   	push   %rbp
    55bb:	48 89 e5             	mov    %rsp,%rbp
    55be:	89 7d fc             	mov    %edi,-0x4(%rbp)
    55c1:	89 75 f8             	mov    %esi,-0x8(%rbp)
    55c4:	83 7d fc 00          	cmpl   $0x0,-0x4(%rbp)
    55c8:	7e 13                	jle    55dd <safe_add_func_int32_t_s_s+0x27>
    55ca:	83 7d f8 00          	cmpl   $0x0,-0x8(%rbp)
    55ce:	7e 0d                	jle    55dd <safe_add_func_int32_t_s_s+0x27>
    55d0:	b8 ff ff ff 7f       	mov    $0x7fffffff,%eax
    55d5:	2b 45 f8             	sub    -0x8(%rbp),%eax
    55d8:	39 45 fc             	cmp    %eax,-0x4(%rbp)
    55db:	7f 23                	jg     5600 <safe_add_func_int32_t_s_s+0x4a>
    55dd:	83 7d fc 00          	cmpl   $0x0,-0x4(%rbp)
    55e1:	79 13                	jns    55f6 <safe_add_func_int32_t_s_s+0x40>
    55e3:	83 7d f8 00          	cmpl   $0x0,-0x8(%rbp)
    55e7:	79 0d                	jns    55f6 <safe_add_func_int32_t_s_s+0x40>
    55e9:	b8 00 00 00 80       	mov    $0x80000000,%eax
    55ee:	2b 45 f8             	sub    -0x8(%rbp),%eax
    55f1:	39 45 fc             	cmp    %eax,-0x4(%rbp)
    55f4:	7c 0a                	jl     5600 <safe_add_func_int32_t_s_s+0x4a>
    55f6:	8b 55 fc             	mov    -0x4(%rbp),%edx
    55f9:	8b 45 f8             	mov    -0x8(%rbp),%eax
    55fc:	01 d0                	add    %edx,%eax
    55fe:	eb 03                	jmp    5603 <safe_add_func_int32_t_s_s+0x4d>
    5600:	8b 45 fc             	mov    -0x4(%rbp),%eax
    5603:	5d                   	pop    %rbp
    5604:	c3                   	retq   

0000000000005605 <safe_sub_func_int32_t_s_s>:
    5605:	f3 0f 1e fa          	endbr64 
    5609:	55                   	push   %rbp
    560a:	48 89 e5             	mov    %rsp,%rbp
    560d:	89 7d fc             	mov    %edi,-0x4(%rbp)
    5610:	89 75 f8             	mov    %esi,-0x8(%rbp)
    5613:	8b 45 fc             	mov    -0x4(%rbp),%eax
    5616:	33 45 f8             	xor    -0x8(%rbp),%eax
    5619:	89 c2                	mov    %eax,%edx
    561b:	8b 45 fc             	mov    -0x4(%rbp),%eax
    561e:	33 45 f8             	xor    -0x8(%rbp),%eax
    5621:	25 00 00 00 80       	and    $0x80000000,%eax
    5626:	33 45 fc             	xor    -0x4(%rbp),%eax
    5629:	2b 45 f8             	sub    -0x8(%rbp),%eax
    562c:	33 45 f8             	xor    -0x8(%rbp),%eax
    562f:	21 d0                	and    %edx,%eax
    5631:	85 c0                	test   %eax,%eax
    5633:	78 08                	js     563d <safe_sub_func_int32_t_s_s+0x38>
    5635:	8b 45 fc             	mov    -0x4(%rbp),%eax
    5638:	2b 45 f8             	sub    -0x8(%rbp),%eax
    563b:	eb 03                	jmp    5640 <safe_sub_func_int32_t_s_s+0x3b>
    563d:	8b 45 fc             	mov    -0x4(%rbp),%eax
    5640:	5d                   	pop    %rbp
    5641:	c3                   	retq   

0000000000005642 <safe_mul_func_int32_t_s_s>:
    5642:	f3 0f 1e fa          	endbr64 
    5646:	55                   	push   %rbp
    5647:	48 89 e5             	mov    %rsp,%rbp
    564a:	89 7d fc             	mov    %edi,-0x4(%rbp)
    564d:	89 75 f8             	mov    %esi,-0x8(%rbp)
    5650:	83 7d fc 00          	cmpl   $0x0,-0x4(%rbp)
    5654:	7e 14                	jle    566a <safe_mul_func_int32_t_s_s+0x28>
    5656:	83 7d f8 00          	cmpl   $0x0,-0x8(%rbp)
    565a:	7e 0e                	jle    566a <safe_mul_func_int32_t_s_s+0x28>
    565c:	b8 ff ff ff 7f       	mov    $0x7fffffff,%eax
    5661:	99                   	cltd   
    5662:	f7 7d f8             	idivl  -0x8(%rbp)
    5665:	39 45 fc             	cmp    %eax,-0x4(%rbp)
    5668:	7f 5d                	jg     56c7 <safe_mul_func_int32_t_s_s+0x85>
    566a:	83 7d fc 00          	cmpl   $0x0,-0x4(%rbp)
    566e:	7e 14                	jle    5684 <safe_mul_func_int32_t_s_s+0x42>
    5670:	83 7d f8 00          	cmpl   $0x0,-0x8(%rbp)
    5674:	7f 0e                	jg     5684 <safe_mul_func_int32_t_s_s+0x42>
    5676:	b8 00 00 00 80       	mov    $0x80000000,%eax
    567b:	99                   	cltd   
    567c:	f7 7d fc             	idivl  -0x4(%rbp)
    567f:	39 45 f8             	cmp    %eax,-0x8(%rbp)
    5682:	7c 43                	jl     56c7 <safe_mul_func_int32_t_s_s+0x85>
    5684:	83 7d fc 00          	cmpl   $0x0,-0x4(%rbp)
    5688:	7f 14                	jg     569e <safe_mul_func_int32_t_s_s+0x5c>
    568a:	83 7d f8 00          	cmpl   $0x0,-0x8(%rbp)
    568e:	7e 0e                	jle    569e <safe_mul_func_int32_t_s_s+0x5c>
    5690:	b8 00 00 00 80       	mov    $0x80000000,%eax
    5695:	99                   	cltd   
    5696:	f7 7d f8             	idivl  -0x8(%rbp)
    5699:	39 45 fc             	cmp    %eax,-0x4(%rbp)
    569c:	7c 29                	jl     56c7 <safe_mul_func_int32_t_s_s+0x85>
    569e:	83 7d fc 00          	cmpl   $0x0,-0x4(%rbp)
    56a2:	7f 1a                	jg     56be <safe_mul_func_int32_t_s_s+0x7c>
    56a4:	83 7d f8 00          	cmpl   $0x0,-0x8(%rbp)
    56a8:	7f 14                	jg     56be <safe_mul_func_int32_t_s_s+0x7c>
    56aa:	83 7d fc 00          	cmpl   $0x0,-0x4(%rbp)
    56ae:	74 0e                	je     56be <safe_mul_func_int32_t_s_s+0x7c>
    56b0:	b8 ff ff ff 7f       	mov    $0x7fffffff,%eax
    56b5:	99                   	cltd   
    56b6:	f7 7d fc             	idivl  -0x4(%rbp)
    56b9:	39 45 f8             	cmp    %eax,-0x8(%rbp)
    56bc:	7c 09                	jl     56c7 <safe_mul_func_int32_t_s_s+0x85>
    56be:	8b 45 fc             	mov    -0x4(%rbp),%eax
    56c1:	0f af 45 f8          	imul   -0x8(%rbp),%eax
    56c5:	eb 03                	jmp    56ca <safe_mul_func_int32_t_s_s+0x88>
    56c7:	8b 45 fc             	mov    -0x4(%rbp),%eax
    56ca:	5d                   	pop    %rbp
    56cb:	c3                   	retq   

00000000000056cc <safe_mod_func_int32_t_s_s>:
    56cc:	f3 0f 1e fa          	endbr64 
    56d0:	55                   	push   %rbp
    56d1:	48 89 e5             	mov    %rsp,%rbp
    56d4:	89 7d fc             	mov    %edi,-0x4(%rbp)
    56d7:	89 75 f8             	mov    %esi,-0x8(%rbp)
    56da:	83 7d f8 00          	cmpl   $0x0,-0x8(%rbp)
    56de:	74 1a                	je     56fa <safe_mod_func_int32_t_s_s+0x2e>
    56e0:	81 7d fc 00 00 00 80 	cmpl   $0x80000000,-0x4(%rbp)
    56e7:	75 06                	jne    56ef <safe_mod_func_int32_t_s_s+0x23>
    56e9:	83 7d f8 ff          	cmpl   $0xffffffff,-0x8(%rbp)
    56ed:	74 0b                	je     56fa <safe_mod_func_int32_t_s_s+0x2e>
    56ef:	8b 45 fc             	mov    -0x4(%rbp),%eax
    56f2:	99                   	cltd   
    56f3:	f7 7d f8             	idivl  -0x8(%rbp)
    56f6:	89 d0                	mov    %edx,%eax
    56f8:	eb 03                	jmp    56fd <safe_mod_func_int32_t_s_s+0x31>
    56fa:	8b 45 fc             	mov    -0x4(%rbp),%eax
    56fd:	5d                   	pop    %rbp
    56fe:	c3                   	retq   

00000000000056ff <safe_div_func_int32_t_s_s>:
    56ff:	f3 0f 1e fa          	endbr64 
    5703:	55                   	push   %rbp
    5704:	48 89 e5             	mov    %rsp,%rbp
    5707:	89 7d fc             	mov    %edi,-0x4(%rbp)
    570a:	89 75 f8             	mov    %esi,-0x8(%rbp)
    570d:	83 7d f8 00          	cmpl   $0x0,-0x8(%rbp)
    5711:	74 18                	je     572b <safe_div_func_int32_t_s_s+0x2c>
    5713:	81 7d fc 00 00 00 80 	cmpl   $0x80000000,-0x4(%rbp)
    571a:	75 06                	jne    5722 <safe_div_func_int32_t_s_s+0x23>
    571c:	83 7d f8 ff          	cmpl   $0xffffffff,-0x8(%rbp)
    5720:	74 09                	je     572b <safe_div_func_int32_t_s_s+0x2c>
    5722:	8b 45 fc             	mov    -0x4(%rbp),%eax
    5725:	99                   	cltd   
    5726:	f7 7d f8             	idivl  -0x8(%rbp)
    5729:	eb 03                	jmp    572e <safe_div_func_int32_t_s_s+0x2f>
    572b:	8b 45 fc             	mov    -0x4(%rbp),%eax
    572e:	5d                   	pop    %rbp
    572f:	c3                   	retq   

0000000000005730 <safe_lshift_func_int32_t_s_s>:
    5730:	f3 0f 1e fa          	endbr64 
    5734:	55                   	push   %rbp
    5735:	48 89 e5             	mov    %rsp,%rbp
    5738:	89 7d fc             	mov    %edi,-0x4(%rbp)
    573b:	89 75 f8             	mov    %esi,-0x8(%rbp)
    573e:	83 7d fc 00          	cmpl   $0x0,-0x4(%rbp)
    5742:	78 2d                	js     5771 <safe_lshift_func_int32_t_s_s+0x41>
    5744:	83 7d f8 00          	cmpl   $0x0,-0x8(%rbp)
    5748:	78 27                	js     5771 <safe_lshift_func_int32_t_s_s+0x41>
    574a:	83 7d f8 1f          	cmpl   $0x1f,-0x8(%rbp)
    574e:	7f 21                	jg     5771 <safe_lshift_func_int32_t_s_s+0x41>
    5750:	8b 45 f8             	mov    -0x8(%rbp),%eax
    5753:	ba ff ff ff 7f       	mov    $0x7fffffff,%edx
    5758:	89 c1                	mov    %eax,%ecx
    575a:	d3 fa                	sar    %cl,%edx
    575c:	89 d0                	mov    %edx,%eax
    575e:	39 45 fc             	cmp    %eax,-0x4(%rbp)
    5761:	7f 0e                	jg     5771 <safe_lshift_func_int32_t_s_s+0x41>
    5763:	8b 45 f8             	mov    -0x8(%rbp),%eax
    5766:	8b 55 fc             	mov    -0x4(%rbp),%edx
    5769:	89 c1                	mov    %eax,%ecx
    576b:	d3 e2                	shl    %cl,%edx
    576d:	89 d0                	mov    %edx,%eax
    576f:	eb 03                	jmp    5774 <safe_lshift_func_int32_t_s_s+0x44>
    5771:	8b 45 fc             	mov    -0x4(%rbp),%eax
    5774:	5d                   	pop    %rbp
    5775:	c3                   	retq   

0000000000005776 <safe_lshift_func_int32_t_s_u>:
    5776:	f3 0f 1e fa          	endbr64 
    577a:	55                   	push   %rbp
    577b:	48 89 e5             	mov    %rsp,%rbp
    577e:	89 7d fc             	mov    %edi,-0x4(%rbp)
    5781:	89 75 f8             	mov    %esi,-0x8(%rbp)
    5784:	83 7d fc 00          	cmpl   $0x0,-0x4(%rbp)
    5788:	78 27                	js     57b1 <safe_lshift_func_int32_t_s_u+0x3b>
    578a:	83 7d f8 1f          	cmpl   $0x1f,-0x8(%rbp)
    578e:	77 21                	ja     57b1 <safe_lshift_func_int32_t_s_u+0x3b>
    5790:	8b 45 f8             	mov    -0x8(%rbp),%eax
    5793:	ba ff ff ff 7f       	mov    $0x7fffffff,%edx
    5798:	89 c1                	mov    %eax,%ecx
    579a:	d3 fa                	sar    %cl,%edx
    579c:	89 d0                	mov    %edx,%eax
    579e:	39 45 fc             	cmp    %eax,-0x4(%rbp)
    57a1:	7f 0e                	jg     57b1 <safe_lshift_func_int32_t_s_u+0x3b>
    57a3:	8b 45 f8             	mov    -0x8(%rbp),%eax
    57a6:	8b 55 fc             	mov    -0x4(%rbp),%edx
    57a9:	89 c1                	mov    %eax,%ecx
    57ab:	d3 e2                	shl    %cl,%edx
    57ad:	89 d0                	mov    %edx,%eax
    57af:	eb 03                	jmp    57b4 <safe_lshift_func_int32_t_s_u+0x3e>
    57b1:	8b 45 fc             	mov    -0x4(%rbp),%eax
    57b4:	5d                   	pop    %rbp
    57b5:	c3                   	retq   

00000000000057b6 <safe_rshift_func_int32_t_s_s>:
    57b6:	f3 0f 1e fa          	endbr64 
    57ba:	55                   	push   %rbp
    57bb:	48 89 e5             	mov    %rsp,%rbp
    57be:	89 7d fc             	mov    %edi,-0x4(%rbp)
    57c1:	89 75 f8             	mov    %esi,-0x8(%rbp)
    57c4:	83 7d fc 00          	cmpl   $0x0,-0x4(%rbp)
    57c8:	78 1a                	js     57e4 <safe_rshift_func_int32_t_s_s+0x2e>
    57ca:	83 7d f8 00          	cmpl   $0x0,-0x8(%rbp)
    57ce:	78 14                	js     57e4 <safe_rshift_func_int32_t_s_s+0x2e>
    57d0:	83 7d f8 1f          	cmpl   $0x1f,-0x8(%rbp)
    57d4:	7f 0e                	jg     57e4 <safe_rshift_func_int32_t_s_s+0x2e>
    57d6:	8b 45 f8             	mov    -0x8(%rbp),%eax
    57d9:	8b 55 fc             	mov    -0x4(%rbp),%edx
    57dc:	89 c1                	mov    %eax,%ecx
    57de:	d3 fa                	sar    %cl,%edx
    57e0:	89 d0                	mov    %edx,%eax
    57e2:	eb 03                	jmp    57e7 <safe_rshift_func_int32_t_s_s+0x31>
    57e4:	8b 45 fc             	mov    -0x4(%rbp),%eax
    57e7:	5d                   	pop    %rbp
    57e8:	c3                   	retq   

00000000000057e9 <safe_rshift_func_int32_t_s_u>:
    57e9:	f3 0f 1e fa          	endbr64 
    57ed:	55                   	push   %rbp
    57ee:	48 89 e5             	mov    %rsp,%rbp
    57f1:	89 7d fc             	mov    %edi,-0x4(%rbp)
    57f4:	89 75 f8             	mov    %esi,-0x8(%rbp)
    57f7:	83 7d fc 00          	cmpl   $0x0,-0x4(%rbp)
    57fb:	78 14                	js     5811 <safe_rshift_func_int32_t_s_u+0x28>
    57fd:	83 7d f8 1f          	cmpl   $0x1f,-0x8(%rbp)
    5801:	77 0e                	ja     5811 <safe_rshift_func_int32_t_s_u+0x28>
    5803:	8b 45 f8             	mov    -0x8(%rbp),%eax
    5806:	8b 55 fc             	mov    -0x4(%rbp),%edx
    5809:	89 c1                	mov    %eax,%ecx
    580b:	d3 fa                	sar    %cl,%edx
    580d:	89 d0                	mov    %edx,%eax
    580f:	eb 03                	jmp    5814 <safe_rshift_func_int32_t_s_u+0x2b>
    5811:	8b 45 fc             	mov    -0x4(%rbp),%eax
    5814:	5d                   	pop    %rbp
    5815:	c3                   	retq   

0000000000005816 <safe_unary_minus_func_int64_t_s>:
    5816:	f3 0f 1e fa          	endbr64 
    581a:	55                   	push   %rbp
    581b:	48 89 e5             	mov    %rsp,%rbp
    581e:	48 89 7d f8          	mov    %rdi,-0x8(%rbp)
    5822:	48 b8 00 00 00 00 00 	movabs $0x8000000000000000,%rax
    5829:	00 00 80 
    582c:	48 39 45 f8          	cmp    %rax,-0x8(%rbp)
    5830:	74 09                	je     583b <safe_unary_minus_func_int64_t_s+0x25>
    5832:	48 8b 45 f8          	mov    -0x8(%rbp),%rax
    5836:	48 f7 d8             	neg    %rax
    5839:	eb 04                	jmp    583f <safe_unary_minus_func_int64_t_s+0x29>
    583b:	48 8b 45 f8          	mov    -0x8(%rbp),%rax
    583f:	5d                   	pop    %rbp
    5840:	c3                   	retq   

0000000000005841 <safe_add_func_int64_t_s_s>:
    5841:	f3 0f 1e fa          	endbr64 
    5845:	55                   	push   %rbp
    5846:	48 89 e5             	mov    %rsp,%rbp
    5849:	48 89 7d f8          	mov    %rdi,-0x8(%rbp)
    584d:	48 89 75 f0          	mov    %rsi,-0x10(%rbp)
    5851:	48 83 7d f8 00       	cmpq   $0x0,-0x8(%rbp)
    5856:	7e 1b                	jle    5873 <safe_add_func_int64_t_s_s+0x32>
    5858:	48 83 7d f0 00       	cmpq   $0x0,-0x10(%rbp)
    585d:	7e 14                	jle    5873 <safe_add_func_int64_t_s_s+0x32>
    585f:	48 b8 ff ff ff ff ff 	movabs $0x7fffffffffffffff,%rax
    5866:	ff ff 7f 
    5869:	48 2b 45 f0          	sub    -0x10(%rbp),%rax
    586d:	48 39 45 f8          	cmp    %rax,-0x8(%rbp)
    5871:	7f 2f                	jg     58a2 <safe_add_func_int64_t_s_s+0x61>
    5873:	48 83 7d f8 00       	cmpq   $0x0,-0x8(%rbp)
    5878:	79 1b                	jns    5895 <safe_add_func_int64_t_s_s+0x54>
    587a:	48 83 7d f0 00       	cmpq   $0x0,-0x10(%rbp)
    587f:	79 14                	jns    5895 <safe_add_func_int64_t_s_s+0x54>
    5881:	48 b8 00 00 00 00 00 	movabs $0x8000000000000000,%rax
    5888:	00 00 80 
    588b:	48 2b 45 f0          	sub    -0x10(%rbp),%rax
    588f:	48 39 45 f8          	cmp    %rax,-0x8(%rbp)
    5893:	7c 0d                	jl     58a2 <safe_add_func_int64_t_s_s+0x61>
    5895:	48 8b 55 f8          	mov    -0x8(%rbp),%rdx
    5899:	48 8b 45 f0          	mov    -0x10(%rbp),%rax
    589d:	48 01 d0             	add    %rdx,%rax
    58a0:	eb 04                	jmp    58a6 <safe_add_func_int64_t_s_s+0x65>
    58a2:	48 8b 45 f8          	mov    -0x8(%rbp),%rax
    58a6:	5d                   	pop    %rbp
    58a7:	c3                   	retq   

00000000000058a8 <safe_sub_func_int64_t_s_s>:
    58a8:	f3 0f 1e fa          	endbr64 
    58ac:	55                   	push   %rbp
    58ad:	48 89 e5             	mov    %rsp,%rbp
    58b0:	48 89 7d f8          	mov    %rdi,-0x8(%rbp)
    58b4:	48 89 75 f0          	mov    %rsi,-0x10(%rbp)
    58b8:	48 8b 45 f8          	mov    -0x8(%rbp),%rax
    58bc:	48 33 45 f0          	xor    -0x10(%rbp),%rax
    58c0:	48 89 c2             	mov    %rax,%rdx
    58c3:	48 8b 45 f8          	mov    -0x8(%rbp),%rax
    58c7:	48 33 45 f0          	xor    -0x10(%rbp),%rax
    58cb:	48 b9 00 00 00 00 00 	movabs $0x8000000000000000,%rcx
    58d2:	00 00 80 
    58d5:	48 21 c8             	and    %rcx,%rax
    58d8:	48 33 45 f8          	xor    -0x8(%rbp),%rax
    58dc:	48 2b 45 f0          	sub    -0x10(%rbp),%rax
    58e0:	48 33 45 f0          	xor    -0x10(%rbp),%rax
    58e4:	48 21 d0             	and    %rdx,%rax
    58e7:	48 85 c0             	test   %rax,%rax
    58ea:	78 0a                	js     58f6 <safe_sub_func_int64_t_s_s+0x4e>
    58ec:	48 8b 45 f8          	mov    -0x8(%rbp),%rax
    58f0:	48 2b 45 f0          	sub    -0x10(%rbp),%rax
    58f4:	eb 04                	jmp    58fa <safe_sub_func_int64_t_s_s+0x52>
    58f6:	48 8b 45 f8          	mov    -0x8(%rbp),%rax
    58fa:	5d                   	pop    %rbp
    58fb:	c3                   	retq   

00000000000058fc <safe_mul_func_int64_t_s_s>:
    58fc:	f3 0f 1e fa          	endbr64 
    5900:	55                   	push   %rbp
    5901:	48 89 e5             	mov    %rsp,%rbp
    5904:	48 89 7d f8          	mov    %rdi,-0x8(%rbp)
    5908:	48 89 75 f0          	mov    %rsi,-0x10(%rbp)
    590c:	48 83 7d f8 00       	cmpq   $0x0,-0x8(%rbp)
    5911:	7e 1d                	jle    5930 <safe_mul_func_int64_t_s_s+0x34>
    5913:	48 83 7d f0 00       	cmpq   $0x0,-0x10(%rbp)
    5918:	7e 16                	jle    5930 <safe_mul_func_int64_t_s_s+0x34>
    591a:	48 b8 ff ff ff ff ff 	movabs $0x7fffffffffffffff,%rax
    5921:	ff ff 7f 
    5924:	48 99                	cqto   
    5926:	48 f7 7d f0          	idivq  -0x10(%rbp)
    592a:	48 39 45 f8          	cmp    %rax,-0x8(%rbp)
    592e:	7f 7e                	jg     59ae <safe_mul_func_int64_t_s_s+0xb2>
    5930:	48 83 7d f8 00       	cmpq   $0x0,-0x8(%rbp)
    5935:	7e 1d                	jle    5954 <safe_mul_func_int64_t_s_s+0x58>
    5937:	48 83 7d f0 00       	cmpq   $0x0,-0x10(%rbp)
    593c:	7f 16                	jg     5954 <safe_mul_func_int64_t_s_s+0x58>
    593e:	48 b8 00 00 00 00 00 	movabs $0x8000000000000000,%rax
    5945:	00 00 80 
    5948:	48 99                	cqto   
    594a:	48 f7 7d f8          	idivq  -0x8(%rbp)
    594e:	48 39 45 f0          	cmp    %rax,-0x10(%rbp)
    5952:	7c 5a                	jl     59ae <safe_mul_func_int64_t_s_s+0xb2>
    5954:	48 83 7d f8 00       	cmpq   $0x0,-0x8(%rbp)
    5959:	7f 1d                	jg     5978 <safe_mul_func_int64_t_s_s+0x7c>
    595b:	48 83 7d f0 00       	cmpq   $0x0,-0x10(%rbp)
    5960:	7e 16                	jle    5978 <safe_mul_func_int64_t_s_s+0x7c>
    5962:	48 b8 00 00 00 00 00 	movabs $0x8000000000000000,%rax
    5969:	00 00 80 
    596c:	48 99                	cqto   
    596e:	48 f7 7d f0          	idivq  -0x10(%rbp)
    5972:	48 39 45 f8          	cmp    %rax,-0x8(%rbp)
    5976:	7c 36                	jl     59ae <safe_mul_func_int64_t_s_s+0xb2>
    5978:	48 83 7d f8 00       	cmpq   $0x0,-0x8(%rbp)
    597d:	7f 24                	jg     59a3 <safe_mul_func_int64_t_s_s+0xa7>
    597f:	48 83 7d f0 00       	cmpq   $0x0,-0x10(%rbp)
    5984:	7f 1d                	jg     59a3 <safe_mul_func_int64_t_s_s+0xa7>
    5986:	48 83 7d f8 00       	cmpq   $0x0,-0x8(%rbp)
    598b:	74 16                	je     59a3 <safe_mul_func_int64_t_s_s+0xa7>
    598d:	48 b8 ff ff ff ff ff 	movabs $0x7fffffffffffffff,%rax
    5994:	ff ff 7f 
    5997:	48 99                	cqto   
    5999:	48 f7 7d f8          	idivq  -0x8(%rbp)
    599d:	48 39 45 f0          	cmp    %rax,-0x10(%rbp)
    59a1:	7c 0b                	jl     59ae <safe_mul_func_int64_t_s_s+0xb2>
    59a3:	48 8b 45 f8          	mov    -0x8(%rbp),%rax
    59a7:	48 0f af 45 f0       	imul   -0x10(%rbp),%rax
    59ac:	eb 04                	jmp    59b2 <safe_mul_func_int64_t_s_s+0xb6>
    59ae:	48 8b 45 f8          	mov    -0x8(%rbp),%rax
    59b2:	5d                   	pop    %rbp
    59b3:	c3                   	retq   

00000000000059b4 <safe_mod_func_int64_t_s_s>:
    59b4:	f3 0f 1e fa          	endbr64 
    59b8:	55                   	push   %rbp
    59b9:	48 89 e5             	mov    %rsp,%rbp
    59bc:	48 89 7d f8          	mov    %rdi,-0x8(%rbp)
    59c0:	48 89 75 f0          	mov    %rsi,-0x10(%rbp)
    59c4:	48 83 7d f0 00       	cmpq   $0x0,-0x10(%rbp)
    59c9:	74 26                	je     59f1 <safe_mod_func_int64_t_s_s+0x3d>
    59cb:	48 b8 00 00 00 00 00 	movabs $0x8000000000000000,%rax
    59d2:	00 00 80 
    59d5:	48 39 45 f8          	cmp    %rax,-0x8(%rbp)
    59d9:	75 07                	jne    59e2 <safe_mod_func_int64_t_s_s+0x2e>
    59db:	48 83 7d f0 ff       	cmpq   $0xffffffffffffffff,-0x10(%rbp)
    59e0:	74 0f                	je     59f1 <safe_mod_func_int64_t_s_s+0x3d>
    59e2:	48 8b 45 f8          	mov    -0x8(%rbp),%rax
    59e6:	48 99                	cqto   
    59e8:	48 f7 7d f0          	idivq  -0x10(%rbp)
    59ec:	48 89 d0             	mov    %rdx,%rax
    59ef:	eb 04                	jmp    59f5 <safe_mod_func_int64_t_s_s+0x41>
    59f1:	48 8b 45 f8          	mov    -0x8(%rbp),%rax
    59f5:	5d                   	pop    %rbp
    59f6:	c3                   	retq   

00000000000059f7 <safe_div_func_int64_t_s_s>:
    59f7:	f3 0f 1e fa          	endbr64 
    59fb:	55                   	push   %rbp
    59fc:	48 89 e5             	mov    %rsp,%rbp
    59ff:	48 89 7d f8          	mov    %rdi,-0x8(%rbp)
    5a03:	48 89 75 f0          	mov    %rsi,-0x10(%rbp)
    5a07:	48 83 7d f0 00       	cmpq   $0x0,-0x10(%rbp)
    5a0c:	74 23                	je     5a31 <safe_div_func_int64_t_s_s+0x3a>
    5a0e:	48 b8 00 00 00 00 00 	movabs $0x8000000000000000,%rax
    5a15:	00 00 80 
    5a18:	48 39 45 f8          	cmp    %rax,-0x8(%rbp)
    5a1c:	75 07                	jne    5a25 <safe_div_func_int64_t_s_s+0x2e>
    5a1e:	48 83 7d f0 ff       	cmpq   $0xffffffffffffffff,-0x10(%rbp)
    5a23:	74 0c                	je     5a31 <safe_div_func_int64_t_s_s+0x3a>
    5a25:	48 8b 45 f8          	mov    -0x8(%rbp),%rax
    5a29:	48 99                	cqto   
    5a2b:	48 f7 7d f0          	idivq  -0x10(%rbp)
    5a2f:	eb 04                	jmp    5a35 <safe_div_func_int64_t_s_s+0x3e>
    5a31:	48 8b 45 f8          	mov    -0x8(%rbp),%rax
    5a35:	5d                   	pop    %rbp
    5a36:	c3                   	retq   

0000000000005a37 <safe_lshift_func_int64_t_s_s>:
    5a37:	f3 0f 1e fa          	endbr64 
    5a3b:	55                   	push   %rbp
    5a3c:	48 89 e5             	mov    %rsp,%rbp
    5a3f:	48 89 7d f8          	mov    %rdi,-0x8(%rbp)
    5a43:	89 75 f4             	mov    %esi,-0xc(%rbp)
    5a46:	48 83 7d f8 00       	cmpq   $0x0,-0x8(%rbp)
    5a4b:	78 38                	js     5a85 <safe_lshift_func_int64_t_s_s+0x4e>
    5a4d:	83 7d f4 00          	cmpl   $0x0,-0xc(%rbp)
    5a51:	78 32                	js     5a85 <safe_lshift_func_int64_t_s_s+0x4e>
    5a53:	83 7d f4 1f          	cmpl   $0x1f,-0xc(%rbp)
    5a57:	7f 2c                	jg     5a85 <safe_lshift_func_int64_t_s_s+0x4e>
    5a59:	8b 45 f4             	mov    -0xc(%rbp),%eax
    5a5c:	48 ba ff ff ff ff ff 	movabs $0x7fffffffffffffff,%rdx
    5a63:	ff ff 7f 
    5a66:	89 c1                	mov    %eax,%ecx
    5a68:	48 d3 fa             	sar    %cl,%rdx
    5a6b:	48 89 d0             	mov    %rdx,%rax
    5a6e:	48 39 45 f8          	cmp    %rax,-0x8(%rbp)
    5a72:	7f 11                	jg     5a85 <safe_lshift_func_int64_t_s_s+0x4e>
    5a74:	8b 45 f4             	mov    -0xc(%rbp),%eax
    5a77:	48 8b 55 f8          	mov    -0x8(%rbp),%rdx
    5a7b:	89 c1                	mov    %eax,%ecx
    5a7d:	48 d3 e2             	shl    %cl,%rdx
    5a80:	48 89 d0             	mov    %rdx,%rax
    5a83:	eb 04                	jmp    5a89 <safe_lshift_func_int64_t_s_s+0x52>
    5a85:	48 8b 45 f8          	mov    -0x8(%rbp),%rax
    5a89:	5d                   	pop    %rbp
    5a8a:	c3                   	retq   

0000000000005a8b <safe_lshift_func_int64_t_s_u>:
    5a8b:	f3 0f 1e fa          	endbr64 
    5a8f:	55                   	push   %rbp
    5a90:	48 89 e5             	mov    %rsp,%rbp
    5a93:	48 89 7d f8          	mov    %rdi,-0x8(%rbp)
    5a97:	89 75 f4             	mov    %esi,-0xc(%rbp)
    5a9a:	48 83 7d f8 00       	cmpq   $0x0,-0x8(%rbp)
    5a9f:	78 32                	js     5ad3 <safe_lshift_func_int64_t_s_u+0x48>
    5aa1:	83 7d f4 1f          	cmpl   $0x1f,-0xc(%rbp)
    5aa5:	77 2c                	ja     5ad3 <safe_lshift_func_int64_t_s_u+0x48>
    5aa7:	8b 45 f4             	mov    -0xc(%rbp),%eax
    5aaa:	48 ba ff ff ff ff ff 	movabs $0x7fffffffffffffff,%rdx
    5ab1:	ff ff 7f 
    5ab4:	89 c1                	mov    %eax,%ecx
    5ab6:	48 d3 fa             	sar    %cl,%rdx
    5ab9:	48 89 d0             	mov    %rdx,%rax
    5abc:	48 39 45 f8          	cmp    %rax,-0x8(%rbp)
    5ac0:	7f 11                	jg     5ad3 <safe_lshift_func_int64_t_s_u+0x48>
    5ac2:	8b 45 f4             	mov    -0xc(%rbp),%eax
    5ac5:	48 8b 55 f8          	mov    -0x8(%rbp),%rdx
    5ac9:	89 c1                	mov    %eax,%ecx
    5acb:	48 d3 e2             	shl    %cl,%rdx
    5ace:	48 89 d0             	mov    %rdx,%rax
    5ad1:	eb 04                	jmp    5ad7 <safe_lshift_func_int64_t_s_u+0x4c>
    5ad3:	48 8b 45 f8          	mov    -0x8(%rbp),%rax
    5ad7:	5d                   	pop    %rbp
    5ad8:	c3                   	retq   

0000000000005ad9 <safe_rshift_func_int64_t_s_s>:
    5ad9:	f3 0f 1e fa          	endbr64 
    5add:	55                   	push   %rbp
    5ade:	48 89 e5             	mov    %rsp,%rbp
    5ae1:	48 89 7d f8          	mov    %rdi,-0x8(%rbp)
    5ae5:	89 75 f4             	mov    %esi,-0xc(%rbp)
    5ae8:	48 83 7d f8 00       	cmpq   $0x0,-0x8(%rbp)
    5aed:	78 1d                	js     5b0c <safe_rshift_func_int64_t_s_s+0x33>
    5aef:	83 7d f4 00          	cmpl   $0x0,-0xc(%rbp)
    5af3:	78 17                	js     5b0c <safe_rshift_func_int64_t_s_s+0x33>
    5af5:	83 7d f4 1f          	cmpl   $0x1f,-0xc(%rbp)
    5af9:	7f 11                	jg     5b0c <safe_rshift_func_int64_t_s_s+0x33>
    5afb:	8b 45 f4             	mov    -0xc(%rbp),%eax
    5afe:	48 8b 55 f8          	mov    -0x8(%rbp),%rdx
    5b02:	89 c1                	mov    %eax,%ecx
    5b04:	48 d3 fa             	sar    %cl,%rdx
    5b07:	48 89 d0             	mov    %rdx,%rax
    5b0a:	eb 04                	jmp    5b10 <safe_rshift_func_int64_t_s_s+0x37>
    5b0c:	48 8b 45 f8          	mov    -0x8(%rbp),%rax
    5b10:	5d                   	pop    %rbp
    5b11:	c3                   	retq   

0000000000005b12 <safe_rshift_func_int64_t_s_u>:
    5b12:	f3 0f 1e fa          	endbr64 
    5b16:	55                   	push   %rbp
    5b17:	48 89 e5             	mov    %rsp,%rbp
    5b1a:	48 89 7d f8          	mov    %rdi,-0x8(%rbp)
    5b1e:	89 75 f4             	mov    %esi,-0xc(%rbp)
    5b21:	48 83 7d f8 00       	cmpq   $0x0,-0x8(%rbp)
    5b26:	78 17                	js     5b3f <safe_rshift_func_int64_t_s_u+0x2d>
    5b28:	83 7d f4 1f          	cmpl   $0x1f,-0xc(%rbp)
    5b2c:	77 11                	ja     5b3f <safe_rshift_func_int64_t_s_u+0x2d>
    5b2e:	8b 45 f4             	mov    -0xc(%rbp),%eax
    5b31:	48 8b 55 f8          	mov    -0x8(%rbp),%rdx
    5b35:	89 c1                	mov    %eax,%ecx
    5b37:	48 d3 fa             	sar    %cl,%rdx
    5b3a:	48 89 d0             	mov    %rdx,%rax
    5b3d:	eb 04                	jmp    5b43 <safe_rshift_func_int64_t_s_u+0x31>
    5b3f:	48 8b 45 f8          	mov    -0x8(%rbp),%rax
    5b43:	5d                   	pop    %rbp
    5b44:	c3                   	retq   

0000000000005b45 <safe_unary_minus_func_uint8_t_u>:
    5b45:	f3 0f 1e fa          	endbr64 
    5b49:	55                   	push   %rbp
    5b4a:	48 89 e5             	mov    %rsp,%rbp
    5b4d:	89 f8                	mov    %edi,%eax
    5b4f:	88 45 fc             	mov    %al,-0x4(%rbp)
    5b52:	0f b6 45 fc          	movzbl -0x4(%rbp),%eax
    5b56:	f7 d8                	neg    %eax
    5b58:	5d                   	pop    %rbp
    5b59:	c3                   	retq   

0000000000005b5a <safe_add_func_uint8_t_u_u>:
    5b5a:	f3 0f 1e fa          	endbr64 
    5b5e:	55                   	push   %rbp
    5b5f:	48 89 e5             	mov    %rsp,%rbp
    5b62:	89 fa                	mov    %edi,%edx
    5b64:	89 f0                	mov    %esi,%eax
    5b66:	88 55 fc             	mov    %dl,-0x4(%rbp)
    5b69:	88 45 f8             	mov    %al,-0x8(%rbp)
    5b6c:	0f b6 55 fc          	movzbl -0x4(%rbp),%edx
    5b70:	0f b6 45 f8          	movzbl -0x8(%rbp),%eax
    5b74:	01 d0                	add    %edx,%eax
    5b76:	5d                   	pop    %rbp
    5b77:	c3                   	retq   

0000000000005b78 <safe_sub_func_uint8_t_u_u>:
    5b78:	f3 0f 1e fa          	endbr64 
    5b7c:	55                   	push   %rbp
    5b7d:	48 89 e5             	mov    %rsp,%rbp
    5b80:	89 fa                	mov    %edi,%edx
    5b82:	89 f0                	mov    %esi,%eax
    5b84:	88 55 fc             	mov    %dl,-0x4(%rbp)
    5b87:	88 45 f8             	mov    %al,-0x8(%rbp)
    5b8a:	0f b6 45 fc          	movzbl -0x4(%rbp),%eax
    5b8e:	2a 45 f8             	sub    -0x8(%rbp),%al
    5b91:	5d                   	pop    %rbp
    5b92:	c3                   	retq   

0000000000005b93 <safe_mul_func_uint8_t_u_u>:
    5b93:	f3 0f 1e fa          	endbr64 
    5b97:	55                   	push   %rbp
    5b98:	48 89 e5             	mov    %rsp,%rbp
    5b9b:	89 fa                	mov    %edi,%edx
    5b9d:	89 f0                	mov    %esi,%eax
    5b9f:	88 55 fc             	mov    %dl,-0x4(%rbp)
    5ba2:	88 45 f8             	mov    %al,-0x8(%rbp)
    5ba5:	0f b6 45 fc          	movzbl -0x4(%rbp),%eax
    5ba9:	f6 65 f8             	mulb   -0x8(%rbp)
    5bac:	5d                   	pop    %rbp
    5bad:	c3                   	retq   

0000000000005bae <safe_mod_func_uint8_t_u_u>:
    5bae:	f3 0f 1e fa          	endbr64 
    5bb2:	55                   	push   %rbp
    5bb3:	48 89 e5             	mov    %rsp,%rbp
    5bb6:	89 fa                	mov    %edi,%edx
    5bb8:	89 f0                	mov    %esi,%eax
    5bba:	88 55 fc             	mov    %dl,-0x4(%rbp)
    5bbd:	88 45 f8             	mov    %al,-0x8(%rbp)
    5bc0:	80 7d f8 00          	cmpb   $0x0,-0x8(%rbp)
    5bc4:	74 0f                	je     5bd5 <safe_mod_func_uint8_t_u_u+0x27>
    5bc6:	0f b6 45 fc          	movzbl -0x4(%rbp),%eax
    5bca:	0f b6 c0             	movzbl %al,%eax
    5bcd:	f6 75 f8             	divb   -0x8(%rbp)
    5bd0:	0f b6 c4             	movzbl %ah,%eax
    5bd3:	eb 04                	jmp    5bd9 <safe_mod_func_uint8_t_u_u+0x2b>
    5bd5:	0f b6 45 fc          	movzbl -0x4(%rbp),%eax
    5bd9:	5d                   	pop    %rbp
    5bda:	c3                   	retq   

0000000000005bdb <safe_div_func_uint8_t_u_u>:
    5bdb:	f3 0f 1e fa          	endbr64 
    5bdf:	55                   	push   %rbp
    5be0:	48 89 e5             	mov    %rsp,%rbp
    5be3:	89 fa                	mov    %edi,%edx
    5be5:	89 f0                	mov    %esi,%eax
    5be7:	88 55 fc             	mov    %dl,-0x4(%rbp)
    5bea:	88 45 f8             	mov    %al,-0x8(%rbp)
    5bed:	80 7d f8 00          	cmpb   $0x0,-0x8(%rbp)
    5bf1:	74 0c                	je     5bff <safe_div_func_uint8_t_u_u+0x24>
    5bf3:	0f b6 45 fc          	movzbl -0x4(%rbp),%eax
    5bf7:	0f b6 c0             	movzbl %al,%eax
    5bfa:	f6 75 f8             	divb   -0x8(%rbp)
    5bfd:	eb 04                	jmp    5c03 <safe_div_func_uint8_t_u_u+0x28>
    5bff:	0f b6 45 fc          	movzbl -0x4(%rbp),%eax
    5c03:	5d                   	pop    %rbp
    5c04:	c3                   	retq   

0000000000005c05 <safe_lshift_func_uint8_t_u_s>:
    5c05:	f3 0f 1e fa          	endbr64 
    5c09:	55                   	push   %rbp
    5c0a:	48 89 e5             	mov    %rsp,%rbp
    5c0d:	89 f8                	mov    %edi,%eax
    5c0f:	89 75 f8             	mov    %esi,-0x8(%rbp)
    5c12:	88 45 fc             	mov    %al,-0x4(%rbp)
    5c15:	83 7d f8 00          	cmpl   $0x0,-0x8(%rbp)
    5c19:	78 2b                	js     5c46 <safe_lshift_func_uint8_t_u_s+0x41>
    5c1b:	83 7d f8 1f          	cmpl   $0x1f,-0x8(%rbp)
    5c1f:	7f 25                	jg     5c46 <safe_lshift_func_uint8_t_u_s+0x41>
    5c21:	0f b6 55 fc          	movzbl -0x4(%rbp),%edx
    5c25:	8b 45 f8             	mov    -0x8(%rbp),%eax
    5c28:	be ff 00 00 00       	mov    $0xff,%esi
    5c2d:	89 c1                	mov    %eax,%ecx
    5c2f:	d3 fe                	sar    %cl,%esi
    5c31:	89 f0                	mov    %esi,%eax
    5c33:	39 c2                	cmp    %eax,%edx
    5c35:	7f 0f                	jg     5c46 <safe_lshift_func_uint8_t_u_s+0x41>
    5c37:	0f b6 55 fc          	movzbl -0x4(%rbp),%edx
    5c3b:	8b 45 f8             	mov    -0x8(%rbp),%eax
    5c3e:	89 c1                	mov    %eax,%ecx
    5c40:	d3 e2                	shl    %cl,%edx
    5c42:	89 d0                	mov    %edx,%eax
    5c44:	eb 04                	jmp    5c4a <safe_lshift_func_uint8_t_u_s+0x45>
    5c46:	0f b6 45 fc          	movzbl -0x4(%rbp),%eax
    5c4a:	5d                   	pop    %rbp
    5c4b:	c3                   	retq   

0000000000005c4c <safe_lshift_func_uint8_t_u_u>:
    5c4c:	f3 0f 1e fa          	endbr64 
    5c50:	55                   	push   %rbp
    5c51:	48 89 e5             	mov    %rsp,%rbp
    5c54:	89 f8                	mov    %edi,%eax
    5c56:	89 75 f8             	mov    %esi,-0x8(%rbp)
    5c59:	88 45 fc             	mov    %al,-0x4(%rbp)
    5c5c:	83 7d f8 1f          	cmpl   $0x1f,-0x8(%rbp)
    5c60:	77 25                	ja     5c87 <safe_lshift_func_uint8_t_u_u+0x3b>
    5c62:	0f b6 55 fc          	movzbl -0x4(%rbp),%edx
    5c66:	8b 45 f8             	mov    -0x8(%rbp),%eax
    5c69:	be ff 00 00 00       	mov    $0xff,%esi
    5c6e:	89 c1                	mov    %eax,%ecx
    5c70:	d3 fe                	sar    %cl,%esi
    5c72:	89 f0                	mov    %esi,%eax
    5c74:	39 c2                	cmp    %eax,%edx
    5c76:	7f 0f                	jg     5c87 <safe_lshift_func_uint8_t_u_u+0x3b>
    5c78:	0f b6 55 fc          	movzbl -0x4(%rbp),%edx
    5c7c:	8b 45 f8             	mov    -0x8(%rbp),%eax
    5c7f:	89 c1                	mov    %eax,%ecx
    5c81:	d3 e2                	shl    %cl,%edx
    5c83:	89 d0                	mov    %edx,%eax
    5c85:	eb 04                	jmp    5c8b <safe_lshift_func_uint8_t_u_u+0x3f>
    5c87:	0f b6 45 fc          	movzbl -0x4(%rbp),%eax
    5c8b:	5d                   	pop    %rbp
    5c8c:	c3                   	retq   

0000000000005c8d <safe_rshift_func_uint8_t_u_s>:
    5c8d:	f3 0f 1e fa          	endbr64 
    5c91:	55                   	push   %rbp
    5c92:	48 89 e5             	mov    %rsp,%rbp
    5c95:	89 f8                	mov    %edi,%eax
    5c97:	89 75 f8             	mov    %esi,-0x8(%rbp)
    5c9a:	88 45 fc             	mov    %al,-0x4(%rbp)
    5c9d:	83 7d f8 00          	cmpl   $0x0,-0x8(%rbp)
    5ca1:	78 15                	js     5cb8 <safe_rshift_func_uint8_t_u_s+0x2b>
    5ca3:	83 7d f8 1f          	cmpl   $0x1f,-0x8(%rbp)
    5ca7:	7f 0f                	jg     5cb8 <safe_rshift_func_uint8_t_u_s+0x2b>
    5ca9:	0f b6 55 fc          	movzbl -0x4(%rbp),%edx
    5cad:	8b 45 f8             	mov    -0x8(%rbp),%eax
    5cb0:	89 c1                	mov    %eax,%ecx
    5cb2:	d3 fa                	sar    %cl,%edx
    5cb4:	89 d0                	mov    %edx,%eax
    5cb6:	eb 04                	jmp    5cbc <safe_rshift_func_uint8_t_u_s+0x2f>
    5cb8:	0f b6 45 fc          	movzbl -0x4(%rbp),%eax
    5cbc:	5d                   	pop    %rbp
    5cbd:	c3                   	retq   

0000000000005cbe <safe_rshift_func_uint8_t_u_u>:
    5cbe:	f3 0f 1e fa          	endbr64 
    5cc2:	55                   	push   %rbp
    5cc3:	48 89 e5             	mov    %rsp,%rbp
    5cc6:	89 f8                	mov    %edi,%eax
    5cc8:	89 75 f8             	mov    %esi,-0x8(%rbp)
    5ccb:	88 45 fc             	mov    %al,-0x4(%rbp)
    5cce:	83 7d f8 1f          	cmpl   $0x1f,-0x8(%rbp)
    5cd2:	77 0f                	ja     5ce3 <safe_rshift_func_uint8_t_u_u+0x25>
    5cd4:	0f b6 55 fc          	movzbl -0x4(%rbp),%edx
    5cd8:	8b 45 f8             	mov    -0x8(%rbp),%eax
    5cdb:	89 c1                	mov    %eax,%ecx
    5cdd:	d3 fa                	sar    %cl,%edx
    5cdf:	89 d0                	mov    %edx,%eax
    5ce1:	eb 04                	jmp    5ce7 <safe_rshift_func_uint8_t_u_u+0x29>
    5ce3:	0f b6 45 fc          	movzbl -0x4(%rbp),%eax
    5ce7:	5d                   	pop    %rbp
    5ce8:	c3                   	retq   

0000000000005ce9 <safe_unary_minus_func_uint16_t_u>:
    5ce9:	f3 0f 1e fa          	endbr64 
    5ced:	55                   	push   %rbp
    5cee:	48 89 e5             	mov    %rsp,%rbp
    5cf1:	89 f8                	mov    %edi,%eax
    5cf3:	66 89 45 fc          	mov    %ax,-0x4(%rbp)
    5cf7:	0f b7 45 fc          	movzwl -0x4(%rbp),%eax
    5cfb:	f7 d8                	neg    %eax
    5cfd:	5d                   	pop    %rbp
    5cfe:	c3                   	retq   

0000000000005cff <safe_add_func_uint16_t_u_u>:
    5cff:	f3 0f 1e fa          	endbr64 
    5d03:	55                   	push   %rbp
    5d04:	48 89 e5             	mov    %rsp,%rbp
    5d07:	89 fa                	mov    %edi,%edx
    5d09:	89 f0                	mov    %esi,%eax
    5d0b:	66 89 55 fc          	mov    %dx,-0x4(%rbp)
    5d0f:	66 89 45 f8          	mov    %ax,-0x8(%rbp)
    5d13:	0f b7 55 fc          	movzwl -0x4(%rbp),%edx
    5d17:	0f b7 45 f8          	movzwl -0x8(%rbp),%eax
    5d1b:	01 d0                	add    %edx,%eax
    5d1d:	5d                   	pop    %rbp
    5d1e:	c3                   	retq   

0000000000005d1f <safe_sub_func_uint16_t_u_u>:
    5d1f:	f3 0f 1e fa          	endbr64 
    5d23:	55                   	push   %rbp
    5d24:	48 89 e5             	mov    %rsp,%rbp
    5d27:	89 fa                	mov    %edi,%edx
    5d29:	89 f0                	mov    %esi,%eax
    5d2b:	66 89 55 fc          	mov    %dx,-0x4(%rbp)
    5d2f:	66 89 45 f8          	mov    %ax,-0x8(%rbp)
    5d33:	0f b7 45 fc          	movzwl -0x4(%rbp),%eax
    5d37:	66 2b 45 f8          	sub    -0x8(%rbp),%ax
    5d3b:	5d                   	pop    %rbp
    5d3c:	c3                   	retq   

0000000000005d3d <safe_mul_func_uint16_t_u_u>:
    5d3d:	f3 0f 1e fa          	endbr64 
    5d41:	55                   	push   %rbp
    5d42:	48 89 e5             	mov    %rsp,%rbp
    5d45:	89 fa                	mov    %edi,%edx
    5d47:	89 f0                	mov    %esi,%eax
    5d49:	66 89 55 fc          	mov    %dx,-0x4(%rbp)
    5d4d:	66 89 45 f8          	mov    %ax,-0x8(%rbp)
    5d51:	0f b7 45 fc          	movzwl -0x4(%rbp),%eax
    5d55:	66 0f af 45 f8       	imul   -0x8(%rbp),%ax
    5d5a:	5d                   	pop    %rbp
    5d5b:	c3                   	retq   

0000000000005d5c <safe_mod_func_uint16_t_u_u>:
    5d5c:	f3 0f 1e fa          	endbr64 
    5d60:	55                   	push   %rbp
    5d61:	48 89 e5             	mov    %rsp,%rbp
    5d64:	89 fa                	mov    %edi,%edx
    5d66:	89 f0                	mov    %esi,%eax
    5d68:	66 89 55 fc          	mov    %dx,-0x4(%rbp)
    5d6c:	66 89 45 f8          	mov    %ax,-0x8(%rbp)
    5d70:	66 83 7d f8 00       	cmpw   $0x0,-0x8(%rbp)
    5d75:	74 11                	je     5d88 <safe_mod_func_uint16_t_u_u+0x2c>
    5d77:	0f b7 45 fc          	movzwl -0x4(%rbp),%eax
    5d7b:	ba 00 00 00 00       	mov    $0x0,%edx
    5d80:	66 f7 75 f8          	divw   -0x8(%rbp)
    5d84:	89 d0                	mov    %edx,%eax
    5d86:	eb 04                	jmp    5d8c <safe_mod_func_uint16_t_u_u+0x30>
    5d88:	0f b7 45 fc          	movzwl -0x4(%rbp),%eax
    5d8c:	5d                   	pop    %rbp
    5d8d:	c3                   	retq   

0000000000005d8e <safe_div_func_uint16_t_u_u>:
    5d8e:	f3 0f 1e fa          	endbr64 
    5d92:	55                   	push   %rbp
    5d93:	48 89 e5             	mov    %rsp,%rbp
    5d96:	89 fa                	mov    %edi,%edx
    5d98:	89 f0                	mov    %esi,%eax
    5d9a:	66 89 55 fc          	mov    %dx,-0x4(%rbp)
    5d9e:	66 89 45 f8          	mov    %ax,-0x8(%rbp)
    5da2:	66 83 7d f8 00       	cmpw   $0x0,-0x8(%rbp)
    5da7:	74 0f                	je     5db8 <safe_div_func_uint16_t_u_u+0x2a>
    5da9:	0f b7 45 fc          	movzwl -0x4(%rbp),%eax
    5dad:	ba 00 00 00 00       	mov    $0x0,%edx
    5db2:	66 f7 75 f8          	divw   -0x8(%rbp)
    5db6:	eb 04                	jmp    5dbc <safe_div_func_uint16_t_u_u+0x2e>
    5db8:	0f b7 45 fc          	movzwl -0x4(%rbp),%eax
    5dbc:	5d                   	pop    %rbp
    5dbd:	c3                   	retq   

0000000000005dbe <safe_lshift_func_uint16_t_u_s>:
    5dbe:	f3 0f 1e fa          	endbr64 
    5dc2:	55                   	push   %rbp
    5dc3:	48 89 e5             	mov    %rsp,%rbp
    5dc6:	89 f8                	mov    %edi,%eax
    5dc8:	89 75 f8             	mov    %esi,-0x8(%rbp)
    5dcb:	66 89 45 fc          	mov    %ax,-0x4(%rbp)
    5dcf:	83 7d f8 00          	cmpl   $0x0,-0x8(%rbp)
    5dd3:	78 2b                	js     5e00 <safe_lshift_func_uint16_t_u_s+0x42>
    5dd5:	83 7d f8 1f          	cmpl   $0x1f,-0x8(%rbp)
    5dd9:	7f 25                	jg     5e00 <safe_lshift_func_uint16_t_u_s+0x42>
    5ddb:	0f b7 55 fc          	movzwl -0x4(%rbp),%edx
    5ddf:	8b 45 f8             	mov    -0x8(%rbp),%eax
    5de2:	be ff ff 00 00       	mov    $0xffff,%esi
    5de7:	89 c1                	mov    %eax,%ecx
    5de9:	d3 fe                	sar    %cl,%esi
    5deb:	89 f0                	mov    %esi,%eax
    5ded:	39 c2                	cmp    %eax,%edx
    5def:	7f 0f                	jg     5e00 <safe_lshift_func_uint16_t_u_s+0x42>
    5df1:	0f b7 55 fc          	movzwl -0x4(%rbp),%edx
    5df5:	8b 45 f8             	mov    -0x8(%rbp),%eax
    5df8:	89 c1                	mov    %eax,%ecx
    5dfa:	d3 e2                	shl    %cl,%edx
    5dfc:	89 d0                	mov    %edx,%eax
    5dfe:	eb 04                	jmp    5e04 <safe_lshift_func_uint16_t_u_s+0x46>
    5e00:	0f b7 45 fc          	movzwl -0x4(%rbp),%eax
    5e04:	5d                   	pop    %rbp
    5e05:	c3                   	retq   

0000000000005e06 <safe_lshift_func_uint16_t_u_u>:
    5e06:	f3 0f 1e fa          	endbr64 
    5e0a:	55                   	push   %rbp
    5e0b:	48 89 e5             	mov    %rsp,%rbp
    5e0e:	89 f8                	mov    %edi,%eax
    5e10:	89 75 f8             	mov    %esi,-0x8(%rbp)
    5e13:	66 89 45 fc          	mov    %ax,-0x4(%rbp)
    5e17:	83 7d f8 1f          	cmpl   $0x1f,-0x8(%rbp)
    5e1b:	77 25                	ja     5e42 <safe_lshift_func_uint16_t_u_u+0x3c>
    5e1d:	0f b7 55 fc          	movzwl -0x4(%rbp),%edx
    5e21:	8b 45 f8             	mov    -0x8(%rbp),%eax
    5e24:	be ff ff 00 00       	mov    $0xffff,%esi
    5e29:	89 c1                	mov    %eax,%ecx
    5e2b:	d3 fe                	sar    %cl,%esi
    5e2d:	89 f0                	mov    %esi,%eax
    5e2f:	39 c2                	cmp    %eax,%edx
    5e31:	7f 0f                	jg     5e42 <safe_lshift_func_uint16_t_u_u+0x3c>
    5e33:	0f b7 55 fc          	movzwl -0x4(%rbp),%edx
    5e37:	8b 45 f8             	mov    -0x8(%rbp),%eax
    5e3a:	89 c1                	mov    %eax,%ecx
    5e3c:	d3 e2                	shl    %cl,%edx
    5e3e:	89 d0                	mov    %edx,%eax
    5e40:	eb 04                	jmp    5e46 <safe_lshift_func_uint16_t_u_u+0x40>
    5e42:	0f b7 45 fc          	movzwl -0x4(%rbp),%eax
    5e46:	5d                   	pop    %rbp
    5e47:	c3                   	retq   

0000000000005e48 <safe_rshift_func_uint16_t_u_s>:
    5e48:	f3 0f 1e fa          	endbr64 
    5e4c:	55                   	push   %rbp
    5e4d:	48 89 e5             	mov    %rsp,%rbp
    5e50:	89 f8                	mov    %edi,%eax
    5e52:	89 75 f8             	mov    %esi,-0x8(%rbp)
    5e55:	66 89 45 fc          	mov    %ax,-0x4(%rbp)
    5e59:	83 7d f8 00          	cmpl   $0x0,-0x8(%rbp)
    5e5d:	78 15                	js     5e74 <safe_rshift_func_uint16_t_u_s+0x2c>
    5e5f:	83 7d f8 1f          	cmpl   $0x1f,-0x8(%rbp)
    5e63:	7f 0f                	jg     5e74 <safe_rshift_func_uint16_t_u_s+0x2c>
    5e65:	0f b7 55 fc          	movzwl -0x4(%rbp),%edx
    5e69:	8b 45 f8             	mov    -0x8(%rbp),%eax
    5e6c:	89 c1                	mov    %eax,%ecx
    5e6e:	d3 fa                	sar    %cl,%edx
    5e70:	89 d0                	mov    %edx,%eax
    5e72:	eb 04                	jmp    5e78 <safe_rshift_func_uint16_t_u_s+0x30>
    5e74:	0f b7 45 fc          	movzwl -0x4(%rbp),%eax
    5e78:	5d                   	pop    %rbp
    5e79:	c3                   	retq   

0000000000005e7a <safe_rshift_func_uint16_t_u_u>:
    5e7a:	f3 0f 1e fa          	endbr64 
    5e7e:	55                   	push   %rbp
    5e7f:	48 89 e5             	mov    %rsp,%rbp
    5e82:	89 f8                	mov    %edi,%eax
    5e84:	89 75 f8             	mov    %esi,-0x8(%rbp)
    5e87:	66 89 45 fc          	mov    %ax,-0x4(%rbp)
    5e8b:	83 7d f8 1f          	cmpl   $0x1f,-0x8(%rbp)
    5e8f:	77 0f                	ja     5ea0 <safe_rshift_func_uint16_t_u_u+0x26>
    5e91:	0f b7 55 fc          	movzwl -0x4(%rbp),%edx
    5e95:	8b 45 f8             	mov    -0x8(%rbp),%eax
    5e98:	89 c1                	mov    %eax,%ecx
    5e9a:	d3 fa                	sar    %cl,%edx
    5e9c:	89 d0                	mov    %edx,%eax
    5e9e:	eb 04                	jmp    5ea4 <safe_rshift_func_uint16_t_u_u+0x2a>
    5ea0:	0f b7 45 fc          	movzwl -0x4(%rbp),%eax
    5ea4:	5d                   	pop    %rbp
    5ea5:	c3                   	retq   

0000000000005ea6 <safe_unary_minus_func_uint32_t_u>:
    5ea6:	f3 0f 1e fa          	endbr64 
    5eaa:	55                   	push   %rbp
    5eab:	48 89 e5             	mov    %rsp,%rbp
    5eae:	89 7d fc             	mov    %edi,-0x4(%rbp)
    5eb1:	8b 45 fc             	mov    -0x4(%rbp),%eax
    5eb4:	f7 d8                	neg    %eax
    5eb6:	5d                   	pop    %rbp
    5eb7:	c3                   	retq   

0000000000005eb8 <safe_add_func_uint32_t_u_u>:
    5eb8:	f3 0f 1e fa          	endbr64 
    5ebc:	55                   	push   %rbp
    5ebd:	48 89 e5             	mov    %rsp,%rbp
    5ec0:	89 7d fc             	mov    %edi,-0x4(%rbp)
    5ec3:	89 75 f8             	mov    %esi,-0x8(%rbp)
    5ec6:	8b 55 fc             	mov    -0x4(%rbp),%edx
    5ec9:	8b 45 f8             	mov    -0x8(%rbp),%eax
    5ecc:	01 d0                	add    %edx,%eax
    5ece:	5d                   	pop    %rbp
    5ecf:	c3                   	retq   

0000000000005ed0 <safe_sub_func_uint32_t_u_u>:
    5ed0:	f3 0f 1e fa          	endbr64 
    5ed4:	55                   	push   %rbp
    5ed5:	48 89 e5             	mov    %rsp,%rbp
    5ed8:	89 7d fc             	mov    %edi,-0x4(%rbp)
    5edb:	89 75 f8             	mov    %esi,-0x8(%rbp)
    5ede:	8b 45 fc             	mov    -0x4(%rbp),%eax
    5ee1:	2b 45 f8             	sub    -0x8(%rbp),%eax
    5ee4:	5d                   	pop    %rbp
    5ee5:	c3                   	retq   

0000000000005ee6 <safe_mul_func_uint32_t_u_u>:
    5ee6:	f3 0f 1e fa          	endbr64 
    5eea:	55                   	push   %rbp
    5eeb:	48 89 e5             	mov    %rsp,%rbp
    5eee:	89 7d fc             	mov    %edi,-0x4(%rbp)
    5ef1:	89 75 f8             	mov    %esi,-0x8(%rbp)
    5ef4:	8b 45 fc             	mov    -0x4(%rbp),%eax
    5ef7:	0f af 45 f8          	imul   -0x8(%rbp),%eax
    5efb:	5d                   	pop    %rbp
    5efc:	c3                   	retq   

0000000000005efd <safe_mod_func_uint32_t_u_u>:
    5efd:	f3 0f 1e fa          	endbr64 
    5f01:	55                   	push   %rbp
    5f02:	48 89 e5             	mov    %rsp,%rbp
    5f05:	89 7d fc             	mov    %edi,-0x4(%rbp)
    5f08:	89 75 f8             	mov    %esi,-0x8(%rbp)
    5f0b:	83 7d f8 00          	cmpl   $0x0,-0x8(%rbp)
    5f0f:	74 0f                	je     5f20 <safe_mod_func_uint32_t_u_u+0x23>
    5f11:	8b 45 fc             	mov    -0x4(%rbp),%eax
    5f14:	ba 00 00 00 00       	mov    $0x0,%edx
    5f19:	f7 75 f8             	divl   -0x8(%rbp)
    5f1c:	89 d0                	mov    %edx,%eax
    5f1e:	eb 03                	jmp    5f23 <safe_mod_func_uint32_t_u_u+0x26>
    5f20:	8b 45 fc             	mov    -0x4(%rbp),%eax
    5f23:	5d                   	pop    %rbp
    5f24:	c3                   	retq   

0000000000005f25 <safe_div_func_uint32_t_u_u>:
    5f25:	f3 0f 1e fa          	endbr64 
    5f29:	55                   	push   %rbp
    5f2a:	48 89 e5             	mov    %rsp,%rbp
    5f2d:	89 7d fc             	mov    %edi,-0x4(%rbp)
    5f30:	89 75 f8             	mov    %esi,-0x8(%rbp)
    5f33:	83 7d f8 00          	cmpl   $0x0,-0x8(%rbp)
    5f37:	74 0d                	je     5f46 <safe_div_func_uint32_t_u_u+0x21>
    5f39:	8b 45 fc             	mov    -0x4(%rbp),%eax
    5f3c:	ba 00 00 00 00       	mov    $0x0,%edx
    5f41:	f7 75 f8             	divl   -0x8(%rbp)
    5f44:	eb 03                	jmp    5f49 <safe_div_func_uint32_t_u_u+0x24>
    5f46:	8b 45 fc             	mov    -0x4(%rbp),%eax
    5f49:	5d                   	pop    %rbp
    5f4a:	c3                   	retq   

0000000000005f4b <safe_lshift_func_uint32_t_u_s>:
    5f4b:	f3 0f 1e fa          	endbr64 
    5f4f:	55                   	push   %rbp
    5f50:	48 89 e5             	mov    %rsp,%rbp
    5f53:	89 7d fc             	mov    %edi,-0x4(%rbp)
    5f56:	89 75 f8             	mov    %esi,-0x8(%rbp)
    5f59:	83 7d f8 00          	cmpl   $0x0,-0x8(%rbp)
    5f5d:	78 27                	js     5f86 <safe_lshift_func_uint32_t_u_s+0x3b>
    5f5f:	83 7d f8 1f          	cmpl   $0x1f,-0x8(%rbp)
    5f63:	7f 21                	jg     5f86 <safe_lshift_func_uint32_t_u_s+0x3b>
    5f65:	8b 45 f8             	mov    -0x8(%rbp),%eax
    5f68:	ba ff ff ff ff       	mov    $0xffffffff,%edx
    5f6d:	89 c1                	mov    %eax,%ecx
    5f6f:	d3 ea                	shr    %cl,%edx
    5f71:	89 d0                	mov    %edx,%eax
    5f73:	39 45 fc             	cmp    %eax,-0x4(%rbp)
    5f76:	77 0e                	ja     5f86 <safe_lshift_func_uint32_t_u_s+0x3b>
    5f78:	8b 45 f8             	mov    -0x8(%rbp),%eax
    5f7b:	8b 55 fc             	mov    -0x4(%rbp),%edx
    5f7e:	89 c1                	mov    %eax,%ecx
    5f80:	d3 e2                	shl    %cl,%edx
    5f82:	89 d0                	mov    %edx,%eax
    5f84:	eb 03                	jmp    5f89 <safe_lshift_func_uint32_t_u_s+0x3e>
    5f86:	8b 45 fc             	mov    -0x4(%rbp),%eax
    5f89:	5d                   	pop    %rbp
    5f8a:	c3                   	retq   

0000000000005f8b <safe_lshift_func_uint32_t_u_u>:
    5f8b:	f3 0f 1e fa          	endbr64 
    5f8f:	55                   	push   %rbp
    5f90:	48 89 e5             	mov    %rsp,%rbp
    5f93:	89 7d fc             	mov    %edi,-0x4(%rbp)
    5f96:	89 75 f8             	mov    %esi,-0x8(%rbp)
    5f99:	83 7d f8 1f          	cmpl   $0x1f,-0x8(%rbp)
    5f9d:	77 21                	ja     5fc0 <safe_lshift_func_uint32_t_u_u+0x35>
    5f9f:	8b 45 f8             	mov    -0x8(%rbp),%eax
    5fa2:	ba ff ff ff ff       	mov    $0xffffffff,%edx
    5fa7:	89 c1                	mov    %eax,%ecx
    5fa9:	d3 ea                	shr    %cl,%edx
    5fab:	89 d0                	mov    %edx,%eax
    5fad:	39 45 fc             	cmp    %eax,-0x4(%rbp)
    5fb0:	77 0e                	ja     5fc0 <safe_lshift_func_uint32_t_u_u+0x35>
    5fb2:	8b 45 f8             	mov    -0x8(%rbp),%eax
    5fb5:	8b 55 fc             	mov    -0x4(%rbp),%edx
    5fb8:	89 c1                	mov    %eax,%ecx
    5fba:	d3 e2                	shl    %cl,%edx
    5fbc:	89 d0                	mov    %edx,%eax
    5fbe:	eb 03                	jmp    5fc3 <safe_lshift_func_uint32_t_u_u+0x38>
    5fc0:	8b 45 fc             	mov    -0x4(%rbp),%eax
    5fc3:	5d                   	pop    %rbp
    5fc4:	c3                   	retq   

0000000000005fc5 <safe_rshift_func_uint32_t_u_s>:
    5fc5:	f3 0f 1e fa          	endbr64 
    5fc9:	55                   	push   %rbp
    5fca:	48 89 e5             	mov    %rsp,%rbp
    5fcd:	89 7d fc             	mov    %edi,-0x4(%rbp)
    5fd0:	89 75 f8             	mov    %esi,-0x8(%rbp)
    5fd3:	83 7d f8 00          	cmpl   $0x0,-0x8(%rbp)
    5fd7:	78 14                	js     5fed <safe_rshift_func_uint32_t_u_s+0x28>
    5fd9:	83 7d f8 1f          	cmpl   $0x1f,-0x8(%rbp)
    5fdd:	7f 0e                	jg     5fed <safe_rshift_func_uint32_t_u_s+0x28>
    5fdf:	8b 45 f8             	mov    -0x8(%rbp),%eax
    5fe2:	8b 55 fc             	mov    -0x4(%rbp),%edx
    5fe5:	89 c1                	mov    %eax,%ecx
    5fe7:	d3 ea                	shr    %cl,%edx
    5fe9:	89 d0                	mov    %edx,%eax
    5feb:	eb 03                	jmp    5ff0 <safe_rshift_func_uint32_t_u_s+0x2b>
    5fed:	8b 45 fc             	mov    -0x4(%rbp),%eax
    5ff0:	5d                   	pop    %rbp
    5ff1:	c3                   	retq   

0000000000005ff2 <safe_rshift_func_uint32_t_u_u>:
    5ff2:	f3 0f 1e fa          	endbr64 
    5ff6:	55                   	push   %rbp
    5ff7:	48 89 e5             	mov    %rsp,%rbp
    5ffa:	89 7d fc             	mov    %edi,-0x4(%rbp)
    5ffd:	89 75 f8             	mov    %esi,-0x8(%rbp)
    6000:	83 7d f8 1f          	cmpl   $0x1f,-0x8(%rbp)
    6004:	77 0e                	ja     6014 <safe_rshift_func_uint32_t_u_u+0x22>
    6006:	8b 45 f8             	mov    -0x8(%rbp),%eax
    6009:	8b 55 fc             	mov    -0x4(%rbp),%edx
    600c:	89 c1                	mov    %eax,%ecx
    600e:	d3 ea                	shr    %cl,%edx
    6010:	89 d0                	mov    %edx,%eax
    6012:	eb 03                	jmp    6017 <safe_rshift_func_uint32_t_u_u+0x25>
    6014:	8b 45 fc             	mov    -0x4(%rbp),%eax
    6017:	5d                   	pop    %rbp
    6018:	c3                   	retq   

0000000000006019 <safe_unary_minus_func_uint64_t_u>:
    6019:	f3 0f 1e fa          	endbr64 
    601d:	55                   	push   %rbp
    601e:	48 89 e5             	mov    %rsp,%rbp
    6021:	48 89 7d f8          	mov    %rdi,-0x8(%rbp)
    6025:	48 8b 45 f8          	mov    -0x8(%rbp),%rax
    6029:	48 f7 d8             	neg    %rax
    602c:	5d                   	pop    %rbp
    602d:	c3                   	retq   

000000000000602e <safe_add_func_uint64_t_u_u>:
    602e:	f3 0f 1e fa          	endbr64 
    6032:	55                   	push   %rbp
    6033:	48 89 e5             	mov    %rsp,%rbp
    6036:	48 89 7d f8          	mov    %rdi,-0x8(%rbp)
    603a:	48 89 75 f0          	mov    %rsi,-0x10(%rbp)
    603e:	48 8b 55 f8          	mov    -0x8(%rbp),%rdx
    6042:	48 8b 45 f0          	mov    -0x10(%rbp),%rax
    6046:	48 01 d0             	add    %rdx,%rax
    6049:	5d                   	pop    %rbp
    604a:	c3                   	retq   

000000000000604b <safe_sub_func_uint64_t_u_u>:
    604b:	f3 0f 1e fa          	endbr64 
    604f:	55                   	push   %rbp
    6050:	48 89 e5             	mov    %rsp,%rbp
    6053:	48 89 7d f8          	mov    %rdi,-0x8(%rbp)
    6057:	48 89 75 f0          	mov    %rsi,-0x10(%rbp)
    605b:	48 8b 45 f8          	mov    -0x8(%rbp),%rax
    605f:	48 2b 45 f0          	sub    -0x10(%rbp),%rax
    6063:	5d                   	pop    %rbp
    6064:	c3                   	retq   

0000000000006065 <safe_mul_func_uint64_t_u_u>:
    6065:	f3 0f 1e fa          	endbr64 
    6069:	55                   	push   %rbp
    606a:	48 89 e5             	mov    %rsp,%rbp
    606d:	48 89 7d f8          	mov    %rdi,-0x8(%rbp)
    6071:	48 89 75 f0          	mov    %rsi,-0x10(%rbp)
    6075:	48 8b 45 f8          	mov    -0x8(%rbp),%rax
    6079:	48 0f af 45 f0       	imul   -0x10(%rbp),%rax
    607e:	5d                   	pop    %rbp
    607f:	c3                   	retq   

0000000000006080 <safe_mod_func_uint64_t_u_u>:
    6080:	f3 0f 1e fa          	endbr64 
    6084:	55                   	push   %rbp
    6085:	48 89 e5             	mov    %rsp,%rbp
    6088:	48 89 7d f8          	mov    %rdi,-0x8(%rbp)
    608c:	48 89 75 f0          	mov    %rsi,-0x10(%rbp)
    6090:	48 83 7d f0 00       	cmpq   $0x0,-0x10(%rbp)
    6095:	74 12                	je     60a9 <safe_mod_func_uint64_t_u_u+0x29>
    6097:	48 8b 45 f8          	mov    -0x8(%rbp),%rax
    609b:	ba 00 00 00 00       	mov    $0x0,%edx
    60a0:	48 f7 75 f0          	divq   -0x10(%rbp)
    60a4:	48 89 d0             	mov    %rdx,%rax
    60a7:	eb 04                	jmp    60ad <safe_mod_func_uint64_t_u_u+0x2d>
    60a9:	48 8b 45 f8          	mov    -0x8(%rbp),%rax
    60ad:	5d                   	pop    %rbp
    60ae:	c3                   	retq   

00000000000060af <safe_div_func_uint64_t_u_u>:
    60af:	f3 0f 1e fa          	endbr64 
    60b3:	55                   	push   %rbp
    60b4:	48 89 e5             	mov    %rsp,%rbp
    60b7:	48 89 7d f8          	mov    %rdi,-0x8(%rbp)
    60bb:	48 89 75 f0          	mov    %rsi,-0x10(%rbp)
    60bf:	48 83 7d f0 00       	cmpq   $0x0,-0x10(%rbp)
    60c4:	74 0f                	je     60d5 <safe_div_func_uint64_t_u_u+0x26>
    60c6:	48 8b 45 f8          	mov    -0x8(%rbp),%rax
    60ca:	ba 00 00 00 00       	mov    $0x0,%edx
    60cf:	48 f7 75 f0          	divq   -0x10(%rbp)
    60d3:	eb 04                	jmp    60d9 <safe_div_func_uint64_t_u_u+0x2a>
    60d5:	48 8b 45 f8          	mov    -0x8(%rbp),%rax
    60d9:	5d                   	pop    %rbp
    60da:	c3                   	retq   

00000000000060db <safe_lshift_func_uint64_t_u_s>:
    60db:	f3 0f 1e fa          	endbr64 
    60df:	55                   	push   %rbp
    60e0:	48 89 e5             	mov    %rsp,%rbp
    60e3:	48 89 7d f8          	mov    %rdi,-0x8(%rbp)
    60e7:	89 75 f4             	mov    %esi,-0xc(%rbp)
    60ea:	83 7d f4 00          	cmpl   $0x0,-0xc(%rbp)
    60ee:	78 2f                	js     611f <safe_lshift_func_uint64_t_u_s+0x44>
    60f0:	83 7d f4 1f          	cmpl   $0x1f,-0xc(%rbp)
    60f4:	7f 29                	jg     611f <safe_lshift_func_uint64_t_u_s+0x44>
    60f6:	8b 45 f4             	mov    -0xc(%rbp),%eax
    60f9:	48 c7 c2 ff ff ff ff 	mov    $0xffffffffffffffff,%rdx
    6100:	89 c1                	mov    %eax,%ecx
    6102:	48 d3 ea             	shr    %cl,%rdx
    6105:	48 89 d0             	mov    %rdx,%rax
    6108:	48 39 45 f8          	cmp    %rax,-0x8(%rbp)
    610c:	77 11                	ja     611f <safe_lshift_func_uint64_t_u_s+0x44>
    610e:	8b 45 f4             	mov    -0xc(%rbp),%eax
    6111:	48 8b 55 f8          	mov    -0x8(%rbp),%rdx
    6115:	89 c1                	mov    %eax,%ecx
    6117:	48 d3 e2             	shl    %cl,%rdx
    611a:	48 89 d0             	mov    %rdx,%rax
    611d:	eb 04                	jmp    6123 <safe_lshift_func_uint64_t_u_s+0x48>
    611f:	48 8b 45 f8          	mov    -0x8(%rbp),%rax
    6123:	5d                   	pop    %rbp
    6124:	c3                   	retq   

0000000000006125 <safe_lshift_func_uint64_t_u_u>:
    6125:	f3 0f 1e fa          	endbr64 
    6129:	55                   	push   %rbp
    612a:	48 89 e5             	mov    %rsp,%rbp
    612d:	48 89 7d f8          	mov    %rdi,-0x8(%rbp)
    6131:	89 75 f4             	mov    %esi,-0xc(%rbp)
    6134:	83 7d f4 1f          	cmpl   $0x1f,-0xc(%rbp)
    6138:	77 29                	ja     6163 <safe_lshift_func_uint64_t_u_u+0x3e>
    613a:	8b 45 f4             	mov    -0xc(%rbp),%eax
    613d:	48 c7 c2 ff ff ff ff 	mov    $0xffffffffffffffff,%rdx
    6144:	89 c1                	mov    %eax,%ecx
    6146:	48 d3 ea             	shr    %cl,%rdx
    6149:	48 89 d0             	mov    %rdx,%rax
    614c:	48 39 45 f8          	cmp    %rax,-0x8(%rbp)
    6150:	77 11                	ja     6163 <safe_lshift_func_uint64_t_u_u+0x3e>
    6152:	8b 45 f4             	mov    -0xc(%rbp),%eax
    6155:	48 8b 55 f8          	mov    -0x8(%rbp),%rdx
    6159:	89 c1                	mov    %eax,%ecx
    615b:	48 d3 e2             	shl    %cl,%rdx
    615e:	48 89 d0             	mov    %rdx,%rax
    6161:	eb 04                	jmp    6167 <safe_lshift_func_uint64_t_u_u+0x42>
    6163:	48 8b 45 f8          	mov    -0x8(%rbp),%rax
    6167:	5d                   	pop    %rbp
    6168:	c3                   	retq   

0000000000006169 <safe_rshift_func_uint64_t_u_s>:
    6169:	f3 0f 1e fa          	endbr64 
    616d:	55                   	push   %rbp
    616e:	48 89 e5             	mov    %rsp,%rbp
    6171:	48 89 7d f8          	mov    %rdi,-0x8(%rbp)
    6175:	89 75 f4             	mov    %esi,-0xc(%rbp)
    6178:	83 7d f4 00          	cmpl   $0x0,-0xc(%rbp)
    617c:	78 17                	js     6195 <safe_rshift_func_uint64_t_u_s+0x2c>
    617e:	83 7d f4 1f          	cmpl   $0x1f,-0xc(%rbp)
    6182:	7f 11                	jg     6195 <safe_rshift_func_uint64_t_u_s+0x2c>
    6184:	8b 45 f4             	mov    -0xc(%rbp),%eax
    6187:	48 8b 55 f8          	mov    -0x8(%rbp),%rdx
    618b:	89 c1                	mov    %eax,%ecx
    618d:	48 d3 ea             	shr    %cl,%rdx
    6190:	48 89 d0             	mov    %rdx,%rax
    6193:	eb 04                	jmp    6199 <safe_rshift_func_uint64_t_u_s+0x30>
    6195:	48 8b 45 f8          	mov    -0x8(%rbp),%rax
    6199:	5d                   	pop    %rbp
    619a:	c3                   	retq   

000000000000619b <safe_rshift_func_uint64_t_u_u>:
    619b:	f3 0f 1e fa          	endbr64 
    619f:	55                   	push   %rbp
    61a0:	48 89 e5             	mov    %rsp,%rbp
    61a3:	48 89 7d f8          	mov    %rdi,-0x8(%rbp)
    61a7:	89 75 f4             	mov    %esi,-0xc(%rbp)
    61aa:	83 7d f4 1f          	cmpl   $0x1f,-0xc(%rbp)
    61ae:	77 11                	ja     61c1 <safe_rshift_func_uint64_t_u_u+0x26>
    61b0:	8b 45 f4             	mov    -0xc(%rbp),%eax
    61b3:	48 8b 55 f8          	mov    -0x8(%rbp),%rdx
    61b7:	89 c1                	mov    %eax,%ecx
    61b9:	48 d3 ea             	shr    %cl,%rdx
    61bc:	48 89 d0             	mov    %rdx,%rax
    61bf:	eb 04                	jmp    61c5 <safe_rshift_func_uint64_t_u_u+0x2a>
    61c1:	48 8b 45 f8          	mov    -0x8(%rbp),%rax
    61c5:	5d                   	pop    %rbp
    61c6:	c3                   	retq   

00000000000061c7 <safe_add_func_float_f_f>:
    61c7:	f3 0f 1e fa          	endbr64 
    61cb:	55                   	push   %rbp
    61cc:	48 89 e5             	mov    %rsp,%rbp
    61cf:	f3 0f 11 45 fc       	movss  %xmm0,-0x4(%rbp)
    61d4:	f3 0f 11 4d f8       	movss  %xmm1,-0x8(%rbp)
    61d9:	f3 0f 10 4d fc       	movss  -0x4(%rbp),%xmm1
    61de:	f3 0f 10 05 92 d5 00 	movss  0xd592(%rip),%xmm0        # 13778 <g_1231+0x1720>
    61e5:	00 
    61e6:	f3 0f 59 c8          	mulss  %xmm0,%xmm1
    61ea:	f3 0f 10 55 f8       	movss  -0x8(%rbp),%xmm2
    61ef:	f3 0f 10 05 81 d5 00 	movss  0xd581(%rip),%xmm0        # 13778 <g_1231+0x1720>
    61f6:	00 
    61f7:	f3 0f 59 c2          	mulss  %xmm2,%xmm0
    61fb:	f3 0f 58 c1          	addss  %xmm1,%xmm0
    61ff:	f3 0f 10 0d 79 d5 00 	movss  0xd579(%rip),%xmm1        # 13780 <g_1231+0x1728>
    6206:	00 
    6207:	0f 54 c1             	andps  %xmm1,%xmm0
    620a:	0f 2f 05 7f d5 00 00 	comiss 0xd57f(%rip),%xmm0        # 13790 <g_1231+0x1738>
    6211:	76 07                	jbe    621a <safe_add_func_float_f_f+0x53>
    6213:	f3 0f 10 45 fc       	movss  -0x4(%rbp),%xmm0
    6218:	eb 0a                	jmp    6224 <safe_add_func_float_f_f+0x5d>
    621a:	f3 0f 10 45 fc       	movss  -0x4(%rbp),%xmm0
    621f:	f3 0f 58 45 f8       	addss  -0x8(%rbp),%xmm0
    6224:	5d                   	pop    %rbp
    6225:	c3                   	retq   

0000000000006226 <safe_sub_func_float_f_f>:
    6226:	f3 0f 1e fa          	endbr64 
    622a:	55                   	push   %rbp
    622b:	48 89 e5             	mov    %rsp,%rbp
    622e:	f3 0f 11 45 fc       	movss  %xmm0,-0x4(%rbp)
    6233:	f3 0f 11 4d f8       	movss  %xmm1,-0x8(%rbp)
    6238:	f3 0f 10 4d fc       	movss  -0x4(%rbp),%xmm1
    623d:	f3 0f 10 05 33 d5 00 	movss  0xd533(%rip),%xmm0        # 13778 <g_1231+0x1720>
    6244:	00 
    6245:	f3 0f 59 c1          	mulss  %xmm1,%xmm0
    6249:	f3 0f 10 55 f8       	movss  -0x8(%rbp),%xmm2
    624e:	f3 0f 10 0d 22 d5 00 	movss  0xd522(%rip),%xmm1        # 13778 <g_1231+0x1720>
    6255:	00 
    6256:	f3 0f 59 ca          	mulss  %xmm2,%xmm1
    625a:	f3 0f 5c c1          	subss  %xmm1,%xmm0
    625e:	f3 0f 10 0d 1a d5 00 	movss  0xd51a(%rip),%xmm1        # 13780 <g_1231+0x1728>
    6265:	00 
    6266:	0f 54 c1             	andps  %xmm1,%xmm0
    6269:	0f 2f 05 20 d5 00 00 	comiss 0xd520(%rip),%xmm0        # 13790 <g_1231+0x1738>
    6270:	76 07                	jbe    6279 <safe_sub_func_float_f_f+0x53>
    6272:	f3 0f 10 45 fc       	movss  -0x4(%rbp),%xmm0
    6277:	eb 0a                	jmp    6283 <safe_sub_func_float_f_f+0x5d>
    6279:	f3 0f 10 45 fc       	movss  -0x4(%rbp),%xmm0
    627e:	f3 0f 5c 45 f8       	subss  -0x8(%rbp),%xmm0
    6283:	5d                   	pop    %rbp
    6284:	c3                   	retq   

0000000000006285 <safe_mul_func_float_f_f>:
    6285:	f3 0f 1e fa          	endbr64 
    6289:	55                   	push   %rbp
    628a:	48 89 e5             	mov    %rsp,%rbp
    628d:	f3 0f 11 45 fc       	movss  %xmm0,-0x4(%rbp)
    6292:	f3 0f 11 4d f8       	movss  %xmm1,-0x8(%rbp)
    6297:	f3 0f 10 4d fc       	movss  -0x4(%rbp),%xmm1
    629c:	f3 0f 10 05 f0 d4 00 	movss  0xd4f0(%rip),%xmm0        # 13794 <g_1231+0x173c>
    62a3:	00 
    62a4:	f3 0f 59 c8          	mulss  %xmm0,%xmm1
    62a8:	f3 0f 10 55 f8       	movss  -0x8(%rbp),%xmm2
    62ad:	f3 0f 10 05 e3 d4 00 	movss  0xd4e3(%rip),%xmm0        # 13798 <g_1231+0x1740>
    62b4:	00 
    62b5:	f3 0f 59 c2          	mulss  %xmm2,%xmm0
    62b9:	f3 0f 59 c1          	mulss  %xmm1,%xmm0
    62bd:	f3 0f 10 0d bb d4 00 	movss  0xd4bb(%rip),%xmm1        # 13780 <g_1231+0x1728>
    62c4:	00 
    62c5:	0f 54 c1             	andps  %xmm1,%xmm0
    62c8:	0f 2f 05 cd d4 00 00 	comiss 0xd4cd(%rip),%xmm0        # 1379c <g_1231+0x1744>
    62cf:	76 07                	jbe    62d8 <safe_mul_func_float_f_f+0x53>
    62d1:	f3 0f 10 45 fc       	movss  -0x4(%rbp),%xmm0
    62d6:	eb 0a                	jmp    62e2 <safe_mul_func_float_f_f+0x5d>
    62d8:	f3 0f 10 45 fc       	movss  -0x4(%rbp),%xmm0
    62dd:	f3 0f 59 45 f8       	mulss  -0x8(%rbp),%xmm0
    62e2:	5d                   	pop    %rbp
    62e3:	c3                   	retq   

00000000000062e4 <safe_div_func_float_f_f>:
    62e4:	f3 0f 1e fa          	endbr64 
    62e8:	55                   	push   %rbp
    62e9:	48 89 e5             	mov    %rsp,%rbp
    62ec:	f3 0f 11 45 fc       	movss  %xmm0,-0x4(%rbp)
    62f1:	f3 0f 11 4d f8       	movss  %xmm1,-0x8(%rbp)
    62f6:	f3 0f 10 45 f8       	movss  -0x8(%rbp),%xmm0
    62fb:	f3 0f 10 0d 7d d4 00 	movss  0xd47d(%rip),%xmm1        # 13780 <g_1231+0x1728>
    6302:	00 
    6303:	0f 54 c8             	andps  %xmm0,%xmm1
    6306:	f3 0f 10 05 92 d4 00 	movss  0xd492(%rip),%xmm0        # 137a0 <g_1231+0x1748>
    630d:	00 
    630e:	0f 2f c1             	comiss %xmm1,%xmm0
    6311:	0f 97 c0             	seta   %al
    6314:	83 f0 01             	xor    $0x1,%eax
    6317:	84 c0                	test   %al,%al
    6319:	75 56                	jne    6371 <safe_div_func_float_f_f+0x8d>
    631b:	66 0f ef c0          	pxor   %xmm0,%xmm0
    631f:	0f 2e 45 f8          	ucomiss -0x8(%rbp),%xmm0
    6323:	7a 0a                	jp     632f <safe_div_func_float_f_f+0x4b>
    6325:	66 0f ef c0          	pxor   %xmm0,%xmm0
    6329:	0f 2e 45 f8          	ucomiss -0x8(%rbp),%xmm0
    632d:	74 4e                	je     637d <safe_div_func_float_f_f+0x99>
    632f:	f3 0f 10 4d fc       	movss  -0x4(%rbp),%xmm1
    6334:	f3 0f 10 05 68 d4 00 	movss  0xd468(%rip),%xmm0        # 137a4 <g_1231+0x174c>
    633b:	00 
    633c:	f3 0f 59 c1          	mulss  %xmm1,%xmm0
    6340:	f3 0f 10 55 f8       	movss  -0x8(%rbp),%xmm2
    6345:	f3 0f 10 0d 5b d4 00 	movss  0xd45b(%rip),%xmm1        # 137a8 <g_1231+0x1750>
    634c:	00 
    634d:	f3 0f 59 ca          	mulss  %xmm2,%xmm1
    6351:	f3 0f 5e c1          	divss  %xmm1,%xmm0
    6355:	f3 0f 10 0d 23 d4 00 	movss  0xd423(%rip),%xmm1        # 13780 <g_1231+0x1728>
    635c:	00 
    635d:	0f 54 c1             	andps  %xmm1,%xmm0
    6360:	0f 2f 05 45 d4 00 00 	comiss 0xd445(%rip),%xmm0        # 137ac <g_1231+0x1754>
    6367:	0f 97 c0             	seta   %al
    636a:	83 f0 01             	xor    $0x1,%eax
    636d:	84 c0                	test   %al,%al
    636f:	74 0c                	je     637d <safe_div_func_float_f_f+0x99>
    6371:	f3 0f 10 45 fc       	movss  -0x4(%rbp),%xmm0
    6376:	f3 0f 5e 45 f8       	divss  -0x8(%rbp),%xmm0
    637b:	eb 05                	jmp    6382 <safe_div_func_float_f_f+0x9e>
    637d:	f3 0f 10 45 fc       	movss  -0x4(%rbp),%xmm0
    6382:	5d                   	pop    %rbp
    6383:	c3                   	retq   

0000000000006384 <safe_add_func_double_f_f>:
    6384:	f3 0f 1e fa          	endbr64 
    6388:	55                   	push   %rbp
    6389:	48 89 e5             	mov    %rsp,%rbp
    638c:	f2 0f 11 45 f8       	movsd  %xmm0,-0x8(%rbp)
    6391:	f2 0f 11 4d f0       	movsd  %xmm1,-0x10(%rbp)
    6396:	f2 0f 10 4d f8       	movsd  -0x8(%rbp),%xmm1
    639b:	f2 0f 10 05 0d d4 00 	movsd  0xd40d(%rip),%xmm0        # 137b0 <g_1231+0x1758>
    63a2:	00 
    63a3:	f2 0f 59 c8          	mulsd  %xmm0,%xmm1
    63a7:	f2 0f 10 55 f0       	movsd  -0x10(%rbp),%xmm2
    63ac:	f2 0f 10 05 fc d3 00 	movsd  0xd3fc(%rip),%xmm0        # 137b0 <g_1231+0x1758>
    63b3:	00 
    63b4:	f2 0f 59 c2          	mulsd  %xmm2,%xmm0
    63b8:	f2 0f 58 c1          	addsd  %xmm1,%xmm0
    63bc:	f3 0f 7e 0d fc d3 00 	movq   0xd3fc(%rip),%xmm1        # 137c0 <g_1231+0x1768>
    63c3:	00 
    63c4:	66 0f 54 c1          	andpd  %xmm1,%xmm0
    63c8:	66 0f 2f 05 00 d4 00 	comisd 0xd400(%rip),%xmm0        # 137d0 <g_1231+0x1778>
    63cf:	00 
    63d0:	76 07                	jbe    63d9 <safe_add_func_double_f_f+0x55>
    63d2:	f2 0f 10 45 f8       	movsd  -0x8(%rbp),%xmm0
    63d7:	eb 0a                	jmp    63e3 <safe_add_func_double_f_f+0x5f>
    63d9:	f2 0f 10 45 f8       	movsd  -0x8(%rbp),%xmm0
    63de:	f2 0f 58 45 f0       	addsd  -0x10(%rbp),%xmm0
    63e3:	5d                   	pop    %rbp
    63e4:	c3                   	retq   

00000000000063e5 <safe_sub_func_double_f_f>:
    63e5:	f3 0f 1e fa          	endbr64 
    63e9:	55                   	push   %rbp
    63ea:	48 89 e5             	mov    %rsp,%rbp
    63ed:	f2 0f 11 45 f8       	movsd  %xmm0,-0x8(%rbp)
    63f2:	f2 0f 11 4d f0       	movsd  %xmm1,-0x10(%rbp)
    63f7:	f2 0f 10 4d f8       	movsd  -0x8(%rbp),%xmm1
    63fc:	f2 0f 10 05 ac d3 00 	movsd  0xd3ac(%rip),%xmm0        # 137b0 <g_1231+0x1758>
    6403:	00 
    6404:	f2 0f 59 c1          	mulsd  %xmm1,%xmm0
    6408:	f2 0f 10 55 f0       	movsd  -0x10(%rbp),%xmm2
    640d:	f2 0f 10 0d 9b d3 00 	movsd  0xd39b(%rip),%xmm1        # 137b0 <g_1231+0x1758>
    6414:	00 
    6415:	f2 0f 59 ca          	mulsd  %xmm2,%xmm1
    6419:	f2 0f 5c c1          	subsd  %xmm1,%xmm0
    641d:	f3 0f 7e 0d 9b d3 00 	movq   0xd39b(%rip),%xmm1        # 137c0 <g_1231+0x1768>
    6424:	00 
    6425:	66 0f 54 c1          	andpd  %xmm1,%xmm0
    6429:	66 0f 2f 05 9f d3 00 	comisd 0xd39f(%rip),%xmm0        # 137d0 <g_1231+0x1778>
    6430:	00 
    6431:	76 07                	jbe    643a <safe_sub_func_double_f_f+0x55>
    6433:	f2 0f 10 45 f8       	movsd  -0x8(%rbp),%xmm0
    6438:	eb 0a                	jmp    6444 <safe_sub_func_double_f_f+0x5f>
    643a:	f2 0f 10 45 f8       	movsd  -0x8(%rbp),%xmm0
    643f:	f2 0f 5c 45 f0       	subsd  -0x10(%rbp),%xmm0
    6444:	5d                   	pop    %rbp
    6445:	c3                   	retq   

0000000000006446 <safe_mul_func_double_f_f>:
    6446:	f3 0f 1e fa          	endbr64 
    644a:	55                   	push   %rbp
    644b:	48 89 e5             	mov    %rsp,%rbp
    644e:	f2 0f 11 45 f8       	movsd  %xmm0,-0x8(%rbp)
    6453:	f2 0f 11 4d f0       	movsd  %xmm1,-0x10(%rbp)
    6458:	f2 0f 10 4d f8       	movsd  -0x8(%rbp),%xmm1
    645d:	f2 0f 10 05 73 d3 00 	movsd  0xd373(%rip),%xmm0        # 137d8 <g_1231+0x1780>
    6464:	00 
    6465:	f2 0f 59 c8          	mulsd  %xmm0,%xmm1
    6469:	f2 0f 10 55 f0       	movsd  -0x10(%rbp),%xmm2
    646e:	f2 0f 10 05 6a d3 00 	movsd  0xd36a(%rip),%xmm0        # 137e0 <g_1231+0x1788>
    6475:	00 
    6476:	f2 0f 59 c2          	mulsd  %xmm2,%xmm0
    647a:	f2 0f 59 c1          	mulsd  %xmm1,%xmm0
    647e:	f3 0f 7e 0d 3a d3 00 	movq   0xd33a(%rip),%xmm1        # 137c0 <g_1231+0x1768>
    6485:	00 
    6486:	66 0f 54 c1          	andpd  %xmm1,%xmm0
    648a:	66 0f 2f 05 56 d3 00 	comisd 0xd356(%rip),%xmm0        # 137e8 <g_1231+0x1790>
    6491:	00 
    6492:	76 07                	jbe    649b <safe_mul_func_double_f_f+0x55>
    6494:	f2 0f 10 45 f8       	movsd  -0x8(%rbp),%xmm0
    6499:	eb 0a                	jmp    64a5 <safe_mul_func_double_f_f+0x5f>
    649b:	f2 0f 10 45 f8       	movsd  -0x8(%rbp),%xmm0
    64a0:	f2 0f 59 45 f0       	mulsd  -0x10(%rbp),%xmm0
    64a5:	5d                   	pop    %rbp
    64a6:	c3                   	retq   

00000000000064a7 <safe_div_func_double_f_f>:
    64a7:	f3 0f 1e fa          	endbr64 
    64ab:	55                   	push   %rbp
    64ac:	48 89 e5             	mov    %rsp,%rbp
    64af:	f2 0f 11 45 f8       	movsd  %xmm0,-0x8(%rbp)
    64b4:	f2 0f 11 4d f0       	movsd  %xmm1,-0x10(%rbp)
    64b9:	f2 0f 10 45 f0       	movsd  -0x10(%rbp),%xmm0
    64be:	f3 0f 7e 0d fa d2 00 	movq   0xd2fa(%rip),%xmm1        # 137c0 <g_1231+0x1768>
    64c5:	00 
    64c6:	66 0f 54 c8          	andpd  %xmm0,%xmm1
    64ca:	f2 0f 10 05 1e d3 00 	movsd  0xd31e(%rip),%xmm0        # 137f0 <g_1231+0x1798>
    64d1:	00 
    64d2:	66 0f 2f c1          	comisd %xmm1,%xmm0
    64d6:	0f 97 c0             	seta   %al
    64d9:	83 f0 01             	xor    $0x1,%eax
    64dc:	84 c0                	test   %al,%al
    64de:	75 5a                	jne    653a <safe_div_func_double_f_f+0x93>
    64e0:	66 0f ef c0          	pxor   %xmm0,%xmm0
    64e4:	66 0f 2e 45 f0       	ucomisd -0x10(%rbp),%xmm0
    64e9:	7a 0b                	jp     64f6 <safe_div_func_double_f_f+0x4f>
    64eb:	66 0f ef c0          	pxor   %xmm0,%xmm0
    64ef:	66 0f 2e 45 f0       	ucomisd -0x10(%rbp),%xmm0
    64f4:	74 50                	je     6546 <safe_div_func_double_f_f+0x9f>
    64f6:	f2 0f 10 4d f8       	movsd  -0x8(%rbp),%xmm1
    64fb:	f2 0f 10 05 f5 d2 00 	movsd  0xd2f5(%rip),%xmm0        # 137f8 <g_1231+0x17a0>
    6502:	00 
    6503:	f2 0f 59 c1          	mulsd  %xmm1,%xmm0
    6507:	f2 0f 10 55 f0       	movsd  -0x10(%rbp),%xmm2
    650c:	f2 0f 10 0d ec d2 00 	movsd  0xd2ec(%rip),%xmm1        # 13800 <g_1231+0x17a8>
    6513:	00 
    6514:	f2 0f 59 ca          	mulsd  %xmm2,%xmm1
    6518:	f2 0f 5e c1          	divsd  %xmm1,%xmm0
    651c:	f3 0f 7e 0d 9c d2 00 	movq   0xd29c(%rip),%xmm1        # 137c0 <g_1231+0x1768>
    6523:	00 
    6524:	66 0f 54 c1          	andpd  %xmm1,%xmm0
    6528:	66 0f 2f 05 d8 d2 00 	comisd 0xd2d8(%rip),%xmm0        # 13808 <g_1231+0x17b0>
    652f:	00 
    6530:	0f 97 c0             	seta   %al
    6533:	83 f0 01             	xor    $0x1,%eax
    6536:	84 c0                	test   %al,%al
    6538:	74 0c                	je     6546 <safe_div_func_double_f_f+0x9f>
    653a:	f2 0f 10 45 f8       	movsd  -0x8(%rbp),%xmm0
    653f:	f2 0f 5e 45 f0       	divsd  -0x10(%rbp),%xmm0
    6544:	eb 05                	jmp    654b <safe_div_func_double_f_f+0xa4>
    6546:	f2 0f 10 45 f8       	movsd  -0x8(%rbp),%xmm0
    654b:	5d                   	pop    %rbp
    654c:	c3                   	retq   

000000000000654d <safe_convert_func_float_to_int32_t>:
    654d:	f3 0f 1e fa          	endbr64 
    6551:	55                   	push   %rbp
    6552:	48 89 e5             	mov    %rsp,%rbp
    6555:	f3 0f 11 45 fc       	movss  %xmm0,-0x4(%rbp)
    655a:	f3 0f 10 05 ae d2 00 	movss  0xd2ae(%rip),%xmm0        # 13810 <g_1231+0x17b8>
    6561:	00 
    6562:	0f 2f 45 fc          	comiss -0x4(%rbp),%xmm0
    6566:	0f 93 c0             	setae  %al
    6569:	83 f0 01             	xor    $0x1,%eax
    656c:	84 c0                	test   %al,%al
    656e:	74 21                	je     6591 <safe_convert_func_float_to_int32_t+0x44>
    6570:	f3 0f 10 45 fc       	movss  -0x4(%rbp),%xmm0
    6575:	0f 2f 05 98 d2 00 00 	comiss 0xd298(%rip),%xmm0        # 13814 <g_1231+0x17bc>
    657c:	0f 93 c0             	setae  %al
    657f:	83 f0 01             	xor    $0x1,%eax
    6582:	84 c0                	test   %al,%al
    6584:	74 0b                	je     6591 <safe_convert_func_float_to_int32_t+0x44>
    6586:	f3 0f 10 45 fc       	movss  -0x4(%rbp),%xmm0
    658b:	f3 0f 2c c0          	cvttss2si %xmm0,%eax
    658f:	eb 05                	jmp    6596 <safe_convert_func_float_to_int32_t+0x49>
    6591:	b8 ff ff ff 7f       	mov    $0x7fffffff,%eax
    6596:	5d                   	pop    %rbp
    6597:	c3                   	retq   

0000000000006598 <crc32_gentab>:
    6598:	f3 0f 1e fa          	endbr64 
    659c:	55                   	push   %rbp
    659d:	48 89 e5             	mov    %rsp,%rbp
    65a0:	c7 45 fc 20 83 b8 ed 	movl   $0xedb88320,-0x4(%rbp)
    65a7:	c7 45 f4 00 00 00 00 	movl   $0x0,-0xc(%rbp)
    65ae:	eb 51                	jmp    6601 <crc32_gentab+0x69>
    65b0:	8b 45 f4             	mov    -0xc(%rbp),%eax
    65b3:	89 45 f0             	mov    %eax,-0x10(%rbp)
    65b6:	c7 45 f8 08 00 00 00 	movl   $0x8,-0x8(%rbp)
    65bd:	eb 1e                	jmp    65dd <crc32_gentab+0x45>
    65bf:	8b 45 f0             	mov    -0x10(%rbp),%eax
    65c2:	83 e0 01             	and    $0x1,%eax
    65c5:	85 c0                	test   %eax,%eax
    65c7:	74 0d                	je     65d6 <crc32_gentab+0x3e>
    65c9:	8b 45 f0             	mov    -0x10(%rbp),%eax
    65cc:	d1 e8                	shr    %eax
    65ce:	33 45 fc             	xor    -0x4(%rbp),%eax
    65d1:	89 45 f0             	mov    %eax,-0x10(%rbp)
    65d4:	eb 03                	jmp    65d9 <crc32_gentab+0x41>
    65d6:	d1 6d f0             	shrl   -0x10(%rbp)
    65d9:	83 6d f8 01          	subl   $0x1,-0x8(%rbp)
    65dd:	83 7d f8 00          	cmpl   $0x0,-0x8(%rbp)
    65e1:	7f dc                	jg     65bf <crc32_gentab+0x27>
    65e3:	8b 45 f4             	mov    -0xc(%rbp),%eax
    65e6:	48 98                	cltq   
    65e8:	48 8d 0c 85 00 00 00 	lea    0x0(,%rax,4),%rcx
    65ef:	00 
    65f0:	48 8d 15 a9 3d 01 00 	lea    0x13da9(%rip),%rdx        # 1a3a0 <crc32_tab>
    65f7:	8b 45 f0             	mov    -0x10(%rbp),%eax
    65fa:	89 04 11             	mov    %eax,(%rcx,%rdx,1)
    65fd:	83 45 f4 01          	addl   $0x1,-0xc(%rbp)
    6601:	81 7d f4 ff 00 00 00 	cmpl   $0xff,-0xc(%rbp)
    6608:	7e a6                	jle    65b0 <crc32_gentab+0x18>
    660a:	90                   	nop
    660b:	90                   	nop
    660c:	5d                   	pop    %rbp
    660d:	c3                   	retq   

000000000000660e <crc32_byte>:
    660e:	f3 0f 1e fa          	endbr64 
    6612:	55                   	push   %rbp
    6613:	48 89 e5             	mov    %rsp,%rbp
    6616:	89 f8                	mov    %edi,%eax
    6618:	88 45 fc             	mov    %al,-0x4(%rbp)
    661b:	8b 05 ff f9 00 00    	mov    0xf9ff(%rip),%eax        # 16020 <crc32_context>
    6621:	c1 e8 08             	shr    $0x8,%eax
    6624:	89 c1                	mov    %eax,%ecx
    6626:	0f b6 55 fc          	movzbl -0x4(%rbp),%edx
    662a:	8b 05 f0 f9 00 00    	mov    0xf9f0(%rip),%eax        # 16020 <crc32_context>
    6630:	31 d0                	xor    %edx,%eax
    6632:	0f b6 c0             	movzbl %al,%eax
    6635:	89 c0                	mov    %eax,%eax
    6637:	48 8d 14 85 00 00 00 	lea    0x0(,%rax,4),%rdx
    663e:	00 
    663f:	48 8d 05 5a 3d 01 00 	lea    0x13d5a(%rip),%rax        # 1a3a0 <crc32_tab>
    6646:	8b 04 02             	mov    (%rdx,%rax,1),%eax
    6649:	31 c8                	xor    %ecx,%eax
    664b:	89 05 cf f9 00 00    	mov    %eax,0xf9cf(%rip)        # 16020 <crc32_context>
    6651:	90                   	nop
    6652:	5d                   	pop    %rbp
    6653:	c3                   	retq   

0000000000006654 <crc32_8bytes>:
    6654:	f3 0f 1e fa          	endbr64 
    6658:	55                   	push   %rbp
    6659:	48 89 e5             	mov    %rsp,%rbp
    665c:	48 83 ec 08          	sub    $0x8,%rsp
    6660:	48 89 7d f8          	mov    %rdi,-0x8(%rbp)
    6664:	48 8b 45 f8          	mov    -0x8(%rbp),%rax
    6668:	0f b6 c0             	movzbl %al,%eax
    666b:	89 c7                	mov    %eax,%edi
    666d:	e8 9c ff ff ff       	callq  660e <crc32_byte>
    6672:	48 8b 45 f8          	mov    -0x8(%rbp),%rax
    6676:	48 c1 e8 08          	shr    $0x8,%rax
    667a:	0f b6 c0             	movzbl %al,%eax
    667d:	89 c7                	mov    %eax,%edi
    667f:	e8 8a ff ff ff       	callq  660e <crc32_byte>
    6684:	48 8b 45 f8          	mov    -0x8(%rbp),%rax
    6688:	48 c1 e8 10          	shr    $0x10,%rax
    668c:	0f b6 c0             	movzbl %al,%eax
    668f:	89 c7                	mov    %eax,%edi
    6691:	e8 78 ff ff ff       	callq  660e <crc32_byte>
    6696:	48 8b 45 f8          	mov    -0x8(%rbp),%rax
    669a:	48 c1 e8 18          	shr    $0x18,%rax
    669e:	0f b6 c0             	movzbl %al,%eax
    66a1:	89 c7                	mov    %eax,%edi
    66a3:	e8 66 ff ff ff       	callq  660e <crc32_byte>
    66a8:	48 8b 45 f8          	mov    -0x8(%rbp),%rax
    66ac:	48 c1 e8 20          	shr    $0x20,%rax
    66b0:	0f b6 c0             	movzbl %al,%eax
    66b3:	89 c7                	mov    %eax,%edi
    66b5:	e8 54 ff ff ff       	callq  660e <crc32_byte>
    66ba:	48 8b 45 f8          	mov    -0x8(%rbp),%rax
    66be:	48 c1 e8 28          	shr    $0x28,%rax
    66c2:	0f b6 c0             	movzbl %al,%eax
    66c5:	89 c7                	mov    %eax,%edi
    66c7:	e8 42 ff ff ff       	callq  660e <crc32_byte>
    66cc:	48 8b 45 f8          	mov    -0x8(%rbp),%rax
    66d0:	48 c1 e8 30          	shr    $0x30,%rax
    66d4:	0f b6 c0             	movzbl %al,%eax
    66d7:	89 c7                	mov    %eax,%edi
    66d9:	e8 30 ff ff ff       	callq  660e <crc32_byte>
    66de:	48 8b 45 f8          	mov    -0x8(%rbp),%rax
    66e2:	48 c1 e8 38          	shr    $0x38,%rax
    66e6:	0f b6 c0             	movzbl %al,%eax
    66e9:	89 c7                	mov    %eax,%edi
    66eb:	e8 1e ff ff ff       	callq  660e <crc32_byte>
    66f0:	90                   	nop
    66f1:	c9                   	leaveq 
    66f2:	c3                   	retq   

00000000000066f3 <transparent_crc>:
    66f3:	f3 0f 1e fa          	endbr64 
    66f7:	55                   	push   %rbp
    66f8:	48 89 e5             	mov    %rsp,%rbp
    66fb:	48 83 ec 20          	sub    $0x20,%rsp
    66ff:	48 89 7d f8          	mov    %rdi,-0x8(%rbp)
    6703:	48 89 75 f0          	mov    %rsi,-0x10(%rbp)
    6707:	89 55 ec             	mov    %edx,-0x14(%rbp)
    670a:	48 8b 45 f8          	mov    -0x8(%rbp),%rax
    670e:	48 89 c7             	mov    %rax,%rdi
    6711:	e8 3e ff ff ff       	callq  6654 <crc32_8bytes>
    6716:	83 7d ec 00          	cmpl   $0x0,-0x14(%rbp)
    671a:	74 22                	je     673e <transparent_crc+0x4b>
    671c:	8b 05 fe f8 00 00    	mov    0xf8fe(%rip),%eax        # 16020 <crc32_context>
    6722:	f7 d0                	not    %eax
    6724:	89 c2                	mov    %eax,%edx
    6726:	48 8b 45 f0          	mov    -0x10(%rbp),%rax
    672a:	48 89 c6             	mov    %rax,%rsi
    672d:	48 8d 3d fc b8 00 00 	lea    0xb8fc(%rip),%rdi        # 12030 <_IO_stdin_used+0x30>
    6734:	b8 00 00 00 00       	mov    $0x0,%eax
    6739:	e8 42 e9 ff ff       	callq  5080 <printf@plt>
    673e:	90                   	nop
    673f:	c9                   	leaveq 
    6740:	c3                   	retq   

0000000000006741 <transparent_crc_bytes>:
    6741:	f3 0f 1e fa          	endbr64 
    6745:	55                   	push   %rbp
    6746:	48 89 e5             	mov    %rsp,%rbp
    6749:	48 83 ec 30          	sub    $0x30,%rsp
    674d:	48 89 7d e8          	mov    %rdi,-0x18(%rbp)
    6751:	89 75 e4             	mov    %esi,-0x1c(%rbp)
    6754:	48 89 55 d8          	mov    %rdx,-0x28(%rbp)
    6758:	89 4d e0             	mov    %ecx,-0x20(%rbp)
    675b:	c7 45 fc 00 00 00 00 	movl   $0x0,-0x4(%rbp)
    6762:	eb 1e                	jmp    6782 <transparent_crc_bytes+0x41>
    6764:	8b 45 fc             	mov    -0x4(%rbp),%eax
    6767:	48 63 d0             	movslq %eax,%rdx
    676a:	48 8b 45 e8          	mov    -0x18(%rbp),%rax
    676e:	48 01 d0             	add    %rdx,%rax
    6771:	0f b6 00             	movzbl (%rax),%eax
    6774:	0f b6 c0             	movzbl %al,%eax
    6777:	89 c7                	mov    %eax,%edi
    6779:	e8 90 fe ff ff       	callq  660e <crc32_byte>
    677e:	83 45 fc 01          	addl   $0x1,-0x4(%rbp)
    6782:	8b 45 fc             	mov    -0x4(%rbp),%eax
    6785:	3b 45 e4             	cmp    -0x1c(%rbp),%eax
    6788:	7c da                	jl     6764 <transparent_crc_bytes+0x23>
    678a:	83 7d e0 00          	cmpl   $0x0,-0x20(%rbp)
    678e:	74 22                	je     67b2 <transparent_crc_bytes+0x71>
    6790:	8b 05 8a f8 00 00    	mov    0xf88a(%rip),%eax        # 16020 <crc32_context>
    6796:	f7 d0                	not    %eax
    6798:	89 c2                	mov    %eax,%edx
    679a:	48 8b 45 d8          	mov    -0x28(%rbp),%rax
    679e:	48 89 c6             	mov    %rax,%rsi
    67a1:	48 8d 3d 88 b8 00 00 	lea    0xb888(%rip),%rdi        # 12030 <_IO_stdin_used+0x30>
    67a8:	b8 00 00 00 00       	mov    $0x0,%eax
    67ad:	e8 ce e8 ff ff       	callq  5080 <printf@plt>
    67b2:	90                   	nop
    67b3:	c9                   	leaveq 
    67b4:	c3                   	retq   

00000000000067b5 <func_1>:
    67b5:	f3 0f 1e fa          	endbr64 
    67b9:	55                   	push   %rbp
    67ba:	48 89 e5             	mov    %rsp,%rbp
    67bd:	41 57                	push   %r15
    67bf:	41 56                	push   %r14
    67c1:	41 55                	push   %r13
    67c3:	41 54                	push   %r12
    67c5:	53                   	push   %rbx
    67c6:	48 81 ec 88 0c 00 00 	sub    $0xc88,%rsp
    67cd:	64 48 8b 04 25 28 00 	mov    %fs:0x28,%rax
    67d4:	00 00 
    67d6:	48 89 45 c8          	mov    %rax,-0x38(%rbp)
    67da:	31 c0                	xor    %eax,%eax
    67dc:	c7 85 74 f3 ff ff 17 	movl   $0xb43d2717,-0xc8c(%rbp)
    67e3:	27 3d b4 
    67e6:	48 8d 05 63 f8 00 00 	lea    0xf863(%rip),%rax        # 16050 <g_24>
    67ed:	48 89 85 d8 f3 ff ff 	mov    %rax,-0xc28(%rbp)
    67f4:	c7 85 5c f3 ff ff 4e 	movl   $0xe907af4e,-0xca4(%rbp)
    67fb:	af 07 e9 
    67fe:	48 8d 05 3b 02 01 00 	lea    0x1023b(%rip),%rax        # 16a40 <g_512>
    6805:	48 89 85 e0 f3 ff ff 	mov    %rax,-0xc20(%rbp)
    680c:	c7 85 78 f3 ff ff ff 	movl   $0xffffffff,-0xc88(%rbp)
    6813:	ff ff ff 
    6816:	c7 85 68 f3 ff ff 00 	movl   $0x0,-0xc98(%rbp)
    681d:	00 00 00 
    6820:	eb 1b                	jmp    683d <func_1+0x88>
    6822:	8b 85 68 f3 ff ff    	mov    -0xc98(%rbp),%eax
    6828:	48 98                	cltq   
    682a:	48 c7 84 c5 90 f4 ff 	movq   $0x1,-0xb70(%rbp,%rax,8)
    6831:	ff 01 00 00 00 
    6836:	83 85 68 f3 ff ff 01 	addl   $0x1,-0xc98(%rbp)
    683d:	83 bd 68 f3 ff ff 01 	cmpl   $0x1,-0xc98(%rbp)
    6844:	7e dc                	jle    6822 <func_1+0x6d>
    6846:	c7 05 f4 f7 00 00 00 	movl   $0x0,0xf7f4(%rip)        # 16044 <g_2+0x14>
    684d:	00 00 00 
    6850:	e9 3f 1a 00 00       	jmpq   8294 <func_1+0x1adf>
    6855:	48 c7 85 f0 f4 ff ff 	movq   $0xfffffffffffffffe,-0xb10(%rbp)
    685c:	fe ff ff ff 
    6860:	48 c7 85 f8 f4 ff ff 	movq   $0xfffffffffffffffe,-0xb08(%rbp)
    6867:	fe ff ff ff 
    686b:	48 c7 85 00 f5 ff ff 	movq   $0xfffffffffffffffe,-0xb00(%rbp)
    6872:	fe ff ff ff 
    6876:	48 c7 85 08 f5 ff ff 	movq   $0xfffffffffffffffe,-0xaf8(%rbp)
    687d:	fe ff ff ff 
    6881:	48 c7 85 10 f5 ff ff 	movq   $0xfffffffffffffffe,-0xaf0(%rbp)
    6888:	fe ff ff ff 
    688c:	48 c7 85 18 f5 ff ff 	movq   $0xfffffffffffffffe,-0xae8(%rbp)
    6893:	fe ff ff ff 
    6897:	48 c7 85 20 f5 ff ff 	movq   $0xfffffffffffffffe,-0xae0(%rbp)
    689e:	fe ff ff ff 
    68a2:	48 c7 85 28 f5 ff ff 	movq   $0xfffffffffffffffe,-0xad8(%rbp)
    68a9:	fe ff ff ff 
    68ad:	48 8d 05 9c f7 00 00 	lea    0xf79c(%rip),%rax        # 16050 <g_24>
    68b4:	48 89 85 e8 f3 ff ff 	mov    %rax,-0xc18(%rbp)
    68bb:	48 8d 85 10 f6 ff ff 	lea    -0x9f0(%rbp),%rax
    68c2:	48 8d 15 b7 22 01 00 	lea    0x122b7(%rip),%rdx        # 18b80 <g_1346+0x30>
    68c9:	b9 46 00 00 00       	mov    $0x46,%ecx
    68ce:	48 89 c7             	mov    %rax,%rdi
    68d1:	48 89 d6             	mov    %rdx,%rsi
    68d4:	f3 48 a5             	rep movsq %ds:(%rsi),%es:(%rdi)
    68d7:	c6 85 53 f3 ff ff 2a 	movb   $0x2a,-0xcad(%rbp)
    68de:	48 8d 05 43 13 01 00 	lea    0x11343(%rip),%rax        # 17c28 <g_1147+0xce8>
    68e5:	48 89 85 88 f3 ff ff 	mov    %rax,-0xc78(%rbp)
    68ec:	c6 85 55 f3 ff ff 81 	movb   $0x81,-0xcab(%rbp)
    68f3:	48 8d 85 53 f3 ff ff 	lea    -0xcad(%rbp),%rax
    68fa:	48 89 85 90 f3 ff ff 	mov    %rax,-0xc70(%rbp)
    6901:	48 8d 85 90 f3 ff ff 	lea    -0xc70(%rbp),%rax
    6908:	48 89 85 98 f3 ff ff 	mov    %rax,-0xc68(%rbp)
    690f:	48 8d 85 98 f3 ff ff 	lea    -0xc68(%rbp),%rax
    6916:	48 89 85 a0 f3 ff ff 	mov    %rax,-0xc60(%rbp)
    691d:	48 8d 05 bc 36 01 00 	lea    0x136bc(%rip),%rax        # 19fe0 <g_704>
    6924:	48 89 85 f0 f3 ff ff 	mov    %rax,-0xc10(%rbp)
    692b:	48 8d 05 12 22 01 00 	lea    0x12212(%rip),%rax        # 18b44 <g_1339>
    6932:	48 89 85 a8 f3 ff ff 	mov    %rax,-0xc58(%rbp)
    6939:	48 8d 85 a8 f3 ff ff 	lea    -0xc58(%rbp),%rax
    6940:	48 89 85 b0 f3 ff ff 	mov    %rax,-0xc50(%rbp)
    6947:	48 8d 85 b0 f3 ff ff 	lea    -0xc50(%rbp),%rax
    694e:	48 89 85 b8 f3 ff ff 	mov    %rax,-0xc48(%rbp)
    6955:	48 8d 85 b8 f3 ff ff 	lea    -0xc48(%rbp),%rax
    695c:	48 89 85 f8 f3 ff ff 	mov    %rax,-0xc08(%rbp)
    6963:	c7 85 64 f3 ff ff 83 	movl   $0x1839de83,-0xc9c(%rbp)
    696a:	de 39 18 
    696d:	c7 85 6c f3 ff ff 00 	movl   $0x0,-0xc94(%rbp)
    6974:	00 00 00 
    6977:	eb 1e                	jmp    6997 <func_1+0x1e2>
    6979:	8b 85 6c f3 ff ff    	mov    -0xc94(%rbp),%eax
    697f:	48 98                	cltq   
    6981:	48 8d 95 88 f3 ff ff 	lea    -0xc78(%rbp),%rdx
    6988:	48 89 94 c5 a0 f4 ff 	mov    %rdx,-0xb60(%rbp,%rax,8)
    698f:	ff 
    6990:	83 85 6c f3 ff ff 01 	addl   $0x1,-0xc94(%rbp)
    6997:	83 bd 6c f3 ff ff 02 	cmpl   $0x2,-0xc94(%rbp)
    699e:	7e d9                	jle    6979 <func_1+0x1c4>
    69a0:	c7 05 a2 f6 00 00 1c 	movl   $0x1c,0xf6a2(%rip)        # 1604c <g_5>
    69a7:	00 00 00 
    69aa:	e9 0e 01 00 00       	jmpq   6abd <func_1+0x308>
    69af:	c6 85 57 f3 ff ff aa 	movb   $0xaa,-0xca9(%rbp)
    69b6:	48 8d 05 93 f6 00 00 	lea    0xf693(%rip),%rax        # 16050 <g_24>
    69bd:	48 89 85 40 f8 ff ff 	mov    %rax,-0x7c0(%rbp)
    69c4:	48 8d 05 85 f6 00 00 	lea    0xf685(%rip),%rax        # 16050 <g_24>
    69cb:	48 89 85 48 f8 ff ff 	mov    %rax,-0x7b8(%rbp)
    69d2:	48 8d 05 77 f6 00 00 	lea    0xf677(%rip),%rax        # 16050 <g_24>
    69d9:	48 89 85 50 f8 ff ff 	mov    %rax,-0x7b0(%rbp)
    69e0:	48 8d 05 69 f6 00 00 	lea    0xf669(%rip),%rax        # 16050 <g_24>
    69e7:	48 89 85 58 f8 ff ff 	mov    %rax,-0x7a8(%rbp)
    69ee:	48 8d 05 5b f6 00 00 	lea    0xf65b(%rip),%rax        # 16050 <g_24>
    69f5:	48 89 85 60 f8 ff ff 	mov    %rax,-0x7a0(%rbp)
    69fc:	48 8d 05 4d f6 00 00 	lea    0xf64d(%rip),%rax        # 16050 <g_24>
    6a03:	48 89 85 68 f8 ff ff 	mov    %rax,-0x798(%rbp)
    6a0a:	48 8d 05 3f f6 00 00 	lea    0xf63f(%rip),%rax        # 16050 <g_24>
    6a11:	48 89 85 70 f8 ff ff 	mov    %rax,-0x790(%rbp)
    6a18:	48 8d 05 31 f6 00 00 	lea    0xf631(%rip),%rax        # 16050 <g_24>
    6a1f:	48 89 85 78 f8 ff ff 	mov    %rax,-0x788(%rbp)
    6a26:	48 8d 05 23 f6 00 00 	lea    0xf623(%rip),%rax        # 16050 <g_24>
    6a2d:	48 89 85 80 f8 ff ff 	mov    %rax,-0x780(%rbp)
    6a34:	48 8d 05 15 f6 00 00 	lea    0xf615(%rip),%rax        # 16050 <g_24>
    6a3b:	48 89 85 88 f8 ff ff 	mov    %rax,-0x778(%rbp)
    6a42:	48 8d 05 07 f6 00 00 	lea    0xf607(%rip),%rax        # 16050 <g_24>
    6a49:	48 89 85 90 f8 ff ff 	mov    %rax,-0x770(%rbp)
    6a50:	48 8d 05 f9 f5 00 00 	lea    0xf5f9(%rip),%rax        # 16050 <g_24>
    6a57:	48 89 85 98 f8 ff ff 	mov    %rax,-0x768(%rbp)
    6a5e:	48 8d 05 eb f5 00 00 	lea    0xf5eb(%rip),%rax        # 16050 <g_24>
    6a65:	48 89 85 a0 f8 ff ff 	mov    %rax,-0x760(%rbp)
    6a6c:	48 8d 05 dd f5 00 00 	lea    0xf5dd(%rip),%rax        # 16050 <g_24>
    6a73:	48 89 85 a8 f8 ff ff 	mov    %rax,-0x758(%rbp)
    6a7a:	48 8d 05 cf f5 00 00 	lea    0xf5cf(%rip),%rax        # 16050 <g_24>
    6a81:	48 89 85 b0 f8 ff ff 	mov    %rax,-0x750(%rbp)
    6a88:	c7 85 84 f3 ff ff 00 	movl   $0x0,-0xc7c(%rbp)
    6a8f:	00 00 00 
    6a92:	48 8d 05 47 35 01 00 	lea    0x13547(%rip),%rax        # 19fe0 <g_704>
    6a99:	48 89 85 80 f4 ff ff 	mov    %rax,-0xb80(%rbp)
    6aa0:	48 8d 05 9b fe 00 00 	lea    0xfe9b(%rip),%rax        # 16942 <g_326+0x22>
    6aa7:	48 89 85 88 f4 ff ff 	mov    %rax,-0xb78(%rbp)
    6aae:	8b 05 98 f5 00 00    	mov    0xf598(%rip),%eax        # 1604c <g_5>
    6ab4:	83 e8 01             	sub    $0x1,%eax
    6ab7:	89 05 8f f5 00 00    	mov    %eax,0xf58f(%rip)        # 1604c <g_5>
    6abd:	8b 05 89 f5 00 00    	mov    0xf589(%rip),%eax        # 1604c <g_5>
    6ac3:	83 f8 e3             	cmp    $0xffffffe3,%eax
    6ac6:	0f 8d e3 fe ff ff    	jge    69af <func_1+0x1fa>
    6acc:	48 8b 85 08 f5 ff ff 	mov    -0xaf8(%rbp),%rax
    6ad3:	89 c2                	mov    %eax,%edx
    6ad5:	8b 85 5c f3 ff ff    	mov    -0xca4(%rbp),%eax
    6adb:	31 d0                	xor    %edx,%eax
    6add:	89 85 5c f3 ff ff    	mov    %eax,-0xca4(%rbp)
    6ae3:	c7 05 c7 fe 00 00 ef 	movl   $0xffffffef,0xfec7(%rip)        # 169b4 <g_354>
    6aea:	ff ff ff 
    6aed:	90                   	nop
    6aee:	8b 05 c0 fe 00 00    	mov    0xfec0(%rip),%eax        # 169b4 <g_354>
    6af4:	83 f8 0f             	cmp    $0xf,%eax
    6af7:	76 15                	jbe    6b0e <func_1+0x359>
    6af9:	66 c7 85 5a f3 ff ff 	movw   $0xffff,-0xca6(%rbp)
    6b00:	ff ff 
    6b02:	0f b7 85 5a f3 ff ff 	movzwl -0xca6(%rbp),%eax
    6b09:	e9 9b 17 00 00       	jmpq   82a9 <func_1+0x1af4>
    6b0e:	66 c7 05 01 fe 00 00 	movw   $0xb,0xfe01(%rip)        # 16918 <g_233>
    6b15:	0b 00 
    6b17:	e9 49 17 00 00       	jmpq   8265 <func_1+0x1ab0>
    6b1c:	c6 85 54 f3 ff ff ff 	movb   $0xff,-0xcac(%rbp)
    6b23:	48 8d 05 66 f5 00 00 	lea    0xf566(%rip),%rax        # 16090 <g_132>
    6b2a:	48 89 85 c0 f3 ff ff 	mov    %rax,-0xc40(%rbp)
    6b31:	48 8d 05 80 3c 01 00 	lea    0x13c80(%rip),%rax        # 1a7b8 <g_121+0x8>
    6b38:	48 89 85 00 f4 ff ff 	mov    %rax,-0xc00(%rbp)
    6b3f:	66 c7 85 58 f3 ff ff 	movw   $0x99e,-0xca8(%rbp)
    6b46:	9e 09 
    6b48:	48 c7 85 08 f4 ff ff 	movq   $0x0,-0xbf8(%rbp)
    6b4f:	00 00 00 00 
    6b53:	48 8d 05 b6 3c 01 00 	lea    0x13cb6(%rip),%rax        # 1a810 <g_1247>
    6b5a:	48 89 85 10 f4 ff ff 	mov    %rax,-0xbf0(%rbp)
    6b61:	c7 05 95 f8 00 00 00 	movl   $0x0,0xf895(%rip)        # 16400 <g_161>
    6b68:	00 00 00 
    6b6b:	e9 a4 16 00 00       	jmpq   8214 <func_1+0x1a5f>
    6b70:	c7 85 60 f3 ff ff 41 	movl   $0xcd92f141,-0xca0(%rbp)
    6b77:	f1 92 cd 
    6b7a:	48 8d 05 bf fe 00 00 	lea    0xfebf(%rip),%rax        # 16a40 <g_512>
    6b81:	48 89 85 18 f4 ff ff 	mov    %rax,-0xbe8(%rbp)
    6b88:	c7 85 30 f5 ff ff dc 	movl   $0xe86fdbdc,-0xad0(%rbp)
    6b8f:	db 6f e8 
    6b92:	c7 85 34 f5 ff ff 37 	movl   $0x35d26937,-0xacc(%rbp)
    6b99:	69 d2 35 
    6b9c:	c7 85 38 f5 ff ff 7e 	movl   $0x955c807e,-0xac8(%rbp)
    6ba3:	80 5c 95 
    6ba6:	c7 85 3c f5 ff ff f2 	movl   $0x99bba1f2,-0xac4(%rbp)
    6bad:	a1 bb 99 
    6bb0:	c7 85 40 f5 ff ff 7e 	movl   $0x955c807e,-0xac0(%rbp)
    6bb7:	80 5c 95 
    6bba:	c7 85 44 f5 ff ff 37 	movl   $0x35d26937,-0xabc(%rbp)
    6bc1:	69 d2 35 
    6bc4:	c7 85 48 f5 ff ff dc 	movl   $0xe86fdbdc,-0xab8(%rbp)
    6bcb:	db 6f e8 
    6bce:	c7 85 4c f5 ff ff e7 	movl   $0x856684e7,-0xab4(%rbp)
    6bd5:	84 66 85 
    6bd8:	c7 85 50 f5 ff ff ff 	movl   $0xffffffff,-0xab0(%rbp)
    6bdf:	ff ff ff 
    6be2:	c7 85 54 f5 ff ff e7 	movl   $0x856684e7,-0xaac(%rbp)
    6be9:	84 66 85 
    6bec:	c7 85 58 f5 ff ff 7e 	movl   $0x955c807e,-0xaa8(%rbp)
    6bf3:	80 5c 95 
    6bf6:	c7 85 5c f5 ff ff 83 	movl   $0xb1b7d483,-0xaa4(%rbp)
    6bfd:	d4 b7 b1 
    6c00:	c7 85 60 f5 ff ff 07 	movl   $0x7,-0xaa0(%rbp)
    6c07:	00 00 00 
    6c0a:	c7 85 64 f5 ff ff 83 	movl   $0xb1b7d483,-0xa9c(%rbp)
    6c11:	d4 b7 b1 
    6c14:	c7 85 68 f5 ff ff 7e 	movl   $0x955c807e,-0xa98(%rbp)
    6c1b:	80 5c 95 
    6c1e:	c7 85 6c f5 ff ff e7 	movl   $0x856684e7,-0xa94(%rbp)
    6c25:	84 66 85 
    6c28:	c7 85 70 f5 ff ff 7e 	movl   $0x955c807e,-0xa90(%rbp)
    6c2f:	80 5c 95 
    6c32:	c7 85 74 f5 ff ff 1f 	movl   $0xa4dd401f,-0xa8c(%rbp)
    6c39:	40 dd a4 
    6c3c:	c7 85 78 f5 ff ff 00 	movl   $0x0,-0xa88(%rbp)
    6c43:	00 00 00 
    6c46:	c7 85 7c f5 ff ff f2 	movl   $0x99bba1f2,-0xa84(%rbp)
    6c4d:	a1 bb 99 
    6c50:	c7 85 80 f5 ff ff 07 	movl   $0x7,-0xa80(%rbp)
    6c57:	00 00 00 
    6c5a:	c7 85 84 f5 ff ff e7 	movl   $0x856684e7,-0xa7c(%rbp)
    6c61:	84 66 85 
    6c64:	c7 85 88 f5 ff ff 07 	movl   $0x7,-0xa78(%rbp)
    6c6b:	00 00 00 
    6c6e:	c7 85 8c f5 ff ff f2 	movl   $0x99bba1f2,-0xa74(%rbp)
    6c75:	a1 bb 99 
    6c78:	c7 85 90 f5 ff ff ff 	movl   $0xffffffff,-0xa70(%rbp)
    6c7f:	ff ff ff 
    6c82:	c7 85 94 f5 ff ff 1f 	movl   $0xa4dd401f,-0xa6c(%rbp)
    6c89:	40 dd a4 
    6c8c:	c7 85 98 f5 ff ff ff 	movl   $0xffffffff,-0xa68(%rbp)
    6c93:	ff ff ff 
    6c96:	c7 85 9c f5 ff ff e7 	movl   $0x856684e7,-0xa64(%rbp)
    6c9d:	84 66 85 
    6ca0:	c7 85 a0 f5 ff ff 7e 	movl   $0x955c807e,-0xa60(%rbp)
    6ca7:	80 5c 95 
    6caa:	c7 85 a4 f5 ff ff 83 	movl   $0xb1b7d483,-0xa5c(%rbp)
    6cb1:	d4 b7 b1 
    6cb4:	c7 85 a8 f5 ff ff 07 	movl   $0x7,-0xa58(%rbp)
    6cbb:	00 00 00 
    6cbe:	c7 85 ac f5 ff ff 83 	movl   $0xb1b7d483,-0xa54(%rbp)
    6cc5:	d4 b7 b1 
    6cc8:	c7 85 b0 f5 ff ff dc 	movl   $0xe86fdbdc,-0xa50(%rbp)
    6ccf:	db 6f e8 
    6cd2:	c7 85 b4 f5 ff ff e7 	movl   $0x856684e7,-0xa4c(%rbp)
    6cd9:	84 66 85 
    6cdc:	c7 85 b8 f5 ff ff 00 	movl   $0x0,-0xa48(%rbp)
    6ce3:	00 00 00 
    6ce6:	c7 85 bc f5 ff ff e7 	movl   $0x856684e7,-0xa44(%rbp)
    6ced:	84 66 85 
    6cf0:	c7 85 c0 f5 ff ff dc 	movl   $0xe86fdbdc,-0xa40(%rbp)
    6cf7:	db 6f e8 
    6cfa:	c7 85 c4 f5 ff ff 37 	movl   $0x35d26937,-0xa3c(%rbp)
    6d01:	69 d2 35 
    6d04:	c7 85 c8 f5 ff ff 7e 	movl   $0x955c807e,-0xa38(%rbp)
    6d0b:	80 5c 95 
    6d0e:	c7 85 cc f5 ff ff f2 	movl   $0x99bba1f2,-0xa34(%rbp)
    6d15:	a1 bb 99 
    6d18:	c7 85 d0 f5 ff ff dc 	movl   $0xe86fdbdc,-0xa30(%rbp)
    6d1f:	db 6f e8 
    6d22:	c7 85 d4 f5 ff ff 37 	movl   $0x35d26937,-0xa2c(%rbp)
    6d29:	69 d2 35 
    6d2c:	c7 85 d8 f5 ff ff 7e 	movl   $0x955c807e,-0xa28(%rbp)
    6d33:	80 5c 95 
    6d36:	c7 85 dc f5 ff ff f2 	movl   $0x99bba1f2,-0xa24(%rbp)
    6d3d:	a1 bb 99 
    6d40:	c7 85 e0 f5 ff ff 7e 	movl   $0x955c807e,-0xa20(%rbp)
    6d47:	80 5c 95 
    6d4a:	c7 85 e4 f5 ff ff 37 	movl   $0x35d26937,-0xa1c(%rbp)
    6d51:	69 d2 35 
    6d54:	c7 85 e8 f5 ff ff dc 	movl   $0xe86fdbdc,-0xa18(%rbp)
    6d5b:	db 6f e8 
    6d5e:	c7 85 ec f5 ff ff e7 	movl   $0x856684e7,-0xa14(%rbp)
    6d65:	84 66 85 
    6d68:	c7 85 f0 f5 ff ff ff 	movl   $0xffffffff,-0xa10(%rbp)
    6d6f:	ff ff ff 
    6d72:	c7 85 f4 f5 ff ff e7 	movl   $0x856684e7,-0xa0c(%rbp)
    6d79:	84 66 85 
    6d7c:	c7 85 f8 f5 ff ff 7e 	movl   $0x955c807e,-0xa08(%rbp)
    6d83:	80 5c 95 
    6d86:	c7 85 fc f5 ff ff 83 	movl   $0xb1b7d483,-0xa04(%rbp)
    6d8d:	d4 b7 b1 
    6d90:	c7 85 00 f6 ff ff 07 	movl   $0x7,-0xa00(%rbp)
    6d97:	00 00 00 
    6d9a:	c7 85 04 f6 ff ff 83 	movl   $0xb1b7d483,-0x9fc(%rbp)
    6da1:	d4 b7 b1 
    6da4:	c7 85 08 f6 ff ff 7e 	movl   $0x955c807e,-0x9f8(%rbp)
    6dab:	80 5c 95 
    6dae:	c7 85 0c f6 ff ff e7 	movl   $0x856684e7,-0x9f4(%rbp)
    6db5:	84 66 85 
    6db8:	48 8d 85 c0 f3 ff ff 	lea    -0xc40(%rbp),%rax
    6dbf:	48 89 85 c8 f3 ff ff 	mov    %rax,-0xc38(%rbp)
    6dc6:	48 8d 85 c8 f3 ff ff 	lea    -0xc38(%rbp),%rax
    6dcd:	48 89 85 20 f4 ff ff 	mov    %rax,-0xbe0(%rbp)
    6dd4:	48 8b 05 05 32 01 00 	mov    0x13205(%rip),%rax        # 19fe0 <g_704>
    6ddb:	8b 10                	mov    (%rax),%edx
    6ddd:	48 8b 05 fc 31 01 00 	mov    0x131fc(%rip),%rax        # 19fe0 <g_704>
    6de4:	83 ca fd             	or     $0xfffffffd,%edx
    6de7:	89 10                	mov    %edx,(%rax)
    6de9:	8b 05 1d f6 00 00    	mov    0xf61d(%rip),%eax        # 1640c <g_164>
    6def:	41 89 c6             	mov    %eax,%r14d
    6df2:	0f b6 85 53 f3 ff ff 	movzbl -0xcad(%rbp),%eax
    6df9:	44 0f be e8          	movsbl %al,%r13d
    6dfd:	48 8b 05 bc 31 01 00 	mov    0x131bc(%rip),%rax        # 19fc0 <g_502>
    6e04:	8b 00                	mov    (%rax),%eax
    6e06:	8b 05 f8 f5 00 00    	mov    0xf5f8(%rip),%eax        # 16404 <g_162>
    6e0c:	0f be d8             	movsbl %al,%ebx
    6e0f:	8b 85 74 f3 ff ff    	mov    -0xc8c(%rbp),%eax
    6e15:	44 0f b7 e0          	movzwl %ax,%r12d
    6e19:	48 8b 05 c0 31 01 00 	mov    0x131c0(%rip),%rax        # 19fe0 <g_704>
    6e20:	8b 00                	mov    (%rax),%eax
    6e22:	33 85 74 f3 ff ff    	xor    -0xc8c(%rbp),%eax
    6e28:	89 c2                	mov    %eax,%edx
    6e2a:	48 8b 05 af 31 01 00 	mov    0x131af(%rip),%rax        # 19fe0 <g_704>
    6e31:	89 10                	mov    %edx,(%rax)
    6e33:	8b 00                	mov    (%rax),%eax
    6e35:	85 c0                	test   %eax,%eax
    6e37:	75 3f                	jne    6e78 <func_1+0x6c3>
    6e39:	48 8b 85 18 f5 ff ff 	mov    -0xae8(%rbp),%rax
    6e40:	be 10 5b a2 94       	mov    $0x94a25b10,%esi
    6e45:	89 c7                	mov    %eax,%edi
    6e47:	e8 b3 e8 ff ff       	callq  56ff <safe_div_func_int32_t_s_s>
    6e4c:	8b 95 60 f3 ff ff    	mov    -0xca0(%rbp),%edx
    6e52:	09 d0                	or     %edx,%eax
    6e54:	89 85 60 f3 ff ff    	mov    %eax,-0xca0(%rbp)
    6e5a:	8b 95 60 f3 ff ff    	mov    -0xca0(%rbp),%edx
    6e60:	0f b7 05 07 fb 00 00 	movzwl 0xfb07(%rip),%eax        # 1696e <g_326+0x4e>
    6e67:	98                   	cwtl   
    6e68:	31 d0                	xor    %edx,%eax
    6e6a:	89 c2                	mov    %eax,%edx
    6e6c:	8b 05 b2 f2 00 00    	mov    0xf2b2(%rip),%eax        # 16124 <g_140>
    6e72:	21 d0                	and    %edx,%eax
    6e74:	85 c0                	test   %eax,%eax
    6e76:	74 07                	je     6e7f <func_1+0x6ca>
    6e78:	b8 01 00 00 00       	mov    $0x1,%eax
    6e7d:	eb 05                	jmp    6e84 <func_1+0x6cf>
    6e7f:	b8 00 00 00 00       	mov    $0x0,%eax
    6e84:	0f b7 c0             	movzwl %ax,%eax
    6e87:	44 89 e6             	mov    %r12d,%esi
    6e8a:	89 c7                	mov    %eax,%edi
    6e8c:	e8 fd ee ff ff       	callq  5d8e <safe_div_func_uint16_t_u_u>
    6e91:	66 83 f8 04          	cmp    $0x4,%ax
    6e95:	0f 94 c0             	sete   %al
    6e98:	89 c2                	mov    %eax,%edx
    6e9a:	0f b6 05 77 39 01 00 	movzbl 0x13977(%rip),%eax        # 1a818 <g_1314>
    6ea1:	09 d0                	or     %edx,%eax
    6ea3:	0f be c0             	movsbl %al,%eax
    6ea6:	89 de                	mov    %ebx,%esi
    6ea8:	89 c7                	mov    %eax,%edi
    6eaa:	e8 82 e3 ff ff       	callq  5231 <safe_mod_func_int8_t_s_s>
    6eaf:	0f b6 05 92 fb 00 00 	movzbl 0xfb92(%rip),%eax        # 16a48 <g_515>
    6eb6:	0f b6 c0             	movzbl %al,%eax
    6eb9:	be 02 00 00 00       	mov    $0x2,%esi
    6ebe:	48 89 c7             	mov    %rax,%rdi
    6ec1:	e8 31 eb ff ff       	callq  59f7 <safe_div_func_int64_t_s_s>
    6ec6:	48 83 f8 fb          	cmp    $0xfffffffffffffffb,%rax
    6eca:	0f 95 c0             	setne  %al
    6ecd:	0f b6 c0             	movzbl %al,%eax
    6ed0:	44 89 e9             	mov    %r13d,%ecx
    6ed3:	31 c1                	xor    %eax,%ecx
    6ed5:	48 8b 85 18 f4 ff ff 	mov    -0xbe8(%rbp),%rax
    6edc:	48 8b 10             	mov    (%rax),%rdx
    6edf:	48 63 c1             	movslq %ecx,%rax
    6ee2:	48 31 c2             	xor    %rax,%rdx
    6ee5:	48 8b 85 18 f4 ff ff 	mov    -0xbe8(%rbp),%rax
    6eec:	48 89 10             	mov    %rdx,(%rax)
    6eef:	48 8b 85 18 f4 ff ff 	mov    -0xbe8(%rbp),%rax
    6ef6:	48 8b 00             	mov    (%rax),%rax
    6ef9:	4c 89 f6             	mov    %r14,%rsi
    6efc:	48 89 c7             	mov    %rax,%rdi
    6eff:	e8 47 f1 ff ff       	callq  604b <safe_sub_func_uint64_t_u_u>
    6f04:	48 85 c0             	test   %rax,%rax
    6f07:	0f 84 49 12 00 00    	je     8156 <func_1+0x19a1>
    6f0d:	48 8d 85 5c f3 ff ff 	lea    -0xca4(%rbp),%rax
    6f14:	48 89 85 28 f4 ff ff 	mov    %rax,-0xbd8(%rbp)
    6f1b:	48 8d 85 5c f3 ff ff 	lea    -0xca4(%rbp),%rax
    6f22:	48 89 85 30 f4 ff ff 	mov    %rax,-0xbd0(%rbp)
    6f29:	48 8d 85 5c f3 ff ff 	lea    -0xca4(%rbp),%rax
    6f30:	48 89 85 38 f4 ff ff 	mov    %rax,-0xbc8(%rbp)
    6f37:	48 c7 85 40 f4 ff ff 	movq   $0x0,-0xbc0(%rbp)
    6f3e:	00 00 00 00 
    6f42:	48 8d 05 d3 fa 00 00 	lea    0xfad3(%rip),%rax        # 16a1c <g_436>
    6f49:	48 89 85 48 f4 ff ff 	mov    %rax,-0xbb8(%rbp)
    6f50:	48 c7 85 50 f4 ff ff 	movq   $0x0,-0xbb0(%rbp)
    6f57:	00 00 00 00 
    6f5b:	48 8d 05 aa f9 00 00 	lea    0xf9aa(%rip),%rax        # 1690c <g_181>
    6f62:	48 89 85 40 f8 ff ff 	mov    %rax,-0x7c0(%rbp)
    6f69:	48 8d 85 5c f3 ff ff 	lea    -0xca4(%rbp),%rax
    6f70:	48 89 85 48 f8 ff ff 	mov    %rax,-0x7b8(%rbp)
    6f77:	48 c7 85 50 f8 ff ff 	movq   $0x0,-0x7b0(%rbp)
    6f7e:	00 00 00 00 
    6f82:	48 c7 85 58 f8 ff ff 	movq   $0x0,-0x7a8(%rbp)
    6f89:	00 00 00 00 
    6f8d:	48 8d 05 b0 f0 00 00 	lea    0xf0b0(%rip),%rax        # 16044 <g_2+0x14>
    6f94:	48 89 85 60 f8 ff ff 	mov    %rax,-0x7a0(%rbp)
    6f9b:	48 c7 85 68 f8 ff ff 	movq   $0x0,-0x798(%rbp)
    6fa2:	00 00 00 00 
    6fa6:	48 8d 05 97 f0 00 00 	lea    0xf097(%rip),%rax        # 16044 <g_2+0x14>
    6fad:	48 89 85 70 f8 ff ff 	mov    %rax,-0x790(%rbp)
    6fb4:	48 c7 85 78 f8 ff ff 	movq   $0x0,-0x788(%rbp)
    6fbb:	00 00 00 00 
    6fbf:	48 c7 85 80 f8 ff ff 	movq   $0x0,-0x780(%rbp)
    6fc6:	00 00 00 00 
    6fca:	48 8d 85 5c f3 ff ff 	lea    -0xca4(%rbp),%rax
    6fd1:	48 89 85 88 f8 ff ff 	mov    %rax,-0x778(%rbp)
    6fd8:	48 8d 05 6d f0 00 00 	lea    0xf06d(%rip),%rax        # 1604c <g_5>
    6fdf:	48 89 85 90 f8 ff ff 	mov    %rax,-0x770(%rbp)
    6fe6:	48 8d 05 1f f9 00 00 	lea    0xf91f(%rip),%rax        # 1690c <g_181>
    6fed:	48 89 85 98 f8 ff ff 	mov    %rax,-0x768(%rbp)
    6ff4:	48 c7 85 a0 f8 ff ff 	movq   $0x0,-0x760(%rbp)
    6ffb:	00 00 00 00 
    6fff:	48 8d 05 06 f9 00 00 	lea    0xf906(%rip),%rax        # 1690c <g_181>
    7006:	48 89 85 a8 f8 ff ff 	mov    %rax,-0x758(%rbp)
    700d:	48 8d 05 7c fe 00 00 	lea    0xfe7c(%rip),%rax        # 16e90 <g_870>
    7014:	48 89 85 b0 f8 ff ff 	mov    %rax,-0x750(%rbp)
    701b:	48 8d 05 2a f0 00 00 	lea    0xf02a(%rip),%rax        # 1604c <g_5>
    7022:	48 89 85 b8 f8 ff ff 	mov    %rax,-0x748(%rbp)
    7029:	48 c7 85 c0 f8 ff ff 	movq   $0x0,-0x740(%rbp)
    7030:	00 00 00 00 
    7034:	48 8d 05 d1 f8 00 00 	lea    0xf8d1(%rip),%rax        # 1690c <g_181>
    703b:	48 89 85 c8 f8 ff ff 	mov    %rax,-0x738(%rbp)
    7042:	48 8d 05 47 fe 00 00 	lea    0xfe47(%rip),%rax        # 16e90 <g_870>
    7049:	48 89 85 d0 f8 ff ff 	mov    %rax,-0x730(%rbp)
    7050:	48 c7 85 d8 f8 ff ff 	movq   $0x0,-0x728(%rbp)
    7057:	00 00 00 00 
    705b:	48 8d 05 ea ef 00 00 	lea    0xefea(%rip),%rax        # 1604c <g_5>
    7062:	48 89 85 e0 f8 ff ff 	mov    %rax,-0x720(%rbp)
    7069:	48 8d 05 9c f8 00 00 	lea    0xf89c(%rip),%rax        # 1690c <g_181>
    7070:	48 89 85 e8 f8 ff ff 	mov    %rax,-0x718(%rbp)
    7077:	48 8d 85 60 f3 ff ff 	lea    -0xca0(%rbp),%rax
    707e:	48 89 85 f0 f8 ff ff 	mov    %rax,-0x710(%rbp)
    7085:	48 8d 05 90 f9 00 00 	lea    0xf990(%rip),%rax        # 16a1c <g_436>
    708c:	48 89 85 f8 f8 ff ff 	mov    %rax,-0x708(%rbp)
    7093:	48 8d 05 72 f8 00 00 	lea    0xf872(%rip),%rax        # 1690c <g_181>
    709a:	48 89 85 00 f9 ff ff 	mov    %rax,-0x700(%rbp)
    70a1:	48 8d 05 a4 ef 00 00 	lea    0xefa4(%rip),%rax        # 1604c <g_5>
    70a8:	48 89 85 08 f9 ff ff 	mov    %rax,-0x6f8(%rbp)
    70af:	48 8d 05 96 ef 00 00 	lea    0xef96(%rip),%rax        # 1604c <g_5>
    70b6:	48 89 85 10 f9 ff ff 	mov    %rax,-0x6f0(%rbp)
    70bd:	48 8d 05 48 f8 00 00 	lea    0xf848(%rip),%rax        # 1690c <g_181>
    70c4:	48 89 85 18 f9 ff ff 	mov    %rax,-0x6e8(%rbp)
    70cb:	48 8d 05 7a ef 00 00 	lea    0xef7a(%rip),%rax        # 1604c <g_5>
    70d2:	48 89 85 20 f9 ff ff 	mov    %rax,-0x6e0(%rbp)
    70d9:	48 8d 05 6c ef 00 00 	lea    0xef6c(%rip),%rax        # 1604c <g_5>
    70e0:	48 89 85 28 f9 ff ff 	mov    %rax,-0x6d8(%rbp)
    70e7:	48 8d 05 5e ef 00 00 	lea    0xef5e(%rip),%rax        # 1604c <g_5>
    70ee:	48 89 85 30 f9 ff ff 	mov    %rax,-0x6d0(%rbp)
    70f5:	48 8d 05 10 f8 00 00 	lea    0xf810(%rip),%rax        # 1690c <g_181>
    70fc:	48 89 85 38 f9 ff ff 	mov    %rax,-0x6c8(%rbp)
    7103:	48 8d 05 86 fd 00 00 	lea    0xfd86(%rip),%rax        # 16e90 <g_870>
    710a:	48 89 85 40 f9 ff ff 	mov    %rax,-0x6c0(%rbp)
    7111:	48 8d 05 f4 f7 00 00 	lea    0xf7f4(%rip),%rax        # 1690c <g_181>
    7118:	48 89 85 48 f9 ff ff 	mov    %rax,-0x6b8(%rbp)
    711f:	48 8d 05 26 ef 00 00 	lea    0xef26(%rip),%rax        # 1604c <g_5>
    7126:	48 89 85 50 f9 ff ff 	mov    %rax,-0x6b0(%rbp)
    712d:	48 c7 85 58 f9 ff ff 	movq   $0x0,-0x6a8(%rbp)
    7134:	00 00 00 00 
    7138:	48 8d 05 05 ef 00 00 	lea    0xef05(%rip),%rax        # 16044 <g_2+0x14>
    713f:	48 89 85 60 f9 ff ff 	mov    %rax,-0x6a0(%rbp)
    7146:	48 8d 85 5c f3 ff ff 	lea    -0xca4(%rbp),%rax
    714d:	48 89 85 68 f9 ff ff 	mov    %rax,-0x698(%rbp)
    7154:	48 c7 85 70 f9 ff ff 	movq   $0x0,-0x690(%rbp)
    715b:	00 00 00 00 
    715f:	48 8d 05 a6 f7 00 00 	lea    0xf7a6(%rip),%rax        # 1690c <g_181>
    7166:	48 89 85 78 f9 ff ff 	mov    %rax,-0x688(%rbp)
    716d:	48 8d 05 98 f7 00 00 	lea    0xf798(%rip),%rax        # 1690c <g_181>
    7174:	48 89 85 80 f9 ff ff 	mov    %rax,-0x680(%rbp)
    717b:	48 8d 05 9a f8 00 00 	lea    0xf89a(%rip),%rax        # 16a1c <g_436>
    7182:	48 89 85 88 f9 ff ff 	mov    %rax,-0x678(%rbp)
    7189:	48 8d 85 60 f3 ff ff 	lea    -0xca0(%rbp),%rax
    7190:	48 89 85 90 f9 ff ff 	mov    %rax,-0x670(%rbp)
    7197:	48 8d 05 6e f7 00 00 	lea    0xf76e(%rip),%rax        # 1690c <g_181>
    719e:	48 89 85 98 f9 ff ff 	mov    %rax,-0x668(%rbp)
    71a5:	48 8d 05 a0 ee 00 00 	lea    0xeea0(%rip),%rax        # 1604c <g_5>
    71ac:	48 89 85 a0 f9 ff ff 	mov    %rax,-0x660(%rbp)
    71b3:	48 8d 05 62 f8 00 00 	lea    0xf862(%rip),%rax        # 16a1c <g_436>
    71ba:	48 89 85 a8 f9 ff ff 	mov    %rax,-0x658(%rbp)
    71c1:	48 8d 05 7c ee 00 00 	lea    0xee7c(%rip),%rax        # 16044 <g_2+0x14>
    71c8:	48 89 85 b0 f9 ff ff 	mov    %rax,-0x650(%rbp)
    71cf:	48 8d 05 46 f8 00 00 	lea    0xf846(%rip),%rax        # 16a1c <g_436>
    71d6:	48 89 85 b8 f9 ff ff 	mov    %rax,-0x648(%rbp)
    71dd:	48 c7 85 c0 f9 ff ff 	movq   $0x0,-0x640(%rbp)
    71e4:	00 00 00 00 
    71e8:	48 8d 05 2d f8 00 00 	lea    0xf82d(%rip),%rax        # 16a1c <g_436>
    71ef:	48 89 85 c8 f9 ff ff 	mov    %rax,-0x638(%rbp)
    71f6:	48 c7 85 d0 f9 ff ff 	movq   $0x0,-0x630(%rbp)
    71fd:	00 00 00 00 
    7201:	48 8d 05 44 ee 00 00 	lea    0xee44(%rip),%rax        # 1604c <g_5>
    7208:	48 89 85 d8 f9 ff ff 	mov    %rax,-0x628(%rbp)
    720f:	48 8d 05 7a fc 00 00 	lea    0xfc7a(%rip),%rax        # 16e90 <g_870>
    7216:	48 89 85 e0 f9 ff ff 	mov    %rax,-0x620(%rbp)
    721d:	48 8d 05 f8 f7 00 00 	lea    0xf7f8(%rip),%rax        # 16a1c <g_436>
    7224:	48 89 85 e8 f9 ff ff 	mov    %rax,-0x618(%rbp)
    722b:	48 8d 05 5e fc 00 00 	lea    0xfc5e(%rip),%rax        # 16e90 <g_870>
    7232:	48 89 85 f0 f9 ff ff 	mov    %rax,-0x610(%rbp)
    7239:	48 8d 05 dc f7 00 00 	lea    0xf7dc(%rip),%rax        # 16a1c <g_436>
    7240:	48 89 85 f8 f9 ff ff 	mov    %rax,-0x608(%rbp)
    7247:	48 8d 05 42 fc 00 00 	lea    0xfc42(%rip),%rax        # 16e90 <g_870>
    724e:	48 89 85 00 fa ff ff 	mov    %rax,-0x600(%rbp)
    7255:	48 8d 05 f0 ed 00 00 	lea    0xedf0(%rip),%rax        # 1604c <g_5>
    725c:	48 89 85 08 fa ff ff 	mov    %rax,-0x5f8(%rbp)
    7263:	48 c7 85 10 fa ff ff 	movq   $0x0,-0x5f0(%rbp)
    726a:	00 00 00 00 
    726e:	48 8d 05 a7 f7 00 00 	lea    0xf7a7(%rip),%rax        # 16a1c <g_436>
    7275:	48 89 85 18 fa ff ff 	mov    %rax,-0x5e8(%rbp)
    727c:	48 8d 05 c9 ed 00 00 	lea    0xedc9(%rip),%rax        # 1604c <g_5>
    7283:	48 89 85 20 fa ff ff 	mov    %rax,-0x5e0(%rbp)
    728a:	48 8d 05 7b f6 00 00 	lea    0xf67b(%rip),%rax        # 1690c <g_181>
    7291:	48 89 85 28 fa ff ff 	mov    %rax,-0x5d8(%rbp)
    7298:	48 8d 05 6d f6 00 00 	lea    0xf66d(%rip),%rax        # 1690c <g_181>
    729f:	48 89 85 30 fa ff ff 	mov    %rax,-0x5d0(%rbp)
    72a6:	48 8d 05 97 ed 00 00 	lea    0xed97(%rip),%rax        # 16044 <g_2+0x14>
    72ad:	48 89 85 38 fa ff ff 	mov    %rax,-0x5c8(%rbp)
    72b4:	48 8d 85 60 f3 ff ff 	lea    -0xca0(%rbp),%rax
    72bb:	48 89 85 40 fa ff ff 	mov    %rax,-0x5c0(%rbp)
    72c2:	48 c7 85 48 fa ff ff 	movq   $0x0,-0x5b8(%rbp)
    72c9:	00 00 00 00 
    72cd:	48 8d 05 78 ed 00 00 	lea    0xed78(%rip),%rax        # 1604c <g_5>
    72d4:	48 89 85 50 fa ff ff 	mov    %rax,-0x5b0(%rbp)
    72db:	48 8d 05 62 ed 00 00 	lea    0xed62(%rip),%rax        # 16044 <g_2+0x14>
    72e2:	48 89 85 58 fa ff ff 	mov    %rax,-0x5a8(%rbp)
    72e9:	48 8d 05 54 ed 00 00 	lea    0xed54(%rip),%rax        # 16044 <g_2+0x14>
    72f0:	48 89 85 60 fa ff ff 	mov    %rax,-0x5a0(%rbp)
    72f7:	48 8d 05 0e f6 00 00 	lea    0xf60e(%rip),%rax        # 1690c <g_181>
    72fe:	48 89 85 68 fa ff ff 	mov    %rax,-0x598(%rbp)
    7305:	48 8d 05 84 fb 00 00 	lea    0xfb84(%rip),%rax        # 16e90 <g_870>
    730c:	48 89 85 70 fa ff ff 	mov    %rax,-0x590(%rbp)
    7313:	48 c7 85 78 fa ff ff 	movq   $0x0,-0x588(%rbp)
    731a:	00 00 00 00 
    731e:	48 8d 05 6b fb 00 00 	lea    0xfb6b(%rip),%rax        # 16e90 <g_870>
    7325:	48 89 85 80 fa ff ff 	mov    %rax,-0x580(%rbp)
    732c:	48 8d 05 11 ed 00 00 	lea    0xed11(%rip),%rax        # 16044 <g_2+0x14>
    7333:	48 89 85 88 fa ff ff 	mov    %rax,-0x578(%rbp)
    733a:	48 c7 85 90 fa ff ff 	movq   $0x0,-0x570(%rbp)
    7341:	00 00 00 00 
    7345:	48 8d 05 44 fb 00 00 	lea    0xfb44(%rip),%rax        # 16e90 <g_870>
    734c:	48 89 85 98 fa ff ff 	mov    %rax,-0x568(%rbp)
    7353:	48 8d 05 36 fb 00 00 	lea    0xfb36(%rip),%rax        # 16e90 <g_870>
    735a:	48 89 85 a0 fa ff ff 	mov    %rax,-0x560(%rbp)
    7361:	48 8d 05 28 fb 00 00 	lea    0xfb28(%rip),%rax        # 16e90 <g_870>
    7368:	48 89 85 a8 fa ff ff 	mov    %rax,-0x558(%rbp)
    736f:	48 c7 85 b0 fa ff ff 	movq   $0x0,-0x550(%rbp)
    7376:	00 00 00 00 
    737a:	48 8d 05 c3 ec 00 00 	lea    0xecc3(%rip),%rax        # 16044 <g_2+0x14>
    7381:	48 89 85 b8 fa ff ff 	mov    %rax,-0x548(%rbp)
    7388:	48 c7 85 c0 fa ff ff 	movq   $0x0,-0x540(%rbp)
    738f:	00 00 00 00 
    7393:	48 8d 05 aa ec 00 00 	lea    0xecaa(%rip),%rax        # 16044 <g_2+0x14>
    739a:	48 89 85 c8 fa ff ff 	mov    %rax,-0x538(%rbp)
    73a1:	48 c7 85 d0 fa ff ff 	movq   $0x0,-0x530(%rbp)
    73a8:	00 00 00 00 
    73ac:	48 8d 05 69 f6 00 00 	lea    0xf669(%rip),%rax        # 16a1c <g_436>
    73b3:	48 89 85 d8 fa ff ff 	mov    %rax,-0x528(%rbp)
    73ba:	48 8d 05 8b ec 00 00 	lea    0xec8b(%rip),%rax        # 1604c <g_5>
    73c1:	48 89 85 e0 fa ff ff 	mov    %rax,-0x520(%rbp)
    73c8:	48 c7 85 e8 fa ff ff 	movq   $0x0,-0x518(%rbp)
    73cf:	00 00 00 00 
    73d3:	48 8d 05 62 ec 00 00 	lea    0xec62(%rip),%rax        # 1603c <g_2+0xc>
    73da:	48 89 85 f0 fa ff ff 	mov    %rax,-0x510(%rbp)
    73e1:	48 8d 05 24 f5 00 00 	lea    0xf524(%rip),%rax        # 1690c <g_181>
    73e8:	48 89 85 f8 fa ff ff 	mov    %rax,-0x508(%rbp)
    73ef:	48 c7 85 00 fb ff ff 	movq   $0x0,-0x500(%rbp)
    73f6:	00 00 00 00 
    73fa:	48 c7 85 08 fb ff ff 	movq   $0x0,-0x4f8(%rbp)
    7401:	00 00 00 00 
    7405:	48 8d 05 84 fa 00 00 	lea    0xfa84(%rip),%rax        # 16e90 <g_870>
    740c:	48 89 85 10 fb ff ff 	mov    %rax,-0x4f0(%rbp)
    7413:	48 8d 05 f2 f4 00 00 	lea    0xf4f2(%rip),%rax        # 1690c <g_181>
    741a:	48 89 85 18 fb ff ff 	mov    %rax,-0x4e8(%rbp)
    7421:	48 c7 85 20 fb ff ff 	movq   $0x0,-0x4e0(%rbp)
    7428:	00 00 00 00 
    742c:	48 8d 05 19 ec 00 00 	lea    0xec19(%rip),%rax        # 1604c <g_5>
    7433:	48 89 85 28 fb ff ff 	mov    %rax,-0x4d8(%rbp)
    743a:	48 8d 05 4f fa 00 00 	lea    0xfa4f(%rip),%rax        # 16e90 <g_870>
    7441:	48 89 85 30 fb ff ff 	mov    %rax,-0x4d0(%rbp)
    7448:	48 8d 05 bd f4 00 00 	lea    0xf4bd(%rip),%rax        # 1690c <g_181>
    744f:	48 89 85 38 fb ff ff 	mov    %rax,-0x4c8(%rbp)
    7456:	48 c7 85 40 fb ff ff 	movq   $0x0,-0x4c0(%rbp)
    745d:	00 00 00 00 
    7461:	48 8d 05 a4 f4 00 00 	lea    0xf4a4(%rip),%rax        # 1690c <g_181>
    7468:	48 89 85 48 fb ff ff 	mov    %rax,-0x4b8(%rbp)
    746f:	48 8d 05 d6 eb 00 00 	lea    0xebd6(%rip),%rax        # 1604c <g_5>
    7476:	48 89 85 50 fb ff ff 	mov    %rax,-0x4b0(%rbp)
    747d:	48 8d 05 88 f4 00 00 	lea    0xf488(%rip),%rax        # 1690c <g_181>
    7484:	48 89 85 58 fb ff ff 	mov    %rax,-0x4a8(%rbp)
    748b:	48 8d 05 ba eb 00 00 	lea    0xebba(%rip),%rax        # 1604c <g_5>
    7492:	48 89 85 60 fb ff ff 	mov    %rax,-0x4a0(%rbp)
    7499:	48 8d 05 7c f5 00 00 	lea    0xf57c(%rip),%rax        # 16a1c <g_436>
    74a0:	48 89 85 68 fb ff ff 	mov    %rax,-0x498(%rbp)
    74a7:	48 c7 85 70 fb ff ff 	movq   $0x0,-0x490(%rbp)
    74ae:	00 00 00 00 
    74b2:	48 8d 05 63 f5 00 00 	lea    0xf563(%rip),%rax        # 16a1c <g_436>
    74b9:	48 89 85 78 fb ff ff 	mov    %rax,-0x488(%rbp)
    74c0:	48 c7 85 80 fb ff ff 	movq   $0x0,-0x480(%rbp)
    74c7:	00 00 00 00 
    74cb:	48 8d 05 4a f5 00 00 	lea    0xf54a(%rip),%rax        # 16a1c <g_436>
    74d2:	48 89 85 88 fb ff ff 	mov    %rax,-0x478(%rbp)
    74d9:	48 8d 05 6c eb 00 00 	lea    0xeb6c(%rip),%rax        # 1604c <g_5>
    74e0:	48 89 85 90 fb ff ff 	mov    %rax,-0x470(%rbp)
    74e7:	48 8d 05 a2 f9 00 00 	lea    0xf9a2(%rip),%rax        # 16e90 <g_870>
    74ee:	48 89 85 98 fb ff ff 	mov    %rax,-0x468(%rbp)
    74f5:	48 8d 05 40 eb 00 00 	lea    0xeb40(%rip),%rax        # 1603c <g_2+0xc>
    74fc:	48 89 85 a0 fb ff ff 	mov    %rax,-0x460(%rbp)
    7503:	48 8d 05 42 eb 00 00 	lea    0xeb42(%rip),%rax        # 1604c <g_5>
    750a:	48 89 85 a8 fb ff ff 	mov    %rax,-0x458(%rbp)
    7511:	48 c7 85 b0 fb ff ff 	movq   $0x0,-0x450(%rbp)
    7518:	00 00 00 00 
    751c:	48 8d 05 f9 f4 00 00 	lea    0xf4f9(%rip),%rax        # 16a1c <g_436>
    7523:	48 89 85 b8 fb ff ff 	mov    %rax,-0x448(%rbp)
    752a:	48 8d 05 5f f9 00 00 	lea    0xf95f(%rip),%rax        # 16e90 <g_870>
    7531:	48 89 85 c0 fb ff ff 	mov    %rax,-0x440(%rbp)
    7538:	48 8d 05 51 f9 00 00 	lea    0xf951(%rip),%rax        # 16e90 <g_870>
    753f:	48 89 85 c8 fb ff ff 	mov    %rax,-0x438(%rbp)
    7546:	48 8d 05 43 f9 00 00 	lea    0xf943(%rip),%rax        # 16e90 <g_870>
    754d:	48 89 85 d0 fb ff ff 	mov    %rax,-0x430(%rbp)
    7554:	48 c7 85 d8 fb ff ff 	movq   $0x0,-0x428(%rbp)
    755b:	00 00 00 00 
    755f:	48 8d 05 2a f9 00 00 	lea    0xf92a(%rip),%rax        # 16e90 <g_870>
    7566:	48 89 85 e0 fb ff ff 	mov    %rax,-0x420(%rbp)
    756d:	48 8d 05 d0 ea 00 00 	lea    0xead0(%rip),%rax        # 16044 <g_2+0x14>
    7574:	48 89 85 e8 fb ff ff 	mov    %rax,-0x418(%rbp)
    757b:	48 c7 85 f0 fb ff ff 	movq   $0x0,-0x410(%rbp)
    7582:	00 00 00 00 
    7586:	48 8d 05 03 f9 00 00 	lea    0xf903(%rip),%rax        # 16e90 <g_870>
    758d:	48 89 85 f8 fb ff ff 	mov    %rax,-0x408(%rbp)
    7594:	48 8d 85 60 f3 ff ff 	lea    -0xca0(%rbp),%rax
    759b:	48 89 85 00 fc ff ff 	mov    %rax,-0x400(%rbp)
    75a2:	48 8d 05 73 f4 00 00 	lea    0xf473(%rip),%rax        # 16a1c <g_436>
    75a9:	48 89 85 08 fc ff ff 	mov    %rax,-0x3f8(%rbp)
    75b0:	48 8d 05 55 f3 00 00 	lea    0xf355(%rip),%rax        # 1690c <g_181>
    75b7:	48 89 85 10 fc ff ff 	mov    %rax,-0x3f0(%rbp)
    75be:	48 8d 05 87 ea 00 00 	lea    0xea87(%rip),%rax        # 1604c <g_5>
    75c5:	48 89 85 18 fc ff ff 	mov    %rax,-0x3e8(%rbp)
    75cc:	48 8d 05 79 ea 00 00 	lea    0xea79(%rip),%rax        # 1604c <g_5>
    75d3:	48 89 85 20 fc ff ff 	mov    %rax,-0x3e0(%rbp)
    75da:	48 8d 05 2b f3 00 00 	lea    0xf32b(%rip),%rax        # 1690c <g_181>
    75e1:	48 89 85 28 fc ff ff 	mov    %rax,-0x3d8(%rbp)
    75e8:	48 8d 05 5d ea 00 00 	lea    0xea5d(%rip),%rax        # 1604c <g_5>
    75ef:	48 89 85 30 fc ff ff 	mov    %rax,-0x3d0(%rbp)
    75f6:	48 8d 05 4f ea 00 00 	lea    0xea4f(%rip),%rax        # 1604c <g_5>
    75fd:	48 89 85 38 fc ff ff 	mov    %rax,-0x3c8(%rbp)
    7604:	48 8d 05 01 f3 00 00 	lea    0xf301(%rip),%rax        # 1690c <g_181>
    760b:	48 89 85 40 fc ff ff 	mov    %rax,-0x3c0(%rbp)
    7612:	48 8d 05 03 f4 00 00 	lea    0xf403(%rip),%rax        # 16a1c <g_436>
    7619:	48 89 85 48 fc ff ff 	mov    %rax,-0x3b8(%rbp)
    7620:	48 8d 05 69 f8 00 00 	lea    0xf869(%rip),%rax        # 16e90 <g_870>
    7627:	48 89 85 50 fc ff ff 	mov    %rax,-0x3b0(%rbp)
    762e:	48 8d 05 e7 f3 00 00 	lea    0xf3e7(%rip),%rax        # 16a1c <g_436>
    7635:	48 89 85 58 fc ff ff 	mov    %rax,-0x3a8(%rbp)
    763c:	48 8d 05 4d f8 00 00 	lea    0xf84d(%rip),%rax        # 16e90 <g_870>
    7643:	48 89 85 60 fc ff ff 	mov    %rax,-0x3a0(%rbp)
    764a:	48 8d 05 bb f2 00 00 	lea    0xf2bb(%rip),%rax        # 1690c <g_181>
    7651:	48 89 85 68 fc ff ff 	mov    %rax,-0x398(%rbp)
    7658:	48 c7 85 70 fc ff ff 	movq   $0x0,-0x390(%rbp)
    765f:	00 00 00 00 
    7663:	48 8d 05 b2 f3 00 00 	lea    0xf3b2(%rip),%rax        # 16a1c <g_436>
    766a:	48 89 85 78 fc ff ff 	mov    %rax,-0x388(%rbp)
    7671:	48 c7 85 80 fc ff ff 	movq   $0x0,-0x380(%rbp)
    7678:	00 00 00 00 
    767c:	48 8d 05 99 f3 00 00 	lea    0xf399(%rip),%rax        # 16a1c <g_436>
    7683:	48 89 85 88 fc ff ff 	mov    %rax,-0x378(%rbp)
    768a:	48 c7 85 90 fc ff ff 	movq   $0x0,-0x370(%rbp)
    7691:	00 00 00 00 
    7695:	48 8d 05 b0 e9 00 00 	lea    0xe9b0(%rip),%rax        # 1604c <g_5>
    769c:	48 89 85 98 fc ff ff 	mov    %rax,-0x368(%rbp)
    76a3:	48 8d 05 92 e9 00 00 	lea    0xe992(%rip),%rax        # 1603c <g_2+0xc>
    76aa:	48 89 85 a0 fc ff ff 	mov    %rax,-0x360(%rbp)
    76b1:	48 8d 05 54 f2 00 00 	lea    0xf254(%rip),%rax        # 1690c <g_181>
    76b8:	48 89 85 a8 fc ff ff 	mov    %rax,-0x358(%rbp)
    76bf:	48 c7 85 b0 fc ff ff 	movq   $0x0,-0x350(%rbp)
    76c6:	00 00 00 00 
    76ca:	48 c7 85 b8 fc ff ff 	movq   $0x0,-0x348(%rbp)
    76d1:	00 00 00 00 
    76d5:	48 8d 85 60 f3 ff ff 	lea    -0xca0(%rbp),%rax
    76dc:	48 89 85 c0 fc ff ff 	mov    %rax,-0x340(%rbp)
    76e3:	48 8d 05 32 f3 00 00 	lea    0xf332(%rip),%rax        # 16a1c <g_436>
    76ea:	48 89 85 c8 fc ff ff 	mov    %rax,-0x338(%rbp)
    76f1:	48 8d 05 44 e9 00 00 	lea    0xe944(%rip),%rax        # 1603c <g_2+0xc>
    76f8:	48 89 85 d0 fc ff ff 	mov    %rax,-0x330(%rbp)
    76ff:	48 8d 05 3e e9 00 00 	lea    0xe93e(%rip),%rax        # 16044 <g_2+0x14>
    7706:	48 89 85 d8 fc ff ff 	mov    %rax,-0x328(%rbp)
    770d:	48 8d 05 28 e9 00 00 	lea    0xe928(%rip),%rax        # 1603c <g_2+0xc>
    7714:	48 89 85 e0 fc ff ff 	mov    %rax,-0x320(%rbp)
    771b:	48 8d 05 fa f2 00 00 	lea    0xf2fa(%rip),%rax        # 16a1c <g_436>
    7722:	48 89 85 e8 fc ff ff 	mov    %rax,-0x318(%rbp)
    7729:	48 8d 05 60 f7 00 00 	lea    0xf760(%rip),%rax        # 16e90 <g_870>
    7730:	48 89 85 f0 fc ff ff 	mov    %rax,-0x310(%rbp)
    7737:	48 8d 05 06 e9 00 00 	lea    0xe906(%rip),%rax        # 16044 <g_2+0x14>
    773e:	48 89 85 f8 fc ff ff 	mov    %rax,-0x308(%rbp)
    7745:	48 8d 05 f8 e8 00 00 	lea    0xe8f8(%rip),%rax        # 16044 <g_2+0x14>
    774c:	48 89 85 00 fd ff ff 	mov    %rax,-0x300(%rbp)
    7753:	48 8d 05 ea e8 00 00 	lea    0xe8ea(%rip),%rax        # 16044 <g_2+0x14>
    775a:	48 89 85 08 fd ff ff 	mov    %rax,-0x2f8(%rbp)
    7761:	48 8d 05 28 f7 00 00 	lea    0xf728(%rip),%rax        # 16e90 <g_870>
    7768:	48 89 85 10 fd ff ff 	mov    %rax,-0x2f0(%rbp)
    776f:	48 8d 05 96 f1 00 00 	lea    0xf196(%rip),%rax        # 1690c <g_181>
    7776:	48 89 85 18 fd ff ff 	mov    %rax,-0x2e8(%rbp)
    777d:	48 8d 05 0c f7 00 00 	lea    0xf70c(%rip),%rax        # 16e90 <g_870>
    7784:	48 89 85 20 fd ff ff 	mov    %rax,-0x2e0(%rbp)
    778b:	48 8d 05 8a f2 00 00 	lea    0xf28a(%rip),%rax        # 16a1c <g_436>
    7792:	48 89 85 28 fd ff ff 	mov    %rax,-0x2d8(%rbp)
    7799:	48 8d 05 ac e8 00 00 	lea    0xe8ac(%rip),%rax        # 1604c <g_5>
    77a0:	48 89 85 30 fd ff ff 	mov    %rax,-0x2d0(%rbp)
    77a7:	48 8d 05 96 e8 00 00 	lea    0xe896(%rip),%rax        # 16044 <g_2+0x14>
    77ae:	48 89 85 38 fd ff ff 	mov    %rax,-0x2c8(%rbp)
    77b5:	48 8d 85 60 f3 ff ff 	lea    -0xca0(%rbp),%rax
    77bc:	48 89 85 40 fd ff ff 	mov    %rax,-0x2c0(%rbp)
    77c3:	48 c7 85 48 fd ff ff 	movq   $0x0,-0x2b8(%rbp)
    77ca:	00 00 00 00 
    77ce:	48 c7 85 50 fd ff ff 	movq   $0x0,-0x2b0(%rbp)
    77d5:	00 00 00 00 
    77d9:	48 8d 05 2c f1 00 00 	lea    0xf12c(%rip),%rax        # 1690c <g_181>
    77e0:	48 89 85 58 fd ff ff 	mov    %rax,-0x2a8(%rbp)
    77e7:	48 8d 05 4e e8 00 00 	lea    0xe84e(%rip),%rax        # 1603c <g_2+0xc>
    77ee:	48 89 85 60 fd ff ff 	mov    %rax,-0x2a0(%rbp)
    77f5:	48 c7 85 68 fd ff ff 	movq   $0x0,-0x298(%rbp)
    77fc:	00 00 00 00 
    7800:	48 8d 05 45 e8 00 00 	lea    0xe845(%rip),%rax        # 1604c <g_5>
    7807:	48 89 85 70 fd ff ff 	mov    %rax,-0x290(%rbp)
    780e:	48 8d 05 07 f2 00 00 	lea    0xf207(%rip),%rax        # 16a1c <g_436>
    7815:	48 89 85 78 fd ff ff 	mov    %rax,-0x288(%rbp)
    781c:	48 c7 85 80 fd ff ff 	movq   $0x0,-0x280(%rbp)
    7823:	00 00 00 00 
    7827:	48 8d 05 16 e8 00 00 	lea    0xe816(%rip),%rax        # 16044 <g_2+0x14>
    782e:	48 89 85 88 fd ff ff 	mov    %rax,-0x278(%rbp)
    7835:	48 c7 85 90 fd ff ff 	movq   $0x0,-0x270(%rbp)
    783c:	00 00 00 00 
    7840:	48 8d 05 c5 f0 00 00 	lea    0xf0c5(%rip),%rax        # 1690c <g_181>
    7847:	48 89 85 98 fd ff ff 	mov    %rax,-0x268(%rbp)
    784e:	48 8d 05 3b f6 00 00 	lea    0xf63b(%rip),%rax        # 16e90 <g_870>
    7855:	48 89 85 a0 fd ff ff 	mov    %rax,-0x260(%rbp)
    785c:	48 8d 05 b9 f1 00 00 	lea    0xf1b9(%rip),%rax        # 16a1c <g_436>
    7863:	48 89 85 a8 fd ff ff 	mov    %rax,-0x258(%rbp)
    786a:	48 8d 05 1f f6 00 00 	lea    0xf61f(%rip),%rax        # 16e90 <g_870>
    7871:	48 89 85 b0 fd ff ff 	mov    %rax,-0x250(%rbp)
    7878:	48 8d 05 9d f1 00 00 	lea    0xf19d(%rip),%rax        # 16a1c <g_436>
    787f:	48 89 85 b8 fd ff ff 	mov    %rax,-0x248(%rbp)
    7886:	48 8d 05 03 f6 00 00 	lea    0xf603(%rip),%rax        # 16e90 <g_870>
    788d:	48 89 85 c0 fd ff ff 	mov    %rax,-0x240(%rbp)
    7894:	48 8d 05 71 f0 00 00 	lea    0xf071(%rip),%rax        # 1690c <g_181>
    789b:	48 89 85 c8 fd ff ff 	mov    %rax,-0x238(%rbp)
    78a2:	48 c7 85 d0 fd ff ff 	movq   $0x0,-0x230(%rbp)
    78a9:	00 00 00 00 
    78ad:	48 8d 05 68 f1 00 00 	lea    0xf168(%rip),%rax        # 16a1c <g_436>
    78b4:	48 89 85 d8 fd ff ff 	mov    %rax,-0x228(%rbp)
    78bb:	48 8d 05 8a e7 00 00 	lea    0xe78a(%rip),%rax        # 1604c <g_5>
    78c2:	48 89 85 e0 fd ff ff 	mov    %rax,-0x220(%rbp)
    78c9:	48 8d 05 7c e7 00 00 	lea    0xe77c(%rip),%rax        # 1604c <g_5>
    78d0:	48 89 85 e8 fd ff ff 	mov    %rax,-0x218(%rbp)
    78d7:	48 8d 05 2e f0 00 00 	lea    0xf02e(%rip),%rax        # 1690c <g_181>
    78de:	48 89 85 f0 fd ff ff 	mov    %rax,-0x210(%rbp)
    78e5:	48 8d 05 30 f1 00 00 	lea    0xf130(%rip),%rax        # 16a1c <g_436>
    78ec:	48 89 85 f8 fd ff ff 	mov    %rax,-0x208(%rbp)
    78f3:	48 8d 85 60 f3 ff ff 	lea    -0xca0(%rbp),%rax
    78fa:	48 89 85 00 fe ff ff 	mov    %rax,-0x200(%rbp)
    7901:	48 8d 05 04 f0 00 00 	lea    0xf004(%rip),%rax        # 1690c <g_181>
    7908:	48 89 85 08 fe ff ff 	mov    %rax,-0x1f8(%rbp)
    790f:	48 8d 05 36 e7 00 00 	lea    0xe736(%rip),%rax        # 1604c <g_5>
    7916:	48 89 85 10 fe ff ff 	mov    %rax,-0x1f0(%rbp)
    791d:	48 8d 05 f8 f0 00 00 	lea    0xf0f8(%rip),%rax        # 16a1c <g_436>
    7924:	48 89 85 18 fe ff ff 	mov    %rax,-0x1e8(%rbp)
    792b:	48 8d 05 12 e7 00 00 	lea    0xe712(%rip),%rax        # 16044 <g_2+0x14>
    7932:	48 89 85 20 fe ff ff 	mov    %rax,-0x1e0(%rbp)
    7939:	48 8d 05 0c e7 00 00 	lea    0xe70c(%rip),%rax        # 1604c <g_5>
    7940:	48 89 85 28 fe ff ff 	mov    %rax,-0x1d8(%rbp)
    7947:	48 8d 05 42 f5 00 00 	lea    0xf542(%rip),%rax        # 16e90 <g_870>
    794e:	48 89 85 30 fe ff ff 	mov    %rax,-0x1d0(%rbp)
    7955:	48 8d 05 34 f5 00 00 	lea    0xf534(%rip),%rax        # 16e90 <g_870>
    795c:	48 89 85 38 fe ff ff 	mov    %rax,-0x1c8(%rbp)
    7963:	48 8d 05 26 f5 00 00 	lea    0xf526(%rip),%rax        # 16e90 <g_870>
    796a:	48 89 85 40 fe ff ff 	mov    %rax,-0x1c0(%rbp)
    7971:	48 8d 05 a4 f0 00 00 	lea    0xf0a4(%rip),%rax        # 16a1c <g_436>
    7978:	48 89 85 48 fe ff ff 	mov    %rax,-0x1b8(%rbp)
    797f:	48 c7 85 50 fe ff ff 	movq   $0x0,-0x1b0(%rbp)
    7986:	00 00 00 00 
    798a:	48 c7 85 58 fe ff ff 	movq   $0x0,-0x1a8(%rbp)
    7991:	00 00 00 00 
    7995:	48 8d 05 f4 f4 00 00 	lea    0xf4f4(%rip),%rax        # 16e90 <g_870>
    799c:	48 89 85 60 fe ff ff 	mov    %rax,-0x1a0(%rbp)
    79a3:	48 c7 85 68 fe ff ff 	movq   $0x0,-0x198(%rbp)
    79aa:	00 00 00 00 
    79ae:	48 c7 85 70 fe ff ff 	movq   $0x0,-0x190(%rbp)
    79b5:	00 00 00 00 
    79b9:	48 8d 05 5c f0 00 00 	lea    0xf05c(%rip),%rax        # 16a1c <g_436>
    79c0:	48 89 85 78 fe ff ff 	mov    %rax,-0x188(%rbp)
    79c7:	48 c7 85 80 fe ff ff 	movq   $0x0,-0x180(%rbp)
    79ce:	00 00 00 00 
    79d2:	48 8d 05 43 f0 00 00 	lea    0xf043(%rip),%rax        # 16a1c <g_436>
    79d9:	48 89 85 88 fe ff ff 	mov    %rax,-0x178(%rbp)
    79e0:	48 c7 85 90 fe ff ff 	movq   $0x0,-0x170(%rbp)
    79e7:	00 00 00 00 
    79eb:	48 8d 05 2a f0 00 00 	lea    0xf02a(%rip),%rax        # 16a1c <g_436>
    79f2:	48 89 85 98 fe ff ff 	mov    %rax,-0x168(%rbp)
    79f9:	48 8d 05 4c e6 00 00 	lea    0xe64c(%rip),%rax        # 1604c <g_5>
    7a00:	48 89 85 a0 fe ff ff 	mov    %rax,-0x160(%rbp)
    7a07:	48 8d 05 82 f4 00 00 	lea    0xf482(%rip),%rax        # 16e90 <g_870>
    7a0e:	48 89 85 a8 fe ff ff 	mov    %rax,-0x158(%rbp)
    7a15:	48 8d 05 20 e6 00 00 	lea    0xe620(%rip),%rax        # 1603c <g_2+0xc>
    7a1c:	48 89 85 b0 fe ff ff 	mov    %rax,-0x150(%rbp)
    7a23:	48 8d 05 22 e6 00 00 	lea    0xe622(%rip),%rax        # 1604c <g_5>
    7a2a:	48 89 85 b8 fe ff ff 	mov    %rax,-0x148(%rbp)
    7a31:	48 c7 85 c0 fe ff ff 	movq   $0x0,-0x140(%rbp)
    7a38:	00 00 00 00 
    7a3c:	48 8d 05 4d f4 00 00 	lea    0xf44d(%rip),%rax        # 16e90 <g_870>
    7a43:	48 89 85 c8 fe ff ff 	mov    %rax,-0x138(%rbp)
    7a4a:	48 8d 05 3f f4 00 00 	lea    0xf43f(%rip),%rax        # 16e90 <g_870>
    7a51:	48 89 85 d0 fe ff ff 	mov    %rax,-0x130(%rbp)
    7a58:	48 8d 05 ed e5 00 00 	lea    0xe5ed(%rip),%rax        # 1604c <g_5>
    7a5f:	48 89 85 d8 fe ff ff 	mov    %rax,-0x128(%rbp)
    7a66:	48 c7 85 e0 fe ff ff 	movq   $0x0,-0x120(%rbp)
    7a6d:	00 00 00 00 
    7a71:	48 8d 05 94 ee 00 00 	lea    0xee94(%rip),%rax        # 1690c <g_181>
    7a78:	48 89 85 e8 fe ff ff 	mov    %rax,-0x118(%rbp)
    7a7f:	48 8d 05 0a f4 00 00 	lea    0xf40a(%rip),%rax        # 16e90 <g_870>
    7a86:	48 89 85 f0 fe ff ff 	mov    %rax,-0x110(%rbp)
    7a8d:	48 c7 85 f8 fe ff ff 	movq   $0x0,-0x108(%rbp)
    7a94:	00 00 00 00 
    7a98:	48 c7 85 00 ff ff ff 	movq   $0x0,-0x100(%rbp)
    7a9f:	00 00 00 00 
    7aa3:	48 8d 05 a2 e5 00 00 	lea    0xe5a2(%rip),%rax        # 1604c <g_5>
    7aaa:	48 89 85 08 ff ff ff 	mov    %rax,-0xf8(%rbp)
    7ab1:	48 8d 05 94 e5 00 00 	lea    0xe594(%rip),%rax        # 1604c <g_5>
    7ab8:	48 89 85 10 ff ff ff 	mov    %rax,-0xf0(%rbp)
    7abf:	48 8d 05 86 e5 00 00 	lea    0xe586(%rip),%rax        # 1604c <g_5>
    7ac6:	48 89 85 18 ff ff ff 	mov    %rax,-0xe8(%rbp)
    7acd:	48 8d 05 78 e5 00 00 	lea    0xe578(%rip),%rax        # 1604c <g_5>
    7ad4:	48 89 85 20 ff ff ff 	mov    %rax,-0xe0(%rbp)
    7adb:	48 8d 05 3a ef 00 00 	lea    0xef3a(%rip),%rax        # 16a1c <g_436>
    7ae2:	48 89 85 28 ff ff ff 	mov    %rax,-0xd8(%rbp)
    7ae9:	48 c7 85 30 ff ff ff 	movq   $0x0,-0xd0(%rbp)
    7af0:	00 00 00 00 
    7af4:	48 8d 05 49 e5 00 00 	lea    0xe549(%rip),%rax        # 16044 <g_2+0x14>
    7afb:	48 89 85 38 ff ff ff 	mov    %rax,-0xc8(%rbp)
    7b02:	48 c7 85 40 ff ff ff 	movq   $0x0,-0xc0(%rbp)
    7b09:	00 00 00 00 
    7b0d:	48 8d 05 08 ef 00 00 	lea    0xef08(%rip),%rax        # 16a1c <g_436>
    7b14:	48 89 85 48 ff ff ff 	mov    %rax,-0xb8(%rbp)
    7b1b:	48 8d 05 2a e5 00 00 	lea    0xe52a(%rip),%rax        # 1604c <g_5>
    7b22:	48 89 85 50 ff ff ff 	mov    %rax,-0xb0(%rbp)
    7b29:	48 c7 85 58 ff ff ff 	movq   $0x0,-0xa8(%rbp)
    7b30:	00 00 00 00 
    7b34:	48 8d 05 01 e5 00 00 	lea    0xe501(%rip),%rax        # 1603c <g_2+0xc>
    7b3b:	48 89 85 60 ff ff ff 	mov    %rax,-0xa0(%rbp)
    7b42:	48 8d 05 c3 ed 00 00 	lea    0xedc3(%rip),%rax        # 1690c <g_181>
    7b49:	48 89 85 68 ff ff ff 	mov    %rax,-0x98(%rbp)
    7b50:	48 c7 85 70 ff ff ff 	movq   $0x0,-0x90(%rbp)
    7b57:	00 00 00 00 
    7b5b:	48 8d 05 e2 e4 00 00 	lea    0xe4e2(%rip),%rax        # 16044 <g_2+0x14>
    7b62:	48 89 85 78 ff ff ff 	mov    %rax,-0x88(%rbp)
    7b69:	48 8d 05 20 f3 00 00 	lea    0xf320(%rip),%rax        # 16e90 <g_870>
    7b70:	48 89 45 80          	mov    %rax,-0x80(%rbp)
    7b74:	48 c7 45 88 00 00 00 	movq   $0x0,-0x78(%rbp)
    7b7b:	00 
    7b7c:	48 8d 05 0d f3 00 00 	lea    0xf30d(%rip),%rax        # 16e90 <g_870>
    7b83:	48 89 45 90          	mov    %rax,-0x70(%rbp)
    7b87:	48 8d 05 02 f3 00 00 	lea    0xf302(%rip),%rax        # 16e90 <g_870>
    7b8e:	48 89 45 98          	mov    %rax,-0x68(%rbp)
    7b92:	48 8d 05 f7 f2 00 00 	lea    0xf2f7(%rip),%rax        # 16e90 <g_870>
    7b99:	48 89 45 a0          	mov    %rax,-0x60(%rbp)
    7b9d:	48 8d 05 ec f2 00 00 	lea    0xf2ec(%rip),%rax        # 16e90 <g_870>
    7ba4:	48 89 45 a8          	mov    %rax,-0x58(%rbp)
    7ba8:	48 8d 05 9d e4 00 00 	lea    0xe49d(%rip),%rax        # 1604c <g_5>
    7baf:	48 89 45 b0          	mov    %rax,-0x50(%rbp)
    7bb3:	48 8d 85 5c f3 ff ff 	lea    -0xca4(%rbp),%rax
    7bba:	48 89 45 b8          	mov    %rax,-0x48(%rbp)
    7bbe:	c7 85 7c f3 ff ff ff 	movl   $0xffffffff,-0xc84(%rbp)
    7bc5:	ff ff ff 
    7bc8:	48 8d 05 01 2c 01 00 	lea    0x12c01(%rip),%rax        # 1a7d0 <g_208>
    7bcf:	48 89 85 d0 f3 ff ff 	mov    %rax,-0xc30(%rbp)
    7bd6:	48 8d 85 d0 f3 ff ff 	lea    -0xc30(%rbp),%rax
    7bdd:	48 89 85 58 f4 ff ff 	mov    %rax,-0xba8(%rbp)
    7be4:	48 8d 85 f0 f4 ff ff 	lea    -0xb10(%rbp),%rax
    7beb:	48 83 c0 20          	add    $0x20,%rax
    7bef:	48 89 85 60 f4 ff ff 	mov    %rax,-0xba0(%rbp)
    7bf6:	c7 85 70 f3 ff ff 00 	movl   $0x0,-0xc90(%rbp)
    7bfd:	00 00 00 
    7c00:	eb 1e                	jmp    7c20 <func_1+0x146b>
    7c02:	8b 85 70 f3 ff ff    	mov    -0xc90(%rbp),%eax
    7c08:	48 98                	cltq   
    7c0a:	48 8d 95 b0 f3 ff ff 	lea    -0xc50(%rbp),%rdx
    7c11:	48 89 94 c5 c0 f4 ff 	mov    %rdx,-0xb40(%rbp,%rax,8)
    7c18:	ff 
    7c19:	83 85 70 f3 ff ff 01 	addl   $0x1,-0xc90(%rbp)
    7c20:	83 bd 70 f3 ff ff 04 	cmpl   $0x4,-0xc90(%rbp)
    7c27:	7e d9                	jle    7c02 <func_1+0x144d>
    7c29:	80 ad 54 f3 ff ff 01 	subb   $0x1,-0xcac(%rbp)
    7c30:	8b 85 60 f3 ff ff    	mov    -0xca0(%rbp),%eax
    7c36:	85 c0                	test   %eax,%eax
    7c38:	0f 85 c7 05 00 00    	jne    8205 <func_1+0x1a50>
    7c3e:	8b 85 ec f5 ff ff    	mov    -0xa14(%rbp),%eax
    7c44:	83 e8 01             	sub    $0x1,%eax
    7c47:	89 85 ec f5 ff ff    	mov    %eax,-0xa14(%rbp)
    7c4d:	c6 85 53 f3 ff ff 00 	movb   $0x0,-0xcad(%rbp)
    7c54:	e9 ec 04 00 00       	jmpq   8145 <func_1+0x1990>
    7c59:	c6 85 56 f3 ff ff 09 	movb   $0x9,-0xcaa(%rbp)
    7c60:	48 8d 05 e9 ed 00 00 	lea    0xede9(%rip),%rax        # 16a50 <g_578>
    7c67:	48 89 85 68 f4 ff ff 	mov    %rax,-0xb98(%rbp)
    7c6e:	c7 85 80 f3 ff ff 52 	movl   $0xf6d66b52,-0xc80(%rbp)
    7c75:	6b d6 f6 
    7c78:	48 8d 85 c0 f4 ff ff 	lea    -0xb40(%rbp),%rax
    7c7f:	48 83 c0 20          	add    $0x20,%rax
    7c83:	48 89 85 70 f4 ff ff 	mov    %rax,-0xb90(%rbp)
    7c8a:	48 8d 85 f0 f4 ff ff 	lea    -0xb10(%rbp),%rax
    7c91:	48 83 c0 18          	add    $0x18,%rax
    7c95:	48 89 85 78 f4 ff ff 	mov    %rax,-0xb88(%rbp)
    7c9c:	48 0f bf 9d 58 f3 ff 	movswq -0xca8(%rbp),%rbx
    7ca3:	ff 
    7ca4:	0f b7 05 5d ed 00 00 	movzwl 0xed5d(%rip),%eax        # 16a08 <g_399+0x8>
    7cab:	66 25 ff 07          	and    $0x7ff,%ax
    7caf:	44 0f b7 e0          	movzwl %ax,%r12d
    7cb3:	44 8b ad 78 f3 ff ff 	mov    -0xc88(%rbp),%r13d
    7cba:	44 0f bf b5 58 f3 ff 	movswl -0xca8(%rbp),%r14d
    7cc1:	ff 
    7cc2:	48 8b 85 00 f4 ff ff 	mov    -0xc00(%rbp),%rax
    7cc9:	48 3b 85 e0 f3 ff ff 	cmp    -0xc20(%rbp),%rax
    7cd0:	0f 95 c0             	setne  %al
    7cd3:	0f b6 d0             	movzbl %al,%edx
    7cd6:	0f bf 85 58 f3 ff ff 	movswl -0xca8(%rbp),%eax
    7cdd:	39 c2                	cmp    %eax,%edx
    7cdf:	0f 9e c0             	setle  %al
    7ce2:	0f b6 d0             	movzbl %al,%edx
    7ce5:	0f b6 85 53 f3 ff ff 	movzbl -0xcad(%rbp),%eax
    7cec:	0f be c0             	movsbl %al,%eax
    7cef:	89 d6                	mov    %edx,%esi
    7cf1:	89 c7                	mov    %eax,%edi
    7cf3:	e8 6b d8 ff ff       	callq  5563 <safe_rshift_func_int16_t_s_u>
    7cf8:	89 c2                	mov    %eax,%edx
    7cfa:	8b 85 7c f3 ff ff    	mov    -0xc84(%rbp),%eax
    7d00:	31 d0                	xor    %edx,%eax
    7d02:	0f be c0             	movsbl %al,%eax
    7d05:	44 89 f6             	mov    %r14d,%esi
    7d08:	89 c7                	mov    %eax,%edi
    7d0a:	e8 5d d6 ff ff       	callq  536c <safe_rshift_func_int8_t_s_u>
    7d0f:	48 0f be c0          	movsbq %al,%rax
    7d13:	4c 89 ee             	mov    %r13,%rsi
    7d16:	48 89 c7             	mov    %rax,%rdi
    7d19:	e8 23 db ff ff       	callq  5841 <safe_add_func_int64_t_s_s>
    7d1e:	0f b7 c0             	movzwl %ax,%eax
    7d21:	44 89 e6             	mov    %r12d,%esi
    7d24:	89 c7                	mov    %eax,%edi
    7d26:	e8 12 e0 ff ff       	callq  5d3d <safe_mul_func_uint16_t_u_u>
    7d2b:	48 83 bd 68 f4 ff ff 	cmpq   $0x0,-0xb98(%rbp)
    7d32:	00 
    7d33:	0f b6 85 56 f3 ff ff 	movzbl -0xcaa(%rbp),%eax
    7d3a:	0f be c0             	movsbl %al,%eax
    7d3d:	be 01 00 00 00       	mov    $0x1,%esi
    7d42:	89 c7                	mov    %eax,%edi
    7d44:	e8 e8 d4 ff ff       	callq  5231 <safe_mod_func_int8_t_s_s>
    7d49:	44 0f be e0          	movsbl %al,%r12d
    7d4d:	48 8b 85 c0 f3 ff ff 	mov    -0xc40(%rbp),%rax
    7d54:	48 85 c0             	test   %rax,%rax
    7d57:	0f 95 c0             	setne  %al
    7d5a:	0f b6 c0             	movzbl %al,%eax
    7d5d:	89 c7                	mov    %eax,%edi
    7d5f:	e8 e1 dd ff ff       	callq  5b45 <safe_unary_minus_func_uint8_t_u>
    7d64:	0f b6 c0             	movzbl %al,%eax
    7d67:	48 be ab 34 a1 ea c6 	movabs $0x357f10c6eaa134ab,%rsi
    7d6e:	10 7f 35 
    7d71:	48 89 c7             	mov    %rax,%rdi
    7d74:	e8 c8 da ff ff       	callq  5841 <safe_add_func_int64_t_s_s>
    7d79:	0f b7 c0             	movzwl %ax,%eax
    7d7c:	44 89 e6             	mov    %r12d,%esi
    7d7f:	89 c7                	mov    %eax,%edi
    7d81:	e8 80 e0 ff ff       	callq  5e06 <safe_lshift_func_uint16_t_u_u>
    7d86:	0f b7 d0             	movzwl %ax,%edx
    7d89:	0f be 85 55 f3 ff ff 	movsbl -0xcab(%rbp),%eax
    7d90:	39 c2                	cmp    %eax,%edx
    7d92:	0f 9f c0             	setg   %al
    7d95:	0f b6 c0             	movzbl %al,%eax
    7d98:	48 89 de             	mov    %rbx,%rsi
    7d9b:	48 89 c7             	mov    %rax,%rdi
    7d9e:	e8 54 dc ff ff       	callq  59f7 <safe_div_func_int64_t_s_s>
    7da3:	48 8b 95 48 f4 ff ff 	mov    -0xbb8(%rbp),%rdx
    7daa:	8b 12                	mov    (%rdx),%edx
    7dac:	21 c2                	and    %eax,%edx
    7dae:	48 8b 85 48 f4 ff ff 	mov    -0xbb8(%rbp),%rax
    7db5:	89 10                	mov    %edx,(%rax)
    7db7:	44 0f b6 bd 54 f3 ff 	movzbl -0xcac(%rbp),%r15d
    7dbe:	ff 
    7dbf:	8b 1d 37 e6 00 00    	mov    0xe637(%rip),%ebx        # 163fc <g_160>
    7dc5:	48 8b 85 28 f4 ff ff 	mov    -0xbd8(%rbp),%rax
    7dcc:	8b 00                	mov    (%rax),%eax
    7dce:	44 0f b6 e0          	movzbl %al,%r12d
    7dd2:	8b 05 50 e7 00 00    	mov    0xe750(%rip),%eax        # 16528 <g_171>
    7dd8:	8b 05 36 e3 00 00    	mov    0xe336(%rip),%eax        # 16114 <g_139+0x14>
    7dde:	44 0f bf e8          	movswl %ax,%r13d
    7de2:	0f b7 05 1f ec 00 00 	movzwl 0xec1f(%rip),%eax        # 16a08 <g_399+0x8>
    7de9:	66 25 ff 07          	and    $0x7ff,%ax
    7ded:	44 0f b7 f0          	movzwl %ax,%r14d
    7df1:	0f b6 85 54 f3 ff ff 	movzbl -0xcac(%rbp),%eax
    7df8:	89 c6                	mov    %eax,%esi
    7dfa:	bf 01 00 00 00       	mov    $0x1,%edi
    7dff:	e8 01 d8 ff ff       	callq  5605 <safe_sub_func_int32_t_s_s>
    7e04:	48 98                	cltq   
    7e06:	4c 89 f6             	mov    %r14,%rsi
    7e09:	48 89 c7             	mov    %rax,%rdi
    7e0c:	e8 9e e2 ff ff       	callq  60af <safe_div_func_uint64_t_u_u>
    7e11:	0f b6 95 56 f3 ff ff 	movzbl -0xcaa(%rbp),%edx
    7e18:	48 39 d0             	cmp    %rdx,%rax
    7e1b:	76 07                	jbe    7e24 <func_1+0x166f>
    7e1d:	b8 01 00 00 00       	mov    $0x1,%eax
    7e22:	eb 05                	jmp    7e29 <func_1+0x1674>
    7e24:	b8 00 00 00 00       	mov    $0x0,%eax
    7e29:	23 85 78 f3 ff ff    	and    -0xc88(%rbp),%eax
    7e2f:	85 c0                	test   %eax,%eax
    7e31:	74 14                	je     7e47 <func_1+0x1692>
    7e33:	48 8b 05 a6 21 01 00 	mov    0x121a6(%rip),%rax        # 19fe0 <g_704>
    7e3a:	8b 00                	mov    (%rax),%eax
    7e3c:	85 c0                	test   %eax,%eax
    7e3e:	74 07                	je     7e47 <func_1+0x1692>
    7e40:	b8 01 00 00 00       	mov    $0x1,%eax
    7e45:	eb 05                	jmp    7e4c <func_1+0x1697>
    7e47:	b8 00 00 00 00       	mov    $0x0,%eax
    7e4c:	3d 10 e1 ff 69       	cmp    $0x69ffe110,%eax
    7e51:	0f 9e c0             	setle  %al
    7e54:	0f b6 c0             	movzbl %al,%eax
    7e57:	44 89 ee             	mov    %r13d,%esi
    7e5a:	89 c7                	mov    %eax,%edi
    7e5c:	e8 b5 d5 ff ff       	callq  5416 <safe_mod_func_int16_t_s_s>
    7e61:	0f bf d0             	movswl %ax,%edx
    7e64:	8b 85 4c f5 ff ff    	mov    -0xab4(%rbp),%eax
    7e6a:	39 c2                	cmp    %eax,%edx
    7e6c:	0f 95 c0             	setne  %al
    7e6f:	0f b6 c0             	movzbl %al,%eax
    7e72:	44 89 e6             	mov    %r12d,%esi
    7e75:	89 c7                	mov    %eax,%edi
    7e77:	e8 de dc ff ff       	callq  5b5a <safe_add_func_uint8_t_u_u>
    7e7c:	0f b6 c0             	movzbl %al,%eax
    7e7f:	09 85 80 f3 ff ff    	or     %eax,-0xc80(%rbp)
    7e85:	83 bd 80 f3 ff ff 00 	cmpl   $0x0,-0xc80(%rbp)
    7e8c:	74 07                	je     7e95 <func_1+0x16e0>
    7e8e:	b8 01 00 00 00       	mov    $0x1,%eax
    7e93:	eb 05                	jmp    7e9a <func_1+0x16e5>
    7e95:	b8 00 00 00 00       	mov    $0x0,%eax
    7e9a:	85 c0                	test   %eax,%eax
    7e9c:	0f 9f c0             	setg   %al
    7e9f:	0f b6 c0             	movzbl %al,%eax
    7ea2:	89 de                	mov    %ebx,%esi
    7ea4:	89 c7                	mov    %eax,%edi
    7ea6:	e8 0d e0 ff ff       	callq  5eb8 <safe_add_func_uint32_t_u_u>
    7eab:	8b 15 37 e5 00 00    	mov    0xe537(%rip),%edx        # 163e8 <g_154>
    7eb1:	39 d0                	cmp    %edx,%eax
    7eb3:	0f 95 c0             	setne  %al
    7eb6:	0f b6 c0             	movzbl %al,%eax
    7eb9:	41 39 c7             	cmp    %eax,%r15d
    7ebc:	0f 9c c0             	setl   %al
    7ebf:	0f b6 d0             	movzbl %al,%edx
    7ec2:	48 8b 85 28 f4 ff ff 	mov    -0xbd8(%rbp),%rax
    7ec9:	89 10                	mov    %edx,(%rax)
    7ecb:	8b 9d 84 f5 ff ff    	mov    -0xa7c(%rbp),%ebx
    7ed1:	0f b6 85 53 f3 ff ff 	movzbl -0xcad(%rbp),%eax
    7ed8:	84 c0                	test   %al,%al
    7eda:	74 35                	je     7f11 <func_1+0x175c>
    7edc:	8b 05 26 e5 00 00    	mov    0xe526(%rip),%eax        # 16408 <g_163>
    7ee2:	83 f8 08             	cmp    $0x8,%eax
    7ee5:	0f 94 c0             	sete   %al
    7ee8:	0f b6 c0             	movzbl %al,%eax
    7eeb:	be 0a 00 00 00       	mov    $0xa,%esi
    7ef0:	89 c7                	mov    %eax,%edi
    7ef2:	e8 ea d5 ff ff       	callq  54e1 <safe_lshift_func_int16_t_s_u>
    7ef7:	0f b6 c0             	movzbl %al,%eax
    7efa:	89 c6                	mov    %eax,%esi
    7efc:	bf 8c 00 00 00       	mov    $0x8c,%edi
    7f01:	e8 d5 dc ff ff       	callq  5bdb <safe_div_func_uint8_t_u_u>
    7f06:	84 c0                	test   %al,%al
    7f08:	74 07                	je     7f11 <func_1+0x175c>
    7f0a:	b8 01 00 00 00       	mov    $0x1,%eax
    7f0f:	eb 05                	jmp    7f16 <func_1+0x1761>
    7f11:	b8 00 00 00 00       	mov    $0x0,%eax
    7f16:	21 c3                	and    %eax,%ebx
    7f18:	48 8b 05 49 24 01 00 	mov    0x12449(%rip),%rax        # 1a368 <g_1281>
    7f1f:	48 8b 00             	mov    (%rax),%rax
    7f22:	48 8b 00             	mov    (%rax),%rax
    7f25:	48 39 85 f0 f3 ff ff 	cmp    %rax,-0xc10(%rbp)
    7f2c:	0f 94 c0             	sete   %al
    7f2f:	0f b6 d0             	movzbl %al,%edx
    7f32:	48 8b 85 f0 f3 ff ff 	mov    -0xc10(%rbp),%rax
    7f39:	48 8b 00             	mov    (%rax),%rax
    7f3c:	8b 00                	mov    (%rax),%eax
    7f3e:	39 c2                	cmp    %eax,%edx
    7f40:	0f 95 c0             	setne  %al
    7f43:	0f b6 c0             	movzbl %al,%eax
    7f46:	89 c6                	mov    %eax,%esi
    7f48:	bf 62 cd ff ff       	mov    $0xffffcd62,%edi
    7f4d:	e8 61 d4 ff ff       	callq  53b3 <safe_add_func_int16_t_s_s>
    7f52:	f7 d0                	not    %eax
    7f54:	66 c1 e8 0f          	shr    $0xf,%ax
    7f58:	0f b6 c0             	movzbl %al,%eax
    7f5b:	39 c3                	cmp    %eax,%ebx
    7f5d:	0f 93 c0             	setae  %al
    7f60:	0f b6 d0             	movzbl %al,%edx
    7f63:	8b 85 5c f3 ff ff    	mov    -0xca4(%rbp),%eax
    7f69:	09 d0                	or     %edx,%eax
    7f6b:	89 85 5c f3 ff ff    	mov    %eax,-0xca4(%rbp)
    7f71:	0f b7 05 38 ea 00 00 	movzwl 0xea38(%rip),%eax        # 169b0 <g_334>
    7f78:	0f b7 d8             	movzwl %ax,%ebx
    7f7b:	0f b7 05 7a 02 01 00 	movzwl 0x1027a(%rip),%eax        # 181fc <g_1147+0x12bc>
    7f82:	66 25 ff 07          	and    $0x7ff,%ax
    7f86:	44 0f b7 e0          	movzwl %ax,%r12d
    7f8a:	48 8b 85 30 f4 ff ff 	mov    -0xbd0(%rbp),%rax
    7f91:	8b 10                	mov    (%rax),%edx
    7f93:	48 8b 05 46 20 01 00 	mov    0x12046(%rip),%rax        # 19fe0 <g_704>
    7f9a:	8b 00                	mov    (%rax),%eax
    7f9c:	21 c2                	and    %eax,%edx
    7f9e:	48 8b 85 30 f4 ff ff 	mov    -0xbd0(%rbp),%rax
    7fa5:	89 10                	mov    %edx,(%rax)
    7fa7:	48 8b 85 30 f4 ff ff 	mov    -0xbd0(%rbp),%rax
    7fae:	8b 00                	mov    (%rax),%eax
    7fb0:	85 c0                	test   %eax,%eax
    7fb2:	0f 85 93 00 00 00    	jne    804b <func_1+0x1896>
    7fb8:	44 8b ad 4c f5 ff ff 	mov    -0xab4(%rbp),%r13d
    7fbf:	8b 85 ec f5 ff ff    	mov    -0xa14(%rbp),%eax
    7fc5:	0f bf d0             	movswl %ax,%edx
    7fc8:	48 8d 85 90 f4 ff ff 	lea    -0xb70(%rbp),%rax
    7fcf:	48 89 85 60 f4 ff ff 	mov    %rax,-0xba0(%rbp)
    7fd6:	48 8b 85 60 f4 ff ff 	mov    -0xba0(%rbp),%rax
    7fdd:	48 3b 85 78 f4 ff ff 	cmp    -0xb88(%rbp),%rax
    7fe4:	0f 94 c0             	sete   %al
    7fe7:	0f b6 c0             	movzbl %al,%eax
    7fea:	89 d6                	mov    %edx,%esi
    7fec:	89 c7                	mov    %eax,%edi
    7fee:	e8 02 d4 ff ff       	callq  53f5 <safe_mul_func_int16_t_s_s>
    7ff3:	89 c2                	mov    %eax,%edx
    7ff5:	48 8b 85 68 f4 ff ff 	mov    -0xb98(%rbp),%rax
    7ffc:	66 89 10             	mov    %dx,(%rax)
    7fff:	48 8b 85 68 f4 ff ff 	mov    -0xb98(%rbp),%rax
    8006:	0f b7 00             	movzwl (%rax),%eax
    8009:	0f b7 d0             	movzwl %ax,%edx
    800c:	48 8b 85 f0 f3 ff ff 	mov    -0xc10(%rbp),%rax
    8013:	48 8b 00             	mov    (%rax),%rax
    8016:	8b 00                	mov    (%rax),%eax
    8018:	39 c2                	cmp    %eax,%edx
    801a:	0f 9c c0             	setl   %al
    801d:	0f b6 d0             	movzbl %al,%edx
    8020:	48 8b 85 f0 f3 ff ff 	mov    -0xc10(%rbp),%rax
    8027:	48 8b 00             	mov    (%rax),%rax
    802a:	8b 00                	mov    (%rax),%eax
    802c:	39 c2                	cmp    %eax,%edx
    802e:	0f 9e c0             	setle  %al
    8031:	0f b6 c0             	movzbl %al,%eax
    8034:	44 89 ee             	mov    %r13d,%esi
    8037:	89 c7                	mov    %eax,%edi
    8039:	e8 c8 dd ff ff       	callq  5e06 <safe_lshift_func_uint16_t_u_u>
    803e:	0f b7 c0             	movzwl %ax,%eax
    8041:	25 8c 36 3f 81       	and    $0x813f368c,%eax
    8046:	48 85 c0             	test   %rax,%rax
    8049:	74 07                	je     8052 <func_1+0x189d>
    804b:	b8 01 00 00 00       	mov    $0x1,%eax
    8050:	eb 05                	jmp    8057 <func_1+0x18a2>
    8052:	b8 00 00 00 00       	mov    $0x0,%eax
    8057:	3d ac 00 00 00       	cmp    $0xac,%eax
    805c:	0f 95 c0             	setne  %al
    805f:	44 0f b6 e8          	movzbl %al,%r13d
    8063:	48 8b 85 90 f4 ff ff 	mov    -0xb70(%rbp),%rax
    806a:	0f be c0             	movsbl %al,%eax
    806d:	be 02 00 00 00       	mov    $0x2,%esi
    8072:	89 c7                	mov    %eax,%edi
    8074:	e8 f3 d2 ff ff       	callq  536c <safe_rshift_func_int8_t_s_u>
    8079:	66 98                	cbtw   
    807b:	0f b7 c0             	movzwl %ax,%eax
    807e:	44 89 ee             	mov    %r13d,%esi
    8081:	89 c7                	mov    %eax,%edi
    8083:	e8 77 dc ff ff       	callq  5cff <safe_add_func_uint16_t_u_u>
    8088:	0f b7 c0             	movzwl %ax,%eax
    808b:	4c 89 e6             	mov    %r12,%rsi
    808e:	48 89 c7             	mov    %rax,%rdi
    8091:	e8 61 d9 ff ff       	callq  59f7 <safe_div_func_int64_t_s_s>
    8096:	f7 d0                	not    %eax
    8098:	0f b6 c0             	movzbl %al,%eax
    809b:	89 de                	mov    %ebx,%esi
    809d:	89 c7                	mov    %eax,%edi
    809f:	e8 a8 db ff ff       	callq  5c4c <safe_lshift_func_uint8_t_u_u>
    80a4:	48 8b 95 d0 f4 ff ff 	mov    -0xb30(%rbp),%rdx
    80ab:	48 8b 85 70 f4 ff ff 	mov    -0xb90(%rbp),%rax
    80b2:	48 89 10             	mov    %rdx,(%rax)
    80b5:	48 8b 85 70 f4 ff ff 	mov    -0xb90(%rbp),%rax
    80bc:	48 8b 00             	mov    (%rax),%rax
    80bf:	48 39 85 20 f4 ff ff 	cmp    %rax,-0xbe0(%rbp)
    80c6:	0f 94 c0             	sete   %al
    80c9:	0f b6 c0             	movzbl %al,%eax
    80cc:	be 05 00 00 00       	mov    $0x5,%esi
    80d1:	89 c7                	mov    %eax,%edi
    80d3:	e8 16 d2 ff ff       	callq  52ee <safe_lshift_func_int8_t_s_u>
    80d8:	84 c0                	test   %al,%al
    80da:	0f 9f c0             	setg   %al
    80dd:	0f b6 d0             	movzbl %al,%edx
    80e0:	48 8b 85 f8 f3 ff ff 	mov    -0xc08(%rbp),%rax
    80e7:	48 3b 85 08 f4 ff ff 	cmp    -0xbf8(%rbp),%rax
    80ee:	75 09                	jne    80f9 <func_1+0x1944>
    80f0:	80 bd 54 f3 ff ff 00 	cmpb   $0x0,-0xcac(%rbp)
    80f7:	74 07                	je     8100 <func_1+0x194b>
    80f9:	b8 01 00 00 00       	mov    $0x1,%eax
    80fe:	eb 05                	jmp    8105 <func_1+0x1950>
    8100:	b8 00 00 00 00       	mov    $0x0,%eax
    8105:	0f b7 c0             	movzwl %ax,%eax
    8108:	89 d6                	mov    %edx,%esi
    810a:	89 c7                	mov    %eax,%edi
    810c:	e8 2c dc ff ff       	callq  5d3d <safe_mul_func_uint16_t_u_u>
    8111:	66 85 c0             	test   %ax,%ax
    8114:	75 08                	jne    811e <func_1+0x1969>
    8116:	66 83 bd 58 f3 ff ff 	cmpw   $0x0,-0xca8(%rbp)
    811d:	00 
    811e:	b8 01 00 00 00       	mov    $0x1,%eax
    8123:	21 85 64 f3 ff ff    	and    %eax,-0xc9c(%rbp)
    8129:	0f b6 85 53 f3 ff ff 	movzbl -0xcad(%rbp),%eax
    8130:	0f be c0             	movsbl %al,%eax
    8133:	be 08 00 00 00       	mov    $0x8,%esi
    8138:	89 c7                	mov    %eax,%edi
    813a:	e8 b3 d0 ff ff       	callq  51f2 <safe_sub_func_int8_t_s_s>
    813f:	88 85 53 f3 ff ff    	mov    %al,-0xcad(%rbp)
    8145:	0f b6 85 53 f3 ff ff 	movzbl -0xcad(%rbp),%eax
    814c:	3c ea                	cmp    $0xea,%al
    814e:	0f 8c 05 fb ff ff    	jl     7c59 <func_1+0x14a4>
    8154:	eb 26                	jmp    817c <func_1+0x19c7>
    8156:	48 8b 05 03 22 01 00 	mov    0x12203(%rip),%rax        # 1a360 <g_1282>
    815d:	48 8b 10             	mov    (%rax),%rdx
    8160:	48 8b 05 f9 21 01 00 	mov    0x121f9(%rip),%rax        # 1a360 <g_1282>
    8167:	48 8b 00             	mov    (%rax),%rax
    816a:	48 8b 12             	mov    (%rdx),%rdx
    816d:	48 89 10             	mov    %rdx,(%rax)
    8170:	0f b7 85 58 f3 ff ff 	movzwl -0xca8(%rbp),%eax
    8177:	e9 2d 01 00 00       	jmpq   82a9 <func_1+0x1af4>
    817c:	8b 85 60 f3 ff ff    	mov    -0xca0(%rbp),%eax
    8182:	85 c0                	test   %eax,%eax
    8184:	75 59                	jne    81df <func_1+0x1a2a>
    8186:	8b 05 d4 de 00 00    	mov    0xded4(%rip),%eax        # 16060 <g_64>
    818c:	0f b7 c0             	movzwl %ax,%eax
    818f:	89 c6                	mov    %eax,%esi
    8191:	bf 81 13 00 00       	mov    $0x1381,%edi
    8196:	e8 84 db ff ff       	callq  5d1f <safe_sub_func_uint16_t_u_u>
    819b:	0f b7 d0             	movzwl %ax,%edx
    819e:	48 8b 85 e0 f3 ff ff 	mov    -0xc20(%rbp),%rax
    81a5:	48 89 10             	mov    %rdx,(%rax)
    81a8:	48 8d 85 60 f3 ff ff 	lea    -0xca0(%rbp),%rax
    81af:	48 89 c7             	mov    %rax,%rdi
    81b2:	e8 88 2b 00 00       	callq  ad3f <func_37>
    81b7:	48 8b 1d a2 20 01 00 	mov    0x120a2(%rip),%rbx        # 1a260 <g_1246>
    81be:	48 89 c6             	mov    %rax,%rsi
    81c1:	48 8d 3d e0 25 01 00 	lea    0x125e0(%rip),%rdi        # 1a7a8 <g_96>
    81c8:	e8 cf 2a 00 00       	callq  ac9c <func_34>
    81cd:	48 89 03             	mov    %rax,(%rbx)
    81d0:	48 8b 03             	mov    (%rbx),%rax
    81d3:	48 8d 15 aa de 00 00 	lea    0xdeaa(%rip),%rdx        # 16084 <g_108>
    81da:	48 39 d0             	cmp    %rdx,%rax
    81dd:	75 07                	jne    81e6 <func_1+0x1a31>
    81df:	b9 01 00 00 00       	mov    $0x1,%ecx
    81e4:	eb 05                	jmp    81eb <func_1+0x1a36>
    81e6:	b9 00 00 00 00       	mov    $0x0,%ecx
    81eb:	48 8b 85 f0 f3 ff ff 	mov    -0xc10(%rbp),%rax
    81f2:	48 8b 00             	mov    (%rax),%rax
    81f5:	8b 10                	mov    (%rax),%edx
    81f7:	48 8b 85 f0 f3 ff ff 	mov    -0xc10(%rbp),%rax
    81fe:	48 8b 00             	mov    (%rax),%rax
    8201:	21 ca                	and    %ecx,%edx
    8203:	89 10                	mov    %edx,(%rax)
    8205:	8b 05 f5 e1 00 00    	mov    0xe1f5(%rip),%eax        # 16400 <g_161>
    820b:	83 c0 01             	add    $0x1,%eax
    820e:	89 05 ec e1 00 00    	mov    %eax,0xe1ec(%rip)        # 16400 <g_161>
    8214:	8b 05 e6 e1 00 00    	mov    0xe1e6(%rip),%eax        # 16400 <g_161>
    821a:	83 f8 13             	cmp    $0x13,%eax
    821d:	0f 87 4d e9 ff ff    	ja     6b70 <func_1+0x3bb>
    8223:	48 8b 05 3e 20 01 00 	mov    0x1203e(%rip),%rax        # 1a268 <g_1248>
    822a:	48 8b 00             	mov    (%rax),%rax
    822d:	48 39 85 10 f4 ff ff 	cmp    %rax,-0xbf0(%rbp)
    8234:	0f 94 c2             	sete   %dl
    8237:	48 8b 85 f0 f3 ff ff 	mov    -0xc10(%rbp),%rax
    823e:	48 8b 00             	mov    (%rax),%rax
    8241:	0f b6 d2             	movzbl %dl,%edx
    8244:	89 10                	mov    %edx,(%rax)
    8246:	0f b7 05 cb e6 00 00 	movzwl 0xe6cb(%rip),%eax        # 16918 <g_233>
    824d:	0f be c0             	movsbl %al,%eax
    8250:	be 05 00 00 00       	mov    $0x5,%esi
    8255:	89 c7                	mov    %eax,%edi
    8257:	e8 78 cf ff ff       	callq  51d4 <safe_add_func_int8_t_s_s>
    825c:	66 98                	cbtw   
    825e:	66 89 05 b3 e6 00 00 	mov    %ax,0xe6b3(%rip)        # 16918 <g_233>
    8265:	0f b7 05 ac e6 00 00 	movzwl 0xe6ac(%rip),%eax        # 16918 <g_233>
    826c:	66 83 f8 1c          	cmp    $0x1c,%ax
    8270:	0f 84 a6 e8 ff ff    	je     6b1c <func_1+0x367>
    8276:	8b 05 c8 dd 00 00    	mov    0xddc8(%rip),%eax        # 16044 <g_2+0x14>
    827c:	0f b6 c0             	movzbl %al,%eax
    827f:	be 08 00 00 00       	mov    $0x8,%esi
    8284:	89 c7                	mov    %eax,%edi
    8286:	e8 ed d8 ff ff       	callq  5b78 <safe_sub_func_uint8_t_u_u>
    828b:	0f b6 c0             	movzbl %al,%eax
    828e:	89 05 b0 dd 00 00    	mov    %eax,0xddb0(%rip)        # 16044 <g_2+0x14>
    8294:	8b 05 aa dd 00 00    	mov    0xddaa(%rip),%eax        # 16044 <g_2+0x14>
    829a:	83 f8 f6             	cmp    $0xfffffff6,%eax
    829d:	0f 8d b2 e5 ff ff    	jge    6855 <func_1+0xa0>
    82a3:	8b 85 74 f3 ff ff    	mov    -0xc8c(%rbp),%eax
    82a9:	48 8b 4d c8          	mov    -0x38(%rbp),%rcx
    82ad:	64 48 33 0c 25 28 00 	xor    %fs:0x28,%rcx
    82b4:	00 00 
    82b6:	74 05                	je     82bd <func_1+0x1b08>
    82b8:	e8 b3 cd ff ff       	callq  5070 <__stack_chk_fail@plt>
    82bd:	48 81 c4 88 0c 00 00 	add    $0xc88,%rsp
    82c4:	5b                   	pop    %rbx
    82c5:	41 5c                	pop    %r12
    82c7:	41 5d                	pop    %r13
    82c9:	41 5e                	pop    %r14
    82cb:	41 5f                	pop    %r15
    82cd:	5d                   	pop    %rbp
    82ce:	c3                   	retq   

00000000000082cf <func_28>:
    82cf:	f3 0f 1e fa          	endbr64 
    82d3:	55                   	push   %rbp
    82d4:	48 89 e5             	mov    %rsp,%rbp
    82d7:	41 57                	push   %r15
    82d9:	41 56                	push   %r14
    82db:	41 55                	push   %r13
    82dd:	41 54                	push   %r12
    82df:	53                   	push   %rbx
    82e0:	48 81 ec 78 0b 00 00 	sub    $0xb78,%rsp
    82e7:	48 89 bd 98 f4 ff ff 	mov    %rdi,-0xb68(%rbp)
    82ee:	48 89 b5 90 f4 ff ff 	mov    %rsi,-0xb70(%rbp)
    82f5:	89 d0                	mov    %edx,%eax
    82f7:	89 8d 88 f4 ff ff    	mov    %ecx,-0xb78(%rbp)
    82fd:	4c 89 85 80 f4 ff ff 	mov    %r8,-0xb80(%rbp)
    8304:	66 89 85 8c f4 ff ff 	mov    %ax,-0xb74(%rbp)
    830b:	64 48 8b 04 25 28 00 	mov    %fs:0x28,%rax
    8312:	00 00 
    8314:	48 89 45 c8          	mov    %rax,-0x38(%rbp)
    8318:	31 c0                	xor    %eax,%eax
    831a:	48 c7 85 d0 f5 ff ff 	movq   $0x0,-0xa30(%rbp)
    8321:	00 00 00 00 
    8325:	48 c7 85 d8 f5 ff ff 	movq   $0x0,-0xa28(%rbp)
    832c:	00 00 00 00 
    8330:	48 8d 05 a9 1c 01 00 	lea    0x11ca9(%rip),%rax        # 19fe0 <g_704>
    8337:	48 89 85 e0 f5 ff ff 	mov    %rax,-0xa20(%rbp)
    833e:	48 8d 05 1b dd 00 00 	lea    0xdd1b(%rip),%rax        # 16060 <g_64>
    8345:	48 89 85 60 f5 ff ff 	mov    %rax,-0xaa0(%rbp)
    834c:	48 8d 85 60 f5 ff ff 	lea    -0xaa0(%rbp),%rax
    8353:	48 89 85 e8 f5 ff ff 	mov    %rax,-0xa18(%rbp)
    835a:	48 c7 85 f0 f5 ff ff 	movq   $0x0,-0xa10(%rbp)
    8361:	00 00 00 00 
    8365:	48 8d 05 04 dd 00 00 	lea    0xdd04(%rip),%rax        # 16070 <g_106>
    836c:	48 89 85 f8 f5 ff ff 	mov    %rax,-0xa08(%rbp)
    8373:	c7 85 f4 f4 ff ff a3 	movl   $0x3323a5a3,-0xb0c(%rbp)
    837a:	a5 23 33 
    837d:	48 8d 05 48 dd 00 00 	lea    0xdd48(%rip),%rax        # 160cc <g_135>
    8384:	48 89 85 68 f5 ff ff 	mov    %rax,-0xa98(%rbp)
    838b:	48 8d 05 8e df 00 00 	lea    0xdf8e(%rip),%rax        # 16320 <g_147>
    8392:	48 89 85 00 f6 ff ff 	mov    %rax,-0xa00(%rbp)
    8399:	48 c7 85 08 f6 ff ff 	movq   $0x1,-0x9f8(%rbp)
    83a0:	01 00 00 00 
    83a4:	48 c7 85 10 f6 ff ff 	movq   $0x0,-0x9f0(%rbp)
    83ab:	00 00 00 00 
    83af:	48 c7 85 70 f5 ff ff 	movq   $0x0,-0xa90(%rbp)
    83b6:	00 00 00 00 
    83ba:	48 8d 85 70 f5 ff ff 	lea    -0xa90(%rbp),%rax
    83c1:	48 89 85 78 f5 ff ff 	mov    %rax,-0xa88(%rbp)
    83c8:	48 8d 85 78 f5 ff ff 	lea    -0xa88(%rbp),%rax
    83cf:	48 89 85 80 f5 ff ff 	mov    %rax,-0xa80(%rbp)
    83d6:	c7 85 f8 f4 ff ff 01 	movl   $0x1,-0xb08(%rbp)
    83dd:	00 00 00 
    83e0:	c7 85 fc f4 ff ff 17 	movl   $0x81b90217,-0xb04(%rbp)
    83e7:	02 b9 81 
    83ea:	66 c7 85 ac f4 ff ff 	movw   $0x68dd,-0xb54(%rbp)
    83f1:	dd 68 
    83f3:	48 8d 05 be 1b 01 00 	lea    0x11bbe(%rip),%rax        # 19fb8 <g_496>
    83fa:	48 89 85 18 f6 ff ff 	mov    %rax,-0x9e8(%rbp)
    8401:	c7 85 c4 f4 ff ff 00 	movl   $0x0,-0xb3c(%rbp)
    8408:	00 00 00 
    840b:	eb 1e                	jmp    842b <func_28+0x15c>
    840d:	8b 85 c4 f4 ff ff    	mov    -0xb3c(%rbp),%eax
    8413:	48 98                	cltq   
    8415:	48 8d 15 b4 23 01 00 	lea    0x123b4(%rip),%rdx        # 1a7d0 <g_208>
    841c:	48 89 94 c5 f8 f7 ff 	mov    %rdx,-0x808(%rbp,%rax,8)
    8423:	ff 
    8424:	83 85 c4 f4 ff ff 01 	addl   $0x1,-0xb3c(%rbp)
    842b:	83 bd c4 f4 ff ff 00 	cmpl   $0x0,-0xb3c(%rbp)
    8432:	7e d9                	jle    840d <func_28+0x13e>
    8434:	48 8d 05 0d dc 00 00 	lea    0xdc0d(%rip),%rax        # 16048 <g_2+0x18>
    843b:	48 89 85 98 f4 ff ff 	mov    %rax,-0xb68(%rbp)
    8442:	48 8b 85 e0 f5 ff ff 	mov    -0xa20(%rbp),%rax
    8449:	48 8b 95 98 f4 ff ff 	mov    -0xb68(%rbp),%rdx
    8450:	48 89 10             	mov    %rdx,(%rax)
    8453:	0f b6 05 ee e5 00 00 	movzbl 0xe5ee(%rip),%eax        # 16a48 <g_515>
    845a:	0f b6 d8             	movzbl %al,%ebx
    845d:	44 8b a5 88 f4 ff ff 	mov    -0xb78(%rbp),%r12d
    8464:	8b 85 88 f4 ff ff    	mov    -0xb78(%rbp),%eax
    846a:	44 0f bf e8          	movswl %ax,%r13d
    846e:	8b 05 4c e0 00 00    	mov    0xe04c(%rip),%eax        # 164c0 <g_168>
    8474:	41 89 c6             	mov    %eax,%r14d
    8477:	8b 05 33 dc 00 00    	mov    0xdc33(%rip),%eax        # 160b0 <g_133+0x10>
    847d:	41 89 c7             	mov    %eax,%r15d
    8480:	48 8b 85 80 f4 ff ff 	mov    -0xb80(%rbp),%rax
    8487:	8b 00                	mov    (%rax),%eax
    8489:	89 c2                	mov    %eax,%edx
    848b:	8b 05 8f de 00 00    	mov    0xde8f(%rip),%eax        # 16320 <g_147>
    8491:	39 c2                	cmp    %eax,%edx
    8493:	0f 97 c0             	seta   %al
    8496:	0f b6 c0             	movzbl %al,%eax
    8499:	39 85 88 f4 ff ff    	cmp    %eax,-0xb78(%rbp)
    849f:	0f 93 c0             	setae  %al
    84a2:	0f b6 c0             	movzbl %al,%eax
    84a5:	48 89 c6             	mov    %rax,%rsi
    84a8:	48 c7 c7 fe ff ff ff 	mov    $0xfffffffffffffffe,%rdi
    84af:	e8 97 db ff ff       	callq  604b <safe_sub_func_uint64_t_u_u>
    84b4:	98                   	cwtl   
    84b5:	be fe ff ff ff       	mov    $0xfffffffe,%esi
    84ba:	89 c7                	mov    %eax,%edi
    84bc:	e8 94 cf ff ff       	callq  5455 <safe_div_func_int16_t_s_s>
    84c1:	98                   	cwtl   
    84c2:	44 89 fe             	mov    %r15d,%esi
    84c5:	89 c7                	mov    %eax,%edi
    84c7:	e8 33 d2 ff ff       	callq  56ff <safe_div_func_int32_t_s_s>
    84cc:	85 c0                	test   %eax,%eax
    84ce:	0f 94 c0             	sete   %al
    84d1:	0f b6 d0             	movzbl %al,%edx
    84d4:	48 83 bd f0 f5 ff ff 	cmpq   $0x0,-0xa10(%rbp)
    84db:	00 
    84dc:	0f 95 c0             	setne  %al
    84df:	0f b6 c0             	movzbl %al,%eax
    84e2:	89 d6                	mov    %edx,%esi
    84e4:	89 c7                	mov    %eax,%edi
    84e6:	e8 1a d7 ff ff       	callq  5c05 <safe_lshift_func_uint8_t_u_s>
    84eb:	0f b6 c0             	movzbl %al,%eax
    84ee:	4c 89 f6             	mov    %r14,%rsi
    84f1:	48 89 c7             	mov    %rax,%rdi
    84f4:	e8 b6 db ff ff       	callq  60af <safe_div_func_uint64_t_u_u>
    84f9:	89 c2                	mov    %eax,%edx
    84fb:	48 8b 85 f8 f5 ff ff 	mov    -0xa08(%rbp),%rax
    8502:	66 89 10             	mov    %dx,(%rax)
    8505:	48 8b 85 f8 f5 ff ff 	mov    -0xa08(%rbp),%rax
    850c:	0f b7 00             	movzwl (%rax),%eax
    850f:	98                   	cwtl   
    8510:	44 89 ee             	mov    %r13d,%esi
    8513:	89 c7                	mov    %eax,%edi
    8515:	e8 db ce ff ff       	callq  53f5 <safe_mul_func_int16_t_s_s>
    851a:	48 0f bf c0          	movswq %ax,%rax
    851e:	4c 89 e6             	mov    %r12,%rsi
    8521:	48 89 c7             	mov    %rax,%rdi
    8524:	e8 57 db ff ff       	callq  6080 <safe_mod_func_uint64_t_u_u>
    8529:	ba cc 6e ed 96       	mov    $0x96ed6ecc,%edx
    852e:	48 39 d0             	cmp    %rdx,%rax
    8531:	0f 96 c0             	setbe  %al
    8534:	0f b6 d0             	movzbl %al,%edx
    8537:	8b 05 c7 de 00 00    	mov    0xdec7(%rip),%eax        # 16404 <g_162>
    853d:	39 c2                	cmp    %eax,%edx
    853f:	0f 93 c0             	setae  %al
    8542:	0f b6 c0             	movzbl %al,%eax
    8545:	89 de                	mov    %ebx,%esi
    8547:	89 c7                	mov    %eax,%edi
    8549:	e8 a0 cd ff ff       	callq  52ee <safe_lshift_func_int8_t_s_u>
    854e:	66 98                	cbtw   
    8550:	0f b7 d8             	movzwl %ax,%ebx
    8553:	8b 05 93 de 00 00    	mov    0xde93(%rip),%eax        # 163ec <g_155>
    8559:	89 c2                	mov    %eax,%edx
    855b:	48 8b 05 7e 1a 01 00 	mov    0x11a7e(%rip),%rax        # 19fe0 <g_704>
    8562:	8b 00                	mov    (%rax),%eax
    8564:	89 d6                	mov    %edx,%esi
    8566:	89 c7                	mov    %eax,%edi
    8568:	e8 98 d0 ff ff       	callq  5605 <safe_sub_func_int32_t_s_s>
    856d:	0f b7 c0             	movzwl %ax,%eax
    8570:	89 de                	mov    %ebx,%esi
    8572:	89 c7                	mov    %eax,%edi
    8574:	e8 86 d7 ff ff       	callq  5cff <safe_add_func_uint16_t_u_u>
    8579:	66 85 c0             	test   %ax,%ax
    857c:	0f 84 02 02 00 00    	je     8784 <func_28+0x4b5>
    8582:	48 c7 85 c8 f7 ff ff 	movq   $0x0,-0x838(%rbp)
    8589:	00 00 00 00 
    858d:	48 8d 05 ac 1a 01 00 	lea    0x11aac(%rip),%rax        # 1a040 <g_811>
    8594:	48 89 85 d0 f7 ff ff 	mov    %rax,-0x830(%rbp)
    859b:	48 c7 85 b8 f5 ff ff 	movq   $0x0,-0xa48(%rbp)
    85a2:	00 00 00 00 
    85a6:	48 8d 85 b8 f5 ff ff 	lea    -0xa48(%rbp),%rax
    85ad:	48 89 85 d8 f7 ff ff 	mov    %rax,-0x828(%rbp)
    85b4:	c7 85 90 f9 ff ff cd 	movl   $0x1079a8cd,-0x670(%rbp)
    85bb:	a8 79 10 
    85be:	c7 85 94 f9 ff ff cd 	movl   $0x1079a8cd,-0x66c(%rbp)
    85c5:	a8 79 10 
    85c8:	c7 85 98 f9 ff ff ff 	movl   $0xffffffff,-0x668(%rbp)
    85cf:	ff ff ff 
    85d2:	c7 85 9c f9 ff ff cd 	movl   $0x1079a8cd,-0x664(%rbp)
    85d9:	a8 79 10 
    85dc:	c7 85 a0 f9 ff ff cd 	movl   $0x1079a8cd,-0x660(%rbp)
    85e3:	a8 79 10 
    85e6:	c7 85 a4 f9 ff ff ff 	movl   $0xffffffff,-0x65c(%rbp)
    85ed:	ff ff ff 
    85f0:	c7 85 a8 f9 ff ff cd 	movl   $0x1079a8cd,-0x658(%rbp)
    85f7:	a8 79 10 
    85fa:	c7 85 ac f9 ff ff cd 	movl   $0x1079a8cd,-0x654(%rbp)
    8601:	a8 79 10 
    8604:	c7 85 b0 f9 ff ff ff 	movl   $0xffffffff,-0x650(%rbp)
    860b:	ff ff ff 
    860e:	48 8d 85 60 f5 ff ff 	lea    -0xaa0(%rbp),%rax
    8615:	48 89 85 e0 f7 ff ff 	mov    %rax,-0x820(%rbp)
    861c:	48 8d 85 68 f5 ff ff 	lea    -0xa98(%rbp),%rax
    8623:	48 89 85 e8 f7 ff ff 	mov    %rax,-0x818(%rbp)
    862a:	c7 85 c0 f4 ff ff 00 	movl   $0x0,-0xb40(%rbp)
    8631:	00 00 00 
    8634:	eb 1e                	jmp    8654 <func_28+0x385>
    8636:	8b 85 c0 f4 ff ff    	mov    -0xb40(%rbp),%eax
    863c:	48 98                	cltq   
    863e:	48 8d 15 63 19 01 00 	lea    0x11963(%rip),%rdx        # 19fa8 <g_201>
    8645:	48 89 94 c5 60 fc ff 	mov    %rdx,-0x3a0(%rbp,%rax,8)
    864c:	ff 
    864d:	83 85 c0 f4 ff ff 01 	addl   $0x1,-0xb40(%rbp)
    8654:	83 bd c0 f4 ff ff 04 	cmpl   $0x4,-0xb40(%rbp)
    865b:	7e d9                	jle    8636 <func_28+0x367>
    865d:	48 8b 15 dc 19 01 00 	mov    0x119dc(%rip),%rdx        # 1a040 <g_811>
    8664:	48 8b 85 d0 f7 ff ff 	mov    -0x830(%rbp),%rax
    866b:	48 89 10             	mov    %rdx,(%rax)
    866e:	48 8b 85 d0 f7 ff ff 	mov    -0x830(%rbp),%rax
    8675:	48 8b 08             	mov    (%rax),%rcx
    8678:	48 8b 95 b8 f5 ff ff 	mov    -0xa48(%rbp),%rdx
    867f:	48 8b 85 d8 f7 ff ff 	mov    -0x828(%rbp),%rax
    8686:	48 89 10             	mov    %rdx,(%rax)
    8689:	48 8b 85 d8 f7 ff ff 	mov    -0x828(%rbp),%rax
    8690:	48 8b 00             	mov    (%rax),%rax
    8693:	48 39 c1             	cmp    %rax,%rcx
    8696:	0f 94 c0             	sete   %al
    8699:	44 0f b6 f0          	movzbl %al,%r14d
    869d:	48 8b 85 e0 f5 ff ff 	mov    -0xa20(%rbp),%rax
    86a4:	48 8b 00             	mov    (%rax),%rax
    86a7:	8b 18                	mov    (%rax),%ebx
    86a9:	0f b7 05 a0 e3 00 00 	movzwl 0xe3a0(%rip),%eax        # 16a50 <g_578>
    86b0:	44 0f be e0          	movsbl %al,%r12d
    86b4:	48 8b 05 e5 18 01 00 	mov    0x118e5(%rip),%rax        # 19fa0 <g_191>
    86bb:	0f b6 00             	movzbl (%rax),%eax
    86be:	44 0f be e8          	movsbl %al,%r13d
    86c2:	8b 85 88 f4 ff ff    	mov    -0xb78(%rbp),%eax
    86c8:	0f b7 c0             	movzwl %ax,%eax
    86cb:	89 c6                	mov    %eax,%esi
    86cd:	bf 00 00 00 00       	mov    $0x0,%edi
    86d2:	e8 b7 d6 ff ff       	callq  5d8e <safe_div_func_uint16_t_u_u>
    86d7:	0f b6 c0             	movzbl %al,%eax
    86da:	be 03 00 00 00       	mov    $0x3,%esi
    86df:	89 c7                	mov    %eax,%edi
    86e1:	e8 a7 d5 ff ff       	callq  5c8d <safe_rshift_func_uint8_t_u_s>
    86e6:	83 bd 88 f4 ff ff 01 	cmpl   $0x1,-0xb78(%rbp)
    86ed:	0f 94 c0             	sete   %al
    86f0:	0f b6 c0             	movzbl %al,%eax
    86f3:	44 89 ee             	mov    %r13d,%esi
    86f6:	89 c7                	mov    %eax,%edi
    86f8:	e8 90 d5 ff ff       	callq  5c8d <safe_rshift_func_uint8_t_u_s>
    86fd:	0f b6 d0             	movzbl %al,%edx
    8700:	8b 05 1e dc 00 00    	mov    0xdc1e(%rip),%eax        # 16324 <g_148>
    8706:	09 d0                	or     %edx,%eax
    8708:	85 c0                	test   %eax,%eax
    870a:	0f 94 c0             	sete   %al
    870d:	0f b6 d0             	movzbl %al,%edx
    8710:	8b 85 90 f9 ff ff    	mov    -0x670(%rbp),%eax
    8716:	39 c2                	cmp    %eax,%edx
    8718:	75 07                	jne    8721 <func_28+0x452>
    871a:	83 bd 88 f4 ff ff 00 	cmpl   $0x0,-0xb78(%rbp)
    8721:	48 8d 85 60 f5 ff ff 	lea    -0xaa0(%rbp),%rax
    8728:	48 39 85 e0 f7 ff ff 	cmp    %rax,-0x820(%rbp)
    872f:	0f 95 c0             	setne  %al
    8732:	0f b6 c0             	movzbl %al,%eax
    8735:	44 89 e6             	mov    %r12d,%esi
    8738:	89 c7                	mov    %eax,%edi
    873a:	e8 2b cb ff ff       	callq  526a <safe_div_func_int8_t_s_s>
    873f:	0f be c0             	movsbl %al,%eax
    8742:	89 de                	mov    %ebx,%esi
    8744:	89 c7                	mov    %eax,%edi
    8746:	e8 ea cb ff ff       	callq  5335 <safe_rshift_func_int8_t_s_s>
    874b:	0f be c0             	movsbl %al,%eax
    874e:	41 39 c6             	cmp    %eax,%r14d
    8751:	0f 9c c0             	setl   %al
    8754:	0f b6 c0             	movzbl %al,%eax
    8757:	21 85 f4 f4 ff ff    	and    %eax,-0xb0c(%rbp)
    875d:	48 8b 95 68 f5 ff ff 	mov    -0xa98(%rbp),%rdx
    8764:	48 8b 85 e8 f7 ff ff 	mov    -0x818(%rbp),%rax
    876b:	48 89 10             	mov    %rdx,(%rax)
    876e:	48 8b 85 e8 f7 ff ff 	mov    -0x818(%rbp),%rax
    8775:	48 8b 00             	mov    (%rax),%rax
    8778:	48 89 85 00 f6 ff ff 	mov    %rax,-0xa00(%rbp)
    877f:	e9 e6 24 00 00       	jmpq   ac6a <func_28+0x299b>
    8784:	48 8d 05 01 e7 00 00 	lea    0xe701(%rip),%rax        # 16e8c <g_772>
    878b:	48 89 85 20 f6 ff ff 	mov    %rax,-0x9e0(%rbp)
    8792:	48 c7 85 88 f5 ff ff 	movq   $0xfffffffffffffffb,-0xa78(%rbp)
    8799:	fb ff ff ff 
    879d:	48 c7 85 28 f6 ff ff 	movq   $0x0,-0x9d8(%rbp)
    87a4:	00 00 00 00 
    87a8:	48 8d 05 f1 17 01 00 	lea    0x117f1(%rip),%rax        # 19fa0 <g_191>
    87af:	48 89 85 90 f5 ff ff 	mov    %rax,-0xa70(%rbp)
    87b6:	48 8d 05 93 e2 00 00 	lea    0xe293(%rip),%rax        # 16a50 <g_578>
    87bd:	48 89 85 98 f5 ff ff 	mov    %rax,-0xa68(%rbp)
    87c4:	48 8d 85 98 f5 ff ff 	lea    -0xa68(%rbp),%rax
    87cb:	48 89 85 a0 f5 ff ff 	mov    %rax,-0xa60(%rbp)
    87d2:	c6 85 a6 f4 ff ff fc 	movb   $0xfc,-0xb5a(%rbp)
    87d9:	48 8d 05 08 20 01 00 	lea    0x12008(%rip),%rax        # 1a7e8 <g_497>
    87e0:	48 89 85 30 f6 ff ff 	mov    %rax,-0x9d0(%rbp)
    87e7:	c7 85 00 f5 ff ff 01 	movl   $0x1,-0xb00(%rbp)
    87ee:	00 00 00 
    87f1:	48 8d 05 f8 17 01 00 	lea    0x117f8(%rip),%rax        # 19ff0 <g_741>
    87f8:	48 89 85 38 f6 ff ff 	mov    %rax,-0x9c8(%rbp)
    87ff:	c7 85 b8 f4 ff ff 00 	movl   $0x0,-0xb48(%rbp)
    8806:	00 00 00 
    8809:	eb 51                	jmp    885c <func_28+0x58d>
    880b:	c7 85 bc f4 ff ff 00 	movl   $0x0,-0xb44(%rbp)
    8812:	00 00 00 
    8815:	eb 35                	jmp    884c <func_28+0x57d>
    8817:	8b 85 bc f4 ff ff    	mov    -0xb44(%rbp),%eax
    881d:	48 63 c8             	movslq %eax,%rcx
    8820:	8b 85 b8 f4 ff ff    	mov    -0xb48(%rbp),%eax
    8826:	48 63 d0             	movslq %eax,%rdx
    8829:	48 89 d0             	mov    %rdx,%rax
    882c:	48 c1 e0 02          	shl    $0x2,%rax
    8830:	48 01 d0             	add    %rdx,%rax
    8833:	48 01 c8             	add    %rcx,%rax
    8836:	48 8d 15 83 1f 01 00 	lea    0x11f83(%rip),%rdx        # 1a7c0 <g_127>
    883d:	48 89 94 c5 70 f8 ff 	mov    %rdx,-0x790(%rbp,%rax,8)
    8844:	ff 
    8845:	83 85 bc f4 ff ff 01 	addl   $0x1,-0xb44(%rbp)
    884c:	83 bd bc f4 ff ff 04 	cmpl   $0x4,-0xb44(%rbp)
    8853:	7e c2                	jle    8817 <func_28+0x548>
    8855:	83 85 b8 f4 ff ff 01 	addl   $0x1,-0xb48(%rbp)
    885c:	83 bd b8 f4 ff ff 06 	cmpl   $0x6,-0xb48(%rbp)
    8863:	7e a6                	jle    880b <func_28+0x53c>
    8865:	c7 85 b8 f4 ff ff 00 	movl   $0x0,-0xb48(%rbp)
    886c:	00 00 00 
    886f:	eb 1a                	jmp    888b <func_28+0x5bc>
    8871:	8b 85 b8 f4 ff ff    	mov    -0xb48(%rbp),%eax
    8877:	48 98                	cltq   
    8879:	c7 84 85 00 f8 ff ff 	movl   $0x1,-0x800(%rbp,%rax,4)
    8880:	01 00 00 00 
    8884:	83 85 b8 f4 ff ff 01 	addl   $0x1,-0xb48(%rbp)
    888b:	83 bd b8 f4 ff ff 04 	cmpl   $0x4,-0xb48(%rbp)
    8892:	7e dd                	jle    8871 <func_28+0x5a2>
    8894:	8b 9d 88 f4 ff ff    	mov    -0xb78(%rbp),%ebx
    889a:	be 09 00 00 00       	mov    $0x9,%esi
    889f:	bf 06 00 00 00       	mov    $0x6,%edi
    88a4:	e8 15 d5 ff ff       	callq  5dbe <safe_lshift_func_uint16_t_u_s>
    88a9:	66 85 c0             	test   %ax,%ax
    88ac:	8b 05 76 da 00 00    	mov    0xda76(%rip),%eax        # 16328 <g_149>
    88b2:	0f b6 c0             	movzbl %al,%eax
    88b5:	be fc 00 00 00       	mov    $0xfc,%esi
    88ba:	89 c7                	mov    %eax,%edi
    88bc:	e8 1a d3 ff ff       	callq  5bdb <safe_div_func_uint8_t_u_u>
    88c1:	48 8b 85 08 f9 ff ff 	mov    -0x6f8(%rbp),%rax
    88c8:	48 85 c0             	test   %rax,%rax
    88cb:	0f 94 c2             	sete   %dl
    88ce:	48 8b 85 e0 f5 ff ff 	mov    -0xa20(%rbp),%rax
    88d5:	48 8b 00             	mov    (%rax),%rax
    88d8:	8b 00                	mov    (%rax),%eax
    88da:	3d fd 2f 60 0f       	cmp    $0xf602ffd,%eax
    88df:	0f 94 c0             	sete   %al
    88e2:	09 d0                	or     %edx,%eax
    88e4:	0f b6 c0             	movzbl %al,%eax
    88e7:	89 c6                	mov    %eax,%esi
    88e9:	bf 09 00 00 00       	mov    $0x9,%edi
    88ee:	e8 02 cb ff ff       	callq  53f5 <safe_mul_func_int16_t_s_s>
    88f3:	0f bf d0             	movswl %ax,%edx
    88f6:	48 8b 85 e0 f5 ff ff 	mov    -0xa20(%rbp),%rax
    88fd:	48 8b 00             	mov    (%rax),%rax
    8900:	8b 00                	mov    (%rax),%eax
    8902:	21 c2                	and    %eax,%edx
    8904:	48 8b 85 e0 f5 ff ff 	mov    -0xa20(%rbp),%rax
    890b:	48 8b 00             	mov    (%rax),%rax
    890e:	8b 00                	mov    (%rax),%eax
    8910:	39 c2                	cmp    %eax,%edx
    8912:	0f 94 c0             	sete   %al
    8915:	0f b6 d0             	movzbl %al,%edx
    8918:	8b 05 de da 00 00    	mov    0xdade(%rip),%eax        # 163fc <g_160>
    891e:	31 d0                	xor    %edx,%eax
    8920:	89 c0                	mov    %eax,%eax
    8922:	48 39 85 08 f6 ff ff 	cmp    %rax,-0x9f8(%rbp)
    8929:	0f 9c c0             	setl   %al
    892c:	0f b6 c0             	movzbl %al,%eax
    892f:	89 de                	mov    %ebx,%esi
    8931:	89 c7                	mov    %eax,%edi
    8933:	e8 94 cd ff ff       	callq  56cc <safe_mod_func_int32_t_s_s>
    8938:	21 85 f4 f4 ff ff    	and    %eax,-0xb0c(%rbp)
    893e:	0f b7 85 8c f4 ff ff 	movzwl -0xb74(%rbp),%eax
    8945:	0f be d8             	movsbl %al,%ebx
    8948:	0f b6 05 07 d7 00 00 	movzbl 0xd707(%rip),%eax        # 16056 <g_56+0x5>
    894f:	0f b6 c0             	movzbl %al,%eax
    8952:	be 00 00 00 00       	mov    $0x0,%esi
    8957:	89 c7                	mov    %eax,%edi
    8959:	e8 ee d2 ff ff       	callq  5c4c <safe_lshift_func_uint8_t_u_u>
    895e:	8b 95 88 f4 ff ff    	mov    -0xb78(%rbp),%edx
    8964:	0f b7 05 e5 e0 00 00 	movzwl 0xe0e5(%rip),%eax        # 16a50 <g_578>
    896b:	83 f0 07             	xor    $0x7,%eax
    896e:	0f b6 c0             	movzbl %al,%eax
    8971:	89 d6                	mov    %edx,%esi
    8973:	89 c7                	mov    %eax,%edi
    8975:	e8 13 d3 ff ff       	callq  5c8d <safe_rshift_func_uint8_t_u_s>
    897a:	8b 05 a0 d9 00 00    	mov    0xd9a0(%rip),%eax        # 16320 <g_147>
    8980:	85 c0                	test   %eax,%eax
    8982:	0f 95 c0             	setne  %al
    8985:	0f b6 c0             	movzbl %al,%eax
    8988:	89 de                	mov    %ebx,%esi
    898a:	89 c7                	mov    %eax,%edi
    898c:	e8 43 c8 ff ff       	callq  51d4 <safe_add_func_int8_t_s_s>
    8991:	be 0c 00 00 00       	mov    $0xc,%esi
    8996:	bf 01 00 00 00       	mov    $0x1,%edi
    899b:	e8 da d4 ff ff       	callq  5e7a <safe_rshift_func_uint16_t_u_u>
    89a0:	89 c2                	mov    %eax,%edx
    89a2:	48 8b 85 20 f6 ff ff 	mov    -0x9e0(%rbp),%rax
    89a9:	0f b6 00             	movzbl (%rax),%eax
    89ac:	31 c2                	xor    %eax,%edx
    89ae:	48 8b 85 20 f6 ff ff 	mov    -0x9e0(%rbp),%rax
    89b5:	88 10                	mov    %dl,(%rax)
    89b7:	8b 85 88 f4 ff ff    	mov    -0xb78(%rbp),%eax
    89bd:	0f b7 c0             	movzwl %ax,%eax
    89c0:	be 0e 00 00 00       	mov    $0xe,%esi
    89c5:	89 c7                	mov    %eax,%edi
    89c7:	e8 f2 d3 ff ff       	callq  5dbe <safe_lshift_func_uint16_t_u_s>
    89cc:	0f b6 c0             	movzbl %al,%eax
    89cf:	be 01 00 00 00       	mov    $0x1,%esi
    89d4:	89 c7                	mov    %eax,%edi
    89d6:	e8 71 d2 ff ff       	callq  5c4c <safe_lshift_func_uint8_t_u_u>
    89db:	0f b6 d0             	movzbl %al,%edx
    89de:	48 8b 85 e0 f5 ff ff 	mov    -0xa20(%rbp),%rax
    89e5:	48 8b 00             	mov    (%rax),%rax
    89e8:	8b 00                	mov    (%rax),%eax
    89ea:	21 d0                	and    %edx,%eax
    89ec:	85 c0                	test   %eax,%eax
    89ee:	0f 84 32 1e 00 00    	je     a826 <func_28+0x2557>
    89f4:	c7 85 f4 f7 ff ff 23 	movl   $0x22a64123,-0x80c(%rbp)
    89fb:	41 a6 22 
    89fe:	48 8d 85 90 f9 ff ff 	lea    -0x670(%rbp),%rax
    8a05:	48 8d 15 54 96 00 00 	lea    0x9654(%rip),%rdx        # 12060 <g_1231+0x8>
    8a0c:	b9 5a 00 00 00       	mov    $0x5a,%ecx
    8a11:	48 89 c7             	mov    %rax,%rdi
    8a14:	48 89 d6             	mov    %rdx,%rsi
    8a17:	f3 48 a5             	rep movsq %ds:(%rsi),%es:(%rdi)
    8a1a:	48 8d 85 60 f5 ff ff 	lea    -0xaa0(%rbp),%rax
    8a21:	48 89 85 58 f6 ff ff 	mov    %rax,-0x9a8(%rbp)
    8a28:	48 8d 85 78 f5 ff ff 	lea    -0xa88(%rbp),%rax
    8a2f:	48 89 85 c0 f5 ff ff 	mov    %rax,-0xa40(%rbp)
    8a36:	c7 85 08 f5 ff ff fd 	movl   $0xfffffffd,-0xaf8(%rbp)
    8a3d:	ff ff ff 
    8a40:	48 b8 9c e8 c5 23 91 	movabs $0x319ad29123c5e89c,%rax
    8a47:	d2 9a 31 
    8a4a:	48 89 85 60 f6 ff ff 	mov    %rax,-0x9a0(%rbp)
    8a51:	48 8d 05 48 15 01 00 	lea    0x11548(%rip),%rax        # 19fa0 <g_191>
    8a58:	48 89 85 68 f6 ff ff 	mov    %rax,-0x998(%rbp)
    8a5f:	48 8d 05 7a d6 00 00 	lea    0xd67a(%rip),%rax        # 160e0 <g_136+0x10>
    8a66:	48 89 85 70 f6 ff ff 	mov    %rax,-0x990(%rbp)
    8a6d:	48 c7 85 78 f6 ff ff 	movq   $0x0,-0x988(%rbp)
    8a74:	00 00 00 00 
    8a78:	66 c7 85 ae f4 ff ff 	movw   $0x9ccb,-0xb52(%rbp)
    8a7f:	cb 9c 
    8a81:	48 8d 85 a0 f5 ff ff 	lea    -0xa60(%rbp),%rax
    8a88:	48 89 85 80 f6 ff ff 	mov    %rax,-0x980(%rbp)
    8a8f:	c7 85 0c f5 ff ff 00 	movl   $0x0,-0xaf4(%rbp)
    8a96:	00 00 00 
    8a99:	48 8d 05 f0 e3 00 00 	lea    0xe3f0(%rip),%rax        # 16e90 <g_870>
    8aa0:	48 89 85 88 f6 ff ff 	mov    %rax,-0x978(%rbp)
    8aa7:	c7 85 c8 f4 ff ff 01 	movl   $0x1,-0xb38(%rbp)
    8aae:	00 00 00 
    8ab1:	48 8d 05 f8 de 00 00 	lea    0xdef8(%rip),%rax        # 169b0 <g_334>
    8ab8:	48 89 85 90 f6 ff ff 	mov    %rax,-0x970(%rbp)
    8abf:	c7 85 cc f4 ff ff 44 	movl   $0xc5bfa844,-0xb34(%rbp)
    8ac6:	a8 bf c5 
    8ac9:	48 c7 85 a8 f5 ff ff 	movq   $0x0,-0xa58(%rbp)
    8ad0:	00 00 00 00 
    8ad4:	48 8d 85 a8 f5 ff ff 	lea    -0xa58(%rbp),%rax
    8adb:	48 89 85 b0 f5 ff ff 	mov    %rax,-0xa50(%rbp)
    8ae2:	48 8d 85 b0 f5 ff ff 	lea    -0xa50(%rbp),%rax
    8ae9:	48 89 85 98 f6 ff ff 	mov    %rax,-0x968(%rbp)
    8af0:	48 8d 05 95 e3 00 00 	lea    0xe395(%rip),%rax        # 16e8c <g_772>
    8af7:	48 89 85 a0 f6 ff ff 	mov    %rax,-0x960(%rbp)
    8afe:	c7 85 10 f5 ff ff e0 	movl   $0x61c108e0,-0xaf0(%rbp)
    8b05:	08 c1 61 
    8b08:	48 b8 17 6e ec b0 3b 	movabs $0x7628113bb0ec6e17,%rax
    8b0f:	11 28 76 
    8b12:	48 89 85 a8 f6 ff ff 	mov    %rax,-0x958(%rbp)
    8b19:	48 c7 85 b0 f6 ff ff 	movq   $0x0,-0x950(%rbp)
    8b20:	00 00 00 00 
    8b24:	c7 85 14 f5 ff ff b5 	movl   $0x1b33b5,-0xaec(%rbp)
    8b2b:	33 1b 00 
    8b2e:	c7 85 18 f5 ff ff 10 	movl   $0x59a76410,-0xae8(%rbp)
    8b35:	64 a7 59 
    8b38:	c7 85 1c f5 ff ff 07 	movl   $0x7,-0xae4(%rbp)
    8b3f:	00 00 00 
    8b42:	c7 85 60 fc ff ff a0 	movl   $0x65a8cda0,-0x3a0(%rbp)
    8b49:	cd a8 65 
    8b4c:	c7 85 64 fc ff ff 01 	movl   $0x1,-0x39c(%rbp)
    8b53:	00 00 00 
    8b56:	c7 85 68 fc ff ff 01 	movl   $0x1,-0x398(%rbp)
    8b5d:	00 00 00 
    8b60:	c7 85 6c fc ff ff a0 	movl   $0x65a8cda0,-0x394(%rbp)
    8b67:	cd a8 65 
    8b6a:	c7 85 70 fc ff ff 01 	movl   $0x1,-0x390(%rbp)
    8b71:	00 00 00 
    8b74:	c7 85 74 fc ff ff 01 	movl   $0x1,-0x38c(%rbp)
    8b7b:	00 00 00 
    8b7e:	48 8b 05 5b 14 01 00 	mov    0x1145b(%rip),%rax        # 19fe0 <g_704>
    8b85:	8b 00                	mov    (%rax),%eax
    8b87:	85 c0                	test   %eax,%eax
    8b89:	0f 84 ec 01 00 00    	je     8d7b <func_28+0xaac>
    8b8f:	c6 85 a7 f4 ff ff 0d 	movb   $0xd,-0xb59(%rbp)
    8b96:	48 8d 05 1b 1c 01 00 	lea    0x11c1b(%rip),%rax        # 1a7b8 <g_121+0x8>
    8b9d:	48 89 85 d8 f6 ff ff 	mov    %rax,-0x928(%rbp)
    8ba4:	48 8d 05 fd 13 01 00 	lea    0x113fd(%rip),%rax        # 19fa8 <g_201>
    8bab:	48 89 85 e0 f6 ff ff 	mov    %rax,-0x920(%rbp)
    8bb2:	c7 85 24 f5 ff ff ff 	movl   $0xffffffff,-0xadc(%rbp)
    8bb9:	ff ff ff 
    8bbc:	0f b7 05 e7 e2 00 00 	movzwl 0xe2e7(%rip),%eax        # 16eaa <g_874+0xa>
    8bc3:	0f b7 d8             	movzwl %ax,%ebx
    8bc6:	8b 15 20 d8 00 00    	mov    0xd820(%rip),%edx        # 163ec <g_155>
    8bcc:	0f b6 8d a7 f4 ff ff 	movzbl -0xb59(%rbp),%ecx
    8bd3:	0f b7 05 ba e2 00 00 	movzwl 0xe2ba(%rip),%eax        # 16e94 <g_872>
    8bda:	98                   	cwtl   
    8bdb:	39 c1                	cmp    %eax,%ecx
    8bdd:	0f 9c c0             	setl   %al
    8be0:	0f b6 c0             	movzbl %al,%eax
    8be3:	89 d6                	mov    %edx,%esi
    8be5:	89 c7                	mov    %eax,%edi
    8be7:	e8 80 c7 ff ff       	callq  536c <safe_rshift_func_int8_t_s_u>
    8bec:	0f be c0             	movsbl %al,%eax
    8bef:	33 85 88 f4 ff ff    	xor    -0xb78(%rbp),%eax
    8bf5:	89 c2                	mov    %eax,%edx
    8bf7:	48 8b 85 d8 f6 ff ff 	mov    -0x928(%rbp),%rax
    8bfe:	48 8b 00             	mov    (%rax),%rax
    8c01:	89 d2                	mov    %edx,%edx
    8c03:	48 21 c2             	and    %rax,%rdx
    8c06:	48 8b 85 d8 f6 ff ff 	mov    -0x928(%rbp),%rax
    8c0d:	48 89 10             	mov    %rdx,(%rax)
    8c10:	48 8b 85 d8 f6 ff ff 	mov    -0x928(%rbp),%rax
    8c17:	48 8b 00             	mov    (%rax),%rax
    8c1a:	48 85 c0             	test   %rax,%rax
    8c1d:	74 10                	je     8c2f <func_28+0x960>
    8c1f:	83 bd 88 f4 ff ff 00 	cmpl   $0x0,-0xb78(%rbp)
    8c26:	74 07                	je     8c2f <func_28+0x960>
    8c28:	b8 01 00 00 00       	mov    $0x1,%eax
    8c2d:	eb 05                	jmp    8c34 <func_28+0x965>
    8c2f:	b8 00 00 00 00       	mov    $0x0,%eax
    8c34:	0f b6 d0             	movzbl %al,%edx
    8c37:	48 8b 85 90 f6 ff ff 	mov    -0x970(%rbp),%rax
    8c3e:	0f b7 00             	movzwl (%rax),%eax
    8c41:	66 0d 11 f4          	or     $0xf411,%ax
    8c45:	89 c1                	mov    %eax,%ecx
    8c47:	48 8b 85 90 f6 ff ff 	mov    -0x970(%rbp),%rax
    8c4e:	66 89 08             	mov    %cx,(%rax)
    8c51:	48 8b 85 90 f6 ff ff 	mov    -0x970(%rbp),%rax
    8c58:	0f b7 00             	movzwl (%rax),%eax
    8c5b:	0f b7 c0             	movzwl %ax,%eax
    8c5e:	39 85 cc f4 ff ff    	cmp    %eax,-0xb34(%rbp)
    8c64:	0f 9d c0             	setge  %al
    8c67:	89 c1                	mov    %eax,%ecx
    8c69:	48 8b 85 20 f6 ff ff 	mov    -0x9e0(%rbp),%rax
    8c70:	88 08                	mov    %cl,(%rax)
    8c72:	48 8b 85 20 f6 ff ff 	mov    -0x9e0(%rbp),%rax
    8c79:	0f b6 00             	movzbl (%rax),%eax
    8c7c:	0f b6 c0             	movzbl %al,%eax
    8c7f:	89 d6                	mov    %edx,%esi
    8c81:	89 c7                	mov    %eax,%edi
    8c83:	e8 0b cf ff ff       	callq  5b93 <safe_mul_func_uint8_t_u_u>
    8c88:	48 8b 85 90 f6 ff ff 	mov    -0x970(%rbp),%rax
    8c8f:	48 3b 85 f0 f5 ff ff 	cmp    -0xa10(%rbp),%rax
    8c96:	75 07                	jne    8c9f <func_28+0x9d0>
    8c98:	b8 ff ff ff ff       	mov    $0xffffffff,%eax
    8c9d:	eb 05                	jmp    8ca4 <func_28+0x9d5>
    8c9f:	b8 fe ff ff ff       	mov    $0xfffffffe,%eax
    8ca4:	89 de                	mov    %ebx,%esi
    8ca6:	89 c7                	mov    %eax,%edi
    8ca8:	e8 50 d2 ff ff       	callq  5efd <safe_mod_func_uint32_t_u_u>
    8cad:	be 03 00 00 00       	mov    $0x3,%esi
    8cb2:	bf 00 00 00 00       	mov    $0x0,%edi
    8cb7:	e8 d6 c7 ff ff       	callq  5492 <safe_lshift_func_int16_t_s_s>
    8cbc:	48 0f bf d0          	movswq %ax,%rdx
    8cc0:	48 8b 85 88 f5 ff ff 	mov    -0xa78(%rbp),%rax
    8cc7:	48 21 d0             	and    %rdx,%rax
    8cca:	48 89 85 88 f5 ff ff 	mov    %rax,-0xa78(%rbp)
    8cd1:	48 8b 85 e0 f6 ff ff 	mov    -0x920(%rbp),%rax
    8cd8:	48 c7 00 00 00 00 00 	movq   $0x0,(%rax)
    8cdf:	8b 85 f4 f7 ff ff    	mov    -0x80c(%rbp),%eax
    8ce5:	85 c0                	test   %eax,%eax
    8ce7:	0f 95 c0             	setne  %al
    8cea:	0f b6 d8             	movzbl %al,%ebx
    8ced:	8b 85 88 f4 ff ff    	mov    -0xb78(%rbp),%eax
    8cf3:	0f be c0             	movsbl %al,%eax
    8cf6:	be f9 ff ff ff       	mov    $0xfffffff9,%esi
    8cfb:	89 c7                	mov    %eax,%edi
    8cfd:	e8 2f c5 ff ff       	callq  5231 <safe_mod_func_int8_t_s_s>
    8d02:	0f be c0             	movsbl %al,%eax
    8d05:	31 d8                	xor    %ebx,%eax
    8d07:	48 98                	cltq   
    8d09:	31 85 24 f5 ff ff    	xor    %eax,-0xadc(%rbp)
    8d0f:	c7 05 33 dd 00 00 00 	movl   $0x0,0xdd33(%rip)        # 16a4c <g_571>
    8d16:	00 00 00 
    8d19:	eb 50                	jmp    8d6b <func_28+0xa9c>
    8d1b:	48 8d 05 c6 d6 00 00 	lea    0xd6c6(%rip),%rax        # 163e8 <g_154>
    8d22:	48 89 85 e8 f6 ff ff 	mov    %rax,-0x918(%rbp)
    8d29:	48 8b 85 98 f4 ff ff 	mov    -0xb68(%rbp),%rax
    8d30:	8b 00                	mov    (%rax),%eax
    8d32:	85 c0                	test   %eax,%eax
    8d34:	0f 85 87 03 00 00    	jne    90c1 <func_28+0xdf2>
    8d3a:	48 8b 05 17 15 01 00 	mov    0x11517(%rip),%rax        # 1a258 <g_887>
    8d41:	48 8b 95 28 f6 ff ff 	mov    -0x9d8(%rbp),%rdx
    8d48:	48 89 10             	mov    %rdx,(%rax)
    8d4b:	48 8b 85 e0 f6 ff ff 	mov    -0x920(%rbp),%rax
    8d52:	48 8b 95 e8 f6 ff ff 	mov    -0x918(%rbp),%rdx
    8d59:	48 89 10             	mov    %rdx,(%rax)
    8d5c:	8b 05 ea dc 00 00    	mov    0xdcea(%rip),%eax        # 16a4c <g_571>
    8d62:	83 c0 01             	add    $0x1,%eax
    8d65:	89 05 e1 dc 00 00    	mov    %eax,0xdce1(%rip)        # 16a4c <g_571>
    8d6b:	8b 05 db dc 00 00    	mov    0xdcdb(%rip),%eax        # 16a4c <g_571>
    8d71:	83 f8 10             	cmp    $0x10,%eax
    8d74:	76 a5                	jbe    8d1b <func_28+0xa4c>
    8d76:	e9 47 03 00 00       	jmpq   90c2 <func_28+0xdf3>
    8d7b:	48 8d 85 40 f8 ff ff 	lea    -0x7c0(%rbp),%rax
    8d82:	48 89 85 b8 f6 ff ff 	mov    %rax,-0x948(%rbp)
    8d89:	48 8d 05 fc e0 00 00 	lea    0xe0fc(%rip),%rax        # 16e8c <g_772>
    8d90:	48 89 85 c0 f6 ff ff 	mov    %rax,-0x940(%rbp)
    8d97:	c7 85 20 f5 ff ff 50 	movl   $0x1096ff50,-0xae0(%rbp)
    8d9e:	ff 96 10 
    8da1:	c7 85 d0 f4 ff ff 00 	movl   $0x0,-0xb30(%rbp)
    8da8:	00 00 00 
    8dab:	eb 1e                	jmp    8dcb <func_28+0xafc>
    8dad:	8b 85 d0 f4 ff ff    	mov    -0xb30(%rbp),%eax
    8db3:	48 98                	cltq   
    8db5:	48 8d 15 c0 d2 00 00 	lea    0xd2c0(%rip),%rdx        # 1607c <g_106+0xc>
    8dbc:	48 89 94 c5 40 f8 ff 	mov    %rdx,-0x7c0(%rbp,%rax,8)
    8dc3:	ff 
    8dc4:	83 85 d0 f4 ff ff 01 	addl   $0x1,-0xb30(%rbp)
    8dcb:	83 bd d0 f4 ff ff 01 	cmpl   $0x1,-0xb30(%rbp)
    8dd2:	7e d9                	jle    8dad <func_28+0xade>
    8dd4:	8b 95 18 fc ff ff    	mov    -0x3e8(%rbp),%edx
    8dda:	48 83 bd b8 f6 ff ff 	cmpq   $0x0,-0x948(%rbp)
    8de1:	00 
    8de2:	0f 94 c0             	sete   %al
    8de5:	0f b6 c0             	movzbl %al,%eax
    8de8:	89 c6                	mov    %eax,%esi
    8dea:	48 8d 3d 2b dc 00 00 	lea    0xdc2b(%rip),%rdi        # 16a1c <g_436>
    8df1:	e8 a2 29 00 00       	callq  b798 <func_65>
    8df6:	48 89 c6             	mov    %rax,%rsi
    8df9:	48 8d 3d 8c e0 00 00 	lea    0xe08c(%rip),%rdi        # 16e8c <g_772>
    8e00:	e8 97 1e 00 00       	callq  ac9c <func_34>
    8e05:	48 8b 95 e0 f5 ff ff 	mov    -0xa20(%rbp),%rdx
    8e0c:	48 89 02             	mov    %rax,(%rdx)
    8e0f:	c7 05 f3 da 00 00 00 	movl   $0x0,0xdaf3(%rip)        # 1690c <g_181>
    8e16:	00 00 00 
    8e19:	e9 cf 01 00 00       	jmpq   8fed <func_28+0xd1e>
    8e1e:	48 8d 05 6b e0 00 00 	lea    0xe06b(%rip),%rax        # 16e90 <g_870>
    8e25:	48 89 85 c8 f6 ff ff 	mov    %rax,-0x938(%rbp)
    8e2c:	48 8d 05 49 e0 00 00 	lea    0xe049(%rip),%rax        # 16e7c <g_724+0xc>
    8e33:	48 89 85 b8 f5 ff ff 	mov    %rax,-0xa48(%rbp)
    8e3a:	48 8d 85 b8 f5 ff ff 	lea    -0xa48(%rbp),%rax
    8e41:	48 89 85 d0 f6 ff ff 	mov    %rax,-0x930(%rbp)
    8e48:	48 8b 85 98 f4 ff ff 	mov    -0xb68(%rbp),%rax
    8e4f:	8b 18                	mov    (%rax),%ebx
    8e51:	48 8b 95 90 f4 ff ff 	mov    -0xb70(%rbp),%rdx
    8e58:	48 8b 85 c0 f6 ff ff 	mov    -0x940(%rbp),%rax
    8e5f:	48 89 d6             	mov    %rdx,%rsi
    8e62:	48 89 c7             	mov    %rax,%rdi
    8e65:	e8 32 1e 00 00       	callq  ac9c <func_34>
    8e6a:	48 8b 95 d0 f6 ff ff 	mov    -0x930(%rbp),%rdx
    8e71:	48 89 02             	mov    %rax,(%rdx)
    8e74:	48 8b 05 5d 11 01 00 	mov    0x1115d(%rip),%rax        # 19fd8 <g_685>
    8e7b:	48 8b 00             	mov    (%rax),%rax
    8e7e:	44 8b 25 83 d5 00 00 	mov    0xd583(%rip),%r12d        # 16408 <g_163>
    8e85:	0f b7 85 8c f4 ff ff 	movzwl -0xb74(%rbp),%eax
    8e8c:	4c 0f bf e8          	movswq %ax,%r13
    8e90:	8b 05 86 db 00 00    	mov    0xdb86(%rip),%eax        # 16a1c <g_436>
    8e96:	44 0f bf f0          	movswl %ax,%r14d
    8e9a:	8b 05 30 db 00 00    	mov    0xdb30(%rip),%eax        # 169d0 <g_375+0x10>
    8ea0:	4c 63 f8             	movslq %eax,%r15
    8ea3:	48 8d 05 0e 11 01 00 	lea    0x1110e(%rip),%rax        # 19fb8 <g_496>
    8eaa:	48 39 85 98 f6 ff ff 	cmp    %rax,-0x968(%rbp)
    8eb1:	0f 95 c0             	setne  %al
    8eb4:	0f b6 c0             	movzbl %al,%eax
    8eb7:	89 85 cc f4 ff ff    	mov    %eax,-0xb34(%rbp)
    8ebd:	48 8d 05 88 d1 00 00 	lea    0xd188(%rip),%rax        # 1604c <g_5>
    8ec4:	48 89 85 80 f4 ff ff 	mov    %rax,-0xb80(%rbp)
    8ecb:	48 8d 05 be df 00 00 	lea    0xdfbe(%rip),%rax        # 16e90 <g_870>
    8ed2:	48 39 85 80 f4 ff ff 	cmp    %rax,-0xb80(%rbp)
    8ed9:	0f 95 c0             	setne  %al
    8edc:	0f b6 c0             	movzbl %al,%eax
    8edf:	be 07 00 00 00       	mov    $0x7,%esi
    8ee4:	89 c7                	mov    %eax,%edi
    8ee6:	e8 03 c4 ff ff       	callq  52ee <safe_lshift_func_int8_t_s_u>
    8eeb:	48 0f be c0          	movsbq %al,%rax
    8eef:	4c 89 fe             	mov    %r15,%rsi
    8ef2:	48 89 c7             	mov    %rax,%rdi
    8ef5:	e8 86 d1 ff ff       	callq  6080 <safe_mod_func_uint64_t_u_u>
    8efa:	48 85 c0             	test   %rax,%rax
    8efd:	75 0f                	jne    8f0e <func_28+0xc3f>
    8eff:	8b 05 0b db 00 00    	mov    0xdb0b(%rip),%eax        # 16a10 <g_399+0x10>
    8f05:	25 ff ff ff 0f       	and    $0xfffffff,%eax
    8f0a:	85 c0                	test   %eax,%eax
    8f0c:	74 07                	je     8f15 <func_28+0xc46>
    8f0e:	b8 01 00 00 00       	mov    $0x1,%eax
    8f13:	eb 05                	jmp    8f1a <func_28+0xc4b>
    8f15:	b8 00 00 00 00       	mov    $0x0,%eax
    8f1a:	0f b7 c0             	movzwl %ax,%eax
    8f1d:	be b5 1a 00 00       	mov    $0x1ab5,%esi
    8f22:	89 c7                	mov    %eax,%edi
    8f24:	e8 65 ce ff ff       	callq  5d8e <safe_div_func_uint16_t_u_u>
    8f29:	98                   	cwtl   
    8f2a:	8b 95 88 f4 ff ff    	mov    -0xb78(%rbp),%edx
    8f30:	89 d6                	mov    %edx,%esi
    8f32:	89 c7                	mov    %eax,%edi
    8f34:	e8 a8 c5 ff ff       	callq  54e1 <safe_lshift_func_int16_t_s_u>
    8f39:	98                   	cwtl   
    8f3a:	44 89 f6             	mov    %r14d,%esi
    8f3d:	89 c7                	mov    %eax,%edi
    8f3f:	e8 b1 c4 ff ff       	callq  53f5 <safe_mul_func_int16_t_s_s>
    8f44:	4c 89 ee             	mov    %r13,%rsi
    8f47:	48 bf 23 c6 b4 85 bc 	movabs $0xa7599bbc85b4c623,%rdi
    8f4e:	9b 59 a7 
    8f51:	e8 59 d1 ff ff       	callq  60af <safe_div_func_uint64_t_u_u>
    8f56:	0f be c0             	movsbl %al,%eax
    8f59:	44 89 e6             	mov    %r12d,%esi
    8f5c:	89 c7                	mov    %eax,%edi
    8f5e:	e8 8b c3 ff ff       	callq  52ee <safe_lshift_func_int8_t_s_u>
    8f63:	48 8b 85 80 f4 ff ff 	mov    -0xb80(%rbp),%rax
    8f6a:	8b 00                	mov    (%rax),%eax
    8f6c:	48 98                	cltq   
    8f6e:	25 6a 4a ca 2c       	and    $0x2cca4a6a,%eax
    8f73:	48 83 f8 02          	cmp    $0x2,%rax
    8f77:	0f 94 c0             	sete   %al
    8f7a:	0f b6 d0             	movzbl %al,%edx
    8f7d:	48 8b 85 c8 f6 ff ff 	mov    -0x938(%rbp),%rax
    8f84:	89 10                	mov    %edx,(%rax)
    8f86:	48 8b 85 c8 f6 ff ff 	mov    -0x938(%rbp),%rax
    8f8d:	8b 00                	mov    (%rax),%eax
    8f8f:	0f be c8             	movsbl %al,%ecx
    8f92:	48 8b 85 c8 f6 ff ff 	mov    -0x938(%rbp),%rax
    8f99:	89 da                	mov    %ebx,%edx
    8f9b:	89 ce                	mov    %ecx,%esi
    8f9d:	48 89 c7             	mov    %rax,%rdi
    8fa0:	e8 f3 27 00 00       	callq  b798 <func_65>
    8fa5:	48 89 c2             	mov    %rax,%rdx
    8fa8:	48 8b 85 a0 f6 ff ff 	mov    -0x960(%rbp),%rax
    8faf:	48 89 c6             	mov    %rax,%rsi
    8fb2:	48 89 d7             	mov    %rdx,%rdi
    8fb5:	e8 e2 1c 00 00       	callq  ac9c <func_34>
    8fba:	48 8b 95 e0 f5 ff ff 	mov    -0xa20(%rbp),%rdx
    8fc1:	48 89 02             	mov    %rax,(%rdx)
    8fc4:	48 8b 85 80 f4 ff ff 	mov    -0xb80(%rbp),%rax
    8fcb:	8b 00                	mov    (%rax),%eax
    8fcd:	85 c0                	test   %eax,%eax
    8fcf:	8b 05 37 d9 00 00    	mov    0xd937(%rip),%eax        # 1690c <g_181>
    8fd5:	0f b6 c0             	movzbl %al,%eax
    8fd8:	be 01 00 00 00       	mov    $0x1,%esi
    8fdd:	89 c7                	mov    %eax,%edi
    8fdf:	e8 76 cb ff ff       	callq  5b5a <safe_add_func_uint8_t_u_u>
    8fe4:	0f b6 c0             	movzbl %al,%eax
    8fe7:	89 05 1f d9 00 00    	mov    %eax,0xd91f(%rip)        # 1690c <g_181>
    8fed:	8b 05 19 d9 00 00    	mov    0xd919(%rip),%eax        # 1690c <g_181>
    8ff3:	83 f8 08             	cmp    $0x8,%eax
    8ff6:	0f 8f 22 fe ff ff    	jg     8e1e <func_28+0xb4f>
    8ffc:	48 8b 05 05 18 01 00 	mov    0x11805(%rip),%rax        # 1a808 <g_916>
    9003:	0f b7 85 8c f4 ff ff 	movzwl -0xb74(%rbp),%eax
    900a:	48 0f bf d8          	movswq %ax,%rbx
    900e:	44 8b a5 88 f4 ff ff 	mov    -0xb78(%rbp),%r12d
    9015:	8b 05 91 17 01 00    	mov    0x11791(%rip),%eax        # 1a7ac <g_119>
    901b:	83 e0 01             	and    $0x1,%eax
    901e:	89 05 88 17 01 00    	mov    %eax,0x11788(%rip)        # 1a7ac <g_119>
    9024:	8b 15 82 17 01 00    	mov    0x11782(%rip),%edx        # 1a7ac <g_119>
    902a:	8b 85 20 f5 ff ff    	mov    -0xae0(%rbp),%eax
    9030:	39 c2                	cmp    %eax,%edx
    9032:	0f 93 c0             	setae  %al
    9035:	0f b6 d0             	movzbl %al,%edx
    9038:	48 8b 85 90 f6 ff ff 	mov    -0x970(%rbp),%rax
    903f:	66 89 10             	mov    %dx,(%rax)
    9042:	be fe ff ff ff       	mov    $0xfffffffe,%esi
    9047:	bf 92 1c 00 00       	mov    $0x1c92,%edi
    904c:	e8 a4 c3 ff ff       	callq  53f5 <safe_mul_func_int16_t_s_s>
    9051:	44 89 e6             	mov    %r12d,%esi
    9054:	bf 05 00 00 00       	mov    $0x5,%edi
    9059:	e8 58 c5 ff ff       	callq  55b6 <safe_add_func_int32_t_s_s>
    905e:	48 98                	cltq   
    9060:	48 89 de             	mov    %rbx,%rsi
    9063:	48 89 c7             	mov    %rax,%rdi
    9066:	e8 e0 cf ff ff       	callq  604b <safe_sub_func_uint64_t_u_u>
    906b:	48 be 4b 11 82 77 51 	movabs $0xbe21e4517782114b,%rsi
    9072:	e4 21 be 
    9075:	48 89 c7             	mov    %rax,%rdi
    9078:	e8 32 d0 ff ff       	callq  60af <safe_div_func_uint64_t_u_u>
    907d:	8b 95 cc f4 ff ff    	mov    -0xb34(%rbp),%edx
    9083:	48 63 d2             	movslq %edx,%rdx
    9086:	48 39 d0             	cmp    %rdx,%rax
    9089:	76 14                	jbe    909f <func_28+0xdd0>
    908b:	48 8b 05 4e 0f 01 00 	mov    0x10f4e(%rip),%rax        # 19fe0 <g_704>
    9092:	8b 00                	mov    (%rax),%eax
    9094:	85 c0                	test   %eax,%eax
    9096:	74 07                	je     909f <func_28+0xdd0>
    9098:	b8 01 00 00 00       	mov    $0x1,%eax
    909d:	eb 05                	jmp    90a4 <func_28+0xdd5>
    909f:	b8 00 00 00 00       	mov    $0x0,%eax
    90a4:	98                   	cwtl   
    90a5:	be 02 00 00 00       	mov    $0x2,%esi
    90aa:	89 c7                	mov    %eax,%edi
    90ac:	e8 30 c4 ff ff       	callq  54e1 <safe_lshift_func_int16_t_s_u>
    90b1:	89 c2                	mov    %eax,%edx
    90b3:	48 8b 05 26 0f 01 00 	mov    0x10f26(%rip),%rax        # 19fe0 <g_704>
    90ba:	0f bf d2             	movswl %dx,%edx
    90bd:	89 10                	mov    %edx,(%rax)
    90bf:	eb 01                	jmp    90c2 <func_28+0xdf3>
    90c1:	90                   	nop
    90c2:	8b 95 8c fa ff ff    	mov    -0x574(%rbp),%edx
    90c8:	48 8b 05 d1 0e 01 00 	mov    0x10ed1(%rip),%rax        # 19fa0 <g_191>
    90cf:	88 10                	mov    %dl,(%rax)
    90d1:	0f b6 00             	movzbl (%rax),%eax
    90d4:	0f be d0             	movsbl %al,%edx
    90d7:	8b 85 88 f4 ff ff    	mov    -0xb78(%rbp),%eax
    90dd:	0f be c0             	movsbl %al,%eax
    90e0:	89 d6                	mov    %edx,%esi
    90e2:	89 c7                	mov    %eax,%edi
    90e4:	e8 29 c1 ff ff       	callq  5212 <safe_mul_func_int8_t_s_s>
    90e9:	84 c0                	test   %al,%al
    90eb:	0f 84 96 01 00 00    	je     9287 <func_28+0xfb8>
    90f1:	66 c7 85 b0 f4 ff ff 	movw   $0xffff,-0xb50(%rbp)
    90f8:	ff ff 
    90fa:	48 8d 05 bf d3 00 00 	lea    0xd3bf(%rip),%rax        # 164c0 <g_168>
    9101:	48 89 85 40 f7 ff ff 	mov    %rax,-0x8c0(%rbp)
    9108:	48 8d 05 a9 0e 01 00 	lea    0x10ea9(%rip),%rax        # 19fb8 <g_496>
    910f:	48 89 85 48 f7 ff ff 	mov    %rax,-0x8b8(%rbp)
    9116:	c7 05 0c d2 00 00 00 	movl   $0x0,0xd20c(%rip)        # 1632c <g_150>
    911d:	00 00 00 
    9120:	e9 4e 01 00 00       	jmpq   9273 <func_28+0xfa4>
    9125:	48 b8 e0 4b b4 ef 35 	movabs $0xbe5fc535efb44be0,%rax
    912c:	c5 5f be 
    912f:	48 89 85 50 f7 ff ff 	mov    %rax,-0x8b0(%rbp)
    9136:	48 b8 51 05 2d 5a 5f 	movabs $0x895a595f5a2d0551,%rax
    913d:	59 5a 89 
    9140:	48 89 85 58 f7 ff ff 	mov    %rax,-0x8a8(%rbp)
    9147:	48 8d 05 6a 0e 01 00 	lea    0x10e6a(%rip),%rax        # 19fb8 <g_496>
    914e:	48 89 85 b8 f5 ff ff 	mov    %rax,-0xa48(%rbp)
    9155:	48 8d 85 b8 f5 ff ff 	lea    -0xa48(%rbp),%rax
    915c:	48 89 85 60 f7 ff ff 	mov    %rax,-0x8a0(%rbp)
    9163:	8b 85 18 fc ff ff    	mov    -0x3e8(%rbp),%eax
    9169:	0f b6 d8             	movzbl %al,%ebx
    916c:	8b 05 7e d2 00 00    	mov    0xd27e(%rip),%eax        # 163f0 <g_156>
    9172:	85 c0                	test   %eax,%eax
    9174:	0f b7 85 b0 f4 ff ff 	movzwl -0xb50(%rbp),%eax
    917b:	be 01 00 00 00       	mov    $0x1,%esi
    9180:	89 c7                	mov    %eax,%edi
    9182:	e8 45 c5 ff ff       	callq  56cc <safe_mod_func_int32_t_s_s>
    9187:	f7 d0                	not    %eax
    9189:	89 c6                	mov    %eax,%esi
    918b:	bf 00 00 00 00       	mov    $0x0,%edi
    9190:	e8 37 c5 ff ff       	callq  56cc <safe_mod_func_int32_t_s_s>
    9195:	0f b6 c0             	movzbl %al,%eax
    9198:	be 07 00 00 00       	mov    $0x7,%esi
    919d:	89 c7                	mov    %eax,%edi
    919f:	e8 1a cb ff ff       	callq  5cbe <safe_rshift_func_uint8_t_u_u>
    91a4:	84 c0                	test   %al,%al
    91a6:	74 0a                	je     91b2 <func_28+0xee3>
    91a8:	8b 85 f4 f7 ff ff    	mov    -0x80c(%rbp),%eax
    91ae:	85 c0                	test   %eax,%eax
    91b0:	74 07                	je     91b9 <func_28+0xeea>
    91b2:	b8 01 00 00 00       	mov    $0x1,%eax
    91b7:	eb 05                	jmp    91be <func_28+0xeef>
    91b9:	b8 00 00 00 00       	mov    $0x0,%eax
    91be:	3d ba 68 15 3b       	cmp    $0x3b1568ba,%eax
    91c3:	0f 94 c0             	sete   %al
    91c6:	0f b6 c0             	movzbl %al,%eax
    91c9:	f7 d0                	not    %eax
    91cb:	89 c2                	mov    %eax,%edx
    91cd:	0f b7 85 8c f4 ff ff 	movzwl -0xb74(%rbp),%eax
    91d4:	98                   	cwtl   
    91d5:	39 c2                	cmp    %eax,%edx
    91d7:	0f 95 c0             	setne  %al
    91da:	0f b6 c0             	movzbl %al,%eax
    91dd:	48 23 85 50 f7 ff ff 	and    -0x8b0(%rbp),%rax
    91e4:	48 ba ff cc 35 ca fc 	movabs $0x6cbc01fcca35ccff,%rdx
    91eb:	01 bc 6c 
    91ee:	48 39 d0             	cmp    %rdx,%rax
    91f1:	0f 95 c0             	setne  %al
    91f4:	0f b6 c0             	movzbl %al,%eax
    91f7:	48 39 85 50 f7 ff ff 	cmp    %rax,-0x8b0(%rbp)
    91fe:	0f 9d c0             	setge  %al
    9201:	0f b6 c0             	movzbl %al,%eax
    9204:	89 de                	mov    %ebx,%esi
    9206:	89 c7                	mov    %eax,%edi
    9208:	e8 86 c9 ff ff       	callq  5b93 <safe_mul_func_uint8_t_u_u>
    920d:	b8 00 00 00 00       	mov    $0x0,%eax
    9212:	21 85 cc f4 ff ff    	and    %eax,-0xb34(%rbp)
    9218:	48 83 bd 40 f7 ff ff 	cmpq   $0x0,-0x8c0(%rbp)
    921f:	00 
    9220:	0f 94 c0             	sete   %al
    9223:	0f b6 c0             	movzbl %al,%eax
    9226:	48 89 85 58 f7 ff ff 	mov    %rax,-0x8a8(%rbp)
    922d:	48 8b 85 60 f7 ff ff 	mov    -0x8a0(%rbp),%rax
    9234:	48 8d 15 7d 0d 01 00 	lea    0x10d7d(%rip),%rdx        # 19fb8 <g_496>
    923b:	48 89 10             	mov    %rdx,(%rax)
    923e:	48 8b 85 b0 f5 ff ff 	mov    -0xa50(%rbp),%rax
    9245:	48 8b 10             	mov    (%rax),%rdx
    9248:	48 8b 85 48 f7 ff ff 	mov    -0x8b8(%rbp),%rax
    924f:	48 8b 00             	mov    (%rax),%rax
    9252:	48 8b 00             	mov    (%rax),%rax
    9255:	48 39 c2             	cmp    %rax,%rdx
    9258:	0f 94 c0             	sete   %al
    925b:	0f b6 c0             	movzbl %al,%eax
    925e:	89 85 18 fc ff ff    	mov    %eax,-0x3e8(%rbp)
    9264:	8b 05 c2 d0 00 00    	mov    0xd0c2(%rip),%eax        # 1632c <g_150>
    926a:	83 c0 01             	add    $0x1,%eax
    926d:	89 05 b9 d0 00 00    	mov    %eax,0xd0b9(%rip)        # 1632c <g_150>
    9273:	8b 05 b3 d0 00 00    	mov    0xd0b3(%rip),%eax        # 1632c <g_150>
    9279:	83 f8 1b             	cmp    $0x1b,%eax
    927c:	0f 84 a3 fe ff ff    	je     9125 <func_28+0xe56>
    9282:	e9 bc 02 00 00       	jmpq   9543 <func_28+0x1274>
    9287:	48 c7 85 f0 f6 ff ff 	movq   $0x0,-0x910(%rbp)
    928e:	00 00 00 00 
    9292:	48 c7 85 b8 f5 ff ff 	movq   $0x0,-0xa48(%rbp)
    9299:	00 00 00 00 
    929d:	48 b8 bc 9d 47 d4 11 	movabs $0xf3bc4e11d4479dbc,%rax
    92a4:	4e bc f3 
    92a7:	48 89 85 f8 f6 ff ff 	mov    %rax,-0x908(%rbp)
    92ae:	48 8d 85 b8 f5 ff ff 	lea    -0xa48(%rbp),%rax
    92b5:	48 89 85 00 f7 ff ff 	mov    %rax,-0x900(%rbp)
    92bc:	48 c7 85 08 f7 ff ff 	movq   $0x0,-0x8f8(%rbp)
    92c3:	00 00 00 00 
    92c7:	48 8d 05 ea 14 01 00 	lea    0x114ea(%rip),%rax        # 1a7b8 <g_121+0x8>
    92ce:	48 89 85 10 f7 ff ff 	mov    %rax,-0x8f0(%rbp)
    92d5:	48 8b 85 80 f5 ff ff 	mov    -0xa80(%rbp),%rax
    92dc:	48 89 85 c0 f5 ff ff 	mov    %rax,-0xa40(%rbp)
    92e3:	0f b7 05 c6 d6 00 00 	movzwl 0xd6c6(%rip),%eax        # 169b0 <g_334>
    92ea:	66 85 c0             	test   %ax,%ax
    92ed:	75 7b                	jne    936a <func_28+0x109b>
    92ef:	c6 05 1a d6 00 00 e6 	movb   $0xe6,0xd61a(%rip)        # 16910 <g_192>
    92f6:	eb 65                	jmp    935d <func_28+0x108e>
    92f8:	48 c7 85 18 f7 ff ff 	movq   $0x0,-0x8e8(%rbp)
    92ff:	00 00 00 00 
    9303:	48 8d 05 10 d6 00 00 	lea    0xd610(%rip),%rax        # 1691a <g_298>
    930a:	48 89 85 20 f7 ff ff 	mov    %rax,-0x8e0(%rbp)
    9311:	c7 85 28 f5 ff ff 00 	movl   $0x0,-0xad8(%rbp)
    9318:	00 00 00 
    931b:	48 c7 85 28 f7 ff ff 	movq   $0x0,-0x8d8(%rbp)
    9322:	00 00 00 00 
    9326:	48 c7 85 30 f7 ff ff 	movq   $0x0,-0x8d0(%rbp)
    932d:	00 00 00 00 
    9331:	48 8d 85 88 f5 ff ff 	lea    -0xa78(%rbp),%rax
    9338:	48 89 85 38 f7 ff ff 	mov    %rax,-0x8c8(%rbp)
    933f:	0f b6 05 ca d5 00 00 	movzbl 0xd5ca(%rip),%eax        # 16910 <g_192>
    9346:	48 0f be c0          	movsbq %al,%rax
    934a:	be 07 00 00 00       	mov    $0x7,%esi
    934f:	48 89 c7             	mov    %rax,%rdi
    9352:	e8 d7 cc ff ff       	callq  602e <safe_add_func_uint64_t_u_u>
    9357:	88 05 b3 d5 00 00    	mov    %al,0xd5b3(%rip)        # 16910 <g_192>
    935d:	0f b6 05 ac d5 00 00 	movzbl 0xd5ac(%rip),%eax        # 16910 <g_192>
    9364:	3c 02                	cmp    $0x2,%al
    9366:	75 90                	jne    92f8 <func_28+0x1029>
    9368:	eb 01                	jmp    936b <func_28+0x109c>
    936a:	90                   	nop
    936b:	8b 05 4b db 00 00    	mov    0xdb4b(%rip),%eax        # 16ebc <g_877>
    9371:	44 8b 25 54 cd 00 00 	mov    0xcd54(%rip),%r12d        # 160cc <g_135>
    9378:	48 8b 85 a8 f6 ff ff 	mov    -0x958(%rbp),%rax
    937f:	41 89 c6             	mov    %eax,%r14d
    9382:	0f b7 85 8c f4 ff ff 	movzwl -0xb74(%rbp),%eax
    9389:	44 0f bf e8          	movswl %ax,%r13d
    938d:	8b 05 ed da 00 00    	mov    0xdaed(%rip),%eax        # 16e80 <g_724+0x10>
    9393:	c1 e0 04             	shl    $0x4,%eax
    9396:	c1 f8 04             	sar    $0x4,%eax
    9399:	41 89 c7             	mov    %eax,%r15d
    939c:	48 8b 85 f8 f6 ff ff 	mov    -0x908(%rbp),%rax
    93a3:	0f bf d0             	movswl %ax,%edx
    93a6:	83 bd 88 f4 ff ff 00 	cmpl   $0x0,-0xb78(%rbp)
    93ad:	75 0a                	jne    93b9 <func_28+0x10ea>
    93af:	8b 05 4f d0 00 00    	mov    0xd04f(%rip),%eax        # 16404 <g_162>
    93b5:	85 c0                	test   %eax,%eax
    93b7:	74 07                	je     93c0 <func_28+0x10f1>
    93b9:	b8 01 00 00 00       	mov    $0x1,%eax
    93be:	eb 05                	jmp    93c5 <func_28+0x10f6>
    93c0:	b8 00 00 00 00       	mov    $0x0,%eax
    93c5:	89 c1                	mov    %eax,%ecx
    93c7:	8b 05 37 d0 00 00    	mov    0xd037(%rip),%eax        # 16404 <g_162>
    93cd:	39 c1                	cmp    %eax,%ecx
    93cf:	0f 94 c0             	sete   %al
    93d2:	0f b6 c0             	movzbl %al,%eax
    93d5:	89 d6                	mov    %edx,%esi
    93d7:	89 c7                	mov    %eax,%edi
    93d9:	e8 77 c0 ff ff       	callq  5455 <safe_div_func_int16_t_s_s>
    93de:	66 85 c0             	test   %ax,%ax
    93e1:	0f 95 c0             	setne  %al
    93e4:	0f b6 d8             	movzbl %al,%ebx
    93e7:	8b 85 10 f5 ff ff    	mov    -0xaf0(%rbp),%eax
    93ed:	0f b6 c0             	movzbl %al,%eax
    93f0:	be 00 00 00 00       	mov    $0x0,%esi
    93f5:	89 c7                	mov    %eax,%edi
    93f7:	e8 09 c8 ff ff       	callq  5c05 <safe_lshift_func_uint8_t_u_s>
    93fc:	0f b6 c0             	movzbl %al,%eax
    93ff:	89 de                	mov    %ebx,%esi
    9401:	89 c7                	mov    %eax,%edi
    9403:	e8 c8 ca ff ff       	callq  5ed0 <safe_sub_func_uint32_t_u_u>
    9408:	89 c2                	mov    %eax,%edx
    940a:	8b 85 cc f4 ff ff    	mov    -0xb34(%rbp),%eax
    9410:	48 98                	cltq   
    9412:	48 89 d6             	mov    %rdx,%rsi
    9415:	48 89 c7             	mov    %rax,%rdi
    9418:	e8 8b c4 ff ff       	callq  58a8 <safe_sub_func_int64_t_s_s>
    941d:	0f b6 c0             	movzbl %al,%eax
    9420:	8b 95 88 f4 ff ff    	mov    -0xb78(%rbp),%edx
    9426:	89 d6                	mov    %edx,%esi
    9428:	89 c7                	mov    %eax,%edi
    942a:	e8 8f c8 ff ff       	callq  5cbe <safe_rshift_func_uint8_t_u_u>
    942f:	0f b6 15 12 d6 00 00 	movzbl 0xd612(%rip),%edx        # 16a48 <g_515>
    9436:	38 d0                	cmp    %dl,%al
    9438:	73 09                	jae    9443 <func_28+0x1174>
    943a:	83 bd 88 f4 ff ff 00 	cmpl   $0x0,-0xb78(%rbp)
    9441:	74 07                	je     944a <func_28+0x117b>
    9443:	b8 01 00 00 00       	mov    $0x1,%eax
    9448:	eb 05                	jmp    944f <func_28+0x1180>
    944a:	b8 00 00 00 00       	mov    $0x0,%eax
    944f:	25 df 00 00 00       	and    $0xdf,%eax
    9454:	44 89 fe             	mov    %r15d,%esi
    9457:	89 c7                	mov    %eax,%edi
    9459:	e8 5a ca ff ff       	callq  5eb8 <safe_add_func_uint32_t_u_u>
    945e:	44 31 e8             	xor    %r13d,%eax
    9461:	be f8 ff ff ff       	mov    $0xfffffff8,%esi
    9466:	89 c7                	mov    %eax,%edi
    9468:	e8 4b ca ff ff       	callq  5eb8 <safe_add_func_uint32_t_u_u>
    946d:	83 f8 69             	cmp    $0x69,%eax
    9470:	0f 97 c0             	seta   %al
    9473:	0f b6 c0             	movzbl %al,%eax
    9476:	44 89 f6             	mov    %r14d,%esi
    9479:	89 c7                	mov    %eax,%edi
    947b:	e8 4c c2 ff ff       	callq  56cc <safe_mod_func_int32_t_s_s>
    9480:	85 c0                	test   %eax,%eax
    9482:	74 10                	je     9494 <func_28+0x11c5>
    9484:	83 bd 88 f4 ff ff 00 	cmpl   $0x0,-0xb78(%rbp)
    948b:	74 07                	je     9494 <func_28+0x11c5>
    948d:	b8 01 00 00 00       	mov    $0x1,%eax
    9492:	eb 05                	jmp    9499 <func_28+0x11ca>
    9494:	b8 00 00 00 00       	mov    $0x0,%eax
    9499:	0f b6 c0             	movzbl %al,%eax
    949c:	8b 95 88 f4 ff ff    	mov    -0xb78(%rbp),%edx
    94a2:	89 d6                	mov    %edx,%esi
    94a4:	89 c7                	mov    %eax,%edi
    94a6:	e8 a1 c7 ff ff       	callq  5c4c <safe_lshift_func_uint8_t_u_u>
    94ab:	84 c0                	test   %al,%al
    94ad:	0f 95 c0             	setne  %al
    94b0:	0f b6 c0             	movzbl %al,%eax
    94b3:	41 39 c4             	cmp    %eax,%r12d
    94b6:	b9 01 00 00 00       	mov    $0x1,%ecx
    94bb:	48 8b 85 00 f7 ff ff 	mov    -0x900(%rbp),%rax
    94c2:	48 8b 10             	mov    (%rax),%rdx
    94c5:	48 63 c1             	movslq %ecx,%rax
    94c8:	48 21 c2             	and    %rax,%rdx
    94cb:	48 8b 85 00 f7 ff ff 	mov    -0x900(%rbp),%rax
    94d2:	48 89 10             	mov    %rdx,(%rax)
    94d5:	8b 85 88 f4 ff ff    	mov    -0xb78(%rbp),%eax
    94db:	0f be c0             	movsbl %al,%eax
    94de:	be 07 00 00 00       	mov    $0x7,%esi
    94e3:	89 c7                	mov    %eax,%edi
    94e5:	e8 b7 bd ff ff       	callq  52a1 <safe_lshift_func_int8_t_s_s>
    94ea:	48 0f be c0          	movsbq %al,%rax
    94ee:	be 00 00 00 00       	mov    $0x0,%esi
    94f3:	48 89 c7             	mov    %rax,%rdi
    94f6:	e8 33 cb ff ff       	callq  602e <safe_add_func_uint64_t_u_u>
    94fb:	8b 95 18 fc ff ff    	mov    -0x3e8(%rbp),%edx
    9501:	48 63 d2             	movslq %edx,%rdx
    9504:	48 39 d0             	cmp    %rdx,%rax
    9507:	0f 96 c0             	setbe  %al
    950a:	0f b6 c8             	movzbl %al,%ecx
    950d:	48 8b 85 10 f7 ff ff 	mov    -0x8f0(%rbp),%rax
    9514:	48 8b 10             	mov    (%rax),%rdx
    9517:	48 63 c1             	movslq %ecx,%rax
    951a:	48 31 c2             	xor    %rax,%rdx
    951d:	48 8b 85 10 f7 ff ff 	mov    -0x8f0(%rbp),%rax
    9524:	48 89 10             	mov    %rdx,(%rax)
    9527:	48 8b 85 80 f4 ff ff 	mov    -0xb80(%rbp),%rax
    952e:	48 89 05 8b 12 01 00 	mov    %rax,0x1128b(%rip)        # 1a7c0 <g_127>
    9535:	48 8b 85 e0 f5 ff ff 	mov    -0xa20(%rbp),%rax
    953c:	48 c7 00 00 00 00 00 	movq   $0x0,(%rax)
    9543:	48 8b 85 80 f4 ff ff 	mov    -0xb80(%rbp),%rax
    954a:	8b 00                	mov    (%rax),%eax
    954c:	85 c0                	test   %eax,%eax
    954e:	0f 84 a4 01 00 00    	je     96f8 <func_28+0x1429>
    9554:	48 8d 05 4d 0a 01 00 	lea    0x10a4d(%rip),%rax        # 19fa8 <g_201>
    955b:	48 89 85 68 f7 ff ff 	mov    %rax,-0x898(%rbp)
    9562:	48 8d 05 67 12 01 00 	lea    0x11267(%rip),%rax        # 1a7d0 <g_208>
    9569:	48 89 85 b8 f5 ff ff 	mov    %rax,-0xa48(%rbp)
    9570:	48 8d 85 b8 f5 ff ff 	lea    -0xa48(%rbp),%rax
    9577:	48 89 85 70 f7 ff ff 	mov    %rax,-0x890(%rbp)
    957e:	48 8b 95 68 f5 ff ff 	mov    -0xa98(%rbp),%rdx
    9585:	48 8b 85 68 f7 ff ff 	mov    -0x898(%rbp),%rax
    958c:	48 89 10             	mov    %rdx,(%rax)
    958f:	0f b7 05 a0 d3 00 00 	movzwl 0xd3a0(%rip),%eax        # 16936 <g_326+0x16>
    9596:	0f bf d0             	movswl %ax,%edx
    9599:	8b 05 f1 d8 00 00    	mov    0xd8f1(%rip),%eax        # 16e90 <g_870>
    959f:	39 c2                	cmp    %eax,%edx
    95a1:	0f 8d 0e 01 00 00    	jge    96b5 <func_28+0x13e6>
    95a7:	8b 9d 60 fa ff ff    	mov    -0x5a0(%rbp),%ebx
    95ad:	44 8b a5 08 f5 ff ff 	mov    -0xaf8(%rbp),%r12d
    95b4:	8b 05 36 ce 00 00    	mov    0xce36(%rip),%eax        # 163f0 <g_156>
    95ba:	41 89 c7             	mov    %eax,%r15d
    95bd:	48 8b 85 70 f7 ff ff 	mov    -0x890(%rbp),%rax
    95c4:	48 c7 00 00 00 00 00 	movq   $0x0,(%rax)
    95cb:	48 8b 85 70 f7 ff ff 	mov    -0x890(%rbp),%rax
    95d2:	48 8b 00             	mov    (%rax),%rax
    95d5:	48 39 85 b0 f6 ff ff 	cmp    %rax,-0x950(%rbp)
    95dc:	0f 94 c0             	sete   %al
    95df:	44 0f b6 f0          	movzbl %al,%r14d
    95e3:	44 8b 2d fe ca 00 00 	mov    0xcafe(%rip),%r13d        # 160e8 <g_137>
    95ea:	be fb ff ff ff       	mov    $0xfffffffb,%esi
    95ef:	bf 42 00 00 00       	mov    $0x42,%edi
    95f4:	e8 19 bc ff ff       	callq  5212 <safe_mul_func_int8_t_s_s>
    95f9:	66 98                	cbtw   
    95fb:	0f b7 c0             	movzwl %ax,%eax
    95fe:	8b 95 88 f4 ff ff    	mov    -0xb78(%rbp),%edx
    9604:	89 d6                	mov    %edx,%esi
    9606:	89 c7                	mov    %eax,%edi
    9608:	e8 6d c8 ff ff       	callq  5e7a <safe_rshift_func_uint16_t_u_u>
    960d:	66 85 c0             	test   %ax,%ax
    9610:	75 0a                	jne    961c <func_28+0x134d>
    9612:	8b 85 18 fc ff ff    	mov    -0x3e8(%rbp),%eax
    9618:	85 c0                	test   %eax,%eax
    961a:	74 07                	je     9623 <func_28+0x1354>
    961c:	b8 01 00 00 00       	mov    $0x1,%eax
    9621:	eb 05                	jmp    9628 <func_28+0x1359>
    9623:	b8 00 00 00 00       	mov    $0x0,%eax
    9628:	89 c2                	mov    %eax,%edx
    962a:	8b 85 5c fa ff ff    	mov    -0x5a4(%rbp),%eax
    9630:	09 c2                	or     %eax,%edx
    9632:	0f b7 85 8c f4 ff ff 	movzwl -0xb74(%rbp),%eax
    9639:	09 d0                	or     %edx,%eax
    963b:	0f b6 c0             	movzbl %al,%eax
    963e:	be f9 00 00 00       	mov    $0xf9,%esi
    9643:	89 c7                	mov    %eax,%edi
    9645:	e8 49 c5 ff ff       	callq  5b93 <safe_mul_func_uint8_t_u_u>
    964a:	0f b6 c0             	movzbl %al,%eax
    964d:	48 39 85 a8 f6 ff ff 	cmp    %rax,-0x958(%rbp)
    9654:	44 89 ee             	mov    %r13d,%esi
    9657:	bf d4 ff ff ff       	mov    $0xffffffd4,%edi
    965c:	e8 0b bd ff ff       	callq  536c <safe_rshift_func_int8_t_s_u>
    9661:	0f be c0             	movsbl %al,%eax
    9664:	41 39 c6             	cmp    %eax,%r14d
    9667:	0f 9d c0             	setge  %al
    966a:	0f b6 c0             	movzbl %al,%eax
    966d:	48 8b 95 f8 f5 ff ff 	mov    -0xa08(%rbp),%rdx
    9674:	66 c7 02 03 94       	movw   $0x9403,(%rdx)
    9679:	89 c6                	mov    %eax,%esi
    967b:	bf 03 94 ff ff       	mov    $0xffff9403,%edi
    9680:	e8 a5 be ff ff       	callq  552a <safe_rshift_func_int16_t_s_s>
    9685:	8b 85 f4 f7 ff ff    	mov    -0x80c(%rbp),%eax
    968b:	48 98                	cltq   
    968d:	4c 89 fe             	mov    %r15,%rsi
    9690:	48 89 c7             	mov    %rax,%rdi
    9693:	e8 96 c9 ff ff       	callq  602e <safe_add_func_uint64_t_u_u>
    9698:	4c 89 e6             	mov    %r12,%rsi
    969b:	48 89 c7             	mov    %rax,%rdi
    969e:	e8 05 c2 ff ff       	callq  58a8 <safe_sub_func_int64_t_s_s>
    96a3:	b8 01 00 00 00       	mov    $0x1,%eax
    96a8:	89 de                	mov    %ebx,%esi
    96aa:	89 c7                	mov    %eax,%edi
    96ac:	e8 05 bf ff ff       	callq  55b6 <safe_add_func_int32_t_s_s>
    96b1:	85 c0                	test   %eax,%eax
    96b3:	74 07                	je     96bc <func_28+0x13ed>
    96b5:	b8 01 00 00 00       	mov    $0x1,%eax
    96ba:	eb 05                	jmp    96c1 <func_28+0x13f2>
    96bc:	b8 00 00 00 00       	mov    $0x0,%eax
    96c1:	0f b6 c0             	movzbl %al,%eax
    96c4:	be f7 00 00 00       	mov    $0xf7,%esi
    96c9:	89 c7                	mov    %eax,%edi
    96cb:	e8 8a c4 ff ff       	callq  5b5a <safe_add_func_uint8_t_u_u>
    96d0:	0f b6 c0             	movzbl %al,%eax
    96d3:	c1 e0 07             	shl    $0x7,%eax
    96d6:	c1 f8 07             	sar    $0x7,%eax
    96d9:	25 ff ff ff 01       	and    $0x1ffffff,%eax
    96de:	89 c2                	mov    %eax,%edx
    96e0:	8b 05 32 d3 00 00    	mov    0xd332(%rip),%eax        # 16a18 <g_399+0x18>
    96e6:	25 00 00 00 fe       	and    $0xfe000000,%eax
    96eb:	09 d0                	or     %edx,%eax
    96ed:	89 05 25 d3 00 00    	mov    %eax,0xd325(%rip)        # 16a18 <g_399+0x18>
    96f3:	e9 86 00 00 00       	jmpq   977e <func_28+0x14af>
    96f8:	c7 85 2c f5 ff ff 58 	movl   $0xf4fdd658,-0xad4(%rbp)
    96ff:	d6 fd f4 
    9702:	c7 85 30 f5 ff ff 01 	movl   $0x1,-0xad0(%rbp)
    9709:	00 00 00 
    970c:	c7 85 34 f5 ff ff ee 	movl   $0xbda4e2ee,-0xacc(%rbp)
    9713:	e2 a4 bd 
    9716:	c7 85 d4 f4 ff ff 00 	movl   $0x0,-0xb2c(%rbp)
    971d:	00 00 00 
    9720:	eb 1a                	jmp    973c <func_28+0x146d>
    9722:	8b 85 d4 f4 ff ff    	mov    -0xb2c(%rbp),%eax
    9728:	48 98                	cltq   
    972a:	c7 84 85 40 f8 ff ff 	movl   $0x9c04de20,-0x7c0(%rbp,%rax,4)
    9731:	20 de 04 9c 
    9735:	83 85 d4 f4 ff ff 01 	addl   $0x1,-0xb2c(%rbp)
    973c:	83 bd d4 f4 ff ff 03 	cmpl   $0x3,-0xb2c(%rbp)
    9743:	7e dd                	jle    9722 <func_28+0x1453>
    9745:	0f b6 05 9e d7 00 00 	movzbl 0xd79e(%rip),%eax        # 16eea <g_1080+0xa>
    974c:	83 c0 01             	add    $0x1,%eax
    974f:	88 05 95 d7 00 00    	mov    %al,0xd795(%rip)        # 16eea <g_1080+0xa>
    9755:	48 8b 85 98 f4 ff ff 	mov    -0xb68(%rbp),%rax
    975c:	8b 00                	mov    (%rax),%eax
    975e:	c1 e0 07             	shl    $0x7,%eax
    9761:	c1 f8 07             	sar    $0x7,%eax
    9764:	25 ff ff ff 01       	and    $0x1ffffff,%eax
    9769:	89 c2                	mov    %eax,%edx
    976b:	8b 05 a7 d2 00 00    	mov    0xd2a7(%rip),%eax        # 16a18 <g_399+0x18>
    9771:	25 00 00 00 fe       	and    $0xfe000000,%eax
    9776:	09 d0                	or     %edx,%eax
    9778:	89 05 9a d2 00 00    	mov    %eax,0xd29a(%rip)        # 16a18 <g_399+0x18>
    977e:	48 8b 85 90 f5 ff ff 	mov    -0xa70(%rbp),%rax
    9785:	48 89 85 f8 f7 ff ff 	mov    %rax,-0x808(%rbp)
    978c:	48 8b 85 f8 f7 ff ff 	mov    -0x808(%rbp),%rax
    9793:	48 39 85 68 f6 ff ff 	cmp    %rax,-0x998(%rbp)
    979a:	0f 84 31 01 00 00    	je     98d1 <func_28+0x1602>
    97a0:	48 8d 05 01 08 01 00 	lea    0x10801(%rip),%rax        # 19fa8 <g_201>
    97a7:	48 89 85 c0 f7 ff ff 	mov    %rax,-0x840(%rbp)
    97ae:	c7 85 50 f5 ff ff 75 	movl   $0xcdb20c75,-0xab0(%rbp)
    97b5:	0c b2 cd 
    97b8:	c7 85 54 f5 ff ff 09 	movl   $0x9,-0xaac(%rbp)
    97bf:	00 00 00 
    97c2:	8b 9d 50 f5 ff ff    	mov    -0xab0(%rbp),%ebx
    97c8:	44 8b 25 51 cd 00 00 	mov    0xcd51(%rip),%r12d        # 16520 <g_169>
    97cf:	48 8b 05 22 08 01 00 	mov    0x10822(%rip),%rax        # 19ff8 <g_778>
    97d6:	48 8b 00             	mov    (%rax),%rax
    97d9:	8b 10                	mov    (%rax),%edx
    97db:	81 ca 80 ad 8a 8a    	or     $0x8a8aad80,%edx
    97e1:	89 10                	mov    %edx,(%rax)
    97e3:	48 8b 05 56 08 01 00 	mov    0x10856(%rip),%rax        # 1a040 <g_811>
    97ea:	48 8b 00             	mov    (%rax),%rax
    97ed:	48 8b 00             	mov    (%rax),%rax
    97f0:	48 85 c0             	test   %rax,%rax
    97f3:	0f 94 c2             	sete   %dl
    97f6:	48 8b 85 68 f6 ff ff 	mov    -0x998(%rbp),%rax
    97fd:	48 8b 00             	mov    (%rax),%rax
    9800:	88 10                	mov    %dl,(%rax)
    9802:	0f b6 00             	movzbl (%rax),%eax
    9805:	0f be c0             	movsbl %al,%eax
    9808:	89 c7                	mov    %eax,%edi
    980a:	e8 b0 b9 ff ff       	callq  51bf <safe_unary_minus_func_int8_t_s>
    980f:	48 8b 85 c0 f7 ff ff 	mov    -0x840(%rbp),%rax
    9816:	48 8b 95 70 f6 ff ff 	mov    -0x990(%rbp),%rdx
    981d:	48 89 10             	mov    %rdx,(%rax)
    9820:	48 8b 85 c0 f7 ff ff 	mov    -0x840(%rbp),%rax
    9827:	48 8b 00             	mov    (%rax),%rax
    982a:	48 85 c0             	test   %rax,%rax
    982d:	83 bd 88 f4 ff ff 00 	cmpl   $0x0,-0xb78(%rbp)
    9834:	75 08                	jne    983e <func_28+0x156f>
    9836:	8b 05 ec ca 00 00    	mov    0xcaec(%rip),%eax        # 16328 <g_149>
    983c:	85 c0                	test   %eax,%eax
    983e:	0f b7 05 0d d2 00 00 	movzwl 0xd20d(%rip),%eax        # 16a52 <g_587>
    9845:	0f b7 c0             	movzwl %ax,%eax
    9848:	be 0a ea 00 00       	mov    $0xea0a,%esi
    984d:	89 c7                	mov    %eax,%edi
    984f:	e8 08 c5 ff ff       	callq  5d5c <safe_mod_func_uint16_t_u_u>
    9854:	0f b7 c0             	movzwl %ax,%eax
    9857:	8b 95 50 f5 ff ff    	mov    -0xab0(%rbp),%edx
    985d:	89 d6                	mov    %edx,%esi
    985f:	89 c7                	mov    %eax,%edi
    9861:	e8 50 bd ff ff       	callq  55b6 <safe_add_func_int32_t_s_s>
    9866:	0f b6 c0             	movzbl %al,%eax
    9869:	be 00 00 00 00       	mov    $0x0,%esi
    986e:	89 c7                	mov    %eax,%edi
    9870:	e8 1e c3 ff ff       	callq  5b93 <safe_mul_func_uint8_t_u_u>
    9875:	0f b6 c0             	movzbl %al,%eax
    9878:	44 89 e2             	mov    %r12d,%edx
    987b:	31 c2                	xor    %eax,%edx
    987d:	0f b7 85 8c f4 ff ff 	movzwl -0xb74(%rbp),%eax
    9884:	98                   	cwtl   
    9885:	39 c2                	cmp    %eax,%edx
    9887:	0f 96 c0             	setbe  %al
    988a:	0f b6 c0             	movzbl %al,%eax
    988d:	89 de                	mov    %ebx,%esi
    988f:	89 c7                	mov    %eax,%edi
    9891:	e8 e4 c5 ff ff       	callq  5e7a <safe_rshift_func_uint16_t_u_u>
    9896:	0f b7 c0             	movzwl %ax,%eax
    9899:	39 85 fc f4 ff ff    	cmp    %eax,-0xb04(%rbp)
    989f:	8b 85 54 f5 ff ff    	mov    -0xaac(%rbp),%eax
    98a5:	c1 e0 04             	shl    $0x4,%eax
    98a8:	c1 f8 04             	sar    $0x4,%eax
    98ab:	89 c0                	mov    %eax,%eax
    98ad:	25 ff ff ff 0f       	and    $0xfffffff,%eax
    98b2:	48 89 c2             	mov    %rax,%rdx
    98b5:	48 8b 05 74 d1 00 00 	mov    0xd174(%rip),%rax        # 16a30 <g_492+0x10>
    98bc:	48 25 00 00 00 f0    	and    $0xfffffffff0000000,%rax
    98c2:	48 09 d0             	or     %rdx,%rax
    98c5:	48 89 05 64 d1 00 00 	mov    %rax,0xd164(%rip)        # 16a30 <g_492+0x10>
    98cc:	e9 e5 0c 00 00       	jmpq   a5b6 <func_28+0x22e7>
    98d1:	48 c7 85 b0 f5 ff ff 	movq   $0x0,-0xa50(%rbp)
    98d8:	00 00 00 00 
    98dc:	c7 85 38 f5 ff ff 01 	movl   $0x1,-0xac8(%rbp)
    98e3:	00 00 00 
    98e6:	c7 85 d8 f4 ff ff ff 	movl   $0xffffffff,-0xb28(%rbp)
    98ed:	ff ff ff 
    98f0:	c7 85 dc f4 ff ff fc 	movl   $0xfffffffc,-0xb24(%rbp)
    98f7:	ff ff ff 
    98fa:	66 c7 85 b2 f4 ff ff 	movw   $0x0,-0xb4e(%rbp)
    9901:	00 00 
    9903:	0f b7 85 ac f4 ff ff 	movzwl -0xb54(%rbp),%eax
    990a:	98                   	cwtl   
    990b:	89 c7                	mov    %eax,%edi
    990d:	e8 8b ba ff ff       	callq  539d <safe_unary_minus_func_int16_t_s>
    9912:	98                   	cwtl   
    9913:	be ef c1 3a 45       	mov    $0x453ac1ef,%esi
    9918:	89 c7                	mov    %eax,%edi
    991a:	e8 e0 bd ff ff       	callq  56ff <safe_div_func_int32_t_s_s>
    991f:	85 c0                	test   %eax,%eax
    9921:	0f 84 08 06 00 00    	je     9f2f <func_28+0x1c60>
    9927:	c7 85 40 f5 ff ff 01 	movl   $0x1,-0xac0(%rbp)
    992e:	00 00 00 
    9931:	48 8d 85 60 fc ff ff 	lea    -0x3a0(%rbp),%rax
    9938:	48 8d 15 01 8a 00 00 	lea    0x8a01(%rip),%rdx        # 12340 <g_1231+0x2e8>
    993f:	b9 6c 00 00 00       	mov    $0x6c,%ecx
    9944:	48 89 c7             	mov    %rax,%rdi
    9947:	48 89 d6             	mov    %rdx,%rsi
    994a:	f3 48 a5             	rep movsq %ds:(%rsi),%es:(%rdi)
    994d:	c6 85 a9 f4 ff ff 00 	movb   $0x0,-0xb57(%rbp)
    9954:	66 c7 85 b6 f4 ff ff 	movw   $0xfffb,-0xb4a(%rbp)
    995b:	fb ff 
    995d:	48 8d 85 80 f5 ff ff 	lea    -0xa80(%rbp),%rax
    9964:	48 89 85 a8 f7 ff ff 	mov    %rax,-0x858(%rbp)
    996b:	66 c7 05 a6 cf 00 00 	movw   $0x0,0xcfa6(%rip)        # 1691a <g_298>
    9972:	00 00 
    9974:	e9 37 02 00 00       	jmpq   9bb0 <func_28+0x18e1>
    9979:	48 c7 85 b8 f7 ff ff 	movq   $0x0,-0x848(%rbp)
    9980:	00 00 00 00 
    9984:	48 8d 85 b0 f5 ff ff 	lea    -0xa50(%rbp),%rax
    998b:	48 89 85 20 f8 ff ff 	mov    %rax,-0x7e0(%rbp)
    9992:	48 8d 85 b0 f5 ff ff 	lea    -0xa50(%rbp),%rax
    9999:	48 89 85 28 f8 ff ff 	mov    %rax,-0x7d8(%rbp)
    99a0:	48 8d 85 b0 f5 ff ff 	lea    -0xa50(%rbp),%rax
    99a7:	48 89 85 30 f8 ff ff 	mov    %rax,-0x7d0(%rbp)
    99ae:	48 8d 85 b0 f5 ff ff 	lea    -0xa50(%rbp),%rax
    99b5:	48 89 85 38 f8 ff ff 	mov    %rax,-0x7c8(%rbp)
    99bc:	c7 85 48 f5 ff ff ff 	movl   $0xffffffff,-0xab8(%rbp)
    99c3:	ff ff ff 
    99c6:	c7 85 4c f5 ff ff ff 	movl   $0xffffffff,-0xab4(%rbp)
    99cd:	ff ff ff 
    99d0:	c7 85 e0 f4 ff ff 00 	movl   $0x0,-0xb20(%rbp)
    99d7:	00 00 00 
    99da:	eb 75                	jmp    9a51 <func_28+0x1782>
    99dc:	c7 85 e4 f4 ff ff 00 	movl   $0x0,-0xb1c(%rbp)
    99e3:	00 00 00 
    99e6:	eb 59                	jmp    9a41 <func_28+0x1772>
    99e8:	c7 85 e8 f4 ff ff 00 	movl   $0x0,-0xb18(%rbp)
    99ef:	00 00 00 
    99f2:	eb 3d                	jmp    9a31 <func_28+0x1762>
    99f4:	8b 85 e8 f4 ff ff    	mov    -0xb18(%rbp),%eax
    99fa:	48 63 f0             	movslq %eax,%rsi
    99fd:	8b 85 e4 f4 ff ff    	mov    -0xb1c(%rbp),%eax
    9a03:	48 63 c8             	movslq %eax,%rcx
    9a06:	8b 85 e0 f4 ff ff    	mov    -0xb20(%rbp),%eax
    9a0c:	48 63 d0             	movslq %eax,%rdx
    9a0f:	48 89 d0             	mov    %rdx,%rax
    9a12:	48 01 c0             	add    %rax,%rax
    9a15:	48 01 d0             	add    %rdx,%rax
    9a18:	48 01 f0             	add    %rsi,%rax
    9a1b:	48 01 c8             	add    %rcx,%rax
    9a1e:	48 c7 84 c5 40 f8 ff 	movq   $0x0,-0x7c0(%rbp,%rax,8)
    9a25:	ff 00 00 00 00 
    9a2a:	83 85 e8 f4 ff ff 01 	addl   $0x1,-0xb18(%rbp)
    9a31:	83 bd e8 f4 ff ff 00 	cmpl   $0x0,-0xb18(%rbp)
    9a38:	7e ba                	jle    99f4 <func_28+0x1725>
    9a3a:	83 85 e4 f4 ff ff 01 	addl   $0x1,-0xb1c(%rbp)
    9a41:	83 bd e4 f4 ff ff 02 	cmpl   $0x2,-0xb1c(%rbp)
    9a48:	7e 9e                	jle    99e8 <func_28+0x1719>
    9a4a:	83 85 e0 f4 ff ff 01 	addl   $0x1,-0xb20(%rbp)
    9a51:	83 bd e0 f4 ff ff 01 	cmpl   $0x1,-0xb20(%rbp)
    9a58:	7e 82                	jle    99dc <func_28+0x170d>
    9a5a:	48 8b 85 b0 f5 ff ff 	mov    -0xa50(%rbp),%rax
    9a61:	48 89 85 a0 f5 ff ff 	mov    %rax,-0xa60(%rbp)
    9a68:	0f b7 05 b7 d4 00 00 	movzwl 0xd4b7(%rip),%eax        # 16f26 <g_1117>
    9a6f:	83 e8 01             	sub    $0x1,%eax
    9a72:	66 89 05 ad d4 00 00 	mov    %ax,0xd4ad(%rip)        # 16f26 <g_1117>
    9a79:	8b 05 ad ca 00 00    	mov    0xcaad(%rip),%eax        # 1652c <g_172>
    9a7f:	0f be d8             	movsbl %al,%ebx
    9a82:	44 8b 25 8b c6 00 00 	mov    0xc68b(%rip),%r12d        # 16114 <g_139+0x14>
    9a89:	0f b7 05 8a ce 00 00 	movzwl 0xce8a(%rip),%eax        # 1691a <g_298>
    9a90:	44 0f b6 e8          	movzbl %al,%r13d
    9a94:	be ff 00 00 00       	mov    $0xff,%esi
    9a99:	bf c5 00 00 00       	mov    $0xc5,%edi
    9a9e:	e8 0b c1 ff ff       	callq  5bae <safe_mod_func_uint8_t_u_u>
    9aa3:	c6 05 fe 0c 01 00 00 	movb   $0x0,0x10cfe(%rip)        # 1a7a8 <g_96>
    9aaa:	0f b6 05 f7 0c 01 00 	movzbl 0x10cf7(%rip),%eax        # 1a7a8 <g_96>
    9ab1:	0f b6 c0             	movzbl %al,%eax
    9ab4:	44 89 ee             	mov    %r13d,%esi
    9ab7:	89 c7                	mov    %eax,%edi
    9ab9:	e8 d5 c0 ff ff       	callq  5b93 <safe_mul_func_uint8_t_u_u>
    9abe:	44 89 e6             	mov    %r12d,%esi
    9ac1:	bf 00 00 00 00       	mov    $0x0,%edi
    9ac6:	e8 a1 b8 ff ff       	callq  536c <safe_rshift_func_int8_t_s_u>
    9acb:	8b 05 b3 d3 00 00    	mov    0xd3b3(%rip),%eax        # 16e84 <g_724+0x14>
    9ad1:	25 ff ff ff 00       	and    $0xffffff,%eax
    9ad6:	83 f0 a4             	xor    $0xffffffa4,%eax
    9ad9:	0f b6 c0             	movzbl %al,%eax
    9adc:	0f b7 15 37 ce 00 00 	movzwl 0xce37(%rip),%edx        # 1691a <g_298>
    9ae3:	0f b7 d2             	movzwl %dx,%edx
    9ae6:	48 63 d2             	movslq %edx,%rdx
    9ae9:	48 8d 0c 12          	lea    (%rdx,%rdx,1),%rcx
    9aed:	48 8d 15 7c c5 00 00 	lea    0xc57c(%rip),%rdx        # 16070 <g_106>
    9af4:	0f b7 14 11          	movzwl (%rcx,%rdx,1),%edx
    9af8:	0f b6 d2             	movzbl %dl,%edx
    9afb:	83 e2 01             	and    $0x1,%edx
    9afe:	89 c6                	mov    %eax,%esi
    9b00:	89 d7                	mov    %edx,%edi
    9b02:	e8 8c c0 ff ff       	callq  5b93 <safe_mul_func_uint8_t_u_u>
    9b07:	0f be c0             	movsbl %al,%eax
    9b0a:	89 de                	mov    %ebx,%esi
    9b0c:	89 c7                	mov    %eax,%edi
    9b0e:	e8 c1 b6 ff ff       	callq  51d4 <safe_add_func_int8_t_s_s>
    9b13:	0f be c0             	movsbl %al,%eax
    9b16:	39 85 88 f4 ff ff    	cmp    %eax,-0xb78(%rbp)
    9b1c:	0f 96 c0             	setbe  %al
    9b1f:	0f b6 d8             	movzbl %al,%ebx
    9b22:	be 04 00 00 00       	mov    $0x4,%esi
    9b27:	bf 01 00 00 00       	mov    $0x1,%edi
    9b2c:	e8 3b b8 ff ff       	callq  536c <safe_rshift_func_int8_t_s_u>
    9b31:	0f be d0             	movsbl %al,%edx
    9b34:	0f b7 05 df cd 00 00 	movzwl 0xcddf(%rip),%eax        # 1691a <g_298>
    9b3b:	0f b7 c0             	movzwl %ax,%eax
    9b3e:	48 98                	cltq   
    9b40:	48 8d 0c 00          	lea    (%rax,%rax,1),%rcx
    9b44:	48 8d 05 25 c5 00 00 	lea    0xc525(%rip),%rax        # 16070 <g_106>
    9b4b:	0f b7 04 01          	movzwl (%rcx,%rax,1),%eax
    9b4f:	98                   	cwtl   
    9b50:	09 d0                	or     %edx,%eax
    9b52:	85 c0                	test   %eax,%eax
    9b54:	0f 95 c0             	setne  %al
    9b57:	89 c2                	mov    %eax,%edx
    9b59:	48 8b 85 20 f6 ff ff 	mov    -0x9e0(%rbp),%rax
    9b60:	88 10                	mov    %dl,(%rax)
    9b62:	48 8b 85 20 f6 ff ff 	mov    -0x9e0(%rbp),%rax
    9b69:	0f b6 00             	movzbl (%rax),%eax
    9b6c:	0f b6 c0             	movzbl %al,%eax
    9b6f:	89 de                	mov    %ebx,%esi
    9b71:	89 c7                	mov    %eax,%edi
    9b73:	e8 00 c0 ff ff       	callq  5b78 <safe_sub_func_uint8_t_u_u>
    9b78:	be df 74 00 00       	mov    $0x74df,%esi
    9b7d:	bf ff ff 00 00       	mov    $0xffff,%edi
    9b82:	e8 d5 c1 ff ff       	callq  5d5c <safe_mod_func_uint16_t_u_u>
    9b87:	0f be c0             	movsbl %al,%eax
    9b8a:	be 01 00 00 00       	mov    $0x1,%esi
    9b8f:	89 c7                	mov    %eax,%edi
    9b91:	e8 58 b7 ff ff       	callq  52ee <safe_lshift_func_int8_t_s_u>
    9b96:	0f be c0             	movsbl %al,%eax
    9b99:	89 85 dc f4 ff ff    	mov    %eax,-0xb24(%rbp)
    9b9f:	0f b7 05 74 cd 00 00 	movzwl 0xcd74(%rip),%eax        # 1691a <g_298>
    9ba6:	83 c0 01             	add    $0x1,%eax
    9ba9:	66 89 05 6a cd 00 00 	mov    %ax,0xcd6a(%rip)        # 1691a <g_298>
    9bb0:	0f b7 05 63 cd 00 00 	movzwl 0xcd63(%rip),%eax        # 1691a <g_298>
    9bb7:	66 83 f8 09          	cmp    $0x9,%ax
    9bbb:	0f 86 b8 fd ff ff    	jbe    9979 <func_28+0x16aa>
    9bc1:	c7 05 49 cd 00 00 00 	movl   $0x0,0xcd49(%rip)        # 16914 <g_202>
    9bc8:	00 00 00 
    9bcb:	e9 fa 02 00 00       	jmpq   9eca <func_28+0x1bfb>
    9bd0:	c7 85 44 f5 ff ff fc 	movl   $0xfffffffc,-0xabc(%rbp)
    9bd7:	ff ff ff 
    9bda:	48 c7 85 b0 f7 ff ff 	movq   $0xffffffffffffffff,-0x850(%rbp)
    9be1:	ff ff ff ff 
    9be5:	48 8d 85 90 f9 ff ff 	lea    -0x670(%rbp),%rax
    9bec:	48 05 88 02 00 00    	add    $0x288,%rax
    9bf2:	48 89 c7             	mov    %rax,%rdi
    9bf5:	e8 45 11 00 00       	callq  ad3f <func_37>
    9bfa:	48 89 c3             	mov    %rax,%rbx
    9bfd:	8b 05 b1 cd 00 00    	mov    0xcdb1(%rip),%eax        # 169b4 <g_354>
    9c03:	89 c2                	mov    %eax,%edx
    9c05:	8b 85 2c ff ff ff    	mov    -0xd4(%rbp),%eax
    9c0b:	31 85 d8 f4 ff ff    	xor    %eax,-0xb28(%rbp)
    9c11:	8b 85 d8 f4 ff ff    	mov    -0xb28(%rbp),%eax
    9c17:	0f be c0             	movsbl %al,%eax
    9c1a:	89 c6                	mov    %eax,%esi
    9c1c:	48 8d 3d 1d c4 00 00 	lea    0xc41d(%rip),%rdi        # 16040 <g_2+0x10>
    9c23:	e8 70 1b 00 00       	callq  b798 <func_65>
    9c28:	48 89 de             	mov    %rbx,%rsi
    9c2b:	48 89 c7             	mov    %rax,%rdi
    9c2e:	e8 69 10 00 00       	callq  ac9c <func_34>
    9c33:	48 89 c7             	mov    %rax,%rdi
    9c36:	e8 04 11 00 00       	callq  ad3f <func_37>
    9c3b:	48 89 c2             	mov    %rax,%rdx
    9c3e:	48 8b 85 90 f4 ff ff 	mov    -0xb70(%rbp),%rax
    9c45:	48 89 c6             	mov    %rax,%rsi
    9c48:	48 89 d7             	mov    %rdx,%rdi
    9c4b:	e8 4c 10 00 00       	callq  ac9c <func_34>
    9c50:	48 8b 95 e0 f5 ff ff 	mov    -0xa20(%rbp),%rdx
    9c57:	48 89 02             	mov    %rax,(%rdx)
    9c5a:	48 8b 85 e0 f5 ff ff 	mov    -0xa20(%rbp),%rax
    9c61:	48 8b 00             	mov    (%rax),%rax
    9c64:	8b 00                	mov    (%rax),%eax
    9c66:	89 05 f4 c3 00 00    	mov    %eax,0xc3f4(%rip)        # 16060 <g_64>
    9c6c:	8b 85 88 f4 ff ff    	mov    -0xb78(%rbp),%eax
    9c72:	0f b7 d8             	movzwl %ax,%ebx
    9c75:	0f b6 85 a9 f4 ff ff 	movzbl -0xb57(%rbp),%eax
    9c7c:	89 85 7c f4 ff ff    	mov    %eax,-0xb84(%rbp)
    9c82:	0f b7 85 8c f4 ff ff 	movzwl -0xb74(%rbp),%eax
    9c89:	44 0f bf e0          	movswl %ax,%r12d
    9c8d:	48 8b 05 44 0b 01 00 	mov    0x10b44(%rip),%rax        # 1a7d8 <g_210>
    9c94:	44 0f bf e8          	movswl %ax,%r13d
    9c98:	8b 35 1e c5 00 00    	mov    0xc51e(%rip),%esi        # 161bc <g_141+0x7c>
    9c9e:	89 b5 78 f4 ff ff    	mov    %esi,-0xb88(%rbp)
    9ca4:	8b 85 88 f4 ff ff    	mov    -0xb78(%rbp),%eax
    9caa:	44 0f bf f0          	movswl %ax,%r14d
    9cae:	8b 85 f4 f7 ff ff    	mov    -0x80c(%rbp),%eax
    9cb4:	44 0f bf f8          	movswl %ax,%r15d
    9cb8:	0f b7 85 8c f4 ff ff 	movzwl -0xb74(%rbp),%eax
    9cbf:	0f bf f8             	movswl %ax,%edi
    9cc2:	89 bd 74 f4 ff ff    	mov    %edi,-0xb8c(%rbp)
    9cc8:	0f b7 85 8c f4 ff ff 	movzwl -0xb74(%rbp),%eax
    9ccf:	48 0f bf d0          	movswq %ax,%rdx
    9cd3:	48 89 95 68 f4 ff ff 	mov    %rdx,-0xb98(%rbp)
    9cda:	8b 05 24 e5 00 00    	mov    0xe524(%rip),%eax        # 18204 <g_1147+0x12c4>
    9ce0:	c1 e0 04             	shl    $0x4,%eax
    9ce3:	c1 f8 04             	sar    $0x4,%eax
    9ce6:	89 c1                	mov    %eax,%ecx
    9ce8:	48 8b 85 c0 f5 ff ff 	mov    -0xa40(%rbp),%rax
    9cef:	48 8b 00             	mov    (%rax),%rax
    9cf2:	48 8b 00             	mov    (%rax),%rax
    9cf5:	48 85 c0             	test   %rax,%rax
    9cf8:	0f 94 c0             	sete   %al
    9cfb:	0f b6 d0             	movzbl %al,%edx
    9cfe:	0f b7 85 8c f4 ff ff 	movzwl -0xb74(%rbp),%eax
    9d05:	98                   	cwtl   
    9d06:	39 c2                	cmp    %eax,%edx
    9d08:	0f 9d c0             	setge  %al
    9d0b:	89 c2                	mov    %eax,%edx
    9d0d:	0f b6 05 3c c3 00 00 	movzbl 0xc33c(%rip),%eax        # 16050 <g_24>
    9d14:	09 d0                	or     %edx,%eax
    9d16:	88 05 34 c3 00 00    	mov    %al,0xc334(%rip)        # 16050 <g_24>
    9d1c:	0f b6 05 2d c3 00 00 	movzbl 0xc32d(%rip),%eax        # 16050 <g_24>
    9d23:	0f b6 c0             	movzbl %al,%eax
    9d26:	89 ce                	mov    %ecx,%esi
    9d28:	89 c7                	mov    %eax,%edi
    9d2a:	e8 1d bf ff ff       	callq  5c4c <safe_lshift_func_uint8_t_u_u>
    9d2f:	0f b6 d0             	movzbl %al,%edx
    9d32:	0f b7 85 8c f4 ff ff 	movzwl -0xb74(%rbp),%eax
    9d39:	98                   	cwtl   
    9d3a:	39 c2                	cmp    %eax,%edx
    9d3c:	0f 95 c0             	setne  %al
    9d3f:	0f b6 d0             	movzbl %al,%edx
    9d42:	48 8b 85 e0 f5 ff ff 	mov    -0xa20(%rbp),%rax
    9d49:	48 8b 00             	mov    (%rax),%rax
    9d4c:	8b 00                	mov    (%rax),%eax
    9d4e:	39 c2                	cmp    %eax,%edx
    9d50:	0f 94 c0             	sete   %al
    9d53:	0f b6 c0             	movzbl %al,%eax
    9d56:	48 be 15 73 0b b4 64 	movabs $0xcd8ac464b40b7315,%rsi
    9d5d:	c4 8a cd 
    9d60:	48 89 c7             	mov    %rax,%rdi
    9d63:	e8 4c bc ff ff       	callq  59b4 <safe_mod_func_int64_t_s_s>
    9d68:	48 39 85 68 f4 ff ff 	cmp    %rax,-0xb98(%rbp)
    9d6f:	0f 9f c0             	setg   %al
    9d72:	0f b6 c0             	movzbl %al,%eax
    9d75:	48 89 05 c4 cc 00 00 	mov    %rax,0xccc4(%rip)        # 16a40 <g_512>
    9d7c:	8b 85 88 f4 ff ff    	mov    -0xb78(%rbp),%eax
    9d82:	98                   	cwtl   
    9d83:	8b b5 74 f4 ff ff    	mov    -0xb8c(%rbp),%esi
    9d89:	89 c7                	mov    %eax,%edi
    9d8b:	e8 65 b6 ff ff       	callq  53f5 <safe_mul_func_int16_t_s_s>
    9d90:	98                   	cwtl   
    9d91:	44 89 fe             	mov    %r15d,%esi
    9d94:	89 c7                	mov    %eax,%edi
    9d96:	e8 5a b6 ff ff       	callq  53f5 <safe_mul_func_int16_t_s_s>
    9d9b:	98                   	cwtl   
    9d9c:	44 89 f6             	mov    %r14d,%esi
    9d9f:	89 c7                	mov    %eax,%edi
    9da1:	e8 2d b6 ff ff       	callq  53d3 <safe_sub_func_int16_t_s_s>
    9da6:	98                   	cwtl   
    9da7:	39 85 78 f4 ff ff    	cmp    %eax,-0xb88(%rbp)
    9dad:	0f 94 c0             	sete   %al
    9db0:	0f b6 c0             	movzbl %al,%eax
    9db3:	39 85 38 f5 ff ff    	cmp    %eax,-0xac8(%rbp)
    9db9:	0f 9c c0             	setl   %al
    9dbc:	0f b6 c0             	movzbl %al,%eax
    9dbf:	89 c7                	mov    %eax,%edi
    9dc1:	e8 d0 b7 ff ff       	callq  5596 <safe_unary_minus_func_int32_t_s>
    9dc6:	98                   	cwtl   
    9dc7:	44 89 ee             	mov    %r13d,%esi
    9dca:	89 c7                	mov    %eax,%edi
    9dcc:	e8 02 b6 ff ff       	callq  53d3 <safe_sub_func_int16_t_s_s>
    9dd1:	0f b6 d0             	movzbl %al,%edx
    9dd4:	0f b7 85 8c f4 ff ff 	movzwl -0xb74(%rbp),%eax
    9ddb:	0f b6 c0             	movzbl %al,%eax
    9dde:	89 d6                	mov    %edx,%esi
    9de0:	89 c7                	mov    %eax,%edi
    9de2:	e8 91 bd ff ff       	callq  5b78 <safe_sub_func_uint8_t_u_u>
    9de7:	0f b6 c0             	movzbl %al,%eax
    9dea:	44 89 e6             	mov    %r12d,%esi
    9ded:	89 c7                	mov    %eax,%edi
    9def:	e8 99 be ff ff       	callq  5c8d <safe_rshift_func_uint8_t_u_s>
    9df4:	0f b6 c0             	movzbl %al,%eax
    9df7:	be 07 00 00 00       	mov    $0x7,%esi
    9dfc:	89 c7                	mov    %eax,%edi
    9dfe:	e8 60 b7 ff ff       	callq  5563 <safe_rshift_func_int16_t_s_u>
    9e03:	0f bf d0             	movswl %ax,%edx
    9e06:	8b 85 00 fb ff ff    	mov    -0x500(%rbp),%eax
    9e0c:	39 c2                	cmp    %eax,%edx
    9e0e:	83 bd 88 f4 ff ff 01 	cmpl   $0x1,-0xb78(%rbp)
    9e15:	0f 95 c0             	setne  %al
    9e18:	0f b6 c0             	movzbl %al,%eax
    9e1b:	39 85 44 f5 ff ff    	cmp    %eax,-0xabc(%rbp)
    9e21:	0f 95 c0             	setne  %al
    9e24:	0f b6 c0             	movzbl %al,%eax
    9e27:	39 85 88 f4 ff ff    	cmp    %eax,-0xb78(%rbp)
    9e2d:	0f 95 c0             	setne  %al
    9e30:	0f b6 d0             	movzbl %al,%edx
    9e33:	8b 85 d8 f4 ff ff    	mov    -0xb28(%rbp),%eax
    9e39:	0f b7 c0             	movzwl %ax,%eax
    9e3c:	89 d6                	mov    %edx,%esi
    9e3e:	89 c7                	mov    %eax,%edi
    9e40:	e8 da be ff ff       	callq  5d1f <safe_sub_func_uint16_t_u_u>
    9e45:	0f b7 d0             	movzwl %ax,%edx
    9e48:	0f b6 05 c1 ca 00 00 	movzbl 0xcac1(%rip),%eax        # 16910 <g_192>
    9e4f:	0f be c0             	movsbl %al,%eax
    9e52:	39 c2                	cmp    %eax,%edx
    9e54:	0f 9f c0             	setg   %al
    9e57:	0f b6 c0             	movzbl %al,%eax
    9e5a:	23 85 7c f4 ff ff    	and    -0xb84(%rbp),%eax
    9e60:	39 85 44 f5 ff ff    	cmp    %eax,-0xabc(%rbp)
    9e66:	0f 9d c0             	setge  %al
    9e69:	0f b6 c0             	movzbl %al,%eax
    9e6c:	48 39 85 60 f6 ff ff 	cmp    %rax,-0x9a0(%rbp)
    9e73:	0f 9d c0             	setge  %al
    9e76:	0f b6 c0             	movzbl %al,%eax
    9e79:	89 de                	mov    %ebx,%esi
    9e7b:	89 c7                	mov    %eax,%edi
    9e7d:	e8 9d be ff ff       	callq  5d1f <safe_sub_func_uint16_t_u_u>
    9e82:	89 c2                	mov    %eax,%edx
    9e84:	48 8b 85 e0 f5 ff ff 	mov    -0xa20(%rbp),%rax
    9e8b:	48 8b 00             	mov    (%rax),%rax
    9e8e:	0f b7 d2             	movzwl %dx,%edx
    9e91:	89 10                	mov    %edx,(%rax)
    9e93:	48 83 85 b0 f7 ff ff 	addq   $0x1,-0x850(%rbp)
    9e9a:	01 
    9e9b:	48 8d 85 60 fc ff ff 	lea    -0x3a0(%rbp),%rax
    9ea2:	48 05 2c 02 00 00    	add    $0x22c,%rax
    9ea8:	48 89 85 80 f4 ff ff 	mov    %rax,-0xb80(%rbp)
    9eaf:	8b 05 5f ca 00 00    	mov    0xca5f(%rip),%eax        # 16914 <g_202>
    9eb5:	89 c0                	mov    %eax,%eax
    9eb7:	be 07 00 00 00       	mov    $0x7,%esi
    9ebc:	48 89 c7             	mov    %rax,%rdi
    9ebf:	e8 7d b9 ff ff       	callq  5841 <safe_add_func_int64_t_s_s>
    9ec4:	89 05 4a ca 00 00    	mov    %eax,0xca4a(%rip)        # 16914 <g_202>
    9eca:	8b 05 44 ca 00 00    	mov    0xca44(%rip),%eax        # 16914 <g_202>
    9ed0:	83 f8 01             	cmp    $0x1,%eax
    9ed3:	0f 87 f7 fc ff ff    	ja     9bd0 <func_28+0x1901>
    9ed9:	48 8b 85 80 f4 ff ff 	mov    -0xb80(%rbp),%rax
    9ee0:	8b 00                	mov    (%rax),%eax
    9ee2:	89 85 5c fb ff ff    	mov    %eax,-0x4a4(%rbp)
    9ee8:	48 8b 85 a8 f7 ff ff 	mov    -0x858(%rbp),%rax
    9eef:	48 8d 95 78 f5 ff ff 	lea    -0xa88(%rbp),%rdx
    9ef6:	48 89 10             	mov    %rdx,(%rax)
    9ef9:	48 8b 85 80 f4 ff ff 	mov    -0xb80(%rbp),%rax
    9f00:	8b 00                	mov    (%rax),%eax
    9f02:	81 8d f8 f4 ff ff 77 	orl    $0xa3de5477,-0xb08(%rbp)
    9f09:	54 de a3 
    9f0c:	39 85 f8 f4 ff ff    	cmp    %eax,-0xb08(%rbp)
    9f12:	0f 9d c0             	setge  %al
    9f15:	0f b6 c0             	movzbl %al,%eax
    9f18:	89 c2                	mov    %eax,%edx
    9f1a:	0f b7 85 b2 f4 ff ff 	movzwl -0xb4e(%rbp),%eax
    9f21:	31 d0                	xor    %edx,%eax
    9f23:	66 89 85 b2 f4 ff ff 	mov    %ax,-0xb4e(%rbp)
    9f2a:	e9 78 06 00 00       	jmpq   a5a7 <func_28+0x22d8>
    9f2f:	66 c7 85 b4 f4 ff ff 	movw   $0xfffd,-0xb4c(%rbp)
    9f36:	fd ff 
    9f38:	48 8d 05 79 00 01 00 	lea    0x10079(%rip),%rax        # 19fb8 <g_496>
    9f3f:	48 89 85 78 f7 ff ff 	mov    %rax,-0x888(%rbp)
    9f46:	c6 85 a8 f4 ff ff f7 	movb   $0xf7,-0xb58(%rbp)
    9f4d:	c7 05 a5 c4 00 00 00 	movl   $0x0,0xc4a5(%rip)        # 163fc <g_160>
    9f54:	00 00 00 
    9f57:	90                   	nop
    9f58:	8b 05 9e c4 00 00    	mov    0xc49e(%rip),%eax        # 163fc <g_160>
    9f5e:	83 f8 09             	cmp    $0x9,%eax
    9f61:	77 6c                	ja     9fcf <func_28+0x1d00>
    9f63:	c7 85 ec f4 ff ff 00 	movl   $0x0,-0xb14(%rbp)
    9f6a:	00 00 00 
    9f6d:	eb 1a                	jmp    9f89 <func_28+0x1cba>
    9f6f:	8b 85 ec f4 ff ff    	mov    -0xb14(%rbp),%eax
    9f75:	48 98                	cltq   
    9f77:	c7 84 85 60 fc ff ff 	movl   $0x0,-0x3a0(%rbp,%rax,4)
    9f7e:	00 00 00 00 
    9f82:	83 85 ec f4 ff ff 01 	addl   $0x1,-0xb14(%rbp)
    9f89:	83 bd ec f4 ff ff 02 	cmpl   $0x2,-0xb14(%rbp)
    9f90:	7e dd                	jle    9f6f <func_28+0x1ca0>
    9f92:	8b 85 60 fc ff ff    	mov    -0x3a0(%rbp),%eax
    9f98:	83 e8 01             	sub    $0x1,%eax
    9f9b:	89 85 60 fc ff ff    	mov    %eax,-0x3a0(%rbp)
    9fa1:	48 8b 05 10 00 01 00 	mov    0x10010(%rip),%rax        # 19fb8 <g_496>
    9fa8:	48 8b 95 78 f6 ff ff 	mov    -0x988(%rbp),%rdx
    9faf:	48 89 10             	mov    %rdx,(%rax)
    9fb2:	8b 05 44 c4 00 00    	mov    0xc444(%rip),%eax        # 163fc <g_160>
    9fb8:	89 c0                	mov    %eax,%eax
    9fba:	48 8d 14 00          	lea    (%rax,%rax,1),%rdx
    9fbe:	48 8d 05 ab c0 00 00 	lea    0xc0ab(%rip),%rax        # 16070 <g_106>
    9fc5:	0f b7 04 02          	movzwl (%rdx,%rax,1),%eax
    9fc9:	98                   	cwtl   
    9fca:	e9 a7 0c 00 00       	jmpq   ac76 <func_28+0x29a7>
    9fcf:	66 83 bd b4 f4 ff ff 	cmpw   $0x0,-0xb4c(%rbp)
    9fd6:	00 
    9fd7:	0f 84 eb 00 00 00    	je     a0c8 <func_28+0x1df9>
    9fdd:	0f bf 9d b4 f4 ff ff 	movswl -0xb4c(%rbp),%ebx
    9fe4:	48 8b 05 e5 ff 00 00 	mov    0xffe5(%rip),%rax        # 19fd0 <g_686>
    9feb:	0f b7 00             	movzwl (%rax),%eax
    9fee:	44 0f bf e8          	movswl %ax,%r13d
    9ff2:	48 83 bd 98 f4 ff ff 	cmpq   $0x0,-0xb68(%rbp)
    9ff9:	00 
    9ffa:	48 8d 05 b7 ff 00 00 	lea    0xffb7(%rip),%rax        # 19fb8 <g_496>
    a001:	48 39 85 78 f7 ff ff 	cmp    %rax,-0x888(%rbp)
    a008:	0f 95 c0             	setne  %al
    a00b:	0f b6 d0             	movzbl %al,%edx
    a00e:	0f b7 85 8c f4 ff ff 	movzwl -0xb74(%rbp),%eax
    a015:	98                   	cwtl   
    a016:	89 d6                	mov    %edx,%esi
    a018:	89 c7                	mov    %eax,%edi
    a01a:	e8 44 b5 ff ff       	callq  5563 <safe_rshift_func_int16_t_s_u>
    a01f:	8b 05 0b c3 00 00    	mov    0xc30b(%rip),%eax        # 16330 <g_151>
    a025:	44 0f be e0          	movsbl %al,%r12d
    a029:	8b 05 dd c9 00 00    	mov    0xc9dd(%rip),%eax        # 16a0c <g_399+0xc>
    a02f:	66 89 85 ae f4 ff ff 	mov    %ax,-0xb52(%rbp)
    a036:	0f bf 85 ae f4 ff ff 	movswl -0xb52(%rbp),%eax
    a03d:	be 03 af ff ff       	mov    $0xffffaf03,%esi
    a042:	89 c7                	mov    %eax,%edi
    a044:	e8 8a b3 ff ff       	callq  53d3 <safe_sub_func_int16_t_s_s>
    a049:	0f be c0             	movsbl %al,%eax
    a04c:	44 89 e6             	mov    %r12d,%esi
    a04f:	89 c7                	mov    %eax,%edi
    a051:	e8 7e b1 ff ff       	callq  51d4 <safe_add_func_int8_t_s_s>
    a056:	89 c2                	mov    %eax,%edx
    a058:	48 8b 85 a0 f5 ff ff 	mov    -0xa60(%rbp),%rax
    a05f:	48 8b 00             	mov    (%rax),%rax
    a062:	66 0f be d2          	movsbw %dl,%dx
    a066:	66 89 10             	mov    %dx,(%rax)
    a069:	0f b7 00             	movzwl (%rax),%eax
    a06c:	0f b7 c0             	movzwl %ax,%eax
    a06f:	41 39 c5             	cmp    %eax,%r13d
    a072:	75 07                	jne    a07b <func_28+0x1dac>
    a074:	b8 03 00 00 00       	mov    $0x3,%eax
    a079:	eb 05                	jmp    a080 <func_28+0x1db1>
    a07b:	b8 02 00 00 00       	mov    $0x2,%eax
    a080:	be ff ff ff ff       	mov    $0xffffffff,%esi
    a085:	89 c7                	mov    %eax,%edi
    a087:	e8 40 b6 ff ff       	callq  56cc <safe_mod_func_int32_t_s_s>
    a08c:	48 8b 05 5d ff 00 00 	mov    0xff5d(%rip),%rax        # 19ff0 <g_741>
    a093:	48 8d 95 8c f4 ff ff 	lea    -0xb74(%rbp),%rdx
    a09a:	48 89 10             	mov    %rdx,(%rax)
    a09d:	89 de                	mov    %ebx,%esi
    a09f:	bf 00 00 00 00       	mov    $0x0,%edi
    a0a4:	e8 15 bc ff ff       	callq  5cbe <safe_rshift_func_uint8_t_u_u>
    a0a9:	0f b6 c0             	movzbl %al,%eax
    a0ac:	31 85 d8 f4 ff ff    	xor    %eax,-0xb28(%rbp)
    a0b2:	48 8b 05 af 01 01 00 	mov    0x101af(%rip),%rax        # 1a268 <g_1248>
    a0b9:	48 8b 15 a0 01 01 00 	mov    0x101a0(%rip),%rdx        # 1a260 <g_1246>
    a0c0:	48 89 10             	mov    %rdx,(%rax)
    a0c3:	e9 df 04 00 00       	jmpq   a5a7 <func_28+0x22d8>
    a0c8:	48 c7 85 80 f7 ff ff 	movq   $0x0,-0x880(%rbp)
    a0cf:	00 00 00 00 
    a0d3:	48 8d 05 d6 06 01 00 	lea    0x106d6(%rip),%rax        # 1a7b0 <g_121>
    a0da:	48 89 85 88 f7 ff ff 	mov    %rax,-0x878(%rbp)
    a0e1:	48 8d 05 58 c9 00 00 	lea    0xc958(%rip),%rax        # 16a40 <g_512>
    a0e8:	48 89 85 90 f7 ff ff 	mov    %rax,-0x870(%rbp)
    a0ef:	48 8d 05 5e 7f 00 00 	lea    0x7f5e(%rip),%rax        # 12054 <g_1229>
    a0f6:	48 89 85 b8 f5 ff ff 	mov    %rax,-0xa48(%rbp)
    a0fd:	48 8d 85 b8 f5 ff ff 	lea    -0xa48(%rbp),%rax
    a104:	48 89 85 98 f7 ff ff 	mov    %rax,-0x868(%rbp)
    a10b:	48 8d 05 46 7f 00 00 	lea    0x7f46(%rip),%rax        # 12058 <g_1231>
    a112:	48 89 85 a0 f7 ff ff 	mov    %rax,-0x860(%rbp)
    a119:	c7 85 3c f5 ff ff f7 	movl   $0xfffffff7,-0xac4(%rbp)
    a120:	ff ff ff 
    a123:	c7 85 60 fc ff ff 87 	movl   $0x9c755a87,-0x3a0(%rbp)
    a12a:	5a 75 9c 
    a12d:	c7 85 64 fc ff ff fb 	movl   $0xfffffffb,-0x39c(%rbp)
    a134:	ff ff ff 
    a137:	c7 85 68 fc ff ff 87 	movl   $0x9c755a87,-0x398(%rbp)
    a13e:	5a 75 9c 
    a141:	c7 85 6c fc ff ff 87 	movl   $0x9c755a87,-0x394(%rbp)
    a148:	5a 75 9c 
    a14b:	c7 85 70 fc ff ff fb 	movl   $0xfffffffb,-0x390(%rbp)
    a152:	ff ff ff 
    a155:	c7 85 74 fc ff ff fb 	movl   $0xfffffffb,-0x38c(%rbp)
    a15c:	ff ff ff 
    a15f:	c7 85 78 fc ff ff 87 	movl   $0x9c755a87,-0x388(%rbp)
    a166:	5a 75 9c 
    a169:	c7 85 7c fc ff ff 87 	movl   $0x9c755a87,-0x384(%rbp)
    a170:	5a 75 9c 
    a173:	c7 85 80 fc ff ff fb 	movl   $0xfffffffb,-0x380(%rbp)
    a17a:	ff ff ff 
    a17d:	c7 85 84 fc ff ff 87 	movl   $0x9c755a87,-0x37c(%rbp)
    a184:	5a 75 9c 
    a187:	c7 85 88 fc ff ff fb 	movl   $0xfffffffb,-0x378(%rbp)
    a18e:	ff ff ff 
    a191:	c7 85 8c fc ff ff fb 	movl   $0xfffffffb,-0x374(%rbp)
    a198:	ff ff ff 
    a19b:	c7 85 90 fc ff ff c3 	movl   $0xcb264bc3,-0x370(%rbp)
    a1a2:	4b 26 cb 
    a1a5:	c7 85 94 fc ff ff fb 	movl   $0xfffffffb,-0x36c(%rbp)
    a1ac:	ff ff ff 
    a1af:	c7 85 98 fc ff ff fb 	movl   $0xfffffffb,-0x368(%rbp)
    a1b6:	ff ff ff 
    a1b9:	c7 85 9c fc ff ff 87 	movl   $0x9c755a87,-0x364(%rbp)
    a1c0:	5a 75 9c 
    a1c3:	c7 85 a0 fc ff ff fb 	movl   $0xfffffffb,-0x360(%rbp)
    a1ca:	ff ff ff 
    a1cd:	c7 85 a4 fc ff ff 87 	movl   $0x9c755a87,-0x35c(%rbp)
    a1d4:	5a 75 9c 
    a1d7:	c7 85 a8 fc ff ff 87 	movl   $0x9c755a87,-0x358(%rbp)
    a1de:	5a 75 9c 
    a1e1:	c7 85 ac fc ff ff fb 	movl   $0xfffffffb,-0x354(%rbp)
    a1e8:	ff ff ff 
    a1eb:	c7 85 b0 fc ff ff fb 	movl   $0xfffffffb,-0x350(%rbp)
    a1f2:	ff ff ff 
    a1f5:	c7 85 b4 fc ff ff 87 	movl   $0x9c755a87,-0x34c(%rbp)
    a1fc:	5a 75 9c 
    a1ff:	c7 85 b8 fc ff ff 87 	movl   $0x9c755a87,-0x348(%rbp)
    a206:	5a 75 9c 
    a209:	c7 85 bc fc ff ff fb 	movl   $0xfffffffb,-0x344(%rbp)
    a210:	ff ff ff 
    a213:	c7 85 c0 fc ff ff 87 	movl   $0x9c755a87,-0x340(%rbp)
    a21a:	5a 75 9c 
    a21d:	c7 85 c4 fc ff ff fb 	movl   $0xfffffffb,-0x33c(%rbp)
    a224:	ff ff ff 
    a227:	c7 85 c8 fc ff ff fb 	movl   $0xfffffffb,-0x338(%rbp)
    a22e:	ff ff ff 
    a231:	c7 85 cc fc ff ff c3 	movl   $0xcb264bc3,-0x334(%rbp)
    a238:	4b 26 cb 
    a23b:	c7 85 d0 fc ff ff fb 	movl   $0xfffffffb,-0x330(%rbp)
    a242:	ff ff ff 
    a245:	c7 85 d4 fc ff ff fb 	movl   $0xfffffffb,-0x32c(%rbp)
    a24c:	ff ff ff 
    a24f:	c7 85 d8 fc ff ff 87 	movl   $0x9c755a87,-0x328(%rbp)
    a256:	5a 75 9c 
    a259:	c7 85 dc fc ff ff fb 	movl   $0xfffffffb,-0x324(%rbp)
    a260:	ff ff ff 
    a263:	c7 85 e0 fc ff ff 87 	movl   $0x9c755a87,-0x320(%rbp)
    a26a:	5a 75 9c 
    a26d:	c7 85 e4 fc ff ff 87 	movl   $0x9c755a87,-0x31c(%rbp)
    a274:	5a 75 9c 
    a277:	c7 85 e8 fc ff ff fb 	movl   $0xfffffffb,-0x318(%rbp)
    a27e:	ff ff ff 
    a281:	8b 95 88 f4 ff ff    	mov    -0xb78(%rbp),%edx
    a287:	48 8b 85 88 f7 ff ff 	mov    -0x878(%rbp),%rax
    a28e:	48 89 10             	mov    %rdx,(%rax)
    a291:	48 8b 85 88 f7 ff ff 	mov    -0x878(%rbp),%rax
    a298:	48 8b 10             	mov    (%rax),%rdx
    a29b:	48 83 bd 80 f6 ff ff 	cmpq   $0x0,-0x980(%rbp)
    a2a2:	00 
    a2a3:	0f 95 c0             	setne  %al
    a2a6:	0f b6 c0             	movzbl %al,%eax
    a2a9:	48 39 c2             	cmp    %rax,%rdx
    a2ac:	75 12                	jne    a2c0 <func_28+0x1ff1>
    a2ae:	8b 05 48 c1 00 00    	mov    0xc148(%rip),%eax        # 163fc <g_160>
    a2b4:	85 c0                	test   %eax,%eax
    a2b6:	74 08                	je     a2c0 <func_28+0x1ff1>
    a2b8:	41 bf 01 00 00 00    	mov    $0x1,%r15d
    a2be:	eb 06                	jmp    a2c6 <func_28+0x1ff7>
    a2c0:	41 bf 00 00 00 00    	mov    $0x0,%r15d
    a2c6:	8b 9d 88 f4 ff ff    	mov    -0xb78(%rbp),%ebx
    a2cc:	44 8b a5 88 f4 ff ff 	mov    -0xb78(%rbp),%r12d
    a2d3:	48 8b 85 80 f4 ff ff 	mov    -0xb80(%rbp),%rax
    a2da:	8b 10                	mov    (%rax),%edx
    a2dc:	0f b7 85 8c f4 ff ff 	movzwl -0xb74(%rbp),%eax
    a2e3:	98                   	cwtl   
    a2e4:	39 c2                	cmp    %eax,%edx
    a2e6:	0f 94 c0             	sete   %al
    a2e9:	44 0f b6 e8          	movzbl %al,%r13d
    a2ed:	48 8b 85 a0 f5 ff ff 	mov    -0xa60(%rbp),%rax
    a2f4:	48 8b 00             	mov    (%rax),%rax
    a2f7:	0f b7 10             	movzwl (%rax),%edx
    a2fa:	83 ea 01             	sub    $0x1,%edx
    a2fd:	66 89 10             	mov    %dx,(%rax)
    a300:	0f b7 00             	movzwl (%rax),%eax
    a303:	44 0f b7 f0          	movzwl %ax,%r14d
    a307:	8b 85 88 f4 ff ff    	mov    -0xb78(%rbp),%eax
    a30d:	48 be 07 9b d3 e9 59 	movabs $0x3eefd59e9d39b07,%rsi
    a314:	fd ee 03 
    a317:	48 89 c7             	mov    %rax,%rdi
    a31a:	e8 22 b5 ff ff       	callq  5841 <safe_add_func_int64_t_s_s>
    a31f:	49 39 c6             	cmp    %rax,%r14
    a322:	0f 95 c0             	setne  %al
    a325:	0f b6 c0             	movzbl %al,%eax
    a328:	44 89 ee             	mov    %r13d,%esi
    a32b:	89 c7                	mov    %eax,%edi
    a32d:	e8 0b ba ff ff       	callq  5d3d <safe_mul_func_uint16_t_u_u>
    a332:	0f be d0             	movsbl %al,%edx
    a335:	8b 85 88 f4 ff ff    	mov    -0xb78(%rbp),%eax
    a33b:	0f be c0             	movsbl %al,%eax
    a33e:	89 d6                	mov    %edx,%esi
    a340:	89 c7                	mov    %eax,%edi
    a342:	e8 cb ae ff ff       	callq  5212 <safe_mul_func_int8_t_s_s>
    a347:	8b 05 bf c5 00 00    	mov    0xc5bf(%rip),%eax        # 1690c <g_181>
    a34d:	83 f8 01             	cmp    $0x1,%eax
    a350:	0f 9e c0             	setle  %al
    a353:	0f b6 c8             	movzbl %al,%ecx
    a356:	48 8b 85 90 f7 ff ff 	mov    -0x870(%rbp),%rax
    a35d:	48 8b 10             	mov    (%rax),%rdx
    a360:	48 63 c1             	movslq %ecx,%rax
    a363:	48 21 c2             	and    %rax,%rdx
    a366:	48 8b 85 90 f7 ff ff 	mov    -0x870(%rbp),%rax
    a36d:	48 89 10             	mov    %rdx,(%rax)
    a370:	48 8b 85 90 f7 ff ff 	mov    -0x870(%rbp),%rax
    a377:	48 8b 00             	mov    (%rax),%rax
    a37a:	66 0d 04 41          	or     $0x4104,%ax
    a37e:	0f b7 c0             	movzwl %ax,%eax
    a381:	44 89 e6             	mov    %r12d,%esi
    a384:	89 c7                	mov    %eax,%edi
    a386:	e8 bd ba ff ff       	callq  5e48 <safe_rshift_func_uint16_t_u_s>
    a38b:	98                   	cwtl   
    a38c:	be 01 00 00 00       	mov    $0x1,%esi
    a391:	89 c7                	mov    %eax,%edi
    a393:	e8 3b b0 ff ff       	callq  53d3 <safe_sub_func_int16_t_s_s>
    a398:	0f b6 c0             	movzbl %al,%eax
    a39b:	89 de                	mov    %ebx,%esi
    a39d:	89 c7                	mov    %eax,%edi
    a39f:	e8 61 b8 ff ff       	callq  5c05 <safe_lshift_func_uint8_t_u_s>
    a3a4:	8b 85 88 f4 ff ff    	mov    -0xb78(%rbp),%eax
    a3aa:	0f b7 c0             	movzwl %ax,%eax
    a3ad:	89 c6                	mov    %eax,%esi
    a3af:	bf bf a6 00 00       	mov    $0xa6bf,%edi
    a3b4:	e8 84 b9 ff ff       	callq  5d3d <safe_mul_func_uint16_t_u_u>
    a3b9:	0f b7 c0             	movzwl %ax,%eax
    a3bc:	41 39 c7             	cmp    %eax,%r15d
    a3bf:	be 10 00 00 00       	mov    $0x10,%esi
    a3c4:	bf 00 00 00 00       	mov    $0x0,%edi
    a3c9:	e8 44 ae ff ff       	callq  5212 <safe_mul_func_int8_t_s_s>
    a3ce:	0f be c0             	movsbl %al,%eax
    a3d1:	39 85 0c f5 ff ff    	cmp    %eax,-0xaf4(%rbp)
    a3d7:	0f 96 c0             	setbe  %al
    a3da:	0f b6 d0             	movzbl %al,%edx
    a3dd:	8b 05 29 de 00 00    	mov    0xde29(%rip),%eax        # 1820c <g_1147+0x12cc>
    a3e3:	c1 e0 07             	shl    $0x7,%eax
    a3e6:	c1 f8 07             	sar    $0x7,%eax
    a3e9:	31 d0                	xor    %edx,%eax
    a3eb:	c1 e0 07             	shl    $0x7,%eax
    a3ee:	c1 f8 07             	sar    $0x7,%eax
    a3f1:	25 ff ff ff 01       	and    $0x1ffffff,%eax
    a3f6:	89 c2                	mov    %eax,%edx
    a3f8:	8b 05 0e de 00 00    	mov    0xde0e(%rip),%eax        # 1820c <g_1147+0x12cc>
    a3fe:	25 00 00 00 fe       	and    $0xfe000000,%eax
    a403:	09 d0                	or     %edx,%eax
    a405:	89 05 01 de 00 00    	mov    %eax,0xde01(%rip)        # 1820c <g_1147+0x12cc>
    a40b:	48 8b 85 60 f6 ff ff 	mov    -0x9a0(%rbp),%rax
    a412:	0f be d8             	movsbl %al,%ebx
    a415:	8b 05 e9 dd 00 00    	mov    0xdde9(%rip),%eax        # 18204 <g_1147+0x12c4>
    a41b:	c1 e0 04             	shl    $0x4,%eax
    a41e:	89 c2                	mov    %eax,%edx
    a420:	c1 fa 04             	sar    $0x4,%edx
    a423:	0f b7 85 8c f4 ff ff 	movzwl -0xb74(%rbp),%eax
    a42a:	98                   	cwtl   
    a42b:	c1 e0 04             	shl    $0x4,%eax
    a42e:	c1 f8 04             	sar    $0x4,%eax
    a431:	39 c2                	cmp    %eax,%edx
    a433:	0f 84 3e 01 00 00    	je     a577 <func_28+0x22a8>
    a439:	0f b7 85 8c f4 ff ff 	movzwl -0xb74(%rbp),%eax
    a440:	44 0f bf e0          	movswl %ax,%r12d
    a444:	44 0f be ad a6 f4 ff 	movsbl -0xb5a(%rbp),%r13d
    a44b:	ff 
    a44c:	0f b7 85 8c f4 ff ff 	movzwl -0xb74(%rbp),%eax
    a453:	44 0f bf f0          	movswl %ax,%r14d
    a457:	66 0f be 85 a8 f4 ff 	movsbw -0xb58(%rbp),%ax
    a45e:	ff 
    a45f:	44 0f b7 f8          	movzwl %ax,%r15d
    a463:	0f b7 05 ae c4 00 00 	movzwl 0xc4ae(%rip),%eax        # 16918 <g_233>
    a46a:	0f b7 d0             	movzwl %ax,%edx
    a46d:	8b 05 d9 c5 00 00    	mov    0xc5d9(%rip),%eax        # 16a4c <g_571>
    a473:	39 c2                	cmp    %eax,%edx
    a475:	0f 97 c0             	seta   %al
    a478:	0f b6 d0             	movzbl %al,%edx
    a47b:	0f b7 85 8c f4 ff ff 	movzwl -0xb74(%rbp),%eax
    a482:	98                   	cwtl   
    a483:	39 c2                	cmp    %eax,%edx
    a485:	0f 9f c0             	setg   %al
    a488:	0f b6 c0             	movzbl %al,%eax
    a48b:	89 c6                	mov    %eax,%esi
    a48d:	bf ff ff 00 00       	mov    $0xffff,%edi
    a492:	e8 a6 b8 ff ff       	callq  5d3d <safe_mul_func_uint16_t_u_u>
    a497:	0f b7 d0             	movzwl %ax,%edx
    a49a:	48 8b 85 88 f7 ff ff 	mov    -0x878(%rbp),%rax
    a4a1:	48 89 10             	mov    %rdx,(%rax)
    a4a4:	48 8b 85 88 f7 ff ff 	mov    -0x878(%rbp),%rax
    a4ab:	48 8b 00             	mov    (%rax),%rax
    a4ae:	48 be 8b 11 d4 28 b4 	movabs $0x6c0f31b428d4118b,%rsi
    a4b5:	31 0f 6c 
    a4b8:	48 89 c7             	mov    %rax,%rdi
    a4bb:	e8 8b bb ff ff       	callq  604b <safe_sub_func_uint64_t_u_u>
    a4c0:	0f b7 c0             	movzwl %ax,%eax
    a4c3:	44 89 fe             	mov    %r15d,%esi
    a4c6:	89 c7                	mov    %eax,%edi
    a4c8:	e8 8f b8 ff ff       	callq  5d5c <safe_mod_func_uint16_t_u_u>
    a4cd:	0f be c0             	movsbl %al,%eax
    a4d0:	44 89 f6             	mov    %r14d,%esi
    a4d3:	89 c7                	mov    %eax,%edi
    a4d5:	e8 5b ae ff ff       	callq  5335 <safe_rshift_func_int8_t_s_s>
    a4da:	0f be c0             	movsbl %al,%eax
    a4dd:	35 51 2a 00 00       	xor    $0x2a51,%eax
    a4e2:	44 89 ee             	mov    %r13d,%esi
    a4e5:	89 c7                	mov    %eax,%edi
    a4e7:	e8 11 ba ff ff       	callq  5efd <safe_mod_func_uint32_t_u_u>
    a4ec:	48 8b 85 98 f7 ff ff 	mov    -0x868(%rbp),%rax
    a4f3:	48 8b 95 80 f4 ff ff 	mov    -0xb80(%rbp),%rdx
    a4fa:	48 89 10             	mov    %rdx,(%rax)
    a4fd:	48 8b 85 98 f7 ff ff 	mov    -0x868(%rbp),%rax
    a504:	48 8b 00             	mov    (%rax),%rax
    a507:	48 89 85 a0 f7 ff ff 	mov    %rax,-0x860(%rbp)
    a50e:	48 8d 05 3f 7b 00 00 	lea    0x7b3f(%rip),%rax        # 12054 <g_1229>
    a515:	48 39 85 a0 f7 ff ff 	cmp    %rax,-0x860(%rbp)
    a51c:	0f b7 95 b2 f4 ff ff 	movzwl -0xb4e(%rbp),%edx
    a523:	0f bf 85 b4 f4 ff ff 	movswl -0xb4c(%rbp),%eax
    a52a:	09 c2                	or     %eax,%edx
    a52c:	0f b7 85 8c f4 ff ff 	movzwl -0xb74(%rbp),%eax
    a533:	98                   	cwtl   
    a534:	39 c2                	cmp    %eax,%edx
    a536:	0f 9d c0             	setge  %al
    a539:	0f b6 c0             	movzbl %al,%eax
    a53c:	44 89 e6             	mov    %r12d,%esi
    a53f:	89 c7                	mov    %eax,%edi
    a541:	e8 0f af ff ff       	callq  5455 <safe_div_func_int16_t_s_s>
    a546:	48 8b 05 53 fa 00 00 	mov    0xfa53(%rip),%rax        # 19fa0 <g_191>
    a54d:	0f b6 00             	movzbl (%rax),%eax
    a550:	0f be c0             	movsbl %al,%eax
    a553:	39 85 88 f4 ff ff    	cmp    %eax,-0xb78(%rbp)
    a559:	0f 95 c0             	setne  %al
    a55c:	0f b6 c0             	movzbl %al,%eax
    a55f:	be 09 00 00 00       	mov    $0x9,%esi
    a564:	89 c7                	mov    %eax,%edi
    a566:	e8 53 b8 ff ff       	callq  5dbe <safe_lshift_func_uint16_t_u_s>
    a56b:	66 85 c0             	test   %ax,%ax
    a56e:	74 07                	je     a577 <func_28+0x22a8>
    a570:	b8 01 00 00 00       	mov    $0x1,%eax
    a575:	eb 05                	jmp    a57c <func_28+0x22ad>
    a577:	b8 00 00 00 00       	mov    $0x0,%eax
    a57c:	0f be c0             	movsbl %al,%eax
    a57f:	89 de                	mov    %ebx,%esi
    a581:	89 c7                	mov    %eax,%edi
    a583:	e8 4c ac ff ff       	callq  51d4 <safe_add_func_int8_t_s_s>
    a588:	8b 95 3c f5 ff ff    	mov    -0xac4(%rbp),%edx
    a58e:	8b 85 7c fc ff ff    	mov    -0x384(%rbp),%eax
    a594:	21 d0                	and    %edx,%eax
    a596:	89 85 7c fc ff ff    	mov    %eax,-0x384(%rbp)
    a59c:	8b 85 78 fc ff ff    	mov    -0x388(%rbp),%eax
    a5a2:	e9 cf 06 00 00       	jmpq   ac76 <func_28+0x29a7>
    a5a7:	48 8b 85 98 f4 ff ff 	mov    -0xb68(%rbp),%rax
    a5ae:	8b 00                	mov    (%rax),%eax
    a5b0:	09 85 dc f4 ff ff    	or     %eax,-0xb24(%rbp)
    a5b6:	48 8b 85 98 f4 ff ff 	mov    -0xb68(%rbp),%rax
    a5bd:	48 89 05 1c fa 00 00 	mov    %rax,0xfa1c(%rip)        # 19fe0 <g_704>
    a5c4:	48 8b 05 15 fa 00 00 	mov    0xfa15(%rip),%rax        # 19fe0 <g_704>
    a5cb:	48 89 05 ee 01 01 00 	mov    %rax,0x101ee(%rip)        # 1a7c0 <g_127>
    a5d2:	48 8b 05 e7 01 01 00 	mov    0x101e7(%rip),%rax        # 1a7c0 <g_127>
    a5d9:	48 89 85 88 f6 ff ff 	mov    %rax,-0x978(%rbp)
    a5e0:	48 8b 05 d9 01 01 00 	mov    0x101d9(%rip),%rax        # 1a7c0 <g_127>
    a5e7:	8b 00                	mov    (%rax),%eax
    a5e9:	85 c0                	test   %eax,%eax
    a5eb:	0f 84 27 02 00 00    	je     a818 <func_28+0x2549>
    a5f1:	66 c7 85 aa f4 ff ff 	movw   $0x446b,-0xb56(%rbp)
    a5f8:	6b 44 
    a5fa:	48 b8 27 1b 54 73 62 	movabs $0xe871746273541b27,%rax
    a601:	74 71 e8 
    a604:	48 89 85 c8 f5 ff ff 	mov    %rax,-0xa38(%rbp)
    a60b:	c7 85 58 f5 ff ff f8 	movl   $0xfffffff8,-0xaa8(%rbp)
    a612:	ff ff ff 
    a615:	c7 05 0d bd 00 00 00 	movl   $0x0,0xbd0d(%rip)        # 1632c <g_150>
    a61c:	00 00 00 
    a61f:	e9 e1 01 00 00       	jmpq   a805 <func_28+0x2536>
    a624:	c7 85 5c f5 ff ff fc 	movl   $0x6baad2fc,-0xaa4(%rbp)
    a62b:	d2 aa 6b 
    a62e:	c6 05 73 01 01 00 00 	movb   $0x0,0x10173(%rip)        # 1a7a8 <g_96>
    a635:	90                   	nop
    a636:	0f b6 05 6b 01 01 00 	movzbl 0x1016b(%rip),%eax        # 1a7a8 <g_96>
    a63d:	84 c0                	test   %al,%al
    a63f:	75 0e                	jne    a64f <func_28+0x2380>
    a641:	48 8b 85 98 f4 ff ff 	mov    -0xb68(%rbp),%rax
    a648:	8b 00                	mov    (%rax),%eax
    a64a:	e9 27 06 00 00       	jmpq   ac76 <func_28+0x29a7>
    a64f:	0f b7 85 aa f4 ff ff 	movzwl -0xb56(%rbp),%eax
    a656:	83 c0 01             	add    $0x1,%eax
    a659:	66 89 85 aa f4 ff ff 	mov    %ax,-0xb56(%rbp)
    a660:	c7 05 36 bc 00 00 00 	movl   $0x0,0xbc36(%rip)        # 162a0 <g_144>
    a667:	00 00 00 
    a66a:	eb 3a                	jmp    a6a6 <func_28+0x23d7>
    a66c:	48 8b 85 88 f6 ff ff 	mov    -0x978(%rbp),%rax
    a673:	8b 00                	mov    (%rax),%eax
    a675:	85 c0                	test   %eax,%eax
    a677:	75 39                	jne    a6b2 <func_28+0x23e3>
    a679:	48 8b 05 40 01 01 00 	mov    0x10140(%rip),%rax        # 1a7c0 <g_127>
    a680:	8b 00                	mov    (%rax),%eax
    a682:	85 c0                	test   %eax,%eax
    a684:	75 2f                	jne    a6b5 <func_28+0x23e6>
    a686:	48 8b 85 e0 f5 ff ff 	mov    -0xa20(%rbp),%rax
    a68d:	48 8d 15 b8 b9 00 00 	lea    0xb9b8(%rip),%rdx        # 1604c <g_5>
    a694:	48 89 10             	mov    %rdx,(%rax)
    a697:	8b 05 03 bc 00 00    	mov    0xbc03(%rip),%eax        # 162a0 <g_144>
    a69d:	83 c0 01             	add    $0x1,%eax
    a6a0:	89 05 fa bb 00 00    	mov    %eax,0xbbfa(%rip)        # 162a0 <g_144>
    a6a6:	8b 05 f4 bb 00 00    	mov    0xbbf4(%rip),%eax        # 162a0 <g_144>
    a6ac:	85 c0                	test   %eax,%eax
    a6ae:	74 bc                	je     a66c <func_28+0x239d>
    a6b0:	eb 04                	jmp    a6b6 <func_28+0x23e7>
    a6b2:	90                   	nop
    a6b3:	eb 01                	jmp    a6b6 <func_28+0x23e7>
    a6b5:	90                   	nop
    a6b6:	c7 05 60 be 00 00 00 	movl   $0x0,0xbe60(%rip)        # 16520 <g_169>
    a6bd:	00 00 00 
    a6c0:	eb 55                	jmp    a717 <func_28+0x2448>
    a6c2:	48 8b 85 88 f6 ff ff 	mov    -0x978(%rbp),%rax
    a6c9:	8b 00                	mov    (%rax),%eax
    a6cb:	85 c0                	test   %eax,%eax
    a6cd:	0f 95 c0             	setne  %al
    a6d0:	0f b6 d0             	movzbl %al,%edx
    a6d3:	0f b7 85 8c f4 ff ff 	movzwl -0xb74(%rbp),%eax
    a6da:	98                   	cwtl   
    a6db:	39 85 88 f4 ff ff    	cmp    %eax,-0xb78(%rbp)
    a6e1:	0f 97 c0             	seta   %al
    a6e4:	0f b6 c0             	movzbl %al,%eax
    a6e7:	89 d6                	mov    %edx,%esi
    a6e9:	89 c7                	mov    %eax,%edi
    a6eb:	e8 58 b7 ff ff       	callq  5e48 <safe_rshift_func_uint16_t_u_s>
    a6f0:	66 3d a0 16          	cmp    $0x16a0,%ax
    a6f4:	0f 97 c0             	seta   %al
    a6f7:	0f b6 c0             	movzbl %al,%eax
    a6fa:	31 85 c8 f4 ff ff    	xor    %eax,-0xb38(%rbp)
    a700:	48 83 85 c8 f5 ff ff 	addq   $0x1,-0xa38(%rbp)
    a707:	01 
    a708:	8b 05 12 be 00 00    	mov    0xbe12(%rip),%eax        # 16520 <g_169>
    a70e:	83 c0 01             	add    $0x1,%eax
    a711:	89 05 09 be 00 00    	mov    %eax,0xbe09(%rip)        # 16520 <g_169>
    a717:	8b 05 03 be 00 00    	mov    0xbe03(%rip),%eax        # 16520 <g_169>
    a71d:	83 f8 05             	cmp    $0x5,%eax
    a720:	76 a0                	jbe    a6c2 <func_28+0x23f3>
    a722:	c7 05 f0 c2 00 00 05 	movl   $0x5,0xc2f0(%rip)        # 16a1c <g_436>
    a729:	00 00 00 
    a72c:	e9 b4 00 00 00       	jmpq   a7e5 <func_28+0x2516>
    a731:	0f b7 05 e0 c1 00 00 	movzwl 0xc1e0(%rip),%eax        # 16918 <g_233>
    a738:	0f b7 d8             	movzwl %ax,%ebx
    a73b:	8b 85 08 f8 ff ff    	mov    -0x7f8(%rbp),%eax
    a741:	83 bd 58 f5 ff ff 00 	cmpl   $0x0,-0xaa8(%rbp)
    a748:	74 10                	je     a75a <func_28+0x248b>
    a74a:	83 bd 5c f5 ff ff 00 	cmpl   $0x0,-0xaa4(%rbp)
    a751:	74 07                	je     a75a <func_28+0x248b>
    a753:	ba 01 00 00 00       	mov    $0x1,%edx
    a758:	eb 05                	jmp    a75f <func_28+0x2490>
    a75a:	ba 00 00 00 00       	mov    $0x0,%edx
    a75f:	39 c2                	cmp    %eax,%edx
    a761:	0f 94 c0             	sete   %al
    a764:	0f b6 c0             	movzbl %al,%eax
    a767:	be 01 00 00 00       	mov    $0x1,%esi
    a76c:	89 c7                	mov    %eax,%edi
    a76e:	e8 d5 b6 ff ff       	callq  5e48 <safe_rshift_func_uint16_t_u_s>
    a773:	83 c8 78             	or     $0x78,%eax
    a776:	f7 d0                	not    %eax
    a778:	0f b6 c0             	movzbl %al,%eax
    a77b:	be 7f 00 00 00       	mov    $0x7f,%esi
    a780:	89 c7                	mov    %eax,%edi
    a782:	e8 d3 b3 ff ff       	callq  5b5a <safe_add_func_uint8_t_u_u>
    a787:	84 c0                	test   %al,%al
    a789:	74 0b                	je     a796 <func_28+0x24c7>
    a78b:	48 8b 05 2e 00 01 00 	mov    0x1002e(%rip),%rax        # 1a7c0 <g_127>
    a792:	8b 00                	mov    (%rax),%eax
    a794:	85 c0                	test   %eax,%eax
    a796:	8b 05 90 bd 00 00    	mov    0xbd90(%rip),%eax        # 1652c <g_172>
    a79c:	89 c0                	mov    %eax,%eax
    a79e:	48 89 de             	mov    %rbx,%rsi
    a7a1:	48 89 c7             	mov    %rax,%rdi
    a7a4:	e8 06 b9 ff ff       	callq  60af <safe_div_func_uint64_t_u_u>
    a7a9:	c1 e0 04             	shl    $0x4,%eax
    a7ac:	c1 f8 04             	sar    $0x4,%eax
    a7af:	25 ff ff ff 0f       	and    $0xfffffff,%eax
    a7b4:	89 c2                	mov    %eax,%edx
    a7b6:	8b 05 d4 e1 00 00    	mov    0xe1d4(%rip),%eax        # 18990 <g_1226+0x10>
    a7bc:	25 00 00 00 f0       	and    $0xf0000000,%eax
    a7c1:	09 d0                	or     %edx,%eax
    a7c3:	89 05 c7 e1 00 00    	mov    %eax,0xe1c7(%rip)        # 18990 <g_1226+0x10>
    a7c9:	48 8b 05 10 f8 00 00 	mov    0xf810(%rip),%rax        # 19fe0 <g_704>
    a7d0:	8b 00                	mov    (%rax),%eax
    a7d2:	85 c0                	test   %eax,%eax
    a7d4:	75 1f                	jne    a7f5 <func_28+0x2526>
    a7d6:	8b 05 40 c2 00 00    	mov    0xc240(%rip),%eax        # 16a1c <g_436>
    a7dc:	83 e8 01             	sub    $0x1,%eax
    a7df:	89 05 37 c2 00 00    	mov    %eax,0xc237(%rip)        # 16a1c <g_436>
    a7e5:	8b 05 31 c2 00 00    	mov    0xc231(%rip),%eax        # 16a1c <g_436>
    a7eb:	85 c0                	test   %eax,%eax
    a7ed:	0f 89 3e ff ff ff    	jns    a731 <func_28+0x2462>
    a7f3:	eb 01                	jmp    a7f6 <func_28+0x2527>
    a7f5:	90                   	nop
    a7f6:	8b 05 30 bb 00 00    	mov    0xbb30(%rip),%eax        # 1632c <g_150>
    a7fc:	83 c0 01             	add    $0x1,%eax
    a7ff:	89 05 27 bb 00 00    	mov    %eax,0xbb27(%rip)        # 1632c <g_150>
    a805:	8b 05 21 bb 00 00    	mov    0xbb21(%rip),%eax        # 1632c <g_150>
    a80b:	85 c0                	test   %eax,%eax
    a80d:	0f 84 11 fe ff ff    	je     a624 <func_28+0x2355>
    a813:	e9 c7 03 00 00       	jmpq   abdf <func_28+0x2910>
    a818:	48 8b 05 a1 ff 00 00 	mov    0xffa1(%rip),%rax        # 1a7c0 <g_127>
    a81f:	8b 00                	mov    (%rax),%eax
    a821:	e9 50 04 00 00       	jmpq   ac76 <func_28+0x29a7>
    a826:	48 8d 05 8b ff 00 00 	lea    0xff8b(%rip),%rax        # 1a7b8 <g_121+0x8>
    a82d:	48 89 85 40 f6 ff ff 	mov    %rax,-0x9c0(%rbp)
    a834:	c7 85 90 f9 ff ff 55 	movl   $0x9bc9a755,-0x670(%rbp)
    a83b:	a7 c9 9b 
    a83e:	c7 85 94 f9 ff ff 55 	movl   $0x9bc9a755,-0x66c(%rbp)
    a845:	a7 c9 9b 
    a848:	c7 85 98 f9 ff ff 55 	movl   $0x9bc9a755,-0x668(%rbp)
    a84f:	a7 c9 9b 
    a852:	c7 85 9c f9 ff ff 04 	movl   $0x83a9c304,-0x664(%rbp)
    a859:	c3 a9 83 
    a85c:	c7 85 a0 f9 ff ff 2a 	movl   $0xaef3cc2a,-0x660(%rbp)
    a863:	cc f3 ae 
    a866:	c7 85 a4 f9 ff ff 04 	movl   $0x83a9c304,-0x65c(%rbp)
    a86d:	c3 a9 83 
    a870:	c7 85 a8 f9 ff ff 55 	movl   $0x9bc9a755,-0x658(%rbp)
    a877:	a7 c9 9b 
    a87a:	c7 85 ac f9 ff ff 55 	movl   $0x9bc9a755,-0x654(%rbp)
    a881:	a7 c9 9b 
    a884:	c7 85 b0 f9 ff ff 55 	movl   $0x9bc9a755,-0x650(%rbp)
    a88b:	a7 c9 9b 
    a88e:	48 8d 05 ef b7 00 00 	lea    0xb7ef(%rip),%rax        # 16084 <g_108>
    a895:	48 89 85 48 f6 ff ff 	mov    %rax,-0x9b8(%rbp)
    a89c:	48 c7 85 50 f6 ff ff 	movq   $0x0,-0x9b0(%rbp)
    a8a3:	00 00 00 00 
    a8a7:	c7 85 04 f5 ff ff ff 	movl   $0xffffffff,-0xafc(%rbp)
    a8ae:	ff ff ff 
    a8b1:	c7 85 f0 f4 ff ff 00 	movl   $0x0,-0xb10(%rbp)
    a8b8:	00 00 00 
    a8bb:	eb 1e                	jmp    a8db <func_28+0x260c>
    a8bd:	8b 85 f0 f4 ff ff    	mov    -0xb10(%rbp),%eax
    a8c3:	48 98                	cltq   
    a8c5:	48 8d 15 80 c1 00 00 	lea    0xc180(%rip),%rdx        # 16a4c <g_571>
    a8cc:	48 89 94 c5 60 fc ff 	mov    %rdx,-0x3a0(%rbp,%rax,8)
    a8d3:	ff 
    a8d4:	83 85 f0 f4 ff ff 01 	addl   $0x1,-0xb10(%rbp)
    a8db:	83 bd f0 f4 ff ff 04 	cmpl   $0x4,-0xb10(%rbp)
    a8e2:	7e d9                	jle    a8bd <func_28+0x25ee>
    a8e4:	48 8b 85 40 f6 ff ff 	mov    -0x9c0(%rbp),%rax
    a8eb:	48 8b 10             	mov    (%rax),%rdx
    a8ee:	48 8b 85 e0 f5 ff ff 	mov    -0xa20(%rbp),%rax
    a8f5:	48 8b 00             	mov    (%rax),%rax
    a8f8:	8b 00                	mov    (%rax),%eax
    a8fa:	48 98                	cltq   
    a8fc:	48 31 c2             	xor    %rax,%rdx
    a8ff:	48 8b 85 40 f6 ff ff 	mov    -0x9c0(%rbp),%rax
    a906:	48 89 10             	mov    %rdx,(%rax)
    a909:	0f b7 05 8c e0 00 00 	movzwl 0xe08c(%rip),%eax        # 1899c <g_1269>
    a910:	0f bf d8             	movswl %ax,%ebx
    a913:	48 8d 05 ce fe 00 00 	lea    0xfece(%rip),%rax        # 1a7e8 <g_497>
    a91a:	48 39 85 30 f6 ff ff 	cmp    %rax,-0x9d0(%rbp)
    a921:	0f 95 c0             	setne  %al
    a924:	0f b6 f0             	movzbl %al,%esi
    a927:	48 8b 85 20 f6 ff ff 	mov    -0x9e0(%rbp),%rax
    a92e:	0f b6 00             	movzbl (%rax),%eax
    a931:	8d 48 ff             	lea    -0x1(%rax),%ecx
    a934:	48 8b 95 20 f6 ff ff 	mov    -0x9e0(%rbp),%rdx
    a93b:	88 0a                	mov    %cl,(%rdx)
    a93d:	0f b6 d0             	movzbl %al,%edx
    a940:	8b 05 be ba 00 00    	mov    0xbabe(%rip),%eax        # 16404 <g_162>
    a946:	8b 8d a4 f9 ff ff    	mov    -0x65c(%rbp),%ecx
    a94c:	39 c8                	cmp    %ecx,%eax
    a94e:	0f 94 c0             	sete   %al
    a951:	0f b6 c0             	movzbl %al,%eax
    a954:	39 c2                	cmp    %eax,%edx
    a956:	0f 9d c0             	setge  %al
    a959:	0f b6 c0             	movzbl %al,%eax
    a95c:	39 c6                	cmp    %eax,%esi
    a95e:	0f 9f c0             	setg   %al
    a961:	44 0f b6 e0          	movzbl %al,%r12d
    a965:	0f b7 85 8c f4 ff ff 	movzwl -0xb74(%rbp),%eax
    a96c:	0f bf d0             	movswl %ax,%edx
    a96f:	48 8d 05 42 f6 00 00 	lea    0xf642(%rip),%rax        # 19fb8 <g_496>
    a976:	48 39 85 18 f6 ff ff 	cmp    %rax,-0x9e8(%rbp)
    a97d:	0f 95 c1             	setne  %cl
    a980:	48 8b 05 19 f6 00 00 	mov    0xf619(%rip),%rax        # 19fa0 <g_191>
    a987:	88 08                	mov    %cl,(%rax)
    a989:	0f b6 00             	movzbl (%rax),%eax
    a98c:	0f be c8             	movsbl %al,%ecx
    a98f:	0f b6 05 12 fe 00 00 	movzbl 0xfe12(%rip),%eax        # 1a7a8 <g_96>
    a996:	0f b6 c0             	movzbl %al,%eax
    a999:	39 c1                	cmp    %eax,%ecx
    a99b:	7c 14                	jl     a9b1 <func_28+0x26e2>
    a99d:	48 8b 85 80 f4 ff ff 	mov    -0xb80(%rbp),%rax
    a9a4:	8b 00                	mov    (%rax),%eax
    a9a6:	85 c0                	test   %eax,%eax
    a9a8:	74 07                	je     a9b1 <func_28+0x26e2>
    a9aa:	b8 01 00 00 00       	mov    $0x1,%eax
    a9af:	eb 05                	jmp    a9b6 <func_28+0x26e7>
    a9b1:	b8 00 00 00 00       	mov    $0x0,%eax
    a9b6:	39 d0                	cmp    %edx,%eax
    a9b8:	75 13                	jne    a9cd <func_28+0x26fe>
    a9ba:	0f b7 05 81 bf 00 00 	movzwl 0xbf81(%rip),%eax        # 16942 <g_326+0x22>
    a9c1:	66 85 c0             	test   %ax,%ax
    a9c4:	74 07                	je     a9cd <func_28+0x26fe>
    a9c6:	ba 01 00 00 00       	mov    $0x1,%edx
    a9cb:	eb 05                	jmp    a9d2 <func_28+0x2703>
    a9cd:	ba 00 00 00 00       	mov    $0x0,%edx
    a9d2:	0f b7 85 8c f4 ff ff 	movzwl -0xb74(%rbp),%eax
    a9d9:	98                   	cwtl   
    a9da:	21 d0                	and    %edx,%eax
    a9dc:	48 98                	cltq   
    a9de:	48 89 c7             	mov    %rax,%rdi
    a9e1:	e8 33 b6 ff ff       	callq  6019 <safe_unary_minus_func_uint64_t_u>
    a9e6:	48 83 f8 fb          	cmp    $0xfffffffffffffffb,%rax
    a9ea:	0f 96 c0             	setbe  %al
    a9ed:	0f b6 d0             	movzbl %al,%edx
    a9f0:	48 8b 85 48 f6 ff ff 	mov    -0x9b8(%rbp),%rax
    a9f7:	89 10                	mov    %edx,(%rax)
    a9f9:	48 8b 85 48 f6 ff ff 	mov    -0x9b8(%rbp),%rax
    aa00:	8b 00                	mov    (%rax),%eax
    aa02:	25 ff ff ff 00       	and    $0xffffff,%eax
    aa07:	25 ff ff ff 00       	and    $0xffffff,%eax
    aa0c:	89 c2                	mov    %eax,%edx
    aa0e:	8b 05 f4 d7 00 00    	mov    0xd7f4(%rip),%eax        # 18208 <g_1147+0x12c8>
    aa14:	25 00 00 00 ff       	and    $0xff000000,%eax
    aa19:	09 d0                	or     %edx,%eax
    aa1b:	89 05 e7 d7 00 00    	mov    %eax,0xd7e7(%rip)        # 18208 <g_1147+0x12c8>
    aa21:	8b 05 e1 d7 00 00    	mov    0xd7e1(%rip),%eax        # 18208 <g_1147+0x12c8>
    aa27:	25 ff ff ff 00       	and    $0xffffff,%eax
    aa2c:	89 85 04 f5 ff ff    	mov    %eax,-0xafc(%rbp)
    aa32:	8b 15 f0 ba 00 00    	mov    0xbaf0(%rip),%edx        # 16528 <g_171>
    aa38:	48 8b 85 98 f4 ff ff 	mov    -0xb68(%rbp),%rax
    aa3f:	8b 00                	mov    (%rax),%eax
    aa41:	39 c2                	cmp    %eax,%edx
    aa43:	74 11                	je     aa56 <func_28+0x2787>
    aa45:	8b 05 45 c4 00 00    	mov    0xc445(%rip),%eax        # 16e90 <g_870>
    aa4b:	85 c0                	test   %eax,%eax
    aa4d:	74 07                	je     aa56 <func_28+0x2787>
    aa4f:	b8 01 00 00 00       	mov    $0x1,%eax
    aa54:	eb 05                	jmp    aa5b <func_28+0x278c>
    aa56:	b8 00 00 00 00       	mov    $0x0,%eax
    aa5b:	89 c2                	mov    %eax,%edx
    aa5d:	8b 05 81 c1 00 00    	mov    0xc181(%rip),%eax        # 16be4 <g_710+0x164>
    aa63:	39 c2                	cmp    %eax,%edx
    aa65:	0f 92 c0             	setb   %al
    aa68:	0f b6 c0             	movzbl %al,%eax
    aa6b:	41 39 c4             	cmp    %eax,%r12d
    aa6e:	0f 9f c0             	setg   %al
    aa71:	0f b6 c0             	movzbl %al,%eax
    aa74:	39 c3                	cmp    %eax,%ebx
    aa76:	0f 94 c0             	sete   %al
    aa79:	0f b6 d0             	movzbl %al,%edx
    aa7c:	48 8b 05 5d f5 00 00 	mov    0xf55d(%rip),%rax        # 19fe0 <g_704>
    aa83:	8b 00                	mov    (%rax),%eax
    aa85:	39 c2                	cmp    %eax,%edx
    aa87:	7d 0a                	jge    aa93 <func_28+0x27c4>
    aa89:	0f b7 85 8c f4 ff ff 	movzwl -0xb74(%rbp),%eax
    aa90:	66 85 c0             	test   %ax,%ax
    aa93:	48 8b 05 ce f8 00 00 	mov    0xf8ce(%rip),%rax        # 1a368 <g_1281>
    aa9a:	48 8d 95 70 f8 ff ff 	lea    -0x790(%rbp),%rdx
    aaa1:	48 81 c2 98 00 00 00 	add    $0x98,%rdx
    aaa8:	48 89 10             	mov    %rdx,(%rax)
    aaab:	48 8b 85 20 f6 ff ff 	mov    -0x9e0(%rbp),%rax
    aab2:	0f b6 00             	movzbl (%rax),%eax
    aab5:	89 c2                	mov    %eax,%edx
    aab7:	48 83 bd d0 f5 ff ff 	cmpq   $0x0,-0xa30(%rbp)
    aabe:	00 
    aabf:	0f 94 c0             	sete   %al
    aac2:	09 d0                	or     %edx,%eax
    aac4:	89 c2                	mov    %eax,%edx
    aac6:	48 8b 85 20 f6 ff ff 	mov    -0x9e0(%rbp),%rax
    aacd:	88 10                	mov    %dl,(%rax)
    aacf:	48 8b 85 20 f6 ff ff 	mov    -0x9e0(%rbp),%rax
    aad6:	0f b6 00             	movzbl (%rax),%eax
    aad9:	0f b6 d0             	movzbl %al,%edx
    aadc:	48 8b 05 dd c3 00 00 	mov    0xc3dd(%rip),%rax        # 16ec0 <g_970>
    aae3:	48 39 c2             	cmp    %rax,%rdx
    aae6:	0f 84 e9 00 00 00    	je     abd5 <func_28+0x2906>
    aaec:	8b 9d 88 f4 ff ff    	mov    -0xb78(%rbp),%ebx
    aaf2:	8b 95 88 f4 ff ff    	mov    -0xb78(%rbp),%edx
    aaf8:	48 8b 85 90 f5 ff ff 	mov    -0xa70(%rbp),%rax
    aaff:	48 8b 00             	mov    (%rax),%rax
    ab02:	8b 8d 88 f4 ff ff    	mov    -0xb78(%rbp),%ecx
    ab08:	88 08                	mov    %cl,(%rax)
    ab0a:	0f b6 00             	movzbl (%rax),%eax
    ab0d:	0f be c0             	movsbl %al,%eax
    ab10:	89 85 04 f5 ff ff    	mov    %eax,-0xafc(%rbp)
    ab16:	83 bd 04 f5 ff ff 00 	cmpl   $0x0,-0xafc(%rbp)
    ab1d:	75 10                	jne    ab2f <func_28+0x2860>
    ab1f:	0f b7 05 d6 d6 00 00 	movzwl 0xd6d6(%rip),%eax        # 181fc <g_1147+0x12bc>
    ab26:	66 25 ff 07          	and    $0x7ff,%ax
    ab2a:	66 85 c0             	test   %ax,%ax
    ab2d:	74 07                	je     ab36 <func_28+0x2867>
    ab2f:	b8 01 00 00 00       	mov    $0x1,%eax
    ab34:	eb 05                	jmp    ab3b <func_28+0x286c>
    ab36:	b8 00 00 00 00       	mov    $0x0,%eax
    ab3b:	48 98                	cltq   
    ab3d:	48 89 d6             	mov    %rdx,%rsi
    ab40:	48 89 c7             	mov    %rax,%rdi
    ab43:	e8 f9 ac ff ff       	callq  5841 <safe_add_func_int64_t_s_s>
    ab48:	98                   	cwtl   
    ab49:	89 de                	mov    %ebx,%esi
    ab4b:	89 c7                	mov    %eax,%edi
    ab4d:	e8 d8 a9 ff ff       	callq  552a <safe_rshift_func_int16_t_s_s>
    ab52:	8b 05 e4 be 00 00    	mov    0xbee4(%rip),%eax        # 16a3c <g_503>
    ab58:	83 bd 00 f5 ff ff 01 	cmpl   $0x1,-0xb00(%rbp)
    ab5f:	0f 9e c0             	setle  %al
    ab62:	0f b6 d0             	movzbl %al,%edx
    ab65:	8b 05 21 b5 00 00    	mov    0xb521(%rip),%eax        # 1608c <g_129>
    ab6b:	31 c2                	xor    %eax,%edx
    ab6d:	8b 85 a4 f9 ff ff    	mov    -0x65c(%rbp),%eax
    ab73:	83 f8 03             	cmp    $0x3,%eax
    ab76:	0f b7 05 2d c3 00 00 	movzwl 0xc32d(%rip),%eax        # 16eaa <g_874+0xa>
    ab7d:	09 d0                	or     %edx,%eax
    ab7f:	66 89 05 24 c3 00 00 	mov    %ax,0xc324(%rip)        # 16eaa <g_874+0xa>
    ab86:	be 62 30 00 00       	mov    $0x3062,%esi
    ab8b:	bf ff ff 00 00       	mov    $0xffff,%edi
    ab90:	e8 c7 b1 ff ff       	callq  5d5c <safe_mod_func_uint16_t_u_u>
    ab95:	0f b7 85 8c f4 ff ff 	movzwl -0xb74(%rbp),%eax
    ab9c:	66 85 c0             	test   %ax,%ax
    ab9f:	0f 9e c0             	setle  %al
    aba2:	0f b6 d0             	movzbl %al,%edx
    aba5:	8b 05 f1 b6 00 00    	mov    0xb6f1(%rip),%eax        # 1629c <g_143+0x1c>
    abab:	21 c2                	and    %eax,%edx
    abad:	48 8b 85 48 f6 ff ff 	mov    -0x9b8(%rbp),%rax
    abb4:	89 10                	mov    %edx,(%rax)
    abb6:	48 8b 85 48 f6 ff ff 	mov    -0x9b8(%rbp),%rax
    abbd:	8b 00                	mov    (%rax),%eax
    abbf:	89 c2                	mov    %eax,%edx
    abc1:	48 8b 85 98 f4 ff ff 	mov    -0xb68(%rbp),%rax
    abc8:	8b 00                	mov    (%rax),%eax
    abca:	89 d6                	mov    %edx,%esi
    abcc:	89 c7                	mov    %eax,%edi
    abce:	e8 32 aa ff ff       	callq  5605 <safe_sub_func_int32_t_s_s>
    abd3:	85 c0                	test   %eax,%eax
    abd5:	c7 85 f8 f4 ff ff 00 	movl   $0x0,-0xb08(%rbp)
    abdc:	00 00 00 
    abdf:	48 c7 05 56 be 00 00 	movq   $0xfffffffffffffffd,0xbe56(%rip)        # 16a40 <g_512>
    abe6:	fd ff ff ff 
    abea:	90                   	nop
    abeb:	48 8b 05 4e be 00 00 	mov    0xbe4e(%rip),%rax        # 16a40 <g_512>
    abf2:	48 83 f8 20          	cmp    $0x20,%rax
    abf6:	74 4e                	je     ac46 <func_28+0x2977>
    abf8:	c7 85 60 fc ff ff fd 	movl   $0xfffffffd,-0x3a0(%rbp)
    abff:	ff ff ff 
    ac02:	c7 85 64 fc ff ff fd 	movl   $0xfffffffd,-0x39c(%rbp)
    ac09:	ff ff ff 
    ac0c:	c7 85 68 fc ff ff fd 	movl   $0xfffffffd,-0x398(%rbp)
    ac13:	ff ff ff 
    ac16:	c7 85 6c fc ff ff fd 	movl   $0xfffffffd,-0x394(%rbp)
    ac1d:	ff ff ff 
    ac20:	c7 85 70 fc ff ff fd 	movl   $0xfffffffd,-0x390(%rbp)
    ac27:	ff ff ff 
    ac2a:	8b 85 6c fc ff ff    	mov    -0x394(%rbp),%eax
    ac30:	25 81 e3 7a 58       	and    $0x587ae381,%eax
    ac35:	89 85 6c fc ff ff    	mov    %eax,-0x394(%rbp)
    ac3b:	48 8b 05 9e f3 00 00 	mov    0xf39e(%rip),%rax        # 19fe0 <g_704>
    ac42:	8b 00                	mov    (%rax),%eax
    ac44:	eb 30                	jmp    ac76 <func_28+0x29a7>
    ac46:	48 8d 05 8b f3 00 00 	lea    0xf38b(%rip),%rax        # 19fd8 <g_685>
    ac4d:	48 39 85 38 f6 ff ff 	cmp    %rax,-0x9c8(%rbp)
    ac54:	0f 95 c0             	setne  %al
    ac57:	0f b6 d0             	movzbl %al,%edx
    ac5a:	0f b7 85 8c f4 ff ff 	movzwl -0xb74(%rbp),%eax
    ac61:	98                   	cwtl   
    ac62:	21 d0                	and    %edx,%eax
    ac64:	89 85 f4 f4 ff ff    	mov    %eax,-0xb0c(%rbp)
    ac6a:	48 8b 85 e0 f5 ff ff 	mov    -0xa20(%rbp),%rax
    ac71:	48 8b 00             	mov    (%rax),%rax
    ac74:	8b 00                	mov    (%rax),%eax
    ac76:	48 8b 5d c8          	mov    -0x38(%rbp),%rbx
    ac7a:	64 48 33 1c 25 28 00 	xor    %fs:0x28,%rbx
    ac81:	00 00 
    ac83:	74 05                	je     ac8a <func_28+0x29bb>
    ac85:	e8 e6 a3 ff ff       	callq  5070 <__stack_chk_fail@plt>
    ac8a:	48 81 c4 78 0b 00 00 	add    $0xb78,%rsp
    ac91:	5b                   	pop    %rbx
    ac92:	41 5c                	pop    %r12
    ac94:	41 5d                	pop    %r13
    ac96:	41 5e                	pop    %r14
    ac98:	41 5f                	pop    %r15
    ac9a:	5d                   	pop    %rbp
    ac9b:	c3                   	retq   

000000000000ac9c <func_34>:
    ac9c:	f3 0f 1e fa          	endbr64 
    aca0:	55                   	push   %rbp
    aca1:	48 89 e5             	mov    %rsp,%rbp
    aca4:	48 83 c4 80          	add    $0xffffffffffffff80,%rsp
    aca8:	48 89 7d 88          	mov    %rdi,-0x78(%rbp)
    acac:	48 89 75 80          	mov    %rsi,-0x80(%rbp)
    acb0:	64 48 8b 04 25 28 00 	mov    %fs:0x28,%rax
    acb7:	00 00 
    acb9:	48 89 45 f8          	mov    %rax,-0x8(%rbp)
    acbd:	31 c0                	xor    %eax,%eax
    acbf:	48 8d 05 ca b3 00 00 	lea    0xb3ca(%rip),%rax        # 16090 <g_132>
    acc6:	48 89 45 98          	mov    %rax,-0x68(%rbp)
    acca:	48 8d 45 98          	lea    -0x68(%rbp),%rax
    acce:	48 89 45 a0          	mov    %rax,-0x60(%rbp)
    acd2:	48 8d 45 a0          	lea    -0x60(%rbp),%rax
    acd6:	48 89 45 a8          	mov    %rax,-0x58(%rbp)
    acda:	48 8d 45 a8          	lea    -0x58(%rbp),%rax
    acde:	48 89 45 b0          	mov    %rax,-0x50(%rbp)
    ace2:	48 8d 45 a8          	lea    -0x58(%rbp),%rax
    ace6:	48 89 45 b8          	mov    %rax,-0x48(%rbp)
    acea:	48 8d 45 a8          	lea    -0x58(%rbp),%rax
    acee:	48 89 45 c0          	mov    %rax,-0x40(%rbp)
    acf2:	48 8d 45 a8          	lea    -0x58(%rbp),%rax
    acf6:	48 89 45 c8          	mov    %rax,-0x38(%rbp)
    acfa:	48 8d 45 a8          	lea    -0x58(%rbp),%rax
    acfe:	48 89 45 d0          	mov    %rax,-0x30(%rbp)
    ad02:	48 8d 45 a8          	lea    -0x58(%rbp),%rax
    ad06:	48 89 45 d8          	mov    %rax,-0x28(%rbp)
    ad0a:	48 8d 45 a8          	lea    -0x58(%rbp),%rax
    ad0e:	48 89 45 e0          	mov    %rax,-0x20(%rbp)
    ad12:	48 8d 45 a8          	lea    -0x58(%rbp),%rax
    ad16:	48 89 45 e8          	mov    %rax,-0x18(%rbp)
    ad1a:	48 c7 05 db f2 00 00 	movq   $0x0,0xf2db(%rip)        # 1a000 <g_777>
    ad21:	00 00 00 00 
    ad25:	48 8b 45 98          	mov    -0x68(%rbp),%rax
    ad29:	48 8b 55 f8          	mov    -0x8(%rbp),%rdx
    ad2d:	64 48 33 14 25 28 00 	xor    %fs:0x28,%rdx
    ad34:	00 00 
    ad36:	74 05                	je     ad3d <func_34+0xa1>
    ad38:	e8 33 a3 ff ff       	callq  5070 <__stack_chk_fail@plt>
    ad3d:	c9                   	leaveq 
    ad3e:	c3                   	retq   

000000000000ad3f <func_37>:
    ad3f:	f3 0f 1e fa          	endbr64 
    ad43:	55                   	push   %rbp
    ad44:	48 89 e5             	mov    %rsp,%rbp
    ad47:	48 81 ec a0 00 00 00 	sub    $0xa0,%rsp
    ad4e:	48 89 bd 68 ff ff ff 	mov    %rdi,-0x98(%rbp)
    ad55:	64 48 8b 04 25 28 00 	mov    %fs:0x28,%rax
    ad5c:	00 00 
    ad5e:	48 89 45 f8          	mov    %rax,-0x8(%rbp)
    ad62:	31 c0                	xor    %eax,%eax
    ad64:	48 c7 45 88 00 00 00 	movq   $0x0,-0x78(%rbp)
    ad6b:	00 
    ad6c:	c7 45 80 f1 ed 6d 5a 	movl   $0x5a6dedf1,-0x80(%rbp)
    ad73:	48 c7 45 90 00 00 00 	movq   $0x0,-0x70(%rbp)
    ad7a:	00 
    ad7b:	48 8d 05 9a bc 00 00 	lea    0xbc9a(%rip),%rax        # 16a1c <g_436>
    ad82:	48 89 45 98          	mov    %rax,-0x68(%rbp)
    ad86:	48 8d 05 7f bb 00 00 	lea    0xbb7f(%rip),%rax        # 1690c <g_181>
    ad8d:	48 89 45 b0          	mov    %rax,-0x50(%rbp)
    ad91:	48 8d 05 74 bb 00 00 	lea    0xbb74(%rip),%rax        # 1690c <g_181>
    ad98:	48 89 45 b8          	mov    %rax,-0x48(%rbp)
    ad9c:	48 8d 05 69 bb 00 00 	lea    0xbb69(%rip),%rax        # 1690c <g_181>
    ada3:	48 89 45 c0          	mov    %rax,-0x40(%rbp)
    ada7:	48 8d 05 5e bb 00 00 	lea    0xbb5e(%rip),%rax        # 1690c <g_181>
    adae:	48 89 45 c8          	mov    %rax,-0x38(%rbp)
    adb2:	48 8d 05 53 bb 00 00 	lea    0xbb53(%rip),%rax        # 1690c <g_181>
    adb9:	48 89 45 d0          	mov    %rax,-0x30(%rbp)
    adbd:	48 8d 05 48 bb 00 00 	lea    0xbb48(%rip),%rax        # 1690c <g_181>
    adc4:	48 89 45 d8          	mov    %rax,-0x28(%rbp)
    adc8:	48 8d 05 3d bb 00 00 	lea    0xbb3d(%rip),%rax        # 1690c <g_181>
    adcf:	48 89 45 e0          	mov    %rax,-0x20(%rbp)
    add3:	48 8d 05 32 bb 00 00 	lea    0xbb32(%rip),%rax        # 1690c <g_181>
    adda:	48 89 45 e8          	mov    %rax,-0x18(%rbp)
    adde:	c7 45 84 04 00 00 00 	movl   $0x4,-0x7c(%rbp)
    ade5:	c7 85 7c ff ff ff 00 	movl   $0x0,-0x84(%rbp)
    adec:	00 00 00 
    adef:	eb 1b                	jmp    ae0c <func_37+0xcd>
    adf1:	8b 85 7c ff ff ff    	mov    -0x84(%rbp),%eax
    adf7:	48 98                	cltq   
    adf9:	48 8d 15 48 bc 00 00 	lea    0xbc48(%rip),%rdx        # 16a48 <g_515>
    ae00:	48 89 54 c5 a0       	mov    %rdx,-0x60(%rbp,%rax,8)
    ae05:	83 85 7c ff ff ff 01 	addl   $0x1,-0x84(%rbp)
    ae0c:	83 bd 7c ff ff ff 01 	cmpl   $0x1,-0x84(%rbp)
    ae13:	7e dc                	jle    adf1 <func_37+0xb2>
    ae15:	83 6d 84 01          	subl   $0x1,-0x7c(%rbp)
    ae19:	48 8b 45 a8          	mov    -0x58(%rbp),%rax
    ae1d:	48 8b 4d f8          	mov    -0x8(%rbp),%rcx
    ae21:	64 48 33 0c 25 28 00 	xor    %fs:0x28,%rcx
    ae28:	00 00 
    ae2a:	74 05                	je     ae31 <func_37+0xf2>
    ae2c:	e8 3f a2 ff ff       	callq  5070 <__stack_chk_fail@plt>
    ae31:	c9                   	leaveq 
    ae32:	c3                   	retq   

000000000000ae33 <func_39>:
    ae33:	f3 0f 1e fa          	endbr64 
    ae37:	55                   	push   %rbp
    ae38:	48 89 e5             	mov    %rsp,%rbp
    ae3b:	41 57                	push   %r15
    ae3d:	41 56                	push   %r14
    ae3f:	41 55                	push   %r13
    ae41:	41 54                	push   %r12
    ae43:	53                   	push   %rbx
    ae44:	48 81 ec 08 0b 00 00 	sub    $0xb08,%rsp
    ae4b:	89 bd ec f4 ff ff    	mov    %edi,-0xb14(%rbp)
    ae51:	48 89 b5 e0 f4 ff ff 	mov    %rsi,-0xb20(%rbp)
    ae58:	48 89 95 d8 f4 ff ff 	mov    %rdx,-0xb28(%rbp)
    ae5f:	89 c8                	mov    %ecx,%eax
    ae61:	88 85 e8 f4 ff ff    	mov    %al,-0xb18(%rbp)
    ae67:	64 48 8b 04 25 28 00 	mov    %fs:0x28,%rax
    ae6e:	00 00 
    ae70:	48 89 45 c8          	mov    %rax,-0x38(%rbp)
    ae74:	31 c0                	xor    %eax,%eax
    ae76:	48 8d 85 00 fc ff ff 	lea    -0x400(%rbp),%rax
    ae7d:	48 8d 15 1c 78 00 00 	lea    0x781c(%rip),%rdx        # 126a0 <g_1231+0x648>
    ae84:	b9 78 00 00 00       	mov    $0x78,%ecx
    ae89:	48 89 c7             	mov    %rax,%rdi
    ae8c:	48 89 d6             	mov    %rdx,%rsi
    ae8f:	f3 48 a5             	rep movsq %ds:(%rsi),%es:(%rdi)
    ae92:	c7 85 00 f5 ff ff a6 	movl   $0x68918ba6,-0xb00(%rbp)
    ae99:	8b 91 68 
    ae9c:	48 8d 05 1d f9 00 00 	lea    0xf91d(%rip),%rax        # 1a7c0 <g_127>
    aea3:	48 89 85 20 f5 ff ff 	mov    %rax,-0xae0(%rbp)
    aeaa:	48 b8 0a 69 c1 59 18 	movabs $0xe86dac1859c1690a,%rax
    aeb1:	ac 6d e8 
    aeb4:	48 89 85 28 f5 ff ff 	mov    %rax,-0xad8(%rbp)
    aebb:	48 8d 85 40 f5 ff ff 	lea    -0xac0(%rbp),%rax
    aec2:	48 89 85 10 f5 ff ff 	mov    %rax,-0xaf0(%rbp)
    aec9:	48 8d 85 10 f5 ff ff 	lea    -0xaf0(%rbp),%rax
    aed0:	48 89 85 00 f6 ff ff 	mov    %rax,-0xa00(%rbp)
    aed7:	48 8d 85 10 f5 ff ff 	lea    -0xaf0(%rbp),%rax
    aede:	48 89 85 08 f6 ff ff 	mov    %rax,-0x9f8(%rbp)
    aee5:	48 8d 85 10 f5 ff ff 	lea    -0xaf0(%rbp),%rax
    aeec:	48 89 85 10 f6 ff ff 	mov    %rax,-0x9f0(%rbp)
    aef3:	48 8d 85 10 f5 ff ff 	lea    -0xaf0(%rbp),%rax
    aefa:	48 89 85 18 f6 ff ff 	mov    %rax,-0x9e8(%rbp)
    af01:	48 8d 85 10 f5 ff ff 	lea    -0xaf0(%rbp),%rax
    af08:	48 89 85 20 f6 ff ff 	mov    %rax,-0x9e0(%rbp)
    af0f:	48 8d 85 10 f5 ff ff 	lea    -0xaf0(%rbp),%rax
    af16:	48 89 85 28 f6 ff ff 	mov    %rax,-0x9d8(%rbp)
    af1d:	48 8d 85 10 f5 ff ff 	lea    -0xaf0(%rbp),%rax
    af24:	48 89 85 30 f6 ff ff 	mov    %rax,-0x9d0(%rbp)
    af2b:	48 8d 85 10 f5 ff ff 	lea    -0xaf0(%rbp),%rax
    af32:	48 89 85 38 f6 ff ff 	mov    %rax,-0x9c8(%rbp)
    af39:	48 8d 85 10 f5 ff ff 	lea    -0xaf0(%rbp),%rax
    af40:	48 89 85 40 f6 ff ff 	mov    %rax,-0x9c0(%rbp)
    af47:	48 8d 85 10 f5 ff ff 	lea    -0xaf0(%rbp),%rax
    af4e:	48 89 85 48 f6 ff ff 	mov    %rax,-0x9b8(%rbp)
    af55:	48 8d 85 10 f5 ff ff 	lea    -0xaf0(%rbp),%rax
    af5c:	48 89 85 50 f6 ff ff 	mov    %rax,-0x9b0(%rbp)
    af63:	48 8d 85 10 f5 ff ff 	lea    -0xaf0(%rbp),%rax
    af6a:	48 89 85 58 f6 ff ff 	mov    %rax,-0x9a8(%rbp)
    af71:	48 c7 85 60 f6 ff ff 	movq   $0x0,-0x9a0(%rbp)
    af78:	00 00 00 00 
    af7c:	48 c7 85 68 f6 ff ff 	movq   $0x0,-0x998(%rbp)
    af83:	00 00 00 00 
    af87:	48 8d 85 10 f5 ff ff 	lea    -0xaf0(%rbp),%rax
    af8e:	48 89 85 70 f6 ff ff 	mov    %rax,-0x990(%rbp)
    af95:	48 c7 85 78 f6 ff ff 	movq   $0x0,-0x988(%rbp)
    af9c:	00 00 00 00 
    afa0:	48 c7 85 80 f6 ff ff 	movq   $0x0,-0x980(%rbp)
    afa7:	00 00 00 00 
    afab:	48 8d 85 10 f5 ff ff 	lea    -0xaf0(%rbp),%rax
    afb2:	48 89 85 88 f6 ff ff 	mov    %rax,-0x978(%rbp)
    afb9:	48 8d 85 10 f5 ff ff 	lea    -0xaf0(%rbp),%rax
    afc0:	48 89 85 90 f6 ff ff 	mov    %rax,-0x970(%rbp)
    afc7:	48 8d 85 10 f5 ff ff 	lea    -0xaf0(%rbp),%rax
    afce:	48 89 85 98 f6 ff ff 	mov    %rax,-0x968(%rbp)
    afd5:	48 8d 85 10 f5 ff ff 	lea    -0xaf0(%rbp),%rax
    afdc:	48 89 85 a0 f6 ff ff 	mov    %rax,-0x960(%rbp)
    afe3:	48 8d 85 10 f5 ff ff 	lea    -0xaf0(%rbp),%rax
    afea:	48 89 85 a8 f6 ff ff 	mov    %rax,-0x958(%rbp)
    aff1:	48 8d 85 10 f5 ff ff 	lea    -0xaf0(%rbp),%rax
    aff8:	48 89 85 b0 f6 ff ff 	mov    %rax,-0x950(%rbp)
    afff:	48 8d 85 10 f5 ff ff 	lea    -0xaf0(%rbp),%rax
    b006:	48 89 85 b8 f6 ff ff 	mov    %rax,-0x948(%rbp)
    b00d:	48 8d 85 10 f5 ff ff 	lea    -0xaf0(%rbp),%rax
    b014:	48 89 85 c0 f6 ff ff 	mov    %rax,-0x940(%rbp)
    b01b:	48 8d 85 10 f5 ff ff 	lea    -0xaf0(%rbp),%rax
    b022:	48 89 85 c8 f6 ff ff 	mov    %rax,-0x938(%rbp)
    b029:	48 8d 85 10 f5 ff ff 	lea    -0xaf0(%rbp),%rax
    b030:	48 89 85 d0 f6 ff ff 	mov    %rax,-0x930(%rbp)
    b037:	48 8d 85 10 f5 ff ff 	lea    -0xaf0(%rbp),%rax
    b03e:	48 89 85 d8 f6 ff ff 	mov    %rax,-0x928(%rbp)
    b045:	48 8d 85 10 f5 ff ff 	lea    -0xaf0(%rbp),%rax
    b04c:	48 89 85 e0 f6 ff ff 	mov    %rax,-0x920(%rbp)
    b053:	48 8d 85 10 f5 ff ff 	lea    -0xaf0(%rbp),%rax
    b05a:	48 89 85 e8 f6 ff ff 	mov    %rax,-0x918(%rbp)
    b061:	48 8d 85 10 f5 ff ff 	lea    -0xaf0(%rbp),%rax
    b068:	48 89 85 f0 f6 ff ff 	mov    %rax,-0x910(%rbp)
    b06f:	48 c7 85 f8 f6 ff ff 	movq   $0x0,-0x908(%rbp)
    b076:	00 00 00 00 
    b07a:	48 8d 85 10 f5 ff ff 	lea    -0xaf0(%rbp),%rax
    b081:	48 89 85 00 f7 ff ff 	mov    %rax,-0x900(%rbp)
    b088:	48 c7 85 08 f7 ff ff 	movq   $0x0,-0x8f8(%rbp)
    b08f:	00 00 00 00 
    b093:	48 8d 85 10 f5 ff ff 	lea    -0xaf0(%rbp),%rax
    b09a:	48 89 85 10 f7 ff ff 	mov    %rax,-0x8f0(%rbp)
    b0a1:	48 8d 85 10 f5 ff ff 	lea    -0xaf0(%rbp),%rax
    b0a8:	48 89 85 18 f7 ff ff 	mov    %rax,-0x8e8(%rbp)
    b0af:	48 c7 85 20 f7 ff ff 	movq   $0x0,-0x8e0(%rbp)
    b0b6:	00 00 00 00 
    b0ba:	48 8d 85 10 f5 ff ff 	lea    -0xaf0(%rbp),%rax
    b0c1:	48 89 85 28 f7 ff ff 	mov    %rax,-0x8d8(%rbp)
    b0c8:	48 8d 85 10 f5 ff ff 	lea    -0xaf0(%rbp),%rax
    b0cf:	48 89 85 30 f7 ff ff 	mov    %rax,-0x8d0(%rbp)
    b0d6:	48 8d 85 10 f5 ff ff 	lea    -0xaf0(%rbp),%rax
    b0dd:	48 89 85 38 f7 ff ff 	mov    %rax,-0x8c8(%rbp)
    b0e4:	48 c7 85 40 f7 ff ff 	movq   $0x0,-0x8c0(%rbp)
    b0eb:	00 00 00 00 
    b0ef:	48 c7 85 48 f7 ff ff 	movq   $0x0,-0x8b8(%rbp)
    b0f6:	00 00 00 00 
    b0fa:	48 8d 85 10 f5 ff ff 	lea    -0xaf0(%rbp),%rax
    b101:	48 89 85 50 f7 ff ff 	mov    %rax,-0x8b0(%rbp)
    b108:	48 c7 85 58 f7 ff ff 	movq   $0x0,-0x8a8(%rbp)
    b10f:	00 00 00 00 
    b113:	48 8d 85 10 f5 ff ff 	lea    -0xaf0(%rbp),%rax
    b11a:	48 89 85 60 f7 ff ff 	mov    %rax,-0x8a0(%rbp)
    b121:	48 8d 85 10 f5 ff ff 	lea    -0xaf0(%rbp),%rax
    b128:	48 89 85 68 f7 ff ff 	mov    %rax,-0x898(%rbp)
    b12f:	48 8d 85 10 f5 ff ff 	lea    -0xaf0(%rbp),%rax
    b136:	48 89 85 70 f7 ff ff 	mov    %rax,-0x890(%rbp)
    b13d:	48 8d 85 10 f5 ff ff 	lea    -0xaf0(%rbp),%rax
    b144:	48 89 85 78 f7 ff ff 	mov    %rax,-0x888(%rbp)
    b14b:	48 c7 85 80 f7 ff ff 	movq   $0x0,-0x880(%rbp)
    b152:	00 00 00 00 
    b156:	48 8d 85 10 f5 ff ff 	lea    -0xaf0(%rbp),%rax
    b15d:	48 89 85 88 f7 ff ff 	mov    %rax,-0x878(%rbp)
    b164:	48 8d 85 10 f5 ff ff 	lea    -0xaf0(%rbp),%rax
    b16b:	48 89 85 90 f7 ff ff 	mov    %rax,-0x870(%rbp)
    b172:	48 c7 85 98 f7 ff ff 	movq   $0x0,-0x868(%rbp)
    b179:	00 00 00 00 
    b17d:	48 8d 85 10 f5 ff ff 	lea    -0xaf0(%rbp),%rax
    b184:	48 89 85 a0 f7 ff ff 	mov    %rax,-0x860(%rbp)
    b18b:	48 8d 85 10 f5 ff ff 	lea    -0xaf0(%rbp),%rax
    b192:	48 89 85 a8 f7 ff ff 	mov    %rax,-0x858(%rbp)
    b199:	48 c7 85 b0 f7 ff ff 	movq   $0x0,-0x850(%rbp)
    b1a0:	00 00 00 00 
    b1a4:	48 8d 85 10 f5 ff ff 	lea    -0xaf0(%rbp),%rax
    b1ab:	48 89 85 b8 f7 ff ff 	mov    %rax,-0x848(%rbp)
    b1b2:	48 8d 85 10 f5 ff ff 	lea    -0xaf0(%rbp),%rax
    b1b9:	48 89 85 c0 f7 ff ff 	mov    %rax,-0x840(%rbp)
    b1c0:	48 8d 85 10 f5 ff ff 	lea    -0xaf0(%rbp),%rax
    b1c7:	48 89 85 c8 f7 ff ff 	mov    %rax,-0x838(%rbp)
    b1ce:	48 8d 85 10 f5 ff ff 	lea    -0xaf0(%rbp),%rax
    b1d5:	48 89 85 d0 f7 ff ff 	mov    %rax,-0x830(%rbp)
    b1dc:	48 c7 85 d8 f7 ff ff 	movq   $0x0,-0x828(%rbp)
    b1e3:	00 00 00 00 
    b1e7:	48 8d 85 10 f5 ff ff 	lea    -0xaf0(%rbp),%rax
    b1ee:	48 89 85 e0 f7 ff ff 	mov    %rax,-0x820(%rbp)
    b1f5:	48 c7 85 e8 f7 ff ff 	movq   $0x0,-0x818(%rbp)
    b1fc:	00 00 00 00 
    b200:	48 c7 85 f0 f7 ff ff 	movq   $0x0,-0x810(%rbp)
    b207:	00 00 00 00 
    b20b:	48 8d 85 10 f5 ff ff 	lea    -0xaf0(%rbp),%rax
    b212:	48 89 85 f8 f7 ff ff 	mov    %rax,-0x808(%rbp)
    b219:	48 c7 85 00 f8 ff ff 	movq   $0x0,-0x800(%rbp)
    b220:	00 00 00 00 
    b224:	48 8d 85 10 f5 ff ff 	lea    -0xaf0(%rbp),%rax
    b22b:	48 89 85 08 f8 ff ff 	mov    %rax,-0x7f8(%rbp)
    b232:	48 8d 85 10 f5 ff ff 	lea    -0xaf0(%rbp),%rax
    b239:	48 89 85 10 f8 ff ff 	mov    %rax,-0x7f0(%rbp)
    b240:	48 8d 85 10 f5 ff ff 	lea    -0xaf0(%rbp),%rax
    b247:	48 89 85 18 f8 ff ff 	mov    %rax,-0x7e8(%rbp)
    b24e:	48 c7 85 20 f8 ff ff 	movq   $0x0,-0x7e0(%rbp)
    b255:	00 00 00 00 
    b259:	48 8d 85 10 f5 ff ff 	lea    -0xaf0(%rbp),%rax
    b260:	48 89 85 28 f8 ff ff 	mov    %rax,-0x7d8(%rbp)
    b267:	48 8d 85 10 f5 ff ff 	lea    -0xaf0(%rbp),%rax
    b26e:	48 89 85 30 f8 ff ff 	mov    %rax,-0x7d0(%rbp)
    b275:	48 8d 85 10 f5 ff ff 	lea    -0xaf0(%rbp),%rax
    b27c:	48 89 85 38 f8 ff ff 	mov    %rax,-0x7c8(%rbp)
    b283:	48 8d 85 10 f5 ff ff 	lea    -0xaf0(%rbp),%rax
    b28a:	48 89 85 40 f8 ff ff 	mov    %rax,-0x7c0(%rbp)
    b291:	48 8d 85 10 f5 ff ff 	lea    -0xaf0(%rbp),%rax
    b298:	48 89 85 48 f8 ff ff 	mov    %rax,-0x7b8(%rbp)
    b29f:	48 c7 85 50 f8 ff ff 	movq   $0x0,-0x7b0(%rbp)
    b2a6:	00 00 00 00 
    b2aa:	48 8d 85 10 f5 ff ff 	lea    -0xaf0(%rbp),%rax
    b2b1:	48 89 85 58 f8 ff ff 	mov    %rax,-0x7a8(%rbp)
    b2b8:	48 8d 85 10 f5 ff ff 	lea    -0xaf0(%rbp),%rax
    b2bf:	48 89 85 60 f8 ff ff 	mov    %rax,-0x7a0(%rbp)
    b2c6:	48 8d 85 10 f5 ff ff 	lea    -0xaf0(%rbp),%rax
    b2cd:	48 89 85 68 f8 ff ff 	mov    %rax,-0x798(%rbp)
    b2d4:	48 8d 85 10 f5 ff ff 	lea    -0xaf0(%rbp),%rax
    b2db:	48 89 85 70 f8 ff ff 	mov    %rax,-0x790(%rbp)
    b2e2:	48 8d 85 10 f5 ff ff 	lea    -0xaf0(%rbp),%rax
    b2e9:	48 89 85 78 f8 ff ff 	mov    %rax,-0x788(%rbp)
    b2f0:	48 8d 05 2f b6 00 00 	lea    0xb62f(%rip),%rax        # 16926 <g_326+0x6>
    b2f7:	48 89 85 18 f5 ff ff 	mov    %rax,-0xae8(%rbp)
    b2fe:	48 8d 85 18 f5 ff ff 	lea    -0xae8(%rbp),%rax
    b305:	48 89 85 30 f5 ff ff 	mov    %rax,-0xad0(%rbp)
    b30c:	c7 85 04 f5 ff ff 2b 	movl   $0x9f3e912b,-0xafc(%rbp)
    b313:	91 3e 9f 
    b316:	c7 85 f0 f4 ff ff 00 	movl   $0x0,-0xb10(%rbp)
    b31d:	00 00 00 
    b320:	eb 46                	jmp    b368 <func_39+0x535>
    b322:	c7 85 f4 f4 ff ff 00 	movl   $0x0,-0xb0c(%rbp)
    b329:	00 00 00 
    b32c:	eb 2a                	jmp    b358 <func_39+0x525>
    b32e:	8b 85 f4 f4 ff ff    	mov    -0xb0c(%rbp),%eax
    b334:	48 63 d0             	movslq %eax,%rdx
    b337:	8b 85 f0 f4 ff ff    	mov    -0xb10(%rbp),%eax
    b33d:	48 98                	cltq   
    b33f:	48 01 d0             	add    %rdx,%rax
    b342:	48 8d 15 57 ec 00 00 	lea    0xec57(%rip),%rdx        # 19fa0 <g_191>
    b349:	48 89 94 c5 40 f5 ff 	mov    %rdx,-0xac0(%rbp,%rax,8)
    b350:	ff 
    b351:	83 85 f4 f4 ff ff 01 	addl   $0x1,-0xb0c(%rbp)
    b358:	83 bd f4 f4 ff ff 00 	cmpl   $0x0,-0xb0c(%rbp)
    b35f:	7e cd                	jle    b32e <func_39+0x4fb>
    b361:	83 85 f0 f4 ff ff 01 	addl   $0x1,-0xb10(%rbp)
    b368:	83 bd f0 f4 ff ff 01 	cmpl   $0x1,-0xb10(%rbp)
    b36f:	7e b1                	jle    b322 <func_39+0x4ef>
    b371:	83 bd ec f4 ff ff 01 	cmpl   $0x1,-0xb14(%rbp)
    b378:	0f 9e c0             	setle  %al
    b37b:	0f b6 d0             	movzbl %al,%edx
    b37e:	8b 05 dc ac 00 00    	mov    0xacdc(%rip),%eax        # 16060 <g_64>
    b384:	21 d0                	and    %edx,%eax
    b386:	89 05 d4 ac 00 00    	mov    %eax,0xacd4(%rip)        # 16060 <g_64>
    b38c:	48 8b 85 d8 f4 ff ff 	mov    -0xb28(%rbp),%rax
    b393:	44 8b 30             	mov    (%rax),%r14d
    b396:	8b 05 b0 ac 00 00    	mov    0xacb0(%rip),%eax        # 1604c <g_5>
    b39c:	89 85 d4 f4 ff ff    	mov    %eax,-0xb2c(%rbp)
    b3a2:	8b 85 00 f5 ff ff    	mov    -0xb00(%rbp),%eax
    b3a8:	4c 63 e0             	movslq %eax,%r12
    b3ab:	48 8b 1d ee eb 00 00 	mov    0xebee(%rip),%rbx        # 19fa0 <g_191>
    b3b2:	4c 0f be bd e8 f4 ff 	movsbq -0xb18(%rbp),%r15
    b3b9:	ff 
    b3ba:	8b 85 00 fe ff ff    	mov    -0x200(%rbp),%eax
    b3c0:	44 0f be e8          	movsbl %al,%r13d
    b3c4:	66 0f be 85 e8 f4 ff 	movsbw -0xb18(%rbp),%ax
    b3cb:	ff 
    b3cc:	0f b7 c0             	movzwl %ax,%eax
    b3cf:	48 8d 95 00 fc ff ff 	lea    -0x400(%rbp),%rdx
    b3d6:	48 81 c2 00 02 00 00 	add    $0x200,%rdx
    b3dd:	89 c6                	mov    %eax,%esi
    b3df:	48 89 d7             	mov    %rdx,%rdi
    b3e2:	e8 d6 18 00 00       	callq  ccbd <func_84>
    b3e7:	48 89 c6             	mov    %rax,%rsi
    b3ea:	bf 00 00 00 00       	mov    $0x0,%edi
    b3ef:	e8 57 ac ff ff       	callq  604b <safe_sub_func_uint64_t_u_u>
    b3f4:	89 c1                	mov    %eax,%ecx
    b3f6:	8b 85 00 fe ff ff    	mov    -0x200(%rbp),%eax
    b3fc:	44 89 ea             	mov    %r13d,%edx
    b3ff:	89 ce                	mov    %ecx,%esi
    b401:	89 c7                	mov    %eax,%edi
    b403:	e8 1a 18 00 00       	callq  cc22 <func_78>
    b408:	48 85 c0             	test   %rax,%rax
    b40b:	74 0a                	je     b417 <func_39+0x5e4>
    b40d:	0f b7 05 9c b5 00 00 	movzwl 0xb59c(%rip),%eax        # 169b0 <g_334>
    b414:	66 85 c0             	test   %ax,%ax
    b417:	8b 85 68 fd ff ff    	mov    -0x298(%rbp),%eax
    b41d:	0f bf c8             	movswl %ax,%ecx
    b420:	48 8b 85 e0 f4 ff ff 	mov    -0xb20(%rbp),%rax
    b427:	0f b6 00             	movzbl (%rax),%eax
    b42a:	0f b6 d0             	movzbl %al,%edx
    b42d:	0f b7 05 24 ac 00 00 	movzwl 0xac24(%rip),%eax        # 16058 <g_59>
    b434:	0f bf f0             	movswl %ax,%esi
    b437:	8b 85 00 fe ff ff    	mov    -0x200(%rbp),%eax
    b43d:	4d 89 f8             	mov    %r15,%r8
    b440:	89 c7                	mov    %eax,%edi
    b442:	e8 25 04 00 00       	callq  b86c <func_71>
    b447:	89 85 00 fe ff ff    	mov    %eax,-0x200(%rbp)
    b44d:	8b 85 00 fe ff ff    	mov    -0x200(%rbp),%eax
    b453:	85 c0                	test   %eax,%eax
    b455:	75 0a                	jne    b461 <func_39+0x62e>
    b457:	8b 85 bc fd ff ff    	mov    -0x244(%rbp),%eax
    b45d:	85 c0                	test   %eax,%eax
    b45f:	74 17                	je     b478 <func_39+0x645>
    b461:	48 8b 05 c0 b5 00 00 	mov    0xb5c0(%rip),%rax        # 16a28 <g_492+0x8>
    b468:	66 25 ff 07          	and    $0x7ff,%ax
    b46c:	66 85 c0             	test   %ax,%ax
    b46f:	74 07                	je     b478 <func_39+0x645>
    b471:	b8 01 00 00 00       	mov    $0x1,%eax
    b476:	eb 05                	jmp    b47d <func_39+0x64a>
    b478:	b8 00 00 00 00       	mov    $0x0,%eax
    b47d:	98                   	cwtl   
    b47e:	be c8 61 00 00       	mov    $0x61c8,%esi
    b483:	89 c7                	mov    %eax,%edi
    b485:	e8 29 9f ff ff       	callq  53b3 <safe_add_func_int16_t_s_s>
    b48a:	48 8b 05 af b5 00 00 	mov    0xb5af(%rip),%rax        # 16a40 <g_512>
    b491:	89 c2                	mov    %eax,%edx
    b493:	0f be 8d e8 f4 ff ff 	movsbl -0xb18(%rbp),%ecx
    b49a:	48 8b 85 d8 f4 ff ff 	mov    -0xb28(%rbp),%rax
    b4a1:	89 ce                	mov    %ecx,%esi
    b4a3:	48 89 c7             	mov    %rax,%rdi
    b4a6:	e8 ed 02 00 00       	callq  b798 <func_65>
    b4ab:	45 89 f0             	mov    %r14d,%r8d
    b4ae:	8b 8d d4 f4 ff ff    	mov    -0xb2c(%rbp),%ecx
    b4b4:	4c 89 e2             	mov    %r12,%rdx
    b4b7:	48 89 de             	mov    %rbx,%rsi
    b4ba:	48 89 c7             	mov    %rax,%rdi
    b4bd:	e8 2c 02 00 00       	callq  b6ee <func_45>
    b4c2:	48 8b 95 20 f5 ff ff 	mov    -0xae0(%rbp),%rdx
    b4c9:	48 89 02             	mov    %rax,(%rdx)
    b4cc:	c7 05 56 b0 00 00 ee 	movl   $0xffffffee,0xb056(%rip)        # 1652c <g_172>
    b4d3:	ff ff ff 
    b4d6:	e9 d7 01 00 00       	jmpq   b6b2 <func_39+0x87f>
    b4db:	48 8d 05 1e b5 00 00 	lea    0xb51e(%rip),%rax        # 16a00 <g_399>
    b4e2:	48 89 85 90 f5 ff ff 	mov    %rax,-0xa70(%rbp)
    b4e9:	48 8d 05 10 b5 00 00 	lea    0xb510(%rip),%rax        # 16a00 <g_399>
    b4f0:	48 89 85 98 f5 ff ff 	mov    %rax,-0xa68(%rbp)
    b4f7:	48 8d 05 02 b5 00 00 	lea    0xb502(%rip),%rax        # 16a00 <g_399>
    b4fe:	48 89 85 a0 f5 ff ff 	mov    %rax,-0xa60(%rbp)
    b505:	48 8d 05 f4 b4 00 00 	lea    0xb4f4(%rip),%rax        # 16a00 <g_399>
    b50c:	48 89 85 a8 f5 ff ff 	mov    %rax,-0xa58(%rbp)
    b513:	48 8d 05 e6 b4 00 00 	lea    0xb4e6(%rip),%rax        # 16a00 <g_399>
    b51a:	48 89 85 b0 f5 ff ff 	mov    %rax,-0xa50(%rbp)
    b521:	48 8d 05 d8 b4 00 00 	lea    0xb4d8(%rip),%rax        # 16a00 <g_399>
    b528:	48 89 85 b8 f5 ff ff 	mov    %rax,-0xa48(%rbp)
    b52f:	48 8d 05 96 ab 00 00 	lea    0xab96(%rip),%rax        # 160cc <g_135>
    b536:	48 89 85 70 f5 ff ff 	mov    %rax,-0xa90(%rbp)
    b53d:	48 8d 05 88 ab 00 00 	lea    0xab88(%rip),%rax        # 160cc <g_135>
    b544:	48 89 85 78 f5 ff ff 	mov    %rax,-0xa88(%rbp)
    b54b:	48 8d 05 7a ab 00 00 	lea    0xab7a(%rip),%rax        # 160cc <g_135>
    b552:	48 89 85 80 f5 ff ff 	mov    %rax,-0xa80(%rbp)
    b559:	48 8d 05 6c ab 00 00 	lea    0xab6c(%rip),%rax        # 160cc <g_135>
    b560:	48 89 85 88 f5 ff ff 	mov    %rax,-0xa78(%rbp)
    b567:	48 c7 85 38 f5 ff ff 	movq   $0x1,-0xac8(%rbp)
    b56e:	01 00 00 00 
    b572:	c7 85 08 f5 ff ff f4 	movl   $0xcd4a47f4,-0xaf8(%rbp)
    b579:	47 4a cd 
    b57c:	c7 85 f8 f4 ff ff 00 	movl   $0x0,-0xb08(%rbp)
    b583:	00 00 00 
    b586:	eb 1b                	jmp    b5a3 <func_39+0x770>
    b588:	8b 85 f8 f4 ff ff    	mov    -0xb08(%rbp),%eax
    b58e:	48 98                	cltq   
    b590:	48 c7 84 c5 50 f5 ff 	movq   $0x0,-0xab0(%rbp,%rax,8)
    b597:	ff 00 00 00 00 
    b59c:	83 85 f8 f4 ff ff 01 	addl   $0x1,-0xb08(%rbp)
    b5a3:	83 bd f8 f4 ff ff 02 	cmpl   $0x2,-0xb08(%rbp)
    b5aa:	7e dc                	jle    b588 <func_39+0x755>
    b5ac:	48 8b 95 60 f5 ff ff 	mov    -0xaa0(%rbp),%rdx
    b5b3:	48 8b 85 20 f5 ff ff 	mov    -0xae0(%rbp),%rax
    b5ba:	48 89 10             	mov    %rdx,(%rax)
    b5bd:	c7 05 5d ad 00 00 00 	movl   $0x0,0xad5d(%rip)        # 16324 <g_148>
    b5c4:	00 00 00 
    b5c7:	e9 b6 00 00 00       	jmpq   b682 <func_39+0x84f>
    b5cc:	48 c7 85 c0 f5 ff ff 	movq   $0x5,-0xa40(%rbp)
    b5d3:	05 00 00 00 
    b5d7:	48 c7 85 c8 f5 ff ff 	movq   $0x5,-0xa38(%rbp)
    b5de:	05 00 00 00 
    b5e2:	48 c7 85 d0 f5 ff ff 	movq   $0x5,-0xa30(%rbp)
    b5e9:	05 00 00 00 
    b5ed:	48 c7 85 d8 f5 ff ff 	movq   $0x5,-0xa28(%rbp)
    b5f4:	05 00 00 00 
    b5f8:	48 c7 85 e0 f5 ff ff 	movq   $0x5,-0xa20(%rbp)
    b5ff:	05 00 00 00 
    b603:	48 c7 85 e8 f5 ff ff 	movq   $0x5,-0xa18(%rbp)
    b60a:	05 00 00 00 
    b60e:	48 c7 85 f0 f5 ff ff 	movq   $0x5,-0xa10(%rbp)
    b615:	05 00 00 00 
    b619:	48 c7 85 f8 f5 ff ff 	movq   $0x5,-0xa08(%rbp)
    b620:	05 00 00 00 
    b624:	48 8d 85 80 f8 ff ff 	lea    -0x780(%rbp),%rax
    b62b:	48 8d 15 2e 74 00 00 	lea    0x742e(%rip),%rdx        # 12a60 <g_1231+0xa08>
    b632:	b9 70 00 00 00       	mov    $0x70,%ecx
    b637:	48 89 c7             	mov    %rax,%rdi
    b63a:	48 89 d6             	mov    %rdx,%rsi
    b63d:	f3 48 a5             	rep movsq %ds:(%rsi),%es:(%rdi)
    b640:	c7 85 0c f5 ff ff 02 	movl   $0x2,-0xaf4(%rbp)
    b647:	00 00 00 
    b64a:	c7 85 fc f4 ff ff 00 	movl   $0x0,-0xb04(%rbp)
    b651:	00 00 00 
    b654:	eb 14                	jmp    b66a <func_39+0x837>
    b656:	8b 85 fc f4 ff ff    	mov    -0xb04(%rbp),%eax
    b65c:	48 98                	cltq   
    b65e:	c6 44 05 c5 54       	movb   $0x54,-0x3b(%rbp,%rax,1)
    b663:	83 85 fc f4 ff ff 01 	addl   $0x1,-0xb04(%rbp)
    b66a:	83 bd fc f4 ff ff 02 	cmpl   $0x2,-0xb04(%rbp)
    b671:	7e e3                	jle    b656 <func_39+0x823>
    b673:	8b 05 ab ac 00 00    	mov    0xacab(%rip),%eax        # 16324 <g_148>
    b679:	83 c0 01             	add    $0x1,%eax
    b67c:	89 05 a2 ac 00 00    	mov    %eax,0xaca2(%rip)        # 16324 <g_148>
    b682:	8b 05 9c ac 00 00    	mov    0xac9c(%rip),%eax        # 16324 <g_148>
    b688:	83 f8 01             	cmp    $0x1,%eax
    b68b:	0f 86 3b ff ff ff    	jbe    b5cc <func_39+0x799>
    b691:	48 8b 05 48 e9 00 00 	mov    0xe948(%rip),%rax        # 19fe0 <g_704>
    b698:	48 8b 95 d8 f4 ff ff 	mov    -0xb28(%rbp),%rdx
    b69f:	8b 12                	mov    (%rdx),%edx
    b6a1:	89 10                	mov    %edx,(%rax)
    b6a3:	8b 05 83 ae 00 00    	mov    0xae83(%rip),%eax        # 1652c <g_172>
    b6a9:	83 c0 01             	add    $0x1,%eax
    b6ac:	89 05 7a ae 00 00    	mov    %eax,0xae7a(%rip)        # 1652c <g_172>
    b6b2:	8b 05 74 ae 00 00    	mov    0xae74(%rip),%eax        # 1652c <g_172>
    b6b8:	83 f8 3a             	cmp    $0x3a,%eax
    b6bb:	0f 86 1a fe ff ff    	jbe    b4db <func_39+0x6a8>
    b6c1:	48 8d 05 78 a9 00 00 	lea    0xa978(%rip),%rax        # 16040 <g_2+0x10>
    b6c8:	48 8b 5d c8          	mov    -0x38(%rbp),%rbx
    b6cc:	64 48 33 1c 25 28 00 	xor    %fs:0x28,%rbx
    b6d3:	00 00 
    b6d5:	74 05                	je     b6dc <func_39+0x8a9>
    b6d7:	e8 94 99 ff ff       	callq  5070 <__stack_chk_fail@plt>
    b6dc:	48 81 c4 08 0b 00 00 	add    $0xb08,%rsp
    b6e3:	5b                   	pop    %rbx
    b6e4:	41 5c                	pop    %r12
    b6e6:	41 5d                	pop    %r13
    b6e8:	41 5e                	pop    %r14
    b6ea:	41 5f                	pop    %r15
    b6ec:	5d                   	pop    %rbp
    b6ed:	c3                   	retq   

000000000000b6ee <func_45>:
    b6ee:	f3 0f 1e fa          	endbr64 
    b6f2:	55                   	push   %rbp
    b6f3:	48 89 e5             	mov    %rsp,%rbp
    b6f6:	48 83 ec 60          	sub    $0x60,%rsp
    b6fa:	48 89 7d b8          	mov    %rdi,-0x48(%rbp)
    b6fe:	48 89 75 b0          	mov    %rsi,-0x50(%rbp)
    b702:	48 89 55 a8          	mov    %rdx,-0x58(%rbp)
    b706:	89 4d a4             	mov    %ecx,-0x5c(%rbp)
    b709:	44 89 45 a0          	mov    %r8d,-0x60(%rbp)
    b70d:	64 48 8b 04 25 28 00 	mov    %fs:0x28,%rax
    b714:	00 00 
    b716:	48 89 45 f8          	mov    %rax,-0x8(%rbp)
    b71a:	31 c0                	xor    %eax,%eax
    b71c:	48 c7 45 c8 00 00 00 	movq   $0x0,-0x38(%rbp)
    b723:	00 
    b724:	c7 45 c0 ad 0b eb 18 	movl   $0x18eb0bad,-0x40(%rbp)
    b72b:	48 8d 45 c0          	lea    -0x40(%rbp),%rax
    b72f:	48 89 45 d0          	mov    %rax,-0x30(%rbp)
    b733:	48 8d 05 0e a9 00 00 	lea    0xa90e(%rip),%rax        # 16048 <g_2+0x18>
    b73a:	48 89 45 d8          	mov    %rax,-0x28(%rbp)
    b73e:	c7 45 c4 00 00 00 00 	movl   $0x0,-0x3c(%rbp)
    b745:	eb 12                	jmp    b759 <func_45+0x6b>
    b747:	8b 45 c4             	mov    -0x3c(%rbp),%eax
    b74a:	48 98                	cltq   
    b74c:	48 8d 55 c0          	lea    -0x40(%rbp),%rdx
    b750:	48 89 54 c5 e0       	mov    %rdx,-0x20(%rbp,%rax,8)
    b755:	83 45 c4 01          	addl   $0x1,-0x3c(%rbp)
    b759:	83 7d c4 01          	cmpl   $0x1,-0x3c(%rbp)
    b75d:	7e e8                	jle    b747 <func_45+0x59>
    b75f:	0f b6 05 ec a8 00 00 	movzbl 0xa8ec(%rip),%eax        # 16052 <g_56+0x1>
    b766:	83 e8 01             	sub    $0x1,%eax
    b769:	88 05 e3 a8 00 00    	mov    %al,0xa8e3(%rip)        # 16052 <g_56+0x1>
    b76f:	8b 05 e7 a8 00 00    	mov    0xa8e7(%rip),%eax        # 1605c <g_60>
    b775:	83 e8 01             	sub    $0x1,%eax
    b778:	89 05 de a8 00 00    	mov    %eax,0xa8de(%rip)        # 1605c <g_60>
    b77e:	48 8b 45 d8          	mov    -0x28(%rbp),%rax
    b782:	48 8b 4d f8          	mov    -0x8(%rbp),%rcx
    b786:	64 48 33 0c 25 28 00 	xor    %fs:0x28,%rcx
    b78d:	00 00 
    b78f:	74 05                	je     b796 <func_45+0xa8>
    b791:	e8 da 98 ff ff       	callq  5070 <__stack_chk_fail@plt>
    b796:	c9                   	leaveq 
    b797:	c3                   	retq   

000000000000b798 <func_65>:
    b798:	f3 0f 1e fa          	endbr64 
    b79c:	55                   	push   %rbp
    b79d:	48 89 e5             	mov    %rsp,%rbp
    b7a0:	48 81 ec d0 02 00 00 	sub    $0x2d0,%rsp
    b7a7:	48 89 bd 38 fd ff ff 	mov    %rdi,-0x2c8(%rbp)
    b7ae:	89 f0                	mov    %esi,%eax
    b7b0:	89 95 30 fd ff ff    	mov    %edx,-0x2d0(%rbp)
    b7b6:	88 85 34 fd ff ff    	mov    %al,-0x2cc(%rbp)
    b7bc:	64 48 8b 04 25 28 00 	mov    %fs:0x28,%rax
    b7c3:	00 00 
    b7c5:	48 89 45 f8          	mov    %rax,-0x8(%rbp)
    b7c9:	31 c0                	xor    %eax,%eax
    b7cb:	48 8d 05 3a b1 00 00 	lea    0xb13a(%rip),%rax        # 1690c <g_181>
    b7d2:	48 89 85 48 fd ff ff 	mov    %rax,-0x2b8(%rbp)
    b7d9:	48 8d 05 2c b1 00 00 	lea    0xb12c(%rip),%rax        # 1690c <g_181>
    b7e0:	48 89 85 50 fd ff ff 	mov    %rax,-0x2b0(%rbp)
    b7e7:	48 c7 85 58 fd ff ff 	movq   $0x0,-0x2a8(%rbp)
    b7ee:	00 00 00 00 
    b7f2:	48 c7 85 60 fd ff ff 	movq   $0x0,-0x2a0(%rbp)
    b7f9:	00 00 00 00 
    b7fd:	48 8d 85 70 fd ff ff 	lea    -0x290(%rbp),%rax
    b804:	48 8d 15 b5 d5 00 00 	lea    0xd5b5(%rip),%rdx        # 18dc0 <g_1346+0x270>
    b80b:	b9 50 00 00 00       	mov    $0x50,%ecx
    b810:	48 89 c7             	mov    %rax,%rdi
    b813:	48 89 d6             	mov    %rdx,%rsi
    b816:	f3 48 a5             	rep movsq %ds:(%rsi),%es:(%rdi)
    b819:	66 c7 85 46 fd ff ff 	movw   $0xf995,-0x2ba(%rbp)
    b820:	95 f9 
    b822:	48 c7 85 68 fd ff ff 	movq   $0x0,-0x298(%rbp)
    b829:	00 00 00 00 
    b82d:	0f b7 05 2c b2 00 00 	movzwl 0xb22c(%rip),%eax        # 16a60 <g_589>
    b834:	83 e8 01             	sub    $0x1,%eax
    b837:	66 89 05 22 b2 00 00 	mov    %ax,0xb222(%rip)        # 16a60 <g_589>
    b83e:	0f b7 05 1d b2 00 00 	movzwl 0xb21d(%rip),%eax        # 16a62 <g_593>
    b845:	83 c0 01             	add    $0x1,%eax
    b848:	66 89 05 13 b2 00 00 	mov    %ax,0xb213(%rip)        # 16a62 <g_593>
    b84f:	48 8b 85 68 fd ff ff 	mov    -0x298(%rbp),%rax
    b856:	48 8b 4d f8          	mov    -0x8(%rbp),%rcx
    b85a:	64 48 33 0c 25 28 00 	xor    %fs:0x28,%rcx
    b861:	00 00 
    b863:	74 05                	je     b86a <func_65+0xd2>
    b865:	e8 06 98 ff ff       	callq  5070 <__stack_chk_fail@plt>
    b86a:	c9                   	leaveq 
    b86b:	c3                   	retq   

000000000000b86c <func_71>:
    b86c:	f3 0f 1e fa          	endbr64 
    b870:	55                   	push   %rbp
    b871:	48 89 e5             	mov    %rsp,%rbp
    b874:	41 57                	push   %r15
    b876:	41 56                	push   %r14
    b878:	41 55                	push   %r13
    b87a:	41 54                	push   %r12
    b87c:	53                   	push   %rbx
    b87d:	48 81 ec f8 04 00 00 	sub    $0x4f8,%rsp
    b884:	89 bd fc fa ff ff    	mov    %edi,-0x504(%rbp)
    b88a:	89 b5 f8 fa ff ff    	mov    %esi,-0x508(%rbp)
    b890:	89 c8                	mov    %ecx,%eax
    b892:	4c 89 85 e8 fa ff ff 	mov    %r8,-0x518(%rbp)
    b899:	88 95 f4 fa ff ff    	mov    %dl,-0x50c(%rbp)
    b89f:	66 89 85 f0 fa ff ff 	mov    %ax,-0x510(%rbp)
    b8a6:	64 48 8b 04 25 28 00 	mov    %fs:0x28,%rax
    b8ad:	00 00 
    b8af:	48 89 45 c8          	mov    %rax,-0x38(%rbp)
    b8b3:	31 c0                	xor    %eax,%eax
    b8b5:	48 8d 85 a0 fc ff ff 	lea    -0x360(%rbp),%rax
    b8bc:	48 83 c0 08          	add    $0x8,%rax
    b8c0:	48 89 85 a8 fb ff ff 	mov    %rax,-0x458(%rbp)
    b8c7:	48 8d 05 d2 e6 00 00 	lea    0xe6d2(%rip),%rax        # 19fa0 <g_191>
    b8ce:	48 89 85 50 fb ff ff 	mov    %rax,-0x4b0(%rbp)
    b8d5:	48 8d 85 50 fb ff ff 	lea    -0x4b0(%rbp),%rax
    b8dc:	48 89 85 58 fb ff ff 	mov    %rax,-0x4a8(%rbp)
    b8e3:	48 8d 05 16 b1 00 00 	lea    0xb116(%rip),%rax        # 16a00 <g_399>
    b8ea:	48 89 85 60 fb ff ff 	mov    %rax,-0x4a0(%rbp)
    b8f1:	c6 85 03 fb ff ff 06 	movb   $0x6,-0x4fd(%rbp)
    b8f8:	48 8d 85 80 fd ff ff 	lea    -0x280(%rbp),%rax
    b8ff:	48 8d 15 da 74 00 00 	lea    0x74da(%rip),%rdx        # 12de0 <g_1231+0xd88>
    b906:	b9 48 00 00 00       	mov    $0x48,%ecx
    b90b:	48 89 c7             	mov    %rax,%rdi
    b90e:	48 89 d6             	mov    %rdx,%rsi
    b911:	f3 48 a5             	rep movsq %ds:(%rsi),%es:(%rdi)
    b914:	48 c7 85 b0 fb ff ff 	movq   $0x9,-0x450(%rbp)
    b91b:	09 00 00 00 
    b91f:	48 8d 05 1a a7 00 00 	lea    0xa71a(%rip),%rax        # 16040 <g_2+0x10>
    b926:	48 89 85 b8 fb ff ff 	mov    %rax,-0x448(%rbp)
    b92d:	c7 85 10 fb ff ff 00 	movl   $0x0,-0x4f0(%rbp)
    b934:	00 00 00 
    b937:	eb 79                	jmp    b9b2 <func_71+0x146>
    b939:	c7 85 14 fb ff ff 00 	movl   $0x0,-0x4ec(%rbp)
    b940:	00 00 00 
    b943:	eb 5d                	jmp    b9a2 <func_71+0x136>
    b945:	c7 85 18 fb ff ff 00 	movl   $0x0,-0x4e8(%rbp)
    b94c:	00 00 00 
    b94f:	eb 41                	jmp    b992 <func_71+0x126>
    b951:	8b 85 18 fb ff ff    	mov    -0x4e8(%rbp),%eax
    b957:	48 63 f0             	movslq %eax,%rsi
    b95a:	8b 85 14 fb ff ff    	mov    -0x4ec(%rbp),%eax
    b960:	48 63 c8             	movslq %eax,%rcx
    b963:	8b 85 10 fb ff ff    	mov    -0x4f0(%rbp),%eax
    b969:	48 63 d0             	movslq %eax,%rdx
    b96c:	48 89 d0             	mov    %rdx,%rax
    b96f:	48 c1 e0 02          	shl    $0x2,%rax
    b973:	48 01 d0             	add    %rdx,%rax
    b976:	48 01 f0             	add    %rsi,%rax
    b979:	48 01 c8             	add    %rcx,%rax
    b97c:	48 8d 15 c9 a6 00 00 	lea    0xa6c9(%rip),%rdx        # 1604c <g_5>
    b983:	48 89 94 c5 a0 fc ff 	mov    %rdx,-0x360(%rbp,%rax,8)
    b98a:	ff 
    b98b:	83 85 18 fb ff ff 01 	addl   $0x1,-0x4e8(%rbp)
    b992:	83 bd 18 fb ff ff 00 	cmpl   $0x0,-0x4e8(%rbp)
    b999:	7e b6                	jle    b951 <func_71+0xe5>
    b99b:	83 85 14 fb ff ff 01 	addl   $0x1,-0x4ec(%rbp)
    b9a2:	83 bd 14 fb ff ff 04 	cmpl   $0x4,-0x4ec(%rbp)
    b9a9:	7e 9a                	jle    b945 <func_71+0xd9>
    b9ab:	83 85 10 fb ff ff 01 	addl   $0x1,-0x4f0(%rbp)
    b9b2:	83 bd 10 fb ff ff 00 	cmpl   $0x0,-0x4f0(%rbp)
    b9b9:	0f 8e 7a ff ff ff    	jle    b939 <func_71+0xcd>
    b9bf:	90                   	nop
    b9c0:	48 8b 85 b0 fc ff ff 	mov    -0x350(%rbp),%rax
    b9c7:	48 89 85 b0 fc ff ff 	mov    %rax,-0x350(%rbp)
    b9ce:	48 8d 05 77 a6 00 00 	lea    0xa677(%rip),%rax        # 1604c <g_5>
    b9d5:	48 89 85 b0 fc ff ff 	mov    %rax,-0x350(%rbp)
    b9dc:	48 8b 85 a8 fb ff ff 	mov    -0x458(%rbp),%rax
    b9e3:	48 8d 15 5a a6 00 00 	lea    0xa65a(%rip),%rdx        # 16044 <g_2+0x14>
    b9ea:	48 89 10             	mov    %rdx,(%rax)
    b9ed:	48 8b 95 58 fb ff ff 	mov    -0x4a8(%rbp),%rdx
    b9f4:	48 8d 85 50 fb ff ff 	lea    -0x4b0(%rbp),%rax
    b9fb:	48 39 c2             	cmp    %rax,%rdx
    b9fe:	0f 84 7c 11 00 00    	je     cb80 <func_71+0x1314>
    ba04:	48 8d 85 60 fb ff ff 	lea    -0x4a0(%rbp),%rax
    ba0b:	48 89 85 68 fb ff ff 	mov    %rax,-0x498(%rbp)
    ba12:	48 8d 05 e7 af 00 00 	lea    0xafe7(%rip),%rax        # 16a00 <g_399>
    ba19:	48 89 85 70 fb ff ff 	mov    %rax,-0x490(%rbp)
    ba20:	48 8d 85 70 fb ff ff 	lea    -0x490(%rbp),%rax
    ba27:	48 89 85 c0 fb ff ff 	mov    %rax,-0x440(%rbp)
    ba2e:	c7 85 08 fb ff ff 67 	movl   $0xadb77967,-0x4f8(%rbp)
    ba35:	79 b7 ad 
    ba38:	66 c7 85 04 fb ff ff 	movw   $0x8fc4,-0x4fc(%rbp)
    ba3f:	c4 8f 
    ba41:	48 c7 85 c8 fb ff ff 	movq   $0x0,-0x438(%rbp)
    ba48:	00 00 00 00 
    ba4c:	c7 85 0c fb ff ff 05 	movl   $0x5,-0x4f4(%rbp)
    ba53:	00 00 00 
    ba56:	48 8d 05 13 a6 00 00 	lea    0xa613(%rip),%rax        # 16070 <g_106>
    ba5d:	48 89 85 78 fb ff ff 	mov    %rax,-0x488(%rbp)
    ba64:	48 8d 85 78 fb ff ff 	lea    -0x488(%rbp),%rax
    ba6b:	48 89 85 d0 fb ff ff 	mov    %rax,-0x430(%rbp)
    ba72:	c7 85 3c fb ff ff ff 	movl   $0xffffffff,-0x4c4(%rbp)
    ba79:	ff ff ff 
    ba7c:	c7 85 1c fb ff ff 00 	movl   $0x0,-0x4e4(%rbp)
    ba83:	00 00 00 
    ba86:	eb 1a                	jmp    baa2 <func_71+0x236>
    ba88:	8b 85 1c fb ff ff    	mov    -0x4e4(%rbp),%eax
    ba8e:	48 98                	cltq   
    ba90:	c7 84 85 78 fc ff ff 	movl   $0x3c634273,-0x388(%rbp,%rax,4)
    ba97:	73 42 63 3c 
    ba9b:	83 85 1c fb ff ff 01 	addl   $0x1,-0x4e4(%rbp)
    baa2:	83 bd 1c fb ff ff 00 	cmpl   $0x0,-0x4e4(%rbp)
    baa9:	7e dd                	jle    ba88 <func_71+0x21c>
    baab:	c7 85 1c fb ff ff 00 	movl   $0x0,-0x4e4(%rbp)
    bab2:	00 00 00 
    bab5:	eb 1e                	jmp    bad5 <func_71+0x269>
    bab7:	8b 85 1c fb ff ff    	mov    -0x4e4(%rbp),%eax
    babd:	48 98                	cltq   
    babf:	48 8d 95 78 fb ff ff 	lea    -0x488(%rbp),%rdx
    bac6:	48 89 94 c5 80 fc ff 	mov    %rdx,-0x380(%rbp,%rax,8)
    bacd:	ff 
    bace:	83 85 1c fb ff ff 01 	addl   $0x1,-0x4e4(%rbp)
    bad5:	83 bd 1c fb ff ff 02 	cmpl   $0x2,-0x4e4(%rbp)
    badc:	7e d9                	jle    bab7 <func_71+0x24b>
    bade:	90                   	nop
    badf:	8b 85 78 fc ff ff    	mov    -0x388(%rbp),%eax
    bae5:	83 f0 01             	xor    $0x1,%eax
    bae8:	89 85 78 fc ff ff    	mov    %eax,-0x388(%rbp)
    baee:	48 8b 85 68 fb ff ff 	mov    -0x498(%rbp),%rax
    baf5:	48 8b 95 60 fb ff ff 	mov    -0x4a0(%rbp),%rdx
    bafc:	48 89 10             	mov    %rdx,(%rax)
    baff:	48 8b 10             	mov    (%rax),%rdx
    bb02:	48 8b 85 c0 fb ff ff 	mov    -0x440(%rbp),%rax
    bb09:	48 89 10             	mov    %rdx,(%rax)
    bb0c:	c7 05 9e ae 00 00 00 	movl   $0x0,0xae9e(%rip)        # 169b4 <g_354>
    bb13:	00 00 00 
    bb16:	e9 45 10 00 00       	jmpq   cb60 <func_71+0x12f4>
    bb1b:	c7 85 20 fb ff ff fd 	movl   $0xfffffffd,-0x4e0(%rbp)
    bb22:	ff ff ff 
    bb25:	48 8d 85 08 fb ff ff 	lea    -0x4f8(%rbp),%rax
    bb2c:	48 89 85 d8 fb ff ff 	mov    %rax,-0x428(%rbp)
    bb33:	48 8d 85 78 fb ff ff 	lea    -0x488(%rbp),%rax
    bb3a:	48 89 85 80 fb ff ff 	mov    %rax,-0x480(%rbp)
    bb41:	48 8d 85 68 fb ff ff 	lea    -0x498(%rbp),%rax
    bb48:	48 89 85 e0 fb ff ff 	mov    %rax,-0x420(%rbp)
    bb4f:	c7 85 24 fb ff ff 00 	movl   $0x0,-0x4dc(%rbp)
    bb56:	00 00 00 
    bb59:	eb 1a                	jmp    bb75 <func_71+0x309>
    bb5b:	8b 85 24 fb ff ff    	mov    -0x4dc(%rbp),%eax
    bb61:	48 98                	cltq   
    bb63:	c7 84 85 d0 fc ff ff 	movl   $0xb708064e,-0x330(%rbp,%rax,4)
    bb6a:	4e 06 08 b7 
    bb6e:	83 85 24 fb ff ff 01 	addl   $0x1,-0x4dc(%rbp)
    bb75:	83 bd 24 fb ff ff 09 	cmpl   $0x9,-0x4dc(%rbp)
    bb7c:	7e dd                	jle    bb5b <func_71+0x2ef>
    bb7e:	c7 05 18 a7 00 00 00 	movl   $0x0,0xa718(%rip)        # 162a0 <g_144>
    bb85:	00 00 00 
    bb88:	e9 1f 01 00 00       	jmpq   bcac <func_71+0x440>
    bb8d:	48 8d 05 1c ae 00 00 	lea    0xae1c(%rip),%rax        # 169b0 <g_334>
    bb94:	48 89 85 70 fc ff ff 	mov    %rax,-0x390(%rbp)
    bb9b:	c7 85 4c fb ff ff ff 	movl   $0xffffffff,-0x4b4(%rbp)
    bba2:	ff ff ff 
    bba5:	8b 05 f5 a6 00 00    	mov    0xa6f5(%rip),%eax        # 162a0 <g_144>
    bbab:	89 c0                	mov    %eax,%eax
    bbad:	8b 84 85 78 fc ff ff 	mov    -0x388(%rbp,%rax,4),%eax
    bbb4:	3d fe 00 00 00       	cmp    $0xfe,%eax
    bbb9:	0f 96 c0             	setbe  %al
    bbbc:	0f b6 c0             	movzbl %al,%eax
    bbbf:	89 05 47 ad 00 00    	mov    %eax,0xad47(%rip)        # 1690c <g_181>
    bbc5:	8b 05 d5 a6 00 00    	mov    0xa6d5(%rip),%eax        # 162a0 <g_144>
    bbcb:	85 c0                	test   %eax,%eax
    bbcd:	74 05                	je     bbd4 <func_71+0x368>
    bbcf:	e9 1a ff ff ff       	jmpq   baee <func_71+0x282>
    bbd4:	8b 85 08 fb ff ff    	mov    -0x4f8(%rbp),%eax
    bbda:	0f b7 c0             	movzwl %ax,%eax
    bbdd:	89 c7                	mov    %eax,%edi
    bbdf:	e8 05 a1 ff ff       	callq  5ce9 <safe_unary_minus_func_uint16_t_u>
    bbe4:	66 85 c0             	test   %ax,%ax
    bbe7:	0f 95 c0             	setne  %al
    bbea:	0f b6 c0             	movzbl %al,%eax
    bbed:	89 85 20 fb ff ff    	mov    %eax,-0x4e0(%rbp)
    bbf3:	8b 85 20 fb ff ff    	mov    -0x4e0(%rbp),%eax
    bbf9:	89 c2                	mov    %eax,%edx
    bbfb:	48 8b 85 70 fc ff ff 	mov    -0x390(%rbp),%rax
    bc02:	66 89 10             	mov    %dx,(%rax)
    bc05:	48 8b 85 70 fc ff ff 	mov    -0x390(%rbp),%rax
    bc0c:	0f b7 00             	movzwl (%rax),%eax
    bc0f:	0f b7 d8             	movzwl %ax,%ebx
    bc12:	8b 05 f4 a7 00 00    	mov    0xa7f4(%rip),%eax        # 1640c <g_164>
    bc18:	89 c0                	mov    %eax,%eax
    bc1a:	48 89 c6             	mov    %rax,%rsi
    bc1d:	bf 01 00 00 00       	mov    $0x1,%edi
    bc22:	e8 07 a4 ff ff       	callq  602e <safe_add_func_uint64_t_u_u>
    bc27:	48 85 c0             	test   %rax,%rax
    bc2a:	0f 95 c0             	setne  %al
    bc2d:	0f b6 d0             	movzbl %al,%edx
    bc30:	0f b7 05 39 a4 00 00 	movzwl 0xa439(%rip),%eax        # 16070 <g_106>
    bc37:	98                   	cwtl   
    bc38:	39 c2                	cmp    %eax,%edx
    bc3a:	0f 9f c0             	setg   %al
    bc3d:	0f b6 c0             	movzbl %al,%eax
    bc40:	09 d8                	or     %ebx,%eax
    bc42:	89 85 4c fb ff ff    	mov    %eax,-0x4b4(%rbp)
    bc48:	48 8b 85 a8 fb ff ff 	mov    -0x458(%rbp),%rax
    bc4f:	48 8d 15 f6 a3 00 00 	lea    0xa3f6(%rip),%rdx        # 1604c <g_5>
    bc56:	48 89 10             	mov    %rdx,(%rax)
    bc59:	c7 05 c1 a6 00 00 00 	movl   $0x0,0xa6c1(%rip)        # 16324 <g_148>
    bc60:	00 00 00 
    bc63:	eb 27                	jmp    bc8c <func_71+0x420>
    bc65:	0f b7 85 04 fb ff ff 	movzwl -0x4fc(%rbp),%eax
    bc6c:	66 85 c0             	test   %ax,%ax
    bc6f:	75 28                	jne    bc99 <func_71+0x42d>
    bc71:	0f b7 05 06 a4 00 00 	movzwl 0xa406(%rip),%eax        # 1607e <g_106+0xe>
    bc78:	66 85 c0             	test   %ax,%ax
    bc7b:	75 1f                	jne    bc9c <func_71+0x430>
    bc7d:	8b 05 a1 a6 00 00    	mov    0xa6a1(%rip),%eax        # 16324 <g_148>
    bc83:	83 c0 01             	add    $0x1,%eax
    bc86:	89 05 98 a6 00 00    	mov    %eax,0xa698(%rip)        # 16324 <g_148>
    bc8c:	8b 05 92 a6 00 00    	mov    0xa692(%rip),%eax        # 16324 <g_148>
    bc92:	83 f8 02             	cmp    $0x2,%eax
    bc95:	76 ce                	jbe    bc65 <func_71+0x3f9>
    bc97:	eb 04                	jmp    bc9d <func_71+0x431>
    bc99:	90                   	nop
    bc9a:	eb 01                	jmp    bc9d <func_71+0x431>
    bc9c:	90                   	nop
    bc9d:	8b 05 fd a5 00 00    	mov    0xa5fd(%rip),%eax        # 162a0 <g_144>
    bca3:	83 c0 01             	add    $0x1,%eax
    bca6:	89 05 f4 a5 00 00    	mov    %eax,0xa5f4(%rip)        # 162a0 <g_144>
    bcac:	8b 05 ee a5 00 00    	mov    0xa5ee(%rip),%eax        # 162a0 <g_144>
    bcb2:	85 c0                	test   %eax,%eax
    bcb4:	0f 84 d3 fe ff ff    	je     bb8d <func_71+0x321>
    bcba:	66 c7 05 ed ac 00 00 	movw   $0x0,0xaced(%rip)        # 169b0 <g_334>
    bcc1:	00 00 
    bcc3:	e9 78 0e 00 00       	jmpq   cb40 <func_71+0x12d4>
    bcc8:	c7 85 28 fb ff ff 00 	movl   $0x0,-0x4d8(%rbp)
    bccf:	00 00 00 
    bcd2:	48 8d 05 3f ac 00 00 	lea    0xac3f(%rip),%rax        # 16918 <g_233>
    bcd9:	48 89 85 e8 fb ff ff 	mov    %rax,-0x418(%rbp)
    bce0:	c7 85 2c fb ff ff 00 	movl   $0x0,-0x4d4(%rbp)
    bce7:	00 00 00 
    bcea:	eb 1a                	jmp    bd06 <func_71+0x49a>
    bcec:	8b 85 2c fb ff ff    	mov    -0x4d4(%rbp),%eax
    bcf2:	48 98                	cltq   
    bcf4:	c7 84 85 7c fc ff ff 	movl   $0x6,-0x384(%rbp,%rax,4)
    bcfb:	06 00 00 00 
    bcff:	83 85 2c fb ff ff 01 	addl   $0x1,-0x4d4(%rbp)
    bd06:	83 bd 2c fb ff ff 00 	cmpl   $0x0,-0x4d4(%rbp)
    bd0d:	7e dd                	jle    bcec <func_71+0x480>
    bd0f:	c7 05 fb ab 00 00 00 	movl   $0x0,0xabfb(%rip)        # 16914 <g_202>
    bd16:	00 00 00 
    bd19:	e9 cf 08 00 00       	jmpq   c5ed <func_71+0xd81>
    bd1e:	48 8d 05 b3 ea 00 00 	lea    0xeab3(%rip),%rax        # 1a7d8 <g_210>
    bd25:	48 89 85 10 fc ff ff 	mov    %rax,-0x3f0(%rbp)
    bd2c:	c7 85 48 fb ff ff fd 	movl   $0xfffffffd,-0x4b8(%rbp)
    bd33:	ff ff ff 
    bd36:	48 8d 05 db ab 00 00 	lea    0xabdb(%rip),%rax        # 16918 <g_233>
    bd3d:	48 89 85 88 fb ff ff 	mov    %rax,-0x478(%rbp)
    bd44:	48 8d 05 05 a3 00 00 	lea    0xa305(%rip),%rax        # 16050 <g_24>
    bd4b:	48 89 85 18 fc ff ff 	mov    %rax,-0x3e8(%rbp)
    bd52:	48 8d 05 e9 ab 00 00 	lea    0xabe9(%rip),%rax        # 16942 <g_326+0x22>
    bd59:	48 89 85 20 fc ff ff 	mov    %rax,-0x3e0(%rbp)
    bd60:	8b 05 5e ac 00 00    	mov    0xac5e(%rip),%eax        # 169c4 <g_375+0x4>
    bd66:	41 89 c6             	mov    %eax,%r14d
    bd69:	be 02 00 00 00       	mov    $0x2,%esi
    bd6e:	bf 4d f5 ff ff       	mov    $0xfffff54d,%edi
    bd73:	e8 b2 97 ff ff       	callq  552a <safe_rshift_func_int16_t_s_s>
    bd78:	4c 0f bf e0          	movswq %ax,%r12
    bd7c:	8b 9d f8 fa ff ff    	mov    -0x508(%rbp),%ebx
    bd82:	48 8b 85 10 fc ff ff 	mov    -0x3f0(%rbp),%rax
    bd89:	48 c7 00 fc ff ff ff 	movq   $0xfffffffffffffffc,(%rax)
    bd90:	48 8b 85 10 fc ff ff 	mov    -0x3f0(%rbp),%rax
    bd97:	4c 8b 28             	mov    (%rax),%r13
    bd9a:	8b 85 f8 fa ff ff    	mov    -0x508(%rbp),%eax
    bda0:	be 01 00 00 00       	mov    $0x1,%esi
    bda5:	89 c7                	mov    %eax,%edi
    bda7:	e8 0a 98 ff ff       	callq  55b6 <safe_add_func_int32_t_s_s>
    bdac:	48 98                	cltq   
    bdae:	4c 31 e8             	xor    %r13,%rax
    bdb1:	be 01 00 00 00       	mov    $0x1,%esi
    bdb6:	48 89 c7             	mov    %rax,%rdi
    bdb9:	e8 c2 a2 ff ff       	callq  6080 <safe_mod_func_uint64_t_u_u>
    bdbe:	98                   	cwtl   
    bdbf:	8b 95 48 fb ff ff    	mov    -0x4b8(%rbp),%edx
    bdc5:	89 d6                	mov    %edx,%esi
    bdc7:	89 c7                	mov    %eax,%edi
    bdc9:	e8 5c 97 ff ff       	callq  552a <safe_rshift_func_int16_t_s_s>
    bdce:	66 85 c0             	test   %ax,%ax
    bdd1:	75 09                	jne    bddc <func_71+0x570>
    bdd3:	83 bd 48 fb ff ff 00 	cmpl   $0x0,-0x4b8(%rbp)
    bdda:	74 07                	je     bde3 <func_71+0x577>
    bddc:	b8 01 00 00 00       	mov    $0x1,%eax
    bde1:	eb 05                	jmp    bde8 <func_71+0x57c>
    bde3:	b8 00 00 00 00       	mov    $0x0,%eax
    bde8:	48 98                	cltq   
    bdea:	48 89 de             	mov    %rbx,%rsi
    bded:	48 89 c7             	mov    %rax,%rdi
    bdf0:	e8 39 a2 ff ff       	callq  602e <safe_add_func_uint64_t_u_u>
    bdf5:	48 89 c2             	mov    %rax,%rdx
    bdf8:	48 8b 85 58 fb ff ff 	mov    -0x4a8(%rbp),%rax
    bdff:	48 8b 00             	mov    (%rax),%rax
    be02:	48 8b 00             	mov    (%rax),%rax
    be05:	88 10                	mov    %dl,(%rax)
    be07:	0f b6 00             	movzbl (%rax),%eax
    be0a:	0f be c0             	movsbl %al,%eax
    be0d:	f7 d0                	not    %eax
    be0f:	48 98                	cltq   
    be11:	25 ec 00 00 00       	and    $0xec,%eax
    be16:	4c 89 e2             	mov    %r12,%rdx
    be19:	48 31 c2             	xor    %rax,%rdx
    be1c:	0f b6 85 f4 fa ff ff 	movzbl -0x50c(%rbp),%eax
    be23:	48 39 c2             	cmp    %rax,%rdx
    be26:	0f 9e c2             	setle  %dl
    be29:	48 8b 85 88 fb ff ff 	mov    -0x478(%rbp),%rax
    be30:	0f b6 d2             	movzbl %dl,%edx
    be33:	66 89 10             	mov    %dx,(%rax)
    be36:	0f b7 00             	movzwl (%rax),%eax
    be39:	f7 d0                	not    %eax
    be3b:	98                   	cwtl   
    be3c:	44 89 f6             	mov    %r14d,%esi
    be3f:	89 c7                	mov    %eax,%edi
    be41:	e8 9b 96 ff ff       	callq  54e1 <safe_lshift_func_int16_t_s_u>
    be46:	0f bf d0             	movswl %ax,%edx
    be49:	8b 85 7c fc ff ff    	mov    -0x384(%rbp),%eax
    be4f:	39 c2                	cmp    %eax,%edx
    be51:	0f 97 c0             	seta   %al
    be54:	89 c2                	mov    %eax,%edx
    be56:	8b 85 48 fb ff ff    	mov    -0x4b8(%rbp),%eax
    be5c:	21 d0                	and    %edx,%eax
    be5e:	0f be c0             	movsbl %al,%eax
    be61:	be 06 00 00 00       	mov    $0x6,%esi
    be66:	89 c7                	mov    %eax,%edi
    be68:	e8 81 94 ff ff       	callq  52ee <safe_lshift_func_int8_t_s_u>
    be6d:	0f be d0             	movsbl %al,%edx
    be70:	8b 85 08 fb ff ff    	mov    -0x4f8(%rbp),%eax
    be76:	39 c2                	cmp    %eax,%edx
    be78:	0f 97 c0             	seta   %al
    be7b:	0f b6 d0             	movzbl %al,%edx
    be7e:	0f b7 85 f0 fa ff ff 	movzwl -0x510(%rbp),%eax
    be85:	98                   	cwtl   
    be86:	39 c2                	cmp    %eax,%edx
    be88:	0f 9f c0             	setg   %al
    be8b:	0f b6 d0             	movzbl %al,%edx
    be8e:	8b 85 7c fc ff ff    	mov    -0x384(%rbp),%eax
    be94:	31 d0                	xor    %edx,%eax
    be96:	35 ff ff 00 00       	xor    $0xffff,%eax
    be9b:	83 f8 3b             	cmp    $0x3b,%eax
    be9e:	0f 97 c0             	seta   %al
    bea1:	0f b6 d0             	movzbl %al,%edx
    bea4:	0f b6 85 03 fb ff ff 	movzbl -0x4fd(%rbp),%eax
    beab:	0f b6 c0             	movzbl %al,%eax
    beae:	39 c2                	cmp    %eax,%edx
    beb0:	0f 95 c0             	setne  %al
    beb3:	0f b6 c0             	movzbl %al,%eax
    beb6:	f7 d0                	not    %eax
    beb8:	89 85 48 fb ff ff    	mov    %eax,-0x4b8(%rbp)
    bebe:	c7 05 44 a5 00 00 00 	movl   $0x0,0xa544(%rip)        # 1640c <g_164>
    bec5:	00 00 00 
    bec8:	90                   	nop
    bec9:	8b 05 3d a5 00 00    	mov    0xa53d(%rip),%eax        # 1640c <g_164>
    becf:	83 f8 02             	cmp    $0x2,%eax
    bed2:	77 1e                	ja     bef2 <func_71+0x686>
    bed4:	8b 05 3a aa 00 00    	mov    0xaa3a(%rip),%eax        # 16914 <g_202>
    beda:	83 c0 01             	add    $0x1,%eax
    bedd:	89 c2                	mov    %eax,%edx
    bedf:	48 8d 05 a2 a1 00 00 	lea    0xa1a2(%rip),%rax        # 16088 <g_124>
    bee6:	0f b6 04 02          	movzbl (%rdx,%rax,1),%eax
    beea:	0f be c0             	movsbl %al,%eax
    beed:	e9 0a 0d 00 00       	jmpq   cbfc <func_71+0x1390>
    bef2:	c7 05 04 a5 00 00 00 	movl   $0x0,0xa504(%rip)        # 16400 <g_161>
    bef9:	00 00 00 
    befc:	e9 b8 00 00 00       	jmpq   bfb9 <func_71+0x74d>
    bf01:	0f b7 05 a8 aa 00 00 	movzwl 0xaaa8(%rip),%eax        # 169b0 <g_334>
    bf08:	0f b7 c0             	movzwl %ax,%eax
    bf0b:	0f b7 15 9e aa 00 00 	movzwl 0xaa9e(%rip),%edx        # 169b0 <g_334>
    bf12:	0f b7 d2             	movzwl %dx,%edx
    bf15:	8d 4a 02             	lea    0x2(%rdx),%ecx
    bf18:	8b 15 96 aa 00 00    	mov    0xaa96(%rip),%edx        # 169b4 <g_354>
    bf1e:	89 d6                	mov    %edx,%esi
    bf20:	48 63 d0             	movslq %eax,%rdx
    bf23:	48 89 d0             	mov    %rdx,%rax
    bf26:	48 c1 e0 03          	shl    $0x3,%rax
    bf2a:	48 01 d0             	add    %rdx,%rax
    bf2d:	48 8d 14 c5 00 00 00 	lea    0x0(,%rax,8),%rdx
    bf34:	00 
    bf35:	48 01 d0             	add    %rdx,%rax
    bf38:	48 63 c9             	movslq %ecx,%rcx
    bf3b:	48 89 ca             	mov    %rcx,%rdx
    bf3e:	48 c1 e2 03          	shl    $0x3,%rdx
    bf42:	48 01 ca             	add    %rcx,%rdx
    bf45:	48 01 d0             	add    %rdx,%rax
    bf48:	48 01 f0             	add    %rsi,%rax
    bf4b:	48 8d 14 85 00 00 00 	lea    0x0(,%rax,4),%rdx
    bf52:	00 
    bf53:	48 8d 05 e6 a5 00 00 	lea    0xa5e6(%rip),%rax        # 16540 <g_174>
    bf5a:	48 01 d0             	add    %rdx,%rax
    bf5d:	48 39 85 c8 fb ff ff 	cmp    %rax,-0x438(%rbp)
    bf64:	0f 95 c0             	setne  %al
    bf67:	0f b6 d0             	movzbl %al,%edx
    bf6a:	8b 85 fc fa ff ff    	mov    -0x504(%rbp),%eax
    bf70:	39 c2                	cmp    %eax,%edx
    bf72:	0f 9d c0             	setge  %al
    bf75:	0f b6 c0             	movzbl %al,%eax
    bf78:	89 05 9e aa 00 00    	mov    %eax,0xaa9e(%rip)        # 16a1c <g_436>
    bf7e:	c7 85 0c fb ff ff 05 	movl   $0x5,-0x4f4(%rbp)
    bf85:	00 00 00 
    bf88:	48 8b 85 a8 fb ff ff 	mov    -0x458(%rbp),%rax
    bf8f:	48 8d 15 a6 a0 00 00 	lea    0xa0a6(%rip),%rdx        # 1603c <g_2+0xc>
    bf96:	48 89 10             	mov    %rdx,(%rax)
    bf99:	48 8b 85 a8 fb ff ff 	mov    -0x458(%rbp),%rax
    bfa0:	48 8b 00             	mov    (%rax),%rax
    bfa3:	48 89 05 16 e8 00 00 	mov    %rax,0xe816(%rip)        # 1a7c0 <g_127>
    bfaa:	8b 05 50 a4 00 00    	mov    0xa450(%rip),%eax        # 16400 <g_161>
    bfb0:	83 c0 01             	add    $0x1,%eax
    bfb3:	89 05 47 a4 00 00    	mov    %eax,0xa447(%rip)        # 16400 <g_161>
    bfb9:	8b 05 41 a4 00 00    	mov    0xa441(%rip),%eax        # 16400 <g_161>
    bfbf:	83 f8 02             	cmp    $0x2,%eax
    bfc2:	0f 86 39 ff ff ff    	jbe    bf01 <func_71+0x695>
    bfc8:	8b 05 7e a0 00 00    	mov    0xa07e(%rip),%eax        # 1604c <g_5>
    bfce:	25 ff ff ff 00       	and    $0xffffff,%eax
    bfd3:	25 ff ff ff 00       	and    $0xffffff,%eax
    bfd8:	89 c2                	mov    %eax,%edx
    bfda:	8b 05 34 aa 00 00    	mov    0xaa34(%rip),%eax        # 16a14 <g_399+0x14>
    bfe0:	25 00 00 00 ff       	and    $0xff000000,%eax
    bfe5:	09 d0                	or     %edx,%eax
    bfe7:	89 05 27 aa 00 00    	mov    %eax,0xaa27(%rip)        # 16a14 <g_399+0x14>
    bfed:	be 3e 5f 00 00       	mov    $0x5f3e,%esi
    bff2:	bf 05 00 00 00       	mov    $0x5,%edi
    bff7:	e8 41 9d ff ff       	callq  5d3d <safe_mul_func_uint16_t_u_u>
    bffc:	44 0f b7 e8          	movzwl %ax,%r13d
    c000:	44 8b b5 20 fb ff ff 	mov    -0x4e0(%rbp),%r14d
    c007:	8b 85 fc fa ff ff    	mov    -0x504(%rbp),%eax
    c00d:	41 89 c7             	mov    %eax,%r15d
    c010:	8b 85 0c fb ff ff    	mov    -0x4f4(%rbp),%eax
    c016:	0f bf d8             	movswl %ax,%ebx
    c019:	8b 85 0c fb ff ff    	mov    -0x4f4(%rbp),%eax
    c01f:	89 c2                	mov    %eax,%edx
    c021:	8b 85 08 fb ff ff    	mov    -0x4f8(%rbp),%eax
    c027:	31 d0                	xor    %edx,%eax
    c029:	3d ea 93 00 00       	cmp    $0x93ea,%eax
    c02e:	0f 96 c0             	setbe  %al
    c031:	44 0f b6 e0          	movzbl %al,%r12d
    c035:	48 8b 85 18 fc ff ff 	mov    -0x3e8(%rbp),%rax
    c03c:	0f b6 00             	movzbl (%rax),%eax
    c03f:	8d 50 01             	lea    0x1(%rax),%edx
    c042:	48 8b 85 18 fc ff ff 	mov    -0x3e8(%rbp),%rax
    c049:	88 10                	mov    %dl,(%rax)
    c04b:	48 8b 85 18 fc ff ff 	mov    -0x3e8(%rbp),%rax
    c052:	0f b6 00             	movzbl (%rax),%eax
    c055:	0f b6 c0             	movzbl %al,%eax
    c058:	be 00 00 00 00       	mov    $0x0,%esi
    c05d:	89 c7                	mov    %eax,%edi
    c05f:	e8 5a 9c ff ff       	callq  5cbe <safe_rshift_func_uint8_t_u_u>
    c064:	0f b6 d0             	movzbl %al,%edx
    c067:	48 8b 85 20 fc ff ff 	mov    -0x3e0(%rbp),%rax
    c06e:	66 89 10             	mov    %dx,(%rax)
    c071:	48 8b 85 20 fc ff ff 	mov    -0x3e0(%rbp),%rax
    c078:	0f b7 00             	movzwl (%rax),%eax
    c07b:	66 3d 65 51          	cmp    $0x5165,%ax
    c07f:	0f 9e c0             	setle  %al
    c082:	0f b6 c0             	movzbl %al,%eax
    c085:	4c 89 e6             	mov    %r12,%rsi
    c088:	48 89 c7             	mov    %rax,%rdi
    c08b:	e8 18 98 ff ff       	callq  58a8 <safe_sub_func_int64_t_s_s>
    c090:	83 bd 48 fb ff ff 00 	cmpl   $0x0,-0x4b8(%rbp)
    c097:	74 0d                	je     c0a6 <func_71+0x83a>
    c099:	8b 05 65 a9 00 00    	mov    0xa965(%rip),%eax        # 16a04 <g_399+0x4>
    c09f:	25 ff ff ff 1f       	and    $0x1fffffff,%eax
    c0a4:	85 c0                	test   %eax,%eax
    c0a6:	8b 85 20 fb ff ff    	mov    -0x4e0(%rbp),%eax
    c0ac:	48 83 f0 f7          	xor    $0xfffffffffffffff7,%rax
    c0b0:	48 89 c2             	mov    %rax,%rdx
    c0b3:	48 b8 58 33 72 20 80 	movabs $0x14e21d8020723358,%rax
    c0ba:	1d e2 14 
    c0bd:	48 39 c2             	cmp    %rax,%rdx
    c0c0:	0f 9f c0             	setg   %al
    c0c3:	0f b6 c0             	movzbl %al,%eax
    c0c6:	89 de                	mov    %ebx,%esi
    c0c8:	89 c7                	mov    %eax,%edi
    c0ca:	e8 e4 92 ff ff       	callq  53b3 <safe_add_func_int16_t_s_s>
    c0cf:	0f bf d0             	movswl %ax,%edx
    c0d2:	8b 05 14 a3 00 00    	mov    0xa314(%rip),%eax        # 163ec <g_155>
    c0d8:	89 d6                	mov    %edx,%esi
    c0da:	89 c7                	mov    %eax,%edi
    c0dc:	e8 1c 9e ff ff       	callq  5efd <safe_mod_func_uint32_t_u_u>
    c0e1:	0f b7 c0             	movzwl %ax,%eax
    c0e4:	be 01 00 00 00       	mov    $0x1,%esi
    c0e9:	89 c7                	mov    %eax,%edi
    c0eb:	e8 8a 9d ff ff       	callq  5e7a <safe_rshift_func_uint16_t_u_u>
    c0f0:	0f b7 d0             	movzwl %ax,%edx
    c0f3:	48 8b 05 a6 de 00 00 	mov    0xdea6(%rip),%rax        # 19fa0 <g_191>
    c0fa:	0f b6 00             	movzbl (%rax),%eax
    c0fd:	0f be c0             	movsbl %al,%eax
    c100:	39 c2                	cmp    %eax,%edx
    c102:	0f 9c c0             	setl   %al
    c105:	0f b6 c0             	movzbl %al,%eax
    c108:	45 89 f0             	mov    %r14d,%r8d
    c10b:	44 89 f9             	mov    %r15d,%ecx
    c10e:	48 89 c2             	mov    %rax,%rdx
    c111:	48 8d 35 90 e6 00 00 	lea    0xe690(%rip),%rsi        # 1a7a8 <g_96>
    c118:	48 8d 3d 89 e6 00 00 	lea    0xe689(%rip),%rdi        # 1a7a8 <g_96>
    c11f:	e8 ca f5 ff ff       	callq  b6ee <func_45>
    c124:	48 39 85 d8 fb ff ff 	cmp    %rax,-0x428(%rbp)
    c12b:	0f 94 c0             	sete   %al
    c12e:	0f b6 c0             	movzbl %al,%eax
    c131:	39 85 20 fb ff ff    	cmp    %eax,-0x4e0(%rbp)
    c137:	0f 95 c0             	setne  %al
    c13a:	0f b6 c0             	movzbl %al,%eax
    c13d:	41 39 c5             	cmp    %eax,%r13d
    c140:	0f 8c 50 03 00 00    	jl     c496 <func_71+0xc2a>
    c146:	48 8d 85 03 fb ff ff 	lea    -0x4fd(%rbp),%rax
    c14d:	48 89 85 48 fc ff ff 	mov    %rax,-0x3b8(%rbp)
    c154:	48 8d 85 58 fb ff ff 	lea    -0x4a8(%rbp),%rax
    c15b:	48 89 85 90 fb ff ff 	mov    %rax,-0x470(%rbp)
    c162:	48 8d 85 90 fb ff ff 	lea    -0x470(%rbp),%rax
    c169:	48 89 85 50 fc ff ff 	mov    %rax,-0x3b0(%rbp)
    c170:	48 8d 85 04 fb ff ff 	lea    -0x4fc(%rbp),%rax
    c177:	48 89 85 98 fb ff ff 	mov    %rax,-0x468(%rbp)
    c17e:	48 8d 85 98 fb ff ff 	lea    -0x468(%rbp),%rax
    c185:	48 89 85 58 fc ff ff 	mov    %rax,-0x3a8(%rbp)
    c18c:	48 8d 05 51 a8 00 00 	lea    0xa851(%rip),%rax        # 169e4 <g_375+0x24>
    c193:	48 89 85 a0 fb ff ff 	mov    %rax,-0x460(%rbp)
    c19a:	48 8d 85 a0 fb ff ff 	lea    -0x460(%rbp),%rax
    c1a1:	48 89 85 60 fc ff ff 	mov    %rax,-0x3a0(%rbp)
    c1a8:	48 8d 85 68 fb ff ff 	lea    -0x498(%rbp),%rax
    c1af:	48 89 85 68 fc ff ff 	mov    %rax,-0x398(%rbp)
    c1b6:	8b 05 50 a2 00 00    	mov    0xa250(%rip),%eax        # 1640c <g_164>
    c1bc:	85 c0                	test   %eax,%eax
    c1be:	74 05                	je     c1c5 <func_71+0x959>
    c1c0:	e9 1a f9 ff ff       	jmpq   badf <func_71+0x273>
    c1c5:	0f b7 85 f0 fa ff ff 	movzwl -0x510(%rbp),%eax
    c1cc:	0f b6 d0             	movzbl %al,%edx
    c1cf:	8b 05 7f a1 00 00    	mov    0xa17f(%rip),%eax        # 16354 <g_153+0x14>
    c1d5:	85 c0                	test   %eax,%eax
    c1d7:	75 13                	jne    c1ec <func_71+0x980>
    c1d9:	0f b7 85 f0 fa ff ff 	movzwl -0x510(%rbp),%eax
    c1e0:	0f bf c8             	movswl %ax,%ecx
    c1e3:	0f b6 85 f4 fa ff ff 	movzbl -0x50c(%rbp),%eax
    c1ea:	39 c1                	cmp    %eax,%ecx
    c1ec:	48 8b 85 48 fc ff ff 	mov    -0x3b8(%rbp),%rax
    c1f3:	c6 00 2f             	movb   $0x2f,(%rax)
    c1f6:	48 8b 85 48 fc ff ff 	mov    -0x3b8(%rbp),%rax
    c1fd:	0f b6 00             	movzbl (%rax),%eax
    c200:	0f b6 c0             	movzbl %al,%eax
    c203:	89 d6                	mov    %edx,%esi
    c205:	89 c7                	mov    %eax,%edi
    c207:	e8 4e 99 ff ff       	callq  5b5a <safe_add_func_uint8_t_u_u>
    c20c:	48 8b 85 18 fc ff ff 	mov    -0x3e8(%rbp),%rax
    c213:	0f b6 00             	movzbl (%rax),%eax
    c216:	8d 50 01             	lea    0x1(%rax),%edx
    c219:	48 8b 85 18 fc ff ff 	mov    -0x3e8(%rbp),%rax
    c220:	88 10                	mov    %dl,(%rax)
    c222:	48 8b 85 18 fc ff ff 	mov    -0x3e8(%rbp),%rax
    c229:	0f b6 00             	movzbl (%rax),%eax
    c22c:	0f be d0             	movsbl %al,%edx
    c22f:	8b 85 f8 fa ff ff    	mov    -0x508(%rbp),%eax
    c235:	0f be c0             	movsbl %al,%eax
    c238:	89 d6                	mov    %edx,%esi
    c23a:	89 c7                	mov    %eax,%edi
    c23c:	e8 d1 8f ff ff       	callq  5212 <safe_mul_func_int8_t_s_s>
    c241:	66 98                	cbtw   
    c243:	0f b7 c0             	movzwl %ax,%eax
    c246:	be 01 00 00 00       	mov    $0x1,%esi
    c24b:	89 c7                	mov    %eax,%edi
    c24d:	e8 eb 9a ff ff       	callq  5d3d <safe_mul_func_uint16_t_u_u>
    c252:	0f b7 d0             	movzwl %ax,%edx
    c255:	48 8b 05 44 dd 00 00 	mov    0xdd44(%rip),%rax        # 19fa0 <g_191>
    c25c:	0f b6 00             	movzbl (%rax),%eax
    c25f:	84 c0                	test   %al,%al
    c261:	0f 9e c0             	setle  %al
    c264:	0f b6 c0             	movzbl %al,%eax
    c267:	39 c2                	cmp    %eax,%edx
    c269:	0f 95 c0             	setne  %al
    c26c:	0f b6 d0             	movzbl %al,%edx
    c26f:	8b 85 0c fb ff ff    	mov    -0x4f4(%rbp),%eax
    c275:	98                   	cwtl   
    c276:	89 d6                	mov    %edx,%esi
    c278:	89 c7                	mov    %eax,%edi
    c27a:	e8 76 91 ff ff       	callq  53f5 <safe_mul_func_int16_t_s_s>
    c27f:	8b 85 7c fc ff ff    	mov    -0x384(%rbp),%eax
    c285:	8b 95 d4 fc ff ff    	mov    -0x32c(%rbp),%edx
    c28b:	31 d0                	xor    %edx,%eax
    c28d:	89 85 d4 fc ff ff    	mov    %eax,-0x32c(%rbp)
    c293:	8b 85 48 fb ff ff    	mov    -0x4b8(%rbp),%eax
    c299:	48 63 d8             	movslq %eax,%rbx
    c29c:	8b 85 fc fa ff ff    	mov    -0x504(%rbp),%eax
    c2a2:	44 0f bf e0          	movswl %ax,%r12d
    c2a6:	0f b7 05 c3 9d 00 00 	movzwl 0x9dc3(%rip),%eax        # 16070 <g_106>
    c2ad:	44 0f bf e8          	movswl %ax,%r13d
    c2b1:	8b 05 5d a7 00 00    	mov    0xa75d(%rip),%eax        # 16a14 <g_399+0x14>
    c2b7:	25 ff ff ff 00       	and    $0xffffff,%eax
    c2bc:	89 c0                	mov    %eax,%eax
    c2be:	48 89 c6             	mov    %rax,%rsi
    c2c1:	48 bf 8d 67 3e 5f 90 	movabs $0xfb5295905f3e678d,%rdi
    c2c8:	95 52 fb 
    c2cb:	e8 27 97 ff ff       	callq  59f7 <safe_div_func_int64_t_s_s>
    c2d0:	0f bf d0             	movswl %ax,%edx
    c2d3:	48 8b 85 60 fc ff ff 	mov    -0x3a0(%rbp),%rax
    c2da:	48 8d 8d fc fa ff ff 	lea    -0x504(%rbp),%rcx
    c2e1:	48 89 08             	mov    %rcx,(%rax)
    c2e4:	48 8b 85 60 fc ff ff 	mov    -0x3a0(%rbp),%rax
    c2eb:	48 8b 08             	mov    (%rax),%rcx
    c2ee:	48 8d 85 fc fa ff ff 	lea    -0x504(%rbp),%rax
    c2f5:	48 39 c1             	cmp    %rax,%rcx
    c2f8:	0f 94 c0             	sete   %al
    c2fb:	0f b6 c0             	movzbl %al,%eax
    c2fe:	89 d6                	mov    %edx,%esi
    c300:	89 c7                	mov    %eax,%edi
    c302:	e8 0f 91 ff ff       	callq  5416 <safe_mod_func_int16_t_s_s>
    c307:	66 85 c0             	test   %ax,%ax
    c30a:	75 0c                	jne    c318 <func_71+0xaac>
    c30c:	0f b7 05 9d a6 00 00 	movzwl 0xa69d(%rip),%eax        # 169b0 <g_334>
    c313:	66 85 c0             	test   %ax,%ax
    c316:	74 07                	je     c31f <func_71+0xab3>
    c318:	b8 01 00 00 00       	mov    $0x1,%eax
    c31d:	eb 05                	jmp    c324 <func_71+0xab8>
    c31f:	b8 00 00 00 00       	mov    $0x0,%eax
    c324:	0f b6 c0             	movzbl %al,%eax
    c327:	44 89 ee             	mov    %r13d,%esi
    c32a:	89 c7                	mov    %eax,%edi
    c32c:	e8 1b 99 ff ff       	callq  5c4c <safe_lshift_func_uint8_t_u_u>
    c331:	0f b6 c0             	movzbl %al,%eax
    c334:	44 89 e6             	mov    %r12d,%esi
    c337:	89 c7                	mov    %eax,%edi
    c339:	e8 d8 90 ff ff       	callq  5416 <safe_mod_func_int16_t_s_s>
    c33e:	0f bf d0             	movswl %ax,%edx
    c341:	c7 85 0c fb ff ff 02 	movl   $0x2,-0x4f4(%rbp)
    c348:	00 00 00 
    c34b:	8b 85 0c fb ff ff    	mov    -0x4f4(%rbp),%eax
    c351:	89 d6                	mov    %edx,%esi
    c353:	89 c7                	mov    %eax,%edi
    c355:	e8 72 93 ff ff       	callq  56cc <safe_mod_func_int32_t_s_s>
    c35a:	48 8b 85 58 fc ff ff 	mov    -0x3a8(%rbp),%rax
    c361:	48 8d 95 f0 fa ff ff 	lea    -0x510(%rbp),%rdx
    c368:	48 89 10             	mov    %rdx,(%rax)
    c36b:	48 8b 85 58 fc ff ff 	mov    -0x3a8(%rbp),%rax
    c372:	48 8b 00             	mov    (%rax),%rax
    c375:	48 8d 15 dc 9c 00 00 	lea    0x9cdc(%rip),%rdx        # 16058 <g_59>
    c37c:	48 39 d0             	cmp    %rdx,%rax
    c37f:	0f 95 c0             	setne  %al
    c382:	0f b6 c0             	movzbl %al,%eax
    c385:	89 c6                	mov    %eax,%esi
    c387:	bf 85 56 03 0f       	mov    $0xf035685,%edi
    c38c:	e8 74 92 ff ff       	callq  5605 <safe_sub_func_int32_t_s_s>
    c391:	89 c1                	mov    %eax,%ecx
    c393:	48 8b 95 90 fb ff ff 	mov    -0x470(%rbp),%rdx
    c39a:	48 8b 85 50 fc ff ff 	mov    -0x3b0(%rbp),%rax
    c3a1:	48 89 10             	mov    %rdx,(%rax)
    c3a4:	48 8b 85 50 fc ff ff 	mov    -0x3b0(%rbp),%rax
    c3ab:	48 8b 10             	mov    (%rax),%rdx
    c3ae:	48 8b 05 fb db 00 00 	mov    0xdbfb(%rip),%rax        # 19fb0 <g_472>
    c3b5:	48 39 c2             	cmp    %rax,%rdx
    c3b8:	0f 94 c0             	sete   %al
    c3bb:	0f b6 c0             	movzbl %al,%eax
    c3be:	89 ce                	mov    %ecx,%esi
    c3c0:	89 c7                	mov    %eax,%edi
    c3c2:	e8 5e 9b ff ff       	callq  5f25 <safe_div_func_uint32_t_u_u>
    c3c7:	8b 85 fc fa ff ff    	mov    -0x504(%rbp),%eax
    c3cd:	85 c0                	test   %eax,%eax
    c3cf:	74 0c                	je     c3dd <func_71+0xb71>
    c3d1:	48 8b 05 c8 db 00 00 	mov    0xdbc8(%rip),%rax        # 19fa0 <g_191>
    c3d8:	0f b6 00             	movzbl (%rax),%eax
    c3db:	84 c0                	test   %al,%al
    c3dd:	8b 05 19 a0 00 00    	mov    0xa019(%rip),%eax        # 163fc <g_160>
    c3e3:	85 c0                	test   %eax,%eax
    c3e5:	75 07                	jne    c3ee <func_71+0xb82>
    c3e7:	83 bd f8 fa ff ff 00 	cmpl   $0x0,-0x508(%rbp)
    c3ee:	48 89 de             	mov    %rbx,%rsi
    c3f1:	48 c7 c7 fd ff ff ff 	mov    $0xfffffffffffffffd,%rdi
    c3f8:	e8 b7 95 ff ff       	callq  59b4 <safe_mod_func_int64_t_s_s>
    c3fd:	48 ba 8c 5d ae 6b 08 	movabs $0xcfdd42086bae5d8c,%rdx
    c404:	42 dd cf 
    c407:	48 39 d0             	cmp    %rdx,%rax
    c40a:	0f 94 c0             	sete   %al
    c40d:	0f b6 c0             	movzbl %al,%eax
    c410:	21 85 28 fb ff ff    	and    %eax,-0x4d8(%rbp)
    c416:	8b 05 74 9c 00 00    	mov    0x9c74(%rip),%eax        # 16090 <g_132>
    c41c:	48 8b 85 88 fb ff ff 	mov    -0x478(%rbp),%rax
    c423:	0f b7 10             	movzwl (%rax),%edx
    c426:	83 c2 01             	add    $0x1,%edx
    c429:	66 89 10             	mov    %dx,(%rax)
    c42c:	0f b7 00             	movzwl (%rax),%eax
    c42f:	66 83 f8 01          	cmp    $0x1,%ax
    c433:	0f 96 c0             	setbe  %al
    c436:	89 c1                	mov    %eax,%ecx
    c438:	48 8b 05 89 db 00 00 	mov    0xdb89(%rip),%rax        # 19fc8 <g_501>
    c43f:	48 85 c0             	test   %rax,%rax
    c442:	0f 95 c0             	setne  %al
    c445:	89 c2                	mov    %eax,%edx
    c447:	8b 85 28 fb ff ff    	mov    -0x4d8(%rbp),%eax
    c44d:	21 d0                	and    %edx,%eax
    c44f:	31 c8                	xor    %ecx,%eax
    c451:	0f be d0             	movsbl %al,%edx
    c454:	48 8b 0d 5d db 00 00 	mov    0xdb5d(%rip),%rcx        # 19fb8 <g_496>
    c45b:	48 8b 85 68 fc ff ff 	mov    -0x398(%rbp),%rax
    c462:	48 89 08             	mov    %rcx,(%rax)
    c465:	48 8b 85 68 fc ff ff 	mov    -0x398(%rbp),%rax
    c46c:	48 8b 08             	mov    (%rax),%rcx
    c46f:	48 8d 85 60 fb ff ff 	lea    -0x4a0(%rbp),%rax
    c476:	48 39 c1             	cmp    %rax,%rcx
    c479:	0f 94 c0             	sete   %al
    c47c:	0f b6 c0             	movzbl %al,%eax
    c47f:	89 d6                	mov    %edx,%esi
    c481:	89 c7                	mov    %eax,%edi
    c483:	e8 6a 8d ff ff       	callq  51f2 <safe_sub_func_int8_t_s_s>
    c488:	0f be c0             	movsbl %al,%eax
    c48b:	89 85 d8 fc ff ff    	mov    %eax,-0x328(%rbp)
    c491:	e9 48 01 00 00       	jmpq   c5de <func_71+0xd72>
    c496:	48 8d 85 88 fb ff ff 	lea    -0x478(%rbp),%rax
    c49d:	48 89 85 28 fc ff ff 	mov    %rax,-0x3d8(%rbp)
    c4a4:	48 c7 85 30 fc ff ff 	movq   $0x0,-0x3d0(%rbp)
    c4ab:	00 00 00 00 
    c4af:	48 8d 05 fa e2 00 00 	lea    0xe2fa(%rip),%rax        # 1a7b0 <g_121>
    c4b6:	48 89 85 38 fc ff ff 	mov    %rax,-0x3c8(%rbp)
    c4bd:	48 8d 05 7c a5 00 00 	lea    0xa57c(%rip),%rax        # 16a40 <g_512>
    c4c4:	48 89 85 40 fc ff ff 	mov    %rax,-0x3c0(%rbp)
    c4cb:	48 8b 85 38 fc ff ff 	mov    -0x3c8(%rbp),%rax
    c4d2:	48 c7 00 01 00 00 00 	movq   $0x1,(%rax)
    c4d9:	48 8b 85 38 fc ff ff 	mov    -0x3c8(%rbp),%rax
    c4e0:	48 8b 10             	mov    (%rax),%rdx
    c4e3:	48 8b 85 40 fc ff ff 	mov    -0x3c0(%rbp),%rax
    c4ea:	48 8b 00             	mov    (%rax),%rax
    c4ed:	48 09 c2             	or     %rax,%rdx
    c4f0:	48 8b 85 40 fc ff ff 	mov    -0x3c0(%rbp),%rax
    c4f7:	48 89 10             	mov    %rdx,(%rax)
    c4fa:	48 8b 05 9f da 00 00 	mov    0xda9f(%rip),%rax        # 19fa0 <g_191>
    c501:	0f b6 00             	movzbl (%rax),%eax
    c504:	0f b6 c0             	movzbl %al,%eax
    c507:	89 c6                	mov    %eax,%esi
    c509:	bf de 00 00 00       	mov    $0xde,%edi
    c50e:	e8 80 96 ff ff       	callq  5b93 <safe_mul_func_uint8_t_u_u>
    c513:	0f b6 c8             	movzbl %al,%ecx
    c516:	48 8b 85 28 fc ff ff 	mov    -0x3d8(%rbp),%rax
    c51d:	48 8b 95 e8 fb ff ff 	mov    -0x418(%rbp),%rdx
    c524:	48 89 10             	mov    %rdx,(%rax)
    c527:	48 8b 85 28 fc ff ff 	mov    -0x3d8(%rbp),%rax
    c52e:	48 8b 00             	mov    (%rax),%rax
    c531:	48 8d 15 e0 a3 00 00 	lea    0xa3e0(%rip),%rdx        # 16918 <g_233>
    c538:	48 39 d0             	cmp    %rdx,%rax
    c53b:	0f 95 c0             	setne  %al
    c53e:	0f b6 c0             	movzbl %al,%eax
    c541:	39 c1                	cmp    %eax,%ecx
    c543:	41 0f 94 c5          	sete   %r13b
    c547:	8b 1d df 9e 00 00    	mov    0x9edf(%rip),%ebx        # 1642c <g_166>
    c54d:	48 8b 85 20 fc ff ff 	mov    -0x3e0(%rbp),%rax
    c554:	0f b7 10             	movzwl (%rax),%edx
    c557:	48 8b 85 20 fc ff ff 	mov    -0x3e0(%rbp),%rax
    c55e:	66 89 10             	mov    %dx,(%rax)
    c561:	48 8b 85 20 fc ff ff 	mov    -0x3e0(%rbp),%rax
    c568:	44 0f b7 20          	movzwl (%rax),%r12d
    c56c:	8b 85 48 fb ff ff    	mov    -0x4b8(%rbp),%eax
    c572:	0f bf d0             	movswl %ax,%edx
    c575:	48 8b 85 e8 fa ff ff 	mov    -0x518(%rbp),%rax
    c57c:	98                   	cwtl   
    c57d:	89 d6                	mov    %edx,%esi
    c57f:	89 c7                	mov    %eax,%edi
    c581:	e8 2d 8e ff ff       	callq  53b3 <safe_add_func_int16_t_s_s>
    c586:	66 41 39 c4          	cmp    %ax,%r12w
    c58a:	0f 9e c0             	setle  %al
    c58d:	0f b6 d0             	movzbl %al,%edx
    c590:	8b 05 06 9d 00 00    	mov    0x9d06(%rip),%eax        # 1629c <g_143+0x1c>
    c596:	39 c2                	cmp    %eax,%edx
    c598:	0f 93 c0             	setae  %al
    c59b:	0f b6 c0             	movzbl %al,%eax
    c59e:	39 c3                	cmp    %eax,%ebx
    c5a0:	0f 93 c0             	setae  %al
    c5a3:	44 31 e8             	xor    %r13d,%eax
    c5a6:	0f b6 d0             	movzbl %al,%edx
    c5a9:	8b 05 75 9b 00 00    	mov    0x9b75(%rip),%eax        # 16124 <g_140>
    c5af:	39 c2                	cmp    %eax,%edx
    c5b1:	0f 93 c0             	setae  %al
    c5b4:	0f b6 c0             	movzbl %al,%eax
    c5b7:	c1 e0 04             	shl    $0x4,%eax
    c5ba:	c1 f8 04             	sar    $0x4,%eax
    c5bd:	89 c0                	mov    %eax,%eax
    c5bf:	25 ff ff ff 0f       	and    $0xfffffff,%eax
    c5c4:	48 89 c2             	mov    %rax,%rdx
    c5c7:	48 8b 05 62 a4 00 00 	mov    0xa462(%rip),%rax        # 16a30 <g_492+0x10>
    c5ce:	48 25 00 00 00 f0    	and    $0xfffffffff0000000,%rax
    c5d4:	48 09 d0             	or     %rdx,%rax
    c5d7:	48 89 05 52 a4 00 00 	mov    %rax,0xa452(%rip)        # 16a30 <g_492+0x10>
    c5de:	8b 05 30 a3 00 00    	mov    0xa330(%rip),%eax        # 16914 <g_202>
    c5e4:	83 c0 01             	add    $0x1,%eax
    c5e7:	89 05 27 a3 00 00    	mov    %eax,0xa327(%rip)        # 16914 <g_202>
    c5ed:	8b 05 21 a3 00 00    	mov    0xa321(%rip),%eax        # 16914 <g_202>
    c5f3:	83 f8 02             	cmp    $0x2,%eax
    c5f6:	0f 86 22 f7 ff ff    	jbe    bd1e <func_71+0x4b2>
    c5fc:	c7 85 28 fb ff ff 76 	movl   $0xc8da5076,-0x4d8(%rbp)
    c603:	50 da c8 
    c606:	8b 85 28 fb ff ff    	mov    -0x4d8(%rbp),%eax
    c60c:	89 c2                	mov    %eax,%edx
    c60e:	0f b6 05 33 a4 00 00 	movzbl 0xa433(%rip),%eax        # 16a48 <g_515>
    c615:	31 d0                	xor    %edx,%eax
    c617:	88 05 2b a4 00 00    	mov    %al,0xa42b(%rip)        # 16a48 <g_515>
    c61d:	83 bd 20 fb ff ff 00 	cmpl   $0x0,-0x4e0(%rbp)
    c624:	0f 85 04 05 00 00    	jne    cb2e <func_71+0x12c2>
    c62a:	c7 05 f4 9c 00 00 00 	movl   $0x0,0x9cf4(%rip)        # 16328 <g_149>
    c631:	00 00 00 
    c634:	e9 a2 02 00 00       	jmpq   c8db <func_71+0x106f>
    c639:	48 8d 05 c0 a3 00 00 	lea    0xa3c0(%rip),%rax        # 16a00 <g_399>
    c640:	48 89 85 08 fc ff ff 	mov    %rax,-0x3f8(%rbp)
    c647:	c7 85 44 fb ff ff fd 	movl   $0xfffffffd,-0x4bc(%rbp)
    c64e:	ff ff ff 
    c651:	48 8d 05 80 e1 00 00 	lea    0xe180(%rip),%rax        # 1a7d8 <g_210>
    c658:	48 89 85 00 fd ff ff 	mov    %rax,-0x300(%rbp)
    c65f:	48 8d 05 72 e1 00 00 	lea    0xe172(%rip),%rax        # 1a7d8 <g_210>
    c666:	48 89 85 08 fd ff ff 	mov    %rax,-0x2f8(%rbp)
    c66d:	48 8d 05 64 e1 00 00 	lea    0xe164(%rip),%rax        # 1a7d8 <g_210>
    c674:	48 89 85 10 fd ff ff 	mov    %rax,-0x2f0(%rbp)
    c67b:	48 8d 05 56 e1 00 00 	lea    0xe156(%rip),%rax        # 1a7d8 <g_210>
    c682:	48 89 85 18 fd ff ff 	mov    %rax,-0x2e8(%rbp)
    c689:	48 8d 05 48 e1 00 00 	lea    0xe148(%rip),%rax        # 1a7d8 <g_210>
    c690:	48 89 85 20 fd ff ff 	mov    %rax,-0x2e0(%rbp)
    c697:	48 8d 05 3a e1 00 00 	lea    0xe13a(%rip),%rax        # 1a7d8 <g_210>
    c69e:	48 89 85 28 fd ff ff 	mov    %rax,-0x2d8(%rbp)
    c6a5:	48 8d 05 2c e1 00 00 	lea    0xe12c(%rip),%rax        # 1a7d8 <g_210>
    c6ac:	48 89 85 30 fd ff ff 	mov    %rax,-0x2d0(%rbp)
    c6b3:	c7 85 40 fd ff ff ab 	movl   $0x43bfeeab,-0x2c0(%rbp)
    c6ba:	ee bf 43 
    c6bd:	c7 85 44 fd ff ff ab 	movl   $0x43bfeeab,-0x2bc(%rbp)
    c6c4:	ee bf 43 
    c6c7:	c7 85 48 fd ff ff ab 	movl   $0x43bfeeab,-0x2b8(%rbp)
    c6ce:	ee bf 43 
    c6d1:	c7 85 4c fd ff ff 75 	movl   $0x3744cb75,-0x2b4(%rbp)
    c6d8:	cb 44 37 
    c6db:	c7 85 50 fd ff ff 05 	movl   $0x5,-0x2b0(%rbp)
    c6e2:	00 00 00 
    c6e5:	c7 85 54 fd ff ff 08 	movl   $0x8,-0x2ac(%rbp)
    c6ec:	00 00 00 
    c6ef:	c7 85 58 fd ff ff 75 	movl   $0x3744cb75,-0x2a8(%rbp)
    c6f6:	cb 44 37 
    c6f9:	c7 85 5c fd ff ff 08 	movl   $0x8,-0x2a4(%rbp)
    c700:	00 00 00 
    c703:	c7 85 60 fd ff ff 05 	movl   $0x5,-0x2a0(%rbp)
    c70a:	00 00 00 
    c70d:	c7 85 64 fd ff ff 75 	movl   $0x3744cb75,-0x29c(%rbp)
    c714:	cb 44 37 
    c717:	c7 85 68 fd ff ff ab 	movl   $0x43bfeeab,-0x298(%rbp)
    c71e:	ee bf 43 
    c721:	c7 85 6c fd ff ff ab 	movl   $0x43bfeeab,-0x294(%rbp)
    c728:	ee bf 43 
    c72b:	c7 85 70 fd ff ff ab 	movl   $0x43bfeeab,-0x290(%rbp)
    c732:	ee bf 43 
    c735:	c7 85 74 fd ff ff 75 	movl   $0x3744cb75,-0x28c(%rbp)
    c73c:	cb 44 37 
    c73f:	48 8b 85 60 fb ff ff 	mov    -0x4a0(%rbp),%rax
    c746:	48 39 85 08 fc ff ff 	cmp    %rax,-0x3f8(%rbp)
    c74d:	0f 94 c2             	sete   %dl
    c750:	48 8b 05 49 d8 00 00 	mov    0xd849(%rip),%rax        # 19fa0 <g_191>
    c757:	88 10                	mov    %dl,(%rax)
    c759:	0f b6 00             	movzbl (%rax),%eax
    c75c:	44 0f be e8          	movsbl %al,%r13d
    c760:	0f b7 85 f0 fa ff ff 	movzwl -0x510(%rbp),%eax
    c767:	0f bf d8             	movswl %ax,%ebx
    c76a:	8b 85 fc fa ff ff    	mov    -0x504(%rbp),%eax
    c770:	85 c0                	test   %eax,%eax
    c772:	0f 84 bf 00 00 00    	je     c837 <func_71+0xfcb>
    c778:	44 8b a5 fc fa ff ff 	mov    -0x504(%rbp),%r12d
    c77f:	48 8b 85 e8 fa ff ff 	mov    -0x518(%rbp),%rax
    c786:	0f b7 c0             	movzwl %ax,%eax
    c789:	be 84 de 00 00       	mov    $0xde84,%esi
    c78e:	89 c7                	mov    %eax,%edi
    c790:	e8 8a 95 ff ff       	callq  5d1f <safe_sub_func_uint16_t_u_u>
    c795:	0f b7 d0             	movzwl %ax,%edx
    c798:	48 8b 85 a8 fb ff ff 	mov    -0x458(%rbp),%rax
    c79f:	48 8b 00             	mov    (%rax),%rax
    c7a2:	8b 00                	mov    (%rax),%eax
    c7a4:	89 d6                	mov    %edx,%esi
    c7a6:	89 c7                	mov    %eax,%edi
    c7a8:	e8 58 8e ff ff       	callq  5605 <safe_sub_func_int32_t_s_s>
    c7ad:	0f b6 c0             	movzbl %al,%eax
    c7b0:	be 00 00 00 00       	mov    $0x0,%esi
    c7b5:	89 c7                	mov    %eax,%edi
    c7b7:	e8 49 94 ff ff       	callq  5c05 <safe_lshift_func_uint8_t_u_s>
    c7bc:	8b 15 fa 99 00 00    	mov    0x99fa(%rip),%edx        # 161bc <g_141+0x7c>
    c7c2:	8b 85 44 fb ff ff    	mov    -0x4bc(%rbp),%eax
    c7c8:	39 c2                	cmp    %eax,%edx
    c7ca:	0f 94 c0             	sete   %al
    c7cd:	0f b6 c0             	movzbl %al,%eax
    c7d0:	44 89 e6             	mov    %r12d,%esi
    c7d3:	89 c7                	mov    %eax,%edi
    c7d5:	e8 c7 8a ff ff       	callq  52a1 <safe_lshift_func_int8_t_s_s>
    c7da:	0f be d0             	movsbl %al,%edx
    c7dd:	8b 85 7c fc ff ff    	mov    -0x384(%rbp),%eax
    c7e3:	0f be c0             	movsbl %al,%eax
    c7e6:	89 d6                	mov    %edx,%esi
    c7e8:	89 c7                	mov    %eax,%edi
    c7ea:	e8 42 8a ff ff       	callq  5231 <safe_mod_func_int8_t_s_s>
    c7ef:	48 0f be c0          	movsbq %al,%rax
    c7f3:	48 89 05 de df 00 00 	mov    %rax,0xdfde(%rip)        # 1a7d8 <g_210>
    c7fa:	48 8b 15 d7 df 00 00 	mov    0xdfd7(%rip),%rdx        # 1a7d8 <g_210>
    c801:	8b 85 44 fb ff ff    	mov    -0x4bc(%rbp),%eax
    c807:	48 98                	cltq   
    c809:	48 39 c2             	cmp    %rax,%rdx
    c80c:	8b 85 78 fc ff ff    	mov    -0x388(%rbp),%eax
    c812:	85 c0                	test   %eax,%eax
    c814:	74 07                	je     c81d <func_71+0xfb1>
    c816:	b8 01 00 00 00       	mov    $0x1,%eax
    c81b:	eb 05                	jmp    c822 <func_71+0xfb6>
    c81d:	b8 00 00 00 00       	mov    $0x0,%eax
    c822:	89 c2                	mov    %eax,%edx
    c824:	8b 85 78 fc ff ff    	mov    -0x388(%rbp),%eax
    c82a:	21 d0                	and    %edx,%eax
    c82c:	85 c0                	test   %eax,%eax
    c82e:	74 07                	je     c837 <func_71+0xfcb>
    c830:	ba 01 00 00 00       	mov    $0x1,%edx
    c835:	eb 05                	jmp    c83c <func_71+0xfd0>
    c837:	ba 00 00 00 00       	mov    $0x0,%edx
    c83c:	8b 85 fc fa ff ff    	mov    -0x504(%rbp),%eax
    c842:	31 c2                	xor    %eax,%edx
    c844:	0f b6 85 f4 fa ff ff 	movzbl -0x50c(%rbp),%eax
    c84b:	39 c2                	cmp    %eax,%edx
    c84d:	0f 95 c0             	setne  %al
    c850:	0f b6 c0             	movzbl %al,%eax
    c853:	48 89 c7             	mov    %rax,%rdi
    c856:	e8 be 97 ff ff       	callq  6019 <safe_unary_minus_func_uint64_t_u>
    c85b:	8b 05 cb 9c 00 00    	mov    0x9ccb(%rip),%eax        # 1652c <g_172>
    c861:	be 05 00 00 00       	mov    $0x5,%esi
    c866:	bf 6c d2 ff ff       	mov    $0xffffd26c,%edi
    c86b:	e8 e5 8b ff ff       	callq  5455 <safe_div_func_int16_t_s_s>
    c870:	48 0f bf c0          	movswq %ax,%rax
    c874:	48 39 85 e8 fa ff ff 	cmp    %rax,-0x518(%rbp)
    c87b:	0f 94 c0             	sete   %al
    c87e:	0f b6 c0             	movzbl %al,%eax
    c881:	89 de                	mov    %ebx,%esi
    c883:	89 c7                	mov    %eax,%edi
    c885:	e8 d9 8c ff ff       	callq  5563 <safe_rshift_func_int16_t_s_u>
    c88a:	98                   	cwtl   
    c88b:	89 c6                	mov    %eax,%esi
    c88d:	bf fe 7a d3 94       	mov    $0x94d37afe,%edi
    c892:	e8 39 96 ff ff       	callq  5ed0 <safe_sub_func_uint32_t_u_u>
    c897:	0f b6 15 ed 97 00 00 	movzbl 0x97ed(%rip),%edx        # 1608b <g_124+0x3>
    c89e:	0f be d2             	movsbl %dl,%edx
    c8a1:	39 d0                	cmp    %edx,%eax
    c8a3:	0f 97 c0             	seta   %al
    c8a6:	0f b6 c0             	movzbl %al,%eax
    c8a9:	be 04 00 00 00       	mov    $0x4,%esi
    c8ae:	89 c7                	mov    %eax,%edi
    c8b0:	e8 17 8e ff ff       	callq  56cc <safe_mod_func_int32_t_s_s>
    c8b5:	41 39 c5             	cmp    %eax,%r13d
    c8b8:	0f 95 c0             	setne  %al
    c8bb:	0f b6 d0             	movzbl %al,%edx
    c8be:	8b 85 60 fd ff ff    	mov    -0x2a0(%rbp),%eax
    c8c4:	21 d0                	and    %edx,%eax
    c8c6:	89 85 60 fd ff ff    	mov    %eax,-0x2a0(%rbp)
    c8cc:	8b 05 56 9a 00 00    	mov    0x9a56(%rip),%eax        # 16328 <g_149>
    c8d2:	83 c0 01             	add    $0x1,%eax
    c8d5:	89 05 4d 9a 00 00    	mov    %eax,0x9a4d(%rip)        # 16328 <g_149>
    c8db:	8b 05 47 9a 00 00    	mov    0x9a47(%rip),%eax        # 16328 <g_149>
    c8e1:	83 f8 05             	cmp    $0x5,%eax
    c8e4:	0f 86 4f fd ff ff    	jbe    c639 <func_71+0xdcd>
    c8ea:	c7 05 d8 de 00 00 00 	movl   $0x0,0xded8(%rip)        # 1a7cc <g_159>
    c8f1:	00 00 00 
    c8f4:	e9 24 02 00 00       	jmpq   cb1d <func_71+0x12b1>
    c8f9:	c7 85 40 fb ff ff fa 	movl   $0xfffffffa,-0x4c0(%rbp)
    c900:	ff ff ff 
    c903:	c7 85 30 fb ff ff 00 	movl   $0x0,-0x4d0(%rbp)
    c90a:	00 00 00 
    c90d:	eb 1e                	jmp    c92d <func_71+0x10c1>
    c90f:	8b 85 30 fb ff ff    	mov    -0x4d0(%rbp),%eax
    c915:	48 98                	cltq   
    c917:	48 8d 95 80 fb ff ff 	lea    -0x480(%rbp),%rdx
    c91e:	48 89 94 c5 40 fd ff 	mov    %rdx,-0x2c0(%rbp,%rax,8)
    c925:	ff 
    c926:	83 85 30 fb ff ff 01 	addl   $0x1,-0x4d0(%rbp)
    c92d:	83 bd 30 fb ff ff 03 	cmpl   $0x3,-0x4d0(%rbp)
    c934:	7e d9                	jle    c90f <func_71+0x10a3>
    c936:	48 8b 85 80 fb ff ff 	mov    -0x480(%rbp),%rax
    c93d:	48 89 85 90 fc ff ff 	mov    %rax,-0x370(%rbp)
    c944:	48 8b 85 90 fc ff ff 	mov    -0x370(%rbp),%rax
    c94b:	48 39 85 d0 fb ff ff 	cmp    %rax,-0x430(%rbp)
    c952:	0f 95 c0             	setne  %al
    c955:	0f b6 c0             	movzbl %al,%eax
    c958:	c1 e0 07             	shl    $0x7,%eax
    c95b:	c1 f8 07             	sar    $0x7,%eax
    c95e:	25 ff ff ff 01       	and    $0x1ffffff,%eax
    c963:	89 c2                	mov    %eax,%edx
    c965:	8b 05 cd a0 00 00    	mov    0xa0cd(%rip),%eax        # 16a38 <g_492+0x18>
    c96b:	25 00 00 00 fe       	and    $0xfe000000,%eax
    c970:	09 d0                	or     %edx,%eax
    c972:	89 05 c0 a0 00 00    	mov    %eax,0xa0c0(%rip)        # 16a38 <g_492+0x18>
    c978:	66 c7 85 f0 fa ff ff 	movw   $0x0,-0x510(%rbp)
    c97f:	00 00 
    c981:	e9 68 01 00 00       	jmpq   caee <func_71+0x1282>
    c986:	66 c7 85 06 fb ff ff 	movw   $0x0,-0x4fa(%rbp)
    c98d:	00 00 
    c98f:	48 8d 05 b2 a0 00 00 	lea    0xa0b2(%rip),%rax        # 16a48 <g_515>
    c996:	48 89 85 f0 fb ff ff 	mov    %rax,-0x410(%rbp)
    c99d:	48 c7 85 f8 fb ff ff 	movq   $0x0,-0x408(%rbp)
    c9a4:	00 00 00 00 
    c9a8:	48 8d 05 29 de 00 00 	lea    0xde29(%rip),%rax        # 1a7d8 <g_210>
    c9af:	48 89 85 00 fc ff ff 	mov    %rax,-0x400(%rbp)
    c9b6:	8b 85 e8 fd ff ff    	mov    -0x218(%rbp),%eax
    c9bc:	66 89 85 06 fb ff ff 	mov    %ax,-0x4fa(%rbp)
    c9c3:	8b 9d fc fa ff ff    	mov    -0x504(%rbp),%ebx
    c9c9:	48 8b 85 a8 fb ff ff 	mov    -0x458(%rbp),%rax
    c9d0:	48 8b 00             	mov    (%rax),%rax
    c9d3:	8b 00                	mov    (%rax),%eax
    c9d5:	44 0f b7 e0          	movzwl %ax,%r12d
    c9d9:	48 8b 05 50 a0 00 00 	mov    0xa050(%rip),%rax        # 16a30 <g_492+0x10>
    c9e0:	83 bd f8 fa ff ff 00 	cmpl   $0x0,-0x508(%rbp)
    c9e7:	75 0a                	jne    c9f3 <func_71+0x1187>
    c9e9:	8b 85 fc fa ff ff    	mov    -0x504(%rbp),%eax
    c9ef:	85 c0                	test   %eax,%eax
    c9f1:	74 07                	je     c9fa <func_71+0x118e>
    c9f3:	b8 01 00 00 00       	mov    $0x1,%eax
    c9f8:	eb 05                	jmp    c9ff <func_71+0x1193>
    c9fa:	b8 00 00 00 00       	mov    $0x0,%eax
    c9ff:	89 c6                	mov    %eax,%esi
    ca01:	bf 13 f2 d0 c9       	mov    $0xc9d0f213,%edi
    ca06:	e8 ad 94 ff ff       	callq  5eb8 <safe_add_func_uint32_t_u_u>
    ca0b:	8b 85 7c fc ff ff    	mov    -0x384(%rbp),%eax
    ca11:	83 f8 01             	cmp    $0x1,%eax
    ca14:	0f 94 c0             	sete   %al
    ca17:	0f b6 c0             	movzbl %al,%eax
    ca1a:	48 39 85 b0 fb ff ff 	cmp    %rax,-0x450(%rbp)
    ca21:	0f 96 c0             	setbe  %al
    ca24:	0f b6 d0             	movzbl %al,%edx
    ca27:	48 8b 85 00 fc ff ff 	mov    -0x400(%rbp),%rax
    ca2e:	48 89 10             	mov    %rdx,(%rax)
    ca31:	48 8b 85 00 fc ff ff 	mov    -0x400(%rbp),%rax
    ca38:	48 8b 00             	mov    (%rax),%rax
    ca3b:	48 85 c0             	test   %rax,%rax
    ca3e:	8b 85 d4 fc ff ff    	mov    -0x32c(%rbp),%eax
    ca44:	0f b7 c0             	movzwl %ax,%eax
    ca47:	44 89 e6             	mov    %r12d,%esi
    ca4a:	89 c7                	mov    %eax,%edi
    ca4c:	e8 ae 92 ff ff       	callq  5cff <safe_add_func_uint16_t_u_u>
    ca51:	0f b6 d0             	movzbl %al,%edx
    ca54:	48 8b 85 f0 fb ff ff 	mov    -0x410(%rbp),%rax
    ca5b:	0f b6 00             	movzbl (%rax),%eax
    ca5e:	8d 48 01             	lea    0x1(%rax),%ecx
    ca61:	48 8b 85 f0 fb ff ff 	mov    -0x410(%rbp),%rax
    ca68:	88 08                	mov    %cl,(%rax)
    ca6a:	48 8b 85 f0 fb ff ff 	mov    -0x410(%rbp),%rax
    ca71:	0f b6 00             	movzbl (%rax),%eax
    ca74:	0f b6 c0             	movzbl %al,%eax
    ca77:	89 d6                	mov    %edx,%esi
    ca79:	89 c7                	mov    %eax,%edi
    ca7b:	e8 13 91 ff ff       	callq  5b93 <safe_mul_func_uint8_t_u_u>
    ca80:	84 c0                	test   %al,%al
    ca82:	74 07                	je     ca8b <func_71+0x121f>
    ca84:	b8 01 00 00 00       	mov    $0x1,%eax
    ca89:	eb 05                	jmp    ca90 <func_71+0x1224>
    ca8b:	b8 00 00 00 00       	mov    $0x0,%eax
    ca90:	0f b6 c0             	movzbl %al,%eax
    ca93:	be 03 00 00 00       	mov    $0x3,%esi
    ca98:	89 c7                	mov    %eax,%edi
    ca9a:	e8 1f 92 ff ff       	callq  5cbe <safe_rshift_func_uint8_t_u_u>
    ca9f:	be 05 00 00 00       	mov    $0x5,%esi
    caa4:	bf 00 00 00 00       	mov    $0x0,%edi
    caa9:	e8 40 88 ff ff       	callq  52ee <safe_lshift_func_int8_t_s_u>
    caae:	48 0f be c0          	movsbq %al,%rax
    cab2:	48 89 85 e8 fa ff ff 	mov    %rax,-0x518(%rbp)
    cab9:	48 8b 85 e8 fa ff ff 	mov    -0x518(%rbp),%rax
    cac0:	89 c2                	mov    %eax,%edx
    cac2:	8b 05 40 99 00 00    	mov    0x9940(%rip),%eax        # 16408 <g_163>
    cac8:	09 d0                	or     %edx,%eax
    caca:	89 de                	mov    %ebx,%esi
    cacc:	89 c7                	mov    %eax,%edi
    cace:	e8 e3 8a ff ff       	callq  55b6 <safe_add_func_int32_t_s_s>
    cad3:	c7 85 0c fb ff ff 01 	movl   $0x1,-0x4f4(%rbp)
    cada:	00 00 00 
    cadd:	0f b7 85 f0 fa ff ff 	movzwl -0x510(%rbp),%eax
    cae4:	83 c0 01             	add    $0x1,%eax
    cae7:	66 89 85 f0 fa ff ff 	mov    %ax,-0x510(%rbp)
    caee:	0f b7 85 f0 fa ff ff 	movzwl -0x510(%rbp),%eax
    caf5:	66 83 f8 02          	cmp    $0x2,%ax
    caf9:	0f 8e 87 fe ff ff    	jle    c986 <func_71+0x111a>
    caff:	8b 05 47 9f 00 00    	mov    0x9f47(%rip),%eax        # 16a4c <g_571>
    cb05:	83 c0 01             	add    $0x1,%eax
    cb08:	89 05 3e 9f 00 00    	mov    %eax,0x9f3e(%rip)        # 16a4c <g_571>
    cb0e:	8b 05 b8 dc 00 00    	mov    0xdcb8(%rip),%eax        # 1a7cc <g_159>
    cb14:	83 c0 01             	add    $0x1,%eax
    cb17:	89 05 af dc 00 00    	mov    %eax,0xdcaf(%rip)        # 1a7cc <g_159>
    cb1d:	8b 05 a9 dc 00 00    	mov    0xdca9(%rip),%eax        # 1a7cc <g_159>
    cb23:	83 f8 02             	cmp    $0x2,%eax
    cb26:	0f 86 cd fd ff ff    	jbe    c8f9 <func_71+0x108d>
    cb2c:	eb 01                	jmp    cb2f <func_71+0x12c3>
    cb2e:	90                   	nop
    cb2f:	0f b7 05 7a 9e 00 00 	movzwl 0x9e7a(%rip),%eax        # 169b0 <g_334>
    cb36:	83 c0 01             	add    $0x1,%eax
    cb39:	66 89 05 70 9e 00 00 	mov    %ax,0x9e70(%rip)        # 169b0 <g_334>
    cb40:	0f b7 05 69 9e 00 00 	movzwl 0x9e69(%rip),%eax        # 169b0 <g_334>
    cb47:	66 83 f8 02          	cmp    $0x2,%ax
    cb4b:	0f 86 77 f1 ff ff    	jbe    bcc8 <func_71+0x45c>
    cb51:	8b 05 5d 9e 00 00    	mov    0x9e5d(%rip),%eax        # 169b4 <g_354>
    cb57:	83 c0 01             	add    $0x1,%eax
    cb5a:	89 05 54 9e 00 00    	mov    %eax,0x9e54(%rip)        # 169b4 <g_354>
    cb60:	8b 05 4e 9e 00 00    	mov    0x9e4e(%rip),%eax        # 169b4 <g_354>
    cb66:	83 f8 02             	cmp    $0x2,%eax
    cb69:	0f 86 ac ef ff ff    	jbe    bb1b <func_71+0x2af>
    cb6f:	0f b7 85 04 fb ff ff 	movzwl -0x4fc(%rbp),%eax
    cb76:	66 85 c0             	test   %ax,%ax
    cb79:	74 77                	je     cbf2 <func_71+0x1386>
    cb7b:	e9 40 ee ff ff       	jmpq   b9c0 <func_71+0x154>
    cb80:	c7 85 34 fb ff ff f1 	movl   $0xa72fd7f1,-0x4cc(%rbp)
    cb87:	d7 2f a7 
    cb8a:	c7 85 38 fb ff ff 8e 	movl   $0x7165928e,-0x4c8(%rbp)
    cb91:	92 65 71 
    cb94:	c7 85 40 fd ff ff fe 	movl   $0xfffffffe,-0x2c0(%rbp)
    cb9b:	ff ff ff 
    cb9e:	c7 85 44 fd ff ff fa 	movl   $0xfffffffa,-0x2bc(%rbp)
    cba5:	ff ff ff 
    cba8:	c7 85 48 fd ff ff fa 	movl   $0xfffffffa,-0x2b8(%rbp)
    cbaf:	ff ff ff 
    cbb2:	c7 85 4c fd ff ff fe 	movl   $0xfffffffe,-0x2b4(%rbp)
    cbb9:	ff ff ff 
    cbbc:	c7 85 50 fd ff ff fa 	movl   $0xfffffffa,-0x2b0(%rbp)
    cbc3:	ff ff ff 
    cbc6:	c7 85 54 fd ff ff fa 	movl   $0xfffffffa,-0x2ac(%rbp)
    cbcd:	ff ff ff 
    cbd0:	0f b7 05 79 9e 00 00 	movzwl 0x9e79(%rip),%eax        # 16a50 <g_578>
    cbd7:	83 c0 01             	add    $0x1,%eax
    cbda:	66 89 05 6f 9e 00 00 	mov    %ax,0x9e6f(%rip)        # 16a50 <g_578>
    cbe1:	48 8b 85 a8 fb ff ff 	mov    -0x458(%rbp),%rax
    cbe8:	48 8b 95 b8 fb ff ff 	mov    -0x448(%rbp),%rdx
    cbef:	48 89 10             	mov    %rdx,(%rax)
    cbf2:	0f b7 05 57 9e 00 00 	movzwl 0x9e57(%rip),%eax        # 16a50 <g_578>
    cbf9:	0f b7 c0             	movzwl %ax,%eax
    cbfc:	48 8b 5d c8          	mov    -0x38(%rbp),%rbx
    cc00:	64 48 33 1c 25 28 00 	xor    %fs:0x28,%rbx
    cc07:	00 00 
    cc09:	74 05                	je     cc10 <func_71+0x13a4>
    cc0b:	e8 60 84 ff ff       	callq  5070 <__stack_chk_fail@plt>
    cc10:	48 81 c4 f8 04 00 00 	add    $0x4f8,%rsp
    cc17:	5b                   	pop    %rbx
    cc18:	41 5c                	pop    %r12
    cc1a:	41 5d                	pop    %r13
    cc1c:	41 5e                	pop    %r14
    cc1e:	41 5f                	pop    %r15
    cc20:	5d                   	pop    %rbp
    cc21:	c3                   	retq   

000000000000cc22 <func_78>:
    cc22:	f3 0f 1e fa          	endbr64 
    cc26:	55                   	push   %rbp
    cc27:	48 89 e5             	mov    %rsp,%rbp
    cc2a:	48 83 ec 40          	sub    $0x40,%rsp
    cc2e:	89 7d cc             	mov    %edi,-0x34(%rbp)
    cc31:	89 75 c8             	mov    %esi,-0x38(%rbp)
    cc34:	89 d0                	mov    %edx,%eax
    cc36:	88 45 c4             	mov    %al,-0x3c(%rbp)
    cc39:	64 48 8b 04 25 28 00 	mov    %fs:0x28,%rax
    cc40:	00 00 
    cc42:	48 89 45 f8          	mov    %rax,-0x8(%rbp)
    cc46:	31 c0                	xor    %eax,%eax
    cc48:	48 8b 05 69 db 00 00 	mov    0xdb69(%rip),%rax        # 1a7b8 <g_121+0x8>
    cc4f:	be 05 00 00 00       	mov    $0x5,%esi
    cc54:	48 89 c7             	mov    %rax,%rdi
    cc57:	e8 d2 93 ff ff       	callq  602e <safe_add_func_uint64_t_u_u>
    cc5c:	48 85 c0             	test   %rax,%rax
    cc5f:	74 18                	je     cc79 <func_78+0x57>
    cc61:	48 8d 05 58 db 00 00 	lea    0xdb58(%rip),%rax        # 1a7c0 <g_127>
    cc68:	48 89 45 f0          	mov    %rax,-0x10(%rbp)
    cc6c:	48 8b 45 f0          	mov    -0x10(%rbp),%rax
    cc70:	48 8d 55 c8          	lea    -0x38(%rbp),%rdx
    cc74:	48 89 10             	mov    %rdx,(%rax)
    cc77:	eb 26                	jmp    cc9f <func_78+0x7d>
    cc79:	48 8d 05 50 db 00 00 	lea    0xdb50(%rip),%rax        # 1a7d0 <g_208>
    cc80:	48 89 45 d8          	mov    %rax,-0x28(%rbp)
    cc84:	48 8d 45 d8          	lea    -0x28(%rbp),%rax
    cc88:	48 89 45 e0          	mov    %rax,-0x20(%rbp)
    cc8c:	48 8d 45 e0          	lea    -0x20(%rbp),%rax
    cc90:	48 89 45 e8          	mov    %rax,-0x18(%rbp)
    cc94:	48 8b 55 e0          	mov    -0x20(%rbp),%rdx
    cc98:	48 8b 45 e8          	mov    -0x18(%rbp),%rax
    cc9c:	48 89 10             	mov    %rdx,(%rax)
    cc9f:	8b 05 5f 97 00 00    	mov    0x975f(%rip),%eax        # 16404 <g_162>
    cca5:	89 c0                	mov    %eax,%eax
    cca7:	48 8b 4d f8          	mov    -0x8(%rbp),%rcx
    ccab:	64 48 33 0c 25 28 00 	xor    %fs:0x28,%rcx
    ccb2:	00 00 
    ccb4:	74 05                	je     ccbb <func_78+0x99>
    ccb6:	e8 b5 83 ff ff       	callq  5070 <__stack_chk_fail@plt>
    ccbb:	c9                   	leaveq 
    ccbc:	c3                   	retq   

000000000000ccbd <func_84>:
    ccbd:	f3 0f 1e fa          	endbr64 
    ccc1:	55                   	push   %rbp
    ccc2:	48 89 e5             	mov    %rsp,%rbp
    ccc5:	41 57                	push   %r15
    ccc7:	41 56                	push   %r14
    ccc9:	41 55                	push   %r13
    cccb:	41 54                	push   %r12
    cccd:	53                   	push   %rbx
    ccce:	48 81 ec 48 0c 00 00 	sub    $0xc48,%rsp
    ccd5:	48 89 bd 98 f3 ff ff 	mov    %rdi,-0xc68(%rbp)
    ccdc:	89 f0                	mov    %esi,%eax
    ccde:	66 89 85 94 f3 ff ff 	mov    %ax,-0xc6c(%rbp)
    cce5:	64 48 8b 04 25 28 00 	mov    %fs:0x28,%rax
    ccec:	00 00 
    ccee:	48 89 45 c8          	mov    %rax,-0x38(%rbp)
    ccf2:	31 c0                	xor    %eax,%eax
    ccf4:	48 8d 05 ad da 00 00 	lea    0xdaad(%rip),%rax        # 1a7a8 <g_96>
    ccfb:	48 89 85 10 f4 ff ff 	mov    %rax,-0xbf0(%rbp)
    cd02:	c7 85 b0 f3 ff ff 1b 	movl   $0xb855bd1b,-0xc50(%rbp)
    cd09:	bd 55 b8 
    cd0c:	c7 85 b4 f3 ff ff b2 	movl   $0xe1d0cbb2,-0xc4c(%rbp)
    cd13:	cb d0 e1 
    cd16:	48 c7 85 00 f4 ff ff 	movq   $0xfffffffffffffff8,-0xc00(%rbp)
    cd1d:	f8 ff ff ff 
    cd21:	48 c7 85 18 f4 ff ff 	movq   $0x0,-0xbe8(%rbp)
    cd28:	00 00 00 00 
    cd2c:	c7 85 c0 f3 ff ff 72 	movl   $0xa2a0b72,-0xc40(%rbp)
    cd33:	0b 2a 0a 
    cd36:	48 c7 85 20 f4 ff ff 	movq   $0x5,-0xbe0(%rbp)
    cd3d:	05 00 00 00 
    cd41:	8b 85 b0 f3 ff ff    	mov    -0xc50(%rbp),%eax
    cd47:	89 c3                	mov    %eax,%ebx
    cd49:	8b 05 e1 92 00 00    	mov    0x92e1(%rip),%eax        # 16030 <g_2>
    cd4f:	89 c7                	mov    %eax,%edi
    cd51:	e8 50 91 ff ff       	callq  5ea6 <safe_unary_minus_func_uint32_t_u>
    cd56:	8b 05 e8 92 00 00    	mov    0x92e8(%rip),%eax        # 16044 <g_2+0x14>
    cd5c:	89 c2                	mov    %eax,%edx
    cd5e:	48 8b 85 10 f4 ff ff 	mov    -0xbf0(%rbp),%rax
    cd65:	88 10                	mov    %dl,(%rax)
    cd67:	48 8b 85 10 f4 ff ff 	mov    -0xbf0(%rbp),%rax
    cd6e:	0f b6 00             	movzbl (%rax),%eax
    cd71:	0f b6 c0             	movzbl %al,%eax
    cd74:	f7 d0                	not    %eax
    cd76:	89 c1                	mov    %eax,%ecx
    cd78:	0f b6 05 d1 92 00 00 	movzbl 0x92d1(%rip),%eax        # 16050 <g_24>
    cd7f:	0f b6 d0             	movzbl %al,%edx
    cd82:	8b 05 c0 92 00 00    	mov    0x92c0(%rip),%eax        # 16048 <g_2+0x18>
    cd88:	39 c2                	cmp    %eax,%edx
    cd8a:	0f 9c c0             	setl   %al
    cd8d:	0f b6 c0             	movzbl %al,%eax
    cd90:	39 c1                	cmp    %eax,%ecx
    cd92:	0f 9d c0             	setge  %al
    cd95:	0f b6 c0             	movzbl %al,%eax
    cd98:	48 c7 c6 f8 ff ff ff 	mov    $0xfffffffffffffff8,%rsi
    cd9f:	48 89 c7             	mov    %rax,%rdi
    cda2:	e8 d9 92 ff ff       	callq  6080 <safe_mod_func_uint64_t_u_u>
    cda7:	98                   	cwtl   
    cda8:	be 06 00 00 00       	mov    $0x6,%esi
    cdad:	89 c7                	mov    %eax,%edi
    cdaf:	e8 de 86 ff ff       	callq  5492 <safe_lshift_func_int16_t_s_s>
    cdb4:	8b 85 b0 f3 ff ff    	mov    -0xc50(%rbp),%eax
    cdba:	85 c0                	test   %eax,%eax
    cdbc:	74 07                	je     cdc5 <func_84+0x108>
    cdbe:	b8 01 00 00 00       	mov    $0x1,%eax
    cdc3:	eb 05                	jmp    cdca <func_84+0x10d>
    cdc5:	b8 00 00 00 00       	mov    $0x0,%eax
    cdca:	89 c2                	mov    %eax,%edx
    cdcc:	0f b7 85 94 f3 ff ff 	movzwl -0xc6c(%rbp),%eax
    cdd3:	21 d0                	and    %edx,%eax
    cdd5:	0f be c0             	movsbl %al,%eax
    cdd8:	be 01 00 00 00       	mov    $0x1,%esi
    cddd:	89 c7                	mov    %eax,%edi
    cddf:	e8 0e 84 ff ff       	callq  51f2 <safe_sub_func_int8_t_s_s>
    cde4:	84 c0                	test   %al,%al
    cde6:	75 08                	jne    cdf0 <func_84+0x133>
    cde8:	8b 85 b0 f3 ff ff    	mov    -0xc50(%rbp),%eax
    cdee:	85 c0                	test   %eax,%eax
    cdf0:	89 de                	mov    %ebx,%esi
    cdf2:	bf 00 00 00 00       	mov    $0x0,%edi
    cdf7:	e8 e5 86 ff ff       	callq  54e1 <safe_lshift_func_int16_t_s_u>
    cdfc:	66 85 c0             	test   %ax,%ax
    cdff:	0f 84 ad 1c 00 00    	je     eab2 <func_84+0x1df5>
    ce05:	8b 85 b0 f3 ff ff    	mov    -0xc50(%rbp),%eax
    ce0b:	85 c0                	test   %eax,%eax
    ce0d:	0f 84 9f 1c 00 00    	je     eab2 <func_84+0x1df5>
    ce13:	48 8d 05 6a 92 00 00 	lea    0x926a(%rip),%rax        # 16084 <g_108>
    ce1a:	48 89 85 28 f4 ff ff 	mov    %rax,-0xbd8(%rbp)
    ce21:	c7 85 b8 f3 ff ff f3 	movl   $0x8467e5f3,-0xc48(%rbp)
    ce28:	e5 67 84 
    ce2b:	48 8d 05 7a d9 00 00 	lea    0xd97a(%rip),%rax        # 1a7ac <g_119>
    ce32:	48 89 85 30 f4 ff ff 	mov    %rax,-0xbd0(%rbp)
    ce39:	48 8d 05 78 d9 00 00 	lea    0xd978(%rip),%rax        # 1a7b8 <g_121+0x8>
    ce40:	48 89 85 38 f4 ff ff 	mov    %rax,-0xbc8(%rbp)
    ce47:	c6 85 ab f3 ff ff fb 	movb   $0xfb,-0xc55(%rbp)
    ce4e:	48 8d 05 34 92 00 00 	lea    0x9234(%rip),%rax        # 16089 <g_124+0x1>
    ce55:	48 89 85 40 f4 ff ff 	mov    %rax,-0xbc0(%rbp)
    ce5c:	c7 85 c4 f3 ff ff 11 	movl   $0xf8564011,-0xc3c(%rbp)
    ce63:	40 56 f8 
    ce66:	66 c7 85 ac f3 ff ff 	movw   $0x6e45,-0xc54(%rbp)
    ce6d:	45 6e 
    ce6f:	c7 85 c8 f3 ff ff 3e 	movl   $0xf811f13e,-0xc38(%rbp)
    ce76:	f1 11 f8 
    ce79:	44 0f b6 a5 ab f3 ff 	movzbl -0xc55(%rbp),%r12d
    ce80:	ff 
    ce81:	48 8d 85 b0 f3 ff ff 	lea    -0xc50(%rbp),%rax
    ce88:	48 39 85 98 f3 ff ff 	cmp    %rax,-0xc68(%rbp)
    ce8f:	41 0f 94 c7          	sete   %r15b
    ce93:	48 8b 85 28 f4 ff ff 	mov    -0xbd8(%rbp),%rax
    ce9a:	8b 18                	mov    (%rax),%ebx
    ce9c:	8d 53 01             	lea    0x1(%rbx),%edx
    ce9f:	48 8b 85 28 f4 ff ff 	mov    -0xbd8(%rbp),%rax
    cea6:	89 10                	mov    %edx,(%rax)
    cea8:	48 8b 85 98 f3 ff ff 	mov    -0xc68(%rbp),%rax
    ceaf:	8b 00                	mov    (%rax),%eax
    ceb1:	89 85 90 f3 ff ff    	mov    %eax,-0xc70(%rbp)
    ceb7:	44 8b ad b8 f3 ff ff 	mov    -0xc48(%rbp),%r13d
    cebe:	8b 85 b0 f3 ff ff    	mov    -0xc50(%rbp),%eax
    cec4:	41 89 c6             	mov    %eax,%r14d
    cec7:	0f b7 95 94 f3 ff ff 	movzwl -0xc6c(%rbp),%edx
    cece:	0f b6 05 d3 d8 00 00 	movzbl 0xd8d3(%rip),%eax        # 1a7a8 <g_96>
    ced5:	0f b6 c0             	movzbl %al,%eax
    ced8:	48 89 d6             	mov    %rdx,%rsi
    cedb:	48 89 c7             	mov    %rax,%rdi
    cede:	e8 cc 91 ff ff       	callq  60af <safe_div_func_uint64_t_u_u>
    cee3:	66 81 bd 94 f3 ff ff 	cmpw   $0xfe,-0xc6c(%rbp)
    ceea:	fe 00 
    ceec:	0f 94 c0             	sete   %al
    ceef:	0f b6 c0             	movzbl %al,%eax
    cef2:	44 89 f6             	mov    %r14d,%esi
    cef5:	89 c7                	mov    %eax,%edi
    cef7:	e8 50 8d ff ff       	callq  5c4c <safe_lshift_func_uint8_t_u_u>
    cefc:	0f b6 c0             	movzbl %al,%eax
    ceff:	44 89 ee             	mov    %r13d,%esi
    cf02:	89 c7                	mov    %eax,%edi
    cf04:	e8 89 85 ff ff       	callq  5492 <safe_lshift_func_int16_t_s_s>
    cf09:	83 c8 02             	or     $0x2,%eax
    cf0c:	0f bf d0             	movswl %ax,%edx
    cf0f:	48 8b 85 30 f4 ff ff 	mov    -0xbd0(%rbp),%rax
    cf16:	89 10                	mov    %edx,(%rax)
    cf18:	48 8b 85 30 f4 ff ff 	mov    -0xbd0(%rbp),%rax
    cf1f:	8b 00                	mov    (%rax),%eax
    cf21:	39 85 90 f3 ff ff    	cmp    %eax,-0xc70(%rbp)
    cf27:	0f 95 c0             	setne  %al
    cf2a:	0f b6 d0             	movzbl %al,%edx
    cf2d:	48 8b 85 38 f4 ff ff 	mov    -0xbc8(%rbp),%rax
    cf34:	48 89 10             	mov    %rdx,(%rax)
    cf37:	48 8b 85 38 f4 ff ff 	mov    -0xbc8(%rbp),%rax
    cf3e:	48 8b 10             	mov    (%rax),%rdx
    cf41:	0f b6 05 08 91 00 00 	movzbl 0x9108(%rip),%eax        # 16050 <g_24>
    cf48:	0f b6 c0             	movzbl %al,%eax
    cf4b:	48 21 c2             	and    %rax,%rdx
    cf4e:	8b 05 f0 90 00 00    	mov    0x90f0(%rip),%eax        # 16044 <g_2+0x14>
    cf54:	48 98                	cltq   
    cf56:	48 39 c2             	cmp    %rax,%rdx
    cf59:	0f 92 c0             	setb   %al
    cf5c:	0f b6 c0             	movzbl %al,%eax
    cf5f:	39 c3                	cmp    %eax,%ebx
    cf61:	0f 96 c0             	setbe  %al
    cf64:	44 31 f8             	xor    %r15d,%eax
    cf67:	0f b6 c0             	movzbl %al,%eax
    cf6a:	44 89 e6             	mov    %r12d,%esi
    cf6d:	89 c7                	mov    %eax,%edi
    cf6f:	e8 8b 87 ff ff       	callq  56ff <safe_div_func_int32_t_s_s>
    cf74:	48 be 31 74 46 3d 59 	movabs $0x3b84d8593d467431,%rsi
    cf7b:	d8 84 3b 
    cf7e:	bf 01 00 00 00       	mov    $0x1,%edi
    cf83:	e8 6f 8a ff ff       	callq  59f7 <safe_div_func_int64_t_s_s>
    cf88:	8b 15 d2 90 00 00    	mov    0x90d2(%rip),%edx        # 16060 <g_64>
    cf8e:	48 63 d2             	movslq %edx,%rdx
    cf91:	48 39 d0             	cmp    %rdx,%rax
    cf94:	0f 9f c0             	setg   %al
    cf97:	89 c2                	mov    %eax,%edx
    cf99:	48 8b 85 40 f4 ff ff 	mov    -0xbc0(%rbp),%rax
    cfa0:	88 10                	mov    %dl,(%rax)
    cfa2:	8b 85 b8 f3 ff ff    	mov    -0xc48(%rbp),%eax
    cfa8:	83 e0 01             	and    $0x1,%eax
    cfab:	85 c0                	test   %eax,%eax
    cfad:	0f 85 a6 06 00 00    	jne    d659 <func_84+0x99c>
    cfb3:	48 c7 85 08 f4 ff ff 	movq   $0x0,-0xbf8(%rbp)
    cfba:	00 00 00 00 
    cfbe:	48 8d 85 08 f4 ff ff 	lea    -0xbf8(%rbp),%rax
    cfc5:	48 89 85 f0 f5 ff ff 	mov    %rax,-0xa10(%rbp)
    cfcc:	48 8d 85 08 f4 ff ff 	lea    -0xbf8(%rbp),%rax
    cfd3:	48 89 85 f8 f5 ff ff 	mov    %rax,-0xa08(%rbp)
    cfda:	48 8d 85 08 f4 ff ff 	lea    -0xbf8(%rbp),%rax
    cfe1:	48 89 85 00 f6 ff ff 	mov    %rax,-0xa00(%rbp)
    cfe8:	48 8d 85 08 f4 ff ff 	lea    -0xbf8(%rbp),%rax
    cfef:	48 89 85 08 f6 ff ff 	mov    %rax,-0x9f8(%rbp)
    cff6:	48 8d 85 08 f4 ff ff 	lea    -0xbf8(%rbp),%rax
    cffd:	48 89 85 10 f6 ff ff 	mov    %rax,-0x9f0(%rbp)
    d004:	48 8d 85 08 f4 ff ff 	lea    -0xbf8(%rbp),%rax
    d00b:	48 89 85 18 f6 ff ff 	mov    %rax,-0x9e8(%rbp)
    d012:	48 8d 85 08 f4 ff ff 	lea    -0xbf8(%rbp),%rax
    d019:	48 89 85 20 f6 ff ff 	mov    %rax,-0x9e0(%rbp)
    d020:	48 c7 85 28 f6 ff ff 	movq   $0x0,-0x9d8(%rbp)
    d027:	00 00 00 00 
    d02b:	48 8d 85 08 f4 ff ff 	lea    -0xbf8(%rbp),%rax
    d032:	48 89 85 30 f6 ff ff 	mov    %rax,-0x9d0(%rbp)
    d039:	48 8d 85 08 f4 ff ff 	lea    -0xbf8(%rbp),%rax
    d040:	48 89 85 38 f6 ff ff 	mov    %rax,-0x9c8(%rbp)
    d047:	48 c7 85 40 f6 ff ff 	movq   $0x0,-0x9c0(%rbp)
    d04e:	00 00 00 00 
    d052:	48 8d 85 08 f4 ff ff 	lea    -0xbf8(%rbp),%rax
    d059:	48 89 85 48 f6 ff ff 	mov    %rax,-0x9b8(%rbp)
    d060:	48 8d 85 08 f4 ff ff 	lea    -0xbf8(%rbp),%rax
    d067:	48 89 85 50 f6 ff ff 	mov    %rax,-0x9b0(%rbp)
    d06e:	48 8d 85 08 f4 ff ff 	lea    -0xbf8(%rbp),%rax
    d075:	48 89 85 58 f6 ff ff 	mov    %rax,-0x9a8(%rbp)
    d07c:	48 8d 85 08 f4 ff ff 	lea    -0xbf8(%rbp),%rax
    d083:	48 89 85 60 f6 ff ff 	mov    %rax,-0x9a0(%rbp)
    d08a:	48 8d 85 08 f4 ff ff 	lea    -0xbf8(%rbp),%rax
    d091:	48 89 85 68 f6 ff ff 	mov    %rax,-0x998(%rbp)
    d098:	48 8d 85 08 f4 ff ff 	lea    -0xbf8(%rbp),%rax
    d09f:	48 89 85 70 f6 ff ff 	mov    %rax,-0x990(%rbp)
    d0a6:	48 8d 85 08 f4 ff ff 	lea    -0xbf8(%rbp),%rax
    d0ad:	48 89 85 78 f6 ff ff 	mov    %rax,-0x988(%rbp)
    d0b4:	48 8d 85 08 f4 ff ff 	lea    -0xbf8(%rbp),%rax
    d0bb:	48 89 85 80 f6 ff ff 	mov    %rax,-0x980(%rbp)
    d0c2:	48 8d 85 08 f4 ff ff 	lea    -0xbf8(%rbp),%rax
    d0c9:	48 89 85 88 f6 ff ff 	mov    %rax,-0x978(%rbp)
    d0d0:	48 8d 85 08 f4 ff ff 	lea    -0xbf8(%rbp),%rax
    d0d7:	48 89 85 90 f6 ff ff 	mov    %rax,-0x970(%rbp)
    d0de:	48 8d 85 08 f4 ff ff 	lea    -0xbf8(%rbp),%rax
    d0e5:	48 89 85 98 f6 ff ff 	mov    %rax,-0x968(%rbp)
    d0ec:	48 c7 85 a0 f6 ff ff 	movq   $0x0,-0x960(%rbp)
    d0f3:	00 00 00 00 
    d0f7:	48 8d 85 08 f4 ff ff 	lea    -0xbf8(%rbp),%rax
    d0fe:	48 89 85 a8 f6 ff ff 	mov    %rax,-0x958(%rbp)
    d105:	48 8d 85 08 f4 ff ff 	lea    -0xbf8(%rbp),%rax
    d10c:	48 89 85 b0 f6 ff ff 	mov    %rax,-0x950(%rbp)
    d113:	48 c7 85 b8 f6 ff ff 	movq   $0x0,-0x948(%rbp)
    d11a:	00 00 00 00 
    d11e:	48 8d 85 08 f4 ff ff 	lea    -0xbf8(%rbp),%rax
    d125:	48 89 85 c0 f6 ff ff 	mov    %rax,-0x940(%rbp)
    d12c:	48 8d 85 08 f4 ff ff 	lea    -0xbf8(%rbp),%rax
    d133:	48 89 85 c8 f6 ff ff 	mov    %rax,-0x938(%rbp)
    d13a:	48 8d 85 08 f4 ff ff 	lea    -0xbf8(%rbp),%rax
    d141:	48 89 85 d0 f6 ff ff 	mov    %rax,-0x930(%rbp)
    d148:	48 8d 85 08 f4 ff ff 	lea    -0xbf8(%rbp),%rax
    d14f:	48 89 85 d8 f6 ff ff 	mov    %rax,-0x928(%rbp)
    d156:	48 8d 85 08 f4 ff ff 	lea    -0xbf8(%rbp),%rax
    d15d:	48 89 85 e0 f6 ff ff 	mov    %rax,-0x920(%rbp)
    d164:	48 8d 85 08 f4 ff ff 	lea    -0xbf8(%rbp),%rax
    d16b:	48 89 85 e8 f6 ff ff 	mov    %rax,-0x918(%rbp)
    d172:	48 8d 85 08 f4 ff ff 	lea    -0xbf8(%rbp),%rax
    d179:	48 89 85 f0 f6 ff ff 	mov    %rax,-0x910(%rbp)
    d180:	48 8d 85 08 f4 ff ff 	lea    -0xbf8(%rbp),%rax
    d187:	48 89 85 f8 f6 ff ff 	mov    %rax,-0x908(%rbp)
    d18e:	48 8d 85 08 f4 ff ff 	lea    -0xbf8(%rbp),%rax
    d195:	48 89 85 00 f7 ff ff 	mov    %rax,-0x900(%rbp)
    d19c:	48 8d 85 08 f4 ff ff 	lea    -0xbf8(%rbp),%rax
    d1a3:	48 89 85 08 f7 ff ff 	mov    %rax,-0x8f8(%rbp)
    d1aa:	48 8d 85 08 f4 ff ff 	lea    -0xbf8(%rbp),%rax
    d1b1:	48 89 85 10 f7 ff ff 	mov    %rax,-0x8f0(%rbp)
    d1b8:	48 c7 85 18 f7 ff ff 	movq   $0x0,-0x8e8(%rbp)
    d1bf:	00 00 00 00 
    d1c3:	48 8d 85 08 f4 ff ff 	lea    -0xbf8(%rbp),%rax
    d1ca:	48 89 85 20 f7 ff ff 	mov    %rax,-0x8e0(%rbp)
    d1d1:	48 8d 85 08 f4 ff ff 	lea    -0xbf8(%rbp),%rax
    d1d8:	48 89 85 28 f7 ff ff 	mov    %rax,-0x8d8(%rbp)
    d1df:	48 c7 85 30 f7 ff ff 	movq   $0x0,-0x8d0(%rbp)
    d1e6:	00 00 00 00 
    d1ea:	48 8d 85 08 f4 ff ff 	lea    -0xbf8(%rbp),%rax
    d1f1:	48 89 85 38 f7 ff ff 	mov    %rax,-0x8c8(%rbp)
    d1f8:	48 8d 85 08 f4 ff ff 	lea    -0xbf8(%rbp),%rax
    d1ff:	48 89 85 40 f7 ff ff 	mov    %rax,-0x8c0(%rbp)
    d206:	48 8d 85 08 f4 ff ff 	lea    -0xbf8(%rbp),%rax
    d20d:	48 89 85 48 f7 ff ff 	mov    %rax,-0x8b8(%rbp)
    d214:	48 8d 85 08 f4 ff ff 	lea    -0xbf8(%rbp),%rax
    d21b:	48 89 85 50 f7 ff ff 	mov    %rax,-0x8b0(%rbp)
    d222:	48 8d 05 63 8e 00 00 	lea    0x8e63(%rip),%rax        # 1608c <g_129>
    d229:	48 89 85 20 f5 ff ff 	mov    %rax,-0xae0(%rbp)
    d230:	48 8d 85 a0 f9 ff ff 	lea    -0x660(%rbp),%rax
    d237:	48 8d 15 02 be 00 00 	lea    0xbe02(%rip),%rdx        # 19040 <g_1346+0x4f0>
    d23e:	b9 7e 00 00 00       	mov    $0x7e,%ecx
    d243:	48 89 c7             	mov    %rax,%rdi
    d246:	48 89 d6             	mov    %rdx,%rsi
    d249:	f3 48 a5             	rep movsq %ds:(%rsi),%es:(%rdi)
    d24c:	48 8d 85 a0 f9 ff ff 	lea    -0x660(%rbp),%rax
    d253:	48 05 b0 00 00 00    	add    $0xb0,%rax
    d259:	48 89 85 28 f5 ff ff 	mov    %rax,-0xad8(%rbp)
    d260:	48 8d 05 a9 96 00 00 	lea    0x96a9(%rip),%rax        # 16910 <g_192>
    d267:	48 89 85 30 f5 ff ff 	mov    %rax,-0xad0(%rbp)
    d26e:	48 8d 85 b0 f3 ff ff 	lea    -0xc50(%rbp),%rax
    d275:	48 89 05 44 d5 00 00 	mov    %rax,0xd544(%rip)        # 1a7c0 <g_127>
    d27c:	48 8b 85 28 f5 ff ff 	mov    -0xad8(%rbp),%rax
    d283:	48 8b 95 20 f5 ff ff 	mov    -0xae0(%rbp),%rdx
    d28a:	48 89 10             	mov    %rdx,(%rax)
    d28d:	8b 05 9d 92 00 00    	mov    0x929d(%rip),%eax        # 16530 <g_173>
    d293:	0f b7 c0             	movzwl %ax,%eax
    d296:	be 0f 00 00 00       	mov    $0xf,%esi
    d29b:	89 c7                	mov    %eax,%edi
    d29d:	e8 d8 8b ff ff       	callq  5e7a <safe_rshift_func_uint16_t_u_u>
    d2a2:	66 85 c0             	test   %ax,%ax
    d2a5:	0f 84 d4 01 00 00    	je     d47f <func_84+0x7c2>
    d2ab:	48 8d 05 92 8d 00 00 	lea    0x8d92(%rip),%rax        # 16044 <g_2+0x14>
    d2b2:	48 89 85 48 f5 ff ff 	mov    %rax,-0xab8(%rbp)
    d2b9:	48 8b 85 48 f5 ff ff 	mov    -0xab8(%rbp),%rax
    d2c0:	48 89 85 98 f3 ff ff 	mov    %rax,-0xc68(%rbp)
    d2c7:	48 8b 85 98 f3 ff ff 	mov    -0xc68(%rbp),%rax
    d2ce:	48 89 05 eb d4 00 00 	mov    %rax,0xd4eb(%rip)        # 1a7c0 <g_127>
    d2d5:	8b 05 4d 92 00 00    	mov    0x924d(%rip),%eax        # 16528 <g_171>
    d2db:	89 c0                	mov    %eax,%eax
    d2dd:	48 89 c6             	mov    %rax,%rsi
    d2e0:	48 bf cf e4 a4 a1 24 	movabs $0x93370524a1a4e4cf,%rdi
    d2e7:	05 37 93 
    d2ea:	e8 52 85 ff ff       	callq  5841 <safe_add_func_int64_t_s_s>
    d2ef:	48 85 c0             	test   %rax,%rax
    d2f2:	74 57                	je     d34b <func_84+0x68e>
    d2f4:	c7 05 ae d4 00 00 00 	movl   $0x0,0xd4ae(%rip)        # 1a7ac <g_119>
    d2fb:	00 00 00 
    d2fe:	eb 34                	jmp    d334 <func_84+0x677>
    d300:	8b 05 a6 d4 00 00    	mov    0xd4a6(%rip),%eax        # 1a7ac <g_119>
    d306:	89 c0                	mov    %eax,%eax
    d308:	48 8d 14 c5 00 00 00 	lea    0x0(,%rax,8),%rdx
    d30f:	00 
    d310:	48 8d 05 99 d4 00 00 	lea    0xd499(%rip),%rax        # 1a7b0 <g_121>
    d317:	48 bb b7 e3 92 2e fe 	movabs $0x73f8b2fe2e92e3b7,%rbx
    d31e:	b2 f8 73 
    d321:	48 89 1c 02          	mov    %rbx,(%rdx,%rax,1)
    d325:	8b 05 81 d4 00 00    	mov    0xd481(%rip),%eax        # 1a7ac <g_119>
    d32b:	83 c0 01             	add    $0x1,%eax
    d32e:	89 05 78 d4 00 00    	mov    %eax,0xd478(%rip)        # 1a7ac <g_119>
    d334:	8b 05 72 d4 00 00    	mov    0xd472(%rip),%eax        # 1a7ac <g_119>
    d33a:	83 f8 01             	cmp    $0x1,%eax
    d33d:	76 c1                	jbe    d300 <func_84+0x643>
    d33f:	0f b7 85 94 f3 ff ff 	movzwl -0xc6c(%rbp),%eax
    d346:	e9 c6 1a 00 00       	jmpq   ee11 <func_84+0x2154>
    d34b:	c7 85 f4 f3 ff ff 01 	movl   $0x1,-0xc0c(%rbp)
    d352:	00 00 00 
    d355:	c7 85 cc f3 ff ff 00 	movl   $0x0,-0xc34(%rbp)
    d35c:	00 00 00 
    d35f:	eb 1a                	jmp    d37b <func_84+0x6be>
    d361:	8b 85 cc f3 ff ff    	mov    -0xc34(%rbp),%eax
    d367:	48 98                	cltq   
    d369:	c7 84 85 60 f7 ff ff 	movl   $0x9889812e,-0x8a0(%rbp,%rax,4)
    d370:	2e 81 89 98 
    d374:	83 85 cc f3 ff ff 01 	addl   $0x1,-0xc34(%rbp)
    d37b:	83 bd cc f3 ff ff 03 	cmpl   $0x3,-0xc34(%rbp)
    d382:	7e dd                	jle    d361 <func_84+0x6a4>
    d384:	8b 85 b0 f3 ff ff    	mov    -0xc50(%rbp),%eax
    d38a:	89 05 7c 95 00 00    	mov    %eax,0x957c(%rip)        # 1690c <g_181>
    d390:	8b 05 76 95 00 00    	mov    0x9576(%rip),%eax        # 1690c <g_181>
    d396:	85 c0                	test   %eax,%eax
    d398:	0f 84 d5 00 00 00    	je     d473 <func_84+0x7b6>
    d39e:	48 c7 85 50 f5 ff ff 	movq   $0x0,-0xab0(%rbp)
    d3a5:	00 00 00 00 
    d3a9:	c7 85 f8 f3 ff ff 00 	movl   $0x0,-0xc08(%rbp)
    d3b0:	00 00 00 
    d3b3:	8b 85 68 f7 ff ff    	mov    -0x898(%rbp),%eax
    d3b9:	83 c0 01             	add    $0x1,%eax
    d3bc:	89 85 68 f7 ff ff    	mov    %eax,-0x898(%rbp)
    d3c2:	48 8b 85 50 f5 ff ff 	mov    -0xab0(%rbp),%rax
    d3c9:	89 05 3d 95 00 00    	mov    %eax,0x953d(%rip)        # 1690c <g_181>
    d3cf:	0f b6 05 3a 95 00 00 	movzbl 0x953a(%rip),%eax        # 16910 <g_192>
    d3d6:	0f be c0             	movsbl %al,%eax
    d3d9:	8b 95 f4 f3 ff ff    	mov    -0xc0c(%rbp),%edx
    d3df:	89 d6                	mov    %edx,%esi
    d3e1:	89 c7                	mov    %eax,%edi
    d3e3:	e8 e8 8a ff ff       	callq  5ed0 <safe_sub_func_uint32_t_u_u>
    d3e8:	48 8b 05 b1 cb 00 00 	mov    0xcbb1(%rip),%rax        # 19fa0 <g_191>
    d3ef:	48 39 85 30 f5 ff ff 	cmp    %rax,-0xad0(%rbp)
    d3f6:	0f 95 c0             	setne  %al
    d3f9:	0f b6 d0             	movzbl %al,%edx
    d3fc:	0f b7 85 94 f3 ff ff 	movzwl -0xc6c(%rbp),%eax
    d403:	83 f0 6e             	xor    $0x6e,%eax
    d406:	89 c1                	mov    %eax,%ecx
    d408:	48 8b 85 40 f4 ff ff 	mov    -0xbc0(%rbp),%rax
    d40f:	88 08                	mov    %cl,(%rax)
    d411:	48 8b 85 40 f4 ff ff 	mov    -0xbc0(%rbp),%rax
    d418:	0f b6 00             	movzbl (%rax),%eax
    d41b:	0f be c0             	movsbl %al,%eax
    d41e:	89 d6                	mov    %edx,%esi
    d420:	89 c7                	mov    %eax,%edi
    d422:	e8 eb 7d ff ff       	callq  5212 <safe_mul_func_int8_t_s_s>
    d427:	0f be d8             	movsbl %al,%ebx
    d42a:	8b 05 d0 8f 00 00    	mov    0x8fd0(%rip),%eax        # 16400 <g_161>
    d430:	89 c0                	mov    %eax,%eax
    d432:	48 89 c7             	mov    %rax,%rdi
    d435:	e8 dc 83 ff ff       	callq  5816 <safe_unary_minus_func_int64_t_s>
    d43a:	0f be c0             	movsbl %al,%eax
    d43d:	89 de                	mov    %ebx,%esi
    d43f:	89 c7                	mov    %eax,%edi
    d441:	e8 cc 7d ff ff       	callq  5212 <safe_mul_func_int8_t_s_s>
    d446:	c7 85 f8 f3 ff ff 01 	movl   $0x1,-0xc08(%rbp)
    d44d:	00 00 00 
    d450:	48 8b 05 69 d3 00 00 	mov    0xd369(%rip),%rax        # 1a7c0 <g_127>
    d457:	8b 10                	mov    (%rax),%edx
    d459:	8b 85 b0 f3 ff ff    	mov    -0xc50(%rbp),%eax
    d45f:	31 d0                	xor    %edx,%eax
    d461:	89 85 b0 f3 ff ff    	mov    %eax,-0xc50(%rbp)
    d467:	0f b7 85 94 f3 ff ff 	movzwl -0xc6c(%rbp),%eax
    d46e:	e9 9e 19 00 00       	jmpq   ee11 <func_84+0x2154>
    d473:	0f b7 85 94 f3 ff ff 	movzwl -0xc6c(%rbp),%eax
    d47a:	e9 92 19 00 00       	jmpq   ee11 <func_84+0x2154>
    d47f:	48 8d 05 8a 94 00 00 	lea    0x948a(%rip),%rax        # 16910 <g_192>
    d486:	48 89 85 38 f5 ff ff 	mov    %rax,-0xac8(%rbp)
    d48d:	48 c7 85 40 f5 ff ff 	movq   $0x0,-0xac0(%rbp)
    d494:	00 00 00 00 
    d498:	48 8d 85 60 f7 ff ff 	lea    -0x8a0(%rbp),%rax
    d49f:	48 8d 15 9a bf 00 00 	lea    0xbf9a(%rip),%rdx        # 19440 <g_1346+0x8f0>
    d4a6:	b9 46 00 00 00       	mov    $0x46,%ecx
    d4ab:	48 89 c7             	mov    %rax,%rdi
    d4ae:	48 89 d6             	mov    %rdx,%rsi
    d4b1:	f3 48 a5             	rep movsq %ds:(%rsi),%es:(%rdi)
    d4b4:	c7 85 f0 f3 ff ff 01 	movl   $0x1,-0xc10(%rbp)
    d4bb:	00 00 00 
    d4be:	c7 85 d0 f3 ff ff 00 	movl   $0x0,-0xc30(%rbp)
    d4c5:	00 00 00 
    d4c8:	eb 1b                	jmp    d4e5 <func_84+0x828>
    d4ca:	8b 85 d0 f3 ff ff    	mov    -0xc30(%rbp),%eax
    d4d0:	48 98                	cltq   
    d4d2:	48 c7 84 c5 a0 f5 ff 	movq   $0x0,-0xa60(%rbp,%rax,8)
    d4d9:	ff 00 00 00 00 
    d4de:	83 85 d0 f3 ff ff 01 	addl   $0x1,-0xc30(%rbp)
    d4e5:	83 bd d0 f3 ff ff 01 	cmpl   $0x1,-0xc30(%rbp)
    d4ec:	7e dc                	jle    d4ca <func_84+0x80d>
    d4ee:	0f b7 05 7b 8b 00 00 	movzwl 0x8b7b(%rip),%eax        # 16070 <g_106>
    d4f5:	0f bf d0             	movswl %ax,%edx
    d4f8:	48 8b 85 98 f3 ff ff 	mov    -0xc68(%rbp),%rax
    d4ff:	8b 00                	mov    (%rax),%eax
    d501:	39 c2                	cmp    %eax,%edx
    d503:	0f 94 c0             	sete   %al
    d506:	0f b6 d8             	movzbl %al,%ebx
    d509:	8b 05 e1 8e 00 00    	mov    0x8ee1(%rip),%eax        # 163f0 <g_156>
    d50f:	0f b7 d0             	movzwl %ax,%edx
    d512:	48 8b 85 10 f4 ff ff 	mov    -0xbf0(%rbp),%rax
    d519:	48 89 05 b0 d2 00 00 	mov    %rax,0xd2b0(%rip)        # 1a7d0 <g_208>
    d520:	8b 05 e2 8e 00 00    	mov    0x8ee2(%rip),%eax        # 16408 <g_163>
    d526:	89 c0                	mov    %eax,%eax
    d528:	48 89 05 a9 d2 00 00 	mov    %rax,0xd2a9(%rip)        # 1a7d8 <g_210>
    d52f:	48 8b 0d a2 d2 00 00 	mov    0xd2a2(%rip),%rcx        # 1a7d8 <g_210>
    d536:	0f b7 85 94 f3 ff ff 	movzwl -0xc6c(%rbp),%eax
    d53d:	48 39 c1             	cmp    %rax,%rcx
    d540:	0f 9d c0             	setge  %al
    d543:	0f b6 c8             	movzbl %al,%ecx
    d546:	48 8b 05 53 ca 00 00 	mov    0xca53(%rip),%rax        # 19fa0 <g_191>
    d54d:	0f b6 00             	movzbl (%rax),%eax
    d550:	0f be c0             	movsbl %al,%eax
    d553:	39 c1                	cmp    %eax,%ecx
    d555:	0f 95 c0             	setne  %al
    d558:	0f b6 c8             	movzbl %al,%ecx
    d55b:	48 8b 05 3e ca 00 00 	mov    0xca3e(%rip),%rax        # 19fa0 <g_191>
    d562:	0f b6 00             	movzbl (%rax),%eax
    d565:	0f be c0             	movsbl %al,%eax
    d568:	39 c1                	cmp    %eax,%ecx
    d56a:	0f 9c c0             	setl   %al
    d56d:	0f b6 c0             	movzbl %al,%eax
    d570:	89 d6                	mov    %edx,%esi
    d572:	89 c7                	mov    %eax,%edi
    d574:	e8 86 87 ff ff       	callq  5cff <safe_add_func_uint16_t_u_u>
    d579:	0f b7 d0             	movzwl %ax,%edx
    d57c:	8b 05 de 8a 00 00    	mov    0x8ade(%rip),%eax        # 16060 <g_64>
    d582:	39 c2                	cmp    %eax,%edx
    d584:	0f 94 c0             	sete   %al
    d587:	0f b6 d0             	movzbl %al,%edx
    d58a:	8b 85 b8 f3 ff ff    	mov    -0xc48(%rbp),%eax
    d590:	39 c2                	cmp    %eax,%edx
    d592:	0f 9f c0             	setg   %al
    d595:	0f b6 d0             	movzbl %al,%edx
    d598:	48 8b 05 01 ca 00 00 	mov    0xca01(%rip),%rax        # 19fa0 <g_191>
    d59f:	0f b6 00             	movzbl (%rax),%eax
    d5a2:	84 c0                	test   %al,%al
    d5a4:	0f 9f c0             	setg   %al
    d5a7:	0f b6 c0             	movzbl %al,%eax
    d5aa:	89 d6                	mov    %edx,%esi
    d5ac:	89 c7                	mov    %eax,%edi
    d5ae:	e8 33 89 ff ff       	callq  5ee6 <safe_mul_func_uint32_t_u_u>
    d5b3:	0f b7 95 94 f3 ff ff 	movzwl -0xc6c(%rbp),%edx
    d5ba:	39 d0                	cmp    %edx,%eax
    d5bc:	0f 93 c0             	setae  %al
    d5bf:	89 c2                	mov    %eax,%edx
    d5c1:	48 8b 85 40 f4 ff ff 	mov    -0xbc0(%rbp),%rax
    d5c8:	88 10                	mov    %dl,(%rax)
    d5ca:	48 8b 85 40 f4 ff ff 	mov    -0xbc0(%rbp),%rax
    d5d1:	0f b6 00             	movzbl (%rax),%eax
    d5d4:	0f be c0             	movsbl %al,%eax
    d5d7:	09 d8                	or     %ebx,%eax
    d5d9:	89 85 f0 f3 ff ff    	mov    %eax,-0xc10(%rbp)
    d5df:	83 bd f0 f3 ff ff 00 	cmpl   $0x0,-0xc10(%rbp)
    d5e6:	75 09                	jne    d5f1 <func_84+0x934>
    d5e8:	80 bd ab f3 ff ff 00 	cmpb   $0x0,-0xc55(%rbp)
    d5ef:	74 07                	je     d5f8 <func_84+0x93b>
    d5f1:	b8 01 00 00 00       	mov    $0x1,%eax
    d5f6:	eb 05                	jmp    d5fd <func_84+0x940>
    d5f8:	b8 00 00 00 00       	mov    $0x0,%eax
    d5fd:	3d 2f 94 00 00       	cmp    $0x942f,%eax
    d602:	0f 9e c0             	setle  %al
    d605:	0f b6 c8             	movzbl %al,%ecx
    d608:	48 8b 05 b1 d1 00 00 	mov    0xd1b1(%rip),%rax        # 1a7c0 <g_127>
    d60f:	8b 10                	mov    (%rax),%edx
    d611:	48 8b 05 a8 d1 00 00 	mov    0xd1a8(%rip),%rax        # 1a7c0 <g_127>
    d618:	21 ca                	and    %ecx,%edx
    d61a:	89 10                	mov    %edx,(%rax)
    d61c:	8b 9d b0 f3 ff ff    	mov    -0xc50(%rbp),%ebx
    d622:	be 9b 56 c3 98       	mov    $0x98c3569b,%esi
    d627:	bf 01 00 00 00       	mov    $0x1,%edi
    d62c:	e8 9f 88 ff ff       	callq  5ed0 <safe_sub_func_uint32_t_u_u>
    d631:	83 e0 01             	and    $0x1,%eax
    d634:	89 de                	mov    %ebx,%esi
    d636:	89 c7                	mov    %eax,%edi
    d638:	e8 c8 7f ff ff       	callq  5605 <safe_sub_func_int32_t_s_s>
    d63d:	8b 15 c9 92 00 00    	mov    0x92c9(%rip),%edx        # 1690c <g_181>
    d643:	21 d0                	and    %edx,%eax
    d645:	89 05 c1 92 00 00    	mov    %eax,0x92c1(%rip)        # 1690c <g_181>
    d64b:	90                   	nop
    d64c:	8b 05 3e 8a 00 00    	mov    0x8a3e(%rip),%eax        # 16090 <g_132>
    d652:	89 c0                	mov    %eax,%eax
    d654:	e9 b8 17 00 00       	jmpq   ee11 <func_84+0x2154>
    d659:	48 8d 05 78 d1 00 00 	lea    0xd178(%rip),%rax        # 1a7d8 <g_210>
    d660:	48 89 85 48 f4 ff ff 	mov    %rax,-0xbb8(%rbp)
    d667:	c7 85 bc f3 ff ff 0e 	movl   $0x8c781c0e,-0xc44(%rbp)
    d66e:	1c 78 8c 
    d671:	c7 85 80 f5 ff ff 01 	movl   $0x1,-0xa80(%rbp)
    d678:	00 00 00 
    d67b:	c7 85 84 f5 ff ff 53 	movl   $0x7ec74853,-0xa7c(%rbp)
    d682:	48 c7 7e 
    d685:	c7 85 88 f5 ff ff 53 	movl   $0x7ec74853,-0xa78(%rbp)
    d68c:	48 c7 7e 
    d68f:	c7 85 8c f5 ff ff 01 	movl   $0x1,-0xa74(%rbp)
    d696:	00 00 00 
    d699:	c7 85 90 f5 ff ff 53 	movl   $0x7ec74853,-0xa70(%rbp)
    d6a0:	48 c7 7e 
    d6a3:	c7 85 94 f5 ff ff 53 	movl   $0x7ec74853,-0xa6c(%rbp)
    d6aa:	48 c7 7e 
    d6ad:	c7 85 98 f5 ff ff 01 	movl   $0x1,-0xa68(%rbp)
    d6b4:	00 00 00 
    d6b7:	48 8d 05 5c 92 00 00 	lea    0x925c(%rip),%rax        # 1691a <g_298>
    d6be:	48 89 85 50 f4 ff ff 	mov    %rax,-0xbb0(%rbp)
    d6c5:	c6 05 44 92 00 00 01 	movb   $0x1,0x9244(%rip)        # 16910 <g_192>
    d6cc:	e9 31 0e 00 00       	jmpq   e502 <func_84+0x1845>
    d6d1:	48 c7 85 a0 f5 ff ff 	movq   $0x0,-0xa60(%rbp)
    d6d8:	00 00 00 00 
    d6dc:	48 8d 05 f5 d0 00 00 	lea    0xd0f5(%rip),%rax        # 1a7d8 <g_210>
    d6e3:	48 89 85 a8 f5 ff ff 	mov    %rax,-0xa58(%rbp)
    d6ea:	48 c7 85 b0 f5 ff ff 	movq   $0x0,-0xa50(%rbp)
    d6f1:	00 00 00 00 
    d6f5:	48 8d 05 dc d0 00 00 	lea    0xd0dc(%rip),%rax        # 1a7d8 <g_210>
    d6fc:	48 89 85 b8 f5 ff ff 	mov    %rax,-0xa48(%rbp)
    d703:	48 c7 85 c0 f5 ff ff 	movq   $0x0,-0xa40(%rbp)
    d70a:	00 00 00 00 
    d70e:	48 8d 05 c3 d0 00 00 	lea    0xd0c3(%rip),%rax        # 1a7d8 <g_210>
    d715:	48 89 85 c8 f5 ff ff 	mov    %rax,-0xa38(%rbp)
    d71c:	48 c7 85 d0 f5 ff ff 	movq   $0x0,-0xa30(%rbp)
    d723:	00 00 00 00 
    d727:	48 8d 05 aa d0 00 00 	lea    0xd0aa(%rip),%rax        # 1a7d8 <g_210>
    d72e:	48 89 85 d8 f5 ff ff 	mov    %rax,-0xa28(%rbp)
    d735:	48 c7 85 e0 f5 ff ff 	movq   $0x0,-0xa20(%rbp)
    d73c:	00 00 00 00 
    d740:	48 8d 05 fd 88 00 00 	lea    0x88fd(%rip),%rax        # 16044 <g_2+0x14>
    d747:	48 89 85 08 f4 ff ff 	mov    %rax,-0xbf8(%rbp)
    d74e:	0f b6 05 bb 91 00 00 	movzbl 0x91bb(%rip),%eax        # 16910 <g_192>
    d755:	0f be c0             	movsbl %al,%eax
    d758:	48 98                	cltq   
    d75a:	48 8d 14 00          	lea    (%rax,%rax,1),%rdx
    d75e:	48 8d 05 0b 89 00 00 	lea    0x890b(%rip),%rax        # 16070 <g_106>
    d765:	0f b7 04 02          	movzwl (%rdx,%rax,1),%eax
    d769:	66 85 c0             	test   %ax,%ax
    d76c:	0f 84 cc 01 00 00    	je     d93e <func_84+0xc81>
    d772:	48 c7 85 a0 f9 ff ff 	movq   $0x0,-0x660(%rbp)
    d779:	00 00 00 00 
    d77d:	48 c7 85 a8 f9 ff ff 	movq   $0x0,-0x658(%rbp)
    d784:	00 00 00 00 
    d788:	48 c7 85 b0 f9 ff ff 	movq   $0x0,-0x650(%rbp)
    d78f:	00 00 00 00 
    d793:	48 c7 85 b8 f9 ff ff 	movq   $0x0,-0x648(%rbp)
    d79a:	00 00 00 00 
    d79e:	48 c7 85 c0 f9 ff ff 	movq   $0x0,-0x640(%rbp)
    d7a5:	00 00 00 00 
    d7a9:	48 c7 85 c8 f9 ff ff 	movq   $0x0,-0x638(%rbp)
    d7b0:	00 00 00 00 
    d7b4:	48 8d 05 61 8b 00 00 	lea    0x8b61(%rip),%rax        # 1631c <g_146+0x1c>
    d7bb:	48 89 85 70 f4 ff ff 	mov    %rax,-0xb90(%rbp)
    d7c2:	48 c7 85 78 f4 ff ff 	movq   $0x0,-0xb88(%rbp)
    d7c9:	00 00 00 00 
    d7cd:	48 8d 05 38 91 00 00 	lea    0x9138(%rip),%rax        # 1690c <g_181>
    d7d4:	48 89 85 80 f4 ff ff 	mov    %rax,-0xb80(%rbp)
    d7db:	0f b6 05 2e 91 00 00 	movzbl 0x912e(%rip),%eax        # 16910 <g_192>
    d7e2:	0f be c0             	movsbl %al,%eax
    d7e5:	48 98                	cltq   
    d7e7:	48 8d 14 00          	lea    (%rax,%rax,1),%rdx
    d7eb:	48 8d 05 7e 88 00 00 	lea    0x887e(%rip),%rax        # 16070 <g_106>
    d7f2:	0f b7 04 02          	movzwl (%rdx,%rax,1),%eax
    d7f6:	0f b7 c0             	movzwl %ax,%eax
    d7f9:	be 06 00 00 00       	mov    $0x6,%esi
    d7fe:	89 c7                	mov    %eax,%edi
    d800:	e8 b9 85 ff ff       	callq  5dbe <safe_lshift_func_uint16_t_u_s>
    d805:	8b 1d dd 88 00 00    	mov    0x88dd(%rip),%ebx        # 160e8 <g_137>
    d80b:	0f b7 85 94 f3 ff ff 	movzwl -0xc6c(%rbp),%eax
    d812:	44 0f be e0          	movsbl %al,%r12d
    d816:	48 8b 85 a8 f5 ff ff 	mov    -0xa58(%rbp),%rax
    d81d:	48 39 85 48 f4 ff ff 	cmp    %rax,-0xbb8(%rbp)
    d824:	bf 01 00 00 00       	mov    $0x1,%edi
    d829:	e8 91 79 ff ff       	callq  51bf <safe_unary_minus_func_int8_t_s>
    d82e:	0f be d0             	movsbl %al,%edx
    d831:	0f b7 85 94 f3 ff ff 	movzwl -0xc6c(%rbp),%eax
    d838:	39 c2                	cmp    %eax,%edx
    d83a:	0f b7 85 94 f3 ff ff 	movzwl -0xc6c(%rbp),%eax
    d841:	66 89 85 ac f3 ff ff 	mov    %ax,-0xc54(%rbp)
    d848:	0f b7 85 ac f3 ff ff 	movzwl -0xc54(%rbp),%eax
    d84f:	98                   	cwtl   
    d850:	89 85 b0 f3 ff ff    	mov    %eax,-0xc50(%rbp)
    d856:	8b 85 b0 f3 ff ff    	mov    -0xc50(%rbp),%eax
    d85c:	83 f8 01             	cmp    $0x1,%eax
    d85f:	0f 97 c0             	seta   %al
    d862:	0f b6 c0             	movzbl %al,%eax
    d865:	be 08 00 00 00       	mov    $0x8,%esi
    d86a:	89 c7                	mov    %eax,%edi
    d86c:	e8 70 7c ff ff       	callq  54e1 <safe_lshift_func_int16_t_s_u>
    d871:	0f b7 85 94 f3 ff ff 	movzwl -0xc6c(%rbp),%eax
    d878:	0f be c0             	movsbl %al,%eax
    d87b:	44 89 e6             	mov    %r12d,%esi
    d87e:	89 c7                	mov    %eax,%edi
    d880:	e8 4f 79 ff ff       	callq  51d4 <safe_add_func_int8_t_s_s>
    d885:	0f be d0             	movsbl %al,%edx
    d888:	48 8b 85 70 f4 ff ff 	mov    -0xb90(%rbp),%rax
    d88f:	89 10                	mov    %edx,(%rax)
    d891:	89 de                	mov    %ebx,%esi
    d893:	bf f6 ff 00 00       	mov    $0xfff6,%edi
    d898:	e8 69 85 ff ff       	callq  5e06 <safe_lshift_func_uint16_t_u_u>
    d89d:	0f b7 d0             	movzwl %ax,%edx
    d8a0:	8b 85 b4 f3 ff ff    	mov    -0xc4c(%rbp),%eax
    d8a6:	39 c2                	cmp    %eax,%edx
    d8a8:	0f 9f c0             	setg   %al
    d8ab:	0f b6 d0             	movzbl %al,%edx
    d8ae:	0f b6 05 5b 90 00 00 	movzbl 0x905b(%rip),%eax        # 16910 <g_192>
    d8b5:	0f be c0             	movsbl %al,%eax
    d8b8:	48 98                	cltq   
    d8ba:	48 8d 0c 00          	lea    (%rax,%rax,1),%rcx
    d8be:	48 8d 05 ab 87 00 00 	lea    0x87ab(%rip),%rax        # 16070 <g_106>
    d8c5:	0f b7 04 01          	movzwl (%rcx,%rax,1),%eax
    d8c9:	98                   	cwtl   
    d8ca:	21 d0                	and    %edx,%eax
    d8cc:	89 c2                	mov    %eax,%edx
    d8ce:	48 8b 85 28 f4 ff ff 	mov    -0xbd8(%rbp),%rax
    d8d5:	89 10                	mov    %edx,(%rax)
    d8d7:	48 8b 85 28 f4 ff ff 	mov    -0xbd8(%rbp),%rax
    d8de:	8b 00                	mov    (%rax),%eax
    d8e0:	89 85 b4 f3 ff ff    	mov    %eax,-0xc4c(%rbp)
    d8e6:	8b 95 b4 f3 ff ff    	mov    -0xc4c(%rbp),%edx
    d8ec:	0f b7 85 94 f3 ff ff 	movzwl -0xc6c(%rbp),%eax
    d8f3:	09 c2                	or     %eax,%edx
    d8f5:	48 8b 85 80 f4 ff ff 	mov    -0xb80(%rbp),%rax
    d8fc:	8b 00                	mov    (%rax),%eax
    d8fe:	09 c2                	or     %eax,%edx
    d900:	48 8b 85 80 f4 ff ff 	mov    -0xb80(%rbp),%rax
    d907:	89 10                	mov    %edx,(%rax)
    d909:	48 8b 85 08 f4 ff ff 	mov    -0xbf8(%rbp),%rax
    d910:	48 89 05 a9 ce 00 00 	mov    %rax,0xcea9(%rip)        # 1a7c0 <g_127>
    d917:	48 8b 05 a2 ce 00 00 	mov    0xcea2(%rip),%rax        # 1a7c0 <g_127>
    d91e:	8b 10                	mov    (%rax),%edx
    d920:	8b 85 bc f3 ff ff    	mov    -0xc44(%rbp),%eax
    d926:	21 d0                	and    %edx,%eax
    d928:	89 85 bc f3 ff ff    	mov    %eax,-0xc44(%rbp)
    d92e:	48 8b 05 8b ce 00 00 	mov    0xce8b(%rip),%rax        # 1a7c0 <g_127>
    d935:	8b 00                	mov    (%rax),%eax
    d937:	85 c0                	test   %eax,%eax
    d939:	e9 b4 0b 00 00       	jmpq   e4f2 <func_84+0x1835>
    d93e:	66 c7 85 ae f3 ff ff 	movw   $0xfffd,-0xc52(%rbp)
    d945:	fd ff 
    d947:	c7 85 e4 f3 ff ff f9 	movl   $0xfffffff9,-0xc1c(%rbp)
    d94e:	ff ff ff 
    d951:	48 8b 05 80 ce 00 00 	mov    0xce80(%rip),%rax        # 1a7d8 <g_210>
    d958:	48 85 c0             	test   %rax,%rax
    d95b:	0f 84 41 0b 00 00    	je     e4a2 <func_84+0x17e5>
    d961:	48 8d 85 b8 f3 ff ff 	lea    -0xc48(%rbp),%rax
    d968:	48 89 85 58 f4 ff ff 	mov    %rax,-0xba8(%rbp)
    d96f:	48 8d 85 a0 f9 ff ff 	lea    -0x660(%rbp),%rax
    d976:	48 8d 15 03 bd 00 00 	lea    0xbd03(%rip),%rdx        # 19680 <g_1346+0xb30>
    d97d:	b9 c4 00 00 00       	mov    $0xc4,%ecx
    d982:	48 89 c7             	mov    %rax,%rdi
    d985:	48 89 d6             	mov    %rdx,%rsi
    d988:	f3 48 a5             	rep movsq %ds:(%rsi),%es:(%rdi)
    d98b:	48 8d 85 a0 f9 ff ff 	lea    -0x660(%rbp),%rax
    d992:	48 83 c0 30          	add    $0x30,%rax
    d996:	48 89 85 60 f4 ff ff 	mov    %rax,-0xba0(%rbp)
    d99d:	48 c7 85 68 f4 ff ff 	movq   $0x0,-0xb98(%rbp)
    d9a4:	00 00 00 00 
    d9a8:	48 c7 85 f0 f5 ff ff 	movq   $0x0,-0xa10(%rbp)
    d9af:	00 00 00 00 
    d9b3:	48 8d 05 5e 8f 00 00 	lea    0x8f5e(%rip),%rax        # 16918 <g_233>
    d9ba:	48 89 85 f8 f5 ff ff 	mov    %rax,-0xa08(%rbp)
    d9c1:	48 c7 85 00 f6 ff ff 	movq   $0x0,-0xa00(%rbp)
    d9c8:	00 00 00 00 
    d9cc:	48 8d 85 ae f3 ff ff 	lea    -0xc52(%rbp),%rax
    d9d3:	48 89 85 08 f6 ff ff 	mov    %rax,-0x9f8(%rbp)
    d9da:	48 8d 85 ae f3 ff ff 	lea    -0xc52(%rbp),%rax
    d9e1:	48 89 85 10 f6 ff ff 	mov    %rax,-0x9f0(%rbp)
    d9e8:	48 c7 85 18 f6 ff ff 	movq   $0x0,-0x9e8(%rbp)
    d9ef:	00 00 00 00 
    d9f3:	48 8d 05 1e 8f 00 00 	lea    0x8f1e(%rip),%rax        # 16918 <g_233>
    d9fa:	48 89 85 20 f6 ff ff 	mov    %rax,-0x9e0(%rbp)
    da01:	48 c7 85 28 f6 ff ff 	movq   $0x0,-0x9d8(%rbp)
    da08:	00 00 00 00 
    da0c:	48 8d 85 ae f3 ff ff 	lea    -0xc52(%rbp),%rax
    da13:	48 89 85 30 f6 ff ff 	mov    %rax,-0x9d0(%rbp)
    da1a:	48 8d 85 ae f3 ff ff 	lea    -0xc52(%rbp),%rax
    da21:	48 89 85 38 f6 ff ff 	mov    %rax,-0x9c8(%rbp)
    da28:	0f b6 05 e1 8e 00 00 	movzbl 0x8ee1(%rip),%eax        # 16910 <g_192>
    da2f:	0f be c0             	movsbl %al,%eax
    da32:	48 98                	cltq   
    da34:	48 8d 14 00          	lea    (%rax,%rax,1),%rdx
    da38:	48 8d 05 31 86 00 00 	lea    0x8631(%rip),%rax        # 16070 <g_106>
    da3f:	48 01 d0             	add    %rdx,%rax
    da42:	48 89 85 60 f7 ff ff 	mov    %rax,-0x8a0(%rbp)
    da49:	48 8d 85 ac f3 ff ff 	lea    -0xc54(%rbp),%rax
    da50:	48 89 85 68 f7 ff ff 	mov    %rax,-0x898(%rbp)
    da57:	0f b6 05 b2 8e 00 00 	movzbl 0x8eb2(%rip),%eax        # 16910 <g_192>
    da5e:	0f be c0             	movsbl %al,%eax
    da61:	48 98                	cltq   
    da63:	48 8d 14 00          	lea    (%rax,%rax,1),%rdx
    da67:	48 8d 05 02 86 00 00 	lea    0x8602(%rip),%rax        # 16070 <g_106>
    da6e:	48 01 d0             	add    %rdx,%rax
    da71:	48 89 85 70 f7 ff ff 	mov    %rax,-0x890(%rbp)
    da78:	48 8d 05 f1 85 00 00 	lea    0x85f1(%rip),%rax        # 16070 <g_106>
    da7f:	48 89 85 78 f7 ff ff 	mov    %rax,-0x888(%rbp)
    da86:	0f b6 05 83 8e 00 00 	movzbl 0x8e83(%rip),%eax        # 16910 <g_192>
    da8d:	0f be c0             	movsbl %al,%eax
    da90:	48 98                	cltq   
    da92:	48 8d 14 00          	lea    (%rax,%rax,1),%rdx
    da96:	48 8d 05 d3 85 00 00 	lea    0x85d3(%rip),%rax        # 16070 <g_106>
    da9d:	48 01 d0             	add    %rdx,%rax
    daa0:	48 89 85 80 f7 ff ff 	mov    %rax,-0x880(%rbp)
    daa7:	48 8d 85 ac f3 ff ff 	lea    -0xc54(%rbp),%rax
    daae:	48 89 85 88 f7 ff ff 	mov    %rax,-0x878(%rbp)
    dab5:	0f b6 05 54 8e 00 00 	movzbl 0x8e54(%rip),%eax        # 16910 <g_192>
    dabc:	0f be c0             	movsbl %al,%eax
    dabf:	48 98                	cltq   
    dac1:	48 8d 14 00          	lea    (%rax,%rax,1),%rdx
    dac5:	48 8d 05 a4 85 00 00 	lea    0x85a4(%rip),%rax        # 16070 <g_106>
    dacc:	48 01 d0             	add    %rdx,%rax
    dacf:	48 89 85 90 f7 ff ff 	mov    %rax,-0x870(%rbp)
    dad6:	0f b6 05 33 8e 00 00 	movzbl 0x8e33(%rip),%eax        # 16910 <g_192>
    dadd:	0f be c0             	movsbl %al,%eax
    dae0:	48 98                	cltq   
    dae2:	48 8d 14 00          	lea    (%rax,%rax,1),%rdx
    dae6:	48 8d 05 83 85 00 00 	lea    0x8583(%rip),%rax        # 16070 <g_106>
    daed:	48 01 d0             	add    %rdx,%rax
    daf0:	48 89 85 98 f7 ff ff 	mov    %rax,-0x868(%rbp)
    daf7:	0f b6 05 12 8e 00 00 	movzbl 0x8e12(%rip),%eax        # 16910 <g_192>
    dafe:	0f be c0             	movsbl %al,%eax
    db01:	48 98                	cltq   
    db03:	48 8d 14 00          	lea    (%rax,%rax,1),%rdx
    db07:	48 8d 05 62 85 00 00 	lea    0x8562(%rip),%rax        # 16070 <g_106>
    db0e:	48 01 d0             	add    %rdx,%rax
    db11:	48 89 85 a0 f7 ff ff 	mov    %rax,-0x860(%rbp)
    db18:	48 8d 05 55 85 00 00 	lea    0x8555(%rip),%rax        # 16074 <g_106+0x4>
    db1f:	48 89 85 a8 f7 ff ff 	mov    %rax,-0x858(%rbp)
    db26:	0f b6 05 e3 8d 00 00 	movzbl 0x8de3(%rip),%eax        # 16910 <g_192>
    db2d:	0f be c0             	movsbl %al,%eax
    db30:	48 98                	cltq   
    db32:	48 8d 14 00          	lea    (%rax,%rax,1),%rdx
    db36:	48 8d 05 33 85 00 00 	lea    0x8533(%rip),%rax        # 16070 <g_106>
    db3d:	48 01 d0             	add    %rdx,%rax
    db40:	48 89 85 b0 f7 ff ff 	mov    %rax,-0x850(%rbp)
    db47:	0f b6 05 c2 8d 00 00 	movzbl 0x8dc2(%rip),%eax        # 16910 <g_192>
    db4e:	0f be c0             	movsbl %al,%eax
    db51:	48 98                	cltq   
    db53:	48 8d 14 00          	lea    (%rax,%rax,1),%rdx
    db57:	48 8d 05 12 85 00 00 	lea    0x8512(%rip),%rax        # 16070 <g_106>
    db5e:	48 01 d0             	add    %rdx,%rax
    db61:	48 89 85 b8 f7 ff ff 	mov    %rax,-0x848(%rbp)
    db68:	0f b6 05 a1 8d 00 00 	movzbl 0x8da1(%rip),%eax        # 16910 <g_192>
    db6f:	0f be c0             	movsbl %al,%eax
    db72:	48 98                	cltq   
    db74:	48 8d 14 00          	lea    (%rax,%rax,1),%rdx
    db78:	48 8d 05 f1 84 00 00 	lea    0x84f1(%rip),%rax        # 16070 <g_106>
    db7f:	48 01 d0             	add    %rdx,%rax
    db82:	48 89 85 c0 f7 ff ff 	mov    %rax,-0x840(%rbp)
    db89:	48 8d 85 ac f3 ff ff 	lea    -0xc54(%rbp),%rax
    db90:	48 89 85 c8 f7 ff ff 	mov    %rax,-0x838(%rbp)
    db97:	0f b6 05 72 8d 00 00 	movzbl 0x8d72(%rip),%eax        # 16910 <g_192>
    db9e:	0f be c0             	movsbl %al,%eax
    dba1:	48 98                	cltq   
    dba3:	48 8d 14 00          	lea    (%rax,%rax,1),%rdx
    dba7:	48 8d 05 c2 84 00 00 	lea    0x84c2(%rip),%rax        # 16070 <g_106>
    dbae:	48 01 d0             	add    %rdx,%rax
    dbb1:	48 89 85 d0 f7 ff ff 	mov    %rax,-0x830(%rbp)
    dbb8:	48 8d 05 b1 84 00 00 	lea    0x84b1(%rip),%rax        # 16070 <g_106>
    dbbf:	48 89 85 d8 f7 ff ff 	mov    %rax,-0x828(%rbp)
    dbc6:	0f b6 05 43 8d 00 00 	movzbl 0x8d43(%rip),%eax        # 16910 <g_192>
    dbcd:	0f be c0             	movsbl %al,%eax
    dbd0:	48 98                	cltq   
    dbd2:	48 8d 14 00          	lea    (%rax,%rax,1),%rdx
    dbd6:	48 8d 05 93 84 00 00 	lea    0x8493(%rip),%rax        # 16070 <g_106>
    dbdd:	48 01 d0             	add    %rdx,%rax
    dbe0:	48 89 85 e0 f7 ff ff 	mov    %rax,-0x820(%rbp)
    dbe7:	48 8d 85 ac f3 ff ff 	lea    -0xc54(%rbp),%rax
    dbee:	48 89 85 e8 f7 ff ff 	mov    %rax,-0x818(%rbp)
    dbf5:	0f b6 05 14 8d 00 00 	movzbl 0x8d14(%rip),%eax        # 16910 <g_192>
    dbfc:	0f be c0             	movsbl %al,%eax
    dbff:	48 98                	cltq   
    dc01:	48 8d 14 00          	lea    (%rax,%rax,1),%rdx
    dc05:	48 8d 05 64 84 00 00 	lea    0x8464(%rip),%rax        # 16070 <g_106>
    dc0c:	48 01 d0             	add    %rdx,%rax
    dc0f:	48 89 85 f0 f7 ff ff 	mov    %rax,-0x810(%rbp)
    dc16:	0f b6 05 f3 8c 00 00 	movzbl 0x8cf3(%rip),%eax        # 16910 <g_192>
    dc1d:	0f be c0             	movsbl %al,%eax
    dc20:	48 98                	cltq   
    dc22:	48 8d 14 00          	lea    (%rax,%rax,1),%rdx
    dc26:	48 8d 05 43 84 00 00 	lea    0x8443(%rip),%rax        # 16070 <g_106>
    dc2d:	48 01 d0             	add    %rdx,%rax
    dc30:	48 89 85 f8 f7 ff ff 	mov    %rax,-0x808(%rbp)
    dc37:	0f b6 05 d2 8c 00 00 	movzbl 0x8cd2(%rip),%eax        # 16910 <g_192>
    dc3e:	0f be c0             	movsbl %al,%eax
    dc41:	48 98                	cltq   
    dc43:	48 8d 14 00          	lea    (%rax,%rax,1),%rdx
    dc47:	48 8d 05 22 84 00 00 	lea    0x8422(%rip),%rax        # 16070 <g_106>
    dc4e:	48 01 d0             	add    %rdx,%rax
    dc51:	48 89 85 00 f8 ff ff 	mov    %rax,-0x800(%rbp)
    dc58:	48 8d 05 15 84 00 00 	lea    0x8415(%rip),%rax        # 16074 <g_106+0x4>
    dc5f:	48 89 85 08 f8 ff ff 	mov    %rax,-0x7f8(%rbp)
    dc66:	0f b6 05 a3 8c 00 00 	movzbl 0x8ca3(%rip),%eax        # 16910 <g_192>
    dc6d:	0f be c0             	movsbl %al,%eax
    dc70:	48 98                	cltq   
    dc72:	48 8d 14 00          	lea    (%rax,%rax,1),%rdx
    dc76:	48 8d 05 f3 83 00 00 	lea    0x83f3(%rip),%rax        # 16070 <g_106>
    dc7d:	48 01 d0             	add    %rdx,%rax
    dc80:	48 89 85 10 f8 ff ff 	mov    %rax,-0x7f0(%rbp)
    dc87:	0f b6 05 82 8c 00 00 	movzbl 0x8c82(%rip),%eax        # 16910 <g_192>
    dc8e:	0f be c0             	movsbl %al,%eax
    dc91:	48 98                	cltq   
    dc93:	48 8d 14 00          	lea    (%rax,%rax,1),%rdx
    dc97:	48 8d 05 d2 83 00 00 	lea    0x83d2(%rip),%rax        # 16070 <g_106>
    dc9e:	48 01 d0             	add    %rdx,%rax
    dca1:	48 89 85 18 f8 ff ff 	mov    %rax,-0x7e8(%rbp)
    dca8:	0f b6 05 61 8c 00 00 	movzbl 0x8c61(%rip),%eax        # 16910 <g_192>
    dcaf:	0f be c0             	movsbl %al,%eax
    dcb2:	48 98                	cltq   
    dcb4:	48 8d 14 00          	lea    (%rax,%rax,1),%rdx
    dcb8:	48 8d 05 b1 83 00 00 	lea    0x83b1(%rip),%rax        # 16070 <g_106>
    dcbf:	48 01 d0             	add    %rdx,%rax
    dcc2:	48 89 85 20 f8 ff ff 	mov    %rax,-0x7e0(%rbp)
    dcc9:	48 8d 85 ac f3 ff ff 	lea    -0xc54(%rbp),%rax
    dcd0:	48 89 85 28 f8 ff ff 	mov    %rax,-0x7d8(%rbp)
    dcd7:	0f b6 05 32 8c 00 00 	movzbl 0x8c32(%rip),%eax        # 16910 <g_192>
    dcde:	0f be c0             	movsbl %al,%eax
    dce1:	48 98                	cltq   
    dce3:	48 8d 14 00          	lea    (%rax,%rax,1),%rdx
    dce7:	48 8d 05 82 83 00 00 	lea    0x8382(%rip),%rax        # 16070 <g_106>
    dcee:	48 01 d0             	add    %rdx,%rax
    dcf1:	48 89 85 30 f8 ff ff 	mov    %rax,-0x7d0(%rbp)
    dcf8:	48 8d 05 71 83 00 00 	lea    0x8371(%rip),%rax        # 16070 <g_106>
    dcff:	48 89 85 38 f8 ff ff 	mov    %rax,-0x7c8(%rbp)
    dd06:	0f b6 05 03 8c 00 00 	movzbl 0x8c03(%rip),%eax        # 16910 <g_192>
    dd0d:	0f be c0             	movsbl %al,%eax
    dd10:	48 98                	cltq   
    dd12:	48 8d 14 00          	lea    (%rax,%rax,1),%rdx
    dd16:	48 8d 05 53 83 00 00 	lea    0x8353(%rip),%rax        # 16070 <g_106>
    dd1d:	48 01 d0             	add    %rdx,%rax
    dd20:	48 89 85 40 f8 ff ff 	mov    %rax,-0x7c0(%rbp)
    dd27:	48 8d 85 ac f3 ff ff 	lea    -0xc54(%rbp),%rax
    dd2e:	48 89 85 48 f8 ff ff 	mov    %rax,-0x7b8(%rbp)
    dd35:	0f b6 05 d4 8b 00 00 	movzbl 0x8bd4(%rip),%eax        # 16910 <g_192>
    dd3c:	0f be c0             	movsbl %al,%eax
    dd3f:	48 98                	cltq   
    dd41:	48 8d 14 00          	lea    (%rax,%rax,1),%rdx
    dd45:	48 8d 05 24 83 00 00 	lea    0x8324(%rip),%rax        # 16070 <g_106>
    dd4c:	48 01 d0             	add    %rdx,%rax
    dd4f:	48 89 85 50 f8 ff ff 	mov    %rax,-0x7b0(%rbp)
    dd56:	0f b6 05 b3 8b 00 00 	movzbl 0x8bb3(%rip),%eax        # 16910 <g_192>
    dd5d:	0f be c0             	movsbl %al,%eax
    dd60:	48 98                	cltq   
    dd62:	48 8d 14 00          	lea    (%rax,%rax,1),%rdx
    dd66:	48 8d 05 03 83 00 00 	lea    0x8303(%rip),%rax        # 16070 <g_106>
    dd6d:	48 01 d0             	add    %rdx,%rax
    dd70:	48 89 85 58 f8 ff ff 	mov    %rax,-0x7a8(%rbp)
    dd77:	0f b6 05 92 8b 00 00 	movzbl 0x8b92(%rip),%eax        # 16910 <g_192>
    dd7e:	0f be c0             	movsbl %al,%eax
    dd81:	48 98                	cltq   
    dd83:	48 8d 14 00          	lea    (%rax,%rax,1),%rdx
    dd87:	48 8d 05 e2 82 00 00 	lea    0x82e2(%rip),%rax        # 16070 <g_106>
    dd8e:	48 01 d0             	add    %rdx,%rax
    dd91:	48 89 85 60 f8 ff ff 	mov    %rax,-0x7a0(%rbp)
    dd98:	48 8d 05 d5 82 00 00 	lea    0x82d5(%rip),%rax        # 16074 <g_106+0x4>
    dd9f:	48 89 85 68 f8 ff ff 	mov    %rax,-0x798(%rbp)
    dda6:	0f b6 05 63 8b 00 00 	movzbl 0x8b63(%rip),%eax        # 16910 <g_192>
    ddad:	0f be c0             	movsbl %al,%eax
    ddb0:	48 98                	cltq   
    ddb2:	48 8d 14 00          	lea    (%rax,%rax,1),%rdx
    ddb6:	48 8d 05 b3 82 00 00 	lea    0x82b3(%rip),%rax        # 16070 <g_106>
    ddbd:	48 01 d0             	add    %rdx,%rax
    ddc0:	48 89 85 70 f8 ff ff 	mov    %rax,-0x790(%rbp)
    ddc7:	0f b6 05 42 8b 00 00 	movzbl 0x8b42(%rip),%eax        # 16910 <g_192>
    ddce:	0f be c0             	movsbl %al,%eax
    ddd1:	48 98                	cltq   
    ddd3:	48 8d 14 00          	lea    (%rax,%rax,1),%rdx
    ddd7:	48 8d 05 92 82 00 00 	lea    0x8292(%rip),%rax        # 16070 <g_106>
    ddde:	48 01 d0             	add    %rdx,%rax
    dde1:	48 89 85 78 f8 ff ff 	mov    %rax,-0x788(%rbp)
    dde8:	0f b6 05 21 8b 00 00 	movzbl 0x8b21(%rip),%eax        # 16910 <g_192>
    ddef:	0f be c0             	movsbl %al,%eax
    ddf2:	48 98                	cltq   
    ddf4:	48 8d 14 00          	lea    (%rax,%rax,1),%rdx
    ddf8:	48 8d 05 71 82 00 00 	lea    0x8271(%rip),%rax        # 16070 <g_106>
    ddff:	48 01 d0             	add    %rdx,%rax
    de02:	48 89 85 80 f8 ff ff 	mov    %rax,-0x780(%rbp)
    de09:	48 8d 85 ac f3 ff ff 	lea    -0xc54(%rbp),%rax
    de10:	48 89 85 88 f8 ff ff 	mov    %rax,-0x778(%rbp)
    de17:	0f b6 05 f2 8a 00 00 	movzbl 0x8af2(%rip),%eax        # 16910 <g_192>
    de1e:	0f be c0             	movsbl %al,%eax
    de21:	48 98                	cltq   
    de23:	48 8d 14 00          	lea    (%rax,%rax,1),%rdx
    de27:	48 8d 05 42 82 00 00 	lea    0x8242(%rip),%rax        # 16070 <g_106>
    de2e:	48 01 d0             	add    %rdx,%rax
    de31:	48 89 85 90 f8 ff ff 	mov    %rax,-0x770(%rbp)
    de38:	48 8d 05 31 82 00 00 	lea    0x8231(%rip),%rax        # 16070 <g_106>
    de3f:	48 89 85 98 f8 ff ff 	mov    %rax,-0x768(%rbp)
    de46:	0f b6 05 c3 8a 00 00 	movzbl 0x8ac3(%rip),%eax        # 16910 <g_192>
    de4d:	0f be c0             	movsbl %al,%eax
    de50:	48 98                	cltq   
    de52:	48 8d 14 00          	lea    (%rax,%rax,1),%rdx
    de56:	48 8d 05 13 82 00 00 	lea    0x8213(%rip),%rax        # 16070 <g_106>
    de5d:	48 01 d0             	add    %rdx,%rax
    de60:	48 89 85 a0 f8 ff ff 	mov    %rax,-0x760(%rbp)
    de67:	48 8d 85 ac f3 ff ff 	lea    -0xc54(%rbp),%rax
    de6e:	48 89 85 a8 f8 ff ff 	mov    %rax,-0x758(%rbp)
    de75:	0f b6 05 94 8a 00 00 	movzbl 0x8a94(%rip),%eax        # 16910 <g_192>
    de7c:	0f be c0             	movsbl %al,%eax
    de7f:	48 98                	cltq   
    de81:	48 8d 14 00          	lea    (%rax,%rax,1),%rdx
    de85:	48 8d 05 e4 81 00 00 	lea    0x81e4(%rip),%rax        # 16070 <g_106>
    de8c:	48 01 d0             	add    %rdx,%rax
    de8f:	48 89 85 b0 f8 ff ff 	mov    %rax,-0x750(%rbp)
    de96:	0f b6 05 73 8a 00 00 	movzbl 0x8a73(%rip),%eax        # 16910 <g_192>
    de9d:	0f be c0             	movsbl %al,%eax
    dea0:	48 98                	cltq   
    dea2:	48 8d 14 00          	lea    (%rax,%rax,1),%rdx
    dea6:	48 8d 05 c3 81 00 00 	lea    0x81c3(%rip),%rax        # 16070 <g_106>
    dead:	48 01 d0             	add    %rdx,%rax
    deb0:	48 89 85 b8 f8 ff ff 	mov    %rax,-0x748(%rbp)
    deb7:	0f b6 05 52 8a 00 00 	movzbl 0x8a52(%rip),%eax        # 16910 <g_192>
    debe:	0f be c0             	movsbl %al,%eax
    dec1:	48 98                	cltq   
    dec3:	48 8d 14 00          	lea    (%rax,%rax,1),%rdx
    dec7:	48 8d 05 a2 81 00 00 	lea    0x81a2(%rip),%rax        # 16070 <g_106>
    dece:	48 01 d0             	add    %rdx,%rax
    ded1:	48 89 85 c0 f8 ff ff 	mov    %rax,-0x740(%rbp)
    ded8:	48 8d 05 95 81 00 00 	lea    0x8195(%rip),%rax        # 16074 <g_106+0x4>
    dedf:	48 89 85 c8 f8 ff ff 	mov    %rax,-0x738(%rbp)
    dee6:	0f b6 05 23 8a 00 00 	movzbl 0x8a23(%rip),%eax        # 16910 <g_192>
    deed:	0f be c0             	movsbl %al,%eax
    def0:	48 98                	cltq   
    def2:	48 8d 14 00          	lea    (%rax,%rax,1),%rdx
    def6:	48 8d 05 73 81 00 00 	lea    0x8173(%rip),%rax        # 16070 <g_106>
    defd:	48 01 d0             	add    %rdx,%rax
    df00:	48 89 85 d0 f8 ff ff 	mov    %rax,-0x730(%rbp)
    df07:	0f b6 05 02 8a 00 00 	movzbl 0x8a02(%rip),%eax        # 16910 <g_192>
    df0e:	0f be c0             	movsbl %al,%eax
    df11:	48 98                	cltq   
    df13:	48 8d 14 00          	lea    (%rax,%rax,1),%rdx
    df17:	48 8d 05 52 81 00 00 	lea    0x8152(%rip),%rax        # 16070 <g_106>
    df1e:	48 01 d0             	add    %rdx,%rax
    df21:	48 89 85 d8 f8 ff ff 	mov    %rax,-0x728(%rbp)
    df28:	0f b6 05 e1 89 00 00 	movzbl 0x89e1(%rip),%eax        # 16910 <g_192>
    df2f:	0f be c0             	movsbl %al,%eax
    df32:	48 98                	cltq   
    df34:	48 8d 14 00          	lea    (%rax,%rax,1),%rdx
    df38:	48 8d 05 31 81 00 00 	lea    0x8131(%rip),%rax        # 16070 <g_106>
    df3f:	48 01 d0             	add    %rdx,%rax
    df42:	48 89 85 e0 f8 ff ff 	mov    %rax,-0x720(%rbp)
    df49:	48 8d 85 ac f3 ff ff 	lea    -0xc54(%rbp),%rax
    df50:	48 89 85 e8 f8 ff ff 	mov    %rax,-0x718(%rbp)
    df57:	0f b6 05 b2 89 00 00 	movzbl 0x89b2(%rip),%eax        # 16910 <g_192>
    df5e:	0f be c0             	movsbl %al,%eax
    df61:	48 98                	cltq   
    df63:	48 8d 14 00          	lea    (%rax,%rax,1),%rdx
    df67:	48 8d 05 02 81 00 00 	lea    0x8102(%rip),%rax        # 16070 <g_106>
    df6e:	48 01 d0             	add    %rdx,%rax
    df71:	48 89 85 f0 f8 ff ff 	mov    %rax,-0x710(%rbp)
    df78:	48 8d 05 f1 80 00 00 	lea    0x80f1(%rip),%rax        # 16070 <g_106>
    df7f:	48 89 85 f8 f8 ff ff 	mov    %rax,-0x708(%rbp)
    df86:	0f b6 05 83 89 00 00 	movzbl 0x8983(%rip),%eax        # 16910 <g_192>
    df8d:	0f be c0             	movsbl %al,%eax
    df90:	48 98                	cltq   
    df92:	48 8d 14 00          	lea    (%rax,%rax,1),%rdx
    df96:	48 8d 05 d3 80 00 00 	lea    0x80d3(%rip),%rax        # 16070 <g_106>
    df9d:	48 01 d0             	add    %rdx,%rax
    dfa0:	48 89 85 00 f9 ff ff 	mov    %rax,-0x700(%rbp)
    dfa7:	48 8d 85 ac f3 ff ff 	lea    -0xc54(%rbp),%rax
    dfae:	48 89 85 08 f9 ff ff 	mov    %rax,-0x6f8(%rbp)
    dfb5:	0f b6 05 54 89 00 00 	movzbl 0x8954(%rip),%eax        # 16910 <g_192>
    dfbc:	0f be c0             	movsbl %al,%eax
    dfbf:	48 98                	cltq   
    dfc1:	48 8d 14 00          	lea    (%rax,%rax,1),%rdx
    dfc5:	48 8d 05 a4 80 00 00 	lea    0x80a4(%rip),%rax        # 16070 <g_106>
    dfcc:	48 01 d0             	add    %rdx,%rax
    dfcf:	48 89 85 10 f9 ff ff 	mov    %rax,-0x6f0(%rbp)
    dfd6:	0f b6 05 33 89 00 00 	movzbl 0x8933(%rip),%eax        # 16910 <g_192>
    dfdd:	0f be c0             	movsbl %al,%eax
    dfe0:	48 98                	cltq   
    dfe2:	48 8d 14 00          	lea    (%rax,%rax,1),%rdx
    dfe6:	48 8d 05 83 80 00 00 	lea    0x8083(%rip),%rax        # 16070 <g_106>
    dfed:	48 01 d0             	add    %rdx,%rax
    dff0:	48 89 85 18 f9 ff ff 	mov    %rax,-0x6e8(%rbp)
    dff7:	0f b6 05 12 89 00 00 	movzbl 0x8912(%rip),%eax        # 16910 <g_192>
    dffe:	0f be c0             	movsbl %al,%eax
    e001:	48 98                	cltq   
    e003:	48 8d 14 00          	lea    (%rax,%rax,1),%rdx
    e007:	48 8d 05 62 80 00 00 	lea    0x8062(%rip),%rax        # 16070 <g_106>
    e00e:	48 01 d0             	add    %rdx,%rax
    e011:	48 89 85 20 f9 ff ff 	mov    %rax,-0x6e0(%rbp)
    e018:	48 8d 05 55 80 00 00 	lea    0x8055(%rip),%rax        # 16074 <g_106+0x4>
    e01f:	48 89 85 28 f9 ff ff 	mov    %rax,-0x6d8(%rbp)
    e026:	0f b6 05 e3 88 00 00 	movzbl 0x88e3(%rip),%eax        # 16910 <g_192>
    e02d:	0f be c0             	movsbl %al,%eax
    e030:	48 98                	cltq   
    e032:	48 8d 14 00          	lea    (%rax,%rax,1),%rdx
    e036:	48 8d 05 33 80 00 00 	lea    0x8033(%rip),%rax        # 16070 <g_106>
    e03d:	48 01 d0             	add    %rdx,%rax
    e040:	48 89 85 30 f9 ff ff 	mov    %rax,-0x6d0(%rbp)
    e047:	0f b6 05 c2 88 00 00 	movzbl 0x88c2(%rip),%eax        # 16910 <g_192>
    e04e:	0f be c0             	movsbl %al,%eax
    e051:	48 98                	cltq   
    e053:	48 8d 14 00          	lea    (%rax,%rax,1),%rdx
    e057:	48 8d 05 12 80 00 00 	lea    0x8012(%rip),%rax        # 16070 <g_106>
    e05e:	48 01 d0             	add    %rdx,%rax
    e061:	48 89 85 38 f9 ff ff 	mov    %rax,-0x6c8(%rbp)
    e068:	0f b6 05 a1 88 00 00 	movzbl 0x88a1(%rip),%eax        # 16910 <g_192>
    e06f:	0f be c0             	movsbl %al,%eax
    e072:	48 98                	cltq   
    e074:	48 8d 14 00          	lea    (%rax,%rax,1),%rdx
    e078:	48 8d 05 f1 7f 00 00 	lea    0x7ff1(%rip),%rax        # 16070 <g_106>
    e07f:	48 01 d0             	add    %rdx,%rax
    e082:	48 89 85 40 f9 ff ff 	mov    %rax,-0x6c0(%rbp)
    e089:	48 8d 85 ac f3 ff ff 	lea    -0xc54(%rbp),%rax
    e090:	48 89 85 48 f9 ff ff 	mov    %rax,-0x6b8(%rbp)
    e097:	0f b6 05 72 88 00 00 	movzbl 0x8872(%rip),%eax        # 16910 <g_192>
    e09e:	0f be c0             	movsbl %al,%eax
    e0a1:	48 98                	cltq   
    e0a3:	48 8d 14 00          	lea    (%rax,%rax,1),%rdx
    e0a7:	48 8d 05 c2 7f 00 00 	lea    0x7fc2(%rip),%rax        # 16070 <g_106>
    e0ae:	48 01 d0             	add    %rdx,%rax
    e0b1:	48 89 85 50 f9 ff ff 	mov    %rax,-0x6b0(%rbp)
    e0b8:	48 8d 05 b1 7f 00 00 	lea    0x7fb1(%rip),%rax        # 16070 <g_106>
    e0bf:	48 89 85 58 f9 ff ff 	mov    %rax,-0x6a8(%rbp)
    e0c6:	0f b6 05 43 88 00 00 	movzbl 0x8843(%rip),%eax        # 16910 <g_192>
    e0cd:	0f be c0             	movsbl %al,%eax
    e0d0:	48 98                	cltq   
    e0d2:	48 8d 14 00          	lea    (%rax,%rax,1),%rdx
    e0d6:	48 8d 05 93 7f 00 00 	lea    0x7f93(%rip),%rax        # 16070 <g_106>
    e0dd:	48 01 d0             	add    %rdx,%rax
    e0e0:	48 89 85 60 f9 ff ff 	mov    %rax,-0x6a0(%rbp)
    e0e7:	48 8d 85 ac f3 ff ff 	lea    -0xc54(%rbp),%rax
    e0ee:	48 89 85 68 f9 ff ff 	mov    %rax,-0x698(%rbp)
    e0f5:	0f b6 05 14 88 00 00 	movzbl 0x8814(%rip),%eax        # 16910 <g_192>
    e0fc:	0f be c0             	movsbl %al,%eax
    e0ff:	48 98                	cltq   
    e101:	48 8d 14 00          	lea    (%rax,%rax,1),%rdx
    e105:	48 8d 05 64 7f 00 00 	lea    0x7f64(%rip),%rax        # 16070 <g_106>
    e10c:	48 01 d0             	add    %rdx,%rax
    e10f:	48 89 85 70 f9 ff ff 	mov    %rax,-0x690(%rbp)
    e116:	0f b6 05 f3 87 00 00 	movzbl 0x87f3(%rip),%eax        # 16910 <g_192>
    e11d:	0f be c0             	movsbl %al,%eax
    e120:	48 98                	cltq   
    e122:	48 8d 14 00          	lea    (%rax,%rax,1),%rdx
    e126:	48 8d 05 43 7f 00 00 	lea    0x7f43(%rip),%rax        # 16070 <g_106>
    e12d:	48 01 d0             	add    %rdx,%rax
    e130:	48 89 85 78 f9 ff ff 	mov    %rax,-0x688(%rbp)
    e137:	0f b6 05 d2 87 00 00 	movzbl 0x87d2(%rip),%eax        # 16910 <g_192>
    e13e:	0f be c0             	movsbl %al,%eax
    e141:	48 98                	cltq   
    e143:	48 8d 14 00          	lea    (%rax,%rax,1),%rdx
    e147:	48 8d 05 22 7f 00 00 	lea    0x7f22(%rip),%rax        # 16070 <g_106>
    e14e:	48 01 d0             	add    %rdx,%rax
    e151:	48 89 85 80 f9 ff ff 	mov    %rax,-0x680(%rbp)
    e158:	48 8d 05 15 7f 00 00 	lea    0x7f15(%rip),%rax        # 16074 <g_106+0x4>
    e15f:	48 89 85 88 f9 ff ff 	mov    %rax,-0x678(%rbp)
    e166:	0f b6 05 a3 87 00 00 	movzbl 0x87a3(%rip),%eax        # 16910 <g_192>
    e16d:	0f be c0             	movsbl %al,%eax
    e170:	48 98                	cltq   
    e172:	48 8d 14 00          	lea    (%rax,%rax,1),%rdx
    e176:	48 8d 05 f3 7e 00 00 	lea    0x7ef3(%rip),%rax        # 16070 <g_106>
    e17d:	48 01 d0             	add    %rdx,%rax
    e180:	48 89 85 90 f9 ff ff 	mov    %rax,-0x670(%rbp)
    e187:	0f b6 05 82 87 00 00 	movzbl 0x8782(%rip),%eax        # 16910 <g_192>
    e18e:	0f be c0             	movsbl %al,%eax
    e191:	48 98                	cltq   
    e193:	48 8d 14 00          	lea    (%rax,%rax,1),%rdx
    e197:	48 8d 05 d2 7e 00 00 	lea    0x7ed2(%rip),%rax        # 16070 <g_106>
    e19e:	48 01 d0             	add    %rdx,%rax
    e1a1:	48 89 85 98 f9 ff ff 	mov    %rax,-0x668(%rbp)
    e1a8:	48 83 bd 48 f4 ff ff 	cmpq   $0x0,-0xbb8(%rbp)
    e1af:	00 
    e1b0:	0f 94 c0             	sete   %al
    e1b3:	0f b6 c0             	movzbl %al,%eax
    e1b6:	89 05 50 87 00 00    	mov    %eax,0x8750(%rip)        # 1690c <g_181>
    e1bc:	8b 15 4a 87 00 00    	mov    0x874a(%rip),%edx        # 1690c <g_181>
    e1c2:	48 8b 85 58 f4 ff ff 	mov    -0xba8(%rbp),%rax
    e1c9:	89 10                	mov    %edx,(%rax)
    e1cb:	0f b7 9d 94 f3 ff ff 	movzwl -0xc6c(%rbp),%ebx
    e1d2:	0f b6 85 ab f3 ff ff 	movzbl -0xc55(%rbp),%eax
    e1d9:	be 09 00 00 00       	mov    $0x9,%esi
    e1de:	89 c7                	mov    %eax,%edi
    e1e0:	e8 d9 7b ff ff       	callq  5dbe <safe_lshift_func_uint16_t_u_s>
    e1e5:	0f b7 d0             	movzwl %ax,%edx
    e1e8:	48 8b 85 58 f4 ff ff 	mov    -0xba8(%rbp),%rax
    e1ef:	89 10                	mov    %edx,(%rax)
    e1f1:	66 83 bd 94 f3 ff ff 	cmpw   $0x0,-0xc6c(%rbp)
    e1f8:	00 
    e1f9:	0f 95 c0             	setne  %al
    e1fc:	41 89 c4             	mov    %eax,%r12d
    e1ff:	48 8b 85 60 f4 ff ff 	mov    -0xba0(%rbp),%rax
    e206:	48 8b 95 98 f3 ff ff 	mov    -0xc68(%rbp),%rdx
    e20d:	48 89 10             	mov    %rdx,(%rax)
    e210:	48 8b 85 60 f4 ff ff 	mov    -0xba0(%rbp),%rax
    e217:	48 8b 10             	mov    (%rax),%rdx
    e21a:	48 8b 05 9f c5 00 00 	mov    0xc59f(%rip),%rax        # 1a7c0 <g_127>
    e221:	48 39 c2             	cmp    %rax,%rdx
    e224:	75 0c                	jne    e232 <func_84+0x1575>
    e226:	0f b7 85 ac f3 ff ff 	movzwl -0xc54(%rbp),%eax
    e22d:	66 85 c0             	test   %ax,%ax
    e230:	74 07                	je     e239 <func_84+0x157c>
    e232:	ba 01 00 00 00       	mov    $0x1,%edx
    e237:	eb 05                	jmp    e23e <func_84+0x1581>
    e239:	ba 00 00 00 00       	mov    $0x0,%edx
    e23e:	0f b7 85 94 f3 ff ff 	movzwl -0xc6c(%rbp),%eax
    e245:	98                   	cwtl   
    e246:	89 d6                	mov    %edx,%esi
    e248:	89 c7                	mov    %eax,%edi
    e24a:	e8 43 72 ff ff       	callq  5492 <safe_lshift_func_int16_t_s_s>
    e24f:	44 31 e0             	xor    %r12d,%eax
    e252:	0f b6 c0             	movzbl %al,%eax
    e255:	be 05 00 00 00       	mov    $0x5,%esi
    e25a:	89 c7                	mov    %eax,%edi
    e25c:	e8 2c 7a ff ff       	callq  5c8d <safe_rshift_func_uint8_t_u_s>
    e261:	83 c8 ec             	or     $0xffffffec,%eax
    e264:	89 c1                	mov    %eax,%ecx
    e266:	0f b6 05 a3 86 00 00 	movzbl 0x86a3(%rip),%eax        # 16910 <g_192>
    e26d:	0f be d0             	movsbl %al,%edx
    e270:	0f b6 c1             	movzbl %cl,%eax
    e273:	48 63 d2             	movslq %edx,%rdx
    e276:	48 8d 0c 12          	lea    (%rdx,%rdx,1),%rcx
    e27a:	48 8d 15 ef 7d 00 00 	lea    0x7def(%rip),%rdx        # 16070 <g_106>
    e281:	66 89 04 11          	mov    %ax,(%rcx,%rdx,1)
    e285:	8b 05 11 80 00 00    	mov    0x8011(%rip),%eax        # 1629c <g_143+0x1c>
    e28b:	85 c0                	test   %eax,%eax
    e28d:	0f 94 c0             	sete   %al
    e290:	0f b6 c0             	movzbl %al,%eax
    e293:	89 de                	mov    %ebx,%esi
    e295:	89 c7                	mov    %eax,%edi
    e297:	e8 45 72 ff ff       	callq  54e1 <safe_lshift_func_int16_t_s_u>
    e29c:	0f b6 c0             	movzbl %al,%eax
    e29f:	be 06 00 00 00       	mov    $0x6,%esi
    e2a4:	89 c7                	mov    %eax,%edi
    e2a6:	e8 e2 79 ff ff       	callq  5c8d <safe_rshift_func_uint8_t_u_s>
    e2ab:	0f b6 d0             	movzbl %al,%edx
    e2ae:	0f b7 85 ae f3 ff ff 	movzwl -0xc52(%rbp),%eax
    e2b5:	0f b7 c0             	movzwl %ax,%eax
    e2b8:	09 d0                	or     %edx,%eax
    e2ba:	3d 80 c0 00 00       	cmp    $0xc080,%eax
    e2bf:	0f 9f c0             	setg   %al
    e2c2:	0f b6 c0             	movzbl %al,%eax
    e2c5:	be 0c 00 00 00       	mov    $0xc,%esi
    e2ca:	89 c7                	mov    %eax,%edi
    e2cc:	e8 92 72 ff ff       	callq  5563 <safe_rshift_func_int16_t_s_u>
    e2d1:	0f bf d0             	movswl %ax,%edx
    e2d4:	0f b7 85 94 f3 ff ff 	movzwl -0xc6c(%rbp),%eax
    e2db:	39 c2                	cmp    %eax,%edx
    e2dd:	0f 95 c0             	setne  %al
    e2e0:	0f b6 d0             	movzbl %al,%edx
    e2e3:	8b 85 b4 f3 ff ff    	mov    -0xc4c(%rbp),%eax
    e2e9:	31 d0                	xor    %edx,%eax
    e2eb:	89 85 b4 f3 ff ff    	mov    %eax,-0xc4c(%rbp)
    e2f1:	8b 85 b4 f3 ff ff    	mov    -0xc4c(%rbp),%eax
    e2f7:	85 c0                	test   %eax,%eax
    e2f9:	74 11                	je     e30c <func_84+0x164f>
    e2fb:	8b 05 2f 7d 00 00    	mov    0x7d2f(%rip),%eax        # 16030 <g_2>
    e301:	85 c0                	test   %eax,%eax
    e303:	74 07                	je     e30c <func_84+0x164f>
    e305:	b8 01 00 00 00       	mov    $0x1,%eax
    e30a:	eb 05                	jmp    e311 <func_84+0x1654>
    e30c:	b8 00 00 00 00       	mov    $0x0,%eax
    e311:	89 85 c8 f3 ff ff    	mov    %eax,-0xc38(%rbp)
    e317:	0f b7 85 ae f3 ff ff 	movzwl -0xc52(%rbp),%eax
    e31e:	0f b7 d8             	movzwl %ax,%ebx
    e321:	8b 05 c1 80 00 00    	mov    0x80c1(%rip),%eax        # 163e8 <g_154>
    e327:	41 89 c6             	mov    %eax,%r14d
    e32a:	0f b7 85 ae f3 ff ff 	movzwl -0xc52(%rbp),%eax
    e331:	0f b7 d0             	movzwl %ax,%edx
    e334:	48 8b 85 58 f4 ff ff 	mov    -0xba8(%rbp),%rax
    e33b:	8b 00                	mov    (%rax),%eax
    e33d:	0f b7 c0             	movzwl %ax,%eax
    e340:	89 d6                	mov    %edx,%esi
    e342:	89 c7                	mov    %eax,%edi
    e344:	e8 d6 79 ff ff       	callq  5d1f <safe_sub_func_uint16_t_u_u>
    e349:	44 0f b7 a5 94 f3 ff 	movzwl -0xc6c(%rbp),%r12d
    e350:	ff 
    e351:	66 83 bd 94 f3 ff ff 	cmpw   $0x0,-0xc6c(%rbp)
    e358:	00 
    e359:	74 43                	je     e39e <func_84+0x16e1>
    e35b:	8b 85 b8 f3 ff ff    	mov    -0xc48(%rbp),%eax
    e361:	44 0f bf e8          	movswl %ax,%r13d
    e365:	8b 85 b8 f3 ff ff    	mov    -0xc48(%rbp),%eax
    e36b:	48 63 d0             	movslq %eax,%rdx
    e36e:	48 83 bd 58 f4 ff ff 	cmpq   $0x0,-0xba8(%rbp)
    e375:	00 
    e376:	0f 94 c0             	sete   %al
    e379:	0f b6 c0             	movzbl %al,%eax
    e37c:	48 89 d6             	mov    %rdx,%rsi
    e37f:	48 89 c7             	mov    %rax,%rdi
    e382:	e8 f9 7c ff ff       	callq  6080 <safe_mod_func_uint64_t_u_u>
    e387:	98                   	cwtl   
    e388:	44 89 ee             	mov    %r13d,%esi
    e38b:	89 c7                	mov    %eax,%edi
    e38d:	e8 63 70 ff ff       	callq  53f5 <safe_mul_func_int16_t_s_s>
    e392:	66 85 c0             	test   %ax,%ax
    e395:	74 07                	je     e39e <func_84+0x16e1>
    e397:	b8 01 00 00 00       	mov    $0x1,%eax
    e39c:	eb 05                	jmp    e3a3 <func_84+0x16e6>
    e39e:	b8 00 00 00 00       	mov    $0x0,%eax
    e3a3:	48 63 d0             	movslq %eax,%rdx
    e3a6:	48 8b 85 38 f4 ff ff 	mov    -0xbc8(%rbp),%rax
    e3ad:	48 89 10             	mov    %rdx,(%rax)
    e3b0:	48 8b 85 38 f4 ff ff 	mov    -0xbc8(%rbp),%rax
    e3b7:	48 8b 00             	mov    (%rax),%rax
    e3ba:	4c 89 e6             	mov    %r12,%rsi
    e3bd:	48 89 c7             	mov    %rax,%rdi
    e3c0:	e8 ea 7c ff ff       	callq  60af <safe_div_func_uint64_t_u_u>
    e3c5:	48 8b 85 08 f4 ff ff 	mov    -0xbf8(%rbp),%rax
    e3cc:	8b 10                	mov    (%rax),%edx
    e3ce:	8b 85 b0 f3 ff ff    	mov    -0xc50(%rbp),%eax
    e3d4:	09 d0                	or     %edx,%eax
    e3d6:	89 85 b0 f3 ff ff    	mov    %eax,-0xc50(%rbp)
    e3dc:	8b 85 b0 f3 ff ff    	mov    -0xc50(%rbp),%eax
    e3e2:	48 98                	cltq   
    e3e4:	be 00 00 00 00       	mov    $0x0,%esi
    e3e9:	48 89 c7             	mov    %rax,%rdi
    e3ec:	e8 3d 7c ff ff       	callq  602e <safe_add_func_uint64_t_u_u>
    e3f1:	0f b7 85 94 f3 ff ff 	movzwl -0xc6c(%rbp),%eax
    e3f8:	4c 89 f6             	mov    %r14,%rsi
    e3fb:	48 89 c7             	mov    %rax,%rdi
    e3fe:	e8 2b 7c ff ff       	callq  602e <safe_add_func_uint64_t_u_u>
    e403:	0f b6 d0             	movzbl %al,%edx
    e406:	8b 0d f8 7f 00 00    	mov    0x7ff8(%rip),%ecx        # 16404 <g_162>
    e40c:	48 8b 85 58 f4 ff ff 	mov    -0xba8(%rbp),%rax
    e413:	8b 30                	mov    (%rax),%esi
    e415:	48 8b 05 84 bb 00 00 	mov    0xbb84(%rip),%rax        # 19fa0 <g_191>
    e41c:	0f b6 00             	movzbl (%rax),%eax
    e41f:	0f be c0             	movsbl %al,%eax
    e422:	39 c6                	cmp    %eax,%esi
    e424:	0f 9d c0             	setge  %al
    e427:	0f b6 c0             	movzbl %al,%eax
    e42a:	66 89 05 3f 7c 00 00 	mov    %ax,0x7c3f(%rip)        # 16070 <g_106>
    e431:	0f b7 05 38 7c 00 00 	movzwl 0x7c38(%rip),%eax        # 16070 <g_106>
    e438:	98                   	cwtl   
    e439:	89 85 b4 f3 ff ff    	mov    %eax,-0xc4c(%rbp)
    e43f:	8b 85 b4 f3 ff ff    	mov    -0xc4c(%rbp),%eax
    e445:	39 c1                	cmp    %eax,%ecx
    e447:	0f 95 c0             	setne  %al
    e44a:	0f b6 c0             	movzbl %al,%eax
    e44d:	89 d6                	mov    %edx,%esi
    e44f:	89 c7                	mov    %eax,%edi
    e451:	e8 58 77 ff ff       	callq  5bae <safe_mod_func_uint8_t_u_u>
    e456:	0f b6 d0             	movzbl %al,%edx
    e459:	0f b7 85 94 f3 ff ff 	movzwl -0xc6c(%rbp),%eax
    e460:	89 d6                	mov    %edx,%esi
    e462:	89 c7                	mov    %eax,%edi
    e464:	e8 96 78 ff ff       	callq  5cff <safe_add_func_uint16_t_u_u>
    e469:	66 85 c0             	test   %ax,%ax
    e46c:	74 11                	je     e47f <func_84+0x17c2>
    e46e:	66 83 bd 94 f3 ff ff 	cmpw   $0x0,-0xc6c(%rbp)
    e475:	00 
    e476:	74 07                	je     e47f <func_84+0x17c2>
    e478:	b8 01 00 00 00       	mov    $0x1,%eax
    e47d:	eb 05                	jmp    e484 <func_84+0x17c7>
    e47f:	b8 00 00 00 00       	mov    $0x0,%eax
    e484:	48 98                	cltq   
    e486:	48 89 de             	mov    %rbx,%rsi
    e489:	48 89 c7             	mov    %rax,%rdi
    e48c:	e8 17 74 ff ff       	callq  58a8 <safe_sub_func_int64_t_s_s>
    e491:	21 85 e4 f3 ff ff    	and    %eax,-0xc1c(%rbp)
    e497:	80 bd ab f3 ff ff 00 	cmpb   $0x0,-0xc55(%rbp)
    e49e:	74 52                	je     e4f2 <func_84+0x1835>
    e4a0:	eb 6f                	jmp    e511 <func_84+0x1854>
    e4a2:	c7 85 d4 f3 ff ff 00 	movl   $0x0,-0xc2c(%rbp)
    e4a9:	00 00 00 
    e4ac:	eb 1e                	jmp    e4cc <func_84+0x180f>
    e4ae:	8b 85 d4 f3 ff ff    	mov    -0xc2c(%rbp),%eax
    e4b4:	48 98                	cltq   
    e4b6:	48 8d 95 08 f4 ff ff 	lea    -0xbf8(%rbp),%rdx
    e4bd:	48 89 94 c5 a0 f9 ff 	mov    %rdx,-0x660(%rbp,%rax,8)
    e4c4:	ff 
    e4c5:	83 85 d4 f3 ff ff 01 	addl   $0x1,-0xc2c(%rbp)
    e4cc:	83 bd d4 f3 ff ff 01 	cmpl   $0x1,-0xc2c(%rbp)
    e4d3:	7e d9                	jle    e4ae <func_84+0x17f1>
    e4d5:	48 8d 05 68 7b 00 00 	lea    0x7b68(%rip),%rax        # 16044 <g_2+0x14>
    e4dc:	48 89 05 dd c2 00 00 	mov    %rax,0xc2dd(%rip)        # 1a7c0 <g_127>
    e4e3:	48 8b 85 98 f3 ff ff 	mov    -0xc68(%rbp),%rax
    e4ea:	8b 00                	mov    (%rax),%eax
    e4ec:	89 85 b8 f3 ff ff    	mov    %eax,-0xc48(%rbp)
    e4f2:	0f b6 05 17 84 00 00 	movzbl 0x8417(%rip),%eax        # 16910 <g_192>
    e4f9:	83 c0 01             	add    $0x1,%eax
    e4fc:	88 05 0e 84 00 00    	mov    %al,0x840e(%rip)        # 16910 <g_192>
    e502:	0f b6 05 07 84 00 00 	movzbl 0x8407(%rip),%eax        # 16910 <g_192>
    e509:	3c 09                	cmp    $0x9,%al
    e50b:	0f 8e c0 f1 ff ff    	jle    d6d1 <func_84+0xa14>
    e511:	c7 05 11 7f 00 00 fa 	movl   $0xfffffffa,0x7f11(%rip)        # 1642c <g_166>
    e518:	ff ff ff 
    e51b:	e9 24 04 00 00       	jmpq   e944 <func_84+0x1c87>
    e520:	48 c7 85 f0 f4 ff ff 	movq   $0x1,-0xb10(%rbp)
    e527:	01 00 00 00 
    e52b:	c7 85 e8 f3 ff ff 72 	movl   $0x76006572,-0xc18(%rbp)
    e532:	65 00 76 
    e535:	c7 85 bc f3 ff ff 03 	movl   $0x3,-0xc44(%rbp)
    e53c:	00 00 00 
    e53f:	eb 28                	jmp    e569 <func_84+0x18ac>
    e541:	c7 85 ec f3 ff ff bc 	movl   $0x538581bc,-0xc14(%rbp)
    e548:	81 85 53 
    e54b:	8b 85 ec f3 ff ff    	mov    -0xc14(%rbp),%eax
    e551:	48 98                	cltq   
    e553:	48 89 85 00 f4 ff ff 	mov    %rax,-0xc00(%rbp)
    e55a:	8b 85 bc f3 ff ff    	mov    -0xc44(%rbp),%eax
    e560:	83 e8 01             	sub    $0x1,%eax
    e563:	89 85 bc f3 ff ff    	mov    %eax,-0xc44(%rbp)
    e569:	8b 85 bc f3 ff ff    	mov    -0xc44(%rbp),%eax
    e56f:	85 c0                	test   %eax,%eax
    e571:	79 ce                	jns    e541 <func_84+0x1884>
    e573:	c6 05 2e c2 00 00 1a 	movb   $0x1a,0xc22e(%rip)        # 1a7a8 <g_96>
    e57a:	e9 a7 03 00 00       	jmpq   e926 <func_84+0x1c69>
    e57f:	48 8d 05 86 83 00 00 	lea    0x8386(%rip),%rax        # 1690c <g_181>
    e586:	48 89 85 08 f4 ff ff 	mov    %rax,-0xbf8(%rbp)
    e58d:	48 c7 85 f8 f4 ff ff 	movq   $0x0,-0xb08(%rbp)
    e594:	00 00 00 00 
    e598:	48 c7 85 00 f5 ff ff 	movq   $0x0,-0xb00(%rbp)
    e59f:	00 00 00 00 
    e5a3:	48 8d 05 fe b9 00 00 	lea    0xb9fe(%rip),%rax        # 19fa8 <g_201>
    e5aa:	48 89 85 08 f5 ff ff 	mov    %rax,-0xaf8(%rbp)
    e5b1:	48 8d 05 62 83 00 00 	lea    0x8362(%rip),%rax        # 1691a <g_298>
    e5b8:	48 89 85 10 f5 ff ff 	mov    %rax,-0xaf0(%rbp)
    e5bf:	48 c7 85 00 f4 ff ff 	movq   $0x0,-0xc00(%rbp)
    e5c6:	00 00 00 00 
    e5ca:	eb 2e                	jmp    e5fa <func_84+0x193d>
    e5cc:	48 8d 85 b0 f3 ff ff 	lea    -0xc50(%rbp),%rax
    e5d3:	48 89 85 08 f4 ff ff 	mov    %rax,-0xbf8(%rbp)
    e5da:	83 bd c4 f3 ff ff 00 	cmpl   $0x0,-0xc3c(%rbp)
    e5e1:	74 05                	je     e5e8 <func_84+0x192b>
    e5e3:	e9 dd f0 ff ff       	jmpq   d6c5 <func_84+0xa08>
    e5e8:	48 8b 85 00 f4 ff ff 	mov    -0xc00(%rbp),%rax
    e5ef:	48 83 c0 01          	add    $0x1,%rax
    e5f3:	48 89 85 00 f4 ff ff 	mov    %rax,-0xc00(%rbp)
    e5fa:	48 8b 85 00 f4 ff ff 	mov    -0xc00(%rbp),%rax
    e601:	48 83 f8 12          	cmp    $0x12,%rax
    e605:	74 c5                	je     e5cc <func_84+0x190f>
    e607:	48 8b 85 00 f4 ff ff 	mov    -0xc00(%rbp),%rax
    e60e:	48 85 c0             	test   %rax,%rax
    e611:	75 10                	jne    e623 <func_84+0x1966>
    e613:	48 8d 05 8e c1 00 00 	lea    0xc18e(%rip),%rax        # 1a7a8 <g_96>
    e61a:	48 39 85 f8 f4 ff ff 	cmp    %rax,-0xb08(%rbp)
    e621:	75 07                	jne    e62a <func_84+0x196d>
    e623:	b8 01 00 00 00       	mov    $0x1,%eax
    e628:	eb 05                	jmp    e62f <func_84+0x1972>
    e62a:	b8 00 00 00 00       	mov    $0x0,%eax
    e62f:	89 c3                	mov    %eax,%ebx
    e631:	83 e3 01             	and    $0x1,%ebx
    e634:	0f b7 05 dd 82 00 00 	movzwl 0x82dd(%rip),%eax        # 16918 <g_233>
    e63b:	44 0f b7 e0          	movzwl %ax,%r12d
    e63f:	48 8b 15 62 b9 00 00 	mov    0xb962(%rip),%rdx        # 19fa8 <g_201>
    e646:	48 8b 85 08 f5 ff ff 	mov    -0xaf8(%rbp),%rax
    e64d:	48 89 10             	mov    %rdx,(%rax)
    e650:	48 8b 85 08 f5 ff ff 	mov    -0xaf8(%rbp),%rax
    e657:	48 8b 00             	mov    (%rax),%rax
    e65a:	48 85 c0             	test   %rax,%rax
    e65d:	0f 95 c0             	setne  %al
    e660:	0f b6 d0             	movzbl %al,%edx
    e663:	48 8b 85 10 f5 ff ff 	mov    -0xaf0(%rbp),%rax
    e66a:	66 89 10             	mov    %dx,(%rax)
    e66d:	48 8b 85 10 f5 ff ff 	mov    -0xaf0(%rbp),%rax
    e674:	0f b7 00             	movzwl (%rax),%eax
    e677:	0f b7 d0             	movzwl %ax,%edx
    e67a:	8b 05 54 7c 00 00    	mov    0x7c54(%rip),%eax        # 162d4 <g_145+0x14>
    e680:	98                   	cwtl   
    e681:	89 d6                	mov    %edx,%esi
    e683:	89 c7                	mov    %eax,%edi
    e685:	e8 57 6e ff ff       	callq  54e1 <safe_lshift_func_int16_t_s_u>
    e68a:	44 0f bf e8          	movswl %ax,%r13d
    e68e:	0f b7 95 94 f3 ff ff 	movzwl -0xc6c(%rbp),%edx
    e695:	48 83 bd f0 f4 ff ff 	cmpq   $0x7,-0xb10(%rbp)
    e69c:	07 
    e69d:	0f 96 c0             	setbe  %al
    e6a0:	0f b6 c0             	movzbl %al,%eax
    e6a3:	89 d6                	mov    %edx,%esi
    e6a5:	89 c7                	mov    %eax,%edi
    e6a7:	e8 53 76 ff ff       	callq  5cff <safe_add_func_uint16_t_u_u>
    e6ac:	66 85 c0             	test   %ax,%ax
    e6af:	75 0a                	jne    e6bb <func_84+0x19fe>
    e6b1:	66 83 bd 94 f3 ff ff 	cmpw   $0x0,-0xc6c(%rbp)
    e6b8:	00 
    e6b9:	74 07                	je     e6c2 <func_84+0x1a05>
    e6bb:	b8 01 00 00 00       	mov    $0x1,%eax
    e6c0:	eb 05                	jmp    e6c7 <func_84+0x1a0a>
    e6c2:	b8 00 00 00 00       	mov    $0x0,%eax
    e6c7:	44 09 e8             	or     %r13d,%eax
    e6ca:	89 c2                	mov    %eax,%edx
    e6cc:	0f b7 85 94 f3 ff ff 	movzwl -0xc6c(%rbp),%eax
    e6d3:	31 d0                	xor    %edx,%eax
    e6d5:	41 39 c4             	cmp    %eax,%r12d
    e6d8:	0f 95 c0             	setne  %al
    e6db:	31 d8                	xor    %ebx,%eax
    e6dd:	84 c0                	test   %al,%al
    e6df:	75 08                	jne    e6e9 <func_84+0x1a2c>
    e6e1:	8b 05 d9 7d 00 00    	mov    0x7dd9(%rip),%eax        # 164c0 <g_168>
    e6e7:	85 c0                	test   %eax,%eax
    e6e9:	8b 15 41 7e 00 00    	mov    0x7e41(%rip),%edx        # 16530 <g_173>
    e6ef:	48 8b 85 08 f4 ff ff 	mov    -0xbf8(%rbp),%rax
    e6f6:	89 10                	mov    %edx,(%rax)
    e6f8:	48 c7 85 18 f5 ff ff 	movq   $0x0,-0xae8(%rbp)
    e6ff:	00 00 00 00 
    e703:	48 8d 05 02 82 00 00 	lea    0x8202(%rip),%rax        # 1690c <g_181>
    e70a:	48 89 85 a0 f9 ff ff 	mov    %rax,-0x660(%rbp)
    e711:	48 8d 85 bc f3 ff ff 	lea    -0xc44(%rbp),%rax
    e718:	48 89 85 a8 f9 ff ff 	mov    %rax,-0x658(%rbp)
    e71f:	48 8d 85 b0 f3 ff ff 	lea    -0xc50(%rbp),%rax
    e726:	48 89 85 b0 f9 ff ff 	mov    %rax,-0x650(%rbp)
    e72d:	48 8d 85 b0 f3 ff ff 	lea    -0xc50(%rbp),%rax
    e734:	48 89 85 b8 f9 ff ff 	mov    %rax,-0x648(%rbp)
    e73b:	48 8d 85 bc f3 ff ff 	lea    -0xc44(%rbp),%rax
    e742:	48 89 85 c0 f9 ff ff 	mov    %rax,-0x640(%rbp)
    e749:	48 8d 85 bc f3 ff ff 	lea    -0xc44(%rbp),%rax
    e750:	48 89 85 c8 f9 ff ff 	mov    %rax,-0x638(%rbp)
    e757:	48 8d 85 b0 f3 ff ff 	lea    -0xc50(%rbp),%rax
    e75e:	48 89 85 d0 f9 ff ff 	mov    %rax,-0x630(%rbp)
    e765:	48 8d 05 a0 81 00 00 	lea    0x81a0(%rip),%rax        # 1690c <g_181>
    e76c:	48 89 85 d8 f9 ff ff 	mov    %rax,-0x628(%rbp)
    e773:	48 8d 85 bc f3 ff ff 	lea    -0xc44(%rbp),%rax
    e77a:	48 89 85 e0 f9 ff ff 	mov    %rax,-0x620(%rbp)
    e781:	48 8d 85 b0 f3 ff ff 	lea    -0xc50(%rbp),%rax
    e788:	48 89 85 e8 f9 ff ff 	mov    %rax,-0x618(%rbp)
    e78f:	48 8d 05 76 81 00 00 	lea    0x8176(%rip),%rax        # 1690c <g_181>
    e796:	48 89 85 f0 f9 ff ff 	mov    %rax,-0x610(%rbp)
    e79d:	48 8d 85 bc f3 ff ff 	lea    -0xc44(%rbp),%rax
    e7a4:	48 89 85 f8 f9 ff ff 	mov    %rax,-0x608(%rbp)
    e7ab:	48 8d 05 92 78 00 00 	lea    0x7892(%rip),%rax        # 16044 <g_2+0x14>
    e7b2:	48 89 85 00 fa ff ff 	mov    %rax,-0x600(%rbp)
    e7b9:	48 8d 85 bc f3 ff ff 	lea    -0xc44(%rbp),%rax
    e7c0:	48 89 85 08 fa ff ff 	mov    %rax,-0x5f8(%rbp)
    e7c7:	48 8d 05 3e 81 00 00 	lea    0x813e(%rip),%rax        # 1690c <g_181>
    e7ce:	48 89 85 10 fa ff ff 	mov    %rax,-0x5f0(%rbp)
    e7d5:	48 8d 05 30 81 00 00 	lea    0x8130(%rip),%rax        # 1690c <g_181>
    e7dc:	48 89 85 18 fa ff ff 	mov    %rax,-0x5e8(%rbp)
    e7e3:	48 8d 85 80 f5 ff ff 	lea    -0xa80(%rbp),%rax
    e7ea:	48 83 c0 10          	add    $0x10,%rax
    e7ee:	48 89 85 20 fa ff ff 	mov    %rax,-0x5e0(%rbp)
    e7f5:	48 8d 85 b0 f3 ff ff 	lea    -0xc50(%rbp),%rax
    e7fc:	48 89 85 28 fa ff ff 	mov    %rax,-0x5d8(%rbp)
    e803:	48 8d 85 b0 f3 ff ff 	lea    -0xc50(%rbp),%rax
    e80a:	48 89 85 30 fa ff ff 	mov    %rax,-0x5d0(%rbp)
    e811:	48 8d 85 80 f5 ff ff 	lea    -0xa80(%rbp),%rax
    e818:	48 83 c0 10          	add    $0x10,%rax
    e81c:	48 89 85 38 fa ff ff 	mov    %rax,-0x5c8(%rbp)
    e823:	48 8d 05 e2 80 00 00 	lea    0x80e2(%rip),%rax        # 1690c <g_181>
    e82a:	48 89 85 40 fa ff ff 	mov    %rax,-0x5c0(%rbp)
    e831:	48 8d 85 b0 f3 ff ff 	lea    -0xc50(%rbp),%rax
    e838:	48 89 85 48 fa ff ff 	mov    %rax,-0x5b8(%rbp)
    e83f:	48 8d 85 b0 f3 ff ff 	lea    -0xc50(%rbp),%rax
    e846:	48 89 85 50 fa ff ff 	mov    %rax,-0x5b0(%rbp)
    e84d:	48 8d 05 b8 80 00 00 	lea    0x80b8(%rip),%rax        # 1690c <g_181>
    e854:	48 89 85 58 fa ff ff 	mov    %rax,-0x5a8(%rbp)
    e85b:	48 8d 85 b0 f3 ff ff 	lea    -0xc50(%rbp),%rax
    e862:	48 89 85 60 fa ff ff 	mov    %rax,-0x5a0(%rbp)
    e869:	48 8d 85 bc f3 ff ff 	lea    -0xc44(%rbp),%rax
    e870:	48 89 85 68 fa ff ff 	mov    %rax,-0x598(%rbp)
    e877:	48 8d 05 8e 80 00 00 	lea    0x808e(%rip),%rax        # 1690c <g_181>
    e87e:	48 89 85 70 fa ff ff 	mov    %rax,-0x590(%rbp)
    e885:	48 8d 05 b8 77 00 00 	lea    0x77b8(%rip),%rax        # 16044 <g_2+0x14>
    e88c:	48 89 85 78 fa ff ff 	mov    %rax,-0x588(%rbp)
    e893:	48 8d 85 80 f5 ff ff 	lea    -0xa80(%rbp),%rax
    e89a:	48 83 c0 10          	add    $0x10,%rax
    e89e:	48 89 85 80 fa ff ff 	mov    %rax,-0x580(%rbp)
    e8a5:	48 8d 85 80 f5 ff ff 	lea    -0xa80(%rbp),%rax
    e8ac:	48 83 c0 10          	add    $0x10,%rax
    e8b0:	48 89 85 88 fa ff ff 	mov    %rax,-0x578(%rbp)
    e8b7:	c7 85 d8 f3 ff ff 00 	movl   $0x0,-0xc28(%rbp)
    e8be:	00 00 00 
    e8c1:	eb 14                	jmp    e8d7 <func_84+0x1c1a>
    e8c3:	8b 85 d8 f3 ff ff    	mov    -0xc28(%rbp),%eax
    e8c9:	48 98                	cltq   
    e8cb:	c6 44 05 c6 01       	movb   $0x1,-0x3a(%rbp,%rax,1)
    e8d0:	83 85 d8 f3 ff ff 01 	addl   $0x1,-0xc28(%rbp)
    e8d7:	83 bd d8 f3 ff ff 01 	cmpl   $0x1,-0xc28(%rbp)
    e8de:	7e e3                	jle    e8c3 <func_84+0x1c06>
    e8e0:	48 8d 85 b0 f3 ff ff 	lea    -0xc50(%rbp),%rax
    e8e7:	48 89 05 d2 be 00 00 	mov    %rax,0xbed2(%rip)        # 1a7c0 <g_127>
    e8ee:	0f b7 05 bb 80 00 00 	movzwl 0x80bb(%rip),%eax        # 169b0 <g_334>
    e8f5:	83 c0 01             	add    $0x1,%eax
    e8f8:	66 89 05 b1 80 00 00 	mov    %ax,0x80b1(%rip)        # 169b0 <g_334>
    e8ff:	48 8b 85 98 f3 ff ff 	mov    -0xc68(%rbp),%rax
    e906:	8b 00                	mov    (%rax),%eax
    e908:	85 c0                	test   %eax,%eax
    e90a:	0f b6 05 97 be 00 00 	movzbl 0xbe97(%rip),%eax        # 1a7a8 <g_96>
    e911:	0f be c0             	movsbl %al,%eax
    e914:	be 06 00 00 00       	mov    $0x6,%esi
    e919:	89 c7                	mov    %eax,%edi
    e91b:	e8 b4 68 ff ff       	callq  51d4 <safe_add_func_int8_t_s_s>
    e920:	88 05 82 be 00 00    	mov    %al,0xbe82(%rip)        # 1a7a8 <g_96>
    e926:	0f b6 05 7b be 00 00 	movzbl 0xbe7b(%rip),%eax        # 1a7a8 <g_96>
    e92d:	3c 23                	cmp    $0x23,%al
    e92f:	0f 86 4a fc ff ff    	jbe    e57f <func_84+0x18c2>
    e935:	8b 05 f1 7a 00 00    	mov    0x7af1(%rip),%eax        # 1642c <g_166>
    e93b:	83 c0 01             	add    $0x1,%eax
    e93e:	89 05 e8 7a 00 00    	mov    %eax,0x7ae8(%rip)        # 1642c <g_166>
    e944:	8b 05 e2 7a 00 00    	mov    0x7ae2(%rip),%eax        # 1642c <g_166>
    e94a:	83 f8 11             	cmp    $0x11,%eax
    e94d:	0f 84 cd fb ff ff    	je     e520 <func_84+0x1863>
    e953:	48 8b 85 50 f4 ff ff 	mov    -0xbb0(%rbp),%rax
    e95a:	0f b7 10             	movzwl (%rax),%edx
    e95d:	48 8b 85 50 f4 ff ff 	mov    -0xbb0(%rbp),%rax
    e964:	66 89 10             	mov    %dx,(%rax)
    e967:	48 8b 85 50 f4 ff ff 	mov    -0xbb0(%rbp),%rax
    e96e:	0f b7 00             	movzwl (%rax),%eax
    e971:	0f b7 c0             	movzwl %ax,%eax
    e974:	be 03 00 00 00       	mov    $0x3,%esi
    e979:	89 c7                	mov    %eax,%edi
    e97b:	e8 3e 74 ff ff       	callq  5dbe <safe_lshift_func_uint16_t_u_s>
    e980:	66 85 c0             	test   %ax,%ax
    e983:	0f 84 fe 00 00 00    	je     ea87 <func_84+0x1dca>
    e989:	48 8d 85 b4 f3 ff ff 	lea    -0xc4c(%rbp),%rax
    e990:	48 89 85 90 f4 ff ff 	mov    %rax,-0xb70(%rbp)
    e997:	48 8d 05 22 be 00 00 	lea    0xbe22(%rip),%rax        # 1a7c0 <g_127>
    e99e:	48 89 85 98 f4 ff ff 	mov    %rax,-0xb68(%rbp)
    e9a5:	48 8d 85 b0 f3 ff ff 	lea    -0xc50(%rbp),%rax
    e9ac:	48 89 85 a0 f4 ff ff 	mov    %rax,-0xb60(%rbp)
    e9b3:	48 8d 85 b0 f3 ff ff 	lea    -0xc50(%rbp),%rax
    e9ba:	48 89 85 a8 f4 ff ff 	mov    %rax,-0xb58(%rbp)
    e9c1:	48 8d 85 80 f5 ff ff 	lea    -0xa80(%rbp),%rax
    e9c8:	48 83 c0 10          	add    $0x10,%rax
    e9cc:	48 89 85 b0 f4 ff ff 	mov    %rax,-0xb50(%rbp)
    e9d3:	48 8d 85 b0 f3 ff ff 	lea    -0xc50(%rbp),%rax
    e9da:	48 89 85 b8 f4 ff ff 	mov    %rax,-0xb48(%rbp)
    e9e1:	48 8d 85 80 f5 ff ff 	lea    -0xa80(%rbp),%rax
    e9e8:	48 83 c0 10          	add    $0x10,%rax
    e9ec:	48 89 85 c0 f4 ff ff 	mov    %rax,-0xb40(%rbp)
    e9f3:	48 8d 85 80 f5 ff ff 	lea    -0xa80(%rbp),%rax
    e9fa:	48 89 85 c8 f4 ff ff 	mov    %rax,-0xb38(%rbp)
    ea01:	48 8d 85 a0 f9 ff ff 	lea    -0x660(%rbp),%rax
    ea08:	48 89 85 d0 f4 ff ff 	mov    %rax,-0xb30(%rbp)
    ea0f:	48 8d 85 b8 f3 ff ff 	lea    -0xc48(%rbp),%rax
    ea16:	48 89 85 d8 f4 ff ff 	mov    %rax,-0xb28(%rbp)
    ea1d:	48 c7 85 e0 f4 ff ff 	movq   $0x0,-0xb20(%rbp)
    ea24:	00 00 00 00 
    ea28:	48 8d 85 a0 f9 ff ff 	lea    -0x660(%rbp),%rax
    ea2f:	48 89 85 e8 f4 ff ff 	mov    %rax,-0xb18(%rbp)
    ea36:	c7 85 dc f3 ff ff 00 	movl   $0x0,-0xc24(%rbp)
    ea3d:	00 00 00 
    ea40:	eb 1a                	jmp    ea5c <func_84+0x1d9f>
    ea42:	8b 85 dc f3 ff ff    	mov    -0xc24(%rbp),%eax
    ea48:	48 98                	cltq   
    ea4a:	c7 84 85 a0 f9 ff ff 	movl   $0xffffffff,-0x660(%rbp,%rax,4)
    ea51:	ff ff ff ff 
    ea55:	83 85 dc f3 ff ff 01 	addl   $0x1,-0xc24(%rbp)
    ea5c:	83 bd dc f3 ff ff 01 	cmpl   $0x1,-0xc24(%rbp)
    ea63:	7e dd                	jle    ea42 <func_84+0x1d85>
    ea65:	48 8b 85 98 f4 ff ff 	mov    -0xb68(%rbp),%rax
    ea6c:	48 8b 95 90 f4 ff ff 	mov    -0xb70(%rbp),%rdx
    ea73:	48 89 10             	mov    %rdx,(%rax)
    ea76:	8b 05 38 7f 00 00    	mov    0x7f38(%rip),%eax        # 169b4 <g_354>
    ea7c:	83 e8 01             	sub    $0x1,%eax
    ea7f:	89 05 2f 7f 00 00    	mov    %eax,0x7f2f(%rip)        # 169b4 <g_354>
    ea85:	eb 1f                	jmp    eaa6 <func_84+0x1de9>
    ea87:	48 8d 05 32 bd 00 00 	lea    0xbd32(%rip),%rax        # 1a7c0 <g_127>
    ea8e:	48 89 85 88 f4 ff ff 	mov    %rax,-0xb78(%rbp)
    ea95:	48 8b 85 88 f4 ff ff 	mov    -0xb78(%rbp),%rax
    ea9c:	48 8d 95 bc f3 ff ff 	lea    -0xc44(%rbp),%rdx
    eaa3:	48 89 10             	mov    %rdx,(%rax)
    eaa6:	0f b7 85 94 f3 ff ff 	movzwl -0xc6c(%rbp),%eax
    eaad:	e9 5f 03 00 00       	jmpq   ee11 <func_84+0x2154>
    eab2:	48 8d 05 6f 7e 00 00 	lea    0x7e6f(%rip),%rax        # 16928 <g_326+0x8>
    eab9:	48 89 85 58 f5 ff ff 	mov    %rax,-0xaa8(%rbp)
    eac0:	c7 85 08 f4 ff ff 1d 	movl   $0x95629a1d,-0xbf8(%rbp)
    eac7:	9a 62 95 
    eaca:	48 8d 05 1f 79 00 00 	lea    0x791f(%rip),%rax        # 163f0 <g_156>
    ead1:	48 89 85 60 f7 ff ff 	mov    %rax,-0x8a0(%rbp)
    ead8:	48 8d 05 11 79 00 00 	lea    0x7911(%rip),%rax        # 163f0 <g_156>
    eadf:	48 89 85 68 f7 ff ff 	mov    %rax,-0x898(%rbp)
    eae6:	48 8d 05 03 79 00 00 	lea    0x7903(%rip),%rax        # 163f0 <g_156>
    eaed:	48 89 85 70 f7 ff ff 	mov    %rax,-0x890(%rbp)
    eaf4:	48 8d 05 f5 78 00 00 	lea    0x78f5(%rip),%rax        # 163f0 <g_156>
    eafb:	48 89 85 78 f7 ff ff 	mov    %rax,-0x888(%rbp)
    eb02:	48 8d 05 e7 78 00 00 	lea    0x78e7(%rip),%rax        # 163f0 <g_156>
    eb09:	48 89 85 80 f7 ff ff 	mov    %rax,-0x880(%rbp)
    eb10:	48 8d 05 d9 78 00 00 	lea    0x78d9(%rip),%rax        # 163f0 <g_156>
    eb17:	48 89 85 88 f7 ff ff 	mov    %rax,-0x878(%rbp)
    eb1e:	48 8d 05 cb 78 00 00 	lea    0x78cb(%rip),%rax        # 163f0 <g_156>
    eb25:	48 89 85 90 f7 ff ff 	mov    %rax,-0x870(%rbp)
    eb2c:	48 8d 05 bd 78 00 00 	lea    0x78bd(%rip),%rax        # 163f0 <g_156>
    eb33:	48 89 85 98 f7 ff ff 	mov    %rax,-0x868(%rbp)
    eb3a:	48 8d 05 af 78 00 00 	lea    0x78af(%rip),%rax        # 163f0 <g_156>
    eb41:	48 89 85 a0 f7 ff ff 	mov    %rax,-0x860(%rbp)
    eb48:	48 8d 05 a1 78 00 00 	lea    0x78a1(%rip),%rax        # 163f0 <g_156>
    eb4f:	48 89 85 a8 f7 ff ff 	mov    %rax,-0x858(%rbp)
    eb56:	48 8d 05 93 78 00 00 	lea    0x7893(%rip),%rax        # 163f0 <g_156>
    eb5d:	48 89 85 b0 f7 ff ff 	mov    %rax,-0x850(%rbp)
    eb64:	48 8d 05 85 78 00 00 	lea    0x7885(%rip),%rax        # 163f0 <g_156>
    eb6b:	48 89 85 b8 f7 ff ff 	mov    %rax,-0x848(%rbp)
    eb72:	48 8d 85 60 f7 ff ff 	lea    -0x8a0(%rbp),%rax
    eb79:	48 83 c0 48          	add    $0x48,%rax
    eb7d:	48 89 85 f0 f5 ff ff 	mov    %rax,-0xa10(%rbp)
    eb84:	48 8d 85 60 f7 ff ff 	lea    -0x8a0(%rbp),%rax
    eb8b:	48 83 c0 48          	add    $0x48,%rax
    eb8f:	48 89 85 f8 f5 ff ff 	mov    %rax,-0xa08(%rbp)
    eb96:	48 8d 85 60 f7 ff ff 	lea    -0x8a0(%rbp),%rax
    eb9d:	48 83 c0 48          	add    $0x48,%rax
    eba1:	48 89 85 00 f6 ff ff 	mov    %rax,-0xa00(%rbp)
    eba8:	48 8d 85 60 f7 ff ff 	lea    -0x8a0(%rbp),%rax
    ebaf:	48 83 c0 48          	add    $0x48,%rax
    ebb3:	48 89 85 08 f6 ff ff 	mov    %rax,-0x9f8(%rbp)
    ebba:	48 8d 85 60 f7 ff ff 	lea    -0x8a0(%rbp),%rax
    ebc1:	48 83 c0 48          	add    $0x48,%rax
    ebc5:	48 89 85 10 f6 ff ff 	mov    %rax,-0x9f0(%rbp)
    ebcc:	48 8d 85 a0 f9 ff ff 	lea    -0x660(%rbp),%rax
    ebd3:	48 8d 15 c6 b0 00 00 	lea    0xb0c6(%rip),%rdx        # 19ca0 <g_1346+0x1150>
    ebda:	b9 60 00 00 00       	mov    $0x60,%ecx
    ebdf:	48 89 c7             	mov    %rax,%rdi
    ebe2:	48 89 d6             	mov    %rdx,%rsi
    ebe5:	f3 48 a5             	rep movsq %ds:(%rsi),%es:(%rdi)
    ebe8:	c7 85 fc f3 ff ff 1a 	movl   $0xf491811a,-0xc04(%rbp)
    ebef:	81 91 f4 
    ebf2:	48 8d 05 df bb 00 00 	lea    0xbbdf(%rip),%rax        # 1a7d8 <g_210>
    ebf9:	48 89 85 60 f5 ff ff 	mov    %rax,-0xaa0(%rbp)
    ec00:	c7 85 e0 f3 ff ff 00 	movl   $0x0,-0xc20(%rbp)
    ec07:	00 00 00 
    ec0a:	eb 19                	jmp    ec25 <func_84+0x1f68>
    ec0c:	8b 85 e0 f3 ff ff    	mov    -0xc20(%rbp),%eax
    ec12:	48 98                	cltq   
    ec14:	66 c7 84 45 a0 f5 ff 	movw   $0x6,-0xa60(%rbp,%rax,2)
    ec1b:	ff 06 00 
    ec1e:	83 85 e0 f3 ff ff 01 	addl   $0x1,-0xc20(%rbp)
    ec25:	83 bd e0 f3 ff ff 00 	cmpl   $0x0,-0xc20(%rbp)
    ec2c:	7e de                	jle    ec0c <func_84+0x1f4f>
    ec2e:	8b 85 b4 f3 ff ff    	mov    -0xc4c(%rbp),%eax
    ec34:	0f be d8             	movsbl %al,%ebx
    ec37:	c7 05 1f 74 00 00 f8 	movl   $0xfffffff8,0x741f(%rip)        # 16060 <g_64>
    ec3e:	ff ff ff 
    ec41:	48 8d 05 56 7d 00 00 	lea    0x7d56(%rip),%rax        # 1699e <g_326+0x7e>
    ec48:	48 39 85 58 f5 ff ff 	cmp    %rax,-0xaa8(%rbp)
    ec4f:	75 14                	jne    ec65 <func_84+0x1fa8>
    ec51:	8b 85 08 f4 ff ff    	mov    -0xbf8(%rbp),%eax
    ec57:	85 c0                	test   %eax,%eax
    ec59:	74 0b                	je     ec66 <func_84+0x1fa9>
    ec5b:	0f b7 05 b8 7c 00 00 	movzwl 0x7cb8(%rip),%eax        # 1691a <g_298>
    ec62:	66 85 c0             	test   %ax,%ax
    ec65:	90                   	nop
    ec66:	48 8b 85 08 f6 ff ff 	mov    -0x9f8(%rbp),%rax
    ec6d:	48 39 85 18 f4 ff ff 	cmp    %rax,-0xbe8(%rbp)
    ec74:	0f 95 c0             	setne  %al
    ec77:	0f b6 c0             	movzbl %al,%eax
    ec7a:	89 c7                	mov    %eax,%edi
    ec7c:	e8 68 70 ff ff       	callq  5ce9 <safe_unary_minus_func_uint16_t_u>
    ec81:	0f b7 85 a0 f5 ff ff 	movzwl -0xa60(%rbp),%eax
    ec88:	66 39 85 94 f3 ff ff 	cmp    %ax,-0xc6c(%rbp)
    ec8f:	0f 96 c0             	setbe  %al
    ec92:	0f b6 c0             	movzbl %al,%eax
    ec95:	8b 15 31 74 00 00    	mov    0x7431(%rip),%edx        # 160cc <g_135>
    ec9b:	89 d2                	mov    %edx,%edx
    ec9d:	48 39 d0             	cmp    %rdx,%rax
    eca0:	0f 9e c0             	setle  %al
    eca3:	0f b6 c0             	movzbl %al,%eax
    eca6:	89 85 b0 f3 ff ff    	mov    %eax,-0xc50(%rbp)
    ecac:	be 0b 00 00 00       	mov    $0xb,%esi
    ecb1:	bf 01 00 00 00       	mov    $0x1,%edi
    ecb6:	e8 26 68 ff ff       	callq  54e1 <safe_lshift_func_int16_t_s_u>
    ecbb:	89 de                	mov    %ebx,%esi
    ecbd:	bf fa ff ff ff       	mov    $0xfffffffa,%edi
    ecc2:	e8 4b 65 ff ff       	callq  5212 <safe_mul_func_int8_t_s_s>
    ecc7:	0f b6 c0             	movzbl %al,%eax
    ecca:	be f0 00 00 00       	mov    $0xf0,%esi
    eccf:	89 c7                	mov    %eax,%edi
    ecd1:	e8 84 6e ff ff       	callq  5b5a <safe_add_func_uint8_t_u_u>
    ecd6:	0f b6 d0             	movzbl %al,%edx
    ecd9:	8b 05 3d 77 00 00    	mov    0x773d(%rip),%eax        # 1641c <g_165+0xc>
    ecdf:	39 c2                	cmp    %eax,%edx
    ece1:	0f 94 c0             	sete   %al
    ece4:	0f b6 c0             	movzbl %al,%eax
    ece7:	be ff ff 00 00       	mov    $0xffff,%esi
    ecec:	89 c7                	mov    %eax,%edi
    ecee:	e8 2c 70 ff ff       	callq  5d1f <safe_sub_func_uint16_t_u_u>
    ecf3:	0f b7 c0             	movzwl %ax,%eax
    ecf6:	31 85 c0 f3 ff ff    	xor    %eax,-0xc40(%rbp)
    ecfc:	8b 85 b0 f3 ff ff    	mov    -0xc50(%rbp),%eax
    ed02:	48 63 d0             	movslq %eax,%rdx
    ed05:	48 8b 85 00 f4 ff ff 	mov    -0xc00(%rbp),%rax
    ed0c:	48 09 d0             	or     %rdx,%rax
    ed0f:	89 c2                	mov    %eax,%edx
    ed11:	8b 85 fc f3 ff ff    	mov    -0xc04(%rbp),%eax
    ed17:	09 d0                	or     %edx,%eax
    ed19:	89 85 fc f3 ff ff    	mov    %eax,-0xc04(%rbp)
    ed1f:	8b 95 fc f3 ff ff    	mov    -0xc04(%rbp),%edx
    ed25:	8b 05 c1 76 00 00    	mov    0x76c1(%rip),%eax        # 163ec <g_155>
    ed2b:	39 c2                	cmp    %eax,%edx
    ed2d:	0f 83 d7 00 00 00    	jae    ee0a <func_84+0x214d>
    ed33:	48 8d 05 86 ba 00 00 	lea    0xba86(%rip),%rax        # 1a7c0 <g_127>
    ed3a:	48 89 85 68 f5 ff ff 	mov    %rax,-0xa98(%rbp)
    ed41:	48 8d 05 64 ba 00 00 	lea    0xba64(%rip),%rax        # 1a7ac <g_119>
    ed48:	48 89 85 70 f5 ff ff 	mov    %rax,-0xa90(%rbp)
    ed4f:	48 8d 85 b4 f3 ff ff 	lea    -0xc4c(%rbp),%rax
    ed56:	48 89 85 78 f5 ff ff 	mov    %rax,-0xa88(%rbp)
    ed5d:	48 8b 85 68 f5 ff ff 	mov    -0xa98(%rbp),%rax
    ed64:	48 8d 95 08 f4 ff ff 	lea    -0xbf8(%rbp),%rdx
    ed6b:	48 89 10             	mov    %rdx,(%rax)
    ed6e:	48 8b 85 68 f5 ff ff 	mov    -0xa98(%rbp),%rax
    ed75:	48 8b 00             	mov    (%rax),%rax
    ed78:	8b 00                	mov    (%rax),%eax
    ed7a:	89 c2                	mov    %eax,%edx
    ed7c:	48 8b 85 20 f4 ff ff 	mov    -0xbe0(%rbp),%rax
    ed83:	31 c2                	xor    %eax,%edx
    ed85:	48 8b 85 68 f5 ff ff 	mov    -0xa98(%rbp),%rax
    ed8c:	48 8b 00             	mov    (%rax),%rax
    ed8f:	89 10                	mov    %edx,(%rax)
    ed91:	48 c7 85 98 f3 ff ff 	movq   $0x0,-0xc68(%rbp)
    ed98:	00 00 00 00 
    ed9c:	48 8b 85 70 f5 ff ff 	mov    -0xa90(%rbp),%rax
    eda3:	8b 00                	mov    (%rax),%eax
    eda5:	8d 48 01             	lea    0x1(%rax),%ecx
    eda8:	48 8b 95 70 f5 ff ff 	mov    -0xa90(%rbp),%rdx
    edaf:	89 0a                	mov    %ecx,(%rdx)
    edb1:	48 8b 15 08 ba 00 00 	mov    0xba08(%rip),%rdx        # 1a7c0 <g_127>
    edb8:	8b 12                	mov    (%rdx),%edx
    edba:	21 c2                	and    %eax,%edx
    edbc:	0f b7 85 a0 f5 ff ff 	movzwl -0xa60(%rbp),%eax
    edc3:	0f b7 c0             	movzwl %ax,%eax
    edc6:	39 c2                	cmp    %eax,%edx
    edc8:	72 16                	jb     ede0 <func_84+0x2123>
    edca:	8b 85 c0 f3 ff ff    	mov    -0xc40(%rbp),%eax
    edd0:	83 c8 01             	or     $0x1,%eax
    edd3:	89 c2                	mov    %eax,%edx
    edd5:	0f b7 85 94 f3 ff ff 	movzwl -0xc6c(%rbp),%eax
    eddc:	39 c2                	cmp    %eax,%edx
    edde:	7d 07                	jge    ede7 <func_84+0x212a>
    ede0:	ba 01 00 00 00       	mov    $0x1,%edx
    ede5:	eb 05                	jmp    edec <func_84+0x212f>
    ede7:	ba 00 00 00 00       	mov    $0x0,%edx
    edec:	48 8b 85 78 f5 ff ff 	mov    -0xa88(%rbp),%rax
    edf3:	8b 00                	mov    (%rax),%eax
    edf5:	31 c2                	xor    %eax,%edx
    edf7:	48 8b 85 78 f5 ff ff 	mov    -0xa88(%rbp),%rax
    edfe:	89 10                	mov    %edx,(%rax)
    ee00:	8b 05 86 72 00 00    	mov    0x7286(%rip),%eax        # 1608c <g_129>
    ee06:	89 c0                	mov    %eax,%eax
    ee08:	eb 07                	jmp    ee11 <func_84+0x2154>
    ee0a:	48 8b 05 a7 b9 00 00 	mov    0xb9a7(%rip),%rax        # 1a7b8 <g_121+0x8>
    ee11:	48 8b 5d c8          	mov    -0x38(%rbp),%rbx
    ee15:	64 48 33 1c 25 28 00 	xor    %fs:0x28,%rbx
    ee1c:	00 00 
    ee1e:	74 05                	je     ee25 <func_84+0x2168>
    ee20:	e8 4b 62 ff ff       	callq  5070 <__stack_chk_fail@plt>
    ee25:	48 81 c4 48 0c 00 00 	add    $0xc48,%rsp
    ee2c:	5b                   	pop    %rbx
    ee2d:	41 5c                	pop    %r12
    ee2f:	41 5d                	pop    %r13
    ee31:	41 5e                	pop    %r14
    ee33:	41 5f                	pop    %r15
    ee35:	5d                   	pop    %rbp
    ee36:	c3                   	retq   

000000000000ee37 <main>:
    ee37:	f3 0f 1e fa          	endbr64 
    ee3b:	55                   	push   %rbp
    ee3c:	48 89 e5             	mov    %rsp,%rbp
    ee3f:	48 83 ec 20          	sub    $0x20,%rsp
    ee43:	89 7d ec             	mov    %edi,-0x14(%rbp)
    ee46:	48 89 75 e0          	mov    %rsi,-0x20(%rbp)
    ee4a:	c7 45 fc 00 00 00 00 	movl   $0x0,-0x4(%rbp)
    ee51:	83 7d ec 02          	cmpl   $0x2,-0x14(%rbp)
    ee55:	75 25                	jne    ee7c <main+0x45>
    ee57:	48 8b 45 e0          	mov    -0x20(%rbp),%rax
    ee5b:	48 83 c0 08          	add    $0x8,%rax
    ee5f:	48 8b 00             	mov    (%rax),%rax
    ee62:	48 8d 35 b7 41 00 00 	lea    0x41b7(%rip),%rsi        # 13020 <g_1231+0xfc8>
    ee69:	48 89 c7             	mov    %rax,%rdi
    ee6c:	e8 1f 62 ff ff       	callq  5090 <strcmp@plt>
    ee71:	85 c0                	test   %eax,%eax
    ee73:	75 07                	jne    ee7c <main+0x45>
    ee75:	c7 45 fc 01 00 00 00 	movl   $0x1,-0x4(%rbp)
    ee7c:	e8 08 63 ff ff       	callq  5189 <platform_main_begin>
    ee81:	e8 12 77 ff ff       	callq  6598 <crc32_gentab>
    ee86:	e8 2a 79 ff ff       	callq  67b5 <func_1>
    ee8b:	c7 45 f0 00 00 00 00 	movl   $0x0,-0x10(%rbp)
    ee92:	eb 4b                	jmp    eedf <main+0xa8>
    ee94:	8b 45 f0             	mov    -0x10(%rbp),%eax
    ee97:	48 98                	cltq   
    ee99:	48 8d 14 85 00 00 00 	lea    0x0(,%rax,4),%rdx
    eea0:	00 
    eea1:	48 8d 05 88 71 00 00 	lea    0x7188(%rip),%rax        # 16030 <g_2>
    eea8:	8b 04 02             	mov    (%rdx,%rax,1),%eax
    eeab:	48 98                	cltq   
    eead:	8b 55 fc             	mov    -0x4(%rbp),%edx
    eeb0:	48 8d 35 6b 41 00 00 	lea    0x416b(%rip),%rsi        # 13022 <g_1231+0xfca>
    eeb7:	48 89 c7             	mov    %rax,%rdi
    eeba:	e8 34 78 ff ff       	callq  66f3 <transparent_crc>
    eebf:	83 7d fc 00          	cmpl   $0x0,-0x4(%rbp)
    eec3:	74 16                	je     eedb <main+0xa4>
    eec5:	8b 45 f0             	mov    -0x10(%rbp),%eax
    eec8:	89 c6                	mov    %eax,%esi
    eeca:	48 8d 3d 58 41 00 00 	lea    0x4158(%rip),%rdi        # 13029 <g_1231+0xfd1>
    eed1:	b8 00 00 00 00       	mov    $0x0,%eax
    eed6:	e8 a5 61 ff ff       	callq  5080 <printf@plt>
    eedb:	83 45 f0 01          	addl   $0x1,-0x10(%rbp)
    eedf:	83 7d f0 06          	cmpl   $0x6,-0x10(%rbp)
    eee3:	7e af                	jle    ee94 <main+0x5d>
    eee5:	8b 05 61 71 00 00    	mov    0x7161(%rip),%eax        # 1604c <g_5>
    eeeb:	48 98                	cltq   
    eeed:	8b 55 fc             	mov    -0x4(%rbp),%edx
    eef0:	48 8d 35 40 41 00 00 	lea    0x4140(%rip),%rsi        # 13037 <g_1231+0xfdf>
    eef7:	48 89 c7             	mov    %rax,%rdi
    eefa:	e8 f4 77 ff ff       	callq  66f3 <transparent_crc>
    eeff:	0f b6 05 4a 71 00 00 	movzbl 0x714a(%rip),%eax        # 16050 <g_24>
    ef06:	0f b6 c0             	movzbl %al,%eax
    ef09:	8b 55 fc             	mov    -0x4(%rbp),%edx
    ef0c:	48 8d 35 28 41 00 00 	lea    0x4128(%rip),%rsi        # 1303b <g_1231+0xfe3>
    ef13:	48 89 c7             	mov    %rax,%rdi
    ef16:	e8 d8 77 ff ff       	callq  66f3 <transparent_crc>
    ef1b:	c7 45 f0 00 00 00 00 	movl   $0x0,-0x10(%rbp)
    ef22:	eb 45                	jmp    ef69 <main+0x132>
    ef24:	8b 45 f0             	mov    -0x10(%rbp),%eax
    ef27:	48 98                	cltq   
    ef29:	48 8d 15 21 71 00 00 	lea    0x7121(%rip),%rdx        # 16051 <g_56>
    ef30:	0f b6 04 10          	movzbl (%rax,%rdx,1),%eax
    ef34:	0f b6 c0             	movzbl %al,%eax
    ef37:	8b 55 fc             	mov    -0x4(%rbp),%edx
    ef3a:	48 8d 35 ff 40 00 00 	lea    0x40ff(%rip),%rsi        # 13040 <g_1231+0xfe8>
    ef41:	48 89 c7             	mov    %rax,%rdi
    ef44:	e8 aa 77 ff ff       	callq  66f3 <transparent_crc>
    ef49:	83 7d fc 00          	cmpl   $0x0,-0x4(%rbp)
    ef4d:	74 16                	je     ef65 <main+0x12e>
    ef4f:	8b 45 f0             	mov    -0x10(%rbp),%eax
    ef52:	89 c6                	mov    %eax,%esi
    ef54:	48 8d 3d ce 40 00 00 	lea    0x40ce(%rip),%rdi        # 13029 <g_1231+0xfd1>
    ef5b:	b8 00 00 00 00       	mov    $0x0,%eax
    ef60:	e8 1b 61 ff ff       	callq  5080 <printf@plt>
    ef65:	83 45 f0 01          	addl   $0x1,-0x10(%rbp)
    ef69:	83 7d f0 06          	cmpl   $0x6,-0x10(%rbp)
    ef6d:	7e b5                	jle    ef24 <main+0xed>
    ef6f:	0f b7 05 e2 70 00 00 	movzwl 0x70e2(%rip),%eax        # 16058 <g_59>
    ef76:	48 0f bf c0          	movswq %ax,%rax
    ef7a:	8b 55 fc             	mov    -0x4(%rbp),%edx
    ef7d:	48 8d 35 c4 40 00 00 	lea    0x40c4(%rip),%rsi        # 13048 <g_1231+0xff0>
    ef84:	48 89 c7             	mov    %rax,%rdi
    ef87:	e8 67 77 ff ff       	callq  66f3 <transparent_crc>
    ef8c:	8b 05 ca 70 00 00    	mov    0x70ca(%rip),%eax        # 1605c <g_60>
    ef92:	89 c1                	mov    %eax,%ecx
    ef94:	8b 45 fc             	mov    -0x4(%rbp),%eax
    ef97:	89 c2                	mov    %eax,%edx
    ef99:	48 8d 35 ad 40 00 00 	lea    0x40ad(%rip),%rsi        # 1304d <g_1231+0xff5>
    efa0:	48 89 cf             	mov    %rcx,%rdi
    efa3:	e8 4b 77 ff ff       	callq  66f3 <transparent_crc>
    efa8:	8b 05 b2 70 00 00    	mov    0x70b2(%rip),%eax        # 16060 <g_64>
    efae:	48 98                	cltq   
    efb0:	8b 55 fc             	mov    -0x4(%rbp),%edx
    efb3:	48 8d 35 98 40 00 00 	lea    0x4098(%rip),%rsi        # 13052 <g_1231+0xffa>
    efba:	48 89 c7             	mov    %rax,%rdi
    efbd:	e8 31 77 ff ff       	callq  66f3 <transparent_crc>
    efc2:	0f b6 05 df b7 00 00 	movzbl 0xb7df(%rip),%eax        # 1a7a8 <g_96>
    efc9:	0f b6 c0             	movzbl %al,%eax
    efcc:	8b 55 fc             	mov    -0x4(%rbp),%edx
    efcf:	48 8d 35 81 40 00 00 	lea    0x4081(%rip),%rsi        # 13057 <g_1231+0xfff>
    efd6:	48 89 c7             	mov    %rax,%rdi
    efd9:	e8 15 77 ff ff       	callq  66f3 <transparent_crc>
    efde:	c7 45 f0 00 00 00 00 	movl   $0x0,-0x10(%rbp)
    efe5:	eb 4a                	jmp    f031 <main+0x1fa>
    efe7:	8b 45 f0             	mov    -0x10(%rbp),%eax
    efea:	48 98                	cltq   
    efec:	48 8d 14 00          	lea    (%rax,%rax,1),%rdx
    eff0:	48 8d 05 79 70 00 00 	lea    0x7079(%rip),%rax        # 16070 <g_106>
    eff7:	0f b7 04 02          	movzwl (%rdx,%rax,1),%eax
    effb:	48 0f bf c0          	movswq %ax,%rax
    efff:	8b 55 fc             	mov    -0x4(%rbp),%edx
    f002:	48 8d 35 53 40 00 00 	lea    0x4053(%rip),%rsi        # 1305c <g_1231+0x1004>
    f009:	48 89 c7             	mov    %rax,%rdi
    f00c:	e8 e2 76 ff ff       	callq  66f3 <transparent_crc>
    f011:	83 7d fc 00          	cmpl   $0x0,-0x4(%rbp)
    f015:	74 16                	je     f02d <main+0x1f6>
    f017:	8b 45 f0             	mov    -0x10(%rbp),%eax
    f01a:	89 c6                	mov    %eax,%esi
    f01c:	48 8d 3d 06 40 00 00 	lea    0x4006(%rip),%rdi        # 13029 <g_1231+0xfd1>
    f023:	b8 00 00 00 00       	mov    $0x0,%eax
    f028:	e8 53 60 ff ff       	callq  5080 <printf@plt>
    f02d:	83 45 f0 01          	addl   $0x1,-0x10(%rbp)
    f031:	83 7d f0 09          	cmpl   $0x9,-0x10(%rbp)
    f035:	7e b0                	jle    efe7 <main+0x1b0>
    f037:	8b 05 47 70 00 00    	mov    0x7047(%rip),%eax        # 16084 <g_108>
    f03d:	89 c1                	mov    %eax,%ecx
    f03f:	8b 45 fc             	mov    -0x4(%rbp),%eax
    f042:	89 c2                	mov    %eax,%edx
    f044:	48 8d 35 1a 40 00 00 	lea    0x401a(%rip),%rsi        # 13065 <g_1231+0x100d>
    f04b:	48 89 cf             	mov    %rcx,%rdi
    f04e:	e8 a0 76 ff ff       	callq  66f3 <transparent_crc>
    f053:	8b 05 53 b7 00 00    	mov    0xb753(%rip),%eax        # 1a7ac <g_119>
    f059:	89 c1                	mov    %eax,%ecx
    f05b:	8b 45 fc             	mov    -0x4(%rbp),%eax
    f05e:	89 c2                	mov    %eax,%edx
    f060:	48 8d 35 04 40 00 00 	lea    0x4004(%rip),%rsi        # 1306b <g_1231+0x1013>
    f067:	48 89 cf             	mov    %rcx,%rdi
    f06a:	e8 84 76 ff ff       	callq  66f3 <transparent_crc>
    f06f:	c7 45 f0 00 00 00 00 	movl   $0x0,-0x10(%rbp)
    f076:	eb 4a                	jmp    f0c2 <main+0x28b>
    f078:	8b 45 f0             	mov    -0x10(%rbp),%eax
    f07b:	48 98                	cltq   
    f07d:	48 8d 14 c5 00 00 00 	lea    0x0(,%rax,8),%rdx
    f084:	00 
    f085:	48 8d 05 24 b7 00 00 	lea    0xb724(%rip),%rax        # 1a7b0 <g_121>
    f08c:	48 8b 04 02          	mov    (%rdx,%rax,1),%rax
    f090:	8b 55 fc             	mov    -0x4(%rbp),%edx
    f093:	48 8d 35 d7 3f 00 00 	lea    0x3fd7(%rip),%rsi        # 13071 <g_1231+0x1019>
    f09a:	48 89 c7             	mov    %rax,%rdi
    f09d:	e8 51 76 ff ff       	callq  66f3 <transparent_crc>
    f0a2:	83 7d fc 00          	cmpl   $0x0,-0x4(%rbp)
    f0a6:	74 16                	je     f0be <main+0x287>
    f0a8:	8b 45 f0             	mov    -0x10(%rbp),%eax
    f0ab:	89 c6                	mov    %eax,%esi
    f0ad:	48 8d 3d 75 3f 00 00 	lea    0x3f75(%rip),%rdi        # 13029 <g_1231+0xfd1>
    f0b4:	b8 00 00 00 00       	mov    $0x0,%eax
    f0b9:	e8 c2 5f ff ff       	callq  5080 <printf@plt>
    f0be:	83 45 f0 01          	addl   $0x1,-0x10(%rbp)
    f0c2:	83 7d f0 01          	cmpl   $0x1,-0x10(%rbp)
    f0c6:	7e b0                	jle    f078 <main+0x241>
    f0c8:	c7 45 f0 00 00 00 00 	movl   $0x0,-0x10(%rbp)
    f0cf:	eb 46                	jmp    f117 <main+0x2e0>
    f0d1:	8b 45 f0             	mov    -0x10(%rbp),%eax
    f0d4:	48 98                	cltq   
    f0d6:	48 8d 15 ab 6f 00 00 	lea    0x6fab(%rip),%rdx        # 16088 <g_124>
    f0dd:	0f b6 04 10          	movzbl (%rax,%rdx,1),%eax
    f0e1:	48 0f be c0          	movsbq %al,%rax
    f0e5:	8b 55 fc             	mov    -0x4(%rbp),%edx
    f0e8:	48 8d 35 8b 3f 00 00 	lea    0x3f8b(%rip),%rsi        # 1307a <g_1231+0x1022>
    f0ef:	48 89 c7             	mov    %rax,%rdi
    f0f2:	e8 fc 75 ff ff       	callq  66f3 <transparent_crc>
    f0f7:	83 7d fc 00          	cmpl   $0x0,-0x4(%rbp)
    f0fb:	74 16                	je     f113 <main+0x2dc>
    f0fd:	8b 45 f0             	mov    -0x10(%rbp),%eax
    f100:	89 c6                	mov    %eax,%esi
    f102:	48 8d 3d 20 3f 00 00 	lea    0x3f20(%rip),%rdi        # 13029 <g_1231+0xfd1>
    f109:	b8 00 00 00 00       	mov    $0x0,%eax
    f10e:	e8 6d 5f ff ff       	callq  5080 <printf@plt>
    f113:	83 45 f0 01          	addl   $0x1,-0x10(%rbp)
    f117:	83 7d f0 03          	cmpl   $0x3,-0x10(%rbp)
    f11b:	7e b4                	jle    f0d1 <main+0x29a>
    f11d:	8b 05 69 6f 00 00    	mov    0x6f69(%rip),%eax        # 1608c <g_129>
    f123:	89 c1                	mov    %eax,%ecx
    f125:	8b 45 fc             	mov    -0x4(%rbp),%eax
    f128:	89 c2                	mov    %eax,%edx
    f12a:	48 8d 35 52 3f 00 00 	lea    0x3f52(%rip),%rsi        # 13083 <g_1231+0x102b>
    f131:	48 89 cf             	mov    %rcx,%rdi
    f134:	e8 ba 75 ff ff       	callq  66f3 <transparent_crc>
    f139:	8b 05 4d 6f 00 00    	mov    0x6f4d(%rip),%eax        # 1608c <g_129>
    f13f:	89 c1                	mov    %eax,%ecx
    f141:	8b 45 fc             	mov    -0x4(%rbp),%eax
    f144:	89 c2                	mov    %eax,%edx
    f146:	48 8d 35 3f 3f 00 00 	lea    0x3f3f(%rip),%rsi        # 1308c <g_1231+0x1034>
    f14d:	48 89 cf             	mov    %rcx,%rdi
    f150:	e8 9e 75 ff ff       	callq  66f3 <transparent_crc>
    f155:	8b 05 35 6f 00 00    	mov    0x6f35(%rip),%eax        # 16090 <g_132>
    f15b:	89 c1                	mov    %eax,%ecx
    f15d:	8b 45 fc             	mov    -0x4(%rbp),%eax
    f160:	89 c2                	mov    %eax,%edx
    f162:	48 8d 35 2c 3f 00 00 	lea    0x3f2c(%rip),%rsi        # 13095 <g_1231+0x103d>
    f169:	48 89 cf             	mov    %rcx,%rdi
    f16c:	e8 82 75 ff ff       	callq  66f3 <transparent_crc>
    f171:	8b 05 19 6f 00 00    	mov    0x6f19(%rip),%eax        # 16090 <g_132>
    f177:	89 c1                	mov    %eax,%ecx
    f179:	8b 45 fc             	mov    -0x4(%rbp),%eax
    f17c:	89 c2                	mov    %eax,%edx
    f17e:	48 8d 35 19 3f 00 00 	lea    0x3f19(%rip),%rsi        # 1309e <g_1231+0x1046>
    f185:	48 89 cf             	mov    %rcx,%rdi
    f188:	e8 66 75 ff ff       	callq  66f3 <transparent_crc>
    f18d:	c7 45 f0 00 00 00 00 	movl   $0x0,-0x10(%rbp)
    f194:	eb 7a                	jmp    f210 <main+0x3d9>
    f196:	8b 45 f0             	mov    -0x10(%rbp),%eax
    f199:	48 98                	cltq   
    f19b:	48 8d 14 85 00 00 00 	lea    0x0(,%rax,4),%rdx
    f1a2:	00 
    f1a3:	48 8d 05 f6 6e 00 00 	lea    0x6ef6(%rip),%rax        # 160a0 <g_133>
    f1aa:	8b 04 02             	mov    (%rdx,%rax,1),%eax
    f1ad:	89 c1                	mov    %eax,%ecx
    f1af:	8b 45 fc             	mov    -0x4(%rbp),%eax
    f1b2:	89 c2                	mov    %eax,%edx
    f1b4:	48 8d 35 ec 3e 00 00 	lea    0x3eec(%rip),%rsi        # 130a7 <g_1231+0x104f>
    f1bb:	48 89 cf             	mov    %rcx,%rdi
    f1be:	e8 30 75 ff ff       	callq  66f3 <transparent_crc>
    f1c3:	8b 45 f0             	mov    -0x10(%rbp),%eax
    f1c6:	48 98                	cltq   
    f1c8:	48 8d 14 85 00 00 00 	lea    0x0(,%rax,4),%rdx
    f1cf:	00 
    f1d0:	48 8d 05 c9 6e 00 00 	lea    0x6ec9(%rip),%rax        # 160a0 <g_133>
    f1d7:	8b 04 02             	mov    (%rdx,%rax,1),%eax
    f1da:	89 c1                	mov    %eax,%ecx
    f1dc:	8b 45 fc             	mov    -0x4(%rbp),%eax
    f1df:	89 c2                	mov    %eax,%edx
    f1e1:	48 8d 35 cb 3e 00 00 	lea    0x3ecb(%rip),%rsi        # 130b3 <g_1231+0x105b>
    f1e8:	48 89 cf             	mov    %rcx,%rdi
    f1eb:	e8 03 75 ff ff       	callq  66f3 <transparent_crc>
    f1f0:	83 7d fc 00          	cmpl   $0x0,-0x4(%rbp)
    f1f4:	74 16                	je     f20c <main+0x3d5>
    f1f6:	8b 45 f0             	mov    -0x10(%rbp),%eax
    f1f9:	89 c6                	mov    %eax,%esi
    f1fb:	48 8d 3d 27 3e 00 00 	lea    0x3e27(%rip),%rdi        # 13029 <g_1231+0xfd1>
    f202:	b8 00 00 00 00       	mov    $0x0,%eax
    f207:	e8 74 5e ff ff       	callq  5080 <printf@plt>
    f20c:	83 45 f0 01          	addl   $0x1,-0x10(%rbp)
    f210:	83 7d f0 07          	cmpl   $0x7,-0x10(%rbp)
    f214:	7e 80                	jle    f196 <main+0x35f>
    f216:	c7 45 f0 00 00 00 00 	movl   $0x0,-0x10(%rbp)
    f21d:	eb 7a                	jmp    f299 <main+0x462>
    f21f:	8b 45 f0             	mov    -0x10(%rbp),%eax
    f222:	48 98                	cltq   
    f224:	48 8d 14 85 00 00 00 	lea    0x0(,%rax,4),%rdx
    f22b:	00 
    f22c:	48 8d 05 8d 6e 00 00 	lea    0x6e8d(%rip),%rax        # 160c0 <g_134>
    f233:	8b 04 02             	mov    (%rdx,%rax,1),%eax
    f236:	89 c1                	mov    %eax,%ecx
    f238:	8b 45 fc             	mov    -0x4(%rbp),%eax
    f23b:	89 c2                	mov    %eax,%edx
    f23d:	48 8d 35 7b 3e 00 00 	lea    0x3e7b(%rip),%rsi        # 130bf <g_1231+0x1067>
    f244:	48 89 cf             	mov    %rcx,%rdi
    f247:	e8 a7 74 ff ff       	callq  66f3 <transparent_crc>
    f24c:	8b 45 f0             	mov    -0x10(%rbp),%eax
    f24f:	48 98                	cltq   
    f251:	48 8d 14 85 00 00 00 	lea    0x0(,%rax,4),%rdx
    f258:	00 
    f259:	48 8d 05 60 6e 00 00 	lea    0x6e60(%rip),%rax        # 160c0 <g_134>
    f260:	8b 04 02             	mov    (%rdx,%rax,1),%eax
    f263:	89 c1                	mov    %eax,%ecx
    f265:	8b 45 fc             	mov    -0x4(%rbp),%eax
    f268:	89 c2                	mov    %eax,%edx
    f26a:	48 8d 35 5a 3e 00 00 	lea    0x3e5a(%rip),%rsi        # 130cb <g_1231+0x1073>
    f271:	48 89 cf             	mov    %rcx,%rdi
    f274:	e8 7a 74 ff ff       	callq  66f3 <transparent_crc>
    f279:	83 7d fc 00          	cmpl   $0x0,-0x4(%rbp)
    f27d:	74 16                	je     f295 <main+0x45e>
    f27f:	8b 45 f0             	mov    -0x10(%rbp),%eax
    f282:	89 c6                	mov    %eax,%esi
    f284:	48 8d 3d 9e 3d 00 00 	lea    0x3d9e(%rip),%rdi        # 13029 <g_1231+0xfd1>
    f28b:	b8 00 00 00 00       	mov    $0x0,%eax
    f290:	e8 eb 5d ff ff       	callq  5080 <printf@plt>
    f295:	83 45 f0 01          	addl   $0x1,-0x10(%rbp)
    f299:	83 7d f0 02          	cmpl   $0x2,-0x10(%rbp)
    f29d:	7e 80                	jle    f21f <main+0x3e8>
    f29f:	8b 05 27 6e 00 00    	mov    0x6e27(%rip),%eax        # 160cc <g_135>
    f2a5:	89 c1                	mov    %eax,%ecx
    f2a7:	8b 45 fc             	mov    -0x4(%rbp),%eax
    f2aa:	89 c2                	mov    %eax,%edx
    f2ac:	48 8d 35 24 3e 00 00 	lea    0x3e24(%rip),%rsi        # 130d7 <g_1231+0x107f>
    f2b3:	48 89 cf             	mov    %rcx,%rdi
    f2b6:	e8 38 74 ff ff       	callq  66f3 <transparent_crc>
    f2bb:	8b 05 0b 6e 00 00    	mov    0x6e0b(%rip),%eax        # 160cc <g_135>
    f2c1:	89 c1                	mov    %eax,%ecx
    f2c3:	8b 45 fc             	mov    -0x4(%rbp),%eax
    f2c6:	89 c2                	mov    %eax,%edx
    f2c8:	48 8d 35 11 3e 00 00 	lea    0x3e11(%rip),%rsi        # 130e0 <g_1231+0x1088>
    f2cf:	48 89 cf             	mov    %rcx,%rdi
    f2d2:	e8 1c 74 ff ff       	callq  66f3 <transparent_crc>
    f2d7:	c7 45 f0 00 00 00 00 	movl   $0x0,-0x10(%rbp)
    f2de:	eb 7a                	jmp    f35a <main+0x523>
    f2e0:	8b 45 f0             	mov    -0x10(%rbp),%eax
    f2e3:	48 98                	cltq   
    f2e5:	48 8d 14 85 00 00 00 	lea    0x0(,%rax,4),%rdx
    f2ec:	00 
    f2ed:	48 8d 05 dc 6d 00 00 	lea    0x6ddc(%rip),%rax        # 160d0 <g_136>
    f2f4:	8b 04 02             	mov    (%rdx,%rax,1),%eax
    f2f7:	89 c1                	mov    %eax,%ecx
    f2f9:	8b 45 fc             	mov    -0x4(%rbp),%eax
    f2fc:	89 c2                	mov    %eax,%edx
    f2fe:	48 8d 35 e4 3d 00 00 	lea    0x3de4(%rip),%rsi        # 130e9 <g_1231+0x1091>
    f305:	48 89 cf             	mov    %rcx,%rdi
    f308:	e8 e6 73 ff ff       	callq  66f3 <transparent_crc>
    f30d:	8b 45 f0             	mov    -0x10(%rbp),%eax
    f310:	48 98                	cltq   
    f312:	48 8d 14 85 00 00 00 	lea    0x0(,%rax,4),%rdx
    f319:	00 
    f31a:	48 8d 05 af 6d 00 00 	lea    0x6daf(%rip),%rax        # 160d0 <g_136>
    f321:	8b 04 02             	mov    (%rdx,%rax,1),%eax
    f324:	89 c1                	mov    %eax,%ecx
    f326:	8b 45 fc             	mov    -0x4(%rbp),%eax
    f329:	89 c2                	mov    %eax,%edx
    f32b:	48 8d 35 c3 3d 00 00 	lea    0x3dc3(%rip),%rsi        # 130f5 <g_1231+0x109d>
    f332:	48 89 cf             	mov    %rcx,%rdi
    f335:	e8 b9 73 ff ff       	callq  66f3 <transparent_crc>
    f33a:	83 7d fc 00          	cmpl   $0x0,-0x4(%rbp)
    f33e:	74 16                	je     f356 <main+0x51f>
    f340:	8b 45 f0             	mov    -0x10(%rbp),%eax
    f343:	89 c6                	mov    %eax,%esi
    f345:	48 8d 3d dd 3c 00 00 	lea    0x3cdd(%rip),%rdi        # 13029 <g_1231+0xfd1>
    f34c:	b8 00 00 00 00       	mov    $0x0,%eax
    f351:	e8 2a 5d ff ff       	callq  5080 <printf@plt>
    f356:	83 45 f0 01          	addl   $0x1,-0x10(%rbp)
    f35a:	83 7d f0 05          	cmpl   $0x5,-0x10(%rbp)
    f35e:	7e 80                	jle    f2e0 <main+0x4a9>
    f360:	8b 05 82 6d 00 00    	mov    0x6d82(%rip),%eax        # 160e8 <g_137>
    f366:	89 c1                	mov    %eax,%ecx
    f368:	8b 45 fc             	mov    -0x4(%rbp),%eax
    f36b:	89 c2                	mov    %eax,%edx
    f36d:	48 8d 35 8d 3d 00 00 	lea    0x3d8d(%rip),%rsi        # 13101 <g_1231+0x10a9>
    f374:	48 89 cf             	mov    %rcx,%rdi
    f377:	e8 77 73 ff ff       	callq  66f3 <transparent_crc>
    f37c:	8b 05 66 6d 00 00    	mov    0x6d66(%rip),%eax        # 160e8 <g_137>
    f382:	89 c1                	mov    %eax,%ecx
    f384:	8b 45 fc             	mov    -0x4(%rbp),%eax
    f387:	89 c2                	mov    %eax,%edx
    f389:	48 8d 35 7a 3d 00 00 	lea    0x3d7a(%rip),%rsi        # 1310a <g_1231+0x10b2>
    f390:	48 89 cf             	mov    %rcx,%rdi
    f393:	e8 5b 73 ff ff       	callq  66f3 <transparent_crc>
    f398:	8b 05 4e 6d 00 00    	mov    0x6d4e(%rip),%eax        # 160ec <g_138>
    f39e:	89 c1                	mov    %eax,%ecx
    f3a0:	8b 45 fc             	mov    -0x4(%rbp),%eax
    f3a3:	89 c2                	mov    %eax,%edx
    f3a5:	48 8d 35 67 3d 00 00 	lea    0x3d67(%rip),%rsi        # 13113 <g_1231+0x10bb>
    f3ac:	48 89 cf             	mov    %rcx,%rdi
    f3af:	e8 3f 73 ff ff       	callq  66f3 <transparent_crc>
    f3b4:	8b 05 32 6d 00 00    	mov    0x6d32(%rip),%eax        # 160ec <g_138>
    f3ba:	89 c1                	mov    %eax,%ecx
    f3bc:	8b 45 fc             	mov    -0x4(%rbp),%eax
    f3bf:	89 c2                	mov    %eax,%edx
    f3c1:	48 8d 35 54 3d 00 00 	lea    0x3d54(%rip),%rsi        # 1311c <g_1231+0x10c4>
    f3c8:	48 89 cf             	mov    %rcx,%rdi
    f3cb:	e8 23 73 ff ff       	callq  66f3 <transparent_crc>
    f3d0:	c7 45 f0 00 00 00 00 	movl   $0x0,-0x10(%rbp)
    f3d7:	eb 7a                	jmp    f453 <main+0x61c>
    f3d9:	8b 45 f0             	mov    -0x10(%rbp),%eax
    f3dc:	48 98                	cltq   
    f3de:	48 8d 14 85 00 00 00 	lea    0x0(,%rax,4),%rdx
    f3e5:	00 
    f3e6:	48 8d 05 13 6d 00 00 	lea    0x6d13(%rip),%rax        # 16100 <g_139>
    f3ed:	8b 04 02             	mov    (%rdx,%rax,1),%eax
    f3f0:	89 c1                	mov    %eax,%ecx
    f3f2:	8b 45 fc             	mov    -0x4(%rbp),%eax
    f3f5:	89 c2                	mov    %eax,%edx
    f3f7:	48 8d 35 27 3d 00 00 	lea    0x3d27(%rip),%rsi        # 13125 <g_1231+0x10cd>
    f3fe:	48 89 cf             	mov    %rcx,%rdi
    f401:	e8 ed 72 ff ff       	callq  66f3 <transparent_crc>
    f406:	8b 45 f0             	mov    -0x10(%rbp),%eax
    f409:	48 98                	cltq   
    f40b:	48 8d 14 85 00 00 00 	lea    0x0(,%rax,4),%rdx
    f412:	00 
    f413:	48 8d 05 e6 6c 00 00 	lea    0x6ce6(%rip),%rax        # 16100 <g_139>
    f41a:	8b 04 02             	mov    (%rdx,%rax,1),%eax
    f41d:	89 c1                	mov    %eax,%ecx
    f41f:	8b 45 fc             	mov    -0x4(%rbp),%eax
    f422:	89 c2                	mov    %eax,%edx
    f424:	48 8d 35 06 3d 00 00 	lea    0x3d06(%rip),%rsi        # 13131 <g_1231+0x10d9>
    f42b:	48 89 cf             	mov    %rcx,%rdi
    f42e:	e8 c0 72 ff ff       	callq  66f3 <transparent_crc>
    f433:	83 7d fc 00          	cmpl   $0x0,-0x4(%rbp)
    f437:	74 16                	je     f44f <main+0x618>
    f439:	8b 45 f0             	mov    -0x10(%rbp),%eax
    f43c:	89 c6                	mov    %eax,%esi
    f43e:	48 8d 3d e4 3b 00 00 	lea    0x3be4(%rip),%rdi        # 13029 <g_1231+0xfd1>
    f445:	b8 00 00 00 00       	mov    $0x0,%eax
    f44a:	e8 31 5c ff ff       	callq  5080 <printf@plt>
    f44f:	83 45 f0 01          	addl   $0x1,-0x10(%rbp)
    f453:	83 7d f0 08          	cmpl   $0x8,-0x10(%rbp)
    f457:	7e 80                	jle    f3d9 <main+0x5a2>
    f459:	8b 05 c5 6c 00 00    	mov    0x6cc5(%rip),%eax        # 16124 <g_140>
    f45f:	89 c1                	mov    %eax,%ecx
    f461:	8b 45 fc             	mov    -0x4(%rbp),%eax
    f464:	89 c2                	mov    %eax,%edx
    f466:	48 8d 35 d0 3c 00 00 	lea    0x3cd0(%rip),%rsi        # 1313d <g_1231+0x10e5>
    f46d:	48 89 cf             	mov    %rcx,%rdi
    f470:	e8 7e 72 ff ff       	callq  66f3 <transparent_crc>
    f475:	8b 05 a9 6c 00 00    	mov    0x6ca9(%rip),%eax        # 16124 <g_140>
    f47b:	89 c1                	mov    %eax,%ecx
    f47d:	8b 45 fc             	mov    -0x4(%rbp),%eax
    f480:	89 c2                	mov    %eax,%edx
    f482:	48 8d 35 bd 3c 00 00 	lea    0x3cbd(%rip),%rsi        # 13146 <g_1231+0x10ee>
    f489:	48 89 cf             	mov    %rcx,%rdi
    f48c:	e8 62 72 ff ff       	callq  66f3 <transparent_crc>
    f491:	c7 45 f0 00 00 00 00 	movl   $0x0,-0x10(%rbp)
    f498:	e9 0a 01 00 00       	jmpq   f5a7 <main+0x770>
    f49d:	c7 45 f4 00 00 00 00 	movl   $0x0,-0xc(%rbp)
    f4a4:	e9 f0 00 00 00       	jmpq   f599 <main+0x762>
    f4a9:	c7 45 f8 00 00 00 00 	movl   $0x0,-0x8(%rbp)
    f4b0:	e9 d6 00 00 00       	jmpq   f58b <main+0x754>
    f4b5:	8b 45 f8             	mov    -0x8(%rbp),%eax
    f4b8:	48 63 f0             	movslq %eax,%rsi
    f4bb:	8b 45 f0             	mov    -0x10(%rbp),%eax
    f4be:	48 63 d0             	movslq %eax,%rdx
    f4c1:	8b 45 f4             	mov    -0xc(%rbp),%eax
    f4c4:	48 63 c8             	movslq %eax,%rcx
    f4c7:	48 89 d0             	mov    %rdx,%rax
    f4ca:	48 c1 e0 02          	shl    $0x2,%rax
    f4ce:	48 01 d0             	add    %rdx,%rax
    f4d1:	48 c1 e0 03          	shl    $0x3,%rax
    f4d5:	48 89 ca             	mov    %rcx,%rdx
    f4d8:	48 c1 e2 02          	shl    $0x2,%rdx
    f4dc:	48 01 ca             	add    %rcx,%rdx
    f4df:	48 01 d0             	add    %rdx,%rax
    f4e2:	48 01 f0             	add    %rsi,%rax
    f4e5:	48 8d 14 85 00 00 00 	lea    0x0(,%rax,4),%rdx
    f4ec:	00 
    f4ed:	48 8d 05 4c 6c 00 00 	lea    0x6c4c(%rip),%rax        # 16140 <g_141>
    f4f4:	8b 04 02             	mov    (%rdx,%rax,1),%eax
    f4f7:	89 c1                	mov    %eax,%ecx
    f4f9:	8b 45 fc             	mov    -0x4(%rbp),%eax
    f4fc:	89 c2                	mov    %eax,%edx
    f4fe:	48 8d 35 4a 3c 00 00 	lea    0x3c4a(%rip),%rsi        # 1314f <g_1231+0x10f7>
    f505:	48 89 cf             	mov    %rcx,%rdi
    f508:	e8 e6 71 ff ff       	callq  66f3 <transparent_crc>
    f50d:	8b 45 f8             	mov    -0x8(%rbp),%eax
    f510:	48 63 f0             	movslq %eax,%rsi
    f513:	8b 45 f0             	mov    -0x10(%rbp),%eax
    f516:	48 63 d0             	movslq %eax,%rdx
    f519:	8b 45 f4             	mov    -0xc(%rbp),%eax
    f51c:	48 63 c8             	movslq %eax,%rcx
    f51f:	48 89 d0             	mov    %rdx,%rax
    f522:	48 c1 e0 02          	shl    $0x2,%rax
    f526:	48 01 d0             	add    %rdx,%rax
    f529:	48 c1 e0 03          	shl    $0x3,%rax
    f52d:	48 89 ca             	mov    %rcx,%rdx
    f530:	48 c1 e2 02          	shl    $0x2,%rdx
    f534:	48 01 ca             	add    %rcx,%rdx
    f537:	48 01 d0             	add    %rdx,%rax
    f53a:	48 01 f0             	add    %rsi,%rax
    f53d:	48 8d 14 85 00 00 00 	lea    0x0(,%rax,4),%rdx
    f544:	00 
    f545:	48 8d 05 f4 6b 00 00 	lea    0x6bf4(%rip),%rax        # 16140 <g_141>
    f54c:	8b 04 02             	mov    (%rdx,%rax,1),%eax
    f54f:	89 c1                	mov    %eax,%ecx
    f551:	8b 45 fc             	mov    -0x4(%rbp),%eax
    f554:	89 c2                	mov    %eax,%edx
    f556:	48 8d 35 04 3c 00 00 	lea    0x3c04(%rip),%rsi        # 13161 <g_1231+0x1109>
    f55d:	48 89 cf             	mov    %rcx,%rdi
    f560:	e8 8e 71 ff ff       	callq  66f3 <transparent_crc>
    f565:	83 7d fc 00          	cmpl   $0x0,-0x4(%rbp)
    f569:	74 1c                	je     f587 <main+0x750>
    f56b:	8b 4d f8             	mov    -0x8(%rbp),%ecx
    f56e:	8b 55 f4             	mov    -0xc(%rbp),%edx
    f571:	8b 45 f0             	mov    -0x10(%rbp),%eax
    f574:	89 c6                	mov    %eax,%esi
    f576:	48 8d 3d f6 3b 00 00 	lea    0x3bf6(%rip),%rdi        # 13173 <g_1231+0x111b>
    f57d:	b8 00 00 00 00       	mov    $0x0,%eax
    f582:	e8 f9 5a ff ff       	callq  5080 <printf@plt>
    f587:	83 45 f8 01          	addl   $0x1,-0x8(%rbp)
    f58b:	83 7d f8 04          	cmpl   $0x4,-0x8(%rbp)
    f58f:	0f 8e 20 ff ff ff    	jle    f4b5 <main+0x67e>
    f595:	83 45 f4 01          	addl   $0x1,-0xc(%rbp)
    f599:	83 7d f4 07          	cmpl   $0x7,-0xc(%rbp)
    f59d:	0f 8e 06 ff ff ff    	jle    f4a9 <main+0x672>
    f5a3:	83 45 f0 01          	addl   $0x1,-0x10(%rbp)
    f5a7:	83 7d f0 01          	cmpl   $0x1,-0x10(%rbp)
    f5ab:	0f 8e ec fe ff ff    	jle    f49d <main+0x666>
    f5b1:	8b 05 11 b2 00 00    	mov    0xb211(%rip),%eax        # 1a7c8 <g_142>
    f5b7:	89 c1                	mov    %eax,%ecx
    f5b9:	8b 45 fc             	mov    -0x4(%rbp),%eax
    f5bc:	89 c2                	mov    %eax,%edx
    f5be:	48 8d 35 c4 3b 00 00 	lea    0x3bc4(%rip),%rsi        # 13189 <g_1231+0x1131>
    f5c5:	48 89 cf             	mov    %rcx,%rdi
    f5c8:	e8 26 71 ff ff       	callq  66f3 <transparent_crc>
    f5cd:	8b 05 f5 b1 00 00    	mov    0xb1f5(%rip),%eax        # 1a7c8 <g_142>
    f5d3:	89 c1                	mov    %eax,%ecx
    f5d5:	8b 45 fc             	mov    -0x4(%rbp),%eax
    f5d8:	89 c2                	mov    %eax,%edx
    f5da:	48 8d 35 b1 3b 00 00 	lea    0x3bb1(%rip),%rsi        # 13192 <g_1231+0x113a>
    f5e1:	48 89 cf             	mov    %rcx,%rdi
    f5e4:	e8 0a 71 ff ff       	callq  66f3 <transparent_crc>
    f5e9:	c7 45 f0 00 00 00 00 	movl   $0x0,-0x10(%rbp)
    f5f0:	eb 7a                	jmp    f66c <main+0x835>
    f5f2:	8b 45 f0             	mov    -0x10(%rbp),%eax
    f5f5:	48 98                	cltq   
    f5f7:	48 8d 14 85 00 00 00 	lea    0x0(,%rax,4),%rdx
    f5fe:	00 
    f5ff:	48 8d 05 7a 6c 00 00 	lea    0x6c7a(%rip),%rax        # 16280 <g_143>
    f606:	8b 04 02             	mov    (%rdx,%rax,1),%eax
    f609:	89 c1                	mov    %eax,%ecx
    f60b:	8b 45 fc             	mov    -0x4(%rbp),%eax
    f60e:	89 c2                	mov    %eax,%edx
    f610:	48 8d 35 84 3b 00 00 	lea    0x3b84(%rip),%rsi        # 1319b <g_1231+0x1143>
    f617:	48 89 cf             	mov    %rcx,%rdi
    f61a:	e8 d4 70 ff ff       	callq  66f3 <transparent_crc>
    f61f:	8b 45 f0             	mov    -0x10(%rbp),%eax
    f622:	48 98                	cltq   
    f624:	48 8d 14 85 00 00 00 	lea    0x0(,%rax,4),%rdx
    f62b:	00 
    f62c:	48 8d 05 4d 6c 00 00 	lea    0x6c4d(%rip),%rax        # 16280 <g_143>
    f633:	8b 04 02             	mov    (%rdx,%rax,1),%eax
    f636:	89 c1                	mov    %eax,%ecx
    f638:	8b 45 fc             	mov    -0x4(%rbp),%eax
    f63b:	89 c2                	mov    %eax,%edx
    f63d:	48 8d 35 63 3b 00 00 	lea    0x3b63(%rip),%rsi        # 131a7 <g_1231+0x114f>
    f644:	48 89 cf             	mov    %rcx,%rdi
    f647:	e8 a7 70 ff ff       	callq  66f3 <transparent_crc>
    f64c:	83 7d fc 00          	cmpl   $0x0,-0x4(%rbp)
    f650:	74 16                	je     f668 <main+0x831>
    f652:	8b 45 f0             	mov    -0x10(%rbp),%eax
    f655:	89 c6                	mov    %eax,%esi
    f657:	48 8d 3d cb 39 00 00 	lea    0x39cb(%rip),%rdi        # 13029 <g_1231+0xfd1>
    f65e:	b8 00 00 00 00       	mov    $0x0,%eax
    f663:	e8 18 5a ff ff       	callq  5080 <printf@plt>
    f668:	83 45 f0 01          	addl   $0x1,-0x10(%rbp)
    f66c:	83 7d f0 07          	cmpl   $0x7,-0x10(%rbp)
    f670:	7e 80                	jle    f5f2 <main+0x7bb>
    f672:	8b 05 28 6c 00 00    	mov    0x6c28(%rip),%eax        # 162a0 <g_144>
    f678:	89 c1                	mov    %eax,%ecx
    f67a:	8b 45 fc             	mov    -0x4(%rbp),%eax
    f67d:	89 c2                	mov    %eax,%edx
    f67f:	48 8d 35 2d 3b 00 00 	lea    0x3b2d(%rip),%rsi        # 131b3 <g_1231+0x115b>
    f686:	48 89 cf             	mov    %rcx,%rdi
    f689:	e8 65 70 ff ff       	callq  66f3 <transparent_crc>
    f68e:	8b 05 0c 6c 00 00    	mov    0x6c0c(%rip),%eax        # 162a0 <g_144>
    f694:	89 c1                	mov    %eax,%ecx
    f696:	8b 45 fc             	mov    -0x4(%rbp),%eax
    f699:	89 c2                	mov    %eax,%edx
    f69b:	48 8d 35 1a 3b 00 00 	lea    0x3b1a(%rip),%rsi        # 131bc <g_1231+0x1164>
    f6a2:	48 89 cf             	mov    %rcx,%rdi
    f6a5:	e8 49 70 ff ff       	callq  66f3 <transparent_crc>
    f6aa:	c7 45 f0 00 00 00 00 	movl   $0x0,-0x10(%rbp)
    f6b1:	e9 af 00 00 00       	jmpq   f765 <main+0x92e>
    f6b6:	c7 45 f4 00 00 00 00 	movl   $0x0,-0xc(%rbp)
    f6bd:	e9 95 00 00 00       	jmpq   f757 <main+0x920>
    f6c2:	8b 45 f4             	mov    -0xc(%rbp),%eax
    f6c5:	48 98                	cltq   
    f6c7:	8b 55 f0             	mov    -0x10(%rbp),%edx
    f6ca:	48 63 d2             	movslq %edx,%rdx
    f6cd:	48 01 d2             	add    %rdx,%rdx
    f6d0:	48 01 d0             	add    %rdx,%rax
    f6d3:	48 8d 14 85 00 00 00 	lea    0x0(,%rax,4),%rdx
    f6da:	00 
    f6db:	48 8d 05 de 6b 00 00 	lea    0x6bde(%rip),%rax        # 162c0 <g_145>
    f6e2:	8b 04 02             	mov    (%rdx,%rax,1),%eax
    f6e5:	89 c1                	mov    %eax,%ecx
    f6e7:	8b 45 fc             	mov    -0x4(%rbp),%eax
    f6ea:	89 c2                	mov    %eax,%edx
    f6ec:	48 8d 35 d2 3a 00 00 	lea    0x3ad2(%rip),%rsi        # 131c5 <g_1231+0x116d>
    f6f3:	48 89 cf             	mov    %rcx,%rdi
    f6f6:	e8 f8 6f ff ff       	callq  66f3 <transparent_crc>
    f6fb:	8b 45 f4             	mov    -0xc(%rbp),%eax
    f6fe:	48 98                	cltq   
    f700:	8b 55 f0             	mov    -0x10(%rbp),%edx
    f703:	48 63 d2             	movslq %edx,%rdx
    f706:	48 01 d2             	add    %rdx,%rdx
    f709:	48 01 d0             	add    %rdx,%rax
    f70c:	48 8d 14 85 00 00 00 	lea    0x0(,%rax,4),%rdx
    f713:	00 
    f714:	48 8d 05 a5 6b 00 00 	lea    0x6ba5(%rip),%rax        # 162c0 <g_145>
    f71b:	8b 04 02             	mov    (%rdx,%rax,1),%eax
    f71e:	89 c1                	mov    %eax,%ecx
    f720:	8b 45 fc             	mov    -0x4(%rbp),%eax
    f723:	89 c2                	mov    %eax,%edx
    f725:	48 8d 35 a8 3a 00 00 	lea    0x3aa8(%rip),%rsi        # 131d4 <g_1231+0x117c>
    f72c:	48 89 cf             	mov    %rcx,%rdi
    f72f:	e8 bf 6f ff ff       	callq  66f3 <transparent_crc>
    f734:	83 7d fc 00          	cmpl   $0x0,-0x4(%rbp)
    f738:	74 19                	je     f753 <main+0x91c>
    f73a:	8b 55 f4             	mov    -0xc(%rbp),%edx
    f73d:	8b 45 f0             	mov    -0x10(%rbp),%eax
    f740:	89 c6                	mov    %eax,%esi
    f742:	48 8d 3d 9a 3a 00 00 	lea    0x3a9a(%rip),%rdi        # 131e3 <g_1231+0x118b>
    f749:	b8 00 00 00 00       	mov    $0x0,%eax
    f74e:	e8 2d 59 ff ff       	callq  5080 <printf@plt>
    f753:	83 45 f4 01          	addl   $0x1,-0xc(%rbp)
    f757:	83 7d f4 01          	cmpl   $0x1,-0xc(%rbp)
    f75b:	0f 8e 61 ff ff ff    	jle    f6c2 <main+0x88b>
    f761:	83 45 f0 01          	addl   $0x1,-0x10(%rbp)
    f765:	83 7d f0 05          	cmpl   $0x5,-0x10(%rbp)
    f769:	0f 8e 47 ff ff ff    	jle    f6b6 <main+0x87f>
    f76f:	c7 45 f0 00 00 00 00 	movl   $0x0,-0x10(%rbp)
    f776:	e9 e0 00 00 00       	jmpq   f85b <main+0xa24>
    f77b:	c7 45 f4 00 00 00 00 	movl   $0x0,-0xc(%rbp)
    f782:	e9 c6 00 00 00       	jmpq   f84d <main+0xa16>
    f787:	c7 45 f8 00 00 00 00 	movl   $0x0,-0x8(%rbp)
    f78e:	e9 ac 00 00 00       	jmpq   f83f <main+0xa08>
    f793:	8b 45 f8             	mov    -0x8(%rbp),%eax
    f796:	48 63 d0             	movslq %eax,%rdx
    f799:	8b 45 f4             	mov    -0xc(%rbp),%eax
    f79c:	48 98                	cltq   
    f79e:	8b 4d f0             	mov    -0x10(%rbp),%ecx
    f7a1:	48 63 c9             	movslq %ecx,%rcx
    f7a4:	48 c1 e1 03          	shl    $0x3,%rcx
    f7a8:	48 01 ca             	add    %rcx,%rdx
    f7ab:	48 01 d0             	add    %rdx,%rax
    f7ae:	48 8d 14 85 00 00 00 	lea    0x0(,%rax,4),%rdx
    f7b5:	00 
    f7b6:	48 8d 05 43 6b 00 00 	lea    0x6b43(%rip),%rax        # 16300 <g_146>
    f7bd:	8b 04 02             	mov    (%rdx,%rax,1),%eax
    f7c0:	89 c1                	mov    %eax,%ecx
    f7c2:	8b 45 fc             	mov    -0x4(%rbp),%eax
    f7c5:	89 c2                	mov    %eax,%edx
    f7c7:	48 8d 35 27 3a 00 00 	lea    0x3a27(%rip),%rsi        # 131f5 <g_1231+0x119d>
    f7ce:	48 89 cf             	mov    %rcx,%rdi
    f7d1:	e8 1d 6f ff ff       	callq  66f3 <transparent_crc>
    f7d6:	8b 45 f8             	mov    -0x8(%rbp),%eax
    f7d9:	48 63 d0             	movslq %eax,%rdx
    f7dc:	8b 45 f4             	mov    -0xc(%rbp),%eax
    f7df:	48 98                	cltq   
    f7e1:	8b 4d f0             	mov    -0x10(%rbp),%ecx
    f7e4:	48 63 c9             	movslq %ecx,%rcx
    f7e7:	48 c1 e1 03          	shl    $0x3,%rcx
    f7eb:	48 01 ca             	add    %rcx,%rdx
    f7ee:	48 01 d0             	add    %rdx,%rax
    f7f1:	48 8d 14 85 00 00 00 	lea    0x0(,%rax,4),%rdx
    f7f8:	00 
    f7f9:	48 8d 05 00 6b 00 00 	lea    0x6b00(%rip),%rax        # 16300 <g_146>
    f800:	8b 04 02             	mov    (%rdx,%rax,1),%eax
    f803:	89 c1                	mov    %eax,%ecx
    f805:	8b 45 fc             	mov    -0x4(%rbp),%eax
    f808:	89 c2                	mov    %eax,%edx
    f80a:	48 8d 35 f6 39 00 00 	lea    0x39f6(%rip),%rsi        # 13207 <g_1231+0x11af>
    f811:	48 89 cf             	mov    %rcx,%rdi
    f814:	e8 da 6e ff ff       	callq  66f3 <transparent_crc>
    f819:	83 7d fc 00          	cmpl   $0x0,-0x4(%rbp)
    f81d:	74 1c                	je     f83b <main+0xa04>
    f81f:	8b 4d f8             	mov    -0x8(%rbp),%ecx
    f822:	8b 55 f4             	mov    -0xc(%rbp),%edx
    f825:	8b 45 f0             	mov    -0x10(%rbp),%eax
    f828:	89 c6                	mov    %eax,%esi
    f82a:	48 8d 3d 42 39 00 00 	lea    0x3942(%rip),%rdi        # 13173 <g_1231+0x111b>
    f831:	b8 00 00 00 00       	mov    $0x0,%eax
    f836:	e8 45 58 ff ff       	callq  5080 <printf@plt>
    f83b:	83 45 f8 01          	addl   $0x1,-0x8(%rbp)
    f83f:	83 7d f8 00          	cmpl   $0x0,-0x8(%rbp)
    f843:	0f 8e 4a ff ff ff    	jle    f793 <main+0x95c>
    f849:	83 45 f4 01          	addl   $0x1,-0xc(%rbp)
    f84d:	83 7d f4 07          	cmpl   $0x7,-0xc(%rbp)
    f851:	0f 8e 30 ff ff ff    	jle    f787 <main+0x950>
    f857:	83 45 f0 01          	addl   $0x1,-0x10(%rbp)
    f85b:	83 7d f0 00          	cmpl   $0x0,-0x10(%rbp)
    f85f:	0f 8e 16 ff ff ff    	jle    f77b <main+0x944>
    f865:	8b 05 b5 6a 00 00    	mov    0x6ab5(%rip),%eax        # 16320 <g_147>
    f86b:	89 c1                	mov    %eax,%ecx
    f86d:	8b 45 fc             	mov    -0x4(%rbp),%eax
    f870:	89 c2                	mov    %eax,%edx
    f872:	48 8d 35 a0 39 00 00 	lea    0x39a0(%rip),%rsi        # 13219 <g_1231+0x11c1>
    f879:	48 89 cf             	mov    %rcx,%rdi
    f87c:	e8 72 6e ff ff       	callq  66f3 <transparent_crc>
    f881:	8b 05 99 6a 00 00    	mov    0x6a99(%rip),%eax        # 16320 <g_147>
    f887:	89 c1                	mov    %eax,%ecx
    f889:	8b 45 fc             	mov    -0x4(%rbp),%eax
    f88c:	89 c2                	mov    %eax,%edx
    f88e:	48 8d 35 8d 39 00 00 	lea    0x398d(%rip),%rsi        # 13222 <g_1231+0x11ca>
    f895:	48 89 cf             	mov    %rcx,%rdi
    f898:	e8 56 6e ff ff       	callq  66f3 <transparent_crc>
    f89d:	8b 05 81 6a 00 00    	mov    0x6a81(%rip),%eax        # 16324 <g_148>
    f8a3:	89 c1                	mov    %eax,%ecx
    f8a5:	8b 45 fc             	mov    -0x4(%rbp),%eax
    f8a8:	89 c2                	mov    %eax,%edx
    f8aa:	48 8d 35 7a 39 00 00 	lea    0x397a(%rip),%rsi        # 1322b <g_1231+0x11d3>
    f8b1:	48 89 cf             	mov    %rcx,%rdi
    f8b4:	e8 3a 6e ff ff       	callq  66f3 <transparent_crc>
    f8b9:	8b 05 65 6a 00 00    	mov    0x6a65(%rip),%eax        # 16324 <g_148>
    f8bf:	89 c1                	mov    %eax,%ecx
    f8c1:	8b 45 fc             	mov    -0x4(%rbp),%eax
    f8c4:	89 c2                	mov    %eax,%edx
    f8c6:	48 8d 35 67 39 00 00 	lea    0x3967(%rip),%rsi        # 13234 <g_1231+0x11dc>
    f8cd:	48 89 cf             	mov    %rcx,%rdi
    f8d0:	e8 1e 6e ff ff       	callq  66f3 <transparent_crc>
    f8d5:	8b 05 4d 6a 00 00    	mov    0x6a4d(%rip),%eax        # 16328 <g_149>
    f8db:	89 c1                	mov    %eax,%ecx
    f8dd:	8b 45 fc             	mov    -0x4(%rbp),%eax
    f8e0:	89 c2                	mov    %eax,%edx
    f8e2:	48 8d 35 54 39 00 00 	lea    0x3954(%rip),%rsi        # 1323d <g_1231+0x11e5>
    f8e9:	48 89 cf             	mov    %rcx,%rdi
    f8ec:	e8 02 6e ff ff       	callq  66f3 <transparent_crc>
    f8f1:	8b 05 31 6a 00 00    	mov    0x6a31(%rip),%eax        # 16328 <g_149>
    f8f7:	89 c1                	mov    %eax,%ecx
    f8f9:	8b 45 fc             	mov    -0x4(%rbp),%eax
    f8fc:	89 c2                	mov    %eax,%edx
    f8fe:	48 8d 35 41 39 00 00 	lea    0x3941(%rip),%rsi        # 13246 <g_1231+0x11ee>
    f905:	48 89 cf             	mov    %rcx,%rdi
    f908:	e8 e6 6d ff ff       	callq  66f3 <transparent_crc>
    f90d:	8b 05 19 6a 00 00    	mov    0x6a19(%rip),%eax        # 1632c <g_150>
    f913:	89 c1                	mov    %eax,%ecx
    f915:	8b 45 fc             	mov    -0x4(%rbp),%eax
    f918:	89 c2                	mov    %eax,%edx
    f91a:	48 8d 35 2e 39 00 00 	lea    0x392e(%rip),%rsi        # 1324f <g_1231+0x11f7>
    f921:	48 89 cf             	mov    %rcx,%rdi
    f924:	e8 ca 6d ff ff       	callq  66f3 <transparent_crc>
    f929:	8b 05 fd 69 00 00    	mov    0x69fd(%rip),%eax        # 1632c <g_150>
    f92f:	89 c1                	mov    %eax,%ecx
    f931:	8b 45 fc             	mov    -0x4(%rbp),%eax
    f934:	89 c2                	mov    %eax,%edx
    f936:	48 8d 35 1b 39 00 00 	lea    0x391b(%rip),%rsi        # 13258 <g_1231+0x1200>
    f93d:	48 89 cf             	mov    %rcx,%rdi
    f940:	e8 ae 6d ff ff       	callq  66f3 <transparent_crc>
    f945:	8b 05 e5 69 00 00    	mov    0x69e5(%rip),%eax        # 16330 <g_151>
    f94b:	89 c1                	mov    %eax,%ecx
    f94d:	8b 45 fc             	mov    -0x4(%rbp),%eax
    f950:	89 c2                	mov    %eax,%edx
    f952:	48 8d 35 08 39 00 00 	lea    0x3908(%rip),%rsi        # 13261 <g_1231+0x1209>
    f959:	48 89 cf             	mov    %rcx,%rdi
    f95c:	e8 92 6d ff ff       	callq  66f3 <transparent_crc>
    f961:	8b 05 c9 69 00 00    	mov    0x69c9(%rip),%eax        # 16330 <g_151>
    f967:	89 c1                	mov    %eax,%ecx
    f969:	8b 45 fc             	mov    -0x4(%rbp),%eax
    f96c:	89 c2                	mov    %eax,%edx
    f96e:	48 8d 35 f5 38 00 00 	lea    0x38f5(%rip),%rsi        # 1326a <g_1231+0x1212>
    f975:	48 89 cf             	mov    %rcx,%rdi
    f978:	e8 76 6d ff ff       	callq  66f3 <transparent_crc>
    f97d:	8b 05 b1 69 00 00    	mov    0x69b1(%rip),%eax        # 16334 <g_152>
    f983:	89 c1                	mov    %eax,%ecx
    f985:	8b 45 fc             	mov    -0x4(%rbp),%eax
    f988:	89 c2                	mov    %eax,%edx
    f98a:	48 8d 35 e2 38 00 00 	lea    0x38e2(%rip),%rsi        # 13273 <g_1231+0x121b>
    f991:	48 89 cf             	mov    %rcx,%rdi
    f994:	e8 5a 6d ff ff       	callq  66f3 <transparent_crc>
    f999:	8b 05 95 69 00 00    	mov    0x6995(%rip),%eax        # 16334 <g_152>
    f99f:	89 c1                	mov    %eax,%ecx
    f9a1:	8b 45 fc             	mov    -0x4(%rbp),%eax
    f9a4:	89 c2                	mov    %eax,%edx
    f9a6:	48 8d 35 cf 38 00 00 	lea    0x38cf(%rip),%rsi        # 1327c <g_1231+0x1224>
    f9ad:	48 89 cf             	mov    %rcx,%rdi
    f9b0:	e8 3e 6d ff ff       	callq  66f3 <transparent_crc>
    f9b5:	c7 45 f0 00 00 00 00 	movl   $0x0,-0x10(%rbp)
    f9bc:	e9 c3 00 00 00       	jmpq   fa84 <main+0xc4d>
    f9c1:	c7 45 f4 00 00 00 00 	movl   $0x0,-0xc(%rbp)
    f9c8:	e9 a9 00 00 00       	jmpq   fa76 <main+0xc3f>
    f9cd:	8b 45 f4             	mov    -0xc(%rbp),%eax
    f9d0:	48 63 c8             	movslq %eax,%rcx
    f9d3:	8b 45 f0             	mov    -0x10(%rbp),%eax
    f9d6:	48 63 d0             	movslq %eax,%rdx
    f9d9:	48 89 d0             	mov    %rdx,%rax
    f9dc:	48 01 c0             	add    %rax,%rax
    f9df:	48 01 d0             	add    %rdx,%rax
    f9e2:	48 01 c0             	add    %rax,%rax
    f9e5:	48 01 c8             	add    %rcx,%rax
    f9e8:	48 8d 14 85 00 00 00 	lea    0x0(,%rax,4),%rdx
    f9ef:	00 
    f9f0:	48 8d 05 49 69 00 00 	lea    0x6949(%rip),%rax        # 16340 <g_153>
    f9f7:	8b 04 02             	mov    (%rdx,%rax,1),%eax
    f9fa:	89 c1                	mov    %eax,%ecx
    f9fc:	8b 45 fc             	mov    -0x4(%rbp),%eax
    f9ff:	89 c2                	mov    %eax,%edx
    fa01:	48 8d 35 7d 38 00 00 	lea    0x387d(%rip),%rsi        # 13285 <g_1231+0x122d>
    fa08:	48 89 cf             	mov    %rcx,%rdi
    fa0b:	e8 e3 6c ff ff       	callq  66f3 <transparent_crc>
    fa10:	8b 45 f4             	mov    -0xc(%rbp),%eax
    fa13:	48 63 c8             	movslq %eax,%rcx
    fa16:	8b 45 f0             	mov    -0x10(%rbp),%eax
    fa19:	48 63 d0             	movslq %eax,%rdx
    fa1c:	48 89 d0             	mov    %rdx,%rax
    fa1f:	48 01 c0             	add    %rax,%rax
    fa22:	48 01 d0             	add    %rdx,%rax
    fa25:	48 01 c0             	add    %rax,%rax
    fa28:	48 01 c8             	add    %rcx,%rax
    fa2b:	48 8d 14 85 00 00 00 	lea    0x0(,%rax,4),%rdx
    fa32:	00 
    fa33:	48 8d 05 06 69 00 00 	lea    0x6906(%rip),%rax        # 16340 <g_153>
    fa3a:	8b 04 02             	mov    (%rdx,%rax,1),%eax
    fa3d:	89 c1                	mov    %eax,%ecx
    fa3f:	8b 45 fc             	mov    -0x4(%rbp),%eax
    fa42:	89 c2                	mov    %eax,%edx
    fa44:	48 8d 35 49 38 00 00 	lea    0x3849(%rip),%rsi        # 13294 <g_1231+0x123c>
    fa4b:	48 89 cf             	mov    %rcx,%rdi
    fa4e:	e8 a0 6c ff ff       	callq  66f3 <transparent_crc>
    fa53:	83 7d fc 00          	cmpl   $0x0,-0x4(%rbp)
    fa57:	74 19                	je     fa72 <main+0xc3b>
    fa59:	8b 55 f4             	mov    -0xc(%rbp),%edx
    fa5c:	8b 45 f0             	mov    -0x10(%rbp),%eax
    fa5f:	89 c6                	mov    %eax,%esi
    fa61:	48 8d 3d 7b 37 00 00 	lea    0x377b(%rip),%rdi        # 131e3 <g_1231+0x118b>
    fa68:	b8 00 00 00 00       	mov    $0x0,%eax
    fa6d:	e8 0e 56 ff ff       	callq  5080 <printf@plt>
    fa72:	83 45 f4 01          	addl   $0x1,-0xc(%rbp)
    fa76:	83 7d f4 05          	cmpl   $0x5,-0xc(%rbp)
    fa7a:	0f 8e 4d ff ff ff    	jle    f9cd <main+0xb96>
    fa80:	83 45 f0 01          	addl   $0x1,-0x10(%rbp)
    fa84:	83 7d f0 06          	cmpl   $0x6,-0x10(%rbp)
    fa88:	0f 8e 33 ff ff ff    	jle    f9c1 <main+0xb8a>
    fa8e:	8b 05 54 69 00 00    	mov    0x6954(%rip),%eax        # 163e8 <g_154>
    fa94:	89 c1                	mov    %eax,%ecx
    fa96:	8b 45 fc             	mov    -0x4(%rbp),%eax
    fa99:	89 c2                	mov    %eax,%edx
    fa9b:	48 8d 35 01 38 00 00 	lea    0x3801(%rip),%rsi        # 132a3 <g_1231+0x124b>
    faa2:	48 89 cf             	mov    %rcx,%rdi
    faa5:	e8 49 6c ff ff       	callq  66f3 <transparent_crc>
    faaa:	8b 05 38 69 00 00    	mov    0x6938(%rip),%eax        # 163e8 <g_154>
    fab0:	89 c1                	mov    %eax,%ecx
    fab2:	8b 45 fc             	mov    -0x4(%rbp),%eax
    fab5:	89 c2                	mov    %eax,%edx
    fab7:	48 8d 35 ee 37 00 00 	lea    0x37ee(%rip),%rsi        # 132ac <g_1231+0x1254>
    fabe:	48 89 cf             	mov    %rcx,%rdi
    fac1:	e8 2d 6c ff ff       	callq  66f3 <transparent_crc>
    fac6:	8b 05 20 69 00 00    	mov    0x6920(%rip),%eax        # 163ec <g_155>
    facc:	89 c1                	mov    %eax,%ecx
    face:	8b 45 fc             	mov    -0x4(%rbp),%eax
    fad1:	89 c2                	mov    %eax,%edx
    fad3:	48 8d 35 db 37 00 00 	lea    0x37db(%rip),%rsi        # 132b5 <g_1231+0x125d>
    fada:	48 89 cf             	mov    %rcx,%rdi
    fadd:	e8 11 6c ff ff       	callq  66f3 <transparent_crc>
    fae2:	8b 05 04 69 00 00    	mov    0x6904(%rip),%eax        # 163ec <g_155>
    fae8:	89 c1                	mov    %eax,%ecx
    faea:	8b 45 fc             	mov    -0x4(%rbp),%eax
    faed:	89 c2                	mov    %eax,%edx
    faef:	48 8d 35 c8 37 00 00 	lea    0x37c8(%rip),%rsi        # 132be <g_1231+0x1266>
    faf6:	48 89 cf             	mov    %rcx,%rdi
    faf9:	e8 f5 6b ff ff       	callq  66f3 <transparent_crc>
    fafe:	8b 05 ec 68 00 00    	mov    0x68ec(%rip),%eax        # 163f0 <g_156>
    fb04:	89 c1                	mov    %eax,%ecx
    fb06:	8b 45 fc             	mov    -0x4(%rbp),%eax
    fb09:	89 c2                	mov    %eax,%edx
    fb0b:	48 8d 35 b5 37 00 00 	lea    0x37b5(%rip),%rsi        # 132c7 <g_1231+0x126f>
    fb12:	48 89 cf             	mov    %rcx,%rdi
    fb15:	e8 d9 6b ff ff       	callq  66f3 <transparent_crc>
    fb1a:	8b 05 d0 68 00 00    	mov    0x68d0(%rip),%eax        # 163f0 <g_156>
    fb20:	89 c1                	mov    %eax,%ecx
    fb22:	8b 45 fc             	mov    -0x4(%rbp),%eax
    fb25:	89 c2                	mov    %eax,%edx
    fb27:	48 8d 35 a2 37 00 00 	lea    0x37a2(%rip),%rsi        # 132d0 <g_1231+0x1278>
    fb2e:	48 89 cf             	mov    %rcx,%rdi
    fb31:	e8 bd 6b ff ff       	callq  66f3 <transparent_crc>
    fb36:	8b 05 b8 68 00 00    	mov    0x68b8(%rip),%eax        # 163f4 <g_157>
    fb3c:	89 c1                	mov    %eax,%ecx
    fb3e:	8b 45 fc             	mov    -0x4(%rbp),%eax
    fb41:	89 c2                	mov    %eax,%edx
    fb43:	48 8d 35 8f 37 00 00 	lea    0x378f(%rip),%rsi        # 132d9 <g_1231+0x1281>
    fb4a:	48 89 cf             	mov    %rcx,%rdi
    fb4d:	e8 a1 6b ff ff       	callq  66f3 <transparent_crc>
    fb52:	8b 05 9c 68 00 00    	mov    0x689c(%rip),%eax        # 163f4 <g_157>
    fb58:	89 c1                	mov    %eax,%ecx
    fb5a:	8b 45 fc             	mov    -0x4(%rbp),%eax
    fb5d:	89 c2                	mov    %eax,%edx
    fb5f:	48 8d 35 7c 37 00 00 	lea    0x377c(%rip),%rsi        # 132e2 <g_1231+0x128a>
    fb66:	48 89 cf             	mov    %rcx,%rdi
    fb69:	e8 85 6b ff ff       	callq  66f3 <transparent_crc>
    fb6e:	8b 05 84 68 00 00    	mov    0x6884(%rip),%eax        # 163f8 <g_158>
    fb74:	89 c1                	mov    %eax,%ecx
    fb76:	8b 45 fc             	mov    -0x4(%rbp),%eax
    fb79:	89 c2                	mov    %eax,%edx
    fb7b:	48 8d 35 69 37 00 00 	lea    0x3769(%rip),%rsi        # 132eb <g_1231+0x1293>
    fb82:	48 89 cf             	mov    %rcx,%rdi
    fb85:	e8 69 6b ff ff       	callq  66f3 <transparent_crc>
    fb8a:	8b 05 68 68 00 00    	mov    0x6868(%rip),%eax        # 163f8 <g_158>
    fb90:	89 c1                	mov    %eax,%ecx
    fb92:	8b 45 fc             	mov    -0x4(%rbp),%eax
    fb95:	89 c2                	mov    %eax,%edx
    fb97:	48 8d 35 56 37 00 00 	lea    0x3756(%rip),%rsi        # 132f4 <g_1231+0x129c>
    fb9e:	48 89 cf             	mov    %rcx,%rdi
    fba1:	e8 4d 6b ff ff       	callq  66f3 <transparent_crc>
    fba6:	8b 05 20 ac 00 00    	mov    0xac20(%rip),%eax        # 1a7cc <g_159>
    fbac:	89 c1                	mov    %eax,%ecx
    fbae:	8b 45 fc             	mov    -0x4(%rbp),%eax
    fbb1:	89 c2                	mov    %eax,%edx
    fbb3:	48 8d 35 43 37 00 00 	lea    0x3743(%rip),%rsi        # 132fd <g_1231+0x12a5>
    fbba:	48 89 cf             	mov    %rcx,%rdi
    fbbd:	e8 31 6b ff ff       	callq  66f3 <transparent_crc>
    fbc2:	8b 05 04 ac 00 00    	mov    0xac04(%rip),%eax        # 1a7cc <g_159>
    fbc8:	89 c1                	mov    %eax,%ecx
    fbca:	8b 45 fc             	mov    -0x4(%rbp),%eax
    fbcd:	89 c2                	mov    %eax,%edx
    fbcf:	48 8d 35 30 37 00 00 	lea    0x3730(%rip),%rsi        # 13306 <g_1231+0x12ae>
    fbd6:	48 89 cf             	mov    %rcx,%rdi
    fbd9:	e8 15 6b ff ff       	callq  66f3 <transparent_crc>
    fbde:	8b 05 18 68 00 00    	mov    0x6818(%rip),%eax        # 163fc <g_160>
    fbe4:	89 c1                	mov    %eax,%ecx
    fbe6:	8b 45 fc             	mov    -0x4(%rbp),%eax
    fbe9:	89 c2                	mov    %eax,%edx
    fbeb:	48 8d 35 1d 37 00 00 	lea    0x371d(%rip),%rsi        # 1330f <g_1231+0x12b7>
    fbf2:	48 89 cf             	mov    %rcx,%rdi
    fbf5:	e8 f9 6a ff ff       	callq  66f3 <transparent_crc>
    fbfa:	8b 05 fc 67 00 00    	mov    0x67fc(%rip),%eax        # 163fc <g_160>
    fc00:	89 c1                	mov    %eax,%ecx
    fc02:	8b 45 fc             	mov    -0x4(%rbp),%eax
    fc05:	89 c2                	mov    %eax,%edx
    fc07:	48 8d 35 0a 37 00 00 	lea    0x370a(%rip),%rsi        # 13318 <g_1231+0x12c0>
    fc0e:	48 89 cf             	mov    %rcx,%rdi
    fc11:	e8 dd 6a ff ff       	callq  66f3 <transparent_crc>
    fc16:	8b 05 e4 67 00 00    	mov    0x67e4(%rip),%eax        # 16400 <g_161>
    fc1c:	89 c1                	mov    %eax,%ecx
    fc1e:	8b 45 fc             	mov    -0x4(%rbp),%eax
    fc21:	89 c2                	mov    %eax,%edx
    fc23:	48 8d 35 f7 36 00 00 	lea    0x36f7(%rip),%rsi        # 13321 <g_1231+0x12c9>
    fc2a:	48 89 cf             	mov    %rcx,%rdi
    fc2d:	e8 c1 6a ff ff       	callq  66f3 <transparent_crc>
    fc32:	8b 05 c8 67 00 00    	mov    0x67c8(%rip),%eax        # 16400 <g_161>
    fc38:	89 c1                	mov    %eax,%ecx
    fc3a:	8b 45 fc             	mov    -0x4(%rbp),%eax
    fc3d:	89 c2                	mov    %eax,%edx
    fc3f:	48 8d 35 e4 36 00 00 	lea    0x36e4(%rip),%rsi        # 1332a <g_1231+0x12d2>
    fc46:	48 89 cf             	mov    %rcx,%rdi
    fc49:	e8 a5 6a ff ff       	callq  66f3 <transparent_crc>
    fc4e:	8b 05 b0 67 00 00    	mov    0x67b0(%rip),%eax        # 16404 <g_162>
    fc54:	89 c1                	mov    %eax,%ecx
    fc56:	8b 45 fc             	mov    -0x4(%rbp),%eax
    fc59:	89 c2                	mov    %eax,%edx
    fc5b:	48 8d 35 d1 36 00 00 	lea    0x36d1(%rip),%rsi        # 13333 <g_1231+0x12db>
    fc62:	48 89 cf             	mov    %rcx,%rdi
    fc65:	e8 89 6a ff ff       	callq  66f3 <transparent_crc>
    fc6a:	8b 05 94 67 00 00    	mov    0x6794(%rip),%eax        # 16404 <g_162>
    fc70:	89 c1                	mov    %eax,%ecx
    fc72:	8b 45 fc             	mov    -0x4(%rbp),%eax
    fc75:	89 c2                	mov    %eax,%edx
    fc77:	48 8d 35 be 36 00 00 	lea    0x36be(%rip),%rsi        # 1333c <g_1231+0x12e4>
    fc7e:	48 89 cf             	mov    %rcx,%rdi
    fc81:	e8 6d 6a ff ff       	callq  66f3 <transparent_crc>
    fc86:	8b 05 7c 67 00 00    	mov    0x677c(%rip),%eax        # 16408 <g_163>
    fc8c:	89 c1                	mov    %eax,%ecx
    fc8e:	8b 45 fc             	mov    -0x4(%rbp),%eax
    fc91:	89 c2                	mov    %eax,%edx
    fc93:	48 8d 35 ab 36 00 00 	lea    0x36ab(%rip),%rsi        # 13345 <g_1231+0x12ed>
    fc9a:	48 89 cf             	mov    %rcx,%rdi
    fc9d:	e8 51 6a ff ff       	callq  66f3 <transparent_crc>
    fca2:	8b 05 60 67 00 00    	mov    0x6760(%rip),%eax        # 16408 <g_163>
    fca8:	89 c1                	mov    %eax,%ecx
    fcaa:	8b 45 fc             	mov    -0x4(%rbp),%eax
    fcad:	89 c2                	mov    %eax,%edx
    fcaf:	48 8d 35 98 36 00 00 	lea    0x3698(%rip),%rsi        # 1334e <g_1231+0x12f6>
    fcb6:	48 89 cf             	mov    %rcx,%rdi
    fcb9:	e8 35 6a ff ff       	callq  66f3 <transparent_crc>
    fcbe:	8b 05 48 67 00 00    	mov    0x6748(%rip),%eax        # 1640c <g_164>
    fcc4:	89 c1                	mov    %eax,%ecx
    fcc6:	8b 45 fc             	mov    -0x4(%rbp),%eax
    fcc9:	89 c2                	mov    %eax,%edx
    fccb:	48 8d 35 85 36 00 00 	lea    0x3685(%rip),%rsi        # 13357 <g_1231+0x12ff>
    fcd2:	48 89 cf             	mov    %rcx,%rdi
    fcd5:	e8 19 6a ff ff       	callq  66f3 <transparent_crc>
    fcda:	8b 05 2c 67 00 00    	mov    0x672c(%rip),%eax        # 1640c <g_164>
    fce0:	89 c1                	mov    %eax,%ecx
    fce2:	8b 45 fc             	mov    -0x4(%rbp),%eax
    fce5:	89 c2                	mov    %eax,%edx
    fce7:	48 8d 35 72 36 00 00 	lea    0x3672(%rip),%rsi        # 13360 <g_1231+0x1308>
    fcee:	48 89 cf             	mov    %rcx,%rdi
    fcf1:	e8 fd 69 ff ff       	callq  66f3 <transparent_crc>
    fcf6:	c7 45 f0 00 00 00 00 	movl   $0x0,-0x10(%rbp)
    fcfd:	eb 7a                	jmp    fd79 <main+0xf42>
    fcff:	8b 45 f0             	mov    -0x10(%rbp),%eax
    fd02:	48 98                	cltq   
    fd04:	48 8d 14 85 00 00 00 	lea    0x0(,%rax,4),%rdx
    fd0b:	00 
    fd0c:	48 8d 05 fd 66 00 00 	lea    0x66fd(%rip),%rax        # 16410 <g_165>
    fd13:	8b 04 02             	mov    (%rdx,%rax,1),%eax
    fd16:	89 c1                	mov    %eax,%ecx
    fd18:	8b 45 fc             	mov    -0x4(%rbp),%eax
    fd1b:	89 c2                	mov    %eax,%edx
    fd1d:	48 8d 35 45 36 00 00 	lea    0x3645(%rip),%rsi        # 13369 <g_1231+0x1311>
    fd24:	48 89 cf             	mov    %rcx,%rdi
    fd27:	e8 c7 69 ff ff       	callq  66f3 <transparent_crc>
    fd2c:	8b 45 f0             	mov    -0x10(%rbp),%eax
    fd2f:	48 98                	cltq   
    fd31:	48 8d 14 85 00 00 00 	lea    0x0(,%rax,4),%rdx
    fd38:	00 
    fd39:	48 8d 05 d0 66 00 00 	lea    0x66d0(%rip),%rax        # 16410 <g_165>
    fd40:	8b 04 02             	mov    (%rdx,%rax,1),%eax
    fd43:	89 c1                	mov    %eax,%ecx
    fd45:	8b 45 fc             	mov    -0x4(%rbp),%eax
    fd48:	89 c2                	mov    %eax,%edx
    fd4a:	48 8d 35 24 36 00 00 	lea    0x3624(%rip),%rsi        # 13375 <g_1231+0x131d>
    fd51:	48 89 cf             	mov    %rcx,%rdi
    fd54:	e8 9a 69 ff ff       	callq  66f3 <transparent_crc>
    fd59:	83 7d fc 00          	cmpl   $0x0,-0x4(%rbp)
    fd5d:	74 16                	je     fd75 <main+0xf3e>
    fd5f:	8b 45 f0             	mov    -0x10(%rbp),%eax
    fd62:	89 c6                	mov    %eax,%esi
    fd64:	48 8d 3d be 32 00 00 	lea    0x32be(%rip),%rdi        # 13029 <g_1231+0xfd1>
    fd6b:	b8 00 00 00 00       	mov    $0x0,%eax
    fd70:	e8 0b 53 ff ff       	callq  5080 <printf@plt>
    fd75:	83 45 f0 01          	addl   $0x1,-0x10(%rbp)
    fd79:	83 7d f0 06          	cmpl   $0x6,-0x10(%rbp)
    fd7d:	7e 80                	jle    fcff <main+0xec8>
    fd7f:	8b 05 a7 66 00 00    	mov    0x66a7(%rip),%eax        # 1642c <g_166>
    fd85:	89 c1                	mov    %eax,%ecx
    fd87:	8b 45 fc             	mov    -0x4(%rbp),%eax
    fd8a:	89 c2                	mov    %eax,%edx
    fd8c:	48 8d 35 ee 35 00 00 	lea    0x35ee(%rip),%rsi        # 13381 <g_1231+0x1329>
    fd93:	48 89 cf             	mov    %rcx,%rdi
    fd96:	e8 58 69 ff ff       	callq  66f3 <transparent_crc>
    fd9b:	8b 05 8b 66 00 00    	mov    0x668b(%rip),%eax        # 1642c <g_166>
    fda1:	89 c1                	mov    %eax,%ecx
    fda3:	8b 45 fc             	mov    -0x4(%rbp),%eax
    fda6:	89 c2                	mov    %eax,%edx
    fda8:	48 8d 35 db 35 00 00 	lea    0x35db(%rip),%rsi        # 1338a <g_1231+0x1332>
    fdaf:	48 89 cf             	mov    %rcx,%rdi
    fdb2:	e8 3c 69 ff ff       	callq  66f3 <transparent_crc>
    fdb7:	c7 45 f0 00 00 00 00 	movl   $0x0,-0x10(%rbp)
    fdbe:	e9 e8 00 00 00       	jmpq   feab <main+0x1074>
    fdc3:	c7 45 f4 00 00 00 00 	movl   $0x0,-0xc(%rbp)
    fdca:	e9 ce 00 00 00       	jmpq   fe9d <main+0x1066>
    fdcf:	c7 45 f8 00 00 00 00 	movl   $0x0,-0x8(%rbp)
    fdd6:	e9 b4 00 00 00       	jmpq   fe8f <main+0x1058>
    fddb:	8b 45 f8             	mov    -0x8(%rbp),%eax
    fdde:	48 98                	cltq   
    fde0:	8b 55 f0             	mov    -0x10(%rbp),%edx
    fde3:	48 63 ca             	movslq %edx,%rcx
    fde6:	8b 55 f4             	mov    -0xc(%rbp),%edx
    fde9:	48 63 d2             	movslq %edx,%rdx
    fdec:	48 c1 e1 02          	shl    $0x2,%rcx
    fdf0:	48 01 ca             	add    %rcx,%rdx
    fdf3:	48 c1 e2 03          	shl    $0x3,%rdx
    fdf7:	48 01 d0             	add    %rdx,%rax
    fdfa:	48 8d 14 85 00 00 00 	lea    0x0(,%rax,4),%rdx
    fe01:	00 
    fe02:	48 8d 05 37 66 00 00 	lea    0x6637(%rip),%rax        # 16440 <g_167>
    fe09:	8b 04 02             	mov    (%rdx,%rax,1),%eax
    fe0c:	89 c1                	mov    %eax,%ecx
    fe0e:	8b 45 fc             	mov    -0x4(%rbp),%eax
    fe11:	89 c2                	mov    %eax,%edx
    fe13:	48 8d 35 79 35 00 00 	lea    0x3579(%rip),%rsi        # 13393 <g_1231+0x133b>
    fe1a:	48 89 cf             	mov    %rcx,%rdi
    fe1d:	e8 d1 68 ff ff       	callq  66f3 <transparent_crc>
    fe22:	8b 45 f8             	mov    -0x8(%rbp),%eax
    fe25:	48 98                	cltq   
    fe27:	8b 55 f0             	mov    -0x10(%rbp),%edx
    fe2a:	48 63 ca             	movslq %edx,%rcx
    fe2d:	8b 55 f4             	mov    -0xc(%rbp),%edx
    fe30:	48 63 d2             	movslq %edx,%rdx
    fe33:	48 c1 e1 02          	shl    $0x2,%rcx
    fe37:	48 01 ca             	add    %rcx,%rdx
    fe3a:	48 c1 e2 03          	shl    $0x3,%rdx
    fe3e:	48 01 d0             	add    %rdx,%rax
    fe41:	48 8d 14 85 00 00 00 	lea    0x0(,%rax,4),%rdx
    fe48:	00 
    fe49:	48 8d 05 f0 65 00 00 	lea    0x65f0(%rip),%rax        # 16440 <g_167>
    fe50:	8b 04 02             	mov    (%rdx,%rax,1),%eax
    fe53:	89 c1                	mov    %eax,%ecx
    fe55:	8b 45 fc             	mov    -0x4(%rbp),%eax
    fe58:	89 c2                	mov    %eax,%edx
    fe5a:	48 8d 35 44 35 00 00 	lea    0x3544(%rip),%rsi        # 133a5 <g_1231+0x134d>
    fe61:	48 89 cf             	mov    %rcx,%rdi
    fe64:	e8 8a 68 ff ff       	callq  66f3 <transparent_crc>
    fe69:	83 7d fc 00          	cmpl   $0x0,-0x4(%rbp)
    fe6d:	74 1c                	je     fe8b <main+0x1054>
    fe6f:	8b 4d f8             	mov    -0x8(%rbp),%ecx
    fe72:	8b 55 f4             	mov    -0xc(%rbp),%edx
    fe75:	8b 45 f0             	mov    -0x10(%rbp),%eax
    fe78:	89 c6                	mov    %eax,%esi
    fe7a:	48 8d 3d f2 32 00 00 	lea    0x32f2(%rip),%rdi        # 13173 <g_1231+0x111b>
    fe81:	b8 00 00 00 00       	mov    $0x0,%eax
    fe86:	e8 f5 51 ff ff       	callq  5080 <printf@plt>
    fe8b:	83 45 f8 01          	addl   $0x1,-0x8(%rbp)
    fe8f:	83 7d f8 07          	cmpl   $0x7,-0x8(%rbp)
    fe93:	0f 8e 42 ff ff ff    	jle    fddb <main+0xfa4>
    fe99:	83 45 f4 01          	addl   $0x1,-0xc(%rbp)
    fe9d:	83 7d f4 03          	cmpl   $0x3,-0xc(%rbp)
    fea1:	0f 8e 28 ff ff ff    	jle    fdcf <main+0xf98>
    fea7:	83 45 f0 01          	addl   $0x1,-0x10(%rbp)
    feab:	83 7d f0 00          	cmpl   $0x0,-0x10(%rbp)
    feaf:	0f 8e 0e ff ff ff    	jle    fdc3 <main+0xf8c>
    feb5:	c7 45 f0 00 00 00 00 	movl   $0x0,-0x10(%rbp)
    febc:	e9 bd 00 00 00       	jmpq   ff7e <main+0x1147>
    fec1:	c7 45 f4 00 00 00 00 	movl   $0x0,-0xc(%rbp)
    fec8:	e9 a3 00 00 00       	jmpq   ff70 <main+0x1139>
    fecd:	8b 45 f4             	mov    -0xc(%rbp),%eax
    fed0:	48 63 c8             	movslq %eax,%rcx
    fed3:	8b 45 f0             	mov    -0x10(%rbp),%eax
    fed6:	48 63 d0             	movslq %eax,%rdx
    fed9:	48 89 d0             	mov    %rdx,%rax
    fedc:	48 01 c0             	add    %rax,%rax
    fedf:	48 01 d0             	add    %rdx,%rax
    fee2:	48 01 c8             	add    %rcx,%rax
    fee5:	48 8d 14 85 00 00 00 	lea    0x0(,%rax,4),%rdx
    feec:	00 
    feed:	48 8d 05 cc 65 00 00 	lea    0x65cc(%rip),%rax        # 164c0 <g_168>
    fef4:	8b 04 02             	mov    (%rdx,%rax,1),%eax
    fef7:	89 c1                	mov    %eax,%ecx
    fef9:	8b 45 fc             	mov    -0x4(%rbp),%eax
    fefc:	89 c2                	mov    %eax,%edx
    fefe:	48 8d 35 b2 34 00 00 	lea    0x34b2(%rip),%rsi        # 133b7 <g_1231+0x135f>
    ff05:	48 89 cf             	mov    %rcx,%rdi
    ff08:	e8 e6 67 ff ff       	callq  66f3 <transparent_crc>
    ff0d:	8b 45 f4             	mov    -0xc(%rbp),%eax
    ff10:	48 63 c8             	movslq %eax,%rcx
    ff13:	8b 45 f0             	mov    -0x10(%rbp),%eax
    ff16:	48 63 d0             	movslq %eax,%rdx
    ff19:	48 89 d0             	mov    %rdx,%rax
    ff1c:	48 01 c0             	add    %rax,%rax
    ff1f:	48 01 d0             	add    %rdx,%rax
    ff22:	48 01 c8             	add    %rcx,%rax
    ff25:	48 8d 14 85 00 00 00 	lea    0x0(,%rax,4),%rdx
    ff2c:	00 
    ff2d:	48 8d 05 8c 65 00 00 	lea    0x658c(%rip),%rax        # 164c0 <g_168>
    ff34:	8b 04 02             	mov    (%rdx,%rax,1),%eax
    ff37:	89 c1                	mov    %eax,%ecx
    ff39:	8b 45 fc             	mov    -0x4(%rbp),%eax
    ff3c:	89 c2                	mov    %eax,%edx
    ff3e:	48 8d 35 81 34 00 00 	lea    0x3481(%rip),%rsi        # 133c6 <g_1231+0x136e>
    ff45:	48 89 cf             	mov    %rcx,%rdi
    ff48:	e8 a6 67 ff ff       	callq  66f3 <transparent_crc>
    ff4d:	83 7d fc 00          	cmpl   $0x0,-0x4(%rbp)
    ff51:	74 19                	je     ff6c <main+0x1135>
    ff53:	8b 55 f4             	mov    -0xc(%rbp),%edx
    ff56:	8b 45 f0             	mov    -0x10(%rbp),%eax
    ff59:	89 c6                	mov    %eax,%esi
    ff5b:	48 8d 3d 81 32 00 00 	lea    0x3281(%rip),%rdi        # 131e3 <g_1231+0x118b>
    ff62:	b8 00 00 00 00       	mov    $0x0,%eax
    ff67:	e8 14 51 ff ff       	callq  5080 <printf@plt>
    ff6c:	83 45 f4 01          	addl   $0x1,-0xc(%rbp)
    ff70:	83 7d f4 02          	cmpl   $0x2,-0xc(%rbp)
    ff74:	0f 8e 53 ff ff ff    	jle    fecd <main+0x1096>
    ff7a:	83 45 f0 01          	addl   $0x1,-0x10(%rbp)
    ff7e:	83 7d f0 07          	cmpl   $0x7,-0x10(%rbp)
    ff82:	0f 8e 39 ff ff ff    	jle    fec1 <main+0x108a>
    ff88:	8b 05 92 65 00 00    	mov    0x6592(%rip),%eax        # 16520 <g_169>
    ff8e:	89 c1                	mov    %eax,%ecx
    ff90:	8b 45 fc             	mov    -0x4(%rbp),%eax
    ff93:	89 c2                	mov    %eax,%edx
    ff95:	48 8d 35 39 34 00 00 	lea    0x3439(%rip),%rsi        # 133d5 <g_1231+0x137d>
    ff9c:	48 89 cf             	mov    %rcx,%rdi
    ff9f:	e8 4f 67 ff ff       	callq  66f3 <transparent_crc>
    ffa4:	8b 05 76 65 00 00    	mov    0x6576(%rip),%eax        # 16520 <g_169>
    ffaa:	89 c1                	mov    %eax,%ecx
    ffac:	8b 45 fc             	mov    -0x4(%rbp),%eax
    ffaf:	89 c2                	mov    %eax,%edx
    ffb1:	48 8d 35 26 34 00 00 	lea    0x3426(%rip),%rsi        # 133de <g_1231+0x1386>
    ffb8:	48 89 cf             	mov    %rcx,%rdi
    ffbb:	e8 33 67 ff ff       	callq  66f3 <transparent_crc>
    ffc0:	8b 05 5e 65 00 00    	mov    0x655e(%rip),%eax        # 16524 <g_170>
    ffc6:	89 c1                	mov    %eax,%ecx
    ffc8:	8b 45 fc             	mov    -0x4(%rbp),%eax
    ffcb:	89 c2                	mov    %eax,%edx
    ffcd:	48 8d 35 13 34 00 00 	lea    0x3413(%rip),%rsi        # 133e7 <g_1231+0x138f>
    ffd4:	48 89 cf             	mov    %rcx,%rdi
    ffd7:	e8 17 67 ff ff       	callq  66f3 <transparent_crc>
    ffdc:	8b 05 42 65 00 00    	mov    0x6542(%rip),%eax        # 16524 <g_170>
    ffe2:	89 c1                	mov    %eax,%ecx
    ffe4:	8b 45 fc             	mov    -0x4(%rbp),%eax
    ffe7:	89 c2                	mov    %eax,%edx
    ffe9:	48 8d 35 00 34 00 00 	lea    0x3400(%rip),%rsi        # 133f0 <g_1231+0x1398>
    fff0:	48 89 cf             	mov    %rcx,%rdi
    fff3:	e8 fb 66 ff ff       	callq  66f3 <transparent_crc>
    fff8:	c7 45 f0 00 00 00 00 	movl   $0x0,-0x10(%rbp)
    ffff:	eb 7a                	jmp    1007b <main+0x1244>
   10001:	8b 45 f0             	mov    -0x10(%rbp),%eax
   10004:	48 98                	cltq   
   10006:	48 8d 14 85 00 00 00 	lea    0x0(,%rax,4),%rdx
   1000d:	00 
   1000e:	48 8d 05 13 65 00 00 	lea    0x6513(%rip),%rax        # 16528 <g_171>
   10015:	8b 04 02             	mov    (%rdx,%rax,1),%eax
   10018:	89 c1                	mov    %eax,%ecx
   1001a:	8b 45 fc             	mov    -0x4(%rbp),%eax
   1001d:	89 c2                	mov    %eax,%edx
   1001f:	48 8d 35 d3 33 00 00 	lea    0x33d3(%rip),%rsi        # 133f9 <g_1231+0x13a1>
   10026:	48 89 cf             	mov    %rcx,%rdi
   10029:	e8 c5 66 ff ff       	callq  66f3 <transparent_crc>
   1002e:	8b 45 f0             	mov    -0x10(%rbp),%eax
   10031:	48 98                	cltq   
   10033:	48 8d 14 85 00 00 00 	lea    0x0(,%rax,4),%rdx
   1003a:	00 
   1003b:	48 8d 05 e6 64 00 00 	lea    0x64e6(%rip),%rax        # 16528 <g_171>
   10042:	8b 04 02             	mov    (%rdx,%rax,1),%eax
   10045:	89 c1                	mov    %eax,%ecx
   10047:	8b 45 fc             	mov    -0x4(%rbp),%eax
   1004a:	89 c2                	mov    %eax,%edx
   1004c:	48 8d 35 b2 33 00 00 	lea    0x33b2(%rip),%rsi        # 13405 <g_1231+0x13ad>
   10053:	48 89 cf             	mov    %rcx,%rdi
   10056:	e8 98 66 ff ff       	callq  66f3 <transparent_crc>
   1005b:	83 7d fc 00          	cmpl   $0x0,-0x4(%rbp)
   1005f:	74 16                	je     10077 <main+0x1240>
   10061:	8b 45 f0             	mov    -0x10(%rbp),%eax
   10064:	89 c6                	mov    %eax,%esi
   10066:	48 8d 3d bc 2f 00 00 	lea    0x2fbc(%rip),%rdi        # 13029 <g_1231+0xfd1>
   1006d:	b8 00 00 00 00       	mov    $0x0,%eax
   10072:	e8 09 50 ff ff       	callq  5080 <printf@plt>
   10077:	83 45 f0 01          	addl   $0x1,-0x10(%rbp)
   1007b:	83 7d f0 00          	cmpl   $0x0,-0x10(%rbp)
   1007f:	7e 80                	jle    10001 <main+0x11ca>
   10081:	8b 05 a5 64 00 00    	mov    0x64a5(%rip),%eax        # 1652c <g_172>
   10087:	89 c1                	mov    %eax,%ecx
   10089:	8b 45 fc             	mov    -0x4(%rbp),%eax
   1008c:	89 c2                	mov    %eax,%edx
   1008e:	48 8d 35 7c 33 00 00 	lea    0x337c(%rip),%rsi        # 13411 <g_1231+0x13b9>
   10095:	48 89 cf             	mov    %rcx,%rdi
   10098:	e8 56 66 ff ff       	callq  66f3 <transparent_crc>
   1009d:	8b 05 89 64 00 00    	mov    0x6489(%rip),%eax        # 1652c <g_172>
   100a3:	89 c1                	mov    %eax,%ecx
   100a5:	8b 45 fc             	mov    -0x4(%rbp),%eax
   100a8:	89 c2                	mov    %eax,%edx
   100aa:	48 8d 35 69 33 00 00 	lea    0x3369(%rip),%rsi        # 1341a <g_1231+0x13c2>
   100b1:	48 89 cf             	mov    %rcx,%rdi
   100b4:	e8 3a 66 ff ff       	callq  66f3 <transparent_crc>
   100b9:	8b 05 71 64 00 00    	mov    0x6471(%rip),%eax        # 16530 <g_173>
   100bf:	89 c1                	mov    %eax,%ecx
   100c1:	8b 45 fc             	mov    -0x4(%rbp),%eax
   100c4:	89 c2                	mov    %eax,%edx
   100c6:	48 8d 35 56 33 00 00 	lea    0x3356(%rip),%rsi        # 13423 <g_1231+0x13cb>
   100cd:	48 89 cf             	mov    %rcx,%rdi
   100d0:	e8 1e 66 ff ff       	callq  66f3 <transparent_crc>
   100d5:	8b 05 55 64 00 00    	mov    0x6455(%rip),%eax        # 16530 <g_173>
   100db:	89 c1                	mov    %eax,%ecx
   100dd:	8b 45 fc             	mov    -0x4(%rbp),%eax
   100e0:	89 c2                	mov    %eax,%edx
   100e2:	48 8d 35 43 33 00 00 	lea    0x3343(%rip),%rsi        # 1342c <g_1231+0x13d4>
   100e9:	48 89 cf             	mov    %rcx,%rdi
   100ec:	e8 02 66 ff ff       	callq  66f3 <transparent_crc>
   100f1:	c7 45 f0 00 00 00 00 	movl   $0x0,-0x10(%rbp)
   100f8:	e9 18 01 00 00       	jmpq   10215 <main+0x13de>
   100fd:	c7 45 f4 00 00 00 00 	movl   $0x0,-0xc(%rbp)
   10104:	e9 fe 00 00 00       	jmpq   10207 <main+0x13d0>
   10109:	c7 45 f8 00 00 00 00 	movl   $0x0,-0x8(%rbp)
   10110:	e9 e4 00 00 00       	jmpq   101f9 <main+0x13c2>
   10115:	8b 45 f8             	mov    -0x8(%rbp),%eax
   10118:	48 63 f0             	movslq %eax,%rsi
   1011b:	8b 45 f0             	mov    -0x10(%rbp),%eax
   1011e:	48 63 d0             	movslq %eax,%rdx
   10121:	8b 45 f4             	mov    -0xc(%rbp),%eax
   10124:	48 63 c8             	movslq %eax,%rcx
   10127:	48 89 d0             	mov    %rdx,%rax
   1012a:	48 c1 e0 03          	shl    $0x3,%rax
   1012e:	48 01 d0             	add    %rdx,%rax
   10131:	48 8d 14 c5 00 00 00 	lea    0x0(,%rax,8),%rdx
   10138:	00 
   10139:	48 01 d0             	add    %rdx,%rax
   1013c:	48 89 ca             	mov    %rcx,%rdx
   1013f:	48 c1 e2 03          	shl    $0x3,%rdx
   10143:	48 01 ca             	add    %rcx,%rdx
   10146:	48 01 d0             	add    %rdx,%rax
   10149:	48 01 f0             	add    %rsi,%rax
   1014c:	48 8d 14 85 00 00 00 	lea    0x0(,%rax,4),%rdx
   10153:	00 
   10154:	48 8d 05 e5 63 00 00 	lea    0x63e5(%rip),%rax        # 16540 <g_174>
   1015b:	8b 04 02             	mov    (%rdx,%rax,1),%eax
   1015e:	89 c1                	mov    %eax,%ecx
   10160:	8b 45 fc             	mov    -0x4(%rbp),%eax
   10163:	89 c2                	mov    %eax,%edx
   10165:	48 8d 35 c9 32 00 00 	lea    0x32c9(%rip),%rsi        # 13435 <g_1231+0x13dd>
   1016c:	48 89 cf             	mov    %rcx,%rdi
   1016f:	e8 7f 65 ff ff       	callq  66f3 <transparent_crc>
   10174:	8b 45 f8             	mov    -0x8(%rbp),%eax
   10177:	48 63 f0             	movslq %eax,%rsi
   1017a:	8b 45 f0             	mov    -0x10(%rbp),%eax
   1017d:	48 63 d0             	movslq %eax,%rdx
   10180:	8b 45 f4             	mov    -0xc(%rbp),%eax
   10183:	48 63 c8             	movslq %eax,%rcx
   10186:	48 89 d0             	mov    %rdx,%rax
   10189:	48 c1 e0 03          	shl    $0x3,%rax
   1018d:	48 01 d0             	add    %rdx,%rax
   10190:	48 8d 14 c5 00 00 00 	lea    0x0(,%rax,8),%rdx
   10197:	00 
   10198:	48 01 d0             	add    %rdx,%rax
   1019b:	48 89 ca             	mov    %rcx,%rdx
   1019e:	48 c1 e2 03          	shl    $0x3,%rdx
   101a2:	48 01 ca             	add    %rcx,%rdx
   101a5:	48 01 d0             	add    %rdx,%rax
   101a8:	48 01 f0             	add    %rsi,%rax
   101ab:	48 8d 14 85 00 00 00 	lea    0x0(,%rax,4),%rdx
   101b2:	00 
   101b3:	48 8d 05 86 63 00 00 	lea    0x6386(%rip),%rax        # 16540 <g_174>
   101ba:	8b 04 02             	mov    (%rdx,%rax,1),%eax
   101bd:	89 c1                	mov    %eax,%ecx
   101bf:	8b 45 fc             	mov    -0x4(%rbp),%eax
   101c2:	89 c2                	mov    %eax,%edx
   101c4:	48 8d 35 7c 32 00 00 	lea    0x327c(%rip),%rsi        # 13447 <g_1231+0x13ef>
   101cb:	48 89 cf             	mov    %rcx,%rdi
   101ce:	e8 20 65 ff ff       	callq  66f3 <transparent_crc>
   101d3:	83 7d fc 00          	cmpl   $0x0,-0x4(%rbp)
   101d7:	74 1c                	je     101f5 <main+0x13be>
   101d9:	8b 4d f8             	mov    -0x8(%rbp),%ecx
   101dc:	8b 55 f4             	mov    -0xc(%rbp),%edx
   101df:	8b 45 f0             	mov    -0x10(%rbp),%eax
   101e2:	89 c6                	mov    %eax,%esi
   101e4:	48 8d 3d 88 2f 00 00 	lea    0x2f88(%rip),%rdi        # 13173 <g_1231+0x111b>
   101eb:	b8 00 00 00 00       	mov    $0x0,%eax
   101f0:	e8 8b 4e ff ff       	callq  5080 <printf@plt>
   101f5:	83 45 f8 01          	addl   $0x1,-0x8(%rbp)
   101f9:	83 7d f8 08          	cmpl   $0x8,-0x8(%rbp)
   101fd:	0f 8e 12 ff ff ff    	jle    10115 <main+0x12de>
   10203:	83 45 f4 01          	addl   $0x1,-0xc(%rbp)
   10207:	83 7d f4 08          	cmpl   $0x8,-0xc(%rbp)
   1020b:	0f 8e f8 fe ff ff    	jle    10109 <main+0x12d2>
   10211:	83 45 f0 01          	addl   $0x1,-0x10(%rbp)
   10215:	83 7d f0 02          	cmpl   $0x2,-0x10(%rbp)
   10219:	0f 8e de fe ff ff    	jle    100fd <main+0x12c6>
   1021f:	8b 05 e7 66 00 00    	mov    0x66e7(%rip),%eax        # 1690c <g_181>
   10225:	48 98                	cltq   
   10227:	8b 55 fc             	mov    -0x4(%rbp),%edx
   1022a:	48 8d 35 28 32 00 00 	lea    0x3228(%rip),%rsi        # 13459 <g_1231+0x1401>
   10231:	48 89 c7             	mov    %rax,%rdi
   10234:	e8 ba 64 ff ff       	callq  66f3 <transparent_crc>
   10239:	0f b6 05 d0 66 00 00 	movzbl 0x66d0(%rip),%eax        # 16910 <g_192>
   10240:	48 0f be c0          	movsbq %al,%rax
   10244:	8b 55 fc             	mov    -0x4(%rbp),%edx
   10247:	48 8d 35 11 32 00 00 	lea    0x3211(%rip),%rsi        # 1345f <g_1231+0x1407>
   1024e:	48 89 c7             	mov    %rax,%rdi
   10251:	e8 9d 64 ff ff       	callq  66f3 <transparent_crc>
   10256:	8b 05 b8 66 00 00    	mov    0x66b8(%rip),%eax        # 16914 <g_202>
   1025c:	89 c1                	mov    %eax,%ecx
   1025e:	8b 45 fc             	mov    -0x4(%rbp),%eax
   10261:	89 c2                	mov    %eax,%edx
   10263:	48 8d 35 fb 31 00 00 	lea    0x31fb(%rip),%rsi        # 13465 <g_1231+0x140d>
   1026a:	48 89 cf             	mov    %rcx,%rdi
   1026d:	e8 81 64 ff ff       	callq  66f3 <transparent_crc>
   10272:	8b 05 9c 66 00 00    	mov    0x669c(%rip),%eax        # 16914 <g_202>
   10278:	89 c1                	mov    %eax,%ecx
   1027a:	8b 45 fc             	mov    -0x4(%rbp),%eax
   1027d:	89 c2                	mov    %eax,%edx
   1027f:	48 8d 35 e8 31 00 00 	lea    0x31e8(%rip),%rsi        # 1346e <g_1231+0x1416>
   10286:	48 89 cf             	mov    %rcx,%rdi
   10289:	e8 65 64 ff ff       	callq  66f3 <transparent_crc>
   1028e:	48 8b 05 43 a5 00 00 	mov    0xa543(%rip),%rax        # 1a7d8 <g_210>
   10295:	48 89 c1             	mov    %rax,%rcx
   10298:	8b 45 fc             	mov    -0x4(%rbp),%eax
   1029b:	89 c2                	mov    %eax,%edx
   1029d:	48 8d 35 d3 31 00 00 	lea    0x31d3(%rip),%rsi        # 13477 <g_1231+0x141f>
   102a4:	48 89 cf             	mov    %rcx,%rdi
   102a7:	e8 47 64 ff ff       	callq  66f3 <transparent_crc>
   102ac:	0f b7 05 65 66 00 00 	movzwl 0x6665(%rip),%eax        # 16918 <g_233>
   102b3:	0f b7 c0             	movzwl %ax,%eax
   102b6:	8b 55 fc             	mov    -0x4(%rbp),%edx
   102b9:	48 8d 35 bd 31 00 00 	lea    0x31bd(%rip),%rsi        # 1347d <g_1231+0x1425>
   102c0:	48 89 c7             	mov    %rax,%rdi
   102c3:	e8 2b 64 ff ff       	callq  66f3 <transparent_crc>
   102c8:	0f b7 05 4b 66 00 00 	movzwl 0x664b(%rip),%eax        # 1691a <g_298>
   102cf:	0f b7 c0             	movzwl %ax,%eax
   102d2:	8b 55 fc             	mov    -0x4(%rbp),%edx
   102d5:	48 8d 35 a7 31 00 00 	lea    0x31a7(%rip),%rsi        # 13483 <g_1231+0x142b>
   102dc:	48 89 c7             	mov    %rax,%rdi
   102df:	e8 0f 64 ff ff       	callq  66f3 <transparent_crc>
   102e4:	c7 45 f0 00 00 00 00 	movl   $0x0,-0x10(%rbp)
   102eb:	e9 8c 00 00 00       	jmpq   1037c <main+0x1545>
   102f0:	c7 45 f4 00 00 00 00 	movl   $0x0,-0xc(%rbp)
   102f7:	eb 79                	jmp    10372 <main+0x153b>
   102f9:	c7 45 f8 00 00 00 00 	movl   $0x0,-0x8(%rbp)
   10300:	eb 66                	jmp    10368 <main+0x1531>
   10302:	8b 45 f8             	mov    -0x8(%rbp),%eax
   10305:	48 63 d0             	movslq %eax,%rdx
   10308:	8b 45 f4             	mov    -0xc(%rbp),%eax
   1030b:	48 98                	cltq   
   1030d:	8b 4d f0             	mov    -0x10(%rbp),%ecx
   10310:	48 63 c9             	movslq %ecx,%rcx
   10313:	48 c1 e1 03          	shl    $0x3,%rcx
   10317:	48 01 ca             	add    %rcx,%rdx
   1031a:	48 01 d0             	add    %rdx,%rax
   1031d:	48 8d 14 00          	lea    (%rax,%rax,1),%rdx
   10321:	48 8d 05 f8 65 00 00 	lea    0x65f8(%rip),%rax        # 16920 <g_326>
   10328:	0f b7 04 02          	movzwl (%rdx,%rax,1),%eax
   1032c:	48 0f bf c0          	movswq %ax,%rax
   10330:	8b 55 fc             	mov    -0x4(%rbp),%edx
   10333:	48 8d 35 4f 31 00 00 	lea    0x314f(%rip),%rsi        # 13489 <g_1231+0x1431>
   1033a:	48 89 c7             	mov    %rax,%rdi
   1033d:	e8 b1 63 ff ff       	callq  66f3 <transparent_crc>
   10342:	83 7d fc 00          	cmpl   $0x0,-0x4(%rbp)
   10346:	74 1c                	je     10364 <main+0x152d>
   10348:	8b 4d f8             	mov    -0x8(%rbp),%ecx
   1034b:	8b 55 f4             	mov    -0xc(%rbp),%edx
   1034e:	8b 45 f0             	mov    -0x10(%rbp),%eax
   10351:	89 c6                	mov    %eax,%esi
   10353:	48 8d 3d 19 2e 00 00 	lea    0x2e19(%rip),%rdi        # 13173 <g_1231+0x111b>
   1035a:	b8 00 00 00 00       	mov    $0x0,%eax
   1035f:	e8 1c 4d ff ff       	callq  5080 <printf@plt>
   10364:	83 45 f8 01          	addl   $0x1,-0x8(%rbp)
   10368:	83 7d f8 00          	cmpl   $0x0,-0x8(%rbp)
   1036c:	7e 94                	jle    10302 <main+0x14cb>
   1036e:	83 45 f4 01          	addl   $0x1,-0xc(%rbp)
   10372:	83 7d f4 07          	cmpl   $0x7,-0xc(%rbp)
   10376:	7e 81                	jle    102f9 <main+0x14c2>
   10378:	83 45 f0 01          	addl   $0x1,-0x10(%rbp)
   1037c:	83 7d f0 08          	cmpl   $0x8,-0x10(%rbp)
   10380:	0f 8e 6a ff ff ff    	jle    102f0 <main+0x14b9>
   10386:	0f b7 05 23 66 00 00 	movzwl 0x6623(%rip),%eax        # 169b0 <g_334>
   1038d:	0f b7 c0             	movzwl %ax,%eax
   10390:	8b 55 fc             	mov    -0x4(%rbp),%edx
   10393:	48 8d 35 fe 30 00 00 	lea    0x30fe(%rip),%rsi        # 13498 <g_1231+0x1440>
   1039a:	48 89 c7             	mov    %rax,%rdi
   1039d:	e8 51 63 ff ff       	callq  66f3 <transparent_crc>
   103a2:	8b 05 0c 66 00 00    	mov    0x660c(%rip),%eax        # 169b4 <g_354>
   103a8:	89 c1                	mov    %eax,%ecx
   103aa:	8b 45 fc             	mov    -0x4(%rbp),%eax
   103ad:	89 c2                	mov    %eax,%edx
   103af:	48 8d 35 e8 30 00 00 	lea    0x30e8(%rip),%rsi        # 1349e <g_1231+0x1446>
   103b6:	48 89 cf             	mov    %rcx,%rdi
   103b9:	e8 35 63 ff ff       	callq  66f3 <transparent_crc>
   103be:	c7 45 f0 00 00 00 00 	movl   $0x0,-0x10(%rbp)
   103c5:	eb 6d                	jmp    10434 <main+0x15fd>
   103c7:	c7 45 f4 00 00 00 00 	movl   $0x0,-0xc(%rbp)
   103ce:	eb 5a                	jmp    1042a <main+0x15f3>
   103d0:	8b 45 f4             	mov    -0xc(%rbp),%eax
   103d3:	48 98                	cltq   
   103d5:	8b 55 f0             	mov    -0x10(%rbp),%edx
   103d8:	48 63 d2             	movslq %edx,%rdx
   103db:	48 01 d2             	add    %rdx,%rdx
   103de:	48 01 d0             	add    %rdx,%rax
   103e1:	48 8d 14 85 00 00 00 	lea    0x0(,%rax,4),%rdx
   103e8:	00 
   103e9:	48 8d 05 d0 65 00 00 	lea    0x65d0(%rip),%rax        # 169c0 <g_375>
   103f0:	8b 04 02             	mov    (%rdx,%rax,1),%eax
   103f3:	48 98                	cltq   
   103f5:	8b 55 fc             	mov    -0x4(%rbp),%edx
   103f8:	48 8d 35 a5 30 00 00 	lea    0x30a5(%rip),%rsi        # 134a4 <g_1231+0x144c>
   103ff:	48 89 c7             	mov    %rax,%rdi
   10402:	e8 ec 62 ff ff       	callq  66f3 <transparent_crc>
   10407:	83 7d fc 00          	cmpl   $0x0,-0x4(%rbp)
   1040b:	74 19                	je     10426 <main+0x15ef>
   1040d:	8b 55 f4             	mov    -0xc(%rbp),%edx
   10410:	8b 45 f0             	mov    -0x10(%rbp),%eax
   10413:	89 c6                	mov    %eax,%esi
   10415:	48 8d 3d c7 2d 00 00 	lea    0x2dc7(%rip),%rdi        # 131e3 <g_1231+0x118b>
   1041c:	b8 00 00 00 00       	mov    $0x0,%eax
   10421:	e8 5a 4c ff ff       	callq  5080 <printf@plt>
   10426:	83 45 f4 01          	addl   $0x1,-0xc(%rbp)
   1042a:	83 7d f4 01          	cmpl   $0x1,-0xc(%rbp)
   1042e:	7e a0                	jle    103d0 <main+0x1599>
   10430:	83 45 f0 01          	addl   $0x1,-0x10(%rbp)
   10434:	83 7d f0 07          	cmpl   $0x7,-0x10(%rbp)
   10438:	7e 8d                	jle    103c7 <main+0x1590>
   1043a:	0f b6 05 bf 65 00 00 	movzbl 0x65bf(%rip),%eax        # 16a00 <g_399>
   10441:	48 0f be c0          	movsbq %al,%rax
   10445:	8b 55 fc             	mov    -0x4(%rbp),%edx
   10448:	48 8d 35 61 30 00 00 	lea    0x3061(%rip),%rsi        # 134b0 <g_1231+0x1458>
   1044f:	48 89 c7             	mov    %rax,%rdi
   10452:	e8 9c 62 ff ff       	callq  66f3 <transparent_crc>
   10457:	8b 05 a7 65 00 00    	mov    0x65a7(%rip),%eax        # 16a04 <g_399+0x4>
   1045d:	25 ff ff ff 1f       	and    $0x1fffffff,%eax
   10462:	89 c1                	mov    %eax,%ecx
   10464:	8b 45 fc             	mov    -0x4(%rbp),%eax
   10467:	89 c2                	mov    %eax,%edx
   10469:	48 8d 35 49 30 00 00 	lea    0x3049(%rip),%rsi        # 134b9 <g_1231+0x1461>
   10470:	48 89 cf             	mov    %rcx,%rdi
   10473:	e8 7b 62 ff ff       	callq  66f3 <transparent_crc>
   10478:	0f b7 05 89 65 00 00 	movzwl 0x6589(%rip),%eax        # 16a08 <g_399+0x8>
   1047f:	66 25 ff 07          	and    $0x7ff,%ax
   10483:	0f b7 c0             	movzwl %ax,%eax
   10486:	8b 55 fc             	mov    -0x4(%rbp),%edx
   10489:	48 8d 35 32 30 00 00 	lea    0x3032(%rip),%rsi        # 134c2 <g_1231+0x146a>
   10490:	48 89 c7             	mov    %rax,%rdi
   10493:	e8 5b 62 ff ff       	callq  66f3 <transparent_crc>
   10498:	8b 05 6e 65 00 00    	mov    0x656e(%rip),%eax        # 16a0c <g_399+0xc>
   1049e:	48 98                	cltq   
   104a0:	8b 55 fc             	mov    -0x4(%rbp),%edx
   104a3:	48 8d 35 21 30 00 00 	lea    0x3021(%rip),%rsi        # 134cb <g_1231+0x1473>
   104aa:	48 89 c7             	mov    %rax,%rdi
   104ad:	e8 41 62 ff ff       	callq  66f3 <transparent_crc>
   104b2:	8b 05 58 65 00 00    	mov    0x6558(%rip),%eax        # 16a10 <g_399+0x10>
   104b8:	c1 e0 04             	shl    $0x4,%eax
   104bb:	c1 f8 04             	sar    $0x4,%eax
   104be:	48 98                	cltq   
   104c0:	8b 55 fc             	mov    -0x4(%rbp),%edx
   104c3:	48 8d 35 0a 30 00 00 	lea    0x300a(%rip),%rsi        # 134d4 <g_1231+0x147c>
   104ca:	48 89 c7             	mov    %rax,%rdi
   104cd:	e8 21 62 ff ff       	callq  66f3 <transparent_crc>
   104d2:	8b 05 3c 65 00 00    	mov    0x653c(%rip),%eax        # 16a14 <g_399+0x14>
   104d8:	25 ff ff ff 00       	and    $0xffffff,%eax
   104dd:	89 c1                	mov    %eax,%ecx
   104df:	8b 45 fc             	mov    -0x4(%rbp),%eax
   104e2:	89 c2                	mov    %eax,%edx
   104e4:	48 8d 35 f2 2f 00 00 	lea    0x2ff2(%rip),%rsi        # 134dd <g_1231+0x1485>
   104eb:	48 89 cf             	mov    %rcx,%rdi
   104ee:	e8 00 62 ff ff       	callq  66f3 <transparent_crc>
   104f3:	8b 05 1f 65 00 00    	mov    0x651f(%rip),%eax        # 16a18 <g_399+0x18>
   104f9:	c1 e0 07             	shl    $0x7,%eax
   104fc:	c1 f8 07             	sar    $0x7,%eax
   104ff:	48 98                	cltq   
   10501:	8b 55 fc             	mov    -0x4(%rbp),%edx
   10504:	48 8d 35 db 2f 00 00 	lea    0x2fdb(%rip),%rsi        # 134e6 <g_1231+0x148e>
   1050b:	48 89 c7             	mov    %rax,%rdi
   1050e:	e8 e0 61 ff ff       	callq  66f3 <transparent_crc>
   10513:	8b 05 03 65 00 00    	mov    0x6503(%rip),%eax        # 16a1c <g_436>
   10519:	48 98                	cltq   
   1051b:	8b 55 fc             	mov    -0x4(%rbp),%edx
   1051e:	48 8d 35 ca 2f 00 00 	lea    0x2fca(%rip),%rsi        # 134ef <g_1231+0x1497>
   10525:	48 89 c7             	mov    %rax,%rdi
   10528:	e8 c6 61 ff ff       	callq  66f3 <transparent_crc>
   1052d:	0f b6 05 ec 64 00 00 	movzbl 0x64ec(%rip),%eax        # 16a20 <g_492>
   10534:	48 0f be c0          	movsbq %al,%rax
   10538:	8b 55 fc             	mov    -0x4(%rbp),%edx
   1053b:	48 8d 35 b3 2f 00 00 	lea    0x2fb3(%rip),%rsi        # 134f5 <g_1231+0x149d>
   10542:	48 89 c7             	mov    %rax,%rdi
   10545:	e8 a9 61 ff ff       	callq  66f3 <transparent_crc>
   1054a:	48 8b 05 cf 64 00 00 	mov    0x64cf(%rip),%rax        # 16a20 <g_492>
   10551:	48 c1 e8 20          	shr    $0x20,%rax
   10555:	25 ff ff ff 1f       	and    $0x1fffffff,%eax
   1055a:	89 c1                	mov    %eax,%ecx
   1055c:	8b 45 fc             	mov    -0x4(%rbp),%eax
   1055f:	89 c2                	mov    %eax,%edx
   10561:	48 8d 35 96 2f 00 00 	lea    0x2f96(%rip),%rsi        # 134fe <g_1231+0x14a6>
   10568:	48 89 cf             	mov    %rcx,%rdi
   1056b:	e8 83 61 ff ff       	callq  66f3 <transparent_crc>
   10570:	48 8b 05 b1 64 00 00 	mov    0x64b1(%rip),%rax        # 16a28 <g_492+0x8>
   10577:	66 25 ff 07          	and    $0x7ff,%ax
   1057b:	0f b7 c0             	movzwl %ax,%eax
   1057e:	8b 55 fc             	mov    -0x4(%rbp),%edx
   10581:	48 8d 35 7f 2f 00 00 	lea    0x2f7f(%rip),%rsi        # 13507 <g_1231+0x14af>
   10588:	48 89 c7             	mov    %rax,%rdi
   1058b:	e8 63 61 ff ff       	callq  66f3 <transparent_crc>
   10590:	8b 05 96 64 00 00    	mov    0x6496(%rip),%eax        # 16a2c <g_492+0xc>
   10596:	48 98                	cltq   
   10598:	8b 55 fc             	mov    -0x4(%rbp),%edx
   1059b:	48 8d 35 6e 2f 00 00 	lea    0x2f6e(%rip),%rsi        # 13510 <g_1231+0x14b8>
   105a2:	48 89 c7             	mov    %rax,%rdi
   105a5:	e8 49 61 ff ff       	callq  66f3 <transparent_crc>
   105aa:	48 8b 05 7f 64 00 00 	mov    0x647f(%rip),%rax        # 16a30 <g_492+0x10>
   105b1:	c1 e0 04             	shl    $0x4,%eax
   105b4:	c1 f8 04             	sar    $0x4,%eax
   105b7:	48 98                	cltq   
   105b9:	8b 55 fc             	mov    -0x4(%rbp),%edx
   105bc:	48 8d 35 56 2f 00 00 	lea    0x2f56(%rip),%rsi        # 13519 <g_1231+0x14c1>
   105c3:	48 89 c7             	mov    %rax,%rdi
   105c6:	e8 28 61 ff ff       	callq  66f3 <transparent_crc>
   105cb:	48 8b 05 5e 64 00 00 	mov    0x645e(%rip),%rax        # 16a30 <g_492+0x10>
   105d2:	48 c1 e8 20          	shr    $0x20,%rax
   105d6:	25 ff ff ff 00       	and    $0xffffff,%eax
   105db:	89 c1                	mov    %eax,%ecx
   105dd:	8b 45 fc             	mov    -0x4(%rbp),%eax
   105e0:	89 c2                	mov    %eax,%edx
   105e2:	48 8d 35 39 2f 00 00 	lea    0x2f39(%rip),%rsi        # 13522 <g_1231+0x14ca>
   105e9:	48 89 cf             	mov    %rcx,%rdi
   105ec:	e8 02 61 ff ff       	callq  66f3 <transparent_crc>
   105f1:	48 8b 05 40 64 00 00 	mov    0x6440(%rip),%rax        # 16a38 <g_492+0x18>
   105f8:	c1 e0 07             	shl    $0x7,%eax
   105fb:	c1 f8 07             	sar    $0x7,%eax
   105fe:	48 98                	cltq   
   10600:	8b 55 fc             	mov    -0x4(%rbp),%edx
   10603:	48 8d 35 21 2f 00 00 	lea    0x2f21(%rip),%rsi        # 1352b <g_1231+0x14d3>
   1060a:	48 89 c7             	mov    %rax,%rdi
   1060d:	e8 e1 60 ff ff       	callq  66f3 <transparent_crc>
   10612:	8b 05 24 64 00 00    	mov    0x6424(%rip),%eax        # 16a3c <g_503>
   10618:	48 98                	cltq   
   1061a:	8b 55 fc             	mov    -0x4(%rbp),%edx
   1061d:	48 8d 35 10 2f 00 00 	lea    0x2f10(%rip),%rsi        # 13534 <g_1231+0x14dc>
   10624:	48 89 c7             	mov    %rax,%rdi
   10627:	e8 c7 60 ff ff       	callq  66f3 <transparent_crc>
   1062c:	48 8b 05 0d 64 00 00 	mov    0x640d(%rip),%rax        # 16a40 <g_512>
   10633:	8b 55 fc             	mov    -0x4(%rbp),%edx
   10636:	48 8d 35 fd 2e 00 00 	lea    0x2efd(%rip),%rsi        # 1353a <g_1231+0x14e2>
   1063d:	48 89 c7             	mov    %rax,%rdi
   10640:	e8 ae 60 ff ff       	callq  66f3 <transparent_crc>
   10645:	0f b6 05 fc 63 00 00 	movzbl 0x63fc(%rip),%eax        # 16a48 <g_515>
   1064c:	0f b6 c0             	movzbl %al,%eax
   1064f:	8b 55 fc             	mov    -0x4(%rbp),%edx
   10652:	48 8d 35 e7 2e 00 00 	lea    0x2ee7(%rip),%rsi        # 13540 <g_1231+0x14e8>
   10659:	48 89 c7             	mov    %rax,%rdi
   1065c:	e8 92 60 ff ff       	callq  66f3 <transparent_crc>
   10661:	8b 05 e5 63 00 00    	mov    0x63e5(%rip),%eax        # 16a4c <g_571>
   10667:	89 c1                	mov    %eax,%ecx
   10669:	8b 45 fc             	mov    -0x4(%rbp),%eax
   1066c:	89 c2                	mov    %eax,%edx
   1066e:	48 8d 35 d1 2e 00 00 	lea    0x2ed1(%rip),%rsi        # 13546 <g_1231+0x14ee>
   10675:	48 89 cf             	mov    %rcx,%rdi
   10678:	e8 76 60 ff ff       	callq  66f3 <transparent_crc>
   1067d:	0f b7 05 cc 63 00 00 	movzwl 0x63cc(%rip),%eax        # 16a50 <g_578>
   10684:	0f b7 c0             	movzwl %ax,%eax
   10687:	8b 55 fc             	mov    -0x4(%rbp),%edx
   1068a:	48 8d 35 bb 2e 00 00 	lea    0x2ebb(%rip),%rsi        # 1354c <g_1231+0x14f4>
   10691:	48 89 c7             	mov    %rax,%rdi
   10694:	e8 5a 60 ff ff       	callq  66f3 <transparent_crc>
   10699:	0f b7 05 b2 63 00 00 	movzwl 0x63b2(%rip),%eax        # 16a52 <g_587>
   106a0:	48 0f bf c0          	movswq %ax,%rax
   106a4:	8b 55 fc             	mov    -0x4(%rbp),%edx
   106a7:	48 8d 35 a4 2e 00 00 	lea    0x2ea4(%rip),%rsi        # 13552 <g_1231+0x14fa>
   106ae:	48 89 c7             	mov    %rax,%rdi
   106b1:	e8 3d 60 ff ff       	callq  66f3 <transparent_crc>
   106b6:	48 8b 05 9b 63 00 00 	mov    0x639b(%rip),%rax        # 16a58 <g_588>
   106bd:	48 89 c1             	mov    %rax,%rcx
   106c0:	8b 45 fc             	mov    -0x4(%rbp),%eax
   106c3:	89 c2                	mov    %eax,%edx
   106c5:	48 8d 35 8c 2e 00 00 	lea    0x2e8c(%rip),%rsi        # 13558 <g_1231+0x1500>
   106cc:	48 89 cf             	mov    %rcx,%rdi
   106cf:	e8 1f 60 ff ff       	callq  66f3 <transparent_crc>
   106d4:	0f b7 05 85 63 00 00 	movzwl 0x6385(%rip),%eax        # 16a60 <g_589>
   106db:	0f b7 c0             	movzwl %ax,%eax
   106de:	8b 55 fc             	mov    -0x4(%rbp),%edx
   106e1:	48 8d 35 76 2e 00 00 	lea    0x2e76(%rip),%rsi        # 1355e <g_1231+0x1506>
   106e8:	48 89 c7             	mov    %rax,%rdi
   106eb:	e8 03 60 ff ff       	callq  66f3 <transparent_crc>
   106f0:	0f b7 05 6b 63 00 00 	movzwl 0x636b(%rip),%eax        # 16a62 <g_593>
   106f7:	0f b7 c0             	movzwl %ax,%eax
   106fa:	8b 55 fc             	mov    -0x4(%rbp),%edx
   106fd:	48 8d 35 60 2e 00 00 	lea    0x2e60(%rip),%rsi        # 13564 <g_1231+0x150c>
   10704:	48 89 c7             	mov    %rax,%rdi
   10707:	e8 e7 5f ff ff       	callq  66f3 <transparent_crc>
   1070c:	8b 05 52 63 00 00    	mov    0x6352(%rip),%eax        # 16a64 <g_663>
   10712:	48 98                	cltq   
   10714:	8b 55 fc             	mov    -0x4(%rbp),%edx
   10717:	48 8d 35 4c 2e 00 00 	lea    0x2e4c(%rip),%rsi        # 1356a <g_1231+0x1512>
   1071e:	48 89 c7             	mov    %rax,%rdi
   10721:	e8 cd 5f ff ff       	callq  66f3 <transparent_crc>
   10726:	48 8b 05 3b 63 00 00 	mov    0x633b(%rip),%rax        # 16a68 <g_699>
   1072d:	8b 55 fc             	mov    -0x4(%rbp),%edx
   10730:	48 8d 35 39 2e 00 00 	lea    0x2e39(%rip),%rsi        # 13570 <g_1231+0x1518>
   10737:	48 89 c7             	mov    %rax,%rdi
   1073a:	e8 b4 5f ff ff       	callq  66f3 <transparent_crc>
   1073f:	c7 45 f0 00 00 00 00 	movl   $0x0,-0x10(%rbp)
   10746:	e9 a1 00 00 00       	jmpq   107ec <main+0x19b5>
   1074b:	c7 45 f4 00 00 00 00 	movl   $0x0,-0xc(%rbp)
   10752:	e9 87 00 00 00       	jmpq   107de <main+0x19a7>
   10757:	c7 45 f8 00 00 00 00 	movl   $0x0,-0x8(%rbp)
   1075e:	eb 74                	jmp    107d4 <main+0x199d>
   10760:	8b 45 f8             	mov    -0x8(%rbp),%eax
   10763:	48 63 c8             	movslq %eax,%rcx
   10766:	8b 45 f0             	mov    -0x10(%rbp),%eax
   10769:	48 63 d0             	movslq %eax,%rdx
   1076c:	8b 45 f4             	mov    -0xc(%rbp),%eax
   1076f:	48 63 f0             	movslq %eax,%rsi
   10772:	48 89 d0             	mov    %rdx,%rax
   10775:	48 c1 e0 03          	shl    $0x3,%rax
   10779:	48 01 d0             	add    %rdx,%rax
   1077c:	48 01 f0             	add    %rsi,%rax
   1077f:	48 c1 e0 02          	shl    $0x2,%rax
   10783:	48 01 c8             	add    %rcx,%rax
   10786:	48 8d 14 85 00 00 00 	lea    0x0(,%rax,4),%rdx
   1078d:	00 
   1078e:	48 8d 05 eb 62 00 00 	lea    0x62eb(%rip),%rax        # 16a80 <g_710>
   10795:	8b 04 02             	mov    (%rdx,%rax,1),%eax
   10798:	89 c1                	mov    %eax,%ecx
   1079a:	8b 45 fc             	mov    -0x4(%rbp),%eax
   1079d:	89 c2                	mov    %eax,%edx
   1079f:	48 8d 35 d0 2d 00 00 	lea    0x2dd0(%rip),%rsi        # 13576 <g_1231+0x151e>
   107a6:	48 89 cf             	mov    %rcx,%rdi
   107a9:	e8 45 5f ff ff       	callq  66f3 <transparent_crc>
   107ae:	83 7d fc 00          	cmpl   $0x0,-0x4(%rbp)
   107b2:	74 1c                	je     107d0 <main+0x1999>
   107b4:	8b 4d f8             	mov    -0x8(%rbp),%ecx
   107b7:	8b 55 f4             	mov    -0xc(%rbp),%edx
   107ba:	8b 45 f0             	mov    -0x10(%rbp),%eax
   107bd:	89 c6                	mov    %eax,%esi
   107bf:	48 8d 3d ad 29 00 00 	lea    0x29ad(%rip),%rdi        # 13173 <g_1231+0x111b>
   107c6:	b8 00 00 00 00       	mov    $0x0,%eax
   107cb:	e8 b0 48 ff ff       	callq  5080 <printf@plt>
   107d0:	83 45 f8 01          	addl   $0x1,-0x8(%rbp)
   107d4:	83 7d f8 03          	cmpl   $0x3,-0x8(%rbp)
   107d8:	7e 86                	jle    10760 <main+0x1929>
   107da:	83 45 f4 01          	addl   $0x1,-0xc(%rbp)
   107de:	83 7d f4 08          	cmpl   $0x8,-0xc(%rbp)
   107e2:	0f 8e 6f ff ff ff    	jle    10757 <main+0x1920>
   107e8:	83 45 f0 01          	addl   $0x1,-0x10(%rbp)
   107ec:	83 7d f0 06          	cmpl   $0x6,-0x10(%rbp)
   107f0:	0f 8e 55 ff ff ff    	jle    1074b <main+0x1914>
   107f6:	0f b6 05 73 66 00 00 	movzbl 0x6673(%rip),%eax        # 16e70 <g_724>
   107fd:	48 0f be c0          	movsbq %al,%rax
   10801:	8b 55 fc             	mov    -0x4(%rbp),%edx
   10804:	48 8d 35 7a 2d 00 00 	lea    0x2d7a(%rip),%rsi        # 13585 <g_1231+0x152d>
   1080b:	48 89 c7             	mov    %rax,%rdi
   1080e:	e8 e0 5e ff ff       	callq  66f3 <transparent_crc>
   10813:	8b 05 5b 66 00 00    	mov    0x665b(%rip),%eax        # 16e74 <g_724+0x4>
   10819:	25 ff ff ff 1f       	and    $0x1fffffff,%eax
   1081e:	89 c1                	mov    %eax,%ecx
   10820:	8b 45 fc             	mov    -0x4(%rbp),%eax
   10823:	89 c2                	mov    %eax,%edx
   10825:	48 8d 35 62 2d 00 00 	lea    0x2d62(%rip),%rsi        # 1358e <g_1231+0x1536>
   1082c:	48 89 cf             	mov    %rcx,%rdi
   1082f:	e8 bf 5e ff ff       	callq  66f3 <transparent_crc>
   10834:	0f b7 05 3d 66 00 00 	movzwl 0x663d(%rip),%eax        # 16e78 <g_724+0x8>
   1083b:	66 25 ff 07          	and    $0x7ff,%ax
   1083f:	0f b7 c0             	movzwl %ax,%eax
   10842:	8b 55 fc             	mov    -0x4(%rbp),%edx
   10845:	48 8d 35 4b 2d 00 00 	lea    0x2d4b(%rip),%rsi        # 13597 <g_1231+0x153f>
   1084c:	48 89 c7             	mov    %rax,%rdi
   1084f:	e8 9f 5e ff ff       	callq  66f3 <transparent_crc>
   10854:	8b 05 22 66 00 00    	mov    0x6622(%rip),%eax        # 16e7c <g_724+0xc>
   1085a:	48 98                	cltq   
   1085c:	8b 55 fc             	mov    -0x4(%rbp),%edx
   1085f:	48 8d 35 3a 2d 00 00 	lea    0x2d3a(%rip),%rsi        # 135a0 <g_1231+0x1548>
   10866:	48 89 c7             	mov    %rax,%rdi
   10869:	e8 85 5e ff ff       	callq  66f3 <transparent_crc>
   1086e:	8b 05 0c 66 00 00    	mov    0x660c(%rip),%eax        # 16e80 <g_724+0x10>
   10874:	c1 e0 04             	shl    $0x4,%eax
   10877:	c1 f8 04             	sar    $0x4,%eax
   1087a:	48 98                	cltq   
   1087c:	8b 55 fc             	mov    -0x4(%rbp),%edx
   1087f:	48 8d 35 23 2d 00 00 	lea    0x2d23(%rip),%rsi        # 135a9 <g_1231+0x1551>
   10886:	48 89 c7             	mov    %rax,%rdi
   10889:	e8 65 5e ff ff       	callq  66f3 <transparent_crc>
   1088e:	8b 05 f0 65 00 00    	mov    0x65f0(%rip),%eax        # 16e84 <g_724+0x14>
   10894:	25 ff ff ff 00       	and    $0xffffff,%eax
   10899:	89 c1                	mov    %eax,%ecx
   1089b:	8b 45 fc             	mov    -0x4(%rbp),%eax
   1089e:	89 c2                	mov    %eax,%edx
   108a0:	48 8d 35 0b 2d 00 00 	lea    0x2d0b(%rip),%rsi        # 135b2 <g_1231+0x155a>
   108a7:	48 89 cf             	mov    %rcx,%rdi
   108aa:	e8 44 5e ff ff       	callq  66f3 <transparent_crc>
   108af:	8b 05 d3 65 00 00    	mov    0x65d3(%rip),%eax        # 16e88 <g_724+0x18>
   108b5:	c1 e0 07             	shl    $0x7,%eax
   108b8:	c1 f8 07             	sar    $0x7,%eax
   108bb:	48 98                	cltq   
   108bd:	8b 55 fc             	mov    -0x4(%rbp),%edx
   108c0:	48 8d 35 f4 2c 00 00 	lea    0x2cf4(%rip),%rsi        # 135bb <g_1231+0x1563>
   108c7:	48 89 c7             	mov    %rax,%rdi
   108ca:	e8 24 5e ff ff       	callq  66f3 <transparent_crc>
   108cf:	0f b6 05 b6 65 00 00 	movzbl 0x65b6(%rip),%eax        # 16e8c <g_772>
   108d6:	0f b6 c0             	movzbl %al,%eax
   108d9:	8b 55 fc             	mov    -0x4(%rbp),%edx
   108dc:	48 8d 35 e1 2c 00 00 	lea    0x2ce1(%rip),%rsi        # 135c4 <g_1231+0x156c>
   108e3:	48 89 c7             	mov    %rax,%rdi
   108e6:	e8 08 5e ff ff       	callq  66f3 <transparent_crc>
   108eb:	8b 05 9f 65 00 00    	mov    0x659f(%rip),%eax        # 16e90 <g_870>
   108f1:	48 98                	cltq   
   108f3:	8b 55 fc             	mov    -0x4(%rbp),%edx
   108f6:	48 8d 35 cd 2c 00 00 	lea    0x2ccd(%rip),%rsi        # 135ca <g_1231+0x1572>
   108fd:	48 89 c7             	mov    %rax,%rdi
   10900:	e8 ee 5d ff ff       	callq  66f3 <transparent_crc>
   10905:	0f b7 05 88 65 00 00 	movzwl 0x6588(%rip),%eax        # 16e94 <g_872>
   1090c:	48 0f bf c0          	movswq %ax,%rax
   10910:	8b 55 fc             	mov    -0x4(%rbp),%edx
   10913:	48 8d 35 b6 2c 00 00 	lea    0x2cb6(%rip),%rsi        # 135d0 <g_1231+0x1578>
   1091a:	48 89 c7             	mov    %rax,%rdi
   1091d:	e8 d1 5d ff ff       	callq  66f3 <transparent_crc>
   10922:	c7 45 f0 00 00 00 00 	movl   $0x0,-0x10(%rbp)
   10929:	eb 6b                	jmp    10996 <main+0x1b5f>
   1092b:	c7 45 f4 00 00 00 00 	movl   $0x0,-0xc(%rbp)
   10932:	eb 58                	jmp    1098c <main+0x1b55>
   10934:	8b 45 f4             	mov    -0xc(%rbp),%eax
   10937:	48 98                	cltq   
   10939:	8b 55 f0             	mov    -0x10(%rbp),%edx
   1093c:	48 63 d2             	movslq %edx,%rdx
   1093f:	48 01 d2             	add    %rdx,%rdx
   10942:	48 01 d0             	add    %rdx,%rax
   10945:	48 8d 14 00          	lea    (%rax,%rax,1),%rdx
   10949:	48 8d 05 50 65 00 00 	lea    0x6550(%rip),%rax        # 16ea0 <g_874>
   10950:	0f b7 04 02          	movzwl (%rdx,%rax,1),%eax
   10954:	0f b7 c0             	movzwl %ax,%eax
   10957:	8b 55 fc             	mov    -0x4(%rbp),%edx
   1095a:	48 8d 35 75 2c 00 00 	lea    0x2c75(%rip),%rsi        # 135d6 <g_1231+0x157e>
   10961:	48 89 c7             	mov    %rax,%rdi
   10964:	e8 8a 5d ff ff       	callq  66f3 <transparent_crc>
   10969:	83 7d fc 00          	cmpl   $0x0,-0x4(%rbp)
   1096d:	74 19                	je     10988 <main+0x1b51>
   1096f:	8b 55 f4             	mov    -0xc(%rbp),%edx
   10972:	8b 45 f0             	mov    -0x10(%rbp),%eax
   10975:	89 c6                	mov    %eax,%esi
   10977:	48 8d 3d 65 28 00 00 	lea    0x2865(%rip),%rdi        # 131e3 <g_1231+0x118b>
   1097e:	b8 00 00 00 00       	mov    $0x0,%eax
   10983:	e8 f8 46 ff ff       	callq  5080 <printf@plt>
   10988:	83 45 f4 01          	addl   $0x1,-0xc(%rbp)
   1098c:	83 7d f4 01          	cmpl   $0x1,-0xc(%rbp)
   10990:	7e a2                	jle    10934 <main+0x1afd>
   10992:	83 45 f0 01          	addl   $0x1,-0x10(%rbp)
   10996:	83 7d f0 06          	cmpl   $0x6,-0x10(%rbp)
   1099a:	7e 8f                	jle    1092b <main+0x1af4>
   1099c:	8b 05 1a 65 00 00    	mov    0x651a(%rip),%eax        # 16ebc <g_877>
   109a2:	89 c1                	mov    %eax,%ecx
   109a4:	8b 45 fc             	mov    -0x4(%rbp),%eax
   109a7:	89 c2                	mov    %eax,%edx
   109a9:	48 8d 35 32 2c 00 00 	lea    0x2c32(%rip),%rsi        # 135e2 <g_1231+0x158a>
   109b0:	48 89 cf             	mov    %rcx,%rdi
   109b3:	e8 3b 5d ff ff       	callq  66f3 <transparent_crc>
   109b8:	8b 05 fe 64 00 00    	mov    0x64fe(%rip),%eax        # 16ebc <g_877>
   109be:	89 c1                	mov    %eax,%ecx
   109c0:	8b 45 fc             	mov    -0x4(%rbp),%eax
   109c3:	89 c2                	mov    %eax,%edx
   109c5:	48 8d 35 1f 2c 00 00 	lea    0x2c1f(%rip),%rsi        # 135eb <g_1231+0x1593>
   109cc:	48 89 cf             	mov    %rcx,%rdi
   109cf:	e8 1f 5d ff ff       	callq  66f3 <transparent_crc>
   109d4:	48 8b 05 e5 64 00 00 	mov    0x64e5(%rip),%rax        # 16ec0 <g_970>
   109db:	48 89 c1             	mov    %rax,%rcx
   109de:	8b 45 fc             	mov    -0x4(%rbp),%eax
   109e1:	89 c2                	mov    %eax,%edx
   109e3:	48 8d 35 0a 2c 00 00 	lea    0x2c0a(%rip),%rsi        # 135f4 <g_1231+0x159c>
   109ea:	48 89 cf             	mov    %rcx,%rdi
   109ed:	e8 01 5d ff ff       	callq  66f3 <transparent_crc>
   109f2:	c7 45 f0 00 00 00 00 	movl   $0x0,-0x10(%rbp)
   109f9:	e9 9a 00 00 00       	jmpq   10a98 <main+0x1c61>
   109fe:	c7 45 f4 00 00 00 00 	movl   $0x0,-0xc(%rbp)
   10a05:	e9 80 00 00 00       	jmpq   10a8a <main+0x1c53>
   10a0a:	c7 45 f8 00 00 00 00 	movl   $0x0,-0x8(%rbp)
   10a11:	eb 6d                	jmp    10a80 <main+0x1c49>
   10a13:	8b 45 f8             	mov    -0x8(%rbp),%eax
   10a16:	48 63 c8             	movslq %eax,%rcx
   10a19:	8b 45 f0             	mov    -0x10(%rbp),%eax
   10a1c:	48 63 d0             	movslq %eax,%rdx
   10a1f:	8b 45 f4             	mov    -0xc(%rbp),%eax
   10a22:	48 98                	cltq   
   10a24:	48 01 c2             	add    %rax,%rdx
   10a27:	48 89 d0             	mov    %rdx,%rax
   10a2a:	48 c1 e0 02          	shl    $0x2,%rax
   10a2e:	48 01 d0             	add    %rdx,%rax
   10a31:	48 01 c0             	add    %rax,%rax
   10a34:	48 8d 14 08          	lea    (%rax,%rcx,1),%rdx
   10a38:	48 8d 05 a1 64 00 00 	lea    0x64a1(%rip),%rax        # 16ee0 <g_1080>
   10a3f:	48 01 d0             	add    %rdx,%rax
   10a42:	0f b6 00             	movzbl (%rax),%eax
   10a45:	0f b6 c0             	movzbl %al,%eax
   10a48:	8b 55 fc             	mov    -0x4(%rbp),%edx
   10a4b:	48 8d 35 a8 2b 00 00 	lea    0x2ba8(%rip),%rsi        # 135fa <g_1231+0x15a2>
   10a52:	48 89 c7             	mov    %rax,%rdi
   10a55:	e8 99 5c ff ff       	callq  66f3 <transparent_crc>
   10a5a:	83 7d fc 00          	cmpl   $0x0,-0x4(%rbp)
   10a5e:	74 1c                	je     10a7c <main+0x1c45>
   10a60:	8b 4d f8             	mov    -0x8(%rbp),%ecx
   10a63:	8b 55 f4             	mov    -0xc(%rbp),%edx
   10a66:	8b 45 f0             	mov    -0x10(%rbp),%eax
   10a69:	89 c6                	mov    %eax,%esi
   10a6b:	48 8d 3d 01 27 00 00 	lea    0x2701(%rip),%rdi        # 13173 <g_1231+0x111b>
   10a72:	b8 00 00 00 00       	mov    $0x0,%eax
   10a77:	e8 04 46 ff ff       	callq  5080 <printf@plt>
   10a7c:	83 45 f8 01          	addl   $0x1,-0x8(%rbp)
   10a80:	83 7d f8 09          	cmpl   $0x9,-0x8(%rbp)
   10a84:	7e 8d                	jle    10a13 <main+0x1bdc>
   10a86:	83 45 f4 01          	addl   $0x1,-0xc(%rbp)
   10a8a:	83 7d f4 00          	cmpl   $0x0,-0xc(%rbp)
   10a8e:	0f 8e 76 ff ff ff    	jle    10a0a <main+0x1bd3>
   10a94:	83 45 f0 01          	addl   $0x1,-0x10(%rbp)
   10a98:	83 7d f0 06          	cmpl   $0x6,-0x10(%rbp)
   10a9c:	0f 8e 5c ff ff ff    	jle    109fe <main+0x1bc7>
   10aa2:	0f b7 05 7d 64 00 00 	movzwl 0x647d(%rip),%eax        # 16f26 <g_1117>
   10aa9:	0f b7 c0             	movzwl %ax,%eax
   10aac:	8b 55 fc             	mov    -0x4(%rbp),%edx
   10aaf:	48 8d 35 54 2b 00 00 	lea    0x2b54(%rip),%rsi        # 1360a <g_1231+0x15b2>
   10ab6:	48 89 c7             	mov    %rax,%rdi
   10ab9:	e8 35 5c ff ff       	callq  66f3 <transparent_crc>
   10abe:	c7 45 f0 00 00 00 00 	movl   $0x0,-0x10(%rbp)
   10ac5:	e9 19 03 00 00       	jmpq   10de3 <main+0x1fac>
   10aca:	c7 45 f4 00 00 00 00 	movl   $0x0,-0xc(%rbp)
   10ad1:	e9 ff 02 00 00       	jmpq   10dd5 <main+0x1f9e>
   10ad6:	c7 45 f8 00 00 00 00 	movl   $0x0,-0x8(%rbp)
   10add:	e9 e5 02 00 00       	jmpq   10dc7 <main+0x1f90>
   10ae2:	8b 45 f8             	mov    -0x8(%rbp),%eax
   10ae5:	48 98                	cltq   
   10ae7:	8b 55 f4             	mov    -0xc(%rbp),%edx
   10aea:	48 63 ca             	movslq %edx,%rcx
   10aed:	8b 55 f0             	mov    -0x10(%rbp),%edx
   10af0:	48 63 f2             	movslq %edx,%rsi
   10af3:	48 89 c2             	mov    %rax,%rdx
   10af6:	48 c1 e2 03          	shl    $0x3,%rdx
   10afa:	48 29 c2             	sub    %rax,%rdx
   10afd:	48 8d 04 95 00 00 00 	lea    0x0(,%rdx,4),%rax
   10b04:	00 
   10b05:	48 89 c2             	mov    %rax,%rdx
   10b08:	48 89 c8             	mov    %rcx,%rax
   10b0b:	48 c1 e0 03          	shl    $0x3,%rax
   10b0f:	48 29 c8             	sub    %rcx,%rax
   10b12:	48 c1 e0 05          	shl    $0x5,%rax
   10b16:	48 01 c2             	add    %rax,%rdx
   10b19:	48 69 c6 c0 08 00 00 	imul   $0x8c0,%rsi,%rax
   10b20:	48 01 c2             	add    %rax,%rdx
   10b23:	48 8d 05 16 64 00 00 	lea    0x6416(%rip),%rax        # 16f40 <g_1147>
   10b2a:	48 01 d0             	add    %rdx,%rax
   10b2d:	0f b6 00             	movzbl (%rax),%eax
   10b30:	48 0f be c0          	movsbq %al,%rax
   10b34:	8b 55 fc             	mov    -0x4(%rbp),%edx
   10b37:	48 8d 35 d3 2a 00 00 	lea    0x2ad3(%rip),%rsi        # 13611 <g_1231+0x15b9>
   10b3e:	48 89 c7             	mov    %rax,%rdi
   10b41:	e8 ad 5b ff ff       	callq  66f3 <transparent_crc>
   10b46:	8b 45 f8             	mov    -0x8(%rbp),%eax
   10b49:	48 98                	cltq   
   10b4b:	8b 55 f4             	mov    -0xc(%rbp),%edx
   10b4e:	48 63 ca             	movslq %edx,%rcx
   10b51:	8b 55 f0             	mov    -0x10(%rbp),%edx
   10b54:	48 63 f2             	movslq %edx,%rsi
   10b57:	48 89 c2             	mov    %rax,%rdx
   10b5a:	48 c1 e2 03          	shl    $0x3,%rdx
   10b5e:	48 29 c2             	sub    %rax,%rdx
   10b61:	48 8d 04 95 00 00 00 	lea    0x0(,%rdx,4),%rax
   10b68:	00 
   10b69:	48 89 c2             	mov    %rax,%rdx
   10b6c:	48 89 c8             	mov    %rcx,%rax
   10b6f:	48 c1 e0 03          	shl    $0x3,%rax
   10b73:	48 29 c8             	sub    %rcx,%rax
   10b76:	48 c1 e0 05          	shl    $0x5,%rax
   10b7a:	48 01 c2             	add    %rax,%rdx
   10b7d:	48 69 c6 c0 08 00 00 	imul   $0x8c0,%rsi,%rax
   10b84:	48 01 c2             	add    %rax,%rdx
   10b87:	48 8d 05 b2 63 00 00 	lea    0x63b2(%rip),%rax        # 16f40 <g_1147>
   10b8e:	48 01 d0             	add    %rdx,%rax
   10b91:	8b 40 04             	mov    0x4(%rax),%eax
   10b94:	25 ff ff ff 1f       	and    $0x1fffffff,%eax
   10b99:	89 c1                	mov    %eax,%ecx
   10b9b:	8b 45 fc             	mov    -0x4(%rbp),%eax
   10b9e:	89 c2                	mov    %eax,%edx
   10ba0:	48 8d 35 7d 2a 00 00 	lea    0x2a7d(%rip),%rsi        # 13624 <g_1231+0x15cc>
   10ba7:	48 89 cf             	mov    %rcx,%rdi
   10baa:	e8 44 5b ff ff       	callq  66f3 <transparent_crc>
   10baf:	8b 45 f8             	mov    -0x8(%rbp),%eax
   10bb2:	48 98                	cltq   
   10bb4:	8b 55 f4             	mov    -0xc(%rbp),%edx
   10bb7:	48 63 ca             	movslq %edx,%rcx
   10bba:	8b 55 f0             	mov    -0x10(%rbp),%edx
   10bbd:	48 63 f2             	movslq %edx,%rsi
   10bc0:	48 89 c2             	mov    %rax,%rdx
   10bc3:	48 c1 e2 03          	shl    $0x3,%rdx
   10bc7:	48 29 c2             	sub    %rax,%rdx
   10bca:	48 8d 04 95 00 00 00 	lea    0x0(,%rdx,4),%rax
   10bd1:	00 
   10bd2:	48 89 c2             	mov    %rax,%rdx
   10bd5:	48 89 c8             	mov    %rcx,%rax
   10bd8:	48 c1 e0 03          	shl    $0x3,%rax
   10bdc:	48 29 c8             	sub    %rcx,%rax
   10bdf:	48 c1 e0 05          	shl    $0x5,%rax
   10be3:	48 01 c2             	add    %rax,%rdx
   10be6:	48 69 c6 c0 08 00 00 	imul   $0x8c0,%rsi,%rax
   10bed:	48 01 c2             	add    %rax,%rdx
   10bf0:	48 8d 05 49 63 00 00 	lea    0x6349(%rip),%rax        # 16f40 <g_1147>
   10bf7:	48 01 d0             	add    %rdx,%rax
   10bfa:	0f b7 40 08          	movzwl 0x8(%rax),%eax
   10bfe:	66 25 ff 07          	and    $0x7ff,%ax
   10c02:	0f b7 c0             	movzwl %ax,%eax
   10c05:	8b 55 fc             	mov    -0x4(%rbp),%edx
   10c08:	48 8d 35 28 2a 00 00 	lea    0x2a28(%rip),%rsi        # 13637 <g_1231+0x15df>
   10c0f:	48 89 c7             	mov    %rax,%rdi
   10c12:	e8 dc 5a ff ff       	callq  66f3 <transparent_crc>
   10c17:	8b 45 f8             	mov    -0x8(%rbp),%eax
   10c1a:	48 98                	cltq   
   10c1c:	8b 55 f4             	mov    -0xc(%rbp),%edx
   10c1f:	48 63 ca             	movslq %edx,%rcx
   10c22:	8b 55 f0             	mov    -0x10(%rbp),%edx
   10c25:	48 63 f2             	movslq %edx,%rsi
   10c28:	48 89 c2             	mov    %rax,%rdx
   10c2b:	48 c1 e2 03          	shl    $0x3,%rdx
   10c2f:	48 29 c2             	sub    %rax,%rdx
   10c32:	48 8d 04 95 00 00 00 	lea    0x0(,%rdx,4),%rax
   10c39:	00 
   10c3a:	48 89 c2             	mov    %rax,%rdx
   10c3d:	48 89 c8             	mov    %rcx,%rax
   10c40:	48 c1 e0 03          	shl    $0x3,%rax
   10c44:	48 29 c8             	sub    %rcx,%rax
   10c47:	48 c1 e0 05          	shl    $0x5,%rax
   10c4b:	48 01 c2             	add    %rax,%rdx
   10c4e:	48 69 c6 c0 08 00 00 	imul   $0x8c0,%rsi,%rax
   10c55:	48 01 c2             	add    %rax,%rdx
   10c58:	48 8d 05 ed 62 00 00 	lea    0x62ed(%rip),%rax        # 16f4c <g_1147+0xc>
   10c5f:	48 01 d0             	add    %rdx,%rax
   10c62:	8b 00                	mov    (%rax),%eax
   10c64:	48 98                	cltq   
   10c66:	8b 55 fc             	mov    -0x4(%rbp),%edx
   10c69:	48 8d 35 da 29 00 00 	lea    0x29da(%rip),%rsi        # 1364a <g_1231+0x15f2>
   10c70:	48 89 c7             	mov    %rax,%rdi
   10c73:	e8 7b 5a ff ff       	callq  66f3 <transparent_crc>
   10c78:	8b 45 f8             	mov    -0x8(%rbp),%eax
   10c7b:	48 63 c8             	movslq %eax,%rcx
   10c7e:	8b 45 f4             	mov    -0xc(%rbp),%eax
   10c81:	48 63 d0             	movslq %eax,%rdx
   10c84:	8b 45 f0             	mov    -0x10(%rbp),%eax
   10c87:	48 63 f0             	movslq %eax,%rsi
   10c8a:	48 89 c8             	mov    %rcx,%rax
   10c8d:	48 c1 e0 03          	shl    $0x3,%rax
   10c91:	48 29 c8             	sub    %rcx,%rax
   10c94:	48 c1 e0 02          	shl    $0x2,%rax
   10c98:	48 69 ce c0 08 00 00 	imul   $0x8c0,%rsi,%rcx
   10c9f:	48 01 c1             	add    %rax,%rcx
   10ca2:	48 89 d0             	mov    %rdx,%rax
   10ca5:	48 c1 e0 03          	shl    $0x3,%rax
   10ca9:	48 29 d0             	sub    %rdx,%rax
   10cac:	48 c1 e0 05          	shl    $0x5,%rax
   10cb0:	48 8d 14 01          	lea    (%rcx,%rax,1),%rdx
   10cb4:	48 8d 05 95 62 00 00 	lea    0x6295(%rip),%rax        # 16f50 <g_1147+0x10>
   10cbb:	48 01 d0             	add    %rdx,%rax
   10cbe:	8b 00                	mov    (%rax),%eax
   10cc0:	c1 e0 04             	shl    $0x4,%eax
   10cc3:	c1 f8 04             	sar    $0x4,%eax
   10cc6:	48 98                	cltq   
   10cc8:	8b 55 fc             	mov    -0x4(%rbp),%edx
   10ccb:	48 8d 35 8b 29 00 00 	lea    0x298b(%rip),%rsi        # 1365d <g_1231+0x1605>
   10cd2:	48 89 c7             	mov    %rax,%rdi
   10cd5:	e8 19 5a ff ff       	callq  66f3 <transparent_crc>
   10cda:	8b 45 f8             	mov    -0x8(%rbp),%eax
   10cdd:	48 63 c8             	movslq %eax,%rcx
   10ce0:	8b 45 f4             	mov    -0xc(%rbp),%eax
   10ce3:	48 63 d0             	movslq %eax,%rdx
   10ce6:	8b 45 f0             	mov    -0x10(%rbp),%eax
   10ce9:	48 63 f0             	movslq %eax,%rsi
   10cec:	48 89 c8             	mov    %rcx,%rax
   10cef:	48 c1 e0 03          	shl    $0x3,%rax
   10cf3:	48 29 c8             	sub    %rcx,%rax
   10cf6:	48 c1 e0 02          	shl    $0x2,%rax
   10cfa:	48 69 ce c0 08 00 00 	imul   $0x8c0,%rsi,%rcx
   10d01:	48 01 c1             	add    %rax,%rcx
   10d04:	48 89 d0             	mov    %rdx,%rax
   10d07:	48 c1 e0 03          	shl    $0x3,%rax
   10d0b:	48 29 d0             	sub    %rdx,%rax
   10d0e:	48 c1 e0 05          	shl    $0x5,%rax
   10d12:	48 8d 14 01          	lea    (%rcx,%rax,1),%rdx
   10d16:	48 8d 05 33 62 00 00 	lea    0x6233(%rip),%rax        # 16f50 <g_1147+0x10>
   10d1d:	48 01 d0             	add    %rdx,%rax
   10d20:	8b 40 04             	mov    0x4(%rax),%eax
   10d23:	25 ff ff ff 00       	and    $0xffffff,%eax
   10d28:	89 c1                	mov    %eax,%ecx
   10d2a:	8b 45 fc             	mov    -0x4(%rbp),%eax
   10d2d:	89 c2                	mov    %eax,%edx
   10d2f:	48 8d 35 3a 29 00 00 	lea    0x293a(%rip),%rsi        # 13670 <g_1231+0x1618>
   10d36:	48 89 cf             	mov    %rcx,%rdi
   10d39:	e8 b5 59 ff ff       	callq  66f3 <transparent_crc>
   10d3e:	8b 45 f8             	mov    -0x8(%rbp),%eax
   10d41:	48 63 c8             	movslq %eax,%rcx
   10d44:	8b 45 f4             	mov    -0xc(%rbp),%eax
   10d47:	48 63 d0             	movslq %eax,%rdx
   10d4a:	8b 45 f0             	mov    -0x10(%rbp),%eax
   10d4d:	48 63 f0             	movslq %eax,%rsi
   10d50:	48 89 c8             	mov    %rcx,%rax
   10d53:	48 c1 e0 03          	shl    $0x3,%rax
   10d57:	48 29 c8             	sub    %rcx,%rax
   10d5a:	48 c1 e0 02          	shl    $0x2,%rax
   10d5e:	48 69 ce c0 08 00 00 	imul   $0x8c0,%rsi,%rcx
   10d65:	48 01 c1             	add    %rax,%rcx
   10d68:	48 89 d0             	mov    %rdx,%rax
   10d6b:	48 c1 e0 03          	shl    $0x3,%rax
   10d6f:	48 29 d0             	sub    %rdx,%rax
   10d72:	48 c1 e0 05          	shl    $0x5,%rax
   10d76:	48 8d 14 01          	lea    (%rcx,%rax,1),%rdx
   10d7a:	48 8d 05 cf 61 00 00 	lea    0x61cf(%rip),%rax        # 16f50 <g_1147+0x10>
   10d81:	48 01 d0             	add    %rdx,%rax
   10d84:	8b 40 08             	mov    0x8(%rax),%eax
   10d87:	c1 e0 07             	shl    $0x7,%eax
   10d8a:	c1 f8 07             	sar    $0x7,%eax
   10d8d:	48 98                	cltq   
   10d8f:	8b 55 fc             	mov    -0x4(%rbp),%edx
   10d92:	48 8d 35 ea 28 00 00 	lea    0x28ea(%rip),%rsi        # 13683 <g_1231+0x162b>
   10d99:	48 89 c7             	mov    %rax,%rdi
   10d9c:	e8 52 59 ff ff       	callq  66f3 <transparent_crc>
   10da1:	83 7d fc 00          	cmpl   $0x0,-0x4(%rbp)
   10da5:	74 1c                	je     10dc3 <main+0x1f8c>
   10da7:	8b 4d f8             	mov    -0x8(%rbp),%ecx
   10daa:	8b 55 f4             	mov    -0xc(%rbp),%edx
   10dad:	8b 45 f0             	mov    -0x10(%rbp),%eax
   10db0:	89 c6                	mov    %eax,%esi
   10db2:	48 8d 3d ba 23 00 00 	lea    0x23ba(%rip),%rdi        # 13173 <g_1231+0x111b>
   10db9:	b8 00 00 00 00       	mov    $0x0,%eax
   10dbe:	e8 bd 42 ff ff       	callq  5080 <printf@plt>
   10dc3:	83 45 f8 01          	addl   $0x1,-0x8(%rbp)
   10dc7:	83 7d f8 07          	cmpl   $0x7,-0x8(%rbp)
   10dcb:	0f 8e 11 fd ff ff    	jle    10ae2 <main+0x1cab>
   10dd1:	83 45 f4 01          	addl   $0x1,-0xc(%rbp)
   10dd5:	83 7d f4 09          	cmpl   $0x9,-0xc(%rbp)
   10dd9:	0f 8e f7 fc ff ff    	jle    10ad6 <main+0x1c9f>
   10ddf:	83 45 f0 01          	addl   $0x1,-0x10(%rbp)
   10de3:	83 7d f0 02          	cmpl   $0x2,-0x10(%rbp)
   10de7:	0f 8e dd fc ff ff    	jle    10aca <main+0x1c93>
   10ded:	0f b6 05 8c 7b 00 00 	movzbl 0x7b8c(%rip),%eax        # 18980 <g_1226>
   10df4:	48 0f be c0          	movsbq %al,%rax
   10df8:	8b 55 fc             	mov    -0x4(%rbp),%edx
   10dfb:	48 8d 35 94 28 00 00 	lea    0x2894(%rip),%rsi        # 13696 <g_1231+0x163e>
   10e02:	48 89 c7             	mov    %rax,%rdi
   10e05:	e8 e9 58 ff ff       	callq  66f3 <transparent_crc>
   10e0a:	8b 05 74 7b 00 00    	mov    0x7b74(%rip),%eax        # 18984 <g_1226+0x4>
   10e10:	25 ff ff ff 1f       	and    $0x1fffffff,%eax
   10e15:	89 c1                	mov    %eax,%ecx
   10e17:	8b 45 fc             	mov    -0x4(%rbp),%eax
   10e1a:	89 c2                	mov    %eax,%edx
   10e1c:	48 8d 35 7d 28 00 00 	lea    0x287d(%rip),%rsi        # 136a0 <g_1231+0x1648>
   10e23:	48 89 cf             	mov    %rcx,%rdi
   10e26:	e8 c8 58 ff ff       	callq  66f3 <transparent_crc>
   10e2b:	0f b7 05 56 7b 00 00 	movzwl 0x7b56(%rip),%eax        # 18988 <g_1226+0x8>
   10e32:	66 25 ff 07          	and    $0x7ff,%ax
   10e36:	0f b7 c0             	movzwl %ax,%eax
   10e39:	8b 55 fc             	mov    -0x4(%rbp),%edx
   10e3c:	48 8d 35 67 28 00 00 	lea    0x2867(%rip),%rsi        # 136aa <g_1231+0x1652>
   10e43:	48 89 c7             	mov    %rax,%rdi
   10e46:	e8 a8 58 ff ff       	callq  66f3 <transparent_crc>
   10e4b:	8b 05 3b 7b 00 00    	mov    0x7b3b(%rip),%eax        # 1898c <g_1226+0xc>
   10e51:	48 98                	cltq   
   10e53:	8b 55 fc             	mov    -0x4(%rbp),%edx
   10e56:	48 8d 35 57 28 00 00 	lea    0x2857(%rip),%rsi        # 136b4 <g_1231+0x165c>
   10e5d:	48 89 c7             	mov    %rax,%rdi
   10e60:	e8 8e 58 ff ff       	callq  66f3 <transparent_crc>
   10e65:	8b 05 25 7b 00 00    	mov    0x7b25(%rip),%eax        # 18990 <g_1226+0x10>
   10e6b:	c1 e0 04             	shl    $0x4,%eax
   10e6e:	c1 f8 04             	sar    $0x4,%eax
   10e71:	48 98                	cltq   
   10e73:	8b 55 fc             	mov    -0x4(%rbp),%edx
   10e76:	48 8d 35 41 28 00 00 	lea    0x2841(%rip),%rsi        # 136be <g_1231+0x1666>
   10e7d:	48 89 c7             	mov    %rax,%rdi
   10e80:	e8 6e 58 ff ff       	callq  66f3 <transparent_crc>
   10e85:	8b 05 09 7b 00 00    	mov    0x7b09(%rip),%eax        # 18994 <g_1226+0x14>
   10e8b:	25 ff ff ff 00       	and    $0xffffff,%eax
   10e90:	89 c1                	mov    %eax,%ecx
   10e92:	8b 45 fc             	mov    -0x4(%rbp),%eax
   10e95:	89 c2                	mov    %eax,%edx
   10e97:	48 8d 35 2a 28 00 00 	lea    0x282a(%rip),%rsi        # 136c8 <g_1231+0x1670>
   10e9e:	48 89 cf             	mov    %rcx,%rdi
   10ea1:	e8 4d 58 ff ff       	callq  66f3 <transparent_crc>
   10ea6:	8b 05 ec 7a 00 00    	mov    0x7aec(%rip),%eax        # 18998 <g_1226+0x18>
   10eac:	c1 e0 07             	shl    $0x7,%eax
   10eaf:	c1 f8 07             	sar    $0x7,%eax
   10eb2:	48 98                	cltq   
   10eb4:	8b 55 fc             	mov    -0x4(%rbp),%edx
   10eb7:	48 8d 35 14 28 00 00 	lea    0x2814(%rip),%rsi        # 136d2 <g_1231+0x167a>
   10ebe:	48 89 c7             	mov    %rax,%rdi
   10ec1:	e8 2d 58 ff ff       	callq  66f3 <transparent_crc>
   10ec6:	b8 02 00 00 00       	mov    $0x2,%eax
   10ecb:	89 c1                	mov    %eax,%ecx
   10ecd:	8b 45 fc             	mov    -0x4(%rbp),%eax
   10ed0:	89 c2                	mov    %eax,%edx
   10ed2:	48 8d 35 03 28 00 00 	lea    0x2803(%rip),%rsi        # 136dc <g_1231+0x1684>
   10ed9:	48 89 cf             	mov    %rcx,%rdi
   10edc:	e8 12 58 ff ff       	callq  66f3 <transparent_crc>
   10ee1:	b8 00 00 00 00       	mov    $0x0,%eax
   10ee6:	89 c1                	mov    %eax,%ecx
   10ee8:	8b 45 fc             	mov    -0x4(%rbp),%eax
   10eeb:	89 c2                	mov    %eax,%edx
   10eed:	48 8d 35 ef 27 00 00 	lea    0x27ef(%rip),%rsi        # 136e3 <g_1231+0x168b>
   10ef4:	48 89 cf             	mov    %rcx,%rdi
   10ef7:	e8 f7 57 ff ff       	callq  66f3 <transparent_crc>
   10efc:	0f b7 05 99 7a 00 00 	movzwl 0x7a99(%rip),%eax        # 1899c <g_1269>
   10f03:	48 0f bf c0          	movswq %ax,%rax
   10f07:	8b 55 fc             	mov    -0x4(%rbp),%edx
   10f0a:	48 8d 35 d9 27 00 00 	lea    0x27d9(%rip),%rsi        # 136ea <g_1231+0x1692>
   10f11:	48 89 c7             	mov    %rax,%rdi
   10f14:	e8 da 57 ff ff       	callq  66f3 <transparent_crc>
   10f19:	0f b6 05 f8 98 00 00 	movzbl 0x98f8(%rip),%eax        # 1a818 <g_1314>
   10f20:	0f b6 c0             	movzbl %al,%eax
   10f23:	8b 55 fc             	mov    -0x4(%rbp),%edx
   10f26:	48 8d 35 c4 27 00 00 	lea    0x27c4(%rip),%rsi        # 136f1 <g_1231+0x1699>
   10f2d:	48 89 c7             	mov    %rax,%rdi
   10f30:	e8 be 57 ff ff       	callq  66f3 <transparent_crc>
   10f35:	c7 45 f0 00 00 00 00 	movl   $0x0,-0x10(%rbp)
   10f3c:	e9 0e 01 00 00       	jmpq   1104f <main+0x2218>
   10f41:	c7 45 f4 00 00 00 00 	movl   $0x0,-0xc(%rbp)
   10f48:	e9 f4 00 00 00       	jmpq   11041 <main+0x220a>
   10f4d:	c7 45 f8 00 00 00 00 	movl   $0x0,-0x8(%rbp)
   10f54:	e9 da 00 00 00       	jmpq   11033 <main+0x21fc>
   10f59:	8b 45 f8             	mov    -0x8(%rbp),%eax
   10f5c:	48 63 f0             	movslq %eax,%rsi
   10f5f:	8b 45 f0             	mov    -0x10(%rbp),%eax
   10f62:	48 63 d0             	movslq %eax,%rdx
   10f65:	8b 45 f4             	mov    -0xc(%rbp),%eax
   10f68:	48 63 c8             	movslq %eax,%rcx
   10f6b:	48 89 d0             	mov    %rdx,%rax
   10f6e:	48 c1 e0 02          	shl    $0x2,%rax
   10f72:	48 01 d0             	add    %rdx,%rax
   10f75:	48 c1 e0 02          	shl    $0x2,%rax
   10f79:	48 01 d0             	add    %rdx,%rax
   10f7c:	48 89 ca             	mov    %rcx,%rdx
   10f7f:	48 01 d2             	add    %rdx,%rdx
   10f82:	48 01 ca             	add    %rcx,%rdx
   10f85:	48 01 d0             	add    %rdx,%rax
   10f88:	48 01 f0             	add    %rsi,%rax
   10f8b:	48 8d 14 85 00 00 00 	lea    0x0(,%rax,4),%rdx
   10f92:	00 
   10f93:	48 8d 05 06 7a 00 00 	lea    0x7a06(%rip),%rax        # 189a0 <g_1317>
   10f9a:	8b 04 02             	mov    (%rdx,%rax,1),%eax
   10f9d:	89 c1                	mov    %eax,%ecx
   10f9f:	8b 45 fc             	mov    -0x4(%rbp),%eax
   10fa2:	89 c2                	mov    %eax,%edx
   10fa4:	48 8d 35 4d 27 00 00 	lea    0x274d(%rip),%rsi        # 136f8 <g_1231+0x16a0>
   10fab:	48 89 cf             	mov    %rcx,%rdi
   10fae:	e8 40 57 ff ff       	callq  66f3 <transparent_crc>
   10fb3:	8b 45 f8             	mov    -0x8(%rbp),%eax
   10fb6:	48 63 f0             	movslq %eax,%rsi
   10fb9:	8b 45 f0             	mov    -0x10(%rbp),%eax
   10fbc:	48 63 d0             	movslq %eax,%rdx
   10fbf:	8b 45 f4             	mov    -0xc(%rbp),%eax
   10fc2:	48 63 c8             	movslq %eax,%rcx
   10fc5:	48 89 d0             	mov    %rdx,%rax
   10fc8:	48 c1 e0 02          	shl    $0x2,%rax
   10fcc:	48 01 d0             	add    %rdx,%rax
   10fcf:	48 c1 e0 02          	shl    $0x2,%rax
   10fd3:	48 01 d0             	add    %rdx,%rax
   10fd6:	48 89 ca             	mov    %rcx,%rdx
   10fd9:	48 01 d2             	add    %rdx,%rdx
   10fdc:	48 01 ca             	add    %rcx,%rdx
   10fdf:	48 01 d0             	add    %rdx,%rax
   10fe2:	48 01 f0             	add    %rsi,%rax
   10fe5:	48 8d 14 85 00 00 00 	lea    0x0(,%rax,4),%rdx
   10fec:	00 
   10fed:	48 8d 05 ac 79 00 00 	lea    0x79ac(%rip),%rax        # 189a0 <g_1317>
   10ff4:	8b 04 02             	mov    (%rdx,%rax,1),%eax
   10ff7:	89 c1                	mov    %eax,%ecx
   10ff9:	8b 45 fc             	mov    -0x4(%rbp),%eax
   10ffc:	89 c2                	mov    %eax,%edx
   10ffe:	48 8d 35 06 27 00 00 	lea    0x2706(%rip),%rsi        # 1370b <g_1231+0x16b3>
   11005:	48 89 cf             	mov    %rcx,%rdi
   11008:	e8 e6 56 ff ff       	callq  66f3 <transparent_crc>
   1100d:	83 7d fc 00          	cmpl   $0x0,-0x4(%rbp)
   11011:	74 1c                	je     1102f <main+0x21f8>
   11013:	8b 4d f8             	mov    -0x8(%rbp),%ecx
   11016:	8b 55 f4             	mov    -0xc(%rbp),%edx
   11019:	8b 45 f0             	mov    -0x10(%rbp),%eax
   1101c:	89 c6                	mov    %eax,%esi
   1101e:	48 8d 3d 4e 21 00 00 	lea    0x214e(%rip),%rdi        # 13173 <g_1231+0x111b>
   11025:	b8 00 00 00 00       	mov    $0x0,%eax
   1102a:	e8 51 40 ff ff       	callq  5080 <printf@plt>
   1102f:	83 45 f8 01          	addl   $0x1,-0x8(%rbp)
   11033:	83 7d f8 02          	cmpl   $0x2,-0x8(%rbp)
   11037:	0f 8e 1c ff ff ff    	jle    10f59 <main+0x2122>
   1103d:	83 45 f4 01          	addl   $0x1,-0xc(%rbp)
   11041:	83 7d f4 06          	cmpl   $0x6,-0xc(%rbp)
   11045:	0f 8e 02 ff ff ff    	jle    10f4d <main+0x2116>
   1104b:	83 45 f0 01          	addl   $0x1,-0x10(%rbp)
   1104f:	83 7d f0 04          	cmpl   $0x4,-0x10(%rbp)
   11053:	0f 8e e8 fe ff ff    	jle    10f41 <main+0x210a>
   11059:	8b 05 e5 7a 00 00    	mov    0x7ae5(%rip),%eax        # 18b44 <g_1339>
   1105f:	89 c1                	mov    %eax,%ecx
   11061:	8b 45 fc             	mov    -0x4(%rbp),%eax
   11064:	89 c2                	mov    %eax,%edx
   11066:	48 8d 35 b1 26 00 00 	lea    0x26b1(%rip),%rsi        # 1371e <g_1231+0x16c6>
   1106d:	48 89 cf             	mov    %rcx,%rdi
   11070:	e8 7e 56 ff ff       	callq  66f3 <transparent_crc>
   11075:	8b 05 c9 7a 00 00    	mov    0x7ac9(%rip),%eax        # 18b44 <g_1339>
   1107b:	89 c1                	mov    %eax,%ecx
   1107d:	8b 45 fc             	mov    -0x4(%rbp),%eax
   11080:	89 c2                	mov    %eax,%edx
   11082:	48 8d 35 9f 26 00 00 	lea    0x269f(%rip),%rsi        # 13728 <g_1231+0x16d0>
   11089:	48 89 cf             	mov    %rcx,%rdi
   1108c:	e8 62 56 ff ff       	callq  66f3 <transparent_crc>
   11091:	0f b6 05 b8 7a 00 00 	movzbl 0x7ab8(%rip),%eax        # 18b50 <g_1346>
   11098:	48 0f be c0          	movsbq %al,%rax
   1109c:	8b 55 fc             	mov    -0x4(%rbp),%edx
   1109f:	48 8d 35 8c 26 00 00 	lea    0x268c(%rip),%rsi        # 13732 <g_1231+0x16da>
   110a6:	48 89 c7             	mov    %rax,%rdi
   110a9:	e8 45 56 ff ff       	callq  66f3 <transparent_crc>
   110ae:	48 8b 05 9b 7a 00 00 	mov    0x7a9b(%rip),%rax        # 18b50 <g_1346>
   110b5:	48 c1 e8 20          	shr    $0x20,%rax
   110b9:	25 ff ff ff 1f       	and    $0x1fffffff,%eax
   110be:	89 c1                	mov    %eax,%ecx
   110c0:	8b 45 fc             	mov    -0x4(%rbp),%eax
   110c3:	89 c2                	mov    %eax,%edx
   110c5:	48 8d 35 70 26 00 00 	lea    0x2670(%rip),%rsi        # 1373c <g_1231+0x16e4>
   110cc:	48 89 cf             	mov    %rcx,%rdi
   110cf:	e8 1f 56 ff ff       	callq  66f3 <transparent_crc>
   110d4:	48 8b 05 7d 7a 00 00 	mov    0x7a7d(%rip),%rax        # 18b58 <g_1346+0x8>
   110db:	66 25 ff 07          	and    $0x7ff,%ax
   110df:	0f b7 c0             	movzwl %ax,%eax
   110e2:	8b 55 fc             	mov    -0x4(%rbp),%edx
   110e5:	48 8d 35 5a 26 00 00 	lea    0x265a(%rip),%rsi        # 13746 <g_1231+0x16ee>
   110ec:	48 89 c7             	mov    %rax,%rdi
   110ef:	e8 ff 55 ff ff       	callq  66f3 <transparent_crc>
   110f4:	8b 05 62 7a 00 00    	mov    0x7a62(%rip),%eax        # 18b5c <g_1346+0xc>
   110fa:	48 98                	cltq   
   110fc:	8b 55 fc             	mov    -0x4(%rbp),%edx
   110ff:	48 8d 35 4a 26 00 00 	lea    0x264a(%rip),%rsi        # 13750 <g_1231+0x16f8>
   11106:	48 89 c7             	mov    %rax,%rdi
   11109:	e8 e5 55 ff ff       	callq  66f3 <transparent_crc>
   1110e:	48 8b 05 4b 7a 00 00 	mov    0x7a4b(%rip),%rax        # 18b60 <g_1346+0x10>
   11115:	c1 e0 04             	shl    $0x4,%eax
   11118:	c1 f8 04             	sar    $0x4,%eax
   1111b:	48 98                	cltq   
   1111d:	8b 55 fc             	mov    -0x4(%rbp),%edx
   11120:	48 8d 35 33 26 00 00 	lea    0x2633(%rip),%rsi        # 1375a <g_1231+0x1702>
   11127:	48 89 c7             	mov    %rax,%rdi
   1112a:	e8 c4 55 ff ff       	callq  66f3 <transparent_crc>
   1112f:	48 8b 05 2a 7a 00 00 	mov    0x7a2a(%rip),%rax        # 18b60 <g_1346+0x10>
   11136:	48 c1 e8 20          	shr    $0x20,%rax
   1113a:	25 ff ff ff 00       	and    $0xffffff,%eax
   1113f:	89 c1                	mov    %eax,%ecx
   11141:	8b 45 fc             	mov    -0x4(%rbp),%eax
   11144:	89 c2                	mov    %eax,%edx
   11146:	48 8d 35 17 26 00 00 	lea    0x2617(%rip),%rsi        # 13764 <g_1231+0x170c>
   1114d:	48 89 cf             	mov    %rcx,%rdi
   11150:	e8 9e 55 ff ff       	callq  66f3 <transparent_crc>
   11155:	48 8b 05 0c 7a 00 00 	mov    0x7a0c(%rip),%rax        # 18b68 <g_1346+0x18>
   1115c:	c1 e0 07             	shl    $0x7,%eax
   1115f:	c1 f8 07             	sar    $0x7,%eax
   11162:	48 98                	cltq   
   11164:	8b 55 fc             	mov    -0x4(%rbp),%edx
   11167:	48 8d 35 00 26 00 00 	lea    0x2600(%rip),%rsi        # 1376e <g_1231+0x1716>
   1116e:	48 89 c7             	mov    %rax,%rdi
   11171:	e8 7d 55 ff ff       	callq  66f3 <transparent_crc>
   11176:	8b 05 a4 4e 00 00    	mov    0x4ea4(%rip),%eax        # 16020 <crc32_context>
   1117c:	f7 d0                	not    %eax
   1117e:	89 c2                	mov    %eax,%edx
   11180:	8b 45 fc             	mov    -0x4(%rbp),%eax
   11183:	89 c6                	mov    %eax,%esi
   11185:	89 d7                	mov    %edx,%edi
   11187:	e8 08 40 ff ff       	callq  5194 <platform_main_end>
   1118c:	b8 00 00 00 00       	mov    $0x0,%eax
   11191:	c9                   	leaveq 
   11192:	c3                   	retq   
   11193:	66 2e 0f 1f 84 00 00 	nopw   %cs:0x0(%rax,%rax,1)
   1119a:	00 00 00 
   1119d:	0f 1f 00             	nopl   (%rax)

00000000000111a0 <__libc_csu_init>:
   111a0:	f3 0f 1e fa          	endbr64 
   111a4:	41 57                	push   %r15
   111a6:	4c 8d 3d eb 4b 00 00 	lea    0x4beb(%rip),%r15        # 15d98 <__frame_dummy_init_array_entry>
   111ad:	41 56                	push   %r14
   111af:	49 89 d6             	mov    %rdx,%r14
   111b2:	41 55                	push   %r13
   111b4:	49 89 f5             	mov    %rsi,%r13
   111b7:	41 54                	push   %r12
   111b9:	41 89 fc             	mov    %edi,%r12d
   111bc:	55                   	push   %rbp
   111bd:	48 8d 2d dc 4b 00 00 	lea    0x4bdc(%rip),%rbp        # 15da0 <__do_global_dtors_aux_fini_array_entry>
   111c4:	53                   	push   %rbx
   111c5:	4c 29 fd             	sub    %r15,%rbp
   111c8:	48 83 ec 08          	sub    $0x8,%rsp
   111cc:	e8 2f 3e ff ff       	callq  5000 <_init>
   111d1:	48 c1 fd 03          	sar    $0x3,%rbp
   111d5:	74 1f                	je     111f6 <__libc_csu_init+0x56>
   111d7:	31 db                	xor    %ebx,%ebx
   111d9:	0f 1f 80 00 00 00 00 	nopl   0x0(%rax)
   111e0:	4c 89 f2             	mov    %r14,%rdx
   111e3:	4c 89 ee             	mov    %r13,%rsi
   111e6:	44 89 e7             	mov    %r12d,%edi
   111e9:	41 ff 14 df          	callq  *(%r15,%rbx,8)
   111ed:	48 83 c3 01          	add    $0x1,%rbx
   111f1:	48 39 dd             	cmp    %rbx,%rbp
   111f4:	75 ea                	jne    111e0 <__libc_csu_init+0x40>
   111f6:	48 83 c4 08          	add    $0x8,%rsp
   111fa:	5b                   	pop    %rbx
   111fb:	5d                   	pop    %rbp
   111fc:	41 5c                	pop    %r12
   111fe:	41 5d                	pop    %r13
   11200:	41 5e                	pop    %r14
   11202:	41 5f                	pop    %r15
   11204:	c3                   	retq   
   11205:	66 66 2e 0f 1f 84 00 	data16 nopw %cs:0x0(%rax,%rax,1)
   1120c:	00 00 00 00 

0000000000011210 <__libc_csu_fini>:
   11210:	f3 0f 1e fa          	endbr64 
   11214:	c3                   	retq   
