


Disassembly of section .text:

00000000000040a0 <_start>:
    40a0:	f3 0f 1e fa          	endbr64 
    40a4:	31 ed                	xor    %ebp,%ebp
    40a6:	49 89 d1             	mov    %rdx,%r9
    40a9:	5e                   	pop    %rsi
    40aa:	48 89 e2             	mov    %rsp,%rdx
    40ad:	48 83 e4 f0          	and    $0xfffffffffffffff0,%rsp
    40b1:	50                   	push   %rax
    40b2:	54                   	push   %rsp
    40b3:	4c 8d 05 d6 48 00 00 	lea    0x48d6(%rip),%r8        # 8990 <__libc_csu_fini>
    40ba:	48 8d 0d 5f 48 00 00 	lea    0x485f(%rip),%rcx        # 8920 <__libc_csu_init>
    40c1:	48 8d 3d ef 41 00 00 	lea    0x41ef(%rip),%rdi        # 82b7 <main>
    40c8:	ff 15 fa 8e 00 00    	callq  *0x8efa(%rip)        # cfc8 <__libc_start_main@GLIBC_2.2.5>
    40ce:	f4                   	hlt    
    40cf:	90                   	nop

00000000000040d0 <deregister_tm_clones>:
    40d0:	48 8d 3d d9 a0 00 00 	lea    0xa0d9(%rip),%rdi        # e1b0 <__TMC_END__>
    40d7:	48 8d 05 d2 a0 00 00 	lea    0xa0d2(%rip),%rax        # e1b0 <__TMC_END__>
    40de:	48 39 f8             	cmp    %rdi,%rax
    40e1:	74 15                	je     40f8 <deregister_tm_clones+0x28>
    40e3:	48 8b 05 d6 8e 00 00 	mov    0x8ed6(%rip),%rax        # cfc0 <_ITM_deregisterTMCloneTable>
    40ea:	48 85 c0             	test   %rax,%rax
    40ed:	74 09                	je     40f8 <deregister_tm_clones+0x28>
    40ef:	ff e0                	jmpq   *%rax
    40f1:	0f 1f 80 00 00 00 00 	nopl   0x0(%rax)
    40f8:	c3                   	retq   
    40f9:	0f 1f 80 00 00 00 00 	nopl   0x0(%rax)

0000000000004100 <register_tm_clones>:
    4100:	48 8d 3d a9 a0 00 00 	lea    0xa0a9(%rip),%rdi        # e1b0 <__TMC_END__>
    4107:	48 8d 35 a2 a0 00 00 	lea    0xa0a2(%rip),%rsi        # e1b0 <__TMC_END__>
    410e:	48 29 fe             	sub    %rdi,%rsi
    4111:	48 89 f0             	mov    %rsi,%rax
    4114:	48 c1 ee 3f          	shr    $0x3f,%rsi
    4118:	48 c1 f8 03          	sar    $0x3,%rax
    411c:	48 01 c6             	add    %rax,%rsi
    411f:	48 d1 fe             	sar    %rsi
    4122:	74 14                	je     4138 <register_tm_clones+0x38>
    4124:	48 8b 05 ad 8e 00 00 	mov    0x8ead(%rip),%rax        # cfd8 <_ITM_registerTMCloneTable>
    412b:	48 85 c0             	test   %rax,%rax
    412e:	74 08                	je     4138 <register_tm_clones+0x38>
    4130:	ff e0                	jmpq   *%rax
    4132:	66 0f 1f 44 00 00    	nopw   0x0(%rax,%rax,1)
    4138:	c3                   	retq   
    4139:	0f 1f 80 00 00 00 00 	nopl   0x0(%rax)

0000000000004140 <__do_global_dtors_aux>:
    4140:	f3 0f 1e fa          	endbr64 
    4144:	80 3d 75 a0 00 00 00 	cmpb   $0x0,0xa075(%rip)        # e1c0 <completed.8061>
    414b:	75 2b                	jne    4178 <__do_global_dtors_aux+0x38>
    414d:	55                   	push   %rbp
    414e:	48 83 3d 8a 8e 00 00 	cmpq   $0x0,0x8e8a(%rip)        # cfe0 <__cxa_finalize@GLIBC_2.2.5>
    4155:	00 
    4156:	48 89 e5             	mov    %rsp,%rbp
    4159:	74 0c                	je     4167 <__do_global_dtors_aux+0x27>
    415b:	48 8b 3d a6 8e 00 00 	mov    0x8ea6(%rip),%rdi        # d008 <__dso_handle>
    4162:	e8 f9 fe ff ff       	callq  4060 <__cxa_finalize@plt>
    4167:	e8 64 ff ff ff       	callq  40d0 <deregister_tm_clones>
    416c:	c6 05 4d a0 00 00 01 	movb   $0x1,0xa04d(%rip)        # e1c0 <completed.8061>
    4173:	5d                   	pop    %rbp
    4174:	c3                   	retq   
    4175:	0f 1f 00             	nopl   (%rax)
    4178:	c3                   	retq   
    4179:	0f 1f 80 00 00 00 00 	nopl   0x0(%rax)

0000000000004180 <frame_dummy>:
    4180:	f3 0f 1e fa          	endbr64 
    4184:	e9 77 ff ff ff       	jmpq   4100 <register_tm_clones>

0000000000004189 <platform_main_begin>:
    4189:	f3 0f 1e fa          	endbr64 
    418d:	55                   	push   %rbp
    418e:	48 89 e5             	mov    %rsp,%rbp
    4191:	90                   	nop
    4192:	5d                   	pop    %rbp
    4193:	c3                   	retq   

0000000000004194 <platform_main_end>:
    4194:	f3 0f 1e fa          	endbr64 
    4198:	55                   	push   %rbp
    4199:	48 89 e5             	mov    %rsp,%rbp
    419c:	48 83 ec 10          	sub    $0x10,%rsp
    41a0:	89 7d fc             	mov    %edi,-0x4(%rbp)
    41a3:	89 75 f8             	mov    %esi,-0x8(%rbp)
    41a6:	8b 45 fc             	mov    -0x4(%rbp),%eax
    41a9:	89 c6                	mov    %eax,%esi
    41ab:	48 8d 3d 6e 4e 00 00 	lea    0x4e6e(%rip),%rdi        # 9020 <_IO_stdin_used+0x20>
    41b2:	b8 00 00 00 00       	mov    $0x0,%eax
    41b7:	e8 c4 fe ff ff       	callq  4080 <printf@plt>
    41bc:	90                   	nop
    41bd:	c9                   	leaveq 
    41be:	c3                   	retq   

00000000000041bf <safe_unary_minus_func_int8_t_s>:
    41bf:	f3 0f 1e fa          	endbr64 
    41c3:	55                   	push   %rbp
    41c4:	48 89 e5             	mov    %rsp,%rbp
    41c7:	89 f8                	mov    %edi,%eax
    41c9:	88 45 fc             	mov    %al,-0x4(%rbp)
    41cc:	0f b6 45 fc          	movzbl -0x4(%rbp),%eax
    41d0:	f7 d8                	neg    %eax
    41d2:	5d                   	pop    %rbp
    41d3:	c3                   	retq   

00000000000041d4 <safe_add_func_int8_t_s_s>:
    41d4:	f3 0f 1e fa          	endbr64 
    41d8:	55                   	push   %rbp
    41d9:	48 89 e5             	mov    %rsp,%rbp
    41dc:	89 fa                	mov    %edi,%edx
    41de:	89 f0                	mov    %esi,%eax
    41e0:	88 55 fc             	mov    %dl,-0x4(%rbp)
    41e3:	88 45 f8             	mov    %al,-0x8(%rbp)
    41e6:	0f b6 55 fc          	movzbl -0x4(%rbp),%edx
    41ea:	0f b6 45 f8          	movzbl -0x8(%rbp),%eax
    41ee:	01 d0                	add    %edx,%eax
    41f0:	5d                   	pop    %rbp
    41f1:	c3                   	retq   

00000000000041f2 <safe_sub_func_int8_t_s_s>:
    41f2:	f3 0f 1e fa          	endbr64 
    41f6:	55                   	push   %rbp
    41f7:	48 89 e5             	mov    %rsp,%rbp
    41fa:	89 fa                	mov    %edi,%edx
    41fc:	89 f0                	mov    %esi,%eax
    41fe:	88 55 fc             	mov    %dl,-0x4(%rbp)
    4201:	88 45 f8             	mov    %al,-0x8(%rbp)
    4204:	0f b6 55 fc          	movzbl -0x4(%rbp),%edx
    4208:	0f b6 45 f8          	movzbl -0x8(%rbp),%eax
    420c:	29 c2                	sub    %eax,%edx
    420e:	89 d0                	mov    %edx,%eax
    4210:	5d                   	pop    %rbp
    4211:	c3                   	retq   

0000000000004212 <safe_mul_func_int8_t_s_s>:
    4212:	f3 0f 1e fa          	endbr64 
    4216:	55                   	push   %rbp
    4217:	48 89 e5             	mov    %rsp,%rbp
    421a:	89 fa                	mov    %edi,%edx
    421c:	89 f0                	mov    %esi,%eax
    421e:	88 55 fc             	mov    %dl,-0x4(%rbp)
    4221:	88 45 f8             	mov    %al,-0x8(%rbp)
    4224:	0f b6 45 fc          	movzbl -0x4(%rbp),%eax
    4228:	0f b6 55 f8          	movzbl -0x8(%rbp),%edx
    422c:	0f af c2             	imul   %edx,%eax
    422f:	5d                   	pop    %rbp
    4230:	c3                   	retq   

0000000000004231 <safe_mod_func_int8_t_s_s>:
    4231:	f3 0f 1e fa          	endbr64 
    4235:	55                   	push   %rbp
    4236:	48 89 e5             	mov    %rsp,%rbp
    4239:	89 fa                	mov    %edi,%edx
    423b:	89 f0                	mov    %esi,%eax
    423d:	88 55 fc             	mov    %dl,-0x4(%rbp)
    4240:	88 45 f8             	mov    %al,-0x8(%rbp)
    4243:	80 7d f8 00          	cmpb   $0x0,-0x8(%rbp)
    4247:	74 1b                	je     4264 <safe_mod_func_int8_t_s_s+0x33>
    4249:	80 7d fc 80          	cmpb   $0x80,-0x4(%rbp)
    424d:	75 06                	jne    4255 <safe_mod_func_int8_t_s_s+0x24>
    424f:	80 7d f8 ff          	cmpb   $0xff,-0x8(%rbp)
    4253:	74 0f                	je     4264 <safe_mod_func_int8_t_s_s+0x33>
    4255:	0f be 45 fc          	movsbl -0x4(%rbp),%eax
    4259:	0f be 4d f8          	movsbl -0x8(%rbp),%ecx
    425d:	99                   	cltd   
    425e:	f7 f9                	idiv   %ecx
    4260:	89 d0                	mov    %edx,%eax
    4262:	eb 04                	jmp    4268 <safe_mod_func_int8_t_s_s+0x37>
    4264:	0f b6 45 fc          	movzbl -0x4(%rbp),%eax
    4268:	5d                   	pop    %rbp
    4269:	c3                   	retq   

000000000000426a <safe_div_func_int8_t_s_s>:
    426a:	f3 0f 1e fa          	endbr64 
    426e:	55                   	push   %rbp
    426f:	48 89 e5             	mov    %rsp,%rbp
    4272:	89 fa                	mov    %edi,%edx
    4274:	89 f0                	mov    %esi,%eax
    4276:	88 55 fc             	mov    %dl,-0x4(%rbp)
    4279:	88 45 f8             	mov    %al,-0x8(%rbp)
    427c:	80 7d f8 00          	cmpb   $0x0,-0x8(%rbp)
    4280:	74 19                	je     429b <safe_div_func_int8_t_s_s+0x31>
    4282:	80 7d fc 80          	cmpb   $0x80,-0x4(%rbp)
    4286:	75 06                	jne    428e <safe_div_func_int8_t_s_s+0x24>
    4288:	80 7d f8 ff          	cmpb   $0xff,-0x8(%rbp)
    428c:	74 0d                	je     429b <safe_div_func_int8_t_s_s+0x31>
    428e:	0f be 45 fc          	movsbl -0x4(%rbp),%eax
    4292:	0f be 4d f8          	movsbl -0x8(%rbp),%ecx
    4296:	99                   	cltd   
    4297:	f7 f9                	idiv   %ecx
    4299:	eb 04                	jmp    429f <safe_div_func_int8_t_s_s+0x35>
    429b:	0f b6 45 fc          	movzbl -0x4(%rbp),%eax
    429f:	5d                   	pop    %rbp
    42a0:	c3                   	retq   

00000000000042a1 <safe_lshift_func_int8_t_s_s>:
    42a1:	f3 0f 1e fa          	endbr64 
    42a5:	55                   	push   %rbp
    42a6:	48 89 e5             	mov    %rsp,%rbp
    42a9:	89 f8                	mov    %edi,%eax
    42ab:	89 75 f8             	mov    %esi,-0x8(%rbp)
    42ae:	88 45 fc             	mov    %al,-0x4(%rbp)
    42b1:	80 7d fc 00          	cmpb   $0x0,-0x4(%rbp)
    42b5:	78 31                	js     42e8 <safe_lshift_func_int8_t_s_s+0x47>
    42b7:	83 7d f8 00          	cmpl   $0x0,-0x8(%rbp)
    42bb:	78 2b                	js     42e8 <safe_lshift_func_int8_t_s_s+0x47>
    42bd:	83 7d f8 1f          	cmpl   $0x1f,-0x8(%rbp)
    42c1:	7f 25                	jg     42e8 <safe_lshift_func_int8_t_s_s+0x47>
    42c3:	0f be 55 fc          	movsbl -0x4(%rbp),%edx
    42c7:	8b 45 f8             	mov    -0x8(%rbp),%eax
    42ca:	be 7f 00 00 00       	mov    $0x7f,%esi
    42cf:	89 c1                	mov    %eax,%ecx
    42d1:	d3 fe                	sar    %cl,%esi
    42d3:	89 f0                	mov    %esi,%eax
    42d5:	39 c2                	cmp    %eax,%edx
    42d7:	7f 0f                	jg     42e8 <safe_lshift_func_int8_t_s_s+0x47>
    42d9:	0f be 55 fc          	movsbl -0x4(%rbp),%edx
    42dd:	8b 45 f8             	mov    -0x8(%rbp),%eax
    42e0:	89 c1                	mov    %eax,%ecx
    42e2:	d3 e2                	shl    %cl,%edx
    42e4:	89 d0                	mov    %edx,%eax
    42e6:	eb 04                	jmp    42ec <safe_lshift_func_int8_t_s_s+0x4b>
    42e8:	0f b6 45 fc          	movzbl -0x4(%rbp),%eax
    42ec:	5d                   	pop    %rbp
    42ed:	c3                   	retq   

00000000000042ee <safe_lshift_func_int8_t_s_u>:
    42ee:	f3 0f 1e fa          	endbr64 
    42f2:	55                   	push   %rbp
    42f3:	48 89 e5             	mov    %rsp,%rbp
    42f6:	89 f8                	mov    %edi,%eax
    42f8:	89 75 f8             	mov    %esi,-0x8(%rbp)
    42fb:	88 45 fc             	mov    %al,-0x4(%rbp)
    42fe:	80 7d fc 00          	cmpb   $0x0,-0x4(%rbp)
    4302:	78 2b                	js     432f <safe_lshift_func_int8_t_s_u+0x41>
    4304:	83 7d f8 1f          	cmpl   $0x1f,-0x8(%rbp)
    4308:	77 25                	ja     432f <safe_lshift_func_int8_t_s_u+0x41>
    430a:	0f be 55 fc          	movsbl -0x4(%rbp),%edx
    430e:	8b 45 f8             	mov    -0x8(%rbp),%eax
    4311:	be 7f 00 00 00       	mov    $0x7f,%esi
    4316:	89 c1                	mov    %eax,%ecx
    4318:	d3 fe                	sar    %cl,%esi
    431a:	89 f0                	mov    %esi,%eax
    431c:	39 c2                	cmp    %eax,%edx
    431e:	7f 0f                	jg     432f <safe_lshift_func_int8_t_s_u+0x41>
    4320:	0f be 55 fc          	movsbl -0x4(%rbp),%edx
    4324:	8b 45 f8             	mov    -0x8(%rbp),%eax
    4327:	89 c1                	mov    %eax,%ecx
    4329:	d3 e2                	shl    %cl,%edx
    432b:	89 d0                	mov    %edx,%eax
    432d:	eb 04                	jmp    4333 <safe_lshift_func_int8_t_s_u+0x45>
    432f:	0f b6 45 fc          	movzbl -0x4(%rbp),%eax
    4333:	5d                   	pop    %rbp
    4334:	c3                   	retq   

0000000000004335 <safe_rshift_func_int8_t_s_s>:
    4335:	f3 0f 1e fa          	endbr64 
    4339:	55                   	push   %rbp
    433a:	48 89 e5             	mov    %rsp,%rbp
    433d:	89 f8                	mov    %edi,%eax
    433f:	89 75 f8             	mov    %esi,-0x8(%rbp)
    4342:	88 45 fc             	mov    %al,-0x4(%rbp)
    4345:	80 7d fc 00          	cmpb   $0x0,-0x4(%rbp)
    4349:	78 1b                	js     4366 <safe_rshift_func_int8_t_s_s+0x31>
    434b:	83 7d f8 00          	cmpl   $0x0,-0x8(%rbp)
    434f:	78 15                	js     4366 <safe_rshift_func_int8_t_s_s+0x31>
    4351:	83 7d f8 1f          	cmpl   $0x1f,-0x8(%rbp)
    4355:	7f 0f                	jg     4366 <safe_rshift_func_int8_t_s_s+0x31>
    4357:	0f be 55 fc          	movsbl -0x4(%rbp),%edx
    435b:	8b 45 f8             	mov    -0x8(%rbp),%eax
    435e:	89 c1                	mov    %eax,%ecx
    4360:	d3 fa                	sar    %cl,%edx
    4362:	89 d0                	mov    %edx,%eax
    4364:	eb 04                	jmp    436a <safe_rshift_func_int8_t_s_s+0x35>
    4366:	0f b6 45 fc          	movzbl -0x4(%rbp),%eax
    436a:	5d                   	pop    %rbp
    436b:	c3                   	retq   

000000000000436c <safe_rshift_func_int8_t_s_u>:
    436c:	f3 0f 1e fa          	endbr64 
    4370:	55                   	push   %rbp
    4371:	48 89 e5             	mov    %rsp,%rbp
    4374:	89 f8                	mov    %edi,%eax
    4376:	89 75 f8             	mov    %esi,-0x8(%rbp)
    4379:	88 45 fc             	mov    %al,-0x4(%rbp)
    437c:	80 7d fc 00          	cmpb   $0x0,-0x4(%rbp)
    4380:	78 15                	js     4397 <safe_rshift_func_int8_t_s_u+0x2b>
    4382:	83 7d f8 1f          	cmpl   $0x1f,-0x8(%rbp)
    4386:	77 0f                	ja     4397 <safe_rshift_func_int8_t_s_u+0x2b>
    4388:	0f be 55 fc          	movsbl -0x4(%rbp),%edx
    438c:	8b 45 f8             	mov    -0x8(%rbp),%eax
    438f:	89 c1                	mov    %eax,%ecx
    4391:	d3 fa                	sar    %cl,%edx
    4393:	89 d0                	mov    %edx,%eax
    4395:	eb 04                	jmp    439b <safe_rshift_func_int8_t_s_u+0x2f>
    4397:	0f b6 45 fc          	movzbl -0x4(%rbp),%eax
    439b:	5d                   	pop    %rbp
    439c:	c3                   	retq   

000000000000439d <safe_unary_minus_func_int16_t_s>:
    439d:	f3 0f 1e fa          	endbr64 
    43a1:	55                   	push   %rbp
    43a2:	48 89 e5             	mov    %rsp,%rbp
    43a5:	89 f8                	mov    %edi,%eax
    43a7:	66 89 45 fc          	mov    %ax,-0x4(%rbp)
    43ab:	0f b7 45 fc          	movzwl -0x4(%rbp),%eax
    43af:	f7 d8                	neg    %eax
    43b1:	5d                   	pop    %rbp
    43b2:	c3                   	retq   

00000000000043b3 <safe_add_func_int16_t_s_s>:
    43b3:	f3 0f 1e fa          	endbr64 
    43b7:	55                   	push   %rbp
    43b8:	48 89 e5             	mov    %rsp,%rbp
    43bb:	89 fa                	mov    %edi,%edx
    43bd:	89 f0                	mov    %esi,%eax
    43bf:	66 89 55 fc          	mov    %dx,-0x4(%rbp)
    43c3:	66 89 45 f8          	mov    %ax,-0x8(%rbp)
    43c7:	0f b7 55 fc          	movzwl -0x4(%rbp),%edx
    43cb:	0f b7 45 f8          	movzwl -0x8(%rbp),%eax
    43cf:	01 d0                	add    %edx,%eax
    43d1:	5d                   	pop    %rbp
    43d2:	c3                   	retq   

00000000000043d3 <safe_sub_func_int16_t_s_s>:
    43d3:	f3 0f 1e fa          	endbr64 
    43d7:	55                   	push   %rbp
    43d8:	48 89 e5             	mov    %rsp,%rbp
    43db:	89 fa                	mov    %edi,%edx
    43dd:	89 f0                	mov    %esi,%eax
    43df:	66 89 55 fc          	mov    %dx,-0x4(%rbp)
    43e3:	66 89 45 f8          	mov    %ax,-0x8(%rbp)
    43e7:	0f b7 55 fc          	movzwl -0x4(%rbp),%edx
    43eb:	0f b7 45 f8          	movzwl -0x8(%rbp),%eax
    43ef:	29 c2                	sub    %eax,%edx
    43f1:	89 d0                	mov    %edx,%eax
    43f3:	5d                   	pop    %rbp
    43f4:	c3                   	retq   

00000000000043f5 <safe_mul_func_int16_t_s_s>:
    43f5:	f3 0f 1e fa          	endbr64 
    43f9:	55                   	push   %rbp
    43fa:	48 89 e5             	mov    %rsp,%rbp
    43fd:	89 fa                	mov    %edi,%edx
    43ff:	89 f0                	mov    %esi,%eax
    4401:	66 89 55 fc          	mov    %dx,-0x4(%rbp)
    4405:	66 89 45 f8          	mov    %ax,-0x8(%rbp)
    4409:	0f b7 55 fc          	movzwl -0x4(%rbp),%edx
    440d:	0f b7 45 f8          	movzwl -0x8(%rbp),%eax
    4411:	0f af c2             	imul   %edx,%eax
    4414:	5d                   	pop    %rbp
    4415:	c3                   	retq   

0000000000004416 <safe_mod_func_int16_t_s_s>:
    4416:	f3 0f 1e fa          	endbr64 
    441a:	55                   	push   %rbp
    441b:	48 89 e5             	mov    %rsp,%rbp
    441e:	89 fa                	mov    %edi,%edx
    4420:	89 f0                	mov    %esi,%eax
    4422:	66 89 55 fc          	mov    %dx,-0x4(%rbp)
    4426:	66 89 45 f8          	mov    %ax,-0x8(%rbp)
    442a:	66 83 7d f8 00       	cmpw   $0x0,-0x8(%rbp)
    442f:	74 1e                	je     444f <safe_mod_func_int16_t_s_s+0x39>
    4431:	66 81 7d fc 00 80    	cmpw   $0x8000,-0x4(%rbp)
    4437:	75 07                	jne    4440 <safe_mod_func_int16_t_s_s+0x2a>
    4439:	66 83 7d f8 ff       	cmpw   $0xffff,-0x8(%rbp)
    443e:	74 0f                	je     444f <safe_mod_func_int16_t_s_s+0x39>
    4440:	0f bf 45 fc          	movswl -0x4(%rbp),%eax
    4444:	0f bf 4d f8          	movswl -0x8(%rbp),%ecx
    4448:	99                   	cltd   
    4449:	f7 f9                	idiv   %ecx
    444b:	89 d0                	mov    %edx,%eax
    444d:	eb 04                	jmp    4453 <safe_mod_func_int16_t_s_s+0x3d>
    444f:	0f b7 45 fc          	movzwl -0x4(%rbp),%eax
    4453:	5d                   	pop    %rbp
    4454:	c3                   	retq   

0000000000004455 <safe_div_func_int16_t_s_s>:
    4455:	f3 0f 1e fa          	endbr64 
    4459:	55                   	push   %rbp
    445a:	48 89 e5             	mov    %rsp,%rbp
    445d:	89 fa                	mov    %edi,%edx
    445f:	89 f0                	mov    %esi,%eax
    4461:	66 89 55 fc          	mov    %dx,-0x4(%rbp)
    4465:	66 89 45 f8          	mov    %ax,-0x8(%rbp)
    4469:	66 83 7d f8 00       	cmpw   $0x0,-0x8(%rbp)
    446e:	74 1c                	je     448c <safe_div_func_int16_t_s_s+0x37>
    4470:	66 81 7d fc 00 80    	cmpw   $0x8000,-0x4(%rbp)
    4476:	75 07                	jne    447f <safe_div_func_int16_t_s_s+0x2a>
    4478:	66 83 7d f8 ff       	cmpw   $0xffff,-0x8(%rbp)
    447d:	74 0d                	je     448c <safe_div_func_int16_t_s_s+0x37>
    447f:	0f bf 45 fc          	movswl -0x4(%rbp),%eax
    4483:	0f bf 4d f8          	movswl -0x8(%rbp),%ecx
    4487:	99                   	cltd   
    4488:	f7 f9                	idiv   %ecx
    448a:	eb 04                	jmp    4490 <safe_div_func_int16_t_s_s+0x3b>
    448c:	0f b7 45 fc          	movzwl -0x4(%rbp),%eax
    4490:	5d                   	pop    %rbp
    4491:	c3                   	retq   

0000000000004492 <safe_lshift_func_int16_t_s_s>:
    4492:	f3 0f 1e fa          	endbr64 
    4496:	55                   	push   %rbp
    4497:	48 89 e5             	mov    %rsp,%rbp
    449a:	89 f8                	mov    %edi,%eax
    449c:	89 75 f8             	mov    %esi,-0x8(%rbp)
    449f:	66 89 45 fc          	mov    %ax,-0x4(%rbp)
    44a3:	66 83 7d fc 00       	cmpw   $0x0,-0x4(%rbp)
    44a8:	78 31                	js     44db <safe_lshift_func_int16_t_s_s+0x49>
    44aa:	83 7d f8 00          	cmpl   $0x0,-0x8(%rbp)
    44ae:	78 2b                	js     44db <safe_lshift_func_int16_t_s_s+0x49>
    44b0:	83 7d f8 1f          	cmpl   $0x1f,-0x8(%rbp)
    44b4:	7f 25                	jg     44db <safe_lshift_func_int16_t_s_s+0x49>
    44b6:	0f bf 55 fc          	movswl -0x4(%rbp),%edx
    44ba:	8b 45 f8             	mov    -0x8(%rbp),%eax
    44bd:	be ff 7f 00 00       	mov    $0x7fff,%esi
    44c2:	89 c1                	mov    %eax,%ecx
    44c4:	d3 fe                	sar    %cl,%esi
    44c6:	89 f0                	mov    %esi,%eax
    44c8:	39 c2                	cmp    %eax,%edx
    44ca:	7f 0f                	jg     44db <safe_lshift_func_int16_t_s_s+0x49>
    44cc:	0f bf 55 fc          	movswl -0x4(%rbp),%edx
    44d0:	8b 45 f8             	mov    -0x8(%rbp),%eax
    44d3:	89 c1                	mov    %eax,%ecx
    44d5:	d3 e2                	shl    %cl,%edx
    44d7:	89 d0                	mov    %edx,%eax
    44d9:	eb 04                	jmp    44df <safe_lshift_func_int16_t_s_s+0x4d>
    44db:	0f b7 45 fc          	movzwl -0x4(%rbp),%eax
    44df:	5d                   	pop    %rbp
    44e0:	c3                   	retq   

00000000000044e1 <safe_lshift_func_int16_t_s_u>:
    44e1:	f3 0f 1e fa          	endbr64 
    44e5:	55                   	push   %rbp
    44e6:	48 89 e5             	mov    %rsp,%rbp
    44e9:	89 f8                	mov    %edi,%eax
    44eb:	89 75 f8             	mov    %esi,-0x8(%rbp)
    44ee:	66 89 45 fc          	mov    %ax,-0x4(%rbp)
    44f2:	66 83 7d fc 00       	cmpw   $0x0,-0x4(%rbp)
    44f7:	78 2b                	js     4524 <safe_lshift_func_int16_t_s_u+0x43>
    44f9:	83 7d f8 1f          	cmpl   $0x1f,-0x8(%rbp)
    44fd:	77 25                	ja     4524 <safe_lshift_func_int16_t_s_u+0x43>
    44ff:	0f bf 55 fc          	movswl -0x4(%rbp),%edx
    4503:	8b 45 f8             	mov    -0x8(%rbp),%eax
    4506:	be ff 7f 00 00       	mov    $0x7fff,%esi
    450b:	89 c1                	mov    %eax,%ecx
    450d:	d3 fe                	sar    %cl,%esi
    450f:	89 f0                	mov    %esi,%eax
    4511:	39 c2                	cmp    %eax,%edx
    4513:	7f 0f                	jg     4524 <safe_lshift_func_int16_t_s_u+0x43>
    4515:	0f bf 55 fc          	movswl -0x4(%rbp),%edx
    4519:	8b 45 f8             	mov    -0x8(%rbp),%eax
    451c:	89 c1                	mov    %eax,%ecx
    451e:	d3 e2                	shl    %cl,%edx
    4520:	89 d0                	mov    %edx,%eax
    4522:	eb 04                	jmp    4528 <safe_lshift_func_int16_t_s_u+0x47>
    4524:	0f b7 45 fc          	movzwl -0x4(%rbp),%eax
    4528:	5d                   	pop    %rbp
    4529:	c3                   	retq   

000000000000452a <safe_rshift_func_int16_t_s_s>:
    452a:	f3 0f 1e fa          	endbr64 
    452e:	55                   	push   %rbp
    452f:	48 89 e5             	mov    %rsp,%rbp
    4532:	89 f8                	mov    %edi,%eax
    4534:	89 75 f8             	mov    %esi,-0x8(%rbp)
    4537:	66 89 45 fc          	mov    %ax,-0x4(%rbp)
    453b:	66 83 7d fc 00       	cmpw   $0x0,-0x4(%rbp)
    4540:	78 1b                	js     455d <safe_rshift_func_int16_t_s_s+0x33>
    4542:	83 7d f8 00          	cmpl   $0x0,-0x8(%rbp)
    4546:	78 15                	js     455d <safe_rshift_func_int16_t_s_s+0x33>
    4548:	83 7d f8 1f          	cmpl   $0x1f,-0x8(%rbp)
    454c:	7f 0f                	jg     455d <safe_rshift_func_int16_t_s_s+0x33>
    454e:	0f bf 55 fc          	movswl -0x4(%rbp),%edx
    4552:	8b 45 f8             	mov    -0x8(%rbp),%eax
    4555:	89 c1                	mov    %eax,%ecx
    4557:	d3 fa                	sar    %cl,%edx
    4559:	89 d0                	mov    %edx,%eax
    455b:	eb 04                	jmp    4561 <safe_rshift_func_int16_t_s_s+0x37>
    455d:	0f b7 45 fc          	movzwl -0x4(%rbp),%eax
    4561:	5d                   	pop    %rbp
    4562:	c3                   	retq   

0000000000004563 <safe_rshift_func_int16_t_s_u>:
    4563:	f3 0f 1e fa          	endbr64 
    4567:	55                   	push   %rbp
    4568:	48 89 e5             	mov    %rsp,%rbp
    456b:	89 f8                	mov    %edi,%eax
    456d:	89 75 f8             	mov    %esi,-0x8(%rbp)
    4570:	66 89 45 fc          	mov    %ax,-0x4(%rbp)
    4574:	66 83 7d fc 00       	cmpw   $0x0,-0x4(%rbp)
    4579:	78 15                	js     4590 <safe_rshift_func_int16_t_s_u+0x2d>
    457b:	83 7d f8 1f          	cmpl   $0x1f,-0x8(%rbp)
    457f:	77 0f                	ja     4590 <safe_rshift_func_int16_t_s_u+0x2d>
    4581:	0f bf 55 fc          	movswl -0x4(%rbp),%edx
    4585:	8b 45 f8             	mov    -0x8(%rbp),%eax
    4588:	89 c1                	mov    %eax,%ecx
    458a:	d3 fa                	sar    %cl,%edx
    458c:	89 d0                	mov    %edx,%eax
    458e:	eb 04                	jmp    4594 <safe_rshift_func_int16_t_s_u+0x31>
    4590:	0f b7 45 fc          	movzwl -0x4(%rbp),%eax
    4594:	5d                   	pop    %rbp
    4595:	c3                   	retq   

0000000000004596 <safe_unary_minus_func_int32_t_s>:
    4596:	f3 0f 1e fa          	endbr64 
    459a:	55                   	push   %rbp
    459b:	48 89 e5             	mov    %rsp,%rbp
    459e:	89 7d fc             	mov    %edi,-0x4(%rbp)
    45a1:	81 7d fc 00 00 00 80 	cmpl   $0x80000000,-0x4(%rbp)
    45a8:	74 07                	je     45b1 <safe_unary_minus_func_int32_t_s+0x1b>
    45aa:	8b 45 fc             	mov    -0x4(%rbp),%eax
    45ad:	f7 d8                	neg    %eax
    45af:	eb 03                	jmp    45b4 <safe_unary_minus_func_int32_t_s+0x1e>
    45b1:	8b 45 fc             	mov    -0x4(%rbp),%eax
    45b4:	5d                   	pop    %rbp
    45b5:	c3                   	retq   

00000000000045b6 <safe_add_func_int32_t_s_s>:
    45b6:	f3 0f 1e fa          	endbr64 
    45ba:	55                   	push   %rbp
    45bb:	48 89 e5             	mov    %rsp,%rbp
    45be:	89 7d fc             	mov    %edi,-0x4(%rbp)
    45c1:	89 75 f8             	mov    %esi,-0x8(%rbp)
    45c4:	83 7d fc 00          	cmpl   $0x0,-0x4(%rbp)
    45c8:	7e 13                	jle    45dd <safe_add_func_int32_t_s_s+0x27>
    45ca:	83 7d f8 00          	cmpl   $0x0,-0x8(%rbp)
    45ce:	7e 0d                	jle    45dd <safe_add_func_int32_t_s_s+0x27>
    45d0:	b8 ff ff ff 7f       	mov    $0x7fffffff,%eax
    45d5:	2b 45 f8             	sub    -0x8(%rbp),%eax
    45d8:	39 45 fc             	cmp    %eax,-0x4(%rbp)
    45db:	7f 23                	jg     4600 <safe_add_func_int32_t_s_s+0x4a>
    45dd:	83 7d fc 00          	cmpl   $0x0,-0x4(%rbp)
    45e1:	79 13                	jns    45f6 <safe_add_func_int32_t_s_s+0x40>
    45e3:	83 7d f8 00          	cmpl   $0x0,-0x8(%rbp)
    45e7:	79 0d                	jns    45f6 <safe_add_func_int32_t_s_s+0x40>
    45e9:	b8 00 00 00 80       	mov    $0x80000000,%eax
    45ee:	2b 45 f8             	sub    -0x8(%rbp),%eax
    45f1:	39 45 fc             	cmp    %eax,-0x4(%rbp)
    45f4:	7c 0a                	jl     4600 <safe_add_func_int32_t_s_s+0x4a>
    45f6:	8b 55 fc             	mov    -0x4(%rbp),%edx
    45f9:	8b 45 f8             	mov    -0x8(%rbp),%eax
    45fc:	01 d0                	add    %edx,%eax
    45fe:	eb 03                	jmp    4603 <safe_add_func_int32_t_s_s+0x4d>
    4600:	8b 45 fc             	mov    -0x4(%rbp),%eax
    4603:	5d                   	pop    %rbp
    4604:	c3                   	retq   

0000000000004605 <safe_sub_func_int32_t_s_s>:
    4605:	f3 0f 1e fa          	endbr64 
    4609:	55                   	push   %rbp
    460a:	48 89 e5             	mov    %rsp,%rbp
    460d:	89 7d fc             	mov    %edi,-0x4(%rbp)
    4610:	89 75 f8             	mov    %esi,-0x8(%rbp)
    4613:	8b 45 fc             	mov    -0x4(%rbp),%eax
    4616:	33 45 f8             	xor    -0x8(%rbp),%eax
    4619:	89 c2                	mov    %eax,%edx
    461b:	8b 45 fc             	mov    -0x4(%rbp),%eax
    461e:	33 45 f8             	xor    -0x8(%rbp),%eax
    4621:	25 00 00 00 80       	and    $0x80000000,%eax
    4626:	33 45 fc             	xor    -0x4(%rbp),%eax
    4629:	2b 45 f8             	sub    -0x8(%rbp),%eax
    462c:	33 45 f8             	xor    -0x8(%rbp),%eax
    462f:	21 d0                	and    %edx,%eax
    4631:	85 c0                	test   %eax,%eax
    4633:	78 08                	js     463d <safe_sub_func_int32_t_s_s+0x38>
    4635:	8b 45 fc             	mov    -0x4(%rbp),%eax
    4638:	2b 45 f8             	sub    -0x8(%rbp),%eax
    463b:	eb 03                	jmp    4640 <safe_sub_func_int32_t_s_s+0x3b>
    463d:	8b 45 fc             	mov    -0x4(%rbp),%eax
    4640:	5d                   	pop    %rbp
    4641:	c3                   	retq   

0000000000004642 <safe_mul_func_int32_t_s_s>:
    4642:	f3 0f 1e fa          	endbr64 
    4646:	55                   	push   %rbp
    4647:	48 89 e5             	mov    %rsp,%rbp
    464a:	89 7d fc             	mov    %edi,-0x4(%rbp)
    464d:	89 75 f8             	mov    %esi,-0x8(%rbp)
    4650:	83 7d fc 00          	cmpl   $0x0,-0x4(%rbp)
    4654:	7e 14                	jle    466a <safe_mul_func_int32_t_s_s+0x28>
    4656:	83 7d f8 00          	cmpl   $0x0,-0x8(%rbp)
    465a:	7e 0e                	jle    466a <safe_mul_func_int32_t_s_s+0x28>
    465c:	b8 ff ff ff 7f       	mov    $0x7fffffff,%eax
    4661:	99                   	cltd   
    4662:	f7 7d f8             	idivl  -0x8(%rbp)
    4665:	39 45 fc             	cmp    %eax,-0x4(%rbp)
    4668:	7f 5d                	jg     46c7 <safe_mul_func_int32_t_s_s+0x85>
    466a:	83 7d fc 00          	cmpl   $0x0,-0x4(%rbp)
    466e:	7e 14                	jle    4684 <safe_mul_func_int32_t_s_s+0x42>
    4670:	83 7d f8 00          	cmpl   $0x0,-0x8(%rbp)
    4674:	7f 0e                	jg     4684 <safe_mul_func_int32_t_s_s+0x42>
    4676:	b8 00 00 00 80       	mov    $0x80000000,%eax
    467b:	99                   	cltd   
    467c:	f7 7d fc             	idivl  -0x4(%rbp)
    467f:	39 45 f8             	cmp    %eax,-0x8(%rbp)
    4682:	7c 43                	jl     46c7 <safe_mul_func_int32_t_s_s+0x85>
    4684:	83 7d fc 00          	cmpl   $0x0,-0x4(%rbp)
    4688:	7f 14                	jg     469e <safe_mul_func_int32_t_s_s+0x5c>
    468a:	83 7d f8 00          	cmpl   $0x0,-0x8(%rbp)
    468e:	7e 0e                	jle    469e <safe_mul_func_int32_t_s_s+0x5c>
    4690:	b8 00 00 00 80       	mov    $0x80000000,%eax
    4695:	99                   	cltd   
    4696:	f7 7d f8             	idivl  -0x8(%rbp)
    4699:	39 45 fc             	cmp    %eax,-0x4(%rbp)
    469c:	7c 29                	jl     46c7 <safe_mul_func_int32_t_s_s+0x85>
    469e:	83 7d fc 00          	cmpl   $0x0,-0x4(%rbp)
    46a2:	7f 1a                	jg     46be <safe_mul_func_int32_t_s_s+0x7c>
    46a4:	83 7d f8 00          	cmpl   $0x0,-0x8(%rbp)
    46a8:	7f 14                	jg     46be <safe_mul_func_int32_t_s_s+0x7c>
    46aa:	83 7d fc 00          	cmpl   $0x0,-0x4(%rbp)
    46ae:	74 0e                	je     46be <safe_mul_func_int32_t_s_s+0x7c>
    46b0:	b8 ff ff ff 7f       	mov    $0x7fffffff,%eax
    46b5:	99                   	cltd   
    46b6:	f7 7d fc             	idivl  -0x4(%rbp)
    46b9:	39 45 f8             	cmp    %eax,-0x8(%rbp)
    46bc:	7c 09                	jl     46c7 <safe_mul_func_int32_t_s_s+0x85>
    46be:	8b 45 fc             	mov    -0x4(%rbp),%eax
    46c1:	0f af 45 f8          	imul   -0x8(%rbp),%eax
    46c5:	eb 03                	jmp    46ca <safe_mul_func_int32_t_s_s+0x88>
    46c7:	8b 45 fc             	mov    -0x4(%rbp),%eax
    46ca:	5d                   	pop    %rbp
    46cb:	c3                   	retq   

00000000000046cc <safe_mod_func_int32_t_s_s>:
    46cc:	f3 0f 1e fa          	endbr64 
    46d0:	55                   	push   %rbp
    46d1:	48 89 e5             	mov    %rsp,%rbp
    46d4:	89 7d fc             	mov    %edi,-0x4(%rbp)
    46d7:	89 75 f8             	mov    %esi,-0x8(%rbp)
    46da:	83 7d f8 00          	cmpl   $0x0,-0x8(%rbp)
    46de:	74 1a                	je     46fa <safe_mod_func_int32_t_s_s+0x2e>
    46e0:	81 7d fc 00 00 00 80 	cmpl   $0x80000000,-0x4(%rbp)
    46e7:	75 06                	jne    46ef <safe_mod_func_int32_t_s_s+0x23>
    46e9:	83 7d f8 ff          	cmpl   $0xffffffff,-0x8(%rbp)
    46ed:	74 0b                	je     46fa <safe_mod_func_int32_t_s_s+0x2e>
    46ef:	8b 45 fc             	mov    -0x4(%rbp),%eax
    46f2:	99                   	cltd   
    46f3:	f7 7d f8             	idivl  -0x8(%rbp)
    46f6:	89 d0                	mov    %edx,%eax
    46f8:	eb 03                	jmp    46fd <safe_mod_func_int32_t_s_s+0x31>
    46fa:	8b 45 fc             	mov    -0x4(%rbp),%eax
    46fd:	5d                   	pop    %rbp
    46fe:	c3                   	retq   

00000000000046ff <safe_div_func_int32_t_s_s>:
    46ff:	f3 0f 1e fa          	endbr64 
    4703:	55                   	push   %rbp
    4704:	48 89 e5             	mov    %rsp,%rbp
    4707:	89 7d fc             	mov    %edi,-0x4(%rbp)
    470a:	89 75 f8             	mov    %esi,-0x8(%rbp)
    470d:	83 7d f8 00          	cmpl   $0x0,-0x8(%rbp)
    4711:	74 18                	je     472b <safe_div_func_int32_t_s_s+0x2c>
    4713:	81 7d fc 00 00 00 80 	cmpl   $0x80000000,-0x4(%rbp)
    471a:	75 06                	jne    4722 <safe_div_func_int32_t_s_s+0x23>
    471c:	83 7d f8 ff          	cmpl   $0xffffffff,-0x8(%rbp)
    4720:	74 09                	je     472b <safe_div_func_int32_t_s_s+0x2c>
    4722:	8b 45 fc             	mov    -0x4(%rbp),%eax
    4725:	99                   	cltd   
    4726:	f7 7d f8             	idivl  -0x8(%rbp)
    4729:	eb 03                	jmp    472e <safe_div_func_int32_t_s_s+0x2f>
    472b:	8b 45 fc             	mov    -0x4(%rbp),%eax
    472e:	5d                   	pop    %rbp
    472f:	c3                   	retq   

0000000000004730 <safe_lshift_func_int32_t_s_s>:
    4730:	f3 0f 1e fa          	endbr64 
    4734:	55                   	push   %rbp
    4735:	48 89 e5             	mov    %rsp,%rbp
    4738:	89 7d fc             	mov    %edi,-0x4(%rbp)
    473b:	89 75 f8             	mov    %esi,-0x8(%rbp)
    473e:	83 7d fc 00          	cmpl   $0x0,-0x4(%rbp)
    4742:	78 2d                	js     4771 <safe_lshift_func_int32_t_s_s+0x41>
    4744:	83 7d f8 00          	cmpl   $0x0,-0x8(%rbp)
    4748:	78 27                	js     4771 <safe_lshift_func_int32_t_s_s+0x41>
    474a:	83 7d f8 1f          	cmpl   $0x1f,-0x8(%rbp)
    474e:	7f 21                	jg     4771 <safe_lshift_func_int32_t_s_s+0x41>
    4750:	8b 45 f8             	mov    -0x8(%rbp),%eax
    4753:	ba ff ff ff 7f       	mov    $0x7fffffff,%edx
    4758:	89 c1                	mov    %eax,%ecx
    475a:	d3 fa                	sar    %cl,%edx
    475c:	89 d0                	mov    %edx,%eax
    475e:	39 45 fc             	cmp    %eax,-0x4(%rbp)
    4761:	7f 0e                	jg     4771 <safe_lshift_func_int32_t_s_s+0x41>
    4763:	8b 45 f8             	mov    -0x8(%rbp),%eax
    4766:	8b 55 fc             	mov    -0x4(%rbp),%edx
    4769:	89 c1                	mov    %eax,%ecx
    476b:	d3 e2                	shl    %cl,%edx
    476d:	89 d0                	mov    %edx,%eax
    476f:	eb 03                	jmp    4774 <safe_lshift_func_int32_t_s_s+0x44>
    4771:	8b 45 fc             	mov    -0x4(%rbp),%eax
    4774:	5d                   	pop    %rbp
    4775:	c3                   	retq   

0000000000004776 <safe_lshift_func_int32_t_s_u>:
    4776:	f3 0f 1e fa          	endbr64 
    477a:	55                   	push   %rbp
    477b:	48 89 e5             	mov    %rsp,%rbp
    477e:	89 7d fc             	mov    %edi,-0x4(%rbp)
    4781:	89 75 f8             	mov    %esi,-0x8(%rbp)
    4784:	83 7d fc 00          	cmpl   $0x0,-0x4(%rbp)
    4788:	78 27                	js     47b1 <safe_lshift_func_int32_t_s_u+0x3b>
    478a:	83 7d f8 1f          	cmpl   $0x1f,-0x8(%rbp)
    478e:	77 21                	ja     47b1 <safe_lshift_func_int32_t_s_u+0x3b>
    4790:	8b 45 f8             	mov    -0x8(%rbp),%eax
    4793:	ba ff ff ff 7f       	mov    $0x7fffffff,%edx
    4798:	89 c1                	mov    %eax,%ecx
    479a:	d3 fa                	sar    %cl,%edx
    479c:	89 d0                	mov    %edx,%eax
    479e:	39 45 fc             	cmp    %eax,-0x4(%rbp)
    47a1:	7f 0e                	jg     47b1 <safe_lshift_func_int32_t_s_u+0x3b>
    47a3:	8b 45 f8             	mov    -0x8(%rbp),%eax
    47a6:	8b 55 fc             	mov    -0x4(%rbp),%edx
    47a9:	89 c1                	mov    %eax,%ecx
    47ab:	d3 e2                	shl    %cl,%edx
    47ad:	89 d0                	mov    %edx,%eax
    47af:	eb 03                	jmp    47b4 <safe_lshift_func_int32_t_s_u+0x3e>
    47b1:	8b 45 fc             	mov    -0x4(%rbp),%eax
    47b4:	5d                   	pop    %rbp
    47b5:	c3                   	retq   

00000000000047b6 <safe_rshift_func_int32_t_s_s>:
    47b6:	f3 0f 1e fa          	endbr64 
    47ba:	55                   	push   %rbp
    47bb:	48 89 e5             	mov    %rsp,%rbp
    47be:	89 7d fc             	mov    %edi,-0x4(%rbp)
    47c1:	89 75 f8             	mov    %esi,-0x8(%rbp)
    47c4:	83 7d fc 00          	cmpl   $0x0,-0x4(%rbp)
    47c8:	78 1a                	js     47e4 <safe_rshift_func_int32_t_s_s+0x2e>
    47ca:	83 7d f8 00          	cmpl   $0x0,-0x8(%rbp)
    47ce:	78 14                	js     47e4 <safe_rshift_func_int32_t_s_s+0x2e>
    47d0:	83 7d f8 1f          	cmpl   $0x1f,-0x8(%rbp)
    47d4:	7f 0e                	jg     47e4 <safe_rshift_func_int32_t_s_s+0x2e>
    47d6:	8b 45 f8             	mov    -0x8(%rbp),%eax
    47d9:	8b 55 fc             	mov    -0x4(%rbp),%edx
    47dc:	89 c1                	mov    %eax,%ecx
    47de:	d3 fa                	sar    %cl,%edx
    47e0:	89 d0                	mov    %edx,%eax
    47e2:	eb 03                	jmp    47e7 <safe_rshift_func_int32_t_s_s+0x31>
    47e4:	8b 45 fc             	mov    -0x4(%rbp),%eax
    47e7:	5d                   	pop    %rbp
    47e8:	c3                   	retq   

00000000000047e9 <safe_rshift_func_int32_t_s_u>:
    47e9:	f3 0f 1e fa          	endbr64 
    47ed:	55                   	push   %rbp
    47ee:	48 89 e5             	mov    %rsp,%rbp
    47f1:	89 7d fc             	mov    %edi,-0x4(%rbp)
    47f4:	89 75 f8             	mov    %esi,-0x8(%rbp)
    47f7:	83 7d fc 00          	cmpl   $0x0,-0x4(%rbp)
    47fb:	78 14                	js     4811 <safe_rshift_func_int32_t_s_u+0x28>
    47fd:	83 7d f8 1f          	cmpl   $0x1f,-0x8(%rbp)
    4801:	77 0e                	ja     4811 <safe_rshift_func_int32_t_s_u+0x28>
    4803:	8b 45 f8             	mov    -0x8(%rbp),%eax
    4806:	8b 55 fc             	mov    -0x4(%rbp),%edx
    4809:	89 c1                	mov    %eax,%ecx
    480b:	d3 fa                	sar    %cl,%edx
    480d:	89 d0                	mov    %edx,%eax
    480f:	eb 03                	jmp    4814 <safe_rshift_func_int32_t_s_u+0x2b>
    4811:	8b 45 fc             	mov    -0x4(%rbp),%eax
    4814:	5d                   	pop    %rbp
    4815:	c3                   	retq   

0000000000004816 <safe_unary_minus_func_int64_t_s>:
    4816:	f3 0f 1e fa          	endbr64 
    481a:	55                   	push   %rbp
    481b:	48 89 e5             	mov    %rsp,%rbp
    481e:	48 89 7d f8          	mov    %rdi,-0x8(%rbp)
    4822:	48 b8 00 00 00 00 00 	movabs $0x8000000000000000,%rax
    4829:	00 00 80 
    482c:	48 39 45 f8          	cmp    %rax,-0x8(%rbp)
    4830:	74 09                	je     483b <safe_unary_minus_func_int64_t_s+0x25>
    4832:	48 8b 45 f8          	mov    -0x8(%rbp),%rax
    4836:	48 f7 d8             	neg    %rax
    4839:	eb 04                	jmp    483f <safe_unary_minus_func_int64_t_s+0x29>
    483b:	48 8b 45 f8          	mov    -0x8(%rbp),%rax
    483f:	5d                   	pop    %rbp
    4840:	c3                   	retq   

0000000000004841 <safe_add_func_int64_t_s_s>:
    4841:	f3 0f 1e fa          	endbr64 
    4845:	55                   	push   %rbp
    4846:	48 89 e5             	mov    %rsp,%rbp
    4849:	48 89 7d f8          	mov    %rdi,-0x8(%rbp)
    484d:	48 89 75 f0          	mov    %rsi,-0x10(%rbp)
    4851:	48 83 7d f8 00       	cmpq   $0x0,-0x8(%rbp)
    4856:	7e 1b                	jle    4873 <safe_add_func_int64_t_s_s+0x32>
    4858:	48 83 7d f0 00       	cmpq   $0x0,-0x10(%rbp)
    485d:	7e 14                	jle    4873 <safe_add_func_int64_t_s_s+0x32>
    485f:	48 b8 ff ff ff ff ff 	movabs $0x7fffffffffffffff,%rax
    4866:	ff ff 7f 
    4869:	48 2b 45 f0          	sub    -0x10(%rbp),%rax
    486d:	48 39 45 f8          	cmp    %rax,-0x8(%rbp)
    4871:	7f 2f                	jg     48a2 <safe_add_func_int64_t_s_s+0x61>
    4873:	48 83 7d f8 00       	cmpq   $0x0,-0x8(%rbp)
    4878:	79 1b                	jns    4895 <safe_add_func_int64_t_s_s+0x54>
    487a:	48 83 7d f0 00       	cmpq   $0x0,-0x10(%rbp)
    487f:	79 14                	jns    4895 <safe_add_func_int64_t_s_s+0x54>
    4881:	48 b8 00 00 00 00 00 	movabs $0x8000000000000000,%rax
    4888:	00 00 80 
    488b:	48 2b 45 f0          	sub    -0x10(%rbp),%rax
    488f:	48 39 45 f8          	cmp    %rax,-0x8(%rbp)
    4893:	7c 0d                	jl     48a2 <safe_add_func_int64_t_s_s+0x61>
    4895:	48 8b 55 f8          	mov    -0x8(%rbp),%rdx
    4899:	48 8b 45 f0          	mov    -0x10(%rbp),%rax
    489d:	48 01 d0             	add    %rdx,%rax
    48a0:	eb 04                	jmp    48a6 <safe_add_func_int64_t_s_s+0x65>
    48a2:	48 8b 45 f8          	mov    -0x8(%rbp),%rax
    48a6:	5d                   	pop    %rbp
    48a7:	c3                   	retq   

00000000000048a8 <safe_sub_func_int64_t_s_s>:
    48a8:	f3 0f 1e fa          	endbr64 
    48ac:	55                   	push   %rbp
    48ad:	48 89 e5             	mov    %rsp,%rbp
    48b0:	48 89 7d f8          	mov    %rdi,-0x8(%rbp)
    48b4:	48 89 75 f0          	mov    %rsi,-0x10(%rbp)
    48b8:	48 8b 45 f8          	mov    -0x8(%rbp),%rax
    48bc:	48 33 45 f0          	xor    -0x10(%rbp),%rax
    48c0:	48 89 c2             	mov    %rax,%rdx
    48c3:	48 8b 45 f8          	mov    -0x8(%rbp),%rax
    48c7:	48 33 45 f0          	xor    -0x10(%rbp),%rax
    48cb:	48 b9 00 00 00 00 00 	movabs $0x8000000000000000,%rcx
    48d2:	00 00 80 
    48d5:	48 21 c8             	and    %rcx,%rax
    48d8:	48 33 45 f8          	xor    -0x8(%rbp),%rax
    48dc:	48 2b 45 f0          	sub    -0x10(%rbp),%rax
    48e0:	48 33 45 f0          	xor    -0x10(%rbp),%rax
    48e4:	48 21 d0             	and    %rdx,%rax
    48e7:	48 85 c0             	test   %rax,%rax
    48ea:	78 0a                	js     48f6 <safe_sub_func_int64_t_s_s+0x4e>
    48ec:	48 8b 45 f8          	mov    -0x8(%rbp),%rax
    48f0:	48 2b 45 f0          	sub    -0x10(%rbp),%rax
    48f4:	eb 04                	jmp    48fa <safe_sub_func_int64_t_s_s+0x52>
    48f6:	48 8b 45 f8          	mov    -0x8(%rbp),%rax
    48fa:	5d                   	pop    %rbp
    48fb:	c3                   	retq   

00000000000048fc <safe_mul_func_int64_t_s_s>:
    48fc:	f3 0f 1e fa          	endbr64 
    4900:	55                   	push   %rbp
    4901:	48 89 e5             	mov    %rsp,%rbp
    4904:	48 89 7d f8          	mov    %rdi,-0x8(%rbp)
    4908:	48 89 75 f0          	mov    %rsi,-0x10(%rbp)
    490c:	48 83 7d f8 00       	cmpq   $0x0,-0x8(%rbp)
    4911:	7e 1d                	jle    4930 <safe_mul_func_int64_t_s_s+0x34>
    4913:	48 83 7d f0 00       	cmpq   $0x0,-0x10(%rbp)
    4918:	7e 16                	jle    4930 <safe_mul_func_int64_t_s_s+0x34>
    491a:	48 b8 ff ff ff ff ff 	movabs $0x7fffffffffffffff,%rax
    4921:	ff ff 7f 
    4924:	48 99                	cqto   
    4926:	48 f7 7d f0          	idivq  -0x10(%rbp)
    492a:	48 39 45 f8          	cmp    %rax,-0x8(%rbp)
    492e:	7f 7e                	jg     49ae <safe_mul_func_int64_t_s_s+0xb2>
    4930:	48 83 7d f8 00       	cmpq   $0x0,-0x8(%rbp)
    4935:	7e 1d                	jle    4954 <safe_mul_func_int64_t_s_s+0x58>
    4937:	48 83 7d f0 00       	cmpq   $0x0,-0x10(%rbp)
    493c:	7f 16                	jg     4954 <safe_mul_func_int64_t_s_s+0x58>
    493e:	48 b8 00 00 00 00 00 	movabs $0x8000000000000000,%rax
    4945:	00 00 80 
    4948:	48 99                	cqto   
    494a:	48 f7 7d f8          	idivq  -0x8(%rbp)
    494e:	48 39 45 f0          	cmp    %rax,-0x10(%rbp)
    4952:	7c 5a                	jl     49ae <safe_mul_func_int64_t_s_s+0xb2>
    4954:	48 83 7d f8 00       	cmpq   $0x0,-0x8(%rbp)
    4959:	7f 1d                	jg     4978 <safe_mul_func_int64_t_s_s+0x7c>
    495b:	48 83 7d f0 00       	cmpq   $0x0,-0x10(%rbp)
    4960:	7e 16                	jle    4978 <safe_mul_func_int64_t_s_s+0x7c>
    4962:	48 b8 00 00 00 00 00 	movabs $0x8000000000000000,%rax
    4969:	00 00 80 
    496c:	48 99                	cqto   
    496e:	48 f7 7d f0          	idivq  -0x10(%rbp)
    4972:	48 39 45 f8          	cmp    %rax,-0x8(%rbp)
    4976:	7c 36                	jl     49ae <safe_mul_func_int64_t_s_s+0xb2>
    4978:	48 83 7d f8 00       	cmpq   $0x0,-0x8(%rbp)
    497d:	7f 24                	jg     49a3 <safe_mul_func_int64_t_s_s+0xa7>
    497f:	48 83 7d f0 00       	cmpq   $0x0,-0x10(%rbp)
    4984:	7f 1d                	jg     49a3 <safe_mul_func_int64_t_s_s+0xa7>
    4986:	48 83 7d f8 00       	cmpq   $0x0,-0x8(%rbp)
    498b:	74 16                	je     49a3 <safe_mul_func_int64_t_s_s+0xa7>
    498d:	48 b8 ff ff ff ff ff 	movabs $0x7fffffffffffffff,%rax
    4994:	ff ff 7f 
    4997:	48 99                	cqto   
    4999:	48 f7 7d f8          	idivq  -0x8(%rbp)
    499d:	48 39 45 f0          	cmp    %rax,-0x10(%rbp)
    49a1:	7c 0b                	jl     49ae <safe_mul_func_int64_t_s_s+0xb2>
    49a3:	48 8b 45 f8          	mov    -0x8(%rbp),%rax
    49a7:	48 0f af 45 f0       	imul   -0x10(%rbp),%rax
    49ac:	eb 04                	jmp    49b2 <safe_mul_func_int64_t_s_s+0xb6>
    49ae:	48 8b 45 f8          	mov    -0x8(%rbp),%rax
    49b2:	5d                   	pop    %rbp
    49b3:	c3                   	retq   

00000000000049b4 <safe_mod_func_int64_t_s_s>:
    49b4:	f3 0f 1e fa          	endbr64 
    49b8:	55                   	push   %rbp
    49b9:	48 89 e5             	mov    %rsp,%rbp
    49bc:	48 89 7d f8          	mov    %rdi,-0x8(%rbp)
    49c0:	48 89 75 f0          	mov    %rsi,-0x10(%rbp)
    49c4:	48 83 7d f0 00       	cmpq   $0x0,-0x10(%rbp)
    49c9:	74 26                	je     49f1 <safe_mod_func_int64_t_s_s+0x3d>
    49cb:	48 b8 00 00 00 00 00 	movabs $0x8000000000000000,%rax
    49d2:	00 00 80 
    49d5:	48 39 45 f8          	cmp    %rax,-0x8(%rbp)
    49d9:	75 07                	jne    49e2 <safe_mod_func_int64_t_s_s+0x2e>
    49db:	48 83 7d f0 ff       	cmpq   $0xffffffffffffffff,-0x10(%rbp)
    49e0:	74 0f                	je     49f1 <safe_mod_func_int64_t_s_s+0x3d>
    49e2:	48 8b 45 f8          	mov    -0x8(%rbp),%rax
    49e6:	48 99                	cqto   
    49e8:	48 f7 7d f0          	idivq  -0x10(%rbp)
    49ec:	48 89 d0             	mov    %rdx,%rax
    49ef:	eb 04                	jmp    49f5 <safe_mod_func_int64_t_s_s+0x41>
    49f1:	48 8b 45 f8          	mov    -0x8(%rbp),%rax
    49f5:	5d                   	pop    %rbp
    49f6:	c3                   	retq   

00000000000049f7 <safe_div_func_int64_t_s_s>:
    49f7:	f3 0f 1e fa          	endbr64 
    49fb:	55                   	push   %rbp
    49fc:	48 89 e5             	mov    %rsp,%rbp
    49ff:	48 89 7d f8          	mov    %rdi,-0x8(%rbp)
    4a03:	48 89 75 f0          	mov    %rsi,-0x10(%rbp)
    4a07:	48 83 7d f0 00       	cmpq   $0x0,-0x10(%rbp)
    4a0c:	74 23                	je     4a31 <safe_div_func_int64_t_s_s+0x3a>
    4a0e:	48 b8 00 00 00 00 00 	movabs $0x8000000000000000,%rax
    4a15:	00 00 80 
    4a18:	48 39 45 f8          	cmp    %rax,-0x8(%rbp)
    4a1c:	75 07                	jne    4a25 <safe_div_func_int64_t_s_s+0x2e>
    4a1e:	48 83 7d f0 ff       	cmpq   $0xffffffffffffffff,-0x10(%rbp)
    4a23:	74 0c                	je     4a31 <safe_div_func_int64_t_s_s+0x3a>
    4a25:	48 8b 45 f8          	mov    -0x8(%rbp),%rax
    4a29:	48 99                	cqto   
    4a2b:	48 f7 7d f0          	idivq  -0x10(%rbp)
    4a2f:	eb 04                	jmp    4a35 <safe_div_func_int64_t_s_s+0x3e>
    4a31:	48 8b 45 f8          	mov    -0x8(%rbp),%rax
    4a35:	5d                   	pop    %rbp
    4a36:	c3                   	retq   

0000000000004a37 <safe_lshift_func_int64_t_s_s>:
    4a37:	f3 0f 1e fa          	endbr64 
    4a3b:	55                   	push   %rbp
    4a3c:	48 89 e5             	mov    %rsp,%rbp
    4a3f:	48 89 7d f8          	mov    %rdi,-0x8(%rbp)
    4a43:	89 75 f4             	mov    %esi,-0xc(%rbp)
    4a46:	48 83 7d f8 00       	cmpq   $0x0,-0x8(%rbp)
    4a4b:	78 38                	js     4a85 <safe_lshift_func_int64_t_s_s+0x4e>
    4a4d:	83 7d f4 00          	cmpl   $0x0,-0xc(%rbp)
    4a51:	78 32                	js     4a85 <safe_lshift_func_int64_t_s_s+0x4e>
    4a53:	83 7d f4 1f          	cmpl   $0x1f,-0xc(%rbp)
    4a57:	7f 2c                	jg     4a85 <safe_lshift_func_int64_t_s_s+0x4e>
    4a59:	8b 45 f4             	mov    -0xc(%rbp),%eax
    4a5c:	48 ba ff ff ff ff ff 	movabs $0x7fffffffffffffff,%rdx
    4a63:	ff ff 7f 
    4a66:	89 c1                	mov    %eax,%ecx
    4a68:	48 d3 fa             	sar    %cl,%rdx
    4a6b:	48 89 d0             	mov    %rdx,%rax
    4a6e:	48 39 45 f8          	cmp    %rax,-0x8(%rbp)
    4a72:	7f 11                	jg     4a85 <safe_lshift_func_int64_t_s_s+0x4e>
    4a74:	8b 45 f4             	mov    -0xc(%rbp),%eax
    4a77:	48 8b 55 f8          	mov    -0x8(%rbp),%rdx
    4a7b:	89 c1                	mov    %eax,%ecx
    4a7d:	48 d3 e2             	shl    %cl,%rdx
    4a80:	48 89 d0             	mov    %rdx,%rax
    4a83:	eb 04                	jmp    4a89 <safe_lshift_func_int64_t_s_s+0x52>
    4a85:	48 8b 45 f8          	mov    -0x8(%rbp),%rax
    4a89:	5d                   	pop    %rbp
    4a8a:	c3                   	retq   

0000000000004a8b <safe_lshift_func_int64_t_s_u>:
    4a8b:	f3 0f 1e fa          	endbr64 
    4a8f:	55                   	push   %rbp
    4a90:	48 89 e5             	mov    %rsp,%rbp
    4a93:	48 89 7d f8          	mov    %rdi,-0x8(%rbp)
    4a97:	89 75 f4             	mov    %esi,-0xc(%rbp)
    4a9a:	48 83 7d f8 00       	cmpq   $0x0,-0x8(%rbp)
    4a9f:	78 32                	js     4ad3 <safe_lshift_func_int64_t_s_u+0x48>
    4aa1:	83 7d f4 1f          	cmpl   $0x1f,-0xc(%rbp)
    4aa5:	77 2c                	ja     4ad3 <safe_lshift_func_int64_t_s_u+0x48>
    4aa7:	8b 45 f4             	mov    -0xc(%rbp),%eax
    4aaa:	48 ba ff ff ff ff ff 	movabs $0x7fffffffffffffff,%rdx
    4ab1:	ff ff 7f 
    4ab4:	89 c1                	mov    %eax,%ecx
    4ab6:	48 d3 fa             	sar    %cl,%rdx
    4ab9:	48 89 d0             	mov    %rdx,%rax
    4abc:	48 39 45 f8          	cmp    %rax,-0x8(%rbp)
    4ac0:	7f 11                	jg     4ad3 <safe_lshift_func_int64_t_s_u+0x48>
    4ac2:	8b 45 f4             	mov    -0xc(%rbp),%eax
    4ac5:	48 8b 55 f8          	mov    -0x8(%rbp),%rdx
    4ac9:	89 c1                	mov    %eax,%ecx
    4acb:	48 d3 e2             	shl    %cl,%rdx
    4ace:	48 89 d0             	mov    %rdx,%rax
    4ad1:	eb 04                	jmp    4ad7 <safe_lshift_func_int64_t_s_u+0x4c>
    4ad3:	48 8b 45 f8          	mov    -0x8(%rbp),%rax
    4ad7:	5d                   	pop    %rbp
    4ad8:	c3                   	retq   

0000000000004ad9 <safe_rshift_func_int64_t_s_s>:
    4ad9:	f3 0f 1e fa          	endbr64 
    4add:	55                   	push   %rbp
    4ade:	48 89 e5             	mov    %rsp,%rbp
    4ae1:	48 89 7d f8          	mov    %rdi,-0x8(%rbp)
    4ae5:	89 75 f4             	mov    %esi,-0xc(%rbp)
    4ae8:	48 83 7d f8 00       	cmpq   $0x0,-0x8(%rbp)
    4aed:	78 1d                	js     4b0c <safe_rshift_func_int64_t_s_s+0x33>
    4aef:	83 7d f4 00          	cmpl   $0x0,-0xc(%rbp)
    4af3:	78 17                	js     4b0c <safe_rshift_func_int64_t_s_s+0x33>
    4af5:	83 7d f4 1f          	cmpl   $0x1f,-0xc(%rbp)
    4af9:	7f 11                	jg     4b0c <safe_rshift_func_int64_t_s_s+0x33>
    4afb:	8b 45 f4             	mov    -0xc(%rbp),%eax
    4afe:	48 8b 55 f8          	mov    -0x8(%rbp),%rdx
    4b02:	89 c1                	mov    %eax,%ecx
    4b04:	48 d3 fa             	sar    %cl,%rdx
    4b07:	48 89 d0             	mov    %rdx,%rax
    4b0a:	eb 04                	jmp    4b10 <safe_rshift_func_int64_t_s_s+0x37>
    4b0c:	48 8b 45 f8          	mov    -0x8(%rbp),%rax
    4b10:	5d                   	pop    %rbp
    4b11:	c3                   	retq   

0000000000004b12 <safe_rshift_func_int64_t_s_u>:
    4b12:	f3 0f 1e fa          	endbr64 
    4b16:	55                   	push   %rbp
    4b17:	48 89 e5             	mov    %rsp,%rbp
    4b1a:	48 89 7d f8          	mov    %rdi,-0x8(%rbp)
    4b1e:	89 75 f4             	mov    %esi,-0xc(%rbp)
    4b21:	48 83 7d f8 00       	cmpq   $0x0,-0x8(%rbp)
    4b26:	78 17                	js     4b3f <safe_rshift_func_int64_t_s_u+0x2d>
    4b28:	83 7d f4 1f          	cmpl   $0x1f,-0xc(%rbp)
    4b2c:	77 11                	ja     4b3f <safe_rshift_func_int64_t_s_u+0x2d>
    4b2e:	8b 45 f4             	mov    -0xc(%rbp),%eax
    4b31:	48 8b 55 f8          	mov    -0x8(%rbp),%rdx
    4b35:	89 c1                	mov    %eax,%ecx
    4b37:	48 d3 fa             	sar    %cl,%rdx
    4b3a:	48 89 d0             	mov    %rdx,%rax
    4b3d:	eb 04                	jmp    4b43 <safe_rshift_func_int64_t_s_u+0x31>
    4b3f:	48 8b 45 f8          	mov    -0x8(%rbp),%rax
    4b43:	5d                   	pop    %rbp
    4b44:	c3                   	retq   

0000000000004b45 <safe_unary_minus_func_uint8_t_u>:
    4b45:	f3 0f 1e fa          	endbr64 
    4b49:	55                   	push   %rbp
    4b4a:	48 89 e5             	mov    %rsp,%rbp
    4b4d:	89 f8                	mov    %edi,%eax
    4b4f:	88 45 fc             	mov    %al,-0x4(%rbp)
    4b52:	0f b6 45 fc          	movzbl -0x4(%rbp),%eax
    4b56:	f7 d8                	neg    %eax
    4b58:	5d                   	pop    %rbp
    4b59:	c3                   	retq   

0000000000004b5a <safe_add_func_uint8_t_u_u>:
    4b5a:	f3 0f 1e fa          	endbr64 
    4b5e:	55                   	push   %rbp
    4b5f:	48 89 e5             	mov    %rsp,%rbp
    4b62:	89 fa                	mov    %edi,%edx
    4b64:	89 f0                	mov    %esi,%eax
    4b66:	88 55 fc             	mov    %dl,-0x4(%rbp)
    4b69:	88 45 f8             	mov    %al,-0x8(%rbp)
    4b6c:	0f b6 55 fc          	movzbl -0x4(%rbp),%edx
    4b70:	0f b6 45 f8          	movzbl -0x8(%rbp),%eax
    4b74:	01 d0                	add    %edx,%eax
    4b76:	5d                   	pop    %rbp
    4b77:	c3                   	retq   

0000000000004b78 <safe_sub_func_uint8_t_u_u>:
    4b78:	f3 0f 1e fa          	endbr64 
    4b7c:	55                   	push   %rbp
    4b7d:	48 89 e5             	mov    %rsp,%rbp
    4b80:	89 fa                	mov    %edi,%edx
    4b82:	89 f0                	mov    %esi,%eax
    4b84:	88 55 fc             	mov    %dl,-0x4(%rbp)
    4b87:	88 45 f8             	mov    %al,-0x8(%rbp)
    4b8a:	0f b6 45 fc          	movzbl -0x4(%rbp),%eax
    4b8e:	2a 45 f8             	sub    -0x8(%rbp),%al
    4b91:	5d                   	pop    %rbp
    4b92:	c3                   	retq   

0000000000004b93 <safe_mul_func_uint8_t_u_u>:
    4b93:	f3 0f 1e fa          	endbr64 
    4b97:	55                   	push   %rbp
    4b98:	48 89 e5             	mov    %rsp,%rbp
    4b9b:	89 fa                	mov    %edi,%edx
    4b9d:	89 f0                	mov    %esi,%eax
    4b9f:	88 55 fc             	mov    %dl,-0x4(%rbp)
    4ba2:	88 45 f8             	mov    %al,-0x8(%rbp)
    4ba5:	0f b6 45 fc          	movzbl -0x4(%rbp),%eax
    4ba9:	f6 65 f8             	mulb   -0x8(%rbp)
    4bac:	5d                   	pop    %rbp
    4bad:	c3                   	retq   

0000000000004bae <safe_mod_func_uint8_t_u_u>:
    4bae:	f3 0f 1e fa          	endbr64 
    4bb2:	55                   	push   %rbp
    4bb3:	48 89 e5             	mov    %rsp,%rbp
    4bb6:	89 fa                	mov    %edi,%edx
    4bb8:	89 f0                	mov    %esi,%eax
    4bba:	88 55 fc             	mov    %dl,-0x4(%rbp)
    4bbd:	88 45 f8             	mov    %al,-0x8(%rbp)
    4bc0:	80 7d f8 00          	cmpb   $0x0,-0x8(%rbp)
    4bc4:	74 0f                	je     4bd5 <safe_mod_func_uint8_t_u_u+0x27>
    4bc6:	0f b6 45 fc          	movzbl -0x4(%rbp),%eax
    4bca:	0f b6 c0             	movzbl %al,%eax
    4bcd:	f6 75 f8             	divb   -0x8(%rbp)
    4bd0:	0f b6 c4             	movzbl %ah,%eax
    4bd3:	eb 04                	jmp    4bd9 <safe_mod_func_uint8_t_u_u+0x2b>
    4bd5:	0f b6 45 fc          	movzbl -0x4(%rbp),%eax
    4bd9:	5d                   	pop    %rbp
    4bda:	c3                   	retq   

0000000000004bdb <safe_div_func_uint8_t_u_u>:
    4bdb:	f3 0f 1e fa          	endbr64 
    4bdf:	55                   	push   %rbp
    4be0:	48 89 e5             	mov    %rsp,%rbp
    4be3:	89 fa                	mov    %edi,%edx
    4be5:	89 f0                	mov    %esi,%eax
    4be7:	88 55 fc             	mov    %dl,-0x4(%rbp)
    4bea:	88 45 f8             	mov    %al,-0x8(%rbp)
    4bed:	80 7d f8 00          	cmpb   $0x0,-0x8(%rbp)
    4bf1:	74 0c                	je     4bff <safe_div_func_uint8_t_u_u+0x24>
    4bf3:	0f b6 45 fc          	movzbl -0x4(%rbp),%eax
    4bf7:	0f b6 c0             	movzbl %al,%eax
    4bfa:	f6 75 f8             	divb   -0x8(%rbp)
    4bfd:	eb 04                	jmp    4c03 <safe_div_func_uint8_t_u_u+0x28>
    4bff:	0f b6 45 fc          	movzbl -0x4(%rbp),%eax
    4c03:	5d                   	pop    %rbp
    4c04:	c3                   	retq   

0000000000004c05 <safe_lshift_func_uint8_t_u_s>:
    4c05:	f3 0f 1e fa          	endbr64 
    4c09:	55                   	push   %rbp
    4c0a:	48 89 e5             	mov    %rsp,%rbp
    4c0d:	89 f8                	mov    %edi,%eax
    4c0f:	89 75 f8             	mov    %esi,-0x8(%rbp)
    4c12:	88 45 fc             	mov    %al,-0x4(%rbp)
    4c15:	83 7d f8 00          	cmpl   $0x0,-0x8(%rbp)
    4c19:	78 2b                	js     4c46 <safe_lshift_func_uint8_t_u_s+0x41>
    4c1b:	83 7d f8 1f          	cmpl   $0x1f,-0x8(%rbp)
    4c1f:	7f 25                	jg     4c46 <safe_lshift_func_uint8_t_u_s+0x41>
    4c21:	0f b6 55 fc          	movzbl -0x4(%rbp),%edx
    4c25:	8b 45 f8             	mov    -0x8(%rbp),%eax
    4c28:	be ff 00 00 00       	mov    $0xff,%esi
    4c2d:	89 c1                	mov    %eax,%ecx
    4c2f:	d3 fe                	sar    %cl,%esi
    4c31:	89 f0                	mov    %esi,%eax
    4c33:	39 c2                	cmp    %eax,%edx
    4c35:	7f 0f                	jg     4c46 <safe_lshift_func_uint8_t_u_s+0x41>
    4c37:	0f b6 55 fc          	movzbl -0x4(%rbp),%edx
    4c3b:	8b 45 f8             	mov    -0x8(%rbp),%eax
    4c3e:	89 c1                	mov    %eax,%ecx
    4c40:	d3 e2                	shl    %cl,%edx
    4c42:	89 d0                	mov    %edx,%eax
    4c44:	eb 04                	jmp    4c4a <safe_lshift_func_uint8_t_u_s+0x45>
    4c46:	0f b6 45 fc          	movzbl -0x4(%rbp),%eax
    4c4a:	5d                   	pop    %rbp
    4c4b:	c3                   	retq   

0000000000004c4c <safe_lshift_func_uint8_t_u_u>:
    4c4c:	f3 0f 1e fa          	endbr64 
    4c50:	55                   	push   %rbp
    4c51:	48 89 e5             	mov    %rsp,%rbp
    4c54:	89 f8                	mov    %edi,%eax
    4c56:	89 75 f8             	mov    %esi,-0x8(%rbp)
    4c59:	88 45 fc             	mov    %al,-0x4(%rbp)
    4c5c:	83 7d f8 1f          	cmpl   $0x1f,-0x8(%rbp)
    4c60:	77 25                	ja     4c87 <safe_lshift_func_uint8_t_u_u+0x3b>
    4c62:	0f b6 55 fc          	movzbl -0x4(%rbp),%edx
    4c66:	8b 45 f8             	mov    -0x8(%rbp),%eax
    4c69:	be ff 00 00 00       	mov    $0xff,%esi
    4c6e:	89 c1                	mov    %eax,%ecx
    4c70:	d3 fe                	sar    %cl,%esi
    4c72:	89 f0                	mov    %esi,%eax
    4c74:	39 c2                	cmp    %eax,%edx
    4c76:	7f 0f                	jg     4c87 <safe_lshift_func_uint8_t_u_u+0x3b>
    4c78:	0f b6 55 fc          	movzbl -0x4(%rbp),%edx
    4c7c:	8b 45 f8             	mov    -0x8(%rbp),%eax
    4c7f:	89 c1                	mov    %eax,%ecx
    4c81:	d3 e2                	shl    %cl,%edx
    4c83:	89 d0                	mov    %edx,%eax
    4c85:	eb 04                	jmp    4c8b <safe_lshift_func_uint8_t_u_u+0x3f>
    4c87:	0f b6 45 fc          	movzbl -0x4(%rbp),%eax
    4c8b:	5d                   	pop    %rbp
    4c8c:	c3                   	retq   

0000000000004c8d <safe_rshift_func_uint8_t_u_s>:
    4c8d:	f3 0f 1e fa          	endbr64 
    4c91:	55                   	push   %rbp
    4c92:	48 89 e5             	mov    %rsp,%rbp
    4c95:	89 f8                	mov    %edi,%eax
    4c97:	89 75 f8             	mov    %esi,-0x8(%rbp)
    4c9a:	88 45 fc             	mov    %al,-0x4(%rbp)
    4c9d:	83 7d f8 00          	cmpl   $0x0,-0x8(%rbp)
    4ca1:	78 15                	js     4cb8 <safe_rshift_func_uint8_t_u_s+0x2b>
    4ca3:	83 7d f8 1f          	cmpl   $0x1f,-0x8(%rbp)
    4ca7:	7f 0f                	jg     4cb8 <safe_rshift_func_uint8_t_u_s+0x2b>
    4ca9:	0f b6 55 fc          	movzbl -0x4(%rbp),%edx
    4cad:	8b 45 f8             	mov    -0x8(%rbp),%eax
    4cb0:	89 c1                	mov    %eax,%ecx
    4cb2:	d3 fa                	sar    %cl,%edx
    4cb4:	89 d0                	mov    %edx,%eax
    4cb6:	eb 04                	jmp    4cbc <safe_rshift_func_uint8_t_u_s+0x2f>
    4cb8:	0f b6 45 fc          	movzbl -0x4(%rbp),%eax
    4cbc:	5d                   	pop    %rbp
    4cbd:	c3                   	retq   

0000000000004cbe <safe_rshift_func_uint8_t_u_u>:
    4cbe:	f3 0f 1e fa          	endbr64 
    4cc2:	55                   	push   %rbp
    4cc3:	48 89 e5             	mov    %rsp,%rbp
    4cc6:	89 f8                	mov    %edi,%eax
    4cc8:	89 75 f8             	mov    %esi,-0x8(%rbp)
    4ccb:	88 45 fc             	mov    %al,-0x4(%rbp)
    4cce:	83 7d f8 1f          	cmpl   $0x1f,-0x8(%rbp)
    4cd2:	77 0f                	ja     4ce3 <safe_rshift_func_uint8_t_u_u+0x25>
    4cd4:	0f b6 55 fc          	movzbl -0x4(%rbp),%edx
    4cd8:	8b 45 f8             	mov    -0x8(%rbp),%eax
    4cdb:	89 c1                	mov    %eax,%ecx
    4cdd:	d3 fa                	sar    %cl,%edx
    4cdf:	89 d0                	mov    %edx,%eax
    4ce1:	eb 04                	jmp    4ce7 <safe_rshift_func_uint8_t_u_u+0x29>
    4ce3:	0f b6 45 fc          	movzbl -0x4(%rbp),%eax
    4ce7:	5d                   	pop    %rbp
    4ce8:	c3                   	retq   

0000000000004ce9 <safe_unary_minus_func_uint16_t_u>:
    4ce9:	f3 0f 1e fa          	endbr64 
    4ced:	55                   	push   %rbp
    4cee:	48 89 e5             	mov    %rsp,%rbp
    4cf1:	89 f8                	mov    %edi,%eax
    4cf3:	66 89 45 fc          	mov    %ax,-0x4(%rbp)
    4cf7:	0f b7 45 fc          	movzwl -0x4(%rbp),%eax
    4cfb:	f7 d8                	neg    %eax
    4cfd:	5d                   	pop    %rbp
    4cfe:	c3                   	retq   

0000000000004cff <safe_add_func_uint16_t_u_u>:
    4cff:	f3 0f 1e fa          	endbr64 
    4d03:	55                   	push   %rbp
    4d04:	48 89 e5             	mov    %rsp,%rbp
    4d07:	89 fa                	mov    %edi,%edx
    4d09:	89 f0                	mov    %esi,%eax
    4d0b:	66 89 55 fc          	mov    %dx,-0x4(%rbp)
    4d0f:	66 89 45 f8          	mov    %ax,-0x8(%rbp)
    4d13:	0f b7 55 fc          	movzwl -0x4(%rbp),%edx
    4d17:	0f b7 45 f8          	movzwl -0x8(%rbp),%eax
    4d1b:	01 d0                	add    %edx,%eax
    4d1d:	5d                   	pop    %rbp
    4d1e:	c3                   	retq   

0000000000004d1f <safe_sub_func_uint16_t_u_u>:
    4d1f:	f3 0f 1e fa          	endbr64 
    4d23:	55                   	push   %rbp
    4d24:	48 89 e5             	mov    %rsp,%rbp
    4d27:	89 fa                	mov    %edi,%edx
    4d29:	89 f0                	mov    %esi,%eax
    4d2b:	66 89 55 fc          	mov    %dx,-0x4(%rbp)
    4d2f:	66 89 45 f8          	mov    %ax,-0x8(%rbp)
    4d33:	0f b7 45 fc          	movzwl -0x4(%rbp),%eax
    4d37:	66 2b 45 f8          	sub    -0x8(%rbp),%ax
    4d3b:	5d                   	pop    %rbp
    4d3c:	c3                   	retq   

0000000000004d3d <safe_mul_func_uint16_t_u_u>:
    4d3d:	f3 0f 1e fa          	endbr64 
    4d41:	55                   	push   %rbp
    4d42:	48 89 e5             	mov    %rsp,%rbp
    4d45:	89 fa                	mov    %edi,%edx
    4d47:	89 f0                	mov    %esi,%eax
    4d49:	66 89 55 fc          	mov    %dx,-0x4(%rbp)
    4d4d:	66 89 45 f8          	mov    %ax,-0x8(%rbp)
    4d51:	0f b7 45 fc          	movzwl -0x4(%rbp),%eax
    4d55:	66 0f af 45 f8       	imul   -0x8(%rbp),%ax
    4d5a:	5d                   	pop    %rbp
    4d5b:	c3                   	retq   

0000000000004d5c <safe_mod_func_uint16_t_u_u>:
    4d5c:	f3 0f 1e fa          	endbr64 
    4d60:	55                   	push   %rbp
    4d61:	48 89 e5             	mov    %rsp,%rbp
    4d64:	89 fa                	mov    %edi,%edx
    4d66:	89 f0                	mov    %esi,%eax
    4d68:	66 89 55 fc          	mov    %dx,-0x4(%rbp)
    4d6c:	66 89 45 f8          	mov    %ax,-0x8(%rbp)
    4d70:	66 83 7d f8 00       	cmpw   $0x0,-0x8(%rbp)
    4d75:	74 11                	je     4d88 <safe_mod_func_uint16_t_u_u+0x2c>
    4d77:	0f b7 45 fc          	movzwl -0x4(%rbp),%eax
    4d7b:	ba 00 00 00 00       	mov    $0x0,%edx
    4d80:	66 f7 75 f8          	divw   -0x8(%rbp)
    4d84:	89 d0                	mov    %edx,%eax
    4d86:	eb 04                	jmp    4d8c <safe_mod_func_uint16_t_u_u+0x30>
    4d88:	0f b7 45 fc          	movzwl -0x4(%rbp),%eax
    4d8c:	5d                   	pop    %rbp
    4d8d:	c3                   	retq   

0000000000004d8e <safe_div_func_uint16_t_u_u>:
    4d8e:	f3 0f 1e fa          	endbr64 
    4d92:	55                   	push   %rbp
    4d93:	48 89 e5             	mov    %rsp,%rbp
    4d96:	89 fa                	mov    %edi,%edx
    4d98:	89 f0                	mov    %esi,%eax
    4d9a:	66 89 55 fc          	mov    %dx,-0x4(%rbp)
    4d9e:	66 89 45 f8          	mov    %ax,-0x8(%rbp)
    4da2:	66 83 7d f8 00       	cmpw   $0x0,-0x8(%rbp)
    4da7:	74 0f                	je     4db8 <safe_div_func_uint16_t_u_u+0x2a>
    4da9:	0f b7 45 fc          	movzwl -0x4(%rbp),%eax
    4dad:	ba 00 00 00 00       	mov    $0x0,%edx
    4db2:	66 f7 75 f8          	divw   -0x8(%rbp)
    4db6:	eb 04                	jmp    4dbc <safe_div_func_uint16_t_u_u+0x2e>
    4db8:	0f b7 45 fc          	movzwl -0x4(%rbp),%eax
    4dbc:	5d                   	pop    %rbp
    4dbd:	c3                   	retq   

0000000000004dbe <safe_lshift_func_uint16_t_u_s>:
    4dbe:	f3 0f 1e fa          	endbr64 
    4dc2:	55                   	push   %rbp
    4dc3:	48 89 e5             	mov    %rsp,%rbp
    4dc6:	89 f8                	mov    %edi,%eax
    4dc8:	89 75 f8             	mov    %esi,-0x8(%rbp)
    4dcb:	66 89 45 fc          	mov    %ax,-0x4(%rbp)
    4dcf:	83 7d f8 00          	cmpl   $0x0,-0x8(%rbp)
    4dd3:	78 2b                	js     4e00 <safe_lshift_func_uint16_t_u_s+0x42>
    4dd5:	83 7d f8 1f          	cmpl   $0x1f,-0x8(%rbp)
    4dd9:	7f 25                	jg     4e00 <safe_lshift_func_uint16_t_u_s+0x42>
    4ddb:	0f b7 55 fc          	movzwl -0x4(%rbp),%edx
    4ddf:	8b 45 f8             	mov    -0x8(%rbp),%eax
    4de2:	be ff ff 00 00       	mov    $0xffff,%esi
    4de7:	89 c1                	mov    %eax,%ecx
    4de9:	d3 fe                	sar    %cl,%esi
    4deb:	89 f0                	mov    %esi,%eax
    4ded:	39 c2                	cmp    %eax,%edx
    4def:	7f 0f                	jg     4e00 <safe_lshift_func_uint16_t_u_s+0x42>
    4df1:	0f b7 55 fc          	movzwl -0x4(%rbp),%edx
    4df5:	8b 45 f8             	mov    -0x8(%rbp),%eax
    4df8:	89 c1                	mov    %eax,%ecx
    4dfa:	d3 e2                	shl    %cl,%edx
    4dfc:	89 d0                	mov    %edx,%eax
    4dfe:	eb 04                	jmp    4e04 <safe_lshift_func_uint16_t_u_s+0x46>
    4e00:	0f b7 45 fc          	movzwl -0x4(%rbp),%eax
    4e04:	5d                   	pop    %rbp
    4e05:	c3                   	retq   

0000000000004e06 <safe_lshift_func_uint16_t_u_u>:
    4e06:	f3 0f 1e fa          	endbr64 
    4e0a:	55                   	push   %rbp
    4e0b:	48 89 e5             	mov    %rsp,%rbp
    4e0e:	89 f8                	mov    %edi,%eax
    4e10:	89 75 f8             	mov    %esi,-0x8(%rbp)
    4e13:	66 89 45 fc          	mov    %ax,-0x4(%rbp)
    4e17:	83 7d f8 1f          	cmpl   $0x1f,-0x8(%rbp)
    4e1b:	77 25                	ja     4e42 <safe_lshift_func_uint16_t_u_u+0x3c>
    4e1d:	0f b7 55 fc          	movzwl -0x4(%rbp),%edx
    4e21:	8b 45 f8             	mov    -0x8(%rbp),%eax
    4e24:	be ff ff 00 00       	mov    $0xffff,%esi
    4e29:	89 c1                	mov    %eax,%ecx
    4e2b:	d3 fe                	sar    %cl,%esi
    4e2d:	89 f0                	mov    %esi,%eax
    4e2f:	39 c2                	cmp    %eax,%edx
    4e31:	7f 0f                	jg     4e42 <safe_lshift_func_uint16_t_u_u+0x3c>
    4e33:	0f b7 55 fc          	movzwl -0x4(%rbp),%edx
    4e37:	8b 45 f8             	mov    -0x8(%rbp),%eax
    4e3a:	89 c1                	mov    %eax,%ecx
    4e3c:	d3 e2                	shl    %cl,%edx
    4e3e:	89 d0                	mov    %edx,%eax
    4e40:	eb 04                	jmp    4e46 <safe_lshift_func_uint16_t_u_u+0x40>
    4e42:	0f b7 45 fc          	movzwl -0x4(%rbp),%eax
    4e46:	5d                   	pop    %rbp
    4e47:	c3                   	retq   

0000000000004e48 <safe_rshift_func_uint16_t_u_s>:
    4e48:	f3 0f 1e fa          	endbr64 
    4e4c:	55                   	push   %rbp
    4e4d:	48 89 e5             	mov    %rsp,%rbp
    4e50:	89 f8                	mov    %edi,%eax
    4e52:	89 75 f8             	mov    %esi,-0x8(%rbp)
    4e55:	66 89 45 fc          	mov    %ax,-0x4(%rbp)
    4e59:	83 7d f8 00          	cmpl   $0x0,-0x8(%rbp)
    4e5d:	78 15                	js     4e74 <safe_rshift_func_uint16_t_u_s+0x2c>
    4e5f:	83 7d f8 1f          	cmpl   $0x1f,-0x8(%rbp)
    4e63:	7f 0f                	jg     4e74 <safe_rshift_func_uint16_t_u_s+0x2c>
    4e65:	0f b7 55 fc          	movzwl -0x4(%rbp),%edx
    4e69:	8b 45 f8             	mov    -0x8(%rbp),%eax
    4e6c:	89 c1                	mov    %eax,%ecx
    4e6e:	d3 fa                	sar    %cl,%edx
    4e70:	89 d0                	mov    %edx,%eax
    4e72:	eb 04                	jmp    4e78 <safe_rshift_func_uint16_t_u_s+0x30>
    4e74:	0f b7 45 fc          	movzwl -0x4(%rbp),%eax
    4e78:	5d                   	pop    %rbp
    4e79:	c3                   	retq   

0000000000004e7a <safe_rshift_func_uint16_t_u_u>:
    4e7a:	f3 0f 1e fa          	endbr64 
    4e7e:	55                   	push   %rbp
    4e7f:	48 89 e5             	mov    %rsp,%rbp
    4e82:	89 f8                	mov    %edi,%eax
    4e84:	89 75 f8             	mov    %esi,-0x8(%rbp)
    4e87:	66 89 45 fc          	mov    %ax,-0x4(%rbp)
    4e8b:	83 7d f8 1f          	cmpl   $0x1f,-0x8(%rbp)
    4e8f:	77 0f                	ja     4ea0 <safe_rshift_func_uint16_t_u_u+0x26>
    4e91:	0f b7 55 fc          	movzwl -0x4(%rbp),%edx
    4e95:	8b 45 f8             	mov    -0x8(%rbp),%eax
    4e98:	89 c1                	mov    %eax,%ecx
    4e9a:	d3 fa                	sar    %cl,%edx
    4e9c:	89 d0                	mov    %edx,%eax
    4e9e:	eb 04                	jmp    4ea4 <safe_rshift_func_uint16_t_u_u+0x2a>
    4ea0:	0f b7 45 fc          	movzwl -0x4(%rbp),%eax
    4ea4:	5d                   	pop    %rbp
    4ea5:	c3                   	retq   

0000000000004ea6 <safe_unary_minus_func_uint32_t_u>:
    4ea6:	f3 0f 1e fa          	endbr64 
    4eaa:	55                   	push   %rbp
    4eab:	48 89 e5             	mov    %rsp,%rbp
    4eae:	89 7d fc             	mov    %edi,-0x4(%rbp)
    4eb1:	8b 45 fc             	mov    -0x4(%rbp),%eax
    4eb4:	f7 d8                	neg    %eax
    4eb6:	5d                   	pop    %rbp
    4eb7:	c3                   	retq   

0000000000004eb8 <safe_add_func_uint32_t_u_u>:
    4eb8:	f3 0f 1e fa          	endbr64 
    4ebc:	55                   	push   %rbp
    4ebd:	48 89 e5             	mov    %rsp,%rbp
    4ec0:	89 7d fc             	mov    %edi,-0x4(%rbp)
    4ec3:	89 75 f8             	mov    %esi,-0x8(%rbp)
    4ec6:	8b 55 fc             	mov    -0x4(%rbp),%edx
    4ec9:	8b 45 f8             	mov    -0x8(%rbp),%eax
    4ecc:	01 d0                	add    %edx,%eax
    4ece:	5d                   	pop    %rbp
    4ecf:	c3                   	retq   

0000000000004ed0 <safe_sub_func_uint32_t_u_u>:
    4ed0:	f3 0f 1e fa          	endbr64 
    4ed4:	55                   	push   %rbp
    4ed5:	48 89 e5             	mov    %rsp,%rbp
    4ed8:	89 7d fc             	mov    %edi,-0x4(%rbp)
    4edb:	89 75 f8             	mov    %esi,-0x8(%rbp)
    4ede:	8b 45 fc             	mov    -0x4(%rbp),%eax
    4ee1:	2b 45 f8             	sub    -0x8(%rbp),%eax
    4ee4:	5d                   	pop    %rbp
    4ee5:	c3                   	retq   

0000000000004ee6 <safe_mul_func_uint32_t_u_u>:
    4ee6:	f3 0f 1e fa          	endbr64 
    4eea:	55                   	push   %rbp
    4eeb:	48 89 e5             	mov    %rsp,%rbp
    4eee:	89 7d fc             	mov    %edi,-0x4(%rbp)
    4ef1:	89 75 f8             	mov    %esi,-0x8(%rbp)
    4ef4:	8b 45 fc             	mov    -0x4(%rbp),%eax
    4ef7:	0f af 45 f8          	imul   -0x8(%rbp),%eax
    4efb:	5d                   	pop    %rbp
    4efc:	c3                   	retq   

0000000000004efd <safe_mod_func_uint32_t_u_u>:
    4efd:	f3 0f 1e fa          	endbr64 
    4f01:	55                   	push   %rbp
    4f02:	48 89 e5             	mov    %rsp,%rbp
    4f05:	89 7d fc             	mov    %edi,-0x4(%rbp)
    4f08:	89 75 f8             	mov    %esi,-0x8(%rbp)
    4f0b:	83 7d f8 00          	cmpl   $0x0,-0x8(%rbp)
    4f0f:	74 0f                	je     4f20 <safe_mod_func_uint32_t_u_u+0x23>
    4f11:	8b 45 fc             	mov    -0x4(%rbp),%eax
    4f14:	ba 00 00 00 00       	mov    $0x0,%edx
    4f19:	f7 75 f8             	divl   -0x8(%rbp)
    4f1c:	89 d0                	mov    %edx,%eax
    4f1e:	eb 03                	jmp    4f23 <safe_mod_func_uint32_t_u_u+0x26>
    4f20:	8b 45 fc             	mov    -0x4(%rbp),%eax
    4f23:	5d                   	pop    %rbp
    4f24:	c3                   	retq   

0000000000004f25 <safe_div_func_uint32_t_u_u>:
    4f25:	f3 0f 1e fa          	endbr64 
    4f29:	55                   	push   %rbp
    4f2a:	48 89 e5             	mov    %rsp,%rbp
    4f2d:	89 7d fc             	mov    %edi,-0x4(%rbp)
    4f30:	89 75 f8             	mov    %esi,-0x8(%rbp)
    4f33:	83 7d f8 00          	cmpl   $0x0,-0x8(%rbp)
    4f37:	74 0d                	je     4f46 <safe_div_func_uint32_t_u_u+0x21>
    4f39:	8b 45 fc             	mov    -0x4(%rbp),%eax
    4f3c:	ba 00 00 00 00       	mov    $0x0,%edx
    4f41:	f7 75 f8             	divl   -0x8(%rbp)
    4f44:	eb 03                	jmp    4f49 <safe_div_func_uint32_t_u_u+0x24>
    4f46:	8b 45 fc             	mov    -0x4(%rbp),%eax
    4f49:	5d                   	pop    %rbp
    4f4a:	c3                   	retq   

0000000000004f4b <safe_lshift_func_uint32_t_u_s>:
    4f4b:	f3 0f 1e fa          	endbr64 
    4f4f:	55                   	push   %rbp
    4f50:	48 89 e5             	mov    %rsp,%rbp
    4f53:	89 7d fc             	mov    %edi,-0x4(%rbp)
    4f56:	89 75 f8             	mov    %esi,-0x8(%rbp)
    4f59:	83 7d f8 00          	cmpl   $0x0,-0x8(%rbp)
    4f5d:	78 27                	js     4f86 <safe_lshift_func_uint32_t_u_s+0x3b>
    4f5f:	83 7d f8 1f          	cmpl   $0x1f,-0x8(%rbp)
    4f63:	7f 21                	jg     4f86 <safe_lshift_func_uint32_t_u_s+0x3b>
    4f65:	8b 45 f8             	mov    -0x8(%rbp),%eax
    4f68:	ba ff ff ff ff       	mov    $0xffffffff,%edx
    4f6d:	89 c1                	mov    %eax,%ecx
    4f6f:	d3 ea                	shr    %cl,%edx
    4f71:	89 d0                	mov    %edx,%eax
    4f73:	39 45 fc             	cmp    %eax,-0x4(%rbp)
    4f76:	77 0e                	ja     4f86 <safe_lshift_func_uint32_t_u_s+0x3b>
    4f78:	8b 45 f8             	mov    -0x8(%rbp),%eax
    4f7b:	8b 55 fc             	mov    -0x4(%rbp),%edx
    4f7e:	89 c1                	mov    %eax,%ecx
    4f80:	d3 e2                	shl    %cl,%edx
    4f82:	89 d0                	mov    %edx,%eax
    4f84:	eb 03                	jmp    4f89 <safe_lshift_func_uint32_t_u_s+0x3e>
    4f86:	8b 45 fc             	mov    -0x4(%rbp),%eax
    4f89:	5d                   	pop    %rbp
    4f8a:	c3                   	retq   

0000000000004f8b <safe_lshift_func_uint32_t_u_u>:
    4f8b:	f3 0f 1e fa          	endbr64 
    4f8f:	55                   	push   %rbp
    4f90:	48 89 e5             	mov    %rsp,%rbp
    4f93:	89 7d fc             	mov    %edi,-0x4(%rbp)
    4f96:	89 75 f8             	mov    %esi,-0x8(%rbp)
    4f99:	83 7d f8 1f          	cmpl   $0x1f,-0x8(%rbp)
    4f9d:	77 21                	ja     4fc0 <safe_lshift_func_uint32_t_u_u+0x35>
    4f9f:	8b 45 f8             	mov    -0x8(%rbp),%eax
    4fa2:	ba ff ff ff ff       	mov    $0xffffffff,%edx
    4fa7:	89 c1                	mov    %eax,%ecx
    4fa9:	d3 ea                	shr    %cl,%edx
    4fab:	89 d0                	mov    %edx,%eax
    4fad:	39 45 fc             	cmp    %eax,-0x4(%rbp)
    4fb0:	77 0e                	ja     4fc0 <safe_lshift_func_uint32_t_u_u+0x35>
    4fb2:	8b 45 f8             	mov    -0x8(%rbp),%eax
    4fb5:	8b 55 fc             	mov    -0x4(%rbp),%edx
    4fb8:	89 c1                	mov    %eax,%ecx
    4fba:	d3 e2                	shl    %cl,%edx
    4fbc:	89 d0                	mov    %edx,%eax
    4fbe:	eb 03                	jmp    4fc3 <safe_lshift_func_uint32_t_u_u+0x38>
    4fc0:	8b 45 fc             	mov    -0x4(%rbp),%eax
    4fc3:	5d                   	pop    %rbp
    4fc4:	c3                   	retq   

0000000000004fc5 <safe_rshift_func_uint32_t_u_s>:
    4fc5:	f3 0f 1e fa          	endbr64 
    4fc9:	55                   	push   %rbp
    4fca:	48 89 e5             	mov    %rsp,%rbp
    4fcd:	89 7d fc             	mov    %edi,-0x4(%rbp)
    4fd0:	89 75 f8             	mov    %esi,-0x8(%rbp)
    4fd3:	83 7d f8 00          	cmpl   $0x0,-0x8(%rbp)
    4fd7:	78 14                	js     4fed <safe_rshift_func_uint32_t_u_s+0x28>
    4fd9:	83 7d f8 1f          	cmpl   $0x1f,-0x8(%rbp)
    4fdd:	7f 0e                	jg     4fed <safe_rshift_func_uint32_t_u_s+0x28>
    4fdf:	8b 45 f8             	mov    -0x8(%rbp),%eax
    4fe2:	8b 55 fc             	mov    -0x4(%rbp),%edx
    4fe5:	89 c1                	mov    %eax,%ecx
    4fe7:	d3 ea                	shr    %cl,%edx
    4fe9:	89 d0                	mov    %edx,%eax
    4feb:	eb 03                	jmp    4ff0 <safe_rshift_func_uint32_t_u_s+0x2b>
    4fed:	8b 45 fc             	mov    -0x4(%rbp),%eax
    4ff0:	5d                   	pop    %rbp
    4ff1:	c3                   	retq   

0000000000004ff2 <safe_rshift_func_uint32_t_u_u>:
    4ff2:	f3 0f 1e fa          	endbr64 
    4ff6:	55                   	push   %rbp
    4ff7:	48 89 e5             	mov    %rsp,%rbp
    4ffa:	89 7d fc             	mov    %edi,-0x4(%rbp)
    4ffd:	89 75 f8             	mov    %esi,-0x8(%rbp)
    5000:	83 7d f8 1f          	cmpl   $0x1f,-0x8(%rbp)
    5004:	77 0e                	ja     5014 <safe_rshift_func_uint32_t_u_u+0x22>
    5006:	8b 45 f8             	mov    -0x8(%rbp),%eax
    5009:	8b 55 fc             	mov    -0x4(%rbp),%edx
    500c:	89 c1                	mov    %eax,%ecx
    500e:	d3 ea                	shr    %cl,%edx
    5010:	89 d0                	mov    %edx,%eax
    5012:	eb 03                	jmp    5017 <safe_rshift_func_uint32_t_u_u+0x25>
    5014:	8b 45 fc             	mov    -0x4(%rbp),%eax
    5017:	5d                   	pop    %rbp
    5018:	c3                   	retq   

0000000000005019 <safe_unary_minus_func_uint64_t_u>:
    5019:	f3 0f 1e fa          	endbr64 
    501d:	55                   	push   %rbp
    501e:	48 89 e5             	mov    %rsp,%rbp
    5021:	48 89 7d f8          	mov    %rdi,-0x8(%rbp)
    5025:	48 8b 45 f8          	mov    -0x8(%rbp),%rax
    5029:	48 f7 d8             	neg    %rax
    502c:	5d                   	pop    %rbp
    502d:	c3                   	retq   

000000000000502e <safe_add_func_uint64_t_u_u>:
    502e:	f3 0f 1e fa          	endbr64 
    5032:	55                   	push   %rbp
    5033:	48 89 e5             	mov    %rsp,%rbp
    5036:	48 89 7d f8          	mov    %rdi,-0x8(%rbp)
    503a:	48 89 75 f0          	mov    %rsi,-0x10(%rbp)
    503e:	48 8b 55 f8          	mov    -0x8(%rbp),%rdx
    5042:	48 8b 45 f0          	mov    -0x10(%rbp),%rax
    5046:	48 01 d0             	add    %rdx,%rax
    5049:	5d                   	pop    %rbp
    504a:	c3                   	retq   

000000000000504b <safe_sub_func_uint64_t_u_u>:
    504b:	f3 0f 1e fa          	endbr64 
    504f:	55                   	push   %rbp
    5050:	48 89 e5             	mov    %rsp,%rbp
    5053:	48 89 7d f8          	mov    %rdi,-0x8(%rbp)
    5057:	48 89 75 f0          	mov    %rsi,-0x10(%rbp)
    505b:	48 8b 45 f8          	mov    -0x8(%rbp),%rax
    505f:	48 2b 45 f0          	sub    -0x10(%rbp),%rax
    5063:	5d                   	pop    %rbp
    5064:	c3                   	retq   

0000000000005065 <safe_mul_func_uint64_t_u_u>:
    5065:	f3 0f 1e fa          	endbr64 
    5069:	55                   	push   %rbp
    506a:	48 89 e5             	mov    %rsp,%rbp
    506d:	48 89 7d f8          	mov    %rdi,-0x8(%rbp)
    5071:	48 89 75 f0          	mov    %rsi,-0x10(%rbp)
    5075:	48 8b 45 f8          	mov    -0x8(%rbp),%rax
    5079:	48 0f af 45 f0       	imul   -0x10(%rbp),%rax
    507e:	5d                   	pop    %rbp
    507f:	c3                   	retq   

0000000000005080 <safe_mod_func_uint64_t_u_u>:
    5080:	f3 0f 1e fa          	endbr64 
    5084:	55                   	push   %rbp
    5085:	48 89 e5             	mov    %rsp,%rbp
    5088:	48 89 7d f8          	mov    %rdi,-0x8(%rbp)
    508c:	48 89 75 f0          	mov    %rsi,-0x10(%rbp)
    5090:	48 83 7d f0 00       	cmpq   $0x0,-0x10(%rbp)
    5095:	74 12                	je     50a9 <safe_mod_func_uint64_t_u_u+0x29>
    5097:	48 8b 45 f8          	mov    -0x8(%rbp),%rax
    509b:	ba 00 00 00 00       	mov    $0x0,%edx
    50a0:	48 f7 75 f0          	divq   -0x10(%rbp)
    50a4:	48 89 d0             	mov    %rdx,%rax
    50a7:	eb 04                	jmp    50ad <safe_mod_func_uint64_t_u_u+0x2d>
    50a9:	48 8b 45 f8          	mov    -0x8(%rbp),%rax
    50ad:	5d                   	pop    %rbp
    50ae:	c3                   	retq   

00000000000050af <safe_div_func_uint64_t_u_u>:
    50af:	f3 0f 1e fa          	endbr64 
    50b3:	55                   	push   %rbp
    50b4:	48 89 e5             	mov    %rsp,%rbp
    50b7:	48 89 7d f8          	mov    %rdi,-0x8(%rbp)
    50bb:	48 89 75 f0          	mov    %rsi,-0x10(%rbp)
    50bf:	48 83 7d f0 00       	cmpq   $0x0,-0x10(%rbp)
    50c4:	74 0f                	je     50d5 <safe_div_func_uint64_t_u_u+0x26>
    50c6:	48 8b 45 f8          	mov    -0x8(%rbp),%rax
    50ca:	ba 00 00 00 00       	mov    $0x0,%edx
    50cf:	48 f7 75 f0          	divq   -0x10(%rbp)
    50d3:	eb 04                	jmp    50d9 <safe_div_func_uint64_t_u_u+0x2a>
    50d5:	48 8b 45 f8          	mov    -0x8(%rbp),%rax
    50d9:	5d                   	pop    %rbp
    50da:	c3                   	retq   

00000000000050db <safe_lshift_func_uint64_t_u_s>:
    50db:	f3 0f 1e fa          	endbr64 
    50df:	55                   	push   %rbp
    50e0:	48 89 e5             	mov    %rsp,%rbp
    50e3:	48 89 7d f8          	mov    %rdi,-0x8(%rbp)
    50e7:	89 75 f4             	mov    %esi,-0xc(%rbp)
    50ea:	83 7d f4 00          	cmpl   $0x0,-0xc(%rbp)
    50ee:	78 2f                	js     511f <safe_lshift_func_uint64_t_u_s+0x44>
    50f0:	83 7d f4 1f          	cmpl   $0x1f,-0xc(%rbp)
    50f4:	7f 29                	jg     511f <safe_lshift_func_uint64_t_u_s+0x44>
    50f6:	8b 45 f4             	mov    -0xc(%rbp),%eax
    50f9:	48 c7 c2 ff ff ff ff 	mov    $0xffffffffffffffff,%rdx
    5100:	89 c1                	mov    %eax,%ecx
    5102:	48 d3 ea             	shr    %cl,%rdx
    5105:	48 89 d0             	mov    %rdx,%rax
    5108:	48 39 45 f8          	cmp    %rax,-0x8(%rbp)
    510c:	77 11                	ja     511f <safe_lshift_func_uint64_t_u_s+0x44>
    510e:	8b 45 f4             	mov    -0xc(%rbp),%eax
    5111:	48 8b 55 f8          	mov    -0x8(%rbp),%rdx
    5115:	89 c1                	mov    %eax,%ecx
    5117:	48 d3 e2             	shl    %cl,%rdx
    511a:	48 89 d0             	mov    %rdx,%rax
    511d:	eb 04                	jmp    5123 <safe_lshift_func_uint64_t_u_s+0x48>
    511f:	48 8b 45 f8          	mov    -0x8(%rbp),%rax
    5123:	5d                   	pop    %rbp
    5124:	c3                   	retq   

0000000000005125 <safe_lshift_func_uint64_t_u_u>:
    5125:	f3 0f 1e fa          	endbr64 
    5129:	55                   	push   %rbp
    512a:	48 89 e5             	mov    %rsp,%rbp
    512d:	48 89 7d f8          	mov    %rdi,-0x8(%rbp)
    5131:	89 75 f4             	mov    %esi,-0xc(%rbp)
    5134:	83 7d f4 1f          	cmpl   $0x1f,-0xc(%rbp)
    5138:	77 29                	ja     5163 <safe_lshift_func_uint64_t_u_u+0x3e>
    513a:	8b 45 f4             	mov    -0xc(%rbp),%eax
    513d:	48 c7 c2 ff ff ff ff 	mov    $0xffffffffffffffff,%rdx
    5144:	89 c1                	mov    %eax,%ecx
    5146:	48 d3 ea             	shr    %cl,%rdx
    5149:	48 89 d0             	mov    %rdx,%rax
    514c:	48 39 45 f8          	cmp    %rax,-0x8(%rbp)
    5150:	77 11                	ja     5163 <safe_lshift_func_uint64_t_u_u+0x3e>
    5152:	8b 45 f4             	mov    -0xc(%rbp),%eax
    5155:	48 8b 55 f8          	mov    -0x8(%rbp),%rdx
    5159:	89 c1                	mov    %eax,%ecx
    515b:	48 d3 e2             	shl    %cl,%rdx
    515e:	48 89 d0             	mov    %rdx,%rax
    5161:	eb 04                	jmp    5167 <safe_lshift_func_uint64_t_u_u+0x42>
    5163:	48 8b 45 f8          	mov    -0x8(%rbp),%rax
    5167:	5d                   	pop    %rbp
    5168:	c3                   	retq   

0000000000005169 <safe_rshift_func_uint64_t_u_s>:
    5169:	f3 0f 1e fa          	endbr64 
    516d:	55                   	push   %rbp
    516e:	48 89 e5             	mov    %rsp,%rbp
    5171:	48 89 7d f8          	mov    %rdi,-0x8(%rbp)
    5175:	89 75 f4             	mov    %esi,-0xc(%rbp)
    5178:	83 7d f4 00          	cmpl   $0x0,-0xc(%rbp)
    517c:	78 17                	js     5195 <safe_rshift_func_uint64_t_u_s+0x2c>
    517e:	83 7d f4 1f          	cmpl   $0x1f,-0xc(%rbp)
    5182:	7f 11                	jg     5195 <safe_rshift_func_uint64_t_u_s+0x2c>
    5184:	8b 45 f4             	mov    -0xc(%rbp),%eax
    5187:	48 8b 55 f8          	mov    -0x8(%rbp),%rdx
    518b:	89 c1                	mov    %eax,%ecx
    518d:	48 d3 ea             	shr    %cl,%rdx
    5190:	48 89 d0             	mov    %rdx,%rax
    5193:	eb 04                	jmp    5199 <safe_rshift_func_uint64_t_u_s+0x30>
    5195:	48 8b 45 f8          	mov    -0x8(%rbp),%rax
    5199:	5d                   	pop    %rbp
    519a:	c3                   	retq   

000000000000519b <safe_rshift_func_uint64_t_u_u>:
    519b:	f3 0f 1e fa          	endbr64 
    519f:	55                   	push   %rbp
    51a0:	48 89 e5             	mov    %rsp,%rbp
    51a3:	48 89 7d f8          	mov    %rdi,-0x8(%rbp)
    51a7:	89 75 f4             	mov    %esi,-0xc(%rbp)
    51aa:	83 7d f4 1f          	cmpl   $0x1f,-0xc(%rbp)
    51ae:	77 11                	ja     51c1 <safe_rshift_func_uint64_t_u_u+0x26>
    51b0:	8b 45 f4             	mov    -0xc(%rbp),%eax
    51b3:	48 8b 55 f8          	mov    -0x8(%rbp),%rdx
    51b7:	89 c1                	mov    %eax,%ecx
    51b9:	48 d3 ea             	shr    %cl,%rdx
    51bc:	48 89 d0             	mov    %rdx,%rax
    51bf:	eb 04                	jmp    51c5 <safe_rshift_func_uint64_t_u_u+0x2a>
    51c1:	48 8b 45 f8          	mov    -0x8(%rbp),%rax
    51c5:	5d                   	pop    %rbp
    51c6:	c3                   	retq   

00000000000051c7 <safe_add_func_float_f_f>:
    51c7:	f3 0f 1e fa          	endbr64 
    51cb:	55                   	push   %rbp
    51cc:	48 89 e5             	mov    %rsp,%rbp
    51cf:	f3 0f 11 45 fc       	movss  %xmm0,-0x4(%rbp)
    51d4:	f3 0f 11 4d f8       	movss  %xmm1,-0x8(%rbp)
    51d9:	f3 0f 10 4d fc       	movss  -0x4(%rbp),%xmm1
    51de:	f3 0f 10 05 de 4b 00 	movss  0x4bde(%rip),%xmm0        # 9dc4 <l_619.4202+0xc>
    51e5:	00 
    51e6:	f3 0f 59 c8          	mulss  %xmm0,%xmm1
    51ea:	f3 0f 10 55 f8       	movss  -0x8(%rbp),%xmm2
    51ef:	f3 0f 10 05 cd 4b 00 	movss  0x4bcd(%rip),%xmm0        # 9dc4 <l_619.4202+0xc>
    51f6:	00 
    51f7:	f3 0f 59 c2          	mulss  %xmm2,%xmm0
    51fb:	f3 0f 58 c1          	addss  %xmm1,%xmm0
    51ff:	f3 0f 10 0d c9 4b 00 	movss  0x4bc9(%rip),%xmm1        # 9dd0 <l_619.4202+0x18>
    5206:	00 
    5207:	0f 54 c1             	andps  %xmm1,%xmm0
    520a:	0f 2f 05 cf 4b 00 00 	comiss 0x4bcf(%rip),%xmm0        # 9de0 <l_619.4202+0x28>
    5211:	76 07                	jbe    521a <safe_add_func_float_f_f+0x53>
    5213:	f3 0f 10 45 fc       	movss  -0x4(%rbp),%xmm0
    5218:	eb 0a                	jmp    5224 <safe_add_func_float_f_f+0x5d>
    521a:	f3 0f 10 45 fc       	movss  -0x4(%rbp),%xmm0
    521f:	f3 0f 58 45 f8       	addss  -0x8(%rbp),%xmm0
    5224:	5d                   	pop    %rbp
    5225:	c3                   	retq   

0000000000005226 <safe_sub_func_float_f_f>:
    5226:	f3 0f 1e fa          	endbr64 
    522a:	55                   	push   %rbp
    522b:	48 89 e5             	mov    %rsp,%rbp
    522e:	f3 0f 11 45 fc       	movss  %xmm0,-0x4(%rbp)
    5233:	f3 0f 11 4d f8       	movss  %xmm1,-0x8(%rbp)
    5238:	f3 0f 10 4d fc       	movss  -0x4(%rbp),%xmm1
    523d:	f3 0f 10 05 7f 4b 00 	movss  0x4b7f(%rip),%xmm0        # 9dc4 <l_619.4202+0xc>
    5244:	00 
    5245:	f3 0f 59 c1          	mulss  %xmm1,%xmm0
    5249:	f3 0f 10 55 f8       	movss  -0x8(%rbp),%xmm2
    524e:	f3 0f 10 0d 6e 4b 00 	movss  0x4b6e(%rip),%xmm1        # 9dc4 <l_619.4202+0xc>
    5255:	00 
    5256:	f3 0f 59 ca          	mulss  %xmm2,%xmm1
    525a:	f3 0f 5c c1          	subss  %xmm1,%xmm0
    525e:	f3 0f 10 0d 6a 4b 00 	movss  0x4b6a(%rip),%xmm1        # 9dd0 <l_619.4202+0x18>
    5265:	00 
    5266:	0f 54 c1             	andps  %xmm1,%xmm0
    5269:	0f 2f 05 70 4b 00 00 	comiss 0x4b70(%rip),%xmm0        # 9de0 <l_619.4202+0x28>
    5270:	76 07                	jbe    5279 <safe_sub_func_float_f_f+0x53>
    5272:	f3 0f 10 45 fc       	movss  -0x4(%rbp),%xmm0
    5277:	eb 0a                	jmp    5283 <safe_sub_func_float_f_f+0x5d>
    5279:	f3 0f 10 45 fc       	movss  -0x4(%rbp),%xmm0
    527e:	f3 0f 5c 45 f8       	subss  -0x8(%rbp),%xmm0
    5283:	5d                   	pop    %rbp
    5284:	c3                   	retq   

0000000000005285 <safe_mul_func_float_f_f>:
    5285:	f3 0f 1e fa          	endbr64 
    5289:	55                   	push   %rbp
    528a:	48 89 e5             	mov    %rsp,%rbp
    528d:	f3 0f 11 45 fc       	movss  %xmm0,-0x4(%rbp)
    5292:	f3 0f 11 4d f8       	movss  %xmm1,-0x8(%rbp)
    5297:	f3 0f 10 4d fc       	movss  -0x4(%rbp),%xmm1
    529c:	f3 0f 10 05 40 4b 00 	movss  0x4b40(%rip),%xmm0        # 9de4 <l_619.4202+0x2c>
    52a3:	00 
    52a4:	f3 0f 59 c8          	mulss  %xmm0,%xmm1
    52a8:	f3 0f 10 55 f8       	movss  -0x8(%rbp),%xmm2
    52ad:	f3 0f 10 05 33 4b 00 	movss  0x4b33(%rip),%xmm0        # 9de8 <l_619.4202+0x30>
    52b4:	00 
    52b5:	f3 0f 59 c2          	mulss  %xmm2,%xmm0
    52b9:	f3 0f 59 c1          	mulss  %xmm1,%xmm0
    52bd:	f3 0f 10 0d 0b 4b 00 	movss  0x4b0b(%rip),%xmm1        # 9dd0 <l_619.4202+0x18>
    52c4:	00 
    52c5:	0f 54 c1             	andps  %xmm1,%xmm0
    52c8:	0f 2f 05 1d 4b 00 00 	comiss 0x4b1d(%rip),%xmm0        # 9dec <l_619.4202+0x34>
    52cf:	76 07                	jbe    52d8 <safe_mul_func_float_f_f+0x53>
    52d1:	f3 0f 10 45 fc       	movss  -0x4(%rbp),%xmm0
    52d6:	eb 0a                	jmp    52e2 <safe_mul_func_float_f_f+0x5d>
    52d8:	f3 0f 10 45 fc       	movss  -0x4(%rbp),%xmm0
    52dd:	f3 0f 59 45 f8       	mulss  -0x8(%rbp),%xmm0
    52e2:	5d                   	pop    %rbp
    52e3:	c3                   	retq   

00000000000052e4 <safe_div_func_float_f_f>:
    52e4:	f3 0f 1e fa          	endbr64 
    52e8:	55                   	push   %rbp
    52e9:	48 89 e5             	mov    %rsp,%rbp
    52ec:	f3 0f 11 45 fc       	movss  %xmm0,-0x4(%rbp)
    52f1:	f3 0f 11 4d f8       	movss  %xmm1,-0x8(%rbp)
    52f6:	f3 0f 10 45 f8       	movss  -0x8(%rbp),%xmm0
    52fb:	f3 0f 10 0d cd 4a 00 	movss  0x4acd(%rip),%xmm1        # 9dd0 <l_619.4202+0x18>
    5302:	00 
    5303:	0f 54 c8             	andps  %xmm0,%xmm1
    5306:	f3 0f 10 05 e2 4a 00 	movss  0x4ae2(%rip),%xmm0        # 9df0 <l_619.4202+0x38>
    530d:	00 
    530e:	0f 2f c1             	comiss %xmm1,%xmm0
    5311:	0f 97 c0             	seta   %al
    5314:	83 f0 01             	xor    $0x1,%eax
    5317:	84 c0                	test   %al,%al
    5319:	75 56                	jne    5371 <safe_div_func_float_f_f+0x8d>
    531b:	66 0f ef c0          	pxor   %xmm0,%xmm0
    531f:	0f 2e 45 f8          	ucomiss -0x8(%rbp),%xmm0
    5323:	7a 0a                	jp     532f <safe_div_func_float_f_f+0x4b>
    5325:	66 0f ef c0          	pxor   %xmm0,%xmm0
    5329:	0f 2e 45 f8          	ucomiss -0x8(%rbp),%xmm0
    532d:	74 4e                	je     537d <safe_div_func_float_f_f+0x99>
    532f:	f3 0f 10 4d fc       	movss  -0x4(%rbp),%xmm1
    5334:	f3 0f 10 05 b8 4a 00 	movss  0x4ab8(%rip),%xmm0        # 9df4 <l_619.4202+0x3c>
    533b:	00 
    533c:	f3 0f 59 c1          	mulss  %xmm1,%xmm0
    5340:	f3 0f 10 55 f8       	movss  -0x8(%rbp),%xmm2
    5345:	f3 0f 10 0d ab 4a 00 	movss  0x4aab(%rip),%xmm1        # 9df8 <l_619.4202+0x40>
    534c:	00 
    534d:	f3 0f 59 ca          	mulss  %xmm2,%xmm1
    5351:	f3 0f 5e c1          	divss  %xmm1,%xmm0
    5355:	f3 0f 10 0d 73 4a 00 	movss  0x4a73(%rip),%xmm1        # 9dd0 <l_619.4202+0x18>
    535c:	00 
    535d:	0f 54 c1             	andps  %xmm1,%xmm0
    5360:	0f 2f 05 95 4a 00 00 	comiss 0x4a95(%rip),%xmm0        # 9dfc <l_619.4202+0x44>
    5367:	0f 97 c0             	seta   %al
    536a:	83 f0 01             	xor    $0x1,%eax
    536d:	84 c0                	test   %al,%al
    536f:	74 0c                	je     537d <safe_div_func_float_f_f+0x99>
    5371:	f3 0f 10 45 fc       	movss  -0x4(%rbp),%xmm0
    5376:	f3 0f 5e 45 f8       	divss  -0x8(%rbp),%xmm0
    537b:	eb 05                	jmp    5382 <safe_div_func_float_f_f+0x9e>
    537d:	f3 0f 10 45 fc       	movss  -0x4(%rbp),%xmm0
    5382:	5d                   	pop    %rbp
    5383:	c3                   	retq   

0000000000005384 <safe_add_func_double_f_f>:
    5384:	f3 0f 1e fa          	endbr64 
    5388:	55                   	push   %rbp
    5389:	48 89 e5             	mov    %rsp,%rbp
    538c:	f2 0f 11 45 f8       	movsd  %xmm0,-0x8(%rbp)
    5391:	f2 0f 11 4d f0       	movsd  %xmm1,-0x10(%rbp)
    5396:	f2 0f 10 4d f8       	movsd  -0x8(%rbp),%xmm1
    539b:	f2 0f 10 05 5d 4a 00 	movsd  0x4a5d(%rip),%xmm0        # 9e00 <l_619.4202+0x48>
    53a2:	00 
    53a3:	f2 0f 59 c8          	mulsd  %xmm0,%xmm1
    53a7:	f2 0f 10 55 f0       	movsd  -0x10(%rbp),%xmm2
    53ac:	f2 0f 10 05 4c 4a 00 	movsd  0x4a4c(%rip),%xmm0        # 9e00 <l_619.4202+0x48>
    53b3:	00 
    53b4:	f2 0f 59 c2          	mulsd  %xmm2,%xmm0
    53b8:	f2 0f 58 c1          	addsd  %xmm1,%xmm0
    53bc:	f3 0f 7e 0d 4c 4a 00 	movq   0x4a4c(%rip),%xmm1        # 9e10 <l_619.4202+0x58>
    53c3:	00 
    53c4:	66 0f 54 c1          	andpd  %xmm1,%xmm0
    53c8:	66 0f 2f 05 50 4a 00 	comisd 0x4a50(%rip),%xmm0        # 9e20 <l_619.4202+0x68>
    53cf:	00 
    53d0:	76 07                	jbe    53d9 <safe_add_func_double_f_f+0x55>
    53d2:	f2 0f 10 45 f8       	movsd  -0x8(%rbp),%xmm0
    53d7:	eb 0a                	jmp    53e3 <safe_add_func_double_f_f+0x5f>
    53d9:	f2 0f 10 45 f8       	movsd  -0x8(%rbp),%xmm0
    53de:	f2 0f 58 45 f0       	addsd  -0x10(%rbp),%xmm0
    53e3:	5d                   	pop    %rbp
    53e4:	c3                   	retq   

00000000000053e5 <safe_sub_func_double_f_f>:
    53e5:	f3 0f 1e fa          	endbr64 
    53e9:	55                   	push   %rbp
    53ea:	48 89 e5             	mov    %rsp,%rbp
    53ed:	f2 0f 11 45 f8       	movsd  %xmm0,-0x8(%rbp)
    53f2:	f2 0f 11 4d f0       	movsd  %xmm1,-0x10(%rbp)
    53f7:	f2 0f 10 4d f8       	movsd  -0x8(%rbp),%xmm1
    53fc:	f2 0f 10 05 fc 49 00 	movsd  0x49fc(%rip),%xmm0        # 9e00 <l_619.4202+0x48>
    5403:	00 
    5404:	f2 0f 59 c1          	mulsd  %xmm1,%xmm0
    5408:	f2 0f 10 55 f0       	movsd  -0x10(%rbp),%xmm2
    540d:	f2 0f 10 0d eb 49 00 	movsd  0x49eb(%rip),%xmm1        # 9e00 <l_619.4202+0x48>
    5414:	00 
    5415:	f2 0f 59 ca          	mulsd  %xmm2,%xmm1
    5419:	f2 0f 5c c1          	subsd  %xmm1,%xmm0
    541d:	f3 0f 7e 0d eb 49 00 	movq   0x49eb(%rip),%xmm1        # 9e10 <l_619.4202+0x58>
    5424:	00 
    5425:	66 0f 54 c1          	andpd  %xmm1,%xmm0
    5429:	66 0f 2f 05 ef 49 00 	comisd 0x49ef(%rip),%xmm0        # 9e20 <l_619.4202+0x68>
    5430:	00 
    5431:	76 07                	jbe    543a <safe_sub_func_double_f_f+0x55>
    5433:	f2 0f 10 45 f8       	movsd  -0x8(%rbp),%xmm0
    5438:	eb 0a                	jmp    5444 <safe_sub_func_double_f_f+0x5f>
    543a:	f2 0f 10 45 f8       	movsd  -0x8(%rbp),%xmm0
    543f:	f2 0f 5c 45 f0       	subsd  -0x10(%rbp),%xmm0
    5444:	5d                   	pop    %rbp
    5445:	c3                   	retq   

0000000000005446 <safe_mul_func_double_f_f>:
    5446:	f3 0f 1e fa          	endbr64 
    544a:	55                   	push   %rbp
    544b:	48 89 e5             	mov    %rsp,%rbp
    544e:	f2 0f 11 45 f8       	movsd  %xmm0,-0x8(%rbp)
    5453:	f2 0f 11 4d f0       	movsd  %xmm1,-0x10(%rbp)
    5458:	f2 0f 10 4d f8       	movsd  -0x8(%rbp),%xmm1
    545d:	f2 0f 10 05 c3 49 00 	movsd  0x49c3(%rip),%xmm0        # 9e28 <l_619.4202+0x70>
    5464:	00 
    5465:	f2 0f 59 c8          	mulsd  %xmm0,%xmm1
    5469:	f2 0f 10 55 f0       	movsd  -0x10(%rbp),%xmm2
    546e:	f2 0f 10 05 ba 49 00 	movsd  0x49ba(%rip),%xmm0        # 9e30 <l_619.4202+0x78>
    5475:	00 
    5476:	f2 0f 59 c2          	mulsd  %xmm2,%xmm0
    547a:	f2 0f 59 c1          	mulsd  %xmm1,%xmm0
    547e:	f3 0f 7e 0d 8a 49 00 	movq   0x498a(%rip),%xmm1        # 9e10 <l_619.4202+0x58>
    5485:	00 
    5486:	66 0f 54 c1          	andpd  %xmm1,%xmm0
    548a:	66 0f 2f 05 a6 49 00 	comisd 0x49a6(%rip),%xmm0        # 9e38 <l_619.4202+0x80>
    5491:	00 
    5492:	76 07                	jbe    549b <safe_mul_func_double_f_f+0x55>
    5494:	f2 0f 10 45 f8       	movsd  -0x8(%rbp),%xmm0
    5499:	eb 0a                	jmp    54a5 <safe_mul_func_double_f_f+0x5f>
    549b:	f2 0f 10 45 f8       	movsd  -0x8(%rbp),%xmm0
    54a0:	f2 0f 59 45 f0       	mulsd  -0x10(%rbp),%xmm0
    54a5:	5d                   	pop    %rbp
    54a6:	c3                   	retq   

00000000000054a7 <safe_div_func_double_f_f>:
    54a7:	f3 0f 1e fa          	endbr64 
    54ab:	55                   	push   %rbp
    54ac:	48 89 e5             	mov    %rsp,%rbp
    54af:	f2 0f 11 45 f8       	movsd  %xmm0,-0x8(%rbp)
    54b4:	f2 0f 11 4d f0       	movsd  %xmm1,-0x10(%rbp)
    54b9:	f2 0f 10 45 f0       	movsd  -0x10(%rbp),%xmm0
    54be:	f3 0f 7e 0d 4a 49 00 	movq   0x494a(%rip),%xmm1        # 9e10 <l_619.4202+0x58>
    54c5:	00 
    54c6:	66 0f 54 c8          	andpd  %xmm0,%xmm1
    54ca:	f2 0f 10 05 6e 49 00 	movsd  0x496e(%rip),%xmm0        # 9e40 <l_619.4202+0x88>
    54d1:	00 
    54d2:	66 0f 2f c1          	comisd %xmm1,%xmm0
    54d6:	0f 97 c0             	seta   %al
    54d9:	83 f0 01             	xor    $0x1,%eax
    54dc:	84 c0                	test   %al,%al
    54de:	75 5a                	jne    553a <safe_div_func_double_f_f+0x93>
    54e0:	66 0f ef c0          	pxor   %xmm0,%xmm0
    54e4:	66 0f 2e 45 f0       	ucomisd -0x10(%rbp),%xmm0
    54e9:	7a 0b                	jp     54f6 <safe_div_func_double_f_f+0x4f>
    54eb:	66 0f ef c0          	pxor   %xmm0,%xmm0
    54ef:	66 0f 2e 45 f0       	ucomisd -0x10(%rbp),%xmm0
    54f4:	74 50                	je     5546 <safe_div_func_double_f_f+0x9f>
    54f6:	f2 0f 10 4d f8       	movsd  -0x8(%rbp),%xmm1
    54fb:	f2 0f 10 05 45 49 00 	movsd  0x4945(%rip),%xmm0        # 9e48 <l_619.4202+0x90>
    5502:	00 
    5503:	f2 0f 59 c1          	mulsd  %xmm1,%xmm0
    5507:	f2 0f 10 55 f0       	movsd  -0x10(%rbp),%xmm2
    550c:	f2 0f 10 0d 3c 49 00 	movsd  0x493c(%rip),%xmm1        # 9e50 <l_619.4202+0x98>
    5513:	00 
    5514:	f2 0f 59 ca          	mulsd  %xmm2,%xmm1
    5518:	f2 0f 5e c1          	divsd  %xmm1,%xmm0
    551c:	f3 0f 7e 0d ec 48 00 	movq   0x48ec(%rip),%xmm1        # 9e10 <l_619.4202+0x58>
    5523:	00 
    5524:	66 0f 54 c1          	andpd  %xmm1,%xmm0
    5528:	66 0f 2f 05 28 49 00 	comisd 0x4928(%rip),%xmm0        # 9e58 <l_619.4202+0xa0>
    552f:	00 
    5530:	0f 97 c0             	seta   %al
    5533:	83 f0 01             	xor    $0x1,%eax
    5536:	84 c0                	test   %al,%al
    5538:	74 0c                	je     5546 <safe_div_func_double_f_f+0x9f>
    553a:	f2 0f 10 45 f8       	movsd  -0x8(%rbp),%xmm0
    553f:	f2 0f 5e 45 f0       	divsd  -0x10(%rbp),%xmm0
    5544:	eb 05                	jmp    554b <safe_div_func_double_f_f+0xa4>
    5546:	f2 0f 10 45 f8       	movsd  -0x8(%rbp),%xmm0
    554b:	5d                   	pop    %rbp
    554c:	c3                   	retq   

000000000000554d <safe_convert_func_float_to_int32_t>:
    554d:	f3 0f 1e fa          	endbr64 
    5551:	55                   	push   %rbp
    5552:	48 89 e5             	mov    %rsp,%rbp
    5555:	f3 0f 11 45 fc       	movss  %xmm0,-0x4(%rbp)
    555a:	f3 0f 10 05 fe 48 00 	movss  0x48fe(%rip),%xmm0        # 9e60 <l_619.4202+0xa8>
    5561:	00 
    5562:	0f 2f 45 fc          	comiss -0x4(%rbp),%xmm0
    5566:	0f 93 c0             	setae  %al
    5569:	83 f0 01             	xor    $0x1,%eax
    556c:	84 c0                	test   %al,%al
    556e:	74 21                	je     5591 <safe_convert_func_float_to_int32_t+0x44>
    5570:	f3 0f 10 45 fc       	movss  -0x4(%rbp),%xmm0
    5575:	0f 2f 05 e8 48 00 00 	comiss 0x48e8(%rip),%xmm0        # 9e64 <l_619.4202+0xac>
    557c:	0f 93 c0             	setae  %al
    557f:	83 f0 01             	xor    $0x1,%eax
    5582:	84 c0                	test   %al,%al
    5584:	74 0b                	je     5591 <safe_convert_func_float_to_int32_t+0x44>
    5586:	f3 0f 10 45 fc       	movss  -0x4(%rbp),%xmm0
    558b:	f3 0f 2c c0          	cvttss2si %xmm0,%eax
    558f:	eb 05                	jmp    5596 <safe_convert_func_float_to_int32_t+0x49>
    5591:	b8 ff ff ff 7f       	mov    $0x7fffffff,%eax
    5596:	5d                   	pop    %rbp
    5597:	c3                   	retq   

0000000000005598 <crc32_gentab>:
    5598:	f3 0f 1e fa          	endbr64 
    559c:	55                   	push   %rbp
    559d:	48 89 e5             	mov    %rsp,%rbp
    55a0:	c7 45 fc 20 83 b8 ed 	movl   $0xedb88320,-0x4(%rbp)
    55a7:	c7 45 f4 00 00 00 00 	movl   $0x0,-0xc(%rbp)
    55ae:	eb 51                	jmp    5601 <crc32_gentab+0x69>
    55b0:	8b 45 f4             	mov    -0xc(%rbp),%eax
    55b3:	89 45 f0             	mov    %eax,-0x10(%rbp)
    55b6:	c7 45 f8 08 00 00 00 	movl   $0x8,-0x8(%rbp)
    55bd:	eb 1e                	jmp    55dd <crc32_gentab+0x45>
    55bf:	8b 45 f0             	mov    -0x10(%rbp),%eax
    55c2:	83 e0 01             	and    $0x1,%eax
    55c5:	85 c0                	test   %eax,%eax
    55c7:	74 0d                	je     55d6 <crc32_gentab+0x3e>
    55c9:	8b 45 f0             	mov    -0x10(%rbp),%eax
    55cc:	d1 e8                	shr    %eax
    55ce:	33 45 fc             	xor    -0x4(%rbp),%eax
    55d1:	89 45 f0             	mov    %eax,-0x10(%rbp)
    55d4:	eb 03                	jmp    55d9 <crc32_gentab+0x41>
    55d6:	d1 6d f0             	shrl   -0x10(%rbp)
    55d9:	83 6d f8 01          	subl   $0x1,-0x8(%rbp)
    55dd:	83 7d f8 00          	cmpl   $0x0,-0x8(%rbp)
    55e1:	7f dc                	jg     55bf <crc32_gentab+0x27>
    55e3:	8b 45 f4             	mov    -0xc(%rbp),%eax
    55e6:	48 98                	cltq   
    55e8:	48 8d 0c 85 00 00 00 	lea    0x0(,%rax,4),%rcx
    55ef:	00 
    55f0:	48 8d 15 e9 8b 00 00 	lea    0x8be9(%rip),%rdx        # e1e0 <crc32_tab>
    55f7:	8b 45 f0             	mov    -0x10(%rbp),%eax
    55fa:	89 04 11             	mov    %eax,(%rcx,%rdx,1)
    55fd:	83 45 f4 01          	addl   $0x1,-0xc(%rbp)
    5601:	81 7d f4 ff 00 00 00 	cmpl   $0xff,-0xc(%rbp)
    5608:	7e a6                	jle    55b0 <crc32_gentab+0x18>
    560a:	90                   	nop
    560b:	90                   	nop
    560c:	5d                   	pop    %rbp
    560d:	c3                   	retq   

000000000000560e <crc32_byte>:
    560e:	f3 0f 1e fa          	endbr64 
    5612:	55                   	push   %rbp
    5613:	48 89 e5             	mov    %rsp,%rbp
    5616:	89 f8                	mov    %edi,%eax
    5618:	88 45 fc             	mov    %al,-0x4(%rbp)
    561b:	8b 05 ff 79 00 00    	mov    0x79ff(%rip),%eax        # d020 <crc32_context>
    5621:	c1 e8 08             	shr    $0x8,%eax
    5624:	89 c1                	mov    %eax,%ecx
    5626:	0f b6 55 fc          	movzbl -0x4(%rbp),%edx
    562a:	8b 05 f0 79 00 00    	mov    0x79f0(%rip),%eax        # d020 <crc32_context>
    5630:	31 d0                	xor    %edx,%eax
    5632:	0f b6 c0             	movzbl %al,%eax
    5635:	89 c0                	mov    %eax,%eax
    5637:	48 8d 14 85 00 00 00 	lea    0x0(,%rax,4),%rdx
    563e:	00 
    563f:	48 8d 05 9a 8b 00 00 	lea    0x8b9a(%rip),%rax        # e1e0 <crc32_tab>
    5646:	8b 04 02             	mov    (%rdx,%rax,1),%eax
    5649:	31 c8                	xor    %ecx,%eax
    564b:	89 05 cf 79 00 00    	mov    %eax,0x79cf(%rip)        # d020 <crc32_context>
    5651:	90                   	nop
    5652:	5d                   	pop    %rbp
    5653:	c3                   	retq   

0000000000005654 <crc32_8bytes>:
    5654:	f3 0f 1e fa          	endbr64 
    5658:	55                   	push   %rbp
    5659:	48 89 e5             	mov    %rsp,%rbp
    565c:	48 83 ec 08          	sub    $0x8,%rsp
    5660:	48 89 7d f8          	mov    %rdi,-0x8(%rbp)
    5664:	48 8b 45 f8          	mov    -0x8(%rbp),%rax
    5668:	0f b6 c0             	movzbl %al,%eax
    566b:	89 c7                	mov    %eax,%edi
    566d:	e8 9c ff ff ff       	callq  560e <crc32_byte>
    5672:	48 8b 45 f8          	mov    -0x8(%rbp),%rax
    5676:	48 c1 e8 08          	shr    $0x8,%rax
    567a:	0f b6 c0             	movzbl %al,%eax
    567d:	89 c7                	mov    %eax,%edi
    567f:	e8 8a ff ff ff       	callq  560e <crc32_byte>
    5684:	48 8b 45 f8          	mov    -0x8(%rbp),%rax
    5688:	48 c1 e8 10          	shr    $0x10,%rax
    568c:	0f b6 c0             	movzbl %al,%eax
    568f:	89 c7                	mov    %eax,%edi
    5691:	e8 78 ff ff ff       	callq  560e <crc32_byte>
    5696:	48 8b 45 f8          	mov    -0x8(%rbp),%rax
    569a:	48 c1 e8 18          	shr    $0x18,%rax
    569e:	0f b6 c0             	movzbl %al,%eax
    56a1:	89 c7                	mov    %eax,%edi
    56a3:	e8 66 ff ff ff       	callq  560e <crc32_byte>
    56a8:	48 8b 45 f8          	mov    -0x8(%rbp),%rax
    56ac:	48 c1 e8 20          	shr    $0x20,%rax
    56b0:	0f b6 c0             	movzbl %al,%eax
    56b3:	89 c7                	mov    %eax,%edi
    56b5:	e8 54 ff ff ff       	callq  560e <crc32_byte>
    56ba:	48 8b 45 f8          	mov    -0x8(%rbp),%rax
    56be:	48 c1 e8 28          	shr    $0x28,%rax
    56c2:	0f b6 c0             	movzbl %al,%eax
    56c5:	89 c7                	mov    %eax,%edi
    56c7:	e8 42 ff ff ff       	callq  560e <crc32_byte>
    56cc:	48 8b 45 f8          	mov    -0x8(%rbp),%rax
    56d0:	48 c1 e8 30          	shr    $0x30,%rax
    56d4:	0f b6 c0             	movzbl %al,%eax
    56d7:	89 c7                	mov    %eax,%edi
    56d9:	e8 30 ff ff ff       	callq  560e <crc32_byte>
    56de:	48 8b 45 f8          	mov    -0x8(%rbp),%rax
    56e2:	48 c1 e8 38          	shr    $0x38,%rax
    56e6:	0f b6 c0             	movzbl %al,%eax
    56e9:	89 c7                	mov    %eax,%edi
    56eb:	e8 1e ff ff ff       	callq  560e <crc32_byte>
    56f0:	90                   	nop
    56f1:	c9                   	leaveq 
    56f2:	c3                   	retq   

00000000000056f3 <transparent_crc>:
    56f3:	f3 0f 1e fa          	endbr64 
    56f7:	55                   	push   %rbp
    56f8:	48 89 e5             	mov    %rsp,%rbp
    56fb:	48 83 ec 20          	sub    $0x20,%rsp
    56ff:	48 89 7d f8          	mov    %rdi,-0x8(%rbp)
    5703:	48 89 75 f0          	mov    %rsi,-0x10(%rbp)
    5707:	89 55 ec             	mov    %edx,-0x14(%rbp)
    570a:	48 8b 45 f8          	mov    -0x8(%rbp),%rax
    570e:	48 89 c7             	mov    %rax,%rdi
    5711:	e8 3e ff ff ff       	callq  5654 <crc32_8bytes>
    5716:	83 7d ec 00          	cmpl   $0x0,-0x14(%rbp)
    571a:	74 22                	je     573e <transparent_crc+0x4b>
    571c:	8b 05 fe 78 00 00    	mov    0x78fe(%rip),%eax        # d020 <crc32_context>
    5722:	f7 d0                	not    %eax
    5724:	89 c2                	mov    %eax,%edx
    5726:	48 8b 45 f0          	mov    -0x10(%rbp),%rax
    572a:	48 89 c6             	mov    %rax,%rsi
    572d:	48 8d 3d fc 38 00 00 	lea    0x38fc(%rip),%rdi        # 9030 <_IO_stdin_used+0x30>
    5734:	b8 00 00 00 00       	mov    $0x0,%eax
    5739:	e8 42 e9 ff ff       	callq  4080 <printf@plt>
    573e:	90                   	nop
    573f:	c9                   	leaveq 
    5740:	c3                   	retq   

0000000000005741 <transparent_crc_bytes>:
    5741:	f3 0f 1e fa          	endbr64 
    5745:	55                   	push   %rbp
    5746:	48 89 e5             	mov    %rsp,%rbp
    5749:	48 83 ec 30          	sub    $0x30,%rsp
    574d:	48 89 7d e8          	mov    %rdi,-0x18(%rbp)
    5751:	89 75 e4             	mov    %esi,-0x1c(%rbp)
    5754:	48 89 55 d8          	mov    %rdx,-0x28(%rbp)
    5758:	89 4d e0             	mov    %ecx,-0x20(%rbp)
    575b:	c7 45 fc 00 00 00 00 	movl   $0x0,-0x4(%rbp)
    5762:	eb 1e                	jmp    5782 <transparent_crc_bytes+0x41>
    5764:	8b 45 fc             	mov    -0x4(%rbp),%eax
    5767:	48 63 d0             	movslq %eax,%rdx
    576a:	48 8b 45 e8          	mov    -0x18(%rbp),%rax
    576e:	48 01 d0             	add    %rdx,%rax
    5771:	0f b6 00             	movzbl (%rax),%eax
    5774:	0f b6 c0             	movzbl %al,%eax
    5777:	89 c7                	mov    %eax,%edi
    5779:	e8 90 fe ff ff       	callq  560e <crc32_byte>
    577e:	83 45 fc 01          	addl   $0x1,-0x4(%rbp)
    5782:	8b 45 fc             	mov    -0x4(%rbp),%eax
    5785:	3b 45 e4             	cmp    -0x1c(%rbp),%eax
    5788:	7c da                	jl     5764 <transparent_crc_bytes+0x23>
    578a:	83 7d e0 00          	cmpl   $0x0,-0x20(%rbp)
    578e:	74 22                	je     57b2 <transparent_crc_bytes+0x71>
    5790:	8b 05 8a 78 00 00    	mov    0x788a(%rip),%eax        # d020 <crc32_context>
    5796:	f7 d0                	not    %eax
    5798:	89 c2                	mov    %eax,%edx
    579a:	48 8b 45 d8          	mov    -0x28(%rbp),%rax
    579e:	48 89 c6             	mov    %rax,%rsi
    57a1:	48 8d 3d 88 38 00 00 	lea    0x3888(%rip),%rdi        # 9030 <_IO_stdin_used+0x30>
    57a8:	b8 00 00 00 00       	mov    $0x0,%eax
    57ad:	e8 ce e8 ff ff       	callq  4080 <printf@plt>
    57b2:	90                   	nop
    57b3:	c9                   	leaveq 
    57b4:	c3                   	retq   

00000000000057b5 <func_1>:
    57b5:	f3 0f 1e fa          	endbr64 
    57b9:	55                   	push   %rbp
    57ba:	48 89 e5             	mov    %rsp,%rbp
    57bd:	48 81 ec c0 03 00 00 	sub    $0x3c0,%rsp
    57c4:	64 48 8b 04 25 28 00 	mov    %fs:0x28,%rax
    57cb:	00 00 
    57cd:	48 89 45 f8          	mov    %rax,-0x8(%rbp)
    57d1:	31 c0                	xor    %eax,%eax
    57d3:	c7 85 48 fc ff ff 23 	movl   $0xe1d11023,-0x3b8(%rbp)
    57da:	10 d1 e1 
    57dd:	48 8d 05 66 78 00 00 	lea    0x7866(%rip),%rax        # d04a <g_18>
    57e4:	48 89 85 60 fc ff ff 	mov    %rax,-0x3a0(%rbp)
    57eb:	66 c7 85 42 fc ff ff 	movw   $0x1,-0x3be(%rbp)
    57f2:	01 00 
    57f4:	48 8d 85 b0 fc ff ff 	lea    -0x350(%rbp),%rax
    57fb:	48 8d 15 be 79 00 00 	lea    0x79be(%rip),%rdx        # d1c0 <g_630+0x10>
    5802:	b9 30 00 00 00       	mov    $0x30,%ecx
    5807:	48 89 c7             	mov    %rax,%rdi
    580a:	48 89 d6             	mov    %rdx,%rsi
    580d:	f3 48 a5             	rep movsq %ds:(%rsi),%es:(%rdi)
    5810:	48 c7 85 58 fc ff ff 	movq   $0x0,-0x3a8(%rbp)
    5817:	00 00 00 00 
    581b:	c7 85 4c fc ff ff f5 	movl   $0x340f04f5,-0x3b4(%rbp)
    5822:	04 0f 34 
    5825:	c7 85 44 fc ff ff 00 	movl   $0x0,-0x3bc(%rbp)
    582c:	00 00 00 
    582f:	eb 1b                	jmp    584c <func_1+0x97>
    5831:	8b 85 44 fc ff ff    	mov    -0x3bc(%rbp),%eax
    5837:	48 98                	cltq   
    5839:	48 c7 84 c5 70 fc ff 	movq   $0x0,-0x390(%rbp,%rax,8)
    5840:	ff 00 00 00 00 
    5845:	83 85 44 fc ff ff 01 	addl   $0x1,-0x3bc(%rbp)
    584c:	83 bd 44 fc ff ff 06 	cmpl   $0x6,-0x3bc(%rbp)
    5853:	7e dc                	jle    5831 <func_1+0x7c>
    5855:	c7 05 e5 77 00 00 00 	movl   $0x0,0x77e5(%rip)        # d044 <g_2+0x14>
    585c:	00 00 00 
    585f:	eb 6e                	jmp    58cf <func_1+0x11a>
    5861:	48 8d 85 30 fe ff ff 	lea    -0x1d0(%rbp),%rax
    5868:	48 8d 15 11 38 00 00 	lea    0x3811(%rip),%rdx        # 9080 <g_518+0x18>
    586f:	b9 38 00 00 00       	mov    $0x38,%ecx
    5874:	48 89 c7             	mov    %rax,%rdi
    5877:	48 89 d6             	mov    %rdx,%rsi
    587a:	f3 48 a5             	rep movsq %ds:(%rsi),%es:(%rdi)
    587d:	48 89 f2             	mov    %rsi,%rdx
    5880:	48 89 f8             	mov    %rdi,%rax
    5883:	0f b7 0a             	movzwl (%rdx),%ecx
    5886:	66 89 08             	mov    %cx,(%rax)
    5889:	48 8d 40 02          	lea    0x2(%rax),%rax
    588d:	48 8d 52 02          	lea    0x2(%rdx),%rdx
    5891:	48 c7 85 68 fc ff ff 	movq   $0x0,-0x398(%rbp)
    5898:	00 00 00 00 
    589c:	c6 85 41 fc ff ff 45 	movb   $0x45,-0x3bf(%rbp)
    58a3:	c7 85 50 fc ff ff ff 	movl   $0xffffffff,-0x3b0(%rbp)
    58aa:	ff ff ff 
    58ad:	c7 85 54 fc ff ff b5 	movl   $0x6bdfb8b5,-0x3ac(%rbp)
    58b4:	b8 df 6b 
    58b7:	8b 05 87 77 00 00    	mov    0x7787(%rip),%eax        # d044 <g_2+0x14>
    58bd:	be 06 00 00 00       	mov    $0x6,%esi
    58c2:	89 c7                	mov    %eax,%edi
    58c4:	e8 ed ec ff ff       	callq  45b6 <safe_add_func_int32_t_s_s>
    58c9:	89 05 75 77 00 00    	mov    %eax,0x7775(%rip)        # d044 <g_2+0x14>
    58cf:	8b 05 6f 77 00 00    	mov    0x776f(%rip),%eax        # d044 <g_2+0x14>
    58d5:	83 f8 0c             	cmp    $0xc,%eax
    58d8:	7e 87                	jle    5861 <func_1+0xac>
    58da:	48 8b 05 4f 7d 00 00 	mov    0x7d4f(%rip),%rax        # d630 <g_185>
    58e1:	48 8b 95 90 fc ff ff 	mov    -0x370(%rbp),%rdx
    58e8:	48 89 10             	mov    %rdx,(%rax)
    58eb:	48 8b 05 ae 88 00 00 	mov    0x88ae(%rip),%rax        # e1a0 <g_662>
    58f2:	8b 95 4c fc ff ff    	mov    -0x3b4(%rbp),%edx
    58f8:	89 10                	mov    %edx,(%rax)
    58fa:	48 8b 05 f7 80 00 00 	mov    0x80f7(%rip),%rax        # d9f8 <g_517>
    5901:	48 8b 00             	mov    (%rax),%rax
    5904:	48 8b 4d f8          	mov    -0x8(%rbp),%rcx
    5908:	64 48 33 0c 25 28 00 	xor    %fs:0x28,%rcx
    590f:	00 00 
    5911:	74 05                	je     5918 <func_1+0x163>
    5913:	e8 58 e7 ff ff       	callq  4070 <__stack_chk_fail@plt>
    5918:	c9                   	leaveq 
    5919:	c3                   	retq   

000000000000591a <func_10>:
    591a:	f3 0f 1e fa          	endbr64 
    591e:	55                   	push   %rbp
    591f:	48 89 e5             	mov    %rsp,%rbp
    5922:	48 81 ec 30 03 00 00 	sub    $0x330,%rsp
    5929:	66 89 bd ee fc ff ff 	mov    %di,-0x312(%rbp)
    5930:	48 89 b5 e0 fc ff ff 	mov    %rsi,-0x320(%rbp)
    5937:	48 89 95 d8 fc ff ff 	mov    %rdx,-0x328(%rbp)
    593e:	48 89 8d d0 fc ff ff 	mov    %rcx,-0x330(%rbp)
    5945:	44 89 c0             	mov    %r8d,%eax
    5948:	66 89 85 ec fc ff ff 	mov    %ax,-0x314(%rbp)
    594f:	64 48 8b 04 25 28 00 	mov    %fs:0x28,%rax
    5956:	00 00 
    5958:	48 89 45 f8          	mov    %rax,-0x8(%rbp)
    595c:	31 c0                	xor    %eax,%eax
    595e:	48 b8 15 b7 bc 82 5a 	movabs $0x5000135a82bcb715,%rax
    5965:	13 00 50 
    5968:	48 89 85 08 fd ff ff 	mov    %rax,-0x2f8(%rbp)
    596f:	c7 85 f8 fc ff ff fe 	movl   $0xfffffffe,-0x308(%rbp)
    5976:	ff ff ff 
    5979:	48 c7 85 00 fd ff ff 	movq   $0x0,-0x300(%rbp)
    5980:	00 00 00 00 
    5984:	48 8d 85 00 fd ff ff 	lea    -0x300(%rbp),%rax
    598b:	48 89 85 50 fd ff ff 	mov    %rax,-0x2b0(%rbp)
    5992:	48 8d 85 00 fd ff ff 	lea    -0x300(%rbp),%rax
    5999:	48 89 85 58 fd ff ff 	mov    %rax,-0x2a8(%rbp)
    59a0:	48 8d 85 00 fd ff ff 	lea    -0x300(%rbp),%rax
    59a7:	48 89 85 60 fd ff ff 	mov    %rax,-0x2a0(%rbp)
    59ae:	48 c7 85 68 fd ff ff 	movq   $0x0,-0x298(%rbp)
    59b5:	00 00 00 00 
    59b9:	48 8d 85 00 fd ff ff 	lea    -0x300(%rbp),%rax
    59c0:	48 89 85 70 fd ff ff 	mov    %rax,-0x290(%rbp)
    59c7:	48 8d 85 00 fd ff ff 	lea    -0x300(%rbp),%rax
    59ce:	48 89 85 78 fd ff ff 	mov    %rax,-0x288(%rbp)
    59d5:	48 8d 85 00 fd ff ff 	lea    -0x300(%rbp),%rax
    59dc:	48 89 85 80 fd ff ff 	mov    %rax,-0x280(%rbp)
    59e3:	48 8d 85 00 fd ff ff 	lea    -0x300(%rbp),%rax
    59ea:	48 89 85 88 fd ff ff 	mov    %rax,-0x278(%rbp)
    59f1:	48 8d 85 00 fd ff ff 	lea    -0x300(%rbp),%rax
    59f8:	48 89 85 90 fd ff ff 	mov    %rax,-0x270(%rbp)
    59ff:	48 8d 85 00 fd ff ff 	lea    -0x300(%rbp),%rax
    5a06:	48 89 85 98 fd ff ff 	mov    %rax,-0x268(%rbp)
    5a0d:	48 8d 85 00 fd ff ff 	lea    -0x300(%rbp),%rax
    5a14:	48 89 85 a0 fd ff ff 	mov    %rax,-0x260(%rbp)
    5a1b:	48 8d 85 00 fd ff ff 	lea    -0x300(%rbp),%rax
    5a22:	48 89 85 a8 fd ff ff 	mov    %rax,-0x258(%rbp)
    5a29:	48 8d 85 00 fd ff ff 	lea    -0x300(%rbp),%rax
    5a30:	48 89 85 b0 fd ff ff 	mov    %rax,-0x250(%rbp)
    5a37:	48 8d 85 00 fd ff ff 	lea    -0x300(%rbp),%rax
    5a3e:	48 89 85 b8 fd ff ff 	mov    %rax,-0x248(%rbp)
    5a45:	48 8d 85 00 fd ff ff 	lea    -0x300(%rbp),%rax
    5a4c:	48 89 85 c0 fd ff ff 	mov    %rax,-0x240(%rbp)
    5a53:	48 8d 85 00 fd ff ff 	lea    -0x300(%rbp),%rax
    5a5a:	48 89 85 c8 fd ff ff 	mov    %rax,-0x238(%rbp)
    5a61:	48 8d 85 00 fd ff ff 	lea    -0x300(%rbp),%rax
    5a68:	48 89 85 d0 fd ff ff 	mov    %rax,-0x230(%rbp)
    5a6f:	48 c7 85 d8 fd ff ff 	movq   $0x0,-0x228(%rbp)
    5a76:	00 00 00 00 
    5a7a:	48 8d 85 00 fd ff ff 	lea    -0x300(%rbp),%rax
    5a81:	48 89 85 e0 fd ff ff 	mov    %rax,-0x220(%rbp)
    5a88:	48 8d 85 00 fd ff ff 	lea    -0x300(%rbp),%rax
    5a8f:	48 89 85 e8 fd ff ff 	mov    %rax,-0x218(%rbp)
    5a96:	48 8d 85 00 fd ff ff 	lea    -0x300(%rbp),%rax
    5a9d:	48 89 85 f0 fd ff ff 	mov    %rax,-0x210(%rbp)
    5aa4:	48 8d 85 00 fd ff ff 	lea    -0x300(%rbp),%rax
    5aab:	48 89 85 f8 fd ff ff 	mov    %rax,-0x208(%rbp)
    5ab2:	48 8d 85 00 fd ff ff 	lea    -0x300(%rbp),%rax
    5ab9:	48 89 85 00 fe ff ff 	mov    %rax,-0x200(%rbp)
    5ac0:	48 8d 85 00 fd ff ff 	lea    -0x300(%rbp),%rax
    5ac7:	48 89 85 08 fe ff ff 	mov    %rax,-0x1f8(%rbp)
    5ace:	48 8d 85 00 fd ff ff 	lea    -0x300(%rbp),%rax
    5ad5:	48 89 85 10 fe ff ff 	mov    %rax,-0x1f0(%rbp)
    5adc:	48 8d 85 00 fd ff ff 	lea    -0x300(%rbp),%rax
    5ae3:	48 89 85 18 fe ff ff 	mov    %rax,-0x1e8(%rbp)
    5aea:	48 8d 85 00 fd ff ff 	lea    -0x300(%rbp),%rax
    5af1:	48 89 85 20 fe ff ff 	mov    %rax,-0x1e0(%rbp)
    5af8:	48 8d 85 00 fd ff ff 	lea    -0x300(%rbp),%rax
    5aff:	48 89 85 28 fe ff ff 	mov    %rax,-0x1d8(%rbp)
    5b06:	48 8d 85 00 fd ff ff 	lea    -0x300(%rbp),%rax
    5b0d:	48 89 85 30 fe ff ff 	mov    %rax,-0x1d0(%rbp)
    5b14:	48 8d 85 00 fd ff ff 	lea    -0x300(%rbp),%rax
    5b1b:	48 89 85 38 fe ff ff 	mov    %rax,-0x1c8(%rbp)
    5b22:	48 8d 85 00 fd ff ff 	lea    -0x300(%rbp),%rax
    5b29:	48 89 85 40 fe ff ff 	mov    %rax,-0x1c0(%rbp)
    5b30:	48 c7 85 48 fe ff ff 	movq   $0x0,-0x1b8(%rbp)
    5b37:	00 00 00 00 
    5b3b:	48 8d 85 00 fd ff ff 	lea    -0x300(%rbp),%rax
    5b42:	48 89 85 50 fe ff ff 	mov    %rax,-0x1b0(%rbp)
    5b49:	48 8d 85 00 fd ff ff 	lea    -0x300(%rbp),%rax
    5b50:	48 89 85 58 fe ff ff 	mov    %rax,-0x1a8(%rbp)
    5b57:	48 8d 85 00 fd ff ff 	lea    -0x300(%rbp),%rax
    5b5e:	48 89 85 60 fe ff ff 	mov    %rax,-0x1a0(%rbp)
    5b65:	48 8d 85 00 fd ff ff 	lea    -0x300(%rbp),%rax
    5b6c:	48 89 85 68 fe ff ff 	mov    %rax,-0x198(%rbp)
    5b73:	48 8d 85 00 fd ff ff 	lea    -0x300(%rbp),%rax
    5b7a:	48 89 85 70 fe ff ff 	mov    %rax,-0x190(%rbp)
    5b81:	48 8d 85 00 fd ff ff 	lea    -0x300(%rbp),%rax
    5b88:	48 89 85 78 fe ff ff 	mov    %rax,-0x188(%rbp)
    5b8f:	48 8d 85 00 fd ff ff 	lea    -0x300(%rbp),%rax
    5b96:	48 89 85 80 fe ff ff 	mov    %rax,-0x180(%rbp)
    5b9d:	48 8d 85 00 fd ff ff 	lea    -0x300(%rbp),%rax
    5ba4:	48 89 85 88 fe ff ff 	mov    %rax,-0x178(%rbp)
    5bab:	48 8d 85 00 fd ff ff 	lea    -0x300(%rbp),%rax
    5bb2:	48 89 85 90 fe ff ff 	mov    %rax,-0x170(%rbp)
    5bb9:	48 8d 85 00 fd ff ff 	lea    -0x300(%rbp),%rax
    5bc0:	48 89 85 98 fe ff ff 	mov    %rax,-0x168(%rbp)
    5bc7:	48 8d 85 00 fd ff ff 	lea    -0x300(%rbp),%rax
    5bce:	48 89 85 a0 fe ff ff 	mov    %rax,-0x160(%rbp)
    5bd5:	48 8d 85 00 fd ff ff 	lea    -0x300(%rbp),%rax
    5bdc:	48 89 85 a8 fe ff ff 	mov    %rax,-0x158(%rbp)
    5be3:	48 8d 85 00 fd ff ff 	lea    -0x300(%rbp),%rax
    5bea:	48 89 85 b0 fe ff ff 	mov    %rax,-0x150(%rbp)
    5bf1:	48 c7 85 b8 fe ff ff 	movq   $0x0,-0x148(%rbp)
    5bf8:	00 00 00 00 
    5bfc:	48 8d 85 00 fd ff ff 	lea    -0x300(%rbp),%rax
    5c03:	48 89 85 c0 fe ff ff 	mov    %rax,-0x140(%rbp)
    5c0a:	48 8d 85 00 fd ff ff 	lea    -0x300(%rbp),%rax
    5c11:	48 89 85 c8 fe ff ff 	mov    %rax,-0x138(%rbp)
    5c18:	48 8d 85 00 fd ff ff 	lea    -0x300(%rbp),%rax
    5c1f:	48 89 85 d0 fe ff ff 	mov    %rax,-0x130(%rbp)
    5c26:	48 8d 85 00 fd ff ff 	lea    -0x300(%rbp),%rax
    5c2d:	48 89 85 d8 fe ff ff 	mov    %rax,-0x128(%rbp)
    5c34:	48 8d 85 00 fd ff ff 	lea    -0x300(%rbp),%rax
    5c3b:	48 89 85 e0 fe ff ff 	mov    %rax,-0x120(%rbp)
    5c42:	48 8d 85 00 fd ff ff 	lea    -0x300(%rbp),%rax
    5c49:	48 89 85 e8 fe ff ff 	mov    %rax,-0x118(%rbp)
    5c50:	48 8d 85 00 fd ff ff 	lea    -0x300(%rbp),%rax
    5c57:	48 89 85 f0 fe ff ff 	mov    %rax,-0x110(%rbp)
    5c5e:	48 8d 85 00 fd ff ff 	lea    -0x300(%rbp),%rax
    5c65:	48 89 85 f8 fe ff ff 	mov    %rax,-0x108(%rbp)
    5c6c:	48 8d 85 00 fd ff ff 	lea    -0x300(%rbp),%rax
    5c73:	48 89 85 00 ff ff ff 	mov    %rax,-0x100(%rbp)
    5c7a:	48 8d 85 00 fd ff ff 	lea    -0x300(%rbp),%rax
    5c81:	48 89 85 08 ff ff ff 	mov    %rax,-0xf8(%rbp)
    5c88:	48 8d 85 00 fd ff ff 	lea    -0x300(%rbp),%rax
    5c8f:	48 89 85 10 ff ff ff 	mov    %rax,-0xf0(%rbp)
    5c96:	48 8d 85 00 fd ff ff 	lea    -0x300(%rbp),%rax
    5c9d:	48 89 85 18 ff ff ff 	mov    %rax,-0xe8(%rbp)
    5ca4:	48 8d 85 00 fd ff ff 	lea    -0x300(%rbp),%rax
    5cab:	48 89 85 20 ff ff ff 	mov    %rax,-0xe0(%rbp)
    5cb2:	48 c7 85 28 ff ff ff 	movq   $0x0,-0xd8(%rbp)
    5cb9:	00 00 00 00 
    5cbd:	48 8d 85 00 fd ff ff 	lea    -0x300(%rbp),%rax
    5cc4:	48 89 85 30 ff ff ff 	mov    %rax,-0xd0(%rbp)
    5ccb:	48 8d 85 00 fd ff ff 	lea    -0x300(%rbp),%rax
    5cd2:	48 89 85 38 ff ff ff 	mov    %rax,-0xc8(%rbp)
    5cd9:	48 8d 85 00 fd ff ff 	lea    -0x300(%rbp),%rax
    5ce0:	48 89 85 40 ff ff ff 	mov    %rax,-0xc0(%rbp)
    5ce7:	48 8d 85 00 fd ff ff 	lea    -0x300(%rbp),%rax
    5cee:	48 89 85 48 ff ff ff 	mov    %rax,-0xb8(%rbp)
    5cf5:	48 8d 85 00 fd ff ff 	lea    -0x300(%rbp),%rax
    5cfc:	48 89 85 50 ff ff ff 	mov    %rax,-0xb0(%rbp)
    5d03:	48 8d 85 00 fd ff ff 	lea    -0x300(%rbp),%rax
    5d0a:	48 89 85 58 ff ff ff 	mov    %rax,-0xa8(%rbp)
    5d11:	48 8d 85 00 fd ff ff 	lea    -0x300(%rbp),%rax
    5d18:	48 89 85 60 ff ff ff 	mov    %rax,-0xa0(%rbp)
    5d1f:	48 8d 85 00 fd ff ff 	lea    -0x300(%rbp),%rax
    5d26:	48 89 85 68 ff ff ff 	mov    %rax,-0x98(%rbp)
    5d2d:	48 8d 85 00 fd ff ff 	lea    -0x300(%rbp),%rax
    5d34:	48 89 85 70 ff ff ff 	mov    %rax,-0x90(%rbp)
    5d3b:	48 8d 85 00 fd ff ff 	lea    -0x300(%rbp),%rax
    5d42:	48 89 85 78 ff ff ff 	mov    %rax,-0x88(%rbp)
    5d49:	48 8d 85 00 fd ff ff 	lea    -0x300(%rbp),%rax
    5d50:	48 89 45 80          	mov    %rax,-0x80(%rbp)
    5d54:	48 8d 85 00 fd ff ff 	lea    -0x300(%rbp),%rax
    5d5b:	48 89 45 88          	mov    %rax,-0x78(%rbp)
    5d5f:	48 8d 85 00 fd ff ff 	lea    -0x300(%rbp),%rax
    5d66:	48 89 45 90          	mov    %rax,-0x70(%rbp)
    5d6a:	48 c7 45 98 00 00 00 	movq   $0x0,-0x68(%rbp)
    5d71:	00 
    5d72:	48 8d 85 00 fd ff ff 	lea    -0x300(%rbp),%rax
    5d79:	48 89 45 a0          	mov    %rax,-0x60(%rbp)
    5d7d:	48 8d 85 00 fd ff ff 	lea    -0x300(%rbp),%rax
    5d84:	48 89 45 a8          	mov    %rax,-0x58(%rbp)
    5d88:	48 8d 85 00 fd ff ff 	lea    -0x300(%rbp),%rax
    5d8f:	48 89 45 b0          	mov    %rax,-0x50(%rbp)
    5d93:	48 8d 85 00 fd ff ff 	lea    -0x300(%rbp),%rax
    5d9a:	48 89 45 b8          	mov    %rax,-0x48(%rbp)
    5d9e:	48 8d 85 00 fd ff ff 	lea    -0x300(%rbp),%rax
    5da5:	48 89 45 c0          	mov    %rax,-0x40(%rbp)
    5da9:	48 8d 85 00 fd ff ff 	lea    -0x300(%rbp),%rax
    5db0:	48 89 45 c8          	mov    %rax,-0x38(%rbp)
    5db4:	48 8d 85 00 fd ff ff 	lea    -0x300(%rbp),%rax
    5dbb:	48 89 45 d0          	mov    %rax,-0x30(%rbp)
    5dbf:	48 8d 85 00 fd ff ff 	lea    -0x300(%rbp),%rax
    5dc6:	48 89 45 d8          	mov    %rax,-0x28(%rbp)
    5dca:	48 8d 85 00 fd ff ff 	lea    -0x300(%rbp),%rax
    5dd1:	48 89 45 e0          	mov    %rax,-0x20(%rbp)
    5dd5:	48 8d 85 00 fd ff ff 	lea    -0x300(%rbp),%rax
    5ddc:	48 89 45 e8          	mov    %rax,-0x18(%rbp)
    5de0:	c7 85 fc fc ff ff ff 	movl   $0xffffffff,-0x304(%rbp)
    5de7:	ff ff ff 
    5dea:	48 c7 85 10 fd ff ff 	movq   $0x0,-0x2f0(%rbp)
    5df1:	00 00 00 00 
    5df5:	48 c7 85 18 fd ff ff 	movq   $0x0,-0x2e8(%rbp)
    5dfc:	00 00 00 00 
    5e00:	48 c7 85 20 fd ff ff 	movq   $0x0,-0x2e0(%rbp)
    5e07:	00 00 00 00 
    5e0b:	48 c7 85 28 fd ff ff 	movq   $0x0,-0x2d8(%rbp)
    5e12:	00 00 00 00 
    5e16:	48 c7 85 30 fd ff ff 	movq   $0x0,-0x2d0(%rbp)
    5e1d:	00 00 00 00 
    5e21:	48 c7 85 38 fd ff ff 	movq   $0x0,-0x2c8(%rbp)
    5e28:	00 00 00 00 
    5e2c:	48 c7 85 40 fd ff ff 	movq   $0x0,-0x2c0(%rbp)
    5e33:	00 00 00 00 
    5e37:	0f b7 85 10 fd ff ff 	movzwl -0x2f0(%rbp),%eax
    5e3e:	66 25 00 c0          	and    $0xc000,%ax
    5e42:	66 0d fc 18          	or     $0x18fc,%ax
    5e46:	66 89 85 10 fd ff ff 	mov    %ax,-0x2f0(%rbp)
    5e4d:	0f b7 85 18 fd ff ff 	movzwl -0x2e8(%rbp),%eax
    5e54:	66 25 00 c0          	and    $0xc000,%ax
    5e58:	66 0d fc 18          	or     $0x18fc,%ax
    5e5c:	66 89 85 18 fd ff ff 	mov    %ax,-0x2e8(%rbp)
    5e63:	0f b7 85 20 fd ff ff 	movzwl -0x2e0(%rbp),%eax
    5e6a:	66 25 00 c0          	and    $0xc000,%ax
    5e6e:	66 0d fc 18          	or     $0x18fc,%ax
    5e72:	66 89 85 20 fd ff ff 	mov    %ax,-0x2e0(%rbp)
    5e79:	0f b7 85 28 fd ff ff 	movzwl -0x2d8(%rbp),%eax
    5e80:	66 25 00 c0          	and    $0xc000,%ax
    5e84:	66 0d fc 18          	or     $0x18fc,%ax
    5e88:	66 89 85 28 fd ff ff 	mov    %ax,-0x2d8(%rbp)
    5e8f:	0f b7 85 30 fd ff ff 	movzwl -0x2d0(%rbp),%eax
    5e96:	66 25 00 c0          	and    $0xc000,%ax
    5e9a:	66 0d fc 18          	or     $0x18fc,%ax
    5e9e:	66 89 85 30 fd ff ff 	mov    %ax,-0x2d0(%rbp)
    5ea5:	0f b7 85 38 fd ff ff 	movzwl -0x2c8(%rbp),%eax
    5eac:	66 25 00 c0          	and    $0xc000,%ax
    5eb0:	66 0d fc 18          	or     $0x18fc,%ax
    5eb4:	66 89 85 38 fd ff ff 	mov    %ax,-0x2c8(%rbp)
    5ebb:	0f b7 85 40 fd ff ff 	movzwl -0x2c0(%rbp),%eax
    5ec2:	66 25 00 c0          	and    $0xc000,%ax
    5ec6:	66 0d fc 18          	or     $0x18fc,%ax
    5eca:	66 89 85 40 fd ff ff 	mov    %ax,-0x2c0(%rbp)
    5ed1:	48 8b 85 08 fd ff ff 	mov    -0x2f8(%rbp),%rax
    5ed8:	98                   	cwtl   
    5ed9:	be 04 00 00 00       	mov    $0x4,%esi
    5ede:	89 c7                	mov    %eax,%edi
    5ee0:	e8 ad e5 ff ff       	callq  4492 <safe_lshift_func_int16_t_s_s>
    5ee5:	89 c2                	mov    %eax,%edx
    5ee7:	48 8b 05 1a 7b 00 00 	mov    0x7b1a(%rip),%rax        # da08 <g_627>
    5eee:	0f bf d2             	movswl %dx,%edx
    5ef1:	89 10                	mov    %edx,(%rax)
    5ef3:	c7 05 7b 72 00 00 47 	movl   $0x685fc347,0x727b(%rip)        # d178 <g_529>
    5efa:	c3 5f 68 
    5efd:	0f b7 85 ee fc ff ff 	movzwl -0x312(%rbp),%eax
    5f04:	0f bf d0             	movswl %ax,%edx
    5f07:	0f b7 85 ec fc ff ff 	movzwl -0x314(%rbp),%eax
    5f0e:	98                   	cwtl   
    5f0f:	89 d6                	mov    %edx,%esi
    5f11:	89 c7                	mov    %eax,%edi
    5f13:	e8 dd e4 ff ff       	callq  43f5 <safe_mul_func_int16_t_s_s>
    5f18:	48 83 bd d8 fc ff ff 	cmpq   $0x0,-0x328(%rbp)
    5f1f:	00 
    5f20:	0f 95 c1             	setne  %cl
    5f23:	48 8d 05 86 72 00 00 	lea    0x7286(%rip),%rax        # d1b0 <g_630>
    5f2a:	48 89 05 6f 82 00 00 	mov    %rax,0x826f(%rip)        # e1a0 <g_662>
    5f31:	48 8b 15 68 82 00 00 	mov    0x8268(%rip),%rdx        # e1a0 <g_662>
    5f38:	48 8b 05 69 82 00 00 	mov    0x8269(%rip),%rax        # e1a8 <g_665>
    5f3f:	48 39 c2             	cmp    %rax,%rdx
    5f42:	0f 95 c0             	setne  %al
    5f45:	31 c8                	xor    %ecx,%eax
    5f47:	0f b6 c0             	movzbl %al,%eax
    5f4a:	48 be af 4d 98 d7 e6 	movabs $0xd9b700e6d7984daf,%rsi
    5f51:	00 b7 d9 
    5f54:	48 89 c7             	mov    %rax,%rdi
    5f57:	e8 58 ea ff ff       	callq  49b4 <safe_mod_func_int64_t_s_s>
    5f5c:	48 83 f8 01          	cmp    $0x1,%rax
    5f60:	0f 94 c0             	sete   %al
    5f63:	0f b6 c0             	movzbl %al,%eax
    5f66:	89 c6                	mov    %eax,%esi
    5f68:	bf ff ff ff ff       	mov    $0xffffffff,%edi
    5f6d:	e8 20 e5 ff ff       	callq  4492 <safe_lshift_func_int16_t_s_s>
    5f72:	83 b5 f8 fc ff ff 01 	xorl   $0x1,-0x308(%rbp)
    5f79:	8b 85 f8 fc ff ff    	mov    -0x308(%rbp),%eax
    5f7f:	83 e0 01             	and    $0x1,%eax
    5f82:	89 c2                	mov    %eax,%edx
    5f84:	0f b7 85 ec fc ff ff 	movzwl -0x314(%rbp),%eax
    5f8b:	39 c2                	cmp    %eax,%edx
    5f8d:	0f 94 c2             	sete   %dl
    5f90:	48 8b 05 71 7a 00 00 	mov    0x7a71(%rip),%rax        # da08 <g_627>
    5f97:	0f b6 d2             	movzbl %dl,%edx
    5f9a:	89 10                	mov    %edx,(%rax)
    5f9c:	48 8b 85 38 fd ff ff 	mov    -0x2c8(%rbp),%rax
    5fa3:	48 8b 4d f8          	mov    -0x8(%rbp),%rcx
    5fa7:	64 48 33 0c 25 28 00 	xor    %fs:0x28,%rcx
    5fae:	00 00 
    5fb0:	74 05                	je     5fb7 <func_10+0x69d>
    5fb2:	e8 b9 e0 ff ff       	callq  4070 <__stack_chk_fail@plt>
    5fb7:	c9                   	leaveq 
    5fb8:	c3                   	retq   

0000000000005fb9 <func_19>:
    5fb9:	f3 0f 1e fa          	endbr64 
    5fbd:	55                   	push   %rbp
    5fbe:	48 89 e5             	mov    %rsp,%rbp
    5fc1:	41 57                	push   %r15
    5fc3:	41 56                	push   %r14
    5fc5:	41 55                	push   %r13
    5fc7:	41 54                	push   %r12
    5fc9:	53                   	push   %rbx
    5fca:	48 81 ec 98 00 00 00 	sub    $0x98,%rsp
    5fd1:	89 bd 5c ff ff ff    	mov    %edi,-0xa4(%rbp)
    5fd7:	48 89 b5 50 ff ff ff 	mov    %rsi,-0xb0(%rbp)
    5fde:	89 d0                	mov    %edx,%eax
    5fe0:	88 85 58 ff ff ff    	mov    %al,-0xa8(%rbp)
    5fe6:	64 48 8b 04 25 28 00 	mov    %fs:0x28,%rax
    5fed:	00 00 
    5fef:	48 89 45 c8          	mov    %rax,-0x38(%rbp)
    5ff3:	31 c0                	xor    %eax,%eax
    5ff5:	c7 85 6c ff ff ff 00 	movl   $0x0,-0x94(%rbp)
    5ffc:	00 00 00 
    5fff:	c7 45 c3 00 00 00 00 	movl   $0x0,-0x3d(%rbp)
    6006:	c6 45 c7 00          	movb   $0x0,-0x39(%rbp)
    600a:	48 c7 45 80 00 00 00 	movq   $0x0,-0x80(%rbp)
    6011:	00 
    6012:	48 8d 05 97 71 00 00 	lea    0x7197(%rip),%rax        # d1b0 <g_630>
    6019:	48 89 45 88          	mov    %rax,-0x78(%rbp)
    601d:	48 c7 45 90 f9 ff ff 	movq   $0xfffffffffffffff9,-0x70(%rbp)
    6024:	ff 
    6025:	48 8d 05 1c 70 00 00 	lea    0x701c(%rip),%rax        # d048 <g_16>
    602c:	48 89 85 70 ff ff ff 	mov    %rax,-0x90(%rbp)
    6033:	48 8d 85 70 ff ff ff 	lea    -0x90(%rbp),%rax
    603a:	48 89 85 78 ff ff ff 	mov    %rax,-0x88(%rbp)
    6041:	48 8d 85 78 ff ff ff 	lea    -0x88(%rbp),%rax
    6048:	48 89 45 98          	mov    %rax,-0x68(%rbp)
    604c:	48 c7 45 a0 00 00 00 	movq   $0x0,-0x60(%rbp)
    6053:	00 
    6054:	48 c7 45 a8 00 00 00 	movq   $0x0,-0x58(%rbp)
    605b:	00 
    605c:	48 c7 45 b0 00 00 00 	movq   $0x0,-0x50(%rbp)
    6063:	00 
    6064:	48 8d 85 6c ff ff ff 	lea    -0x94(%rbp),%rax
    606b:	48 89 45 b8          	mov    %rax,-0x48(%rbp)
    606f:	0f b6 45 c6          	movzbl -0x3a(%rbp),%eax
    6073:	44 0f be f8          	movsbl %al,%r15d
    6077:	8b 85 5c ff ff ff    	mov    -0xa4(%rbp),%eax
    607d:	44 0f bf e0          	movswl %ax,%r12d
    6081:	8b 85 6c ff ff ff    	mov    -0x94(%rbp),%eax
    6087:	48 63 d8             	movslq %eax,%rbx
    608a:	0f b6 55 c7          	movzbl -0x39(%rbp),%edx
    608e:	0f b6 85 58 ff ff ff 	movzbl -0xa8(%rbp),%eax
    6095:	09 d0                	or     %edx,%eax
    6097:	88 85 58 ff ff ff    	mov    %al,-0xa8(%rbp)
    609d:	0f b6 85 58 ff ff ff 	movzbl -0xa8(%rbp),%eax
    60a4:	83 e0 3d             	and    $0x3d,%eax
    60a7:	66 89 85 5a ff ff ff 	mov    %ax,-0xa6(%rbp)
    60ae:	0f b6 45 c7          	movzbl -0x39(%rbp),%eax
    60b2:	0f b6 f8             	movzbl %al,%edi
    60b5:	89 bd 4c ff ff ff    	mov    %edi,-0xb4(%rbp)
    60bb:	8b 85 6c ff ff ff    	mov    -0x94(%rbp),%eax
    60c1:	4c 63 f0             	movslq %eax,%r14
    60c4:	0f b7 05 c3 70 00 00 	movzwl 0x70c3(%rip),%eax        # d18e <g_542+0xe>
    60cb:	44 0f b7 e8          	movzwl %ax,%r13d
    60cf:	8b 85 5c ff ff ff    	mov    -0xa4(%rbp),%eax
    60d5:	89 c7                	mov    %eax,%edi
    60d7:	e8 ff 07 00 00       	callq  68db <func_43>
    60dc:	48 8b 85 50 ff ff ff 	mov    -0xb0(%rbp),%rax
    60e3:	0f b6 00             	movzbl (%rax),%eax
    60e6:	0f be c0             	movsbl %al,%eax
    60e9:	89 c6                	mov    %eax,%esi
    60eb:	bf d7 ff ff ff       	mov    $0xffffffd7,%edi
    60f0:	e8 3c e1 ff ff       	callq  4231 <safe_mod_func_int8_t_s_s>
    60f5:	0f be c0             	movsbl %al,%eax
    60f8:	48 8d 55 c3          	lea    -0x3d(%rbp),%rdx
    60fc:	48 8d 72 02          	lea    0x2(%rdx),%rsi
    6100:	44 8b 85 4c ff ff ff 	mov    -0xb4(%rbp),%r8d
    6107:	4c 89 f1             	mov    %r14,%rcx
    610a:	44 89 ea             	mov    %r13d,%edx
    610d:	89 c7                	mov    %eax,%edi
    610f:	e8 d1 01 00 00       	callq  62e5 <func_35>
    6114:	66 0b 85 5a ff ff ff 	or     -0xa6(%rbp),%ax
    611b:	0f bf d0             	movswl %ax,%edx
    611e:	8b 85 6c ff ff ff    	mov    -0x94(%rbp),%eax
    6124:	98                   	cwtl   
    6125:	89 d6                	mov    %edx,%esi
    6127:	89 c7                	mov    %eax,%edi
    6129:	e8 a5 e2 ff ff       	callq  43d3 <safe_sub_func_int16_t_s_s>
    612e:	98                   	cwtl   
    612f:	48 8b b5 50 ff ff ff 	mov    -0xb0(%rbp),%rsi
    6136:	45 89 f8             	mov    %r15d,%r8d
    6139:	44 89 e1             	mov    %r12d,%ecx
    613c:	48 89 da             	mov    %rbx,%rdx
    613f:	89 c7                	mov    %eax,%edi
    6141:	e8 2a 01 00 00       	callq  6270 <func_24>
    6146:	48 8b 55 88          	mov    -0x78(%rbp),%rdx
    614a:	8b 12                	mov    (%rdx),%edx
    614c:	31 c2                	xor    %eax,%edx
    614e:	48 8b 45 88          	mov    -0x78(%rbp),%rax
    6152:	89 10                	mov    %edx,(%rax)
    6154:	48 8b 45 88          	mov    -0x78(%rbp),%rax
    6158:	8b 00                	mov    (%rax),%eax
    615a:	4c 63 e0             	movslq %eax,%r12
    615d:	48 8b 45 88          	mov    -0x78(%rbp),%rax
    6161:	8b 00                	mov    (%rax),%eax
    6163:	0f b6 d0             	movzbl %al,%edx
    6166:	48 8b 45 90          	mov    -0x70(%rbp),%rax
    616a:	0f b6 c0             	movzbl %al,%eax
    616d:	89 d6                	mov    %edx,%esi
    616f:	89 c7                	mov    %eax,%edi
    6171:	e8 65 ea ff ff       	callq  4bdb <safe_div_func_uint8_t_u_u>
    6176:	44 0f b6 e8          	movzbl %al,%r13d
    617a:	48 8b 95 78 ff ff ff 	mov    -0x88(%rbp),%rdx
    6181:	48 8b 45 98          	mov    -0x68(%rbp),%rax
    6185:	48 89 10             	mov    %rdx,(%rax)
    6188:	48 8b 45 98          	mov    -0x68(%rbp),%rax
    618c:	48 8b 00             	mov    (%rax),%rax
    618f:	48 8b 15 02 7a 00 00 	mov    0x7a02(%rip),%rdx        # db98 <g_637+0x178>
    6196:	48 89 55 a0          	mov    %rdx,-0x60(%rbp)
    619a:	48 39 45 a0          	cmp    %rax,-0x60(%rbp)
    619e:	75 7c                	jne    621c <func_19+0x263>
    61a0:	48 8b 45 88          	mov    -0x78(%rbp),%rax
    61a4:	8b 18                	mov    (%rax),%ebx
    61a6:	be 68 00 00 00       	mov    $0x68,%esi
    61ab:	bf 01 00 00 00       	mov    $0x1,%edi
    61b0:	e8 c3 e9 ff ff       	callq  4b78 <safe_sub_func_uint8_t_u_u>
    61b5:	84 c0                	test   %al,%al
    61b7:	74 0e                	je     61c7 <func_19+0x20e>
    61b9:	48 83 7d b0 00       	cmpq   $0x0,-0x50(%rbp)
    61be:	74 07                	je     61c7 <func_19+0x20e>
    61c0:	b8 01 00 00 00       	mov    $0x1,%eax
    61c5:	eb 05                	jmp    61cc <func_19+0x213>
    61c7:	b8 00 00 00 00       	mov    $0x0,%eax
    61cc:	83 f8 10             	cmp    $0x10,%eax
    61cf:	0f 94 c0             	sete   %al
    61d2:	0f b6 c0             	movzbl %al,%eax
    61d5:	89 de                	mov    %ebx,%esi
    61d7:	89 c7                	mov    %eax,%edi
    61d9:	e8 27 ea ff ff       	callq  4c05 <safe_lshift_func_uint8_t_u_s>
    61de:	0f b6 c0             	movzbl %al,%eax
    61e1:	48 89 c6             	mov    %rax,%rsi
    61e4:	48 bf 0a 84 3e d6 de 	movabs $0x75b670ded63e840a,%rdi
    61eb:	70 b6 75 
    61ee:	e8 bc ee ff ff       	callq  50af <safe_div_func_uint64_t_u_u>
    61f3:	48 89 c2             	mov    %rax,%rdx
    61f6:	48 8b 45 a8          	mov    -0x58(%rbp),%rax
    61fa:	48 89 d6             	mov    %rdx,%rsi
    61fd:	48 89 c7             	mov    %rax,%rdi
    6200:	e8 7b ee ff ff       	callq  5080 <safe_mod_func_uint64_t_u_u>
    6205:	48 8b 15 e4 77 00 00 	mov    0x77e4(%rip),%rdx        # d9f0 <g_395>
    620c:	8b 12                	mov    (%rdx),%edx
    620e:	89 d2                	mov    %edx,%edx
    6210:	48 39 d0             	cmp    %rdx,%rax
    6213:	76 07                	jbe    621c <func_19+0x263>
    6215:	b8 01 00 00 00       	mov    $0x1,%eax
    621a:	eb 05                	jmp    6221 <func_19+0x268>
    621c:	b8 00 00 00 00       	mov    $0x0,%eax
    6221:	83 f0 02             	xor    $0x2,%eax
    6224:	48 98                	cltq   
    6226:	4c 31 e8             	xor    %r13,%rax
    6229:	4c 89 e2             	mov    %r12,%rdx
    622c:	48 09 c2             	or     %rax,%rdx
    622f:	48 8b 45 b8          	mov    -0x48(%rbp),%rax
    6233:	8b 00                	mov    (%rax),%eax
    6235:	89 c1                	mov    %eax,%ecx
    6237:	89 d0                	mov    %edx,%eax
    6239:	21 c8                	and    %ecx,%eax
    623b:	89 c2                	mov    %eax,%edx
    623d:	48 8b 45 b8          	mov    -0x48(%rbp),%rax
    6241:	89 10                	mov    %edx,(%rax)
    6243:	48 8b 85 50 ff ff ff 	mov    -0xb0(%rbp),%rax
    624a:	48 8b 5d c8          	mov    -0x38(%rbp),%rbx
    624e:	64 48 33 1c 25 28 00 	xor    %fs:0x28,%rbx
    6255:	00 00 
    6257:	74 05                	je     625e <func_19+0x2a5>
    6259:	e8 12 de ff ff       	callq  4070 <__stack_chk_fail@plt>
    625e:	48 81 c4 98 00 00 00 	add    $0x98,%rsp
    6265:	5b                   	pop    %rbx
    6266:	41 5c                	pop    %r12
    6268:	41 5d                	pop    %r13
    626a:	41 5e                	pop    %r14
    626c:	41 5f                	pop    %r15
    626e:	5d                   	pop    %rbp
    626f:	c3                   	retq   

0000000000006270 <func_24>:
    6270:	f3 0f 1e fa          	endbr64 
    6274:	55                   	push   %rbp
    6275:	48 89 e5             	mov    %rsp,%rbp
    6278:	89 7d ec             	mov    %edi,-0x14(%rbp)
    627b:	48 89 75 e0          	mov    %rsi,-0x20(%rbp)
    627f:	48 89 55 d8          	mov    %rdx,-0x28(%rbp)
    6283:	89 c8                	mov    %ecx,%eax
    6285:	44 89 45 d4          	mov    %r8d,-0x2c(%rbp)
    6289:	66 89 45 e8          	mov    %ax,-0x18(%rbp)
    628d:	c7 45 fc f9 3a 7c a7 	movl   $0xa77c3af9,-0x4(%rbp)
    6294:	c7 45 d4 c6 33 73 a2 	movl   $0xa27333c6,-0x2c(%rbp)
    629b:	48 8b 05 66 77 00 00 	mov    0x7766(%rip),%rax        # da08 <g_627>
    62a2:	8b 55 d4             	mov    -0x2c(%rbp),%edx
    62a5:	89 10                	mov    %edx,(%rax)
    62a7:	c7 05 43 83 00 00 00 	movl   $0x0,0x8343(%rip)        # e5f4 <g_256>
    62ae:	00 00 00 
    62b1:	eb 22                	jmp    62d5 <func_24+0x65>
    62b3:	8b 05 3b 83 00 00    	mov    0x833b(%rip),%eax        # e5f4 <g_256>
    62b9:	89 c2                	mov    %eax,%edx
    62bb:	48 8d 05 8c 6d 00 00 	lea    0x6d8c(%rip),%rax        # d04e <g_56>
    62c2:	c6 04 02 cf          	movb   $0xcf,(%rdx,%rax,1)
    62c6:	8b 05 28 83 00 00    	mov    0x8328(%rip),%eax        # e5f4 <g_256>
    62cc:	83 c0 01             	add    $0x1,%eax
    62cf:	89 05 1f 83 00 00    	mov    %eax,0x831f(%rip)        # e5f4 <g_256>
    62d5:	8b 05 19 83 00 00    	mov    0x8319(%rip),%eax        # e5f4 <g_256>
    62db:	83 f8 04             	cmp    $0x4,%eax
    62de:	76 d3                	jbe    62b3 <func_24+0x43>
    62e0:	8b 45 fc             	mov    -0x4(%rbp),%eax
    62e3:	5d                   	pop    %rbp
    62e4:	c3                   	retq   

00000000000062e5 <func_35>:
    62e5:	f3 0f 1e fa          	endbr64 
    62e9:	55                   	push   %rbp
    62ea:	48 89 e5             	mov    %rsp,%rbp
    62ed:	41 57                	push   %r15
    62ef:	41 56                	push   %r14
    62f1:	41 55                	push   %r13
    62f3:	41 54                	push   %r12
    62f5:	53                   	push   %rbx
    62f6:	48 81 ec 18 02 00 00 	sub    $0x218,%rsp
    62fd:	89 bd ec fd ff ff    	mov    %edi,-0x214(%rbp)
    6303:	48 89 b5 e0 fd ff ff 	mov    %rsi,-0x220(%rbp)
    630a:	89 95 e8 fd ff ff    	mov    %edx,-0x218(%rbp)
    6310:	48 89 8d d8 fd ff ff 	mov    %rcx,-0x228(%rbp)
    6317:	44 89 c0             	mov    %r8d,%eax
    631a:	88 85 d4 fd ff ff    	mov    %al,-0x22c(%rbp)
    6320:	64 48 8b 04 25 28 00 	mov    %fs:0x28,%rax
    6327:	00 00 
    6329:	48 89 45 c8          	mov    %rax,-0x38(%rbp)
    632d:	31 c0                	xor    %eax,%eax
    632f:	48 8d 05 e2 72 00 00 	lea    0x72e2(%rip),%rax        # d618 <g_84>
    6336:	48 89 85 10 fe ff ff 	mov    %rax,-0x1f0(%rbp)
    633d:	c7 85 f0 fd ff ff 91 	movl   $0x8a0c7b91,-0x210(%rbp)
    6344:	7b 0c 8a 
    6347:	48 8d 05 0e 6e 00 00 	lea    0x6e0e(%rip),%rax        # d15c <g_345>
    634e:	48 89 85 18 fe ff ff 	mov    %rax,-0x1e8(%rbp)
    6355:	48 8d 05 68 6d 00 00 	lea    0x6d68(%rip),%rax        # d0c4 <g_95>
    635c:	48 89 85 20 fe ff ff 	mov    %rax,-0x1e0(%rbp)
    6363:	48 8d 05 24 6e 00 00 	lea    0x6e24(%rip),%rax        # d18e <g_542+0xe>
    636a:	48 89 85 28 fe ff ff 	mov    %rax,-0x1d8(%rbp)
    6371:	48 8d 05 d0 6c 00 00 	lea    0x6cd0(%rip),%rax        # d048 <g_16>
    6378:	48 89 85 30 fe ff ff 	mov    %rax,-0x1d0(%rbp)
    637f:	48 c7 85 00 fe ff ff 	movq   $0x0,-0x200(%rbp)
    6386:	00 00 00 00 
    638a:	c7 85 f4 fd ff ff 2f 	movl   $0xfa4c102f,-0x20c(%rbp)
    6391:	10 4c fa 
    6394:	48 8b 05 35 6d 00 00 	mov    0x6d35(%rip),%rax        # d0d0 <g_137>
    639b:	0f bf d8             	movswl %ax,%ebx
    639e:	48 8b 05 73 72 00 00 	mov    0x7273(%rip),%rax        # d618 <g_84>
    63a5:	48 8b 00             	mov    (%rax),%rax
    63a8:	0f b6 00             	movzbl (%rax),%eax
    63ab:	44 0f be e0          	movsbl %al,%r12d
    63af:	80 bd d4 fd ff ff 00 	cmpb   $0x0,-0x22c(%rbp)
    63b6:	74 47                	je     63ff <func_35+0x11a>
    63b8:	8b 85 ec fd ff ff    	mov    -0x214(%rbp),%eax
    63be:	4c 63 e8             	movslq %eax,%r13
    63c1:	48 8b 05 48 72 00 00 	mov    0x7248(%rip),%rax        # d610 <g_85>
    63c8:	0f b6 00             	movzbl (%rax),%eax
    63cb:	0f be d0             	movsbl %al,%edx
    63ce:	48 8b 85 e0 fd ff ff 	mov    -0x220(%rbp),%rax
    63d5:	0f b6 00             	movzbl (%rax),%eax
    63d8:	0f be c0             	movsbl %al,%eax
    63db:	89 d6                	mov    %edx,%esi
    63dd:	89 c7                	mov    %eax,%edi
    63df:	e8 4d de ff ff       	callq  4231 <safe_mod_func_int8_t_s_s>
    63e4:	48 0f be c0          	movsbq %al,%rax
    63e8:	4c 89 ee             	mov    %r13,%rsi
    63eb:	48 89 c7             	mov    %rax,%rdi
    63ee:	e8 b5 e4 ff ff       	callq  48a8 <safe_sub_func_int64_t_s_s>
    63f3:	8b 95 f0 fd ff ff    	mov    -0x210(%rbp),%edx
    63f9:	48 63 d2             	movslq %edx,%rdx
    63fc:	48 39 d0             	cmp    %rdx,%rax
    63ff:	44 89 e6             	mov    %r12d,%esi
    6402:	bf 00 00 00 00       	mov    $0x0,%edi
    6407:	e8 25 de ff ff       	callq  4231 <safe_mod_func_int8_t_s_s>
    640c:	0f be d0             	movsbl %al,%edx
    640f:	48 8d 05 02 72 00 00 	lea    0x7202(%rip),%rax        # d618 <g_84>
    6416:	48 39 85 10 fe ff ff 	cmp    %rax,-0x1f0(%rbp)
    641d:	0f 95 c0             	setne  %al
    6420:	0f b6 c0             	movzbl %al,%eax
    6423:	89 d6                	mov    %edx,%esi
    6425:	89 c7                	mov    %eax,%edi
    6427:	e8 37 e1 ff ff       	callq  4563 <safe_rshift_func_int16_t_s_u>
    642c:	98                   	cwtl   
    642d:	89 de                	mov    %ebx,%esi
    642f:	89 c7                	mov    %eax,%edi
    6431:	e8 bf df ff ff       	callq  43f5 <safe_mul_func_int16_t_s_s>
    6436:	be 04 00 00 00       	mov    $0x4,%esi
    643b:	bf 00 00 00 00       	mov    $0x0,%edi
    6440:	e8 9c e0 ff ff       	callq  44e1 <safe_lshift_func_int16_t_s_u>
    6445:	0f bf d8             	movswl %ax,%ebx
    6448:	8b 85 ec fd ff ff    	mov    -0x214(%rbp),%eax
    644e:	98                   	cwtl   
    644f:	48 8b 15 8a 75 00 00 	mov    0x758a(%rip),%rdx        # d9e0 <g_313>
    6456:	66 c7 02 ff ff       	movw   $0xffff,(%rdx)
    645b:	89 c6                	mov    %eax,%esi
    645d:	bf ff ff ff ff       	mov    $0xffffffff,%edi
    6462:	e8 8e df ff ff       	callq  43f5 <safe_mul_func_int16_t_s_s>
    6467:	0f b6 15 82 81 00 00 	movzbl 0x8182(%rip),%edx        # e5f0 <g_222>
    646e:	66 0f be d2          	movsbw %dl,%dx
    6472:	66 39 d0             	cmp    %dx,%ax
    6475:	0f 9f c0             	setg   %al
    6478:	0f b6 c0             	movzbl %al,%eax
    647b:	89 de                	mov    %ebx,%esi
    647d:	89 c7                	mov    %eax,%edi
    647f:	e8 4f df ff ff       	callq  43d3 <safe_sub_func_int16_t_s_s>
    6484:	83 bd f0 fd ff ff 01 	cmpl   $0x1,-0x210(%rbp)
    648b:	0f 94 c0             	sete   %al
    648e:	0f b6 d0             	movzbl %al,%edx
    6491:	48 8b 85 18 fe ff ff 	mov    -0x1e8(%rbp),%rax
    6498:	8b 00                	mov    (%rax),%eax
    649a:	21 c2                	and    %eax,%edx
    649c:	48 8b 85 18 fe ff ff 	mov    -0x1e8(%rbp),%rax
    64a3:	89 10                	mov    %edx,(%rax)
    64a5:	48 8b 85 d8 fd ff ff 	mov    -0x228(%rbp),%rax
    64ac:	0f b7 d8             	movzwl %ax,%ebx
    64af:	80 bd d4 fd ff ff 00 	cmpb   $0x0,-0x22c(%rbp)
    64b6:	74 07                	je     64bf <func_35+0x1da>
    64b8:	b8 71 00 00 00       	mov    $0x71,%eax
    64bd:	eb 05                	jmp    64c4 <func_35+0x1df>
    64bf:	b8 70 00 00 00       	mov    $0x70,%eax
    64c4:	be 06 00 00 00       	mov    $0x6,%esi
    64c9:	89 c7                	mov    %eax,%edi
    64cb:	e8 d1 dd ff ff       	callq  42a1 <safe_lshift_func_int8_t_s_s>
    64d0:	48 8b 85 e0 fd ff ff 	mov    -0x220(%rbp),%rax
    64d7:	0f b6 00             	movzbl (%rax),%eax
    64da:	44 0f b6 e0          	movzbl %al,%r12d
    64de:	48 8b 85 18 fe ff ff 	mov    -0x1e8(%rbp),%rax
    64e5:	8b 10                	mov    (%rax),%edx
    64e7:	48 8b 85 18 fe ff ff 	mov    -0x1e8(%rbp),%rax
    64ee:	8b 08                	mov    (%rax),%ecx
    64f0:	48 8b 05 11 71 00 00 	mov    0x7111(%rip),%rax        # d608 <g_55>
    64f7:	0f b6 00             	movzbl (%rax),%eax
    64fa:	0f b6 c0             	movzbl %al,%eax
    64fd:	39 c1                	cmp    %eax,%ecx
    64ff:	0f 9c c0             	setl   %al
    6502:	0f b6 c8             	movzbl %al,%ecx
    6505:	0f b6 85 d4 fd ff ff 	movzbl -0x22c(%rbp),%eax
    650c:	39 c1                	cmp    %eax,%ecx
    650e:	0f 94 c0             	sete   %al
    6511:	0f b6 c8             	movzbl %al,%ecx
    6514:	0f b6 05 dd 6b 00 00 	movzbl 0x6bdd(%rip),%eax        # d0f8 <g_262>
    651b:	0f b6 c0             	movzbl %al,%eax
    651e:	31 c1                	xor    %eax,%ecx
    6520:	48 8b 85 e0 fd ff ff 	mov    -0x220(%rbp),%rax
    6527:	0f b6 00             	movzbl (%rax),%eax
    652a:	66 98                	cbtw   
    652c:	31 c8                	xor    %ecx,%eax
    652e:	0f b7 c0             	movzwl %ax,%eax
    6531:	89 d6                	mov    %edx,%esi
    6533:	89 c7                	mov    %eax,%edi
    6535:	e8 0e e9 ff ff       	callq  4e48 <safe_rshift_func_uint16_t_u_s>
    653a:	83 f0 f9             	xor    $0xfffffff9,%eax
    653d:	0f b6 c0             	movzbl %al,%eax
    6540:	44 89 e6             	mov    %r12d,%esi
    6543:	89 c7                	mov    %eax,%edi
    6545:	e8 49 e6 ff ff       	callq  4b93 <safe_mul_func_uint8_t_u_u>
    654a:	84 c0                	test   %al,%al
    654c:	74 0b                	je     6559 <func_35+0x274>
    654e:	48 8b 05 9b 74 00 00 	mov    0x749b(%rip),%rax        # d9f0 <g_395>
    6555:	8b 00                	mov    (%rax),%eax
    6557:	85 c0                	test   %eax,%eax
    6559:	48 8b 85 30 fe ff ff 	mov    -0x1d0(%rbp),%rax
    6560:	48 3b 85 28 fe ff ff 	cmp    -0x1d8(%rbp),%rax
    6567:	0f 95 c0             	setne  %al
    656a:	0f b6 c0             	movzbl %al,%eax
    656d:	be 01 00 00 00       	mov    $0x1,%esi
    6572:	89 c7                	mov    %eax,%edi
    6574:	e8 5a de ff ff       	callq  43d3 <safe_sub_func_int16_t_s_s>
    6579:	0f bf d0             	movswl %ax,%edx
    657c:	48 8b 85 20 fe ff ff 	mov    -0x1e0(%rbp),%rax
    6583:	8b 00                	mov    (%rax),%eax
    6585:	83 e0 01             	and    $0x1,%eax
    6588:	89 c1                	mov    %eax,%ecx
    658a:	48 8b 85 20 fe ff ff 	mov    -0x1e0(%rbp),%rax
    6591:	89 08                	mov    %ecx,(%rax)
    6593:	48 8b 85 20 fe ff ff 	mov    -0x1e0(%rbp),%rax
    659a:	8b 00                	mov    (%rax),%eax
    659c:	89 d6                	mov    %edx,%esi
    659e:	89 c7                	mov    %eax,%edi
    65a0:	e8 60 e0 ff ff       	callq  4605 <safe_sub_func_int32_t_s_s>
    65a5:	98                   	cwtl   
    65a6:	be 03 00 00 00       	mov    $0x3,%esi
    65ab:	89 c7                	mov    %eax,%edi
    65ad:	e8 b1 df ff ff       	callq  4563 <safe_rshift_func_int16_t_s_u>
    65b2:	98                   	cwtl   
    65b3:	89 c6                	mov    %eax,%esi
    65b5:	bf ff ff ff ff       	mov    $0xffffffff,%edi
    65ba:	e8 46 e0 ff ff       	callq  4605 <safe_sub_func_int32_t_s_s>
    65bf:	0f b7 c0             	movzwl %ax,%eax
    65c2:	89 de                	mov    %ebx,%esi
    65c4:	89 c7                	mov    %eax,%edi
    65c6:	e8 72 e7 ff ff       	callq  4d3d <safe_mul_func_uint16_t_u_u>
    65cb:	48 8b 85 20 fe ff ff 	mov    -0x1e0(%rbp),%rax
    65d2:	8b 00                	mov    (%rax),%eax
    65d4:	85 c0                	test   %eax,%eax
    65d6:	0f 84 aa 01 00 00    	je     6786 <func_35+0x4a1>
    65dc:	48 8d 85 40 fe ff ff 	lea    -0x1c0(%rbp),%rax
    65e3:	48 8d 15 56 6d 00 00 	lea    0x6d56(%rip),%rdx        # d340 <g_630+0x190>
    65ea:	b9 30 00 00 00       	mov    $0x30,%ecx
    65ef:	48 89 c7             	mov    %rax,%rdi
    65f2:	48 89 d6             	mov    %rdx,%rsi
    65f5:	f3 48 a5             	rep movsq %ds:(%rsi),%es:(%rdi)
    65f8:	48 c7 85 08 fe ff ff 	movq   $0x0,-0x1f8(%rbp)
    65ff:	00 00 00 00 
    6603:	48 8d 05 ce 6a 00 00 	lea    0x6ace(%rip),%rax        # d0d8 <g_207>
    660a:	48 89 85 38 fe ff ff 	mov    %rax,-0x1c8(%rbp)
    6611:	c7 85 fc fd ff ff f7 	movl   $0xfffffff7,-0x204(%rbp)
    6618:	ff ff ff 
    661b:	48 8b 85 e0 fd ff ff 	mov    -0x220(%rbp),%rax
    6622:	0f b6 00             	movzbl (%rax),%eax
    6625:	0f b6 d8             	movzbl %al,%ebx
    6628:	44 0f b6 a5 d4 fd ff 	movzbl -0x22c(%rbp),%r12d
    662f:	ff 
    6630:	0f b6 85 d4 fd ff ff 	movzbl -0x22c(%rbp),%eax
    6637:	89 85 d0 fd ff ff    	mov    %eax,-0x230(%rbp)
    663d:	44 8b b5 fc fd ff ff 	mov    -0x204(%rbp),%r14d
    6644:	48 8b 05 ed 6f 00 00 	mov    0x6fed(%rip),%rax        # d638 <g_226>
    664b:	48 8b 00             	mov    (%rax),%rax
    664e:	4c 8b 28             	mov    (%rax),%r13
    6651:	48 8b 05 a8 6f 00 00 	mov    0x6fa8(%rip),%rax        # d600 <g_17>
    6658:	c6 00 00             	movb   $0x0,(%rax)
    665b:	44 8b bd f4 fd ff ff 	mov    -0x20c(%rbp),%r15d
    6662:	48 8b 85 e0 fd ff ff 	mov    -0x220(%rbp),%rax
    6669:	0f b6 00             	movzbl (%rax),%eax
    666c:	0f be c8             	movsbl %al,%ecx
    666f:	89 8d cc fd ff ff    	mov    %ecx,-0x234(%rbp)
    6675:	48 8b 85 18 fe ff ff 	mov    -0x1e8(%rbp),%rax
    667c:	8b 00                	mov    (%rax),%eax
    667e:	83 e0 01             	and    $0x1,%eax
    6681:	89 c2                	mov    %eax,%edx
    6683:	48 8b 85 18 fe ff ff 	mov    -0x1e8(%rbp),%rax
    668a:	89 10                	mov    %edx,(%rax)
    668c:	48 8b 85 18 fe ff ff 	mov    -0x1e8(%rbp),%rax
    6693:	8b 10                	mov    (%rax),%edx
    6695:	48 8b 85 20 fe ff ff 	mov    -0x1e0(%rbp),%rax
    669c:	89 10                	mov    %edx,(%rax)
    669e:	48 8b 85 20 fe ff ff 	mov    -0x1e0(%rbp),%rax
    66a5:	8b 00                	mov    (%rax),%eax
    66a7:	89 85 f0 fd ff ff    	mov    %eax,-0x210(%rbp)
    66ad:	8b 95 f0 fd ff ff    	mov    -0x210(%rbp),%edx
    66b3:	48 8b 05 36 73 00 00 	mov    0x7336(%rip),%rax        # d9f0 <g_395>
    66ba:	8b 00                	mov    (%rax),%eax
    66bc:	89 d6                	mov    %edx,%esi
    66be:	89 c7                	mov    %eax,%edi
    66c0:	e8 60 e8 ff ff       	callq  4f25 <safe_div_func_uint32_t_u_u>
    66c5:	0f be c0             	movsbl %al,%eax
    66c8:	be 2c 00 00 00       	mov    $0x2c,%esi
    66cd:	89 c7                	mov    %eax,%edi
    66cf:	e8 96 db ff ff       	callq  426a <safe_div_func_int8_t_s_s>
    66d4:	0f be c0             	movsbl %al,%eax
    66d7:	8b 95 ec fd ff ff    	mov    -0x214(%rbp),%edx
    66dd:	89 d6                	mov    %edx,%esi
    66df:	89 c7                	mov    %eax,%edi
    66e1:	e8 1f df ff ff       	callq  4605 <safe_sub_func_int32_t_s_s>
    66e6:	8b b5 cc fd ff ff    	mov    -0x234(%rbp),%esi
    66ec:	bf 01 00 00 00       	mov    $0x1,%edi
    66f1:	e8 0f e5 ff ff       	callq  4c05 <safe_lshift_func_uint8_t_u_s>
    66f6:	0f b6 c0             	movzbl %al,%eax
    66f9:	be ac cb 00 00       	mov    $0xcbac,%esi
    66fe:	89 c7                	mov    %eax,%edi
    6700:	e8 89 e6 ff ff       	callq  4d8e <safe_div_func_uint16_t_u_u>
    6705:	0f b7 c0             	movzwl %ax,%eax
    6708:	44 89 fe             	mov    %r15d,%esi
    670b:	89 c7                	mov    %eax,%edi
    670d:	e8 13 e8 ff ff       	callq  4f25 <safe_div_func_uint32_t_u_u>
    6712:	85 c0                	test   %eax,%eax
    6714:	0f 94 c0             	sete   %al
    6717:	0f b6 f0             	movzbl %al,%esi
    671a:	48 8b 85 e0 fe ff ff 	mov    -0x120(%rbp),%rax
    6721:	44 8b 85 d0 fd ff ff 	mov    -0x230(%rbp),%r8d
    6728:	44 89 f1             	mov    %r14d,%ecx
    672b:	4c 89 ea             	mov    %r13,%rdx
    672e:	48 89 c7             	mov    %rax,%rdi
    6731:	e8 93 19 00 00       	callq  80c9 <func_74>
    6736:	8b 15 14 6a 00 00    	mov    0x6a14(%rip),%edx        # d150 <g_335>
    673c:	8b 85 fc fd ff ff    	mov    -0x204(%rbp),%eax
    6742:	39 c2                	cmp    %eax,%edx
    6744:	0f 92 c0             	setb   %al
    6747:	0f b6 c0             	movzbl %al,%eax
    674a:	4c 89 e6             	mov    %r12,%rsi
    674d:	48 89 c7             	mov    %rax,%rdi
    6750:	e8 2b e9 ff ff       	callq  5080 <safe_mod_func_uint64_t_u_u>
    6755:	be ab a9 00 00       	mov    $0xa9ab,%esi
    675a:	bf 01 00 00 00       	mov    $0x1,%edi
    675f:	e8 d9 e5 ff ff       	callq  4d3d <safe_mul_func_uint16_t_u_u>
    6764:	0f b6 c0             	movzbl %al,%eax
    6767:	89 de                	mov    %ebx,%esi
    6769:	89 c7                	mov    %eax,%edi
    676b:	e8 08 e4 ff ff       	callq  4b78 <safe_sub_func_uint8_t_u_u>
    6770:	8b 15 2a 6a 00 00    	mov    0x6a2a(%rip),%edx        # d1a0 <g_614>
    6776:	0f b6 c0             	movzbl %al,%eax
    6779:	21 d0                	and    %edx,%eax
    677b:	89 05 1f 6a 00 00    	mov    %eax,0x6a1f(%rip)        # d1a0 <g_614>
    6781:	e9 28 01 00 00       	jmpq   68ae <func_35+0x5c9>
    6786:	c7 85 f8 fd ff ff b3 	movl   $0xdefad6b3,-0x208(%rbp)
    678d:	d6 fa de 
    6790:	c7 05 2a 69 00 00 12 	movl   $0x12,0x692a(%rip)        # d0c4 <g_95>
    6797:	00 00 00 
    679a:	e9 00 01 00 00       	jmpq   689f <func_35+0x5ba>
    679f:	c7 85 40 fe ff ff 05 	movl   $0x5,-0x1c0(%rbp)
    67a6:	00 00 00 
    67a9:	c7 85 44 fe ff ff 00 	movl   $0x0,-0x1bc(%rbp)
    67b0:	00 00 00 
    67b3:	c7 85 48 fe ff ff 05 	movl   $0x5,-0x1b8(%rbp)
    67ba:	00 00 00 
    67bd:	c7 85 4c fe ff ff 00 	movl   $0x0,-0x1b4(%rbp)
    67c4:	00 00 00 
    67c7:	c7 85 50 fe ff ff 05 	movl   $0x5,-0x1b0(%rbp)
    67ce:	00 00 00 
    67d1:	c7 85 54 fe ff ff 00 	movl   $0x0,-0x1ac(%rbp)
    67d8:	00 00 00 
    67db:	c7 85 58 fe ff ff 05 	movl   $0x5,-0x1a8(%rbp)
    67e2:	00 00 00 
    67e5:	c7 85 5c fe ff ff 00 	movl   $0x0,-0x1a4(%rbp)
    67ec:	00 00 00 
    67ef:	c7 85 60 fe ff ff 05 	movl   $0x5,-0x1a0(%rbp)
    67f6:	00 00 00 
    67f9:	48 8b 05 e0 71 00 00 	mov    0x71e0(%rip),%rax        # d9e0 <g_313>
    6800:	66 c7 00 01 00       	movw   $0x1,(%rax)
    6805:	0f b6 95 d4 fd ff ff 	movzbl -0x22c(%rbp),%edx
    680c:	0f b6 85 d4 fd ff ff 	movzbl -0x22c(%rbp),%eax
    6813:	48 0b 85 d8 fd ff ff 	or     -0x228(%rbp),%rax
    681a:	48 89 c1             	mov    %rax,%rcx
    681d:	8b 85 f8 fd ff ff    	mov    -0x208(%rbp),%eax
    6823:	48 39 c1             	cmp    %rax,%rcx
    6826:	0f 9f c0             	setg   %al
    6829:	0f b6 c0             	movzbl %al,%eax
    682c:	89 d6                	mov    %edx,%esi
    682e:	89 c7                	mov    %eax,%edi
    6830:	e8 13 e6 ff ff       	callq  4e48 <safe_rshift_func_uint16_t_u_s>
    6835:	0f b6 95 d4 fd ff ff 	movzbl -0x22c(%rbp),%edx
    683c:	66 39 d0             	cmp    %dx,%ax
    683f:	0f 95 c0             	setne  %al
    6842:	0f b6 d0             	movzbl %al,%edx
    6845:	48 8b 85 18 fe ff ff 	mov    -0x1e8(%rbp),%rax
    684c:	8b 00                	mov    (%rax),%eax
    684e:	98                   	cwtl   
    684f:	89 d6                	mov    %edx,%esi
    6851:	89 c7                	mov    %eax,%edi
    6853:	e8 9d db ff ff       	callq  43f5 <safe_mul_func_int16_t_s_s>
    6858:	48 8b 85 18 fe ff ff 	mov    -0x1e8(%rbp),%rax
    685f:	8b 00                	mov    (%rax),%eax
    6861:	89 c2                	mov    %eax,%edx
    6863:	8b 85 ec fd ff ff    	mov    -0x214(%rbp),%eax
    6869:	21 d0                	and    %edx,%eax
    686b:	0f b6 c0             	movzbl %al,%eax
    686e:	be bf 00 00 00       	mov    $0xbf,%esi
    6873:	89 c7                	mov    %eax,%edi
    6875:	e8 19 e3 ff ff       	callq  4b93 <safe_mul_func_uint8_t_u_u>
    687a:	c7 85 4c fe ff ff 01 	movl   $0x1,-0x1b4(%rbp)
    6881:	00 00 00 
    6884:	8b 05 3a 68 00 00    	mov    0x683a(%rip),%eax        # d0c4 <g_95>
    688a:	48 98                	cltq   
    688c:	be 02 00 00 00       	mov    $0x2,%esi
    6891:	48 89 c7             	mov    %rax,%rdi
    6894:	e8 0f e0 ff ff       	callq  48a8 <safe_sub_func_int64_t_s_s>
    6899:	89 05 25 68 00 00    	mov    %eax,0x6825(%rip)        # d0c4 <g_95>
    689f:	8b 05 1f 68 00 00    	mov    0x681f(%rip),%eax        # d0c4 <g_95>
    68a5:	83 f8 eb             	cmp    $0xffffffeb,%eax
    68a8:	0f 8c f1 fe ff ff    	jl     679f <func_35+0x4ba>
    68ae:	48 8b 85 d8 fd ff ff 	mov    -0x228(%rbp),%rax
    68b5:	48 8b 5d c8          	mov    -0x38(%rbp),%rbx
    68b9:	64 48 33 1c 25 28 00 	xor    %fs:0x28,%rbx
    68c0:	00 00 
    68c2:	74 05                	je     68c9 <func_35+0x5e4>
    68c4:	e8 a7 d7 ff ff       	callq  4070 <__stack_chk_fail@plt>
    68c9:	48 81 c4 18 02 00 00 	add    $0x218,%rsp
    68d0:	5b                   	pop    %rbx
    68d1:	41 5c                	pop    %r12
    68d3:	41 5d                	pop    %r13
    68d5:	41 5e                	pop    %r14
    68d7:	41 5f                	pop    %r15
    68d9:	5d                   	pop    %rbp
    68da:	c3                   	retq   

00000000000068db <func_43>:
    68db:	f3 0f 1e fa          	endbr64 
    68df:	55                   	push   %rbp
    68e0:	48 89 e5             	mov    %rsp,%rbp
    68e3:	41 57                	push   %r15
    68e5:	41 56                	push   %r14
    68e7:	41 55                	push   %r13
    68e9:	41 54                	push   %r12
    68eb:	53                   	push   %rbx
    68ec:	48 81 ec 68 02 00 00 	sub    $0x268,%rsp
    68f3:	89 bd 7c fd ff ff    	mov    %edi,-0x284(%rbp)
    68f9:	64 48 8b 04 25 28 00 	mov    %fs:0x28,%rax
    6900:	00 00 
    6902:	48 89 45 c8          	mov    %rax,-0x38(%rbp)
    6906:	31 c0                	xor    %eax,%eax
    6908:	c7 85 90 fd ff ff 18 	movl   $0x832cb818,-0x270(%rbp)
    690f:	b8 2c 83 
    6912:	48 8d 85 20 fe ff ff 	lea    -0x1e0(%rbp),%rax
    6919:	48 83 c0 08          	add    $0x8,%rax
    691d:	48 89 85 c0 fd ff ff 	mov    %rax,-0x240(%rbp)
    6924:	c7 85 88 fd ff ff 8a 	movl   $0xfcacaf8a,-0x278(%rbp)
    692b:	af ac fc 
    692e:	48 8d 05 8b 67 00 00 	lea    0x678b(%rip),%rax        # d0c0 <g_86>
    6935:	48 89 85 c8 fd ff ff 	mov    %rax,-0x238(%rbp)
    693c:	48 8d 05 19 68 00 00 	lea    0x6819(%rip),%rax        # d15c <g_345>
    6943:	48 89 85 d0 fd ff ff 	mov    %rax,-0x230(%rbp)
    694a:	48 8d 05 b7 67 00 00 	lea    0x67b7(%rip),%rax        # d108 <g_294+0x8>
    6951:	48 89 85 30 fe ff ff 	mov    %rax,-0x1d0(%rbp)
    6958:	48 8d 05 a9 67 00 00 	lea    0x67a9(%rip),%rax        # d108 <g_294+0x8>
    695f:	48 89 85 38 fe ff ff 	mov    %rax,-0x1c8(%rbp)
    6966:	48 8d 05 9b 67 00 00 	lea    0x679b(%rip),%rax        # d108 <g_294+0x8>
    696d:	48 89 85 40 fe ff ff 	mov    %rax,-0x1c0(%rbp)
    6974:	48 8d 05 8d 67 00 00 	lea    0x678d(%rip),%rax        # d108 <g_294+0x8>
    697b:	48 89 85 48 fe ff ff 	mov    %rax,-0x1b8(%rbp)
    6982:	48 8d 05 7f 67 00 00 	lea    0x677f(%rip),%rax        # d108 <g_294+0x8>
    6989:	48 89 85 50 fe ff ff 	mov    %rax,-0x1b0(%rbp)
    6990:	48 8d 05 71 67 00 00 	lea    0x6771(%rip),%rax        # d108 <g_294+0x8>
    6997:	48 89 85 58 fe ff ff 	mov    %rax,-0x1a8(%rbp)
    699e:	48 8d 05 63 67 00 00 	lea    0x6763(%rip),%rax        # d108 <g_294+0x8>
    69a5:	48 89 85 60 fe ff ff 	mov    %rax,-0x1a0(%rbp)
    69ac:	48 8d 05 55 67 00 00 	lea    0x6755(%rip),%rax        # d108 <g_294+0x8>
    69b3:	48 89 85 68 fe ff ff 	mov    %rax,-0x198(%rbp)
    69ba:	48 8d 05 47 67 00 00 	lea    0x6747(%rip),%rax        # d108 <g_294+0x8>
    69c1:	48 89 85 70 fe ff ff 	mov    %rax,-0x190(%rbp)
    69c8:	48 8d 05 39 67 00 00 	lea    0x6739(%rip),%rax        # d108 <g_294+0x8>
    69cf:	48 89 85 78 fe ff ff 	mov    %rax,-0x188(%rbp)
    69d6:	48 8d 05 43 6c 00 00 	lea    0x6c43(%rip),%rax        # d620 <g_183>
    69dd:	48 89 85 d8 fd ff ff 	mov    %rax,-0x228(%rbp)
    69e4:	48 8d 05 35 6c 00 00 	lea    0x6c35(%rip),%rax        # d620 <g_183>
    69eb:	48 89 85 e0 fd ff ff 	mov    %rax,-0x220(%rbp)
    69f2:	48 8d 05 67 26 00 00 	lea    0x2667(%rip),%rax        # 9060 <g_429>
    69f9:	48 89 85 a8 fd ff ff 	mov    %rax,-0x258(%rbp)
    6a00:	48 8d 85 a8 fd ff ff 	lea    -0x258(%rbp),%rax
    6a07:	48 89 85 e8 fd ff ff 	mov    %rax,-0x218(%rbp)
    6a0e:	48 c7 85 b0 fd ff ff 	movq   $0x0,-0x250(%rbp)
    6a15:	00 00 00 00 
    6a19:	0f b7 85 b0 fd ff ff 	movzwl -0x250(%rbp),%eax
    6a20:	66 25 00 c0          	and    $0xc000,%ax
    6a24:	66 0d 70 09          	or     $0x970,%ax
    6a28:	66 89 85 b0 fd ff ff 	mov    %ax,-0x250(%rbp)
    6a2f:	c7 85 94 fd ff ff 00 	movl   $0x0,-0x26c(%rbp)
    6a36:	00 00 00 
    6a39:	c7 85 98 fd ff ff 9a 	movl   $0x9c70ba9a,-0x268(%rbp)
    6a40:	ba 70 9c 
    6a43:	c7 85 8c fd ff ff 00 	movl   $0x0,-0x274(%rbp)
    6a4a:	00 00 00 
    6a4d:	eb 1b                	jmp    6a6a <func_43+0x18f>
    6a4f:	8b 85 8c fd ff ff    	mov    -0x274(%rbp),%eax
    6a55:	48 98                	cltq   
    6a57:	48 c7 84 c5 20 fe ff 	movq   $0x0,-0x1e0(%rbp,%rax,8)
    6a5e:	ff 00 00 00 00 
    6a63:	83 85 8c fd ff ff 01 	addl   $0x1,-0x274(%rbp)
    6a6a:	83 bd 8c fd ff ff 01 	cmpl   $0x1,-0x274(%rbp)
    6a71:	7e dc                	jle    6a4f <func_43+0x174>
    6a73:	48 8b 1d 86 6b 00 00 	mov    0x6b86(%rip),%rbx        # d600 <g_17>
    6a7a:	0f b7 05 c7 65 00 00 	movzwl 0x65c7(%rip),%eax        # d048 <g_16>
    6a81:	0f b7 c8             	movzwl %ax,%ecx
    6a84:	48 8b 15 75 6b 00 00 	mov    0x6b75(%rip),%rdx        # d600 <g_17>
    6a8b:	48 8b 85 c0 fd ff ff 	mov    -0x240(%rbp),%rax
    6a92:	48 89 10             	mov    %rdx,(%rax)
    6a95:	48 8b 85 c0 fd ff ff 	mov    -0x240(%rbp),%rax
    6a9c:	48 8b 10             	mov    (%rax),%rdx
    6a9f:	48 8b 05 62 6b 00 00 	mov    0x6b62(%rip),%rax        # d608 <g_55>
    6aa6:	48 39 c2             	cmp    %rax,%rdx
    6aa9:	0f 95 c0             	setne  %al
    6aac:	0f b6 c0             	movzbl %al,%eax
    6aaf:	89 85 90 fd ff ff    	mov    %eax,-0x270(%rbp)
    6ab5:	8b 95 90 fd ff ff    	mov    -0x270(%rbp),%edx
    6abb:	8b 05 fb 65 00 00    	mov    0x65fb(%rip),%eax        # d0bc <g_58+0x1c>
    6ac1:	83 e8 01             	sub    $0x1,%eax
    6ac4:	89 05 f2 65 00 00    	mov    %eax,0x65f2(%rip)        # d0bc <g_58+0x1c>
    6aca:	8b 05 ec 65 00 00    	mov    0x65ec(%rip),%eax        # d0bc <g_58+0x1c>
    6ad0:	39 c2                	cmp    %eax,%edx
    6ad2:	0f 93 c0             	setae  %al
    6ad5:	0f b6 c0             	movzbl %al,%eax
    6ad8:	39 85 7c fd ff ff    	cmp    %eax,-0x284(%rbp)
    6ade:	0f 9c c0             	setl   %al
    6ae1:	0f b6 c0             	movzbl %al,%eax
    6ae4:	39 c1                	cmp    %eax,%ecx
    6ae6:	0f 9d c0             	setge  %al
    6ae9:	0f b6 c0             	movzbl %al,%eax
    6aec:	66 89 85 7a fd ff ff 	mov    %ax,-0x286(%rbp)
    6af3:	0f b7 05 06 7b 00 00 	movzwl 0x7b06(%rip),%eax        # e600 <g_333>
    6afa:	44 0f bf e0          	movswl %ax,%r12d
    6afe:	44 8b ad 7c fd ff ff 	mov    -0x284(%rbp),%r13d
    6b05:	0f b6 05 42 65 00 00 	movzbl 0x6542(%rip),%eax        # d04e <g_56>
    6b0c:	0f b6 f0             	movzbl %al,%esi
    6b0f:	89 b5 74 fd ff ff    	mov    %esi,-0x28c(%rbp)
    6b15:	0f b6 05 2e 65 00 00 	movzbl 0x652e(%rip),%eax        # d04a <g_18>
    6b1c:	44 0f be f8          	movsbl %al,%r15d
    6b20:	48 8b 05 f1 6a 00 00 	mov    0x6af1(%rip),%rax        # d618 <g_84>
    6b27:	4c 8b 30             	mov    (%rax),%r14
    6b2a:	48 8b 15 cf 6a 00 00 	mov    0x6acf(%rip),%rdx        # d600 <g_17>
    6b31:	48 8b 05 f8 5b 00 00 	mov    0x5bf8(%rip),%rax        # c730 <l_83.4214+0x170>
    6b38:	48 89 d6             	mov    %rdx,%rsi
    6b3b:	48 89 c7             	mov    %rax,%rdi
    6b3e:	e8 5b 17 00 00       	callq  829e <func_80>
    6b43:	48 89 c7             	mov    %rax,%rdi
    6b46:	8b 85 88 fd ff ff    	mov    -0x278(%rbp),%eax
    6b4c:	44 8b 85 74 fd ff ff 	mov    -0x28c(%rbp),%r8d
    6b53:	44 89 f9             	mov    %r15d,%ecx
    6b56:	4c 89 f2             	mov    %r14,%rdx
    6b59:	89 c6                	mov    %eax,%esi
    6b5b:	e8 69 15 00 00       	callq  80c9 <func_74>
    6b60:	48 89 c7             	mov    %rax,%rdi
    6b63:	48 8b 95 c8 fd ff ff 	mov    -0x238(%rbp),%rdx
    6b6a:	48 8b 85 c8 fd ff ff 	mov    -0x238(%rbp),%rax
    6b71:	4c 8d 05 d2 64 00 00 	lea    0x64d2(%rip),%r8        # d04a <g_18>
    6b78:	48 89 d1             	mov    %rdx,%rcx
    6b7b:	48 89 c2             	mov    %rax,%rdx
    6b7e:	44 89 ee             	mov    %r13d,%esi
    6b81:	e8 ce 01 00 00       	callq  6d54 <func_68>
    6b86:	0f be c0             	movsbl %al,%eax
    6b89:	be 04 00 00 00       	mov    $0x4,%esi
    6b8e:	89 c7                	mov    %eax,%edi
    6b90:	e8 0c d7 ff ff       	callq  42a1 <safe_lshift_func_int8_t_s_s>
    6b95:	0f be d0             	movsbl %al,%edx
    6b98:	8b 85 7c fd ff ff    	mov    -0x284(%rbp),%eax
    6b9e:	98                   	cwtl   
    6b9f:	89 d6                	mov    %edx,%esi
    6ba1:	89 c7                	mov    %eax,%edi
    6ba3:	e8 ad d8 ff ff       	callq  4455 <safe_div_func_int16_t_s_s>
    6ba8:	f7 d0                	not    %eax
    6baa:	98                   	cwtl   
    6bab:	44 89 e6             	mov    %r12d,%esi
    6bae:	89 c7                	mov    %eax,%edi
    6bb0:	e8 75 d9 ff ff       	callq  452a <safe_rshift_func_int16_t_s_s>
    6bb5:	8b 85 7c fd ff ff    	mov    -0x284(%rbp),%eax
    6bbb:	48 98                	cltq   
    6bbd:	48 89 c7             	mov    %rax,%rdi
    6bc0:	e8 51 dc ff ff       	callq  4816 <safe_unary_minus_func_int64_t_s>
    6bc5:	66 0b 85 7a fd ff ff 	or     -0x286(%rbp),%ax
    6bcc:	0f bf c8             	movswl %ax,%ecx
    6bcf:	0f b7 05 76 64 00 00 	movzwl 0x6476(%rip),%eax        # d04c <g_51>
    6bd6:	83 e8 01             	sub    $0x1,%eax
    6bd9:	66 89 05 6c 64 00 00 	mov    %ax,0x646c(%rip)        # d04c <g_51>
    6be0:	0f b7 05 65 64 00 00 	movzwl 0x6465(%rip),%eax        # d04c <g_51>
    6be7:	0f b6 c0             	movzbl %al,%eax
    6bea:	48 89 da             	mov    %rbx,%rdx
    6bed:	89 ce                	mov    %ecx,%esi
    6bef:	89 c7                	mov    %eax,%edi
    6bf1:	e8 38 01 00 00       	callq  6d2e <func_45>
    6bf6:	48 8b 95 20 fe ff ff 	mov    -0x1e0(%rbp),%rdx
    6bfd:	48 8b 05 2c 5b 00 00 	mov    0x5b2c(%rip),%rax        # c730 <l_83.4214+0x170>
    6c04:	48 39 c2             	cmp    %rax,%rdx
    6c07:	0f 95 c0             	setne  %al
    6c0a:	0f b6 d0             	movzbl %al,%edx
    6c0d:	48 8b 85 d0 fd ff ff 	mov    -0x230(%rbp),%rax
    6c14:	8b 00                	mov    (%rax),%eax
    6c16:	09 c2                	or     %eax,%edx
    6c18:	48 8b 85 d0 fd ff ff 	mov    -0x230(%rbp),%rax
    6c1f:	89 10                	mov    %edx,(%rax)
    6c21:	c7 85 88 fd ff ff 00 	movl   $0x0,-0x278(%rbp)
    6c28:	00 00 00 
    6c2b:	e9 c4 00 00 00       	jmpq   6cf4 <func_43+0x419>
    6c30:	48 8d 05 51 64 00 00 	lea    0x6451(%rip),%rax        # d088 <g_57+0x28>
    6c37:	48 89 85 f0 fd ff ff 	mov    %rax,-0x210(%rbp)
    6c3e:	c7 85 9c fd ff ff ff 	movl   $0xffffffff,-0x264(%rbp)
    6c45:	ff ff ff 
    6c48:	48 8d 05 11 65 00 00 	lea    0x6511(%rip),%rax        # d160 <g_386>
    6c4f:	48 89 85 f8 fd ff ff 	mov    %rax,-0x208(%rbp)
    6c56:	c7 85 a0 fd ff ff e1 	movl   $0x76c35ae1,-0x260(%rbp)
    6c5d:	5a c3 76 
    6c60:	48 8d 85 80 fe ff ff 	lea    -0x180(%rbp),%rax
    6c67:	48 8d 15 52 68 00 00 	lea    0x6852(%rip),%rdx        # d4c0 <g_630+0x310>
    6c6e:	b9 28 00 00 00       	mov    $0x28,%ecx
    6c73:	48 89 c7             	mov    %rax,%rdi
    6c76:	48 89 d6             	mov    %rdx,%rsi
    6c79:	f3 48 a5             	rep movsq %ds:(%rsi),%es:(%rdi)
    6c7c:	48 8d 05 21 64 00 00 	lea    0x6421(%rip),%rax        # d0a4 <g_58+0x4>
    6c83:	48 89 85 00 fe ff ff 	mov    %rax,-0x200(%rbp)
    6c8a:	66 c7 85 84 fd ff ff 	movw   $0x8a8f,-0x27c(%rbp)
    6c91:	8f 8a 
    6c93:	48 c7 85 08 fe ff ff 	movq   $0x0,-0x1f8(%rbp)
    6c9a:	00 00 00 00 
    6c9e:	c7 85 a4 fd ff ff fb 	movl   $0xfffffffb,-0x25c(%rbp)
    6ca5:	ff ff ff 
    6ca8:	66 c7 85 86 fd ff ff 	movw   $0x0,-0x27a(%rbp)
    6caf:	00 00 
    6cb1:	48 8d 05 a4 64 00 00 	lea    0x64a4(%rip),%rax        # d15c <g_345>
    6cb8:	48 89 85 10 fe ff ff 	mov    %rax,-0x1f0(%rbp)
    6cbf:	48 c7 85 b8 fd ff ff 	movq   $0x0,-0x248(%rbp)
    6cc6:	00 00 00 00 
    6cca:	0f b7 85 b8 fd ff ff 	movzwl -0x248(%rbp),%eax
    6cd1:	66 25 00 c0          	and    $0xc000,%ax
    6cd5:	83 c8 07             	or     $0x7,%eax
    6cd8:	66 89 85 b8 fd ff ff 	mov    %ax,-0x248(%rbp)
    6cdf:	48 8d 05 2a 6a 00 00 	lea    0x6a2a(%rip),%rax        # d710 <g_312+0xb0>
    6ce6:	48 89 85 18 fe ff ff 	mov    %rax,-0x1e8(%rbp)
    6ced:	83 85 88 fd ff ff 01 	addl   $0x1,-0x278(%rbp)
    6cf4:	83 bd 88 fd ff ff 13 	cmpl   $0x13,-0x278(%rbp)
    6cfb:	0f 8f 2f ff ff ff    	jg     6c30 <func_43+0x355>
    6d01:	48 8b 85 b0 fd ff ff 	mov    -0x250(%rbp),%rax
    6d08:	48 8b 5d c8          	mov    -0x38(%rbp),%rbx
    6d0c:	64 48 33 1c 25 28 00 	xor    %fs:0x28,%rbx
    6d13:	00 00 
    6d15:	74 05                	je     6d1c <func_43+0x441>
    6d17:	e8 54 d3 ff ff       	callq  4070 <__stack_chk_fail@plt>
    6d1c:	48 81 c4 68 02 00 00 	add    $0x268,%rsp
    6d23:	5b                   	pop    %rbx
    6d24:	41 5c                	pop    %r12
    6d26:	41 5d                	pop    %r13
    6d28:	41 5e                	pop    %r14
    6d2a:	41 5f                	pop    %r15
    6d2c:	5d                   	pop    %rbp
    6d2d:	c3                   	retq   

0000000000006d2e <func_45>:
    6d2e:	f3 0f 1e fa          	endbr64 
    6d32:	55                   	push   %rbp
    6d33:	48 89 e5             	mov    %rsp,%rbp
    6d36:	89 f9                	mov    %edi,%ecx
    6d38:	89 f0                	mov    %esi,%eax
    6d3a:	48 89 55 e0          	mov    %rdx,-0x20(%rbp)
    6d3e:	89 ca                	mov    %ecx,%edx
    6d40:	88 55 ec             	mov    %dl,-0x14(%rbp)
    6d43:	66 89 45 e8          	mov    %ax,-0x18(%rbp)
    6d47:	66 c7 45 fe 9f 3d    	movw   $0x3d9f,-0x2(%rbp)
    6d4d:	48 0f bf 45 fe       	movswq -0x2(%rbp),%rax
    6d52:	5d                   	pop    %rbp
    6d53:	c3                   	retq   

0000000000006d54 <func_68>:
    6d54:	f3 0f 1e fa          	endbr64 
    6d58:	55                   	push   %rbp
    6d59:	48 89 e5             	mov    %rsp,%rbp
    6d5c:	41 56                	push   %r14
    6d5e:	41 55                	push   %r13
    6d60:	41 54                	push   %r12
    6d62:	53                   	push   %rbx
    6d63:	48 81 ec c0 0b 00 00 	sub    $0xbc0,%rsp
    6d6a:	48 89 bd 48 f4 ff ff 	mov    %rdi,-0xbb8(%rbp)
    6d71:	89 b5 44 f4 ff ff    	mov    %esi,-0xbbc(%rbp)
    6d77:	48 89 95 38 f4 ff ff 	mov    %rdx,-0xbc8(%rbp)
    6d7e:	48 89 8d 30 f4 ff ff 	mov    %rcx,-0xbd0(%rbp)
    6d85:	4c 89 85 28 f4 ff ff 	mov    %r8,-0xbd8(%rbp)
    6d8c:	64 48 8b 04 25 28 00 	mov    %fs:0x28,%rax
    6d93:	00 00 
    6d95:	48 89 45 d8          	mov    %rax,-0x28(%rbp)
    6d99:	31 c0                	xor    %eax,%eax
    6d9b:	66 c7 85 56 f4 ff ff 	movw   $0x572a,-0xbaa(%rbp)
    6da2:	2a 57 
    6da4:	48 8d 05 9f 62 00 00 	lea    0x629f(%rip),%rax        # d04a <g_18>
    6dab:	48 89 85 e0 f4 ff ff 	mov    %rax,-0xb20(%rbp)
    6db2:	48 8d 05 07 63 00 00 	lea    0x6307(%rip),%rax        # d0c0 <g_86>
    6db9:	48 89 85 a8 f4 ff ff 	mov    %rax,-0xb58(%rbp)
    6dc0:	48 c7 85 80 f5 ff ff 	movq   $0x0,-0xa80(%rbp)
    6dc7:	00 00 00 00 
    6dcb:	48 c7 85 88 f5 ff ff 	movq   $0x0,-0xa78(%rbp)
    6dd2:	00 00 00 00 
    6dd6:	48 c7 85 90 f5 ff ff 	movq   $0x0,-0xa70(%rbp)
    6ddd:	00 00 00 00 
    6de1:	48 c7 85 98 f5 ff ff 	movq   $0x0,-0xa68(%rbp)
    6de8:	00 00 00 00 
    6dec:	48 c7 85 a0 f5 ff ff 	movq   $0x0,-0xa60(%rbp)
    6df3:	00 00 00 00 
    6df7:	48 c7 85 a8 f5 ff ff 	movq   $0x0,-0xa58(%rbp)
    6dfe:	00 00 00 00 
    6e02:	48 c7 85 b0 f5 ff ff 	movq   $0x0,-0xa50(%rbp)
    6e09:	00 00 00 00 
    6e0d:	c7 85 5c f4 ff ff af 	movl   $0xadbf82af,-0xba4(%rbp)
    6e14:	82 bf ad 
    6e17:	c7 85 60 f4 ff ff 00 	movl   $0x0,-0xba0(%rbp)
    6e1e:	00 00 00 
    6e21:	48 8d 05 a8 62 00 00 	lea    0x62a8(%rip),%rax        # d0d0 <g_137>
    6e28:	48 89 85 e8 f4 ff ff 	mov    %rax,-0xb18(%rbp)
    6e2f:	c7 85 84 f4 ff ff f6 	movl   $0xfffffff6,-0xb7c(%rbp)
    6e36:	ff ff ff 
    6e39:	48 8d 05 08 62 00 00 	lea    0x6208(%rip),%rax        # d048 <g_16>
    6e40:	48 89 85 f0 f4 ff ff 	mov    %rax,-0xb10(%rbp)
    6e47:	48 c7 85 b0 f4 ff ff 	movq   $0x0,-0xb50(%rbp)
    6e4e:	00 00 00 00 
    6e52:	48 8d 95 00 f6 ff ff 	lea    -0xa00(%rbp),%rdx
    6e59:	b8 00 00 00 00       	mov    $0x0,%eax
    6e5e:	b9 14 00 00 00       	mov    $0x14,%ecx
    6e63:	48 89 d7             	mov    %rdx,%rdi
    6e66:	f3 48 ab             	rep stos %rax,%es:(%rdi)
    6e69:	0f b7 85 00 f6 ff ff 	movzwl -0xa00(%rbp),%eax
    6e70:	66 25 00 c0          	and    $0xc000,%ax
    6e74:	66 0d 70 22          	or     $0x2270,%ax
    6e78:	66 89 85 00 f6 ff ff 	mov    %ax,-0xa00(%rbp)
    6e7f:	0f b7 85 08 f6 ff ff 	movzwl -0x9f8(%rbp),%eax
    6e86:	66 25 00 c0          	and    $0xc000,%ax
    6e8a:	83 c8 01             	or     $0x1,%eax
    6e8d:	66 89 85 08 f6 ff ff 	mov    %ax,-0x9f8(%rbp)
    6e94:	0f b7 85 10 f6 ff ff 	movzwl -0x9f0(%rbp),%eax
    6e9b:	66 25 00 c0          	and    $0xc000,%ax
    6e9f:	66 0d f8 3f          	or     $0x3ff8,%ax
    6ea3:	66 89 85 10 f6 ff ff 	mov    %ax,-0x9f0(%rbp)
    6eaa:	0f b7 85 18 f6 ff ff 	movzwl -0x9e8(%rbp),%eax
    6eb1:	66 25 00 c0          	and    $0xc000,%ax
    6eb5:	83 c8 01             	or     $0x1,%eax
    6eb8:	66 89 85 18 f6 ff ff 	mov    %ax,-0x9e8(%rbp)
    6ebf:	0f b7 85 20 f6 ff ff 	movzwl -0x9e0(%rbp),%eax
    6ec6:	66 25 00 c0          	and    $0xc000,%ax
    6eca:	66 0d 70 22          	or     $0x2270,%ax
    6ece:	66 89 85 20 f6 ff ff 	mov    %ax,-0x9e0(%rbp)
    6ed5:	0f b7 85 28 f6 ff ff 	movzwl -0x9d8(%rbp),%eax
    6edc:	66 25 00 c0          	and    $0xc000,%ax
    6ee0:	66 0d 70 22          	or     $0x2270,%ax
    6ee4:	66 89 85 28 f6 ff ff 	mov    %ax,-0x9d8(%rbp)
    6eeb:	0f b7 85 30 f6 ff ff 	movzwl -0x9d0(%rbp),%eax
    6ef2:	66 25 00 c0          	and    $0xc000,%ax
    6ef6:	83 c8 01             	or     $0x1,%eax
    6ef9:	66 89 85 30 f6 ff ff 	mov    %ax,-0x9d0(%rbp)
    6f00:	0f b7 85 38 f6 ff ff 	movzwl -0x9c8(%rbp),%eax
    6f07:	66 25 00 c0          	and    $0xc000,%ax
    6f0b:	66 0d f8 3f          	or     $0x3ff8,%ax
    6f0f:	66 89 85 38 f6 ff ff 	mov    %ax,-0x9c8(%rbp)
    6f16:	0f b7 85 40 f6 ff ff 	movzwl -0x9c0(%rbp),%eax
    6f1d:	66 25 00 c0          	and    $0xc000,%ax
    6f21:	83 c8 01             	or     $0x1,%eax
    6f24:	66 89 85 40 f6 ff ff 	mov    %ax,-0x9c0(%rbp)
    6f2b:	0f b7 85 48 f6 ff ff 	movzwl -0x9b8(%rbp),%eax
    6f32:	66 25 00 c0          	and    $0xc000,%ax
    6f36:	66 0d 70 22          	or     $0x2270,%ax
    6f3a:	66 89 85 48 f6 ff ff 	mov    %ax,-0x9b8(%rbp)
    6f41:	0f b7 85 50 f6 ff ff 	movzwl -0x9b0(%rbp),%eax
    6f48:	66 25 00 c0          	and    $0xc000,%ax
    6f4c:	66 0d 70 22          	or     $0x2270,%ax
    6f50:	66 89 85 50 f6 ff ff 	mov    %ax,-0x9b0(%rbp)
    6f57:	0f b7 85 58 f6 ff ff 	movzwl -0x9a8(%rbp),%eax
    6f5e:	66 25 00 c0          	and    $0xc000,%ax
    6f62:	83 c8 01             	or     $0x1,%eax
    6f65:	66 89 85 58 f6 ff ff 	mov    %ax,-0x9a8(%rbp)
    6f6c:	0f b7 85 60 f6 ff ff 	movzwl -0x9a0(%rbp),%eax
    6f73:	66 25 00 c0          	and    $0xc000,%ax
    6f77:	66 0d f8 3f          	or     $0x3ff8,%ax
    6f7b:	66 89 85 60 f6 ff ff 	mov    %ax,-0x9a0(%rbp)
    6f82:	0f b7 85 68 f6 ff ff 	movzwl -0x998(%rbp),%eax
    6f89:	66 25 00 c0          	and    $0xc000,%ax
    6f8d:	83 c8 01             	or     $0x1,%eax
    6f90:	66 89 85 68 f6 ff ff 	mov    %ax,-0x998(%rbp)
    6f97:	0f b7 85 70 f6 ff ff 	movzwl -0x990(%rbp),%eax
    6f9e:	66 25 00 c0          	and    $0xc000,%ax
    6fa2:	66 0d 70 22          	or     $0x2270,%ax
    6fa6:	66 89 85 70 f6 ff ff 	mov    %ax,-0x990(%rbp)
    6fad:	0f b7 85 78 f6 ff ff 	movzwl -0x988(%rbp),%eax
    6fb4:	66 25 00 c0          	and    $0xc000,%ax
    6fb8:	66 0d 70 22          	or     $0x2270,%ax
    6fbc:	66 89 85 78 f6 ff ff 	mov    %ax,-0x988(%rbp)
    6fc3:	0f b7 85 80 f6 ff ff 	movzwl -0x980(%rbp),%eax
    6fca:	66 25 00 c0          	and    $0xc000,%ax
    6fce:	83 c8 01             	or     $0x1,%eax
    6fd1:	66 89 85 80 f6 ff ff 	mov    %ax,-0x980(%rbp)
    6fd8:	0f b7 85 88 f6 ff ff 	movzwl -0x978(%rbp),%eax
    6fdf:	66 25 00 c0          	and    $0xc000,%ax
    6fe3:	66 0d f8 3f          	or     $0x3ff8,%ax
    6fe7:	66 89 85 88 f6 ff ff 	mov    %ax,-0x978(%rbp)
    6fee:	0f b7 85 90 f6 ff ff 	movzwl -0x970(%rbp),%eax
    6ff5:	66 25 00 c0          	and    $0xc000,%ax
    6ff9:	83 c8 01             	or     $0x1,%eax
    6ffc:	66 89 85 90 f6 ff ff 	mov    %ax,-0x970(%rbp)
    7003:	0f b7 85 98 f6 ff ff 	movzwl -0x968(%rbp),%eax
    700a:	66 25 00 c0          	and    $0xc000,%ax
    700e:	66 0d 70 22          	or     $0x2270,%ax
    7012:	66 89 85 98 f6 ff ff 	mov    %ax,-0x968(%rbp)
    7019:	c6 85 54 f4 ff ff cd 	movb   $0xcd,-0xbac(%rbp)
    7020:	48 8d 05 b1 60 00 00 	lea    0x60b1(%rip),%rax        # d0d8 <g_207>
    7027:	48 89 85 b8 f4 ff ff 	mov    %rax,-0xb48(%rbp)
    702e:	c7 85 78 f4 ff ff 00 	movl   $0x0,-0xb88(%rbp)
    7035:	00 00 00 
    7038:	eb 1e                	jmp    7058 <func_68+0x304>
    703a:	8b 85 78 f4 ff ff    	mov    -0xb88(%rbp),%eax
    7040:	48 98                	cltq   
    7042:	48 8d 95 b0 f4 ff ff 	lea    -0xb50(%rbp),%rdx
    7049:	48 89 94 c5 c0 f5 ff 	mov    %rdx,-0xa40(%rbp,%rax,8)
    7050:	ff 
    7051:	83 85 78 f4 ff ff 01 	addl   $0x1,-0xb88(%rbp)
    7058:	83 bd 78 f4 ff ff 07 	cmpl   $0x7,-0xb88(%rbp)
    705f:	7e d9                	jle    703a <func_68+0x2e6>
    7061:	83 bd 44 f4 ff ff 00 	cmpl   $0x0,-0xbbc(%rbp)
    7068:	0f 84 ea 00 00 00    	je     7158 <func_68+0x404>
    706e:	0f b7 85 56 f4 ff ff 	movzwl -0xbaa(%rbp),%eax
    7075:	0f b7 d8             	movzwl %ax,%ebx
    7078:	44 8b a5 44 f4 ff ff 	mov    -0xbbc(%rbp),%r12d
    707f:	0f b7 85 56 f4 ff ff 	movzwl -0xbaa(%rbp),%eax
    7086:	98                   	cwtl   
    7087:	be 08 00 00 00       	mov    $0x8,%esi
    708c:	89 c7                	mov    %eax,%edi
    708e:	e8 83 d3 ff ff       	callq  4416 <safe_mod_func_int16_t_s_s>
    7093:	0f be c0             	movsbl %al,%eax
    7096:	be 02 00 00 00       	mov    $0x2,%esi
    709b:	89 c7                	mov    %eax,%edi
    709d:	e8 ca d2 ff ff       	callq  436c <safe_rshift_func_int8_t_s_u>
    70a2:	84 c0                	test   %al,%al
    70a4:	75 0e                	jne    70b4 <func_68+0x360>
    70a6:	0f b7 85 48 f4 ff ff 	movzwl -0xbb8(%rbp),%eax
    70ad:	66 25 ff 3f          	and    $0x3fff,%ax
    70b1:	66 85 c0             	test   %ax,%ax
    70b4:	0f b7 85 56 f4 ff ff 	movzwl -0xbaa(%rbp),%eax
    70bb:	0f b7 c0             	movzwl %ax,%eax
    70be:	89 85 60 f4 ff ff    	mov    %eax,-0xba0(%rbp)
    70c4:	48 8b 85 e8 f4 ff ff 	mov    -0xb18(%rbp),%rax
    70cb:	48 c7 00 00 00 00 00 	movq   $0x0,(%rax)
    70d2:	0f b6 05 e7 5f 00 00 	movzbl 0x5fe7(%rip),%eax        # d0c0 <g_86>
    70d9:	0f b6 c0             	movzbl %al,%eax
    70dc:	23 85 44 f4 ff ff    	and    -0xbbc(%rbp),%eax
    70e2:	44 89 e6             	mov    %r12d,%esi
    70e5:	89 c7                	mov    %eax,%edi
    70e7:	e8 13 d6 ff ff       	callq  46ff <safe_div_func_int32_t_s_s>
    70ec:	89 c2                	mov    %eax,%edx
    70ee:	8b 85 44 f4 ff ff    	mov    -0xbbc(%rbp),%eax
    70f4:	09 d0                	or     %edx,%eax
    70f6:	0f b7 c0             	movzwl %ax,%eax
    70f9:	89 de                	mov    %ebx,%esi
    70fb:	89 c7                	mov    %eax,%edi
    70fd:	e8 5a dc ff ff       	callq  4d5c <safe_mod_func_uint16_t_u_u>
    7102:	0f b7 d8             	movzwl %ax,%ebx
    7105:	48 8b 95 a8 f4 ff ff 	mov    -0xb58(%rbp),%rdx
    710c:	48 8b 85 e0 f4 ff ff 	mov    -0xb20(%rbp),%rax
    7113:	48 89 d6             	mov    %rdx,%rsi
    7116:	48 89 c7             	mov    %rax,%rdi
    7119:	e8 80 11 00 00       	callq  829e <func_80>
    711e:	48 89 05 f3 64 00 00 	mov    %rax,0x64f3(%rip)        # d618 <g_84>
    7125:	48 8b 05 ec 64 00 00 	mov    0x64ec(%rip),%rax        # d618 <g_84>
    712c:	48 8d 15 dd 64 00 00 	lea    0x64dd(%rip),%rdx        # d610 <g_85>
    7133:	48 39 d0             	cmp    %rdx,%rax
    7136:	0f 95 c0             	setne  %al
    7139:	0f b6 c0             	movzbl %al,%eax
    713c:	89 85 5c f4 ff ff    	mov    %eax,-0xba4(%rbp)
    7142:	8b 85 5c f4 ff ff    	mov    -0xba4(%rbp),%eax
    7148:	48 98                	cltq   
    714a:	48 89 de             	mov    %rbx,%rsi
    714d:	48 89 c7             	mov    %rax,%rdi
    7150:	e8 ec d6 ff ff       	callq  4841 <safe_add_func_int64_t_s_s>
    7155:	48 85 c0             	test   %rax,%rax
    7158:	0f b7 85 56 f4 ff ff 	movzwl -0xbaa(%rbp),%eax
    715f:	0f be c0             	movsbl %al,%eax
    7162:	be 06 00 00 00       	mov    $0x6,%esi
    7167:	89 c7                	mov    %eax,%edi
    7169:	e8 c7 d1 ff ff       	callq  4335 <safe_rshift_func_int8_t_s_s>
    716e:	0f be d0             	movsbl %al,%edx
    7171:	48 8b 05 88 64 00 00 	mov    0x6488(%rip),%rax        # d600 <g_17>
    7178:	0f b6 00             	movzbl (%rax),%eax
    717b:	0f be c8             	movsbl %al,%ecx
    717e:	48 8b 85 38 f4 ff ff 	mov    -0xbc8(%rbp),%rax
    7185:	0f b6 00             	movzbl (%rax),%eax
    7188:	0f b6 c0             	movzbl %al,%eax
    718b:	39 c1                	cmp    %eax,%ecx
    718d:	0f 9f c0             	setg   %al
    7190:	0f b6 c0             	movzbl %al,%eax
    7193:	21 d0                	and    %edx,%eax
    7195:	85 c0                	test   %eax,%eax
    7197:	0f 84 83 01 00 00    	je     7320 <func_68+0x5cc>
    719d:	48 8d 85 f0 f7 ff ff 	lea    -0x810(%rbp),%rax
    71a4:	48 8d 15 b5 20 00 00 	lea    0x20b5(%rip),%rdx        # 9260 <g_518+0x1f8>
    71ab:	b9 d8 00 00 00       	mov    $0xd8,%ecx
    71b0:	48 89 c7             	mov    %rax,%rdi
    71b3:	48 89 d6             	mov    %rdx,%rsi
    71b6:	f3 48 a5             	rep movsq %ds:(%rsi),%es:(%rdi)
    71b9:	c7 85 a4 f4 ff ff ae 	movl   $0x73a5fbae,-0xb5c(%rbp)
    71c0:	fb a5 73 
    71c3:	c7 85 7c f4 ff ff ff 	movl   $0xffffffff,-0xb84(%rbp)
    71ca:	ff ff ff 
    71cd:	48 8d 85 60 f4 ff ff 	lea    -0xba0(%rbp),%rax
    71d4:	48 89 85 d0 f4 ff ff 	mov    %rax,-0xb30(%rbp)
    71db:	48 8d 85 d0 f4 ff ff 	lea    -0xb30(%rbp),%rax
    71e2:	48 89 85 40 f5 ff ff 	mov    %rax,-0xac0(%rbp)
    71e9:	48 c7 85 48 f5 ff ff 	movq   $0x0,-0xab8(%rbp)
    71f0:	00 00 00 00 
    71f4:	c7 85 5c f4 ff ff 06 	movl   $0x6,-0xba4(%rbp)
    71fb:	00 00 00 
    71fe:	e9 0a 01 00 00       	jmpq   730d <func_68+0x5b9>
    7203:	48 8d 85 56 f4 ff ff 	lea    -0xbaa(%rbp),%rax
    720a:	48 89 85 50 f5 ff ff 	mov    %rax,-0xab0(%rbp)
    7211:	c7 85 80 f4 ff ff 00 	movl   $0x0,-0xb80(%rbp)
    7218:	00 00 00 
    721b:	eb 1b                	jmp    7238 <func_68+0x4e4>
    721d:	8b 85 80 f4 ff ff    	mov    -0xb80(%rbp),%eax
    7223:	48 98                	cltq   
    7225:	48 c7 84 c5 a0 f6 ff 	movq   $0x0,-0x960(%rbp,%rax,8)
    722c:	ff 00 00 00 00 
    7231:	83 85 80 f4 ff ff 01 	addl   $0x1,-0xb80(%rbp)
    7238:	83 bd 80 f4 ff ff 01 	cmpl   $0x1,-0xb80(%rbp)
    723f:	7e dc                	jle    721d <func_68+0x4c9>
    7241:	48 8d 05 7c 5e 00 00 	lea    0x5e7c(%rip),%rax        # d0c4 <g_95>
    7248:	48 89 85 a8 f6 ff ff 	mov    %rax,-0x958(%rbp)
    724f:	48 8b 85 28 fd ff ff 	mov    -0x2d8(%rbp),%rax
    7256:	48 83 e8 01          	sub    $0x1,%rax
    725a:	48 89 85 28 fd ff ff 	mov    %rax,-0x2d8(%rbp)
    7261:	0f b7 85 48 f4 ff ff 	movzwl -0xbb8(%rbp),%eax
    7268:	66 25 ff 3f          	and    $0x3fff,%ax
    726c:	0f b7 d8             	movzwl %ax,%ebx
    726f:	0f b7 85 48 f4 ff ff 	movzwl -0xbb8(%rbp),%eax
    7276:	66 25 ff 3f          	and    $0x3fff,%ax
    727a:	44 0f b7 e0          	movzwl %ax,%r12d
    727e:	8b 85 44 f4 ff ff    	mov    -0xbbc(%rbp),%eax
    7284:	89 c6                	mov    %eax,%esi
    7286:	bf 01 00 00 00       	mov    $0x1,%edi
    728b:	e8 b8 db ff ff       	callq  4e48 <safe_rshift_func_uint16_t_u_s>
    7290:	0f b7 d0             	movzwl %ax,%edx
    7293:	8b 85 60 f4 ff ff    	mov    -0xba0(%rbp),%eax
    7299:	21 d0                	and    %edx,%eax
    729b:	89 85 60 f4 ff ff    	mov    %eax,-0xba0(%rbp)
    72a1:	8b 85 60 f4 ff ff    	mov    -0xba0(%rbp),%eax
    72a7:	44 89 e6             	mov    %r12d,%esi
    72aa:	89 c7                	mov    %eax,%edi
    72ac:	e8 4e d4 ff ff       	callq  46ff <safe_div_func_int32_t_s_s>
    72b1:	89 c2                	mov    %eax,%edx
    72b3:	48 8b 85 50 f5 ff ff 	mov    -0xab0(%rbp),%rax
    72ba:	66 89 10             	mov    %dx,(%rax)
    72bd:	48 8b 85 50 f5 ff ff 	mov    -0xab0(%rbp),%rax
    72c4:	0f b7 00             	movzwl (%rax),%eax
    72c7:	0f b7 c0             	movzwl %ax,%eax
    72ca:	89 c7                	mov    %eax,%edi
    72cc:	e8 18 da ff ff       	callq  4ce9 <safe_unary_minus_func_uint16_t_u>
    72d1:	0f b7 c0             	movzwl %ax,%eax
    72d4:	89 de                	mov    %ebx,%esi
    72d6:	89 c7                	mov    %eax,%edi
    72d8:	e8 ef d3 ff ff       	callq  46cc <safe_mod_func_int32_t_s_s>
    72dd:	83 f0 fd             	xor    $0xfffffffd,%eax
    72e0:	89 85 a4 f4 ff ff    	mov    %eax,-0xb5c(%rbp)
    72e6:	8b 85 a4 f4 ff ff    	mov    -0xb5c(%rbp),%eax
    72ec:	31 85 7c f4 ff ff    	xor    %eax,-0xb84(%rbp)
    72f2:	8b 85 7c f4 ff ff    	mov    -0xb84(%rbp),%eax
    72f8:	89 85 84 f4 ff ff    	mov    %eax,-0xb7c(%rbp)
    72fe:	8b 85 5c f4 ff ff    	mov    -0xba4(%rbp),%eax
    7304:	83 e8 01             	sub    $0x1,%eax
    7307:	89 85 5c f4 ff ff    	mov    %eax,-0xba4(%rbp)
    730d:	8b 85 5c f4 ff ff    	mov    -0xba4(%rbp),%eax
    7313:	85 c0                	test   %eax,%eax
    7315:	0f 8f e8 fe ff ff    	jg     7203 <func_68+0x4af>
    731b:	e9 60 0d 00 00       	jmpq   8080 <func_68+0x132c>
    7320:	48 b8 58 e1 9b c4 3d 	movabs $0x3eadd13dc49be158,%rax
    7327:	d1 ad 3e 
    732a:	48 89 85 d8 f4 ff ff 	mov    %rax,-0xb28(%rbp)
    7331:	48 8d 05 10 5d 00 00 	lea    0x5d10(%rip),%rax        # d048 <g_16>
    7338:	48 89 85 c0 f4 ff ff 	mov    %rax,-0xb40(%rbp)
    733f:	48 c7 85 f8 f4 ff ff 	movq   $0x1,-0xb08(%rbp)
    7346:	01 00 00 00 
    734a:	66 c7 85 58 f4 ff ff 	movw   $0xaa23,-0xba8(%rbp)
    7351:	23 aa 
    7353:	c7 85 6c f4 ff ff 00 	movl   $0x0,-0xb94(%rbp)
    735a:	00 00 00 
    735d:	eb 1e                	jmp    737d <func_68+0x629>
    735f:	8b 85 6c f4 ff ff    	mov    -0xb94(%rbp),%eax
    7365:	48 98                	cltq   
    7367:	48 8d 15 ce 5c 00 00 	lea    0x5cce(%rip),%rdx        # d03c <g_2+0xc>
    736e:	48 89 94 c5 60 f5 ff 	mov    %rdx,-0xaa0(%rbp,%rax,8)
    7375:	ff 
    7376:	83 85 6c f4 ff ff 01 	addl   $0x1,-0xb94(%rbp)
    737d:	83 bd 6c f4 ff ff 02 	cmpl   $0x2,-0xb94(%rbp)
    7384:	7e d9                	jle    735f <func_68+0x60b>
    7386:	c7 85 60 f4 ff ff 00 	movl   $0x0,-0xba0(%rbp)
    738d:	00 00 00 
    7390:	e9 d7 05 00 00       	jmpq   796c <func_68+0xc18>
    7395:	48 8d 05 54 72 00 00 	lea    0x7254(%rip),%rax        # e5f0 <g_222>
    739c:	48 89 85 10 f5 ff ff 	mov    %rax,-0xaf0(%rbp)
    73a3:	48 8d 05 6e 62 00 00 	lea    0x626e(%rip),%rax        # d618 <g_84>
    73aa:	48 89 85 d0 f4 ff ff 	mov    %rax,-0xb30(%rbp)
    73b1:	48 c7 85 a0 f6 ff ff 	movq   $0x0,-0x960(%rbp)
    73b8:	00 00 00 00 
    73bc:	48 8d 85 d0 f4 ff ff 	lea    -0xb30(%rbp),%rax
    73c3:	48 89 85 a8 f6 ff ff 	mov    %rax,-0x958(%rbp)
    73ca:	48 8d 85 d0 f4 ff ff 	lea    -0xb30(%rbp),%rax
    73d1:	48 89 85 b0 f6 ff ff 	mov    %rax,-0x950(%rbp)
    73d8:	48 c7 85 b8 f6 ff ff 	movq   $0x0,-0x948(%rbp)
    73df:	00 00 00 00 
    73e3:	48 8d 85 d0 f4 ff ff 	lea    -0xb30(%rbp),%rax
    73ea:	48 89 85 c0 f6 ff ff 	mov    %rax,-0x940(%rbp)
    73f1:	48 c7 85 c8 f6 ff ff 	movq   $0x0,-0x938(%rbp)
    73f8:	00 00 00 00 
    73fc:	48 c7 85 d0 f6 ff ff 	movq   $0x0,-0x930(%rbp)
    7403:	00 00 00 00 
    7407:	48 c7 85 d8 f6 ff ff 	movq   $0x0,-0x928(%rbp)
    740e:	00 00 00 00 
    7412:	48 c7 85 e0 f6 ff ff 	movq   $0x0,-0x920(%rbp)
    7419:	00 00 00 00 
    741d:	48 8d 85 d0 f4 ff ff 	lea    -0xb30(%rbp),%rax
    7424:	48 89 85 e8 f6 ff ff 	mov    %rax,-0x918(%rbp)
    742b:	c7 85 70 f4 ff ff 1e 	movl   $0x41012e1e,-0xb90(%rbp)
    7432:	2e 01 41 
    7435:	66 c7 85 c8 f4 ff ff 	movw   $0x1,-0xb38(%rbp)
    743c:	01 00 
    743e:	48 8b 05 ab 5c 00 00 	mov    0x5cab(%rip),%rax        # d0f0 <g_210+0x10>
    7445:	48 8d 05 cc 61 00 00 	lea    0x61cc(%rip),%rax        # d618 <g_84>
    744c:	48 89 05 e5 61 00 00 	mov    %rax,0x61e5(%rip)        # d638 <g_226>
    7453:	48 8b 05 de 61 00 00 	mov    0x61de(%rip),%rax        # d638 <g_226>
    745a:	48 8d 15 b7 61 00 00 	lea    0x61b7(%rip),%rdx        # d618 <g_84>
    7461:	48 39 d0             	cmp    %rdx,%rax
    7464:	0f 94 c2             	sete   %dl
    7467:	48 8b 05 a2 61 00 00 	mov    0x61a2(%rip),%rax        # d610 <g_85>
    746e:	88 10                	mov    %dl,(%rax)
    7470:	0f b6 00             	movzbl (%rax),%eax
    7473:	0f b6 d0             	movzbl %al,%edx
    7476:	48 8b 85 10 f5 ff ff 	mov    -0xaf0(%rbp),%rax
    747d:	0f b6 00             	movzbl (%rax),%eax
    7480:	83 e0 c5             	and    $0xffffffc5,%eax
    7483:	89 c1                	mov    %eax,%ecx
    7485:	48 8b 85 10 f5 ff ff 	mov    -0xaf0(%rbp),%rax
    748c:	88 08                	mov    %cl,(%rax)
    748e:	48 8b 85 10 f5 ff ff 	mov    -0xaf0(%rbp),%rax
    7495:	0f b6 00             	movzbl (%rax),%eax
    7498:	0f be c0             	movsbl %al,%eax
    749b:	89 d6                	mov    %edx,%esi
    749d:	89 c7                	mov    %eax,%edi
    749f:	e8 4a ce ff ff       	callq  42ee <safe_lshift_func_int8_t_s_u>
    74a4:	0f b6 05 9f 5b 00 00 	movzbl 0x5b9f(%rip),%eax        # d04a <g_18>
    74ab:	66 98                	cbtw   
    74ad:	0f b7 c0             	movzwl %ax,%eax
    74b0:	be 04 00 00 00       	mov    $0x4,%esi
    74b5:	89 c7                	mov    %eax,%edi
    74b7:	e8 be d9 ff ff       	callq  4e7a <safe_rshift_func_uint16_t_u_u>
    74bc:	48 8b 85 d8 f4 ff ff 	mov    -0xb28(%rbp),%rax
    74c3:	0f be c0             	movsbl %al,%eax
    74c6:	be 03 00 00 00       	mov    $0x3,%esi
    74cb:	89 c7                	mov    %eax,%edi
    74cd:	e8 63 ce ff ff       	callq  4335 <safe_rshift_func_int8_t_s_s>
    74d2:	0f be c0             	movsbl %al,%eax
    74d5:	39 85 44 f4 ff ff    	cmp    %eax,-0xbbc(%rbp)
    74db:	48 8b 05 1e 61 00 00 	mov    0x611e(%rip),%rax        # d600 <g_17>
    74e2:	0f b6 00             	movzbl (%rax),%eax
    74e5:	84 c0                	test   %al,%al
    74e7:	0f 94 c0             	sete   %al
    74ea:	0f b6 c0             	movzbl %al,%eax
    74ed:	8b 15 51 5b 00 00    	mov    0x5b51(%rip),%edx        # d044 <g_2+0x14>
    74f3:	89 c6                	mov    %eax,%esi
    74f5:	89 d7                	mov    %edx,%edi
    74f7:	e8 bc d9 ff ff       	callq  4eb8 <safe_add_func_uint32_t_u_u>
    74fc:	89 85 70 f4 ff ff    	mov    %eax,-0xb90(%rbp)
    7502:	8b 85 70 f4 ff ff    	mov    -0xb90(%rbp),%eax
    7508:	be 30 c5 a6 65       	mov    $0x65a6c530,%esi
    750d:	89 c7                	mov    %eax,%edi
    750f:	e8 b8 d1 ff ff       	callq  46cc <safe_mod_func_int32_t_s_s>
    7514:	89 05 aa 5b 00 00    	mov    %eax,0x5baa(%rip)        # d0c4 <g_95>
    751a:	0f b7 85 48 f4 ff ff 	movzwl -0xbb8(%rbp),%eax
    7521:	66 25 ff 3f          	and    $0x3fff,%ax
    7525:	0f b7 c0             	movzwl %ax,%eax
    7528:	09 85 70 f4 ff ff    	or     %eax,-0xb90(%rbp)
    752e:	c6 05 8b 5b 00 00 02 	movb   $0x2,0x5b8b(%rip)        # d0c0 <g_86>
    7535:	e9 0a 04 00 00       	jmpq   7944 <func_68+0xbf0>
    753a:	66 c7 85 5a f4 ff ff 	movw   $0x3,-0xba6(%rbp)
    7541:	03 00 
    7543:	c7 85 f0 f7 ff ff 01 	movl   $0x1,-0x810(%rbp)
    754a:	00 00 00 
    754d:	c7 85 f4 f7 ff ff 01 	movl   $0x1,-0x80c(%rbp)
    7554:	00 00 00 
    7557:	c7 85 f8 f7 ff ff 09 	movl   $0x13417209,-0x808(%rbp)
    755e:	72 41 13 
    7561:	c7 85 fc f7 ff ff ff 	movl   $0xffffffff,-0x804(%rbp)
    7568:	ff ff ff 
    756b:	c7 85 00 f8 ff ff e0 	movl   $0xdb854ce0,-0x800(%rbp)
    7572:	4c 85 db 
    7575:	c7 85 04 f8 ff ff 09 	movl   $0x13417209,-0x7fc(%rbp)
    757c:	72 41 13 
    757f:	c7 85 08 f8 ff ff ee 	movl   $0x6d9de8ee,-0x7f8(%rbp)
    7586:	e8 9d 6d 
    7589:	c7 85 0c f8 ff ff 04 	movl   $0x4,-0x7f4(%rbp)
    7590:	00 00 00 
    7593:	c7 85 10 f8 ff ff e0 	movl   $0xdb854ce0,-0x7f0(%rbp)
    759a:	4c 85 db 
    759d:	c7 85 14 f8 ff ff e3 	movl   $0x23495de3,-0x7ec(%rbp)
    75a4:	5d 49 23 
    75a7:	c7 85 18 f8 ff ff 09 	movl   $0x13417209,-0x7e8(%rbp)
    75ae:	72 41 13 
    75b1:	c7 85 1c f8 ff ff 81 	movl   $0x8a5cc781,-0x7e4(%rbp)
    75b8:	c7 5c 8a 
    75bb:	c7 85 20 f8 ff ff 01 	movl   $0x1,-0x7e0(%rbp)
    75c2:	00 00 00 
    75c5:	c7 85 24 f8 ff ff 04 	movl   $0x4,-0x7dc(%rbp)
    75cc:	00 00 00 
    75cf:	c7 85 28 f8 ff ff 04 	movl   $0x4,-0x7d8(%rbp)
    75d6:	00 00 00 
    75d9:	c7 85 2c f8 ff ff 01 	movl   $0x1,-0x7d4(%rbp)
    75e0:	00 00 00 
    75e3:	c7 85 30 f8 ff ff ff 	movl   $0xffffffff,-0x7d0(%rbp)
    75ea:	ff ff ff 
    75ed:	c7 85 34 f8 ff ff 3d 	movl   $0x8f23623d,-0x7cc(%rbp)
    75f4:	62 23 8f 
    75f7:	c7 85 38 f8 ff ff 01 	movl   $0x1,-0x7c8(%rbp)
    75fe:	00 00 00 
    7601:	c7 85 3c f8 ff ff 01 	movl   $0x1,-0x7c4(%rbp)
    7608:	00 00 00 
    760b:	c7 85 40 f8 ff ff ee 	movl   $0x6d9de8ee,-0x7c0(%rbp)
    7612:	e8 9d 6d 
    7615:	c7 85 44 f8 ff ff 81 	movl   $0x8a5cc781,-0x7bc(%rbp)
    761c:	c7 5c 8a 
    761f:	c7 85 48 f8 ff ff 00 	movl   $0x0,-0x7b8(%rbp)
    7626:	00 00 00 
    7629:	c7 85 4c f8 ff ff 06 	movl   $0x8fe16806,-0x7b4(%rbp)
    7630:	68 e1 8f 
    7633:	c7 85 50 f8 ff ff 93 	movl   $0x154a3f93,-0x7b0(%rbp)
    763a:	3f 4a 15 
    763d:	c7 85 54 f8 ff ff ff 	movl   $0xffffffff,-0x7ac(%rbp)
    7644:	ff ff ff 
    7647:	c7 85 58 f8 ff ff e5 	movl   $0x690791e5,-0x7a8(%rbp)
    764e:	91 07 69 
    7651:	c7 85 5c f8 ff ff 06 	movl   $0x8fe16806,-0x7a4(%rbp)
    7658:	68 e1 8f 
    765b:	c7 85 60 f8 ff ff 3d 	movl   $0x8f23623d,-0x7a0(%rbp)
    7662:	62 23 8f 
    7665:	c7 85 64 f8 ff ff 81 	movl   $0x8a5cc781,-0x79c(%rbp)
    766c:	c7 5c 8a 
    766f:	c7 85 68 f8 ff ff f5 	movl   $0xc81f13f5,-0x798(%rbp)
    7676:	13 1f c8 
    7679:	c7 85 6c f8 ff ff 01 	movl   $0x1,-0x794(%rbp)
    7680:	00 00 00 
    7683:	c7 85 70 f8 ff ff e3 	movl   $0x23495de3,-0x790(%rbp)
    768a:	5d 49 23 
    768d:	c7 85 74 f8 ff ff 3d 	movl   $0x8f23623d,-0x78c(%rbp)
    7694:	62 23 8f 
    7697:	c7 85 78 f8 ff ff e3 	movl   $0x23495de3,-0x788(%rbp)
    769e:	5d 49 23 
    76a1:	c7 85 7c f8 ff ff 01 	movl   $0x1,-0x784(%rbp)
    76a8:	00 00 00 
    76ab:	c7 85 80 f8 ff ff e5 	movl   $0x690791e5,-0x780(%rbp)
    76b2:	91 07 69 
    76b5:	c7 85 84 f8 ff ff 04 	movl   $0x4,-0x77c(%rbp)
    76bc:	00 00 00 
    76bf:	c7 85 88 f8 ff ff e0 	movl   $0xdb854ce0,-0x778(%rbp)
    76c6:	4c 85 db 
    76c9:	c7 85 8c f8 ff ff 81 	movl   $0x8a5cc781,-0x774(%rbp)
    76d0:	c7 5c 8a 
    76d3:	c7 85 a0 f4 ff ff 94 	movl   $0x8d7dd194,-0xb60(%rbp)
    76da:	d1 7d 8d 
    76dd:	48 8d 85 a8 f4 ff ff 	lea    -0xb58(%rbp),%rax
    76e4:	48 89 85 18 f5 ff ff 	mov    %rax,-0xae8(%rbp)
    76eb:	48 c7 85 20 f5 ff ff 	movq   $0x1,-0xae0(%rbp)
    76f2:	01 00 00 00 
    76f6:	48 8d 85 5c f4 ff ff 	lea    -0xba4(%rbp),%rax
    76fd:	48 89 85 28 f5 ff ff 	mov    %rax,-0xad8(%rbp)
    7704:	66 c7 85 56 f4 ff ff 	movw   $0x0,-0xbaa(%rbp)
    770b:	00 00 
    770d:	e9 03 02 00 00       	jmpq   7915 <func_68+0xbc1>
    7712:	48 8d 05 db 6e 00 00 	lea    0x6edb(%rip),%rax        # e5f4 <g_256>
    7719:	48 89 85 30 f5 ff ff 	mov    %rax,-0xad0(%rbp)
    7720:	48 8d 05 b1 59 00 00 	lea    0x59b1(%rip),%rax        # d0d8 <g_207>
    7727:	48 89 85 38 f5 ff ff 	mov    %rax,-0xac8(%rbp)
    772e:	48 8b 9d 20 f5 ff ff 	mov    -0xae0(%rbp),%rbx
    7735:	48 8b 05 d4 5e 00 00 	mov    0x5ed4(%rip),%rax        # d610 <g_85>
    773c:	0f b6 00             	movzbl (%rax),%eax
    773f:	44 0f b6 e0          	movzbl %al,%r12d
    7743:	44 8b 2d f6 58 00 00 	mov    0x58f6(%rip),%r13d        # d040 <g_2+0x10>
    774a:	48 8b 85 10 f5 ff ff 	mov    -0xaf0(%rbp),%rax
    7751:	c6 00 00             	movb   $0x0,(%rax)
    7754:	48 8b 85 e8 f4 ff ff 	mov    -0xb18(%rbp),%rax
    775b:	48 8b 00             	mov    (%rax),%rax
    775e:	48 8d 48 ff          	lea    -0x1(%rax),%rcx
    7762:	48 8b 95 e8 f4 ff ff 	mov    -0xb18(%rbp),%rdx
    7769:	48 89 0a             	mov    %rcx,(%rdx)
    776c:	48 89 c6             	mov    %rax,%rsi
    776f:	48 bf 3b 56 82 f9 28 	movabs $0x3759828f982563b,%rdi
    7776:	98 75 03 
    7779:	e8 2a d1 ff ff       	callq  48a8 <safe_sub_func_int64_t_s_s>
    777e:	44 0f bf b5 5a f4 ff 	movswl -0xba6(%rbp),%r14d
    7785:	ff 
    7786:	8b 05 38 59 00 00    	mov    0x5938(%rip),%eax        # d0c4 <g_95>
    778c:	0f b7 d0             	movzwl %ax,%edx
    778f:	48 8b 85 30 f5 ff ff 	mov    -0xad0(%rbp),%rax
    7796:	8b 00                	mov    (%rax),%eax
    7798:	8d 48 ff             	lea    -0x1(%rax),%ecx
    779b:	48 8b 85 30 f5 ff ff 	mov    -0xad0(%rbp),%rax
    77a2:	89 08                	mov    %ecx,(%rax)
    77a4:	48 8b 85 38 f5 ff ff 	mov    -0xac8(%rbp),%rax
    77ab:	66 c7 00 ff 00       	movw   $0xff,(%rax)
    77b0:	0f b7 05 39 59 00 00 	movzwl 0x5939(%rip),%eax        # d0f0 <g_210+0x10>
    77b7:	66 3d ff 00          	cmp    $0xff,%ax
    77bb:	74 2b                	je     77e8 <func_68+0xa94>
    77bd:	0f b6 05 fc 58 00 00 	movzbl 0x58fc(%rip),%eax        # d0c0 <g_86>
    77c4:	0f b6 c0             	movzbl %al,%eax
    77c7:	48 98                	cltq   
    77c9:	48 8d 0c c5 00 00 00 	lea    0x0(,%rax,8),%rcx
    77d0:	00 
    77d1:	48 8d 05 88 58 00 00 	lea    0x5888(%rip),%rax        # d060 <g_57>
    77d8:	48 8b 04 01          	mov    (%rcx,%rax,1),%rax
    77dc:	48 85 c0             	test   %rax,%rax
    77df:	74 07                	je     77e8 <func_68+0xa94>
    77e1:	b8 01 00 00 00       	mov    $0x1,%eax
    77e6:	eb 05                	jmp    77ed <func_68+0xa99>
    77e8:	b8 00 00 00 00       	mov    $0x0,%eax
    77ed:	0f b7 c0             	movzwl %ax,%eax
    77f0:	89 d6                	mov    %edx,%esi
    77f2:	89 c7                	mov    %eax,%edi
    77f4:	e8 26 d5 ff ff       	callq  4d1f <safe_sub_func_uint16_t_u_u>
    77f9:	0f b7 95 48 f4 ff ff 	movzwl -0xbb8(%rbp),%edx
    7800:	66 81 e2 ff 3f       	and    $0x3fff,%dx
    7805:	66 39 d0             	cmp    %dx,%ax
    7808:	0f 97 c0             	seta   %al
    780b:	0f b6 c0             	movzbl %al,%eax
    780e:	44 31 f0             	xor    %r14d,%eax
    7811:	39 85 44 f4 ff ff    	cmp    %eax,-0xbbc(%rbp)
    7817:	48 8b 85 38 f4 ff ff 	mov    -0xbc8(%rbp),%rax
    781e:	0f b6 00             	movzbl (%rax),%eax
    7821:	84 c0                	test   %al,%al
    7823:	74 07                	je     782c <func_68+0xad8>
    7825:	b8 01 00 00 00       	mov    $0x1,%eax
    782a:	eb 05                	jmp    7831 <func_68+0xadd>
    782c:	b8 00 00 00 00       	mov    $0x0,%eax
    7831:	0f b7 c0             	movzwl %ax,%eax
    7834:	44 89 ee             	mov    %r13d,%esi
    7837:	89 c7                	mov    %eax,%edi
    7839:	e8 0a d6 ff ff       	callq  4e48 <safe_rshift_func_uint16_t_u_s>
    783e:	48 8b 85 38 f4 ff ff 	mov    -0xbc8(%rbp),%rax
    7845:	0f b6 00             	movzbl (%rax),%eax
    7848:	0f b6 c0             	movzbl %al,%eax
    784b:	44 89 e6             	mov    %r12d,%esi
    784e:	89 c7                	mov    %eax,%edi
    7850:	e8 69 d4 ff ff       	callq  4cbe <safe_rshift_func_uint8_t_u_u>
    7855:	8b 85 5c f8 ff ff    	mov    -0x7a4(%rbp),%eax
    785b:	83 e8 01             	sub    $0x1,%eax
    785e:	89 85 5c f8 ff ff    	mov    %eax,-0x7a4(%rbp)
    7864:	be 01 00 00 00       	mov    $0x1,%esi
    7869:	bf 00 00 00 00       	mov    $0x0,%edi
    786e:	e8 20 d3 ff ff       	callq  4b93 <safe_mul_func_uint8_t_u_u>
    7873:	0f b6 d0             	movzbl %al,%edx
    7876:	0f b6 05 cd 57 00 00 	movzbl 0x57cd(%rip),%eax        # d04a <g_18>
    787d:	0f be c0             	movsbl %al,%eax
    7880:	09 d0                	or     %edx,%eax
    7882:	89 c2                	mov    %eax,%edx
    7884:	0f b6 05 6d 58 00 00 	movzbl 0x586d(%rip),%eax        # d0f8 <g_262>
    788b:	31 d0                	xor    %edx,%eax
    788d:	88 05 65 58 00 00    	mov    %al,0x5865(%rip)        # d0f8 <g_262>
    7893:	48 8b 85 30 f4 ff ff 	mov    -0xbd0(%rbp),%rax
    789a:	0f b6 00             	movzbl (%rax),%eax
    789d:	0f be c0             	movsbl %al,%eax
    78a0:	39 85 a0 f4 ff ff    	cmp    %eax,-0xb60(%rbp)
    78a6:	0f 9d c0             	setge  %al
    78a9:	0f b6 c0             	movzbl %al,%eax
    78ac:	48 89 de             	mov    %rbx,%rsi
    78af:	48 89 c7             	mov    %rax,%rdi
    78b2:	e8 8a cf ff ff       	callq  4841 <safe_add_func_int64_t_s_s>
    78b7:	0f be c0             	movsbl %al,%eax
    78ba:	8b 95 70 f4 ff ff    	mov    -0xb90(%rbp),%edx
    78c0:	89 d6                	mov    %edx,%esi
    78c2:	89 c7                	mov    %eax,%edi
    78c4:	e8 6c ca ff ff       	callq  4335 <safe_rshift_func_int8_t_s_s>
    78c9:	0f be c0             	movsbl %al,%eax
    78cc:	39 85 44 f4 ff ff    	cmp    %eax,-0xbbc(%rbp)
    78d2:	0f 92 c0             	setb   %al
    78d5:	0f b6 c0             	movzbl %al,%eax
    78d8:	48 c7 c6 ff ff ff ff 	mov    $0xffffffffffffffff,%rsi
    78df:	48 89 c7             	mov    %rax,%rdi
    78e2:	e8 99 d7 ff ff       	callq  5080 <safe_mod_func_uint64_t_u_u>
    78e7:	89 85 70 f4 ff ff    	mov    %eax,-0xb90(%rbp)
    78ed:	8b 85 70 f4 ff ff    	mov    -0xb90(%rbp),%eax
    78f3:	89 c2                	mov    %eax,%edx
    78f5:	0f b6 85 54 f4 ff ff 	movzbl -0xbac(%rbp),%eax
    78fc:	09 d0                	or     %edx,%eax
    78fe:	88 85 54 f4 ff ff    	mov    %al,-0xbac(%rbp)
    7904:	0f b7 85 56 f4 ff ff 	movzwl -0xbaa(%rbp),%eax
    790b:	83 c0 01             	add    $0x1,%eax
    790e:	66 89 85 56 f4 ff ff 	mov    %ax,-0xbaa(%rbp)
    7915:	0f b7 85 56 f4 ff ff 	movzwl -0xbaa(%rbp),%eax
    791c:	66 83 f8 07          	cmp    $0x7,%ax
    7920:	0f 86 ec fd ff ff    	jbe    7712 <func_68+0x9be>
    7926:	48 8b 85 70 f5 ff ff 	mov    -0xa90(%rbp),%rax
    792d:	48 89 85 28 f5 ff ff 	mov    %rax,-0xad8(%rbp)
    7934:	0f b6 05 85 57 00 00 	movzbl 0x5785(%rip),%eax        # d0c0 <g_86>
    793b:	83 c0 01             	add    $0x1,%eax
    793e:	88 05 7c 57 00 00    	mov    %al,0x577c(%rip)        # d0c0 <g_86>
    7944:	0f b6 05 75 57 00 00 	movzbl 0x5775(%rip),%eax        # d0c0 <g_86>
    794b:	3c 06                	cmp    $0x6,%al
    794d:	0f 86 e7 fb ff ff    	jbe    753a <func_68+0x7e6>
    7953:	81 b5 70 f4 ff ff 46 	xorl   $0xd31e3e46,-0xb90(%rbp)
    795a:	3e 1e d3 
    795d:	8b 85 60 f4 ff ff    	mov    -0xba0(%rbp),%eax
    7963:	83 e8 01             	sub    $0x1,%eax
    7966:	89 85 60 f4 ff ff    	mov    %eax,-0xba0(%rbp)
    796c:	8b 85 60 f4 ff ff    	mov    -0xba0(%rbp),%eax
    7972:	83 f8 f1             	cmp    $0xfffffff1,%eax
    7975:	0f 85 1a fa ff ff    	jne    7395 <func_68+0x641>
    797b:	90                   	nop
    797c:	c7 85 44 f4 ff ff 01 	movl   $0x1,-0xbbc(%rbp)
    7983:	00 00 00 
    7986:	eb 3b                	jmp    79c3 <func_68+0xc6f>
    7988:	c7 85 98 f4 ff ff 09 	movl   $0x50154109,-0xb68(%rbp)
    798f:	41 15 50 
    7992:	c7 85 9c f4 ff ff bb 	movl   $0x7163f9bb,-0xb64(%rbp)
    7999:	f9 63 71 
    799c:	0f b7 85 48 f4 ff ff 	movzwl -0xbb8(%rbp),%eax
    79a3:	66 25 ff 3f          	and    $0x3fff,%ax
    79a7:	0f b7 c0             	movzwl %ax,%eax
    79aa:	89 85 98 f4 ff ff    	mov    %eax,-0xb68(%rbp)
    79b0:	8b 85 98 f4 ff ff    	mov    -0xb68(%rbp),%eax
    79b6:	89 85 9c f4 ff ff    	mov    %eax,-0xb64(%rbp)
    79bc:	83 85 44 f4 ff ff 01 	addl   $0x1,-0xbbc(%rbp)
    79c3:	83 bd 44 f4 ff ff 06 	cmpl   $0x6,-0xbbc(%rbp)
    79ca:	76 bc                	jbe    7988 <func_68+0xc34>
    79cc:	c7 05 1e 6c 00 00 00 	movl   $0x0,0x6c1e(%rip)        # e5f4 <g_256>
    79d3:	00 00 00 
    79d6:	e9 96 06 00 00       	jmpq   8071 <func_68+0x131d>
    79db:	c7 85 88 f4 ff ff 97 	movl   $0x45ff2697,-0xb78(%rbp)
    79e2:	26 ff 45 
    79e5:	c6 85 55 f4 ff ff d6 	movb   $0xd6,-0xbab(%rbp)
    79ec:	48 8d 05 d5 56 00 00 	lea    0x56d5(%rip),%rax        # d0c8 <g_112>
    79f3:	48 89 85 c8 f4 ff ff 	mov    %rax,-0xb38(%rbp)
    79fa:	c7 85 74 f4 ff ff 00 	movl   $0x0,-0xb8c(%rbp)
    7a01:	00 00 00 
    7a04:	eb 45                	jmp    7a4b <func_68+0xcf7>
    7a06:	c7 85 64 f4 ff ff 00 	movl   $0x0,-0xb9c(%rbp)
    7a0d:	00 00 00 
    7a10:	eb 29                	jmp    7a3b <func_68+0xce7>
    7a12:	8b 85 64 f4 ff ff    	mov    -0xb9c(%rbp),%eax
    7a18:	48 98                	cltq   
    7a1a:	8b 95 74 f4 ff ff    	mov    -0xb8c(%rbp),%edx
    7a20:	48 63 d2             	movslq %edx,%rdx
    7a23:	48 01 d2             	add    %rdx,%rdx
    7a26:	48 01 d0             	add    %rdx,%rax
    7a29:	c7 84 85 58 f5 ff ff 	movl   $0x3c9a6c5e,-0xaa8(%rbp,%rax,4)
    7a30:	5e 6c 9a 3c 
    7a34:	83 85 64 f4 ff ff 01 	addl   $0x1,-0xb9c(%rbp)
    7a3b:	83 bd 64 f4 ff ff 01 	cmpl   $0x1,-0xb9c(%rbp)
    7a42:	7e ce                	jle    7a12 <func_68+0xcbe>
    7a44:	83 85 74 f4 ff ff 01 	addl   $0x1,-0xb8c(%rbp)
    7a4b:	83 bd 74 f4 ff ff 00 	cmpl   $0x0,-0xb8c(%rbp)
    7a52:	7e b2                	jle    7a06 <func_68+0xcb2>
    7a54:	c7 05 66 56 00 00 00 	movl   $0x0,0x5666(%rip)        # d0c4 <g_95>
    7a5b:	00 00 00 
    7a5e:	8b 85 58 f5 ff ff    	mov    -0xaa8(%rbp),%eax
    7a64:	85 c0                	test   %eax,%eax
    7a66:	0f 84 c0 00 00 00    	je     7b2c <func_68+0xdd8>
    7a6c:	48 8b 85 c0 f4 ff ff 	mov    -0xb40(%rbp),%rax
    7a73:	48 85 c0             	test   %rax,%rax
    7a76:	0f 94 c0             	sete   %al
    7a79:	0f b6 d0             	movzbl %al,%edx
    7a7c:	0f b6 05 cb 55 00 00 	movzbl 0x55cb(%rip),%eax        # d04e <g_56>
    7a83:	0f b6 c0             	movzbl %al,%eax
    7a86:	48 89 d6             	mov    %rdx,%rsi
    7a89:	48 89 c7             	mov    %rax,%rdi
    7a8c:	e8 9d d5 ff ff       	callq  502e <safe_add_func_uint64_t_u_u>
    7a91:	48 85 c0             	test   %rax,%rax
    7a94:	0f 84 92 00 00 00    	je     7b2c <func_68+0xdd8>
    7a9a:	8b 9d 44 f4 ff ff    	mov    -0xbbc(%rbp),%ebx
    7aa0:	0f b7 05 a1 55 00 00 	movzwl 0x55a1(%rip),%eax        # d048 <g_16>
    7aa7:	0f b7 c0             	movzwl %ax,%eax
    7aaa:	48 0d 90 ad e7 62    	or     $0x62e7ad90,%rax
    7ab0:	49 89 c5             	mov    %rax,%r13
    7ab3:	44 0f b7 25 35 56 00 	movzwl 0x5635(%rip),%r12d        # d0f0 <g_210+0x10>
    7aba:	00 
    7abb:	0f b7 05 16 56 00 00 	movzwl 0x5616(%rip),%eax        # d0d8 <g_207>
    7ac2:	66 3d ff 00          	cmp    $0xff,%ax
    7ac6:	0f 95 c0             	setne  %al
    7ac9:	0f b6 c0             	movzbl %al,%eax
    7acc:	be 04 00 00 00       	mov    $0x4,%esi
    7ad1:	89 c7                	mov    %eax,%edi
    7ad3:	e8 16 c8 ff ff       	callq  42ee <safe_lshift_func_int8_t_s_u>
    7ad8:	66 98                	cbtw   
    7ada:	66 41 39 c4          	cmp    %ax,%r12w
    7ade:	0f 9d c0             	setge  %al
    7ae1:	0f b6 c0             	movzbl %al,%eax
    7ae4:	49 39 c5             	cmp    %rax,%r13
    7ae7:	0f 95 c0             	setne  %al
    7aea:	0f b6 c0             	movzbl %al,%eax
    7aed:	0f b7 95 48 f4 ff ff 	movzwl -0xbb8(%rbp),%edx
    7af4:	66 81 e2 ff 3f       	and    $0x3fff,%dx
    7af9:	09 d0                	or     %edx,%eax
    7afb:	0f b7 c0             	movzwl %ax,%eax
    7afe:	89 de                	mov    %ebx,%esi
    7b00:	89 c7                	mov    %eax,%edi
    7b02:	e8 b7 d2 ff ff       	callq  4dbe <safe_lshift_func_uint16_t_u_s>
    7b07:	0f b7 d0             	movzwl %ax,%edx
    7b0a:	0f b7 85 48 f4 ff ff 	movzwl -0xbb8(%rbp),%eax
    7b11:	66 25 ff 3f          	and    $0x3fff,%ax
    7b15:	0f b7 c0             	movzwl %ax,%eax
    7b18:	89 d6                	mov    %edx,%esi
    7b1a:	89 c7                	mov    %eax,%edi
    7b1c:	e8 95 ca ff ff       	callq  45b6 <safe_add_func_int32_t_s_s>
    7b21:	85 c0                	test   %eax,%eax
    7b23:	74 07                	je     7b2c <func_68+0xdd8>
    7b25:	b8 01 00 00 00       	mov    $0x1,%eax
    7b2a:	eb 05                	jmp    7b31 <func_68+0xddd>
    7b2c:	b8 00 00 00 00       	mov    $0x0,%eax
    7b31:	be 03 00 00 00       	mov    $0x3,%esi
    7b36:	89 c7                	mov    %eax,%edi
    7b38:	e8 c2 cb ff ff       	callq  46ff <safe_div_func_int32_t_s_s>
    7b3d:	48 98                	cltq   
    7b3f:	25 fd c5 00 00       	and    $0xc5fd,%eax
    7b44:	48 89 c2             	mov    %rax,%rdx
    7b47:	0f b7 05 8a 55 00 00 	movzwl 0x558a(%rip),%eax        # d0d8 <g_207>
    7b4e:	48 0f bf c0          	movswq %ax,%rax
    7b52:	48 39 c2             	cmp    %rax,%rdx
    7b55:	7f 0c                	jg     7b63 <func_68+0xe0f>
    7b57:	48 8b 05 aa 5a 00 00 	mov    0x5aaa(%rip),%rax        # d608 <g_55>
    7b5e:	0f b6 00             	movzbl (%rax),%eax
    7b61:	84 c0                	test   %al,%al
    7b63:	c7 85 8c f4 ff ff 04 	movl   $0x4,-0xb74(%rbp)
    7b6a:	00 00 00 
    7b6d:	48 8d 85 f0 f7 ff ff 	lea    -0x810(%rbp),%rax
    7b74:	48 8d 15 a5 1d 00 00 	lea    0x1da5(%rip),%rdx        # 9920 <g_518+0x8b8>
    7b7b:	b9 70 00 00 00       	mov    $0x70,%ecx
    7b80:	48 89 c7             	mov    %rax,%rdi
    7b83:	48 89 d6             	mov    %rdx,%rsi
    7b86:	f3 48 a5             	rep movsq %ds:(%rsi),%es:(%rdi)
    7b89:	0f b7 05 b8 54 00 00 	movzwl 0x54b8(%rip),%eax        # d048 <g_16>
    7b90:	66 85 c0             	test   %ax,%ax
    7b93:	74 05                	je     7b9a <func_68+0xe46>
    7b95:	e9 e2 fd ff ff       	jmpq   797c <func_68+0xc28>
    7b9a:	48 c7 85 d8 f4 ff ff 	movq   $0x0,-0xb28(%rbp)
    7ba1:	00 00 00 00 
    7ba5:	eb 4e                	jmp    7bf5 <func_68+0xea1>
    7ba7:	c7 85 60 f4 ff ff 00 	movl   $0x0,-0xba0(%rbp)
    7bae:	00 00 00 
    7bb1:	eb 2f                	jmp    7be2 <func_68+0xe8e>
    7bb3:	8b 85 60 f4 ff ff    	mov    -0xba0(%rbp),%eax
    7bb9:	48 98                	cltq   
    7bbb:	48 8b 95 d8 f4 ff ff 	mov    -0xb28(%rbp),%rdx
    7bc2:	48 01 d2             	add    %rdx,%rdx
    7bc5:	48 01 d0             	add    %rdx,%rax
    7bc8:	c7 84 85 58 f5 ff ff 	movl   $0xfffffff6,-0xaa8(%rbp,%rax,4)
    7bcf:	f6 ff ff ff 
    7bd3:	8b 85 60 f4 ff ff    	mov    -0xba0(%rbp),%eax
    7bd9:	83 c0 01             	add    $0x1,%eax
    7bdc:	89 85 60 f4 ff ff    	mov    %eax,-0xba0(%rbp)
    7be2:	8b 85 60 f4 ff ff    	mov    -0xba0(%rbp),%eax
    7be8:	83 f8 01             	cmp    $0x1,%eax
    7beb:	7e c6                	jle    7bb3 <func_68+0xe5f>
    7bed:	48 83 85 d8 f4 ff ff 	addq   $0x1,-0xb28(%rbp)
    7bf4:	01 
    7bf5:	48 83 bd d8 f4 ff ff 	cmpq   $0x0,-0xb28(%rbp)
    7bfc:	00 
    7bfd:	74 a8                	je     7ba7 <func_68+0xe53>
    7bff:	48 8b 85 38 f4 ff ff 	mov    -0xbc8(%rbp),%rax
    7c06:	0f b6 00             	movzbl (%rax),%eax
    7c09:	0f b6 c0             	movzbl %al,%eax
    7c0c:	be 05 00 00 00       	mov    $0x5,%esi
    7c11:	89 c7                	mov    %eax,%edi
    7c13:	e8 ed cf ff ff       	callq  4c05 <safe_lshift_func_uint8_t_u_s>
    7c18:	84 c0                	test   %al,%al
    7c1a:	0f 84 2d 04 00 00    	je     804d <func_68+0x12f9>
    7c20:	48 8d 05 19 5a 00 00 	lea    0x5a19(%rip),%rax        # d640 <g_301>
    7c27:	48 89 85 08 f5 ff ff 	mov    %rax,-0xaf8(%rbp)
    7c2e:	c7 85 90 f4 ff ff dc 	movl   $0xc6d283dc,-0xb70(%rbp)
    7c35:	83 d2 c6 
    7c38:	c7 85 94 f4 ff ff ff 	movl   $0xffffffff,-0xb6c(%rbp)
    7c3f:	ff ff ff 
    7c42:	48 c7 85 d0 f4 ff ff 	movq   $0x0,-0xb30(%rbp)
    7c49:	00 00 00 00 
    7c4d:	0f b7 85 d0 f4 ff ff 	movzwl -0xb30(%rbp),%eax
    7c54:	66 25 00 c0          	and    $0xc000,%ax
    7c58:	83 c8 01             	or     $0x1,%eax
    7c5b:	66 89 85 d0 f4 ff ff 	mov    %ax,-0xb30(%rbp)
    7c62:	48 8b 15 d7 59 00 00 	mov    0x59d7(%rip),%rdx        # d640 <g_301>
    7c69:	48 8b 85 08 f5 ff ff 	mov    -0xaf8(%rbp),%rax
    7c70:	48 89 10             	mov    %rdx,(%rax)
    7c73:	48 8b 05 96 59 00 00 	mov    0x5996(%rip),%rax        # d610 <g_85>
    7c7a:	0f b6 00             	movzbl (%rax),%eax
    7c7d:	84 c0                	test   %al,%al
    7c7f:	75 22                	jne    7ca3 <func_68+0xf4f>
    7c81:	48 8b 95 b8 f4 ff ff 	mov    -0xb48(%rbp),%rdx
    7c88:	48 8b 85 c8 f4 ff ff 	mov    -0xb38(%rbp),%rax
    7c8f:	48 39 c2             	cmp    %rax,%rdx
    7c92:	0f 94 c0             	sete   %al
    7c95:	0f b6 c0             	movzbl %al,%eax
    7c98:	89 c7                	mov    %eax,%edi
    7c9a:	e8 07 d2 ff ff       	callq  4ea6 <safe_unary_minus_func_uint32_t_u>
    7c9f:	85 c0                	test   %eax,%eax
    7ca1:	74 07                	je     7caa <func_68+0xf56>
    7ca3:	b8 01 00 00 00       	mov    $0x1,%eax
    7ca8:	eb 05                	jmp    7caf <func_68+0xf5b>
    7caa:	b8 00 00 00 00       	mov    $0x0,%eax
    7caf:	39 85 44 f4 ff ff    	cmp    %eax,-0xbbc(%rbp)
    7cb5:	74 0f                	je     7cc6 <func_68+0xf72>
    7cb7:	48 8b 85 30 f4 ff ff 	mov    -0xbd0(%rbp),%rax
    7cbe:	0f b6 00             	movzbl (%rax),%eax
    7cc1:	e9 df 03 00 00       	jmpq   80a5 <func_68+0x1351>
    7cc6:	48 8d 85 b8 f4 ff ff 	lea    -0xb48(%rbp),%rax
    7ccd:	48 89 85 a0 f6 ff ff 	mov    %rax,-0x960(%rbp)
    7cd4:	48 8d 85 b8 f4 ff ff 	lea    -0xb48(%rbp),%rax
    7cdb:	48 89 85 a8 f6 ff ff 	mov    %rax,-0x958(%rbp)
    7ce2:	48 8d 85 b8 f4 ff ff 	lea    -0xb48(%rbp),%rax
    7ce9:	48 89 85 b0 f6 ff ff 	mov    %rax,-0x950(%rbp)
    7cf0:	48 8d 85 b8 f4 ff ff 	lea    -0xb48(%rbp),%rax
    7cf7:	48 89 85 b8 f6 ff ff 	mov    %rax,-0x948(%rbp)
    7cfe:	48 8d 85 b8 f4 ff ff 	lea    -0xb48(%rbp),%rax
    7d05:	48 89 85 c0 f6 ff ff 	mov    %rax,-0x940(%rbp)
    7d0c:	48 8d 85 b8 f4 ff ff 	lea    -0xb48(%rbp),%rax
    7d13:	48 89 85 c8 f6 ff ff 	mov    %rax,-0x938(%rbp)
    7d1a:	48 8d 85 b8 f4 ff ff 	lea    -0xb48(%rbp),%rax
    7d21:	48 89 85 d0 f6 ff ff 	mov    %rax,-0x930(%rbp)
    7d28:	48 8d 85 c8 f4 ff ff 	lea    -0xb38(%rbp),%rax
    7d2f:	48 89 85 d8 f6 ff ff 	mov    %rax,-0x928(%rbp)
    7d36:	48 c7 85 e0 f6 ff ff 	movq   $0x0,-0x920(%rbp)
    7d3d:	00 00 00 00 
    7d41:	48 c7 85 e8 f6 ff ff 	movq   $0x0,-0x918(%rbp)
    7d48:	00 00 00 00 
    7d4c:	48 8d 85 c8 f4 ff ff 	lea    -0xb38(%rbp),%rax
    7d53:	48 89 85 f0 f6 ff ff 	mov    %rax,-0x910(%rbp)
    7d5a:	48 c7 85 f8 f6 ff ff 	movq   $0x0,-0x908(%rbp)
    7d61:	00 00 00 00 
    7d65:	48 c7 85 00 f7 ff ff 	movq   $0x0,-0x900(%rbp)
    7d6c:	00 00 00 00 
    7d70:	48 8d 85 c8 f4 ff ff 	lea    -0xb38(%rbp),%rax
    7d77:	48 89 85 08 f7 ff ff 	mov    %rax,-0x8f8(%rbp)
    7d7e:	48 c7 85 10 f7 ff ff 	movq   $0x0,-0x8f0(%rbp)
    7d85:	00 00 00 00 
    7d89:	48 8d 85 b8 f4 ff ff 	lea    -0xb48(%rbp),%rax
    7d90:	48 89 85 18 f7 ff ff 	mov    %rax,-0x8e8(%rbp)
    7d97:	48 c7 85 20 f7 ff ff 	movq   $0x0,-0x8e0(%rbp)
    7d9e:	00 00 00 00 
    7da2:	48 c7 85 28 f7 ff ff 	movq   $0x0,-0x8d8(%rbp)
    7da9:	00 00 00 00 
    7dad:	48 8d 85 b8 f4 ff ff 	lea    -0xb48(%rbp),%rax
    7db4:	48 89 85 30 f7 ff ff 	mov    %rax,-0x8d0(%rbp)
    7dbb:	48 c7 85 38 f7 ff ff 	movq   $0x0,-0x8c8(%rbp)
    7dc2:	00 00 00 00 
    7dc6:	48 c7 85 40 f7 ff ff 	movq   $0x0,-0x8c0(%rbp)
    7dcd:	00 00 00 00 
    7dd1:	48 8d 85 c8 f4 ff ff 	lea    -0xb38(%rbp),%rax
    7dd8:	48 89 85 48 f7 ff ff 	mov    %rax,-0x8b8(%rbp)
    7ddf:	48 8d 85 c8 f4 ff ff 	lea    -0xb38(%rbp),%rax
    7de6:	48 89 85 50 f7 ff ff 	mov    %rax,-0x8b0(%rbp)
    7ded:	48 8d 85 b8 f4 ff ff 	lea    -0xb48(%rbp),%rax
    7df4:	48 89 85 58 f7 ff ff 	mov    %rax,-0x8a8(%rbp)
    7dfb:	48 8d 85 c8 f4 ff ff 	lea    -0xb38(%rbp),%rax
    7e02:	48 89 85 60 f7 ff ff 	mov    %rax,-0x8a0(%rbp)
    7e09:	48 8d 85 c8 f4 ff ff 	lea    -0xb38(%rbp),%rax
    7e10:	48 89 85 68 f7 ff ff 	mov    %rax,-0x898(%rbp)
    7e17:	48 8d 85 b8 f4 ff ff 	lea    -0xb48(%rbp),%rax
    7e1e:	48 89 85 70 f7 ff ff 	mov    %rax,-0x890(%rbp)
    7e25:	48 8d 85 c8 f4 ff ff 	lea    -0xb38(%rbp),%rax
    7e2c:	48 89 85 78 f7 ff ff 	mov    %rax,-0x888(%rbp)
    7e33:	48 8d 85 b8 f4 ff ff 	lea    -0xb48(%rbp),%rax
    7e3a:	48 89 85 80 f7 ff ff 	mov    %rax,-0x880(%rbp)
    7e41:	48 c7 85 88 f7 ff ff 	movq   $0x0,-0x878(%rbp)
    7e48:	00 00 00 00 
    7e4c:	48 c7 85 90 f7 ff ff 	movq   $0x0,-0x870(%rbp)
    7e53:	00 00 00 00 
    7e57:	48 8d 85 b8 f4 ff ff 	lea    -0xb48(%rbp),%rax
    7e5e:	48 89 85 98 f7 ff ff 	mov    %rax,-0x868(%rbp)
    7e65:	48 c7 85 a0 f7 ff ff 	movq   $0x0,-0x860(%rbp)
    7e6c:	00 00 00 00 
    7e70:	48 c7 85 a8 f7 ff ff 	movq   $0x0,-0x858(%rbp)
    7e77:	00 00 00 00 
    7e7b:	48 8d 85 b8 f4 ff ff 	lea    -0xb48(%rbp),%rax
    7e82:	48 89 85 b0 f7 ff ff 	mov    %rax,-0x850(%rbp)
    7e89:	48 c7 85 b8 f7 ff ff 	movq   $0x0,-0x848(%rbp)
    7e90:	00 00 00 00 
    7e94:	48 8d 85 c8 f4 ff ff 	lea    -0xb38(%rbp),%rax
    7e9b:	48 89 85 c0 f7 ff ff 	mov    %rax,-0x840(%rbp)
    7ea2:	48 c7 85 c8 f7 ff ff 	movq   $0x0,-0x838(%rbp)
    7ea9:	00 00 00 00 
    7ead:	48 c7 85 d0 f7 ff ff 	movq   $0x0,-0x830(%rbp)
    7eb4:	00 00 00 00 
    7eb8:	48 8d 85 c8 f4 ff ff 	lea    -0xb38(%rbp),%rax
    7ebf:	48 89 85 d8 f7 ff ff 	mov    %rax,-0x828(%rbp)
    7ec6:	48 c7 85 e0 f7 ff ff 	movq   $0x0,-0x820(%rbp)
    7ecd:	00 00 00 00 
    7ed1:	48 c7 85 e8 f7 ff ff 	movq   $0x0,-0x818(%rbp)
    7ed8:	00 00 00 00 
    7edc:	c7 85 68 f4 ff ff 00 	movl   $0x0,-0xb98(%rbp)
    7ee3:	00 00 00 
    7ee6:	0f b7 85 48 f4 ff ff 	movzwl -0xbb8(%rbp),%eax
    7eed:	66 25 ff 3f          	and    $0x3fff,%ax
    7ef1:	0f b7 d8             	movzwl %ax,%ebx
    7ef4:	48 8b 85 28 f4 ff ff 	mov    -0xbd8(%rbp),%rax
    7efb:	0f b6 00             	movzbl (%rax),%eax
    7efe:	44 0f be e0          	movsbl %al,%r12d
    7f02:	0f b7 85 48 f4 ff ff 	movzwl -0xbb8(%rbp),%eax
    7f09:	66 25 ff 3f          	and    $0x3fff,%ax
    7f0d:	66 85 c0             	test   %ax,%ax
    7f10:	75 5a                	jne    7f6c <func_68+0x1218>
    7f12:	8b 85 44 f4 ff ff    	mov    -0xbbc(%rbp),%eax
    7f18:	44 0f bf e8          	movswl %ax,%r13d
    7f1c:	c7 85 68 f4 ff ff 90 	movl   $0x7f010290,-0xb98(%rbp)
    7f23:	02 01 7f 
    7f26:	c7 85 90 f4 ff ff 01 	movl   $0x1,-0xb70(%rbp)
    7f2d:	00 00 00 
    7f30:	48 be 71 6b 3a 97 1c 	movabs $0xc3c7e1c973a6b71,%rsi
    7f37:	7e 3c 0c 
    7f3a:	bf 00 00 00 00       	mov    $0x0,%edi
    7f3f:	e8 70 ca ff ff       	callq  49b4 <safe_mod_func_int64_t_s_s>
    7f44:	48 39 85 f8 f4 ff ff 	cmp    %rax,-0xb08(%rbp)
    7f4b:	0f 96 c0             	setbe  %al
    7f4e:	0f b6 c0             	movzbl %al,%eax
    7f51:	39 85 94 f4 ff ff    	cmp    %eax,-0xb6c(%rbp)
    7f57:	0f 9d c0             	setge  %al
    7f5a:	0f b6 c0             	movzbl %al,%eax
    7f5d:	44 89 ee             	mov    %r13d,%esi
    7f60:	89 c7                	mov    %eax,%edi
    7f62:	e8 6c c4 ff ff       	callq  43d3 <safe_sub_func_int16_t_s_s>
    7f67:	66 85 c0             	test   %ax,%ax
    7f6a:	74 07                	je     7f73 <func_68+0x121f>
    7f6c:	b8 01 00 00 00       	mov    $0x1,%eax
    7f71:	eb 05                	jmp    7f78 <func_68+0x1224>
    7f73:	b8 00 00 00 00       	mov    $0x0,%eax
    7f78:	0f be c0             	movsbl %al,%eax
    7f7b:	44 89 e6             	mov    %r12d,%esi
    7f7e:	89 c7                	mov    %eax,%edi
    7f80:	e8 b0 c3 ff ff       	callq  4335 <safe_rshift_func_int8_t_s_s>
    7f85:	0f be d0             	movsbl %al,%edx
    7f88:	8b 85 44 f4 ff ff    	mov    -0xbbc(%rbp),%eax
    7f8e:	98                   	cwtl   
    7f8f:	89 d6                	mov    %edx,%esi
    7f91:	89 c7                	mov    %eax,%edi
    7f93:	e8 3b c4 ff ff       	callq  43d3 <safe_sub_func_int16_t_s_s>
    7f98:	98                   	cwtl   
    7f99:	48 8b 15 c0 50 00 00 	mov    0x50c0(%rip),%rdx        # d060 <g_57>
    7fa0:	89 c6                	mov    %eax,%esi
    7fa2:	89 d7                	mov    %edx,%edi
    7fa4:	e8 7c cf ff ff       	callq  4f25 <safe_div_func_uint32_t_u_u>
    7fa9:	89 c0                	mov    %eax,%eax
    7fab:	48 89 05 ae 50 00 00 	mov    %rax,0x50ae(%rip)        # d060 <g_57>
    7fb2:	8b 85 68 f4 ff ff    	mov    -0xb98(%rbp),%eax
    7fb8:	0f bf d0             	movswl %ax,%edx
    7fbb:	48 8b 05 7e 56 00 00 	mov    0x567e(%rip),%rax        # d640 <g_301>
    7fc2:	48 8b 08             	mov    (%rax),%rcx
    7fc5:	48 8b 85 c8 f4 ff ff 	mov    -0xb38(%rbp),%rax
    7fcc:	48 89 05 3d 57 00 00 	mov    %rax,0x573d(%rip)        # d710 <g_312+0xb0>
    7fd3:	48 8b 05 36 57 00 00 	mov    0x5736(%rip),%rax        # d710 <g_312+0xb0>
    7fda:	48 89 05 ff 59 00 00 	mov    %rax,0x59ff(%rip)        # d9e0 <g_313>
    7fe1:	48 8b 05 f8 59 00 00 	mov    0x59f8(%rip),%rax        # d9e0 <g_313>
    7fe8:	48 39 c1             	cmp    %rax,%rcx
    7feb:	0f 94 c0             	sete   %al
    7fee:	0f b6 c0             	movzbl %al,%eax
    7ff1:	89 d6                	mov    %edx,%esi
    7ff3:	89 c7                	mov    %eax,%edi
    7ff5:	e8 1c c4 ff ff       	callq  4416 <safe_mod_func_int16_t_s_s>
    7ffa:	98                   	cwtl   
    7ffb:	89 de                	mov    %ebx,%esi
    7ffd:	89 c7                	mov    %eax,%edi
    7fff:	e8 51 c4 ff ff       	callq  4455 <safe_div_func_int16_t_s_s>
    8004:	98                   	cwtl   
    8005:	89 85 1c fa ff ff    	mov    %eax,-0x5e4(%rbp)
    800b:	48 c7 85 60 f5 ff ff 	movq   $0x0,-0xaa0(%rbp)
    8012:	00 00 00 00 
    8016:	0f b6 05 a3 50 00 00 	movzbl 0x50a3(%rip),%eax        # d0c0 <g_86>
    801d:	84 c0                	test   %al,%al
    801f:	75 5f                	jne    8080 <func_68+0x132c>
    8021:	8b 05 29 51 00 00    	mov    0x5129(%rip),%eax        # d150 <g_335>
    8027:	83 e8 01             	sub    $0x1,%eax
    802a:	89 05 20 51 00 00    	mov    %eax,0x5120(%rip)        # d150 <g_335>
    8030:	8b 05 be 65 00 00    	mov    0x65be(%rip),%eax        # e5f4 <g_256>
    8036:	89 c0                	mov    %eax,%eax
    8038:	be 01 00 00 00       	mov    $0x1,%esi
    803d:	48 89 c7             	mov    %rax,%rdi
    8040:	e8 e9 cf ff ff       	callq  502e <safe_add_func_uint64_t_u_u>
    8045:	89 05 a9 65 00 00    	mov    %eax,0x65a9(%rip)        # e5f4 <g_256>
    804b:	eb 24                	jmp    8071 <func_68+0x131d>
    804d:	48 8d 05 cc 55 00 00 	lea    0x55cc(%rip),%rax        # d620 <g_183>
    8054:	48 89 85 00 f5 ff ff 	mov    %rax,-0xb00(%rbp)
    805b:	48 8b 85 00 f5 ff ff 	mov    -0xb00(%rbp),%rax
    8062:	48 c7 00 00 00 00 00 	movq   $0x0,(%rax)
    8069:	8b 85 58 f5 ff ff    	mov    -0xaa8(%rbp),%eax
    806f:	eb 34                	jmp    80a5 <func_68+0x1351>
    8071:	8b 05 7d 65 00 00    	mov    0x657d(%rip),%eax        # e5f4 <g_256>
    8077:	83 f8 29             	cmp    $0x29,%eax
    807a:	0f 86 5b f9 ff ff    	jbe    79db <func_68+0xc87>
    8080:	c7 05 b6 50 00 00 29 	movl   $0xbda03c29,0x50b6(%rip)        # d140 <g_331>
    8087:	3c a0 bd 
    808a:	0f b7 05 c7 50 00 00 	movzwl 0x50c7(%rip),%eax        # d158 <g_340>
    8091:	83 e8 01             	sub    $0x1,%eax
    8094:	66 89 05 bd 50 00 00 	mov    %ax,0x50bd(%rip)        # d158 <g_340>
    809b:	48 8b 85 28 f4 ff ff 	mov    -0xbd8(%rbp),%rax
    80a2:	0f b6 00             	movzbl (%rax),%eax
    80a5:	48 8b 5d d8          	mov    -0x28(%rbp),%rbx
    80a9:	64 48 33 1c 25 28 00 	xor    %fs:0x28,%rbx
    80b0:	00 00 
    80b2:	74 05                	je     80b9 <func_68+0x1365>
    80b4:	e8 b7 bf ff ff       	callq  4070 <__stack_chk_fail@plt>
    80b9:	48 81 c4 c0 0b 00 00 	add    $0xbc0,%rsp
    80c0:	5b                   	pop    %rbx
    80c1:	41 5c                	pop    %r12
    80c3:	41 5d                	pop    %r13
    80c5:	41 5e                	pop    %r14
    80c7:	5d                   	pop    %rbp
    80c8:	c3                   	retq   

00000000000080c9 <func_74>:
    80c9:	f3 0f 1e fa          	endbr64 
    80cd:	55                   	push   %rbp
    80ce:	48 89 e5             	mov    %rsp,%rbp
    80d1:	53                   	push   %rbx
    80d2:	48 83 ec 78          	sub    $0x78,%rsp
    80d6:	48 89 7d 98          	mov    %rdi,-0x68(%rbp)
    80da:	89 75 94             	mov    %esi,-0x6c(%rbp)
    80dd:	48 89 55 88          	mov    %rdx,-0x78(%rbp)
    80e1:	89 4d 90             	mov    %ecx,-0x70(%rbp)
    80e4:	44 89 45 84          	mov    %r8d,-0x7c(%rbp)
    80e8:	64 48 8b 04 25 28 00 	mov    %fs:0x28,%rax
    80ef:	00 00 
    80f1:	48 89 45 e8          	mov    %rax,-0x18(%rbp)
    80f5:	31 c0                	xor    %eax,%eax
    80f7:	c7 45 a4 f9 ff ff ff 	movl   $0xfffffff9,-0x5c(%rbp)
    80fe:	c7 45 a0 01 00 00 00 	movl   $0x1,-0x60(%rbp)
    8105:	48 8d 05 b8 4f 00 00 	lea    0x4fb8(%rip),%rax        # d0c4 <g_95>
    810c:	48 89 45 b8          	mov    %rax,-0x48(%rbp)
    8110:	48 8d 05 01 55 00 00 	lea    0x5501(%rip),%rax        # d618 <g_84>
    8117:	48 89 45 c0          	mov    %rax,-0x40(%rbp)
    811b:	48 8d 05 28 4f 00 00 	lea    0x4f28(%rip),%rax        # d04a <g_18>
    8122:	48 89 45 a8          	mov    %rax,-0x58(%rbp)
    8126:	48 8d 45 a8          	lea    -0x58(%rbp),%rax
    812a:	48 89 45 c8          	mov    %rax,-0x38(%rbp)
    812e:	48 8d 05 93 4f 00 00 	lea    0x4f93(%rip),%rax        # d0c8 <g_112>
    8135:	48 89 45 d0          	mov    %rax,-0x30(%rbp)
    8139:	48 8d 05 84 4f 00 00 	lea    0x4f84(%rip),%rax        # d0c4 <g_95>
    8140:	48 89 45 d8          	mov    %rax,-0x28(%rbp)
    8144:	48 8d 45 a0          	lea    -0x60(%rbp),%rax
    8148:	48 89 45 e0          	mov    %rax,-0x20(%rbp)
    814c:	48 c7 45 b0 00 00 00 	movq   $0x0,-0x50(%rbp)
    8153:	00 
    8154:	8b 45 a4             	mov    -0x5c(%rbp),%eax
    8157:	0f b6 d0             	movzbl %al,%edx
    815a:	48 8b 45 88          	mov    -0x78(%rbp),%rax
    815e:	0f b6 00             	movzbl (%rax),%eax
    8161:	0f b6 c0             	movzbl %al,%eax
    8164:	89 d6                	mov    %edx,%esi
    8166:	89 c7                	mov    %eax,%edi
    8168:	e8 41 ca ff ff       	callq  4bae <safe_mod_func_uint8_t_u_u>
    816d:	84 c0                	test   %al,%al
    816f:	0f 94 c0             	sete   %al
    8172:	0f b6 d0             	movzbl %al,%edx
    8175:	c7 45 a0 e9 00 00 00 	movl   $0xe9,-0x60(%rbp)
    817c:	8b 45 a0             	mov    -0x60(%rbp),%eax
    817f:	09 c2                	or     %eax,%edx
    8181:	0f b6 05 c2 4e 00 00 	movzbl 0x4ec2(%rip),%eax        # d04a <g_18>
    8188:	0f be c0             	movsbl %al,%eax
    818b:	39 c2                	cmp    %eax,%edx
    818d:	0f 95 c0             	setne  %al
    8190:	0f b6 c0             	movzbl %al,%eax
    8193:	f7 d0                	not    %eax
    8195:	89 c2                	mov    %eax,%edx
    8197:	48 8b 45 b8          	mov    -0x48(%rbp),%rax
    819b:	89 10                	mov    %edx,(%rax)
    819d:	48 8b 45 c0          	mov    -0x40(%rbp),%rax
    81a1:	48 8b 55 98          	mov    -0x68(%rbp),%rdx
    81a5:	48 89 10             	mov    %rdx,(%rax)
    81a8:	48 8b 45 c0          	mov    -0x40(%rbp),%rax
    81ac:	48 8b 00             	mov    (%rax),%rax
    81af:	48 8d 15 52 54 00 00 	lea    0x5452(%rip),%rdx        # d608 <g_55>
    81b6:	48 39 d0             	cmp    %rdx,%rax
    81b9:	48 8b 45 c8          	mov    -0x38(%rbp),%rax
    81bd:	48 8d 15 86 4e 00 00 	lea    0x4e86(%rip),%rdx        # d04a <g_18>
    81c4:	48 89 10             	mov    %rdx,(%rax)
    81c7:	48 8b 45 88          	mov    -0x78(%rbp),%rax
    81cb:	0f b6 00             	movzbl (%rax),%eax
    81ce:	0f b6 d8             	movzbl %al,%ebx
    81d1:	8b 15 59 4e 00 00    	mov    0x4e59(%rip),%edx        # d030 <g_2>
    81d7:	8b 0d e7 4e 00 00    	mov    0x4ee7(%rip),%ecx        # d0c4 <g_95>
    81dd:	48 8b 45 b8          	mov    -0x48(%rbp),%rax
    81e1:	89 08                	mov    %ecx,(%rax)
    81e3:	48 8b 45 b8          	mov    -0x48(%rbp),%rax
    81e7:	8b 00                	mov    (%rax),%eax
    81e9:	89 d6                	mov    %edx,%esi
    81eb:	89 c7                	mov    %eax,%edi
    81ed:	e8 0d c5 ff ff       	callq  46ff <safe_div_func_int32_t_s_s>
    81f2:	85 c0                	test   %eax,%eax
    81f4:	75 0b                	jne    8201 <func_74+0x138>
    81f6:	0f b6 05 4d 4e 00 00 	movzbl 0x4e4d(%rip),%eax        # d04a <g_18>
    81fd:	84 c0                	test   %al,%al
    81ff:	74 07                	je     8208 <func_74+0x13f>
    8201:	ba 01 00 00 00       	mov    $0x1,%edx
    8206:	eb 05                	jmp    820d <func_74+0x144>
    8208:	ba 00 00 00 00       	mov    $0x0,%edx
    820d:	8b 45 a0             	mov    -0x60(%rbp),%eax
    8210:	39 c2                	cmp    %eax,%edx
    8212:	0f b6 05 35 4e 00 00 	movzbl 0x4e35(%rip),%eax        # d04e <g_56>
    8219:	84 c0                	test   %al,%al
    821b:	48 8b 45 b8          	mov    -0x48(%rbp),%rax
    821f:	8b 00                	mov    (%rax),%eax
    8221:	39 45 84             	cmp    %eax,-0x7c(%rbp)
    8224:	0f 9d c0             	setge  %al
    8227:	f7 d0                	not    %eax
    8229:	0f b6 c0             	movzbl %al,%eax
    822c:	89 de                	mov    %ebx,%esi
    822e:	89 c7                	mov    %eax,%edi
    8230:	e8 79 c9 ff ff       	callq  4bae <safe_mod_func_uint8_t_u_u>
    8235:	be 01 00 00 00       	mov    $0x1,%esi
    823a:	bf 00 00 00 00       	mov    $0x0,%edi
    823f:	e8 5d c0 ff ff       	callq  42a1 <safe_lshift_func_int8_t_s_s>
    8244:	0f be c0             	movsbl %al,%eax
    8247:	be 02 00 00 00       	mov    $0x2,%esi
    824c:	89 c7                	mov    %eax,%edi
    824e:	e8 e2 c0 ff ff       	callq  4335 <safe_rshift_func_int8_t_s_s>
    8253:	be 02 00 00 00       	mov    $0x2,%esi
    8258:	bf 00 00 00 00       	mov    $0x0,%edi
    825d:	e8 c8 c2 ff ff       	callq  452a <safe_rshift_func_int16_t_s_s>
    8262:	48 8b 55 d0          	mov    -0x30(%rbp),%rdx
    8266:	66 89 02             	mov    %ax,(%rdx)
    8269:	48 83 7d d8 00       	cmpq   $0x0,-0x28(%rbp)
    826e:	0f 94 c0             	sete   %al
    8271:	0f b6 c0             	movzbl %al,%eax
    8274:	23 45 90             	and    -0x70(%rbp),%eax
    8277:	89 c2                	mov    %eax,%edx
    8279:	48 8b 45 e0          	mov    -0x20(%rbp),%rax
    827d:	89 10                	mov    %edx,(%rax)
    827f:	48 8b 45 b0          	mov    -0x50(%rbp),%rax
    8283:	48 8b 5d e8          	mov    -0x18(%rbp),%rbx
    8287:	64 48 33 1c 25 28 00 	xor    %fs:0x28,%rbx
    828e:	00 00 
    8290:	74 05                	je     8297 <func_74+0x1ce>
    8292:	e8 d9 bd ff ff       	callq  4070 <__stack_chk_fail@plt>
    8297:	48 83 c4 78          	add    $0x78,%rsp
    829b:	5b                   	pop    %rbx
    829c:	5d                   	pop    %rbp
    829d:	c3                   	retq   

000000000000829e <func_80>:
    829e:	f3 0f 1e fa          	endbr64 
    82a2:	55                   	push   %rbp
    82a3:	48 89 e5             	mov    %rsp,%rbp
    82a6:	48 89 7d f8          	mov    %rdi,-0x8(%rbp)
    82aa:	48 89 75 f0          	mov    %rsi,-0x10(%rbp)
    82ae:	48 8b 05 63 53 00 00 	mov    0x5363(%rip),%rax        # d618 <g_84>
    82b5:	5d                   	pop    %rbp
    82b6:	c3                   	retq   

00000000000082b7 <main>:
    82b7:	f3 0f 1e fa          	endbr64 
    82bb:	55                   	push   %rbp
    82bc:	48 89 e5             	mov    %rsp,%rbp
    82bf:	48 83 ec 20          	sub    $0x20,%rsp
    82c3:	89 7d ec             	mov    %edi,-0x14(%rbp)
    82c6:	48 89 75 e0          	mov    %rsi,-0x20(%rbp)
    82ca:	c7 45 fc 00 00 00 00 	movl   $0x0,-0x4(%rbp)
    82d1:	83 7d ec 02          	cmpl   $0x2,-0x14(%rbp)
    82d5:	75 25                	jne    82fc <main+0x45>
    82d7:	48 8b 45 e0          	mov    -0x20(%rbp),%rax
    82db:	48 83 c0 08          	add    $0x8,%rax
    82df:	48 8b 00             	mov    (%rax),%rax
    82e2:	48 8d 35 b7 19 00 00 	lea    0x19b7(%rip),%rsi        # 9ca0 <g_518+0xc38>
    82e9:	48 89 c7             	mov    %rax,%rdi
    82ec:	e8 9f bd ff ff       	callq  4090 <strcmp@plt>
    82f1:	85 c0                	test   %eax,%eax
    82f3:	75 07                	jne    82fc <main+0x45>
    82f5:	c7 45 fc 01 00 00 00 	movl   $0x1,-0x4(%rbp)
    82fc:	e8 88 be ff ff       	callq  4189 <platform_main_begin>
    8301:	e8 92 d2 ff ff       	callq  5598 <crc32_gentab>
    8306:	e8 aa d4 ff ff       	callq  57b5 <func_1>
    830b:	c7 45 f4 00 00 00 00 	movl   $0x0,-0xc(%rbp)
    8312:	eb 4b                	jmp    835f <main+0xa8>
    8314:	8b 45 f4             	mov    -0xc(%rbp),%eax
    8317:	48 98                	cltq   
    8319:	48 8d 14 85 00 00 00 	lea    0x0(,%rax,4),%rdx
    8320:	00 
    8321:	48 8d 05 08 4d 00 00 	lea    0x4d08(%rip),%rax        # d030 <g_2>
    8328:	8b 04 02             	mov    (%rdx,%rax,1),%eax
    832b:	48 98                	cltq   
    832d:	8b 55 fc             	mov    -0x4(%rbp),%edx
    8330:	48 8d 35 6b 19 00 00 	lea    0x196b(%rip),%rsi        # 9ca2 <g_518+0xc3a>
    8337:	48 89 c7             	mov    %rax,%rdi
    833a:	e8 b4 d3 ff ff       	callq  56f3 <transparent_crc>
    833f:	83 7d fc 00          	cmpl   $0x0,-0x4(%rbp)
    8343:	74 16                	je     835b <main+0xa4>
    8345:	8b 45 f4             	mov    -0xc(%rbp),%eax
    8348:	89 c6                	mov    %eax,%esi
    834a:	48 8d 3d 58 19 00 00 	lea    0x1958(%rip),%rdi        # 9ca9 <g_518+0xc41>
    8351:	b8 00 00 00 00       	mov    $0x0,%eax
    8356:	e8 25 bd ff ff       	callq  4080 <printf@plt>
    835b:	83 45 f4 01          	addl   $0x1,-0xc(%rbp)
    835f:	83 7d f4 05          	cmpl   $0x5,-0xc(%rbp)
    8363:	7e af                	jle    8314 <main+0x5d>
    8365:	0f b7 05 dc 4c 00 00 	movzwl 0x4cdc(%rip),%eax        # d048 <g_16>
    836c:	0f b7 c0             	movzwl %ax,%eax
    836f:	8b 55 fc             	mov    -0x4(%rbp),%edx
    8372:	48 8d 35 3e 19 00 00 	lea    0x193e(%rip),%rsi        # 9cb7 <g_518+0xc4f>
    8379:	48 89 c7             	mov    %rax,%rdi
    837c:	e8 72 d3 ff ff       	callq  56f3 <transparent_crc>
    8381:	0f b6 05 c2 4c 00 00 	movzbl 0x4cc2(%rip),%eax        # d04a <g_18>
    8388:	48 0f be c0          	movsbq %al,%rax
    838c:	8b 55 fc             	mov    -0x4(%rbp),%edx
    838f:	48 8d 35 29 19 00 00 	lea    0x1929(%rip),%rsi        # 9cbf <g_518+0xc57>
    8396:	48 89 c7             	mov    %rax,%rdi
    8399:	e8 55 d3 ff ff       	callq  56f3 <transparent_crc>
    839e:	0f b7 05 a7 4c 00 00 	movzwl 0x4ca7(%rip),%eax        # d04c <g_51>
    83a5:	0f b7 c0             	movzwl %ax,%eax
    83a8:	8b 55 fc             	mov    -0x4(%rbp),%edx
    83ab:	48 8d 35 12 19 00 00 	lea    0x1912(%rip),%rsi        # 9cc4 <g_518+0xc5c>
    83b2:	48 89 c7             	mov    %rax,%rdi
    83b5:	e8 39 d3 ff ff       	callq  56f3 <transparent_crc>
    83ba:	c7 45 f4 00 00 00 00 	movl   $0x0,-0xc(%rbp)
    83c1:	eb 45                	jmp    8408 <main+0x151>
    83c3:	8b 45 f4             	mov    -0xc(%rbp),%eax
    83c6:	48 98                	cltq   
    83c8:	48 8d 15 7f 4c 00 00 	lea    0x4c7f(%rip),%rdx        # d04e <g_56>
    83cf:	0f b6 04 10          	movzbl (%rax,%rdx,1),%eax
    83d3:	0f b6 c0             	movzbl %al,%eax
    83d6:	8b 55 fc             	mov    -0x4(%rbp),%edx
    83d9:	48 8d 35 e9 18 00 00 	lea    0x18e9(%rip),%rsi        # 9cc9 <g_518+0xc61>
    83e0:	48 89 c7             	mov    %rax,%rdi
    83e3:	e8 0b d3 ff ff       	callq  56f3 <transparent_crc>
    83e8:	83 7d fc 00          	cmpl   $0x0,-0x4(%rbp)
    83ec:	74 16                	je     8404 <main+0x14d>
    83ee:	8b 45 f4             	mov    -0xc(%rbp),%eax
    83f1:	89 c6                	mov    %eax,%esi
    83f3:	48 8d 3d af 18 00 00 	lea    0x18af(%rip),%rdi        # 9ca9 <g_518+0xc41>
    83fa:	b8 00 00 00 00       	mov    $0x0,%eax
    83ff:	e8 7c bc ff ff       	callq  4080 <printf@plt>
    8404:	83 45 f4 01          	addl   $0x1,-0xc(%rbp)
    8408:	83 7d f4 04          	cmpl   $0x4,-0xc(%rbp)
    840c:	7e b5                	jle    83c3 <main+0x10c>
    840e:	c7 45 f4 00 00 00 00 	movl   $0x0,-0xc(%rbp)
    8415:	eb 4f                	jmp    8466 <main+0x1af>
    8417:	8b 45 f4             	mov    -0xc(%rbp),%eax
    841a:	48 98                	cltq   
    841c:	48 8d 14 c5 00 00 00 	lea    0x0(,%rax,8),%rdx
    8423:	00 
    8424:	48 8d 05 35 4c 00 00 	lea    0x4c35(%rip),%rax        # d060 <g_57>
    842b:	48 8b 04 02          	mov    (%rdx,%rax,1),%rax
    842f:	48 89 c1             	mov    %rax,%rcx
    8432:	8b 45 fc             	mov    -0x4(%rbp),%eax
    8435:	89 c2                	mov    %eax,%edx
    8437:	48 8d 35 93 18 00 00 	lea    0x1893(%rip),%rsi        # 9cd1 <g_518+0xc69>
    843e:	48 89 cf             	mov    %rcx,%rdi
    8441:	e8 ad d2 ff ff       	callq  56f3 <transparent_crc>
    8446:	83 7d fc 00          	cmpl   $0x0,-0x4(%rbp)
    844a:	74 16                	je     8462 <main+0x1ab>
    844c:	8b 45 f4             	mov    -0xc(%rbp),%eax
    844f:	89 c6                	mov    %eax,%esi
    8451:	48 8d 3d 51 18 00 00 	lea    0x1851(%rip),%rdi        # 9ca9 <g_518+0xc41>
    8458:	b8 00 00 00 00       	mov    $0x0,%eax
    845d:	e8 1e bc ff ff       	callq  4080 <printf@plt>
    8462:	83 45 f4 01          	addl   $0x1,-0xc(%rbp)
    8466:	83 7d f4 06          	cmpl   $0x6,-0xc(%rbp)
    846a:	7e ab                	jle    8417 <main+0x160>
    846c:	c7 45 f4 00 00 00 00 	movl   $0x0,-0xc(%rbp)
    8473:	eb 70                	jmp    84e5 <main+0x22e>
    8475:	c7 45 f8 00 00 00 00 	movl   $0x0,-0x8(%rbp)
    847c:	eb 5d                	jmp    84db <main+0x224>
    847e:	8b 45 f8             	mov    -0x8(%rbp),%eax
    8481:	48 98                	cltq   
    8483:	8b 55 f4             	mov    -0xc(%rbp),%edx
    8486:	48 63 d2             	movslq %edx,%rdx
    8489:	48 c1 e2 02          	shl    $0x2,%rdx
    848d:	48 01 d0             	add    %rdx,%rax
    8490:	48 8d 14 85 00 00 00 	lea    0x0(,%rax,4),%rdx
    8497:	00 
    8498:	48 8d 05 01 4c 00 00 	lea    0x4c01(%rip),%rax        # d0a0 <g_58>
    849f:	8b 04 02             	mov    (%rdx,%rax,1),%eax
    84a2:	89 c1                	mov    %eax,%ecx
    84a4:	8b 45 fc             	mov    -0x4(%rbp),%eax
    84a7:	89 c2                	mov    %eax,%edx
    84a9:	48 8d 35 29 18 00 00 	lea    0x1829(%rip),%rsi        # 9cd9 <g_518+0xc71>
    84b0:	48 89 cf             	mov    %rcx,%rdi
    84b3:	e8 3b d2 ff ff       	callq  56f3 <transparent_crc>
    84b8:	83 7d fc 00          	cmpl   $0x0,-0x4(%rbp)
    84bc:	74 19                	je     84d7 <main+0x220>
    84be:	8b 55 f8             	mov    -0x8(%rbp),%edx
    84c1:	8b 45 f4             	mov    -0xc(%rbp),%eax
    84c4:	89 c6                	mov    %eax,%esi
    84c6:	48 8d 3d 17 18 00 00 	lea    0x1817(%rip),%rdi        # 9ce4 <g_518+0xc7c>
    84cd:	b8 00 00 00 00       	mov    $0x0,%eax
    84d2:	e8 a9 bb ff ff       	callq  4080 <printf@plt>
    84d7:	83 45 f8 01          	addl   $0x1,-0x8(%rbp)
    84db:	83 7d f8 03          	cmpl   $0x3,-0x8(%rbp)
    84df:	7e 9d                	jle    847e <main+0x1c7>
    84e1:	83 45 f4 01          	addl   $0x1,-0xc(%rbp)
    84e5:	83 7d f4 01          	cmpl   $0x1,-0xc(%rbp)
    84e9:	7e 8a                	jle    8475 <main+0x1be>
    84eb:	0f b6 05 ce 4b 00 00 	movzbl 0x4bce(%rip),%eax        # d0c0 <g_86>
    84f2:	0f b6 c0             	movzbl %al,%eax
    84f5:	8b 55 fc             	mov    -0x4(%rbp),%edx
    84f8:	48 8d 35 f7 17 00 00 	lea    0x17f7(%rip),%rsi        # 9cf6 <g_518+0xc8e>
    84ff:	48 89 c7             	mov    %rax,%rdi
    8502:	e8 ec d1 ff ff       	callq  56f3 <transparent_crc>
    8507:	8b 05 b7 4b 00 00    	mov    0x4bb7(%rip),%eax        # d0c4 <g_95>
    850d:	48 98                	cltq   
    850f:	8b 55 fc             	mov    -0x4(%rbp),%edx
    8512:	48 8d 35 e2 17 00 00 	lea    0x17e2(%rip),%rsi        # 9cfb <g_518+0xc93>
    8519:	48 89 c7             	mov    %rax,%rdi
    851c:	e8 d2 d1 ff ff       	callq  56f3 <transparent_crc>
    8521:	0f b7 05 a0 4b 00 00 	movzwl 0x4ba0(%rip),%eax        # d0c8 <g_112>
    8528:	48 0f bf c0          	movswq %ax,%rax
    852c:	8b 55 fc             	mov    -0x4(%rbp),%edx
    852f:	48 8d 35 ca 17 00 00 	lea    0x17ca(%rip),%rsi        # 9d00 <g_518+0xc98>
    8536:	48 89 c7             	mov    %rax,%rdi
    8539:	e8 b5 d1 ff ff       	callq  56f3 <transparent_crc>
    853e:	48 8b 05 8b 4b 00 00 	mov    0x4b8b(%rip),%rax        # d0d0 <g_137>
    8545:	8b 55 fc             	mov    -0x4(%rbp),%edx
    8548:	48 8d 35 b7 17 00 00 	lea    0x17b7(%rip),%rsi        # 9d06 <g_518+0xc9e>
    854f:	48 89 c7             	mov    %rax,%rdi
    8552:	e8 9c d1 ff ff       	callq  56f3 <transparent_crc>
    8557:	0f b7 05 7a 4b 00 00 	movzwl 0x4b7a(%rip),%eax        # d0d8 <g_207>
    855e:	48 0f bf c0          	movswq %ax,%rax
    8562:	8b 55 fc             	mov    -0x4(%rbp),%edx
    8565:	48 8d 35 a0 17 00 00 	lea    0x17a0(%rip),%rsi        # 9d0c <g_518+0xca4>
    856c:	48 89 c7             	mov    %rax,%rdi
    856f:	e8 7f d1 ff ff       	callq  56f3 <transparent_crc>
    8574:	c7 45 f4 00 00 00 00 	movl   $0x0,-0xc(%rbp)
    857b:	eb 4e                	jmp    85cb <main+0x314>
    857d:	8b 45 f4             	mov    -0xc(%rbp),%eax
    8580:	48 98                	cltq   
    8582:	48 8d 14 c5 00 00 00 	lea    0x0(,%rax,8),%rdx
    8589:	00 
    858a:	48 8d 05 4f 4b 00 00 	lea    0x4b4f(%rip),%rax        # d0e0 <g_210>
    8591:	0f b7 04 02          	movzwl (%rdx,%rax,1),%eax
    8595:	48 0f bf c0          	movswq %ax,%rax
    8599:	8b 55 fc             	mov    -0x4(%rbp),%edx
    859c:	48 8d 35 6f 17 00 00 	lea    0x176f(%rip),%rsi        # 9d12 <g_518+0xcaa>
    85a3:	48 89 c7             	mov    %rax,%rdi
    85a6:	e8 48 d1 ff ff       	callq  56f3 <transparent_crc>
    85ab:	83 7d fc 00          	cmpl   $0x0,-0x4(%rbp)
    85af:	74 16                	je     85c7 <main+0x310>
    85b1:	8b 45 f4             	mov    -0xc(%rbp),%eax
    85b4:	89 c6                	mov    %eax,%esi
    85b6:	48 8d 3d ec 16 00 00 	lea    0x16ec(%rip),%rdi        # 9ca9 <g_518+0xc41>
    85bd:	b8 00 00 00 00       	mov    $0x0,%eax
    85c2:	e8 b9 ba ff ff       	callq  4080 <printf@plt>
    85c7:	83 45 f4 01          	addl   $0x1,-0xc(%rbp)
    85cb:	83 7d f4 02          	cmpl   $0x2,-0xc(%rbp)
    85cf:	7e ac                	jle    857d <main+0x2c6>
    85d1:	0f b6 05 18 60 00 00 	movzbl 0x6018(%rip),%eax        # e5f0 <g_222>
    85d8:	48 0f be c0          	movsbq %al,%rax
    85dc:	8b 55 fc             	mov    -0x4(%rbp),%edx
    85df:	48 8d 35 38 17 00 00 	lea    0x1738(%rip),%rsi        # 9d1e <g_518+0xcb6>
    85e6:	48 89 c7             	mov    %rax,%rdi
    85e9:	e8 05 d1 ff ff       	callq  56f3 <transparent_crc>
    85ee:	8b 05 00 60 00 00    	mov    0x6000(%rip),%eax        # e5f4 <g_256>
    85f4:	89 c1                	mov    %eax,%ecx
    85f6:	8b 45 fc             	mov    -0x4(%rbp),%eax
    85f9:	89 c2                	mov    %eax,%edx
    85fb:	48 8d 35 22 17 00 00 	lea    0x1722(%rip),%rsi        # 9d24 <g_518+0xcbc>
    8602:	48 89 cf             	mov    %rcx,%rdi
    8605:	e8 e9 d0 ff ff       	callq  56f3 <transparent_crc>
    860a:	0f b6 05 e7 4a 00 00 	movzbl 0x4ae7(%rip),%eax        # d0f8 <g_262>
    8611:	0f b6 c0             	movzbl %al,%eax
    8614:	8b 55 fc             	mov    -0x4(%rbp),%edx
    8617:	48 8d 35 0c 17 00 00 	lea    0x170c(%rip),%rsi        # 9d2a <g_518+0xcc2>
    861e:	48 89 c7             	mov    %rax,%rdi
    8621:	e8 cd d0 ff ff       	callq  56f3 <transparent_crc>
    8626:	c7 45 f4 00 00 00 00 	movl   $0x0,-0xc(%rbp)
    862d:	eb 4a                	jmp    8679 <main+0x3c2>
    862f:	8b 45 f4             	mov    -0xc(%rbp),%eax
    8632:	48 98                	cltq   
    8634:	48 8d 14 c5 00 00 00 	lea    0x0(,%rax,8),%rdx
    863b:	00 
    863c:	48 8d 05 bd 4a 00 00 	lea    0x4abd(%rip),%rax        # d100 <g_294>
    8643:	48 8b 04 02          	mov    (%rdx,%rax,1),%rax
    8647:	8b 55 fc             	mov    -0x4(%rbp),%edx
    864a:	48 8d 35 df 16 00 00 	lea    0x16df(%rip),%rsi        # 9d30 <g_518+0xcc8>
    8651:	48 89 c7             	mov    %rax,%rdi
    8654:	e8 9a d0 ff ff       	callq  56f3 <transparent_crc>
    8659:	83 7d fc 00          	cmpl   $0x0,-0x4(%rbp)
    865d:	74 16                	je     8675 <main+0x3be>
    865f:	8b 45 f4             	mov    -0xc(%rbp),%eax
    8662:	89 c6                	mov    %eax,%esi
    8664:	48 8d 3d 3e 16 00 00 	lea    0x163e(%rip),%rdi        # 9ca9 <g_518+0xc41>
    866b:	b8 00 00 00 00       	mov    $0x0,%eax
    8670:	e8 0b ba ff ff       	callq  4080 <printf@plt>
    8675:	83 45 f4 01          	addl   $0x1,-0xc(%rbp)
    8679:	83 7d f4 07          	cmpl   $0x7,-0xc(%rbp)
    867d:	7e b0                	jle    862f <main+0x378>
    867f:	8b 05 bb 4a 00 00    	mov    0x4abb(%rip),%eax        # d140 <g_331>
    8685:	48 98                	cltq   
    8687:	8b 55 fc             	mov    -0x4(%rbp),%edx
    868a:	48 8d 35 a8 16 00 00 	lea    0x16a8(%rip),%rsi        # 9d39 <g_518+0xcd1>
    8691:	48 89 c7             	mov    %rax,%rdi
    8694:	e8 5a d0 ff ff       	callq  56f3 <transparent_crc>
    8699:	0f b7 05 a4 4a 00 00 	movzwl 0x4aa4(%rip),%eax        # d144 <g_332>
    86a0:	48 0f bf c0          	movswq %ax,%rax
    86a4:	8b 55 fc             	mov    -0x4(%rbp),%edx
    86a7:	48 8d 35 91 16 00 00 	lea    0x1691(%rip),%rsi        # 9d3f <g_518+0xcd7>
    86ae:	48 89 c7             	mov    %rax,%rdi
    86b1:	e8 3d d0 ff ff       	callq  56f3 <transparent_crc>
    86b6:	0f b7 05 43 5f 00 00 	movzwl 0x5f43(%rip),%eax        # e600 <g_333>
    86bd:	48 0f bf c0          	movswq %ax,%rax
    86c1:	8b 55 fc             	mov    -0x4(%rbp),%edx
    86c4:	48 8d 35 7a 16 00 00 	lea    0x167a(%rip),%rsi        # 9d45 <g_518+0xcdd>
    86cb:	48 89 c7             	mov    %rax,%rdi
    86ce:	e8 20 d0 ff ff       	callq  56f3 <transparent_crc>
    86d3:	48 8b 05 6e 4a 00 00 	mov    0x4a6e(%rip),%rax        # d148 <g_334>
    86da:	48 89 c1             	mov    %rax,%rcx
    86dd:	8b 45 fc             	mov    -0x4(%rbp),%eax
    86e0:	89 c2                	mov    %eax,%edx
    86e2:	48 8d 35 62 16 00 00 	lea    0x1662(%rip),%rsi        # 9d4b <g_518+0xce3>
    86e9:	48 89 cf             	mov    %rcx,%rdi
    86ec:	e8 02 d0 ff ff       	callq  56f3 <transparent_crc>
    86f1:	8b 05 59 4a 00 00    	mov    0x4a59(%rip),%eax        # d150 <g_335>
    86f7:	89 c1                	mov    %eax,%ecx
    86f9:	8b 45 fc             	mov    -0x4(%rbp),%eax
    86fc:	89 c2                	mov    %eax,%edx
    86fe:	48 8d 35 4c 16 00 00 	lea    0x164c(%rip),%rsi        # 9d51 <g_518+0xce9>
    8705:	48 89 cf             	mov    %rcx,%rdi
    8708:	e8 e6 cf ff ff       	callq  56f3 <transparent_crc>
    870d:	8b 05 41 4a 00 00    	mov    0x4a41(%rip),%eax        # d154 <g_339>
    8713:	48 98                	cltq   
    8715:	8b 55 fc             	mov    -0x4(%rbp),%edx
    8718:	48 8d 35 38 16 00 00 	lea    0x1638(%rip),%rsi        # 9d57 <g_518+0xcef>
    871f:	48 89 c7             	mov    %rax,%rdi
    8722:	e8 cc cf ff ff       	callq  56f3 <transparent_crc>
    8727:	0f b7 05 2a 4a 00 00 	movzwl 0x4a2a(%rip),%eax        # d158 <g_340>
    872e:	0f b7 c0             	movzwl %ax,%eax
    8731:	8b 55 fc             	mov    -0x4(%rbp),%edx
    8734:	48 8d 35 22 16 00 00 	lea    0x1622(%rip),%rsi        # 9d5d <g_518+0xcf5>
    873b:	48 89 c7             	mov    %rax,%rdi
    873e:	e8 b0 cf ff ff       	callq  56f3 <transparent_crc>
    8743:	8b 05 13 4a 00 00    	mov    0x4a13(%rip),%eax        # d15c <g_345>
    8749:	48 98                	cltq   
    874b:	8b 55 fc             	mov    -0x4(%rbp),%edx
    874e:	48 8d 35 0e 16 00 00 	lea    0x160e(%rip),%rsi        # 9d63 <g_518+0xcfb>
    8755:	48 89 c7             	mov    %rax,%rdi
    8758:	e8 96 cf ff ff       	callq  56f3 <transparent_crc>
    875d:	0f b7 05 fc 49 00 00 	movzwl 0x49fc(%rip),%eax        # d160 <g_386>
    8764:	0f b7 c0             	movzwl %ax,%eax
    8767:	8b 55 fc             	mov    -0x4(%rbp),%edx
    876a:	48 8d 35 f8 15 00 00 	lea    0x15f8(%rip),%rsi        # 9d69 <g_518+0xd01>
    8771:	48 89 c7             	mov    %rax,%rdi
    8774:	e8 7a cf ff ff       	callq  56f3 <transparent_crc>
    8779:	0f b7 05 90 5e 00 00 	movzwl 0x5e90(%rip),%eax        # e610 <g_388>
    8780:	48 0f bf c0          	movswq %ax,%rax
    8784:	8b 55 fc             	mov    -0x4(%rbp),%edx
    8787:	48 8d 35 e4 15 00 00 	lea    0x15e4(%rip),%rsi        # 9d72 <g_518+0xd0a>
    878e:	48 89 c7             	mov    %rax,%rdi
    8791:	e8 5d cf ff ff       	callq  56f3 <transparent_crc>
    8796:	b8 61 12 00 00       	mov    $0x1261,%eax
    879b:	48 0f bf c0          	movswq %ax,%rax
    879f:	8b 55 fc             	mov    -0x4(%rbp),%edx
    87a2:	48 8d 35 d2 15 00 00 	lea    0x15d2(%rip),%rsi        # 9d7b <g_518+0xd13>
    87a9:	48 89 c7             	mov    %rax,%rdi
    87ac:	e8 42 cf ff ff       	callq  56f3 <transparent_crc>
    87b1:	0f b6 05 aa 49 00 00 	movzbl 0x49aa(%rip),%eax        # d162 <g_439>
    87b8:	0f b6 c0             	movzbl %al,%eax
    87bb:	8b 55 fc             	mov    -0x4(%rbp),%edx
    87be:	48 8d 35 bc 15 00 00 	lea    0x15bc(%rip),%rsi        # 9d81 <g_518+0xd19>
    87c5:	48 89 c7             	mov    %rax,%rdi
    87c8:	e8 26 cf ff ff       	callq  56f3 <transparent_crc>
    87cd:	0f b7 05 94 49 00 00 	movzwl 0x4994(%rip),%eax        # d168 <g_465>
    87d4:	48 0f bf c0          	movswq %ax,%rax
    87d8:	8b 55 fc             	mov    -0x4(%rbp),%edx
    87db:	48 8d 35 a5 15 00 00 	lea    0x15a5(%rip),%rsi        # 9d87 <g_518+0xd1f>
    87e2:	48 89 c7             	mov    %rax,%rdi
    87e5:	e8 09 cf ff ff       	callq  56f3 <transparent_crc>
    87ea:	0f b7 05 7f 49 00 00 	movzwl 0x497f(%rip),%eax        # d170 <g_479>
    87f1:	66 25 ff 3f          	and    $0x3fff,%ax
    87f5:	0f b7 c0             	movzwl %ax,%eax
    87f8:	8b 55 fc             	mov    -0x4(%rbp),%edx
    87fb:	48 8d 35 8e 15 00 00 	lea    0x158e(%rip),%rsi        # 9d90 <g_518+0xd28>
    8802:	48 89 c7             	mov    %rax,%rdi
    8805:	e8 e9 ce ff ff       	callq  56f3 <transparent_crc>
    880a:	8b 05 68 49 00 00    	mov    0x4968(%rip),%eax        # d178 <g_529>
    8810:	89 c1                	mov    %eax,%ecx
    8812:	8b 45 fc             	mov    -0x4(%rbp),%eax
    8815:	89 c2                	mov    %eax,%edx
    8817:	48 8d 35 7b 15 00 00 	lea    0x157b(%rip),%rsi        # 9d99 <g_518+0xd31>
    881e:	48 89 cf             	mov    %rcx,%rdi
    8821:	e8 cd ce ff ff       	callq  56f3 <transparent_crc>
    8826:	c7 45 f4 00 00 00 00 	movl   $0x0,-0xc(%rbp)
    882d:	eb 49                	jmp    8878 <main+0x5c1>
    882f:	8b 45 f4             	mov    -0xc(%rbp),%eax
    8832:	48 98                	cltq   
    8834:	48 8d 14 00          	lea    (%rax,%rax,1),%rdx
    8838:	48 8d 05 41 49 00 00 	lea    0x4941(%rip),%rax        # d180 <g_542>
    883f:	0f b7 04 02          	movzwl (%rdx,%rax,1),%eax
    8843:	0f b7 c0             	movzwl %ax,%eax
    8846:	8b 55 fc             	mov    -0x4(%rbp),%edx
    8849:	48 8d 35 4f 15 00 00 	lea    0x154f(%rip),%rsi        # 9d9f <g_518+0xd37>
    8850:	48 89 c7             	mov    %rax,%rdi
    8853:	e8 9b ce ff ff       	callq  56f3 <transparent_crc>
    8858:	83 7d fc 00          	cmpl   $0x0,-0x4(%rbp)
    885c:	74 16                	je     8874 <main+0x5bd>
    885e:	8b 45 f4             	mov    -0xc(%rbp),%eax
    8861:	89 c6                	mov    %eax,%esi
    8863:	48 8d 3d 3f 14 00 00 	lea    0x143f(%rip),%rdi        # 9ca9 <g_518+0xc41>
    886a:	b8 00 00 00 00       	mov    $0x0,%eax
    886f:	e8 0c b8 ff ff       	callq  4080 <printf@plt>
    8874:	83 45 f4 01          	addl   $0x1,-0xc(%rbp)
    8878:	83 7d f4 08          	cmpl   $0x8,-0xc(%rbp)
    887c:	7e b1                	jle    882f <main+0x578>
    887e:	c7 45 f4 00 00 00 00 	movl   $0x0,-0xc(%rbp)
    8885:	eb 4d                	jmp    88d4 <main+0x61d>
    8887:	8b 45 f4             	mov    -0xc(%rbp),%eax
    888a:	48 98                	cltq   
    888c:	48 8d 14 85 00 00 00 	lea    0x0(,%rax,4),%rdx
    8893:	00 
    8894:	48 8d 05 05 49 00 00 	lea    0x4905(%rip),%rax        # d1a0 <g_614>
    889b:	8b 04 02             	mov    (%rdx,%rax,1),%eax
    889e:	89 c1                	mov    %eax,%ecx
    88a0:	8b 45 fc             	mov    -0x4(%rbp),%eax
    88a3:	89 c2                	mov    %eax,%edx
    88a5:	48 8d 35 fc 14 00 00 	lea    0x14fc(%rip),%rsi        # 9da8 <g_518+0xd40>
    88ac:	48 89 cf             	mov    %rcx,%rdi
    88af:	e8 3f ce ff ff       	callq  56f3 <transparent_crc>
    88b4:	83 7d fc 00          	cmpl   $0x0,-0x4(%rbp)
    88b8:	74 16                	je     88d0 <main+0x619>
    88ba:	8b 45 f4             	mov    -0xc(%rbp),%eax
    88bd:	89 c6                	mov    %eax,%esi
    88bf:	48 8d 3d e3 13 00 00 	lea    0x13e3(%rip),%rdi        # 9ca9 <g_518+0xc41>
    88c6:	b8 00 00 00 00       	mov    $0x0,%eax
    88cb:	e8 b0 b7 ff ff       	callq  4080 <printf@plt>
    88d0:	83 45 f4 01          	addl   $0x1,-0xc(%rbp)
    88d4:	83 7d f4 03          	cmpl   $0x3,-0xc(%rbp)
    88d8:	7e ad                	jle    8887 <main+0x5d0>
    88da:	8b 05 d0 48 00 00    	mov    0x48d0(%rip),%eax        # d1b0 <g_630>
    88e0:	48 98                	cltq   
    88e2:	8b 55 fc             	mov    -0x4(%rbp),%edx
    88e5:	48 8d 35 c5 14 00 00 	lea    0x14c5(%rip),%rsi        # 9db1 <g_518+0xd49>
    88ec:	48 89 c7             	mov    %rax,%rdi
    88ef:	e8 ff cd ff ff       	callq  56f3 <transparent_crc>
    88f4:	8b 05 26 47 00 00    	mov    0x4726(%rip),%eax        # d020 <crc32_context>
    88fa:	f7 d0                	not    %eax
    88fc:	89 c2                	mov    %eax,%edx
    88fe:	8b 45 fc             	mov    -0x4(%rbp),%eax
    8901:	89 c6                	mov    %eax,%esi
    8903:	89 d7                	mov    %edx,%edi
    8905:	e8 8a b8 ff ff       	callq  4194 <platform_main_end>
    890a:	b8 00 00 00 00       	mov    $0x0,%eax
    890f:	c9                   	leaveq 
    8910:	c3                   	retq   
    8911:	66 2e 0f 1f 84 00 00 	nopw   %cs:0x0(%rax,%rax,1)
    8918:	00 00 00 
    891b:	0f 1f 44 00 00       	nopl   0x0(%rax,%rax,1)

0000000000008920 <__libc_csu_init>:
    8920:	f3 0f 1e fa          	endbr64 
    8924:	41 57                	push   %r15
    8926:	4c 8d 3d 83 3c 00 00 	lea    0x3c83(%rip),%r15        # c5b0 <__frame_dummy_init_array_entry>
    892d:	41 56                	push   %r14
    892f:	49 89 d6             	mov    %rdx,%r14
    8932:	41 55                	push   %r13
    8934:	49 89 f5             	mov    %rsi,%r13
    8937:	41 54                	push   %r12
    8939:	41 89 fc             	mov    %edi,%r12d
    893c:	55                   	push   %rbp
    893d:	48 8d 2d 74 3c 00 00 	lea    0x3c74(%rip),%rbp        # c5b8 <__do_global_dtors_aux_fini_array_entry>
    8944:	53                   	push   %rbx
    8945:	4c 29 fd             	sub    %r15,%rbp
    8948:	48 83 ec 08          	sub    $0x8,%rsp
    894c:	e8 af b6 ff ff       	callq  4000 <_init>
    8951:	48 c1 fd 03          	sar    $0x3,%rbp
    8955:	74 1f                	je     8976 <__libc_csu_init+0x56>
    8957:	31 db                	xor    %ebx,%ebx
    8959:	0f 1f 80 00 00 00 00 	nopl   0x0(%rax)
    8960:	4c 89 f2             	mov    %r14,%rdx
    8963:	4c 89 ee             	mov    %r13,%rsi
    8966:	44 89 e7             	mov    %r12d,%edi
    8969:	41 ff 14 df          	callq  *(%r15,%rbx,8)
    896d:	48 83 c3 01          	add    $0x1,%rbx
    8971:	48 39 dd             	cmp    %rbx,%rbp
    8974:	75 ea                	jne    8960 <__libc_csu_init+0x40>
    8976:	48 83 c4 08          	add    $0x8,%rsp
    897a:	5b                   	pop    %rbx
    897b:	5d                   	pop    %rbp
    897c:	41 5c                	pop    %r12
    897e:	41 5d                	pop    %r13
    8980:	41 5e                	pop    %r14
    8982:	41 5f                	pop    %r15
    8984:	c3                   	retq   
    8985:	66 66 2e 0f 1f 84 00 	data16 nopw %cs:0x0(%rax,%rax,1)
    898c:	00 00 00 00 

0000000000008990 <__libc_csu_fini>:
    8990:	f3 0f 1e fa          	endbr64 
    8994:	c3                   	retq   
